; Listing generated by Microsoft (R) Optimizing Compiler Version 19.16.27045.0 

	TITLE	C:\Users\nhv90\Projects\eech\modules\2d\2dart.c
	.686P
	.XMM
	include listing.inc
	.model	flat

INCLUDELIB MSVCRTD
INCLUDELIB OLDNAMES

PUBLIC	___@@_PchSym_@00@UfhvihUmseJAUkilqvxghUvvxsUwvyftUCwzigOlyq@4B2008FD98C1DD4
;	COMDAT ___@@_PchSym_@00@UfhvihUmseJAUkilqvxghUvvxsUwvyftUCwzigOlyq@4B2008FD98C1DD4
_BSS	SEGMENT
___@@_PchSym_@00@UfhvihUmseJAUkilqvxghUvvxsUwvyftUCwzigOlyq@4B2008FD98C1DD4 DD 01H DUP (?)
_BSS	ENDS
PUBLIC	?draw_2d_square@@YGXUREAL_COLOUR@@@Z		; draw_2d_square
PUBLIC	?draw_2d_diamond@@YGXUREAL_COLOUR@@@Z		; draw_2d_diamond
PUBLIC	?draw_2d_triangle@@YGXUREAL_COLOUR@@@Z		; draw_2d_triangle
PUBLIC	?draw_2d_cross@@YGXUREAL_COLOUR@@@Z		; draw_2d_cross
PUBLIC	__real@3f000000
PUBLIC	__real@bf000000
EXTRN	?draw_2d_line@@YGXMMMMUREAL_COLOUR@@@Z:PROC	; draw_2d_line
EXTRN	__fltused:DWORD
;	COMDAT __real@bf000000
CONST	SEGMENT
__real@bf000000 DD 0bf000000r			; -0.5
CONST	ENDS
;	COMDAT __real@3f000000
CONST	SEGMENT
__real@3f000000 DD 03f000000r			; 0.5
CONST	ENDS
; Function compile flags: /Odtp /ZI
; File c:\users\nhv90\projects\eech\modules\2d\2dart.c
;	COMDAT ?draw_2d_cross@@YGXUREAL_COLOUR@@@Z
_TEXT	SEGMENT
_col$ = 8						; size = 4
?draw_2d_cross@@YGXUREAL_COLOUR@@@Z PROC		; draw_2d_cross, COMDAT

; 114  : {

  00000	55		 push	 ebp
  00001	8b ec		 mov	 ebp, esp
  00003	83 ec 40	 sub	 esp, 64			; 00000040H
  00006	53		 push	 ebx
  00007	56		 push	 esi
  00008	57		 push	 edi

; 115  : 
; 116  : 	draw_2d_line (-0.5, -0.5, 0.5, 0.5, col);

  00009	8b 45 08	 mov	 eax, DWORD PTR _col$[ebp]
  0000c	50		 push	 eax
  0000d	51		 push	 ecx
  0000e	f3 0f 10 05 00
	00 00 00	 movss	 xmm0, DWORD PTR __real@3f000000
  00016	f3 0f 11 04 24	 movss	 DWORD PTR [esp], xmm0
  0001b	51		 push	 ecx
  0001c	f3 0f 10 05 00
	00 00 00	 movss	 xmm0, DWORD PTR __real@3f000000
  00024	f3 0f 11 04 24	 movss	 DWORD PTR [esp], xmm0
  00029	51		 push	 ecx
  0002a	f3 0f 10 05 00
	00 00 00	 movss	 xmm0, DWORD PTR __real@bf000000
  00032	f3 0f 11 04 24	 movss	 DWORD PTR [esp], xmm0
  00037	51		 push	 ecx
  00038	f3 0f 10 05 00
	00 00 00	 movss	 xmm0, DWORD PTR __real@bf000000
  00040	f3 0f 11 04 24	 movss	 DWORD PTR [esp], xmm0
  00045	e8 00 00 00 00	 call	 ?draw_2d_line@@YGXMMMMUREAL_COLOUR@@@Z ; draw_2d_line

; 117  : 	draw_2d_line (-0.5, 0.5, 0.5, -0.5, col);

  0004a	8b 45 08	 mov	 eax, DWORD PTR _col$[ebp]
  0004d	50		 push	 eax
  0004e	51		 push	 ecx
  0004f	f3 0f 10 05 00
	00 00 00	 movss	 xmm0, DWORD PTR __real@bf000000
  00057	f3 0f 11 04 24	 movss	 DWORD PTR [esp], xmm0
  0005c	51		 push	 ecx
  0005d	f3 0f 10 05 00
	00 00 00	 movss	 xmm0, DWORD PTR __real@3f000000
  00065	f3 0f 11 04 24	 movss	 DWORD PTR [esp], xmm0
  0006a	51		 push	 ecx
  0006b	f3 0f 10 05 00
	00 00 00	 movss	 xmm0, DWORD PTR __real@3f000000
  00073	f3 0f 11 04 24	 movss	 DWORD PTR [esp], xmm0
  00078	51		 push	 ecx
  00079	f3 0f 10 05 00
	00 00 00	 movss	 xmm0, DWORD PTR __real@bf000000
  00081	f3 0f 11 04 24	 movss	 DWORD PTR [esp], xmm0
  00086	e8 00 00 00 00	 call	 ?draw_2d_line@@YGXMMMMUREAL_COLOUR@@@Z ; draw_2d_line

; 118  : }

  0008b	5f		 pop	 edi
  0008c	5e		 pop	 esi
  0008d	5b		 pop	 ebx
  0008e	8b e5		 mov	 esp, ebp
  00090	5d		 pop	 ebp
  00091	c2 04 00	 ret	 4
?draw_2d_cross@@YGXUREAL_COLOUR@@@Z ENDP		; draw_2d_cross
_TEXT	ENDS
; Function compile flags: /Odtp /ZI
; File c:\users\nhv90\projects\eech\modules\2d\2dart.c
;	COMDAT ?draw_2d_triangle@@YGXUREAL_COLOUR@@@Z
_TEXT	SEGMENT
_col$ = 8						; size = 4
?draw_2d_triangle@@YGXUREAL_COLOUR@@@Z PROC		; draw_2d_triangle, COMDAT

; 102  : {

  00000	55		 push	 ebp
  00001	8b ec		 mov	 ebp, esp
  00003	83 ec 40	 sub	 esp, 64			; 00000040H
  00006	53		 push	 ebx
  00007	56		 push	 esi
  00008	57		 push	 edi

; 103  : 
; 104  : 	draw_2d_line (-0.5, -0.5, 0.0, 0.5, col);

  00009	8b 45 08	 mov	 eax, DWORD PTR _col$[ebp]
  0000c	50		 push	 eax
  0000d	51		 push	 ecx
  0000e	f3 0f 10 05 00
	00 00 00	 movss	 xmm0, DWORD PTR __real@3f000000
  00016	f3 0f 11 04 24	 movss	 DWORD PTR [esp], xmm0
  0001b	51		 push	 ecx
  0001c	0f 57 c0	 xorps	 xmm0, xmm0
  0001f	f3 0f 11 04 24	 movss	 DWORD PTR [esp], xmm0
  00024	51		 push	 ecx
  00025	f3 0f 10 05 00
	00 00 00	 movss	 xmm0, DWORD PTR __real@bf000000
  0002d	f3 0f 11 04 24	 movss	 DWORD PTR [esp], xmm0
  00032	51		 push	 ecx
  00033	f3 0f 10 05 00
	00 00 00	 movss	 xmm0, DWORD PTR __real@bf000000
  0003b	f3 0f 11 04 24	 movss	 DWORD PTR [esp], xmm0
  00040	e8 00 00 00 00	 call	 ?draw_2d_line@@YGXMMMMUREAL_COLOUR@@@Z ; draw_2d_line

; 105  : 	draw_2d_line (0.0, 0.5, 0.5, -0.5, col);

  00045	8b 45 08	 mov	 eax, DWORD PTR _col$[ebp]
  00048	50		 push	 eax
  00049	51		 push	 ecx
  0004a	f3 0f 10 05 00
	00 00 00	 movss	 xmm0, DWORD PTR __real@bf000000
  00052	f3 0f 11 04 24	 movss	 DWORD PTR [esp], xmm0
  00057	51		 push	 ecx
  00058	f3 0f 10 05 00
	00 00 00	 movss	 xmm0, DWORD PTR __real@3f000000
  00060	f3 0f 11 04 24	 movss	 DWORD PTR [esp], xmm0
  00065	51		 push	 ecx
  00066	f3 0f 10 05 00
	00 00 00	 movss	 xmm0, DWORD PTR __real@3f000000
  0006e	f3 0f 11 04 24	 movss	 DWORD PTR [esp], xmm0
  00073	51		 push	 ecx
  00074	0f 57 c0	 xorps	 xmm0, xmm0
  00077	f3 0f 11 04 24	 movss	 DWORD PTR [esp], xmm0
  0007c	e8 00 00 00 00	 call	 ?draw_2d_line@@YGXMMMMUREAL_COLOUR@@@Z ; draw_2d_line

; 106  : 	draw_2d_line (0.5, -0.5, -0.5, -0.5, col);

  00081	8b 45 08	 mov	 eax, DWORD PTR _col$[ebp]
  00084	50		 push	 eax
  00085	51		 push	 ecx
  00086	f3 0f 10 05 00
	00 00 00	 movss	 xmm0, DWORD PTR __real@bf000000
  0008e	f3 0f 11 04 24	 movss	 DWORD PTR [esp], xmm0
  00093	51		 push	 ecx
  00094	f3 0f 10 05 00
	00 00 00	 movss	 xmm0, DWORD PTR __real@bf000000
  0009c	f3 0f 11 04 24	 movss	 DWORD PTR [esp], xmm0
  000a1	51		 push	 ecx
  000a2	f3 0f 10 05 00
	00 00 00	 movss	 xmm0, DWORD PTR __real@bf000000
  000aa	f3 0f 11 04 24	 movss	 DWORD PTR [esp], xmm0
  000af	51		 push	 ecx
  000b0	f3 0f 10 05 00
	00 00 00	 movss	 xmm0, DWORD PTR __real@3f000000
  000b8	f3 0f 11 04 24	 movss	 DWORD PTR [esp], xmm0
  000bd	e8 00 00 00 00	 call	 ?draw_2d_line@@YGXMMMMUREAL_COLOUR@@@Z ; draw_2d_line

; 107  : }

  000c2	5f		 pop	 edi
  000c3	5e		 pop	 esi
  000c4	5b		 pop	 ebx
  000c5	8b e5		 mov	 esp, ebp
  000c7	5d		 pop	 ebp
  000c8	c2 04 00	 ret	 4
?draw_2d_triangle@@YGXUREAL_COLOUR@@@Z ENDP		; draw_2d_triangle
_TEXT	ENDS
; Function compile flags: /Odtp /ZI
; File c:\users\nhv90\projects\eech\modules\2d\2dart.c
;	COMDAT ?draw_2d_diamond@@YGXUREAL_COLOUR@@@Z
_TEXT	SEGMENT
_col$ = 8						; size = 4
?draw_2d_diamond@@YGXUREAL_COLOUR@@@Z PROC		; draw_2d_diamond, COMDAT

; 89   : {

  00000	55		 push	 ebp
  00001	8b ec		 mov	 ebp, esp
  00003	83 ec 40	 sub	 esp, 64			; 00000040H
  00006	53		 push	 ebx
  00007	56		 push	 esi
  00008	57		 push	 edi

; 90   : 
; 91   : 	draw_2d_line (-0.5, 0.0, 0.0, 0.5, col);

  00009	8b 45 08	 mov	 eax, DWORD PTR _col$[ebp]
  0000c	50		 push	 eax
  0000d	51		 push	 ecx
  0000e	f3 0f 10 05 00
	00 00 00	 movss	 xmm0, DWORD PTR __real@3f000000
  00016	f3 0f 11 04 24	 movss	 DWORD PTR [esp], xmm0
  0001b	51		 push	 ecx
  0001c	0f 57 c0	 xorps	 xmm0, xmm0
  0001f	f3 0f 11 04 24	 movss	 DWORD PTR [esp], xmm0
  00024	51		 push	 ecx
  00025	0f 57 c0	 xorps	 xmm0, xmm0
  00028	f3 0f 11 04 24	 movss	 DWORD PTR [esp], xmm0
  0002d	51		 push	 ecx
  0002e	f3 0f 10 05 00
	00 00 00	 movss	 xmm0, DWORD PTR __real@bf000000
  00036	f3 0f 11 04 24	 movss	 DWORD PTR [esp], xmm0
  0003b	e8 00 00 00 00	 call	 ?draw_2d_line@@YGXMMMMUREAL_COLOUR@@@Z ; draw_2d_line

; 92   : 	draw_2d_line (0.0, 0.5, 0.5, 0.0, col);

  00040	8b 45 08	 mov	 eax, DWORD PTR _col$[ebp]
  00043	50		 push	 eax
  00044	51		 push	 ecx
  00045	0f 57 c0	 xorps	 xmm0, xmm0
  00048	f3 0f 11 04 24	 movss	 DWORD PTR [esp], xmm0
  0004d	51		 push	 ecx
  0004e	f3 0f 10 05 00
	00 00 00	 movss	 xmm0, DWORD PTR __real@3f000000
  00056	f3 0f 11 04 24	 movss	 DWORD PTR [esp], xmm0
  0005b	51		 push	 ecx
  0005c	f3 0f 10 05 00
	00 00 00	 movss	 xmm0, DWORD PTR __real@3f000000
  00064	f3 0f 11 04 24	 movss	 DWORD PTR [esp], xmm0
  00069	51		 push	 ecx
  0006a	0f 57 c0	 xorps	 xmm0, xmm0
  0006d	f3 0f 11 04 24	 movss	 DWORD PTR [esp], xmm0
  00072	e8 00 00 00 00	 call	 ?draw_2d_line@@YGXMMMMUREAL_COLOUR@@@Z ; draw_2d_line

; 93   : 	draw_2d_line (0.5, 0.0, 0.0, -0.5, col);

  00077	8b 45 08	 mov	 eax, DWORD PTR _col$[ebp]
  0007a	50		 push	 eax
  0007b	51		 push	 ecx
  0007c	f3 0f 10 05 00
	00 00 00	 movss	 xmm0, DWORD PTR __real@bf000000
  00084	f3 0f 11 04 24	 movss	 DWORD PTR [esp], xmm0
  00089	51		 push	 ecx
  0008a	0f 57 c0	 xorps	 xmm0, xmm0
  0008d	f3 0f 11 04 24	 movss	 DWORD PTR [esp], xmm0
  00092	51		 push	 ecx
  00093	0f 57 c0	 xorps	 xmm0, xmm0
  00096	f3 0f 11 04 24	 movss	 DWORD PTR [esp], xmm0
  0009b	51		 push	 ecx
  0009c	f3 0f 10 05 00
	00 00 00	 movss	 xmm0, DWORD PTR __real@3f000000
  000a4	f3 0f 11 04 24	 movss	 DWORD PTR [esp], xmm0
  000a9	e8 00 00 00 00	 call	 ?draw_2d_line@@YGXMMMMUREAL_COLOUR@@@Z ; draw_2d_line

; 94   : 	draw_2d_line (0.0, -0.5, -0.5, 0.0, col);

  000ae	8b 45 08	 mov	 eax, DWORD PTR _col$[ebp]
  000b1	50		 push	 eax
  000b2	51		 push	 ecx
  000b3	0f 57 c0	 xorps	 xmm0, xmm0
  000b6	f3 0f 11 04 24	 movss	 DWORD PTR [esp], xmm0
  000bb	51		 push	 ecx
  000bc	f3 0f 10 05 00
	00 00 00	 movss	 xmm0, DWORD PTR __real@bf000000
  000c4	f3 0f 11 04 24	 movss	 DWORD PTR [esp], xmm0
  000c9	51		 push	 ecx
  000ca	f3 0f 10 05 00
	00 00 00	 movss	 xmm0, DWORD PTR __real@bf000000
  000d2	f3 0f 11 04 24	 movss	 DWORD PTR [esp], xmm0
  000d7	51		 push	 ecx
  000d8	0f 57 c0	 xorps	 xmm0, xmm0
  000db	f3 0f 11 04 24	 movss	 DWORD PTR [esp], xmm0
  000e0	e8 00 00 00 00	 call	 ?draw_2d_line@@YGXMMMMUREAL_COLOUR@@@Z ; draw_2d_line

; 95   : }

  000e5	5f		 pop	 edi
  000e6	5e		 pop	 esi
  000e7	5b		 pop	 ebx
  000e8	8b e5		 mov	 esp, ebp
  000ea	5d		 pop	 ebp
  000eb	c2 04 00	 ret	 4
?draw_2d_diamond@@YGXUREAL_COLOUR@@@Z ENDP		; draw_2d_diamond
_TEXT	ENDS
; Function compile flags: /Odtp /ZI
; File c:\users\nhv90\projects\eech\modules\2d\2dart.c
;	COMDAT ?draw_2d_square@@YGXUREAL_COLOUR@@@Z
_TEXT	SEGMENT
_col$ = 8						; size = 4
?draw_2d_square@@YGXUREAL_COLOUR@@@Z PROC		; draw_2d_square, COMDAT

; 76   : {

  00000	55		 push	 ebp
  00001	8b ec		 mov	 ebp, esp
  00003	83 ec 40	 sub	 esp, 64			; 00000040H
  00006	53		 push	 ebx
  00007	56		 push	 esi
  00008	57		 push	 edi

; 77   : 
; 78   : 	draw_2d_line (-0.5, -0.5, -0.5, 0.5, col);

  00009	8b 45 08	 mov	 eax, DWORD PTR _col$[ebp]
  0000c	50		 push	 eax
  0000d	51		 push	 ecx
  0000e	f3 0f 10 05 00
	00 00 00	 movss	 xmm0, DWORD PTR __real@3f000000
  00016	f3 0f 11 04 24	 movss	 DWORD PTR [esp], xmm0
  0001b	51		 push	 ecx
  0001c	f3 0f 10 05 00
	00 00 00	 movss	 xmm0, DWORD PTR __real@bf000000
  00024	f3 0f 11 04 24	 movss	 DWORD PTR [esp], xmm0
  00029	51		 push	 ecx
  0002a	f3 0f 10 05 00
	00 00 00	 movss	 xmm0, DWORD PTR __real@bf000000
  00032	f3 0f 11 04 24	 movss	 DWORD PTR [esp], xmm0
  00037	51		 push	 ecx
  00038	f3 0f 10 05 00
	00 00 00	 movss	 xmm0, DWORD PTR __real@bf000000
  00040	f3 0f 11 04 24	 movss	 DWORD PTR [esp], xmm0
  00045	e8 00 00 00 00	 call	 ?draw_2d_line@@YGXMMMMUREAL_COLOUR@@@Z ; draw_2d_line

; 79   : 	draw_2d_line (-0.5, 0.5, 0.5, 0.5, col);

  0004a	8b 45 08	 mov	 eax, DWORD PTR _col$[ebp]
  0004d	50		 push	 eax
  0004e	51		 push	 ecx
  0004f	f3 0f 10 05 00
	00 00 00	 movss	 xmm0, DWORD PTR __real@3f000000
  00057	f3 0f 11 04 24	 movss	 DWORD PTR [esp], xmm0
  0005c	51		 push	 ecx
  0005d	f3 0f 10 05 00
	00 00 00	 movss	 xmm0, DWORD PTR __real@3f000000
  00065	f3 0f 11 04 24	 movss	 DWORD PTR [esp], xmm0
  0006a	51		 push	 ecx
  0006b	f3 0f 10 05 00
	00 00 00	 movss	 xmm0, DWORD PTR __real@3f000000
  00073	f3 0f 11 04 24	 movss	 DWORD PTR [esp], xmm0
  00078	51		 push	 ecx
  00079	f3 0f 10 05 00
	00 00 00	 movss	 xmm0, DWORD PTR __real@bf000000
  00081	f3 0f 11 04 24	 movss	 DWORD PTR [esp], xmm0
  00086	e8 00 00 00 00	 call	 ?draw_2d_line@@YGXMMMMUREAL_COLOUR@@@Z ; draw_2d_line

; 80   : 	draw_2d_line (0.5, 0.5, 0.5, -0.5, col);

  0008b	8b 45 08	 mov	 eax, DWORD PTR _col$[ebp]
  0008e	50		 push	 eax
  0008f	51		 push	 ecx
  00090	f3 0f 10 05 00
	00 00 00	 movss	 xmm0, DWORD PTR __real@bf000000
  00098	f3 0f 11 04 24	 movss	 DWORD PTR [esp], xmm0
  0009d	51		 push	 ecx
  0009e	f3 0f 10 05 00
	00 00 00	 movss	 xmm0, DWORD PTR __real@3f000000
  000a6	f3 0f 11 04 24	 movss	 DWORD PTR [esp], xmm0
  000ab	51		 push	 ecx
  000ac	f3 0f 10 05 00
	00 00 00	 movss	 xmm0, DWORD PTR __real@3f000000
  000b4	f3 0f 11 04 24	 movss	 DWORD PTR [esp], xmm0
  000b9	51		 push	 ecx
  000ba	f3 0f 10 05 00
	00 00 00	 movss	 xmm0, DWORD PTR __real@3f000000
  000c2	f3 0f 11 04 24	 movss	 DWORD PTR [esp], xmm0
  000c7	e8 00 00 00 00	 call	 ?draw_2d_line@@YGXMMMMUREAL_COLOUR@@@Z ; draw_2d_line

; 81   : 	draw_2d_line (-0.5, -0.5, 0.5, -0.5, col);

  000cc	8b 45 08	 mov	 eax, DWORD PTR _col$[ebp]
  000cf	50		 push	 eax
  000d0	51		 push	 ecx
  000d1	f3 0f 10 05 00
	00 00 00	 movss	 xmm0, DWORD PTR __real@bf000000
  000d9	f3 0f 11 04 24	 movss	 DWORD PTR [esp], xmm0
  000de	51		 push	 ecx
  000df	f3 0f 10 05 00
	00 00 00	 movss	 xmm0, DWORD PTR __real@3f000000
  000e7	f3 0f 11 04 24	 movss	 DWORD PTR [esp], xmm0
  000ec	51		 push	 ecx
  000ed	f3 0f 10 05 00
	00 00 00	 movss	 xmm0, DWORD PTR __real@bf000000
  000f5	f3 0f 11 04 24	 movss	 DWORD PTR [esp], xmm0
  000fa	51		 push	 ecx
  000fb	f3 0f 10 05 00
	00 00 00	 movss	 xmm0, DWORD PTR __real@bf000000
  00103	f3 0f 11 04 24	 movss	 DWORD PTR [esp], xmm0
  00108	e8 00 00 00 00	 call	 ?draw_2d_line@@YGXMMMMUREAL_COLOUR@@@Z ; draw_2d_line

; 82   : }

  0010d	5f		 pop	 edi
  0010e	5e		 pop	 esi
  0010f	5b		 pop	 ebx
  00110	8b e5		 mov	 esp, ebp
  00112	5d		 pop	 ebp
  00113	c2 04 00	 ret	 4
?draw_2d_square@@YGXUREAL_COLOUR@@@Z ENDP		; draw_2d_square
_TEXT	ENDS
END
