; Listing generated by Microsoft (R) Optimizing Compiler Version 19.16.27045.0 

	TITLE	C:\Users\nhv90\Projects\eech\aphavoc\source\app3d\3d_init.c
	.686P
	.XMM
	include listing.inc
	.model	flat

INCLUDELIB MSVCRTD
INCLUDELIB OLDNAMES

PUBLIC	?initialise_application_3d_system@@YGXXZ	; initialise_application_3d_system
PUBLIC	?deinitialise_application_3d_system@@YGXXZ	; deinitialise_application_3d_system
PUBLIC	?set_3d_detail_levels@@YGXXZ			; set_3d_detail_levels
PUBLIC	?set_application_display_3d_mode@@YGXW4DISPLAY_3D_TINTS@@W4DISPLAY_3D_LIGHT_LEVELS@@W4DISPLAY_3D_NOISE_LEVELS@@@Z ; set_application_display_3d_mode
PUBLIC	??$min@M@std@@YGABMABM0@Z			; std::min<float>
PUBLIC	??$max@M@std@@YGABMABM0@Z			; std::max<float>
PUBLIC	??_C@_02DKCKIIND@?$CFs@				; `string'
PUBLIC	?__LINE__Var@?0??initialise_application_3d_system@@YGXXZ@4JA ; `initialise_application_3d_system'::`1'::__LINE__Var
PUBLIC	??_C@_0DM@BNNHFLJC@c?3?2users?2nhv90?2projects?2eech?2ap@ ; `string'
PUBLIC	??_C@_0N@LOIAOAH@?$CBmain_3d_env@		; `string'
PUBLIC	??_C@_0BK@FFIFMNKK@?$CBmain_3d_single_light_env@ ; `string'
PUBLIC	??_C@_0BJ@GPDFCBKC@Creating?5mfd?53d?5textures@	; `string'
PUBLIC	??_C@_0BB@JJJMFBGD@Loading?5textures@		; `string'
PUBLIC	??_C@_06KIELAJID@3ddata@			; `string'
PUBLIC	??_C@_0FI@ILJGOAHJ@?$CD?$CD?$CDCUSTOM?5TEXTURE?5STARTUP?3?5init@ ; `string'
PUBLIC	??_C@_0BE@DPPOKICC@3ddata?2displace?4bin@	; `string'
PUBLIC	??_C@_0BG@KJFKADBK@3ddata?2horizon?2dry6am@	; `string'
PUBLIC	??_C@_0BG@PBDJBDEM@3ddata?2horizon?2dry9am@	; `string'
PUBLIC	??_C@_0BH@FCPOPKOM@3ddata?2horizon?2dry12pm@	; `string'
PUBLIC	??_C@_0BG@IDGADKGP@3ddata?2horizon?2dry3pm@	; `string'
PUBLIC	??_C@_0BG@LELOMKFN@3ddata?2horizon?2dry6pm@	; `string'
PUBLIC	??_C@_0BG@OMNNNKAL@3ddata?2horizon?2dry9pm@	; `string'
PUBLIC	??_C@_0BH@EPBKDDKL@3ddata?2horizon?2dry12am@	; `string'
PUBLIC	??_C@_0BF@DPMMOJDG@3ddata?2horizon?2lr6am@	; `string'
PUBLIC	??_C@_0BF@GHKPPJGA@3ddata?2horizon?2lr9am@	; `string'
PUBLIC	??_C@_0BG@GALAAAOF@3ddata?2horizon?2lr12pm@	; `string'
PUBLIC	??_C@_0BF@BFPGNAED@3ddata?2horizon?2lr3pm@	; `string'
PUBLIC	??_C@_0BF@CCCICAHB@3ddata?2horizon?2lr6pm@	; `string'
PUBLIC	??_C@_0BF@HKELDACH@3ddata?2horizon?2lr9pm@	; `string'
PUBLIC	??_C@_0BG@HNFEMJKC@3ddata?2horizon?2lr12am@	; `string'
PUBLIC	??_C@_0BF@KEFNKLCA@3ddata?2horizon?2hr6am@	; `string'
PUBLIC	??_C@_0BF@PMDOLLHG@3ddata?2horizon?2hr9am@	; `string'
PUBLIC	??_C@_0BG@JEPPCEPG@3ddata?2horizon?2hr12pm@	; `string'
PUBLIC	??_C@_0BF@IOGHJCFF@3ddata?2horizon?2hr3pm@	; `string'
PUBLIC	??_C@_0BF@LJLJGCGH@3ddata?2horizon?2hr6pm@	; `string'
PUBLIC	??_C@_0BF@OBNKHCDB@3ddata?2horizon?2hr9pm@	; `string'
PUBLIC	??_C@_0BG@IJBLONLB@3ddata?2horizon?2hr12am@	; `string'
PUBLIC	??_C@_0BH@BEEECGBL@3ddata?2horizon?2snow6am@	; `string'
PUBLIC	??_C@_0BH@EMCHDGEN@3ddata?2horizon?2snow9am@	; `string'
PUBLIC	??_C@_0BI@CFEENEFP@3ddata?2horizon?2snow12pm@	; `string'
PUBLIC	??_C@_0BH@DOHOBPGO@3ddata?2horizon?2snow3pm@	; `string'
PUBLIC	??_C@_0BH@JKAOPFM@3ddata?2horizon?2snow6pm@	; `string'
PUBLIC	??_C@_0BH@FBMDPPAK@3ddata?2horizon?2snow9pm@	; `string'
PUBLIC	??_C@_0BI@DIKABNBI@3ddata?2horizon?2snow12am@	; `string'
PUBLIC	??_C@_0BB@NKBBKCGJ@3ddata?2stars?4bin@		; `string'
PUBLIC	??_C@_0BD@FEEMDEPI@invalid?5comparator@		; `string'
PUBLIC	??_C@_0GK@JMBMHIBC@c?3?2program?5files?5?$CIx86?$CJ?2microsof@ ; `string'
PUBLIC	??_C@_1NE@FKBPBJEB@?$AAc?$AA?3?$AA?2?$AAp?$AAr?$AAo?$AAg?$AAr?$AAa?$AAm?$AA?5?$AAf?$AAi?$AAl?$AAe@ ; `string'
PUBLIC	??_C@_1BC@BLAPCBGI@?$AAs?$AAt?$AAd?$AA?3?$AA?3?$AAm?$AAi?$AAn@ ; `string'
PUBLIC	??_C@_1CK@NDNHPKPI@?$AA?$CC?$AAi?$AAn?$AAv?$AAa?$AAl?$AAi?$AAd?$AA?5?$AAc?$AAo?$AAm?$AAp?$AAa?$AAr@ ; `string'
PUBLIC	??_C@_1BC@ICCOKLEG@?$AAs?$AAt?$AAd?$AA?3?$AA?3?$AAm?$AAa?$AAx@ ; `string'
PUBLIC	__real@00000000
PUBLIC	__real@3d4ccccd
PUBLIC	__real@3d75c28f
PUBLIC	__real@3da3d70a
PUBLIC	__real@3dcccccd
PUBLIC	__real@3df5c28f
PUBLIC	__real@3e19999a
PUBLIC	__real@3e23d70a
PUBLIC	__real@3e4ccccd
PUBLIC	__real@3e6f9db2
PUBLIC	__real@3e75c28f
PUBLIC	__real@3e800000
PUBLIC	__real@3e99999a
PUBLIC	__real@3e9fbe77
PUBLIC	__real@3ea3d70a
PUBLIC	__real@3eb33333
PUBLIC	__real@3ec7ae14
PUBLIC	__real@3ecccccd
PUBLIC	__real@3ee66666
PUBLIC	__real@3eef9db2
PUBLIC	__real@3ef5c28f
PUBLIC	__real@3f000000
PUBLIC	__real@3f066666
PUBLIC	__real@3f0ccccd
PUBLIC	__real@3f12f1aa
PUBLIC	__real@3f19999a
PUBLIC	__real@3f23d70a
PUBLIC	__real@3f2ccccd
PUBLIC	__real@3f333333
PUBLIC	__real@3f400000
PUBLIC	__real@3f490fdb
PUBLIC	__real@3f4ccccd
PUBLIC	__real@3f51319b
PUBLIC	__real@3f59999a
PUBLIC	__real@3f666666
PUBLIC	__real@3f800000
PUBLIC	__real@3f8604da
PUBLIC	__real@3f866666
PUBLIC	__real@3f8ccccd
PUBLIC	__real@3f99999a
PUBLIC	__real@3f9c61aa
PUBLIC	__real@3faccccd
PUBLIC	__real@3fc00000
PUBLIC	__real@3fc90fdb
PUBLIC	__real@3fe0cccccccccccd
PUBLIC	__real@3fe3333333333333
PUBLIC	__real@3fe599999999999a
PUBLIC	__real@3fe6666666666666
PUBLIC	__real@3fe8000000000000
PUBLIC	__real@3fe999999999999a
PUBLIC	__real@3feccccccccccccd
PUBLIC	__real@3ff0000000000000
PUBLIC	__real@40000000
PUBLIC	__real@4000000000000000
PUBLIC	__real@4016cbe4
PUBLIC	__real@40490fdb
PUBLIC	__real@407b53d1
PUBLIC	__real@4096cbe4
PUBLIC	__real@40afeddf
PUBLIC	__real@42800000
PUBLIC	__real@43000000
PUBLIC	__real@453b8000
PUBLIC	__real@457a0000
PUBLIC	__real@459c4000
PUBLIC	__real@45bb8000
PUBLIC	__real@45dac000
PUBLIC	__real@45fa0000
PUBLIC	__real@461c4000
PUBLIC	__real@467d2000
PUBLIC	__real@46a8c000
PUBLIC	__real@46fd2000
PUBLIC	__real@4728c000
PUBLIC	__real@476f1000
PUBLIC	__real@47891c00
PUBLIC	__real@479ab000
PUBLIC	__real@bf800000
PUBLIC	__xmm@80000000800000008000000080000000
EXTRN	__imp___invalid_parameter:PROC
EXTRN	__imp___CrtDbgReport:PROC
EXTRN	?process_assert@@YGXPBD0H@Z:PROC		; process_assert
EXTRN	?debug_log@@YAXPBDZZ:PROC			; debug_log
EXTRN	?get_3d_transformation_matrix@@YGXQAY02MMMM@Z:PROC ; get_3d_transformation_matrix
EXTRN	?load_texturemap_data@@YGHPBD@Z:PROC		; load_texturemap_data
EXTRN	?initialise_custom_map_info@@YGXXZ:PROC		; initialise_custom_map_info
EXTRN	?create_3d_environment@@YGPAUENV_3D@@XZ:PROC	; create_3d_environment
EXTRN	?destroy_3d_environment@@YGXPAUENV_3D@@@Z:PROC	; destroy_3d_environment
EXTRN	?set_3d_time_of_day@@YGXPAUENV_3D@@M@Z:PROC	; set_3d_time_of_day
EXTRN	?set_3d_weathermode@@YGXPAUENV_3D@@W4WEATHERMODES@@@Z:PROC ; set_3d_weathermode
EXTRN	?set_3d_target_weathermode@@YGXPAUENV_3D@@W4WEATHERMODES@@@Z:PROC ; set_3d_target_weathermode
EXTRN	?set_3d_target_weathermode_transitional_status@@YGXPAUENV_3D@@M@Z:PROC ; set_3d_target_weathermode_transitional_status
EXTRN	?set_3d_infrared_mode@@YGXPAUENV_3D@@W4RENDER_FILTERS@@@Z:PROC ; set_3d_infrared_mode
EXTRN	?set_3d_main_light_source@@YGXPAUENV_3D@@PAULIGHT_COLOUR@@PAUVEC3D@@H@Z:PROC ; set_3d_main_light_source
EXTRN	?set_3d_ambient_light@@YGXPAUENV_3D@@PAULIGHT_COLOUR@@@Z:PROC ; set_3d_ambient_light
EXTRN	?set_3d_fog_colour@@YGXPAUENV_3D@@UREAL_COLOUR@@@Z:PROC ; set_3d_fog_colour
EXTRN	?add_3d_fog_setting@@YGXPAUENV_3D@@W4WEATHERMODES@@MMMM@Z:PROC ; add_3d_fog_setting
EXTRN	?add_3d_ambient_light_setting@@YGXPAUENV_3D@@W4WEATHERMODES@@UREAL_COLOUR@@MM@Z:PROC ; add_3d_ambient_light_setting
EXTRN	?add_3d_sun_setting@@YGXPAUENV_3D@@W4WEATHERMODES@@MMUREAL_COLOUR@@M2MMMHM@Z:PROC ; add_3d_sun_setting
EXTRN	?add_3d_moon_setting@@YGXPAUENV_3D@@W4WEATHERMODES@@MMUREAL_COLOUR@@M2MMMHM@Z:PROC ; add_3d_moon_setting
EXTRN	?add_3d_cloud_light_setting@@YGXPAUENV_3D@@W4WEATHERMODES@@UREAL_COLOUR@@2MMM@Z:PROC ; add_3d_cloud_light_setting
EXTRN	?add_3d_shadow_setting@@YGXPAUENV_3D@@W4WEATHERMODES@@UREAL_COLOUR@@M@Z:PROC ; add_3d_shadow_setting
EXTRN	?set_global_3d_fog_scale_setting@@YGXPAUENV_3D@@M@Z:PROC ; set_global_3d_fog_scale_setting
EXTRN	?set_3d_viewpoint@@YGXPAUENV_3D@@PAUVIEWPOINT@@@Z:PROC ; set_3d_viewpoint
EXTRN	?set_3d_viewport@@YGXPAUENV_3D@@MMMM@Z:PROC	; set_3d_viewport
EXTRN	?set_3d_view_distances@@YGXPAUENV_3D@@MMMM@Z:PROC ; set_3d_view_distances
EXTRN	?set_3d_origin@@YGXPAUENV_3D@@MM@Z:PROC		; set_3d_origin
EXTRN	?set_3d_viewcone@@YGXPAUENV_3D@@MMMM@Z:PROC	; set_3d_viewcone
EXTRN	?set_3d_lightmode@@YGXPAUENV_3D@@W4LIGHTMODES@@@Z:PROC ; set_3d_lightmode
EXTRN	?set_3d_fogmode@@YGXPAUENV_3D@@W4FOGMODES@@@Z:PROC ; set_3d_fogmode
EXTRN	?set_3d_fog_distances@@YGXPAUENV_3D@@MM@Z:PROC	; set_3d_fog_distances
EXTRN	?initialise_3d_objects@@YGXPBD@Z:PROC		; initialise_3d_objects
EXTRN	?scale_object_3d_approximation_distances@@YGXHM@Z:PROC ; scale_object_3d_approximation_distances
EXTRN	?report_objects_not_destructed@@YGXXZ:PROC	; report_objects_not_destructed
EXTRN	?initialise_3d_displacement_maps@@YGXPBD@Z:PROC	; initialise_3d_displacement_maps
EXTRN	?initialise_3d_system@@YGXXZ:PROC		; initialise_3d_system
EXTRN	?initialise_3d_horizon@@YGXPAUENV_3D@@H@Z:PROC	; initialise_3d_horizon
EXTRN	?add_3d_horizon_image@@YGXPAUENV_3D@@PBDMW4WEATHERMODES@@@Z:PROC ; add_3d_horizon_image
EXTRN	?initialise_3d_sun@@YGXHH@Z:PROC		; initialise_3d_sun
EXTRN	?initialise_3d_moon@@YGXH@Z:PROC		; initialise_3d_moon
EXTRN	?initialise_3d_lightning@@YGXW4TEXTURE_ANIMATION_INDICES@@H@Z:PROC ; initialise_3d_lightning
EXTRN	?set_3d_ambient_light_source@@YGXPAUENV_3D@@PAULIGHT_COLOUR@@@Z:PROC ; set_3d_ambient_light_source
EXTRN	?initialise_3d_rain@@YGXMPAUVEC3D@@@Z:PROC	; initialise_3d_rain
EXTRN	?set_3d_snow_texture@@YGXH@Z:PROC		; set_3d_snow_texture
EXTRN	?set_3d_rain_speed@@YGXM@Z:PROC			; set_3d_rain_speed
EXTRN	?set_3d_rain_wind@@YGXPAUVEC3D@@M@Z:PROC	; set_3d_rain_wind
EXTRN	?initialise_3d_stars@@YGXPBD@Z:PROC		; initialise_3d_stars
EXTRN	?initialise_3d_clouds@@YGXXZ:PROC		; initialise_3d_clouds
EXTRN	?add_3d_cloud_texture@@YGXHW4WEATHERMODES@@@Z:PROC ; add_3d_cloud_texture
EXTRN	?set_cloud_3d_base_height@@YGXM@Z:PROC		; set_cloud_3d_base_height
EXTRN	?set_cloud_3d_scan_radius@@YGXH@Z:PROC		; set_cloud_3d_scan_radius
EXTRN	?initialise_3d_terrain@@YGXXZ:PROC		; initialise_3d_terrain
EXTRN	?set_3d_terrain_detail_blend_parameters@@YGXM@Z:PROC ; set_3d_terrain_detail_blend_parameters
EXTRN	?unload_3d_terrain@@YGXXZ:PROC			; unload_3d_terrain
EXTRN	?display_terrain_elevation_statistics@@YGXXZ:PROC ; display_terrain_elevation_statistics
EXTRN	?set_terrain_3d_sector_scan_radius@@YGXH@Z:PROC	; set_terrain_3d_sector_scan_radius
EXTRN	?unload_2d_terrain@@YGXXZ:PROC			; unload_2d_terrain
EXTRN	?unload_terrain_simple_elevation_grid@@YGXXZ:PROC ; unload_terrain_simple_elevation_grid
EXTRN	?set_3d_resolutions@@YGXMM@Z:PROC		; set_3d_resolutions
EXTRN	?initialise_common_mfd_3d_textures@@YGXXZ:PROC	; initialise_common_mfd_3d_textures
EXTRN	?deinitialise_common_mfd_3d_textures@@YGXXZ:PROC ; deinitialise_common_mfd_3d_textures
EXTRN	?initialise_common_crew_skins@@YGXXZ:PROC	; initialise_common_crew_skins
EXTRN	?deinitialise_common_crew_skins@@YGXXZ:PROC	; deinitialise_common_crew_skins
EXTRN	?initialise_campaign_screen_3d_textures@@YGXXZ:PROC ; initialise_campaign_screen_3d_textures
EXTRN	?deinitialise_campaign_screen_3d_textures@@YGXXZ:PROC ; deinitialise_campaign_screen_3d_textures
EXTRN	?d3d_can_render_to_texture@@3HA:DWORD		; d3d_can_render_to_texture
EXTRN	?visual_3d_vp@@3PAUVIEWPOINT@@A:DWORD		; visual_3d_vp
EXTRN	?command_line_russian_nvg_no_ir@@3HA:DWORD	; command_line_russian_nvg_no_ir
EXTRN	?global_night_light_level@@3MA:DWORD		; global_night_light_level
EXTRN	?global_options@@3UGLOBAL_OPTIONS_DATA@@A:BYTE	; global_options
EXTRN	?world_map@@3UWORLD_MAP_DATA@@A:BYTE		; world_map
EXTRN	?camera_entity@@3PAUENTITY@@A:DWORD		; camera_entity
EXTRN	?full_screen_width@@3MA:DWORD			; full_screen_width
EXTRN	?full_screen_height@@3MA:DWORD			; full_screen_height
EXTRN	?full_screen_x_min@@3MA:DWORD			; full_screen_x_min
EXTRN	?full_screen_y_min@@3MA:DWORD			; full_screen_y_min
EXTRN	?full_screen_x_max@@3MA:DWORD			; full_screen_x_max
EXTRN	?full_screen_y_max@@3MA:DWORD			; full_screen_y_max
EXTRN	?original_d3d_can_render_to_texture@@3HA:DWORD	; original_d3d_can_render_to_texture
EXTRN	?main_3d_env@@3PAUENV_3D@@A:DWORD		; main_3d_env
EXTRN	?main_3d_single_light_env@@3PAUENV_3D@@A:DWORD	; main_3d_single_light_env
EXTRN	?main_vp@@3UVIEWPOINT@@A:BYTE			; main_vp
EXTRN	?current_3d_display_tint@@3W4DISPLAY_3D_TINTS@@A:DWORD ; current_3d_display_tint
EXTRN	?current_3d_light_level@@3W4DISPLAY_3D_LIGHT_LEVELS@@A:DWORD ; current_3d_light_level
EXTRN	?current_3d_noise_level@@3W4DISPLAY_3D_NOISE_LEVELS@@A:DWORD ; current_3d_noise_level
EXTRN	__fltused:DWORD
;	COMDAT __xmm@80000000800000008000000080000000
CONST	SEGMENT
__xmm@80000000800000008000000080000000 DB 00H, 00H, 00H, 080H, 00H, 00H, 00H
	DB	080H, 00H, 00H, 00H, 080H, 00H, 00H, 00H, 080H
CONST	ENDS
;	COMDAT __real@bf800000
CONST	SEGMENT
__real@bf800000 DD 0bf800000r			; -1
CONST	ENDS
;	COMDAT __real@479ab000
CONST	SEGMENT
__real@479ab000 DD 0479ab000r			; 79200
CONST	ENDS
;	COMDAT __real@47891c00
CONST	SEGMENT
__real@47891c00 DD 047891c00r			; 70200
CONST	ENDS
;	COMDAT __real@476f1000
CONST	SEGMENT
__real@476f1000 DD 0476f1000r			; 61200
CONST	ENDS
;	COMDAT __real@4728c000
CONST	SEGMENT
__real@4728c000 DD 04728c000r			; 43200
CONST	ENDS
;	COMDAT __real@46fd2000
CONST	SEGMENT
__real@46fd2000 DD 046fd2000r			; 32400
CONST	ENDS
;	COMDAT __real@46a8c000
CONST	SEGMENT
__real@46a8c000 DD 046a8c000r			; 21600
CONST	ENDS
;	COMDAT __real@467d2000
CONST	SEGMENT
__real@467d2000 DD 0467d2000r			; 16200
CONST	ENDS
;	COMDAT __real@461c4000
CONST	SEGMENT
__real@461c4000 DD 0461c4000r			; 10000
CONST	ENDS
;	COMDAT __real@45fa0000
CONST	SEGMENT
__real@45fa0000 DD 045fa0000r			; 8000
CONST	ENDS
;	COMDAT __real@45dac000
CONST	SEGMENT
__real@45dac000 DD 045dac000r			; 7000
CONST	ENDS
;	COMDAT __real@45bb8000
CONST	SEGMENT
__real@45bb8000 DD 045bb8000r			; 6000
CONST	ENDS
;	COMDAT __real@459c4000
CONST	SEGMENT
__real@459c4000 DD 0459c4000r			; 5000
CONST	ENDS
;	COMDAT __real@457a0000
CONST	SEGMENT
__real@457a0000 DD 0457a0000r			; 4000
CONST	ENDS
;	COMDAT __real@453b8000
CONST	SEGMENT
__real@453b8000 DD 0453b8000r			; 3000
CONST	ENDS
;	COMDAT __real@43000000
CONST	SEGMENT
__real@43000000 DD 043000000r			; 128
CONST	ENDS
;	COMDAT __real@42800000
CONST	SEGMENT
__real@42800000 DD 042800000r			; 64
CONST	ENDS
;	COMDAT __real@40afeddf
CONST	SEGMENT
__real@40afeddf DD 040afeddfr			; 5.49779
CONST	ENDS
;	COMDAT __real@4096cbe4
CONST	SEGMENT
__real@4096cbe4 DD 04096cbe4r			; 4.71239
CONST	ENDS
;	COMDAT __real@407b53d1
CONST	SEGMENT
__real@407b53d1 DD 0407b53d1r			; 3.92699
CONST	ENDS
;	COMDAT __real@40490fdb
CONST	SEGMENT
__real@40490fdb DD 040490fdbr			; 3.14159
CONST	ENDS
;	COMDAT __real@4016cbe4
CONST	SEGMENT
__real@4016cbe4 DD 04016cbe4r			; 2.35619
CONST	ENDS
;	COMDAT __real@4000000000000000
CONST	SEGMENT
__real@4000000000000000 DQ 04000000000000000r	; 2
CONST	ENDS
;	COMDAT __real@40000000
CONST	SEGMENT
__real@40000000 DD 040000000r			; 2
CONST	ENDS
;	COMDAT __real@3ff0000000000000
CONST	SEGMENT
__real@3ff0000000000000 DQ 03ff0000000000000r	; 1
CONST	ENDS
;	COMDAT __real@3feccccccccccccd
CONST	SEGMENT
__real@3feccccccccccccd DQ 03feccccccccccccdr	; 0.9
CONST	ENDS
;	COMDAT __real@3fe999999999999a
CONST	SEGMENT
__real@3fe999999999999a DQ 03fe999999999999ar	; 0.8
CONST	ENDS
;	COMDAT __real@3fe8000000000000
CONST	SEGMENT
__real@3fe8000000000000 DQ 03fe8000000000000r	; 0.75
CONST	ENDS
;	COMDAT __real@3fe6666666666666
CONST	SEGMENT
__real@3fe6666666666666 DQ 03fe6666666666666r	; 0.7
CONST	ENDS
;	COMDAT __real@3fe599999999999a
CONST	SEGMENT
__real@3fe599999999999a DQ 03fe599999999999ar	; 0.675
CONST	ENDS
;	COMDAT __real@3fe3333333333333
CONST	SEGMENT
__real@3fe3333333333333 DQ 03fe3333333333333r	; 0.6
CONST	ENDS
;	COMDAT __real@3fe0cccccccccccd
CONST	SEGMENT
__real@3fe0cccccccccccd DQ 03fe0cccccccccccdr	; 0.525
CONST	ENDS
;	COMDAT __real@3fc90fdb
CONST	SEGMENT
__real@3fc90fdb DD 03fc90fdbr			; 1.5708
CONST	ENDS
;	COMDAT __real@3fc00000
CONST	SEGMENT
__real@3fc00000 DD 03fc00000r			; 1.5
CONST	ENDS
;	COMDAT __real@3faccccd
CONST	SEGMENT
__real@3faccccd DD 03faccccdr			; 1.35
CONST	ENDS
;	COMDAT __real@3f9c61aa
CONST	SEGMENT
__real@3f9c61aa DD 03f9c61aar			; 1.22173
CONST	ENDS
;	COMDAT __real@3f99999a
CONST	SEGMENT
__real@3f99999a DD 03f99999ar			; 1.2
CONST	ENDS
;	COMDAT __real@3f8ccccd
CONST	SEGMENT
__real@3f8ccccd DD 03f8ccccdr			; 1.1
CONST	ENDS
;	COMDAT __real@3f866666
CONST	SEGMENT
__real@3f866666 DD 03f866666r			; 1.05
CONST	ENDS
;	COMDAT __real@3f8604da
CONST	SEGMENT
__real@3f8604da DD 03f8604dar			; 1.04702
CONST	ENDS
;	COMDAT __real@3f800000
CONST	SEGMENT
__real@3f800000 DD 03f800000r			; 1
CONST	ENDS
;	COMDAT __real@3f666666
CONST	SEGMENT
__real@3f666666 DD 03f666666r			; 0.9
CONST	ENDS
;	COMDAT __real@3f59999a
CONST	SEGMENT
__real@3f59999a DD 03f59999ar			; 0.85
CONST	ENDS
;	COMDAT __real@3f51319b
CONST	SEGMENT
__real@3f51319b DD 03f51319br			; 0.817163
CONST	ENDS
;	COMDAT __real@3f4ccccd
CONST	SEGMENT
__real@3f4ccccd DD 03f4ccccdr			; 0.8
CONST	ENDS
;	COMDAT __real@3f490fdb
CONST	SEGMENT
__real@3f490fdb DD 03f490fdbr			; 0.785398
CONST	ENDS
;	COMDAT __real@3f400000
CONST	SEGMENT
__real@3f400000 DD 03f400000r			; 0.75
CONST	ENDS
;	COMDAT __real@3f333333
CONST	SEGMENT
__real@3f333333 DD 03f333333r			; 0.7
CONST	ENDS
;	COMDAT __real@3f2ccccd
CONST	SEGMENT
__real@3f2ccccd DD 03f2ccccdr			; 0.675
CONST	ENDS
;	COMDAT __real@3f23d70a
CONST	SEGMENT
__real@3f23d70a DD 03f23d70ar			; 0.64
CONST	ENDS
;	COMDAT __real@3f19999a
CONST	SEGMENT
__real@3f19999a DD 03f19999ar			; 0.6
CONST	ENDS
;	COMDAT __real@3f12f1aa
CONST	SEGMENT
__real@3f12f1aa DD 03f12f1aar			; 0.574
CONST	ENDS
;	COMDAT __real@3f0ccccd
CONST	SEGMENT
__real@3f0ccccd DD 03f0ccccdr			; 0.55
CONST	ENDS
;	COMDAT __real@3f066666
CONST	SEGMENT
__real@3f066666 DD 03f066666r			; 0.525
CONST	ENDS
;	COMDAT __real@3f000000
CONST	SEGMENT
__real@3f000000 DD 03f000000r			; 0.5
CONST	ENDS
;	COMDAT __real@3ef5c28f
CONST	SEGMENT
__real@3ef5c28f DD 03ef5c28fr			; 0.48
CONST	ENDS
;	COMDAT __real@3eef9db2
CONST	SEGMENT
__real@3eef9db2 DD 03eef9db2r			; 0.468
CONST	ENDS
;	COMDAT __real@3ee66666
CONST	SEGMENT
__real@3ee66666 DD 03ee66666r			; 0.45
CONST	ENDS
;	COMDAT __real@3ecccccd
CONST	SEGMENT
__real@3ecccccd DD 03ecccccdr			; 0.4
CONST	ENDS
;	COMDAT __real@3ec7ae14
CONST	SEGMENT
__real@3ec7ae14 DD 03ec7ae14r			; 0.39
CONST	ENDS
;	COMDAT __real@3eb33333
CONST	SEGMENT
__real@3eb33333 DD 03eb33333r			; 0.35
CONST	ENDS
;	COMDAT __real@3ea3d70a
CONST	SEGMENT
__real@3ea3d70a DD 03ea3d70ar			; 0.32
CONST	ENDS
;	COMDAT __real@3e9fbe77
CONST	SEGMENT
__real@3e9fbe77 DD 03e9fbe77r			; 0.312
CONST	ENDS
;	COMDAT __real@3e99999a
CONST	SEGMENT
__real@3e99999a DD 03e99999ar			; 0.3
CONST	ENDS
;	COMDAT __real@3e800000
CONST	SEGMENT
__real@3e800000 DD 03e800000r			; 0.25
CONST	ENDS
;	COMDAT __real@3e75c28f
CONST	SEGMENT
__real@3e75c28f DD 03e75c28fr			; 0.24
CONST	ENDS
;	COMDAT __real@3e6f9db2
CONST	SEGMENT
__real@3e6f9db2 DD 03e6f9db2r			; 0.234
CONST	ENDS
;	COMDAT __real@3e4ccccd
CONST	SEGMENT
__real@3e4ccccd DD 03e4ccccdr			; 0.2
CONST	ENDS
;	COMDAT __real@3e23d70a
CONST	SEGMENT
__real@3e23d70a DD 03e23d70ar			; 0.16
CONST	ENDS
;	COMDAT __real@3e19999a
CONST	SEGMENT
__real@3e19999a DD 03e19999ar			; 0.15
CONST	ENDS
;	COMDAT __real@3df5c28f
CONST	SEGMENT
__real@3df5c28f DD 03df5c28fr			; 0.12
CONST	ENDS
;	COMDAT __real@3dcccccd
CONST	SEGMENT
__real@3dcccccd DD 03dcccccdr			; 0.1
CONST	ENDS
;	COMDAT __real@3da3d70a
CONST	SEGMENT
__real@3da3d70a DD 03da3d70ar			; 0.08
CONST	ENDS
;	COMDAT __real@3d75c28f
CONST	SEGMENT
__real@3d75c28f DD 03d75c28fr			; 0.06
CONST	ENDS
;	COMDAT __real@3d4ccccd
CONST	SEGMENT
__real@3d4ccccd DD 03d4ccccdr			; 0.05
CONST	ENDS
;	COMDAT __real@00000000
CONST	SEGMENT
__real@00000000 DD 000000000r			; 0
CONST	ENDS
;	COMDAT ??_C@_1BC@ICCOKLEG@?$AAs?$AAt?$AAd?$AA?3?$AA?3?$AAm?$AAa?$AAx@
CONST	SEGMENT
??_C@_1BC@ICCOKLEG@?$AAs?$AAt?$AAd?$AA?3?$AA?3?$AAm?$AAa?$AAx@ DB 's', 00H
	DB	't', 00H, 'd', 00H, ':', 00H, ':', 00H, 'm', 00H, 'a', 00H, 'x'
	DB	00H, 00H, 00H				; `string'
CONST	ENDS
;	COMDAT ??_C@_1CK@NDNHPKPI@?$AA?$CC?$AAi?$AAn?$AAv?$AAa?$AAl?$AAi?$AAd?$AA?5?$AAc?$AAo?$AAm?$AAp?$AAa?$AAr@
CONST	SEGMENT
??_C@_1CK@NDNHPKPI@?$AA?$CC?$AAi?$AAn?$AAv?$AAa?$AAl?$AAi?$AAd?$AA?5?$AAc?$AAo?$AAm?$AAp?$AAa?$AAr@ DB '"'
	DB	00H, 'i', 00H, 'n', 00H, 'v', 00H, 'a', 00H, 'l', 00H, 'i', 00H
	DB	'd', 00H, ' ', 00H, 'c', 00H, 'o', 00H, 'm', 00H, 'p', 00H, 'a'
	DB	00H, 'r', 00H, 'a', 00H, 't', 00H, 'o', 00H, 'r', 00H, '"', 00H
	DB	00H, 00H					; `string'
CONST	ENDS
;	COMDAT ??_C@_1BC@BLAPCBGI@?$AAs?$AAt?$AAd?$AA?3?$AA?3?$AAm?$AAi?$AAn@
CONST	SEGMENT
??_C@_1BC@BLAPCBGI@?$AAs?$AAt?$AAd?$AA?3?$AA?3?$AAm?$AAi?$AAn@ DB 's', 00H
	DB	't', 00H, 'd', 00H, ':', 00H, ':', 00H, 'm', 00H, 'i', 00H, 'n'
	DB	00H, 00H, 00H				; `string'
CONST	ENDS
;	COMDAT ??_C@_1NE@FKBPBJEB@?$AAc?$AA?3?$AA?2?$AAp?$AAr?$AAo?$AAg?$AAr?$AAa?$AAm?$AA?5?$AAf?$AAi?$AAl?$AAe@
CONST	SEGMENT
??_C@_1NE@FKBPBJEB@?$AAc?$AA?3?$AA?2?$AAp?$AAr?$AAo?$AAg?$AAr?$AAa?$AAm?$AA?5?$AAf?$AAi?$AAl?$AAe@ DB 'c'
	DB	00H, ':', 00H, '\', 00H, 'p', 00H, 'r', 00H, 'o', 00H, 'g', 00H
	DB	'r', 00H, 'a', 00H, 'm', 00H, ' ', 00H, 'f', 00H, 'i', 00H, 'l'
	DB	00H, 'e', 00H, 's', 00H, ' ', 00H, '(', 00H, 'x', 00H, '8', 00H
	DB	'6', 00H, ')', 00H, '\', 00H, 'm', 00H, 'i', 00H, 'c', 00H, 'r'
	DB	00H, 'o', 00H, 's', 00H, 'o', 00H, 'f', 00H, 't', 00H, ' ', 00H
	DB	'v', 00H, 'i', 00H, 's', 00H, 'u', 00H, 'a', 00H, 'l', 00H, ' '
	DB	00H, 's', 00H, 't', 00H, 'u', 00H, 'd', 00H, 'i', 00H, 'o', 00H
	DB	'\', 00H, '2', 00H, '0', 00H, '1', 00H, '7', 00H, '\', 00H, 'c'
	DB	00H, 'o', 00H, 'm', 00H, 'm', 00H, 'u', 00H, 'n', 00H, 'i', 00H
	DB	't', 00H, 'y', 00H, '\', 00H, 'v', 00H, 'c', 00H, '\', 00H, 't'
	DB	00H, 'o', 00H, 'o', 00H, 'l', 00H, 's', 00H, '\', 00H, 'm', 00H
	DB	's', 00H, 'v', 00H, 'c', 00H, '\', 00H, '1', 00H, '4', 00H, '.'
	DB	00H, '1', 00H, '6', 00H, '.', 00H, '2', 00H, '7', 00H, '0', 00H
	DB	'2', 00H, '3', 00H, '\', 00H, 'i', 00H, 'n', 00H, 'c', 00H, 'l'
	DB	00H, 'u', 00H, 'd', 00H, 'e', 00H, '\', 00H, 'a', 00H, 'l', 00H
	DB	'g', 00H, 'o', 00H, 'r', 00H, 'i', 00H, 't', 00H, 'h', 00H, 'm'
	DB	00H, 00H, 00H				; `string'
CONST	ENDS
;	COMDAT ??_C@_0GK@JMBMHIBC@c?3?2program?5files?5?$CIx86?$CJ?2microsof@
CONST	SEGMENT
??_C@_0GK@JMBMHIBC@c?3?2program?5files?5?$CIx86?$CJ?2microsof@ DB 'c:\pro'
	DB	'gram files (x86)\microsoft visual studio\2017\community\vc\to'
	DB	'ols\msvc\14.16.27023\include\algorithm', 00H ; `string'
CONST	ENDS
;	COMDAT ??_C@_0BD@FEEMDEPI@invalid?5comparator@
CONST	SEGMENT
??_C@_0BD@FEEMDEPI@invalid?5comparator@ DB 'invalid comparator', 00H ; `string'
CONST	ENDS
;	COMDAT ??_C@_0BB@NKBBKCGJ@3ddata?2stars?4bin@
CONST	SEGMENT
??_C@_0BB@NKBBKCGJ@3ddata?2stars?4bin@ DB '3ddata\stars.bin', 00H ; `string'
CONST	ENDS
;	COMDAT ??_C@_0BI@DIKABNBI@3ddata?2horizon?2snow12am@
CONST	SEGMENT
??_C@_0BI@DIKABNBI@3ddata?2horizon?2snow12am@ DB '3ddata\horizon\snow12am'
	DB	00H						; `string'
CONST	ENDS
;	COMDAT ??_C@_0BH@FBMDPPAK@3ddata?2horizon?2snow9pm@
CONST	SEGMENT
??_C@_0BH@FBMDPPAK@3ddata?2horizon?2snow9pm@ DB '3ddata\horizon\snow9pm', 00H ; `string'
CONST	ENDS
;	COMDAT ??_C@_0BH@JKAOPFM@3ddata?2horizon?2snow6pm@
CONST	SEGMENT
??_C@_0BH@JKAOPFM@3ddata?2horizon?2snow6pm@ DB '3ddata\horizon\snow6pm', 00H ; `string'
CONST	ENDS
;	COMDAT ??_C@_0BH@DOHOBPGO@3ddata?2horizon?2snow3pm@
CONST	SEGMENT
??_C@_0BH@DOHOBPGO@3ddata?2horizon?2snow3pm@ DB '3ddata\horizon\snow3pm', 00H ; `string'
CONST	ENDS
;	COMDAT ??_C@_0BI@CFEENEFP@3ddata?2horizon?2snow12pm@
CONST	SEGMENT
??_C@_0BI@CFEENEFP@3ddata?2horizon?2snow12pm@ DB '3ddata\horizon\snow12pm'
	DB	00H						; `string'
CONST	ENDS
;	COMDAT ??_C@_0BH@EMCHDGEN@3ddata?2horizon?2snow9am@
CONST	SEGMENT
??_C@_0BH@EMCHDGEN@3ddata?2horizon?2snow9am@ DB '3ddata\horizon\snow9am', 00H ; `string'
CONST	ENDS
;	COMDAT ??_C@_0BH@BEEECGBL@3ddata?2horizon?2snow6am@
CONST	SEGMENT
??_C@_0BH@BEEECGBL@3ddata?2horizon?2snow6am@ DB '3ddata\horizon\snow6am', 00H ; `string'
CONST	ENDS
;	COMDAT ??_C@_0BG@IJBLONLB@3ddata?2horizon?2hr12am@
CONST	SEGMENT
??_C@_0BG@IJBLONLB@3ddata?2horizon?2hr12am@ DB '3ddata\horizon\hr12am', 00H ; `string'
CONST	ENDS
;	COMDAT ??_C@_0BF@OBNKHCDB@3ddata?2horizon?2hr9pm@
CONST	SEGMENT
??_C@_0BF@OBNKHCDB@3ddata?2horizon?2hr9pm@ DB '3ddata\horizon\hr9pm', 00H ; `string'
CONST	ENDS
;	COMDAT ??_C@_0BF@LJLJGCGH@3ddata?2horizon?2hr6pm@
CONST	SEGMENT
??_C@_0BF@LJLJGCGH@3ddata?2horizon?2hr6pm@ DB '3ddata\horizon\hr6pm', 00H ; `string'
CONST	ENDS
;	COMDAT ??_C@_0BF@IOGHJCFF@3ddata?2horizon?2hr3pm@
CONST	SEGMENT
??_C@_0BF@IOGHJCFF@3ddata?2horizon?2hr3pm@ DB '3ddata\horizon\hr3pm', 00H ; `string'
CONST	ENDS
;	COMDAT ??_C@_0BG@JEPPCEPG@3ddata?2horizon?2hr12pm@
CONST	SEGMENT
??_C@_0BG@JEPPCEPG@3ddata?2horizon?2hr12pm@ DB '3ddata\horizon\hr12pm', 00H ; `string'
CONST	ENDS
;	COMDAT ??_C@_0BF@PMDOLLHG@3ddata?2horizon?2hr9am@
CONST	SEGMENT
??_C@_0BF@PMDOLLHG@3ddata?2horizon?2hr9am@ DB '3ddata\horizon\hr9am', 00H ; `string'
CONST	ENDS
;	COMDAT ??_C@_0BF@KEFNKLCA@3ddata?2horizon?2hr6am@
CONST	SEGMENT
??_C@_0BF@KEFNKLCA@3ddata?2horizon?2hr6am@ DB '3ddata\horizon\hr6am', 00H ; `string'
CONST	ENDS
;	COMDAT ??_C@_0BG@HNFEMJKC@3ddata?2horizon?2lr12am@
CONST	SEGMENT
??_C@_0BG@HNFEMJKC@3ddata?2horizon?2lr12am@ DB '3ddata\horizon\lr12am', 00H ; `string'
CONST	ENDS
;	COMDAT ??_C@_0BF@HKELDACH@3ddata?2horizon?2lr9pm@
CONST	SEGMENT
??_C@_0BF@HKELDACH@3ddata?2horizon?2lr9pm@ DB '3ddata\horizon\lr9pm', 00H ; `string'
CONST	ENDS
;	COMDAT ??_C@_0BF@CCCICAHB@3ddata?2horizon?2lr6pm@
CONST	SEGMENT
??_C@_0BF@CCCICAHB@3ddata?2horizon?2lr6pm@ DB '3ddata\horizon\lr6pm', 00H ; `string'
CONST	ENDS
;	COMDAT ??_C@_0BF@BFPGNAED@3ddata?2horizon?2lr3pm@
CONST	SEGMENT
??_C@_0BF@BFPGNAED@3ddata?2horizon?2lr3pm@ DB '3ddata\horizon\lr3pm', 00H ; `string'
CONST	ENDS
;	COMDAT ??_C@_0BG@GALAAAOF@3ddata?2horizon?2lr12pm@
CONST	SEGMENT
??_C@_0BG@GALAAAOF@3ddata?2horizon?2lr12pm@ DB '3ddata\horizon\lr12pm', 00H ; `string'
CONST	ENDS
;	COMDAT ??_C@_0BF@GHKPPJGA@3ddata?2horizon?2lr9am@
CONST	SEGMENT
??_C@_0BF@GHKPPJGA@3ddata?2horizon?2lr9am@ DB '3ddata\horizon\lr9am', 00H ; `string'
CONST	ENDS
;	COMDAT ??_C@_0BF@DPMMOJDG@3ddata?2horizon?2lr6am@
CONST	SEGMENT
??_C@_0BF@DPMMOJDG@3ddata?2horizon?2lr6am@ DB '3ddata\horizon\lr6am', 00H ; `string'
CONST	ENDS
;	COMDAT ??_C@_0BH@EPBKDDKL@3ddata?2horizon?2dry12am@
CONST	SEGMENT
??_C@_0BH@EPBKDDKL@3ddata?2horizon?2dry12am@ DB '3ddata\horizon\dry12am', 00H ; `string'
CONST	ENDS
;	COMDAT ??_C@_0BG@OMNNNKAL@3ddata?2horizon?2dry9pm@
CONST	SEGMENT
??_C@_0BG@OMNNNKAL@3ddata?2horizon?2dry9pm@ DB '3ddata\horizon\dry9pm', 00H ; `string'
CONST	ENDS
;	COMDAT ??_C@_0BG@LELOMKFN@3ddata?2horizon?2dry6pm@
CONST	SEGMENT
??_C@_0BG@LELOMKFN@3ddata?2horizon?2dry6pm@ DB '3ddata\horizon\dry6pm', 00H ; `string'
CONST	ENDS
;	COMDAT ??_C@_0BG@IDGADKGP@3ddata?2horizon?2dry3pm@
CONST	SEGMENT
??_C@_0BG@IDGADKGP@3ddata?2horizon?2dry3pm@ DB '3ddata\horizon\dry3pm', 00H ; `string'
CONST	ENDS
;	COMDAT ??_C@_0BH@FCPOPKOM@3ddata?2horizon?2dry12pm@
CONST	SEGMENT
??_C@_0BH@FCPOPKOM@3ddata?2horizon?2dry12pm@ DB '3ddata\horizon\dry12pm', 00H ; `string'
CONST	ENDS
;	COMDAT ??_C@_0BG@PBDJBDEM@3ddata?2horizon?2dry9am@
CONST	SEGMENT
??_C@_0BG@PBDJBDEM@3ddata?2horizon?2dry9am@ DB '3ddata\horizon\dry9am', 00H ; `string'
CONST	ENDS
;	COMDAT ??_C@_0BG@KJFKADBK@3ddata?2horizon?2dry6am@
CONST	SEGMENT
??_C@_0BG@KJFKADBK@3ddata?2horizon?2dry6am@ DB '3ddata\horizon\dry6am', 00H ; `string'
CONST	ENDS
;	COMDAT ??_C@_0BE@DPPOKICC@3ddata?2displace?4bin@
CONST	SEGMENT
??_C@_0BE@DPPOKICC@3ddata?2displace?4bin@ DB '3ddata\displace.bin', 00H ; `string'
CONST	ENDS
;	COMDAT ??_C@_0FI@ILJGOAHJ@?$CD?$CD?$CDCUSTOM?5TEXTURE?5STARTUP?3?5init@
CONST	SEGMENT
??_C@_0FI@ILJGOAHJ@?$CD?$CD?$CDCUSTOM?5TEXTURE?5STARTUP?3?5init@ DB '###C'
	DB	'USTOM TEXTURE STARTUP: initialise_application_3d_system: init'
	DB	'ialise_custom_map_info', 00H		; `string'
CONST	ENDS
;	COMDAT ??_C@_06KIELAJID@3ddata@
CONST	SEGMENT
??_C@_06KIELAJID@3ddata@ DB '3ddata', 00H		; `string'
CONST	ENDS
;	COMDAT ??_C@_0BB@JJJMFBGD@Loading?5textures@
CONST	SEGMENT
??_C@_0BB@JJJMFBGD@Loading?5textures@ DB 'Loading textures', 00H ; `string'
CONST	ENDS
;	COMDAT ??_C@_0BJ@GPDFCBKC@Creating?5mfd?53d?5textures@
CONST	SEGMENT
??_C@_0BJ@GPDFCBKC@Creating?5mfd?53d?5textures@ DB 'Creating mfd 3d textu'
	DB	'res', 00H					; `string'
CONST	ENDS
;	COMDAT ??_C@_0BK@FFIFMNKK@?$CBmain_3d_single_light_env@
CONST	SEGMENT
??_C@_0BK@FFIFMNKK@?$CBmain_3d_single_light_env@ DB '!main_3d_single_ligh'
	DB	't_env', 00H					; `string'
CONST	ENDS
;	COMDAT ??_C@_0N@LOIAOAH@?$CBmain_3d_env@
CONST	SEGMENT
??_C@_0N@LOIAOAH@?$CBmain_3d_env@ DB '!main_3d_env', 00H ; `string'
CONST	ENDS
;	COMDAT ??_C@_0DM@BNNHFLJC@c?3?2users?2nhv90?2projects?2eech?2ap@
CONST	SEGMENT
??_C@_0DM@BNNHFLJC@c?3?2users?2nhv90?2projects?2eech?2ap@ DB 'c:\users\nh'
	DB	'v90\projects\eech\aphavoc\source\app3d\3d_init.c', 00H ; `string'
CONST	ENDS
;	COMDAT ?__LINE__Var@?0??initialise_application_3d_system@@YGXXZ@4JA
_DATA	SEGMENT
?__LINE__Var@?0??initialise_application_3d_system@@YGXXZ@4JA DD 05eH ; `initialise_application_3d_system'::`1'::__LINE__Var
_DATA	ENDS
;	COMDAT ??_C@_02DKCKIIND@?$CFs@
CONST	SEGMENT
??_C@_02DKCKIIND@?$CFs@ DB '%s', 00H			; `string'
CONST	ENDS
; Function compile flags: /Odtp /ZI
; File c:\program files (x86)\microsoft visual studio\2017\community\vc\tools\msvc\14.16.27023\include\algorithm
;	COMDAT ??$max@M@std@@YGABMABM0@Z
_TEXT	SEGMENT
__Left$ = 8						; size = 4
__Right$ = 12						; size = 4
??$max@M@std@@YGABMABM0@Z PROC				; std::max<float>, COMDAT

; 5387 : 	{	// return larger of _Left and _Right

  00000	55		 push	 ebp
  00001	8b ec		 mov	 ebp, esp
  00003	83 ec 40	 sub	 esp, 64			; 00000040H
  00006	53		 push	 ebx
  00007	56		 push	 esi
  00008	57		 push	 edi

; 5388 : 	if (_Left < _Right)

  00009	8b 45 0c	 mov	 eax, DWORD PTR __Right$[ebp]
  0000c	8b 4d 08	 mov	 ecx, DWORD PTR __Left$[ebp]
  0000f	f3 0f 10 00	 movss	 xmm0, DWORD PTR [eax]
  00013	0f 2f 01	 comiss	 xmm0, DWORD PTR [ecx]
  00016	76 64		 jbe	 SHORT $LN8@max
$LN4@max:

; 5389 : 		{
; 5390 : 		_STL_ASSERT(!(_Right < _Left), "invalid comparator");

  00018	8b 45 08	 mov	 eax, DWORD PTR __Left$[ebp]
  0001b	8b 4d 0c	 mov	 ecx, DWORD PTR __Right$[ebp]
  0001e	f3 0f 10 00	 movss	 xmm0, DWORD PTR [eax]
  00022	0f 2f 01	 comiss	 xmm0, DWORD PTR [ecx]
  00025	77 02		 ja	 SHORT $LN9@max
  00027	eb 4a		 jmp	 SHORT $LN6@max
$LN9@max:
  00029	68 00 00 00 00	 push	 OFFSET ??_C@_0BD@FEEMDEPI@invalid?5comparator@
  0002e	68 00 00 00 00	 push	 OFFSET ??_C@_02DKCKIIND@?$CFs@
  00033	6a 00		 push	 0
  00035	68 0e 15 00 00	 push	 5390			; 0000150eH
  0003a	68 00 00 00 00	 push	 OFFSET ??_C@_0GK@JMBMHIBC@c?3?2program?5files?5?$CIx86?$CJ?2microsof@
  0003f	6a 02		 push	 2
  00041	ff 15 00 00 00
	00		 call	 DWORD PTR __imp___CrtDbgReport
  00047	83 c4 18	 add	 esp, 24			; 00000018H
  0004a	83 f8 01	 cmp	 eax, 1
  0004d	75 01		 jne	 SHORT $LN12@max
  0004f	cc		 int	 3
$LN12@max:
  00050	6a 00		 push	 0
  00052	68 0e 15 00 00	 push	 5390			; 0000150eH
  00057	68 00 00 00 00	 push	 OFFSET ??_C@_1NE@FKBPBJEB@?$AAc?$AA?3?$AA?2?$AAp?$AAr?$AAo?$AAg?$AAr?$AAa?$AAm?$AA?5?$AAf?$AAi?$AAl?$AAe@
  0005c	68 00 00 00 00	 push	 OFFSET ??_C@_1BC@ICCOKLEG@?$AAs?$AAt?$AAd?$AA?3?$AA?3?$AAm?$AAa?$AAx@
  00061	68 00 00 00 00	 push	 OFFSET ??_C@_1CK@NDNHPKPI@?$AA?$CC?$AAi?$AAn?$AAv?$AAa?$AAl?$AAi?$AAd?$AA?5?$AAc?$AAo?$AAm?$AAp?$AAa?$AAr@
  00066	ff 15 00 00 00
	00		 call	 DWORD PTR __imp___invalid_parameter
  0006c	83 c4 14	 add	 esp, 20			; 00000014H
  0006f	33 c0		 xor	 eax, eax
  00071	75 b6		 jne	 SHORT $LN9@max
$LN6@max:
  00073	33 c0		 xor	 eax, eax
  00075	75 a1		 jne	 SHORT $LN4@max

; 5391 : 		return (_Right);

  00077	8b 45 0c	 mov	 eax, DWORD PTR __Right$[ebp]
  0007a	eb 03		 jmp	 SHORT $LN1@max
$LN8@max:

; 5392 : 		}
; 5393 : 
; 5394 : 	return (_Left);

  0007c	8b 45 08	 mov	 eax, DWORD PTR __Left$[ebp]
$LN1@max:

; 5395 : 	}

  0007f	5f		 pop	 edi
  00080	5e		 pop	 esi
  00081	5b		 pop	 ebx
  00082	8b e5		 mov	 esp, ebp
  00084	5d		 pop	 ebp
  00085	c2 08 00	 ret	 8
??$max@M@std@@YGABMABM0@Z ENDP				; std::max<float>
_TEXT	ENDS
; Function compile flags: /Odtp /ZI
; File c:\program files (x86)\microsoft visual studio\2017\community\vc\tools\msvc\14.16.27023\include\algorithm
;	COMDAT ??$min@M@std@@YGABMABM0@Z
_TEXT	SEGMENT
__Left$ = 8						; size = 4
__Right$ = 12						; size = 4
??$min@M@std@@YGABMABM0@Z PROC				; std::min<float>, COMDAT

; 5427 : 	{	// return smaller of _Left and _Right

  00000	55		 push	 ebp
  00001	8b ec		 mov	 ebp, esp
  00003	83 ec 40	 sub	 esp, 64			; 00000040H
  00006	53		 push	 ebx
  00007	56		 push	 esi
  00008	57		 push	 edi

; 5428 : 	if (_Right < _Left)

  00009	8b 45 08	 mov	 eax, DWORD PTR __Left$[ebp]
  0000c	8b 4d 0c	 mov	 ecx, DWORD PTR __Right$[ebp]
  0000f	f3 0f 10 00	 movss	 xmm0, DWORD PTR [eax]
  00013	0f 2f 01	 comiss	 xmm0, DWORD PTR [ecx]
  00016	76 64		 jbe	 SHORT $LN8@min
$LN4@min:

; 5429 : 		{
; 5430 : 		_STL_ASSERT(!(_Left < _Right), "invalid comparator");

  00018	8b 45 0c	 mov	 eax, DWORD PTR __Right$[ebp]
  0001b	8b 4d 08	 mov	 ecx, DWORD PTR __Left$[ebp]
  0001e	f3 0f 10 00	 movss	 xmm0, DWORD PTR [eax]
  00022	0f 2f 01	 comiss	 xmm0, DWORD PTR [ecx]
  00025	77 02		 ja	 SHORT $LN9@min
  00027	eb 4a		 jmp	 SHORT $LN6@min
$LN9@min:
  00029	68 00 00 00 00	 push	 OFFSET ??_C@_0BD@FEEMDEPI@invalid?5comparator@
  0002e	68 00 00 00 00	 push	 OFFSET ??_C@_02DKCKIIND@?$CFs@
  00033	6a 00		 push	 0
  00035	68 36 15 00 00	 push	 5430			; 00001536H
  0003a	68 00 00 00 00	 push	 OFFSET ??_C@_0GK@JMBMHIBC@c?3?2program?5files?5?$CIx86?$CJ?2microsof@
  0003f	6a 02		 push	 2
  00041	ff 15 00 00 00
	00		 call	 DWORD PTR __imp___CrtDbgReport
  00047	83 c4 18	 add	 esp, 24			; 00000018H
  0004a	83 f8 01	 cmp	 eax, 1
  0004d	75 01		 jne	 SHORT $LN12@min
  0004f	cc		 int	 3
$LN12@min:
  00050	6a 00		 push	 0
  00052	68 36 15 00 00	 push	 5430			; 00001536H
  00057	68 00 00 00 00	 push	 OFFSET ??_C@_1NE@FKBPBJEB@?$AAc?$AA?3?$AA?2?$AAp?$AAr?$AAo?$AAg?$AAr?$AAa?$AAm?$AA?5?$AAf?$AAi?$AAl?$AAe@
  0005c	68 00 00 00 00	 push	 OFFSET ??_C@_1BC@BLAPCBGI@?$AAs?$AAt?$AAd?$AA?3?$AA?3?$AAm?$AAi?$AAn@
  00061	68 00 00 00 00	 push	 OFFSET ??_C@_1CK@NDNHPKPI@?$AA?$CC?$AAi?$AAn?$AAv?$AAa?$AAl?$AAi?$AAd?$AA?5?$AAc?$AAo?$AAm?$AAp?$AAa?$AAr@
  00066	ff 15 00 00 00
	00		 call	 DWORD PTR __imp___invalid_parameter
  0006c	83 c4 14	 add	 esp, 20			; 00000014H
  0006f	33 c0		 xor	 eax, eax
  00071	75 b6		 jne	 SHORT $LN9@min
$LN6@min:
  00073	33 c0		 xor	 eax, eax
  00075	75 a1		 jne	 SHORT $LN4@min

; 5431 : 		return (_Right);

  00077	8b 45 0c	 mov	 eax, DWORD PTR __Right$[ebp]
  0007a	eb 03		 jmp	 SHORT $LN1@min
$LN8@min:

; 5432 : 		}
; 5433 : 
; 5434 : 	return (_Left);

  0007c	8b 45 08	 mov	 eax, DWORD PTR __Left$[ebp]
$LN1@min:

; 5435 : 	}

  0007f	5f		 pop	 edi
  00080	5e		 pop	 esi
  00081	5b		 pop	 ebx
  00082	8b e5		 mov	 esp, ebp
  00084	5d		 pop	 ebp
  00085	c2 08 00	 ret	 8
??$min@M@std@@YGABMABM0@Z ENDP				; std::min<float>
_TEXT	ENDS
; Function compile flags: /Odtp /ZI
; File c:\users\nhv90\projects\eech\aphavoc\source\app3d\3d_init.c
;	COMDAT ?modify_3d_objects_approximations@@YGXM@Z
_TEXT	SEGMENT
_factor$ = 8						; size = 4
?modify_3d_objects_approximations@@YGXM@Z PROC		; modify_3d_objects_approximations, COMDAT

; 869  : {

  00000	55		 push	 ebp
  00001	8b ec		 mov	 ebp, esp
  00003	83 ec 40	 sub	 esp, 64			; 00000040H
  00006	53		 push	 ebx
  00007	56		 push	 esi
  00008	57		 push	 edi

; 870  : 
; 871  : 	scale_object_3d_approximation_distances ( OBJECT_3D_AH64D_APACHE_LONGBOW,	1.0 * factor );

  00009	f3 0f 5a 45 08	 cvtss2sd xmm0, DWORD PTR _factor$[ebp]
  0000e	f2 0f 59 05 00
	00 00 00	 mulsd	 xmm0, QWORD PTR __real@3ff0000000000000
  00016	f2 0f 5a c0	 cvtsd2ss xmm0, xmm0
  0001a	51		 push	 ecx
  0001b	f3 0f 11 04 24	 movss	 DWORD PTR [esp], xmm0
  00020	6a 01		 push	 1
  00022	e8 00 00 00 00	 call	 ?scale_object_3d_approximation_distances@@YGXHM@Z ; scale_object_3d_approximation_distances

; 872  : 	scale_object_3d_approximation_distances ( OBJECT_3D_UH60_BLACKHAWK,			1.0 * factor );

  00027	f3 0f 5a 45 08	 cvtss2sd xmm0, DWORD PTR _factor$[ebp]
  0002c	f2 0f 59 05 00
	00 00 00	 mulsd	 xmm0, QWORD PTR __real@3ff0000000000000
  00034	f2 0f 5a c0	 cvtsd2ss xmm0, xmm0
  00038	51		 push	 ecx
  00039	f3 0f 11 04 24	 movss	 DWORD PTR [esp], xmm0
  0003e	6a 02		 push	 2
  00040	e8 00 00 00 00	 call	 ?scale_object_3d_approximation_distances@@YGXHM@Z ; scale_object_3d_approximation_distances

; 873  : 	scale_object_3d_approximation_distances ( OBJECT_3D_CH_3,						1.0 * factor );

  00045	f3 0f 5a 45 08	 cvtss2sd xmm0, DWORD PTR _factor$[ebp]
  0004a	f2 0f 59 05 00
	00 00 00	 mulsd	 xmm0, QWORD PTR __real@3ff0000000000000
  00052	f2 0f 5a c0	 cvtsd2ss xmm0, xmm0
  00056	51		 push	 ecx
  00057	f3 0f 11 04 24	 movss	 DWORD PTR [esp], xmm0
  0005c	6a 03		 push	 3
  0005e	e8 00 00 00 00	 call	 ?scale_object_3d_approximation_distances@@YGXHM@Z ; scale_object_3d_approximation_distances

; 874  : 	scale_object_3d_approximation_distances ( OBJECT_3D_CH_46,						1.0 * factor );

  00063	f3 0f 5a 45 08	 cvtss2sd xmm0, DWORD PTR _factor$[ebp]
  00068	f2 0f 59 05 00
	00 00 00	 mulsd	 xmm0, QWORD PTR __real@3ff0000000000000
  00070	f2 0f 5a c0	 cvtsd2ss xmm0, xmm0
  00074	51		 push	 ecx
  00075	f3 0f 11 04 24	 movss	 DWORD PTR [esp], xmm0
  0007a	6a 04		 push	 4
  0007c	e8 00 00 00 00	 call	 ?scale_object_3d_approximation_distances@@YGXHM@Z ; scale_object_3d_approximation_distances

; 875  : 	scale_object_3d_approximation_distances ( OBJECT_3D_CH47D_CHINOOK,			1.0 * factor );

  00081	f3 0f 5a 45 08	 cvtss2sd xmm0, DWORD PTR _factor$[ebp]
  00086	f2 0f 59 05 00
	00 00 00	 mulsd	 xmm0, QWORD PTR __real@3ff0000000000000
  0008e	f2 0f 5a c0	 cvtsd2ss xmm0, xmm0
  00092	51		 push	 ecx
  00093	f3 0f 11 04 24	 movss	 DWORD PTR [esp], xmm0
  00098	6a 05		 push	 5
  0009a	e8 00 00 00 00	 call	 ?scale_object_3d_approximation_distances@@YGXHM@Z ; scale_object_3d_approximation_distances

; 876  : 	scale_object_3d_approximation_distances ( OBJECT_3D_MI28N_HAVOC,				1.0 * factor );

  0009f	f3 0f 5a 45 08	 cvtss2sd xmm0, DWORD PTR _factor$[ebp]
  000a4	f2 0f 59 05 00
	00 00 00	 mulsd	 xmm0, QWORD PTR __real@3ff0000000000000
  000ac	f2 0f 5a c0	 cvtsd2ss xmm0, xmm0
  000b0	51		 push	 ecx
  000b1	f3 0f 11 04 24	 movss	 DWORD PTR [esp], xmm0
  000b6	6a 06		 push	 6
  000b8	e8 00 00 00 00	 call	 ?scale_object_3d_approximation_distances@@YGXHM@Z ; scale_object_3d_approximation_distances

; 877  : 	scale_object_3d_approximation_distances ( OBJECT_3D_KA29_HELIX_B,				1.0 * factor );

  000bd	f3 0f 5a 45 08	 cvtss2sd xmm0, DWORD PTR _factor$[ebp]
  000c2	f2 0f 59 05 00
	00 00 00	 mulsd	 xmm0, QWORD PTR __real@3ff0000000000000
  000ca	f2 0f 5a c0	 cvtsd2ss xmm0, xmm0
  000ce	51		 push	 ecx
  000cf	f3 0f 11 04 24	 movss	 DWORD PTR [esp], xmm0
  000d4	6a 07		 push	 7
  000d6	e8 00 00 00 00	 call	 ?scale_object_3d_approximation_distances@@YGXHM@Z ; scale_object_3d_approximation_distances

; 878  : 	scale_object_3d_approximation_distances ( OBJECT_3D_MI24_HIND,					1.0 * factor );

  000db	f3 0f 5a 45 08	 cvtss2sd xmm0, DWORD PTR _factor$[ebp]
  000e0	f2 0f 59 05 00
	00 00 00	 mulsd	 xmm0, QWORD PTR __real@3ff0000000000000
  000e8	f2 0f 5a c0	 cvtsd2ss xmm0, xmm0
  000ec	51		 push	 ecx
  000ed	f3 0f 11 04 24	 movss	 DWORD PTR [esp], xmm0
  000f2	6a 08		 push	 8
  000f4	e8 00 00 00 00	 call	 ?scale_object_3d_approximation_distances@@YGXHM@Z ; scale_object_3d_approximation_distances

; 879  : 	scale_object_3d_approximation_distances ( OBJECT_3D_MI17_HIP,					1.0 * factor );

  000f9	f3 0f 5a 45 08	 cvtss2sd xmm0, DWORD PTR _factor$[ebp]
  000fe	f2 0f 59 05 00
	00 00 00	 mulsd	 xmm0, QWORD PTR __real@3ff0000000000000
  00106	f2 0f 5a c0	 cvtsd2ss xmm0, xmm0
  0010a	51		 push	 ecx
  0010b	f3 0f 11 04 24	 movss	 DWORD PTR [esp], xmm0
  00110	6a 09		 push	 9
  00112	e8 00 00 00 00	 call	 ?scale_object_3d_approximation_distances@@YGXHM@Z ; scale_object_3d_approximation_distances

; 880  : 	scale_object_3d_approximation_distances ( OBJECT_3D_MI6_HOOK,					1.0 * factor );

  00117	f3 0f 5a 45 08	 cvtss2sd xmm0, DWORD PTR _factor$[ebp]
  0011c	f2 0f 59 05 00
	00 00 00	 mulsd	 xmm0, QWORD PTR __real@3ff0000000000000
  00124	f2 0f 5a c0	 cvtsd2ss xmm0, xmm0
  00128	51		 push	 ecx
  00129	f3 0f 11 04 24	 movss	 DWORD PTR [esp], xmm0
  0012e	6a 0a		 push	 10			; 0000000aH
  00130	e8 00 00 00 00	 call	 ?scale_object_3d_approximation_distances@@YGXHM@Z ; scale_object_3d_approximation_distances

; 881  : 
; 882  : 	scale_object_3d_approximation_distances ( OBJECT_3D_A10A_THUNDERBOLT,		1.0 * factor );

  00135	f3 0f 5a 45 08	 cvtss2sd xmm0, DWORD PTR _factor$[ebp]
  0013a	f2 0f 59 05 00
	00 00 00	 mulsd	 xmm0, QWORD PTR __real@3ff0000000000000
  00142	f2 0f 5a c0	 cvtsd2ss xmm0, xmm0
  00146	51		 push	 ecx
  00147	f3 0f 11 04 24	 movss	 DWORD PTR [esp], xmm0
  0014c	6a 18		 push	 24			; 00000018H
  0014e	e8 00 00 00 00	 call	 ?scale_object_3d_approximation_distances@@YGXHM@Z ; scale_object_3d_approximation_distances

; 883  : 	scale_object_3d_approximation_distances ( OBJECT_3D_F16_FIGHTING_FALCON,	1.0 * factor );

  00153	f3 0f 5a 45 08	 cvtss2sd xmm0, DWORD PTR _factor$[ebp]
  00158	f2 0f 59 05 00
	00 00 00	 mulsd	 xmm0, QWORD PTR __real@3ff0000000000000
  00160	f2 0f 5a c0	 cvtsd2ss xmm0, xmm0
  00164	51		 push	 ecx
  00165	f3 0f 11 04 24	 movss	 DWORD PTR [esp], xmm0
  0016a	6a 1a		 push	 26			; 0000001aH
  0016c	e8 00 00 00 00	 call	 ?scale_object_3d_approximation_distances@@YGXHM@Z ; scale_object_3d_approximation_distances

; 884  : 	scale_object_3d_approximation_distances ( OBJECT_3D_FA_18,						1.0 * factor );

  00171	f3 0f 5a 45 08	 cvtss2sd xmm0, DWORD PTR _factor$[ebp]
  00176	f2 0f 59 05 00
	00 00 00	 mulsd	 xmm0, QWORD PTR __real@3ff0000000000000
  0017e	f2 0f 5a c0	 cvtsd2ss xmm0, xmm0
  00182	51		 push	 ecx
  00183	f3 0f 11 04 24	 movss	 DWORD PTR [esp], xmm0
  00188	6a 1c		 push	 28			; 0000001cH
  0018a	e8 00 00 00 00	 call	 ?scale_object_3d_approximation_distances@@YGXHM@Z ; scale_object_3d_approximation_distances

; 885  : 	scale_object_3d_approximation_distances ( OBJECT_3D_MIG29_FULCRUM,			1.0 * factor );

  0018f	f3 0f 5a 45 08	 cvtss2sd xmm0, DWORD PTR _factor$[ebp]
  00194	f2 0f 59 05 00
	00 00 00	 mulsd	 xmm0, QWORD PTR __real@3ff0000000000000
  0019c	f2 0f 5a c0	 cvtsd2ss xmm0, xmm0
  001a0	51		 push	 ecx
  001a1	f3 0f 11 04 24	 movss	 DWORD PTR [esp], xmm0
  001a6	6a 1e		 push	 30			; 0000001eH
  001a8	e8 00 00 00 00	 call	 ?scale_object_3d_approximation_distances@@YGXHM@Z ; scale_object_3d_approximation_distances

; 886  : 	scale_object_3d_approximation_distances ( OBJECT_3D_HARRIER,					1.0 * factor );

  001ad	f3 0f 5a 45 08	 cvtss2sd xmm0, DWORD PTR _factor$[ebp]
  001b2	f2 0f 59 05 00
	00 00 00	 mulsd	 xmm0, QWORD PTR __real@3ff0000000000000
  001ba	f2 0f 5a c0	 cvtsd2ss xmm0, xmm0
  001be	51		 push	 ecx
  001bf	f3 0f 11 04 24	 movss	 DWORD PTR [esp], xmm0
  001c4	6a 20		 push	 32			; 00000020H
  001c6	e8 00 00 00 00	 call	 ?scale_object_3d_approximation_distances@@YGXHM@Z ; scale_object_3d_approximation_distances

; 887  : 	scale_object_3d_approximation_distances ( OBJECT_3D_HARRIER_DESTROYED,		1.0 * factor );

  001cb	f3 0f 5a 45 08	 cvtss2sd xmm0, DWORD PTR _factor$[ebp]
  001d0	f2 0f 59 05 00
	00 00 00	 mulsd	 xmm0, QWORD PTR __real@3ff0000000000000
  001d8	f2 0f 5a c0	 cvtsd2ss xmm0, xmm0
  001dc	51		 push	 ecx
  001dd	f3 0f 11 04 24	 movss	 DWORD PTR [esp], xmm0
  001e2	6a 21		 push	 33			; 00000021H
  001e4	e8 00 00 00 00	 call	 ?scale_object_3d_approximation_distances@@YGXHM@Z ; scale_object_3d_approximation_distances

; 888  : 	scale_object_3d_approximation_distances ( OBJECT_3D_SU25,						1.0 * factor );

  001e9	f3 0f 5a 45 08	 cvtss2sd xmm0, DWORD PTR _factor$[ebp]
  001ee	f2 0f 59 05 00
	00 00 00	 mulsd	 xmm0, QWORD PTR __real@3ff0000000000000
  001f6	f2 0f 5a c0	 cvtsd2ss xmm0, xmm0
  001fa	51		 push	 ecx
  001fb	f3 0f 11 04 24	 movss	 DWORD PTR [esp], xmm0
  00200	6a 22		 push	 34			; 00000022H
  00202	e8 00 00 00 00	 call	 ?scale_object_3d_approximation_distances@@YGXHM@Z ; scale_object_3d_approximation_distances

; 889  : 	scale_object_3d_approximation_distances ( OBJECT_3D_SU33,						1.0 * factor );

  00207	f3 0f 5a 45 08	 cvtss2sd xmm0, DWORD PTR _factor$[ebp]
  0020c	f2 0f 59 05 00
	00 00 00	 mulsd	 xmm0, QWORD PTR __real@3ff0000000000000
  00214	f2 0f 5a c0	 cvtsd2ss xmm0, xmm0
  00218	51		 push	 ecx
  00219	f3 0f 11 04 24	 movss	 DWORD PTR [esp], xmm0
  0021e	6a 24		 push	 36			; 00000024H
  00220	e8 00 00 00 00	 call	 ?scale_object_3d_approximation_distances@@YGXHM@Z ; scale_object_3d_approximation_distances

; 890  : 	scale_object_3d_approximation_distances ( OBJECT_3D_YAK_41,						1.0 * factor );

  00225	f3 0f 5a 45 08	 cvtss2sd xmm0, DWORD PTR _factor$[ebp]
  0022a	f2 0f 59 05 00
	00 00 00	 mulsd	 xmm0, QWORD PTR __real@3ff0000000000000
  00232	f2 0f 5a c0	 cvtsd2ss xmm0, xmm0
  00236	51		 push	 ecx
  00237	f3 0f 11 04 24	 movss	 DWORD PTR [esp], xmm0
  0023c	6a 26		 push	 38			; 00000026H
  0023e	e8 00 00 00 00	 call	 ?scale_object_3d_approximation_distances@@YGXHM@Z ; scale_object_3d_approximation_distances

; 891  : 
; 892  : 	scale_object_3d_approximation_distances ( OBJECT_3D_M730A1,						1.0 * factor );

  00243	f3 0f 5a 45 08	 cvtss2sd xmm0, DWORD PTR _factor$[ebp]
  00248	f2 0f 59 05 00
	00 00 00	 mulsd	 xmm0, QWORD PTR __real@3ff0000000000000
  00250	f2 0f 5a c0	 cvtsd2ss xmm0, xmm0
  00254	51		 push	 ecx
  00255	f3 0f 11 04 24	 movss	 DWORD PTR [esp], xmm0
  0025a	68 6c 0a 00 00	 push	 2668			; 00000a6cH
  0025f	e8 00 00 00 00	 call	 ?scale_object_3d_approximation_distances@@YGXHM@Z ; scale_object_3d_approximation_distances

; 893  : 	scale_object_3d_approximation_distances ( OBJECT_3D_SA13,						1.0 * factor );

  00264	f3 0f 5a 45 08	 cvtss2sd xmm0, DWORD PTR _factor$[ebp]
  00269	f2 0f 59 05 00
	00 00 00	 mulsd	 xmm0, QWORD PTR __real@3ff0000000000000
  00271	f2 0f 5a c0	 cvtsd2ss xmm0, xmm0
  00275	51		 push	 ecx
  00276	f3 0f 11 04 24	 movss	 DWORD PTR [esp], xmm0
  0027b	68 6e 0a 00 00	 push	 2670			; 00000a6eH
  00280	e8 00 00 00 00	 call	 ?scale_object_3d_approximation_distances@@YGXHM@Z ; scale_object_3d_approximation_distances

; 894  : 	scale_object_3d_approximation_distances ( OBJECT_3D_SA13_DESTROYED,			1.0 * factor );

  00285	f3 0f 5a 45 08	 cvtss2sd xmm0, DWORD PTR _factor$[ebp]
  0028a	f2 0f 59 05 00
	00 00 00	 mulsd	 xmm0, QWORD PTR __real@3ff0000000000000
  00292	f2 0f 5a c0	 cvtsd2ss xmm0, xmm0
  00296	51		 push	 ecx
  00297	f3 0f 11 04 24	 movss	 DWORD PTR [esp], xmm0
  0029c	68 6f 0a 00 00	 push	 2671			; 00000a6fH
  002a1	e8 00 00 00 00	 call	 ?scale_object_3d_approximation_distances@@YGXHM@Z ; scale_object_3d_approximation_distances

; 895  : 	scale_object_3d_approximation_distances ( OBJECT_3D_SA19_GRISON,				1.0 * factor );

  002a6	f3 0f 5a 45 08	 cvtss2sd xmm0, DWORD PTR _factor$[ebp]
  002ab	f2 0f 59 05 00
	00 00 00	 mulsd	 xmm0, QWORD PTR __real@3ff0000000000000
  002b3	f2 0f 5a c0	 cvtsd2ss xmm0, xmm0
  002b7	51		 push	 ecx
  002b8	f3 0f 11 04 24	 movss	 DWORD PTR [esp], xmm0
  002bd	68 70 0a 00 00	 push	 2672			; 00000a70H
  002c2	e8 00 00 00 00	 call	 ?scale_object_3d_approximation_distances@@YGXHM@Z ; scale_object_3d_approximation_distances

; 896  : 	scale_object_3d_approximation_distances ( OBJECT_3D_SA19_GRISON_DESTROYED,	1.0 * factor );

  002c7	f3 0f 5a 45 08	 cvtss2sd xmm0, DWORD PTR _factor$[ebp]
  002cc	f2 0f 59 05 00
	00 00 00	 mulsd	 xmm0, QWORD PTR __real@3ff0000000000000
  002d4	f2 0f 5a c0	 cvtsd2ss xmm0, xmm0
  002d8	51		 push	 ecx
  002d9	f3 0f 11 04 24	 movss	 DWORD PTR [esp], xmm0
  002de	68 71 0a 00 00	 push	 2673			; 00000a71H
  002e3	e8 00 00 00 00	 call	 ?scale_object_3d_approximation_distances@@YGXHM@Z ; scale_object_3d_approximation_distances

; 897  : 	scale_object_3d_approximation_distances ( OBJECT_3D_M_163_A1,					1.0 * factor );

  002e8	f3 0f 5a 45 08	 cvtss2sd xmm0, DWORD PTR _factor$[ebp]
  002ed	f2 0f 59 05 00
	00 00 00	 mulsd	 xmm0, QWORD PTR __real@3ff0000000000000
  002f5	f2 0f 5a c0	 cvtsd2ss xmm0, xmm0
  002f9	51		 push	 ecx
  002fa	f3 0f 11 04 24	 movss	 DWORD PTR [esp], xmm0
  002ff	68 72 0a 00 00	 push	 2674			; 00000a72H
  00304	e8 00 00 00 00	 call	 ?scale_object_3d_approximation_distances@@YGXHM@Z ; scale_object_3d_approximation_distances

; 898  : 	scale_object_3d_approximation_distances ( OBJECT_3D_M_163_A1_DESTROYED,		1.0 * factor );

  00309	f3 0f 5a 45 08	 cvtss2sd xmm0, DWORD PTR _factor$[ebp]
  0030e	f2 0f 59 05 00
	00 00 00	 mulsd	 xmm0, QWORD PTR __real@3ff0000000000000
  00316	f2 0f 5a c0	 cvtsd2ss xmm0, xmm0
  0031a	51		 push	 ecx
  0031b	f3 0f 11 04 24	 movss	 DWORD PTR [esp], xmm0
  00320	68 73 0a 00 00	 push	 2675			; 00000a73H
  00325	e8 00 00 00 00	 call	 ?scale_object_3d_approximation_distances@@YGXHM@Z ; scale_object_3d_approximation_distances

; 899  : 	scale_object_3d_approximation_distances ( OBJECT_3D_M1A2_ABRAMS,				1.0 * factor );

  0032a	f3 0f 5a 45 08	 cvtss2sd xmm0, DWORD PTR _factor$[ebp]
  0032f	f2 0f 59 05 00
	00 00 00	 mulsd	 xmm0, QWORD PTR __real@3ff0000000000000
  00337	f2 0f 5a c0	 cvtsd2ss xmm0, xmm0
  0033b	51		 push	 ecx
  0033c	f3 0f 11 04 24	 movss	 DWORD PTR [esp], xmm0
  00341	68 74 0a 00 00	 push	 2676			; 00000a74H
  00346	e8 00 00 00 00	 call	 ?scale_object_3d_approximation_distances@@YGXHM@Z ; scale_object_3d_approximation_distances

; 900  : 	scale_object_3d_approximation_distances ( OBJECT_3D_BMP2,						1.0 * factor );

  0034b	f3 0f 5a 45 08	 cvtss2sd xmm0, DWORD PTR _factor$[ebp]
  00350	f2 0f 59 05 00
	00 00 00	 mulsd	 xmm0, QWORD PTR __real@3ff0000000000000
  00358	f2 0f 5a c0	 cvtsd2ss xmm0, xmm0
  0035c	51		 push	 ecx
  0035d	f3 0f 11 04 24	 movss	 DWORD PTR [esp], xmm0
  00362	68 75 0a 00 00	 push	 2677			; 00000a75H
  00367	e8 00 00 00 00	 call	 ?scale_object_3d_approximation_distances@@YGXHM@Z ; scale_object_3d_approximation_distances

; 901  : 	scale_object_3d_approximation_distances ( OBJECT_3D_BMP3,						1.0 * factor );

  0036c	f3 0f 5a 45 08	 cvtss2sd xmm0, DWORD PTR _factor$[ebp]
  00371	f2 0f 59 05 00
	00 00 00	 mulsd	 xmm0, QWORD PTR __real@3ff0000000000000
  00379	f2 0f 5a c0	 cvtsd2ss xmm0, xmm0
  0037d	51		 push	 ecx
  0037e	f3 0f 11 04 24	 movss	 DWORD PTR [esp], xmm0
  00383	68 76 0a 00 00	 push	 2678			; 00000a76H
  00388	e8 00 00 00 00	 call	 ?scale_object_3d_approximation_distances@@YGXHM@Z ; scale_object_3d_approximation_distances

; 902  : 	scale_object_3d_approximation_distances ( OBJECT_3D_M2A2_BRADLEY,				1.0 * factor );

  0038d	f3 0f 5a 45 08	 cvtss2sd xmm0, DWORD PTR _factor$[ebp]
  00392	f2 0f 59 05 00
	00 00 00	 mulsd	 xmm0, QWORD PTR __real@3ff0000000000000
  0039a	f2 0f 5a c0	 cvtsd2ss xmm0, xmm0
  0039e	51		 push	 ecx
  0039f	f3 0f 11 04 24	 movss	 DWORD PTR [esp], xmm0
  003a4	68 77 0a 00 00	 push	 2679			; 00000a77H
  003a9	e8 00 00 00 00	 call	 ?scale_object_3d_approximation_distances@@YGXHM@Z ; scale_object_3d_approximation_distances

; 903  : 	scale_object_3d_approximation_distances ( OBJECT_3D_BRDM_2,						1.0 * factor );

  003ae	f3 0f 5a 45 08	 cvtss2sd xmm0, DWORD PTR _factor$[ebp]
  003b3	f2 0f 59 05 00
	00 00 00	 mulsd	 xmm0, QWORD PTR __real@3ff0000000000000
  003bb	f2 0f 5a c0	 cvtsd2ss xmm0, xmm0
  003bf	51		 push	 ecx
  003c0	f3 0f 11 04 24	 movss	 DWORD PTR [esp], xmm0
  003c5	68 78 0a 00 00	 push	 2680			; 00000a78H
  003ca	e8 00 00 00 00	 call	 ?scale_object_3d_approximation_distances@@YGXHM@Z ; scale_object_3d_approximation_distances

; 904  : 	scale_object_3d_approximation_distances ( OBJECT_3D_BTR_80,						1.0 * factor );

  003cf	f3 0f 5a 45 08	 cvtss2sd xmm0, DWORD PTR _factor$[ebp]
  003d4	f2 0f 59 05 00
	00 00 00	 mulsd	 xmm0, QWORD PTR __real@3ff0000000000000
  003dc	f2 0f 5a c0	 cvtsd2ss xmm0, xmm0
  003e0	51		 push	 ecx
  003e1	f3 0f 11 04 24	 movss	 DWORD PTR [esp], xmm0
  003e6	68 79 0a 00 00	 push	 2681			; 00000a79H
  003eb	e8 00 00 00 00	 call	 ?scale_object_3d_approximation_distances@@YGXHM@Z ; scale_object_3d_approximation_distances

; 905  : 	scale_object_3d_approximation_distances ( OBJECT_3D_T_80,						1.0 * factor );

  003f0	f3 0f 5a 45 08	 cvtss2sd xmm0, DWORD PTR _factor$[ebp]
  003f5	f2 0f 59 05 00
	00 00 00	 mulsd	 xmm0, QWORD PTR __real@3ff0000000000000
  003fd	f2 0f 5a c0	 cvtsd2ss xmm0, xmm0
  00401	51		 push	 ecx
  00402	f3 0f 11 04 24	 movss	 DWORD PTR [esp], xmm0
  00407	68 7a 0a 00 00	 push	 2682			; 00000a7aH
  0040c	e8 00 00 00 00	 call	 ?scale_object_3d_approximation_distances@@YGXHM@Z ; scale_object_3d_approximation_distances

; 906  : 	scale_object_3d_approximation_distances ( OBJECT_3D_2S19,						1.0 * factor );

  00411	f3 0f 5a 45 08	 cvtss2sd xmm0, DWORD PTR _factor$[ebp]
  00416	f2 0f 59 05 00
	00 00 00	 mulsd	 xmm0, QWORD PTR __real@3ff0000000000000
  0041e	f2 0f 5a c0	 cvtsd2ss xmm0, xmm0
  00422	51		 push	 ecx
  00423	f3 0f 11 04 24	 movss	 DWORD PTR [esp], xmm0
  00428	68 82 0a 00 00	 push	 2690			; 00000a82H
  0042d	e8 00 00 00 00	 call	 ?scale_object_3d_approximation_distances@@YGXHM@Z ; scale_object_3d_approximation_distances

; 907  : 	scale_object_3d_approximation_distances ( OBJECT_3D_BM_21,						1.0 * factor );

  00432	f3 0f 5a 45 08	 cvtss2sd xmm0, DWORD PTR _factor$[ebp]
  00437	f2 0f 59 05 00
	00 00 00	 mulsd	 xmm0, QWORD PTR __real@3ff0000000000000
  0043f	f2 0f 5a c0	 cvtsd2ss xmm0, xmm0
  00443	51		 push	 ecx
  00444	f3 0f 11 04 24	 movss	 DWORD PTR [esp], xmm0
  00449	68 84 0a 00 00	 push	 2692			; 00000a84H
  0044e	e8 00 00 00 00	 call	 ?scale_object_3d_approximation_distances@@YGXHM@Z ; scale_object_3d_approximation_distances

; 908  : 	scale_object_3d_approximation_distances ( OBJECT_3D_M109A2,						1.0 * factor );

  00453	f3 0f 5a 45 08	 cvtss2sd xmm0, DWORD PTR _factor$[ebp]
  00458	f2 0f 59 05 00
	00 00 00	 mulsd	 xmm0, QWORD PTR __real@3ff0000000000000
  00460	f2 0f 5a c0	 cvtsd2ss xmm0, xmm0
  00464	51		 push	 ecx
  00465	f3 0f 11 04 24	 movss	 DWORD PTR [esp], xmm0
  0046a	68 86 0a 00 00	 push	 2694			; 00000a86H
  0046f	e8 00 00 00 00	 call	 ?scale_object_3d_approximation_distances@@YGXHM@Z ; scale_object_3d_approximation_distances

; 909  : 	scale_object_3d_approximation_distances ( OBJECT_3D_MLRS,						1.0 * factor );

  00474	f3 0f 5a 45 08	 cvtss2sd xmm0, DWORD PTR _factor$[ebp]
  00479	f2 0f 59 05 00
	00 00 00	 mulsd	 xmm0, QWORD PTR __real@3ff0000000000000
  00481	f2 0f 5a c0	 cvtsd2ss xmm0, xmm0
  00485	51		 push	 ecx
  00486	f3 0f 11 04 24	 movss	 DWORD PTR [esp], xmm0
  0048b	68 88 0a 00 00	 push	 2696			; 00000a88H
  00490	e8 00 00 00 00	 call	 ?scale_object_3d_approximation_distances@@YGXHM@Z ; scale_object_3d_approximation_distances

; 910  : 	scale_object_3d_approximation_distances ( OBJECT_3D_HMMWV,						1.0 * factor );

  00495	f3 0f 5a 45 08	 cvtss2sd xmm0, DWORD PTR _factor$[ebp]
  0049a	f2 0f 59 05 00
	00 00 00	 mulsd	 xmm0, QWORD PTR __real@3ff0000000000000
  004a2	f2 0f 5a c0	 cvtsd2ss xmm0, xmm0
  004a6	51		 push	 ecx
  004a7	f3 0f 11 04 24	 movss	 DWORD PTR [esp], xmm0
  004ac	68 8b 0a 00 00	 push	 2699			; 00000a8bH
  004b1	e8 00 00 00 00	 call	 ?scale_object_3d_approximation_distances@@YGXHM@Z ; scale_object_3d_approximation_distances

; 911  : 	scale_object_3d_approximation_distances ( OBJECT_3D_HMMWV_DESTROYED,			1.0 * factor );

  004b6	f3 0f 5a 45 08	 cvtss2sd xmm0, DWORD PTR _factor$[ebp]
  004bb	f2 0f 59 05 00
	00 00 00	 mulsd	 xmm0, QWORD PTR __real@3ff0000000000000
  004c3	f2 0f 5a c0	 cvtsd2ss xmm0, xmm0
  004c7	51		 push	 ecx
  004c8	f3 0f 11 04 24	 movss	 DWORD PTR [esp], xmm0
  004cd	68 8c 0a 00 00	 push	 2700			; 00000a8cH
  004d2	e8 00 00 00 00	 call	 ?scale_object_3d_approximation_distances@@YGXHM@Z ; scale_object_3d_approximation_distances

; 912  : 	scale_object_3d_approximation_distances ( OBJECT_3D_M_923A1_COVERED,			1.0 * factor );

  004d7	f3 0f 5a 45 08	 cvtss2sd xmm0, DWORD PTR _factor$[ebp]
  004dc	f2 0f 59 05 00
	00 00 00	 mulsd	 xmm0, QWORD PTR __real@3ff0000000000000
  004e4	f2 0f 5a c0	 cvtsd2ss xmm0, xmm0
  004e8	51		 push	 ecx
  004e9	f3 0f 11 04 24	 movss	 DWORD PTR [esp], xmm0
  004ee	68 8d 0a 00 00	 push	 2701			; 00000a8dH
  004f3	e8 00 00 00 00	 call	 ?scale_object_3d_approximation_distances@@YGXHM@Z ; scale_object_3d_approximation_distances

; 913  : 	scale_object_3d_approximation_distances ( OBJECT_3D_M_923A1_OPEN,				1.0 * factor );

  004f8	f3 0f 5a 45 08	 cvtss2sd xmm0, DWORD PTR _factor$[ebp]
  004fd	f2 0f 59 05 00
	00 00 00	 mulsd	 xmm0, QWORD PTR __real@3ff0000000000000
  00505	f2 0f 5a c0	 cvtsd2ss xmm0, xmm0
  00509	51		 push	 ecx
  0050a	f3 0f 11 04 24	 movss	 DWORD PTR [esp], xmm0
  0050f	68 8f 0a 00 00	 push	 2703			; 00000a8fH
  00514	e8 00 00 00 00	 call	 ?scale_object_3d_approximation_distances@@YGXHM@Z ; scale_object_3d_approximation_distances

; 914  : 	scale_object_3d_approximation_distances ( OBJECT_3D_M998,						1.0 * factor );

  00519	f3 0f 5a 45 08	 cvtss2sd xmm0, DWORD PTR _factor$[ebp]
  0051e	f2 0f 59 05 00
	00 00 00	 mulsd	 xmm0, QWORD PTR __real@3ff0000000000000
  00526	f2 0f 5a c0	 cvtsd2ss xmm0, xmm0
  0052a	51		 push	 ecx
  0052b	f3 0f 11 04 24	 movss	 DWORD PTR [esp], xmm0
  00530	68 91 0a 00 00	 push	 2705			; 00000a91H
  00535	e8 00 00 00 00	 call	 ?scale_object_3d_approximation_distances@@YGXHM@Z ; scale_object_3d_approximation_distances

; 915  : 	scale_object_3d_approximation_distances ( OBJECT_3D_M998_DESTROYED,			1.0 * factor );

  0053a	f3 0f 5a 45 08	 cvtss2sd xmm0, DWORD PTR _factor$[ebp]
  0053f	f2 0f 59 05 00
	00 00 00	 mulsd	 xmm0, QWORD PTR __real@3ff0000000000000
  00547	f2 0f 5a c0	 cvtsd2ss xmm0, xmm0
  0054b	51		 push	 ecx
  0054c	f3 0f 11 04 24	 movss	 DWORD PTR [esp], xmm0
  00551	68 92 0a 00 00	 push	 2706			; 00000a92H
  00556	e8 00 00 00 00	 call	 ?scale_object_3d_approximation_distances@@YGXHM@Z ; scale_object_3d_approximation_distances

; 916  : 	scale_object_3d_approximation_distances ( OBJECT_3D_M_113_A1,					1.0 * factor );

  0055b	f3 0f 5a 45 08	 cvtss2sd xmm0, DWORD PTR _factor$[ebp]
  00560	f2 0f 59 05 00
	00 00 00	 mulsd	 xmm0, QWORD PTR __real@3ff0000000000000
  00568	f2 0f 5a c0	 cvtsd2ss xmm0, xmm0
  0056c	51		 push	 ecx
  0056d	f3 0f 11 04 24	 movss	 DWORD PTR [esp], xmm0
  00572	68 93 0a 00 00	 push	 2707			; 00000a93H
  00577	e8 00 00 00 00	 call	 ?scale_object_3d_approximation_distances@@YGXHM@Z ; scale_object_3d_approximation_distances

; 917  : 	scale_object_3d_approximation_distances ( OBJECT_3D_M_113_A1_DESTROYED,		1.0 * factor );

  0057c	f3 0f 5a 45 08	 cvtss2sd xmm0, DWORD PTR _factor$[ebp]
  00581	f2 0f 59 05 00
	00 00 00	 mulsd	 xmm0, QWORD PTR __real@3ff0000000000000
  00589	f2 0f 5a c0	 cvtsd2ss xmm0, xmm0
  0058d	51		 push	 ecx
  0058e	f3 0f 11 04 24	 movss	 DWORD PTR [esp], xmm0
  00593	68 94 0a 00 00	 push	 2708			; 00000a94H
  00598	e8 00 00 00 00	 call	 ?scale_object_3d_approximation_distances@@YGXHM@Z ; scale_object_3d_approximation_distances

; 918  : 	scale_object_3d_approximation_distances ( OBJECT_3D_M_978,						1.0 * factor );

  0059d	f3 0f 5a 45 08	 cvtss2sd xmm0, DWORD PTR _factor$[ebp]
  005a2	f2 0f 59 05 00
	00 00 00	 mulsd	 xmm0, QWORD PTR __real@3ff0000000000000
  005aa	f2 0f 5a c0	 cvtsd2ss xmm0, xmm0
  005ae	51		 push	 ecx
  005af	f3 0f 11 04 24	 movss	 DWORD PTR [esp], xmm0
  005b4	68 95 0a 00 00	 push	 2709			; 00000a95H
  005b9	e8 00 00 00 00	 call	 ?scale_object_3d_approximation_distances@@YGXHM@Z ; scale_object_3d_approximation_distances

; 919  : 	scale_object_3d_approximation_distances ( OBJECT_3D_UAZ,							1.0 * factor );

  005be	f3 0f 5a 45 08	 cvtss2sd xmm0, DWORD PTR _factor$[ebp]
  005c3	f2 0f 59 05 00
	00 00 00	 mulsd	 xmm0, QWORD PTR __real@3ff0000000000000
  005cb	f2 0f 5a c0	 cvtsd2ss xmm0, xmm0
  005cf	51		 push	 ecx
  005d0	f3 0f 11 04 24	 movss	 DWORD PTR [esp], xmm0
  005d5	68 a3 0a 00 00	 push	 2723			; 00000aa3H
  005da	e8 00 00 00 00	 call	 ?scale_object_3d_approximation_distances@@YGXHM@Z ; scale_object_3d_approximation_distances

; 920  : 	scale_object_3d_approximation_distances ( OBJECT_3D_UAZ_DESTROYED,			1.0 * factor );

  005df	f3 0f 5a 45 08	 cvtss2sd xmm0, DWORD PTR _factor$[ebp]
  005e4	f2 0f 59 05 00
	00 00 00	 mulsd	 xmm0, QWORD PTR __real@3ff0000000000000
  005ec	f2 0f 5a c0	 cvtsd2ss xmm0, xmm0
  005f0	51		 push	 ecx
  005f1	f3 0f 11 04 24	 movss	 DWORD PTR [esp], xmm0
  005f6	68 a4 0a 00 00	 push	 2724			; 00000aa4H
  005fb	e8 00 00 00 00	 call	 ?scale_object_3d_approximation_distances@@YGXHM@Z ; scale_object_3d_approximation_distances

; 921  : 	scale_object_3d_approximation_distances ( OBJECT_3D_URAL_4320,					1.0 * factor );

  00600	f3 0f 5a 45 08	 cvtss2sd xmm0, DWORD PTR _factor$[ebp]
  00605	f2 0f 59 05 00
	00 00 00	 mulsd	 xmm0, QWORD PTR __real@3ff0000000000000
  0060d	f2 0f 5a c0	 cvtsd2ss xmm0, xmm0
  00611	51		 push	 ecx
  00612	f3 0f 11 04 24	 movss	 DWORD PTR [esp], xmm0
  00617	68 a5 0a 00 00	 push	 2725			; 00000aa5H
  0061c	e8 00 00 00 00	 call	 ?scale_object_3d_approximation_distances@@YGXHM@Z ; scale_object_3d_approximation_distances

; 922  : 	scale_object_3d_approximation_distances ( OBJECT_3D_URAL_4320_DESTROYED,	1.0 * factor );

  00621	f3 0f 5a 45 08	 cvtss2sd xmm0, DWORD PTR _factor$[ebp]
  00626	f2 0f 59 05 00
	00 00 00	 mulsd	 xmm0, QWORD PTR __real@3ff0000000000000
  0062e	f2 0f 5a c0	 cvtsd2ss xmm0, xmm0
  00632	51		 push	 ecx
  00633	f3 0f 11 04 24	 movss	 DWORD PTR [esp], xmm0
  00638	68 a6 0a 00 00	 push	 2726			; 00000aa6H
  0063d	e8 00 00 00 00	 call	 ?scale_object_3d_approximation_distances@@YGXHM@Z ; scale_object_3d_approximation_distances

; 923  : 	scale_object_3d_approximation_distances ( OBJECT_3D_URAL_FUEL,					1.0 * factor );

  00642	f3 0f 5a 45 08	 cvtss2sd xmm0, DWORD PTR _factor$[ebp]
  00647	f2 0f 59 05 00
	00 00 00	 mulsd	 xmm0, QWORD PTR __real@3ff0000000000000
  0064f	f2 0f 5a c0	 cvtsd2ss xmm0, xmm0
  00653	51		 push	 ecx
  00654	f3 0f 11 04 24	 movss	 DWORD PTR [esp], xmm0
  00659	68 a7 0a 00 00	 push	 2727			; 00000aa7H
  0065e	e8 00 00 00 00	 call	 ?scale_object_3d_approximation_distances@@YGXHM@Z ; scale_object_3d_approximation_distances

; 924  : 
; 925  : 	scale_object_3d_approximation_distances ( OBJECT_3D_AMERICAN_AERIAL01,				0.7 * factor );

  00663	f3 0f 5a 45 08	 cvtss2sd xmm0, DWORD PTR _factor$[ebp]
  00668	f2 0f 59 05 00
	00 00 00	 mulsd	 xmm0, QWORD PTR __real@3fe6666666666666
  00670	f2 0f 5a c0	 cvtsd2ss xmm0, xmm0
  00674	51		 push	 ecx
  00675	f3 0f 11 04 24	 movss	 DWORD PTR [esp], xmm0
  0067a	6a 28		 push	 40			; 00000028H
  0067c	e8 00 00 00 00	 call	 ?scale_object_3d_approximation_distances@@YGXHM@Z ; scale_object_3d_approximation_distances

; 926  : 	scale_object_3d_approximation_distances ( OBJECT_3D_AMERICAN_AERIAL02,				0.7 * factor );

  00681	f3 0f 5a 45 08	 cvtss2sd xmm0, DWORD PTR _factor$[ebp]
  00686	f2 0f 59 05 00
	00 00 00	 mulsd	 xmm0, QWORD PTR __real@3fe6666666666666
  0068e	f2 0f 5a c0	 cvtsd2ss xmm0, xmm0
  00692	51		 push	 ecx
  00693	f3 0f 11 04 24	 movss	 DWORD PTR [esp], xmm0
  00698	6a 2a		 push	 42			; 0000002aH
  0069a	e8 00 00 00 00	 call	 ?scale_object_3d_approximation_distances@@YGXHM@Z ; scale_object_3d_approximation_distances

; 927  : 	scale_object_3d_approximation_distances ( OBJECT_3D_AMERICAN_AIRPORT01,				0.7 * factor );

  0069f	f3 0f 5a 45 08	 cvtss2sd xmm0, DWORD PTR _factor$[ebp]
  006a4	f2 0f 59 05 00
	00 00 00	 mulsd	 xmm0, QWORD PTR __real@3fe6666666666666
  006ac	f2 0f 5a c0	 cvtsd2ss xmm0, xmm0
  006b0	51		 push	 ecx
  006b1	f3 0f 11 04 24	 movss	 DWORD PTR [esp], xmm0
  006b6	6a 2e		 push	 46			; 0000002eH
  006b8	e8 00 00 00 00	 call	 ?scale_object_3d_approximation_distances@@YGXHM@Z ; scale_object_3d_approximation_distances

; 928  : 	scale_object_3d_approximation_distances ( OBJECT_3D_AMERICAN_BUILDING01,			0.7 * factor );

  006bd	f3 0f 5a 45 08	 cvtss2sd xmm0, DWORD PTR _factor$[ebp]
  006c2	f2 0f 59 05 00
	00 00 00	 mulsd	 xmm0, QWORD PTR __real@3fe6666666666666
  006ca	f2 0f 5a c0	 cvtsd2ss xmm0, xmm0
  006ce	51		 push	 ecx
  006cf	f3 0f 11 04 24	 movss	 DWORD PTR [esp], xmm0
  006d4	6a 37		 push	 55			; 00000037H
  006d6	e8 00 00 00 00	 call	 ?scale_object_3d_approximation_distances@@YGXHM@Z ; scale_object_3d_approximation_distances

; 929  : 	scale_object_3d_approximation_distances ( OBJECT_3D_AMERICAN_BUILDING02,			0.7 * factor );

  006db	f3 0f 5a 45 08	 cvtss2sd xmm0, DWORD PTR _factor$[ebp]
  006e0	f2 0f 59 05 00
	00 00 00	 mulsd	 xmm0, QWORD PTR __real@3fe6666666666666
  006e8	f2 0f 5a c0	 cvtsd2ss xmm0, xmm0
  006ec	51		 push	 ecx
  006ed	f3 0f 11 04 24	 movss	 DWORD PTR [esp], xmm0
  006f2	6a 39		 push	 57			; 00000039H
  006f4	e8 00 00 00 00	 call	 ?scale_object_3d_approximation_distances@@YGXHM@Z ; scale_object_3d_approximation_distances

; 930  : 	scale_object_3d_approximation_distances ( OBJECT_3D_AMERICAN_CONTROL_TOWER01,		0.7 * factor );

  006f9	f3 0f 5a 45 08	 cvtss2sd xmm0, DWORD PTR _factor$[ebp]
  006fe	f2 0f 59 05 00
	00 00 00	 mulsd	 xmm0, QWORD PTR __real@3fe6666666666666
  00706	f2 0f 5a c0	 cvtsd2ss xmm0, xmm0
  0070a	51		 push	 ecx
  0070b	f3 0f 11 04 24	 movss	 DWORD PTR [esp], xmm0
  00710	6a 3b		 push	 59			; 0000003bH
  00712	e8 00 00 00 00	 call	 ?scale_object_3d_approximation_distances@@YGXHM@Z ; scale_object_3d_approximation_distances

; 931  : 	scale_object_3d_approximation_distances ( OBJECT_3D_AMERICAN_FACTORY01,				0.7 * factor );

  00717	f3 0f 5a 45 08	 cvtss2sd xmm0, DWORD PTR _factor$[ebp]
  0071c	f2 0f 59 05 00
	00 00 00	 mulsd	 xmm0, QWORD PTR __real@3fe6666666666666
  00724	f2 0f 5a c0	 cvtsd2ss xmm0, xmm0
  00728	51		 push	 ecx
  00729	f3 0f 11 04 24	 movss	 DWORD PTR [esp], xmm0
  0072e	6a 3f		 push	 63			; 0000003fH
  00730	e8 00 00 00 00	 call	 ?scale_object_3d_approximation_distances@@YGXHM@Z ; scale_object_3d_approximation_distances

; 932  : 	scale_object_3d_approximation_distances ( OBJECT_3D_AMERICAN_FACTORY02,				0.7 * factor );

  00735	f3 0f 5a 45 08	 cvtss2sd xmm0, DWORD PTR _factor$[ebp]
  0073a	f2 0f 59 05 00
	00 00 00	 mulsd	 xmm0, QWORD PTR __real@3fe6666666666666
  00742	f2 0f 5a c0	 cvtsd2ss xmm0, xmm0
  00746	51		 push	 ecx
  00747	f3 0f 11 04 24	 movss	 DWORD PTR [esp], xmm0
  0074c	6a 41		 push	 65			; 00000041H
  0074e	e8 00 00 00 00	 call	 ?scale_object_3d_approximation_distances@@YGXHM@Z ; scale_object_3d_approximation_distances

; 933  : 	scale_object_3d_approximation_distances ( OBJECT_3D_AMERICAN_FACTORY03,				0.7 * factor );

  00753	f3 0f 5a 45 08	 cvtss2sd xmm0, DWORD PTR _factor$[ebp]
  00758	f2 0f 59 05 00
	00 00 00	 mulsd	 xmm0, QWORD PTR __real@3fe6666666666666
  00760	f2 0f 5a c0	 cvtsd2ss xmm0, xmm0
  00764	51		 push	 ecx
  00765	f3 0f 11 04 24	 movss	 DWORD PTR [esp], xmm0
  0076a	6a 43		 push	 67			; 00000043H
  0076c	e8 00 00 00 00	 call	 ?scale_object_3d_approximation_distances@@YGXHM@Z ; scale_object_3d_approximation_distances

; 934  : 	scale_object_3d_approximation_distances ( OBJECT_3D_AMERICAN_FACTORY04,				0.7 * factor );

  00771	f3 0f 5a 45 08	 cvtss2sd xmm0, DWORD PTR _factor$[ebp]
  00776	f2 0f 59 05 00
	00 00 00	 mulsd	 xmm0, QWORD PTR __real@3fe6666666666666
  0077e	f2 0f 5a c0	 cvtsd2ss xmm0, xmm0
  00782	51		 push	 ecx
  00783	f3 0f 11 04 24	 movss	 DWORD PTR [esp], xmm0
  00788	6a 45		 push	 69			; 00000045H
  0078a	e8 00 00 00 00	 call	 ?scale_object_3d_approximation_distances@@YGXHM@Z ; scale_object_3d_approximation_distances

; 935  : 	scale_object_3d_approximation_distances ( OBJECT_3D_AMERICAN_GUARD_POST01,			0.7 * factor );

  0078f	f3 0f 5a 45 08	 cvtss2sd xmm0, DWORD PTR _factor$[ebp]
  00794	f2 0f 59 05 00
	00 00 00	 mulsd	 xmm0, QWORD PTR __real@3fe6666666666666
  0079c	f2 0f 5a c0	 cvtsd2ss xmm0, xmm0
  007a0	51		 push	 ecx
  007a1	f3 0f 11 04 24	 movss	 DWORD PTR [esp], xmm0
  007a6	6a 55		 push	 85			; 00000055H
  007a8	e8 00 00 00 00	 call	 ?scale_object_3d_approximation_distances@@YGXHM@Z ; scale_object_3d_approximation_distances

; 936  : 	scale_object_3d_approximation_distances ( OBJECT_3D_AMERICAN_HANGAR01,				0.7 * factor );

  007ad	f3 0f 5a 45 08	 cvtss2sd xmm0, DWORD PTR _factor$[ebp]
  007b2	f2 0f 59 05 00
	00 00 00	 mulsd	 xmm0, QWORD PTR __real@3fe6666666666666
  007ba	f2 0f 5a c0	 cvtsd2ss xmm0, xmm0
  007be	51		 push	 ecx
  007bf	f3 0f 11 04 24	 movss	 DWORD PTR [esp], xmm0
  007c4	6a 57		 push	 87			; 00000057H
  007c6	e8 00 00 00 00	 call	 ?scale_object_3d_approximation_distances@@YGXHM@Z ; scale_object_3d_approximation_distances

; 937  : 	scale_object_3d_approximation_distances ( OBJECT_3D_AMERICAN_HANGAR02,				0.7 * factor );

  007cb	f3 0f 5a 45 08	 cvtss2sd xmm0, DWORD PTR _factor$[ebp]
  007d0	f2 0f 59 05 00
	00 00 00	 mulsd	 xmm0, QWORD PTR __real@3fe6666666666666
  007d8	f2 0f 5a c0	 cvtsd2ss xmm0, xmm0
  007dc	51		 push	 ecx
  007dd	f3 0f 11 04 24	 movss	 DWORD PTR [esp], xmm0
  007e2	6a 59		 push	 89			; 00000059H
  007e4	e8 00 00 00 00	 call	 ?scale_object_3d_approximation_distances@@YGXHM@Z ; scale_object_3d_approximation_distances

; 938  : 	scale_object_3d_approximation_distances ( OBJECT_3D_AMERICAN_HANGAR03,				0.7 * factor );

  007e9	f3 0f 5a 45 08	 cvtss2sd xmm0, DWORD PTR _factor$[ebp]
  007ee	f2 0f 59 05 00
	00 00 00	 mulsd	 xmm0, QWORD PTR __real@3fe6666666666666
  007f6	f2 0f 5a c0	 cvtsd2ss xmm0, xmm0
  007fa	51		 push	 ecx
  007fb	f3 0f 11 04 24	 movss	 DWORD PTR [esp], xmm0
  00800	6a 5b		 push	 91			; 0000005bH
  00802	e8 00 00 00 00	 call	 ?scale_object_3d_approximation_distances@@YGXHM@Z ; scale_object_3d_approximation_distances

; 939  : 	scale_object_3d_approximation_distances ( OBJECT_3D_AMERICAN_HANGAR11,				0.7 * factor );

  00807	f3 0f 5a 45 08	 cvtss2sd xmm0, DWORD PTR _factor$[ebp]
  0080c	f2 0f 59 05 00
	00 00 00	 mulsd	 xmm0, QWORD PTR __real@3fe6666666666666
  00814	f2 0f 5a c0	 cvtsd2ss xmm0, xmm0
  00818	51		 push	 ecx
  00819	f3 0f 11 04 24	 movss	 DWORD PTR [esp], xmm0
  0081e	6a 5f		 push	 95			; 0000005fH
  00820	e8 00 00 00 00	 call	 ?scale_object_3d_approximation_distances@@YGXHM@Z ; scale_object_3d_approximation_distances

; 940  : 	scale_object_3d_approximation_distances ( OBJECT_3D_AMERICAN_HANGAR12,				0.7 * factor );

  00825	f3 0f 5a 45 08	 cvtss2sd xmm0, DWORD PTR _factor$[ebp]
  0082a	f2 0f 59 05 00
	00 00 00	 mulsd	 xmm0, QWORD PTR __real@3fe6666666666666
  00832	f2 0f 5a c0	 cvtsd2ss xmm0, xmm0
  00836	51		 push	 ecx
  00837	f3 0f 11 04 24	 movss	 DWORD PTR [esp], xmm0
  0083c	6a 61		 push	 97			; 00000061H
  0083e	e8 00 00 00 00	 call	 ?scale_object_3d_approximation_distances@@YGXHM@Z ; scale_object_3d_approximation_distances

; 941  : 	scale_object_3d_approximation_distances ( OBJECT_3D_AMERICAN_HUT01,					0.7 * factor );

  00843	f3 0f 5a 45 08	 cvtss2sd xmm0, DWORD PTR _factor$[ebp]
  00848	f2 0f 59 05 00
	00 00 00	 mulsd	 xmm0, QWORD PTR __real@3fe6666666666666
  00850	f2 0f 5a c0	 cvtsd2ss xmm0, xmm0
  00854	51		 push	 ecx
  00855	f3 0f 11 04 24	 movss	 DWORD PTR [esp], xmm0
  0085a	6a 63		 push	 99			; 00000063H
  0085c	e8 00 00 00 00	 call	 ?scale_object_3d_approximation_distances@@YGXHM@Z ; scale_object_3d_approximation_distances

; 942  : 	scale_object_3d_approximation_distances ( OBJECT_3D_AMERICAN_LAMP01,					0.7 * factor );

  00861	f3 0f 5a 45 08	 cvtss2sd xmm0, DWORD PTR _factor$[ebp]
  00866	f2 0f 59 05 00
	00 00 00	 mulsd	 xmm0, QWORD PTR __real@3fe6666666666666
  0086e	f2 0f 5a c0	 cvtsd2ss xmm0, xmm0
  00872	51		 push	 ecx
  00873	f3 0f 11 04 24	 movss	 DWORD PTR [esp], xmm0
  00878	6a 65		 push	 101			; 00000065H
  0087a	e8 00 00 00 00	 call	 ?scale_object_3d_approximation_distances@@YGXHM@Z ; scale_object_3d_approximation_distances

; 943  : 	scale_object_3d_approximation_distances ( OBJECT_3D_AMERICAN_OIL_TANK01,			0.7 * factor );

  0087f	f3 0f 5a 45 08	 cvtss2sd xmm0, DWORD PTR _factor$[ebp]
  00884	f2 0f 59 05 00
	00 00 00	 mulsd	 xmm0, QWORD PTR __real@3fe6666666666666
  0088c	f2 0f 5a c0	 cvtsd2ss xmm0, xmm0
  00890	51		 push	 ecx
  00891	f3 0f 11 04 24	 movss	 DWORD PTR [esp], xmm0
  00896	6a 7d		 push	 125			; 0000007dH
  00898	e8 00 00 00 00	 call	 ?scale_object_3d_approximation_distances@@YGXHM@Z ; scale_object_3d_approximation_distances

; 944  : 	scale_object_3d_approximation_distances ( OBJECT_3D_AMERICAN_OIL_TANK02,			0.7 * factor );

  0089d	f3 0f 5a 45 08	 cvtss2sd xmm0, DWORD PTR _factor$[ebp]
  008a2	f2 0f 59 05 00
	00 00 00	 mulsd	 xmm0, QWORD PTR __real@3fe6666666666666
  008aa	f2 0f 5a c0	 cvtsd2ss xmm0, xmm0
  008ae	51		 push	 ecx
  008af	f3 0f 11 04 24	 movss	 DWORD PTR [esp], xmm0
  008b4	6a 7f		 push	 127			; 0000007fH
  008b6	e8 00 00 00 00	 call	 ?scale_object_3d_approximation_distances@@YGXHM@Z ; scale_object_3d_approximation_distances

; 945  : 	scale_object_3d_approximation_distances ( OBJECT_3D_AMERICAN_SHED01,					0.7 * factor );

  008bb	f3 0f 5a 45 08	 cvtss2sd xmm0, DWORD PTR _factor$[ebp]
  008c0	f2 0f 59 05 00
	00 00 00	 mulsd	 xmm0, QWORD PTR __real@3fe6666666666666
  008c8	f2 0f 5a c0	 cvtsd2ss xmm0, xmm0
  008cc	51		 push	 ecx
  008cd	f3 0f 11 04 24	 movss	 DWORD PTR [esp], xmm0
  008d2	68 85 00 00 00	 push	 133			; 00000085H
  008d7	e8 00 00 00 00	 call	 ?scale_object_3d_approximation_distances@@YGXHM@Z ; scale_object_3d_approximation_distances

; 946  : 	scale_object_3d_approximation_distances ( OBJECT_3D_AMERICAN_TOWER_BUILDING01,	0.7 * factor );

  008dc	f3 0f 5a 45 08	 cvtss2sd xmm0, DWORD PTR _factor$[ebp]
  008e1	f2 0f 59 05 00
	00 00 00	 mulsd	 xmm0, QWORD PTR __real@3fe6666666666666
  008e9	f2 0f 5a c0	 cvtsd2ss xmm0, xmm0
  008ed	51		 push	 ecx
  008ee	f3 0f 11 04 24	 movss	 DWORD PTR [esp], xmm0
  008f3	68 97 00 00 00	 push	 151			; 00000097H
  008f8	e8 00 00 00 00	 call	 ?scale_object_3d_approximation_distances@@YGXHM@Z ; scale_object_3d_approximation_distances

; 947  : 	scale_object_3d_approximation_distances ( OBJECT_3D_AMERICAN_WATER_TOWER01,		0.7 * factor );

  008fd	f3 0f 5a 45 08	 cvtss2sd xmm0, DWORD PTR _factor$[ebp]
  00902	f2 0f 59 05 00
	00 00 00	 mulsd	 xmm0, QWORD PTR __real@3fe6666666666666
  0090a	f2 0f 5a c0	 cvtsd2ss xmm0, xmm0
  0090e	51		 push	 ecx
  0090f	f3 0f 11 04 24	 movss	 DWORD PTR [esp], xmm0
  00914	68 99 00 00 00	 push	 153			; 00000099H
  00919	e8 00 00 00 00	 call	 ?scale_object_3d_approximation_distances@@YGXHM@Z ; scale_object_3d_approximation_distances

; 948  : 	scale_object_3d_approximation_distances ( OBJECT_3D_AMERICAN_WATER_TOWER02,		0.7 * factor );

  0091e	f3 0f 5a 45 08	 cvtss2sd xmm0, DWORD PTR _factor$[ebp]
  00923	f2 0f 59 05 00
	00 00 00	 mulsd	 xmm0, QWORD PTR __real@3fe6666666666666
  0092b	f2 0f 5a c0	 cvtsd2ss xmm0, xmm0
  0092f	51		 push	 ecx
  00930	f3 0f 11 04 24	 movss	 DWORD PTR [esp], xmm0
  00935	68 9b 00 00 00	 push	 155			; 0000009bH
  0093a	e8 00 00 00 00	 call	 ?scale_object_3d_approximation_distances@@YGXHM@Z ; scale_object_3d_approximation_distances

; 949  : 	scale_object_3d_approximation_distances ( OBJECT_3D_RUSSIAN_AIRPORT01,				0.7 * factor );

  0093f	f3 0f 5a 45 08	 cvtss2sd xmm0, DWORD PTR _factor$[ebp]
  00944	f2 0f 59 05 00
	00 00 00	 mulsd	 xmm0, QWORD PTR __real@3fe6666666666666
  0094c	f2 0f 5a c0	 cvtsd2ss xmm0, xmm0
  00950	51		 push	 ecx
  00951	f3 0f 11 04 24	 movss	 DWORD PTR [esp], xmm0
  00956	68 c3 00 00 00	 push	 195			; 000000c3H
  0095b	e8 00 00 00 00	 call	 ?scale_object_3d_approximation_distances@@YGXHM@Z ; scale_object_3d_approximation_distances

; 950  : 	scale_object_3d_approximation_distances ( OBJECT_3D_RUSSIAN_BUILDING01,				0.7 * factor );

  00960	f3 0f 5a 45 08	 cvtss2sd xmm0, DWORD PTR _factor$[ebp]
  00965	f2 0f 59 05 00
	00 00 00	 mulsd	 xmm0, QWORD PTR __real@3fe6666666666666
  0096d	f2 0f 5a c0	 cvtsd2ss xmm0, xmm0
  00971	51		 push	 ecx
  00972	f3 0f 11 04 24	 movss	 DWORD PTR [esp], xmm0
  00977	68 cf 00 00 00	 push	 207			; 000000cfH
  0097c	e8 00 00 00 00	 call	 ?scale_object_3d_approximation_distances@@YGXHM@Z ; scale_object_3d_approximation_distances

; 951  : 	scale_object_3d_approximation_distances ( OBJECT_3D_RUSSIAN_BUILDING02,				0.7 * factor );

  00981	f3 0f 5a 45 08	 cvtss2sd xmm0, DWORD PTR _factor$[ebp]
  00986	f2 0f 59 05 00
	00 00 00	 mulsd	 xmm0, QWORD PTR __real@3fe6666666666666
  0098e	f2 0f 5a c0	 cvtsd2ss xmm0, xmm0
  00992	51		 push	 ecx
  00993	f3 0f 11 04 24	 movss	 DWORD PTR [esp], xmm0
  00998	68 d1 00 00 00	 push	 209			; 000000d1H
  0099d	e8 00 00 00 00	 call	 ?scale_object_3d_approximation_distances@@YGXHM@Z ; scale_object_3d_approximation_distances

; 952  : 	scale_object_3d_approximation_distances ( OBJECT_3D_RUSSIAN_BUILDING03,				0.7 * factor );

  009a2	f3 0f 5a 45 08	 cvtss2sd xmm0, DWORD PTR _factor$[ebp]
  009a7	f2 0f 59 05 00
	00 00 00	 mulsd	 xmm0, QWORD PTR __real@3fe6666666666666
  009af	f2 0f 5a c0	 cvtsd2ss xmm0, xmm0
  009b3	51		 push	 ecx
  009b4	f3 0f 11 04 24	 movss	 DWORD PTR [esp], xmm0
  009b9	68 d3 00 00 00	 push	 211			; 000000d3H
  009be	e8 00 00 00 00	 call	 ?scale_object_3d_approximation_distances@@YGXHM@Z ; scale_object_3d_approximation_distances

; 953  : 	scale_object_3d_approximation_distances ( OBJECT_3D_RUSSIAN_BUILDING04,				0.7 * factor );

  009c3	f3 0f 5a 45 08	 cvtss2sd xmm0, DWORD PTR _factor$[ebp]
  009c8	f2 0f 59 05 00
	00 00 00	 mulsd	 xmm0, QWORD PTR __real@3fe6666666666666
  009d0	f2 0f 5a c0	 cvtsd2ss xmm0, xmm0
  009d4	51		 push	 ecx
  009d5	f3 0f 11 04 24	 movss	 DWORD PTR [esp], xmm0
  009da	68 d5 00 00 00	 push	 213			; 000000d5H
  009df	e8 00 00 00 00	 call	 ?scale_object_3d_approximation_distances@@YGXHM@Z ; scale_object_3d_approximation_distances

; 954  : 	scale_object_3d_approximation_distances ( OBJECT_3D_RUSSIAN_CONTROL_TOWER01,		0.7 * factor );

  009e4	f3 0f 5a 45 08	 cvtss2sd xmm0, DWORD PTR _factor$[ebp]
  009e9	f2 0f 59 05 00
	00 00 00	 mulsd	 xmm0, QWORD PTR __real@3fe6666666666666
  009f1	f2 0f 5a c0	 cvtsd2ss xmm0, xmm0
  009f5	51		 push	 ecx
  009f6	f3 0f 11 04 24	 movss	 DWORD PTR [esp], xmm0
  009fb	68 d7 00 00 00	 push	 215			; 000000d7H
  00a00	e8 00 00 00 00	 call	 ?scale_object_3d_approximation_distances@@YGXHM@Z ; scale_object_3d_approximation_distances

; 955  : 	scale_object_3d_approximation_distances ( OBJECT_3D_RUSSIAN_FACTORY01,				0.7 * factor );

  00a05	f3 0f 5a 45 08	 cvtss2sd xmm0, DWORD PTR _factor$[ebp]
  00a0a	f2 0f 59 05 00
	00 00 00	 mulsd	 xmm0, QWORD PTR __real@3fe6666666666666
  00a12	f2 0f 5a c0	 cvtsd2ss xmm0, xmm0
  00a16	51		 push	 ecx
  00a17	f3 0f 11 04 24	 movss	 DWORD PTR [esp], xmm0
  00a1c	68 dd 00 00 00	 push	 221			; 000000ddH
  00a21	e8 00 00 00 00	 call	 ?scale_object_3d_approximation_distances@@YGXHM@Z ; scale_object_3d_approximation_distances

; 956  : 	scale_object_3d_approximation_distances ( OBJECT_3D_RUSSIAN_FACTORY02,				0.7 * factor );

  00a26	f3 0f 5a 45 08	 cvtss2sd xmm0, DWORD PTR _factor$[ebp]
  00a2b	f2 0f 59 05 00
	00 00 00	 mulsd	 xmm0, QWORD PTR __real@3fe6666666666666
  00a33	f2 0f 5a c0	 cvtsd2ss xmm0, xmm0
  00a37	51		 push	 ecx
  00a38	f3 0f 11 04 24	 movss	 DWORD PTR [esp], xmm0
  00a3d	68 df 00 00 00	 push	 223			; 000000dfH
  00a42	e8 00 00 00 00	 call	 ?scale_object_3d_approximation_distances@@YGXHM@Z ; scale_object_3d_approximation_distances

; 957  : 	scale_object_3d_approximation_distances ( OBJECT_3D_RUSSIAN_FACTORY03,				0.7 * factor );

  00a47	f3 0f 5a 45 08	 cvtss2sd xmm0, DWORD PTR _factor$[ebp]
  00a4c	f2 0f 59 05 00
	00 00 00	 mulsd	 xmm0, QWORD PTR __real@3fe6666666666666
  00a54	f2 0f 5a c0	 cvtsd2ss xmm0, xmm0
  00a58	51		 push	 ecx
  00a59	f3 0f 11 04 24	 movss	 DWORD PTR [esp], xmm0
  00a5e	68 e1 00 00 00	 push	 225			; 000000e1H
  00a63	e8 00 00 00 00	 call	 ?scale_object_3d_approximation_distances@@YGXHM@Z ; scale_object_3d_approximation_distances

; 958  : 	scale_object_3d_approximation_distances ( OBJECT_3D_RUSSIAN_HANGAR01,				0.7 * factor );

  00a68	f3 0f 5a 45 08	 cvtss2sd xmm0, DWORD PTR _factor$[ebp]
  00a6d	f2 0f 59 05 00
	00 00 00	 mulsd	 xmm0, QWORD PTR __real@3fe6666666666666
  00a75	f2 0f 5a c0	 cvtsd2ss xmm0, xmm0
  00a79	51		 push	 ecx
  00a7a	f3 0f 11 04 24	 movss	 DWORD PTR [esp], xmm0
  00a7f	68 f0 00 00 00	 push	 240			; 000000f0H
  00a84	e8 00 00 00 00	 call	 ?scale_object_3d_approximation_distances@@YGXHM@Z ; scale_object_3d_approximation_distances

; 959  : 	scale_object_3d_approximation_distances ( OBJECT_3D_RUSSIAN_HANGAR02,				0.7 * factor );

  00a89	f3 0f 5a 45 08	 cvtss2sd xmm0, DWORD PTR _factor$[ebp]
  00a8e	f2 0f 59 05 00
	00 00 00	 mulsd	 xmm0, QWORD PTR __real@3fe6666666666666
  00a96	f2 0f 5a c0	 cvtsd2ss xmm0, xmm0
  00a9a	51		 push	 ecx
  00a9b	f3 0f 11 04 24	 movss	 DWORD PTR [esp], xmm0
  00aa0	68 f2 00 00 00	 push	 242			; 000000f2H
  00aa5	e8 00 00 00 00	 call	 ?scale_object_3d_approximation_distances@@YGXHM@Z ; scale_object_3d_approximation_distances

; 960  : 	scale_object_3d_approximation_distances ( OBJECT_3D_RUSSIAN_HANGAR03,				0.7 * factor );

  00aaa	f3 0f 5a 45 08	 cvtss2sd xmm0, DWORD PTR _factor$[ebp]
  00aaf	f2 0f 59 05 00
	00 00 00	 mulsd	 xmm0, QWORD PTR __real@3fe6666666666666
  00ab7	f2 0f 5a c0	 cvtsd2ss xmm0, xmm0
  00abb	51		 push	 ecx
  00abc	f3 0f 11 04 24	 movss	 DWORD PTR [esp], xmm0
  00ac1	68 f4 00 00 00	 push	 244			; 000000f4H
  00ac6	e8 00 00 00 00	 call	 ?scale_object_3d_approximation_distances@@YGXHM@Z ; scale_object_3d_approximation_distances

; 961  : 	scale_object_3d_approximation_distances ( OBJECT_3D_RUSSIAN_HANGAR05,				0.7 * factor );

  00acb	f3 0f 5a 45 08	 cvtss2sd xmm0, DWORD PTR _factor$[ebp]
  00ad0	f2 0f 59 05 00
	00 00 00	 mulsd	 xmm0, QWORD PTR __real@3fe6666666666666
  00ad8	f2 0f 5a c0	 cvtsd2ss xmm0, xmm0
  00adc	51		 push	 ecx
  00add	f3 0f 11 04 24	 movss	 DWORD PTR [esp], xmm0
  00ae2	68 f8 00 00 00	 push	 248			; 000000f8H
  00ae7	e8 00 00 00 00	 call	 ?scale_object_3d_approximation_distances@@YGXHM@Z ; scale_object_3d_approximation_distances

; 962  : 	scale_object_3d_approximation_distances ( OBJECT_3D_RUSSIAN_HANGAR07,				0.7 * factor );

  00aec	f3 0f 5a 45 08	 cvtss2sd xmm0, DWORD PTR _factor$[ebp]
  00af1	f2 0f 59 05 00
	00 00 00	 mulsd	 xmm0, QWORD PTR __real@3fe6666666666666
  00af9	f2 0f 5a c0	 cvtsd2ss xmm0, xmm0
  00afd	51		 push	 ecx
  00afe	f3 0f 11 04 24	 movss	 DWORD PTR [esp], xmm0
  00b03	68 fc 00 00 00	 push	 252			; 000000fcH
  00b08	e8 00 00 00 00	 call	 ?scale_object_3d_approximation_distances@@YGXHM@Z ; scale_object_3d_approximation_distances

; 963  : 	scale_object_3d_approximation_distances ( OBJECT_3D_RUSSIAN_LAMP01,					0.7 * factor );

  00b0d	f3 0f 5a 45 08	 cvtss2sd xmm0, DWORD PTR _factor$[ebp]
  00b12	f2 0f 59 05 00
	00 00 00	 mulsd	 xmm0, QWORD PTR __real@3fe6666666666666
  00b1a	f2 0f 5a c0	 cvtsd2ss xmm0, xmm0
  00b1e	51		 push	 ecx
  00b1f	f3 0f 11 04 24	 movss	 DWORD PTR [esp], xmm0
  00b24	68 02 01 00 00	 push	 258			; 00000102H
  00b29	e8 00 00 00 00	 call	 ?scale_object_3d_approximation_distances@@YGXHM@Z ; scale_object_3d_approximation_distances

; 964  : 	scale_object_3d_approximation_distances ( OBJECT_3D_RUSSIAN_LAMP02,					0.7 * factor );

  00b2e	f3 0f 5a 45 08	 cvtss2sd xmm0, DWORD PTR _factor$[ebp]
  00b33	f2 0f 59 05 00
	00 00 00	 mulsd	 xmm0, QWORD PTR __real@3fe6666666666666
  00b3b	f2 0f 5a c0	 cvtsd2ss xmm0, xmm0
  00b3f	51		 push	 ecx
  00b40	f3 0f 11 04 24	 movss	 DWORD PTR [esp], xmm0
  00b45	68 04 01 00 00	 push	 260			; 00000104H
  00b4a	e8 00 00 00 00	 call	 ?scale_object_3d_approximation_distances@@YGXHM@Z ; scale_object_3d_approximation_distances

; 965  : 	scale_object_3d_approximation_distances ( OBJECT_3D_RUSSIAN_RADAR01,					0.7 * factor );

  00b4f	f3 0f 5a 45 08	 cvtss2sd xmm0, DWORD PTR _factor$[ebp]
  00b54	f2 0f 59 05 00
	00 00 00	 mulsd	 xmm0, QWORD PTR __real@3fe6666666666666
  00b5c	f2 0f 5a c0	 cvtsd2ss xmm0, xmm0
  00b60	51		 push	 ecx
  00b61	f3 0f 11 04 24	 movss	 DWORD PTR [esp], xmm0
  00b66	68 16 01 00 00	 push	 278			; 00000116H
  00b6b	e8 00 00 00 00	 call	 ?scale_object_3d_approximation_distances@@YGXHM@Z ; scale_object_3d_approximation_distances

; 966  : 	scale_object_3d_approximation_distances ( OBJECT_3D_RUSSIAN_SHED01,					0.7 * factor );

  00b70	f3 0f 5a 45 08	 cvtss2sd xmm0, DWORD PTR _factor$[ebp]
  00b75	f2 0f 59 05 00
	00 00 00	 mulsd	 xmm0, QWORD PTR __real@3fe6666666666666
  00b7d	f2 0f 5a c0	 cvtsd2ss xmm0, xmm0
  00b81	51		 push	 ecx
  00b82	f3 0f 11 04 24	 movss	 DWORD PTR [esp], xmm0
  00b87	68 1a 01 00 00	 push	 282			; 0000011aH
  00b8c	e8 00 00 00 00	 call	 ?scale_object_3d_approximation_distances@@YGXHM@Z ; scale_object_3d_approximation_distances

; 967  : 	scale_object_3d_approximation_distances ( OBJECT_3D_RUSSIAN_SHED02,					0.7 * factor );

  00b91	f3 0f 5a 45 08	 cvtss2sd xmm0, DWORD PTR _factor$[ebp]
  00b96	f2 0f 59 05 00
	00 00 00	 mulsd	 xmm0, QWORD PTR __real@3fe6666666666666
  00b9e	f2 0f 5a c0	 cvtsd2ss xmm0, xmm0
  00ba2	51		 push	 ecx
  00ba3	f3 0f 11 04 24	 movss	 DWORD PTR [esp], xmm0
  00ba8	68 1c 01 00 00	 push	 284			; 0000011cH
  00bad	e8 00 00 00 00	 call	 ?scale_object_3d_approximation_distances@@YGXHM@Z ; scale_object_3d_approximation_distances

; 968  : }

  00bb2	5f		 pop	 edi
  00bb3	5e		 pop	 esi
  00bb4	5b		 pop	 ebx
  00bb5	8b e5		 mov	 esp, ebp
  00bb7	5d		 pop	 ebp
  00bb8	c2 04 00	 ret	 4
?modify_3d_objects_approximations@@YGXM@Z ENDP		; modify_3d_objects_approximations
_TEXT	ENDS
; Function compile flags: /Odtp /ZI
; File c:\users\nhv90\projects\eech\aphavoc\source\app3d\3d_init.c
;	COMDAT ?set_application_display_3d_mode@@YGXW4DISPLAY_3D_TINTS@@W4DISPLAY_3D_LIGHT_LEVELS@@W4DISPLAY_3D_NOISE_LEVELS@@@Z
_TEXT	SEGMENT
tv257 = -124						; size = 4
tv230 = -124						; size = 4
tv197 = -124						; size = 4
tv167 = -124						; size = 4
tv137 = -124						; size = 4
tv78 = -124						; size = 4
tv64 = -124						; size = 4
_raw$1 = -56						; size = 4
_interference$2 = -52					; size = 4
_fog_colour$3 = -48					; size = 4
_direction$4 = -44					; size = 12
_main_light$5 = -32					; size = 16
_ambient_light$6 = -16					; size = 16
_tint$ = 8						; size = 4
_light_level$ = 12					; size = 4
_noise_level$ = 16					; size = 4
?set_application_display_3d_mode@@YGXW4DISPLAY_3D_TINTS@@W4DISPLAY_3D_LIGHT_LEVELS@@W4DISPLAY_3D_NOISE_LEVELS@@@Z PROC ; set_application_display_3d_mode, COMDAT

; 975  : {

  00000	55		 push	 ebp
  00001	8b ec		 mov	 ebp, esp
  00003	83 ec 7c	 sub	 esp, 124		; 0000007cH
  00006	53		 push	 ebx
  00007	56		 push	 esi
  00008	57		 push	 edi

; 976  : 
; 977  : 	current_3d_display_tint = tint;

  00009	8b 45 08	 mov	 eax, DWORD PTR _tint$[ebp]
  0000c	a3 00 00 00 00	 mov	 DWORD PTR ?current_3d_display_tint@@3W4DISPLAY_3D_TINTS@@A, eax ; current_3d_display_tint

; 978  : 
; 979  : 	current_3d_light_level = light_level;

  00011	8b 45 0c	 mov	 eax, DWORD PTR _light_level$[ebp]
  00014	a3 00 00 00 00	 mov	 DWORD PTR ?current_3d_light_level@@3W4DISPLAY_3D_LIGHT_LEVELS@@A, eax ; current_3d_light_level

; 980  : 
; 981  : 	current_3d_noise_level = noise_level;

  00019	8b 45 10	 mov	 eax, DWORD PTR _noise_level$[ebp]
  0001c	a3 00 00 00 00	 mov	 DWORD PTR ?current_3d_noise_level@@3W4DISPLAY_3D_NOISE_LEVELS@@A, eax ; current_3d_noise_level

; 982  : 
; 983  : 	switch (tint)

  00021	8b 45 08	 mov	 eax, DWORD PTR _tint$[ebp]
  00024	89 45 84	 mov	 DWORD PTR tv64[ebp], eax
  00027	83 7d 84 0b	 cmp	 DWORD PTR tv64[ebp], 11	; 0000000bH
  0002b	0f 87 f5 0b 00
	00		 ja	 $LN2@set_applic
  00031	8b 4d 84	 mov	 ecx, DWORD PTR tv64[ebp]
  00034	ff 24 8d 00 00
	00 00		 jmp	 DWORD PTR $LN51@set_applic[ecx*4]
$LN16@set_applic:

; 984  : 	{
; 985  : 
; 986  : 		light_colour
; 987  : 			ambient_light,
; 988  : 			main_light;
; 989  : 
; 990  : 		vec3d
; 991  : 			direction;
; 992  : 
; 993  : 		rgb_colour
; 994  : 			fog_colour;
; 995  : 
; 996  : 		case DISPLAY_3D_TINT_CLEAR:
; 997  : 		{
; 998  : 
; 999  : 			//
; 1000 : 			// Set the light modes
; 1001 : 			//
; 1002 : 
; 1003 : 			set_3d_lightmode ( main_3d_env, LIGHTMODE_AUTOMATIC_LIGHT );

  0003b	6a 01		 push	 1
  0003d	a1 00 00 00 00	 mov	 eax, DWORD PTR ?main_3d_env@@3PAUENV_3D@@A ; main_3d_env
  00042	50		 push	 eax
  00043	e8 00 00 00 00	 call	 ?set_3d_lightmode@@YGXPAUENV_3D@@W4LIGHTMODES@@@Z ; set_3d_lightmode

; 1004 : 
; 1005 : 			set_3d_infrared_mode ( main_3d_env, INFRARED_OFF );

  00048	6a 01		 push	 1
  0004a	a1 00 00 00 00	 mov	 eax, DWORD PTR ?main_3d_env@@3PAUENV_3D@@A ; main_3d_env
  0004f	50		 push	 eax
  00050	e8 00 00 00 00	 call	 ?set_3d_infrared_mode@@YGXPAUENV_3D@@W4RENDER_FILTERS@@@Z ; set_3d_infrared_mode

; 1006 : 
; 1007 : 			set_3d_fogmode ( main_3d_env, FOGMODE_ON_AUTOMATIC );

  00055	6a 01		 push	 1
  00057	a1 00 00 00 00	 mov	 eax, DWORD PTR ?main_3d_env@@3PAUENV_3D@@A ; main_3d_env
  0005c	50		 push	 eax
  0005d	e8 00 00 00 00	 call	 ?set_3d_fogmode@@YGXPAUENV_3D@@W4FOGMODES@@@Z ; set_3d_fogmode

; 1008 : 
; 1009 : 			break;

  00062	e9 bf 0b 00 00	 jmp	 $LN2@set_applic
$LN17@set_applic:

; 1010 : 		}
; 1011 : 
; 1012 : 		case DISPLAY_3D_TINT_BLUEGREEN:
; 1013 : 		{
; 1014 : 
; 1015 : 			//
; 1016 : 			// Set the light modes
; 1017 : 			//
; 1018 : 
; 1019 : 			set_3d_lightmode ( main_3d_env, LIGHTMODE_MANUAL_LIGHT );

  00067	6a 02		 push	 2
  00069	a1 00 00 00 00	 mov	 eax, DWORD PTR ?main_3d_env@@3PAUENV_3D@@A ; main_3d_env
  0006e	50		 push	 eax
  0006f	e8 00 00 00 00	 call	 ?set_3d_lightmode@@YGXPAUENV_3D@@W4LIGHTMODES@@@Z ; set_3d_lightmode

; 1020 : 
; 1021 : 			// start russian NVG WITHOUT FLIR by GCsDriver  08-12-2007
; 1022 : 			if(command_line_russian_nvg_no_ir)

  00074	83 3d 00 00 00
	00 00		 cmp	 DWORD PTR ?command_line_russian_nvg_no_ir@@3HA, 0 ; command_line_russian_nvg_no_ir
  0007b	74 0f		 je	 SHORT $LN18@set_applic

; 1023 : 			{
; 1024 : 				set_3d_infrared_mode ( main_3d_env, RENDER_MONOCHROME );

  0007d	6a 03		 push	 3
  0007f	a1 00 00 00 00	 mov	 eax, DWORD PTR ?main_3d_env@@3PAUENV_3D@@A ; main_3d_env
  00084	50		 push	 eax
  00085	e8 00 00 00 00	 call	 ?set_3d_infrared_mode@@YGXPAUENV_3D@@W4RENDER_FILTERS@@@Z ; set_3d_infrared_mode

; 1025 : 			}else{

  0008a	eb 0d		 jmp	 SHORT $LN19@set_applic
$LN18@set_applic:

; 1026 : 				set_3d_infrared_mode ( main_3d_env, INFRARED_ON );

  0008c	6a 02		 push	 2
  0008e	a1 00 00 00 00	 mov	 eax, DWORD PTR ?main_3d_env@@3PAUENV_3D@@A ; main_3d_env
  00093	50		 push	 eax
  00094	e8 00 00 00 00	 call	 ?set_3d_infrared_mode@@YGXPAUENV_3D@@W4RENDER_FILTERS@@@Z ; set_3d_infrared_mode
$LN19@set_applic:

; 1027 : 			}
; 1028 : 			// end russian NVG WITHOUT FLIR by GCsDriver  08-12-2007
; 1029 : 
; 1030 : 			//
; 1031 : 			// Set the light in the scene
; 1032 : 			//
; 1033 : 
; 1034 : 			switch ( current_3d_light_level )

  00099	a1 00 00 00 00	 mov	 eax, DWORD PTR ?current_3d_light_level@@3W4DISPLAY_3D_LIGHT_LEVELS@@A ; current_3d_light_level
  0009e	89 45 84	 mov	 DWORD PTR tv78[ebp], eax
  000a1	83 7d 84 00	 cmp	 DWORD PTR tv78[ebp], 0
  000a5	74 15		 je	 SHORT $LN20@set_applic
  000a7	83 7d 84 01	 cmp	 DWORD PTR tv78[ebp], 1
  000ab	74 58		 je	 SHORT $LN21@set_applic
  000ad	83 7d 84 02	 cmp	 DWORD PTR tv78[ebp], 2
  000b1	0f 84 94 00 00
	00		 je	 $LN22@set_applic
  000b7	e9 d3 00 00 00	 jmp	 $LN4@set_applic
$LN20@set_applic:

; 1035 : 			{
; 1036 : 				// start no red to avoid purple trees by GCsDriver  08-12-2007
; 1037 : 				case DISPLAY_3D_LIGHT_LEVEL_LOW:
; 1038 : 				{
; 1039 : 
; 1040 : 					ambient_light.red = 0.0;

  000bc	0f 57 c0	 xorps	 xmm0, xmm0
  000bf	f3 0f 11 45 f0	 movss	 DWORD PTR _ambient_light$6[ebp], xmm0

; 1041 : 					ambient_light.green = 0.468;

  000c4	f3 0f 10 05 00
	00 00 00	 movss	 xmm0, DWORD PTR __real@3eef9db2
  000cc	f3 0f 11 45 f4	 movss	 DWORD PTR _ambient_light$6[ebp+4], xmm0

; 1042 : 					ambient_light.blue = 0.4;

  000d1	f3 0f 10 05 00
	00 00 00	 movss	 xmm0, DWORD PTR __real@3ecccccd
  000d9	f3 0f 11 45 f8	 movss	 DWORD PTR _ambient_light$6[ebp+8], xmm0

; 1043 : 
; 1044 : 					main_light.red = 0.0;

  000de	0f 57 c0	 xorps	 xmm0, xmm0
  000e1	f3 0f 11 45 e0	 movss	 DWORD PTR _main_light$5[ebp], xmm0

; 1045 : 					main_light.green = 0.15;

  000e6	f3 0f 10 05 00
	00 00 00	 movss	 xmm0, DWORD PTR __real@3e19999a
  000ee	f3 0f 11 45 e4	 movss	 DWORD PTR _main_light$5[ebp+4], xmm0

; 1046 : 					main_light.blue = 0.12;

  000f3	f3 0f 10 05 00
	00 00 00	 movss	 xmm0, DWORD PTR __real@3df5c28f
  000fb	f3 0f 11 45 e8	 movss	 DWORD PTR _main_light$5[ebp+8], xmm0

; 1047 : 
; 1048 : 					break;

  00100	e9 8a 00 00 00	 jmp	 $LN4@set_applic
$LN21@set_applic:

; 1049 : 				}
; 1050 : 
; 1051 : 				case DISPLAY_3D_LIGHT_LEVEL_MEDIUM:
; 1052 : 				{
; 1053 : 
; 1054 : 					ambient_light.red = 0.0;

  00105	0f 57 c0	 xorps	 xmm0, xmm0
  00108	f3 0f 11 45 f0	 movss	 DWORD PTR _ambient_light$6[ebp], xmm0

; 1055 : 					ambient_light.green = 0.574;

  0010d	f3 0f 10 05 00
	00 00 00	 movss	 xmm0, DWORD PTR __real@3f12f1aa
  00115	f3 0f 11 45 f4	 movss	 DWORD PTR _ambient_light$6[ebp+4], xmm0

; 1056 : 					ambient_light.blue = 0.5;

  0011a	f3 0f 10 05 00
	00 00 00	 movss	 xmm0, DWORD PTR __real@3f000000
  00122	f3 0f 11 45 f8	 movss	 DWORD PTR _ambient_light$6[ebp+8], xmm0

; 1057 : 
; 1058 : 					main_light.red = 0.0;

  00127	0f 57 c0	 xorps	 xmm0, xmm0
  0012a	f3 0f 11 45 e0	 movss	 DWORD PTR _main_light$5[ebp], xmm0

; 1059 : 					main_light.green = 0.2;

  0012f	f3 0f 10 05 00
	00 00 00	 movss	 xmm0, DWORD PTR __real@3e4ccccd
  00137	f3 0f 11 45 e4	 movss	 DWORD PTR _main_light$5[ebp+4], xmm0

; 1060 : 					main_light.blue = 0.16;

  0013c	f3 0f 10 05 00
	00 00 00	 movss	 xmm0, DWORD PTR __real@3e23d70a
  00144	f3 0f 11 45 e8	 movss	 DWORD PTR _main_light$5[ebp+8], xmm0

; 1061 : 
; 1062 : 					break;

  00149	eb 44		 jmp	 SHORT $LN4@set_applic
$LN22@set_applic:

; 1063 : 				}
; 1064 : 
; 1065 : 				case DISPLAY_3D_LIGHT_LEVEL_HIGH:
; 1066 : 				{
; 1067 : 					ambient_light.red = 0.0;

  0014b	0f 57 c0	 xorps	 xmm0, xmm0
  0014e	f3 0f 11 45 f0	 movss	 DWORD PTR _ambient_light$6[ebp], xmm0

; 1068 : 					ambient_light.green = 0.7;

  00153	f3 0f 10 05 00
	00 00 00	 movss	 xmm0, DWORD PTR __real@3f333333
  0015b	f3 0f 11 45 f4	 movss	 DWORD PTR _ambient_light$6[ebp+4], xmm0

; 1069 : 					ambient_light.blue = 0.6;

  00160	f3 0f 10 05 00
	00 00 00	 movss	 xmm0, DWORD PTR __real@3f19999a
  00168	f3 0f 11 45 f8	 movss	 DWORD PTR _ambient_light$6[ebp+8], xmm0

; 1070 : 
; 1071 : 					main_light.red = 0.0;

  0016d	0f 57 c0	 xorps	 xmm0, xmm0
  00170	f3 0f 11 45 e0	 movss	 DWORD PTR _main_light$5[ebp], xmm0

; 1072 : 					main_light.green = 0.25;

  00175	f3 0f 10 05 00
	00 00 00	 movss	 xmm0, DWORD PTR __real@3e800000
  0017d	f3 0f 11 45 e4	 movss	 DWORD PTR _main_light$5[ebp+4], xmm0

; 1073 : 					main_light.blue = 0.2;

  00182	f3 0f 10 05 00
	00 00 00	 movss	 xmm0, DWORD PTR __real@3e4ccccd
  0018a	f3 0f 11 45 e8	 movss	 DWORD PTR _main_light$5[ebp+8], xmm0
$LN4@set_applic:

; 1074 : 
; 1075 : 					break;
; 1076 : 				}
; 1077 : 			}
; 1078 : 			// end no red to avoid purple trees by GCsDriver  08-12-2007
; 1079 : 
; 1080 : 			set_3d_ambient_light_source ( main_3d_env, &ambient_light );

  0018f	8d 45 f0	 lea	 eax, DWORD PTR _ambient_light$6[ebp]
  00192	50		 push	 eax
  00193	8b 0d 00 00 00
	00		 mov	 ecx, DWORD PTR ?main_3d_env@@3PAUENV_3D@@A ; main_3d_env
  00199	51		 push	 ecx
  0019a	e8 00 00 00 00	 call	 ?set_3d_ambient_light_source@@YGXPAUENV_3D@@PAULIGHT_COLOUR@@@Z ; set_3d_ambient_light_source

; 1081 : 
; 1082 : 			direction.x = -main_vp.zv.x;

  0019f	f3 0f 10 05 24
	00 00 00	 movss	 xmm0, DWORD PTR ?main_vp@@3UVIEWPOINT@@A+36
  001a7	0f 57 05 00 00
	00 00		 xorps	 xmm0, DWORD PTR __xmm@80000000800000008000000080000000
  001ae	f3 0f 11 45 d4	 movss	 DWORD PTR _direction$4[ebp], xmm0

; 1083 : 			direction.y = -main_vp.zv.y;

  001b3	f3 0f 10 05 28
	00 00 00	 movss	 xmm0, DWORD PTR ?main_vp@@3UVIEWPOINT@@A+40
  001bb	0f 57 05 00 00
	00 00		 xorps	 xmm0, DWORD PTR __xmm@80000000800000008000000080000000
  001c2	f3 0f 11 45 d8	 movss	 DWORD PTR _direction$4[ebp+4], xmm0

; 1084 : 			direction.z = -main_vp.zv.z;

  001c7	f3 0f 10 05 2c
	00 00 00	 movss	 xmm0, DWORD PTR ?main_vp@@3UVIEWPOINT@@A+44
  001cf	0f 57 05 00 00
	00 00		 xorps	 xmm0, DWORD PTR __xmm@80000000800000008000000080000000
  001d6	f3 0f 11 45 dc	 movss	 DWORD PTR _direction$4[ebp+8], xmm0

; 1085 : 
; 1086 : 			set_3d_main_light_source ( main_3d_env, &main_light, &direction, FALSE );

  001db	6a 00		 push	 0
  001dd	8d 45 d4	 lea	 eax, DWORD PTR _direction$4[ebp]
  001e0	50		 push	 eax
  001e1	8d 4d e0	 lea	 ecx, DWORD PTR _main_light$5[ebp]
  001e4	51		 push	 ecx
  001e5	8b 15 00 00 00
	00		 mov	 edx, DWORD PTR ?main_3d_env@@3PAUENV_3D@@A ; main_3d_env
  001eb	52		 push	 edx
  001ec	e8 00 00 00 00	 call	 ?set_3d_main_light_source@@YGXPAUENV_3D@@PAULIGHT_COLOUR@@PAUVEC3D@@H@Z ; set_3d_main_light_source

; 1087 : 
; 1088 : 			//
; 1089 : 			// Set the fogmode
; 1090 : 			//
; 1091 : 
; 1092 : 			set_3d_fogmode ( main_3d_env, FOGMODE_ON_MANUAL );

  001f1	6a 02		 push	 2
  001f3	a1 00 00 00 00	 mov	 eax, DWORD PTR ?main_3d_env@@3PAUENV_3D@@A ; main_3d_env
  001f8	50		 push	 eax
  001f9	e8 00 00 00 00	 call	 ?set_3d_fogmode@@YGXPAUENV_3D@@W4FOGMODES@@@Z ; set_3d_fogmode

; 1093 : 
; 1094 : 			fog_colour.r = ambient_light.red * 128;

  001fe	f3 0f 10 45 f0	 movss	 xmm0, DWORD PTR _ambient_light$6[ebp]
  00203	f3 0f 59 05 00
	00 00 00	 mulss	 xmm0, DWORD PTR __real@43000000
  0020b	f3 0f 2c c0	 cvttss2si eax, xmm0
  0020f	88 45 d2	 mov	 BYTE PTR _fog_colour$3[ebp+2], al

; 1095 : 			fog_colour.g = ambient_light.green * 128;

  00212	f3 0f 10 45 f4	 movss	 xmm0, DWORD PTR _ambient_light$6[ebp+4]
  00217	f3 0f 59 05 00
	00 00 00	 mulss	 xmm0, DWORD PTR __real@43000000
  0021f	f3 0f 2c c0	 cvttss2si eax, xmm0
  00223	88 45 d1	 mov	 BYTE PTR _fog_colour$3[ebp+1], al

; 1096 : 			fog_colour.b = ambient_light.blue * 128;

  00226	f3 0f 10 45 f8	 movss	 xmm0, DWORD PTR _ambient_light$6[ebp+8]
  0022b	f3 0f 59 05 00
	00 00 00	 mulss	 xmm0, DWORD PTR __real@43000000
  00233	f3 0f 2c c0	 cvttss2si eax, xmm0
  00237	88 45 d0	 mov	 BYTE PTR _fog_colour$3[ebp], al

; 1097 : 			fog_colour.a = 0;

  0023a	c6 45 d3 00	 mov	 BYTE PTR _fog_colour$3[ebp+3], 0

; 1098 : 
; 1099 : 			set_3d_fog_colour ( main_3d_env, fog_colour );

  0023e	8b 45 d0	 mov	 eax, DWORD PTR _fog_colour$3[ebp]
  00241	50		 push	 eax
  00242	8b 0d 00 00 00
	00		 mov	 ecx, DWORD PTR ?main_3d_env@@3PAUENV_3D@@A ; main_3d_env
  00248	51		 push	 ecx
  00249	e8 00 00 00 00	 call	 ?set_3d_fog_colour@@YGXPAUENV_3D@@UREAL_COLOUR@@@Z ; set_3d_fog_colour

; 1100 : 
; 1101 : 			break;

  0024e	e9 d3 09 00 00	 jmp	 $LN2@set_applic
$LN23@set_applic:

; 1102 : 			
; 1103 : 		}
; 1104 : 
; 1105 : 		case DISPLAY_3D_TINT_BLUE:
; 1106 : 		{
; 1107 : 
; 1108 : 			//
; 1109 : 			// Set the light modes
; 1110 : 			//
; 1111 : 
; 1112 : 			set_3d_lightmode ( main_3d_env, LIGHTMODE_MANUAL_LIGHT );

  00253	6a 02		 push	 2
  00255	a1 00 00 00 00	 mov	 eax, DWORD PTR ?main_3d_env@@3PAUENV_3D@@A ; main_3d_env
  0025a	50		 push	 eax
  0025b	e8 00 00 00 00	 call	 ?set_3d_lightmode@@YGXPAUENV_3D@@W4LIGHTMODES@@@Z ; set_3d_lightmode

; 1113 : 
; 1114 : 			set_3d_infrared_mode ( main_3d_env, INFRARED_ON );

  00260	6a 02		 push	 2
  00262	a1 00 00 00 00	 mov	 eax, DWORD PTR ?main_3d_env@@3PAUENV_3D@@A ; main_3d_env
  00267	50		 push	 eax
  00268	e8 00 00 00 00	 call	 ?set_3d_infrared_mode@@YGXPAUENV_3D@@W4RENDER_FILTERS@@@Z ; set_3d_infrared_mode

; 1115 : 
; 1116 : 			//
; 1117 : 			// Set the light in the scene
; 1118 : 			//
; 1119 : 
; 1120 : 			switch ( current_3d_light_level )

  0026d	a1 00 00 00 00	 mov	 eax, DWORD PTR ?current_3d_light_level@@3W4DISPLAY_3D_LIGHT_LEVELS@@A ; current_3d_light_level
  00272	89 45 84	 mov	 DWORD PTR tv137[ebp], eax
  00275	83 7d 84 00	 cmp	 DWORD PTR tv137[ebp], 0
  00279	74 15		 je	 SHORT $LN24@set_applic
  0027b	83 7d 84 01	 cmp	 DWORD PTR tv137[ebp], 1
  0027f	74 58		 je	 SHORT $LN25@set_applic
  00281	83 7d 84 02	 cmp	 DWORD PTR tv137[ebp], 2
  00285	0f 84 94 00 00
	00		 je	 $LN26@set_applic
  0028b	e9 dd 00 00 00	 jmp	 $LN6@set_applic
$LN24@set_applic:

; 1121 : 			{
; 1122 : 				case DISPLAY_3D_LIGHT_LEVEL_LOW:
; 1123 : 				{
; 1124 : 
; 1125 : 					ambient_light.red = 0.25;

  00290	f3 0f 10 05 00
	00 00 00	 movss	 xmm0, DWORD PTR __real@3e800000
  00298	f3 0f 11 45 f0	 movss	 DWORD PTR _ambient_light$6[ebp], xmm0

; 1126 : 					ambient_light.green = 0.25;

  0029d	f3 0f 10 05 00
	00 00 00	 movss	 xmm0, DWORD PTR __real@3e800000
  002a5	f3 0f 11 45 f4	 movss	 DWORD PTR _ambient_light$6[ebp+4], xmm0

; 1127 : 					ambient_light.blue = 0.7;

  002aa	f3 0f 10 05 00
	00 00 00	 movss	 xmm0, DWORD PTR __real@3f333333
  002b2	f3 0f 11 45 f8	 movss	 DWORD PTR _ambient_light$6[ebp+8], xmm0

; 1128 : 
; 1129 : 					main_light.red = 0.0;

  002b7	0f 57 c0	 xorps	 xmm0, xmm0
  002ba	f3 0f 11 45 e0	 movss	 DWORD PTR _main_light$5[ebp], xmm0

; 1130 : 					main_light.green = 0.0;

  002bf	0f 57 c0	 xorps	 xmm0, xmm0
  002c2	f3 0f 11 45 e4	 movss	 DWORD PTR _main_light$5[ebp+4], xmm0

; 1131 : 					main_light.blue = 0.2;

  002c7	f3 0f 10 05 00
	00 00 00	 movss	 xmm0, DWORD PTR __real@3e4ccccd
  002cf	f3 0f 11 45 e8	 movss	 DWORD PTR _main_light$5[ebp+8], xmm0

; 1132 : 
; 1133 : 					break;

  002d4	e9 94 00 00 00	 jmp	 $LN6@set_applic
$LN25@set_applic:

; 1134 : 				}
; 1135 : 
; 1136 : 				case DISPLAY_3D_LIGHT_LEVEL_MEDIUM:
; 1137 : 				{
; 1138 : 
; 1139 : 					ambient_light.red = 0.4;

  002d9	f3 0f 10 05 00
	00 00 00	 movss	 xmm0, DWORD PTR __real@3ecccccd
  002e1	f3 0f 11 45 f0	 movss	 DWORD PTR _ambient_light$6[ebp], xmm0

; 1140 : 					ambient_light.green = 0.4;

  002e6	f3 0f 10 05 00
	00 00 00	 movss	 xmm0, DWORD PTR __real@3ecccccd
  002ee	f3 0f 11 45 f4	 movss	 DWORD PTR _ambient_light$6[ebp+4], xmm0

; 1141 : 					ambient_light.blue = 0.8;

  002f3	f3 0f 10 05 00
	00 00 00	 movss	 xmm0, DWORD PTR __real@3f4ccccd
  002fb	f3 0f 11 45 f8	 movss	 DWORD PTR _ambient_light$6[ebp+8], xmm0

; 1142 : 
; 1143 : 					main_light.red = 0.0;

  00300	0f 57 c0	 xorps	 xmm0, xmm0
  00303	f3 0f 11 45 e0	 movss	 DWORD PTR _main_light$5[ebp], xmm0

; 1144 : 					main_light.green = 0.0;

  00308	0f 57 c0	 xorps	 xmm0, xmm0
  0030b	f3 0f 11 45 e4	 movss	 DWORD PTR _main_light$5[ebp+4], xmm0

; 1145 : 					main_light.blue = 0.25;

  00310	f3 0f 10 05 00
	00 00 00	 movss	 xmm0, DWORD PTR __real@3e800000
  00318	f3 0f 11 45 e8	 movss	 DWORD PTR _main_light$5[ebp+8], xmm0

; 1146 : 
; 1147 : 					break;

  0031d	eb 4e		 jmp	 SHORT $LN6@set_applic
$LN26@set_applic:

; 1148 : 				}
; 1149 : 
; 1150 : 				case DISPLAY_3D_LIGHT_LEVEL_HIGH:
; 1151 : 				{
; 1152 : 					ambient_light.red = 0.6;

  0031f	f3 0f 10 05 00
	00 00 00	 movss	 xmm0, DWORD PTR __real@3f19999a
  00327	f3 0f 11 45 f0	 movss	 DWORD PTR _ambient_light$6[ebp], xmm0

; 1153 : 					ambient_light.green = 0.6;

  0032c	f3 0f 10 05 00
	00 00 00	 movss	 xmm0, DWORD PTR __real@3f19999a
  00334	f3 0f 11 45 f4	 movss	 DWORD PTR _ambient_light$6[ebp+4], xmm0

; 1154 : 					ambient_light.blue = 1.0;

  00339	f3 0f 10 05 00
	00 00 00	 movss	 xmm0, DWORD PTR __real@3f800000
  00341	f3 0f 11 45 f8	 movss	 DWORD PTR _ambient_light$6[ebp+8], xmm0

; 1155 : 
; 1156 : 					main_light.red = 0.3;

  00346	f3 0f 10 05 00
	00 00 00	 movss	 xmm0, DWORD PTR __real@3e99999a
  0034e	f3 0f 11 45 e0	 movss	 DWORD PTR _main_light$5[ebp], xmm0

; 1157 : 					main_light.green = 0.3;

  00353	f3 0f 10 05 00
	00 00 00	 movss	 xmm0, DWORD PTR __real@3e99999a
  0035b	f3 0f 11 45 e4	 movss	 DWORD PTR _main_light$5[ebp+4], xmm0

; 1158 : 					main_light.blue = 0.4;

  00360	f3 0f 10 05 00
	00 00 00	 movss	 xmm0, DWORD PTR __real@3ecccccd
  00368	f3 0f 11 45 e8	 movss	 DWORD PTR _main_light$5[ebp+8], xmm0
$LN6@set_applic:

; 1159 : 
; 1160 : 					break;
; 1161 : 				}
; 1162 : 			}
; 1163 : 
; 1164 : 			set_3d_ambient_light_source ( main_3d_env, &ambient_light );

  0036d	8d 45 f0	 lea	 eax, DWORD PTR _ambient_light$6[ebp]
  00370	50		 push	 eax
  00371	8b 0d 00 00 00
	00		 mov	 ecx, DWORD PTR ?main_3d_env@@3PAUENV_3D@@A ; main_3d_env
  00377	51		 push	 ecx
  00378	e8 00 00 00 00	 call	 ?set_3d_ambient_light_source@@YGXPAUENV_3D@@PAULIGHT_COLOUR@@@Z ; set_3d_ambient_light_source

; 1165 : 
; 1166 : 			direction.x = -main_vp.zv.x;

  0037d	f3 0f 10 05 24
	00 00 00	 movss	 xmm0, DWORD PTR ?main_vp@@3UVIEWPOINT@@A+36
  00385	0f 57 05 00 00
	00 00		 xorps	 xmm0, DWORD PTR __xmm@80000000800000008000000080000000
  0038c	f3 0f 11 45 d4	 movss	 DWORD PTR _direction$4[ebp], xmm0

; 1167 : 			direction.y = -main_vp.zv.y;

  00391	f3 0f 10 05 28
	00 00 00	 movss	 xmm0, DWORD PTR ?main_vp@@3UVIEWPOINT@@A+40
  00399	0f 57 05 00 00
	00 00		 xorps	 xmm0, DWORD PTR __xmm@80000000800000008000000080000000
  003a0	f3 0f 11 45 d8	 movss	 DWORD PTR _direction$4[ebp+4], xmm0

; 1168 : 			direction.z = -main_vp.zv.z;

  003a5	f3 0f 10 05 2c
	00 00 00	 movss	 xmm0, DWORD PTR ?main_vp@@3UVIEWPOINT@@A+44
  003ad	0f 57 05 00 00
	00 00		 xorps	 xmm0, DWORD PTR __xmm@80000000800000008000000080000000
  003b4	f3 0f 11 45 dc	 movss	 DWORD PTR _direction$4[ebp+8], xmm0

; 1169 : 
; 1170 : 			set_3d_main_light_source ( main_3d_env, &main_light, &direction, FALSE );

  003b9	6a 00		 push	 0
  003bb	8d 45 d4	 lea	 eax, DWORD PTR _direction$4[ebp]
  003be	50		 push	 eax
  003bf	8d 4d e0	 lea	 ecx, DWORD PTR _main_light$5[ebp]
  003c2	51		 push	 ecx
  003c3	8b 15 00 00 00
	00		 mov	 edx, DWORD PTR ?main_3d_env@@3PAUENV_3D@@A ; main_3d_env
  003c9	52		 push	 edx
  003ca	e8 00 00 00 00	 call	 ?set_3d_main_light_source@@YGXPAUENV_3D@@PAULIGHT_COLOUR@@PAUVEC3D@@H@Z ; set_3d_main_light_source

; 1171 : 
; 1172 : 			//
; 1173 : 			// Set the fogmode
; 1174 : 			//
; 1175 : 
; 1176 : 			set_3d_fogmode ( main_3d_env, FOGMODE_ON_MANUAL );

  003cf	6a 02		 push	 2
  003d1	a1 00 00 00 00	 mov	 eax, DWORD PTR ?main_3d_env@@3PAUENV_3D@@A ; main_3d_env
  003d6	50		 push	 eax
  003d7	e8 00 00 00 00	 call	 ?set_3d_fogmode@@YGXPAUENV_3D@@W4FOGMODES@@@Z ; set_3d_fogmode

; 1177 : 
; 1178 : 			fog_colour.r = ambient_light.red * 128;

  003dc	f3 0f 10 45 f0	 movss	 xmm0, DWORD PTR _ambient_light$6[ebp]
  003e1	f3 0f 59 05 00
	00 00 00	 mulss	 xmm0, DWORD PTR __real@43000000
  003e9	f3 0f 2c c0	 cvttss2si eax, xmm0
  003ed	88 45 d2	 mov	 BYTE PTR _fog_colour$3[ebp+2], al

; 1179 : 			fog_colour.g = ambient_light.green * 128;

  003f0	f3 0f 10 45 f4	 movss	 xmm0, DWORD PTR _ambient_light$6[ebp+4]
  003f5	f3 0f 59 05 00
	00 00 00	 mulss	 xmm0, DWORD PTR __real@43000000
  003fd	f3 0f 2c c0	 cvttss2si eax, xmm0
  00401	88 45 d1	 mov	 BYTE PTR _fog_colour$3[ebp+1], al

; 1180 : 			fog_colour.b = ambient_light.blue * 128;

  00404	f3 0f 10 45 f8	 movss	 xmm0, DWORD PTR _ambient_light$6[ebp+8]
  00409	f3 0f 59 05 00
	00 00 00	 mulss	 xmm0, DWORD PTR __real@43000000
  00411	f3 0f 2c c0	 cvttss2si eax, xmm0
  00415	88 45 d0	 mov	 BYTE PTR _fog_colour$3[ebp], al

; 1181 : 			fog_colour.a = 0;

  00418	c6 45 d3 00	 mov	 BYTE PTR _fog_colour$3[ebp+3], 0

; 1182 : 
; 1183 : 			set_3d_fog_colour ( main_3d_env, fog_colour );

  0041c	8b 45 d0	 mov	 eax, DWORD PTR _fog_colour$3[ebp]
  0041f	50		 push	 eax
  00420	8b 0d 00 00 00
	00		 mov	 ecx, DWORD PTR ?main_3d_env@@3PAUENV_3D@@A ; main_3d_env
  00426	51		 push	 ecx
  00427	e8 00 00 00 00	 call	 ?set_3d_fog_colour@@YGXPAUENV_3D@@UREAL_COLOUR@@@Z ; set_3d_fog_colour

; 1184 : 
; 1185 : 			break;

  0042c	e9 f5 07 00 00	 jmp	 $LN2@set_applic
$LN27@set_applic:

; 1186 : 		}
; 1187 : 
; 1188 : 		case DISPLAY_3D_TINT_AMBER:
; 1189 : 		case DISPLAY_3D_TINT_AMBER_VISUAL:
; 1190 : 		{
; 1191 : 
; 1192 : 			//
; 1193 : 			// Set the light modes
; 1194 : 			//
; 1195 : 
; 1196 : 			set_3d_lightmode ( main_3d_env, LIGHTMODE_MANUAL_LIGHT );

  00431	6a 02		 push	 2
  00433	a1 00 00 00 00	 mov	 eax, DWORD PTR ?main_3d_env@@3PAUENV_3D@@A ; main_3d_env
  00438	50		 push	 eax
  00439	e8 00 00 00 00	 call	 ?set_3d_lightmode@@YGXPAUENV_3D@@W4LIGHTMODES@@@Z ; set_3d_lightmode

; 1197 : 
; 1198 : 			if (tint == DISPLAY_3D_TINT_AMBER_VISUAL)

  0043e	83 7d 08 02	 cmp	 DWORD PTR _tint$[ebp], 2
  00442	75 0f		 jne	 SHORT $LN28@set_applic

; 1199 : 				set_3d_infrared_mode ( main_3d_env, RENDER_MONOCHROME );

  00444	6a 03		 push	 3
  00446	a1 00 00 00 00	 mov	 eax, DWORD PTR ?main_3d_env@@3PAUENV_3D@@A ; main_3d_env
  0044b	50		 push	 eax
  0044c	e8 00 00 00 00	 call	 ?set_3d_infrared_mode@@YGXPAUENV_3D@@W4RENDER_FILTERS@@@Z ; set_3d_infrared_mode

; 1200 : 			else

  00451	eb 0d		 jmp	 SHORT $LN29@set_applic
$LN28@set_applic:

; 1201 : 				set_3d_infrared_mode ( main_3d_env, RENDER_INFRARED );

  00453	6a 02		 push	 2
  00455	a1 00 00 00 00	 mov	 eax, DWORD PTR ?main_3d_env@@3PAUENV_3D@@A ; main_3d_env
  0045a	50		 push	 eax
  0045b	e8 00 00 00 00	 call	 ?set_3d_infrared_mode@@YGXPAUENV_3D@@W4RENDER_FILTERS@@@Z ; set_3d_infrared_mode
$LN29@set_applic:

; 1202 : 
; 1203 : 			//
; 1204 : 			// Set the light in the scene
; 1205 : 			//
; 1206 : 
; 1207 : 			switch ( current_3d_light_level )

  00460	a1 00 00 00 00	 mov	 eax, DWORD PTR ?current_3d_light_level@@3W4DISPLAY_3D_LIGHT_LEVELS@@A ; current_3d_light_level
  00465	89 45 84	 mov	 DWORD PTR tv167[ebp], eax
  00468	83 7d 84 00	 cmp	 DWORD PTR tv167[ebp], 0
  0046c	74 15		 je	 SHORT $LN30@set_applic
  0046e	83 7d 84 01	 cmp	 DWORD PTR tv167[ebp], 1
  00472	74 58		 je	 SHORT $LN31@set_applic
  00474	83 7d 84 02	 cmp	 DWORD PTR tv167[ebp], 2
  00478	0f 84 94 00 00
	00		 je	 $LN32@set_applic
  0047e	e9 d3 00 00 00	 jmp	 $LN8@set_applic
$LN30@set_applic:

; 1208 : 			{
; 1209 : 				// start 3d effect by GCsDriver  08-12-2007
; 1210 : 				case DISPLAY_3D_LIGHT_LEVEL_LOW:
; 1211 : 				{
; 1212 : 
; 1213 : 					ambient_light.red = 0.7;

  00483	f3 0f 10 05 00
	00 00 00	 movss	 xmm0, DWORD PTR __real@3f333333
  0048b	f3 0f 11 45 f0	 movss	 DWORD PTR _ambient_light$6[ebp], xmm0

; 1214 : 					ambient_light.green = 0.35;

  00490	f3 0f 10 05 00
	00 00 00	 movss	 xmm0, DWORD PTR __real@3eb33333
  00498	f3 0f 11 45 f4	 movss	 DWORD PTR _ambient_light$6[ebp+4], xmm0

; 1215 : 					ambient_light.blue = 0.0;

  0049d	0f 57 c0	 xorps	 xmm0, xmm0
  004a0	f3 0f 11 45 f8	 movss	 DWORD PTR _ambient_light$6[ebp+8], xmm0

; 1216 : 
; 1217 : 					main_light.red = 0.24;

  004a5	f3 0f 10 05 00
	00 00 00	 movss	 xmm0, DWORD PTR __real@3e75c28f
  004ad	f3 0f 11 45 e0	 movss	 DWORD PTR _main_light$5[ebp], xmm0

; 1218 : 					main_light.green = 0.12;

  004b2	f3 0f 10 05 00
	00 00 00	 movss	 xmm0, DWORD PTR __real@3df5c28f
  004ba	f3 0f 11 45 e4	 movss	 DWORD PTR _main_light$5[ebp+4], xmm0

; 1219 : 					main_light.blue = 0.0;

  004bf	0f 57 c0	 xorps	 xmm0, xmm0
  004c2	f3 0f 11 45 e8	 movss	 DWORD PTR _main_light$5[ebp+8], xmm0

; 1220 : 
; 1221 : 					break;

  004c7	e9 8a 00 00 00	 jmp	 $LN8@set_applic
$LN31@set_applic:

; 1222 : 				}
; 1223 : 
; 1224 : 				case DISPLAY_3D_LIGHT_LEVEL_MEDIUM:
; 1225 : 				{
; 1226 : 
; 1227 : 					ambient_light.red = 0.9;

  004cc	f3 0f 10 05 00
	00 00 00	 movss	 xmm0, DWORD PTR __real@3f666666
  004d4	f3 0f 11 45 f0	 movss	 DWORD PTR _ambient_light$6[ebp], xmm0

; 1228 : 					ambient_light.green = 0.45;

  004d9	f3 0f 10 05 00
	00 00 00	 movss	 xmm0, DWORD PTR __real@3ee66666
  004e1	f3 0f 11 45 f4	 movss	 DWORD PTR _ambient_light$6[ebp+4], xmm0

; 1229 : 					ambient_light.blue = 0.0;

  004e6	0f 57 c0	 xorps	 xmm0, xmm0
  004e9	f3 0f 11 45 f8	 movss	 DWORD PTR _ambient_light$6[ebp+8], xmm0

; 1230 : 
; 1231 : 					main_light.red = 0.32;

  004ee	f3 0f 10 05 00
	00 00 00	 movss	 xmm0, DWORD PTR __real@3ea3d70a
  004f6	f3 0f 11 45 e0	 movss	 DWORD PTR _main_light$5[ebp], xmm0

; 1232 : 					main_light.green = 0.16;

  004fb	f3 0f 10 05 00
	00 00 00	 movss	 xmm0, DWORD PTR __real@3e23d70a
  00503	f3 0f 11 45 e4	 movss	 DWORD PTR _main_light$5[ebp+4], xmm0

; 1233 : 					main_light.blue = 0.0;

  00508	0f 57 c0	 xorps	 xmm0, xmm0
  0050b	f3 0f 11 45 e8	 movss	 DWORD PTR _main_light$5[ebp+8], xmm0

; 1234 : 
; 1235 : 					break;

  00510	eb 44		 jmp	 SHORT $LN8@set_applic
$LN32@set_applic:

; 1236 : 				}
; 1237 : 
; 1238 : 				case DISPLAY_3D_LIGHT_LEVEL_HIGH:
; 1239 : 				{
; 1240 : 					ambient_light.red = 1.1;

  00512	f3 0f 10 05 00
	00 00 00	 movss	 xmm0, DWORD PTR __real@3f8ccccd
  0051a	f3 0f 11 45 f0	 movss	 DWORD PTR _ambient_light$6[ebp], xmm0

; 1241 : 					ambient_light.green = 0.55;

  0051f	f3 0f 10 05 00
	00 00 00	 movss	 xmm0, DWORD PTR __real@3f0ccccd
  00527	f3 0f 11 45 f4	 movss	 DWORD PTR _ambient_light$6[ebp+4], xmm0

; 1242 : 					ambient_light.blue = 0.0;

  0052c	0f 57 c0	 xorps	 xmm0, xmm0
  0052f	f3 0f 11 45 f8	 movss	 DWORD PTR _ambient_light$6[ebp+8], xmm0

; 1243 : 
; 1244 : 					main_light.red = 0.4;

  00534	f3 0f 10 05 00
	00 00 00	 movss	 xmm0, DWORD PTR __real@3ecccccd
  0053c	f3 0f 11 45 e0	 movss	 DWORD PTR _main_light$5[ebp], xmm0

; 1245 : 					main_light.green = 0.2;

  00541	f3 0f 10 05 00
	00 00 00	 movss	 xmm0, DWORD PTR __real@3e4ccccd
  00549	f3 0f 11 45 e4	 movss	 DWORD PTR _main_light$5[ebp+4], xmm0

; 1246 : 					main_light.blue = 0.0;

  0054e	0f 57 c0	 xorps	 xmm0, xmm0
  00551	f3 0f 11 45 e8	 movss	 DWORD PTR _main_light$5[ebp+8], xmm0
$LN8@set_applic:

; 1247 : 
; 1248 : 					break;
; 1249 : 				}
; 1250 : 
; 1251 : 				// end 3d effect by GCsDriver  08-12-2007
; 1252 : /* buggy
; 1253 : //VJ 060105 extra light level for PNVS
; 1254 : 				case DISPLAY_3D_LIGHT_LEVEL_VERY_HIGH:
; 1255 : 				{
; 1256 : 
; 1257 : 					ambient_light.red = 1.2;
; 1258 : 					ambient_light.green = 1.0;
; 1259 : 					ambient_light.blue = 0.2;
; 1260 : 
; 1261 : 					main_light.red = 0.5;
; 1262 : 					main_light.green = 0.4;
; 1263 : 					main_light.blue = 0.2;
; 1264 : 					break;
; 1265 : 				}
; 1266 : */
; 1267 : 			}
; 1268 : 
; 1269 : 			set_3d_ambient_light_source ( main_3d_env, &ambient_light );

  00556	8d 45 f0	 lea	 eax, DWORD PTR _ambient_light$6[ebp]
  00559	50		 push	 eax
  0055a	8b 0d 00 00 00
	00		 mov	 ecx, DWORD PTR ?main_3d_env@@3PAUENV_3D@@A ; main_3d_env
  00560	51		 push	 ecx
  00561	e8 00 00 00 00	 call	 ?set_3d_ambient_light_source@@YGXPAUENV_3D@@PAULIGHT_COLOUR@@@Z ; set_3d_ambient_light_source

; 1270 : 
; 1271 : 			direction.x = -main_vp.zv.x;

  00566	f3 0f 10 05 24
	00 00 00	 movss	 xmm0, DWORD PTR ?main_vp@@3UVIEWPOINT@@A+36
  0056e	0f 57 05 00 00
	00 00		 xorps	 xmm0, DWORD PTR __xmm@80000000800000008000000080000000
  00575	f3 0f 11 45 d4	 movss	 DWORD PTR _direction$4[ebp], xmm0

; 1272 : 			direction.y = -main_vp.zv.y;

  0057a	f3 0f 10 05 28
	00 00 00	 movss	 xmm0, DWORD PTR ?main_vp@@3UVIEWPOINT@@A+40
  00582	0f 57 05 00 00
	00 00		 xorps	 xmm0, DWORD PTR __xmm@80000000800000008000000080000000
  00589	f3 0f 11 45 d8	 movss	 DWORD PTR _direction$4[ebp+4], xmm0

; 1273 : 			direction.z = -main_vp.zv.z;

  0058e	f3 0f 10 05 2c
	00 00 00	 movss	 xmm0, DWORD PTR ?main_vp@@3UVIEWPOINT@@A+44
  00596	0f 57 05 00 00
	00 00		 xorps	 xmm0, DWORD PTR __xmm@80000000800000008000000080000000
  0059d	f3 0f 11 45 dc	 movss	 DWORD PTR _direction$4[ebp+8], xmm0

; 1274 : 
; 1275 : 			set_3d_main_light_source ( main_3d_env, &main_light, &direction, FALSE );

  005a2	6a 00		 push	 0
  005a4	8d 45 d4	 lea	 eax, DWORD PTR _direction$4[ebp]
  005a7	50		 push	 eax
  005a8	8d 4d e0	 lea	 ecx, DWORD PTR _main_light$5[ebp]
  005ab	51		 push	 ecx
  005ac	8b 15 00 00 00
	00		 mov	 edx, DWORD PTR ?main_3d_env@@3PAUENV_3D@@A ; main_3d_env
  005b2	52		 push	 edx
  005b3	e8 00 00 00 00	 call	 ?set_3d_main_light_source@@YGXPAUENV_3D@@PAULIGHT_COLOUR@@PAUVEC3D@@H@Z ; set_3d_main_light_source

; 1276 : 
; 1277 : 			//
; 1278 : 			// Set the fogmode
; 1279 : 			//
; 1280 : 
; 1281 : 			set_3d_fogmode ( main_3d_env, FOGMODE_ON_MANUAL );

  005b8	6a 02		 push	 2
  005ba	a1 00 00 00 00	 mov	 eax, DWORD PTR ?main_3d_env@@3PAUENV_3D@@A ; main_3d_env
  005bf	50		 push	 eax
  005c0	e8 00 00 00 00	 call	 ?set_3d_fogmode@@YGXPAUENV_3D@@W4FOGMODES@@@Z ; set_3d_fogmode

; 1282 : 
; 1283 : 			fog_colour.r = ambient_light.red * 128;

  005c5	f3 0f 10 45 f0	 movss	 xmm0, DWORD PTR _ambient_light$6[ebp]
  005ca	f3 0f 59 05 00
	00 00 00	 mulss	 xmm0, DWORD PTR __real@43000000
  005d2	f3 0f 2c c0	 cvttss2si eax, xmm0
  005d6	88 45 d2	 mov	 BYTE PTR _fog_colour$3[ebp+2], al

; 1284 : 			fog_colour.g = ambient_light.green * 128;

  005d9	f3 0f 10 45 f4	 movss	 xmm0, DWORD PTR _ambient_light$6[ebp+4]
  005de	f3 0f 59 05 00
	00 00 00	 mulss	 xmm0, DWORD PTR __real@43000000
  005e6	f3 0f 2c c0	 cvttss2si eax, xmm0
  005ea	88 45 d1	 mov	 BYTE PTR _fog_colour$3[ebp+1], al

; 1285 : 			fog_colour.b = ambient_light.blue * 0;

  005ed	f3 0f 10 45 f8	 movss	 xmm0, DWORD PTR _ambient_light$6[ebp+8]
  005f2	f3 0f 59 05 00
	00 00 00	 mulss	 xmm0, DWORD PTR __real@00000000
  005fa	f3 0f 2c c0	 cvttss2si eax, xmm0
  005fe	88 45 d0	 mov	 BYTE PTR _fog_colour$3[ebp], al

; 1286 : 			fog_colour.a = 0;

  00601	c6 45 d3 00	 mov	 BYTE PTR _fog_colour$3[ebp+3], 0

; 1287 : 
; 1288 : 			set_3d_fog_colour ( main_3d_env, fog_colour );

  00605	8b 45 d0	 mov	 eax, DWORD PTR _fog_colour$3[ebp]
  00608	50		 push	 eax
  00609	8b 0d 00 00 00
	00		 mov	 ecx, DWORD PTR ?main_3d_env@@3PAUENV_3D@@A ; main_3d_env
  0060f	51		 push	 ecx
  00610	e8 00 00 00 00	 call	 ?set_3d_fog_colour@@YGXPAUENV_3D@@UREAL_COLOUR@@@Z ; set_3d_fog_colour

; 1289 : 
; 1290 : 			break;

  00615	e9 0c 06 00 00	 jmp	 $LN2@set_applic
$LN33@set_applic:

; 1291 : 		}
; 1292 : 
; 1293 : 		case DISPLAY_3D_TINT_GREEN:
; 1294 : 		case DISPLAY_3D_TINT_GREEN_VISUAL:
; 1295 : 		{
; 1296 : 
; 1297 : 			//
; 1298 : 			// Set the light modes
; 1299 : 			//
; 1300 : 
; 1301 : 			set_3d_lightmode ( main_3d_env, LIGHTMODE_MANUAL_LIGHT );

  0061a	6a 02		 push	 2
  0061c	a1 00 00 00 00	 mov	 eax, DWORD PTR ?main_3d_env@@3PAUENV_3D@@A ; main_3d_env
  00621	50		 push	 eax
  00622	e8 00 00 00 00	 call	 ?set_3d_lightmode@@YGXPAUENV_3D@@W4LIGHTMODES@@@Z ; set_3d_lightmode

; 1302 : 
; 1303 : 			if (tint == DISPLAY_3D_TINT_GREEN_VISUAL)

  00627	83 7d 08 04	 cmp	 DWORD PTR _tint$[ebp], 4
  0062b	75 0f		 jne	 SHORT $LN34@set_applic

; 1304 : 				set_3d_infrared_mode ( main_3d_env, RENDER_MONOCHROME );

  0062d	6a 03		 push	 3
  0062f	a1 00 00 00 00	 mov	 eax, DWORD PTR ?main_3d_env@@3PAUENV_3D@@A ; main_3d_env
  00634	50		 push	 eax
  00635	e8 00 00 00 00	 call	 ?set_3d_infrared_mode@@YGXPAUENV_3D@@W4RENDER_FILTERS@@@Z ; set_3d_infrared_mode

; 1305 : 			else

  0063a	eb 0d		 jmp	 SHORT $LN35@set_applic
$LN34@set_applic:

; 1306 : 				set_3d_infrared_mode ( main_3d_env, RENDER_INFRARED );

  0063c	6a 02		 push	 2
  0063e	a1 00 00 00 00	 mov	 eax, DWORD PTR ?main_3d_env@@3PAUENV_3D@@A ; main_3d_env
  00643	50		 push	 eax
  00644	e8 00 00 00 00	 call	 ?set_3d_infrared_mode@@YGXPAUENV_3D@@W4RENDER_FILTERS@@@Z ; set_3d_infrared_mode
$LN35@set_applic:

; 1307 : 
; 1308 : 			//
; 1309 : 			// Set the light in the scene
; 1310 : 			//
; 1311 : 
; 1312 : 			switch ( current_3d_light_level )

  00649	a1 00 00 00 00	 mov	 eax, DWORD PTR ?current_3d_light_level@@3W4DISPLAY_3D_LIGHT_LEVELS@@A ; current_3d_light_level
  0064e	89 45 84	 mov	 DWORD PTR tv197[ebp], eax
  00651	83 7d 84 00	 cmp	 DWORD PTR tv197[ebp], 0
  00655	74 11		 je	 SHORT $LN36@set_applic
  00657	83 7d 84 01	 cmp	 DWORD PTR tv197[ebp], 1
  0065b	74 47		 je	 SHORT $LN37@set_applic
  0065d	83 7d 84 02	 cmp	 DWORD PTR tv197[ebp], 2
  00661	74 7d		 je	 SHORT $LN38@set_applic
  00663	e9 b2 00 00 00	 jmp	 $LN10@set_applic
$LN36@set_applic:

; 1313 : 			{
; 1314 : 
; 1315 : 				case DISPLAY_3D_LIGHT_LEVEL_LOW:
; 1316 : 				{
; 1317 : 
; 1318 : 					ambient_light.red = 0.0;

  00668	0f 57 c0	 xorps	 xmm0, xmm0
  0066b	f3 0f 11 45 f0	 movss	 DWORD PTR _ambient_light$6[ebp], xmm0

; 1319 : 					ambient_light.green = 0.48;

  00670	f3 0f 10 05 00
	00 00 00	 movss	 xmm0, DWORD PTR __real@3ef5c28f
  00678	f3 0f 11 45 f4	 movss	 DWORD PTR _ambient_light$6[ebp+4], xmm0

; 1320 : 					ambient_light.blue = 0.0;

  0067d	0f 57 c0	 xorps	 xmm0, xmm0
  00680	f3 0f 11 45 f8	 movss	 DWORD PTR _ambient_light$6[ebp+8], xmm0

; 1321 : 
; 1322 : 					main_light.red = 0.0;

  00685	0f 57 c0	 xorps	 xmm0, xmm0
  00688	f3 0f 11 45 e0	 movss	 DWORD PTR _main_light$5[ebp], xmm0

; 1323 : 					main_light.green = 0.12;

  0068d	f3 0f 10 05 00
	00 00 00	 movss	 xmm0, DWORD PTR __real@3df5c28f
  00695	f3 0f 11 45 e4	 movss	 DWORD PTR _main_light$5[ebp+4], xmm0

; 1324 : 					main_light.blue = 0.0;

  0069a	0f 57 c0	 xorps	 xmm0, xmm0
  0069d	f3 0f 11 45 e8	 movss	 DWORD PTR _main_light$5[ebp+8], xmm0

; 1325 : 
; 1326 : 					break;

  006a2	eb 76		 jmp	 SHORT $LN10@set_applic
$LN37@set_applic:

; 1327 : 				}
; 1328 : 
; 1329 : 				case DISPLAY_3D_LIGHT_LEVEL_MEDIUM:
; 1330 : 				{
; 1331 : 
; 1332 : 					ambient_light.red = 0.0;

  006a4	0f 57 c0	 xorps	 xmm0, xmm0
  006a7	f3 0f 11 45 f0	 movss	 DWORD PTR _ambient_light$6[ebp], xmm0

; 1333 : 					ambient_light.green = 0.64;

  006ac	f3 0f 10 05 00
	00 00 00	 movss	 xmm0, DWORD PTR __real@3f23d70a
  006b4	f3 0f 11 45 f4	 movss	 DWORD PTR _ambient_light$6[ebp+4], xmm0

; 1334 : 					ambient_light.blue = 0.0;

  006b9	0f 57 c0	 xorps	 xmm0, xmm0
  006bc	f3 0f 11 45 f8	 movss	 DWORD PTR _ambient_light$6[ebp+8], xmm0

; 1335 : 
; 1336 : 					main_light.red = 0.0;

  006c1	0f 57 c0	 xorps	 xmm0, xmm0
  006c4	f3 0f 11 45 e0	 movss	 DWORD PTR _main_light$5[ebp], xmm0

; 1337 : 					main_light.green = 0.16;

  006c9	f3 0f 10 05 00
	00 00 00	 movss	 xmm0, DWORD PTR __real@3e23d70a
  006d1	f3 0f 11 45 e4	 movss	 DWORD PTR _main_light$5[ebp+4], xmm0

; 1338 : 					main_light.blue = 0.0;

  006d6	0f 57 c0	 xorps	 xmm0, xmm0
  006d9	f3 0f 11 45 e8	 movss	 DWORD PTR _main_light$5[ebp+8], xmm0

; 1339 : 
; 1340 : 					break;

  006de	eb 3a		 jmp	 SHORT $LN10@set_applic
$LN38@set_applic:

; 1341 : 				}
; 1342 : 
; 1343 : 				case DISPLAY_3D_LIGHT_LEVEL_HIGH:
; 1344 : 				{
; 1345 : 
; 1346 : 					ambient_light.red = 0.0;

  006e0	0f 57 c0	 xorps	 xmm0, xmm0
  006e3	f3 0f 11 45 f0	 movss	 DWORD PTR _ambient_light$6[ebp], xmm0

; 1347 : 					ambient_light.green = 0.8;

  006e8	f3 0f 10 05 00
	00 00 00	 movss	 xmm0, DWORD PTR __real@3f4ccccd
  006f0	f3 0f 11 45 f4	 movss	 DWORD PTR _ambient_light$6[ebp+4], xmm0

; 1348 : 					ambient_light.blue = 0.0;

  006f5	0f 57 c0	 xorps	 xmm0, xmm0
  006f8	f3 0f 11 45 f8	 movss	 DWORD PTR _ambient_light$6[ebp+8], xmm0

; 1349 : 
; 1350 : 					main_light.red = 0.0;

  006fd	0f 57 c0	 xorps	 xmm0, xmm0
  00700	f3 0f 11 45 e0	 movss	 DWORD PTR _main_light$5[ebp], xmm0

; 1351 : 					main_light.green = 0.2;

  00705	f3 0f 10 05 00
	00 00 00	 movss	 xmm0, DWORD PTR __real@3e4ccccd
  0070d	f3 0f 11 45 e4	 movss	 DWORD PTR _main_light$5[ebp+4], xmm0

; 1352 : 					main_light.blue = 0.0;

  00712	0f 57 c0	 xorps	 xmm0, xmm0
  00715	f3 0f 11 45 e8	 movss	 DWORD PTR _main_light$5[ebp+8], xmm0
$LN10@set_applic:

; 1353 : 
; 1354 : 					break;
; 1355 : 				}
; 1356 : 			}
; 1357 : 
; 1358 : 			set_3d_ambient_light_source ( main_3d_env, &ambient_light );

  0071a	8d 45 f0	 lea	 eax, DWORD PTR _ambient_light$6[ebp]
  0071d	50		 push	 eax
  0071e	8b 0d 00 00 00
	00		 mov	 ecx, DWORD PTR ?main_3d_env@@3PAUENV_3D@@A ; main_3d_env
  00724	51		 push	 ecx
  00725	e8 00 00 00 00	 call	 ?set_3d_ambient_light_source@@YGXPAUENV_3D@@PAULIGHT_COLOUR@@@Z ; set_3d_ambient_light_source

; 1359 : 
; 1360 : 			direction.x = -visual_3d_vp->zv.x;

  0072a	a1 00 00 00 00	 mov	 eax, DWORD PTR ?visual_3d_vp@@3PAUVIEWPOINT@@A ; visual_3d_vp
  0072f	f3 0f 10 40 24	 movss	 xmm0, DWORD PTR [eax+36]
  00734	0f 57 05 00 00
	00 00		 xorps	 xmm0, DWORD PTR __xmm@80000000800000008000000080000000
  0073b	f3 0f 11 45 d4	 movss	 DWORD PTR _direction$4[ebp], xmm0

; 1361 : 			direction.y = -visual_3d_vp->zv.y;

  00740	a1 00 00 00 00	 mov	 eax, DWORD PTR ?visual_3d_vp@@3PAUVIEWPOINT@@A ; visual_3d_vp
  00745	f3 0f 10 40 28	 movss	 xmm0, DWORD PTR [eax+40]
  0074a	0f 57 05 00 00
	00 00		 xorps	 xmm0, DWORD PTR __xmm@80000000800000008000000080000000
  00751	f3 0f 11 45 d8	 movss	 DWORD PTR _direction$4[ebp+4], xmm0

; 1362 : 			direction.z = -visual_3d_vp->zv.z;

  00756	a1 00 00 00 00	 mov	 eax, DWORD PTR ?visual_3d_vp@@3PAUVIEWPOINT@@A ; visual_3d_vp
  0075b	f3 0f 10 40 2c	 movss	 xmm0, DWORD PTR [eax+44]
  00760	0f 57 05 00 00
	00 00		 xorps	 xmm0, DWORD PTR __xmm@80000000800000008000000080000000
  00767	f3 0f 11 45 dc	 movss	 DWORD PTR _direction$4[ebp+8], xmm0

; 1363 : 
; 1364 : 			set_3d_main_light_source ( main_3d_env, &main_light, &direction, FALSE );

  0076c	6a 00		 push	 0
  0076e	8d 45 d4	 lea	 eax, DWORD PTR _direction$4[ebp]
  00771	50		 push	 eax
  00772	8d 4d e0	 lea	 ecx, DWORD PTR _main_light$5[ebp]
  00775	51		 push	 ecx
  00776	8b 15 00 00 00
	00		 mov	 edx, DWORD PTR ?main_3d_env@@3PAUENV_3D@@A ; main_3d_env
  0077c	52		 push	 edx
  0077d	e8 00 00 00 00	 call	 ?set_3d_main_light_source@@YGXPAUENV_3D@@PAULIGHT_COLOUR@@PAUVEC3D@@H@Z ; set_3d_main_light_source

; 1365 : 
; 1366 : 			//
; 1367 : 			// Set the fogmode
; 1368 : 			//
; 1369 : 
; 1370 : 			set_3d_fogmode ( main_3d_env, FOGMODE_ON_MANUAL );

  00782	6a 02		 push	 2
  00784	a1 00 00 00 00	 mov	 eax, DWORD PTR ?main_3d_env@@3PAUENV_3D@@A ; main_3d_env
  00789	50		 push	 eax
  0078a	e8 00 00 00 00	 call	 ?set_3d_fogmode@@YGXPAUENV_3D@@W4FOGMODES@@@Z ; set_3d_fogmode

; 1371 : 
; 1372 : 			fog_colour.r = ambient_light.red * 0;

  0078f	f3 0f 10 45 f0	 movss	 xmm0, DWORD PTR _ambient_light$6[ebp]
  00794	f3 0f 59 05 00
	00 00 00	 mulss	 xmm0, DWORD PTR __real@00000000
  0079c	f3 0f 2c c0	 cvttss2si eax, xmm0
  007a0	88 45 d2	 mov	 BYTE PTR _fog_colour$3[ebp+2], al

; 1373 : 			fog_colour.g = ambient_light.green * 128;

  007a3	f3 0f 10 45 f4	 movss	 xmm0, DWORD PTR _ambient_light$6[ebp+4]
  007a8	f3 0f 59 05 00
	00 00 00	 mulss	 xmm0, DWORD PTR __real@43000000
  007b0	f3 0f 2c c0	 cvttss2si eax, xmm0
  007b4	88 45 d1	 mov	 BYTE PTR _fog_colour$3[ebp+1], al

; 1374 : 			fog_colour.b = ambient_light.blue * 0;

  007b7	f3 0f 10 45 f8	 movss	 xmm0, DWORD PTR _ambient_light$6[ebp+8]
  007bc	f3 0f 59 05 00
	00 00 00	 mulss	 xmm0, DWORD PTR __real@00000000
  007c4	f3 0f 2c c0	 cvttss2si eax, xmm0
  007c8	88 45 d0	 mov	 BYTE PTR _fog_colour$3[ebp], al

; 1375 : 			fog_colour.a = 0;

  007cb	c6 45 d3 00	 mov	 BYTE PTR _fog_colour$3[ebp+3], 0

; 1376 : 
; 1377 : 			set_3d_fog_colour ( main_3d_env, fog_colour );

  007cf	8b 45 d0	 mov	 eax, DWORD PTR _fog_colour$3[ebp]
  007d2	50		 push	 eax
  007d3	8b 0d 00 00 00
	00		 mov	 ecx, DWORD PTR ?main_3d_env@@3PAUENV_3D@@A ; main_3d_env
  007d9	51		 push	 ecx
  007da	e8 00 00 00 00	 call	 ?set_3d_fog_colour@@YGXPAUENV_3D@@UREAL_COLOUR@@@Z ; set_3d_fog_colour

; 1378 : 
; 1379 : 			break;

  007df	e9 42 04 00 00	 jmp	 $LN2@set_applic
$LN39@set_applic:

; 1380 : 		}
; 1381 : 
; 1382 : 		case DISPLAY_3D_TINT_ORANGE:
; 1383 : 		{
; 1384 : 
; 1385 : 			//
; 1386 : 			// Set the light modes
; 1387 : 			//
; 1388 : 
; 1389 : 			set_3d_lightmode ( main_3d_env, LIGHTMODE_MANUAL_LIGHT );

  007e4	6a 02		 push	 2
  007e6	a1 00 00 00 00	 mov	 eax, DWORD PTR ?main_3d_env@@3PAUENV_3D@@A ; main_3d_env
  007eb	50		 push	 eax
  007ec	e8 00 00 00 00	 call	 ?set_3d_lightmode@@YGXPAUENV_3D@@W4LIGHTMODES@@@Z ; set_3d_lightmode

; 1390 : 
; 1391 : 			set_3d_infrared_mode ( main_3d_env, INFRARED_ON );

  007f1	6a 02		 push	 2
  007f3	a1 00 00 00 00	 mov	 eax, DWORD PTR ?main_3d_env@@3PAUENV_3D@@A ; main_3d_env
  007f8	50		 push	 eax
  007f9	e8 00 00 00 00	 call	 ?set_3d_infrared_mode@@YGXPAUENV_3D@@W4RENDER_FILTERS@@@Z ; set_3d_infrared_mode

; 1392 : 
; 1393 : 			//
; 1394 : 			// Set the light in the scene
; 1395 : 			//
; 1396 : 
; 1397 : 			switch ( current_3d_light_level )

  007fe	a1 00 00 00 00	 mov	 eax, DWORD PTR ?current_3d_light_level@@3W4DISPLAY_3D_LIGHT_LEVELS@@A ; current_3d_light_level
  00803	89 45 84	 mov	 DWORD PTR tv230[ebp], eax
  00806	83 7d 84 00	 cmp	 DWORD PTR tv230[ebp], 0
  0080a	74 15		 je	 SHORT $LN40@set_applic
  0080c	83 7d 84 01	 cmp	 DWORD PTR tv230[ebp], 1
  00810	74 58		 je	 SHORT $LN41@set_applic
  00812	83 7d 84 02	 cmp	 DWORD PTR tv230[ebp], 2
  00816	0f 84 94 00 00
	00		 je	 $LN42@set_applic
  0081c	e9 d3 00 00 00	 jmp	 $LN12@set_applic
$LN40@set_applic:

; 1398 : 			{
; 1399 : 
; 1400 : 				case DISPLAY_3D_LIGHT_LEVEL_LOW:
; 1401 : 				{
; 1402 : 
; 1403 : 					ambient_light.red = 0.6;

  00821	f3 0f 10 05 00
	00 00 00	 movss	 xmm0, DWORD PTR __real@3f19999a
  00829	f3 0f 11 45 f0	 movss	 DWORD PTR _ambient_light$6[ebp], xmm0

; 1404 : 					ambient_light.green = 0.468 * 0.5;

  0082e	f3 0f 10 05 00
	00 00 00	 movss	 xmm0, DWORD PTR __real@3e6f9db2
  00836	f3 0f 11 45 f4	 movss	 DWORD PTR _ambient_light$6[ebp+4], xmm0

; 1405 : 					ambient_light.blue = 0.0;

  0083b	0f 57 c0	 xorps	 xmm0, xmm0
  0083e	f3 0f 11 45 f8	 movss	 DWORD PTR _ambient_light$6[ebp+8], xmm0

; 1406 : 
; 1407 : 					main_light.red = 0.15;

  00843	f3 0f 10 05 00
	00 00 00	 movss	 xmm0, DWORD PTR __real@3e19999a
  0084b	f3 0f 11 45 e0	 movss	 DWORD PTR _main_light$5[ebp], xmm0

; 1408 : 					main_light.green = 0.12 * 0.5;

  00850	f3 0f 10 05 00
	00 00 00	 movss	 xmm0, DWORD PTR __real@3d75c28f
  00858	f3 0f 11 45 e4	 movss	 DWORD PTR _main_light$5[ebp+4], xmm0

; 1409 : 					main_light.blue = 0.0;

  0085d	0f 57 c0	 xorps	 xmm0, xmm0
  00860	f3 0f 11 45 e8	 movss	 DWORD PTR _main_light$5[ebp+8], xmm0

; 1410 : 
; 1411 : 					break;

  00865	e9 8a 00 00 00	 jmp	 $LN12@set_applic
$LN41@set_applic:

; 1412 : 				}
; 1413 : 
; 1414 : 				case DISPLAY_3D_LIGHT_LEVEL_MEDIUM:
; 1415 : 				{
; 1416 : 
; 1417 : 					ambient_light.red = 0.8;

  0086a	f3 0f 10 05 00
	00 00 00	 movss	 xmm0, DWORD PTR __real@3f4ccccd
  00872	f3 0f 11 45 f0	 movss	 DWORD PTR _ambient_light$6[ebp], xmm0

; 1418 : 					ambient_light.green = 0.624 * 0.5;

  00877	f3 0f 10 05 00
	00 00 00	 movss	 xmm0, DWORD PTR __real@3e9fbe77
  0087f	f3 0f 11 45 f4	 movss	 DWORD PTR _ambient_light$6[ebp+4], xmm0

; 1419 : 					ambient_light.blue = 0.0;

  00884	0f 57 c0	 xorps	 xmm0, xmm0
  00887	f3 0f 11 45 f8	 movss	 DWORD PTR _ambient_light$6[ebp+8], xmm0

; 1420 : 
; 1421 : 					main_light.red = 0.2;

  0088c	f3 0f 10 05 00
	00 00 00	 movss	 xmm0, DWORD PTR __real@3e4ccccd
  00894	f3 0f 11 45 e0	 movss	 DWORD PTR _main_light$5[ebp], xmm0

; 1422 : 					main_light.green = 0.16 * 0.5;

  00899	f3 0f 10 05 00
	00 00 00	 movss	 xmm0, DWORD PTR __real@3da3d70a
  008a1	f3 0f 11 45 e4	 movss	 DWORD PTR _main_light$5[ebp+4], xmm0

; 1423 : 					main_light.blue = 0.0;

  008a6	0f 57 c0	 xorps	 xmm0, xmm0
  008a9	f3 0f 11 45 e8	 movss	 DWORD PTR _main_light$5[ebp+8], xmm0

; 1424 : 
; 1425 : 					break;

  008ae	eb 44		 jmp	 SHORT $LN12@set_applic
$LN42@set_applic:

; 1426 : 				}
; 1427 : 
; 1428 : 				case DISPLAY_3D_LIGHT_LEVEL_HIGH:
; 1429 : 				{
; 1430 : 
; 1431 : 					ambient_light.red = 1.0;

  008b0	f3 0f 10 05 00
	00 00 00	 movss	 xmm0, DWORD PTR __real@3f800000
  008b8	f3 0f 11 45 f0	 movss	 DWORD PTR _ambient_light$6[ebp], xmm0

; 1432 : 					ambient_light.green = 0.78 * 0.5;

  008bd	f3 0f 10 05 00
	00 00 00	 movss	 xmm0, DWORD PTR __real@3ec7ae14
  008c5	f3 0f 11 45 f4	 movss	 DWORD PTR _ambient_light$6[ebp+4], xmm0

; 1433 : 					ambient_light.blue = 0.0;

  008ca	0f 57 c0	 xorps	 xmm0, xmm0
  008cd	f3 0f 11 45 f8	 movss	 DWORD PTR _ambient_light$6[ebp+8], xmm0

; 1434 : 
; 1435 : 					main_light.red = 0.25;

  008d2	f3 0f 10 05 00
	00 00 00	 movss	 xmm0, DWORD PTR __real@3e800000
  008da	f3 0f 11 45 e0	 movss	 DWORD PTR _main_light$5[ebp], xmm0

; 1436 : 					main_light.green = 0.2 * 0.5;

  008df	f3 0f 10 05 00
	00 00 00	 movss	 xmm0, DWORD PTR __real@3dcccccd
  008e7	f3 0f 11 45 e4	 movss	 DWORD PTR _main_light$5[ebp+4], xmm0

; 1437 : 					main_light.blue = 0.0;

  008ec	0f 57 c0	 xorps	 xmm0, xmm0
  008ef	f3 0f 11 45 e8	 movss	 DWORD PTR _main_light$5[ebp+8], xmm0
$LN12@set_applic:

; 1438 : 
; 1439 : 					break;
; 1440 : 				}
; 1441 : 			}
; 1442 : 
; 1443 : 			set_3d_ambient_light_source ( main_3d_env, &ambient_light );

  008f4	8d 45 f0	 lea	 eax, DWORD PTR _ambient_light$6[ebp]
  008f7	50		 push	 eax
  008f8	8b 0d 00 00 00
	00		 mov	 ecx, DWORD PTR ?main_3d_env@@3PAUENV_3D@@A ; main_3d_env
  008fe	51		 push	 ecx
  008ff	e8 00 00 00 00	 call	 ?set_3d_ambient_light_source@@YGXPAUENV_3D@@PAULIGHT_COLOUR@@@Z ; set_3d_ambient_light_source

; 1444 : 
; 1445 : 			direction.x = -main_vp.zv.x;

  00904	f3 0f 10 05 24
	00 00 00	 movss	 xmm0, DWORD PTR ?main_vp@@3UVIEWPOINT@@A+36
  0090c	0f 57 05 00 00
	00 00		 xorps	 xmm0, DWORD PTR __xmm@80000000800000008000000080000000
  00913	f3 0f 11 45 d4	 movss	 DWORD PTR _direction$4[ebp], xmm0

; 1446 : 			direction.y = -main_vp.zv.y;

  00918	f3 0f 10 05 28
	00 00 00	 movss	 xmm0, DWORD PTR ?main_vp@@3UVIEWPOINT@@A+40
  00920	0f 57 05 00 00
	00 00		 xorps	 xmm0, DWORD PTR __xmm@80000000800000008000000080000000
  00927	f3 0f 11 45 d8	 movss	 DWORD PTR _direction$4[ebp+4], xmm0

; 1447 : 			direction.z = -main_vp.zv.z;

  0092c	f3 0f 10 05 2c
	00 00 00	 movss	 xmm0, DWORD PTR ?main_vp@@3UVIEWPOINT@@A+44
  00934	0f 57 05 00 00
	00 00		 xorps	 xmm0, DWORD PTR __xmm@80000000800000008000000080000000
  0093b	f3 0f 11 45 dc	 movss	 DWORD PTR _direction$4[ebp+8], xmm0

; 1448 : 
; 1449 : 			set_3d_main_light_source ( main_3d_env, &main_light, &direction, FALSE );

  00940	6a 00		 push	 0
  00942	8d 45 d4	 lea	 eax, DWORD PTR _direction$4[ebp]
  00945	50		 push	 eax
  00946	8d 4d e0	 lea	 ecx, DWORD PTR _main_light$5[ebp]
  00949	51		 push	 ecx
  0094a	8b 15 00 00 00
	00		 mov	 edx, DWORD PTR ?main_3d_env@@3PAUENV_3D@@A ; main_3d_env
  00950	52		 push	 edx
  00951	e8 00 00 00 00	 call	 ?set_3d_main_light_source@@YGXPAUENV_3D@@PAULIGHT_COLOUR@@PAUVEC3D@@H@Z ; set_3d_main_light_source

; 1450 : 
; 1451 : 			//
; 1452 : 			// Set the fogmode
; 1453 : 			//
; 1454 : 
; 1455 : 			set_3d_fogmode ( main_3d_env, FOGMODE_ON_MANUAL );

  00956	6a 02		 push	 2
  00958	a1 00 00 00 00	 mov	 eax, DWORD PTR ?main_3d_env@@3PAUENV_3D@@A ; main_3d_env
  0095d	50		 push	 eax
  0095e	e8 00 00 00 00	 call	 ?set_3d_fogmode@@YGXPAUENV_3D@@W4FOGMODES@@@Z ; set_3d_fogmode

; 1456 : 
; 1457 : 			fog_colour.r = ambient_light.red * 128;

  00963	f3 0f 10 45 f0	 movss	 xmm0, DWORD PTR _ambient_light$6[ebp]
  00968	f3 0f 59 05 00
	00 00 00	 mulss	 xmm0, DWORD PTR __real@43000000
  00970	f3 0f 2c c0	 cvttss2si eax, xmm0
  00974	88 45 d2	 mov	 BYTE PTR _fog_colour$3[ebp+2], al

; 1458 : 			fog_colour.g = ambient_light.green * 128;

  00977	f3 0f 10 45 f4	 movss	 xmm0, DWORD PTR _ambient_light$6[ebp+4]
  0097c	f3 0f 59 05 00
	00 00 00	 mulss	 xmm0, DWORD PTR __real@43000000
  00984	f3 0f 2c c0	 cvttss2si eax, xmm0
  00988	88 45 d1	 mov	 BYTE PTR _fog_colour$3[ebp+1], al

; 1459 : 			fog_colour.b = ambient_light.blue * 128;

  0098b	f3 0f 10 45 f8	 movss	 xmm0, DWORD PTR _ambient_light$6[ebp+8]
  00990	f3 0f 59 05 00
	00 00 00	 mulss	 xmm0, DWORD PTR __real@43000000
  00998	f3 0f 2c c0	 cvttss2si eax, xmm0
  0099c	88 45 d0	 mov	 BYTE PTR _fog_colour$3[ebp], al

; 1460 : 			fog_colour.a = 0;

  0099f	c6 45 d3 00	 mov	 BYTE PTR _fog_colour$3[ebp+3], 0

; 1461 : 
; 1462 : 			set_3d_fog_colour ( main_3d_env, fog_colour );

  009a3	8b 45 d0	 mov	 eax, DWORD PTR _fog_colour$3[ebp]
  009a6	50		 push	 eax
  009a7	8b 0d 00 00 00
	00		 mov	 ecx, DWORD PTR ?main_3d_env@@3PAUENV_3D@@A ; main_3d_env
  009ad	51		 push	 ecx
  009ae	e8 00 00 00 00	 call	 ?set_3d_fog_colour@@YGXPAUENV_3D@@UREAL_COLOUR@@@Z ; set_3d_fog_colour

; 1463 : 
; 1464 : 			break;

  009b3	e9 6e 02 00 00	 jmp	 $LN2@set_applic
$LN43@set_applic:

; 1465 : 		}
; 1466 : 
; 1467 : 		case DISPLAY_3D_TINT_GREY:
; 1468 : 		{
; 1469 : 
; 1470 : 			//
; 1471 : 			// Set the light modes
; 1472 : 			//
; 1473 : 
; 1474 : 			set_3d_lightmode ( main_3d_env, LIGHTMODE_MANUAL_LIGHT );

  009b8	6a 02		 push	 2
  009ba	a1 00 00 00 00	 mov	 eax, DWORD PTR ?main_3d_env@@3PAUENV_3D@@A ; main_3d_env
  009bf	50		 push	 eax
  009c0	e8 00 00 00 00	 call	 ?set_3d_lightmode@@YGXPAUENV_3D@@W4LIGHTMODES@@@Z ; set_3d_lightmode

; 1475 : 
; 1476 : 			set_3d_infrared_mode ( main_3d_env, RENDER_INFRARED );

  009c5	6a 02		 push	 2
  009c7	a1 00 00 00 00	 mov	 eax, DWORD PTR ?main_3d_env@@3PAUENV_3D@@A ; main_3d_env
  009cc	50		 push	 eax
  009cd	e8 00 00 00 00	 call	 ?set_3d_infrared_mode@@YGXPAUENV_3D@@W4RENDER_FILTERS@@@Z ; set_3d_infrared_mode

; 1477 : 
; 1478 : 			//
; 1479 : 			// Set the light in the scene
; 1480 : 			//
; 1481 : 
; 1482 : 			switch ( current_3d_light_level )

  009d2	a1 00 00 00 00	 mov	 eax, DWORD PTR ?current_3d_light_level@@3W4DISPLAY_3D_LIGHT_LEVELS@@A ; current_3d_light_level
  009d7	89 45 84	 mov	 DWORD PTR tv257[ebp], eax
  009da	83 7d 84 00	 cmp	 DWORD PTR tv257[ebp], 0
  009de	74 15		 je	 SHORT $LN44@set_applic
  009e0	83 7d 84 01	 cmp	 DWORD PTR tv257[ebp], 1
  009e4	74 62		 je	 SHORT $LN45@set_applic
  009e6	83 7d 84 02	 cmp	 DWORD PTR tv257[ebp], 2
  009ea	0f 84 a8 00 00
	00		 je	 $LN46@set_applic
  009f0	e9 f1 00 00 00	 jmp	 $LN14@set_applic
$LN44@set_applic:

; 1483 : 			{
; 1484 : 
; 1485 : 				case DISPLAY_3D_LIGHT_LEVEL_LOW:
; 1486 : 				{
; 1487 : 
; 1488 : 					ambient_light.red = 0.48;

  009f5	f3 0f 10 05 00
	00 00 00	 movss	 xmm0, DWORD PTR __real@3ef5c28f
  009fd	f3 0f 11 45 f0	 movss	 DWORD PTR _ambient_light$6[ebp], xmm0

; 1489 : 					ambient_light.green = 0.48;

  00a02	f3 0f 10 05 00
	00 00 00	 movss	 xmm0, DWORD PTR __real@3ef5c28f
  00a0a	f3 0f 11 45 f4	 movss	 DWORD PTR _ambient_light$6[ebp+4], xmm0

; 1490 : 					ambient_light.blue = 0.48;

  00a0f	f3 0f 10 05 00
	00 00 00	 movss	 xmm0, DWORD PTR __real@3ef5c28f
  00a17	f3 0f 11 45 f8	 movss	 DWORD PTR _ambient_light$6[ebp+8], xmm0

; 1491 : 
; 1492 : 					main_light.red = 0.12;

  00a1c	f3 0f 10 05 00
	00 00 00	 movss	 xmm0, DWORD PTR __real@3df5c28f
  00a24	f3 0f 11 45 e0	 movss	 DWORD PTR _main_light$5[ebp], xmm0

; 1493 : 					main_light.green = 0.12;

  00a29	f3 0f 10 05 00
	00 00 00	 movss	 xmm0, DWORD PTR __real@3df5c28f
  00a31	f3 0f 11 45 e4	 movss	 DWORD PTR _main_light$5[ebp+4], xmm0

; 1494 : 					main_light.blue = 0.12;

  00a36	f3 0f 10 05 00
	00 00 00	 movss	 xmm0, DWORD PTR __real@3df5c28f
  00a3e	f3 0f 11 45 e8	 movss	 DWORD PTR _main_light$5[ebp+8], xmm0

; 1495 : 
; 1496 : 					break;

  00a43	e9 9e 00 00 00	 jmp	 $LN14@set_applic
$LN45@set_applic:

; 1497 : 				}
; 1498 : 
; 1499 : 				case DISPLAY_3D_LIGHT_LEVEL_MEDIUM:
; 1500 : 				{
; 1501 : 
; 1502 : 					ambient_light.red = 0.64;

  00a48	f3 0f 10 05 00
	00 00 00	 movss	 xmm0, DWORD PTR __real@3f23d70a
  00a50	f3 0f 11 45 f0	 movss	 DWORD PTR _ambient_light$6[ebp], xmm0

; 1503 : 					ambient_light.green = 0.64;

  00a55	f3 0f 10 05 00
	00 00 00	 movss	 xmm0, DWORD PTR __real@3f23d70a
  00a5d	f3 0f 11 45 f4	 movss	 DWORD PTR _ambient_light$6[ebp+4], xmm0

; 1504 : 					ambient_light.blue = 0.64;

  00a62	f3 0f 10 05 00
	00 00 00	 movss	 xmm0, DWORD PTR __real@3f23d70a
  00a6a	f3 0f 11 45 f8	 movss	 DWORD PTR _ambient_light$6[ebp+8], xmm0

; 1505 : 
; 1506 : 					main_light.red = 0.16;

  00a6f	f3 0f 10 05 00
	00 00 00	 movss	 xmm0, DWORD PTR __real@3e23d70a
  00a77	f3 0f 11 45 e0	 movss	 DWORD PTR _main_light$5[ebp], xmm0

; 1507 : 					main_light.green = 0.16;

  00a7c	f3 0f 10 05 00
	00 00 00	 movss	 xmm0, DWORD PTR __real@3e23d70a
  00a84	f3 0f 11 45 e4	 movss	 DWORD PTR _main_light$5[ebp+4], xmm0

; 1508 : 					main_light.blue = 0.16;

  00a89	f3 0f 10 05 00
	00 00 00	 movss	 xmm0, DWORD PTR __real@3e23d70a
  00a91	f3 0f 11 45 e8	 movss	 DWORD PTR _main_light$5[ebp+8], xmm0

; 1509 : 
; 1510 : 					break;

  00a96	eb 4e		 jmp	 SHORT $LN14@set_applic
$LN46@set_applic:

; 1511 : 				}
; 1512 : 
; 1513 : 				case DISPLAY_3D_LIGHT_LEVEL_HIGH:
; 1514 : 				{
; 1515 : 
; 1516 : 					ambient_light.red = 0.8;

  00a98	f3 0f 10 05 00
	00 00 00	 movss	 xmm0, DWORD PTR __real@3f4ccccd
  00aa0	f3 0f 11 45 f0	 movss	 DWORD PTR _ambient_light$6[ebp], xmm0

; 1517 : 					ambient_light.green = 0.8;

  00aa5	f3 0f 10 05 00
	00 00 00	 movss	 xmm0, DWORD PTR __real@3f4ccccd
  00aad	f3 0f 11 45 f4	 movss	 DWORD PTR _ambient_light$6[ebp+4], xmm0

; 1518 : 					ambient_light.blue = 0.8;

  00ab2	f3 0f 10 05 00
	00 00 00	 movss	 xmm0, DWORD PTR __real@3f4ccccd
  00aba	f3 0f 11 45 f8	 movss	 DWORD PTR _ambient_light$6[ebp+8], xmm0

; 1519 : 
; 1520 : 					main_light.red = 0.2;

  00abf	f3 0f 10 05 00
	00 00 00	 movss	 xmm0, DWORD PTR __real@3e4ccccd
  00ac7	f3 0f 11 45 e0	 movss	 DWORD PTR _main_light$5[ebp], xmm0

; 1521 : 					main_light.green = 0.2;

  00acc	f3 0f 10 05 00
	00 00 00	 movss	 xmm0, DWORD PTR __real@3e4ccccd
  00ad4	f3 0f 11 45 e4	 movss	 DWORD PTR _main_light$5[ebp+4], xmm0

; 1522 : 					main_light.blue = 0.2;

  00ad9	f3 0f 10 05 00
	00 00 00	 movss	 xmm0, DWORD PTR __real@3e4ccccd
  00ae1	f3 0f 11 45 e8	 movss	 DWORD PTR _main_light$5[ebp+8], xmm0
$LN14@set_applic:

; 1523 : 
; 1524 : 					break;
; 1525 : 				}
; 1526 : 			}
; 1527 : /*			switch ( current_3d_light_level )
; 1528 : 			{
; 1529 : 
; 1530 : 				case DISPLAY_3D_LIGHT_LEVEL_LOW:
; 1531 : 				{
; 1532 : 
; 1533 : 					ambient_light.red = 0.0;
; 1534 : 					ambient_light.green = 0.48;
; 1535 : 					ambient_light.blue = 0.0;
; 1536 : 
; 1537 : 					main_light.red = 0.0;
; 1538 : 					main_light.green = 0.12;
; 1539 : 					main_light.blue = 0.0;
; 1540 : 
; 1541 : 					break;
; 1542 : 				}
; 1543 : 
; 1544 : 				case DISPLAY_3D_LIGHT_LEVEL_MEDIUM:
; 1545 : 				{
; 1546 : 
; 1547 : 					ambient_light.red = 0.0;
; 1548 : 					ambient_light.green = 0.64;
; 1549 : 					ambient_light.blue = 0.0;
; 1550 : 
; 1551 : 					main_light.red = 0.0;
; 1552 : 					main_light.green = 0.16;
; 1553 : 					main_light.blue = 0.0;
; 1554 : 
; 1555 : 					break;
; 1556 : 				}
; 1557 : 
; 1558 : 				case DISPLAY_3D_LIGHT_LEVEL_HIGH:
; 1559 : 				{
; 1560 : 
; 1561 : 					ambient_light.red = 0.0;
; 1562 : 					ambient_light.green = 0.8;
; 1563 : 					ambient_light.blue = 0.0;
; 1564 : 
; 1565 : 					main_light.red = 0.0;
; 1566 : 					main_light.green = 0.2;
; 1567 : 					main_light.blue = 0.0;
; 1568 : 
; 1569 : 					break;
; 1570 : 				}
; 1571 : 			}
; 1572 : */
; 1573 : 			set_3d_ambient_light_source ( main_3d_env, &ambient_light );

  00ae6	8d 45 f0	 lea	 eax, DWORD PTR _ambient_light$6[ebp]
  00ae9	50		 push	 eax
  00aea	8b 0d 00 00 00
	00		 mov	 ecx, DWORD PTR ?main_3d_env@@3PAUENV_3D@@A ; main_3d_env
  00af0	51		 push	 ecx
  00af1	e8 00 00 00 00	 call	 ?set_3d_ambient_light_source@@YGXPAUENV_3D@@PAULIGHT_COLOUR@@@Z ; set_3d_ambient_light_source

; 1574 : 
; 1575 : 			direction.x = -visual_3d_vp->zv.x;

  00af6	a1 00 00 00 00	 mov	 eax, DWORD PTR ?visual_3d_vp@@3PAUVIEWPOINT@@A ; visual_3d_vp
  00afb	f3 0f 10 40 24	 movss	 xmm0, DWORD PTR [eax+36]
  00b00	0f 57 05 00 00
	00 00		 xorps	 xmm0, DWORD PTR __xmm@80000000800000008000000080000000
  00b07	f3 0f 11 45 d4	 movss	 DWORD PTR _direction$4[ebp], xmm0

; 1576 : 			direction.y = -visual_3d_vp->zv.y;

  00b0c	a1 00 00 00 00	 mov	 eax, DWORD PTR ?visual_3d_vp@@3PAUVIEWPOINT@@A ; visual_3d_vp
  00b11	f3 0f 10 40 28	 movss	 xmm0, DWORD PTR [eax+40]
  00b16	0f 57 05 00 00
	00 00		 xorps	 xmm0, DWORD PTR __xmm@80000000800000008000000080000000
  00b1d	f3 0f 11 45 d8	 movss	 DWORD PTR _direction$4[ebp+4], xmm0

; 1577 : 			direction.z = -visual_3d_vp->zv.z;

  00b22	a1 00 00 00 00	 mov	 eax, DWORD PTR ?visual_3d_vp@@3PAUVIEWPOINT@@A ; visual_3d_vp
  00b27	f3 0f 10 40 2c	 movss	 xmm0, DWORD PTR [eax+44]
  00b2c	0f 57 05 00 00
	00 00		 xorps	 xmm0, DWORD PTR __xmm@80000000800000008000000080000000
  00b33	f3 0f 11 45 dc	 movss	 DWORD PTR _direction$4[ebp+8], xmm0

; 1578 : 
; 1579 : 			set_3d_main_light_source ( main_3d_env, &main_light, &direction, FALSE );

  00b38	6a 00		 push	 0
  00b3a	8d 45 d4	 lea	 eax, DWORD PTR _direction$4[ebp]
  00b3d	50		 push	 eax
  00b3e	8d 4d e0	 lea	 ecx, DWORD PTR _main_light$5[ebp]
  00b41	51		 push	 ecx
  00b42	8b 15 00 00 00
	00		 mov	 edx, DWORD PTR ?main_3d_env@@3PAUENV_3D@@A ; main_3d_env
  00b48	52		 push	 edx
  00b49	e8 00 00 00 00	 call	 ?set_3d_main_light_source@@YGXPAUENV_3D@@PAULIGHT_COLOUR@@PAUVEC3D@@H@Z ; set_3d_main_light_source

; 1580 : 
; 1581 : 			//
; 1582 : 			// Set the fogmode
; 1583 : 			//
; 1584 : 
; 1585 : 			set_3d_fogmode ( main_3d_env, FOGMODE_ON_MANUAL );

  00b4e	6a 02		 push	 2
  00b50	a1 00 00 00 00	 mov	 eax, DWORD PTR ?main_3d_env@@3PAUENV_3D@@A ; main_3d_env
  00b55	50		 push	 eax
  00b56	e8 00 00 00 00	 call	 ?set_3d_fogmode@@YGXPAUENV_3D@@W4FOGMODES@@@Z ; set_3d_fogmode

; 1586 : 
; 1587 : 			fog_colour.r = ambient_light.red * 128;

  00b5b	f3 0f 10 45 f0	 movss	 xmm0, DWORD PTR _ambient_light$6[ebp]
  00b60	f3 0f 59 05 00
	00 00 00	 mulss	 xmm0, DWORD PTR __real@43000000
  00b68	f3 0f 2c c0	 cvttss2si eax, xmm0
  00b6c	88 45 d2	 mov	 BYTE PTR _fog_colour$3[ebp+2], al

; 1588 : 			fog_colour.g = ambient_light.green * 128;

  00b6f	f3 0f 10 45 f4	 movss	 xmm0, DWORD PTR _ambient_light$6[ebp+4]
  00b74	f3 0f 59 05 00
	00 00 00	 mulss	 xmm0, DWORD PTR __real@43000000
  00b7c	f3 0f 2c c0	 cvttss2si eax, xmm0
  00b80	88 45 d1	 mov	 BYTE PTR _fog_colour$3[ebp+1], al

; 1589 : 			fog_colour.b = ambient_light.blue * 128;

  00b83	f3 0f 10 45 f8	 movss	 xmm0, DWORD PTR _ambient_light$6[ebp+8]
  00b88	f3 0f 59 05 00
	00 00 00	 mulss	 xmm0, DWORD PTR __real@43000000
  00b90	f3 0f 2c c0	 cvttss2si eax, xmm0
  00b94	88 45 d0	 mov	 BYTE PTR _fog_colour$3[ebp], al

; 1590 : 
; 1591 : 			fog_colour.a = 0;

  00b97	c6 45 d3 00	 mov	 BYTE PTR _fog_colour$3[ebp+3], 0

; 1592 : 
; 1593 : 			set_3d_fog_colour ( main_3d_env, fog_colour );

  00b9b	8b 45 d0	 mov	 eax, DWORD PTR _fog_colour$3[ebp]
  00b9e	50		 push	 eax
  00b9f	8b 0d 00 00 00
	00		 mov	 ecx, DWORD PTR ?main_3d_env@@3PAUENV_3D@@A ; main_3d_env
  00ba5	51		 push	 ecx
  00ba6	e8 00 00 00 00	 call	 ?set_3d_fog_colour@@YGXPAUENV_3D@@UREAL_COLOUR@@@Z ; set_3d_fog_colour

; 1594 : 
; 1595 : 			break;

  00bab	eb 79		 jmp	 SHORT $LN2@set_applic
$LN47@set_applic:

; 1596 : 		}
; 1597 : 
; 1598 : 		// Jabberwock 031009 Satellite tint for satellite view
; 1599 : 		case DISPLAY_3D_TINT_BLUE_HAZE:
; 1600 : 		{
; 1601 : 			
; 1602 : 			int
; 1603 : 				interference;
; 1604 : 				
; 1605 : 			camera
; 1606 : 				*raw;
; 1607 : 				
; 1608 : 			
; 1609 : 			//
; 1610 : 			// Set the light modes
; 1611 : 			//
; 1612 : 
; 1613 : 			set_3d_lightmode ( main_3d_env, LIGHTMODE_AUTOMATIC_LIGHT );

  00bad	6a 01		 push	 1
  00baf	a1 00 00 00 00	 mov	 eax, DWORD PTR ?main_3d_env@@3PAUENV_3D@@A ; main_3d_env
  00bb4	50		 push	 eax
  00bb5	e8 00 00 00 00	 call	 ?set_3d_lightmode@@YGXPAUENV_3D@@W4LIGHTMODES@@@Z ; set_3d_lightmode

; 1614 : 
; 1615 : 			set_3d_infrared_mode ( main_3d_env, INFRARED_OFF );

  00bba	6a 01		 push	 1
  00bbc	a1 00 00 00 00	 mov	 eax, DWORD PTR ?main_3d_env@@3PAUENV_3D@@A ; main_3d_env
  00bc1	50		 push	 eax
  00bc2	e8 00 00 00 00	 call	 ?set_3d_infrared_mode@@YGXPAUENV_3D@@W4RENDER_FILTERS@@@Z ; set_3d_infrared_mode

; 1616 : 	
; 1617 : 			//
; 1618 : 			// Set the fogmode
; 1619 : 			//
; 1620 : 
; 1621 : 			set_3d_fogmode ( main_3d_env, FOGMODE_ON_MANUAL );

  00bc7	6a 02		 push	 2
  00bc9	a1 00 00 00 00	 mov	 eax, DWORD PTR ?main_3d_env@@3PAUENV_3D@@A ; main_3d_env
  00bce	50		 push	 eax
  00bcf	e8 00 00 00 00	 call	 ?set_3d_fogmode@@YGXPAUENV_3D@@W4FOGMODES@@@Z ; set_3d_fogmode

; 1622 : 
; 1623 : 			raw = (camera *) get_local_entity_data (get_camera_entity ());

  00bd4	a1 00 00 00 00	 mov	 eax, DWORD PTR ?camera_entity@@3PAUENTITY@@A ; camera_entity
  00bd9	8b 48 04	 mov	 ecx, DWORD PTR [eax+4]
  00bdc	89 4d c8	 mov	 DWORD PTR _raw$1[ebp], ecx

; 1624 : 						
; 1625 : 			interference = raw->fly_by_camera_timer;

  00bdf	8b 45 c8	 mov	 eax, DWORD PTR _raw$1[ebp]
  00be2	f3 0f 2c 88 90
	00 00 00	 cvttss2si ecx, DWORD PTR [eax+144]
  00bea	89 4d cc	 mov	 DWORD PTR _interference$2[ebp], ecx

; 1626 : 
; 1627 : 			if (interference < 180)

  00bed	81 7d cc b4 00
	00 00		 cmp	 DWORD PTR _interference$2[ebp], 180 ; 000000b4H
  00bf4	7d 0e		 jge	 SHORT $LN48@set_applic

; 1628 : 			{
; 1629 : 				fog_colour.r = 32;

  00bf6	c6 45 d2 20	 mov	 BYTE PTR _fog_colour$3[ebp+2], 32 ; 00000020H

; 1630 : 				fog_colour.g = 64;

  00bfa	c6 45 d1 40	 mov	 BYTE PTR _fog_colour$3[ebp+1], 64 ; 00000040H

; 1631 : 				fog_colour.b = 96;

  00bfe	c6 45 d0 60	 mov	 BYTE PTR _fog_colour$3[ebp], 96 ; 00000060H

; 1632 : 			}
; 1633 : 			else

  00c02	eb 0c		 jmp	 SHORT $LN49@set_applic
$LN48@set_applic:

; 1634 : 			{
; 1635 : 				fog_colour.r = 255;

  00c04	c6 45 d2 ff	 mov	 BYTE PTR _fog_colour$3[ebp+2], 255 ; 000000ffH

; 1636 : 				fog_colour.g = 255;

  00c08	c6 45 d1 ff	 mov	 BYTE PTR _fog_colour$3[ebp+1], 255 ; 000000ffH

; 1637 : 				fog_colour.b = 255;

  00c0c	c6 45 d0 ff	 mov	 BYTE PTR _fog_colour$3[ebp], 255 ; 000000ffH
$LN49@set_applic:

; 1638 : 			}
; 1639 : 			
; 1640 : 			
; 1641 : 			//if (interference < 150)
; 1642 : 			//{
; 1643 : 				//fog_colour.a = frand1() * 40 + 150;
; 1644 : 			//	fog_colour.a += 1;
; 1645 : 			//}
; 1646 : 			//else
; 1647 : 			//{
; 1648 : 				fog_colour.a = interference;

  00c10	8a 45 cc	 mov	 al, BYTE PTR _interference$2[ebp]
  00c13	88 45 d3	 mov	 BYTE PTR _fog_colour$3[ebp+3], al

; 1649 : 			//}
; 1650 : 
; 1651 : 	
; 1652 : 			set_3d_fog_colour ( main_3d_env, fog_colour );

  00c16	8b 45 d0	 mov	 eax, DWORD PTR _fog_colour$3[ebp]
  00c19	50		 push	 eax
  00c1a	8b 0d 00 00 00
	00		 mov	 ecx, DWORD PTR ?main_3d_env@@3PAUENV_3D@@A ; main_3d_env
  00c20	51		 push	 ecx
  00c21	e8 00 00 00 00	 call	 ?set_3d_fog_colour@@YGXPAUENV_3D@@UREAL_COLOUR@@@Z ; set_3d_fog_colour
$LN2@set_applic:

; 1653 : 
; 1654 : 			break;
; 1655 : 		}
; 1656 : 	}
; 1657 : // Jabberwock 031009 ends
; 1658 : }

  00c26	5f		 pop	 edi
  00c27	5e		 pop	 esi
  00c28	5b		 pop	 ebx
  00c29	8b e5		 mov	 esp, ebp
  00c2b	5d		 pop	 ebp
  00c2c	c2 0c 00	 ret	 12			; 0000000cH
  00c2f	90		 npad	 1
$LN51@set_applic:
  00c30	00 00 00 00	 DD	 $LN16@set_applic
  00c34	00 00 00 00	 DD	 $LN27@set_applic
  00c38	00 00 00 00	 DD	 $LN27@set_applic
  00c3c	00 00 00 00	 DD	 $LN33@set_applic
  00c40	00 00 00 00	 DD	 $LN33@set_applic
  00c44	00 00 00 00	 DD	 $LN39@set_applic
  00c48	00 00 00 00	 DD	 $LN2@set_applic
  00c4c	00 00 00 00	 DD	 $LN43@set_applic
  00c50	00 00 00 00	 DD	 $LN2@set_applic
  00c54	00 00 00 00	 DD	 $LN23@set_applic
  00c58	00 00 00 00	 DD	 $LN47@set_applic
  00c5c	00 00 00 00	 DD	 $LN17@set_applic
?set_application_display_3d_mode@@YGXW4DISPLAY_3D_TINTS@@W4DISPLAY_3D_LIGHT_LEVELS@@W4DISPLAY_3D_NOISE_LEVELS@@@Z ENDP ; set_application_display_3d_mode
_TEXT	ENDS
; Function compile flags: /Odtp /ZI
; File c:\users\nhv90\projects\eech\aphavoc\source\app3d\3d_init.c
;	COMDAT ?set_3d_detail_levels@@YGXXZ
_TEXT	SEGMENT
tv69 = -76						; size = 4
tv64 = -76						; size = 4
_factor$ = -8						; size = 4
_level$ = -4						; size = 4
?set_3d_detail_levels@@YGXXZ PROC			; set_3d_detail_levels, COMDAT

; 823  : {

  00000	55		 push	 ebp
  00001	8b ec		 mov	 ebp, esp
  00003	83 ec 4c	 sub	 esp, 76			; 0000004cH
  00006	53		 push	 ebx
  00007	56		 push	 esi
  00008	57		 push	 edi

; 824  : 
; 825  : 	int
; 826  : 		level;
; 827  : 
; 828  : 	float
; 829  : 		factor;
; 830  : 
; 831  : 	//
; 832  : 	// Adjust the object detail levels
; 833  : 	//
; 834  : 
; 835  : 	level = get_global_graphics_object_detail_level ();

  00009	a1 94 01 00 00	 mov	 eax, DWORD PTR ?global_options@@3UGLOBAL_OPTIONS_DATA@@A+404
  0000e	89 45 fc	 mov	 DWORD PTR _level$[ebp], eax

; 836  : 
; 837  : 	switch ( level )

  00011	8b 45 fc	 mov	 eax, DWORD PTR _level$[ebp]
  00014	89 45 b4	 mov	 DWORD PTR tv64[ebp], eax
  00017	83 7d b4 01	 cmp	 DWORD PTR tv64[ebp], 1
  0001b	74 0e		 je	 SHORT $LN6@set_3d_det
  0001d	83 7d b4 02	 cmp	 DWORD PTR tv64[ebp], 2
  00021	74 17		 je	 SHORT $LN7@set_3d_det
  00023	83 7d b4 03	 cmp	 DWORD PTR tv64[ebp], 3
  00027	74 20		 je	 SHORT $LN8@set_3d_det
  00029	eb 2b		 jmp	 SHORT $LN2@set_3d_det
$LN6@set_3d_det:

; 838  : 	{
; 839  : 
; 840  : 		case 1: factor = 0.5; break;

  0002b	f3 0f 10 05 00
	00 00 00	 movss	 xmm0, DWORD PTR __real@3f000000
  00033	f3 0f 11 45 f8	 movss	 DWORD PTR _factor$[ebp], xmm0
  00038	eb 1c		 jmp	 SHORT $LN2@set_3d_det
$LN7@set_3d_det:

; 841  : 		case 2: factor = 0.7; break;

  0003a	f3 0f 10 05 00
	00 00 00	 movss	 xmm0, DWORD PTR __real@3f333333
  00042	f3 0f 11 45 f8	 movss	 DWORD PTR _factor$[ebp], xmm0
  00047	eb 0d		 jmp	 SHORT $LN2@set_3d_det
$LN8@set_3d_det:

; 842  : 		case 3: factor = 1.0; break;

  00049	f3 0f 10 05 00
	00 00 00	 movss	 xmm0, DWORD PTR __real@3f800000
  00051	f3 0f 11 45 f8	 movss	 DWORD PTR _factor$[ebp], xmm0
$LN2@set_3d_det:

; 843  : 	}
; 844  : 
; 845  : 	modify_3d_objects_approximations ( factor );

  00056	51		 push	 ecx
  00057	f3 0f 10 45 f8	 movss	 xmm0, DWORD PTR _factor$[ebp]
  0005c	f3 0f 11 04 24	 movss	 DWORD PTR [esp], xmm0
  00061	e8 00 00 00 00	 call	 ?modify_3d_objects_approximations@@YGXM@Z ; modify_3d_objects_approximations

; 846  : 
; 847  : 	//
; 848  : 	// Adjust the terrain detail levels
; 849  : 	//
; 850  : 
; 851  : 	level = get_global_graphics_terrain_detail_level ();

  00066	a1 98 01 00 00	 mov	 eax, DWORD PTR ?global_options@@3UGLOBAL_OPTIONS_DATA@@A+408
  0006b	89 45 fc	 mov	 DWORD PTR _level$[ebp], eax

; 852  : 
; 853  : 	switch ( level )

  0006e	8b 45 fc	 mov	 eax, DWORD PTR _level$[ebp]
  00071	89 45 b4	 mov	 DWORD PTR tv69[ebp], eax
  00074	83 7d b4 01	 cmp	 DWORD PTR tv69[ebp], 1
  00078	74 0e		 je	 SHORT $LN9@set_3d_det
  0007a	83 7d b4 02	 cmp	 DWORD PTR tv69[ebp], 2
  0007e	74 17		 je	 SHORT $LN10@set_3d_det
  00080	83 7d b4 03	 cmp	 DWORD PTR tv69[ebp], 3
  00084	74 20		 je	 SHORT $LN11@set_3d_det
  00086	eb 2b		 jmp	 SHORT $LN4@set_3d_det
$LN9@set_3d_det:

; 854  : 	{
; 855  : 
; 856  : 		case 1: factor = 0.7; break;

  00088	f3 0f 10 05 00
	00 00 00	 movss	 xmm0, DWORD PTR __real@3f333333
  00090	f3 0f 11 45 f8	 movss	 DWORD PTR _factor$[ebp], xmm0
  00095	eb 1c		 jmp	 SHORT $LN4@set_3d_det
$LN10@set_3d_det:

; 857  : 		case 2: factor = 0.85; break;

  00097	f3 0f 10 05 00
	00 00 00	 movss	 xmm0, DWORD PTR __real@3f59999a
  0009f	f3 0f 11 45 f8	 movss	 DWORD PTR _factor$[ebp], xmm0
  000a4	eb 0d		 jmp	 SHORT $LN4@set_3d_det
$LN11@set_3d_det:

; 858  : 		case 3: factor = 1.0; break;

  000a6	f3 0f 10 05 00
	00 00 00	 movss	 xmm0, DWORD PTR __real@3f800000
  000ae	f3 0f 11 45 f8	 movss	 DWORD PTR _factor$[ebp], xmm0
$LN4@set_3d_det:

; 859  : 	}
; 860  : 
; 861  : 	set_global_3d_fog_scale_setting ( main_3d_env, factor );

  000b3	51		 push	 ecx
  000b4	f3 0f 10 45 f8	 movss	 xmm0, DWORD PTR _factor$[ebp]
  000b9	f3 0f 11 04 24	 movss	 DWORD PTR [esp], xmm0
  000be	a1 00 00 00 00	 mov	 eax, DWORD PTR ?main_3d_env@@3PAUENV_3D@@A ; main_3d_env
  000c3	50		 push	 eax
  000c4	e8 00 00 00 00	 call	 ?set_global_3d_fog_scale_setting@@YGXPAUENV_3D@@M@Z ; set_global_3d_fog_scale_setting

; 862  : }

  000c9	5f		 pop	 edi
  000ca	5e		 pop	 esi
  000cb	5b		 pop	 ebx
  000cc	8b e5		 mov	 esp, ebp
  000ce	5d		 pop	 ebp
  000cf	c3		 ret	 0
?set_3d_detail_levels@@YGXXZ ENDP			; set_3d_detail_levels
_TEXT	ENDS
; Function compile flags: /Odtp /ZI
; File c:\users\nhv90\projects\eech\aphavoc\source\app3d\3d_init.c
;	COMDAT ?deinitialise_application_3d_system@@YGXXZ
_TEXT	SEGMENT
?deinitialise_application_3d_system@@YGXXZ PROC		; deinitialise_application_3d_system, COMDAT

; 784  : {

  00000	55		 push	 ebp
  00001	8b ec		 mov	 ebp, esp
  00003	83 ec 40	 sub	 esp, 64			; 00000040H
  00006	53		 push	 ebx
  00007	56		 push	 esi
  00008	57		 push	 edi

; 785  : 	display_terrain_elevation_statistics ();

  00009	e8 00 00 00 00	 call	 ?display_terrain_elevation_statistics@@YGXXZ ; display_terrain_elevation_statistics

; 786  : 
; 787  : 	destroy_3d_environment (main_3d_env);

  0000e	a1 00 00 00 00	 mov	 eax, DWORD PTR ?main_3d_env@@3PAUENV_3D@@A ; main_3d_env
  00013	50		 push	 eax
  00014	e8 00 00 00 00	 call	 ?destroy_3d_environment@@YGXPAUENV_3D@@@Z ; destroy_3d_environment

; 788  : 
; 789  : 	main_3d_env = NULL;

  00019	c7 05 00 00 00
	00 00 00 00 00	 mov	 DWORD PTR ?main_3d_env@@3PAUENV_3D@@A, 0 ; main_3d_env

; 790  : 
; 791  : 	destroy_3d_environment (main_3d_single_light_env);

  00023	a1 00 00 00 00	 mov	 eax, DWORD PTR ?main_3d_single_light_env@@3PAUENV_3D@@A ; main_3d_single_light_env
  00028	50		 push	 eax
  00029	e8 00 00 00 00	 call	 ?destroy_3d_environment@@YGXPAUENV_3D@@@Z ; destroy_3d_environment

; 792  : 
; 793  : 	main_3d_single_light_env = NULL;

  0002e	c7 05 00 00 00
	00 00 00 00 00	 mov	 DWORD PTR ?main_3d_single_light_env@@3PAUENV_3D@@A, 0 ; main_3d_single_light_env

; 794  : 
; 795  : 	//
; 796  : 	// 3D textures
; 797  : 	//
; 798  : 
; 799  : 	deinitialise_common_mfd_3d_textures ();

  00038	e8 00 00 00 00	 call	 ?deinitialise_common_mfd_3d_textures@@YGXXZ ; deinitialise_common_mfd_3d_textures

; 800  : 
; 801  : 	deinitialise_common_crew_skins ();

  0003d	e8 00 00 00 00	 call	 ?deinitialise_common_crew_skins@@YGXXZ ; deinitialise_common_crew_skins

; 802  : 
; 803  : 	deinitialise_campaign_screen_3d_textures ();

  00042	e8 00 00 00 00	 call	 ?deinitialise_campaign_screen_3d_textures@@YGXXZ ; deinitialise_campaign_screen_3d_textures

; 804  : 
; 805  : 	//
; 806  : 	// In case there is a terrain loaded - free it up.
; 807  : 	//
; 808  : 
; 809  : 	unload_3d_terrain ();

  00047	e8 00 00 00 00	 call	 ?unload_3d_terrain@@YGXXZ ; unload_3d_terrain

; 810  : 
; 811  : 	unload_2d_terrain ();

  0004c	e8 00 00 00 00	 call	 ?unload_2d_terrain@@YGXXZ ; unload_2d_terrain

; 812  : 
; 813  : 	unload_terrain_simple_elevation_grid ();

  00051	e8 00 00 00 00	 call	 ?unload_terrain_simple_elevation_grid@@YGXXZ ; unload_terrain_simple_elevation_grid

; 814  : 
; 815  : 	report_objects_not_destructed ();

  00056	e8 00 00 00 00	 call	 ?report_objects_not_destructed@@YGXXZ ; report_objects_not_destructed

; 816  : }

  0005b	5f		 pop	 edi
  0005c	5e		 pop	 esi
  0005d	5b		 pop	 ebx
  0005e	8b e5		 mov	 esp, ebp
  00060	5d		 pop	 ebp
  00061	c3		 ret	 0
?deinitialise_application_3d_system@@YGXXZ ENDP		; deinitialise_application_3d_system
_TEXT	ENDS
; Function compile flags: /Odtp /ZI
; File c:\users\nhv90\projects\eech\aphavoc\source\app3d\3d_init.c
;	COMDAT ?initialise_application_3d_system@@YGXXZ
_TEXT	SEGMENT
$T1 = -312						; size = 4
$T2 = -308						; size = 4
_single_light_fog_colour$3 = -240			; size = 4
_single_light_direction$4 = -236			; size = 12
_single_light_colour$5 = -224				; size = 16
_single_light_ambient_colour$6 = -208			; size = 16
_position$7 = -192					; size = 12
_shadow_colour$8 = -180					; size = 28
_fog_scale$9 = -152					; size = 4
_sun_light_colour$10 = -148				; size = 12
_ambient_colour$11 = -136				; size = 24
_moon_light_colour$12 = -112				; size = 12
_moon_colour$13 = -100					; size = 12
_sun_light_colour$14 = -88				; size = 36
_sun_colour$15 = -52					; size = 16
_ambient_colour$16 = -36				; size = 32
_light_level$ = -4					; size = 4
?initialise_application_3d_system@@YGXXZ PROC		; initialise_application_3d_system, COMDAT

; 94   : {

  00000	55		 push	 ebp
  00001	8b ec		 mov	 ebp, esp
  00003	81 ec 38 01 00
	00		 sub	 esp, 312		; 00000138H
  00009	53		 push	 ebx
  0000a	56		 push	 esi
  0000b	57		 push	 edi

; 95   : 
; 96   :   float light_level = max(min(1.0f,global_night_light_level),0.0f);

  0000c	0f 57 c0	 xorps	 xmm0, xmm0
  0000f	f3 0f 11 85 cc
	fe ff ff	 movss	 DWORD PTR $T2[ebp], xmm0
  00017	f3 0f 10 05 00
	00 00 00	 movss	 xmm0, DWORD PTR __real@3f800000
  0001f	f3 0f 11 85 c8
	fe ff ff	 movss	 DWORD PTR $T1[ebp], xmm0
  00027	8d 85 cc fe ff
	ff		 lea	 eax, DWORD PTR $T2[ebp]
  0002d	50		 push	 eax
  0002e	68 00 00 00 00	 push	 OFFSET ?global_night_light_level@@3MA ; global_night_light_level
  00033	8d 8d c8 fe ff
	ff		 lea	 ecx, DWORD PTR $T1[ebp]
  00039	51		 push	 ecx
  0003a	e8 00 00 00 00	 call	 ??$min@M@std@@YGABMABM0@Z ; std::min<float>
  0003f	50		 push	 eax
  00040	e8 00 00 00 00	 call	 ??$max@M@std@@YGABMABM0@Z ; std::max<float>
  00045	f3 0f 10 00	 movss	 xmm0, DWORD PTR [eax]
  00049	f3 0f 11 45 fc	 movss	 DWORD PTR _light_level$[ebp], xmm0

; 97   : 	
; 98   : 	
; 99   : 	
; 100  : 	ASSERT ( !main_3d_env );

  0004e	83 3d 00 00 00
	00 00		 cmp	 DWORD PTR ?main_3d_env@@3PAUENV_3D@@A, 0 ; main_3d_env
  00055	74 18		 je	 SHORT $LN2@initialise
  00057	a1 00 00 00 00	 mov	 eax, DWORD PTR ?__LINE__Var@?0??initialise_application_3d_system@@YGXXZ@4JA
  0005c	83 c0 06	 add	 eax, 6
  0005f	50		 push	 eax
  00060	68 00 00 00 00	 push	 OFFSET ??_C@_0DM@BNNHFLJC@c?3?2users?2nhv90?2projects?2eech?2ap@
  00065	68 00 00 00 00	 push	 OFFSET ??_C@_0N@LOIAOAH@?$CBmain_3d_env@
  0006a	e8 00 00 00 00	 call	 ?process_assert@@YGXPBD0H@Z ; process_assert
$LN2@initialise:

; 101  : 
; 102  : 	ASSERT ( !main_3d_single_light_env );

  0006f	83 3d 00 00 00
	00 00		 cmp	 DWORD PTR ?main_3d_single_light_env@@3PAUENV_3D@@A, 0 ; main_3d_single_light_env
  00076	74 18		 je	 SHORT $LN3@initialise
  00078	a1 00 00 00 00	 mov	 eax, DWORD PTR ?__LINE__Var@?0??initialise_application_3d_system@@YGXXZ@4JA
  0007d	83 c0 08	 add	 eax, 8
  00080	50		 push	 eax
  00081	68 00 00 00 00	 push	 OFFSET ??_C@_0DM@BNNHFLJC@c?3?2users?2nhv90?2projects?2eech?2ap@
  00086	68 00 00 00 00	 push	 OFFSET ??_C@_0BK@FFIFMNKK@?$CBmain_3d_single_light_env@
  0008b	e8 00 00 00 00	 call	 ?process_assert@@YGXPBD0H@Z ; process_assert
$LN3@initialise:

; 103  : 
; 104  : 	//
; 105  : 	// 3D resolution
; 106  : 	//
; 107  : 
; 108  : 	set_3d_resolutions (get_global_3d_visual_screen_width (), get_global_3d_visual_screen_height ());

  00090	51		 push	 ecx
  00091	f3 0f 10 05 c8
	01 00 00	 movss	 xmm0, DWORD PTR ?global_options@@3UGLOBAL_OPTIONS_DATA@@A+456
  00099	f3 0f 11 04 24	 movss	 DWORD PTR [esp], xmm0
  0009e	51		 push	 ecx
  0009f	f3 0f 10 05 c4
	01 00 00	 movss	 xmm0, DWORD PTR ?global_options@@3UGLOBAL_OPTIONS_DATA@@A+452
  000a7	f3 0f 11 04 24	 movss	 DWORD PTR [esp], xmm0
  000ac	e8 00 00 00 00	 call	 ?set_3d_resolutions@@YGXMM@Z ; set_3d_resolutions

; 109  : 
; 110  : 	debug_log ( "Creating mfd 3d textures" );

  000b1	68 00 00 00 00	 push	 OFFSET ??_C@_0BJ@GPDFCBKC@Creating?5mfd?53d?5textures@
  000b6	e8 00 00 00 00	 call	 ?debug_log@@YAXPBDZZ	; debug_log
  000bb	83 c4 04	 add	 esp, 4

; 111  : 
; 112  : 	//
; 113  : 	// 3D textures
; 114  : 	//
; 115  : 
; 116  : 	initialise_common_mfd_3d_textures ();

  000be	e8 00 00 00 00	 call	 ?initialise_common_mfd_3d_textures@@YGXXZ ; initialise_common_mfd_3d_textures

; 117  : 
; 118  : 	initialise_campaign_screen_3d_textures ();

  000c3	e8 00 00 00 00	 call	 ?initialise_campaign_screen_3d_textures@@YGXXZ ; initialise_campaign_screen_3d_textures

; 119  : 
; 120  : 	//
; 121  : 	// Initialise 3ddata
; 122  : 	//
; 123  : 
; 124  : 	debug_log ( "Loading textures" );

  000c8	68 00 00 00 00	 push	 OFFSET ??_C@_0BB@JJJMFBGD@Loading?5textures@
  000cd	e8 00 00 00 00	 call	 ?debug_log@@YAXPBDZZ	; debug_log
  000d2	83 c4 04	 add	 esp, 4

; 125  : 
; 126  : 	load_texturemap_data ( "3ddata" );

  000d5	68 00 00 00 00	 push	 OFFSET ??_C@_06KIELAJID@3ddata@
  000da	e8 00 00 00 00	 call	 ?load_texturemap_data@@YGHPBD@Z ; load_texturemap_data

; 127  : 	
; 128  : 	//VJ 060218 texture bug autosave fix, mapinfo was reinitialized each autosave
; 129  : 	// moved to beginning
; 130  : 	debug_log("###CUSTOM TEXTURE STARTUP: initialise_application_3d_system: initialise_custom_map_info");

  000df	68 00 00 00 00	 push	 OFFSET ??_C@_0FI@ILJGOAHJ@?$CD?$CD?$CDCUSTOM?5TEXTURE?5STARTUP?3?5init@
  000e4	e8 00 00 00 00	 call	 ?debug_log@@YAXPBDZZ	; debug_log
  000e9	83 c4 04	 add	 esp, 4

; 131  : 	initialise_custom_map_info();

  000ec	e8 00 00 00 00	 call	 ?initialise_custom_map_info@@YGXXZ ; initialise_custom_map_info

; 132  : 
; 133  : 	initialise_3d_system ();

  000f1	e8 00 00 00 00	 call	 ?initialise_3d_system@@YGXXZ ; initialise_3d_system

; 134  : 
; 135  : 	initialise_3d_objects ( "3ddata" );

  000f6	68 00 00 00 00	 push	 OFFSET ??_C@_06KIELAJID@3ddata@
  000fb	e8 00 00 00 00	 call	 ?initialise_3d_objects@@YGXPBD@Z ; initialise_3d_objects

; 136  : 
; 137  : 	initialise_3d_displacement_maps ( "3ddata\\displace.bin" );

  00100	68 00 00 00 00	 push	 OFFSET ??_C@_0BE@DPPOKICC@3ddata?2displace?4bin@
  00105	e8 00 00 00 00	 call	 ?initialise_3d_displacement_maps@@YGXPBD@Z ; initialise_3d_displacement_maps

; 138  : 
; 139  : 	initialise_3d_terrain ();

  0010a	e8 00 00 00 00	 call	 ?initialise_3d_terrain@@YGXXZ ; initialise_3d_terrain

; 140  : 
; 141  : 	//
; 142  : 	//
; 143  : 	//
; 144  : 
; 145  : 	initialise_common_crew_skins ();

  0010f	e8 00 00 00 00	 call	 ?initialise_common_crew_skins@@YGXXZ ; initialise_common_crew_skins

; 146  : 
; 147  : 	//
; 148  : 	// Initialise Default Terrain Data
; 149  : 	//
; 150  : 
; 151  : 	set_3d_terrain_detail_blend_parameters ( 0.7 );

  00114	51		 push	 ecx
  00115	f3 0f 10 05 00
	00 00 00	 movss	 xmm0, DWORD PTR __real@3f333333
  0011d	f3 0f 11 04 24	 movss	 DWORD PTR [esp], xmm0
  00122	e8 00 00 00 00	 call	 ?set_3d_terrain_detail_blend_parameters@@YGXM@Z ; set_3d_terrain_detail_blend_parameters

; 152  : //set_3d_terrain_detail_blend_parameters ( 0 );
; 153  : 
; 154  : 	//set_terrain_3d_sector_scan_radius ( 10 );
; 155  : 	set_terrain_3d_sector_scan_radius ( 5 );

  00127	6a 05		 push	 5
  00129	e8 00 00 00 00	 call	 ?set_terrain_3d_sector_scan_radius@@YGXH@Z ; set_terrain_3d_sector_scan_radius

; 156  : 
; 157  : 	//
; 158  : 	// Initialise 3D environment
; 159  : 	//
; 160  : 
; 161  : 	initialise_3d_lightning ( TEXTURE_ANIMATION_INDEX_LIGHTNING, TEXTURE_INDEX_LIGHTNING_BASE );

  0012e	68 97 06 00 00	 push	 1687			; 00000697H
  00133	6a 60		 push	 96			; 00000060H
  00135	e8 00 00 00 00	 call	 ?initialise_3d_lightning@@YGXW4TEXTURE_ANIMATION_INDICES@@H@Z ; initialise_3d_lightning

; 162  : 
; 163  : 	main_3d_env = create_3d_environment ();

  0013a	e8 00 00 00 00	 call	 ?create_3d_environment@@YGPAUENV_3D@@XZ ; create_3d_environment
  0013f	a3 00 00 00 00	 mov	 DWORD PTR ?main_3d_env@@3PAUENV_3D@@A, eax ; main_3d_env

; 164  : 
; 165  : 	{
; 166  : 
; 167  : 		//
; 168  : 		// Initialise the horizon.
; 169  : 		//
; 170  : 
; 171  : 		initialise_3d_horizon ( main_3d_env, OBJECT_3D_HORIZON );

  00144	68 28 0a 00 00	 push	 2600			; 00000a28H
  00149	a1 00 00 00 00	 mov	 eax, DWORD PTR ?main_3d_env@@3PAUENV_3D@@A ; main_3d_env
  0014e	50		 push	 eax
  0014f	e8 00 00 00 00	 call	 ?initialise_3d_horizon@@YGXPAUENV_3D@@H@Z ; initialise_3d_horizon

; 172  : 
; 173  : 		//
; 174  : 		// Dry weather mode images
; 175  : 		//
; 176  : 
; 177  : 		add_3d_horizon_image ( main_3d_env, "3ddata\\horizon\\dry6am",		SUN_RISE_START_TIME,	WEATHERMODE_DRY );

  00154	6a 01		 push	 1
  00156	51		 push	 ecx
  00157	f3 0f 10 05 00
	00 00 00	 movss	 xmm0, DWORD PTR __real@46a8c000
  0015f	f3 0f 11 04 24	 movss	 DWORD PTR [esp], xmm0
  00164	68 00 00 00 00	 push	 OFFSET ??_C@_0BG@KJFKADBK@3ddata?2horizon?2dry6am@
  00169	a1 00 00 00 00	 mov	 eax, DWORD PTR ?main_3d_env@@3PAUENV_3D@@A ; main_3d_env
  0016e	50		 push	 eax
  0016f	e8 00 00 00 00	 call	 ?add_3d_horizon_image@@YGXPAUENV_3D@@PBDMW4WEATHERMODES@@@Z ; add_3d_horizon_image

; 178  : 		add_3d_horizon_image ( main_3d_env, "3ddata\\horizon\\dry9am",		SUN_RISE_END_TIME,	WEATHERMODE_DRY );

  00174	6a 01		 push	 1
  00176	51		 push	 ecx
  00177	f3 0f 10 05 00
	00 00 00	 movss	 xmm0, DWORD PTR __real@46fd2000
  0017f	f3 0f 11 04 24	 movss	 DWORD PTR [esp], xmm0
  00184	68 00 00 00 00	 push	 OFFSET ??_C@_0BG@PBDJBDEM@3ddata?2horizon?2dry9am@
  00189	a1 00 00 00 00	 mov	 eax, DWORD PTR ?main_3d_env@@3PAUENV_3D@@A ; main_3d_env
  0018e	50		 push	 eax
  0018f	e8 00 00 00 00	 call	 ?add_3d_horizon_image@@YGXPAUENV_3D@@PBDMW4WEATHERMODES@@@Z ; add_3d_horizon_image

; 179  : 		add_3d_horizon_image ( main_3d_env, "3ddata\\horizon\\dry12pm",	MIDDAY_TIME,			WEATHERMODE_DRY );

  00194	6a 01		 push	 1
  00196	51		 push	 ecx
  00197	f3 0f 10 05 00
	00 00 00	 movss	 xmm0, DWORD PTR __real@4728c000
  0019f	f3 0f 11 04 24	 movss	 DWORD PTR [esp], xmm0
  001a4	68 00 00 00 00	 push	 OFFSET ??_C@_0BH@FCPOPKOM@3ddata?2horizon?2dry12pm@
  001a9	a1 00 00 00 00	 mov	 eax, DWORD PTR ?main_3d_env@@3PAUENV_3D@@A ; main_3d_env
  001ae	50		 push	 eax
  001af	e8 00 00 00 00	 call	 ?add_3d_horizon_image@@YGXPAUENV_3D@@PBDMW4WEATHERMODES@@@Z ; add_3d_horizon_image

; 180  : 		add_3d_horizon_image ( main_3d_env, "3ddata\\horizon\\dry3pm",		SUN_SET_START_TIME,	WEATHERMODE_DRY );

  001b4	6a 01		 push	 1
  001b6	51		 push	 ecx
  001b7	f3 0f 10 05 00
	00 00 00	 movss	 xmm0, DWORD PTR __real@476f1000
  001bf	f3 0f 11 04 24	 movss	 DWORD PTR [esp], xmm0
  001c4	68 00 00 00 00	 push	 OFFSET ??_C@_0BG@IDGADKGP@3ddata?2horizon?2dry3pm@
  001c9	a1 00 00 00 00	 mov	 eax, DWORD PTR ?main_3d_env@@3PAUENV_3D@@A ; main_3d_env
  001ce	50		 push	 eax
  001cf	e8 00 00 00 00	 call	 ?add_3d_horizon_image@@YGXPAUENV_3D@@PBDMW4WEATHERMODES@@@Z ; add_3d_horizon_image

; 181  : 		add_3d_horizon_image ( main_3d_env, "3ddata\\horizon\\dry6pm",		SUN_SET_END_TIME,		WEATHERMODE_DRY );

  001d4	6a 01		 push	 1
  001d6	51		 push	 ecx
  001d7	f3 0f 10 05 00
	00 00 00	 movss	 xmm0, DWORD PTR __real@47891c00
  001df	f3 0f 11 04 24	 movss	 DWORD PTR [esp], xmm0
  001e4	68 00 00 00 00	 push	 OFFSET ??_C@_0BG@LELOMKFN@3ddata?2horizon?2dry6pm@
  001e9	a1 00 00 00 00	 mov	 eax, DWORD PTR ?main_3d_env@@3PAUENV_3D@@A ; main_3d_env
  001ee	50		 push	 eax
  001ef	e8 00 00 00 00	 call	 ?add_3d_horizon_image@@YGXPAUENV_3D@@PBDMW4WEATHERMODES@@@Z ; add_3d_horizon_image

; 182  : 		add_3d_horizon_image ( main_3d_env, "3ddata\\horizon\\dry9pm",		TWILIGHT_TIME,			WEATHERMODE_DRY );

  001f4	6a 01		 push	 1
  001f6	51		 push	 ecx
  001f7	f3 0f 10 05 00
	00 00 00	 movss	 xmm0, DWORD PTR __real@479ab000
  001ff	f3 0f 11 04 24	 movss	 DWORD PTR [esp], xmm0
  00204	68 00 00 00 00	 push	 OFFSET ??_C@_0BG@OMNNNKAL@3ddata?2horizon?2dry9pm@
  00209	a1 00 00 00 00	 mov	 eax, DWORD PTR ?main_3d_env@@3PAUENV_3D@@A ; main_3d_env
  0020e	50		 push	 eax
  0020f	e8 00 00 00 00	 call	 ?add_3d_horizon_image@@YGXPAUENV_3D@@PBDMW4WEATHERMODES@@@Z ; add_3d_horizon_image

; 183  : 		add_3d_horizon_image ( main_3d_env, "3ddata\\horizon\\dry12am",	MIDNIGHT_TIME,			WEATHERMODE_DRY );

  00214	6a 01		 push	 1
  00216	51		 push	 ecx
  00217	0f 57 c0	 xorps	 xmm0, xmm0
  0021a	f3 0f 11 04 24	 movss	 DWORD PTR [esp], xmm0
  0021f	68 00 00 00 00	 push	 OFFSET ??_C@_0BH@EPBKDDKL@3ddata?2horizon?2dry12am@
  00224	a1 00 00 00 00	 mov	 eax, DWORD PTR ?main_3d_env@@3PAUENV_3D@@A ; main_3d_env
  00229	50		 push	 eax
  0022a	e8 00 00 00 00	 call	 ?add_3d_horizon_image@@YGXPAUENV_3D@@PBDMW4WEATHERMODES@@@Z ; add_3d_horizon_image

; 184  : 		add_3d_horizon_image ( main_3d_env, "3ddata\\horizon\\dry12am",	NIGHT_TIME,				WEATHERMODE_DRY );

  0022f	6a 01		 push	 1
  00231	51		 push	 ecx
  00232	f3 0f 10 05 00
	00 00 00	 movss	 xmm0, DWORD PTR __real@467d2000
  0023a	f3 0f 11 04 24	 movss	 DWORD PTR [esp], xmm0
  0023f	68 00 00 00 00	 push	 OFFSET ??_C@_0BH@EPBKDDKL@3ddata?2horizon?2dry12am@
  00244	a1 00 00 00 00	 mov	 eax, DWORD PTR ?main_3d_env@@3PAUENV_3D@@A ; main_3d_env
  00249	50		 push	 eax
  0024a	e8 00 00 00 00	 call	 ?add_3d_horizon_image@@YGXPAUENV_3D@@PBDMW4WEATHERMODES@@@Z ; add_3d_horizon_image

; 185  : 
; 186  : 		//
; 187  : 		// light rain weather mode images
; 188  : 		//
; 189  : 
; 190  : 		add_3d_horizon_image ( main_3d_env, "3ddata\\horizon\\lr6am",		SUN_RISE_START_TIME,	WEATHERMODE_LIGHT_RAIN );

  0024f	6a 02		 push	 2
  00251	51		 push	 ecx
  00252	f3 0f 10 05 00
	00 00 00	 movss	 xmm0, DWORD PTR __real@46a8c000
  0025a	f3 0f 11 04 24	 movss	 DWORD PTR [esp], xmm0
  0025f	68 00 00 00 00	 push	 OFFSET ??_C@_0BF@DPMMOJDG@3ddata?2horizon?2lr6am@
  00264	a1 00 00 00 00	 mov	 eax, DWORD PTR ?main_3d_env@@3PAUENV_3D@@A ; main_3d_env
  00269	50		 push	 eax
  0026a	e8 00 00 00 00	 call	 ?add_3d_horizon_image@@YGXPAUENV_3D@@PBDMW4WEATHERMODES@@@Z ; add_3d_horizon_image

; 191  : 		add_3d_horizon_image ( main_3d_env, "3ddata\\horizon\\lr9am",		SUN_RISE_END_TIME,	WEATHERMODE_LIGHT_RAIN );

  0026f	6a 02		 push	 2
  00271	51		 push	 ecx
  00272	f3 0f 10 05 00
	00 00 00	 movss	 xmm0, DWORD PTR __real@46fd2000
  0027a	f3 0f 11 04 24	 movss	 DWORD PTR [esp], xmm0
  0027f	68 00 00 00 00	 push	 OFFSET ??_C@_0BF@GHKPPJGA@3ddata?2horizon?2lr9am@
  00284	a1 00 00 00 00	 mov	 eax, DWORD PTR ?main_3d_env@@3PAUENV_3D@@A ; main_3d_env
  00289	50		 push	 eax
  0028a	e8 00 00 00 00	 call	 ?add_3d_horizon_image@@YGXPAUENV_3D@@PBDMW4WEATHERMODES@@@Z ; add_3d_horizon_image

; 192  : 		add_3d_horizon_image ( main_3d_env, "3ddata\\horizon\\lr12pm",		MIDDAY_TIME,			WEATHERMODE_LIGHT_RAIN );

  0028f	6a 02		 push	 2
  00291	51		 push	 ecx
  00292	f3 0f 10 05 00
	00 00 00	 movss	 xmm0, DWORD PTR __real@4728c000
  0029a	f3 0f 11 04 24	 movss	 DWORD PTR [esp], xmm0
  0029f	68 00 00 00 00	 push	 OFFSET ??_C@_0BG@GALAAAOF@3ddata?2horizon?2lr12pm@
  002a4	a1 00 00 00 00	 mov	 eax, DWORD PTR ?main_3d_env@@3PAUENV_3D@@A ; main_3d_env
  002a9	50		 push	 eax
  002aa	e8 00 00 00 00	 call	 ?add_3d_horizon_image@@YGXPAUENV_3D@@PBDMW4WEATHERMODES@@@Z ; add_3d_horizon_image

; 193  : 		add_3d_horizon_image ( main_3d_env, "3ddata\\horizon\\lr3pm",		SUN_SET_START_TIME,	WEATHERMODE_LIGHT_RAIN );

  002af	6a 02		 push	 2
  002b1	51		 push	 ecx
  002b2	f3 0f 10 05 00
	00 00 00	 movss	 xmm0, DWORD PTR __real@476f1000
  002ba	f3 0f 11 04 24	 movss	 DWORD PTR [esp], xmm0
  002bf	68 00 00 00 00	 push	 OFFSET ??_C@_0BF@BFPGNAED@3ddata?2horizon?2lr3pm@
  002c4	a1 00 00 00 00	 mov	 eax, DWORD PTR ?main_3d_env@@3PAUENV_3D@@A ; main_3d_env
  002c9	50		 push	 eax
  002ca	e8 00 00 00 00	 call	 ?add_3d_horizon_image@@YGXPAUENV_3D@@PBDMW4WEATHERMODES@@@Z ; add_3d_horizon_image

; 194  : 		add_3d_horizon_image ( main_3d_env, "3ddata\\horizon\\lr6pm",		SUN_SET_END_TIME,		WEATHERMODE_LIGHT_RAIN );

  002cf	6a 02		 push	 2
  002d1	51		 push	 ecx
  002d2	f3 0f 10 05 00
	00 00 00	 movss	 xmm0, DWORD PTR __real@47891c00
  002da	f3 0f 11 04 24	 movss	 DWORD PTR [esp], xmm0
  002df	68 00 00 00 00	 push	 OFFSET ??_C@_0BF@CCCICAHB@3ddata?2horizon?2lr6pm@
  002e4	a1 00 00 00 00	 mov	 eax, DWORD PTR ?main_3d_env@@3PAUENV_3D@@A ; main_3d_env
  002e9	50		 push	 eax
  002ea	e8 00 00 00 00	 call	 ?add_3d_horizon_image@@YGXPAUENV_3D@@PBDMW4WEATHERMODES@@@Z ; add_3d_horizon_image

; 195  : 		add_3d_horizon_image ( main_3d_env, "3ddata\\horizon\\lr9pm",		TWILIGHT_TIME,			WEATHERMODE_LIGHT_RAIN );

  002ef	6a 02		 push	 2
  002f1	51		 push	 ecx
  002f2	f3 0f 10 05 00
	00 00 00	 movss	 xmm0, DWORD PTR __real@479ab000
  002fa	f3 0f 11 04 24	 movss	 DWORD PTR [esp], xmm0
  002ff	68 00 00 00 00	 push	 OFFSET ??_C@_0BF@HKELDACH@3ddata?2horizon?2lr9pm@
  00304	a1 00 00 00 00	 mov	 eax, DWORD PTR ?main_3d_env@@3PAUENV_3D@@A ; main_3d_env
  00309	50		 push	 eax
  0030a	e8 00 00 00 00	 call	 ?add_3d_horizon_image@@YGXPAUENV_3D@@PBDMW4WEATHERMODES@@@Z ; add_3d_horizon_image

; 196  : 		add_3d_horizon_image ( main_3d_env, "3ddata\\horizon\\lr12am",		MIDNIGHT_TIME,			WEATHERMODE_LIGHT_RAIN );

  0030f	6a 02		 push	 2
  00311	51		 push	 ecx
  00312	0f 57 c0	 xorps	 xmm0, xmm0
  00315	f3 0f 11 04 24	 movss	 DWORD PTR [esp], xmm0
  0031a	68 00 00 00 00	 push	 OFFSET ??_C@_0BG@HNFEMJKC@3ddata?2horizon?2lr12am@
  0031f	a1 00 00 00 00	 mov	 eax, DWORD PTR ?main_3d_env@@3PAUENV_3D@@A ; main_3d_env
  00324	50		 push	 eax
  00325	e8 00 00 00 00	 call	 ?add_3d_horizon_image@@YGXPAUENV_3D@@PBDMW4WEATHERMODES@@@Z ; add_3d_horizon_image

; 197  : 		add_3d_horizon_image ( main_3d_env, "3ddata\\horizon\\lr12am",		NIGHT_TIME,				WEATHERMODE_LIGHT_RAIN );

  0032a	6a 02		 push	 2
  0032c	51		 push	 ecx
  0032d	f3 0f 10 05 00
	00 00 00	 movss	 xmm0, DWORD PTR __real@467d2000
  00335	f3 0f 11 04 24	 movss	 DWORD PTR [esp], xmm0
  0033a	68 00 00 00 00	 push	 OFFSET ??_C@_0BG@HNFEMJKC@3ddata?2horizon?2lr12am@
  0033f	a1 00 00 00 00	 mov	 eax, DWORD PTR ?main_3d_env@@3PAUENV_3D@@A ; main_3d_env
  00344	50		 push	 eax
  00345	e8 00 00 00 00	 call	 ?add_3d_horizon_image@@YGXPAUENV_3D@@PBDMW4WEATHERMODES@@@Z ; add_3d_horizon_image

; 198  : 
; 199  : 		//
; 200  : 		// heavy rain weather mode images
; 201  : 		//
; 202  : 
; 203  : 		add_3d_horizon_image ( main_3d_env, "3ddata\\horizon\\hr6am",		SUN_RISE_START_TIME,	WEATHERMODE_HEAVY_RAIN );

  0034a	6a 03		 push	 3
  0034c	51		 push	 ecx
  0034d	f3 0f 10 05 00
	00 00 00	 movss	 xmm0, DWORD PTR __real@46a8c000
  00355	f3 0f 11 04 24	 movss	 DWORD PTR [esp], xmm0
  0035a	68 00 00 00 00	 push	 OFFSET ??_C@_0BF@KEFNKLCA@3ddata?2horizon?2hr6am@
  0035f	a1 00 00 00 00	 mov	 eax, DWORD PTR ?main_3d_env@@3PAUENV_3D@@A ; main_3d_env
  00364	50		 push	 eax
  00365	e8 00 00 00 00	 call	 ?add_3d_horizon_image@@YGXPAUENV_3D@@PBDMW4WEATHERMODES@@@Z ; add_3d_horizon_image

; 204  : 		add_3d_horizon_image ( main_3d_env, "3ddata\\horizon\\hr9am",		SUN_RISE_END_TIME,	WEATHERMODE_HEAVY_RAIN );

  0036a	6a 03		 push	 3
  0036c	51		 push	 ecx
  0036d	f3 0f 10 05 00
	00 00 00	 movss	 xmm0, DWORD PTR __real@46fd2000
  00375	f3 0f 11 04 24	 movss	 DWORD PTR [esp], xmm0
  0037a	68 00 00 00 00	 push	 OFFSET ??_C@_0BF@PMDOLLHG@3ddata?2horizon?2hr9am@
  0037f	a1 00 00 00 00	 mov	 eax, DWORD PTR ?main_3d_env@@3PAUENV_3D@@A ; main_3d_env
  00384	50		 push	 eax
  00385	e8 00 00 00 00	 call	 ?add_3d_horizon_image@@YGXPAUENV_3D@@PBDMW4WEATHERMODES@@@Z ; add_3d_horizon_image

; 205  : 		add_3d_horizon_image ( main_3d_env, "3ddata\\horizon\\hr12pm",		MIDDAY_TIME,			WEATHERMODE_HEAVY_RAIN );

  0038a	6a 03		 push	 3
  0038c	51		 push	 ecx
  0038d	f3 0f 10 05 00
	00 00 00	 movss	 xmm0, DWORD PTR __real@4728c000
  00395	f3 0f 11 04 24	 movss	 DWORD PTR [esp], xmm0
  0039a	68 00 00 00 00	 push	 OFFSET ??_C@_0BG@JEPPCEPG@3ddata?2horizon?2hr12pm@
  0039f	a1 00 00 00 00	 mov	 eax, DWORD PTR ?main_3d_env@@3PAUENV_3D@@A ; main_3d_env
  003a4	50		 push	 eax
  003a5	e8 00 00 00 00	 call	 ?add_3d_horizon_image@@YGXPAUENV_3D@@PBDMW4WEATHERMODES@@@Z ; add_3d_horizon_image

; 206  : 		add_3d_horizon_image ( main_3d_env, "3ddata\\horizon\\hr3pm",		SUN_SET_START_TIME,	WEATHERMODE_HEAVY_RAIN );

  003aa	6a 03		 push	 3
  003ac	51		 push	 ecx
  003ad	f3 0f 10 05 00
	00 00 00	 movss	 xmm0, DWORD PTR __real@476f1000
  003b5	f3 0f 11 04 24	 movss	 DWORD PTR [esp], xmm0
  003ba	68 00 00 00 00	 push	 OFFSET ??_C@_0BF@IOGHJCFF@3ddata?2horizon?2hr3pm@
  003bf	a1 00 00 00 00	 mov	 eax, DWORD PTR ?main_3d_env@@3PAUENV_3D@@A ; main_3d_env
  003c4	50		 push	 eax
  003c5	e8 00 00 00 00	 call	 ?add_3d_horizon_image@@YGXPAUENV_3D@@PBDMW4WEATHERMODES@@@Z ; add_3d_horizon_image

; 207  : 		add_3d_horizon_image ( main_3d_env, "3ddata\\horizon\\hr6pm",		SUN_SET_END_TIME,		WEATHERMODE_HEAVY_RAIN );

  003ca	6a 03		 push	 3
  003cc	51		 push	 ecx
  003cd	f3 0f 10 05 00
	00 00 00	 movss	 xmm0, DWORD PTR __real@47891c00
  003d5	f3 0f 11 04 24	 movss	 DWORD PTR [esp], xmm0
  003da	68 00 00 00 00	 push	 OFFSET ??_C@_0BF@LJLJGCGH@3ddata?2horizon?2hr6pm@
  003df	a1 00 00 00 00	 mov	 eax, DWORD PTR ?main_3d_env@@3PAUENV_3D@@A ; main_3d_env
  003e4	50		 push	 eax
  003e5	e8 00 00 00 00	 call	 ?add_3d_horizon_image@@YGXPAUENV_3D@@PBDMW4WEATHERMODES@@@Z ; add_3d_horizon_image

; 208  : 		add_3d_horizon_image ( main_3d_env, "3ddata\\horizon\\hr9pm",		TWILIGHT_TIME,			WEATHERMODE_HEAVY_RAIN );

  003ea	6a 03		 push	 3
  003ec	51		 push	 ecx
  003ed	f3 0f 10 05 00
	00 00 00	 movss	 xmm0, DWORD PTR __real@479ab000
  003f5	f3 0f 11 04 24	 movss	 DWORD PTR [esp], xmm0
  003fa	68 00 00 00 00	 push	 OFFSET ??_C@_0BF@OBNKHCDB@3ddata?2horizon?2hr9pm@
  003ff	a1 00 00 00 00	 mov	 eax, DWORD PTR ?main_3d_env@@3PAUENV_3D@@A ; main_3d_env
  00404	50		 push	 eax
  00405	e8 00 00 00 00	 call	 ?add_3d_horizon_image@@YGXPAUENV_3D@@PBDMW4WEATHERMODES@@@Z ; add_3d_horizon_image

; 209  : 		add_3d_horizon_image ( main_3d_env, "3ddata\\horizon\\hr12am",		MIDNIGHT_TIME,			WEATHERMODE_HEAVY_RAIN );

  0040a	6a 03		 push	 3
  0040c	51		 push	 ecx
  0040d	0f 57 c0	 xorps	 xmm0, xmm0
  00410	f3 0f 11 04 24	 movss	 DWORD PTR [esp], xmm0
  00415	68 00 00 00 00	 push	 OFFSET ??_C@_0BG@IJBLONLB@3ddata?2horizon?2hr12am@
  0041a	a1 00 00 00 00	 mov	 eax, DWORD PTR ?main_3d_env@@3PAUENV_3D@@A ; main_3d_env
  0041f	50		 push	 eax
  00420	e8 00 00 00 00	 call	 ?add_3d_horizon_image@@YGXPAUENV_3D@@PBDMW4WEATHERMODES@@@Z ; add_3d_horizon_image

; 210  : 		add_3d_horizon_image ( main_3d_env, "3ddata\\horizon\\hr12am",		NIGHT_TIME,				WEATHERMODE_HEAVY_RAIN );

  00425	6a 03		 push	 3
  00427	51		 push	 ecx
  00428	f3 0f 10 05 00
	00 00 00	 movss	 xmm0, DWORD PTR __real@467d2000
  00430	f3 0f 11 04 24	 movss	 DWORD PTR [esp], xmm0
  00435	68 00 00 00 00	 push	 OFFSET ??_C@_0BG@IJBLONLB@3ddata?2horizon?2hr12am@
  0043a	a1 00 00 00 00	 mov	 eax, DWORD PTR ?main_3d_env@@3PAUENV_3D@@A ; main_3d_env
  0043f	50		 push	 eax
  00440	e8 00 00 00 00	 call	 ?add_3d_horizon_image@@YGXPAUENV_3D@@PBDMW4WEATHERMODES@@@Z ; add_3d_horizon_image

; 211  : 
; 212  : 		//
; 213  : 		// snow weather mode images
; 214  : 		//
; 215  : 
; 216  : 		add_3d_horizon_image ( main_3d_env, "3ddata\\horizon\\snow6am",	SUN_RISE_START_TIME,	WEATHERMODE_SNOW );

  00445	6a 04		 push	 4
  00447	51		 push	 ecx
  00448	f3 0f 10 05 00
	00 00 00	 movss	 xmm0, DWORD PTR __real@46a8c000
  00450	f3 0f 11 04 24	 movss	 DWORD PTR [esp], xmm0
  00455	68 00 00 00 00	 push	 OFFSET ??_C@_0BH@BEEECGBL@3ddata?2horizon?2snow6am@
  0045a	a1 00 00 00 00	 mov	 eax, DWORD PTR ?main_3d_env@@3PAUENV_3D@@A ; main_3d_env
  0045f	50		 push	 eax
  00460	e8 00 00 00 00	 call	 ?add_3d_horizon_image@@YGXPAUENV_3D@@PBDMW4WEATHERMODES@@@Z ; add_3d_horizon_image

; 217  : 		add_3d_horizon_image ( main_3d_env, "3ddata\\horizon\\snow9am",	SUN_RISE_END_TIME,	WEATHERMODE_SNOW );

  00465	6a 04		 push	 4
  00467	51		 push	 ecx
  00468	f3 0f 10 05 00
	00 00 00	 movss	 xmm0, DWORD PTR __real@46fd2000
  00470	f3 0f 11 04 24	 movss	 DWORD PTR [esp], xmm0
  00475	68 00 00 00 00	 push	 OFFSET ??_C@_0BH@EMCHDGEN@3ddata?2horizon?2snow9am@
  0047a	a1 00 00 00 00	 mov	 eax, DWORD PTR ?main_3d_env@@3PAUENV_3D@@A ; main_3d_env
  0047f	50		 push	 eax
  00480	e8 00 00 00 00	 call	 ?add_3d_horizon_image@@YGXPAUENV_3D@@PBDMW4WEATHERMODES@@@Z ; add_3d_horizon_image

; 218  : 		add_3d_horizon_image ( main_3d_env, "3ddata\\horizon\\snow12pm",	MIDDAY_TIME,			WEATHERMODE_SNOW );

  00485	6a 04		 push	 4
  00487	51		 push	 ecx
  00488	f3 0f 10 05 00
	00 00 00	 movss	 xmm0, DWORD PTR __real@4728c000
  00490	f3 0f 11 04 24	 movss	 DWORD PTR [esp], xmm0
  00495	68 00 00 00 00	 push	 OFFSET ??_C@_0BI@CFEENEFP@3ddata?2horizon?2snow12pm@
  0049a	a1 00 00 00 00	 mov	 eax, DWORD PTR ?main_3d_env@@3PAUENV_3D@@A ; main_3d_env
  0049f	50		 push	 eax
  004a0	e8 00 00 00 00	 call	 ?add_3d_horizon_image@@YGXPAUENV_3D@@PBDMW4WEATHERMODES@@@Z ; add_3d_horizon_image

; 219  : 		add_3d_horizon_image ( main_3d_env, "3ddata\\horizon\\snow3pm",	SUN_SET_START_TIME,	WEATHERMODE_SNOW );

  004a5	6a 04		 push	 4
  004a7	51		 push	 ecx
  004a8	f3 0f 10 05 00
	00 00 00	 movss	 xmm0, DWORD PTR __real@476f1000
  004b0	f3 0f 11 04 24	 movss	 DWORD PTR [esp], xmm0
  004b5	68 00 00 00 00	 push	 OFFSET ??_C@_0BH@DOHOBPGO@3ddata?2horizon?2snow3pm@
  004ba	a1 00 00 00 00	 mov	 eax, DWORD PTR ?main_3d_env@@3PAUENV_3D@@A ; main_3d_env
  004bf	50		 push	 eax
  004c0	e8 00 00 00 00	 call	 ?add_3d_horizon_image@@YGXPAUENV_3D@@PBDMW4WEATHERMODES@@@Z ; add_3d_horizon_image

; 220  : 		add_3d_horizon_image ( main_3d_env, "3ddata\\horizon\\snow6pm",	SUN_SET_END_TIME,		WEATHERMODE_SNOW );

  004c5	6a 04		 push	 4
  004c7	51		 push	 ecx
  004c8	f3 0f 10 05 00
	00 00 00	 movss	 xmm0, DWORD PTR __real@47891c00
  004d0	f3 0f 11 04 24	 movss	 DWORD PTR [esp], xmm0
  004d5	68 00 00 00 00	 push	 OFFSET ??_C@_0BH@JKAOPFM@3ddata?2horizon?2snow6pm@
  004da	a1 00 00 00 00	 mov	 eax, DWORD PTR ?main_3d_env@@3PAUENV_3D@@A ; main_3d_env
  004df	50		 push	 eax
  004e0	e8 00 00 00 00	 call	 ?add_3d_horizon_image@@YGXPAUENV_3D@@PBDMW4WEATHERMODES@@@Z ; add_3d_horizon_image

; 221  : 		add_3d_horizon_image ( main_3d_env, "3ddata\\horizon\\snow9pm",	TWILIGHT_TIME,			WEATHERMODE_SNOW );

  004e5	6a 04		 push	 4
  004e7	51		 push	 ecx
  004e8	f3 0f 10 05 00
	00 00 00	 movss	 xmm0, DWORD PTR __real@479ab000
  004f0	f3 0f 11 04 24	 movss	 DWORD PTR [esp], xmm0
  004f5	68 00 00 00 00	 push	 OFFSET ??_C@_0BH@FBMDPPAK@3ddata?2horizon?2snow9pm@
  004fa	a1 00 00 00 00	 mov	 eax, DWORD PTR ?main_3d_env@@3PAUENV_3D@@A ; main_3d_env
  004ff	50		 push	 eax
  00500	e8 00 00 00 00	 call	 ?add_3d_horizon_image@@YGXPAUENV_3D@@PBDMW4WEATHERMODES@@@Z ; add_3d_horizon_image

; 222  : 		add_3d_horizon_image ( main_3d_env, "3ddata\\horizon\\snow12am",	MIDNIGHT_TIME,			WEATHERMODE_SNOW );

  00505	6a 04		 push	 4
  00507	51		 push	 ecx
  00508	0f 57 c0	 xorps	 xmm0, xmm0
  0050b	f3 0f 11 04 24	 movss	 DWORD PTR [esp], xmm0
  00510	68 00 00 00 00	 push	 OFFSET ??_C@_0BI@DIKABNBI@3ddata?2horizon?2snow12am@
  00515	a1 00 00 00 00	 mov	 eax, DWORD PTR ?main_3d_env@@3PAUENV_3D@@A ; main_3d_env
  0051a	50		 push	 eax
  0051b	e8 00 00 00 00	 call	 ?add_3d_horizon_image@@YGXPAUENV_3D@@PBDMW4WEATHERMODES@@@Z ; add_3d_horizon_image

; 223  : 		add_3d_horizon_image ( main_3d_env, "3ddata\\horizon\\snow12am",	NIGHT_TIME,				WEATHERMODE_SNOW );

  00520	6a 04		 push	 4
  00522	51		 push	 ecx
  00523	f3 0f 10 05 00
	00 00 00	 movss	 xmm0, DWORD PTR __real@467d2000
  0052b	f3 0f 11 04 24	 movss	 DWORD PTR [esp], xmm0
  00530	68 00 00 00 00	 push	 OFFSET ??_C@_0BI@DIKABNBI@3ddata?2horizon?2snow12am@
  00535	a1 00 00 00 00	 mov	 eax, DWORD PTR ?main_3d_env@@3PAUENV_3D@@A ; main_3d_env
  0053a	50		 push	 eax
  0053b	e8 00 00 00 00	 call	 ?add_3d_horizon_image@@YGXPAUENV_3D@@PBDMW4WEATHERMODES@@@Z ; add_3d_horizon_image

; 224  : 	}
; 225  : 
; 226  : 	//
; 227  : 	// Initialise sun / moon / stars
; 228  : 	//
; 229  : 
; 230  : 	initialise_3d_sun ( TEXTURE_INDEX_SUN, TEXTURE_INDEX_SUN_COLOUR_FLARE );

  00540	68 b3 06 00 00	 push	 1715			; 000006b3H
  00545	68 b2 06 00 00	 push	 1714			; 000006b2H
  0054a	e8 00 00 00 00	 call	 ?initialise_3d_sun@@YGXHH@Z ; initialise_3d_sun

; 231  : 
; 232  : 	initialise_3d_moon ( TEXTURE_INDEX_MOON );

  0054f	68 9e 06 00 00	 push	 1694			; 0000069eH
  00554	e8 00 00 00 00	 call	 ?initialise_3d_moon@@YGXH@Z ; initialise_3d_moon

; 233  : 
; 234  : 	initialise_3d_stars ( "3ddata\\stars.bin" );

  00559	68 00 00 00 00	 push	 OFFSET ??_C@_0BB@NKBBKCGJ@3ddata?2stars?4bin@
  0055e	e8 00 00 00 00	 call	 ?initialise_3d_stars@@YGXPBD@Z ; initialise_3d_stars

; 235  : 
; 236  : 	//
; 237  : 	// Initialise the clouds
; 238  : 	//
; 239  : 
; 240  : 	initialise_3d_clouds ();

  00563	e8 00 00 00 00	 call	 ?initialise_3d_clouds@@YGXXZ ; initialise_3d_clouds

; 241  : 
; 242  : 	add_3d_cloud_texture ( TEXTURE_INDEX_CLOUDDRY, WEATHERMODE_DRY );

  00568	6a 01		 push	 1
  0056a	68 78 07 00 00	 push	 1912			; 00000778H
  0056f	e8 00 00 00 00	 call	 ?add_3d_cloud_texture@@YGXHW4WEATHERMODES@@@Z ; add_3d_cloud_texture

; 243  : 
; 244  : 	add_3d_cloud_texture ( TEXTURE_INDEX_CLOUDLR, WEATHERMODE_LIGHT_RAIN );

  00574	6a 02		 push	 2
  00576	68 7a 07 00 00	 push	 1914			; 0000077aH
  0057b	e8 00 00 00 00	 call	 ?add_3d_cloud_texture@@YGXHW4WEATHERMODES@@@Z ; add_3d_cloud_texture

; 245  : 
; 246  : 	add_3d_cloud_texture ( TEXTURE_INDEX_CLOUDHR, WEATHERMODE_HEAVY_RAIN );

  00580	6a 03		 push	 3
  00582	68 79 07 00 00	 push	 1913			; 00000779H
  00587	e8 00 00 00 00	 call	 ?add_3d_cloud_texture@@YGXHW4WEATHERMODES@@@Z ; add_3d_cloud_texture

; 247  : 
; 248  : 	add_3d_cloud_texture ( TEXTURE_INDEX_CLOUDSNOW, WEATHERMODE_SNOW );

  0058c	6a 04		 push	 4
  0058e	68 7b 07 00 00	 push	 1915			; 0000077bH
  00593	e8 00 00 00 00	 call	 ?add_3d_cloud_texture@@YGXHW4WEATHERMODES@@@Z ; add_3d_cloud_texture

; 249  : 
; 250  : 	set_cloud_3d_base_height ( 6000 );

  00598	51		 push	 ecx
  00599	f3 0f 10 05 00
	00 00 00	 movss	 xmm0, DWORD PTR __real@45bb8000
  005a1	f3 0f 11 04 24	 movss	 DWORD PTR [esp], xmm0
  005a6	e8 00 00 00 00	 call	 ?set_cloud_3d_base_height@@YGXM@Z ; set_cloud_3d_base_height

; 251  : 
; 252  : 	set_cloud_3d_scan_radius ( 7 );

  005ab	6a 07		 push	 7
  005ad	e8 00 00 00 00	 call	 ?set_cloud_3d_scan_radius@@YGXH@Z ; set_cloud_3d_scan_radius

; 253  : 
; 254  : 	//
; 255  : 	// Initialise the viewing system for the environment
; 256  : 	//
; 257  : 
; 258  : 	set_3d_viewport ( main_3d_env, full_screen_x_min, full_screen_y_min, full_screen_x_max, full_screen_y_max );

  005b2	51		 push	 ecx
  005b3	f3 0f 10 05 00
	00 00 00	 movss	 xmm0, DWORD PTR ?full_screen_y_max@@3MA
  005bb	f3 0f 11 04 24	 movss	 DWORD PTR [esp], xmm0
  005c0	51		 push	 ecx
  005c1	f3 0f 10 05 00
	00 00 00	 movss	 xmm0, DWORD PTR ?full_screen_x_max@@3MA
  005c9	f3 0f 11 04 24	 movss	 DWORD PTR [esp], xmm0
  005ce	51		 push	 ecx
  005cf	f3 0f 10 05 00
	00 00 00	 movss	 xmm0, DWORD PTR ?full_screen_y_min@@3MA
  005d7	f3 0f 11 04 24	 movss	 DWORD PTR [esp], xmm0
  005dc	51		 push	 ecx
  005dd	f3 0f 10 05 00
	00 00 00	 movss	 xmm0, DWORD PTR ?full_screen_x_min@@3MA
  005e5	f3 0f 11 04 24	 movss	 DWORD PTR [esp], xmm0
  005ea	a1 00 00 00 00	 mov	 eax, DWORD PTR ?main_3d_env@@3PAUENV_3D@@A ; main_3d_env
  005ef	50		 push	 eax
  005f0	e8 00 00 00 00	 call	 ?set_3d_viewport@@YGXPAUENV_3D@@MMMM@Z ; set_3d_viewport

; 259  : 
; 260  : 	set_3d_origin ( main_3d_env, full_screen_x_min + (full_screen_width / 2.0), full_screen_y_min + (full_screen_height / 2.0) );

  005f5	f3 0f 5a 05 00
	00 00 00	 cvtss2sd xmm0, DWORD PTR ?full_screen_y_min@@3MA
  005fd	f3 0f 5a 0d 00
	00 00 00	 cvtss2sd xmm1, DWORD PTR ?full_screen_height@@3MA
  00605	f2 0f 5e 0d 00
	00 00 00	 divsd	 xmm1, QWORD PTR __real@4000000000000000
  0060d	f2 0f 58 c1	 addsd	 xmm0, xmm1
  00611	f2 0f 5a c0	 cvtsd2ss xmm0, xmm0
  00615	51		 push	 ecx
  00616	f3 0f 11 04 24	 movss	 DWORD PTR [esp], xmm0
  0061b	f3 0f 5a 05 00
	00 00 00	 cvtss2sd xmm0, DWORD PTR ?full_screen_x_min@@3MA
  00623	f3 0f 5a 0d 00
	00 00 00	 cvtss2sd xmm1, DWORD PTR ?full_screen_width@@3MA
  0062b	f2 0f 5e 0d 00
	00 00 00	 divsd	 xmm1, QWORD PTR __real@4000000000000000
  00633	f2 0f 58 c1	 addsd	 xmm0, xmm1
  00637	f2 0f 5a c0	 cvtsd2ss xmm0, xmm0
  0063b	51		 push	 ecx
  0063c	f3 0f 11 04 24	 movss	 DWORD PTR [esp], xmm0
  00641	a1 00 00 00 00	 mov	 eax, DWORD PTR ?main_3d_env@@3PAUENV_3D@@A ; main_3d_env
  00646	50		 push	 eax
  00647	e8 00 00 00 00	 call	 ?set_3d_origin@@YGXPAUENV_3D@@MM@Z ; set_3d_origin

; 261  : 
; 262  : 	set_3d_viewcone ( main_3d_env, full_screen_width, full_screen_height, rad ( 59.99 ), rad ( 46.82 ) );

  0064c	51		 push	 ecx
  0064d	f3 0f 10 05 00
	00 00 00	 movss	 xmm0, DWORD PTR __real@3f51319b
  00655	f3 0f 11 04 24	 movss	 DWORD PTR [esp], xmm0
  0065a	51		 push	 ecx
  0065b	f3 0f 10 05 00
	00 00 00	 movss	 xmm0, DWORD PTR __real@3f8604da
  00663	f3 0f 11 04 24	 movss	 DWORD PTR [esp], xmm0
  00668	51		 push	 ecx
  00669	f3 0f 10 05 00
	00 00 00	 movss	 xmm0, DWORD PTR ?full_screen_height@@3MA
  00671	f3 0f 11 04 24	 movss	 DWORD PTR [esp], xmm0
  00676	51		 push	 ecx
  00677	f3 0f 10 05 00
	00 00 00	 movss	 xmm0, DWORD PTR ?full_screen_width@@3MA
  0067f	f3 0f 11 04 24	 movss	 DWORD PTR [esp], xmm0
  00684	a1 00 00 00 00	 mov	 eax, DWORD PTR ?main_3d_env@@3PAUENV_3D@@A ; main_3d_env
  00689	50		 push	 eax
  0068a	e8 00 00 00 00	 call	 ?set_3d_viewcone@@YGXPAUENV_3D@@MMMM@Z ; set_3d_viewcone

; 263  : 
; 264  : #if RECOGNITION_GUIDE
; 265  : 	set_3d_view_distances ( main_3d_env, 10000.0, 100.0, 1.0, 0.0 );
; 266  : #else
; 267  : 	set_3d_view_distances ( main_3d_env, 10000.0, 1.0, 1.0, 0.0 );

  0068f	51		 push	 ecx
  00690	0f 57 c0	 xorps	 xmm0, xmm0
  00693	f3 0f 11 04 24	 movss	 DWORD PTR [esp], xmm0
  00698	51		 push	 ecx
  00699	f3 0f 10 05 00
	00 00 00	 movss	 xmm0, DWORD PTR __real@3f800000
  006a1	f3 0f 11 04 24	 movss	 DWORD PTR [esp], xmm0
  006a6	51		 push	 ecx
  006a7	f3 0f 10 05 00
	00 00 00	 movss	 xmm0, DWORD PTR __real@3f800000
  006af	f3 0f 11 04 24	 movss	 DWORD PTR [esp], xmm0
  006b4	51		 push	 ecx
  006b5	f3 0f 10 05 00
	00 00 00	 movss	 xmm0, DWORD PTR __real@461c4000
  006bd	f3 0f 11 04 24	 movss	 DWORD PTR [esp], xmm0
  006c2	a1 00 00 00 00	 mov	 eax, DWORD PTR ?main_3d_env@@3PAUENV_3D@@A ; main_3d_env
  006c7	50		 push	 eax
  006c8	e8 00 00 00 00	 call	 ?set_3d_view_distances@@YGXPAUENV_3D@@MMMM@Z ; set_3d_view_distances

; 268  : #endif
; 269  : 
; 270  : 	//
; 271  : 	// Initialise the ambient lighting system for the environment
; 272  : 	//
; 273  : 
; 274  : 	{
; 275  : 
; 276  : 		rgb_colour
; 277  : 			ambient_colour[8];
; 278  : 
; 279  : 		set_rgb_colour ( ambient_colour[0], 50, 50, 63, 0 );

  006cd	b8 04 00 00 00	 mov	 eax, 4
  006d2	6b c8 00	 imul	 ecx, eax, 0
  006d5	c6 44 0d de 32	 mov	 BYTE PTR _ambient_colour$16[ebp+ecx+2], 50 ; 00000032H
  006da	b8 04 00 00 00	 mov	 eax, 4
  006df	6b c8 00	 imul	 ecx, eax, 0
  006e2	c6 44 0d dd 32	 mov	 BYTE PTR _ambient_colour$16[ebp+ecx+1], 50 ; 00000032H
  006e7	b8 04 00 00 00	 mov	 eax, 4
  006ec	6b c8 00	 imul	 ecx, eax, 0
  006ef	c6 44 0d dc 3f	 mov	 BYTE PTR _ambient_colour$16[ebp+ecx], 63 ; 0000003fH
  006f4	b8 04 00 00 00	 mov	 eax, 4
  006f9	6b c8 00	 imul	 ecx, eax, 0
  006fc	c6 44 0d df 00	 mov	 BYTE PTR _ambient_colour$16[ebp+ecx+3], 0

; 280  : 		set_rgb_colour ( ambient_colour[1], 90, 97, 118, 0 );

  00701	b8 04 00 00 00	 mov	 eax, 4
  00706	c1 e0 00	 shl	 eax, 0
  00709	c6 44 05 de 5a	 mov	 BYTE PTR _ambient_colour$16[ebp+eax+2], 90 ; 0000005aH
  0070e	b8 04 00 00 00	 mov	 eax, 4
  00713	c1 e0 00	 shl	 eax, 0
  00716	c6 44 05 dd 61	 mov	 BYTE PTR _ambient_colour$16[ebp+eax+1], 97 ; 00000061H
  0071b	b8 04 00 00 00	 mov	 eax, 4
  00720	c1 e0 00	 shl	 eax, 0
  00723	c6 44 05 dc 76	 mov	 BYTE PTR _ambient_colour$16[ebp+eax], 118 ; 00000076H
  00728	b8 04 00 00 00	 mov	 eax, 4
  0072d	c1 e0 00	 shl	 eax, 0
  00730	c6 44 05 df 00	 mov	 BYTE PTR _ambient_colour$16[ebp+eax+3], 0

; 281  : 		set_rgb_colour ( ambient_colour[2], 127, 127, 127, 0 );

  00735	b8 04 00 00 00	 mov	 eax, 4
  0073a	d1 e0		 shl	 eax, 1
  0073c	c6 44 05 de 7f	 mov	 BYTE PTR _ambient_colour$16[ebp+eax+2], 127 ; 0000007fH
  00741	b8 04 00 00 00	 mov	 eax, 4
  00746	d1 e0		 shl	 eax, 1
  00748	c6 44 05 dd 7f	 mov	 BYTE PTR _ambient_colour$16[ebp+eax+1], 127 ; 0000007fH
  0074d	b8 04 00 00 00	 mov	 eax, 4
  00752	d1 e0		 shl	 eax, 1
  00754	c6 44 05 dc 7f	 mov	 BYTE PTR _ambient_colour$16[ebp+eax], 127 ; 0000007fH
  00759	b8 04 00 00 00	 mov	 eax, 4
  0075e	d1 e0		 shl	 eax, 1
  00760	c6 44 05 df 00	 mov	 BYTE PTR _ambient_colour$16[ebp+eax+3], 0

; 282  : 		set_rgb_colour ( ambient_colour[3], 85, 100, 110, 0 );

  00765	b8 04 00 00 00	 mov	 eax, 4
  0076a	6b c8 03	 imul	 ecx, eax, 3
  0076d	c6 44 0d de 55	 mov	 BYTE PTR _ambient_colour$16[ebp+ecx+2], 85 ; 00000055H
  00772	b8 04 00 00 00	 mov	 eax, 4
  00777	6b c8 03	 imul	 ecx, eax, 3
  0077a	c6 44 0d dd 64	 mov	 BYTE PTR _ambient_colour$16[ebp+ecx+1], 100 ; 00000064H
  0077f	b8 04 00 00 00	 mov	 eax, 4
  00784	6b c8 03	 imul	 ecx, eax, 3
  00787	c6 44 0d dc 6e	 mov	 BYTE PTR _ambient_colour$16[ebp+ecx], 110 ; 0000006eH
  0078c	b8 04 00 00 00	 mov	 eax, 4
  00791	6b c8 03	 imul	 ecx, eax, 3
  00794	c6 44 0d df 00	 mov	 BYTE PTR _ambient_colour$16[ebp+ecx+3], 0

; 283  : 		set_rgb_colour ( ambient_colour[4], 100, 40, 20, 0 );

  00799	b8 04 00 00 00	 mov	 eax, 4
  0079e	c1 e0 02	 shl	 eax, 2
  007a1	c6 44 05 de 64	 mov	 BYTE PTR _ambient_colour$16[ebp+eax+2], 100 ; 00000064H
  007a6	b8 04 00 00 00	 mov	 eax, 4
  007ab	c1 e0 02	 shl	 eax, 2
  007ae	c6 44 05 dd 28	 mov	 BYTE PTR _ambient_colour$16[ebp+eax+1], 40 ; 00000028H
  007b3	b8 04 00 00 00	 mov	 eax, 4
  007b8	c1 e0 02	 shl	 eax, 2
  007bb	c6 44 05 dc 14	 mov	 BYTE PTR _ambient_colour$16[ebp+eax], 20 ; 00000014H
  007c0	b8 04 00 00 00	 mov	 eax, 4
  007c5	c1 e0 02	 shl	 eax, 2
  007c8	c6 44 05 df 00	 mov	 BYTE PTR _ambient_colour$16[ebp+eax+3], 0

; 284  : 		set_rgb_colour ( ambient_colour[5], 9, 34, 50, 0 );

  007cd	b8 04 00 00 00	 mov	 eax, 4
  007d2	6b c8 05	 imul	 ecx, eax, 5
  007d5	c6 44 0d de 09	 mov	 BYTE PTR _ambient_colour$16[ebp+ecx+2], 9
  007da	b8 04 00 00 00	 mov	 eax, 4
  007df	6b c8 05	 imul	 ecx, eax, 5
  007e2	c6 44 0d dd 22	 mov	 BYTE PTR _ambient_colour$16[ebp+ecx+1], 34 ; 00000022H
  007e7	b8 04 00 00 00	 mov	 eax, 4
  007ec	6b c8 05	 imul	 ecx, eax, 5
  007ef	c6 44 0d dc 32	 mov	 BYTE PTR _ambient_colour$16[ebp+ecx], 50 ; 00000032H
  007f4	b8 04 00 00 00	 mov	 eax, 4
  007f9	6b c8 05	 imul	 ecx, eax, 5
  007fc	c6 44 0d df 00	 mov	 BYTE PTR _ambient_colour$16[ebp+ecx+3], 0

; 285  : 		set_rgb_colour ( ambient_colour[6], 51, 51, 61, 0 );

  00801	b8 04 00 00 00	 mov	 eax, 4
  00806	6b c8 06	 imul	 ecx, eax, 6
  00809	c6 44 0d de 33	 mov	 BYTE PTR _ambient_colour$16[ebp+ecx+2], 51 ; 00000033H
  0080e	b8 04 00 00 00	 mov	 eax, 4
  00813	6b c8 06	 imul	 ecx, eax, 6
  00816	c6 44 0d dd 33	 mov	 BYTE PTR _ambient_colour$16[ebp+ecx+1], 51 ; 00000033H
  0081b	b8 04 00 00 00	 mov	 eax, 4
  00820	6b c8 06	 imul	 ecx, eax, 6
  00823	c6 44 0d dc 3d	 mov	 BYTE PTR _ambient_colour$16[ebp+ecx], 61 ; 0000003dH
  00828	b8 04 00 00 00	 mov	 eax, 4
  0082d	6b c8 06	 imul	 ecx, eax, 6
  00830	c6 44 0d df 00	 mov	 BYTE PTR _ambient_colour$16[ebp+ecx+3], 0

; 286  : 		set_rgb_colour ( ambient_colour[7], 53, 53, 53, 0 );

  00835	b8 04 00 00 00	 mov	 eax, 4
  0083a	6b c8 07	 imul	 ecx, eax, 7
  0083d	c6 44 0d de 35	 mov	 BYTE PTR _ambient_colour$16[ebp+ecx+2], 53 ; 00000035H
  00842	b8 04 00 00 00	 mov	 eax, 4
  00847	6b c8 07	 imul	 ecx, eax, 7
  0084a	c6 44 0d dd 35	 mov	 BYTE PTR _ambient_colour$16[ebp+ecx+1], 53 ; 00000035H
  0084f	b8 04 00 00 00	 mov	 eax, 4
  00854	6b c8 07	 imul	 ecx, eax, 7
  00857	c6 44 0d dc 35	 mov	 BYTE PTR _ambient_colour$16[ebp+ecx], 53 ; 00000035H
  0085c	b8 04 00 00 00	 mov	 eax, 4
  00861	6b c8 07	 imul	 ecx, eax, 7
  00864	c6 44 0d df 00	 mov	 BYTE PTR _ambient_colour$16[ebp+ecx+3], 0

; 287  : 
; 288  : #if RECOGNITION_GUIDE
; 289  : 		set_rgb_colour ( ambient_colour[0], 224, 224, 224, 0 );
; 290  : 		set_rgb_colour ( ambient_colour[1], 224, 224, 224, 0 );
; 291  : 		set_rgb_colour ( ambient_colour[2], 224, 224, 224, 0 );
; 292  : 		set_rgb_colour ( ambient_colour[3], 224, 224, 224, 0 );
; 293  : 		set_rgb_colour ( ambient_colour[4], 224, 224, 224, 0 );
; 294  : 		set_rgb_colour ( ambient_colour[5], 224, 224, 224, 0 );
; 295  : 		set_rgb_colour ( ambient_colour[6], 224, 224, 224, 0 );
; 296  : 		set_rgb_colour ( ambient_colour[7], 224, 224, 224, 0 );
; 297  : #endif
; 298  :     //VJ060920 night light level mod
; 299  : 		add_3d_ambient_light_setting ( main_3d_env, WEATHERMODE_DRY, ambient_colour[0], 0.75, SUN_RISE_START_TIME );

  00869	51		 push	 ecx
  0086a	f3 0f 10 05 00
	00 00 00	 movss	 xmm0, DWORD PTR __real@46a8c000
  00872	f3 0f 11 04 24	 movss	 DWORD PTR [esp], xmm0
  00877	51		 push	 ecx
  00878	f3 0f 10 05 00
	00 00 00	 movss	 xmm0, DWORD PTR __real@3f400000
  00880	f3 0f 11 04 24	 movss	 DWORD PTR [esp], xmm0
  00885	b8 04 00 00 00	 mov	 eax, 4
  0088a	6b c8 00	 imul	 ecx, eax, 0
  0088d	8b 54 0d dc	 mov	 edx, DWORD PTR _ambient_colour$16[ebp+ecx]
  00891	52		 push	 edx
  00892	6a 01		 push	 1
  00894	a1 00 00 00 00	 mov	 eax, DWORD PTR ?main_3d_env@@3PAUENV_3D@@A ; main_3d_env
  00899	50		 push	 eax
  0089a	e8 00 00 00 00	 call	 ?add_3d_ambient_light_setting@@YGXPAUENV_3D@@W4WEATHERMODES@@UREAL_COLOUR@@MM@Z ; add_3d_ambient_light_setting

; 300  : 		add_3d_ambient_light_setting ( main_3d_env, WEATHERMODE_DRY, ambient_colour[1], 0.75, SUN_RISE_END_TIME );

  0089f	51		 push	 ecx
  008a0	f3 0f 10 05 00
	00 00 00	 movss	 xmm0, DWORD PTR __real@46fd2000
  008a8	f3 0f 11 04 24	 movss	 DWORD PTR [esp], xmm0
  008ad	51		 push	 ecx
  008ae	f3 0f 10 05 00
	00 00 00	 movss	 xmm0, DWORD PTR __real@3f400000
  008b6	f3 0f 11 04 24	 movss	 DWORD PTR [esp], xmm0
  008bb	b8 04 00 00 00	 mov	 eax, 4
  008c0	c1 e0 00	 shl	 eax, 0
  008c3	8b 4c 05 dc	 mov	 ecx, DWORD PTR _ambient_colour$16[ebp+eax]
  008c7	51		 push	 ecx
  008c8	6a 01		 push	 1
  008ca	8b 15 00 00 00
	00		 mov	 edx, DWORD PTR ?main_3d_env@@3PAUENV_3D@@A ; main_3d_env
  008d0	52		 push	 edx
  008d1	e8 00 00 00 00	 call	 ?add_3d_ambient_light_setting@@YGXPAUENV_3D@@W4WEATHERMODES@@UREAL_COLOUR@@MM@Z ; add_3d_ambient_light_setting

; 301  : 		add_3d_ambient_light_setting ( main_3d_env, WEATHERMODE_DRY, ambient_colour[2], 0.75, MIDDAY_TIME );

  008d6	51		 push	 ecx
  008d7	f3 0f 10 05 00
	00 00 00	 movss	 xmm0, DWORD PTR __real@4728c000
  008df	f3 0f 11 04 24	 movss	 DWORD PTR [esp], xmm0
  008e4	51		 push	 ecx
  008e5	f3 0f 10 05 00
	00 00 00	 movss	 xmm0, DWORD PTR __real@3f400000
  008ed	f3 0f 11 04 24	 movss	 DWORD PTR [esp], xmm0
  008f2	b8 04 00 00 00	 mov	 eax, 4
  008f7	d1 e0		 shl	 eax, 1
  008f9	8b 4c 05 dc	 mov	 ecx, DWORD PTR _ambient_colour$16[ebp+eax]
  008fd	51		 push	 ecx
  008fe	6a 01		 push	 1
  00900	8b 15 00 00 00
	00		 mov	 edx, DWORD PTR ?main_3d_env@@3PAUENV_3D@@A ; main_3d_env
  00906	52		 push	 edx
  00907	e8 00 00 00 00	 call	 ?add_3d_ambient_light_setting@@YGXPAUENV_3D@@W4WEATHERMODES@@UREAL_COLOUR@@MM@Z ; add_3d_ambient_light_setting

; 302  : 		add_3d_ambient_light_setting ( main_3d_env, WEATHERMODE_DRY, ambient_colour[3], 0.75, SUN_SET_START_TIME );

  0090c	51		 push	 ecx
  0090d	f3 0f 10 05 00
	00 00 00	 movss	 xmm0, DWORD PTR __real@476f1000
  00915	f3 0f 11 04 24	 movss	 DWORD PTR [esp], xmm0
  0091a	51		 push	 ecx
  0091b	f3 0f 10 05 00
	00 00 00	 movss	 xmm0, DWORD PTR __real@3f400000
  00923	f3 0f 11 04 24	 movss	 DWORD PTR [esp], xmm0
  00928	b8 04 00 00 00	 mov	 eax, 4
  0092d	6b c8 03	 imul	 ecx, eax, 3
  00930	8b 54 0d dc	 mov	 edx, DWORD PTR _ambient_colour$16[ebp+ecx]
  00934	52		 push	 edx
  00935	6a 01		 push	 1
  00937	a1 00 00 00 00	 mov	 eax, DWORD PTR ?main_3d_env@@3PAUENV_3D@@A ; main_3d_env
  0093c	50		 push	 eax
  0093d	e8 00 00 00 00	 call	 ?add_3d_ambient_light_setting@@YGXPAUENV_3D@@W4WEATHERMODES@@UREAL_COLOUR@@MM@Z ; add_3d_ambient_light_setting

; 303  : 		add_3d_ambient_light_setting ( main_3d_env, WEATHERMODE_DRY, ambient_colour[4], 0.75, SUN_SET_END_TIME );

  00942	51		 push	 ecx
  00943	f3 0f 10 05 00
	00 00 00	 movss	 xmm0, DWORD PTR __real@47891c00
  0094b	f3 0f 11 04 24	 movss	 DWORD PTR [esp], xmm0
  00950	51		 push	 ecx
  00951	f3 0f 10 05 00
	00 00 00	 movss	 xmm0, DWORD PTR __real@3f400000
  00959	f3 0f 11 04 24	 movss	 DWORD PTR [esp], xmm0
  0095e	b8 04 00 00 00	 mov	 eax, 4
  00963	c1 e0 02	 shl	 eax, 2
  00966	8b 4c 05 dc	 mov	 ecx, DWORD PTR _ambient_colour$16[ebp+eax]
  0096a	51		 push	 ecx
  0096b	6a 01		 push	 1
  0096d	8b 15 00 00 00
	00		 mov	 edx, DWORD PTR ?main_3d_env@@3PAUENV_3D@@A ; main_3d_env
  00973	52		 push	 edx
  00974	e8 00 00 00 00	 call	 ?add_3d_ambient_light_setting@@YGXPAUENV_3D@@W4WEATHERMODES@@UREAL_COLOUR@@MM@Z ; add_3d_ambient_light_setting

; 304  : 		add_3d_ambient_light_setting ( main_3d_env, WEATHERMODE_DRY, ambient_colour[5], 0.75, TWILIGHT_TIME );

  00979	51		 push	 ecx
  0097a	f3 0f 10 05 00
	00 00 00	 movss	 xmm0, DWORD PTR __real@479ab000
  00982	f3 0f 11 04 24	 movss	 DWORD PTR [esp], xmm0
  00987	51		 push	 ecx
  00988	f3 0f 10 05 00
	00 00 00	 movss	 xmm0, DWORD PTR __real@3f400000
  00990	f3 0f 11 04 24	 movss	 DWORD PTR [esp], xmm0
  00995	b8 04 00 00 00	 mov	 eax, 4
  0099a	6b c8 05	 imul	 ecx, eax, 5
  0099d	8b 54 0d dc	 mov	 edx, DWORD PTR _ambient_colour$16[ebp+ecx]
  009a1	52		 push	 edx
  009a2	6a 01		 push	 1
  009a4	a1 00 00 00 00	 mov	 eax, DWORD PTR ?main_3d_env@@3PAUENV_3D@@A ; main_3d_env
  009a9	50		 push	 eax
  009aa	e8 00 00 00 00	 call	 ?add_3d_ambient_light_setting@@YGXPAUENV_3D@@W4WEATHERMODES@@UREAL_COLOUR@@MM@Z ; add_3d_ambient_light_setting

; 305  : 		add_3d_ambient_light_setting ( main_3d_env, WEATHERMODE_DRY, ambient_colour[5], 0.75*light_level, MIDNIGHT_TIME );

  009af	51		 push	 ecx
  009b0	0f 57 c0	 xorps	 xmm0, xmm0
  009b3	f3 0f 11 04 24	 movss	 DWORD PTR [esp], xmm0
  009b8	f3 0f 5a 45 fc	 cvtss2sd xmm0, DWORD PTR _light_level$[ebp]
  009bd	f2 0f 59 05 00
	00 00 00	 mulsd	 xmm0, QWORD PTR __real@3fe8000000000000
  009c5	f2 0f 5a c0	 cvtsd2ss xmm0, xmm0
  009c9	51		 push	 ecx
  009ca	f3 0f 11 04 24	 movss	 DWORD PTR [esp], xmm0
  009cf	b8 04 00 00 00	 mov	 eax, 4
  009d4	6b c8 05	 imul	 ecx, eax, 5
  009d7	8b 54 0d dc	 mov	 edx, DWORD PTR _ambient_colour$16[ebp+ecx]
  009db	52		 push	 edx
  009dc	6a 01		 push	 1
  009de	a1 00 00 00 00	 mov	 eax, DWORD PTR ?main_3d_env@@3PAUENV_3D@@A ; main_3d_env
  009e3	50		 push	 eax
  009e4	e8 00 00 00 00	 call	 ?add_3d_ambient_light_setting@@YGXPAUENV_3D@@W4WEATHERMODES@@UREAL_COLOUR@@MM@Z ; add_3d_ambient_light_setting

; 306  : 		add_3d_ambient_light_setting ( main_3d_env, WEATHERMODE_DRY, ambient_colour[5], 0.75*light_level, NIGHT_TIME );

  009e9	51		 push	 ecx
  009ea	f3 0f 10 05 00
	00 00 00	 movss	 xmm0, DWORD PTR __real@467d2000
  009f2	f3 0f 11 04 24	 movss	 DWORD PTR [esp], xmm0
  009f7	f3 0f 5a 45 fc	 cvtss2sd xmm0, DWORD PTR _light_level$[ebp]
  009fc	f2 0f 59 05 00
	00 00 00	 mulsd	 xmm0, QWORD PTR __real@3fe8000000000000
  00a04	f2 0f 5a c0	 cvtsd2ss xmm0, xmm0
  00a08	51		 push	 ecx
  00a09	f3 0f 11 04 24	 movss	 DWORD PTR [esp], xmm0
  00a0e	b8 04 00 00 00	 mov	 eax, 4
  00a13	6b c8 05	 imul	 ecx, eax, 5
  00a16	8b 54 0d dc	 mov	 edx, DWORD PTR _ambient_colour$16[ebp+ecx]
  00a1a	52		 push	 edx
  00a1b	6a 01		 push	 1
  00a1d	a1 00 00 00 00	 mov	 eax, DWORD PTR ?main_3d_env@@3PAUENV_3D@@A ; main_3d_env
  00a22	50		 push	 eax
  00a23	e8 00 00 00 00	 call	 ?add_3d_ambient_light_setting@@YGXPAUENV_3D@@W4WEATHERMODES@@UREAL_COLOUR@@MM@Z ; add_3d_ambient_light_setting

; 307  : 
; 308  : 		add_3d_ambient_light_setting ( main_3d_env, WEATHERMODE_LIGHT_RAIN, ambient_colour[6], 0.675, SUN_RISE_START_TIME );

  00a28	51		 push	 ecx
  00a29	f3 0f 10 05 00
	00 00 00	 movss	 xmm0, DWORD PTR __real@46a8c000
  00a31	f3 0f 11 04 24	 movss	 DWORD PTR [esp], xmm0
  00a36	51		 push	 ecx
  00a37	f3 0f 10 05 00
	00 00 00	 movss	 xmm0, DWORD PTR __real@3f2ccccd
  00a3f	f3 0f 11 04 24	 movss	 DWORD PTR [esp], xmm0
  00a44	b8 04 00 00 00	 mov	 eax, 4
  00a49	6b c8 06	 imul	 ecx, eax, 6
  00a4c	8b 54 0d dc	 mov	 edx, DWORD PTR _ambient_colour$16[ebp+ecx]
  00a50	52		 push	 edx
  00a51	6a 02		 push	 2
  00a53	a1 00 00 00 00	 mov	 eax, DWORD PTR ?main_3d_env@@3PAUENV_3D@@A ; main_3d_env
  00a58	50		 push	 eax
  00a59	e8 00 00 00 00	 call	 ?add_3d_ambient_light_setting@@YGXPAUENV_3D@@W4WEATHERMODES@@UREAL_COLOUR@@MM@Z ; add_3d_ambient_light_setting

; 309  : 		add_3d_ambient_light_setting ( main_3d_env, WEATHERMODE_LIGHT_RAIN, ambient_colour[1], 0.675, SUN_RISE_END_TIME );

  00a5e	51		 push	 ecx
  00a5f	f3 0f 10 05 00
	00 00 00	 movss	 xmm0, DWORD PTR __real@46fd2000
  00a67	f3 0f 11 04 24	 movss	 DWORD PTR [esp], xmm0
  00a6c	51		 push	 ecx
  00a6d	f3 0f 10 05 00
	00 00 00	 movss	 xmm0, DWORD PTR __real@3f2ccccd
  00a75	f3 0f 11 04 24	 movss	 DWORD PTR [esp], xmm0
  00a7a	b8 04 00 00 00	 mov	 eax, 4
  00a7f	c1 e0 00	 shl	 eax, 0
  00a82	8b 4c 05 dc	 mov	 ecx, DWORD PTR _ambient_colour$16[ebp+eax]
  00a86	51		 push	 ecx
  00a87	6a 02		 push	 2
  00a89	8b 15 00 00 00
	00		 mov	 edx, DWORD PTR ?main_3d_env@@3PAUENV_3D@@A ; main_3d_env
  00a8f	52		 push	 edx
  00a90	e8 00 00 00 00	 call	 ?add_3d_ambient_light_setting@@YGXPAUENV_3D@@W4WEATHERMODES@@UREAL_COLOUR@@MM@Z ; add_3d_ambient_light_setting

; 310  : 		add_3d_ambient_light_setting ( main_3d_env, WEATHERMODE_LIGHT_RAIN, ambient_colour[2], 0.675, MIDDAY_TIME );

  00a95	51		 push	 ecx
  00a96	f3 0f 10 05 00
	00 00 00	 movss	 xmm0, DWORD PTR __real@4728c000
  00a9e	f3 0f 11 04 24	 movss	 DWORD PTR [esp], xmm0
  00aa3	51		 push	 ecx
  00aa4	f3 0f 10 05 00
	00 00 00	 movss	 xmm0, DWORD PTR __real@3f2ccccd
  00aac	f3 0f 11 04 24	 movss	 DWORD PTR [esp], xmm0
  00ab1	b8 04 00 00 00	 mov	 eax, 4
  00ab6	d1 e0		 shl	 eax, 1
  00ab8	8b 4c 05 dc	 mov	 ecx, DWORD PTR _ambient_colour$16[ebp+eax]
  00abc	51		 push	 ecx
  00abd	6a 02		 push	 2
  00abf	8b 15 00 00 00
	00		 mov	 edx, DWORD PTR ?main_3d_env@@3PAUENV_3D@@A ; main_3d_env
  00ac5	52		 push	 edx
  00ac6	e8 00 00 00 00	 call	 ?add_3d_ambient_light_setting@@YGXPAUENV_3D@@W4WEATHERMODES@@UREAL_COLOUR@@MM@Z ; add_3d_ambient_light_setting

; 311  : 		add_3d_ambient_light_setting ( main_3d_env, WEATHERMODE_LIGHT_RAIN, ambient_colour[3], 0.675, SUN_SET_START_TIME );

  00acb	51		 push	 ecx
  00acc	f3 0f 10 05 00
	00 00 00	 movss	 xmm0, DWORD PTR __real@476f1000
  00ad4	f3 0f 11 04 24	 movss	 DWORD PTR [esp], xmm0
  00ad9	51		 push	 ecx
  00ada	f3 0f 10 05 00
	00 00 00	 movss	 xmm0, DWORD PTR __real@3f2ccccd
  00ae2	f3 0f 11 04 24	 movss	 DWORD PTR [esp], xmm0
  00ae7	b8 04 00 00 00	 mov	 eax, 4
  00aec	6b c8 03	 imul	 ecx, eax, 3
  00aef	8b 54 0d dc	 mov	 edx, DWORD PTR _ambient_colour$16[ebp+ecx]
  00af3	52		 push	 edx
  00af4	6a 02		 push	 2
  00af6	a1 00 00 00 00	 mov	 eax, DWORD PTR ?main_3d_env@@3PAUENV_3D@@A ; main_3d_env
  00afb	50		 push	 eax
  00afc	e8 00 00 00 00	 call	 ?add_3d_ambient_light_setting@@YGXPAUENV_3D@@W4WEATHERMODES@@UREAL_COLOUR@@MM@Z ; add_3d_ambient_light_setting

; 312  : 		add_3d_ambient_light_setting ( main_3d_env, WEATHERMODE_LIGHT_RAIN, ambient_colour[7], 0.675, SUN_SET_END_TIME );

  00b01	51		 push	 ecx
  00b02	f3 0f 10 05 00
	00 00 00	 movss	 xmm0, DWORD PTR __real@47891c00
  00b0a	f3 0f 11 04 24	 movss	 DWORD PTR [esp], xmm0
  00b0f	51		 push	 ecx
  00b10	f3 0f 10 05 00
	00 00 00	 movss	 xmm0, DWORD PTR __real@3f2ccccd
  00b18	f3 0f 11 04 24	 movss	 DWORD PTR [esp], xmm0
  00b1d	b8 04 00 00 00	 mov	 eax, 4
  00b22	6b c8 07	 imul	 ecx, eax, 7
  00b25	8b 54 0d dc	 mov	 edx, DWORD PTR _ambient_colour$16[ebp+ecx]
  00b29	52		 push	 edx
  00b2a	6a 02		 push	 2
  00b2c	a1 00 00 00 00	 mov	 eax, DWORD PTR ?main_3d_env@@3PAUENV_3D@@A ; main_3d_env
  00b31	50		 push	 eax
  00b32	e8 00 00 00 00	 call	 ?add_3d_ambient_light_setting@@YGXPAUENV_3D@@W4WEATHERMODES@@UREAL_COLOUR@@MM@Z ; add_3d_ambient_light_setting

; 313  : 		add_3d_ambient_light_setting ( main_3d_env, WEATHERMODE_LIGHT_RAIN, ambient_colour[5], 0.675, TWILIGHT_TIME );

  00b37	51		 push	 ecx
  00b38	f3 0f 10 05 00
	00 00 00	 movss	 xmm0, DWORD PTR __real@479ab000
  00b40	f3 0f 11 04 24	 movss	 DWORD PTR [esp], xmm0
  00b45	51		 push	 ecx
  00b46	f3 0f 10 05 00
	00 00 00	 movss	 xmm0, DWORD PTR __real@3f2ccccd
  00b4e	f3 0f 11 04 24	 movss	 DWORD PTR [esp], xmm0
  00b53	b8 04 00 00 00	 mov	 eax, 4
  00b58	6b c8 05	 imul	 ecx, eax, 5
  00b5b	8b 54 0d dc	 mov	 edx, DWORD PTR _ambient_colour$16[ebp+ecx]
  00b5f	52		 push	 edx
  00b60	6a 02		 push	 2
  00b62	a1 00 00 00 00	 mov	 eax, DWORD PTR ?main_3d_env@@3PAUENV_3D@@A ; main_3d_env
  00b67	50		 push	 eax
  00b68	e8 00 00 00 00	 call	 ?add_3d_ambient_light_setting@@YGXPAUENV_3D@@W4WEATHERMODES@@UREAL_COLOUR@@MM@Z ; add_3d_ambient_light_setting

; 314  : 		add_3d_ambient_light_setting ( main_3d_env, WEATHERMODE_LIGHT_RAIN, ambient_colour[5], 0.675*light_level, MIDNIGHT_TIME );

  00b6d	51		 push	 ecx
  00b6e	0f 57 c0	 xorps	 xmm0, xmm0
  00b71	f3 0f 11 04 24	 movss	 DWORD PTR [esp], xmm0
  00b76	f3 0f 5a 45 fc	 cvtss2sd xmm0, DWORD PTR _light_level$[ebp]
  00b7b	f2 0f 59 05 00
	00 00 00	 mulsd	 xmm0, QWORD PTR __real@3fe599999999999a
  00b83	f2 0f 5a c0	 cvtsd2ss xmm0, xmm0
  00b87	51		 push	 ecx
  00b88	f3 0f 11 04 24	 movss	 DWORD PTR [esp], xmm0
  00b8d	b8 04 00 00 00	 mov	 eax, 4
  00b92	6b c8 05	 imul	 ecx, eax, 5
  00b95	8b 54 0d dc	 mov	 edx, DWORD PTR _ambient_colour$16[ebp+ecx]
  00b99	52		 push	 edx
  00b9a	6a 02		 push	 2
  00b9c	a1 00 00 00 00	 mov	 eax, DWORD PTR ?main_3d_env@@3PAUENV_3D@@A ; main_3d_env
  00ba1	50		 push	 eax
  00ba2	e8 00 00 00 00	 call	 ?add_3d_ambient_light_setting@@YGXPAUENV_3D@@W4WEATHERMODES@@UREAL_COLOUR@@MM@Z ; add_3d_ambient_light_setting

; 315  : 		add_3d_ambient_light_setting ( main_3d_env, WEATHERMODE_LIGHT_RAIN, ambient_colour[5], 0.675*light_level, NIGHT_TIME );

  00ba7	51		 push	 ecx
  00ba8	f3 0f 10 05 00
	00 00 00	 movss	 xmm0, DWORD PTR __real@467d2000
  00bb0	f3 0f 11 04 24	 movss	 DWORD PTR [esp], xmm0
  00bb5	f3 0f 5a 45 fc	 cvtss2sd xmm0, DWORD PTR _light_level$[ebp]
  00bba	f2 0f 59 05 00
	00 00 00	 mulsd	 xmm0, QWORD PTR __real@3fe599999999999a
  00bc2	f2 0f 5a c0	 cvtsd2ss xmm0, xmm0
  00bc6	51		 push	 ecx
  00bc7	f3 0f 11 04 24	 movss	 DWORD PTR [esp], xmm0
  00bcc	b8 04 00 00 00	 mov	 eax, 4
  00bd1	6b c8 05	 imul	 ecx, eax, 5
  00bd4	8b 54 0d dc	 mov	 edx, DWORD PTR _ambient_colour$16[ebp+ecx]
  00bd8	52		 push	 edx
  00bd9	6a 02		 push	 2
  00bdb	a1 00 00 00 00	 mov	 eax, DWORD PTR ?main_3d_env@@3PAUENV_3D@@A ; main_3d_env
  00be0	50		 push	 eax
  00be1	e8 00 00 00 00	 call	 ?add_3d_ambient_light_setting@@YGXPAUENV_3D@@W4WEATHERMODES@@UREAL_COLOUR@@MM@Z ; add_3d_ambient_light_setting

; 316  : 
; 317  : 		add_3d_ambient_light_setting ( main_3d_env, WEATHERMODE_HEAVY_RAIN, ambient_colour[6], 0.525, SUN_RISE_START_TIME );

  00be6	51		 push	 ecx
  00be7	f3 0f 10 05 00
	00 00 00	 movss	 xmm0, DWORD PTR __real@46a8c000
  00bef	f3 0f 11 04 24	 movss	 DWORD PTR [esp], xmm0
  00bf4	51		 push	 ecx
  00bf5	f3 0f 10 05 00
	00 00 00	 movss	 xmm0, DWORD PTR __real@3f066666
  00bfd	f3 0f 11 04 24	 movss	 DWORD PTR [esp], xmm0
  00c02	b8 04 00 00 00	 mov	 eax, 4
  00c07	6b c8 06	 imul	 ecx, eax, 6
  00c0a	8b 54 0d dc	 mov	 edx, DWORD PTR _ambient_colour$16[ebp+ecx]
  00c0e	52		 push	 edx
  00c0f	6a 03		 push	 3
  00c11	a1 00 00 00 00	 mov	 eax, DWORD PTR ?main_3d_env@@3PAUENV_3D@@A ; main_3d_env
  00c16	50		 push	 eax
  00c17	e8 00 00 00 00	 call	 ?add_3d_ambient_light_setting@@YGXPAUENV_3D@@W4WEATHERMODES@@UREAL_COLOUR@@MM@Z ; add_3d_ambient_light_setting

; 318  : 		add_3d_ambient_light_setting ( main_3d_env, WEATHERMODE_HEAVY_RAIN, ambient_colour[1], 0.525, SUN_RISE_END_TIME );

  00c1c	51		 push	 ecx
  00c1d	f3 0f 10 05 00
	00 00 00	 movss	 xmm0, DWORD PTR __real@46fd2000
  00c25	f3 0f 11 04 24	 movss	 DWORD PTR [esp], xmm0
  00c2a	51		 push	 ecx
  00c2b	f3 0f 10 05 00
	00 00 00	 movss	 xmm0, DWORD PTR __real@3f066666
  00c33	f3 0f 11 04 24	 movss	 DWORD PTR [esp], xmm0
  00c38	b8 04 00 00 00	 mov	 eax, 4
  00c3d	c1 e0 00	 shl	 eax, 0
  00c40	8b 4c 05 dc	 mov	 ecx, DWORD PTR _ambient_colour$16[ebp+eax]
  00c44	51		 push	 ecx
  00c45	6a 03		 push	 3
  00c47	8b 15 00 00 00
	00		 mov	 edx, DWORD PTR ?main_3d_env@@3PAUENV_3D@@A ; main_3d_env
  00c4d	52		 push	 edx
  00c4e	e8 00 00 00 00	 call	 ?add_3d_ambient_light_setting@@YGXPAUENV_3D@@W4WEATHERMODES@@UREAL_COLOUR@@MM@Z ; add_3d_ambient_light_setting

; 319  : 		add_3d_ambient_light_setting ( main_3d_env, WEATHERMODE_HEAVY_RAIN, ambient_colour[2], 0.525, MIDDAY_TIME );

  00c53	51		 push	 ecx
  00c54	f3 0f 10 05 00
	00 00 00	 movss	 xmm0, DWORD PTR __real@4728c000
  00c5c	f3 0f 11 04 24	 movss	 DWORD PTR [esp], xmm0
  00c61	51		 push	 ecx
  00c62	f3 0f 10 05 00
	00 00 00	 movss	 xmm0, DWORD PTR __real@3f066666
  00c6a	f3 0f 11 04 24	 movss	 DWORD PTR [esp], xmm0
  00c6f	b8 04 00 00 00	 mov	 eax, 4
  00c74	d1 e0		 shl	 eax, 1
  00c76	8b 4c 05 dc	 mov	 ecx, DWORD PTR _ambient_colour$16[ebp+eax]
  00c7a	51		 push	 ecx
  00c7b	6a 03		 push	 3
  00c7d	8b 15 00 00 00
	00		 mov	 edx, DWORD PTR ?main_3d_env@@3PAUENV_3D@@A ; main_3d_env
  00c83	52		 push	 edx
  00c84	e8 00 00 00 00	 call	 ?add_3d_ambient_light_setting@@YGXPAUENV_3D@@W4WEATHERMODES@@UREAL_COLOUR@@MM@Z ; add_3d_ambient_light_setting

; 320  : 		add_3d_ambient_light_setting ( main_3d_env, WEATHERMODE_HEAVY_RAIN, ambient_colour[3], 0.525, SUN_SET_START_TIME );

  00c89	51		 push	 ecx
  00c8a	f3 0f 10 05 00
	00 00 00	 movss	 xmm0, DWORD PTR __real@476f1000
  00c92	f3 0f 11 04 24	 movss	 DWORD PTR [esp], xmm0
  00c97	51		 push	 ecx
  00c98	f3 0f 10 05 00
	00 00 00	 movss	 xmm0, DWORD PTR __real@3f066666
  00ca0	f3 0f 11 04 24	 movss	 DWORD PTR [esp], xmm0
  00ca5	b8 04 00 00 00	 mov	 eax, 4
  00caa	6b c8 03	 imul	 ecx, eax, 3
  00cad	8b 54 0d dc	 mov	 edx, DWORD PTR _ambient_colour$16[ebp+ecx]
  00cb1	52		 push	 edx
  00cb2	6a 03		 push	 3
  00cb4	a1 00 00 00 00	 mov	 eax, DWORD PTR ?main_3d_env@@3PAUENV_3D@@A ; main_3d_env
  00cb9	50		 push	 eax
  00cba	e8 00 00 00 00	 call	 ?add_3d_ambient_light_setting@@YGXPAUENV_3D@@W4WEATHERMODES@@UREAL_COLOUR@@MM@Z ; add_3d_ambient_light_setting

; 321  : 		add_3d_ambient_light_setting ( main_3d_env, WEATHERMODE_HEAVY_RAIN, ambient_colour[7], 0.525, SUN_SET_END_TIME );

  00cbf	51		 push	 ecx
  00cc0	f3 0f 10 05 00
	00 00 00	 movss	 xmm0, DWORD PTR __real@47891c00
  00cc8	f3 0f 11 04 24	 movss	 DWORD PTR [esp], xmm0
  00ccd	51		 push	 ecx
  00cce	f3 0f 10 05 00
	00 00 00	 movss	 xmm0, DWORD PTR __real@3f066666
  00cd6	f3 0f 11 04 24	 movss	 DWORD PTR [esp], xmm0
  00cdb	b8 04 00 00 00	 mov	 eax, 4
  00ce0	6b c8 07	 imul	 ecx, eax, 7
  00ce3	8b 54 0d dc	 mov	 edx, DWORD PTR _ambient_colour$16[ebp+ecx]
  00ce7	52		 push	 edx
  00ce8	6a 03		 push	 3
  00cea	a1 00 00 00 00	 mov	 eax, DWORD PTR ?main_3d_env@@3PAUENV_3D@@A ; main_3d_env
  00cef	50		 push	 eax
  00cf0	e8 00 00 00 00	 call	 ?add_3d_ambient_light_setting@@YGXPAUENV_3D@@W4WEATHERMODES@@UREAL_COLOUR@@MM@Z ; add_3d_ambient_light_setting

; 322  : 		add_3d_ambient_light_setting ( main_3d_env, WEATHERMODE_HEAVY_RAIN, ambient_colour[5], 0.525, TWILIGHT_TIME );

  00cf5	51		 push	 ecx
  00cf6	f3 0f 10 05 00
	00 00 00	 movss	 xmm0, DWORD PTR __real@479ab000
  00cfe	f3 0f 11 04 24	 movss	 DWORD PTR [esp], xmm0
  00d03	51		 push	 ecx
  00d04	f3 0f 10 05 00
	00 00 00	 movss	 xmm0, DWORD PTR __real@3f066666
  00d0c	f3 0f 11 04 24	 movss	 DWORD PTR [esp], xmm0
  00d11	b8 04 00 00 00	 mov	 eax, 4
  00d16	6b c8 05	 imul	 ecx, eax, 5
  00d19	8b 54 0d dc	 mov	 edx, DWORD PTR _ambient_colour$16[ebp+ecx]
  00d1d	52		 push	 edx
  00d1e	6a 03		 push	 3
  00d20	a1 00 00 00 00	 mov	 eax, DWORD PTR ?main_3d_env@@3PAUENV_3D@@A ; main_3d_env
  00d25	50		 push	 eax
  00d26	e8 00 00 00 00	 call	 ?add_3d_ambient_light_setting@@YGXPAUENV_3D@@W4WEATHERMODES@@UREAL_COLOUR@@MM@Z ; add_3d_ambient_light_setting

; 323  : 		add_3d_ambient_light_setting ( main_3d_env, WEATHERMODE_HEAVY_RAIN, ambient_colour[5], 0.525*light_level, MIDNIGHT_TIME );

  00d2b	51		 push	 ecx
  00d2c	0f 57 c0	 xorps	 xmm0, xmm0
  00d2f	f3 0f 11 04 24	 movss	 DWORD PTR [esp], xmm0
  00d34	f3 0f 5a 45 fc	 cvtss2sd xmm0, DWORD PTR _light_level$[ebp]
  00d39	f2 0f 59 05 00
	00 00 00	 mulsd	 xmm0, QWORD PTR __real@3fe0cccccccccccd
  00d41	f2 0f 5a c0	 cvtsd2ss xmm0, xmm0
  00d45	51		 push	 ecx
  00d46	f3 0f 11 04 24	 movss	 DWORD PTR [esp], xmm0
  00d4b	b8 04 00 00 00	 mov	 eax, 4
  00d50	6b c8 05	 imul	 ecx, eax, 5
  00d53	8b 54 0d dc	 mov	 edx, DWORD PTR _ambient_colour$16[ebp+ecx]
  00d57	52		 push	 edx
  00d58	6a 03		 push	 3
  00d5a	a1 00 00 00 00	 mov	 eax, DWORD PTR ?main_3d_env@@3PAUENV_3D@@A ; main_3d_env
  00d5f	50		 push	 eax
  00d60	e8 00 00 00 00	 call	 ?add_3d_ambient_light_setting@@YGXPAUENV_3D@@W4WEATHERMODES@@UREAL_COLOUR@@MM@Z ; add_3d_ambient_light_setting

; 324  : 		add_3d_ambient_light_setting ( main_3d_env, WEATHERMODE_HEAVY_RAIN, ambient_colour[5], 0.525*light_level, NIGHT_TIME );

  00d65	51		 push	 ecx
  00d66	f3 0f 10 05 00
	00 00 00	 movss	 xmm0, DWORD PTR __real@467d2000
  00d6e	f3 0f 11 04 24	 movss	 DWORD PTR [esp], xmm0
  00d73	f3 0f 5a 45 fc	 cvtss2sd xmm0, DWORD PTR _light_level$[ebp]
  00d78	f2 0f 59 05 00
	00 00 00	 mulsd	 xmm0, QWORD PTR __real@3fe0cccccccccccd
  00d80	f2 0f 5a c0	 cvtsd2ss xmm0, xmm0
  00d84	51		 push	 ecx
  00d85	f3 0f 11 04 24	 movss	 DWORD PTR [esp], xmm0
  00d8a	b8 04 00 00 00	 mov	 eax, 4
  00d8f	6b c8 05	 imul	 ecx, eax, 5
  00d92	8b 54 0d dc	 mov	 edx, DWORD PTR _ambient_colour$16[ebp+ecx]
  00d96	52		 push	 edx
  00d97	6a 03		 push	 3
  00d99	a1 00 00 00 00	 mov	 eax, DWORD PTR ?main_3d_env@@3PAUENV_3D@@A ; main_3d_env
  00d9e	50		 push	 eax
  00d9f	e8 00 00 00 00	 call	 ?add_3d_ambient_light_setting@@YGXPAUENV_3D@@W4WEATHERMODES@@UREAL_COLOUR@@MM@Z ; add_3d_ambient_light_setting

; 325  : 
; 326  : 		add_3d_ambient_light_setting ( main_3d_env, WEATHERMODE_SNOW, ambient_colour[6], 0.6, SUN_RISE_START_TIME );

  00da4	51		 push	 ecx
  00da5	f3 0f 10 05 00
	00 00 00	 movss	 xmm0, DWORD PTR __real@46a8c000
  00dad	f3 0f 11 04 24	 movss	 DWORD PTR [esp], xmm0
  00db2	51		 push	 ecx
  00db3	f3 0f 10 05 00
	00 00 00	 movss	 xmm0, DWORD PTR __real@3f19999a
  00dbb	f3 0f 11 04 24	 movss	 DWORD PTR [esp], xmm0
  00dc0	b8 04 00 00 00	 mov	 eax, 4
  00dc5	6b c8 06	 imul	 ecx, eax, 6
  00dc8	8b 54 0d dc	 mov	 edx, DWORD PTR _ambient_colour$16[ebp+ecx]
  00dcc	52		 push	 edx
  00dcd	6a 04		 push	 4
  00dcf	a1 00 00 00 00	 mov	 eax, DWORD PTR ?main_3d_env@@3PAUENV_3D@@A ; main_3d_env
  00dd4	50		 push	 eax
  00dd5	e8 00 00 00 00	 call	 ?add_3d_ambient_light_setting@@YGXPAUENV_3D@@W4WEATHERMODES@@UREAL_COLOUR@@MM@Z ; add_3d_ambient_light_setting

; 327  : 		add_3d_ambient_light_setting ( main_3d_env, WEATHERMODE_SNOW, ambient_colour[1], 0.6, SUN_RISE_END_TIME );

  00dda	51		 push	 ecx
  00ddb	f3 0f 10 05 00
	00 00 00	 movss	 xmm0, DWORD PTR __real@46fd2000
  00de3	f3 0f 11 04 24	 movss	 DWORD PTR [esp], xmm0
  00de8	51		 push	 ecx
  00de9	f3 0f 10 05 00
	00 00 00	 movss	 xmm0, DWORD PTR __real@3f19999a
  00df1	f3 0f 11 04 24	 movss	 DWORD PTR [esp], xmm0
  00df6	b8 04 00 00 00	 mov	 eax, 4
  00dfb	c1 e0 00	 shl	 eax, 0
  00dfe	8b 4c 05 dc	 mov	 ecx, DWORD PTR _ambient_colour$16[ebp+eax]
  00e02	51		 push	 ecx
  00e03	6a 04		 push	 4
  00e05	8b 15 00 00 00
	00		 mov	 edx, DWORD PTR ?main_3d_env@@3PAUENV_3D@@A ; main_3d_env
  00e0b	52		 push	 edx
  00e0c	e8 00 00 00 00	 call	 ?add_3d_ambient_light_setting@@YGXPAUENV_3D@@W4WEATHERMODES@@UREAL_COLOUR@@MM@Z ; add_3d_ambient_light_setting

; 328  : 		add_3d_ambient_light_setting ( main_3d_env, WEATHERMODE_SNOW, ambient_colour[2], 0.6, MIDDAY_TIME );

  00e11	51		 push	 ecx
  00e12	f3 0f 10 05 00
	00 00 00	 movss	 xmm0, DWORD PTR __real@4728c000
  00e1a	f3 0f 11 04 24	 movss	 DWORD PTR [esp], xmm0
  00e1f	51		 push	 ecx
  00e20	f3 0f 10 05 00
	00 00 00	 movss	 xmm0, DWORD PTR __real@3f19999a
  00e28	f3 0f 11 04 24	 movss	 DWORD PTR [esp], xmm0
  00e2d	b8 04 00 00 00	 mov	 eax, 4
  00e32	d1 e0		 shl	 eax, 1
  00e34	8b 4c 05 dc	 mov	 ecx, DWORD PTR _ambient_colour$16[ebp+eax]
  00e38	51		 push	 ecx
  00e39	6a 04		 push	 4
  00e3b	8b 15 00 00 00
	00		 mov	 edx, DWORD PTR ?main_3d_env@@3PAUENV_3D@@A ; main_3d_env
  00e41	52		 push	 edx
  00e42	e8 00 00 00 00	 call	 ?add_3d_ambient_light_setting@@YGXPAUENV_3D@@W4WEATHERMODES@@UREAL_COLOUR@@MM@Z ; add_3d_ambient_light_setting

; 329  : 		add_3d_ambient_light_setting ( main_3d_env, WEATHERMODE_SNOW, ambient_colour[3], 0.6, SUN_SET_START_TIME );

  00e47	51		 push	 ecx
  00e48	f3 0f 10 05 00
	00 00 00	 movss	 xmm0, DWORD PTR __real@476f1000
  00e50	f3 0f 11 04 24	 movss	 DWORD PTR [esp], xmm0
  00e55	51		 push	 ecx
  00e56	f3 0f 10 05 00
	00 00 00	 movss	 xmm0, DWORD PTR __real@3f19999a
  00e5e	f3 0f 11 04 24	 movss	 DWORD PTR [esp], xmm0
  00e63	b8 04 00 00 00	 mov	 eax, 4
  00e68	6b c8 03	 imul	 ecx, eax, 3
  00e6b	8b 54 0d dc	 mov	 edx, DWORD PTR _ambient_colour$16[ebp+ecx]
  00e6f	52		 push	 edx
  00e70	6a 04		 push	 4
  00e72	a1 00 00 00 00	 mov	 eax, DWORD PTR ?main_3d_env@@3PAUENV_3D@@A ; main_3d_env
  00e77	50		 push	 eax
  00e78	e8 00 00 00 00	 call	 ?add_3d_ambient_light_setting@@YGXPAUENV_3D@@W4WEATHERMODES@@UREAL_COLOUR@@MM@Z ; add_3d_ambient_light_setting

; 330  : 		add_3d_ambient_light_setting ( main_3d_env, WEATHERMODE_SNOW, ambient_colour[7], 0.6, SUN_SET_END_TIME );

  00e7d	51		 push	 ecx
  00e7e	f3 0f 10 05 00
	00 00 00	 movss	 xmm0, DWORD PTR __real@47891c00
  00e86	f3 0f 11 04 24	 movss	 DWORD PTR [esp], xmm0
  00e8b	51		 push	 ecx
  00e8c	f3 0f 10 05 00
	00 00 00	 movss	 xmm0, DWORD PTR __real@3f19999a
  00e94	f3 0f 11 04 24	 movss	 DWORD PTR [esp], xmm0
  00e99	b8 04 00 00 00	 mov	 eax, 4
  00e9e	6b c8 07	 imul	 ecx, eax, 7
  00ea1	8b 54 0d dc	 mov	 edx, DWORD PTR _ambient_colour$16[ebp+ecx]
  00ea5	52		 push	 edx
  00ea6	6a 04		 push	 4
  00ea8	a1 00 00 00 00	 mov	 eax, DWORD PTR ?main_3d_env@@3PAUENV_3D@@A ; main_3d_env
  00ead	50		 push	 eax
  00eae	e8 00 00 00 00	 call	 ?add_3d_ambient_light_setting@@YGXPAUENV_3D@@W4WEATHERMODES@@UREAL_COLOUR@@MM@Z ; add_3d_ambient_light_setting

; 331  : 		add_3d_ambient_light_setting ( main_3d_env, WEATHERMODE_SNOW, ambient_colour[5], 0.6, TWILIGHT_TIME );

  00eb3	51		 push	 ecx
  00eb4	f3 0f 10 05 00
	00 00 00	 movss	 xmm0, DWORD PTR __real@479ab000
  00ebc	f3 0f 11 04 24	 movss	 DWORD PTR [esp], xmm0
  00ec1	51		 push	 ecx
  00ec2	f3 0f 10 05 00
	00 00 00	 movss	 xmm0, DWORD PTR __real@3f19999a
  00eca	f3 0f 11 04 24	 movss	 DWORD PTR [esp], xmm0
  00ecf	b8 04 00 00 00	 mov	 eax, 4
  00ed4	6b c8 05	 imul	 ecx, eax, 5
  00ed7	8b 54 0d dc	 mov	 edx, DWORD PTR _ambient_colour$16[ebp+ecx]
  00edb	52		 push	 edx
  00edc	6a 04		 push	 4
  00ede	a1 00 00 00 00	 mov	 eax, DWORD PTR ?main_3d_env@@3PAUENV_3D@@A ; main_3d_env
  00ee3	50		 push	 eax
  00ee4	e8 00 00 00 00	 call	 ?add_3d_ambient_light_setting@@YGXPAUENV_3D@@W4WEATHERMODES@@UREAL_COLOUR@@MM@Z ; add_3d_ambient_light_setting

; 332  : 		add_3d_ambient_light_setting ( main_3d_env, WEATHERMODE_SNOW, ambient_colour[5], 0.6*light_level, MIDNIGHT_TIME );

  00ee9	51		 push	 ecx
  00eea	0f 57 c0	 xorps	 xmm0, xmm0
  00eed	f3 0f 11 04 24	 movss	 DWORD PTR [esp], xmm0
  00ef2	f3 0f 5a 45 fc	 cvtss2sd xmm0, DWORD PTR _light_level$[ebp]
  00ef7	f2 0f 59 05 00
	00 00 00	 mulsd	 xmm0, QWORD PTR __real@3fe3333333333333
  00eff	f2 0f 5a c0	 cvtsd2ss xmm0, xmm0
  00f03	51		 push	 ecx
  00f04	f3 0f 11 04 24	 movss	 DWORD PTR [esp], xmm0
  00f09	b8 04 00 00 00	 mov	 eax, 4
  00f0e	6b c8 05	 imul	 ecx, eax, 5
  00f11	8b 54 0d dc	 mov	 edx, DWORD PTR _ambient_colour$16[ebp+ecx]
  00f15	52		 push	 edx
  00f16	6a 04		 push	 4
  00f18	a1 00 00 00 00	 mov	 eax, DWORD PTR ?main_3d_env@@3PAUENV_3D@@A ; main_3d_env
  00f1d	50		 push	 eax
  00f1e	e8 00 00 00 00	 call	 ?add_3d_ambient_light_setting@@YGXPAUENV_3D@@W4WEATHERMODES@@UREAL_COLOUR@@MM@Z ; add_3d_ambient_light_setting

; 333  : 		add_3d_ambient_light_setting ( main_3d_env, WEATHERMODE_SNOW, ambient_colour[5], 0.6*light_level, NIGHT_TIME );

  00f23	51		 push	 ecx
  00f24	f3 0f 10 05 00
	00 00 00	 movss	 xmm0, DWORD PTR __real@467d2000
  00f2c	f3 0f 11 04 24	 movss	 DWORD PTR [esp], xmm0
  00f31	f3 0f 5a 45 fc	 cvtss2sd xmm0, DWORD PTR _light_level$[ebp]
  00f36	f2 0f 59 05 00
	00 00 00	 mulsd	 xmm0, QWORD PTR __real@3fe3333333333333
  00f3e	f2 0f 5a c0	 cvtsd2ss xmm0, xmm0
  00f42	51		 push	 ecx
  00f43	f3 0f 11 04 24	 movss	 DWORD PTR [esp], xmm0
  00f48	b8 04 00 00 00	 mov	 eax, 4
  00f4d	6b c8 05	 imul	 ecx, eax, 5
  00f50	8b 54 0d dc	 mov	 edx, DWORD PTR _ambient_colour$16[ebp+ecx]
  00f54	52		 push	 edx
  00f55	6a 04		 push	 4
  00f57	a1 00 00 00 00	 mov	 eax, DWORD PTR ?main_3d_env@@3PAUENV_3D@@A ; main_3d_env
  00f5c	50		 push	 eax
  00f5d	e8 00 00 00 00	 call	 ?add_3d_ambient_light_setting@@YGXPAUENV_3D@@W4WEATHERMODES@@UREAL_COLOUR@@MM@Z ; add_3d_ambient_light_setting

; 334  : 	}
; 335  : 
; 336  : 	//
; 337  : 	// Initialise the sun lighting system for the environment
; 338  : 	//
; 339  : 
; 340  : 	{
; 341  : 
; 342  : 		rgb_colour
; 343  : 			sun_colour[4],
; 344  : 			sun_light_colour[9];
; 345  : 
; 346  : 		set_rgb_colour ( sun_colour[0], 255, 232, 112, 0 );	// Sun rise object colour

  00f62	b8 04 00 00 00	 mov	 eax, 4
  00f67	6b c8 00	 imul	 ecx, eax, 0
  00f6a	c6 44 0d ce ff	 mov	 BYTE PTR _sun_colour$15[ebp+ecx+2], 255 ; 000000ffH
  00f6f	b8 04 00 00 00	 mov	 eax, 4
  00f74	6b c8 00	 imul	 ecx, eax, 0
  00f77	c6 44 0d cd e8	 mov	 BYTE PTR _sun_colour$15[ebp+ecx+1], 232 ; 000000e8H
  00f7c	b8 04 00 00 00	 mov	 eax, 4
  00f81	6b c8 00	 imul	 ecx, eax, 0
  00f84	c6 44 0d cc 70	 mov	 BYTE PTR _sun_colour$15[ebp+ecx], 112 ; 00000070H
  00f89	b8 04 00 00 00	 mov	 eax, 4
  00f8e	6b c8 00	 imul	 ecx, eax, 0
  00f91	c6 44 0d cf 00	 mov	 BYTE PTR _sun_colour$15[ebp+ecx+3], 0

; 347  : 		set_rgb_colour ( sun_colour[1], 255, 243, 183, 128 );	// Sun rise imtermetiate colour

  00f96	b8 04 00 00 00	 mov	 eax, 4
  00f9b	c1 e0 00	 shl	 eax, 0
  00f9e	c6 44 05 ce ff	 mov	 BYTE PTR _sun_colour$15[ebp+eax+2], 255 ; 000000ffH
  00fa3	b8 04 00 00 00	 mov	 eax, 4
  00fa8	c1 e0 00	 shl	 eax, 0
  00fab	c6 44 05 cd f3	 mov	 BYTE PTR _sun_colour$15[ebp+eax+1], 243 ; 000000f3H
  00fb0	b8 04 00 00 00	 mov	 eax, 4
  00fb5	c1 e0 00	 shl	 eax, 0
  00fb8	c6 44 05 cc b7	 mov	 BYTE PTR _sun_colour$15[ebp+eax], 183 ; 000000b7H
  00fbd	b8 04 00 00 00	 mov	 eax, 4
  00fc2	c1 e0 00	 shl	 eax, 0
  00fc5	c6 44 05 cf 80	 mov	 BYTE PTR _sun_colour$15[ebp+eax+3], 128 ; 00000080H

; 348  : 		set_rgb_colour ( sun_colour[2], 255, 255, 255, 255 );	// White object colour

  00fca	b8 04 00 00 00	 mov	 eax, 4
  00fcf	d1 e0		 shl	 eax, 1
  00fd1	c6 44 05 ce ff	 mov	 BYTE PTR _sun_colour$15[ebp+eax+2], 255 ; 000000ffH
  00fd6	b8 04 00 00 00	 mov	 eax, 4
  00fdb	d1 e0		 shl	 eax, 1
  00fdd	c6 44 05 cd ff	 mov	 BYTE PTR _sun_colour$15[ebp+eax+1], 255 ; 000000ffH
  00fe2	b8 04 00 00 00	 mov	 eax, 4
  00fe7	d1 e0		 shl	 eax, 1
  00fe9	c6 44 05 cc ff	 mov	 BYTE PTR _sun_colour$15[ebp+eax], 255 ; 000000ffH
  00fee	b8 04 00 00 00	 mov	 eax, 4
  00ff3	d1 e0		 shl	 eax, 1
  00ff5	c6 44 05 cf ff	 mov	 BYTE PTR _sun_colour$15[ebp+eax+3], 255 ; 000000ffH

; 349  : 		set_rgb_colour ( sun_colour[3], 255, 255, 255, 0 );	// White object colour - no flare

  00ffa	b8 04 00 00 00	 mov	 eax, 4
  00fff	6b c8 03	 imul	 ecx, eax, 3
  01002	c6 44 0d ce ff	 mov	 BYTE PTR _sun_colour$15[ebp+ecx+2], 255 ; 000000ffH
  01007	b8 04 00 00 00	 mov	 eax, 4
  0100c	6b c8 03	 imul	 ecx, eax, 3
  0100f	c6 44 0d cd ff	 mov	 BYTE PTR _sun_colour$15[ebp+ecx+1], 255 ; 000000ffH
  01014	b8 04 00 00 00	 mov	 eax, 4
  01019	6b c8 03	 imul	 ecx, eax, 3
  0101c	c6 44 0d cc ff	 mov	 BYTE PTR _sun_colour$15[ebp+ecx], 255 ; 000000ffH
  01021	b8 04 00 00 00	 mov	 eax, 4
  01026	6b c8 03	 imul	 ecx, eax, 3
  01029	c6 44 0d cf 00	 mov	 BYTE PTR _sun_colour$15[ebp+ecx+3], 0

; 350  : 
; 351  : 		set_rgb_colour ( sun_light_colour[0], 64, 58, 33, 0 );		// 6am ( 22% )

  0102e	b8 04 00 00 00	 mov	 eax, 4
  01033	6b c8 00	 imul	 ecx, eax, 0
  01036	c6 44 0d aa 40	 mov	 BYTE PTR _sun_light_colour$14[ebp+ecx+2], 64 ; 00000040H
  0103b	b8 04 00 00 00	 mov	 eax, 4
  01040	6b c8 00	 imul	 ecx, eax, 0
  01043	c6 44 0d a9 3a	 mov	 BYTE PTR _sun_light_colour$14[ebp+ecx+1], 58 ; 0000003aH
  01048	b8 04 00 00 00	 mov	 eax, 4
  0104d	6b c8 00	 imul	 ecx, eax, 0
  01050	c6 44 0d a8 21	 mov	 BYTE PTR _sun_light_colour$14[ebp+ecx], 33 ; 00000021H
  01055	b8 04 00 00 00	 mov	 eax, 4
  0105a	6b c8 00	 imul	 ecx, eax, 0
  0105d	c6 44 0d ab 00	 mov	 BYTE PTR _sun_light_colour$14[ebp+ecx+3], 0

; 352  : 		set_rgb_colour ( sun_light_colour[1], 128, 116, 66, 0 );		// 9am ( 44% )

  01062	b8 04 00 00 00	 mov	 eax, 4
  01067	c1 e0 00	 shl	 eax, 0
  0106a	c6 44 05 aa 80	 mov	 BYTE PTR _sun_light_colour$14[ebp+eax+2], 128 ; 00000080H
  0106f	b8 04 00 00 00	 mov	 eax, 4
  01074	c1 e0 00	 shl	 eax, 0
  01077	c6 44 05 a9 74	 mov	 BYTE PTR _sun_light_colour$14[ebp+eax+1], 116 ; 00000074H
  0107c	b8 04 00 00 00	 mov	 eax, 4
  01081	c1 e0 00	 shl	 eax, 0
  01084	c6 44 05 a8 42	 mov	 BYTE PTR _sun_light_colour$14[ebp+eax], 66 ; 00000042H
  01089	b8 04 00 00 00	 mov	 eax, 4
  0108e	c1 e0 00	 shl	 eax, 0
  01091	c6 44 05 ab 00	 mov	 BYTE PTR _sun_light_colour$14[ebp+eax+3], 0

; 353  : 		set_rgb_colour ( sun_light_colour[2], 128, 128, 128, 0 );	// 12pm ( 50% )

  01096	b8 04 00 00 00	 mov	 eax, 4
  0109b	d1 e0		 shl	 eax, 1
  0109d	c6 44 05 aa 80	 mov	 BYTE PTR _sun_light_colour$14[ebp+eax+2], 128 ; 00000080H
  010a2	b8 04 00 00 00	 mov	 eax, 4
  010a7	d1 e0		 shl	 eax, 1
  010a9	c6 44 05 a9 80	 mov	 BYTE PTR _sun_light_colour$14[ebp+eax+1], 128 ; 00000080H
  010ae	b8 04 00 00 00	 mov	 eax, 4
  010b3	d1 e0		 shl	 eax, 1
  010b5	c6 44 05 a8 80	 mov	 BYTE PTR _sun_light_colour$14[ebp+eax], 128 ; 00000080H
  010ba	b8 04 00 00 00	 mov	 eax, 4
  010bf	d1 e0		 shl	 eax, 1
  010c1	c6 44 05 ab 00	 mov	 BYTE PTR _sun_light_colour$14[ebp+eax+3], 0

; 354  : 		set_rgb_colour ( sun_light_colour[3], 125, 113, 98, 0 );		// 3pm ( 45% )

  010c6	b8 04 00 00 00	 mov	 eax, 4
  010cb	6b c8 03	 imul	 ecx, eax, 3
  010ce	c6 44 0d aa 7d	 mov	 BYTE PTR _sun_light_colour$14[ebp+ecx+2], 125 ; 0000007dH
  010d3	b8 04 00 00 00	 mov	 eax, 4
  010d8	6b c8 03	 imul	 ecx, eax, 3
  010db	c6 44 0d a9 71	 mov	 BYTE PTR _sun_light_colour$14[ebp+ecx+1], 113 ; 00000071H
  010e0	b8 04 00 00 00	 mov	 eax, 4
  010e5	6b c8 03	 imul	 ecx, eax, 3
  010e8	c6 44 0d a8 62	 mov	 BYTE PTR _sun_light_colour$14[ebp+ecx], 98 ; 00000062H
  010ed	b8 04 00 00 00	 mov	 eax, 4
  010f2	6b c8 03	 imul	 ecx, eax, 3
  010f5	c6 44 0d ab 00	 mov	 BYTE PTR _sun_light_colour$14[ebp+ecx+3], 0

; 355  : 		set_rgb_colour ( sun_light_colour[4], 122, 23, 15, 0 ); 		// 6pm ( 20% )

  010fa	b8 04 00 00 00	 mov	 eax, 4
  010ff	c1 e0 02	 shl	 eax, 2
  01102	c6 44 05 aa 7a	 mov	 BYTE PTR _sun_light_colour$14[ebp+eax+2], 122 ; 0000007aH
  01107	b8 04 00 00 00	 mov	 eax, 4
  0110c	c1 e0 02	 shl	 eax, 2
  0110f	c6 44 05 a9 17	 mov	 BYTE PTR _sun_light_colour$14[ebp+eax+1], 23 ; 00000017H
  01114	b8 04 00 00 00	 mov	 eax, 4
  01119	c1 e0 02	 shl	 eax, 2
  0111c	c6 44 05 a8 0f	 mov	 BYTE PTR _sun_light_colour$14[ebp+eax], 15 ; 0000000fH
  01121	b8 04 00 00 00	 mov	 eax, 4
  01126	c1 e0 02	 shl	 eax, 2
  01129	c6 44 05 ab 00	 mov	 BYTE PTR _sun_light_colour$14[ebp+eax+3], 0

; 356  : 		set_rgb_colour ( sun_light_colour[5], 55, 12, 1, 0 );			// 9pm ( 9% )

  0112e	b8 04 00 00 00	 mov	 eax, 4
  01133	6b c8 05	 imul	 ecx, eax, 5
  01136	c6 44 0d aa 37	 mov	 BYTE PTR _sun_light_colour$14[ebp+ecx+2], 55 ; 00000037H
  0113b	b8 04 00 00 00	 mov	 eax, 4
  01140	6b c8 05	 imul	 ecx, eax, 5
  01143	c6 44 0d a9 0c	 mov	 BYTE PTR _sun_light_colour$14[ebp+ecx+1], 12 ; 0000000cH
  01148	b8 04 00 00 00	 mov	 eax, 4
  0114d	6b c8 05	 imul	 ecx, eax, 5
  01150	c6 44 0d a8 01	 mov	 BYTE PTR _sun_light_colour$14[ebp+ecx], 1
  01155	b8 04 00 00 00	 mov	 eax, 4
  0115a	6b c8 05	 imul	 ecx, eax, 5
  0115d	c6 44 0d ab 00	 mov	 BYTE PTR _sun_light_colour$14[ebp+ecx+3], 0

; 357  : 		set_rgb_colour ( sun_light_colour[6], 0, 0, 0, 0 );			// 12am, 3am ( 0% )

  01162	b8 04 00 00 00	 mov	 eax, 4
  01167	6b c8 06	 imul	 ecx, eax, 6
  0116a	c6 44 0d aa 00	 mov	 BYTE PTR _sun_light_colour$14[ebp+ecx+2], 0
  0116f	b8 04 00 00 00	 mov	 eax, 4
  01174	6b c8 06	 imul	 ecx, eax, 6
  01177	c6 44 0d a9 00	 mov	 BYTE PTR _sun_light_colour$14[ebp+ecx+1], 0
  0117c	b8 04 00 00 00	 mov	 eax, 4
  01181	6b c8 06	 imul	 ecx, eax, 6
  01184	c6 44 0d a8 00	 mov	 BYTE PTR _sun_light_colour$14[ebp+ecx], 0
  01189	b8 04 00 00 00	 mov	 eax, 4
  0118e	6b c8 06	 imul	 ecx, eax, 6
  01191	c6 44 0d ab 00	 mov	 BYTE PTR _sun_light_colour$14[ebp+ecx+3], 0

; 358  : 		set_rgb_colour ( sun_light_colour[7], 56, 56, 56, 0 );		// 6am rain colour( 22% )

  01196	b8 04 00 00 00	 mov	 eax, 4
  0119b	6b c8 07	 imul	 ecx, eax, 7
  0119e	c6 44 0d aa 38	 mov	 BYTE PTR _sun_light_colour$14[ebp+ecx+2], 56 ; 00000038H
  011a3	b8 04 00 00 00	 mov	 eax, 4
  011a8	6b c8 07	 imul	 ecx, eax, 7
  011ab	c6 44 0d a9 38	 mov	 BYTE PTR _sun_light_colour$14[ebp+ecx+1], 56 ; 00000038H
  011b0	b8 04 00 00 00	 mov	 eax, 4
  011b5	6b c8 07	 imul	 ecx, eax, 7
  011b8	c6 44 0d a8 38	 mov	 BYTE PTR _sun_light_colour$14[ebp+ecx], 56 ; 00000038H
  011bd	b8 04 00 00 00	 mov	 eax, 4
  011c2	6b c8 07	 imul	 ecx, eax, 7
  011c5	c6 44 0d ab 00	 mov	 BYTE PTR _sun_light_colour$14[ebp+ecx+3], 0

; 359  : 		set_rgb_colour ( sun_light_colour[8], 51, 51, 51, 0 ); 		// 6pm rain colour ( 20% )

  011ca	b8 04 00 00 00	 mov	 eax, 4
  011cf	c1 e0 03	 shl	 eax, 3
  011d2	c6 44 05 aa 33	 mov	 BYTE PTR _sun_light_colour$14[ebp+eax+2], 51 ; 00000033H
  011d7	b8 04 00 00 00	 mov	 eax, 4
  011dc	c1 e0 03	 shl	 eax, 3
  011df	c6 44 05 a9 33	 mov	 BYTE PTR _sun_light_colour$14[ebp+eax+1], 51 ; 00000033H
  011e4	b8 04 00 00 00	 mov	 eax, 4
  011e9	c1 e0 03	 shl	 eax, 3
  011ec	c6 44 05 a8 33	 mov	 BYTE PTR _sun_light_colour$14[ebp+eax], 51 ; 00000033H
  011f1	b8 04 00 00 00	 mov	 eax, 4
  011f6	c1 e0 03	 shl	 eax, 3
  011f9	c6 44 05 ab 00	 mov	 BYTE PTR _sun_light_colour$14[ebp+eax+3], 0

; 360  : 
; 361  : 		add_3d_sun_setting ( main_3d_env, WEATHERMODE_DRY, 1.0, 1.0, sun_colour[0], 1.0, sun_light_colour[0], 1.5, rad ( 70 ), rad ( 0 ), TRUE, SUN_RISE_START_TIME );

  011fe	51		 push	 ecx
  011ff	f3 0f 10 05 00
	00 00 00	 movss	 xmm0, DWORD PTR __real@46a8c000
  01207	f3 0f 11 04 24	 movss	 DWORD PTR [esp], xmm0
  0120c	6a 01		 push	 1
  0120e	51		 push	 ecx
  0120f	0f 57 c0	 xorps	 xmm0, xmm0
  01212	f3 0f 11 04 24	 movss	 DWORD PTR [esp], xmm0
  01217	51		 push	 ecx
  01218	f3 0f 10 05 00
	00 00 00	 movss	 xmm0, DWORD PTR __real@3f9c61aa
  01220	f3 0f 11 04 24	 movss	 DWORD PTR [esp], xmm0
  01225	51		 push	 ecx
  01226	f3 0f 10 05 00
	00 00 00	 movss	 xmm0, DWORD PTR __real@3fc00000
  0122e	f3 0f 11 04 24	 movss	 DWORD PTR [esp], xmm0
  01233	b8 04 00 00 00	 mov	 eax, 4
  01238	6b c8 00	 imul	 ecx, eax, 0
  0123b	8b 54 0d a8	 mov	 edx, DWORD PTR _sun_light_colour$14[ebp+ecx]
  0123f	52		 push	 edx
  01240	51		 push	 ecx
  01241	f3 0f 10 05 00
	00 00 00	 movss	 xmm0, DWORD PTR __real@3f800000
  01249	f3 0f 11 04 24	 movss	 DWORD PTR [esp], xmm0
  0124e	b8 04 00 00 00	 mov	 eax, 4
  01253	6b c8 00	 imul	 ecx, eax, 0
  01256	8b 54 0d cc	 mov	 edx, DWORD PTR _sun_colour$15[ebp+ecx]
  0125a	52		 push	 edx
  0125b	51		 push	 ecx
  0125c	f3 0f 10 05 00
	00 00 00	 movss	 xmm0, DWORD PTR __real@3f800000
  01264	f3 0f 11 04 24	 movss	 DWORD PTR [esp], xmm0
  01269	51		 push	 ecx
  0126a	f3 0f 10 05 00
	00 00 00	 movss	 xmm0, DWORD PTR __real@3f800000
  01272	f3 0f 11 04 24	 movss	 DWORD PTR [esp], xmm0
  01277	6a 01		 push	 1
  01279	a1 00 00 00 00	 mov	 eax, DWORD PTR ?main_3d_env@@3PAUENV_3D@@A ; main_3d_env
  0127e	50		 push	 eax
  0127f	e8 00 00 00 00	 call	 ?add_3d_sun_setting@@YGXPAUENV_3D@@W4WEATHERMODES@@MMUREAL_COLOUR@@M2MMMHM@Z ; add_3d_sun_setting

; 362  : 		add_3d_sun_setting ( main_3d_env, WEATHERMODE_DRY, 1.0, 1.0, sun_colour[1], 1.0, sun_light_colour[1], 1.5, rad ( 70 ), rad ( 45 ), TRUE, SUN_RISE_END_TIME );

  01284	51		 push	 ecx
  01285	f3 0f 10 05 00
	00 00 00	 movss	 xmm0, DWORD PTR __real@46fd2000
  0128d	f3 0f 11 04 24	 movss	 DWORD PTR [esp], xmm0
  01292	6a 01		 push	 1
  01294	51		 push	 ecx
  01295	f3 0f 10 05 00
	00 00 00	 movss	 xmm0, DWORD PTR __real@3f490fdb
  0129d	f3 0f 11 04 24	 movss	 DWORD PTR [esp], xmm0
  012a2	51		 push	 ecx
  012a3	f3 0f 10 05 00
	00 00 00	 movss	 xmm0, DWORD PTR __real@3f9c61aa
  012ab	f3 0f 11 04 24	 movss	 DWORD PTR [esp], xmm0
  012b0	51		 push	 ecx
  012b1	f3 0f 10 05 00
	00 00 00	 movss	 xmm0, DWORD PTR __real@3fc00000
  012b9	f3 0f 11 04 24	 movss	 DWORD PTR [esp], xmm0
  012be	b8 04 00 00 00	 mov	 eax, 4
  012c3	c1 e0 00	 shl	 eax, 0
  012c6	8b 4c 05 a8	 mov	 ecx, DWORD PTR _sun_light_colour$14[ebp+eax]
  012ca	51		 push	 ecx
  012cb	51		 push	 ecx
  012cc	f3 0f 10 05 00
	00 00 00	 movss	 xmm0, DWORD PTR __real@3f800000
  012d4	f3 0f 11 04 24	 movss	 DWORD PTR [esp], xmm0
  012d9	ba 04 00 00 00	 mov	 edx, 4
  012de	c1 e2 00	 shl	 edx, 0
  012e1	8b 44 15 cc	 mov	 eax, DWORD PTR _sun_colour$15[ebp+edx]
  012e5	50		 push	 eax
  012e6	51		 push	 ecx
  012e7	f3 0f 10 05 00
	00 00 00	 movss	 xmm0, DWORD PTR __real@3f800000
  012ef	f3 0f 11 04 24	 movss	 DWORD PTR [esp], xmm0
  012f4	51		 push	 ecx
  012f5	f3 0f 10 05 00
	00 00 00	 movss	 xmm0, DWORD PTR __real@3f800000
  012fd	f3 0f 11 04 24	 movss	 DWORD PTR [esp], xmm0
  01302	6a 01		 push	 1
  01304	8b 0d 00 00 00
	00		 mov	 ecx, DWORD PTR ?main_3d_env@@3PAUENV_3D@@A ; main_3d_env
  0130a	51		 push	 ecx
  0130b	e8 00 00 00 00	 call	 ?add_3d_sun_setting@@YGXPAUENV_3D@@W4WEATHERMODES@@MMUREAL_COLOUR@@M2MMMHM@Z ; add_3d_sun_setting

; 363  : 		add_3d_sun_setting ( main_3d_env, WEATHERMODE_DRY, 1.0, 1.0, sun_colour[2], 1.0, sun_light_colour[2], 1.5, rad ( 70 ), rad ( 90 ), TRUE, MIDDAY_TIME );

  01310	51		 push	 ecx
  01311	f3 0f 10 05 00
	00 00 00	 movss	 xmm0, DWORD PTR __real@4728c000
  01319	f3 0f 11 04 24	 movss	 DWORD PTR [esp], xmm0
  0131e	6a 01		 push	 1
  01320	51		 push	 ecx
  01321	f3 0f 10 05 00
	00 00 00	 movss	 xmm0, DWORD PTR __real@3fc90fdb
  01329	f3 0f 11 04 24	 movss	 DWORD PTR [esp], xmm0
  0132e	51		 push	 ecx
  0132f	f3 0f 10 05 00
	00 00 00	 movss	 xmm0, DWORD PTR __real@3f9c61aa
  01337	f3 0f 11 04 24	 movss	 DWORD PTR [esp], xmm0
  0133c	51		 push	 ecx
  0133d	f3 0f 10 05 00
	00 00 00	 movss	 xmm0, DWORD PTR __real@3fc00000
  01345	f3 0f 11 04 24	 movss	 DWORD PTR [esp], xmm0
  0134a	b8 04 00 00 00	 mov	 eax, 4
  0134f	d1 e0		 shl	 eax, 1
  01351	8b 4c 05 a8	 mov	 ecx, DWORD PTR _sun_light_colour$14[ebp+eax]
  01355	51		 push	 ecx
  01356	51		 push	 ecx
  01357	f3 0f 10 05 00
	00 00 00	 movss	 xmm0, DWORD PTR __real@3f800000
  0135f	f3 0f 11 04 24	 movss	 DWORD PTR [esp], xmm0
  01364	ba 04 00 00 00	 mov	 edx, 4
  01369	d1 e2		 shl	 edx, 1
  0136b	8b 44 15 cc	 mov	 eax, DWORD PTR _sun_colour$15[ebp+edx]
  0136f	50		 push	 eax
  01370	51		 push	 ecx
  01371	f3 0f 10 05 00
	00 00 00	 movss	 xmm0, DWORD PTR __real@3f800000
  01379	f3 0f 11 04 24	 movss	 DWORD PTR [esp], xmm0
  0137e	51		 push	 ecx
  0137f	f3 0f 10 05 00
	00 00 00	 movss	 xmm0, DWORD PTR __real@3f800000
  01387	f3 0f 11 04 24	 movss	 DWORD PTR [esp], xmm0
  0138c	6a 01		 push	 1
  0138e	8b 0d 00 00 00
	00		 mov	 ecx, DWORD PTR ?main_3d_env@@3PAUENV_3D@@A ; main_3d_env
  01394	51		 push	 ecx
  01395	e8 00 00 00 00	 call	 ?add_3d_sun_setting@@YGXPAUENV_3D@@W4WEATHERMODES@@MMUREAL_COLOUR@@M2MMMHM@Z ; add_3d_sun_setting

; 364  : 		add_3d_sun_setting ( main_3d_env, WEATHERMODE_DRY, 1.0, 1.0, sun_colour[2], 1.0, sun_light_colour[3], 1.5, rad ( 70 ), rad ( 135 ), TRUE, SUN_SET_START_TIME );

  0139a	51		 push	 ecx
  0139b	f3 0f 10 05 00
	00 00 00	 movss	 xmm0, DWORD PTR __real@476f1000
  013a3	f3 0f 11 04 24	 movss	 DWORD PTR [esp], xmm0
  013a8	6a 01		 push	 1
  013aa	51		 push	 ecx
  013ab	f3 0f 10 05 00
	00 00 00	 movss	 xmm0, DWORD PTR __real@4016cbe4
  013b3	f3 0f 11 04 24	 movss	 DWORD PTR [esp], xmm0
  013b8	51		 push	 ecx
  013b9	f3 0f 10 05 00
	00 00 00	 movss	 xmm0, DWORD PTR __real@3f9c61aa
  013c1	f3 0f 11 04 24	 movss	 DWORD PTR [esp], xmm0
  013c6	51		 push	 ecx
  013c7	f3 0f 10 05 00
	00 00 00	 movss	 xmm0, DWORD PTR __real@3fc00000
  013cf	f3 0f 11 04 24	 movss	 DWORD PTR [esp], xmm0
  013d4	b8 04 00 00 00	 mov	 eax, 4
  013d9	6b c8 03	 imul	 ecx, eax, 3
  013dc	8b 54 0d a8	 mov	 edx, DWORD PTR _sun_light_colour$14[ebp+ecx]
  013e0	52		 push	 edx
  013e1	51		 push	 ecx
  013e2	f3 0f 10 05 00
	00 00 00	 movss	 xmm0, DWORD PTR __real@3f800000
  013ea	f3 0f 11 04 24	 movss	 DWORD PTR [esp], xmm0
  013ef	b8 04 00 00 00	 mov	 eax, 4
  013f4	d1 e0		 shl	 eax, 1
  013f6	8b 4c 05 cc	 mov	 ecx, DWORD PTR _sun_colour$15[ebp+eax]
  013fa	51		 push	 ecx
  013fb	51		 push	 ecx
  013fc	f3 0f 10 05 00
	00 00 00	 movss	 xmm0, DWORD PTR __real@3f800000
  01404	f3 0f 11 04 24	 movss	 DWORD PTR [esp], xmm0
  01409	51		 push	 ecx
  0140a	f3 0f 10 05 00
	00 00 00	 movss	 xmm0, DWORD PTR __real@3f800000
  01412	f3 0f 11 04 24	 movss	 DWORD PTR [esp], xmm0
  01417	6a 01		 push	 1
  01419	8b 15 00 00 00
	00		 mov	 edx, DWORD PTR ?main_3d_env@@3PAUENV_3D@@A ; main_3d_env
  0141f	52		 push	 edx
  01420	e8 00 00 00 00	 call	 ?add_3d_sun_setting@@YGXPAUENV_3D@@W4WEATHERMODES@@MMUREAL_COLOUR@@M2MMMHM@Z ; add_3d_sun_setting

; 365  : 		add_3d_sun_setting ( main_3d_env, WEATHERMODE_DRY, 2.0, 1.0, sun_colour[3], 1.0, sun_light_colour[4], 1.5, rad ( 70 ), rad ( 180 ), TRUE, SUN_SET_END_TIME );

  01425	51		 push	 ecx
  01426	f3 0f 10 05 00
	00 00 00	 movss	 xmm0, DWORD PTR __real@47891c00
  0142e	f3 0f 11 04 24	 movss	 DWORD PTR [esp], xmm0
  01433	6a 01		 push	 1
  01435	51		 push	 ecx
  01436	f3 0f 10 05 00
	00 00 00	 movss	 xmm0, DWORD PTR __real@40490fdb
  0143e	f3 0f 11 04 24	 movss	 DWORD PTR [esp], xmm0
  01443	51		 push	 ecx
  01444	f3 0f 10 05 00
	00 00 00	 movss	 xmm0, DWORD PTR __real@3f9c61aa
  0144c	f3 0f 11 04 24	 movss	 DWORD PTR [esp], xmm0
  01451	51		 push	 ecx
  01452	f3 0f 10 05 00
	00 00 00	 movss	 xmm0, DWORD PTR __real@3fc00000
  0145a	f3 0f 11 04 24	 movss	 DWORD PTR [esp], xmm0
  0145f	b8 04 00 00 00	 mov	 eax, 4
  01464	c1 e0 02	 shl	 eax, 2
  01467	8b 4c 05 a8	 mov	 ecx, DWORD PTR _sun_light_colour$14[ebp+eax]
  0146b	51		 push	 ecx
  0146c	51		 push	 ecx
  0146d	f3 0f 10 05 00
	00 00 00	 movss	 xmm0, DWORD PTR __real@3f800000
  01475	f3 0f 11 04 24	 movss	 DWORD PTR [esp], xmm0
  0147a	ba 04 00 00 00	 mov	 edx, 4
  0147f	6b c2 03	 imul	 eax, edx, 3
  01482	8b 4c 05 cc	 mov	 ecx, DWORD PTR _sun_colour$15[ebp+eax]
  01486	51		 push	 ecx
  01487	51		 push	 ecx
  01488	f3 0f 10 05 00
	00 00 00	 movss	 xmm0, DWORD PTR __real@3f800000
  01490	f3 0f 11 04 24	 movss	 DWORD PTR [esp], xmm0
  01495	51		 push	 ecx
  01496	f3 0f 10 05 00
	00 00 00	 movss	 xmm0, DWORD PTR __real@40000000
  0149e	f3 0f 11 04 24	 movss	 DWORD PTR [esp], xmm0
  014a3	6a 01		 push	 1
  014a5	8b 15 00 00 00
	00		 mov	 edx, DWORD PTR ?main_3d_env@@3PAUENV_3D@@A ; main_3d_env
  014ab	52		 push	 edx
  014ac	e8 00 00 00 00	 call	 ?add_3d_sun_setting@@YGXPAUENV_3D@@W4WEATHERMODES@@MMUREAL_COLOUR@@M2MMMHM@Z ; add_3d_sun_setting

; 366  : 		add_3d_sun_setting ( main_3d_env, WEATHERMODE_DRY, 0.0, 0.0, sun_colour[3], 1.0, sun_light_colour[5], 1.5, rad ( 70 ), rad ( 225 ), TRUE, TWILIGHT_TIME );

  014b1	51		 push	 ecx
  014b2	f3 0f 10 05 00
	00 00 00	 movss	 xmm0, DWORD PTR __real@479ab000
  014ba	f3 0f 11 04 24	 movss	 DWORD PTR [esp], xmm0
  014bf	6a 01		 push	 1
  014c1	51		 push	 ecx
  014c2	f3 0f 10 05 00
	00 00 00	 movss	 xmm0, DWORD PTR __real@407b53d1
  014ca	f3 0f 11 04 24	 movss	 DWORD PTR [esp], xmm0
  014cf	51		 push	 ecx
  014d0	f3 0f 10 05 00
	00 00 00	 movss	 xmm0, DWORD PTR __real@3f9c61aa
  014d8	f3 0f 11 04 24	 movss	 DWORD PTR [esp], xmm0
  014dd	51		 push	 ecx
  014de	f3 0f 10 05 00
	00 00 00	 movss	 xmm0, DWORD PTR __real@3fc00000
  014e6	f3 0f 11 04 24	 movss	 DWORD PTR [esp], xmm0
  014eb	b8 04 00 00 00	 mov	 eax, 4
  014f0	6b c8 05	 imul	 ecx, eax, 5
  014f3	8b 54 0d a8	 mov	 edx, DWORD PTR _sun_light_colour$14[ebp+ecx]
  014f7	52		 push	 edx
  014f8	51		 push	 ecx
  014f9	f3 0f 10 05 00
	00 00 00	 movss	 xmm0, DWORD PTR __real@3f800000
  01501	f3 0f 11 04 24	 movss	 DWORD PTR [esp], xmm0
  01506	b8 04 00 00 00	 mov	 eax, 4
  0150b	6b c8 03	 imul	 ecx, eax, 3
  0150e	8b 54 0d cc	 mov	 edx, DWORD PTR _sun_colour$15[ebp+ecx]
  01512	52		 push	 edx
  01513	51		 push	 ecx
  01514	0f 57 c0	 xorps	 xmm0, xmm0
  01517	f3 0f 11 04 24	 movss	 DWORD PTR [esp], xmm0
  0151c	51		 push	 ecx
  0151d	0f 57 c0	 xorps	 xmm0, xmm0
  01520	f3 0f 11 04 24	 movss	 DWORD PTR [esp], xmm0
  01525	6a 01		 push	 1
  01527	a1 00 00 00 00	 mov	 eax, DWORD PTR ?main_3d_env@@3PAUENV_3D@@A ; main_3d_env
  0152c	50		 push	 eax
  0152d	e8 00 00 00 00	 call	 ?add_3d_sun_setting@@YGXPAUENV_3D@@W4WEATHERMODES@@MMUREAL_COLOUR@@M2MMMHM@Z ; add_3d_sun_setting

; 367  : 		add_3d_sun_setting ( main_3d_env, WEATHERMODE_DRY, 0.0, 0.0, sun_colour[3], 1.0, sun_light_colour[6], 1.5, rad ( 70 ), rad ( 270 ), FALSE, MIDNIGHT_TIME );

  01532	51		 push	 ecx
  01533	0f 57 c0	 xorps	 xmm0, xmm0
  01536	f3 0f 11 04 24	 movss	 DWORD PTR [esp], xmm0
  0153b	6a 00		 push	 0
  0153d	51		 push	 ecx
  0153e	f3 0f 10 05 00
	00 00 00	 movss	 xmm0, DWORD PTR __real@4096cbe4
  01546	f3 0f 11 04 24	 movss	 DWORD PTR [esp], xmm0
  0154b	51		 push	 ecx
  0154c	f3 0f 10 05 00
	00 00 00	 movss	 xmm0, DWORD PTR __real@3f9c61aa
  01554	f3 0f 11 04 24	 movss	 DWORD PTR [esp], xmm0
  01559	51		 push	 ecx
  0155a	f3 0f 10 05 00
	00 00 00	 movss	 xmm0, DWORD PTR __real@3fc00000
  01562	f3 0f 11 04 24	 movss	 DWORD PTR [esp], xmm0
  01567	b8 04 00 00 00	 mov	 eax, 4
  0156c	6b c8 06	 imul	 ecx, eax, 6
  0156f	8b 54 0d a8	 mov	 edx, DWORD PTR _sun_light_colour$14[ebp+ecx]
  01573	52		 push	 edx
  01574	51		 push	 ecx
  01575	f3 0f 10 05 00
	00 00 00	 movss	 xmm0, DWORD PTR __real@3f800000
  0157d	f3 0f 11 04 24	 movss	 DWORD PTR [esp], xmm0
  01582	b8 04 00 00 00	 mov	 eax, 4
  01587	6b c8 03	 imul	 ecx, eax, 3
  0158a	8b 54 0d cc	 mov	 edx, DWORD PTR _sun_colour$15[ebp+ecx]
  0158e	52		 push	 edx
  0158f	51		 push	 ecx
  01590	0f 57 c0	 xorps	 xmm0, xmm0
  01593	f3 0f 11 04 24	 movss	 DWORD PTR [esp], xmm0
  01598	51		 push	 ecx
  01599	0f 57 c0	 xorps	 xmm0, xmm0
  0159c	f3 0f 11 04 24	 movss	 DWORD PTR [esp], xmm0
  015a1	6a 01		 push	 1
  015a3	a1 00 00 00 00	 mov	 eax, DWORD PTR ?main_3d_env@@3PAUENV_3D@@A ; main_3d_env
  015a8	50		 push	 eax
  015a9	e8 00 00 00 00	 call	 ?add_3d_sun_setting@@YGXPAUENV_3D@@W4WEATHERMODES@@MMUREAL_COLOUR@@M2MMMHM@Z ; add_3d_sun_setting

; 368  : 		add_3d_sun_setting ( main_3d_env, WEATHERMODE_DRY, 0.0, 0.0, sun_colour[3], 1.0, sun_light_colour[6], 1.5, rad ( 70 ), rad ( 315 ), TRUE, NIGHT_TIME );

  015ae	51		 push	 ecx
  015af	f3 0f 10 05 00
	00 00 00	 movss	 xmm0, DWORD PTR __real@467d2000
  015b7	f3 0f 11 04 24	 movss	 DWORD PTR [esp], xmm0
  015bc	6a 01		 push	 1
  015be	51		 push	 ecx
  015bf	f3 0f 10 05 00
	00 00 00	 movss	 xmm0, DWORD PTR __real@40afeddf
  015c7	f3 0f 11 04 24	 movss	 DWORD PTR [esp], xmm0
  015cc	51		 push	 ecx
  015cd	f3 0f 10 05 00
	00 00 00	 movss	 xmm0, DWORD PTR __real@3f9c61aa
  015d5	f3 0f 11 04 24	 movss	 DWORD PTR [esp], xmm0
  015da	51		 push	 ecx
  015db	f3 0f 10 05 00
	00 00 00	 movss	 xmm0, DWORD PTR __real@3fc00000
  015e3	f3 0f 11 04 24	 movss	 DWORD PTR [esp], xmm0
  015e8	b8 04 00 00 00	 mov	 eax, 4
  015ed	6b c8 06	 imul	 ecx, eax, 6
  015f0	8b 54 0d a8	 mov	 edx, DWORD PTR _sun_light_colour$14[ebp+ecx]
  015f4	52		 push	 edx
  015f5	51		 push	 ecx
  015f6	f3 0f 10 05 00
	00 00 00	 movss	 xmm0, DWORD PTR __real@3f800000
  015fe	f3 0f 11 04 24	 movss	 DWORD PTR [esp], xmm0
  01603	b8 04 00 00 00	 mov	 eax, 4
  01608	6b c8 03	 imul	 ecx, eax, 3
  0160b	8b 54 0d cc	 mov	 edx, DWORD PTR _sun_colour$15[ebp+ecx]
  0160f	52		 push	 edx
  01610	51		 push	 ecx
  01611	0f 57 c0	 xorps	 xmm0, xmm0
  01614	f3 0f 11 04 24	 movss	 DWORD PTR [esp], xmm0
  01619	51		 push	 ecx
  0161a	0f 57 c0	 xorps	 xmm0, xmm0
  0161d	f3 0f 11 04 24	 movss	 DWORD PTR [esp], xmm0
  01622	6a 01		 push	 1
  01624	a1 00 00 00 00	 mov	 eax, DWORD PTR ?main_3d_env@@3PAUENV_3D@@A ; main_3d_env
  01629	50		 push	 eax
  0162a	e8 00 00 00 00	 call	 ?add_3d_sun_setting@@YGXPAUENV_3D@@W4WEATHERMODES@@MMUREAL_COLOUR@@M2MMMHM@Z ; add_3d_sun_setting

; 369  : 
; 370  : 		add_3d_sun_setting ( main_3d_env, WEATHERMODE_LIGHT_RAIN, 1.0, 0.6, sun_colour[0], 0.70, sun_light_colour[7], 1.35, rad ( 90 ), rad ( 0 ), TRUE, SUN_RISE_START_TIME );

  0162f	51		 push	 ecx
  01630	f3 0f 10 05 00
	00 00 00	 movss	 xmm0, DWORD PTR __real@46a8c000
  01638	f3 0f 11 04 24	 movss	 DWORD PTR [esp], xmm0
  0163d	6a 01		 push	 1
  0163f	51		 push	 ecx
  01640	0f 57 c0	 xorps	 xmm0, xmm0
  01643	f3 0f 11 04 24	 movss	 DWORD PTR [esp], xmm0
  01648	51		 push	 ecx
  01649	f3 0f 10 05 00
	00 00 00	 movss	 xmm0, DWORD PTR __real@3fc90fdb
  01651	f3 0f 11 04 24	 movss	 DWORD PTR [esp], xmm0
  01656	51		 push	 ecx
  01657	f3 0f 10 05 00
	00 00 00	 movss	 xmm0, DWORD PTR __real@3faccccd
  0165f	f3 0f 11 04 24	 movss	 DWORD PTR [esp], xmm0
  01664	b8 04 00 00 00	 mov	 eax, 4
  01669	6b c8 07	 imul	 ecx, eax, 7
  0166c	8b 54 0d a8	 mov	 edx, DWORD PTR _sun_light_colour$14[ebp+ecx]
  01670	52		 push	 edx
  01671	51		 push	 ecx
  01672	f3 0f 10 05 00
	00 00 00	 movss	 xmm0, DWORD PTR __real@3f333333
  0167a	f3 0f 11 04 24	 movss	 DWORD PTR [esp], xmm0
  0167f	b8 04 00 00 00	 mov	 eax, 4
  01684	6b c8 00	 imul	 ecx, eax, 0
  01687	8b 54 0d cc	 mov	 edx, DWORD PTR _sun_colour$15[ebp+ecx]
  0168b	52		 push	 edx
  0168c	51		 push	 ecx
  0168d	f3 0f 10 05 00
	00 00 00	 movss	 xmm0, DWORD PTR __real@3f19999a
  01695	f3 0f 11 04 24	 movss	 DWORD PTR [esp], xmm0
  0169a	51		 push	 ecx
  0169b	f3 0f 10 05 00
	00 00 00	 movss	 xmm0, DWORD PTR __real@3f800000
  016a3	f3 0f 11 04 24	 movss	 DWORD PTR [esp], xmm0
  016a8	6a 02		 push	 2
  016aa	a1 00 00 00 00	 mov	 eax, DWORD PTR ?main_3d_env@@3PAUENV_3D@@A ; main_3d_env
  016af	50		 push	 eax
  016b0	e8 00 00 00 00	 call	 ?add_3d_sun_setting@@YGXPAUENV_3D@@W4WEATHERMODES@@MMUREAL_COLOUR@@M2MMMHM@Z ; add_3d_sun_setting

; 371  : 		add_3d_sun_setting ( main_3d_env, WEATHERMODE_LIGHT_RAIN, 1.0, 0.6, sun_colour[1], 0.70, sun_light_colour[1], 1.35, rad ( 90 ), rad ( 45 ), TRUE, SUN_RISE_END_TIME );

  016b5	51		 push	 ecx
  016b6	f3 0f 10 05 00
	00 00 00	 movss	 xmm0, DWORD PTR __real@46fd2000
  016be	f3 0f 11 04 24	 movss	 DWORD PTR [esp], xmm0
  016c3	6a 01		 push	 1
  016c5	51		 push	 ecx
  016c6	f3 0f 10 05 00
	00 00 00	 movss	 xmm0, DWORD PTR __real@3f490fdb
  016ce	f3 0f 11 04 24	 movss	 DWORD PTR [esp], xmm0
  016d3	51		 push	 ecx
  016d4	f3 0f 10 05 00
	00 00 00	 movss	 xmm0, DWORD PTR __real@3fc90fdb
  016dc	f3 0f 11 04 24	 movss	 DWORD PTR [esp], xmm0
  016e1	51		 push	 ecx
  016e2	f3 0f 10 05 00
	00 00 00	 movss	 xmm0, DWORD PTR __real@3faccccd
  016ea	f3 0f 11 04 24	 movss	 DWORD PTR [esp], xmm0
  016ef	b8 04 00 00 00	 mov	 eax, 4
  016f4	c1 e0 00	 shl	 eax, 0
  016f7	8b 4c 05 a8	 mov	 ecx, DWORD PTR _sun_light_colour$14[ebp+eax]
  016fb	51		 push	 ecx
  016fc	51		 push	 ecx
  016fd	f3 0f 10 05 00
	00 00 00	 movss	 xmm0, DWORD PTR __real@3f333333
  01705	f3 0f 11 04 24	 movss	 DWORD PTR [esp], xmm0
  0170a	ba 04 00 00 00	 mov	 edx, 4
  0170f	c1 e2 00	 shl	 edx, 0
  01712	8b 44 15 cc	 mov	 eax, DWORD PTR _sun_colour$15[ebp+edx]
  01716	50		 push	 eax
  01717	51		 push	 ecx
  01718	f3 0f 10 05 00
	00 00 00	 movss	 xmm0, DWORD PTR __real@3f19999a
  01720	f3 0f 11 04 24	 movss	 DWORD PTR [esp], xmm0
  01725	51		 push	 ecx
  01726	f3 0f 10 05 00
	00 00 00	 movss	 xmm0, DWORD PTR __real@3f800000
  0172e	f3 0f 11 04 24	 movss	 DWORD PTR [esp], xmm0
  01733	6a 02		 push	 2
  01735	8b 0d 00 00 00
	00		 mov	 ecx, DWORD PTR ?main_3d_env@@3PAUENV_3D@@A ; main_3d_env
  0173b	51		 push	 ecx
  0173c	e8 00 00 00 00	 call	 ?add_3d_sun_setting@@YGXPAUENV_3D@@W4WEATHERMODES@@MMUREAL_COLOUR@@M2MMMHM@Z ; add_3d_sun_setting

; 372  : 		add_3d_sun_setting ( main_3d_env, WEATHERMODE_LIGHT_RAIN, 1.0, 0.6, sun_colour[2], 0.70, sun_light_colour[2], 1.35, rad ( 90 ), rad ( 90 ), TRUE, MIDDAY_TIME );

  01741	51		 push	 ecx
  01742	f3 0f 10 05 00
	00 00 00	 movss	 xmm0, DWORD PTR __real@4728c000
  0174a	f3 0f 11 04 24	 movss	 DWORD PTR [esp], xmm0
  0174f	6a 01		 push	 1
  01751	51		 push	 ecx
  01752	f3 0f 10 05 00
	00 00 00	 movss	 xmm0, DWORD PTR __real@3fc90fdb
  0175a	f3 0f 11 04 24	 movss	 DWORD PTR [esp], xmm0
  0175f	51		 push	 ecx
  01760	f3 0f 10 05 00
	00 00 00	 movss	 xmm0, DWORD PTR __real@3fc90fdb
  01768	f3 0f 11 04 24	 movss	 DWORD PTR [esp], xmm0
  0176d	51		 push	 ecx
  0176e	f3 0f 10 05 00
	00 00 00	 movss	 xmm0, DWORD PTR __real@3faccccd
  01776	f3 0f 11 04 24	 movss	 DWORD PTR [esp], xmm0
  0177b	b8 04 00 00 00	 mov	 eax, 4
  01780	d1 e0		 shl	 eax, 1
  01782	8b 4c 05 a8	 mov	 ecx, DWORD PTR _sun_light_colour$14[ebp+eax]
  01786	51		 push	 ecx
  01787	51		 push	 ecx
  01788	f3 0f 10 05 00
	00 00 00	 movss	 xmm0, DWORD PTR __real@3f333333
  01790	f3 0f 11 04 24	 movss	 DWORD PTR [esp], xmm0
  01795	ba 04 00 00 00	 mov	 edx, 4
  0179a	d1 e2		 shl	 edx, 1
  0179c	8b 44 15 cc	 mov	 eax, DWORD PTR _sun_colour$15[ebp+edx]
  017a0	50		 push	 eax
  017a1	51		 push	 ecx
  017a2	f3 0f 10 05 00
	00 00 00	 movss	 xmm0, DWORD PTR __real@3f19999a
  017aa	f3 0f 11 04 24	 movss	 DWORD PTR [esp], xmm0
  017af	51		 push	 ecx
  017b0	f3 0f 10 05 00
	00 00 00	 movss	 xmm0, DWORD PTR __real@3f800000
  017b8	f3 0f 11 04 24	 movss	 DWORD PTR [esp], xmm0
  017bd	6a 02		 push	 2
  017bf	8b 0d 00 00 00
	00		 mov	 ecx, DWORD PTR ?main_3d_env@@3PAUENV_3D@@A ; main_3d_env
  017c5	51		 push	 ecx
  017c6	e8 00 00 00 00	 call	 ?add_3d_sun_setting@@YGXPAUENV_3D@@W4WEATHERMODES@@MMUREAL_COLOUR@@M2MMMHM@Z ; add_3d_sun_setting

; 373  : 		add_3d_sun_setting ( main_3d_env, WEATHERMODE_LIGHT_RAIN, 1.0, 0.6, sun_colour[2], 0.70, sun_light_colour[3], 1.35, rad ( 90 ), rad ( 135 ), TRUE, SUN_SET_START_TIME );

  017cb	51		 push	 ecx
  017cc	f3 0f 10 05 00
	00 00 00	 movss	 xmm0, DWORD PTR __real@476f1000
  017d4	f3 0f 11 04 24	 movss	 DWORD PTR [esp], xmm0
  017d9	6a 01		 push	 1
  017db	51		 push	 ecx
  017dc	f3 0f 10 05 00
	00 00 00	 movss	 xmm0, DWORD PTR __real@4016cbe4
  017e4	f3 0f 11 04 24	 movss	 DWORD PTR [esp], xmm0
  017e9	51		 push	 ecx
  017ea	f3 0f 10 05 00
	00 00 00	 movss	 xmm0, DWORD PTR __real@3fc90fdb
  017f2	f3 0f 11 04 24	 movss	 DWORD PTR [esp], xmm0
  017f7	51		 push	 ecx
  017f8	f3 0f 10 05 00
	00 00 00	 movss	 xmm0, DWORD PTR __real@3faccccd
  01800	f3 0f 11 04 24	 movss	 DWORD PTR [esp], xmm0
  01805	b8 04 00 00 00	 mov	 eax, 4
  0180a	6b c8 03	 imul	 ecx, eax, 3
  0180d	8b 54 0d a8	 mov	 edx, DWORD PTR _sun_light_colour$14[ebp+ecx]
  01811	52		 push	 edx
  01812	51		 push	 ecx
  01813	f3 0f 10 05 00
	00 00 00	 movss	 xmm0, DWORD PTR __real@3f333333
  0181b	f3 0f 11 04 24	 movss	 DWORD PTR [esp], xmm0
  01820	b8 04 00 00 00	 mov	 eax, 4
  01825	d1 e0		 shl	 eax, 1
  01827	8b 4c 05 cc	 mov	 ecx, DWORD PTR _sun_colour$15[ebp+eax]
  0182b	51		 push	 ecx
  0182c	51		 push	 ecx
  0182d	f3 0f 10 05 00
	00 00 00	 movss	 xmm0, DWORD PTR __real@3f19999a
  01835	f3 0f 11 04 24	 movss	 DWORD PTR [esp], xmm0
  0183a	51		 push	 ecx
  0183b	f3 0f 10 05 00
	00 00 00	 movss	 xmm0, DWORD PTR __real@3f800000
  01843	f3 0f 11 04 24	 movss	 DWORD PTR [esp], xmm0
  01848	6a 02		 push	 2
  0184a	8b 15 00 00 00
	00		 mov	 edx, DWORD PTR ?main_3d_env@@3PAUENV_3D@@A ; main_3d_env
  01850	52		 push	 edx
  01851	e8 00 00 00 00	 call	 ?add_3d_sun_setting@@YGXPAUENV_3D@@W4WEATHERMODES@@MMUREAL_COLOUR@@M2MMMHM@Z ; add_3d_sun_setting

; 374  : 		add_3d_sun_setting ( main_3d_env, WEATHERMODE_LIGHT_RAIN, 2.0, 0.6, sun_colour[2], 0.70, sun_light_colour[8], 1.35, rad ( 90 ), rad ( 180 ), TRUE, SUN_SET_END_TIME );

  01856	51		 push	 ecx
  01857	f3 0f 10 05 00
	00 00 00	 movss	 xmm0, DWORD PTR __real@47891c00
  0185f	f3 0f 11 04 24	 movss	 DWORD PTR [esp], xmm0
  01864	6a 01		 push	 1
  01866	51		 push	 ecx
  01867	f3 0f 10 05 00
	00 00 00	 movss	 xmm0, DWORD PTR __real@40490fdb
  0186f	f3 0f 11 04 24	 movss	 DWORD PTR [esp], xmm0
  01874	51		 push	 ecx
  01875	f3 0f 10 05 00
	00 00 00	 movss	 xmm0, DWORD PTR __real@3fc90fdb
  0187d	f3 0f 11 04 24	 movss	 DWORD PTR [esp], xmm0
  01882	51		 push	 ecx
  01883	f3 0f 10 05 00
	00 00 00	 movss	 xmm0, DWORD PTR __real@3faccccd
  0188b	f3 0f 11 04 24	 movss	 DWORD PTR [esp], xmm0
  01890	b8 04 00 00 00	 mov	 eax, 4
  01895	c1 e0 03	 shl	 eax, 3
  01898	8b 4c 05 a8	 mov	 ecx, DWORD PTR _sun_light_colour$14[ebp+eax]
  0189c	51		 push	 ecx
  0189d	51		 push	 ecx
  0189e	f3 0f 10 05 00
	00 00 00	 movss	 xmm0, DWORD PTR __real@3f333333
  018a6	f3 0f 11 04 24	 movss	 DWORD PTR [esp], xmm0
  018ab	ba 04 00 00 00	 mov	 edx, 4
  018b0	d1 e2		 shl	 edx, 1
  018b2	8b 44 15 cc	 mov	 eax, DWORD PTR _sun_colour$15[ebp+edx]
  018b6	50		 push	 eax
  018b7	51		 push	 ecx
  018b8	f3 0f 10 05 00
	00 00 00	 movss	 xmm0, DWORD PTR __real@3f19999a
  018c0	f3 0f 11 04 24	 movss	 DWORD PTR [esp], xmm0
  018c5	51		 push	 ecx
  018c6	f3 0f 10 05 00
	00 00 00	 movss	 xmm0, DWORD PTR __real@40000000
  018ce	f3 0f 11 04 24	 movss	 DWORD PTR [esp], xmm0
  018d3	6a 02		 push	 2
  018d5	8b 0d 00 00 00
	00		 mov	 ecx, DWORD PTR ?main_3d_env@@3PAUENV_3D@@A ; main_3d_env
  018db	51		 push	 ecx
  018dc	e8 00 00 00 00	 call	 ?add_3d_sun_setting@@YGXPAUENV_3D@@W4WEATHERMODES@@MMUREAL_COLOUR@@M2MMMHM@Z ; add_3d_sun_setting

; 375  : 		add_3d_sun_setting ( main_3d_env, WEATHERMODE_LIGHT_RAIN, 0.0, 0.0, sun_colour[2], 0.70, sun_light_colour[5], 1.35, rad ( 90 ), rad ( 225 ), TRUE, TWILIGHT_TIME );

  018e1	51		 push	 ecx
  018e2	f3 0f 10 05 00
	00 00 00	 movss	 xmm0, DWORD PTR __real@479ab000
  018ea	f3 0f 11 04 24	 movss	 DWORD PTR [esp], xmm0
  018ef	6a 01		 push	 1
  018f1	51		 push	 ecx
  018f2	f3 0f 10 05 00
	00 00 00	 movss	 xmm0, DWORD PTR __real@407b53d1
  018fa	f3 0f 11 04 24	 movss	 DWORD PTR [esp], xmm0
  018ff	51		 push	 ecx
  01900	f3 0f 10 05 00
	00 00 00	 movss	 xmm0, DWORD PTR __real@3fc90fdb
  01908	f3 0f 11 04 24	 movss	 DWORD PTR [esp], xmm0
  0190d	51		 push	 ecx
  0190e	f3 0f 10 05 00
	00 00 00	 movss	 xmm0, DWORD PTR __real@3faccccd
  01916	f3 0f 11 04 24	 movss	 DWORD PTR [esp], xmm0
  0191b	b8 04 00 00 00	 mov	 eax, 4
  01920	6b c8 05	 imul	 ecx, eax, 5
  01923	8b 54 0d a8	 mov	 edx, DWORD PTR _sun_light_colour$14[ebp+ecx]
  01927	52		 push	 edx
  01928	51		 push	 ecx
  01929	f3 0f 10 05 00
	00 00 00	 movss	 xmm0, DWORD PTR __real@3f333333
  01931	f3 0f 11 04 24	 movss	 DWORD PTR [esp], xmm0
  01936	b8 04 00 00 00	 mov	 eax, 4
  0193b	d1 e0		 shl	 eax, 1
  0193d	8b 4c 05 cc	 mov	 ecx, DWORD PTR _sun_colour$15[ebp+eax]
  01941	51		 push	 ecx
  01942	51		 push	 ecx
  01943	0f 57 c0	 xorps	 xmm0, xmm0
  01946	f3 0f 11 04 24	 movss	 DWORD PTR [esp], xmm0
  0194b	51		 push	 ecx
  0194c	0f 57 c0	 xorps	 xmm0, xmm0
  0194f	f3 0f 11 04 24	 movss	 DWORD PTR [esp], xmm0
  01954	6a 02		 push	 2
  01956	8b 15 00 00 00
	00		 mov	 edx, DWORD PTR ?main_3d_env@@3PAUENV_3D@@A ; main_3d_env
  0195c	52		 push	 edx
  0195d	e8 00 00 00 00	 call	 ?add_3d_sun_setting@@YGXPAUENV_3D@@W4WEATHERMODES@@MMUREAL_COLOUR@@M2MMMHM@Z ; add_3d_sun_setting

; 376  : 		add_3d_sun_setting ( main_3d_env, WEATHERMODE_LIGHT_RAIN, 0.0, 0.0, sun_colour[2], 0.70, sun_light_colour[6], 1.35, rad ( 90 ), rad ( 270 ), FALSE, MIDNIGHT_TIME );

  01962	51		 push	 ecx
  01963	0f 57 c0	 xorps	 xmm0, xmm0
  01966	f3 0f 11 04 24	 movss	 DWORD PTR [esp], xmm0
  0196b	6a 00		 push	 0
  0196d	51		 push	 ecx
  0196e	f3 0f 10 05 00
	00 00 00	 movss	 xmm0, DWORD PTR __real@4096cbe4
  01976	f3 0f 11 04 24	 movss	 DWORD PTR [esp], xmm0
  0197b	51		 push	 ecx
  0197c	f3 0f 10 05 00
	00 00 00	 movss	 xmm0, DWORD PTR __real@3fc90fdb
  01984	f3 0f 11 04 24	 movss	 DWORD PTR [esp], xmm0
  01989	51		 push	 ecx
  0198a	f3 0f 10 05 00
	00 00 00	 movss	 xmm0, DWORD PTR __real@3faccccd
  01992	f3 0f 11 04 24	 movss	 DWORD PTR [esp], xmm0
  01997	b8 04 00 00 00	 mov	 eax, 4
  0199c	6b c8 06	 imul	 ecx, eax, 6
  0199f	8b 54 0d a8	 mov	 edx, DWORD PTR _sun_light_colour$14[ebp+ecx]
  019a3	52		 push	 edx
  019a4	51		 push	 ecx
  019a5	f3 0f 10 05 00
	00 00 00	 movss	 xmm0, DWORD PTR __real@3f333333
  019ad	f3 0f 11 04 24	 movss	 DWORD PTR [esp], xmm0
  019b2	b8 04 00 00 00	 mov	 eax, 4
  019b7	d1 e0		 shl	 eax, 1
  019b9	8b 4c 05 cc	 mov	 ecx, DWORD PTR _sun_colour$15[ebp+eax]
  019bd	51		 push	 ecx
  019be	51		 push	 ecx
  019bf	0f 57 c0	 xorps	 xmm0, xmm0
  019c2	f3 0f 11 04 24	 movss	 DWORD PTR [esp], xmm0
  019c7	51		 push	 ecx
  019c8	0f 57 c0	 xorps	 xmm0, xmm0
  019cb	f3 0f 11 04 24	 movss	 DWORD PTR [esp], xmm0
  019d0	6a 02		 push	 2
  019d2	8b 15 00 00 00
	00		 mov	 edx, DWORD PTR ?main_3d_env@@3PAUENV_3D@@A ; main_3d_env
  019d8	52		 push	 edx
  019d9	e8 00 00 00 00	 call	 ?add_3d_sun_setting@@YGXPAUENV_3D@@W4WEATHERMODES@@MMUREAL_COLOUR@@M2MMMHM@Z ; add_3d_sun_setting

; 377  : 		add_3d_sun_setting ( main_3d_env, WEATHERMODE_LIGHT_RAIN, 0.0, 0.0, sun_colour[2], 0.70, sun_light_colour[6], 1.35, rad ( 90 ), rad ( 315 ), TRUE, NIGHT_TIME );

  019de	51		 push	 ecx
  019df	f3 0f 10 05 00
	00 00 00	 movss	 xmm0, DWORD PTR __real@467d2000
  019e7	f3 0f 11 04 24	 movss	 DWORD PTR [esp], xmm0
  019ec	6a 01		 push	 1
  019ee	51		 push	 ecx
  019ef	f3 0f 10 05 00
	00 00 00	 movss	 xmm0, DWORD PTR __real@40afeddf
  019f7	f3 0f 11 04 24	 movss	 DWORD PTR [esp], xmm0
  019fc	51		 push	 ecx
  019fd	f3 0f 10 05 00
	00 00 00	 movss	 xmm0, DWORD PTR __real@3fc90fdb
  01a05	f3 0f 11 04 24	 movss	 DWORD PTR [esp], xmm0
  01a0a	51		 push	 ecx
  01a0b	f3 0f 10 05 00
	00 00 00	 movss	 xmm0, DWORD PTR __real@3faccccd
  01a13	f3 0f 11 04 24	 movss	 DWORD PTR [esp], xmm0
  01a18	b8 04 00 00 00	 mov	 eax, 4
  01a1d	6b c8 06	 imul	 ecx, eax, 6
  01a20	8b 54 0d a8	 mov	 edx, DWORD PTR _sun_light_colour$14[ebp+ecx]
  01a24	52		 push	 edx
  01a25	51		 push	 ecx
  01a26	f3 0f 10 05 00
	00 00 00	 movss	 xmm0, DWORD PTR __real@3f333333
  01a2e	f3 0f 11 04 24	 movss	 DWORD PTR [esp], xmm0
  01a33	b8 04 00 00 00	 mov	 eax, 4
  01a38	d1 e0		 shl	 eax, 1
  01a3a	8b 4c 05 cc	 mov	 ecx, DWORD PTR _sun_colour$15[ebp+eax]
  01a3e	51		 push	 ecx
  01a3f	51		 push	 ecx
  01a40	0f 57 c0	 xorps	 xmm0, xmm0
  01a43	f3 0f 11 04 24	 movss	 DWORD PTR [esp], xmm0
  01a48	51		 push	 ecx
  01a49	0f 57 c0	 xorps	 xmm0, xmm0
  01a4c	f3 0f 11 04 24	 movss	 DWORD PTR [esp], xmm0
  01a51	6a 02		 push	 2
  01a53	8b 15 00 00 00
	00		 mov	 edx, DWORD PTR ?main_3d_env@@3PAUENV_3D@@A ; main_3d_env
  01a59	52		 push	 edx
  01a5a	e8 00 00 00 00	 call	 ?add_3d_sun_setting@@YGXPAUENV_3D@@W4WEATHERMODES@@MMUREAL_COLOUR@@M2MMMHM@Z ; add_3d_sun_setting

; 378  : 
; 379  : 		add_3d_sun_setting ( main_3d_env, WEATHERMODE_HEAVY_RAIN, 1.0, 0.2, sun_colour[0], 0.05, sun_light_colour[7], 1.05, rad ( 90 ), rad ( 0 ), TRUE, SUN_RISE_START_TIME );

  01a5f	51		 push	 ecx
  01a60	f3 0f 10 05 00
	00 00 00	 movss	 xmm0, DWORD PTR __real@46a8c000
  01a68	f3 0f 11 04 24	 movss	 DWORD PTR [esp], xmm0
  01a6d	6a 01		 push	 1
  01a6f	51		 push	 ecx
  01a70	0f 57 c0	 xorps	 xmm0, xmm0
  01a73	f3 0f 11 04 24	 movss	 DWORD PTR [esp], xmm0
  01a78	51		 push	 ecx
  01a79	f3 0f 10 05 00
	00 00 00	 movss	 xmm0, DWORD PTR __real@3fc90fdb
  01a81	f3 0f 11 04 24	 movss	 DWORD PTR [esp], xmm0
  01a86	51		 push	 ecx
  01a87	f3 0f 10 05 00
	00 00 00	 movss	 xmm0, DWORD PTR __real@3f866666
  01a8f	f3 0f 11 04 24	 movss	 DWORD PTR [esp], xmm0
  01a94	b8 04 00 00 00	 mov	 eax, 4
  01a99	6b c8 07	 imul	 ecx, eax, 7
  01a9c	8b 54 0d a8	 mov	 edx, DWORD PTR _sun_light_colour$14[ebp+ecx]
  01aa0	52		 push	 edx
  01aa1	51		 push	 ecx
  01aa2	f3 0f 10 05 00
	00 00 00	 movss	 xmm0, DWORD PTR __real@3d4ccccd
  01aaa	f3 0f 11 04 24	 movss	 DWORD PTR [esp], xmm0
  01aaf	b8 04 00 00 00	 mov	 eax, 4
  01ab4	6b c8 00	 imul	 ecx, eax, 0
  01ab7	8b 54 0d cc	 mov	 edx, DWORD PTR _sun_colour$15[ebp+ecx]
  01abb	52		 push	 edx
  01abc	51		 push	 ecx
  01abd	f3 0f 10 05 00
	00 00 00	 movss	 xmm0, DWORD PTR __real@3e4ccccd
  01ac5	f3 0f 11 04 24	 movss	 DWORD PTR [esp], xmm0
  01aca	51		 push	 ecx
  01acb	f3 0f 10 05 00
	00 00 00	 movss	 xmm0, DWORD PTR __real@3f800000
  01ad3	f3 0f 11 04 24	 movss	 DWORD PTR [esp], xmm0
  01ad8	6a 03		 push	 3
  01ada	a1 00 00 00 00	 mov	 eax, DWORD PTR ?main_3d_env@@3PAUENV_3D@@A ; main_3d_env
  01adf	50		 push	 eax
  01ae0	e8 00 00 00 00	 call	 ?add_3d_sun_setting@@YGXPAUENV_3D@@W4WEATHERMODES@@MMUREAL_COLOUR@@M2MMMHM@Z ; add_3d_sun_setting

; 380  : 		add_3d_sun_setting ( main_3d_env, WEATHERMODE_HEAVY_RAIN, 1.0, 0.2, sun_colour[1], 0.20, sun_light_colour[1], 1.05, rad ( 90 ), rad ( 45 ), TRUE, SUN_RISE_END_TIME );

  01ae5	51		 push	 ecx
  01ae6	f3 0f 10 05 00
	00 00 00	 movss	 xmm0, DWORD PTR __real@46fd2000
  01aee	f3 0f 11 04 24	 movss	 DWORD PTR [esp], xmm0
  01af3	6a 01		 push	 1
  01af5	51		 push	 ecx
  01af6	f3 0f 10 05 00
	00 00 00	 movss	 xmm0, DWORD PTR __real@3f490fdb
  01afe	f3 0f 11 04 24	 movss	 DWORD PTR [esp], xmm0
  01b03	51		 push	 ecx
  01b04	f3 0f 10 05 00
	00 00 00	 movss	 xmm0, DWORD PTR __real@3fc90fdb
  01b0c	f3 0f 11 04 24	 movss	 DWORD PTR [esp], xmm0
  01b11	51		 push	 ecx
  01b12	f3 0f 10 05 00
	00 00 00	 movss	 xmm0, DWORD PTR __real@3f866666
  01b1a	f3 0f 11 04 24	 movss	 DWORD PTR [esp], xmm0
  01b1f	b8 04 00 00 00	 mov	 eax, 4
  01b24	c1 e0 00	 shl	 eax, 0
  01b27	8b 4c 05 a8	 mov	 ecx, DWORD PTR _sun_light_colour$14[ebp+eax]
  01b2b	51		 push	 ecx
  01b2c	51		 push	 ecx
  01b2d	f3 0f 10 05 00
	00 00 00	 movss	 xmm0, DWORD PTR __real@3e4ccccd
  01b35	f3 0f 11 04 24	 movss	 DWORD PTR [esp], xmm0
  01b3a	ba 04 00 00 00	 mov	 edx, 4
  01b3f	c1 e2 00	 shl	 edx, 0
  01b42	8b 44 15 cc	 mov	 eax, DWORD PTR _sun_colour$15[ebp+edx]
  01b46	50		 push	 eax
  01b47	51		 push	 ecx
  01b48	f3 0f 10 05 00
	00 00 00	 movss	 xmm0, DWORD PTR __real@3e4ccccd
  01b50	f3 0f 11 04 24	 movss	 DWORD PTR [esp], xmm0
  01b55	51		 push	 ecx
  01b56	f3 0f 10 05 00
	00 00 00	 movss	 xmm0, DWORD PTR __real@3f800000
  01b5e	f3 0f 11 04 24	 movss	 DWORD PTR [esp], xmm0
  01b63	6a 03		 push	 3
  01b65	8b 0d 00 00 00
	00		 mov	 ecx, DWORD PTR ?main_3d_env@@3PAUENV_3D@@A ; main_3d_env
  01b6b	51		 push	 ecx
  01b6c	e8 00 00 00 00	 call	 ?add_3d_sun_setting@@YGXPAUENV_3D@@W4WEATHERMODES@@MMUREAL_COLOUR@@M2MMMHM@Z ; add_3d_sun_setting

; 381  : 		add_3d_sun_setting ( main_3d_env, WEATHERMODE_HEAVY_RAIN, 1.0, 0.2, sun_colour[2], 0.20, sun_light_colour[2], 1.05, rad ( 90 ), rad ( 90 ), TRUE, MIDDAY_TIME );

  01b71	51		 push	 ecx
  01b72	f3 0f 10 05 00
	00 00 00	 movss	 xmm0, DWORD PTR __real@4728c000
  01b7a	f3 0f 11 04 24	 movss	 DWORD PTR [esp], xmm0
  01b7f	6a 01		 push	 1
  01b81	51		 push	 ecx
  01b82	f3 0f 10 05 00
	00 00 00	 movss	 xmm0, DWORD PTR __real@3fc90fdb
  01b8a	f3 0f 11 04 24	 movss	 DWORD PTR [esp], xmm0
  01b8f	51		 push	 ecx
  01b90	f3 0f 10 05 00
	00 00 00	 movss	 xmm0, DWORD PTR __real@3fc90fdb
  01b98	f3 0f 11 04 24	 movss	 DWORD PTR [esp], xmm0
  01b9d	51		 push	 ecx
  01b9e	f3 0f 10 05 00
	00 00 00	 movss	 xmm0, DWORD PTR __real@3f866666
  01ba6	f3 0f 11 04 24	 movss	 DWORD PTR [esp], xmm0
  01bab	b8 04 00 00 00	 mov	 eax, 4
  01bb0	d1 e0		 shl	 eax, 1
  01bb2	8b 4c 05 a8	 mov	 ecx, DWORD PTR _sun_light_colour$14[ebp+eax]
  01bb6	51		 push	 ecx
  01bb7	51		 push	 ecx
  01bb8	f3 0f 10 05 00
	00 00 00	 movss	 xmm0, DWORD PTR __real@3e4ccccd
  01bc0	f3 0f 11 04 24	 movss	 DWORD PTR [esp], xmm0
  01bc5	ba 04 00 00 00	 mov	 edx, 4
  01bca	d1 e2		 shl	 edx, 1
  01bcc	8b 44 15 cc	 mov	 eax, DWORD PTR _sun_colour$15[ebp+edx]
  01bd0	50		 push	 eax
  01bd1	51		 push	 ecx
  01bd2	f3 0f 10 05 00
	00 00 00	 movss	 xmm0, DWORD PTR __real@3e4ccccd
  01bda	f3 0f 11 04 24	 movss	 DWORD PTR [esp], xmm0
  01bdf	51		 push	 ecx
  01be0	f3 0f 10 05 00
	00 00 00	 movss	 xmm0, DWORD PTR __real@3f800000
  01be8	f3 0f 11 04 24	 movss	 DWORD PTR [esp], xmm0
  01bed	6a 03		 push	 3
  01bef	8b 0d 00 00 00
	00		 mov	 ecx, DWORD PTR ?main_3d_env@@3PAUENV_3D@@A ; main_3d_env
  01bf5	51		 push	 ecx
  01bf6	e8 00 00 00 00	 call	 ?add_3d_sun_setting@@YGXPAUENV_3D@@W4WEATHERMODES@@MMUREAL_COLOUR@@M2MMMHM@Z ; add_3d_sun_setting

; 382  : 		add_3d_sun_setting ( main_3d_env, WEATHERMODE_HEAVY_RAIN, 1.0, 0.2, sun_colour[2], 0.20, sun_light_colour[3], 1.05, rad ( 90 ), rad ( 135 ), TRUE, SUN_SET_START_TIME );

  01bfb	51		 push	 ecx
  01bfc	f3 0f 10 05 00
	00 00 00	 movss	 xmm0, DWORD PTR __real@476f1000
  01c04	f3 0f 11 04 24	 movss	 DWORD PTR [esp], xmm0
  01c09	6a 01		 push	 1
  01c0b	51		 push	 ecx
  01c0c	f3 0f 10 05 00
	00 00 00	 movss	 xmm0, DWORD PTR __real@4016cbe4
  01c14	f3 0f 11 04 24	 movss	 DWORD PTR [esp], xmm0
  01c19	51		 push	 ecx
  01c1a	f3 0f 10 05 00
	00 00 00	 movss	 xmm0, DWORD PTR __real@3fc90fdb
  01c22	f3 0f 11 04 24	 movss	 DWORD PTR [esp], xmm0
  01c27	51		 push	 ecx
  01c28	f3 0f 10 05 00
	00 00 00	 movss	 xmm0, DWORD PTR __real@3f866666
  01c30	f3 0f 11 04 24	 movss	 DWORD PTR [esp], xmm0
  01c35	b8 04 00 00 00	 mov	 eax, 4
  01c3a	6b c8 03	 imul	 ecx, eax, 3
  01c3d	8b 54 0d a8	 mov	 edx, DWORD PTR _sun_light_colour$14[ebp+ecx]
  01c41	52		 push	 edx
  01c42	51		 push	 ecx
  01c43	f3 0f 10 05 00
	00 00 00	 movss	 xmm0, DWORD PTR __real@3e4ccccd
  01c4b	f3 0f 11 04 24	 movss	 DWORD PTR [esp], xmm0
  01c50	b8 04 00 00 00	 mov	 eax, 4
  01c55	d1 e0		 shl	 eax, 1
  01c57	8b 4c 05 cc	 mov	 ecx, DWORD PTR _sun_colour$15[ebp+eax]
  01c5b	51		 push	 ecx
  01c5c	51		 push	 ecx
  01c5d	f3 0f 10 05 00
	00 00 00	 movss	 xmm0, DWORD PTR __real@3e4ccccd
  01c65	f3 0f 11 04 24	 movss	 DWORD PTR [esp], xmm0
  01c6a	51		 push	 ecx
  01c6b	f3 0f 10 05 00
	00 00 00	 movss	 xmm0, DWORD PTR __real@3f800000
  01c73	f3 0f 11 04 24	 movss	 DWORD PTR [esp], xmm0
  01c78	6a 03		 push	 3
  01c7a	8b 15 00 00 00
	00		 mov	 edx, DWORD PTR ?main_3d_env@@3PAUENV_3D@@A ; main_3d_env
  01c80	52		 push	 edx
  01c81	e8 00 00 00 00	 call	 ?add_3d_sun_setting@@YGXPAUENV_3D@@W4WEATHERMODES@@MMUREAL_COLOUR@@M2MMMHM@Z ; add_3d_sun_setting

; 383  : 		add_3d_sun_setting ( main_3d_env, WEATHERMODE_HEAVY_RAIN, 2.0, 0.2, sun_colour[2], 0.05, sun_light_colour[8], 1.05, rad ( 90 ), rad ( 180 ), TRUE, SUN_SET_END_TIME );

  01c86	51		 push	 ecx
  01c87	f3 0f 10 05 00
	00 00 00	 movss	 xmm0, DWORD PTR __real@47891c00
  01c8f	f3 0f 11 04 24	 movss	 DWORD PTR [esp], xmm0
  01c94	6a 01		 push	 1
  01c96	51		 push	 ecx
  01c97	f3 0f 10 05 00
	00 00 00	 movss	 xmm0, DWORD PTR __real@40490fdb
  01c9f	f3 0f 11 04 24	 movss	 DWORD PTR [esp], xmm0
  01ca4	51		 push	 ecx
  01ca5	f3 0f 10 05 00
	00 00 00	 movss	 xmm0, DWORD PTR __real@3fc90fdb
  01cad	f3 0f 11 04 24	 movss	 DWORD PTR [esp], xmm0
  01cb2	51		 push	 ecx
  01cb3	f3 0f 10 05 00
	00 00 00	 movss	 xmm0, DWORD PTR __real@3f866666
  01cbb	f3 0f 11 04 24	 movss	 DWORD PTR [esp], xmm0
  01cc0	b8 04 00 00 00	 mov	 eax, 4
  01cc5	c1 e0 03	 shl	 eax, 3
  01cc8	8b 4c 05 a8	 mov	 ecx, DWORD PTR _sun_light_colour$14[ebp+eax]
  01ccc	51		 push	 ecx
  01ccd	51		 push	 ecx
  01cce	f3 0f 10 05 00
	00 00 00	 movss	 xmm0, DWORD PTR __real@3d4ccccd
  01cd6	f3 0f 11 04 24	 movss	 DWORD PTR [esp], xmm0
  01cdb	ba 04 00 00 00	 mov	 edx, 4
  01ce0	d1 e2		 shl	 edx, 1
  01ce2	8b 44 15 cc	 mov	 eax, DWORD PTR _sun_colour$15[ebp+edx]
  01ce6	50		 push	 eax
  01ce7	51		 push	 ecx
  01ce8	f3 0f 10 05 00
	00 00 00	 movss	 xmm0, DWORD PTR __real@3e4ccccd
  01cf0	f3 0f 11 04 24	 movss	 DWORD PTR [esp], xmm0
  01cf5	51		 push	 ecx
  01cf6	f3 0f 10 05 00
	00 00 00	 movss	 xmm0, DWORD PTR __real@40000000
  01cfe	f3 0f 11 04 24	 movss	 DWORD PTR [esp], xmm0
  01d03	6a 03		 push	 3
  01d05	8b 0d 00 00 00
	00		 mov	 ecx, DWORD PTR ?main_3d_env@@3PAUENV_3D@@A ; main_3d_env
  01d0b	51		 push	 ecx
  01d0c	e8 00 00 00 00	 call	 ?add_3d_sun_setting@@YGXPAUENV_3D@@W4WEATHERMODES@@MMUREAL_COLOUR@@M2MMMHM@Z ; add_3d_sun_setting

; 384  : 		add_3d_sun_setting ( main_3d_env, WEATHERMODE_HEAVY_RAIN, 0.0, 0.0, sun_colour[2], 0.20, sun_light_colour[5], 1.05, rad ( 90 ), rad ( 225 ), TRUE, TWILIGHT_TIME );

  01d11	51		 push	 ecx
  01d12	f3 0f 10 05 00
	00 00 00	 movss	 xmm0, DWORD PTR __real@479ab000
  01d1a	f3 0f 11 04 24	 movss	 DWORD PTR [esp], xmm0
  01d1f	6a 01		 push	 1
  01d21	51		 push	 ecx
  01d22	f3 0f 10 05 00
	00 00 00	 movss	 xmm0, DWORD PTR __real@407b53d1
  01d2a	f3 0f 11 04 24	 movss	 DWORD PTR [esp], xmm0
  01d2f	51		 push	 ecx
  01d30	f3 0f 10 05 00
	00 00 00	 movss	 xmm0, DWORD PTR __real@3fc90fdb
  01d38	f3 0f 11 04 24	 movss	 DWORD PTR [esp], xmm0
  01d3d	51		 push	 ecx
  01d3e	f3 0f 10 05 00
	00 00 00	 movss	 xmm0, DWORD PTR __real@3f866666
  01d46	f3 0f 11 04 24	 movss	 DWORD PTR [esp], xmm0
  01d4b	b8 04 00 00 00	 mov	 eax, 4
  01d50	6b c8 05	 imul	 ecx, eax, 5
  01d53	8b 54 0d a8	 mov	 edx, DWORD PTR _sun_light_colour$14[ebp+ecx]
  01d57	52		 push	 edx
  01d58	51		 push	 ecx
  01d59	f3 0f 10 05 00
	00 00 00	 movss	 xmm0, DWORD PTR __real@3e4ccccd
  01d61	f3 0f 11 04 24	 movss	 DWORD PTR [esp], xmm0
  01d66	b8 04 00 00 00	 mov	 eax, 4
  01d6b	d1 e0		 shl	 eax, 1
  01d6d	8b 4c 05 cc	 mov	 ecx, DWORD PTR _sun_colour$15[ebp+eax]
  01d71	51		 push	 ecx
  01d72	51		 push	 ecx
  01d73	0f 57 c0	 xorps	 xmm0, xmm0
  01d76	f3 0f 11 04 24	 movss	 DWORD PTR [esp], xmm0
  01d7b	51		 push	 ecx
  01d7c	0f 57 c0	 xorps	 xmm0, xmm0
  01d7f	f3 0f 11 04 24	 movss	 DWORD PTR [esp], xmm0
  01d84	6a 03		 push	 3
  01d86	8b 15 00 00 00
	00		 mov	 edx, DWORD PTR ?main_3d_env@@3PAUENV_3D@@A ; main_3d_env
  01d8c	52		 push	 edx
  01d8d	e8 00 00 00 00	 call	 ?add_3d_sun_setting@@YGXPAUENV_3D@@W4WEATHERMODES@@MMUREAL_COLOUR@@M2MMMHM@Z ; add_3d_sun_setting

; 385  : 		add_3d_sun_setting ( main_3d_env, WEATHERMODE_HEAVY_RAIN, 0.0, 0.0, sun_colour[2], 0.20, sun_light_colour[6], 1.05, rad ( 90 ), rad ( 270 ), FALSE, MIDNIGHT_TIME );

  01d92	51		 push	 ecx
  01d93	0f 57 c0	 xorps	 xmm0, xmm0
  01d96	f3 0f 11 04 24	 movss	 DWORD PTR [esp], xmm0
  01d9b	6a 00		 push	 0
  01d9d	51		 push	 ecx
  01d9e	f3 0f 10 05 00
	00 00 00	 movss	 xmm0, DWORD PTR __real@4096cbe4
  01da6	f3 0f 11 04 24	 movss	 DWORD PTR [esp], xmm0
  01dab	51		 push	 ecx
  01dac	f3 0f 10 05 00
	00 00 00	 movss	 xmm0, DWORD PTR __real@3fc90fdb
  01db4	f3 0f 11 04 24	 movss	 DWORD PTR [esp], xmm0
  01db9	51		 push	 ecx
  01dba	f3 0f 10 05 00
	00 00 00	 movss	 xmm0, DWORD PTR __real@3f866666
  01dc2	f3 0f 11 04 24	 movss	 DWORD PTR [esp], xmm0
  01dc7	b8 04 00 00 00	 mov	 eax, 4
  01dcc	6b c8 06	 imul	 ecx, eax, 6
  01dcf	8b 54 0d a8	 mov	 edx, DWORD PTR _sun_light_colour$14[ebp+ecx]
  01dd3	52		 push	 edx
  01dd4	51		 push	 ecx
  01dd5	f3 0f 10 05 00
	00 00 00	 movss	 xmm0, DWORD PTR __real@3e4ccccd
  01ddd	f3 0f 11 04 24	 movss	 DWORD PTR [esp], xmm0
  01de2	b8 04 00 00 00	 mov	 eax, 4
  01de7	d1 e0		 shl	 eax, 1
  01de9	8b 4c 05 cc	 mov	 ecx, DWORD PTR _sun_colour$15[ebp+eax]
  01ded	51		 push	 ecx
  01dee	51		 push	 ecx
  01def	0f 57 c0	 xorps	 xmm0, xmm0
  01df2	f3 0f 11 04 24	 movss	 DWORD PTR [esp], xmm0
  01df7	51		 push	 ecx
  01df8	0f 57 c0	 xorps	 xmm0, xmm0
  01dfb	f3 0f 11 04 24	 movss	 DWORD PTR [esp], xmm0
  01e00	6a 03		 push	 3
  01e02	8b 15 00 00 00
	00		 mov	 edx, DWORD PTR ?main_3d_env@@3PAUENV_3D@@A ; main_3d_env
  01e08	52		 push	 edx
  01e09	e8 00 00 00 00	 call	 ?add_3d_sun_setting@@YGXPAUENV_3D@@W4WEATHERMODES@@MMUREAL_COLOUR@@M2MMMHM@Z ; add_3d_sun_setting

; 386  : 		add_3d_sun_setting ( main_3d_env, WEATHERMODE_HEAVY_RAIN, 0.0, 0.0, sun_colour[2], 0.20, sun_light_colour[6], 1.05, rad ( 90 ), rad ( 315 ), TRUE, NIGHT_TIME );

  01e0e	51		 push	 ecx
  01e0f	f3 0f 10 05 00
	00 00 00	 movss	 xmm0, DWORD PTR __real@467d2000
  01e17	f3 0f 11 04 24	 movss	 DWORD PTR [esp], xmm0
  01e1c	6a 01		 push	 1
  01e1e	51		 push	 ecx
  01e1f	f3 0f 10 05 00
	00 00 00	 movss	 xmm0, DWORD PTR __real@40afeddf
  01e27	f3 0f 11 04 24	 movss	 DWORD PTR [esp], xmm0
  01e2c	51		 push	 ecx
  01e2d	f3 0f 10 05 00
	00 00 00	 movss	 xmm0, DWORD PTR __real@3fc90fdb
  01e35	f3 0f 11 04 24	 movss	 DWORD PTR [esp], xmm0
  01e3a	51		 push	 ecx
  01e3b	f3 0f 10 05 00
	00 00 00	 movss	 xmm0, DWORD PTR __real@3f866666
  01e43	f3 0f 11 04 24	 movss	 DWORD PTR [esp], xmm0
  01e48	b8 04 00 00 00	 mov	 eax, 4
  01e4d	6b c8 06	 imul	 ecx, eax, 6
  01e50	8b 54 0d a8	 mov	 edx, DWORD PTR _sun_light_colour$14[ebp+ecx]
  01e54	52		 push	 edx
  01e55	51		 push	 ecx
  01e56	f3 0f 10 05 00
	00 00 00	 movss	 xmm0, DWORD PTR __real@3e4ccccd
  01e5e	f3 0f 11 04 24	 movss	 DWORD PTR [esp], xmm0
  01e63	b8 04 00 00 00	 mov	 eax, 4
  01e68	d1 e0		 shl	 eax, 1
  01e6a	8b 4c 05 cc	 mov	 ecx, DWORD PTR _sun_colour$15[ebp+eax]
  01e6e	51		 push	 ecx
  01e6f	51		 push	 ecx
  01e70	0f 57 c0	 xorps	 xmm0, xmm0
  01e73	f3 0f 11 04 24	 movss	 DWORD PTR [esp], xmm0
  01e78	51		 push	 ecx
  01e79	0f 57 c0	 xorps	 xmm0, xmm0
  01e7c	f3 0f 11 04 24	 movss	 DWORD PTR [esp], xmm0
  01e81	6a 03		 push	 3
  01e83	8b 15 00 00 00
	00		 mov	 edx, DWORD PTR ?main_3d_env@@3PAUENV_3D@@A ; main_3d_env
  01e89	52		 push	 edx
  01e8a	e8 00 00 00 00	 call	 ?add_3d_sun_setting@@YGXPAUENV_3D@@W4WEATHERMODES@@MMUREAL_COLOUR@@M2MMMHM@Z ; add_3d_sun_setting

; 387  : 
; 388  : 		add_3d_sun_setting ( main_3d_env, WEATHERMODE_SNOW, 1.0, 0.3, sun_colour[0], 0.10, sun_light_colour[7], 1.20, rad ( 90 ), rad ( 0 ), TRUE, SUN_RISE_START_TIME );

  01e8f	51		 push	 ecx
  01e90	f3 0f 10 05 00
	00 00 00	 movss	 xmm0, DWORD PTR __real@46a8c000
  01e98	f3 0f 11 04 24	 movss	 DWORD PTR [esp], xmm0
  01e9d	6a 01		 push	 1
  01e9f	51		 push	 ecx
  01ea0	0f 57 c0	 xorps	 xmm0, xmm0
  01ea3	f3 0f 11 04 24	 movss	 DWORD PTR [esp], xmm0
  01ea8	51		 push	 ecx
  01ea9	f3 0f 10 05 00
	00 00 00	 movss	 xmm0, DWORD PTR __real@3fc90fdb
  01eb1	f3 0f 11 04 24	 movss	 DWORD PTR [esp], xmm0
  01eb6	51		 push	 ecx
  01eb7	f3 0f 10 05 00
	00 00 00	 movss	 xmm0, DWORD PTR __real@3f99999a
  01ebf	f3 0f 11 04 24	 movss	 DWORD PTR [esp], xmm0
  01ec4	b8 04 00 00 00	 mov	 eax, 4
  01ec9	6b c8 07	 imul	 ecx, eax, 7
  01ecc	8b 54 0d a8	 mov	 edx, DWORD PTR _sun_light_colour$14[ebp+ecx]
  01ed0	52		 push	 edx
  01ed1	51		 push	 ecx
  01ed2	f3 0f 10 05 00
	00 00 00	 movss	 xmm0, DWORD PTR __real@3dcccccd
  01eda	f3 0f 11 04 24	 movss	 DWORD PTR [esp], xmm0
  01edf	b8 04 00 00 00	 mov	 eax, 4
  01ee4	6b c8 00	 imul	 ecx, eax, 0
  01ee7	8b 54 0d cc	 mov	 edx, DWORD PTR _sun_colour$15[ebp+ecx]
  01eeb	52		 push	 edx
  01eec	51		 push	 ecx
  01eed	f3 0f 10 05 00
	00 00 00	 movss	 xmm0, DWORD PTR __real@3e99999a
  01ef5	f3 0f 11 04 24	 movss	 DWORD PTR [esp], xmm0
  01efa	51		 push	 ecx
  01efb	f3 0f 10 05 00
	00 00 00	 movss	 xmm0, DWORD PTR __real@3f800000
  01f03	f3 0f 11 04 24	 movss	 DWORD PTR [esp], xmm0
  01f08	6a 04		 push	 4
  01f0a	a1 00 00 00 00	 mov	 eax, DWORD PTR ?main_3d_env@@3PAUENV_3D@@A ; main_3d_env
  01f0f	50		 push	 eax
  01f10	e8 00 00 00 00	 call	 ?add_3d_sun_setting@@YGXPAUENV_3D@@W4WEATHERMODES@@MMUREAL_COLOUR@@M2MMMHM@Z ; add_3d_sun_setting

; 389  : 		add_3d_sun_setting ( main_3d_env, WEATHERMODE_SNOW, 1.0, 0.3, sun_colour[1], 0.10, sun_light_colour[1], 1.20, rad ( 90 ), rad ( 45 ), TRUE, SUN_RISE_END_TIME );

  01f15	51		 push	 ecx
  01f16	f3 0f 10 05 00
	00 00 00	 movss	 xmm0, DWORD PTR __real@46fd2000
  01f1e	f3 0f 11 04 24	 movss	 DWORD PTR [esp], xmm0
  01f23	6a 01		 push	 1
  01f25	51		 push	 ecx
  01f26	f3 0f 10 05 00
	00 00 00	 movss	 xmm0, DWORD PTR __real@3f490fdb
  01f2e	f3 0f 11 04 24	 movss	 DWORD PTR [esp], xmm0
  01f33	51		 push	 ecx
  01f34	f3 0f 10 05 00
	00 00 00	 movss	 xmm0, DWORD PTR __real@3fc90fdb
  01f3c	f3 0f 11 04 24	 movss	 DWORD PTR [esp], xmm0
  01f41	51		 push	 ecx
  01f42	f3 0f 10 05 00
	00 00 00	 movss	 xmm0, DWORD PTR __real@3f99999a
  01f4a	f3 0f 11 04 24	 movss	 DWORD PTR [esp], xmm0
  01f4f	b8 04 00 00 00	 mov	 eax, 4
  01f54	c1 e0 00	 shl	 eax, 0
  01f57	8b 4c 05 a8	 mov	 ecx, DWORD PTR _sun_light_colour$14[ebp+eax]
  01f5b	51		 push	 ecx
  01f5c	51		 push	 ecx
  01f5d	f3 0f 10 05 00
	00 00 00	 movss	 xmm0, DWORD PTR __real@3dcccccd
  01f65	f3 0f 11 04 24	 movss	 DWORD PTR [esp], xmm0
  01f6a	ba 04 00 00 00	 mov	 edx, 4
  01f6f	c1 e2 00	 shl	 edx, 0
  01f72	8b 44 15 cc	 mov	 eax, DWORD PTR _sun_colour$15[ebp+edx]
  01f76	50		 push	 eax
  01f77	51		 push	 ecx
  01f78	f3 0f 10 05 00
	00 00 00	 movss	 xmm0, DWORD PTR __real@3e99999a
  01f80	f3 0f 11 04 24	 movss	 DWORD PTR [esp], xmm0
  01f85	51		 push	 ecx
  01f86	f3 0f 10 05 00
	00 00 00	 movss	 xmm0, DWORD PTR __real@3f800000
  01f8e	f3 0f 11 04 24	 movss	 DWORD PTR [esp], xmm0
  01f93	6a 04		 push	 4
  01f95	8b 0d 00 00 00
	00		 mov	 ecx, DWORD PTR ?main_3d_env@@3PAUENV_3D@@A ; main_3d_env
  01f9b	51		 push	 ecx
  01f9c	e8 00 00 00 00	 call	 ?add_3d_sun_setting@@YGXPAUENV_3D@@W4WEATHERMODES@@MMUREAL_COLOUR@@M2MMMHM@Z ; add_3d_sun_setting

; 390  : 		add_3d_sun_setting ( main_3d_env, WEATHERMODE_SNOW, 1.0, 0.3, sun_colour[2], 0.10, sun_light_colour[2], 1.20, rad ( 90 ), rad ( 90 ), TRUE, MIDDAY_TIME );

  01fa1	51		 push	 ecx
  01fa2	f3 0f 10 05 00
	00 00 00	 movss	 xmm0, DWORD PTR __real@4728c000
  01faa	f3 0f 11 04 24	 movss	 DWORD PTR [esp], xmm0
  01faf	6a 01		 push	 1
  01fb1	51		 push	 ecx
  01fb2	f3 0f 10 05 00
	00 00 00	 movss	 xmm0, DWORD PTR __real@3fc90fdb
  01fba	f3 0f 11 04 24	 movss	 DWORD PTR [esp], xmm0
  01fbf	51		 push	 ecx
  01fc0	f3 0f 10 05 00
	00 00 00	 movss	 xmm0, DWORD PTR __real@3fc90fdb
  01fc8	f3 0f 11 04 24	 movss	 DWORD PTR [esp], xmm0
  01fcd	51		 push	 ecx
  01fce	f3 0f 10 05 00
	00 00 00	 movss	 xmm0, DWORD PTR __real@3f99999a
  01fd6	f3 0f 11 04 24	 movss	 DWORD PTR [esp], xmm0
  01fdb	b8 04 00 00 00	 mov	 eax, 4
  01fe0	d1 e0		 shl	 eax, 1
  01fe2	8b 4c 05 a8	 mov	 ecx, DWORD PTR _sun_light_colour$14[ebp+eax]
  01fe6	51		 push	 ecx
  01fe7	51		 push	 ecx
  01fe8	f3 0f 10 05 00
	00 00 00	 movss	 xmm0, DWORD PTR __real@3dcccccd
  01ff0	f3 0f 11 04 24	 movss	 DWORD PTR [esp], xmm0
  01ff5	ba 04 00 00 00	 mov	 edx, 4
  01ffa	d1 e2		 shl	 edx, 1
  01ffc	8b 44 15 cc	 mov	 eax, DWORD PTR _sun_colour$15[ebp+edx]
  02000	50		 push	 eax
  02001	51		 push	 ecx
  02002	f3 0f 10 05 00
	00 00 00	 movss	 xmm0, DWORD PTR __real@3e99999a
  0200a	f3 0f 11 04 24	 movss	 DWORD PTR [esp], xmm0
  0200f	51		 push	 ecx
  02010	f3 0f 10 05 00
	00 00 00	 movss	 xmm0, DWORD PTR __real@3f800000
  02018	f3 0f 11 04 24	 movss	 DWORD PTR [esp], xmm0
  0201d	6a 04		 push	 4
  0201f	8b 0d 00 00 00
	00		 mov	 ecx, DWORD PTR ?main_3d_env@@3PAUENV_3D@@A ; main_3d_env
  02025	51		 push	 ecx
  02026	e8 00 00 00 00	 call	 ?add_3d_sun_setting@@YGXPAUENV_3D@@W4WEATHERMODES@@MMUREAL_COLOUR@@M2MMMHM@Z ; add_3d_sun_setting

; 391  : 		add_3d_sun_setting ( main_3d_env, WEATHERMODE_SNOW, 1.0, 0.3, sun_colour[2], 0.10, sun_light_colour[3], 1.20, rad ( 90 ), rad ( 135 ), TRUE, SUN_SET_START_TIME );

  0202b	51		 push	 ecx
  0202c	f3 0f 10 05 00
	00 00 00	 movss	 xmm0, DWORD PTR __real@476f1000
  02034	f3 0f 11 04 24	 movss	 DWORD PTR [esp], xmm0
  02039	6a 01		 push	 1
  0203b	51		 push	 ecx
  0203c	f3 0f 10 05 00
	00 00 00	 movss	 xmm0, DWORD PTR __real@4016cbe4
  02044	f3 0f 11 04 24	 movss	 DWORD PTR [esp], xmm0
  02049	51		 push	 ecx
  0204a	f3 0f 10 05 00
	00 00 00	 movss	 xmm0, DWORD PTR __real@3fc90fdb
  02052	f3 0f 11 04 24	 movss	 DWORD PTR [esp], xmm0
  02057	51		 push	 ecx
  02058	f3 0f 10 05 00
	00 00 00	 movss	 xmm0, DWORD PTR __real@3f99999a
  02060	f3 0f 11 04 24	 movss	 DWORD PTR [esp], xmm0
  02065	b8 04 00 00 00	 mov	 eax, 4
  0206a	6b c8 03	 imul	 ecx, eax, 3
  0206d	8b 54 0d a8	 mov	 edx, DWORD PTR _sun_light_colour$14[ebp+ecx]
  02071	52		 push	 edx
  02072	51		 push	 ecx
  02073	f3 0f 10 05 00
	00 00 00	 movss	 xmm0, DWORD PTR __real@3dcccccd
  0207b	f3 0f 11 04 24	 movss	 DWORD PTR [esp], xmm0
  02080	b8 04 00 00 00	 mov	 eax, 4
  02085	d1 e0		 shl	 eax, 1
  02087	8b 4c 05 cc	 mov	 ecx, DWORD PTR _sun_colour$15[ebp+eax]
  0208b	51		 push	 ecx
  0208c	51		 push	 ecx
  0208d	f3 0f 10 05 00
	00 00 00	 movss	 xmm0, DWORD PTR __real@3e99999a
  02095	f3 0f 11 04 24	 movss	 DWORD PTR [esp], xmm0
  0209a	51		 push	 ecx
  0209b	f3 0f 10 05 00
	00 00 00	 movss	 xmm0, DWORD PTR __real@3f800000
  020a3	f3 0f 11 04 24	 movss	 DWORD PTR [esp], xmm0
  020a8	6a 04		 push	 4
  020aa	8b 15 00 00 00
	00		 mov	 edx, DWORD PTR ?main_3d_env@@3PAUENV_3D@@A ; main_3d_env
  020b0	52		 push	 edx
  020b1	e8 00 00 00 00	 call	 ?add_3d_sun_setting@@YGXPAUENV_3D@@W4WEATHERMODES@@MMUREAL_COLOUR@@M2MMMHM@Z ; add_3d_sun_setting

; 392  : 		add_3d_sun_setting ( main_3d_env, WEATHERMODE_SNOW, 2.0, 0.3, sun_colour[2], 0.10, sun_light_colour[8], 1.20, rad ( 90 ), rad ( 180 ), TRUE, SUN_SET_END_TIME );

  020b6	51		 push	 ecx
  020b7	f3 0f 10 05 00
	00 00 00	 movss	 xmm0, DWORD PTR __real@47891c00
  020bf	f3 0f 11 04 24	 movss	 DWORD PTR [esp], xmm0
  020c4	6a 01		 push	 1
  020c6	51		 push	 ecx
  020c7	f3 0f 10 05 00
	00 00 00	 movss	 xmm0, DWORD PTR __real@40490fdb
  020cf	f3 0f 11 04 24	 movss	 DWORD PTR [esp], xmm0
  020d4	51		 push	 ecx
  020d5	f3 0f 10 05 00
	00 00 00	 movss	 xmm0, DWORD PTR __real@3fc90fdb
  020dd	f3 0f 11 04 24	 movss	 DWORD PTR [esp], xmm0
  020e2	51		 push	 ecx
  020e3	f3 0f 10 05 00
	00 00 00	 movss	 xmm0, DWORD PTR __real@3f99999a
  020eb	f3 0f 11 04 24	 movss	 DWORD PTR [esp], xmm0
  020f0	b8 04 00 00 00	 mov	 eax, 4
  020f5	c1 e0 03	 shl	 eax, 3
  020f8	8b 4c 05 a8	 mov	 ecx, DWORD PTR _sun_light_colour$14[ebp+eax]
  020fc	51		 push	 ecx
  020fd	51		 push	 ecx
  020fe	f3 0f 10 05 00
	00 00 00	 movss	 xmm0, DWORD PTR __real@3dcccccd
  02106	f3 0f 11 04 24	 movss	 DWORD PTR [esp], xmm0
  0210b	ba 04 00 00 00	 mov	 edx, 4
  02110	d1 e2		 shl	 edx, 1
  02112	8b 44 15 cc	 mov	 eax, DWORD PTR _sun_colour$15[ebp+edx]
  02116	50		 push	 eax
  02117	51		 push	 ecx
  02118	f3 0f 10 05 00
	00 00 00	 movss	 xmm0, DWORD PTR __real@3e99999a
  02120	f3 0f 11 04 24	 movss	 DWORD PTR [esp], xmm0
  02125	51		 push	 ecx
  02126	f3 0f 10 05 00
	00 00 00	 movss	 xmm0, DWORD PTR __real@40000000
  0212e	f3 0f 11 04 24	 movss	 DWORD PTR [esp], xmm0
  02133	6a 04		 push	 4
  02135	8b 0d 00 00 00
	00		 mov	 ecx, DWORD PTR ?main_3d_env@@3PAUENV_3D@@A ; main_3d_env
  0213b	51		 push	 ecx
  0213c	e8 00 00 00 00	 call	 ?add_3d_sun_setting@@YGXPAUENV_3D@@W4WEATHERMODES@@MMUREAL_COLOUR@@M2MMMHM@Z ; add_3d_sun_setting

; 393  : 		add_3d_sun_setting ( main_3d_env, WEATHERMODE_SNOW, 0.0, 0.0, sun_colour[2], 0.10, sun_light_colour[5], 1.20, rad ( 90 ), rad ( 225 ), TRUE, TWILIGHT_TIME );

  02141	51		 push	 ecx
  02142	f3 0f 10 05 00
	00 00 00	 movss	 xmm0, DWORD PTR __real@479ab000
  0214a	f3 0f 11 04 24	 movss	 DWORD PTR [esp], xmm0
  0214f	6a 01		 push	 1
  02151	51		 push	 ecx
  02152	f3 0f 10 05 00
	00 00 00	 movss	 xmm0, DWORD PTR __real@407b53d1
  0215a	f3 0f 11 04 24	 movss	 DWORD PTR [esp], xmm0
  0215f	51		 push	 ecx
  02160	f3 0f 10 05 00
	00 00 00	 movss	 xmm0, DWORD PTR __real@3fc90fdb
  02168	f3 0f 11 04 24	 movss	 DWORD PTR [esp], xmm0
  0216d	51		 push	 ecx
  0216e	f3 0f 10 05 00
	00 00 00	 movss	 xmm0, DWORD PTR __real@3f99999a
  02176	f3 0f 11 04 24	 movss	 DWORD PTR [esp], xmm0
  0217b	b8 04 00 00 00	 mov	 eax, 4
  02180	6b c8 05	 imul	 ecx, eax, 5
  02183	8b 54 0d a8	 mov	 edx, DWORD PTR _sun_light_colour$14[ebp+ecx]
  02187	52		 push	 edx
  02188	51		 push	 ecx
  02189	f3 0f 10 05 00
	00 00 00	 movss	 xmm0, DWORD PTR __real@3dcccccd
  02191	f3 0f 11 04 24	 movss	 DWORD PTR [esp], xmm0
  02196	b8 04 00 00 00	 mov	 eax, 4
  0219b	d1 e0		 shl	 eax, 1
  0219d	8b 4c 05 cc	 mov	 ecx, DWORD PTR _sun_colour$15[ebp+eax]
  021a1	51		 push	 ecx
  021a2	51		 push	 ecx
  021a3	0f 57 c0	 xorps	 xmm0, xmm0
  021a6	f3 0f 11 04 24	 movss	 DWORD PTR [esp], xmm0
  021ab	51		 push	 ecx
  021ac	0f 57 c0	 xorps	 xmm0, xmm0
  021af	f3 0f 11 04 24	 movss	 DWORD PTR [esp], xmm0
  021b4	6a 04		 push	 4
  021b6	8b 15 00 00 00
	00		 mov	 edx, DWORD PTR ?main_3d_env@@3PAUENV_3D@@A ; main_3d_env
  021bc	52		 push	 edx
  021bd	e8 00 00 00 00	 call	 ?add_3d_sun_setting@@YGXPAUENV_3D@@W4WEATHERMODES@@MMUREAL_COLOUR@@M2MMMHM@Z ; add_3d_sun_setting

; 394  : 		add_3d_sun_setting ( main_3d_env, WEATHERMODE_SNOW, 0.0, 0.0, sun_colour[2], 0.10, sun_light_colour[6], 1.20, rad ( 90 ), rad ( 270 ), FALSE, MIDNIGHT_TIME );

  021c2	51		 push	 ecx
  021c3	0f 57 c0	 xorps	 xmm0, xmm0
  021c6	f3 0f 11 04 24	 movss	 DWORD PTR [esp], xmm0
  021cb	6a 00		 push	 0
  021cd	51		 push	 ecx
  021ce	f3 0f 10 05 00
	00 00 00	 movss	 xmm0, DWORD PTR __real@4096cbe4
  021d6	f3 0f 11 04 24	 movss	 DWORD PTR [esp], xmm0
  021db	51		 push	 ecx
  021dc	f3 0f 10 05 00
	00 00 00	 movss	 xmm0, DWORD PTR __real@3fc90fdb
  021e4	f3 0f 11 04 24	 movss	 DWORD PTR [esp], xmm0
  021e9	51		 push	 ecx
  021ea	f3 0f 10 05 00
	00 00 00	 movss	 xmm0, DWORD PTR __real@3f99999a
  021f2	f3 0f 11 04 24	 movss	 DWORD PTR [esp], xmm0
  021f7	b8 04 00 00 00	 mov	 eax, 4
  021fc	6b c8 06	 imul	 ecx, eax, 6
  021ff	8b 54 0d a8	 mov	 edx, DWORD PTR _sun_light_colour$14[ebp+ecx]
  02203	52		 push	 edx
  02204	51		 push	 ecx
  02205	f3 0f 10 05 00
	00 00 00	 movss	 xmm0, DWORD PTR __real@3dcccccd
  0220d	f3 0f 11 04 24	 movss	 DWORD PTR [esp], xmm0
  02212	b8 04 00 00 00	 mov	 eax, 4
  02217	d1 e0		 shl	 eax, 1
  02219	8b 4c 05 cc	 mov	 ecx, DWORD PTR _sun_colour$15[ebp+eax]
  0221d	51		 push	 ecx
  0221e	51		 push	 ecx
  0221f	0f 57 c0	 xorps	 xmm0, xmm0
  02222	f3 0f 11 04 24	 movss	 DWORD PTR [esp], xmm0
  02227	51		 push	 ecx
  02228	0f 57 c0	 xorps	 xmm0, xmm0
  0222b	f3 0f 11 04 24	 movss	 DWORD PTR [esp], xmm0
  02230	6a 04		 push	 4
  02232	8b 15 00 00 00
	00		 mov	 edx, DWORD PTR ?main_3d_env@@3PAUENV_3D@@A ; main_3d_env
  02238	52		 push	 edx
  02239	e8 00 00 00 00	 call	 ?add_3d_sun_setting@@YGXPAUENV_3D@@W4WEATHERMODES@@MMUREAL_COLOUR@@M2MMMHM@Z ; add_3d_sun_setting

; 395  : 		add_3d_sun_setting ( main_3d_env, WEATHERMODE_SNOW, 0.0, 0.0, sun_colour[2], 0.10, sun_light_colour[6], 1.20, rad ( 90 ), rad ( 315 ), TRUE, NIGHT_TIME );

  0223e	51		 push	 ecx
  0223f	f3 0f 10 05 00
	00 00 00	 movss	 xmm0, DWORD PTR __real@467d2000
  02247	f3 0f 11 04 24	 movss	 DWORD PTR [esp], xmm0
  0224c	6a 01		 push	 1
  0224e	51		 push	 ecx
  0224f	f3 0f 10 05 00
	00 00 00	 movss	 xmm0, DWORD PTR __real@40afeddf
  02257	f3 0f 11 04 24	 movss	 DWORD PTR [esp], xmm0
  0225c	51		 push	 ecx
  0225d	f3 0f 10 05 00
	00 00 00	 movss	 xmm0, DWORD PTR __real@3fc90fdb
  02265	f3 0f 11 04 24	 movss	 DWORD PTR [esp], xmm0
  0226a	51		 push	 ecx
  0226b	f3 0f 10 05 00
	00 00 00	 movss	 xmm0, DWORD PTR __real@3f99999a
  02273	f3 0f 11 04 24	 movss	 DWORD PTR [esp], xmm0
  02278	b8 04 00 00 00	 mov	 eax, 4
  0227d	6b c8 06	 imul	 ecx, eax, 6
  02280	8b 54 0d a8	 mov	 edx, DWORD PTR _sun_light_colour$14[ebp+ecx]
  02284	52		 push	 edx
  02285	51		 push	 ecx
  02286	f3 0f 10 05 00
	00 00 00	 movss	 xmm0, DWORD PTR __real@3dcccccd
  0228e	f3 0f 11 04 24	 movss	 DWORD PTR [esp], xmm0
  02293	b8 04 00 00 00	 mov	 eax, 4
  02298	d1 e0		 shl	 eax, 1
  0229a	8b 4c 05 cc	 mov	 ecx, DWORD PTR _sun_colour$15[ebp+eax]
  0229e	51		 push	 ecx
  0229f	51		 push	 ecx
  022a0	0f 57 c0	 xorps	 xmm0, xmm0
  022a3	f3 0f 11 04 24	 movss	 DWORD PTR [esp], xmm0
  022a8	51		 push	 ecx
  022a9	0f 57 c0	 xorps	 xmm0, xmm0
  022ac	f3 0f 11 04 24	 movss	 DWORD PTR [esp], xmm0
  022b1	6a 04		 push	 4
  022b3	8b 15 00 00 00
	00		 mov	 edx, DWORD PTR ?main_3d_env@@3PAUENV_3D@@A ; main_3d_env
  022b9	52		 push	 edx
  022ba	e8 00 00 00 00	 call	 ?add_3d_sun_setting@@YGXPAUENV_3D@@W4WEATHERMODES@@MMUREAL_COLOUR@@M2MMMHM@Z ; add_3d_sun_setting

; 396  : 	}
; 397  : 
; 398  : 
; 399  : 	//
; 400  : 	// Initialise the moon lighting system for the environment
; 401  : 	//
; 402  : 
; 403  : 	{
; 404  : 
; 405  : 		rgb_colour
; 406  : 			moon_colour[3],
; 407  : 			moon_light_colour[3];
; 408  :  
; 409  :     
; 410  : 		set_rgb_colour ( moon_colour[0],  0, 0, 0, 0 );

  022bf	b8 04 00 00 00	 mov	 eax, 4
  022c4	6b c8 00	 imul	 ecx, eax, 0
  022c7	c6 44 0d 9e 00	 mov	 BYTE PTR _moon_colour$13[ebp+ecx+2], 0
  022cc	b8 04 00 00 00	 mov	 eax, 4
  022d1	6b c8 00	 imul	 ecx, eax, 0
  022d4	c6 44 0d 9d 00	 mov	 BYTE PTR _moon_colour$13[ebp+ecx+1], 0
  022d9	b8 04 00 00 00	 mov	 eax, 4
  022de	6b c8 00	 imul	 ecx, eax, 0
  022e1	c6 44 0d 9c 00	 mov	 BYTE PTR _moon_colour$13[ebp+ecx], 0
  022e6	b8 04 00 00 00	 mov	 eax, 4
  022eb	6b c8 00	 imul	 ecx, eax, 0
  022ee	c6 44 0d 9f 00	 mov	 BYTE PTR _moon_colour$13[ebp+ecx+3], 0

; 411  : 		set_rgb_colour ( moon_colour[1],  255, 255, 255, 0 );

  022f3	b8 04 00 00 00	 mov	 eax, 4
  022f8	c1 e0 00	 shl	 eax, 0
  022fb	c6 44 05 9e ff	 mov	 BYTE PTR _moon_colour$13[ebp+eax+2], 255 ; 000000ffH
  02300	b8 04 00 00 00	 mov	 eax, 4
  02305	c1 e0 00	 shl	 eax, 0
  02308	c6 44 05 9d ff	 mov	 BYTE PTR _moon_colour$13[ebp+eax+1], 255 ; 000000ffH
  0230d	b8 04 00 00 00	 mov	 eax, 4
  02312	c1 e0 00	 shl	 eax, 0
  02315	c6 44 05 9c ff	 mov	 BYTE PTR _moon_colour$13[ebp+eax], 255 ; 000000ffH
  0231a	b8 04 00 00 00	 mov	 eax, 4
  0231f	c1 e0 00	 shl	 eax, 0
  02322	c6 44 05 9f 00	 mov	 BYTE PTR _moon_colour$13[ebp+eax+3], 0

; 412  : 		set_rgb_colour ( moon_colour[2],  255, 255, 255, 0 );

  02327	b8 04 00 00 00	 mov	 eax, 4
  0232c	d1 e0		 shl	 eax, 1
  0232e	c6 44 05 9e ff	 mov	 BYTE PTR _moon_colour$13[ebp+eax+2], 255 ; 000000ffH
  02333	b8 04 00 00 00	 mov	 eax, 4
  02338	d1 e0		 shl	 eax, 1
  0233a	c6 44 05 9d ff	 mov	 BYTE PTR _moon_colour$13[ebp+eax+1], 255 ; 000000ffH
  0233f	b8 04 00 00 00	 mov	 eax, 4
  02344	d1 e0		 shl	 eax, 1
  02346	c6 44 05 9c ff	 mov	 BYTE PTR _moon_colour$13[ebp+eax], 255 ; 000000ffH
  0234b	b8 04 00 00 00	 mov	 eax, 4
  02350	d1 e0		 shl	 eax, 1
  02352	c6 44 05 9f 00	 mov	 BYTE PTR _moon_colour$13[ebp+eax+3], 0

; 413  : 
; 414  : 		set_rgb_colour ( moon_light_colour[0], 0, 0, 0, 0 );

  02357	b8 04 00 00 00	 mov	 eax, 4
  0235c	6b c8 00	 imul	 ecx, eax, 0
  0235f	c6 44 0d 92 00	 mov	 BYTE PTR _moon_light_colour$12[ebp+ecx+2], 0
  02364	b8 04 00 00 00	 mov	 eax, 4
  02369	6b c8 00	 imul	 ecx, eax, 0
  0236c	c6 44 0d 91 00	 mov	 BYTE PTR _moon_light_colour$12[ebp+ecx+1], 0
  02371	b8 04 00 00 00	 mov	 eax, 4
  02376	6b c8 00	 imul	 ecx, eax, 0
  02379	c6 44 0d 90 00	 mov	 BYTE PTR _moon_light_colour$12[ebp+ecx], 0
  0237e	b8 04 00 00 00	 mov	 eax, 4
  02383	6b c8 00	 imul	 ecx, eax, 0
  02386	c6 44 0d 93 00	 mov	 BYTE PTR _moon_light_colour$12[ebp+ecx+3], 0

; 415  : 		set_rgb_colour ( moon_light_colour[1], 23, 33, 41, 0 ); // 24% 9pm, 12am,

  0238b	b8 04 00 00 00	 mov	 eax, 4
  02390	c1 e0 00	 shl	 eax, 0
  02393	c6 44 05 92 17	 mov	 BYTE PTR _moon_light_colour$12[ebp+eax+2], 23 ; 00000017H
  02398	b8 04 00 00 00	 mov	 eax, 4
  0239d	c1 e0 00	 shl	 eax, 0
  023a0	c6 44 05 91 21	 mov	 BYTE PTR _moon_light_colour$12[ebp+eax+1], 33 ; 00000021H
  023a5	b8 04 00 00 00	 mov	 eax, 4
  023aa	c1 e0 00	 shl	 eax, 0
  023ad	c6 44 05 90 29	 mov	 BYTE PTR _moon_light_colour$12[ebp+eax], 41 ; 00000029H
  023b2	b8 04 00 00 00	 mov	 eax, 4
  023b7	c1 e0 00	 shl	 eax, 0
  023ba	c6 44 05 93 00	 mov	 BYTE PTR _moon_light_colour$12[ebp+eax+3], 0

; 416  : 		set_rgb_colour ( moon_light_colour[2], 23, 33, 41, 0 ); // 24% 3am

  023bf	b8 04 00 00 00	 mov	 eax, 4
  023c4	d1 e0		 shl	 eax, 1
  023c6	c6 44 05 92 17	 mov	 BYTE PTR _moon_light_colour$12[ebp+eax+2], 23 ; 00000017H
  023cb	b8 04 00 00 00	 mov	 eax, 4
  023d0	d1 e0		 shl	 eax, 1
  023d2	c6 44 05 91 21	 mov	 BYTE PTR _moon_light_colour$12[ebp+eax+1], 33 ; 00000021H
  023d7	b8 04 00 00 00	 mov	 eax, 4
  023dc	d1 e0		 shl	 eax, 1
  023de	c6 44 05 90 29	 mov	 BYTE PTR _moon_light_colour$12[ebp+eax], 41 ; 00000029H
  023e3	b8 04 00 00 00	 mov	 eax, 4
  023e8	d1 e0		 shl	 eax, 1
  023ea	c6 44 05 93 00	 mov	 BYTE PTR _moon_light_colour$12[ebp+eax+3], 0

; 417  :     
; 418  :     //VJ060920 night light level mod
; 419  : 		add_3d_moon_setting ( main_3d_env, WEATHERMODE_DRY, 1.0, 0.0, moon_colour[0], 1.0, moon_light_colour[0], 1.0, rad ( 90 ), rad ( 180 ), FALSE, SUN_RISE_START_TIME );

  023ef	51		 push	 ecx
  023f0	f3 0f 10 05 00
	00 00 00	 movss	 xmm0, DWORD PTR __real@46a8c000
  023f8	f3 0f 11 04 24	 movss	 DWORD PTR [esp], xmm0
  023fd	6a 00		 push	 0
  023ff	51		 push	 ecx
  02400	f3 0f 10 05 00
	00 00 00	 movss	 xmm0, DWORD PTR __real@40490fdb
  02408	f3 0f 11 04 24	 movss	 DWORD PTR [esp], xmm0
  0240d	51		 push	 ecx
  0240e	f3 0f 10 05 00
	00 00 00	 movss	 xmm0, DWORD PTR __real@3fc90fdb
  02416	f3 0f 11 04 24	 movss	 DWORD PTR [esp], xmm0
  0241b	51		 push	 ecx
  0241c	f3 0f 10 05 00
	00 00 00	 movss	 xmm0, DWORD PTR __real@3f800000
  02424	f3 0f 11 04 24	 movss	 DWORD PTR [esp], xmm0
  02429	b8 04 00 00 00	 mov	 eax, 4
  0242e	6b c8 00	 imul	 ecx, eax, 0
  02431	8b 54 0d 90	 mov	 edx, DWORD PTR _moon_light_colour$12[ebp+ecx]
  02435	52		 push	 edx
  02436	51		 push	 ecx
  02437	f3 0f 10 05 00
	00 00 00	 movss	 xmm0, DWORD PTR __real@3f800000
  0243f	f3 0f 11 04 24	 movss	 DWORD PTR [esp], xmm0
  02444	b8 04 00 00 00	 mov	 eax, 4
  02449	6b c8 00	 imul	 ecx, eax, 0
  0244c	8b 54 0d 9c	 mov	 edx, DWORD PTR _moon_colour$13[ebp+ecx]
  02450	52		 push	 edx
  02451	51		 push	 ecx
  02452	0f 57 c0	 xorps	 xmm0, xmm0
  02455	f3 0f 11 04 24	 movss	 DWORD PTR [esp], xmm0
  0245a	51		 push	 ecx
  0245b	f3 0f 10 05 00
	00 00 00	 movss	 xmm0, DWORD PTR __real@3f800000
  02463	f3 0f 11 04 24	 movss	 DWORD PTR [esp], xmm0
  02468	6a 01		 push	 1
  0246a	a1 00 00 00 00	 mov	 eax, DWORD PTR ?main_3d_env@@3PAUENV_3D@@A ; main_3d_env
  0246f	50		 push	 eax
  02470	e8 00 00 00 00	 call	 ?add_3d_moon_setting@@YGXPAUENV_3D@@W4WEATHERMODES@@MMUREAL_COLOUR@@M2MMMHM@Z ; add_3d_moon_setting

; 420  : 		add_3d_moon_setting ( main_3d_env, WEATHERMODE_DRY, 1.0, 0.0, moon_colour[0], 1.0, moon_light_colour[0], 1.0, rad ( 90 ), rad ( 225 ), FALSE, SUN_RISE_END_TIME );

  02475	51		 push	 ecx
  02476	f3 0f 10 05 00
	00 00 00	 movss	 xmm0, DWORD PTR __real@46fd2000
  0247e	f3 0f 11 04 24	 movss	 DWORD PTR [esp], xmm0
  02483	6a 00		 push	 0
  02485	51		 push	 ecx
  02486	f3 0f 10 05 00
	00 00 00	 movss	 xmm0, DWORD PTR __real@407b53d1
  0248e	f3 0f 11 04 24	 movss	 DWORD PTR [esp], xmm0
  02493	51		 push	 ecx
  02494	f3 0f 10 05 00
	00 00 00	 movss	 xmm0, DWORD PTR __real@3fc90fdb
  0249c	f3 0f 11 04 24	 movss	 DWORD PTR [esp], xmm0
  024a1	51		 push	 ecx
  024a2	f3 0f 10 05 00
	00 00 00	 movss	 xmm0, DWORD PTR __real@3f800000
  024aa	f3 0f 11 04 24	 movss	 DWORD PTR [esp], xmm0
  024af	b8 04 00 00 00	 mov	 eax, 4
  024b4	6b c8 00	 imul	 ecx, eax, 0
  024b7	8b 54 0d 90	 mov	 edx, DWORD PTR _moon_light_colour$12[ebp+ecx]
  024bb	52		 push	 edx
  024bc	51		 push	 ecx
  024bd	f3 0f 10 05 00
	00 00 00	 movss	 xmm0, DWORD PTR __real@3f800000
  024c5	f3 0f 11 04 24	 movss	 DWORD PTR [esp], xmm0
  024ca	b8 04 00 00 00	 mov	 eax, 4
  024cf	6b c8 00	 imul	 ecx, eax, 0
  024d2	8b 54 0d 9c	 mov	 edx, DWORD PTR _moon_colour$13[ebp+ecx]
  024d6	52		 push	 edx
  024d7	51		 push	 ecx
  024d8	0f 57 c0	 xorps	 xmm0, xmm0
  024db	f3 0f 11 04 24	 movss	 DWORD PTR [esp], xmm0
  024e0	51		 push	 ecx
  024e1	f3 0f 10 05 00
	00 00 00	 movss	 xmm0, DWORD PTR __real@3f800000
  024e9	f3 0f 11 04 24	 movss	 DWORD PTR [esp], xmm0
  024ee	6a 01		 push	 1
  024f0	a1 00 00 00 00	 mov	 eax, DWORD PTR ?main_3d_env@@3PAUENV_3D@@A ; main_3d_env
  024f5	50		 push	 eax
  024f6	e8 00 00 00 00	 call	 ?add_3d_moon_setting@@YGXPAUENV_3D@@W4WEATHERMODES@@MMUREAL_COLOUR@@M2MMMHM@Z ; add_3d_moon_setting

; 421  : 		add_3d_moon_setting ( main_3d_env, WEATHERMODE_DRY, 1.0, 0.0, moon_colour[0], 1.0, moon_light_colour[0], 1.0, rad ( 90 ), rad ( 270 ), FALSE, MIDDAY_TIME );

  024fb	51		 push	 ecx
  024fc	f3 0f 10 05 00
	00 00 00	 movss	 xmm0, DWORD PTR __real@4728c000
  02504	f3 0f 11 04 24	 movss	 DWORD PTR [esp], xmm0
  02509	6a 00		 push	 0
  0250b	51		 push	 ecx
  0250c	f3 0f 10 05 00
	00 00 00	 movss	 xmm0, DWORD PTR __real@4096cbe4
  02514	f3 0f 11 04 24	 movss	 DWORD PTR [esp], xmm0
  02519	51		 push	 ecx
  0251a	f3 0f 10 05 00
	00 00 00	 movss	 xmm0, DWORD PTR __real@3fc90fdb
  02522	f3 0f 11 04 24	 movss	 DWORD PTR [esp], xmm0
  02527	51		 push	 ecx
  02528	f3 0f 10 05 00
	00 00 00	 movss	 xmm0, DWORD PTR __real@3f800000
  02530	f3 0f 11 04 24	 movss	 DWORD PTR [esp], xmm0
  02535	b8 04 00 00 00	 mov	 eax, 4
  0253a	6b c8 00	 imul	 ecx, eax, 0
  0253d	8b 54 0d 90	 mov	 edx, DWORD PTR _moon_light_colour$12[ebp+ecx]
  02541	52		 push	 edx
  02542	51		 push	 ecx
  02543	f3 0f 10 05 00
	00 00 00	 movss	 xmm0, DWORD PTR __real@3f800000
  0254b	f3 0f 11 04 24	 movss	 DWORD PTR [esp], xmm0
  02550	b8 04 00 00 00	 mov	 eax, 4
  02555	6b c8 00	 imul	 ecx, eax, 0
  02558	8b 54 0d 9c	 mov	 edx, DWORD PTR _moon_colour$13[ebp+ecx]
  0255c	52		 push	 edx
  0255d	51		 push	 ecx
  0255e	0f 57 c0	 xorps	 xmm0, xmm0
  02561	f3 0f 11 04 24	 movss	 DWORD PTR [esp], xmm0
  02566	51		 push	 ecx
  02567	f3 0f 10 05 00
	00 00 00	 movss	 xmm0, DWORD PTR __real@3f800000
  0256f	f3 0f 11 04 24	 movss	 DWORD PTR [esp], xmm0
  02574	6a 01		 push	 1
  02576	a1 00 00 00 00	 mov	 eax, DWORD PTR ?main_3d_env@@3PAUENV_3D@@A ; main_3d_env
  0257b	50		 push	 eax
  0257c	e8 00 00 00 00	 call	 ?add_3d_moon_setting@@YGXPAUENV_3D@@W4WEATHERMODES@@MMUREAL_COLOUR@@M2MMMHM@Z ; add_3d_moon_setting

; 422  : 		add_3d_moon_setting ( main_3d_env, WEATHERMODE_DRY, 1.0, 0.0, moon_colour[0], 1.0, moon_light_colour[0], 1.0, rad ( 90 ), rad ( 315 ), FALSE, SUN_SET_START_TIME );

  02581	51		 push	 ecx
  02582	f3 0f 10 05 00
	00 00 00	 movss	 xmm0, DWORD PTR __real@476f1000
  0258a	f3 0f 11 04 24	 movss	 DWORD PTR [esp], xmm0
  0258f	6a 00		 push	 0
  02591	51		 push	 ecx
  02592	f3 0f 10 05 00
	00 00 00	 movss	 xmm0, DWORD PTR __real@40afeddf
  0259a	f3 0f 11 04 24	 movss	 DWORD PTR [esp], xmm0
  0259f	51		 push	 ecx
  025a0	f3 0f 10 05 00
	00 00 00	 movss	 xmm0, DWORD PTR __real@3fc90fdb
  025a8	f3 0f 11 04 24	 movss	 DWORD PTR [esp], xmm0
  025ad	51		 push	 ecx
  025ae	f3 0f 10 05 00
	00 00 00	 movss	 xmm0, DWORD PTR __real@3f800000
  025b6	f3 0f 11 04 24	 movss	 DWORD PTR [esp], xmm0
  025bb	b8 04 00 00 00	 mov	 eax, 4
  025c0	6b c8 00	 imul	 ecx, eax, 0
  025c3	8b 54 0d 90	 mov	 edx, DWORD PTR _moon_light_colour$12[ebp+ecx]
  025c7	52		 push	 edx
  025c8	51		 push	 ecx
  025c9	f3 0f 10 05 00
	00 00 00	 movss	 xmm0, DWORD PTR __real@3f800000
  025d1	f3 0f 11 04 24	 movss	 DWORD PTR [esp], xmm0
  025d6	b8 04 00 00 00	 mov	 eax, 4
  025db	6b c8 00	 imul	 ecx, eax, 0
  025de	8b 54 0d 9c	 mov	 edx, DWORD PTR _moon_colour$13[ebp+ecx]
  025e2	52		 push	 edx
  025e3	51		 push	 ecx
  025e4	0f 57 c0	 xorps	 xmm0, xmm0
  025e7	f3 0f 11 04 24	 movss	 DWORD PTR [esp], xmm0
  025ec	51		 push	 ecx
  025ed	f3 0f 10 05 00
	00 00 00	 movss	 xmm0, DWORD PTR __real@3f800000
  025f5	f3 0f 11 04 24	 movss	 DWORD PTR [esp], xmm0
  025fa	6a 01		 push	 1
  025fc	a1 00 00 00 00	 mov	 eax, DWORD PTR ?main_3d_env@@3PAUENV_3D@@A ; main_3d_env
  02601	50		 push	 eax
  02602	e8 00 00 00 00	 call	 ?add_3d_moon_setting@@YGXPAUENV_3D@@W4WEATHERMODES@@MMUREAL_COLOUR@@M2MMMHM@Z ; add_3d_moon_setting

; 423  : 		add_3d_moon_setting ( main_3d_env, WEATHERMODE_DRY, 1.0, 0.0, moon_colour[0], 1.0, moon_light_colour[0], 1.0, rad ( 90 ), rad ( 0 ), TRUE, SUN_SET_END_TIME );

  02607	51		 push	 ecx
  02608	f3 0f 10 05 00
	00 00 00	 movss	 xmm0, DWORD PTR __real@47891c00
  02610	f3 0f 11 04 24	 movss	 DWORD PTR [esp], xmm0
  02615	6a 01		 push	 1
  02617	51		 push	 ecx
  02618	0f 57 c0	 xorps	 xmm0, xmm0
  0261b	f3 0f 11 04 24	 movss	 DWORD PTR [esp], xmm0
  02620	51		 push	 ecx
  02621	f3 0f 10 05 00
	00 00 00	 movss	 xmm0, DWORD PTR __real@3fc90fdb
  02629	f3 0f 11 04 24	 movss	 DWORD PTR [esp], xmm0
  0262e	51		 push	 ecx
  0262f	f3 0f 10 05 00
	00 00 00	 movss	 xmm0, DWORD PTR __real@3f800000
  02637	f3 0f 11 04 24	 movss	 DWORD PTR [esp], xmm0
  0263c	b8 04 00 00 00	 mov	 eax, 4
  02641	6b c8 00	 imul	 ecx, eax, 0
  02644	8b 54 0d 90	 mov	 edx, DWORD PTR _moon_light_colour$12[ebp+ecx]
  02648	52		 push	 edx
  02649	51		 push	 ecx
  0264a	f3 0f 10 05 00
	00 00 00	 movss	 xmm0, DWORD PTR __real@3f800000
  02652	f3 0f 11 04 24	 movss	 DWORD PTR [esp], xmm0
  02657	b8 04 00 00 00	 mov	 eax, 4
  0265c	6b c8 00	 imul	 ecx, eax, 0
  0265f	8b 54 0d 9c	 mov	 edx, DWORD PTR _moon_colour$13[ebp+ecx]
  02663	52		 push	 edx
  02664	51		 push	 ecx
  02665	0f 57 c0	 xorps	 xmm0, xmm0
  02668	f3 0f 11 04 24	 movss	 DWORD PTR [esp], xmm0
  0266d	51		 push	 ecx
  0266e	f3 0f 10 05 00
	00 00 00	 movss	 xmm0, DWORD PTR __real@3f800000
  02676	f3 0f 11 04 24	 movss	 DWORD PTR [esp], xmm0
  0267b	6a 01		 push	 1
  0267d	a1 00 00 00 00	 mov	 eax, DWORD PTR ?main_3d_env@@3PAUENV_3D@@A ; main_3d_env
  02682	50		 push	 eax
  02683	e8 00 00 00 00	 call	 ?add_3d_moon_setting@@YGXPAUENV_3D@@W4WEATHERMODES@@MMUREAL_COLOUR@@M2MMMHM@Z ; add_3d_moon_setting

; 424  : 		add_3d_moon_setting ( main_3d_env, WEATHERMODE_DRY, 1.0, 0.0, moon_colour[1], 1.0, moon_light_colour[1], 1.0, rad ( 90 ), rad ( 45 ), TRUE, TWILIGHT_TIME );//VJ was 1.0

  02688	51		 push	 ecx
  02689	f3 0f 10 05 00
	00 00 00	 movss	 xmm0, DWORD PTR __real@479ab000
  02691	f3 0f 11 04 24	 movss	 DWORD PTR [esp], xmm0
  02696	6a 01		 push	 1
  02698	51		 push	 ecx
  02699	f3 0f 10 05 00
	00 00 00	 movss	 xmm0, DWORD PTR __real@3f490fdb
  026a1	f3 0f 11 04 24	 movss	 DWORD PTR [esp], xmm0
  026a6	51		 push	 ecx
  026a7	f3 0f 10 05 00
	00 00 00	 movss	 xmm0, DWORD PTR __real@3fc90fdb
  026af	f3 0f 11 04 24	 movss	 DWORD PTR [esp], xmm0
  026b4	51		 push	 ecx
  026b5	f3 0f 10 05 00
	00 00 00	 movss	 xmm0, DWORD PTR __real@3f800000
  026bd	f3 0f 11 04 24	 movss	 DWORD PTR [esp], xmm0
  026c2	b8 04 00 00 00	 mov	 eax, 4
  026c7	c1 e0 00	 shl	 eax, 0
  026ca	8b 4c 05 90	 mov	 ecx, DWORD PTR _moon_light_colour$12[ebp+eax]
  026ce	51		 push	 ecx
  026cf	51		 push	 ecx
  026d0	f3 0f 10 05 00
	00 00 00	 movss	 xmm0, DWORD PTR __real@3f800000
  026d8	f3 0f 11 04 24	 movss	 DWORD PTR [esp], xmm0
  026dd	ba 04 00 00 00	 mov	 edx, 4
  026e2	c1 e2 00	 shl	 edx, 0
  026e5	8b 44 15 9c	 mov	 eax, DWORD PTR _moon_colour$13[ebp+edx]
  026e9	50		 push	 eax
  026ea	51		 push	 ecx
  026eb	0f 57 c0	 xorps	 xmm0, xmm0
  026ee	f3 0f 11 04 24	 movss	 DWORD PTR [esp], xmm0
  026f3	51		 push	 ecx
  026f4	f3 0f 10 05 00
	00 00 00	 movss	 xmm0, DWORD PTR __real@3f800000
  026fc	f3 0f 11 04 24	 movss	 DWORD PTR [esp], xmm0
  02701	6a 01		 push	 1
  02703	8b 0d 00 00 00
	00		 mov	 ecx, DWORD PTR ?main_3d_env@@3PAUENV_3D@@A ; main_3d_env
  02709	51		 push	 ecx
  0270a	e8 00 00 00 00	 call	 ?add_3d_moon_setting@@YGXPAUENV_3D@@W4WEATHERMODES@@MMUREAL_COLOUR@@M2MMMHM@Z ; add_3d_moon_setting

; 425  : 		add_3d_moon_setting ( main_3d_env, WEATHERMODE_DRY, 1.0, 0.0, moon_colour[2], 1.0, moon_light_colour[2], light_level, rad ( 90 ), rad ( 90 ), TRUE, MIDNIGHT_TIME );

  0270f	51		 push	 ecx
  02710	0f 57 c0	 xorps	 xmm0, xmm0
  02713	f3 0f 11 04 24	 movss	 DWORD PTR [esp], xmm0
  02718	6a 01		 push	 1
  0271a	51		 push	 ecx
  0271b	f3 0f 10 05 00
	00 00 00	 movss	 xmm0, DWORD PTR __real@3fc90fdb
  02723	f3 0f 11 04 24	 movss	 DWORD PTR [esp], xmm0
  02728	51		 push	 ecx
  02729	f3 0f 10 05 00
	00 00 00	 movss	 xmm0, DWORD PTR __real@3fc90fdb
  02731	f3 0f 11 04 24	 movss	 DWORD PTR [esp], xmm0
  02736	51		 push	 ecx
  02737	f3 0f 10 45 fc	 movss	 xmm0, DWORD PTR _light_level$[ebp]
  0273c	f3 0f 11 04 24	 movss	 DWORD PTR [esp], xmm0
  02741	b8 04 00 00 00	 mov	 eax, 4
  02746	d1 e0		 shl	 eax, 1
  02748	8b 4c 05 90	 mov	 ecx, DWORD PTR _moon_light_colour$12[ebp+eax]
  0274c	51		 push	 ecx
  0274d	51		 push	 ecx
  0274e	f3 0f 10 05 00
	00 00 00	 movss	 xmm0, DWORD PTR __real@3f800000
  02756	f3 0f 11 04 24	 movss	 DWORD PTR [esp], xmm0
  0275b	ba 04 00 00 00	 mov	 edx, 4
  02760	d1 e2		 shl	 edx, 1
  02762	8b 44 15 9c	 mov	 eax, DWORD PTR _moon_colour$13[ebp+edx]
  02766	50		 push	 eax
  02767	51		 push	 ecx
  02768	0f 57 c0	 xorps	 xmm0, xmm0
  0276b	f3 0f 11 04 24	 movss	 DWORD PTR [esp], xmm0
  02770	51		 push	 ecx
  02771	f3 0f 10 05 00
	00 00 00	 movss	 xmm0, DWORD PTR __real@3f800000
  02779	f3 0f 11 04 24	 movss	 DWORD PTR [esp], xmm0
  0277e	6a 01		 push	 1
  02780	8b 0d 00 00 00
	00		 mov	 ecx, DWORD PTR ?main_3d_env@@3PAUENV_3D@@A ; main_3d_env
  02786	51		 push	 ecx
  02787	e8 00 00 00 00	 call	 ?add_3d_moon_setting@@YGXPAUENV_3D@@W4WEATHERMODES@@MMUREAL_COLOUR@@M2MMMHM@Z ; add_3d_moon_setting

; 426  : 		add_3d_moon_setting ( main_3d_env, WEATHERMODE_DRY, 1.0, 0.0, moon_colour[2], 1.0, moon_light_colour[2], light_level, rad ( 90 ), rad ( 135 ), TRUE, NIGHT_TIME );

  0278c	51		 push	 ecx
  0278d	f3 0f 10 05 00
	00 00 00	 movss	 xmm0, DWORD PTR __real@467d2000
  02795	f3 0f 11 04 24	 movss	 DWORD PTR [esp], xmm0
  0279a	6a 01		 push	 1
  0279c	51		 push	 ecx
  0279d	f3 0f 10 05 00
	00 00 00	 movss	 xmm0, DWORD PTR __real@4016cbe4
  027a5	f3 0f 11 04 24	 movss	 DWORD PTR [esp], xmm0
  027aa	51		 push	 ecx
  027ab	f3 0f 10 05 00
	00 00 00	 movss	 xmm0, DWORD PTR __real@3fc90fdb
  027b3	f3 0f 11 04 24	 movss	 DWORD PTR [esp], xmm0
  027b8	51		 push	 ecx
  027b9	f3 0f 10 45 fc	 movss	 xmm0, DWORD PTR _light_level$[ebp]
  027be	f3 0f 11 04 24	 movss	 DWORD PTR [esp], xmm0
  027c3	b8 04 00 00 00	 mov	 eax, 4
  027c8	d1 e0		 shl	 eax, 1
  027ca	8b 4c 05 90	 mov	 ecx, DWORD PTR _moon_light_colour$12[ebp+eax]
  027ce	51		 push	 ecx
  027cf	51		 push	 ecx
  027d0	f3 0f 10 05 00
	00 00 00	 movss	 xmm0, DWORD PTR __real@3f800000
  027d8	f3 0f 11 04 24	 movss	 DWORD PTR [esp], xmm0
  027dd	ba 04 00 00 00	 mov	 edx, 4
  027e2	d1 e2		 shl	 edx, 1
  027e4	8b 44 15 9c	 mov	 eax, DWORD PTR _moon_colour$13[ebp+edx]
  027e8	50		 push	 eax
  027e9	51		 push	 ecx
  027ea	0f 57 c0	 xorps	 xmm0, xmm0
  027ed	f3 0f 11 04 24	 movss	 DWORD PTR [esp], xmm0
  027f2	51		 push	 ecx
  027f3	f3 0f 10 05 00
	00 00 00	 movss	 xmm0, DWORD PTR __real@3f800000
  027fb	f3 0f 11 04 24	 movss	 DWORD PTR [esp], xmm0
  02800	6a 01		 push	 1
  02802	8b 0d 00 00 00
	00		 mov	 ecx, DWORD PTR ?main_3d_env@@3PAUENV_3D@@A ; main_3d_env
  02808	51		 push	 ecx
  02809	e8 00 00 00 00	 call	 ?add_3d_moon_setting@@YGXPAUENV_3D@@W4WEATHERMODES@@MMUREAL_COLOUR@@M2MMMHM@Z ; add_3d_moon_setting

; 427  : 
; 428  : 		add_3d_moon_setting ( main_3d_env, WEATHERMODE_LIGHT_RAIN, 1.0, 0.0, moon_colour[0], 0.70, moon_light_colour[0], 0.90, rad ( 90 ), rad ( 180 ), FALSE, SUN_RISE_START_TIME );

  0280e	51		 push	 ecx
  0280f	f3 0f 10 05 00
	00 00 00	 movss	 xmm0, DWORD PTR __real@46a8c000
  02817	f3 0f 11 04 24	 movss	 DWORD PTR [esp], xmm0
  0281c	6a 00		 push	 0
  0281e	51		 push	 ecx
  0281f	f3 0f 10 05 00
	00 00 00	 movss	 xmm0, DWORD PTR __real@40490fdb
  02827	f3 0f 11 04 24	 movss	 DWORD PTR [esp], xmm0
  0282c	51		 push	 ecx
  0282d	f3 0f 10 05 00
	00 00 00	 movss	 xmm0, DWORD PTR __real@3fc90fdb
  02835	f3 0f 11 04 24	 movss	 DWORD PTR [esp], xmm0
  0283a	51		 push	 ecx
  0283b	f3 0f 10 05 00
	00 00 00	 movss	 xmm0, DWORD PTR __real@3f666666
  02843	f3 0f 11 04 24	 movss	 DWORD PTR [esp], xmm0
  02848	b8 04 00 00 00	 mov	 eax, 4
  0284d	6b c8 00	 imul	 ecx, eax, 0
  02850	8b 54 0d 90	 mov	 edx, DWORD PTR _moon_light_colour$12[ebp+ecx]
  02854	52		 push	 edx
  02855	51		 push	 ecx
  02856	f3 0f 10 05 00
	00 00 00	 movss	 xmm0, DWORD PTR __real@3f333333
  0285e	f3 0f 11 04 24	 movss	 DWORD PTR [esp], xmm0
  02863	b8 04 00 00 00	 mov	 eax, 4
  02868	6b c8 00	 imul	 ecx, eax, 0
  0286b	8b 54 0d 9c	 mov	 edx, DWORD PTR _moon_colour$13[ebp+ecx]
  0286f	52		 push	 edx
  02870	51		 push	 ecx
  02871	0f 57 c0	 xorps	 xmm0, xmm0
  02874	f3 0f 11 04 24	 movss	 DWORD PTR [esp], xmm0
  02879	51		 push	 ecx
  0287a	f3 0f 10 05 00
	00 00 00	 movss	 xmm0, DWORD PTR __real@3f800000
  02882	f3 0f 11 04 24	 movss	 DWORD PTR [esp], xmm0
  02887	6a 02		 push	 2
  02889	a1 00 00 00 00	 mov	 eax, DWORD PTR ?main_3d_env@@3PAUENV_3D@@A ; main_3d_env
  0288e	50		 push	 eax
  0288f	e8 00 00 00 00	 call	 ?add_3d_moon_setting@@YGXPAUENV_3D@@W4WEATHERMODES@@MMUREAL_COLOUR@@M2MMMHM@Z ; add_3d_moon_setting

; 429  : 		add_3d_moon_setting ( main_3d_env, WEATHERMODE_LIGHT_RAIN, 1.0, 0.0, moon_colour[0], 0.70, moon_light_colour[0], 0.90, rad ( 90 ), rad ( 225 ), FALSE, SUN_RISE_END_TIME );

  02894	51		 push	 ecx
  02895	f3 0f 10 05 00
	00 00 00	 movss	 xmm0, DWORD PTR __real@46fd2000
  0289d	f3 0f 11 04 24	 movss	 DWORD PTR [esp], xmm0
  028a2	6a 00		 push	 0
  028a4	51		 push	 ecx
  028a5	f3 0f 10 05 00
	00 00 00	 movss	 xmm0, DWORD PTR __real@407b53d1
  028ad	f3 0f 11 04 24	 movss	 DWORD PTR [esp], xmm0
  028b2	51		 push	 ecx
  028b3	f3 0f 10 05 00
	00 00 00	 movss	 xmm0, DWORD PTR __real@3fc90fdb
  028bb	f3 0f 11 04 24	 movss	 DWORD PTR [esp], xmm0
  028c0	51		 push	 ecx
  028c1	f3 0f 10 05 00
	00 00 00	 movss	 xmm0, DWORD PTR __real@3f666666
  028c9	f3 0f 11 04 24	 movss	 DWORD PTR [esp], xmm0
  028ce	b8 04 00 00 00	 mov	 eax, 4
  028d3	6b c8 00	 imul	 ecx, eax, 0
  028d6	8b 54 0d 90	 mov	 edx, DWORD PTR _moon_light_colour$12[ebp+ecx]
  028da	52		 push	 edx
  028db	51		 push	 ecx
  028dc	f3 0f 10 05 00
	00 00 00	 movss	 xmm0, DWORD PTR __real@3f333333
  028e4	f3 0f 11 04 24	 movss	 DWORD PTR [esp], xmm0
  028e9	b8 04 00 00 00	 mov	 eax, 4
  028ee	6b c8 00	 imul	 ecx, eax, 0
  028f1	8b 54 0d 9c	 mov	 edx, DWORD PTR _moon_colour$13[ebp+ecx]
  028f5	52		 push	 edx
  028f6	51		 push	 ecx
  028f7	0f 57 c0	 xorps	 xmm0, xmm0
  028fa	f3 0f 11 04 24	 movss	 DWORD PTR [esp], xmm0
  028ff	51		 push	 ecx
  02900	f3 0f 10 05 00
	00 00 00	 movss	 xmm0, DWORD PTR __real@3f800000
  02908	f3 0f 11 04 24	 movss	 DWORD PTR [esp], xmm0
  0290d	6a 02		 push	 2
  0290f	a1 00 00 00 00	 mov	 eax, DWORD PTR ?main_3d_env@@3PAUENV_3D@@A ; main_3d_env
  02914	50		 push	 eax
  02915	e8 00 00 00 00	 call	 ?add_3d_moon_setting@@YGXPAUENV_3D@@W4WEATHERMODES@@MMUREAL_COLOUR@@M2MMMHM@Z ; add_3d_moon_setting

; 430  : 		add_3d_moon_setting ( main_3d_env, WEATHERMODE_LIGHT_RAIN, 1.0, 0.0, moon_colour[0], 0.70, moon_light_colour[0], 0.90, rad ( 90 ), rad ( 270 ), FALSE, MIDDAY_TIME );

  0291a	51		 push	 ecx
  0291b	f3 0f 10 05 00
	00 00 00	 movss	 xmm0, DWORD PTR __real@4728c000
  02923	f3 0f 11 04 24	 movss	 DWORD PTR [esp], xmm0
  02928	6a 00		 push	 0
  0292a	51		 push	 ecx
  0292b	f3 0f 10 05 00
	00 00 00	 movss	 xmm0, DWORD PTR __real@4096cbe4
  02933	f3 0f 11 04 24	 movss	 DWORD PTR [esp], xmm0
  02938	51		 push	 ecx
  02939	f3 0f 10 05 00
	00 00 00	 movss	 xmm0, DWORD PTR __real@3fc90fdb
  02941	f3 0f 11 04 24	 movss	 DWORD PTR [esp], xmm0
  02946	51		 push	 ecx
  02947	f3 0f 10 05 00
	00 00 00	 movss	 xmm0, DWORD PTR __real@3f666666
  0294f	f3 0f 11 04 24	 movss	 DWORD PTR [esp], xmm0
  02954	b8 04 00 00 00	 mov	 eax, 4
  02959	6b c8 00	 imul	 ecx, eax, 0
  0295c	8b 54 0d 90	 mov	 edx, DWORD PTR _moon_light_colour$12[ebp+ecx]
  02960	52		 push	 edx
  02961	51		 push	 ecx
  02962	f3 0f 10 05 00
	00 00 00	 movss	 xmm0, DWORD PTR __real@3f333333
  0296a	f3 0f 11 04 24	 movss	 DWORD PTR [esp], xmm0
  0296f	b8 04 00 00 00	 mov	 eax, 4
  02974	6b c8 00	 imul	 ecx, eax, 0
  02977	8b 54 0d 9c	 mov	 edx, DWORD PTR _moon_colour$13[ebp+ecx]
  0297b	52		 push	 edx
  0297c	51		 push	 ecx
  0297d	0f 57 c0	 xorps	 xmm0, xmm0
  02980	f3 0f 11 04 24	 movss	 DWORD PTR [esp], xmm0
  02985	51		 push	 ecx
  02986	f3 0f 10 05 00
	00 00 00	 movss	 xmm0, DWORD PTR __real@3f800000
  0298e	f3 0f 11 04 24	 movss	 DWORD PTR [esp], xmm0
  02993	6a 02		 push	 2
  02995	a1 00 00 00 00	 mov	 eax, DWORD PTR ?main_3d_env@@3PAUENV_3D@@A ; main_3d_env
  0299a	50		 push	 eax
  0299b	e8 00 00 00 00	 call	 ?add_3d_moon_setting@@YGXPAUENV_3D@@W4WEATHERMODES@@MMUREAL_COLOUR@@M2MMMHM@Z ; add_3d_moon_setting

; 431  : 		add_3d_moon_setting ( main_3d_env, WEATHERMODE_LIGHT_RAIN, 1.0, 0.0, moon_colour[0], 0.70, moon_light_colour[0], 0.90, rad ( 90 ), rad ( 315 ), FALSE, SUN_SET_START_TIME );

  029a0	51		 push	 ecx
  029a1	f3 0f 10 05 00
	00 00 00	 movss	 xmm0, DWORD PTR __real@476f1000
  029a9	f3 0f 11 04 24	 movss	 DWORD PTR [esp], xmm0
  029ae	6a 00		 push	 0
  029b0	51		 push	 ecx
  029b1	f3 0f 10 05 00
	00 00 00	 movss	 xmm0, DWORD PTR __real@40afeddf
  029b9	f3 0f 11 04 24	 movss	 DWORD PTR [esp], xmm0
  029be	51		 push	 ecx
  029bf	f3 0f 10 05 00
	00 00 00	 movss	 xmm0, DWORD PTR __real@3fc90fdb
  029c7	f3 0f 11 04 24	 movss	 DWORD PTR [esp], xmm0
  029cc	51		 push	 ecx
  029cd	f3 0f 10 05 00
	00 00 00	 movss	 xmm0, DWORD PTR __real@3f666666
  029d5	f3 0f 11 04 24	 movss	 DWORD PTR [esp], xmm0
  029da	b8 04 00 00 00	 mov	 eax, 4
  029df	6b c8 00	 imul	 ecx, eax, 0
  029e2	8b 54 0d 90	 mov	 edx, DWORD PTR _moon_light_colour$12[ebp+ecx]
  029e6	52		 push	 edx
  029e7	51		 push	 ecx
  029e8	f3 0f 10 05 00
	00 00 00	 movss	 xmm0, DWORD PTR __real@3f333333
  029f0	f3 0f 11 04 24	 movss	 DWORD PTR [esp], xmm0
  029f5	b8 04 00 00 00	 mov	 eax, 4
  029fa	6b c8 00	 imul	 ecx, eax, 0
  029fd	8b 54 0d 9c	 mov	 edx, DWORD PTR _moon_colour$13[ebp+ecx]
  02a01	52		 push	 edx
  02a02	51		 push	 ecx
  02a03	0f 57 c0	 xorps	 xmm0, xmm0
  02a06	f3 0f 11 04 24	 movss	 DWORD PTR [esp], xmm0
  02a0b	51		 push	 ecx
  02a0c	f3 0f 10 05 00
	00 00 00	 movss	 xmm0, DWORD PTR __real@3f800000
  02a14	f3 0f 11 04 24	 movss	 DWORD PTR [esp], xmm0
  02a19	6a 02		 push	 2
  02a1b	a1 00 00 00 00	 mov	 eax, DWORD PTR ?main_3d_env@@3PAUENV_3D@@A ; main_3d_env
  02a20	50		 push	 eax
  02a21	e8 00 00 00 00	 call	 ?add_3d_moon_setting@@YGXPAUENV_3D@@W4WEATHERMODES@@MMUREAL_COLOUR@@M2MMMHM@Z ; add_3d_moon_setting

; 432  : 		add_3d_moon_setting ( main_3d_env, WEATHERMODE_LIGHT_RAIN, 1.0, 0.0, moon_colour[0], 0.70, moon_light_colour[0], 0.90, rad ( 90 ), rad ( 0 ), TRUE, SUN_SET_END_TIME );

  02a26	51		 push	 ecx
  02a27	f3 0f 10 05 00
	00 00 00	 movss	 xmm0, DWORD PTR __real@47891c00
  02a2f	f3 0f 11 04 24	 movss	 DWORD PTR [esp], xmm0
  02a34	6a 01		 push	 1
  02a36	51		 push	 ecx
  02a37	0f 57 c0	 xorps	 xmm0, xmm0
  02a3a	f3 0f 11 04 24	 movss	 DWORD PTR [esp], xmm0
  02a3f	51		 push	 ecx
  02a40	f3 0f 10 05 00
	00 00 00	 movss	 xmm0, DWORD PTR __real@3fc90fdb
  02a48	f3 0f 11 04 24	 movss	 DWORD PTR [esp], xmm0
  02a4d	51		 push	 ecx
  02a4e	f3 0f 10 05 00
	00 00 00	 movss	 xmm0, DWORD PTR __real@3f666666
  02a56	f3 0f 11 04 24	 movss	 DWORD PTR [esp], xmm0
  02a5b	b8 04 00 00 00	 mov	 eax, 4
  02a60	6b c8 00	 imul	 ecx, eax, 0
  02a63	8b 54 0d 90	 mov	 edx, DWORD PTR _moon_light_colour$12[ebp+ecx]
  02a67	52		 push	 edx
  02a68	51		 push	 ecx
  02a69	f3 0f 10 05 00
	00 00 00	 movss	 xmm0, DWORD PTR __real@3f333333
  02a71	f3 0f 11 04 24	 movss	 DWORD PTR [esp], xmm0
  02a76	b8 04 00 00 00	 mov	 eax, 4
  02a7b	6b c8 00	 imul	 ecx, eax, 0
  02a7e	8b 54 0d 9c	 mov	 edx, DWORD PTR _moon_colour$13[ebp+ecx]
  02a82	52		 push	 edx
  02a83	51		 push	 ecx
  02a84	0f 57 c0	 xorps	 xmm0, xmm0
  02a87	f3 0f 11 04 24	 movss	 DWORD PTR [esp], xmm0
  02a8c	51		 push	 ecx
  02a8d	f3 0f 10 05 00
	00 00 00	 movss	 xmm0, DWORD PTR __real@3f800000
  02a95	f3 0f 11 04 24	 movss	 DWORD PTR [esp], xmm0
  02a9a	6a 02		 push	 2
  02a9c	a1 00 00 00 00	 mov	 eax, DWORD PTR ?main_3d_env@@3PAUENV_3D@@A ; main_3d_env
  02aa1	50		 push	 eax
  02aa2	e8 00 00 00 00	 call	 ?add_3d_moon_setting@@YGXPAUENV_3D@@W4WEATHERMODES@@MMUREAL_COLOUR@@M2MMMHM@Z ; add_3d_moon_setting

; 433  : 		add_3d_moon_setting ( main_3d_env, WEATHERMODE_LIGHT_RAIN, 1.0, 0.0, moon_colour[1], 0.70, moon_light_colour[1], 0.90*light_level, rad ( 90 ), rad ( 45 ), TRUE, TWILIGHT_TIME );

  02aa7	51		 push	 ecx
  02aa8	f3 0f 10 05 00
	00 00 00	 movss	 xmm0, DWORD PTR __real@479ab000
  02ab0	f3 0f 11 04 24	 movss	 DWORD PTR [esp], xmm0
  02ab5	6a 01		 push	 1
  02ab7	51		 push	 ecx
  02ab8	f3 0f 10 05 00
	00 00 00	 movss	 xmm0, DWORD PTR __real@3f490fdb
  02ac0	f3 0f 11 04 24	 movss	 DWORD PTR [esp], xmm0
  02ac5	51		 push	 ecx
  02ac6	f3 0f 10 05 00
	00 00 00	 movss	 xmm0, DWORD PTR __real@3fc90fdb
  02ace	f3 0f 11 04 24	 movss	 DWORD PTR [esp], xmm0
  02ad3	f3 0f 5a 45 fc	 cvtss2sd xmm0, DWORD PTR _light_level$[ebp]
  02ad8	f2 0f 59 05 00
	00 00 00	 mulsd	 xmm0, QWORD PTR __real@3feccccccccccccd
  02ae0	f2 0f 5a c0	 cvtsd2ss xmm0, xmm0
  02ae4	51		 push	 ecx
  02ae5	f3 0f 11 04 24	 movss	 DWORD PTR [esp], xmm0
  02aea	b8 04 00 00 00	 mov	 eax, 4
  02aef	c1 e0 00	 shl	 eax, 0
  02af2	8b 4c 05 90	 mov	 ecx, DWORD PTR _moon_light_colour$12[ebp+eax]
  02af6	51		 push	 ecx
  02af7	51		 push	 ecx
  02af8	f3 0f 10 05 00
	00 00 00	 movss	 xmm0, DWORD PTR __real@3f333333
  02b00	f3 0f 11 04 24	 movss	 DWORD PTR [esp], xmm0
  02b05	ba 04 00 00 00	 mov	 edx, 4
  02b0a	c1 e2 00	 shl	 edx, 0
  02b0d	8b 44 15 9c	 mov	 eax, DWORD PTR _moon_colour$13[ebp+edx]
  02b11	50		 push	 eax
  02b12	51		 push	 ecx
  02b13	0f 57 c0	 xorps	 xmm0, xmm0
  02b16	f3 0f 11 04 24	 movss	 DWORD PTR [esp], xmm0
  02b1b	51		 push	 ecx
  02b1c	f3 0f 10 05 00
	00 00 00	 movss	 xmm0, DWORD PTR __real@3f800000
  02b24	f3 0f 11 04 24	 movss	 DWORD PTR [esp], xmm0
  02b29	6a 02		 push	 2
  02b2b	8b 0d 00 00 00
	00		 mov	 ecx, DWORD PTR ?main_3d_env@@3PAUENV_3D@@A ; main_3d_env
  02b31	51		 push	 ecx
  02b32	e8 00 00 00 00	 call	 ?add_3d_moon_setting@@YGXPAUENV_3D@@W4WEATHERMODES@@MMUREAL_COLOUR@@M2MMMHM@Z ; add_3d_moon_setting

; 434  : 		add_3d_moon_setting ( main_3d_env, WEATHERMODE_LIGHT_RAIN, 1.0, 0.0, moon_colour[2], 0.70, moon_light_colour[2], 0.90*light_level, rad ( 90 ), rad ( 90 ), TRUE, MIDNIGHT_TIME );

  02b37	51		 push	 ecx
  02b38	0f 57 c0	 xorps	 xmm0, xmm0
  02b3b	f3 0f 11 04 24	 movss	 DWORD PTR [esp], xmm0
  02b40	6a 01		 push	 1
  02b42	51		 push	 ecx
  02b43	f3 0f 10 05 00
	00 00 00	 movss	 xmm0, DWORD PTR __real@3fc90fdb
  02b4b	f3 0f 11 04 24	 movss	 DWORD PTR [esp], xmm0
  02b50	51		 push	 ecx
  02b51	f3 0f 10 05 00
	00 00 00	 movss	 xmm0, DWORD PTR __real@3fc90fdb
  02b59	f3 0f 11 04 24	 movss	 DWORD PTR [esp], xmm0
  02b5e	f3 0f 5a 45 fc	 cvtss2sd xmm0, DWORD PTR _light_level$[ebp]
  02b63	f2 0f 59 05 00
	00 00 00	 mulsd	 xmm0, QWORD PTR __real@3feccccccccccccd
  02b6b	f2 0f 5a c0	 cvtsd2ss xmm0, xmm0
  02b6f	51		 push	 ecx
  02b70	f3 0f 11 04 24	 movss	 DWORD PTR [esp], xmm0
  02b75	b8 04 00 00 00	 mov	 eax, 4
  02b7a	d1 e0		 shl	 eax, 1
  02b7c	8b 4c 05 90	 mov	 ecx, DWORD PTR _moon_light_colour$12[ebp+eax]
  02b80	51		 push	 ecx
  02b81	51		 push	 ecx
  02b82	f3 0f 10 05 00
	00 00 00	 movss	 xmm0, DWORD PTR __real@3f333333
  02b8a	f3 0f 11 04 24	 movss	 DWORD PTR [esp], xmm0
  02b8f	ba 04 00 00 00	 mov	 edx, 4
  02b94	d1 e2		 shl	 edx, 1
  02b96	8b 44 15 9c	 mov	 eax, DWORD PTR _moon_colour$13[ebp+edx]
  02b9a	50		 push	 eax
  02b9b	51		 push	 ecx
  02b9c	0f 57 c0	 xorps	 xmm0, xmm0
  02b9f	f3 0f 11 04 24	 movss	 DWORD PTR [esp], xmm0
  02ba4	51		 push	 ecx
  02ba5	f3 0f 10 05 00
	00 00 00	 movss	 xmm0, DWORD PTR __real@3f800000
  02bad	f3 0f 11 04 24	 movss	 DWORD PTR [esp], xmm0
  02bb2	6a 02		 push	 2
  02bb4	8b 0d 00 00 00
	00		 mov	 ecx, DWORD PTR ?main_3d_env@@3PAUENV_3D@@A ; main_3d_env
  02bba	51		 push	 ecx
  02bbb	e8 00 00 00 00	 call	 ?add_3d_moon_setting@@YGXPAUENV_3D@@W4WEATHERMODES@@MMUREAL_COLOUR@@M2MMMHM@Z ; add_3d_moon_setting

; 435  : 		add_3d_moon_setting ( main_3d_env, WEATHERMODE_LIGHT_RAIN, 1.0, 0.0, moon_colour[2], 0.70, moon_light_colour[2], 0.90*light_level, rad ( 90 ), rad ( 135 ), TRUE, NIGHT_TIME );

  02bc0	51		 push	 ecx
  02bc1	f3 0f 10 05 00
	00 00 00	 movss	 xmm0, DWORD PTR __real@467d2000
  02bc9	f3 0f 11 04 24	 movss	 DWORD PTR [esp], xmm0
  02bce	6a 01		 push	 1
  02bd0	51		 push	 ecx
  02bd1	f3 0f 10 05 00
	00 00 00	 movss	 xmm0, DWORD PTR __real@4016cbe4
  02bd9	f3 0f 11 04 24	 movss	 DWORD PTR [esp], xmm0
  02bde	51		 push	 ecx
  02bdf	f3 0f 10 05 00
	00 00 00	 movss	 xmm0, DWORD PTR __real@3fc90fdb
  02be7	f3 0f 11 04 24	 movss	 DWORD PTR [esp], xmm0
  02bec	f3 0f 5a 45 fc	 cvtss2sd xmm0, DWORD PTR _light_level$[ebp]
  02bf1	f2 0f 59 05 00
	00 00 00	 mulsd	 xmm0, QWORD PTR __real@3feccccccccccccd
  02bf9	f2 0f 5a c0	 cvtsd2ss xmm0, xmm0
  02bfd	51		 push	 ecx
  02bfe	f3 0f 11 04 24	 movss	 DWORD PTR [esp], xmm0
  02c03	b8 04 00 00 00	 mov	 eax, 4
  02c08	d1 e0		 shl	 eax, 1
  02c0a	8b 4c 05 90	 mov	 ecx, DWORD PTR _moon_light_colour$12[ebp+eax]
  02c0e	51		 push	 ecx
  02c0f	51		 push	 ecx
  02c10	f3 0f 10 05 00
	00 00 00	 movss	 xmm0, DWORD PTR __real@3f333333
  02c18	f3 0f 11 04 24	 movss	 DWORD PTR [esp], xmm0
  02c1d	ba 04 00 00 00	 mov	 edx, 4
  02c22	d1 e2		 shl	 edx, 1
  02c24	8b 44 15 9c	 mov	 eax, DWORD PTR _moon_colour$13[ebp+edx]
  02c28	50		 push	 eax
  02c29	51		 push	 ecx
  02c2a	0f 57 c0	 xorps	 xmm0, xmm0
  02c2d	f3 0f 11 04 24	 movss	 DWORD PTR [esp], xmm0
  02c32	51		 push	 ecx
  02c33	f3 0f 10 05 00
	00 00 00	 movss	 xmm0, DWORD PTR __real@3f800000
  02c3b	f3 0f 11 04 24	 movss	 DWORD PTR [esp], xmm0
  02c40	6a 02		 push	 2
  02c42	8b 0d 00 00 00
	00		 mov	 ecx, DWORD PTR ?main_3d_env@@3PAUENV_3D@@A ; main_3d_env
  02c48	51		 push	 ecx
  02c49	e8 00 00 00 00	 call	 ?add_3d_moon_setting@@YGXPAUENV_3D@@W4WEATHERMODES@@MMUREAL_COLOUR@@M2MMMHM@Z ; add_3d_moon_setting

; 436  : 
; 437  : 		add_3d_moon_setting ( main_3d_env, WEATHERMODE_HEAVY_RAIN, 1.0, 0.0, moon_colour[0], 0.00, moon_light_colour[0], 0.70, rad ( 90 ), rad ( 180 ), FALSE, SUN_RISE_START_TIME );

  02c4e	51		 push	 ecx
  02c4f	f3 0f 10 05 00
	00 00 00	 movss	 xmm0, DWORD PTR __real@46a8c000
  02c57	f3 0f 11 04 24	 movss	 DWORD PTR [esp], xmm0
  02c5c	6a 00		 push	 0
  02c5e	51		 push	 ecx
  02c5f	f3 0f 10 05 00
	00 00 00	 movss	 xmm0, DWORD PTR __real@40490fdb
  02c67	f3 0f 11 04 24	 movss	 DWORD PTR [esp], xmm0
  02c6c	51		 push	 ecx
  02c6d	f3 0f 10 05 00
	00 00 00	 movss	 xmm0, DWORD PTR __real@3fc90fdb
  02c75	f3 0f 11 04 24	 movss	 DWORD PTR [esp], xmm0
  02c7a	51		 push	 ecx
  02c7b	f3 0f 10 05 00
	00 00 00	 movss	 xmm0, DWORD PTR __real@3f333333
  02c83	f3 0f 11 04 24	 movss	 DWORD PTR [esp], xmm0
  02c88	b8 04 00 00 00	 mov	 eax, 4
  02c8d	6b c8 00	 imul	 ecx, eax, 0
  02c90	8b 54 0d 90	 mov	 edx, DWORD PTR _moon_light_colour$12[ebp+ecx]
  02c94	52		 push	 edx
  02c95	51		 push	 ecx
  02c96	0f 57 c0	 xorps	 xmm0, xmm0
  02c99	f3 0f 11 04 24	 movss	 DWORD PTR [esp], xmm0
  02c9e	b8 04 00 00 00	 mov	 eax, 4
  02ca3	6b c8 00	 imul	 ecx, eax, 0
  02ca6	8b 54 0d 9c	 mov	 edx, DWORD PTR _moon_colour$13[ebp+ecx]
  02caa	52		 push	 edx
  02cab	51		 push	 ecx
  02cac	0f 57 c0	 xorps	 xmm0, xmm0
  02caf	f3 0f 11 04 24	 movss	 DWORD PTR [esp], xmm0
  02cb4	51		 push	 ecx
  02cb5	f3 0f 10 05 00
	00 00 00	 movss	 xmm0, DWORD PTR __real@3f800000
  02cbd	f3 0f 11 04 24	 movss	 DWORD PTR [esp], xmm0
  02cc2	6a 03		 push	 3
  02cc4	a1 00 00 00 00	 mov	 eax, DWORD PTR ?main_3d_env@@3PAUENV_3D@@A ; main_3d_env
  02cc9	50		 push	 eax
  02cca	e8 00 00 00 00	 call	 ?add_3d_moon_setting@@YGXPAUENV_3D@@W4WEATHERMODES@@MMUREAL_COLOUR@@M2MMMHM@Z ; add_3d_moon_setting

; 438  : 		add_3d_moon_setting ( main_3d_env, WEATHERMODE_HEAVY_RAIN, 1.0, 0.0, moon_colour[0], 0.00, moon_light_colour[0], 0.70, rad ( 90 ), rad ( 225 ), FALSE, SUN_RISE_END_TIME );

  02ccf	51		 push	 ecx
  02cd0	f3 0f 10 05 00
	00 00 00	 movss	 xmm0, DWORD PTR __real@46fd2000
  02cd8	f3 0f 11 04 24	 movss	 DWORD PTR [esp], xmm0
  02cdd	6a 00		 push	 0
  02cdf	51		 push	 ecx
  02ce0	f3 0f 10 05 00
	00 00 00	 movss	 xmm0, DWORD PTR __real@407b53d1
  02ce8	f3 0f 11 04 24	 movss	 DWORD PTR [esp], xmm0
  02ced	51		 push	 ecx
  02cee	f3 0f 10 05 00
	00 00 00	 movss	 xmm0, DWORD PTR __real@3fc90fdb
  02cf6	f3 0f 11 04 24	 movss	 DWORD PTR [esp], xmm0
  02cfb	51		 push	 ecx
  02cfc	f3 0f 10 05 00
	00 00 00	 movss	 xmm0, DWORD PTR __real@3f333333
  02d04	f3 0f 11 04 24	 movss	 DWORD PTR [esp], xmm0
  02d09	b8 04 00 00 00	 mov	 eax, 4
  02d0e	6b c8 00	 imul	 ecx, eax, 0
  02d11	8b 54 0d 90	 mov	 edx, DWORD PTR _moon_light_colour$12[ebp+ecx]
  02d15	52		 push	 edx
  02d16	51		 push	 ecx
  02d17	0f 57 c0	 xorps	 xmm0, xmm0
  02d1a	f3 0f 11 04 24	 movss	 DWORD PTR [esp], xmm0
  02d1f	b8 04 00 00 00	 mov	 eax, 4
  02d24	6b c8 00	 imul	 ecx, eax, 0
  02d27	8b 54 0d 9c	 mov	 edx, DWORD PTR _moon_colour$13[ebp+ecx]
  02d2b	52		 push	 edx
  02d2c	51		 push	 ecx
  02d2d	0f 57 c0	 xorps	 xmm0, xmm0
  02d30	f3 0f 11 04 24	 movss	 DWORD PTR [esp], xmm0
  02d35	51		 push	 ecx
  02d36	f3 0f 10 05 00
	00 00 00	 movss	 xmm0, DWORD PTR __real@3f800000
  02d3e	f3 0f 11 04 24	 movss	 DWORD PTR [esp], xmm0
  02d43	6a 03		 push	 3
  02d45	a1 00 00 00 00	 mov	 eax, DWORD PTR ?main_3d_env@@3PAUENV_3D@@A ; main_3d_env
  02d4a	50		 push	 eax
  02d4b	e8 00 00 00 00	 call	 ?add_3d_moon_setting@@YGXPAUENV_3D@@W4WEATHERMODES@@MMUREAL_COLOUR@@M2MMMHM@Z ; add_3d_moon_setting

; 439  : 		add_3d_moon_setting ( main_3d_env, WEATHERMODE_HEAVY_RAIN, 1.0, 0.0, moon_colour[0], 0.00, moon_light_colour[0], 0.70, rad ( 90 ), rad ( 270 ), FALSE, MIDDAY_TIME );

  02d50	51		 push	 ecx
  02d51	f3 0f 10 05 00
	00 00 00	 movss	 xmm0, DWORD PTR __real@4728c000
  02d59	f3 0f 11 04 24	 movss	 DWORD PTR [esp], xmm0
  02d5e	6a 00		 push	 0
  02d60	51		 push	 ecx
  02d61	f3 0f 10 05 00
	00 00 00	 movss	 xmm0, DWORD PTR __real@4096cbe4
  02d69	f3 0f 11 04 24	 movss	 DWORD PTR [esp], xmm0
  02d6e	51		 push	 ecx
  02d6f	f3 0f 10 05 00
	00 00 00	 movss	 xmm0, DWORD PTR __real@3fc90fdb
  02d77	f3 0f 11 04 24	 movss	 DWORD PTR [esp], xmm0
  02d7c	51		 push	 ecx
  02d7d	f3 0f 10 05 00
	00 00 00	 movss	 xmm0, DWORD PTR __real@3f333333
  02d85	f3 0f 11 04 24	 movss	 DWORD PTR [esp], xmm0
  02d8a	b8 04 00 00 00	 mov	 eax, 4
  02d8f	6b c8 00	 imul	 ecx, eax, 0
  02d92	8b 54 0d 90	 mov	 edx, DWORD PTR _moon_light_colour$12[ebp+ecx]
  02d96	52		 push	 edx
  02d97	51		 push	 ecx
  02d98	0f 57 c0	 xorps	 xmm0, xmm0
  02d9b	f3 0f 11 04 24	 movss	 DWORD PTR [esp], xmm0
  02da0	b8 04 00 00 00	 mov	 eax, 4
  02da5	6b c8 00	 imul	 ecx, eax, 0
  02da8	8b 54 0d 9c	 mov	 edx, DWORD PTR _moon_colour$13[ebp+ecx]
  02dac	52		 push	 edx
  02dad	51		 push	 ecx
  02dae	0f 57 c0	 xorps	 xmm0, xmm0
  02db1	f3 0f 11 04 24	 movss	 DWORD PTR [esp], xmm0
  02db6	51		 push	 ecx
  02db7	f3 0f 10 05 00
	00 00 00	 movss	 xmm0, DWORD PTR __real@3f800000
  02dbf	f3 0f 11 04 24	 movss	 DWORD PTR [esp], xmm0
  02dc4	6a 03		 push	 3
  02dc6	a1 00 00 00 00	 mov	 eax, DWORD PTR ?main_3d_env@@3PAUENV_3D@@A ; main_3d_env
  02dcb	50		 push	 eax
  02dcc	e8 00 00 00 00	 call	 ?add_3d_moon_setting@@YGXPAUENV_3D@@W4WEATHERMODES@@MMUREAL_COLOUR@@M2MMMHM@Z ; add_3d_moon_setting

; 440  : 		add_3d_moon_setting ( main_3d_env, WEATHERMODE_HEAVY_RAIN, 1.0, 0.0, moon_colour[0], 0.00, moon_light_colour[0], 0.70, rad ( 90 ), rad ( 315 ), FALSE, SUN_SET_START_TIME );

  02dd1	51		 push	 ecx
  02dd2	f3 0f 10 05 00
	00 00 00	 movss	 xmm0, DWORD PTR __real@476f1000
  02dda	f3 0f 11 04 24	 movss	 DWORD PTR [esp], xmm0
  02ddf	6a 00		 push	 0
  02de1	51		 push	 ecx
  02de2	f3 0f 10 05 00
	00 00 00	 movss	 xmm0, DWORD PTR __real@40afeddf
  02dea	f3 0f 11 04 24	 movss	 DWORD PTR [esp], xmm0
  02def	51		 push	 ecx
  02df0	f3 0f 10 05 00
	00 00 00	 movss	 xmm0, DWORD PTR __real@3fc90fdb
  02df8	f3 0f 11 04 24	 movss	 DWORD PTR [esp], xmm0
  02dfd	51		 push	 ecx
  02dfe	f3 0f 10 05 00
	00 00 00	 movss	 xmm0, DWORD PTR __real@3f333333
  02e06	f3 0f 11 04 24	 movss	 DWORD PTR [esp], xmm0
  02e0b	b8 04 00 00 00	 mov	 eax, 4
  02e10	6b c8 00	 imul	 ecx, eax, 0
  02e13	8b 54 0d 90	 mov	 edx, DWORD PTR _moon_light_colour$12[ebp+ecx]
  02e17	52		 push	 edx
  02e18	51		 push	 ecx
  02e19	0f 57 c0	 xorps	 xmm0, xmm0
  02e1c	f3 0f 11 04 24	 movss	 DWORD PTR [esp], xmm0
  02e21	b8 04 00 00 00	 mov	 eax, 4
  02e26	6b c8 00	 imul	 ecx, eax, 0
  02e29	8b 54 0d 9c	 mov	 edx, DWORD PTR _moon_colour$13[ebp+ecx]
  02e2d	52		 push	 edx
  02e2e	51		 push	 ecx
  02e2f	0f 57 c0	 xorps	 xmm0, xmm0
  02e32	f3 0f 11 04 24	 movss	 DWORD PTR [esp], xmm0
  02e37	51		 push	 ecx
  02e38	f3 0f 10 05 00
	00 00 00	 movss	 xmm0, DWORD PTR __real@3f800000
  02e40	f3 0f 11 04 24	 movss	 DWORD PTR [esp], xmm0
  02e45	6a 03		 push	 3
  02e47	a1 00 00 00 00	 mov	 eax, DWORD PTR ?main_3d_env@@3PAUENV_3D@@A ; main_3d_env
  02e4c	50		 push	 eax
  02e4d	e8 00 00 00 00	 call	 ?add_3d_moon_setting@@YGXPAUENV_3D@@W4WEATHERMODES@@MMUREAL_COLOUR@@M2MMMHM@Z ; add_3d_moon_setting

; 441  : 		add_3d_moon_setting ( main_3d_env, WEATHERMODE_HEAVY_RAIN, 1.0, 0.0, moon_colour[0], 0.00, moon_light_colour[0], 0.70, rad ( 90 ), rad ( 0 ), TRUE, SUN_SET_END_TIME );

  02e52	51		 push	 ecx
  02e53	f3 0f 10 05 00
	00 00 00	 movss	 xmm0, DWORD PTR __real@47891c00
  02e5b	f3 0f 11 04 24	 movss	 DWORD PTR [esp], xmm0
  02e60	6a 01		 push	 1
  02e62	51		 push	 ecx
  02e63	0f 57 c0	 xorps	 xmm0, xmm0
  02e66	f3 0f 11 04 24	 movss	 DWORD PTR [esp], xmm0
  02e6b	51		 push	 ecx
  02e6c	f3 0f 10 05 00
	00 00 00	 movss	 xmm0, DWORD PTR __real@3fc90fdb
  02e74	f3 0f 11 04 24	 movss	 DWORD PTR [esp], xmm0
  02e79	51		 push	 ecx
  02e7a	f3 0f 10 05 00
	00 00 00	 movss	 xmm0, DWORD PTR __real@3f333333
  02e82	f3 0f 11 04 24	 movss	 DWORD PTR [esp], xmm0
  02e87	b8 04 00 00 00	 mov	 eax, 4
  02e8c	6b c8 00	 imul	 ecx, eax, 0
  02e8f	8b 54 0d 90	 mov	 edx, DWORD PTR _moon_light_colour$12[ebp+ecx]
  02e93	52		 push	 edx
  02e94	51		 push	 ecx
  02e95	0f 57 c0	 xorps	 xmm0, xmm0
  02e98	f3 0f 11 04 24	 movss	 DWORD PTR [esp], xmm0
  02e9d	b8 04 00 00 00	 mov	 eax, 4
  02ea2	6b c8 00	 imul	 ecx, eax, 0
  02ea5	8b 54 0d 9c	 mov	 edx, DWORD PTR _moon_colour$13[ebp+ecx]
  02ea9	52		 push	 edx
  02eaa	51		 push	 ecx
  02eab	0f 57 c0	 xorps	 xmm0, xmm0
  02eae	f3 0f 11 04 24	 movss	 DWORD PTR [esp], xmm0
  02eb3	51		 push	 ecx
  02eb4	f3 0f 10 05 00
	00 00 00	 movss	 xmm0, DWORD PTR __real@3f800000
  02ebc	f3 0f 11 04 24	 movss	 DWORD PTR [esp], xmm0
  02ec1	6a 03		 push	 3
  02ec3	a1 00 00 00 00	 mov	 eax, DWORD PTR ?main_3d_env@@3PAUENV_3D@@A ; main_3d_env
  02ec8	50		 push	 eax
  02ec9	e8 00 00 00 00	 call	 ?add_3d_moon_setting@@YGXPAUENV_3D@@W4WEATHERMODES@@MMUREAL_COLOUR@@M2MMMHM@Z ; add_3d_moon_setting

; 442  : 		add_3d_moon_setting ( main_3d_env, WEATHERMODE_HEAVY_RAIN, 1.0, 0.0, moon_colour[1], 0.00, moon_light_colour[1], 0.70, rad ( 90 ), rad ( 45 ), TRUE, TWILIGHT_TIME );

  02ece	51		 push	 ecx
  02ecf	f3 0f 10 05 00
	00 00 00	 movss	 xmm0, DWORD PTR __real@479ab000
  02ed7	f3 0f 11 04 24	 movss	 DWORD PTR [esp], xmm0
  02edc	6a 01		 push	 1
  02ede	51		 push	 ecx
  02edf	f3 0f 10 05 00
	00 00 00	 movss	 xmm0, DWORD PTR __real@3f490fdb
  02ee7	f3 0f 11 04 24	 movss	 DWORD PTR [esp], xmm0
  02eec	51		 push	 ecx
  02eed	f3 0f 10 05 00
	00 00 00	 movss	 xmm0, DWORD PTR __real@3fc90fdb
  02ef5	f3 0f 11 04 24	 movss	 DWORD PTR [esp], xmm0
  02efa	51		 push	 ecx
  02efb	f3 0f 10 05 00
	00 00 00	 movss	 xmm0, DWORD PTR __real@3f333333
  02f03	f3 0f 11 04 24	 movss	 DWORD PTR [esp], xmm0
  02f08	b8 04 00 00 00	 mov	 eax, 4
  02f0d	c1 e0 00	 shl	 eax, 0
  02f10	8b 4c 05 90	 mov	 ecx, DWORD PTR _moon_light_colour$12[ebp+eax]
  02f14	51		 push	 ecx
  02f15	51		 push	 ecx
  02f16	0f 57 c0	 xorps	 xmm0, xmm0
  02f19	f3 0f 11 04 24	 movss	 DWORD PTR [esp], xmm0
  02f1e	ba 04 00 00 00	 mov	 edx, 4
  02f23	c1 e2 00	 shl	 edx, 0
  02f26	8b 44 15 9c	 mov	 eax, DWORD PTR _moon_colour$13[ebp+edx]
  02f2a	50		 push	 eax
  02f2b	51		 push	 ecx
  02f2c	0f 57 c0	 xorps	 xmm0, xmm0
  02f2f	f3 0f 11 04 24	 movss	 DWORD PTR [esp], xmm0
  02f34	51		 push	 ecx
  02f35	f3 0f 10 05 00
	00 00 00	 movss	 xmm0, DWORD PTR __real@3f800000
  02f3d	f3 0f 11 04 24	 movss	 DWORD PTR [esp], xmm0
  02f42	6a 03		 push	 3
  02f44	8b 0d 00 00 00
	00		 mov	 ecx, DWORD PTR ?main_3d_env@@3PAUENV_3D@@A ; main_3d_env
  02f4a	51		 push	 ecx
  02f4b	e8 00 00 00 00	 call	 ?add_3d_moon_setting@@YGXPAUENV_3D@@W4WEATHERMODES@@MMUREAL_COLOUR@@M2MMMHM@Z ; add_3d_moon_setting

; 443  : 		add_3d_moon_setting ( main_3d_env, WEATHERMODE_HEAVY_RAIN, 1.0, 0.0, moon_colour[2], 0.00, moon_light_colour[2], 0.70*light_level, rad ( 90 ), rad ( 90 ), TRUE, MIDNIGHT_TIME );

  02f50	51		 push	 ecx
  02f51	0f 57 c0	 xorps	 xmm0, xmm0
  02f54	f3 0f 11 04 24	 movss	 DWORD PTR [esp], xmm0
  02f59	6a 01		 push	 1
  02f5b	51		 push	 ecx
  02f5c	f3 0f 10 05 00
	00 00 00	 movss	 xmm0, DWORD PTR __real@3fc90fdb
  02f64	f3 0f 11 04 24	 movss	 DWORD PTR [esp], xmm0
  02f69	51		 push	 ecx
  02f6a	f3 0f 10 05 00
	00 00 00	 movss	 xmm0, DWORD PTR __real@3fc90fdb
  02f72	f3 0f 11 04 24	 movss	 DWORD PTR [esp], xmm0
  02f77	f3 0f 5a 45 fc	 cvtss2sd xmm0, DWORD PTR _light_level$[ebp]
  02f7c	f2 0f 59 05 00
	00 00 00	 mulsd	 xmm0, QWORD PTR __real@3fe6666666666666
  02f84	f2 0f 5a c0	 cvtsd2ss xmm0, xmm0
  02f88	51		 push	 ecx
  02f89	f3 0f 11 04 24	 movss	 DWORD PTR [esp], xmm0
  02f8e	b8 04 00 00 00	 mov	 eax, 4
  02f93	d1 e0		 shl	 eax, 1
  02f95	8b 4c 05 90	 mov	 ecx, DWORD PTR _moon_light_colour$12[ebp+eax]
  02f99	51		 push	 ecx
  02f9a	51		 push	 ecx
  02f9b	0f 57 c0	 xorps	 xmm0, xmm0
  02f9e	f3 0f 11 04 24	 movss	 DWORD PTR [esp], xmm0
  02fa3	ba 04 00 00 00	 mov	 edx, 4
  02fa8	d1 e2		 shl	 edx, 1
  02faa	8b 44 15 9c	 mov	 eax, DWORD PTR _moon_colour$13[ebp+edx]
  02fae	50		 push	 eax
  02faf	51		 push	 ecx
  02fb0	0f 57 c0	 xorps	 xmm0, xmm0
  02fb3	f3 0f 11 04 24	 movss	 DWORD PTR [esp], xmm0
  02fb8	51		 push	 ecx
  02fb9	f3 0f 10 05 00
	00 00 00	 movss	 xmm0, DWORD PTR __real@3f800000
  02fc1	f3 0f 11 04 24	 movss	 DWORD PTR [esp], xmm0
  02fc6	6a 03		 push	 3
  02fc8	8b 0d 00 00 00
	00		 mov	 ecx, DWORD PTR ?main_3d_env@@3PAUENV_3D@@A ; main_3d_env
  02fce	51		 push	 ecx
  02fcf	e8 00 00 00 00	 call	 ?add_3d_moon_setting@@YGXPAUENV_3D@@W4WEATHERMODES@@MMUREAL_COLOUR@@M2MMMHM@Z ; add_3d_moon_setting

; 444  : 		add_3d_moon_setting ( main_3d_env, WEATHERMODE_HEAVY_RAIN, 1.0, 0.0, moon_colour[2], 0.00, moon_light_colour[2], 0.70*light_level, rad ( 90 ), rad ( 135 ), TRUE, NIGHT_TIME );

  02fd4	51		 push	 ecx
  02fd5	f3 0f 10 05 00
	00 00 00	 movss	 xmm0, DWORD PTR __real@467d2000
  02fdd	f3 0f 11 04 24	 movss	 DWORD PTR [esp], xmm0
  02fe2	6a 01		 push	 1
  02fe4	51		 push	 ecx
  02fe5	f3 0f 10 05 00
	00 00 00	 movss	 xmm0, DWORD PTR __real@4016cbe4
  02fed	f3 0f 11 04 24	 movss	 DWORD PTR [esp], xmm0
  02ff2	51		 push	 ecx
  02ff3	f3 0f 10 05 00
	00 00 00	 movss	 xmm0, DWORD PTR __real@3fc90fdb
  02ffb	f3 0f 11 04 24	 movss	 DWORD PTR [esp], xmm0
  03000	f3 0f 5a 45 fc	 cvtss2sd xmm0, DWORD PTR _light_level$[ebp]
  03005	f2 0f 59 05 00
	00 00 00	 mulsd	 xmm0, QWORD PTR __real@3fe6666666666666
  0300d	f2 0f 5a c0	 cvtsd2ss xmm0, xmm0
  03011	51		 push	 ecx
  03012	f3 0f 11 04 24	 movss	 DWORD PTR [esp], xmm0
  03017	b8 04 00 00 00	 mov	 eax, 4
  0301c	d1 e0		 shl	 eax, 1
  0301e	8b 4c 05 90	 mov	 ecx, DWORD PTR _moon_light_colour$12[ebp+eax]
  03022	51		 push	 ecx
  03023	51		 push	 ecx
  03024	0f 57 c0	 xorps	 xmm0, xmm0
  03027	f3 0f 11 04 24	 movss	 DWORD PTR [esp], xmm0
  0302c	ba 04 00 00 00	 mov	 edx, 4
  03031	d1 e2		 shl	 edx, 1
  03033	8b 44 15 9c	 mov	 eax, DWORD PTR _moon_colour$13[ebp+edx]
  03037	50		 push	 eax
  03038	51		 push	 ecx
  03039	0f 57 c0	 xorps	 xmm0, xmm0
  0303c	f3 0f 11 04 24	 movss	 DWORD PTR [esp], xmm0
  03041	51		 push	 ecx
  03042	f3 0f 10 05 00
	00 00 00	 movss	 xmm0, DWORD PTR __real@3f800000
  0304a	f3 0f 11 04 24	 movss	 DWORD PTR [esp], xmm0
  0304f	6a 03		 push	 3
  03051	8b 0d 00 00 00
	00		 mov	 ecx, DWORD PTR ?main_3d_env@@3PAUENV_3D@@A ; main_3d_env
  03057	51		 push	 ecx
  03058	e8 00 00 00 00	 call	 ?add_3d_moon_setting@@YGXPAUENV_3D@@W4WEATHERMODES@@MMUREAL_COLOUR@@M2MMMHM@Z ; add_3d_moon_setting

; 445  : 
; 446  : 		add_3d_moon_setting ( main_3d_env, WEATHERMODE_SNOW, 1.0, 0.0, moon_colour[0], 0.50, moon_light_colour[0], 0.80, rad ( 90 ), rad ( 180 ), FALSE, SUN_RISE_START_TIME );

  0305d	51		 push	 ecx
  0305e	f3 0f 10 05 00
	00 00 00	 movss	 xmm0, DWORD PTR __real@46a8c000
  03066	f3 0f 11 04 24	 movss	 DWORD PTR [esp], xmm0
  0306b	6a 00		 push	 0
  0306d	51		 push	 ecx
  0306e	f3 0f 10 05 00
	00 00 00	 movss	 xmm0, DWORD PTR __real@40490fdb
  03076	f3 0f 11 04 24	 movss	 DWORD PTR [esp], xmm0
  0307b	51		 push	 ecx
  0307c	f3 0f 10 05 00
	00 00 00	 movss	 xmm0, DWORD PTR __real@3fc90fdb
  03084	f3 0f 11 04 24	 movss	 DWORD PTR [esp], xmm0
  03089	51		 push	 ecx
  0308a	f3 0f 10 05 00
	00 00 00	 movss	 xmm0, DWORD PTR __real@3f4ccccd
  03092	f3 0f 11 04 24	 movss	 DWORD PTR [esp], xmm0
  03097	b8 04 00 00 00	 mov	 eax, 4
  0309c	6b c8 00	 imul	 ecx, eax, 0
  0309f	8b 54 0d 90	 mov	 edx, DWORD PTR _moon_light_colour$12[ebp+ecx]
  030a3	52		 push	 edx
  030a4	51		 push	 ecx
  030a5	f3 0f 10 05 00
	00 00 00	 movss	 xmm0, DWORD PTR __real@3f000000
  030ad	f3 0f 11 04 24	 movss	 DWORD PTR [esp], xmm0
  030b2	b8 04 00 00 00	 mov	 eax, 4
  030b7	6b c8 00	 imul	 ecx, eax, 0
  030ba	8b 54 0d 9c	 mov	 edx, DWORD PTR _moon_colour$13[ebp+ecx]
  030be	52		 push	 edx
  030bf	51		 push	 ecx
  030c0	0f 57 c0	 xorps	 xmm0, xmm0
  030c3	f3 0f 11 04 24	 movss	 DWORD PTR [esp], xmm0
  030c8	51		 push	 ecx
  030c9	f3 0f 10 05 00
	00 00 00	 movss	 xmm0, DWORD PTR __real@3f800000
  030d1	f3 0f 11 04 24	 movss	 DWORD PTR [esp], xmm0
  030d6	6a 04		 push	 4
  030d8	a1 00 00 00 00	 mov	 eax, DWORD PTR ?main_3d_env@@3PAUENV_3D@@A ; main_3d_env
  030dd	50		 push	 eax
  030de	e8 00 00 00 00	 call	 ?add_3d_moon_setting@@YGXPAUENV_3D@@W4WEATHERMODES@@MMUREAL_COLOUR@@M2MMMHM@Z ; add_3d_moon_setting

; 447  : 		add_3d_moon_setting ( main_3d_env, WEATHERMODE_SNOW, 1.0, 0.0, moon_colour[0], 0.50, moon_light_colour[0], 0.80, rad ( 90 ), rad ( 225 ), FALSE, SUN_RISE_END_TIME );

  030e3	51		 push	 ecx
  030e4	f3 0f 10 05 00
	00 00 00	 movss	 xmm0, DWORD PTR __real@46fd2000
  030ec	f3 0f 11 04 24	 movss	 DWORD PTR [esp], xmm0
  030f1	6a 00		 push	 0
  030f3	51		 push	 ecx
  030f4	f3 0f 10 05 00
	00 00 00	 movss	 xmm0, DWORD PTR __real@407b53d1
  030fc	f3 0f 11 04 24	 movss	 DWORD PTR [esp], xmm0
  03101	51		 push	 ecx
  03102	f3 0f 10 05 00
	00 00 00	 movss	 xmm0, DWORD PTR __real@3fc90fdb
  0310a	f3 0f 11 04 24	 movss	 DWORD PTR [esp], xmm0
  0310f	51		 push	 ecx
  03110	f3 0f 10 05 00
	00 00 00	 movss	 xmm0, DWORD PTR __real@3f4ccccd
  03118	f3 0f 11 04 24	 movss	 DWORD PTR [esp], xmm0
  0311d	b8 04 00 00 00	 mov	 eax, 4
  03122	6b c8 00	 imul	 ecx, eax, 0
  03125	8b 54 0d 90	 mov	 edx, DWORD PTR _moon_light_colour$12[ebp+ecx]
  03129	52		 push	 edx
  0312a	51		 push	 ecx
  0312b	f3 0f 10 05 00
	00 00 00	 movss	 xmm0, DWORD PTR __real@3f000000
  03133	f3 0f 11 04 24	 movss	 DWORD PTR [esp], xmm0
  03138	b8 04 00 00 00	 mov	 eax, 4
  0313d	6b c8 00	 imul	 ecx, eax, 0
  03140	8b 54 0d 9c	 mov	 edx, DWORD PTR _moon_colour$13[ebp+ecx]
  03144	52		 push	 edx
  03145	51		 push	 ecx
  03146	0f 57 c0	 xorps	 xmm0, xmm0
  03149	f3 0f 11 04 24	 movss	 DWORD PTR [esp], xmm0
  0314e	51		 push	 ecx
  0314f	f3 0f 10 05 00
	00 00 00	 movss	 xmm0, DWORD PTR __real@3f800000
  03157	f3 0f 11 04 24	 movss	 DWORD PTR [esp], xmm0
  0315c	6a 04		 push	 4
  0315e	a1 00 00 00 00	 mov	 eax, DWORD PTR ?main_3d_env@@3PAUENV_3D@@A ; main_3d_env
  03163	50		 push	 eax
  03164	e8 00 00 00 00	 call	 ?add_3d_moon_setting@@YGXPAUENV_3D@@W4WEATHERMODES@@MMUREAL_COLOUR@@M2MMMHM@Z ; add_3d_moon_setting

; 448  : 		add_3d_moon_setting ( main_3d_env, WEATHERMODE_SNOW, 1.0, 0.0, moon_colour[0], 0.50, moon_light_colour[0], 0.80, rad ( 90 ), rad ( 270 ), FALSE, MIDDAY_TIME );

  03169	51		 push	 ecx
  0316a	f3 0f 10 05 00
	00 00 00	 movss	 xmm0, DWORD PTR __real@4728c000
  03172	f3 0f 11 04 24	 movss	 DWORD PTR [esp], xmm0
  03177	6a 00		 push	 0
  03179	51		 push	 ecx
  0317a	f3 0f 10 05 00
	00 00 00	 movss	 xmm0, DWORD PTR __real@4096cbe4
  03182	f3 0f 11 04 24	 movss	 DWORD PTR [esp], xmm0
  03187	51		 push	 ecx
  03188	f3 0f 10 05 00
	00 00 00	 movss	 xmm0, DWORD PTR __real@3fc90fdb
  03190	f3 0f 11 04 24	 movss	 DWORD PTR [esp], xmm0
  03195	51		 push	 ecx
  03196	f3 0f 10 05 00
	00 00 00	 movss	 xmm0, DWORD PTR __real@3f4ccccd
  0319e	f3 0f 11 04 24	 movss	 DWORD PTR [esp], xmm0
  031a3	b8 04 00 00 00	 mov	 eax, 4
  031a8	6b c8 00	 imul	 ecx, eax, 0
  031ab	8b 54 0d 90	 mov	 edx, DWORD PTR _moon_light_colour$12[ebp+ecx]
  031af	52		 push	 edx
  031b0	51		 push	 ecx
  031b1	f3 0f 10 05 00
	00 00 00	 movss	 xmm0, DWORD PTR __real@3f000000
  031b9	f3 0f 11 04 24	 movss	 DWORD PTR [esp], xmm0
  031be	b8 04 00 00 00	 mov	 eax, 4
  031c3	6b c8 00	 imul	 ecx, eax, 0
  031c6	8b 54 0d 9c	 mov	 edx, DWORD PTR _moon_colour$13[ebp+ecx]
  031ca	52		 push	 edx
  031cb	51		 push	 ecx
  031cc	0f 57 c0	 xorps	 xmm0, xmm0
  031cf	f3 0f 11 04 24	 movss	 DWORD PTR [esp], xmm0
  031d4	51		 push	 ecx
  031d5	f3 0f 10 05 00
	00 00 00	 movss	 xmm0, DWORD PTR __real@3f800000
  031dd	f3 0f 11 04 24	 movss	 DWORD PTR [esp], xmm0
  031e2	6a 04		 push	 4
  031e4	a1 00 00 00 00	 mov	 eax, DWORD PTR ?main_3d_env@@3PAUENV_3D@@A ; main_3d_env
  031e9	50		 push	 eax
  031ea	e8 00 00 00 00	 call	 ?add_3d_moon_setting@@YGXPAUENV_3D@@W4WEATHERMODES@@MMUREAL_COLOUR@@M2MMMHM@Z ; add_3d_moon_setting

; 449  : 		add_3d_moon_setting ( main_3d_env, WEATHERMODE_SNOW, 1.0, 0.0, moon_colour[0], 0.50, moon_light_colour[0], 0.80, rad ( 90 ), rad ( 315 ), FALSE, SUN_SET_START_TIME );

  031ef	51		 push	 ecx
  031f0	f3 0f 10 05 00
	00 00 00	 movss	 xmm0, DWORD PTR __real@476f1000
  031f8	f3 0f 11 04 24	 movss	 DWORD PTR [esp], xmm0
  031fd	6a 00		 push	 0
  031ff	51		 push	 ecx
  03200	f3 0f 10 05 00
	00 00 00	 movss	 xmm0, DWORD PTR __real@40afeddf
  03208	f3 0f 11 04 24	 movss	 DWORD PTR [esp], xmm0
  0320d	51		 push	 ecx
  0320e	f3 0f 10 05 00
	00 00 00	 movss	 xmm0, DWORD PTR __real@3fc90fdb
  03216	f3 0f 11 04 24	 movss	 DWORD PTR [esp], xmm0
  0321b	51		 push	 ecx
  0321c	f3 0f 10 05 00
	00 00 00	 movss	 xmm0, DWORD PTR __real@3f4ccccd
  03224	f3 0f 11 04 24	 movss	 DWORD PTR [esp], xmm0
  03229	b8 04 00 00 00	 mov	 eax, 4
  0322e	6b c8 00	 imul	 ecx, eax, 0
  03231	8b 54 0d 90	 mov	 edx, DWORD PTR _moon_light_colour$12[ebp+ecx]
  03235	52		 push	 edx
  03236	51		 push	 ecx
  03237	f3 0f 10 05 00
	00 00 00	 movss	 xmm0, DWORD PTR __real@3f000000
  0323f	f3 0f 11 04 24	 movss	 DWORD PTR [esp], xmm0
  03244	b8 04 00 00 00	 mov	 eax, 4
  03249	6b c8 00	 imul	 ecx, eax, 0
  0324c	8b 54 0d 9c	 mov	 edx, DWORD PTR _moon_colour$13[ebp+ecx]
  03250	52		 push	 edx
  03251	51		 push	 ecx
  03252	0f 57 c0	 xorps	 xmm0, xmm0
  03255	f3 0f 11 04 24	 movss	 DWORD PTR [esp], xmm0
  0325a	51		 push	 ecx
  0325b	f3 0f 10 05 00
	00 00 00	 movss	 xmm0, DWORD PTR __real@3f800000
  03263	f3 0f 11 04 24	 movss	 DWORD PTR [esp], xmm0
  03268	6a 04		 push	 4
  0326a	a1 00 00 00 00	 mov	 eax, DWORD PTR ?main_3d_env@@3PAUENV_3D@@A ; main_3d_env
  0326f	50		 push	 eax
  03270	e8 00 00 00 00	 call	 ?add_3d_moon_setting@@YGXPAUENV_3D@@W4WEATHERMODES@@MMUREAL_COLOUR@@M2MMMHM@Z ; add_3d_moon_setting

; 450  : 		add_3d_moon_setting ( main_3d_env, WEATHERMODE_SNOW, 1.0, 0.0, moon_colour[0], 0.50, moon_light_colour[0], 0.80, rad ( 90 ), rad ( 0 ), TRUE, SUN_SET_END_TIME );

  03275	51		 push	 ecx
  03276	f3 0f 10 05 00
	00 00 00	 movss	 xmm0, DWORD PTR __real@47891c00
  0327e	f3 0f 11 04 24	 movss	 DWORD PTR [esp], xmm0
  03283	6a 01		 push	 1
  03285	51		 push	 ecx
  03286	0f 57 c0	 xorps	 xmm0, xmm0
  03289	f3 0f 11 04 24	 movss	 DWORD PTR [esp], xmm0
  0328e	51		 push	 ecx
  0328f	f3 0f 10 05 00
	00 00 00	 movss	 xmm0, DWORD PTR __real@3fc90fdb
  03297	f3 0f 11 04 24	 movss	 DWORD PTR [esp], xmm0
  0329c	51		 push	 ecx
  0329d	f3 0f 10 05 00
	00 00 00	 movss	 xmm0, DWORD PTR __real@3f4ccccd
  032a5	f3 0f 11 04 24	 movss	 DWORD PTR [esp], xmm0
  032aa	b8 04 00 00 00	 mov	 eax, 4
  032af	6b c8 00	 imul	 ecx, eax, 0
  032b2	8b 54 0d 90	 mov	 edx, DWORD PTR _moon_light_colour$12[ebp+ecx]
  032b6	52		 push	 edx
  032b7	51		 push	 ecx
  032b8	f3 0f 10 05 00
	00 00 00	 movss	 xmm0, DWORD PTR __real@3f000000
  032c0	f3 0f 11 04 24	 movss	 DWORD PTR [esp], xmm0
  032c5	b8 04 00 00 00	 mov	 eax, 4
  032ca	6b c8 00	 imul	 ecx, eax, 0
  032cd	8b 54 0d 9c	 mov	 edx, DWORD PTR _moon_colour$13[ebp+ecx]
  032d1	52		 push	 edx
  032d2	51		 push	 ecx
  032d3	0f 57 c0	 xorps	 xmm0, xmm0
  032d6	f3 0f 11 04 24	 movss	 DWORD PTR [esp], xmm0
  032db	51		 push	 ecx
  032dc	f3 0f 10 05 00
	00 00 00	 movss	 xmm0, DWORD PTR __real@3f800000
  032e4	f3 0f 11 04 24	 movss	 DWORD PTR [esp], xmm0
  032e9	6a 04		 push	 4
  032eb	a1 00 00 00 00	 mov	 eax, DWORD PTR ?main_3d_env@@3PAUENV_3D@@A ; main_3d_env
  032f0	50		 push	 eax
  032f1	e8 00 00 00 00	 call	 ?add_3d_moon_setting@@YGXPAUENV_3D@@W4WEATHERMODES@@MMUREAL_COLOUR@@M2MMMHM@Z ; add_3d_moon_setting

; 451  : 		add_3d_moon_setting ( main_3d_env, WEATHERMODE_SNOW, 1.0, 0.0, moon_colour[1], 0.50, moon_light_colour[1], 0.80, rad ( 90 ), rad ( 45 ), TRUE, TWILIGHT_TIME );

  032f6	51		 push	 ecx
  032f7	f3 0f 10 05 00
	00 00 00	 movss	 xmm0, DWORD PTR __real@479ab000
  032ff	f3 0f 11 04 24	 movss	 DWORD PTR [esp], xmm0
  03304	6a 01		 push	 1
  03306	51		 push	 ecx
  03307	f3 0f 10 05 00
	00 00 00	 movss	 xmm0, DWORD PTR __real@3f490fdb
  0330f	f3 0f 11 04 24	 movss	 DWORD PTR [esp], xmm0
  03314	51		 push	 ecx
  03315	f3 0f 10 05 00
	00 00 00	 movss	 xmm0, DWORD PTR __real@3fc90fdb
  0331d	f3 0f 11 04 24	 movss	 DWORD PTR [esp], xmm0
  03322	51		 push	 ecx
  03323	f3 0f 10 05 00
	00 00 00	 movss	 xmm0, DWORD PTR __real@3f4ccccd
  0332b	f3 0f 11 04 24	 movss	 DWORD PTR [esp], xmm0
  03330	b8 04 00 00 00	 mov	 eax, 4
  03335	c1 e0 00	 shl	 eax, 0
  03338	8b 4c 05 90	 mov	 ecx, DWORD PTR _moon_light_colour$12[ebp+eax]
  0333c	51		 push	 ecx
  0333d	51		 push	 ecx
  0333e	f3 0f 10 05 00
	00 00 00	 movss	 xmm0, DWORD PTR __real@3f000000
  03346	f3 0f 11 04 24	 movss	 DWORD PTR [esp], xmm0
  0334b	ba 04 00 00 00	 mov	 edx, 4
  03350	c1 e2 00	 shl	 edx, 0
  03353	8b 44 15 9c	 mov	 eax, DWORD PTR _moon_colour$13[ebp+edx]
  03357	50		 push	 eax
  03358	51		 push	 ecx
  03359	0f 57 c0	 xorps	 xmm0, xmm0
  0335c	f3 0f 11 04 24	 movss	 DWORD PTR [esp], xmm0
  03361	51		 push	 ecx
  03362	f3 0f 10 05 00
	00 00 00	 movss	 xmm0, DWORD PTR __real@3f800000
  0336a	f3 0f 11 04 24	 movss	 DWORD PTR [esp], xmm0
  0336f	6a 04		 push	 4
  03371	8b 0d 00 00 00
	00		 mov	 ecx, DWORD PTR ?main_3d_env@@3PAUENV_3D@@A ; main_3d_env
  03377	51		 push	 ecx
  03378	e8 00 00 00 00	 call	 ?add_3d_moon_setting@@YGXPAUENV_3D@@W4WEATHERMODES@@MMUREAL_COLOUR@@M2MMMHM@Z ; add_3d_moon_setting

; 452  : 		add_3d_moon_setting ( main_3d_env, WEATHERMODE_SNOW, 1.0, 0.0, moon_colour[2], 0.50, moon_light_colour[2], 0.80*light_level, rad ( 90 ), rad ( 90 ), TRUE, MIDNIGHT_TIME );

  0337d	51		 push	 ecx
  0337e	0f 57 c0	 xorps	 xmm0, xmm0
  03381	f3 0f 11 04 24	 movss	 DWORD PTR [esp], xmm0
  03386	6a 01		 push	 1
  03388	51		 push	 ecx
  03389	f3 0f 10 05 00
	00 00 00	 movss	 xmm0, DWORD PTR __real@3fc90fdb
  03391	f3 0f 11 04 24	 movss	 DWORD PTR [esp], xmm0
  03396	51		 push	 ecx
  03397	f3 0f 10 05 00
	00 00 00	 movss	 xmm0, DWORD PTR __real@3fc90fdb
  0339f	f3 0f 11 04 24	 movss	 DWORD PTR [esp], xmm0
  033a4	f3 0f 5a 45 fc	 cvtss2sd xmm0, DWORD PTR _light_level$[ebp]
  033a9	f2 0f 59 05 00
	00 00 00	 mulsd	 xmm0, QWORD PTR __real@3fe999999999999a
  033b1	f2 0f 5a c0	 cvtsd2ss xmm0, xmm0
  033b5	51		 push	 ecx
  033b6	f3 0f 11 04 24	 movss	 DWORD PTR [esp], xmm0
  033bb	b8 04 00 00 00	 mov	 eax, 4
  033c0	d1 e0		 shl	 eax, 1
  033c2	8b 4c 05 90	 mov	 ecx, DWORD PTR _moon_light_colour$12[ebp+eax]
  033c6	51		 push	 ecx
  033c7	51		 push	 ecx
  033c8	f3 0f 10 05 00
	00 00 00	 movss	 xmm0, DWORD PTR __real@3f000000
  033d0	f3 0f 11 04 24	 movss	 DWORD PTR [esp], xmm0
  033d5	ba 04 00 00 00	 mov	 edx, 4
  033da	d1 e2		 shl	 edx, 1
  033dc	8b 44 15 9c	 mov	 eax, DWORD PTR _moon_colour$13[ebp+edx]
  033e0	50		 push	 eax
  033e1	51		 push	 ecx
  033e2	0f 57 c0	 xorps	 xmm0, xmm0
  033e5	f3 0f 11 04 24	 movss	 DWORD PTR [esp], xmm0
  033ea	51		 push	 ecx
  033eb	f3 0f 10 05 00
	00 00 00	 movss	 xmm0, DWORD PTR __real@3f800000
  033f3	f3 0f 11 04 24	 movss	 DWORD PTR [esp], xmm0
  033f8	6a 04		 push	 4
  033fa	8b 0d 00 00 00
	00		 mov	 ecx, DWORD PTR ?main_3d_env@@3PAUENV_3D@@A ; main_3d_env
  03400	51		 push	 ecx
  03401	e8 00 00 00 00	 call	 ?add_3d_moon_setting@@YGXPAUENV_3D@@W4WEATHERMODES@@MMUREAL_COLOUR@@M2MMMHM@Z ; add_3d_moon_setting

; 453  : 		add_3d_moon_setting ( main_3d_env, WEATHERMODE_SNOW, 1.0, 0.0, moon_colour[2], 0.50, moon_light_colour[2], 0.80*light_level, rad ( 90 ), rad ( 135 ), TRUE, NIGHT_TIME );

  03406	51		 push	 ecx
  03407	f3 0f 10 05 00
	00 00 00	 movss	 xmm0, DWORD PTR __real@467d2000
  0340f	f3 0f 11 04 24	 movss	 DWORD PTR [esp], xmm0
  03414	6a 01		 push	 1
  03416	51		 push	 ecx
  03417	f3 0f 10 05 00
	00 00 00	 movss	 xmm0, DWORD PTR __real@4016cbe4
  0341f	f3 0f 11 04 24	 movss	 DWORD PTR [esp], xmm0
  03424	51		 push	 ecx
  03425	f3 0f 10 05 00
	00 00 00	 movss	 xmm0, DWORD PTR __real@3fc90fdb
  0342d	f3 0f 11 04 24	 movss	 DWORD PTR [esp], xmm0
  03432	f3 0f 5a 45 fc	 cvtss2sd xmm0, DWORD PTR _light_level$[ebp]
  03437	f2 0f 59 05 00
	00 00 00	 mulsd	 xmm0, QWORD PTR __real@3fe999999999999a
  0343f	f2 0f 5a c0	 cvtsd2ss xmm0, xmm0
  03443	51		 push	 ecx
  03444	f3 0f 11 04 24	 movss	 DWORD PTR [esp], xmm0
  03449	b8 04 00 00 00	 mov	 eax, 4
  0344e	d1 e0		 shl	 eax, 1
  03450	8b 4c 05 90	 mov	 ecx, DWORD PTR _moon_light_colour$12[ebp+eax]
  03454	51		 push	 ecx
  03455	51		 push	 ecx
  03456	f3 0f 10 05 00
	00 00 00	 movss	 xmm0, DWORD PTR __real@3f000000
  0345e	f3 0f 11 04 24	 movss	 DWORD PTR [esp], xmm0
  03463	ba 04 00 00 00	 mov	 edx, 4
  03468	d1 e2		 shl	 edx, 1
  0346a	8b 44 15 9c	 mov	 eax, DWORD PTR _moon_colour$13[ebp+edx]
  0346e	50		 push	 eax
  0346f	51		 push	 ecx
  03470	0f 57 c0	 xorps	 xmm0, xmm0
  03473	f3 0f 11 04 24	 movss	 DWORD PTR [esp], xmm0
  03478	51		 push	 ecx
  03479	f3 0f 10 05 00
	00 00 00	 movss	 xmm0, DWORD PTR __real@3f800000
  03481	f3 0f 11 04 24	 movss	 DWORD PTR [esp], xmm0
  03486	6a 04		 push	 4
  03488	8b 0d 00 00 00
	00		 mov	 ecx, DWORD PTR ?main_3d_env@@3PAUENV_3D@@A ; main_3d_env
  0348e	51		 push	 ecx
  0348f	e8 00 00 00 00	 call	 ?add_3d_moon_setting@@YGXPAUENV_3D@@W4WEATHERMODES@@MMUREAL_COLOUR@@M2MMMHM@Z ; add_3d_moon_setting

; 454  : 	}
; 455  : 
; 456  : 
; 457  : 	//
; 458  : 	// Initialise the cloud lighting system for the environment
; 459  : 	//
; 460  : 
; 461  : 	{
; 462  : 
; 463  : 		rgb_colour
; 464  : 			ambient_colour[6],
; 465  : 			sun_light_colour[3];
; 466  : 
; 467  : 		set_rgb_colour ( ambient_colour[0], 128, 128, 128, 64 );		// 6am ( 20% )

  03494	b8 04 00 00 00	 mov	 eax, 4
  03499	6b c8 00	 imul	 ecx, eax, 0
  0349c	c6 84 0d 7a ff
	ff ff 80	 mov	 BYTE PTR _ambient_colour$11[ebp+ecx+2], 128 ; 00000080H
  034a4	b8 04 00 00 00	 mov	 eax, 4
  034a9	6b c8 00	 imul	 ecx, eax, 0
  034ac	c6 84 0d 79 ff
	ff ff 80	 mov	 BYTE PTR _ambient_colour$11[ebp+ecx+1], 128 ; 00000080H
  034b4	b8 04 00 00 00	 mov	 eax, 4
  034b9	6b c8 00	 imul	 ecx, eax, 0
  034bc	c6 84 0d 78 ff
	ff ff 80	 mov	 BYTE PTR _ambient_colour$11[ebp+ecx], 128 ; 00000080H
  034c4	b8 04 00 00 00	 mov	 eax, 4
  034c9	6b c8 00	 imul	 ecx, eax, 0
  034cc	c6 84 0d 7b ff
	ff ff 40	 mov	 BYTE PTR _ambient_colour$11[ebp+ecx+3], 64 ; 00000040H

; 468  : 		set_rgb_colour ( ambient_colour[1], 196, 196, 196, 255 );		// 9am ( 38% )

  034d4	b8 04 00 00 00	 mov	 eax, 4
  034d9	c1 e0 00	 shl	 eax, 0
  034dc	c6 84 05 7a ff
	ff ff c4	 mov	 BYTE PTR _ambient_colour$11[ebp+eax+2], 196 ; 000000c4H
  034e4	b8 04 00 00 00	 mov	 eax, 4
  034e9	c1 e0 00	 shl	 eax, 0
  034ec	c6 84 05 79 ff
	ff ff c4	 mov	 BYTE PTR _ambient_colour$11[ebp+eax+1], 196 ; 000000c4H
  034f4	b8 04 00 00 00	 mov	 eax, 4
  034f9	c1 e0 00	 shl	 eax, 0
  034fc	c6 84 05 78 ff
	ff ff c4	 mov	 BYTE PTR _ambient_colour$11[ebp+eax], 196 ; 000000c4H
  03504	b8 04 00 00 00	 mov	 eax, 4
  03509	c1 e0 00	 shl	 eax, 0
  0350c	c6 84 05 7b ff
	ff ff ff	 mov	 BYTE PTR _ambient_colour$11[ebp+eax+3], 255 ; 000000ffH

; 469  : 		set_rgb_colour ( ambient_colour[2], 255, 255, 255, 255 );	// 12pm ( 60% )

  03514	b8 04 00 00 00	 mov	 eax, 4
  03519	d1 e0		 shl	 eax, 1
  0351b	c6 84 05 7a ff
	ff ff ff	 mov	 BYTE PTR _ambient_colour$11[ebp+eax+2], 255 ; 000000ffH
  03523	b8 04 00 00 00	 mov	 eax, 4
  03528	d1 e0		 shl	 eax, 1
  0352a	c6 84 05 79 ff
	ff ff ff	 mov	 BYTE PTR _ambient_colour$11[ebp+eax+1], 255 ; 000000ffH
  03532	b8 04 00 00 00	 mov	 eax, 4
  03537	d1 e0		 shl	 eax, 1
  03539	c6 84 05 78 ff
	ff ff ff	 mov	 BYTE PTR _ambient_colour$11[ebp+eax], 255 ; 000000ffH
  03541	b8 04 00 00 00	 mov	 eax, 4
  03546	d1 e0		 shl	 eax, 1
  03548	c6 84 05 7b ff
	ff ff ff	 mov	 BYTE PTR _ambient_colour$11[ebp+eax+3], 255 ; 000000ffH

; 470  : 		set_rgb_colour ( ambient_colour[3], 180, 180, 180, 255 );		// 3pm ( 38% )

  03550	b8 04 00 00 00	 mov	 eax, 4
  03555	6b c8 03	 imul	 ecx, eax, 3
  03558	c6 84 0d 7a ff
	ff ff b4	 mov	 BYTE PTR _ambient_colour$11[ebp+ecx+2], 180 ; 000000b4H
  03560	b8 04 00 00 00	 mov	 eax, 4
  03565	6b c8 03	 imul	 ecx, eax, 3
  03568	c6 84 0d 79 ff
	ff ff b4	 mov	 BYTE PTR _ambient_colour$11[ebp+ecx+1], 180 ; 000000b4H
  03570	b8 04 00 00 00	 mov	 eax, 4
  03575	6b c8 03	 imul	 ecx, eax, 3
  03578	c6 84 0d 78 ff
	ff ff b4	 mov	 BYTE PTR _ambient_colour$11[ebp+ecx], 180 ; 000000b4H
  03580	b8 04 00 00 00	 mov	 eax, 4
  03585	6b c8 03	 imul	 ecx, eax, 3
  03588	c6 84 0d 7b ff
	ff ff ff	 mov	 BYTE PTR _ambient_colour$11[ebp+ecx+3], 255 ; 000000ffH

; 471  : 		set_rgb_colour ( ambient_colour[4], 128, 128, 128, 255 );		// 6pm ( 21% )

  03590	b8 04 00 00 00	 mov	 eax, 4
  03595	c1 e0 02	 shl	 eax, 2
  03598	c6 84 05 7a ff
	ff ff 80	 mov	 BYTE PTR _ambient_colour$11[ebp+eax+2], 128 ; 00000080H
  035a0	b8 04 00 00 00	 mov	 eax, 4
  035a5	c1 e0 02	 shl	 eax, 2
  035a8	c6 84 05 79 ff
	ff ff 80	 mov	 BYTE PTR _ambient_colour$11[ebp+eax+1], 128 ; 00000080H
  035b0	b8 04 00 00 00	 mov	 eax, 4
  035b5	c1 e0 02	 shl	 eax, 2
  035b8	c6 84 05 78 ff
	ff ff 80	 mov	 BYTE PTR _ambient_colour$11[ebp+eax], 128 ; 00000080H
  035c0	b8 04 00 00 00	 mov	 eax, 4
  035c5	c1 e0 02	 shl	 eax, 2
  035c8	c6 84 05 7b ff
	ff ff ff	 mov	 BYTE PTR _ambient_colour$11[ebp+eax+3], 255 ; 000000ffH

; 472  : 		set_rgb_colour ( ambient_colour[5], 128, 128, 128, 255 );		// 9pm, 12am, 3am ( 2% )

  035d0	b8 04 00 00 00	 mov	 eax, 4
  035d5	6b c8 05	 imul	 ecx, eax, 5
  035d8	c6 84 0d 7a ff
	ff ff 80	 mov	 BYTE PTR _ambient_colour$11[ebp+ecx+2], 128 ; 00000080H
  035e0	b8 04 00 00 00	 mov	 eax, 4
  035e5	6b c8 05	 imul	 ecx, eax, 5
  035e8	c6 84 0d 79 ff
	ff ff 80	 mov	 BYTE PTR _ambient_colour$11[ebp+ecx+1], 128 ; 00000080H
  035f0	b8 04 00 00 00	 mov	 eax, 4
  035f5	6b c8 05	 imul	 ecx, eax, 5
  035f8	c6 84 0d 78 ff
	ff ff 80	 mov	 BYTE PTR _ambient_colour$11[ebp+ecx], 128 ; 00000080H
  03600	b8 04 00 00 00	 mov	 eax, 4
  03605	6b c8 05	 imul	 ecx, eax, 5
  03608	c6 84 0d 7b ff
	ff ff ff	 mov	 BYTE PTR _ambient_colour$11[ebp+ecx+3], 255 ; 000000ffH

; 473  : 
; 474  : 		set_rgb_colour ( sun_light_colour[0], 0, 0, 0, 255 );			// No penumbra

  03610	b8 04 00 00 00	 mov	 eax, 4
  03615	6b c8 00	 imul	 ecx, eax, 0
  03618	c6 84 0d 6e ff
	ff ff 00	 mov	 BYTE PTR _sun_light_colour$10[ebp+ecx+2], 0
  03620	b8 04 00 00 00	 mov	 eax, 4
  03625	6b c8 00	 imul	 ecx, eax, 0
  03628	c6 84 0d 6d ff
	ff ff 00	 mov	 BYTE PTR _sun_light_colour$10[ebp+ecx+1], 0
  03630	b8 04 00 00 00	 mov	 eax, 4
  03635	6b c8 00	 imul	 ecx, eax, 0
  03638	c6 84 0d 6c ff
	ff ff 00	 mov	 BYTE PTR _sun_light_colour$10[ebp+ecx], 0
  03640	b8 04 00 00 00	 mov	 eax, 4
  03645	6b c8 00	 imul	 ecx, eax, 0
  03648	c6 84 0d 6f ff
	ff ff ff	 mov	 BYTE PTR _sun_light_colour$10[ebp+ecx+3], 255 ; 000000ffH

; 475  : 		set_rgb_colour ( sun_light_colour[1], 59, 62, 76, 255 );		// 6am ( 24% )

  03650	b8 04 00 00 00	 mov	 eax, 4
  03655	c1 e0 00	 shl	 eax, 0
  03658	c6 84 05 6e ff
	ff ff 3b	 mov	 BYTE PTR _sun_light_colour$10[ebp+eax+2], 59 ; 0000003bH
  03660	b8 04 00 00 00	 mov	 eax, 4
  03665	c1 e0 00	 shl	 eax, 0
  03668	c6 84 05 6d ff
	ff ff 3e	 mov	 BYTE PTR _sun_light_colour$10[ebp+eax+1], 62 ; 0000003eH
  03670	b8 04 00 00 00	 mov	 eax, 4
  03675	c1 e0 00	 shl	 eax, 0
  03678	c6 84 05 6c ff
	ff ff 4c	 mov	 BYTE PTR _sun_light_colour$10[ebp+eax], 76 ; 0000004cH
  03680	b8 04 00 00 00	 mov	 eax, 4
  03685	c1 e0 00	 shl	 eax, 0
  03688	c6 84 05 6f ff
	ff ff ff	 mov	 BYTE PTR _sun_light_colour$10[ebp+eax+3], 255 ; 000000ffH

; 476  : 		set_rgb_colour ( sun_light_colour[2], 122, 23, 15, 255 ); 		// 6pm ( 20% )

  03690	b8 04 00 00 00	 mov	 eax, 4
  03695	d1 e0		 shl	 eax, 1
  03697	c6 84 05 6e ff
	ff ff 7a	 mov	 BYTE PTR _sun_light_colour$10[ebp+eax+2], 122 ; 0000007aH
  0369f	b8 04 00 00 00	 mov	 eax, 4
  036a4	d1 e0		 shl	 eax, 1
  036a6	c6 84 05 6d ff
	ff ff 17	 mov	 BYTE PTR _sun_light_colour$10[ebp+eax+1], 23 ; 00000017H
  036ae	b8 04 00 00 00	 mov	 eax, 4
  036b3	d1 e0		 shl	 eax, 1
  036b5	c6 84 05 6c ff
	ff ff 0f	 mov	 BYTE PTR _sun_light_colour$10[ebp+eax], 15 ; 0000000fH
  036bd	b8 04 00 00 00	 mov	 eax, 4
  036c2	d1 e0		 shl	 eax, 1
  036c4	c6 84 05 6f ff
	ff ff ff	 mov	 BYTE PTR _sun_light_colour$10[ebp+eax+3], 255 ; 000000ffH

; 477  : 
; 478  : 		add_3d_cloud_light_setting ( main_3d_env, WEATHERMODE_DRY, ambient_colour[1], sun_light_colour[1], rad ( 90 ), rad ( 0 ), SUN_RISE_START_TIME );

  036cc	51		 push	 ecx
  036cd	f3 0f 10 05 00
	00 00 00	 movss	 xmm0, DWORD PTR __real@46a8c000
  036d5	f3 0f 11 04 24	 movss	 DWORD PTR [esp], xmm0
  036da	51		 push	 ecx
  036db	0f 57 c0	 xorps	 xmm0, xmm0
  036de	f3 0f 11 04 24	 movss	 DWORD PTR [esp], xmm0
  036e3	51		 push	 ecx
  036e4	f3 0f 10 05 00
	00 00 00	 movss	 xmm0, DWORD PTR __real@3fc90fdb
  036ec	f3 0f 11 04 24	 movss	 DWORD PTR [esp], xmm0
  036f1	b8 04 00 00 00	 mov	 eax, 4
  036f6	c1 e0 00	 shl	 eax, 0
  036f9	8b 8c 05 6c ff
	ff ff		 mov	 ecx, DWORD PTR _sun_light_colour$10[ebp+eax]
  03700	51		 push	 ecx
  03701	ba 04 00 00 00	 mov	 edx, 4
  03706	c1 e2 00	 shl	 edx, 0
  03709	8b 84 15 78 ff
	ff ff		 mov	 eax, DWORD PTR _ambient_colour$11[ebp+edx]
  03710	50		 push	 eax
  03711	6a 01		 push	 1
  03713	8b 0d 00 00 00
	00		 mov	 ecx, DWORD PTR ?main_3d_env@@3PAUENV_3D@@A ; main_3d_env
  03719	51		 push	 ecx
  0371a	e8 00 00 00 00	 call	 ?add_3d_cloud_light_setting@@YGXPAUENV_3D@@W4WEATHERMODES@@UREAL_COLOUR@@2MMM@Z ; add_3d_cloud_light_setting

; 479  : 		add_3d_cloud_light_setting ( main_3d_env, WEATHERMODE_DRY, ambient_colour[2], ambient_colour[2], rad ( 90 ), rad ( 45 ), SUN_RISE_END_TIME );

  0371f	51		 push	 ecx
  03720	f3 0f 10 05 00
	00 00 00	 movss	 xmm0, DWORD PTR __real@46fd2000
  03728	f3 0f 11 04 24	 movss	 DWORD PTR [esp], xmm0
  0372d	51		 push	 ecx
  0372e	f3 0f 10 05 00
	00 00 00	 movss	 xmm0, DWORD PTR __real@3f490fdb
  03736	f3 0f 11 04 24	 movss	 DWORD PTR [esp], xmm0
  0373b	51		 push	 ecx
  0373c	f3 0f 10 05 00
	00 00 00	 movss	 xmm0, DWORD PTR __real@3fc90fdb
  03744	f3 0f 11 04 24	 movss	 DWORD PTR [esp], xmm0
  03749	b8 04 00 00 00	 mov	 eax, 4
  0374e	d1 e0		 shl	 eax, 1
  03750	8b 8c 05 78 ff
	ff ff		 mov	 ecx, DWORD PTR _ambient_colour$11[ebp+eax]
  03757	51		 push	 ecx
  03758	ba 04 00 00 00	 mov	 edx, 4
  0375d	d1 e2		 shl	 edx, 1
  0375f	8b 84 15 78 ff
	ff ff		 mov	 eax, DWORD PTR _ambient_colour$11[ebp+edx]
  03766	50		 push	 eax
  03767	6a 01		 push	 1
  03769	8b 0d 00 00 00
	00		 mov	 ecx, DWORD PTR ?main_3d_env@@3PAUENV_3D@@A ; main_3d_env
  0376f	51		 push	 ecx
  03770	e8 00 00 00 00	 call	 ?add_3d_cloud_light_setting@@YGXPAUENV_3D@@W4WEATHERMODES@@UREAL_COLOUR@@2MMM@Z ; add_3d_cloud_light_setting

; 480  : 		add_3d_cloud_light_setting ( main_3d_env, WEATHERMODE_DRY, ambient_colour[2], ambient_colour[2], rad ( 90 ), rad ( 90 ), MIDDAY_TIME );

  03775	51		 push	 ecx
  03776	f3 0f 10 05 00
	00 00 00	 movss	 xmm0, DWORD PTR __real@4728c000
  0377e	f3 0f 11 04 24	 movss	 DWORD PTR [esp], xmm0
  03783	51		 push	 ecx
  03784	f3 0f 10 05 00
	00 00 00	 movss	 xmm0, DWORD PTR __real@3fc90fdb
  0378c	f3 0f 11 04 24	 movss	 DWORD PTR [esp], xmm0
  03791	51		 push	 ecx
  03792	f3 0f 10 05 00
	00 00 00	 movss	 xmm0, DWORD PTR __real@3fc90fdb
  0379a	f3 0f 11 04 24	 movss	 DWORD PTR [esp], xmm0
  0379f	b8 04 00 00 00	 mov	 eax, 4
  037a4	d1 e0		 shl	 eax, 1
  037a6	8b 8c 05 78 ff
	ff ff		 mov	 ecx, DWORD PTR _ambient_colour$11[ebp+eax]
  037ad	51		 push	 ecx
  037ae	ba 04 00 00 00	 mov	 edx, 4
  037b3	d1 e2		 shl	 edx, 1
  037b5	8b 84 15 78 ff
	ff ff		 mov	 eax, DWORD PTR _ambient_colour$11[ebp+edx]
  037bc	50		 push	 eax
  037bd	6a 01		 push	 1
  037bf	8b 0d 00 00 00
	00		 mov	 ecx, DWORD PTR ?main_3d_env@@3PAUENV_3D@@A ; main_3d_env
  037c5	51		 push	 ecx
  037c6	e8 00 00 00 00	 call	 ?add_3d_cloud_light_setting@@YGXPAUENV_3D@@W4WEATHERMODES@@UREAL_COLOUR@@2MMM@Z ; add_3d_cloud_light_setting

; 481  : 		add_3d_cloud_light_setting ( main_3d_env, WEATHERMODE_DRY, ambient_colour[2], ambient_colour[2], rad ( 90 ), rad ( 135 ), SUN_SET_START_TIME );

  037cb	51		 push	 ecx
  037cc	f3 0f 10 05 00
	00 00 00	 movss	 xmm0, DWORD PTR __real@476f1000
  037d4	f3 0f 11 04 24	 movss	 DWORD PTR [esp], xmm0
  037d9	51		 push	 ecx
  037da	f3 0f 10 05 00
	00 00 00	 movss	 xmm0, DWORD PTR __real@4016cbe4
  037e2	f3 0f 11 04 24	 movss	 DWORD PTR [esp], xmm0
  037e7	51		 push	 ecx
  037e8	f3 0f 10 05 00
	00 00 00	 movss	 xmm0, DWORD PTR __real@3fc90fdb
  037f0	f3 0f 11 04 24	 movss	 DWORD PTR [esp], xmm0
  037f5	b8 04 00 00 00	 mov	 eax, 4
  037fa	d1 e0		 shl	 eax, 1
  037fc	8b 8c 05 78 ff
	ff ff		 mov	 ecx, DWORD PTR _ambient_colour$11[ebp+eax]
  03803	51		 push	 ecx
  03804	ba 04 00 00 00	 mov	 edx, 4
  03809	d1 e2		 shl	 edx, 1
  0380b	8b 84 15 78 ff
	ff ff		 mov	 eax, DWORD PTR _ambient_colour$11[ebp+edx]
  03812	50		 push	 eax
  03813	6a 01		 push	 1
  03815	8b 0d 00 00 00
	00		 mov	 ecx, DWORD PTR ?main_3d_env@@3PAUENV_3D@@A ; main_3d_env
  0381b	51		 push	 ecx
  0381c	e8 00 00 00 00	 call	 ?add_3d_cloud_light_setting@@YGXPAUENV_3D@@W4WEATHERMODES@@UREAL_COLOUR@@2MMM@Z ; add_3d_cloud_light_setting

; 482  : 		add_3d_cloud_light_setting ( main_3d_env, WEATHERMODE_DRY, ambient_colour[1], sun_light_colour[2], rad ( 90 ), rad ( 180 ), SUN_SET_END_TIME );

  03821	51		 push	 ecx
  03822	f3 0f 10 05 00
	00 00 00	 movss	 xmm0, DWORD PTR __real@47891c00
  0382a	f3 0f 11 04 24	 movss	 DWORD PTR [esp], xmm0
  0382f	51		 push	 ecx
  03830	f3 0f 10 05 00
	00 00 00	 movss	 xmm0, DWORD PTR __real@40490fdb
  03838	f3 0f 11 04 24	 movss	 DWORD PTR [esp], xmm0
  0383d	51		 push	 ecx
  0383e	f3 0f 10 05 00
	00 00 00	 movss	 xmm0, DWORD PTR __real@3fc90fdb
  03846	f3 0f 11 04 24	 movss	 DWORD PTR [esp], xmm0
  0384b	b8 04 00 00 00	 mov	 eax, 4
  03850	d1 e0		 shl	 eax, 1
  03852	8b 8c 05 6c ff
	ff ff		 mov	 ecx, DWORD PTR _sun_light_colour$10[ebp+eax]
  03859	51		 push	 ecx
  0385a	ba 04 00 00 00	 mov	 edx, 4
  0385f	c1 e2 00	 shl	 edx, 0
  03862	8b 84 15 78 ff
	ff ff		 mov	 eax, DWORD PTR _ambient_colour$11[ebp+edx]
  03869	50		 push	 eax
  0386a	6a 01		 push	 1
  0386c	8b 0d 00 00 00
	00		 mov	 ecx, DWORD PTR ?main_3d_env@@3PAUENV_3D@@A ; main_3d_env
  03872	51		 push	 ecx
  03873	e8 00 00 00 00	 call	 ?add_3d_cloud_light_setting@@YGXPAUENV_3D@@W4WEATHERMODES@@UREAL_COLOUR@@2MMM@Z ; add_3d_cloud_light_setting

; 483  : 		add_3d_cloud_light_setting ( main_3d_env, WEATHERMODE_DRY, ambient_colour[0], ambient_colour[0], rad ( 90 ), rad ( 225 ), TWILIGHT_TIME );

  03878	51		 push	 ecx
  03879	f3 0f 10 05 00
	00 00 00	 movss	 xmm0, DWORD PTR __real@479ab000
  03881	f3 0f 11 04 24	 movss	 DWORD PTR [esp], xmm0
  03886	51		 push	 ecx
  03887	f3 0f 10 05 00
	00 00 00	 movss	 xmm0, DWORD PTR __real@407b53d1
  0388f	f3 0f 11 04 24	 movss	 DWORD PTR [esp], xmm0
  03894	51		 push	 ecx
  03895	f3 0f 10 05 00
	00 00 00	 movss	 xmm0, DWORD PTR __real@3fc90fdb
  0389d	f3 0f 11 04 24	 movss	 DWORD PTR [esp], xmm0
  038a2	b8 04 00 00 00	 mov	 eax, 4
  038a7	6b c8 00	 imul	 ecx, eax, 0
  038aa	8b 94 0d 78 ff
	ff ff		 mov	 edx, DWORD PTR _ambient_colour$11[ebp+ecx]
  038b1	52		 push	 edx
  038b2	b8 04 00 00 00	 mov	 eax, 4
  038b7	6b c8 00	 imul	 ecx, eax, 0
  038ba	8b 94 0d 78 ff
	ff ff		 mov	 edx, DWORD PTR _ambient_colour$11[ebp+ecx]
  038c1	52		 push	 edx
  038c2	6a 01		 push	 1
  038c4	a1 00 00 00 00	 mov	 eax, DWORD PTR ?main_3d_env@@3PAUENV_3D@@A ; main_3d_env
  038c9	50		 push	 eax
  038ca	e8 00 00 00 00	 call	 ?add_3d_cloud_light_setting@@YGXPAUENV_3D@@W4WEATHERMODES@@UREAL_COLOUR@@2MMM@Z ; add_3d_cloud_light_setting

; 484  : 		add_3d_cloud_light_setting ( main_3d_env, WEATHERMODE_DRY, ambient_colour[0], ambient_colour[0], rad ( 90 ), rad ( 270 ), MIDNIGHT_TIME );

  038cf	51		 push	 ecx
  038d0	0f 57 c0	 xorps	 xmm0, xmm0
  038d3	f3 0f 11 04 24	 movss	 DWORD PTR [esp], xmm0
  038d8	51		 push	 ecx
  038d9	f3 0f 10 05 00
	00 00 00	 movss	 xmm0, DWORD PTR __real@4096cbe4
  038e1	f3 0f 11 04 24	 movss	 DWORD PTR [esp], xmm0
  038e6	51		 push	 ecx
  038e7	f3 0f 10 05 00
	00 00 00	 movss	 xmm0, DWORD PTR __real@3fc90fdb
  038ef	f3 0f 11 04 24	 movss	 DWORD PTR [esp], xmm0
  038f4	b8 04 00 00 00	 mov	 eax, 4
  038f9	6b c8 00	 imul	 ecx, eax, 0
  038fc	8b 94 0d 78 ff
	ff ff		 mov	 edx, DWORD PTR _ambient_colour$11[ebp+ecx]
  03903	52		 push	 edx
  03904	b8 04 00 00 00	 mov	 eax, 4
  03909	6b c8 00	 imul	 ecx, eax, 0
  0390c	8b 94 0d 78 ff
	ff ff		 mov	 edx, DWORD PTR _ambient_colour$11[ebp+ecx]
  03913	52		 push	 edx
  03914	6a 01		 push	 1
  03916	a1 00 00 00 00	 mov	 eax, DWORD PTR ?main_3d_env@@3PAUENV_3D@@A ; main_3d_env
  0391b	50		 push	 eax
  0391c	e8 00 00 00 00	 call	 ?add_3d_cloud_light_setting@@YGXPAUENV_3D@@W4WEATHERMODES@@UREAL_COLOUR@@2MMM@Z ; add_3d_cloud_light_setting

; 485  : 		add_3d_cloud_light_setting ( main_3d_env, WEATHERMODE_DRY, ambient_colour[0], ambient_colour[0], rad ( 90 ), rad ( 315 ), NIGHT_TIME );

  03921	51		 push	 ecx
  03922	f3 0f 10 05 00
	00 00 00	 movss	 xmm0, DWORD PTR __real@467d2000
  0392a	f3 0f 11 04 24	 movss	 DWORD PTR [esp], xmm0
  0392f	51		 push	 ecx
  03930	f3 0f 10 05 00
	00 00 00	 movss	 xmm0, DWORD PTR __real@40afeddf
  03938	f3 0f 11 04 24	 movss	 DWORD PTR [esp], xmm0
  0393d	51		 push	 ecx
  0393e	f3 0f 10 05 00
	00 00 00	 movss	 xmm0, DWORD PTR __real@3fc90fdb
  03946	f3 0f 11 04 24	 movss	 DWORD PTR [esp], xmm0
  0394b	b8 04 00 00 00	 mov	 eax, 4
  03950	6b c8 00	 imul	 ecx, eax, 0
  03953	8b 94 0d 78 ff
	ff ff		 mov	 edx, DWORD PTR _ambient_colour$11[ebp+ecx]
  0395a	52		 push	 edx
  0395b	b8 04 00 00 00	 mov	 eax, 4
  03960	6b c8 00	 imul	 ecx, eax, 0
  03963	8b 94 0d 78 ff
	ff ff		 mov	 edx, DWORD PTR _ambient_colour$11[ebp+ecx]
  0396a	52		 push	 edx
  0396b	6a 01		 push	 1
  0396d	a1 00 00 00 00	 mov	 eax, DWORD PTR ?main_3d_env@@3PAUENV_3D@@A ; main_3d_env
  03972	50		 push	 eax
  03973	e8 00 00 00 00	 call	 ?add_3d_cloud_light_setting@@YGXPAUENV_3D@@W4WEATHERMODES@@UREAL_COLOUR@@2MMM@Z ; add_3d_cloud_light_setting

; 486  : 
; 487  : 		add_3d_cloud_light_setting ( main_3d_env, WEATHERMODE_LIGHT_RAIN, ambient_colour[1], sun_light_colour[1], rad ( 90 ), rad ( 0 ), SUN_RISE_START_TIME );

  03978	51		 push	 ecx
  03979	f3 0f 10 05 00
	00 00 00	 movss	 xmm0, DWORD PTR __real@46a8c000
  03981	f3 0f 11 04 24	 movss	 DWORD PTR [esp], xmm0
  03986	51		 push	 ecx
  03987	0f 57 c0	 xorps	 xmm0, xmm0
  0398a	f3 0f 11 04 24	 movss	 DWORD PTR [esp], xmm0
  0398f	51		 push	 ecx
  03990	f3 0f 10 05 00
	00 00 00	 movss	 xmm0, DWORD PTR __real@3fc90fdb
  03998	f3 0f 11 04 24	 movss	 DWORD PTR [esp], xmm0
  0399d	b8 04 00 00 00	 mov	 eax, 4
  039a2	c1 e0 00	 shl	 eax, 0
  039a5	8b 8c 05 6c ff
	ff ff		 mov	 ecx, DWORD PTR _sun_light_colour$10[ebp+eax]
  039ac	51		 push	 ecx
  039ad	ba 04 00 00 00	 mov	 edx, 4
  039b2	c1 e2 00	 shl	 edx, 0
  039b5	8b 84 15 78 ff
	ff ff		 mov	 eax, DWORD PTR _ambient_colour$11[ebp+edx]
  039bc	50		 push	 eax
  039bd	6a 02		 push	 2
  039bf	8b 0d 00 00 00
	00		 mov	 ecx, DWORD PTR ?main_3d_env@@3PAUENV_3D@@A ; main_3d_env
  039c5	51		 push	 ecx
  039c6	e8 00 00 00 00	 call	 ?add_3d_cloud_light_setting@@YGXPAUENV_3D@@W4WEATHERMODES@@UREAL_COLOUR@@2MMM@Z ; add_3d_cloud_light_setting

; 488  : 		add_3d_cloud_light_setting ( main_3d_env, WEATHERMODE_LIGHT_RAIN, ambient_colour[2], sun_light_colour[2], rad ( 90 ), rad ( 45 ), SUN_RISE_END_TIME );

  039cb	51		 push	 ecx
  039cc	f3 0f 10 05 00
	00 00 00	 movss	 xmm0, DWORD PTR __real@46fd2000
  039d4	f3 0f 11 04 24	 movss	 DWORD PTR [esp], xmm0
  039d9	51		 push	 ecx
  039da	f3 0f 10 05 00
	00 00 00	 movss	 xmm0, DWORD PTR __real@3f490fdb
  039e2	f3 0f 11 04 24	 movss	 DWORD PTR [esp], xmm0
  039e7	51		 push	 ecx
  039e8	f3 0f 10 05 00
	00 00 00	 movss	 xmm0, DWORD PTR __real@3fc90fdb
  039f0	f3 0f 11 04 24	 movss	 DWORD PTR [esp], xmm0
  039f5	b8 04 00 00 00	 mov	 eax, 4
  039fa	d1 e0		 shl	 eax, 1
  039fc	8b 8c 05 6c ff
	ff ff		 mov	 ecx, DWORD PTR _sun_light_colour$10[ebp+eax]
  03a03	51		 push	 ecx
  03a04	ba 04 00 00 00	 mov	 edx, 4
  03a09	d1 e2		 shl	 edx, 1
  03a0b	8b 84 15 78 ff
	ff ff		 mov	 eax, DWORD PTR _ambient_colour$11[ebp+edx]
  03a12	50		 push	 eax
  03a13	6a 02		 push	 2
  03a15	8b 0d 00 00 00
	00		 mov	 ecx, DWORD PTR ?main_3d_env@@3PAUENV_3D@@A ; main_3d_env
  03a1b	51		 push	 ecx
  03a1c	e8 00 00 00 00	 call	 ?add_3d_cloud_light_setting@@YGXPAUENV_3D@@W4WEATHERMODES@@UREAL_COLOUR@@2MMM@Z ; add_3d_cloud_light_setting

; 489  : 		add_3d_cloud_light_setting ( main_3d_env, WEATHERMODE_LIGHT_RAIN, ambient_colour[2], sun_light_colour[2], rad ( 90 ), rad ( 90 ), MIDDAY_TIME );

  03a21	51		 push	 ecx
  03a22	f3 0f 10 05 00
	00 00 00	 movss	 xmm0, DWORD PTR __real@4728c000
  03a2a	f3 0f 11 04 24	 movss	 DWORD PTR [esp], xmm0
  03a2f	51		 push	 ecx
  03a30	f3 0f 10 05 00
	00 00 00	 movss	 xmm0, DWORD PTR __real@3fc90fdb
  03a38	f3 0f 11 04 24	 movss	 DWORD PTR [esp], xmm0
  03a3d	51		 push	 ecx
  03a3e	f3 0f 10 05 00
	00 00 00	 movss	 xmm0, DWORD PTR __real@3fc90fdb
  03a46	f3 0f 11 04 24	 movss	 DWORD PTR [esp], xmm0
  03a4b	b8 04 00 00 00	 mov	 eax, 4
  03a50	d1 e0		 shl	 eax, 1
  03a52	8b 8c 05 6c ff
	ff ff		 mov	 ecx, DWORD PTR _sun_light_colour$10[ebp+eax]
  03a59	51		 push	 ecx
  03a5a	ba 04 00 00 00	 mov	 edx, 4
  03a5f	d1 e2		 shl	 edx, 1
  03a61	8b 84 15 78 ff
	ff ff		 mov	 eax, DWORD PTR _ambient_colour$11[ebp+edx]
  03a68	50		 push	 eax
  03a69	6a 02		 push	 2
  03a6b	8b 0d 00 00 00
	00		 mov	 ecx, DWORD PTR ?main_3d_env@@3PAUENV_3D@@A ; main_3d_env
  03a71	51		 push	 ecx
  03a72	e8 00 00 00 00	 call	 ?add_3d_cloud_light_setting@@YGXPAUENV_3D@@W4WEATHERMODES@@UREAL_COLOUR@@2MMM@Z ; add_3d_cloud_light_setting

; 490  : 		add_3d_cloud_light_setting ( main_3d_env, WEATHERMODE_LIGHT_RAIN, ambient_colour[2], sun_light_colour[2], rad ( 90 ), rad ( 135 ), SUN_SET_START_TIME );

  03a77	51		 push	 ecx
  03a78	f3 0f 10 05 00
	00 00 00	 movss	 xmm0, DWORD PTR __real@476f1000
  03a80	f3 0f 11 04 24	 movss	 DWORD PTR [esp], xmm0
  03a85	51		 push	 ecx
  03a86	f3 0f 10 05 00
	00 00 00	 movss	 xmm0, DWORD PTR __real@4016cbe4
  03a8e	f3 0f 11 04 24	 movss	 DWORD PTR [esp], xmm0
  03a93	51		 push	 ecx
  03a94	f3 0f 10 05 00
	00 00 00	 movss	 xmm0, DWORD PTR __real@3fc90fdb
  03a9c	f3 0f 11 04 24	 movss	 DWORD PTR [esp], xmm0
  03aa1	b8 04 00 00 00	 mov	 eax, 4
  03aa6	d1 e0		 shl	 eax, 1
  03aa8	8b 8c 05 6c ff
	ff ff		 mov	 ecx, DWORD PTR _sun_light_colour$10[ebp+eax]
  03aaf	51		 push	 ecx
  03ab0	ba 04 00 00 00	 mov	 edx, 4
  03ab5	d1 e2		 shl	 edx, 1
  03ab7	8b 84 15 78 ff
	ff ff		 mov	 eax, DWORD PTR _ambient_colour$11[ebp+edx]
  03abe	50		 push	 eax
  03abf	6a 02		 push	 2
  03ac1	8b 0d 00 00 00
	00		 mov	 ecx, DWORD PTR ?main_3d_env@@3PAUENV_3D@@A ; main_3d_env
  03ac7	51		 push	 ecx
  03ac8	e8 00 00 00 00	 call	 ?add_3d_cloud_light_setting@@YGXPAUENV_3D@@W4WEATHERMODES@@UREAL_COLOUR@@2MMM@Z ; add_3d_cloud_light_setting

; 491  : 		add_3d_cloud_light_setting ( main_3d_env, WEATHERMODE_LIGHT_RAIN, ambient_colour[1], sun_light_colour[1], rad ( 90 ), rad ( 180 ), SUN_SET_END_TIME );

  03acd	51		 push	 ecx
  03ace	f3 0f 10 05 00
	00 00 00	 movss	 xmm0, DWORD PTR __real@47891c00
  03ad6	f3 0f 11 04 24	 movss	 DWORD PTR [esp], xmm0
  03adb	51		 push	 ecx
  03adc	f3 0f 10 05 00
	00 00 00	 movss	 xmm0, DWORD PTR __real@40490fdb
  03ae4	f3 0f 11 04 24	 movss	 DWORD PTR [esp], xmm0
  03ae9	51		 push	 ecx
  03aea	f3 0f 10 05 00
	00 00 00	 movss	 xmm0, DWORD PTR __real@3fc90fdb
  03af2	f3 0f 11 04 24	 movss	 DWORD PTR [esp], xmm0
  03af7	b8 04 00 00 00	 mov	 eax, 4
  03afc	c1 e0 00	 shl	 eax, 0
  03aff	8b 8c 05 6c ff
	ff ff		 mov	 ecx, DWORD PTR _sun_light_colour$10[ebp+eax]
  03b06	51		 push	 ecx
  03b07	ba 04 00 00 00	 mov	 edx, 4
  03b0c	c1 e2 00	 shl	 edx, 0
  03b0f	8b 84 15 78 ff
	ff ff		 mov	 eax, DWORD PTR _ambient_colour$11[ebp+edx]
  03b16	50		 push	 eax
  03b17	6a 02		 push	 2
  03b19	8b 0d 00 00 00
	00		 mov	 ecx, DWORD PTR ?main_3d_env@@3PAUENV_3D@@A ; main_3d_env
  03b1f	51		 push	 ecx
  03b20	e8 00 00 00 00	 call	 ?add_3d_cloud_light_setting@@YGXPAUENV_3D@@W4WEATHERMODES@@UREAL_COLOUR@@2MMM@Z ; add_3d_cloud_light_setting

; 492  : 		add_3d_cloud_light_setting ( main_3d_env, WEATHERMODE_LIGHT_RAIN, ambient_colour[0], sun_light_colour[0], rad ( 90 ), rad ( 225 ), TWILIGHT_TIME );

  03b25	51		 push	 ecx
  03b26	f3 0f 10 05 00
	00 00 00	 movss	 xmm0, DWORD PTR __real@479ab000
  03b2e	f3 0f 11 04 24	 movss	 DWORD PTR [esp], xmm0
  03b33	51		 push	 ecx
  03b34	f3 0f 10 05 00
	00 00 00	 movss	 xmm0, DWORD PTR __real@407b53d1
  03b3c	f3 0f 11 04 24	 movss	 DWORD PTR [esp], xmm0
  03b41	51		 push	 ecx
  03b42	f3 0f 10 05 00
	00 00 00	 movss	 xmm0, DWORD PTR __real@3fc90fdb
  03b4a	f3 0f 11 04 24	 movss	 DWORD PTR [esp], xmm0
  03b4f	b8 04 00 00 00	 mov	 eax, 4
  03b54	6b c8 00	 imul	 ecx, eax, 0
  03b57	8b 94 0d 6c ff
	ff ff		 mov	 edx, DWORD PTR _sun_light_colour$10[ebp+ecx]
  03b5e	52		 push	 edx
  03b5f	b8 04 00 00 00	 mov	 eax, 4
  03b64	6b c8 00	 imul	 ecx, eax, 0
  03b67	8b 94 0d 78 ff
	ff ff		 mov	 edx, DWORD PTR _ambient_colour$11[ebp+ecx]
  03b6e	52		 push	 edx
  03b6f	6a 02		 push	 2
  03b71	a1 00 00 00 00	 mov	 eax, DWORD PTR ?main_3d_env@@3PAUENV_3D@@A ; main_3d_env
  03b76	50		 push	 eax
  03b77	e8 00 00 00 00	 call	 ?add_3d_cloud_light_setting@@YGXPAUENV_3D@@W4WEATHERMODES@@UREAL_COLOUR@@2MMM@Z ; add_3d_cloud_light_setting

; 493  : 		add_3d_cloud_light_setting ( main_3d_env, WEATHERMODE_LIGHT_RAIN, ambient_colour[0], sun_light_colour[0], rad ( 90 ), rad ( 270 ), MIDNIGHT_TIME );

  03b7c	51		 push	 ecx
  03b7d	0f 57 c0	 xorps	 xmm0, xmm0
  03b80	f3 0f 11 04 24	 movss	 DWORD PTR [esp], xmm0
  03b85	51		 push	 ecx
  03b86	f3 0f 10 05 00
	00 00 00	 movss	 xmm0, DWORD PTR __real@4096cbe4
  03b8e	f3 0f 11 04 24	 movss	 DWORD PTR [esp], xmm0
  03b93	51		 push	 ecx
  03b94	f3 0f 10 05 00
	00 00 00	 movss	 xmm0, DWORD PTR __real@3fc90fdb
  03b9c	f3 0f 11 04 24	 movss	 DWORD PTR [esp], xmm0
  03ba1	b8 04 00 00 00	 mov	 eax, 4
  03ba6	6b c8 00	 imul	 ecx, eax, 0
  03ba9	8b 94 0d 6c ff
	ff ff		 mov	 edx, DWORD PTR _sun_light_colour$10[ebp+ecx]
  03bb0	52		 push	 edx
  03bb1	b8 04 00 00 00	 mov	 eax, 4
  03bb6	6b c8 00	 imul	 ecx, eax, 0
  03bb9	8b 94 0d 78 ff
	ff ff		 mov	 edx, DWORD PTR _ambient_colour$11[ebp+ecx]
  03bc0	52		 push	 edx
  03bc1	6a 02		 push	 2
  03bc3	a1 00 00 00 00	 mov	 eax, DWORD PTR ?main_3d_env@@3PAUENV_3D@@A ; main_3d_env
  03bc8	50		 push	 eax
  03bc9	e8 00 00 00 00	 call	 ?add_3d_cloud_light_setting@@YGXPAUENV_3D@@W4WEATHERMODES@@UREAL_COLOUR@@2MMM@Z ; add_3d_cloud_light_setting

; 494  : 		add_3d_cloud_light_setting ( main_3d_env, WEATHERMODE_LIGHT_RAIN, ambient_colour[0], sun_light_colour[0], rad ( 90 ), rad ( 315 ), NIGHT_TIME );

  03bce	51		 push	 ecx
  03bcf	f3 0f 10 05 00
	00 00 00	 movss	 xmm0, DWORD PTR __real@467d2000
  03bd7	f3 0f 11 04 24	 movss	 DWORD PTR [esp], xmm0
  03bdc	51		 push	 ecx
  03bdd	f3 0f 10 05 00
	00 00 00	 movss	 xmm0, DWORD PTR __real@40afeddf
  03be5	f3 0f 11 04 24	 movss	 DWORD PTR [esp], xmm0
  03bea	51		 push	 ecx
  03beb	f3 0f 10 05 00
	00 00 00	 movss	 xmm0, DWORD PTR __real@3fc90fdb
  03bf3	f3 0f 11 04 24	 movss	 DWORD PTR [esp], xmm0
  03bf8	b8 04 00 00 00	 mov	 eax, 4
  03bfd	6b c8 00	 imul	 ecx, eax, 0
  03c00	8b 94 0d 6c ff
	ff ff		 mov	 edx, DWORD PTR _sun_light_colour$10[ebp+ecx]
  03c07	52		 push	 edx
  03c08	b8 04 00 00 00	 mov	 eax, 4
  03c0d	6b c8 00	 imul	 ecx, eax, 0
  03c10	8b 94 0d 78 ff
	ff ff		 mov	 edx, DWORD PTR _ambient_colour$11[ebp+ecx]
  03c17	52		 push	 edx
  03c18	6a 02		 push	 2
  03c1a	a1 00 00 00 00	 mov	 eax, DWORD PTR ?main_3d_env@@3PAUENV_3D@@A ; main_3d_env
  03c1f	50		 push	 eax
  03c20	e8 00 00 00 00	 call	 ?add_3d_cloud_light_setting@@YGXPAUENV_3D@@W4WEATHERMODES@@UREAL_COLOUR@@2MMM@Z ; add_3d_cloud_light_setting

; 495  : 
; 496  : 		add_3d_cloud_light_setting ( main_3d_env, WEATHERMODE_HEAVY_RAIN, ambient_colour[1], sun_light_colour[1], rad ( 90 ), rad ( 0 ), SUN_RISE_START_TIME );

  03c25	51		 push	 ecx
  03c26	f3 0f 10 05 00
	00 00 00	 movss	 xmm0, DWORD PTR __real@46a8c000
  03c2e	f3 0f 11 04 24	 movss	 DWORD PTR [esp], xmm0
  03c33	51		 push	 ecx
  03c34	0f 57 c0	 xorps	 xmm0, xmm0
  03c37	f3 0f 11 04 24	 movss	 DWORD PTR [esp], xmm0
  03c3c	51		 push	 ecx
  03c3d	f3 0f 10 05 00
	00 00 00	 movss	 xmm0, DWORD PTR __real@3fc90fdb
  03c45	f3 0f 11 04 24	 movss	 DWORD PTR [esp], xmm0
  03c4a	b8 04 00 00 00	 mov	 eax, 4
  03c4f	c1 e0 00	 shl	 eax, 0
  03c52	8b 8c 05 6c ff
	ff ff		 mov	 ecx, DWORD PTR _sun_light_colour$10[ebp+eax]
  03c59	51		 push	 ecx
  03c5a	ba 04 00 00 00	 mov	 edx, 4
  03c5f	c1 e2 00	 shl	 edx, 0
  03c62	8b 84 15 78 ff
	ff ff		 mov	 eax, DWORD PTR _ambient_colour$11[ebp+edx]
  03c69	50		 push	 eax
  03c6a	6a 03		 push	 3
  03c6c	8b 0d 00 00 00
	00		 mov	 ecx, DWORD PTR ?main_3d_env@@3PAUENV_3D@@A ; main_3d_env
  03c72	51		 push	 ecx
  03c73	e8 00 00 00 00	 call	 ?add_3d_cloud_light_setting@@YGXPAUENV_3D@@W4WEATHERMODES@@UREAL_COLOUR@@2MMM@Z ; add_3d_cloud_light_setting

; 497  : 		add_3d_cloud_light_setting ( main_3d_env, WEATHERMODE_HEAVY_RAIN, ambient_colour[2], sun_light_colour[2], rad ( 90 ), rad ( 45 ), SUN_RISE_END_TIME );

  03c78	51		 push	 ecx
  03c79	f3 0f 10 05 00
	00 00 00	 movss	 xmm0, DWORD PTR __real@46fd2000
  03c81	f3 0f 11 04 24	 movss	 DWORD PTR [esp], xmm0
  03c86	51		 push	 ecx
  03c87	f3 0f 10 05 00
	00 00 00	 movss	 xmm0, DWORD PTR __real@3f490fdb
  03c8f	f3 0f 11 04 24	 movss	 DWORD PTR [esp], xmm0
  03c94	51		 push	 ecx
  03c95	f3 0f 10 05 00
	00 00 00	 movss	 xmm0, DWORD PTR __real@3fc90fdb
  03c9d	f3 0f 11 04 24	 movss	 DWORD PTR [esp], xmm0
  03ca2	b8 04 00 00 00	 mov	 eax, 4
  03ca7	d1 e0		 shl	 eax, 1
  03ca9	8b 8c 05 6c ff
	ff ff		 mov	 ecx, DWORD PTR _sun_light_colour$10[ebp+eax]
  03cb0	51		 push	 ecx
  03cb1	ba 04 00 00 00	 mov	 edx, 4
  03cb6	d1 e2		 shl	 edx, 1
  03cb8	8b 84 15 78 ff
	ff ff		 mov	 eax, DWORD PTR _ambient_colour$11[ebp+edx]
  03cbf	50		 push	 eax
  03cc0	6a 03		 push	 3
  03cc2	8b 0d 00 00 00
	00		 mov	 ecx, DWORD PTR ?main_3d_env@@3PAUENV_3D@@A ; main_3d_env
  03cc8	51		 push	 ecx
  03cc9	e8 00 00 00 00	 call	 ?add_3d_cloud_light_setting@@YGXPAUENV_3D@@W4WEATHERMODES@@UREAL_COLOUR@@2MMM@Z ; add_3d_cloud_light_setting

; 498  : 		add_3d_cloud_light_setting ( main_3d_env, WEATHERMODE_HEAVY_RAIN, ambient_colour[2], sun_light_colour[2], rad ( 90 ), rad ( 90 ), MIDDAY_TIME );

  03cce	51		 push	 ecx
  03ccf	f3 0f 10 05 00
	00 00 00	 movss	 xmm0, DWORD PTR __real@4728c000
  03cd7	f3 0f 11 04 24	 movss	 DWORD PTR [esp], xmm0
  03cdc	51		 push	 ecx
  03cdd	f3 0f 10 05 00
	00 00 00	 movss	 xmm0, DWORD PTR __real@3fc90fdb
  03ce5	f3 0f 11 04 24	 movss	 DWORD PTR [esp], xmm0
  03cea	51		 push	 ecx
  03ceb	f3 0f 10 05 00
	00 00 00	 movss	 xmm0, DWORD PTR __real@3fc90fdb
  03cf3	f3 0f 11 04 24	 movss	 DWORD PTR [esp], xmm0
  03cf8	b8 04 00 00 00	 mov	 eax, 4
  03cfd	d1 e0		 shl	 eax, 1
  03cff	8b 8c 05 6c ff
	ff ff		 mov	 ecx, DWORD PTR _sun_light_colour$10[ebp+eax]
  03d06	51		 push	 ecx
  03d07	ba 04 00 00 00	 mov	 edx, 4
  03d0c	d1 e2		 shl	 edx, 1
  03d0e	8b 84 15 78 ff
	ff ff		 mov	 eax, DWORD PTR _ambient_colour$11[ebp+edx]
  03d15	50		 push	 eax
  03d16	6a 03		 push	 3
  03d18	8b 0d 00 00 00
	00		 mov	 ecx, DWORD PTR ?main_3d_env@@3PAUENV_3D@@A ; main_3d_env
  03d1e	51		 push	 ecx
  03d1f	e8 00 00 00 00	 call	 ?add_3d_cloud_light_setting@@YGXPAUENV_3D@@W4WEATHERMODES@@UREAL_COLOUR@@2MMM@Z ; add_3d_cloud_light_setting

; 499  : 		add_3d_cloud_light_setting ( main_3d_env, WEATHERMODE_HEAVY_RAIN, ambient_colour[2], sun_light_colour[2], rad ( 90 ), rad ( 135 ), SUN_SET_START_TIME );

  03d24	51		 push	 ecx
  03d25	f3 0f 10 05 00
	00 00 00	 movss	 xmm0, DWORD PTR __real@476f1000
  03d2d	f3 0f 11 04 24	 movss	 DWORD PTR [esp], xmm0
  03d32	51		 push	 ecx
  03d33	f3 0f 10 05 00
	00 00 00	 movss	 xmm0, DWORD PTR __real@4016cbe4
  03d3b	f3 0f 11 04 24	 movss	 DWORD PTR [esp], xmm0
  03d40	51		 push	 ecx
  03d41	f3 0f 10 05 00
	00 00 00	 movss	 xmm0, DWORD PTR __real@3fc90fdb
  03d49	f3 0f 11 04 24	 movss	 DWORD PTR [esp], xmm0
  03d4e	b8 04 00 00 00	 mov	 eax, 4
  03d53	d1 e0		 shl	 eax, 1
  03d55	8b 8c 05 6c ff
	ff ff		 mov	 ecx, DWORD PTR _sun_light_colour$10[ebp+eax]
  03d5c	51		 push	 ecx
  03d5d	ba 04 00 00 00	 mov	 edx, 4
  03d62	d1 e2		 shl	 edx, 1
  03d64	8b 84 15 78 ff
	ff ff		 mov	 eax, DWORD PTR _ambient_colour$11[ebp+edx]
  03d6b	50		 push	 eax
  03d6c	6a 03		 push	 3
  03d6e	8b 0d 00 00 00
	00		 mov	 ecx, DWORD PTR ?main_3d_env@@3PAUENV_3D@@A ; main_3d_env
  03d74	51		 push	 ecx
  03d75	e8 00 00 00 00	 call	 ?add_3d_cloud_light_setting@@YGXPAUENV_3D@@W4WEATHERMODES@@UREAL_COLOUR@@2MMM@Z ; add_3d_cloud_light_setting

; 500  : 		add_3d_cloud_light_setting ( main_3d_env, WEATHERMODE_HEAVY_RAIN, ambient_colour[1], sun_light_colour[1], rad ( 90 ), rad ( 180 ), SUN_SET_END_TIME );

  03d7a	51		 push	 ecx
  03d7b	f3 0f 10 05 00
	00 00 00	 movss	 xmm0, DWORD PTR __real@47891c00
  03d83	f3 0f 11 04 24	 movss	 DWORD PTR [esp], xmm0
  03d88	51		 push	 ecx
  03d89	f3 0f 10 05 00
	00 00 00	 movss	 xmm0, DWORD PTR __real@40490fdb
  03d91	f3 0f 11 04 24	 movss	 DWORD PTR [esp], xmm0
  03d96	51		 push	 ecx
  03d97	f3 0f 10 05 00
	00 00 00	 movss	 xmm0, DWORD PTR __real@3fc90fdb
  03d9f	f3 0f 11 04 24	 movss	 DWORD PTR [esp], xmm0
  03da4	b8 04 00 00 00	 mov	 eax, 4
  03da9	c1 e0 00	 shl	 eax, 0
  03dac	8b 8c 05 6c ff
	ff ff		 mov	 ecx, DWORD PTR _sun_light_colour$10[ebp+eax]
  03db3	51		 push	 ecx
  03db4	ba 04 00 00 00	 mov	 edx, 4
  03db9	c1 e2 00	 shl	 edx, 0
  03dbc	8b 84 15 78 ff
	ff ff		 mov	 eax, DWORD PTR _ambient_colour$11[ebp+edx]
  03dc3	50		 push	 eax
  03dc4	6a 03		 push	 3
  03dc6	8b 0d 00 00 00
	00		 mov	 ecx, DWORD PTR ?main_3d_env@@3PAUENV_3D@@A ; main_3d_env
  03dcc	51		 push	 ecx
  03dcd	e8 00 00 00 00	 call	 ?add_3d_cloud_light_setting@@YGXPAUENV_3D@@W4WEATHERMODES@@UREAL_COLOUR@@2MMM@Z ; add_3d_cloud_light_setting

; 501  : 		add_3d_cloud_light_setting ( main_3d_env, WEATHERMODE_HEAVY_RAIN, ambient_colour[0], sun_light_colour[0], rad ( 90 ), rad ( 225 ), TWILIGHT_TIME );

  03dd2	51		 push	 ecx
  03dd3	f3 0f 10 05 00
	00 00 00	 movss	 xmm0, DWORD PTR __real@479ab000
  03ddb	f3 0f 11 04 24	 movss	 DWORD PTR [esp], xmm0
  03de0	51		 push	 ecx
  03de1	f3 0f 10 05 00
	00 00 00	 movss	 xmm0, DWORD PTR __real@407b53d1
  03de9	f3 0f 11 04 24	 movss	 DWORD PTR [esp], xmm0
  03dee	51		 push	 ecx
  03def	f3 0f 10 05 00
	00 00 00	 movss	 xmm0, DWORD PTR __real@3fc90fdb
  03df7	f3 0f 11 04 24	 movss	 DWORD PTR [esp], xmm0
  03dfc	b8 04 00 00 00	 mov	 eax, 4
  03e01	6b c8 00	 imul	 ecx, eax, 0
  03e04	8b 94 0d 6c ff
	ff ff		 mov	 edx, DWORD PTR _sun_light_colour$10[ebp+ecx]
  03e0b	52		 push	 edx
  03e0c	b8 04 00 00 00	 mov	 eax, 4
  03e11	6b c8 00	 imul	 ecx, eax, 0
  03e14	8b 94 0d 78 ff
	ff ff		 mov	 edx, DWORD PTR _ambient_colour$11[ebp+ecx]
  03e1b	52		 push	 edx
  03e1c	6a 03		 push	 3
  03e1e	a1 00 00 00 00	 mov	 eax, DWORD PTR ?main_3d_env@@3PAUENV_3D@@A ; main_3d_env
  03e23	50		 push	 eax
  03e24	e8 00 00 00 00	 call	 ?add_3d_cloud_light_setting@@YGXPAUENV_3D@@W4WEATHERMODES@@UREAL_COLOUR@@2MMM@Z ; add_3d_cloud_light_setting

; 502  : 		add_3d_cloud_light_setting ( main_3d_env, WEATHERMODE_HEAVY_RAIN, ambient_colour[0], sun_light_colour[0], rad ( 90 ), rad ( 270 ), MIDNIGHT_TIME );

  03e29	51		 push	 ecx
  03e2a	0f 57 c0	 xorps	 xmm0, xmm0
  03e2d	f3 0f 11 04 24	 movss	 DWORD PTR [esp], xmm0
  03e32	51		 push	 ecx
  03e33	f3 0f 10 05 00
	00 00 00	 movss	 xmm0, DWORD PTR __real@4096cbe4
  03e3b	f3 0f 11 04 24	 movss	 DWORD PTR [esp], xmm0
  03e40	51		 push	 ecx
  03e41	f3 0f 10 05 00
	00 00 00	 movss	 xmm0, DWORD PTR __real@3fc90fdb
  03e49	f3 0f 11 04 24	 movss	 DWORD PTR [esp], xmm0
  03e4e	b8 04 00 00 00	 mov	 eax, 4
  03e53	6b c8 00	 imul	 ecx, eax, 0
  03e56	8b 94 0d 6c ff
	ff ff		 mov	 edx, DWORD PTR _sun_light_colour$10[ebp+ecx]
  03e5d	52		 push	 edx
  03e5e	b8 04 00 00 00	 mov	 eax, 4
  03e63	6b c8 00	 imul	 ecx, eax, 0
  03e66	8b 94 0d 78 ff
	ff ff		 mov	 edx, DWORD PTR _ambient_colour$11[ebp+ecx]
  03e6d	52		 push	 edx
  03e6e	6a 03		 push	 3
  03e70	a1 00 00 00 00	 mov	 eax, DWORD PTR ?main_3d_env@@3PAUENV_3D@@A ; main_3d_env
  03e75	50		 push	 eax
  03e76	e8 00 00 00 00	 call	 ?add_3d_cloud_light_setting@@YGXPAUENV_3D@@W4WEATHERMODES@@UREAL_COLOUR@@2MMM@Z ; add_3d_cloud_light_setting

; 503  : 		add_3d_cloud_light_setting ( main_3d_env, WEATHERMODE_HEAVY_RAIN, ambient_colour[0], sun_light_colour[0], rad ( 90 ), rad ( 315 ), NIGHT_TIME );

  03e7b	51		 push	 ecx
  03e7c	f3 0f 10 05 00
	00 00 00	 movss	 xmm0, DWORD PTR __real@467d2000
  03e84	f3 0f 11 04 24	 movss	 DWORD PTR [esp], xmm0
  03e89	51		 push	 ecx
  03e8a	f3 0f 10 05 00
	00 00 00	 movss	 xmm0, DWORD PTR __real@40afeddf
  03e92	f3 0f 11 04 24	 movss	 DWORD PTR [esp], xmm0
  03e97	51		 push	 ecx
  03e98	f3 0f 10 05 00
	00 00 00	 movss	 xmm0, DWORD PTR __real@3fc90fdb
  03ea0	f3 0f 11 04 24	 movss	 DWORD PTR [esp], xmm0
  03ea5	b8 04 00 00 00	 mov	 eax, 4
  03eaa	6b c8 00	 imul	 ecx, eax, 0
  03ead	8b 94 0d 6c ff
	ff ff		 mov	 edx, DWORD PTR _sun_light_colour$10[ebp+ecx]
  03eb4	52		 push	 edx
  03eb5	b8 04 00 00 00	 mov	 eax, 4
  03eba	6b c8 00	 imul	 ecx, eax, 0
  03ebd	8b 94 0d 78 ff
	ff ff		 mov	 edx, DWORD PTR _ambient_colour$11[ebp+ecx]
  03ec4	52		 push	 edx
  03ec5	6a 03		 push	 3
  03ec7	a1 00 00 00 00	 mov	 eax, DWORD PTR ?main_3d_env@@3PAUENV_3D@@A ; main_3d_env
  03ecc	50		 push	 eax
  03ecd	e8 00 00 00 00	 call	 ?add_3d_cloud_light_setting@@YGXPAUENV_3D@@W4WEATHERMODES@@UREAL_COLOUR@@2MMM@Z ; add_3d_cloud_light_setting

; 504  : 
; 505  : 		add_3d_cloud_light_setting ( main_3d_env, WEATHERMODE_SNOW, ambient_colour[1], sun_light_colour[1], rad ( 90 ), rad ( 0 ), SUN_RISE_START_TIME );

  03ed2	51		 push	 ecx
  03ed3	f3 0f 10 05 00
	00 00 00	 movss	 xmm0, DWORD PTR __real@46a8c000
  03edb	f3 0f 11 04 24	 movss	 DWORD PTR [esp], xmm0
  03ee0	51		 push	 ecx
  03ee1	0f 57 c0	 xorps	 xmm0, xmm0
  03ee4	f3 0f 11 04 24	 movss	 DWORD PTR [esp], xmm0
  03ee9	51		 push	 ecx
  03eea	f3 0f 10 05 00
	00 00 00	 movss	 xmm0, DWORD PTR __real@3fc90fdb
  03ef2	f3 0f 11 04 24	 movss	 DWORD PTR [esp], xmm0
  03ef7	b8 04 00 00 00	 mov	 eax, 4
  03efc	c1 e0 00	 shl	 eax, 0
  03eff	8b 8c 05 6c ff
	ff ff		 mov	 ecx, DWORD PTR _sun_light_colour$10[ebp+eax]
  03f06	51		 push	 ecx
  03f07	ba 04 00 00 00	 mov	 edx, 4
  03f0c	c1 e2 00	 shl	 edx, 0
  03f0f	8b 84 15 78 ff
	ff ff		 mov	 eax, DWORD PTR _ambient_colour$11[ebp+edx]
  03f16	50		 push	 eax
  03f17	6a 04		 push	 4
  03f19	8b 0d 00 00 00
	00		 mov	 ecx, DWORD PTR ?main_3d_env@@3PAUENV_3D@@A ; main_3d_env
  03f1f	51		 push	 ecx
  03f20	e8 00 00 00 00	 call	 ?add_3d_cloud_light_setting@@YGXPAUENV_3D@@W4WEATHERMODES@@UREAL_COLOUR@@2MMM@Z ; add_3d_cloud_light_setting

; 506  : 		add_3d_cloud_light_setting ( main_3d_env, WEATHERMODE_SNOW, ambient_colour[2], sun_light_colour[2], rad ( 90 ), rad ( 45 ), SUN_RISE_END_TIME );

  03f25	51		 push	 ecx
  03f26	f3 0f 10 05 00
	00 00 00	 movss	 xmm0, DWORD PTR __real@46fd2000
  03f2e	f3 0f 11 04 24	 movss	 DWORD PTR [esp], xmm0
  03f33	51		 push	 ecx
  03f34	f3 0f 10 05 00
	00 00 00	 movss	 xmm0, DWORD PTR __real@3f490fdb
  03f3c	f3 0f 11 04 24	 movss	 DWORD PTR [esp], xmm0
  03f41	51		 push	 ecx
  03f42	f3 0f 10 05 00
	00 00 00	 movss	 xmm0, DWORD PTR __real@3fc90fdb
  03f4a	f3 0f 11 04 24	 movss	 DWORD PTR [esp], xmm0
  03f4f	b8 04 00 00 00	 mov	 eax, 4
  03f54	d1 e0		 shl	 eax, 1
  03f56	8b 8c 05 6c ff
	ff ff		 mov	 ecx, DWORD PTR _sun_light_colour$10[ebp+eax]
  03f5d	51		 push	 ecx
  03f5e	ba 04 00 00 00	 mov	 edx, 4
  03f63	d1 e2		 shl	 edx, 1
  03f65	8b 84 15 78 ff
	ff ff		 mov	 eax, DWORD PTR _ambient_colour$11[ebp+edx]
  03f6c	50		 push	 eax
  03f6d	6a 04		 push	 4
  03f6f	8b 0d 00 00 00
	00		 mov	 ecx, DWORD PTR ?main_3d_env@@3PAUENV_3D@@A ; main_3d_env
  03f75	51		 push	 ecx
  03f76	e8 00 00 00 00	 call	 ?add_3d_cloud_light_setting@@YGXPAUENV_3D@@W4WEATHERMODES@@UREAL_COLOUR@@2MMM@Z ; add_3d_cloud_light_setting

; 507  : 		add_3d_cloud_light_setting ( main_3d_env, WEATHERMODE_SNOW, ambient_colour[2], sun_light_colour[2], rad ( 90 ), rad ( 90 ), MIDDAY_TIME );

  03f7b	51		 push	 ecx
  03f7c	f3 0f 10 05 00
	00 00 00	 movss	 xmm0, DWORD PTR __real@4728c000
  03f84	f3 0f 11 04 24	 movss	 DWORD PTR [esp], xmm0
  03f89	51		 push	 ecx
  03f8a	f3 0f 10 05 00
	00 00 00	 movss	 xmm0, DWORD PTR __real@3fc90fdb
  03f92	f3 0f 11 04 24	 movss	 DWORD PTR [esp], xmm0
  03f97	51		 push	 ecx
  03f98	f3 0f 10 05 00
	00 00 00	 movss	 xmm0, DWORD PTR __real@3fc90fdb
  03fa0	f3 0f 11 04 24	 movss	 DWORD PTR [esp], xmm0
  03fa5	b8 04 00 00 00	 mov	 eax, 4
  03faa	d1 e0		 shl	 eax, 1
  03fac	8b 8c 05 6c ff
	ff ff		 mov	 ecx, DWORD PTR _sun_light_colour$10[ebp+eax]
  03fb3	51		 push	 ecx
  03fb4	ba 04 00 00 00	 mov	 edx, 4
  03fb9	d1 e2		 shl	 edx, 1
  03fbb	8b 84 15 78 ff
	ff ff		 mov	 eax, DWORD PTR _ambient_colour$11[ebp+edx]
  03fc2	50		 push	 eax
  03fc3	6a 04		 push	 4
  03fc5	8b 0d 00 00 00
	00		 mov	 ecx, DWORD PTR ?main_3d_env@@3PAUENV_3D@@A ; main_3d_env
  03fcb	51		 push	 ecx
  03fcc	e8 00 00 00 00	 call	 ?add_3d_cloud_light_setting@@YGXPAUENV_3D@@W4WEATHERMODES@@UREAL_COLOUR@@2MMM@Z ; add_3d_cloud_light_setting

; 508  : 		add_3d_cloud_light_setting ( main_3d_env, WEATHERMODE_SNOW, ambient_colour[2], sun_light_colour[2], rad ( 90 ), rad ( 135 ), SUN_SET_START_TIME );

  03fd1	51		 push	 ecx
  03fd2	f3 0f 10 05 00
	00 00 00	 movss	 xmm0, DWORD PTR __real@476f1000
  03fda	f3 0f 11 04 24	 movss	 DWORD PTR [esp], xmm0
  03fdf	51		 push	 ecx
  03fe0	f3 0f 10 05 00
	00 00 00	 movss	 xmm0, DWORD PTR __real@4016cbe4
  03fe8	f3 0f 11 04 24	 movss	 DWORD PTR [esp], xmm0
  03fed	51		 push	 ecx
  03fee	f3 0f 10 05 00
	00 00 00	 movss	 xmm0, DWORD PTR __real@3fc90fdb
  03ff6	f3 0f 11 04 24	 movss	 DWORD PTR [esp], xmm0
  03ffb	b8 04 00 00 00	 mov	 eax, 4
  04000	d1 e0		 shl	 eax, 1
  04002	8b 8c 05 6c ff
	ff ff		 mov	 ecx, DWORD PTR _sun_light_colour$10[ebp+eax]
  04009	51		 push	 ecx
  0400a	ba 04 00 00 00	 mov	 edx, 4
  0400f	d1 e2		 shl	 edx, 1
  04011	8b 84 15 78 ff
	ff ff		 mov	 eax, DWORD PTR _ambient_colour$11[ebp+edx]
  04018	50		 push	 eax
  04019	6a 04		 push	 4
  0401b	8b 0d 00 00 00
	00		 mov	 ecx, DWORD PTR ?main_3d_env@@3PAUENV_3D@@A ; main_3d_env
  04021	51		 push	 ecx
  04022	e8 00 00 00 00	 call	 ?add_3d_cloud_light_setting@@YGXPAUENV_3D@@W4WEATHERMODES@@UREAL_COLOUR@@2MMM@Z ; add_3d_cloud_light_setting

; 509  : 		add_3d_cloud_light_setting ( main_3d_env, WEATHERMODE_SNOW, ambient_colour[1], sun_light_colour[1], rad ( 90 ), rad ( 180 ), SUN_SET_END_TIME );

  04027	51		 push	 ecx
  04028	f3 0f 10 05 00
	00 00 00	 movss	 xmm0, DWORD PTR __real@47891c00
  04030	f3 0f 11 04 24	 movss	 DWORD PTR [esp], xmm0
  04035	51		 push	 ecx
  04036	f3 0f 10 05 00
	00 00 00	 movss	 xmm0, DWORD PTR __real@40490fdb
  0403e	f3 0f 11 04 24	 movss	 DWORD PTR [esp], xmm0
  04043	51		 push	 ecx
  04044	f3 0f 10 05 00
	00 00 00	 movss	 xmm0, DWORD PTR __real@3fc90fdb
  0404c	f3 0f 11 04 24	 movss	 DWORD PTR [esp], xmm0
  04051	b8 04 00 00 00	 mov	 eax, 4
  04056	c1 e0 00	 shl	 eax, 0
  04059	8b 8c 05 6c ff
	ff ff		 mov	 ecx, DWORD PTR _sun_light_colour$10[ebp+eax]
  04060	51		 push	 ecx
  04061	ba 04 00 00 00	 mov	 edx, 4
  04066	c1 e2 00	 shl	 edx, 0
  04069	8b 84 15 78 ff
	ff ff		 mov	 eax, DWORD PTR _ambient_colour$11[ebp+edx]
  04070	50		 push	 eax
  04071	6a 04		 push	 4
  04073	8b 0d 00 00 00
	00		 mov	 ecx, DWORD PTR ?main_3d_env@@3PAUENV_3D@@A ; main_3d_env
  04079	51		 push	 ecx
  0407a	e8 00 00 00 00	 call	 ?add_3d_cloud_light_setting@@YGXPAUENV_3D@@W4WEATHERMODES@@UREAL_COLOUR@@2MMM@Z ; add_3d_cloud_light_setting

; 510  : 		add_3d_cloud_light_setting ( main_3d_env, WEATHERMODE_SNOW, ambient_colour[0], sun_light_colour[0], rad ( 90 ), rad ( 225 ), TWILIGHT_TIME );

  0407f	51		 push	 ecx
  04080	f3 0f 10 05 00
	00 00 00	 movss	 xmm0, DWORD PTR __real@479ab000
  04088	f3 0f 11 04 24	 movss	 DWORD PTR [esp], xmm0
  0408d	51		 push	 ecx
  0408e	f3 0f 10 05 00
	00 00 00	 movss	 xmm0, DWORD PTR __real@407b53d1
  04096	f3 0f 11 04 24	 movss	 DWORD PTR [esp], xmm0
  0409b	51		 push	 ecx
  0409c	f3 0f 10 05 00
	00 00 00	 movss	 xmm0, DWORD PTR __real@3fc90fdb
  040a4	f3 0f 11 04 24	 movss	 DWORD PTR [esp], xmm0
  040a9	b8 04 00 00 00	 mov	 eax, 4
  040ae	6b c8 00	 imul	 ecx, eax, 0
  040b1	8b 94 0d 6c ff
	ff ff		 mov	 edx, DWORD PTR _sun_light_colour$10[ebp+ecx]
  040b8	52		 push	 edx
  040b9	b8 04 00 00 00	 mov	 eax, 4
  040be	6b c8 00	 imul	 ecx, eax, 0
  040c1	8b 94 0d 78 ff
	ff ff		 mov	 edx, DWORD PTR _ambient_colour$11[ebp+ecx]
  040c8	52		 push	 edx
  040c9	6a 04		 push	 4
  040cb	a1 00 00 00 00	 mov	 eax, DWORD PTR ?main_3d_env@@3PAUENV_3D@@A ; main_3d_env
  040d0	50		 push	 eax
  040d1	e8 00 00 00 00	 call	 ?add_3d_cloud_light_setting@@YGXPAUENV_3D@@W4WEATHERMODES@@UREAL_COLOUR@@2MMM@Z ; add_3d_cloud_light_setting

; 511  : 		add_3d_cloud_light_setting ( main_3d_env, WEATHERMODE_SNOW, ambient_colour[0], sun_light_colour[0], rad ( 90 ), rad ( 270 ), MIDNIGHT_TIME );

  040d6	51		 push	 ecx
  040d7	0f 57 c0	 xorps	 xmm0, xmm0
  040da	f3 0f 11 04 24	 movss	 DWORD PTR [esp], xmm0
  040df	51		 push	 ecx
  040e0	f3 0f 10 05 00
	00 00 00	 movss	 xmm0, DWORD PTR __real@4096cbe4
  040e8	f3 0f 11 04 24	 movss	 DWORD PTR [esp], xmm0
  040ed	51		 push	 ecx
  040ee	f3 0f 10 05 00
	00 00 00	 movss	 xmm0, DWORD PTR __real@3fc90fdb
  040f6	f3 0f 11 04 24	 movss	 DWORD PTR [esp], xmm0
  040fb	b8 04 00 00 00	 mov	 eax, 4
  04100	6b c8 00	 imul	 ecx, eax, 0
  04103	8b 94 0d 6c ff
	ff ff		 mov	 edx, DWORD PTR _sun_light_colour$10[ebp+ecx]
  0410a	52		 push	 edx
  0410b	b8 04 00 00 00	 mov	 eax, 4
  04110	6b c8 00	 imul	 ecx, eax, 0
  04113	8b 94 0d 78 ff
	ff ff		 mov	 edx, DWORD PTR _ambient_colour$11[ebp+ecx]
  0411a	52		 push	 edx
  0411b	6a 04		 push	 4
  0411d	a1 00 00 00 00	 mov	 eax, DWORD PTR ?main_3d_env@@3PAUENV_3D@@A ; main_3d_env
  04122	50		 push	 eax
  04123	e8 00 00 00 00	 call	 ?add_3d_cloud_light_setting@@YGXPAUENV_3D@@W4WEATHERMODES@@UREAL_COLOUR@@2MMM@Z ; add_3d_cloud_light_setting

; 512  : 		add_3d_cloud_light_setting ( main_3d_env, WEATHERMODE_SNOW, ambient_colour[0], sun_light_colour[0], rad ( 90 ), rad ( 315 ), NIGHT_TIME );

  04128	51		 push	 ecx
  04129	f3 0f 10 05 00
	00 00 00	 movss	 xmm0, DWORD PTR __real@467d2000
  04131	f3 0f 11 04 24	 movss	 DWORD PTR [esp], xmm0
  04136	51		 push	 ecx
  04137	f3 0f 10 05 00
	00 00 00	 movss	 xmm0, DWORD PTR __real@40afeddf
  0413f	f3 0f 11 04 24	 movss	 DWORD PTR [esp], xmm0
  04144	51		 push	 ecx
  04145	f3 0f 10 05 00
	00 00 00	 movss	 xmm0, DWORD PTR __real@3fc90fdb
  0414d	f3 0f 11 04 24	 movss	 DWORD PTR [esp], xmm0
  04152	b8 04 00 00 00	 mov	 eax, 4
  04157	6b c8 00	 imul	 ecx, eax, 0
  0415a	8b 94 0d 6c ff
	ff ff		 mov	 edx, DWORD PTR _sun_light_colour$10[ebp+ecx]
  04161	52		 push	 edx
  04162	b8 04 00 00 00	 mov	 eax, 4
  04167	6b c8 00	 imul	 ecx, eax, 0
  0416a	8b 94 0d 78 ff
	ff ff		 mov	 edx, DWORD PTR _ambient_colour$11[ebp+ecx]
  04171	52		 push	 edx
  04172	6a 04		 push	 4
  04174	a1 00 00 00 00	 mov	 eax, DWORD PTR ?main_3d_env@@3PAUENV_3D@@A ; main_3d_env
  04179	50		 push	 eax
  0417a	e8 00 00 00 00	 call	 ?add_3d_cloud_light_setting@@YGXPAUENV_3D@@W4WEATHERMODES@@UREAL_COLOUR@@2MMM@Z ; add_3d_cloud_light_setting

; 513  : 	}
; 514  : 
; 515  : 	set_3d_lightmode ( main_3d_env, LIGHTMODE_AUTOMATIC_LIGHT );

  0417f	6a 01		 push	 1
  04181	a1 00 00 00 00	 mov	 eax, DWORD PTR ?main_3d_env@@3PAUENV_3D@@A ; main_3d_env
  04186	50		 push	 eax
  04187	e8 00 00 00 00	 call	 ?set_3d_lightmode@@YGXPAUENV_3D@@W4LIGHTMODES@@@Z ; set_3d_lightmode

; 516  : 
; 517  : 	//
; 518  : 	// Initialise the fog settings
; 519  : 	//
; 520  : 
; 521  : 	{
; 522  : 
; 523  : 		float
; 524  : 			fog_scale;
; 525  : 
; 526  : 		fog_scale = 1.0;

  0418c	f3 0f 10 05 00
	00 00 00	 movss	 xmm0, DWORD PTR __real@3f800000
  04194	f3 0f 11 85 68
	ff ff ff	 movss	 DWORD PTR _fog_scale$9[ebp], xmm0

; 527  : 
; 528  : 		add_3d_fog_setting ( main_3d_env, WEATHERMODE_DRY, fog_scale, 0.0, 7000.0, SUN_RISE_START_TIME );

  0419c	51		 push	 ecx
  0419d	f3 0f 10 05 00
	00 00 00	 movss	 xmm0, DWORD PTR __real@46a8c000
  041a5	f3 0f 11 04 24	 movss	 DWORD PTR [esp], xmm0
  041aa	51		 push	 ecx
  041ab	f3 0f 10 05 00
	00 00 00	 movss	 xmm0, DWORD PTR __real@45dac000
  041b3	f3 0f 11 04 24	 movss	 DWORD PTR [esp], xmm0
  041b8	51		 push	 ecx
  041b9	0f 57 c0	 xorps	 xmm0, xmm0
  041bc	f3 0f 11 04 24	 movss	 DWORD PTR [esp], xmm0
  041c1	51		 push	 ecx
  041c2	f3 0f 10 85 68
	ff ff ff	 movss	 xmm0, DWORD PTR _fog_scale$9[ebp]
  041ca	f3 0f 11 04 24	 movss	 DWORD PTR [esp], xmm0
  041cf	6a 01		 push	 1
  041d1	a1 00 00 00 00	 mov	 eax, DWORD PTR ?main_3d_env@@3PAUENV_3D@@A ; main_3d_env
  041d6	50		 push	 eax
  041d7	e8 00 00 00 00	 call	 ?add_3d_fog_setting@@YGXPAUENV_3D@@W4WEATHERMODES@@MMMM@Z ; add_3d_fog_setting

; 529  : 		add_3d_fog_setting ( main_3d_env, WEATHERMODE_DRY, fog_scale, 0.0, 8000.0, SUN_RISE_END_TIME );

  041dc	51		 push	 ecx
  041dd	f3 0f 10 05 00
	00 00 00	 movss	 xmm0, DWORD PTR __real@46fd2000
  041e5	f3 0f 11 04 24	 movss	 DWORD PTR [esp], xmm0
  041ea	51		 push	 ecx
  041eb	f3 0f 10 05 00
	00 00 00	 movss	 xmm0, DWORD PTR __real@45fa0000
  041f3	f3 0f 11 04 24	 movss	 DWORD PTR [esp], xmm0
  041f8	51		 push	 ecx
  041f9	0f 57 c0	 xorps	 xmm0, xmm0
  041fc	f3 0f 11 04 24	 movss	 DWORD PTR [esp], xmm0
  04201	51		 push	 ecx
  04202	f3 0f 10 85 68
	ff ff ff	 movss	 xmm0, DWORD PTR _fog_scale$9[ebp]
  0420a	f3 0f 11 04 24	 movss	 DWORD PTR [esp], xmm0
  0420f	6a 01		 push	 1
  04211	a1 00 00 00 00	 mov	 eax, DWORD PTR ?main_3d_env@@3PAUENV_3D@@A ; main_3d_env
  04216	50		 push	 eax
  04217	e8 00 00 00 00	 call	 ?add_3d_fog_setting@@YGXPAUENV_3D@@W4WEATHERMODES@@MMMM@Z ; add_3d_fog_setting

; 530  : 		add_3d_fog_setting ( main_3d_env, WEATHERMODE_DRY, fog_scale, 0.0, 8000.0, MIDDAY_TIME );

  0421c	51		 push	 ecx
  0421d	f3 0f 10 05 00
	00 00 00	 movss	 xmm0, DWORD PTR __real@4728c000
  04225	f3 0f 11 04 24	 movss	 DWORD PTR [esp], xmm0
  0422a	51		 push	 ecx
  0422b	f3 0f 10 05 00
	00 00 00	 movss	 xmm0, DWORD PTR __real@45fa0000
  04233	f3 0f 11 04 24	 movss	 DWORD PTR [esp], xmm0
  04238	51		 push	 ecx
  04239	0f 57 c0	 xorps	 xmm0, xmm0
  0423c	f3 0f 11 04 24	 movss	 DWORD PTR [esp], xmm0
  04241	51		 push	 ecx
  04242	f3 0f 10 85 68
	ff ff ff	 movss	 xmm0, DWORD PTR _fog_scale$9[ebp]
  0424a	f3 0f 11 04 24	 movss	 DWORD PTR [esp], xmm0
  0424f	6a 01		 push	 1
  04251	a1 00 00 00 00	 mov	 eax, DWORD PTR ?main_3d_env@@3PAUENV_3D@@A ; main_3d_env
  04256	50		 push	 eax
  04257	e8 00 00 00 00	 call	 ?add_3d_fog_setting@@YGXPAUENV_3D@@W4WEATHERMODES@@MMMM@Z ; add_3d_fog_setting

; 531  : 		add_3d_fog_setting ( main_3d_env, WEATHERMODE_DRY, fog_scale, 0.0, 8000.0, SUN_SET_START_TIME );

  0425c	51		 push	 ecx
  0425d	f3 0f 10 05 00
	00 00 00	 movss	 xmm0, DWORD PTR __real@476f1000
  04265	f3 0f 11 04 24	 movss	 DWORD PTR [esp], xmm0
  0426a	51		 push	 ecx
  0426b	f3 0f 10 05 00
	00 00 00	 movss	 xmm0, DWORD PTR __real@45fa0000
  04273	f3 0f 11 04 24	 movss	 DWORD PTR [esp], xmm0
  04278	51		 push	 ecx
  04279	0f 57 c0	 xorps	 xmm0, xmm0
  0427c	f3 0f 11 04 24	 movss	 DWORD PTR [esp], xmm0
  04281	51		 push	 ecx
  04282	f3 0f 10 85 68
	ff ff ff	 movss	 xmm0, DWORD PTR _fog_scale$9[ebp]
  0428a	f3 0f 11 04 24	 movss	 DWORD PTR [esp], xmm0
  0428f	6a 01		 push	 1
  04291	a1 00 00 00 00	 mov	 eax, DWORD PTR ?main_3d_env@@3PAUENV_3D@@A ; main_3d_env
  04296	50		 push	 eax
  04297	e8 00 00 00 00	 call	 ?add_3d_fog_setting@@YGXPAUENV_3D@@W4WEATHERMODES@@MMMM@Z ; add_3d_fog_setting

; 532  : 		add_3d_fog_setting ( main_3d_env, WEATHERMODE_DRY, fog_scale, 0.0, 7000.0, SUN_SET_END_TIME );

  0429c	51		 push	 ecx
  0429d	f3 0f 10 05 00
	00 00 00	 movss	 xmm0, DWORD PTR __real@47891c00
  042a5	f3 0f 11 04 24	 movss	 DWORD PTR [esp], xmm0
  042aa	51		 push	 ecx
  042ab	f3 0f 10 05 00
	00 00 00	 movss	 xmm0, DWORD PTR __real@45dac000
  042b3	f3 0f 11 04 24	 movss	 DWORD PTR [esp], xmm0
  042b8	51		 push	 ecx
  042b9	0f 57 c0	 xorps	 xmm0, xmm0
  042bc	f3 0f 11 04 24	 movss	 DWORD PTR [esp], xmm0
  042c1	51		 push	 ecx
  042c2	f3 0f 10 85 68
	ff ff ff	 movss	 xmm0, DWORD PTR _fog_scale$9[ebp]
  042ca	f3 0f 11 04 24	 movss	 DWORD PTR [esp], xmm0
  042cf	6a 01		 push	 1
  042d1	a1 00 00 00 00	 mov	 eax, DWORD PTR ?main_3d_env@@3PAUENV_3D@@A ; main_3d_env
  042d6	50		 push	 eax
  042d7	e8 00 00 00 00	 call	 ?add_3d_fog_setting@@YGXPAUENV_3D@@W4WEATHERMODES@@MMMM@Z ; add_3d_fog_setting

; 533  : 		add_3d_fog_setting ( main_3d_env, WEATHERMODE_DRY, fog_scale, 0.0, 6000.0, TWILIGHT_TIME );

  042dc	51		 push	 ecx
  042dd	f3 0f 10 05 00
	00 00 00	 movss	 xmm0, DWORD PTR __real@479ab000
  042e5	f3 0f 11 04 24	 movss	 DWORD PTR [esp], xmm0
  042ea	51		 push	 ecx
  042eb	f3 0f 10 05 00
	00 00 00	 movss	 xmm0, DWORD PTR __real@45bb8000
  042f3	f3 0f 11 04 24	 movss	 DWORD PTR [esp], xmm0
  042f8	51		 push	 ecx
  042f9	0f 57 c0	 xorps	 xmm0, xmm0
  042fc	f3 0f 11 04 24	 movss	 DWORD PTR [esp], xmm0
  04301	51		 push	 ecx
  04302	f3 0f 10 85 68
	ff ff ff	 movss	 xmm0, DWORD PTR _fog_scale$9[ebp]
  0430a	f3 0f 11 04 24	 movss	 DWORD PTR [esp], xmm0
  0430f	6a 01		 push	 1
  04311	a1 00 00 00 00	 mov	 eax, DWORD PTR ?main_3d_env@@3PAUENV_3D@@A ; main_3d_env
  04316	50		 push	 eax
  04317	e8 00 00 00 00	 call	 ?add_3d_fog_setting@@YGXPAUENV_3D@@W4WEATHERMODES@@MMMM@Z ; add_3d_fog_setting

; 534  : 		add_3d_fog_setting ( main_3d_env, WEATHERMODE_DRY, fog_scale, 0.0, 6000.0, NIGHT_TIME );

  0431c	51		 push	 ecx
  0431d	f3 0f 10 05 00
	00 00 00	 movss	 xmm0, DWORD PTR __real@467d2000
  04325	f3 0f 11 04 24	 movss	 DWORD PTR [esp], xmm0
  0432a	51		 push	 ecx
  0432b	f3 0f 10 05 00
	00 00 00	 movss	 xmm0, DWORD PTR __real@45bb8000
  04333	f3 0f 11 04 24	 movss	 DWORD PTR [esp], xmm0
  04338	51		 push	 ecx
  04339	0f 57 c0	 xorps	 xmm0, xmm0
  0433c	f3 0f 11 04 24	 movss	 DWORD PTR [esp], xmm0
  04341	51		 push	 ecx
  04342	f3 0f 10 85 68
	ff ff ff	 movss	 xmm0, DWORD PTR _fog_scale$9[ebp]
  0434a	f3 0f 11 04 24	 movss	 DWORD PTR [esp], xmm0
  0434f	6a 01		 push	 1
  04351	a1 00 00 00 00	 mov	 eax, DWORD PTR ?main_3d_env@@3PAUENV_3D@@A ; main_3d_env
  04356	50		 push	 eax
  04357	e8 00 00 00 00	 call	 ?add_3d_fog_setting@@YGXPAUENV_3D@@W4WEATHERMODES@@MMMM@Z ; add_3d_fog_setting

; 535  : 
; 536  : 		add_3d_fog_setting ( main_3d_env, WEATHERMODE_LIGHT_RAIN, fog_scale, 0.0, 6000.0, SUN_RISE_START_TIME );

  0435c	51		 push	 ecx
  0435d	f3 0f 10 05 00
	00 00 00	 movss	 xmm0, DWORD PTR __real@46a8c000
  04365	f3 0f 11 04 24	 movss	 DWORD PTR [esp], xmm0
  0436a	51		 push	 ecx
  0436b	f3 0f 10 05 00
	00 00 00	 movss	 xmm0, DWORD PTR __real@45bb8000
  04373	f3 0f 11 04 24	 movss	 DWORD PTR [esp], xmm0
  04378	51		 push	 ecx
  04379	0f 57 c0	 xorps	 xmm0, xmm0
  0437c	f3 0f 11 04 24	 movss	 DWORD PTR [esp], xmm0
  04381	51		 push	 ecx
  04382	f3 0f 10 85 68
	ff ff ff	 movss	 xmm0, DWORD PTR _fog_scale$9[ebp]
  0438a	f3 0f 11 04 24	 movss	 DWORD PTR [esp], xmm0
  0438f	6a 02		 push	 2
  04391	a1 00 00 00 00	 mov	 eax, DWORD PTR ?main_3d_env@@3PAUENV_3D@@A ; main_3d_env
  04396	50		 push	 eax
  04397	e8 00 00 00 00	 call	 ?add_3d_fog_setting@@YGXPAUENV_3D@@W4WEATHERMODES@@MMMM@Z ; add_3d_fog_setting

; 537  : 		add_3d_fog_setting ( main_3d_env, WEATHERMODE_LIGHT_RAIN, fog_scale, 0.0, 7000.0, SUN_RISE_END_TIME );

  0439c	51		 push	 ecx
  0439d	f3 0f 10 05 00
	00 00 00	 movss	 xmm0, DWORD PTR __real@46fd2000
  043a5	f3 0f 11 04 24	 movss	 DWORD PTR [esp], xmm0
  043aa	51		 push	 ecx
  043ab	f3 0f 10 05 00
	00 00 00	 movss	 xmm0, DWORD PTR __real@45dac000
  043b3	f3 0f 11 04 24	 movss	 DWORD PTR [esp], xmm0
  043b8	51		 push	 ecx
  043b9	0f 57 c0	 xorps	 xmm0, xmm0
  043bc	f3 0f 11 04 24	 movss	 DWORD PTR [esp], xmm0
  043c1	51		 push	 ecx
  043c2	f3 0f 10 85 68
	ff ff ff	 movss	 xmm0, DWORD PTR _fog_scale$9[ebp]
  043ca	f3 0f 11 04 24	 movss	 DWORD PTR [esp], xmm0
  043cf	6a 02		 push	 2
  043d1	a1 00 00 00 00	 mov	 eax, DWORD PTR ?main_3d_env@@3PAUENV_3D@@A ; main_3d_env
  043d6	50		 push	 eax
  043d7	e8 00 00 00 00	 call	 ?add_3d_fog_setting@@YGXPAUENV_3D@@W4WEATHERMODES@@MMMM@Z ; add_3d_fog_setting

; 538  : 		add_3d_fog_setting ( main_3d_env, WEATHERMODE_LIGHT_RAIN, fog_scale, 0.0, 7000.0, MIDDAY_TIME );

  043dc	51		 push	 ecx
  043dd	f3 0f 10 05 00
	00 00 00	 movss	 xmm0, DWORD PTR __real@4728c000
  043e5	f3 0f 11 04 24	 movss	 DWORD PTR [esp], xmm0
  043ea	51		 push	 ecx
  043eb	f3 0f 10 05 00
	00 00 00	 movss	 xmm0, DWORD PTR __real@45dac000
  043f3	f3 0f 11 04 24	 movss	 DWORD PTR [esp], xmm0
  043f8	51		 push	 ecx
  043f9	0f 57 c0	 xorps	 xmm0, xmm0
  043fc	f3 0f 11 04 24	 movss	 DWORD PTR [esp], xmm0
  04401	51		 push	 ecx
  04402	f3 0f 10 85 68
	ff ff ff	 movss	 xmm0, DWORD PTR _fog_scale$9[ebp]
  0440a	f3 0f 11 04 24	 movss	 DWORD PTR [esp], xmm0
  0440f	6a 02		 push	 2
  04411	a1 00 00 00 00	 mov	 eax, DWORD PTR ?main_3d_env@@3PAUENV_3D@@A ; main_3d_env
  04416	50		 push	 eax
  04417	e8 00 00 00 00	 call	 ?add_3d_fog_setting@@YGXPAUENV_3D@@W4WEATHERMODES@@MMMM@Z ; add_3d_fog_setting

; 539  : 		add_3d_fog_setting ( main_3d_env, WEATHERMODE_LIGHT_RAIN, fog_scale, 0.0, 7000.0, SUN_SET_START_TIME );

  0441c	51		 push	 ecx
  0441d	f3 0f 10 05 00
	00 00 00	 movss	 xmm0, DWORD PTR __real@476f1000
  04425	f3 0f 11 04 24	 movss	 DWORD PTR [esp], xmm0
  0442a	51		 push	 ecx
  0442b	f3 0f 10 05 00
	00 00 00	 movss	 xmm0, DWORD PTR __real@45dac000
  04433	f3 0f 11 04 24	 movss	 DWORD PTR [esp], xmm0
  04438	51		 push	 ecx
  04439	0f 57 c0	 xorps	 xmm0, xmm0
  0443c	f3 0f 11 04 24	 movss	 DWORD PTR [esp], xmm0
  04441	51		 push	 ecx
  04442	f3 0f 10 85 68
	ff ff ff	 movss	 xmm0, DWORD PTR _fog_scale$9[ebp]
  0444a	f3 0f 11 04 24	 movss	 DWORD PTR [esp], xmm0
  0444f	6a 02		 push	 2
  04451	a1 00 00 00 00	 mov	 eax, DWORD PTR ?main_3d_env@@3PAUENV_3D@@A ; main_3d_env
  04456	50		 push	 eax
  04457	e8 00 00 00 00	 call	 ?add_3d_fog_setting@@YGXPAUENV_3D@@W4WEATHERMODES@@MMMM@Z ; add_3d_fog_setting

; 540  : 		add_3d_fog_setting ( main_3d_env, WEATHERMODE_LIGHT_RAIN, fog_scale, 0.0, 6000.0, SUN_SET_END_TIME );

  0445c	51		 push	 ecx
  0445d	f3 0f 10 05 00
	00 00 00	 movss	 xmm0, DWORD PTR __real@47891c00
  04465	f3 0f 11 04 24	 movss	 DWORD PTR [esp], xmm0
  0446a	51		 push	 ecx
  0446b	f3 0f 10 05 00
	00 00 00	 movss	 xmm0, DWORD PTR __real@45bb8000
  04473	f3 0f 11 04 24	 movss	 DWORD PTR [esp], xmm0
  04478	51		 push	 ecx
  04479	0f 57 c0	 xorps	 xmm0, xmm0
  0447c	f3 0f 11 04 24	 movss	 DWORD PTR [esp], xmm0
  04481	51		 push	 ecx
  04482	f3 0f 10 85 68
	ff ff ff	 movss	 xmm0, DWORD PTR _fog_scale$9[ebp]
  0448a	f3 0f 11 04 24	 movss	 DWORD PTR [esp], xmm0
  0448f	6a 02		 push	 2
  04491	a1 00 00 00 00	 mov	 eax, DWORD PTR ?main_3d_env@@3PAUENV_3D@@A ; main_3d_env
  04496	50		 push	 eax
  04497	e8 00 00 00 00	 call	 ?add_3d_fog_setting@@YGXPAUENV_3D@@W4WEATHERMODES@@MMMM@Z ; add_3d_fog_setting

; 541  : 		add_3d_fog_setting ( main_3d_env, WEATHERMODE_LIGHT_RAIN, fog_scale, 0.0, 5000.0, TWILIGHT_TIME );

  0449c	51		 push	 ecx
  0449d	f3 0f 10 05 00
	00 00 00	 movss	 xmm0, DWORD PTR __real@479ab000
  044a5	f3 0f 11 04 24	 movss	 DWORD PTR [esp], xmm0
  044aa	51		 push	 ecx
  044ab	f3 0f 10 05 00
	00 00 00	 movss	 xmm0, DWORD PTR __real@459c4000
  044b3	f3 0f 11 04 24	 movss	 DWORD PTR [esp], xmm0
  044b8	51		 push	 ecx
  044b9	0f 57 c0	 xorps	 xmm0, xmm0
  044bc	f3 0f 11 04 24	 movss	 DWORD PTR [esp], xmm0
  044c1	51		 push	 ecx
  044c2	f3 0f 10 85 68
	ff ff ff	 movss	 xmm0, DWORD PTR _fog_scale$9[ebp]
  044ca	f3 0f 11 04 24	 movss	 DWORD PTR [esp], xmm0
  044cf	6a 02		 push	 2
  044d1	a1 00 00 00 00	 mov	 eax, DWORD PTR ?main_3d_env@@3PAUENV_3D@@A ; main_3d_env
  044d6	50		 push	 eax
  044d7	e8 00 00 00 00	 call	 ?add_3d_fog_setting@@YGXPAUENV_3D@@W4WEATHERMODES@@MMMM@Z ; add_3d_fog_setting

; 542  : 		add_3d_fog_setting ( main_3d_env, WEATHERMODE_LIGHT_RAIN, fog_scale, 0.0, 5000.0, NIGHT_TIME );

  044dc	51		 push	 ecx
  044dd	f3 0f 10 05 00
	00 00 00	 movss	 xmm0, DWORD PTR __real@467d2000
  044e5	f3 0f 11 04 24	 movss	 DWORD PTR [esp], xmm0
  044ea	51		 push	 ecx
  044eb	f3 0f 10 05 00
	00 00 00	 movss	 xmm0, DWORD PTR __real@459c4000
  044f3	f3 0f 11 04 24	 movss	 DWORD PTR [esp], xmm0
  044f8	51		 push	 ecx
  044f9	0f 57 c0	 xorps	 xmm0, xmm0
  044fc	f3 0f 11 04 24	 movss	 DWORD PTR [esp], xmm0
  04501	51		 push	 ecx
  04502	f3 0f 10 85 68
	ff ff ff	 movss	 xmm0, DWORD PTR _fog_scale$9[ebp]
  0450a	f3 0f 11 04 24	 movss	 DWORD PTR [esp], xmm0
  0450f	6a 02		 push	 2
  04511	a1 00 00 00 00	 mov	 eax, DWORD PTR ?main_3d_env@@3PAUENV_3D@@A ; main_3d_env
  04516	50		 push	 eax
  04517	e8 00 00 00 00	 call	 ?add_3d_fog_setting@@YGXPAUENV_3D@@W4WEATHERMODES@@MMMM@Z ; add_3d_fog_setting

; 543  : 
; 544  : 		add_3d_fog_setting ( main_3d_env, WEATHERMODE_HEAVY_RAIN, fog_scale, 0.0, 4000.0, SUN_RISE_START_TIME );

  0451c	51		 push	 ecx
  0451d	f3 0f 10 05 00
	00 00 00	 movss	 xmm0, DWORD PTR __real@46a8c000
  04525	f3 0f 11 04 24	 movss	 DWORD PTR [esp], xmm0
  0452a	51		 push	 ecx
  0452b	f3 0f 10 05 00
	00 00 00	 movss	 xmm0, DWORD PTR __real@457a0000
  04533	f3 0f 11 04 24	 movss	 DWORD PTR [esp], xmm0
  04538	51		 push	 ecx
  04539	0f 57 c0	 xorps	 xmm0, xmm0
  0453c	f3 0f 11 04 24	 movss	 DWORD PTR [esp], xmm0
  04541	51		 push	 ecx
  04542	f3 0f 10 85 68
	ff ff ff	 movss	 xmm0, DWORD PTR _fog_scale$9[ebp]
  0454a	f3 0f 11 04 24	 movss	 DWORD PTR [esp], xmm0
  0454f	6a 03		 push	 3
  04551	a1 00 00 00 00	 mov	 eax, DWORD PTR ?main_3d_env@@3PAUENV_3D@@A ; main_3d_env
  04556	50		 push	 eax
  04557	e8 00 00 00 00	 call	 ?add_3d_fog_setting@@YGXPAUENV_3D@@W4WEATHERMODES@@MMMM@Z ; add_3d_fog_setting

; 545  : 		add_3d_fog_setting ( main_3d_env, WEATHERMODE_HEAVY_RAIN, fog_scale, 0.0, 5000.0, SUN_RISE_END_TIME );

  0455c	51		 push	 ecx
  0455d	f3 0f 10 05 00
	00 00 00	 movss	 xmm0, DWORD PTR __real@46fd2000
  04565	f3 0f 11 04 24	 movss	 DWORD PTR [esp], xmm0
  0456a	51		 push	 ecx
  0456b	f3 0f 10 05 00
	00 00 00	 movss	 xmm0, DWORD PTR __real@459c4000
  04573	f3 0f 11 04 24	 movss	 DWORD PTR [esp], xmm0
  04578	51		 push	 ecx
  04579	0f 57 c0	 xorps	 xmm0, xmm0
  0457c	f3 0f 11 04 24	 movss	 DWORD PTR [esp], xmm0
  04581	51		 push	 ecx
  04582	f3 0f 10 85 68
	ff ff ff	 movss	 xmm0, DWORD PTR _fog_scale$9[ebp]
  0458a	f3 0f 11 04 24	 movss	 DWORD PTR [esp], xmm0
  0458f	6a 03		 push	 3
  04591	a1 00 00 00 00	 mov	 eax, DWORD PTR ?main_3d_env@@3PAUENV_3D@@A ; main_3d_env
  04596	50		 push	 eax
  04597	e8 00 00 00 00	 call	 ?add_3d_fog_setting@@YGXPAUENV_3D@@W4WEATHERMODES@@MMMM@Z ; add_3d_fog_setting

; 546  : 		add_3d_fog_setting ( main_3d_env, WEATHERMODE_HEAVY_RAIN, fog_scale, 0.0, 5000.0, MIDDAY_TIME );

  0459c	51		 push	 ecx
  0459d	f3 0f 10 05 00
	00 00 00	 movss	 xmm0, DWORD PTR __real@4728c000
  045a5	f3 0f 11 04 24	 movss	 DWORD PTR [esp], xmm0
  045aa	51		 push	 ecx
  045ab	f3 0f 10 05 00
	00 00 00	 movss	 xmm0, DWORD PTR __real@459c4000
  045b3	f3 0f 11 04 24	 movss	 DWORD PTR [esp], xmm0
  045b8	51		 push	 ecx
  045b9	0f 57 c0	 xorps	 xmm0, xmm0
  045bc	f3 0f 11 04 24	 movss	 DWORD PTR [esp], xmm0
  045c1	51		 push	 ecx
  045c2	f3 0f 10 85 68
	ff ff ff	 movss	 xmm0, DWORD PTR _fog_scale$9[ebp]
  045ca	f3 0f 11 04 24	 movss	 DWORD PTR [esp], xmm0
  045cf	6a 03		 push	 3
  045d1	a1 00 00 00 00	 mov	 eax, DWORD PTR ?main_3d_env@@3PAUENV_3D@@A ; main_3d_env
  045d6	50		 push	 eax
  045d7	e8 00 00 00 00	 call	 ?add_3d_fog_setting@@YGXPAUENV_3D@@W4WEATHERMODES@@MMMM@Z ; add_3d_fog_setting

; 547  : 		add_3d_fog_setting ( main_3d_env, WEATHERMODE_HEAVY_RAIN, fog_scale, 0.0, 5000.0, SUN_SET_START_TIME );

  045dc	51		 push	 ecx
  045dd	f3 0f 10 05 00
	00 00 00	 movss	 xmm0, DWORD PTR __real@476f1000
  045e5	f3 0f 11 04 24	 movss	 DWORD PTR [esp], xmm0
  045ea	51		 push	 ecx
  045eb	f3 0f 10 05 00
	00 00 00	 movss	 xmm0, DWORD PTR __real@459c4000
  045f3	f3 0f 11 04 24	 movss	 DWORD PTR [esp], xmm0
  045f8	51		 push	 ecx
  045f9	0f 57 c0	 xorps	 xmm0, xmm0
  045fc	f3 0f 11 04 24	 movss	 DWORD PTR [esp], xmm0
  04601	51		 push	 ecx
  04602	f3 0f 10 85 68
	ff ff ff	 movss	 xmm0, DWORD PTR _fog_scale$9[ebp]
  0460a	f3 0f 11 04 24	 movss	 DWORD PTR [esp], xmm0
  0460f	6a 03		 push	 3
  04611	a1 00 00 00 00	 mov	 eax, DWORD PTR ?main_3d_env@@3PAUENV_3D@@A ; main_3d_env
  04616	50		 push	 eax
  04617	e8 00 00 00 00	 call	 ?add_3d_fog_setting@@YGXPAUENV_3D@@W4WEATHERMODES@@MMMM@Z ; add_3d_fog_setting

; 548  : 		add_3d_fog_setting ( main_3d_env, WEATHERMODE_HEAVY_RAIN, fog_scale, 0.0, 4000.0, SUN_SET_END_TIME );

  0461c	51		 push	 ecx
  0461d	f3 0f 10 05 00
	00 00 00	 movss	 xmm0, DWORD PTR __real@47891c00
  04625	f3 0f 11 04 24	 movss	 DWORD PTR [esp], xmm0
  0462a	51		 push	 ecx
  0462b	f3 0f 10 05 00
	00 00 00	 movss	 xmm0, DWORD PTR __real@457a0000
  04633	f3 0f 11 04 24	 movss	 DWORD PTR [esp], xmm0
  04638	51		 push	 ecx
  04639	0f 57 c0	 xorps	 xmm0, xmm0
  0463c	f3 0f 11 04 24	 movss	 DWORD PTR [esp], xmm0
  04641	51		 push	 ecx
  04642	f3 0f 10 85 68
	ff ff ff	 movss	 xmm0, DWORD PTR _fog_scale$9[ebp]
  0464a	f3 0f 11 04 24	 movss	 DWORD PTR [esp], xmm0
  0464f	6a 03		 push	 3
  04651	a1 00 00 00 00	 mov	 eax, DWORD PTR ?main_3d_env@@3PAUENV_3D@@A ; main_3d_env
  04656	50		 push	 eax
  04657	e8 00 00 00 00	 call	 ?add_3d_fog_setting@@YGXPAUENV_3D@@W4WEATHERMODES@@MMMM@Z ; add_3d_fog_setting

; 549  : 		add_3d_fog_setting ( main_3d_env, WEATHERMODE_HEAVY_RAIN, fog_scale, 0.0, 3000.0, TWILIGHT_TIME );

  0465c	51		 push	 ecx
  0465d	f3 0f 10 05 00
	00 00 00	 movss	 xmm0, DWORD PTR __real@479ab000
  04665	f3 0f 11 04 24	 movss	 DWORD PTR [esp], xmm0
  0466a	51		 push	 ecx
  0466b	f3 0f 10 05 00
	00 00 00	 movss	 xmm0, DWORD PTR __real@453b8000
  04673	f3 0f 11 04 24	 movss	 DWORD PTR [esp], xmm0
  04678	51		 push	 ecx
  04679	0f 57 c0	 xorps	 xmm0, xmm0
  0467c	f3 0f 11 04 24	 movss	 DWORD PTR [esp], xmm0
  04681	51		 push	 ecx
  04682	f3 0f 10 85 68
	ff ff ff	 movss	 xmm0, DWORD PTR _fog_scale$9[ebp]
  0468a	f3 0f 11 04 24	 movss	 DWORD PTR [esp], xmm0
  0468f	6a 03		 push	 3
  04691	a1 00 00 00 00	 mov	 eax, DWORD PTR ?main_3d_env@@3PAUENV_3D@@A ; main_3d_env
  04696	50		 push	 eax
  04697	e8 00 00 00 00	 call	 ?add_3d_fog_setting@@YGXPAUENV_3D@@W4WEATHERMODES@@MMMM@Z ; add_3d_fog_setting

; 550  : 		add_3d_fog_setting ( main_3d_env, WEATHERMODE_HEAVY_RAIN, fog_scale, 0.0, 3000.0, NIGHT_TIME );

  0469c	51		 push	 ecx
  0469d	f3 0f 10 05 00
	00 00 00	 movss	 xmm0, DWORD PTR __real@467d2000
  046a5	f3 0f 11 04 24	 movss	 DWORD PTR [esp], xmm0
  046aa	51		 push	 ecx
  046ab	f3 0f 10 05 00
	00 00 00	 movss	 xmm0, DWORD PTR __real@453b8000
  046b3	f3 0f 11 04 24	 movss	 DWORD PTR [esp], xmm0
  046b8	51		 push	 ecx
  046b9	0f 57 c0	 xorps	 xmm0, xmm0
  046bc	f3 0f 11 04 24	 movss	 DWORD PTR [esp], xmm0
  046c1	51		 push	 ecx
  046c2	f3 0f 10 85 68
	ff ff ff	 movss	 xmm0, DWORD PTR _fog_scale$9[ebp]
  046ca	f3 0f 11 04 24	 movss	 DWORD PTR [esp], xmm0
  046cf	6a 03		 push	 3
  046d1	a1 00 00 00 00	 mov	 eax, DWORD PTR ?main_3d_env@@3PAUENV_3D@@A ; main_3d_env
  046d6	50		 push	 eax
  046d7	e8 00 00 00 00	 call	 ?add_3d_fog_setting@@YGXPAUENV_3D@@W4WEATHERMODES@@MMMM@Z ; add_3d_fog_setting

; 551  : 
; 552  : 		add_3d_fog_setting ( main_3d_env, WEATHERMODE_SNOW, fog_scale, 0.0, 4000.0, SUN_RISE_START_TIME );

  046dc	51		 push	 ecx
  046dd	f3 0f 10 05 00
	00 00 00	 movss	 xmm0, DWORD PTR __real@46a8c000
  046e5	f3 0f 11 04 24	 movss	 DWORD PTR [esp], xmm0
  046ea	51		 push	 ecx
  046eb	f3 0f 10 05 00
	00 00 00	 movss	 xmm0, DWORD PTR __real@457a0000
  046f3	f3 0f 11 04 24	 movss	 DWORD PTR [esp], xmm0
  046f8	51		 push	 ecx
  046f9	0f 57 c0	 xorps	 xmm0, xmm0
  046fc	f3 0f 11 04 24	 movss	 DWORD PTR [esp], xmm0
  04701	51		 push	 ecx
  04702	f3 0f 10 85 68
	ff ff ff	 movss	 xmm0, DWORD PTR _fog_scale$9[ebp]
  0470a	f3 0f 11 04 24	 movss	 DWORD PTR [esp], xmm0
  0470f	6a 04		 push	 4
  04711	a1 00 00 00 00	 mov	 eax, DWORD PTR ?main_3d_env@@3PAUENV_3D@@A ; main_3d_env
  04716	50		 push	 eax
  04717	e8 00 00 00 00	 call	 ?add_3d_fog_setting@@YGXPAUENV_3D@@W4WEATHERMODES@@MMMM@Z ; add_3d_fog_setting

; 553  : 		add_3d_fog_setting ( main_3d_env, WEATHERMODE_SNOW, fog_scale, 0.0, 6000.0, SUN_RISE_END_TIME );

  0471c	51		 push	 ecx
  0471d	f3 0f 10 05 00
	00 00 00	 movss	 xmm0, DWORD PTR __real@46fd2000
  04725	f3 0f 11 04 24	 movss	 DWORD PTR [esp], xmm0
  0472a	51		 push	 ecx
  0472b	f3 0f 10 05 00
	00 00 00	 movss	 xmm0, DWORD PTR __real@45bb8000
  04733	f3 0f 11 04 24	 movss	 DWORD PTR [esp], xmm0
  04738	51		 push	 ecx
  04739	0f 57 c0	 xorps	 xmm0, xmm0
  0473c	f3 0f 11 04 24	 movss	 DWORD PTR [esp], xmm0
  04741	51		 push	 ecx
  04742	f3 0f 10 85 68
	ff ff ff	 movss	 xmm0, DWORD PTR _fog_scale$9[ebp]
  0474a	f3 0f 11 04 24	 movss	 DWORD PTR [esp], xmm0
  0474f	6a 04		 push	 4
  04751	a1 00 00 00 00	 mov	 eax, DWORD PTR ?main_3d_env@@3PAUENV_3D@@A ; main_3d_env
  04756	50		 push	 eax
  04757	e8 00 00 00 00	 call	 ?add_3d_fog_setting@@YGXPAUENV_3D@@W4WEATHERMODES@@MMMM@Z ; add_3d_fog_setting

; 554  : 		add_3d_fog_setting ( main_3d_env, WEATHERMODE_SNOW, fog_scale, 0.0, 6000.0, MIDDAY_TIME );

  0475c	51		 push	 ecx
  0475d	f3 0f 10 05 00
	00 00 00	 movss	 xmm0, DWORD PTR __real@4728c000
  04765	f3 0f 11 04 24	 movss	 DWORD PTR [esp], xmm0
  0476a	51		 push	 ecx
  0476b	f3 0f 10 05 00
	00 00 00	 movss	 xmm0, DWORD PTR __real@45bb8000
  04773	f3 0f 11 04 24	 movss	 DWORD PTR [esp], xmm0
  04778	51		 push	 ecx
  04779	0f 57 c0	 xorps	 xmm0, xmm0
  0477c	f3 0f 11 04 24	 movss	 DWORD PTR [esp], xmm0
  04781	51		 push	 ecx
  04782	f3 0f 10 85 68
	ff ff ff	 movss	 xmm0, DWORD PTR _fog_scale$9[ebp]
  0478a	f3 0f 11 04 24	 movss	 DWORD PTR [esp], xmm0
  0478f	6a 04		 push	 4
  04791	a1 00 00 00 00	 mov	 eax, DWORD PTR ?main_3d_env@@3PAUENV_3D@@A ; main_3d_env
  04796	50		 push	 eax
  04797	e8 00 00 00 00	 call	 ?add_3d_fog_setting@@YGXPAUENV_3D@@W4WEATHERMODES@@MMMM@Z ; add_3d_fog_setting

; 555  : 		add_3d_fog_setting ( main_3d_env, WEATHERMODE_SNOW, fog_scale, 0.0, 6000.0, SUN_SET_START_TIME );

  0479c	51		 push	 ecx
  0479d	f3 0f 10 05 00
	00 00 00	 movss	 xmm0, DWORD PTR __real@476f1000
  047a5	f3 0f 11 04 24	 movss	 DWORD PTR [esp], xmm0
  047aa	51		 push	 ecx
  047ab	f3 0f 10 05 00
	00 00 00	 movss	 xmm0, DWORD PTR __real@45bb8000
  047b3	f3 0f 11 04 24	 movss	 DWORD PTR [esp], xmm0
  047b8	51		 push	 ecx
  047b9	0f 57 c0	 xorps	 xmm0, xmm0
  047bc	f3 0f 11 04 24	 movss	 DWORD PTR [esp], xmm0
  047c1	51		 push	 ecx
  047c2	f3 0f 10 85 68
	ff ff ff	 movss	 xmm0, DWORD PTR _fog_scale$9[ebp]
  047ca	f3 0f 11 04 24	 movss	 DWORD PTR [esp], xmm0
  047cf	6a 04		 push	 4
  047d1	a1 00 00 00 00	 mov	 eax, DWORD PTR ?main_3d_env@@3PAUENV_3D@@A ; main_3d_env
  047d6	50		 push	 eax
  047d7	e8 00 00 00 00	 call	 ?add_3d_fog_setting@@YGXPAUENV_3D@@W4WEATHERMODES@@MMMM@Z ; add_3d_fog_setting

; 556  : 		add_3d_fog_setting ( main_3d_env, WEATHERMODE_SNOW, fog_scale, 0.0, 4000.0, SUN_SET_END_TIME );

  047dc	51		 push	 ecx
  047dd	f3 0f 10 05 00
	00 00 00	 movss	 xmm0, DWORD PTR __real@47891c00
  047e5	f3 0f 11 04 24	 movss	 DWORD PTR [esp], xmm0
  047ea	51		 push	 ecx
  047eb	f3 0f 10 05 00
	00 00 00	 movss	 xmm0, DWORD PTR __real@457a0000
  047f3	f3 0f 11 04 24	 movss	 DWORD PTR [esp], xmm0
  047f8	51		 push	 ecx
  047f9	0f 57 c0	 xorps	 xmm0, xmm0
  047fc	f3 0f 11 04 24	 movss	 DWORD PTR [esp], xmm0
  04801	51		 push	 ecx
  04802	f3 0f 10 85 68
	ff ff ff	 movss	 xmm0, DWORD PTR _fog_scale$9[ebp]
  0480a	f3 0f 11 04 24	 movss	 DWORD PTR [esp], xmm0
  0480f	6a 04		 push	 4
  04811	a1 00 00 00 00	 mov	 eax, DWORD PTR ?main_3d_env@@3PAUENV_3D@@A ; main_3d_env
  04816	50		 push	 eax
  04817	e8 00 00 00 00	 call	 ?add_3d_fog_setting@@YGXPAUENV_3D@@W4WEATHERMODES@@MMMM@Z ; add_3d_fog_setting

; 557  : 		add_3d_fog_setting ( main_3d_env, WEATHERMODE_SNOW, fog_scale, 0.0, 3000.0, TWILIGHT_TIME );

  0481c	51		 push	 ecx
  0481d	f3 0f 10 05 00
	00 00 00	 movss	 xmm0, DWORD PTR __real@479ab000
  04825	f3 0f 11 04 24	 movss	 DWORD PTR [esp], xmm0
  0482a	51		 push	 ecx
  0482b	f3 0f 10 05 00
	00 00 00	 movss	 xmm0, DWORD PTR __real@453b8000
  04833	f3 0f 11 04 24	 movss	 DWORD PTR [esp], xmm0
  04838	51		 push	 ecx
  04839	0f 57 c0	 xorps	 xmm0, xmm0
  0483c	f3 0f 11 04 24	 movss	 DWORD PTR [esp], xmm0
  04841	51		 push	 ecx
  04842	f3 0f 10 85 68
	ff ff ff	 movss	 xmm0, DWORD PTR _fog_scale$9[ebp]
  0484a	f3 0f 11 04 24	 movss	 DWORD PTR [esp], xmm0
  0484f	6a 04		 push	 4
  04851	a1 00 00 00 00	 mov	 eax, DWORD PTR ?main_3d_env@@3PAUENV_3D@@A ; main_3d_env
  04856	50		 push	 eax
  04857	e8 00 00 00 00	 call	 ?add_3d_fog_setting@@YGXPAUENV_3D@@W4WEATHERMODES@@MMMM@Z ; add_3d_fog_setting

; 558  : 		add_3d_fog_setting ( main_3d_env, WEATHERMODE_SNOW, fog_scale, 0.0, 3000.0, NIGHT_TIME );

  0485c	51		 push	 ecx
  0485d	f3 0f 10 05 00
	00 00 00	 movss	 xmm0, DWORD PTR __real@467d2000
  04865	f3 0f 11 04 24	 movss	 DWORD PTR [esp], xmm0
  0486a	51		 push	 ecx
  0486b	f3 0f 10 05 00
	00 00 00	 movss	 xmm0, DWORD PTR __real@453b8000
  04873	f3 0f 11 04 24	 movss	 DWORD PTR [esp], xmm0
  04878	51		 push	 ecx
  04879	0f 57 c0	 xorps	 xmm0, xmm0
  0487c	f3 0f 11 04 24	 movss	 DWORD PTR [esp], xmm0
  04881	51		 push	 ecx
  04882	f3 0f 10 85 68
	ff ff ff	 movss	 xmm0, DWORD PTR _fog_scale$9[ebp]
  0488a	f3 0f 11 04 24	 movss	 DWORD PTR [esp], xmm0
  0488f	6a 04		 push	 4
  04891	a1 00 00 00 00	 mov	 eax, DWORD PTR ?main_3d_env@@3PAUENV_3D@@A ; main_3d_env
  04896	50		 push	 eax
  04897	e8 00 00 00 00	 call	 ?add_3d_fog_setting@@YGXPAUENV_3D@@W4WEATHERMODES@@MMMM@Z ; add_3d_fog_setting

; 559  : 	}
; 560  : 
; 561  : 	//
; 562  : 	// Set the shadow colours
; 563  : 	//
; 564  : 
; 565  : 	{
; 566  : 
; 567  : 		rgb_colour
; 568  : 			shadow_colour[7];
; 569  : 
; 570  : 		set_rgb_colour ( shadow_colour[0],  0, 0, 0, 0 );

  0489c	b8 04 00 00 00	 mov	 eax, 4
  048a1	6b c8 00	 imul	 ecx, eax, 0
  048a4	c6 84 0d 4e ff
	ff ff 00	 mov	 BYTE PTR _shadow_colour$8[ebp+ecx+2], 0
  048ac	b8 04 00 00 00	 mov	 eax, 4
  048b1	6b c8 00	 imul	 ecx, eax, 0
  048b4	c6 84 0d 4d ff
	ff ff 00	 mov	 BYTE PTR _shadow_colour$8[ebp+ecx+1], 0
  048bc	b8 04 00 00 00	 mov	 eax, 4
  048c1	6b c8 00	 imul	 ecx, eax, 0
  048c4	c6 84 0d 4c ff
	ff ff 00	 mov	 BYTE PTR _shadow_colour$8[ebp+ecx], 0
  048cc	b8 04 00 00 00	 mov	 eax, 4
  048d1	6b c8 00	 imul	 ecx, eax, 0
  048d4	c6 84 0d 4f ff
	ff ff 00	 mov	 BYTE PTR _shadow_colour$8[ebp+ecx+3], 0

; 571  : 		set_rgb_colour ( shadow_colour[1],  255, 0, 0, 0 );

  048dc	b8 04 00 00 00	 mov	 eax, 4
  048e1	c1 e0 00	 shl	 eax, 0
  048e4	c6 84 05 4e ff
	ff ff ff	 mov	 BYTE PTR _shadow_colour$8[ebp+eax+2], 255 ; 000000ffH
  048ec	b8 04 00 00 00	 mov	 eax, 4
  048f1	c1 e0 00	 shl	 eax, 0
  048f4	c6 84 05 4d ff
	ff ff 00	 mov	 BYTE PTR _shadow_colour$8[ebp+eax+1], 0
  048fc	b8 04 00 00 00	 mov	 eax, 4
  04901	c1 e0 00	 shl	 eax, 0
  04904	c6 84 05 4c ff
	ff ff 00	 mov	 BYTE PTR _shadow_colour$8[ebp+eax], 0
  0490c	b8 04 00 00 00	 mov	 eax, 4
  04911	c1 e0 00	 shl	 eax, 0
  04914	c6 84 05 4f ff
	ff ff 00	 mov	 BYTE PTR _shadow_colour$8[ebp+eax+3], 0

; 572  : 		set_rgb_colour ( shadow_colour[2],  255, 255, 0, 0 );

  0491c	b8 04 00 00 00	 mov	 eax, 4
  04921	d1 e0		 shl	 eax, 1
  04923	c6 84 05 4e ff
	ff ff ff	 mov	 BYTE PTR _shadow_colour$8[ebp+eax+2], 255 ; 000000ffH
  0492b	b8 04 00 00 00	 mov	 eax, 4
  04930	d1 e0		 shl	 eax, 1
  04932	c6 84 05 4d ff
	ff ff ff	 mov	 BYTE PTR _shadow_colour$8[ebp+eax+1], 255 ; 000000ffH
  0493a	b8 04 00 00 00	 mov	 eax, 4
  0493f	d1 e0		 shl	 eax, 1
  04941	c6 84 05 4c ff
	ff ff 00	 mov	 BYTE PTR _shadow_colour$8[ebp+eax], 0
  04949	b8 04 00 00 00	 mov	 eax, 4
  0494e	d1 e0		 shl	 eax, 1
  04950	c6 84 05 4f ff
	ff ff 00	 mov	 BYTE PTR _shadow_colour$8[ebp+eax+3], 0

; 573  : 		set_rgb_colour ( shadow_colour[3],  255, 255, 255, 0 );

  04958	b8 04 00 00 00	 mov	 eax, 4
  0495d	6b c8 03	 imul	 ecx, eax, 3
  04960	c6 84 0d 4e ff
	ff ff ff	 mov	 BYTE PTR _shadow_colour$8[ebp+ecx+2], 255 ; 000000ffH
  04968	b8 04 00 00 00	 mov	 eax, 4
  0496d	6b c8 03	 imul	 ecx, eax, 3
  04970	c6 84 0d 4d ff
	ff ff ff	 mov	 BYTE PTR _shadow_colour$8[ebp+ecx+1], 255 ; 000000ffH
  04978	b8 04 00 00 00	 mov	 eax, 4
  0497d	6b c8 03	 imul	 ecx, eax, 3
  04980	c6 84 0d 4c ff
	ff ff ff	 mov	 BYTE PTR _shadow_colour$8[ebp+ecx], 255 ; 000000ffH
  04988	b8 04 00 00 00	 mov	 eax, 4
  0498d	6b c8 03	 imul	 ecx, eax, 3
  04990	c6 84 0d 4f ff
	ff ff 00	 mov	 BYTE PTR _shadow_colour$8[ebp+ecx+3], 0

; 574  : 		set_rgb_colour ( shadow_colour[4],  255, 255, 255, 0 );

  04998	b8 04 00 00 00	 mov	 eax, 4
  0499d	c1 e0 02	 shl	 eax, 2
  049a0	c6 84 05 4e ff
	ff ff ff	 mov	 BYTE PTR _shadow_colour$8[ebp+eax+2], 255 ; 000000ffH
  049a8	b8 04 00 00 00	 mov	 eax, 4
  049ad	c1 e0 02	 shl	 eax, 2
  049b0	c6 84 05 4d ff
	ff ff ff	 mov	 BYTE PTR _shadow_colour$8[ebp+eax+1], 255 ; 000000ffH
  049b8	b8 04 00 00 00	 mov	 eax, 4
  049bd	c1 e0 02	 shl	 eax, 2
  049c0	c6 84 05 4c ff
	ff ff ff	 mov	 BYTE PTR _shadow_colour$8[ebp+eax], 255 ; 000000ffH
  049c8	b8 04 00 00 00	 mov	 eax, 4
  049cd	c1 e0 02	 shl	 eax, 2
  049d0	c6 84 05 4f ff
	ff ff 00	 mov	 BYTE PTR _shadow_colour$8[ebp+eax+3], 0

; 575  : 		set_rgb_colour ( shadow_colour[5],  255, 255, 255, 0 );

  049d8	b8 04 00 00 00	 mov	 eax, 4
  049dd	6b c8 05	 imul	 ecx, eax, 5
  049e0	c6 84 0d 4e ff
	ff ff ff	 mov	 BYTE PTR _shadow_colour$8[ebp+ecx+2], 255 ; 000000ffH
  049e8	b8 04 00 00 00	 mov	 eax, 4
  049ed	6b c8 05	 imul	 ecx, eax, 5
  049f0	c6 84 0d 4d ff
	ff ff ff	 mov	 BYTE PTR _shadow_colour$8[ebp+ecx+1], 255 ; 000000ffH
  049f8	b8 04 00 00 00	 mov	 eax, 4
  049fd	6b c8 05	 imul	 ecx, eax, 5
  04a00	c6 84 0d 4c ff
	ff ff ff	 mov	 BYTE PTR _shadow_colour$8[ebp+ecx], 255 ; 000000ffH
  04a08	b8 04 00 00 00	 mov	 eax, 4
  04a0d	6b c8 05	 imul	 ecx, eax, 5
  04a10	c6 84 0d 4f ff
	ff ff 00	 mov	 BYTE PTR _shadow_colour$8[ebp+ecx+3], 0

; 576  : 		set_rgb_colour ( shadow_colour[6],  255, 255, 255, 0 );

  04a18	b8 04 00 00 00	 mov	 eax, 4
  04a1d	6b c8 06	 imul	 ecx, eax, 6
  04a20	c6 84 0d 4e ff
	ff ff ff	 mov	 BYTE PTR _shadow_colour$8[ebp+ecx+2], 255 ; 000000ffH
  04a28	b8 04 00 00 00	 mov	 eax, 4
  04a2d	6b c8 06	 imul	 ecx, eax, 6
  04a30	c6 84 0d 4d ff
	ff ff ff	 mov	 BYTE PTR _shadow_colour$8[ebp+ecx+1], 255 ; 000000ffH
  04a38	b8 04 00 00 00	 mov	 eax, 4
  04a3d	6b c8 06	 imul	 ecx, eax, 6
  04a40	c6 84 0d 4c ff
	ff ff ff	 mov	 BYTE PTR _shadow_colour$8[ebp+ecx], 255 ; 000000ffH
  04a48	b8 04 00 00 00	 mov	 eax, 4
  04a4d	6b c8 06	 imul	 ecx, eax, 6
  04a50	c6 84 0d 4f ff
	ff ff 00	 mov	 BYTE PTR _shadow_colour$8[ebp+ecx+3], 0

; 577  : 
; 578  : 		add_3d_shadow_setting ( main_3d_env, WEATHERMODE_DRY, shadow_colour[2], SUN_RISE_START_TIME );

  04a58	51		 push	 ecx
  04a59	f3 0f 10 05 00
	00 00 00	 movss	 xmm0, DWORD PTR __real@46a8c000
  04a61	f3 0f 11 04 24	 movss	 DWORD PTR [esp], xmm0
  04a66	b8 04 00 00 00	 mov	 eax, 4
  04a6b	d1 e0		 shl	 eax, 1
  04a6d	8b 8c 05 4c ff
	ff ff		 mov	 ecx, DWORD PTR _shadow_colour$8[ebp+eax]
  04a74	51		 push	 ecx
  04a75	6a 01		 push	 1
  04a77	8b 15 00 00 00
	00		 mov	 edx, DWORD PTR ?main_3d_env@@3PAUENV_3D@@A ; main_3d_env
  04a7d	52		 push	 edx
  04a7e	e8 00 00 00 00	 call	 ?add_3d_shadow_setting@@YGXPAUENV_3D@@W4WEATHERMODES@@UREAL_COLOUR@@M@Z ; add_3d_shadow_setting

; 579  : 		add_3d_shadow_setting ( main_3d_env, WEATHERMODE_DRY, shadow_colour[0], SUN_RISE_END_TIME );

  04a83	51		 push	 ecx
  04a84	f3 0f 10 05 00
	00 00 00	 movss	 xmm0, DWORD PTR __real@46fd2000
  04a8c	f3 0f 11 04 24	 movss	 DWORD PTR [esp], xmm0
  04a91	b8 04 00 00 00	 mov	 eax, 4
  04a96	6b c8 00	 imul	 ecx, eax, 0
  04a99	8b 94 0d 4c ff
	ff ff		 mov	 edx, DWORD PTR _shadow_colour$8[ebp+ecx]
  04aa0	52		 push	 edx
  04aa1	6a 01		 push	 1
  04aa3	a1 00 00 00 00	 mov	 eax, DWORD PTR ?main_3d_env@@3PAUENV_3D@@A ; main_3d_env
  04aa8	50		 push	 eax
  04aa9	e8 00 00 00 00	 call	 ?add_3d_shadow_setting@@YGXPAUENV_3D@@W4WEATHERMODES@@UREAL_COLOUR@@M@Z ; add_3d_shadow_setting

; 580  : 		add_3d_shadow_setting ( main_3d_env, WEATHERMODE_DRY, shadow_colour[0], MIDDAY_TIME );

  04aae	51		 push	 ecx
  04aaf	f3 0f 10 05 00
	00 00 00	 movss	 xmm0, DWORD PTR __real@4728c000
  04ab7	f3 0f 11 04 24	 movss	 DWORD PTR [esp], xmm0
  04abc	b8 04 00 00 00	 mov	 eax, 4
  04ac1	6b c8 00	 imul	 ecx, eax, 0
  04ac4	8b 94 0d 4c ff
	ff ff		 mov	 edx, DWORD PTR _shadow_colour$8[ebp+ecx]
  04acb	52		 push	 edx
  04acc	6a 01		 push	 1
  04ace	a1 00 00 00 00	 mov	 eax, DWORD PTR ?main_3d_env@@3PAUENV_3D@@A ; main_3d_env
  04ad3	50		 push	 eax
  04ad4	e8 00 00 00 00	 call	 ?add_3d_shadow_setting@@YGXPAUENV_3D@@W4WEATHERMODES@@UREAL_COLOUR@@M@Z ; add_3d_shadow_setting

; 581  : 		add_3d_shadow_setting ( main_3d_env, WEATHERMODE_DRY, shadow_colour[0], SUN_SET_START_TIME );

  04ad9	51		 push	 ecx
  04ada	f3 0f 10 05 00
	00 00 00	 movss	 xmm0, DWORD PTR __real@476f1000
  04ae2	f3 0f 11 04 24	 movss	 DWORD PTR [esp], xmm0
  04ae7	b8 04 00 00 00	 mov	 eax, 4
  04aec	6b c8 00	 imul	 ecx, eax, 0
  04aef	8b 94 0d 4c ff
	ff ff		 mov	 edx, DWORD PTR _shadow_colour$8[ebp+ecx]
  04af6	52		 push	 edx
  04af7	6a 01		 push	 1
  04af9	a1 00 00 00 00	 mov	 eax, DWORD PTR ?main_3d_env@@3PAUENV_3D@@A ; main_3d_env
  04afe	50		 push	 eax
  04aff	e8 00 00 00 00	 call	 ?add_3d_shadow_setting@@YGXPAUENV_3D@@W4WEATHERMODES@@UREAL_COLOUR@@M@Z ; add_3d_shadow_setting

; 582  : 		add_3d_shadow_setting ( main_3d_env, WEATHERMODE_DRY, shadow_colour[1], SUN_SET_END_TIME );

  04b04	51		 push	 ecx
  04b05	f3 0f 10 05 00
	00 00 00	 movss	 xmm0, DWORD PTR __real@47891c00
  04b0d	f3 0f 11 04 24	 movss	 DWORD PTR [esp], xmm0
  04b12	b8 04 00 00 00	 mov	 eax, 4
  04b17	c1 e0 00	 shl	 eax, 0
  04b1a	8b 8c 05 4c ff
	ff ff		 mov	 ecx, DWORD PTR _shadow_colour$8[ebp+eax]
  04b21	51		 push	 ecx
  04b22	6a 01		 push	 1
  04b24	8b 15 00 00 00
	00		 mov	 edx, DWORD PTR ?main_3d_env@@3PAUENV_3D@@A ; main_3d_env
  04b2a	52		 push	 edx
  04b2b	e8 00 00 00 00	 call	 ?add_3d_shadow_setting@@YGXPAUENV_3D@@W4WEATHERMODES@@UREAL_COLOUR@@M@Z ; add_3d_shadow_setting

; 583  : 		add_3d_shadow_setting ( main_3d_env, WEATHERMODE_DRY, shadow_colour[0], TWILIGHT_TIME );

  04b30	51		 push	 ecx
  04b31	f3 0f 10 05 00
	00 00 00	 movss	 xmm0, DWORD PTR __real@479ab000
  04b39	f3 0f 11 04 24	 movss	 DWORD PTR [esp], xmm0
  04b3e	b8 04 00 00 00	 mov	 eax, 4
  04b43	6b c8 00	 imul	 ecx, eax, 0
  04b46	8b 94 0d 4c ff
	ff ff		 mov	 edx, DWORD PTR _shadow_colour$8[ebp+ecx]
  04b4d	52		 push	 edx
  04b4e	6a 01		 push	 1
  04b50	a1 00 00 00 00	 mov	 eax, DWORD PTR ?main_3d_env@@3PAUENV_3D@@A ; main_3d_env
  04b55	50		 push	 eax
  04b56	e8 00 00 00 00	 call	 ?add_3d_shadow_setting@@YGXPAUENV_3D@@W4WEATHERMODES@@UREAL_COLOUR@@M@Z ; add_3d_shadow_setting

; 584  : 		add_3d_shadow_setting ( main_3d_env, WEATHERMODE_DRY, shadow_colour[0], MIDNIGHT_TIME );

  04b5b	51		 push	 ecx
  04b5c	0f 57 c0	 xorps	 xmm0, xmm0
  04b5f	f3 0f 11 04 24	 movss	 DWORD PTR [esp], xmm0
  04b64	b8 04 00 00 00	 mov	 eax, 4
  04b69	6b c8 00	 imul	 ecx, eax, 0
  04b6c	8b 94 0d 4c ff
	ff ff		 mov	 edx, DWORD PTR _shadow_colour$8[ebp+ecx]
  04b73	52		 push	 edx
  04b74	6a 01		 push	 1
  04b76	a1 00 00 00 00	 mov	 eax, DWORD PTR ?main_3d_env@@3PAUENV_3D@@A ; main_3d_env
  04b7b	50		 push	 eax
  04b7c	e8 00 00 00 00	 call	 ?add_3d_shadow_setting@@YGXPAUENV_3D@@W4WEATHERMODES@@UREAL_COLOUR@@M@Z ; add_3d_shadow_setting

; 585  : 		add_3d_shadow_setting ( main_3d_env, WEATHERMODE_DRY, shadow_colour[0], NIGHT_TIME );

  04b81	51		 push	 ecx
  04b82	f3 0f 10 05 00
	00 00 00	 movss	 xmm0, DWORD PTR __real@467d2000
  04b8a	f3 0f 11 04 24	 movss	 DWORD PTR [esp], xmm0
  04b8f	b8 04 00 00 00	 mov	 eax, 4
  04b94	6b c8 00	 imul	 ecx, eax, 0
  04b97	8b 94 0d 4c ff
	ff ff		 mov	 edx, DWORD PTR _shadow_colour$8[ebp+ecx]
  04b9e	52		 push	 edx
  04b9f	6a 01		 push	 1
  04ba1	a1 00 00 00 00	 mov	 eax, DWORD PTR ?main_3d_env@@3PAUENV_3D@@A ; main_3d_env
  04ba6	50		 push	 eax
  04ba7	e8 00 00 00 00	 call	 ?add_3d_shadow_setting@@YGXPAUENV_3D@@W4WEATHERMODES@@UREAL_COLOUR@@M@Z ; add_3d_shadow_setting

; 586  : 
; 587  : 		add_3d_shadow_setting ( main_3d_env, WEATHERMODE_LIGHT_RAIN, shadow_colour[0], SUN_RISE_START_TIME );

  04bac	51		 push	 ecx
  04bad	f3 0f 10 05 00
	00 00 00	 movss	 xmm0, DWORD PTR __real@46a8c000
  04bb5	f3 0f 11 04 24	 movss	 DWORD PTR [esp], xmm0
  04bba	b8 04 00 00 00	 mov	 eax, 4
  04bbf	6b c8 00	 imul	 ecx, eax, 0
  04bc2	8b 94 0d 4c ff
	ff ff		 mov	 edx, DWORD PTR _shadow_colour$8[ebp+ecx]
  04bc9	52		 push	 edx
  04bca	6a 02		 push	 2
  04bcc	a1 00 00 00 00	 mov	 eax, DWORD PTR ?main_3d_env@@3PAUENV_3D@@A ; main_3d_env
  04bd1	50		 push	 eax
  04bd2	e8 00 00 00 00	 call	 ?add_3d_shadow_setting@@YGXPAUENV_3D@@W4WEATHERMODES@@UREAL_COLOUR@@M@Z ; add_3d_shadow_setting

; 588  : 		add_3d_shadow_setting ( main_3d_env, WEATHERMODE_LIGHT_RAIN, shadow_colour[0], SUN_RISE_END_TIME );

  04bd7	51		 push	 ecx
  04bd8	f3 0f 10 05 00
	00 00 00	 movss	 xmm0, DWORD PTR __real@46fd2000
  04be0	f3 0f 11 04 24	 movss	 DWORD PTR [esp], xmm0
  04be5	b8 04 00 00 00	 mov	 eax, 4
  04bea	6b c8 00	 imul	 ecx, eax, 0
  04bed	8b 94 0d 4c ff
	ff ff		 mov	 edx, DWORD PTR _shadow_colour$8[ebp+ecx]
  04bf4	52		 push	 edx
  04bf5	6a 02		 push	 2
  04bf7	a1 00 00 00 00	 mov	 eax, DWORD PTR ?main_3d_env@@3PAUENV_3D@@A ; main_3d_env
  04bfc	50		 push	 eax
  04bfd	e8 00 00 00 00	 call	 ?add_3d_shadow_setting@@YGXPAUENV_3D@@W4WEATHERMODES@@UREAL_COLOUR@@M@Z ; add_3d_shadow_setting

; 589  : 		add_3d_shadow_setting ( main_3d_env, WEATHERMODE_LIGHT_RAIN, shadow_colour[0], MIDDAY_TIME );

  04c02	51		 push	 ecx
  04c03	f3 0f 10 05 00
	00 00 00	 movss	 xmm0, DWORD PTR __real@4728c000
  04c0b	f3 0f 11 04 24	 movss	 DWORD PTR [esp], xmm0
  04c10	b8 04 00 00 00	 mov	 eax, 4
  04c15	6b c8 00	 imul	 ecx, eax, 0
  04c18	8b 94 0d 4c ff
	ff ff		 mov	 edx, DWORD PTR _shadow_colour$8[ebp+ecx]
  04c1f	52		 push	 edx
  04c20	6a 02		 push	 2
  04c22	a1 00 00 00 00	 mov	 eax, DWORD PTR ?main_3d_env@@3PAUENV_3D@@A ; main_3d_env
  04c27	50		 push	 eax
  04c28	e8 00 00 00 00	 call	 ?add_3d_shadow_setting@@YGXPAUENV_3D@@W4WEATHERMODES@@UREAL_COLOUR@@M@Z ; add_3d_shadow_setting

; 590  : 		add_3d_shadow_setting ( main_3d_env, WEATHERMODE_LIGHT_RAIN, shadow_colour[0], SUN_SET_START_TIME );

  04c2d	51		 push	 ecx
  04c2e	f3 0f 10 05 00
	00 00 00	 movss	 xmm0, DWORD PTR __real@476f1000
  04c36	f3 0f 11 04 24	 movss	 DWORD PTR [esp], xmm0
  04c3b	b8 04 00 00 00	 mov	 eax, 4
  04c40	6b c8 00	 imul	 ecx, eax, 0
  04c43	8b 94 0d 4c ff
	ff ff		 mov	 edx, DWORD PTR _shadow_colour$8[ebp+ecx]
  04c4a	52		 push	 edx
  04c4b	6a 02		 push	 2
  04c4d	a1 00 00 00 00	 mov	 eax, DWORD PTR ?main_3d_env@@3PAUENV_3D@@A ; main_3d_env
  04c52	50		 push	 eax
  04c53	e8 00 00 00 00	 call	 ?add_3d_shadow_setting@@YGXPAUENV_3D@@W4WEATHERMODES@@UREAL_COLOUR@@M@Z ; add_3d_shadow_setting

; 591  : 		add_3d_shadow_setting ( main_3d_env, WEATHERMODE_LIGHT_RAIN, shadow_colour[0], SUN_SET_END_TIME );

  04c58	51		 push	 ecx
  04c59	f3 0f 10 05 00
	00 00 00	 movss	 xmm0, DWORD PTR __real@47891c00
  04c61	f3 0f 11 04 24	 movss	 DWORD PTR [esp], xmm0
  04c66	b8 04 00 00 00	 mov	 eax, 4
  04c6b	6b c8 00	 imul	 ecx, eax, 0
  04c6e	8b 94 0d 4c ff
	ff ff		 mov	 edx, DWORD PTR _shadow_colour$8[ebp+ecx]
  04c75	52		 push	 edx
  04c76	6a 02		 push	 2
  04c78	a1 00 00 00 00	 mov	 eax, DWORD PTR ?main_3d_env@@3PAUENV_3D@@A ; main_3d_env
  04c7d	50		 push	 eax
  04c7e	e8 00 00 00 00	 call	 ?add_3d_shadow_setting@@YGXPAUENV_3D@@W4WEATHERMODES@@UREAL_COLOUR@@M@Z ; add_3d_shadow_setting

; 592  : 		add_3d_shadow_setting ( main_3d_env, WEATHERMODE_LIGHT_RAIN, shadow_colour[0], TWILIGHT_TIME );

  04c83	51		 push	 ecx
  04c84	f3 0f 10 05 00
	00 00 00	 movss	 xmm0, DWORD PTR __real@479ab000
  04c8c	f3 0f 11 04 24	 movss	 DWORD PTR [esp], xmm0
  04c91	b8 04 00 00 00	 mov	 eax, 4
  04c96	6b c8 00	 imul	 ecx, eax, 0
  04c99	8b 94 0d 4c ff
	ff ff		 mov	 edx, DWORD PTR _shadow_colour$8[ebp+ecx]
  04ca0	52		 push	 edx
  04ca1	6a 02		 push	 2
  04ca3	a1 00 00 00 00	 mov	 eax, DWORD PTR ?main_3d_env@@3PAUENV_3D@@A ; main_3d_env
  04ca8	50		 push	 eax
  04ca9	e8 00 00 00 00	 call	 ?add_3d_shadow_setting@@YGXPAUENV_3D@@W4WEATHERMODES@@UREAL_COLOUR@@M@Z ; add_3d_shadow_setting

; 593  : 		add_3d_shadow_setting ( main_3d_env, WEATHERMODE_LIGHT_RAIN, shadow_colour[0], MIDNIGHT_TIME );

  04cae	51		 push	 ecx
  04caf	0f 57 c0	 xorps	 xmm0, xmm0
  04cb2	f3 0f 11 04 24	 movss	 DWORD PTR [esp], xmm0
  04cb7	b8 04 00 00 00	 mov	 eax, 4
  04cbc	6b c8 00	 imul	 ecx, eax, 0
  04cbf	8b 94 0d 4c ff
	ff ff		 mov	 edx, DWORD PTR _shadow_colour$8[ebp+ecx]
  04cc6	52		 push	 edx
  04cc7	6a 02		 push	 2
  04cc9	a1 00 00 00 00	 mov	 eax, DWORD PTR ?main_3d_env@@3PAUENV_3D@@A ; main_3d_env
  04cce	50		 push	 eax
  04ccf	e8 00 00 00 00	 call	 ?add_3d_shadow_setting@@YGXPAUENV_3D@@W4WEATHERMODES@@UREAL_COLOUR@@M@Z ; add_3d_shadow_setting

; 594  : 		add_3d_shadow_setting ( main_3d_env, WEATHERMODE_LIGHT_RAIN, shadow_colour[0], NIGHT_TIME );

  04cd4	51		 push	 ecx
  04cd5	f3 0f 10 05 00
	00 00 00	 movss	 xmm0, DWORD PTR __real@467d2000
  04cdd	f3 0f 11 04 24	 movss	 DWORD PTR [esp], xmm0
  04ce2	b8 04 00 00 00	 mov	 eax, 4
  04ce7	6b c8 00	 imul	 ecx, eax, 0
  04cea	8b 94 0d 4c ff
	ff ff		 mov	 edx, DWORD PTR _shadow_colour$8[ebp+ecx]
  04cf1	52		 push	 edx
  04cf2	6a 02		 push	 2
  04cf4	a1 00 00 00 00	 mov	 eax, DWORD PTR ?main_3d_env@@3PAUENV_3D@@A ; main_3d_env
  04cf9	50		 push	 eax
  04cfa	e8 00 00 00 00	 call	 ?add_3d_shadow_setting@@YGXPAUENV_3D@@W4WEATHERMODES@@UREAL_COLOUR@@M@Z ; add_3d_shadow_setting

; 595  : 
; 596  : 		add_3d_shadow_setting ( main_3d_env, WEATHERMODE_HEAVY_RAIN, shadow_colour[0], SUN_RISE_START_TIME );

  04cff	51		 push	 ecx
  04d00	f3 0f 10 05 00
	00 00 00	 movss	 xmm0, DWORD PTR __real@46a8c000
  04d08	f3 0f 11 04 24	 movss	 DWORD PTR [esp], xmm0
  04d0d	b8 04 00 00 00	 mov	 eax, 4
  04d12	6b c8 00	 imul	 ecx, eax, 0
  04d15	8b 94 0d 4c ff
	ff ff		 mov	 edx, DWORD PTR _shadow_colour$8[ebp+ecx]
  04d1c	52		 push	 edx
  04d1d	6a 03		 push	 3
  04d1f	a1 00 00 00 00	 mov	 eax, DWORD PTR ?main_3d_env@@3PAUENV_3D@@A ; main_3d_env
  04d24	50		 push	 eax
  04d25	e8 00 00 00 00	 call	 ?add_3d_shadow_setting@@YGXPAUENV_3D@@W4WEATHERMODES@@UREAL_COLOUR@@M@Z ; add_3d_shadow_setting

; 597  : 		add_3d_shadow_setting ( main_3d_env, WEATHERMODE_HEAVY_RAIN, shadow_colour[0], SUN_RISE_END_TIME );

  04d2a	51		 push	 ecx
  04d2b	f3 0f 10 05 00
	00 00 00	 movss	 xmm0, DWORD PTR __real@46fd2000
  04d33	f3 0f 11 04 24	 movss	 DWORD PTR [esp], xmm0
  04d38	b8 04 00 00 00	 mov	 eax, 4
  04d3d	6b c8 00	 imul	 ecx, eax, 0
  04d40	8b 94 0d 4c ff
	ff ff		 mov	 edx, DWORD PTR _shadow_colour$8[ebp+ecx]
  04d47	52		 push	 edx
  04d48	6a 03		 push	 3
  04d4a	a1 00 00 00 00	 mov	 eax, DWORD PTR ?main_3d_env@@3PAUENV_3D@@A ; main_3d_env
  04d4f	50		 push	 eax
  04d50	e8 00 00 00 00	 call	 ?add_3d_shadow_setting@@YGXPAUENV_3D@@W4WEATHERMODES@@UREAL_COLOUR@@M@Z ; add_3d_shadow_setting

; 598  : 		add_3d_shadow_setting ( main_3d_env, WEATHERMODE_HEAVY_RAIN, shadow_colour[0], MIDDAY_TIME );

  04d55	51		 push	 ecx
  04d56	f3 0f 10 05 00
	00 00 00	 movss	 xmm0, DWORD PTR __real@4728c000
  04d5e	f3 0f 11 04 24	 movss	 DWORD PTR [esp], xmm0
  04d63	b8 04 00 00 00	 mov	 eax, 4
  04d68	6b c8 00	 imul	 ecx, eax, 0
  04d6b	8b 94 0d 4c ff
	ff ff		 mov	 edx, DWORD PTR _shadow_colour$8[ebp+ecx]
  04d72	52		 push	 edx
  04d73	6a 03		 push	 3
  04d75	a1 00 00 00 00	 mov	 eax, DWORD PTR ?main_3d_env@@3PAUENV_3D@@A ; main_3d_env
  04d7a	50		 push	 eax
  04d7b	e8 00 00 00 00	 call	 ?add_3d_shadow_setting@@YGXPAUENV_3D@@W4WEATHERMODES@@UREAL_COLOUR@@M@Z ; add_3d_shadow_setting

; 599  : 		add_3d_shadow_setting ( main_3d_env, WEATHERMODE_HEAVY_RAIN, shadow_colour[0], SUN_SET_START_TIME );

  04d80	51		 push	 ecx
  04d81	f3 0f 10 05 00
	00 00 00	 movss	 xmm0, DWORD PTR __real@476f1000
  04d89	f3 0f 11 04 24	 movss	 DWORD PTR [esp], xmm0
  04d8e	b8 04 00 00 00	 mov	 eax, 4
  04d93	6b c8 00	 imul	 ecx, eax, 0
  04d96	8b 94 0d 4c ff
	ff ff		 mov	 edx, DWORD PTR _shadow_colour$8[ebp+ecx]
  04d9d	52		 push	 edx
  04d9e	6a 03		 push	 3
  04da0	a1 00 00 00 00	 mov	 eax, DWORD PTR ?main_3d_env@@3PAUENV_3D@@A ; main_3d_env
  04da5	50		 push	 eax
  04da6	e8 00 00 00 00	 call	 ?add_3d_shadow_setting@@YGXPAUENV_3D@@W4WEATHERMODES@@UREAL_COLOUR@@M@Z ; add_3d_shadow_setting

; 600  : 		add_3d_shadow_setting ( main_3d_env, WEATHERMODE_HEAVY_RAIN, shadow_colour[0], SUN_SET_END_TIME );

  04dab	51		 push	 ecx
  04dac	f3 0f 10 05 00
	00 00 00	 movss	 xmm0, DWORD PTR __real@47891c00
  04db4	f3 0f 11 04 24	 movss	 DWORD PTR [esp], xmm0
  04db9	b8 04 00 00 00	 mov	 eax, 4
  04dbe	6b c8 00	 imul	 ecx, eax, 0
  04dc1	8b 94 0d 4c ff
	ff ff		 mov	 edx, DWORD PTR _shadow_colour$8[ebp+ecx]
  04dc8	52		 push	 edx
  04dc9	6a 03		 push	 3
  04dcb	a1 00 00 00 00	 mov	 eax, DWORD PTR ?main_3d_env@@3PAUENV_3D@@A ; main_3d_env
  04dd0	50		 push	 eax
  04dd1	e8 00 00 00 00	 call	 ?add_3d_shadow_setting@@YGXPAUENV_3D@@W4WEATHERMODES@@UREAL_COLOUR@@M@Z ; add_3d_shadow_setting

; 601  : 		add_3d_shadow_setting ( main_3d_env, WEATHERMODE_HEAVY_RAIN, shadow_colour[0], TWILIGHT_TIME );

  04dd6	51		 push	 ecx
  04dd7	f3 0f 10 05 00
	00 00 00	 movss	 xmm0, DWORD PTR __real@479ab000
  04ddf	f3 0f 11 04 24	 movss	 DWORD PTR [esp], xmm0
  04de4	b8 04 00 00 00	 mov	 eax, 4
  04de9	6b c8 00	 imul	 ecx, eax, 0
  04dec	8b 94 0d 4c ff
	ff ff		 mov	 edx, DWORD PTR _shadow_colour$8[ebp+ecx]
  04df3	52		 push	 edx
  04df4	6a 03		 push	 3
  04df6	a1 00 00 00 00	 mov	 eax, DWORD PTR ?main_3d_env@@3PAUENV_3D@@A ; main_3d_env
  04dfb	50		 push	 eax
  04dfc	e8 00 00 00 00	 call	 ?add_3d_shadow_setting@@YGXPAUENV_3D@@W4WEATHERMODES@@UREAL_COLOUR@@M@Z ; add_3d_shadow_setting

; 602  : 		add_3d_shadow_setting ( main_3d_env, WEATHERMODE_HEAVY_RAIN, shadow_colour[0], MIDNIGHT_TIME );

  04e01	51		 push	 ecx
  04e02	0f 57 c0	 xorps	 xmm0, xmm0
  04e05	f3 0f 11 04 24	 movss	 DWORD PTR [esp], xmm0
  04e0a	b8 04 00 00 00	 mov	 eax, 4
  04e0f	6b c8 00	 imul	 ecx, eax, 0
  04e12	8b 94 0d 4c ff
	ff ff		 mov	 edx, DWORD PTR _shadow_colour$8[ebp+ecx]
  04e19	52		 push	 edx
  04e1a	6a 03		 push	 3
  04e1c	a1 00 00 00 00	 mov	 eax, DWORD PTR ?main_3d_env@@3PAUENV_3D@@A ; main_3d_env
  04e21	50		 push	 eax
  04e22	e8 00 00 00 00	 call	 ?add_3d_shadow_setting@@YGXPAUENV_3D@@W4WEATHERMODES@@UREAL_COLOUR@@M@Z ; add_3d_shadow_setting

; 603  : 		add_3d_shadow_setting ( main_3d_env, WEATHERMODE_HEAVY_RAIN, shadow_colour[0], NIGHT_TIME );

  04e27	51		 push	 ecx
  04e28	f3 0f 10 05 00
	00 00 00	 movss	 xmm0, DWORD PTR __real@467d2000
  04e30	f3 0f 11 04 24	 movss	 DWORD PTR [esp], xmm0
  04e35	b8 04 00 00 00	 mov	 eax, 4
  04e3a	6b c8 00	 imul	 ecx, eax, 0
  04e3d	8b 94 0d 4c ff
	ff ff		 mov	 edx, DWORD PTR _shadow_colour$8[ebp+ecx]
  04e44	52		 push	 edx
  04e45	6a 03		 push	 3
  04e47	a1 00 00 00 00	 mov	 eax, DWORD PTR ?main_3d_env@@3PAUENV_3D@@A ; main_3d_env
  04e4c	50		 push	 eax
  04e4d	e8 00 00 00 00	 call	 ?add_3d_shadow_setting@@YGXPAUENV_3D@@W4WEATHERMODES@@UREAL_COLOUR@@M@Z ; add_3d_shadow_setting

; 604  : 
; 605  : 		add_3d_shadow_setting ( main_3d_env, WEATHERMODE_SNOW, shadow_colour[0], SUN_RISE_START_TIME );

  04e52	51		 push	 ecx
  04e53	f3 0f 10 05 00
	00 00 00	 movss	 xmm0, DWORD PTR __real@46a8c000
  04e5b	f3 0f 11 04 24	 movss	 DWORD PTR [esp], xmm0
  04e60	b8 04 00 00 00	 mov	 eax, 4
  04e65	6b c8 00	 imul	 ecx, eax, 0
  04e68	8b 94 0d 4c ff
	ff ff		 mov	 edx, DWORD PTR _shadow_colour$8[ebp+ecx]
  04e6f	52		 push	 edx
  04e70	6a 04		 push	 4
  04e72	a1 00 00 00 00	 mov	 eax, DWORD PTR ?main_3d_env@@3PAUENV_3D@@A ; main_3d_env
  04e77	50		 push	 eax
  04e78	e8 00 00 00 00	 call	 ?add_3d_shadow_setting@@YGXPAUENV_3D@@W4WEATHERMODES@@UREAL_COLOUR@@M@Z ; add_3d_shadow_setting

; 606  : 		add_3d_shadow_setting ( main_3d_env, WEATHERMODE_SNOW, shadow_colour[0], SUN_RISE_END_TIME );

  04e7d	51		 push	 ecx
  04e7e	f3 0f 10 05 00
	00 00 00	 movss	 xmm0, DWORD PTR __real@46fd2000
  04e86	f3 0f 11 04 24	 movss	 DWORD PTR [esp], xmm0
  04e8b	b8 04 00 00 00	 mov	 eax, 4
  04e90	6b c8 00	 imul	 ecx, eax, 0
  04e93	8b 94 0d 4c ff
	ff ff		 mov	 edx, DWORD PTR _shadow_colour$8[ebp+ecx]
  04e9a	52		 push	 edx
  04e9b	6a 04		 push	 4
  04e9d	a1 00 00 00 00	 mov	 eax, DWORD PTR ?main_3d_env@@3PAUENV_3D@@A ; main_3d_env
  04ea2	50		 push	 eax
  04ea3	e8 00 00 00 00	 call	 ?add_3d_shadow_setting@@YGXPAUENV_3D@@W4WEATHERMODES@@UREAL_COLOUR@@M@Z ; add_3d_shadow_setting

; 607  : 		add_3d_shadow_setting ( main_3d_env, WEATHERMODE_SNOW, shadow_colour[0], MIDDAY_TIME );

  04ea8	51		 push	 ecx
  04ea9	f3 0f 10 05 00
	00 00 00	 movss	 xmm0, DWORD PTR __real@4728c000
  04eb1	f3 0f 11 04 24	 movss	 DWORD PTR [esp], xmm0
  04eb6	b8 04 00 00 00	 mov	 eax, 4
  04ebb	6b c8 00	 imul	 ecx, eax, 0
  04ebe	8b 94 0d 4c ff
	ff ff		 mov	 edx, DWORD PTR _shadow_colour$8[ebp+ecx]
  04ec5	52		 push	 edx
  04ec6	6a 04		 push	 4
  04ec8	a1 00 00 00 00	 mov	 eax, DWORD PTR ?main_3d_env@@3PAUENV_3D@@A ; main_3d_env
  04ecd	50		 push	 eax
  04ece	e8 00 00 00 00	 call	 ?add_3d_shadow_setting@@YGXPAUENV_3D@@W4WEATHERMODES@@UREAL_COLOUR@@M@Z ; add_3d_shadow_setting

; 608  : 		add_3d_shadow_setting ( main_3d_env, WEATHERMODE_SNOW, shadow_colour[0], SUN_SET_START_TIME );

  04ed3	51		 push	 ecx
  04ed4	f3 0f 10 05 00
	00 00 00	 movss	 xmm0, DWORD PTR __real@476f1000
  04edc	f3 0f 11 04 24	 movss	 DWORD PTR [esp], xmm0
  04ee1	b8 04 00 00 00	 mov	 eax, 4
  04ee6	6b c8 00	 imul	 ecx, eax, 0
  04ee9	8b 94 0d 4c ff
	ff ff		 mov	 edx, DWORD PTR _shadow_colour$8[ebp+ecx]
  04ef0	52		 push	 edx
  04ef1	6a 04		 push	 4
  04ef3	a1 00 00 00 00	 mov	 eax, DWORD PTR ?main_3d_env@@3PAUENV_3D@@A ; main_3d_env
  04ef8	50		 push	 eax
  04ef9	e8 00 00 00 00	 call	 ?add_3d_shadow_setting@@YGXPAUENV_3D@@W4WEATHERMODES@@UREAL_COLOUR@@M@Z ; add_3d_shadow_setting

; 609  : 		add_3d_shadow_setting ( main_3d_env, WEATHERMODE_SNOW, shadow_colour[0], SUN_SET_END_TIME );

  04efe	51		 push	 ecx
  04eff	f3 0f 10 05 00
	00 00 00	 movss	 xmm0, DWORD PTR __real@47891c00
  04f07	f3 0f 11 04 24	 movss	 DWORD PTR [esp], xmm0
  04f0c	b8 04 00 00 00	 mov	 eax, 4
  04f11	6b c8 00	 imul	 ecx, eax, 0
  04f14	8b 94 0d 4c ff
	ff ff		 mov	 edx, DWORD PTR _shadow_colour$8[ebp+ecx]
  04f1b	52		 push	 edx
  04f1c	6a 04		 push	 4
  04f1e	a1 00 00 00 00	 mov	 eax, DWORD PTR ?main_3d_env@@3PAUENV_3D@@A ; main_3d_env
  04f23	50		 push	 eax
  04f24	e8 00 00 00 00	 call	 ?add_3d_shadow_setting@@YGXPAUENV_3D@@W4WEATHERMODES@@UREAL_COLOUR@@M@Z ; add_3d_shadow_setting

; 610  : 		add_3d_shadow_setting ( main_3d_env, WEATHERMODE_SNOW, shadow_colour[0], TWILIGHT_TIME );

  04f29	51		 push	 ecx
  04f2a	f3 0f 10 05 00
	00 00 00	 movss	 xmm0, DWORD PTR __real@479ab000
  04f32	f3 0f 11 04 24	 movss	 DWORD PTR [esp], xmm0
  04f37	b8 04 00 00 00	 mov	 eax, 4
  04f3c	6b c8 00	 imul	 ecx, eax, 0
  04f3f	8b 94 0d 4c ff
	ff ff		 mov	 edx, DWORD PTR _shadow_colour$8[ebp+ecx]
  04f46	52		 push	 edx
  04f47	6a 04		 push	 4
  04f49	a1 00 00 00 00	 mov	 eax, DWORD PTR ?main_3d_env@@3PAUENV_3D@@A ; main_3d_env
  04f4e	50		 push	 eax
  04f4f	e8 00 00 00 00	 call	 ?add_3d_shadow_setting@@YGXPAUENV_3D@@W4WEATHERMODES@@UREAL_COLOUR@@M@Z ; add_3d_shadow_setting

; 611  : 		add_3d_shadow_setting ( main_3d_env, WEATHERMODE_SNOW, shadow_colour[0], MIDNIGHT_TIME );

  04f54	51		 push	 ecx
  04f55	0f 57 c0	 xorps	 xmm0, xmm0
  04f58	f3 0f 11 04 24	 movss	 DWORD PTR [esp], xmm0
  04f5d	b8 04 00 00 00	 mov	 eax, 4
  04f62	6b c8 00	 imul	 ecx, eax, 0
  04f65	8b 94 0d 4c ff
	ff ff		 mov	 edx, DWORD PTR _shadow_colour$8[ebp+ecx]
  04f6c	52		 push	 edx
  04f6d	6a 04		 push	 4
  04f6f	a1 00 00 00 00	 mov	 eax, DWORD PTR ?main_3d_env@@3PAUENV_3D@@A ; main_3d_env
  04f74	50		 push	 eax
  04f75	e8 00 00 00 00	 call	 ?add_3d_shadow_setting@@YGXPAUENV_3D@@W4WEATHERMODES@@UREAL_COLOUR@@M@Z ; add_3d_shadow_setting

; 612  : 		add_3d_shadow_setting ( main_3d_env, WEATHERMODE_SNOW, shadow_colour[0], NIGHT_TIME );

  04f7a	51		 push	 ecx
  04f7b	f3 0f 10 05 00
	00 00 00	 movss	 xmm0, DWORD PTR __real@467d2000
  04f83	f3 0f 11 04 24	 movss	 DWORD PTR [esp], xmm0
  04f88	b8 04 00 00 00	 mov	 eax, 4
  04f8d	6b c8 00	 imul	 ecx, eax, 0
  04f90	8b 94 0d 4c ff
	ff ff		 mov	 edx, DWORD PTR _shadow_colour$8[ebp+ecx]
  04f97	52		 push	 edx
  04f98	6a 04		 push	 4
  04f9a	a1 00 00 00 00	 mov	 eax, DWORD PTR ?main_3d_env@@3PAUENV_3D@@A ; main_3d_env
  04f9f	50		 push	 eax
  04fa0	e8 00 00 00 00	 call	 ?add_3d_shadow_setting@@YGXPAUENV_3D@@W4WEATHERMODES@@UREAL_COLOUR@@M@Z ; add_3d_shadow_setting

; 613  : 	}
; 614  : 
; 615  : 	//
; 616  : 	// Set the time of day for the environment
; 617  : 	//
; 618  : 
; 619  : 	set_3d_time_of_day ( main_3d_env, ( 12 * ONE_HOUR ) );

  04fa5	51		 push	 ecx
  04fa6	f3 0f 10 05 00
	00 00 00	 movss	 xmm0, DWORD PTR __real@4728c000
  04fae	f3 0f 11 04 24	 movss	 DWORD PTR [esp], xmm0
  04fb3	a1 00 00 00 00	 mov	 eax, DWORD PTR ?main_3d_env@@3PAUENV_3D@@A ; main_3d_env
  04fb8	50		 push	 eax
  04fb9	e8 00 00 00 00	 call	 ?set_3d_time_of_day@@YGXPAUENV_3D@@M@Z ; set_3d_time_of_day

; 620  : 
; 621  : 	//
; 622  : 	// Set the initial weather mode
; 623  : 	//
; 624  : 
; 625  : 	set_3d_weathermode ( main_3d_env, WEATHERMODE_DRY );

  04fbe	6a 01		 push	 1
  04fc0	a1 00 00 00 00	 mov	 eax, DWORD PTR ?main_3d_env@@3PAUENV_3D@@A ; main_3d_env
  04fc5	50		 push	 eax
  04fc6	e8 00 00 00 00	 call	 ?set_3d_weathermode@@YGXPAUENV_3D@@W4WEATHERMODES@@@Z ; set_3d_weathermode

; 626  : 
; 627  : 	set_3d_target_weathermode ( main_3d_env, WEATHERMODE_DRY );

  04fcb	6a 01		 push	 1
  04fcd	a1 00 00 00 00	 mov	 eax, DWORD PTR ?main_3d_env@@3PAUENV_3D@@A ; main_3d_env
  04fd2	50		 push	 eax
  04fd3	e8 00 00 00 00	 call	 ?set_3d_target_weathermode@@YGXPAUENV_3D@@W4WEATHERMODES@@@Z ; set_3d_target_weathermode

; 628  : 
; 629  : 	set_3d_target_weathermode_transitional_status ( main_3d_env, 0 );

  04fd8	51		 push	 ecx
  04fd9	0f 57 c0	 xorps	 xmm0, xmm0
  04fdc	f3 0f 11 04 24	 movss	 DWORD PTR [esp], xmm0
  04fe1	a1 00 00 00 00	 mov	 eax, DWORD PTR ?main_3d_env@@3PAUENV_3D@@A ; main_3d_env
  04fe6	50		 push	 eax
  04fe7	e8 00 00 00 00	 call	 ?set_3d_target_weathermode_transitional_status@@YGXPAUENV_3D@@M@Z ; set_3d_target_weathermode_transitional_status

; 630  : 
; 631  : 	//
; 632  : 	// Sort out the initial fog values
; 633  : 	//
; 634  : 
; 635  : 	set_3d_fogmode ( main_3d_env, FOGMODE_ON_AUTOMATIC );

  04fec	6a 01		 push	 1
  04fee	a1 00 00 00 00	 mov	 eax, DWORD PTR ?main_3d_env@@3PAUENV_3D@@A ; main_3d_env
  04ff3	50		 push	 eax
  04ff4	e8 00 00 00 00	 call	 ?set_3d_fogmode@@YGXPAUENV_3D@@W4FOGMODES@@@Z ; set_3d_fogmode

; 636  : 
; 637  : 	set_3d_fog_distances ( main_3d_env, 0.0, 10000.0 );

  04ff9	51		 push	 ecx
  04ffa	f3 0f 10 05 00
	00 00 00	 movss	 xmm0, DWORD PTR __real@461c4000
  05002	f3 0f 11 04 24	 movss	 DWORD PTR [esp], xmm0
  05007	51		 push	 ecx
  05008	0f 57 c0	 xorps	 xmm0, xmm0
  0500b	f3 0f 11 04 24	 movss	 DWORD PTR [esp], xmm0
  05010	a1 00 00 00 00	 mov	 eax, DWORD PTR ?main_3d_env@@3PAUENV_3D@@A ; main_3d_env
  05015	50		 push	 eax
  05016	e8 00 00 00 00	 call	 ?set_3d_fog_distances@@YGXPAUENV_3D@@MM@Z ; set_3d_fog_distances

; 638  : 
; 639  : 	//
; 640  : 	// Initialise the weather conditions
; 641  : 	//
; 642  : 
; 643  : 	{
; 644  : 
; 645  : 		vec3d
; 646  : 			position;
; 647  : 
; 648  : 		position.x = 0;

  0501b	0f 57 c0	 xorps	 xmm0, xmm0
  0501e	f3 0f 11 85 40
	ff ff ff	 movss	 DWORD PTR _position$7[ebp], xmm0

; 649  : 		position.y = 0;

  05026	0f 57 c0	 xorps	 xmm0, xmm0
  05029	f3 0f 11 85 44
	ff ff ff	 movss	 DWORD PTR _position$7[ebp+4], xmm0

; 650  : 		position.z = 0;

  05031	0f 57 c0	 xorps	 xmm0, xmm0
  05034	f3 0f 11 85 48
	ff ff ff	 movss	 DWORD PTR _position$7[ebp+8], xmm0

; 651  : 
; 652  : 		initialise_3d_rain ( 12 * ONE_HOUR, &position );

  0503c	8d 85 40 ff ff
	ff		 lea	 eax, DWORD PTR _position$7[ebp]
  05042	50		 push	 eax
  05043	51		 push	 ecx
  05044	f3 0f 10 05 00
	00 00 00	 movss	 xmm0, DWORD PTR __real@4728c000
  0504c	f3 0f 11 04 24	 movss	 DWORD PTR [esp], xmm0
  05051	e8 00 00 00 00	 call	 ?initialise_3d_rain@@YGXMPAUVEC3D@@@Z ; initialise_3d_rain

; 653  : 
; 654  : 		set_3d_rain_speed ( 64 );

  05056	51		 push	 ecx
  05057	f3 0f 10 05 00
	00 00 00	 movss	 xmm0, DWORD PTR __real@42800000
  0505f	f3 0f 11 04 24	 movss	 DWORD PTR [esp], xmm0
  05064	e8 00 00 00 00	 call	 ?set_3d_rain_speed@@YGXM@Z ; set_3d_rain_speed

; 655  : 
; 656  : 		position.x = 0;

  05069	0f 57 c0	 xorps	 xmm0, xmm0
  0506c	f3 0f 11 85 40
	ff ff ff	 movss	 DWORD PTR _position$7[ebp], xmm0

; 657  : 		position.y = -1;

  05074	f3 0f 10 05 00
	00 00 00	 movss	 xmm0, DWORD PTR __real@bf800000
  0507c	f3 0f 11 85 44
	ff ff ff	 movss	 DWORD PTR _position$7[ebp+4], xmm0

; 658  : 		position.z = 0;

  05084	0f 57 c0	 xorps	 xmm0, xmm0
  05087	f3 0f 11 85 48
	ff ff ff	 movss	 DWORD PTR _position$7[ebp+8], xmm0

; 659  : 
; 660  : 		set_3d_rain_wind ( &position, 0 );

  0508f	51		 push	 ecx
  05090	0f 57 c0	 xorps	 xmm0, xmm0
  05093	f3 0f 11 04 24	 movss	 DWORD PTR [esp], xmm0
  05098	8d 85 40 ff ff
	ff		 lea	 eax, DWORD PTR _position$7[ebp]
  0509e	50		 push	 eax
  0509f	e8 00 00 00 00	 call	 ?set_3d_rain_wind@@YGXPAUVEC3D@@M@Z ; set_3d_rain_wind

; 661  : 
; 662  : 		set_3d_snow_texture ( TEXTURE_INDEX_SNOW_1 );

  050a4	68 ad 06 00 00	 push	 1709			; 000006adH
  050a9	e8 00 00 00 00	 call	 ?set_3d_snow_texture@@YGXH@Z ; set_3d_snow_texture

; 663  : 	}
; 664  : 
; 665  : 	//
; 666  : 	// initialise viewpoint
; 667  : 	//
; 668  : 
; 669  : 	get_3d_transformation_matrix (main_vp.attitude, 0.0, 0.0, 0.0);

  050ae	51		 push	 ecx
  050af	0f 57 c0	 xorps	 xmm0, xmm0
  050b2	f3 0f 11 04 24	 movss	 DWORD PTR [esp], xmm0
  050b7	51		 push	 ecx
  050b8	0f 57 c0	 xorps	 xmm0, xmm0
  050bb	f3 0f 11 04 24	 movss	 DWORD PTR [esp], xmm0
  050c0	51		 push	 ecx
  050c1	0f 57 c0	 xorps	 xmm0, xmm0
  050c4	f3 0f 11 04 24	 movss	 DWORD PTR [esp], xmm0
  050c9	68 0c 00 00 00	 push	 OFFSET ?main_vp@@3UVIEWPOINT@@A+12
  050ce	e8 00 00 00 00	 call	 ?get_3d_transformation_matrix@@YGXQAY02MMMM@Z ; get_3d_transformation_matrix

; 670  : 
; 671  : 	main_vp.x = MID_MAP_X;

  050d3	f3 0f 10 05 30
	00 00 00	 movss	 xmm0, DWORD PTR ?world_map@@3UWORLD_MAP_DATA@@A+48
  050db	f3 0f 11 05 00
	00 00 00	 movss	 DWORD PTR ?main_vp@@3UVIEWPOINT@@A, xmm0

; 672  : 	main_vp.z = MID_MAP_Z;

  050e3	f3 0f 10 05 38
	00 00 00	 movss	 xmm0, DWORD PTR ?world_map@@3UWORLD_MAP_DATA@@A+56
  050eb	f3 0f 11 05 08
	00 00 00	 movss	 DWORD PTR ?main_vp@@3UVIEWPOINT@@A+8, xmm0

; 673  : 	main_vp.y = MID_MAP_Y;

  050f3	f3 0f 10 05 34
	00 00 00	 movss	 xmm0, DWORD PTR ?world_map@@3UWORLD_MAP_DATA@@A+52
  050fb	f3 0f 11 05 04
	00 00 00	 movss	 DWORD PTR ?main_vp@@3UVIEWPOINT@@A+4, xmm0

; 674  : 
; 675  : 	set_3d_viewpoint (main_3d_env, &main_vp);

  05103	68 00 00 00 00	 push	 OFFSET ?main_vp@@3UVIEWPOINT@@A ; main_vp
  05108	a1 00 00 00 00	 mov	 eax, DWORD PTR ?main_3d_env@@3PAUENV_3D@@A ; main_3d_env
  0510d	50		 push	 eax
  0510e	e8 00 00 00 00	 call	 ?set_3d_viewpoint@@YGXPAUENV_3D@@PAUVIEWPOINT@@@Z ; set_3d_viewpoint

; 676  : 
; 677  : 	//
; 678  : 	// Initialise a second 3d environment - this time with just one main light, and ambient light
; 679  : 	//
; 680  : 
; 681  : 	main_3d_single_light_env = create_3d_environment ();

  05113	e8 00 00 00 00	 call	 ?create_3d_environment@@YGPAUENV_3D@@XZ ; create_3d_environment
  05118	a3 00 00 00 00	 mov	 DWORD PTR ?main_3d_single_light_env@@3PAUENV_3D@@A, eax ; main_3d_single_light_env

; 682  : 
; 683  : 	//
; 684  : 	// Initialise the viewing system for the environment
; 685  : 	//
; 686  : 
; 687  : 	set_3d_viewport ( main_3d_single_light_env, full_screen_x_min, full_screen_y_min, full_screen_x_max, full_screen_y_max );

  0511d	51		 push	 ecx
  0511e	f3 0f 10 05 00
	00 00 00	 movss	 xmm0, DWORD PTR ?full_screen_y_max@@3MA
  05126	f3 0f 11 04 24	 movss	 DWORD PTR [esp], xmm0
  0512b	51		 push	 ecx
  0512c	f3 0f 10 05 00
	00 00 00	 movss	 xmm0, DWORD PTR ?full_screen_x_max@@3MA
  05134	f3 0f 11 04 24	 movss	 DWORD PTR [esp], xmm0
  05139	51		 push	 ecx
  0513a	f3 0f 10 05 00
	00 00 00	 movss	 xmm0, DWORD PTR ?full_screen_y_min@@3MA
  05142	f3 0f 11 04 24	 movss	 DWORD PTR [esp], xmm0
  05147	51		 push	 ecx
  05148	f3 0f 10 05 00
	00 00 00	 movss	 xmm0, DWORD PTR ?full_screen_x_min@@3MA
  05150	f3 0f 11 04 24	 movss	 DWORD PTR [esp], xmm0
  05155	a1 00 00 00 00	 mov	 eax, DWORD PTR ?main_3d_single_light_env@@3PAUENV_3D@@A ; main_3d_single_light_env
  0515a	50		 push	 eax
  0515b	e8 00 00 00 00	 call	 ?set_3d_viewport@@YGXPAUENV_3D@@MMMM@Z ; set_3d_viewport

; 688  : 
; 689  : 	set_3d_origin ( main_3d_single_light_env, full_screen_x_min + (full_screen_width / 2.0), full_screen_y_min + (full_screen_height / 2.0) );

  05160	f3 0f 5a 05 00
	00 00 00	 cvtss2sd xmm0, DWORD PTR ?full_screen_y_min@@3MA
  05168	f3 0f 5a 0d 00
	00 00 00	 cvtss2sd xmm1, DWORD PTR ?full_screen_height@@3MA
  05170	f2 0f 5e 0d 00
	00 00 00	 divsd	 xmm1, QWORD PTR __real@4000000000000000
  05178	f2 0f 58 c1	 addsd	 xmm0, xmm1
  0517c	f2 0f 5a c0	 cvtsd2ss xmm0, xmm0
  05180	51		 push	 ecx
  05181	f3 0f 11 04 24	 movss	 DWORD PTR [esp], xmm0
  05186	f3 0f 5a 05 00
	00 00 00	 cvtss2sd xmm0, DWORD PTR ?full_screen_x_min@@3MA
  0518e	f3 0f 5a 0d 00
	00 00 00	 cvtss2sd xmm1, DWORD PTR ?full_screen_width@@3MA
  05196	f2 0f 5e 0d 00
	00 00 00	 divsd	 xmm1, QWORD PTR __real@4000000000000000
  0519e	f2 0f 58 c1	 addsd	 xmm0, xmm1
  051a2	f2 0f 5a c0	 cvtsd2ss xmm0, xmm0
  051a6	51		 push	 ecx
  051a7	f3 0f 11 04 24	 movss	 DWORD PTR [esp], xmm0
  051ac	a1 00 00 00 00	 mov	 eax, DWORD PTR ?main_3d_single_light_env@@3PAUENV_3D@@A ; main_3d_single_light_env
  051b1	50		 push	 eax
  051b2	e8 00 00 00 00	 call	 ?set_3d_origin@@YGXPAUENV_3D@@MM@Z ; set_3d_origin

; 690  : 
; 691  : 	set_3d_viewcone ( main_3d_single_light_env, full_screen_width, full_screen_height, rad ( 59.99 ), rad ( 46.82 ) );

  051b7	51		 push	 ecx
  051b8	f3 0f 10 05 00
	00 00 00	 movss	 xmm0, DWORD PTR __real@3f51319b
  051c0	f3 0f 11 04 24	 movss	 DWORD PTR [esp], xmm0
  051c5	51		 push	 ecx
  051c6	f3 0f 10 05 00
	00 00 00	 movss	 xmm0, DWORD PTR __real@3f8604da
  051ce	f3 0f 11 04 24	 movss	 DWORD PTR [esp], xmm0
  051d3	51		 push	 ecx
  051d4	f3 0f 10 05 00
	00 00 00	 movss	 xmm0, DWORD PTR ?full_screen_height@@3MA
  051dc	f3 0f 11 04 24	 movss	 DWORD PTR [esp], xmm0
  051e1	51		 push	 ecx
  051e2	f3 0f 10 05 00
	00 00 00	 movss	 xmm0, DWORD PTR ?full_screen_width@@3MA
  051ea	f3 0f 11 04 24	 movss	 DWORD PTR [esp], xmm0
  051ef	a1 00 00 00 00	 mov	 eax, DWORD PTR ?main_3d_single_light_env@@3PAUENV_3D@@A ; main_3d_single_light_env
  051f4	50		 push	 eax
  051f5	e8 00 00 00 00	 call	 ?set_3d_viewcone@@YGXPAUENV_3D@@MMMM@Z ; set_3d_viewcone

; 692  : 
; 693  : 	set_3d_view_distances ( main_3d_single_light_env, 10000.0, 1.0, 1.0, 0.0 );

  051fa	51		 push	 ecx
  051fb	0f 57 c0	 xorps	 xmm0, xmm0
  051fe	f3 0f 11 04 24	 movss	 DWORD PTR [esp], xmm0
  05203	51		 push	 ecx
  05204	f3 0f 10 05 00
	00 00 00	 movss	 xmm0, DWORD PTR __real@3f800000
  0520c	f3 0f 11 04 24	 movss	 DWORD PTR [esp], xmm0
  05211	51		 push	 ecx
  05212	f3 0f 10 05 00
	00 00 00	 movss	 xmm0, DWORD PTR __real@3f800000
  0521a	f3 0f 11 04 24	 movss	 DWORD PTR [esp], xmm0
  0521f	51		 push	 ecx
  05220	f3 0f 10 05 00
	00 00 00	 movss	 xmm0, DWORD PTR __real@461c4000
  05228	f3 0f 11 04 24	 movss	 DWORD PTR [esp], xmm0
  0522d	a1 00 00 00 00	 mov	 eax, DWORD PTR ?main_3d_single_light_env@@3PAUENV_3D@@A ; main_3d_single_light_env
  05232	50		 push	 eax
  05233	e8 00 00 00 00	 call	 ?set_3d_view_distances@@YGXPAUENV_3D@@MMMM@Z ; set_3d_view_distances

; 694  : 
; 695  : 	//
; 696  : 	// Initalise the lighting conditions
; 697  : 	//
; 698  : 
; 699  : 	set_3d_lightmode ( main_3d_single_light_env, LIGHTMODE_MANUAL_LIGHT );

  05238	6a 02		 push	 2
  0523a	a1 00 00 00 00	 mov	 eax, DWORD PTR ?main_3d_single_light_env@@3PAUENV_3D@@A ; main_3d_single_light_env
  0523f	50		 push	 eax
  05240	e8 00 00 00 00	 call	 ?set_3d_lightmode@@YGXPAUENV_3D@@W4LIGHTMODES@@@Z ; set_3d_lightmode

; 700  : 
; 701  : 	{
; 702  : 
; 703  : 		light_colour
; 704  : 			single_light_ambient_colour,
; 705  : 			single_light_colour;
; 706  : 
; 707  : 		vec3d
; 708  : 			single_light_direction;
; 709  : 
; 710  : 		single_light_ambient_colour.red = 0.5;

  05245	f3 0f 10 05 00
	00 00 00	 movss	 xmm0, DWORD PTR __real@3f000000
  0524d	f3 0f 11 85 30
	ff ff ff	 movss	 DWORD PTR _single_light_ambient_colour$6[ebp], xmm0

; 711  : 		single_light_ambient_colour.green = 0.5;

  05255	f3 0f 10 05 00
	00 00 00	 movss	 xmm0, DWORD PTR __real@3f000000
  0525d	f3 0f 11 85 34
	ff ff ff	 movss	 DWORD PTR _single_light_ambient_colour$6[ebp+4], xmm0

; 712  : 		single_light_ambient_colour.blue = 0.5;

  05265	f3 0f 10 05 00
	00 00 00	 movss	 xmm0, DWORD PTR __real@3f000000
  0526d	f3 0f 11 85 38
	ff ff ff	 movss	 DWORD PTR _single_light_ambient_colour$6[ebp+8], xmm0

; 713  : 
; 714  : 		set_3d_ambient_light ( main_3d_single_light_env, &single_light_ambient_colour );

  05275	8d 85 30 ff ff
	ff		 lea	 eax, DWORD PTR _single_light_ambient_colour$6[ebp]
  0527b	50		 push	 eax
  0527c	8b 0d 00 00 00
	00		 mov	 ecx, DWORD PTR ?main_3d_single_light_env@@3PAUENV_3D@@A ; main_3d_single_light_env
  05282	51		 push	 ecx
  05283	e8 00 00 00 00	 call	 ?set_3d_ambient_light@@YGXPAUENV_3D@@PAULIGHT_COLOUR@@@Z ; set_3d_ambient_light

; 715  : 
; 716  : 		single_light_colour.red = 1.0;

  05288	f3 0f 10 05 00
	00 00 00	 movss	 xmm0, DWORD PTR __real@3f800000
  05290	f3 0f 11 85 20
	ff ff ff	 movss	 DWORD PTR _single_light_colour$5[ebp], xmm0

; 717  : 		single_light_colour.green = 1.0;

  05298	f3 0f 10 05 00
	00 00 00	 movss	 xmm0, DWORD PTR __real@3f800000
  052a0	f3 0f 11 85 24
	ff ff ff	 movss	 DWORD PTR _single_light_colour$5[ebp+4], xmm0

; 718  : 		single_light_colour.blue = 1.0;

  052a8	f3 0f 10 05 00
	00 00 00	 movss	 xmm0, DWORD PTR __real@3f800000
  052b0	f3 0f 11 85 28
	ff ff ff	 movss	 DWORD PTR _single_light_colour$5[ebp+8], xmm0

; 719  : 
; 720  : 		single_light_direction.x = 0;

  052b8	0f 57 c0	 xorps	 xmm0, xmm0
  052bb	f3 0f 11 85 14
	ff ff ff	 movss	 DWORD PTR _single_light_direction$4[ebp], xmm0

; 721  : 		single_light_direction.y = 0;

  052c3	0f 57 c0	 xorps	 xmm0, xmm0
  052c6	f3 0f 11 85 18
	ff ff ff	 movss	 DWORD PTR _single_light_direction$4[ebp+4], xmm0

; 722  : 		single_light_direction.z = 1;

  052ce	f3 0f 10 05 00
	00 00 00	 movss	 xmm0, DWORD PTR __real@3f800000
  052d6	f3 0f 11 85 1c
	ff ff ff	 movss	 DWORD PTR _single_light_direction$4[ebp+8], xmm0

; 723  : 
; 724  : 		set_3d_main_light_source ( main_3d_single_light_env, &single_light_colour, &single_light_direction, FALSE );

  052de	6a 00		 push	 0
  052e0	8d 85 14 ff ff
	ff		 lea	 eax, DWORD PTR _single_light_direction$4[ebp]
  052e6	50		 push	 eax
  052e7	8d 8d 20 ff ff
	ff		 lea	 ecx, DWORD PTR _single_light_colour$5[ebp]
  052ed	51		 push	 ecx
  052ee	8b 15 00 00 00
	00		 mov	 edx, DWORD PTR ?main_3d_single_light_env@@3PAUENV_3D@@A ; main_3d_single_light_env
  052f4	52		 push	 edx
  052f5	e8 00 00 00 00	 call	 ?set_3d_main_light_source@@YGXPAUENV_3D@@PAULIGHT_COLOUR@@PAUVEC3D@@H@Z ; set_3d_main_light_source

; 725  : 	}
; 726  : 
; 727  : 	//
; 728  : 	// Set the weather modes, these are ignored anyway, but for completeness.
; 729  : 	//
; 730  : 
; 731  : 	set_3d_weathermode ( main_3d_single_light_env, WEATHERMODE_DRY );

  052fa	6a 01		 push	 1
  052fc	a1 00 00 00 00	 mov	 eax, DWORD PTR ?main_3d_single_light_env@@3PAUENV_3D@@A ; main_3d_single_light_env
  05301	50		 push	 eax
  05302	e8 00 00 00 00	 call	 ?set_3d_weathermode@@YGXPAUENV_3D@@W4WEATHERMODES@@@Z ; set_3d_weathermode

; 732  : 
; 733  : 	set_3d_target_weathermode ( main_3d_single_light_env, WEATHERMODE_DRY );

  05307	6a 01		 push	 1
  05309	a1 00 00 00 00	 mov	 eax, DWORD PTR ?main_3d_single_light_env@@3PAUENV_3D@@A ; main_3d_single_light_env
  0530e	50		 push	 eax
  0530f	e8 00 00 00 00	 call	 ?set_3d_target_weathermode@@YGXPAUENV_3D@@W4WEATHERMODES@@@Z ; set_3d_target_weathermode

; 734  : 
; 735  : 	set_3d_target_weathermode_transitional_status ( main_3d_single_light_env, 0 );

  05314	51		 push	 ecx
  05315	0f 57 c0	 xorps	 xmm0, xmm0
  05318	f3 0f 11 04 24	 movss	 DWORD PTR [esp], xmm0
  0531d	a1 00 00 00 00	 mov	 eax, DWORD PTR ?main_3d_single_light_env@@3PAUENV_3D@@A ; main_3d_single_light_env
  05322	50		 push	 eax
  05323	e8 00 00 00 00	 call	 ?set_3d_target_weathermode_transitional_status@@YGXPAUENV_3D@@M@Z ; set_3d_target_weathermode_transitional_status

; 736  : 
; 737  : 	//
; 738  : 	// Sort out the initial fog values
; 739  : 	//
; 740  : 
; 741  : 	set_3d_fogmode ( main_3d_single_light_env, FOGMODE_ON_MANUAL );

  05328	6a 02		 push	 2
  0532a	a1 00 00 00 00	 mov	 eax, DWORD PTR ?main_3d_single_light_env@@3PAUENV_3D@@A ; main_3d_single_light_env
  0532f	50		 push	 eax
  05330	e8 00 00 00 00	 call	 ?set_3d_fogmode@@YGXPAUENV_3D@@W4FOGMODES@@@Z ; set_3d_fogmode

; 742  : 
; 743  : 	set_3d_fog_distances ( main_3d_single_light_env, 0.0, 10000.0 );

  05335	51		 push	 ecx
  05336	f3 0f 10 05 00
	00 00 00	 movss	 xmm0, DWORD PTR __real@461c4000
  0533e	f3 0f 11 04 24	 movss	 DWORD PTR [esp], xmm0
  05343	51		 push	 ecx
  05344	0f 57 c0	 xorps	 xmm0, xmm0
  05347	f3 0f 11 04 24	 movss	 DWORD PTR [esp], xmm0
  0534c	a1 00 00 00 00	 mov	 eax, DWORD PTR ?main_3d_single_light_env@@3PAUENV_3D@@A ; main_3d_single_light_env
  05351	50		 push	 eax
  05352	e8 00 00 00 00	 call	 ?set_3d_fog_distances@@YGXPAUENV_3D@@MM@Z ; set_3d_fog_distances

; 744  : 
; 745  : 	{
; 746  : 
; 747  : 		rgb_colour
; 748  : 			single_light_fog_colour;
; 749  : 
; 750  : 		single_light_fog_colour.r = 255;

  05357	c6 85 12 ff ff
	ff ff		 mov	 BYTE PTR _single_light_fog_colour$3[ebp+2], 255 ; 000000ffH

; 751  : 		single_light_fog_colour.g = 255;

  0535e	c6 85 11 ff ff
	ff ff		 mov	 BYTE PTR _single_light_fog_colour$3[ebp+1], 255 ; 000000ffH

; 752  : 		single_light_fog_colour.b = 255;

  05365	c6 85 10 ff ff
	ff ff		 mov	 BYTE PTR _single_light_fog_colour$3[ebp], 255 ; 000000ffH

; 753  : 		single_light_fog_colour.a = 255;

  0536c	c6 85 13 ff ff
	ff ff		 mov	 BYTE PTR _single_light_fog_colour$3[ebp+3], 255 ; 000000ffH

; 754  : 
; 755  : 		set_3d_fog_colour ( main_3d_single_light_env, single_light_fog_colour );

  05373	8b 85 10 ff ff
	ff		 mov	 eax, DWORD PTR _single_light_fog_colour$3[ebp]
  05379	50		 push	 eax
  0537a	8b 0d 00 00 00
	00		 mov	 ecx, DWORD PTR ?main_3d_single_light_env@@3PAUENV_3D@@A ; main_3d_single_light_env
  05380	51		 push	 ecx
  05381	e8 00 00 00 00	 call	 ?set_3d_fog_colour@@YGXPAUENV_3D@@UREAL_COLOUR@@@Z ; set_3d_fog_colour

; 756  : 	}
; 757  : 
; 758  : 	//
; 759  : 	// Set the viewpoint used with this environent
; 760  : 	//
; 761  : 
; 762  : 	set_3d_viewpoint ( main_3d_single_light_env, &main_vp );

  05386	68 00 00 00 00	 push	 OFFSET ?main_vp@@3UVIEWPOINT@@A ; main_vp
  0538b	a1 00 00 00 00	 mov	 eax, DWORD PTR ?main_3d_single_light_env@@3PAUENV_3D@@A ; main_3d_single_light_env
  05390	50		 push	 eax
  05391	e8 00 00 00 00	 call	 ?set_3d_viewpoint@@YGXPAUENV_3D@@PAUVIEWPOINT@@@Z ; set_3d_viewpoint

; 763  : 
; 764  : 	//
; 765  : 	// Set the initial detail levels
; 766  : 	//
; 767  : 
; 768  : 	set_3d_detail_levels ();

  05396	e8 00 00 00 00	 call	 ?set_3d_detail_levels@@YGXXZ ; set_3d_detail_levels

; 769  : 
; 770  : 	////////////////////////////////////////
; 771  : 	//
; 772  : 
; 773  : 	original_d3d_can_render_to_texture = d3d_can_render_to_texture;

  0539b	a1 00 00 00 00	 mov	 eax, DWORD PTR ?d3d_can_render_to_texture@@3HA ; d3d_can_render_to_texture
  053a0	a3 00 00 00 00	 mov	 DWORD PTR ?original_d3d_can_render_to_texture@@3HA, eax ; original_d3d_can_render_to_texture

; 774  : 
; 775  : 	//
; 776  : 	////////////////////////////////////////
; 777  : }

  053a5	5f		 pop	 edi
  053a6	5e		 pop	 esi
  053a7	5b		 pop	 ebx
  053a8	8b e5		 mov	 esp, ebp
  053aa	5d		 pop	 ebp
  053ab	c3		 ret	 0
?initialise_application_3d_system@@YGXXZ ENDP		; initialise_application_3d_system
_TEXT	ENDS
END
