; Listing generated by Microsoft (R) Optimizing Compiler Version 19.16.27045.0 

	TITLE	C:\Users\nhv90\Projects\eech\aphavoc\source\app3d\3d_init.c
	.686P
	.XMM
	include listing.inc
	.model	flat

INCLUDELIB MSVCRTD
INCLUDELIB OLDNAMES

PUBLIC	?initialise_application_3d_system@@YGXXZ	; initialise_application_3d_system
PUBLIC	?deinitialise_application_3d_system@@YGXXZ	; deinitialise_application_3d_system
PUBLIC	?set_3d_detail_levels@@YGXXZ			; set_3d_detail_levels
PUBLIC	?set_application_display_3d_mode@@YGXW4DISPLAY_3D_TINTS@@W4DISPLAY_3D_LIGHT_LEVELS@@W4DISPLAY_3D_NOISE_LEVELS@@@Z ; set_application_display_3d_mode
PUBLIC	??$min@M@std@@YGABMABM0@Z			; std::min<float>
PUBLIC	??$max@M@std@@YGABMABM0@Z			; std::max<float>
PUBLIC	??_C@_02DKCKIIND@?$CFs@				; `string'
PUBLIC	?__LINE__Var@?0??initialise_application_3d_system@@YGXXZ@4JA ; `initialise_application_3d_system'::`1'::__LINE__Var
PUBLIC	??_C@_0DM@BNNHFLJC@c?3?2users?2nhv90?2projects?2eech?2ap@ ; `string'
PUBLIC	??_C@_0N@LOIAOAH@?$CBmain_3d_env@		; `string'
PUBLIC	??_C@_0BK@FFIFMNKK@?$CBmain_3d_single_light_env@ ; `string'
PUBLIC	??_C@_0BJ@GPDFCBKC@Creating?5mfd?53d?5textures@	; `string'
PUBLIC	??_C@_0BB@JJJMFBGD@Loading?5textures@		; `string'
PUBLIC	??_C@_06KIELAJID@3ddata@			; `string'
PUBLIC	??_C@_0FI@ILJGOAHJ@?$CD?$CD?$CDCUSTOM?5TEXTURE?5STARTUP?3?5init@ ; `string'
PUBLIC	??_C@_0BE@DPPOKICC@3ddata?2displace?4bin@	; `string'
PUBLIC	??_C@_0BG@KJFKADBK@3ddata?2horizon?2dry6am@	; `string'
PUBLIC	??_C@_0BG@PBDJBDEM@3ddata?2horizon?2dry9am@	; `string'
PUBLIC	??_C@_0BH@FCPOPKOM@3ddata?2horizon?2dry12pm@	; `string'
PUBLIC	??_C@_0BG@IDGADKGP@3ddata?2horizon?2dry3pm@	; `string'
PUBLIC	??_C@_0BG@LELOMKFN@3ddata?2horizon?2dry6pm@	; `string'
PUBLIC	??_C@_0BG@OMNNNKAL@3ddata?2horizon?2dry9pm@	; `string'
PUBLIC	??_C@_0BH@EPBKDDKL@3ddata?2horizon?2dry12am@	; `string'
PUBLIC	??_C@_0BF@DPMMOJDG@3ddata?2horizon?2lr6am@	; `string'
PUBLIC	??_C@_0BF@GHKPPJGA@3ddata?2horizon?2lr9am@	; `string'
PUBLIC	??_C@_0BG@GALAAAOF@3ddata?2horizon?2lr12pm@	; `string'
PUBLIC	??_C@_0BF@BFPGNAED@3ddata?2horizon?2lr3pm@	; `string'
PUBLIC	??_C@_0BF@CCCICAHB@3ddata?2horizon?2lr6pm@	; `string'
PUBLIC	??_C@_0BF@HKELDACH@3ddata?2horizon?2lr9pm@	; `string'
PUBLIC	??_C@_0BG@HNFEMJKC@3ddata?2horizon?2lr12am@	; `string'
PUBLIC	??_C@_0BF@KEFNKLCA@3ddata?2horizon?2hr6am@	; `string'
PUBLIC	??_C@_0BF@PMDOLLHG@3ddata?2horizon?2hr9am@	; `string'
PUBLIC	??_C@_0BG@JEPPCEPG@3ddata?2horizon?2hr12pm@	; `string'
PUBLIC	??_C@_0BF@IOGHJCFF@3ddata?2horizon?2hr3pm@	; `string'
PUBLIC	??_C@_0BF@LJLJGCGH@3ddata?2horizon?2hr6pm@	; `string'
PUBLIC	??_C@_0BF@OBNKHCDB@3ddata?2horizon?2hr9pm@	; `string'
PUBLIC	??_C@_0BG@IJBLONLB@3ddata?2horizon?2hr12am@	; `string'
PUBLIC	??_C@_0BH@BEEECGBL@3ddata?2horizon?2snow6am@	; `string'
PUBLIC	??_C@_0BH@EMCHDGEN@3ddata?2horizon?2snow9am@	; `string'
PUBLIC	??_C@_0BI@CFEENEFP@3ddata?2horizon?2snow12pm@	; `string'
PUBLIC	??_C@_0BH@DOHOBPGO@3ddata?2horizon?2snow3pm@	; `string'
PUBLIC	??_C@_0BH@JKAOPFM@3ddata?2horizon?2snow6pm@	; `string'
PUBLIC	??_C@_0BH@FBMDPPAK@3ddata?2horizon?2snow9pm@	; `string'
PUBLIC	??_C@_0BI@DIKABNBI@3ddata?2horizon?2snow12am@	; `string'
PUBLIC	??_C@_0BB@NKBBKCGJ@3ddata?2stars?4bin@		; `string'
PUBLIC	??_C@_0BD@FEEMDEPI@invalid?5comparator@		; `string'
PUBLIC	??_C@_0GK@JMBMHIBC@c?3?2program?5files?5?$CIx86?$CJ?2microsof@ ; `string'
PUBLIC	??_C@_1NE@FKBPBJEB@?$AAc?$AA?3?$AA?2?$AAp?$AAr?$AAo?$AAg?$AAr?$AAa?$AAm?$AA?5?$AAf?$AAi?$AAl?$AAe@ ; `string'
PUBLIC	??_C@_1BC@BLAPCBGI@?$AAs?$AAt?$AAd?$AA?3?$AA?3?$AAm?$AAi?$AAn@ ; `string'
PUBLIC	??_C@_1CK@NDNHPKPI@?$AA?$CC?$AAi?$AAn?$AAv?$AAa?$AAl?$AAi?$AAd?$AA?5?$AAc?$AAo?$AAm?$AAp?$AAa?$AAr@ ; `string'
PUBLIC	??_C@_1BC@ICCOKLEG@?$AAs?$AAt?$AAd?$AA?3?$AA?3?$AAm?$AAa?$AAx@ ; `string'
PUBLIC	__real@00000000
PUBLIC	__real@3d4ccccd
PUBLIC	__real@3d75c28f
PUBLIC	__real@3da3d70a
PUBLIC	__real@3dcccccd
PUBLIC	__real@3df5c28f
PUBLIC	__real@3e19999a
PUBLIC	__real@3e23d70a
PUBLIC	__real@3e4ccccd
PUBLIC	__real@3e6f9db2
PUBLIC	__real@3e75c28f
PUBLIC	__real@3e800000
PUBLIC	__real@3e99999a
PUBLIC	__real@3e9fbe77
PUBLIC	__real@3ea3d70a
PUBLIC	__real@3eb33333
PUBLIC	__real@3ec7ae14
PUBLIC	__real@3ecccccd
PUBLIC	__real@3ee66666
PUBLIC	__real@3eef9db2
PUBLIC	__real@3ef5c28f
PUBLIC	__real@3f000000
PUBLIC	__real@3f066666
PUBLIC	__real@3f0ccccd
PUBLIC	__real@3f12f1aa
PUBLIC	__real@3f19999a
PUBLIC	__real@3f23d70a
PUBLIC	__real@3f2ccccd
PUBLIC	__real@3f333333
PUBLIC	__real@3f400000
PUBLIC	__real@3f490fdb
PUBLIC	__real@3f4ccccd
PUBLIC	__real@3f51319b
PUBLIC	__real@3f59999a
PUBLIC	__real@3f666666
PUBLIC	__real@3f800000
PUBLIC	__real@3f8604da
PUBLIC	__real@3f866666
PUBLIC	__real@3f8ccccd
PUBLIC	__real@3f99999a
PUBLIC	__real@3f9c61aa
PUBLIC	__real@3faccccd
PUBLIC	__real@3fc00000
PUBLIC	__real@3fc90fdb
PUBLIC	__real@3fe0cccccccccccd
PUBLIC	__real@3fe3333333333333
PUBLIC	__real@3fe599999999999a
PUBLIC	__real@3fe6666666666666
PUBLIC	__real@3fe8000000000000
PUBLIC	__real@3fe999999999999a
PUBLIC	__real@3feccccccccccccd
PUBLIC	__real@3ff0000000000000
PUBLIC	__real@40000000
PUBLIC	__real@4000000000000000
PUBLIC	__real@4016cbe4
PUBLIC	__real@40490fdb
PUBLIC	__real@407b53d1
PUBLIC	__real@4096cbe4
PUBLIC	__real@40afeddf
PUBLIC	__real@42800000
PUBLIC	__real@43000000
PUBLIC	__real@453b8000
PUBLIC	__real@457a0000
PUBLIC	__real@459c4000
PUBLIC	__real@45bb8000
PUBLIC	__real@45dac000
PUBLIC	__real@45fa0000
PUBLIC	__real@461c4000
PUBLIC	__real@467d2000
PUBLIC	__real@46a8c000
PUBLIC	__real@46fd2000
PUBLIC	__real@4728c000
PUBLIC	__real@476f1000
PUBLIC	__real@47891c00
PUBLIC	__real@479ab000
PUBLIC	__real@bf800000
PUBLIC	__xmm@80000000800000008000000080000000
EXTRN	__imp___invalid_parameter:PROC
EXTRN	__imp___CrtDbgReport:PROC
EXTRN	?process_assert@@YGXPBD0H@Z:PROC		; process_assert
EXTRN	?debug_log@@YAXPBDZZ:PROC			; debug_log
EXTRN	?get_3d_transformation_matrix@@YGXQAY02MMMM@Z:PROC ; get_3d_transformation_matrix
EXTRN	?load_texturemap_data@@YGHPBD@Z:PROC		; load_texturemap_data
EXTRN	?initialise_custom_map_info@@YGXXZ:PROC		; initialise_custom_map_info
EXTRN	?create_3d_environment@@YGPAUENV_3D@@XZ:PROC	; create_3d_environment
EXTRN	?destroy_3d_environment@@YGXPAUENV_3D@@@Z:PROC	; destroy_3d_environment
EXTRN	?set_3d_time_of_day@@YGXPAUENV_3D@@M@Z:PROC	; set_3d_time_of_day
EXTRN	?set_3d_weathermode@@YGXPAUENV_3D@@W4WEATHERMODES@@@Z:PROC ; set_3d_weathermode
EXTRN	?set_3d_target_weathermode@@YGXPAUENV_3D@@W4WEATHERMODES@@@Z:PROC ; set_3d_target_weathermode
EXTRN	?set_3d_target_weathermode_transitional_status@@YGXPAUENV_3D@@M@Z:PROC ; set_3d_target_weathermode_transitional_status
EXTRN	?set_3d_infrared_mode@@YGXPAUENV_3D@@W4RENDER_FILTERS@@@Z:PROC ; set_3d_infrared_mode
EXTRN	?set_3d_main_light_source@@YGXPAUENV_3D@@PAULIGHT_COLOUR@@PAUVEC3D@@H@Z:PROC ; set_3d_main_light_source
EXTRN	?set_3d_ambient_light@@YGXPAUENV_3D@@PAULIGHT_COLOUR@@@Z:PROC ; set_3d_ambient_light
EXTRN	?set_3d_fog_colour@@YGXPAUENV_3D@@UREAL_COLOUR@@@Z:PROC ; set_3d_fog_colour
EXTRN	?add_3d_fog_setting@@YGXPAUENV_3D@@W4WEATHERMODES@@MMMM@Z:PROC ; add_3d_fog_setting
EXTRN	?add_3d_ambient_light_setting@@YGXPAUENV_3D@@W4WEATHERMODES@@UREAL_COLOUR@@MM@Z:PROC ; add_3d_ambient_light_setting
EXTRN	?add_3d_sun_setting@@YGXPAUENV_3D@@W4WEATHERMODES@@MMUREAL_COLOUR@@M2MMMHM@Z:PROC ; add_3d_sun_setting
EXTRN	?add_3d_moon_setting@@YGXPAUENV_3D@@W4WEATHERMODES@@MMUREAL_COLOUR@@M2MMMHM@Z:PROC ; add_3d_moon_setting
EXTRN	?add_3d_cloud_light_setting@@YGXPAUENV_3D@@W4WEATHERMODES@@UREAL_COLOUR@@2MMM@Z:PROC ; add_3d_cloud_light_setting
EXTRN	?add_3d_shadow_setting@@YGXPAUENV_3D@@W4WEATHERMODES@@UREAL_COLOUR@@M@Z:PROC ; add_3d_shadow_setting
EXTRN	?set_global_3d_fog_scale_setting@@YGXPAUENV_3D@@M@Z:PROC ; set_global_3d_fog_scale_setting
EXTRN	?set_3d_viewpoint@@YGXPAUENV_3D@@PAUVIEWPOINT@@@Z:PROC ; set_3d_viewpoint
EXTRN	?set_3d_viewport@@YGXPAUENV_3D@@MMMM@Z:PROC	; set_3d_viewport
EXTRN	?set_3d_view_distances@@YGXPAUENV_3D@@MMMM@Z:PROC ; set_3d_view_distances
EXTRN	?set_3d_origin@@YGXPAUENV_3D@@MM@Z:PROC		; set_3d_origin
EXTRN	?set_3d_viewcone@@YGXPAUENV_3D@@MMMM@Z:PROC	; set_3d_viewcone
EXTRN	?set_3d_lightmode@@YGXPAUENV_3D@@W4LIGHTMODES@@@Z:PROC ; set_3d_lightmode
EXTRN	?set_3d_fogmode@@YGXPAUENV_3D@@W4FOGMODES@@@Z:PROC ; set_3d_fogmode
EXTRN	?set_3d_fog_distances@@YGXPAUENV_3D@@MM@Z:PROC	; set_3d_fog_distances
EXTRN	?initialise_3d_objects@@YGXPBD@Z:PROC		; initialise_3d_objects
EXTRN	?scale_object_3d_approximation_distances@@YGXHM@Z:PROC ; scale_object_3d_approximation_distances
EXTRN	?report_objects_not_destructed@@YGXXZ:PROC	; report_objects_not_destructed
EXTRN	?initialise_3d_displacement_maps@@YGXPBD@Z:PROC	; initialise_3d_displacement_maps
EXTRN	?initialise_3d_system@@YGXXZ:PROC		; initialise_3d_system
EXTRN	?initialise_3d_horizon@@YGXPAUENV_3D@@H@Z:PROC	; initialise_3d_horizon
EXTRN	?add_3d_horizon_image@@YGXPAUENV_3D@@PBDMW4WEATHERMODES@@@Z:PROC ; add_3d_horizon_image
EXTRN	?initialise_3d_sun@@YGXHH@Z:PROC		; initialise_3d_sun
EXTRN	?initialise_3d_moon@@YGXH@Z:PROC		; initialise_3d_moon
EXTRN	?initialise_3d_lightning@@YGXW4TEXTURE_ANIMATION_INDICES@@H@Z:PROC ; initialise_3d_lightning
EXTRN	?set_3d_ambient_light_source@@YGXPAUENV_3D@@PAULIGHT_COLOUR@@@Z:PROC ; set_3d_ambient_light_source
EXTRN	?initialise_3d_rain@@YGXMPAUVEC3D@@@Z:PROC	; initialise_3d_rain
EXTRN	?set_3d_snow_texture@@YGXH@Z:PROC		; set_3d_snow_texture
EXTRN	?set_3d_rain_speed@@YGXM@Z:PROC			; set_3d_rain_speed
EXTRN	?set_3d_rain_wind@@YGXPAUVEC3D@@M@Z:PROC	; set_3d_rain_wind
EXTRN	?initialise_3d_stars@@YGXPBD@Z:PROC		; initialise_3d_stars
EXTRN	?initialise_3d_clouds@@YGXXZ:PROC		; initialise_3d_clouds
EXTRN	?add_3d_cloud_texture@@YGXHW4WEATHERMODES@@@Z:PROC ; add_3d_cloud_texture
EXTRN	?set_cloud_3d_base_height@@YGXM@Z:PROC		; set_cloud_3d_base_height
EXTRN	?set_cloud_3d_scan_radius@@YGXH@Z:PROC		; set_cloud_3d_scan_radius
EXTRN	?initialise_3d_terrain@@YGXXZ:PROC		; initialise_3d_terrain
EXTRN	?set_3d_terrain_detail_blend_parameters@@YGXM@Z:PROC ; set_3d_terrain_detail_blend_parameters
EXTRN	?unload_3d_terrain@@YGXXZ:PROC			; unload_3d_terrain
EXTRN	?display_terrain_elevation_statistics@@YGXXZ:PROC ; display_terrain_elevation_statistics
EXTRN	?set_terrain_3d_sector_scan_radius@@YGXH@Z:PROC	; set_terrain_3d_sector_scan_radius
EXTRN	?unload_2d_terrain@@YGXXZ:PROC			; unload_2d_terrain
EXTRN	?unload_terrain_simple_elevation_grid@@YGXXZ:PROC ; unload_terrain_simple_elevation_grid
EXTRN	?set_3d_resolutions@@YGXMM@Z:PROC		; set_3d_resolutions
EXTRN	?initialise_common_mfd_3d_textures@@YGXXZ:PROC	; initialise_common_mfd_3d_textures
EXTRN	?deinitialise_common_mfd_3d_textures@@YGXXZ:PROC ; deinitialise_common_mfd_3d_textures
EXTRN	?initialise_common_crew_skins@@YGXXZ:PROC	; initialise_common_crew_skins
EXTRN	?deinitialise_common_crew_skins@@YGXXZ:PROC	; deinitialise_common_crew_skins
EXTRN	?initialise_campaign_screen_3d_textures@@YGXXZ:PROC ; initialise_campaign_screen_3d_textures
EXTRN	?deinitialise_campaign_screen_3d_textures@@YGXXZ:PROC ; deinitialise_campaign_screen_3d_textures
EXTRN	?d3d_can_render_to_texture@@3HA:DWORD		; d3d_can_render_to_texture
EXTRN	?visual_3d_vp@@3PAUVIEWPOINT@@A:DWORD		; visual_3d_vp
EXTRN	?command_line_russian_nvg_no_ir@@3HA:DWORD	; command_line_russian_nvg_no_ir
EXTRN	?global_night_light_level@@3MA:DWORD		; global_night_light_level
EXTRN	?global_options@@3UGLOBAL_OPTIONS_DATA@@A:BYTE	; global_options
EXTRN	?world_map@@3UWORLD_MAP_DATA@@A:BYTE		; world_map
EXTRN	?camera_entity@@3PAUENTITY@@A:DWORD		; camera_entity
EXTRN	?full_screen_width@@3MA:DWORD			; full_screen_width
EXTRN	?full_screen_height@@3MA:DWORD			; full_screen_height
EXTRN	?full_screen_x_min@@3MA:DWORD			; full_screen_x_min
EXTRN	?full_screen_y_min@@3MA:DWORD			; full_screen_y_min
EXTRN	?full_screen_x_max@@3MA:DWORD			; full_screen_x_max
EXTRN	?full_screen_y_max@@3MA:DWORD			; full_screen_y_max
EXTRN	?original_d3d_can_render_to_texture@@3HA:DWORD	; original_d3d_can_render_to_texture
EXTRN	?main_3d_env@@3PAUENV_3D@@A:DWORD		; main_3d_env
EXTRN	?main_3d_single_light_env@@3PAUENV_3D@@A:DWORD	; main_3d_single_light_env
EXTRN	?main_vp@@3UVIEWPOINT@@A:BYTE			; main_vp
EXTRN	?current_3d_display_tint@@3W4DISPLAY_3D_TINTS@@A:DWORD ; current_3d_display_tint
EXTRN	?current_3d_light_level@@3W4DISPLAY_3D_LIGHT_LEVELS@@A:DWORD ; current_3d_light_level
EXTRN	?current_3d_noise_level@@3W4DISPLAY_3D_NOISE_LEVELS@@A:DWORD ; current_3d_noise_level
EXTRN	__fltused:DWORD
;	COMDAT __xmm@80000000800000008000000080000000
CONST	SEGMENT
__xmm@80000000800000008000000080000000 DB 00H, 00H, 00H, 080H, 00H, 00H, 00H
	DB	080H, 00H, 00H, 00H, 080H, 00H, 00H, 00H, 080H
CONST	ENDS
;	COMDAT __real@bf800000
CONST	SEGMENT
__real@bf800000 DD 0bf800000r			; -1
CONST	ENDS
;	COMDAT __real@479ab000
CONST	SEGMENT
__real@479ab000 DD 0479ab000r			; 79200
CONST	ENDS
;	COMDAT __real@47891c00
CONST	SEGMENT
__real@47891c00 DD 047891c00r			; 70200
CONST	ENDS
;	COMDAT __real@476f1000
CONST	SEGMENT
__real@476f1000 DD 0476f1000r			; 61200
CONST	ENDS
;	COMDAT __real@4728c000
CONST	SEGMENT
__real@4728c000 DD 04728c000r			; 43200
CONST	ENDS
;	COMDAT __real@46fd2000
CONST	SEGMENT
__real@46fd2000 DD 046fd2000r			; 32400
CONST	ENDS
;	COMDAT __real@46a8c000
CONST	SEGMENT
__real@46a8c000 DD 046a8c000r			; 21600
CONST	ENDS
;	COMDAT __real@467d2000
CONST	SEGMENT
__real@467d2000 DD 0467d2000r			; 16200
CONST	ENDS
;	COMDAT __real@461c4000
CONST	SEGMENT
__real@461c4000 DD 0461c4000r			; 10000
CONST	ENDS
;	COMDAT __real@45fa0000
CONST	SEGMENT
__real@45fa0000 DD 045fa0000r			; 8000
CONST	ENDS
;	COMDAT __real@45dac000
CONST	SEGMENT
__real@45dac000 DD 045dac000r			; 7000
CONST	ENDS
;	COMDAT __real@45bb8000
CONST	SEGMENT
__real@45bb8000 DD 045bb8000r			; 6000
CONST	ENDS
;	COMDAT __real@459c4000
CONST	SEGMENT
__real@459c4000 DD 0459c4000r			; 5000
CONST	ENDS
;	COMDAT __real@457a0000
CONST	SEGMENT
__real@457a0000 DD 0457a0000r			; 4000
CONST	ENDS
;	COMDAT __real@453b8000
CONST	SEGMENT
__real@453b8000 DD 0453b8000r			; 3000
CONST	ENDS
;	COMDAT __real@43000000
CONST	SEGMENT
__real@43000000 DD 043000000r			; 128
CONST	ENDS
;	COMDAT __real@42800000
CONST	SEGMENT
__real@42800000 DD 042800000r			; 64
CONST	ENDS
;	COMDAT __real@40afeddf
CONST	SEGMENT
__real@40afeddf DD 040afeddfr			; 5.49779
CONST	ENDS
;	COMDAT __real@4096cbe4
CONST	SEGMENT
__real@4096cbe4 DD 04096cbe4r			; 4.71239
CONST	ENDS
;	COMDAT __real@407b53d1
CONST	SEGMENT
__real@407b53d1 DD 0407b53d1r			; 3.92699
CONST	ENDS
;	COMDAT __real@40490fdb
CONST	SEGMENT
__real@40490fdb DD 040490fdbr			; 3.14159
CONST	ENDS
;	COMDAT __real@4016cbe4
CONST	SEGMENT
__real@4016cbe4 DD 04016cbe4r			; 2.35619
CONST	ENDS
;	COMDAT __real@4000000000000000
CONST	SEGMENT
__real@4000000000000000 DQ 04000000000000000r	; 2
CONST	ENDS
;	COMDAT __real@40000000
CONST	SEGMENT
__real@40000000 DD 040000000r			; 2
CONST	ENDS
;	COMDAT __real@3ff0000000000000
CONST	SEGMENT
__real@3ff0000000000000 DQ 03ff0000000000000r	; 1
CONST	ENDS
;	COMDAT __real@3feccccccccccccd
CONST	SEGMENT
__real@3feccccccccccccd DQ 03feccccccccccccdr	; 0.9
CONST	ENDS
;	COMDAT __real@3fe999999999999a
CONST	SEGMENT
__real@3fe999999999999a DQ 03fe999999999999ar	; 0.8
CONST	ENDS
;	COMDAT __real@3fe8000000000000
CONST	SEGMENT
__real@3fe8000000000000 DQ 03fe8000000000000r	; 0.75
CONST	ENDS
;	COMDAT __real@3fe6666666666666
CONST	SEGMENT
__real@3fe6666666666666 DQ 03fe6666666666666r	; 0.7
CONST	ENDS
;	COMDAT __real@3fe599999999999a
CONST	SEGMENT
__real@3fe599999999999a DQ 03fe599999999999ar	; 0.675
CONST	ENDS
;	COMDAT __real@3fe3333333333333
CONST	SEGMENT
__real@3fe3333333333333 DQ 03fe3333333333333r	; 0.6
CONST	ENDS
;	COMDAT __real@3fe0cccccccccccd
CONST	SEGMENT
__real@3fe0cccccccccccd DQ 03fe0cccccccccccdr	; 0.525
CONST	ENDS
;	COMDAT __real@3fc90fdb
CONST	SEGMENT
__real@3fc90fdb DD 03fc90fdbr			; 1.5708
CONST	ENDS
;	COMDAT __real@3fc00000
CONST	SEGMENT
__real@3fc00000 DD 03fc00000r			; 1.5
CONST	ENDS
;	COMDAT __real@3faccccd
CONST	SEGMENT
__real@3faccccd DD 03faccccdr			; 1.35
CONST	ENDS
;	COMDAT __real@3f9c61aa
CONST	SEGMENT
__real@3f9c61aa DD 03f9c61aar			; 1.22173
CONST	ENDS
;	COMDAT __real@3f99999a
CONST	SEGMENT
__real@3f99999a DD 03f99999ar			; 1.2
CONST	ENDS
;	COMDAT __real@3f8ccccd
CONST	SEGMENT
__real@3f8ccccd DD 03f8ccccdr			; 1.1
CONST	ENDS
;	COMDAT __real@3f866666
CONST	SEGMENT
__real@3f866666 DD 03f866666r			; 1.05
CONST	ENDS
;	COMDAT __real@3f8604da
CONST	SEGMENT
__real@3f8604da DD 03f8604dar			; 1.04702
CONST	ENDS
;	COMDAT __real@3f800000
CONST	SEGMENT
__real@3f800000 DD 03f800000r			; 1
CONST	ENDS
;	COMDAT __real@3f666666
CONST	SEGMENT
__real@3f666666 DD 03f666666r			; 0.9
CONST	ENDS
;	COMDAT __real@3f59999a
CONST	SEGMENT
__real@3f59999a DD 03f59999ar			; 0.85
CONST	ENDS
;	COMDAT __real@3f51319b
CONST	SEGMENT
__real@3f51319b DD 03f51319br			; 0.817163
CONST	ENDS
;	COMDAT __real@3f4ccccd
CONST	SEGMENT
__real@3f4ccccd DD 03f4ccccdr			; 0.8
CONST	ENDS
;	COMDAT __real@3f490fdb
CONST	SEGMENT
__real@3f490fdb DD 03f490fdbr			; 0.785398
CONST	ENDS
;	COMDAT __real@3f400000
CONST	SEGMENT
__real@3f400000 DD 03f400000r			; 0.75
CONST	ENDS
;	COMDAT __real@3f333333
CONST	SEGMENT
__real@3f333333 DD 03f333333r			; 0.7
CONST	ENDS
;	COMDAT __real@3f2ccccd
CONST	SEGMENT
__real@3f2ccccd DD 03f2ccccdr			; 0.675
CONST	ENDS
;	COMDAT __real@3f23d70a
CONST	SEGMENT
__real@3f23d70a DD 03f23d70ar			; 0.64
CONST	ENDS
;	COMDAT __real@3f19999a
CONST	SEGMENT
__real@3f19999a DD 03f19999ar			; 0.6
CONST	ENDS
;	COMDAT __real@3f12f1aa
CONST	SEGMENT
__real@3f12f1aa DD 03f12f1aar			; 0.574
CONST	ENDS
;	COMDAT __real@3f0ccccd
CONST	SEGMENT
__real@3f0ccccd DD 03f0ccccdr			; 0.55
CONST	ENDS
;	COMDAT __real@3f066666
CONST	SEGMENT
__real@3f066666 DD 03f066666r			; 0.525
CONST	ENDS
;	COMDAT __real@3f000000
CONST	SEGMENT
__real@3f000000 DD 03f000000r			; 0.5
CONST	ENDS
;	COMDAT __real@3ef5c28f
CONST	SEGMENT
__real@3ef5c28f DD 03ef5c28fr			; 0.48
CONST	ENDS
;	COMDAT __real@3eef9db2
CONST	SEGMENT
__real@3eef9db2 DD 03eef9db2r			; 0.468
CONST	ENDS
;	COMDAT __real@3ee66666
CONST	SEGMENT
__real@3ee66666 DD 03ee66666r			; 0.45
CONST	ENDS
;	COMDAT __real@3ecccccd
CONST	SEGMENT
__real@3ecccccd DD 03ecccccdr			; 0.4
CONST	ENDS
;	COMDAT __real@3ec7ae14
CONST	SEGMENT
__real@3ec7ae14 DD 03ec7ae14r			; 0.39
CONST	ENDS
;	COMDAT __real@3eb33333
CONST	SEGMENT
__real@3eb33333 DD 03eb33333r			; 0.35
CONST	ENDS
;	COMDAT __real@3ea3d70a
CONST	SEGMENT
__real@3ea3d70a DD 03ea3d70ar			; 0.32
CONST	ENDS
;	COMDAT __real@3e9fbe77
CONST	SEGMENT
__real@3e9fbe77 DD 03e9fbe77r			; 0.312
CONST	ENDS
;	COMDAT __real@3e99999a
CONST	SEGMENT
__real@3e99999a DD 03e99999ar			; 0.3
CONST	ENDS
;	COMDAT __real@3e800000
CONST	SEGMENT
__real@3e800000 DD 03e800000r			; 0.25
CONST	ENDS
;	COMDAT __real@3e75c28f
CONST	SEGMENT
__real@3e75c28f DD 03e75c28fr			; 0.24
CONST	ENDS
;	COMDAT __real@3e6f9db2
CONST	SEGMENT
__real@3e6f9db2 DD 03e6f9db2r			; 0.234
CONST	ENDS
;	COMDAT __real@3e4ccccd
CONST	SEGMENT
__real@3e4ccccd DD 03e4ccccdr			; 0.2
CONST	ENDS
;	COMDAT __real@3e23d70a
CONST	SEGMENT
__real@3e23d70a DD 03e23d70ar			; 0.16
CONST	ENDS
;	COMDAT __real@3e19999a
CONST	SEGMENT
__real@3e19999a DD 03e19999ar			; 0.15
CONST	ENDS
;	COMDAT __real@3df5c28f
CONST	SEGMENT
__real@3df5c28f DD 03df5c28fr			; 0.12
CONST	ENDS
;	COMDAT __real@3dcccccd
CONST	SEGMENT
__real@3dcccccd DD 03dcccccdr			; 0.1
CONST	ENDS
;	COMDAT __real@3da3d70a
CONST	SEGMENT
__real@3da3d70a DD 03da3d70ar			; 0.08
CONST	ENDS
;	COMDAT __real@3d75c28f
CONST	SEGMENT
__real@3d75c28f DD 03d75c28fr			; 0.06
CONST	ENDS
;	COMDAT __real@3d4ccccd
CONST	SEGMENT
__real@3d4ccccd DD 03d4ccccdr			; 0.05
CONST	ENDS
;	COMDAT __real@00000000
CONST	SEGMENT
__real@00000000 DD 000000000r			; 0
CONST	ENDS
;	COMDAT ??_C@_1BC@ICCOKLEG@?$AAs?$AAt?$AAd?$AA?3?$AA?3?$AAm?$AAa?$AAx@
CONST	SEGMENT
??_C@_1BC@ICCOKLEG@?$AAs?$AAt?$AAd?$AA?3?$AA?3?$AAm?$AAa?$AAx@ DB 's', 00H
	DB	't', 00H, 'd', 00H, ':', 00H, ':', 00H, 'm', 00H, 'a', 00H, 'x'
	DB	00H, 00H, 00H				; `string'
CONST	ENDS
;	COMDAT ??_C@_1CK@NDNHPKPI@?$AA?$CC?$AAi?$AAn?$AAv?$AAa?$AAl?$AAi?$AAd?$AA?5?$AAc?$AAo?$AAm?$AAp?$AAa?$AAr@
CONST	SEGMENT
??_C@_1CK@NDNHPKPI@?$AA?$CC?$AAi?$AAn?$AAv?$AAa?$AAl?$AAi?$AAd?$AA?5?$AAc?$AAo?$AAm?$AAp?$AAa?$AAr@ DB '"'
	DB	00H, 'i', 00H, 'n', 00H, 'v', 00H, 'a', 00H, 'l', 00H, 'i', 00H
	DB	'd', 00H, ' ', 00H, 'c', 00H, 'o', 00H, 'm', 00H, 'p', 00H, 'a'
	DB	00H, 'r', 00H, 'a', 00H, 't', 00H, 'o', 00H, 'r', 00H, '"', 00H
	DB	00H, 00H					; `string'
CONST	ENDS
;	COMDAT ??_C@_1BC@BLAPCBGI@?$AAs?$AAt?$AAd?$AA?3?$AA?3?$AAm?$AAi?$AAn@
CONST	SEGMENT
??_C@_1BC@BLAPCBGI@?$AAs?$AAt?$AAd?$AA?3?$AA?3?$AAm?$AAi?$AAn@ DB 's', 00H
	DB	't', 00H, 'd', 00H, ':', 00H, ':', 00H, 'm', 00H, 'i', 00H, 'n'
	DB	00H, 00H, 00H				; `string'
CONST	ENDS
;	COMDAT ??_C@_1NE@FKBPBJEB@?$AAc?$AA?3?$AA?2?$AAp?$AAr?$AAo?$AAg?$AAr?$AAa?$AAm?$AA?5?$AAf?$AAi?$AAl?$AAe@
CONST	SEGMENT
??_C@_1NE@FKBPBJEB@?$AAc?$AA?3?$AA?2?$AAp?$AAr?$AAo?$AAg?$AAr?$AAa?$AAm?$AA?5?$AAf?$AAi?$AAl?$AAe@ DB 'c'
	DB	00H, ':', 00H, '\', 00H, 'p', 00H, 'r', 00H, 'o', 00H, 'g', 00H
	DB	'r', 00H, 'a', 00H, 'm', 00H, ' ', 00H, 'f', 00H, 'i', 00H, 'l'
	DB	00H, 'e', 00H, 's', 00H, ' ', 00H, '(', 00H, 'x', 00H, '8', 00H
	DB	'6', 00H, ')', 00H, '\', 00H, 'm', 00H, 'i', 00H, 'c', 00H, 'r'
	DB	00H, 'o', 00H, 's', 00H, 'o', 00H, 'f', 00H, 't', 00H, ' ', 00H
	DB	'v', 00H, 'i', 00H, 's', 00H, 'u', 00H, 'a', 00H, 'l', 00H, ' '
	DB	00H, 's', 00H, 't', 00H, 'u', 00H, 'd', 00H, 'i', 00H, 'o', 00H
	DB	'\', 00H, '2', 00H, '0', 00H, '1', 00H, '7', 00H, '\', 00H, 'c'
	DB	00H, 'o', 00H, 'm', 00H, 'm', 00H, 'u', 00H, 'n', 00H, 'i', 00H
	DB	't', 00H, 'y', 00H, '\', 00H, 'v', 00H, 'c', 00H, '\', 00H, 't'
	DB	00H, 'o', 00H, 'o', 00H, 'l', 00H, 's', 00H, '\', 00H, 'm', 00H
	DB	's', 00H, 'v', 00H, 'c', 00H, '\', 00H, '1', 00H, '4', 00H, '.'
	DB	00H, '1', 00H, '6', 00H, '.', 00H, '2', 00H, '7', 00H, '0', 00H
	DB	'2', 00H, '3', 00H, '\', 00H, 'i', 00H, 'n', 00H, 'c', 00H, 'l'
	DB	00H, 'u', 00H, 'd', 00H, 'e', 00H, '\', 00H, 'a', 00H, 'l', 00H
	DB	'g', 00H, 'o', 00H, 'r', 00H, 'i', 00H, 't', 00H, 'h', 00H, 'm'
	DB	00H, 00H, 00H				; `string'
CONST	ENDS
;	COMDAT ??_C@_0GK@JMBMHIBC@c?3?2program?5files?5?$CIx86?$CJ?2microsof@
CONST	SEGMENT
??_C@_0GK@JMBMHIBC@c?3?2program?5files?5?$CIx86?$CJ?2microsof@ DB 'c:\pro'
	DB	'gram files (x86)\microsoft visual studio\2017\community\vc\to'
	DB	'ols\msvc\14.16.27023\include\algorithm', 00H ; `string'
CONST	ENDS
;	COMDAT ??_C@_0BD@FEEMDEPI@invalid?5comparator@
CONST	SEGMENT
??_C@_0BD@FEEMDEPI@invalid?5comparator@ DB 'invalid comparator', 00H ; `string'
CONST	ENDS
;	COMDAT ??_C@_0BB@NKBBKCGJ@3ddata?2stars?4bin@
CONST	SEGMENT
??_C@_0BB@NKBBKCGJ@3ddata?2stars?4bin@ DB '3ddata\stars.bin', 00H ; `string'
CONST	ENDS
;	COMDAT ??_C@_0BI@DIKABNBI@3ddata?2horizon?2snow12am@
CONST	SEGMENT
??_C@_0BI@DIKABNBI@3ddata?2horizon?2snow12am@ DB '3ddata\horizon\snow12am'
	DB	00H						; `string'
CONST	ENDS
;	COMDAT ??_C@_0BH@FBMDPPAK@3ddata?2horizon?2snow9pm@
CONST	SEGMENT
??_C@_0BH@FBMDPPAK@3ddata?2horizon?2snow9pm@ DB '3ddata\horizon\snow9pm', 00H ; `string'
CONST	ENDS
;	COMDAT ??_C@_0BH@JKAOPFM@3ddata?2horizon?2snow6pm@
CONST	SEGMENT
??_C@_0BH@JKAOPFM@3ddata?2horizon?2snow6pm@ DB '3ddata\horizon\snow6pm', 00H ; `string'
CONST	ENDS
;	COMDAT ??_C@_0BH@DOHOBPGO@3ddata?2horizon?2snow3pm@
CONST	SEGMENT
??_C@_0BH@DOHOBPGO@3ddata?2horizon?2snow3pm@ DB '3ddata\horizon\snow3pm', 00H ; `string'
CONST	ENDS
;	COMDAT ??_C@_0BI@CFEENEFP@3ddata?2horizon?2snow12pm@
CONST	SEGMENT
??_C@_0BI@CFEENEFP@3ddata?2horizon?2snow12pm@ DB '3ddata\horizon\snow12pm'
	DB	00H						; `string'
CONST	ENDS
;	COMDAT ??_C@_0BH@EMCHDGEN@3ddata?2horizon?2snow9am@
CONST	SEGMENT
??_C@_0BH@EMCHDGEN@3ddata?2horizon?2snow9am@ DB '3ddata\horizon\snow9am', 00H ; `string'
CONST	ENDS
;	COMDAT ??_C@_0BH@BEEECGBL@3ddata?2horizon?2snow6am@
CONST	SEGMENT
??_C@_0BH@BEEECGBL@3ddata?2horizon?2snow6am@ DB '3ddata\horizon\snow6am', 00H ; `string'
CONST	ENDS
;	COMDAT ??_C@_0BG@IJBLONLB@3ddata?2horizon?2hr12am@
CONST	SEGMENT
??_C@_0BG@IJBLONLB@3ddata?2horizon?2hr12am@ DB '3ddata\horizon\hr12am', 00H ; `string'
CONST	ENDS
;	COMDAT ??_C@_0BF@OBNKHCDB@3ddata?2horizon?2hr9pm@
CONST	SEGMENT
??_C@_0BF@OBNKHCDB@3ddata?2horizon?2hr9pm@ DB '3ddata\horizon\hr9pm', 00H ; `string'
CONST	ENDS
;	COMDAT ??_C@_0BF@LJLJGCGH@3ddata?2horizon?2hr6pm@
CONST	SEGMENT
??_C@_0BF@LJLJGCGH@3ddata?2horizon?2hr6pm@ DB '3ddata\horizon\hr6pm', 00H ; `string'
CONST	ENDS
;	COMDAT ??_C@_0BF@IOGHJCFF@3ddata?2horizon?2hr3pm@
CONST	SEGMENT
??_C@_0BF@IOGHJCFF@3ddata?2horizon?2hr3pm@ DB '3ddata\horizon\hr3pm', 00H ; `string'
CONST	ENDS
;	COMDAT ??_C@_0BG@JEPPCEPG@3ddata?2horizon?2hr12pm@
CONST	SEGMENT
??_C@_0BG@JEPPCEPG@3ddata?2horizon?2hr12pm@ DB '3ddata\horizon\hr12pm', 00H ; `string'
CONST	ENDS
;	COMDAT ??_C@_0BF@PMDOLLHG@3ddata?2horizon?2hr9am@
CONST	SEGMENT
??_C@_0BF@PMDOLLHG@3ddata?2horizon?2hr9am@ DB '3ddata\horizon\hr9am', 00H ; `string'
CONST	ENDS
;	COMDAT ??_C@_0BF@KEFNKLCA@3ddata?2horizon?2hr6am@
CONST	SEGMENT
??_C@_0BF@KEFNKLCA@3ddata?2horizon?2hr6am@ DB '3ddata\horizon\hr6am', 00H ; `string'
CONST	ENDS
;	COMDAT ??_C@_0BG@HNFEMJKC@3ddata?2horizon?2lr12am@
CONST	SEGMENT
??_C@_0BG@HNFEMJKC@3ddata?2horizon?2lr12am@ DB '3ddata\horizon\lr12am', 00H ; `string'
CONST	ENDS
;	COMDAT ??_C@_0BF@HKELDACH@3ddata?2horizon?2lr9pm@
CONST	SEGMENT
??_C@_0BF@HKELDACH@3ddata?2horizon?2lr9pm@ DB '3ddata\horizon\lr9pm', 00H ; `string'
CONST	ENDS
;	COMDAT ??_C@_0BF@CCCICAHB@3ddata?2horizon?2lr6pm@
CONST	SEGMENT
??_C@_0BF@CCCICAHB@3ddata?2horizon?2lr6pm@ DB '3ddata\horizon\lr6pm', 00H ; `string'
CONST	ENDS
;	COMDAT ??_C@_0BF@BFPGNAED@3ddata?2horizon?2lr3pm@
CONST	SEGMENT
??_C@_0BF@BFPGNAED@3ddata?2horizon?2lr3pm@ DB '3ddata\horizon\lr3pm', 00H ; `string'
CONST	ENDS
;	COMDAT ??_C@_0BG@GALAAAOF@3ddata?2horizon?2lr12pm@
CONST	SEGMENT
??_C@_0BG@GALAAAOF@3ddata?2horizon?2lr12pm@ DB '3ddata\horizon\lr12pm', 00H ; `string'
CONST	ENDS
;	COMDAT ??_C@_0BF@GHKPPJGA@3ddata?2horizon?2lr9am@
CONST	SEGMENT
??_C@_0BF@GHKPPJGA@3ddata?2horizon?2lr9am@ DB '3ddata\horizon\lr9am', 00H ; `string'
CONST	ENDS
;	COMDAT ??_C@_0BF@DPMMOJDG@3ddata?2horizon?2lr6am@
CONST	SEGMENT
??_C@_0BF@DPMMOJDG@3ddata?2horizon?2lr6am@ DB '3ddata\horizon\lr6am', 00H ; `string'
CONST	ENDS
;	COMDAT ??_C@_0BH@EPBKDDKL@3ddata?2horizon?2dry12am@
CONST	SEGMENT
??_C@_0BH@EPBKDDKL@3ddata?2horizon?2dry12am@ DB '3ddata\horizon\dry12am', 00H ; `string'
CONST	ENDS
;	COMDAT ??_C@_0BG@OMNNNKAL@3ddata?2horizon?2dry9pm@
CONST	SEGMENT
??_C@_0BG@OMNNNKAL@3ddata?2horizon?2dry9pm@ DB '3ddata\horizon\dry9pm', 00H ; `string'
CONST	ENDS
;	COMDAT ??_C@_0BG@LELOMKFN@3ddata?2horizon?2dry6pm@
CONST	SEGMENT
??_C@_0BG@LELOMKFN@3ddata?2horizon?2dry6pm@ DB '3ddata\horizon\dry6pm', 00H ; `string'
CONST	ENDS
;	COMDAT ??_C@_0BG@IDGADKGP@3ddata?2horizon?2dry3pm@
CONST	SEGMENT
??_C@_0BG@IDGADKGP@3ddata?2horizon?2dry3pm@ DB '3ddata\horizon\dry3pm', 00H ; `string'
CONST	ENDS
;	COMDAT ??_C@_0BH@FCPOPKOM@3ddata?2horizon?2dry12pm@
CONST	SEGMENT
??_C@_0BH@FCPOPKOM@3ddata?2horizon?2dry12pm@ DB '3ddata\horizon\dry12pm', 00H ; `string'
CONST	ENDS
;	COMDAT ??_C@_0BG@PBDJBDEM@3ddata?2horizon?2dry9am@
CONST	SEGMENT
??_C@_0BG@PBDJBDEM@3ddata?2horizon?2dry9am@ DB '3ddata\horizon\dry9am', 00H ; `string'
CONST	ENDS
;	COMDAT ??_C@_0BG@KJFKADBK@3ddata?2horizon?2dry6am@
CONST	SEGMENT
??_C@_0BG@KJFKADBK@3ddata?2horizon?2dry6am@ DB '3ddata\horizon\dry6am', 00H ; `string'
CONST	ENDS
;	COMDAT ??_C@_0BE@DPPOKICC@3ddata?2displace?4bin@
CONST	SEGMENT
??_C@_0BE@DPPOKICC@3ddata?2displace?4bin@ DB '3ddata\displace.bin', 00H ; `string'
CONST	ENDS
;	COMDAT ??_C@_0FI@ILJGOAHJ@?$CD?$CD?$CDCUSTOM?5TEXTURE?5STARTUP?3?5init@
CONST	SEGMENT
??_C@_0FI@ILJGOAHJ@?$CD?$CD?$CDCUSTOM?5TEXTURE?5STARTUP?3?5init@ DB '###C'
	DB	'USTOM TEXTURE STARTUP: initialise_application_3d_system: init'
	DB	'ialise_custom_map_info', 00H		; `string'
CONST	ENDS
;	COMDAT ??_C@_06KIELAJID@3ddata@
CONST	SEGMENT
??_C@_06KIELAJID@3ddata@ DB '3ddata', 00H		; `string'
CONST	ENDS
;	COMDAT ??_C@_0BB@JJJMFBGD@Loading?5textures@
CONST	SEGMENT
??_C@_0BB@JJJMFBGD@Loading?5textures@ DB 'Loading textures', 00H ; `string'
CONST	ENDS
;	COMDAT ??_C@_0BJ@GPDFCBKC@Creating?5mfd?53d?5textures@
CONST	SEGMENT
??_C@_0BJ@GPDFCBKC@Creating?5mfd?53d?5textures@ DB 'Creating mfd 3d textu'
	DB	'res', 00H					; `string'
CONST	ENDS
;	COMDAT ??_C@_0BK@FFIFMNKK@?$CBmain_3d_single_light_env@
CONST	SEGMENT
??_C@_0BK@FFIFMNKK@?$CBmain_3d_single_light_env@ DB '!main_3d_single_ligh'
	DB	't_env', 00H					; `string'
CONST	ENDS
;	COMDAT ??_C@_0N@LOIAOAH@?$CBmain_3d_env@
CONST	SEGMENT
??_C@_0N@LOIAOAH@?$CBmain_3d_env@ DB '!main_3d_env', 00H ; `string'
CONST	ENDS
;	COMDAT ??_C@_0DM@BNNHFLJC@c?3?2users?2nhv90?2projects?2eech?2ap@
CONST	SEGMENT
??_C@_0DM@BNNHFLJC@c?3?2users?2nhv90?2projects?2eech?2ap@ DB 'c:\users\nh'
	DB	'v90\projects\eech\aphavoc\source\app3d\3d_init.c', 00H ; `string'
CONST	ENDS
;	COMDAT ?__LINE__Var@?0??initialise_application_3d_system@@YGXXZ@4JA
_DATA	SEGMENT
?__LINE__Var@?0??initialise_application_3d_system@@YGXXZ@4JA DD 05eH ; `initialise_application_3d_system'::`1'::__LINE__Var
_DATA	ENDS
;	COMDAT ??_C@_02DKCKIIND@?$CFs@
CONST	SEGMENT
??_C@_02DKCKIIND@?$CFs@ DB '%s', 00H			; `string'
CONST	ENDS
; Function compile flags: /Odtp /ZI
; File c:\program files (x86)\microsoft visual studio\2017\community\vc\tools\msvc\14.16.27023\include\algorithm
;	COMDAT ??$max@M@std@@YGABMABM0@Z
_TEXT	SEGMENT
__Left$ = 8						; size = 4
__Right$ = 12						; size = 4
??$max@M@std@@YGABMABM0@Z PROC				; std::max<float>, COMDAT

; 5387 : 	{	// return larger of _Left and _Right

  00000	55		 push	 ebp
  00001	8b ec		 mov	 ebp, esp
  00003	83 ec 40	 sub	 esp, 64			; 00000040H
  00006	53		 push	 ebx
  00007	56		 push	 esi
  00008	57		 push	 edi

; 5388 : 	if (_Left < _Right)

  00009	8b 45 0c	 mov	 eax, DWORD PTR __Right$[ebp]
  0000c	8b 4d 08	 mov	 ecx, DWORD PTR __Left$[ebp]
  0000f	f3 0f 10 00	 movss	 xmm0, DWORD PTR [eax]
  00013	0f 2f 01	 comiss	 xmm0, DWORD PTR [ecx]
  00016	76 64		 jbe	 SHORT $LN8@max
$LN4@max:

; 5389 : 		{
; 5390 : 		_STL_ASSERT(!(_Right < _Left), "invalid comparator");

  00018	8b 45 08	 mov	 eax, DWORD PTR __Left$[ebp]
  0001b	8b 4d 0c	 mov	 ecx, DWORD PTR __Right$[ebp]
  0001e	f3 0f 10 00	 movss	 xmm0, DWORD PTR [eax]
  00022	0f 2f 01	 comiss	 xmm0, DWORD PTR [ecx]
  00025	77 02		 ja	 SHORT $LN9@max
  00027	eb 4a		 jmp	 SHORT $LN6@max
$LN9@max:
  00029	68 00 00 00 00	 push	 OFFSET ??_C@_0BD@FEEMDEPI@invalid?5comparator@
  0002e	68 00 00 00 00	 push	 OFFSET ??_C@_02DKCKIIND@?$CFs@
  00033	6a 00		 push	 0
  00035	68 0e 15 00 00	 push	 5390			; 0000150eH
  0003a	68 00 00 00 00	 push	 OFFSET ??_C@_0GK@JMBMHIBC@c?3?2program?5files?5?$CIx86?$CJ?2microsof@
  0003f	6a 02		 push	 2
  00041	ff 15 00 00 00
	00		 call	 DWORD PTR __imp___CrtDbgReport
  00047	83 c4 18	 add	 esp, 24			; 00000018H
  0004a	83 f8 01	 cmp	 eax, 1
  0004d	75 01		 jne	 SHORT $LN12@max
  0004f	cc		 int	 3
$LN12@max:
  00050	6a 00		 push	 0
  00052	68 0e 15 00 00	 push	 5390			; 0000150eH
  00057	68 00 00 00 00	 push	 OFFSET ??_C@_1NE@FKBPBJEB@?$AAc?$AA?3?$AA?2?$AAp?$AAr?$AAo?$AAg?$AAr?$AAa?$AAm?$AA?5?$AAf?$AAi?$AAl?$AAe@
  0005c	68 00 00 00 00	 push	 OFFSET ??_C@_1BC@ICCOKLEG@?$AAs?$AAt?$AAd?$AA?3?$AA?3?$AAm?$AAa?$AAx@
  00061	68 00 00 00 00	 push	 OFFSET ??_C@_1CK@NDNHPKPI@?$AA?$CC?$AAi?$AAn?$AAv?$AAa?$AAl?$AAi?$AAd?$AA?5?$AAc?$AAo?$AAm?$AAp?$AAa?$AAr@
  00066	ff 15 00 00 00
	00		 call	 DWORD PTR __imp___invalid_parameter
  0006c	83 c4 14	 add	 esp, 20			; 00000014H
  0006f	33 c0		 xor	 eax, eax
  00071	75 b6		 jne	 SHORT $LN9@max
$LN6@max:
  00073	33 c0		 xor	 eax, eax
  00075	75 a1		 jne	 SHORT $LN4@max

; 5391 : 		return (_Right);

  00077	8b 45 0c	 mov	 eax, DWORD PTR __Right$[ebp]
  0007a	eb 03		 jmp	 SHORT $LN1@max
$LN8@max:

; 5392 : 		}
; 5393 : 
; 5394 : 	return (_Left);

  0007c	8b 45 08	 mov	 eax, DWORD PTR __Left$[ebp]
$LN1@max:

; 5395 : 	}

  0007f	5f		 pop	 edi
  00080	5e		 pop	 esi
  00081	5b		 pop	 ebx
  00082	8b e5		 mov	 esp, ebp
  00084	5d		 pop	 ebp
  00085	c2 08 00	 ret	 8
??$max@M@std@@YGABMABM0@Z ENDP				; std::max<float>
_TEXT	ENDS
; Function compile flags: /Odtp /ZI
; File c:\program files (x86)\microsoft visual studio\2017\community\vc\tools\msvc\14.16.27023\include\algorithm
;	COMDAT ??$min@M@std@@YGABMABM0@Z
_TEXT	SEGMENT
__Left$ = 8						; size = 4
__Right$ = 12						; size = 4
??$min@M@std@@YGABMABM0@Z PROC				; std::min<float>, COMDAT

; 5427 : 	{	// return smaller of _Left and _Right

  00000	55		 push	 ebp
  00001	8b ec		 mov	 ebp, esp
  00003	83 ec 40	 sub	 esp, 64			; 00000040H
  00006	53		 push	 ebx
  00007	56		 push	 esi
  00008	57		 push	 edi

; 5428 : 	if (_Right < _Left)

  00009	8b 45 08	 mov	 eax, DWORD PTR __Left$[ebp]
  0000c	8b 4d 0c	 mov	 ecx, DWORD PTR __Right$[ebp]
  0000f	f3 0f 10 00	 movss	 xmm0, DWORD PTR [eax]
  00013	0f 2f 01	 comiss	 xmm0, DWORD PTR [ecx]
  00016	76 64		 jbe	 SHORT $LN8@min
$LN4@min:

; 5429 : 		{
; 5430 : 		_STL_ASSERT(!(_Left < _Right), "invalid comparator");

  00018	8b 45 0c	 mov	 eax, DWORD PTR __Right$[ebp]
  0001b	8b 4d 08	 mov	 ecx, DWORD PTR __Left$[ebp]
  0001e	f3 0f 10 00	 movss	 xmm0, DWORD PTR [eax]
  00022	0f 2f 01	 comiss	 xmm0, DWORD PTR [ecx]
  00025	77 02		 ja	 SHORT $LN9@min
  00027	eb 4a		 jmp	 SHORT $LN6@min
$LN9@min:
  00029	68 00 00 00 00	 push	 OFFSET ??_C@_0BD@FEEMDEPI@invalid?5comparator@
  0002e	68 00 00 00 00	 push	 OFFSET ??_C@_02DKCKIIND@?$CFs@
  00033	6a 00		 push	 0
  00035	68 36 15 00 00	 push	 5430			; 00001536H
  0003a	68 00 00 00 00	 push	 OFFSET ??_C@_0GK@JMBMHIBC@c?3?2program?5files?5?$CIx86?$CJ?2microsof@
  0003f	6a 02		 push	 2
  00041	ff 15 00 00 00
	00		 call	 DWORD PTR __imp___CrtDbgReport
  00047	83 c4 18	 add	 esp, 24			; 00000018H
  0004a	83 f8 01	 cmp	 eax, 1
  0004d	75 01		 jne	 SHORT $LN12@min
  0004f	cc		 int	 3
$LN12@min:
  00050	6a 00		 push	 0
  00052	68 36 15 00 00	 push	 5430			; 00001536H
  00057	68 00 00 00 00	 push	 OFFSET ??_C@_1NE@FKBPBJEB@?$AAc?$AA?3?$AA?2?$AAp?$AAr?$AAo?$AAg?$AAr?$AAa?$AAm?$AA?5?$AAf?$AAi?$AAl?$AAe@
  0005c	68 00 00 00 00	 push	 OFFSET ??_C@_1BC@BLAPCBGI@?$AAs?$AAt?$AAd?$AA?3?$AA?3?$AAm?$AAi?$AAn@
  00061	68 00 00 00 00	 push	 OFFSET ??_C@_1CK@NDNHPKPI@?$AA?$CC?$AAi?$AAn?$AAv?$AAa?$AAl?$AAi?$AAd?$AA?5?$AAc?$AAo?$AAm?$AAp?$AAa?$AAr@
  00066	ff 15 00 00 00
	00		 call	 DWORD PTR __imp___invalid_parameter
  0006c	83 c4 14	 add	 esp, 20			; 00000014H
  0006f	33 c0		 xor	 eax, eax
  00071	75 b6		 jne	 SHORT $LN9@min
$LN6@min:
  00073	33 c0		 xor	 eax, eax
  00075	75 a1		 jne	 SHORT $LN4@min

; 5431 : 		return (_Right);

  00077	8b 45 0c	 mov	 eax, DWORD PTR __Right$[ebp]
  0007a	eb 03		 jmp	 SHORT $LN1@min
$LN8@min:

; 5432 : 		}
; 5433 : 
; 5434 : 	return (_Left);

  0007c	8b 45 08	 mov	 eax, DWORD PTR __Left$[ebp]
$LN1@min:

; 5435 : 	}

  0007f	5f		 pop	 edi
  00080	5e		 pop	 esi
  00081	5b		 pop	 ebx
  00082	8b e5		 mov	 esp, ebp
  00084	5d		 pop	 ebp
  00085	c2 08 00	 ret	 8
??$min@M@std@@YGABMABM0@Z ENDP				; std::min<float>
_TEXT	ENDS
; Function compile flags: /Odtp /ZI
; File c:\users\nhv90\projects\eech\aphavoc\source\app3d\3d_init.c
;	COMDAT ?modify_3d_objects_approximations@@YGXM@Z
_TEXT	SEGMENT
_factor$ = 8						; size = 4
?modify_3d_objects_approximations@@YGXM@Z PROC		; modify_3d_objects_approximations, COMDAT

; 869  : {

  00000	55		 push	 ebp
  00001	8b ec		 mov	 ebp, esp
  00003	83 ec 40	 sub	 esp, 64			; 00000040H
  00006	53		 push	 ebx
  00007	56		 push	 esi
  00008	57		 push	 edi

; 870  : 
; 871  : 	scale_object_3d_approximation_distances ( OBJECT_3D_AH64D_APACHE_LONGBOW,	1.0 * factor );

  00009	f3 0f 5a 45 08	 cvtss2sd xmm0, DWORD PTR _factor$[ebp]
  0000e	f2 0f 59 05 00
	00 00 00	 mulsd	 xmm0, QWORD PTR __real@3ff0000000000000
  00016	f2 0f 5a c0	 cvtsd2ss xmm0, xmm0
  0001a	51		 push	 ecx
  0001b	f3 0f 11 04 24	 movss	 DWORD PTR [esp], xmm0
  00020	6a 01		 push	 1
  00022	e8 00 00 00 00	 call	 ?scale_object_3d_approximation_distances@@YGXHM@Z ; scale_object_3d_approximation_distances

; 872  : 	scale_object_3d_approximation_distances ( OBJECT_3D_UH60_BLACKHAWK,			1.0 * factor );

  00027	f3 0f 5a 45 08	 cvtss2sd xmm0, DWORD PTR _factor$[ebp]
  0002c	f2 0f 59 05 00
	00 00 00	 mulsd	 xmm0, QWORD PTR __real@3ff0000000000000
  00034	f2 0f 5a c0	 cvtsd2ss xmm0, xmm0
  00038	51		 push	 ecx
  00039	f3 0f 11 04 24	 movss	 DWORD PTR [esp], xmm0
  0003e	6a 02		 push	 2
  00040	e8 00 00 00 00	 call	 ?scale_object_3d_approximation_distances@@YGXHM@Z ; scale_object_3d_approximation_distances

; 873  : 	scale_object_3d_approximation_distances ( OBJECT_3D_CH_3,						1.0 * factor );

  00045	f3 0f 5a 45 08	 cvtss2sd xmm0, DWORD PTR _factor$[ebp]
  0004a	f2 0f 59 05 00
	00 00 00	 mulsd	 xmm0, QWORD PTR __real@3ff0000000000000
  00052	f2 0f 5a c0	 cvtsd2ss xmm0, xmm0
  00056	51		 push	 ecx
  00057	f3 0f 11 04 24	 movss	 DWORD PTR [esp], xmm0
  0005c	6a 03		 push	 3
  0005e	e8 00 00 00 00	 call	 ?scale_object_3d_approximation_distances@@YGXHM@Z ; scale_object_3d_approximation_distances

; 874  : 	scale_object_3d_approximation_distances ( OBJECT_3D_CH_46,						1.0 * factor );

  00063	f3 0f 5a 45 08	 cvtss2sd xmm0, DWORD PTR _factor$[ebp]
  00068	f2 0f 59 05 00
	00 00 00	 mulsd	 xmm0, QWORD PTR __real@3ff0000000000000
  00070	f2 0f 5a c0	 cvtsd2ss xmm0, xmm0
  00074	51		 push	 ecx
  00075	f3 0f 11 04 24	 movss	 DWORD PTR [esp], xmm0
  0007a	6a 04		 push	 4
  0007c	e8 00 00 00 00	 call	 ?scale_object_3d_approximation_distances@@YGXHM@Z ; scale_object_3d_approximation_distances

; 875  : 	scale_object_3d_approximation_distances ( OBJECT_3D_CH47D_CHINOOK,			1.0 * factor );

  00081	f3 0f 5a 45 08	 cvtss2sd xmm0, DWORD PTR _factor$[ebp]
  00086	f2 0f 59 05 00
	00 00 00	 mulsd	 xmm0, QWORD PTR __real@3ff0000000000000
  0008e	f2 0f 5a c0	 cvtsd2ss xmm0, xmm0
  00092	51		 push	 ecx
  00093	f3 0f 11 04 24	 movss	 DWORD PTR [esp], xmm0
  00098	6a 05		 push	 5
  0009a	e8 00 00 00 00	 call	 ?scale_object_3d_approximation_distances@@YGXHM@Z ; scale_object_3d_approximation_distances

; 876  : 	scale_object_3d_approximation_distances ( OBJECT_3D_MI28N_HAVOC,				1.0 * factor );

  0009f	f3 0f 5a 45 08	 cvtss2sd xmm0, DWORD PTR _factor$[ebp]
  000a4	f2 0f 59 05 00
	00 00 00	 mulsd	 xmm0, QWORD PTR __real@3ff0000000000000
  000ac	f2 0f 5a c0	 cvtsd2ss xmm0, xmm0
  000b0	51		 push	 ecx
  000b1	f3 0f 11 04 24	 movss	 DWORD PTR [esp], xmm0
  000b6	6a 06		 push	 6
  000b8	e8 00 00 00 00	 call	 ?scale_object_3d_approximation_distances@@YGXHM@Z ; scale_object_3d_approximation_distances

; 877  : 	scale_object_3d_approximation_distances ( OBJECT_3D_KA29_HELIX_B,				1.0 * factor );

  000bd	f3 0f 5a 45 08	 cvtss2sd xmm0, DWORD PTR _factor$[ebp]
  000c2	f2 0f 59 05 00
	00 00 00	 mulsd	 xmm0, QWORD PTR __real@3ff0000000000000
  000ca	f2 0f 5a c0	 cvtsd2ss xmm0, xmm0
  000ce	51		 push	 ecx
  000cf	f3 0f 11 04 24	 movss	 DWORD PTR [esp], xmm0
  000d4	6a 07		 push	 7
  000d6	e8 00 00 00 00	 call	 ?scale_object_3d_approximation_distances@@YGXHM@Z ; scale_object_3d_approximation_distances

; 878  : 	scale_object_3d_approximation_distances ( OBJECT_3D_MI24_HIND,					1.0 * factor );

  000db	f3 0f 5a 45 08	 cvtss2sd xmm0, DWORD PTR _factor$[ebp]
  000e0	f2 0f 59 05 00
	00 00 00	 mulsd	 xmm0, QWORD PTR __real@3ff0000000000000
  000e8	f2 0f 5a c0	 cvtsd2ss xmm0, xmm0
  000ec	51		 push	 ecx
  000ed	f3 0f 11 04 24	 movss	 DWORD PTR [esp], xmm0
  000f2	6a 08		 push	 8
  000f4	e8 00 00 00 00	 call	 ?scale_object_3d_approximation_distances@@YGXHM@Z ; scale_object_3d_approximation_distances

; 879  : 	scale_object_3d_approximation_distances ( OBJECT_3D_MI17_HIP,					1.0 * factor );

  000f9	f3 0f 5a 45 08	 cvtss2sd xmm0, DWORD PTR _factor$[ebp]
  000fe	f2 0f 59 05 00
	00 00 00	 mulsd	 xmm0, QWORD PTR __real@3ff0000000000000
  00106	f2 0f 5a c0	 cvtsd2ss xmm0, xmm0
  0010a	51		 push	 ecx
  0010b	f3 0f 11 04 24	 movss	 DWORD PTR [esp], xmm0
  00110	6a 09		 push	 9
  00112	e8 00 00 00 00	 call	 ?scale_object_3d_approximation_distances@@YGXHM@Z ; scale_object_3d_approximation_distances

; 880  : 	scale_object_3d_approximation_distances ( OBJECT_3D_MI6_HOOK,					1.0 * factor );

  00117	f3 0f 5a 45 08	 cvtss2sd xmm0, DWORD PTR _factor$[ebp]
  0011c	f2 0f 59 05 00
	00 00 00	 mulsd	 xmm0, QWORD PTR __real@3ff0000000000000
  00124	f2 0f 5a c0	 cvtsd2ss xmm0, xmm0
  00128	51		 push	 ecx
  00129	f3 0f 11 04 24	 movss	 DWORD PTR [esp], xmm0
  0012e	6a 0a		 push	 10			; 0000000aH
  00130	e8 00 00 00 00	 call	 ?scale_object_3d_approximation_distances@@YGXHM@Z ; scale_object_3d_approximation_distances

; 881  : 
; 882  : 	scale_object_3d_approximation_distances ( OBJECT_3D_A10A_THUNDERBOLT,		1.0 * factor );

  00135	f3 0f 5a 45 08	 cvtss2sd xmm0, DWORD PTR _factor$[ebp]
  0013a	f2 0f 59 05 00
	00 00 00	 mulsd	 xmm0, QWORD PTR __real@3ff0000000000000
  00142	f2 0f 5a c0	 cvtsd2ss xmm0, xmm0
  00146	51		 push	 ecx
  00147	f3 0f 11 04 24	 movss	 DWORD PTR [esp], xmm0
  0014c	6a 18		 push	 24			; 00000018H
  0014e	e8 00 00 00 00	 call	 ?scale_object_3d_approximation_distances@@YGXHM@Z ; scale_object_3d_approximation_distances

; 883  : 	scale_object_3d_approximation_distances ( OBJECT_3D_F16_FIGHTING_FALCON,	1.0 * factor );

  00153	f3 0f 5a 45 08	 cvtss2sd xmm0, DWORD PTR _factor$[ebp]
  00158	f2 0f 59 05 00
	00 00 00	 mulsd	 xmm0, QWORD PTR __real@3ff0000000000000
  00160	f2 0f 5a c0	 cvtsd2ss xmm0, xmm0
  00164	51		 push	 ecx
  00165	f3 0f 11 04 24	 movss	 DWORD PTR [esp], xmm0
  0016a	6a 1a		 push	 26			; 0000001aH
  0016c	e8 00 00 00 00	 call	 ?scale_object_3d_approximation_distances@@YGXHM@Z ; scale_object_3d_approximation_distances

; 884  : 	scale_object_3d_approximation_distances ( OBJECT_3D_FA_18,						1.0 * factor );

  00171	f3 0f 5a 45 08	 cvtss2sd xmm0, DWORD PTR _factor$[ebp]
  00176	f2 0f 59 05 00
	00 00 00	 mulsd	 xmm0, QWORD PTR __real@3ff0000000000000
  0017e	f2 0f 5a c0	 cvtsd2ss xmm0, xmm0
  00182	51		 push	 ecx
  00183	f3 0f 11 04 24	 movss	 DWORD PTR [esp], xmm0
  00188	6a 1c		 push	 28			; 0000001cH
  0018a	e8 00 00 00 00	 call	 ?scale_object_3d_approximation_distances@@YGXHM@Z ; scale_object_3d_approximation_distances

; 885  : 	scale_object_3d_approximation_distances ( OBJECT_3D_MIG29_FULCRUM,			1.0 * factor );

  0018f	f3 0f 5a 45 08	 cvtss2sd xmm0, DWORD PTR _factor$[ebp]
  00194	f2 0f 59 05 00
	00 00 00	 mulsd	 xmm0, QWORD PTR __real@3ff0000000000000
  0019c	f2 0f 5a c0	 cvtsd2ss xmm0, xmm0
  001a0	51		 push	 ecx
  001a1	f3 0f 11 04 24	 movss	 DWORD PTR [esp], xmm0
  001a6	6a 1e		 push	 30			; 0000001eH
  001a8	e8 00 00 00 00	 call	 ?scale_object_3d_approximation_distances@@YGXHM@Z ; scale_object_3d_approximation_distances

; 886  : 	scale_object_3d_approximation_distances ( OBJECT_3D_HARRIER,					1.0 * factor );

  001ad	f3 0f 5a 45 08	 cvtss2sd xmm0, DWORD PTR _factor$[ebp]
  001b2	f2 0f 59 05 00
	00 00 00	 mulsd	 xmm0, QWORD PTR __real@3ff0000000000000
  001ba	f2 0f 5a c0	 cvtsd2ss xmm0, xmm0
  001be	51		 push	 ecx
  001bf	f3 0f 11 04 24	 movss	 DWORD PTR [esp], xmm0
  001c4	6a 20		 push	 32			; 00000020H
  001c6	e8 00 00 00 00	 call	 ?scale_object_3d_approximation_distances@@YGXHM@Z ; scale_object_3d_approximation_distances

; 887  : 	scale_object_3d_approximation_distances ( OBJECT_3D_HARRIER_DESTROYED,		1.0 * factor );

  001cb	f3 0f 5a 45 08	 cvtss2sd xmm0, DWORD PTR _factor$[ebp]
  001d0	f2 0f 59 05 00
	00 00 00	 mulsd	 xmm0, QWORD PTR __real@3ff0000000000000
  001d8	f2 0f 5a c0	 cvtsd2ss xmm0, xmm0
  001dc	51		 push	 ecx
  001dd	f3 0f 11 04 24	 movss	 DWORD PTR [esp], xmm0
  001e2	6a 21		 push	 33			; 00000021H
  001e4	e8 00 00 00 00	 call	 ?scale_object_3d_approximation_distances@@YGXHM@Z ; scale_object_3d_approximation_distances

; 888  : 	scale_object_3d_approximation_distances ( OBJECT_3D_SU25,						1.0 * factor );

  001e9	f3 0f 5a 45 08	 cvtss2sd xmm0, DWORD PTR _factor$[ebp]
  001ee	f2 0f 59 05 00
	00 00 00	 mulsd	 xmm0, QWORD PTR __real@3ff0000000000000
  001f6	f2 0f 5a c0	 cvtsd2ss xmm0, xmm0
  001fa	51		 push	 ecx
  001fb	f3 0f 11 04 24	 movss	 DWORD PTR [esp], xmm0
  00200	6a 22		 push	 34			; 00000022H
  00202	e8 00 00 00 00	 call	 ?scale_object_3d_approximation_distances@@YGXHM@Z ; scale_object_3d_approximation_distances

; 889  : 	scale_object_3d_approximation_distances ( OBJECT_3D_SU33,						1.0 * factor );

  00207	f3 0f 5a 45 08	 cvtss2sd xmm0, DWORD PTR _factor$[ebp]
  0020c	f2 0f 59 05 00
	00 00 00	 mulsd	 xmm0, QWORD PTR __real@3ff0000000000000
  00214	f2 0f 5a c0	 cvtsd2ss xmm0, xmm0
  00218	51		 push	 ecx
  00219	f3 0f 11 04 24	 movss	 DWORD PTR [esp], xmm0
  0021e	6a 24		 push	 36			; 00000024H
  00220	e8 00 00 00 00	 call	 ?scale_object_3d_approximation_distances@@YGXHM@Z ; scale_object_3d_approximation_distances

; 890  : 	scale_object_3d_approximation_distances ( OBJECT_3D_YAK_41,						1.0 * factor );

  00225	f3 0f 5a 45 08	 cvtss2sd xmm0, DWORD PTR _factor$[ebp]
  0022a	f2 0f 59 05 00
	00 00 00	 mulsd	 xmm0, QWORD PTR __real@3ff0000000000000
  00232	f2 0f 5a c0	 cvtsd2ss xmm0, xmm0
  00236	51		 push	 ecx
  00237	f3 0f 11 04 24	 movss	 DWORD PTR [esp], xmm0
  0023c	6a 26		 push	 38			; 00000026H
  0023e	e8 00 00 00 00	 call	 ?scale_object_3d_approximation_distances@@YGXHM@Z ; scale_object_3d_approximation_distances

; 891  : 
; 892  : 	scale_object_3d_approximation_distances ( OBJECT_3D_M730A1,						1.0 * factor );

  00243	f3 0f 5a 45 08	 cvtss2sd xmm0, DWORD PTR _factor$[ebp]
  00248	f2 0f 59 05 00
	00 00 00	 mulsd	 xmm0, QWORD PTR __real@3ff0000000000000
  00250	f2 0f 5a c0	 cvtsd2ss xmm0, xmm0
  00254	51		 push	 ecx
  00255	f3 0f 11 04 24	 movss	 DWORD PTR [esp], xmm0
  0025a	68 6c 0a 00 00	 push	 2668			; 00000a6cH
  0025f	e8 00 00 00 00	 call	 ?scale_object_3d_approximation_distances@@YGXHM@Z ; scale_object_3d_approximation_distances

; 893  : 	scale_object_3d_approximation_distances ( OBJECT_3D_SA13,						1.0 * factor );

  00264	f3 0f 5a 45 08	 cvtss2sd xmm0, DWORD PTR _factor$[ebp]
  00269	f2 0f 59 05 00
	00 00 00	 mulsd	 xmm0, QWORD PTR __real@3ff0000000000000
  00271	f2 0f 5a c0	 cvtsd2ss xmm0, xmm0
  00275	51		 push	 ecx
  00276	f3 0f 11 04 24	 movss	 DWORD PTR [esp], xmm0
  0027b	68 6e 0a 00 00	 push	 2670			; 00000a6eH
  00280	e8 00 00 00 00	 call	 ?scale_object_3d_approximation_distances@@YGXHM@Z ; scale_object_3d_approximation_distances

; 894  : 	scale_object_3d_approximation_distances ( OBJECT_3D_SA13_DESTROYED,			1.0 * factor );

  00285	f3 0f 5a 45 08	 cvtss2sd xmm0, DWORD PTR _factor$[ebp]
  0028a	f2 0f 59 05 00
	00 00 00	 mulsd	 xmm0, QWORD PTR __real@3ff0000000000000
  00292	f2 0f 5a c0	 cvtsd2ss xmm0, xmm0
  00296	51		 push	 ecx
  00297	f3 0f 11 04 24	 movss	 DWORD PTR [esp], xmm0
  0029c	68 6f 0a 00 00	 push	 2671			; 00000a6fH
  002a1	e8 00 00 00 00	 call	 ?scale_object_3d_approximation_distances@@YGXHM@Z ; scale_object_3d_approximation_distances

; 895  : 	scale_object_3d_approximation_distances ( OBJECT_3D_SA19_GRISON,				1.0 * factor );

  002a6	f3 0f 5a 45 08	 cvtss2sd xmm0, DWORD PTR _factor$[ebp]
  002ab	f2 0f 59 05 00
	00 00 00	 mulsd	 xmm0, QWORD PTR __real@3ff0000000000000
  002b3	f2 0f 5a c0	 cvtsd2ss xmm0, xmm0
  002b7	51		 push	 ecx
  002b8	f3 0f 11 04 24	 movss	 DWORD PTR [esp], xmm0
  002bd	68 70 0a 00 00	 push	 2672			; 00000a70H
  002c2	e8 00 00 00 00	 call	 ?scale_object_3d_approximation_distances@@YGXHM@Z ; scale_object_3d_approximation_distances

; 896  : 	scale_object_3d_approximation_distances ( OBJECT_3D_SA19_GRISON_DESTROYED,	1.0 * factor );

  002c7	f3 0f 5a 45 08	 cvtss2sd xmm0, DWORD PTR _factor$[ebp]
  002cc	f2 0f 59 05 00
	00 00 00	 mulsd	 xmm0, QWORD PTR __real@3ff0000000000000
  002d4	f2 0f 5a c0	 cvtsd2ss xmm0, xmm0
  002d8	51		 push	 ecx
  002d9	f3 0f 11 04 24	 movss	 DWORD PTR [esp], xmm0
  002de	68 71 0a 00 00	 push	 2673			; 00000a71H
  002e3	e8 00 00 00 00	 call	 ?scale_object_3d_approximation_distances@@YGXHM@Z ; scale_object_3d_approximation_distances

; 897  : 	scale_object_3d_approximation_distances ( OBJECT_3D_M_163_A1,					1.0 * factor );

  002e8	f3 0f 5a 45 08	 cvtss2sd xmm0, DWORD PTR _factor$[ebp]
  002ed	f2 0f 59 05 00
	00 00 00	 mulsd	 xmm0, QWORD PTR __real@3ff0000000000000
  002f5	f2 0f 5a c0	 cvtsd2ss xmm0, xmm0
  002f9	51		 push	 ecx
  002fa	f3 0f 11 04 24	 movss	 DWORD PTR [esp], xmm0
  002ff	68 72 0a 00 00	 push	 2674			; 00000a72H
  00304	e8 00 00 00 00	 call	 ?scale_object_3d_approximation_distances@@YGXHM@Z ; scale_object_3d_approximation_distances

; 898  : 	scale_object_3d_approximation_distances ( OBJECT_3D_M_163_A1_DESTROYED,		1.0 * factor );

  00309	f3 0f 5a 45 08	 cvtss2sd xmm0, DWORD PTR _factor$[ebp]
  0030e	f2 0f 59 05 00
	00 00 00	 mulsd	 xmm0, QWORD PTR __real@3ff0000000000000
  00316	f2 0f 5a c0	 cvtsd2ss xmm0, xmm0
  0031a	51		 push	 ecx
  0031b	f3 0f 11 04 24	 movss	 DWORD PTR [esp], xmm0
  00320	68 73 0a 00 00	 push	 2675			; 00000a73H
  00325	e8 00 00 00 00	 call	 ?scale_object_3d_approximation_distances@@YGXHM@Z ; scale_object_3d_approximation_distances

; 899  : 	scale_object_3d_approximation_distances ( OBJECT_3D_M1A2_ABRAMS,				1.0 * factor );

  0032a	f3 0f 5a 45 08	 cvtss2sd xmm0, DWORD PTR _factor$[ebp]
  0032f	f2 0f 59 05 00
	00 00 00	 mulsd	 xmm0, QWORD PTR __real@3ff0000000000000
  00337	f2 0f 5a c0	 cvtsd2ss xmm0, xmm0
  0033b	51		 push	 ecx
  0033c	f3 0f 11 04 24	 movss	 DWORD PTR [esp], xmm0
  00341	68 74 0a 00 00	 push	 2676			; 00000a74H
  00346	e8 00 00 00 00	 call	 ?scale_object_3d_approximation_distances@@YGXHM@Z ; scale_object_3d_approximation_distances

; 900  : 	scale_object_3d_approximation_distances ( OBJECT_3D_BMP2,						1.0 * factor );

  0034b	f3 0f 5a 45 08	 cvtss2sd xmm0, DWORD PTR _factor$[ebp]
  00350	f2 0f 59 05 00
	00 00 00	 mulsd	 xmm0, QWORD PTR __real@3ff0000000000000
  00358	f2 0f 5a c0	 cvtsd2ss xmm0, xmm0
  0035c	51		 push	 ecx
  0035d	f3 0f 11 04 24	 movss	 DWORD PTR [esp], xmm0
  00362	68 75 0a 00 00	 push	 2677			; 00000a75H
  00367	e8 00 00 00 00	 call	 ?scale_object_3d_approximation_distances@@YGXHM@Z ; scale_object_3d_approximation_distances

; 901  : 	scale_object_3d_approximation_distances ( OBJECT_3D_BMP3,						1.0 * factor );

  0036c	f3 0f 5a 45 08	 cvtss2sd xmm0, DWORD PTR _factor$[ebp]
  00371	f2 0f 59 05 00
	00 00 00	 mulsd	 xmm0, QWORD PTR __real@3ff0000000000000
  00379	f2 0f 5a c0	 cvtsd2ss xmm0, xmm0
  0037d	51		 push	 ecx
  0037e	f3 0f 11 04 24	 movss	 DWORD PTR [esp], xmm0
  00383	68 76 0a 00 00	 push	 2678			; 00000a76H
  00388	e8 00 00 00 00	 call	 ?scale_object_3d_approximation_distances@@YGXHM@Z ; scale_object_3d_approximation_distances

; 902  : 	scale_object_3d_approximation_distances ( OBJECT_3D_M2A2_BRADLEY,				1.0 * factor );

  0038d	f3 0f 5a 45 08	 cvtss2sd xmm0, DWORD PTR _factor$[ebp]
  00392	f2 0f 59 05 00
	00 00 00	 mulsd	 xmm0, QWORD PTR __real@3ff0000000000000
  0039a	f2 0f 5a c0	 cvtsd2ss xmm0, xmm0
  0039e	51		 push	 ecx
  0039f	f3 0f 11 04 24	 movss	 DWORD PTR [esp], xmm0
  003a4	68 77 0a 00 00	 push	 2679			; 00000a77H
  003a9	e8 00 00 00 00	 call	 ?scale_object_3d_approximation_distances@@YGXHM@Z ; scale_object_3d_approximation_distances

; 903  : 	scale_object_3d_approximation_distances ( OBJECT_3D_BRDM_2,						1.0 * factor );

  003ae	f3 0f 5a 45 08	 cvtss2sd xmm0, DWORD PTR _factor$[ebp]
  003b3	f2 0f 59 05 00
	00 00 00	 mulsd	 xmm0, QWORD PTR __real@3ff0000000000000
  003bb	f2 0f 5a c0	 cvtsd2ss xmm0, xmm0
  003bf	51		 push	 ecx
  003c0	f3 0f 11 04 24	 movss	 DWORD PTR [esp], xmm0
  003c5	68 78 0a 00 00	 push	 2680			; 00000a78H
  003ca	e8 00 00 00 00	 call	 ?scale_object_3d_approximation_distances@@YGXHM@Z ; scale_object_3d_approximation_distances

; 904  : 	scale_object_3d_approximation_distances ( OBJECT_3D_BTR_80,						1.0 * factor );

  003cf	f3 0f 5a 45 08	 cvtss2sd xmm0, DWORD PTR _factor$[ebp]
  003d4	f2 0f 59 05 00
	00 00 00	 mulsd	 xmm0, QWORD PTR __real@3ff0000000000000
  003dc	f2 0f 5a c0	 cvtsd2ss xmm0, xmm0
  003e0	51		 push	 ecx
  003e1	f3 0f 11 04 24	 movss	 DWORD PTR [esp], xmm0
  003e6	68 79 0a 00 00	 push	 2681			; 00000a79H
  003eb	e8 00 00 00 00	 call	 ?scale_object_3d_approximation_distances@@YGXHM@Z ; scale_object_3d_approximation_distances

; 905  : 	scale_object_3d_approximation_distances ( OBJECT_3D_T_80,						1.0 * factor );

  003f0	f3 0f 5a 45 08	 cvtss2sd xmm0, DWORD PTR _factor$[ebp]
  003f5	f2 0f 59 05 00
	00 00 00	 mulsd	 xmm0, QWORD PTR __real@3ff0000000000000
  003fd	f2 0f 5a c0	 cvtsd2ss xmm0, xmm0
  00401	51		 push	 ecx
  00402	f3 0f 11 04 24	 movss	 DWORD PTR [esp], xmm0
  00407	68 7a 0a 00 00	 push	 2682			; 00000a7aH
  0040c	e8 00 00 00 00	 call	 ?scale_object_3d_approximation_distances@@YGXHM@Z ; scale_object_3d_approximation_distances

; 906  : 	scale_object_3d_approximation_distances ( OBJECT_3D_2S19,						1.0 * factor );

  00411	f3 0f 5a 45 08	 cvtss2sd xmm0, DWORD PTR _factor$[ebp]
  00416	f2 0f 59 05 00
	00 00 00	 mulsd	 xmm0, QWORD PTR __real@3ff0000000000000
  0041e	f2 0f 5a c0	 cvtsd2ss xmm0, xmm0
  00422	51		 push	 ecx
  00423	f3 0f 11 04 24	 movss	 DWORD PTR [esp], xmm0
  00428	68 82 0a 00 00	 push	 2690			; 00000a82H
  0042d	e8 00 00 00 00	 call	 ?scale_object_3d_approximation_distances@@YGXHM@Z ; scale_object_3d_approximation_distances

; 907  : 	scale_object_3d_approximation_distances ( OBJECT_3D_BM_21,						1.0 * factor );

  00432	f3 0f 5a 45 08	 cvtss2sd xmm0, DWORD PTR _factor$[ebp]
  00437	f2 0f 59 05 00
	00 00 00	 mulsd	 xmm0, QWORD PTR __real@3ff0000000000000
  0043f	f2 0f 5a c0	 cvtsd2ss xmm0, xmm0
  00443	51		 push	 ecx
  00444	f3 0f 11 04 24	 movss	 DWORD PTR [esp], xmm0
  00449	68 84 0a 00 00	 push	 2692			; 00000a84H
  0044e	e8 00 00 00 00	 call	 ?scale_object_3d_approximation_distances@@YGXHM@Z ; scale_object_3d_approximation_distances

; 908  : 	scale_object_3d_approximation_distances ( OBJECT_3D_M109A2,						1.0 * factor );

  00453	f3 0f 5a 45 08	 cvtss2sd xmm0, DWORD PTR _factor$[ebp]
  00458	f2 0f 59 05 00
	00 00 00	 mulsd	 xmm0, QWORD PTR __real@3ff0000000000000
  00460	f2 0f 5a c0	 cvtsd2ss xmm0, xmm0
  00464	51		 push	 ecx
  00465	f3 0f 11 04 24	 movss	 DWORD PTR [esp], xmm0
  0046a	68 86 0a 00 00	 push	 2694			; 00000a86H
  0046f	e8 00 00 00 00	 call	 ?scale_object_3d_approximation_distances@@YGXHM@Z ; scale_object_3d_approximation_distances

; 909  : 	scale_object_3d_approximation_distances ( OBJECT_3D_MLRS,						1.0 * factor );

  00474	f3 0f 5a 45 08	 cvtss2sd xmm0, DWORD PTR _factor$[ebp]
  00479	f2 0f 59 05 00
	00 00 00	 mulsd	 xmm0, QWORD PTR __real@3ff0000000000000
  00481	f2 0f 5a c0	 cvtsd2ss xmm0, xmm0
  00485	51		 push	 ecx
  00486	f3 0f 11 04 24	 movss	 DWORD PTR [esp], xmm0
  0048b	68 88 0a 00 00	 push	 2696			; 00000a88H
  00490	e8 00 00 00 00	 call	 ?scale_object_3d_approximation_distances@@YGXHM@Z ; scale_object_3d_approximation_distances

; 910  : 	scale_object_3d_approximation_distances ( OBJECT_3D_HMMWV,						1.0 * factor );

  00495	f3 0f 5a 45 08	 cvtss2sd xmm0, DWORD PTR _factor$[ebp]
  0049a	f2 0f 59 05 00
	00 00 00	 mulsd	 xmm0, QWORD PTR __real@3ff0000000000000
  004a2	f2 0f 5a c0	 cvtsd2ss xmm0, xmm0
  004a6	51		 push	 ecx
  004a7	f3 0f 11 04 24	 movss	 DWORD PTR [esp], xmm0
  004ac	68 8b 0a 00 00	 push	 2699			; 00000a8bH
  004b1	e8 00 00 00 00	 call	 ?scale_object_3d_approximation_distances@@YGXHM@Z ; scale_object_3d_approximation_distances

; 911  : 	scale_object_3d_approximation_distances ( OBJECT_3D_HMMWV_DESTROYED,			1.0 * factor );

  004b6	f3 0f 5a 45 08	 cvtss2sd xmm0, DWORD PTR _factor$[ebp]
  004bb	f2 0f 59 05 00
	00 00 00	 mulsd	 xmm0, QWORD PTR __real@3ff0000000000000
  004c3	f2 0f 5a c0	 cvtsd2ss xmm0, xmm0
  004c7	51		 push	 ecx
  004c8	f3 0f 11 04 24	 movss	 DWORD PTR [esp], xmm0
  004cd	68 8c 0a 00 00	 push	 2700			; 00000a8cH
  004d2	e8 00 00 00 00	 call	 ?scale_object_3d_approximation_distances@@YGXHM@Z ; scale_object_3d_approximation_distances

; 912  : 	scale_object_3d_approximation_distances ( OBJECT_3D_M_923A1_COVERED,			1.0 * factor );

  004d7	f3 0f 5a 45 08	 cvtss2sd xmm0, DWORD PTR _factor$[ebp]
  004dc	f2 0f 59 05 00
	00 00 00	 mulsd	 xmm0, QWORD PTR __real@3ff0000000000000
  004e4	f2 0f 5a c0	 cvtsd2ss xmm0, xmm0
  004e8	51		 push	 ecx
  004e9	f3 0f 11 04 24	 movss	 DWORD PTR [esp], xmm0
  004ee	68 8d 0a 00 00	 push	 2701			; 00000a8dH
  004f3	e8 00 00 00 00	 call	 ?scale_object_3d_approximation_distances@@YGXHM@Z ; scale_object_3d_approximation_distances

; 913  : 	scale_object_3d_approximation_distances ( OBJECT_3D_M_923A1_OPEN,				1.0 * factor );

  004f8	f3 0f 5a 45 08	 cvtss2sd xmm0, DWORD PTR _factor$[ebp]
  004fd	f2 0f 59 05 00
	00 00 00	 mulsd	 xmm0, QWORD PTR __real@3ff0000000000000
  00505	f2 0f 5a c0	 cvtsd2ss xmm0, xmm0
  00509	51		 push	 ecx
  0050a	f3 0f 11 04 24	 movss	 DWORD PTR [esp], xmm0
  0050f	68 8f 0a 00 00	 push	 2703			; 00000a8fH
  00514	e8 00 00 00 00	 call	 ?scale_object_3d_approximation_distances@@YGXHM@Z ; scale_object_3d_approximation_distances

; 914  : 	scale_object_3d_approximation_distances ( OBJECT_3D_M998,						1.0 * factor );

  00519	f3 0f 5a 45 08	 cvtss2sd xmm0, DWORD PTR _factor$[ebp]
  0051e	f2 0f 59 05 00
	00 00 00	 mulsd	 xmm0, QWORD PTR __real@3ff0000000000000
  00526	f2 0f 5a c0	 cvtsd2ss xmm0, xmm0
  0052a	51		 push	 ecx
  0052b	f3 0f 11 04 24	 movss	 DWORD PTR [esp], xmm0
  00530	68 91 0a 00 00	 push	 2705			; 00000a91H
  00535	e8 00 00 00 00	 call	 ?scale_object_3d_approximation_distances@@YGXHM@Z ; scale_object_3d_approximation_distances

; 915  : 	scale_object_3d_approximation_distances ( OBJECT_3D_M998_DESTROYED,			1.0 * factor );

  0053a	f3 0f 5a 45 08	 cvtss2sd xmm0, DWORD PTR _factor$[ebp]
  0053f	f2 0f 59 05 00
	00 00 00	 mulsd	 xmm0, QWORD PTR __real@3ff0000000000000
  00547	f2 0f 5a c0	 cvtsd2ss xmm0, xmm0
  0054b	51		 push	 ecx
  0054c	f3 0f 11 04 24	 movss	 DWORD PTR [esp], xmm0
  00551	68 92 0a 00 00	 push	 2706			; 00000a92H
  00556	e8 00 00 00 00	 call	 ?scale_object_3d_approximation_distances@@YGXHM@Z ; scale_object_3d_approximation_distances

; 916  : 	scale_object_3d_approximation_distances ( OBJECT_3D_M_113_A1,					1.0 * factor );

  0055b	f3 0f 5a 45 08	 cvtss2sd xmm0, DWORD PTR _factor$[ebp]
  00560	f2 0f 59 05 00
	00 00 00	 mulsd	 xmm0, QWORD PTR __real@3ff0000000000000
  00568	f2 0f 5a c0	 cvtsd2ss xmm0, xmm0
  0056c	51		 push	 ecx
  0056d	f3 0f 11 04 24	 movss	 DWORD PTR [esp], xmm0
  00572	68 93 0a 00 00	 push	 2707			; 00000a93H
  00577	e8 00 00 00 00	 call	 ?scale_object_3d_approximation_distances@@YGXHM@Z ; scale_object_3d_approximation_distances

; 917  : 	scale_object_3d_approximation_distances ( OBJECT_3D_M_113_A1_DESTROYED,		1.0 * factor );

  0057c	f3 0f 5a 45 08	 cvtss2sd xmm0, DWORD PTR _factor$[ebp]
  00581	f2 0f 59 05 00
	00 00 00	 mulsd	 xmm0, QWORD PTR __real@3ff0000000000000
  00589	f2 0f 5a c0	 cvtsd2ss xmm0, xmm0
  0058d	51		 push	 ecx
  0058e	f3 0f 11 04 24	 movss	 DWORD PTR [esp], xmm0
  00593	68 94 0a 00 00	 push	 2708			; 00000a94H
  00598	e8 00 00 00 00	 call	 ?scale_object_3d_approximation_distances@@YGXHM@Z ; scale_object_3d_approximation_distances

; 918  : 	scale_object_3d_approximation_distances ( OBJECT_3D_M_978,						1.0 * factor );

  0059d	f3 0f 5a 45 08	 cvtss2sd xmm0, DWORD PTR _factor$[ebp]
  005a2	f2 0f 59 05 00
	00 00 00	 mulsd	 xmm0, QWORD PTR __real@3ff0000000000000
  005aa	f2 0f 5a c0	 cvtsd2ss xmm0, xmm0
  005ae	51		 push	 ecx
  005af	f3 0f 11 04 24	 movss	 DWORD PTR [esp], xmm0
  005b4	68 95 0a 00 00	 push	 2709			; 00000a95H
  005b9	e8 00 00 00 00	 call	 ?scale_object_3d_approximation_distances@@YGXHM@Z ; scale_object_3d_approximation_distances

; 919  : 	scale_object_3d_approximation_distances ( OBJECT_3D_UAZ,							1.0 * factor );

  005be	f3 0f 5a 45 08	 cvtss2sd xmm0, DWORD PTR _factor$[ebp]
  005c3	f2 0f 59 05 00
	00 00 00	 mulsd	 xmm0, QWORD PTR __real@3ff0000000000000
  005cb	f2 0f 5a c0	 cvtsd2ss xmm0, xmm0
  005cf	51		 push	 ecx
  005d0	f3 0f 11 04 24	 movss	 DWORD PTR [esp], xmm0
  005d5	68 a3 0a 00 00	 push	 2723			; 00000aa3H
  005da	e8 00 00 00 00	 call	 ?scale_object_3d_approximation_distances@@YGXHM@Z ; scale_object_3d_approximation_distances

; 920  : 	scale_object_3d_approximation_distances ( OBJECT_3D_UAZ_DESTROYED,			1.0 * factor );

  005df	f3 0f 5a 45 08	 cvtss2sd xmm0, DWORD PTR _factor$[ebp]
  005e4	f2 0f 59 05 00
	00 00 00	 mulsd	 xmm0, QWORD PTR __real@3ff0000000000000
  005ec	f2 0f 5a c0	 cvtsd2ss xmm0, xmm0
  005f0	51		 push	 ecx
  005f1	f3 0f 11 04 24	 movss	 DWORD PTR [esp], xmm0
  005f6	68 a4 0a 00 00	 push	 2724			; 00000aa4H
  005fb	e8 00 00 00 00	 call	 ?scale_object_3d_approximation_distances@@YGXHM@Z ; scale_object_3d_approximation_distances

; 921  : 	scale_object_3d_approximation_distances ( OBJECT_3D_URAL_4320,					1.0 * factor );

  00600	f3 0f 5a 45 08	 cvtss2sd xmm0, DWORD PTR _factor$[ebp]
  00605	f2 0f 59 05 00
	00 00 00	 mulsd	 xmm0, QWORD PTR __real@3ff0000000000000
  0060d	f2 0f 5a c0	 cvtsd2ss xmm0, xmm0
  00611	51		 push	 ecx
  00612	f3 0f 11 04 24	 movss	 DWORD PTR [esp], xmm0
  00617	68 a5 0a 00 00	 push	 2725			; 00000aa5H
  0061c	e8 00 00 00 00	 call	 ?scale_object_3d_approximation_distances@@YGXHM@Z ; scale_object_3d_approximation_distances

; 922  : 	scale_object_3d_approximation_distances ( OBJECT_3D_URAL_4320_DESTROYED,	1.0 * factor );

  00621	f3 0f 5a 45 08	 cvtss2sd xmm0, DWORD PTR _factor$[ebp]
  00626	f2 0f 59 05 00
	00 00 00	 mulsd	 xmm0, QWORD PTR __real@3ff0000000000000
  0062e	f2 0f 5a c0	 cvtsd2ss xmm0, xmm0
  00632	51		 push	 ecx
  00633	f3 0f 11 04 24	 movss	 DWORD PTR [esp], xmm0
  00638	68 a6 0a 00 00	 push	 2726			; 00000aa6H
  0063d	e8 00 00 00 00	 call	 ?scale_object_3d_approximation_distances@@YGXHM@Z ; scale_object_3d_approximation_distances

; 923  : 	scale_object_3d_approximation_distances ( OBJECT_3D_URAL_FUEL,					1.0 * factor );

  00642	f3 0f 5a 45 08	 cvtss2sd xmm0, DWORD PTR _factor$[ebp]
  00647	f2 0f 59 05 00
	00 00 00	 mulsd	 xmm0, QWORD PTR __real@3ff0000000000000
  0064f	f2 0f 5a c0	 cvtsd2ss xmm0, xmm0
  00653	51		 push	 ecx
  00654	f3 0f 11 04 24	 movss	 DWORD PTR [esp], xmm0
  00659	68 a7 0a 00 00	 push	 2727			; 00000aa7H
  0065e	e8 00 00 00 00	 call	 ?scale_object_3d_approximation_distances@@YGXHM@Z ; scale_object_3d_approximation_distances

; 924  : 
; 925  : 	scale_object_3d_approximation_distances ( OBJECT_3D_AMERICAN_AERIAL01,				0.7 * factor );

  00663	f3 0f 5a 45 08	 cvtss2sd xmm0, DWORD PTR _factor$[ebp]
  00668	f2 0f 59 05 00
	00 00 00	 mulsd	 xmm0, QWORD PTR __real@3fe6666666666666
  00670	f2 0f 5a c0	 cvtsd2ss xmm0, xmm0
  00674	51		 push	 ecx
  00675	f3 0f 11 04 24	 movss	 DWORD PTR [esp], xmm0
  0067a	6a 28		 push	 40			; 00000028H
  0067c	e8 00 00 00 00	 call	 ?scale_object_3d_approximation_distances@@YGXHM@Z ; scale_object_3d_approximation_distances

; 926  : 	scale_object_3d_approximation_distances ( OBJECT_3D_AMERICAN_AERIAL02,				0.7 * factor );

  00681	f3 0f 5a 45 08	 cvtss2sd xmm0, DWORD PTR _factor$[ebp]
  00686	f2 0f 59 05 00
	00 00 00	 mulsd	 xmm0, QWORD PTR __real@3fe6666666666666
  0068e	f2 0f 5a c0	 cvtsd2ss xmm0, xmm0
  00692	51		 push	 ecx
  00693	f3 0f 11 04 24	 movss	 DWORD PTR [esp], xmm0
  00698	6a 2a		 push	 42			; 0000002aH
  0069a	e8 00 00 00 00	 call	 ?scale_object_3d_approximation_distances@@YGXHM@Z ; scale_object_3d_approximation_distances

; 927  : 	scale_object_3d_approximation_distances ( OBJECT_3D_AMERICAN_AIRPORT01,				0.7 * factor );

  0069f	f3 0f 5a 45 08	 cvtss2sd xmm0, DWORD PTR _factor$[ebp]
  006a4	f2 0f 59 05 00
	00 00 00	 mulsd	 xmm0, QWORD PTR __real@3fe6666666666666
  006ac	f2 0f 5a c0	 cvtsd2ss xmm0, xmm0
  006b0	51		 push	 ecx
  006b1	f3 0f 11 04 24	 movss	 DWORD PTR [esp], xmm0
  006b6	6a 2e		 push	 46			; 0000002eH
  006b8	e8 00 00 00 00	 call	 ?scale_object_3d_approximation_distances@@YGXHM@Z ; scale_object_3d_approximation_distances

; 928  : 	scale_object_3d_approximation_distances ( OBJECT_3D_AMERICAN_BUILDING01,			0.7 * factor );

  006bd	f3 0f 5a 45 08	 cvtss2sd xmm0, DWORD PTR _factor$[ebp]
  006c2	f2 0f 59 05 00
	00 00 00	 mulsd	 xmm0, QWORD PTR __real@3fe6666666666666
  006ca	f2 0f 5a c0	 cvtsd2ss xmm0, xmm0
  006ce	51		 push	 ecx
  006cf	f3 0f 11 04 24	 movss	 DWORD PTR [esp], xmm0
  006d4	6a 37		 push	 55			; 00000037H
  006d6	e8 00 00 00 00	 call	 ?scale_object_3d_approximation_distances@@YGXHM@Z ; scale_object_3d_approximation_distances

; 929  : 	scale_object_3d_approximation_distances ( OBJECT_3D_AMERICAN_BUILDING02,			0.7 * factor );

  006db	f3 0f 5a 45 08	 cvtss2sd xmm0, DWORD PTR _factor$[ebp]
  006e0	f2 0f 59 05 00
	00 00 00	 mulsd	 xmm0, QWORD PTR __real@3fe6666666666666
  006e8	f2 0f 5a c0	 cvtsd2ss xmm0, xmm0
  006ec	51		 push	 ecx
  006ed	f3 0f 11 04 24	 movss	 DWORD PTR [esp], xmm0
  006f2	6a 39		 push	 57			; 00000039H
  006f4	e8 00 00 00 00	 call	 ?scale_object_3d_approximation_distances@@YGXHM@Z ; scale_object_3d_approximation_distances

; 930  : 	scale_object_3d_approximation_distances ( OBJECT_3D_AMERICAN_CONTROL_TOWER01,		0.7 * factor );

  006f9	f3 0f 5a 45 08	 cvtss2sd xmm0, DWORD PTR _factor$[ebp]
  006fe	f2 0f 59 05 00
	00 00 00	 mulsd	 xmm0, QWORD PTR __real@3fe6666666666666
  00706	f2 0f 5a c0	 cvtsd2ss xmm0, xmm0
  0070a	51		 push	 ecx
  0070b	f3 0f 11 04 24	 movss	 DWORD PTR [esp], xmm0
  00710	6a 3b		 push	 59			; 0000003bH
  00712	e8 00 00 00 00	 call	 ?scale_object_3d_approximation_distances@@YGXHM@Z ; scale_object_3d_approximation_distances

; 931  : 	scale_object_3d_approximation_distances ( OBJECT_3D_AMERICAN_FACTORY01,				0.7 * factor );

  00717	f3 0f 5a 45 08	 cvtss2sd xmm0, DWORD PTR _factor$[ebp]
  0071c	f2 0f 59 05 00
	00 00 00	 mulsd	 xmm0, QWORD PTR __real@3fe6666666666666
  00724	f2 0f 5a c0	 cvtsd2ss xmm0, xmm0
  00728	51		 push	 ecx
  00729	f3 0f 11 04 24	 movss	 DWORD PTR [esp], xmm0
  0072e	6a 3f		 push	 63			; 0000003fH
  00730	e8 00 00 00 00	 call	 ?scale_object_3d_approximation_distances@@YGXHM@Z ; scale_object_3d_approximation_distances

; 932  : 	scale_object_3d_approximation_distances ( OBJECT_3D_AMERICAN_FACTORY02,				0.7 * factor );

  00735	f3 0f 5a 45 08	 cvtss2sd xmm0, DWORD PTR _factor$[ebp]
  0073a	f2 0f 59 05 00
	00 00 00	 mulsd	 xmm0, QWORD PTR __real@3fe6666666666666
  00742	f2 0f 5a c0	 cvtsd2ss xmm0, xmm0
  00746	51		 push	 ecx
  00747	f3 0f 11 04 24	 movss	 DWORD PTR [esp], xmm0
  0074c	6a 41		 push	 65			; 00000041H
  0074e	e8 00 00 00 00	 call	 ?scale_object_3d_approximation_distances@@YGXHM@Z ; scale_object_3d_approximation_distances

; 933  : 	scale_object_3d_approximation_distances ( OBJECT_3D_AMERICAN_FACTORY03,				0.7 * factor );

  00753	f3 0f 5a 45 08	 cvtss2sd xmm0, DWORD PTR _factor$[ebp]
  00758	f2 0f 59 05 00
	00 00 00	 mulsd	 xmm0, QWORD PTR __real@3fe6666666666666
  00760	f2 0f 5a c0	 cvtsd2ss xmm0, xmm0
  00764	51		 push	 ecx
  00765	f3 0f 11 04 24	 movss	 DWORD PTR [esp], xmm0
  0076a	6a 43		 push	 67			; 00000043H
  0076c	e8 00 00 00 00	 call	 ?scale_object_3d_approximation_distances@@YGXHM@Z ; scale_object_3d_approximation_distances

; 934  : 	scale_object_3d_approximation_distances ( OBJECT_3D_AMERICAN_FACTORY04,				0.7 * factor );

  00771	f3 0f 5a 45 08	 cvtss2sd xmm0, DWORD PTR _factor$[ebp]
  00776	f2 0f 59 05 00
	00 00 00	 mulsd	 xmm0, QWORD PTR __real@3fe6666666666666
  0077e	f2 0f 5a c0	 cvtsd2ss xmm0, xmm0
  00782	51		 push	 ecx
  00783	f3 0f 11 04 24	 movss	 DWORD PTR [esp], xmm0
  00788	6a 45		 push	 69			; 00000045H
  0078a	e8 00 00 00 00	 call	 ?scale_object_3d_approximation_distances@@YGXHM@Z ; scale_object_3d_approximation_distances

; 935  : 	scale_object_3d_approximation_distances ( OBJECT_3D_AMERICAN_GUARD_POST01,			0.7 * factor );

  0078f	f3 0f 5a 45 08	 cvtss2sd xmm0, DWORD PTR _factor$[ebp]
  00794	f2 0f 59 05 00
	00 00 00	 mulsd	 xmm0, QWORD PTR __real@3fe6666666666666
  0079c	f2 0f 5a c0	 cvtsd2ss xmm0, xmm0
  007a0	51		 push	 ecx
  007a1	f3 0f 11 04 24	 movss	 DWORD PTR [esp], xmm0
  007a6	6a 55		 push	 85			; 00000055H
  007a8	e8 00 00 00 00	 call	 ?scale_object_3d_approximation_distances@@YGXHM@Z ; scale_object_3d_approximation_distances

; 936  : 	scale_object_3d_approximation_distances ( OBJECT_3D_AMERICAN_HANGAR01,				0.7 * factor );

  007ad	f3 0f 5a 45 08	 cvtss2sd xmm0, DWORD PTR _factor$[ebp]
  007b2	f2 0f 59 05 00
	00 00 00	 mulsd	 xmm0, QWORD PTR __real@3fe6666666666666
  007ba	f2 0f 5a c0	 cvtsd2ss xmm0, xmm0
  007be	51		 push	 ecx
  007bf	f3 0f 11 04 24	 movss	 DWORD PTR [esp], xmm0
  007c4	6a 57		 push	 87			; 00000057H
  007c6	e8 00 00 00 00	 call	 ?scale_object_3d_approximation_distances@@YGXHM@Z ; scale_object_3d_approximation_distances

; 937  : 	scale_object_3d_approximation_distances ( OBJECT_3D_AMERICAN_HANGAR02,				0.7 * factor );

  007cb	f3 0f 5a 45 08	 cvtss2sd xmm0, DWORD PTR _factor$[ebp]
  007d0	f2 0f 59 05 00
	00 00 00	 mulsd	 xmm0, QWORD PTR __real@3fe6666666666666
  007d8	f2 0f 5a c0	 cvtsd2ss xmm0, xmm0
  007dc	51		 push	 ecx
  007dd	f3 0f 11 04 24	 movss	 DWORD PTR [esp], xmm0
  007e2	6a 59		 push	 89			; 00000059H
  007e4	e8 00 00 00 00	 call	 ?scale_object_3d_approximation_distances@@YGXHM@Z ; scale_object_3d_approximation_distances

; 938  : 	scale_object_3d_approximation_distances ( OBJECT_3D_AMERICAN_HANGAR03,				0.7 * factor );

  007e9	f3 0f 5a 45 08	 cvtss2sd xmm0, DWORD PTR _factor$[ebp]
  007ee	f2 0f 59 05 00
	00 00 00	 mulsd	 xmm0, QWORD PTR __real@3fe6666666666666
  007f6	f2 0f 5a c0	 cvtsd2ss xmm0, xmm0
  007fa	51		 push	 ecx
  007fb	f3 0f 11 04 24	 movss	 DWORD PTR [esp], xmm0
  00800	6a 5b		 push	 91			; 0000005bH
  00802	e8 00 00 00 00	 call	 ?scale_object_3d_approximation_distances@@YGXHM@Z ; scale_object_3d_approximation_distances

; 939  : 	scale_object_3d_approximation_distances ( OBJECT_3D_AMERICAN_HANGAR11,				0.7 * factor );

  00807	f3 0f 5a 45 08	 cvtss2sd xmm0, DWORD PTR _factor$[ebp]
  0080c	f2 0f 59 05 00
	00 00 00	 mulsd	 xmm0, QWORD PTR __real@3fe6666666666666
  00814	f2 0f 5a c0	 cvtsd2ss xmm0, xmm0
  00818	51		 push	 ecx
  00819	f3 0f 11 04 24	 movss	 DWORD PTR [esp], xmm0
  0081e	6a 5f		 push	 95			; 0000005fH
  00820	e8 00 00 00 00	 call	 ?scale_object_3d_approximation_distances@@YGXHM@Z ; scale_object_3d_approximation_distances

; 940  : 	scale_object_3d_approximation_distances ( OBJECT_3D_AMERICAN_HANGAR12,				0.7 * factor );

  00825	f3 0f 5a 45 08	 cvtss2sd xmm0, DWORD PTR _factor$[ebp]
  0082a	f2 0f 59 05 00
	00 00 00	 mulsd	 xmm0, QWORD PTR __real@3fe6666666666666
  00832	f2 0f 5a c0	 cvtsd2ss xmm0, xmm0
  00836	51		 push	 ecx
  00837	f3 0f 11 04 24	 movss	 DWORD PTR [esp], xmm0
  0083c	6a 61		 push	 97			; 00000061H
  0083e	e8 00 00 00 00	 call	 ?scale_object_3d_approximation_distances@@YGXHM@Z ; scale_object_3d_approximation_distances

; 941  : 	scale_object_3d_approximation_distances ( OBJECT_3D_AMERICAN_HUT01,					0.7 * factor );

  00843	f3 0f 5a 45 08	 cvtss2sd xmm0, DWORD PTR _factor$[ebp]
  00848	f2 0f 59 05 00
	00 00 00	 mulsd	 xmm0, QWORD PTR __real@3fe6666666666666
  00850	f2 0f 5a c0	 cvtsd2ss xmm0, xmm0
  00854	51		 push	 ecx
  00855	f3 0f 11 04 24	 movss	 DWORD PTR [esp], xmm0
  0085a	6a 63		 push	 99			; 00000063H
  0085c	e8 00 00 00 00	 call	 ?scale_object_3d_approximation_distances@@YGXHM@Z ; scale_object_3d_approximation_distances

; 942  : 	scale_object_3d_approximation_distances ( OBJECT_3D_AMERICAN_LAMP01,					0.7 * factor );

  00861	f3 0f 5a 45 08	 cvtss2sd xmm0, DWORD PTR _factor$[ebp]
  00866	f2 0f 59 05 00
	00 00 00	 mulsd	 xmm0, QWORD PTR __real@3fe6666666666666
  0086e	f2 0f 5a c0	 cvtsd2ss xmm0, xmm0
  00872	51		 push	 ecx
  00873	f3 0f 11 04 24	 movss	 DWORD PTR [esp], xmm0
  00878	6a 65		 push	 101			; 00000065H
  0087a	e8 00 00 00 00	 call	 ?scale_object_3d_approximation_distances@@YGXHM@Z ; scale_object_3d_approximation_distances

; 943  : 	scale_object_3d_approximation_distances ( OBJECT_3D_AMERICAN_OIL_TANK01,			0.7 * factor );

  0087f	f3 0f 5a 45 08	 cvtss2sd xmm0, DWORD PTR _factor$[ebp]
  00884	f2 0f 59 05 00
	00 00 00	 mulsd	 xmm0, QWORD PTR __real@3fe6666666666666
  0088c	f2 0f 5a c0	 cvtsd2ss xmm0, xmm0
  00890	51		 push	 ecx
  00891	f3 0f 11 04 24	 movss	 DWORD PTR [esp], xmm0
  00896	6a 7d		 push	 125			; 0000007dH
  00898	e8 00 00 00 00	 call	 ?scale_object_3d_approximation_distances@@YGXHM@Z ; scale_object_3d_approximation_distances

; 944  : 	scale_object_3d_approximation_distances ( OBJECT_3D_AMERICAN_OIL_TANK02,			0.7 * factor );

  0089d	f3 0f 5a 45 08	 cvtss2sd xmm0, DWORD PTR _factor$[ebp]
  008a2	f2 0f 59 05 00
	00 00 00	 mulsd	 xmm0, QWORD PTR __real@3fe6666666666666
  008aa	f2 0f 5a c0	 cvtsd2ss xmm0, xmm0
  008ae	51		 push	 ecx
  008af	f3 0f 11 04 24	 movss	 DWORD PTR [esp], xmm0
  008b4	6a 7f		 push	 127			; 0000007fH
  008b6	e8 00 00 00 00	 call	 ?scale_object_3d_approximation_distances@@YGXHM@Z ; scale_object_3d_approximation_distances

; 945  : 	scale_object_3d_approximation_distances ( OBJECT_3D_AMERICAN_SHED01,					0.7 * factor );

  008bb	f3 0f 5a 45 08	 cvtss2sd xmm0, DWORD PTR _factor$[ebp]
  008c0	f2 0f 59 05 00
	00 00 00	 mulsd	 xmm0, QWORD PTR __real@3fe6666666666666
  008c8	f2 0f 5a c0	 cvtsd2ss xmm0, xmm0
  008cc	51		 push	 ecx
  008cd	f3 0f 11 04 24	 movss	 DWORD PTR [esp], xmm0
  008d2	68 85 00 00 00	 push	 133			; 00000085H
  008d7	e8 00 00 00 00	 call	 ?scale_object_3d_approximation_distances@@YGXHM@Z ; scale_object_3d_approximation_distances

; 946  : 	scale_object_3d_approximation_distances ( OBJECT_3D_AMERICAN_TOWER_BUILDING01,	0.7 * factor );

  008dc	f3 0f 5a 45 08	 cvtss2sd xmm0, DWORD PTR _factor$[ebp]
  008e1	f2 0f 59 05 00
	00 00 00	 mulsd	 xmm0, QWORD PTR __real@3fe6666666666666
  008e9	f2 0f 5a c0	 cvtsd2ss xmm0, xmm0
  008ed	51		 push	 ecx
  008ee	f3 0f 11 04 24	 movss	 DWORD PTR [esp], xmm0
  008f3	68 97 00 00 00	 push	 151			; 00000097H
  008f8	e8 00 00 00 00	 call	 ?scale_object_3d_approximation_distances@@YGXHM@Z ; scale_object_3d_approximation_distances

; 947  : 	scale_object_3d_approximation_distances ( OBJECT_3D_AMERICAN_WATER_TOWER01,		0.7 * factor );

  008fd	f3 0f 5a 45 08	 cvtss2sd xmm0, DWORD PTR _factor$[ebp]
  00902	f2 0f 59 05 00
	00 00 00	 mulsd	 xmm0, QWORD PTR __real@3fe6666666666666
  0090a	f2 0f 5a c0	 cvtsd2ss xmm0, xmm0
  0090e	51		 push	 ecx
  0090f	f3 0f 11 04 24	 movss	 DWORD PTR [esp], xmm0
  00914	68 99 00 00 00	 push	 153			; 00000099H
  00919	e8 00 00 00 00	 call	 ?scale_object_3d_approximation_distances@@YGXHM@Z ; scale_object_3d_approximation_distances

; 948  : 	scale_object_3d_approximation_distances ( OBJECT_3D_AMERICAN_WATER_TOWER02,		0.7 * factor );

  0091e	f3 0f 5a 45 08	 cvtss2sd xmm0, DWORD PTR _factor$[ebp]
  00923	f2 0f 59 05 00
	00 00 00	 mulsd	 xmm0, QWORD PTR __real@3fe6666666666666
  0092b	f2 0f 5a c0	 cvtsd2ss xmm0, xmm0
  0092f	51		 push	 ecx
  00930	f3 0f 11 04 24	 movss	 DWORD PTR [esp], xmm0
  00935	68 9b 00 00 00	 push	 155			; 0000009bH
  0093a	e8 00 00 00 00	 call	 ?scale_object_3d_approximation_distances@@YGXHM@Z ; scale_object_3d_approximation_distances

; 949  : 	scale_object_3d_approximation_distances ( OBJECT_3D_RUSSIAN_AIRPORT01,				0.7 * factor );

  0093f	f3 0f 5a 45 08	 cvtss2sd xmm0, DWORD PTR _factor$[ebp]
  00944	f2 0f 59 05 00
	00 00 00	 mulsd	 xmm0, QWORD PTR __real@3fe6666666666666
  0094c	f2 0f 5a c0	 cvtsd2ss xmm0, xmm0
  00950	51		 push	 ecx
  00951	f3 0f 11 04 24	 movss	 DWORD PTR [esp], xmm0
  00956	68 c3 00 00 00	 push	 195			; 000000c3H
  0095b	e8 00 00 00 00	 call	 ?scale_object_3d_approximation_distances@@YGXHM@Z ; scale_object_3d_approximation_distances

; 950  : 	scale_object_3d_approximation_distances ( OBJECT_3D_RUSSIAN_BUILDING01,				0.7 * factor );

  00960	f3 0f 5a 45 08	 cvtss2sd xmm0, DWORD PTR _factor$[ebp]
  00965	f2 0f 59 05 00
	00 00 00	 mulsd	 xmm0, QWORD PTR __real@3fe6666666666666
  0096d	f2 0f 5a c0	 cvtsd2ss xmm0, xmm0
  00971	51		 push	 ecx
  00972	f3 0f 11 04 24	 movss	 DWORD PTR [esp], xmm0
  00977	68 cf 00 00 00	 push	 207			; 000000cfH
  0097c	e8 00 00 00 00	 call	 ?scale_object_3d_approximation_distances@@YGXHM@Z ; scale_object_3d_approximation_distances

; 951  : 	scale_object_3d_approximation_distances ( OBJECT_3D_RUSSIAN_BUILDING02,				0.7 * factor );

  00981	f3 0f 5a 45 08	 cvtss2sd xmm0, DWORD PTR _factor$[ebp]
  00986	f2 0f 59 05 00
	00 00 00	 mulsd	 xmm0, QWORD PTR __real@3fe6666666666666
  0098e	f2 0f 5a c0	 cvtsd2ss xmm0, xmm0
  00992	51		 push	 ecx
  00993	f3 0f 11 04 24	 movss	 DWORD PTR [esp], xmm0
  00998	68 d1 00 00 00	 push	 209			; 000000d1H
  0099d	e8 00 00 00 00	 call	 ?scale_object_3d_approximation_distances@@YGXHM@Z ; scale_object_3d_approximation_distances

; 952  : 	scale_object_3d_approximation_distances ( OBJECT_3D_RUSSIAN_BUILDING03,				0.7 * factor );

  009a2	f3 0f 5a 45 08	 cvtss2sd xmm0, DWORD PTR _factor$[ebp]
  009a7	f2 0f 59 05 00
	00 00 00	 mulsd	 xmm0, QWORD PTR __real@3fe6666666666666
  009af	f2 0f 5a c0	 cvtsd2ss xmm0, xmm0
  009b3	51		 push	 ecx
  009b4	f3 0f 11 04 24	 movss	 DWORD PTR [esp], xmm0
  009b9	68 d3 00 00 00	 push	 211			; 000000d3H
  009be	e8 00 00 00 00	 call	 ?scale_object_3d_approximation_distances@@YGXHM@Z ; scale_object_3d_approximation_distances

; 953  : 	scale_object_3d_approximation_distances ( OBJECT_3D_RUSSIAN_BUILDING04,				0.7 * factor );

  009c3	f3 0f 5a 45 08	 cvtss2sd xmm0, DWORD PTR _factor$[ebp]
  009c8	f2 0f 59 05 00
	00 00 00	 mulsd	 xmm0, QWORD PTR __real@3fe6666666666666
  009d0	f2 0f 5a c0	 cvtsd2ss xmm0, xmm0
  009d4	51		 push	 ecx
  009d5	f3 0f 11 04 24	 movss	 DWORD PTR [esp], xmm0
  009da	68 d5 00 00 00	 push	 213			; 000000d5H
  009df	e8 00 00 00 00	 call	 ?scale_object_3d_approximation_distances@@YGXHM@Z ; scale_object_3d_approximation_distances

; 954  : 	scale_object_3d_approximation_distances ( OBJECT_3D_RUSSIAN_CONTROL_TOWER01,		0.7 * factor );

  009e4	f3 0f 5a 45 08	 cvtss2sd xmm0, DWORD PTR _factor$[ebp]
  009e9	f2 0f 59 05 00
	00 00 00	 mulsd	 xmm0, QWORD PTR __real@3fe6666666666666
  009f1	f2 0f 5a c0	 cvtsd2ss xmm0, xmm0
  009f5	51		 push	 ecx
  009f6	f3 0f 11 04 24	 movss	 DWORD PTR [esp], xmm0
  009fb	68 d7 00 00 00	 push	 215			; 000000d7H
  00a00	e8 00 00 00 00	 call	 ?scale_object_3d_approximation_distances@@YGXHM@Z ; scale_object_3d_approximation_distances

; 955  : 	scale_object_3d_approximation_distances ( OBJECT_3D_RUSSIAN_FACTORY01,				0.7 * factor );

  00a05	f3 0f 5a 45 08	 cvtss2sd xmm0, DWORD PTR _factor$[ebp]
  00a0a	f2 0f 59 05 00
	00 00 00	 mulsd	 xmm0, QWORD PTR __real@3fe6666666666666
  00a12	f2 0f 5a c0	 cvtsd2ss xmm0, xmm0
  00a16	51		 push	 ecx
  00a17	f3 0f 11 04 24	 movss	 DWORD PTR [esp], xmm0
  00a1c	68 dd 00 00 00	 push	 221			; 000000ddH
  00a21	e8 00 00 00 00	 call	 ?scale_object_3d_approximation_distances@@YGXHM@Z ; scale_object_3d_approximation_distances

; 956  : 	scale_object_3d_approximation_distances ( OBJECT_3D_RUSSIAN_FACTORY02,				0.7 * factor );

  00a26	f3 0f 5a 45 08	 cvtss2sd xmm0, DWORD PTR _factor$[ebp]
  00a2b	f2 0f 59 05 00
	00 00 00	 mulsd	 xmm0, QWORD PTR __real@3fe6666666666666
  00a33	f2 0f 5a c0	 cvtsd2ss xmm0, xmm0
  00a37	51		 push	 ecx
  00a38	f3 0f 11 04 24	 movss	 DWORD PTR [esp], xmm0
  00a3d	68 df 00 00 00	 push	 223			; 000000dfH
  00a42	e8 00 00 00 00	 call	 ?scale_object_3d_approximation_distances@@YGXHM@Z ; scale_object_3d_approximation_distances

; 957  : 	scale_object_3d_approximation_distances ( OBJECT_3D_RUSSIAN_FACTORY03,				0.7 * factor );

  00a47	f3 0f 5a 45 08	 cvtss2sd xmm0, DWORD PTR _factor$[ebp]
  00a4c	f2 0f 59 05 00
	00 00 00	 mulsd	 xmm0, QWORD PTR __real@3fe6666666666666
  00a54	f2 0f 5a c0	 cvtsd2ss xmm0, xmm0
  00a58	51		 push	 ecx
  00a59	f3 0f 11 04 24	 movss	 DWORD PTR [esp], xmm0
  00a5e	68 e1 00 00 00	 push	 225			; 000000e1H
  00a63	e8 00 00 00 00	 call	 ?scale_object_3d_approximation_distances@@YGXHM@Z ; scale_object_3d_approximation_distances

; 958  : 	scale_object_3d_approximation_distances ( OBJECT_3D_RUSSIAN_HANGAR01,				0.7 * factor );

  00a68	f3 0f 5a 45 08	 cvtss2sd xmm0, DWORD PTR _factor$[ebp]
  00a6d	f2 0f 59 05 00
	00 00 00	 mulsd	 xmm0, QWORD PTR __real@3fe6666666666666
  00a75	f2 0f 5a c0	 cvtsd2ss xmm0, xmm0
  00a79	51		 push	 ecx
  00a7a	f3 0f 11 04 24	 movss	 DWORD PTR [esp], xmm0
  00a7f	68 f0 00 00 00	 push	 240			; 000000f0H
  00a84	e8 00 00 00 00	 call	 ?scale_object_3d_approximation_distances@@YGXHM@Z ; scale_object_3d_approximation_distances

; 959  : 	scale_object_3d_approximation_distances ( OBJECT_3D_RUSSIAN_HANGAR02,				0.7 * factor );

  00a89	f3 0f 5a 45 08	 cvtss2sd xmm0, DWORD PTR _factor$[ebp]
  00a8e	f2 0f 59 05 00
	00 00 00	 mulsd	 xmm0, QWORD PTR __real@3fe6666666666666
  00a96	f2 0f 5a c0	 cvtsd2ss xmm0, xmm0
  00a9a	51		 push	 ecx
  00a9b	f3 0f 11 04 24	 movss	 DWORD PTR [esp], xmm0
  00aa0	68 f2 00 00 00	 push	 242			; 000000f2H
  00aa5	e8 00 00 00 00	 call	 ?scale_object_3d_approximation_distances@@YGXHM@Z ; scale_object_3d_approximation_distances

; 960  : 	scale_object_3d_approximation_distances ( OBJECT_3D_RUSSIAN_HANGAR03,				0.7 * factor );

  00aaa	f3 0f 5a 45 08	 cvtss2sd xmm0, DWORD PTR _factor$[ebp]
  00aaf	f2 0f 59 05 00
	00 00 00	 mulsd	 xmm0, QWORD PTR __real@3fe6666666666666
  00ab7	f2 0f 5a c0	 cvtsd2ss xmm0, xmm0
  00abb	51		 push	 ecx
  00abc	f3 0f 11 04 24	 movss	 DWORD PTR [esp], xmm0
  00ac1	68 f4 00 00 00	 push	 244			; 000000f4H
  00ac6	e8 00 00 00 00	 call	 ?scale_object_3d_approximation_distances@@YGXHM@Z ; scale_object_3d_approximation_distances

; 961  : 	scale_object_3d_approximation_distances ( OBJECT_3D_RUSSIAN_HANGAR05,				0.7 * factor );

  00acb	f3 0f 5a 45 08	 cvtss2sd xmm0, DWORD PTR _factor$[ebp]
  00ad0	f2 0f 59 05 00
	00 00 00	 mulsd	 xmm0, QWORD PTR __real@3fe6666666666666
  00ad8	f2 0f 5a c0	 cvtsd2ss xmm0, xmm0
  00adc	51		 push	 ecx
  00add	f3 0f 11 04 24	 movss	 DWORD PTR [esp], xmm0
  00ae2	68 f8 00 00 00	 push	 248			; 000000f8H
  00ae7	e8 00 00 00 00	 call	 ?scale_object_3d_approximation_distances@@YGXHM@Z ; scale_object_3d_approximation_distances

; 962  : 	scale_object_3d_approximation_distances ( OBJECT_3D_RUSSIAN_HANGAR07,				0.7 * factor );

  00aec	f3 0f 5a 45 08	 cvtss2sd xmm0, DWORD PTR _factor$[ebp]
  00af1	f2 0f 59 05 00
	00 00 00	 mulsd	 xmm0, QWORD PTR __real@3fe6666666666666
  00af9	f2 0f 5a c0	 cvtsd2ss xmm0, xmm0
  00afd	51		 push	 ecx
  00afe	f3 0f 11 04 24	 movss	 DWORD PTR [esp], xmm0
  00b03	68 fc 00 00 00	 push	 252			; 000000fcH
  00b08	e8 00 00 00 00	 call	 ?scale_object_3d_approximation_distances@@YGXHM@Z ; scale_object_3d_approximation_distances

; 963  : 	scale_object_3d_approximation_distances ( OBJECT_3D_RUSSIAN_LAMP01,					0.7 * factor );

  00b0d	f3 0f 5a 45 08	 cvtss2sd xmm0, DWORD PTR _factor$[ebp]
  00b12	f2 0f 59 05 00
	00 00 00	 mulsd	 xmm0, QWORD PTR __real@3fe6666666666666
  00b1a	f2 0f 5a c0	 cvtsd2ss xmm0, xmm0
  00b1e	51		 push	 ecx
  00b1f	f3 0f 11 04 24	 movss	 DWORD PTR [esp], xmm0
  00b24	68 02 01 00 00	 push	 258			; 00000102H
  00b29	e8 00 00 00 00	 call	 ?scale_object_3d_approximation_distances@@YGXHM@Z ; scale_object_3d_approximation_distances

; 964  : 	scale_object_3d_approximation_distances ( OBJECT_3D_RUSSIAN_LAMP02,					0.7 * factor );

  00b2e	f3 0f 5a 45 08	 cvtss2sd xmm0, DWORD PTR _factor$[ebp]
  00b33	f2 0f 59 05 00
	00 00 00	 mulsd	 xmm0, QWORD PTR __real@3fe6666666666666
  00b3b	f2 0f 5a c0	 cvtsd2ss xmm0, xmm0
  00b3f	51		 push	 ecx
  00b40	f3 0f 11 04 24	 movss	 DWORD PTR [esp], xmm0
  00b45	68 04 01 00 00	 push	 260			; 00000104H
  00b4a	e8 00 00 00 00	 call	 ?scale_object_3d_approximation_distances@@YGXHM@Z ; scale_object_3d_approximation_distances

; 965  : 	scale_object_3d_approximation_distances ( OBJECT_3D_RUSSIAN_RADAR01,					0.7 * factor );

  00b4f	f3 0f 5a 45 08	 cvtss2sd xmm0, DWORD PTR _factor$[ebp]
  00b54	f2 0f 59 05 00
	00 00 00	 mulsd	 xmm0, QWORD PTR __real@3fe6666666666666
  00b5c	f2 0f 5a c0	 cvtsd2ss xmm0, xmm0
  00b60	51		 push	 ecx
  00b61	f3 0f 11 04 24	 movss	 DWORD PTR [esp], xmm0
  00b66	68 16 01 00 00	 push	 278			; 00000116H
  00b6b	e8 00 00 00 00	 call	 ?scale_object_3d_approximation_distances@@YGXHM@Z ; scale_object_3d_approximation_distances

; 966  : 	scale_object_3d_approximation_distances ( OBJECT_3D_RUSSIAN_SHED01,					0.7 * factor );

  00b70	f3 0f 5a 45 08	 cvtss2sd xmm0, DWORD PTR _factor$[ebp]
  00b75	f2 0f 59 05 00
	00 00 00	 mulsd	 xmm0, QWORD PTR __real@3fe6666666666666
  00b7d	f2 0f 5a c0	 cvtsd2ss xmm0, xmm0
  00b81	51		 push	 ecx
  00b82	f3 0f 11 04 24	 movss	 DWORD PTR [esp], xmm0
  00b87	68 1a 01 00 00	 push	 282			; 0000011aH
  00b8c	e8 00 00 00 00	 call	 ?scale_object_3d_approximation_distances@@YGXHM@Z ; scale_object_3d_approximation_distances

; 967  : 	scale_object_3d_approximation_distances ( OBJECT_3D_RUSSIAN_SHED02,					0.7 * factor );

  00b91	f3 0f 5a 45 08	 cvtss2sd xmm0, DWORD PTR _factor$[ebp]
  00b96	f2 0f 59 05 00
	00 00 00	 mulsd	 xmm0, QWORD PTR __real@3fe6666666666666
  00b9e	f2 0f 5a c0	 cvtsd2ss xmm0, xmm0
  00ba2	51		 push	 ecx
  00ba3	f3 0f 11 04 24	 movss	 DWORD PTR [esp], xmm0
  00ba8	68 1c 01 00 00	 push	 284			; 0000011cH
  00bad	e8 00 00 00 00	 call	 ?scale_object_3d_approximation_distances@@YGXHM@Z ; scale_object_3d_approximation_distances

; 968  : }

  00bb2	5f		 pop	 edi
  00bb3	5e		 pop	 esi
  00bb4	5b		 pop	 ebx
  00bb5	8b e5		 mov	 esp, ebp
  00bb7	5d		 pop	 ebp
  00bb8	c2 04 00	 ret	 4
?modify_3d_objects_approximations@@YGXM@Z ENDP		; modify_3d_objects_approximations
_TEXT	ENDS
; Function compile flags: /Odtp /ZI
; File c:\users\nhv90\projects\eech\aphavoc\source\app3d\3d_init.c
;	COMDAT ?set_application_display_3d_mode@@YGXW4DISPLAY_3D_TINTS@@W4DISPLAY_3D_LIGHT_LEVELS@@W4DISPLAY_3D_NOISE_LEVELS@@@Z
_TEXT	SEGMENT
tv257 = -124						; size = 4
tv230 = -124						; size = 4
tv197 = -124						; size = 4
tv167 = -124						; size = 4
tv137 = -124						; size = 4
tv78 = -124						; size = 4
tv64 = -124						; size = 4
_raw$1 = -56						; size = 4
_interference$2 = -52					; size = 4
_fog_colour$3 = -48					; size = 4
_direction$4 = -44					; size = 12
_main_light$5 = -32					; size = 16
_ambient_light$6 = -16					; size = 16
_tint$ = 8						; size = 4
_light_level$ = 12					; size = 4
_noise_level$ = 16					; size = 4
?set_application_display_3d_mode@@YGXW4DISPLAY_3D_TINTS@@W4DISPLAY_3D_LIGHT_LEVELS@@W4DISPLAY_3D_NOISE_LEVELS@@@Z PROC ; set_application_display_3d_mode, COMDAT

; 975  : {

  00000	55		 push	 ebp
  00001	8b ec		 mov	 ebp, esp
  00003	83 ec 7c	 sub	 esp, 124		; 0000007cH
  00006	53		 push	 ebx
  00007	56		 push	 esi
  00008	57		 push	 edi

; 976  : 
; 977  : 	current_3d_display_tint = tint;

  00009	8b 45 08	 mov	 eax, DWORD PTR _tint$[ebp]
  0000c	a3 00 00 00 00	 mov	 DWORD PTR ?current_3d_display_tint@@3W4DISPLAY_3D_TINTS@@A, eax ; current_3d_display_tint

; 978  : 
; 979  : 	current_3d_light_level = light_level;

  00011	8b 45 0c	 mov	 eax, DWORD PTR _light_level$[ebp]
  00014	a3 00 00 00 00	 mov	 DWORD PTR ?current_3d_light_level@@3W4DISPLAY_3D_LIGHT_LEVELS@@A, eax ; current_3d_light_level

; 980  : 
; 981  : 	current_3d_noise_level = noise_level;

  00019	8b 45 10	 mov	 eax, DWORD PTR _noise_level$[ebp]
  0001c	a3 00 00 00 00	 mov	 DWORD PTR ?current_3d_noise_level@@3W4DISPLAY_3D_NOISE_LEVELS@@A, eax ; current_3d_noise_level

; 982  : 
; 983  : 	switch (tint)

  00021	8b 45 08	 mov	 eax, DWORD PTR _tint$[ebp]
  00024	89 45 84	 mov	 DWORD PTR tv64[ebp], eax
  00027	83 7d 84 0b	 cmp	 DWORD PTR tv64[ebp], 11	; 0000000bH
  0002b	0f 87 f5 0b 00
	00		 ja	 $LN2@set_applic
  00031	8b 4d 84	 mov	 ecx, DWORD PTR tv64[ebp]
  00034	ff 24 8d 00 00
	00 00		 jmp	 DWORD PTR $LN51@set_applic[ecx*4]
$LN16@set_applic:

; 984  : 	{
; 985  : 
; 986  : 		light_colour
; 987  : 			ambient_light,
; 988  : 			main_light;
; 989  : 
; 990  : 		vec3d
; 991  : 			direction;
; 992  : 
; 993  : 		rgb_colour
; 994  : 			fog_colour;
; 995  : 
; 996  : 		case DISPLAY_3D_TINT_CLEAR:
; 997  : 		{
; 998  : 
; 999  : 			//
; 1000 : 			// Set the light modes
; 1001 : 			//
; 1002 : 
; 1003 : 			set_3d_lightmode ( main_3d_env, LIGHTMODE_AUTOMATIC_LIGHT );

  0003b	6a 01		 push	 1
  0003d	a1 00 00 00 00	 mov	 eax, DWORD PTR ?main_3d_env@@3PAUENV_3D@@A ; main_3d_env
  00042	50		 push	 eax
  00043	e8 00 00 00 00	 call	 ?set_3d_lightmode@@YGXPAUENV_3D@@W4LIGHTMODES@@@Z ; set_3d_lightmode

; 1004 : 
; 1005 : 			set_3d_infrared_mode ( main_3d_env, INFRARED_OFF );

  00048	6a 01		 push	 1
  0004a	a1 00 00 00 00	 mov	 eax, DWORD PTR ?main_3d_env@@3PAUENV_3D@@A ; main_3d_env
  0004f	50		 push	 eax
  00050	e8 00 00 00 00	 call	 ?set_3d_infrared_mode@@YGXPAUENV_3D@@W4RENDER_FILTERS@@@Z ; set_3d_infrared_mode

; 1006 : 
; 1007 : 			set_3d_fogmode ( main_3d_env, FOGMODE_ON_AUTOMATIC );

  00055	6a 01		 push	 1
  00057	a1 00 00 00 00	 mov	 eax, DWORD PTR ?main_3d_env@@3PAUENV_3D@@A ; main_3d_env
  0005c	50		 push	 eax
  0005d	e8 00 00 00 00	 call	 ?set_3d_fogmode@@YGXPAUENV_3D@@W4FOGMODES@@@Z ; set_3d_fogmode

; 1008 : 
; 1009 : 			break;

  00062	e9 bf 0b 00 00	 jmp	 $LN2@set_applic
$LN17@set_applic:

; 1010 : 		}
; 1011 : 
; 1012 : 		case DISPLAY_3D_TINT_BLUEGREEN:
; 1013 : 		{
; 1014 : 
; 1015 : 			//
; 1016 : 			// Set the light modes
; 1017 : 			//
; 1018 : 
; 1019 : 			set_3d_lightmode ( main_3d_env, LIGHTMODE_MANUAL_LIGHT );

  00067	6a 02		 push	 2
  00069	a1 00 00 00 00	 mov	 eax, DWORD PTR ?main_3d_env@@3PAUENV_3D@@A ; main_3d_env
  0006e	50		 push	 eax
  0006f	e8 00 00 00 00	 call	 ?set_3d_lightmode@@YGXPAUENV_3D@@W4LIGHTMODES@@@Z ; set_3d_lightmode

; 1020 : 
; 1021 : 			// start russian NVG WITHOUT FLIR by GCsDriver  08-12-2007
; 1022 : 			if(command_line_russian_nvg_no_ir)

  00074	83 3d 00 00 00
	00 00		 cmp	 DWORD PTR ?command_line_russian_nvg_no_ir@@3HA, 0 ; command_line_russian_nvg_no_ir
  0007b	74 0f		 je	 SHORT $LN18@set_applic

; 1023 : 			{
; 1024 : 				set_3d_infrared_mode ( main_3d_env, RENDER_MONOCHROME );

  0007d	6a 03		 push	 3
  0007f	a1 00 00 00 00	 mov	 eax, DWORD PTR ?main_3d_env@@3PAUENV_3D@@A ; main_3d_env
  00084	50		 push	 eax
  00085	e8 00 00 00 00	 call	 ?set_3d_infrared_mode@@YGXPAUENV_3D@@W4RENDER_FILTERS@@@Z ; set_3d_infrared_mode

; 1025 : 			}else{

  0008a	eb 0d		 jmp	 SHORT $LN19@set_applic
$LN18@set_applic:

; 1026 : 				set_3d_infrared_mode ( main_3d_env, INFRARED_ON );

  0008c	6a 02		 push	 2
  0008e	a1 00 00 00 00	 mov	 eax, DWORD PTR ?main_3d_env@@3PAUENV_3D@@A ; main_3d_env
  00093	50		 push	 eax
  00094	e8 00 00 00 00	 call	 ?set_3d_infrared_mode@@YGXPAUENV_3D@@W4RENDER_FILTERS@@@Z ; set_3d_infrared_mode
$LN19@set_applic:

; 1027 : 			}
; 1028 : 			// end russian NVG WITHOUT FLIR by GCsDriver  08-12-2007
; 1029 : 
; 1030 : 			//
; 1031 : 			// Set the light in the scene
; 1032 : 			//
; 1033 : 
; 1034 : 			switch ( current_3d_light_level )

  00099	a1 00 00 00 00	 mov	 eax, DWORD PTR ?current_3d_light_level@@3W4DISPLAY_3D_LIGHT_LEVELS@@A ; current_3d_light_level
  0009e	89 45 84	 mov	 DWORD PTR tv78[ebp], eax
  000a1	83 7d 84 00	 cmp	 DWORD PTR tv78[ebp], 0
  000a5	74 15		 je	 SHORT $LN20@set_applic
  000a7	83 7d 84 01	 cmp	 DWORD PTR tv78[ebp], 1
  000ab	74 58		 je	 SHORT $LN21@set_applic
  000ad	83 7d 84 02	 cmp	 DWORD PTR tv78[ebp], 2
  000b1	0f 84 94 00 00
	00		 je	 $LN22@set_applic
  000b7	e9 d3 00 00 00	 jmp	 $LN4@set_applic
$LN20@set_applic:

; 1035 : 			{
; 1036 : 				// start no red to avoid purple trees by GCsDriver  08-12-2007
; 1037 : 				case DISPLAY_3D_LIGHT_LEVEL_LOW:
; 1038 : 				{
; 1039 : 
; 1040 : 					ambient_light.red = 0.0;

  000bc	0f 57 c0	 xorps	 xmm0, xmm0
  000bf	f3 0f 11 45 f0	 movss	 DWORD PTR _ambient_light$6[ebp], xmm0

; 1041 : 					ambient_light.green = 0.468;

  000c4	f3 0f 10 05 00
	00 00 00	 movss	 xmm0, DWORD PTR __real@3eef9db2
  000cc	f3 0f 11 45 f4	 movss	 DWORD PTR _ambient_light$6[ebp+4], xmm0

; 1042 : 					ambient_light.blue = 0.4;

  000d1	f3 0f 10 05 00
	00 00 00	 movss	 xmm0, DWORD PTR __real@3ecccccd
  000d9	f3 0f 11 45 f8	 movss	 DWORD PTR _ambient_light$6[ebp+8], xmm0

; 1043 : 
; 1044 : 					main_light.red = 0.0;

  000de	0f 57 c0	 xorps	 xmm0, xmm0
  000e1	f3 0f 11 45 e0	 movss	 DWORD PTR _main_light$5[ebp], xmm0

; 1045 : 					main_light.green = 0.15;

  000e6	f3 0f 10 05 00
	00 00 00	 movss	 xmm0, DWORD PTR __real@3e19999a
  000ee	f3 0f 11 45 e4	 movss	 DWORD PTR _main_light$5[ebp+4], xmm0

; 1046 : 					main_light.blue = 0.12;

  000f3	f3 0f 10 05 00
	00 00 00	 movss	 xmm0, DWORD PTR __real@3df5c28f
  000fb	f3 0f 11 45 e8	 movss	 DWORD PTR _main_light$5[ebp+8], xmm0

; 1047 : 
; 1048 : 					break;

  00100	e9 8a 00 00 00	 jmp	 $LN4@set_applic
$LN21@set_applic:

; 1049 : 				}
; 1050 : 
; 1051 : 				case DISPLAY_3D_LIGHT_LEVEL_MEDIUM:
; 1052 : 				{
; 1053 : 
; 1054 : 					ambient_light.red = 0.0;

  00105	0f 57 c0	 xorps	 xmm0, xmm0
  00108	f3 0f 11 45 f0	 movss	 DWORD PTR _ambient_light$6[ebp], xmm0

; 1055 : 					ambient_light.green = 0.574;

  0010d	f3 0f 10 05 00
	00 00 00	 movss	 xmm0, DWORD PTR __real@3f12f1aa
  00115	f3 0f 11 45 f4	 movss	 DWORD PTR _ambient_light$6[ebp+4], xmm0

; 1056 : 					ambient_light.blue = 0.5;

  0011a	f3 0f 10 05 00
	00 00 00	 movss	 xmm0, DWORD PTR __real@3f000000
  00122	f3 0f 11 45 f8	 movss	 DWORD PTR _ambient_light$6[ebp+8], xmm0

; 1057 : 
; 1058 : 					main_light.red = 0.0;

  00127	0f 57 c0	 xorps	 xmm0, xmm0
  0012a	f3 0f 11 45 e0	 movss	 DWORD PTR _main_light$5[ebp], xmm0

; 1059 : 					main_light.green = 0.2;

  0012f	f3 0f 10 05 00
	00 00 00	 movss	 xmm0, DWORD PTR __real@3e4ccccd
  00137	f3 0f 11 45 e4	 movss	 DWORD PTR _main_light$5[ebp+4], xmm0

; 1060 : 					main_light.blue = 0.16;

  0013c	f3 0f 10 05 00
	00 00 00	 movss	 xmm0, DWORD PTR __real@3e23d70a
  00144	f3 0f 11 45 e8	 movss	 DWORD PTR _main_light$5[ebp+8], xmm0

; 1061 : 
; 1062 : 					break;

  00149	eb 44		 jmp	 SHORT $LN4@set_applic
$LN22@set_applic:

; 1063 : 				}
; 1064 : 
; 1065 : 				case DISPLAY_3D_LIGHT_LEVEL_HIGH:
; 1066 : 				{
; 1067 : 					ambient_light.red = 0.0;

  0014b	0f 57 c0	 xorps	 xmm0, xmm0
  0014e	f3 0f 11 45 f0	 movss	 DWORD PTR _ambient_light$6[ebp], xmm0

; 1068 : 					ambient_light.green = 0.7;

  00153	f3 0f 10 05 00
	00 00 00	 movss	 xmm0, DWORD PTR __real@3f333333
  0015b	f3 0f 11 45 f4	 movss	 DWORD PTR _ambient_light$6[ebp+4], xmm0

; 1069 : 					ambient_light.blue = 0.6;

  00160	f3 0f 10 05 00
	00 00 00	 movss	 xmm0, DWORD PTR __real@3f19999a
  00168	f3 0f 11 45 f8	 movss	 DWORD PTR _ambient_light$6[ebp+8], xmm0

; 1070 : 
; 1071 : 					main_light.red = 0.0;

  0016d	0f 57 c0	 xorps	 xmm0, xmm0
  00170	f3 0f 11 45 e0	 movss	 DWORD PTR _main_light$5[ebp], xmm0

; 1072 : 					main_light.green = 0.25;

  00175	f3 0f 10 05 00
	00 00 00	 movss	 xmm0, DWORD PTR __real@3e800000
  0017d	f3 0f 11 45 e4	 movss	 DWORD PTR _main_light$5[ebp+4], xmm0

; 1073 : 					main_light.blue = 0.2;

  00182	f3 0f 10 05 00
	00 00 00	 movss	 xmm0, DWORD PTR __real@3e4ccccd
  0018a	f3 0f 11 45 e8	 movss	 DWORD PTR _main_light$5[ebp+8], xmm0
$LN4@set_applic:

; 1074 : 
; 1075 : 					break;
; 1076 : 				}
; 1077 : 			}
; 1078 : 			// end no red to avoid purple trees by GCsDriver  08-12-2007
; 1079 : 
; 1080 : 			set_3d_ambient_light_source ( main_3d_env, &ambient_light );

  0018f	8d 45 f0	 lea	 eax, DWORD PTR _ambient_light$6[ebp]
  00192	50		 push	 eax
  00193	8b 0d 00 00 00
	00		 mov	 ecx, DWORD PTR ?main_3d_env@@3PAUENV_3D@@A ; main_3d_env
  00199	51		 push	 ecx
  0019a	e8 00 00 00 00	 call	 ?set_3d_ambient_light_source@@YGXPAUENV_3D@@PAULIGHT_COLOUR@@@Z ; set_3d_ambient_light_source

; 1081 : 
; 1082 : 			direction.x = -main_vp.zv.x;

  0019f	f3 0f 10 05 24
	00 00 00	 movss	 xmm0, DWORD PTR ?main_vp@@3UVIEWPOINT@@A+36
  001a7	0f 57 05 00 00
	00 00		 xorps	 xmm0, DWORD PTR __xmm@80000000800000008000000080000000
  001ae	f3 0f 11 45 d4	 movss	 DWORD PTR _direction$4[ebp], xmm0

; 1083 : 			direction.y = -main_vp.zv.y;

  001b3	f3 0f 10 05 28
	00 00 00	 movss	 xmm0, DWORD PTR ?main_vp@@3UVIEWPOINT@@A+40
  001bb	0f 57 05 00 00
	00 00		 xorps	 xmm0, DWORD PTR __xmm@80000000800000008000000080000000
  001c2	f3 0f 11 45 d8	 movss	 DWORD PTR _direction$4[ebp+4], xmm0

; 1084 : 			direction.z = -main_vp.zv.z;

  001c7	f3 0f 10 05 2c
	00 00 00	 movss	 xmm0, DWORD PTR ?main_vp@@3UVIEWPOINT@@A+44
  001cf	0f 57 05 00 00
	00 00		 xorps	 xmm0, DWORD PTR __xmm@80000000800000008000000080000000
  001d6	f3 0f 11 45 dc	 movss	 DWORD PTR _direction$4[ebp+8], xmm0

; 1085 : 
; 1086 : 			set_3d_main_light_source ( main_3d_env, &main_light, &direction, FALSE );

  001db	6a 00		 push	 0
  001dd	8d 45 d4	 lea	 eax, DWORD PTR _direction$4[ebp]
  001e0	50		 push	 eax
  001e1	8d 4d e0	 lea	 ecx, DWORD PTR _main_light$5[ebp]
  001e4	51		 push	 ecx
  001e5	8b 15 00 00 00
	00		 mov	 edx, DWORD PTR ?main_3d_env@@3PAUENV_3D@@A ; main_3d_env
  001eb	52		 push	 edx
  001ec	e8 00 00 00 00	 call	 ?set_3d_main_light_source@@YGXPAUENV_3D@@PAULIGHT_COLOUR@@PAUVEC3D@@H@Z ; set_3d_main_light_source

; 1087 : 
; 1088 : 			//
; 1089 : 			// Set the fogmode
; 1090 : 			//
; 1091 : 
; 1092 : 			set_3d_fogmode ( main_3d_env, FOGMODE_ON_MANUAL );

  001f1	6a 02		 push	 2
  001f3	a1 00 00 00 00	 mov	 eax, DWORD PTR ?main_3d_env@@3PAUENV_3D@@A ; main_3d_env
  001f8	50		 push	 eax
  001f9	e8 00 00 00 00	 call	 ?set_3d_fogmode@@YGXPAUENV_3D@@W4FOGMODES@@@Z ; set_3d_fogmode

; 1093 : 
; 1094 : 			fog_colour.r = ambient_light.red * 128;

  001fe	f3 0f 10 45 f0	 movss	 xmm0, DWORD PTR _ambient_light$6[ebp]
  00203	f3 0f 59 05 00
	00 00 00	 mulss	 xmm0, DWORD PTR __real@43000000
  0020b	f3 0f 2c c0	 cvttss2si eax, xmm0
  0020f	88 45 d2	 mov	 BYTE PTR _fog_colour$3[ebp+2], al

; 1095 : 			fog_colour.g = ambient_light.green * 128;

  00212	f3 0f 10 45 f4	 movss	 xmm0, DWORD PTR _ambient_light$6[ebp+4]
  00217	f3 0f 59 05 00
	00 00 00	 mulss	 xmm0, DWORD PTR __real@43000000
  0021f	f3 0f 2c c0	 cvttss2si eax, xmm0
  00223	88 45 d1	 mov	 BYTE PTR _fog_colour$3[ebp+1], al

; 1096 : 			fog_colour.b = ambient_light.blue * 128;

  00226	f3 0f 10 45 f8	 movss	 xmm0, DWORD PTR _ambient_light$6[ebp+8]
  0022b	f3 0f 59 05 00
	00 00 00	 mulss	 xmm0, DWORD PTR __real@43000000
  00233	f3 0f 2c c0	 cvttss2si eax, xmm0
  00237	88 45 d0	 mov	 BYTE PTR _fog_colour$3[ebp], al

; 1097 : 			fog_colour.a = 0;

  0023a	c6 45 d3 00	 mov	 BYTE PTR _fog_colour$3[ebp+3], 0

; 1098 : 
; 1099 : 			set_3d_fog_colour ( main_3d_env, fog_colour );

  0023e	8b 45 d0	 mov	 eax, DWORD PTR _fog_colour$3[ebp]
  00241	50		 push	 eax
  00242	8b 0d 00 00 00
	00		 mov	 ecx, DWORD PTR ?main_3d_env@@3PAUENV_3D@@A ; main_3d_env
  00248	51		 push	 ecx
  00249	e8 00 00 00 00	 call	 ?set_3d_fog_colour@@YGXPAUENV_3D@@UREAL_COLOUR@@@Z ; set_3d_fog_colour

; 1100 : 
; 1101 : 			break;

  0024e	e9 d3 09 00 00	 jmp	 $LN2@set_applic
$LN23@set_applic:

; 1102 : 			
; 1103 : 		}
; 1104 : 
; 1105 : 		case DISPLAY_3D_TINT_BLUE:
; 1106 : 		{
; 1107 : 
; 1108 : 			//
; 1109 : 			// Set the light modes
; 1110 : 			//
; 1111 : 
; 1112 : 			set_3d_lightmode ( main_3d_env, LIGHTMODE_MANUAL_LIGHT );

  00253	6a 02		 push	 2
  00255	a1 00 00 00 00	 mov	 eax, DWORD PTR ?main_3d_env@@3PAUENV_3D@@A ; main_3d_env
  0025a	50		 push	 eax
  0025b	e8 00 00 00 00	 call	 ?set_3d_lightmode@@YGXPAUENV_3D@@W4LIGHTMODES@@@Z ; set_3d_lightmode

; 1113 : 
; 1114 : 			set_3d_infrared_mode ( main_3d_env, INFRARED_ON );

  00260	6a 02		 push	 2
  00262	a1 00 00 00 00	 mov	 eax, DWORD PTR ?main_3d_env@@3PAUENV_3D@@A ; main_3d_env
  00267	50		 push	 eax
  00268	e8 00 00 00 00	 call	 ?set_3d_infrared_mode@@YGXPAUENV_3D@@W4RENDER_FILTERS@@@Z ; set_3d_infrared_mode

; 1115 : 
; 1116 : 			//
; 1117 : 			// Set the light in the scene
; 1118 : 			//
; 1119 : 
; 1120 : 			switch ( current_3d_light_level )

  0026d	a1 00 00 00 00	 mov	 eax, DWORD PTR ?current_3d_light_level@@3W4DISPLAY_3D_LIGHT_LEVELS@@A ; current_3d_light_level
  00272	89 45 84	 mov	 DWORD PTR tv137[ebp], eax
  00275	83 7d 84 00	 cmp	 DWORD PTR tv137[ebp], 0
  00279	74 15		 je	 SHORT $LN24@set_applic
  0027b	83 7d 84 01	 cmp	 DWORD PTR tv137[ebp], 1
  0027f	74 58		 je	 SHORT $LN25@set_applic
  00281	83 7d 84 02	 cmp	 DWORD PTR tv137[ebp], 2
  00285	0f 84 94 00 00
	00		 je	 $LN26@set_applic
  0028b	e9 dd 00 00 00	 jmp	 $LN6@set_applic
$LN24@set_applic:

; 1121 : 			{
; 1122 : 				case DISPLAY_3D_LIGHT_LEVEL_LOW:
; 1123 : 				{
; 1124 : 
; 1125 : 					ambient_light.red = 0.25;

  00290	f3 0f 10 05 00
	00 00 00	 movss	 xmm0, DWORD PTR __real@3e800000
  00298	f3 0f 11 45 f0	 movss	 DWORD PTR _ambient_light$6[ebp], xmm0

; 1126 : 					ambient_light.green = 0.25;

  0029d	f3 0f 10 05 00
	00 00 00	 movss	 xmm0, DWORD PTR __real@3e800000
  002a5	f3 0f 11 45 f4	 movss	 DWORD PTR _ambient_light$6[ebp+4], xmm0

; 1127 : 					ambient_light.blue = 0.7;

  002aa	f3 0f 10 05 00
	00 00 00	 movss	 xmm0, DWORD PTR __real@3f333333
  002b2	f3 0f 11 45 f8	 movss	 DWORD PTR _ambient_light$6[ebp+8], xmm0

; 1128 : 
; 1129 : 					main_light.red = 0.0;

  002b7	0f 57 c0	 xorps	 xmm0, xmm0
  002ba	f3 0f 11 45 e0	 movss	 DWORD PTR _main_light$5[ebp], xmm0

; 1130 : 					main_light.green = 0.0;

  002bf	0f 57 c0	 xorps	 xmm0, xmm0
  002c2	f3 0f 11 45 e4	 movss	 DWORD PTR _main_light$5[ebp+4], xmm0

; 1131 : 					main_light.blue = 0.2;

  002c7	f3 0f 10 05 00
	00 00 00	 movss	 xmm0, DWORD PTR __real@3e4ccccd
  002cf	f3 0f 11 45 e8	 movss	 DWORD PTR _main_light$5[ebp+8], xmm0

; 1132 : 
; 1133 : 					break;

  002d4	e9 94 00 00 00	 jmp	 $LN6@set_applic
$LN25@set_applic:

; 1134 : 				}
; 1135 : 
; 1136 : 				case DISPLAY_3D_LIGHT_LEVEL_MEDIUM:
; 1137 : 				{
; 1138 : 
; 1139 : 					ambient_light.red = 0.4;

  002d9	f3 0f 10 05 00
	00 00 00	 movss	 xmm0, DWORD PTR __real@3ecccccd
  002e1	f3 0f 11 45 f0	 movss	 DWORD PTR _ambient_light$6[ebp], xmm0

; 1140 : 					ambient_light.green = 0.4;

  002e6	f3 0f 10 05 00
	00 00 00	 movss	 xmm0, DWORD PTR __real@3ecccccd
  002ee	f3 0f 11 45 f4	 movss	 DWORD PTR _ambient_light$6[ebp+4], xmm0

; 1141 : 					ambient_light.blue = 0.8;

  002f3	f3 0f 10 05 00
	00 00 00	 movss	 xmm0, DWORD PTR __real@3f4ccccd
  002fb	f3 0f 11 45 f8	 movss	 DWORD PTR _ambient_light$6[ebp+8], xmm0

; 1142 : 
; 1143 : 					main_light.red = 0.0;

  00300	0f 57 c0	 xorps	 xmm0, xmm0
  00303	f3 0f 11 45 e0	 movss	 DWORD PTR _main_light$5[ebp], xmm0

; 1144 : 					main_light.green = 0.0;

  00308	0f 57 c0	 xorps	 xmm0, xmm0
  0030b	f3 0f 11 45 e4	 movss	 DWORD PTR _main_light$5[ebp+4], xmm0

; 1145 : 					main_light.blue = 0.25;

  00310	f3 0f 10 05 00
	00 00 00	 movss	 xmm0, DWORD PTR __real@3e800000
  00318	f3 0f 11 45 e8	 movss	 DWORD PTR _main_light$5[ebp+8], xmm0

; 1146 : 
; 1147 : 					break;

  0031d	eb 4e		 jmp	 SHORT $LN6@set_applic
$LN26@set_applic:

; 1148 : 				}
; 1149 : 
; 1150 : 				case DISPLAY_3D_LIGHT_LEVEL_HIGH:
; 1151 : 				{
; 1152 : 					ambient_light.red = 0.6;

  0031f	f3 0f 10 05 00
	00 00 00	 movss	 xmm0, DWORD PTR __real@3f19999a
  00327	f3 0f 11 45 f0	 movss	 DWORD PTR _ambient_light$6[ebp], xmm0

; 1153 : 					ambient_light.green = 0.6;

  0032c	f3 0f 10 05 00
	00 00 00	 movss	 xmm0, DWORD PTR __real@3f19999a
  00334	f3 0f 11 45 f4	 movss	 DWORD PTR _ambient_light$6[ebp+4], xmm0

; 1154 : 					ambient_light.blue = 1.0;

  00339	f3 0f 10 05 00
	00 00 00	 movss	 xmm0, DWORD PTR __real@3f800000
  00341	f3 0f 11 45 f8	 movss	 DWORD PTR _ambient_light$6[ebp+8], xmm0

; 1155 : 
; 1156 : 					main_light.red = 0.3;

  00346	f3 0f 10 05 00
	00 00 00	 movss	 xmm0, DWORD PTR __real@3e99999a
  0034e	f3 0f 11 45 e0	 movss	 DWORD PTR _main_light$5[ebp], xmm0

; 1157 : 					main_light.green = 0.3;

  00353	f3 0f 10 05 00
	00 00 00	 movss	 xmm0, DWORD PTR __real@3e99999a
  0035b	f3 0f 11 45 e4	 movss	 DWORD PTR _main_light$5[ebp+4], xmm0

; 1158 : 					main_light.blue = 0.4;

  00360	f3 0f 10 05 00
	00 00 00	 movss	 xmm0, DWORD PTR __real@3ecccccd
  00368	f3 0f 11 45 e8	 movss	 DWORD PTR _main_light$5[ebp+8], xmm0
$LN6@set_applic:

; 1159 : 
; 1160 : 					break;
; 1161 : 				}
; 1162 : 			}
; 1163 : 
; 1164 : 			set_3d_ambient_light_source ( main_3d_env, &ambient_light );

  0036d	8d 45 f0	 lea	 eax, DWORD PTR _ambient_light$6[ebp]
  00370	50		 push	 eax
  00371	8b 0d 00 00 00
	00		 mov	 ecx, DWORD PTR ?main_3d_env@@3PAUENV_3D@@A ; main_3d_env
  00377	51		 push	 ecx
  00378	e8 00 00 00 00	 call	 ?set_3d_ambient_light_source@@YGXPAUENV_3D@@PAULIGHT_COLOUR@@@Z ; set_3d_ambient_light_source

; 1165 : 
; 1166 : 			direction.x = -main_vp.zv.x;

  0037d	f3 0f 10 05 24
	00 00 00	 movss	 xmm0, DWORD PTR ?main_vp@@3UVIEWPOINT@@A+36
  00385	0f 57 05 00 00
	00 00		 xorps	 xmm0, DWORD PTR __xmm@80000000800000008000000080000000
  0038c	f3 0f 11 45 d4	 movss	 DWORD PTR _direction$4[ebp], xmm0

; 1167 : 			direction.y = -main_vp.zv.y;

  00391	f3 0f 10 05 28
	00 00 00	 movss	 xmm0, DWORD PTR ?main_vp@@3UVIEWPOINT@@A+40
  00399	0f 57 05 00 00
	00 00		 xorps	 xmm0, DWORD PTR __xmm@80000000800000008000000080000000
  003a0	f3 0f 11 45 d8	 movss	 DWORD PTR _direction$4[ebp+4], xmm0

; 1168 : 			direction.z = -main_vp.zv.z;

  003a5	f3 0f 10 05 2c
	00 00 00	 movss	 xmm0, DWORD PTR ?main_vp@@3UVIEWPOINT@@A+44
  003ad	0f 57 05 00 00
	00 00		 xorps	 xmm0, DWORD PTR __xmm@80000000800000008000000080000000
  003b4	f3 0f 11 45 dc	 movss	 DWORD PTR _direction$4[ebp+8], xmm0

; 1169 : 
; 1170 : 			set_3d_main_light_source ( main_3d_env, &main_light, &direction, FALSE );

  003b9	6a 00		 push	 0
  003bb	8d 45 d4	 lea	 eax, DWORD PTR _direction$4[ebp]
  003be	50		 push	 eax
  003bf	8d 4d e0	 lea	 ecx, DWORD PTR _main_light$5[ebp]
  003c2	51		 push	 ecx
  003c3	8b 15 00 00 00
	00		 mov	 edx, DWORD PTR ?main_3d_env@@3PAUENV_3D@@A ; main_3d_env
  003c9	52		 push	 edx
  003ca	e8 00 00 00 00	 call	 ?set_3d_main_light_source@@YGXPAUENV_3D@@PAULIGHT_COLOUR@@PAUVEC3D@@H@Z ; set_3d_main_light_source

; 1171 : 
; 1172 : 			//
; 1173 : 			// Set the fogmode
; 1174 : 			//
; 1175 : 
; 1176 : 			set_3d_fogmode ( main_3d_env, FOGMODE_ON_MANUAL );

  003cf	6a 02		 push	 2
  003d1	a1 00 00 00 00	 mov	 eax, DWORD PTR ?main_3d_env@@3PAUENV_3D@@A ; main_3d_env
  003d6	50		 push	 eax
  003d7	e8 00 00 00 00	 call	 ?set_3d_fogmode@@YGXPAUENV_3D@@W4FOGMODES@@@Z ; set_3d_fogmode

; 1177 : 
; 1178 : 			fog_colour.r = ambient_light.red * 128;

  003dc	f3 0f 10 45 f0	 movss	 xmm0, DWORD PTR _ambient_light$6[ebp]
  003e1	f3 0f 59 05 00
	00 00 00	 mulss	 xmm0, DWORD PTR __real@43000000
  003e9	f3 0f 2c c0	 cvttss2si eax, xmm0
  003ed	88 45 d2	 mov	 BYTE PTR _fog_colour$3[ebp+2], al

; 1179 : 			fog_colour.g = ambient_light.green * 128;

  003f0	f3 0f 10 45 f4	 movss	 xmm0, DWORD PTR _ambient_light$6[ebp+4]
  003f5	f3 0f 59 05 00
	00 00 00	 mulss	 xmm0, DWORD PTR __real@43000000
  003fd	f3 0f 2c c0	 cvttss2si eax, xmm0
  00401	88 45 d1	 mov	 BYTE PTR _fog_colour$3[ebp+1], al

; 1180 : 			fog_colour.b = ambient_light.blue * 128;

  00404	f3 0f 10 45 f8	 movss	 xmm0, DWORD PTR _ambient_light$6[ebp+8]
  00409	f3 0f 59 05 00
	00 00 00	 mulss	 xmm0, DWORD PTR __real@43000000
  00411	f3 0f 2c c0	 cvttss2si eax, xmm0
  00415	88 45 d0	 mov	 BYTE PTR _fog_colour$3[ebp], al

; 1181 : 			fog_colour.a = 0;

  00418	c6 45 d3 00	 mov	 BYTE PTR _fog_colour$3[ebp+3], 0

; 1182 : 
; 1183 : 			set_3d_fog_colour ( main_3d_env, fog_colour );

  0041c	8b 45 d0	 mov	 eax, DWORD PTR _fog_colour$3[ebp]
  0041f	50		 push	 eax
  00420	8b 0d 00 00 00
	00		 mov	 ecx, DWORD PTR ?main_3d_env@@3PAUENV_3D@@A ; main_3d_env
  00426	51		 push	 ecx
  00427	e8 00 00 00 00	 call	 ?set_3d_fog_colour@@YGXPAUENV_3D@@UREAL_COLOUR@@@Z ; set_3d_fog_colour

; 1184 : 
; 1185 : 			break;

  0042c	e9 f5 07 00 00	 jmp	 $LN2@set_applic
$LN27@set_applic:

; 1186 : 		}
; 1187 : 
; 1188 : 		case DISPLAY_3D_TINT_AMBER:
; 1189 : 		case DISPLAY_3D_TINT_AMBER_VISUAL:
; 1190 : 		{
; 1191 : 
; 1192 : 			//
; 1193 : 			// Set the light modes
; 1194 : 			//
; 1195 : 
; 1196 : 			set_3d_lightmode ( main_3d_env, LIGHTMODE_MANUAL_LIGHT );

  00431	6a 02		 push	 2
  00433	a1 00 00 00 00	 mov	 eax, DWORD PTR ?main_3d_env@@3PAUENV_3D@@A ; main_3d_env
  00438	50		 push	 eax
  00439	e8 00 00 00 00	 call	 ?set_3d_lightmode@@YGXPAUENV_3D@@W4LIGHTMODES@@@Z ; set_3d_lightmode

; 1197 : 
; 1198 : 			if (tint == DISPLAY_3D_TINT_AMBER_VISUAL)

  0043e	83 7d 08 02	 cmp	 DWORD PTR _tint$[ebp], 2
  00442	75 0f		 jne	 SHORT $LN28@set_applic

; 1199 : 				set_3d_infrared_mode ( main_3d_env, RENDER_MONOCHROME );

  00444	6a 03		 push	 3
  00446	a1 00 00 00 00	 mov	 eax, DWORD PTR ?main_3d_env@@3PAUENV_3D@@A ; main_3d_env
  0044b	50		 push	 eax
  0044c	e8 00 00 00 00	 call	 ?set_3d_infrared_mode@@YGXPAUENV_3D@@W4RENDER_FILTERS@@@Z ; set_3d_infrared_mode

; 1200 : 			else

  00451	eb 0d		 jmp	 SHORT $LN29@set_applic
$LN28@set_applic:

; 1201 : 				set_3d_infrared_mode ( main_3d_env, RENDER_INFRARED );

  00453	6a 02		 push	 2
  00455	a1 00 00 00 00	 mov	 eax, DWORD PTR ?main_3d_env@@3PAUENV_3D@@A ; main_3d_env
  0045a	50		 push	 eax
  0045b	e8 00 00 00 00	 call	 ?set_3d_infrared_mode@@YGXPAUENV_3D@@W4RENDER_FILTERS@@@Z ; set_3d_infrared_mode
$LN29@set_applic:

; 1202 : 
; 1203 : 			//
; 1204 : 			// Set the light in the scene
; 1205 : 			//
; 1206 : 
; 1207 : 			switch ( current_3d_light_level )

  00460	a1 00 00 00 00	 mov	 eax, DWORD PTR ?current_3d_light_level@@3W4DISPLAY_3D_LIGHT_LEVELS@@A ; current_3d_light_level
  00465	89 45 84	 mov	 DWORD PTR tv167[ebp], eax
  00468	83 7d 84 00	 cmp	 DWORD PTR tv167[ebp], 0
  0046c	74 15		 je	 SHORT $LN30@set_applic
  0046e	83 7d 84 01	 cmp	 DWORD PTR tv167[ebp], 1
  00472	74 58		 je	 SHORT $LN31@set_applic
  00474	83 7d 84 02	 cmp	 DWORD PTR tv167[ebp], 2
  00478	0f 84 94 00 00
	00		 je	 $LN32@set_applic
  0047e	e9 d3 00 00 00	 jmp	 $LN8@set_applic
$LN30@set_applic:

; 1208 : 			{
; 1209 : 				// start 3d effect by GCsDriver  08-12-2007
; 1210 : 				case DISPLAY_3D_LIGHT_LEVEL_LOW:
; 1211 : 				{
; 1212 : 
; 1213 : 					ambient_light.red = 0.7;

  00483	f3 0f 10 05 00
	00 00 00	 movss	 xmm0, DWORD PTR __real@3f333333
  0048b	f3 0f 11 45 f0	 movss	 DWORD PTR _ambient_light$6[ebp], xmm0

; 1214 : 					ambient_light.green = 0.35;

  00490	f3 0f 10 05 00
	00 00 00	 movss	 xmm0, DWORD PTR __real@3eb33333
  00498	f3 0f 11 45 f4	 movss	 DWORD PTR _ambient_light$6[ebp+4], xmm0

; 1215 : 					ambient_light.blue = 0.0;

  0049d	0f 57 c0	 xorps	 xmm0, xmm0
  004a0	f3 0f 11 45 f8	 movss	 DWORD PTR _ambient_light$6[ebp+8], xmm0

; 1216 : 
; 1217 : 					main_light.red = 0.24;

  004a5	f3 0f 10 05 00
	00 00 00	 movss	 xmm0, DWORD PTR __real@3e75c28f
  004ad	f3 0f 11 45 e0	 movss	 DWORD PTR _main_light$5[ebp], xmm0

; 1218 : 					main_light.green = 0.12;

  004b2	f3 0f 10 05 00
	00 00 00	 movss	 xmm0, DWORD PTR __real@3df5c28f
  004ba	f3 0f 11 45 e4	 movss	 DWORD PTR _main_light$5[ebp+4], xmm0

; 1219 : 					main_light.blue = 0.0;

  004bf	0f 57 c0	 xorps	 xmm0, xmm0
  004c2	f3 0f 11 45 e8	 movss	 DWORD PTR _main_light$5[ebp+8], xmm0

; 1220 : 
; 1221 : 					break;

  004c7	e9 8a 00 00 00	 jmp	 $LN8@set_applic
$LN31@set_applic:

; 1222 : 				}
; 1223 : 
; 1224 : 				case DISPLAY_3D_LIGHT_LEVEL_MEDIUM:
; 1225 : 				{
; 1226 : 
; 1227 : 					ambient_light.red = 0.9;

  004cc	f3 0f 10 05 00
	00 00 00	 movss	 xmm0, DWORD PTR __real@3f666666
  004d4	f3 0f 11 45 f0	 movss	 DWORD PTR _ambient_light$6[ebp], xmm0

; 1228 : 					ambient_light.green = 0.45;

  004d9	f3 0f 10 05 00
	00 00 00	 movss	 xmm0, DWORD PTR __real@3ee66666
  004e1	f3 0f 11 45 f4	 movss	 DWORD PTR _ambient_light$6[ebp+4], xmm0

; 1229 : 					ambient_light.blue = 0.0;

  004e6	0f 57 c0	 xorps	 xmm0, xmm0
  004e9	f3 0f 11 45 f8	 movss	 DWORD PTR _ambient_light$6[ebp+8], xmm0

; 1230 : 
; 1231 : 					main_light.red = 0.32;

  004ee	f3 0f 10 05 00
	00 00 00	 movss	 xmm0, DWORD PTR __real@3ea3d70a
  004f6	f3 0f 11 45 e0	 movss	 DWORD PTR _main_light$5[ebp], xmm0

; 1232 : 					main_light.green = 0.16;

  004fb	f3 0f 10 05 00
	00 00 00	 movss	 xmm0, DWORD PTR __real@3e23d70a
  00503	f3 0f 11 45 e4	 movss	 DWORD PTR _main_light$5[ebp+4], xmm0

; 1233 : 					main_light.blue = 0.0;

  00508	0f 57 c0	 xorps	 xmm0, xmm0
  0050b	f3 0f 11 45 e8	 movss	 DWORD PTR _main_light$5[ebp+8], xmm0

; 1234 : 
; 1235 : 					break;

  00510	eb 44		 jmp	 SHORT $LN8@set_applic
$LN32@set_applic:

; 1236 : 				}
; 1237 : 
; 1238 : 				case DISPLAY_3D_LIGHT_LEVEL_HIGH:
; 1239 : 				{
; 1240 : 					ambient_light.red = 1.1;

  00512	f3 0f 10 05 00
	00 00 00	 movss	 xmm0, DWORD PTR __real@3f8ccccd
  0051a	f3 0f 11 45 f0	 movss	 DWORD PTR _ambient_light$6[ebp], xmm0

; 1241 : 					ambient_light.green = 0.55;

  0051f	f3 0f 10 05 00
	00 00 00	 movss	 xmm0, DWORD PTR __real@3f0ccccd
  00527	f3 0f 11 45 f4	 movss	 DWORD PTR _ambient_light$6[ebp+4], xmm0

; 1242 : 					ambient_light.blue = 0.0;

  0052c	0f 57 c0	 xorps	 xmm0, xmm0
  0052f	f3 0f 11 45 f8	 movss	 DWORD PTR _ambient_light$6[ebp+8], xmm0

; 1243 : 
; 1244 : 					main_light.red = 0.4;

  00534	f3 0f 10 05 00
	00 00 00	 movss	 xmm0, DWORD PTR __real@3ecccccd
  0053c	f3 0f 11 45 e0	 movss	 DWORD PTR _main_light$5[ebp], xmm0

; 1245 : 					main_light.green = 0.2;

  00541	f3 0f 10 05 00
	00 00 00	 movss	 xmm0, DWORD PTR __real@3e4ccccd
  00549	f3 0f 11 45 e4	 movss	 DWORD PTR _main_light$5[ebp+4], xmm0

; 1246 : 					main_light.blue = 0.0;

  0054e	0f 57 c0	 xorps	 xmm0, xmm0
  00551	f3 0f 11 45 e8	 movss	 DWORD PTR _main_light$5[ebp+8], xmm0
$LN8@set_applic:

; 1247 : 
; 1248 : 					break;
; 1249 : 				}
; 1250 : 
; 1251 : 				// end 3d effect by GCsDriver  08-12-2007
; 1252 : /* buggy
; 1253 : //VJ 060105 extra light level for PNVS
; 1254 : 				case DISPLAY_3D_LIGHT_LEVEL_VERY_HIGH:
; 1255 : 				{
; 1256 : 
; 1257 : 					ambient_light.red = 1.2;
; 1258 : 					ambient_light.green = 1.0;
; 1259 : 					ambient_light.blue = 0.2;
; 1260 : 
; 1261 : 					main_light.red = 0.5;
; 1262 : 					main_light.green = 0.4;
; 1263 : 					main_light.blue = 0.2;
; 1264 : 					break;
; 1265 : 				}
; 1266 : */
; 1267 : 			}
; 1268 : 
; 1269 : 			set_3d_ambient_light_source ( main_3d_env, &ambient_light );

  00556	8d 45 f0	 lea	 eax, DWORD PTR _ambient_light$6[ebp]
  00559	50		 push	 eax
  0055a	8b 0d 00 00 00
	00		 mov	 ecx, DWORD PTR ?main_3d_env@@3PAUENV_3D@@A ; main_3d_env
  00560	51		 push	 ecx
  00561	e8 00 00 00 00	 call	 ?set_3d_ambient_light_source@@YGXPAUENV_3D@@PAULIGHT_COLOUR@@@Z ; set_3d_ambient_light_source

; 1270 : 
; 1271 : 			direction.x = -main_vp.zv.x;

  00566	f3 0f 10 05 24
	00 00 00	 movss	 xmm0, DWORD PTR ?main_vp@@3UVIEWPOINT@@A+36
  0056e	0f 57 05 00 00
	00 00		 xorps	 xmm0, DWORD PTR __xmm@80000000800000008000000080000000
  00575	f3 0f 11 45 d4	 movss	 DWORD PTR _direction$4[ebp], xmm0

; 1272 : 			direction.y = -main_vp.zv.y;

  0057a	f3 0f 10 05 28
	00 00 00	 movss	 xmm0, DWORD PTR ?main_vp@@3UVIEWPOINT@@A+40
  00582	0f 57 05 00 00
	00 00		 xorps	 xmm0, DWORD PTR __xmm@80000000800000008000000080000000
  00589	f3 0f 11 45 d8	 movss	 DWORD PTR _direction$4[ebp+4], xmm0

; 1273 : 			direction.z = -main_vp.zv.z;

  0058e	f3 0f 10 05 2c
	00 00 00	 movss	 xmm0, DWORD PTR ?main_vp@@3UVIEWPOINT@@A+44
  00596	0f 57 05 00 00
	00 00		 xorps	 xmm0, DWORD PTR __xmm@80000000800000008000000080000000
  0059d	f3 0f 11 45 dc	 movss	 DWORD PTR _direction$4[ebp+8], xmm0

; 1274 : 
; 1275 : 			set_3d_main_light_source ( main_3d_env, &main_light, &direction, FALSE );

  005a2	6a 00		 push	 0
  005a4	8d 45 d4	 lea	 eax, DWORD PTR _direction$4[ebp]
  005a7	50		 push	 eax
  005a8	8d 4d e0	 lea	 ecx, DWORD PTR _main_light$5[ebp]
  005ab	51		 push	 ecx
  005ac	8b 15 00 00 00
	00		 mov	 edx, DWORD PTR ?main_3d_env@@3PAUENV_3D@@A ; main_3d_env
  005b2	52		 push	 edx
  005b3	e8 00 00 00 00	 call	 ?set_3d_main_light_source@@YGXPAUENV_3D@@PAULIGHT_COLOUR@@PAUVEC3D@@H@Z ; set_3d_main_light_source

; 1276 : 
; 1277 : 			//
; 1278 : 			// Set the fogmode
; 1279 : 			//
; 1280 : 
; 1281 : 			set_3d_fogmode ( main_3d_env, FOGMODE_ON_MANUAL );

  005b8	6a 02		 push	 2
  005ba	a1 00 00 00 00	 mov	 eax, DWORD PTR ?main_3d_env@@3PAUENV_3D@@A ; main_3d_env
  005bf	50		 push	 eax
  005c0	e8 00 00 00 00	 call	 ?set_3d_fogmode@@YGXPAUENV_3D@@W4FOGMODES@@@Z ; set_3d_fogmode

; 1282 : 
; 1283 : 			fog_colour.r = ambient_light.red * 128;

  005c5	f3 0f 10 45 f0	 movss	 xmm0, DWORD PTR _ambient_light$6[ebp]
  005ca	f3 0f 59 05 00
	00 00 00	 mulss	 xmm0, DWORD PTR __real@43000000
  005d2	f3 0f 2c c0	 cvttss2si eax, xmm0
  005d6	88 45 d2	 mov	 BYTE PTR _fog_colour$3[ebp+2], al

; 1284 : 			fog_colour.g = ambient_light.green * 128;

  005d9	f3 0f 10 45 f4	 movss	 xmm0, DWORD PTR _ambient_light$6[ebp+4]
  005de	f3 0f 59 05 00
	00 00 00	 mulss	 xmm0, DWORD PTR __real@43000000
  005e6	f3 0f 2c c0	 cvttss2si eax, xmm0
  005ea	88 45 d1	 mov	 BYTE PTR _fog_colour$3[ebp+1], al

; 1285 : 			fog_colour.b = ambient_light.blue * 0;

  005ed	f3 0f 10 45 f8	 movss	 xmm0, DWORD PTR _ambient_light$6[ebp+8]
  005f2	f3 0f 59 05 00
	00 00 00	 mulss	 xmm0, DWORD PTR __real@00000000
  005fa	f3 0f 2c c0	 cvttss2si eax, xmm0
  005fe	88 45 d0	 mov	 BYTE PTR _fog_colour$3[ebp], al

; 1286 : 			fog_colour.a = 0;

  00601	c6 45 d3 00	 mov	 BYTE PTR _fog_colour$3[ebp+3], 0

; 1287 : 
; 1288 : 			set_3d_fog_colour ( main_3d_env, fog_colour );

  00605	8b 45 d0	 mov	 eax, DWORD PTR _fog_colour$3[ebp]
  00608	50		 push	 eax
  00609	8b 0d 00 00 00
	00		 mov	 ecx, DWORD PTR ?main_3d_env@@3PAUENV_3D@@A ; main_3d_env
  0060f	51		 push	 ecx
  00610	e8 00 00 00 00	 call	 ?set_3d_fog_colour@@YGXPAUENV_3D@@UREAL_COLOUR@@@Z ; set_3d_fog_colour

; 1289 : 
; 1290 : 			break;

  00615	e9 0c 06 00 00	 jmp	 $LN2@set_applic
$LN33@set_applic:

; 1291 : 		}
; 1292 : 
; 1293 : 		case DISPLAY_3D_TINT_GREEN:
; 1294 : 		case DISPLAY_3D_TINT_GREEN_VISUAL:
; 1295 : 		{
; 1296 : 
; 1297 : 			//
; 1298 : 			// Set the light modes
; 1299 : 			//
; 1300 : 
; 1301 : 			set_3d_lightmode ( main_3d_env, LIGHTMODE_MANUAL_LIGHT );

  0061a	6a 02		 push	 2
  0061c	a1 00 00 00 00	 mov	 eax, DWORD PTR ?main_3d_env@@3PAUENV_3D@@A ; main_3d_env
  00621	50		 push	 eax
  00622	e8 00 00 00 00	 call	 ?set_3d_lightmode@@YGXPAUENV_3D@@W4LIGHTMODES@@@Z ; set_3d_lightmode

; 1302 : 
; 1303 : 			if (tint == DISPLAY_3D_TINT_GREEN_VISUAL)

  00627	83 7d 08 04	 cmp	 DWORD PTR _tint$[ebp], 4
  0062b	75 0f		 jne	 SHORT $LN34@set_applic

; 1304 : 				set_3d_infrared_mode ( main_3d_env, RENDER_MONOCHROME );

  0062d	6a 03		 push	 3
  0062f	a1 00 00 00 00	 mov	 eax, DWORD PTR ?main_3d_env@@3PAUENV_3D@@A ; main_3d_env
  00634	50		 push	 eax
  00635	e8 00 00 00 00	 call	 ?set_3d_infrared_mode@@YGXPAUENV_3D@@W4RENDER_FILTERS@@@Z ; set_3d_infrared_mode

; 1305 : 			else

  0063a	eb 0d		 jmp	 SHORT $LN35@set_applic
$LN34@set_applic:

; 1306 : 				set_3d_infrared_mode ( main_3d_env, RENDER_INFRARED );

  0063c	6a 02		 push	 2
  0063e	a1 00 00 00 00	 mov	 eax, DWORD PTR ?main_3d_env@@3PAUENV_3D@@A ; main_3d_env
  00643	50		 push	 eax
  00644	e8 00 00 00 00	 call	 ?set_3d_infrared_mode@@YGXPAUENV_3D@@W4RENDER_FILTERS@@@Z ; set_3d_infrared_mode
$LN35@set_applic:

; 1307 : 
; 1308 : 			//
; 1309 : 			// Set the light in the scene
; 1310 : 			//
; 1311 : 
; 1312 : 			switch ( current_3d_light_level )

  00649	a1 00 00 00 00	 mov	 eax, DWORD PTR ?current_3d_light_level@@3W4DISPLAY_3D_LIGHT_LEVELS@@A ; current_3d_light_level
  0064e	89 45 84	 mov	 DWORD PTR tv197[ebp], eax
  00651	83 7d 84 00	 cmp	 DWORD PTR tv197[ebp], 0
  00655	74 11		 je	 SHORT $LN36@set_applic
  00657	83 7d 84 01	 cmp	 DWORD PTR tv197[ebp], 1
  0065b	74 47		 je	 SHORT $LN37@set_applic
  0065d	83 7d 84 02	 cmp	 DWORD PTR tv197[ebp], 2
  00661	74 7d		 je	 SHORT $LN38@set_applic
  00663	e9 b2 00 00 00	 jmp	 $LN10@set_applic
$LN36@set_applic:

; 1313 : 			{
; 1314 : 
; 1315 : 				case DISPLAY_3D_LIGHT_LEVEL_LOW:
; 1316 : 				{
; 1317 : 
; 1318 : 					ambient_light.red = 0.0;

  00668	0f 57 c0	 xorps	 xmm0, xmm0
  0066b	f3 0f 11 45 f0	 movss	 DWORD PTR _ambient_light$6[ebp], xmm0

; 1319 : 					ambient_light.green = 0.48;

  00670	f3 0f 10 05 00
	00 00 00	 movss	 xmm0, DWORD PTR __real@3ef5c28f
  00678	f3 0f 11 45 f4	 movss	 DWORD PTR _ambient_light$6[ebp+4], xmm0

; 1320 : 					ambient_light.blue = 0.0;

  0067d	0f 57 c0	 xorps	 xmm0, xmm0
  00680	f3 0f 11 45 f8	 movss	 DWORD PTR _ambient_light$6[ebp+8], xmm0

; 1321 : 
; 1322 : 					main_light.red = 0.0;

  00685	0f 57 c0	 xorps	 xmm0, xmm0
  00688	f3 0f 11 45 e0	 movss	 DWORD PTR _main_light$5[ebp], xmm0

; 1323 : 					main_light.green = 0.12;

  0068d	f3 0f 10 05 00
	00 00 00	 movss	 xmm0, DWORD PTR __real@3df5c28f
  00695	f3 0f 11 45 e4	 movss	 DWORD PTR _main_light$5[ebp+4], xmm0

; 1324 : 					main_light.blue = 0.0;

  0069a	0f 57 c0	 xorps	 xmm0, xmm0
  0069d	f3 0f 11 45 e8	 movss	 DWORD PTR _main_light$5[ebp+8], xmm0

; 1325 : 
; 1326 : 					break;

  006a2	eb 76		 jmp	 SHORT $LN10@set_applic
$LN37@set_applic:

; 1327 : 				}
; 1328 : 
; 1329 : 				case DISPLAY_3D_LIGHT_LEVEL_MEDIUM:
; 1330 : 				{
; 1331 : 
; 1332 : 					ambient_light.red = 0.0;

  006a4	0f 57 c0	 xorps	 xmm0, xmm0
  006a7	f3 0f 11 45 f0	 movss	 DWORD PTR _ambient_light$6[ebp], xmm0

; 1333 : 					ambient_light.green = 0.64;

  006ac	f3 0f 10 05 00
	00 00 00	 movss	 xmm0, DWORD PTR __real@3f23d70a
  006b4	f3 0f 11 45 f4	 movss	 DWORD PTR _ambient_light$6[ebp+4], xmm0

; 1334 : 					ambient_light.blue = 0.0;

  006b9	0f 57 c0	 xorps	 xmm0, xmm0
  006bc	f3 0f 11 45 f8	 movss	 DWORD PTR _ambient_light$6[ebp+8], xmm0

; 1335 : 
; 1336 : 					main_light.red = 0.0;

  006c1	0f 57 c0	 xorps	 xmm0, xmm0
  006c4	f3 0f 11 45 e0	 movss	 DWORD PTR _main_light$5[ebp], xmm0

; 1337 : 					main_light.green = 0.16;

  006c9	f3 0f 10 05 00
	00 00 00	 movss	 xmm0, DWORD PTR __real@3e23d70a
  006d1	f3 0f 11 45 e4	 movss	 DWORD PTR _main_light$5[ebp+4], xmm0

; 1338 : 					main_light.blue = 0.0;

  006d6	0f 57 c0	 xorps	 xmm0, xmm0
  006d9	f3 0f 11 45 e8	 movss	 DWORD PTR _main_light$5[ebp+8], xmm0

; 1339 : 
; 1340 : 					break;

  006de	eb 3a		 jmp	 SHORT $LN10@set_applic
$LN38@set_applic:

; 1341 : 				}
; 1342 : 
; 1343 : 				case DISPLAY_3D_LIGHT_LEVEL_HIGH:
; 1344 : 				{
; 1345 : 
; 1346 : 					ambient_light.red = 0.0;

  006e0	0f 57 c0	 xorps	 xmm0, xmm0
  006e3	f3 0f 11 45 f0	 movss	 DWORD PTR _ambient_light$6[ebp], xmm0

; 1347 : 					ambient_light.green = 0.8;

  006e8	f3 0f 10 05 00
	00 00 00	 movss	 xmm0, DWORD PTR __real@3f4ccccd
  006f0	f3 0f 11 45 f4	 movss	 DWORD PTR _ambient_light$6[ebp+4], xmm0

; 1348 : 					ambient_light.blue = 0.0;

  006f5	0f 57 c0	 xorps	 xmm0, xmm0
  006f8	f3 0f 11 45 f8	 movss	 DWORD PTR _ambient_light$6[ebp+8], xmm0

; 1349 : 
; 1350 : 					main_light.red = 0.0;

  006fd	0f 57 c0	 xorps	 xmm0, xmm0
  00700	f3 0f 11 45 e0	 movss	 DWORD PTR _main_light$5[ebp], xmm0

; 1351 : 					main_light.green = 0.2;

  00705	f3 0f 10 05 00
	00 00 00	 movss	 xmm0, DWORD PTR __real@3e4ccccd
  0070d	f3 0f 11 45 e4	 movss	 DWORD PTR _main_light$5[ebp+4], xmm0

; 1352 : 					main_light.blue = 0.0;

  00712	0f 57 c0	 xorps	 xmm0, xmm0
  00715	f3 0f 11 45 e8	 movss	 DWORD PTR _main_light$5[ebp+8], xmm0
$LN10@set_applic:

; 1353 : 
; 1354 : 					break;
; 1355 : 				}
; 1356 : 			}
; 1357 : 
; 1358 : 			set_3d_ambient_light_source ( main_3d_env, &ambient_light );

  0071a	8d 45 f0	 lea	 eax, DWORD PTR _ambient_light$6[ebp]
  0071d	50		 push	 eax
  0071e	8b 0d 00 00 00
	00		 mov	 ecx, DWORD PTR ?main_3d_env@@3PAUENV_3D@@A ; main_3d_env
  00724	51		 push	 ecx
  00725	e8 00 00 00 00	 call	 ?set_3d_ambient_light_source@@YGXPAUENV_3D@@PAULIGHT_COLOUR@@@Z ; set_3d_ambient_light_source

; 1359 : 
; 1360 : 			direction.x = -visual_3d_vp->zv.x;

  0072a	a1 00 00 00 00	 mov	 eax, DWORD PTR ?visual_3d_vp@@3PAUVIEWPOINT@@A ; visual_3d_vp
  0072f	f3 0f 10 40 24	 movss	 xmm0, DWORD PTR [eax+36]
  00734	0f 57 05 00 00
	00 00		 xorps	 xmm0, DWORD PTR __xmm@80000000800000008000000080000000
  0073b	f3 0f 11 45 d4	 movss	 DWORD PTR _direction$4[ebp], xmm0

; 1361 : 			direction.y = -visual_3d_vp->zv.y;

  00740	a1 00 00 00 00	 mov	 eax, DWORD PTR ?visual_3d_vp@@3PAUVIEWPOINT@@A ; visual_3d_vp
  00745	f3 0f 10 40 28	 movss	 xmm0, DWORD PTR [eax+40]
  0074a	0f 57 05 00 00
	00 00		 xorps	 xmm0, DWORD PTR __xmm@80000000800000008000000080000000
  00751	f3 0f 11 45 d8	 movss	 DWORD PTR _direction$4[ebp+4], xmm0

; 1362 : 			direction.z = -visual_3d_vp->zv.z;

  00756	a1 00 00 00 00	 mov	 eax, DWORD PTR ?visual_3d_vp@@3PAUVIEWPOINT@@A ; visual_3d_vp
  0075b	f3 0f 10 40 2c	 movss	 xmm0, DWORD PTR [eax+44]
  00760	0f 57 05 00 00
	00 00		 xorps	 xmm0, DWORD PTR __xmm@80000000800000008000000080000000
  00767	f3 0f 11 45 dc	 movss	 DWORD PTR _direction$4[ebp+8], xmm0

; 1363 : 
; 1364 : 			set_3d_main_light_source ( main_3d_env, &main_light, &direction, FALSE );

  0076c	6a 00		 push	 0
  0076e	8d 45 d4	 lea	 eax, DWORD PTR _direction$4[ebp]
  00771	50		 push	 eax
  00772	8d 4d e0	 lea	 ecx, DWORD PTR _main_light$5[ebp]
  00775	51		 push	 ecx
  00776	8b 15 00 00 00
	00		 mov	 edx, DWORD PTR ?main_3d_env@@3PAUENV_3D@@A ; main_3d_env
  0077c	52		 push	 edx
  0077d	e8 00 00 00 00	 call	 ?set_3d_main_light_source@@YGXPAUENV_3D@@PAULIGHT_COLOUR@@PAUVEC3D@@H@Z ; set_3d_main_light_source

; 1365 : 
; 1366 : 			//
; 1367 : 			// Set the fogmode
; 1368 : 			//
; 1369 : 
; 1370 : 			set_3d_fogmode ( main_3d_env, FOGMODE_ON_MANUAL );

  00782	6a 02		 push	 2
  00784	a1 00 00 00 00	 mov	 eax, DWORD PTR ?main_3d_env@@3PAUENV_3D@@A ; main_3d_env
  00789	50		 push	 eax
  0078a	e8 00 00 00 00	 call	 ?set_3d_fogmode@@YGXPAUENV_3D@@W4FOGMODES@@@Z ; set_3d_fogmode

; 1371 : 
; 1372 : 			fog_colour.r = ambient_light.red * 0;

  0078f	f3 0f 10 45 f0	 movss	 xmm0, DWORD PTR _ambient_light$6[ebp]
  00794	f3 0f 59 05 00
	00 00 00	 mulss	 xmm0, DWORD PTR __real@00000000
  0079c	f3 0f 2c c0	 cvttss2si eax, xmm0
  007a0	88 45 d2	 mov	 BYTE PTR _fog_colour$3[ebp+2], al

; 1373 : 			fog_colour.g = ambient_light.green * 128;

  007a3	f3 0f 10 45 f4	 movss	 xmm0, DWORD PTR _ambient_light$6[ebp+4]
  007a8	f3 0f 59 05 00
	00 00 00	 mulss	 xmm0, DWORD PTR __real@43000000
  007b0	f3 0f 2c c0	 cvttss2si eax, xmm0
  007b4	88 45 d1	 mov	 BYTE PTR _fog_colour$3[ebp+1], al

; 1374 : 			fog_colour.b = ambient_light.blue * 0;

  007b7	f3 0f 10 45 f8	 movss	 xmm0, DWORD PTR _ambient_light$6[ebp+8]
  007bc	f3 0f 59 05 00
	00 00 00	 mulss	 xmm0, DWORD PTR __real@00000000
  007c4	f3 0f 2c c0	 cvttss2si eax, xmm0
  007c8	88 45 d0	 mov	 BYTE PTR _fog_colour$3[ebp], al

; 1375 : 			fog_colour.a = 0;

  007cb	c6 45 d3 00	 mov	 BYTE PTR _fog_colour$3[ebp+3], 0

; 1376 : 
; 1377 : 			set_3d_fog_colour ( main_3d_env, fog_colour );

  007cf	8b 45 d0	 mov	 eax, DWORD PTR _fog_colour$3[ebp]
  007d2	50		 push	 eax
  007d3	8b 0d 00 00 00
	00		 mov	 ecx, DWORD PTR ?main_3d_env@@3PAUENV_3D@@A ; main_3d_env
  007d9	51		 push	 ecx
  007da	e8 00 00 00 00	 call	 ?set_3d_fog_colour@@YGXPAUENV_3D@@UREAL_COLOUR@@@Z ; set_3d_fog_colour

; 1378 : 
; 1379 : 			break;

  007df	e9 42 04 00 00	 jmp	 $LN2@set_applic
$LN39@set_applic:

; 1380 : 		}
; 1381 : 
; 1382 : 		case DISPLAY_3D_TINT_ORANGE:
; 1383 : 		{
; 1384 : 
; 1385 : 			//
; 1386 : 			// Set the light modes
; 1387 : 			//
; 1388 : 
; 1389 : 			set_3d_lightmode ( main_3d_env, LIGHTMODE_MANUAL_LIGHT );

  007e4	6a 02		 push	 2
  007e6	a1 00 00 00 00	 mov	 eax, DWORD PTR ?main_3d_env@@3PAUENV_3D@@A ; main_3d_env
  007eb	50		 push	 eax
  007ec	e8 00 00 00 00	 call	 ?set_3d_lightmode@@YGXPAUENV_3D@@W4LIGHTMODES@@@Z ; set_3d_lightmode

; 1390 : 
; 1391 : 			set_3d_infrared_mode ( main_3d_env, INFRARED_ON );

  007f1	6a 02		 push	 2
  007f3	a1 00 00 00 00	 mov	 eax, DWORD PTR ?main_3d_env@@3PAUENV_3D@@A ; main_3d_env
  007f8	50		 push	 eax
  007f9	e8 00 00 00 00	 call	 ?set_3d_infrared_mode@@YGXPAUENV_3D@@W4RENDER_FILTERS@@@Z ; set_3d_infrared_mode

; 1392 : 
; 1393 : 			//
; 1394 : 			// Set the light in the scene
; 1395 : 			//
; 1396 : 
; 1397 : 			switch ( current_3d_light_level )

  007fe	a1 00 00 00 00	 mov	 eax, DWORD PTR ?current_3d_light_level@@3W4DISPLAY_3D_LIGHT_LEVELS@@A ; current_3d_light_level
  00803	89 45 84	 mov	 DWORD PTR tv230[ebp], eax
  00806	83 7d 84 00	 cmp	 DWORD PTR tv230[ebp], 0
  0080a	74 15		 je	 SHORT $LN40@set_applic
  0080c	83 7d 84 01	 cmp	 DWORD PTR tv230[ebp], 1
  00810	74 58		 je	 SHORT $LN41@set_applic
  00812	83 7d 84 02	 cmp	 DWORD PTR tv230[ebp], 2
  00816	0f 84 94 00 00
	00		 je	 $LN42@set_applic
  0081c	e9 d3 00 00 00	 jmp	 $LN12@set_applic
$LN40@set_applic:

; 1398 : 			{
; 1399 : 
; 1400 : 				case DISPLAY_3D_LIGHT_LEVEL_LOW:
; 1401 : 				{
; 1402 : 
; 1403 : 					ambient_light.red = 0.6;

  00821	f3 0f 10 05 00
	00 00 00	 movss	 xmm0, DWORD PTR __real@3f19999a
  00829	f3 0f 11 45 f0	 movss	 DWORD PTR _ambient_light$6[ebp], xmm0

; 1404 : 					ambient_light.green = 0.468 * 0.5;

  0082e	f3 0f 10 05 00
	00 00 00	 movss	 xmm0, DWORD PTR __real@3e6f9db2
  00836	f3 0f 11 45 f4	 movss	 DWORD PTR _ambient_light$6[ebp+4], xmm0

; 1405 : 					ambient_light.blue = 0.0;

  0083b	0f 57 c0	 xorps	 xmm0, xmm0
  0083e	f3 0f 11 45 f8	 movss	 DWORD PTR _ambient_light$6[ebp+8], xmm0

; 1406 : 
; 1407 : 					main_light.red = 0.15;

  00843	f3 0f 10 05 00
	00 00 00	 movss	 xmm0, DWORD PTR __real@3e19999a
  0084b	f3 0f 11 45 e0	 movss	 DWORD PTR _main_light$5[ebp], xmm0

; 1408 : 					main_light.green = 0.12 * 0.5;

  00850	f3 0f 10 05 00
	00 00 00	 movss	 xmm0, DWORD PTR __real@3d75c28f
  00858	f3 0f 11 45 e4	 movss	 DWORD PTR _main_light$5[ebp+4], xmm0

; 1409 : 					main_light.blue = 0.0;

  0085d	0f 57 c0	 xorps	 xmm0, xmm0
  00860	f3 0f 11 45 e8	 movss	 DWORD PTR _main_light$5[ebp+8], xmm0

; 1410 : 
; 1411 : 					break;

  00865	e9 8a 00 00 00	 jmp	 $LN12@set_applic
$LN41@set_applic:

; 1412 : 				}
; 1413 : 
; 1414 : 				case DISPLAY_3D_LIGHT_LEVEL_MEDIUM:
; 1415 : 				{
; 1416 : 
; 1417 : 					ambient_light.red = 0.8;

  0086a	f3 0f 10 05 00
	00 00 00	 movss	 xmm0, DWORD PTR __real@3f4ccccd
  00872	f3 0f 11 45 f0	 movss	 DWORD PTR _ambient_light$6[ebp], xmm0

; 1418 : 					ambient_light.green = 0.624 * 0.5;

  00877	f3 0f 10 05 00
	00 00 00	 movss	 xmm0, DWORD PTR __real@3e9fbe77
  0087f	f3 0f 11 45 f4	 movss	 DWORD PTR _ambient_light$6[ebp+4], xmm0

; 1419 : 					ambient_light.blue = 0.0;

  00884	0f 57 c0	 xorps	 xmm0, xmm0
  00887	f3 0f 11 45 f8	 movss	 DWORD PTR _ambient_light$6[ebp+8], xmm0

; 1420 : 
; 1421 : 					main_light.red = 0.2;

  0088c	f3 0f 10 05 00
	00 00 00	 movss	 xmm0, DWORD PTR __real@3e4ccccd
  00894	f3 0f 11 45 e0	 movss	 DWORD PTR _main_light$5[ebp], xmm0

; 1422 : 					main_light.green = 0.16 * 0.5;

  00899	f3 0f 10 05 00
	00 00 00	 movss	 xmm0, DWORD PTR __real@3da3d70a
  008a1	f3 0f 11 45 e4	 movss	 DWORD PTR _main_light$5[ebp+4], xmm0

; 1423 : 					main_light.blue = 0.0;

  008a6	0f 57 c0	 xorps	 xmm0, xmm0
  008a9	f3 0f 11 45 e8	 movss	 DWORD PTR _main_light$5[ebp+8], xmm0

; 1424 : 
; 1425 : 					break;

  008ae	eb 44		 jmp	 SHORT $LN12@set_applic
$LN42@set_applic:

; 1426 : 				}
; 1427 : 
; 1428 : 				case DISPLAY_3D_LIGHT_LEVEL_HIGH:
; 1429 : 				{
; 1430 : 
; 1431 : 					ambient_light.red = 1.0;

  008b0	f3 0f 10 05 00
	00 00 00	 movss	 xmm0, DWORD PTR __real@3f800000
  008b8	f3 0f 11 45 f0	 movss	 DWORD PTR _ambient_light$6[ebp], xmm0

; 1432 : 					ambient_light.green = 0.78 * 0.5;

  008bd	f3 0f 10 05 00
	00 00 00	 movss	 xmm0, DWORD PTR __real@3ec7ae14
  008c5	f3 0f 11 45 f4	 movss	 DWORD PTR _ambient_light$6[ebp+4], xmm0

; 1433 : 					ambient_light.blue = 0.0;

  008ca	0f 57 c0	 xorps	 xmm0, xmm0
  008cd	f3 0f 11 45 f8	 movss	 DWORD PTR _ambient_light$6[ebp+8], xmm0

; 1434 : 
; 1435 : 					main_light.red = 0.25;

  008d2	f3 0f 10 05 00
	00 00 00	 movss	 xmm0, DWORD PTR __real@3e800000
  008da	f3 0f 11 45 e0	 movss	 DWORD PTR _main_light$5[ebp], xmm0

; 1436 : 					main_light.green = 0.2 * 0.5;

  008df	f3 0f 10 05 00
	00 00 00	 movss	 xmm0, DWORD PTR __real@3dcccccd
  008e7	f3 0f 11 45 e4	 movss	 DWORD PTR _main_light$5[ebp+4], xmm0

; 1437 : 					main_light.blue = 0.0;

  008ec	0f 57 c0	 xorps	 xmm0, xmm0
  008ef	f3 0f 11 45 e8	 movss	 DWORD PTR _main_light$5[ebp+8], xmm0
$LN12@set_applic:

; 1438 : 
; 1439 : 					break;
; 1440 : 				}
; 1441 : 			}
; 1442 : 
; 1443 : 			set_3d_ambient_light_source ( main_3d_env, &ambient_light );

  008f4	8d 45 f0	 lea	 eax, DWORD PTR _ambient_light$6[ebp]
  008f7	50		 push	 eax
  008f8	8b 0d 00 00 00
	00		 mov	 ecx, DWORD PTR ?main_3d_env@@3PAUENV_3D@@A ; main_3d_env
  008fe	51		 push	 ecx
  008ff	e8 00 00 00 00	 call	 ?set_3d_ambient_light_source@@YGXPAUENV_3D@@PAULIGHT_COLOUR@@@Z ; set_3d_ambient_light_source

; 1444 : 
; 1445 : 			direction.x = -main_vp.zv.x;

  00904	f3 0f 10 05 24
	00 00 00	 movss	 xmm0, DWORD PTR ?main_vp@@3UVIEWPOINT@@A+36
  0090c	0f 57 05 00 00
	00 00		 xorps	 xmm0, DWORD PTR __xmm@80000000800000008000000080000000
  00913	f3 0f 11 45 d4	 movss	 DWORD PTR _direction$4[ebp], xmm0

; 1446 : 			direction.y = -main_vp.zv.y;

  00918	f3 0f 10 05 28
	00 00 00	 movss	 xmm0, DWORD PTR ?main_vp@@3UVIEWPOINT@@A+40
  00920	0f 57 05 00 00
	00 00		 xorps	 xmm0, DWORD PTR __xmm@80000000800000008000000080000000
  00927	f3 0f 11 45 d8	 movss	 DWORD PTR _direction$4[ebp+4], xmm0

; 1447 : 			direction.z = -main_vp.zv.z;

  0092c	f3 0f 10 05 2c
	00 00 00	 movss	 xmm0, DWORD PTR ?main_vp@@3UVIEWPOINT@@A+44
  00934	0f 57 05 00 00
	00 00		 xorps	 xmm0, DWORD PTR __xmm@80000000800000008000000080000000
  0093b	f3 0f 11 45 dc	 movss	 DWORD PTR _direction$4[ebp+8], xmm0

; 1448 : 
; 1449 : 			set_3d_main_light_source ( main_3d_env, &main_light, &direction, FALSE );

  00940	6a 00		 push	 0
  00942	8d 45 d4	 lea	 eax, DWORD PTR _direction$4[ebp]
  00945	50		 push	 eax
  00946	8d 4d e0	 lea	 ecx, DWORD PTR _main_light$5[ebp]
  00949	51		 push	 ecx
  0094a	8b 15 00 00 00
	00		 mov	 edx, DWORD PTR ?main_3d_env@@3PAUENV_3D@@A ; main_3d_env
  00950	52		 push	 edx
  00951	e8 00 00 00 00	 call	 ?set_3d_main_light_source@@YGXPAUENV_3D@@PAULIGHT_COLOUR@@PAUVEC3D@@H@Z ; set_3d_main_light_source

; 1450 : 
; 1451 : 			//
; 1452 : 			// Set the fogmode
; 1453 : 			//
; 1454 : 
; 1455 : 			set_3d_fogmode ( main_3d_env, FOGMODE_ON_MANUAL );

  00956	6a 02		 push	 2
  00958	a1 00 00 00 00	 mov	 eax, DWORD PTR ?main_3d_env@@3PAUENV_3D@@A ; main_3d_env
  0095d	50		 push	 eax
  0095e	e8 00 00 00 00	 call	 ?set_3d_fogmode@@YGXPAUENV_3D@@W4FOGMODES@@@Z ; set_3d_fogmode

; 1456 : 
; 1457 : 			fog_colour.r = ambient_light.red * 128;

  00963	f3 0f 10 45 f0	 movss	 xmm0, DWORD PTR _ambient_light$6[ebp]
  00968	f3 0f 59 05 00
	00 00 00	 mulss	 xmm0, DWORD PTR __real@43000000
  00970	f3 0f 2c c0	 cvttss2si eax, xmm0
  00974	88 45 d2	 mov	 BYTE PTR _fog_colour$3[ebp+2], al

; 1458 : 			fog_colour.g = ambient_light.green * 128;

  00977	f3 0f 10 45 f4	 movss	 xmm0, DWORD PTR _ambient_light$6[ebp+4]
  0097c	f3 0f 59 05 00
	00 00 00	 mulss	 xmm0, DWORD PTR __real@43000000
  00984	f3 0f 2c c0	 cvttss2si eax, xmm0
  00988	88 45 d1	 mov	 BYTE PTR _fog_colour$3[ebp+1], al

; 1459 : 			fog_colour.b = ambient_light.blue * 128;

  0098b	f3 0f 10 45 f8	 movss	 xmm0, DWORD PTR _ambient_light$6[ebp+8]
  00990	f3 0f 59 05 00
	00 00 00	 mulss	 xmm0, DWORD PTR __real@43000000
  00998	f3 0f 2c c0	 cvttss2si eax, xmm0
  0099c	88 45 d0	 mov	 BYTE PTR _fog_colour$3[ebp], al

; 1460 : 			fog_colour.a = 0;

  0099f	c6 45 d3 00	 mov	 BYTE PTR _fog_colour$3[ebp+3], 0

; 1461 : 
; 1462 : 			set_3d_fog_colour ( main_3d_env, fog_colour );

  009a3	8b 45 d0	 mov	 eax, DWORD PTR _fog_colour$3[ebp]
  009a6	50		 push	 eax
  009a7	8b 0d 00 00 00
	00		 mov	 ecx, DWORD PTR ?main_3d_env@@3PAUENV_3D@@A ; main_3d_env
  009ad	51		 push	 ecx
  009ae	e8 00 00 00 00	 call	 ?set_3d_fog_colour@@YGXPAUENV_3D@@UREAL_COLOUR@@@Z ; set_3d_fog_colour

; 1463 : 
; 1464 : 			break;

  009b3	e9 6e 02 00 00	 jmp	 $LN2@set_applic
$LN43@set_applic:

; 1465 : 		}
; 1466 : 
; 1467 : 		case DISPLAY_3D_TINT_GREY:
; 1468 : 		{
; 1469 : 
; 1470 : 			//
; 1471 : 			// Set the light modes
; 1472 : 			//
; 1473 : 
; 1474 : 			set_3d_lightmode ( main_3d_env, LIGHTMODE_MANUAL_LIGHT );

  009b8	6a 02		 push	 2
  009ba	a1 00 00 00 00	 mov	 eax, DWORD PTR ?main_3d_env@@3PAUENV_3D@@A ; main_3d_env
  009bf	50		 push	 eax
  009c0	e8 00 00 00 00	 call	 ?set_3d_lightmode@@YGXPAUENV_3D@@W4LIGHTMODES@@@Z ; set_3d_lightmode

; 1475 : 
; 1476 : 			set_3d_infrared_mode ( main_3d_env, RENDER_INFRARED );

  009c5	6a 02		 push	 2
  009c7	a1 00 00 00 00	 mov	 eax, DWORD PTR ?main_3d_env@@3PAUENV_3D@@A ; main_3d_env
  009cc	50		 push	 eax
  009cd	e8 00 00 00 00	 call	 ?set_3d_infrared_mode@@YGXPAUENV_3D@@W4RENDER_FILTERS@@@Z ; set_3d_infrared_mode

; 1477 : 
; 1478 : 			//
; 1479 : 			// Set the light in the scene
; 1480 : 			//
; 1481 : 
; 1482 : 			switch ( current_3d_light_level )

  009d2	a1 00 00 00 00	 mov	 eax, DWORD PTR ?current_3d_light_level@@3W4DISPLAY_3D_LIGHT_LEVELS@@A ; current_3d_light_level
  009d7	89 45 84	 mov	 DWORD PTR tv257[ebp], eax
  009da	83 7d 84 00	 cmp	 DWORD PTR tv257[ebp], 0
  009de	74 15		 je	 SHORT $LN44@set_applic
  009e0	83 7d 84 01	 cmp	 DWORD PTR tv257[ebp], 1
  009e4	74 62		 je	 SHORT $LN45@set_applic
  009e6	83 7d 84 02	 cmp	 DWORD PTR tv257[ebp], 2
  009ea	0f 84 a8 00 00
	00		 je	 $LN46@set_applic
  009f0	e9 f1 00 00 00	 jmp	 $LN14@set_applic
$LN44@set_applic:

; 1483 : 			{
; 1484 : 
; 1485 : 				case DISPLAY_3D_LIGHT_LEVEL_LOW:
; 1486 : 				{
; 1487 : 
; 1488 : 					ambient_light.red = 0.48;

  009f5	f3 0f 10 05 00
	00 00 00	 movss	 xmm0, DWORD PTR __real@3ef5c28f
  009fd	f3 0f 11 45 f0	 movss	 DWORD PTR _ambient_light$6[ebp], xmm0

; 1489 : 					ambient_light.green = 0.48;

  00a02	f3 0f 10 05 00
	00 00 00	 movss	 xmm0, DWORD PTR __real@3ef5c28f
  00a0a	f3 0f 11 45 f4	 movss	 DWORD PTR _ambient_light$6[ebp+4], xmm0

; 1490 : 					ambient_light.blue = 0.48;

  00a0f	f3 0f 10 05 00
	00 00 00	 movss	 xmm0, DWORD PTR __real@3ef5c28f
  00a17	f3 0f 11 45 f8	 movss	 DWORD PTR _ambient_light$6[ebp+8], xmm0

; 1491 : 
; 1492 : 					main_light.red = 0.12;

  00a1c	f3 0f 10 05 00
	00 00 00	 movss	 xmm0, DWORD PTR __real@3df5c28f
  00a24	f3 0f 11 45 e0	 movss	 DWORD PTR _main_light$5[ebp], xmm0

; 1493 : 					main_light.green = 0.12;

  00a29	f3 0f 10 05 00
	00 00 00	 movss	 xmm0, DWORD PTR __real@3df5c28f
  00a31	f3 0f 11 45 e4	 movss	 DWORD PTR _main_light$5[ebp+4], xmm0

; 1494 : 					main_light.blue = 0.12;

  00a36	f3 0f 10 05 00
	00 00 00	 movss	 xmm0, DWORD PTR __real@3df5c28f
  00a3e	f3 0f 11 45 e8	 movss	 DWORD PTR _main_light$5[ebp+8], xmm0

; 1495 : 
; 1496 : 					break;

  00a43	e9 9e 00 00 00	 jmp	 $LN14@set_applic
$LN45@set_applic:

; 1497 : 				}
; 1498 : 
; 1499 : 				case DISPLAY_3D_LIGHT_LEVEL_MEDIUM:
; 1500 : 				{
; 1501 : 
; 1502 : 					ambient_light.red = 0.64;

  00a48	f3 0f 10 05 00
	00 00 00	 movss	 xmm0, DWORD PTR __real@3f23d70a
  00a50	f3 0f 11 45 f0	 movss	 DWORD PTR _ambient_light$6[ebp], xmm0

; 1503 : 					ambient_light.green = 0.64;

  00a55	f3 0f 10 05 00
	00 00 00	 movss	 xmm0, DWORD PTR __real@3f23d70a
  00a5d	f3 0f 11 45 f4	 movss	 DWORD PTR _ambient_light$6[ebp+4], xmm0

; 1504 : 					ambient_light.blue = 0.64;

  00a62	f3 0f 10 05 00
	00 00 00	 movss	 xmm0, DWORD PTR __real@3f23d70a
  00a6a	f3 0f 11 45 f8	 movss	 DWORD PTR _ambient_light$6[ebp+8], xmm0

; 1505 : 
; 1506 : 					main_light.red = 0.16;

  00a6f	f3 0f 10 05 00
	00 00 00	 movss	 xmm0, DWORD PTR __real@3e23d70a
  00a77	f3 0f 11 45 e0	 movss	 DWORD PTR _main_light$5[ebp], xmm0

; 1507 : 					main_light.green = 0.16;

  00a7c	f3 0f 10 05 00
	00 00 00	 movss	 xmm0, DWORD PTR __real@3e23d70a
  00a84	f3 0f 11 45 e4	 movss	 DWORD PTR _main_light$5[ebp+4], xmm0

; 1508 : 					main_light.blue = 0.16;

  00a89	f3 0f 10 05 00
	00 00 00	 movss	 xmm0, DWORD PTR __real@3e23d70a
  00a91	f3 0f 11 45 e8	 movss	 DWORD PTR _main_light$5[ebp+8], xmm0

; 1509 : 
; 1510 : 					break;

  00a96	eb 4e		 jmp	 SHORT $LN14@set_applic
$LN46@set_applic:

; 1511 : 				}
; 1512 : 
; 1513 : 				case DISPLAY_3D_LIGHT_LEVEL_HIGH:
; 1514 : 				{
; 1515 : 
; 1516 : 					ambient_light.red = 0.8;

  00a98	f3 0f 10 05 00
	00 00 00	 movss	 xmm0, DWORD PTR __real@3f4ccccd
  00aa0	f3 0f 11 45 f0	 movss	 DWORD PTR _ambient_light$6[ebp], xmm0

; 1517 : 					ambient_light.green = 0.8;

  00aa5	f3 0f 10 05 00
	00 00 00	 movss	 xmm0, DWORD PTR __real@3f4ccccd
  00aad	f3 0f 11 45 f4	 movss	 DWORD PTR _ambient_light$6[ebp+4], xmm0

; 1518 : 					ambient_light.blue = 0.8;

  00ab2	f3 0f 10 05 00
	00 00 00	 movss	 xmm0, DWORD PTR __real@3f4ccccd
  00aba	f3 0f 11 45 f8	 movss	 DWORD PTR _ambient_light$6[ebp+8], xmm0

; 1519 : 
; 1520 : 					main_light.red = 0.2;

  00abf	f3 0f 10 05 00
	00 00 00	 movss	 xmm0, DWORD PTR __real@3e4ccccd
  00ac7	f3 0f 11 45 e0	 movss	 DWORD PTR _main_light$5[ebp], xmm0

; 1521 : 					main_light.green = 0.2;

  00acc	f3 0f 10 05 00
	00 00 00	 movss	 xmm0, DWORD PTR __real@3e4ccccd
  00ad4	f3 0f 11 45 e4	 movss	 DWORD PTR _main_light$5[ebp+4], xmm0

; 1522 : 					main_light.blue = 0.2;

  00ad9	f3 0f 10 05 00
	00 00 00	 movss	 xmm0, DWORD PTR __real@3e4ccccd
  00ae1	f3 0f 11 45 e8	 movss	 DWORD PTR _main_light$5[ebp+8], xmm0
$LN14@set_applic:

; 1523 : 
; 1524 : 					break;
; 1525 : 				}
; 1526 : 			}
; 1527 : /*			switch ( current_3d_light_level )
; 1528 : 			{
; 1529 : 
; 1530 : 				case DISPLAY_3D_LIGHT_LEVEL_LOW:
; 1531 : 				{
; 1532 : 
; 1533 : 					ambient_light.red = 0.0;
; 1534 : 					ambient_light.green = 0.48;
; 1535 : 					ambient_light.blue = 0.0;
; 1536 : 
; 1537 : 					main_light.red = 0.0;
; 1538 : 					main_light.green = 0.12;
; 1539 : 					main_light.blue = 0.0;
; 1540 : 
; 1541 : 					break;
; 1542 : 				}
; 1543 : 
; 1544 : 				case DISPLAY_3D_LIGHT_LEVEL_MEDIUM:
; 1545 : 				{
; 1546 : 
; 1547 : 					ambient_light.red = 0.0;
; 1548 : 					ambient_light.green = 0.64;
; 1549 : 					ambient_light.blue = 0.0;
; 1550 : 
; 1551 : 					main_light.red = 0.0;
; 1552 : 					main_light.green = 0.16;
; 1553 : 					main_light.blue = 0.0;
; 1554 : 
; 1555 : 					break;
; 1556 : 				}
; 1557 : 
; 1558 : 				case DISPLAY_3D_LIGHT_LEVEL_HIGH:
; 1559 : 				{
; 1560 : 
; 1561 : 					ambient_light.red = 0.0;
; 1562 : 					ambient_light.green = 0.8;
; 1563 : 					ambient_light.blue = 0.0;
; 1564 : 
; 1565 : 					main_light.red = 0.0;
; 1566 : 					main_light.green = 0.2;
; 1567 : 					main_light.blue = 0.0;
; 1568 : 
; 1569 : 					break;
; 1570 : 				}
; 1571 : 			}
; 1572 : */
; 1573 : 			set_3d_ambient_light_source ( main_3d_env, &ambient_light );

  00ae6	8d 45 f0	 lea	 eax, DWORD PTR _ambient_light$6[ebp]
  00ae9	50		 push	 eax
  00aea	8b 0d 00 00 00
	00		 mov	 ecx, DWORD PTR ?main_3d_env@@3PAUENV_3D@@A ; main_3d_env
  00af0	51		 push	 ecx
  00af1	e8 00 00 00 00	 call	 ?set_3d_ambient_light_source@@YGXPAUENV_3D@@PAULIGHT_COLOUR@@@Z ; set_3d_ambient_light_source

; 1574 : 
; 1575 : 			direction.x = -visual_3d_vp->zv.x;

  00af6	a1 00 00 00 00	 mov	 eax, DWORD PTR ?visual_3d_vp@@3PAUVIEWPOINT@@A ; visual_3d_vp
  00afb	f3 0f 10 40 24	 movss	 xmm0, DWORD PTR [eax+36]
  00b00	0f 57 05 00 00
	00 00		 xorps	 xmm0, DWORD PTR __xmm@80000000800000008000000080000000
  00b07	f3 0f 11 45 d4	 movss	 DWORD PTR _direction$4[ebp], xmm0

; 1576 : 			direction.y = -visual_3d_vp->zv.y;

  00b0c	a1 00 00 00 00	 mov	 eax, DWORD PTR ?visual_3d_vp@@3PAUVIEWPOINT@@A ; visual_3d_vp
  00b11	f3 0f 10 40 28	 movss	 xmm0, DWORD PTR [eax+40]
  00b16	0f 57 05 00 00
	00 00		 xorps	 xmm0, DWORD PTR __xmm@80000000800000008000000080000000
  00b1d	f3 0f 11 45 d8	 movss	 DWORD PTR _direction$4[ebp+4], xmm0

; 1577 : 			direction.z = -visual_3d_vp->zv.z;

  00b22	a1 00 00 00 00	 mov	 eax, DWORD PTR ?visual_3d_vp@@3PAUVIEWPOINT@@A ; visual_3d_vp
  00b27	f3 0f 10 40 2c	 movss	 xmm0, DWORD PTR [eax+44]
  00b2c	0f 57 05 00 00
	00 00		 xorps	 xmm0, DWORD PTR __xmm@80000000800000008000000080000000
  00b33	f3 0f 11 45 dc	 movss	 DWORD PTR _direction$4[ebp+8], xmm0

; 1578 : 
; 1579 : 			set_3d_main_light_source ( main_3d_env, &main_light, &direction, FALSE );

  00b38	6a 00		 push	 0
  00b3a	8d 45 d4	 lea	 eax, DWORD PTR _direction$4[ebp]
  00b3d	50		 push	 eax
  00b3e	8d 4d e0	 lea	 ecx, DWORD PTR _main_light$5[ebp]
  00b41	51		 push	 ecx
  00b42	8b 15 00 00 00
	00		 mov	 edx, DWORD PTR ?main_3d_env@@3PAUENV_3D@@A ; main_3d_env
  00b48	52		 push	 edx
  00b49	e8 00 00 00 00	 call	 ?set_3d_main_light_source@@YGXPAUENV_3D@@PAULIGHT_COLOUR@@PAUVEC3D@@H@Z ; set_3d_main_light_source

; 1580 : 
; 1581 : 			//
; 1582 : 			// Set the fogmode
; 1583 : 			//
; 1584 : 
; 1585 : 			set_3d_fogmode ( main_3d_env, FOGMODE_ON_MANUAL );

  00b4e	6a 02		 push	 2
  00b50	a1 00 00 00 00	 mov	 eax, DWORD PTR ?main_3d_env@@3PAUENV_3D@@A ; main_3d_env
  00b55	50		 push	 eax
  00b56	e8 00 00 00 00	 call	 ?set_3d_fogmode@@YGXPAUENV_3D@@W4FOGMODES@@@Z ; set_3d_fogmode

; 1586 : 
; 1587 : 			fog_colour.r = ambient_light.red * 128;

  00b5b	f3 0f 10 45 f0	 movss	 xmm0, DWORD PTR _ambient_light$6[ebp]
  00b60	f3 0f 59 05 00
	00 00 00	 mulss	 xmm0, DWORD PTR __real@43000000
  00b68	f3 0f 2c c0	 cvttss2si eax, xmm0
  00b6c	88 45 d2	 mov	 BYTE PTR _fog_colour$3[ebp+2], al

; 1588 : 			fog_colour.g = ambient_light.green * 128;

  00b6f	f3 0f 10 45 f4	 movss	 xmm0, DWORD PTR _ambient_light$6[ebp+4]
  00b74	f3 0f 59 05 00
	00 00 00	 mulss	 xmm0, DWORD PTR __real@43000000
  00b7c	f3 0f 2c c0	 cvttss2si eax, xmm0
  00b80	88 45 d1	 mov	 BYTE PTR _fog_colour$3[ebp+1], al

; 1589 : 			fog_colour.b = ambient_light.blue * 128;

  00b83	f3 0f 10 45 f8	 movss	 xmm0, DWORD PTR _ambient_light$6[ebp+8]
  00b88	f3 0f 59 05 00
	00 00 00	 mulss	 xmm0, DWORD PTR __real@43000000
  00b90	f3 0f 2c c0	 cvttss2si eax, xmm0
  00b94	88 45 d0	 mov	 BYTE PTR _fog_colour$3[ebp], al

; 1590 : 
; 1591 : 			fog_colour.a = 0;

  00b97	c6 45 d3 00	 mov	 BYTE PTR _fog_colour$3[ebp+3], 0

; 1592 : 
; 1593 : 			set_3d_fog_colour ( main_3d_env, fog_colour );

  00b9b	8b 45 d0	 mov	 eax, DWORD PTR _fog_colour$3[ebp]
  00b9e	50		 push	 eax
  00b9f	8b 0d 00 00 00
	00		 mov	 ecx, DWORD PTR ?main_3d_env@@3PAUENV_3D@@A ; main_3d_env
  00ba5	51		 push	 ecx
  00ba6	e8 00 00 00 00	 call	 ?set_3d_fog_colour@@YGXPAUENV_3D@@UREAL_COLOUR@@@Z ; set_3d_fog_colour

; 1594 : 
; 1595 : 			break;

  00bab	eb 79		 jmp	 SHORT $LN2@set_applic
$LN47@set_applic:

; 1596 : 		}
; 1597 : 
; 1598 : 		// Jabberwock 031009 Satellite tint for satellite view
; 1599 : 		case DISPLAY_3D_TINT_BLUE_HAZE:
; 1600 : 		{
; 1601 : 			
; 1602 : 			int
; 1603 : 				interference;
; 1604 : 				
; 1605 : 			camera
; 1606 : 				*raw;
; 1607 : 				
; 1608 : 			
; 1609 : 			//
; 1610 : 			// Set the light modes
; 1611 : 			//
; 1612 : 
; 1613 : 			set_3d_lightmode ( main_3d_env, LIGHTMODE_AUTOMATIC_LIGHT );

  00bad	6a 01		 push	 1
  00baf	a1 00 00 00 00	 mov	 eax, DWORD PTR ?main_3d_env@@3PAUENV_3D@@A ; main_3d_env
  00bb4	50		 push	 eax
  00bb5	e8 00 00 00 00	 call	 ?set_3d_lightmode@@YGXPAUENV_3D@@W4LIGHTMODES@@@Z ; set_3d_lightmode

; 1614 : 
; 1615 : 			set_3d_infrared_mode ( main_3d_env, INFRARED_OFF );

  00bba	6a 01		 push	 1
  00bbc	a1 00 00 00 00	 mov	 eax, DWORD PTR ?main_3d_env@@3PAUENV_3D@@A ; main_3d_env
  00bc1	50		 push	 eax
  00bc2	e8 00 00 00 00	 call	 ?set_3d_infrared_mode@@YGXPAUENV_3D@@W4RENDER_FILTERS@@@Z ; set_3d_infrared_mode

; 1616 : 	
; 1617 : 			//
; 1618 : 			// Set the fogmode
; 1619 : 			//
; 1620 : 
; 1621 : 			set_3d_fogmode ( main_3d_env, FOGMODE_ON_MANUAL );

  00bc7	6a 02		 push	 2
  00bc9	a1 00 00 00 00	 mov	 eax, DWORD PTR ?main_3d_env@@3PAUENV_3D@@A ; main_3d_env
  00bce	50		 push	 eax
  00bcf	e8 00 00 00 00	 call	 ?set_3d_fogmode@@YGXPAUENV_3D@@W4FOGMODES@@@Z ; set_3d_fogmode

; 1622 : 
; 1623 : 			raw = (camera *) get_local_entity_data (get_camera_entity ());

  00bd4	a1 00 00 00 00	 mov	 eax, DWORD PTR ?camera_entity@@3PAUENTITY@@A ; camera_entity
  00bd9	8b 48 04	 mov	 ecx, DWORD PTR [eax+4]
  00bdc	89 4d c8	 mov	 DWORD PTR _raw$1[ebp], ecx

; 1624 : 						
; 1625 : 			interference = raw->fly_by_camera_timer;

  00bdf	8b 45 c8	 mov	 eax, DWORD PTR _raw$1[ebp]
  00be2	f3 0f 2c 88 90
	00 00 00	 cvttss2si ecx, DWORD PTR [eax+144]
  00bea	89 4d cc	 mov	 DWORD PTR _interference$2[ebp], ecx

; 1626 : 
; 1627 : 			if (interference < 180)

  00bed	81 7d cc b4 00
	00 00		 cmp	 DWORD PTR _interference$2[ebp], 180 ; 000000b4H
  00bf4	7d 0e		 jge	 SHORT $LN48@set_applic

; 1628 : 			{
; 1629 : 				fog_colour.r = 32;

  00bf6	c6 45 d2 20	 mov	 BYTE PTR _fog_colour$3[ebp+2], 32 ; 00000020H

; 1630 : 				fog_colour.g = 64;

  00bfa	c6 45 d1 40	 mov	 BYTE PTR _fog_colour$3[ebp+1], 64 ; 00000040H

; 1631 : 				fog_colour.b = 96;

  00bfe	c6 45 d0 60	 mov	 BYTE PTR _fog_colour$3[ebp], 96 ; 00000060H

; 1632 : 			}
; 1633 : 			else

  00c02	eb 0c		 jmp	 SHORT $LN49@set_applic
$LN48@set_applic:

; 1634 : 			{
; 1635 : 				fog_colour.r = 255;

  00c04	c6 45 d2 ff	 mov	 BYTE PTR _fog_colour$3[ebp+2], 255 ; 000000ffH

; 1636 : 				fog_colour.g = 255;

  00c08	c6 45 d1 ff	 mov	 BYTE PTR _fog_colour$3[ebp+1], 255 ; 000000ffH

; 1637 : 				fog_colour.b = 255;

  00c0c	c6 45 d0 ff	 mov	 BYTE PTR _fog_colour$3[ebp], 255 ; 000000ffH
$LN49@set_applic:

; 1638 : 			}
; 1639 : 			
; 1640 : 			
; 1641 : 			//if (interference < 150)
; 1642 : 			//{
; 1643 : 				//fog_colour.a = frand1() * 40 + 150;
; 1644 : 			//	fog_colour.a += 1;
; 1645 : 			//}
; 1646 : 			//else
; 1647 : 			//{
; 1648 : 				fog_colour.a = interference;

  00c10	8a 45 cc	 mov	 al, BYTE PTR _interference$2[ebp]
  00c13	88 45 d3	 mov	 BYTE PTR _fog_colour$3[ebp+3], al

; 1649 : 			//}
; 1650 : 
; 1651 : 	
; 1652 : 			set_3d_fog_colour ( main_3d_env, fog_colour );

  00c16	8b 45 d0	 mov	 eax, DWORD PTR _fog_colour$3[ebp]
  00c19	50		 push	 eax
  00c1a	8b 0d 00 00 00
	00		 mov	 ecx, DWORD PTR ?main_3d_env@@3PAUENV_3D@@A ; main_3d_env
  00c20	51		 push	 ecx
  00c21	e8 00 00 00 00	 call	 ?set_3d_fog_colour@@YGXPAUENV_3D@@UREAL_COLOUR@@@Z ; set_3d_fog_colour
$LN2@set_applic:

; 1653 : 
; 1654 : 			break;
; 1655 : 		}
; 1656 : 	}
; 1657 : // Jabberwock 031009 ends
; 1658 : }

  00c26	5f		 pop	 edi
  00c27	5e		 pop	 esi
  00c28	5b		 pop	 ebx
  00c29	8b e5		 mov	 esp, ebp
  00c2b	5d		 pop	 ebp
  00c2c	c2 0c 00	 ret	 12			; 0000000cH
  00c2f	90		 npad	 1
$LN51@set_applic:
  00c30	00 00 00 00	 DD	 $LN16@set_applic
  00c34	00 00 00 00	 DD	 $LN27@set_applic
  00c38	00 00 00 00	 DD	 $LN27@set_applic
  00c3c	00 00 00 00	 DD	 $LN33@set_applic
  00c40	00 00 00 00	 DD	 $LN33@set_applic
  00c44	00 00 00 00	 DD	 $LN39@set_applic
  00c48	00 00 00 00	 DD	 $LN2@set_applic
  00c4c	00 00 00 00	 DD	 $LN43@set_applic
  00c50	00 00 00 00	 DD	 $LN2@set_applic
  00c54	00 00 00 00	 DD	 $LN23@set_applic
  00c58	00 00 00 00	 DD	 $LN47@set_applic
  00c5c	00 00 00 00	 DD	 $LN17@set_applic
?set_application_display_3d_mode@@YGXW4DISPLAY_3D_TINTS@@W4DISPLAY_3D_LIGHT_LEVELS@@W4DISPLAY_3D_NOISE_LEVELS@@@Z ENDP ; set_application_display_3d_mode
_TEXT	ENDS
; Function compile flags: /Odtp /ZI
; File c:\users\nhv90\projects\eech\aphavoc\source\app3d\3d_init.c
;	COMDAT ?set_3d_detail_levels@@YGXXZ
_TEXT	SEGMENT
tv69 = -76						; size = 4
tv64 = -76						; size = 4
_factor$ = -8						; size = 4
_level$ = -4						; size = 4
?set_3d_detail_levels@@YGXXZ PROC			; set_3d_detail_levels, COMDAT

; 823  : {

  00000	55		 push	 ebp
  00001	8b ec		 mov	 ebp, esp
  00003	83 ec 4c	 sub	 esp, 76			; 0000004cH
  00006	53		 push	 ebx
  00007	56		 push	 esi
  00008	57		 push	 edi

; 824  : 
; 825  : 	int
; 826  : 		level;
; 827  : 
; 828  : 	float
; 829  : 		factor;
; 830  : 
; 831  : 	//
; 832  : 	// Adjust the object detail levels
; 833  : 	//
; 834  : 
; 835  : 	level = get_global_graphics_object_detail_level ();

  00009	a1 94 01 00 00	 mov	 eax, DWORD PTR ?global_options@@3UGLOBAL_OPTIONS_DATA@@A+404
  0000e	89 45 fc	 mov	 DWORD PTR _level$[ebp], eax

; 836  : 
; 837  : 	switch ( level )

  00011	8b 45 fc	 mov	 eax, DWORD PTR _level$[ebp]
  00014	89 45 b4	 mov	 DWORD PTR tv64[ebp], eax
  00017	83 7d b4 01	 cmp	 DWORD PTR tv64[ebp], 1
  0001b	74 0e		 je	 SHORT $LN6@set_3d_det
  0001d	83 7d b4 02	 cmp	 DWORD PTR tv64[ebp], 2
  00021	74 17		 je	 SHORT $LN7@set_3d_det
  00023	83 7d b4 03	 cmp	 DWORD PTR tv64[ebp], 3
  00027	74 20		 je	 SHORT $LN8@set_3d_det
  00029	eb 2b		 jmp	 SHORT $LN2@set_3d_det
$LN6@set_3d_det:

; 838  : 	{
; 839  : 
; 840  : 		case 1: factor = 0.5; break;

  0002b	f3 0f 10 05 00
	00 00 00	 movss	 xmm0, DWORD PTR __real@3f000000
  00033	f3 0f 11 45 f8	 movss	 DWORD PTR _factor$[ebp], xmm0
  00038	eb 1c		 jmp	 SHORT $LN2@set_3d_det
$LN7@set_3d_det:

; 841  : 		case 2: factor = 0.7; break;

  0003a	f3 0f 10 05 00
	00 00 00	 movss	 xmm0, DWORD PTR __real@3f333333
  00042	f3 0f 11 45 f8	 movss	 DWORD PTR _factor$[ebp], xmm0
  00047	eb 0d		 jmp	 SHORT $LN2@set_3d_det
$LN8@set_3d_det:

; 842  : 		case 3: factor = 1.0; break;

  00049	f3 0f 10 05 00
	00 00 00	 movss	 xmm0, DWORD PTR __real@3f800000
  00051	f3 0f 11 45 f8	 movss	 DWORD PTR _factor$[ebp], xmm0
$LN2@set_3d_det:

; 843  : 	}
; 844  : 
; 845  : 	modify_3d_objects_approximations ( factor );

  00056	51		 push	 ecx
  00057	f3 0f 10 45 f8	 movss	 xmm0, DWORD PTR _factor$[ebp]
  0005c	f3 0f 11 04 24	 movss	 DWORD PTR [esp], xmm0
  00061	e8 00 00 00 00	 call	 ?modify_3d_objects_approximations@@YGXM@Z ; modify_3d_objects_approximations

; 846  : 
; 847  : 	//
; 848  : 	// Adjust the terrain detail levels
; 849  : 	//
; 850  : 
; 851  : 	level = get_global_graphics_terrain_detail_level ();

  00066	a1 98 01 00 00	 mov	 eax, DWORD PTR ?global_options@@3UGLOBAL_OPTIONS_DATA@@A+408
  0006b	89 45 fc	 mov	 DWORD PTR _level$[ebp], eax

; 852  : 
; 853  : 	switch ( level )

  0006e	8b 45 fc	 mov	 eax, DWORD PTR _level$[ebp]
  00071	89 45 b4	 mov	 DWORD PTR tv69[ebp], eax
  00074	83 7d b4 01	 cmp	 DWORD PTR tv69[ebp], 1
  00078	74 0e		 je	 SHORT $LN9@set_3d_det
  0007a	83 7d b4 02	 cmp	 DWORD PTR tv69[ebp], 2
  0007e	74 17		 je	 SHORT $LN10@set_3d_det
  00080	83 7d b4 03	 cmp	 DWORD PTR tv69[ebp], 3
  00084	74 20		 je	 SHORT $LN11@set_3d_det
  00086	eb 2b		 jmp	 SHORT $LN4@set_3d_det
$LN9@set_3d_det:

; 854  : 	{
; 855  : 
; 856  : 		case 1: factor = 0.7; break;

  00088	f3 0f 10 05 00
	00 00 00	 movss	 xmm0, DWORD PTR __real@3f333333
  00090	f3 0f 11 45 f8	 movss	 DWORD PTR _factor$[ebp], xmm0
  00095	eb 1c		 jmp	 SHORT $LN4@set_3d_det
$LN10@set_3d_det:

; 857  : 		case 2: factor = 0.85; break;

  00097	f3 0f 10 05 00
	00 00 00	 movss	 xmm0, DWORD PTR __real@3f59999a
  0009f	f3 0f 11 45 f8	 movss	 DWORD PTR _factor$[ebp], xmm0
  000a4	eb 0d		 jmp	 SHORT $LN4@set_3d_det
$LN11@set_3d_det:

; 858  : 		case 3: factor = 1.0; break;

  000a6	f3 0f 10 05 00
	00 00 00	 movss	 xmm0, DWORD PTR __real@3f800000
  000ae	f3 0f 11 45 f8	 movss	 DWORD PTR _factor$[ebp], xmm0
$LN4@set_3d_det:

; 859  : 	}
; 860  : 
; 861  : 	set_global_3d_fog_scale_setting ( main_3d_env, factor );

  000b3	51		 push	 ecx
  000b4	f3 0f 10 45 f8	 movss	 xmm0, DWORD PTR _factor$[ebp]
  000b9	f3 0f 11 04 24	 movss	 DWORD PTR [esp], xmm0
  000be	a1 00 00 00 00	 mov	 eax, DWORD PTR ?main_3d_env@@3PAUENV_3D@@A ; main_3d_env
  000c3	50		 push	 eax
  000c4	e8 00 00 00 00	 call	 ?set_global_3d_fog_scale_setting@@YGXPAUENV_3D@@M@Z ; set_global_3d_fog_scale_setting

; 862  : }

  000c9	5f		 pop	 edi
  000ca	5e		 pop	 esi
  000cb	5b		 pop	 ebx
  000cc	8b e5		 mov	 esp, ebp
  000ce	5d		 pop	 ebp
  000cf	c3		 ret	 0
?set_3d_detail_levels@@YGXXZ ENDP			; set_3d_detail_levels
_TEXT	ENDS
; Function compile flags: /Odtp /ZI
; File c:\users\nhv90\projects\eech\aphavoc\source\app3d\3d_init.c
;	COMDAT ?deinitialise_application_3d_system@@YGXXZ
_TEXT	SEGMENT
?deinitialise_application_3d_system@@YGXXZ PROC		; deinitialise_application_3d_system, COMDAT

; 784  : {

  00000	55		 push	 ebp
  00001	8b ec		 mov	 ebp, esp
  00003	83 ec 40	 sub	 esp, 64			; 00000040H
  00006	53		 push	 ebx
  00007	56		 push	 esi
  00008	57		 push	 edi

; 785  : 	display_terrain_elevation_statistics ();

  00009	e8 00 00 00 00	 call	 ?display_terrain_elevation_statistics@@YGXXZ ; display_terrain_elevation_statistics

; 786  : 
; 787  : 	destroy_3d_environment (main_3d_env);

  0000e	a1 00 00 00 00	 mov	 eax, DWORD PTR ?main_3d_env@@3PAUENV_3D@@A ; main_3d_env
  00013	50		 push	 eax
  00014	e8 00 00 00 00	 call	 ?destroy_3d_environment@@YGXPAUENV_3D@@@Z ; destroy_3d_environment

; 788  : 
; 789  : 	main_3d_env = NULL;

  00019	c7 05 00 00 00
	00 00 00 00 00	 mov	 DWORD PTR ?main_3d_env@@3PAUENV_3D@@A, 0 ; main_3d_env

; 790  : 
; 791  : 	destroy_3d_environment (main_3d_single_light_env);

  00023	a1 00 00 00 00	 mov	 eax, DWORD PTR ?main_3d_single_light_env@@3PAUENV_3D@@A ; main_3d_single_light_env
  00028	50		 push	 eax
  00029	e8 00 00 00 00	 call	 ?destroy_3d_environment@@YGXPAUENV_3D@@@Z ; destroy_3d_environment

; 792  : 
; 793  : 	main_3d_single_light_env = NULL;

  0002e	c7 05 00 00 00
	00 00 00 00 00	 mov	 DWORD PTR ?main_3d_single_light_env@@3PAUENV_3D@@A, 0 ; main_3d_single_light_env

; 794  : 
; 795  : 	//
; 796  : 	// 3D textures
; 797  : 	//
; 798  : 
; 799  : 	deinitialise_common_mfd_3d_textures ();

  00038	e8 00 00 00 00	 call	 ?deinitialise_common_mfd_3d_textures@@YGXXZ ; deinitialise_common_mfd_3d_textures

; 800  : 
; 801  : 	deinitialise_common_crew_skins ();

  0003d	e8 00 00 00 00	 call	 ?deinitialise_common_crew_skins@@YGXXZ ; deinitialise_common_crew_skins

; 802  : 
; 803  : 	deinitialise_campaign_screen_3d_textures ();

  00042	e8 00 00 00 00	 call	 ?deinitialise_campaign_screen_3d_textures@@YGXXZ ; deinitialise_campaign_screen_3d_textures

; 804  : 
; 805  : 	//
; 806  : 	// In case there is a terrain loaded - free it up.
; 807  : 	//
; 808  : 
; 809  : 	unload_3d_terrain ();

  00047	e8 00 00 00 00	 call	 ?unload_3d_terrain@@YGXXZ ; unload_3d_terrain

; 810  : 
; 811  : 	unload_2d_terrain ();

  0004c	e8 00 00 00 00	 call	 ?unload_2d_terrain@@YGXXZ ; unload_2d_terrain

; 812  : 
; 813  : 	unload_terrain_simple_elevation_grid ();

  00051	e8 00 00 00 00	 call	 ?unload_terrain_simple_elevation_grid@@YGXXZ ; unload_terrain_simple_elevation_grid

; 814  : 
; 815  : 	report_objects_not_destructed ();

  00056	e8 00 00 00 00	 call	 ?report_objects_not_destructed@@YGXXZ ; report_objects_not_destructed

; 816  : }

  0005b	5f		 pop	 edi
  0005c	5e		 pop	 esi
  0005d	5b		 pop	 ebx
  0005e	8b e5		 mov	 esp, ebp
  00060	5d		 pop	 ebp
  00061	c3		 ret	 0
?deinitialise_application_3d_system@@YGXXZ ENDP		; deinitialise_application_3d_system
_TEXT	ENDS
; Function compile flags: /Odtp /ZI
; File c:\users\nhv90\projects\eech\aphavoc\source\app3d\3d_init.c
;	COMDAT ?initialise_application_3d_system@@YGXXZ
_TEXT	SEGMENT
$T1 = -312						; size = 4
$T2 = -308						; size = 4
_single_light_fog_colour$3 = -240			; size = 4
_single_light_direction$4 = -236			; size = 12
_single_light_colour$5 = -224				; size = 16
_single_light_ambient_colour$6 = -208			; size = 16
_position$7 = -192					; size = 12
_shadow_colour$8 = -180					; size = 28
_fog_scale$9 = -152					; size = 4
_sun_light_colour$10 = -148				; size = 12
_ambient_colour$11 = -136				; size = 24
_moon_light_colour$12 = -112				; size = 12
_moon_colour$13 = -100					; size = 12
_sun_light_colour$14 = -88				; size = 36
_sun_colour$15 = -52					; size = 16
_ambient_colour$16 = -36				; size = 32
_light_level$ = -4					; size = 4
?initialise_application_3d_system@@YGXXZ PROC		; initialise_application_3d_system, COMDAT

; 94   : {

  00000	55		 push	 ebp
  00001	8b ec		 mov	 ebp, esp
  00003	81 ec 38 01 00
	00		 sub	 esp, 312		; 00000138H
  00009	53		 push	 ebx
  0000a	56		 push	 esi
  0000b	57		 push	 edi

; 95   : 
; 96   :   float light_level = max(min(1.0f,global_night_light_level),0.0f);

  0000c	0f 57 c0	 xorps	 xmm0, xmm0
  0000f	f3 0f 11 85 cc
	fe ff ff	 movss	 DWORD PTR $T2[ebp], xmm0
  00017	f3 0f 10 05 00
	00 00 00	 movss	 xmm0, DWORD PTR __real@3f800000
  0001f	f3 0f 11 85 c8
	fe ff ff	 movss	 DWORD PTR $T1[ebp], xmm0
  00027	8d 85 cc fe ff
	ff		 lea	 eax, DWORD PTR $T2[ebp]
  0002d	50		 push	 eax
  0002e	68 00 00 00 00	 push	 OFFSET ?global_night_light_level@@3MA ; global_night_light_level
  00033	8d 8d c8 fe ff
	ff		 lea	 ecx, DWORD PTR $T1[ebp]
  00039	51		 push	 ecx
  0003a	e8 00 00 00 00	 call	 ??$min@M@std@@YGABMABM0@Z ; std::min<float>
  0003f	50		 push	 eax
  00040	e8 00 00 00 00	 call	 ??$max@M@std@@YGABMABM0@Z ; std::max<float>
  00045	f3 0f 10 00	 movss	 xmm0, DWORD PTR [eax]
  00049	f3 0f 11 45 fc	 movss	 DWORD PTR _light_level$[ebp], xmm0

; 97   : 	
; 98   : 	
; 99   : 	
; 100  : 	ASSERT ( !main_3d_env );

  0004e	83 3d 00 00 00
	00 00		 cmp	 DWORD PTR ?main_3d_env@@3PAUENV_3D@@A, 0 ; main_3d_env
  00055	74 18		 je	 SHORT $LN2@initialise
  00057	a1 00 00 00 00	 mov	 eax, DWORD PTR ?__LINE__Var@?0??initialise_application_3d_system@@YGXXZ@4JA
  0005c	83 c0 06	 add	 eax, 6
  0005f	50		 push	 eax
  00060	68 00 00 00 00	 push	 OFFSET ??_C@_0DM@BNNHFLJC@c?3?2users?2nhv90?2projects?2eech?2ap@
  00065	68 00 00 00 00	 push	 OFFSET ??_C@_0N@LOIAOAH@?$CBmain_3d_env@
  0006a	e8 00 00 00 00	 call	 ?process_assert@@YGXPBD0H@Z ; process_assert
$LN2@initialise:

; 101  : 
; 102  : 	ASSERT ( !main_3d_single_light_env );

  0006f	83 3d 00 00 00
	00 00		 cmp	 DWORD PTR ?main_3d_single_light_env@@3PAUENV_3D@@A, 0 ; main_3d_single_light_env
  00076	74 18		 je	 SHORT $LN3@initialise
  00078	a1 00 00 00 00	 mov	 eax, DWORD PTR ?__LINE__Var@?0??initialise_application_3d_system@@YGXXZ@4JA
  0007d	83 c0 08	 add	 eax, 8
  00080	50		 push	 eax
  00081	68 00 00 00 00	 push	 OFFSET ??_C@_0DM@BNNHFLJC@c?3?2users?2nhv90?2projects?2eech?2ap@
  00086	68 00 00 00 00	 push	 OFFSET ??_C@_0BK@FFIFMNKK@?$CBmain_3d_single_light_env@
  0008b	e8 00 00 00 00	 call	 ?process_assert@@YGXPBD0H@Z ; process_assert
$LN3@initialise:

; 103  : 
; 104  : 	//
; 105  : 	// 3D resolution
; 106  : 	//
; 107  : 
; 108  : 	set_3d_resolutions (get_global_3d_visual_screen_width (), get_global_3d_visual_screen_height ());

  00090	51		 push	 ecx
  00091	f3 0f 10 05 c8
	01 00 00	 movss	 xmm0, DWORD PTR ?global_options@@3UGLOBAL_OPTIONS_DATA@@A+456
  00099	f3 0f 11 04 24	 movss	 DWORD PTR [esp], xmm0
  0009e	51		 push	 ecx
  0009f	f3 0f 10 05 c4
	01 00 00	 movss	 xmm0, DWORD PTR ?global_options@@3UGLOBAL_OPTIONS_DATA@@A+452
  000a7	f3 0f 11 04 24	 movss	 DWORD PTR [esp], xmm0
  000ac	e8 00 00 00 00	 call	 ?set_3d_resolutions@@YGXMM@Z ; set_3d_resolutions

; 109  : 
; 110  : 	debug_log ( "Creating mfd 3d textures" );

  000b1	68 00 00 00 00	 push	 OFFSET ??_C@_0BJ@GPDFCBKC@Creating?5mfd?53d?5textures@
  000b6	e8 00 00 00 00	 call	 ?debug_log@@YAXPBDZZ	; debug_log
  000bb	83 c4 04	 add	 esp, 4

; 111  : 
; 112  : 	//
; 113  : 	// 3D textures
; 114  : 	//
; 115  : 
; 116  : 	initialise_common_mfd_3d_textures ();

  000be	e8 00 00 00 00	 call	 ?initialise_common_mfd_3d_textures@@YGXXZ ; initialise_common_mfd_3d_textures

; 117  : 
; 118  : 	initialise_campaign_screen_3d_textures ();

  000c3	e8 00 00 00 00	 call	 ?initialise_campaign_screen_3d_textures@@YGXXZ ; initialise_campaign_screen_3d_textures

; 119  : 
; 120  : 	//
; 121  : 	// Initialise 3ddata
; 122  : 	//
; 123  : 
; 124  : 	debug_log ( "Loading textures" );

  000c8	68 00 00 00 00	 push	 OFFSET ??_C@_0BB@JJJMFBGD@Loading?5textures@
  000cd	e8 00 00 00 00	 call	 ?debug_log@@YAXPBDZZ	; debug_log
  000d2	83 c4 04	 add	 esp, 4

; 125  : 
; 126  : 	load_texturemap_data ( "3ddata" );

  000d5	68 00 00 00 00	 push	 OFFSET ??_C@_06KIELAJID@3ddata@
  000da	e8 00 00 00 00	 call	 ?load_texturemap_data@@YGHPBD@Z ; load_texturemap_data

; 127  : 	
; 128  : 	//VJ 060218 texture bug autosave fix, mapinfo was reinitialized each autosave
; 129  : 	// moved to beginning
; 130  : 	debug_log("###CUSTOM TEXTURE STARTUP: initialise_application_3d_system: initialise_custom_map_info");

  000df	68 00 00 00 00	 push	 OFFSET ??_C@_0FI@ILJGOAHJ@?$CD?$CD?$CDCUSTOM?5TEXTURE?5STARTUP?3?5init@
  000e4	e8 00 00 00 00	 call	 ?debug_log@@YAXPBDZZ	; debug_log
  000e9	83 c4 04	 add	 esp, 4

; 131  : 	initialise_custom_map_info();

  000ec	e8 00 00 00 00	 call	 ?initialise_custom_map_info@@YGXXZ ; initialise_custom_map_info

; 132  : 
; 133  : 	initialise_3d_system ();

  000f1	e8 00 00 00 00	 call	 ?initialise_3d_system@@YGXXZ ; initialise_3d_system

; 134  : 
; 135  : 	initialise_3d_objects ( "3ddata" );

  000f6	68 00 00 00 00	 push	 OFFSET ??_C@_06KIELAJID@3ddata@
  000fb	e8 00 00 00 00	 call	 ?initialise_3d_objects@@YGXPBD@Z ; initialise_3d_objects

; 136  : 
; 137  : 	initialise_3d_displacement_maps ( "3ddata\\displace.bin" );

  00100	68 00 00 00 00	 push	 OFFSET ??_C@_0BE@DPPOKICC@3ddata?2displace?4bin@
  00105	e8 00 00 00 00	 call	 ?initialise_3d_displacement_maps@@YGXPBD@Z ; initialise_3d_displacement_maps

; 138  : 
; 139  : 	initialise_3d_terrain ();

  0010a	e8 00 00 00 00	 call	 ?initialise_3d_terrain@@YGXXZ ; initialise_3d_terrain

; 140  : 
; 141  : 	//
; 142  : 	//
; 143  : 	//
; 144  : 
; 145  : 	initialise_common_crew_skins ();

  0010f	e8 00 00 00 00	 call	 ?initialise_common_crew_skins@@YGXXZ ; initialise_common_crew_skins

; 146  : 
; 147  : 	//
; 148  : 	// Initialise Default Terrain Data
; 149  : 	//
; 150  : 
; 151  : 	set_3d_terrain_detail_blend_parameters ( 0.7 );

  00114	51		 push	 ecx
  00115	f3 0f 10 05 00
	00 00 00	 movss	 xmm0, DWORD PTR __real@3f333333
  0011d	f3 0f 11 04 24	 movss	 DWORD PTR [esp], xmm0
  00122	e8 00 00 00 00	 call	 ?set_3d_terrain_detail_blend_parameters@@YGXM@Z ; set_3d_terrain_detail_blend_parameters

; 152  : //set_3d_terrain_detail_blend_parameters ( 0 );
; 153  : 
; 154  : 	//set_terrain_3d_sector_scan_radius ( 10 );
; 155  : 	set_terrain_3d_sector_scan_radius ( 5 );

  00127	6a 05		 push	 5
  00129	e8 00 00 00 00	 call	 ?set_terrain_3d_sector_scan_radius@@YGXH@Z ; set_terrain_3d_sector_scan_radius

; 156  : 
; 157  : 	//
; 158  : 	// Initialise 3D environment
; 159  : 	//
; 160  : 
; 161  : 	initialise_3d_lightning ( TEXTURE_ANIMATION_INDEX_LIGHTNING, TEXTURE_INDEX_LIGHTNING_BASE );

  0012e	68 97 06 00 00	 push	 1687			; 00000697H
  00133	6a 60		 push	 96			; 00000060H
  00135	e8 00 00 00 00	 call	 ?initialise_3d_lightning@@YGXW4TEXTURE_ANIMATION_INDICES@@H@Z ; initialise_3d_lightning

; 162  : 
; 163  : 	main_3d_env = create_3d_environment ();

  0013a	e8 00 00 00 00	 call	 ?create_3d_environment@@YGPAUENV_3D@@XZ ; create_3d_environment
  0013f	a3 00 00 00 00	 mov	 DWORD PTR ?main_3d_env@@3PAUENV_3D@@A, eax ; main_3d_env

; 164  : 
; 165  : 	{
; 166  : 
; 167  : 		//
; 168  : 		// Initialise the horizon.
; 169  : 		//
; 170  : 
; 171  : 		initialise_3d_horizon ( main_3d_env, OBJECT_3D_HORIZON );

  00144	68 28 0a 00 00	 push	 2600			; 00000a28H
  00149	a1 00 00 00 00	 mov	 eax, DWORD PTR ?main_3d_env@@3PAUENV_3D@@A ; main_3d_env
  0014e	50		 push	 eax
  0014f	e8 00 00 00 00	 call	 ?initialise_3d_horizon@@YGXPAUENV_3D@@H@Z ; initialise_3d_horizon

; 172  : 
; 173  : 		//
; 174  : 		// Dry weather mode images
; 175  : 		//
; 176  : 
; 177  : 		add_3d_horizon_image ( main_3d_env, "3ddata\\horizon\\dry6am",		SUN_RISE_START_TIME,	WEATHERMODE_DRY );

  00154	6a 01		 push	 1
  00156	51		 push	 ecx
  00157	f3 0f 10 05 00
	00 00 00	 movss	 xmm0, DWORD PTR __real@46a8c000
  0015f	f3 0f 11 04 24	 movss	 DWORD PTR [esp], xmm0
  00164	68 00 00 00 00	 push	 OFFSET ??_C@_0BG@KJFKADBK@3ddata?2horizon?2dry6am@
  00169	a1 00 00 00 00	 mov	 eax, DWORD PTR ?main_3d_env@@3PAUENV_3D@@A ; main_3d_env
  0016e	50		 push	 eax
  0016f	e8 00 00 00 00	 call	 ?add_3d_horizon_image@@YGXPAUENV_3D@@PBDMW4WEATHERMODES@@@Z ; add_3d_horizon_image

; 178  : 		add_3d_horizon_image ( main_3d_env, "3ddata\\horizon\\dry9am",		SUN_RISE_END_TIME,	WEATHERMODE_DRY );

  00174	6a 01		 push	 1
  00176	51		 push	 ecx
  00177	f3 0f 10 05 00
	00 00 00	 movss	 xmm0, DWORD PTR __real@46fd2000
  0017f	f3 0f 11 04 24	 movss	 DWORD PTR [esp], xmm0
  00184	68 00 00 00 00	 push	 OFFSET ??_C@_0BG@PBDJBDEM@3ddata?2horizon?2dry9am@
  00189	a1 00 00 00 00	 mov	 eax, DWORD PTR ?main_3d_env@@3PAUENV_3D@@A ; main_3d_env
  0018e	50		 push	 eax
  0018f	e8 00 00 00 00	 call	 ?add_3d_horizon_image@@YGXPAUENV_3D@@PBDMW4WEATHERMODES@@@Z ; add_3d_horizon_image

; 179  : 		add_3d_horizon_image ( main_3d_env, "3ddata\\horizon\\dry12pm",	MIDDAY_TIME,			WEATHERMODE_DRY );

  00194	6a 01		 push	 1
  00196	51		 push	 ecx
  00197	f3 0f 10 05 00
	00 00 00	 movss	 xmm0, DWORD PTR __real@4728c000
  0019f	f3 0f 11 04 24	 movss	 DWORD PTR [esp], xmm0
  001a4	68 00 00 00 00	 push	 OFFSET ??_C@_0BH@FCPOPKOM@3ddata?2horizon?2dry12pm@
  001a9	a1 00 00 00 00	 mov	 eax, DWORD PTR ?main_3d_env@@3PAUENV_3D@@A ; main_3d_env
  001ae	50		 push	 eax
  001af	e8 00 00 00 00	 call	 ?add_3d_horizon_image@@YGXPAUENV_3D@@PBDMW4WEATHERMODES@@@Z ; add_3d_horizon_image

; 180  : 		add_3d_horizon_image ( main_3d_env, "3ddata\\horizon\\dry3pm",		SUN_SET_START_TIME,	WEATHERMODE_DRY );

  001b4	6a 01		 push	 1
  001b6	51		 push	 ecx
  001b7	f3 0f 10 05 00
	00 00 00	 movss	 xmm0, DWORD PTR __real@476f1000
  001bf	f3 0f 11 04 24	 movss	 DWORD PTR [esp], xmm0
  001c4	68 00 00 00 00	 push	 OFFSET ??_C@_0BG@IDGADKGP@3ddata?2horizon?2dry3pm@
  001c9	a1 00 00 00 00	 mov	 eax, DWORD PTR ?main_3d_env@@3PAUENV_3D@@A ; main_3d_env
  001ce	50		 push	 eax
  001cf	e8 00 00 00 00	 call	 ?add_3d_horizon_image@@YGXPAUENV_3D@@PBDMW4WEATHERMODES@@@Z ; add_3d_horizon_image

; 181  : 		add_3d_horizon_image ( main_3d_env, "3ddata\\horizon\\dry6pm",		SUN_SET_END_TIME,		WEATHERMODE_DRY );

  001d4	6a 01		 push	 1
  001d6	51		 push	 ecx
  001d7	f3 0f 10 05 00
	00 00 00	 movss	 xmm0, DWORD PTR __real@47891c00
  001df	f3 0f 11 04 24	 movss	 DWORD PTR [esp], xmm0
  001e4	68 00 00 00 00	 push	 OFFSET ??_C@_0BG@LELOMKFN@3ddata?2horizon?2dry6pm@
  001e9	a1 00 00 00 00	 mov	 eax, DWORD PTR ?main_3d_env@@3PAUENV_3D@@A ; main_3d_env
  001ee	50		 push	 eax
  001ef	e8 00 00 00 00	 call	 ?add_3d_horizon_image@@YGXPAUENV_3D@@PBDMW4WEATHERMODES@@@Z ; add_3d_horizon_image

; 182  : 		add_3d_horizon_image ( main_3d_env, "3ddata\\horizon\\dry9pm",		TWILIGHT_TIME,			WEATHERMODE_DRY );

  001f4	6a 01		 push	 1
  001f6	51		 push	 ecx
  001f7	f3 0f 10 05 00
	00 00 00	 movss	 xmm0, DWORD PTR __real@479ab000
  001ff	f3 0f 11 04 24	 movss	 DWORD PTR [esp], xmm0
  00204	68 00 00 00 00	 push	 OFFSET ??_C@_0BG@OMNNNKAL@3ddata?2horizon?2dry9pm@
  00209	a1 00 00 00 00	 mov	 eax, DWORD PTR ?main_3d_env@@3PAUENV_3D@@A ; main_3d_env
  0020e	50		 push	 eax
  0020f	e8 00 00 00 00	 call	 ?add_3d_horizon_image@@YGXPAUENV_3D@@PBDMW4WEATHERMODES@@@Z ; add_3d_horizon_image

; 183  : 		add_3d_horizon_image ( main_3d_env, "3ddata\\horizon\\dry12am",	MIDNIGHT_TIME,			WEATHERMODE_DRY );

  00214	6a 01		 push	 1
  00216	51		 push	 ecx
  00217	0f 57 c0	 xorps	 xmm0, xmm0
  0021a	f3 0f 11 04 24	 movss	 DWORD PTR [esp], xmm0
  0021f	68 00 00 00 00	 push	 OFFSET ??_C@_0BH@EPBKDDKL@3ddata?2horizon?2dry12am@
  00224	a1 00 00 00 00	 mov	 eax, DWORD PTR ?main_3d_env@@3PAUENV_3D@@A ; main_3d_env
  00229	50		 push	 eax
  0022a	e8 00 00 00 00	 call	 ?add_3d_horizon_image@@YGXPAUENV_3D@@PBDMW4WEATHERMODES@@@Z ; add_3d_horizon_image

; 184  : 		add_3d_horizon_image ( main_3d_env, "3ddata\\horizon\\dry12am",	NIGHT_TIME,				WEATHERMODE_DRY );

  0022f	6a 01		 push	 1
  00231	51		 push	 ecx
  00232	f3 0f 10 05 00
	00 00 00	 movss	 xmm0, DWORD PTR __real@467d2000
  0023a	f3 0f 11 04 24	 movss	 DWORD PTR [esp], xmm0
  0023f	68 00 00 00 00	 push	 OFFSET ??_C@_0BH@EPBKDDKL@3ddata?2horizon?2dry12am@
  00244	a1 00 00 00 00	 mov	 eax, DWORD PTR ?main_3d_env@@3PAUENV_3D@@A ; main_3d_env
  00249	50		 push	 eax
  0024a	e8 00 00 00 00	 call	 ?add_3d_horizon_image@@YGXPAUENV_3D@@PBDMW4WEATHERMODES@@@Z ; add_3d_horizon_image

; 185  : 
; 186  : 		//
; 187  : 		// light rain weather mode images
; 188  : 		//
; 189  : 
; 190  : 		add_3d_horizon_image ( main_3d_env, "3ddata\\horizon\\lr6am",		SUN_RISE_START_TIME,	WEATHERMODE_LIGHT_RAIN );

  0024f	6a 02		 push	 2
  00251	51		 push	 ecx
  00252	f3 0f 10 05 00
	00 00 00	 movss	 xmm0, DWORD PTR __real@46a8c000
  0025a	f3 0f 11 04 24	 movss	 DWORD PTR [esp], xmm0
  0025f	68 00 00 00 00	 push	 OFFSET ??_C@_0BF@DPMMOJDG@3ddata?2horizon?2lr6am@
  00264	a1 00 00 00 00	 mov	 eax, DWORD PTR ?main_3d_env@@3PAUENV_3D@@A ; main_3d_env
  00269	50		 push	 eax
  0026a	e8 00 00 00 00	 call	 ?add_3d_horizon_image@@YGXPAUENV_3D@@PBDMW4WEATHERMODES@@@Z ; add_3d_horizon_image

; 191  : 		add_3d_horizon_image ( main_3d_env, "3ddata\\horizon\\lr9am",		SUN_RISE_END_TIME,	WEATHERMODE_LIGHT_RAIN );

  0026f	6a 02		 push	 2
  00271	51		 push	 ecx
  00272	f3 0f 10 05 00
	00 00 00	 movss	 xmm0, DWORD PTR __real@46fd2000
  0027a	f3 0f 11 04 24	 movss	 DWORD PTR [esp], xmm0
  0027f	68 00 00 00 00	 push	 OFFSET ??_C@_0BF@GHKPPJGA@3ddata?2horizon?2lr9am@
  00284	a1 00 00 00 00	 mov	 eax, DWORD PTR ?main_3d_env@@3PAUENV_3D@@A ; main_3d_env
  00289	50		 push	 eax
  0028a	e8 00 00 00 00	 call	 ?add_3d_horizon_image@@YGXPAUENV_3D@@PBDMW4WEATHERMODES@@@Z ; add_3d_horizon_image

; 192  : 		add_3d_horizon_image ( main_3d_env, "3ddata\\horizon\\lr12pm",		MIDDAY_TIME,			WEATHERMODE_LIGHT_RAIN );

  0028f	6a 02		 push	 2
  00291	51		 push	 ecx
  00292	f3 0f 10 05 00
	00 00 00	 movss	 xmm0, DWORD PTR __real@4728c000
  0029a	f3 0f 11 04 24	 movss	 DWORD PTR [esp], xmm0
  0029f	68 00 00 00 00	 push	 OFFSET ??_C@_0BG@GALAAAOF@3ddata?2horizon?2lr12pm@
  002a4	a1 00 00 00 00	 mov	 eax, DWORD PTR ?main_3d_env@@3PAUENV_3D@@A ; main_3d_env
  002a9	50		 push	 eax
  002aa	e8 00 00 00 00	 call	 ?add_3d_horizon_image@@YGXPAUENV_3D@@PBDMW4WEATHERMODES@@@Z ; add_3d_horizon_image

; 193  : 		add_3d_horizon_image ( main_3d_env, "3ddata\\horizon\\lr3pm",		SUN_SET_START_TIME,	WEATHERMODE_LIGHT_RAIN );

  002af	6a 02		 push	 2
  002b1	51		 push	 ecx
  002b2	f3 0f 10 05 00
	00 00 00	 movss	 xmm0, DWORD PTR __real@476f1000
  002ba	f3 0f 11 04 24	 movss	 DWORD PTR [esp], xmm0
  002bf	68 00 00 00 00	 push	 OFFSET ??_C@_0BF@BFPGNAED@3ddata?2horizon?2lr3pm@
  002c4	a1 00 00 00 00	 mov	 eax, DWORD PTR ?main_3d_env@@3PAUENV_3D@@A ; main_3d_env
  002c9	50		 push	 eax
  002ca	e8 00 00 00 00	 call	 ?add_3d_horizon_image@@YGXPAUENV_3D@@PBDMW4WEATHERMODES@@@Z ; add_3d_horizon_image

; 194  : 		add_3d_horizon_image ( main_3d_env, "3ddata\\horizon\\lr6pm",		SUN_SET_END_TIME,		WEATHERMODE_LIGHT_RAIN );

  002cf	6a 02		 push	 2
  002d1	51		 push	 ecx
  002d2	f3 0f 10 05 00
	00 00 00	 movss	 xmm0, DWORD PTR __real@47891c00
  002da	f3 0f 11 04 24	 movss	 DWORD PTR [esp], xmm0
  002df	68 00 00 00 00	 push	 OFFSET ??_C@_0BF@CCCICAHB@3ddata?2horizon?2lr6pm@
  002e4	a1 00 00 00 00	 mov	 eax, DWORD PTR ?main_3d_env@@3PAUENV_3D@@A ; main_3d_env
  002e9	50		 push	 eax
  002ea	e8 00 00 00 00	 call	 ?add_3d_horizon_image@@YGXPAUENV_3D@@PBDMW4WEATHERMODES@@@Z ; add_3d_horizon_image

; 195  : 		add_3d_horizon_image ( main_3d_env, "3ddata\\horizon\\lr9pm",		TWILIGHT_TIME,			WEATHERMODE_LIGHT_RAIN );

  002ef	6a 02		 push	 2
  002f1	51		 push	 ecx
  002f2	f3 0f 10 05 00
	00 00 00	 movss	 xmm0, DWORD PTR __real@479ab000
  002fa	f3 0f 11 04 24	 movss	 DWORD PTR [esp], xmm0
  002ff	68 00 00 00 00	 push	 OFFSET ??_C@_0BF@HKELDACH@3ddata?2horizon?2lr9pm@
  00304	a1 00 00 00 00	 mov	 eax, DWORD PTR ?main_3d_env@@3PAUENV_3D@@A ; main_3d_env
  00309	50		 push	 eax
  0030a	e8 00 00 00 00	 call	 ?add_3d_horizon_image@@YGXPAUENV_3D@@PBDMW4WEATHERMODES@@@Z ; add_3d_horizon_image

; 196  : 		add_3d_horizon_image ( main_3d_env, "3ddata\\horizon\\lr12am",		MIDNIGHT_TIME,			WEATHERMODE_LIGHT_RAIN );

  0030f	6a 02		 push	 2
  00311	51		 push	 ecx
  00312	0f 57 c0	 xorps	 xmm0, xmm0
  00315	f3 0f 11 04 24	 movss	 DWORD PTR [esp], xmm0
  0031a	68 00 00 00 00	 push	 OFFSET ??_C@_0BG@HNFEMJKC@3ddata?2horizon?2lr12am@
  0031f	a1 00 00 00 00	 mov	 eax, DWORD PTR ?main_3d_env@@3PAUENV_3D@@A ; main_3d_env
  00324	50		 push	 eax
  00325	e8 00 00 00 00	 call	 ?add_3d_horizon_image@@YGXPAUENV_3D@@PBDMW4WEATHERMODES@@@Z ; add_3d_horizon_image

; 197  : 		add_3d_horizon_image ( main_3d_env, "3ddata\\horizon\\lr12am",		NIGHT_TIME,				WEATHERMODE_LIGHT_RAIN );

  0032a	6a 02		 push	 2
  0032c	51		 push	 ecx
  0032d	f3 0f 10 05 00
	00 00 00	 movss	 xmm0, DWORD PTR __real@467d2000
  00335	f3 0f 11 04 24	 movss	 DWORD PTR [esp], xmm0
  0033a	68 00 00 00 00	 push	 OFFSET ??_C@_0BG@HNFEMJKC@3ddata?2horizon?2lr12am@
  0033f	a1 00 00 00 00	 mov	 eax, DWORD PTR ?main_3d_env@@3PAUENV_3D@@A ; main_3d_env
  00344	50		 push	 eax
  00345	e8 00 00 00 00	 call	 ?add_3d_horizon_image@@YGXPAUENV_3D@@PBDMW4WEATHERMODES@@@Z ; add_3d_horizon_image

; 198  : 
; 199  : 		//
; 200  : 		// heavy rain weather mode images
; 201  : 		//
; 202  : 
; 203  : 		add_3d_horizon_image ( main_3d_env, "3ddata\\horizon\\hr6am",		SUN_RISE_START_TIME,	WEATHERMODE_HEAVY_RAIN );

  0034a	6a 03		 push	 3
  0034c	51		 push	 ecx
  0034d	f3 0f 10 05 00
	00 00 00	 movss	 xmm0, DWORD PTR __real@46a8c000
  00355	f3 0f 11 04 24	 movss	 DWORD PTR [esp], xmm0
  0035a	68 00 00 00 00	 push	 OFFSET ??_C@_0BF@KEFNKLCA@3ddata?2horizon?2hr6am@
  0035f	a1 00 00 00 00	 mov	 eax, DWORD PTR ?main_3d_env@@3PAUENV_3D@@A ; main_3d_env
  00364	50		 push	 eax
  00365	e8 00 00 00 00	 call	 ?add_3d_horizon_image@@YGXPAUENV_3D@@PBDMW4WEATHERMODES@@@Z ; add_3d_horizon_image

; 204  : 		add_3d_horizon_image ( main_3d_env, "3ddata\\horizon\\hr9am",		SUN_RISE_END_TIME,	WEATHERMODE_HEAVY_RAIN );

  0036a	6a 03		 push	 3
  0036c	51		 push	 ecx
  0036d	f3 0f 10 05 00
	00 00 00	 movss	 xmm0, DWORD PTR __real@46fd2000
  00375	f3 0f 11 04 24	 movss	 DWORD PTR [esp], xmm0
  0037a	68 00 00 00 00	 push	 OFFSET ??_C@_0BF@PMDOLLHG@3ddata?2horizon?2hr9am@
  0037f	a1 00 00 00 00	 mov	 eax, DWORD PTR ?main_3d_env@@3PAUENV_3D@@A ; main_3d_env
  00384	50		 push	 eax
  00385	e8 00 00 00 00	 call	 ?add_3d_horizon_image@@YGXPAUENV_3D@@PBDMW4WEATHERMODES@@@Z ; add_3d_horizon_image

; 205  : 		add_3d_horizon_image ( main_3d_env, "3ddata\\horizon\\hr12pm",		MIDDAY_TIME,			WEATHERMODE_HEAVY_RAIN );

  0038a	6a 03		 push	 3
  0038c	51		 push	 ecx
  0038d	f3 0f 10 05 00
	00 00 00	 movss	 xmm0, DWORD PTR __real@4728c000
  00395	f3 0f 11 04 24	 movss	 DWORD PTR [esp], xmm0
  0039a	68 00 00 00 00	 push	 OFFSET ??_C@_0BG@JEPPCEPG@3ddata?2horizon?2hr12pm@
  0039f	a1 00 00 00 00	 mov	 eax, DWORD PTR ?main_3d_env@@3PAUENV_3D@@A ; main_3d_env
  003a4	50		 push	 eax
  003a5	e8 00 00 00 00	 call	 ?add_3d_horizon_image@@YGXPAUENV_3D@@PBDMW4WEATHERMODES@@@Z ; add_3d_horizon_image

; 206  : 		add_3d_horizon_image ( main_3d_env, "3ddata\\horizon\\hr3pm",		SUN_SET_START_TIME,	WEATHERMODE_HEAVY_RAIN );

  003aa	6a 03		 push	 3
  003ac	51		 push	 ecx
  003ad	f3 0f 10 05 00
	00 00 00	 movss	 xmm0, DWORD PTR __real@476f1000
  003b5	f3 0f 11 04 24	 movss	 DWORD PTR [esp], xmm0
  003ba	68 00 00 00 00	 push	 OFFSET ??_C@_0BF@IOGHJCFF@3ddata?2horizon?2hr3pm@
  003bf	a1 00 00 00 00	 mov	 eax, DWORD PTR ?main_3d_env@@3PAUENV_3D@@A ; main_3d_env
  003c4	50		 push	 eax
  003c5	e8 00 00 00 00	 call	 ?add_3d_horizon_image@@YGXPAUENV_3D@@PBDMW4WEATHERMODES@@@Z ; add_3d_horizon_image

; 207  : 		add_3d_horizon_image ( main_3d_env, "3ddata\\horizon\\hr6pm",		SUN_SET_END_TIME,		WEATHERMODE_HEAVY_RAIN );

  003ca	6a 03		 push	 3
  003cc	51		 push	 ecx
  003cd	f3 0f 10 05 00
	00 00 00	 movss	 xmm0, DWORD PTR __real@47891c00
  003d5	f3 0f 11 04 24	 movss	 DWORD PTR [esp], xmm0
  003da	68 00 00 00 00	 push	 OFFSET ??_C@_0BF@LJLJGCGH@3ddata?2horizon?2hr6pm@
  003df	a1 00 00 00 00	 mov	 eax, DWORD PTR ?main_3d_env@@3PAUENV_3D@@A ; main_3d_env
  003e4	50		 push	 eax
  003e5	e8 00 00 00 00	 call	 ?add_3d_horizon_image@@YGXPAUENV_3D@@PBDMW4WEATHERMODES@@@Z ; add_3d_horizon_image

; 208  : 		add_3d_horizon_image ( main_3d_env, "3ddata\\horizon\\hr9pm",		TWILIGHT_TIME,			WEATHERMODE_HEAVY_RAIN );

  003ea	6a 03		 push	 3
  003ec	51		 push	 ecx
  003ed	f3 0f 10 05 00
	00 00 00	 movss	 xmm0, DWORD PTR __real@479ab000
  003f5	f3 0f 11 04 24	 movss	 DWORD PTR [esp], xmm0
  003fa	68 00 00 00 00	 push	 OFFSET ??_C@_0BF@OBNKHCDB@3ddata?2horizon?2hr9pm@
  003ff	a1 00 00 00 00	 mov	 eax, DWORD PTR ?main_3d_env@@3PAUENV_3D@@A ; main_3d_env
  00404	50		 push	 eax
  00405	e8 00 00 00 00	 call	 ?add_3d_horizon_image@@YGXPAUENV_3D@@PBDMW4WEATHERMODES@@@Z ; add_3d_horizon_image

; 209  : 		add_3d_horizon_image ( main_3d_env, "3ddata\\horizon\\hr12am",		MIDNIGHT_TIME,			WEATHERMODE_HEAVY_RAIN );

  0040a	6a 03		 push	 3
  0040c	51		 push	 ecx
  0040d	0f 57 c0	 xorps	 xmm0, xmm0
  00410	f3 0f 11 04 24	 movss	 DWORD PTR [esp], xmm0
  00415	68 00 00 00 00	 push	 OFFSET ??_C@_0BG@IJBLONLB@3ddata?2horizon?2hr12am@
  0041a	a1 00 00 00 00	 mov	 eax, DWORD PTR ?main_3d_env@@3PAUENV_3D@@A ; main_3d_env
  0041f	50		 push	 eax
  00420	e8 00 00 00 00	 call	 ?add_3d_horizon_image@@YGXPAUENV_3D@@PBDMW4WEATHERMODES@@@Z ; add_3d_horizon_image

; 210  : 		add_3d_horizon_image ( main_3d_env, "3ddata\\horizon\\hr12am",		NIGHT_TIME,				WEATHERMODE_HEAVY_RAIN );

  00425	6a 03		 push	 3
  00427	51		 push	 ecx
  00428	f3 0f 10 05 00
	00 00 00	 movss	 xmm0, DWORD PTR __real@467d2000
  00430	f3 0f 11 04 24	 movss	 DWORD PTR [esp], xmm0
  00435	68 00 00 00 00	 push	 OFFSET ??_C@_0BG@IJBLONLB@3ddata?2horizon?2hr12am@
  0043a	a1 00 00 00 00	 mov	 eax, DWORD PTR ?main_3d_env@@3PAUENV_3D@@A ; main_3d_env
  0043f	50		 push	 eax
  00440	e8 00 00 00 00	 call	 ?add_3d_horizon_image@@YGXPAUENV_3D@@PBDMW4WEATHERMODES@@@Z ; add_3d_horizon_image

; 211  : 
; 212  : 		//
; 213  : 		// snow weather mode images
; 214  : 		//
; 215  : 
; 216  : 		add_3d_horizon_image ( main_3d_env, "3ddata\\horizon\\snow6am",	SUN_RISE_START_TIME,	WEATHERMODE_SNOW );

  00445	6a 04		 push	 4
  00447	51		 push	 ecx
  00448	f3 0f 10 05 00
	00 00 00	 movss	 xmm0, DWORD PTR __real@46a8c000
  00450	f3 0f 11 04 24	 movss	 DWORD PTR [esp], xmm0
  00455	68 00 00 00 00	 push	 OFFSET ??_C@_0BH@BEEECGBL@3ddata?2horizon?2snow6am@
  0045a	a1 00 00 00 00	 mov	 eax, DWORD PTR ?main_3d_env@@3PAUENV_3D@@A ; main_3d_env
  0045f	50		 push	 eax
  00460	e8 00 00 00 00	 call	 ?add_3d_horizon_image@@YGXPAUENV_3D@@PBDMW4WEATHERMODES@@@Z ; add_3d_horizon_image

; 217  : 		add_3d_horizon_image ( main_3d_env, "3ddata\\horizon\\snow9am",	SUN_RISE_END_TIME,	WEATHERMODE_SNOW );

  00465	6a 04		 push	 4
  00467	51		 push	 ecx
  00468	f3 0f 10 05 00
	00 00 00	 movss	 xmm0, DWORD PTR __real@46fd2000
  00470	f3 0f 11 04 24	 movss	 DWORD PTR [esp], xmm0
  00475	68 00 00 00 00	 push	 OFFSET ??_C@_0BH@EMCHDGEN@3ddata?2horizon?2snow9am@
  0047a	a1 00 00 00 00	 mov	 eax, DWORD PTR ?main_3d_env@@3PAUENV_3D@@A ; main_3d_env
  0047f	50		 push	 eax
  00480	e8 00 00 00 00	 call	 ?add_3d_horizon_image@@YGXPAUENV_3D@@PBDMW4WEATHERMODES@@@Z ; add_3d_horizon_image

; 218  : 		add_3d_horizon_image ( main_3d_env, "3ddata\\horizon\\snow12pm",	MIDDAY_TIME,			WEATHERMODE_SNOW );

  00485	6a 04		 push	 4
  00487	51		 push	 ecx
  00488	f3 0f 10 05 00
	00 00 00	 movss	 xmm0, DWORD PTR __real@4728c000
  00490	f3 0f 11 04 24	 movss	 DWORD PTR [esp], xmm0
  00495	68 00 00 00 00	 push	 OFFSET ??_C@_0BI@CFEENEFP@3ddata?2horizon?2snow12pm@
  0049a	a1 00 00 00 00	 mov	 eax, DWORD PTR ?main_3d_env@@3PAUENV_3D@@A ; main_3d_env
  0049f	50		 push	 eax
  004a0	e8 00 00 00 00	 call	 ?add_3d_horizon_image@@YGXPAUENV_3D@@PBDMW4WEATHERMODES@@@Z ; add_3d_horizon_image

; 219  : 		add_3d_horizon_image ( main_3d_env, "3ddata\\horizon\\snow3pm",	SUN_SET_START_TIME,	WEATHERMODE_SNOW );

  004a5	6a 04		 push	 4
  004a7	51		 push	 ecx
  004a8	f3 0f 10 05 00
	00 00 00	 movss	 xmm0, DWORD PTR __real@476f1000
  004b0	f3 0f 11 04 24	 movss	 DWORD PTR [esp], xmm0
  004b5	68 00 00 00 00	 push	 OFFSET ??_C@_0BH@DOHOBPGO@3ddata?2horizon?2snow3pm@
  004ba	a1 00 00 00 00	 mov	 eax, DWORD PTR ?main_3d_env@@3PAUENV_3D@@A ; main_3d_env
  004bf	50		 push	 eax
  004c0	e8 00 00 00 00	 call	 ?add_3d_horizon_image@@YGXPAUENV_3D@@PBDMW4WEATHERMODES@@@Z ; add_3d_horizon_image

; 220  : 		add_3d_horizon_image ( main_3d_env, "3ddata\\horizon\\snow6pm",	SUN_SET_END_TIME,		WEATHERMODE_SNOW );

  004c5	6a 04		 push	 4
  004c7	51		 push	 ecx
  004c8	f3 0f 10 05 00
	00 00 00	 movss	 xmm0, DWORD PTR __real@47891c00
  004d0	f3 0f 11 04 24	 movss	 DWORD PTR [esp], xmm0
  004d5	68 00 00 00 00	 push	 OFFSET ??_C@_0BH@JKAOPFM@3ddata?2horizon?2snow6pm@
  004da	a1 00 00 00 00	 mov	 eax, DWORD PTR ?main_3d_env@@3PAUENV_3D@@A ; main_3d_env
  004df	50		 push	 eax
  004e0	e8 00 00 00 00	 call	 ?add_3d_horizon_image@@YGXPAUENV_3D@@PBDMW4WEATHERMODES@@@Z ; add_3d_horizon_image

; 221  : 		add_3d_horizon_image ( main_3d_env, "3ddata\\horizon\\snow9pm",	TWILIGHT_TIME,			WEATHERMODE_SNOW );

  004e5	6a 04		 push	 4
  004e7	51		 push	 ecx
  004e8	f3 0f 10 05 00
	00 00 00	 movss	 xmm0, DWORD PTR __real@479ab000
  004f0	f3 0f 11 04 24	 movss	 DWORD PTR [esp], xmm0
  004f5	68 00 00 00 00	 push	 OFFSET ??_C@_0BH@FBMDPPAK@3ddata?2horizon?2snow9pm@
  004fa	a1 00 00 00 00	 mov	 eax, DWORD PTR ?main_3d_env@@3PAUENV_3D@@A ; main_3d_env
  004ff	50		 push	 eax
  00500	e8 00 00 00 00	 call	 ?add_3d_horizon_image@@YGXPAUENV_3D@@PBDMW4WEATHERMODES@@@Z ; add_3d_horizon_image

; 222  : 		add_3d_horizon_image ( main_3d_env, "3ddata\\horizon\\snow12am",	MIDNIGHT_TIME,			WEATHERMODE_SNOW );

  00505	6a 04		 push	 4
  00507	51		 push	 ecx
  00508	0f 57 c0	 xorps	 xmm0, xmm0
  0050b	f3 0f 11 04 24	 movss	 DWORD PTR [esp], xmm0
  00510	68 00 00 00 00	 push	 OFFSET ??_C@_0BI@DIKABNBI@3ddata?2horizon?2snow12am@
  00515	a1 00 00 00 00	 mov	 eax, DWORD PTR ?main_3d_env@@3PAUENV_3D@@A ; main_3d_env
  0051a	50		 push	 eax
  0051b	e8 00 00 00 00	 call	 ?add_3d_horizon_image@@YGXPAUENV_3D@@PBDMW4WEATHERMODES@@@Z ; add_3d_horizon_image

; 223  : 		add_3d_horizon_image ( main_3d_env, "3ddata\\horizon\\snow12am",	NIGHT_TIME,				WEATHERMODE_SNOW );

  00520	6a 04		 push	 4
  00522	51		 push	 ecx
  00523	f3 0f 10 05 00
	00 00 00	 movss	 xmm0, DWORD PTR __real@467d2000
  0052b	f3 0f 11 04 24	 movss	 DWORD PTR [esp], xmm0
  00530	68 00 00 00 00	 push	 OFFSET ??_C@_0BI@DIKABNBI@3ddata?2horizon?2snow12am@
  00535	a1 00 00 00 00	 mov	 eax, DWORD PTR ?main_3d_env@@3PAUENV_3D@@A ; main_3d_env
  0053a	50		 push	 eax
  0053b	e8 00 00 00 00	 call	 ?add_3d_horizon_image@@YGXPAUENV_3D@@PBDMW4WEATHERMODES@@@Z ; add_3d_horizon_image

; 224  : 	}
; 225  : 
; 226  : 	//
; 227  : 	// Initialise sun / moon / stars
; 228  : 	//
; 229  : 
; 230  : 	initialise_3d_sun ( TEXTURE_INDEX_SUN, TEXTURE_INDEX_SUN_COLOUR_FLARE );

  00540	68 b3 06 00 00	 push	 1715			; 000006b3H
  00545	68 b2 06 00 00	 push	 1714			; 000006b2H
  0054a	e8 00 00 00 00	 call	 ?initialise_3d_sun@@YGXHH@Z ; initialise_3d_sun

; 231  : 
; 232  : 	initialise_3d_moon ( TEXTURE_INDEX_MOON );

  0054f	68 9e 06 00 00	 push	 1694			; 0000069eH
  00554	e8 00 00 00 00	 call	 ?initialise_3d_moon@@YGXH@Z ; initialise_3d_moon

; 233  : 
; 234  : 	initialise_3d_stars ( "3ddata\\stars.bin" );

  00559	68 00 00 00 00	 push	 OFFSET ??_C@_0BB@NKBBKCGJ@3ddata?2stars?4bin@
  0055e	e8 00 00 00 00	 call	 ?initialise_3d_stars@@YGXPBD@Z ; initialise_3d_stars

; 235  : 
; 236  : 	//
; 237  : 	// Initialise the clouds
; 238  : 	//
; 239  : 
; 240  : 	initialise_3d_clouds ();

  00563	e8 00 00 00 00	 call	 ?initialise_3d_clouds@@YGXXZ ; initialise_3d_clouds

; 241  : 
; 242  : 	add_3d_cloud_texture ( TEXTURE_INDEX_CLOUDDRY, WEATHERMODE_DRY );

  00568	6a 01		 push	 1
  0056a	68 78 07 00 00	 push	 1912			; 00000778H
  0056f	e8 00 00 00 00	 call	 ?add_3d_cloud_texture@@YGXHW4WEATHERMODES@@@Z ; add_3d_cloud_texture

; 243  : 
; 244  : 	add_3d_cloud_texture ( TEXTURE_INDEX_CLOUDLR, WEATHERMODE_LIGHT_RAIN );

  00574	6a 02		 push	 2
  00576	68 7a 07 00 00	 push	 1914			; 0000077aH
  0057b	e8 00 00 00 00	 call	 ?add_3d_cloud_texture@@YGXHW4WEATHERMODES@@@Z ; add_3d_cloud_texture

; 245  : 
; 246  : 	add_3d_cloud_texture ( TEXTURE_INDEX_CLOUDHR, WEATHERMODE_HEAVY_RAIN );

  00580	6a 03		 push	 3
  00582	68 79 07 00 00	 push	 1913			; 00000779H
  00587	e8 00 00 00 00	 call	 ?add_3d_cloud_texture@@YGXHW4WEATHERMODES@@@Z ; add_3d_cloud_texture

; 247  : 
; 248  : 	add_3d_cloud_texture ( TEXTURE_INDEX_CLOUDSNOW, WEATHERMODE_SNOW );

  0058c	6a 04		 push	 4
  0058e	68 7b 07 00 00	 push	 1915			; 0000077bH
  00593	e8 00 00 00 00	 call	 ?add_3d_cloud_texture@@YGXHW4WEATHERMODES@@@Z ; add_3d_cloud_texture

; 249  : 
; 250  : 	set_cloud_3d_base_height ( 6000 );

  00598	51		 push	 ecx
  00599	f3 0f 10 05 00
	00 00 00	 movss	 xmm0, DWORD PTR __real@45bb8000
  005a1	f3 0f 11 04 24	 movss	 DWORD PTR [esp], xmm0
  005a6	e8 00 00 00 00	 call	 ?set_cloud_3d_base_height@@YGXM@Z ; set_cloud_3d_base_height

; 251  : 
; 252  : 	set_cloud_3d_scan_radius ( 7 );

  005ab	6a 07		 push	 7
  005ad	e8 00 00 00 00	 call	 ?set_cloud_3d_scan_radius@@YGXH@Z ; set_cloud_3d_scan_radius

; 253  : 
; 254  : 	//
; 255  : 	// Initialise the viewing system for the environment
; 256  : 	//
; 257  : 
; 258  : 	set_3d_viewport ( main_3d_env, full_screen_x_min, full_screen_y_min, full_screen_x_max, full_screen_y_max );

  005b2	51		 push	 ecx
  005b3	f3 0f 10 05 00
	00 00 00	 movss	 xmm0, DWORD PTR ?full_screen_y_max@@3MA
  005bb	f3 0f 11 04 24	 movss	 DWORD PTR [esp], xmm0
  005c0	51		 push	 ecx
  005c1	f3 0f 10 05 00
	00 00 00	 movss	 xmm0, DWORD PTR ?full_screen_x_max@@3MA
  005c9	f3 0f 11 04 24	 movss	 DWORD PTR [esp], xmm0
  005ce	51		 push	 ecx
  005cf	f3 0f 10 05 00
	00 00 00	 movss	 xmm0, DWORD PTR ?full_screen_y_min@@3MA
  005d7	f3 0f 11 04 24	 movss	 DWORD PTR [esp], xmm0
  005dc	51		 push	 ecx
  005dd	f3 0f 10 05 00
	00 00 00	 movss	 xmm0, DWORD PTR ?full_screen_x_min@@3MA
  005e5	f3 0f 11 04 24	 movss	 DWORD PTR [esp], xmm0
  005ea	a1 00 00 00 00	 mov	 eax, DWORD PTR ?main_3d_env@@3PAUENV_3D@@A ; main_3d_env
  005ef	50		 push	 eax
  005f0	e8 00 00 00 00	 call	 ?set_3d_viewport@@YGXPAUENV_3D@@MMMM@Z ; set_3d_viewport

; 259  : 
; 260  : 	set_3d_origin ( main_3d_env, full_screen_x_min + (full_screen_width / 2.0), full_screen_y_min + (full_screen_height / 2.0) );

  005f5	f3 0f 5a 05 00
	00 00 00	 cvtss2sd xmm0, DWORD PTR ?full_screen_y_min@@3MA
  005fd	f3 0f 5a 0d 00
	00 00 00	 cvtss2sd xmm1, DWORD PTR ?full_screen_height@@3MA
  00605	f2 0f 5e 0d 00
	00 00 00	 divsd	 xmm1, QWORD PTR __real@4000000000000000
  0060d	f2 0f 58 c1	 addsd	 xmm0, xmm1
  00611	f2 0f 5a c0	 cvtsd2ss xmm0, xmm0
  00615	51		 push	 ecx
  00616	f3 0f 11 04 24	 movss	 DWORD PTR [esp], xmm0
  0061b	f3 0f 5a 05 00
	00 00 00	 cvtss2sd xmm0, DWORD PTR ?full_screen_x_min@@3MA
  00623	f3 0f 5a 0d 00
	00 00 00	 cvtss2sd xmm1, DWORD PTR ?full_screen_width@@3MA
  0062b	f2 0f 5e 0d 00
	00 00 00	 divsd	 xmm1, QWORD PTR __real@4000000000000000
  00633	f2 0f 58 c1	 addsd	 xmm0, xmm1
  00637	f2 0f 5a c0	 cvtsd2ss xmm0, xmm0
  0063b	51		 push	 ecx
  0063c	f3 0f 11 04 24	 movss	 DWORD PTR [esp], xmm0
  00641	a1 00 00 00 00	 mov	 eax, DWORD PTR ?main_3d_env@@3PAUENV_3D@@A ; main_3d_env
  00646	50		 push	 eax
  00647	e8 00 00 00 00	 call	 ?set_3d_origin@@YGXPAUENV_3D@@MM@Z ; set_3d_origin

; 261  : 
; 262  : 	set_3d_viewcone ( main_3d_env, full_screen_width, full_screen_height, rad ( 59.99 ), rad ( 46.82 ) );

  0064c	51		 push	 ecx
  0064d	f3 0f 10 05 00
	00 00 00	 movss	 xmm0, DWORD PTR __real@3f51319b
  00655	f3 0f 11 04 24	 movss	 DWORD PTR [esp], xmm0
  0065a	51		 push	 ecx
  0065b	f3 0f 10 05 00
	00 00 00	 movss	 xmm0, DWORD PTR __real@3f8604da
  00663	f3 0f 11 04 24	 movss	 DWORD PTR [esp], xmm0
  00668	51		 push	 ecx
  00669	f3 0f 10 05 00
	00 00 00	 movss	 xmm0, DWORD PTR ?full_screen_height@@3MA
  00671	f3 0f 11 04 24	 movss	 DWORD PTR [esp], xmm0
  00676	51		 push	 ecx
  00677	f3 0f 10 05 00
	00 00 00	 movss	 xmm0, DWORD PTR ?full_screen_width@@3MA
  0067f	f3 0f 11 04 24	 movss	 DWORD PTR [esp], xmm0
  00684	a1 00 00 00 00	 mov	 eax, DWORD PTR ?main_3d_env@@3PAUENV_3D@@A ; main_3d_env
  00689	50		 push	 eax
  0068a	e8 00 00 00 00	 call	 ?set_3d_viewcone@@YGXPAUENV_3D@@MMMM@Z ; set_3d_viewcone

; 263  : 
; 264  : #if RECOGNITION_GUIDE
; 265  : 	set_3d_view_distances ( main_3d_env, 10000.0, 100.0, 1.0, 0.0 );
; 266  : #else
; 267  : 	set_3d_view_distances ( main_3d_env, 10000.0, 1.0, 1.0, 0.0 );

  0068f	51		 push	 ecx
  00690	0f 57 c0	 xorps	 xmm0, xmm0
  00693	f3 0f 11 04 24	 movss	 DWORD PTR [esp], xmm0
  00698	51		 push	 ecx
  00699	f3 0f 10 05 00
	00 00 00	 movss	 xmm0, DWORD PTR __real@3f800000
  006a1	f3 0f 11 04 24	 movss	 DWORD PTR [esp], xmm0
  006a6	51		 push	 ecx
  006a7	f3 0f 10 05 00
	00 00 00	 movss	 xmm0, DWORD PTR __real@3f800000
  006af	f3 0f 11 04 24	 movss	 DWORD PTR [esp], xmm0
  006b4	51		 push	 ecx
  006b5	f3 0f 10 05 00
	00 00 00	 movss	 xmm0, DWORD PTR __real@461c4000
  006bd	f3 0f 11 04 24	 movss	 DWORD PTR [esp], xmm0
  006c2	a1 00 00 00 00	 mov	 eax, DWORD PTR ?main_3d_env@@3PAUENV_3D@@A ; main_3d_env
  006c7	50		 push	 eax
  006c8	e8 00 00 00 00	 call	 ?set_3d_view_distances@@YGXPAUENV_3D@@MMMM@Z ; set_3d_view_distances

; 268  : #endif
; 269  : 
; 270  : 	//
; 271  : 	// Initialise the ambient lighting system for the environment
; 272  : 	//
; 273  : 
; 274  : 	{
; 275  : 
; 276  : 		rgb_colour
; 277  : 			ambient_colour[8];
; 278  : 
; 279  : 		set_rgb_colour ( ambient_colour[0], 50, 50, 63, 0 );

  006cd	b8 04 00 00 00	 mov	 eax, 4
  006d2	6b c8 00	 imul	 ecx, eax, 0
  006d5	c6 44 0d de 32	 mov	 BYTE PTR _ambient_colour$16[ebp+ecx+2], 50 ; 00000032H
  006da	b8 04 00 00 00	 mov	 eax, 4
  006df	6b c8 00	 imul	 ecx, eax, 0
  006e2	c6 44 0d dd 32	 mov	 BYTE PTR _ambient_colour$16[ebp+ecx+1], 50 ; 00000032H
  006e7	b8 04 00 00 00	 mov	 eax, 4
  006ec	6b c8 00	 imul	 ecx, eax, 0
  006ef	c6 44 0d dc 3f	 mov	 BYTE PTR _ambient_colour$16[ebp+ecx], 63 ; 0000003fH
  006f4	b8 04 00 00 00	 mov	 eax, 4
  006f9	6b c8 00	 imul	 ecx, eax, 0
  006fc	c6 44 0d df 00	 mov	 BYTE PTR _ambient_colour$16[ebp+ecx+3], 0

; 280  : 		set_rgb_colour ( ambient_colour[1], 90, 97, 118, 0 );

  00701	b8 04 00 00 00	 mov	 eax, 4
  00706	c1 e0 00	 shl	 eax, 0
  00709	c6 44 05 de 5a	 mov	 BYTE PTR _ambient_colour$16[ebp+eax+2], 90 ; 0000005aH
  0070e	b8 04 00 00 00	 mov	 eax, 4
  00713	c1 e0 00	 shl	 eax, 0
  00716	c6 44 05 dd 61	 mov	 BYTE PTR _ambient_colour$16[ebp+eax+1], 97 ; 00000061H
  0071b	b8 04 00 00 00	 mov	 eax, 4
  00720	c1 e0 00	 shl	 eax, 0
  00723	c6 44 05 dc 76	 mov	 BYTE PTR _ambient_colour$16[ebp+eax], 118 ; 00000076H
  00728	b8 04 00 00 00	 mov	 eax, 4
  0072d	c1 e0 00	 shl	 eax, 0
  00730	c6 44 05 df 00	 mov	 BYTE PTR _ambient_colour$16[ebp+eax+3], 0

; 281  : 		set_rgb_colour ( ambient_colour[2], 127, 127, 127, 0 );

  00735	b8 04 00 00 00	 mov	 eax, 4
  0073a	d1 e0		 shl	 eax, 1
  0073c	c6 44 05 de 7f	 mov	 BYTE PTR _ambient_colour$16[ebp+eax+2], 127 ; 0000007fH
  00741	b8 04 00 00 00	 mov	 eax, 4
  00746	d1 e0		 shl	 eax, 1
  00748	c6 44 05 dd 7f	 mov	 BYTE PTR _ambient_colour$16[ebp+eax+1], 127 ; 0000007fH
  0074d	b8 04 00 00 00	 mov	 eax, 4
  00752	d1 e0		 shl	 eax, 1
  00754	c6 44 05 dc 7f	 mov	 BYTE PTR _ambient_colour$16[ebp+eax], 127 ; 0000007fH
  00759	b8 04 00 00 00	 mov	 eax, 4
  0075e	d1 e0		 shl	 eax, 1
  00760	c6 44 05 df 00	 mov	 BYTE PTR _ambient_colour$16[ebp+eax+3], 0

; 282  : 		set_rgb_colour ( ambient_colour[3], 85, 100, 110, 0 );

  00765	b8 04 00 00 00	 mov	 eax, 4
  0076a	6b c8 03	 imul	 ecx, eax, 3
  0076d	c6 44 0d de 55	 mov	 BYTE PTR _ambient_colour$16[ebp+ecx+2], 85 ; 00000055H
  00772	b8 04 00 00 00	 mov	 eax, 4
  00777	6b c8 03	 imul	 ecx, eax, 3
  0077a	c6 44 0d dd 64	 mov	 BYTE PTR _ambient_colour$16[ebp+ecx+1], 100 ; 00000064H
  0077f	b8 04 00 00 00	 mov	 eax, 4
  00784	6b c8 03	 imul	 ecx, eax, 3
  00787	c6 44 0d dc 6e	 mov	 BYTE PTR _ambient_colour$16[ebp+ecx], 110 ; 0000006eH
  0078c	b8 04 00 00 00	 mov	 eax, 4
  00791	6b c8 03	 imul	 ecx, eax, 3
  00794	c6 44 0d df 00	 mov	 BYTE PTR _ambient_colour$16[ebp+ecx+3], 0

; 283  : 		set_rgb_colour ( ambient_colour[4], 100, 40, 20, 0 );

  00799	b8 04 00 00 00	 mov	 eax, 4
  0079e	c1 e0 02	 shl	 eax, 2
  007a1	c6 44 05 de 64	 mov	 BYTE PTR _ambient_colour$16[ebp+eax+2], 100 ; 00000064H
  007a6	b8 04 00 00 00	 mov	 eax, 4
  007ab	c1 e0 02	 shl	 eax, 2
  007ae	c6 44 05 dd 28	 mov	 BYTE PTR _ambient_colour$16[ebp+eax+1], 40 ; 00000028H
  007b3	b8 04 00 00 00	 mov	 eax, 4
  007b8	c1 e0 02	 shl	 eax, 2
  007bb	c6 44 05 dc 14	 mov	 BYTE PTR _ambient_colour$16[ebp+eax], 20 ; 00000014H
  007c0	b8 04 00 00 00	 mov	 eax, 4
  007c5	c1 e0 02	 shl	 eax, 2
  007c8	c6 44 05 df 00	 mov	 BYTE PTR _ambient_colour$16[ebp+eax+3], 0

; 284  : 		set_rgb_colour ( ambient_colour[5], 9, 34, 50, 0 );

  007cd	b8 04 00 00 00	 mov	 eax, 4
  007d2	6b c8 05	 imul	 ecx, eax, 5
  007d5	c6 44 0d de 09	 mov	 BYTE PTR _ambient_colour$16[ebp+ecx+2], 9
  007da	b8 04 00 00 00	 mov	 eax, 4
  007df	6b c8 05	 imul	 ecx, eax, 5
  007e2	c6 44 0d dd 22	 mov	 BYTE PTR _ambient_colour$16[ebp+ecx+1], 34 ; 00000022H
  007e7	b8 04 00 00 00	 mov	 eax, 4
  007ec	6b c8 05	 imul	 ecx, eax, 5
  007ef	c6 44 0d dc 32	 mov	 BYTE PTR _ambient_colour$16[ebp+ecx], 50 ; 00000032H
  007f4	b8 04 00 00 00	 mov	 eax, 4
  007f9	6b c8 05	 imul	 ecx, eax, 5
  007fc	c6 44 0d df 00	 mov	 BYTE PTR _ambient_colour$16[ebp+ecx+3], 0

; 285  : 		set_rgb_colour ( ambient_colour[6], 51, 51, 61, 0 );

  00801	b8 04 00 00 00	 mov	 eax, 4
  00806	6b c8 06	 imul	 ecx, eax, 6
  00809	c6 44 0d de 33	 mov	 BYTE PTR _ambient_colour$16[ebp+ecx+2], 51 ; 00000033H
  0080e	b8 04 00 00 00	 mov	 eax, 4
  00813	6b c8 06	 imul	 ecx, eax, 6
  00816	c6 44 0d dd 33	 mov	 BYTE PTR _ambient_colour$16[ebp+ecx+1], 51 ; 00000033H
  0081b	b8 04 00 00 00	 mov	 eax, 4
  00820	6b c8 06	 imul	 ecx, eax, 6
  00823	c6 44 0d dc 3d	 mov	 BYTE PTR _ambient_colour$16[ebp+ecx], 61 ; 0000003dH
  00828	b8 04 00 00 00	 mov	 eax, 4
  0082d	6b c8 06	 imul	 ecx, eax, 6
  00830	c6 44 0d df 00	 mov	 BYTE PTR _ambient_colour$16[ebp+ecx+3], 0

; 286  : 		set_rgb_colour ( ambient_colour[7], 53, 53, 53, 0 );

  00835	b8 04 00 00 00	 mov	 eax, 4
  0083a	6b c8 07	 imul	 ecx, eax, 7
  0083d	c6 44 0d de 35	 mov	 BYTE PTR _ambient_colour$16[ebp+ecx+2], 53 ; 00000035H
  00842	b8 04 00 00 00	 mov	 eax, 4
  00847	6b c8 07	 imul	 ecx, eax, 7
  0084a	c6 44 0d dd 35	 mov	 BYTE PTR _ambient_colour$16[ebp+ecx+1], 53 ; 00000035H
  0084f	b8 04 00 00 00	 mov	 eax, 4
  00854	6b c8 07	 imul	 ecx, eax, 7
  00857	c6 44 0d dc 35	 mov	 BYTE PTR _ambient_colour$16[ebp+ecx], 53 ; 00000035H
  0085c	b8 04 00 00 00	 mov	 eax, 4
  00861	6b c8 07	 imul	 ecx, eax, 7
  00864	c6 44 0d df 00	 mov	 BYTE PTR _ambient_colour$16[ebp+ecx+3], 0

; 287  : 
; 288  : #if RECOGNITION_GUIDE
; 289  : 		set_rgb_colour ( ambient_colour[0], 224, 224, 224, 0 );
; 290  : 		set_rgb_colour ( ambient_colour[1], 224, 224, 224, 0 );
; 291  : 		set_rgb_colour ( ambient_colour[2], 224, 224, 224, 0 );
; 292  : 		set_rgb_colour ( ambient_colour[3], 224, 224, 224, 0 );
; 293  : 		set_rgb_colour ( ambient_colour[4], 224, 224, 224, 0 );
; 294  : 		set_rgb_colour ( ambient_colour[5], 224, 224, 224, 0 );
; 295  : 		set_rgb_colour ( ambient_colour[6], 224, 224, 224, 0 );
; 296  : 		set_rgb_colour ( ambient_colour[7], 224, 224, 224, 0 );
; 297  : #endif
; 298  :     //VJ060920 night light level mod
; 299  : 		add_3d_ambient_light_setting ( main_3d_env, WEATHERMODE_DRY, ambient_colour[0], 0.75, SUN_RISE_START_TIME );

  00869	51		 push	 ecx
  0086a	f3 0f 10 05 00
	00 00 00	 movss	 xmm0, DWORD PTR __real@46a8c000
  00872	f3 0f 11 04 24	 movss	 DWORD PTR [esp], xmm0
  00877	51		 push	 ecx
  00878	f3 0f 10 05 00
	00 00 00	 movss	 xmm0, DWORD PTR __real@3f400000
  00880	f3 0f 11 04 24	 movss	 DWORD PTR [esp], xmm0
  00885	b8 04 00 00 00	 mov	 eax, 4
  0088a	6b c8 00	 imul	 ecx, eax, 0
  0088d	8b 54 0d dc	 mov	 edx, DWORD PTR _ambient_colour$16[ebp+ecx]
  00891	52		 push	 edx
  00892	6a 01		 push	 1
  00894	a1 00 00 00 00	 mov	 eax, DWORD PTR ?main_3d_env@@3PAUENV_3D@@A ; main_3d_env
  00899	50		 push	 eax
  0089a	e8 00 00 00 00	 call	 ?add_3d_ambient_light_setting@@YGXPAUENV_3D@@W4WEATHERMODES@@UREAL_COLOUR@@MM@Z ; add_3d_ambient_light_setting

; 300  : 		add_3d_ambient_light_setting ( main_3d_env, WEATHERMODE_DRY, ambient_colour[1], 0.75, SUN_RISE_END_TIME );

  0089f	51		 push	 ecx
  008a0	f3 0f 10 05 00
	00 00 00	 movss	 xmm0, DWORD PTR __real@46fd2000
  008a8	f3 0f 11 04 24	 movss	 DWORD PTR [esp], xmm0
  008ad	51		 push	 ecx
  008ae	f3 0f 10 05 00
	00 00 00	 movss	 xmm0, DWORD PTR __real@3f400000
  008b6	f3 0f 11 04 24	 movss	 DWORD PTR [esp], xmm0
  008bb	b8 04 00 00 00	 mov	 eax, 4
  008c0	c1 e0 00	 shl	 eax, 0
  008c3	8b 4c 05 dc	 mov	 ecx, DWORD PTR _ambient_colour$16[ebp+eax]
  008c7	51		 push	 ecx
  008c8	6a 01		 push	 1
  008ca	8b 15 00 00 00
	00		 mov	 edx, DWORD PTR ?main_3d_env@@3PAUENV_3D@@A ; main_3d_env
  008d0	52		 push	 edx
  008d1	e8 00 00 00 00	 call	 ?add_3d_ambient_light_setting@@YGXPAUENV_3D@@W4WEATHERMODES@@UREAL_COLOUR@@MM@Z ; add_3d_ambient_light_setting

; 301  : 		add_3d_ambient_light_setting ( main_3d_env, WEATHERMODE_DRY, ambient_colour[2], 0.75, MIDDAY_TIME );

  008d6	51		 push	 ecx
  008d7	f3 0f 10 05 00
	00 00 00	 movss	 xmm0, DWORD PTR __real@4728c000
  008df	f3 0f 11 04 24	 movss	 DWORD PTR [esp], xmm0
  008e4	51		 push	 ecx
  008e5	f3 0f 10 05 00
	00 00 00	 movss	 xmm0, DWORD PTR __real@3f400000
  008ed	f3 0f 11 04 24	 movss	 DWORD PTR [esp], xmm0
  008f2	b8 04 00 00 00	 mov	 eax, 4
  008f7	d1 e0		 shl	 eax, 1
  008f9	8b 4c 05 dc	 mov	 ecx, DWORD PTR _ambient_colour$16[ebp+eax]
  008fd	51		 push	 ecx
  008fe	6a 01		 push	 1
  00900	8b 15 00 00 00
	00		 mov	 edx, DWORD PTR ?main_3d_env@@3PAUENV_3D@@A ; main_3d_env
  00906	52		 push	 edx
  00907	e8 00 00 00 00	 call	 ?add_3d_ambient_light_setting@@YGXPAUENV_3D@@W4WEATHERMODES@@UREAL_COLOUR@@MM@Z ; add_3d_ambient_light_setting

; 302  : 		add_3d_ambient_light_setting ( main_3d_env, WEATHERMODE_DRY, ambient_colour[3], 0.75, SUN_SET_START_TIME );

  0090c	51		 push	 ecx
  0090d	f3 0f 10 05 00
	00 00 00	 movss	 xmm0, DWORD PTR __real@476f1000
  00915	f3 0f 11 04 24	 movss	 DWORD PTR [esp], xmm0
  0091a	51		 push	 ecx
  0091b	f3 0f 10 05 00
	00 00 00	 movss	 xmm0, DWORD PTR __real@3f400000
  00923	f3 0f 11 04 24	 movss	 DWORD PTR [esp], xmm0
  00928	b8 04 00 00 00	 mov	 eax, 4
  0092d	6b c8 03	 imul	 ecx, eax, 3
  00930	8b 54 0d dc	 mov	 edx, DWORD PTR _ambient_colour$16[ebp+ecx]
  00934	52		 push	 edx
  00935	6a 01		 push	 1
  00937	a1 00 00 00 00	 mov	 eax, DWORD PTR ?main_3d_env@@3PAUENV_3D@@A ; main_3d_env
  0093c	50		 push	 eax
  0093d	e8 00 00 00 00	 call	 ?add_3d_ambient_light_setting@@YGXPAUENV_3D@@W4WEATHERMODES@@UREAL_COLOUR@@MM@Z ; add_3d_ambient_light_setting

; 303  : 		add_3d_ambient_light_setting ( main_3d_env, WEATHERMODE_DRY, ambient_colour[4], 0.75, SUN_SET_END_TIME );

  00942	51		 push	 ecx
  00943	f3 0f 10 05 00
	00 00 00	 movss	 xmm0, DWORD PTR __real@47891c00
  0094b	f3 0f 11 04 24	 movss	 DWORD PTR [esp], xmm0
  00950	51		 push	 ecx
  00951	f3 0f 10 05 00
	00 00 00	 movss	 xmm0, DWORD PTR __real@3f400000
  00959	f3 0f 11 04 24	 movss	 DWORD PTR [esp], xmm0
  0095e	b8 04 00 00 00	 mov	 eax, 4
  00963	c1 e0 02	 shl	 eax, 2
  00966	8b 4c 05 dc	 mov	 ecx, DWORD PTR _ambient_colour$16[ebp+eax]
  0096a	51		 push	 ecx
  0096b	6a 01		 push	 1
  0096d	8b 15 00 00 00
	00		 mov	 edx, DWORD PTR ?main_3d_env@@3PAUENV_3D@@A ; main_3d_env
  00973	52		 push	 edx
  00974	e8 00 00 00 00	 call	 ?add_3d_ambient_light_setting@@YGXPAUENV_3D@@W4WEATHERMODES@@UREAL_COLOUR@@MM@Z ; add_3d_ambient_light_setting

; 304  : 		add_3d_ambient_light_setting ( main_3d_env, WEATHERMODE_DRY, ambient_colour[5], 0.75, TWILIGHT_TIME );

  00979	51		 push	 ecx
  0097a	f3 0f 10 05 00
	00 00 00	 movss	 xmm0, DWORD PTR __real@479ab000
  00982	f3 0f 11 04 24	 movss	 DWORD PTR [esp], xmm0
  00987	51		 push	 ecx
  00988	f3 0f 10 05 00
	00 00 00	 movss	 xmm0, DWORD PTR __real@3f400000
  00990	f3 0f 11 04 24	 movss	 DWORD PTR [esp], xmm0
  00995	b8 04 00 00 00	 mov	 eax, 4
  0099a	6b c8 05	 imul	 ecx, eax, 5
  0099d	8b 54 0d dc	 mov	 edx, DWORD PTR _ambient_colour$16[ebp+ecx]
  009a1	52		 push	 edx
  009a2	6a 01		 push	 1
  009a4	a1 00 00 00 00	 mov	 eax, DWORD PTR ?main_3d_env@@3PAUENV_3D@@A ; main_3d_env
  009a9	50		 push	 eax
  009aa	e8 00 00 00 00	 call	 ?add_3d_ambient_light_setting@@YGXPAUENV_3D@@W4WEATHERMODES@@UREAL_COLOUR@@MM@Z ; add_3d_ambient_light_setting

; 305  : 		add_3d_ambient_light_setting ( main_3d_env, WEATHERMODE_DRY, ambient_colour[5], 0.75*light_level, MIDNIGHT_TIME );

  009af	51		 push	 ecx
  009b0	0f 57 c0	 xorps	 xmm0, xmm0
  009b3	f3 0f 11 04 24	 movss	 DWORD PTR [esp], xmm0
  009b8	f3 0f 5a 45 fc	 cvtss2sd xmm0, DWORD PTR _light_level$[ebp]
  009bd	f2 0f 59 05 00
	00 00 00	 mulsd	 xmm0, QWORD PTR __real@3fe8000000000000
  009c5	f2 0f 5a c0	 cvtsd2ss xmm0, xmm0
  009c9	51		 push	 ecx
  009ca	f3 0f 11 04 24	 movss	 DWORD PTR [esp], xmm0
  009cf	b8 04 00 00 00	 mov	 eax, 4
  009d4	6b c8 05	 imul	 ecx, eax, 5
  009d7	8b 54 0d dc	 mov	 edx, DWORD PTR _ambient_colour$16[ebp+ecx]
  009db	52		 push	 edx
  009dc	6a 01		 push	 1
  009de	a1 00 00 00 00	 mov	 eax, DWORD PTR ?main_3d_env@@3PAUENV_3D@@A ; main_3d_env
  009e3	50		 push	 eax
  009e4	e8 00 00 00 00	 call	 ?add_3d_ambient_light_setting@@YGXPAUENV_3D@@W4WEATHERMODES@@UREAL_COLOUR@@MM@Z ; add_3d_ambient_light_setting

; 306  : 		add_3d_ambient_light_setting ( main_3d_env, WEATHERMODE_DRY, ambient_colour[5], 0.75*light_level, NIGHT_TIME );

  009e9	51		 push	 ecx
  009ea	f3 0f 10 05 00
	00 00 00	 movss	 xmm0, DWORD PTR __real@467d2000
  009f2	f3 0f 11 04 24	 movss	 DWORD PTR [esp], xmm0
  009f7	f3 0f 5a 45 fc	 cvtss2sd xmm0, DWORD PTR _light_level$[ebp]
  009fc	f2 0f 59 05 00
	00 00 00	 mulsd	 xmm0, QWORD PTR __real@3fe8000000000000
  00a04	f2 0f 5a c0	 cvtsd2ss xmm0, xmm0
  00a08	51		 push	 ecx
  00a09	f3 0f 11 04 24	 movss	 DWORD PTR [esp], xmm0
  00a0e	b8 04 00 00 00	 mov	 eax, 4
  00a13	6b c8 05	 imul	 ecx, eax, 5
  00a16	8b 54 0d dc	 mov	 edx, DWORD PTR _ambient_colour$16[ebp+ecx]
  00a1a	52		 push	 edx
  00a1b	6a 01		 push	 1
  00a1d	a1 00 00 00 00	 mov	 eax, DWORD PTR ?main_3d_env@@3PAUENV_3D@@A ; main_3d_env
  00a22	50		 push	 eax
  00a23	e8 00 00 00 00	 call	 ?add_3d_ambient_light_setting@@YGXPAUENV_3D@@W4WEATHERMODES@@UREAL_COLOUR@@MM@Z ; add_3d_ambient_light_setting

; 307  : 
; 308  : 		add_3d_ambient_light_setting ( main_3d_env, WEATHERMODE_LIGHT_RAIN, ambient_colour[6], 0.675, SUN_RISE_START_TIME );

  00a28	51		 push	 ecx
  00a29	f3 0f 10 05 00
	00 00 00	 movss	 xmm0, DWORD PTR __real@46a8c000
  00a31	f3 0f 11 04 24	 movss	 DWORD PTR [esp], xmm0
  00a36	51		 push	 ecx
  00a37	f3 0f 10 05 00
	00 00 00	 movss	 xmm0, DWORD PTR __real@3f2ccccd
  00a3f	f3 0f 11 04 24	 movss	 DWORD PTR [esp], xmm0
  00a44	b8 04 00 00 00	 mov	 eax, 4
  00a49	6b c8 06	 imul	 ecx, eax, 6
  00a4c	8b 54 0d dc	 mov	 edx, DWORD PTR _ambient_colour$16[ebp+ecx]
  00a50	52		 push	 edx
  00a51	6a 02		 push	 2
  00a53	a1 00 00 00 00	 mov	 eax, DWORD PTR ?main_3d_env@@3PAUENV_3D@@A ; main_3d_env
  00a58	50		 push	 eax
  00a59	e8 00 00 00 00	 call	 ?add_3d_ambient_light_setting@@YGXPAUENV_3D@@W4WEATHERMODES@@UREAL_COLOUR@@MM@Z ; add_3d_ambient_light_setting

; 309  : 		add_3d_ambient_light_setting ( main_3d_env, WEATHERMODE_LIGHT_RAIN, ambient_colour[1], 0.675, SUN_RISE_END_TIME );

  00a5e	51		 push	 ecx
  00a5f	f3 0f 10 05 00
	00 00 00	 movss	 xmm0, DWORD PTR __real@46fd2000
  00a67	f3 0f 11 04 24	 movss	 DWORD PTR [esp], xmm0
  00a6c	51		 push	 ecx
  00a6d	f3 0f 10 05 00
	00 00 00	 movss	 xmm0, DWORD PTR __real@3f2ccccd
  00a75	f3 0f 11 04 24	 movss	 DWORD PTR [esp], xmm0
  00a7a	b8 04 00 00 00	 mov	 eax, 4
  00a7f	c1 e0 00	 shl	 eax, 0
  00a82	8b 4c 05 dc	 mov	 ecx, DWORD PTR _ambient_colour$16[ebp+eax]
  00a86	51		 push	 ecx
  00a87	6a 02		 push	 2
  00a89	8b 15 00 00 00
	00		 mov	 edx, DWORD PTR ?main_3d_env@@3PAUENV_3D@@A ; main_3d_env
  00a8f	52		 push	 edx
  00a90	e8 00 00 00 00	 call	 ?add_3d_ambient_light_setting@@YGXPAUENV_3D@@W4WEATHERMODES@@UREAL_COLOUR@@MM@Z ; add_3d_ambient_light_setting

; 310  : 		add_3d_ambient_light_setting ( main_3d_env, WEATHERMODE_LIGHT_RAIN, ambient_colour[2], 0.675, MIDDAY_TIME );

  00a95	51		 push	 ecx
  00a96	f3 0f 10 05 00
	00 00 00	 movss	 xmm0, DWORD PTR __real@4728c000
  00a9e	f3 0f 11 04 24	 movss	 DWORD PTR [esp], xmm0
  00aa3	51		 push	 ecx
  00aa4	f3 0f 10 05 00
	00 00 00	 movss	 xmm0, DWORD PTR __real@3f2ccccd
  00aac	f3 0f 11 04 24	 movss	 DWORD PTR [esp], xmm0
  00ab1	b8 04 00 00 00	 mov	 eax, 4
  00ab6	d1 e0		 shl	 eax, 1
  00ab8	8b 4c 05 dc	 mov	 ecx, DWORD PTR _ambient_colour$16[ebp+eax]
  00abc	51		 push	 ecx
  00abd	6a 02		 push	 2
  00abf	8b 15 00 00 00
	00		 mov	 edx, DWORD PTR ?main_3d_env@@3PAUENV_3D@@A ; main_3d_env
  00ac5	52		 push	 edx
  00ac6	e8 00 00 00 00	 call	 ?add_3d_ambient_light_setting@@YGXPAUENV_3D@@W4WEATHERMODES@@UREAL_COLOUR@@MM@Z ; add_3d_ambient_light_setting

; 311  : 		add_3d_ambient_light_setting ( main_3d_env, WEATHERMODE_LIGHT_RAIN, ambient_colour[3], 0.675, SUN_SET_START_TIME );

  00acb	51		 push	 ecx
  00acc	f3 0f 10 05 00
	00 00 00	 movss	 xmm0, DWORD PTR __real@476f1000
  00ad4	f3 0f 11 04 24	 movss	 DWORD PTR [esp], xmm0
  00ad9	51		 push	 ecx
  00ada	f3 0f 10 05 00
	00 00 00	 movss	 xmm0, DWORD PTR __real@3f2ccccd
  00ae2	f3 0f 11 04 24	 movss	 DWORD PTR [esp], xmm0
  00ae7	b8 04 00 00 00	 mov	 eax, 4
  00aec	6b c8 03	 imul	 ecx, eax, 3
  00aef	8b 54 0d dc	 mov	 edx, DWORD PTR _ambient_colour$16[ebp+ecx]
  00af3	52		 push	 edx
  00af4	6a 02		 push	 2
  00af6	a1 00 00 00 00	 mov	 eax, DWORD PTR ?main_3d_env@@3PAUENV_3D@@A ; main_3d_env
  00afb	50		 push	 eax
  00afc	e8 00 00 00 00	 call	 ?add_3d_ambient_light_setting@@YGXPAUENV_3D@@W4WEATHERMODES@@UREAL_COLOUR@@MM@Z ; add_3d_ambient_light_setting

; 312  : 		add_3d_ambient_light_setting ( main_3d_env, WEATHERMODE_LIGHT_RAIN, ambient_colour[7], 0.675, SUN_SET_END_TIME );

  00b01	51		 push	 ecx
  00b02	f3 0f 10 05 00
	00 00 00	 movss	 xmm0, DWORD PTR __real@47891c00
  00b0a	f3 0f 11 04 24	 movss	 DWORD PTR [esp], xmm0
  00b0f	51		 push	 ecx
  00b10	f3 0f 10 05 00
	00 00 00	 movss	 xmm0, DWORD PTR __real@3f2ccccd
  00b18	f3 0f 11 04 24	 movss	 DWORD PTR [esp], xmm0
  00b1d	b8 04 00 00 00	 mov	 eax, 4
  00b22	6b c8 07	 imul	 ecx, eax, 7
  00b25	8b 54 0d dc	 mov	 edx, DWORD PTR _ambient_colour$16[ebp+ecx]
  00b29	52		 push	 edx
  00b2a	6a 02		 push	 2
  00b2c	a1 00 00 00 00	 mov	 eax, DWORD PTR ?main_3d_env@@3PAUENV_3D@@A ; main_3d_env
  00b31	50		 push	 eax
  00b32	e8 00 00 00 00	 call	 ?add_3d_ambient_light_setting@@YGXPAUENV_3D@@W4WEATHERMODES@@UREAL_COLOUR@@MM@Z ; add_3d_ambient_light_setting

; 313  : 		add_3d_ambient_light_setting ( main_3d_env, WEATHERMODE_LIGHT_RAIN, ambient_colour[5], 0.675, TWILIGHT_TIME );

  00b37	51		 push	 ecx
  00b38	f3 0f 10 05 00
	00 00 00	 movss	 xmm0, DWORD PTR __real@479ab000
  00b40	f3 0f 11 04 24	 movss	 DWORD PTR [esp], xmm0
  00b45	51		 push	 ecx
  00b46	f3 0f 10 05 00
	00 00 00	 movss	 xmm0, DWORD PTR __real@3f2ccccd
  00b4e	f3 0f 11 04 24	 movss	 DWORD PTR [esp], xmm0
  00b53	b8 04 00 00 00	 mov	 eax, 4
  00b58	6b c8 05	 imul	 ecx, eax, 5
  00b5b	8b 54 0d dc	 mov	 edx, DWORD PTR _ambient_colour$16[ebp+ecx]
  00b5f	52		 push	 edx
  00b60	6a 02		 push	 2
  00b62	a1 00 00 00 00	 mov	 eax, DWORD PTR ?main_3d_env@@3PAUENV_3D@@A ; main_3d_env
  00b67	50		 push	 eax
  00b68	e8 00 00 00 00	 call	 ?add_3d_ambient_light_setting@@YGXPAUENV_3D@@W4WEATHERMODES@@UREAL_COLOUR@@MM@Z ; add_3d_ambient_light_setting

; 314  : 		add_3d_ambient_light_setting ( main_3d_env, WEATHERMODE_LIGHT_RAIN, ambient_colour[5], 0.675*light_level, MIDNIGHT_TIME );

  00b6d	51		 push	 ecx
  00b6e	0f 57 c0	 xorps	 xmm0, xmm0
  00b71	f3 0f 11 04 24	 movss	 DWORD PTR [esp], xmm0
  00b76	f3 0f 5a 45 fc	 cvtss2sd xmm0, DWORD PTR _light_level$[ebp]
  00b7b	f2 0f 59 05 00
	00 00 00	 mulsd	 xmm0, QWORD PTR __real@3fe599999999999a
  00b83	f2 0f 5a c0	 cvtsd2ss xmm0, xmm0
  00b87	51		 push	 ecx
  00b88	f3 0f 11 04 24	 movss	 DWORD PTR [esp], xmm0
  00b8d	b8 04 00 00 00	 mov	 eax, 4
  00b92	6b c8 05	 imul	 ecx, eax, 5
  00b95	8b 54 0d dc	 mov	 edx, DWORD PTR _ambient_colour$16[ebp+ecx]
  00b99	52		 push	 edx
  00b9a	6a 02		 push	 2
  00b9c	a1 00 00 00 00	 mov	 eax, DWORD PTR ?main_3d_env@@3PAUENV_3D@@A ; main_3d_env
  00ba1	50		 push	 eax
  00ba2	e8 00 00 00 00	 call	 ?add_3d_ambient_light_setting@@YGXPAUENV_3D@@W4WEATHERMODES@@UREAL_COLOUR@@MM@Z ; add_3d_ambient_light_setting

; 315  : 		add_3d_ambient_light_setting ( main_3d_env, WEATHERMODE_LIGHT_RAIN, ambient_colour[5], 0.675*light_level, NIGHT_TIME );

  00ba7	51		 push	 ecx
  00ba8	f3 0f 10 05 00
	00 00 00	 movss	 xmm0, DWORD PTR __real@467d2000
  00bb0	f3 0f 11 04 24	 movss	 DWORD PTR [esp], xmm0
  00bb5	f3 0f 5a 45 fc	 cvtss2sd xmm0, DWORD PTR _light_level$[ebp]
  00bba	f2 0f 59 05 00
	00 00 00	 mulsd	 xmm0, QWORD PTR __real@3fe599999999999a
  00bc2	f2 0f 5a c0	 cvtsd2ss xmm0, xmm0
  00bc6	51		 push	 ecx
  00bc7	f3 0f 11 04 24	 movss	 DWORD PTR [esp], xmm0
  00bcc	b8 04 00 00 00	 mov	 eax, 4
  00bd1	6b c8 05	 imul	 ecx, eax, 5
  00bd4	8b 54 0d dc	 mov	 edx, DWORD PTR _ambient_colour$16[ebp+ecx]
  00bd8	52		 push	 edx
  00bd9	6a 02		 push	 2
  00bdb	a1 00 00 00 00	 mov	 eax, DWORD PTR ?main_3d_env@@3PAUENV_3D@@A ; main_3d_env
  00be0	50		 push	 eax
  00be1	e8 00 00 00 00	 call	 ?add_3d_ambient_light_setting@@YGXPAUENV_3D@@W4WEATHERMODES@@UREAL_COLOUR@@MM@Z ; add_3d_ambient_light_setting

; 316  : 
; 317  : 		add_3d_ambient_light_setting ( main_3d_env, WEATHERMODE_HEAVY_RAIN, ambient_colour[6], 0.525, SUN_RISE_START_TIME );

  00be6	51		 push	 ecx
  00be7	f3 0f 10 05 00
	00 00 00	 movss	 xmm0, DWORD PTR __real@46a8c000
  00bef	f3 0f 11 04 24	 movss	 DWORD PTR [esp], xmm0
  00bf4	51		 push	 ecx
  00bf5	f3 0f 10 05 00
	00 00 00	 movss	 xmm0, DWORD PTR __real@3f066666
  00bfd	f3 0f 11 04 24	 movss	 DWORD PTR [esp], xmm0
  00c02	b8 04 00 00 00	 mov	 eax, 4
  00c07	6b c8 06	 imul	 ecx, eax, 6
  00c0a	8b 54 0d dc	 mov	 edx, DWORD PTR _ambient_colour$16[ebp+ecx]
  00c0e	52		 push	 edx
  00c0f	6a 03		 push	 3
  00c11	a1 00 00 00 00	 mov	 eax, DWORD PTR ?main_3d_env@@3PAUENV_3D@@A ; main_3d_env
  00c16	50		 push	 eax
  00c17	e8 00 00 00 00	 call	 ?add_3d_ambient_light_setting@@YGXPAUENV_3D@@W4WEATHERMODES@@UREAL_COLOUR@@MM@Z ; add_3d_ambient_light_setting

; 318  : 		add_3d_ambient_light_setting ( main_3d_env, WEATHERMODE_HEAVY_RAIN, ambient_colour[1], 0.525, SUN_RISE_END_TIME );

  00c1c	51		 push	 ecx
  00c1d	f3 0f 10 05 00
	00 00 00	 movss	 xmm0, DWORD PTR __real@46fd2000
  00c25	f3 0f 11 04 24	 movss	 DWORD PTR [esp], xmm0
  00c2a	51		 push	 ecx
  00c2b	f3 0f 10 05 00
	00 00 00	 movss	 xmm0, DWORD PTR __real@3f066666
  00c33	f3 0f 11 04 24	 movss	 DWORD PTR [esp], xmm0
  00c38	b8 04 00 00 00	 mov	 eax, 4
  00c3d	c1 e0 00	 shl	 eax, 0
  00c40	8b 4c 05 dc	 mov	 ecx, DWORD PTR _ambient_colour$16[ebp+eax]
  00c44	51		 push	 ecx
  00c45	6a 03		 push	 3
  00c47	8b 15 00 00 00
	00		 mov	 edx, DWORD PTR ?main_3d_env@@3PAUENV_3D@@A ; main_3d_env
  00c4d	52		 push	 edx
  00c4e	e8 00 00 00 00	 call	 ?add_3d_ambient_light_setting@@YGXPAUENV_3D@@W4WEATHERMODES@@UREAL_COLOUR@@MM@Z ; add_3d_ambient_light_setting

; 319  : 		add_3d_ambient_light_setting ( main_3d_env, WEATHERMODE_HEAVY_RAIN, ambient_colour[2], 0.525, MIDDAY_TIME );

  00c53	51		 push	 ecx
  00c54	f3 0f 10 05 00
	00 00 00	 movss	 xmm0, DWORD PTR __real@4728c000
  00c5c	f3 0f 11 04 24	 movss	 DWORD PTR [esp], xmm0
  00c61	51		 push	 ecx
  00c62	f3 0f 10 05 00
	00 00 00	 movss	 xmm0, DWORD PTR __real@3f066666
  00c6a	f3 0f 11 04 24	 movss	 DWORD PTR [esp], xmm0
  00c6f	b8 04 00 00 00	 mov	 eax, 4
  00c74	d1 e0		 shl	 eax, 1
  00c76	8b 4c 05 dc	 mov	 ecx, DWORD PTR _ambient_colour$16[ebp+eax]
  00c7a	51		 push	 ecx
  00c7b	6a 03		 push	 3
  00c7d	8b 15 00 00 00
	00		 mov	 edx, DWORD PTR ?main_3d_env@@3PAUENV_3D@@A ; main_3d_env
  00c83	52		 push	 edx
  00c84	e8 00 00 00 00	 call	 ?add_3d_ambient_light_setting@@YGXPAUENV_3D@@W4WEATHERMODES@@UREAL_COLOUR@@MM@Z ; add_3d_ambient_light_setting

; 320  : 		add_3d_ambient_light_setting ( main_3d_env, WEATHERMODE_HEAVY_RAIN, ambient_colour[3], 0.525, SUN_SET_START_TIME );

  00c89	51		 push	 ecx
  00c8a	f3 0f 10 05 00
	00 00 00	 movss	 xmm0, DWORD PTR __real@476f1000
  00c92	f3 0f 11 04 24	 movss	 DWORD PTR [esp], xmm0
  00c97	51		 push	 ecx
  00c98	f3 0f 10 05 00
	00 00 00	 movss	 xmm0, DWORD PTR __real@3f066666
  00ca0	f3 0f 11 04 24	 movss	 DWORD PTR [esp], xmm0
  00ca5	b8 04 00 00 00	 mov	 eax, 4
  00caa	6b c8 03	 imul	 ecx, eax, 3
  00cad	8b 54 0d dc	 mov	 edx, DWORD PTR _ambient_colour$16[ebp+ecx]
  00cb1	52		 push	 edx
  00cb2	6a 03		 push	 3
  00cb4	a1 00 00 00 00	 mov	 eax, DWORD PTR ?main_3d_env@@3PAUENV_3D@@A ; main_3d_env
  00cb9	50		 push	 eax
  00cba	e8 00 00 00 00	 call	 ?add_3d_ambient_light_setting@@YGXPAUENV_3D@@W4WEATHERMODES@@UREAL_COLOUR@@MM@Z ; add_3d_ambient_light_setting

; 321  : 		add_3d_ambient_light_setting ( main_3d_env, WEATHERMODE_HEAVY_RAIN, ambient_colour[7], 0.525, SUN_SET_END_TIME );

  00cbf	51		 push	 ecx
  00cc0	f3 0f 10 05 00
	00 00 00	 movss	 xmm0, DWORD PTR __real@47891c00
  00cc8	f3 0f 11 04 24	 movss	 DWORD PTR [esp], xmm0
  00ccd	51		 push	 ecx
  00cce	f3 0f 10 05 00
	00 00 00	 movss	 xmm0, DWORD PTR __real@3f066666
  00cd6	f3 0f 11 04 24	 movss	 DWORD PTR [esp], xmm0
  00cdb	b8 04 00 00 00	 mov	 eax, 4
  00ce0	6b c8 07	 imul	 ecx, eax, 7
  00ce3	8b 54 0d dc	 mov	 edx, DWORD PTR _ambient_colour$16[ebp+ecx]
  00ce7	52		 push	 edx
  00ce8	6a 03		 push	 3
  00cea	a1 00 00 00 00	 mov	 eax, DWORD PTR ?main_3d_env@@3PAUENV_3D@@A ; main_3d_env
  00cef	50		 push	 eax
  00cf0	e8 00 00 00 00	 call	 ?add_3d_ambient_light_setting@@YGXPAUENV_3D@@W4WEATHERMODES@@UREAL_COLOUR@@MM@Z ; add_3d_ambient_light_setting

; 322  : 		add_3d_ambient_light_setting ( main_3d_env, WEATHERMODE_HEAVY_RAIN, ambient_colour[5], 0.525, TWILIGHT_TIME );

  00cf5	51		 push	 ecx
  00cf6	f3 0f 10 05 00
	00 00 00	 movss	 xmm0, DWORD PTR __real@479ab000
  00cfe	f3 0f 11 04 24	 movss	 DWORD PTR [esp], xmm0
  00d03	51		 push	 ecx
  00d04	f3 0f 10 05 00
	00 00 00	 movss	 xmm0, DWORD PTR __real@3f066666
  00d0c	f3 0f 11 04 24	 movss	 DWORD PTR [esp], xmm0
  00d11	b8 04 00 00 00	 mov	 eax, 4
  00d16	6b c8 05	 imul	 ecx, eax, 5
  00d19	8b 54 0d dc	 mov	 edx, DWORD PTR _ambient_colour$16[ebp+ecx]
  00d1d	52		 push	 edx
  00d1e	6a 03		 push	 3
  00d20	a1 00 00 00 00	 mov	 eax, DWORD PTR ?main_3d_env@@3PAUENV_3D@@A ; main_3d_env
  00d25	50		 push	 eax
  00d26	e8 00 00 00 00	 call	 ?add_3d_ambient_light_setting@@YGXPAUENV_3D@@W4WEATHERMODES@@UREAL_COLOUR@@MM@Z ; add_3d_ambient_light_setting

; 323  : 		add_3d_ambient_light_setting ( main_3d_env, WEATHERMODE_HEAVY_RAIN, ambient_colour[5], 0.525*light_level, MIDNIGHT_TIME );

  00d2b	51		 push	 ecx
  00d2c	0f 57 c0	 xorps	 xmm0, xmm0
  00d2f	f3 0f 11 04 24	 movss	 DWORD PTR [esp], xmm0
  00d34	f3 0f 5a 45 fc	 cvtss2sd xmm0, DWORD PTR _light_level$[ebp]
  00d39	f2 0f 59 05 00
	00 00 00	 mulsd	 xmm0, QWORD PTR __real@3fe0cccccccccccd
  00d41	f2 0f 5a c0	 cvtsd2ss xmm0, xmm0
  00d45	51		 push	 ecx
  00d46	f3 0f 11 04 24	 movss	 DWORD PTR [esp], xmm0
  00d4b	b8 04 00 00 00	 mov	 eax, 4
  00d50	6b c8 05	 imul	 ecx, eax, 5
  00d53	8b 54 0d dc	 mov	 edx, DWORD PTR _ambient_colour$16[ebp+ecx]
  00d57	52		 push	 edx
  00d58	6a 03		 push	 3
  00d5a	a1 00 00 00 00	 mov	 eax, DWORD PTR ?main_3d_env@@3PAUENV_3D@@A ; main_3d_env
  00d5f	50		 push	 eax
  00d60	e8 00 00 00 00	 call	 ?add_3d_ambient_light_setting@@YGXPAUENV_3D@@W4WEATHERMODES@@UREAL_COLOUR@@MM@Z ; add_3d_ambient_light_setting

; 324  : 		add_3d_ambient_light_setting ( main_3d_env, WEATHERMODE_HEAVY_RAIN, ambient_colour[5], 0.525*light_level, NIGHT_TIME );

  00d65	51		 push	 ecx
  00d66	f3 0f 10 05 00
	00 00 00	 movss	 xmm0, DWORD PTR __real@467d2000
  00d6e	f3 0f 11 04 24	 movss	 DWORD PTR [esp], xmm0
  00d73	f3 0f 5a 45 fc	 cvtss2sd xmm0, DWORD PTR _light_level$[ebp]
  00d78	f2 0f 59 05 00
	00 00 00	 mulsd	 xmm0, QWORD PTR __real@3fe0cccccccccccd
  00d80	f2 0f 5a c0	 cvtsd2ss xmm0, xmm0
  00d84	51		 push	 ecx
  00d85	f3 0f 11 04 24	 movss	 DWORD PTR [esp], xmm0
  00d8a	b8 04 00 00 00	 mov	 eax, 4
  00d8f	6b c8 05	 imul	 ecx, eax, 5
  00d92	8b 54 0d dc	 mov	 edx, DWORD PTR _ambient_colour$16[ebp+ecx]
  00d96	52		 push	 edx
  00d97	6a 03		 push	 3
  00d99	a1 00 00 00 00	 mov	 eax, DWORD PTR ?main_3d_env@@3PAUENV_3D@@A ; main_3d_env
  00d9e	50		 push	 eax
  00d9f	e8 00 00 00 00	 call	 ?add_3d_ambient_light_setting@@YGXPAUENV_3D@@W4WEATHERMODES@@UREAL_COLOUR@@MM@Z ; add_3d_ambient_light_setting

; 325  : 
; 326  : 		add_3d_ambient_light_setting ( main_3d_env, WEATHERMODE_SNOW, ambient_colour[6], 0.6, SUN_RISE_START_TIME );

  00da4	51		 push	 ecx
  00da5	f3 0f 10 05 00
	00 00 00	 movss	 xmm0, DWORD PTR __real@46a8c000
  00dad	f3 0f 11 04 24	 movss	 DWORD PTR [esp], xmm0
  00db2	51		 push	 ecx
  00db3	f3 0f 10 05 00
	00 00 00	 movss	 xmm0, DWORD PTR __real@3f19999a
  00dbb	f3 0f 11 04 24	 movss	 DWORD PTR [esp], xmm0
  00dc0	b8 04 00 00 00	 mov	 eax, 4
  00dc5	6b c8 06	 imul	 ecx, eax, 6
  00dc8	8b 54 0d dc	 mov	 edx, DWORD PTR _ambient_colour$16[ebp+ecx]
  00dcc	52		 push	 edx
  00dcd	6a 04		 push	 4
  00dcf	a1 00 00 00 00	 mov	 eax, DWORD PTR ?main_3d_env@@3PAUENV_3D@@A ; main_3d_env
  00dd4	50		 push	 eax
  00dd5	e8 00 00 00 00	 call	 ?add_3d_ambient_light_setting@@YGXPAUENV_3D@@W4WEATHERMODES@@UREAL_COLOUR@@MM@Z ; add_3d_ambient_light_setting

; 327  : 		add_3d_ambient_light_setting ( main_3d_env, WEATHERMODE_SNOW, ambient_colour[1], 0.6, SUN_RISE_END_TIME );

  00dda	51		 push	 ecx
  00ddb	f3 0f 10 05 00
	00 00 00	 movss	 xmm0, DWORD PTR __real@46fd2000
  00de3	f3 0f 11 04 24	 movss	 DWORD PTR [esp], xmm0
  00de8	51		 push	 ecx
  00de9	f3 0f 10 05 00
	00 00 00	 movss	 xmm0, DWORD PTR __real@3f19999a
  00df1	f3 0f 11 04 24	 movss	 DWORD PTR [esp], xmm0
  00df6	b8 04 00 00 00	 mov	 eax, 4
  00dfb	c1 e0 00	 shl	 eax, 0
  00dfe	8b 4c 05 dc	 mov	 ecx, DWORD PTR _ambient_colour$16[ebp+eax]
  00e02	51		 push	 ecx
  00e03	6a 04		 push	 4
  00e05	8b 15 00 00 00
	00		 mov	 edx, DWORD PTR ?main_3d_env@@3PAUENV_3D@@A ; main_3d_env
  00e0b	52		 push	 edx
  00e0c	e8 00 00 00 00	 call	 ?add_3d_ambient_light_setting@@YGXPAUENV_3D@@W4WEATHERMODES@@UREAL_COLOUR@@MM@Z ; add_3d_ambient_light_setting

; 328  : 		add_3d_ambient_light_setting ( main_3d_env, WEATHERMODE_SNOW, ambient_colour[2], 0.6, MIDDAY_TIME );

  00e11	51		 push	 ecx
  00e12	f3 0f 10 05 00
	00 00 00	 movss	 xmm0, DWORD PTR __real@4728c000
  00e1a	f3 0f 11 04 24	 movss	 DWORD PTR [esp], xmm0
  00e1f	51		 push	 ecx
  00e20	f3 0f 10 05 00
	00 00 00	 movss	 xmm0, DWORD PTR __real@3f19999a
  00e28	f3 0f 11 04 24	 movss	 DWORD PTR [esp], xmm0
  00e2d	b8 04 00 00 00	 mov	 eax, 4
  00e32	d1 e0		 shl	 eax, 1
  00e34	8b 4c 05 dc	 mov	 ecx, DWORD PTR _ambient_colour$16[ebp+eax]
  00e38	51		 push	 ecx
  00e39	6a 04		 push	 4
  00e3b	8b 15 00 00 00
	00		 mov	 edx, DWORD PTR ?main_3d_env@@3PAUENV_3D@@A ; main_3d_env
  00e41	52		 push	 edx
  00e42	e8 00 00 00 00	 call	 ?add_3d_ambient_light_setting@@YGXPAUENV_3D@@W4WEATHERMODES@@UREAL_COLOUR@@MM@Z ; add_3d_ambient_light_setting

; 329  : 		add_3d_ambient_light_setting ( main_3d_env, WEATHERMODE_SNOW, ambient_colour[3], 0.6, SUN_SET_START_TIME );

  00e47	51		 push	 ecx
  00e48	f3 0f 10 05 00
	00 00 00	 movss	 xmm0, DWORD PTR __real@476f1000
  00e50	f3 0f 11 04 24	 movss	 DWORD PTR [esp], xmm0
  00e55	51		 push	 ecx
  00e56	f3 0f 10 05 00
	00 00 00	 movss	 xmm0, DWORD PTR __real@3f19999a
  00e5e	f3 0f 11 04 24	 movss	 DWORD PTR [esp], xmm0
  00e63	b8 04 00 00 00	 mov	 eax, 4
  00e68	6b c8 03	 imul	 ecx, eax, 3
  00e6b	8b 54 0d dc	 mov	 edx, DWORD PTR _ambient_colour$16[ebp+ecx]
  00e6f	52		 push	 edx
  00e70	6a 04		 push	 4
  00e72	a1 00 00 00 00	 mov	 eax, DWORD PTR ?main_3d_env@@3PAUENV_3D@@A ; main_3d_env
  00e77	50		 push	 eax
  00e78	e8 00 00 00 00	 call	 ?add_3d_ambient_light_setting@@YGXPAUENV_3D@@W4WEATHERMODES@@UREAL_COLOUR@@MM@Z ; add_3d_ambient_light_setting

; 330  : 		add_3d_ambient_light_setting ( main_3d_env, WEATHERMODE_SNOW, ambient_colour[7], 0.6, SUN_SET_END_TIME );

  00e7d	51		 push	 ecx
  00e7e	f3 0f 10 05 00
	00 00 00	 movss	 xmm0, DWORD PTR __real@47891c00
  00e86	f3 0f 11 04 24	 movss	 DWORD PTR [esp], xmm0
  00e8b	51		 push	 ecx
  00e8c	f3 0f 10 05 00
	00 00 00	 movss	 xmm0, DWORD PTR __real@3f19999a
  00e94	f3 0f 11 04 24	 movss	 DWORD PTR [esp], xmm0
  00e99	b8 04 00 00 00	 mov	 eax, 4
  00e9e	6b c8 07	 imul	 ecx, eax, 7
  00ea1	8b 54 0d dc	 mov	 edx, DWORD PTR _ambient_colour$16[ebp+ecx]
  00ea5	52		 push	 edx
  00ea6	6a 04		 push	 4
  00ea8	a1 00 00 00 00	 mov	 eax, DWORD PTR ?main_3d_env@@3PAUENV_3D@@A ; main_3d_env
  00ead	50		 push	 eax
  00eae	e8 00 00 00 00	 call	 ?add_3d_ambient_light_setting@@YGXPAUENV_3D@@W4WEATHERMODES@@UREAL_COLOUR@@MM@Z ; add_3d_ambient_light_setting

; 331  : 		add_3d_ambient_light_setting ( main_3d_env, WEATHERMODE_SNOW, ambient_colour[5], 0.6, TWILIGHT_TIME );

  00eb3	51		 push	 ecx
  00eb4	f3 0f 10 05 00
	00 00 00	 movss	 xmm0, DWORD PTR __real@479ab000
  00ebc	f3 0f 11 04 24	 movss	 DWORD PTR [esp], xmm0
  00ec1	51		 push	 ecx
  00ec2	f3 0f 10 05 00
	00 00 00	 movss	 xmm0, DWORD PTR __real@3f19999a
  00eca	f3 0f 11 04 24	 movss	 DWORD PTR [esp], xmm0
  00ecf	b8 04 00 00 00	 mov	 eax, 4
  00ed4	6b c8 05	 imul	 ecx, eax, 5
  00ed7	8b 54 0d dc	 mov	 edx, DWORD PTR _ambient_colour$16[ebp+ecx]
  00edb	52		 push	 edx
  00edc	6a 04		 push	 4
  00ede	a1 00 00 00 00	 mov	 eax, DWORD PTR ?main_3d_env@@3PAUENV_3D@@A ; main_3d_env
  00ee3	50		 push	 eax
  00ee4	e8 00 00 00 00	 call	 ?add_3d_ambient_light_setting@@YGXPAUENV_3D@@W4WEATHERMODES@@UREAL_COLOUR@@MM@Z ; add_3d_ambient_light_setting

; 332  : 		add_3d_ambient_light_setting ( main_3d_env, WEATHERMODE_SNOW, ambient_colour[5], 0.6*light_level, MIDNIGHT_TIME );

  00ee9	51		 push	 ecx
  00eea	0f 57 c0	 xorps	 xmm0, xmm0
  00eed	f3 0f 11 04 24	 movss	 DWORD PTR [esp], xmm0
  00ef2	f3 0f 5a 45 fc	 cvtss2sd xmm0, DWORD PTR _light_level$[ebp]
  00ef7	f2 0f 59 05 00
	00 00 00	 mulsd	 xmm0, QWORD PTR __real@3fe3333333333333
  00eff	f2 0f 5a c0	 cvtsd2ss xmm0, xmm0
  00f03	51		 push	 ecx
  00f04	f3 0f 11 04 24	 movss	 DWORD PTR [esp], xmm0
  00f09	b8 04 00 00 00	 mov	 eax, 4
  00f0e	6b c8 05	 imul	 ecx, eax, 5
  00f11	8b 54 0d dc	 mov	 edx, DWORD PTR _ambient_colour$16[ebp+ecx]
  00f15	52		 push	 edx
  00f16	6a 04		 push	 4
  00f18	a1 00 00 00 00	 mov	 eax, DWORD PTR ?main_3d_env@@3PAUENV_3D@@A ; main_3d_env
  00f1d	50		 push	 eax
  00f1e	e8 00 00 00 00	 call	 ?add_3d_ambient_light_setting@@YGXPAUENV_3D@@W4WEATHERMODES@@UREAL_COLOUR@@MM@Z ; add_3d_ambient_light_setting

; 333  : 		add_3d_ambient_light_setting ( main_3d_env, WEATHERMODE_SNOW, ambient_colour[5], 0.6*light_level, NIGHT_TIME );

  00f23	51		 push	 ecx
  00f24	f3 0f 10 05 00
	00 00 00	 movss	 xmm0, DWORD PTR __real@467d2000
  00f2c	f3 0f 11 04 24	 movss	 DWORD PTR [esp], xmm0
  00f31	f3 0f 5a 45 fc	 cvtss2sd xmm0, DWORD PTR _light_level$[ebp]
  00f36	f2 0f 59 05 00
	00 00 00	 mulsd	 xmm0, QWORD PTR __real@3fe3333333333333
  00f3e	f2 0f 5a c0	 cvtsd2ss xmm0, xmm0
  00f42	51		 push	 ecx
  00f43	f3 0f 11 04 24	 movss	 DWORD PTR [esp], xmm0
  00f48	b8 04 00 00 00	 mov	 eax, 4
  00f4d	6b c8 05	 imul	 ecx, eax, 5
  00f50	8b 54 0d dc	 mov	 edx, DWORD PTR _ambient_colour$16[ebp+ecx]
  00f54	52		 push	 edx
  00f55	6a 04		 push	 4
  00f57	a1 00 00 00 00	 mov	 eax, DWORD PTR ?main_3d_env@@3PAUENV_3D@@A ; main_3d_env
  00f5c	50		 push	 eax
  00f5d	e8 00 00 00 00	 call	 ?add_3d_ambient_light_setting@@YGXPAUENV_3D@@W4WEATHERMODES@@UREAL_COLOUR@@MM@Z ; add_3d_ambient_light_setting

; 334  : 	}
; 335  : 
; 336  : 	//
; 337  : 	// Initialise the sun lighting system for the environment
; 338  : 	//
; 339  : 
; 340  : 	{
; 341  : 
; 342  : 		rgb_colour
; 343  : 			sun_colour[4],
; 344  : 			sun_light_colour[9];
; 345  : 
; 346  : 		set_rgb_colour ( sun_colour[0], 255, 232, 112, 0 );	// Sun rise object colour

  00f62	b8 04 00 00 00	 mov	 eax, 4
  00f67	6b c8 00	 imul	 ecx, eax, 0
  00f6a	c6 44 0d ce ff	 mov	 BYTE PTR _sun_colour$15[ebp+ecx+2], 255 ; 000000ffH
  00f6f	b8 04 00 00 00	 mov	 eax, 4
  00f74	6b c8 00	 imul	 ecx, eax, 0
  00f77	c6 44 0d cd e8	 mov	 BYTE PTR _sun_colour$15[ebp+ecx+1], 232 ; 000000e8H
  00f7c	b8 04 00 00 00	 mov	 eax, 4
  00f81	6b c8 00	 imul	 ecx, eax, 0
  00f84	c6 44 0d cc 70	 mov	 BYTE PTR _sun_colour$15[ebp+ecx], 112 ; 00000070H
  00f89	b8 04 00 00 00	 mov	 eax, 4
  00f8e	6b c8 00	 imul	 ecx, eax, 0
  00f91	c6 44 0d cf 00	 mov	 BYTE PTR _sun_colour$15[ebp+ecx+3], 0

; 347  : 		set_rgb_colour ( sun_colour[1], 255, 243, 183, 128 );	// Sun rise imtermetiate colour

  00f96	b8 04 00 00 00	 mov	 eax, 4
  00f9b	c1 e0 00	 shl	 eax, 0
  00f9e	c6 44 05 ce ff	 mov	 BYTE PTR _sun_colour$15[ebp+eax+2], 255 ; 000000ffH
  00fa3	b8 04 00 00 00	 mov	 eax, 4
  00fa8	c1 e0 00	 shl	 eax, 0
  00fab	c6 44 05 cd f3	 mov	 BYTE PTR _sun_colour$15[ebp+eax+1], 243 ; 000000f3H
  00fb0	b8 04 00 00 00	 mov	 eax, 4
  00fb5	c1 e0 00	 shl	 eax, 0
  00fb8	c6 44 05 cc b7	 mov	 BYTE PTR _sun_colour$15[ebp+eax], 183 ; 000000b7H
  00fbd	b8 04 00 00 00	 mov	 eax, 4
  00fc2	c1 e0 00	 shl	 eax, 0
  00fc5	c6 44 05 cf 80	 mov	 BYTE PTR _sun_colour$15[ebp+eax+3], 128 ; 00000080H

; 348  : 		set_rgb_colour ( sun_colour[2], 255, 255, 255, 255 );	// White object colour

  00fca	b8 04 00 00 00	 mov	 eax, 4
  00fcf	d1 e0		 shl	 eax, 1
  00fd1	c6 44 05 ce ff	 mov	 BYTE PTR _sun_colour$15[ebp+eax+2], 255 ; 000000ffH
  00fd6	b8 04 00 00 00	 mov	 eax, 4
  00fdb	d1 e0		 shl	 eax, 1
  00fdd	c6 44 05 cd ff	 mov	 BYTE PTR _sun_colour$15[ebp+eax+1], 255 ; 000000ffH
  00fe2	b8 04 00 00 00	 mov	 eax, 4
  00fe7	d1 e0		 shl	 eax, 1
  00fe9	c6 44 05 cc ff	 mov	 BYTE PTR _sun_colour$15[ebp+eax], 255 ; 000000ffH
  00fee	b8 04 00 00 00	 mov	 eax, 4
  00ff3	d1 e0		 shl	 eax, 1
  00ff5	c6 44 05 cf ff	 mov	 BYTE PTR _sun_colour$15[ebp+eax+3], 255 ; 000000ffH

; 349  : 		set_rgb_colour ( sun_colour[3], 255, 255, 255, 0 );	// White object colour - no flare

  00ffa	b8 04 00 00 00	 mov	 eax, 4
  00fff	6b c8 03	 imul	 ecx, eax, 3
  01002	c6 44 0d ce ff	 mov	 BYTE PTR _sun_colour$15[ebp+ecx+2], 255 ; 000000ffH
  01007	b8 04 00 00 00	 mov	 eax, 4
  0100c	6b c8 03	 imul	 ecx, eax, 3
  0100f	c6 44 0d cd ff	 mov	 BYTE PTR _sun_colour$15[ebp+ecx+1], 255 ; 000000ffH
  01014	b8 04 00 00 00	 mov	 eax, 4
  01019	6b c8 03	 imul	 ecx, eax, 3
  0101c	c6 44 0d cc ff	 mov	 BYTE PTR _sun_colour$15[ebp+ecx], 255 ; 000000ffH
  01021	b8 04 00 00 00	 mov	 eax, 4
  01026	6b c8 03	 imul	 ecx, eax, 3
  01029	c6 44 0d cf 00	 mov	 BYTE PTR _sun_colour$15[ebp+ecx+3], 0

; 350  : 
; 351  : 		set_rgb_colour ( sun_light_colour[0], 64, 58, 33, 0 );		// 6am ( 22% )

  0102e	b8 04 00 00 00	 mov	 eax, 4
  01033	6b c8 00	 imul	 ecx, eax, 0
  01036	c6 44 0d aa 40	 mov	 BYTE PTR _sun_light_colour$14[ebp+ecx+2], 64 ; 00000040H
  0103b	b8 04 00 00 00	 mov	 eax, 4
  01040	6b c8 00	 imul	 ecx, eax, 0
  01043	c6 44 0d a9 3a	 mov	 BYTE PTR _sun_light_colour$14[ebp+ecx+1], 58 ; 0000003aH
  01048	b8 04 00 00 00	 mov	 eax, 4
  0104d	6b c8 00	 imul	 ecx, eax, 0
  01050	c6 44 0d a8 21	 mov	 BYTE PTR _sun_light_colour$14[ebp+ecx], 33 ; 00000021H
  01055	b8 04 00 00 00	 mov	 eax, 4
  0105a	6b c8 00	 imul	 ecx, eax, 0
  0105d	c6 44 0d ab 00	 mov	 BYTE PTR _sun_light_colour$14[ebp+ecx+3], 0

; 352  : 		set_rgb_colour ( sun_light_colour[1], 128, 116, 66, 0 );		// 9am ( 44% )

  01062	b8 04 00 00 00	 mov	 eax, 4
  01067	c1 e0 00	 shl	 eax, 0
  0106a	c6 44 05 aa 80	 mov	 BYTE PTR _sun_light_colour$14[ebp+eax+2], 128 ; 00000080H
  0106f	b8 04 00 00 00	 mov	 eax, 4
  01074	c1 e0 00	 shl	 eax, 0
  01077	c6 44 05 a9 74	 mov	 BYTE PTR _sun_light_colour$14[ebp+eax+1], 116 ; 00000074H
  0107c	b8 04 00 00 00	 mov	 eax, 4
  01081	c1 e0 00	 shl	 eax, 0
  01084	c6 44 05 a8 42	 mov	 BYTE PTR _sun_light_colour$14[ebp+eax], 66 ; 00000042H
  01089	b8 04 00 00 00	 mov	 eax, 4
  0108e	c1 e0 00	 shl	 eax, 0
  01091	c6 44 05 ab 00	 mov	 BYTE PTR _sun_light_colour$14[ebp+eax+3], 0

; 353  : 		set_rgb_colour ( sun_light_colour[2], 128, 128, 128, 0 );	// 12pm ( 50% )

  01096	b8 04 00 00 00	 mov	 eax, 4
  0109b	d1 e0		 shl	 eax, 1
  0109d	c6 44 05 aa 80	 mov	 BYTE PTR _sun_light_colour$14[ebp+eax+2], 128 ; 00000080H
  010a2	b8 04 00 00 00	 mov	 eax, 4
  010a7	d1 e0		 shl	 eax, 1
  010a9	c6 44 05 a9 80	 mov	 BYTE PTR _sun_light_colour$14[ebp+eax+1], 128 ; 00000080H
  010ae	b8 04 00 00 00	 mov	 eax, 4
  010b3	d1 e0		 shl	 eax, 1
  010b5	c6 44 05 a8 80	 mov	 BYTE PTR _sun_light_colour$14[ebp+eax], 128 ; 00000080H
  010ba	b8 04 00 00 00	 mov	 eax, 4
  010bf	d1 e0		 shl	 eax, 1
  010c1	c6 44 05 ab 00	 mov	 BYTE PTR _sun_light_colour$14[ebp+eax+3], 0

; 354  : 		set_rgb_colour ( sun_light_colour[3], 125, 113, 98, 0 );		// 3pm ( 45% )

  010c6	b8 04 00 00 00	 mov	 eax, 4
  010cb	6b c8 03	 imul	 ecx, eax, 3
  010ce	c6 44 0d aa 7d	 mov	 BYTE PTR _sun_light_colour$14[ebp+ecx+2], 125 ; 0000007dH
  010d3	b8 04 00 00 00	 mov	 eax, 4
  010d8	6b c8 03	 imul	 ecx, eax, 3
  010db	c6 44 0d a9 71	 mov	 BYTE PTR _sun_light_colour$14[ebp+ecx+1], 113 ; 00000071H
  010e0	b8 04 00 00 00	 mov	 eax, 4
  010e5	6b c8 03	 imul	 ecx, eax, 3
  010e8	c6 44 0d a8 62	 mov	 BYTE PTR _sun_light_colour$14[ebp+ecx], 98 ; 00000062H
  010ed	b8 04 00 00 00	 mov	 eax, 4
  010f2	6b c8 03	 imul	 ecx, eax, 3
  010f5	c6 44 0d ab 00	 mov	 BYTE PTR _sun_light_colour$14[ebp+ecx+3], 0

; 355  : 		set_rgb_colour ( sun_light_colour[4], 122, 23, 15, 0 ); 		// 6pm ( 20% )

  010fa	b8 04 00 00 00	 mov	 eax, 4
  010ff	c1 e0 02	 shl	 eax, 2
  01102	c6 44 05 aa 7a	 mov	 BYTE PTR _sun_light_colour$14[ebp+eax+2], 122 ; 0000007aH
  01107	b8 04 00 00 00	 mov	 eax, 4
  0110c	c1 e0 02	 shl	 eax, 2
  0110f	c6 44 05 a9 17	 mov	 BYTE PTR _sun_light_colour$14[ebp+eax+1], 23 ; 00000017H
  01114	b8 04 00 00 00	 mov	 eax, 4
  01119	c1 e0 02	 shl	 eax, 2
  0111c	c6 44 05 a8 0f	 mov	 BYTE PTR _sun_light_colour$14[ebp+eax], 15 ; 0000000fH
  01121	b8 04 00 00 00	 mov	 eax, 4
  01126	c1 e0 02	 shl	 eax, 2
  01129	c6 44 05 ab 00	 mov	 BYTE PTR _sun_light_colour$14[ebp+eax+3], 0

; 356  : 		set_rgb_colour ( sun_light_colour[5], 55, 12, 1, 0 );			// 9pm ( 9% )

  0112e	b8 04 00 00 00	 mov	 eax, 4
  01133	6b c8 05	 imul	 ecx, eax, 5
  01136	c6 44 0d aa 37	 mov	 BYTE PTR _sun_light_colour$14[ebp+ecx+2], 55 ; 00000037H
  0113b	b8 04 00 00 00	 mov	 eax, 4
  01140	6b c8 05	 imul	 ecx, eax, 5
  01143	c6 44 0d a9 0c	 mov	 BYTE PTR _sun_light_colour$14[ebp+ecx+1], 12 ; 0000000cH
  01148	b8 04 00 00 00	 mov	 eax, 4
  0114d	6b c8 05	 imul	 ecx, eax, 5
  01150	c6 44 0d a8 01	 mov	 BYTE PTR _sun_light_colour$14[ebp+ecx], 1
  01155	b8 04 00 00 00	 mov	 eax, 4
  0115a	6b c8 05	 imul	 ecx, eax, 5
  0115d	c6 44 0d ab 00	 mov	 BYTE PTR _sun_light_colour$14[ebp+ecx+3], 0

; 357  : 		set_rgb_colour ( sun_light_colour[6], 0, 0, 0, 0 );			// 12am, 3am ( 0% )

  01162	b8 04 00 00 00	 mov	 eax, 4
  01167	6b c8 06	 imul	 ecx, eax, 6
  0116a	c6 44 0d aa 00	 mov	 BYTE PTR _sun_light_colour$14[ebp+ecx+2], 0
  0116f	b8 04 00 00 00	 mov	 eax, 4
  01174	6b c8 06	 imul	 ecx, eax, 6
  01177	c6 44 0d a9 00	 mov	 BYTE PTR _sun_light_colour$14[ebp+ecx+1], 0
  0117c	b8 04 00 00 00	 mov	 eax, 4
  01181	6b c8 06	 imul	 ecx, eax, 6
  01184	c6 44 0d a8 00	 mov	 BYTE PTR _sun_light_colour$14[ebp+ecx], 0
  01189	b8 04 00 00 00	 mov	 eax, 4
  0118e	6b c8 06	 imul	 ecx, eax, 6
  01191	c6 44 0d ab 00	 mov	 BYTE PTR _sun_light_colour$14[ebp+ecx+3], 0

; 358  : 		set_rgb_colour ( sun_light_colour[7], 56, 56, 56, 0 );		// 6am rain colour( 22% )

  01196	b8 04 00 00 00	 mov	 eax, 4
  0119b	6b c8 07	 imul	 ecx, eax, 7
  0119e	c6 44 0d aa 38	 mov	 BYTE PTR _sun_light_colour$14[ebp+ecx+2], 56 ; 00000038H
  011a3	b8 04 00 00 00	 mov	 eax, 4
  011a8	6b c8 07	 imul	 ecx, eax, 7
  011ab	c6 44 0d a9 38	 mov	 BYTE PTR _sun_light_colour$14[ebp+ecx+1], 56 ; 00000038H
  011b0	b8 04 00 00 00	 mov	 eax, 4
  011b5	6b c8 07	 imul	 ecx, eax, 7
  011b8	c6 44 0d a8 38	 mov	 BYTE PTR _sun_light_colour$14[ebp+ecx], 56 ; 00000038H
  011bd	b8 04 00 00 00	 mov	 eax, 4
  011c2	6b c8 07	 imul	 ecx, eax, 7
  011c5	c6 44 0d ab 00	 mov	 BYTE PTR _sun_light_colour$14[ebp+ecx+3], 0

; 359  : 		set_rgb_colour ( sun_light_colour[8], 51, 51, 51, 0 ); 		// 6pm rain colour ( 20% )

  011ca	b8 04 00 00 00	 mov	 eax, 4
  011cf	c1 e0 03	 shl	 eax, 3
  011d2	c6 44 05 aa 33	 mov	 BYTE PTR _sun_light_colour$14[ebp+eax+2], 51 ; 00000033H
  011d7	b8 04 00 00 00	 mov	 eax, 4
  011dc	c1 e0 03	 shl	 eax, 3
  011df	c6 44 05 a9 33	 mov	 BYTE PTR _sun_light_colour$14[ebp+eax+1], 51 ; 00000033H
  011e4	b8 04 00 00 00	 mov	 eax, 4
  011e9	c1 e0 03	 shl	 eax, 3
  011ec	c6 44 05 a8 33	 mov	 BYTE PTR _sun_light_colour$14[ebp+eax], 51 ; 00000033H
  011f1	b8 04 00 00 00	 mov	 eax, 4
  011f6	c1 e0 03	 shl	 eax, 3
  011f9	c6 44 05 ab 00	 mov	 BYTE PTR _sun_light_colour$14[ebp+eax+3], 0

; 360  : 
; 361  : 		add_3d_sun_setting ( main_3d_env, WEATHERMODE_DRY, 1.0, 1.0, sun_colour[0], 1.0, sun_light_colour[0], 1.5, rad ( 70 ), rad ( 0 ), TRUE, SUN_RISE_START_TIME );

  011fe	51		 push	 ecx
  011ff	f3 0f 10 05 00
	00 00 00	 movss	 xmm0, DWORD PTR __real@46a8c000
  01207	f3 0f 11 04 24	 movss	 DWORD PTR [esp], xmm0
  0120c	6a 01		 push	 1
  0120e	51		 push	 ecx
  0120f	0f 57 c0	 xorps	 xmm0, xmm0
  01212	f3 0f 11 04 24	 movss	 DWORD PTR [esp], xmm0
  01217	51		 push	 ecx
  01218	f3 0f 10 05 00
	00 00 00	 movss	 xmm0, DWORD PTR __real@3f9c61aa
  01220	f3 0f 11 04 24	 movss	 DWORD PTR [esp], xmm0
  01225	51		 push	 ecx
  01226	f3 0f 10 05 00
	00 00 00	 movss	 xmm0, DWORD PTR __real@3fc00000
  0122e	f3 0f 11 04 24	 movss	 DWORD PTR [esp], xmm0
  01233	b8 04 00 00 00	 mov	 eax, 4
  01238	6b c8 00	 imul	 ecx, eax, 0
  0123b	8b 54 0d a8	 mov	 edx, DWORD PTR _sun_light_colour$14[ebp+ecx]
  0123f	52		 push	 edx
  01240	51		 push	 ecx
  01241	f3 0f 10 05 00
	00 00 00	 movss	 xmm0, DWORD PTR __real@3f800000
  01249	f3 0f 11 04 24	 movss	 DWORD PTR [esp], xmm0
  0124e	b8 04 00 00 00	 mov	 eax, 4
  01253	6b c8 00	 imul	 ecx, eax, 0
  01256	8b 54 0d cc	 mov	 edx, DWORD PTR _sun_colour$15[ebp+ecx]
  0125a	52		 push	 edx
  0125b	51		 push	 ecx
  0125c	f3 0f 10 05 00
	00 00 00	 movss	 xmm0, DWORD PTR __real@3f800000
  01264	f3 0f 11 04 24	 movss	 DWORD PTR [esp], xmm0
  01269	51		 push	 ecx
  0126a	f3 0f 10 05 00
	00 00 00	 movss	 xmm0, DWORD PTR __real@3f800000
  01272	f3 0f 11 04 24	 movss	 DWORD PTR [esp], xmm0
  01277	6a 01		 push	 1
  01279	a1 00 00 00 00	 mov	 eax, DWORD PTR ?main_3d_env@@3PAUENV_3D@@A ; main_3d_env
  0127e	50		 push	 eax
  0127f	e8 00 00 00 00	 call	 ?add_3d_sun_setting@@YGXPAUENV_3D@@W4WEATHERMODES@@MMUREAL_COLOUR@@M2MMMHM@Z ; add_3d_sun_setting

; 362  : 		add_3d_sun_setting ( main_3d_env, WEATHERMODE_DRY, 1.0, 1.0, sun_colour[1], 1.0, sun_light_colour[1], 1.5, rad ( 70 ), rad ( 45 ), TRUE, SUN_RISE_END_TIME );

  01284	51		 push	 ecx
  01285	f3 0f 10 05 00
	00 00 00	 movss	 xmm0, DWORD PTR __real@46fd2000
  0128d	f3 0f 11 04 24	 movss	 DWORD PTR [esp], xmm0
  01292	6a 01		 push	 1
  01294	51		 push	 ecx
  01295	f3 0f 10 05 00
	00 00 00	 movss	 xmm0, DWORD PTR __real@3f490fdb
  0129d	f3 0f 11 04 24	 movss	 DWORD PTR [esp], xmm0
  012a2	51		 push	 ecx
  012a3	f3 0f 10 05 00
	00 00 00	 movss	 xmm0, DWORD PTR __real@3f9c61aa
  012ab	f3 0f 11 04 24	 movss	 DWORD PTR [esp], xmm0
  012b0	51		 push	 ecx
  012b1	f3 0f 10 05 00
	00 00 00	 movss	 xmm0, DWORD PTR __real@3fc00000
  012b9	f3 0f 11 04 24	 movss	 DWORD PTR [esp], xmm0
  012be	b8 04 00 00 00	 mov	 eax, 4
  012c3	c1 e0 00	 shl	 eax, 0
  012c6	8b 4c 05 a8	 mov	 ecx, DWORD PTR _sun_light_colour$14[ebp+eax]
  012ca	51		 push	 ecx
  012cb	51		 push	 ecx
  012cc	f3 0f 10 05 00
	00 00 00	 movss	 xmm0, DWORD PTR __real@3f800000
  012d4	f3 0f 11 04 24	 movss	 DWORD PTR [esp], xmm0
  012d9	ba 04 00 00 00	 mov	 edx, 4
  012de	c1 e2 00	 shl	 edx, 0
  012e1	8b 44 15 cc	 mov	 eax, DWORD PTR _sun_colour$15[ebp+edx]
  012e5	50		 push	 eax
  012e6	51		 push	 ecx
  012e7	f3 0f 10 05 00
	00 00 00	 movss	 xmm0, DWORD PTR __real@3f800000
  012ef	f3 0f 11 04 24	 movss	 DWORD PTR [esp], xmm0
  012f4	51		 push	 ecx
  012f5	f3 0f 10 05 00
	00 00 00	 movss	 xmm0, DWORD PTR __real@3f800000
  012fd	f3 0f 11 04 24	 movss	 DWORD PTR [esp], xmm0
  01302	6a 01		 push	 1
  01304	8b 0d 00 00 00
	00		 mov	 ecx, DWORD PTR ?main_3d_env@@3PAUENV_3D@@A ; main_3d_env
  0130a	51		 push	 ecx
  0130b	e8 00 00 00 00	 call	 ?add_3d_sun_setting@@YGXPAUENV_3D@@W4WEATHERMODES@@MMUREAL_COLOUR@@M2MMMHM@Z ; add_3d_sun_setting

; 363  : 		add_3d_sun_setting ( main_3d_env, WEATHERMODE_DRY, 1.0, 1.0, sun_colour[2], 1.0, sun_light_colour[2], 1.5, rad ( 70 ), rad ( 90 ), TRUE, MIDDAY_TIME );

  01310	51		 push	 ecx
  01311	f3 0f 10 05 00
	00 00 00	 movss	 xmm0, DWORD PTR __real@4728c000
  01319	f3 0f 11 04 24	 movss	 DWORD PTR [esp], xmm0
  0131e	6a 01		 push	 1
  01320	51		 push	 ecx
  01321	f3 0f 10 05 00
	00 00 00	 movss	 xmm0, DWORD PTR __real@3fc90fdb
  01329	f3 0f 11 04 24	 movss	 DWORD PTR [esp], xmm0
  0132e	51		 push	 ecx
  0132f	f3 0f 10 05 00
	00 00 00	 movss	 xmm0, DWORD PTR __real@3f9c61aa
  01337	f3 0f 11 04 24	 movss	 DWORD PTR [esp], xmm0
  0133c	51		 push	 ecx
  0133d	f3 0f 10 05 00
	00 00 00	 movss	 xmm0, DWORD PTR __real@3fc00000
  01345	f3 0f 11 04 24	 movss	 DWORD PTR [esp], xmm0
  0134a	b8 04 00 00 00	 mov	 eax, 4
  0134f	d1 e0		 shl	 eax, 1
  01351	8b 4c 05 a8	 mov	 ecx, DWORD PTR _sun_light_colour$14[ebp+eax]
  01355	51		 push	 ecx
  01356	51		 push	 ecx
  01357	f3 0f 10 05 00
	00 00 00	 movss	 xmm0, DWORD PTR __real@3f800000
  0135f	f3 0f 11 04 24	 movss	 DWORD PTR [esp], xmm0
  01364	ba 04 00 00 00	 mov	 edx, 4
  01369	d1 e2		 shl	 edx, 1
  0136b	8b 44 15 cc	 mov	 eax, DWORD PTR _sun_colour$15[ebp+edx]
  0136f	50		 push	 eax
  01370	51		 push	 ecx
  01371	f3 0f 10 05 00
	00 00 00	 movss	 xmm0, DWORD PTR __real@3f800000
  01379	f3 0f 11 04 24	 movss	 DWORD PTR [esp], xmm0
  0137e	51		 push	 ecx
  0137f	f3 0f 10 05 00
	00 00 00	 movss	 xmm0, DWORD PTR __real@3f800000
  01387	f3 0f 11 04 24	 movss	 DWORD PTR [esp], xmm0
  0138c	6a 01		 push	 1
  0138e	8b 0d 00 00 00
	00		 mov	 ecx, DWORD PTR ?main_3d_env@@3PAUENV_3D@@A ; main_3d_env
  01394	51		 push	 ecx
  01395	e8 00 00 00 00	 call	 ?add_3d_sun_setting@@YGXPAUENV_3D@@W4WEATHERMODES@@MMUREAL_COLOUR@@M2MMMHM@Z ; add_3d_sun_setting

; 364  : 		add_3d_sun_setting ( main_3d_env, WEATHERMODE_DRY, 1.0, 1.0, sun_colour[2], 1.0, sun_light_colour[3], 1.5, rad ( 70 ), rad ( 135 ), TRUE, SUN_SET_START_TIME );

  0139a	51		 push	 ecx
  0139b	f3 0f 10 05 00
	00 00 00	 movss	 xmm0, DWORD PTR __real@476f1000
  013a3	f3 0f 11 04 24	 movss	 DWORD PTR [esp], xmm0
  013a8	6a 01		 push	 1
  013aa	51		 push	 ecx
  013ab	f3 0f 10 05 00
	00 00 00	 movss	 xmm0, DWORD PTR __real@4016cbe4
  013b3	f3 0f 11 04 24	 movss	 DWORD PTR [esp], xmm0
  013b8	51		 push	 ecx
  013b9	f3 0f 10 05 00
	00 00 00	 movss	 xmm0, DWORD PTR __real@3f9c61aa
  013c1	f3 0f 11 04 24	 movss	 DWORD PTR [esp], xmm0
  013c6	51		 push	 ecx
  013c7	f3 0f 10 05 00
	00 00 00	 movss	 xmm0, DWORD PTR __real@3fc00000
  013cf	f3 0f 11 04 24	 movss	 DWORD PTR [esp], xmm0
  013d4	b8 04 00 00 00	 mov	 eax, 4
  013d9	6b c8 03	 imul	 ecx, eax, 3
  013dc	8b 54 0d a8	 mov	 edx, DWORD PTR _sun_light_colour$14[ebp+ecx]
  013e0	52		 push	 edx
  013e1	51		 push	 ecx
  013e2	f3 0f 10 05 00
	00 00 00	 movss	 xmm0, DWORD PTR __real@3f800000
  013ea	f3 0f 11 04 24	 movss	 DWORD PTR [esp], xmm0
  013ef	b8 04 00 00 00	 mov	 eax, 4
  013f4	d1 e0		 shl	 eax, 1
  013f6	8b 4c 05 cc	 mov	 ecx, DWORD PTR _sun_colour$15[ebp+eax]
  013fa	51		 push	 ecx
  013fb	51		 push	 ecx
  013fc	f3 0f 10 05 00
	00 00 00	 movss	 xmm0, DWORD PTR __real@3f800000
  01404	f3 0f 11 04 24	 movss	 DWORD PTR [esp], xmm0
  01409	51		 push	 ecx
  0140a	f3 0f 10 05 00
	00 00 00	 movss	 xmm0, DWORD PTR __real@3f800000
  01412	f3 0f 11 04 24	 movss	 DWORD PTR [esp], xmm0
  01417	6a 01		 push	 1
  01419	8b 15 00 00 00
	00		 mov	 edx, DWORD PTR ?main_3d_env@@3PAUENV_3D@@A ; main_3d_env
  0141f	52		 push	 edx
  01420	e8 00 00 00 00	 call	 ?add_3d_sun_setting@@YGXPAUENV_3D@@W4WEATHERMODES@@MMUREAL_COLOUR@@M2MMMHM@Z ; add_3d_sun_setting

; 365  : 		add_3d_sun_setting ( main_3d_env, WEATHERMODE_DRY, 2.0, 1.0, sun_colour[3], 1.0, sun_light_colour[4], 1.5, rad ( 70 ), rad ( 180 ), TRUE, SUN_SET_END_TIME );

  01425	51		 push	 ecx
  01426	f3 0f 10 05 00
	00 00 00	 movss	 xmm0, DWORD PTR __real@47891c00
  0142e	f3 0f 11 04 24	 movss	 DWORD PTR [esp], xmm0
  01433	6a 01		 push	 1
  01435	51		 push	 ecx
  01436	f3 0f 10 05 00
	00 00 00	 movss	 xmm0, DWORD PTR __real@40490fdb
  0143e	f3 0f 11 04 24	 movss	 DWORD PTR [esp], xmm0
  01443	51		 push	 ecx
  01444	f3 0f 10 05 00
	00 00 00	 movss	 xmm0, DWORD PTR __real@3f9c61aa
  0144c	f3 0f 11 04 24	 movss	 DWORD PTR [esp], xmm0
  01451	51		 push	 ecx
  01452	f3 0f 10 05 00
	00 00 00	 movss	 xmm0, DWORD PTR __real@3fc00000
  0145a	f3 0f 11 04 24	 movss	 DWORD PTR [esp], xmm0
  0145f	b8 04 00 00 00	 mov	 eax, 4
  01464	c1 e0 02	 shl	 eax, 2
  01467	8b 4c 05 a8	 mov	 ecx, DWORD PTR _sun_light_colour$14[ebp+eax]
  0146b	51		 push	 ecx
  0146c	51		 push	 ecx
  0146d	f3 0f 10 05 00
	00 00 00	 movss	 xmm0, DWORD PTR __real@3f800000
  01475	f3 0f 11 04 24	 movss	 DWORD PTR [esp], xmm0
  0147a	ba 04 00 00 00	 mov	 edx, 4
  0147f	6b c2 03	 imul	 eax, edx, 3
  01482	8b 4c 05 cc	 mov	 ecx, DWORD PTR _sun_colour$15[ebp+eax]
  01486	51		 push	 ecx
  01487	51		 push	 ecx
  01488	f3 0f 10 05 00
	00 00 00	 movss	 xmm0, DWORD PTR __real@3f800000
  01490	f3 0f 11 04 24	 movss	 DWORD PTR [esp], xmm0
  01495	51		 push	 ecx
  01496	f3 0f 10 05 00
	00 00 00	 movss	 xmm0, DWORD PTR __real@40000000
  0149e	f3 0f 11 04 24	 movss	 DWORD PTR [esp], xmm0
  014a3	6a 01		 push	 1
  014a5	8b 15 00 00 00
	00		 mov	 edx, DWORD PTR ?main_3d_env@@3PAUENV_3D@@A ; main_3d_env
  014ab	52		 push	 edx
  014ac	e8 00 00 00 00	 call	 ?add_3d_sun_setting@@YGXPAUENV_3D@@W4WEATHERMODES@@MMUREAL_COLOUR@@M2MMMHM@Z ; add_3d_sun_setting

; 366  : 		add_3d_sun_setting ( main_3d_env, WEATHERMODE_DRY, 0.0, 0.0, sun_colour[3], 1.0, sun_light_colour[5], 1.5, rad ( 70 ), rad ( 225 ), TRUE, TWILIGHT_TIME );

  014b1	51		 push	 ecx
  014b2	f3 0f 10 05 00
	00 00 00	 movss	 xmm0, DWORD PTR __real@479ab000
  014ba	f3 0f 11 04 24	 movss	 DWORD PTR [esp], xmm0
  014bf	6a 01		 push	 1
  014c1	51		 push	 ecx
  014c2	f3 0f 10 05 00
	00 00 00	 movss	 xmm0, DWORD PTR __real@407b53d1
  014ca	f3 0f 11 04 24	 movss	 DWORD PTR [esp], xmm0
  014cf	51		 push	 ecx
  014d0	f3 0f 10 05 00
	00 00 00	 movss	 xmm0, DWORD PTR __real@3f9c61aa
  014d8	f3 0f 11 04 24	 movss	 DWORD PTR [esp], xmm0
  014dd	51		 push	 ecx
  014de	f3 0f 10 05 00
	00 00 00	 movss	 xmm0, DWORD PTR __real@3fc00000
  014e6	f3 0f 11 04 24	 movss	 DWORD PTR [esp], xmm0
  014eb	b8 04 00 00 00	 mov	 eax, 4
  014f0	6b c8 05	 imul	 ecx, eax, 5
  014f3	8b 54 0d a8	 mov	 edx, DWORD PTR _sun_light_colour$14[ebp+ecx]
  014f7	52		 push	 edx
  014f8	51		 push	 ecx
  014f9	f3 0f 10 05 00
	00 00 00	 movss	 xmm0, DWORD PTR __real@3f800000
  01501	f3 0f 11 04 24	 movss	 DWORD PTR [esp], xmm0
  01506	b8 04 00 00 00	 mov	 eax, 4
  0150b	6b c8 03	 imul	 ecx, eax, 3
  0150e	8b 54 0d cc	 mov	 edx, DWORD PTR _sun_colour$15[ebp+ecx]
  01512	52		 push	 edx
  01513	51		 push	 ecx
  01514	0f 57 c0	 xorps	 xmm0, xmm0
  01517	f3 0f 11 04 24	 movss	 DWORD PTR [esp], xmm0
  0151c	51		 push	 ecx
  0151d	0f 57 c0	 xorps	 xmm0, xmm0
  01520	f3 0f 11 04 24	 movss	 DWORD PTR [esp], xmm0
  01525	6a 01		 push	 1
  01527	a1 00 00 00 00	 mov	 eax, DWORD PTR ?main_3d_env@@3PAUENV_3D@@A ; main_3d_env
  0152c	50		 push	 eax
  0152d	e8 00 00 00 00	 call	 ?add_3d_sun_setting@@YGXPAUENV_3D@@W4WEATHERMODES@@MMUREAL_COLOUR@@M2MMMHM@Z ; add_3d_sun_setting

; 367  : 		add_3d_sun_setting ( main_3d_env, WEATHERMODE_DRY, 0.0, 0.0, sun_colour[3], 1.0, sun_light_colour[6], 1.5, rad ( 70 ), rad ( 270 ), FALSE, MIDNIGHT_TIME );

  01532	51		 push	 ecx
  01533	0f 57 c0	 xorps	 xmm0, xmm0
  01536	f3 0f 11 04 24	 movss	 DWORD PTR [esp], xmm0
  0153b	6a 00		 push	 0
  0153d	51		 push	 ecx
  0153e	f3 0f 10 05 00
	00 00 00	 movss	 xmm0, DWORD PTR __real@4096cbe4
  01546	f3 0f 11 04 24	 movss	 DWORD PTR [esp], xmm0
  0154b	51		 push	 ecx
  0154c	f3 0f 10 05 00
	00 00 00	 movss	 xmm0, DWORD PTR __real@3f9c61aa
  01554	f3 0f 11 04 24	 movss	 DWORD PTR [esp], xmm0
  01559	51		 push	 ecx
  0155a	f3 0f 10 05 00
	00 00 00	 movss	 xmm0, DWORD PTR __real@3fc00000
  01562	f3 0f 11 04 24	 movss	 DWORD PTR [esp], xmm0
  01567	b8 04 00 00 00	 mov	 eax, 4
  0156c	6b c8 06	 imul	 ecx, eax, 6
  0156f	8b 54 0d a8	 mov	 edx, DWORD PTR _sun_light_colour$14[ebp+ecx]
  01573	52		 push	 edx
  01574	51		 push	 ecx
  01575	f3 0f 10 05 00
	00 00 00	 movss	 xmm0, DWORD PTR __real@3f800000
  0157d	f3 0f 11 04 24	 movss	 DWORD PTR [esp], xmm0
  01582	b8 04 00 00 00	 mov	 eax, 4
  01587	6b c8 03	 imul	 ecx, eax, 3
  0158a	8b 54 0d cc	 mov	 edx, DWORD PTR _sun_colour$15[ebp+ecx]
  0158e	52		 push	 edx
  0158f	51		 push	 ecx
  01590	0f 57 c0	 xorps	 xmm0, xmm0
  01593	f3 0f 11 04 24	 movss	 DWORD PTR [esp], xmm0
  01598	51		 push	 ecx
  01599	0f 57 c0	 xorps	 xmm0, xmm0
  0159c	f3 0f 11 04 24	 movss	 DWORD PTR [esp], xmm0
  015a1	6a 01		 push	 1
  015a3	a1 00 00 00 00	 mov	 eax, DWORD PTR ?main_3d_env@@3PAUENV_3D@@A ; main_3d_env
  015a8	50		 push	 eax
  015a9	e8 00 00 00 00	 call	 ?add_3d_sun_setting@@YGXPAUENV_3D@@W4WEATHERMODES@@MMUREAL_COLOUR@@M2MMMHM@Z ; add_3d_sun_setting

; 368  : 		add_3d_sun_setting ( main_3d_env, WEATHERMODE_DRY, 0.0, 0.0, sun_colour[3], 1.0, sun_light_colour[6], 1.5, rad ( 70 ), rad ( 315 ), TRUE, NIGHT_TIME );

  015ae	51		 push	 ecx
  015af	f3 0f 10 05 00
	00 00 00	 movss	 xmm0, DWORD PTR __real@467d2000
  015b7	f3 0f 11 04 24	 movss	 DWORD PTR [esp], xmm0
  015bc	6a 01		 push	 1
  015be	51		 push	 ecx
  015bf	f3 0f 10 05 00
	00 00 00	 movss	 xmm0, DWORD PTR __real@40afeddf
  015c7	f3 0f 11 04 24	 movss	 DWORD PTR [esp], xmm0
  015cc	51		 push	 ecx
  015cd	f3 0f 10 05 00
	00 00 00	 movss	 xmm0, DWORD PTR __real@3f9c61aa
  015d5	f3 0f 11 04 24	 movss	 DWORD PTR [esp], xmm0
  015da	51		 push	 ecx
  015db	f3 0f 10 05 00
	00 00 00	 movss	 xmm0, DWORD PTR __real@3fc00000
  015e3	f3 0f 11 04 24	 movss	 DWORD PTR [esp], xmm0
  015e8	b8 04 00 00 00	 mov	 eax, 4
  015ed	6b c8 06	 imul	 ecx, eax, 6
  015f0	8b 54 0d a8	 mov	 edx, DWORD PTR _sun_light_colour$14[ebp+ecx]
  015f4	52		 push	 edx
  015f5	51		 push	 ecx
  015f6	f3 0f 10 05 00
	00 00 00	 movss	 xmm0, DWORD PTR __real@3f800000
  015fe	f3 0f 11 04 24	 movss	 DWORD PTR [esp], xmm0
  01603	b8 04 00 00 00	 mov	 eax, 4
  01608	6b c8 03	 imul	 ecx, eax, 3
  0160b	8b 54 0d cc	 mov	 edx, DWORD PTR _sun_colour$15[ebp+ecx]
  0160f	52		 push	 edx
  01610	51		 push	 ecx
  01611	0f 57 c0	 xorps	 xmm0, xmm0
  01614	f3 0f 11 04 24	 movss	 DWORD PTR [esp], xmm0
  01619	51		 push	 ecx
  0161a	0f 57 c0	 xorps	 xmm0, xmm0
  0161d	f3 0f 11 04 24	 movss	 DWORD PTR [esp], xmm0
  01622	6a 01		 push	 1
  01624	a1 00 00 00 00	 mov	 eax, DWORD PTR ?main_3d_env@@3PAUENV_3D@@A ; main_3d_env
  01629	50		 push	 eax
  0162a	e8 00 00 00 00	 call	 ?add_3d_sun_setting@@YGXPAUENV_3D@@W4WEATHERMODES@@MMUREAL_COLOUR@@M2MMMHM@Z ; add_3d_sun_setting

; 369  : 
; 370  : 		add_3d_sun_setting ( main_3d_env, WEATHERMODE_LIGHT_RAIN, 1.0, 0.6, sun_colour[0], 0.70, sun_light_colour[7], 1.35, rad ( 90 ), rad ( 0 ), TRUE, SUN_RISE_START_TIME );

  0162f	51		 push	 ecx
  01630	f3 0f 10 05 00
	00 00 00	 movss	 xmm0, DWORD PTR __real@46a8c000
  01638	f3 0f 11 04 24	 movss	 DWORD PTR [esp], xmm0
  0163d	6a 01		 push	 1
  0163f	51		 push	 ecx
  01640	0f 57 c0	 xorps	 xmm0, xmm0
  01643	f3 0f 11 04 24	 movss	 DWORD PTR [esp], xmm0
  01648	51		 push	 ecx
  01649	f3 0f 10 05 00
	00 00 00	 movss	 xmm0, DWORD PTR __real@3fc90fdb
  01651	f3 0f 11 04 24	 movss	 DWORD PTR [esp], xmm0
  01656	51		 push	 ecx
  01657	f3 0f 10 05 00
