; Listing generated by Microsoft (R) Optimizing Compiler Version 19.16.27045.0 

	TITLE	C:\Users\nhv90\Projects\eech\modules\3d\3denvget.c
	.686P
	.XMM
	include listing.inc
	.model	flat

INCLUDELIB MSVCRTD
INCLUDELIB OLDNAMES

PUBLIC	?get_3d_active_environment@@YGPAUENV_3D@@XZ	; get_3d_active_environment
PUBLIC	?get_3d_time_of_day@@YGMPAUENV_3D@@@Z		; get_3d_time_of_day
PUBLIC	?get_3d_delta_time@@YGMPAUENV_3D@@@Z		; get_3d_delta_time
PUBLIC	?get_3d_weathermode@@YG?AW4WEATHERMODES@@PAUENV_3D@@@Z ; get_3d_weathermode
PUBLIC	?get_3d_target_weathermode@@YG?AW4WEATHERMODES@@PAUENV_3D@@@Z ; get_3d_target_weathermode
PUBLIC	?get_3d_target_weathermode_transitional_status@@YGMPAUENV_3D@@@Z ; get_3d_target_weathermode_transitional_status
PUBLIC	?get_3d_render_filter@@YG?AW4RENDER_FILTERS@@PAUENV_3D@@@Z ; get_3d_render_filter
PUBLIC	?get_3d_fog_colour@@YG?AUREAL_COLOUR@@PAUENV_3D@@@Z ; get_3d_fog_colour
PUBLIC	?get_monochrome_mode@@YGHPAUENV_3D@@@Z		; get_monochrome_mode
PUBLIC	?__LINE__Var@?0??get_3d_time_of_day@@YGMPAUENV_3D@@@Z@4JA ; `get_3d_time_of_day'::`1'::__LINE__Var
PUBLIC	??_C@_0DD@DFEMCFOI@c?3?2users?2nhv90?2projects?2eech?2mo@ ; `string'
PUBLIC	??_C@_03OJGPBPII@env@				; `string'
PUBLIC	?__LINE__Var@?0??get_3d_delta_time@@YGMPAUENV_3D@@@Z@4JA ; `get_3d_delta_time'::`1'::__LINE__Var
PUBLIC	?__LINE__Var@?0??get_3d_weathermode@@YG?AW4WEATHERMODES@@PAUENV_3D@@@Z@4JA ; `get_3d_weathermode'::`1'::__LINE__Var
PUBLIC	?__LINE__Var@?0??get_3d_target_weathermode@@YG?AW4WEATHERMODES@@PAUENV_3D@@@Z@4JA ; `get_3d_target_weathermode'::`1'::__LINE__Var
PUBLIC	?__LINE__Var@?0??get_3d_target_weathermode_transitional_status@@YGMPAUENV_3D@@@Z@4JA ; `get_3d_target_weathermode_transitional_status'::`1'::__LINE__Var
PUBLIC	?__LINE__Var@?0??get_3d_render_filter@@YG?AW4RENDER_FILTERS@@PAUENV_3D@@@Z@4JA ; `get_3d_render_filter'::`1'::__LINE__Var
PUBLIC	?__LINE__Var@?0??get_3d_fog_colour@@YG?AUREAL_COLOUR@@PAUENV_3D@@@Z@4JA ; `get_3d_fog_colour'::`1'::__LINE__Var
EXTRN	?process_assert@@YGXPBD0H@Z:PROC		; process_assert
EXTRN	?active_3d_environment@@3PAUENV_3D@@A:DWORD	; active_3d_environment
EXTRN	__fltused:DWORD
;	COMDAT ?__LINE__Var@?0??get_3d_fog_colour@@YG?AUREAL_COLOUR@@PAUENV_3D@@@Z@4JA
_DATA	SEGMENT
?__LINE__Var@?0??get_3d_fog_colour@@YG?AUREAL_COLOUR@@PAUENV_3D@@@Z@4JA DD 0a4H ; `get_3d_fog_colour'::`1'::__LINE__Var
_DATA	ENDS
;	COMDAT ?__LINE__Var@?0??get_3d_render_filter@@YG?AW4RENDER_FILTERS@@PAUENV_3D@@@Z@4JA
_DATA	SEGMENT
?__LINE__Var@?0??get_3d_render_filter@@YG?AW4RENDER_FILTERS@@PAUENV_3D@@@Z@4JA DD 098H ; `get_3d_render_filter'::`1'::__LINE__Var
_DATA	ENDS
;	COMDAT ?__LINE__Var@?0??get_3d_target_weathermode_transitional_status@@YGMPAUENV_3D@@@Z@4JA
_DATA	SEGMENT
?__LINE__Var@?0??get_3d_target_weathermode_transitional_status@@YGMPAUENV_3D@@@Z@4JA DD 08cH ; `get_3d_target_weathermode_transitional_status'::`1'::__LINE__Var
_DATA	ENDS
;	COMDAT ?__LINE__Var@?0??get_3d_target_weathermode@@YG?AW4WEATHERMODES@@PAUENV_3D@@@Z@4JA
_DATA	SEGMENT
?__LINE__Var@?0??get_3d_target_weathermode@@YG?AW4WEATHERMODES@@PAUENV_3D@@@Z@4JA DD 080H ; `get_3d_target_weathermode'::`1'::__LINE__Var
_DATA	ENDS
;	COMDAT ?__LINE__Var@?0??get_3d_weathermode@@YG?AW4WEATHERMODES@@PAUENV_3D@@@Z@4JA
_DATA	SEGMENT
?__LINE__Var@?0??get_3d_weathermode@@YG?AW4WEATHERMODES@@PAUENV_3D@@@Z@4JA DD 074H ; `get_3d_weathermode'::`1'::__LINE__Var
_DATA	ENDS
;	COMDAT ?__LINE__Var@?0??get_3d_delta_time@@YGMPAUENV_3D@@@Z@4JA
_DATA	SEGMENT
?__LINE__Var@?0??get_3d_delta_time@@YGMPAUENV_3D@@@Z@4JA DD 068H ; `get_3d_delta_time'::`1'::__LINE__Var
_DATA	ENDS
;	COMDAT ??_C@_03OJGPBPII@env@
CONST	SEGMENT
??_C@_03OJGPBPII@env@ DB 'env', 00H			; `string'
CONST	ENDS
;	COMDAT ??_C@_0DD@DFEMCFOI@c?3?2users?2nhv90?2projects?2eech?2mo@
CONST	SEGMENT
??_C@_0DD@DFEMCFOI@c?3?2users?2nhv90?2projects?2eech?2mo@ DB 'c:\users\nh'
	DB	'v90\projects\eech\modules\3d\3denvget.c', 00H ; `string'
CONST	ENDS
;	COMDAT ?__LINE__Var@?0??get_3d_time_of_day@@YGMPAUENV_3D@@@Z@4JA
_DATA	SEGMENT
?__LINE__Var@?0??get_3d_time_of_day@@YGMPAUENV_3D@@@Z@4JA DD 05cH ; `get_3d_time_of_day'::`1'::__LINE__Var
_DATA	ENDS
; Function compile flags: /Odtp /ZI
; File c:\users\nhv90\projects\eech\modules\3d\3denvget.c
;	COMDAT ?get_monochrome_mode@@YGHPAUENV_3D@@@Z
_TEXT	SEGMENT
tv66 = -68						; size = 4
_env$ = 8						; size = 4
?get_monochrome_mode@@YGHPAUENV_3D@@@Z PROC		; get_monochrome_mode, COMDAT

; 176  : {

  00000	55		 push	 ebp
  00001	8b ec		 mov	 ebp, esp
  00003	83 ec 44	 sub	 esp, 68			; 00000044H
  00006	53		 push	 ebx
  00007	56		 push	 esi
  00008	57		 push	 edi

; 177  : 	return env->render_filter == RENDER_MONOCHROME;

  00009	8b 45 08	 mov	 eax, DWORD PTR _env$[ebp]
  0000c	83 b8 d0 02 00
	00 03		 cmp	 DWORD PTR [eax+720], 3
  00013	75 09		 jne	 SHORT $LN3@get_monoch
  00015	c7 45 bc 01 00
	00 00		 mov	 DWORD PTR tv66[ebp], 1
  0001c	eb 07		 jmp	 SHORT $LN4@get_monoch
$LN3@get_monoch:
  0001e	c7 45 bc 00 00
	00 00		 mov	 DWORD PTR tv66[ebp], 0
$LN4@get_monoch:
  00025	8b 45 bc	 mov	 eax, DWORD PTR tv66[ebp]

; 178  : }

  00028	5f		 pop	 edi
  00029	5e		 pop	 esi
  0002a	5b		 pop	 ebx
  0002b	8b e5		 mov	 esp, ebp
  0002d	5d		 pop	 ebp
  0002e	c2 04 00	 ret	 4
?get_monochrome_mode@@YGHPAUENV_3D@@@Z ENDP		; get_monochrome_mode
_TEXT	ENDS
; Function compile flags: /Odtp /ZI
; File c:\users\nhv90\projects\eech\modules\3d\3denvget.c
;	COMDAT ?get_3d_fog_colour@@YG?AUREAL_COLOUR@@PAUENV_3D@@@Z
_TEXT	SEGMENT
_env$ = 8						; size = 4
?get_3d_fog_colour@@YG?AUREAL_COLOUR@@PAUENV_3D@@@Z PROC ; get_3d_fog_colour, COMDAT

; 164  : {

  00000	55		 push	 ebp
  00001	8b ec		 mov	 ebp, esp
  00003	83 ec 40	 sub	 esp, 64			; 00000040H
  00006	53		 push	 ebx
  00007	56		 push	 esi
  00008	57		 push	 edi

; 165  : 
; 166  : 	ASSERT ( env );

  00009	83 7d 08 00	 cmp	 DWORD PTR _env$[ebp], 0
  0000d	75 18		 jne	 SHORT $LN2@get_3d_fog
  0000f	a1 00 00 00 00	 mov	 eax, DWORD PTR ?__LINE__Var@?0??get_3d_fog_colour@@YG?AUREAL_COLOUR@@PAUENV_3D@@@Z@4JA
  00014	83 c0 02	 add	 eax, 2
  00017	50		 push	 eax
  00018	68 00 00 00 00	 push	 OFFSET ??_C@_0DD@DFEMCFOI@c?3?2users?2nhv90?2projects?2eech?2mo@
  0001d	68 00 00 00 00	 push	 OFFSET ??_C@_03OJGPBPII@env@
  00022	e8 00 00 00 00	 call	 ?process_assert@@YGXPBD0H@Z ; process_assert
$LN2@get_3d_fog:

; 167  : 
; 168  : 	return ( env->fog_colour );

  00027	8b 45 08	 mov	 eax, DWORD PTR _env$[ebp]
  0002a	8b 40 68	 mov	 eax, DWORD PTR [eax+104]

; 169  : }

  0002d	5f		 pop	 edi
  0002e	5e		 pop	 esi
  0002f	5b		 pop	 ebx
  00030	8b e5		 mov	 esp, ebp
  00032	5d		 pop	 ebp
  00033	c2 04 00	 ret	 4
?get_3d_fog_colour@@YG?AUREAL_COLOUR@@PAUENV_3D@@@Z ENDP ; get_3d_fog_colour
_TEXT	ENDS
; Function compile flags: /Odtp /ZI
; File c:\users\nhv90\projects\eech\modules\3d\3denvget.c
;	COMDAT ?get_3d_render_filter@@YG?AW4RENDER_FILTERS@@PAUENV_3D@@@Z
_TEXT	SEGMENT
_env$ = 8						; size = 4
?get_3d_render_filter@@YG?AW4RENDER_FILTERS@@PAUENV_3D@@@Z PROC ; get_3d_render_filter, COMDAT

; 152  : {

  00000	55		 push	 ebp
  00001	8b ec		 mov	 ebp, esp
  00003	83 ec 40	 sub	 esp, 64			; 00000040H
  00006	53		 push	 ebx
  00007	56		 push	 esi
  00008	57		 push	 edi

; 153  : 
; 154  : 	ASSERT ( env );

  00009	83 7d 08 00	 cmp	 DWORD PTR _env$[ebp], 0
  0000d	75 18		 jne	 SHORT $LN2@get_3d_ren
  0000f	a1 00 00 00 00	 mov	 eax, DWORD PTR ?__LINE__Var@?0??get_3d_render_filter@@YG?AW4RENDER_FILTERS@@PAUENV_3D@@@Z@4JA
  00014	83 c0 02	 add	 eax, 2
  00017	50		 push	 eax
  00018	68 00 00 00 00	 push	 OFFSET ??_C@_0DD@DFEMCFOI@c?3?2users?2nhv90?2projects?2eech?2mo@
  0001d	68 00 00 00 00	 push	 OFFSET ??_C@_03OJGPBPII@env@
  00022	e8 00 00 00 00	 call	 ?process_assert@@YGXPBD0H@Z ; process_assert
$LN2@get_3d_ren:

; 155  : 
; 156  : 	return ( env->render_filter );

  00027	8b 45 08	 mov	 eax, DWORD PTR _env$[ebp]
  0002a	8b 80 d0 02 00
	00		 mov	 eax, DWORD PTR [eax+720]

; 157  : }

  00030	5f		 pop	 edi
  00031	5e		 pop	 esi
  00032	5b		 pop	 ebx
  00033	8b e5		 mov	 esp, ebp
  00035	5d		 pop	 ebp
  00036	c2 04 00	 ret	 4
?get_3d_render_filter@@YG?AW4RENDER_FILTERS@@PAUENV_3D@@@Z ENDP ; get_3d_render_filter
_TEXT	ENDS
; Function compile flags: /Odtp /ZI
; File c:\users\nhv90\projects\eech\modules\3d\3denvget.c
;	COMDAT ?get_3d_target_weathermode_transitional_status@@YGMPAUENV_3D@@@Z
_TEXT	SEGMENT
tv74 = -68						; size = 4
_env$ = 8						; size = 4
?get_3d_target_weathermode_transitional_status@@YGMPAUENV_3D@@@Z PROC ; get_3d_target_weathermode_transitional_status, COMDAT

; 140  : {

  00000	55		 push	 ebp
  00001	8b ec		 mov	 ebp, esp
  00003	83 ec 44	 sub	 esp, 68			; 00000044H
  00006	53		 push	 ebx
  00007	56		 push	 esi
  00008	57		 push	 edi

; 141  : 
; 142  : 	ASSERT ( env );

  00009	83 7d 08 00	 cmp	 DWORD PTR _env$[ebp], 0
  0000d	75 18		 jne	 SHORT $LN2@get_3d_tar
  0000f	a1 00 00 00 00	 mov	 eax, DWORD PTR ?__LINE__Var@?0??get_3d_target_weathermode_transitional_status@@YGMPAUENV_3D@@@Z@4JA
  00014	83 c0 02	 add	 eax, 2
  00017	50		 push	 eax
  00018	68 00 00 00 00	 push	 OFFSET ??_C@_0DD@DFEMCFOI@c?3?2users?2nhv90?2projects?2eech?2mo@
  0001d	68 00 00 00 00	 push	 OFFSET ??_C@_03OJGPBPII@env@
  00022	e8 00 00 00 00	 call	 ?process_assert@@YGXPBD0H@Z ; process_assert
$LN2@get_3d_tar:

; 143  : 
; 144  : 	return ( env->weather_targetdistance );

  00027	8b 45 08	 mov	 eax, DWORD PTR _env$[ebp]
  0002a	f3 0f 10 80 dc
	02 00 00	 movss	 xmm0, DWORD PTR [eax+732]
  00032	f3 0f 11 45 bc	 movss	 DWORD PTR tv74[ebp], xmm0
  00037	d9 45 bc	 fld	 DWORD PTR tv74[ebp]

; 145  : }

  0003a	5f		 pop	 edi
  0003b	5e		 pop	 esi
  0003c	5b		 pop	 ebx
  0003d	8b e5		 mov	 esp, ebp
  0003f	5d		 pop	 ebp
  00040	c2 04 00	 ret	 4
?get_3d_target_weathermode_transitional_status@@YGMPAUENV_3D@@@Z ENDP ; get_3d_target_weathermode_transitional_status
_TEXT	ENDS
; Function compile flags: /Odtp /ZI
; File c:\users\nhv90\projects\eech\modules\3d\3denvget.c
;	COMDAT ?get_3d_target_weathermode@@YG?AW4WEATHERMODES@@PAUENV_3D@@@Z
_TEXT	SEGMENT
_env$ = 8						; size = 4
?get_3d_target_weathermode@@YG?AW4WEATHERMODES@@PAUENV_3D@@@Z PROC ; get_3d_target_weathermode, COMDAT

; 128  : {

  00000	55		 push	 ebp
  00001	8b ec		 mov	 ebp, esp
  00003	83 ec 40	 sub	 esp, 64			; 00000040H
  00006	53		 push	 ebx
  00007	56		 push	 esi
  00008	57		 push	 edi

; 129  : 
; 130  : 	ASSERT ( env );

  00009	83 7d 08 00	 cmp	 DWORD PTR _env$[ebp], 0
  0000d	75 18		 jne	 SHORT $LN2@get_3d_tar
  0000f	a1 00 00 00 00	 mov	 eax, DWORD PTR ?__LINE__Var@?0??get_3d_target_weathermode@@YG?AW4WEATHERMODES@@PAUENV_3D@@@Z@4JA
  00014	83 c0 02	 add	 eax, 2
  00017	50		 push	 eax
  00018	68 00 00 00 00	 push	 OFFSET ??_C@_0DD@DFEMCFOI@c?3?2users?2nhv90?2projects?2eech?2mo@
  0001d	68 00 00 00 00	 push	 OFFSET ??_C@_03OJGPBPII@env@
  00022	e8 00 00 00 00	 call	 ?process_assert@@YGXPBD0H@Z ; process_assert
$LN2@get_3d_tar:

; 131  : 
; 132  : 	return ( env->target_weathermode );

  00027	8b 45 08	 mov	 eax, DWORD PTR _env$[ebp]
  0002a	8b 80 d8 02 00
	00		 mov	 eax, DWORD PTR [eax+728]

; 133  : }

  00030	5f		 pop	 edi
  00031	5e		 pop	 esi
  00032	5b		 pop	 ebx
  00033	8b e5		 mov	 esp, ebp
  00035	5d		 pop	 ebp
  00036	c2 04 00	 ret	 4
?get_3d_target_weathermode@@YG?AW4WEATHERMODES@@PAUENV_3D@@@Z ENDP ; get_3d_target_weathermode
_TEXT	ENDS
; Function compile flags: /Odtp /ZI
; File c:\users\nhv90\projects\eech\modules\3d\3denvget.c
;	COMDAT ?get_3d_weathermode@@YG?AW4WEATHERMODES@@PAUENV_3D@@@Z
_TEXT	SEGMENT
_env$ = 8						; size = 4
?get_3d_weathermode@@YG?AW4WEATHERMODES@@PAUENV_3D@@@Z PROC ; get_3d_weathermode, COMDAT

; 116  : {

  00000	55		 push	 ebp
  00001	8b ec		 mov	 ebp, esp
  00003	83 ec 40	 sub	 esp, 64			; 00000040H
  00006	53		 push	 ebx
  00007	56		 push	 esi
  00008	57		 push	 edi

; 117  : 
; 118  : 	ASSERT ( env );

  00009	83 7d 08 00	 cmp	 DWORD PTR _env$[ebp], 0
  0000d	75 18		 jne	 SHORT $LN2@get_3d_wea
  0000f	a1 00 00 00 00	 mov	 eax, DWORD PTR ?__LINE__Var@?0??get_3d_weathermode@@YG?AW4WEATHERMODES@@PAUENV_3D@@@Z@4JA
  00014	83 c0 02	 add	 eax, 2
  00017	50		 push	 eax
  00018	68 00 00 00 00	 push	 OFFSET ??_C@_0DD@DFEMCFOI@c?3?2users?2nhv90?2projects?2eech?2mo@
  0001d	68 00 00 00 00	 push	 OFFSET ??_C@_03OJGPBPII@env@
  00022	e8 00 00 00 00	 call	 ?process_assert@@YGXPBD0H@Z ; process_assert
$LN2@get_3d_wea:

; 119  : 
; 120  : 	return ( env->weathermode );

  00027	8b 45 08	 mov	 eax, DWORD PTR _env$[ebp]
  0002a	8b 80 d4 02 00
	00		 mov	 eax, DWORD PTR [eax+724]

; 121  : }

  00030	5f		 pop	 edi
  00031	5e		 pop	 esi
  00032	5b		 pop	 ebx
  00033	8b e5		 mov	 esp, ebp
  00035	5d		 pop	 ebp
  00036	c2 04 00	 ret	 4
?get_3d_weathermode@@YG?AW4WEATHERMODES@@PAUENV_3D@@@Z ENDP ; get_3d_weathermode
_TEXT	ENDS
; Function compile flags: /Odtp /ZI
; File c:\users\nhv90\projects\eech\modules\3d\3denvget.c
;	COMDAT ?get_3d_delta_time@@YGMPAUENV_3D@@@Z
_TEXT	SEGMENT
tv74 = -68						; size = 4
_env$ = 8						; size = 4
?get_3d_delta_time@@YGMPAUENV_3D@@@Z PROC		; get_3d_delta_time, COMDAT

; 104  : {

  00000	55		 push	 ebp
  00001	8b ec		 mov	 ebp, esp
  00003	83 ec 44	 sub	 esp, 68			; 00000044H
  00006	53		 push	 ebx
  00007	56		 push	 esi
  00008	57		 push	 edi

; 105  : 
; 106  : 	ASSERT ( env );

  00009	83 7d 08 00	 cmp	 DWORD PTR _env$[ebp], 0
  0000d	75 18		 jne	 SHORT $LN2@get_3d_del
  0000f	a1 00 00 00 00	 mov	 eax, DWORD PTR ?__LINE__Var@?0??get_3d_delta_time@@YGMPAUENV_3D@@@Z@4JA
  00014	83 c0 02	 add	 eax, 2
  00017	50		 push	 eax
  00018	68 00 00 00 00	 push	 OFFSET ??_C@_0DD@DFEMCFOI@c?3?2users?2nhv90?2projects?2eech?2mo@
  0001d	68 00 00 00 00	 push	 OFFSET ??_C@_03OJGPBPII@env@
  00022	e8 00 00 00 00	 call	 ?process_assert@@YGXPBD0H@Z ; process_assert
$LN2@get_3d_del:

; 107  : 
; 108  : 	return ( env->delta_time );

  00027	8b 45 08	 mov	 eax, DWORD PTR _env$[ebp]
  0002a	f3 0f 10 80 e4
	02 00 00	 movss	 xmm0, DWORD PTR [eax+740]
  00032	f3 0f 11 45 bc	 movss	 DWORD PTR tv74[ebp], xmm0
  00037	d9 45 bc	 fld	 DWORD PTR tv74[ebp]

; 109  : }

  0003a	5f		 pop	 edi
  0003b	5e		 pop	 esi
  0003c	5b		 pop	 ebx
  0003d	8b e5		 mov	 esp, ebp
  0003f	5d		 pop	 ebp
  00040	c2 04 00	 ret	 4
?get_3d_delta_time@@YGMPAUENV_3D@@@Z ENDP		; get_3d_delta_time
_TEXT	ENDS
; Function compile flags: /Odtp /ZI
; File c:\users\nhv90\projects\eech\modules\3d\3denvget.c
;	COMDAT ?get_3d_time_of_day@@YGMPAUENV_3D@@@Z
_TEXT	SEGMENT
tv74 = -68						; size = 4
_env$ = 8						; size = 4
?get_3d_time_of_day@@YGMPAUENV_3D@@@Z PROC		; get_3d_time_of_day, COMDAT

; 92   : {

  00000	55		 push	 ebp
  00001	8b ec		 mov	 ebp, esp
  00003	83 ec 44	 sub	 esp, 68			; 00000044H
  00006	53		 push	 ebx
  00007	56		 push	 esi
  00008	57		 push	 edi

; 93   : 
; 94   : 	ASSERT ( env );

  00009	83 7d 08 00	 cmp	 DWORD PTR _env$[ebp], 0
  0000d	75 18		 jne	 SHORT $LN2@get_3d_tim
  0000f	a1 00 00 00 00	 mov	 eax, DWORD PTR ?__LINE__Var@?0??get_3d_time_of_day@@YGMPAUENV_3D@@@Z@4JA
  00014	83 c0 02	 add	 eax, 2
  00017	50		 push	 eax
  00018	68 00 00 00 00	 push	 OFFSET ??_C@_0DD@DFEMCFOI@c?3?2users?2nhv90?2projects?2eech?2mo@
  0001d	68 00 00 00 00	 push	 OFFSET ??_C@_03OJGPBPII@env@
  00022	e8 00 00 00 00	 call	 ?process_assert@@YGXPBD0H@Z ; process_assert
$LN2@get_3d_tim:

; 95   : 
; 96   : 	return ( env->time_of_day );

  00027	8b 45 08	 mov	 eax, DWORD PTR _env$[ebp]
  0002a	f3 0f 10 80 e0
	02 00 00	 movss	 xmm0, DWORD PTR [eax+736]
  00032	f3 0f 11 45 bc	 movss	 DWORD PTR tv74[ebp], xmm0
  00037	d9 45 bc	 fld	 DWORD PTR tv74[ebp]

; 97   : }

  0003a	5f		 pop	 edi
  0003b	5e		 pop	 esi
  0003c	5b		 pop	 ebx
  0003d	8b e5		 mov	 esp, ebp
  0003f	5d		 pop	 ebp
  00040	c2 04 00	 ret	 4
?get_3d_time_of_day@@YGMPAUENV_3D@@@Z ENDP		; get_3d_time_of_day
_TEXT	ENDS
; Function compile flags: /Odtp /ZI
; File c:\users\nhv90\projects\eech\modules\3d\3denvget.c
;	COMDAT ?get_3d_active_environment@@YGPAUENV_3D@@XZ
_TEXT	SEGMENT
?get_3d_active_environment@@YGPAUENV_3D@@XZ PROC	; get_3d_active_environment, COMDAT

; 82   : {

  00000	55		 push	 ebp
  00001	8b ec		 mov	 ebp, esp
  00003	83 ec 40	 sub	 esp, 64			; 00000040H
  00006	53		 push	 ebx
  00007	56		 push	 esi
  00008	57		 push	 edi

; 83   : 
; 84   : 	return ( active_3d_environment );

  00009	a1 00 00 00 00	 mov	 eax, DWORD PTR ?active_3d_environment@@3PAUENV_3D@@A ; active_3d_environment

; 85   : }

  0000e	5f		 pop	 edi
  0000f	5e		 pop	 esi
  00010	5b		 pop	 ebx
  00011	8b e5		 mov	 esp, ebp
  00013	5d		 pop	 ebp
  00014	c3		 ret	 0
?get_3d_active_environment@@YGPAUENV_3D@@XZ ENDP	; get_3d_active_environment
_TEXT	ENDS
END
