; Listing generated by Microsoft (R) Optimizing Compiler Version 19.16.27045.0 

	TITLE	C:\Users\nhv90\Projects\eech\modules\3d\3dtemp.c
	.686P
	.XMM
	include listing.inc
	.model	flat

INCLUDELIB MSVCRTD
INCLUDELIB OLDNAMES

PUBLIC	?initialise_temporary_3d_instances@@YGXXZ	; initialise_temporary_3d_instances
PUBLIC	?clear_temporary_3d_instances@@YGXXZ		; clear_temporary_3d_instances
PUBLIC	?construct_temporary_3d_object@@YGPAUOBJECT_3D_INSTANCE@@HH@Z ; construct_temporary_3d_object
PUBLIC	?__LINE__Var@?0??construct_temporary_3d_object@@YGPAUOBJECT_3D_INSTANCE@@HH@Z@4JA ; `construct_temporary_3d_object'::`1'::__LINE__Var
PUBLIC	??_C@_0DB@OAMHACIL@c?3?2users?2nhv90?2projects?2eech?2mo@ ; `string'
PUBLIC	??_C@_0O@EGHBDILK@this_instance@		; `string'
PUBLIC	??_C@_0BL@LJJFJBNJ@object?9?$DOtexture_animations@ ; `string'
PUBLIC	__real@3f800000
EXTRN	_memset:PROC
EXTRN	?process_assert@@YGXPBD0H@Z:PROC		; process_assert
EXTRN	?malloc_fast_memory@@YGPAXI@Z:PROC		; malloc_fast_memory
EXTRN	?free_mem@@YGXPAX@Z:PROC			; free_mem
EXTRN	?get_3d_transformation_matrix@@YGXQAY02MMMM@Z:PROC ; get_3d_transformation_matrix
EXTRN	?construct_3d_object@@YGPAUOBJECT_3D_INSTANCE@@H@Z:PROC ; construct_3d_object
EXTRN	?destruct_3d_object@@YGXPAUOBJECT_3D_INSTANCE@@@Z:PROC ; destruct_3d_object
EXTRN	?objects_3d_scene_database@@3PAUOBJECT_3D_SCENE_DATABASE_ENTRY@@A:DWORD ; objects_3d_scene_database
EXTRN	__fltused:DWORD
_BSS	SEGMENT
?temporary_3d_objects@@3PAUTEMPORARY_OBJECT_3D_INSTANCE@@A DD 01H DUP (?) ; temporary_3d_objects
_BSS	ENDS
;	COMDAT __real@3f800000
CONST	SEGMENT
__real@3f800000 DD 03f800000r			; 1
CONST	ENDS
;	COMDAT ??_C@_0BL@LJJFJBNJ@object?9?$DOtexture_animations@
CONST	SEGMENT
??_C@_0BL@LJJFJBNJ@object?9?$DOtexture_animations@ DB 'object->texture_an'
	DB	'imations', 00H				; `string'
CONST	ENDS
;	COMDAT ??_C@_0O@EGHBDILK@this_instance@
CONST	SEGMENT
??_C@_0O@EGHBDILK@this_instance@ DB 'this_instance', 00H ; `string'
CONST	ENDS
;	COMDAT ??_C@_0DB@OAMHACIL@c?3?2users?2nhv90?2projects?2eech?2mo@
CONST	SEGMENT
??_C@_0DB@OAMHACIL@c?3?2users?2nhv90?2projects?2eech?2mo@ DB 'c:\users\nh'
	DB	'v90\projects\eech\modules\3d\3dtemp.c', 00H	; `string'
CONST	ENDS
;	COMDAT ?__LINE__Var@?0??construct_temporary_3d_object@@YGPAUOBJECT_3D_INSTANCE@@HH@Z@4JA
_DATA	SEGMENT
?__LINE__Var@?0??construct_temporary_3d_object@@YGPAUOBJECT_3D_INSTANCE@@HH@Z@4JA DD 085H ; `construct_temporary_3d_object'::`1'::__LINE__Var
_DATA	ENDS
; Function compile flags: /Odtp /ZI
; File c:\users\nhv90\projects\eech\modules\3d\3dtemp.c
;	COMDAT ?construct_temporary_3d_object@@YGPAUOBJECT_3D_INSTANCE@@HH@Z
_TEXT	SEGMENT
_object$ = -8						; size = 4
_this_instance$ = -4					; size = 4
_index$ = 8						; size = 4
_real_object$ = 12					; size = 4
?construct_temporary_3d_object@@YGPAUOBJECT_3D_INSTANCE@@HH@Z PROC ; construct_temporary_3d_object, COMDAT

; 133  : {

  00000	55		 push	 ebp
  00001	8b ec		 mov	 ebp, esp
  00003	83 ec 48	 sub	 esp, 72			; 00000048H
  00006	53		 push	 ebx
  00007	56		 push	 esi
  00008	57		 push	 edi

; 134  : 
; 135  : 	temporary_object_3d_instance
; 136  : 		*this_instance;
; 137  : 
; 138  : 	object_3d_instance
; 139  : 		*object;
; 140  : 
; 141  : 	this_instance = ( temporary_object_3d_instance * ) malloc_fast_mem ( sizeof ( temporary_object_3d_instance ) );

  00009	6a 0c		 push	 12			; 0000000cH
  0000b	e8 00 00 00 00	 call	 ?malloc_fast_memory@@YGPAXI@Z ; malloc_fast_memory
  00010	89 45 fc	 mov	 DWORD PTR _this_instance$[ebp], eax

; 142  : 
; 143  : 	ASSERT ( this_instance );

  00013	83 7d fc 00	 cmp	 DWORD PTR _this_instance$[ebp], 0
  00017	75 18		 jne	 SHORT $LN2@construct_
  00019	a1 00 00 00 00	 mov	 eax, DWORD PTR ?__LINE__Var@?0??construct_temporary_3d_object@@YGPAUOBJECT_3D_INSTANCE@@HH@Z@4JA
  0001e	83 c0 0a	 add	 eax, 10			; 0000000aH
  00021	50		 push	 eax
  00022	68 00 00 00 00	 push	 OFFSET ??_C@_0DB@OAMHACIL@c?3?2users?2nhv90?2projects?2eech?2mo@
  00027	68 00 00 00 00	 push	 OFFSET ??_C@_0O@EGHBDILK@this_instance@
  0002c	e8 00 00 00 00	 call	 ?process_assert@@YGXPBD0H@Z ; process_assert
$LN2@construct_:

; 144  : 
; 145  : 	this_instance->real_object = real_object;

  00031	8b 45 fc	 mov	 eax, DWORD PTR _this_instance$[ebp]
  00034	8b 4d 0c	 mov	 ecx, DWORD PTR _real_object$[ebp]
  00037	89 48 08	 mov	 DWORD PTR [eax+8], ecx

; 146  : 
; 147  : 	if ( real_object )

  0003a	83 7d 0c 00	 cmp	 DWORD PTR _real_object$[ebp], 0
  0003e	74 13		 je	 SHORT $LN3@construct_

; 148  : 	{
; 149  : 
; 150  : 		this_instance->instance = construct_3d_object ( index );

  00040	8b 45 08	 mov	 eax, DWORD PTR _index$[ebp]
  00043	50		 push	 eax
  00044	e8 00 00 00 00	 call	 ?construct_3d_object@@YGPAUOBJECT_3D_INSTANCE@@H@Z ; construct_3d_object
  00049	8b 4d fc	 mov	 ecx, DWORD PTR _this_instance$[ebp]
  0004c	89 01		 mov	 DWORD PTR [ecx], eax

; 151  : 	}
; 152  : 	else

  0004e	e9 7e 01 00 00	 jmp	 $LN6@construct_
$LN3@construct_:

; 153  : 	{
; 154  : 
; 155  : 		object = ( object_3d_instance * ) malloc_fast_mem ( sizeof ( object_3d_instance ) );

  00053	6a 5c		 push	 92			; 0000005cH
  00055	e8 00 00 00 00	 call	 ?malloc_fast_memory@@YGPAXI@Z ; malloc_fast_memory
  0005a	89 45 f8	 mov	 DWORD PTR _object$[ebp], eax

; 156  : 
; 157  : 		this_instance->instance = object;

  0005d	8b 45 fc	 mov	 eax, DWORD PTR _this_instance$[ebp]
  00060	8b 4d f8	 mov	 ecx, DWORD PTR _object$[ebp]
  00063	89 08		 mov	 DWORD PTR [eax], ecx

; 158  : 
; 159  : 		get_3d_transformation_matrix ( object->vp.attitude, 0, 0, 0 );

  00065	51		 push	 ecx
  00066	0f 57 c0	 xorps	 xmm0, xmm0
  00069	f3 0f 11 04 24	 movss	 DWORD PTR [esp], xmm0
  0006e	51		 push	 ecx
  0006f	0f 57 c0	 xorps	 xmm0, xmm0
  00072	f3 0f 11 04 24	 movss	 DWORD PTR [esp], xmm0
  00077	51		 push	 ecx
  00078	0f 57 c0	 xorps	 xmm0, xmm0
  0007b	f3 0f 11 04 24	 movss	 DWORD PTR [esp], xmm0
  00080	8b 45 f8	 mov	 eax, DWORD PTR _object$[ebp]
  00083	83 c0 14	 add	 eax, 20			; 00000014H
  00086	50		 push	 eax
  00087	e8 00 00 00 00	 call	 ?get_3d_transformation_matrix@@YGXQAY02MMMM@Z ; get_3d_transformation_matrix

; 160  : 		object->object_number = index;

  0008c	8b 45 f8	 mov	 eax, DWORD PTR _object$[ebp]
  0008f	8b 4d 08	 mov	 ecx, DWORD PTR _index$[ebp]
  00092	89 48 04	 mov	 DWORD PTR [eax+4], ecx

; 161  : 		object->parent = NULL;

  00095	8b 45 f8	 mov	 eax, DWORD PTR _object$[ebp]
  00098	c7 00 00 00 00
	00		 mov	 DWORD PTR [eax], 0

; 162  : 		object->sub_objects = NULL;

  0009e	8b 45 f8	 mov	 eax, DWORD PTR _object$[ebp]
  000a1	c7 40 58 00 00
	00 00		 mov	 DWORD PTR [eax+88], 0

; 163  : 		object->vp.x = 0;

  000a8	8b 45 f8	 mov	 eax, DWORD PTR _object$[ebp]
  000ab	0f 57 c0	 xorps	 xmm0, xmm0
  000ae	f3 0f 11 40 08	 movss	 DWORD PTR [eax+8], xmm0

; 164  : 		object->vp.y = 0;

  000b3	8b 45 f8	 mov	 eax, DWORD PTR _object$[ebp]
  000b6	0f 57 c0	 xorps	 xmm0, xmm0
  000b9	f3 0f 11 40 0c	 movss	 DWORD PTR [eax+12], xmm0

; 165  : 		object->vp.z = 0;

  000be	8b 45 f8	 mov	 eax, DWORD PTR _object$[ebp]
  000c1	0f 57 c0	 xorps	 xmm0, xmm0
  000c4	f3 0f 11 40 10	 movss	 DWORD PTR [eax+16], xmm0

; 166  : 		object->relative_scale.x = 1;

  000c9	8b 45 f8	 mov	 eax, DWORD PTR _object$[ebp]
  000cc	f3 0f 10 05 00
	00 00 00	 movss	 xmm0, DWORD PTR __real@3f800000
  000d4	f3 0f 11 40 44	 movss	 DWORD PTR [eax+68], xmm0

; 167  : 		object->relative_scale.y = 1;

  000d9	8b 45 f8	 mov	 eax, DWORD PTR _object$[ebp]
  000dc	f3 0f 10 05 00
	00 00 00	 movss	 xmm0, DWORD PTR __real@3f800000
  000e4	f3 0f 11 40 48	 movss	 DWORD PTR [eax+72], xmm0

; 168  : 		object->relative_scale.z = 1;

  000e9	8b 45 f8	 mov	 eax, DWORD PTR _object$[ebp]
  000ec	f3 0f 10 05 00
	00 00 00	 movss	 xmm0, DWORD PTR __real@3f800000
  000f4	f3 0f 11 40 4c	 movss	 DWORD PTR [eax+76], xmm0

; 169  : 		object->object_has_shadow = TRUE;

  000f9	8b 45 f8	 mov	 eax, DWORD PTR _object$[ebp]
  000fc	8b 48 50	 mov	 ecx, DWORD PTR [eax+80]
  000ff	83 c9 04	 or	 ecx, 4
  00102	8b 55 f8	 mov	 edx, DWORD PTR _object$[ebp]
  00105	89 4a 50	 mov	 DWORD PTR [edx+80], ecx

; 170  : 		object->object_internal_lighting = FALSE;

  00108	8b 45 f8	 mov	 eax, DWORD PTR _object$[ebp]
  0010b	8b 48 50	 mov	 ecx, DWORD PTR [eax+80]
  0010e	83 e1 f7	 and	 ecx, -9			; fffffff7H
  00111	8b 55 f8	 mov	 edx, DWORD PTR _object$[ebp]
  00114	89 4a 50	 mov	 DWORD PTR [edx+80], ecx

; 171  : 		object->object_sprite_lights = FALSE;

  00117	8b 45 f8	 mov	 eax, DWORD PTR _object$[ebp]
  0011a	8b 48 50	 mov	 ecx, DWORD PTR [eax+80]
  0011d	81 e1 ff ef ff
	ff		 and	 ecx, -4097		; ffffefffH
  00123	8b 55 f8	 mov	 edx, DWORD PTR _object$[ebp]
  00126	89 4a 50	 mov	 DWORD PTR [edx+80], ecx

; 172  : 		object->requires_immediate_render = FALSE;

  00129	8b 45 f8	 mov	 eax, DWORD PTR _object$[ebp]
  0012c	8b 48 50	 mov	 ecx, DWORD PTR [eax+80]
  0012f	83 e1 fd	 and	 ecx, -3			; fffffffdH
  00132	8b 55 f8	 mov	 edx, DWORD PTR _object$[ebp]
  00135	89 4a 50	 mov	 DWORD PTR [edx+80], ecx

; 173  : 		object->object_dissolve_value = 255;

  00138	8b 45 f8	 mov	 eax, DWORD PTR _object$[ebp]
  0013b	8b 48 50	 mov	 ecx, DWORD PTR [eax+80]
  0013e	81 c9 f0 0f 00
	00		 or	 ecx, 4080		; 00000ff0H
  00144	8b 55 f8	 mov	 edx, DWORD PTR _object$[ebp]
  00147	89 4a 50	 mov	 DWORD PTR [edx+80], ecx

; 174  : 
; 175  : 		if ( objects_3d_scene_database[index].number_of_texture_animations )

  0014a	69 45 08 e0 00
	00 00		 imul	 eax, DWORD PTR _index$[ebp], 224
  00151	8b 0d 00 00 00
	00		 mov	 ecx, DWORD PTR ?objects_3d_scene_database@@3PAUOBJECT_3D_SCENE_DATABASE_ENTRY@@A ; objects_3d_scene_database
  00157	83 7c 01 14 00	 cmp	 DWORD PTR [ecx+eax+20], 0
  0015c	74 69		 je	 SHORT $LN5@construct_

; 176  : 		{
; 177  : 	
; 178  : 			object->texture_animations = ( int * ) malloc_fast_mem ( sizeof ( int ) * objects_3d_scene_database[index].number_of_texture_animations );

  0015e	69 45 08 e0 00
	00 00		 imul	 eax, DWORD PTR _index$[ebp], 224
  00165	8b 0d 00 00 00
	00		 mov	 ecx, DWORD PTR ?objects_3d_scene_database@@3PAUOBJECT_3D_SCENE_DATABASE_ENTRY@@A ; objects_3d_scene_database
  0016b	8b 54 01 14	 mov	 edx, DWORD PTR [ecx+eax+20]
  0016f	c1 e2 02	 shl	 edx, 2
  00172	52		 push	 edx
  00173	e8 00 00 00 00	 call	 ?malloc_fast_memory@@YGPAXI@Z ; malloc_fast_memory
  00178	8b 4d f8	 mov	 ecx, DWORD PTR _object$[ebp]
  0017b	89 41 54	 mov	 DWORD PTR [ecx+84], eax

; 179  : 	
; 180  : 			ASSERT ( object->texture_animations );

  0017e	8b 45 f8	 mov	 eax, DWORD PTR _object$[ebp]
  00181	83 78 54 00	 cmp	 DWORD PTR [eax+84], 0
  00185	75 18		 jne	 SHORT $LN7@construct_
  00187	a1 00 00 00 00	 mov	 eax, DWORD PTR ?__LINE__Var@?0??construct_temporary_3d_object@@YGPAUOBJECT_3D_INSTANCE@@HH@Z@4JA
  0018c	83 c0 2f	 add	 eax, 47			; 0000002fH
  0018f	50		 push	 eax
  00190	68 00 00 00 00	 push	 OFFSET ??_C@_0DB@OAMHACIL@c?3?2users?2nhv90?2projects?2eech?2mo@
  00195	68 00 00 00 00	 push	 OFFSET ??_C@_0BL@LJJFJBNJ@object?9?$DOtexture_animations@
  0019a	e8 00 00 00 00	 call	 ?process_assert@@YGXPBD0H@Z ; process_assert
$LN7@construct_:

; 181  : 	
; 182  : 			memset ( object->texture_animations, 0, ( sizeof ( int ) * objects_3d_scene_database[index].number_of_texture_animations ) );

  0019f	69 45 08 e0 00
	00 00		 imul	 eax, DWORD PTR _index$[ebp], 224
  001a6	8b 0d 00 00 00
	00		 mov	 ecx, DWORD PTR ?objects_3d_scene_database@@3PAUOBJECT_3D_SCENE_DATABASE_ENTRY@@A ; objects_3d_scene_database
  001ac	8b 54 01 14	 mov	 edx, DWORD PTR [ecx+eax+20]
  001b0	c1 e2 02	 shl	 edx, 2
  001b3	52		 push	 edx
  001b4	6a 00		 push	 0
  001b6	8b 45 f8	 mov	 eax, DWORD PTR _object$[ebp]
  001b9	8b 48 54	 mov	 ecx, DWORD PTR [eax+84]
  001bc	51		 push	 ecx
  001bd	e8 00 00 00 00	 call	 _memset
  001c2	83 c4 0c	 add	 esp, 12			; 0000000cH

; 183  : 		}
; 184  : 		else

  001c5	eb 0a		 jmp	 SHORT $LN6@construct_
$LN5@construct_:

; 185  : 		{
; 186  : 	
; 187  : 			object->texture_animations = NULL;

  001c7	8b 45 f8	 mov	 eax, DWORD PTR _object$[ebp]
  001ca	c7 40 54 00 00
	00 00		 mov	 DWORD PTR [eax+84], 0
$LN6@construct_:

; 188  : 		}
; 189  : 	}
; 190  : 
; 191  : 	if ( temporary_3d_objects )

  001d1	83 3d 00 00 00
	00 00		 cmp	 DWORD PTR ?temporary_3d_objects@@3PAUTEMPORARY_OBJECT_3D_INSTANCE@@A, 0
  001d8	74 16		 je	 SHORT $LN8@construct_

; 192  : 	{
; 193  : 
; 194  : 		this_instance->next_temporary_instance = temporary_3d_objects;

  001da	8b 45 fc	 mov	 eax, DWORD PTR _this_instance$[ebp]
  001dd	8b 0d 00 00 00
	00		 mov	 ecx, DWORD PTR ?temporary_3d_objects@@3PAUTEMPORARY_OBJECT_3D_INSTANCE@@A
  001e3	89 48 04	 mov	 DWORD PTR [eax+4], ecx

; 195  : 
; 196  : 		temporary_3d_objects = this_instance;

  001e6	8b 45 fc	 mov	 eax, DWORD PTR _this_instance$[ebp]
  001e9	a3 00 00 00 00	 mov	 DWORD PTR ?temporary_3d_objects@@3PAUTEMPORARY_OBJECT_3D_INSTANCE@@A, eax

; 197  : 	}
; 198  : 	else

  001ee	eb 12		 jmp	 SHORT $LN9@construct_
$LN8@construct_:

; 199  : 	{
; 200  : 
; 201  : 		this_instance->next_temporary_instance = NULL;

  001f0	8b 45 fc	 mov	 eax, DWORD PTR _this_instance$[ebp]
  001f3	c7 40 04 00 00
	00 00		 mov	 DWORD PTR [eax+4], 0

; 202  : 
; 203  : 		temporary_3d_objects = this_instance;

  001fa	8b 45 fc	 mov	 eax, DWORD PTR _this_instance$[ebp]
  001fd	a3 00 00 00 00	 mov	 DWORD PTR ?temporary_3d_objects@@3PAUTEMPORARY_OBJECT_3D_INSTANCE@@A, eax
$LN9@construct_:

; 204  : 	}
; 205  : 
; 206  : 	return ( this_instance->instance );

  00202	8b 45 fc	 mov	 eax, DWORD PTR _this_instance$[ebp]
  00205	8b 00		 mov	 eax, DWORD PTR [eax]

; 207  : }

  00207	5f		 pop	 edi
  00208	5e		 pop	 esi
  00209	5b		 pop	 ebx
  0020a	8b e5		 mov	 esp, ebp
  0020c	5d		 pop	 ebp
  0020d	c2 08 00	 ret	 8
?construct_temporary_3d_object@@YGPAUOBJECT_3D_INSTANCE@@HH@Z ENDP ; construct_temporary_3d_object
_TEXT	ENDS
; Function compile flags: /Odtp /ZI
; File c:\users\nhv90\projects\eech\modules\3d\3dtemp.c
;	COMDAT ?clear_temporary_3d_instances@@YGXXZ
_TEXT	SEGMENT
_this_temp$1 = -4					; size = 4
?clear_temporary_3d_instances@@YGXXZ PROC		; clear_temporary_3d_instances, COMDAT

; 91   : {

  00000	55		 push	 ebp
  00001	8b ec		 mov	 ebp, esp
  00003	83 ec 44	 sub	 esp, 68			; 00000044H
  00006	53		 push	 ebx
  00007	56		 push	 esi
  00008	57		 push	 edi
$LN2@clear_temp:

; 92   : 
; 93   : 	while ( temporary_3d_objects )

  00009	83 3d 00 00 00
	00 00		 cmp	 DWORD PTR ?temporary_3d_objects@@3PAUTEMPORARY_OBJECT_3D_INSTANCE@@A, 0
  00010	74 5b		 je	 SHORT $LN1@clear_temp

; 94   : 	{
; 95   : 
; 96   : 		temporary_object_3d_instance
; 97   : 			*this_temp;
; 98   : 
; 99   : 		this_temp = temporary_3d_objects;

  00012	a1 00 00 00 00	 mov	 eax, DWORD PTR ?temporary_3d_objects@@3PAUTEMPORARY_OBJECT_3D_INSTANCE@@A
  00017	89 45 fc	 mov	 DWORD PTR _this_temp$1[ebp], eax

; 100  : 
; 101  : 		temporary_3d_objects = temporary_3d_objects->next_temporary_instance;

  0001a	a1 00 00 00 00	 mov	 eax, DWORD PTR ?temporary_3d_objects@@3PAUTEMPORARY_OBJECT_3D_INSTANCE@@A
  0001f	8b 48 04	 mov	 ecx, DWORD PTR [eax+4]
  00022	89 0d 00 00 00
	00		 mov	 DWORD PTR ?temporary_3d_objects@@3PAUTEMPORARY_OBJECT_3D_INSTANCE@@A, ecx

; 102  : 
; 103  : 		if ( this_temp->real_object )

  00028	8b 45 fc	 mov	 eax, DWORD PTR _this_temp$1[ebp]
  0002b	83 78 08 00	 cmp	 DWORD PTR [eax+8], 0
  0002f	74 0d		 je	 SHORT $LN4@clear_temp

; 104  : 		{
; 105  : 
; 106  : 			destruct_3d_object ( this_temp->instance );

  00031	8b 45 fc	 mov	 eax, DWORD PTR _this_temp$1[ebp]
  00034	8b 08		 mov	 ecx, DWORD PTR [eax]
  00036	51		 push	 ecx
  00037	e8 00 00 00 00	 call	 ?destruct_3d_object@@YGXPAUOBJECT_3D_INSTANCE@@@Z ; destruct_3d_object

; 107  : 		}
; 108  : 		else

  0003c	eb 24		 jmp	 SHORT $LN5@clear_temp
$LN4@clear_temp:

; 109  : 		{
; 110  : 	
; 111  : 			//
; 112  : 			// Free up the memory for the last 3d instance
; 113  : 			//
; 114  : 
; 115  : 			if ( this_temp->instance->texture_animations )

  0003e	8b 45 fc	 mov	 eax, DWORD PTR _this_temp$1[ebp]
  00041	8b 08		 mov	 ecx, DWORD PTR [eax]
  00043	83 79 54 00	 cmp	 DWORD PTR [ecx+84], 0
  00047	74 0e		 je	 SHORT $LN6@clear_temp

; 116  : 			{
; 117  : 
; 118  : 				free_mem ( this_temp->instance->texture_animations );

  00049	8b 45 fc	 mov	 eax, DWORD PTR _this_temp$1[ebp]
  0004c	8b 08		 mov	 ecx, DWORD PTR [eax]
  0004e	8b 51 54	 mov	 edx, DWORD PTR [ecx+84]
  00051	52		 push	 edx
  00052	e8 00 00 00 00	 call	 ?free_mem@@YGXPAX@Z	; free_mem
$LN6@clear_temp:

; 119  : 			}
; 120  : 
; 121  : 			free_mem ( this_temp->instance );

  00057	8b 45 fc	 mov	 eax, DWORD PTR _this_temp$1[ebp]
  0005a	8b 08		 mov	 ecx, DWORD PTR [eax]
  0005c	51		 push	 ecx
  0005d	e8 00 00 00 00	 call	 ?free_mem@@YGXPAX@Z	; free_mem
$LN5@clear_temp:

; 122  : 		}
; 123  : 
; 124  : 		free_mem ( this_temp );

  00062	8b 45 fc	 mov	 eax, DWORD PTR _this_temp$1[ebp]
  00065	50		 push	 eax
  00066	e8 00 00 00 00	 call	 ?free_mem@@YGXPAX@Z	; free_mem

; 125  : 	}

  0006b	eb 9c		 jmp	 SHORT $LN2@clear_temp
$LN1@clear_temp:

; 126  : }

  0006d	5f		 pop	 edi
  0006e	5e		 pop	 esi
  0006f	5b		 pop	 ebx
  00070	8b e5		 mov	 esp, ebp
  00072	5d		 pop	 ebp
  00073	c3		 ret	 0
?clear_temporary_3d_instances@@YGXXZ ENDP		; clear_temporary_3d_instances
_TEXT	ENDS
; Function compile flags: /Odtp /ZI
; File c:\users\nhv90\projects\eech\modules\3d\3dtemp.c
;	COMDAT ?initialise_temporary_3d_instances@@YGXXZ
_TEXT	SEGMENT
?initialise_temporary_3d_instances@@YGXXZ PROC		; initialise_temporary_3d_instances, COMDAT

; 81   : {

  00000	55		 push	 ebp
  00001	8b ec		 mov	 ebp, esp
  00003	83 ec 40	 sub	 esp, 64			; 00000040H
  00006	53		 push	 ebx
  00007	56		 push	 esi
  00008	57		 push	 edi

; 82   : 
; 83   : 	temporary_3d_objects = NULL;

  00009	c7 05 00 00 00
	00 00 00 00 00	 mov	 DWORD PTR ?temporary_3d_objects@@3PAUTEMPORARY_OBJECT_3D_INSTANCE@@A, 0

; 84   : }

  00013	5f		 pop	 edi
  00014	5e		 pop	 esi
  00015	5b		 pop	 ebx
  00016	8b e5		 mov	 esp, ebp
  00018	5d		 pop	 ebp
  00019	c3		 ret	 0
?initialise_temporary_3d_instances@@YGXXZ ENDP		; initialise_temporary_3d_instances
_TEXT	ENDS
END
