; Listing generated by Microsoft (R) Optimizing Compiler Version 19.16.27045.0 

	TITLE	C:\Users\nhv90\Projects\eech\modules\3d\3dview.c
	.686P
	.XMM
	include listing.inc
	.model	flat

INCLUDELIB MSVCRTD
INCLUDELIB OLDNAMES

PUBLIC	?active_3d_environment@@3PAUENV_3D@@A		; active_3d_environment
PUBLIC	?visual_3d_vp@@3PAUVIEWPOINT@@A			; visual_3d_vp
PUBLIC	?current_3d_viewangle_distance_conversion_factor@@3MA ; current_3d_viewangle_distance_conversion_factor
_BSS	SEGMENT
?active_3d_environment@@3PAUENV_3D@@A DD 01H DUP (?)	; active_3d_environment
?visual_3d_vp@@3PAUVIEWPOINT@@A DD 01H DUP (?)		; visual_3d_vp
?current_3d_viewangle_distance_conversion_factor@@3MA DD 01H DUP (?) ; current_3d_viewangle_distance_conversion_factor
_BSS	ENDS
PUBLIC	_cosf
PUBLIC	_sinf
PUBLIC	_tanf
PUBLIC	?cos@@YGMM@Z					; cos
PUBLIC	?sin@@YGMM@Z					; sin
PUBLIC	?tan@@YGMM@Z					; tan
PUBLIC	?set_3d_viewpoint@@YGXPAUENV_3D@@PAUVIEWPOINT@@@Z ; set_3d_viewpoint
PUBLIC	?set_3d_viewport@@YGXPAUENV_3D@@MMMM@Z		; set_3d_viewport
PUBLIC	?set_3d_view_distances@@YGXPAUENV_3D@@MMMM@Z	; set_3d_view_distances
PUBLIC	?set_3d_origin@@YGXPAUENV_3D@@MM@Z		; set_3d_origin
PUBLIC	?set_3d_viewcone@@YGXPAUENV_3D@@MMMM@Z		; set_3d_viewcone
PUBLIC	?set_3d_lightmode@@YGXPAUENV_3D@@W4LIGHTMODES@@@Z ; set_3d_lightmode
PUBLIC	?set_3d_fogmode@@YGXPAUENV_3D@@W4FOGMODES@@@Z	; set_3d_fogmode
PUBLIC	?set_3d_fog_distances@@YGXPAUENV_3D@@MM@Z	; set_3d_fog_distances
PUBLIC	?get_3d_viewpoint@@YGPAUVIEWPOINT@@PAUENV_3D@@@Z ; get_3d_viewpoint
PUBLIC	?get_3d_viewport@@YGXPAUENV_3D@@PAM111@Z	; get_3d_viewport
PUBLIC	?get_3d_view_distances@@YGXPAUENV_3D@@PAM1@Z	; get_3d_view_distances
PUBLIC	?get_3d_origin@@YGXPAUENV_3D@@PAM1@Z		; get_3d_origin
PUBLIC	?get_3d_lightmode@@YG?AW4LIGHTMODES@@PAUENV_3D@@@Z ; get_3d_lightmode
PUBLIC	?get_3d_fogmode@@YG?AW4FOGMODES@@PAUENV_3D@@@Z	; get_3d_fogmode
PUBLIC	?get_3d_fog_distances@@YGXPAUENV_3D@@PAM1@Z	; get_3d_fog_distances
PUBLIC	?realise_3d_clip_extents@@YGXPAUENV_3D@@@Z	; realise_3d_clip_extents
PUBLIC	?realise_3d_lightmode@@YGXPAUENV_3D@@@Z		; realise_3d_lightmode
PUBLIC	?realise_3d_viewpoint@@YGXPAUENV_3D@@@Z		; realise_3d_viewpoint
PUBLIC	?realise_3d_fogmode@@YGXPAUENV_3D@@@Z		; realise_3d_fogmode
PUBLIC	?realise_3d_shadow_setting@@YGXPAUENV_3D@@@Z	; realise_3d_shadow_setting
PUBLIC	?get_3d_point_2d_outcode@@YGHMMM@Z		; get_3d_point_2d_outcode
PUBLIC	?__LINE__Var@?0??set_3d_viewpoint@@YGXPAUENV_3D@@PAUVIEWPOINT@@@Z@4JA ; `set_3d_viewpoint'::`1'::__LINE__Var
PUBLIC	??_C@_0DB@KNDNKAKB@c?3?2users?2nhv90?2projects?2eech?2mo@ ; `string'
PUBLIC	??_C@_03OJGPBPII@env@				; `string'
PUBLIC	??_C@_02HPPNELPJ@vp@				; `string'
PUBLIC	?__LINE__Var@?0??set_3d_viewport@@YGXPAUENV_3D@@MMMM@Z@4JA ; `set_3d_viewport'::`1'::__LINE__Var
PUBLIC	??_C@_0N@HCKADEAA@xmin?5?$DM?$DN?5xmax@		; `string'
PUBLIC	??_C@_0N@JCFGMEDF@ymin?5?$DM?$DN?5ymax@		; `string'
PUBLIC	?__LINE__Var@?0??set_3d_view_distances@@YGXPAUENV_3D@@MMMM@Z@4JA ; `set_3d_view_distances'::`1'::__LINE__Var
PUBLIC	?__LINE__Var@?0??set_3d_origin@@YGXPAUENV_3D@@MM@Z@4JA ; `set_3d_origin'::`1'::__LINE__Var
PUBLIC	?__LINE__Var@?0??set_3d_viewcone@@YGXPAUENV_3D@@MMMM@Z@4JA ; `set_3d_viewcone'::`1'::__LINE__Var
PUBLIC	?__LINE__Var@?0??set_3d_lightmode@@YGXPAUENV_3D@@W4LIGHTMODES@@@Z@4JA ; `set_3d_lightmode'::`1'::__LINE__Var
PUBLIC	??_C@_0DH@JOGHONPK@Trying?5to?5set?5an?5unknown?5light?5@ ; `string'
PUBLIC	?__LINE__Var@?0??set_3d_fogmode@@YGXPAUENV_3D@@W4FOGMODES@@@Z@4JA ; `set_3d_fogmode'::`1'::__LINE__Var
PUBLIC	??_C@_0CC@HAAIBGLP@Unknown?5fogmode?5in?5set_3d_fogmo@ ; `string'
PUBLIC	?__LINE__Var@?0??set_3d_fog_distances@@YGXPAUENV_3D@@MM@Z@4JA ; `set_3d_fog_distances'::`1'::__LINE__Var
PUBLIC	??_C@_0BE@JCJMHPKN@fog_start?5?$DM?5fog_end@	; `string'
PUBLIC	??_C@_0BA@NCMBJOGI@Unknown?5fogmode@		; `string'
PUBLIC	?__LINE__Var@?0??get_3d_viewpoint@@YGPAUVIEWPOINT@@PAUENV_3D@@@Z@4JA ; `get_3d_viewpoint'::`1'::__LINE__Var
PUBLIC	?__LINE__Var@?0??get_3d_viewport@@YGXPAUENV_3D@@PAM111@Z@4JA ; `get_3d_viewport'::`1'::__LINE__Var
PUBLIC	?__LINE__Var@?0??get_3d_view_distances@@YGXPAUENV_3D@@PAM1@Z@4JA ; `get_3d_view_distances'::`1'::__LINE__Var
PUBLIC	?__LINE__Var@?0??get_3d_origin@@YGXPAUENV_3D@@PAM1@Z@4JA ; `get_3d_origin'::`1'::__LINE__Var
PUBLIC	?__LINE__Var@?0??get_3d_lightmode@@YG?AW4LIGHTMODES@@PAUENV_3D@@@Z@4JA ; `get_3d_lightmode'::`1'::__LINE__Var
PUBLIC	?__LINE__Var@?0??get_3d_fogmode@@YG?AW4FOGMODES@@PAUENV_3D@@@Z@4JA ; `get_3d_fogmode'::`1'::__LINE__Var
PUBLIC	?__LINE__Var@?0??get_3d_fog_distances@@YGXPAUENV_3D@@PAM1@Z@4JA ; `get_3d_fog_distances'::`1'::__LINE__Var
PUBLIC	?__LINE__Var@?0??realise_3d_clip_extents@@YGXPAUENV_3D@@@Z@4JA ; `realise_3d_clip_extents'::`1'::__LINE__Var
PUBLIC	?__LINE__Var@?0??realise_3d_lightmode@@YGXPAUENV_3D@@@Z@4JA ; `realise_3d_lightmode'::`1'::__LINE__Var
PUBLIC	?__LINE__Var@?0??realise_3d_viewpoint@@YGXPAUENV_3D@@@Z@4JA ; `realise_3d_viewpoint'::`1'::__LINE__Var
PUBLIC	?__LINE__Var@?0??realise_3d_fogmode@@YGXPAUENV_3D@@@Z@4JA ; `realise_3d_fogmode'::`1'::__LINE__Var
PUBLIC	?__LINE__Var@?0??realise_3d_shadow_setting@@YGXPAUENV_3D@@@Z@4JA ; `realise_3d_shadow_setting'::`1'::__LINE__Var
PUBLIC	__real@3f70624dd2f1a9fc
PUBLIC	__real@3f75be0b
PUBLIC	__real@3fe0c09b332ccccd
PUBLIC	__real@40000000
PUBLIC	__real@4000000000000000
PUBLIC	__real@406fe00000000000
PUBLIC	__real@43000000
PUBLIC	__real@c024333333333333
PUBLIC	__xmm@80000000000000008000000000000000
EXTRN	_cos:PROC
EXTRN	_sin:PROC
EXTRN	_tan:PROC
EXTRN	?process_assert@@YGXPBD0H@Z:PROC		; process_assert
EXTRN	?debug_fatal@@YAXPBDZZ:PROC			; debug_fatal
EXTRN	?set_3d_clip_extents@@YGXMMMMMMMM@Z:PROC	; set_3d_clip_extents
EXTRN	?set_d3d_fog_parameters@@YGXHUREAL_COLOUR@@MM@Z:PROC ; set_d3d_fog_parameters
EXTRN	?set_d3d_shadow_colour@@YGXMMMM@Z:PROC		; set_d3d_shadow_colour
EXTRN	?setup_environment_lights_in_scene@@YGXPAUENV_3D@@@Z:PROC ; setup_environment_lights_in_scene
EXTRN	?set_3d_ambient_light_level@@YGXMMM@Z:PROC	; set_3d_ambient_light_level
EXTRN	?reset_light_3d_sources_in_3d_scene@@YGXXZ:PROC	; reset_light_3d_sources_in_3d_scene
EXTRN	?shadows_enabled@@3HA:DWORD			; shadows_enabled
EXTRN	?shadows_strength@@3MA:DWORD			; shadows_strength
EXTRN	?command_line_high_lod_hack@@3HA:DWORD		; command_line_high_lod_hack
EXTRN	__fltused:DWORD
;	COMDAT __xmm@80000000000000008000000000000000
CONST	SEGMENT
__xmm@80000000000000008000000000000000 DB 00H, 00H, 00H, 00H, 00H, 00H, 00H
	DB	080H, 00H, 00H, 00H, 00H, 00H, 00H, 00H, 080H
CONST	ENDS
;	COMDAT __real@c024333333333333
CONST	SEGMENT
__real@c024333333333333 DQ 0c024333333333333r	; -10.1
CONST	ENDS
;	COMDAT __real@43000000
CONST	SEGMENT
__real@43000000 DD 043000000r			; 128
CONST	ENDS
;	COMDAT __real@406fe00000000000
CONST	SEGMENT
__real@406fe00000000000 DQ 0406fe00000000000r	; 255
CONST	ENDS
;	COMDAT __real@4000000000000000
CONST	SEGMENT
__real@4000000000000000 DQ 04000000000000000r	; 2
CONST	ENDS
;	COMDAT __real@40000000
CONST	SEGMENT
__real@40000000 DD 040000000r			; 2
CONST	ENDS
;	COMDAT __real@3fe0c09b332ccccd
CONST	SEGMENT
__real@3fe0c09b332ccccd DQ 03fe0c09b332ccccdr	; 0.523512
CONST	ENDS
;	COMDAT __real@3f75be0b
CONST	SEGMENT
__real@3f75be0b DD 03f75be0br			; 0.959931
CONST	ENDS
;	COMDAT __real@3f70624dd2f1a9fc
CONST	SEGMENT
__real@3f70624dd2f1a9fc DQ 03f70624dd2f1a9fcr	; 0.004
CONST	ENDS
;	COMDAT ?__LINE__Var@?0??realise_3d_shadow_setting@@YGXPAUENV_3D@@@Z@4JA
_DATA	SEGMENT
?__LINE__Var@?0??realise_3d_shadow_setting@@YGXPAUENV_3D@@@Z@4JA DD 01e7H ; `realise_3d_shadow_setting'::`1'::__LINE__Var
_DATA	ENDS
;	COMDAT ?__LINE__Var@?0??realise_3d_fogmode@@YGXPAUENV_3D@@@Z@4JA
_DATA	SEGMENT
?__LINE__Var@?0??realise_3d_fogmode@@YGXPAUENV_3D@@@Z@4JA DD 01ccH ; `realise_3d_fogmode'::`1'::__LINE__Var
_DATA	ENDS
;	COMDAT ?__LINE__Var@?0??realise_3d_viewpoint@@YGXPAUENV_3D@@@Z@4JA
_DATA	SEGMENT
?__LINE__Var@?0??realise_3d_viewpoint@@YGXPAUENV_3D@@@Z@4JA DD 01c0H ; `realise_3d_viewpoint'::`1'::__LINE__Var
_DATA	ENDS
;	COMDAT ?__LINE__Var@?0??realise_3d_lightmode@@YGXPAUENV_3D@@@Z@4JA
_DATA	SEGMENT
?__LINE__Var@?0??realise_3d_lightmode@@YGXPAUENV_3D@@@Z@4JA DD 019aH ; `realise_3d_lightmode'::`1'::__LINE__Var
_DATA	ENDS
;	COMDAT ?__LINE__Var@?0??realise_3d_clip_extents@@YGXPAUENV_3D@@@Z@4JA
_DATA	SEGMENT
?__LINE__Var@?0??realise_3d_clip_extents@@YGXPAUENV_3D@@@Z@4JA DD 0177H ; `realise_3d_clip_extents'::`1'::__LINE__Var
_DATA	ENDS
;	COMDAT ?__LINE__Var@?0??get_3d_fog_distances@@YGXPAUENV_3D@@PAM1@Z@4JA
_DATA	SEGMENT
?__LINE__Var@?0??get_3d_fog_distances@@YGXPAUENV_3D@@PAM1@Z@4JA DD 0169H ; `get_3d_fog_distances'::`1'::__LINE__Var
_DATA	ENDS
;	COMDAT ?__LINE__Var@?0??get_3d_fogmode@@YG?AW4FOGMODES@@PAUENV_3D@@@Z@4JA
_DATA	SEGMENT
?__LINE__Var@?0??get_3d_fogmode@@YG?AW4FOGMODES@@PAUENV_3D@@@Z@4JA DD 015dH ; `get_3d_fogmode'::`1'::__LINE__Var
_DATA	ENDS
;	COMDAT ?__LINE__Var@?0??get_3d_lightmode@@YG?AW4LIGHTMODES@@PAUENV_3D@@@Z@4JA
_DATA	SEGMENT
?__LINE__Var@?0??get_3d_lightmode@@YG?AW4LIGHTMODES@@PAUENV_3D@@@Z@4JA DD 0151H ; `get_3d_lightmode'::`1'::__LINE__Var
_DATA	ENDS
;	COMDAT ?__LINE__Var@?0??get_3d_origin@@YGXPAUENV_3D@@PAM1@Z@4JA
_DATA	SEGMENT
?__LINE__Var@?0??get_3d_origin@@YGXPAUENV_3D@@PAM1@Z@4JA DD 0144H ; `get_3d_origin'::`1'::__LINE__Var
_DATA	ENDS
;	COMDAT ?__LINE__Var@?0??get_3d_view_distances@@YGXPAUENV_3D@@PAM1@Z@4JA
_DATA	SEGMENT
?__LINE__Var@?0??get_3d_view_distances@@YGXPAUENV_3D@@PAM1@Z@4JA DD 0137H ; `get_3d_view_distances'::`1'::__LINE__Var
_DATA	ENDS
;	COMDAT ?__LINE__Var@?0??get_3d_viewport@@YGXPAUENV_3D@@PAM111@Z@4JA
_DATA	SEGMENT
?__LINE__Var@?0??get_3d_viewport@@YGXPAUENV_3D@@PAM111@Z@4JA DD 0128H ; `get_3d_viewport'::`1'::__LINE__Var
_DATA	ENDS
;	COMDAT ?__LINE__Var@?0??get_3d_viewpoint@@YGPAUVIEWPOINT@@PAUENV_3D@@@Z@4JA
_DATA	SEGMENT
?__LINE__Var@?0??get_3d_viewpoint@@YGPAUVIEWPOINT@@PAUENV_3D@@@Z@4JA DD 011cH ; `get_3d_viewpoint'::`1'::__LINE__Var
_DATA	ENDS
;	COMDAT ??_C@_0BA@NCMBJOGI@Unknown?5fogmode@
CONST	SEGMENT
??_C@_0BA@NCMBJOGI@Unknown?5fogmode@ DB 'Unknown fogmode', 00H ; `string'
CONST	ENDS
;	COMDAT ??_C@_0BE@JCJMHPKN@fog_start?5?$DM?5fog_end@
CONST	SEGMENT
??_C@_0BE@JCJMHPKN@fog_start?5?$DM?5fog_end@ DB 'fog_start < fog_end', 00H ; `string'
CONST	ENDS
;	COMDAT ?__LINE__Var@?0??set_3d_fog_distances@@YGXPAUENV_3D@@MM@Z@4JA
_DATA	SEGMENT
?__LINE__Var@?0??set_3d_fog_distances@@YGXPAUENV_3D@@MM@Z@4JA DD 0f3H ; `set_3d_fog_distances'::`1'::__LINE__Var
_DATA	ENDS
;	COMDAT ??_C@_0CC@HAAIBGLP@Unknown?5fogmode?5in?5set_3d_fogmo@
CONST	SEGMENT
??_C@_0CC@HAAIBGLP@Unknown?5fogmode?5in?5set_3d_fogmo@ DB 'Unknown fogmod'
	DB	'e in set_3d_fogmode', 00H			; `string'
CONST	ENDS
;	COMDAT ?__LINE__Var@?0??set_3d_fogmode@@YGXPAUENV_3D@@W4FOGMODES@@@Z@4JA
_DATA	SEGMENT
?__LINE__Var@?0??set_3d_fogmode@@YGXPAUENV_3D@@W4FOGMODES@@@Z@4JA DD 0d3H ; `set_3d_fogmode'::`1'::__LINE__Var
_DATA	ENDS
;	COMDAT ??_C@_0DH@JOGHONPK@Trying?5to?5set?5an?5unknown?5light?5@
CONST	SEGMENT
??_C@_0DH@JOGHONPK@Trying?5to?5set?5an?5unknown?5light?5@ DB 'Trying to s'
	DB	'et an unknown light mode for 3d environment', 00H ; `string'
CONST	ENDS
;	COMDAT ?__LINE__Var@?0??set_3d_lightmode@@YGXPAUENV_3D@@W4LIGHTMODES@@@Z@4JA
_DATA	SEGMENT
?__LINE__Var@?0??set_3d_lightmode@@YGXPAUENV_3D@@W4LIGHTMODES@@@Z@4JA DD 0b3H ; `set_3d_lightmode'::`1'::__LINE__Var
_DATA	ENDS
;	COMDAT ?__LINE__Var@?0??set_3d_viewcone@@YGXPAUENV_3D@@MMMM@Z@4JA
_DATA	SEGMENT
?__LINE__Var@?0??set_3d_viewcone@@YGXPAUENV_3D@@MMMM@Z@4JA DD 095H ; `set_3d_viewcone'::`1'::__LINE__Var
_DATA	ENDS
;	COMDAT ?__LINE__Var@?0??set_3d_origin@@YGXPAUENV_3D@@MM@Z@4JA
_DATA	SEGMENT
?__LINE__Var@?0??set_3d_origin@@YGXPAUENV_3D@@MM@Z@4JA DD 087H ; `set_3d_origin'::`1'::__LINE__Var
_DATA	ENDS
;	COMDAT ?__LINE__Var@?0??set_3d_view_distances@@YGXPAUENV_3D@@MMMM@Z@4JA
_DATA	SEGMENT
?__LINE__Var@?0??set_3d_view_distances@@YGXPAUENV_3D@@MMMM@Z@4JA DD 077H ; `set_3d_view_distances'::`1'::__LINE__Var
_DATA	ENDS
;	COMDAT ??_C@_0N@JCFGMEDF@ymin?5?$DM?$DN?5ymax@
CONST	SEGMENT
??_C@_0N@JCFGMEDF@ymin?5?$DM?$DN?5ymax@ DB 'ymin <= ymax', 00H ; `string'
CONST	ENDS
;	COMDAT ??_C@_0N@HCKADEAA@xmin?5?$DM?$DN?5xmax@
CONST	SEGMENT
??_C@_0N@HCKADEAA@xmin?5?$DM?$DN?5xmax@ DB 'xmin <= xmax', 00H ; `string'
CONST	ENDS
;	COMDAT ?__LINE__Var@?0??set_3d_viewport@@YGXPAUENV_3D@@MMMM@Z@4JA
_DATA	SEGMENT
?__LINE__Var@?0??set_3d_viewport@@YGXPAUENV_3D@@MMMM@Z@4JA DD 066H ; `set_3d_viewport'::`1'::__LINE__Var
_DATA	ENDS
;	COMDAT ??_C@_02HPPNELPJ@vp@
CONST	SEGMENT
??_C@_02HPPNELPJ@vp@ DB 'vp', 00H			; `string'
CONST	ENDS
;	COMDAT ??_C@_03OJGPBPII@env@
CONST	SEGMENT
??_C@_03OJGPBPII@env@ DB 'env', 00H			; `string'
CONST	ENDS
;	COMDAT ??_C@_0DB@KNDNKAKB@c?3?2users?2nhv90?2projects?2eech?2mo@
CONST	SEGMENT
??_C@_0DB@KNDNKAKB@c?3?2users?2nhv90?2projects?2eech?2mo@ DB 'c:\users\nh'
	DB	'v90\projects\eech\modules\3d\3dview.c', 00H	; `string'
CONST	ENDS
;	COMDAT ?__LINE__Var@?0??set_3d_viewpoint@@YGXPAUENV_3D@@PAUVIEWPOINT@@@Z@4JA
_DATA	SEGMENT
?__LINE__Var@?0??set_3d_viewpoint@@YGXPAUENV_3D@@PAUVIEWPOINT@@@Z@4JA DD 059H ; `set_3d_viewpoint'::`1'::__LINE__Var
_DATA	ENDS
; Function compile flags: /Odtp /ZI
; File c:\users\nhv90\projects\eech\modules\3d\3dview.c
;	COMDAT ?get_3d_point_2d_outcode@@YGHMMM@Z
_TEXT	SEGMENT
_outcode$ = -68						; size = 4
_bottom_clip$ = -64					; size = 8
_top_clip$ = -56					; size = 8
_right_clip$ = -48					; size = 8
_left_clip$ = -40					; size = 8
_sin_height$ = -32					; size = 8
_cos_height$ = -24					; size = 8
_sin_width$ = -16					; size = 8
_cos_width$ = -8					; size = 8
_x$ = 8							; size = 4
_y$ = 12						; size = 4
_z$ = 16						; size = 4
?get_3d_point_2d_outcode@@YGHMMM@Z PROC			; get_3d_point_2d_outcode, COMDAT

; 502  : {

  00000	55		 push	 ebp
  00001	8b ec		 mov	 ebp, esp
  00003	81 ec 84 00 00
	00		 sub	 esp, 132		; 00000084H
  00009	53		 push	 ebx
  0000a	56		 push	 esi
  0000b	57		 push	 edi

; 503  : 
; 504  : 	double
; 505  : 		cos_width,
; 506  : 		sin_width,
; 507  : 		cos_height,
; 508  : 		sin_height,
; 509  : 		left_clip,
; 510  : 		right_clip,
; 511  : 		top_clip,
; 512  : 		bottom_clip;
; 513  : 
; 514  : 	int
; 515  : 		outcode;
; 516  : 
; 517  : 	cos_width = cos ( active_3d_environment->width_view_angle );

  0000c	a1 00 00 00 00	 mov	 eax, DWORD PTR ?active_3d_environment@@3PAUENV_3D@@A ; active_3d_environment
  00011	51		 push	 ecx
  00012	f3 0f 10 40 08	 movss	 xmm0, DWORD PTR [eax+8]
  00017	f3 0f 11 04 24	 movss	 DWORD PTR [esp], xmm0
  0001c	e8 00 00 00 00	 call	 ?cos@@YGMM@Z		; cos
  00021	dd 5d f8	 fstp	 QWORD PTR _cos_width$[ebp]

; 518  : 	sin_width = sin ( active_3d_environment->width_view_angle );

  00024	a1 00 00 00 00	 mov	 eax, DWORD PTR ?active_3d_environment@@3PAUENV_3D@@A ; active_3d_environment
  00029	51		 push	 ecx
  0002a	f3 0f 10 40 08	 movss	 xmm0, DWORD PTR [eax+8]
  0002f	f3 0f 11 04 24	 movss	 DWORD PTR [esp], xmm0
  00034	e8 00 00 00 00	 call	 ?sin@@YGMM@Z		; sin
  00039	dd 5d f0	 fstp	 QWORD PTR _sin_width$[ebp]

; 519  : 
; 520  : 	cos_height = cos ( active_3d_environment->height_view_angle );

  0003c	a1 00 00 00 00	 mov	 eax, DWORD PTR ?active_3d_environment@@3PAUENV_3D@@A ; active_3d_environment
  00041	51		 push	 ecx
  00042	f3 0f 10 40 0c	 movss	 xmm0, DWORD PTR [eax+12]
  00047	f3 0f 11 04 24	 movss	 DWORD PTR [esp], xmm0
  0004c	e8 00 00 00 00	 call	 ?cos@@YGMM@Z		; cos
  00051	dd 5d e8	 fstp	 QWORD PTR _cos_height$[ebp]

; 521  : 	sin_height = sin ( active_3d_environment->height_view_angle );

  00054	a1 00 00 00 00	 mov	 eax, DWORD PTR ?active_3d_environment@@3PAUENV_3D@@A ; active_3d_environment
  00059	51		 push	 ecx
  0005a	f3 0f 10 40 0c	 movss	 xmm0, DWORD PTR [eax+12]
  0005f	f3 0f 11 04 24	 movss	 DWORD PTR [esp], xmm0
  00064	e8 00 00 00 00	 call	 ?sin@@YGMM@Z		; sin
  00069	dd 5d e0	 fstp	 QWORD PTR _sin_height$[ebp]

; 522  : 
; 523  : 	left_clip = cos_width * x + sin_width * z;

  0006c	f3 0f 5a 45 08	 cvtss2sd xmm0, DWORD PTR _x$[ebp]
  00071	f2 0f 59 45 f8	 mulsd	 xmm0, QWORD PTR _cos_width$[ebp]
  00076	f3 0f 5a 4d 10	 cvtss2sd xmm1, DWORD PTR _z$[ebp]
  0007b	f2 0f 59 4d f0	 mulsd	 xmm1, QWORD PTR _sin_width$[ebp]
  00080	f2 0f 58 c1	 addsd	 xmm0, xmm1
  00084	f2 0f 11 45 d8	 movsd	 QWORD PTR _left_clip$[ebp], xmm0

; 524  : 	right_clip = -cos_width * x + sin_width * z;

  00089	f2 0f 10 45 f8	 movsd	 xmm0, QWORD PTR _cos_width$[ebp]
  0008e	0f 57 05 00 00
	00 00		 xorps	 xmm0, QWORD PTR __xmm@80000000000000008000000000000000
  00095	f3 0f 5a 4d 08	 cvtss2sd xmm1, DWORD PTR _x$[ebp]
  0009a	f2 0f 59 c1	 mulsd	 xmm0, xmm1
  0009e	f3 0f 5a 4d 10	 cvtss2sd xmm1, DWORD PTR _z$[ebp]
  000a3	f2 0f 59 4d f0	 mulsd	 xmm1, QWORD PTR _sin_width$[ebp]
  000a8	f2 0f 58 c1	 addsd	 xmm0, xmm1
  000ac	f2 0f 11 45 d0	 movsd	 QWORD PTR _right_clip$[ebp], xmm0

; 525  : 
; 526  : 	top_clip = -cos_height * y + sin_height * z;

  000b1	f2 0f 10 45 e8	 movsd	 xmm0, QWORD PTR _cos_height$[ebp]
  000b6	0f 57 05 00 00
	00 00		 xorps	 xmm0, QWORD PTR __xmm@80000000000000008000000000000000
  000bd	f3 0f 5a 4d 0c	 cvtss2sd xmm1, DWORD PTR _y$[ebp]
  000c2	f2 0f 59 c1	 mulsd	 xmm0, xmm1
  000c6	f3 0f 5a 4d 10	 cvtss2sd xmm1, DWORD PTR _z$[ebp]
  000cb	f2 0f 59 4d e0	 mulsd	 xmm1, QWORD PTR _sin_height$[ebp]
  000d0	f2 0f 58 c1	 addsd	 xmm0, xmm1
  000d4	f2 0f 11 45 c8	 movsd	 QWORD PTR _top_clip$[ebp], xmm0

; 527  : 	bottom_clip = cos_height * y + sin_height * z;

  000d9	f3 0f 5a 45 0c	 cvtss2sd xmm0, DWORD PTR _y$[ebp]
  000de	f2 0f 59 45 e8	 mulsd	 xmm0, QWORD PTR _cos_height$[ebp]
  000e3	f3 0f 5a 4d 10	 cvtss2sd xmm1, DWORD PTR _z$[ebp]
  000e8	f2 0f 59 4d e0	 mulsd	 xmm1, QWORD PTR _sin_height$[ebp]
  000ed	f2 0f 58 c1	 addsd	 xmm0, xmm1
  000f1	f2 0f 11 45 c0	 movsd	 QWORD PTR _bottom_clip$[ebp], xmm0

; 528  : 
; 529  : 	outcode = 0;

  000f6	c7 45 bc 00 00
	00 00		 mov	 DWORD PTR _outcode$[ebp], 0

; 530  : 
; 531  : 	if ( left_clip < -10.1 )

  000fd	f2 0f 10 05 00
	00 00 00	 movsd	 xmm0, QWORD PTR __real@c024333333333333
  00105	66 0f 2f 45 d8	 comisd	 xmm0, QWORD PTR _left_clip$[ebp]
  0010a	76 09		 jbe	 SHORT $LN2@get_3d_poi

; 532  : 	{
; 533  : 
; 534  : 		outcode |= CLIP_LEFT;

  0010c	8b 45 bc	 mov	 eax, DWORD PTR _outcode$[ebp]
  0010f	83 c8 01	 or	 eax, 1
  00112	89 45 bc	 mov	 DWORD PTR _outcode$[ebp], eax
$LN2@get_3d_poi:

; 535  : 	}
; 536  : 
; 537  : 	if ( right_clip < -10.1 )

  00115	f2 0f 10 05 00
	00 00 00	 movsd	 xmm0, QWORD PTR __real@c024333333333333
  0011d	66 0f 2f 45 d0	 comisd	 xmm0, QWORD PTR _right_clip$[ebp]
  00122	76 09		 jbe	 SHORT $LN3@get_3d_poi

; 538  : 	{
; 539  : 
; 540  : 		outcode |= CLIP_RIGHT;

  00124	8b 45 bc	 mov	 eax, DWORD PTR _outcode$[ebp]
  00127	83 c8 04	 or	 eax, 4
  0012a	89 45 bc	 mov	 DWORD PTR _outcode$[ebp], eax
$LN3@get_3d_poi:

; 541  : 	}
; 542  : 
; 543  : 	if ( top_clip < -10.1 )

  0012d	f2 0f 10 05 00
	00 00 00	 movsd	 xmm0, QWORD PTR __real@c024333333333333
  00135	66 0f 2f 45 c8	 comisd	 xmm0, QWORD PTR _top_clip$[ebp]
  0013a	76 09		 jbe	 SHORT $LN4@get_3d_poi

; 544  : 	{
; 545  : 
; 546  : 		outcode |= CLIP_TOP;

  0013c	8b 45 bc	 mov	 eax, DWORD PTR _outcode$[ebp]
  0013f	83 c8 02	 or	 eax, 2
  00142	89 45 bc	 mov	 DWORD PTR _outcode$[ebp], eax
$LN4@get_3d_poi:

; 547  : 	}
; 548  : 
; 549  : 	if ( bottom_clip < -10.1 )

  00145	f2 0f 10 05 00
	00 00 00	 movsd	 xmm0, QWORD PTR __real@c024333333333333
  0014d	66 0f 2f 45 c0	 comisd	 xmm0, QWORD PTR _bottom_clip$[ebp]
  00152	76 09		 jbe	 SHORT $LN5@get_3d_poi

; 550  : 	{
; 551  : 
; 552  : 		outcode |= CLIP_BOTTOM;

  00154	8b 45 bc	 mov	 eax, DWORD PTR _outcode$[ebp]
  00157	83 c8 08	 or	 eax, 8
  0015a	89 45 bc	 mov	 DWORD PTR _outcode$[ebp], eax
$LN5@get_3d_poi:

; 553  : 	}
; 554  : 
; 555  : 	return ( outcode );

  0015d	8b 45 bc	 mov	 eax, DWORD PTR _outcode$[ebp]

; 556  : }

  00160	5f		 pop	 edi
  00161	5e		 pop	 esi
  00162	5b		 pop	 ebx
  00163	8b e5		 mov	 esp, ebp
  00165	5d		 pop	 ebp
  00166	c2 0c 00	 ret	 12			; 0000000cH
?get_3d_point_2d_outcode@@YGHMMM@Z ENDP			; get_3d_point_2d_outcode
_TEXT	ENDS
; Function compile flags: /Odtp /ZI
; File c:\users\nhv90\projects\eech\modules\3d\3dview.c
;	COMDAT ?realise_3d_shadow_setting@@YGXPAUENV_3D@@@Z
_TEXT	SEGMENT
_env$ = 8						; size = 4
?realise_3d_shadow_setting@@YGXPAUENV_3D@@@Z PROC	; realise_3d_shadow_setting, COMDAT

; 487  : {

  00000	55		 push	 ebp
  00001	8b ec		 mov	 ebp, esp
  00003	83 ec 40	 sub	 esp, 64			; 00000040H
  00006	53		 push	 ebx
  00007	56		 push	 esi
  00008	57		 push	 edi

; 488  : 
; 489  : 	ASSERT ( env );

  00009	83 7d 08 00	 cmp	 DWORD PTR _env$[ebp], 0
  0000d	75 18		 jne	 SHORT $LN2@realise_3d
  0000f	a1 00 00 00 00	 mov	 eax, DWORD PTR ?__LINE__Var@?0??realise_3d_shadow_setting@@YGXPAUENV_3D@@@Z@4JA
  00014	83 c0 02	 add	 eax, 2
  00017	50		 push	 eax
  00018	68 00 00 00 00	 push	 OFFSET ??_C@_0DB@KNDNKAKB@c?3?2users?2nhv90?2projects?2eech?2mo@
  0001d	68 00 00 00 00	 push	 OFFSET ??_C@_03OJGPBPII@env@
  00022	e8 00 00 00 00	 call	 ?process_assert@@YGXPBD0H@Z ; process_assert
$LN2@realise_3d:

; 490  : 
; 491  : 	set_d3d_shadow_colour ( env->shadow_setting.light__colour.red * 255.0,

  00027	51		 push	 ecx
  00028	f3 0f 10 05 00
	00 00 00	 movss	 xmm0, DWORD PTR __real@43000000
  00030	f3 0f 11 04 24	 movss	 DWORD PTR [esp], xmm0
  00035	8b 45 08	 mov	 eax, DWORD PTR _env$[ebp]
  00038	f3 0f 5a 80 a8
	01 00 00	 cvtss2sd xmm0, DWORD PTR [eax+424]
  00040	f2 0f 59 05 00
	00 00 00	 mulsd	 xmm0, QWORD PTR __real@406fe00000000000
  00048	f2 0f 5a c0	 cvtsd2ss xmm0, xmm0
  0004c	51		 push	 ecx
  0004d	f3 0f 11 04 24	 movss	 DWORD PTR [esp], xmm0
  00052	8b 4d 08	 mov	 ecx, DWORD PTR _env$[ebp]
  00055	f3 0f 5a 81 a4
	01 00 00	 cvtss2sd xmm0, DWORD PTR [ecx+420]
  0005d	f2 0f 59 05 00
	00 00 00	 mulsd	 xmm0, QWORD PTR __real@406fe00000000000
  00065	f2 0f 5a c0	 cvtsd2ss xmm0, xmm0
  00069	51		 push	 ecx
  0006a	f3 0f 11 04 24	 movss	 DWORD PTR [esp], xmm0
  0006f	8b 55 08	 mov	 edx, DWORD PTR _env$[ebp]
  00072	f3 0f 5a 82 a0
	01 00 00	 cvtss2sd xmm0, DWORD PTR [edx+416]
  0007a	f2 0f 59 05 00
	00 00 00	 mulsd	 xmm0, QWORD PTR __real@406fe00000000000
  00082	f2 0f 5a c0	 cvtsd2ss xmm0, xmm0
  00086	51		 push	 ecx
  00087	f3 0f 11 04 24	 movss	 DWORD PTR [esp], xmm0
  0008c	e8 00 00 00 00	 call	 ?set_d3d_shadow_colour@@YGXMMMM@Z ; set_d3d_shadow_colour

; 492  : 									env->shadow_setting.light__colour.green * 255.0,
; 493  : 									env->shadow_setting.light__colour.blue * 255.0,
; 494  : 									128.0 );
; 495  : }

  00091	5f		 pop	 edi
  00092	5e		 pop	 esi
  00093	5b		 pop	 ebx
  00094	8b e5		 mov	 esp, ebp
  00096	5d		 pop	 ebp
  00097	c2 04 00	 ret	 4
?realise_3d_shadow_setting@@YGXPAUENV_3D@@@Z ENDP	; realise_3d_shadow_setting
_TEXT	ENDS
; Function compile flags: /Odtp /ZI
; File c:\users\nhv90\projects\eech\modules\3d\3dview.c
;	COMDAT ?realise_3d_fogmode@@YGXPAUENV_3D@@@Z
_TEXT	SEGMENT
_env$ = 8						; size = 4
?realise_3d_fogmode@@YGXPAUENV_3D@@@Z PROC		; realise_3d_fogmode, COMDAT

; 460  : {

  00000	55		 push	 ebp
  00001	8b ec		 mov	 ebp, esp
  00003	83 ec 40	 sub	 esp, 64			; 00000040H
  00006	53		 push	 ebx
  00007	56		 push	 esi
  00008	57		 push	 edi

; 461  : 
; 462  : 	ASSERT ( env );

  00009	83 7d 08 00	 cmp	 DWORD PTR _env$[ebp], 0
  0000d	75 18		 jne	 SHORT $LN2@realise_3d
  0000f	a1 00 00 00 00	 mov	 eax, DWORD PTR ?__LINE__Var@?0??realise_3d_fogmode@@YGXPAUENV_3D@@@Z@4JA
  00014	83 c0 02	 add	 eax, 2
  00017	50		 push	 eax
  00018	68 00 00 00 00	 push	 OFFSET ??_C@_0DB@KNDNKAKB@c?3?2users?2nhv90?2projects?2eech?2mo@
  0001d	68 00 00 00 00	 push	 OFFSET ??_C@_03OJGPBPII@env@
  00022	e8 00 00 00 00	 call	 ?process_assert@@YGXPBD0H@Z ; process_assert
$LN2@realise_3d:

; 463  : 
; 464  : 	if ( ( env->fogmode == FOGMODE_ON_AUTOMATIC ) || ( env->fogmode == FOGMODE_ON_MANUAL ) )

  00027	8b 45 08	 mov	 eax, DWORD PTR _env$[ebp]
  0002a	83 78 44 01	 cmp	 DWORD PTR [eax+68], 1
  0002e	74 09		 je	 SHORT $LN5@realise_3d
  00030	8b 45 08	 mov	 eax, DWORD PTR _env$[ebp]
  00033	83 78 44 02	 cmp	 DWORD PTR [eax+68], 2
  00037	75 49		 jne	 SHORT $LN3@realise_3d
$LN5@realise_3d:

; 465  : 	{
; 466  : 
; 467  : 		set_d3d_fog_parameters ( TRUE, env->fog_colour, env->fog_start, env->fog_end );

  00039	8b 45 08	 mov	 eax, DWORD PTR _env$[ebp]
  0003c	51		 push	 ecx
  0003d	f3 0f 10 40 64	 movss	 xmm0, DWORD PTR [eax+100]
  00042	f3 0f 11 04 24	 movss	 DWORD PTR [esp], xmm0
  00047	8b 4d 08	 mov	 ecx, DWORD PTR _env$[ebp]
  0004a	51		 push	 ecx
  0004b	f3 0f 10 41 60	 movss	 xmm0, DWORD PTR [ecx+96]
  00050	f3 0f 11 04 24	 movss	 DWORD PTR [esp], xmm0
  00055	8b 55 08	 mov	 edx, DWORD PTR _env$[ebp]
  00058	8b 42 68	 mov	 eax, DWORD PTR [edx+104]
  0005b	50		 push	 eax
  0005c	6a 01		 push	 1
  0005e	e8 00 00 00 00	 call	 ?set_d3d_fog_parameters@@YGXHUREAL_COLOUR@@MM@Z ; set_d3d_fog_parameters

; 468  : 
; 469  : 		if ( env->yonder_distance > env->fog_end )

  00063	8b 45 08	 mov	 eax, DWORD PTR _env$[ebp]
  00066	8b 4d 08	 mov	 ecx, DWORD PTR _env$[ebp]
  00069	f3 0f 10 40 18	 movss	 xmm0, DWORD PTR [eax+24]
  0006e	0f 2f 41 64	 comiss	 xmm0, DWORD PTR [ecx+100]
  00072	76 0c		 jbe	 SHORT $LN6@realise_3d

; 470  : 		{
; 471  : 	
; 472  : 			env->yonder_distance = env->fog_end;

  00074	8b 45 08	 mov	 eax, DWORD PTR _env$[ebp]
  00077	8b 4d 08	 mov	 ecx, DWORD PTR _env$[ebp]
  0007a	8b 51 64	 mov	 edx, DWORD PTR [ecx+100]
  0007d	89 50 18	 mov	 DWORD PTR [eax+24], edx
$LN6@realise_3d:

; 473  : 		}
; 474  : 	}
; 475  : 	else

  00080	eb 2a		 jmp	 SHORT $LN4@realise_3d
$LN3@realise_3d:

; 476  : 	{
; 477  : 
; 478  : 		set_d3d_fog_parameters ( FALSE, env->fog_colour, env->fog_start, env->fog_end );

  00082	8b 45 08	 mov	 eax, DWORD PTR _env$[ebp]
  00085	51		 push	 ecx
  00086	f3 0f 10 40 64	 movss	 xmm0, DWORD PTR [eax+100]
  0008b	f3 0f 11 04 24	 movss	 DWORD PTR [esp], xmm0
  00090	8b 4d 08	 mov	 ecx, DWORD PTR _env$[ebp]
  00093	51		 push	 ecx
  00094	f3 0f 10 41 60	 movss	 xmm0, DWORD PTR [ecx+96]
  00099	f3 0f 11 04 24	 movss	 DWORD PTR [esp], xmm0
  0009e	8b 55 08	 mov	 edx, DWORD PTR _env$[ebp]
  000a1	8b 42 68	 mov	 eax, DWORD PTR [edx+104]
  000a4	50		 push	 eax
  000a5	6a 00		 push	 0
  000a7	e8 00 00 00 00	 call	 ?set_d3d_fog_parameters@@YGXHUREAL_COLOUR@@MM@Z ; set_d3d_fog_parameters
$LN4@realise_3d:

; 479  : 	}
; 480  : }

  000ac	5f		 pop	 edi
  000ad	5e		 pop	 esi
  000ae	5b		 pop	 ebx
  000af	8b e5		 mov	 esp, ebp
  000b1	5d		 pop	 ebp
  000b2	c2 04 00	 ret	 4
?realise_3d_fogmode@@YGXPAUENV_3D@@@Z ENDP		; realise_3d_fogmode
_TEXT	ENDS
; Function compile flags: /Odtp /ZI
; File c:\users\nhv90\projects\eech\modules\3d\3dview.c
;	COMDAT ?realise_3d_viewpoint@@YGXPAUENV_3D@@@Z
_TEXT	SEGMENT
_env$ = 8						; size = 4
?realise_3d_viewpoint@@YGXPAUENV_3D@@@Z PROC		; realise_3d_viewpoint, COMDAT

; 448  : {

  00000	55		 push	 ebp
  00001	8b ec		 mov	 ebp, esp
  00003	83 ec 40	 sub	 esp, 64			; 00000040H
  00006	53		 push	 ebx
  00007	56		 push	 esi
  00008	57		 push	 edi

; 449  : 
; 450  : 	ASSERT ( env );

  00009	83 7d 08 00	 cmp	 DWORD PTR _env$[ebp], 0
  0000d	75 18		 jne	 SHORT $LN2@realise_3d
  0000f	a1 00 00 00 00	 mov	 eax, DWORD PTR ?__LINE__Var@?0??realise_3d_viewpoint@@YGXPAUENV_3D@@@Z@4JA
  00014	83 c0 02	 add	 eax, 2
  00017	50		 push	 eax
  00018	68 00 00 00 00	 push	 OFFSET ??_C@_0DB@KNDNKAKB@c?3?2users?2nhv90?2projects?2eech?2mo@
  0001d	68 00 00 00 00	 push	 OFFSET ??_C@_03OJGPBPII@env@
  00022	e8 00 00 00 00	 call	 ?process_assert@@YGXPBD0H@Z ; process_assert
$LN2@realise_3d:

; 451  : 
; 452  : 	visual_3d_vp = env->view;

  00027	8b 45 08	 mov	 eax, DWORD PTR _env$[ebp]
  0002a	8b 48 40	 mov	 ecx, DWORD PTR [eax+64]
  0002d	89 0d 00 00 00
	00		 mov	 DWORD PTR ?visual_3d_vp@@3PAUVIEWPOINT@@A, ecx ; visual_3d_vp

; 453  : }

  00033	5f		 pop	 edi
  00034	5e		 pop	 esi
  00035	5b		 pop	 ebx
  00036	8b e5		 mov	 esp, ebp
  00038	5d		 pop	 ebp
  00039	c2 04 00	 ret	 4
?realise_3d_viewpoint@@YGXPAUENV_3D@@@Z ENDP		; realise_3d_viewpoint
_TEXT	ENDS
; Function compile flags: /Odtp /ZI
; File c:\users\nhv90\projects\eech\modules\3d\3dview.c
;	COMDAT ?realise_3d_lightmode@@YGXPAUENV_3D@@@Z
_TEXT	SEGMENT
_env$ = 8						; size = 4
?realise_3d_lightmode@@YGXPAUENV_3D@@@Z PROC		; realise_3d_lightmode, COMDAT

; 410  : {

  00000	55		 push	 ebp
  00001	8b ec		 mov	 ebp, esp
  00003	83 ec 40	 sub	 esp, 64			; 00000040H
  00006	53		 push	 ebx
  00007	56		 push	 esi
  00008	57		 push	 edi

; 411  : 
; 412  : 	ASSERT ( env );

  00009	83 7d 08 00	 cmp	 DWORD PTR _env$[ebp], 0
  0000d	75 18		 jne	 SHORT $LN2@realise_3d
  0000f	a1 00 00 00 00	 mov	 eax, DWORD PTR ?__LINE__Var@?0??realise_3d_lightmode@@YGXPAUENV_3D@@@Z@4JA
  00014	83 c0 02	 add	 eax, 2
  00017	50		 push	 eax
  00018	68 00 00 00 00	 push	 OFFSET ??_C@_0DB@KNDNKAKB@c?3?2users?2nhv90?2projects?2eech?2mo@
  0001d	68 00 00 00 00	 push	 OFFSET ??_C@_03OJGPBPII@env@
  00022	e8 00 00 00 00	 call	 ?process_assert@@YGXPBD0H@Z ; process_assert
$LN2@realise_3d:

; 413  : 
; 414  : 	//
; 415  : 	// Remove all lights from the scene
; 416  : 	//
; 417  : 
; 418  : 	reset_light_3d_sources_in_3d_scene ();

  00027	e8 00 00 00 00	 call	 ?reset_light_3d_sources_in_3d_scene@@YGXXZ ; reset_light_3d_sources_in_3d_scene

; 419  : 
; 420  : 	//
; 421  : 	// Set the ambient light level
; 422  : 	//
; 423  : 
; 424  : 	set_3d_ambient_light_level ( env->ambient_light.red, env->ambient_light.green, env->ambient_light.blue );

  0002c	8b 45 08	 mov	 eax, DWORD PTR _env$[ebp]
  0002f	51		 push	 ecx
  00030	f3 0f 10 80 e0
	01 00 00	 movss	 xmm0, DWORD PTR [eax+480]
  00038	f3 0f 11 04 24	 movss	 DWORD PTR [esp], xmm0
  0003d	8b 4d 08	 mov	 ecx, DWORD PTR _env$[ebp]
  00040	51		 push	 ecx
  00041	f3 0f 10 81 dc
	01 00 00	 movss	 xmm0, DWORD PTR [ecx+476]
  00049	f3 0f 11 04 24	 movss	 DWORD PTR [esp], xmm0
  0004e	8b 55 08	 mov	 edx, DWORD PTR _env$[ebp]
  00051	51		 push	 ecx
  00052	f3 0f 10 82 d8
	01 00 00	 movss	 xmm0, DWORD PTR [edx+472]
  0005a	f3 0f 11 04 24	 movss	 DWORD PTR [esp], xmm0
  0005f	e8 00 00 00 00	 call	 ?set_3d_ambient_light_level@@YGXMMM@Z ; set_3d_ambient_light_level

; 425  : 
; 426  : 	//
; 427  : 	// Now put in the main lights ( sun, moon, or main_3d_light )
; 428  : 	//
; 429  : 
; 430  : 	setup_environment_lights_in_scene ( env );

  00064	8b 45 08	 mov	 eax, DWORD PTR _env$[ebp]
  00067	50		 push	 eax
  00068	e8 00 00 00 00	 call	 ?setup_environment_lights_in_scene@@YGXPAUENV_3D@@@Z ; setup_environment_lights_in_scene

; 431  : 
; 432  : 	shadows_enabled = env->shadows_enabled;

  0006d	8b 45 08	 mov	 eax, DWORD PTR _env$[ebp]
  00070	8b 88 9c 02 00
	00		 mov	 ecx, DWORD PTR [eax+668]
  00076	89 0d 00 00 00
	00		 mov	 DWORD PTR ?shadows_enabled@@3HA, ecx ; shadows_enabled

; 433  : 
; 434  : 	shadows_strength = env->shadow_strength;

  0007c	8b 45 08	 mov	 eax, DWORD PTR _env$[ebp]
  0007f	f3 0f 10 80 a0
	02 00 00	 movss	 xmm0, DWORD PTR [eax+672]
  00087	f3 0f 11 05 00
	00 00 00	 movss	 DWORD PTR ?shadows_strength@@3MA, xmm0

; 435  : 
; 436  : 	if ( shadows_strength < 0.004 )

  0008f	f3 0f 5a 05 00
	00 00 00	 cvtss2sd xmm0, DWORD PTR ?shadows_strength@@3MA
  00097	f2 0f 10 0d 00
	00 00 00	 movsd	 xmm1, QWORD PTR __real@3f70624dd2f1a9fc
  0009f	66 0f 2f c8	 comisd	 xmm1, xmm0
  000a3	76 0a		 jbe	 SHORT $LN3@realise_3d

; 437  : 	{
; 438  : 
; 439  : 		shadows_enabled = FALSE;

  000a5	c7 05 00 00 00
	00 00 00 00 00	 mov	 DWORD PTR ?shadows_enabled@@3HA, 0 ; shadows_enabled
$LN3@realise_3d:

; 440  : 	}
; 441  : }

  000af	5f		 pop	 edi
  000b0	5e		 pop	 esi
  000b1	5b		 pop	 ebx
  000b2	8b e5		 mov	 esp, ebp
  000b4	5d		 pop	 ebp
  000b5	c2 04 00	 ret	 4
?realise_3d_lightmode@@YGXPAUENV_3D@@@Z ENDP		; realise_3d_lightmode
_TEXT	ENDS
; Function compile flags: /Odtp /ZI
; File c:\users\nhv90\projects\eech\modules\3d\3dview.c
;	COMDAT ?realise_3d_clip_extents@@YGXPAUENV_3D@@@Z
_TEXT	SEGMENT
tv175 = -88						; size = 8
tv190 = -80						; size = 8
tv188 = -76						; size = 4
tv192 = -72						; size = 4
tv169 = -72						; size = 8
tv182 = -68						; size = 4
_env$ = 8						; size = 4
?realise_3d_clip_extents@@YGXPAUENV_3D@@@Z PROC		; realise_3d_clip_extents, COMDAT

; 375  : {

  00000	55		 push	 ebp
  00001	8b ec		 mov	 ebp, esp
  00003	83 ec 58	 sub	 esp, 88			; 00000058H
  00006	53		 push	 ebx
  00007	56		 push	 esi
  00008	57		 push	 edi

; 376  : 
; 377  : 	ASSERT ( env );

  00009	83 7d 08 00	 cmp	 DWORD PTR _env$[ebp], 0
  0000d	75 18		 jne	 SHORT $LN2@realise_3d
  0000f	a1 00 00 00 00	 mov	 eax, DWORD PTR ?__LINE__Var@?0??realise_3d_clip_extents@@YGXPAUENV_3D@@@Z@4JA
  00014	83 c0 02	 add	 eax, 2
  00017	50		 push	 eax
  00018	68 00 00 00 00	 push	 OFFSET ??_C@_0DB@KNDNKAKB@c?3?2users?2nhv90?2projects?2eech?2mo@
  0001d	68 00 00 00 00	 push	 OFFSET ??_C@_03OJGPBPII@env@
  00022	e8 00 00 00 00	 call	 ?process_assert@@YGXPBD0H@Z ; process_assert
$LN2@realise_3d:

; 378  : 
; 379  : 	set_3d_clip_extents ( env->yonder_distance, env->hither_distance,

  00027	8b 45 08	 mov	 eax, DWORD PTR _env$[ebp]
  0002a	51		 push	 ecx
  0002b	f3 0f 10 40 24	 movss	 xmm0, DWORD PTR [eax+36]
  00030	f3 0f 11 04 24	 movss	 DWORD PTR [esp], xmm0
  00035	8b 4d 08	 mov	 ecx, DWORD PTR _env$[ebp]
  00038	51		 push	 ecx
  00039	f3 0f 10 41 20	 movss	 xmm0, DWORD PTR [ecx+32]
  0003e	f3 0f 11 04 24	 movss	 DWORD PTR [esp], xmm0
  00043	8b 55 08	 mov	 edx, DWORD PTR _env$[ebp]
  00046	51		 push	 ecx
  00047	f3 0f 10 42 3c	 movss	 xmm0, DWORD PTR [edx+60]
  0004c	f3 0f 11 04 24	 movss	 DWORD PTR [esp], xmm0
  00051	8b 45 08	 mov	 eax, DWORD PTR _env$[ebp]
  00054	51		 push	 ecx
  00055	f3 0f 10 40 38	 movss	 xmm0, DWORD PTR [eax+56]
  0005a	f3 0f 11 04 24	 movss	 DWORD PTR [esp], xmm0
  0005f	8b 4d 08	 mov	 ecx, DWORD PTR _env$[ebp]
  00062	51		 push	 ecx
  00063	f3 0f 10 41 34	 movss	 xmm0, DWORD PTR [ecx+52]
  00068	f3 0f 11 04 24	 movss	 DWORD PTR [esp], xmm0
  0006d	8b 55 08	 mov	 edx, DWORD PTR _env$[ebp]
  00070	51		 push	 ecx
  00071	f3 0f 10 42 30	 movss	 xmm0, DWORD PTR [edx+48]
  00076	f3 0f 11 04 24	 movss	 DWORD PTR [esp], xmm0
  0007b	8b 45 08	 mov	 eax, DWORD PTR _env$[ebp]
  0007e	51		 push	 ecx
  0007f	f3 0f 10 40 1c	 movss	 xmm0, DWORD PTR [eax+28]
  00084	f3 0f 11 04 24	 movss	 DWORD PTR [esp], xmm0
  00089	8b 4d 08	 mov	 ecx, DWORD PTR _env$[ebp]
  0008c	51		 push	 ecx
  0008d	f3 0f 10 41 18	 movss	 xmm0, DWORD PTR [ecx+24]
  00092	f3 0f 11 04 24	 movss	 DWORD PTR [esp], xmm0
  00097	e8 00 00 00 00	 call	 ?set_3d_clip_extents@@YGXMMMMMMMM@Z ; set_3d_clip_extents

; 380  : 									env->clip_xmin, env->clip_ymin,
; 381  : 									env->clip_xmax, env->clip_ymax,
; 382  : 									env->zbuffer_z_minimum_value,
; 383  : 									env->zbuffer_z_maximum_value );
; 384  : 
; 385  : 	//
; 386  : 	// Also set the viewcone stuff here
; 387  : 	//
; 388  : 
; 389  : 	//
; 390  : 	// Retro 31Oct2004 - Halloween code :O
; 391  : 	// if set to FALSE, this will enable higher LODs out to farer distances, and obliterate FPS near cities..
; 392  : 	//
; 393  : 	// Casm 19AUG05 Need to compare tans of half of the angles!
; 394  : 	if (!command_line_high_lod_hack)

  0009c	83 3d 00 00 00
	00 00		 cmp	 DWORD PTR ?command_line_high_lod_hack@@3HA, 0 ; command_line_high_lod_hack
  000a3	75 5b		 jne	 SHORT $LN3@realise_3d

; 395  : 	{
; 396  : 		current_3d_viewangle_distance_conversion_factor = tan ( env->width_view_angle / 2 ) / tan ( rad ( 59.99 / 2 ) );

  000a5	8b 45 08	 mov	 eax, DWORD PTR _env$[ebp]
  000a8	f3 0f 10 40 08	 movss	 xmm0, DWORD PTR [eax+8]
  000ad	f3 0f 5e 05 00
	00 00 00	 divss	 xmm0, DWORD PTR __real@40000000
  000b5	51		 push	 ecx
  000b6	f3 0f 11 04 24	 movss	 DWORD PTR [esp], xmm0
  000bb	e8 00 00 00 00	 call	 ?tan@@YGMM@Z		; tan
  000c0	dd 5d b8	 fstp	 QWORD PTR tv169[ebp]
  000c3	f2 0f 10 45 b8	 movsd	 xmm0, QWORD PTR tv169[ebp]
  000c8	83 ec 08	 sub	 esp, 8
  000cb	f2 0f 10 0d 00
	00 00 00	 movsd	 xmm1, QWORD PTR __real@3fe0c09b332ccccd
  000d3	f2 0f 11 0c 24	 movsd	 QWORD PTR [esp], xmm1
  000d8	f2 0f 11 45 b0	 movsd	 QWORD PTR tv190[ebp], xmm0
  000dd	e8 00 00 00 00	 call	 _tan
  000e2	83 c4 08	 add	 esp, 8
  000e5	dd 5d a8	 fstp	 QWORD PTR tv175[ebp]
  000e8	f2 0f 10 45 b0	 movsd	 xmm0, QWORD PTR tv190[ebp]
  000ed	f2 0f 5e 45 a8	 divsd	 xmm0, QWORD PTR tv175[ebp]
  000f2	f2 0f 5a c0	 cvtsd2ss xmm0, xmm0
  000f6	f3 0f 11 05 00
	00 00 00	 movss	 DWORD PTR ?current_3d_viewangle_distance_conversion_factor@@3MA, xmm0

; 397  : 	}
; 398  : 	else	// Retro 31Oct2004 (all)

  000fe	eb 50		 jmp	 SHORT $LN4@realise_3d
$LN3@realise_3d:

; 399  : 	{
; 400  : 		// Casm 08OCT05
; 401  : 		current_3d_viewangle_distance_conversion_factor = tan ( env->width_view_angle / 2 ) / tan ( rad ( 110 / 2 ) );

  00100	8b 45 08	 mov	 eax, DWORD PTR _env$[ebp]
  00103	f3 0f 10 40 08	 movss	 xmm0, DWORD PTR [eax+8]
  00108	f3 0f 5e 05 00
	00 00 00	 divss	 xmm0, DWORD PTR __real@40000000
  00110	51		 push	 ecx
  00111	f3 0f 11 04 24	 movss	 DWORD PTR [esp], xmm0
  00116	e8 00 00 00 00	 call	 ?tan@@YGMM@Z		; tan
  0011b	d9 5d bc	 fstp	 DWORD PTR tv182[ebp]
  0011e	f3 0f 10 45 bc	 movss	 xmm0, DWORD PTR tv182[ebp]
  00123	51		 push	 ecx
  00124	f3 0f 10 0d 00
	00 00 00	 movss	 xmm1, DWORD PTR __real@3f75be0b
  0012c	f3 0f 11 0c 24	 movss	 DWORD PTR [esp], xmm1
  00131	f3 0f 11 45 b8	 movss	 DWORD PTR tv192[ebp], xmm0
  00136	e8 00 00 00 00	 call	 ?tan@@YGMM@Z		; tan
  0013b	d9 5d b4	 fstp	 DWORD PTR tv188[ebp]
  0013e	f3 0f 10 45 b8	 movss	 xmm0, DWORD PTR tv192[ebp]
  00143	f3 0f 5e 45 b4	 divss	 xmm0, DWORD PTR tv188[ebp]
  00148	f3 0f 11 05 00
	00 00 00	 movss	 DWORD PTR ?current_3d_viewangle_distance_conversion_factor@@3MA, xmm0
$LN4@realise_3d:

; 402  : 	}
; 403  : }

  00150	5f		 pop	 edi
  00151	5e		 pop	 esi
  00152	5b		 pop	 ebx
  00153	8b e5		 mov	 esp, ebp
  00155	5d		 pop	 ebp
  00156	c2 04 00	 ret	 4
?realise_3d_clip_extents@@YGXPAUENV_3D@@@Z ENDP		; realise_3d_clip_extents
_TEXT	ENDS
; Function compile flags: /Odtp /ZI
; File c:\users\nhv90\projects\eech\modules\3d\3dview.c
;	COMDAT ?get_3d_fog_distances@@YGXPAUENV_3D@@PAM1@Z
_TEXT	SEGMENT
_env$ = 8						; size = 4
_fog_start$ = 12					; size = 4
_fog_end$ = 16						; size = 4
?get_3d_fog_distances@@YGXPAUENV_3D@@PAM1@Z PROC	; get_3d_fog_distances, COMDAT

; 361  : {

  00000	55		 push	 ebp
  00001	8b ec		 mov	 ebp, esp
  00003	83 ec 40	 sub	 esp, 64			; 00000040H
  00006	53		 push	 ebx
  00007	56		 push	 esi
  00008	57		 push	 edi

; 362  : 
; 363  : 	ASSERT ( env );

  00009	83 7d 08 00	 cmp	 DWORD PTR _env$[ebp], 0
  0000d	75 18		 jne	 SHORT $LN2@get_3d_fog
  0000f	a1 00 00 00 00	 mov	 eax, DWORD PTR ?__LINE__Var@?0??get_3d_fog_distances@@YGXPAUENV_3D@@PAM1@Z@4JA
  00014	83 c0 02	 add	 eax, 2
  00017	50		 push	 eax
  00018	68 00 00 00 00	 push	 OFFSET ??_C@_0DB@KNDNKAKB@c?3?2users?2nhv90?2projects?2eech?2mo@
  0001d	68 00 00 00 00	 push	 OFFSET ??_C@_03OJGPBPII@env@
  00022	e8 00 00 00 00	 call	 ?process_assert@@YGXPBD0H@Z ; process_assert
$LN2@get_3d_fog:

; 364  : 
; 365  : 	*fog_start = env->fog_start;

  00027	8b 45 0c	 mov	 eax, DWORD PTR _fog_start$[ebp]
  0002a	8b 4d 08	 mov	 ecx, DWORD PTR _env$[ebp]
  0002d	8b 51 60	 mov	 edx, DWORD PTR [ecx+96]
  00030	89 10		 mov	 DWORD PTR [eax], edx

; 366  : 
; 367  : 	*fog_end = env->fog_end;

  00032	8b 45 10	 mov	 eax, DWORD PTR _fog_end$[ebp]
  00035	8b 4d 08	 mov	 ecx, DWORD PTR _env$[ebp]
  00038	8b 51 64	 mov	 edx, DWORD PTR [ecx+100]
  0003b	89 10		 mov	 DWORD PTR [eax], edx

; 368  : }

  0003d	5f		 pop	 edi
  0003e	5e		 pop	 esi
  0003f	5b		 pop	 ebx
  00040	8b e5		 mov	 esp, ebp
  00042	5d		 pop	 ebp
  00043	c2 0c 00	 ret	 12			; 0000000cH
?get_3d_fog_distances@@YGXPAUENV_3D@@PAM1@Z ENDP	; get_3d_fog_distances
_TEXT	ENDS
; Function compile flags: /Odtp /ZI
; File c:\users\nhv90\projects\eech\modules\3d\3dview.c
;	COMDAT ?get_3d_fogmode@@YG?AW4FOGMODES@@PAUENV_3D@@@Z
_TEXT	SEGMENT
_env$ = 8						; size = 4
?get_3d_fogmode@@YG?AW4FOGMODES@@PAUENV_3D@@@Z PROC	; get_3d_fogmode, COMDAT

; 349  : {

  00000	55		 push	 ebp
  00001	8b ec		 mov	 ebp, esp
  00003	83 ec 40	 sub	 esp, 64			; 00000040H
  00006	53		 push	 ebx
  00007	56		 push	 esi
  00008	57		 push	 edi

; 350  : 
; 351  : 	ASSERT ( env );

  00009	83 7d 08 00	 cmp	 DWORD PTR _env$[ebp], 0
  0000d	75 18		 jne	 SHORT $LN2@get_3d_fog
  0000f	a1 00 00 00 00	 mov	 eax, DWORD PTR ?__LINE__Var@?0??get_3d_fogmode@@YG?AW4FOGMODES@@PAUENV_3D@@@Z@4JA
  00014	83 c0 02	 add	 eax, 2
  00017	50		 push	 eax
  00018	68 00 00 00 00	 push	 OFFSET ??_C@_0DB@KNDNKAKB@c?3?2users?2nhv90?2projects?2eech?2mo@
  0001d	68 00 00 00 00	 push	 OFFSET ??_C@_03OJGPBPII@env@
  00022	e8 00 00 00 00	 call	 ?process_assert@@YGXPBD0H@Z ; process_assert
$LN2@get_3d_fog:

; 352  : 
; 353  : 	return ( env->fogmode );

  00027	8b 45 08	 mov	 eax, DWORD PTR _env$[ebp]
  0002a	8b 40 44	 mov	 eax, DWORD PTR [eax+68]

; 354  : }

  0002d	5f		 pop	 edi
  0002e	5e		 pop	 esi
  0002f	5b		 pop	 ebx
  00030	8b e5		 mov	 esp, ebp
  00032	5d		 pop	 ebp
  00033	c2 04 00	 ret	 4
?get_3d_fogmode@@YG?AW4FOGMODES@@PAUENV_3D@@@Z ENDP	; get_3d_fogmode
_TEXT	ENDS
; Function compile flags: /Odtp /ZI
; File c:\users\nhv90\projects\eech\modules\3d\3dview.c
;	COMDAT ?get_3d_lightmode@@YG?AW4LIGHTMODES@@PAUENV_3D@@@Z
_TEXT	SEGMENT
_env$ = 8						; size = 4
?get_3d_lightmode@@YG?AW4LIGHTMODES@@PAUENV_3D@@@Z PROC	; get_3d_lightmode, COMDAT

; 337  : {

  00000	55		 push	 ebp
  00001	8b ec		 mov	 ebp, esp
  00003	83 ec 40	 sub	 esp, 64			; 00000040H
  00006	53		 push	 ebx
  00007	56		 push	 esi
  00008	57		 push	 edi

; 338  : 
; 339  : 	ASSERT ( env );

  00009	83 7d 08 00	 cmp	 DWORD PTR _env$[ebp], 0
  0000d	75 18		 jne	 SHORT $LN2@get_3d_lig
  0000f	a1 00 00 00 00	 mov	 eax, DWORD PTR ?__LINE__Var@?0??get_3d_lightmode@@YG?AW4LIGHTMODES@@PAUENV_3D@@@Z@4JA
  00014	83 c0 02	 add	 eax, 2
  00017	50		 push	 eax
  00018	68 00 00 00 00	 push	 OFFSET ??_C@_0DB@KNDNKAKB@c?3?2users?2nhv90?2projects?2eech?2mo@
  0001d	68 00 00 00 00	 push	 OFFSET ??_C@_03OJGPBPII@env@
  00022	e8 00 00 00 00	 call	 ?process_assert@@YGXPBD0H@Z ; process_assert
$LN2@get_3d_lig:

; 340  : 
; 341  : 	return ( env->lightmode );

  00027	8b 45 08	 mov	 eax, DWORD PTR _env$[ebp]
  0002a	8b 40 6c	 mov	 eax, DWORD PTR [eax+108]

; 342  : }

  0002d	5f		 pop	 edi
  0002e	5e		 pop	 esi
  0002f	5b		 pop	 ebx
  00030	8b e5		 mov	 esp, ebp
  00032	5d		 pop	 ebp
  00033	c2 04 00	 ret	 4
?get_3d_lightmode@@YG?AW4LIGHTMODES@@PAUENV_3D@@@Z ENDP	; get_3d_lightmode
_TEXT	ENDS
; Function compile flags: /Odtp /ZI
; File c:\users\nhv90\projects\eech\modules\3d\3dview.c
;	COMDAT ?get_3d_origin@@YGXPAUENV_3D@@PAM1@Z
_TEXT	SEGMENT
_env$ = 8						; size = 4
_xorigin$ = 12						; size = 4
_yorigin$ = 16						; size = 4
?get_3d_origin@@YGXPAUENV_3D@@PAM1@Z PROC		; get_3d_origin, COMDAT

; 324  : {

  00000	55		 push	 ebp
  00001	8b ec		 mov	 ebp, esp
  00003	83 ec 40	 sub	 esp, 64			; 00000040H
  00006	53		 push	 ebx
  00007	56		 push	 esi
  00008	57		 push	 edi

; 325  : 
; 326  : 	ASSERT ( env );

  00009	83 7d 08 00	 cmp	 DWORD PTR _env$[ebp], 0
  0000d	75 18		 jne	 SHORT $LN2@get_3d_ori
  0000f	a1 00 00 00 00	 mov	 eax, DWORD PTR ?__LINE__Var@?0??get_3d_origin@@YGXPAUENV_3D@@PAM1@Z@4JA
  00014	83 c0 02	 add	 eax, 2
  00017	50		 push	 eax
  00018	68 00 00 00 00	 push	 OFFSET ??_C@_0DB@KNDNKAKB@c?3?2users?2nhv90?2projects?2eech?2mo@
  0001d	68 00 00 00 00	 push	 OFFSET ??_C@_03OJGPBPII@env@
  00022	e8 00 00 00 00	 call	 ?process_assert@@YGXPBD0H@Z ; process_assert
$LN2@get_3d_ori:

; 327  : 
; 328  : 	*xorigin = env->x_origin;

  00027	8b 45 0c	 mov	 eax, DWORD PTR _xorigin$[ebp]
  0002a	8b 4d 08	 mov	 ecx, DWORD PTR _env$[ebp]
  0002d	8b 51 10	 mov	 edx, DWORD PTR [ecx+16]
  00030	89 10		 mov	 DWORD PTR [eax], edx

; 329  : 	*yorigin = env->y_origin;

  00032	8b 45 10	 mov	 eax, DWORD PTR _yorigin$[ebp]
  00035	8b 4d 08	 mov	 ecx, DWORD PTR _env$[ebp]
  00038	8b 51 14	 mov	 edx, DWORD PTR [ecx+20]
  0003b	89 10		 mov	 DWORD PTR [eax], edx

; 330  : }

  0003d	5f		 pop	 edi
  0003e	5e		 pop	 esi
  0003f	5b		 pop	 ebx
  00040	8b e5		 mov	 esp, ebp
  00042	5d		 pop	 ebp
  00043	c2 0c 00	 ret	 12			; 0000000cH
?get_3d_origin@@YGXPAUENV_3D@@PAM1@Z ENDP		; get_3d_origin
_TEXT	ENDS
; Function compile flags: /Odtp /ZI
; File c:\users\nhv90\projects\eech\modules\3d\3dview.c
;	COMDAT ?get_3d_view_distances@@YGXPAUENV_3D@@PAM1@Z
_TEXT	SEGMENT
_env$ = 8						; size = 4
_yonder$ = 12						; size = 4
_hither$ = 16						; size = 4
?get_3d_view_distances@@YGXPAUENV_3D@@PAM1@Z PROC	; get_3d_view_distances, COMDAT

; 311  : {

  00000	55		 push	 ebp
  00001	8b ec		 mov	 ebp, esp
  00003	83 ec 40	 sub	 esp, 64			; 00000040H
  00006	53		 push	 ebx
  00007	56		 push	 esi
  00008	57		 push	 edi

; 312  : 
; 313  : 	ASSERT ( env );

  00009	83 7d 08 00	 cmp	 DWORD PTR _env$[ebp], 0
  0000d	75 18		 jne	 SHORT $LN2@get_3d_vie
  0000f	a1 00 00 00 00	 mov	 eax, DWORD PTR ?__LINE__Var@?0??get_3d_view_distances@@YGXPAUENV_3D@@PAM1@Z@4JA
  00014	83 c0 02	 add	 eax, 2
  00017	50		 push	 eax
  00018	68 00 00 00 00	 push	 OFFSET ??_C@_0DB@KNDNKAKB@c?3?2users?2nhv90?2projects?2eech?2mo@
  0001d	68 00 00 00 00	 push	 OFFSET ??_C@_03OJGPBPII@env@
  00022	e8 00 00 00 00	 call	 ?process_assert@@YGXPBD0H@Z ; process_assert
$LN2@get_3d_vie:

; 314  : 
; 315  : 	*yonder = env->yonder_distance;

  00027	8b 45 0c	 mov	 eax, DWORD PTR _yonder$[ebp]
  0002a	8b 4d 08	 mov	 ecx, DWORD PTR _env$[ebp]
  0002d	8b 51 18	 mov	 edx, DWORD PTR [ecx+24]
  00030	89 10		 mov	 DWORD PTR [eax], edx

; 316  : 	*hither = env->hither_distance;

  00032	8b 45 10	 mov	 eax, DWORD PTR _hither$[ebp]
  00035	8b 4d 08	 mov	 ecx, DWORD PTR _env$[ebp]
  00038	8b 51 1c	 mov	 edx, DWORD PTR [ecx+28]
  0003b	89 10		 mov	 DWORD PTR [eax], edx

; 317  : }

  0003d	5f		 pop	 edi
  0003e	5e		 pop	 esi
  0003f	5b		 pop	 ebx
  00040	8b e5		 mov	 esp, ebp
  00042	5d		 pop	 ebp
  00043	c2 0c 00	 ret	 12			; 0000000cH
?get_3d_view_distances@@YGXPAUENV_3D@@PAM1@Z ENDP	; get_3d_view_distances
_TEXT	ENDS
; Function compile flags: /Odtp /ZI
; File c:\users\nhv90\projects\eech\modules\3d\3dview.c
;	COMDAT ?get_3d_viewport@@YGXPAUENV_3D@@PAM111@Z
_TEXT	SEGMENT
_env$ = 8						; size = 4
_xmin$ = 12						; size = 4
_ymin$ = 16						; size = 4
_xmax$ = 20						; size = 4
_ymax$ = 24						; size = 4
?get_3d_viewport@@YGXPAUENV_3D@@PAM111@Z PROC		; get_3d_viewport, COMDAT

; 296  : {

  00000	55		 push	 ebp
  00001	8b ec		 mov	 ebp, esp
  00003	83 ec 40	 sub	 esp, 64			; 00000040H
  00006	53		 push	 ebx
  00007	56		 push	 esi
  00008	57		 push	 edi

; 297  : 
; 298  : 	ASSERT ( env );

  00009	83 7d 08 00	 cmp	 DWORD PTR _env$[ebp], 0
  0000d	75 18		 jne	 SHORT $LN2@get_3d_vie
  0000f	a1 00 00 00 00	 mov	 eax, DWORD PTR ?__LINE__Var@?0??get_3d_viewport@@YGXPAUENV_3D@@PAM111@Z@4JA
  00014	83 c0 02	 add	 eax, 2
  00017	50		 push	 eax
  00018	68 00 00 00 00	 push	 OFFSET ??_C@_0DB@KNDNKAKB@c?3?2users?2nhv90?2projects?2eech?2mo@
  0001d	68 00 00 00 00	 push	 OFFSET ??_C@_03OJGPBPII@env@
  00022	e8 00 00 00 00	 call	 ?process_assert@@YGXPBD0H@Z ; process_assert
$LN2@get_3d_vie:

; 299  : 
; 300  : 	*xmin = env->clip_xmin;

  00027	8b 45 0c	 mov	 eax, DWORD PTR _xmin$[ebp]
  0002a	8b 4d 08	 mov	 ecx, DWORD PTR _env$[ebp]
  0002d	8b 51 30	 mov	 edx, DWORD PTR [ecx+48]
  00030	89 10		 mov	 DWORD PTR [eax], edx

; 301  : 	*ymin = env->clip_ymin;

  00032	8b 45 10	 mov	 eax, DWORD PTR _ymin$[ebp]
  00035	8b 4d 08	 mov	 ecx, DWORD PTR _env$[ebp]
  00038	8b 51 34	 mov	 edx, DWORD PTR [ecx+52]
  0003b	89 10		 mov	 DWORD PTR [eax], edx

; 302  : 	*xmax = env->clip_xmax;

  0003d	8b 45 14	 mov	 eax, DWORD PTR _xmax$[ebp]
  00040	8b 4d 08	 mov	 ecx, DWORD PTR _env$[ebp]
  00043	8b 51 38	 mov	 edx, DWORD PTR [ecx+56]
  00046	89 10		 mov	 DWORD PTR [eax], edx

; 303  : 	*ymax = env->clip_ymax;

  00048	8b 45 18	 mov	 eax, DWORD PTR _ymax$[ebp]
  0004b	8b 4d 08	 mov	 ecx, DWORD PTR _env$[ebp]
  0004e	8b 51 3c	 mov	 edx, DWORD PTR [ecx+60]
  00051	89 10		 mov	 DWORD PTR [eax], edx

; 304  : }

  00053	5f		 pop	 edi
  00054	5e		 pop	 esi
  00055	5b		 pop	 ebx
  00056	8b e5		 mov	 esp, ebp
  00058	5d		 pop	 ebp
  00059	c2 14 00	 ret	 20			; 00000014H
?get_3d_viewport@@YGXPAUENV_3D@@PAM111@Z ENDP		; get_3d_viewport
_TEXT	ENDS
; Function compile flags: /Odtp /ZI
; File c:\users\nhv90\projects\eech\modules\3d\3dview.c
;	COMDAT ?get_3d_viewpoint@@YGPAUVIEWPOINT@@PAUENV_3D@@@Z
_TEXT	SEGMENT
_env$ = 8						; size = 4
?get_3d_viewpoint@@YGPAUVIEWPOINT@@PAUENV_3D@@@Z PROC	; get_3d_viewpoint, COMDAT

; 284  : {

  00000	55		 push	 ebp
  00001	8b ec		 mov	 ebp, esp
  00003	83 ec 40	 sub	 esp, 64			; 00000040H
  00006	53		 push	 ebx
  00007	56		 push	 esi
  00008	57		 push	 edi

; 285  : 
; 286  : 	ASSERT ( env );

  00009	83 7d 08 00	 cmp	 DWORD PTR _env$[ebp], 0
  0000d	75 18		 jne	 SHORT $LN2@get_3d_vie
  0000f	a1 00 00 00 00	 mov	 eax, DWORD PTR ?__LINE__Var@?0??get_3d_viewpoint@@YGPAUVIEWPOINT@@PAUENV_3D@@@Z@4JA
  00014	83 c0 02	 add	 eax, 2
  00017	50		 push	 eax
  00018	68 00 00 00 00	 push	 OFFSET ??_C@_0DB@KNDNKAKB@c?3?2users?2nhv90?2projects?2eech?2mo@
  0001d	68 00 00 00 00	 push	 OFFSET ??_C@_03OJGPBPII@env@
  00022	e8 00 00 00 00	 call	 ?process_assert@@YGXPBD0H@Z ; process_assert
$LN2@get_3d_vie:

; 287  : 
; 288  : 	return ( env->view );

  00027	8b 45 08	 mov	 eax, DWORD PTR _env$[ebp]
  0002a	8b 40 40	 mov	 eax, DWORD PTR [eax+64]

; 289  : }

  0002d	5f		 pop	 edi
  0002e	5e		 pop	 esi
  0002f	5b		 pop	 ebx
  00030	8b e5		 mov	 esp, ebp
  00032	5d		 pop	 ebp
  00033	c2 04 00	 ret	 4
?get_3d_viewpoint@@YGPAUVIEWPOINT@@PAUENV_3D@@@Z ENDP	; get_3d_viewpoint
_TEXT	ENDS
; Function compile flags: /Odtp /ZI
; File c:\users\nhv90\projects\eech\modules\3d\3dview.c
;	COMDAT ?set_3d_fog_distances@@YGXPAUENV_3D@@MM@Z
_TEXT	SEGMENT
tv72 = -68						; size = 4
_env$ = 8						; size = 4
_fog_start$ = 12					; size = 4
_fog_end$ = 16						; size = 4
?set_3d_fog_distances@@YGXPAUENV_3D@@MM@Z PROC		; set_3d_fog_distances, COMDAT

; 243  : {

  00000	55		 push	 ebp
  00001	8b ec		 mov	 ebp, esp
  00003	83 ec 44	 sub	 esp, 68			; 00000044H
  00006	53		 push	 ebx
  00007	56		 push	 esi
  00008	57		 push	 edi

; 244  : 
; 245  : 	ASSERT ( env );

  00009	83 7d 08 00	 cmp	 DWORD PTR _env$[ebp], 0
  0000d	75 18		 jne	 SHORT $LN4@set_3d_fog
  0000f	a1 00 00 00 00	 mov	 eax, DWORD PTR ?__LINE__Var@?0??set_3d_fog_distances@@YGXPAUENV_3D@@MM@Z@4JA
  00014	83 c0 02	 add	 eax, 2
  00017	50		 push	 eax
  00018	68 00 00 00 00	 push	 OFFSET ??_C@_0DB@KNDNKAKB@c?3?2users?2nhv90?2projects?2eech?2mo@
  0001d	68 00 00 00 00	 push	 OFFSET ??_C@_03OJGPBPII@env@
  00022	e8 00 00 00 00	 call	 ?process_assert@@YGXPBD0H@Z ; process_assert
$LN4@set_3d_fog:

; 246  : 
; 247  : 	env->fog_start = fog_start;

  00027	8b 45 08	 mov	 eax, DWORD PTR _env$[ebp]
  0002a	f3 0f 10 45 0c	 movss	 xmm0, DWORD PTR _fog_start$[ebp]
  0002f	f3 0f 11 40 60	 movss	 DWORD PTR [eax+96], xmm0

; 248  : 
; 249  : 	env->fog_end = fog_end;

  00034	8b 45 08	 mov	 eax, DWORD PTR _env$[ebp]
  00037	f3 0f 10 45 10	 movss	 xmm0, DWORD PTR _fog_end$[ebp]
  0003c	f3 0f 11 40 64	 movss	 DWORD PTR [eax+100], xmm0

; 250  : 
; 251  : 	switch ( env->fogmode )

  00041	8b 45 08	 mov	 eax, DWORD PTR _env$[ebp]
  00044	8b 48 44	 mov	 ecx, DWORD PTR [eax+68]
  00047	89 4d bc	 mov	 DWORD PTR tv72[ebp], ecx
  0004a	83 7d bc 00	 cmp	 DWORD PTR tv72[ebp], 0
  0004e	7e 35		 jle	 SHORT $LN8@set_3d_fog
  00050	83 7d bc 02	 cmp	 DWORD PTR tv72[ebp], 2
  00054	7e 08		 jle	 SHORT $LN5@set_3d_fog
  00056	83 7d bc 03	 cmp	 DWORD PTR tv72[ebp], 3
  0005a	74 27		 je	 SHORT $LN7@set_3d_fog
  0005c	eb 27		 jmp	 SHORT $LN8@set_3d_fog
$LN5@set_3d_fog:

; 252  : 	{
; 253  : 
; 254  : 		case FOGMODE_ON_AUTOMATIC:
; 255  : 		case FOGMODE_ON_MANUAL:
; 256  : 		{
; 257  : 		
; 258  : 			ASSERT ( fog_start < fog_end );

  0005e	f3 0f 10 45 10	 movss	 xmm0, DWORD PTR _fog_end$[ebp]
  00063	0f 2f 45 0c	 comiss	 xmm0, DWORD PTR _fog_start$[ebp]
  00067	77 18		 ja	 SHORT $LN6@set_3d_fog
  00069	a1 00 00 00 00	 mov	 eax, DWORD PTR ?__LINE__Var@?0??set_3d_fog_distances@@YGXPAUENV_3D@@MM@Z@4JA
  0006e	83 c0 0f	 add	 eax, 15			; 0000000fH
  00071	50		 push	 eax
  00072	68 00 00 00 00	 push	 OFFSET ??_C@_0DB@KNDNKAKB@c?3?2users?2nhv90?2projects?2eech?2mo@
  00077	68 00 00 00 00	 push	 OFFSET ??_C@_0BE@JCJMHPKN@fog_start?5?$DM?5fog_end@
  0007c	e8 00 00 00 00	 call	 ?process_assert@@YGXPBD0H@Z ; process_assert
$LN6@set_3d_fog:

; 259  : 		
; 260  : 			break;

  00081	eb 0f		 jmp	 SHORT $LN2@set_3d_fog
$LN7@set_3d_fog:

; 261  : 		}
; 262  : 
; 263  : 		case FOGMODE_OFF:
; 264  : 		{
; 265  : 
; 266  : 			break;

  00083	eb 0d		 jmp	 SHORT $LN2@set_3d_fog
$LN8@set_3d_fog:

; 267  : 		}
; 268  : 
; 269  : 		default:
; 270  : 		{
; 271  : 
; 272  : 			debug_fatal ( "Unknown fogmode" );

  00085	68 00 00 00 00	 push	 OFFSET ??_C@_0BA@NCMBJOGI@Unknown?5fogmode@
  0008a	e8 00 00 00 00	 call	 ?debug_fatal@@YAXPBDZZ	; debug_fatal
  0008f	83 c4 04	 add	 esp, 4
$LN2@set_3d_fog:

; 273  : 
; 274  : 			break;
; 275  : 		}
; 276  : 	}
; 277  : }

  00092	5f		 pop	 edi
  00093	5e		 pop	 esi
  00094	5b		 pop	 ebx
  00095	8b e5		 mov	 esp, ebp
  00097	5d		 pop	 ebp
  00098	c2 0c 00	 ret	 12			; 0000000cH
?set_3d_fog_distances@@YGXPAUENV_3D@@MM@Z ENDP		; set_3d_fog_distances
_TEXT	ENDS
; Function compile flags: /Odtp /ZI
; File c:\users\nhv90\projects\eech\modules\3d\3dview.c
;	COMDAT ?set_3d_fogmode@@YGXPAUENV_3D@@W4FOGMODES@@@Z
_TEXT	SEGMENT
tv70 = -68						; size = 4
_env$ = 8						; size = 4
_mode$ = 12						; size = 4
?set_3d_fogmode@@YGXPAUENV_3D@@W4FOGMODES@@@Z PROC	; set_3d_fogmode, COMDAT

; 211  : {

  00000	55		 push	 ebp
  00001	8b ec		 mov	 ebp, esp
  00003	83 ec 44	 sub	 esp, 68			; 00000044H
  00006	53		 push	 ebx
  00007	56		 push	 esi
  00008	57		 push	 edi

; 212  : 
; 213  : 	ASSERT ( env );

  00009	83 7d 08 00	 cmp	 DWORD PTR _env$[ebp], 0
  0000d	75 18		 jne	 SHORT $LN4@set_3d_fog
  0000f	a1 00 00 00 00	 mov	 eax, DWORD PTR ?__LINE__Var@?0??set_3d_fogmode@@YGXPAUENV_3D@@W4FOGMODES@@@Z@4JA
  00014	83 c0 02	 add	 eax, 2
  00017	50		 push	 eax
  00018	68 00 00 00 00	 push	 OFFSET ??_C@_0DB@KNDNKAKB@c?3?2users?2nhv90?2projects?2eech?2mo@
  0001d	68 00 00 00 00	 push	 OFFSET ??_C@_03OJGPBPII@env@
  00022	e8 00 00 00 00	 call	 ?process_assert@@YGXPBD0H@Z ; process_assert
$LN4@set_3d_fog:

; 214  : 
; 215  : 	env->fogmode = mode;

  00027	8b 45 08	 mov	 eax, DWORD PTR _env$[ebp]
  0002a	8b 4d 0c	 mov	 ecx, DWORD PTR _mode$[ebp]
  0002d	89 48 44	 mov	 DWORD PTR [eax+68], ecx

; 216  : 
; 217  : 	switch ( mode )

  00030	8b 45 0c	 mov	 eax, DWORD PTR _mode$[ebp]
  00033	89 45 bc	 mov	 DWORD PTR tv70[ebp], eax
  00036	83 7d bc 00	 cmp	 DWORD PTR tv70[ebp], 0
  0003a	7e 0a		 jle	 SHORT $LN6@set_3d_fog
  0003c	83 7d bc 03	 cmp	 DWORD PTR tv70[ebp], 3
  00040	7e 02		 jle	 SHORT $LN5@set_3d_fog
  00042	eb 02		 jmp	 SHORT $LN6@set_3d_fog
$LN5@set_3d_fog:

; 218  : 	{
; 219  : 
; 220  : 		case FOGMODE_ON_AUTOMATIC:
; 221  : 		case FOGMODE_ON_MANUAL:
; 222  : 		case FOGMODE_OFF:
; 223  : 		{
; 224  : 		
; 225  : 			break;

  00044	eb 0d		 jmp	 SHORT $LN1@set_3d_fog
$LN6@set_3d_fog:

; 226  : 		}
; 227  : 
; 228  : 		default:
; 229  : 		{
; 230  : 
; 231  : 			debug_fatal ( "Unknown fogmode in set_3d_fogmode" );

  00046	68 00 00 00 00	 push	 OFFSET ??_C@_0CC@HAAIBGLP@Unknown?5fogmode?5in?5set_3d_fogmo@
  0004b	e8 00 00 00 00	 call	 ?debug_fatal@@YAXPBDZZ	; debug_fatal
  00050	83 c4 04	 add	 esp, 4
$LN1@set_3d_fog:

; 232  : 
; 233  : 			break;
; 234  : 		}
; 235  : 	}
; 236  : }

  00053	5f		 pop	 edi
  00054	5e		 pop	 esi
  00055	5b		 pop	 ebx
  00056	8b e5		 mov	 esp, ebp
  00058	5d		 pop	 ebp
  00059	c2 08 00	 ret	 8
?set_3d_fogmode@@YGXPAUENV_3D@@W4FOGMODES@@@Z ENDP	; set_3d_fogmode
_TEXT	ENDS
; Function compile flags: /Odtp /ZI
; File c:\users\nhv90\projects\eech\modules\3d\3dview.c
;	COMDAT ?set_3d_lightmode@@YGXPAUENV_3D@@W4LIGHTMODES@@@Z
_TEXT	SEGMENT
tv69 = -68						; size = 4
_env$ = 8						; size = 4
_mode$ = 12						; size = 4
?set_3d_lightmode@@YGXPAUENV_3D@@W4LIGHTMODES@@@Z PROC	; set_3d_lightmode, COMDAT

; 179  : {

  00000	55		 push	 ebp
  00001	8b ec		 mov	 ebp, esp
  00003	83 ec 44	 sub	 esp, 68			; 00000044H
  00006	53		 push	 ebx
  00007	56		 push	 esi
  00008	57		 push	 edi

; 180  : 
; 181  : 	ASSERT ( env );

  00009	83 7d 08 00	 cmp	 DWORD PTR _env$[ebp], 0
  0000d	75 18		 jne	 SHORT $LN4@set_3d_lig
  0000f	a1 00 00 00 00	 mov	 eax, DWORD PTR ?__LINE__Var@?0??set_3d_lightmode@@YGXPAUENV_3D@@W4LIGHTMODES@@@Z@4JA
  00014	83 c0 02	 add	 eax, 2
  00017	50		 push	 eax
  00018	68 00 00 00 00	 push	 OFFSET ??_C@_0DB@KNDNKAKB@c?3?2users?2nhv90?2projects?2eech?2mo@
  0001d	68 00 00 00 00	 push	 OFFSET ??_C@_03OJGPBPII@env@
  00022	e8 00 00 00 00	 call	 ?process_assert@@YGXPBD0H@Z ; process_assert
$LN4@set_3d_lig:

; 182  : 
; 183  : 	switch ( mode )

  00027	8b 45 0c	 mov	 eax, DWORD PTR _mode$[ebp]
  0002a	89 45 bc	 mov	 DWORD PTR tv69[ebp], eax
  0002d	83 7d bc 00	 cmp	 DWORD PTR tv69[ebp], 0
  00031	7c 0a		 jl	 SHORT $LN6@set_3d_lig
  00033	83 7d bc 02	 cmp	 DWORD PTR tv69[ebp], 2
  00037	7e 02		 jle	 SHORT $LN5@set_3d_lig
  00039	eb 02		 jmp	 SHORT $LN6@set_3d_lig
$LN5@set_3d_lig:

; 184  : 	{
; 185  : 
; 186  : 		case LIGHTMODE_NO_LIGHT:
; 187  : 		case LIGHTMODE_AUTOMATIC_LIGHT:
; 188  : 		case LIGHTMODE_MANUAL_LIGHT:
; 189  : 		{
; 190  : 
; 191  : 			break;

  0003b	eb 0d		 jmp	 SHORT $LN2@set_3d_lig
$LN6@set_3d_lig:

; 192  : 		}
; 193  : 
; 194  : 		default:
; 195  : 		{
; 196  : 
; 197  : 			debug_fatal ( "Trying to set an unknown light mode for 3d environment" );

  0003d	68 00 00 00 00	 push	 OFFSET ??_C@_0DH@JOGHONPK@Trying?5to?5set?5an?5unknown?5light?5@
  00042	e8 00 00 00 00	 call	 ?debug_fatal@@YAXPBDZZ	; debug_fatal
  00047	83 c4 04	 add	 esp, 4
$LN2@set_3d_lig:

; 198  : 
; 199  : 			break;
; 200  : 		}
; 201  : 	}
; 202  : 
; 203  : 	env->lightmode = mode;

  0004a	8b 45 08	 mov	 eax, DWORD PTR _env$[ebp]
  0004d	8b 4d 0c	 mov	 ecx, DWORD PTR _mode$[ebp]
  00050	89 48 6c	 mov	 DWORD PTR [eax+108], ecx

; 204  : }

  00053	5f		 pop	 edi
  00054	5e		 pop	 esi
  00055	5b		 pop	 ebx
  00056	8b e5		 mov	 esp, ebp
  00058	5d		 pop	 ebp
  00059	c2 08 00	 ret	 8
?set_3d_lightmode@@YGXPAUENV_3D@@W4LIGHTMODES@@@Z ENDP	; set_3d_lightmode
_TEXT	ENDS
; Function compile flags: /Odtp /ZI
; File c:\users\nhv90\projects\eech\modules\3d\3dview.c
;	COMDAT ?set_3d_viewcone@@YGXPAUENV_3D@@MMMM@Z
_TEXT	SEGMENT
_tan_height_angle$ = -8					; size = 4
_tan_width_angle$ = -4					; size = 4
_env$ = 8						; size = 4
_width$ = 12						; size = 4
_height$ = 16						; size = 4
_width_view_angle$ = 20					; size = 4
_height_view_angle$ = 24				; size = 4
?set_3d_viewcone@@YGXPAUENV_3D@@MMMM@Z PROC		; set_3d_viewcone, COMDAT

; 149  : {

  00000	55		 push	 ebp
  00001	8b ec		 mov	 ebp, esp
  00003	83 ec 48	 sub	 esp, 72			; 00000048H
  00006	53		 push	 ebx
  00007	56		 push	 esi
  00008	57		 push	 edi

; 150  : 
; 151  : 	float
; 152  : 		tan_width_angle,
; 153  : 		tan_height_angle;
; 154  : 
; 155  : 	ASSERT ( env );

  00009	83 7d 08 00	 cmp	 DWORD PTR _env$[ebp], 0
  0000d	75 18		 jne	 SHORT $LN2@set_3d_vie
  0000f	a1 00 00 00 00	 mov	 eax, DWORD PTR ?__LINE__Var@?0??set_3d_viewcone@@YGXPAUENV_3D@@MMMM@Z@4JA
  00014	83 c0 06	 add	 eax, 6
  00017	50		 push	 eax
  00018	68 00 00 00 00	 push	 OFFSET ??_C@_0DB@KNDNKAKB@c?3?2users?2nhv90?2projects?2eech?2mo@
  0001d	68 00 00 00 00	 push	 OFFSET ??_C@_03OJGPBPII@env@
  00022	e8 00 00 00 00	 call	 ?process_assert@@YGXPBD0H@Z ; process_assert
$LN2@set_3d_vie:

; 156  : 
; 157  : 	//
; 158  : 	// viewangle must never be PI/2 or above, as it is impossible to occur in nature
; 159  : 	//
; 160  : 
; 161  : 	tan_width_angle = tan ( width_view_angle / 2.0 );

  00027	f3 0f 5a 45 14	 cvtss2sd xmm0, DWORD PTR _width_view_angle$[ebp]
  0002c	f2 0f 5e 05 00
	00 00 00	 divsd	 xmm0, QWORD PTR __real@4000000000000000
  00034	83 ec 08	 sub	 esp, 8
  00037	f2 0f 11 04 24	 movsd	 QWORD PTR [esp], xmm0
  0003c	e8 00 00 00 00	 call	 _tan
  00041	83 c4 08	 add	 esp, 8
  00044	d9 5d fc	 fstp	 DWORD PTR _tan_width_angle$[ebp]

; 162  : 
; 163  : 	tan_height_angle = tan ( height_view_angle / 2.0 );

  00047	f3 0f 5a 45 18	 cvtss2sd xmm0, DWORD PTR _height_view_angle$[ebp]
  0004c	f2 0f 5e 05 00
	00 00 00	 divsd	 xmm0, QWORD PTR __real@4000000000000000
  00054	83 ec 08	 sub	 esp, 8
  00057	f2 0f 11 04 24	 movsd	 QWORD PTR [esp], xmm0
  0005c	e8 00 00 00 00	 call	 _tan
  00061	83 c4 08	 add	 esp, 8
  00064	d9 5d f8	 fstp	 DWORD PTR _tan_height_angle$[ebp]

; 164  : 
; 165  : 	env->screen_i_scale = ( width / ( 2.0 * tan_width_angle ) );

  00067	f3 0f 5a 45 0c	 cvtss2sd xmm0, DWORD PTR _width$[ebp]
  0006c	f3 0f 5a 4d fc	 cvtss2sd xmm1, DWORD PTR _tan_width_angle$[ebp]
  00071	f2 0f 59 0d 00
	00 00 00	 mulsd	 xmm1, QWORD PTR __real@4000000000000000
  00079	f2 0f 5e c1	 divsd	 xmm0, xmm1
  0007d	f2 0f 5a c0	 cvtsd2ss xmm0, xmm0
  00081	8b 45 08	 mov	 eax, DWORD PTR _env$[ebp]
  00084	f3 0f 11 00	 movss	 DWORD PTR [eax], xmm0

; 166  : 
; 167  : 	env->screen_j_scale = ( height / ( 2.0 * tan_height_angle ) );

  00088	f3 0f 5a 45 10	 cvtss2sd xmm0, DWORD PTR _height$[ebp]
  0008d	f3 0f 5a 4d f8	 cvtss2sd xmm1, DWORD PTR _tan_height_angle$[ebp]
  00092	f2 0f 59 0d 00
	00 00 00	 mulsd	 xmm1, QWORD PTR __real@4000000000000000
  0009a	f2 0f 5e c1	 divsd	 xmm0, xmm1
  0009e	f2 0f 5a c0	 cvtsd2ss xmm0, xmm0
  000a2	8b 45 08	 mov	 eax, DWORD PTR _env$[ebp]
  000a5	f3 0f 11 40 04	 movss	 DWORD PTR [eax+4], xmm0

; 168  : 
; 169  : 	env->width_view_angle = width_view_angle;

  000aa	8b 45 08	 mov	 eax, DWORD PTR _env$[ebp]
  000ad	f3 0f 10 45 14	 movss	 xmm0, DWORD PTR _width_view_angle$[ebp]
  000b2	f3 0f 11 40 08	 movss	 DWORD PTR [eax+8], xmm0

; 170  : 
; 171  : 	env->height_view_angle = height_view_angle;

  000b7	8b 45 08	 mov	 eax, DWORD PTR _env$[ebp]
  000ba	f3 0f 10 45 18	 movss	 xmm0, DWORD PTR _height_view_angle$[ebp]
  000bf	f3 0f 11 40 0c	 movss	 DWORD PTR [eax+12], xmm0

; 172  : }

  000c4	5f		 pop	 edi
  000c5	5e		 pop	 esi
  000c6	5b		 pop	 ebx
  000c7	8b e5		 mov	 esp, ebp
  000c9	5d		 pop	 ebp
  000ca	c2 14 00	 ret	 20			; 00000014H
?set_3d_viewcone@@YGXPAUENV_3D@@MMMM@Z ENDP		; set_3d_viewcone
_TEXT	ENDS
; Function compile flags: /Odtp /ZI
; File c:\users\nhv90\projects\eech\modules\3d\3dview.c
;	COMDAT ?set_3d_origin@@YGXPAUENV_3D@@MM@Z
_TEXT	SEGMENT
_env$ = 8						; size = 4
_xorigin$ = 12						; size = 4
_yorigin$ = 16						; size = 4
?set_3d_origin@@YGXPAUENV_3D@@MM@Z PROC			; set_3d_origin, COMDAT

; 135  : {

  00000	55		 push	 ebp
  00001	8b ec		 mov	 ebp, esp
  00003	83 ec 40	 sub	 esp, 64			; 00000040H
  00006	53		 push	 ebx
  00007	56		 push	 esi
  00008	57		 push	 edi

; 136  : 
; 137  : 	ASSERT ( env );

  00009	83 7d 08 00	 cmp	 DWORD PTR _env$[ebp], 0
  0000d	75 18		 jne	 SHORT $LN2@set_3d_ori
  0000f	a1 00 00 00 00	 mov	 eax, DWORD PTR ?__LINE__Var@?0??set_3d_origin@@YGXPAUENV_3D@@MM@Z@4JA
  00014	83 c0 02	 add	 eax, 2
  00017	50		 push	 eax
  00018	68 00 00 00 00	 push	 OFFSET ??_C@_0DB@KNDNKAKB@c?3?2users?2nhv90?2projects?2eech?2mo@
  0001d	68 00 00 00 00	 push	 OFFSET ??_C@_03OJGPBPII@env@
  00022	e8 00 00 00 00	 call	 ?process_assert@@YGXPBD0H@Z ; process_assert
$LN2@set_3d_ori:

; 138  : 
; 139  : 	env->x_origin = xorigin;

  00027	8b 45 08	 mov	 eax, DWORD PTR _env$[ebp]
  0002a	f3 0f 10 45 0c	 movss	 xmm0, DWORD PTR _xorigin$[ebp]
  0002f	f3 0f 11 40 10	 movss	 DWORD PTR [eax+16], xmm0

; 140  : 
; 141  : 	env->y_origin = yorigin;

  00034	8b 45 08	 mov	 eax, DWORD PTR _env$[ebp]
  00037	f3 0f 10 45 10	 movss	 xmm0, DWORD PTR _yorigin$[ebp]
  0003c	f3 0f 11 40 14	 movss	 DWORD PTR [eax+20], xmm0

; 142  : }

  00041	5f		 pop	 edi
  00042	5e		 pop	 esi
  00043	5b		 pop	 ebx
  00044	8b e5		 mov	 esp, ebp
  00046	5d		 pop	 ebp
  00047	c2 0c 00	 ret	 12			; 0000000cH
?set_3d_origin@@YGXPAUENV_3D@@MM@Z ENDP			; set_3d_origin
_TEXT	ENDS
; Function compile flags: /Odtp /ZI
; File c:\users\nhv90\projects\eech\modules\3d\3dview.c
;	COMDAT ?set_3d_view_distances@@YGXPAUENV_3D@@MMMM@Z
_TEXT	SEGMENT
_env$ = 8						; size = 4
_yonder$ = 12						; size = 4
_hither$ = 16						; size = 4
_zbuffer_zmin$ = 20					; size = 4
_zbuffer_zmax$ = 24					; size = 4
?set_3d_view_distances@@YGXPAUENV_3D@@MMMM@Z PROC	; set_3d_view_distances, COMDAT

; 119  : {

  00000	55		 push	 ebp
  00001	8b ec		 mov	 ebp, esp
  00003	83 ec 40	 sub	 esp, 64			; 00000040H
  00006	53		 push	 ebx
  00007	56		 push	 esi
  00008	57		 push	 edi

; 120  : 
; 121  : 	ASSERT ( env );

  00009	83 7d 08 00	 cmp	 DWORD PTR _env$[ebp], 0
  0000d	75 18		 jne	 SHORT $LN2@set_3d_vie
  0000f	a1 00 00 00 00	 mov	 eax, DWORD PTR ?__LINE__Var@?0??set_3d_view_distances@@YGXPAUENV_3D@@MMMM@Z@4JA
  00014	83 c0 02	 add	 eax, 2
  00017	50		 push	 eax
  00018	68 00 00 00 00	 push	 OFFSET ??_C@_0DB@KNDNKAKB@c?3?2users?2nhv90?2projects?2eech?2mo@
  0001d	68 00 00 00 00	 push	 OFFSET ??_C@_03OJGPBPII@env@
  00022	e8 00 00 00 00	 call	 ?process_assert@@YGXPBD0H@Z ; process_assert
$LN2@set_3d_vie:

; 122  : 
; 123  : 	env->yonder_distance = yonder;

  00027	8b 45 08	 mov	 eax, DWORD PTR _env$[ebp]
  0002a	f3 0f 10 45 0c	 movss	 xmm0, DWORD PTR _yonder$[ebp]
  0002f	f3 0f 11 40 18	 movss	 DWORD PTR [eax+24], xmm0

; 124  : 	env->hither_distance = hither;

  00034	8b 45 08	 mov	 eax, DWORD PTR _env$[ebp]
  00037	f3 0f 10 45 10	 movss	 xmm0, DWORD PTR _hither$[ebp]
  0003c	f3 0f 11 40 1c	 movss	 DWORD PTR [eax+28], xmm0

; 125  : 
; 126  : 	env->zbuffer_z_minimum_value = zbuffer_zmin;

  00041	8b 45 08	 mov	 eax, DWORD PTR _env$[ebp]
  00044	f3 0f 10 45 14	 movss	 xmm0, DWORD PTR _zbuffer_zmin$[ebp]
  00049	f3 0f 11 40 20	 movss	 DWORD PTR [eax+32], xmm0

; 127  : 	env->zbuffer_z_maximum_value = zbuffer_zmax;

  0004e	8b 45 08	 mov	 eax, DWORD PTR _env$[ebp]
  00051	f3 0f 10 45 18	 movss	 xmm0, DWORD PTR _zbuffer_zmax$[ebp]
  00056	f3 0f 11 40 24	 movss	 DWORD PTR [eax+36], xmm0

; 128  : }

  0005b	5f		 pop	 edi
  0005c	5e		 pop	 esi
  0005d	5b		 pop	 ebx
  0005e	8b e5		 mov	 esp, ebp
  00060	5d		 pop	 ebp
  00061	c2 14 00	 ret	 20			; 00000014H
?set_3d_view_distances@@YGXPAUENV_3D@@MMMM@Z ENDP	; set_3d_view_distances
_TEXT	ENDS
; Function compile flags: /Odtp /ZI
; File c:\users\nhv90\projects\eech\modules\3d\3dview.c
;	COMDAT ?set_3d_viewport@@YGXPAUENV_3D@@MMMM@Z
_TEXT	SEGMENT
_env$ = 8						; size = 4
_xmin$ = 12						; size = 4
_ymin$ = 16						; size = 4
_xmax$ = 20						; size = 4
_ymax$ = 24						; size = 4
?set_3d_viewport@@YGXPAUENV_3D@@MMMM@Z PROC		; set_3d_viewport, COMDAT

; 102  : {

  00000	55		 push	 ebp
  00001	8b ec		 mov	 ebp, esp
  00003	83 ec 40	 sub	 esp, 64			; 00000040H
  00006	53		 push	 ebx
  00007	56		 push	 esi
  00008	57		 push	 edi

; 103  : 
; 104  : 	ASSERT ( env );

  00009	83 7d 08 00	 cmp	 DWORD PTR _env$[ebp], 0
  0000d	75 18		 jne	 SHORT $LN2@set_3d_vie
  0000f	a1 00 00 00 00	 mov	 eax, DWORD PTR ?__LINE__Var@?0??set_3d_viewport@@YGXPAUENV_3D@@MMMM@Z@4JA
  00014	83 c0 02	 add	 eax, 2
  00017	50		 push	 eax
  00018	68 00 00 00 00	 push	 OFFSET ??_C@_0DB@KNDNKAKB@c?3?2users?2nhv90?2projects?2eech?2mo@
  0001d	68 00 00 00 00	 push	 OFFSET ??_C@_03OJGPBPII@env@
  00022	e8 00 00 00 00	 call	 ?process_assert@@YGXPBD0H@Z ; process_assert
$LN2@set_3d_vie:

; 105  : 	ASSERT ( xmin <= xmax );

  00027	f3 0f 10 45 14	 movss	 xmm0, DWORD PTR _xmax$[ebp]
  0002c	0f 2f 45 0c	 comiss	 xmm0, DWORD PTR _xmin$[ebp]
  00030	73 18		 jae	 SHORT $LN3@set_3d_vie
  00032	a1 00 00 00 00	 mov	 eax, DWORD PTR ?__LINE__Var@?0??set_3d_viewport@@YGXPAUENV_3D@@MMMM@Z@4JA
  00037	83 c0 03	 add	 eax, 3
  0003a	50		 push	 eax
  0003b	68 00 00 00 00	 push	 OFFSET ??_C@_0DB@KNDNKAKB@c?3?2users?2nhv90?2projects?2eech?2mo@
  00040	68 00 00 00 00	 push	 OFFSET ??_C@_0N@HCKADEAA@xmin?5?$DM?$DN?5xmax@
  00045	e8 00 00 00 00	 call	 ?process_assert@@YGXPBD0H@Z ; process_assert
$LN3@set_3d_vie:

; 106  : 	ASSERT ( ymin <= ymax );

  0004a	f3 0f 10 45 18	 movss	 xmm0, DWORD PTR _ymax$[ebp]
  0004f	0f 2f 45 10	 comiss	 xmm0, DWORD PTR _ymin$[ebp]
  00053	73 18		 jae	 SHORT $LN4@set_3d_vie
  00055	a1 00 00 00 00	 mov	 eax, DWORD PTR ?__LINE__Var@?0??set_3d_viewport@@YGXPAUENV_3D@@MMMM@Z@4JA
  0005a	83 c0 04	 add	 eax, 4
  0005d	50		 push	 eax
  0005e	68 00 00 00 00	 push	 OFFSET ??_C@_0DB@KNDNKAKB@c?3?2users?2nhv90?2projects?2eech?2mo@
  00063	68 00 00 00 00	 push	 OFFSET ??_C@_0N@JCFGMEDF@ymin?5?$DM?$DN?5ymax@
  00068	e8 00 00 00 00	 call	 ?process_assert@@YGXPBD0H@Z ; process_assert
$LN4@set_3d_vie:

; 107  : 
; 108  : 	env->clip_xmin = xmin;

  0006d	8b 45 08	 mov	 eax, DWORD PTR _env$[ebp]
  00070	f3 0f 10 45 0c	 movss	 xmm0, DWORD PTR _xmin$[ebp]
  00075	f3 0f 11 40 30	 movss	 DWORD PTR [eax+48], xmm0

; 109  : 	env->clip_ymin = ymin;

  0007a	8b 45 08	 mov	 eax, DWORD PTR _env$[ebp]
  0007d	f3 0f 10 45 10	 movss	 xmm0, DWORD PTR _ymin$[ebp]
  00082	f3 0f 11 40 34	 movss	 DWORD PTR [eax+52], xmm0

; 110  : 	env->clip_xmax = xmax;

  00087	8b 45 08	 mov	 eax, DWORD PTR _env$[ebp]
  0008a	f3 0f 10 45 14	 movss	 xmm0, DWORD PTR _xmax$[ebp]
  0008f	f3 0f 11 40 38	 movss	 DWORD PTR [eax+56], xmm0

; 111  : 	env->clip_ymax = ymax;

  00094	8b 45 08	 mov	 eax, DWORD PTR _env$[ebp]
  00097	f3 0f 10 45 18	 movss	 xmm0, DWORD PTR _ymax$[ebp]
  0009c	f3 0f 11 40 3c	 movss	 DWORD PTR [eax+60], xmm0

; 112  : }

  000a1	5f		 pop	 edi
  000a2	5e		 pop	 esi
  000a3	5b		 pop	 ebx
  000a4	8b e5		 mov	 esp, ebp
  000a6	5d		 pop	 ebp
  000a7	c2 14 00	 ret	 20			; 00000014H
?set_3d_viewport@@YGXPAUENV_3D@@MMMM@Z ENDP		; set_3d_viewport
_TEXT	ENDS
; Function compile flags: /Odtp /ZI
; File c:\users\nhv90\projects\eech\modules\3d\3dview.c
;	COMDAT ?set_3d_viewpoint@@YGXPAUENV_3D@@PAUVIEWPOINT@@@Z
_TEXT	SEGMENT
_env$ = 8						; size = 4
_vp$ = 12						; size = 4
?set_3d_viewpoint@@YGXPAUENV_3D@@PAUVIEWPOINT@@@Z PROC	; set_3d_viewpoint, COMDAT

; 89   : {

  00000	55		 push	 ebp
  00001	8b ec		 mov	 ebp, esp
  00003	83 ec 40	 sub	 esp, 64			; 00000040H
  00006	53		 push	 ebx
  00007	56		 push	 esi
  00008	57		 push	 edi

; 90   : 
; 91   : 	ASSERT ( env );

  00009	83 7d 08 00	 cmp	 DWORD PTR _env$[ebp], 0
  0000d	75 18		 jne	 SHORT $LN2@set_3d_vie
  0000f	a1 00 00 00 00	 mov	 eax, DWORD PTR ?__LINE__Var@?0??set_3d_viewpoint@@YGXPAUENV_3D@@PAUVIEWPOINT@@@Z@4JA
  00014	83 c0 02	 add	 eax, 2
  00017	50		 push	 eax
  00018	68 00 00 00 00	 push	 OFFSET ??_C@_0DB@KNDNKAKB@c?3?2users?2nhv90?2projects?2eech?2mo@
  0001d	68 00 00 00 00	 push	 OFFSET ??_C@_03OJGPBPII@env@
  00022	e8 00 00 00 00	 call	 ?process_assert@@YGXPBD0H@Z ; process_assert
$LN2@set_3d_vie:

; 92   : 	ASSERT ( vp );

  00027	83 7d 0c 00	 cmp	 DWORD PTR _vp$[ebp], 0
  0002b	75 18		 jne	 SHORT $LN3@set_3d_vie
  0002d	a1 00 00 00 00	 mov	 eax, DWORD PTR ?__LINE__Var@?0??set_3d_viewpoint@@YGXPAUENV_3D@@PAUVIEWPOINT@@@Z@4JA
  00032	83 c0 03	 add	 eax, 3
  00035	50		 push	 eax
  00036	68 00 00 00 00	 push	 OFFSET ??_C@_0DB@KNDNKAKB@c?3?2users?2nhv90?2projects?2eech?2mo@
  0003b	68 00 00 00 00	 push	 OFFSET ??_C@_02HPPNELPJ@vp@
  00040	e8 00 00 00 00	 call	 ?process_assert@@YGXPBD0H@Z ; process_assert
$LN3@set_3d_vie:

; 93   : 
; 94   : 	env->view = vp;

  00045	8b 45 08	 mov	 eax, DWORD PTR _env$[ebp]
  00048	8b 4d 0c	 mov	 ecx, DWORD PTR _vp$[ebp]
  0004b	89 48 40	 mov	 DWORD PTR [eax+64], ecx

; 95   : }

  0004e	5f		 pop	 edi
  0004f	5e		 pop	 esi
  00050	5b		 pop	 ebx
  00051	8b e5		 mov	 esp, ebp
  00053	5d		 pop	 ebp
  00054	c2 08 00	 ret	 8
?set_3d_viewpoint@@YGXPAUENV_3D@@PAUVIEWPOINT@@@Z ENDP	; set_3d_viewpoint
_TEXT	ENDS
; Function compile flags: /Odtp /ZI
; File c:\program files (x86)\microsoft visual studio\2017\community\vc\tools\msvc\14.16.27023\include\cmath
;	COMDAT ?tan@@YGMM@Z
_TEXT	SEGMENT
__Xx$ = 8						; size = 4
?tan@@YGMM@Z PROC					; tan, COMDAT

; 299  : 	{

  00000	55		 push	 ebp
  00001	8b ec		 mov	 ebp, esp
  00003	83 ec 40	 sub	 esp, 64			; 00000040H
  00006	53		 push	 ebx
  00007	56		 push	 esi
  00008	57		 push	 edi

; 300  : 	return (_CSTD tanf(_Xx));

  00009	51		 push	 ecx
  0000a	f3 0f 10 45 08	 movss	 xmm0, DWORD PTR __Xx$[ebp]
  0000f	f3 0f 11 04 24	 movss	 DWORD PTR [esp], xmm0
  00014	e8 00 00 00 00	 call	 _tanf
  00019	83 c4 04	 add	 esp, 4

; 301  : 	}

  0001c	5f		 pop	 edi
  0001d	5e		 pop	 esi
  0001e	5b		 pop	 ebx
  0001f	8b e5		 mov	 esp, ebp
  00021	5d		 pop	 ebp
  00022	c2 04 00	 ret	 4
?tan@@YGMM@Z ENDP					; tan
_TEXT	ENDS
; Function compile flags: /Odtp /ZI
; File c:\program files (x86)\microsoft visual studio\2017\community\vc\tools\msvc\14.16.27023\include\cmath
;	COMDAT ?sin@@YGMM@Z
_TEXT	SEGMENT
__Xx$ = 8						; size = 4
?sin@@YGMM@Z PROC					; sin, COMDAT

; 284  : 	{

  00000	55		 push	 ebp
  00001	8b ec		 mov	 ebp, esp
  00003	83 ec 40	 sub	 esp, 64			; 00000040H
  00006	53		 push	 ebx
  00007	56		 push	 esi
  00008	57		 push	 edi

; 285  : 	return (_CSTD sinf(_Xx));

  00009	51		 push	 ecx
  0000a	f3 0f 10 45 08	 movss	 xmm0, DWORD PTR __Xx$[ebp]
  0000f	f3 0f 11 04 24	 movss	 DWORD PTR [esp], xmm0
  00014	e8 00 00 00 00	 call	 _sinf
  00019	83 c4 04	 add	 esp, 4

; 286  : 	}

  0001c	5f		 pop	 edi
  0001d	5e		 pop	 esi
  0001e	5b		 pop	 ebx
  0001f	8b e5		 mov	 esp, ebp
  00021	5d		 pop	 ebp
  00022	c2 04 00	 ret	 4
?sin@@YGMM@Z ENDP					; sin
_TEXT	ENDS
; Function compile flags: /Odtp /ZI
; File c:\program files (x86)\microsoft visual studio\2017\community\vc\tools\msvc\14.16.27023\include\cmath
;	COMDAT ?cos@@YGMM@Z
_TEXT	SEGMENT
__Xx$ = 8						; size = 4
?cos@@YGMM@Z PROC					; cos, COMDAT

; 77   : 	{

  00000	55		 push	 ebp
  00001	8b ec		 mov	 ebp, esp
  00003	83 ec 40	 sub	 esp, 64			; 00000040H
  00006	53		 push	 ebx
  00007	56		 push	 esi
  00008	57		 push	 edi

; 78   : 	return (_CSTD cosf(_Xx));

  00009	51		 push	 ecx
  0000a	f3 0f 10 45 08	 movss	 xmm0, DWORD PTR __Xx$[ebp]
  0000f	f3 0f 11 04 24	 movss	 DWORD PTR [esp], xmm0
  00014	e8 00 00 00 00	 call	 _cosf
  00019	83 c4 04	 add	 esp, 4

; 79   : 	}

  0001c	5f		 pop	 edi
  0001d	5e		 pop	 esi
  0001e	5b		 pop	 ebx
  0001f	8b e5		 mov	 esp, ebp
  00021	5d		 pop	 ebp
  00022	c2 04 00	 ret	 4
?cos@@YGMM@Z ENDP					; cos
_TEXT	ENDS
; Function compile flags: /Odtp /ZI
; File c:\program files (x86)\windows kits\10\include\10.0.18362.0\ucrt\corecrt_math.h
;	COMDAT _tanf
_TEXT	SEGMENT
tv71 = -68						; size = 4
__X$ = 8						; size = 4
_tanf	PROC						; COMDAT

; 764  :         {

  00000	55		 push	 ebp
  00001	8b ec		 mov	 ebp, esp
  00003	83 ec 44	 sub	 esp, 68			; 00000044H
  00006	53		 push	 ebx
  00007	56		 push	 esi
  00008	57		 push	 edi

; 765  :             return (float)tan(_X);

  00009	f3 0f 5a 45 08	 cvtss2sd xmm0, DWORD PTR __X$[ebp]
  0000e	83 ec 08	 sub	 esp, 8
  00011	f2 0f 11 04 24	 movsd	 QWORD PTR [esp], xmm0
  00016	e8 00 00 00 00	 call	 _tan
  0001b	83 c4 08	 add	 esp, 8
  0001e	d9 5d bc	 fstp	 DWORD PTR tv71[ebp]
  00021	d9 45 bc	 fld	 DWORD PTR tv71[ebp]

; 766  :         }

  00024	5f		 pop	 edi
  00025	5e		 pop	 esi
  00026	5b		 pop	 ebx
  00027	8b e5		 mov	 esp, ebp
  00029	5d		 pop	 ebp
  0002a	c3		 ret	 0
_tanf	ENDP
_TEXT	ENDS
; Function compile flags: /Odtp /ZI
; File c:\program files (x86)\windows kits\10\include\10.0.18362.0\ucrt\corecrt_math.h
;	COMDAT _sinf
_TEXT	SEGMENT
tv71 = -68						; size = 4
__X$ = 8						; size = 4
_sinf	PROC						; COMDAT

; 749  :         {

  00000	55		 push	 ebp
  00001	8b ec		 mov	 ebp, esp
  00003	83 ec 44	 sub	 esp, 68			; 00000044H
  00006	53		 push	 ebx
  00007	56		 push	 esi
  00008	57		 push	 edi

; 750  :             return (float)sin(_X);

  00009	f3 0f 5a 45 08	 cvtss2sd xmm0, DWORD PTR __X$[ebp]
  0000e	83 ec 08	 sub	 esp, 8
  00011	f2 0f 11 04 24	 movsd	 QWORD PTR [esp], xmm0
  00016	e8 00 00 00 00	 call	 _sin
  0001b	83 c4 08	 add	 esp, 8
  0001e	d9 5d bc	 fstp	 DWORD PTR tv71[ebp]
  00021	d9 45 bc	 fld	 DWORD PTR tv71[ebp]

; 751  :         }

  00024	5f		 pop	 edi
  00025	5e		 pop	 esi
  00026	5b		 pop	 ebx
  00027	8b e5		 mov	 esp, ebp
  00029	5d		 pop	 ebp
  0002a	c3		 ret	 0
_sinf	ENDP
_TEXT	ENDS
; Function compile flags: /Odtp /ZI
; File c:\program files (x86)\windows kits\10\include\10.0.18362.0\ucrt\corecrt_math.h
;	COMDAT _cosf
_TEXT	SEGMENT
tv71 = -68						; size = 4
__X$ = 8						; size = 4
_cosf	PROC						; COMDAT

; 648  :         {

  00000	55		 push	 ebp
  00001	8b ec		 mov	 ebp, esp
  00003	83 ec 44	 sub	 esp, 68			; 00000044H
  00006	53		 push	 ebx
  00007	56		 push	 esi
  00008	57		 push	 edi

; 649  :             return (float)cos(_X);

  00009	f3 0f 5a 45 08	 cvtss2sd xmm0, DWORD PTR __X$[ebp]
  0000e	83 ec 08	 sub	 esp, 8
  00011	f2 0f 11 04 24	 movsd	 QWORD PTR [esp], xmm0
  00016	e8 00 00 00 00	 call	 _cos
  0001b	83 c4 08	 add	 esp, 8
  0001e	d9 5d bc	 fstp	 DWORD PTR tv71[ebp]
  00021	d9 45 bc	 fld	 DWORD PTR tv71[ebp]

; 650  :         }

  00024	5f		 pop	 edi
  00025	5e		 pop	 esi
  00026	5b		 pop	 ebx
  00027	8b e5		 mov	 esp, ebp
  00029	5d		 pop	 ebp
  0002a	c3		 ret	 0
_cosf	ENDP
_TEXT	ENDS
END
