; Listing generated by Microsoft (R) Optimizing Compiler Version 19.16.27045.0 

	TITLE	C:\Users\nhv90\Projects\eech\aphavoc\source\entity\special\guide\aa_attck.c
	.686P
	.XMM
	include listing.inc
	.model	flat

INCLUDELIB MSVCRTD
INCLUDELIB OLDNAMES

PUBLIC	_acosf
PUBLIC	_fabsf
PUBLIC	?acos@@YGMM@Z					; acos
PUBLIC	?fabs@@YGMM@Z					; fabs
PUBLIC	?initialise_air_to_air_attack_guide@@YGXPAUENTITY@@00@Z ; initialise_air_to_air_attack_guide
PUBLIC	?attack_guide_move_six_reached@@YGXPAUENTITY@@@Z ; attack_guide_move_six_reached
PUBLIC	?attack_guide_move_circle_reached@@YGXPAUENTITY@@@Z ; attack_guide_move_circle_reached
PUBLIC	?attack_guide_fire_intercept_reached@@YGXPAUENTITY@@@Z ; attack_guide_fire_intercept_reached
PUBLIC	??$max@M@std@@YGABMABM0@Z			; std::max<float>
PUBLIC	??_C@_02DKCKIIND@?$CFs@				; `string'
PUBLIC	??_C@_0EM@DNELFJLJ@c?3?2users?2nhv90?2projects?2eech?2ap@ ; `string'
PUBLIC	??_C@_0DG@FIHOHMAI@AA_ATTCK?3?5Aborting?5attack?5?9?5wea@ ; `string'
PUBLIC	??_C@_0DE@EDLFPOAI@AA_ATTCK?3?5Aborting?5attack?5?9?5wea@ ; `string'
PUBLIC	??_C@_0DH@ILOOFGPF@AA_ATTCK?3?5Aborting?5attack?5?9?5wea@ ; `string'
PUBLIC	?__LINE__Var@?0??attack_guide_fire_intercept_reached@@YGXPAUENTITY@@@Z@4JA ; `attack_guide_fire_intercept_reached'::`1'::__LINE__Var
PUBLIC	??_C@_0DK@MMONIJIE@AA_ATTCK?3?5Aborting?5attack?5?9?5wea@ ; `string'
PUBLIC	??_C@_0DE@FBJGKGOB@selected_weapon?5?$CB?$DN?5ENTITY_SUB_T@ ; `string'
PUBLIC	??_C@_0O@HEGILGAC@weapon_vector@		; `string'
PUBLIC	??_C@_0BI@KLDNOBIJ@weapon_to_target_vector@	; `string'
PUBLIC	?__LINE__Var@?0??set_attack_guide_move_six_position@@YGXPAUENTITY@@@Z@4JA ; `set_attack_guide_move_six_position'::`1'::__LINE__Var
PUBLIC	??_C@_0DM@CKNHJJLP@get_local_entity_type?5?$CIaggresso@ ; `string'
PUBLIC	??_C@_09OPKNDHOO@target_zv@			; `string'
PUBLIC	?__LINE__Var@?0??set_attack_guide_move_circle_position@@YGXPAUENTITY@@@Z@4JA ; `set_attack_guide_move_circle_position'::`1'::__LINE__Var
PUBLIC	??_C@_0DM@CJNMDCLH@get_local_entity_type?5?$CIaggresso@ ; `string'
PUBLIC	??_C@_09PGMEICBL@target_mv@			; `string'
PUBLIC	?__LINE__Var@?0??set_attack_guide_fire_intercept_position@@YGXPAUENTITY@@@Z@4JA ; `set_attack_guide_fire_intercept_position'::`1'::__LINE__Var
PUBLIC	??_C@_0BD@FEEMDEPI@invalid?5comparator@		; `string'
PUBLIC	??_C@_0GK@JMBMHIBC@c?3?2program?5files?5?$CIx86?$CJ?2microsof@ ; `string'
PUBLIC	??_C@_1NE@FKBPBJEB@?$AAc?$AA?3?$AA?2?$AAp?$AAr?$AAo?$AAg?$AAr?$AAa?$AAm?$AA?5?$AAf?$AAi?$AAl?$AAe@ ; `string'
PUBLIC	??_C@_1BC@ICCOKLEG@?$AAs?$AAt?$AAd?$AA?3?$AA?3?$AAm?$AAa?$AAx@ ; `string'
PUBLIC	??_C@_1CK@NDNHPKPI@?$AA?$CC?$AAi?$AAn?$AAv?$AAa?$AAl?$AAi?$AAd?$AA?5?$AAc?$AAo?$AAm?$AAp?$AAa?$AAr@ ; `string'
PUBLIC	__real@3e32b8c2
PUBLIC	__real@3f00002000400080
PUBLIC	__real@3fe0000000000000
PUBLIC	__real@3ff0000000000000
PUBLIC	__real@4014000000000000
PUBLIC	__real@4069000000000000
PUBLIC	__real@4079000000000000
PUBLIC	__real@41200000
PUBLIC	__real@42480000
PUBLIC	__real@42f00000
PUBLIC	__real@43fa0000
EXTRN	__imp___invalid_parameter:PROC
EXTRN	__imp___CrtDbgReport:PROC
EXTRN	_acos:PROC
EXTRN	_fabs:PROC
EXTRN	?process_assert@@YGXPBD0H@Z:PROC		; process_assert
EXTRN	?debug_log@@YAXPBDZZ:PROC			; debug_log
EXTRN	?normalise_any_2d_vector@@YGMPAUVEC2D@@@Z:PROC	; normalise_any_2d_vector
EXTRN	?get_3d_unit_vector_dot_product@@YGMPBUVEC3D@@0@Z:PROC ; get_3d_unit_vector_dot_product
EXTRN	?rotate_2d_vector@@YGXPAUVEC2D@@M@Z:PROC	; rotate_2d_vector
EXTRN	?get_3d_range@@YGMPBUVEC3D@@0@Z:PROC		; get_3d_range
EXTRN	?get_3d_terrain_point_data@@YGMMMPAUTERRAIN_3D_POINT_DATA@@@Z:PROC ; get_3d_terrain_point_data
EXTRN	?bound_position_to_adjusted_map_volume@@YGHPAUVEC3D@@@Z:PROC ; bound_position_to_adjusted_map_volume
EXTRN	?aircraft_fire_weapon@@YG?AW4AIRCRAFT_FIRE_RESULT@@PAUENTITY@@I@Z:PROC ; aircraft_fire_weapon
EXTRN	?attack_guide_find_best_weapon@@YGHPAUENTITY@@@Z:PROC ; attack_guide_find_best_weapon
EXTRN	?delete_group_member_from_engage_guide@@YGXPAUENTITY@@0H@Z:PROC ; delete_group_member_from_engage_guide
EXTRN	?set_client_server_guide_entity_new_position@@YGXPAUENTITY@@PAUVEC3D@@0@Z:PROC ; set_client_server_guide_entity_new_position
EXTRN	?get_local_guide_entity_pointers@@YGXPAUENTITY@@PAPAU1@111@Z:PROC ; get_local_guide_entity_pointers
EXTRN	?set_client_server_guide_criteria_valid@@YGXPAUENTITY@@W4GUIDE_CRITERIA_TYPES@@HM@Z:PROC ; set_client_server_guide_criteria_valid
EXTRN	?get_local_entity_waypoint_database_reached_radius_value@@YGMPAUENTITY@@0@Z:PROC ; get_local_entity_waypoint_database_reached_radius_value
EXTRN	?null_entity_pointer_message@@3PBDB:DWORD	; null_entity_pointer_message
EXTRN	?system_comms_model@@3W4COMMS_MODEL_TYPES@@A:DWORD ; system_comms_model
EXTRN	?overload_invalid_float_type_message@@3PBDB:DWORD ; overload_invalid_float_type_message
EXTRN	?fn_get_local_entity_float_value@@3PAY0KP@P6GMPAUENTITY@@W4FLOAT_TYPES@@@ZA:BYTE ; fn_get_local_entity_float_value
EXTRN	?overload_invalid_int_type_message@@3PBDB:DWORD	; overload_invalid_int_type_message
EXTRN	?fn_set_client_server_entity_int_value@@3PAY1BBH@1P6GXPAUENTITY@@W4INT_TYPES@@H@ZA:BYTE ; fn_set_client_server_entity_int_value
EXTRN	?fn_get_local_entity_int_value@@3PAY0BBH@P6GHPAUENTITY@@W4INT_TYPES@@@ZA:BYTE ; fn_get_local_entity_int_value
EXTRN	?overload_invalid_vec3d_type_message@@3PBDB:DWORD ; overload_invalid_vec3d_type_message
EXTRN	?fn_get_local_entity_vec3d@@3PAY0BI@P6GXPAUENTITY@@W4VEC3D_TYPES@@PAUVEC3D@@@ZA:BYTE ; fn_get_local_entity_vec3d
EXTRN	?fn_get_local_entity_vec3d_ptr@@3PAY0BI@P6GPAUVEC3D@@PAUENTITY@@W4VEC3D_TYPES@@@ZA:BYTE ; fn_get_local_entity_vec3d_ptr
EXTRN	?entities@@3PAUENTITY@@A:DWORD			; entities
EXTRN	?weapon_database@@3PAUWEAPON_DATA@@A:BYTE	; weapon_database
EXTRN	__fltused:DWORD
;	COMDAT __real@43fa0000
CONST	SEGMENT
__real@43fa0000 DD 043fa0000r			; 500
CONST	ENDS
;	COMDAT __real@42f00000
CONST	SEGMENT
__real@42f00000 DD 042f00000r			; 120
CONST	ENDS
;	COMDAT __real@42480000
CONST	SEGMENT
__real@42480000 DD 042480000r			; 50
CONST	ENDS
;	COMDAT __real@41200000
CONST	SEGMENT
__real@41200000 DD 041200000r			; 10
CONST	ENDS
;	COMDAT __real@4079000000000000
CONST	SEGMENT
__real@4079000000000000 DQ 04079000000000000r	; 400
CONST	ENDS
;	COMDAT __real@4069000000000000
CONST	SEGMENT
__real@4069000000000000 DQ 04069000000000000r	; 200
CONST	ENDS
;	COMDAT __real@4014000000000000
CONST	SEGMENT
__real@4014000000000000 DQ 04014000000000000r	; 5
CONST	ENDS
;	COMDAT __real@3ff0000000000000
CONST	SEGMENT
__real@3ff0000000000000 DQ 03ff0000000000000r	; 1
CONST	ENDS
;	COMDAT __real@3fe0000000000000
CONST	SEGMENT
__real@3fe0000000000000 DQ 03fe0000000000000r	; 0.5
CONST	ENDS
;	COMDAT __real@3f00002000400080
CONST	SEGMENT
__real@3f00002000400080 DQ 03f00002000400080r	; 3.05185e-05
CONST	ENDS
;	COMDAT __real@3e32b8c2
CONST	SEGMENT
__real@3e32b8c2 DD 03e32b8c2r			; 0.174533
CONST	ENDS
;	COMDAT ??_C@_1CK@NDNHPKPI@?$AA?$CC?$AAi?$AAn?$AAv?$AAa?$AAl?$AAi?$AAd?$AA?5?$AAc?$AAo?$AAm?$AAp?$AAa?$AAr@
CONST	SEGMENT
??_C@_1CK@NDNHPKPI@?$AA?$CC?$AAi?$AAn?$AAv?$AAa?$AAl?$AAi?$AAd?$AA?5?$AAc?$AAo?$AAm?$AAp?$AAa?$AAr@ DB '"'
	DB	00H, 'i', 00H, 'n', 00H, 'v', 00H, 'a', 00H, 'l', 00H, 'i', 00H
	DB	'd', 00H, ' ', 00H, 'c', 00H, 'o', 00H, 'm', 00H, 'p', 00H, 'a'
	DB	00H, 'r', 00H, 'a', 00H, 't', 00H, 'o', 00H, 'r', 00H, '"', 00H
	DB	00H, 00H					; `string'
CONST	ENDS
;	COMDAT ??_C@_1BC@ICCOKLEG@?$AAs?$AAt?$AAd?$AA?3?$AA?3?$AAm?$AAa?$AAx@
CONST	SEGMENT
??_C@_1BC@ICCOKLEG@?$AAs?$AAt?$AAd?$AA?3?$AA?3?$AAm?$AAa?$AAx@ DB 's', 00H
	DB	't', 00H, 'd', 00H, ':', 00H, ':', 00H, 'm', 00H, 'a', 00H, 'x'
	DB	00H, 00H, 00H				; `string'
CONST	ENDS
;	COMDAT ??_C@_1NE@FKBPBJEB@?$AAc?$AA?3?$AA?2?$AAp?$AAr?$AAo?$AAg?$AAr?$AAa?$AAm?$AA?5?$AAf?$AAi?$AAl?$AAe@
CONST	SEGMENT
??_C@_1NE@FKBPBJEB@?$AAc?$AA?3?$AA?2?$AAp?$AAr?$AAo?$AAg?$AAr?$AAa?$AAm?$AA?5?$AAf?$AAi?$AAl?$AAe@ DB 'c'
	DB	00H, ':', 00H, '\', 00H, 'p', 00H, 'r', 00H, 'o', 00H, 'g', 00H
	DB	'r', 00H, 'a', 00H, 'm', 00H, ' ', 00H, 'f', 00H, 'i', 00H, 'l'
	DB	00H, 'e', 00H, 's', 00H, ' ', 00H, '(', 00H, 'x', 00H, '8', 00H
	DB	'6', 00H, ')', 00H, '\', 00H, 'm', 00H, 'i', 00H, 'c', 00H, 'r'
	DB	00H, 'o', 00H, 's', 00H, 'o', 00H, 'f', 00H, 't', 00H, ' ', 00H
	DB	'v', 00H, 'i', 00H, 's', 00H, 'u', 00H, 'a', 00H, 'l', 00H, ' '
	DB	00H, 's', 00H, 't', 00H, 'u', 00H, 'd', 00H, 'i', 00H, 'o', 00H
	DB	'\', 00H, '2', 00H, '0', 00H, '1', 00H, '7', 00H, '\', 00H, 'c'
	DB	00H, 'o', 00H, 'm', 00H, 'm', 00H, 'u', 00H, 'n', 00H, 'i', 00H
	DB	't', 00H, 'y', 00H, '\', 00H, 'v', 00H, 'c', 00H, '\', 00H, 't'
	DB	00H, 'o', 00H, 'o', 00H, 'l', 00H, 's', 00H, '\', 00H, 'm', 00H
	DB	's', 00H, 'v', 00H, 'c', 00H, '\', 00H, '1', 00H, '4', 00H, '.'
	DB	00H, '1', 00H, '6', 00H, '.', 00H, '2', 00H, '7', 00H, '0', 00H
	DB	'2', 00H, '3', 00H, '\', 00H, 'i', 00H, 'n', 00H, 'c', 00H, 'l'
	DB	00H, 'u', 00H, 'd', 00H, 'e', 00H, '\', 00H, 'a', 00H, 'l', 00H
	DB	'g', 00H, 'o', 00H, 'r', 00H, 'i', 00H, 't', 00H, 'h', 00H, 'm'
	DB	00H, 00H, 00H				; `string'
CONST	ENDS
;	COMDAT ??_C@_0GK@JMBMHIBC@c?3?2program?5files?5?$CIx86?$CJ?2microsof@
CONST	SEGMENT
??_C@_0GK@JMBMHIBC@c?3?2program?5files?5?$CIx86?$CJ?2microsof@ DB 'c:\pro'
	DB	'gram files (x86)\microsoft visual studio\2017\community\vc\to'
	DB	'ols\msvc\14.16.27023\include\algorithm', 00H ; `string'
CONST	ENDS
;	COMDAT ??_C@_0BD@FEEMDEPI@invalid?5comparator@
CONST	SEGMENT
??_C@_0BD@FEEMDEPI@invalid?5comparator@ DB 'invalid comparator', 00H ; `string'
CONST	ENDS
;	COMDAT ?__LINE__Var@?0??set_attack_guide_fire_intercept_position@@YGXPAUENTITY@@@Z@4JA
_DATA	SEGMENT
?__LINE__Var@?0??set_attack_guide_fire_intercept_position@@YGXPAUENTITY@@@Z@4JA DD 01f5H ; `set_attack_guide_fire_intercept_position'::`1'::__LINE__Var
_DATA	ENDS
;	COMDAT ??_C@_09PGMEICBL@target_mv@
CONST	SEGMENT
??_C@_09PGMEICBL@target_mv@ DB 'target_mv', 00H		; `string'
CONST	ENDS
;	COMDAT ??_C@_0DM@CJNMDCLH@get_local_entity_type?5?$CIaggresso@
CONST	SEGMENT
??_C@_0DM@CJNMDCLH@get_local_entity_type?5?$CIaggresso@ DB 'get_local_ent'
	DB	'ity_type (aggressor) == ENTITY_TYPE_HELICOPTER', 00H ; `string'
CONST	ENDS
;	COMDAT ?__LINE__Var@?0??set_attack_guide_move_circle_position@@YGXPAUENTITY@@@Z@4JA
_DATA	SEGMENT
?__LINE__Var@?0??set_attack_guide_move_circle_position@@YGXPAUENTITY@@@Z@4JA DD 01a9H ; `set_attack_guide_move_circle_position'::`1'::__LINE__Var
_DATA	ENDS
;	COMDAT ??_C@_09OPKNDHOO@target_zv@
CONST	SEGMENT
??_C@_09OPKNDHOO@target_zv@ DB 'target_zv', 00H		; `string'
CONST	ENDS
;	COMDAT ??_C@_0DM@CKNHJJLP@get_local_entity_type?5?$CIaggresso@
CONST	SEGMENT
??_C@_0DM@CKNHJJLP@get_local_entity_type?5?$CIaggresso@ DB 'get_local_ent'
	DB	'ity_type (aggressor) == ENTITY_TYPE_FIXED_WING', 00H ; `string'
CONST	ENDS
;	COMDAT ?__LINE__Var@?0??set_attack_guide_move_six_position@@YGXPAUENTITY@@@Z@4JA
_DATA	SEGMENT
?__LINE__Var@?0??set_attack_guide_move_six_position@@YGXPAUENTITY@@@Z@4JA DD 0168H ; `set_attack_guide_move_six_position'::`1'::__LINE__Var
_DATA	ENDS
;	COMDAT ??_C@_0BI@KLDNOBIJ@weapon_to_target_vector@
CONST	SEGMENT
??_C@_0BI@KLDNOBIJ@weapon_to_target_vector@ DB 'weapon_to_target_vector', 00H ; `string'
CONST	ENDS
;	COMDAT ??_C@_0O@HEGILGAC@weapon_vector@
CONST	SEGMENT
??_C@_0O@HEGILGAC@weapon_vector@ DB 'weapon_vector', 00H ; `string'
CONST	ENDS
;	COMDAT ??_C@_0DE@FBJGKGOB@selected_weapon?5?$CB?$DN?5ENTITY_SUB_T@
CONST	SEGMENT
??_C@_0DE@FBJGKGOB@selected_weapon?5?$CB?$DN?5ENTITY_SUB_T@ DB 'selected_'
	DB	'weapon != ENTITY_SUB_TYPE_WEAPON_NO_WEAPON', 00H ; `string'
CONST	ENDS
;	COMDAT ??_C@_0DK@MMONIJIE@AA_ATTCK?3?5Aborting?5attack?5?9?5wea@
CONST	SEGMENT
??_C@_0DK@MMONIJIE@AA_ATTCK?3?5Aborting?5attack?5?9?5wea@ DB 'AA_ATTCK: A'
	DB	'borting attack - weapons hold (fire intercept)', 00H ; `string'
CONST	ENDS
;	COMDAT ?__LINE__Var@?0??attack_guide_fire_intercept_reached@@YGXPAUENTITY@@@Z@4JA
_DATA	SEGMENT
?__LINE__Var@?0??attack_guide_fire_intercept_reached@@YGXPAUENTITY@@@Z@4JA DD 0b5H ; `attack_guide_fire_intercept_reached'::`1'::__LINE__Var
_DATA	ENDS
;	COMDAT ??_C@_0DH@ILOOFGPF@AA_ATTCK?3?5Aborting?5attack?5?9?5wea@
CONST	SEGMENT
??_C@_0DH@ILOOFGPF@AA_ATTCK?3?5Aborting?5attack?5?9?5wea@ DB 'AA_ATTCK: A'
	DB	'borting attack - weapons hold (move circle)', 00H ; `string'
CONST	ENDS
;	COMDAT ??_C@_0DE@EDLFPOAI@AA_ATTCK?3?5Aborting?5attack?5?9?5wea@
CONST	SEGMENT
??_C@_0DE@EDLFPOAI@AA_ATTCK?3?5Aborting?5attack?5?9?5wea@ DB 'AA_ATTCK: A'
	DB	'borting attack - weapons hold (move six)', 00H ; `string'
CONST	ENDS
;	COMDAT ??_C@_0DG@FIHOHMAI@AA_ATTCK?3?5Aborting?5attack?5?9?5wea@
CONST	SEGMENT
??_C@_0DG@FIHOHMAI@AA_ATTCK?3?5Aborting?5attack?5?9?5wea@ DB 'AA_ATTCK: A'
	DB	'borting attack - weapons hold (initialise)', 00H ; `string'
CONST	ENDS
;	COMDAT ??_C@_0EM@DNELFJLJ@c?3?2users?2nhv90?2projects?2eech?2ap@
CONST	SEGMENT
??_C@_0EM@DNELFJLJ@c?3?2users?2nhv90?2projects?2eech?2ap@ DB 'c:\users\nh'
	DB	'v90\projects\eech\aphavoc\source\entity\special\guide\aa_attc'
	DB	'k.c', 00H					; `string'
CONST	ENDS
;	COMDAT ??_C@_02DKCKIIND@?$CFs@
CONST	SEGMENT
??_C@_02DKCKIIND@?$CFs@ DB '%s', 00H			; `string'
CONST	ENDS
; Function compile flags: /Odtp /ZI
; File c:\program files (x86)\microsoft visual studio\2017\community\vc\tools\msvc\14.16.27023\include\algorithm
;	COMDAT ??$max@M@std@@YGABMABM0@Z
_TEXT	SEGMENT
__Left$ = 8						; size = 4
__Right$ = 12						; size = 4
??$max@M@std@@YGABMABM0@Z PROC				; std::max<float>, COMDAT

; 5387 : 	{	// return larger of _Left and _Right

  00000	55		 push	 ebp
  00001	8b ec		 mov	 ebp, esp
  00003	83 ec 40	 sub	 esp, 64			; 00000040H
  00006	53		 push	 ebx
  00007	56		 push	 esi
  00008	57		 push	 edi

; 5388 : 	if (_Left < _Right)

  00009	8b 45 0c	 mov	 eax, DWORD PTR __Right$[ebp]
  0000c	8b 4d 08	 mov	 ecx, DWORD PTR __Left$[ebp]
  0000f	f3 0f 10 00	 movss	 xmm0, DWORD PTR [eax]
  00013	0f 2f 01	 comiss	 xmm0, DWORD PTR [ecx]
  00016	76 64		 jbe	 SHORT $LN8@max
$LN4@max:

; 5389 : 		{
; 5390 : 		_STL_ASSERT(!(_Right < _Left), "invalid comparator");

  00018	8b 45 08	 mov	 eax, DWORD PTR __Left$[ebp]
  0001b	8b 4d 0c	 mov	 ecx, DWORD PTR __Right$[ebp]
  0001e	f3 0f 10 00	 movss	 xmm0, DWORD PTR [eax]
  00022	0f 2f 01	 comiss	 xmm0, DWORD PTR [ecx]
  00025	77 02		 ja	 SHORT $LN9@max
  00027	eb 4a		 jmp	 SHORT $LN6@max
$LN9@max:
  00029	68 00 00 00 00	 push	 OFFSET ??_C@_0BD@FEEMDEPI@invalid?5comparator@
  0002e	68 00 00 00 00	 push	 OFFSET ??_C@_02DKCKIIND@?$CFs@
  00033	6a 00		 push	 0
  00035	68 0e 15 00 00	 push	 5390			; 0000150eH
  0003a	68 00 00 00 00	 push	 OFFSET ??_C@_0GK@JMBMHIBC@c?3?2program?5files?5?$CIx86?$CJ?2microsof@
  0003f	6a 02		 push	 2
  00041	ff 15 00 00 00
	00		 call	 DWORD PTR __imp___CrtDbgReport
  00047	83 c4 18	 add	 esp, 24			; 00000018H
  0004a	83 f8 01	 cmp	 eax, 1
  0004d	75 01		 jne	 SHORT $LN12@max
  0004f	cc		 int	 3
$LN12@max:
  00050	6a 00		 push	 0
  00052	68 0e 15 00 00	 push	 5390			; 0000150eH
  00057	68 00 00 00 00	 push	 OFFSET ??_C@_1NE@FKBPBJEB@?$AAc?$AA?3?$AA?2?$AAp?$AAr?$AAo?$AAg?$AAr?$AAa?$AAm?$AA?5?$AAf?$AAi?$AAl?$AAe@
  0005c	68 00 00 00 00	 push	 OFFSET ??_C@_1BC@ICCOKLEG@?$AAs?$AAt?$AAd?$AA?3?$AA?3?$AAm?$AAa?$AAx@
  00061	68 00 00 00 00	 push	 OFFSET ??_C@_1CK@NDNHPKPI@?$AA?$CC?$AAi?$AAn?$AAv?$AAa?$AAl?$AAi?$AAd?$AA?5?$AAc?$AAo?$AAm?$AAp?$AAa?$AAr@
  00066	ff 15 00 00 00
	00		 call	 DWORD PTR __imp___invalid_parameter
  0006c	83 c4 14	 add	 esp, 20			; 00000014H
  0006f	33 c0		 xor	 eax, eax
  00071	75 b6		 jne	 SHORT $LN9@max
$LN6@max:
  00073	33 c0		 xor	 eax, eax
  00075	75 a1		 jne	 SHORT $LN4@max

; 5391 : 		return (_Right);

  00077	8b 45 0c	 mov	 eax, DWORD PTR __Right$[ebp]
  0007a	eb 03		 jmp	 SHORT $LN1@max
$LN8@max:

; 5392 : 		}
; 5393 : 
; 5394 : 	return (_Left);

  0007c	8b 45 08	 mov	 eax, DWORD PTR __Left$[ebp]
$LN1@max:

; 5395 : 	}

  0007f	5f		 pop	 edi
  00080	5e		 pop	 esi
  00081	5b		 pop	 ebx
  00082	8b e5		 mov	 esp, ebp
  00084	5d		 pop	 ebp
  00085	c2 08 00	 ret	 8
??$max@M@std@@YGABMABM0@Z ENDP				; std::max<float>
_TEXT	ENDS
; Function compile flags: /Odtp /ZI
; File c:\users\nhv90\projects\eech\aphavoc\source\entity\special\guide\aa_attck.c
;	COMDAT ?set_attack_guide_fire_intercept_position@@YGXPAUENTITY@@@Z
_TEXT	SEGMENT
tv307 = -140						; size = 4
tv212 = -136						; size = 4
tv185 = -136						; size = 4
tv165 = -136						; size = 4
tv137 = -136						; size = 4
tv78 = -136						; size = 4
tv204 = -132						; size = 4
tv177 = -132						; size = 4
tv157 = -132						; size = 4
tv129 = -132						; size = 4
tv70 = -132						; size = 4
$T1 = -128						; size = 4
_target$ = -60						; size = 4
_aggressor$ = -56					; size = 4
_task$ = -52						; size = 4
_wp$ = -48						; size = 4
_aggressor_pos$ = -44					; size = 4
_target_pos$ = -40					; size = 4
_position$ = -36					; size = 12
_radius$ = -24						; size = 4
_time$ = -20						; size = 4
_lead_distance$ = -16					; size = 4
_target_range$ = -12					; size = 4
_weapon_effective_range$ = -8				; size = 4
_selected_weapon$ = -4					; size = 4
_en$ = 8						; size = 4
?set_attack_guide_fire_intercept_position@@YGXPAUENTITY@@@Z PROC ; set_attack_guide_fire_intercept_position, COMDAT

; 501  : {

  00000	55		 push	 ebp
  00001	8b ec		 mov	 ebp, esp
  00003	81 ec 8c 00 00
	00		 sub	 esp, 140		; 0000008cH
  00009	53		 push	 ebx
  0000a	56		 push	 esi
  0000b	57		 push	 edi

; 502  : 	entity_sub_types
; 503  : 		selected_weapon;
; 504  : 
; 505  : 	float
; 506  : 		weapon_effective_range,
; 507  : 		target_range,
; 508  : 		lead_distance,
; 509  : 		time,
; 510  : 		radius;
; 511  : 
; 512  : 	vec3d
; 513  : 		position,
; 514  : 		*target_pos,
; 515  : 		*aggressor_pos;
; 516  : 		
; 517  : 	entity
; 518  : 		*wp,
; 519  : 		*task,
; 520  : 		*aggressor,
; 521  : 		*target;
; 522  : 
; 523  : 	set_client_server_entity_int_value (en, INT_TYPE_ENTITY_SUB_TYPE, ENTITY_SUB_TYPE_GUIDE_ATTACK_AA_FIRE_INTERCEPT);

  0000c	83 7d 08 00	 cmp	 DWORD PTR _en$[ebp], 0
  00010	74 0d		 je	 SHORT $LN4@set_attack
  00012	8b 45 08	 mov	 eax, DWORD PTR _en$[ebp]
  00015	8b 08		 mov	 ecx, DWORD PTR [eax]
  00017	89 8d 7c ff ff
	ff		 mov	 DWORD PTR tv70[ebp], ecx
  0001d	eb 24		 jmp	 SHORT $LN5@set_attack
$LN4@set_attack:
  0001f	8b 15 00 00 00
	00		 mov	 edx, DWORD PTR ?__LINE__Var@?0??set_attack_guide_fire_intercept_position@@YGXPAUENTITY@@@Z@4JA
  00025	83 c2 16	 add	 edx, 22			; 00000016H
  00028	52		 push	 edx
  00029	68 00 00 00 00	 push	 OFFSET ??_C@_0EM@DNELFJLJ@c?3?2users?2nhv90?2projects?2eech?2ap@
  0002e	a1 00 00 00 00	 mov	 eax, DWORD PTR ?null_entity_pointer_message@@3PBDB ; null_entity_pointer_message
  00033	50		 push	 eax
  00034	e8 00 00 00 00	 call	 ?process_assert@@YGXPBD0H@Z ; process_assert
  00039	c7 85 7c ff ff
	ff 00 00 00 00	 mov	 DWORD PTR tv70[ebp], 0
$LN5@set_attack:
  00043	b9 01 00 00 00	 mov	 ecx, 1
  00048	85 c9		 test	 ecx, ecx
  0004a	74 0c		 je	 SHORT $LN6@set_attack
  0004c	c7 85 78 ff ff
	ff 34 00 00 00	 mov	 DWORD PTR tv78[ebp], 52	; 00000034H
  00056	eb 24		 jmp	 SHORT $LN7@set_attack
$LN6@set_attack:
  00058	8b 15 00 00 00
	00		 mov	 edx, DWORD PTR ?__LINE__Var@?0??set_attack_guide_fire_intercept_position@@YGXPAUENTITY@@@Z@4JA
  0005e	83 c2 16	 add	 edx, 22			; 00000016H
  00061	52		 push	 edx
  00062	68 00 00 00 00	 push	 OFFSET ??_C@_0EM@DNELFJLJ@c?3?2users?2nhv90?2projects?2eech?2ap@
  00067	a1 00 00 00 00	 mov	 eax, DWORD PTR ?overload_invalid_int_type_message@@3PBDB ; overload_invalid_int_type_message
  0006c	50		 push	 eax
  0006d	e8 00 00 00 00	 call	 ?process_assert@@YGXPBD0H@Z ; process_assert
  00072	c7 85 78 ff ff
	ff 00 00 00 00	 mov	 DWORD PTR tv78[ebp], 0
$LN7@set_attack:
  0007c	6a 08		 push	 8
  0007e	6a 34		 push	 52			; 00000034H
  00080	8b 4d 08	 mov	 ecx, DWORD PTR _en$[ebp]
  00083	51		 push	 ecx
  00084	69 95 7c ff ff
	ff b8 08 00 00	 imul	 edx, DWORD PTR tv70[ebp], 2232
  0008e	8b 85 78 ff ff
	ff		 mov	 eax, DWORD PTR tv78[ebp]
  00094	8d 8c c2 00 00
	00 00		 lea	 ecx, DWORD PTR ?fn_set_client_server_entity_int_value@@3PAY1BBH@1P6GXPAUENTITY@@W4INT_TYPES@@H@ZA[edx+eax*8]
  0009b	8b 15 00 00 00
	00		 mov	 edx, DWORD PTR ?system_comms_model@@3W4COMMS_MODEL_TYPES@@A ; system_comms_model
  000a1	8b 04 91	 mov	 eax, DWORD PTR [ecx+edx*4]
  000a4	ff d0		 call	 eax

; 524  : 
; 525  : 	get_local_guide_entity_pointers (en, &aggressor, &wp, &task, &target);

  000a6	8d 45 c4	 lea	 eax, DWORD PTR _target$[ebp]
  000a9	50		 push	 eax
  000aa	8d 4d cc	 lea	 ecx, DWORD PTR _task$[ebp]
  000ad	51		 push	 ecx
  000ae	8d 55 d0	 lea	 edx, DWORD PTR _wp$[ebp]
  000b1	52		 push	 edx
  000b2	8d 45 c8	 lea	 eax, DWORD PTR _aggressor$[ebp]
  000b5	50		 push	 eax
  000b6	8b 4d 08	 mov	 ecx, DWORD PTR _en$[ebp]
  000b9	51		 push	 ecx
  000ba	e8 00 00 00 00	 call	 ?get_local_guide_entity_pointers@@YGXPAUENTITY@@PAPAU1@111@Z ; get_local_guide_entity_pointers

; 526  : 
; 527  : 	//
; 528  : 	// find aggressors selected weapon, and it's effective range
; 529  : 	//
; 530  : 	
; 531  : 	selected_weapon = get_local_entity_int_value (aggressor, INT_TYPE_SELECTED_WEAPON);

  000bf	83 7d c8 00	 cmp	 DWORD PTR _aggressor$[ebp], 0
  000c3	74 0d		 je	 SHORT $LN8@set_attack
  000c5	8b 45 c8	 mov	 eax, DWORD PTR _aggressor$[ebp]
  000c8	8b 08		 mov	 ecx, DWORD PTR [eax]
  000ca	89 8d 7c ff ff
	ff		 mov	 DWORD PTR tv129[ebp], ecx
  000d0	eb 24		 jmp	 SHORT $LN9@set_attack
$LN8@set_attack:
  000d2	8b 15 00 00 00
	00		 mov	 edx, DWORD PTR ?__LINE__Var@?0??set_attack_guide_fire_intercept_position@@YGXPAUENTITY@@@Z@4JA
  000d8	83 c2 1e	 add	 edx, 30			; 0000001eH
  000db	52		 push	 edx
  000dc	68 00 00 00 00	 push	 OFFSET ??_C@_0EM@DNELFJLJ@c?3?2users?2nhv90?2projects?2eech?2ap@
  000e1	a1 00 00 00 00	 mov	 eax, DWORD PTR ?null_entity_pointer_message@@3PBDB ; null_entity_pointer_message
  000e6	50		 push	 eax
  000e7	e8 00 00 00 00	 call	 ?process_assert@@YGXPBD0H@Z ; process_assert
  000ec	c7 85 7c ff ff
	ff 00 00 00 00	 mov	 DWORD PTR tv129[ebp], 0
$LN9@set_attack:
  000f6	b9 01 00 00 00	 mov	 ecx, 1
  000fb	85 c9		 test	 ecx, ecx
  000fd	74 0c		 je	 SHORT $LN10@set_attack
  000ff	c7 85 78 ff ff
	ff b8 00 00 00	 mov	 DWORD PTR tv137[ebp], 184 ; 000000b8H
  00109	eb 24		 jmp	 SHORT $LN11@set_attack
$LN10@set_attack:
  0010b	8b 15 00 00 00
	00		 mov	 edx, DWORD PTR ?__LINE__Var@?0??set_attack_guide_fire_intercept_position@@YGXPAUENTITY@@@Z@4JA
  00111	83 c2 1e	 add	 edx, 30			; 0000001eH
  00114	52		 push	 edx
  00115	68 00 00 00 00	 push	 OFFSET ??_C@_0EM@DNELFJLJ@c?3?2users?2nhv90?2projects?2eech?2ap@
  0011a	a1 00 00 00 00	 mov	 eax, DWORD PTR ?overload_invalid_int_type_message@@3PBDB ; overload_invalid_int_type_message
  0011f	50		 push	 eax
  00120	e8 00 00 00 00	 call	 ?process_assert@@YGXPBD0H@Z ; process_assert
  00125	c7 85 78 ff ff
	ff 00 00 00 00	 mov	 DWORD PTR tv137[ebp], 0
$LN11@set_attack:
  0012f	68 b8 00 00 00	 push	 184			; 000000b8H
  00134	8b 4d c8	 mov	 ecx, DWORD PTR _aggressor$[ebp]
  00137	51		 push	 ecx
  00138	69 95 7c ff ff
	ff 5c 04 00 00	 imul	 edx, DWORD PTR tv129[ebp], 1116
  00142	8b 85 78 ff ff
	ff		 mov	 eax, DWORD PTR tv137[ebp]
  00148	8b 8c 82 00 00
	00 00		 mov	 ecx, DWORD PTR ?fn_get_local_entity_int_value@@3PAY0BBH@P6GHPAUENTITY@@W4INT_TYPES@@@ZA[edx+eax*4]
  0014f	ff d1		 call	 ecx
  00151	89 45 fc	 mov	 DWORD PTR _selected_weapon$[ebp], eax

; 532  : 
; 533  : 	ASSERT (selected_weapon != ENTITY_SUB_TYPE_WEAPON_NO_WEAPON);

  00154	83 7d fc 00	 cmp	 DWORD PTR _selected_weapon$[ebp], 0
  00158	75 18		 jne	 SHORT $LN2@set_attack
  0015a	a1 00 00 00 00	 mov	 eax, DWORD PTR ?__LINE__Var@?0??set_attack_guide_fire_intercept_position@@YGXPAUENTITY@@@Z@4JA
  0015f	83 c0 20	 add	 eax, 32			; 00000020H
  00162	50		 push	 eax
  00163	68 00 00 00 00	 push	 OFFSET ??_C@_0EM@DNELFJLJ@c?3?2users?2nhv90?2projects?2eech?2ap@
  00168	68 00 00 00 00	 push	 OFFSET ??_C@_0DE@FBJGKGOB@selected_weapon?5?$CB?$DN?5ENTITY_SUB_T@
  0016d	e8 00 00 00 00	 call	 ?process_assert@@YGXPBD0H@Z ; process_assert
$LN2@set_attack:

; 534  : 	
; 535  : 	weapon_effective_range = weapon_database [selected_weapon].effective_range;

  00172	69 45 fc e0 00
	00 00		 imul	 eax, DWORD PTR _selected_weapon$[ebp], 224
  00179	f3 0f 10 80 94
	00 00 00	 movss	 xmm0, DWORD PTR ?weapon_database@@3PAUWEAPON_DATA@@A[eax+148]
  00181	f3 0f 11 45 f8	 movss	 DWORD PTR _weapon_effective_range$[ebp], xmm0

; 536  : 
; 537  : 	//
; 538  : 	// calculate required distance of guide from target 
; 539  : 	//
; 540  : 
; 541  : 	radius = weapon_effective_range;

  00186	f3 0f 10 45 f8	 movss	 xmm0, DWORD PTR _weapon_effective_range$[ebp]
  0018b	f3 0f 11 45 e8	 movss	 DWORD PTR _radius$[ebp], xmm0

; 542  : 
; 543  : 	aggressor_pos = get_local_entity_vec3d_ptr (aggressor, VEC3D_TYPE_POSITION);

  00190	83 7d c8 00	 cmp	 DWORD PTR _aggressor$[ebp], 0
  00194	74 0d		 je	 SHORT $LN12@set_attack
  00196	8b 45 c8	 mov	 eax, DWORD PTR _aggressor$[ebp]
  00199	8b 08		 mov	 ecx, DWORD PTR [eax]
  0019b	89 8d 7c ff ff
	ff		 mov	 DWORD PTR tv157[ebp], ecx
  001a1	eb 24		 jmp	 SHORT $LN13@set_attack
$LN12@set_attack:
  001a3	8b 15 00 00 00
	00		 mov	 edx, DWORD PTR ?__LINE__Var@?0??set_attack_guide_fire_intercept_position@@YGXPAUENTITY@@@Z@4JA
  001a9	83 c2 2a	 add	 edx, 42			; 0000002aH
  001ac	52		 push	 edx
  001ad	68 00 00 00 00	 push	 OFFSET ??_C@_0EM@DNELFJLJ@c?3?2users?2nhv90?2projects?2eech?2ap@
  001b2	a1 00 00 00 00	 mov	 eax, DWORD PTR ?null_entity_pointer_message@@3PBDB ; null_entity_pointer_message
  001b7	50		 push	 eax
  001b8	e8 00 00 00 00	 call	 ?process_assert@@YGXPBD0H@Z ; process_assert
  001bd	c7 85 7c ff ff
	ff 00 00 00 00	 mov	 DWORD PTR tv157[ebp], 0
$LN13@set_attack:
  001c7	b9 01 00 00 00	 mov	 ecx, 1
  001cc	85 c9		 test	 ecx, ecx
  001ce	74 0c		 je	 SHORT $LN14@set_attack
  001d0	c7 85 78 ff ff
	ff 08 00 00 00	 mov	 DWORD PTR tv165[ebp], 8
  001da	eb 24		 jmp	 SHORT $LN15@set_attack
$LN14@set_attack:
  001dc	8b 15 00 00 00
	00		 mov	 edx, DWORD PTR ?__LINE__Var@?0??set_attack_guide_fire_intercept_position@@YGXPAUENTITY@@@Z@4JA
  001e2	83 c2 2a	 add	 edx, 42			; 0000002aH
  001e5	52		 push	 edx
  001e6	68 00 00 00 00	 push	 OFFSET ??_C@_0EM@DNELFJLJ@c?3?2users?2nhv90?2projects?2eech?2ap@
  001eb	a1 00 00 00 00	 mov	 eax, DWORD PTR ?overload_invalid_vec3d_type_message@@3PBDB ; overload_invalid_vec3d_type_message
  001f0	50		 push	 eax
  001f1	e8 00 00 00 00	 call	 ?process_assert@@YGXPBD0H@Z ; process_assert
  001f6	c7 85 78 ff ff
	ff 00 00 00 00	 mov	 DWORD PTR tv165[ebp], 0
$LN15@set_attack:
  00200	6a 08		 push	 8
  00202	8b 4d c8	 mov	 ecx, DWORD PTR _aggressor$[ebp]
  00205	51		 push	 ecx
  00206	6b 95 7c ff ff
	ff 60		 imul	 edx, DWORD PTR tv157[ebp], 96
  0020d	8b 85 78 ff ff
	ff		 mov	 eax, DWORD PTR tv165[ebp]
  00213	8b 8c 82 00 00
	00 00		 mov	 ecx, DWORD PTR ?fn_get_local_entity_vec3d_ptr@@3PAY0BI@P6GPAUVEC3D@@PAUENTITY@@W4VEC3D_TYPES@@@ZA[edx+eax*4]
  0021a	ff d1		 call	 ecx
  0021c	89 45 d4	 mov	 DWORD PTR _aggressor_pos$[ebp], eax

; 544  : 
; 545  : 	target_pos = get_local_entity_vec3d_ptr (target, VEC3D_TYPE_POSITION);

  0021f	83 7d c4 00	 cmp	 DWORD PTR _target$[ebp], 0
  00223	74 0d		 je	 SHORT $LN16@set_attack
  00225	8b 45 c4	 mov	 eax, DWORD PTR _target$[ebp]
  00228	8b 08		 mov	 ecx, DWORD PTR [eax]
  0022a	89 8d 7c ff ff
	ff		 mov	 DWORD PTR tv177[ebp], ecx
  00230	eb 24		 jmp	 SHORT $LN17@set_attack
$LN16@set_attack:
  00232	8b 15 00 00 00
	00		 mov	 edx, DWORD PTR ?__LINE__Var@?0??set_attack_guide_fire_intercept_position@@YGXPAUENTITY@@@Z@4JA
  00238	83 c2 2c	 add	 edx, 44			; 0000002cH
  0023b	52		 push	 edx
  0023c	68 00 00 00 00	 push	 OFFSET ??_C@_0EM@DNELFJLJ@c?3?2users?2nhv90?2projects?2eech?2ap@
  00241	a1 00 00 00 00	 mov	 eax, DWORD PTR ?null_entity_pointer_message@@3PBDB ; null_entity_pointer_message
  00246	50		 push	 eax
  00247	e8 00 00 00 00	 call	 ?process_assert@@YGXPBD0H@Z ; process_assert
  0024c	c7 85 7c ff ff
	ff 00 00 00 00	 mov	 DWORD PTR tv177[ebp], 0
$LN17@set_attack:
  00256	b9 01 00 00 00	 mov	 ecx, 1
  0025b	85 c9		 test	 ecx, ecx
  0025d	74 0c		 je	 SHORT $LN18@set_attack
  0025f	c7 85 78 ff ff
	ff 08 00 00 00	 mov	 DWORD PTR tv185[ebp], 8
  00269	eb 24		 jmp	 SHORT $LN19@set_attack
$LN18@set_attack:
  0026b	8b 15 00 00 00
	00		 mov	 edx, DWORD PTR ?__LINE__Var@?0??set_attack_guide_fire_intercept_position@@YGXPAUENTITY@@@Z@4JA
  00271	83 c2 2c	 add	 edx, 44			; 0000002cH
  00274	52		 push	 edx
  00275	68 00 00 00 00	 push	 OFFSET ??_C@_0EM@DNELFJLJ@c?3?2users?2nhv90?2projects?2eech?2ap@
  0027a	a1 00 00 00 00	 mov	 eax, DWORD PTR ?overload_invalid_vec3d_type_message@@3PBDB ; overload_invalid_vec3d_type_message
  0027f	50		 push	 eax
  00280	e8 00 00 00 00	 call	 ?process_assert@@YGXPBD0H@Z ; process_assert
  00285	c7 85 78 ff ff
	ff 00 00 00 00	 mov	 DWORD PTR tv185[ebp], 0
$LN19@set_attack:
  0028f	6a 08		 push	 8
  00291	8b 4d c4	 mov	 ecx, DWORD PTR _target$[ebp]
  00294	51		 push	 ecx
  00295	6b 95 7c ff ff
	ff 60		 imul	 edx, DWORD PTR tv177[ebp], 96
  0029c	8b 85 78 ff ff
	ff		 mov	 eax, DWORD PTR tv185[ebp]
  002a2	8b 8c 82 00 00
	00 00		 mov	 ecx, DWORD PTR ?fn_get_local_entity_vec3d_ptr@@3PAY0BI@P6GPAUVEC3D@@PAUENTITY@@W4VEC3D_TYPES@@@ZA[edx+eax*4]
  002a9	ff d1		 call	 ecx
  002ab	89 45 d8	 mov	 DWORD PTR _target_pos$[ebp], eax

; 546  : 
; 547  : 	target_range = get_3d_range (aggressor_pos, target_pos);

  002ae	8b 45 d8	 mov	 eax, DWORD PTR _target_pos$[ebp]
  002b1	50		 push	 eax
  002b2	8b 4d d4	 mov	 ecx, DWORD PTR _aggressor_pos$[ebp]
  002b5	51		 push	 ecx
  002b6	e8 00 00 00 00	 call	 ?get_3d_range@@YGMPBUVEC3D@@0@Z ; get_3d_range
  002bb	d9 5d f4	 fstp	 DWORD PTR _target_range$[ebp]

; 548  : 
; 549  : 	time = target_range / weapon_database [selected_weapon].cruise_velocity;

  002be	69 45 fc e0 00
	00 00		 imul	 eax, DWORD PTR _selected_weapon$[ebp], 224
  002c5	f3 0f 10 45 f4	 movss	 xmm0, DWORD PTR _target_range$[ebp]
  002ca	f3 0f 5e 80 ac
	00 00 00	 divss	 xmm0, DWORD PTR ?weapon_database@@3PAUWEAPON_DATA@@A[eax+172]
  002d2	f3 0f 11 45 ec	 movss	 DWORD PTR _time$[ebp], xmm0

; 550  : 
; 551  : 	lead_distance = time * get_local_entity_float_value (aggressor, FLOAT_TYPE_VELOCITY);

  002d7	83 7d c8 00	 cmp	 DWORD PTR _aggressor$[ebp], 0
  002db	74 0d		 je	 SHORT $LN20@set_attack
  002dd	8b 45 c8	 mov	 eax, DWORD PTR _aggressor$[ebp]
  002e0	8b 08		 mov	 ecx, DWORD PTR [eax]
  002e2	89 8d 7c ff ff
	ff		 mov	 DWORD PTR tv204[ebp], ecx
  002e8	eb 24		 jmp	 SHORT $LN21@set_attack
$LN20@set_attack:
  002ea	8b 15 00 00 00
	00		 mov	 edx, DWORD PTR ?__LINE__Var@?0??set_attack_guide_fire_intercept_position@@YGXPAUENTITY@@@Z@4JA
  002f0	83 c2 32	 add	 edx, 50			; 00000032H
  002f3	52		 push	 edx
  002f4	68 00 00 00 00	 push	 OFFSET ??_C@_0EM@DNELFJLJ@c?3?2users?2nhv90?2projects?2eech?2ap@
  002f9	a1 00 00 00 00	 mov	 eax, DWORD PTR ?null_entity_pointer_message@@3PBDB ; null_entity_pointer_message
  002fe	50		 push	 eax
  002ff	e8 00 00 00 00	 call	 ?process_assert@@YGXPBD0H@Z ; process_assert
  00304	c7 85 7c ff ff
	ff 00 00 00 00	 mov	 DWORD PTR tv204[ebp], 0
$LN21@set_attack:
  0030e	b9 01 00 00 00	 mov	 ecx, 1
  00313	85 c9		 test	 ecx, ecx
  00315	74 0c		 je	 SHORT $LN22@set_attack
  00317	c7 85 78 ff ff
	ff 93 00 00 00	 mov	 DWORD PTR tv212[ebp], 147 ; 00000093H
  00321	eb 24		 jmp	 SHORT $LN23@set_attack
$LN22@set_attack:
  00323	8b 15 00 00 00
	00		 mov	 edx, DWORD PTR ?__LINE__Var@?0??set_attack_guide_fire_intercept_position@@YGXPAUENTITY@@@Z@4JA
  00329	83 c2 32	 add	 edx, 50			; 00000032H
  0032c	52		 push	 edx
  0032d	68 00 00 00 00	 push	 OFFSET ??_C@_0EM@DNELFJLJ@c?3?2users?2nhv90?2projects?2eech?2ap@
  00332	a1 00 00 00 00	 mov	 eax, DWORD PTR ?overload_invalid_float_type_message@@3PBDB ; overload_invalid_float_type_message
  00337	50		 push	 eax
  00338	e8 00 00 00 00	 call	 ?process_assert@@YGXPBD0H@Z ; process_assert
  0033d	c7 85 78 ff ff
	ff 00 00 00 00	 mov	 DWORD PTR tv212[ebp], 0
$LN23@set_attack:
  00347	68 93 00 00 00	 push	 147			; 00000093H
  0034c	8b 4d c8	 mov	 ecx, DWORD PTR _aggressor$[ebp]
  0034f	51		 push	 ecx
  00350	69 95 7c ff ff
	ff bc 02 00 00	 imul	 edx, DWORD PTR tv204[ebp], 700
  0035a	8b 85 78 ff ff
	ff		 mov	 eax, DWORD PTR tv212[ebp]
  00360	8b 8c 82 00 00
	00 00		 mov	 ecx, DWORD PTR ?fn_get_local_entity_float_value@@3PAY0KP@P6GMPAUENTITY@@W4FLOAT_TYPES@@@ZA[edx+eax*4]
  00367	ff d1		 call	 ecx
  00369	d9 9d 74 ff ff
	ff		 fstp	 DWORD PTR tv307[ebp]
  0036f	f3 0f 10 85 74
	ff ff ff	 movss	 xmm0, DWORD PTR tv307[ebp]
  00377	f3 0f 59 45 ec	 mulss	 xmm0, DWORD PTR _time$[ebp]
  0037c	f3 0f 11 45 f0	 movss	 DWORD PTR _lead_distance$[ebp], xmm0

; 552  : 
; 553  : 	lead_distance = max (lead_distance, 0.5f * KILOMETRE);

  00381	f3 0f 10 05 00
	00 00 00	 movss	 xmm0, DWORD PTR __real@43fa0000
  00389	f3 0f 11 45 80	 movss	 DWORD PTR $T1[ebp], xmm0
  0038e	8d 45 80	 lea	 eax, DWORD PTR $T1[ebp]
  00391	50		 push	 eax
  00392	8d 4d f0	 lea	 ecx, DWORD PTR _lead_distance$[ebp]
  00395	51		 push	 ecx
  00396	e8 00 00 00 00	 call	 ??$max@M@std@@YGABMABM0@Z ; std::max<float>
  0039b	f3 0f 10 00	 movss	 xmm0, DWORD PTR [eax]
  0039f	f3 0f 11 45 f0	 movss	 DWORD PTR _lead_distance$[ebp], xmm0

; 554  : 
; 555  : 	//
; 556  : 	// calculate guide position (relative to target)
; 557  : 	//
; 558  : 
; 559  : 	position.x = 0.0;

  003a4	0f 57 c0	 xorps	 xmm0, xmm0
  003a7	f3 0f 11 45 dc	 movss	 DWORD PTR _position$[ebp], xmm0

; 560  : 	position.y = 0.0;

  003ac	0f 57 c0	 xorps	 xmm0, xmm0
  003af	f3 0f 11 45 e0	 movss	 DWORD PTR _position$[ebp+4], xmm0

; 561  : 	position.z = lead_distance;

  003b4	f3 0f 10 45 f0	 movss	 xmm0, DWORD PTR _lead_distance$[ebp]
  003b9	f3 0f 11 45 e4	 movss	 DWORD PTR _position$[ebp+8], xmm0

; 562  : 
; 563  : 	set_client_server_guide_entity_new_position (en, &position, target);

  003be	8b 45 c4	 mov	 eax, DWORD PTR _target$[ebp]
  003c1	50		 push	 eax
  003c2	8d 4d dc	 lea	 ecx, DWORD PTR _position$[ebp]
  003c5	51		 push	 ecx
  003c6	8b 55 08	 mov	 edx, DWORD PTR _en$[ebp]
  003c9	52		 push	 edx
  003ca	e8 00 00 00 00	 call	 ?set_client_server_guide_entity_new_position@@YGXPAUENTITY@@PAUVEC3D@@0@Z ; set_client_server_guide_entity_new_position

; 564  : 
; 565  : 	set_client_server_guide_criteria_valid (en, GUIDE_CRITERIA_RADIUS, TRUE, radius);

  003cf	51		 push	 ecx
  003d0	f3 0f 10 45 e8	 movss	 xmm0, DWORD PTR _radius$[ebp]
  003d5	f3 0f 11 04 24	 movss	 DWORD PTR [esp], xmm0
  003da	6a 01		 push	 1
  003dc	6a 00		 push	 0
  003de	8b 45 08	 mov	 eax, DWORD PTR _en$[ebp]
  003e1	50		 push	 eax
  003e2	e8 00 00 00 00	 call	 ?set_client_server_guide_criteria_valid@@YGXPAUENTITY@@W4GUIDE_CRITERIA_TYPES@@HM@Z ; set_client_server_guide_criteria_valid

; 566  : 
; 567  : 	set_client_server_guide_criteria_valid (en, GUIDE_CRITERIA_HEADING, FALSE, 0.0);

  003e7	51		 push	 ecx
  003e8	0f 57 c0	 xorps	 xmm0, xmm0
  003eb	f3 0f 11 04 24	 movss	 DWORD PTR [esp], xmm0
  003f0	6a 00		 push	 0
  003f2	6a 01		 push	 1
  003f4	8b 45 08	 mov	 eax, DWORD PTR _en$[ebp]
  003f7	50		 push	 eax
  003f8	e8 00 00 00 00	 call	 ?set_client_server_guide_criteria_valid@@YGXPAUENTITY@@W4GUIDE_CRITERIA_TYPES@@HM@Z ; set_client_server_guide_criteria_valid

; 568  : 
; 569  : 	set_client_server_guide_criteria_valid (en, GUIDE_CRITERIA_WEAPON_VECTOR, FALSE, 0.0);

  003fd	51		 push	 ecx
  003fe	0f 57 c0	 xorps	 xmm0, xmm0
  00401	f3 0f 11 04 24	 movss	 DWORD PTR [esp], xmm0
  00406	6a 00		 push	 0
  00408	6a 05		 push	 5
  0040a	8b 45 08	 mov	 eax, DWORD PTR _en$[ebp]
  0040d	50		 push	 eax
  0040e	e8 00 00 00 00	 call	 ?set_client_server_guide_criteria_valid@@YGXPAUENTITY@@W4GUIDE_CRITERIA_TYPES@@HM@Z ; set_client_server_guide_criteria_valid

; 570  : }

  00413	5f		 pop	 edi
  00414	5e		 pop	 esi
  00415	5b		 pop	 ebx
  00416	8b e5		 mov	 esp, ebp
  00418	5d		 pop	 ebp
  00419	c2 04 00	 ret	 4
?set_attack_guide_fire_intercept_position@@YGXPAUENTITY@@@Z ENDP ; set_attack_guide_fire_intercept_position
_TEXT	ENDS
; Function compile flags: /Odtp /ZI
; File c:\users\nhv90\projects\eech\aphavoc\source\entity\special\guide\aa_attck.c
;	COMDAT ?set_attack_guide_move_circle_position@@YGXPAUENTITY@@@Z
_TEXT	SEGMENT
tv367 = -136						; size = 4
tv380 = -132						; size = 4
tv360 = -128						; size = 4
tv247 = -124						; size = 4
tv205 = -124						; size = 4
tv169 = -124						; size = 4
tv149 = -124						; size = 4
tv78 = -124						; size = 4
tv239 = -120						; size = 4
tv197 = -120						; size = 4
tv161 = -120						; size = 4
tv141 = -120						; size = 4
tv129 = -120						; size = 4
tv70 = -120						; size = 4
_target$ = -52						; size = 4
_aggressor$ = -48					; size = 4
_task$ = -44						; size = 4
_wp$ = -40						; size = 4
_direction$ = -36					; size = 8
_position$ = -28					; size = 12
_target_mv$ = -16					; size = 4
_aggressor_pos$ = -12					; size = 4
_target_pos$ = -8					; size = 4
_distance$ = -4						; size = 4
_en$ = 8						; size = 4
?set_attack_guide_move_circle_position@@YGXPAUENTITY@@@Z PROC ; set_attack_guide_move_circle_position, COMDAT

; 425  : {

  00000	55		 push	 ebp
  00001	8b ec		 mov	 ebp, esp
  00003	81 ec 88 00 00
	00		 sub	 esp, 136		; 00000088H
  00009	53		 push	 ebx
  0000a	56		 push	 esi
  0000b	57		 push	 edi

; 426  : 	float
; 427  : 		distance;
; 428  : 
; 429  : 	vec3d
; 430  : 		*target_pos,
; 431  : 		*aggressor_pos,
; 432  : 		*target_mv,
; 433  : 		position;
; 434  : 
; 435  : 	vec2d		
; 436  : 		direction;
; 437  : 
; 438  : 	entity
; 439  : 		*wp,
; 440  : 		*task,
; 441  : 		*aggressor,
; 442  : 		*target;
; 443  : 
; 444  : 	set_client_server_entity_int_value (en, INT_TYPE_ENTITY_SUB_TYPE, ENTITY_SUB_TYPE_GUIDE_ATTACK_AA_MOVE_CIRCLE);

  0000c	83 7d 08 00	 cmp	 DWORD PTR _en$[ebp], 0
  00010	74 0a		 je	 SHORT $LN5@set_attack
  00012	8b 45 08	 mov	 eax, DWORD PTR _en$[ebp]
  00015	8b 08		 mov	 ecx, DWORD PTR [eax]
  00017	89 4d 88	 mov	 DWORD PTR tv70[ebp], ecx
  0001a	eb 21		 jmp	 SHORT $LN6@set_attack
$LN5@set_attack:
  0001c	8b 15 00 00 00
	00		 mov	 edx, DWORD PTR ?__LINE__Var@?0??set_attack_guide_move_circle_position@@YGXPAUENTITY@@@Z@4JA
  00022	83 c2 13	 add	 edx, 19			; 00000013H
  00025	52		 push	 edx
  00026	68 00 00 00 00	 push	 OFFSET ??_C@_0EM@DNELFJLJ@c?3?2users?2nhv90?2projects?2eech?2ap@
  0002b	a1 00 00 00 00	 mov	 eax, DWORD PTR ?null_entity_pointer_message@@3PBDB ; null_entity_pointer_message
  00030	50		 push	 eax
  00031	e8 00 00 00 00	 call	 ?process_assert@@YGXPBD0H@Z ; process_assert
  00036	c7 45 88 00 00
	00 00		 mov	 DWORD PTR tv70[ebp], 0
$LN6@set_attack:
  0003d	b9 01 00 00 00	 mov	 ecx, 1
  00042	85 c9		 test	 ecx, ecx
  00044	74 09		 je	 SHORT $LN7@set_attack
  00046	c7 45 84 34 00
	00 00		 mov	 DWORD PTR tv78[ebp], 52	; 00000034H
  0004d	eb 21		 jmp	 SHORT $LN8@set_attack
$LN7@set_attack:
  0004f	8b 15 00 00 00
	00		 mov	 edx, DWORD PTR ?__LINE__Var@?0??set_attack_guide_move_circle_position@@YGXPAUENTITY@@@Z@4JA
  00055	83 c2 13	 add	 edx, 19			; 00000013H
  00058	52		 push	 edx
  00059	68 00 00 00 00	 push	 OFFSET ??_C@_0EM@DNELFJLJ@c?3?2users?2nhv90?2projects?2eech?2ap@
  0005e	a1 00 00 00 00	 mov	 eax, DWORD PTR ?overload_invalid_int_type_message@@3PBDB ; overload_invalid_int_type_message
  00063	50		 push	 eax
  00064	e8 00 00 00 00	 call	 ?process_assert@@YGXPBD0H@Z ; process_assert
  00069	c7 45 84 00 00
	00 00		 mov	 DWORD PTR tv78[ebp], 0
$LN8@set_attack:
  00070	6a 07		 push	 7
  00072	6a 34		 push	 52			; 00000034H
  00074	8b 4d 08	 mov	 ecx, DWORD PTR _en$[ebp]
  00077	51		 push	 ecx
  00078	69 55 88 b8 08
	00 00		 imul	 edx, DWORD PTR tv70[ebp], 2232
  0007f	8b 45 84	 mov	 eax, DWORD PTR tv78[ebp]
  00082	8d 8c c2 00 00
	00 00		 lea	 ecx, DWORD PTR ?fn_set_client_server_entity_int_value@@3PAY1BBH@1P6GXPAUENTITY@@W4INT_TYPES@@H@ZA[edx+eax*8]
  00089	8b 15 00 00 00
	00		 mov	 edx, DWORD PTR ?system_comms_model@@3W4COMMS_MODEL_TYPES@@A ; system_comms_model
  0008f	8b 04 91	 mov	 eax, DWORD PTR [ecx+edx*4]
  00092	ff d0		 call	 eax

; 445  : 
; 446  : 	get_local_guide_entity_pointers (en, &aggressor, &wp, &task, &target);

  00094	8d 45 cc	 lea	 eax, DWORD PTR _target$[ebp]
  00097	50		 push	 eax
  00098	8d 4d d4	 lea	 ecx, DWORD PTR _task$[ebp]
  0009b	51		 push	 ecx
  0009c	8d 55 d8	 lea	 edx, DWORD PTR _wp$[ebp]
  0009f	52		 push	 edx
  000a0	8d 45 d0	 lea	 eax, DWORD PTR _aggressor$[ebp]
  000a3	50		 push	 eax
  000a4	8b 4d 08	 mov	 ecx, DWORD PTR _en$[ebp]
  000a7	51		 push	 ecx
  000a8	e8 00 00 00 00	 call	 ?get_local_guide_entity_pointers@@YGXPAUENTITY@@PAPAU1@111@Z ; get_local_guide_entity_pointers

; 447  : 
; 448  : 	ASSERT (get_local_entity_type (aggressor) == ENTITY_TYPE_HELICOPTER);

  000ad	83 7d d0 00	 cmp	 DWORD PTR _aggressor$[ebp], 0
  000b1	74 0a		 je	 SHORT $LN9@set_attack
  000b3	8b 45 d0	 mov	 eax, DWORD PTR _aggressor$[ebp]
  000b6	8b 08		 mov	 ecx, DWORD PTR [eax]
  000b8	89 4d 88	 mov	 DWORD PTR tv129[ebp], ecx
  000bb	eb 21		 jmp	 SHORT $LN10@set_attack
$LN9@set_attack:
  000bd	8b 15 00 00 00
	00		 mov	 edx, DWORD PTR ?__LINE__Var@?0??set_attack_guide_move_circle_position@@YGXPAUENTITY@@@Z@4JA
  000c3	83 c2 17	 add	 edx, 23			; 00000017H
  000c6	52		 push	 edx
  000c7	68 00 00 00 00	 push	 OFFSET ??_C@_0EM@DNELFJLJ@c?3?2users?2nhv90?2projects?2eech?2ap@
  000cc	a1 00 00 00 00	 mov	 eax, DWORD PTR ?null_entity_pointer_message@@3PBDB ; null_entity_pointer_message
  000d1	50		 push	 eax
  000d2	e8 00 00 00 00	 call	 ?process_assert@@YGXPBD0H@Z ; process_assert
  000d7	c7 45 88 00 00
	00 00		 mov	 DWORD PTR tv129[ebp], 0
$LN10@set_attack:
  000de	83 7d 88 0e	 cmp	 DWORD PTR tv129[ebp], 14 ; 0000000eH
  000e2	74 18		 je	 SHORT $LN2@set_attack
  000e4	a1 00 00 00 00	 mov	 eax, DWORD PTR ?__LINE__Var@?0??set_attack_guide_move_circle_position@@YGXPAUENTITY@@@Z@4JA
  000e9	83 c0 17	 add	 eax, 23			; 00000017H
  000ec	50		 push	 eax
  000ed	68 00 00 00 00	 push	 OFFSET ??_C@_0EM@DNELFJLJ@c?3?2users?2nhv90?2projects?2eech?2ap@
  000f2	68 00 00 00 00	 push	 OFFSET ??_C@_0DM@CJNMDCLH@get_local_entity_type?5?$CIaggresso@
  000f7	e8 00 00 00 00	 call	 ?process_assert@@YGXPBD0H@Z ; process_assert
$LN2@set_attack:

; 449  : 
; 450  : 	//
; 451  : 	// calculate vector of aggressor to target
; 452  : 	//
; 453  : 
; 454  : 	target_pos = get_local_entity_vec3d_ptr (target, VEC3D_TYPE_POSITION);

  000fc	83 7d cc 00	 cmp	 DWORD PTR _target$[ebp], 0
  00100	74 0a		 je	 SHORT $LN11@set_attack
  00102	8b 45 cc	 mov	 eax, DWORD PTR _target$[ebp]
  00105	8b 08		 mov	 ecx, DWORD PTR [eax]
  00107	89 4d 88	 mov	 DWORD PTR tv141[ebp], ecx
  0010a	eb 21		 jmp	 SHORT $LN12@set_attack
$LN11@set_attack:
  0010c	8b 15 00 00 00
	00		 mov	 edx, DWORD PTR ?__LINE__Var@?0??set_attack_guide_move_circle_position@@YGXPAUENTITY@@@Z@4JA
  00112	83 c2 1d	 add	 edx, 29			; 0000001dH
  00115	52		 push	 edx
  00116	68 00 00 00 00	 push	 OFFSET ??_C@_0EM@DNELFJLJ@c?3?2users?2nhv90?2projects?2eech?2ap@
  0011b	a1 00 00 00 00	 mov	 eax, DWORD PTR ?null_entity_pointer_message@@3PBDB ; null_entity_pointer_message
  00120	50		 push	 eax
  00121	e8 00 00 00 00	 call	 ?process_assert@@YGXPBD0H@Z ; process_assert
  00126	c7 45 88 00 00
	00 00		 mov	 DWORD PTR tv141[ebp], 0
$LN12@set_attack:
  0012d	b9 01 00 00 00	 mov	 ecx, 1
  00132	85 c9		 test	 ecx, ecx
  00134	74 09		 je	 SHORT $LN13@set_attack
  00136	c7 45 84 08 00
	00 00		 mov	 DWORD PTR tv149[ebp], 8
  0013d	eb 21		 jmp	 SHORT $LN14@set_attack
$LN13@set_attack:
  0013f	8b 15 00 00 00
	00		 mov	 edx, DWORD PTR ?__LINE__Var@?0??set_attack_guide_move_circle_position@@YGXPAUENTITY@@@Z@4JA
  00145	83 c2 1d	 add	 edx, 29			; 0000001dH
  00148	52		 push	 edx
  00149	68 00 00 00 00	 push	 OFFSET ??_C@_0EM@DNELFJLJ@c?3?2users?2nhv90?2projects?2eech?2ap@
  0014e	a1 00 00 00 00	 mov	 eax, DWORD PTR ?overload_invalid_vec3d_type_message@@3PBDB ; overload_invalid_vec3d_type_message
  00153	50		 push	 eax
  00154	e8 00 00 00 00	 call	 ?process_assert@@YGXPBD0H@Z ; process_assert
  00159	c7 45 84 00 00
	00 00		 mov	 DWORD PTR tv149[ebp], 0
$LN14@set_attack:
  00160	6a 08		 push	 8
  00162	8b 4d cc	 mov	 ecx, DWORD PTR _target$[ebp]
  00165	51		 push	 ecx
  00166	6b 55 88 60	 imul	 edx, DWORD PTR tv141[ebp], 96
  0016a	8b 45 84	 mov	 eax, DWORD PTR tv149[ebp]
  0016d	8b 8c 82 00 00
	00 00		 mov	 ecx, DWORD PTR ?fn_get_local_entity_vec3d_ptr@@3PAY0BI@P6GPAUVEC3D@@PAUENTITY@@W4VEC3D_TYPES@@@ZA[edx+eax*4]
  00174	ff d1		 call	 ecx
  00176	89 45 f8	 mov	 DWORD PTR _target_pos$[ebp], eax

; 455  : 
; 456  : 	aggressor_pos = get_local_entity_vec3d_ptr (aggressor, VEC3D_TYPE_POSITION);

  00179	83 7d d0 00	 cmp	 DWORD PTR _aggressor$[ebp], 0
  0017d	74 0a		 je	 SHORT $LN15@set_attack
  0017f	8b 45 d0	 mov	 eax, DWORD PTR _aggressor$[ebp]
  00182	8b 08		 mov	 ecx, DWORD PTR [eax]
  00184	89 4d 88	 mov	 DWORD PTR tv161[ebp], ecx
  00187	eb 21		 jmp	 SHORT $LN16@set_attack
$LN15@set_attack:
  00189	8b 15 00 00 00
	00		 mov	 edx, DWORD PTR ?__LINE__Var@?0??set_attack_guide_move_circle_position@@YGXPAUENTITY@@@Z@4JA
  0018f	83 c2 1f	 add	 edx, 31			; 0000001fH
  00192	52		 push	 edx
  00193	68 00 00 00 00	 push	 OFFSET ??_C@_0EM@DNELFJLJ@c?3?2users?2nhv90?2projects?2eech?2ap@
  00198	a1 00 00 00 00	 mov	 eax, DWORD PTR ?null_entity_pointer_message@@3PBDB ; null_entity_pointer_message
  0019d	50		 push	 eax
  0019e	e8 00 00 00 00	 call	 ?process_assert@@YGXPBD0H@Z ; process_assert
  001a3	c7 45 88 00 00
	00 00		 mov	 DWORD PTR tv161[ebp], 0
$LN16@set_attack:
  001aa	b9 01 00 00 00	 mov	 ecx, 1
  001af	85 c9		 test	 ecx, ecx
  001b1	74 09		 je	 SHORT $LN17@set_attack
  001b3	c7 45 84 08 00
	00 00		 mov	 DWORD PTR tv169[ebp], 8
  001ba	eb 21		 jmp	 SHORT $LN18@set_attack
$LN17@set_attack:
  001bc	8b 15 00 00 00
	00		 mov	 edx, DWORD PTR ?__LINE__Var@?0??set_attack_guide_move_circle_position@@YGXPAUENTITY@@@Z@4JA
  001c2	83 c2 1f	 add	 edx, 31			; 0000001fH
  001c5	52		 push	 edx
  001c6	68 00 00 00 00	 push	 OFFSET ??_C@_0EM@DNELFJLJ@c?3?2users?2nhv90?2projects?2eech?2ap@
  001cb	a1 00 00 00 00	 mov	 eax, DWORD PTR ?overload_invalid_vec3d_type_message@@3PBDB ; overload_invalid_vec3d_type_message
  001d0	50		 push	 eax
  001d1	e8 00 00 00 00	 call	 ?process_assert@@YGXPBD0H@Z ; process_assert
  001d6	c7 45 84 00 00
	00 00		 mov	 DWORD PTR tv169[ebp], 0
$LN18@set_attack:
  001dd	6a 08		 push	 8
  001df	8b 4d d0	 mov	 ecx, DWORD PTR _aggressor$[ebp]
  001e2	51		 push	 ecx
  001e3	6b 55 88 60	 imul	 edx, DWORD PTR tv161[ebp], 96
  001e7	8b 45 84	 mov	 eax, DWORD PTR tv169[ebp]
  001ea	8b 8c 82 00 00
	00 00		 mov	 ecx, DWORD PTR ?fn_get_local_entity_vec3d_ptr@@3PAY0BI@P6GPAUVEC3D@@PAUENTITY@@W4VEC3D_TYPES@@@ZA[edx+eax*4]
  001f1	ff d1		 call	 ecx
  001f3	89 45 f4	 mov	 DWORD PTR _aggressor_pos$[ebp], eax

; 457  : 
; 458  : 	direction.x = aggressor_pos->x - target_pos->x;

  001f6	8b 45 f4	 mov	 eax, DWORD PTR _aggressor_pos$[ebp]
  001f9	8b 4d f8	 mov	 ecx, DWORD PTR _target_pos$[ebp]
  001fc	f3 0f 10 00	 movss	 xmm0, DWORD PTR [eax]
  00200	f3 0f 5c 01	 subss	 xmm0, DWORD PTR [ecx]
  00204	f3 0f 11 45 dc	 movss	 DWORD PTR _direction$[ebp], xmm0

; 459  : 	direction.y = aggressor_pos->z - target_pos->z;

  00209	8b 45 f4	 mov	 eax, DWORD PTR _aggressor_pos$[ebp]
  0020c	8b 4d f8	 mov	 ecx, DWORD PTR _target_pos$[ebp]
  0020f	f3 0f 10 40 08	 movss	 xmm0, DWORD PTR [eax+8]
  00214	f3 0f 5c 41 08	 subss	 xmm0, DWORD PTR [ecx+8]
  00219	f3 0f 11 45 e0	 movss	 DWORD PTR _direction$[ebp+4], xmm0

; 460  : 
; 461  : 	distance = normalise_any_2d_vector (&direction);

  0021e	8d 45 dc	 lea	 eax, DWORD PTR _direction$[ebp]
  00221	50		 push	 eax
  00222	e8 00 00 00 00	 call	 ?normalise_any_2d_vector@@YGMPAUVEC2D@@@Z ; normalise_any_2d_vector
  00227	d9 5d fc	 fstp	 DWORD PTR _distance$[ebp]

; 462  : 	
; 463  : 	//
; 464  : 	// calculate guide position 
; 465  : 	//
; 466  : 
; 467  : 	rotate_2d_vector (&direction, rad (10.0));

  0022a	51		 push	 ecx
  0022b	f3 0f 10 05 00
	00 00 00	 movss	 xmm0, DWORD PTR __real@3e32b8c2
  00233	f3 0f 11 04 24	 movss	 DWORD PTR [esp], xmm0
  00238	8d 45 dc	 lea	 eax, DWORD PTR _direction$[ebp]
  0023b	50		 push	 eax
  0023c	e8 00 00 00 00	 call	 ?rotate_2d_vector@@YGXPAUVEC2D@@M@Z ; rotate_2d_vector

; 468  : 
; 469  : 	position.x = target_pos->x + (direction.x * distance);

  00241	f3 0f 10 45 dc	 movss	 xmm0, DWORD PTR _direction$[ebp]
  00246	f3 0f 59 45 fc	 mulss	 xmm0, DWORD PTR _distance$[ebp]
  0024b	8b 45 f8	 mov	 eax, DWORD PTR _target_pos$[ebp]
  0024e	f3 0f 58 00	 addss	 xmm0, DWORD PTR [eax]
  00252	f3 0f 11 45 e4	 movss	 DWORD PTR _position$[ebp], xmm0

; 470  : 	position.z = target_pos->z + (direction.y * distance);

  00257	f3 0f 10 45 e0	 movss	 xmm0, DWORD PTR _direction$[ebp+4]
  0025c	f3 0f 59 45 fc	 mulss	 xmm0, DWORD PTR _distance$[ebp]
  00261	8b 45 f8	 mov	 eax, DWORD PTR _target_pos$[ebp]
  00264	f3 0f 58 40 08	 addss	 xmm0, DWORD PTR [eax+8]
  00269	f3 0f 11 45 ec	 movss	 DWORD PTR _position$[ebp+8], xmm0

; 471  : 
; 472  : 	//
; 473  : 	// account for target movement
; 474  : 	//
; 475  : 
; 476  : 	target_mv = get_local_entity_vec3d_ptr (target, VEC3D_TYPE_MOTION_VECTOR);

  0026e	83 7d cc 00	 cmp	 DWORD PTR _target$[ebp], 0
  00272	74 0a		 je	 SHORT $LN19@set_attack
  00274	8b 45 cc	 mov	 eax, DWORD PTR _target$[ebp]
  00277	8b 08		 mov	 ecx, DWORD PTR [eax]
  00279	89 4d 88	 mov	 DWORD PTR tv197[ebp], ecx
  0027c	eb 21		 jmp	 SHORT $LN20@set_attack
$LN19@set_attack:
  0027e	8b 15 00 00 00
	00		 mov	 edx, DWORD PTR ?__LINE__Var@?0??set_attack_guide_move_circle_position@@YGXPAUENTITY@@@Z@4JA
  00284	83 c2 33	 add	 edx, 51			; 00000033H
  00287	52		 push	 edx
  00288	68 00 00 00 00	 push	 OFFSET ??_C@_0EM@DNELFJLJ@c?3?2users?2nhv90?2projects?2eech?2ap@
  0028d	a1 00 00 00 00	 mov	 eax, DWORD PTR ?null_entity_pointer_message@@3PBDB ; null_entity_pointer_message
  00292	50		 push	 eax
  00293	e8 00 00 00 00	 call	 ?process_assert@@YGXPBD0H@Z ; process_assert
  00298	c7 45 88 00 00
	00 00		 mov	 DWORD PTR tv197[ebp], 0
$LN20@set_attack:
  0029f	b9 01 00 00 00	 mov	 ecx, 1
  002a4	85 c9		 test	 ecx, ecx
  002a6	74 09		 je	 SHORT $LN21@set_attack
  002a8	c7 45 84 06 00
	00 00		 mov	 DWORD PTR tv205[ebp], 6
  002af	eb 21		 jmp	 SHORT $LN22@set_attack
$LN21@set_attack:
  002b1	8b 15 00 00 00
	00		 mov	 edx, DWORD PTR ?__LINE__Var@?0??set_attack_guide_move_circle_position@@YGXPAUENTITY@@@Z@4JA
  002b7	83 c2 33	 add	 edx, 51			; 00000033H
  002ba	52		 push	 edx
  002bb	68 00 00 00 00	 push	 OFFSET ??_C@_0EM@DNELFJLJ@c?3?2users?2nhv90?2projects?2eech?2ap@
  002c0	a1 00 00 00 00	 mov	 eax, DWORD PTR ?overload_invalid_vec3d_type_message@@3PBDB ; overload_invalid_vec3d_type_message
  002c5	50		 push	 eax
  002c6	e8 00 00 00 00	 call	 ?process_assert@@YGXPBD0H@Z ; process_assert
  002cb	c7 45 84 00 00
	00 00		 mov	 DWORD PTR tv205[ebp], 0
$LN22@set_attack:
  002d2	6a 06		 push	 6
  002d4	8b 4d cc	 mov	 ecx, DWORD PTR _target$[ebp]
  002d7	51		 push	 ecx
  002d8	6b 55 88 60	 imul	 edx, DWORD PTR tv197[ebp], 96
  002dc	8b 45 84	 mov	 eax, DWORD PTR tv205[ebp]
  002df	8b 8c 82 00 00
	00 00		 mov	 ecx, DWORD PTR ?fn_get_local_entity_vec3d_ptr@@3PAY0BI@P6GPAUVEC3D@@PAUENTITY@@W4VEC3D_TYPES@@@ZA[edx+eax*4]
  002e6	ff d1		 call	 ecx
  002e8	89 45 f0	 mov	 DWORD PTR _target_mv$[ebp], eax

; 477  : 
; 478  : 	ASSERT (target_mv);

  002eb	83 7d f0 00	 cmp	 DWORD PTR _target_mv$[ebp], 0
  002ef	75 18		 jne	 SHORT $LN3@set_attack
  002f1	a1 00 00 00 00	 mov	 eax, DWORD PTR ?__LINE__Var@?0??set_attack_guide_move_circle_position@@YGXPAUENTITY@@@Z@4JA
  002f6	83 c0 35	 add	 eax, 53			; 00000035H
  002f9	50		 push	 eax
  002fa	68 00 00 00 00	 push	 OFFSET ??_C@_0EM@DNELFJLJ@c?3?2users?2nhv90?2projects?2eech?2ap@
  002ff	68 00 00 00 00	 push	 OFFSET ??_C@_09PGMEICBL@target_mv@
  00304	e8 00 00 00 00	 call	 ?process_assert@@YGXPBD0H@Z ; process_assert
$LN3@set_attack:

; 479  : 
; 480  : 	position.x += (target_mv->x * 5.0);

  00309	8b 45 f0	 mov	 eax, DWORD PTR _target_mv$[ebp]
  0030c	f3 0f 5a 00	 cvtss2sd xmm0, DWORD PTR [eax]
  00310	f2 0f 59 05 00
	00 00 00	 mulsd	 xmm0, QWORD PTR __real@4014000000000000
  00318	f3 0f 5a 4d e4	 cvtss2sd xmm1, DWORD PTR _position$[ebp]
  0031d	f2 0f 58 c8	 addsd	 xmm1, xmm0
  00321	f2 0f 5a c1	 cvtsd2ss xmm0, xmm1
  00325	f3 0f 11 45 e4	 movss	 DWORD PTR _position$[ebp], xmm0

; 481  : 	position.z += (target_mv->z * 5.0);

  0032a	8b 45 f0	 mov	 eax, DWORD PTR _target_mv$[ebp]
  0032d	f3 0f 5a 40 08	 cvtss2sd xmm0, DWORD PTR [eax+8]
  00332	f2 0f 59 05 00
	00 00 00	 mulsd	 xmm0, QWORD PTR __real@4014000000000000
  0033a	f3 0f 5a 4d ec	 cvtss2sd xmm1, DWORD PTR _position$[ebp+8]
  0033f	f2 0f 58 c8	 addsd	 xmm1, xmm0
  00343	f2 0f 5a c1	 cvtsd2ss xmm0, xmm1
  00347	f3 0f 11 45 ec	 movss	 DWORD PTR _position$[ebp+8], xmm0

; 482  : 
; 483  : 	bound_position_to_adjusted_map_volume (&position);

  0034c	8d 45 e4	 lea	 eax, DWORD PTR _position$[ebp]
  0034f	50		 push	 eax
  00350	e8 00 00 00 00	 call	 ?bound_position_to_adjusted_map_volume@@YGHPAUVEC3D@@@Z ; bound_position_to_adjusted_map_volume

; 484  : 
; 485  : 	position.y = get_3d_terrain_elevation (position.x, position.z) + get_local_entity_float_value (aggressor, FLOAT_TYPE_ATTACK_ALTITUDE);

  00355	83 7d d0 00	 cmp	 DWORD PTR _aggressor$[ebp], 0
  00359	74 0a		 je	 SHORT $LN23@set_attack
  0035b	8b 45 d0	 mov	 eax, DWORD PTR _aggressor$[ebp]
  0035e	8b 08		 mov	 ecx, DWORD PTR [eax]
  00360	89 4d 88	 mov	 DWORD PTR tv239[ebp], ecx
  00363	eb 21		 jmp	 SHORT $LN24@set_attack
$LN23@set_attack:
  00365	8b 15 00 00 00
	00		 mov	 edx, DWORD PTR ?__LINE__Var@?0??set_attack_guide_move_circle_position@@YGXPAUENTITY@@@Z@4JA
  0036b	83 c2 3c	 add	 edx, 60			; 0000003cH
  0036e	52		 push	 edx
  0036f	68 00 00 00 00	 push	 OFFSET ??_C@_0EM@DNELFJLJ@c?3?2users?2nhv90?2projects?2eech?2ap@
  00374	a1 00 00 00 00	 mov	 eax, DWORD PTR ?null_entity_pointer_message@@3PBDB ; null_entity_pointer_message
  00379	50		 push	 eax
  0037a	e8 00 00 00 00	 call	 ?process_assert@@YGXPBD0H@Z ; process_assert
  0037f	c7 45 88 00 00
	00 00		 mov	 DWORD PTR tv239[ebp], 0
$LN24@set_attack:
  00386	b9 01 00 00 00	 mov	 ecx, 1
  0038b	85 c9		 test	 ecx, ecx
  0038d	74 09		 je	 SHORT $LN25@set_attack
  0038f	c7 45 84 0e 00
	00 00		 mov	 DWORD PTR tv247[ebp], 14 ; 0000000eH
  00396	eb 21		 jmp	 SHORT $LN26@set_attack
$LN25@set_attack:
  00398	8b 15 00 00 00
	00		 mov	 edx, DWORD PTR ?__LINE__Var@?0??set_attack_guide_move_circle_position@@YGXPAUENTITY@@@Z@4JA
  0039e	83 c2 3c	 add	 edx, 60			; 0000003cH
  003a1	52		 push	 edx
  003a2	68 00 00 00 00	 push	 OFFSET ??_C@_0EM@DNELFJLJ@c?3?2users?2nhv90?2projects?2eech?2ap@
  003a7	a1 00 00 00 00	 mov	 eax, DWORD PTR ?overload_invalid_float_type_message@@3PBDB ; overload_invalid_float_type_message
  003ac	50		 push	 eax
  003ad	e8 00 00 00 00	 call	 ?process_assert@@YGXPBD0H@Z ; process_assert
  003b2	c7 45 84 00 00
	00 00		 mov	 DWORD PTR tv247[ebp], 0
$LN26@set_attack:
  003b9	6a 00		 push	 0
  003bb	51		 push	 ecx
  003bc	f3 0f 10 45 ec	 movss	 xmm0, DWORD PTR _position$[ebp+8]
  003c1	f3 0f 11 04 24	 movss	 DWORD PTR [esp], xmm0
  003c6	51		 push	 ecx
  003c7	f3 0f 10 45 e4	 movss	 xmm0, DWORD PTR _position$[ebp]
  003cc	f3 0f 11 04 24	 movss	 DWORD PTR [esp], xmm0
  003d1	e8 00 00 00 00	 call	 ?get_3d_terrain_point_data@@YGMMMPAUTERRAIN_3D_POINT_DATA@@@Z ; get_3d_terrain_point_data
  003d6	d9 5d 80	 fstp	 DWORD PTR tv360[ebp]
  003d9	f3 0f 10 45 80	 movss	 xmm0, DWORD PTR tv360[ebp]
  003de	6a 0e		 push	 14			; 0000000eH
  003e0	8b 4d d0	 mov	 ecx, DWORD PTR _aggressor$[ebp]
  003e3	51		 push	 ecx
  003e4	69 55 88 bc 02
	00 00		 imul	 edx, DWORD PTR tv239[ebp], 700
  003eb	8b 45 84	 mov	 eax, DWORD PTR tv247[ebp]
  003ee	8b 8c 82 00 00
	00 00		 mov	 ecx, DWORD PTR ?fn_get_local_entity_float_value@@3PAY0KP@P6GMPAUENTITY@@W4FLOAT_TYPES@@@ZA[edx+eax*4]
  003f5	f3 0f 11 85 7c
	ff ff ff	 movss	 DWORD PTR tv380[ebp], xmm0
  003fd	ff d1		 call	 ecx
  003ff	d9 9d 78 ff ff
	ff		 fstp	 DWORD PTR tv367[ebp]
  00405	f3 0f 10 85 7c
	ff ff ff	 movss	 xmm0, DWORD PTR tv380[ebp]
  0040d	f3 0f 58 85 78
	ff ff ff	 addss	 xmm0, DWORD PTR tv367[ebp]
  00415	f3 0f 11 45 e8	 movss	 DWORD PTR _position$[ebp+4], xmm0

; 486  : 
; 487  : 	set_client_server_guide_entity_new_position (en, &position, NULL);

  0041a	6a 00		 push	 0
  0041c	8d 45 e4	 lea	 eax, DWORD PTR _position$[ebp]
  0041f	50		 push	 eax
  00420	8b 4d 08	 mov	 ecx, DWORD PTR _en$[ebp]
  00423	51		 push	 ecx
  00424	e8 00 00 00 00	 call	 ?set_client_server_guide_entity_new_position@@YGXPAUENTITY@@PAUVEC3D@@0@Z ; set_client_server_guide_entity_new_position

; 488  : 
; 489  : 	set_client_server_guide_criteria_valid (en, GUIDE_CRITERIA_RADIUS, TRUE, 50.0);

  00429	51		 push	 ecx
  0042a	f3 0f 10 05 00
	00 00 00	 movss	 xmm0, DWORD PTR __real@42480000
  00432	f3 0f 11 04 24	 movss	 DWORD PTR [esp], xmm0
  00437	6a 01		 push	 1
  00439	6a 00		 push	 0
  0043b	8b 45 08	 mov	 eax, DWORD PTR _en$[ebp]
  0043e	50		 push	 eax
  0043f	e8 00 00 00 00	 call	 ?set_client_server_guide_criteria_valid@@YGXPAUENTITY@@W4GUIDE_CRITERIA_TYPES@@HM@Z ; set_client_server_guide_criteria_valid

; 490  : 
; 491  : 	set_client_server_guide_criteria_valid (en, GUIDE_CRITERIA_HEADING, FALSE, 0.0);

  00444	51		 push	 ecx
  00445	0f 57 c0	 xorps	 xmm0, xmm0
  00448	f3 0f 11 04 24	 movss	 DWORD PTR [esp], xmm0
  0044d	6a 00		 push	 0
  0044f	6a 01		 push	 1
  00451	8b 45 08	 mov	 eax, DWORD PTR _en$[ebp]
  00454	50		 push	 eax
  00455	e8 00 00 00 00	 call	 ?set_client_server_guide_criteria_valid@@YGXPAUENTITY@@W4GUIDE_CRITERIA_TYPES@@HM@Z ; set_client_server_guide_criteria_valid

; 492  : 
; 493  : 	set_client_server_guide_criteria_valid (en, GUIDE_CRITERIA_WEAPON_VECTOR, FALSE, 0.0);

  0045a	51		 push	 ecx
  0045b	0f 57 c0	 xorps	 xmm0, xmm0
  0045e	f3 0f 11 04 24	 movss	 DWORD PTR [esp], xmm0
  00463	6a 00		 push	 0
  00465	6a 05		 push	 5
  00467	8b 45 08	 mov	 eax, DWORD PTR _en$[ebp]
  0046a	50		 push	 eax
  0046b	e8 00 00 00 00	 call	 ?set_client_server_guide_criteria_valid@@YGXPAUENTITY@@W4GUIDE_CRITERIA_TYPES@@HM@Z ; set_client_server_guide_criteria_valid

; 494  : }

  00470	5f		 pop	 edi
  00471	5e		 pop	 esi
  00472	5b		 pop	 ebx
  00473	8b e5		 mov	 esp, ebp
  00475	5d		 pop	 ebp
  00476	c2 04 00	 ret	 4
?set_attack_guide_move_circle_position@@YGXPAUENTITY@@@Z ENDP ; set_attack_guide_move_circle_position
_TEXT	ENDS
; Function compile flags: /Odtp /ZI
; File c:\users\nhv90\projects\eech\aphavoc\source\entity\special\guide\aa_attck.c
;	COMDAT ?set_attack_guide_move_six_position@@YGXPAUENTITY@@@Z
_TEXT	SEGMENT
tv348 = -128						; size = 4
tv365 = -124						; size = 4
tv341 = -120						; size = 4
tv235 = -116						; size = 4
tv197 = -116						; size = 4
tv177 = -116						; size = 4
tv149 = -116						; size = 4
tv78 = -116						; size = 4
tv227 = -112						; size = 4
tv189 = -112						; size = 4
tv169 = -112						; size = 4
tv141 = -112						; size = 4
tv129 = -112						; size = 4
tv70 = -112						; size = 4
_selected_weapon$ = -44					; size = 4
_target$ = -40						; size = 4
_aggressor$ = -36					; size = 4
_task$ = -32						; size = 4
_wp$ = -28						; size = 4
_position$ = -24					; size = 12
_target_zv$ = -12					; size = 4
_target_pos$ = -8					; size = 4
_weapon_effective_range$ = -4				; size = 4
_en$ = 8						; size = 4
?set_attack_guide_move_six_position@@YGXPAUENTITY@@@Z PROC ; set_attack_guide_move_six_position, COMDAT

; 360  : {

  00000	55		 push	 ebp
  00001	8b ec		 mov	 ebp, esp
  00003	81 ec 80 00 00
	00		 sub	 esp, 128		; 00000080H
  00009	53		 push	 ebx
  0000a	56		 push	 esi
  0000b	57		 push	 edi

; 361  : 	float
; 362  : 		weapon_effective_range;
; 363  : 
; 364  : 	vec3d
; 365  : 		*target_pos,
; 366  : 		*target_zv,
; 367  : 		position;
; 368  : 
; 369  : 	entity
; 370  : 		*wp,
; 371  : 		*task,
; 372  : 		*aggressor,
; 373  : 		*target;
; 374  : 
; 375  : 	entity_sub_types
; 376  : 		selected_weapon;
; 377  : 
; 378  : 	set_client_server_entity_int_value (en, INT_TYPE_ENTITY_SUB_TYPE, ENTITY_SUB_TYPE_GUIDE_ATTACK_AA_MOVE_SIX);

  0000c	83 7d 08 00	 cmp	 DWORD PTR _en$[ebp], 0
  00010	74 0a		 je	 SHORT $LN6@set_attack
  00012	8b 45 08	 mov	 eax, DWORD PTR _en$[ebp]
  00015	8b 08		 mov	 ecx, DWORD PTR [eax]
  00017	89 4d 90	 mov	 DWORD PTR tv70[ebp], ecx
  0001a	eb 21		 jmp	 SHORT $LN7@set_attack
$LN6@set_attack:
  0001c	8b 15 00 00 00
	00		 mov	 edx, DWORD PTR ?__LINE__Var@?0??set_attack_guide_move_six_position@@YGXPAUENTITY@@@Z@4JA
  00022	83 c2 12	 add	 edx, 18			; 00000012H
  00025	52		 push	 edx
  00026	68 00 00 00 00	 push	 OFFSET ??_C@_0EM@DNELFJLJ@c?3?2users?2nhv90?2projects?2eech?2ap@
  0002b	a1 00 00 00 00	 mov	 eax, DWORD PTR ?null_entity_pointer_message@@3PBDB ; null_entity_pointer_message
  00030	50		 push	 eax
  00031	e8 00 00 00 00	 call	 ?process_assert@@YGXPBD0H@Z ; process_assert
  00036	c7 45 90 00 00
	00 00		 mov	 DWORD PTR tv70[ebp], 0
$LN7@set_attack:
  0003d	b9 01 00 00 00	 mov	 ecx, 1
  00042	85 c9		 test	 ecx, ecx
  00044	74 09		 je	 SHORT $LN8@set_attack
  00046	c7 45 8c 34 00
	00 00		 mov	 DWORD PTR tv78[ebp], 52	; 00000034H
  0004d	eb 21		 jmp	 SHORT $LN9@set_attack
$LN8@set_attack:
  0004f	8b 15 00 00 00
	00		 mov	 edx, DWORD PTR ?__LINE__Var@?0??set_attack_guide_move_six_position@@YGXPAUENTITY@@@Z@4JA
  00055	83 c2 12	 add	 edx, 18			; 00000012H
  00058	52		 push	 edx
  00059	68 00 00 00 00	 push	 OFFSET ??_C@_0EM@DNELFJLJ@c?3?2users?2nhv90?2projects?2eech?2ap@
  0005e	a1 00 00 00 00	 mov	 eax, DWORD PTR ?overload_invalid_int_type_message@@3PBDB ; overload_invalid_int_type_message
  00063	50		 push	 eax
  00064	e8 00 00 00 00	 call	 ?process_assert@@YGXPBD0H@Z ; process_assert
  00069	c7 45 8c 00 00
	00 00		 mov	 DWORD PTR tv78[ebp], 0
$LN9@set_attack:
  00070	6a 06		 push	 6
  00072	6a 34		 push	 52			; 00000034H
  00074	8b 4d 08	 mov	 ecx, DWORD PTR _en$[ebp]
  00077	51		 push	 ecx
  00078	69 55 90 b8 08
	00 00		 imul	 edx, DWORD PTR tv70[ebp], 2232
  0007f	8b 45 8c	 mov	 eax, DWORD PTR tv78[ebp]
  00082	8d 8c c2 00 00
	00 00		 lea	 ecx, DWORD PTR ?fn_set_client_server_entity_int_value@@3PAY1BBH@1P6GXPAUENTITY@@W4INT_TYPES@@H@ZA[edx+eax*8]
  00089	8b 15 00 00 00
	00		 mov	 edx, DWORD PTR ?system_comms_model@@3W4COMMS_MODEL_TYPES@@A ; system_comms_model
  0008f	8b 04 91	 mov	 eax, DWORD PTR [ecx+edx*4]
  00092	ff d0		 call	 eax

; 379  : 
; 380  : 	get_local_guide_entity_pointers (en, &aggressor, &wp, &task, &target);

  00094	8d 45 d8	 lea	 eax, DWORD PTR _target$[ebp]
  00097	50		 push	 eax
  00098	8d 4d e0	 lea	 ecx, DWORD PTR _task$[ebp]
  0009b	51		 push	 ecx
  0009c	8d 55 e4	 lea	 edx, DWORD PTR _wp$[ebp]
  0009f	52		 push	 edx
  000a0	8d 45 dc	 lea	 eax, DWORD PTR _aggressor$[ebp]
  000a3	50		 push	 eax
  000a4	8b 4d 08	 mov	 ecx, DWORD PTR _en$[ebp]
  000a7	51		 push	 ecx
  000a8	e8 00 00 00 00	 call	 ?get_local_guide_entity_pointers@@YGXPAUENTITY@@PAPAU1@111@Z ; get_local_guide_entity_pointers

; 381  : 
; 382  : 	ASSERT (get_local_entity_type (aggressor) == ENTITY_TYPE_FIXED_WING);

  000ad	83 7d dc 00	 cmp	 DWORD PTR _aggressor$[ebp], 0
  000b1	74 0a		 je	 SHORT $LN10@set_attack
  000b3	8b 45 dc	 mov	 eax, DWORD PTR _aggressor$[ebp]
  000b6	8b 08		 mov	 ecx, DWORD PTR [eax]
  000b8	89 4d 90	 mov	 DWORD PTR tv129[ebp], ecx
  000bb	eb 21		 jmp	 SHORT $LN11@set_attack
$LN10@set_attack:
  000bd	8b 15 00 00 00
	00		 mov	 edx, DWORD PTR ?__LINE__Var@?0??set_attack_guide_move_six_position@@YGXPAUENTITY@@@Z@4JA
  000c3	83 c2 16	 add	 edx, 22			; 00000016H
  000c6	52		 push	 edx
  000c7	68 00 00 00 00	 push	 OFFSET ??_C@_0EM@DNELFJLJ@c?3?2users?2nhv90?2projects?2eech?2ap@
  000cc	a1 00 00 00 00	 mov	 eax, DWORD PTR ?null_entity_pointer_message@@3PBDB ; null_entity_pointer_message
  000d1	50		 push	 eax
  000d2	e8 00 00 00 00	 call	 ?process_assert@@YGXPBD0H@Z ; process_assert
  000d7	c7 45 90 00 00
	00 00		 mov	 DWORD PTR tv129[ebp], 0
$LN11@set_attack:
  000de	83 7d 90 0a	 cmp	 DWORD PTR tv129[ebp], 10 ; 0000000aH
  000e2	74 18		 je	 SHORT $LN2@set_attack
  000e4	a1 00 00 00 00	 mov	 eax, DWORD PTR ?__LINE__Var@?0??set_attack_guide_move_six_position@@YGXPAUENTITY@@@Z@4JA
  000e9	83 c0 16	 add	 eax, 22			; 00000016H
  000ec	50		 push	 eax
  000ed	68 00 00 00 00	 push	 OFFSET ??_C@_0EM@DNELFJLJ@c?3?2users?2nhv90?2projects?2eech?2ap@
  000f2	68 00 00 00 00	 push	 OFFSET ??_C@_0DM@CKNHJJLP@get_local_entity_type?5?$CIaggresso@
  000f7	e8 00 00 00 00	 call	 ?process_assert@@YGXPBD0H@Z ; process_assert
$LN2@set_attack:

; 383  : 
; 384  : 	//
; 385  : 	// find aggressors selected weapon, and it's effective range
; 386  : 	//
; 387  : 	
; 388  : 	selected_weapon = get_local_entity_int_value (aggressor, INT_TYPE_SELECTED_WEAPON);

  000fc	83 7d dc 00	 cmp	 DWORD PTR _aggressor$[ebp], 0
  00100	74 0a		 je	 SHORT $LN12@set_attack
  00102	8b 45 dc	 mov	 eax, DWORD PTR _aggressor$[ebp]
  00105	8b 08		 mov	 ecx, DWORD PTR [eax]
  00107	89 4d 90	 mov	 DWORD PTR tv141[ebp], ecx
  0010a	eb 21		 jmp	 SHORT $LN13@set_attack
$LN12@set_attack:
  0010c	8b 15 00 00 00
	00		 mov	 edx, DWORD PTR ?__LINE__Var@?0??set_attack_guide_move_six_position@@YGXPAUENTITY@@@Z@4JA
  00112	83 c2 1c	 add	 edx, 28			; 0000001cH
  00115	52		 push	 edx
  00116	68 00 00 00 00	 push	 OFFSET ??_C@_0EM@DNELFJLJ@c?3?2users?2nhv90?2projects?2eech?2ap@
  0011b	a1 00 00 00 00	 mov	 eax, DWORD PTR ?null_entity_pointer_message@@3PBDB ; null_entity_pointer_message
  00120	50		 push	 eax
  00121	e8 00 00 00 00	 call	 ?process_assert@@YGXPBD0H@Z ; process_assert
  00126	c7 45 90 00 00
	00 00		 mov	 DWORD PTR tv141[ebp], 0
$LN13@set_attack:
  0012d	b9 01 00 00 00	 mov	 ecx, 1
  00132	85 c9		 test	 ecx, ecx
  00134	74 09		 je	 SHORT $LN14@set_attack
  00136	c7 45 8c b8 00
	00 00		 mov	 DWORD PTR tv149[ebp], 184 ; 000000b8H
  0013d	eb 21		 jmp	 SHORT $LN15@set_attack
$LN14@set_attack:
  0013f	8b 15 00 00 00
	00		 mov	 edx, DWORD PTR ?__LINE__Var@?0??set_attack_guide_move_six_position@@YGXPAUENTITY@@@Z@4JA
  00145	83 c2 1c	 add	 edx, 28			; 0000001cH
  00148	52		 push	 edx
  00149	68 00 00 00 00	 push	 OFFSET ??_C@_0EM@DNELFJLJ@c?3?2users?2nhv90?2projects?2eech?2ap@
  0014e	a1 00 00 00 00	 mov	 eax, DWORD PTR ?overload_invalid_int_type_message@@3PBDB ; overload_invalid_int_type_message
  00153	50		 push	 eax
  00154	e8 00 00 00 00	 call	 ?process_assert@@YGXPBD0H@Z ; process_assert
  00159	c7 45 8c 00 00
	00 00		 mov	 DWORD PTR tv149[ebp], 0
$LN15@set_attack:
  00160	68 b8 00 00 00	 push	 184			; 000000b8H
  00165	8b 4d dc	 mov	 ecx, DWORD PTR _aggressor$[ebp]
  00168	51		 push	 ecx
  00169	69 55 90 5c 04
	00 00		 imul	 edx, DWORD PTR tv141[ebp], 1116
  00170	8b 45 8c	 mov	 eax, DWORD PTR tv149[ebp]
  00173	8b 8c 82 00 00
	00 00		 mov	 ecx, DWORD PTR ?fn_get_local_entity_int_value@@3PAY0BBH@P6GHPAUENTITY@@W4INT_TYPES@@@ZA[edx+eax*4]
  0017a	ff d1		 call	 ecx
  0017c	89 45 d4	 mov	 DWORD PTR _selected_weapon$[ebp], eax

; 389  : 
; 390  : 	ASSERT (selected_weapon != ENTITY_SUB_TYPE_WEAPON_NO_WEAPON);

  0017f	83 7d d4 00	 cmp	 DWORD PTR _selected_weapon$[ebp], 0
  00183	75 18		 jne	 SHORT $LN3@set_attack
  00185	a1 00 00 00 00	 mov	 eax, DWORD PTR ?__LINE__Var@?0??set_attack_guide_move_six_position@@YGXPAUENTITY@@@Z@4JA
  0018a	83 c0 1e	 add	 eax, 30			; 0000001eH
  0018d	50		 push	 eax
  0018e	68 00 00 00 00	 push	 OFFSET ??_C@_0EM@DNELFJLJ@c?3?2users?2nhv90?2projects?2eech?2ap@
  00193	68 00 00 00 00	 push	 OFFSET ??_C@_0DE@FBJGKGOB@selected_weapon?5?$CB?$DN?5ENTITY_SUB_T@
  00198	e8 00 00 00 00	 call	 ?process_assert@@YGXPBD0H@Z ; process_assert
$LN3@set_attack:

; 391  : 	
; 392  : 	weapon_effective_range = weapon_database [selected_weapon].effective_range;

  0019d	69 45 d4 e0 00
	00 00		 imul	 eax, DWORD PTR _selected_weapon$[ebp], 224
  001a4	f3 0f 10 80 94
	00 00 00	 movss	 xmm0, DWORD PTR ?weapon_database@@3PAUWEAPON_DATA@@A[eax+148]
  001ac	f3 0f 11 45 fc	 movss	 DWORD PTR _weapon_effective_range$[ebp], xmm0

; 393  : 
; 394  : 	//
; 395  : 	// calculate position of targets "six"
; 396  : 	//
; 397  : 
; 398  : 	target_pos = get_local_entity_vec3d_ptr (target, VEC3D_TYPE_POSITION);

  001b1	83 7d d8 00	 cmp	 DWORD PTR _target$[ebp], 0
  001b5	74 0a		 je	 SHORT $LN16@set_attack
  001b7	8b 45 d8	 mov	 eax, DWORD PTR _target$[ebp]
  001ba	8b 08		 mov	 ecx, DWORD PTR [eax]
  001bc	89 4d 90	 mov	 DWORD PTR tv169[ebp], ecx
  001bf	eb 21		 jmp	 SHORT $LN17@set_attack
$LN16@set_attack:
  001c1	8b 15 00 00 00
	00		 mov	 edx, DWORD PTR ?__LINE__Var@?0??set_attack_guide_move_six_position@@YGXPAUENTITY@@@Z@4JA
  001c7	83 c2 26	 add	 edx, 38			; 00000026H
  001ca	52		 push	 edx
  001cb	68 00 00 00 00	 push	 OFFSET ??_C@_0EM@DNELFJLJ@c?3?2users?2nhv90?2projects?2eech?2ap@
  001d0	a1 00 00 00 00	 mov	 eax, DWORD PTR ?null_entity_pointer_message@@3PBDB ; null_entity_pointer_message
  001d5	50		 push	 eax
  001d6	e8 00 00 00 00	 call	 ?process_assert@@YGXPBD0H@Z ; process_assert
  001db	c7 45 90 00 00
	00 00		 mov	 DWORD PTR tv169[ebp], 0
$LN17@set_attack:
  001e2	b9 01 00 00 00	 mov	 ecx, 1
  001e7	85 c9		 test	 ecx, ecx
  001e9	74 09		 je	 SHORT $LN18@set_attack
  001eb	c7 45 8c 08 00
	00 00		 mov	 DWORD PTR tv177[ebp], 8
  001f2	eb 21		 jmp	 SHORT $LN19@set_attack
$LN18@set_attack:
  001f4	8b 15 00 00 00
	00		 mov	 edx, DWORD PTR ?__LINE__Var@?0??set_attack_guide_move_six_position@@YGXPAUENTITY@@@Z@4JA
  001fa	83 c2 26	 add	 edx, 38			; 00000026H
  001fd	52		 push	 edx
  001fe	68 00 00 00 00	 push	 OFFSET ??_C@_0EM@DNELFJLJ@c?3?2users?2nhv90?2projects?2eech?2ap@
  00203	a1 00 00 00 00	 mov	 eax, DWORD PTR ?overload_invalid_vec3d_type_message@@3PBDB ; overload_invalid_vec3d_type_message
  00208	50		 push	 eax
  00209	e8 00 00 00 00	 call	 ?process_assert@@YGXPBD0H@Z ; process_assert
  0020e	c7 45 8c 00 00
	00 00		 mov	 DWORD PTR tv177[ebp], 0
$LN19@set_attack:
  00215	6a 08		 push	 8
  00217	8b 4d d8	 mov	 ecx, DWORD PTR _target$[ebp]
  0021a	51		 push	 ecx
  0021b	6b 55 90 60	 imul	 edx, DWORD PTR tv169[ebp], 96
  0021f	8b 45 8c	 mov	 eax, DWORD PTR tv177[ebp]
  00222	8b 8c 82 00 00
	00 00		 mov	 ecx, DWORD PTR ?fn_get_local_entity_vec3d_ptr@@3PAY0BI@P6GPAUVEC3D@@PAUENTITY@@W4VEC3D_TYPES@@@ZA[edx+eax*4]
  00229	ff d1		 call	 ecx
  0022b	89 45 f8	 mov	 DWORD PTR _target_pos$[ebp], eax

; 399  : 
; 400  : 	target_zv = get_local_entity_vec3d_ptr (target, VEC3D_TYPE_ZV);

  0022e	83 7d d8 00	 cmp	 DWORD PTR _target$[ebp], 0
  00232	74 0a		 je	 SHORT $LN20@set_attack
  00234	8b 45 d8	 mov	 eax, DWORD PTR _target$[ebp]
  00237	8b 08		 mov	 ecx, DWORD PTR [eax]
  00239	89 4d 90	 mov	 DWORD PTR tv189[ebp], ecx
  0023c	eb 21		 jmp	 SHORT $LN21@set_attack
$LN20@set_attack:
  0023e	8b 15 00 00 00
	00		 mov	 edx, DWORD PTR ?__LINE__Var@?0??set_attack_guide_move_six_position@@YGXPAUENTITY@@@Z@4JA
  00244	83 c2 28	 add	 edx, 40			; 00000028H
  00247	52		 push	 edx
  00248	68 00 00 00 00	 push	 OFFSET ??_C@_0EM@DNELFJLJ@c?3?2users?2nhv90?2projects?2eech?2ap@
  0024d	a1 00 00 00 00	 mov	 eax, DWORD PTR ?null_entity_pointer_message@@3PBDB ; null_entity_pointer_message
  00252	50		 push	 eax
  00253	e8 00 00 00 00	 call	 ?process_assert@@YGXPBD0H@Z ; process_assert
  00258	c7 45 90 00 00
	00 00		 mov	 DWORD PTR tv189[ebp], 0
$LN21@set_attack:
  0025f	b9 01 00 00 00	 mov	 ecx, 1
  00264	85 c9		 test	 ecx, ecx
  00266	74 09		 je	 SHORT $LN22@set_attack
  00268	c7 45 8c 16 00
	00 00		 mov	 DWORD PTR tv197[ebp], 22 ; 00000016H
  0026f	eb 21		 jmp	 SHORT $LN23@set_attack
$LN22@set_attack:
  00271	8b 15 00 00 00
	00		 mov	 edx, DWORD PTR ?__LINE__Var@?0??set_attack_guide_move_six_position@@YGXPAUENTITY@@@Z@4JA
  00277	83 c2 28	 add	 edx, 40			; 00000028H
  0027a	52		 push	 edx
  0027b	68 00 00 00 00	 push	 OFFSET ??_C@_0EM@DNELFJLJ@c?3?2users?2nhv90?2projects?2eech?2ap@
  00280	a1 00 00 00 00	 mov	 eax, DWORD PTR ?overload_invalid_vec3d_type_message@@3PBDB ; overload_invalid_vec3d_type_message
  00285	50		 push	 eax
  00286	e8 00 00 00 00	 call	 ?process_assert@@YGXPBD0H@Z ; process_assert
  0028b	c7 45 8c 00 00
	00 00		 mov	 DWORD PTR tv197[ebp], 0
$LN23@set_attack:
  00292	6a 16		 push	 22			; 00000016H
  00294	8b 4d d8	 mov	 ecx, DWORD PTR _target$[ebp]
  00297	51		 push	 ecx
  00298	6b 55 90 60	 imul	 edx, DWORD PTR tv189[ebp], 96
  0029c	8b 45 8c	 mov	 eax, DWORD PTR tv197[ebp]
  0029f	8b 8c 82 00 00
	00 00		 mov	 ecx, DWORD PTR ?fn_get_local_entity_vec3d_ptr@@3PAY0BI@P6GPAUVEC3D@@PAUENTITY@@W4VEC3D_TYPES@@@ZA[edx+eax*4]
  002a6	ff d1		 call	 ecx
  002a8	89 45 f4	 mov	 DWORD PTR _target_zv$[ebp], eax

; 401  : 
; 402  : 	ASSERT (target_zv);

  002ab	83 7d f4 00	 cmp	 DWORD PTR _target_zv$[ebp], 0
  002af	75 18		 jne	 SHORT $LN4@set_attack
  002b1	a1 00 00 00 00	 mov	 eax, DWORD PTR ?__LINE__Var@?0??set_attack_guide_move_six_position@@YGXPAUENTITY@@@Z@4JA
  002b6	83 c0 2a	 add	 eax, 42			; 0000002aH
  002b9	50		 push	 eax
  002ba	68 00 00 00 00	 push	 OFFSET ??_C@_0EM@DNELFJLJ@c?3?2users?2nhv90?2projects?2eech?2ap@
  002bf	68 00 00 00 00	 push	 OFFSET ??_C@_09OPKNDHOO@target_zv@
  002c4	e8 00 00 00 00	 call	 ?process_assert@@YGXPBD0H@Z ; process_assert
$LN4@set_attack:

; 403  : 
; 404  : 	position.x = target_pos->x - (target_zv->x * weapon_effective_range);

  002c9	8b 45 f4	 mov	 eax, DWORD PTR _target_zv$[ebp]
  002cc	f3 0f 10 00	 movss	 xmm0, DWORD PTR [eax]
  002d0	f3 0f 59 45 fc	 mulss	 xmm0, DWORD PTR _weapon_effective_range$[ebp]
  002d5	8b 4d f8	 mov	 ecx, DWORD PTR _target_pos$[ebp]
  002d8	f3 0f 10 09	 movss	 xmm1, DWORD PTR [ecx]
  002dc	f3 0f 5c c8	 subss	 xmm1, xmm0
  002e0	f3 0f 11 4d e8	 movss	 DWORD PTR _position$[ebp], xmm1

; 405  : 	position.z = target_pos->z - (target_zv->z * weapon_effective_range);

  002e5	8b 45 f4	 mov	 eax, DWORD PTR _target_zv$[ebp]
  002e8	f3 0f 10 40 08	 movss	 xmm0, DWORD PTR [eax+8]
  002ed	f3 0f 59 45 fc	 mulss	 xmm0, DWORD PTR _weapon_effective_range$[ebp]
  002f2	8b 4d f8	 mov	 ecx, DWORD PTR _target_pos$[ebp]
  002f5	f3 0f 10 49 08	 movss	 xmm1, DWORD PTR [ecx+8]
  002fa	f3 0f 5c c8	 subss	 xmm1, xmm0
  002fe	f3 0f 11 4d f0	 movss	 DWORD PTR _position$[ebp+8], xmm1

; 406  : 
; 407  : 	bound_position_to_adjusted_map_volume (&position);

  00303	8d 45 e8	 lea	 eax, DWORD PTR _position$[ebp]
  00306	50		 push	 eax
  00307	e8 00 00 00 00	 call	 ?bound_position_to_adjusted_map_volume@@YGHPAUVEC3D@@@Z ; bound_position_to_adjusted_map_volume

; 408  : 
; 409  : 	position.y = get_3d_terrain_elevation (position.x, position.z) + get_local_entity_float_value (aggressor, FLOAT_TYPE_CRUISE_ALTITUDE);

  0030c	83 7d dc 00	 cmp	 DWORD PTR _aggressor$[ebp], 0
  00310	74 0a		 je	 SHORT $LN24@set_attack
  00312	8b 45 dc	 mov	 eax, DWORD PTR _aggressor$[ebp]
  00315	8b 08		 mov	 ecx, DWORD PTR [eax]
  00317	89 4d 90	 mov	 DWORD PTR tv227[ebp], ecx
  0031a	eb 21		 jmp	 SHORT $LN25@set_attack
$LN24@set_attack:
  0031c	8b 15 00 00 00
	00		 mov	 edx, DWORD PTR ?__LINE__Var@?0??set_attack_guide_move_six_position@@YGXPAUENTITY@@@Z@4JA
  00322	83 c2 31	 add	 edx, 49			; 00000031H
  00325	52		 push	 edx
  00326	68 00 00 00 00	 push	 OFFSET ??_C@_0EM@DNELFJLJ@c?3?2users?2nhv90?2projects?2eech?2ap@
  0032b	a1 00 00 00 00	 mov	 eax, DWORD PTR ?null_entity_pointer_message@@3PBDB ; null_entity_pointer_message
  00330	50		 push	 eax
  00331	e8 00 00 00 00	 call	 ?process_assert@@YGXPBD0H@Z ; process_assert
  00336	c7 45 90 00 00
	00 00		 mov	 DWORD PTR tv227[ebp], 0
$LN25@set_attack:
  0033d	b9 01 00 00 00	 mov	 ecx, 1
  00342	85 c9		 test	 ecx, ecx
  00344	74 09		 je	 SHORT $LN26@set_attack
  00346	c7 45 8c 18 00
	00 00		 mov	 DWORD PTR tv235[ebp], 24 ; 00000018H
  0034d	eb 21		 jmp	 SHORT $LN27@set_attack
$LN26@set_attack:
  0034f	8b 15 00 00 00
	00		 mov	 edx, DWORD PTR ?__LINE__Var@?0??set_attack_guide_move_six_position@@YGXPAUENTITY@@@Z@4JA
  00355	83 c2 31	 add	 edx, 49			; 00000031H
  00358	52		 push	 edx
  00359	68 00 00 00 00	 push	 OFFSET ??_C@_0EM@DNELFJLJ@c?3?2users?2nhv90?2projects?2eech?2ap@
  0035e	a1 00 00 00 00	 mov	 eax, DWORD PTR ?overload_invalid_float_type_message@@3PBDB ; overload_invalid_float_type_message
  00363	50		 push	 eax
  00364	e8 00 00 00 00	 call	 ?process_assert@@YGXPBD0H@Z ; process_assert
  00369	c7 45 8c 00 00
	00 00		 mov	 DWORD PTR tv235[ebp], 0
$LN27@set_attack:
  00370	6a 00		 push	 0
  00372	51		 push	 ecx
  00373	f3 0f 10 45 f0	 movss	 xmm0, DWORD PTR _position$[ebp+8]
  00378	f3 0f 11 04 24	 movss	 DWORD PTR [esp], xmm0
  0037d	51		 push	 ecx
  0037e	f3 0f 10 45 e8	 movss	 xmm0, DWORD PTR _position$[ebp]
  00383	f3 0f 11 04 24	 movss	 DWORD PTR [esp], xmm0
  00388	e8 00 00 00 00	 call	 ?get_3d_terrain_point_data@@YGMMMPAUTERRAIN_3D_POINT_DATA@@@Z ; get_3d_terrain_point_data
  0038d	d9 5d 88	 fstp	 DWORD PTR tv341[ebp]
  00390	f3 0f 10 45 88	 movss	 xmm0, DWORD PTR tv341[ebp]
  00395	6a 18		 push	 24			; 00000018H
  00397	8b 4d dc	 mov	 ecx, DWORD PTR _aggressor$[ebp]
  0039a	51		 push	 ecx
  0039b	69 55 90 bc 02
	00 00		 imul	 edx, DWORD PTR tv227[ebp], 700
  003a2	8b 45 8c	 mov	 eax, DWORD PTR tv235[ebp]
  003a5	8b 8c 82 00 00
	00 00		 mov	 ecx, DWORD PTR ?fn_get_local_entity_float_value@@3PAY0KP@P6GMPAUENTITY@@W4FLOAT_TYPES@@@ZA[edx+eax*4]
  003ac	f3 0f 11 45 84	 movss	 DWORD PTR tv365[ebp], xmm0
  003b1	ff d1		 call	 ecx
  003b3	d9 5d 80	 fstp	 DWORD PTR tv348[ebp]
  003b6	f3 0f 10 45 84	 movss	 xmm0, DWORD PTR tv365[ebp]
  003bb	f3 0f 58 45 80	 addss	 xmm0, DWORD PTR tv348[ebp]
  003c0	f3 0f 11 45 ec	 movss	 DWORD PTR _position$[ebp+4], xmm0

; 410  : 
; 411  : 	set_client_server_guide_entity_new_position (en, &position, NULL);

  003c5	6a 00		 push	 0
  003c7	8d 45 e8	 lea	 eax, DWORD PTR _position$[ebp]
  003ca	50		 push	 eax
  003cb	8b 4d 08	 mov	 ecx, DWORD PTR _en$[ebp]
  003ce	51		 push	 ecx
  003cf	e8 00 00 00 00	 call	 ?set_client_server_guide_entity_new_position@@YGXPAUENTITY@@PAUVEC3D@@0@Z ; set_client_server_guide_entity_new_position

; 412  : 
; 413  : 	set_client_server_guide_criteria_valid (en, GUIDE_CRITERIA_RADIUS, TRUE, get_local_entity_waypoint_database_reached_radius_value (wp, aggressor));

  003d4	8b 45 dc	 mov	 eax, DWORD PTR _aggressor$[ebp]
  003d7	50		 push	 eax
  003d8	8b 4d e4	 mov	 ecx, DWORD PTR _wp$[ebp]
  003db	51		 push	 ecx
  003dc	e8 00 00 00 00	 call	 ?get_local_entity_waypoint_database_reached_radius_value@@YGMPAUENTITY@@0@Z ; get_local_entity_waypoint_database_reached_radius_value
  003e1	51		 push	 ecx
  003e2	d9 1c 24	 fstp	 DWORD PTR [esp]
  003e5	6a 01		 push	 1
  003e7	6a 00		 push	 0
  003e9	8b 55 08	 mov	 edx, DWORD PTR _en$[ebp]
  003ec	52		 push	 edx
  003ed	e8 00 00 00 00	 call	 ?set_client_server_guide_criteria_valid@@YGXPAUENTITY@@W4GUIDE_CRITERIA_TYPES@@HM@Z ; set_client_server_guide_criteria_valid

; 414  : 
; 415  : 	set_client_server_guide_criteria_valid (en, GUIDE_CRITERIA_HEADING, FALSE, 0.0);

  003f2	51		 push	 ecx
  003f3	0f 57 c0	 xorps	 xmm0, xmm0
  003f6	f3 0f 11 04 24	 movss	 DWORD PTR [esp], xmm0
  003fb	6a 00		 push	 0
  003fd	6a 01		 push	 1
  003ff	8b 45 08	 mov	 eax, DWORD PTR _en$[ebp]
  00402	50		 push	 eax
  00403	e8 00 00 00 00	 call	 ?set_client_server_guide_criteria_valid@@YGXPAUENTITY@@W4GUIDE_CRITERIA_TYPES@@HM@Z ; set_client_server_guide_criteria_valid

; 416  : 
; 417  : 	set_client_server_guide_criteria_valid (en, GUIDE_CRITERIA_WEAPON_VECTOR, FALSE, 0.0);

  00408	51		 push	 ecx
  00409	0f 57 c0	 xorps	 xmm0, xmm0
  0040c	f3 0f 11 04 24	 movss	 DWORD PTR [esp], xmm0
  00411	6a 00		 push	 0
  00413	6a 05		 push	 5
  00415	8b 45 08	 mov	 eax, DWORD PTR _en$[ebp]
  00418	50		 push	 eax
  00419	e8 00 00 00 00	 call	 ?set_client_server_guide_criteria_valid@@YGXPAUENTITY@@W4GUIDE_CRITERIA_TYPES@@HM@Z ; set_client_server_guide_criteria_valid

; 418  : }

  0041e	5f		 pop	 edi
  0041f	5e		 pop	 esi
  00420	5b		 pop	 ebx
  00421	8b e5		 mov	 esp, ebp
  00423	5d		 pop	 ebp
  00424	c2 04 00	 ret	 4
?set_attack_guide_move_six_position@@YGXPAUENTITY@@@Z ENDP ; set_attack_guide_move_six_position
_TEXT	ENDS
; Function compile flags: /Odtp /ZI
; File c:\users\nhv90\projects\eech\aphavoc\source\entity\special\guide\aa_attck.c
;	COMDAT ?attack_guide_fire_intercept_reached@@YGXPAUENTITY@@@Z
_TEXT	SEGMENT
tv427 = -144						; size = 8
tv412 = -144						; size = 8
tv345 = -136						; size = 4
tv311 = -136						; size = 4
tv290 = -136						; size = 4
tv256 = -136						; size = 4
tv231 = -136						; size = 4
tv210 = -136						; size = 4
tv187 = -136						; size = 4
tv164 = -136						; size = 4
tv143 = -136						; size = 4
tv81 = -136						; size = 4
tv488 = -132						; size = 4
tv375 = -132						; size = 4
tv337 = -132						; size = 4
tv303 = -132						; size = 4
tv283 = -132						; size = 4
tv248 = -132						; size = 4
tv223 = -132						; size = 4
tv203 = -132						; size = 4
tv179 = -132						; size = 4
tv157 = -132						; size = 4
tv136 = -132						; size = 4
tv129 = -132						; size = 4
tv74 = -132						; size = 4
_seed$1 = -64						; size = 4
_altitude$2 = -60					; size = 4
_min_alt$3 = -56					; size = 4
_launch_angle_error$ = -52				; size = 4
_terrain_elevation$ = -48				; size = 4
_distance$ = -44					; size = 4
_weapon_to_target_vector$ = -40				; size = 4
_weapon_vector$ = -36					; size = 4
_position$ = -32					; size = 12
_selected_weapon$ = -20					; size = 4
_target$ = -16						; size = 4
_aggressor$ = -12					; size = 4
_task$ = -8						; size = 4
_wp$ = -4						; size = 4
_en$ = 8						; size = 4
?attack_guide_fire_intercept_reached@@YGXPAUENTITY@@@Z PROC ; attack_guide_fire_intercept_reached, COMDAT

; 181  : {

  00000	55		 push	 ebp
  00001	8b ec		 mov	 ebp, esp
  00003	81 ec 90 00 00
	00		 sub	 esp, 144		; 00000090H
  00009	53		 push	 ebx
  0000a	56		 push	 esi
  0000b	57		 push	 edi

; 182  : 	entity
; 183  : 		*wp,
; 184  : 		*task,
; 185  : 		*aggressor,
; 186  : 		*target;
; 187  : 
; 188  : 	entity_sub_types
; 189  : 		selected_weapon;
; 190  : 
; 191  : 	vec3d
; 192  : 		position,
; 193  : 		*weapon_vector,
; 194  : 		*weapon_to_target_vector;
; 195  : 
; 196  : 	float
; 197  : 		distance,
; 198  : 		terrain_elevation,
; 199  : 		launch_angle_error;
; 200  : 		
; 201  : 	get_local_guide_entity_pointers (en, &aggressor, &wp, &task, &target);

  0000c	8d 45 f0	 lea	 eax, DWORD PTR _target$[ebp]
  0000f	50		 push	 eax
  00010	8d 4d f8	 lea	 ecx, DWORD PTR _task$[ebp]
  00013	51		 push	 ecx
  00014	8d 55 fc	 lea	 edx, DWORD PTR _wp$[ebp]
  00017	52		 push	 edx
  00018	8d 45 f4	 lea	 eax, DWORD PTR _aggressor$[ebp]
  0001b	50		 push	 eax
  0001c	8b 4d 08	 mov	 ecx, DWORD PTR _en$[ebp]
  0001f	51		 push	 ecx
  00020	e8 00 00 00 00	 call	 ?get_local_guide_entity_pointers@@YGXPAUENTITY@@PAPAU1@111@Z ; get_local_guide_entity_pointers

; 202  : 
; 203  : 	if (get_local_entity_int_value (aggressor, INT_TYPE_WEAPONS_HOLD))

  00025	83 7d f4 00	 cmp	 DWORD PTR _aggressor$[ebp], 0
  00029	74 0d		 je	 SHORT $LN20@attack_gui
  0002b	8b 45 f4	 mov	 eax, DWORD PTR _aggressor$[ebp]
  0002e	8b 08		 mov	 ecx, DWORD PTR [eax]
  00030	89 8d 7c ff ff
	ff		 mov	 DWORD PTR tv74[ebp], ecx
  00036	eb 20		 jmp	 SHORT $LN21@attack_gui
$LN20@attack_gui:
  00038	68 cb 00 00 00	 push	 203			; 000000cbH
  0003d	68 00 00 00 00	 push	 OFFSET ??_C@_0EM@DNELFJLJ@c?3?2users?2nhv90?2projects?2eech?2ap@
  00042	8b 15 00 00 00
	00		 mov	 edx, DWORD PTR ?null_entity_pointer_message@@3PBDB ; null_entity_pointer_message
  00048	52		 push	 edx
  00049	e8 00 00 00 00	 call	 ?process_assert@@YGXPBD0H@Z ; process_assert
  0004e	c7 85 7c ff ff
	ff 00 00 00 00	 mov	 DWORD PTR tv74[ebp], 0
$LN21@attack_gui:
  00058	b8 01 00 00 00	 mov	 eax, 1
  0005d	85 c0		 test	 eax, eax
  0005f	74 0c		 je	 SHORT $LN22@attack_gui
  00061	c7 85 78 ff ff
	ff 11 01 00 00	 mov	 DWORD PTR tv81[ebp], 273 ; 00000111H
  0006b	eb 20		 jmp	 SHORT $LN23@attack_gui
$LN22@attack_gui:
  0006d	68 cb 00 00 00	 push	 203			; 000000cbH
  00072	68 00 00 00 00	 push	 OFFSET ??_C@_0EM@DNELFJLJ@c?3?2users?2nhv90?2projects?2eech?2ap@
  00077	8b 0d 00 00 00
	00		 mov	 ecx, DWORD PTR ?overload_invalid_int_type_message@@3PBDB ; overload_invalid_int_type_message
  0007d	51		 push	 ecx
  0007e	e8 00 00 00 00	 call	 ?process_assert@@YGXPBD0H@Z ; process_assert
  00083	c7 85 78 ff ff
	ff 00 00 00 00	 mov	 DWORD PTR tv81[ebp], 0
$LN23@attack_gui:
  0008d	68 11 01 00 00	 push	 273			; 00000111H
  00092	8b 55 f4	 mov	 edx, DWORD PTR _aggressor$[ebp]
  00095	52		 push	 edx
  00096	69 85 7c ff ff
	ff 5c 04 00 00	 imul	 eax, DWORD PTR tv74[ebp], 1116
  000a0	8b 8d 78 ff ff
	ff		 mov	 ecx, DWORD PTR tv81[ebp]
  000a6	8b 94 88 00 00
	00 00		 mov	 edx, DWORD PTR ?fn_get_local_entity_int_value@@3PAY0BBH@P6GHPAUENTITY@@W4INT_TYPES@@@ZA[eax+ecx*4]
  000ad	ff d2		 call	 edx
  000af	85 c0		 test	 eax, eax
  000b1	74 21		 je	 SHORT $LN2@attack_gui

; 204  : 	{
; 205  : 		debug_log ("AA_ATTCK: Aborting attack - weapons hold (fire intercept)");

  000b3	68 00 00 00 00	 push	 OFFSET ??_C@_0DK@MMONIJIE@AA_ATTCK?3?5Aborting?5attack?5?9?5wea@
  000b8	e8 00 00 00 00	 call	 ?debug_log@@YAXPBDZZ	; debug_log
  000bd	83 c4 04	 add	 esp, 4

; 206  : 
; 207  : 		delete_group_member_from_engage_guide (aggressor, en, FALSE);

  000c0	6a 00		 push	 0
  000c2	8b 45 08	 mov	 eax, DWORD PTR _en$[ebp]
  000c5	50		 push	 eax
  000c6	8b 4d f4	 mov	 ecx, DWORD PTR _aggressor$[ebp]
  000c9	51		 push	 ecx
  000ca	e8 00 00 00 00	 call	 ?delete_group_member_from_engage_guide@@YGXPAUENTITY@@0H@Z ; delete_group_member_from_engage_guide

; 208  : 
; 209  : 		return;

  000cf	e9 a3 07 00 00	 jmp	 $LN1@attack_gui
$LN2@attack_gui:

; 210  : 	}
; 211  : 	
; 212  : 	//
; 213  : 	// Check if too close
; 214  : 	//
; 215  : 
; 216  : 	if (get_local_entity_type (aggressor) == ENTITY_TYPE_FIXED_WING)

  000d4	83 7d f4 00	 cmp	 DWORD PTR _aggressor$[ebp], 0
  000d8	74 0d		 je	 SHORT $LN24@attack_gui
  000da	8b 45 f4	 mov	 eax, DWORD PTR _aggressor$[ebp]
  000dd	8b 08		 mov	 ecx, DWORD PTR [eax]
  000df	89 8d 7c ff ff
	ff		 mov	 DWORD PTR tv129[ebp], ecx
  000e5	eb 20		 jmp	 SHORT $LN25@attack_gui
$LN24@attack_gui:
  000e7	68 d8 00 00 00	 push	 216			; 000000d8H
  000ec	68 00 00 00 00	 push	 OFFSET ??_C@_0EM@DNELFJLJ@c?3?2users?2nhv90?2projects?2eech?2ap@
  000f1	8b 15 00 00 00
	00		 mov	 edx, DWORD PTR ?null_entity_pointer_message@@3PBDB ; null_entity_pointer_message
  000f7	52		 push	 edx
  000f8	e8 00 00 00 00	 call	 ?process_assert@@YGXPBD0H@Z ; process_assert
  000fd	c7 85 7c ff ff
	ff 00 00 00 00	 mov	 DWORD PTR tv129[ebp], 0
$LN25@attack_gui:
  00107	83 bd 7c ff ff
	ff 0a		 cmp	 DWORD PTR tv129[ebp], 10 ; 0000000aH
  0010e	0f 85 b2 00 00
	00		 jne	 $LN3@attack_gui

; 217  : 	{
; 218  : 		if (get_local_entity_float_value (aggressor, FLOAT_TYPE_DISTANCE) < 400.0)

  00114	83 7d f4 00	 cmp	 DWORD PTR _aggressor$[ebp], 0
  00118	74 0d		 je	 SHORT $LN26@attack_gui
  0011a	8b 45 f4	 mov	 eax, DWORD PTR _aggressor$[ebp]
  0011d	8b 08		 mov	 ecx, DWORD PTR [eax]
  0011f	89 8d 7c ff ff
	ff		 mov	 DWORD PTR tv136[ebp], ecx
  00125	eb 20		 jmp	 SHORT $LN27@attack_gui
$LN26@attack_gui:
  00127	68 da 00 00 00	 push	 218			; 000000daH
  0012c	68 00 00 00 00	 push	 OFFSET ??_C@_0EM@DNELFJLJ@c?3?2users?2nhv90?2projects?2eech?2ap@
  00131	8b 15 00 00 00
	00		 mov	 edx, DWORD PTR ?null_entity_pointer_message@@3PBDB ; null_entity_pointer_message
  00137	52		 push	 edx
  00138	e8 00 00 00 00	 call	 ?process_assert@@YGXPBD0H@Z ; process_assert
  0013d	c7 85 7c ff ff
	ff 00 00 00 00	 mov	 DWORD PTR tv136[ebp], 0
$LN27@attack_gui:
  00147	b8 01 00 00 00	 mov	 eax, 1
  0014c	85 c0		 test	 eax, eax
  0014e	74 0c		 je	 SHORT $LN28@attack_gui
  00150	c7 85 78 ff ff
	ff 1f 00 00 00	 mov	 DWORD PTR tv143[ebp], 31 ; 0000001fH
  0015a	eb 20		 jmp	 SHORT $LN29@attack_gui
$LN28@attack_gui:
  0015c	68 da 00 00 00	 push	 218			; 000000daH
  00161	68 00 00 00 00	 push	 OFFSET ??_C@_0EM@DNELFJLJ@c?3?2users?2nhv90?2projects?2eech?2ap@
  00166	8b 0d 00 00 00
	00		 mov	 ecx, DWORD PTR ?overload_invalid_float_type_message@@3PBDB ; overload_invalid_float_type_message
  0016c	51		 push	 ecx
  0016d	e8 00 00 00 00	 call	 ?process_assert@@YGXPBD0H@Z ; process_assert
  00172	c7 85 78 ff ff
	ff 00 00 00 00	 mov	 DWORD PTR tv143[ebp], 0
$LN29@attack_gui:
  0017c	6a 1f		 push	 31			; 0000001fH
  0017e	8b 55 f4	 mov	 edx, DWORD PTR _aggressor$[ebp]
  00181	52		 push	 edx
  00182	69 85 7c ff ff
	ff bc 02 00 00	 imul	 eax, DWORD PTR tv136[ebp], 700
  0018c	8b 8d 78 ff ff
	ff		 mov	 ecx, DWORD PTR tv143[ebp]
  00192	8b 94 88 00 00
	00 00		 mov	 edx, DWORD PTR ?fn_get_local_entity_float_value@@3PAY0KP@P6GMPAUENTITY@@W4FLOAT_TYPES@@@ZA[eax+ecx*4]
  00199	ff d2		 call	 edx
  0019b	dd 9d 70 ff ff
	ff		 fstp	 QWORD PTR tv412[ebp]
  001a1	f2 0f 10 05 00
	00 00 00	 movsd	 xmm0, QWORD PTR __real@4079000000000000
  001a9	66 0f 2f 85 70
	ff ff ff	 comisd	 xmm0, QWORD PTR tv412[ebp]
  001b1	76 0e		 jbe	 SHORT $LN5@attack_gui

; 219  : 		{
; 220  : 			//
; 221  : 			// set MOVE SIX position
; 222  : 			//
; 223  : 
; 224  : 			set_attack_guide_move_six_position (en);

  001b3	8b 45 08	 mov	 eax, DWORD PTR _en$[ebp]
  001b6	50		 push	 eax
  001b7	e8 00 00 00 00	 call	 ?set_attack_guide_move_six_position@@YGXPAUENTITY@@@Z ; set_attack_guide_move_six_position

; 225  : 
; 226  : 			return;

  001bc	e9 b6 06 00 00	 jmp	 $LN1@attack_gui
$LN5@attack_gui:

; 227  : 		}
; 228  : 	}
; 229  : 	else

  001c1	e9 ad 00 00 00	 jmp	 $LN6@attack_gui
$LN3@attack_gui:

; 230  : 	{
; 231  : 		if (get_local_entity_float_value (aggressor, FLOAT_TYPE_DISTANCE) < 200.0)

  001c6	83 7d f4 00	 cmp	 DWORD PTR _aggressor$[ebp], 0
  001ca	74 0d		 je	 SHORT $LN30@attack_gui
  001cc	8b 45 f4	 mov	 eax, DWORD PTR _aggressor$[ebp]
  001cf	8b 08		 mov	 ecx, DWORD PTR [eax]
  001d1	89 8d 7c ff ff
	ff		 mov	 DWORD PTR tv157[ebp], ecx
  001d7	eb 20		 jmp	 SHORT $LN31@attack_gui
$LN30@attack_gui:
  001d9	68 e7 00 00 00	 push	 231			; 000000e7H
  001de	68 00 00 00 00	 push	 OFFSET ??_C@_0EM@DNELFJLJ@c?3?2users?2nhv90?2projects?2eech?2ap@
  001e3	8b 15 00 00 00
	00		 mov	 edx, DWORD PTR ?null_entity_pointer_message@@3PBDB ; null_entity_pointer_message
  001e9	52		 push	 edx
  001ea	e8 00 00 00 00	 call	 ?process_assert@@YGXPBD0H@Z ; process_assert
  001ef	c7 85 7c ff ff
	ff 00 00 00 00	 mov	 DWORD PTR tv157[ebp], 0
$LN31@attack_gui:
  001f9	b8 01 00 00 00	 mov	 eax, 1
  001fe	85 c0		 test	 eax, eax
  00200	74 0c		 je	 SHORT $LN32@attack_gui
  00202	c7 85 78 ff ff
	ff 1f 00 00 00	 mov	 DWORD PTR tv164[ebp], 31 ; 0000001fH
  0020c	eb 20		 jmp	 SHORT $LN33@attack_gui
$LN32@attack_gui:
  0020e	68 e7 00 00 00	 push	 231			; 000000e7H
  00213	68 00 00 00 00	 push	 OFFSET ??_C@_0EM@DNELFJLJ@c?3?2users?2nhv90?2projects?2eech?2ap@
  00218	8b 0d 00 00 00
	00		 mov	 ecx, DWORD PTR ?overload_invalid_float_type_message@@3PBDB ; overload_invalid_float_type_message
  0021e	51		 push	 ecx
  0021f	e8 00 00 00 00	 call	 ?process_assert@@YGXPBD0H@Z ; process_assert
  00224	c7 85 78 ff ff
	ff 00 00 00 00	 mov	 DWORD PTR tv164[ebp], 0
$LN33@attack_gui:
  0022e	6a 1f		 push	 31			; 0000001fH
  00230	8b 55 f4	 mov	 edx, DWORD PTR _aggressor$[ebp]
  00233	52		 push	 edx
  00234	69 85 7c ff ff
	ff bc 02 00 00	 imul	 eax, DWORD PTR tv157[ebp], 700
  0023e	8b 8d 78 ff ff
	ff		 mov	 ecx, DWORD PTR tv164[ebp]
  00244	8b 94 88 00 00
	00 00		 mov	 edx, DWORD PTR ?fn_get_local_entity_float_value@@3PAY0KP@P6GMPAUENTITY@@W4FLOAT_TYPES@@@ZA[eax+ecx*4]
  0024b	ff d2		 call	 edx
  0024d	dd 9d 70 ff ff
	ff		 fstp	 QWORD PTR tv427[ebp]
  00253	f2 0f 10 05 00
	00 00 00	 movsd	 xmm0, QWORD PTR __real@4069000000000000
  0025b	66 0f 2f 85 70
	ff ff ff	 comisd	 xmm0, QWORD PTR tv427[ebp]
  00263	76 0e		 jbe	 SHORT $LN6@attack_gui

; 232  : 		{
; 233  : 			//
; 234  : 			// set MOVE CIRCLE position
; 235  : 			//
; 236  : 
; 237  : 			set_attack_guide_move_circle_position (en);

  00265	8b 45 08	 mov	 eax, DWORD PTR _en$[ebp]
  00268	50		 push	 eax
  00269	e8 00 00 00 00	 call	 ?set_attack_guide_move_circle_position@@YGXPAUENTITY@@@Z ; set_attack_guide_move_circle_position

; 238  : 
; 239  : 			return;

  0026e	e9 04 06 00 00	 jmp	 $LN1@attack_gui
$LN6@attack_gui:

; 240  : 		}
; 241  : 	}
; 242  : 
; 243  : 	//
; 244  : 	// check weapon vector
; 245  : 	//
; 246  : 
; 247  : 	selected_weapon = get_local_entity_int_value (aggressor, INT_TYPE_SELECTED_WEAPON);

  00273	83 7d f4 00	 cmp	 DWORD PTR _aggressor$[ebp], 0
  00277	74 0d		 je	 SHORT $LN34@attack_gui
  00279	8b 45 f4	 mov	 eax, DWORD PTR _aggressor$[ebp]
  0027c	8b 08		 mov	 ecx, DWORD PTR [eax]
  0027e	89 8d 7c ff ff
	ff		 mov	 DWORD PTR tv179[ebp], ecx
  00284	eb 24		 jmp	 SHORT $LN35@attack_gui
$LN34@attack_gui:
  00286	8b 15 00 00 00
	00		 mov	 edx, DWORD PTR ?__LINE__Var@?0??attack_guide_fire_intercept_reached@@YGXPAUENTITY@@@Z@4JA
  0028c	83 c2 42	 add	 edx, 66			; 00000042H
  0028f	52		 push	 edx
  00290	68 00 00 00 00	 push	 OFFSET ??_C@_0EM@DNELFJLJ@c?3?2users?2nhv90?2projects?2eech?2ap@
  00295	a1 00 00 00 00	 mov	 eax, DWORD PTR ?null_entity_pointer_message@@3PBDB ; null_entity_pointer_message
  0029a	50		 push	 eax
  0029b	e8 00 00 00 00	 call	 ?process_assert@@YGXPBD0H@Z ; process_assert
  002a0	c7 85 7c ff ff
	ff 00 00 00 00	 mov	 DWORD PTR tv179[ebp], 0
$LN35@attack_gui:
  002aa	b9 01 00 00 00	 mov	 ecx, 1
  002af	85 c9		 test	 ecx, ecx
  002b1	74 0c		 je	 SHORT $LN36@attack_gui
  002b3	c7 85 78 ff ff
	ff b8 00 00 00	 mov	 DWORD PTR tv187[ebp], 184 ; 000000b8H
  002bd	eb 24		 jmp	 SHORT $LN37@attack_gui
$LN36@attack_gui:
  002bf	8b 15 00 00 00
	00		 mov	 edx, DWORD PTR ?__LINE__Var@?0??attack_guide_fire_intercept_reached@@YGXPAUENTITY@@@Z@4JA
  002c5	83 c2 42	 add	 edx, 66			; 00000042H
  002c8	52		 push	 edx
  002c9	68 00 00 00 00	 push	 OFFSET ??_C@_0EM@DNELFJLJ@c?3?2users?2nhv90?2projects?2eech?2ap@
  002ce	a1 00 00 00 00	 mov	 eax, DWORD PTR ?overload_invalid_int_type_message@@3PBDB ; overload_invalid_int_type_message
  002d3	50		 push	 eax
  002d4	e8 00 00 00 00	 call	 ?process_assert@@YGXPBD0H@Z ; process_assert
  002d9	c7 85 78 ff ff
	ff 00 00 00 00	 mov	 DWORD PTR tv187[ebp], 0
$LN37@attack_gui:
  002e3	68 b8 00 00 00	 push	 184			; 000000b8H
  002e8	8b 4d f4	 mov	 ecx, DWORD PTR _aggressor$[ebp]
  002eb	51		 push	 ecx
  002ec	69 95 7c ff ff
	ff 5c 04 00 00	 imul	 edx, DWORD PTR tv179[ebp], 1116
  002f6	8b 85 78 ff ff
	ff		 mov	 eax, DWORD PTR tv187[ebp]
  002fc	8b 8c 82 00 00
	00 00		 mov	 ecx, DWORD PTR ?fn_get_local_entity_int_value@@3PAY0BBH@P6GHPAUENTITY@@W4INT_TYPES@@@ZA[edx+eax*4]
  00303	ff d1		 call	 ecx
  00305	89 45 ec	 mov	 DWORD PTR _selected_weapon$[ebp], eax

; 248  : 
; 249  : 	ASSERT (selected_weapon != ENTITY_SUB_TYPE_WEAPON_NO_WEAPON);

  00308	83 7d ec 00	 cmp	 DWORD PTR _selected_weapon$[ebp], 0
  0030c	75 18		 jne	 SHORT $LN7@attack_gui
  0030e	a1 00 00 00 00	 mov	 eax, DWORD PTR ?__LINE__Var@?0??attack_guide_fire_intercept_reached@@YGXPAUENTITY@@@Z@4JA
  00313	83 c0 44	 add	 eax, 68			; 00000044H
  00316	50		 push	 eax
  00317	68 00 00 00 00	 push	 OFFSET ??_C@_0EM@DNELFJLJ@c?3?2users?2nhv90?2projects?2eech?2ap@
  0031c	68 00 00 00 00	 push	 OFFSET ??_C@_0DE@FBJGKGOB@selected_weapon?5?$CB?$DN?5ENTITY_SUB_T@
  00321	e8 00 00 00 00	 call	 ?process_assert@@YGXPBD0H@Z ; process_assert
$LN7@attack_gui:

; 250  : 
; 251  : 	if (get_local_entity_int_value (aggressor, INT_TYPE_WEAPON_AND_TARGET_VECTORS_VALID))

  00326	83 7d f4 00	 cmp	 DWORD PTR _aggressor$[ebp], 0
  0032a	74 0d		 je	 SHORT $LN38@attack_gui
  0032c	8b 45 f4	 mov	 eax, DWORD PTR _aggressor$[ebp]
  0032f	8b 08		 mov	 ecx, DWORD PTR [eax]
  00331	89 8d 7c ff ff
	ff		 mov	 DWORD PTR tv203[ebp], ecx
  00337	eb 20		 jmp	 SHORT $LN39@attack_gui
$LN38@attack_gui:
  00339	68 fb 00 00 00	 push	 251			; 000000fbH
  0033e	68 00 00 00 00	 push	 OFFSET ??_C@_0EM@DNELFJLJ@c?3?2users?2nhv90?2projects?2eech?2ap@
  00343	8b 15 00 00 00
	00		 mov	 edx, DWORD PTR ?null_entity_pointer_message@@3PBDB ; null_entity_pointer_message
  00349	52		 push	 edx
  0034a	e8 00 00 00 00	 call	 ?process_assert@@YGXPBD0H@Z ; process_assert
  0034f	c7 85 7c ff ff
	ff 00 00 00 00	 mov	 DWORD PTR tv203[ebp], 0
$LN39@attack_gui:
  00359	b8 01 00 00 00	 mov	 eax, 1
  0035e	85 c0		 test	 eax, eax
  00360	74 0c		 je	 SHORT $LN40@attack_gui
  00362	c7 85 78 ff ff
	ff 02 01 00 00	 mov	 DWORD PTR tv210[ebp], 258 ; 00000102H
  0036c	eb 20		 jmp	 SHORT $LN41@attack_gui
$LN40@attack_gui:
  0036e	68 fb 00 00 00	 push	 251			; 000000fbH
  00373	68 00 00 00 00	 push	 OFFSET ??_C@_0EM@DNELFJLJ@c?3?2users?2nhv90?2projects?2eech?2ap@
  00378	8b 0d 00 00 00
	00		 mov	 ecx, DWORD PTR ?overload_invalid_int_type_message@@3PBDB ; overload_invalid_int_type_message
  0037e	51		 push	 ecx
  0037f	e8 00 00 00 00	 call	 ?process_assert@@YGXPBD0H@Z ; process_assert
  00384	c7 85 78 ff ff
	ff 00 00 00 00	 mov	 DWORD PTR tv210[ebp], 0
$LN41@attack_gui:
  0038e	68 02 01 00 00	 push	 258			; 00000102H
  00393	8b 55 f4	 mov	 edx, DWORD PTR _aggressor$[ebp]
  00396	52		 push	 edx
  00397	69 85 7c ff ff
	ff 5c 04 00 00	 imul	 eax, DWORD PTR tv203[ebp], 1116
  003a1	8b 8d 78 ff ff
	ff		 mov	 ecx, DWORD PTR tv210[ebp]
  003a7	8b 94 88 00 00
	00 00		 mov	 edx, DWORD PTR ?fn_get_local_entity_int_value@@3PAY0BBH@P6GHPAUENTITY@@W4INT_TYPES@@@ZA[eax+ecx*4]
  003ae	ff d2		 call	 edx
  003b0	85 c0		 test	 eax, eax
  003b2	0f 84 48 03 00
	00		 je	 $LN8@attack_gui

; 252  : 	{
; 253  : 		weapon_vector = get_local_entity_vec3d_ptr (aggressor, VEC3D_TYPE_WEAPON_VECTOR);

  003b8	83 7d f4 00	 cmp	 DWORD PTR _aggressor$[ebp], 0
  003bc	74 0d		 je	 SHORT $LN42@attack_gui
  003be	8b 45 f4	 mov	 eax, DWORD PTR _aggressor$[ebp]
  003c1	8b 08		 mov	 ecx, DWORD PTR [eax]
  003c3	89 8d 7c ff ff
	ff		 mov	 DWORD PTR tv223[ebp], ecx
  003c9	eb 24		 jmp	 SHORT $LN43@attack_gui
$LN42@attack_gui:
  003cb	8b 15 00 00 00
	00		 mov	 edx, DWORD PTR ?__LINE__Var@?0??attack_guide_fire_intercept_reached@@YGXPAUENTITY@@@Z@4JA
  003d1	83 c2 48	 add	 edx, 72			; 00000048H
  003d4	52		 push	 edx
  003d5	68 00 00 00 00	 push	 OFFSET ??_C@_0EM@DNELFJLJ@c?3?2users?2nhv90?2projects?2eech?2ap@
  003da	a1 00 00 00 00	 mov	 eax, DWORD PTR ?null_entity_pointer_message@@3PBDB ; null_entity_pointer_message
  003df	50		 push	 eax
  003e0	e8 00 00 00 00	 call	 ?process_assert@@YGXPBD0H@Z ; process_assert
  003e5	c7 85 7c ff ff
	ff 00 00 00 00	 mov	 DWORD PTR tv223[ebp], 0
$LN43@attack_gui:
  003ef	b9 01 00 00 00	 mov	 ecx, 1
  003f4	85 c9		 test	 ecx, ecx
  003f6	74 0c		 je	 SHORT $LN44@attack_gui
  003f8	c7 85 78 ff ff
	ff 0e 00 00 00	 mov	 DWORD PTR tv231[ebp], 14 ; 0000000eH
  00402	eb 24		 jmp	 SHORT $LN45@attack_gui
$LN44@attack_gui:
  00404	8b 15 00 00 00
	00		 mov	 edx, DWORD PTR ?__LINE__Var@?0??attack_guide_fire_intercept_reached@@YGXPAUENTITY@@@Z@4JA
  0040a	83 c2 48	 add	 edx, 72			; 00000048H
  0040d	52		 push	 edx
  0040e	68 00 00 00 00	 push	 OFFSET ??_C@_0EM@DNELFJLJ@c?3?2users?2nhv90?2projects?2eech?2ap@
  00413	a1 00 00 00 00	 mov	 eax, DWORD PTR ?overload_invalid_vec3d_type_message@@3PBDB ; overload_invalid_vec3d_type_message
  00418	50		 push	 eax
  00419	e8 00 00 00 00	 call	 ?process_assert@@YGXPBD0H@Z ; process_assert
  0041e	c7 85 78 ff ff
	ff 00 00 00 00	 mov	 DWORD PTR tv231[ebp], 0
$LN45@attack_gui:
  00428	6a 0e		 push	 14			; 0000000eH
  0042a	8b 4d f4	 mov	 ecx, DWORD PTR _aggressor$[ebp]
  0042d	51		 push	 ecx
  0042e	6b 95 7c ff ff
	ff 60		 imul	 edx, DWORD PTR tv223[ebp], 96
  00435	8b 85 78 ff ff
	ff		 mov	 eax, DWORD PTR tv231[ebp]
  0043b	8b 8c 82 00 00
	00 00		 mov	 ecx, DWORD PTR ?fn_get_local_entity_vec3d_ptr@@3PAY0BI@P6GPAUVEC3D@@PAUENTITY@@W4VEC3D_TYPES@@@ZA[edx+eax*4]
  00442	ff d1		 call	 ecx
  00444	89 45 dc	 mov	 DWORD PTR _weapon_vector$[ebp], eax

; 254  : 
; 255  : 		ASSERT (weapon_vector);

  00447	83 7d dc 00	 cmp	 DWORD PTR _weapon_vector$[ebp], 0
  0044b	75 18		 jne	 SHORT $LN10@attack_gui
  0044d	a1 00 00 00 00	 mov	 eax, DWORD PTR ?__LINE__Var@?0??attack_guide_fire_intercept_reached@@YGXPAUENTITY@@@Z@4JA
  00452	83 c0 4a	 add	 eax, 74			; 0000004aH
  00455	50		 push	 eax
  00456	68 00 00 00 00	 push	 OFFSET ??_C@_0EM@DNELFJLJ@c?3?2users?2nhv90?2projects?2eech?2ap@
  0045b	68 00 00 00 00	 push	 OFFSET ??_C@_0O@HEGILGAC@weapon_vector@
  00460	e8 00 00 00 00	 call	 ?process_assert@@YGXPBD0H@Z ; process_assert
$LN10@attack_gui:

; 256  : 
; 257  : 		//
; 258  : 		// Check launch angle error
; 259  : 		//
; 260  : 		
; 261  : 		weapon_to_target_vector = get_local_entity_vec3d_ptr (aggressor, VEC3D_TYPE_WEAPON_TO_TARGET_VECTOR);

  00465	83 7d f4 00	 cmp	 DWORD PTR _aggressor$[ebp], 0
  00469	74 0d		 je	 SHORT $LN46@attack_gui
  0046b	8b 45 f4	 mov	 eax, DWORD PTR _aggressor$[ebp]
  0046e	8b 08		 mov	 ecx, DWORD PTR [eax]
  00470	89 8d 7c ff ff
	ff		 mov	 DWORD PTR tv248[ebp], ecx
  00476	eb 24		 jmp	 SHORT $LN47@attack_gui
$LN46@attack_gui:
  00478	8b 15 00 00 00
	00		 mov	 edx, DWORD PTR ?__LINE__Var@?0??attack_guide_fire_intercept_reached@@YGXPAUENTITY@@@Z@4JA
  0047e	83 c2 50	 add	 edx, 80			; 00000050H
  00481	52		 push	 edx
  00482	68 00 00 00 00	 push	 OFFSET ??_C@_0EM@DNELFJLJ@c?3?2users?2nhv90?2projects?2eech?2ap@
  00487	a1 00 00 00 00	 mov	 eax, DWORD PTR ?null_entity_pointer_message@@3PBDB ; null_entity_pointer_message
  0048c	50		 push	 eax
  0048d	e8 00 00 00 00	 call	 ?process_assert@@YGXPBD0H@Z ; process_assert
  00492	c7 85 7c ff ff
	ff 00 00 00 00	 mov	 DWORD PTR tv248[ebp], 0
$LN47@attack_gui:
  0049c	b9 01 00 00 00	 mov	 ecx, 1
  004a1	85 c9		 test	 ecx, ecx
  004a3	74 0c		 je	 SHORT $LN48@attack_gui
  004a5	c7 85 78 ff ff
	ff 0d 00 00 00	 mov	 DWORD PTR tv256[ebp], 13 ; 0000000dH
  004af	eb 24		 jmp	 SHORT $LN49@attack_gui
$LN48@attack_gui:
  004b1	8b 15 00 00 00
	00		 mov	 edx, DWORD PTR ?__LINE__Var@?0??attack_guide_fire_intercept_reached@@YGXPAUENTITY@@@Z@4JA
  004b7	83 c2 50	 add	 edx, 80			; 00000050H
  004ba	52		 push	 edx
  004bb	68 00 00 00 00	 push	 OFFSET ??_C@_0EM@DNELFJLJ@c?3?2users?2nhv90?2projects?2eech?2ap@
  004c0	a1 00 00 00 00	 mov	 eax, DWORD PTR ?overload_invalid_vec3d_type_message@@3PBDB ; overload_invalid_vec3d_type_message
  004c5	50		 push	 eax
  004c6	e8 00 00 00 00	 call	 ?process_assert@@YGXPBD0H@Z ; process_assert
  004cb	c7 85 78 ff ff
	ff 00 00 00 00	 mov	 DWORD PTR tv256[ebp], 0
$LN49@attack_gui:
  004d5	6a 0d		 push	 13			; 0000000dH
  004d7	8b 4d f4	 mov	 ecx, DWORD PTR _aggressor$[ebp]
  004da	51		 push	 ecx
  004db	6b 95 7c ff ff
	ff 60		 imul	 edx, DWORD PTR tv248[ebp], 96
  004e2	8b 85 78 ff ff
	ff		 mov	 eax, DWORD PTR tv256[ebp]
  004e8	8b 8c 82 00 00
	00 00		 mov	 ecx, DWORD PTR ?fn_get_local_entity_vec3d_ptr@@3PAY0BI@P6GPAUVEC3D@@PAUENTITY@@W4VEC3D_TYPES@@@ZA[edx+eax*4]
  004ef	ff d1		 call	 ecx
  004f1	89 45 d8	 mov	 DWORD PTR _weapon_to_target_vector$[ebp], eax

; 262  : 
; 263  : 		ASSERT (weapon_to_target_vector);

  004f4	83 7d d8 00	 cmp	 DWORD PTR _weapon_to_target_vector$[ebp], 0
  004f8	75 18		 jne	 SHORT $LN11@attack_gui
  004fa	a1 00 00 00 00	 mov	 eax, DWORD PTR ?__LINE__Var@?0??attack_guide_fire_intercept_reached@@YGXPAUENTITY@@@Z@4JA
  004ff	83 c0 52	 add	 eax, 82			; 00000052H
  00502	50		 push	 eax
  00503	68 00 00 00 00	 push	 OFFSET ??_C@_0EM@DNELFJLJ@c?3?2users?2nhv90?2projects?2eech?2ap@
  00508	68 00 00 00 00	 push	 OFFSET ??_C@_0BI@KLDNOBIJ@weapon_to_target_vector@
  0050d	e8 00 00 00 00	 call	 ?process_assert@@YGXPBD0H@Z ; process_assert
$LN11@attack_gui:

; 264  : 
; 265  : 		launch_angle_error = acos (get_3d_unit_vector_dot_product (weapon_vector, weapon_to_target_vector));

  00512	8b 45 d8	 mov	 eax, DWORD PTR _weapon_to_target_vector$[ebp]
  00515	50		 push	 eax
  00516	8b 4d dc	 mov	 ecx, DWORD PTR _weapon_vector$[ebp]
  00519	51		 push	 ecx
  0051a	e8 00 00 00 00	 call	 ?get_3d_unit_vector_dot_product@@YGMPBUVEC3D@@0@Z ; get_3d_unit_vector_dot_product
  0051f	51		 push	 ecx
  00520	d9 1c 24	 fstp	 DWORD PTR [esp]
  00523	e8 00 00 00 00	 call	 ?acos@@YGMM@Z		; acos
  00528	d9 5d cc	 fstp	 DWORD PTR _launch_angle_error$[ebp]

; 266  : 
; 267  : 		if (fabs (launch_angle_error) > weapon_database[selected_weapon].max_launch_angle_error)

  0052b	51		 push	 ecx
  0052c	f3 0f 10 45 cc	 movss	 xmm0, DWORD PTR _launch_angle_error$[ebp]
  00531	f3 0f 11 04 24	 movss	 DWORD PTR [esp], xmm0
  00536	e8 00 00 00 00	 call	 ?fabs@@YGMM@Z		; fabs
  0053b	d9 9d 7c ff ff
	ff		 fstp	 DWORD PTR tv488[ebp]
  00541	f3 0f 10 85 7c
	ff ff ff	 movss	 xmm0, DWORD PTR tv488[ebp]
  00549	69 45 ec e0 00
	00 00		 imul	 eax, DWORD PTR _selected_weapon$[ebp], 224
  00550	0f 2f 80 d0 00
	00 00		 comiss	 xmm0, DWORD PTR ?weapon_database@@3PAUWEAPON_DATA@@A[eax+208]
  00557	76 05		 jbe	 SHORT $LN12@attack_gui

; 268  : 		{
; 269  : 			return;

  00559	e9 19 03 00 00	 jmp	 $LN1@attack_gui
$LN12@attack_gui:

; 270  : 		}
; 271  : 
; 272  : 		//
; 273  : 		// Check firing into ground
; 274  : 		//
; 275  : 
; 276  : 		if (get_local_entity_int_value (aggressor, INT_TYPE_IDENTIFY_HELICOPTER))

  0055e	83 7d f4 00	 cmp	 DWORD PTR _aggressor$[ebp], 0
  00562	74 0d		 je	 SHORT $LN50@attack_gui
  00564	8b 45 f4	 mov	 eax, DWORD PTR _aggressor$[ebp]
  00567	8b 08		 mov	 ecx, DWORD PTR [eax]
  00569	89 8d 7c ff ff
	ff		 mov	 DWORD PTR tv283[ebp], ecx
  0056f	eb 20		 jmp	 SHORT $LN51@attack_gui
$LN50@attack_gui:
  00571	68 14 01 00 00	 push	 276			; 00000114H
  00576	68 00 00 00 00	 push	 OFFSET ??_C@_0EM@DNELFJLJ@c?3?2users?2nhv90?2projects?2eech?2ap@
  0057b	8b 15 00 00 00
	00		 mov	 edx, DWORD PTR ?null_entity_pointer_message@@3PBDB ; null_entity_pointer_message
  00581	52		 push	 edx
  00582	e8 00 00 00 00	 call	 ?process_assert@@YGXPBD0H@Z ; process_assert
  00587	c7 85 7c ff ff
	ff 00 00 00 00	 mov	 DWORD PTR tv283[ebp], 0
$LN51@attack_gui:
  00591	b8 01 00 00 00	 mov	 eax, 1
  00596	85 c0		 test	 eax, eax
  00598	74 0c		 je	 SHORT $LN52@attack_gui
  0059a	c7 85 78 ff ff
	ff 5c 00 00 00	 mov	 DWORD PTR tv290[ebp], 92 ; 0000005cH
  005a4	eb 20		 jmp	 SHORT $LN53@attack_gui
$LN52@attack_gui:
  005a6	68 14 01 00 00	 push	 276			; 00000114H
  005ab	68 00 00 00 00	 push	 OFFSET ??_C@_0EM@DNELFJLJ@c?3?2users?2nhv90?2projects?2eech?2ap@
  005b0	8b 0d 00 00 00
	00		 mov	 ecx, DWORD PTR ?overload_invalid_int_type_message@@3PBDB ; overload_invalid_int_type_message
  005b6	51		 push	 ecx
  005b7	e8 00 00 00 00	 call	 ?process_assert@@YGXPBD0H@Z ; process_assert
  005bc	c7 85 78 ff ff
	ff 00 00 00 00	 mov	 DWORD PTR tv290[ebp], 0
$LN53@attack_gui:
  005c6	6a 5c		 push	 92			; 0000005cH
  005c8	8b 55 f4	 mov	 edx, DWORD PTR _aggressor$[ebp]
  005cb	52		 push	 edx
  005cc	69 85 7c ff ff
	ff 5c 04 00 00	 imul	 eax, DWORD PTR tv283[ebp], 1116
  005d6	8b 8d 78 ff ff
	ff		 mov	 ecx, DWORD PTR tv290[ebp]
  005dc	8b 94 88 00 00
	00 00		 mov	 edx, DWORD PTR ?fn_get_local_entity_int_value@@3PAY0BBH@P6GHPAUENTITY@@W4INT_TYPES@@@ZA[eax+ecx*4]
  005e3	ff d2		 call	 edx
  005e5	85 c0		 test	 eax, eax
  005e7	0f 84 11 01 00
	00		 je	 $LN14@attack_gui

; 277  : 		{
; 278  : 			get_local_entity_vec3d (aggressor, VEC3D_TYPE_POSITION, &position);

  005ed	83 7d f4 00	 cmp	 DWORD PTR _aggressor$[ebp], 0
  005f1	74 0d		 je	 SHORT $LN54@attack_gui
  005f3	8b 45 f4	 mov	 eax, DWORD PTR _aggressor$[ebp]
  005f6	8b 08		 mov	 ecx, DWORD PTR [eax]
  005f8	89 8d 7c ff ff
	ff		 mov	 DWORD PTR tv303[ebp], ecx
  005fe	eb 24		 jmp	 SHORT $LN55@attack_gui
$LN54@attack_gui:
  00600	8b 15 00 00 00
	00		 mov	 edx, DWORD PTR ?__LINE__Var@?0??attack_guide_fire_intercept_reached@@YGXPAUENTITY@@@Z@4JA
  00606	83 c2 61	 add	 edx, 97			; 00000061H
  00609	52		 push	 edx
  0060a	68 00 00 00 00	 push	 OFFSET ??_C@_0EM@DNELFJLJ@c?3?2users?2nhv90?2projects?2eech?2ap@
  0060f	a1 00 00 00 00	 mov	 eax, DWORD PTR ?null_entity_pointer_message@@3PBDB ; null_entity_pointer_message
  00614	50		 push	 eax
  00615	e8 00 00 00 00	 call	 ?process_assert@@YGXPBD0H@Z ; process_assert
  0061a	c7 85 7c ff ff
	ff 00 00 00 00	 mov	 DWORD PTR tv303[ebp], 0
$LN55@attack_gui:
  00624	b9 01 00 00 00	 mov	 ecx, 1
  00629	85 c9		 test	 ecx, ecx
  0062b	74 0c		 je	 SHORT $LN56@attack_gui
  0062d	c7 85 78 ff ff
	ff 08 00 00 00	 mov	 DWORD PTR tv311[ebp], 8
  00637	eb 24		 jmp	 SHORT $LN57@attack_gui
$LN56@attack_gui:
  00639	8b 15 00 00 00
	00		 mov	 edx, DWORD PTR ?__LINE__Var@?0??attack_guide_fire_intercept_reached@@YGXPAUENTITY@@@Z@4JA
  0063f	83 c2 61	 add	 edx, 97			; 00000061H
  00642	52		 push	 edx
  00643	68 00 00 00 00	 push	 OFFSET ??_C@_0EM@DNELFJLJ@c?3?2users?2nhv90?2projects?2eech?2ap@
  00648	a1 00 00 00 00	 mov	 eax, DWORD PTR ?overload_invalid_vec3d_type_message@@3PBDB ; overload_invalid_vec3d_type_message
  0064d	50		 push	 eax
  0064e	e8 00 00 00 00	 call	 ?process_assert@@YGXPBD0H@Z ; process_assert
  00653	c7 85 78 ff ff
	ff 00 00 00 00	 mov	 DWORD PTR tv311[ebp], 0
$LN57@attack_gui:
  0065d	8d 4d e0	 lea	 ecx, DWORD PTR _position$[ebp]
  00660	51		 push	 ecx
  00661	6a 08		 push	 8
  00663	8b 55 f4	 mov	 edx, DWORD PTR _aggressor$[ebp]
  00666	52		 push	 edx
  00667	6b 85 7c ff ff
	ff 60		 imul	 eax, DWORD PTR tv303[ebp], 96
  0066e	8b 8d 78 ff ff
	ff		 mov	 ecx, DWORD PTR tv311[ebp]
  00674	8b 94 88 00 00
	00 00		 mov	 edx, DWORD PTR ?fn_get_local_entity_vec3d@@3PAY0BI@P6GXPAUENTITY@@W4VEC3D_TYPES@@PAUVEC3D@@@ZA[eax+ecx*4]
  0067b	ff d2		 call	 edx

; 279  : 	
; 280  : 			distance = 120.0;

  0067d	f3 0f 10 05 00
	00 00 00	 movss	 xmm0, DWORD PTR __real@42f00000
  00685	f3 0f 11 45 d4	 movss	 DWORD PTR _distance$[ebp], xmm0

; 281  : 	
; 282  : 			position.x += (distance * weapon_vector->x);

  0068a	8b 45 dc	 mov	 eax, DWORD PTR _weapon_vector$[ebp]
  0068d	f3 0f 10 45 d4	 movss	 xmm0, DWORD PTR _distance$[ebp]
  00692	f3 0f 59 00	 mulss	 xmm0, DWORD PTR [eax]
  00696	f3 0f 58 45 e0	 addss	 xmm0, DWORD PTR _position$[ebp]
  0069b	f3 0f 11 45 e0	 movss	 DWORD PTR _position$[ebp], xmm0

; 283  : 			position.y += (distance * weapon_vector->y);

  006a0	8b 45 dc	 mov	 eax, DWORD PTR _weapon_vector$[ebp]
  006a3	f3 0f 10 45 d4	 movss	 xmm0, DWORD PTR _distance$[ebp]
  006a8	f3 0f 59 40 04	 mulss	 xmm0, DWORD PTR [eax+4]
  006ad	f3 0f 58 45 e4	 addss	 xmm0, DWORD PTR _position$[ebp+4]
  006b2	f3 0f 11 45 e4	 movss	 DWORD PTR _position$[ebp+4], xmm0

; 284  : 			position.z += (distance * weapon_vector->z);

  006b7	8b 45 dc	 mov	 eax, DWORD PTR _weapon_vector$[ebp]
  006ba	f3 0f 10 45 d4	 movss	 xmm0, DWORD PTR _distance$[ebp]
  006bf	f3 0f 59 40 08	 mulss	 xmm0, DWORD PTR [eax+8]
  006c4	f3 0f 58 45 e8	 addss	 xmm0, DWORD PTR _position$[ebp+8]
  006c9	f3 0f 11 45 e8	 movss	 DWORD PTR _position$[ebp+8], xmm0

; 285  : 	
; 286  : 			terrain_elevation = get_3d_terrain_elevation (position.x, position.z);

  006ce	6a 00		 push	 0
  006d0	51		 push	 ecx
  006d1	f3 0f 10 45 e8	 movss	 xmm0, DWORD PTR _position$[ebp+8]
  006d6	f3 0f 11 04 24	 movss	 DWORD PTR [esp], xmm0
  006db	51		 push	 ecx
  006dc	f3 0f 10 45 e0	 movss	 xmm0, DWORD PTR _position$[ebp]
  006e1	f3 0f 11 04 24	 movss	 DWORD PTR [esp], xmm0
  006e6	e8 00 00 00 00	 call	 ?get_3d_terrain_point_data@@YGMMMPAUTERRAIN_3D_POINT_DATA@@@Z ; get_3d_terrain_point_data
  006eb	d9 5d d0	 fstp	 DWORD PTR _terrain_elevation$[ebp]

; 287  : 	
; 288  : 			if (position.y < terrain_elevation)

  006ee	f3 0f 10 45 d0	 movss	 xmm0, DWORD PTR _terrain_elevation$[ebp]
  006f3	0f 2f 45 e4	 comiss	 xmm0, DWORD PTR _position$[ebp+4]
  006f7	76 05		 jbe	 SHORT $LN14@attack_gui

; 289  : 			{
; 290  : 				return;

  006f9	e9 79 01 00 00	 jmp	 $LN1@attack_gui
$LN14@attack_gui:

; 291  : 			}
; 292  : 		}
; 293  : 	}
; 294  : 	else

  006fe	eb 05		 jmp	 SHORT $LN9@attack_gui
$LN8@attack_gui:

; 295  : 	{
; 296  : 		return;

  00700	e9 72 01 00 00	 jmp	 $LN1@attack_gui
$LN9@attack_gui:

; 297  : 	}
; 298  : 
; 299  : 	//
; 300  : 	// Check target altitude
; 301  : 	//
; 302  : 	{
; 303  : 		float
; 304  : 			min_alt,
; 305  : 			altitude;
; 306  : 
; 307  : 		int
; 308  : 			seed;
; 309  : 
; 310  : 		altitude = get_local_entity_float_value (target, FLOAT_TYPE_RADAR_ALTITUDE);

  00705	83 7d f0 00	 cmp	 DWORD PTR _target$[ebp], 0
  00709	74 0d		 je	 SHORT $LN58@attack_gui
  0070b	8b 45 f0	 mov	 eax, DWORD PTR _target$[ebp]
  0070e	8b 08		 mov	 ecx, DWORD PTR [eax]
  00710	89 8d 7c ff ff
	ff		 mov	 DWORD PTR tv337[ebp], ecx
  00716	eb 27		 jmp	 SHORT $LN59@attack_gui
$LN58@attack_gui:
  00718	8b 15 00 00 00
	00		 mov	 edx, DWORD PTR ?__LINE__Var@?0??attack_guide_fire_intercept_reached@@YGXPAUENTITY@@@Z@4JA
  0071e	81 c2 81 00 00
	00		 add	 edx, 129		; 00000081H
  00724	52		 push	 edx
  00725	68 00 00 00 00	 push	 OFFSET ??_C@_0EM@DNELFJLJ@c?3?2users?2nhv90?2projects?2eech?2ap@
  0072a	a1 00 00 00 00	 mov	 eax, DWORD PTR ?null_entity_pointer_message@@3PBDB ; null_entity_pointer_message
  0072f	50		 push	 eax
  00730	e8 00 00 00 00	 call	 ?process_assert@@YGXPBD0H@Z ; process_assert
  00735	c7 85 7c ff ff
	ff 00 00 00 00	 mov	 DWORD PTR tv337[ebp], 0
$LN59@attack_gui:
  0073f	b9 01 00 00 00	 mov	 ecx, 1
  00744	85 c9		 test	 ecx, ecx
  00746	74 0c		 je	 SHORT $LN60@attack_gui
  00748	c7 85 78 ff ff
	ff 68 00 00 00	 mov	 DWORD PTR tv345[ebp], 104 ; 00000068H
  00752	eb 27		 jmp	 SHORT $LN61@attack_gui
$LN60@attack_gui:
  00754	8b 15 00 00 00
	00		 mov	 edx, DWORD PTR ?__LINE__Var@?0??attack_guide_fire_intercept_reached@@YGXPAUENTITY@@@Z@4JA
  0075a	81 c2 81 00 00
	00		 add	 edx, 129		; 00000081H
  00760	52		 push	 edx
  00761	68 00 00 00 00	 push	 OFFSET ??_C@_0EM@DNELFJLJ@c?3?2users?2nhv90?2projects?2eech?2ap@
  00766	a1 00 00 00 00	 mov	 eax, DWORD PTR ?overload_invalid_float_type_message@@3PBDB ; overload_invalid_float_type_message
  0076b	50		 push	 eax
  0076c	e8 00 00 00 00	 call	 ?process_assert@@YGXPBD0H@Z ; process_assert
  00771	c7 85 78 ff ff
	ff 00 00 00 00	 mov	 DWORD PTR tv345[ebp], 0
$LN61@attack_gui:
  0077b	6a 68		 push	 104			; 00000068H
  0077d	8b 4d f0	 mov	 ecx, DWORD PTR _target$[ebp]
  00780	51		 push	 ecx
  00781	69 95 7c ff ff
	ff bc 02 00 00	 imul	 edx, DWORD PTR tv337[ebp], 700
  0078b	8b 85 78 ff ff
	ff		 mov	 eax, DWORD PTR tv345[ebp]
  00791	8b 8c 82 00 00
	00 00		 mov	 ecx, DWORD PTR ?fn_get_local_entity_float_value@@3PAY0KP@P6GMPAUENTITY@@W4FLOAT_TYPES@@@ZA[edx+eax*4]
  00798	ff d1		 call	 ecx
  0079a	d9 5d c4	 fstp	 DWORD PTR _altitude$2[ebp]

; 311  : 
; 312  : 		min_alt = 10.0;

  0079d	f3 0f 10 05 00
	00 00 00	 movss	 xmm0, DWORD PTR __real@41200000
  007a5	f3 0f 11 45 c8	 movss	 DWORD PTR _min_alt$3[ebp], xmm0

; 313  : 
; 314  : 		seed = get_client_server_entity_random_number_seed (aggressor);

  007aa	8b 45 f4	 mov	 eax, DWORD PTR _aggressor$[ebp]
  007ad	2b 05 00 00 00
	00		 sub	 eax, DWORD PTR ?entities@@3PAUENTITY@@A ; entities
  007b3	c1 f8 04	 sar	 eax, 4
  007b6	89 45 c0	 mov	 DWORD PTR _seed$1[ebp], eax

; 315  : 
; 316  : 		min_alt *= (1.0 + (0.5 * frand1x (&seed)));

  007b9	69 45 c0 6d 4e
	c6 41		 imul	 eax, DWORD PTR _seed$1[ebp], 1103515245
  007c0	05 39 30 00 00	 add	 eax, 12345		; 00003039H
  007c5	89 45 c0	 mov	 DWORD PTR _seed$1[ebp], eax
  007c8	8b 4d c0	 mov	 ecx, DWORD PTR _seed$1[ebp]
  007cb	c1 f9 10	 sar	 ecx, 16			; 00000010H
  007ce	81 e1 ff 7f 00
	00		 and	 ecx, 32767		; 00007fffH
  007d4	f2 0f 2a c1	 cvtsi2sd xmm0, ecx
  007d8	f2 0f 59 05 00
	00 00 00	 mulsd	 xmm0, QWORD PTR __real@3f00002000400080
  007e0	f2 0f 59 05 00
	00 00 00	 mulsd	 xmm0, QWORD PTR __real@3fe0000000000000
  007e8	f2 0f 58 05 00
	00 00 00	 addsd	 xmm0, QWORD PTR __real@3ff0000000000000
  007f0	f3 0f 5a 4d c8	 cvtss2sd xmm1, DWORD PTR _min_alt$3[ebp]
  007f5	f2 0f 59 c8	 mulsd	 xmm1, xmm0
  007f9	f2 0f 5a c1	 cvtsd2ss xmm0, xmm1
  007fd	f3 0f 11 45 c8	 movss	 DWORD PTR _min_alt$3[ebp], xmm0

; 317  : 
; 318  : 		if (altitude < min_alt) 

  00802	f3 0f 10 45 c8	 movss	 xmm0, DWORD PTR _min_alt$3[ebp]
  00807	0f 2f 45 c4	 comiss	 xmm0, DWORD PTR _altitude$2[ebp]
  0080b	76 02		 jbe	 SHORT $LN15@attack_gui

; 319  : 		{
; 320  : 			return;

  0080d	eb 68		 jmp	 SHORT $LN1@attack_gui
$LN15@attack_gui:

; 321  : 		}
; 322  : 	}
; 323  : 
; 324  : 	//
; 325  : 	// Fire Weapon
; 326  : 	//
; 327  : 
; 328  : 	aircraft_fire_weapon (aggressor, AIRCRAFT_FIRE_CHECK_ALL);

  0080f	6a 3f		 push	 63			; 0000003fH
  00811	8b 45 f4	 mov	 eax, DWORD PTR _aggressor$[ebp]
  00814	50		 push	 eax
  00815	e8 00 00 00 00	 call	 ?aircraft_fire_weapon@@YG?AW4AIRCRAFT_FIRE_RESULT@@PAUENTITY@@I@Z ; aircraft_fire_weapon

; 329  : 
; 330  : 	//
; 331  : 	// check weapon
; 332  : 	//
; 333  : 
; 334  : 	if (attack_guide_find_best_weapon (en))

  0081a	8b 45 08	 mov	 eax, DWORD PTR _en$[ebp]
  0081d	50		 push	 eax
  0081e	e8 00 00 00 00	 call	 ?attack_guide_find_best_weapon@@YGHPAUENTITY@@@Z ; attack_guide_find_best_weapon
  00823	85 c0		 test	 eax, eax
  00825	74 50		 je	 SHORT $LN18@attack_gui

; 335  : 	{
; 336  : 		if (get_local_entity_type (aggressor) == ENTITY_TYPE_FIXED_WING)

  00827	83 7d f4 00	 cmp	 DWORD PTR _aggressor$[ebp], 0
  0082b	74 0d		 je	 SHORT $LN62@attack_gui
  0082d	8b 45 f4	 mov	 eax, DWORD PTR _aggressor$[ebp]
  00830	8b 08		 mov	 ecx, DWORD PTR [eax]
  00832	89 8d 7c ff ff
	ff		 mov	 DWORD PTR tv375[ebp], ecx
  00838	eb 20		 jmp	 SHORT $LN63@attack_gui
$LN62@attack_gui:
  0083a	68 50 01 00 00	 push	 336			; 00000150H
  0083f	68 00 00 00 00	 push	 OFFSET ??_C@_0EM@DNELFJLJ@c?3?2users?2nhv90?2projects?2eech?2ap@
  00844	8b 15 00 00 00
	00		 mov	 edx, DWORD PTR ?null_entity_pointer_message@@3PBDB ; null_entity_pointer_message
  0084a	52		 push	 edx
  0084b	e8 00 00 00 00	 call	 ?process_assert@@YGXPBD0H@Z ; process_assert
  00850	c7 85 7c ff ff
	ff 00 00 00 00	 mov	 DWORD PTR tv375[ebp], 0
$LN63@attack_gui:
  0085a	83 bd 7c ff ff
	ff 0a		 cmp	 DWORD PTR tv375[ebp], 10 ; 0000000aH
  00861	75 0b		 jne	 SHORT $LN17@attack_gui

; 337  : 		{
; 338  : 			//
; 339  : 			// set MOVE SIX position
; 340  : 			//
; 341  : 
; 342  : 			set_attack_guide_move_six_position (en);

  00863	8b 45 08	 mov	 eax, DWORD PTR _en$[ebp]
  00866	50		 push	 eax
  00867	e8 00 00 00 00	 call	 ?set_attack_guide_move_six_position@@YGXPAUENTITY@@@Z ; set_attack_guide_move_six_position

; 343  : 		}
; 344  : 		else

  0086c	eb 09		 jmp	 SHORT $LN18@attack_gui
$LN17@attack_gui:

; 345  : 		{
; 346  : 			//
; 347  : 			// set MOVE CIRCLE position
; 348  : 			//
; 349  : 
; 350  : 			set_attack_guide_move_circle_position (en);

  0086e	8b 45 08	 mov	 eax, DWORD PTR _en$[ebp]
  00871	50		 push	 eax
  00872	e8 00 00 00 00	 call	 ?set_attack_guide_move_circle_position@@YGXPAUENTITY@@@Z ; set_attack_guide_move_circle_position
$LN18@attack_gui:
$LN1@attack_gui:

; 351  : 		}
; 352  : 	}
; 353  : }

  00877	5f		 pop	 edi
  00878	5e		 pop	 esi
  00879	5b		 pop	 ebx
  0087a	8b e5		 mov	 esp, ebp
  0087c	5d		 pop	 ebp
  0087d	c2 04 00	 ret	 4
?attack_guide_fire_intercept_reached@@YGXPAUENTITY@@@Z ENDP ; attack_guide_fire_intercept_reached
_TEXT	ENDS
; Function compile flags: /Odtp /ZI
; File c:\users\nhv90\projects\eech\aphavoc\source\entity\special\guide\aa_attck.c
;	COMDAT ?attack_guide_move_circle_reached@@YGXPAUENTITY@@@Z
_TEXT	SEGMENT
tv81 = -88						; size = 4
tv74 = -84						; size = 4
_target$ = -16						; size = 4
_aggressor$ = -12					; size = 4
_task$ = -8						; size = 4
_wp$ = -4						; size = 4
_en$ = 8						; size = 4
?attack_guide_move_circle_reached@@YGXPAUENTITY@@@Z PROC ; attack_guide_move_circle_reached, COMDAT

; 148  : {

  00000	55		 push	 ebp
  00001	8b ec		 mov	 ebp, esp
  00003	83 ec 58	 sub	 esp, 88			; 00000058H
  00006	53		 push	 ebx
  00007	56		 push	 esi
  00008	57		 push	 edi

; 149  : 	entity
; 150  : 		*wp,
; 151  : 		*task,
; 152  : 		*aggressor,
; 153  : 		*target;
; 154  : 
; 155  : 	get_local_guide_entity_pointers (en, &aggressor, &wp, &task, &target);

  00009	8d 45 f0	 lea	 eax, DWORD PTR _target$[ebp]
  0000c	50		 push	 eax
  0000d	8d 4d f8	 lea	 ecx, DWORD PTR _task$[ebp]
  00010	51		 push	 ecx
  00011	8d 55 fc	 lea	 edx, DWORD PTR _wp$[ebp]
  00014	52		 push	 edx
  00015	8d 45 f4	 lea	 eax, DWORD PTR _aggressor$[ebp]
  00018	50		 push	 eax
  00019	8b 4d 08	 mov	 ecx, DWORD PTR _en$[ebp]
  0001c	51		 push	 ecx
  0001d	e8 00 00 00 00	 call	 ?get_local_guide_entity_pointers@@YGXPAUENTITY@@PAPAU1@111@Z ; get_local_guide_entity_pointers

; 156  : 
; 157  : 	if (get_local_entity_int_value (aggressor, INT_TYPE_WEAPONS_HOLD))

  00022	83 7d f4 00	 cmp	 DWORD PTR _aggressor$[ebp], 0
  00026	74 0a		 je	 SHORT $LN5@attack_gui
  00028	8b 45 f4	 mov	 eax, DWORD PTR _aggressor$[ebp]
  0002b	8b 08		 mov	 ecx, DWORD PTR [eax]
  0002d	89 4d ac	 mov	 DWORD PTR tv74[ebp], ecx
  00030	eb 1d		 jmp	 SHORT $LN6@attack_gui
$LN5@attack_gui:
  00032	68 9d 00 00 00	 push	 157			; 0000009dH
  00037	68 00 00 00 00	 push	 OFFSET ??_C@_0EM@DNELFJLJ@c?3?2users?2nhv90?2projects?2eech?2ap@
  0003c	8b 15 00 00 00
	00		 mov	 edx, DWORD PTR ?null_entity_pointer_message@@3PBDB ; null_entity_pointer_message
  00042	52		 push	 edx
  00043	e8 00 00 00 00	 call	 ?process_assert@@YGXPBD0H@Z ; process_assert
  00048	c7 45 ac 00 00
	00 00		 mov	 DWORD PTR tv74[ebp], 0
$LN6@attack_gui:
  0004f	b8 01 00 00 00	 mov	 eax, 1
  00054	85 c0		 test	 eax, eax
  00056	74 09		 je	 SHORT $LN7@attack_gui
  00058	c7 45 a8 11 01
	00 00		 mov	 DWORD PTR tv81[ebp], 273 ; 00000111H
  0005f	eb 1d		 jmp	 SHORT $LN8@attack_gui
$LN7@attack_gui:
  00061	68 9d 00 00 00	 push	 157			; 0000009dH
  00066	68 00 00 00 00	 push	 OFFSET ??_C@_0EM@DNELFJLJ@c?3?2users?2nhv90?2projects?2eech?2ap@
  0006b	8b 0d 00 00 00
	00		 mov	 ecx, DWORD PTR ?overload_invalid_int_type_message@@3PBDB ; overload_invalid_int_type_message
  00071	51		 push	 ecx
  00072	e8 00 00 00 00	 call	 ?process_assert@@YGXPBD0H@Z ; process_assert
  00077	c7 45 a8 00 00
	00 00		 mov	 DWORD PTR tv81[ebp], 0
$LN8@attack_gui:
  0007e	68 11 01 00 00	 push	 273			; 00000111H
  00083	8b 55 f4	 mov	 edx, DWORD PTR _aggressor$[ebp]
  00086	52		 push	 edx
  00087	69 45 ac 5c 04
	00 00		 imul	 eax, DWORD PTR tv74[ebp], 1116
  0008e	8b 4d a8	 mov	 ecx, DWORD PTR tv81[ebp]
  00091	8b 94 88 00 00
	00 00		 mov	 edx, DWORD PTR ?fn_get_local_entity_int_value@@3PAY0BBH@P6GHPAUENTITY@@W4INT_TYPES@@@ZA[eax+ecx*4]
  00098	ff d2		 call	 edx
  0009a	85 c0		 test	 eax, eax
  0009c	74 1e		 je	 SHORT $LN2@attack_gui

; 158  : 	{
; 159  : 		debug_log ("AA_ATTCK: Aborting attack - weapons hold (move circle)");

  0009e	68 00 00 00 00	 push	 OFFSET ??_C@_0DH@ILOOFGPF@AA_ATTCK?3?5Aborting?5attack?5?9?5wea@
  000a3	e8 00 00 00 00	 call	 ?debug_log@@YAXPBDZZ	; debug_log
  000a8	83 c4 04	 add	 esp, 4

; 160  : 
; 161  : 		delete_group_member_from_engage_guide (aggressor, en, FALSE);

  000ab	6a 00		 push	 0
  000ad	8b 45 08	 mov	 eax, DWORD PTR _en$[ebp]
  000b0	50		 push	 eax
  000b1	8b 4d f4	 mov	 ecx, DWORD PTR _aggressor$[ebp]
  000b4	51		 push	 ecx
  000b5	e8 00 00 00 00	 call	 ?delete_group_member_from_engage_guide@@YGXPAUENTITY@@0H@Z ; delete_group_member_from_engage_guide

; 162  : 
; 163  : 		return;

  000ba	eb 16		 jmp	 SHORT $LN1@attack_gui
$LN2@attack_gui:

; 164  : 	}
; 165  : 	
; 166  : 	//
; 167  : 	// check weapon
; 168  : 	//
; 169  : 
; 170  : 	if (attack_guide_find_best_weapon (en))

  000bc	8b 45 08	 mov	 eax, DWORD PTR _en$[ebp]
  000bf	50		 push	 eax
  000c0	e8 00 00 00 00	 call	 ?attack_guide_find_best_weapon@@YGHPAUENTITY@@@Z ; attack_guide_find_best_weapon
  000c5	85 c0		 test	 eax, eax
  000c7	74 09		 je	 SHORT $LN1@attack_gui

; 171  : 	{
; 172  : 		set_attack_guide_fire_intercept_position (en);

  000c9	8b 45 08	 mov	 eax, DWORD PTR _en$[ebp]
  000cc	50		 push	 eax
  000cd	e8 00 00 00 00	 call	 ?set_attack_guide_fire_intercept_position@@YGXPAUENTITY@@@Z ; set_attack_guide_fire_intercept_position
$LN1@attack_gui:

; 173  : 	}
; 174  : }

  000d2	5f		 pop	 edi
  000d3	5e		 pop	 esi
  000d4	5b		 pop	 ebx
  000d5	8b e5		 mov	 esp, ebp
  000d7	5d		 pop	 ebp
  000d8	c2 04 00	 ret	 4
?attack_guide_move_circle_reached@@YGXPAUENTITY@@@Z ENDP ; attack_guide_move_circle_reached
_TEXT	ENDS
; Function compile flags: /Odtp /ZI
; File c:\users\nhv90\projects\eech\aphavoc\source\entity\special\guide\aa_attck.c
;	COMDAT ?attack_guide_move_six_reached@@YGXPAUENTITY@@@Z
_TEXT	SEGMENT
tv81 = -88						; size = 4
tv74 = -84						; size = 4
_target$ = -16						; size = 4
_aggressor$ = -12					; size = 4
_task$ = -8						; size = 4
_wp$ = -4						; size = 4
_en$ = 8						; size = 4
?attack_guide_move_six_reached@@YGXPAUENTITY@@@Z PROC	; attack_guide_move_six_reached, COMDAT

; 115  : {

  00000	55		 push	 ebp
  00001	8b ec		 mov	 ebp, esp
  00003	83 ec 58	 sub	 esp, 88			; 00000058H
  00006	53		 push	 ebx
  00007	56		 push	 esi
  00008	57		 push	 edi

; 116  : 	entity
; 117  : 		*wp,
; 118  : 		*task,
; 119  : 		*aggressor,
; 120  : 		*target;
; 121  : 
; 122  : 	get_local_guide_entity_pointers (en, &aggressor, &wp, &task, &target);

  00009	8d 45 f0	 lea	 eax, DWORD PTR _target$[ebp]
  0000c	50		 push	 eax
  0000d	8d 4d f8	 lea	 ecx, DWORD PTR _task$[ebp]
  00010	51		 push	 ecx
  00011	8d 55 fc	 lea	 edx, DWORD PTR _wp$[ebp]
  00014	52		 push	 edx
  00015	8d 45 f4	 lea	 eax, DWORD PTR _aggressor$[ebp]
  00018	50		 push	 eax
  00019	8b 4d 08	 mov	 ecx, DWORD PTR _en$[ebp]
  0001c	51		 push	 ecx
  0001d	e8 00 00 00 00	 call	 ?get_local_guide_entity_pointers@@YGXPAUENTITY@@PAPAU1@111@Z ; get_local_guide_entity_pointers

; 123  : 
; 124  : 	if (get_local_entity_int_value (aggressor, INT_TYPE_WEAPONS_HOLD))

  00022	83 7d f4 00	 cmp	 DWORD PTR _aggressor$[ebp], 0
  00026	74 0a		 je	 SHORT $LN5@attack_gui
  00028	8b 45 f4	 mov	 eax, DWORD PTR _aggressor$[ebp]
  0002b	8b 08		 mov	 ecx, DWORD PTR [eax]
  0002d	89 4d ac	 mov	 DWORD PTR tv74[ebp], ecx
  00030	eb 1a		 jmp	 SHORT $LN6@attack_gui
$LN5@attack_gui:
  00032	6a 7c		 push	 124			; 0000007cH
  00034	68 00 00 00 00	 push	 OFFSET ??_C@_0EM@DNELFJLJ@c?3?2users?2nhv90?2projects?2eech?2ap@
  00039	8b 15 00 00 00
	00		 mov	 edx, DWORD PTR ?null_entity_pointer_message@@3PBDB ; null_entity_pointer_message
  0003f	52		 push	 edx
  00040	e8 00 00 00 00	 call	 ?process_assert@@YGXPBD0H@Z ; process_assert
  00045	c7 45 ac 00 00
	00 00		 mov	 DWORD PTR tv74[ebp], 0
$LN6@attack_gui:
  0004c	b8 01 00 00 00	 mov	 eax, 1
  00051	85 c0		 test	 eax, eax
  00053	74 09		 je	 SHORT $LN7@attack_gui
  00055	c7 45 a8 11 01
	00 00		 mov	 DWORD PTR tv81[ebp], 273 ; 00000111H
  0005c	eb 1a		 jmp	 SHORT $LN8@attack_gui
$LN7@attack_gui:
  0005e	6a 7c		 push	 124			; 0000007cH
  00060	68 00 00 00 00	 push	 OFFSET ??_C@_0EM@DNELFJLJ@c?3?2users?2nhv90?2projects?2eech?2ap@
  00065	8b 0d 00 00 00
	00		 mov	 ecx, DWORD PTR ?overload_invalid_int_type_message@@3PBDB ; overload_invalid_int_type_message
  0006b	51		 push	 ecx
  0006c	e8 00 00 00 00	 call	 ?process_assert@@YGXPBD0H@Z ; process_assert
  00071	c7 45 a8 00 00
	00 00		 mov	 DWORD PTR tv81[ebp], 0
$LN8@attack_gui:
  00078	68 11 01 00 00	 push	 273			; 00000111H
  0007d	8b 55 f4	 mov	 edx, DWORD PTR _aggressor$[ebp]
  00080	52		 push	 edx
  00081	69 45 ac 5c 04
	00 00		 imul	 eax, DWORD PTR tv74[ebp], 1116
  00088	8b 4d a8	 mov	 ecx, DWORD PTR tv81[ebp]
  0008b	8b 94 88 00 00
	00 00		 mov	 edx, DWORD PTR ?fn_get_local_entity_int_value@@3PAY0BBH@P6GHPAUENTITY@@W4INT_TYPES@@@ZA[eax+ecx*4]
  00092	ff d2		 call	 edx
  00094	85 c0		 test	 eax, eax
  00096	74 1e		 je	 SHORT $LN2@attack_gui

; 125  : 	{
; 126  : 		debug_log ("AA_ATTCK: Aborting attack - weapons hold (move six)");

  00098	68 00 00 00 00	 push	 OFFSET ??_C@_0DE@EDLFPOAI@AA_ATTCK?3?5Aborting?5attack?5?9?5wea@
  0009d	e8 00 00 00 00	 call	 ?debug_log@@YAXPBDZZ	; debug_log
  000a2	83 c4 04	 add	 esp, 4

; 127  : 
; 128  : 		delete_group_member_from_engage_guide (aggressor, en, FALSE);

  000a5	6a 00		 push	 0
  000a7	8b 45 08	 mov	 eax, DWORD PTR _en$[ebp]
  000aa	50		 push	 eax
  000ab	8b 4d f4	 mov	 ecx, DWORD PTR _aggressor$[ebp]
  000ae	51		 push	 ecx
  000af	e8 00 00 00 00	 call	 ?delete_group_member_from_engage_guide@@YGXPAUENTITY@@0H@Z ; delete_group_member_from_engage_guide

; 129  : 
; 130  : 		return;

  000b4	eb 16		 jmp	 SHORT $LN1@attack_gui
$LN2@attack_gui:

; 131  : 	}
; 132  : 	
; 133  : 	//
; 134  : 	// check weapon
; 135  : 	//
; 136  : 
; 137  : 	if (attack_guide_find_best_weapon (en))

  000b6	8b 45 08	 mov	 eax, DWORD PTR _en$[ebp]
  000b9	50		 push	 eax
  000ba	e8 00 00 00 00	 call	 ?attack_guide_find_best_weapon@@YGHPAUENTITY@@@Z ; attack_guide_find_best_weapon
  000bf	85 c0		 test	 eax, eax
  000c1	74 09		 je	 SHORT $LN1@attack_gui

; 138  : 	{
; 139  : 		set_attack_guide_fire_intercept_position (en);

  000c3	8b 45 08	 mov	 eax, DWORD PTR _en$[ebp]
  000c6	50		 push	 eax
  000c7	e8 00 00 00 00	 call	 ?set_attack_guide_fire_intercept_position@@YGXPAUENTITY@@@Z ; set_attack_guide_fire_intercept_position
$LN1@attack_gui:

; 140  : 	}
; 141  : }

  000cc	5f		 pop	 edi
  000cd	5e		 pop	 esi
  000ce	5b		 pop	 ebx
  000cf	8b e5		 mov	 esp, ebp
  000d1	5d		 pop	 ebp
  000d2	c2 04 00	 ret	 4
?attack_guide_move_six_reached@@YGXPAUENTITY@@@Z ENDP	; attack_guide_move_six_reached
_TEXT	ENDS
; Function compile flags: /Odtp /ZI
; File c:\users\nhv90\projects\eech\aphavoc\source\entity\special\guide\aa_attck.c
;	COMDAT ?initialise_air_to_air_attack_guide@@YGXPAUENTITY@@00@Z
_TEXT	SEGMENT
tv76 = -72						; size = 4
tv69 = -68						; size = 4
_en$ = 8						; size = 4
_aggressor$ = 12					; size = 4
_target$ = 16						; size = 4
?initialise_air_to_air_attack_guide@@YGXPAUENTITY@@00@Z PROC ; initialise_air_to_air_attack_guide, COMDAT

; 90   : {

  00000	55		 push	 ebp
  00001	8b ec		 mov	 ebp, esp
  00003	83 ec 48	 sub	 esp, 72			; 00000048H
  00006	53		 push	 ebx
  00007	56		 push	 esi
  00008	57		 push	 edi

; 91   : 	//
; 92   : 	// calculate FIRE position
; 93   : 	//
; 94   : 	
; 95   : 	if (get_local_entity_int_value (aggressor, INT_TYPE_WEAPONS_HOLD))

  00009	83 7d 0c 00	 cmp	 DWORD PTR _aggressor$[ebp], 0
  0000d	74 0a		 je	 SHORT $LN5@initialise
  0000f	8b 45 0c	 mov	 eax, DWORD PTR _aggressor$[ebp]
  00012	8b 08		 mov	 ecx, DWORD PTR [eax]
  00014	89 4d bc	 mov	 DWORD PTR tv69[ebp], ecx
  00017	eb 1a		 jmp	 SHORT $LN6@initialise
$LN5@initialise:
  00019	6a 5f		 push	 95			; 0000005fH
  0001b	68 00 00 00 00	 push	 OFFSET ??_C@_0EM@DNELFJLJ@c?3?2users?2nhv90?2projects?2eech?2ap@
  00020	8b 15 00 00 00
	00		 mov	 edx, DWORD PTR ?null_entity_pointer_message@@3PBDB ; null_entity_pointer_message
  00026	52		 push	 edx
  00027	e8 00 00 00 00	 call	 ?process_assert@@YGXPBD0H@Z ; process_assert
  0002c	c7 45 bc 00 00
	00 00		 mov	 DWORD PTR tv69[ebp], 0
$LN6@initialise:
  00033	b8 01 00 00 00	 mov	 eax, 1
  00038	85 c0		 test	 eax, eax
  0003a	74 09		 je	 SHORT $LN7@initialise
  0003c	c7 45 b8 11 01
	00 00		 mov	 DWORD PTR tv76[ebp], 273 ; 00000111H
  00043	eb 1a		 jmp	 SHORT $LN8@initialise
$LN7@initialise:
  00045	6a 5f		 push	 95			; 0000005fH
  00047	68 00 00 00 00	 push	 OFFSET ??_C@_0EM@DNELFJLJ@c?3?2users?2nhv90?2projects?2eech?2ap@
  0004c	8b 0d 00 00 00
	00		 mov	 ecx, DWORD PTR ?overload_invalid_int_type_message@@3PBDB ; overload_invalid_int_type_message
  00052	51		 push	 ecx
  00053	e8 00 00 00 00	 call	 ?process_assert@@YGXPBD0H@Z ; process_assert
  00058	c7 45 b8 00 00
	00 00		 mov	 DWORD PTR tv76[ebp], 0
$LN8@initialise:
  0005f	68 11 01 00 00	 push	 273			; 00000111H
  00064	8b 55 0c	 mov	 edx, DWORD PTR _aggressor$[ebp]
  00067	52		 push	 edx
  00068	69 45 bc 5c 04
	00 00		 imul	 eax, DWORD PTR tv69[ebp], 1116
  0006f	8b 4d b8	 mov	 ecx, DWORD PTR tv76[ebp]
  00072	8b 94 88 00 00
	00 00		 mov	 edx, DWORD PTR ?fn_get_local_entity_int_value@@3PAY0BBH@P6GHPAUENTITY@@W4INT_TYPES@@@ZA[eax+ecx*4]
  00079	ff d2		 call	 edx
  0007b	85 c0		 test	 eax, eax
  0007d	74 1e		 je	 SHORT $LN2@initialise

; 96   : 	{
; 97   : 		debug_log ("AA_ATTCK: Aborting attack - weapons hold (initialise)");

  0007f	68 00 00 00 00	 push	 OFFSET ??_C@_0DG@FIHOHMAI@AA_ATTCK?3?5Aborting?5attack?5?9?5wea@
  00084	e8 00 00 00 00	 call	 ?debug_log@@YAXPBDZZ	; debug_log
  00089	83 c4 04	 add	 esp, 4

; 98   : 
; 99   : 		delete_group_member_from_engage_guide (aggressor, en, FALSE);

  0008c	6a 00		 push	 0
  0008e	8b 45 08	 mov	 eax, DWORD PTR _en$[ebp]
  00091	50		 push	 eax
  00092	8b 4d 0c	 mov	 ecx, DWORD PTR _aggressor$[ebp]
  00095	51		 push	 ecx
  00096	e8 00 00 00 00	 call	 ?delete_group_member_from_engage_guide@@YGXPAUENTITY@@0H@Z ; delete_group_member_from_engage_guide

; 100  : 
; 101  : 		return;

  0009b	eb 16		 jmp	 SHORT $LN1@initialise
$LN2@initialise:

; 102  : 	}
; 103  : 	
; 104  : 	if (attack_guide_find_best_weapon (en))

  0009d	8b 45 08	 mov	 eax, DWORD PTR _en$[ebp]
  000a0	50		 push	 eax
  000a1	e8 00 00 00 00	 call	 ?attack_guide_find_best_weapon@@YGHPAUENTITY@@@Z ; attack_guide_find_best_weapon
  000a6	85 c0		 test	 eax, eax
  000a8	74 09		 je	 SHORT $LN1@initialise

; 105  : 	{
; 106  : 		set_attack_guide_fire_intercept_position (en);

  000aa	8b 45 08	 mov	 eax, DWORD PTR _en$[ebp]
  000ad	50		 push	 eax
  000ae	e8 00 00 00 00	 call	 ?set_attack_guide_fire_intercept_position@@YGXPAUENTITY@@@Z ; set_attack_guide_fire_intercept_position
$LN1@initialise:

; 107  : 	}
; 108  : }

  000b3	5f		 pop	 edi
  000b4	5e		 pop	 esi
  000b5	5b		 pop	 ebx
  000b6	8b e5		 mov	 esp, ebp
  000b8	5d		 pop	 ebp
  000b9	c2 0c 00	 ret	 12			; 0000000cH
?initialise_air_to_air_attack_guide@@YGXPAUENTITY@@00@Z ENDP ; initialise_air_to_air_attack_guide
_TEXT	ENDS
; Function compile flags: /Odtp /ZI
; File c:\program files (x86)\microsoft visual studio\2017\community\vc\tools\msvc\14.16.27023\include\cmath
;	COMDAT ?fabs@@YGMM@Z
_TEXT	SEGMENT
__Xx$ = 8						; size = 4
?fabs@@YGMM@Z PROC					; fabs, COMDAT

; 112  : 	{

  00000	55		 push	 ebp
  00001	8b ec		 mov	 ebp, esp
  00003	83 ec 40	 sub	 esp, 64			; 00000040H
  00006	53		 push	 ebx
  00007	56		 push	 esi
  00008	57		 push	 edi

; 113  : 	return (_CSTD fabsf(_Xx));

  00009	51		 push	 ecx
  0000a	f3 0f 10 45 08	 movss	 xmm0, DWORD PTR __Xx$[ebp]
  0000f	f3 0f 11 04 24	 movss	 DWORD PTR [esp], xmm0
  00014	e8 00 00 00 00	 call	 _fabsf
  00019	83 c4 04	 add	 esp, 4

; 114  : 	}

  0001c	5f		 pop	 edi
  0001d	5e		 pop	 esi
  0001e	5b		 pop	 ebx
  0001f	8b e5		 mov	 esp, ebp
  00021	5d		 pop	 ebp
  00022	c2 04 00	 ret	 4
?fabs@@YGMM@Z ENDP					; fabs
_TEXT	ENDS
; Function compile flags: /Odtp /ZI
; File c:\program files (x86)\microsoft visual studio\2017\community\vc\tools\msvc\14.16.27023\include\cmath
;	COMDAT ?acos@@YGMM@Z
_TEXT	SEGMENT
__Xx$ = 8						; size = 4
?acos@@YGMM@Z PROC					; acos, COMDAT

; 26   : 	{

  00000	55		 push	 ebp
  00001	8b ec		 mov	 ebp, esp
  00003	83 ec 40	 sub	 esp, 64			; 00000040H
  00006	53		 push	 ebx
  00007	56		 push	 esi
  00008	57		 push	 edi

; 27   : 	return (_CSTD acosf(_Xx));

  00009	51		 push	 ecx
  0000a	f3 0f 10 45 08	 movss	 xmm0, DWORD PTR __Xx$[ebp]
  0000f	f3 0f 11 04 24	 movss	 DWORD PTR [esp], xmm0
  00014	e8 00 00 00 00	 call	 _acosf
  00019	83 c4 04	 add	 esp, 4

; 28   : 	}

  0001c	5f		 pop	 edi
  0001d	5e		 pop	 esi
  0001e	5b		 pop	 ebx
  0001f	8b e5		 mov	 esp, ebp
  00021	5d		 pop	 ebp
  00022	c2 04 00	 ret	 4
?acos@@YGMM@Z ENDP					; acos
_TEXT	ENDS
; Function compile flags: /Odtp /ZI
; File c:\program files (x86)\windows kits\10\include\10.0.18362.0\ucrt\corecrt_math.h
;	COMDAT _fabsf
_TEXT	SEGMENT
tv71 = -68						; size = 4
__X$ = 8						; size = 4
_fabsf	PROC						; COMDAT

; 671  :         {

  00000	55		 push	 ebp
  00001	8b ec		 mov	 ebp, esp
  00003	83 ec 44	 sub	 esp, 68			; 00000044H
  00006	53		 push	 ebx
  00007	56		 push	 esi
  00008	57		 push	 edi

; 672  :             return (float)fabs(_X);

  00009	f3 0f 5a 45 08	 cvtss2sd xmm0, DWORD PTR __X$[ebp]
  0000e	83 ec 08	 sub	 esp, 8
  00011	f2 0f 11 04 24	 movsd	 QWORD PTR [esp], xmm0
  00016	e8 00 00 00 00	 call	 _fabs
  0001b	83 c4 08	 add	 esp, 8
  0001e	d9 5d bc	 fstp	 DWORD PTR tv71[ebp]
  00021	d9 45 bc	 fld	 DWORD PTR tv71[ebp]

; 673  :         }

  00024	5f		 pop	 edi
  00025	5e		 pop	 esi
  00026	5b		 pop	 ebx
  00027	8b e5		 mov	 esp, ebp
  00029	5d		 pop	 ebp
  0002a	c3		 ret	 0
_fabsf	ENDP
_TEXT	ENDS
; Function compile flags: /Odtp /ZI
; File c:\program files (x86)\windows kits\10\include\10.0.18362.0\ucrt\corecrt_math.h
;	COMDAT _acosf
_TEXT	SEGMENT
tv71 = -68						; size = 4
__X$ = 8						; size = 4
_acosf	PROC						; COMDAT

; 623  :         {

  00000	55		 push	 ebp
  00001	8b ec		 mov	 ebp, esp
  00003	83 ec 44	 sub	 esp, 68			; 00000044H
  00006	53		 push	 ebx
  00007	56		 push	 esi
  00008	57		 push	 edi

; 624  :             return (float)acos(_X);

  00009	f3 0f 5a 45 08	 cvtss2sd xmm0, DWORD PTR __X$[ebp]
  0000e	83 ec 08	 sub	 esp, 8
  00011	f2 0f 11 04 24	 movsd	 QWORD PTR [esp], xmm0
  00016	e8 00 00 00 00	 call	 _acos
  0001b	83 c4 08	 add	 esp, 8
  0001e	d9 5d bc	 fstp	 DWORD PTR tv71[ebp]
  00021	d9 45 bc	 fld	 DWORD PTR tv71[ebp]

; 625  :         }

  00024	5f		 pop	 edi
  00025	5e		 pop	 esi
  00026	5b		 pop	 ebx
  00027	8b e5		 mov	 esp, ebp
  00029	5d		 pop	 ebp
  0002a	c3		 ret	 0
_acosf	ENDP
_TEXT	ENDS
END
