; Listing generated by Microsoft (R) Optimizing Compiler Version 19.16.27045.0 

	TITLE	C:\Users\nhv90\Projects\eech\aphavoc\source\entity\mobile\vehicle\anti_air\aa_dstry.c
	.686P
	.XMM
	include listing.inc
	.model	flat

INCLUDELIB MSVCRTD
INCLUDELIB OLDNAMES

PUBLIC	?overload_anti_aircraft_destroy_functions@@YGXXZ ; overload_anti_aircraft_destroy_functions
PUBLIC	?kill_local_restored_anti_aircraft_entity@@YGXPAUENTITY@@@Z ; kill_local_restored_anti_aircraft_entity
PUBLIC	?__LINE__Var@?0??destroy_local@@YGXPAUENTITY@@@Z@4JA ; `destroy_local'::`1'::__LINE__Var
PUBLIC	??_C@_0FG@BKDCFGHH@c?3?2users?2nhv90?2projects?2eech?2ap@ ; `string'
PUBLIC	?__LINE__Var@?0??destroy_server@@YGXPAUENTITY@@@Z@4JA ; `destroy_server'::`1'::__LINE__Var
PUBLIC	??_C@_0CC@BNNNEGEG@assert_client_server_remote_fn?5@ ; `string'
PUBLIC	??_C@_0CB@CFOCLFOK@assert_client_server_local_fn?5?$CI@ ; `string'
PUBLIC	?__LINE__Var@?0??destroy_client@@YGXPAUENTITY@@@Z@4JA ; `destroy_client'::`1'::__LINE__Var
PUBLIC	?__LINE__Var@?0??destroy_server_family@@YGXPAUENTITY@@@Z@4JA ; `destroy_server_family'::`1'::__LINE__Var
PUBLIC	?__LINE__Var@?0??kill_local@@YGXPAUENTITY@@@Z@4JA ; `kill_local'::`1'::__LINE__Var
PUBLIC	??_C@_05MGJOOGAJ@group@				; `string'
PUBLIC	?__LINE__Var@?0??kill_server@@YGXPAUENTITY@@@Z@4JA ; `kill_server'::`1'::__LINE__Var
PUBLIC	?__LINE__Var@?0??kill_client@@YGXPAUENTITY@@@Z@4JA ; `kill_client'::`1'::__LINE__Var
PUBLIC	?__LINE__Var@?0??kill_local_restored_anti_aircraft_entity@@YGXPAUENTITY@@@Z@4JA ; `kill_local_restored_anti_aircraft_entity'::`1'::__LINE__Var
EXTRN	?process_assert@@YGXPBD0H@Z:PROC		; process_assert
EXTRN	?free_mem@@YGXPAX@Z:PROC			; free_mem
EXTRN	?destruct_3d_object@@YGXPAUOBJECT_3D_INSTANCE@@@Z:PROC ; destruct_3d_object
EXTRN	?destroy_system_sound_effect@@YGXPAUSYSTEM_SOUND_EFFECT@@@Z:PROC ; destroy_system_sound_effect
EXTRN	?notify_local_entity@@YAHW4ENTITY_MESSAGES@@PAUENTITY@@1ZZ:PROC ; notify_local_entity
EXTRN	?delete_local_entity_from_parents_child_list@@YGXPAUENTITY@@W4LIST_TYPES@@@Z:PROC ; delete_local_entity_from_parents_child_list
EXTRN	?unlink_local_entity_children@@YGXPAUENTITY@@W4LIST_TYPES@@@Z:PROC ; unlink_local_entity_children
EXTRN	?destroy_local_entity@@YGXPAUENTITY@@@Z:PROC	; destroy_local_entity
EXTRN	?destroy_local_entity_children@@YGXPAUENTITY@@W4LIST_TYPES@@@Z:PROC ; destroy_local_entity_children
EXTRN	?destroy_client_server_entity_children@@YGXPAUENTITY@@W4LIST_TYPES@@@Z:PROC ; destroy_client_server_entity_children
EXTRN	?transmit_entity_comms_message@@YAXW4ENTITY_COMMS_MESSAGES@@PAUENTITY@@ZZ:PROC ; transmit_entity_comms_message
EXTRN	?assert_client_server_local_fn@@YGHXZ:PROC	; assert_client_server_local_fn
EXTRN	?assert_client_server_remote_fn@@YGHXZ:PROC	; assert_client_server_remote_fn
EXTRN	?set_free_entity@@YGXPAUENTITY@@@Z:PROC		; set_free_entity
EXTRN	?damage_anti_aircraft_3d_object@@YGXPAUENTITY@@@Z:PROC ; damage_anti_aircraft_3d_object
EXTRN	?create_client_server_object_killed_explosion_effect@@YGXPAUENTITY@@@Z:PROC ; create_client_server_object_killed_explosion_effect
EXTRN	?kill_local_entity_sound_type@@YGXPAUENTITY@@H@Z:PROC ; kill_local_entity_sound_type
EXTRN	?destroy_local_sound_effects@@YGXPAUENTITY@@@Z:PROC ; destroy_local_sound_effects
EXTRN	?destroy_client_server_sound_effects@@YGXPAUENTITY@@@Z:PROC ; destroy_client_server_sound_effects
EXTRN	?get_local_force_entity@@YGPAUENTITY@@W4ENTITY_SIDES@@@Z:PROC ; get_local_force_entity
EXTRN	?remove_from_force_info@@YGXPAUENTITY@@0@Z:PROC	; remove_from_force_info
EXTRN	?release_mobile_entity_landing_locks@@YGXPAUENTITY@@@Z:PROC ; release_mobile_entity_landing_locks
EXTRN	?remove_mobile_values_from_sector@@YGXPAUENTITY@@0@Z:PROC ; remove_mobile_values_from_sector
EXTRN	?notify_campaign_screen@@YGHW4CAMPAIGN_SCREEN_MESSAGES@@PAUENTITY@@@Z:PROC ; notify_campaign_screen
EXTRN	?write_tacview_unit_event@@YGXPAUENTITY@@W4tacview_event_type@@0@Z:PROC ; write_tacview_unit_event
EXTRN	?null_entity_pointer_message@@3PBDB:DWORD	; null_entity_pointer_message
EXTRN	?system_comms_model@@3W4COMMS_MODEL_TYPES@@A:DWORD ; system_comms_model
EXTRN	?system_comms_data_flow@@3W4COMMS_DATA_FLOW_TYPES@@A:DWORD ; system_comms_data_flow
EXTRN	?overload_invalid_list_type_message@@3PBDB:DWORD ; overload_invalid_list_type_message
EXTRN	?fn_get_local_entity_first_child@@3PAY0CN@P6GPAUENTITY@@PAU1@W4LIST_TYPES@@@ZA:BYTE ; fn_get_local_entity_first_child
EXTRN	?fn_get_local_entity_parent@@3PAY0CN@P6GPAUENTITY@@PAU1@W4LIST_TYPES@@@ZA:BYTE ; fn_get_local_entity_parent
EXTRN	?fn_get_local_entity_child_succ@@3PAY0CN@P6GPAUENTITY@@PAU1@W4LIST_TYPES@@@ZA:BYTE ; fn_get_local_entity_child_succ
EXTRN	?fn_destroy_local_entity@@3PAP6GXPAUENTITY@@@ZA:BYTE ; fn_destroy_local_entity
EXTRN	?fn_destroy_client_server_entity@@3PAY01P6GXPAUENTITY@@@ZA:BYTE ; fn_destroy_client_server_entity
EXTRN	?fn_destroy_local_entity_family@@3PAP6GXPAUENTITY@@@ZA:BYTE ; fn_destroy_local_entity_family
EXTRN	?fn_destroy_client_server_entity_family@@3PAY01P6GXPAUENTITY@@@ZA:BYTE ; fn_destroy_client_server_entity_family
EXTRN	?fn_kill_local_entity@@3PAP6GXPAUENTITY@@@ZA:BYTE ; fn_kill_local_entity
EXTRN	?fn_kill_client_server_entity@@3PAY01P6GXPAUENTITY@@@ZA:BYTE ; fn_kill_client_server_entity
EXTRN	?overload_invalid_int_type_message@@3PBDB:DWORD	; overload_invalid_int_type_message
EXTRN	?fn_set_local_entity_int_value@@3PAY0BBH@P6GXPAUENTITY@@W4INT_TYPES@@H@ZA:BYTE ; fn_set_local_entity_int_value
EXTRN	?fn_get_local_entity_int_value@@3PAY0BBH@P6GHPAUENTITY@@W4INT_TYPES@@@ZA:BYTE ; fn_get_local_entity_int_value
EXTRN	?tacview_log_file@@3PAU_iobuf@@A:DWORD		; tacview_log_file
;	COMDAT ?__LINE__Var@?0??kill_local_restored_anti_aircraft_entity@@YGXPAUENTITY@@@Z@4JA
_DATA	SEGMENT
?__LINE__Var@?0??kill_local_restored_anti_aircraft_entity@@YGXPAUENTITY@@@Z@4JA DD 0248H ; `kill_local_restored_anti_aircraft_entity'::`1'::__LINE__Var
_DATA	ENDS
;	COMDAT ?__LINE__Var@?0??kill_client@@YGXPAUENTITY@@@Z@4JA
_DATA	SEGMENT
?__LINE__Var@?0??kill_client@@YGXPAUENTITY@@@Z@4JA DD 021dH ; `kill_client'::`1'::__LINE__Var
_DATA	ENDS
;	COMDAT ?__LINE__Var@?0??kill_server@@YGXPAUENTITY@@@Z@4JA
_DATA	SEGMENT
?__LINE__Var@?0??kill_server@@YGXPAUENTITY@@@Z@4JA DD 0206H ; `kill_server'::`1'::__LINE__Var
_DATA	ENDS
;	COMDAT ??_C@_05MGJOOGAJ@group@
CONST	SEGMENT
??_C@_05MGJOOGAJ@group@ DB 'group', 00H			; `string'
CONST	ENDS
;	COMDAT ?__LINE__Var@?0??kill_local@@YGXPAUENTITY@@@Z@4JA
_DATA	SEGMENT
?__LINE__Var@?0??kill_local@@YGXPAUENTITY@@@Z@4JA DD 0128H ; `kill_local'::`1'::__LINE__Var
_DATA	ENDS
;	COMDAT ?__LINE__Var@?0??destroy_server_family@@YGXPAUENTITY@@@Z@4JA
_DATA	SEGMENT
?__LINE__Var@?0??destroy_server_family@@YGXPAUENTITY@@@Z@4JA DD 010aH ; `destroy_server_family'::`1'::__LINE__Var
_DATA	ENDS
;	COMDAT ?__LINE__Var@?0??destroy_client@@YGXPAUENTITY@@@Z@4JA
_DATA	SEGMENT
?__LINE__Var@?0??destroy_client@@YGXPAUENTITY@@@Z@4JA DD 0e3H ; `destroy_client'::`1'::__LINE__Var
_DATA	ENDS
;	COMDAT ??_C@_0CB@CFOCLFOK@assert_client_server_local_fn?5?$CI@
CONST	SEGMENT
??_C@_0CB@CFOCLFOK@assert_client_server_local_fn?5?$CI@ DB 'assert_client'
	DB	'_server_local_fn ()', 00H			; `string'
CONST	ENDS
;	COMDAT ??_C@_0CC@BNNNEGEG@assert_client_server_remote_fn?5@
CONST	SEGMENT
??_C@_0CC@BNNNEGEG@assert_client_server_remote_fn?5@ DB 'assert_client_se'
	DB	'rver_remote_fn ()', 00H			; `string'
CONST	ENDS
;	COMDAT ?__LINE__Var@?0??destroy_server@@YGXPAUENTITY@@@Z@4JA
_DATA	SEGMENT
?__LINE__Var@?0??destroy_server@@YGXPAUENTITY@@@Z@4JA DD 0ccH ; `destroy_server'::`1'::__LINE__Var
_DATA	ENDS
;	COMDAT ??_C@_0FG@BKDCFGHH@c?3?2users?2nhv90?2projects?2eech?2ap@
CONST	SEGMENT
??_C@_0FG@BKDCFGHH@c?3?2users?2nhv90?2projects?2eech?2ap@ DB 'c:\users\nh'
	DB	'v90\projects\eech\aphavoc\source\entity\mobile\vehicle\anti_a'
	DB	'ir\aa_dstry.c', 00H				; `string'
CONST	ENDS
;	COMDAT ?__LINE__Var@?0??destroy_local@@YGXPAUENTITY@@@Z@4JA
_DATA	SEGMENT
?__LINE__Var@?0??destroy_local@@YGXPAUENTITY@@@Z@4JA DD 054H ; `destroy_local'::`1'::__LINE__Var
_DATA	ENDS
; Function compile flags: /Odtp /ZI
; File c:\users\nhv90\projects\eech\aphavoc\source\entity\mobile\vehicle\anti_air\aa_dstry.c
;	COMDAT ?kill_client@@YGXPAUENTITY@@@Z
_TEXT	SEGMENT
tv84 = -68						; size = 4
_en$ = 8						; size = 4
?kill_client@@YGXPAUENTITY@@@Z PROC			; kill_client, COMDAT

; 541  : {

  00000	55		 push	 ebp
  00001	8b ec		 mov	 ebp, esp
  00003	83 ec 44	 sub	 esp, 68			; 00000044H
  00006	53		 push	 ebx
  00007	56		 push	 esi
  00008	57		 push	 edi

; 542  : 	if (get_comms_data_flow () == COMMS_DATA_FLOW_TX)

  00009	83 3d 00 00 00
	00 00		 cmp	 DWORD PTR ?system_comms_data_flow@@3W4COMMS_DATA_FLOW_TYPES@@A, 0 ; system_comms_data_flow
  00010	75 2c		 jne	 SHORT $LN2@kill_clien

; 543  : 	{
; 544  : 		validate_client_server_remote_fn ();

  00012	e8 00 00 00 00	 call	 ?assert_client_server_remote_fn@@YGHXZ ; assert_client_server_remote_fn
  00017	85 c0		 test	 eax, eax
  00019	75 18		 jne	 SHORT $LN4@kill_clien
  0001b	a1 00 00 00 00	 mov	 eax, DWORD PTR ?__LINE__Var@?0??kill_client@@YGXPAUENTITY@@@Z@4JA
  00020	83 c0 03	 add	 eax, 3
  00023	50		 push	 eax
  00024	68 00 00 00 00	 push	 OFFSET ??_C@_0FG@BKDCFGHH@c?3?2users?2nhv90?2projects?2eech?2ap@
  00029	68 00 00 00 00	 push	 OFFSET ??_C@_0CC@BNNNEGEG@assert_client_server_remote_fn?5@
  0002e	e8 00 00 00 00	 call	 ?process_assert@@YGXPBD0H@Z ; process_assert
$LN4@kill_clien:

; 545  : 
; 546  : 		kill_remote (en);

  00033	8b 45 08	 mov	 eax, DWORD PTR _en$[ebp]
  00036	50		 push	 eax
  00037	e8 00 00 00 00	 call	 ?kill_remote@@YGXPAUENTITY@@@Z ; kill_remote

; 547  : 	}
; 548  : 	else

  0003c	eb 62		 jmp	 SHORT $LN1@kill_clien
$LN2@kill_clien:

; 549  : 	{
; 550  : 		validate_client_server_local_fn ();

  0003e	e8 00 00 00 00	 call	 ?assert_client_server_local_fn@@YGHXZ ; assert_client_server_local_fn
  00043	85 c0		 test	 eax, eax
  00045	75 18		 jne	 SHORT $LN5@kill_clien
  00047	a1 00 00 00 00	 mov	 eax, DWORD PTR ?__LINE__Var@?0??kill_client@@YGXPAUENTITY@@@Z@4JA
  0004c	83 c0 09	 add	 eax, 9
  0004f	50		 push	 eax
  00050	68 00 00 00 00	 push	 OFFSET ??_C@_0FG@BKDCFGHH@c?3?2users?2nhv90?2projects?2eech?2ap@
  00055	68 00 00 00 00	 push	 OFFSET ??_C@_0CB@CFOCLFOK@assert_client_server_local_fn?5?$CI@
  0005a	e8 00 00 00 00	 call	 ?process_assert@@YGXPBD0H@Z ; process_assert
$LN5@kill_clien:

; 551  : 
; 552  : 		//
; 553  : 		// kill local using 'full' function
; 554  : 		//
; 555  : 
; 556  : 		kill_local_entity (en);

  0005f	83 7d 08 00	 cmp	 DWORD PTR _en$[ebp], 0
  00063	74 0a		 je	 SHORT $LN7@kill_clien
  00065	8b 45 08	 mov	 eax, DWORD PTR _en$[ebp]
  00068	8b 08		 mov	 ecx, DWORD PTR [eax]
  0006a	89 4d bc	 mov	 DWORD PTR tv84[ebp], ecx
  0006d	eb 21		 jmp	 SHORT $LN8@kill_clien
$LN7@kill_clien:
  0006f	8b 15 00 00 00
	00		 mov	 edx, DWORD PTR ?__LINE__Var@?0??kill_client@@YGXPAUENTITY@@@Z@4JA
  00075	83 c2 0f	 add	 edx, 15			; 0000000fH
  00078	52		 push	 edx
  00079	68 00 00 00 00	 push	 OFFSET ??_C@_0FG@BKDCFGHH@c?3?2users?2nhv90?2projects?2eech?2ap@
  0007e	a1 00 00 00 00	 mov	 eax, DWORD PTR ?null_entity_pointer_message@@3PBDB ; null_entity_pointer_message
  00083	50		 push	 eax
  00084	e8 00 00 00 00	 call	 ?process_assert@@YGXPBD0H@Z ; process_assert
  00089	c7 45 bc 00 00
	00 00		 mov	 DWORD PTR tv84[ebp], 0
$LN8@kill_clien:
  00090	8b 4d 08	 mov	 ecx, DWORD PTR _en$[ebp]
  00093	51		 push	 ecx
  00094	8b 55 bc	 mov	 edx, DWORD PTR tv84[ebp]
  00097	8b 04 95 00 00
	00 00		 mov	 eax, DWORD PTR ?fn_kill_local_entity@@3PAP6GXPAUENTITY@@@ZA[edx*4]
  0009e	ff d0		 call	 eax
$LN1@kill_clien:

; 557  : 	}
; 558  : }

  000a0	5f		 pop	 edi
  000a1	5e		 pop	 esi
  000a2	5b		 pop	 ebx
  000a3	8b e5		 mov	 esp, ebp
  000a5	5d		 pop	 ebp
  000a6	c2 04 00	 ret	 4
?kill_client@@YGXPAUENTITY@@@Z ENDP			; kill_client
_TEXT	ENDS
; Function compile flags: /Odtp /ZI
; File c:\users\nhv90\projects\eech\aphavoc\source\entity\mobile\vehicle\anti_air\aa_dstry.c
;	COMDAT ?kill_server@@YGXPAUENTITY@@@Z
_TEXT	SEGMENT
tv83 = -68						; size = 4
_en$ = 8						; size = 4
?kill_server@@YGXPAUENTITY@@@Z PROC			; kill_server, COMDAT

; 518  : {

  00000	55		 push	 ebp
  00001	8b ec		 mov	 ebp, esp
  00003	83 ec 44	 sub	 esp, 68			; 00000044H
  00006	53		 push	 ebx
  00007	56		 push	 esi
  00008	57		 push	 edi

; 519  : 	//
; 520  : 	// kill remote entity first (keeping local entity valid)
; 521  : 	//
; 522  : 
; 523  : 	validate_client_server_remote_fn ();

  00009	e8 00 00 00 00	 call	 ?assert_client_server_remote_fn@@YGHXZ ; assert_client_server_remote_fn
  0000e	85 c0		 test	 eax, eax
  00010	75 18		 jne	 SHORT $LN2@kill_serve
  00012	a1 00 00 00 00	 mov	 eax, DWORD PTR ?__LINE__Var@?0??kill_server@@YGXPAUENTITY@@@Z@4JA
  00017	83 c0 05	 add	 eax, 5
  0001a	50		 push	 eax
  0001b	68 00 00 00 00	 push	 OFFSET ??_C@_0FG@BKDCFGHH@c?3?2users?2nhv90?2projects?2eech?2ap@
  00020	68 00 00 00 00	 push	 OFFSET ??_C@_0CC@BNNNEGEG@assert_client_server_remote_fn?5@
  00025	e8 00 00 00 00	 call	 ?process_assert@@YGXPBD0H@Z ; process_assert
$LN2@kill_serve:

; 524  : 
; 525  : 	kill_remote (en);

  0002a	8b 45 08	 mov	 eax, DWORD PTR _en$[ebp]
  0002d	50		 push	 eax
  0002e	e8 00 00 00 00	 call	 ?kill_remote@@YGXPAUENTITY@@@Z ; kill_remote

; 526  : 
; 527  : 	validate_client_server_local_fn ();

  00033	e8 00 00 00 00	 call	 ?assert_client_server_local_fn@@YGHXZ ; assert_client_server_local_fn
  00038	85 c0		 test	 eax, eax
  0003a	75 18		 jne	 SHORT $LN3@kill_serve
  0003c	a1 00 00 00 00	 mov	 eax, DWORD PTR ?__LINE__Var@?0??kill_server@@YGXPAUENTITY@@@Z@4JA
  00041	83 c0 09	 add	 eax, 9
  00044	50		 push	 eax
  00045	68 00 00 00 00	 push	 OFFSET ??_C@_0FG@BKDCFGHH@c?3?2users?2nhv90?2projects?2eech?2ap@
  0004a	68 00 00 00 00	 push	 OFFSET ??_C@_0CB@CFOCLFOK@assert_client_server_local_fn?5?$CI@
  0004f	e8 00 00 00 00	 call	 ?process_assert@@YGXPBD0H@Z ; process_assert
$LN3@kill_serve:

; 528  : 
; 529  : 	//
; 530  : 	// kill local using 'full' function
; 531  : 	//
; 532  : 
; 533  : 	kill_local_entity (en);

  00054	83 7d 08 00	 cmp	 DWORD PTR _en$[ebp], 0
  00058	74 0a		 je	 SHORT $LN5@kill_serve
  0005a	8b 45 08	 mov	 eax, DWORD PTR _en$[ebp]
  0005d	8b 08		 mov	 ecx, DWORD PTR [eax]
  0005f	89 4d bc	 mov	 DWORD PTR tv83[ebp], ecx
  00062	eb 21		 jmp	 SHORT $LN6@kill_serve
$LN5@kill_serve:
  00064	8b 15 00 00 00
	00		 mov	 edx, DWORD PTR ?__LINE__Var@?0??kill_server@@YGXPAUENTITY@@@Z@4JA
  0006a	83 c2 0f	 add	 edx, 15			; 0000000fH
  0006d	52		 push	 edx
  0006e	68 00 00 00 00	 push	 OFFSET ??_C@_0FG@BKDCFGHH@c?3?2users?2nhv90?2projects?2eech?2ap@
  00073	a1 00 00 00 00	 mov	 eax, DWORD PTR ?null_entity_pointer_message@@3PBDB ; null_entity_pointer_message
  00078	50		 push	 eax
  00079	e8 00 00 00 00	 call	 ?process_assert@@YGXPBD0H@Z ; process_assert
  0007e	c7 45 bc 00 00
	00 00		 mov	 DWORD PTR tv83[ebp], 0
$LN6@kill_serve:
  00085	8b 4d 08	 mov	 ecx, DWORD PTR _en$[ebp]
  00088	51		 push	 ecx
  00089	8b 55 bc	 mov	 edx, DWORD PTR tv83[ebp]
  0008c	8b 04 95 00 00
	00 00		 mov	 eax, DWORD PTR ?fn_kill_local_entity@@3PAP6GXPAUENTITY@@@ZA[edx*4]
  00093	ff d0		 call	 eax

; 534  : }

  00095	5f		 pop	 edi
  00096	5e		 pop	 esi
  00097	5b		 pop	 ebx
  00098	8b e5		 mov	 esp, ebp
  0009a	5d		 pop	 ebp
  0009b	c2 04 00	 ret	 4
?kill_server@@YGXPAUENTITY@@@Z ENDP			; kill_server
_TEXT	ENDS
; Function compile flags: /Odtp /ZI
; File c:\users\nhv90\projects\eech\aphavoc\source\entity\mobile\vehicle\anti_air\aa_dstry.c
;	COMDAT ?kill_remote@@YGXPAUENTITY@@@Z
_TEXT	SEGMENT
_en$ = 8						; size = 4
?kill_remote@@YGXPAUENTITY@@@Z PROC			; kill_remote, COMDAT

; 503  : {

  00000	55		 push	 ebp
  00001	8b ec		 mov	 ebp, esp
  00003	83 ec 40	 sub	 esp, 64			; 00000040H
  00006	53		 push	 ebx
  00007	56		 push	 esi
  00008	57		 push	 edi

; 504  : 	#if DEBUG_MODULE >= 2
; 505  : 
; 506  : 	debug_log_entity_args (ENTITY_DEBUG_REMOTE, ENTITY_DEBUG_kill, en);
; 507  : 
; 508  : 	#endif
; 509  : 
; 510  : 	transmit_entity_comms_message (ENTITY_COMMS_KILL, en);

  00009	8b 45 08	 mov	 eax, DWORD PTR _en$[ebp]
  0000c	50		 push	 eax
  0000d	6a 18		 push	 24			; 00000018H
  0000f	e8 00 00 00 00	 call	 ?transmit_entity_comms_message@@YAXW4ENTITY_COMMS_MESSAGES@@PAUENTITY@@ZZ ; transmit_entity_comms_message
  00014	83 c4 08	 add	 esp, 8

; 511  : }

  00017	5f		 pop	 edi
  00018	5e		 pop	 esi
  00019	5b		 pop	 ebx
  0001a	8b e5		 mov	 esp, ebp
  0001c	5d		 pop	 ebp
  0001d	c2 04 00	 ret	 4
?kill_remote@@YGXPAUENTITY@@@Z ENDP			; kill_remote
_TEXT	ENDS
; Function compile flags: /Odtp /ZI
; File c:\users\nhv90\projects\eech\aphavoc\source\entity\mobile\vehicle\anti_air\aa_dstry.c
;	COMDAT ?kill_local@@YGXPAUENTITY@@@Z
_TEXT	SEGMENT
tv324 = -92						; size = 4
tv303 = -92						; size = 4
tv282 = -92						; size = 4
tv261 = -92						; size = 4
tv240 = -92						; size = 4
tv190 = -92						; size = 4
tv169 = -92						; size = 4
tv130 = -92						; size = 4
tv76 = -92						; size = 4
tv316 = -88						; size = 4
tv295 = -88						; size = 4
tv274 = -88						; size = 4
tv253 = -88						; size = 4
tv232 = -88						; size = 4
tv201 = -88						; size = 4
tv182 = -88						; size = 4
tv161 = -88						; size = 4
tv90 = -88						; size = 4
tv69 = -88						; size = 4
_group$ = -20						; size = 4
_destroy_task$ = -16					; size = 4
_task$ = -12						; size = 4
_losses$ = -8						; size = 4
_raw$ = -4						; size = 4
_en$ = 8						; size = 4
?kill_local@@YGXPAUENTITY@@@Z PROC			; kill_local, COMDAT

; 296  : {

  00000	55		 push	 ebp
  00001	8b ec		 mov	 ebp, esp
  00003	83 ec 5c	 sub	 esp, 92			; 0000005cH
  00006	53		 push	 ebx
  00007	56		 push	 esi
  00008	57		 push	 edi

; 297  : 
; 298  : 	anti_aircraft
; 299  : 		*raw;
; 300  : 
; 301  : 	int
; 302  : 		losses;
; 303  : 
; 304  : 	entity
; 305  : 		*task,
; 306  : 		*destroy_task,
; 307  : 		*group;
; 308  : 
; 309  : 	////////////////////////////////////////
; 310  : 	//
; 311  : 	// PRE-AMBLE
; 312  : 	//
; 313  : 	////////////////////////////////////////
; 314  : 
; 315  : 	#if DEBUG_MODULE >= 2
; 316  : 
; 317  : 	debug_log_entity_args (ENTITY_DEBUG_LOCAL, ENTITY_DEBUG_KILL, en);
; 318  : 
; 319  : 	#endif
; 320  : 
; 321  : 	if (!get_local_entity_int_value (en, INT_TYPE_ALIVE))

  00009	83 7d 08 00	 cmp	 DWORD PTR _en$[ebp], 0
  0000d	74 0a		 je	 SHORT $LN12@kill_local
  0000f	8b 45 08	 mov	 eax, DWORD PTR _en$[ebp]
  00012	8b 08		 mov	 ecx, DWORD PTR [eax]
  00014	89 4d a8	 mov	 DWORD PTR tv69[ebp], ecx
  00017	eb 1d		 jmp	 SHORT $LN13@kill_local
$LN12@kill_local:
  00019	68 41 01 00 00	 push	 321			; 00000141H
  0001e	68 00 00 00 00	 push	 OFFSET ??_C@_0FG@BKDCFGHH@c?3?2users?2nhv90?2projects?2eech?2ap@
  00023	8b 15 00 00 00
	00		 mov	 edx, DWORD PTR ?null_entity_pointer_message@@3PBDB ; null_entity_pointer_message
  00029	52		 push	 edx
  0002a	e8 00 00 00 00	 call	 ?process_assert@@YGXPBD0H@Z ; process_assert
  0002f	c7 45 a8 00 00
	00 00		 mov	 DWORD PTR tv69[ebp], 0
$LN13@kill_local:
  00036	b8 01 00 00 00	 mov	 eax, 1
  0003b	85 c0		 test	 eax, eax
  0003d	74 09		 je	 SHORT $LN14@kill_local
  0003f	c7 45 a4 07 00
	00 00		 mov	 DWORD PTR tv76[ebp], 7
  00046	eb 1d		 jmp	 SHORT $LN15@kill_local
$LN14@kill_local:
  00048	68 41 01 00 00	 push	 321			; 00000141H
  0004d	68 00 00 00 00	 push	 OFFSET ??_C@_0FG@BKDCFGHH@c?3?2users?2nhv90?2projects?2eech?2ap@
  00052	8b 0d 00 00 00
	00		 mov	 ecx, DWORD PTR ?overload_invalid_int_type_message@@3PBDB ; overload_invalid_int_type_message
  00058	51		 push	 ecx
  00059	e8 00 00 00 00	 call	 ?process_assert@@YGXPBD0H@Z ; process_assert
  0005e	c7 45 a4 00 00
	00 00		 mov	 DWORD PTR tv76[ebp], 0
$LN15@kill_local:
  00065	6a 07		 push	 7
  00067	8b 55 08	 mov	 edx, DWORD PTR _en$[ebp]
  0006a	52		 push	 edx
  0006b	69 45 a8 5c 04
	00 00		 imul	 eax, DWORD PTR tv69[ebp], 1116
  00072	8b 4d a4	 mov	 ecx, DWORD PTR tv76[ebp]
  00075	8b 94 88 00 00
	00 00		 mov	 edx, DWORD PTR ?fn_get_local_entity_int_value@@3PAY0BBH@P6GHPAUENTITY@@W4INT_TYPES@@@ZA[eax+ecx*4]
  0007c	ff d2		 call	 edx
  0007e	85 c0		 test	 eax, eax
  00080	75 05		 jne	 SHORT $LN4@kill_local

; 322  : 	{
; 323  : 		return;

  00082	e9 9e 05 00 00	 jmp	 $LN1@kill_local
$LN4@kill_local:

; 324  : 	}
; 325  : 
; 326  : 	raw = (anti_aircraft *) get_local_entity_data (en);

  00087	8b 45 08	 mov	 eax, DWORD PTR _en$[ebp]
  0008a	8b 48 04	 mov	 ecx, DWORD PTR [eax+4]
  0008d	89 4d fc	 mov	 DWORD PTR _raw$[ebp], ecx

; 327  : 
; 328  : 	group = get_local_entity_parent (en, LIST_TYPE_MEMBER);

  00090	83 7d 08 00	 cmp	 DWORD PTR _en$[ebp], 0
  00094	74 0a		 je	 SHORT $LN16@kill_local
  00096	8b 45 08	 mov	 eax, DWORD PTR _en$[ebp]
  00099	8b 08		 mov	 ecx, DWORD PTR [eax]
  0009b	89 4d a8	 mov	 DWORD PTR tv90[ebp], ecx
  0009e	eb 21		 jmp	 SHORT $LN17@kill_local
$LN16@kill_local:
  000a0	8b 15 00 00 00
	00		 mov	 edx, DWORD PTR ?__LINE__Var@?0??kill_local@@YGXPAUENTITY@@@Z@4JA
  000a6	83 c2 20	 add	 edx, 32			; 00000020H
  000a9	52		 push	 edx
  000aa	68 00 00 00 00	 push	 OFFSET ??_C@_0FG@BKDCFGHH@c?3?2users?2nhv90?2projects?2eech?2ap@
  000af	a1 00 00 00 00	 mov	 eax, DWORD PTR ?null_entity_pointer_message@@3PBDB ; null_entity_pointer_message
  000b4	50		 push	 eax
  000b5	e8 00 00 00 00	 call	 ?process_assert@@YGXPBD0H@Z ; process_assert
  000ba	c7 45 a8 00 00
	00 00		 mov	 DWORD PTR tv90[ebp], 0
$LN17@kill_local:
  000c1	b9 01 00 00 00	 mov	 ecx, 1
  000c6	85 c9		 test	 ecx, ecx
  000c8	74 09		 je	 SHORT $LN18@kill_local
  000ca	c7 45 a4 19 00
	00 00		 mov	 DWORD PTR tv130[ebp], 25 ; 00000019H
  000d1	eb 21		 jmp	 SHORT $LN19@kill_local
$LN18@kill_local:
  000d3	8b 15 00 00 00
	00		 mov	 edx, DWORD PTR ?__LINE__Var@?0??kill_local@@YGXPAUENTITY@@@Z@4JA
  000d9	83 c2 20	 add	 edx, 32			; 00000020H
  000dc	52		 push	 edx
  000dd	68 00 00 00 00	 push	 OFFSET ??_C@_0FG@BKDCFGHH@c?3?2users?2nhv90?2projects?2eech?2ap@
  000e2	a1 00 00 00 00	 mov	 eax, DWORD PTR ?overload_invalid_list_type_message@@3PBDB ; overload_invalid_list_type_message
  000e7	50		 push	 eax
  000e8	e8 00 00 00 00	 call	 ?process_assert@@YGXPBD0H@Z ; process_assert
  000ed	c7 45 a4 00 00
	00 00		 mov	 DWORD PTR tv130[ebp], 0
$LN19@kill_local:
  000f4	6a 19		 push	 25			; 00000019H
  000f6	8b 4d 08	 mov	 ecx, DWORD PTR _en$[ebp]
  000f9	51		 push	 ecx
  000fa	69 55 a8 b4 00
	00 00		 imul	 edx, DWORD PTR tv90[ebp], 180
  00101	8b 45 a4	 mov	 eax, DWORD PTR tv130[ebp]
  00104	8b 8c 82 00 00
	00 00		 mov	 ecx, DWORD PTR ?fn_get_local_entity_parent@@3PAY0CN@P6GPAUENTITY@@PAU1@W4LIST_TYPES@@@ZA[edx+eax*4]
  0010b	ff d1		 call	 ecx
  0010d	89 45 ec	 mov	 DWORD PTR _group$[ebp], eax

; 329  : 
; 330  : 	ASSERT (group);

  00110	83 7d ec 00	 cmp	 DWORD PTR _group$[ebp], 0
  00114	75 18		 jne	 SHORT $LN5@kill_local
  00116	a1 00 00 00 00	 mov	 eax, DWORD PTR ?__LINE__Var@?0??kill_local@@YGXPAUENTITY@@@Z@4JA
  0011b	83 c0 22	 add	 eax, 34			; 00000022H
  0011e	50		 push	 eax
  0011f	68 00 00 00 00	 push	 OFFSET ??_C@_0FG@BKDCFGHH@c?3?2users?2nhv90?2projects?2eech?2ap@
  00124	68 00 00 00 00	 push	 OFFSET ??_C@_05MGJOOGAJ@group@
  00129	e8 00 00 00 00	 call	 ?process_assert@@YGXPBD0H@Z ; process_assert
$LN5@kill_local:

; 331  : 
; 332  : 	if (tacview_is_logging())

  0012e	83 3d 00 00 00
	00 00		 cmp	 DWORD PTR ?tacview_log_file@@3PAU_iobuf@@A, 0 ; tacview_log_file
  00135	74 0d		 je	 SHORT $LN6@kill_local

; 333  : 		write_tacview_unit_event(en, TACVIEW_UNIT_DESTROYED, NULL);

  00137	6a 00		 push	 0
  00139	6a 01		 push	 1
  0013b	8b 45 08	 mov	 eax, DWORD PTR _en$[ebp]
  0013e	50		 push	 eax
  0013f	e8 00 00 00 00	 call	 ?write_tacview_unit_event@@YGXPAUENTITY@@W4tacview_event_type@@0@Z ; write_tacview_unit_event
$LN6@kill_local:

; 334  : 
; 335  : 	//
; 336  : 	// update force info
; 337  : 	//
; 338  : 
; 339  : 	remove_from_force_info (get_local_force_entity ((entity_sides) raw->vh.mob.side), en);

  00144	8b 45 08	 mov	 eax, DWORD PTR _en$[ebp]
  00147	50		 push	 eax
  00148	8b 4d fc	 mov	 ecx, DWORD PTR _raw$[ebp]
  0014b	8b 51 7c	 mov	 edx, DWORD PTR [ecx+124]
  0014e	d1 ea		 shr	 edx, 1
  00150	83 e2 03	 and	 edx, 3
  00153	52		 push	 edx
  00154	e8 00 00 00 00	 call	 ?get_local_force_entity@@YGPAUENTITY@@W4ENTITY_SIDES@@@Z ; get_local_force_entity
  00159	50		 push	 eax
  0015a	e8 00 00 00 00	 call	 ?remove_from_force_info@@YGXPAUENTITY@@0@Z ; remove_from_force_info

; 340  : 
; 341  : 	////////////////////////////////////////
; 342  : 	//
; 343  : 	// VALIDATE
; 344  : 	//
; 345  : 	////////////////////////////////////////
; 346  : 
; 347  : 	////////////////////////////////////////
; 348  : 	//
; 349  : 	// DESTROY COMPONENTS
; 350  : 	//
; 351  : 	////////////////////////////////////////
; 352  : 
; 353  : 	if (get_comms_model () == COMMS_MODEL_SERVER)

  0015f	83 3d 00 00 00
	00 00		 cmp	 DWORD PTR ?system_comms_model@@3W4COMMS_MODEL_TYPES@@A, 0 ; system_comms_model
  00166	0f 85 65 01 00
	00		 jne	 $LN7@kill_local

; 354  : 	{
; 355  : 		////////////////////////////////////////
; 356  : 		//
; 357  : 		// SEND NOTIFY MESSAGES
; 358  : 		//
; 359  : 		////////////////////////////////////////
; 360  : 
; 361  : 		//
; 362  : 		//
; 363  : 		//
; 364  : 
; 365  : 		task = get_local_entity_first_child (en, LIST_TYPE_TASK_DEPENDENT);

  0016c	83 7d 08 00	 cmp	 DWORD PTR _en$[ebp], 0
  00170	74 0a		 je	 SHORT $LN20@kill_local
  00172	8b 45 08	 mov	 eax, DWORD PTR _en$[ebp]
  00175	8b 08		 mov	 ecx, DWORD PTR [eax]
  00177	89 4d a8	 mov	 DWORD PTR tv161[ebp], ecx
  0017a	eb 21		 jmp	 SHORT $LN21@kill_local
$LN20@kill_local:
  0017c	8b 15 00 00 00
	00		 mov	 edx, DWORD PTR ?__LINE__Var@?0??kill_local@@YGXPAUENTITY@@@Z@4JA
  00182	83 c2 45	 add	 edx, 69			; 00000045H
  00185	52		 push	 edx
  00186	68 00 00 00 00	 push	 OFFSET ??_C@_0FG@BKDCFGHH@c?3?2users?2nhv90?2projects?2eech?2ap@
  0018b	a1 00 00 00 00	 mov	 eax, DWORD PTR ?null_entity_pointer_message@@3PBDB ; null_entity_pointer_message
  00190	50		 push	 eax
  00191	e8 00 00 00 00	 call	 ?process_assert@@YGXPBD0H@Z ; process_assert
  00196	c7 45 a8 00 00
	00 00		 mov	 DWORD PTR tv161[ebp], 0
$LN21@kill_local:
  0019d	b9 01 00 00 00	 mov	 ecx, 1
  001a2	85 c9		 test	 ecx, ecx
  001a4	74 09		 je	 SHORT $LN22@kill_local
  001a6	c7 45 a4 27 00
	00 00		 mov	 DWORD PTR tv169[ebp], 39 ; 00000027H
  001ad	eb 21		 jmp	 SHORT $LN23@kill_local
$LN22@kill_local:
  001af	8b 15 00 00 00
	00		 mov	 edx, DWORD PTR ?__LINE__Var@?0??kill_local@@YGXPAUENTITY@@@Z@4JA
  001b5	83 c2 45	 add	 edx, 69			; 00000045H
  001b8	52		 push	 edx
  001b9	68 00 00 00 00	 push	 OFFSET ??_C@_0FG@BKDCFGHH@c?3?2users?2nhv90?2projects?2eech?2ap@
  001be	a1 00 00 00 00	 mov	 eax, DWORD PTR ?overload_invalid_list_type_message@@3PBDB ; overload_invalid_list_type_message
  001c3	50		 push	 eax
  001c4	e8 00 00 00 00	 call	 ?process_assert@@YGXPBD0H@Z ; process_assert
  001c9	c7 45 a4 00 00
	00 00		 mov	 DWORD PTR tv169[ebp], 0
$LN23@kill_local:
  001d0	6a 27		 push	 39			; 00000027H
  001d2	8b 4d 08	 mov	 ecx, DWORD PTR _en$[ebp]
  001d5	51		 push	 ecx
  001d6	69 55 a8 b4 00
	00 00		 imul	 edx, DWORD PTR tv161[ebp], 180
  001dd	8b 45 a4	 mov	 eax, DWORD PTR tv169[ebp]
  001e0	8b 8c 82 00 00
	00 00		 mov	 ecx, DWORD PTR ?fn_get_local_entity_first_child@@3PAY0CN@P6GPAUENTITY@@PAU1@W4LIST_TYPES@@@ZA[edx+eax*4]
  001e7	ff d1		 call	 ecx
  001e9	89 45 f4	 mov	 DWORD PTR _task$[ebp], eax
$LN2@kill_local:

; 366  : 
; 367  : 		while (task)

  001ec	83 7d f4 00	 cmp	 DWORD PTR _task$[ebp], 0
  001f0	0f 84 d2 00 00
	00		 je	 $LN3@kill_local

; 368  : 		{
; 369  : 
; 370  : 			destroy_task = task;

  001f6	8b 45 f4	 mov	 eax, DWORD PTR _task$[ebp]
  001f9	89 45 f0	 mov	 DWORD PTR _destroy_task$[ebp], eax

; 371  : 
; 372  : 			task = get_local_entity_child_succ (task, LIST_TYPE_TASK_DEPENDENT);

  001fc	83 7d f4 00	 cmp	 DWORD PTR _task$[ebp], 0
  00200	74 0a		 je	 SHORT $LN24@kill_local
  00202	8b 45 f4	 mov	 eax, DWORD PTR _task$[ebp]
  00205	8b 08		 mov	 ecx, DWORD PTR [eax]
  00207	89 4d a8	 mov	 DWORD PTR tv182[ebp], ecx
  0020a	eb 21		 jmp	 SHORT $LN25@kill_local
$LN24@kill_local:
  0020c	8b 15 00 00 00
	00		 mov	 edx, DWORD PTR ?__LINE__Var@?0??kill_local@@YGXPAUENTITY@@@Z@4JA
  00212	83 c2 4c	 add	 edx, 76			; 0000004cH
  00215	52		 push	 edx
  00216	68 00 00 00 00	 push	 OFFSET ??_C@_0FG@BKDCFGHH@c?3?2users?2nhv90?2projects?2eech?2ap@
  0021b	a1 00 00 00 00	 mov	 eax, DWORD PTR ?null_entity_pointer_message@@3PBDB ; null_entity_pointer_message
  00220	50		 push	 eax
  00221	e8 00 00 00 00	 call	 ?process_assert@@YGXPBD0H@Z ; process_assert
  00226	c7 45 a8 00 00
	00 00		 mov	 DWORD PTR tv182[ebp], 0
$LN25@kill_local:
  0022d	b9 01 00 00 00	 mov	 ecx, 1
  00232	85 c9		 test	 ecx, ecx
  00234	74 09		 je	 SHORT $LN26@kill_local
  00236	c7 45 a4 27 00
	00 00		 mov	 DWORD PTR tv190[ebp], 39 ; 00000027H
  0023d	eb 21		 jmp	 SHORT $LN27@kill_local
$LN26@kill_local:
  0023f	8b 15 00 00 00
	00		 mov	 edx, DWORD PTR ?__LINE__Var@?0??kill_local@@YGXPAUENTITY@@@Z@4JA
  00245	83 c2 4c	 add	 edx, 76			; 0000004cH
  00248	52		 push	 edx
  00249	68 00 00 00 00	 push	 OFFSET ??_C@_0FG@BKDCFGHH@c?3?2users?2nhv90?2projects?2eech?2ap@
  0024e	a1 00 00 00 00	 mov	 eax, DWORD PTR ?overload_invalid_list_type_message@@3PBDB ; overload_invalid_list_type_message
  00253	50		 push	 eax
  00254	e8 00 00 00 00	 call	 ?process_assert@@YGXPBD0H@Z ; process_assert
  00259	c7 45 a4 00 00
	00 00		 mov	 DWORD PTR tv190[ebp], 0
$LN27@kill_local:
  00260	6a 27		 push	 39			; 00000027H
  00262	8b 4d f4	 mov	 ecx, DWORD PTR _task$[ebp]
  00265	51		 push	 ecx
  00266	69 55 a8 b4 00
	00 00		 imul	 edx, DWORD PTR tv182[ebp], 180
  0026d	8b 45 a4	 mov	 eax, DWORD PTR tv190[ebp]
  00270	8b 8c 82 00 00
	00 00		 mov	 ecx, DWORD PTR ?fn_get_local_entity_child_succ@@3PAY0CN@P6GPAUENTITY@@PAU1@W4LIST_TYPES@@@ZA[edx+eax*4]
  00277	ff d1		 call	 ecx
  00279	89 45 f4	 mov	 DWORD PTR _task$[ebp], eax

; 373  : 
; 374  : 			if (get_local_entity_type (destroy_task) == ENTITY_TYPE_TASK)

  0027c	83 7d f0 00	 cmp	 DWORD PTR _destroy_task$[ebp], 0
  00280	74 0a		 je	 SHORT $LN28@kill_local
  00282	8b 45 f0	 mov	 eax, DWORD PTR _destroy_task$[ebp]
  00285	8b 08		 mov	 ecx, DWORD PTR [eax]
  00287	89 4d a8	 mov	 DWORD PTR tv201[ebp], ecx
  0028a	eb 1d		 jmp	 SHORT $LN29@kill_local
$LN28@kill_local:
  0028c	68 76 01 00 00	 push	 374			; 00000176H
  00291	68 00 00 00 00	 push	 OFFSET ??_C@_0FG@BKDCFGHH@c?3?2users?2nhv90?2projects?2eech?2ap@
  00296	8b 15 00 00 00
	00		 mov	 edx, DWORD PTR ?null_entity_pointer_message@@3PBDB ; null_entity_pointer_message
  0029c	52		 push	 edx
  0029d	e8 00 00 00 00	 call	 ?process_assert@@YGXPBD0H@Z ; process_assert
  002a2	c7 45 a8 00 00
	00 00		 mov	 DWORD PTR tv201[ebp], 0
$LN29@kill_local:
  002a9	83 7d a8 22	 cmp	 DWORD PTR tv201[ebp], 34 ; 00000022H
  002ad	75 14		 jne	 SHORT $LN8@kill_local

; 375  : 			{
; 376  : 
; 377  : 				#if DEBUG_MODULE
; 378  : 
; 379  : 				debug_log ("AA_DSTRY: killing routed vehicle, notifying task %s complete", entity_sub_type_task_names [get_local_entity_int_value (destroy_task, INT_TYPE_ENTITY_SUB_TYPE)]);
; 380  : 
; 381  : 				#endif
; 382  : 
; 383  : 				notify_local_entity (ENTITY_MESSAGE_TASK_COMPLETED, destroy_task, en, TASK_TERMINATED_OBJECTIVE_MESSAGE);

  002af	6a 04		 push	 4
  002b1	8b 45 08	 mov	 eax, DWORD PTR _en$[ebp]
  002b4	50		 push	 eax
  002b5	8b 4d f0	 mov	 ecx, DWORD PTR _destroy_task$[ebp]
  002b8	51		 push	 ecx
  002b9	6a 32		 push	 50			; 00000032H
  002bb	e8 00 00 00 00	 call	 ?notify_local_entity@@YAHW4ENTITY_MESSAGES@@PAUENTITY@@1ZZ ; notify_local_entity
  002c0	83 c4 10	 add	 esp, 16			; 00000010H
$LN8@kill_local:

; 384  : 			}
; 385  : 		}

  002c3	e9 24 ff ff ff	 jmp	 $LN2@kill_local
$LN3@kill_local:

; 386  : 
; 387  : 		//
; 388  : 		// Release landing lock (if any)
; 389  : 		//
; 390  : 
; 391  : 		release_mobile_entity_landing_locks (en);

  002c8	8b 45 08	 mov	 eax, DWORD PTR _en$[ebp]
  002cb	50		 push	 eax
  002cc	e8 00 00 00 00	 call	 ?release_mobile_entity_landing_locks@@YGXPAUENTITY@@@Z ; release_mobile_entity_landing_locks
$LN7@kill_local:

; 392  : 	}
; 393  : 
; 394  : 	////////////////////////////////////////
; 395  : 	//
; 396  : 	// UNLINK FROM SYSTEM
; 397  : 	//
; 398  : 	////////////////////////////////////////
; 399  : 
; 400  : 	//
; 401  : 	// anti_aircraft
; 402  : 	//
; 403  : 
; 404  : 	//
; 405  : 	// vehicle
; 406  : 	//
; 407  : 
; 408  : 	unlink_local_entity_children (en, LIST_TYPE_TASK_DEPENDENT);

  002d1	6a 27		 push	 39			; 00000027H
  002d3	8b 45 08	 mov	 eax, DWORD PTR _en$[ebp]
  002d6	50		 push	 eax
  002d7	e8 00 00 00 00	 call	 ?unlink_local_entity_children@@YGXPAUENTITY@@W4LIST_TYPES@@@Z ; unlink_local_entity_children

; 409  : 
; 410  : 	// unlink_local_entity_children (en, LIST_TYPE_LAUNCHED_WEAPON);
; 411  : 
; 412  : 	delete_local_entity_from_parents_child_list (en, LIST_TYPE_MEMBER);

  002dc	6a 19		 push	 25			; 00000019H
  002de	8b 45 08	 mov	 eax, DWORD PTR _en$[ebp]
  002e1	50		 push	 eax
  002e2	e8 00 00 00 00	 call	 ?delete_local_entity_from_parents_child_list@@YGXPAUENTITY@@W4LIST_TYPES@@@Z ; delete_local_entity_from_parents_child_list

; 413  : 
; 414  : 	delete_local_entity_from_parents_child_list (en, LIST_TYPE_FOLLOWER);

  002e7	6a 0d		 push	 13			; 0000000dH
  002e9	8b 45 08	 mov	 eax, DWORD PTR _en$[ebp]
  002ec	50		 push	 eax
  002ed	e8 00 00 00 00	 call	 ?delete_local_entity_from_parents_child_list@@YGXPAUENTITY@@W4LIST_TYPES@@@Z ; delete_local_entity_from_parents_child_list

; 415  : 
; 416  : 	// gunship_target_link
; 417  : 
; 418  : 	// member_link
; 419  : 
; 420  : 	// view_link
; 421  : 
; 422  : 	delete_local_entity_from_parents_child_list (en, LIST_TYPE_TAKEOFF_QUEUE);

  002f2	6a 25		 push	 37			; 00000025H
  002f4	8b 45 08	 mov	 eax, DWORD PTR _en$[ebp]
  002f7	50		 push	 eax
  002f8	e8 00 00 00 00	 call	 ?delete_local_entity_from_parents_child_list@@YGXPAUENTITY@@W4LIST_TYPES@@@Z ; delete_local_entity_from_parents_child_list

; 423  : 
; 424  : 	//
; 425  : 	// mobile
; 426  : 	//
; 427  : 
; 428  : 	//
; 429  : 	// kill weapon sound effects
; 430  : 	//
; 431  : 
; 432  : 	kill_local_entity_sound_type (en, ENTITY_SUB_TYPE_EFFECT_SOUND_CHAIN_GUN);

  002fd	6a 10		 push	 16			; 00000010H
  002ff	8b 45 08	 mov	 eax, DWORD PTR _en$[ebp]
  00302	50		 push	 eax
  00303	e8 00 00 00 00	 call	 ?kill_local_entity_sound_type@@YGXPAUENTITY@@H@Z ; kill_local_entity_sound_type

; 433  : 
; 434  : 	//unlink_local_entity_children (en, LIST_TYPE_SPECIAL_EFFECT);
; 435  : 
; 436  : 	unlink_local_entity_children (en, LIST_TYPE_TARGET);

  00308	6a 26		 push	 38			; 00000026H
  0030a	8b 45 08	 mov	 eax, DWORD PTR _en$[ebp]
  0030d	50		 push	 eax
  0030e	e8 00 00 00 00	 call	 ?unlink_local_entity_children@@YGXPAUENTITY@@W4LIST_TYPES@@@Z ; unlink_local_entity_children

; 437  : 
; 438  : 	delete_local_entity_from_parents_child_list (en, LIST_TYPE_PADLOCK);

  00313	6a 1b		 push	 27			; 0000001bH
  00315	8b 45 08	 mov	 eax, DWORD PTR _en$[ebp]
  00318	50		 push	 eax
  00319	e8 00 00 00 00	 call	 ?delete_local_entity_from_parents_child_list@@YGXPAUENTITY@@W4LIST_TYPES@@@Z ; delete_local_entity_from_parents_child_list

; 439  : 
; 440  : 	// sector_link
; 441  : 
; 442  : 	delete_local_entity_from_parents_child_list (en, LIST_TYPE_TARGET);

  0031e	6a 26		 push	 38			; 00000026H
  00320	8b 45 08	 mov	 eax, DWORD PTR _en$[ebp]
  00323	50		 push	 eax
  00324	e8 00 00 00 00	 call	 ?delete_local_entity_from_parents_child_list@@YGXPAUENTITY@@W4LIST_TYPES@@@Z ; delete_local_entity_from_parents_child_list

; 443  : 
; 444  : 	delete_local_entity_from_parents_child_list (en, LIST_TYPE_UPDATE);

  00329	6a 29		 push	 41			; 00000029H
  0032b	8b 45 08	 mov	 eax, DWORD PTR _en$[ebp]
  0032e	50		 push	 eax
  0032f	e8 00 00 00 00	 call	 ?delete_local_entity_from_parents_child_list@@YGXPAUENTITY@@W4LIST_TYPES@@@Z ; delete_local_entity_from_parents_child_list

; 445  : 
; 446  : 	set_local_entity_int_value (en, INT_TYPE_OPERATIONAL_STATE, OPERATIONAL_STATE_DEAD);

  00334	83 7d 08 00	 cmp	 DWORD PTR _en$[ebp], 0
  00338	74 0a		 je	 SHORT $LN30@kill_local
  0033a	8b 45 08	 mov	 eax, DWORD PTR _en$[ebp]
  0033d	8b 08		 mov	 ecx, DWORD PTR [eax]
  0033f	89 4d a8	 mov	 DWORD PTR tv232[ebp], ecx
  00342	eb 24		 jmp	 SHORT $LN31@kill_local
$LN30@kill_local:
  00344	8b 15 00 00 00
	00		 mov	 edx, DWORD PTR ?__LINE__Var@?0??kill_local@@YGXPAUENTITY@@@Z@4JA
  0034a	81 c2 96 00 00
	00		 add	 edx, 150		; 00000096H
  00350	52		 push	 edx
  00351	68 00 00 00 00	 push	 OFFSET ??_C@_0FG@BKDCFGHH@c?3?2users?2nhv90?2projects?2eech?2ap@
  00356	a1 00 00 00 00	 mov	 eax, DWORD PTR ?null_entity_pointer_message@@3PBDB ; null_entity_pointer_message
  0035b	50		 push	 eax
  0035c	e8 00 00 00 00	 call	 ?process_assert@@YGXPBD0H@Z ; process_assert
  00361	c7 45 a8 00 00
	00 00		 mov	 DWORD PTR tv232[ebp], 0
$LN31@kill_local:
  00368	b9 01 00 00 00	 mov	 ecx, 1
  0036d	85 c9		 test	 ecx, ecx
  0036f	74 09		 je	 SHORT $LN32@kill_local
  00371	c7 45 a4 97 00
	00 00		 mov	 DWORD PTR tv240[ebp], 151 ; 00000097H
  00378	eb 24		 jmp	 SHORT $LN33@kill_local
$LN32@kill_local:
  0037a	8b 15 00 00 00
	00		 mov	 edx, DWORD PTR ?__LINE__Var@?0??kill_local@@YGXPAUENTITY@@@Z@4JA
  00380	81 c2 96 00 00
	00		 add	 edx, 150		; 00000096H
  00386	52		 push	 edx
  00387	68 00 00 00 00	 push	 OFFSET ??_C@_0FG@BKDCFGHH@c?3?2users?2nhv90?2projects?2eech?2ap@
  0038c	a1 00 00 00 00	 mov	 eax, DWORD PTR ?overload_invalid_int_type_message@@3PBDB ; overload_invalid_int_type_message
  00391	50		 push	 eax
  00392	e8 00 00 00 00	 call	 ?process_assert@@YGXPBD0H@Z ; process_assert
  00397	c7 45 a4 00 00
	00 00		 mov	 DWORD PTR tv240[ebp], 0
$LN33@kill_local:
  0039e	6a 02		 push	 2
  003a0	68 97 00 00 00	 push	 151			; 00000097H
  003a5	8b 4d 08	 mov	 ecx, DWORD PTR _en$[ebp]
  003a8	51		 push	 ecx
  003a9	69 55 a8 5c 04
	00 00		 imul	 edx, DWORD PTR tv232[ebp], 1116
  003b0	8b 45 a4	 mov	 eax, DWORD PTR tv240[ebp]
  003b3	8b 8c 82 00 00
	00 00		 mov	 ecx, DWORD PTR ?fn_set_local_entity_int_value@@3PAY0BBH@P6GXPAUENTITY@@W4INT_TYPES@@H@ZA[edx+eax*4]
  003ba	ff d1		 call	 ecx

; 447  : 
; 448  : 	////////////////////////////////////////
; 449  : 	//
; 450  : 	// KILL
; 451  : 	//
; 452  : 	////////////////////////////////////////
; 453  : 
; 454  : 	// must be done before alive flag set to FALSE
; 455  : 	remove_mobile_values_from_sector (get_local_entity_parent (en, LIST_TYPE_SECTOR), en);

  003bc	83 7d 08 00	 cmp	 DWORD PTR _en$[ebp], 0
  003c0	74 0a		 je	 SHORT $LN34@kill_local
  003c2	8b 45 08	 mov	 eax, DWORD PTR _en$[ebp]
  003c5	8b 08		 mov	 ecx, DWORD PTR [eax]
  003c7	89 4d a8	 mov	 DWORD PTR tv253[ebp], ecx
  003ca	eb 24		 jmp	 SHORT $LN35@kill_local
$LN34@kill_local:
  003cc	8b 15 00 00 00
	00		 mov	 edx, DWORD PTR ?__LINE__Var@?0??kill_local@@YGXPAUENTITY@@@Z@4JA
  003d2	81 c2 9f 00 00
	00		 add	 edx, 159		; 0000009fH
  003d8	52		 push	 edx
  003d9	68 00 00 00 00	 push	 OFFSET ??_C@_0FG@BKDCFGHH@c?3?2users?2nhv90?2projects?2eech?2ap@
  003de	a1 00 00 00 00	 mov	 eax, DWORD PTR ?null_entity_pointer_message@@3PBDB ; null_entity_pointer_message
  003e3	50		 push	 eax
  003e4	e8 00 00 00 00	 call	 ?process_assert@@YGXPBD0H@Z ; process_assert
  003e9	c7 45 a8 00 00
	00 00		 mov	 DWORD PTR tv253[ebp], 0
$LN35@kill_local:
  003f0	b9 01 00 00 00	 mov	 ecx, 1
  003f5	85 c9		 test	 ecx, ecx
  003f7	74 09		 je	 SHORT $LN36@kill_local
  003f9	c7 45 a4 21 00
	00 00		 mov	 DWORD PTR tv261[ebp], 33 ; 00000021H
  00400	eb 24		 jmp	 SHORT $LN37@kill_local
$LN36@kill_local:
  00402	8b 15 00 00 00
	00		 mov	 edx, DWORD PTR ?__LINE__Var@?0??kill_local@@YGXPAUENTITY@@@Z@4JA
  00408	81 c2 9f 00 00
	00		 add	 edx, 159		; 0000009fH
  0040e	52		 push	 edx
  0040f	68 00 00 00 00	 push	 OFFSET ??_C@_0FG@BKDCFGHH@c?3?2users?2nhv90?2projects?2eech?2ap@
  00414	a1 00 00 00 00	 mov	 eax, DWORD PTR ?overload_invalid_list_type_message@@3PBDB ; overload_invalid_list_type_message
  00419	50		 push	 eax
  0041a	e8 00 00 00 00	 call	 ?process_assert@@YGXPBD0H@Z ; process_assert
  0041f	c7 45 a4 00 00
	00 00		 mov	 DWORD PTR tv261[ebp], 0
$LN37@kill_local:
  00426	8b 4d 08	 mov	 ecx, DWORD PTR _en$[ebp]
  00429	51		 push	 ecx
  0042a	6a 21		 push	 33			; 00000021H
  0042c	8b 55 08	 mov	 edx, DWORD PTR _en$[ebp]
  0042f	52		 push	 edx
  00430	69 45 a8 b4 00
	00 00		 imul	 eax, DWORD PTR tv253[ebp], 180
  00437	8b 4d a4	 mov	 ecx, DWORD PTR tv261[ebp]
  0043a	8b 94 88 00 00
	00 00		 mov	 edx, DWORD PTR ?fn_get_local_entity_parent@@3PAY0CN@P6GPAUENTITY@@PAU1@W4LIST_TYPES@@@ZA[eax+ecx*4]
  00441	ff d2		 call	 edx
  00443	50		 push	 eax
  00444	e8 00 00 00 00	 call	 ?remove_mobile_values_from_sector@@YGXPAUENTITY@@0@Z ; remove_mobile_values_from_sector

; 456  : 
; 457  : 	set_local_entity_int_value (en, INT_TYPE_ALIVE, FALSE);

  00449	83 7d 08 00	 cmp	 DWORD PTR _en$[ebp], 0
  0044d	74 0a		 je	 SHORT $LN38@kill_local
  0044f	8b 45 08	 mov	 eax, DWORD PTR _en$[ebp]
  00452	8b 08		 mov	 ecx, DWORD PTR [eax]
  00454	89 4d a8	 mov	 DWORD PTR tv274[ebp], ecx
  00457	eb 24		 jmp	 SHORT $LN39@kill_local
$LN38@kill_local:
  00459	8b 15 00 00 00
	00		 mov	 edx, DWORD PTR ?__LINE__Var@?0??kill_local@@YGXPAUENTITY@@@Z@4JA
  0045f	81 c2 a1 00 00
	00		 add	 edx, 161		; 000000a1H
  00465	52		 push	 edx
  00466	68 00 00 00 00	 push	 OFFSET ??_C@_0FG@BKDCFGHH@c?3?2users?2nhv90?2projects?2eech?2ap@
  0046b	a1 00 00 00 00	 mov	 eax, DWORD PTR ?null_entity_pointer_message@@3PBDB ; null_entity_pointer_message
  00470	50		 push	 eax
  00471	e8 00 00 00 00	 call	 ?process_assert@@YGXPBD0H@Z ; process_assert
  00476	c7 45 a8 00 00
	00 00		 mov	 DWORD PTR tv274[ebp], 0
$LN39@kill_local:
  0047d	b9 01 00 00 00	 mov	 ecx, 1
  00482	85 c9		 test	 ecx, ecx
  00484	74 09		 je	 SHORT $LN40@kill_local
  00486	c7 45 a4 07 00
	00 00		 mov	 DWORD PTR tv282[ebp], 7
  0048d	eb 24		 jmp	 SHORT $LN41@kill_local
$LN40@kill_local:
  0048f	8b 15 00 00 00
	00		 mov	 edx, DWORD PTR ?__LINE__Var@?0??kill_local@@YGXPAUENTITY@@@Z@4JA
  00495	81 c2 a1 00 00
	00		 add	 edx, 161		; 000000a1H
  0049b	52		 push	 edx
  0049c	68 00 00 00 00	 push	 OFFSET ??_C@_0FG@BKDCFGHH@c?3?2users?2nhv90?2projects?2eech?2ap@
  004a1	a1 00 00 00 00	 mov	 eax, DWORD PTR ?overload_invalid_int_type_message@@3PBDB ; overload_invalid_int_type_message
  004a6	50		 push	 eax
  004a7	e8 00 00 00 00	 call	 ?process_assert@@YGXPBD0H@Z ; process_assert
  004ac	c7 45 a4 00 00
	00 00		 mov	 DWORD PTR tv282[ebp], 0
$LN41@kill_local:
  004b3	6a 00		 push	 0
  004b5	6a 07		 push	 7
  004b7	8b 4d 08	 mov	 ecx, DWORD PTR _en$[ebp]
  004ba	51		 push	 ecx
  004bb	69 55 a8 5c 04
	00 00		 imul	 edx, DWORD PTR tv274[ebp], 1116
  004c2	8b 45 a4	 mov	 eax, DWORD PTR tv282[ebp]
  004c5	8b 8c 82 00 00
	00 00		 mov	 ecx, DWORD PTR ?fn_set_local_entity_int_value@@3PAY0BBH@P6GXPAUENTITY@@W4INT_TYPES@@H@ZA[edx+eax*4]
  004cc	ff d1		 call	 ecx

; 458  : 
; 459  : 	damage_anti_aircraft_3d_object (en);

  004ce	8b 45 08	 mov	 eax, DWORD PTR _en$[ebp]
  004d1	50		 push	 eax
  004d2	e8 00 00 00 00	 call	 ?damage_anti_aircraft_3d_object@@YGXPAUENTITY@@@Z ; damage_anti_aircraft_3d_object

; 460  : 
; 461  : 	//
; 462  : 	// group losses
; 463  : 	//
; 464  : 
; 465  : 	losses = get_local_entity_int_value (group, INT_TYPE_LOSSES);

  004d7	83 7d ec 00	 cmp	 DWORD PTR _group$[ebp], 0
  004db	74 0a		 je	 SHORT $LN42@kill_local
  004dd	8b 45 ec	 mov	 eax, DWORD PTR _group$[ebp]
  004e0	8b 08		 mov	 ecx, DWORD PTR [eax]
  004e2	89 4d a8	 mov	 DWORD PTR tv295[ebp], ecx
  004e5	eb 24		 jmp	 SHORT $LN43@kill_local
$LN42@kill_local:
  004e7	8b 15 00 00 00
	00		 mov	 edx, DWORD PTR ?__LINE__Var@?0??kill_local@@YGXPAUENTITY@@@Z@4JA
  004ed	81 c2 a9 00 00
	00		 add	 edx, 169		; 000000a9H
  004f3	52		 push	 edx
  004f4	68 00 00 00 00	 push	 OFFSET ??_C@_0FG@BKDCFGHH@c?3?2users?2nhv90?2projects?2eech?2ap@
  004f9	a1 00 00 00 00	 mov	 eax, DWORD PTR ?null_entity_pointer_message@@3PBDB ; null_entity_pointer_message
  004fe	50		 push	 eax
  004ff	e8 00 00 00 00	 call	 ?process_assert@@YGXPBD0H@Z ; process_assert
  00504	c7 45 a8 00 00
	00 00		 mov	 DWORD PTR tv295[ebp], 0
$LN43@kill_local:
  0050b	b9 01 00 00 00	 mov	 ecx, 1
  00510	85 c9		 test	 ecx, ecx
  00512	74 09		 je	 SHORT $LN44@kill_local
  00514	c7 45 a4 7f 00
	00 00		 mov	 DWORD PTR tv303[ebp], 127 ; 0000007fH
  0051b	eb 24		 jmp	 SHORT $LN45@kill_local
$LN44@kill_local:
  0051d	8b 15 00 00 00
	00		 mov	 edx, DWORD PTR ?__LINE__Var@?0??kill_local@@YGXPAUENTITY@@@Z@4JA
  00523	81 c2 a9 00 00
	00		 add	 edx, 169		; 000000a9H
  00529	52		 push	 edx
  0052a	68 00 00 00 00	 push	 OFFSET ??_C@_0FG@BKDCFGHH@c?3?2users?2nhv90?2projects?2eech?2ap@
  0052f	a1 00 00 00 00	 mov	 eax, DWORD PTR ?overload_invalid_int_type_message@@3PBDB ; overload_invalid_int_type_message
  00534	50		 push	 eax
  00535	e8 00 00 00 00	 call	 ?process_assert@@YGXPBD0H@Z ; process_assert
  0053a	c7 45 a4 00 00
	00 00		 mov	 DWORD PTR tv303[ebp], 0
$LN45@kill_local:
  00541	6a 7f		 push	 127			; 0000007fH
  00543	8b 4d ec	 mov	 ecx, DWORD PTR _group$[ebp]
  00546	51		 push	 ecx
  00547	69 55 a8 5c 04
	00 00		 imul	 edx, DWORD PTR tv295[ebp], 1116
  0054e	8b 45 a4	 mov	 eax, DWORD PTR tv303[ebp]
  00551	8b 8c 82 00 00
	00 00		 mov	 ecx, DWORD PTR ?fn_get_local_entity_int_value@@3PAY0BBH@P6GHPAUENTITY@@W4INT_TYPES@@@ZA[edx+eax*4]
  00558	ff d1		 call	 ecx
  0055a	89 45 f8	 mov	 DWORD PTR _losses$[ebp], eax

; 466  : 
; 467  : 	losses ++;

  0055d	8b 45 f8	 mov	 eax, DWORD PTR _losses$[ebp]
  00560	83 c0 01	 add	 eax, 1
  00563	89 45 f8	 mov	 DWORD PTR _losses$[ebp], eax

; 468  : 
; 469  : 	set_local_entity_int_value (group, INT_TYPE_LOSSES, losses);

  00566	83 7d ec 00	 cmp	 DWORD PTR _group$[ebp], 0
  0056a	74 0a		 je	 SHORT $LN46@kill_local
  0056c	8b 45 ec	 mov	 eax, DWORD PTR _group$[ebp]
  0056f	8b 08		 mov	 ecx, DWORD PTR [eax]
  00571	89 4d a8	 mov	 DWORD PTR tv316[ebp], ecx
  00574	eb 24		 jmp	 SHORT $LN47@kill_local
$LN46@kill_local:
  00576	8b 15 00 00 00
	00		 mov	 edx, DWORD PTR ?__LINE__Var@?0??kill_local@@YGXPAUENTITY@@@Z@4JA
  0057c	81 c2 ad 00 00
	00		 add	 edx, 173		; 000000adH
  00582	52		 push	 edx
  00583	68 00 00 00 00	 push	 OFFSET ??_C@_0FG@BKDCFGHH@c?3?2users?2nhv90?2projects?2eech?2ap@
  00588	a1 00 00 00 00	 mov	 eax, DWORD PTR ?null_entity_pointer_message@@3PBDB ; null_entity_pointer_message
  0058d	50		 push	 eax
  0058e	e8 00 00 00 00	 call	 ?process_assert@@YGXPBD0H@Z ; process_assert
  00593	c7 45 a8 00 00
	00 00		 mov	 DWORD PTR tv316[ebp], 0
$LN47@kill_local:
  0059a	b9 01 00 00 00	 mov	 ecx, 1
  0059f	85 c9		 test	 ecx, ecx
  005a1	74 09		 je	 SHORT $LN48@kill_local
  005a3	c7 45 a4 7f 00
	00 00		 mov	 DWORD PTR tv324[ebp], 127 ; 0000007fH
  005aa	eb 24		 jmp	 SHORT $LN49@kill_local
$LN48@kill_local:
  005ac	8b 15 00 00 00
	00		 mov	 edx, DWORD PTR ?__LINE__Var@?0??kill_local@@YGXPAUENTITY@@@Z@4JA
  005b2	81 c2 ad 00 00
	00		 add	 edx, 173		; 000000adH
  005b8	52		 push	 edx
  005b9	68 00 00 00 00	 push	 OFFSET ??_C@_0FG@BKDCFGHH@c?3?2users?2nhv90?2projects?2eech?2ap@
  005be	a1 00 00 00 00	 mov	 eax, DWORD PTR ?overload_invalid_int_type_message@@3PBDB ; overload_invalid_int_type_message
  005c3	50		 push	 eax
  005c4	e8 00 00 00 00	 call	 ?process_assert@@YGXPBD0H@Z ; process_assert
  005c9	c7 45 a4 00 00
	00 00		 mov	 DWORD PTR tv324[ebp], 0
$LN49@kill_local:
  005d0	8b 4d f8	 mov	 ecx, DWORD PTR _losses$[ebp]
  005d3	51		 push	 ecx
  005d4	6a 7f		 push	 127			; 0000007fH
  005d6	8b 55 ec	 mov	 edx, DWORD PTR _group$[ebp]
  005d9	52		 push	 edx
  005da	69 45 a8 5c 04
	00 00		 imul	 eax, DWORD PTR tv316[ebp], 1116
  005e1	8b 4d a4	 mov	 ecx, DWORD PTR tv324[ebp]
  005e4	8b 94 88 00 00
	00 00		 mov	 edx, DWORD PTR ?fn_set_local_entity_int_value@@3PAY0BBH@P6GXPAUENTITY@@W4INT_TYPES@@H@ZA[eax+ecx*4]
  005eb	ff d2		 call	 edx

; 470  : 
; 471  : 	//
; 472  : 	// Notify Campaign Screen
; 473  : 	//
; 474  : 
; 475  : 	notify_campaign_screen (CAMPAIGN_SCREEN_GROUP_REMOVE_MEMBER, group);

  005ed	8b 45 ec	 mov	 eax, DWORD PTR _group$[ebp]
  005f0	50		 push	 eax
  005f1	6a 08		 push	 8
  005f3	e8 00 00 00 00	 call	 ?notify_campaign_screen@@YGHW4CAMPAIGN_SCREEN_MESSAGES@@PAUENTITY@@@Z ; notify_campaign_screen

; 476  : 
; 477  : 	//
; 478  : 	// Notify the GROUP that the mobile has been killed  (N.B. must be done AFTER mobile is unlinked from member list)
; 479  : 	//
; 480  : 
; 481  : 	if (get_comms_model () == COMMS_MODEL_SERVER)

  005f8	83 3d 00 00 00
	00 00		 cmp	 DWORD PTR ?system_comms_model@@3W4COMMS_MODEL_TYPES@@A, 0 ; system_comms_model
  005ff	75 12		 jne	 SHORT $LN9@kill_local

; 482  : 	{
; 483  : 		notify_local_entity (ENTITY_MESSAGE_MOBILE_KILLED, group, en);

  00601	8b 45 08	 mov	 eax, DWORD PTR _en$[ebp]
  00604	50		 push	 eax
  00605	8b 4d ec	 mov	 ecx, DWORD PTR _group$[ebp]
  00608	51		 push	 ecx
  00609	6a 28		 push	 40			; 00000028H
  0060b	e8 00 00 00 00	 call	 ?notify_local_entity@@YAHW4ENTITY_MESSAGES@@PAUENTITY@@1ZZ ; notify_local_entity
  00610	83 c4 0c	 add	 esp, 12			; 0000000cH
$LN9@kill_local:

; 484  : 	}
; 485  : 
; 486  : 	////////////////////////////////////////
; 487  : 	//
; 488  : 	// SPECIAL EFFECTS
; 489  : 	//
; 490  : 	////////////////////////////////////////
; 491  : 
; 492  : 	if (get_comms_model () == COMMS_MODEL_SERVER)

  00613	83 3d 00 00 00
	00 00		 cmp	 DWORD PTR ?system_comms_model@@3W4COMMS_MODEL_TYPES@@A, 0 ; system_comms_model
  0061a	75 09		 jne	 SHORT $LN1@kill_local

; 493  : 	{
; 494  : 		create_client_server_object_killed_explosion_effect (en);

  0061c	8b 45 08	 mov	 eax, DWORD PTR _en$[ebp]
  0061f	50		 push	 eax
  00620	e8 00 00 00 00	 call	 ?create_client_server_object_killed_explosion_effect@@YGXPAUENTITY@@@Z ; create_client_server_object_killed_explosion_effect
$LN1@kill_local:

; 495  : 	}
; 496  : }

  00625	5f		 pop	 edi
  00626	5e		 pop	 esi
  00627	5b		 pop	 ebx
  00628	8b e5		 mov	 esp, ebp
  0062a	5d		 pop	 ebp
  0062b	c2 04 00	 ret	 4
?kill_local@@YGXPAUENTITY@@@Z ENDP			; kill_local
_TEXT	ENDS
; Function compile flags: /Odtp /ZI
; File c:\users\nhv90\projects\eech\aphavoc\source\entity\mobile\vehicle\anti_air\aa_dstry.c
;	COMDAT ?destroy_client_family@@YGXPAUENTITY@@@Z
_TEXT	SEGMENT
_en$ = 8						; size = 4
?destroy_client_family@@YGXPAUENTITY@@@Z PROC		; destroy_client_family, COMDAT

; 281  : {

  00000	55		 push	 ebp
  00001	8b ec		 mov	 ebp, esp
  00003	83 ec 40	 sub	 esp, 64			; 00000040H
  00006	53		 push	 ebx
  00007	56		 push	 esi
  00008	57		 push	 edi

; 282  : 	#if DEBUG_MODULE >= 2
; 283  : 
; 284  : 	debug_log_entity_args (ENTITY_DEBUG_REMOTE, ENTITY_DEBUG_DESTROY_FAMILY, en);
; 285  : 
; 286  : 	#endif
; 287  : 
; 288  : 	transmit_entity_comms_message (ENTITY_COMMS_DESTROY_FAMILY, en);

  00009	8b 45 08	 mov	 eax, DWORD PTR _en$[ebp]
  0000c	50		 push	 eax
  0000d	6a 13		 push	 19			; 00000013H
  0000f	e8 00 00 00 00	 call	 ?transmit_entity_comms_message@@YAXW4ENTITY_COMMS_MESSAGES@@PAUENTITY@@ZZ ; transmit_entity_comms_message
  00014	83 c4 08	 add	 esp, 8

; 289  : }

  00017	5f		 pop	 edi
  00018	5e		 pop	 esi
  00019	5b		 pop	 ebx
  0001a	8b e5		 mov	 esp, ebp
  0001c	5d		 pop	 ebp
  0001d	c2 04 00	 ret	 4
?destroy_client_family@@YGXPAUENTITY@@@Z ENDP		; destroy_client_family
_TEXT	ENDS
; Function compile flags: /Odtp /ZI
; File c:\users\nhv90\projects\eech\aphavoc\source\entity\mobile\vehicle\anti_air\aa_dstry.c
;	COMDAT ?destroy_server_family@@YGXPAUENTITY@@@Z
_TEXT	SEGMENT
tv73 = -68						; size = 4
_en$ = 8						; size = 4
?destroy_server_family@@YGXPAUENTITY@@@Z PROC		; destroy_server_family, COMDAT

; 266  : {

  00000	55		 push	 ebp
  00001	8b ec		 mov	 ebp, esp
  00003	83 ec 44	 sub	 esp, 68			; 00000044H
  00006	53		 push	 ebx
  00007	56		 push	 esi
  00008	57		 push	 edi

; 267  : 	destroy_client_server_entity_children (en, LIST_TYPE_MOVEMENT_DEPENDENT);

  00009	6a 1a		 push	 26			; 0000001aH
  0000b	8b 45 08	 mov	 eax, DWORD PTR _en$[ebp]
  0000e	50		 push	 eax
  0000f	e8 00 00 00 00	 call	 ?destroy_client_server_entity_children@@YGXPAUENTITY@@W4LIST_TYPES@@@Z ; destroy_client_server_entity_children

; 268  : 
; 269  : //	destroy_client_server_entity_children (en, LIST_TYPE_WAYPOINT);
; 270  : 
; 271  : 	destroy_client_server_sound_effects (en);

  00014	8b 45 08	 mov	 eax, DWORD PTR _en$[ebp]
  00017	50		 push	 eax
  00018	e8 00 00 00 00	 call	 ?destroy_client_server_sound_effects@@YGXPAUENTITY@@@Z ; destroy_client_server_sound_effects

; 272  : 
; 273  : 	destroy_client_server_entity (en);

  0001d	83 7d 08 00	 cmp	 DWORD PTR _en$[ebp], 0
  00021	74 0a		 je	 SHORT $LN3@destroy_se
  00023	8b 45 08	 mov	 eax, DWORD PTR _en$[ebp]
  00026	8b 08		 mov	 ecx, DWORD PTR [eax]
  00028	89 4d bc	 mov	 DWORD PTR tv73[ebp], ecx
  0002b	eb 21		 jmp	 SHORT $LN4@destroy_se
$LN3@destroy_se:
  0002d	8b 15 00 00 00
	00		 mov	 edx, DWORD PTR ?__LINE__Var@?0??destroy_server_family@@YGXPAUENTITY@@@Z@4JA
  00033	83 c2 07	 add	 edx, 7
  00036	52		 push	 edx
  00037	68 00 00 00 00	 push	 OFFSET ??_C@_0FG@BKDCFGHH@c?3?2users?2nhv90?2projects?2eech?2ap@
  0003c	a1 00 00 00 00	 mov	 eax, DWORD PTR ?null_entity_pointer_message@@3PBDB ; null_entity_pointer_message
  00041	50		 push	 eax
  00042	e8 00 00 00 00	 call	 ?process_assert@@YGXPBD0H@Z ; process_assert
  00047	c7 45 bc 00 00
	00 00		 mov	 DWORD PTR tv73[ebp], 0
$LN4@destroy_se:
  0004e	8b 4d 08	 mov	 ecx, DWORD PTR _en$[ebp]
  00051	51		 push	 ecx
  00052	8b 15 00 00 00
	00		 mov	 edx, DWORD PTR ?system_comms_model@@3W4COMMS_MODEL_TYPES@@A ; system_comms_model
  00058	c1 e2 02	 shl	 edx, 2
  0005b	8b 45 bc	 mov	 eax, DWORD PTR tv73[ebp]
  0005e	8b 8c c2 00 00
	00 00		 mov	 ecx, DWORD PTR ?fn_destroy_client_server_entity@@3PAY01P6GXPAUENTITY@@@ZA[edx+eax*8]
  00065	ff d1		 call	 ecx

; 274  : }

  00067	5f		 pop	 edi
  00068	5e		 pop	 esi
  00069	5b		 pop	 ebx
  0006a	8b e5		 mov	 esp, ebp
  0006c	5d		 pop	 ebp
  0006d	c2 04 00	 ret	 4
?destroy_server_family@@YGXPAUENTITY@@@Z ENDP		; destroy_server_family
_TEXT	ENDS
; Function compile flags: /Odtp /ZI
; File c:\users\nhv90\projects\eech\aphavoc\source\entity\mobile\vehicle\anti_air\aa_dstry.c
;	COMDAT ?destroy_local_family@@YGXPAUENTITY@@@Z
_TEXT	SEGMENT
_en$ = 8						; size = 4
?destroy_local_family@@YGXPAUENTITY@@@Z PROC		; destroy_local_family, COMDAT

; 251  : {

  00000	55		 push	 ebp
  00001	8b ec		 mov	 ebp, esp
  00003	83 ec 40	 sub	 esp, 64			; 00000040H
  00006	53		 push	 ebx
  00007	56		 push	 esi
  00008	57		 push	 edi

; 252  : 	destroy_local_entity_children (en, LIST_TYPE_MOVEMENT_DEPENDENT);

  00009	6a 1a		 push	 26			; 0000001aH
  0000b	8b 45 08	 mov	 eax, DWORD PTR _en$[ebp]
  0000e	50		 push	 eax
  0000f	e8 00 00 00 00	 call	 ?destroy_local_entity_children@@YGXPAUENTITY@@W4LIST_TYPES@@@Z ; destroy_local_entity_children

; 253  : 
; 254  : //	destroy_local_entity_children (en, LIST_TYPE_WAYPOINT);
; 255  : 
; 256  : 	destroy_local_sound_effects (en);

  00014	8b 45 08	 mov	 eax, DWORD PTR _en$[ebp]
  00017	50		 push	 eax
  00018	e8 00 00 00 00	 call	 ?destroy_local_sound_effects@@YGXPAUENTITY@@@Z ; destroy_local_sound_effects

; 257  : 
; 258  : 	destroy_local_entity (en);

  0001d	8b 45 08	 mov	 eax, DWORD PTR _en$[ebp]
  00020	50		 push	 eax
  00021	e8 00 00 00 00	 call	 ?destroy_local_entity@@YGXPAUENTITY@@@Z ; destroy_local_entity

; 259  : }

  00026	5f		 pop	 edi
  00027	5e		 pop	 esi
  00028	5b		 pop	 ebx
  00029	8b e5		 mov	 esp, ebp
  0002b	5d		 pop	 ebp
  0002c	c2 04 00	 ret	 4
?destroy_local_family@@YGXPAUENTITY@@@Z ENDP		; destroy_local_family
_TEXT	ENDS
; Function compile flags: /Odtp /ZI
; File c:\users\nhv90\projects\eech\aphavoc\source\entity\mobile\vehicle\anti_air\aa_dstry.c
;	COMDAT ?destroy_client@@YGXPAUENTITY@@@Z
_TEXT	SEGMENT
_en$ = 8						; size = 4
?destroy_client@@YGXPAUENTITY@@@Z PROC			; destroy_client, COMDAT

; 227  : {

  00000	55		 push	 ebp
  00001	8b ec		 mov	 ebp, esp
  00003	83 ec 40	 sub	 esp, 64			; 00000040H
  00006	53		 push	 ebx
  00007	56		 push	 esi
  00008	57		 push	 edi

; 228  : 	if (get_comms_data_flow () == COMMS_DATA_FLOW_TX)

  00009	83 3d 00 00 00
	00 00		 cmp	 DWORD PTR ?system_comms_data_flow@@3W4COMMS_DATA_FLOW_TYPES@@A, 0 ; system_comms_data_flow
  00010	75 2c		 jne	 SHORT $LN2@destroy_cl

; 229  : 	{
; 230  : 		validate_client_server_remote_fn ();

  00012	e8 00 00 00 00	 call	 ?assert_client_server_remote_fn@@YGHXZ ; assert_client_server_remote_fn
  00017	85 c0		 test	 eax, eax
  00019	75 18		 jne	 SHORT $LN4@destroy_cl
  0001b	a1 00 00 00 00	 mov	 eax, DWORD PTR ?__LINE__Var@?0??destroy_client@@YGXPAUENTITY@@@Z@4JA
  00020	83 c0 03	 add	 eax, 3
  00023	50		 push	 eax
  00024	68 00 00 00 00	 push	 OFFSET ??_C@_0FG@BKDCFGHH@c?3?2users?2nhv90?2projects?2eech?2ap@
  00029	68 00 00 00 00	 push	 OFFSET ??_C@_0CC@BNNNEGEG@assert_client_server_remote_fn?5@
  0002e	e8 00 00 00 00	 call	 ?process_assert@@YGXPBD0H@Z ; process_assert
$LN4@destroy_cl:

; 231  : 
; 232  : 		destroy_remote (en);

  00033	8b 45 08	 mov	 eax, DWORD PTR _en$[ebp]
  00036	50		 push	 eax
  00037	e8 00 00 00 00	 call	 ?destroy_remote@@YGXPAUENTITY@@@Z ; destroy_remote

; 233  : 	}
; 234  : 	else

  0003c	eb 2a		 jmp	 SHORT $LN1@destroy_cl
$LN2@destroy_cl:

; 235  : 	{
; 236  : 		validate_client_server_local_fn ();

  0003e	e8 00 00 00 00	 call	 ?assert_client_server_local_fn@@YGHXZ ; assert_client_server_local_fn
  00043	85 c0		 test	 eax, eax
  00045	75 18		 jne	 SHORT $LN5@destroy_cl
  00047	a1 00 00 00 00	 mov	 eax, DWORD PTR ?__LINE__Var@?0??destroy_client@@YGXPAUENTITY@@@Z@4JA
  0004c	83 c0 09	 add	 eax, 9
  0004f	50		 push	 eax
  00050	68 00 00 00 00	 push	 OFFSET ??_C@_0FG@BKDCFGHH@c?3?2users?2nhv90?2projects?2eech?2ap@
  00055	68 00 00 00 00	 push	 OFFSET ??_C@_0CB@CFOCLFOK@assert_client_server_local_fn?5?$CI@
  0005a	e8 00 00 00 00	 call	 ?process_assert@@YGXPBD0H@Z ; process_assert
$LN5@destroy_cl:

; 237  : 
; 238  : 		//
; 239  : 		// destroy local using 'full' function
; 240  : 		//
; 241  : 
; 242  : 		destroy_local_entity (en);

  0005f	8b 45 08	 mov	 eax, DWORD PTR _en$[ebp]
  00062	50		 push	 eax
  00063	e8 00 00 00 00	 call	 ?destroy_local_entity@@YGXPAUENTITY@@@Z ; destroy_local_entity
$LN1@destroy_cl:

; 243  : 	}
; 244  : }

  00068	5f		 pop	 edi
  00069	5e		 pop	 esi
  0006a	5b		 pop	 ebx
  0006b	8b e5		 mov	 esp, ebp
  0006d	5d		 pop	 ebp
  0006e	c2 04 00	 ret	 4
?destroy_client@@YGXPAUENTITY@@@Z ENDP			; destroy_client
_TEXT	ENDS
; Function compile flags: /Odtp /ZI
; File c:\users\nhv90\projects\eech\aphavoc\source\entity\mobile\vehicle\anti_air\aa_dstry.c
;	COMDAT ?destroy_server@@YGXPAUENTITY@@@Z
_TEXT	SEGMENT
_en$ = 8						; size = 4
?destroy_server@@YGXPAUENTITY@@@Z PROC			; destroy_server, COMDAT

; 204  : {

  00000	55		 push	 ebp
  00001	8b ec		 mov	 ebp, esp
  00003	83 ec 40	 sub	 esp, 64			; 00000040H
  00006	53		 push	 ebx
  00007	56		 push	 esi
  00008	57		 push	 edi

; 205  : 	//
; 206  : 	// destroy remote entity first (keeping local entity valid)
; 207  : 	//
; 208  : 
; 209  : 	validate_client_server_remote_fn ();

  00009	e8 00 00 00 00	 call	 ?assert_client_server_remote_fn@@YGHXZ ; assert_client_server_remote_fn
  0000e	85 c0		 test	 eax, eax
  00010	75 18		 jne	 SHORT $LN2@destroy_se
  00012	a1 00 00 00 00	 mov	 eax, DWORD PTR ?__LINE__Var@?0??destroy_server@@YGXPAUENTITY@@@Z@4JA
  00017	83 c0 05	 add	 eax, 5
  0001a	50		 push	 eax
  0001b	68 00 00 00 00	 push	 OFFSET ??_C@_0FG@BKDCFGHH@c?3?2users?2nhv90?2projects?2eech?2ap@
  00020	68 00 00 00 00	 push	 OFFSET ??_C@_0CC@BNNNEGEG@assert_client_server_remote_fn?5@
  00025	e8 00 00 00 00	 call	 ?process_assert@@YGXPBD0H@Z ; process_assert
$LN2@destroy_se:

; 210  : 
; 211  : 	destroy_remote (en);

  0002a	8b 45 08	 mov	 eax, DWORD PTR _en$[ebp]
  0002d	50		 push	 eax
  0002e	e8 00 00 00 00	 call	 ?destroy_remote@@YGXPAUENTITY@@@Z ; destroy_remote

; 212  : 
; 213  : 	validate_client_server_local_fn ();

  00033	e8 00 00 00 00	 call	 ?assert_client_server_local_fn@@YGHXZ ; assert_client_server_local_fn
  00038	85 c0		 test	 eax, eax
  0003a	75 18		 jne	 SHORT $LN3@destroy_se
  0003c	a1 00 00 00 00	 mov	 eax, DWORD PTR ?__LINE__Var@?0??destroy_server@@YGXPAUENTITY@@@Z@4JA
  00041	83 c0 09	 add	 eax, 9
  00044	50		 push	 eax
  00045	68 00 00 00 00	 push	 OFFSET ??_C@_0FG@BKDCFGHH@c?3?2users?2nhv90?2projects?2eech?2ap@
  0004a	68 00 00 00 00	 push	 OFFSET ??_C@_0CB@CFOCLFOK@assert_client_server_local_fn?5?$CI@
  0004f	e8 00 00 00 00	 call	 ?process_assert@@YGXPBD0H@Z ; process_assert
$LN3@destroy_se:

; 214  : 
; 215  : 	//
; 216  : 	// destroy local using 'full' function
; 217  : 	//
; 218  : 
; 219  : 	destroy_local_entity (en);

  00054	8b 45 08	 mov	 eax, DWORD PTR _en$[ebp]
  00057	50		 push	 eax
  00058	e8 00 00 00 00	 call	 ?destroy_local_entity@@YGXPAUENTITY@@@Z ; destroy_local_entity

; 220  : }

  0005d	5f		 pop	 edi
  0005e	5e		 pop	 esi
  0005f	5b		 pop	 ebx
  00060	8b e5		 mov	 esp, ebp
  00062	5d		 pop	 ebp
  00063	c2 04 00	 ret	 4
?destroy_server@@YGXPAUENTITY@@@Z ENDP			; destroy_server
_TEXT	ENDS
; Function compile flags: /Odtp /ZI
; File c:\users\nhv90\projects\eech\aphavoc\source\entity\mobile\vehicle\anti_air\aa_dstry.c
;	COMDAT ?destroy_remote@@YGXPAUENTITY@@@Z
_TEXT	SEGMENT
_en$ = 8						; size = 4
?destroy_remote@@YGXPAUENTITY@@@Z PROC			; destroy_remote, COMDAT

; 189  : {

  00000	55		 push	 ebp
  00001	8b ec		 mov	 ebp, esp
  00003	83 ec 40	 sub	 esp, 64			; 00000040H
  00006	53		 push	 ebx
  00007	56		 push	 esi
  00008	57		 push	 edi

; 190  : 	#if DEBUG_MODULE >= 2
; 191  : 
; 192  : 	debug_log_entity_args (ENTITY_DEBUG_REMOTE, ENTITY_DEBUG_DESTROY, en);
; 193  : 
; 194  : 	#endif
; 195  : 
; 196  : 	transmit_entity_comms_message (ENTITY_COMMS_DESTROY, en);

  00009	8b 45 08	 mov	 eax, DWORD PTR _en$[ebp]
  0000c	50		 push	 eax
  0000d	6a 12		 push	 18			; 00000012H
  0000f	e8 00 00 00 00	 call	 ?transmit_entity_comms_message@@YAXW4ENTITY_COMMS_MESSAGES@@PAUENTITY@@ZZ ; transmit_entity_comms_message
  00014	83 c4 08	 add	 esp, 8

; 197  : }

  00017	5f		 pop	 edi
  00018	5e		 pop	 esi
  00019	5b		 pop	 ebx
  0001a	8b e5		 mov	 esp, ebp
  0001c	5d		 pop	 ebp
  0001d	c2 04 00	 ret	 4
?destroy_remote@@YGXPAUENTITY@@@Z ENDP			; destroy_remote
_TEXT	ENDS
; Function compile flags: /Odtp /ZI
; File c:\users\nhv90\projects\eech\aphavoc\source\entity\mobile\vehicle\anti_air\aa_dstry.c
;	COMDAT ?destroy_local@@YGXPAUENTITY@@@Z
_TEXT	SEGMENT
tv79 = -76						; size = 4
tv71 = -72						; size = 4
_raw$ = -4						; size = 4
_en$ = 8						; size = 4
?destroy_local@@YGXPAUENTITY@@@Z PROC			; destroy_local, COMDAT

; 84   : {

  00000	55		 push	 ebp
  00001	8b ec		 mov	 ebp, esp
  00003	83 ec 4c	 sub	 esp, 76			; 0000004cH
  00006	53		 push	 ebx
  00007	56		 push	 esi
  00008	57		 push	 edi

; 85   : 
; 86   : 	anti_aircraft
; 87   : 		*raw;
; 88   : 
; 89   : 	////////////////////////////////////////
; 90   : 	//
; 91   : 	// PRE-AMBLE
; 92   : 	//
; 93   : 	////////////////////////////////////////
; 94   : 
; 95   : 	#if DEBUG_MODULE >= 2
; 96   : 
; 97   : 	debug_log_entity_args (ENTITY_DEBUG_LOCAL, ENTITY_DEBUG_DESTROY, en);
; 98   : 
; 99   : 	#endif
; 100  : 
; 101  : 	raw = (anti_aircraft *) get_local_entity_data (en);

  00009	8b 45 08	 mov	 eax, DWORD PTR _en$[ebp]
  0000c	8b 48 04	 mov	 ecx, DWORD PTR [eax+4]
  0000f	89 4d fc	 mov	 DWORD PTR _raw$[ebp], ecx

; 102  : 
; 103  : 	set_local_entity_int_value (en, INT_TYPE_ALIVE, FALSE);

  00012	83 7d 08 00	 cmp	 DWORD PTR _en$[ebp], 0
  00016	74 0a		 je	 SHORT $LN4@destroy_lo
  00018	8b 45 08	 mov	 eax, DWORD PTR _en$[ebp]
  0001b	8b 08		 mov	 ecx, DWORD PTR [eax]
  0001d	89 4d b8	 mov	 DWORD PTR tv71[ebp], ecx
  00020	eb 21		 jmp	 SHORT $LN5@destroy_lo
$LN4@destroy_lo:
  00022	8b 15 00 00 00
	00		 mov	 edx, DWORD PTR ?__LINE__Var@?0??destroy_local@@YGXPAUENTITY@@@Z@4JA
  00028	83 c2 13	 add	 edx, 19			; 00000013H
  0002b	52		 push	 edx
  0002c	68 00 00 00 00	 push	 OFFSET ??_C@_0FG@BKDCFGHH@c?3?2users?2nhv90?2projects?2eech?2ap@
  00031	a1 00 00 00 00	 mov	 eax, DWORD PTR ?null_entity_pointer_message@@3PBDB ; null_entity_pointer_message
  00036	50		 push	 eax
  00037	e8 00 00 00 00	 call	 ?process_assert@@YGXPBD0H@Z ; process_assert
  0003c	c7 45 b8 00 00
	00 00		 mov	 DWORD PTR tv71[ebp], 0
$LN5@destroy_lo:
  00043	b9 01 00 00 00	 mov	 ecx, 1
  00048	85 c9		 test	 ecx, ecx
  0004a	74 09		 je	 SHORT $LN6@destroy_lo
  0004c	c7 45 b4 07 00
	00 00		 mov	 DWORD PTR tv79[ebp], 7
  00053	eb 21		 jmp	 SHORT $LN7@destroy_lo
$LN6@destroy_lo:
  00055	8b 15 00 00 00
	00		 mov	 edx, DWORD PTR ?__LINE__Var@?0??destroy_local@@YGXPAUENTITY@@@Z@4JA
  0005b	83 c2 13	 add	 edx, 19			; 00000013H
  0005e	52		 push	 edx
  0005f	68 00 00 00 00	 push	 OFFSET ??_C@_0FG@BKDCFGHH@c?3?2users?2nhv90?2projects?2eech?2ap@
  00064	a1 00 00 00 00	 mov	 eax, DWORD PTR ?overload_invalid_int_type_message@@3PBDB ; overload_invalid_int_type_message
  00069	50		 push	 eax
  0006a	e8 00 00 00 00	 call	 ?process_assert@@YGXPBD0H@Z ; process_assert
  0006f	c7 45 b4 00 00
	00 00		 mov	 DWORD PTR tv79[ebp], 0
$LN7@destroy_lo:
  00076	6a 00		 push	 0
  00078	6a 07		 push	 7
  0007a	8b 4d 08	 mov	 ecx, DWORD PTR _en$[ebp]
  0007d	51		 push	 ecx
  0007e	69 55 b8 5c 04
	00 00		 imul	 edx, DWORD PTR tv71[ebp], 1116
  00085	8b 45 b4	 mov	 eax, DWORD PTR tv79[ebp]
  00088	8b 8c 82 00 00
	00 00		 mov	 ecx, DWORD PTR ?fn_set_local_entity_int_value@@3PAY0BBH@P6GXPAUENTITY@@W4INT_TYPES@@H@ZA[edx+eax*4]
  0008f	ff d1		 call	 ecx

; 104  : 
; 105  : 	////////////////////////////////////////
; 106  : 	//
; 107  : 	// VALIDATE
; 108  : 	//
; 109  : 	////////////////////////////////////////
; 110  : 
; 111  : 	////////////////////////////////////////
; 112  : 	//
; 113  : 	// DESTROY COMPONENTS
; 114  : 	//
; 115  : 	////////////////////////////////////////
; 116  : 
; 117  : 	destruct_3d_object (raw->vh.inst3d);

  00091	8b 45 fc	 mov	 eax, DWORD PTR _raw$[ebp]
  00094	8b 88 84 00 00
	00		 mov	 ecx, DWORD PTR [eax+132]
  0009a	51		 push	 ecx
  0009b	e8 00 00 00 00	 call	 ?destruct_3d_object@@YGXPAUOBJECT_3D_INSTANCE@@@Z ; destruct_3d_object

; 118  : 
; 119  : 	free_mem (raw->vh.weapon_package_status_array);

  000a0	8b 45 fc	 mov	 eax, DWORD PTR _raw$[ebp]
  000a3	8b 88 18 01 00
	00		 mov	 ecx, DWORD PTR [eax+280]
  000a9	51		 push	 ecx
  000aa	e8 00 00 00 00	 call	 ?free_mem@@YGXPAX@Z	; free_mem

; 120  : 
; 121  : 	if (raw->vh.sound_effect_data)

  000af	8b 45 fc	 mov	 eax, DWORD PTR _raw$[ebp]
  000b2	83 b8 20 01 00
	00 00		 cmp	 DWORD PTR [eax+288], 0
  000b9	74 0f		 je	 SHORT $LN2@destroy_lo

; 122  : 	{
; 123  : 
; 124  : 		destroy_system_sound_effect (raw->vh.sound_effect_data);

  000bb	8b 45 fc	 mov	 eax, DWORD PTR _raw$[ebp]
  000be	8b 88 20 01 00
	00		 mov	 ecx, DWORD PTR [eax+288]
  000c4	51		 push	 ecx
  000c5	e8 00 00 00 00	 call	 ?destroy_system_sound_effect@@YGXPAUSYSTEM_SOUND_EFFECT@@@Z ; destroy_system_sound_effect
$LN2@destroy_lo:

; 125  : 	}
; 126  : 
; 127  : 	////////////////////////////////////////
; 128  : 	//
; 129  : 	// UNLINK FROM SYSTEM
; 130  : 	//
; 131  : 	////////////////////////////////////////
; 132  : 
; 133  : 	//
; 134  : 	// anti_aircraft
; 135  : 	//
; 136  : 
; 137  : 	//
; 138  : 	// vehicle
; 139  : 	//
; 140  : 
; 141  : 	unlink_local_entity_children (en, LIST_TYPE_TASK_DEPENDENT);

  000ca	6a 27		 push	 39			; 00000027H
  000cc	8b 45 08	 mov	 eax, DWORD PTR _en$[ebp]
  000cf	50		 push	 eax
  000d0	e8 00 00 00 00	 call	 ?unlink_local_entity_children@@YGXPAUENTITY@@W4LIST_TYPES@@@Z ; unlink_local_entity_children

; 142  : 
; 143  : 	unlink_local_entity_children (en, LIST_TYPE_LAUNCHED_WEAPON);

  000d5	6a 18		 push	 24			; 00000018H
  000d7	8b 45 08	 mov	 eax, DWORD PTR _en$[ebp]
  000da	50		 push	 eax
  000db	e8 00 00 00 00	 call	 ?unlink_local_entity_children@@YGXPAUENTITY@@W4LIST_TYPES@@@Z ; unlink_local_entity_children

; 144  : 
; 145  : 	delete_local_entity_from_parents_child_list (en, LIST_TYPE_FOLLOWER);

  000e0	6a 0d		 push	 13			; 0000000dH
  000e2	8b 45 08	 mov	 eax, DWORD PTR _en$[ebp]
  000e5	50		 push	 eax
  000e6	e8 00 00 00 00	 call	 ?delete_local_entity_from_parents_child_list@@YGXPAUENTITY@@W4LIST_TYPES@@@Z ; delete_local_entity_from_parents_child_list

; 146  : 
; 147  : 	delete_local_entity_from_parents_child_list (en, LIST_TYPE_DESIGNATED_TARGET); // Jabberwock 031107 Designated targets

  000eb	6a 0a		 push	 10			; 0000000aH
  000ed	8b 45 08	 mov	 eax, DWORD PTR _en$[ebp]
  000f0	50		 push	 eax
  000f1	e8 00 00 00 00	 call	 ?delete_local_entity_from_parents_child_list@@YGXPAUENTITY@@W4LIST_TYPES@@@Z ; delete_local_entity_from_parents_child_list

; 148  : 
; 149  : 	delete_local_entity_from_parents_child_list (en, LIST_TYPE_GUNSHIP_TARGET);

  000f6	6a 12		 push	 18			; 00000012H
  000f8	8b 45 08	 mov	 eax, DWORD PTR _en$[ebp]
  000fb	50		 push	 eax
  000fc	e8 00 00 00 00	 call	 ?delete_local_entity_from_parents_child_list@@YGXPAUENTITY@@W4LIST_TYPES@@@Z ; delete_local_entity_from_parents_child_list

; 150  : 
; 151  : 	delete_local_entity_from_parents_child_list (en, LIST_TYPE_MEMBER);

  00101	6a 19		 push	 25			; 00000019H
  00103	8b 45 08	 mov	 eax, DWORD PTR _en$[ebp]
  00106	50		 push	 eax
  00107	e8 00 00 00 00	 call	 ?delete_local_entity_from_parents_child_list@@YGXPAUENTITY@@W4LIST_TYPES@@@Z ; delete_local_entity_from_parents_child_list

; 152  : 
; 153  : 	delete_local_entity_from_parents_child_list (en, LIST_TYPE_VIEW);

  0010c	6a 2a		 push	 42			; 0000002aH
  0010e	8b 45 08	 mov	 eax, DWORD PTR _en$[ebp]
  00111	50		 push	 eax
  00112	e8 00 00 00 00	 call	 ?delete_local_entity_from_parents_child_list@@YGXPAUENTITY@@W4LIST_TYPES@@@Z ; delete_local_entity_from_parents_child_list

; 154  : 
; 155  : 	delete_local_entity_from_parents_child_list (en, LIST_TYPE_TAKEOFF_QUEUE);

  00117	6a 25		 push	 37			; 00000025H
  00119	8b 45 08	 mov	 eax, DWORD PTR _en$[ebp]
  0011c	50		 push	 eax
  0011d	e8 00 00 00 00	 call	 ?delete_local_entity_from_parents_child_list@@YGXPAUENTITY@@W4LIST_TYPES@@@Z ; delete_local_entity_from_parents_child_list

; 156  : 
; 157  : 	//
; 158  : 	// mobile
; 159  : 	//
; 160  : 
; 161  : 	unlink_local_entity_children (en, LIST_TYPE_SPECIAL_EFFECT);

  00122	6a 24		 push	 36			; 00000024H
  00124	8b 45 08	 mov	 eax, DWORD PTR _en$[ebp]
  00127	50		 push	 eax
  00128	e8 00 00 00 00	 call	 ?unlink_local_entity_children@@YGXPAUENTITY@@W4LIST_TYPES@@@Z ; unlink_local_entity_children

; 162  : 
; 163  : 	unlink_local_entity_children (en, LIST_TYPE_TARGET);

  0012d	6a 26		 push	 38			; 00000026H
  0012f	8b 45 08	 mov	 eax, DWORD PTR _en$[ebp]
  00132	50		 push	 eax
  00133	e8 00 00 00 00	 call	 ?unlink_local_entity_children@@YGXPAUENTITY@@W4LIST_TYPES@@@Z ; unlink_local_entity_children

; 164  : 
; 165  : 	delete_local_entity_from_parents_child_list (en, LIST_TYPE_PADLOCK);

  00138	6a 1b		 push	 27			; 0000001bH
  0013a	8b 45 08	 mov	 eax, DWORD PTR _en$[ebp]
  0013d	50		 push	 eax
  0013e	e8 00 00 00 00	 call	 ?delete_local_entity_from_parents_child_list@@YGXPAUENTITY@@W4LIST_TYPES@@@Z ; delete_local_entity_from_parents_child_list

; 166  : 
; 167  : 	delete_local_entity_from_parents_child_list (en, LIST_TYPE_SECTOR);

  00143	6a 21		 push	 33			; 00000021H
  00145	8b 45 08	 mov	 eax, DWORD PTR _en$[ebp]
  00148	50		 push	 eax
  00149	e8 00 00 00 00	 call	 ?delete_local_entity_from_parents_child_list@@YGXPAUENTITY@@W4LIST_TYPES@@@Z ; delete_local_entity_from_parents_child_list

; 168  : 
; 169  : 	delete_local_entity_from_parents_child_list (en, LIST_TYPE_TARGET);

  0014e	6a 26		 push	 38			; 00000026H
  00150	8b 45 08	 mov	 eax, DWORD PTR _en$[ebp]
  00153	50		 push	 eax
  00154	e8 00 00 00 00	 call	 ?delete_local_entity_from_parents_child_list@@YGXPAUENTITY@@W4LIST_TYPES@@@Z ; delete_local_entity_from_parents_child_list

; 170  : 
; 171  : 	delete_local_entity_from_parents_child_list (en, LIST_TYPE_UPDATE);

  00159	6a 29		 push	 41			; 00000029H
  0015b	8b 45 08	 mov	 eax, DWORD PTR _en$[ebp]
  0015e	50		 push	 eax
  0015f	e8 00 00 00 00	 call	 ?delete_local_entity_from_parents_child_list@@YGXPAUENTITY@@W4LIST_TYPES@@@Z ; delete_local_entity_from_parents_child_list

; 172  : 
; 173  : 	////////////////////////////////////////
; 174  : 	//
; 175  : 	// FREE ENTITY DATA
; 176  : 	//
; 177  : 	////////////////////////////////////////
; 178  : 
; 179  : 	free_mem (raw);

  00164	8b 45 fc	 mov	 eax, DWORD PTR _raw$[ebp]
  00167	50		 push	 eax
  00168	e8 00 00 00 00	 call	 ?free_mem@@YGXPAX@Z	; free_mem

; 180  : 
; 181  : 	set_free_entity (en);

  0016d	8b 45 08	 mov	 eax, DWORD PTR _en$[ebp]
  00170	50		 push	 eax
  00171	e8 00 00 00 00	 call	 ?set_free_entity@@YGXPAUENTITY@@@Z ; set_free_entity

; 182  : }

  00176	5f		 pop	 edi
  00177	5e		 pop	 esi
  00178	5b		 pop	 ebx
  00179	8b e5		 mov	 esp, ebp
  0017b	5d		 pop	 ebp
  0017c	c2 04 00	 ret	 4
?destroy_local@@YGXPAUENTITY@@@Z ENDP			; destroy_local
_TEXT	ENDS
; Function compile flags: /Odtp /ZI
; File c:\users\nhv90\projects\eech\aphavoc\source\entity\mobile\vehicle\anti_air\aa_dstry.c
;	COMDAT ?kill_local_restored_anti_aircraft_entity@@YGXPAUENTITY@@@Z
_TEXT	SEGMENT
tv214 = -80						; size = 4
tv174 = -80						; size = 4
tv154 = -80						; size = 4
tv133 = -80						; size = 4
tv80 = -80						; size = 4
tv227 = -76						; size = 4
tv207 = -76						; size = 4
tv166 = -76						; size = 4
tv146 = -76						; size = 4
tv93 = -76						; size = 4
tv72 = -76						; size = 4
_group$ = -8						; size = 4
_raw$ = -4						; size = 4
_en$ = 8						; size = 4
?kill_local_restored_anti_aircraft_entity@@YGXPAUENTITY@@@Z PROC ; kill_local_restored_anti_aircraft_entity, COMDAT

; 584  : {

  00000	55		 push	 ebp
  00001	8b ec		 mov	 ebp, esp
  00003	83 ec 50	 sub	 esp, 80			; 00000050H
  00006	53		 push	 ebx
  00007	56		 push	 esi
  00008	57		 push	 edi

; 585  : 
; 586  : 	anti_aircraft
; 587  : 		*raw;
; 588  : 
; 589  : 	entity
; 590  : 		*group;
; 591  : 
; 592  : 	raw = (anti_aircraft *) get_local_entity_data (en);

  00009	8b 45 08	 mov	 eax, DWORD PTR _en$[ebp]
  0000c	8b 48 04	 mov	 ecx, DWORD PTR [eax+4]
  0000f	89 4d fc	 mov	 DWORD PTR _raw$[ebp], ecx

; 593  : 
; 594  : 	// must be done before alive flag set to FALSE
; 595  : 	remove_mobile_values_from_sector (get_local_entity_parent (en, LIST_TYPE_SECTOR), en);

  00012	83 7d 08 00	 cmp	 DWORD PTR _en$[ebp], 0
  00016	74 0a		 je	 SHORT $LN6@kill_local
  00018	8b 45 08	 mov	 eax, DWORD PTR _en$[ebp]
  0001b	8b 08		 mov	 ecx, DWORD PTR [eax]
  0001d	89 4d b4	 mov	 DWORD PTR tv72[ebp], ecx
  00020	eb 21		 jmp	 SHORT $LN7@kill_local
$LN6@kill_local:
  00022	8b 15 00 00 00
	00		 mov	 edx, DWORD PTR ?__LINE__Var@?0??kill_local_restored_anti_aircraft_entity@@YGXPAUENTITY@@@Z@4JA
  00028	83 c2 0b	 add	 edx, 11			; 0000000bH
  0002b	52		 push	 edx
  0002c	68 00 00 00 00	 push	 OFFSET ??_C@_0FG@BKDCFGHH@c?3?2users?2nhv90?2projects?2eech?2ap@
  00031	a1 00 00 00 00	 mov	 eax, DWORD PTR ?null_entity_pointer_message@@3PBDB ; null_entity_pointer_message
  00036	50		 push	 eax
  00037	e8 00 00 00 00	 call	 ?process_assert@@YGXPBD0H@Z ; process_assert
  0003c	c7 45 b4 00 00
	00 00		 mov	 DWORD PTR tv72[ebp], 0
$LN7@kill_local:
  00043	b9 01 00 00 00	 mov	 ecx, 1
  00048	85 c9		 test	 ecx, ecx
  0004a	74 09		 je	 SHORT $LN8@kill_local
  0004c	c7 45 b0 21 00
	00 00		 mov	 DWORD PTR tv80[ebp], 33	; 00000021H
  00053	eb 21		 jmp	 SHORT $LN9@kill_local
$LN8@kill_local:
  00055	8b 15 00 00 00
	00		 mov	 edx, DWORD PTR ?__LINE__Var@?0??kill_local_restored_anti_aircraft_entity@@YGXPAUENTITY@@@Z@4JA
  0005b	83 c2 0b	 add	 edx, 11			; 0000000bH
  0005e	52		 push	 edx
  0005f	68 00 00 00 00	 push	 OFFSET ??_C@_0FG@BKDCFGHH@c?3?2users?2nhv90?2projects?2eech?2ap@
  00064	a1 00 00 00 00	 mov	 eax, DWORD PTR ?overload_invalid_list_type_message@@3PBDB ; overload_invalid_list_type_message
  00069	50		 push	 eax
  0006a	e8 00 00 00 00	 call	 ?process_assert@@YGXPBD0H@Z ; process_assert
  0006f	c7 45 b0 00 00
	00 00		 mov	 DWORD PTR tv80[ebp], 0
$LN9@kill_local:
  00076	8b 4d 08	 mov	 ecx, DWORD PTR _en$[ebp]
  00079	51		 push	 ecx
  0007a	6a 21		 push	 33			; 00000021H
  0007c	8b 55 08	 mov	 edx, DWORD PTR _en$[ebp]
  0007f	52		 push	 edx
  00080	69 45 b4 b4 00
	00 00		 imul	 eax, DWORD PTR tv72[ebp], 180
  00087	8b 4d b0	 mov	 ecx, DWORD PTR tv80[ebp]
  0008a	8b 94 88 00 00
	00 00		 mov	 edx, DWORD PTR ?fn_get_local_entity_parent@@3PAY0CN@P6GPAUENTITY@@PAU1@W4LIST_TYPES@@@ZA[eax+ecx*4]
  00091	ff d2		 call	 edx
  00093	50		 push	 eax
  00094	e8 00 00 00 00	 call	 ?remove_mobile_values_from_sector@@YGXPAUENTITY@@0@Z ; remove_mobile_values_from_sector

; 596  : 
; 597  : 	set_local_entity_int_value (en, INT_TYPE_ALIVE, FALSE);

  00099	83 7d 08 00	 cmp	 DWORD PTR _en$[ebp], 0
  0009d	74 0a		 je	 SHORT $LN10@kill_local
  0009f	8b 45 08	 mov	 eax, DWORD PTR _en$[ebp]
  000a2	8b 08		 mov	 ecx, DWORD PTR [eax]
  000a4	89 4d b4	 mov	 DWORD PTR tv93[ebp], ecx
  000a7	eb 21		 jmp	 SHORT $LN11@kill_local
$LN10@kill_local:
  000a9	8b 15 00 00 00
	00		 mov	 edx, DWORD PTR ?__LINE__Var@?0??kill_local_restored_anti_aircraft_entity@@YGXPAUENTITY@@@Z@4JA
  000af	83 c2 0d	 add	 edx, 13			; 0000000dH
  000b2	52		 push	 edx
  000b3	68 00 00 00 00	 push	 OFFSET ??_C@_0FG@BKDCFGHH@c?3?2users?2nhv90?2projects?2eech?2ap@
  000b8	a1 00 00 00 00	 mov	 eax, DWORD PTR ?null_entity_pointer_message@@3PBDB ; null_entity_pointer_message
  000bd	50		 push	 eax
  000be	e8 00 00 00 00	 call	 ?process_assert@@YGXPBD0H@Z ; process_assert
  000c3	c7 45 b4 00 00
	00 00		 mov	 DWORD PTR tv93[ebp], 0
$LN11@kill_local:
  000ca	b9 01 00 00 00	 mov	 ecx, 1
  000cf	85 c9		 test	 ecx, ecx
  000d1	74 09		 je	 SHORT $LN12@kill_local
  000d3	c7 45 b0 07 00
	00 00		 mov	 DWORD PTR tv133[ebp], 7
  000da	eb 21		 jmp	 SHORT $LN13@kill_local
$LN12@kill_local:
  000dc	8b 15 00 00 00
	00		 mov	 edx, DWORD PTR ?__LINE__Var@?0??kill_local_restored_anti_aircraft_entity@@YGXPAUENTITY@@@Z@4JA
  000e2	83 c2 0d	 add	 edx, 13			; 0000000dH
  000e5	52		 push	 edx
  000e6	68 00 00 00 00	 push	 OFFSET ??_C@_0FG@BKDCFGHH@c?3?2users?2nhv90?2projects?2eech?2ap@
  000eb	a1 00 00 00 00	 mov	 eax, DWORD PTR ?overload_invalid_int_type_message@@3PBDB ; overload_invalid_int_type_message
  000f0	50		 push	 eax
  000f1	e8 00 00 00 00	 call	 ?process_assert@@YGXPBD0H@Z ; process_assert
  000f6	c7 45 b0 00 00
	00 00		 mov	 DWORD PTR tv133[ebp], 0
$LN13@kill_local:
  000fd	6a 00		 push	 0
  000ff	6a 07		 push	 7
  00101	8b 4d 08	 mov	 ecx, DWORD PTR _en$[ebp]
  00104	51		 push	 ecx
  00105	69 55 b4 5c 04
	00 00		 imul	 edx, DWORD PTR tv93[ebp], 1116
  0010c	8b 45 b0	 mov	 eax, DWORD PTR tv133[ebp]
  0010f	8b 8c 82 00 00
	00 00		 mov	 ecx, DWORD PTR ?fn_set_local_entity_int_value@@3PAY0BBH@P6GXPAUENTITY@@W4INT_TYPES@@H@ZA[edx+eax*4]
  00116	ff d1		 call	 ecx

; 598  : 
; 599  : 	damage_anti_aircraft_3d_object (en);

  00118	8b 45 08	 mov	 eax, DWORD PTR _en$[ebp]
  0011b	50		 push	 eax
  0011c	e8 00 00 00 00	 call	 ?damage_anti_aircraft_3d_object@@YGXPAUENTITY@@@Z ; damage_anti_aircraft_3d_object

; 600  : 
; 601  : 	set_local_entity_int_value (en, INT_TYPE_OPERATIONAL_STATE, OPERATIONAL_STATE_DEAD);

  00121	83 7d 08 00	 cmp	 DWORD PTR _en$[ebp], 0
  00125	74 0a		 je	 SHORT $LN14@kill_local
  00127	8b 45 08	 mov	 eax, DWORD PTR _en$[ebp]
  0012a	8b 08		 mov	 ecx, DWORD PTR [eax]
  0012c	89 4d b4	 mov	 DWORD PTR tv146[ebp], ecx
  0012f	eb 21		 jmp	 SHORT $LN15@kill_local
$LN14@kill_local:
  00131	8b 15 00 00 00
	00		 mov	 edx, DWORD PTR ?__LINE__Var@?0??kill_local_restored_anti_aircraft_entity@@YGXPAUENTITY@@@Z@4JA
  00137	83 c2 11	 add	 edx, 17			; 00000011H
  0013a	52		 push	 edx
  0013b	68 00 00 00 00	 push	 OFFSET ??_C@_0FG@BKDCFGHH@c?3?2users?2nhv90?2projects?2eech?2ap@
  00140	a1 00 00 00 00	 mov	 eax, DWORD PTR ?null_entity_pointer_message@@3PBDB ; null_entity_pointer_message
  00145	50		 push	 eax
  00146	e8 00 00 00 00	 call	 ?process_assert@@YGXPBD0H@Z ; process_assert
  0014b	c7 45 b4 00 00
	00 00		 mov	 DWORD PTR tv146[ebp], 0
$LN15@kill_local:
  00152	b9 01 00 00 00	 mov	 ecx, 1
  00157	85 c9		 test	 ecx, ecx
  00159	74 09		 je	 SHORT $LN16@kill_local
  0015b	c7 45 b0 97 00
	00 00		 mov	 DWORD PTR tv154[ebp], 151 ; 00000097H
  00162	eb 21		 jmp	 SHORT $LN17@kill_local
$LN16@kill_local:
  00164	8b 15 00 00 00
	00		 mov	 edx, DWORD PTR ?__LINE__Var@?0??kill_local_restored_anti_aircraft_entity@@YGXPAUENTITY@@@Z@4JA
  0016a	83 c2 11	 add	 edx, 17			; 00000011H
  0016d	52		 push	 edx
  0016e	68 00 00 00 00	 push	 OFFSET ??_C@_0FG@BKDCFGHH@c?3?2users?2nhv90?2projects?2eech?2ap@
  00173	a1 00 00 00 00	 mov	 eax, DWORD PTR ?overload_invalid_int_type_message@@3PBDB ; overload_invalid_int_type_message
  00178	50		 push	 eax
  00179	e8 00 00 00 00	 call	 ?process_assert@@YGXPBD0H@Z ; process_assert
  0017e	c7 45 b0 00 00
	00 00		 mov	 DWORD PTR tv154[ebp], 0
$LN17@kill_local:
  00185	6a 02		 push	 2
  00187	68 97 00 00 00	 push	 151			; 00000097H
  0018c	8b 4d 08	 mov	 ecx, DWORD PTR _en$[ebp]
  0018f	51		 push	 ecx
  00190	69 55 b4 5c 04
	00 00		 imul	 edx, DWORD PTR tv146[ebp], 1116
  00197	8b 45 b0	 mov	 eax, DWORD PTR tv154[ebp]
  0019a	8b 8c 82 00 00
	00 00		 mov	 ecx, DWORD PTR ?fn_set_local_entity_int_value@@3PAY0BBH@P6GXPAUENTITY@@W4INT_TYPES@@H@ZA[edx+eax*4]
  001a1	ff d1		 call	 ecx

; 602  : 
; 603  : 	////////////////////////////////////////
; 604  : 	//
; 605  : 	// DESTROY COMPONENTS
; 606  : 	//
; 607  : 	////////////////////////////////////////
; 608  : 
; 609  : 	group = get_local_entity_parent (en, LIST_TYPE_MEMBER);

  001a3	83 7d 08 00	 cmp	 DWORD PTR _en$[ebp], 0
  001a7	74 0a		 je	 SHORT $LN18@kill_local
  001a9	8b 45 08	 mov	 eax, DWORD PTR _en$[ebp]
  001ac	8b 08		 mov	 ecx, DWORD PTR [eax]
  001ae	89 4d b4	 mov	 DWORD PTR tv166[ebp], ecx
  001b1	eb 21		 jmp	 SHORT $LN19@kill_local
$LN18@kill_local:
  001b3	8b 15 00 00 00
	00		 mov	 edx, DWORD PTR ?__LINE__Var@?0??kill_local_restored_anti_aircraft_entity@@YGXPAUENTITY@@@Z@4JA
  001b9	83 c2 19	 add	 edx, 25			; 00000019H
  001bc	52		 push	 edx
  001bd	68 00 00 00 00	 push	 OFFSET ??_C@_0FG@BKDCFGHH@c?3?2users?2nhv90?2projects?2eech?2ap@
  001c2	a1 00 00 00 00	 mov	 eax, DWORD PTR ?null_entity_pointer_message@@3PBDB ; null_entity_pointer_message
  001c7	50		 push	 eax
  001c8	e8 00 00 00 00	 call	 ?process_assert@@YGXPBD0H@Z ; process_assert
  001cd	c7 45 b4 00 00
	00 00		 mov	 DWORD PTR tv166[ebp], 0
$LN19@kill_local:
  001d4	b9 01 00 00 00	 mov	 ecx, 1
  001d9	85 c9		 test	 ecx, ecx
  001db	74 09		 je	 SHORT $LN20@kill_local
  001dd	c7 45 b0 19 00
	00 00		 mov	 DWORD PTR tv174[ebp], 25 ; 00000019H
  001e4	eb 21		 jmp	 SHORT $LN21@kill_local
$LN20@kill_local:
  001e6	8b 15 00 00 00
	00		 mov	 edx, DWORD PTR ?__LINE__Var@?0??kill_local_restored_anti_aircraft_entity@@YGXPAUENTITY@@@Z@4JA
  001ec	83 c2 19	 add	 edx, 25			; 00000019H
  001ef	52		 push	 edx
  001f0	68 00 00 00 00	 push	 OFFSET ??_C@_0FG@BKDCFGHH@c?3?2users?2nhv90?2projects?2eech?2ap@
  001f5	a1 00 00 00 00	 mov	 eax, DWORD PTR ?overload_invalid_list_type_message@@3PBDB ; overload_invalid_list_type_message
  001fa	50		 push	 eax
  001fb	e8 00 00 00 00	 call	 ?process_assert@@YGXPBD0H@Z ; process_assert
  00200	c7 45 b0 00 00
	00 00		 mov	 DWORD PTR tv174[ebp], 0
$LN21@kill_local:
  00207	6a 19		 push	 25			; 00000019H
  00209	8b 4d 08	 mov	 ecx, DWORD PTR _en$[ebp]
  0020c	51		 push	 ecx
  0020d	69 55 b4 b4 00
	00 00		 imul	 edx, DWORD PTR tv166[ebp], 180
  00214	8b 45 b0	 mov	 eax, DWORD PTR tv174[ebp]
  00217	8b 8c 82 00 00
	00 00		 mov	 ecx, DWORD PTR ?fn_get_local_entity_parent@@3PAY0CN@P6GPAUENTITY@@PAU1@W4LIST_TYPES@@@ZA[edx+eax*4]
  0021e	ff d1		 call	 ecx
  00220	89 45 f8	 mov	 DWORD PTR _group$[ebp], eax

; 610  : 
; 611  : 	////////////////////////////////////////
; 612  : 	//
; 613  : 	// UNLINK FROM SYSTEM
; 614  : 	//
; 615  : 	////////////////////////////////////////
; 616  : 
; 617  : 	unlink_local_entity_children (en, LIST_TYPE_TASK_DEPENDENT);

  00223	6a 27		 push	 39			; 00000027H
  00225	8b 45 08	 mov	 eax, DWORD PTR _en$[ebp]
  00228	50		 push	 eax
  00229	e8 00 00 00 00	 call	 ?unlink_local_entity_children@@YGXPAUENTITY@@W4LIST_TYPES@@@Z ; unlink_local_entity_children

; 618  : 
; 619  : 	unlink_local_entity_children (en, LIST_TYPE_LAUNCHED_WEAPON);

  0022e	6a 18		 push	 24			; 00000018H
  00230	8b 45 08	 mov	 eax, DWORD PTR _en$[ebp]
  00233	50		 push	 eax
  00234	e8 00 00 00 00	 call	 ?unlink_local_entity_children@@YGXPAUENTITY@@W4LIST_TYPES@@@Z ; unlink_local_entity_children

; 620  : 
; 621  : 	delete_local_entity_from_parents_child_list (en, LIST_TYPE_MEMBER);

  00239	6a 19		 push	 25			; 00000019H
  0023b	8b 45 08	 mov	 eax, DWORD PTR _en$[ebp]
  0023e	50		 push	 eax
  0023f	e8 00 00 00 00	 call	 ?delete_local_entity_from_parents_child_list@@YGXPAUENTITY@@W4LIST_TYPES@@@Z ; delete_local_entity_from_parents_child_list

; 622  : 
; 623  : 	delete_local_entity_from_parents_child_list (en, LIST_TYPE_FOLLOWER);

  00244	6a 0d		 push	 13			; 0000000dH
  00246	8b 45 08	 mov	 eax, DWORD PTR _en$[ebp]
  00249	50		 push	 eax
  0024a	e8 00 00 00 00	 call	 ?delete_local_entity_from_parents_child_list@@YGXPAUENTITY@@W4LIST_TYPES@@@Z ; delete_local_entity_from_parents_child_list

; 624  : 
; 625  : 	// gunship_target_link
; 626  : 
; 627  : 	// member_link
; 628  : 
; 629  : 	// view_link
; 630  : 
; 631  : 	unlink_local_entity_children (en, LIST_TYPE_TARGET);

  0024f	6a 26		 push	 38			; 00000026H
  00251	8b 45 08	 mov	 eax, DWORD PTR _en$[ebp]
  00254	50		 push	 eax
  00255	e8 00 00 00 00	 call	 ?unlink_local_entity_children@@YGXPAUENTITY@@W4LIST_TYPES@@@Z ; unlink_local_entity_children

; 632  : 
; 633  : 	delete_local_entity_from_parents_child_list (en, LIST_TYPE_PADLOCK);

  0025a	6a 1b		 push	 27			; 0000001bH
  0025c	8b 45 08	 mov	 eax, DWORD PTR _en$[ebp]
  0025f	50		 push	 eax
  00260	e8 00 00 00 00	 call	 ?delete_local_entity_from_parents_child_list@@YGXPAUENTITY@@W4LIST_TYPES@@@Z ; delete_local_entity_from_parents_child_list

; 634  : 
; 635  : 	// sector_link
; 636  : 
; 637  : 	delete_local_entity_from_parents_child_list (en, LIST_TYPE_TARGET);

  00265	6a 26		 push	 38			; 00000026H
  00267	8b 45 08	 mov	 eax, DWORD PTR _en$[ebp]
  0026a	50		 push	 eax
  0026b	e8 00 00 00 00	 call	 ?delete_local_entity_from_parents_child_list@@YGXPAUENTITY@@W4LIST_TYPES@@@Z ; delete_local_entity_from_parents_child_list

; 638  : 
; 639  : 	delete_local_entity_from_parents_child_list (en, LIST_TYPE_UPDATE);

  00270	6a 29		 push	 41			; 00000029H
  00272	8b 45 08	 mov	 eax, DWORD PTR _en$[ebp]
  00275	50		 push	 eax
  00276	e8 00 00 00 00	 call	 ?delete_local_entity_from_parents_child_list@@YGXPAUENTITY@@W4LIST_TYPES@@@Z ; delete_local_entity_from_parents_child_list

; 640  : 
; 641  : 	//
; 642  : 	// kill weapon sound effects
; 643  : 	//
; 644  : 
; 645  : 	kill_local_entity_sound_type (en, ENTITY_SUB_TYPE_EFFECT_SOUND_CHAIN_GUN);

  0027b	6a 10		 push	 16			; 00000010H
  0027d	8b 45 08	 mov	 eax, DWORD PTR _en$[ebp]
  00280	50		 push	 eax
  00281	e8 00 00 00 00	 call	 ?kill_local_entity_sound_type@@YGXPAUENTITY@@H@Z ; kill_local_entity_sound_type

; 646  : 
; 647  : 	//
; 648  : 	// Notify the GROUP that the mobile has been killed  (N.B. must be done AFTER mobile is unlinked from member list)
; 649  : 	//
; 650  : 
; 651  : 	if (get_comms_model () == COMMS_MODEL_SERVER)

  00286	83 3d 00 00 00
	00 00		 cmp	 DWORD PTR ?system_comms_model@@3W4COMMS_MODEL_TYPES@@A, 0 ; system_comms_model
  0028d	75 17		 jne	 SHORT $LN2@kill_local

; 652  : 	{
; 653  : 		notify_local_entity (ENTITY_MESSAGE_MOBILE_KILLED, group, en);

  0028f	8b 45 08	 mov	 eax, DWORD PTR _en$[ebp]
  00292	50		 push	 eax
  00293	8b 4d f8	 mov	 ecx, DWORD PTR _group$[ebp]
  00296	51		 push	 ecx
  00297	6a 28		 push	 40			; 00000028H
  00299	e8 00 00 00 00	 call	 ?notify_local_entity@@YAHW4ENTITY_MESSAGES@@PAUENTITY@@1ZZ ; notify_local_entity
  0029e	83 c4 0c	 add	 esp, 12			; 0000000cH

; 654  : 	}
; 655  : 	else

  002a1	e9 bd 00 00 00	 jmp	 $LN1@kill_local
$LN2@kill_local:

; 656  : 	{
; 657  : 		//
; 658  : 		// Client - Kill local group if empty
; 659  : 		//
; 660  : 
; 661  : 		if (get_local_entity_int_value (group, INT_TYPE_MEMBER_COUNT) == 0)

  002a6	83 7d f8 00	 cmp	 DWORD PTR _group$[ebp], 0
  002aa	74 0a		 je	 SHORT $LN22@kill_local
  002ac	8b 45 f8	 mov	 eax, DWORD PTR _group$[ebp]
  002af	8b 08		 mov	 ecx, DWORD PTR [eax]
  002b1	89 4d b4	 mov	 DWORD PTR tv207[ebp], ecx
  002b4	eb 1d		 jmp	 SHORT $LN23@kill_local
$LN22@kill_local:
  002b6	68 95 02 00 00	 push	 661			; 00000295H
  002bb	68 00 00 00 00	 push	 OFFSET ??_C@_0FG@BKDCFGHH@c?3?2users?2nhv90?2projects?2eech?2ap@
  002c0	8b 15 00 00 00
	00		 mov	 edx, DWORD PTR ?null_entity_pointer_message@@3PBDB ; null_entity_pointer_message
  002c6	52		 push	 edx
  002c7	e8 00 00 00 00	 call	 ?process_assert@@YGXPBD0H@Z ; process_assert
  002cc	c7 45 b4 00 00
	00 00		 mov	 DWORD PTR tv207[ebp], 0
$LN23@kill_local:
  002d3	b8 01 00 00 00	 mov	 eax, 1
  002d8	85 c0		 test	 eax, eax
  002da	74 09		 je	 SHORT $LN24@kill_local
  002dc	c7 45 b0 86 00
	00 00		 mov	 DWORD PTR tv214[ebp], 134 ; 00000086H
  002e3	eb 1d		 jmp	 SHORT $LN25@kill_local
$LN24@kill_local:
  002e5	68 95 02 00 00	 push	 661			; 00000295H
  002ea	68 00 00 00 00	 push	 OFFSET ??_C@_0FG@BKDCFGHH@c?3?2users?2nhv90?2projects?2eech?2ap@
  002ef	8b 0d 00 00 00
	00		 mov	 ecx, DWORD PTR ?overload_invalid_int_type_message@@3PBDB ; overload_invalid_int_type_message
  002f5	51		 push	 ecx
  002f6	e8 00 00 00 00	 call	 ?process_assert@@YGXPBD0H@Z ; process_assert
  002fb	c7 45 b0 00 00
	00 00		 mov	 DWORD PTR tv214[ebp], 0
$LN25@kill_local:
  00302	68 86 00 00 00	 push	 134			; 00000086H
  00307	8b 55 f8	 mov	 edx, DWORD PTR _group$[ebp]
  0030a	52		 push	 edx
  0030b	69 45 b4 5c 04
	00 00		 imul	 eax, DWORD PTR tv207[ebp], 1116
  00312	8b 4d b0	 mov	 ecx, DWORD PTR tv214[ebp]
  00315	8b 94 88 00 00
	00 00		 mov	 edx, DWORD PTR ?fn_get_local_entity_int_value@@3PAY0BBH@P6GHPAUENTITY@@W4INT_TYPES@@@ZA[eax+ecx*4]
  0031c	ff d2		 call	 edx
  0031e	85 c0		 test	 eax, eax
  00320	75 41		 jne	 SHORT $LN1@kill_local

; 662  : 		{
; 663  : 			kill_local_entity (group);

  00322	83 7d f8 00	 cmp	 DWORD PTR _group$[ebp], 0
  00326	74 0a		 je	 SHORT $LN26@kill_local
  00328	8b 45 f8	 mov	 eax, DWORD PTR _group$[ebp]
  0032b	8b 08		 mov	 ecx, DWORD PTR [eax]
  0032d	89 4d b4	 mov	 DWORD PTR tv227[ebp], ecx
  00330	eb 21		 jmp	 SHORT $LN27@kill_local
$LN26@kill_local:
  00332	8b 15 00 00 00
	00		 mov	 edx, DWORD PTR ?__LINE__Var@?0??kill_local_restored_anti_aircraft_entity@@YGXPAUENTITY@@@Z@4JA
  00338	83 c2 4f	 add	 edx, 79			; 0000004fH
  0033b	52		 push	 edx
  0033c	68 00 00 00 00	 push	 OFFSET ??_C@_0FG@BKDCFGHH@c?3?2users?2nhv90?2projects?2eech?2ap@
  00341	a1 00 00 00 00	 mov	 eax, DWORD PTR ?null_entity_pointer_message@@3PBDB ; null_entity_pointer_message
  00346	50		 push	 eax
  00347	e8 00 00 00 00	 call	 ?process_assert@@YGXPBD0H@Z ; process_assert
  0034c	c7 45 b4 00 00
	00 00		 mov	 DWORD PTR tv227[ebp], 0
$LN27@kill_local:
  00353	8b 4d f8	 mov	 ecx, DWORD PTR _group$[ebp]
  00356	51		 push	 ecx
  00357	8b 55 b4	 mov	 edx, DWORD PTR tv227[ebp]
  0035a	8b 04 95 00 00
	00 00		 mov	 eax, DWORD PTR ?fn_kill_local_entity@@3PAP6GXPAUENTITY@@@ZA[edx*4]
  00361	ff d0		 call	 eax
$LN1@kill_local:

; 664  : 		}
; 665  : 	}
; 666  : }

  00363	5f		 pop	 edi
  00364	5e		 pop	 esi
  00365	5b		 pop	 ebx
  00366	8b e5		 mov	 esp, ebp
  00368	5d		 pop	 ebp
  00369	c2 04 00	 ret	 4
?kill_local_restored_anti_aircraft_entity@@YGXPAUENTITY@@@Z ENDP ; kill_local_restored_anti_aircraft_entity
_TEXT	ENDS
; Function compile flags: /Odtp /ZI
; File c:\users\nhv90\projects\eech\aphavoc\source\entity\mobile\vehicle\anti_air\aa_dstry.c
;	COMDAT ?overload_anti_aircraft_destroy_functions@@YGXXZ
_TEXT	SEGMENT
?overload_anti_aircraft_destroy_functions@@YGXXZ PROC	; overload_anti_aircraft_destroy_functions, COMDAT

; 565  : {

  00000	55		 push	 ebp
  00001	8b ec		 mov	 ebp, esp
  00003	83 ec 40	 sub	 esp, 64			; 00000040H
  00006	53		 push	 ebx
  00007	56		 push	 esi
  00008	57		 push	 edi

; 566  : 	fn_destroy_local_entity						[ENTITY_TYPE_ANTI_AIRCRAFT]								= destroy_local;

  00009	b8 04 00 00 00	 mov	 eax, 4
  0000e	c1 e0 00	 shl	 eax, 0
  00011	c7 80 00 00 00
	00 00 00 00 00	 mov	 DWORD PTR ?fn_destroy_local_entity@@3PAP6GXPAUENTITY@@@ZA[eax], OFFSET ?destroy_local@@YGXPAUENTITY@@@Z ; destroy_local

; 567  : 	fn_destroy_client_server_entity			[ENTITY_TYPE_ANTI_AIRCRAFT][COMMS_MODEL_SERVER]		= destroy_server;

  0001b	b8 08 00 00 00	 mov	 eax, 8
  00020	c1 e0 00	 shl	 eax, 0
  00023	b9 04 00 00 00	 mov	 ecx, 4
  00028	6b d1 00	 imul	 edx, ecx, 0
  0002b	c7 84 10 00 00
	00 00 00 00 00
	00		 mov	 DWORD PTR ?fn_destroy_client_server_entity@@3PAY01P6GXPAUENTITY@@@ZA[eax+edx], OFFSET ?destroy_server@@YGXPAUENTITY@@@Z ; destroy_server

; 568  : 	fn_destroy_client_server_entity			[ENTITY_TYPE_ANTI_AIRCRAFT][COMMS_MODEL_CLIENT]		= destroy_client;

  00036	b8 08 00 00 00	 mov	 eax, 8
  0003b	c1 e0 00	 shl	 eax, 0
  0003e	b9 04 00 00 00	 mov	 ecx, 4
  00043	c1 e1 00	 shl	 ecx, 0
  00046	c7 84 08 00 00
	00 00 00 00 00
	00		 mov	 DWORD PTR ?fn_destroy_client_server_entity@@3PAY01P6GXPAUENTITY@@@ZA[eax+ecx], OFFSET ?destroy_client@@YGXPAUENTITY@@@Z ; destroy_client

; 569  : 
; 570  : 	fn_destroy_local_entity_family			[ENTITY_TYPE_ANTI_AIRCRAFT]								= destroy_local_family;

  00051	b8 04 00 00 00	 mov	 eax, 4
  00056	c1 e0 00	 shl	 eax, 0
  00059	c7 80 00 00 00
	00 00 00 00 00	 mov	 DWORD PTR ?fn_destroy_local_entity_family@@3PAP6GXPAUENTITY@@@ZA[eax], OFFSET ?destroy_local_family@@YGXPAUENTITY@@@Z ; destroy_local_family

; 571  : 	fn_destroy_client_server_entity_family	[ENTITY_TYPE_ANTI_AIRCRAFT][COMMS_MODEL_SERVER]		= destroy_server_family;

  00063	b8 08 00 00 00	 mov	 eax, 8
  00068	c1 e0 00	 shl	 eax, 0
  0006b	b9 04 00 00 00	 mov	 ecx, 4
  00070	6b d1 00	 imul	 edx, ecx, 0
  00073	c7 84 10 00 00
	00 00 00 00 00
	00		 mov	 DWORD PTR ?fn_destroy_client_server_entity_family@@3PAY01P6GXPAUENTITY@@@ZA[eax+edx], OFFSET ?destroy_server_family@@YGXPAUENTITY@@@Z ; destroy_server_family

; 572  : 	fn_destroy_client_server_entity_family	[ENTITY_TYPE_ANTI_AIRCRAFT][COMMS_MODEL_CLIENT]		= destroy_client_family;

  0007e	b8 08 00 00 00	 mov	 eax, 8
  00083	c1 e0 00	 shl	 eax, 0
  00086	b9 04 00 00 00	 mov	 ecx, 4
  0008b	c1 e1 00	 shl	 ecx, 0
  0008e	c7 84 08 00 00
	00 00 00 00 00
	00		 mov	 DWORD PTR ?fn_destroy_client_server_entity_family@@3PAY01P6GXPAUENTITY@@@ZA[eax+ecx], OFFSET ?destroy_client_family@@YGXPAUENTITY@@@Z ; destroy_client_family

; 573  : 
; 574  : 	fn_kill_local_entity							[ENTITY_TYPE_ANTI_AIRCRAFT]								= kill_local;

  00099	b8 04 00 00 00	 mov	 eax, 4
  0009e	c1 e0 00	 shl	 eax, 0
  000a1	c7 80 00 00 00
	00 00 00 00 00	 mov	 DWORD PTR ?fn_kill_local_entity@@3PAP6GXPAUENTITY@@@ZA[eax], OFFSET ?kill_local@@YGXPAUENTITY@@@Z ; kill_local

; 575  : 	fn_kill_client_server_entity				[ENTITY_TYPE_ANTI_AIRCRAFT][COMMS_MODEL_SERVER]		= kill_server;

  000ab	b8 08 00 00 00	 mov	 eax, 8
  000b0	c1 e0 00	 shl	 eax, 0
  000b3	b9 04 00 00 00	 mov	 ecx, 4
  000b8	6b d1 00	 imul	 edx, ecx, 0
  000bb	c7 84 10 00 00
	00 00 00 00 00
	00		 mov	 DWORD PTR ?fn_kill_client_server_entity@@3PAY01P6GXPAUENTITY@@@ZA[eax+edx], OFFSET ?kill_server@@YGXPAUENTITY@@@Z ; kill_server

; 576  : 	fn_kill_client_server_entity				[ENTITY_TYPE_ANTI_AIRCRAFT][COMMS_MODEL_CLIENT]		= kill_client;

  000c6	b8 08 00 00 00	 mov	 eax, 8
  000cb	c1 e0 00	 shl	 eax, 0
  000ce	b9 04 00 00 00	 mov	 ecx, 4
  000d3	c1 e1 00	 shl	 ecx, 0
  000d6	c7 84 08 00 00
	00 00 00 00 00
	00		 mov	 DWORD PTR ?fn_kill_client_server_entity@@3PAY01P6GXPAUENTITY@@@ZA[eax+ecx], OFFSET ?kill_client@@YGXPAUENTITY@@@Z ; kill_client

; 577  : }

  000e1	5f		 pop	 edi
  000e2	5e		 pop	 esi
  000e3	5b		 pop	 ebx
  000e4	8b e5		 mov	 esp, ebp
  000e6	5d		 pop	 ebp
  000e7	c3		 ret	 0
?overload_anti_aircraft_destroy_functions@@YGXXZ ENDP	; overload_anti_aircraft_destroy_functions
_TEXT	ENDS
END
