; Listing generated by Microsoft (R) Optimizing Compiler Version 19.16.27045.0 

	TITLE	C:\Users\nhv90\Projects\eech\aphavoc\source\entity\mobile\aircraft\ac_float.c
	.686P
	.XMM
	include listing.inc
	.model	flat

INCLUDELIB MSVCRTD
INCLUDELIB OLDNAMES

PUBLIC	?overload_aircraft_float_value_functions@@YGXW4ENTITY_TYPES@@@Z ; overload_aircraft_float_value_functions
PUBLIC	??$max@M@std@@YGABMABM0@Z			; std::max<float>
PUBLIC	??_C@_02DKCKIIND@?$CFs@				; `string'
PUBLIC	?__LINE__Var@?0??set_local_float_value@@YGXPAUENTITY@@W4FLOAT_TYPES@@M@Z@4JA ; `set_local_float_value'::`1'::__LINE__Var
PUBLIC	??_C@_0EO@NGJGOEIH@c?3?2users?2nhv90?2projects?2eech?2ap@ ; `string'
PUBLIC	?__LINE__Var@?0??set_server_float_value@@YGXPAUENTITY@@W4FLOAT_TYPES@@M@Z@4JA ; `set_server_float_value'::`1'::__LINE__Var
PUBLIC	??_C@_0CB@CFOCLFOK@assert_client_server_local_fn?5?$CI@ ; `string'
PUBLIC	??_C@_0CC@BNNNEGEG@assert_client_server_remote_fn?5@ ; `string'
PUBLIC	?__LINE__Var@?0??set_client_float_value@@YGXPAUENTITY@@W4FLOAT_TYPES@@M@Z@4JA ; `set_client_float_value'::`1'::__LINE__Var
PUBLIC	?__LINE__Var@?0??get_local_float_value@@YGMPAUENTITY@@W4FLOAT_TYPES@@@Z@4JA ; `get_local_float_value'::`1'::__LINE__Var
PUBLIC	??_C@_0BD@FEEMDEPI@invalid?5comparator@		; `string'
PUBLIC	??_C@_0GK@JMBMHIBC@c?3?2program?5files?5?$CIx86?$CJ?2microsof@ ; `string'
PUBLIC	??_C@_1NE@FKBPBJEB@?$AAc?$AA?3?$AA?2?$AAp?$AAr?$AAo?$AAg?$AAr?$AAa?$AAm?$AA?5?$AAf?$AAi?$AAl?$AAe@ ; `string'
PUBLIC	??_C@_1BC@ICCOKLEG@?$AAs?$AAt?$AAd?$AA?3?$AA?3?$AAm?$AAa?$AAx@ ; `string'
PUBLIC	??_C@_1CK@NDNHPKPI@?$AA?$CC?$AAi?$AAn?$AAv?$AAa?$AAl?$AAi?$AAd?$AA?5?$AAc?$AAo?$AAm?$AAp?$AAa?$AAr@ ; `string'
EXTRN	__imp___invalid_parameter:PROC
EXTRN	__imp___CrtDbgReport:PROC
EXTRN	?process_assert@@YGXPBD0H@Z:PROC		; process_assert
EXTRN	?debug_fatal@@YAXPBDZZ:PROC			; debug_fatal
EXTRN	?get_3d_terrain_point_data_elevation@@YGMPAUTERRAIN_3D_POINT_DATA@@@Z:PROC ; get_3d_terrain_point_data_elevation
EXTRN	?transmit_entity_comms_message@@YAXW4ENTITY_COMMS_MESSAGES@@PAUENTITY@@ZZ:PROC ; transmit_entity_comms_message
EXTRN	?assert_client_server_local_fn@@YGHXZ:PROC	; assert_client_server_local_fn
EXTRN	?assert_client_server_remote_fn@@YGHXZ:PROC	; assert_client_server_remote_fn
EXTRN	?object_3d_information_database@@3PAUOBJECT_3D_INFORMATION@@A:DWORD ; object_3d_information_database
EXTRN	?null_entity_pointer_message@@3PBDB:DWORD	; null_entity_pointer_message
EXTRN	?entity_type_database@@3PAUENTITY_TYPE_DATA@@A:BYTE ; entity_type_database
EXTRN	?system_comms_data_flow@@3W4COMMS_DATA_FLOW_TYPES@@A:DWORD ; system_comms_data_flow
EXTRN	?float_type_database@@3PAUFLOAT_TYPE_DATA@@A:BYTE ; float_type_database
EXTRN	?debug_fatal_invalid_float_type_message@@3PBDB:DWORD ; debug_fatal_invalid_float_type_message
EXTRN	?fn_set_local_entity_raw_float_value@@3PAY0KP@P6GXPAUENTITY@@W4FLOAT_TYPES@@M@ZA:BYTE ; fn_set_local_entity_raw_float_value
EXTRN	?fn_set_local_entity_float_value@@3PAY0KP@P6GXPAUENTITY@@W4FLOAT_TYPES@@M@ZA:BYTE ; fn_set_local_entity_float_value
EXTRN	?fn_set_client_server_entity_float_value@@3PAY1KP@1P6GXPAUENTITY@@W4FLOAT_TYPES@@M@ZA:BYTE ; fn_set_client_server_entity_float_value
EXTRN	?fn_get_local_entity_float_value@@3PAY0KP@P6GMPAUENTITY@@W4FLOAT_TYPES@@@ZA:BYTE ; fn_get_local_entity_float_value
EXTRN	?entities@@3PAUENTITY@@A:DWORD			; entities
EXTRN	?aircraft_database@@3PAUAIRCRAFT_DATA@@A:BYTE	; aircraft_database
EXTRN	__fltused:DWORD
;	COMDAT ??_C@_1CK@NDNHPKPI@?$AA?$CC?$AAi?$AAn?$AAv?$AAa?$AAl?$AAi?$AAd?$AA?5?$AAc?$AAo?$AAm?$AAp?$AAa?$AAr@
CONST	SEGMENT
??_C@_1CK@NDNHPKPI@?$AA?$CC?$AAi?$AAn?$AAv?$AAa?$AAl?$AAi?$AAd?$AA?5?$AAc?$AAo?$AAm?$AAp?$AAa?$AAr@ DB '"'
	DB	00H, 'i', 00H, 'n', 00H, 'v', 00H, 'a', 00H, 'l', 00H, 'i', 00H
	DB	'd', 00H, ' ', 00H, 'c', 00H, 'o', 00H, 'm', 00H, 'p', 00H, 'a'
	DB	00H, 'r', 00H, 'a', 00H, 't', 00H, 'o', 00H, 'r', 00H, '"', 00H
	DB	00H, 00H					; `string'
CONST	ENDS
;	COMDAT ??_C@_1BC@ICCOKLEG@?$AAs?$AAt?$AAd?$AA?3?$AA?3?$AAm?$AAa?$AAx@
CONST	SEGMENT
??_C@_1BC@ICCOKLEG@?$AAs?$AAt?$AAd?$AA?3?$AA?3?$AAm?$AAa?$AAx@ DB 's', 00H
	DB	't', 00H, 'd', 00H, ':', 00H, ':', 00H, 'm', 00H, 'a', 00H, 'x'
	DB	00H, 00H, 00H				; `string'
CONST	ENDS
;	COMDAT ??_C@_1NE@FKBPBJEB@?$AAc?$AA?3?$AA?2?$AAp?$AAr?$AAo?$AAg?$AAr?$AAa?$AAm?$AA?5?$AAf?$AAi?$AAl?$AAe@
CONST	SEGMENT
??_C@_1NE@FKBPBJEB@?$AAc?$AA?3?$AA?2?$AAp?$AAr?$AAo?$AAg?$AAr?$AAa?$AAm?$AA?5?$AAf?$AAi?$AAl?$AAe@ DB 'c'
	DB	00H, ':', 00H, '\', 00H, 'p', 00H, 'r', 00H, 'o', 00H, 'g', 00H
	DB	'r', 00H, 'a', 00H, 'm', 00H, ' ', 00H, 'f', 00H, 'i', 00H, 'l'
	DB	00H, 'e', 00H, 's', 00H, ' ', 00H, '(', 00H, 'x', 00H, '8', 00H
	DB	'6', 00H, ')', 00H, '\', 00H, 'm', 00H, 'i', 00H, 'c', 00H, 'r'
	DB	00H, 'o', 00H, 's', 00H, 'o', 00H, 'f', 00H, 't', 00H, ' ', 00H
	DB	'v', 00H, 'i', 00H, 's', 00H, 'u', 00H, 'a', 00H, 'l', 00H, ' '
	DB	00H, 's', 00H, 't', 00H, 'u', 00H, 'd', 00H, 'i', 00H, 'o', 00H
	DB	'\', 00H, '2', 00H, '0', 00H, '1', 00H, '7', 00H, '\', 00H, 'c'
	DB	00H, 'o', 00H, 'm', 00H, 'm', 00H, 'u', 00H, 'n', 00H, 'i', 00H
	DB	't', 00H, 'y', 00H, '\', 00H, 'v', 00H, 'c', 00H, '\', 00H, 't'
	DB	00H, 'o', 00H, 'o', 00H, 'l', 00H, 's', 00H, '\', 00H, 'm', 00H
	DB	's', 00H, 'v', 00H, 'c', 00H, '\', 00H, '1', 00H, '4', 00H, '.'
	DB	00H, '1', 00H, '6', 00H, '.', 00H, '2', 00H, '7', 00H, '0', 00H
	DB	'2', 00H, '3', 00H, '\', 00H, 'i', 00H, 'n', 00H, 'c', 00H, 'l'
	DB	00H, 'u', 00H, 'd', 00H, 'e', 00H, '\', 00H, 'a', 00H, 'l', 00H
	DB	'g', 00H, 'o', 00H, 'r', 00H, 'i', 00H, 't', 00H, 'h', 00H, 'm'
	DB	00H, 00H, 00H				; `string'
CONST	ENDS
;	COMDAT ??_C@_0GK@JMBMHIBC@c?3?2program?5files?5?$CIx86?$CJ?2microsof@
CONST	SEGMENT
??_C@_0GK@JMBMHIBC@c?3?2program?5files?5?$CIx86?$CJ?2microsof@ DB 'c:\pro'
	DB	'gram files (x86)\microsoft visual studio\2017\community\vc\to'
	DB	'ols\msvc\14.16.27023\include\algorithm', 00H ; `string'
CONST	ENDS
;	COMDAT ??_C@_0BD@FEEMDEPI@invalid?5comparator@
CONST	SEGMENT
??_C@_0BD@FEEMDEPI@invalid?5comparator@ DB 'invalid comparator', 00H ; `string'
CONST	ENDS
;	COMDAT ?__LINE__Var@?0??get_local_float_value@@YGMPAUENTITY@@W4FLOAT_TYPES@@@Z@4JA
_DATA	SEGMENT
?__LINE__Var@?0??get_local_float_value@@YGMPAUENTITY@@W4FLOAT_TYPES@@@Z@4JA DD 010aH ; `get_local_float_value'::`1'::__LINE__Var
_DATA	ENDS
;	COMDAT ?__LINE__Var@?0??set_client_float_value@@YGXPAUENTITY@@W4FLOAT_TYPES@@M@Z@4JA
_DATA	SEGMENT
?__LINE__Var@?0??set_client_float_value@@YGXPAUENTITY@@W4FLOAT_TYPES@@M@Z@4JA DD 0f2H ; `set_client_float_value'::`1'::__LINE__Var
_DATA	ENDS
;	COMDAT ??_C@_0CC@BNNNEGEG@assert_client_server_remote_fn?5@
CONST	SEGMENT
??_C@_0CC@BNNNEGEG@assert_client_server_remote_fn?5@ DB 'assert_client_se'
	DB	'rver_remote_fn ()', 00H			; `string'
CONST	ENDS
;	COMDAT ??_C@_0CB@CFOCLFOK@assert_client_server_local_fn?5?$CI@
CONST	SEGMENT
??_C@_0CB@CFOCLFOK@assert_client_server_local_fn?5?$CI@ DB 'assert_client'
	DB	'_server_local_fn ()', 00H			; `string'
CONST	ENDS
;	COMDAT ?__LINE__Var@?0??set_server_float_value@@YGXPAUENTITY@@W4FLOAT_TYPES@@M@Z@4JA
_DATA	SEGMENT
?__LINE__Var@?0??set_server_float_value@@YGXPAUENTITY@@W4FLOAT_TYPES@@M@Z@4JA DD 0dfH ; `set_server_float_value'::`1'::__LINE__Var
_DATA	ENDS
;	COMDAT ??_C@_0EO@NGJGOEIH@c?3?2users?2nhv90?2projects?2eech?2ap@
CONST	SEGMENT
??_C@_0EO@NGJGOEIH@c?3?2users?2nhv90?2projects?2eech?2ap@ DB 'c:\users\nh'
	DB	'v90\projects\eech\aphavoc\source\entity\mobile\aircraft\ac_fl'
	DB	'oat.c', 00H					; `string'
CONST	ENDS
;	COMDAT ?__LINE__Var@?0??set_local_float_value@@YGXPAUENTITY@@W4FLOAT_TYPES@@M@Z@4JA
_DATA	SEGMENT
?__LINE__Var@?0??set_local_float_value@@YGXPAUENTITY@@W4FLOAT_TYPES@@M@Z@4JA DD 05aH ; `set_local_float_value'::`1'::__LINE__Var
_DATA	ENDS
;	COMDAT ??_C@_02DKCKIIND@?$CFs@
CONST	SEGMENT
??_C@_02DKCKIIND@?$CFs@ DB '%s', 00H			; `string'
CONST	ENDS
; Function compile flags: /Odtp /ZI
; File c:\program files (x86)\microsoft visual studio\2017\community\vc\tools\msvc\14.16.27023\include\algorithm
;	COMDAT ??$max@M@std@@YGABMABM0@Z
_TEXT	SEGMENT
__Left$ = 8						; size = 4
__Right$ = 12						; size = 4
??$max@M@std@@YGABMABM0@Z PROC				; std::max<float>, COMDAT

; 5387 : 	{	// return larger of _Left and _Right

  00000	55		 push	 ebp
  00001	8b ec		 mov	 ebp, esp
  00003	83 ec 40	 sub	 esp, 64			; 00000040H
  00006	53		 push	 ebx
  00007	56		 push	 esi
  00008	57		 push	 edi

; 5388 : 	if (_Left < _Right)

  00009	8b 45 0c	 mov	 eax, DWORD PTR __Right$[ebp]
  0000c	8b 4d 08	 mov	 ecx, DWORD PTR __Left$[ebp]
  0000f	f3 0f 10 00	 movss	 xmm0, DWORD PTR [eax]
  00013	0f 2f 01	 comiss	 xmm0, DWORD PTR [ecx]
  00016	76 64		 jbe	 SHORT $LN8@max
$LN4@max:

; 5389 : 		{
; 5390 : 		_STL_ASSERT(!(_Right < _Left), "invalid comparator");

  00018	8b 45 08	 mov	 eax, DWORD PTR __Left$[ebp]
  0001b	8b 4d 0c	 mov	 ecx, DWORD PTR __Right$[ebp]
  0001e	f3 0f 10 00	 movss	 xmm0, DWORD PTR [eax]
  00022	0f 2f 01	 comiss	 xmm0, DWORD PTR [ecx]
  00025	77 02		 ja	 SHORT $LN9@max
  00027	eb 4a		 jmp	 SHORT $LN6@max
$LN9@max:
  00029	68 00 00 00 00	 push	 OFFSET ??_C@_0BD@FEEMDEPI@invalid?5comparator@
  0002e	68 00 00 00 00	 push	 OFFSET ??_C@_02DKCKIIND@?$CFs@
  00033	6a 00		 push	 0
  00035	68 0e 15 00 00	 push	 5390			; 0000150eH
  0003a	68 00 00 00 00	 push	 OFFSET ??_C@_0GK@JMBMHIBC@c?3?2program?5files?5?$CIx86?$CJ?2microsof@
  0003f	6a 02		 push	 2
  00041	ff 15 00 00 00
	00		 call	 DWORD PTR __imp___CrtDbgReport
  00047	83 c4 18	 add	 esp, 24			; 00000018H
  0004a	83 f8 01	 cmp	 eax, 1
  0004d	75 01		 jne	 SHORT $LN12@max
  0004f	cc		 int	 3
$LN12@max:
  00050	6a 00		 push	 0
  00052	68 0e 15 00 00	 push	 5390			; 0000150eH
  00057	68 00 00 00 00	 push	 OFFSET ??_C@_1NE@FKBPBJEB@?$AAc?$AA?3?$AA?2?$AAp?$AAr?$AAo?$AAg?$AAr?$AAa?$AAm?$AA?5?$AAf?$AAi?$AAl?$AAe@
  0005c	68 00 00 00 00	 push	 OFFSET ??_C@_1BC@ICCOKLEG@?$AAs?$AAt?$AAd?$AA?3?$AA?3?$AAm?$AAa?$AAx@
  00061	68 00 00 00 00	 push	 OFFSET ??_C@_1CK@NDNHPKPI@?$AA?$CC?$AAi?$AAn?$AAv?$AAa?$AAl?$AAi?$AAd?$AA?5?$AAc?$AAo?$AAm?$AAp?$AAa?$AAr@
  00066	ff 15 00 00 00
	00		 call	 DWORD PTR __imp___invalid_parameter
  0006c	83 c4 14	 add	 esp, 20			; 00000014H
  0006f	33 c0		 xor	 eax, eax
  00071	75 b6		 jne	 SHORT $LN9@max
$LN6@max:
  00073	33 c0		 xor	 eax, eax
  00075	75 a1		 jne	 SHORT $LN4@max

; 5391 : 		return (_Right);

  00077	8b 45 0c	 mov	 eax, DWORD PTR __Right$[ebp]
  0007a	eb 03		 jmp	 SHORT $LN1@max
$LN8@max:

; 5392 : 		}
; 5393 : 
; 5394 : 	return (_Left);

  0007c	8b 45 08	 mov	 eax, DWORD PTR __Left$[ebp]
$LN1@max:

; 5395 : 	}

  0007f	5f		 pop	 edi
  00080	5e		 pop	 esi
  00081	5b		 pop	 ebx
  00082	8b e5		 mov	 esp, ebp
  00084	5d		 pop	 ebp
  00085	c2 08 00	 ret	 8
??$max@M@std@@YGABMABM0@Z ENDP				; std::max<float>
_TEXT	ENDS
; Function compile flags: /Odtp /ZI
; File c:\users\nhv90\projects\eech\aphavoc\source\entity\mobile\aircraft\ac_float.c
;	COMDAT ?get_local_float_value@@YGMPAUENTITY@@W4FLOAT_TYPES@@@Z
_TEXT	SEGMENT
tv407 = -84						; size = 4
tv316 = -84						; size = 4
tv65 = -84						; size = 4
$T1 = -80						; size = 4
$T2 = -76						; size = 4
_value$ = -8						; size = 4
_raw$ = -4						; size = 4
_en$ = 8						; size = 4
_type$ = 12						; size = 4
?get_local_float_value@@YGMPAUENTITY@@W4FLOAT_TYPES@@@Z PROC ; get_local_float_value, COMDAT

; 266  : {

  00000	55		 push	 ebp
  00001	8b ec		 mov	 ebp, esp
  00003	83 ec 54	 sub	 esp, 84			; 00000054H
  00006	53		 push	 ebx
  00007	56		 push	 esi
  00008	57		 push	 edi

; 267  : 	aircraft
; 268  : 		*raw;
; 269  : 
; 270  : 	float
; 271  : 		value;
; 272  : 
; 273  : 	raw = (aircraft *) get_local_entity_data (en);

  00009	8b 45 08	 mov	 eax, DWORD PTR _en$[ebp]
  0000c	8b 48 04	 mov	 ecx, DWORD PTR [eax+4]
  0000f	89 4d fc	 mov	 DWORD PTR _raw$[ebp], ecx

; 274  : 
; 275  : 	switch (type)

  00012	8b 45 0c	 mov	 eax, DWORD PTR _type$[ebp]
  00015	89 45 ac	 mov	 DWORD PTR tv65[ebp], eax
  00018	8b 4d ac	 mov	 ecx, DWORD PTR tv65[ebp]
  0001b	83 e9 02	 sub	 ecx, 2
  0001e	89 4d ac	 mov	 DWORD PTR tv65[ebp], ecx
  00021	81 7d ac 98 00
	00 00		 cmp	 DWORD PTR tv65[ebp], 152 ; 00000098H
  00028	0f 87 0e 05 00
	00		 ja	 $LN53@get_local_
  0002e	8b 55 ac	 mov	 edx, DWORD PTR tv65[ebp]
  00031	0f b6 82 00 00
	00 00		 movzx	 eax, BYTE PTR $LN57@get_local_[edx]
  00038	ff 24 85 00 00
	00 00		 jmp	 DWORD PTR $LN58@get_local_[eax*4]
$LN4@get_local_:

; 276  : 	{
; 277  : 		////////////////////////////////////////
; 278  : 		case FLOAT_TYPE_AIR_RADAR_CONTACT_TIMEOUT:
; 279  : 		////////////////////////////////////////
; 280  : 		{
; 281  : 			value = raw->air_radar_contact_timeout;

  0003f	8b 45 fc	 mov	 eax, DWORD PTR _raw$[ebp]
  00042	f3 0f 10 80 14
	01 00 00	 movss	 xmm0, DWORD PTR [eax+276]
  0004a	f3 0f 11 45 f8	 movss	 DWORD PTR _value$[ebp], xmm0

; 282  : 
; 283  : 			break;

  0004f	e9 60 05 00 00	 jmp	 $LN2@get_local_
$LN5@get_local_:

; 284  : 		}
; 285  : 		////////////////////////////////////////
; 286  : 		case FLOAT_TYPE_AIR_SCAN_RANGE:
; 287  : 		////////////////////////////////////////
; 288  : 		{
; 289  : 			value = aircraft_database[raw->mob.sub_type].air_scan_range;

  00054	8b 45 fc	 mov	 eax, DWORD PTR _raw$[ebp]
  00057	69 08 f4 00 00
	00		 imul	 ecx, DWORD PTR [eax], 244
  0005d	f3 0f 10 81 bc
	00 00 00	 movss	 xmm0, DWORD PTR ?aircraft_database@@3PAUAIRCRAFT_DATA@@A[ecx+188]
  00065	f3 0f 11 45 f8	 movss	 DWORD PTR _value$[ebp], xmm0

; 290  : 
; 291  : 			break;

  0006a	e9 45 05 00 00	 jmp	 $LN2@get_local_
$LN6@get_local_:

; 292  : 		}
; 293  : 		////////////////////////////////////////
; 294  : 		case FLOAT_TYPE_AMMO_ECONOMY:
; 295  : 		////////////////////////////////////////
; 296  : 		{
; 297  : 			value = aircraft_database[raw->mob.sub_type].ammo_economy;

  0006f	8b 45 fc	 mov	 eax, DWORD PTR _raw$[ebp]
  00072	69 08 f4 00 00
	00		 imul	 ecx, DWORD PTR [eax], 244
  00078	f3 0f 10 81 cc
	00 00 00	 movss	 xmm0, DWORD PTR ?aircraft_database@@3PAUAIRCRAFT_DATA@@A[ecx+204]
  00080	f3 0f 11 45 f8	 movss	 DWORD PTR _value$[ebp], xmm0

; 298  : 
; 299  : 			break;

  00085	e9 2a 05 00 00	 jmp	 $LN2@get_local_
$LN7@get_local_:

; 300  : 		}
; 301  : 		////////////////////////////////////////
; 302  : 		case FLOAT_TYPE_ATTACK_ALTITUDE:
; 303  : 		////////////////////////////////////////
; 304  : 		{
; 305  : 			value = aircraft_database[raw->mob.sub_type].attack_altitude;

  0008a	8b 45 fc	 mov	 eax, DWORD PTR _raw$[ebp]
  0008d	69 08 f4 00 00
	00		 imul	 ecx, DWORD PTR [eax], 244
  00093	f3 0f 10 81 74
	00 00 00	 movss	 xmm0, DWORD PTR ?aircraft_database@@3PAUAIRCRAFT_DATA@@A[ecx+116]
  0009b	f3 0f 11 45 f8	 movss	 DWORD PTR _value$[ebp], xmm0

; 306  : 
; 307  : 			break;

  000a0	e9 0f 05 00 00	 jmp	 $LN2@get_local_
$LN8@get_local_:

; 308  : 		}
; 309  : 		////////////////////////////////////////
; 310  : 		case FLOAT_TYPE_AVOIDANCE_RADIUS:
; 311  : 		////////////////////////////////////////
; 312  : 		{
; 313  : 			value = aircraft_database[raw->mob.sub_type].avoidance_radius;

  000a5	8b 45 fc	 mov	 eax, DWORD PTR _raw$[ebp]
  000a8	69 08 f4 00 00
	00		 imul	 ecx, DWORD PTR [eax], 244
  000ae	f3 0f 10 81 a4
	00 00 00	 movss	 xmm0, DWORD PTR ?aircraft_database@@3PAUAIRCRAFT_DATA@@A[ecx+164]
  000b6	f3 0f 11 45 f8	 movss	 DWORD PTR _value$[ebp], xmm0

; 314  : 
; 315  : 			break;

  000bb	e9 f4 04 00 00	 jmp	 $LN2@get_local_
$LN9@get_local_:

; 316  : 		}
; 317  : 		////////////////////////////////////////
; 318  : 		case FLOAT_TYPE_CARGO_DOOR_STATE:
; 319  : 		////////////////////////////////////////
; 320  : 		{
; 321  : 			value = raw->cargo_door_state;

  000c0	8b 45 fc	 mov	 eax, DWORD PTR _raw$[ebp]
  000c3	f3 0f 10 80 f0
	00 00 00	 movss	 xmm0, DWORD PTR [eax+240]
  000cb	f3 0f 11 45 f8	 movss	 DWORD PTR _value$[ebp], xmm0

; 322  : 
; 323  : 			break;

  000d0	e9 df 04 00 00	 jmp	 $LN2@get_local_
$LN10@get_local_:

; 324  : 		}
; 325  : 		////////////////////////////////////////
; 326  : 		case FLOAT_TYPE_CENTRE_OF_GRAVITY_TO_GROUND_DISTANCE:
; 327  : 		////////////////////////////////////////
; 328  : 		{
; 329  : 			if (raw->mob.alive)

  000d5	8b 45 fc	 mov	 eax, DWORD PTR _raw$[ebp]
  000d8	8b 48 7c	 mov	 ecx, DWORD PTR [eax+124]
  000db	83 e1 01	 and	 ecx, 1
  000de	74 18		 je	 SHORT $LN11@get_local_

; 330  : 			{
; 331  : 				value = aircraft_database[raw->mob.sub_type].centre_of_gravity_to_ground_distance;

  000e0	8b 45 fc	 mov	 eax, DWORD PTR _raw$[ebp]
  000e3	69 08 f4 00 00
	00		 imul	 ecx, DWORD PTR [eax], 244
  000e9	f3 0f 10 81 54
	00 00 00	 movss	 xmm0, DWORD PTR ?aircraft_database@@3PAUAIRCRAFT_DATA@@A[ecx+84]
  000f1	f3 0f 11 45 f8	 movss	 DWORD PTR _value$[ebp], xmm0

; 332  : 			}
; 333  : 			else

  000f6	eb 16		 jmp	 SHORT $LN12@get_local_
$LN11@get_local_:

; 334  : 			{
; 335  : 				value = aircraft_database[raw->mob.sub_type].centre_of_gravity_to_ground_distance_destroyed;

  000f8	8b 45 fc	 mov	 eax, DWORD PTR _raw$[ebp]
  000fb	69 08 f4 00 00
	00		 imul	 ecx, DWORD PTR [eax], 244
  00101	f3 0f 10 81 58
	00 00 00	 movss	 xmm0, DWORD PTR ?aircraft_database@@3PAUAIRCRAFT_DATA@@A[ecx+88]
  00109	f3 0f 11 45 f8	 movss	 DWORD PTR _value$[ebp], xmm0
$LN12@get_local_:

; 336  : 			}
; 337  : 
; 338  : 			break;

  0010e	e9 a1 04 00 00	 jmp	 $LN2@get_local_
$LN13@get_local_:

; 339  : 		}
; 340  : 		////////////////////////////////////////
; 341  : 		case FLOAT_TYPE_CHASE_VIEW_MAX_DISTANCE:
; 342  : 		////////////////////////////////////////
; 343  : 		{
; 344  : 			value = aircraft_database[raw->mob.sub_type].chase_view_max_distance;

  00113	8b 45 fc	 mov	 eax, DWORD PTR _raw$[ebp]
  00116	69 08 f4 00 00
	00		 imul	 ecx, DWORD PTR [eax], 244
  0011c	f3 0f 10 81 60
	00 00 00	 movss	 xmm0, DWORD PTR ?aircraft_database@@3PAUAIRCRAFT_DATA@@A[ecx+96]
  00124	f3 0f 11 45 f8	 movss	 DWORD PTR _value$[ebp], xmm0

; 345  : 
; 346  : 			break;

  00129	e9 86 04 00 00	 jmp	 $LN2@get_local_
$LN14@get_local_:

; 347  : 		}
; 348  : 		////////////////////////////////////////
; 349  : 		case FLOAT_TYPE_CHASE_VIEW_MAX_DISTANCE_TEST:
; 350  : 		////////////////////////////////////////
; 351  : 		{
; 352  : 			value = aircraft_database[raw->mob.sub_type].chase_view_max_distance_test;

  0012e	8b 45 fc	 mov	 eax, DWORD PTR _raw$[ebp]
  00131	69 08 f4 00 00
	00		 imul	 ecx, DWORD PTR [eax], 244
  00137	f3 0f 10 81 68
	00 00 00	 movss	 xmm0, DWORD PTR ?aircraft_database@@3PAUAIRCRAFT_DATA@@A[ecx+104]
  0013f	f3 0f 11 45 f8	 movss	 DWORD PTR _value$[ebp], xmm0

; 353  : 
; 354  : 			break;

  00144	e9 6b 04 00 00	 jmp	 $LN2@get_local_
$LN15@get_local_:

; 355  : 		}
; 356  : 		////////////////////////////////////////
; 357  : 		case FLOAT_TYPE_CHASE_VIEW_MIN_DISTANCE:
; 358  : 		////////////////////////////////////////
; 359  : 		{
; 360  : 			value = aircraft_database[raw->mob.sub_type].chase_view_min_distance;

  00149	8b 45 fc	 mov	 eax, DWORD PTR _raw$[ebp]
  0014c	69 08 f4 00 00
	00		 imul	 ecx, DWORD PTR [eax], 244
  00152	f3 0f 10 81 5c
	00 00 00	 movss	 xmm0, DWORD PTR ?aircraft_database@@3PAUAIRCRAFT_DATA@@A[ecx+92]
  0015a	f3 0f 11 45 f8	 movss	 DWORD PTR _value$[ebp], xmm0

; 361  : 
; 362  : 			break;

  0015f	e9 50 04 00 00	 jmp	 $LN2@get_local_
$LN16@get_local_:

; 363  : 		}
; 364  : 		////////////////////////////////////////
; 365  : 		case FLOAT_TYPE_CHASE_VIEW_MIN_DISTANCE_TEST:
; 366  : 		////////////////////////////////////////
; 367  : 		{
; 368  : 			value = aircraft_database[raw->mob.sub_type].chase_view_min_distance_test;

  00164	8b 45 fc	 mov	 eax, DWORD PTR _raw$[ebp]
  00167	69 08 f4 00 00
	00		 imul	 ecx, DWORD PTR [eax], 244
  0016d	f3 0f 10 81 64
	00 00 00	 movss	 xmm0, DWORD PTR ?aircraft_database@@3PAUAIRCRAFT_DATA@@A[ecx+100]
  00175	f3 0f 11 45 f8	 movss	 DWORD PTR _value$[ebp], xmm0

; 369  : 
; 370  : 			break;

  0017a	e9 35 04 00 00	 jmp	 $LN2@get_local_
$LN17@get_local_:

; 371  : 		}
; 372  : 		////////////////////////////////////////
; 373  : 		case FLOAT_TYPE_CRUISE_ALTITUDE:
; 374  : 		////////////////////////////////////////
; 375  : 		{
; 376  : 			value = aircraft_database[raw->mob.sub_type].cruise_altitude;

  0017f	8b 45 fc	 mov	 eax, DWORD PTR _raw$[ebp]
  00182	69 08 f4 00 00
	00		 imul	 ecx, DWORD PTR [eax], 244
  00188	f3 0f 10 81 70
	00 00 00	 movss	 xmm0, DWORD PTR ?aircraft_database@@3PAUAIRCRAFT_DATA@@A[ecx+112]
  00190	f3 0f 11 45 f8	 movss	 DWORD PTR _value$[ebp], xmm0

; 377  : 
; 378  : 			break;

  00195	e9 1a 04 00 00	 jmp	 $LN2@get_local_
$LN18@get_local_:

; 379  : 		}
; 380  : 		////////////////////////////////////////
; 381  : 		case FLOAT_TYPE_CRUISE_VELOCITY:
; 382  : 		////////////////////////////////////////
; 383  : 		{
; 384  : 			value = aircraft_database[raw->mob.sub_type].cruise_velocity;

  0019a	8b 45 fc	 mov	 eax, DWORD PTR _raw$[ebp]
  0019d	69 08 f4 00 00
	00		 imul	 ecx, DWORD PTR [eax], 244
  001a3	f3 0f 10 81 6c
	00 00 00	 movss	 xmm0, DWORD PTR ?aircraft_database@@3PAUAIRCRAFT_DATA@@A[ecx+108]
  001ab	f3 0f 11 45 f8	 movss	 DWORD PTR _value$[ebp], xmm0

; 385  : 
; 386  : 			break;

  001b0	e9 ff 03 00 00	 jmp	 $LN2@get_local_
$LN19@get_local_:

; 387  : 		}
; 388  : 		////////////////////////////////////////
; 389  : 		case FLOAT_TYPE_DEATH_TIMER:
; 390  : 		////////////////////////////////////////
; 391  : 		{
; 392  : 			value = raw->death_timer;

  001b5	8b 45 fc	 mov	 eax, DWORD PTR _raw$[ebp]
  001b8	f3 0f 10 80 10
	01 00 00	 movss	 xmm0, DWORD PTR [eax+272]
  001c0	f3 0f 11 45 f8	 movss	 DWORD PTR _value$[ebp], xmm0

; 393  : 
; 394  : 			break;

  001c5	e9 ea 03 00 00	 jmp	 $LN2@get_local_
$LN20@get_local_:

; 395  : 		}
; 396  : 		////////////////////////////////////////
; 397  : 		case FLOAT_TYPE_DISTANCE:
; 398  : 		////////////////////////////////////////
; 399  : 		{
; 400  : 			value = raw->distance;

  001ca	8b 45 fc	 mov	 eax, DWORD PTR _raw$[ebp]
  001cd	f3 0f 10 80 ec
	00 00 00	 movss	 xmm0, DWORD PTR [eax+236]
  001d5	f3 0f 11 45 f8	 movss	 DWORD PTR _value$[ebp], xmm0

; 401  : 
; 402  : 			break;

  001da	e9 d5 03 00 00	 jmp	 $LN2@get_local_
$LN21@get_local_:

; 403  : 		}
; 404  : 		////////////////////////////////////////
; 405  : 		case FLOAT_TYPE_FUEL_DEFAULT_WEIGHT:
; 406  : 		////////////////////////////////////////
; 407  : 		{
; 408  : 			value = aircraft_database[raw->mob.sub_type].fuel_default_weight;

  001df	8b 45 fc	 mov	 eax, DWORD PTR _raw$[ebp]
  001e2	69 08 f4 00 00
	00		 imul	 ecx, DWORD PTR [eax], 244
  001e8	f3 0f 10 81 d0
	00 00 00	 movss	 xmm0, DWORD PTR ?aircraft_database@@3PAUAIRCRAFT_DATA@@A[ecx+208]
  001f0	f3 0f 11 45 f8	 movss	 DWORD PTR _value$[ebp], xmm0

; 409  : 
; 410  : 			break;

  001f5	e9 ba 03 00 00	 jmp	 $LN2@get_local_
$LN22@get_local_:

; 411  : 		}
; 412  : 		////////////////////////////////////////
; 413  : 		case FLOAT_TYPE_FUEL_ECONOMY:
; 414  : 		////////////////////////////////////////
; 415  : 		{
; 416  : 			value = aircraft_database[raw->mob.sub_type].fuel_economy;

  001fa	8b 45 fc	 mov	 eax, DWORD PTR _raw$[ebp]
  001fd	69 08 f4 00 00
	00		 imul	 ecx, DWORD PTR [eax], 244
  00203	f3 0f 10 81 d4
	00 00 00	 movss	 xmm0, DWORD PTR ?aircraft_database@@3PAUAIRCRAFT_DATA@@A[ecx+212]
  0020b	f3 0f 11 45 f8	 movss	 DWORD PTR _value$[ebp], xmm0

; 417  : 
; 418  : 			break;

  00210	e9 9f 03 00 00	 jmp	 $LN2@get_local_
$LN23@get_local_:

; 419  : 		}
; 420  : 		////////////////////////////////////////
; 421  : 		case FLOAT_TYPE_FUSELAGE_ANGLE:
; 422  : 		////////////////////////////////////////
; 423  : 		{
; 424  : 			value = aircraft_database[raw->mob.sub_type].fuselage_angle;

  00215	8b 45 fc	 mov	 eax, DWORD PTR _raw$[ebp]
  00218	69 08 f4 00 00
	00		 imul	 ecx, DWORD PTR [eax], 244
  0021e	f3 0f 10 81 80
	00 00 00	 movss	 xmm0, DWORD PTR ?aircraft_database@@3PAUAIRCRAFT_DATA@@A[ecx+128]
  00226	f3 0f 11 45 f8	 movss	 DWORD PTR _value$[ebp], xmm0

; 425  : 
; 426  : 			break;

  0022b	e9 84 03 00 00	 jmp	 $LN2@get_local_
$LN24@get_local_:

; 427  : 		}
; 428  : 		////////////////////////////////////////
; 429  : 		case FLOAT_TYPE_LOADING_DOOR_STATE:
; 430  : 		////////////////////////////////////////
; 431  : 		{
; 432  : 			value = raw->loading_door_state;

  00230	8b 45 fc	 mov	 eax, DWORD PTR _raw$[ebp]
  00233	f3 0f 10 80 f4
	00 00 00	 movss	 xmm0, DWORD PTR [eax+244]
  0023b	f3 0f 11 45 f8	 movss	 DWORD PTR _value$[ebp], xmm0

; 433  : 
; 434  : 			break;

  00240	e9 6f 03 00 00	 jmp	 $LN2@get_local_
$LN25@get_local_:

; 435  : 		}
; 436  : 		////////////////////////////////////////
; 437  : 		case FLOAT_TYPE_MAIN_ROTOR_DIRECTION:
; 438  : 		////////////////////////////////////////
; 439  : 		{
; 440  : 			value = aircraft_database[raw->mob.sub_type].main_rotor_direction;

  00245	8b 45 fc	 mov	 eax, DWORD PTR _raw$[ebp]
  00248	69 08 f4 00 00
	00		 imul	 ecx, DWORD PTR [eax], 244
  0024e	f3 0f 10 81 8c
	00 00 00	 movss	 xmm0, DWORD PTR ?aircraft_database@@3PAUAIRCRAFT_DATA@@A[ecx+140]
  00256	f3 0f 11 45 f8	 movss	 DWORD PTR _value$[ebp], xmm0

; 441  : 
; 442  : 			break;

  0025b	e9 54 03 00 00	 jmp	 $LN2@get_local_
$LN26@get_local_:

; 443  : 		}
; 444  : 		////////////////////////////////////////
; 445  : 		case FLOAT_TYPE_MAIN_ROTOR_BLADE_DROOP_ANGLE:
; 446  : 		////////////////////////////////////////
; 447  : 		{
; 448  : 			value = aircraft_database[raw->mob.sub_type].main_rotor_blade_droop_angle;

  00260	8b 45 fc	 mov	 eax, DWORD PTR _raw$[ebp]
  00263	69 08 f4 00 00
	00		 imul	 ecx, DWORD PTR [eax], 244
  00269	f3 0f 10 81 90
	00 00 00	 movss	 xmm0, DWORD PTR ?aircraft_database@@3PAUAIRCRAFT_DATA@@A[ecx+144]
  00271	f3 0f 11 45 f8	 movss	 DWORD PTR _value$[ebp], xmm0

; 449  : 
; 450  : 			break;

  00276	e9 39 03 00 00	 jmp	 $LN2@get_local_
$LN27@get_local_:

; 451  : 		}
; 452  : 		////////////////////////////////////////
; 453  : 		// Xhit: added FLOAT_TYPE_MAIN_ROTOR_RADIUS for downwash effect (030328)
; 454  : 		case FLOAT_TYPE_MAIN_ROTOR_RADIUS:
; 455  : 		////////////////////////////////////////
; 456  : 		{
; 457  : 			value = aircraft_database[raw->mob.sub_type].main_rotor_radius;

  0027b	8b 45 fc	 mov	 eax, DWORD PTR _raw$[ebp]
  0027e	69 08 f4 00 00
	00		 imul	 ecx, DWORD PTR [eax], 244
  00284	f3 0f 10 81 dc
	00 00 00	 movss	 xmm0, DWORD PTR ?aircraft_database@@3PAUAIRCRAFT_DATA@@A[ecx+220]
  0028c	f3 0f 11 45 f8	 movss	 DWORD PTR _value$[ebp], xmm0

; 458  : 
; 459  : 			break;

  00291	e9 1e 03 00 00	 jmp	 $LN2@get_local_
$LN28@get_local_:

; 460  : 		}
; 461  : 		////////////////////////////////////////
; 462  : 		case FLOAT_TYPE_MAIN_ROTOR_SHAFT_ANGLE:
; 463  : 		////////////////////////////////////////
; 464  : 		{
; 465  : 			value = aircraft_database[raw->mob.sub_type].main_rotor_shaft_angle;

  00296	8b 45 fc	 mov	 eax, DWORD PTR _raw$[ebp]
  00299	69 08 f4 00 00
	00		 imul	 ecx, DWORD PTR [eax], 244
  0029f	f3 0f 10 81 88
	00 00 00	 movss	 xmm0, DWORD PTR ?aircraft_database@@3PAUAIRCRAFT_DATA@@A[ecx+136]
  002a7	f3 0f 11 45 f8	 movss	 DWORD PTR _value$[ebp], xmm0

; 466  : 
; 467  : 			break;

  002ac	e9 03 03 00 00	 jmp	 $LN2@get_local_
$LN29@get_local_:

; 468  : 		}
; 469  : 		////////////////////////////////////////
; 470  : 		case FLOAT_TYPE_MAX_3D_OBJECT_VISUAL_RANGE:
; 471  : 		////////////////////////////////////////
; 472  : 		{
; 473  : 			value = object_3d_information_database[raw->object_3d_shape].maximum_distance;

  002b1	8b 45 fc	 mov	 eax, DWORD PTR _raw$[ebp]
  002b4	8b 88 80 00 00
	00		 mov	 ecx, DWORD PTR [eax+128]
  002ba	8b 15 00 00 00
	00		 mov	 edx, DWORD PTR ?object_3d_information_database@@3PAUOBJECT_3D_INFORMATION@@A ; object_3d_information_database
  002c0	f3 0f 10 44 ca
	04		 movss	 xmm0, DWORD PTR [edx+ecx*8+4]
  002c6	f3 0f 11 45 f8	 movss	 DWORD PTR _value$[ebp], xmm0

; 474  : 
; 475  : 			break;

  002cb	e9 e4 02 00 00	 jmp	 $LN2@get_local_
$LN30@get_local_:

; 476  : 		}
; 477  : 		////////////////////////////////////////
; 478  : 		case FLOAT_TYPE_MAX_TURN_RATE:
; 479  : 		////////////////////////////////////////
; 480  : 		{
; 481  : 			value = aircraft_database[raw->mob.sub_type].max_turn_rate;

  002d0	8b 45 fc	 mov	 eax, DWORD PTR _raw$[ebp]
  002d3	69 08 f4 00 00
	00		 imul	 ecx, DWORD PTR [eax], 244
  002d9	f3 0f 10 81 98
	00 00 00	 movss	 xmm0, DWORD PTR ?aircraft_database@@3PAUAIRCRAFT_DATA@@A[ecx+152]
  002e1	f3 0f 11 45 f8	 movss	 DWORD PTR _value$[ebp], xmm0

; 482  : 
; 483  : 			break;

  002e6	e9 c9 02 00 00	 jmp	 $LN2@get_local_
$LN31@get_local_:

; 484  : 		}
; 485  : 		////////////////////////////////////////
; 486  : 		case FLOAT_TYPE_MAX_ROLL:
; 487  : 		////////////////////////////////////////
; 488  : 		{
; 489  : 			value = aircraft_database[raw->mob.sub_type].max_roll;

  002eb	8b 45 fc	 mov	 eax, DWORD PTR _raw$[ebp]
  002ee	69 08 f4 00 00
	00		 imul	 ecx, DWORD PTR [eax], 244
  002f4	f3 0f 10 81 9c
	00 00 00	 movss	 xmm0, DWORD PTR ?aircraft_database@@3PAUAIRCRAFT_DATA@@A[ecx+156]
  002fc	f3 0f 11 45 f8	 movss	 DWORD PTR _value$[ebp], xmm0

; 490  : 
; 491  : 			break;

  00301	e9 ae 02 00 00	 jmp	 $LN2@get_local_
$LN32@get_local_:

; 492  : 		}
; 493  : 		// Xhit: added FLOAT_TYPE_NUMBER_OF_MAIN_ROTORS for downwash effect (030328)
; 494  : 		case FLOAT_TYPE_NUMBER_OF_MAIN_ROTORS:
; 495  : 		////////////////////////////////////////
; 496  : 		{
; 497  : 			value = aircraft_database[raw->mob.sub_type].number_of_main_rotors;

  00306	8b 45 fc	 mov	 eax, DWORD PTR _raw$[ebp]
  00309	69 08 f4 00 00
	00		 imul	 ecx, DWORD PTR [eax], 244
  0030f	f3 0f 10 81 d8
	00 00 00	 movss	 xmm0, DWORD PTR ?aircraft_database@@3PAUAIRCRAFT_DATA@@A[ecx+216]
  00317	f3 0f 11 45 f8	 movss	 DWORD PTR _value$[ebp], xmm0

; 498  : 
; 499  : 			break;

  0031c	e9 93 02 00 00	 jmp	 $LN2@get_local_
$LN33@get_local_:

; 500  : 		}
; 501  : 		////////////////////////////////////////
; 502  : 		case FLOAT_TYPE_MAX_VERTICAL_TURN_ALLOWANCE:
; 503  : 		////////////////////////////////////////
; 504  : 		{
; 505  : 			value = aircraft_database[raw->mob.sub_type].max_vertical_turn_allowance;

  00321	8b 45 fc	 mov	 eax, DWORD PTR _raw$[ebp]
  00324	69 08 f4 00 00
	00		 imul	 ecx, DWORD PTR [eax], 244
  0032a	f3 0f 10 81 a0
	00 00 00	 movss	 xmm0, DWORD PTR ?aircraft_database@@3PAUAIRCRAFT_DATA@@A[ecx+160]
  00332	f3 0f 11 45 f8	 movss	 DWORD PTR _value$[ebp], xmm0

; 506  : 
; 507  : 			break;

  00337	e9 78 02 00 00	 jmp	 $LN2@get_local_
$LN34@get_local_:

; 508  : 		}
; 509  : 		////////////////////////////////////////
; 510  : 		case FLOAT_TYPE_POTENTIAL_AIR_THREAT:
; 511  : 		////////////////////////////////////////
; 512  : 		{
; 513  : 			value = aircraft_database[raw->mob.sub_type].potential_air_to_air_threat;

  0033c	8b 45 fc	 mov	 eax, DWORD PTR _raw$[ebp]
  0033f	69 08 f4 00 00
	00		 imul	 ecx, DWORD PTR [eax], 244
  00345	f3 0f 10 81 c4
	00 00 00	 movss	 xmm0, DWORD PTR ?aircraft_database@@3PAUAIRCRAFT_DATA@@A[ecx+196]
  0034d	f3 0f 11 45 f8	 movss	 DWORD PTR _value$[ebp], xmm0

; 514  : 
; 515  : 			break;

  00352	e9 5d 02 00 00	 jmp	 $LN2@get_local_
$LN35@get_local_:

; 516  : 		}
; 517  : 		////////////////////////////////////////
; 518  : 		case FLOAT_TYPE_POTENTIAL_AIR_TO_AIR_THREAT:
; 519  : 		////////////////////////////////////////
; 520  : 		{
; 521  : 			value = aircraft_database[raw->mob.sub_type].potential_air_to_air_threat;

  00357	8b 45 fc	 mov	 eax, DWORD PTR _raw$[ebp]
  0035a	69 08 f4 00 00
	00		 imul	 ecx, DWORD PTR [eax], 244
  00360	f3 0f 10 81 c4
	00 00 00	 movss	 xmm0, DWORD PTR ?aircraft_database@@3PAUAIRCRAFT_DATA@@A[ecx+196]
  00368	f3 0f 11 45 f8	 movss	 DWORD PTR _value$[ebp], xmm0

; 522  : 
; 523  : 			break;

  0036d	e9 42 02 00 00	 jmp	 $LN2@get_local_
$LN36@get_local_:

; 524  : 		}
; 525  : 		////////////////////////////////////////
; 526  : 		case FLOAT_TYPE_POTENTIAL_AIR_TO_SURFACE_THREAT:
; 527  : 		////////////////////////////////////////
; 528  : 		{
; 529  : 			value = aircraft_database[raw->mob.sub_type].potential_air_to_surface_threat;

  00372	8b 45 fc	 mov	 eax, DWORD PTR _raw$[ebp]
  00375	69 08 f4 00 00
	00		 imul	 ecx, DWORD PTR [eax], 244
  0037b	f3 0f 10 81 c8
	00 00 00	 movss	 xmm0, DWORD PTR ?aircraft_database@@3PAUAIRCRAFT_DATA@@A[ecx+200]
  00383	f3 0f 11 45 f8	 movss	 DWORD PTR _value$[ebp], xmm0

; 530  : 
; 531  : 			break;

  00388	e9 27 02 00 00	 jmp	 $LN2@get_local_
$LN37@get_local_:

; 532  : 		}
; 533  : 		////////////////////////////////////////
; 534  : 		case FLOAT_TYPE_POTENTIAL_SURFACE_THREAT:
; 535  : 		////////////////////////////////////////
; 536  : 		{
; 537  : 			value = aircraft_database[raw->mob.sub_type].potential_air_to_surface_threat;

  0038d	8b 45 fc	 mov	 eax, DWORD PTR _raw$[ebp]
  00390	69 08 f4 00 00
	00		 imul	 ecx, DWORD PTR [eax], 244
  00396	f3 0f 10 81 c8
	00 00 00	 movss	 xmm0, DWORD PTR ?aircraft_database@@3PAUAIRCRAFT_DATA@@A[ecx+200]
  0039e	f3 0f 11 45 f8	 movss	 DWORD PTR _value$[ebp], xmm0

; 538  : 
; 539  : 			break;

  003a3	e9 0c 02 00 00	 jmp	 $LN2@get_local_
$LN38@get_local_:

; 540  : 		}
; 541  : 		////////////////////////////////////////
; 542  : 		case FLOAT_TYPE_PROPELLOR_DIRECTION:
; 543  : 		////////////////////////////////////////
; 544  : 		{
; 545  : 			value = aircraft_database[raw->mob.sub_type].propellor_direction;

  003a8	8b 45 fc	 mov	 eax, DWORD PTR _raw$[ebp]
  003ab	69 08 f4 00 00
	00		 imul	 ecx, DWORD PTR [eax], 244
  003b1	f3 0f 10 81 94
	00 00 00	 movss	 xmm0, DWORD PTR ?aircraft_database@@3PAUAIRCRAFT_DATA@@A[ecx+148]
  003b9	f3 0f 11 45 f8	 movss	 DWORD PTR _value$[ebp], xmm0

; 546  : 
; 547  : 			break;

  003be	e9 f1 01 00 00	 jmp	 $LN2@get_local_
$LN39@get_local_:

; 548  : 		}
; 549  : 		////////////////////////////////////////
; 550  : 		case FLOAT_TYPE_RADAR_ALTITUDE:
; 551  : 		////////////////////////////////////////
; 552  : 		{
; 553  : 			value = max (raw->mob.position.y - get_3d_terrain_point_data_elevation (&raw->terrain_info), 0.0f);

  003c3	0f 57 c0	 xorps	 xmm0, xmm0
  003c6	f3 0f 11 45 b4	 movss	 DWORD PTR $T2[ebp], xmm0
  003cb	8b 45 fc	 mov	 eax, DWORD PTR _raw$[ebp]
  003ce	05 54 01 00 00	 add	 eax, 340		; 00000154H
  003d3	50		 push	 eax
  003d4	e8 00 00 00 00	 call	 ?get_3d_terrain_point_data_elevation@@YGMPAUTERRAIN_3D_POINT_DATA@@@Z ; get_3d_terrain_point_data_elevation
  003d9	d9 5d ac	 fstp	 DWORD PTR tv407[ebp]
  003dc	8b 4d fc	 mov	 ecx, DWORD PTR _raw$[ebp]
  003df	f3 0f 10 41 08	 movss	 xmm0, DWORD PTR [ecx+8]
  003e4	f3 0f 5c 45 ac	 subss	 xmm0, DWORD PTR tv407[ebp]
  003e9	f3 0f 11 45 b0	 movss	 DWORD PTR $T1[ebp], xmm0
  003ee	8d 55 b4	 lea	 edx, DWORD PTR $T2[ebp]
  003f1	52		 push	 edx
  003f2	8d 45 b0	 lea	 eax, DWORD PTR $T1[ebp]
  003f5	50		 push	 eax
  003f6	e8 00 00 00 00	 call	 ??$max@M@std@@YGABMABM0@Z ; std::max<float>
  003fb	f3 0f 10 00	 movss	 xmm0, DWORD PTR [eax]
  003ff	f3 0f 11 45 f8	 movss	 DWORD PTR _value$[ebp], xmm0

; 554  : 
; 555  : 			break;

  00404	e9 ab 01 00 00	 jmp	 $LN2@get_local_
$LN40@get_local_:

; 556  : 		}
; 557  : 		////////////////////////////////////////
; 558  : 		case FLOAT_TYPE_RECON_RADIUS:
; 559  : 		////////////////////////////////////////
; 560  : 		{
; 561  : 			value = aircraft_database[raw->mob.sub_type].recon_radius;

  00409	8b 45 fc	 mov	 eax, DWORD PTR _raw$[ebp]
  0040c	69 08 f4 00 00
	00		 imul	 ecx, DWORD PTR [eax], 244
  00412	f3 0f 10 81 b4
	00 00 00	 movss	 xmm0, DWORD PTR ?aircraft_database@@3PAUAIRCRAFT_DATA@@A[ecx+180]
  0041a	f3 0f 11 45 f8	 movss	 DWORD PTR _value$[ebp], xmm0

; 562  : 
; 563  : 			break;

  0041f	e9 90 01 00 00	 jmp	 $LN2@get_local_
$LN41@get_local_:

; 564  : 		}
; 565  : 		////////////////////////////////////////
; 566  : 		case FLOAT_TYPE_RUDDER_STATE:
; 567  : 		////////////////////////////////////////
; 568  : 		{
; 569  : 			value = raw->rudder_state;

  00424	8b 45 fc	 mov	 eax, DWORD PTR _raw$[ebp]
  00427	f3 0f 10 80 18
	01 00 00	 movss	 xmm0, DWORD PTR [eax+280]
  0042f	f3 0f 11 45 f8	 movss	 DWORD PTR _value$[ebp], xmm0

; 570  : 
; 571  : 			break;

  00434	e9 7b 01 00 00	 jmp	 $LN2@get_local_
$LN42@get_local_:

; 572  : 		}
; 573  : 		////////////////////////////////////////
; 574  : 		case FLOAT_TYPE_SURFACE_SCAN_RANGE:
; 575  : 		////////////////////////////////////////
; 576  : 		{
; 577  : 			value = aircraft_database[raw->mob.sub_type].surface_scan_range;

  00439	8b 45 fc	 mov	 eax, DWORD PTR _raw$[ebp]
  0043c	69 08 f4 00 00
	00		 imul	 ecx, DWORD PTR [eax], 244
  00442	f3 0f 10 81 c0
	00 00 00	 movss	 xmm0, DWORD PTR ?aircraft_database@@3PAUAIRCRAFT_DATA@@A[ecx+192]
  0044a	f3 0f 11 45 f8	 movss	 DWORD PTR _value$[ebp], xmm0

; 578  : 
; 579  : 			break;

  0044f	e9 60 01 00 00	 jmp	 $LN2@get_local_
$LN43@get_local_:

; 580  : 		}
; 581  : 		////////////////////////////////////////
; 582  : 		case FLOAT_TYPE_TAIL_ROTOR_DIRECTION:
; 583  : 		////////////////////////////////////////
; 584  : 		{
; 585  : 			value = aircraft_database[raw->mob.sub_type].tail_rotor_direction;

  00454	8b 45 fc	 mov	 eax, DWORD PTR _raw$[ebp]
  00457	69 08 f4 00 00
	00		 imul	 ecx, DWORD PTR [eax], 244
  0045d	f3 0f 10 81 b0
	00 00 00	 movss	 xmm0, DWORD PTR ?aircraft_database@@3PAUAIRCRAFT_DATA@@A[ecx+176]
  00465	f3 0f 11 45 f8	 movss	 DWORD PTR _value$[ebp], xmm0

; 586  : 
; 587  : 			break;

  0046a	e9 45 01 00 00	 jmp	 $LN2@get_local_
$LN44@get_local_:

; 588  : 		}
; 589  : 		////////////////////////////////////////
; 590  : 		case FLOAT_TYPE_TARGET_PRIORITY_AIR_ATTACK:
; 591  : 		////////////////////////////////////////
; 592  : 		{
; 593  : 			value = aircraft_database[raw->mob.sub_type].potential_air_to_air_threat;

  0046f	8b 45 fc	 mov	 eax, DWORD PTR _raw$[ebp]
  00472	69 08 f4 00 00
	00		 imul	 ecx, DWORD PTR [eax], 244
  00478	f3 0f 10 81 c4
	00 00 00	 movss	 xmm0, DWORD PTR ?aircraft_database@@3PAUAIRCRAFT_DATA@@A[ecx+196]
  00480	f3 0f 11 45 f8	 movss	 DWORD PTR _value$[ebp], xmm0

; 594  : 
; 595  : 			break;

  00485	e9 2a 01 00 00	 jmp	 $LN2@get_local_
$LN45@get_local_:

; 596  : 		}
; 597  : 		////////////////////////////////////////
; 598  : 		case FLOAT_TYPE_TARGET_PRIORITY_GROUND_ATTACK:
; 599  : 		////////////////////////////////////////
; 600  : 		{
; 601  : 			value = aircraft_database[raw->mob.sub_type].potential_air_to_surface_threat;

  0048a	8b 45 fc	 mov	 eax, DWORD PTR _raw$[ebp]
  0048d	69 08 f4 00 00
	00		 imul	 ecx, DWORD PTR [eax], 244
  00493	f3 0f 10 81 c8
	00 00 00	 movss	 xmm0, DWORD PTR ?aircraft_database@@3PAUAIRCRAFT_DATA@@A[ecx+200]
  0049b	f3 0f 11 45 f8	 movss	 DWORD PTR _value$[ebp], xmm0

; 602  : 
; 603  : 			break;

  004a0	e9 0f 01 00 00	 jmp	 $LN2@get_local_
$LN46@get_local_:

; 604  : 		}
; 605  : 		////////////////////////////////////////
; 606  : 		case FLOAT_TYPE_TARGET_SCAN_DELAY:
; 607  : 		////////////////////////////////////////
; 608  : 		{
; 609  : 			value = aircraft_database[raw->mob.sub_type].target_scan_delay;

  004a5	8b 45 fc	 mov	 eax, DWORD PTR _raw$[ebp]
  004a8	69 08 f4 00 00
	00		 imul	 ecx, DWORD PTR [eax], 244
  004ae	f3 0f 10 81 b8
	00 00 00	 movss	 xmm0, DWORD PTR ?aircraft_database@@3PAUAIRCRAFT_DATA@@A[ecx+184]
  004b6	f3 0f 11 45 f8	 movss	 DWORD PTR _value$[ebp], xmm0

; 610  : 
; 611  : 			break;

  004bb	e9 f4 00 00 00	 jmp	 $LN2@get_local_
$LN47@get_local_:

; 612  : 		}
; 613  : 		////////////////////////////////////////
; 614  : 		case FLOAT_TYPE_TARGET_SCAN_TIMER:
; 615  : 		////////////////////////////////////////
; 616  : 		{
; 617  : 			value = raw->target_scan_timer;

  004c0	8b 45 fc	 mov	 eax, DWORD PTR _raw$[ebp]
  004c3	f3 0f 10 80 f8
	00 00 00	 movss	 xmm0, DWORD PTR [eax+248]
  004cb	f3 0f 11 45 f8	 movss	 DWORD PTR _value$[ebp], xmm0

; 618  : 
; 619  : 			break;

  004d0	e9 df 00 00 00	 jmp	 $LN2@get_local_
$LN48@get_local_:

; 620  : 		}
; 621  : 		////////////////////////////////////////
; 622  : 		case FLOAT_TYPE_TERRAIN_ELEVATION:
; 623  : 		////////////////////////////////////////
; 624  : 		{
; 625  : 			value = get_3d_terrain_point_data_elevation (&raw->terrain_info);

  004d5	8b 45 fc	 mov	 eax, DWORD PTR _raw$[ebp]
  004d8	05 54 01 00 00	 add	 eax, 340		; 00000154H
  004dd	50		 push	 eax
  004de	e8 00 00 00 00	 call	 ?get_3d_terrain_point_data_elevation@@YGMPAUTERRAIN_3D_POINT_DATA@@@Z ; get_3d_terrain_point_data_elevation
  004e3	d9 5d f8	 fstp	 DWORD PTR _value$[ebp]

; 626  : 
; 627  : 			break;

  004e6	e9 c9 00 00 00	 jmp	 $LN2@get_local_
$LN49@get_local_:

; 628  : 		}
; 629  : 		////////////////////////////////////////
; 630  : 		case FLOAT_TYPE_UNDERCARRIAGE_STATE:
; 631  : 		////////////////////////////////////////
; 632  : 		{
; 633  : 			value = raw->undercarriage_state;

  004eb	8b 45 fc	 mov	 eax, DWORD PTR _raw$[ebp]
  004ee	f3 0f 10 80 fc
	00 00 00	 movss	 xmm0, DWORD PTR [eax+252]
  004f6	f3 0f 11 45 f8	 movss	 DWORD PTR _value$[ebp], xmm0

; 634  : 
; 635  : 			break;

  004fb	e9 b4 00 00 00	 jmp	 $LN2@get_local_
$LN50@get_local_:

; 636  : 		}
; 637  : 		////////////////////////////////////////
; 638  : 		case FLOAT_TYPE_VIEW_INTEREST_LEVEL:
; 639  : 		////////////////////////////////////////
; 640  : 		{
; 641  : 			value = raw->view_interest_level;

  00500	8b 45 fc	 mov	 eax, DWORD PTR _raw$[ebp]
  00503	f3 0f 10 80 00
	01 00 00	 movss	 xmm0, DWORD PTR [eax+256]
  0050b	f3 0f 11 45 f8	 movss	 DWORD PTR _value$[ebp], xmm0

; 642  : 
; 643  : 			break;

  00510	e9 9f 00 00 00	 jmp	 $LN2@get_local_
$LN51@get_local_:

; 644  : 		}
; 645  : 		////////////////////////////////////////
; 646  : 		case FLOAT_TYPE_WEAPON_BURST_TIMER:
; 647  : 		////////////////////////////////////////
; 648  : 		{
; 649  : 			value = raw->weapon_burst_timer;

  00515	8b 45 fc	 mov	 eax, DWORD PTR _raw$[ebp]
  00518	f3 0f 10 80 04
	01 00 00	 movss	 xmm0, DWORD PTR [eax+260]
  00520	f3 0f 11 45 f8	 movss	 DWORD PTR _value$[ebp], xmm0

; 650  : 
; 651  : 			break;

  00525	e9 8a 00 00 00	 jmp	 $LN2@get_local_
$LN52@get_local_:

; 652  : 		}
; 653  : 		////////////////////////////////////////
; 654  : 		case FLOAT_TYPE_WEAPON_SYSTEM_READY_STATE:
; 655  : 		////////////////////////////////////////
; 656  : 		{
; 657  : 			value = raw->weapon_system_ready_state;

  0052a	8b 45 fc	 mov	 eax, DWORD PTR _raw$[ebp]
  0052d	f3 0f 10 80 08
	01 00 00	 movss	 xmm0, DWORD PTR [eax+264]
  00535	f3 0f 11 45 f8	 movss	 DWORD PTR _value$[ebp], xmm0

; 658  : 
; 659  : 			break;

  0053a	eb 78		 jmp	 SHORT $LN2@get_local_
$LN53@get_local_:

; 660  : 		}
; 661  : 		////////////////////////////////////////
; 662  : 		default:
; 663  : 		////////////////////////////////////////
; 664  : 		{
; 665  : 			debug_fatal_invalid_float_type (en, type);

  0053c	83 7d 08 00	 cmp	 DWORD PTR _en$[ebp], 0
  00540	74 0a		 je	 SHORT $LN55@get_local_
  00542	8b 45 08	 mov	 eax, DWORD PTR _en$[ebp]
  00545	8b 08		 mov	 ecx, DWORD PTR [eax]
  00547	89 4d ac	 mov	 DWORD PTR tv316[ebp], ecx
  0054a	eb 24		 jmp	 SHORT $LN56@get_local_
$LN55@get_local_:
  0054c	8b 15 00 00 00
	00		 mov	 edx, DWORD PTR ?__LINE__Var@?0??get_local_float_value@@YGMPAUENTITY@@W4FLOAT_TYPES@@@Z@4JA
  00552	81 c2 8f 01 00
	00		 add	 edx, 399		; 0000018fH
  00558	52		 push	 edx
  00559	68 00 00 00 00	 push	 OFFSET ??_C@_0EO@NGJGOEIH@c?3?2users?2nhv90?2projects?2eech?2ap@
  0055e	a1 00 00 00 00	 mov	 eax, DWORD PTR ?null_entity_pointer_message@@3PBDB ; null_entity_pointer_message
  00563	50		 push	 eax
  00564	e8 00 00 00 00	 call	 ?process_assert@@YGXPBD0H@Z ; process_assert
  00569	c7 45 ac 00 00
	00 00		 mov	 DWORD PTR tv316[ebp], 0
$LN56@get_local_:
  00570	8b 0d 00 00 00
	00		 mov	 ecx, DWORD PTR ?__LINE__Var@?0??get_local_float_value@@YGMPAUENTITY@@W4FLOAT_TYPES@@@Z@4JA
  00576	81 c1 8f 01 00
	00		 add	 ecx, 399		; 0000018fH
  0057c	51		 push	 ecx
  0057d	68 00 00 00 00	 push	 OFFSET ??_C@_0EO@NGJGOEIH@c?3?2users?2nhv90?2projects?2eech?2ap@
  00582	6b 55 0c 18	 imul	 edx, DWORD PTR _type$[ebp], 24
  00586	8b 82 00 00 00
	00		 mov	 eax, DWORD PTR ?float_type_database@@3PAUFLOAT_TYPE_DATA@@A[edx]
  0058c	50		 push	 eax
  0058d	8b 4d 08	 mov	 ecx, DWORD PTR _en$[ebp]
  00590	2b 0d 00 00 00
	00		 sub	 ecx, DWORD PTR ?entities@@3PAUENTITY@@A ; entities
  00596	c1 f9 04	 sar	 ecx, 4
  00599	51		 push	 ecx
  0059a	6b 55 ac 0c	 imul	 edx, DWORD PTR tv316[ebp], 12
  0059e	8b 82 00 00 00
	00		 mov	 eax, DWORD PTR ?entity_type_database@@3PAUENTITY_TYPE_DATA@@A[edx]
  005a4	50		 push	 eax
  005a5	8b 0d 00 00 00
	00		 mov	 ecx, DWORD PTR ?debug_fatal_invalid_float_type_message@@3PBDB ; debug_fatal_invalid_float_type_message
  005ab	51		 push	 ecx
  005ac	e8 00 00 00 00	 call	 ?debug_fatal@@YAXPBDZZ	; debug_fatal
  005b1	83 c4 18	 add	 esp, 24			; 00000018H
$LN2@get_local_:

; 666  : 
; 667  : 			break;
; 668  : 		}
; 669  : 	}
; 670  : 
; 671  : 	return (value);

  005b4	d9 45 f8	 fld	 DWORD PTR _value$[ebp]

; 672  : }

  005b7	5f		 pop	 edi
  005b8	5e		 pop	 esi
  005b9	5b		 pop	 ebx
  005ba	8b e5		 mov	 esp, ebp
  005bc	5d		 pop	 ebp
  005bd	c2 08 00	 ret	 8
$LN58@get_local_:
  005c0	00 00 00 00	 DD	 $LN4@get_local_
  005c4	00 00 00 00	 DD	 $LN5@get_local_
  005c8	00 00 00 00	 DD	 $LN6@get_local_
  005cc	00 00 00 00	 DD	 $LN7@get_local_
  005d0	00 00 00 00	 DD	 $LN8@get_local_
  005d4	00 00 00 00	 DD	 $LN9@get_local_
  005d8	00 00 00 00	 DD	 $LN10@get_local_
  005dc	00 00 00 00	 DD	 $LN13@get_local_
  005e0	00 00 00 00	 DD	 $LN14@get_local_
  005e4	00 00 00 00	 DD	 $LN15@get_local_
  005e8	00 00 00 00	 DD	 $LN16@get_local_
  005ec	00 00 00 00	 DD	 $LN17@get_local_
  005f0	00 00 00 00	 DD	 $LN18@get_local_
  005f4	00 00 00 00	 DD	 $LN19@get_local_
  005f8	00 00 00 00	 DD	 $LN20@get_local_
  005fc	00 00 00 00	 DD	 $LN21@get_local_
  00600	00 00 00 00	 DD	 $LN22@get_local_
  00604	00 00 00 00	 DD	 $LN23@get_local_
  00608	00 00 00 00	 DD	 $LN24@get_local_
  0060c	00 00 00 00	 DD	 $LN25@get_local_
  00610	00 00 00 00	 DD	 $LN26@get_local_
  00614	00 00 00 00	 DD	 $LN27@get_local_
  00618	00 00 00 00	 DD	 $LN28@get_local_
  0061c	00 00 00 00	 DD	 $LN29@get_local_
  00620	00 00 00 00	 DD	 $LN30@get_local_
  00624	00 00 00 00	 DD	 $LN31@get_local_
  00628	00 00 00 00	 DD	 $LN33@get_local_
  0062c	00 00 00 00	 DD	 $LN32@get_local_
  00630	00 00 00 00	 DD	 $LN34@get_local_
  00634	00 00 00 00	 DD	 $LN35@get_local_
  00638	00 00 00 00	 DD	 $LN36@get_local_
  0063c	00 00 00 00	 DD	 $LN37@get_local_
  00640	00 00 00 00	 DD	 $LN38@get_local_
  00644	00 00 00 00	 DD	 $LN39@get_local_
  00648	00 00 00 00	 DD	 $LN40@get_local_
  0064c	00 00 00 00	 DD	 $LN41@get_local_
  00650	00 00 00 00	 DD	 $LN42@get_local_
  00654	00 00 00 00	 DD	 $LN43@get_local_
  00658	00 00 00 00	 DD	 $LN44@get_local_
  0065c	00 00 00 00	 DD	 $LN45@get_local_
  00660	00 00 00 00	 DD	 $LN46@get_local_
  00664	00 00 00 00	 DD	 $LN47@get_local_
  00668	00 00 00 00	 DD	 $LN48@get_local_
  0066c	00 00 00 00	 DD	 $LN49@get_local_
  00670	00 00 00 00	 DD	 $LN50@get_local_
  00674	00 00 00 00	 DD	 $LN51@get_local_
  00678	00 00 00 00	 DD	 $LN52@get_local_
  0067c	00 00 00 00	 DD	 $LN53@get_local_
$LN57@get_local_:
  00680	00		 DB	 0
  00681	2f		 DB	 47			; 0000002fH
  00682	2f		 DB	 47			; 0000002fH
  00683	01		 DB	 1
  00684	2f		 DB	 47			; 0000002fH
  00685	02		 DB	 2
  00686	2f		 DB	 47			; 0000002fH
  00687	2f		 DB	 47			; 0000002fH
  00688	2f		 DB	 47			; 0000002fH
  00689	2f		 DB	 47			; 0000002fH
  0068a	2f		 DB	 47			; 0000002fH
  0068b	2f		 DB	 47			; 0000002fH
  0068c	03		 DB	 3
  0068d	04		 DB	 4
  0068e	2f		 DB	 47			; 0000002fH
  0068f	05		 DB	 5
  00690	06		 DB	 6
  00691	07		 DB	 7
  00692	08		 DB	 8
  00693	09		 DB	 9
  00694	0a		 DB	 10			; 0000000aH
  00695	2f		 DB	 47			; 0000002fH
  00696	0b		 DB	 11			; 0000000bH
  00697	0c		 DB	 12			; 0000000cH
  00698	2f		 DB	 47			; 0000002fH
  00699	0d		 DB	 13			; 0000000dH
  0069a	2f		 DB	 47			; 0000002fH
  0069b	2f		 DB	 47			; 0000002fH
  0069c	2f		 DB	 47			; 0000002fH
  0069d	0e		 DB	 14			; 0000000eH
  0069e	2f		 DB	 47			; 0000002fH
  0069f	2f		 DB	 47			; 0000002fH
  006a0	2f		 DB	 47			; 0000002fH
  006a1	2f		 DB	 47			; 0000002fH
  006a2	2f		 DB	 47			; 0000002fH
  006a3	2f		 DB	 47			; 0000002fH
  006a4	2f		 DB	 47			; 0000002fH
  006a5	2f		 DB	 47			; 0000002fH
  006a6	2f		 DB	 47			; 0000002fH
  006a7	2f		 DB	 47			; 0000002fH
  006a8	2f		 DB	 47			; 0000002fH
  006a9	2f		 DB	 47			; 0000002fH
  006aa	2f		 DB	 47			; 0000002fH
  006ab	2f		 DB	 47			; 0000002fH
  006ac	0f		 DB	 15			; 0000000fH
  006ad	10		 DB	 16			; 00000010H
  006ae	2f		 DB	 47			; 0000002fH
  006af	11		 DB	 17			; 00000011H
  006b0	2f		 DB	 47			; 0000002fH
  006b1	2f		 DB	 47			; 0000002fH
  006b2	2f		 DB	 47			; 0000002fH
  006b3	2f		 DB	 47			; 0000002fH
  006b4	2f		 DB	 47			; 0000002fH
  006b5	2f		 DB	 47			; 0000002fH
  006b6	2f		 DB	 47			; 0000002fH
  006b7	2f		 DB	 47			; 0000002fH
  006b8	2f		 DB	 47			; 0000002fH
  006b9	2f		 DB	 47			; 0000002fH
  006ba	2f		 DB	 47			; 0000002fH
  006bb	2f		 DB	 47			; 0000002fH
  006bc	2f		 DB	 47			; 0000002fH
  006bd	12		 DB	 18			; 00000012H
  006be	2f		 DB	 47			; 0000002fH
  006bf	2f		 DB	 47			; 0000002fH
  006c0	2f		 DB	 47			; 0000002fH
  006c1	13		 DB	 19			; 00000013H
  006c2	14		 DB	 20			; 00000014H
  006c3	2f		 DB	 47			; 0000002fH
  006c4	15		 DB	 21			; 00000015H
  006c5	2f		 DB	 47			; 0000002fH
  006c6	2f		 DB	 47			; 0000002fH
  006c7	16		 DB	 22			; 00000016H
  006c8	2f		 DB	 47			; 0000002fH
  006c9	17		 DB	 23			; 00000017H
  006ca	2f		 DB	 47			; 0000002fH
  006cb	18		 DB	 24			; 00000018H
  006cc	19		 DB	 25			; 00000019H
  006cd	1a		 DB	 26			; 0000001aH
  006ce	2f		 DB	 47			; 0000002fH
  006cf	2f		 DB	 47			; 0000002fH
  006d0	1b		 DB	 27			; 0000001bH
  006d1	2f		 DB	 47			; 0000002fH
  006d2	2f		 DB	 47			; 0000002fH
  006d3	2f		 DB	 47			; 0000002fH
  006d4	2f		 DB	 47			; 0000002fH
  006d5	2f		 DB	 47			; 0000002fH
  006d6	2f		 DB	 47			; 0000002fH
  006d7	2f		 DB	 47			; 0000002fH
  006d8	2f		 DB	 47			; 0000002fH
  006d9	1c		 DB	 28			; 0000001cH
  006da	1d		 DB	 29			; 0000001dH
  006db	1e		 DB	 30			; 0000001eH
  006dc	1f		 DB	 31			; 0000001fH
  006dd	2f		 DB	 47			; 0000002fH
  006de	2f		 DB	 47			; 0000002fH
  006df	2f		 DB	 47			; 0000002fH
  006e0	20		 DB	 32			; 00000020H
  006e1	2f		 DB	 47			; 0000002fH
  006e2	2f		 DB	 47			; 0000002fH
  006e3	2f		 DB	 47			; 0000002fH
  006e4	2f		 DB	 47			; 0000002fH
  006e5	2f		 DB	 47			; 0000002fH
  006e6	21		 DB	 33			; 00000021H
  006e7	2f		 DB	 47			; 0000002fH
  006e8	2f		 DB	 47			; 0000002fH
  006e9	2f		 DB	 47			; 0000002fH
  006ea	2f		 DB	 47			; 0000002fH
  006eb	2f		 DB	 47			; 0000002fH
  006ec	2f		 DB	 47			; 0000002fH
  006ed	22		 DB	 34			; 00000022H
  006ee	2f		 DB	 47			; 0000002fH
  006ef	2f		 DB	 47			; 0000002fH
  006f0	23		 DB	 35			; 00000023H
  006f1	2f		 DB	 47			; 0000002fH
  006f2	2f		 DB	 47			; 0000002fH
  006f3	2f		 DB	 47			; 0000002fH
  006f4	2f		 DB	 47			; 0000002fH
  006f5	2f		 DB	 47			; 0000002fH
  006f6	2f		 DB	 47			; 0000002fH
  006f7	2f		 DB	 47			; 0000002fH
  006f8	2f		 DB	 47			; 0000002fH
  006f9	2f		 DB	 47			; 0000002fH
  006fa	2f		 DB	 47			; 0000002fH
  006fb	2f		 DB	 47			; 0000002fH
  006fc	2f		 DB	 47			; 0000002fH
  006fd	24		 DB	 36			; 00000024H
  006fe	25		 DB	 37			; 00000025H
  006ff	2f		 DB	 47			; 0000002fH
  00700	2f		 DB	 47			; 0000002fH
  00701	2f		 DB	 47			; 0000002fH
  00702	26		 DB	 38			; 00000026H
  00703	27		 DB	 39			; 00000027H
  00704	28		 DB	 40			; 00000028H
  00705	29		 DB	 41			; 00000029H
  00706	2f		 DB	 47			; 0000002fH
  00707	2f		 DB	 47			; 0000002fH
  00708	2f		 DB	 47			; 0000002fH
  00709	2f		 DB	 47			; 0000002fH
  0070a	2f		 DB	 47			; 0000002fH
  0070b	2a		 DB	 42			; 0000002aH
  0070c	2f		 DB	 47			; 0000002fH
  0070d	2f		 DB	 47			; 0000002fH
  0070e	2b		 DB	 43			; 0000002bH
  0070f	2f		 DB	 47			; 0000002fH
  00710	2f		 DB	 47			; 0000002fH
  00711	2f		 DB	 47			; 0000002fH
  00712	2f		 DB	 47			; 0000002fH
  00713	2c		 DB	 44			; 0000002cH
  00714	2d		 DB	 45			; 0000002dH
  00715	2f		 DB	 47			; 0000002fH
  00716	2f		 DB	 47			; 0000002fH
  00717	2f		 DB	 47			; 0000002fH
  00718	2e		 DB	 46			; 0000002eH
?get_local_float_value@@YGMPAUENTITY@@W4FLOAT_TYPES@@@Z ENDP ; get_local_float_value
_TEXT	ENDS
; Function compile flags: /Odtp /ZI
; File c:\users\nhv90\projects\eech\aphavoc\source\entity\mobile\aircraft\ac_float.c
;	COMDAT ?set_client_float_value@@YGXPAUENTITY@@W4FLOAT_TYPES@@M@Z
_TEXT	SEGMENT
_en$ = 8						; size = 4
_type$ = 12						; size = 4
_value$ = 16						; size = 4
?set_client_float_value@@YGXPAUENTITY@@W4FLOAT_TYPES@@M@Z PROC ; set_client_float_value, COMDAT

; 242  : {

  00000	55		 push	 ebp
  00001	8b ec		 mov	 ebp, esp
  00003	83 ec 40	 sub	 esp, 64			; 00000040H
  00006	53		 push	 ebx
  00007	56		 push	 esi
  00008	57		 push	 edi

; 243  : 	if (get_comms_data_flow () == COMMS_DATA_FLOW_TX)

  00009	83 3d 00 00 00
	00 00		 cmp	 DWORD PTR ?system_comms_data_flow@@3W4COMMS_DATA_FLOW_TYPES@@A, 0 ; system_comms_data_flow
  00010	75 3b		 jne	 SHORT $LN2@set_client

; 244  : 	{
; 245  : 		validate_client_server_remote_fn ();

  00012	e8 00 00 00 00	 call	 ?assert_client_server_remote_fn@@YGHXZ ; assert_client_server_remote_fn
  00017	85 c0		 test	 eax, eax
  00019	75 18		 jne	 SHORT $LN4@set_client
  0001b	a1 00 00 00 00	 mov	 eax, DWORD PTR ?__LINE__Var@?0??set_client_float_value@@YGXPAUENTITY@@W4FLOAT_TYPES@@M@Z@4JA
  00020	83 c0 03	 add	 eax, 3
  00023	50		 push	 eax
  00024	68 00 00 00 00	 push	 OFFSET ??_C@_0EO@NGJGOEIH@c?3?2users?2nhv90?2projects?2eech?2ap@
  00029	68 00 00 00 00	 push	 OFFSET ??_C@_0CC@BNNNEGEG@assert_client_server_remote_fn?5@
  0002e	e8 00 00 00 00	 call	 ?process_assert@@YGXPBD0H@Z ; process_assert
$LN4@set_client:

; 246  : 
; 247  : 		set_remote_float_value (en, type, value);

  00033	51		 push	 ecx
  00034	f3 0f 10 45 10	 movss	 xmm0, DWORD PTR _value$[ebp]
  00039	f3 0f 11 04 24	 movss	 DWORD PTR [esp], xmm0
  0003e	8b 45 0c	 mov	 eax, DWORD PTR _type$[ebp]
  00041	50		 push	 eax
  00042	8b 4d 08	 mov	 ecx, DWORD PTR _en$[ebp]
  00045	51		 push	 ecx
  00046	e8 00 00 00 00	 call	 ?set_remote_float_value@@YGXPAUENTITY@@W4FLOAT_TYPES@@M@Z ; set_remote_float_value

; 248  : 	}
; 249  : 	else

  0004b	eb 39		 jmp	 SHORT $LN3@set_client
$LN2@set_client:

; 250  : 	{
; 251  : 		validate_client_server_local_fn ();

  0004d	e8 00 00 00 00	 call	 ?assert_client_server_local_fn@@YGHXZ ; assert_client_server_local_fn
  00052	85 c0		 test	 eax, eax
  00054	75 18		 jne	 SHORT $LN5@set_client
  00056	a1 00 00 00 00	 mov	 eax, DWORD PTR ?__LINE__Var@?0??set_client_float_value@@YGXPAUENTITY@@W4FLOAT_TYPES@@M@Z@4JA
  0005b	83 c0 09	 add	 eax, 9
  0005e	50		 push	 eax
  0005f	68 00 00 00 00	 push	 OFFSET ??_C@_0EO@NGJGOEIH@c?3?2users?2nhv90?2projects?2eech?2ap@
  00064	68 00 00 00 00	 push	 OFFSET ??_C@_0CB@CFOCLFOK@assert_client_server_local_fn?5?$CI@
  00069	e8 00 00 00 00	 call	 ?process_assert@@YGXPBD0H@Z ; process_assert
$LN5@set_client:

; 252  : 
; 253  : 		set_local_float_value (en, type, value);

  0006e	51		 push	 ecx
  0006f	f3 0f 10 45 10	 movss	 xmm0, DWORD PTR _value$[ebp]
  00074	f3 0f 11 04 24	 movss	 DWORD PTR [esp], xmm0
  00079	8b 45 0c	 mov	 eax, DWORD PTR _type$[ebp]
  0007c	50		 push	 eax
  0007d	8b 4d 08	 mov	 ecx, DWORD PTR _en$[ebp]
  00080	51		 push	 ecx
  00081	e8 00 00 00 00	 call	 ?set_local_float_value@@YGXPAUENTITY@@W4FLOAT_TYPES@@M@Z ; set_local_float_value
$LN3@set_client:

; 254  : 	}
; 255  : }

  00086	5f		 pop	 edi
  00087	5e		 pop	 esi
  00088	5b		 pop	 ebx
  00089	8b e5		 mov	 esp, ebp
  0008b	5d		 pop	 ebp
  0008c	c2 0c 00	 ret	 12			; 0000000cH
?set_client_float_value@@YGXPAUENTITY@@W4FLOAT_TYPES@@M@Z ENDP ; set_client_float_value
_TEXT	ENDS
; Function compile flags: /Odtp /ZI
; File c:\users\nhv90\projects\eech\aphavoc\source\entity\mobile\aircraft\ac_float.c
;	COMDAT ?set_server_float_value@@YGXPAUENTITY@@W4FLOAT_TYPES@@M@Z
_TEXT	SEGMENT
_en$ = 8						; size = 4
_type$ = 12						; size = 4
_value$ = 16						; size = 4
?set_server_float_value@@YGXPAUENTITY@@W4FLOAT_TYPES@@M@Z PROC ; set_server_float_value, COMDAT

; 223  : {

  00000	55		 push	 ebp
  00001	8b ec		 mov	 ebp, esp
  00003	83 ec 40	 sub	 esp, 64			; 00000040H
  00006	53		 push	 ebx
  00007	56		 push	 esi
  00008	57		 push	 edi

; 224  : 	validate_client_server_local_fn ();

  00009	e8 00 00 00 00	 call	 ?assert_client_server_local_fn@@YGHXZ ; assert_client_server_local_fn
  0000e	85 c0		 test	 eax, eax
  00010	75 18		 jne	 SHORT $LN2@set_server
  00012	a1 00 00 00 00	 mov	 eax, DWORD PTR ?__LINE__Var@?0??set_server_float_value@@YGXPAUENTITY@@W4FLOAT_TYPES@@M@Z@4JA
  00017	83 c0 01	 add	 eax, 1
  0001a	50		 push	 eax
  0001b	68 00 00 00 00	 push	 OFFSET ??_C@_0EO@NGJGOEIH@c?3?2users?2nhv90?2projects?2eech?2ap@
  00020	68 00 00 00 00	 push	 OFFSET ??_C@_0CB@CFOCLFOK@assert_client_server_local_fn?5?$CI@
  00025	e8 00 00 00 00	 call	 ?process_assert@@YGXPBD0H@Z ; process_assert
$LN2@set_server:

; 225  : 
; 226  : 	set_local_float_value (en, type, value);

  0002a	51		 push	 ecx
  0002b	f3 0f 10 45 10	 movss	 xmm0, DWORD PTR _value$[ebp]
  00030	f3 0f 11 04 24	 movss	 DWORD PTR [esp], xmm0
  00035	8b 45 0c	 mov	 eax, DWORD PTR _type$[ebp]
  00038	50		 push	 eax
  00039	8b 4d 08	 mov	 ecx, DWORD PTR _en$[ebp]
  0003c	51		 push	 ecx
  0003d	e8 00 00 00 00	 call	 ?set_local_float_value@@YGXPAUENTITY@@W4FLOAT_TYPES@@M@Z ; set_local_float_value

; 227  : 
; 228  : 	validate_client_server_remote_fn ();

  00042	e8 00 00 00 00	 call	 ?assert_client_server_remote_fn@@YGHXZ ; assert_client_server_remote_fn
  00047	85 c0		 test	 eax, eax
  00049	75 18		 jne	 SHORT $LN3@set_server
  0004b	a1 00 00 00 00	 mov	 eax, DWORD PTR ?__LINE__Var@?0??set_server_float_value@@YGXPAUENTITY@@W4FLOAT_TYPES@@M@Z@4JA
  00050	83 c0 05	 add	 eax, 5
  00053	50		 push	 eax
  00054	68 00 00 00 00	 push	 OFFSET ??_C@_0EO@NGJGOEIH@c?3?2users?2nhv90?2projects?2eech?2ap@
  00059	68 00 00 00 00	 push	 OFFSET ??_C@_0CC@BNNNEGEG@assert_client_server_remote_fn?5@
  0005e	e8 00 00 00 00	 call	 ?process_assert@@YGXPBD0H@Z ; process_assert
$LN3@set_server:

; 229  : 
; 230  : 	set_remote_float_value (en, type, value);

  00063	51		 push	 ecx
  00064	f3 0f 10 45 10	 movss	 xmm0, DWORD PTR _value$[ebp]
  00069	f3 0f 11 04 24	 movss	 DWORD PTR [esp], xmm0
  0006e	8b 45 0c	 mov	 eax, DWORD PTR _type$[ebp]
  00071	50		 push	 eax
  00072	8b 4d 08	 mov	 ecx, DWORD PTR _en$[ebp]
  00075	51		 push	 ecx
  00076	e8 00 00 00 00	 call	 ?set_remote_float_value@@YGXPAUENTITY@@W4FLOAT_TYPES@@M@Z ; set_remote_float_value

; 231  : }

  0007b	5f		 pop	 edi
  0007c	5e		 pop	 esi
  0007d	5b		 pop	 ebx
  0007e	8b e5		 mov	 esp, ebp
  00080	5d		 pop	 ebp
  00081	c2 0c 00	 ret	 12			; 0000000cH
?set_server_float_value@@YGXPAUENTITY@@W4FLOAT_TYPES@@M@Z ENDP ; set_server_float_value
_TEXT	ENDS
; Function compile flags: /Odtp /ZI
; File c:\users\nhv90\projects\eech\aphavoc\source\entity\mobile\aircraft\ac_float.c
;	COMDAT ?set_remote_float_value@@YGXPAUENTITY@@W4FLOAT_TYPES@@M@Z
_TEXT	SEGMENT
_en$ = 8						; size = 4
_type$ = 12						; size = 4
_value$ = 16						; size = 4
?set_remote_float_value@@YGXPAUENTITY@@W4FLOAT_TYPES@@M@Z PROC ; set_remote_float_value, COMDAT

; 204  : {

  00000	55		 push	 ebp
  00001	8b ec		 mov	 ebp, esp
  00003	83 ec 40	 sub	 esp, 64			; 00000040H
  00006	53		 push	 ebx
  00007	56		 push	 esi
  00008	57		 push	 edi

; 205  : 	#if DEBUG_MODULE
; 206  : 
; 207  : 	debug_log_entity_args (ENTITY_DEBUG_REMOTE, ENTITY_DEBUG_FLOAT_VALUE, en, type, value);
; 208  : 
; 209  : 	#endif
; 210  : 
; 211  : 	transmit_entity_comms_message (ENTITY_COMMS_FLOAT_VALUE, en, type, value);

  00009	f3 0f 5a 45 10	 cvtss2sd xmm0, DWORD PTR _value$[ebp]
  0000e	83 ec 08	 sub	 esp, 8
  00011	f2 0f 11 04 24	 movsd	 QWORD PTR [esp], xmm0
  00016	8b 45 0c	 mov	 eax, DWORD PTR _type$[ebp]
  00019	50		 push	 eax
  0001a	8b 4d 08	 mov	 ecx, DWORD PTR _en$[ebp]
  0001d	51		 push	 ecx
  0001e	6a 16		 push	 22			; 00000016H
  00020	e8 00 00 00 00	 call	 ?transmit_entity_comms_message@@YAXW4ENTITY_COMMS_MESSAGES@@PAUENTITY@@ZZ ; transmit_entity_comms_message
  00025	83 c4 14	 add	 esp, 20			; 00000014H

; 212  : }

  00028	5f		 pop	 edi
  00029	5e		 pop	 esi
  0002a	5b		 pop	 ebx
  0002b	8b e5		 mov	 esp, ebp
  0002d	5d		 pop	 ebp
  0002e	c2 0c 00	 ret	 12			; 0000000cH
?set_remote_float_value@@YGXPAUENTITY@@W4FLOAT_TYPES@@M@Z ENDP ; set_remote_float_value
_TEXT	ENDS
; Function compile flags: /Odtp /ZI
; File c:\users\nhv90\projects\eech\aphavoc\source\entity\mobile\aircraft\ac_float.c
;	COMDAT ?set_local_float_value@@YGXPAUENTITY@@W4FLOAT_TYPES@@M@Z
_TEXT	SEGMENT
tv92 = -72						; size = 4
tv65 = -72						; size = 4
_raw$ = -4						; size = 4
_en$ = 8						; size = 4
_type$ = 12						; size = 4
_value$ = 16						; size = 4
?set_local_float_value@@YGXPAUENTITY@@W4FLOAT_TYPES@@M@Z PROC ; set_local_float_value, COMDAT

; 90   : {

  00000	55		 push	 ebp
  00001	8b ec		 mov	 ebp, esp
  00003	83 ec 48	 sub	 esp, 72			; 00000048H
  00006	53		 push	 ebx
  00007	56		 push	 esi
  00008	57		 push	 edi

; 91   : 	aircraft
; 92   : 		*raw;
; 93   : 
; 94   : 	#if DEBUG_MODULE
; 95   : 
; 96   : 	debug_log_entity_args (ENTITY_DEBUG_LOCAL, ENTITY_DEBUG_FLOAT_VALUE, en, type, value);
; 97   : 
; 98   : 	#endif
; 99   : 
; 100  : 	raw = (aircraft *) get_local_entity_data (en);

  00009	8b 45 08	 mov	 eax, DWORD PTR _en$[ebp]
  0000c	8b 48 04	 mov	 ecx, DWORD PTR [eax+4]
  0000f	89 4d fc	 mov	 DWORD PTR _raw$[ebp], ecx

; 101  : 
; 102  : 	switch (type)

  00012	8b 45 0c	 mov	 eax, DWORD PTR _type$[ebp]
  00015	89 45 b8	 mov	 DWORD PTR tv65[ebp], eax
  00018	8b 4d b8	 mov	 ecx, DWORD PTR tv65[ebp]
  0001b	83 e9 02	 sub	 ecx, 2
  0001e	89 4d b8	 mov	 DWORD PTR tv65[ebp], ecx
  00021	81 7d b8 98 00
	00 00		 cmp	 DWORD PTR tv65[ebp], 152 ; 00000098H
  00028	0f 87 e0 00 00
	00		 ja	 $LN14@set_local_
  0002e	8b 55 b8	 mov	 edx, DWORD PTR tv65[ebp]
  00031	0f b6 82 00 00
	00 00		 movzx	 eax, BYTE PTR $LN18@set_local_[edx]
  00038	ff 24 85 00 00
	00 00		 jmp	 DWORD PTR $LN19@set_local_[eax*4]
$LN4@set_local_:

; 103  : 	{
; 104  : 		////////////////////////////////////////
; 105  : 		case FLOAT_TYPE_AIR_RADAR_CONTACT_TIMEOUT:
; 106  : 		////////////////////////////////////////
; 107  : 		{
; 108  : 			raw->air_radar_contact_timeout = value;

  0003f	8b 45 fc	 mov	 eax, DWORD PTR _raw$[ebp]
  00042	f3 0f 10 45 10	 movss	 xmm0, DWORD PTR _value$[ebp]
  00047	f3 0f 11 80 14
	01 00 00	 movss	 DWORD PTR [eax+276], xmm0

; 109  : 
; 110  : 			break;

  0004f	e9 2c 01 00 00	 jmp	 $LN2@set_local_
$LN5@set_local_:

; 111  : 		}
; 112  : 		////////////////////////////////////////
; 113  : 		case FLOAT_TYPE_CARGO_DOOR_STATE:
; 114  : 		////////////////////////////////////////
; 115  : 		{
; 116  : 			raw->cargo_door_state = value;

  00054	8b 45 fc	 mov	 eax, DWORD PTR _raw$[ebp]
  00057	f3 0f 10 45 10	 movss	 xmm0, DWORD PTR _value$[ebp]
  0005c	f3 0f 11 80 f0
	00 00 00	 movss	 DWORD PTR [eax+240], xmm0

; 117  : 
; 118  : 			break;

  00064	e9 17 01 00 00	 jmp	 $LN2@set_local_
$LN6@set_local_:

; 119  : 		}
; 120  : 		////////////////////////////////////////
; 121  : 		case FLOAT_TYPE_DEATH_TIMER:
; 122  : 		////////////////////////////////////////
; 123  : 		{
; 124  : 			raw->death_timer = value;

  00069	8b 45 fc	 mov	 eax, DWORD PTR _raw$[ebp]
  0006c	f3 0f 10 45 10	 movss	 xmm0, DWORD PTR _value$[ebp]
  00071	f3 0f 11 80 10
	01 00 00	 movss	 DWORD PTR [eax+272], xmm0

; 125  : 
; 126  : 			break;

  00079	e9 02 01 00 00	 jmp	 $LN2@set_local_
$LN7@set_local_:

; 127  : 		}
; 128  : 		////////////////////////////////////////
; 129  : 		case FLOAT_TYPE_DISTANCE:
; 130  : 		////////////////////////////////////////
; 131  : 		{
; 132  : 			raw->distance = value;

  0007e	8b 45 fc	 mov	 eax, DWORD PTR _raw$[ebp]
  00081	f3 0f 10 45 10	 movss	 xmm0, DWORD PTR _value$[ebp]
  00086	f3 0f 11 80 ec
	00 00 00	 movss	 DWORD PTR [eax+236], xmm0

; 133  : 
; 134  : 			break;

  0008e	e9 ed 00 00 00	 jmp	 $LN2@set_local_
$LN8@set_local_:

; 135  : 		}
; 136  : 		////////////////////////////////////////
; 137  : 		case FLOAT_TYPE_LOADING_DOOR_STATE:
; 138  : 		////////////////////////////////////////
; 139  : 		{
; 140  : 			raw->loading_door_state = value;

  00093	8b 45 fc	 mov	 eax, DWORD PTR _raw$[ebp]
  00096	f3 0f 10 45 10	 movss	 xmm0, DWORD PTR _value$[ebp]
  0009b	f3 0f 11 80 f4
	00 00 00	 movss	 DWORD PTR [eax+244], xmm0

; 141  : 
; 142  : 			break;

  000a3	e9 d8 00 00 00	 jmp	 $LN2@set_local_
$LN9@set_local_:

; 143  : 		}
; 144  : 		////////////////////////////////////////
; 145  : 		case FLOAT_TYPE_RUDDER_STATE:
; 146  : 		////////////////////////////////////////
; 147  : 		{
; 148  : 			raw->rudder_state = value;

  000a8	8b 45 fc	 mov	 eax, DWORD PTR _raw$[ebp]
  000ab	f3 0f 10 45 10	 movss	 xmm0, DWORD PTR _value$[ebp]
  000b0	f3 0f 11 80 18
	01 00 00	 movss	 DWORD PTR [eax+280], xmm0

; 149  : 
; 150  : 			break;

  000b8	e9 c3 00 00 00	 jmp	 $LN2@set_local_
$LN10@set_local_:

; 151  : 		}
; 152  : 		////////////////////////////////////////
; 153  : 		case FLOAT_TYPE_UNDERCARRIAGE_STATE:
; 154  : 		////////////////////////////////////////
; 155  : 		{
; 156  : 			raw->undercarriage_state = value;

  000bd	8b 45 fc	 mov	 eax, DWORD PTR _raw$[ebp]
  000c0	f3 0f 10 45 10	 movss	 xmm0, DWORD PTR _value$[ebp]
  000c5	f3 0f 11 80 fc
	00 00 00	 movss	 DWORD PTR [eax+252], xmm0

; 157  : 
; 158  : 			break;

  000cd	e9 ae 00 00 00	 jmp	 $LN2@set_local_
$LN11@set_local_:

; 159  : 		}
; 160  : 		////////////////////////////////////////
; 161  : 		case FLOAT_TYPE_VIEW_INTEREST_LEVEL:
; 162  : 		////////////////////////////////////////
; 163  : 		{
; 164  : 			raw->view_interest_level = value;

  000d2	8b 45 fc	 mov	 eax, DWORD PTR _raw$[ebp]
  000d5	f3 0f 10 45 10	 movss	 xmm0, DWORD PTR _value$[ebp]
  000da	f3 0f 11 80 00
	01 00 00	 movss	 DWORD PTR [eax+256], xmm0

; 165  : 
; 166  : 			break;

  000e2	e9 99 00 00 00	 jmp	 $LN2@set_local_
$LN12@set_local_:

; 167  : 		}
; 168  : 		////////////////////////////////////////
; 169  : 		case FLOAT_TYPE_WEAPON_BURST_TIMER:
; 170  : 		////////////////////////////////////////
; 171  : 		{
; 172  : 			raw->weapon_burst_timer = value;

  000e7	8b 45 fc	 mov	 eax, DWORD PTR _raw$[ebp]
  000ea	f3 0f 10 45 10	 movss	 xmm0, DWORD PTR _value$[ebp]
  000ef	f3 0f 11 80 04
	01 00 00	 movss	 DWORD PTR [eax+260], xmm0

; 173  : 
; 174  : 			break;

  000f7	e9 84 00 00 00	 jmp	 $LN2@set_local_
$LN13@set_local_:

; 175  : 		}
; 176  : 		////////////////////////////////////////
; 177  : 		case FLOAT_TYPE_WEAPON_SYSTEM_READY_STATE:
; 178  : 		////////////////////////////////////////
; 179  : 		{
; 180  : 			raw->weapon_system_ready_state = value;

  000fc	8b 45 fc	 mov	 eax, DWORD PTR _raw$[ebp]
  000ff	f3 0f 10 45 10	 movss	 xmm0, DWORD PTR _value$[ebp]
  00104	f3 0f 11 80 08
	01 00 00	 movss	 DWORD PTR [eax+264], xmm0

; 181  : 
; 182  : 			break;

  0010c	eb 72		 jmp	 SHORT $LN2@set_local_
$LN14@set_local_:

; 183  : 		}
; 184  : 		////////////////////////////////////////
; 185  : 		default:
; 186  : 		////////////////////////////////////////
; 187  : 		{
; 188  : 			debug_fatal_invalid_float_type (en, type);

  0010e	83 7d 08 00	 cmp	 DWORD PTR _en$[ebp], 0
  00112	74 0a		 je	 SHORT $LN16@set_local_
  00114	8b 45 08	 mov	 eax, DWORD PTR _en$[ebp]
  00117	8b 08		 mov	 ecx, DWORD PTR [eax]
  00119	89 4d b8	 mov	 DWORD PTR tv92[ebp], ecx
  0011c	eb 21		 jmp	 SHORT $LN17@set_local_
$LN16@set_local_:
  0011e	8b 15 00 00 00
	00		 mov	 edx, DWORD PTR ?__LINE__Var@?0??set_local_float_value@@YGXPAUENTITY@@W4FLOAT_TYPES@@M@Z@4JA
  00124	83 c2 62	 add	 edx, 98			; 00000062H
  00127	52		 push	 edx
  00128	68 00 00 00 00	 push	 OFFSET ??_C@_0EO@NGJGOEIH@c?3?2users?2nhv90?2projects?2eech?2ap@
  0012d	a1 00 00 00 00	 mov	 eax, DWORD PTR ?null_entity_pointer_message@@3PBDB ; null_entity_pointer_message
  00132	50		 push	 eax
  00133	e8 00 00 00 00	 call	 ?process_assert@@YGXPBD0H@Z ; process_assert
  00138	c7 45 b8 00 00
	00 00		 mov	 DWORD PTR tv92[ebp], 0
$LN17@set_local_:
  0013f	8b 0d 00 00 00
	00		 mov	 ecx, DWORD PTR ?__LINE__Var@?0??set_local_float_value@@YGXPAUENTITY@@W4FLOAT_TYPES@@M@Z@4JA
  00145	83 c1 62	 add	 ecx, 98			; 00000062H
  00148	51		 push	 ecx
  00149	68 00 00 00 00	 push	 OFFSET ??_C@_0EO@NGJGOEIH@c?3?2users?2nhv90?2projects?2eech?2ap@
  0014e	6b 55 0c 18	 imul	 edx, DWORD PTR _type$[ebp], 24
  00152	8b 82 00 00 00
	00		 mov	 eax, DWORD PTR ?float_type_database@@3PAUFLOAT_TYPE_DATA@@A[edx]
  00158	50		 push	 eax
  00159	8b 4d 08	 mov	 ecx, DWORD PTR _en$[ebp]
  0015c	2b 0d 00 00 00
	00		 sub	 ecx, DWORD PTR ?entities@@3PAUENTITY@@A ; entities
  00162	c1 f9 04	 sar	 ecx, 4
  00165	51		 push	 ecx
  00166	6b 55 b8 0c	 imul	 edx, DWORD PTR tv92[ebp], 12
  0016a	8b 82 00 00 00
	00		 mov	 eax, DWORD PTR ?entity_type_database@@3PAUENTITY_TYPE_DATA@@A[edx]
  00170	50		 push	 eax
  00171	8b 0d 00 00 00
	00		 mov	 ecx, DWORD PTR ?debug_fatal_invalid_float_type_message@@3PBDB ; debug_fatal_invalid_float_type_message
  00177	51		 push	 ecx
  00178	e8 00 00 00 00	 call	 ?debug_fatal@@YAXPBDZZ	; debug_fatal
  0017d	83 c4 18	 add	 esp, 24			; 00000018H
$LN2@set_local_:

; 189  : 
; 190  : 			break;
; 191  : 		}
; 192  : 	}
; 193  : }

  00180	5f		 pop	 edi
  00181	5e		 pop	 esi
  00182	5b		 pop	 ebx
  00183	8b e5		 mov	 esp, ebp
  00185	5d		 pop	 ebp
  00186	c2 0c 00	 ret	 12			; 0000000cH
  00189	0f 1f 00	 npad	 3
$LN19@set_local_:
  0018c	00 00 00 00	 DD	 $LN4@set_local_
  00190	00 00 00 00	 DD	 $LN5@set_local_
  00194	00 00 00 00	 DD	 $LN6@set_local_
  00198	00 00 00 00	 DD	 $LN7@set_local_
  0019c	00 00 00 00	 DD	 $LN8@set_local_
  001a0	00 00 00 00	 DD	 $LN9@set_local_
  001a4	00 00 00 00	 DD	 $LN10@set_local_
  001a8	00 00 00 00	 DD	 $LN11@set_local_
  001ac	00 00 00 00	 DD	 $LN12@set_local_
  001b0	00 00 00 00	 DD	 $LN13@set_local_
  001b4	00 00 00 00	 DD	 $LN14@set_local_
$LN18@set_local_:
  001b8	00		 DB	 0
  001b9	0a		 DB	 10			; 0000000aH
  001ba	0a		 DB	 10			; 0000000aH
  001bb	0a		 DB	 10			; 0000000aH
  001bc	0a		 DB	 10			; 0000000aH
  001bd	0a		 DB	 10			; 0000000aH
  001be	0a		 DB	 10			; 0000000aH
  001bf	0a		 DB	 10			; 0000000aH
  001c0	0a		 DB	 10			; 0000000aH
  001c1	0a		 DB	 10			; 0000000aH
  001c2	0a		 DB	 10			; 0000000aH
  001c3	0a		 DB	 10			; 0000000aH
  001c4	0a		 DB	 10			; 0000000aH
  001c5	0a		 DB	 10			; 0000000aH
  001c6	0a		 DB	 10			; 0000000aH
  001c7	01		 DB	 1
  001c8	0a		 DB	 10			; 0000000aH
  001c9	0a		 DB	 10			; 0000000aH
  001ca	0a		 DB	 10			; 0000000aH
  001cb	0a		 DB	 10			; 0000000aH
  001cc	0a		 DB	 10			; 0000000aH
  001cd	0a		 DB	 10			; 0000000aH
  001ce	0a		 DB	 10			; 0000000aH
  001cf	0a		 DB	 10			; 0000000aH
  001d0	0a		 DB	 10			; 0000000aH
  001d1	02		 DB	 2
  001d2	0a		 DB	 10			; 0000000aH
  001d3	0a		 DB	 10			; 0000000aH
  001d4	0a		 DB	 10			; 0000000aH
  001d5	03		 DB	 3
  001d6	0a		 DB	 10			; 0000000aH
  001d7	0a		 DB	 10			; 0000000aH
  001d8	0a		 DB	 10			; 0000000aH
  001d9	0a		 DB	 10			; 0000000aH
  001da	0a		 DB	 10			; 0000000aH
  001db	0a		 DB	 10			; 0000000aH
  001dc	0a		 DB	 10			; 0000000aH
  001dd	0a		 DB	 10			; 0000000aH
  001de	0a		 DB	 10			; 0000000aH
  001df	0a		 DB	 10			; 0000000aH
  001e0	0a		 DB	 10			; 0000000aH
  001e1	0a		 DB	 10			; 0000000aH
  001e2	0a		 DB	 10			; 0000000aH
  001e3	0a		 DB	 10			; 0000000aH
  001e4	0a		 DB	 10			; 0000000aH
  001e5	0a		 DB	 10			; 0000000aH
  001e6	0a		 DB	 10			; 0000000aH
  001e7	0a		 DB	 10			; 0000000aH
  001e8	0a		 DB	 10			; 0000000aH
  001e9	0a		 DB	 10			; 0000000aH
  001ea	0a		 DB	 10			; 0000000aH
  001eb	0a		 DB	 10			; 0000000aH
  001ec	0a		 DB	 10			; 0000000aH
  001ed	0a		 DB	 10			; 0000000aH
  001ee	0a		 DB	 10			; 0000000aH
  001ef	0a		 DB	 10			; 0000000aH
  001f0	0a		 DB	 10			; 0000000aH
  001f1	0a		 DB	 10			; 0000000aH
  001f2	0a		 DB	 10			; 0000000aH
  001f3	0a		 DB	 10			; 0000000aH
  001f4	0a		 DB	 10			; 0000000aH
  001f5	04		 DB	 4
  001f6	0a		 DB	 10			; 0000000aH
  001f7	0a		 DB	 10			; 0000000aH
  001f8	0a		 DB	 10			; 0000000aH
  001f9	0a		 DB	 10			; 0000000aH
  001fa	0a		 DB	 10			; 0000000aH
  001fb	0a		 DB	 10			; 0000000aH
  001fc	0a		 DB	 10			; 0000000aH
  001fd	0a		 DB	 10			; 0000000aH
  001fe	0a		 DB	 10			; 0000000aH
  001ff	0a		 DB	 10			; 0000000aH
  00200	0a		 DB	 10			; 0000000aH
  00201	0a		 DB	 10			; 0000000aH
  00202	0a		 DB	 10			; 0000000aH
  00203	0a		 DB	 10			; 0000000aH
  00204	0a		 DB	 10			; 0000000aH
  00205	0a		 DB	 10			; 0000000aH
  00206	0a		 DB	 10			; 0000000aH
  00207	0a		 DB	 10			; 0000000aH
  00208	0a		 DB	 10			; 0000000aH
  00209	0a		 DB	 10			; 0000000aH
  0020a	0a		 DB	 10			; 0000000aH
  0020b	0a		 DB	 10			; 0000000aH
  0020c	0a		 DB	 10			; 0000000aH
  0020d	0a		 DB	 10			; 0000000aH
  0020e	0a		 DB	 10			; 0000000aH
  0020f	0a		 DB	 10			; 0000000aH
  00210	0a		 DB	 10			; 0000000aH
  00211	0a		 DB	 10			; 0000000aH
  00212	0a		 DB	 10			; 0000000aH
  00213	0a		 DB	 10			; 0000000aH
  00214	0a		 DB	 10			; 0000000aH
  00215	0a		 DB	 10			; 0000000aH
  00216	0a		 DB	 10			; 0000000aH
  00217	0a		 DB	 10			; 0000000aH
  00218	0a		 DB	 10			; 0000000aH
  00219	0a		 DB	 10			; 0000000aH
  0021a	0a		 DB	 10			; 0000000aH
  0021b	0a		 DB	 10			; 0000000aH
  0021c	0a		 DB	 10			; 0000000aH
  0021d	0a		 DB	 10			; 0000000aH
  0021e	0a		 DB	 10			; 0000000aH
  0021f	0a		 DB	 10			; 0000000aH
  00220	0a		 DB	 10			; 0000000aH
  00221	0a		 DB	 10			; 0000000aH
  00222	0a		 DB	 10			; 0000000aH
  00223	0a		 DB	 10			; 0000000aH
  00224	0a		 DB	 10			; 0000000aH
  00225	0a		 DB	 10			; 0000000aH
  00226	0a		 DB	 10			; 0000000aH
  00227	0a		 DB	 10			; 0000000aH
  00228	05		 DB	 5
  00229	0a		 DB	 10			; 0000000aH
  0022a	0a		 DB	 10			; 0000000aH
  0022b	0a		 DB	 10			; 0000000aH
  0022c	0a		 DB	 10			; 0000000aH
  0022d	0a		 DB	 10			; 0000000aH
  0022e	0a		 DB	 10			; 0000000aH
  0022f	0a		 DB	 10			; 0000000aH
  00230	0a		 DB	 10			; 0000000aH
  00231	0a		 DB	 10			; 0000000aH
  00232	0a		 DB	 10			; 0000000aH
  00233	0a		 DB	 10			; 0000000aH
  00234	0a		 DB	 10			; 0000000aH
  00235	0a		 DB	 10			; 0000000aH
  00236	0a		 DB	 10			; 0000000aH
  00237	0a		 DB	 10			; 0000000aH
  00238	0a		 DB	 10			; 0000000aH
  00239	0a		 DB	 10			; 0000000aH
  0023a	0a		 DB	 10			; 0000000aH
  0023b	0a		 DB	 10			; 0000000aH
  0023c	0a		 DB	 10			; 0000000aH
  0023d	0a		 DB	 10			; 0000000aH
  0023e	0a		 DB	 10			; 0000000aH
  0023f	0a		 DB	 10			; 0000000aH
  00240	0a		 DB	 10			; 0000000aH
  00241	0a		 DB	 10			; 0000000aH
  00242	0a		 DB	 10			; 0000000aH
  00243	0a		 DB	 10			; 0000000aH
  00244	0a		 DB	 10			; 0000000aH
  00245	0a		 DB	 10			; 0000000aH
  00246	06		 DB	 6
  00247	0a		 DB	 10			; 0000000aH
  00248	0a		 DB	 10			; 0000000aH
  00249	0a		 DB	 10			; 0000000aH
  0024a	0a		 DB	 10			; 0000000aH
  0024b	07		 DB	 7
  0024c	08		 DB	 8
  0024d	0a		 DB	 10			; 0000000aH
  0024e	0a		 DB	 10			; 0000000aH
  0024f	0a		 DB	 10			; 0000000aH
  00250	09		 DB	 9
?set_local_float_value@@YGXPAUENTITY@@W4FLOAT_TYPES@@M@Z ENDP ; set_local_float_value
_TEXT	ENDS
; Function compile flags: /Odtp /ZI
; File c:\users\nhv90\projects\eech\aphavoc\source\entity\mobile\aircraft\ac_float.c
;	COMDAT ?overload_aircraft_float_value_functions@@YGXW4ENTITY_TYPES@@@Z
_TEXT	SEGMENT
_type$ = 8						; size = 4
?overload_aircraft_float_value_functions@@YGXW4ENTITY_TYPES@@@Z PROC ; overload_aircraft_float_value_functions, COMDAT

; 681  : {

  00000	55		 push	 ebp
  00001	8b ec		 mov	 ebp, esp
  00003	83 ec 40	 sub	 esp, 64			; 00000040H
  00006	53		 push	 ebx
  00007	56		 push	 esi
  00008	57		 push	 edi

; 682  : 	fn_set_local_entity_raw_float_value			[type][FLOAT_TYPE_AIR_RADAR_CONTACT_TIMEOUT]								= set_local_float_value;

  00009	69 45 08 bc 02
	00 00		 imul	 eax, DWORD PTR _type$[ebp], 700
  00010	b9 04 00 00 00	 mov	 ecx, 4
  00015	d1 e1		 shl	 ecx, 1
  00017	c7 84 08 00 00
	00 00 00 00 00
	00		 mov	 DWORD PTR ?fn_set_local_entity_raw_float_value@@3PAY0KP@P6GXPAUENTITY@@W4FLOAT_TYPES@@M@ZA[eax+ecx], OFFSET ?set_local_float_value@@YGXPAUENTITY@@W4FLOAT_TYPES@@M@Z ; set_local_float_value

; 683  : 	fn_set_local_entity_float_value				[type][FLOAT_TYPE_AIR_RADAR_CONTACT_TIMEOUT]								= set_local_float_value;

  00022	69 45 08 bc 02
	00 00		 imul	 eax, DWORD PTR _type$[ebp], 700
  00029	b9 04 00 00 00	 mov	 ecx, 4
  0002e	d1 e1		 shl	 ecx, 1
  00030	c7 84 08 00 00
	00 00 00 00 00
	00		 mov	 DWORD PTR ?fn_set_local_entity_float_value@@3PAY0KP@P6GXPAUENTITY@@W4FLOAT_TYPES@@M@ZA[eax+ecx], OFFSET ?set_local_float_value@@YGXPAUENTITY@@W4FLOAT_TYPES@@M@Z ; set_local_float_value

; 684  : 	fn_get_local_entity_float_value				[type][FLOAT_TYPE_AIR_RADAR_CONTACT_TIMEOUT]								= get_local_float_value;

  0003b	69 45 08 bc 02
	00 00		 imul	 eax, DWORD PTR _type$[ebp], 700
  00042	b9 04 00 00 00	 mov	 ecx, 4
  00047	d1 e1		 shl	 ecx, 1
  00049	c7 84 08 00 00
	00 00 00 00 00
	00		 mov	 DWORD PTR ?fn_get_local_entity_float_value@@3PAY0KP@P6GMPAUENTITY@@W4FLOAT_TYPES@@@ZA[eax+ecx], OFFSET ?get_local_float_value@@YGMPAUENTITY@@W4FLOAT_TYPES@@@Z ; get_local_float_value

; 685  : 
; 686  : 	fn_get_local_entity_float_value				[type][FLOAT_TYPE_AIR_SCAN_RANGE] 											= get_local_float_value;

  00054	69 45 08 bc 02
	00 00		 imul	 eax, DWORD PTR _type$[ebp], 700
  0005b	b9 04 00 00 00	 mov	 ecx, 4
  00060	6b d1 05	 imul	 edx, ecx, 5
  00063	c7 84 10 00 00
	00 00 00 00 00
	00		 mov	 DWORD PTR ?fn_get_local_entity_float_value@@3PAY0KP@P6GMPAUENTITY@@W4FLOAT_TYPES@@@ZA[eax+edx], OFFSET ?get_local_float_value@@YGMPAUENTITY@@W4FLOAT_TYPES@@@Z ; get_local_float_value

; 687  : 
; 688  : 	fn_get_local_entity_float_value				[type][FLOAT_TYPE_AMMO_ECONOMY]												= get_local_float_value;

  0006e	69 45 08 bc 02
	00 00		 imul	 eax, DWORD PTR _type$[ebp], 700
  00075	b9 04 00 00 00	 mov	 ecx, 4
  0007a	6b d1 07	 imul	 edx, ecx, 7
  0007d	c7 84 10 00 00
	00 00 00 00 00
	00		 mov	 DWORD PTR ?fn_get_local_entity_float_value@@3PAY0KP@P6GMPAUENTITY@@W4FLOAT_TYPES@@@ZA[eax+edx], OFFSET ?get_local_float_value@@YGMPAUENTITY@@W4FLOAT_TYPES@@@Z ; get_local_float_value

; 689  : 
; 690  : 	fn_get_local_entity_float_value				[type][FLOAT_TYPE_ATTACK_ALTITUDE]											= get_local_float_value;

  00088	69 45 08 bc 02
	00 00		 imul	 eax, DWORD PTR _type$[ebp], 700
  0008f	b9 04 00 00 00	 mov	 ecx, 4
  00094	6b d1 0e	 imul	 edx, ecx, 14
  00097	c7 84 10 00 00
	00 00 00 00 00
	00		 mov	 DWORD PTR ?fn_get_local_entity_float_value@@3PAY0KP@P6GMPAUENTITY@@W4FLOAT_TYPES@@@ZA[eax+edx], OFFSET ?get_local_float_value@@YGMPAUENTITY@@W4FLOAT_TYPES@@@Z ; get_local_float_value

; 691  : 
; 692  : 	fn_get_local_entity_float_value				[type][FLOAT_TYPE_AVOIDANCE_RADIUS]											= get_local_float_value;

  000a2	69 45 08 bc 02
	00 00		 imul	 eax, DWORD PTR _type$[ebp], 700
  000a9	b9 04 00 00 00	 mov	 ecx, 4
  000ae	6b d1 0f	 imul	 edx, ecx, 15
  000b1	c7 84 10 00 00
	00 00 00 00 00
	00		 mov	 DWORD PTR ?fn_get_local_entity_float_value@@3PAY0KP@P6GMPAUENTITY@@W4FLOAT_TYPES@@@ZA[eax+edx], OFFSET ?get_local_float_value@@YGMPAUENTITY@@W4FLOAT_TYPES@@@Z ; get_local_float_value

; 693  : 
; 694  : 	fn_set_local_entity_raw_float_value			[type][FLOAT_TYPE_CARGO_DOOR_STATE]											= set_local_float_value;

  000bc	69 45 08 bc 02
	00 00		 imul	 eax, DWORD PTR _type$[ebp], 700
  000c3	b9 04 00 00 00	 mov	 ecx, 4
  000c8	6b d1 11	 imul	 edx, ecx, 17
  000cb	c7 84 10 00 00
	00 00 00 00 00
	00		 mov	 DWORD PTR ?fn_set_local_entity_raw_float_value@@3PAY0KP@P6GXPAUENTITY@@W4FLOAT_TYPES@@M@ZA[eax+edx], OFFSET ?set_local_float_value@@YGXPAUENTITY@@W4FLOAT_TYPES@@M@Z ; set_local_float_value

; 695  : 	fn_set_local_entity_float_value				[type][FLOAT_TYPE_CARGO_DOOR_STATE]											= set_local_float_value;

  000d6	69 45 08 bc 02
	00 00		 imul	 eax, DWORD PTR _type$[ebp], 700
  000dd	b9 04 00 00 00	 mov	 ecx, 4
  000e2	6b d1 11	 imul	 edx, ecx, 17
  000e5	c7 84 10 00 00
	00 00 00 00 00
	00		 mov	 DWORD PTR ?fn_set_local_entity_float_value@@3PAY0KP@P6GXPAUENTITY@@W4FLOAT_TYPES@@M@ZA[eax+edx], OFFSET ?set_local_float_value@@YGXPAUENTITY@@W4FLOAT_TYPES@@M@Z ; set_local_float_value

; 696  : 	fn_set_client_server_entity_float_value	[type][FLOAT_TYPE_CARGO_DOOR_STATE][COMMS_MODEL_SERVER]				= set_server_float_value;

  000f0	69 45 08 78 05
	00 00		 imul	 eax, DWORD PTR _type$[ebp], 1400
  000f7	b9 08 00 00 00	 mov	 ecx, 8
  000fc	6b d1 11	 imul	 edx, ecx, 17
  000ff	8d 84 10 00 00
	00 00		 lea	 eax, DWORD PTR ?fn_set_client_server_entity_float_value@@3PAY1KP@1P6GXPAUENTITY@@W4FLOAT_TYPES@@M@ZA[eax+edx]
  00106	b9 04 00 00 00	 mov	 ecx, 4
  0010b	6b d1 00	 imul	 edx, ecx, 0
  0010e	c7 04 10 00 00
	00 00		 mov	 DWORD PTR [eax+edx], OFFSET ?set_server_float_value@@YGXPAUENTITY@@W4FLOAT_TYPES@@M@Z ; set_server_float_value

; 697  : 	fn_set_client_server_entity_float_value	[type][FLOAT_TYPE_CARGO_DOOR_STATE][COMMS_MODEL_CLIENT]				= set_client_float_value;

  00115	69 45 08 78 05
	00 00		 imul	 eax, DWORD PTR _type$[ebp], 1400
  0011c	b9 08 00 00 00	 mov	 ecx, 8
  00121	6b d1 11	 imul	 edx, ecx, 17
  00124	8d 84 10 00 00
	00 00		 lea	 eax, DWORD PTR ?fn_set_client_server_entity_float_value@@3PAY1KP@1P6GXPAUENTITY@@W4FLOAT_TYPES@@M@ZA[eax+edx]
  0012b	b9 04 00 00 00	 mov	 ecx, 4
  00130	c1 e1 00	 shl	 ecx, 0
  00133	c7 04 08 00 00
	00 00		 mov	 DWORD PTR [eax+ecx], OFFSET ?set_client_float_value@@YGXPAUENTITY@@W4FLOAT_TYPES@@M@Z ; set_client_float_value

; 698  : 	fn_get_local_entity_float_value				[type][FLOAT_TYPE_CARGO_DOOR_STATE]											= get_local_float_value;

  0013a	69 45 08 bc 02
	00 00		 imul	 eax, DWORD PTR _type$[ebp], 700
  00141	b9 04 00 00 00	 mov	 ecx, 4
  00146	6b d1 11	 imul	 edx, ecx, 17
  00149	c7 84 10 00 00
	00 00 00 00 00
	00		 mov	 DWORD PTR ?fn_get_local_entity_float_value@@3PAY0KP@P6GMPAUENTITY@@W4FLOAT_TYPES@@@ZA[eax+edx], OFFSET ?get_local_float_value@@YGMPAUENTITY@@W4FLOAT_TYPES@@@Z ; get_local_float_value

; 699  : 
; 700  : 	fn_get_local_entity_float_value				[type][FLOAT_TYPE_CENTRE_OF_GRAVITY_TO_GROUND_DISTANCE]				= get_local_float_value;

  00154	69 45 08 bc 02
	00 00		 imul	 eax, DWORD PTR _type$[ebp], 700
  0015b	b9 04 00 00 00	 mov	 ecx, 4
  00160	6b d1 12	 imul	 edx, ecx, 18
  00163	c7 84 10 00 00
	00 00 00 00 00
	00		 mov	 DWORD PTR ?fn_get_local_entity_float_value@@3PAY0KP@P6GMPAUENTITY@@W4FLOAT_TYPES@@@ZA[eax+edx], OFFSET ?get_local_float_value@@YGMPAUENTITY@@W4FLOAT_TYPES@@@Z ; get_local_float_value

; 701  : 
; 702  : 	fn_get_local_entity_float_value				[type][FLOAT_TYPE_CHASE_VIEW_MAX_DISTANCE]								= get_local_float_value;

  0016e	69 45 08 bc 02
	00 00		 imul	 eax, DWORD PTR _type$[ebp], 700
  00175	b9 04 00 00 00	 mov	 ecx, 4
  0017a	6b d1 13	 imul	 edx, ecx, 19
  0017d	c7 84 10 00 00
	00 00 00 00 00
	00		 mov	 DWORD PTR ?fn_get_local_entity_float_value@@3PAY0KP@P6GMPAUENTITY@@W4FLOAT_TYPES@@@ZA[eax+edx], OFFSET ?get_local_float_value@@YGMPAUENTITY@@W4FLOAT_TYPES@@@Z ; get_local_float_value

; 703  : 
; 704  : 	fn_get_local_entity_float_value				[type][FLOAT_TYPE_CHASE_VIEW_MAX_DISTANCE_TEST]							= get_local_float_value;

  00188	69 45 08 bc 02
	00 00		 imul	 eax, DWORD PTR _type$[ebp], 700
  0018f	b9 04 00 00 00	 mov	 ecx, 4
  00194	6b d1 14	 imul	 edx, ecx, 20
  00197	c7 84 10 00 00
	00 00 00 00 00
	00		 mov	 DWORD PTR ?fn_get_local_entity_float_value@@3PAY0KP@P6GMPAUENTITY@@W4FLOAT_TYPES@@@ZA[eax+edx], OFFSET ?get_local_float_value@@YGMPAUENTITY@@W4FLOAT_TYPES@@@Z ; get_local_float_value

; 705  : 
; 706  : 	fn_get_local_entity_float_value				[type][FLOAT_TYPE_CHASE_VIEW_MIN_DISTANCE]								= get_local_float_value;

  001a2	69 45 08 bc 02
	00 00		 imul	 eax, DWORD PTR _type$[ebp], 700
  001a9	b9 04 00 00 00	 mov	 ecx, 4
  001ae	6b d1 15	 imul	 edx, ecx, 21
  001b1	c7 84 10 00 00
	00 00 00 00 00
	00		 mov	 DWORD PTR ?fn_get_local_entity_float_value@@3PAY0KP@P6GMPAUENTITY@@W4FLOAT_TYPES@@@ZA[eax+edx], OFFSET ?get_local_float_value@@YGMPAUENTITY@@W4FLOAT_TYPES@@@Z ; get_local_float_value

; 707  : 
; 708  : 	fn_get_local_entity_float_value				[type][FLOAT_TYPE_CHASE_VIEW_MIN_DISTANCE_TEST]							= get_local_float_value;

  001bc	69 45 08 bc 02
	00 00		 imul	 eax, DWORD PTR _type$[ebp], 700
  001c3	b9 04 00 00 00	 mov	 ecx, 4
  001c8	6b d1 16	 imul	 edx, ecx, 22
  001cb	c7 84 10 00 00
	00 00 00 00 00
	00		 mov	 DWORD PTR ?fn_get_local_entity_float_value@@3PAY0KP@P6GMPAUENTITY@@W4FLOAT_TYPES@@@ZA[eax+edx], OFFSET ?get_local_float_value@@YGMPAUENTITY@@W4FLOAT_TYPES@@@Z ; get_local_float_value

; 709  : 
; 710  : 	fn_get_local_entity_float_value				[type][FLOAT_TYPE_CRUISE_ALTITUDE]											= get_local_float_value;

  001d6	69 45 08 bc 02
	00 00		 imul	 eax, DWORD PTR _type$[ebp], 700
  001dd	b9 04 00 00 00	 mov	 ecx, 4
  001e2	6b d1 18	 imul	 edx, ecx, 24
  001e5	c7 84 10 00 00
	00 00 00 00 00
	00		 mov	 DWORD PTR ?fn_get_local_entity_float_value@@3PAY0KP@P6GMPAUENTITY@@W4FLOAT_TYPES@@@ZA[eax+edx], OFFSET ?get_local_float_value@@YGMPAUENTITY@@W4FLOAT_TYPES@@@Z ; get_local_float_value

; 711  : 
; 712  : 	fn_get_local_entity_float_value				[type][FLOAT_TYPE_CRUISE_VELOCITY]											= get_local_float_value;

  001f0	69 45 08 bc 02
	00 00		 imul	 eax, DWORD PTR _type$[ebp], 700
  001f7	b9 04 00 00 00	 mov	 ecx, 4
  001fc	6b d1 19	 imul	 edx, ecx, 25
  001ff	c7 84 10 00 00
	00 00 00 00 00
	00		 mov	 DWORD PTR ?fn_get_local_entity_float_value@@3PAY0KP@P6GMPAUENTITY@@W4FLOAT_TYPES@@@ZA[eax+edx], OFFSET ?get_local_float_value@@YGMPAUENTITY@@W4FLOAT_TYPES@@@Z ; get_local_float_value

; 713  : 
; 714  : 	fn_set_local_entity_raw_float_value			[type][FLOAT_TYPE_DEATH_TIMER]												= set_local_float_value;

  0020a	69 45 08 bc 02
	00 00		 imul	 eax, DWORD PTR _type$[ebp], 700
  00211	b9 04 00 00 00	 mov	 ecx, 4
  00216	6b d1 1b	 imul	 edx, ecx, 27
  00219	c7 84 10 00 00
	00 00 00 00 00
	00		 mov	 DWORD PTR ?fn_set_local_entity_raw_float_value@@3PAY0KP@P6GXPAUENTITY@@W4FLOAT_TYPES@@M@ZA[eax+edx], OFFSET ?set_local_float_value@@YGXPAUENTITY@@W4FLOAT_TYPES@@M@Z ; set_local_float_value

; 715  : 	fn_set_local_entity_float_value				[type][FLOAT_TYPE_DEATH_TIMER]												= set_local_float_value;

  00224	69 45 08 bc 02
	00 00		 imul	 eax, DWORD PTR _type$[ebp], 700
  0022b	b9 04 00 00 00	 mov	 ecx, 4
  00230	6b d1 1b	 imul	 edx, ecx, 27
  00233	c7 84 10 00 00
	00 00 00 00 00
	00		 mov	 DWORD PTR ?fn_set_local_entity_float_value@@3PAY0KP@P6GXPAUENTITY@@W4FLOAT_TYPES@@M@ZA[eax+edx], OFFSET ?set_local_float_value@@YGXPAUENTITY@@W4FLOAT_TYPES@@M@Z ; set_local_float_value

; 716  : 	fn_set_client_server_entity_float_value	[type][FLOAT_TYPE_DEATH_TIMER][COMMS_MODEL_SERVER]						= set_server_float_value;

  0023e	69 45 08 78 05
	00 00		 imul	 eax, DWORD PTR _type$[ebp], 1400
  00245	b9 08 00 00 00	 mov	 ecx, 8
  0024a	6b d1 1b	 imul	 edx, ecx, 27
  0024d	8d 84 10 00 00
	00 00		 lea	 eax, DWORD PTR ?fn_set_client_server_entity_float_value@@3PAY1KP@1P6GXPAUENTITY@@W4FLOAT_TYPES@@M@ZA[eax+edx]
  00254	b9 04 00 00 00	 mov	 ecx, 4
  00259	6b d1 00	 imul	 edx, ecx, 0
  0025c	c7 04 10 00 00
	00 00		 mov	 DWORD PTR [eax+edx], OFFSET ?set_server_float_value@@YGXPAUENTITY@@W4FLOAT_TYPES@@M@Z ; set_server_float_value

; 717  : 	fn_set_client_server_entity_float_value	[type][FLOAT_TYPE_DEATH_TIMER][COMMS_MODEL_CLIENT]						= set_client_float_value;

  00263	69 45 08 78 05
	00 00		 imul	 eax, DWORD PTR _type$[ebp], 1400
  0026a	b9 08 00 00 00	 mov	 ecx, 8
  0026f	6b d1 1b	 imul	 edx, ecx, 27
  00272	8d 84 10 00 00
	00 00		 lea	 eax, DWORD PTR ?fn_set_client_server_entity_float_value@@3PAY1KP@1P6GXPAUENTITY@@W4FLOAT_TYPES@@M@ZA[eax+edx]
  00279	b9 04 00 00 00	 mov	 ecx, 4
  0027e	c1 e1 00	 shl	 ecx, 0
  00281	c7 04 08 00 00
	00 00		 mov	 DWORD PTR [eax+ecx], OFFSET ?set_client_float_value@@YGXPAUENTITY@@W4FLOAT_TYPES@@M@Z ; set_client_float_value

; 718  : 	fn_get_local_entity_float_value				[type][FLOAT_TYPE_DEATH_TIMER]												= get_local_float_value;

  00288	69 45 08 bc 02
	00 00		 imul	 eax, DWORD PTR _type$[ebp], 700
  0028f	b9 04 00 00 00	 mov	 ecx, 4
  00294	6b d1 1b	 imul	 edx, ecx, 27
  00297	c7 84 10 00 00
	00 00 00 00 00
	00		 mov	 DWORD PTR ?fn_get_local_entity_float_value@@3PAY0KP@P6GMPAUENTITY@@W4FLOAT_TYPES@@@ZA[eax+edx], OFFSET ?get_local_float_value@@YGMPAUENTITY@@W4FLOAT_TYPES@@@Z ; get_local_float_value

; 719  : 
; 720  : 	fn_set_local_entity_raw_float_value			[type][FLOAT_TYPE_DISTANCE]													= set_local_float_value;

  002a2	69 45 08 bc 02
	00 00		 imul	 eax, DWORD PTR _type$[ebp], 700
  002a9	b9 04 00 00 00	 mov	 ecx, 4
  002ae	6b d1 1f	 imul	 edx, ecx, 31
  002b1	c7 84 10 00 00
	00 00 00 00 00
	00		 mov	 DWORD PTR ?fn_set_local_entity_raw_float_value@@3PAY0KP@P6GXPAUENTITY@@W4FLOAT_TYPES@@M@ZA[eax+edx], OFFSET ?set_local_float_value@@YGXPAUENTITY@@W4FLOAT_TYPES@@M@Z ; set_local_float_value

; 721  : 	fn_set_local_entity_float_value				[type][FLOAT_TYPE_DISTANCE]													= set_local_float_value;

  002bc	69 45 08 bc 02
	00 00		 imul	 eax, DWORD PTR _type$[ebp], 700
  002c3	b9 04 00 00 00	 mov	 ecx, 4
  002c8	6b d1 1f	 imul	 edx, ecx, 31
  002cb	c7 84 10 00 00
	00 00 00 00 00
	00		 mov	 DWORD PTR ?fn_set_local_entity_float_value@@3PAY0KP@P6GXPAUENTITY@@W4FLOAT_TYPES@@M@ZA[eax+edx], OFFSET ?set_local_float_value@@YGXPAUENTITY@@W4FLOAT_TYPES@@M@Z ; set_local_float_value

; 722  : 	fn_set_client_server_entity_float_value	[type][FLOAT_TYPE_DISTANCE][COMMS_MODEL_SERVER]							= set_server_float_value;

  002d6	69 45 08 78 05
	00 00		 imul	 eax, DWORD PTR _type$[ebp], 1400
  002dd	b9 08 00 00 00	 mov	 ecx, 8
  002e2	6b d1 1f	 imul	 edx, ecx, 31
  002e5	8d 84 10 00 00
	00 00		 lea	 eax, DWORD PTR ?fn_set_client_server_entity_float_value@@3PAY1KP@1P6GXPAUENTITY@@W4FLOAT_TYPES@@M@ZA[eax+edx]
  002ec	b9 04 00 00 00	 mov	 ecx, 4
  002f1	6b d1 00	 imul	 edx, ecx, 0
  002f4	c7 04 10 00 00
	00 00		 mov	 DWORD PTR [eax+edx], OFFSET ?set_server_float_value@@YGXPAUENTITY@@W4FLOAT_TYPES@@M@Z ; set_server_float_value

; 723  : 	fn_set_client_server_entity_float_value	[type][FLOAT_TYPE_DISTANCE][COMMS_MODEL_CLIENT]							= set_client_float_value;

  002fb	69 45 08 78 05
	00 00		 imul	 eax, DWORD PTR _type$[ebp], 1400
  00302	b9 08 00 00 00	 mov	 ecx, 8
  00307	6b d1 1f	 imul	 edx, ecx, 31
  0030a	8d 84 10 00 00
	00 00		 lea	 eax, DWORD PTR ?fn_set_client_server_entity_float_value@@3PAY1KP@1P6GXPAUENTITY@@W4FLOAT_TYPES@@M@ZA[eax+edx]
  00311	b9 04 00 00 00	 mov	 ecx, 4
  00316	c1 e1 00	 shl	 ecx, 0
  00319	c7 04 08 00 00
	00 00		 mov	 DWORD PTR [eax+ecx], OFFSET ?set_client_float_value@@YGXPAUENTITY@@W4FLOAT_TYPES@@M@Z ; set_client_float_value

; 724  : 	fn_get_local_entity_float_value				[type][FLOAT_TYPE_DISTANCE]													= get_local_float_value;

  00320	69 45 08 bc 02
	00 00		 imul	 eax, DWORD PTR _type$[ebp], 700
  00327	b9 04 00 00 00	 mov	 ecx, 4
  0032c	6b d1 1f	 imul	 edx, ecx, 31
  0032f	c7 84 10 00 00
	00 00 00 00 00
	00		 mov	 DWORD PTR ?fn_get_local_entity_float_value@@3PAY0KP@P6GMPAUENTITY@@W4FLOAT_TYPES@@@ZA[eax+edx], OFFSET ?get_local_float_value@@YGMPAUENTITY@@W4FLOAT_TYPES@@@Z ; get_local_float_value

; 725  : 
; 726  : 	fn_get_local_entity_float_value				[type][FLOAT_TYPE_FUEL_DEFAULT_WEIGHT]										= get_local_float_value;

  0033a	69 45 08 bc 02
	00 00		 imul	 eax, DWORD PTR _type$[ebp], 700
  00341	b9 04 00 00 00	 mov	 ecx, 4
  00346	6b d1 2e	 imul	 edx, ecx, 46
  00349	c7 84 10 00 00
	00 00 00 00 00
	00		 mov	 DWORD PTR ?fn_get_local_entity_float_value@@3PAY0KP@P6GMPAUENTITY@@W4FLOAT_TYPES@@@ZA[eax+edx], OFFSET ?get_local_float_value@@YGMPAUENTITY@@W4FLOAT_TYPES@@@Z ; get_local_float_value

; 727  : 
; 728  : 	fn_get_local_entity_float_value				[type][FLOAT_TYPE_FUEL_ECONOMY]												= get_local_float_value;

  00354	69 45 08 bc 02
	00 00		 imul	 eax, DWORD PTR _type$[ebp], 700
  0035b	b9 04 00 00 00	 mov	 ecx, 4
  00360	6b d1 2f	 imul	 edx, ecx, 47
  00363	c7 84 10 00 00
	00 00 00 00 00
	00		 mov	 DWORD PTR ?fn_get_local_entity_float_value@@3PAY0KP@P6GMPAUENTITY@@W4FLOAT_TYPES@@@ZA[eax+edx], OFFSET ?get_local_float_value@@YGMPAUENTITY@@W4FLOAT_TYPES@@@Z ; get_local_float_value

; 729  : 
; 730  : 	fn_get_local_entity_float_value				[type][FLOAT_TYPE_FUSELAGE_ANGLE]											= get_local_float_value;

  0036e	69 45 08 bc 02
	00 00		 imul	 eax, DWORD PTR _type$[ebp], 700
  00375	b9 04 00 00 00	 mov	 ecx, 4
  0037a	6b d1 31	 imul	 edx, ecx, 49
  0037d	c7 84 10 00 00
	00 00 00 00 00
	00		 mov	 DWORD PTR ?fn_get_local_entity_float_value@@3PAY0KP@P6GMPAUENTITY@@W4FLOAT_TYPES@@@ZA[eax+edx], OFFSET ?get_local_float_value@@YGMPAUENTITY@@W4FLOAT_TYPES@@@Z ; get_local_float_value

; 731  : 
; 732  : 	fn_set_local_entity_raw_float_value			[type][FLOAT_TYPE_LOADING_DOOR_STATE]										= set_local_float_value;

  00388	69 45 08 bc 02
	00 00		 imul	 eax, DWORD PTR _type$[ebp], 700
  0038f	b9 04 00 00 00	 mov	 ecx, 4
  00394	6b d1 3f	 imul	 edx, ecx, 63
  00397	c7 84 10 00 00
	00 00 00 00 00
	00		 mov	 DWORD PTR ?fn_set_local_entity_raw_float_value@@3PAY0KP@P6GXPAUENTITY@@W4FLOAT_TYPES@@M@ZA[eax+edx], OFFSET ?set_local_float_value@@YGXPAUENTITY@@W4FLOAT_TYPES@@M@Z ; set_local_float_value

; 733  : 	fn_set_local_entity_float_value				[type][FLOAT_TYPE_LOADING_DOOR_STATE]										= set_local_float_value;

  003a2	69 45 08 bc 02
	00 00		 imul	 eax, DWORD PTR _type$[ebp], 700
  003a9	b9 04 00 00 00	 mov	 ecx, 4
  003ae	6b d1 3f	 imul	 edx, ecx, 63
  003b1	c7 84 10 00 00
	00 00 00 00 00
	00		 mov	 DWORD PTR ?fn_set_local_entity_float_value@@3PAY0KP@P6GXPAUENTITY@@W4FLOAT_TYPES@@M@ZA[eax+edx], OFFSET ?set_local_float_value@@YGXPAUENTITY@@W4FLOAT_TYPES@@M@Z ; set_local_float_value

; 734  : 	fn_set_client_server_entity_float_value	[type][FLOAT_TYPE_LOADING_DOOR_STATE][COMMS_MODEL_SERVER]			= set_server_float_value;

  003bc	69 45 08 78 05
	00 00		 imul	 eax, DWORD PTR _type$[ebp], 1400
  003c3	b9 08 00 00 00	 mov	 ecx, 8
  003c8	6b d1 3f	 imul	 edx, ecx, 63
  003cb	8d 84 10 00 00
	00 00		 lea	 eax, DWORD PTR ?fn_set_client_server_entity_float_value@@3PAY1KP@1P6GXPAUENTITY@@W4FLOAT_TYPES@@M@ZA[eax+edx]
  003d2	b9 04 00 00 00	 mov	 ecx, 4
  003d7	6b d1 00	 imul	 edx, ecx, 0
  003da	c7 04 10 00 00
	00 00		 mov	 DWORD PTR [eax+edx], OFFSET ?set_server_float_value@@YGXPAUENTITY@@W4FLOAT_TYPES@@M@Z ; set_server_float_value

; 735  : 	fn_set_client_server_entity_float_value	[type][FLOAT_TYPE_LOADING_DOOR_STATE][COMMS_MODEL_CLIENT]			= set_client_float_value;

  003e1	69 45 08 78 05
	00 00		 imul	 eax, DWORD PTR _type$[ebp], 1400
  003e8	b9 08 00 00 00	 mov	 ecx, 8
  003ed	6b d1 3f	 imul	 edx, ecx, 63
  003f0	8d 84 10 00 00
	00 00		 lea	 eax, DWORD PTR ?fn_set_client_server_entity_float_value@@3PAY1KP@1P6GXPAUENTITY@@W4FLOAT_TYPES@@M@ZA[eax+edx]
  003f7	b9 04 00 00 00	 mov	 ecx, 4
  003fc	c1 e1 00	 shl	 ecx, 0
  003ff	c7 04 08 00 00
	00 00		 mov	 DWORD PTR [eax+ecx], OFFSET ?set_client_float_value@@YGXPAUENTITY@@W4FLOAT_TYPES@@M@Z ; set_client_float_value

; 736  : 	fn_get_local_entity_float_value				[type][FLOAT_TYPE_LOADING_DOOR_STATE]										= get_local_float_value;

  00406	69 45 08 bc 02
	00 00		 imul	 eax, DWORD PTR _type$[ebp], 700
  0040d	b9 04 00 00 00	 mov	 ecx, 4
  00412	6b d1 3f	 imul	 edx, ecx, 63
  00415	c7 84 10 00 00
	00 00 00 00 00
	00		 mov	 DWORD PTR ?fn_get_local_entity_float_value@@3PAY0KP@P6GMPAUENTITY@@W4FLOAT_TYPES@@@ZA[eax+edx], OFFSET ?get_local_float_value@@YGMPAUENTITY@@W4FLOAT_TYPES@@@Z ; get_local_float_value

; 737  : 
; 738  : 	fn_get_local_entity_float_value				[type][FLOAT_TYPE_MAIN_ROTOR_DIRECTION]									= get_local_float_value;

  00420	69 45 08 bc 02
	00 00		 imul	 eax, DWORD PTR _type$[ebp], 700
  00427	b9 04 00 00 00	 mov	 ecx, 4
  0042c	6b d1 43	 imul	 edx, ecx, 67
  0042f	c7 84 10 00 00
	00 00 00 00 00
	00		 mov	 DWORD PTR ?fn_get_local_entity_float_value@@3PAY0KP@P6GMPAUENTITY@@W4FLOAT_TYPES@@@ZA[eax+edx], OFFSET ?get_local_float_value@@YGMPAUENTITY@@W4FLOAT_TYPES@@@Z ; get_local_float_value

; 739  : 
; 740  : 	fn_get_local_entity_float_value				[type][FLOAT_TYPE_MAIN_ROTOR_BLADE_DROOP_ANGLE]							= get_local_float_value;

  0043a	69 45 08 bc 02
	00 00		 imul	 eax, DWORD PTR _type$[ebp], 700
  00441	b9 04 00 00 00	 mov	 ecx, 4
  00446	6b d1 44	 imul	 edx, ecx, 68
  00449	c7 84 10 00 00
	00 00 00 00 00
	00		 mov	 DWORD PTR ?fn_get_local_entity_float_value@@3PAY0KP@P6GMPAUENTITY@@W4FLOAT_TYPES@@@ZA[eax+edx], OFFSET ?get_local_float_value@@YGMPAUENTITY@@W4FLOAT_TYPES@@@Z ; get_local_float_value

; 741  : 
; 742  : 	// Xhit added following function for downwash effect 030328
; 743  : 	fn_get_local_entity_float_value				[type][FLOAT_TYPE_MAIN_ROTOR_RADIUS]									= get_local_float_value;

  00454	69 45 08 bc 02
	00 00		 imul	 eax, DWORD PTR _type$[ebp], 700
  0045b	b9 04 00 00 00	 mov	 ecx, 4
  00460	6b d1 46	 imul	 edx, ecx, 70
  00463	c7 84 10 00 00
	00 00 00 00 00
	00		 mov	 DWORD PTR ?fn_get_local_entity_float_value@@3PAY0KP@P6GMPAUENTITY@@W4FLOAT_TYPES@@@ZA[eax+edx], OFFSET ?get_local_float_value@@YGMPAUENTITY@@W4FLOAT_TYPES@@@Z ; get_local_float_value

; 744  : 
; 745  : 	fn_get_local_entity_float_value				[type][FLOAT_TYPE_MAIN_ROTOR_SHAFT_ANGLE]									= get_local_float_value;

  0046e	69 45 08 bc 02
	00 00		 imul	 eax, DWORD PTR _type$[ebp], 700
  00475	b9 04 00 00 00	 mov	 ecx, 4
  0047a	6b d1 49	 imul	 edx, ecx, 73
  0047d	c7 84 10 00 00
	00 00 00 00 00
	00		 mov	 DWORD PTR ?fn_get_local_entity_float_value@@3PAY0KP@P6GMPAUENTITY@@W4FLOAT_TYPES@@@ZA[eax+edx], OFFSET ?get_local_float_value@@YGMPAUENTITY@@W4FLOAT_TYPES@@@Z ; get_local_float_value

; 746  : 
; 747  : 	fn_get_local_entity_float_value				[type][FLOAT_TYPE_MAX_3D_OBJECT_VISUAL_RANGE]							= get_local_float_value;

  00488	69 45 08 bc 02
	00 00		 imul	 eax, DWORD PTR _type$[ebp], 700
  0048f	b9 04 00 00 00	 mov	 ecx, 4
  00494	6b d1 4b	 imul	 edx, ecx, 75
  00497	c7 84 10 00 00
	00 00 00 00 00
	00		 mov	 DWORD PTR ?fn_get_local_entity_float_value@@3PAY0KP@P6GMPAUENTITY@@W4FLOAT_TYPES@@@ZA[eax+edx], OFFSET ?get_local_float_value@@YGMPAUENTITY@@W4FLOAT_TYPES@@@Z ; get_local_float_value

; 748  : 
; 749  : 	fn_get_local_entity_float_value				[type][FLOAT_TYPE_MAX_TURN_RATE]												= get_local_float_value;

  004a2	69 45 08 bc 02
	00 00		 imul	 eax, DWORD PTR _type$[ebp], 700
  004a9	b9 04 00 00 00	 mov	 ecx, 4
  004ae	6b d1 4d	 imul	 edx, ecx, 77
  004b1	c7 84 10 00 00
	00 00 00 00 00
	00		 mov	 DWORD PTR ?fn_get_local_entity_float_value@@3PAY0KP@P6GMPAUENTITY@@W4FLOAT_TYPES@@@ZA[eax+edx], OFFSET ?get_local_float_value@@YGMPAUENTITY@@W4FLOAT_TYPES@@@Z ; get_local_float_value

; 750  : 
; 751  : 	fn_get_local_entity_float_value				[type][FLOAT_TYPE_MAX_ROLL]													= get_local_float_value;

  004bc	69 45 08 bc 02
	00 00		 imul	 eax, DWORD PTR _type$[ebp], 700
  004c3	b9 04 00 00 00	 mov	 ecx, 4
  004c8	6b d1 4e	 imul	 edx, ecx, 78
  004cb	c7 84 10 00 00
	00 00 00 00 00
	00		 mov	 DWORD PTR ?fn_get_local_entity_float_value@@3PAY0KP@P6GMPAUENTITY@@W4FLOAT_TYPES@@@ZA[eax+edx], OFFSET ?get_local_float_value@@YGMPAUENTITY@@W4FLOAT_TYPES@@@Z ; get_local_float_value

; 752  : 
; 753  : 	fn_get_local_entity_float_value				[type][FLOAT_TYPE_MAX_VERTICAL_TURN_ALLOWANCE]							= get_local_float_value;

  004d6	69 45 08 bc 02
	00 00		 imul	 eax, DWORD PTR _type$[ebp], 700
  004dd	b9 04 00 00 00	 mov	 ecx, 4
  004e2	6b d1 4f	 imul	 edx, ecx, 79
  004e5	c7 84 10 00 00
	00 00 00 00 00
	00		 mov	 DWORD PTR ?fn_get_local_entity_float_value@@3PAY0KP@P6GMPAUENTITY@@W4FLOAT_TYPES@@@ZA[eax+edx], OFFSET ?get_local_float_value@@YGMPAUENTITY@@W4FLOAT_TYPES@@@Z ; get_local_float_value

; 754  : 
; 755  : 	// Xhit added following function for downwash effect 030328
; 756  : 	fn_get_local_entity_float_value				[type][FLOAT_TYPE_NUMBER_OF_MAIN_ROTORS]									= get_local_float_value;

  004f0	69 45 08 bc 02
	00 00		 imul	 eax, DWORD PTR _type$[ebp], 700
  004f7	b9 04 00 00 00	 mov	 ecx, 4
  004fc	6b d1 52	 imul	 edx, ecx, 82
  004ff	c7 84 10 00 00
	00 00 00 00 00
	00		 mov	 DWORD PTR ?fn_get_local_entity_float_value@@3PAY0KP@P6GMPAUENTITY@@W4FLOAT_TYPES@@@ZA[eax+edx], OFFSET ?get_local_float_value@@YGMPAUENTITY@@W4FLOAT_TYPES@@@Z ; get_local_float_value

; 757  : 
; 758  : 	fn_get_local_entity_float_value				[type][FLOAT_TYPE_POTENTIAL_AIR_THREAT]									= get_local_float_value;

  0050a	69 45 08 bc 02
	00 00		 imul	 eax, DWORD PTR _type$[ebp], 700
  00511	b9 04 00 00 00	 mov	 ecx, 4
  00516	6b d1 5b	 imul	 edx, ecx, 91
  00519	c7 84 10 00 00
	00 00 00 00 00
	00		 mov	 DWORD PTR ?fn_get_local_entity_float_value@@3PAY0KP@P6GMPAUENTITY@@W4FLOAT_TYPES@@@ZA[eax+edx], OFFSET ?get_local_float_value@@YGMPAUENTITY@@W4FLOAT_TYPES@@@Z ; get_local_float_value

; 759  : 
; 760  : 	fn_get_local_entity_float_value				[type][FLOAT_TYPE_POTENTIAL_AIR_TO_AIR_THREAT]							= get_local_float_value;

  00524	69 45 08 bc 02
	00 00		 imul	 eax, DWORD PTR _type$[ebp], 700
  0052b	b9 04 00 00 00	 mov	 ecx, 4
  00530	6b d1 5c	 imul	 edx, ecx, 92
  00533	c7 84 10 00 00
	00 00 00 00 00
	00		 mov	 DWORD PTR ?fn_get_local_entity_float_value@@3PAY0KP@P6GMPAUENTITY@@W4FLOAT_TYPES@@@ZA[eax+edx], OFFSET ?get_local_float_value@@YGMPAUENTITY@@W4FLOAT_TYPES@@@Z ; get_local_float_value

; 761  : 
; 762  : 	fn_get_local_entity_float_value				[type][FLOAT_TYPE_POTENTIAL_AIR_TO_SURFACE_THREAT]	  					= get_local_float_value;

  0053e	69 45 08 bc 02
	00 00		 imul	 eax, DWORD PTR _type$[ebp], 700
  00545	b9 04 00 00 00	 mov	 ecx, 4
  0054a	6b d1 5d	 imul	 edx, ecx, 93
  0054d	c7 84 10 00 00
	00 00 00 00 00
	00		 mov	 DWORD PTR ?fn_get_local_entity_float_value@@3PAY0KP@P6GMPAUENTITY@@W4FLOAT_TYPES@@@ZA[eax+edx], OFFSET ?get_local_float_value@@YGMPAUENTITY@@W4FLOAT_TYPES@@@Z ; get_local_float_value

; 763  : 
; 764  : 	fn_get_local_entity_float_value				[type][FLOAT_TYPE_POTENTIAL_SURFACE_THREAT]	  							= get_local_float_value;

  00558	69 45 08 bc 02
	00 00		 imul	 eax, DWORD PTR _type$[ebp], 700
  0055f	b9 04 00 00 00	 mov	 ecx, 4
  00564	6b d1 5e	 imul	 edx, ecx, 94
  00567	c7 84 10 00 00
	00 00 00 00 00
	00		 mov	 DWORD PTR ?fn_get_local_entity_float_value@@3PAY0KP@P6GMPAUENTITY@@W4FLOAT_TYPES@@@ZA[eax+edx], OFFSET ?get_local_float_value@@YGMPAUENTITY@@W4FLOAT_TYPES@@@Z ; get_local_float_value

; 765  : 
; 766  : 	fn_get_local_entity_float_value				[type][FLOAT_TYPE_PROPELLOR_DIRECTION]										= get_local_float_value;

  00572	69 45 08 bc 02
	00 00		 imul	 eax, DWORD PTR _type$[ebp], 700
  00579	b9 04 00 00 00	 mov	 ecx, 4
  0057e	6b d1 62	 imul	 edx, ecx, 98
  00581	c7 84 10 00 00
	00 00 00 00 00
	00		 mov	 DWORD PTR ?fn_get_local_entity_float_value@@3PAY0KP@P6GMPAUENTITY@@W4FLOAT_TYPES@@@ZA[eax+edx], OFFSET ?get_local_float_value@@YGMPAUENTITY@@W4FLOAT_TYPES@@@Z ; get_local_float_value

; 767  : 
; 768  : 	fn_get_local_entity_float_value				[type][FLOAT_TYPE_RADAR_ALTITUDE]											= get_local_float_value;

  0058c	69 45 08 bc 02
	00 00		 imul	 eax, DWORD PTR _type$[ebp], 700
  00593	b9 04 00 00 00	 mov	 ecx, 4
  00598	6b d1 68	 imul	 edx, ecx, 104
  0059b	c7 84 10 00 00
	00 00 00 00 00
	00		 mov	 DWORD PTR ?fn_get_local_entity_float_value@@3PAY0KP@P6GMPAUENTITY@@W4FLOAT_TYPES@@@ZA[eax+edx], OFFSET ?get_local_float_value@@YGMPAUENTITY@@W4FLOAT_TYPES@@@Z ; get_local_float_value

; 769  : 
; 770  : 	fn_get_local_entity_float_value				[type][FLOAT_TYPE_RECON_RADIUS]												= get_local_float_value;

  005a6	69 45 08 bc 02
	00 00		 imul	 eax, DWORD PTR _type$[ebp], 700
  005ad	b9 04 00 00 00	 mov	 ecx, 4
  005b2	6b d1 6f	 imul	 edx, ecx, 111
  005b5	c7 84 10 00 00
	00 00 00 00 00
	00		 mov	 DWORD PTR ?fn_get_local_entity_float_value@@3PAY0KP@P6GMPAUENTITY@@W4FLOAT_TYPES@@@ZA[eax+edx], OFFSET ?get_local_float_value@@YGMPAUENTITY@@W4FLOAT_TYPES@@@Z ; get_local_float_value

; 771  : 
; 772  : 	fn_set_local_entity_raw_float_value  		[type][FLOAT_TYPE_RUDDER_STATE]												= set_local_float_value;

  005c0	69 45 08 bc 02
	00 00		 imul	 eax, DWORD PTR _type$[ebp], 700
  005c7	b9 04 00 00 00	 mov	 ecx, 4
  005cc	6b d1 72	 imul	 edx, ecx, 114
  005cf	c7 84 10 00 00
	00 00 00 00 00
	00		 mov	 DWORD PTR ?fn_set_local_entity_raw_float_value@@3PAY0KP@P6GXPAUENTITY@@W4FLOAT_TYPES@@M@ZA[eax+edx], OFFSET ?set_local_float_value@@YGXPAUENTITY@@W4FLOAT_TYPES@@M@Z ; set_local_float_value

; 773  : 	fn_set_local_entity_float_value				[type][FLOAT_TYPE_RUDDER_STATE]												= set_local_float_value;

  005da	69 45 08 bc 02
	00 00		 imul	 eax, DWORD PTR _type$[ebp], 700
  005e1	b9 04 00 00 00	 mov	 ecx, 4
  005e6	6b d1 72	 imul	 edx, ecx, 114
  005e9	c7 84 10 00 00
	00 00 00 00 00
	00		 mov	 DWORD PTR ?fn_set_local_entity_float_value@@3PAY0KP@P6GXPAUENTITY@@W4FLOAT_TYPES@@M@ZA[eax+edx], OFFSET ?set_local_float_value@@YGXPAUENTITY@@W4FLOAT_TYPES@@M@Z ; set_local_float_value

; 774  : 	fn_set_client_server_entity_float_value	[type][FLOAT_TYPE_RUDDER_STATE][COMMS_MODEL_SERVER]					= set_server_float_value;

  005f4	69 45 08 78 05
	00 00		 imul	 eax, DWORD PTR _type$[ebp], 1400
  005fb	b9 08 00 00 00	 mov	 ecx, 8
  00600	6b d1 72	 imul	 edx, ecx, 114
  00603	8d 84 10 00 00
	00 00		 lea	 eax, DWORD PTR ?fn_set_client_server_entity_float_value@@3PAY1KP@1P6GXPAUENTITY@@W4FLOAT_TYPES@@M@ZA[eax+edx]
  0060a	b9 04 00 00 00	 mov	 ecx, 4
  0060f	6b d1 00	 imul	 edx, ecx, 0
  00612	c7 04 10 00 00
	00 00		 mov	 DWORD PTR [eax+edx], OFFSET ?set_server_float_value@@YGXPAUENTITY@@W4FLOAT_TYPES@@M@Z ; set_server_float_value

; 775  : 	fn_set_client_server_entity_float_value	[type][FLOAT_TYPE_RUDDER_STATE][COMMS_MODEL_CLIENT]					= set_client_float_value;

  00619	69 45 08 78 05
	00 00		 imul	 eax, DWORD PTR _type$[ebp], 1400
  00620	b9 08 00 00 00	 mov	 ecx, 8
  00625	6b d1 72	 imul	 edx, ecx, 114
  00628	8d 84 10 00 00
	00 00		 lea	 eax, DWORD PTR ?fn_set_client_server_entity_float_value@@3PAY1KP@1P6GXPAUENTITY@@W4FLOAT_TYPES@@M@ZA[eax+edx]
  0062f	b9 04 00 00 00	 mov	 ecx, 4
  00634	c1 e1 00	 shl	 ecx, 0
  00637	c7 04 08 00 00
	00 00		 mov	 DWORD PTR [eax+ecx], OFFSET ?set_client_float_value@@YGXPAUENTITY@@W4FLOAT_TYPES@@M@Z ; set_client_float_value

; 776  : 	fn_get_local_entity_float_value				[type][FLOAT_TYPE_RUDDER_STATE]												= get_local_float_value;

  0063e	69 45 08 bc 02
	00 00		 imul	 eax, DWORD PTR _type$[ebp], 700
  00645	b9 04 00 00 00	 mov	 ecx, 4
  0064a	6b d1 72	 imul	 edx, ecx, 114
  0064d	c7 84 10 00 00
	00 00 00 00 00
	00		 mov	 DWORD PTR ?fn_get_local_entity_float_value@@3PAY0KP@P6GMPAUENTITY@@W4FLOAT_TYPES@@@ZA[eax+edx], OFFSET ?get_local_float_value@@YGMPAUENTITY@@W4FLOAT_TYPES@@@Z ; get_local_float_value

; 777  : 
; 778  : 	fn_get_local_entity_float_value				[type][FLOAT_TYPE_SURFACE_SCAN_RANGE]		 								= get_local_float_value;

  00658	69 45 08 bc 02
	00 00		 imul	 eax, DWORD PTR _type$[ebp], 700
  0065f	b9 04 00 00 00	 mov	 ecx, 4
  00664	6b d1 7f	 imul	 edx, ecx, 127
  00667	c7 84 10 00 00
	00 00 00 00 00
	00		 mov	 DWORD PTR ?fn_get_local_entity_float_value@@3PAY0KP@P6GMPAUENTITY@@W4FLOAT_TYPES@@@ZA[eax+edx], OFFSET ?get_local_float_value@@YGMPAUENTITY@@W4FLOAT_TYPES@@@Z ; get_local_float_value

; 779  : 
; 780  : 	fn_get_local_entity_float_value				[type][FLOAT_TYPE_TAIL_ROTOR_DIRECTION]									= get_local_float_value;

  00672	69 45 08 bc 02
	00 00		 imul	 eax, DWORD PTR _type$[ebp], 700
  00679	b9 04 00 00 00	 mov	 ecx, 4
  0067e	c1 e1 07	 shl	 ecx, 7
  00681	c7 84 08 00 00
	00 00 00 00 00
	00		 mov	 DWORD PTR ?fn_get_local_entity_float_value@@3PAY0KP@P6GMPAUENTITY@@W4FLOAT_TYPES@@@ZA[eax+ecx], OFFSET ?get_local_float_value@@YGMPAUENTITY@@W4FLOAT_TYPES@@@Z ; get_local_float_value

; 781  : 
; 782  : 	fn_get_local_entity_float_value				[type][FLOAT_TYPE_TARGET_PRIORITY_AIR_ATTACK]	  						= get_local_float_value;

  0068c	69 45 08 bc 02
	00 00		 imul	 eax, DWORD PTR _type$[ebp], 700
  00693	b9 04 00 00 00	 mov	 ecx, 4
  00698	69 d1 84 00 00
	00		 imul	 edx, ecx, 132
  0069e	c7 84 10 00 00
	00 00 00 00 00
	00		 mov	 DWORD PTR ?fn_get_local_entity_float_value@@3PAY0KP@P6GMPAUENTITY@@W4FLOAT_TYPES@@@ZA[eax+edx], OFFSET ?get_local_float_value@@YGMPAUENTITY@@W4FLOAT_TYPES@@@Z ; get_local_float_value

; 783  : 
; 784  : 	fn_get_local_entity_float_value				[type][FLOAT_TYPE_TARGET_PRIORITY_GROUND_ATTACK]						= get_local_float_value;

  006a9	69 45 08 bc 02
	00 00		 imul	 eax, DWORD PTR _type$[ebp], 700
  006b0	b9 04 00 00 00	 mov	 ecx, 4
  006b5	69 d1 85 00 00
	00		 imul	 edx, ecx, 133
  006bb	c7 84 10 00 00
	00 00 00 00 00
	00		 mov	 DWORD PTR ?fn_get_local_entity_float_value@@3PAY0KP@P6GMPAUENTITY@@W4FLOAT_TYPES@@@ZA[eax+edx], OFFSET ?get_local_float_value@@YGMPAUENTITY@@W4FLOAT_TYPES@@@Z ; get_local_float_value

; 785  : 
; 786  : 	fn_get_local_entity_float_value				[type][FLOAT_TYPE_TARGET_SCAN_DELAY]	 		  	  						= get_local_float_value;

  006c6	69 45 08 bc 02
	00 00		 imul	 eax, DWORD PTR _type$[ebp], 700
  006cd	b9 04 00 00 00	 mov	 ecx, 4
  006d2	69 d1 86 00 00
	00		 imul	 edx, ecx, 134
  006d8	c7 84 10 00 00
	00 00 00 00 00
	00		 mov	 DWORD PTR ?fn_get_local_entity_float_value@@3PAY0KP@P6GMPAUENTITY@@W4FLOAT_TYPES@@@ZA[eax+edx], OFFSET ?get_local_float_value@@YGMPAUENTITY@@W4FLOAT_TYPES@@@Z ; get_local_float_value

; 787  : 
; 788  : 	fn_get_local_entity_float_value				[type][FLOAT_TYPE_TARGET_SCAN_TIMER]	 		  	  						= get_local_float_value;

  006e3	69 45 08 bc 02
	00 00		 imul	 eax, DWORD PTR _type$[ebp], 700
  006ea	b9 04 00 00 00	 mov	 ecx, 4
  006ef	69 d1 87 00 00
	00		 imul	 edx, ecx, 135
  006f5	c7 84 10 00 00
	00 00 00 00 00
	00		 mov	 DWORD PTR ?fn_get_local_entity_float_value@@3PAY0KP@P6GMPAUENTITY@@W4FLOAT_TYPES@@@ZA[eax+edx], OFFSET ?get_local_float_value@@YGMPAUENTITY@@W4FLOAT_TYPES@@@Z ; get_local_float_value

; 789  : 
; 790  : 	fn_get_local_entity_float_value				[type][FLOAT_TYPE_TERRAIN_ELEVATION]	 		  	  						= get_local_float_value;

  00700	69 45 08 bc 02
	00 00		 imul	 eax, DWORD PTR _type$[ebp], 700
  00707	b9 04 00 00 00	 mov	 ecx, 4
  0070c	69 d1 8d 00 00
	00		 imul	 edx, ecx, 141
  00712	c7 84 10 00 00
	00 00 00 00 00
	00		 mov	 DWORD PTR ?fn_get_local_entity_float_value@@3PAY0KP@P6GMPAUENTITY@@W4FLOAT_TYPES@@@ZA[eax+edx], OFFSET ?get_local_float_value@@YGMPAUENTITY@@W4FLOAT_TYPES@@@Z ; get_local_float_value

; 791  : 
; 792  : 	fn_set_local_entity_raw_float_value  		[type][FLOAT_TYPE_UNDERCARRIAGE_STATE]										= set_local_float_value;

  0071d	69 45 08 bc 02
	00 00		 imul	 eax, DWORD PTR _type$[ebp], 700
  00724	b9 04 00 00 00	 mov	 ecx, 4
  00729	69 d1 90 00 00
	00		 imul	 edx, ecx, 144
  0072f	c7 84 10 00 00
	00 00 00 00 00
	00		 mov	 DWORD PTR ?fn_set_local_entity_raw_float_value@@3PAY0KP@P6GXPAUENTITY@@W4FLOAT_TYPES@@M@ZA[eax+edx], OFFSET ?set_local_float_value@@YGXPAUENTITY@@W4FLOAT_TYPES@@M@Z ; set_local_float_value

; 793  : 	fn_set_local_entity_float_value				[type][FLOAT_TYPE_UNDERCARRIAGE_STATE]										= set_local_float_value;

  0073a	69 45 08 bc 02
	00 00		 imul	 eax, DWORD PTR _type$[ebp], 700
  00741	b9 04 00 00 00	 mov	 ecx, 4
  00746	69 d1 90 00 00
	00		 imul	 edx, ecx, 144
  0074c	c7 84 10 00 00
	00 00 00 00 00
	00		 mov	 DWORD PTR ?fn_set_local_entity_float_value@@3PAY0KP@P6GXPAUENTITY@@W4FLOAT_TYPES@@M@ZA[eax+edx], OFFSET ?set_local_float_value@@YGXPAUENTITY@@W4FLOAT_TYPES@@M@Z ; set_local_float_value

; 794  : 	fn_set_client_server_entity_float_value	[type][FLOAT_TYPE_UNDERCARRIAGE_STATE][COMMS_MODEL_SERVER]			= set_server_float_value;

  00757	69 45 08 78 05
	00 00		 imul	 eax, DWORD PTR _type$[ebp], 1400
  0075e	b9 08 00 00 00	 mov	 ecx, 8
  00763	69 d1 90 00 00
	00		 imul	 edx, ecx, 144
  00769	8d 84 10 00 00
	00 00		 lea	 eax, DWORD PTR ?fn_set_client_server_entity_float_value@@3PAY1KP@1P6GXPAUENTITY@@W4FLOAT_TYPES@@M@ZA[eax+edx]
  00770	b9 04 00 00 00	 mov	 ecx, 4
  00775	6b d1 00	 imul	 edx, ecx, 0
  00778	c7 04 10 00 00
	00 00		 mov	 DWORD PTR [eax+edx], OFFSET ?set_server_float_value@@YGXPAUENTITY@@W4FLOAT_TYPES@@M@Z ; set_server_float_value

; 795  : 	fn_set_client_server_entity_float_value	[type][FLOAT_TYPE_UNDERCARRIAGE_STATE][COMMS_MODEL_CLIENT]			= set_client_float_value;

  0077f	69 45 08 78 05
	00 00		 imul	 eax, DWORD PTR _type$[ebp], 1400
  00786	b9 08 00 00 00	 mov	 ecx, 8
  0078b	69 d1 90 00 00
	00		 imul	 edx, ecx, 144
  00791	8d 84 10 00 00
	00 00		 lea	 eax, DWORD PTR ?fn_set_client_server_entity_float_value@@3PAY1KP@1P6GXPAUENTITY@@W4FLOAT_TYPES@@M@ZA[eax+edx]
  00798	b9 04 00 00 00	 mov	 ecx, 4
  0079d	c1 e1 00	 shl	 ecx, 0
  007a0	c7 04 08 00 00
	00 00		 mov	 DWORD PTR [eax+ecx], OFFSET ?set_client_float_value@@YGXPAUENTITY@@W4FLOAT_TYPES@@M@Z ; set_client_float_value

; 796  : 	fn_get_local_entity_float_value				[type][FLOAT_TYPE_UNDERCARRIAGE_STATE]										= get_local_float_value;

  007a7	69 45 08 bc 02
	00 00		 imul	 eax, DWORD PTR _type$[ebp], 700
  007ae	b9 04 00 00 00	 mov	 ecx, 4
  007b3	69 d1 90 00 00
	00		 imul	 edx, ecx, 144
  007b9	c7 84 10 00 00
	00 00 00 00 00
	00		 mov	 DWORD PTR ?fn_get_local_entity_float_value@@3PAY0KP@P6GMPAUENTITY@@W4FLOAT_TYPES@@@ZA[eax+edx], OFFSET ?get_local_float_value@@YGMPAUENTITY@@W4FLOAT_TYPES@@@Z ; get_local_float_value

; 797  : 
; 798  : 	fn_set_local_entity_raw_float_value			[type][FLOAT_TYPE_VIEW_INTEREST_LEVEL]										= set_local_float_value;

  007c4	69 45 08 bc 02
	00 00		 imul	 eax, DWORD PTR _type$[ebp], 700
  007cb	b9 04 00 00 00	 mov	 ecx, 4
  007d0	69 d1 95 00 00
	00		 imul	 edx, ecx, 149
  007d6	c7 84 10 00 00
	00 00 00 00 00
	00		 mov	 DWORD PTR ?fn_set_local_entity_raw_float_value@@3PAY0KP@P6GXPAUENTITY@@W4FLOAT_TYPES@@M@ZA[eax+edx], OFFSET ?set_local_float_value@@YGXPAUENTITY@@W4FLOAT_TYPES@@M@Z ; set_local_float_value

; 799  : 	fn_set_local_entity_float_value				[type][FLOAT_TYPE_VIEW_INTEREST_LEVEL]										= set_local_float_value;

  007e1	69 45 08 bc 02
	00 00		 imul	 eax, DWORD PTR _type$[ebp], 700
  007e8	b9 04 00 00 00	 mov	 ecx, 4
  007ed	69 d1 95 00 00
	00		 imul	 edx, ecx, 149
  007f3	c7 84 10 00 00
	00 00 00 00 00
	00		 mov	 DWORD PTR ?fn_set_local_entity_float_value@@3PAY0KP@P6GXPAUENTITY@@W4FLOAT_TYPES@@M@ZA[eax+edx], OFFSET ?set_local_float_value@@YGXPAUENTITY@@W4FLOAT_TYPES@@M@Z ; set_local_float_value

; 800  : 	fn_get_local_entity_float_value				[type][FLOAT_TYPE_VIEW_INTEREST_LEVEL]										= get_local_float_value;

  007fe	69 45 08 bc 02
	00 00		 imul	 eax, DWORD PTR _type$[ebp], 700
  00805	b9 04 00 00 00	 mov	 ecx, 4
  0080a	69 d1 95 00 00
	00		 imul	 edx, ecx, 149
  00810	c7 84 10 00 00
	00 00 00 00 00
	00		 mov	 DWORD PTR ?fn_get_local_entity_float_value@@3PAY0KP@P6GMPAUENTITY@@W4FLOAT_TYPES@@@ZA[eax+edx], OFFSET ?get_local_float_value@@YGMPAUENTITY@@W4FLOAT_TYPES@@@Z ; get_local_float_value

; 801  : 
; 802  : 	fn_set_local_entity_raw_float_value			[type][FLOAT_TYPE_WEAPON_BURST_TIMER]										= set_local_float_value;

  0081b	69 45 08 bc 02
	00 00		 imul	 eax, DWORD PTR _type$[ebp], 700
  00822	b9 04 00 00 00	 mov	 ecx, 4
  00827	69 d1 96 00 00
	00		 imul	 edx, ecx, 150
  0082d	c7 84 10 00 00
	00 00 00 00 00
	00		 mov	 DWORD PTR ?fn_set_local_entity_raw_float_value@@3PAY0KP@P6GXPAUENTITY@@W4FLOAT_TYPES@@M@ZA[eax+edx], OFFSET ?set_local_float_value@@YGXPAUENTITY@@W4FLOAT_TYPES@@M@Z ; set_local_float_value

; 803  : 	fn_set_local_entity_float_value				[type][FLOAT_TYPE_WEAPON_BURST_TIMER]										= set_local_float_value;

  00838	69 45 08 bc 02
	00 00		 imul	 eax, DWORD PTR _type$[ebp], 700
  0083f	b9 04 00 00 00	 mov	 ecx, 4
  00844	69 d1 96 00 00
	00		 imul	 edx, ecx, 150
  0084a	c7 84 10 00 00
	00 00 00 00 00
	00		 mov	 DWORD PTR ?fn_set_local_entity_float_value@@3PAY0KP@P6GXPAUENTITY@@W4FLOAT_TYPES@@M@ZA[eax+edx], OFFSET ?set_local_float_value@@YGXPAUENTITY@@W4FLOAT_TYPES@@M@Z ; set_local_float_value

; 804  : 	fn_get_local_entity_float_value				[type][FLOAT_TYPE_WEAPON_BURST_TIMER]										= get_local_float_value;

  00855	69 45 08 bc 02
	00 00		 imul	 eax, DWORD PTR _type$[ebp], 700
  0085c	b9 04 00 00 00	 mov	 ecx, 4
  00861	69 d1 96 00 00
	00		 imul	 edx, ecx, 150
  00867	c7 84 10 00 00
	00 00 00 00 00
	00		 mov	 DWORD PTR ?fn_get_local_entity_float_value@@3PAY0KP@P6GMPAUENTITY@@W4FLOAT_TYPES@@@ZA[eax+edx], OFFSET ?get_local_float_value@@YGMPAUENTITY@@W4FLOAT_TYPES@@@Z ; get_local_float_value

; 805  : 
; 806  : 	fn_set_local_entity_raw_float_value			[type][FLOAT_TYPE_WEAPON_SYSTEM_READY_STATE]								= set_local_float_value;

  00872	69 45 08 bc 02
	00 00		 imul	 eax, DWORD PTR _type$[ebp], 700
  00879	b9 04 00 00 00	 mov	 ecx, 4
  0087e	69 d1 9a 00 00
	00		 imul	 edx, ecx, 154
  00884	c7 84 10 00 00
	00 00 00 00 00
	00		 mov	 DWORD PTR ?fn_set_local_entity_raw_float_value@@3PAY0KP@P6GXPAUENTITY@@W4FLOAT_TYPES@@M@ZA[eax+edx], OFFSET ?set_local_float_value@@YGXPAUENTITY@@W4FLOAT_TYPES@@M@Z ; set_local_float_value

; 807  : 	fn_set_local_entity_float_value				[type][FLOAT_TYPE_WEAPON_SYSTEM_READY_STATE]								= set_local_float_value;

  0088f	69 45 08 bc 02
	00 00		 imul	 eax, DWORD PTR _type$[ebp], 700
  00896	b9 04 00 00 00	 mov	 ecx, 4
  0089b	69 d1 9a 00 00
	00		 imul	 edx, ecx, 154
  008a1	c7 84 10 00 00
	00 00 00 00 00
	00		 mov	 DWORD PTR ?fn_set_local_entity_float_value@@3PAY0KP@P6GXPAUENTITY@@W4FLOAT_TYPES@@M@ZA[eax+edx], OFFSET ?set_local_float_value@@YGXPAUENTITY@@W4FLOAT_TYPES@@M@Z ; set_local_float_value

; 808  : 	fn_set_client_server_entity_float_value	[type][FLOAT_TYPE_WEAPON_SYSTEM_READY_STATE][COMMS_MODEL_SERVER]	= set_server_float_value;

  008ac	69 45 08 78 05
	00 00		 imul	 eax, DWORD PTR _type$[ebp], 1400
  008b3	b9 08 00 00 00	 mov	 ecx, 8
  008b8	69 d1 9a 00 00
	00		 imul	 edx, ecx, 154
  008be	8d 84 10 00 00
	00 00		 lea	 eax, DWORD PTR ?fn_set_client_server_entity_float_value@@3PAY1KP@1P6GXPAUENTITY@@W4FLOAT_TYPES@@M@ZA[eax+edx]
  008c5	b9 04 00 00 00	 mov	 ecx, 4
  008ca	6b d1 00	 imul	 edx, ecx, 0
  008cd	c7 04 10 00 00
	00 00		 mov	 DWORD PTR [eax+edx], OFFSET ?set_server_float_value@@YGXPAUENTITY@@W4FLOAT_TYPES@@M@Z ; set_server_float_value

; 809  : 	fn_set_client_server_entity_float_value	[type][FLOAT_TYPE_WEAPON_SYSTEM_READY_STATE][COMMS_MODEL_CLIENT]	= set_client_float_value;

  008d4	69 45 08 78 05
	00 00		 imul	 eax, DWORD PTR _type$[ebp], 1400
  008db	b9 08 00 00 00	 mov	 ecx, 8
  008e0	69 d1 9a 00 00
	00		 imul	 edx, ecx, 154
  008e6	8d 84 10 00 00
	00 00		 lea	 eax, DWORD PTR ?fn_set_client_server_entity_float_value@@3PAY1KP@1P6GXPAUENTITY@@W4FLOAT_TYPES@@M@ZA[eax+edx]
  008ed	b9 04 00 00 00	 mov	 ecx, 4
  008f2	c1 e1 00	 shl	 ecx, 0
  008f5	c7 04 08 00 00
	00 00		 mov	 DWORD PTR [eax+ecx], OFFSET ?set_client_float_value@@YGXPAUENTITY@@W4FLOAT_TYPES@@M@Z ; set_client_float_value

; 810  : 	fn_get_local_entity_float_value				[type][FLOAT_TYPE_WEAPON_SYSTEM_READY_STATE]								= get_local_float_value;

  008fc	69 45 08 bc 02
	00 00		 imul	 eax, DWORD PTR _type$[ebp], 700
  00903	b9 04 00 00 00	 mov	 ecx, 4
  00908	69 d1 9a 00 00
	00		 imul	 edx, ecx, 154
  0090e	c7 84 10 00 00
	00 00 00 00 00
	00		 mov	 DWORD PTR ?fn_get_local_entity_float_value@@3PAY0KP@P6GMPAUENTITY@@W4FLOAT_TYPES@@@ZA[eax+edx], OFFSET ?get_local_float_value@@YGMPAUENTITY@@W4FLOAT_TYPES@@@Z ; get_local_float_value

; 811  : }

  00919	5f		 pop	 edi
  0091a	5e		 pop	 esi
  0091b	5b		 pop	 ebx
  0091c	8b e5		 mov	 esp, ebp
  0091e	5d		 pop	 ebp
  0091f	c2 04 00	 ret	 4
?overload_aircraft_float_value_functions@@YGXW4ENTITY_TYPES@@@Z ENDP ; overload_aircraft_float_value_functions
_TEXT	ENDS
END
