; Listing generated by Microsoft (R) Optimizing Compiler Version 19.16.27045.0 

	TITLE	C:\Users\nhv90\Projects\eech\aphavoc\source\entity\mobile\aircraft\ac_int.c
	.686P
	.XMM
	include listing.inc
	.model	flat

INCLUDELIB MSVCRTD
INCLUDELIB OLDNAMES

PUBLIC	?overload_aircraft_int_value_functions@@YGXW4ENTITY_TYPES@@@Z ; overload_aircraft_int_value_functions
PUBLIC	?__LINE__Var@?0??set_local_raw_int_value@@YGXPAUENTITY@@W4INT_TYPES@@H@Z@4JA ; `set_local_raw_int_value'::`1'::__LINE__Var
PUBLIC	??_C@_0EM@DGHJLEAG@c?3?2users?2nhv90?2projects?2eech?2ap@ ; `string'
PUBLIC	?__LINE__Var@?0??set_local_int_value@@YGXPAUENTITY@@W4INT_TYPES@@H@Z@4JA ; `set_local_int_value'::`1'::__LINE__Var
PUBLIC	??_C@_0L@MHFEGEFF@value?5?$DO?$DN?50@		; `string'
PUBLIC	??_C@_0CM@HGKGIGCD@value?5?$DM?5?$CI1?5?$DM?$DM?5NUM_GROUP_MEMBER_@ ; `string'
PUBLIC	?__LINE__Var@?0??set_server_int_value@@YGXPAUENTITY@@W4INT_TYPES@@H@Z@4JA ; `set_server_int_value'::`1'::__LINE__Var
PUBLIC	??_C@_0CB@CFOCLFOK@assert_client_server_local_fn?5?$CI@ ; `string'
PUBLIC	??_C@_0CC@BNNNEGEG@assert_client_server_remote_fn?5@ ; `string'
PUBLIC	?__LINE__Var@?0??set_client_int_value@@YGXPAUENTITY@@W4INT_TYPES@@H@Z@4JA ; `set_client_int_value'::`1'::__LINE__Var
PUBLIC	?__LINE__Var@?0??get_local_int_value@@YGHPAUENTITY@@W4INT_TYPES@@@Z@4JA ; `get_local_int_value'::`1'::__LINE__Var
PUBLIC	??_C@_0CC@EFENICDA@AC_INT?3?5unknown?5operational?5sta@ ; `string'
PUBLIC	??_C@_0DI@BMCLHKLD@AC_INT?3?5Invalid?5Task?5Type?5?$CFd?5Fo@ ; `string'
PUBLIC	??_C@_0CC@KIIGBMNN@VH_INT?3?5unknown?5operational?5sta@ ; `string'
PUBLIC	__real@4000000000000000
EXTRN	?process_assert@@YGXPBD0H@Z:PROC		; process_assert
EXTRN	?debug_fatal@@YAXPBDZZ:PROC			; debug_fatal
EXTRN	?transmit_entity_comms_message@@YAXW4ENTITY_COMMS_MESSAGES@@PAUENTITY@@ZZ:PROC ; transmit_entity_comms_message
EXTRN	?assert_client_server_local_fn@@YGHXZ:PROC	; assert_client_server_local_fn
EXTRN	?assert_client_server_remote_fn@@YGHXZ:PROC	; assert_client_server_remote_fn
EXTRN	?get_3d_object_destroyed_object_index@@YGHH@Z:PROC ; get_3d_object_destroyed_object_index
EXTRN	?weapon_loading_update_currently_selected_weapons@@YGXPAUENTITY@@@Z:PROC ; weapon_loading_update_currently_selected_weapons
EXTRN	?play_entity_weapon_selected_speech@@YGXPAUENTITY@@H@Z:PROC ; play_entity_weapon_selected_speech
EXTRN	?load_local_entity_weapon_config@@YGXPAUENTITY@@@Z:PROC ; load_local_entity_weapon_config
EXTRN	?assess_aircraft_damage_level@@YGXPAUENTITY@@HH@Z:PROC ; assess_aircraft_damage_level
EXTRN	?pause_local_continuous_weapon_sound_effect@@YGXPAUENTITY@@H@Z:PROC ; pause_local_continuous_weapon_sound_effect
EXTRN	?get_local_entity_current_task@@YGPAUENTITY@@PAU1@@Z:PROC ; get_local_entity_current_task
EXTRN	?get_local_entity_primary_task@@YGPAUENTITY@@PAU1@@Z:PROC ; get_local_entity_primary_task
EXTRN	?select_simple_avionics_target_acquisition_system@@YGXXZ:PROC ; select_simple_avionics_target_acquisition_system
EXTRN	?null_entity_pointer_message@@3PBDB:DWORD	; null_entity_pointer_message
EXTRN	?entity_type_database@@3PAUENTITY_TYPE_DATA@@A:BYTE ; entity_type_database
EXTRN	?global_options@@3UGLOBAL_OPTIONS_DATA@@A:BYTE	; global_options
EXTRN	?system_comms_model@@3W4COMMS_MODEL_TYPES@@A:DWORD ; system_comms_model
EXTRN	?system_comms_data_flow@@3W4COMMS_DATA_FLOW_TYPES@@A:DWORD ; system_comms_data_flow
EXTRN	?overload_invalid_list_type_message@@3PBDB:DWORD ; overload_invalid_list_type_message
EXTRN	?fn_get_local_entity_parent@@3PAY0CN@P6GPAUENTITY@@PAU1@W4LIST_TYPES@@@ZA:BYTE ; fn_get_local_entity_parent
EXTRN	?fn_get_local_entity_child_pred@@3PAY0CN@P6GPAUENTITY@@PAU1@W4LIST_TYPES@@@ZA:BYTE ; fn_get_local_entity_child_pred
EXTRN	?overload_invalid_float_type_message@@3PBDB:DWORD ; overload_invalid_float_type_message
EXTRN	?fn_get_local_entity_float_value@@3PAY0KP@P6GMPAUENTITY@@W4FLOAT_TYPES@@@ZA:BYTE ; fn_get_local_entity_float_value
EXTRN	?int_type_database@@3PAUINT_TYPE_DATA@@A:BYTE	; int_type_database
EXTRN	?overload_invalid_int_type_message@@3PBDB:DWORD	; overload_invalid_int_type_message
EXTRN	?debug_fatal_invalid_int_type_message@@3PBDB:DWORD ; debug_fatal_invalid_int_type_message
EXTRN	?fn_set_local_entity_raw_int_value@@3PAY0BBH@P6GXPAUENTITY@@W4INT_TYPES@@H@ZA:BYTE ; fn_set_local_entity_raw_int_value
EXTRN	?fn_set_local_entity_int_value@@3PAY0BBH@P6GXPAUENTITY@@W4INT_TYPES@@H@ZA:BYTE ; fn_set_local_entity_int_value
EXTRN	?fn_set_client_server_entity_int_value@@3PAY1BBH@1P6GXPAUENTITY@@W4INT_TYPES@@H@ZA:BYTE ; fn_set_client_server_entity_int_value
EXTRN	?fn_get_local_entity_int_value@@3PAY0BBH@P6GHPAUENTITY@@W4INT_TYPES@@@ZA:BYTE ; fn_get_local_entity_int_value
EXTRN	?overload_invalid_ptr_type_message@@3PBDB:DWORD	; overload_invalid_ptr_type_message
EXTRN	?fn_get_local_entity_ptr_value@@3PAY0BE@P6GPAXPAUENTITY@@W4PTR_TYPES@@@ZA:BYTE ; fn_get_local_entity_ptr_value
EXTRN	?entities@@3PAUENTITY@@A:DWORD			; entities
EXTRN	?aircraft_database@@3PAUAIRCRAFT_DATA@@A:BYTE	; aircraft_database
EXTRN	?gunship_entity@@3PAUENTITY@@A:DWORD		; gunship_entity
EXTRN	?hud_mode@@3W4HUD_MODES@@A:DWORD		; hud_mode
EXTRN	?previous_hud_mode@@3W4HUD_MODES@@A:DWORD	; previous_hud_mode
EXTRN	?rocket_salvo_count@@3HA:DWORD			; rocket_salvo_count
EXTRN	__fltused:DWORD
;	COMDAT __real@4000000000000000
CONST	SEGMENT
__real@4000000000000000 DQ 04000000000000000r	; 2
CONST	ENDS
;	COMDAT ??_C@_0CC@KIIGBMNN@VH_INT?3?5unknown?5operational?5sta@
CONST	SEGMENT
??_C@_0CC@KIIGBMNN@VH_INT?3?5unknown?5operational?5sta@ DB 'VH_INT: unkno'
	DB	'wn operational state', 00H			; `string'
CONST	ENDS
;	COMDAT ??_C@_0DI@BMCLHKLD@AC_INT?3?5Invalid?5Task?5Type?5?$CFd?5Fo@
CONST	SEGMENT
??_C@_0DI@BMCLHKLD@AC_INT?3?5Invalid?5Task?5Type?5?$CFd?5Fo@ DB 'AC_INT: '
	DB	'Invalid Task Type %d For Get Group Member State', 00H ; `string'
CONST	ENDS
;	COMDAT ??_C@_0CC@EFENICDA@AC_INT?3?5unknown?5operational?5sta@
CONST	SEGMENT
??_C@_0CC@EFENICDA@AC_INT?3?5unknown?5operational?5sta@ DB 'AC_INT: unkno'
	DB	'wn operational state', 00H			; `string'
CONST	ENDS
;	COMDAT ?__LINE__Var@?0??get_local_int_value@@YGHPAUENTITY@@W4INT_TYPES@@@Z@4JA
_DATA	SEGMENT
?__LINE__Var@?0??get_local_int_value@@YGHPAUENTITY@@W4INT_TYPES@@@Z@4JA DD 0185H ; `get_local_int_value'::`1'::__LINE__Var
_DATA	ENDS
;	COMDAT ?__LINE__Var@?0??set_client_int_value@@YGXPAUENTITY@@W4INT_TYPES@@H@Z@4JA
_DATA	SEGMENT
?__LINE__Var@?0??set_client_int_value@@YGXPAUENTITY@@W4INT_TYPES@@H@Z@4JA DD 0171H ; `set_client_int_value'::`1'::__LINE__Var
_DATA	ENDS
;	COMDAT ??_C@_0CC@BNNNEGEG@assert_client_server_remote_fn?5@
CONST	SEGMENT
??_C@_0CC@BNNNEGEG@assert_client_server_remote_fn?5@ DB 'assert_client_se'
	DB	'rver_remote_fn ()', 00H			; `string'
CONST	ENDS
;	COMDAT ??_C@_0CB@CFOCLFOK@assert_client_server_local_fn?5?$CI@
CONST	SEGMENT
??_C@_0CB@CFOCLFOK@assert_client_server_local_fn?5?$CI@ DB 'assert_client'
	DB	'_server_local_fn ()', 00H			; `string'
CONST	ENDS
;	COMDAT ?__LINE__Var@?0??set_server_int_value@@YGXPAUENTITY@@W4INT_TYPES@@H@Z@4JA
_DATA	SEGMENT
?__LINE__Var@?0??set_server_int_value@@YGXPAUENTITY@@W4INT_TYPES@@H@Z@4JA DD 0162H ; `set_server_int_value'::`1'::__LINE__Var
_DATA	ENDS
;	COMDAT ??_C@_0CM@HGKGIGCD@value?5?$DM?5?$CI1?5?$DM?$DM?5NUM_GROUP_MEMBER_@
CONST	SEGMENT
??_C@_0CM@HGKGIGCD@value?5?$DM?5?$CI1?5?$DM?$DM?5NUM_GROUP_MEMBER_@ DB 'v'
	DB	'alue < (1 << NUM_GROUP_MEMBER_NUMBER_BITS)', 00H ; `string'
CONST	ENDS
;	COMDAT ??_C@_0L@MHFEGEFF@value?5?$DO?$DN?50@
CONST	SEGMENT
??_C@_0L@MHFEGEFF@value?5?$DO?$DN?50@ DB 'value >= 0', 00H ; `string'
CONST	ENDS
;	COMDAT ?__LINE__Var@?0??set_local_int_value@@YGXPAUENTITY@@W4INT_TYPES@@H@Z@4JA
_DATA	SEGMENT
?__LINE__Var@?0??set_local_int_value@@YGXPAUENTITY@@W4INT_TYPES@@H@Z@4JA DD 07eH ; `set_local_int_value'::`1'::__LINE__Var
_DATA	ENDS
;	COMDAT ??_C@_0EM@DGHJLEAG@c?3?2users?2nhv90?2projects?2eech?2ap@
CONST	SEGMENT
??_C@_0EM@DGHJLEAG@c?3?2users?2nhv90?2projects?2eech?2ap@ DB 'c:\users\nh'
	DB	'v90\projects\eech\aphavoc\source\entity\mobile\aircraft\ac_in'
	DB	't.c', 00H					; `string'
CONST	ENDS
;	COMDAT ?__LINE__Var@?0??set_local_raw_int_value@@YGXPAUENTITY@@W4INT_TYPES@@H@Z@4JA
_DATA	SEGMENT
?__LINE__Var@?0??set_local_raw_int_value@@YGXPAUENTITY@@W4INT_TYPES@@H@Z@4JA DD 050H ; `set_local_raw_int_value'::`1'::__LINE__Var
_DATA	ENDS
; Function compile flags: /Odtp /ZI
; File c:\users\nhv90\projects\eech\aphavoc\source\entity\mobile\aircraft\ac_int.c
;	COMDAT ?get_local_int_value@@YGHPAUENTITY@@W4INT_TYPES@@@Z
_TEXT	SEGMENT
tv792 = -100						; size = 8
tv317 = -96						; size = 4
tv527 = -92						; size = 4
tv485 = -92						; size = 4
tv466 = -92						; size = 4
tv447 = -92						; size = 4
tv332 = -92						; size = 4
tv311 = -92						; size = 4
tv292 = -92						; size = 4
tv267 = -92						; size = 4
tv241 = -92						; size = 4
tv222 = -92						; size = 4
tv178 = -92						; size = 4
tv157 = -92						; size = 4
tv551 = -88						; size = 4
tv520 = -88						; size = 4
tv510 = -88						; size = 4
tv478 = -88						; size = 4
tv459 = -88						; size = 4
tv439 = -88						; size = 4
tv386 = -88						; size = 4
tv362 = -88						; size = 4
tv324 = -88						; size = 4
tv304 = -88						; size = 4
tv285 = -88						; size = 4
tv260 = -88						; size = 4
tv234 = -88						; size = 4
tv215 = -88						; size = 4
tv170 = -88						; size = 4
tv149 = -88						; size = 4
tv142 = -88						; size = 4
tv79 = -88						; size = 4
tv65 = -88						; size = 4
_guide$1 = -20						; size = 4
_task$2 = -16						; size = 4
_group$3 = -12						; size = 4
_value$ = -8						; size = 4
_raw$ = -4						; size = 4
_en$ = 8						; size = 4
_type$ = 12						; size = 4
?get_local_int_value@@YGHPAUENTITY@@W4INT_TYPES@@@Z PROC ; get_local_int_value, COMDAT

; 389  : {

  00000	55		 push	 ebp
  00001	8b ec		 mov	 ebp, esp
  00003	83 ec 64	 sub	 esp, 100		; 00000064H
  00006	53		 push	 ebx
  00007	56		 push	 esi
  00008	57		 push	 edi

; 390  : 	aircraft
; 391  : 		*raw;
; 392  : 
; 393  : 	int
; 394  : 		value;
; 395  : 
; 396  : 	raw = (aircraft *) get_local_entity_data (en);

  00009	8b 45 08	 mov	 eax, DWORD PTR _en$[ebp]
  0000c	8b 48 04	 mov	 ecx, DWORD PTR [eax+4]
  0000f	89 4d fc	 mov	 DWORD PTR _raw$[ebp], ecx

; 397  : 
; 398  : 	switch (type)

  00012	8b 45 0c	 mov	 eax, DWORD PTR _type$[ebp]
  00015	89 45 a8	 mov	 DWORD PTR tv65[ebp], eax
  00018	81 7d a8 02 01
	00 00		 cmp	 DWORD PTR tv65[ebp], 258 ; 00000102H
  0001f	7f 34		 jg	 SHORT $LN153@get_local_
  00021	81 7d a8 02 01
	00 00		 cmp	 DWORD PTR tv65[ebp], 258 ; 00000102H
  00028	0f 84 88 0b 00
	00		 je	 $LN94@get_local_
  0002e	8b 4d a8	 mov	 ecx, DWORD PTR tv65[ebp]
  00031	83 e9 02	 sub	 ecx, 2
  00034	89 4d a8	 mov	 DWORD PTR tv65[ebp], ecx
  00037	81 7d a8 f6 00
	00 00		 cmp	 DWORD PTR tv65[ebp], 246 ; 000000f6H
  0003e	0f 87 3a 0c 00
	00		 ja	 $LN99@get_local_
  00044	8b 55 a8	 mov	 edx, DWORD PTR tv65[ebp]
  00047	0f b6 82 00 00
	00 00		 movzx	 eax, BYTE PTR $LN154@get_local_[edx]
  0004e	ff 24 85 00 00
	00 00		 jmp	 DWORD PTR $LN159@get_local_[eax*4]
$LN153@get_local_:
  00055	81 7d a8 05 01
	00 00		 cmp	 DWORD PTR tv65[ebp], 261 ; 00000105H
  0005c	0f 84 6b 0b 00
	00		 je	 $LN95@get_local_
  00062	81 7d a8 0f 01
	00 00		 cmp	 DWORD PTR tv65[ebp], 271 ; 0000010fH
  00069	0f 84 6f 0b 00
	00		 je	 $LN96@get_local_
  0006f	e9 0a 0c 00 00	 jmp	 $LN99@get_local_
$LN14@get_local_:

; 399  : 	{
; 400  : 		////////////////////////////////////////
; 401  : 		case INT_TYPE_AIR_TO_AIR_WEAPON_CONFIG_TYPE:
; 402  : 		////////////////////////////////////////
; 403  : 		{
; 404  : 			value = aircraft_database[raw->mob.sub_type].air_to_air_weapon_config_type;

  00074	8b 45 fc	 mov	 eax, DWORD PTR _raw$[ebp]
  00077	69 08 f4 00 00
	00		 imul	 ecx, DWORD PTR [eax], 244
  0007d	8b 91 28 00 00
	00		 mov	 edx, DWORD PTR ?aircraft_database@@3PAUAIRCRAFT_DATA@@A[ecx+40]
  00083	89 55 f8	 mov	 DWORD PTR _value$[ebp], edx

; 405  : 
; 406  : 			break;

  00086	e9 6b 0c 00 00	 jmp	 $LN2@get_local_
$LN15@get_local_:

; 407  : 		}
; 408  : 		////////////////////////////////////////
; 409  : 		case INT_TYPE_AIR_TO_SURFACE_WEAPON_CONFIG_TYPE:
; 410  : 		////////////////////////////////////////
; 411  : 		{
; 412  : 			value = aircraft_database[raw->mob.sub_type].air_to_surface_weapon_config_type;

  0008b	8b 45 fc	 mov	 eax, DWORD PTR _raw$[ebp]
  0008e	69 08 f4 00 00
	00		 imul	 ecx, DWORD PTR [eax], 244
  00094	8b 91 2c 00 00
	00		 mov	 edx, DWORD PTR ?aircraft_database@@3PAUAIRCRAFT_DATA@@A[ecx+44]
  0009a	89 55 f8	 mov	 DWORD PTR _value$[ebp], edx

; 413  : 
; 414  : 			break;

  0009d	e9 54 0c 00 00	 jmp	 $LN2@get_local_
$LN16@get_local_:

; 415  : 		}
; 416  : 		////////////////////////////////////////
; 417  : 		case INT_TYPE_AIRBORNE_AIRCRAFT:
; 418  : 		////////////////////////////////////////
; 419  : 		{
; 420  : 
; 421  : 			switch (raw->operational_state)

  000a2	8b 45 fc	 mov	 eax, DWORD PTR _raw$[ebp]
  000a5	8b 88 2c 01 00
	00		 mov	 ecx, DWORD PTR [eax+300]
  000ab	c1 e9 05	 shr	 ecx, 5
  000ae	83 e1 1f	 and	 ecx, 31			; 0000001fH
  000b1	89 4d a8	 mov	 DWORD PTR tv79[ebp], ecx
  000b4	83 7d a8 0c	 cmp	 DWORD PTR tv79[ebp], 12	; 0000000cH
  000b8	77 23		 ja	 SHORT $LN19@get_local_
  000ba	8b 55 a8	 mov	 edx, DWORD PTR tv79[ebp]
  000bd	0f b6 82 00 00
	00 00		 movzx	 eax, BYTE PTR $LN155@get_local_[edx]
  000c4	ff 24 85 00 00
	00 00		 jmp	 DWORD PTR $LN160@get_local_[eax*4]
$LN17@get_local_:

; 422  : 			{
; 423  : 
; 424  : 				case OPERATIONAL_STATE_ASLEEP:
; 425  : 				case OPERATIONAL_STATE_DEAD:
; 426  : 				case OPERATIONAL_STATE_LANDED:
; 427  : 				//case OPERATIONAL_STATE_REPAIRING:
; 428  : 				//case OPERATIONAL_STATE_REFUELING:
; 429  : 				//case OPERATIONAL_STATE_REARMING:
; 430  : 				case OPERATIONAL_STATE_STOPPED:
; 431  : 				case OPERATIONAL_STATE_TAXIING:
; 432  : 				case OPERATIONAL_STATE_UNKNOWN:
; 433  : 				case OPERATIONAL_STATE_WAITING:
; 434  : 				{
; 435  : 
; 436  : 					value = FALSE;

  000cb	c7 45 f8 00 00
	00 00		 mov	 DWORD PTR _value$[ebp], 0

; 437  : 
; 438  : 					break;

  000d2	eb 16		 jmp	 SHORT $LN4@get_local_
$LN18@get_local_:

; 439  : 				}
; 440  : 
; 441  : 				case OPERATIONAL_STATE_DYING:
; 442  : 				case OPERATIONAL_STATE_LANDING:
; 443  : 				case OPERATIONAL_STATE_LANDING_HOLDING:
; 444  : 				case OPERATIONAL_STATE_NAVIGATING:
; 445  : 				case OPERATIONAL_STATE_TAKEOFF:
; 446  : 				case OPERATIONAL_STATE_TAKEOFF_HOLDING:
; 447  : 				{
; 448  : 
; 449  : 					value = TRUE;

  000d4	c7 45 f8 01 00
	00 00		 mov	 DWORD PTR _value$[ebp], 1

; 450  : 
; 451  : 					break;

  000db	eb 0d		 jmp	 SHORT $LN4@get_local_
$LN19@get_local_:

; 452  : 				}
; 453  : 
; 454  : 				default:
; 455  : 				{
; 456  : 
; 457  : 					debug_fatal ("AC_INT: unknown operational state");

  000dd	68 00 00 00 00	 push	 OFFSET ??_C@_0CC@EFENICDA@AC_INT?3?5unknown?5operational?5sta@
  000e2	e8 00 00 00 00	 call	 ?debug_fatal@@YAXPBDZZ	; debug_fatal
  000e7	83 c4 04	 add	 esp, 4
$LN4@get_local_:

; 458  : 				}
; 459  : 			}
; 460  : 
; 461  : 			break;

  000ea	e9 07 0c 00 00	 jmp	 $LN2@get_local_
$LN20@get_local_:

; 462  : 		}
; 463  : 		////////////////////////////////////////
; 464  : 		case INT_TYPE_COLLISION_TEST_MOBILE:
; 465  : 		////////////////////////////////////////
; 466  : 		{
; 467  : 			value = TRUE;

  000ef	c7 45 f8 01 00
	00 00		 mov	 DWORD PTR _value$[ebp], 1

; 468  : 
; 469  : 			break;

  000f6	e9 fb 0b 00 00	 jmp	 $LN2@get_local_
$LN21@get_local_:

; 470  : 		}
; 471  : 		////////////////////////////////////////
; 472  : 		case INT_TYPE_CPG_IDENTIFIED:
; 473  : 		////////////////////////////////////////
; 474  : 		{
; 475  : 			value = raw->cpg_identified;

  000fb	8b 45 fc	 mov	 eax, DWORD PTR _raw$[ebp]
  000fe	8b 88 2c 01 00
	00		 mov	 ecx, DWORD PTR [eax+300]
  00104	c1 e9 0f	 shr	 ecx, 15			; 0000000fH
  00107	83 e1 01	 and	 ecx, 1
  0010a	89 4d f8	 mov	 DWORD PTR _value$[ebp], ecx

; 476  : 
; 477  : 			break;

  0010d	e9 e4 0b 00 00	 jmp	 $LN2@get_local_
$LN22@get_local_:

; 478  : 		}
; 479  : 		////////////////////////////////////////
; 480  : 		case INT_TYPE_DAMAGE_LEVEL:
; 481  : 		////////////////////////////////////////
; 482  : 		{
; 483  : 			value = raw->damage_level;

  00112	8b 45 fc	 mov	 eax, DWORD PTR _raw$[ebp]
  00115	8b 88 34 01 00
	00		 mov	 ecx, DWORD PTR [eax+308]
  0011b	89 4d f8	 mov	 DWORD PTR _value$[ebp], ecx

; 484  : 
; 485  : 			break;

  0011e	e9 d3 0b 00 00	 jmp	 $LN2@get_local_
$LN23@get_local_:

; 486  : 		}
; 487  : 		////////////////////////////////////////
; 488  : 		case INT_TYPE_DEFAULT_3D_SHAPE:
; 489  : 		////////////////////////////////////////
; 490  : 		{
; 491  : 			value = aircraft_database[raw->mob.sub_type].default_3d_shape;

  00123	8b 45 fc	 mov	 eax, DWORD PTR _raw$[ebp]
  00126	69 08 f4 00 00
	00		 imul	 ecx, DWORD PTR [eax], 244
  0012c	8b 91 10 00 00
	00		 mov	 edx, DWORD PTR ?aircraft_database@@3PAUAIRCRAFT_DATA@@A[ecx+16]
  00132	89 55 f8	 mov	 DWORD PTR _value$[ebp], edx

; 492  : 
; 493  : 			break;

  00135	e9 bc 0b 00 00	 jmp	 $LN2@get_local_
$LN24@get_local_:

; 494  : 		}
; 495  : 		////////////////////////////////////////
; 496  : 		case INT_TYPE_DEFAULT_WEAPON_CONFIG_TYPE:
; 497  : 		////////////////////////////////////////
; 498  : 		{
; 499  : 			value = aircraft_database[raw->mob.sub_type].default_weapon_config_type;

  0013a	8b 45 fc	 mov	 eax, DWORD PTR _raw$[ebp]
  0013d	69 08 f4 00 00
	00		 imul	 ecx, DWORD PTR [eax], 244
  00143	8b 91 1c 00 00
	00		 mov	 edx, DWORD PTR ?aircraft_database@@3PAUAIRCRAFT_DATA@@A[ecx+28]
  00149	89 55 f8	 mov	 DWORD PTR _value$[ebp], edx

; 500  : 
; 501  : 			break;

  0014c	e9 a5 0b 00 00	 jmp	 $LN2@get_local_
$LN25@get_local_:

; 502  : 		}
; 503  : 		////////////////////////////////////////
; 504  : 		case INT_TYPE_DEFAULT_WEAPON_TYPE:
; 505  : 		////////////////////////////////////////
; 506  : 		{
; 507  : 			value = aircraft_database[raw->mob.sub_type].default_weapon_type;

  00151	8b 45 fc	 mov	 eax, DWORD PTR _raw$[ebp]
  00154	69 08 f4 00 00
	00		 imul	 ecx, DWORD PTR [eax], 244
  0015a	8b 91 34 00 00
	00		 mov	 edx, DWORD PTR ?aircraft_database@@3PAUAIRCRAFT_DATA@@A[ecx+52]
  00160	89 55 f8	 mov	 DWORD PTR _value$[ebp], edx

; 508  : 
; 509  : 			break;

  00163	e9 8e 0b 00 00	 jmp	 $LN2@get_local_
$LN26@get_local_:

; 510  : 		}
; 511  : 		////////////////////////////////////////
; 512  : 		case INT_TYPE_DESTROYED_3D_SHAPE:
; 513  : 		////////////////////////////////////////
; 514  : 		{
; 515  : 			value = get_3d_object_destroyed_object_index (raw->object_3d_shape);

  00168	8b 45 fc	 mov	 eax, DWORD PTR _raw$[ebp]
  0016b	8b 88 80 00 00
	00		 mov	 ecx, DWORD PTR [eax+128]
  00171	51		 push	 ecx
  00172	e8 00 00 00 00	 call	 ?get_3d_object_destroyed_object_index@@YGHH@Z ; get_3d_object_destroyed_object_index
  00177	89 45 f8	 mov	 DWORD PTR _value$[ebp], eax

; 516  : 
; 517  : 			break;

  0017a	e9 77 0b 00 00	 jmp	 $LN2@get_local_
$LN27@get_local_:

; 518  : 		}
; 519  : 		////////////////////////////////////////
; 520  : 		case INT_TYPE_EJECTED:
; 521  : 		////////////////////////////////////////
; 522  : 		{
; 523  : 			value = raw->ejected;

  0017f	8b 45 fc	 mov	 eax, DWORD PTR _raw$[ebp]
  00182	8b 88 2c 01 00
	00		 mov	 ecx, DWORD PTR [eax+300]
  00188	c1 e9 18	 shr	 ecx, 24			; 00000018H
  0018b	83 e1 01	 and	 ecx, 1
  0018e	89 4d f8	 mov	 DWORD PTR _value$[ebp], ecx

; 524  : 
; 525  : 			break;

  00191	e9 60 0b 00 00	 jmp	 $LN2@get_local_
$LN28@get_local_:

; 526  : 		}
; 527  : 		////////////////////////////////////////
; 528  : 		case INT_TYPE_ENGAGE_ENEMY:
; 529  : 		////////////////////////////////////////
; 530  : 		{
; 531  : 			entity
; 532  : 				*group;
; 533  : 
; 534  : 			value = FALSE;

  00196	c7 45 f8 00 00
	00 00		 mov	 DWORD PTR _value$[ebp], 0

; 535  : 
; 536  : 			switch (raw->operational_state)

  0019d	8b 45 fc	 mov	 eax, DWORD PTR _raw$[ebp]
  001a0	8b 88 2c 01 00
	00		 mov	 ecx, DWORD PTR [eax+300]
  001a6	c1 e9 05	 shr	 ecx, 5
  001a9	83 e1 1f	 and	 ecx, 31			; 0000001fH
  001ac	89 4d a8	 mov	 DWORD PTR tv142[ebp], ecx
  001af	83 7d a8 07	 cmp	 DWORD PTR tv142[ebp], 7
  001b3	74 05		 je	 SHORT $LN29@get_local_
  001b5	e9 16 01 00 00	 jmp	 $LN6@get_local_
$LN29@get_local_:

; 537  : 			{
; 538  : 				case OPERATIONAL_STATE_NAVIGATING:
; 539  : 				{
; 540  : 					group = get_local_entity_parent (en, LIST_TYPE_MEMBER);

  001ba	83 7d 08 00	 cmp	 DWORD PTR _en$[ebp], 0
  001be	74 0a		 je	 SHORT $LN101@get_local_
  001c0	8b 45 08	 mov	 eax, DWORD PTR _en$[ebp]
  001c3	8b 08		 mov	 ecx, DWORD PTR [eax]
  001c5	89 4d a8	 mov	 DWORD PTR tv149[ebp], ecx
  001c8	eb 24		 jmp	 SHORT $LN102@get_local_
$LN101@get_local_:
  001ca	8b 15 00 00 00
	00		 mov	 edx, DWORD PTR ?__LINE__Var@?0??get_local_int_value@@YGHPAUENTITY@@W4INT_TYPES@@@Z@4JA
  001d0	81 c2 97 00 00
	00		 add	 edx, 151		; 00000097H
  001d6	52		 push	 edx
  001d7	68 00 00 00 00	 push	 OFFSET ??_C@_0EM@DGHJLEAG@c?3?2users?2nhv90?2projects?2eech?2ap@
  001dc	a1 00 00 00 00	 mov	 eax, DWORD PTR ?null_entity_pointer_message@@3PBDB ; null_entity_pointer_message
  001e1	50		 push	 eax
  001e2	e8 00 00 00 00	 call	 ?process_assert@@YGXPBD0H@Z ; process_assert
  001e7	c7 45 a8 00 00
	00 00		 mov	 DWORD PTR tv149[ebp], 0
$LN102@get_local_:
  001ee	b9 01 00 00 00	 mov	 ecx, 1
  001f3	85 c9		 test	 ecx, ecx
  001f5	74 09		 je	 SHORT $LN103@get_local_
  001f7	c7 45 a4 19 00
	00 00		 mov	 DWORD PTR tv157[ebp], 25 ; 00000019H
  001fe	eb 24		 jmp	 SHORT $LN104@get_local_
$LN103@get_local_:
  00200	8b 15 00 00 00
	00		 mov	 edx, DWORD PTR ?__LINE__Var@?0??get_local_int_value@@YGHPAUENTITY@@W4INT_TYPES@@@Z@4JA
  00206	81 c2 97 00 00
	00		 add	 edx, 151		; 00000097H
  0020c	52		 push	 edx
  0020d	68 00 00 00 00	 push	 OFFSET ??_C@_0EM@DGHJLEAG@c?3?2users?2nhv90?2projects?2eech?2ap@
  00212	a1 00 00 00 00	 mov	 eax, DWORD PTR ?overload_invalid_list_type_message@@3PBDB ; overload_invalid_list_type_message
  00217	50		 push	 eax
  00218	e8 00 00 00 00	 call	 ?process_assert@@YGXPBD0H@Z ; process_assert
  0021d	c7 45 a4 00 00
	00 00		 mov	 DWORD PTR tv157[ebp], 0
$LN104@get_local_:
  00224	6a 19		 push	 25			; 00000019H
  00226	8b 4d 08	 mov	 ecx, DWORD PTR _en$[ebp]
  00229	51		 push	 ecx
  0022a	69 55 a8 b4 00
	00 00		 imul	 edx, DWORD PTR tv149[ebp], 180
  00231	8b 45 a4	 mov	 eax, DWORD PTR tv157[ebp]
  00234	8b 8c 82 00 00
	00 00		 mov	 ecx, DWORD PTR ?fn_get_local_entity_parent@@3PAY0CN@P6GPAUENTITY@@PAU1@W4LIST_TYPES@@@ZA[edx+eax*4]
  0023b	ff d1		 call	 ecx
  0023d	89 45 f4	 mov	 DWORD PTR _group$3[ebp], eax

; 541  : 
; 542  : 					if (group)

  00240	83 7d f4 00	 cmp	 DWORD PTR _group$3[ebp], 0
  00244	0f 84 86 00 00
	00		 je	 $LN30@get_local_

; 543  : 					{
; 544  : 						value = get_local_entity_int_value (group, INT_TYPE_ENGAGE_ENEMY);

  0024a	83 7d f4 00	 cmp	 DWORD PTR _group$3[ebp], 0
  0024e	74 0a		 je	 SHORT $LN105@get_local_
  00250	8b 45 f4	 mov	 eax, DWORD PTR _group$3[ebp]
  00253	8b 08		 mov	 ecx, DWORD PTR [eax]
  00255	89 4d a8	 mov	 DWORD PTR tv170[ebp], ecx
  00258	eb 24		 jmp	 SHORT $LN106@get_local_
$LN105@get_local_:
  0025a	8b 15 00 00 00
	00		 mov	 edx, DWORD PTR ?__LINE__Var@?0??get_local_int_value@@YGHPAUENTITY@@W4INT_TYPES@@@Z@4JA
  00260	81 c2 9b 00 00
	00		 add	 edx, 155		; 0000009bH
  00266	52		 push	 edx
  00267	68 00 00 00 00	 push	 OFFSET ??_C@_0EM@DGHJLEAG@c?3?2users?2nhv90?2projects?2eech?2ap@
  0026c	a1 00 00 00 00	 mov	 eax, DWORD PTR ?null_entity_pointer_message@@3PBDB ; null_entity_pointer_message
  00271	50		 push	 eax
  00272	e8 00 00 00 00	 call	 ?process_assert@@YGXPBD0H@Z ; process_assert
  00277	c7 45 a8 00 00
	00 00		 mov	 DWORD PTR tv170[ebp], 0
$LN106@get_local_:
  0027e	b9 01 00 00 00	 mov	 ecx, 1
  00283	85 c9		 test	 ecx, ecx
  00285	74 09		 je	 SHORT $LN107@get_local_
  00287	c7 45 a4 33 00
	00 00		 mov	 DWORD PTR tv178[ebp], 51 ; 00000033H
  0028e	eb 24		 jmp	 SHORT $LN108@get_local_
$LN107@get_local_:
  00290	8b 15 00 00 00
	00		 mov	 edx, DWORD PTR ?__LINE__Var@?0??get_local_int_value@@YGHPAUENTITY@@W4INT_TYPES@@@Z@4JA
  00296	81 c2 9b 00 00
	00		 add	 edx, 155		; 0000009bH
  0029c	52		 push	 edx
  0029d	68 00 00 00 00	 push	 OFFSET ??_C@_0EM@DGHJLEAG@c?3?2users?2nhv90?2projects?2eech?2ap@
  002a2	a1 00 00 00 00	 mov	 eax, DWORD PTR ?overload_invalid_int_type_message@@3PBDB ; overload_invalid_int_type_message
  002a7	50		 push	 eax
  002a8	e8 00 00 00 00	 call	 ?process_assert@@YGXPBD0H@Z ; process_assert
  002ad	c7 45 a4 00 00
	00 00		 mov	 DWORD PTR tv178[ebp], 0
$LN108@get_local_:
  002b4	6a 33		 push	 51			; 00000033H
  002b6	8b 4d f4	 mov	 ecx, DWORD PTR _group$3[ebp]
  002b9	51		 push	 ecx
  002ba	69 55 a8 5c 04
	00 00		 imul	 edx, DWORD PTR tv170[ebp], 1116
  002c1	8b 45 a4	 mov	 eax, DWORD PTR tv178[ebp]
  002c4	8b 8c 82 00 00
	00 00		 mov	 ecx, DWORD PTR ?fn_get_local_entity_int_value@@3PAY0BBH@P6GHPAUENTITY@@W4INT_TYPES@@@ZA[edx+eax*4]
  002cb	ff d1		 call	 ecx
  002cd	89 45 f8	 mov	 DWORD PTR _value$[ebp], eax
$LN30@get_local_:
$LN6@get_local_:

; 545  : 					}
; 546  : 
; 547  : 					break;
; 548  : 				}
; 549  : 			}
; 550  : 
; 551  : 			break;

  002d0	e9 21 0a 00 00	 jmp	 $LN2@get_local_
$LN31@get_local_:

; 552  : 		}
; 553  : 		////////////////////////////////////////
; 554  : 		case INT_TYPE_EXPLOSIVE_POWER:
; 555  : 		////////////////////////////////////////
; 556  : 		{
; 557  : 			value = aircraft_database[raw->mob.sub_type].explosive_power;

  002d5	8b 45 fc	 mov	 eax, DWORD PTR _raw$[ebp]
  002d8	69 08 f4 00 00
	00		 imul	 ecx, DWORD PTR [eax], 244
  002de	8b 91 e4 00 00
	00		 mov	 edx, DWORD PTR ?aircraft_database@@3PAUAIRCRAFT_DATA@@A[ecx+228]
  002e4	c1 ea 04	 shr	 edx, 4
  002e7	83 e2 0f	 and	 edx, 15			; 0000000fH
  002ea	89 55 f8	 mov	 DWORD PTR _value$[ebp], edx

; 558  : 
; 559  : 			break;

  002ed	e9 04 0a 00 00	 jmp	 $LN2@get_local_
$LN32@get_local_:

; 560  : 		}
; 561  : 		////////////////////////////////////////
; 562  : 		case INT_TYPE_EXPLOSIVE_QUALITY:
; 563  : 		////////////////////////////////////////
; 564  : 		{
; 565  : 			value = aircraft_database[raw->mob.sub_type].explosive_quality;

  002f2	8b 45 fc	 mov	 eax, DWORD PTR _raw$[ebp]
  002f5	69 08 f4 00 00
	00		 imul	 ecx, DWORD PTR [eax], 244
  002fb	8b 91 e4 00 00
	00		 mov	 edx, DWORD PTR ?aircraft_database@@3PAUAIRCRAFT_DATA@@A[ecx+228]
  00301	83 e2 0f	 and	 edx, 15			; 0000000fH
  00304	89 55 f8	 mov	 DWORD PTR _value$[ebp], edx

; 566  : 
; 567  : 			break;

  00307	e9 ea 09 00 00	 jmp	 $LN2@get_local_
$LN33@get_local_:

; 568  : 		}
; 569  : 		////////////////////////////////////////
; 570  : 		case INT_TYPE_FORCE:
; 571  : 		////////////////////////////////////////
; 572  : 		{
; 573  : 			value = aircraft_database[raw->mob.sub_type].force;

  0030c	8b 45 fc	 mov	 eax, DWORD PTR _raw$[ebp]
  0030f	69 08 f4 00 00
	00		 imul	 ecx, DWORD PTR [eax], 244
  00315	8b 91 18 00 00
	00		 mov	 edx, DWORD PTR ?aircraft_database@@3PAUAIRCRAFT_DATA@@A[ecx+24]
  0031b	89 55 f8	 mov	 DWORD PTR _value$[ebp], edx

; 574  : 
; 575  : 			break;

  0031e	e9 d3 09 00 00	 jmp	 $LN2@get_local_
$LN34@get_local_:

; 576  : 		}
; 577  : 		////////////////////////////////////////
; 578  : 		case INT_TYPE_FORCE_INFO_CATAGORY:
; 579  : 		////////////////////////////////////////
; 580  : 		{
; 581  : 			value = aircraft_database[raw->mob.sub_type].force_info_catagory;

  00323	8b 45 fc	 mov	 eax, DWORD PTR _raw$[ebp]
  00326	69 08 f4 00 00
	00		 imul	 ecx, DWORD PTR [eax], 244
  0032c	8b 91 40 00 00
	00		 mov	 edx, DWORD PTR ?aircraft_database@@3PAUAIRCRAFT_DATA@@A[ecx+64]
  00332	89 55 f8	 mov	 DWORD PTR _value$[ebp], edx

; 582  : 
; 583  : 			break;

  00335	e9 bc 09 00 00	 jmp	 $LN2@get_local_
$LN35@get_local_:

; 584  : 		}
; 585  : 		////////////////////////////////////////
; 586  : 		case INT_TYPE_FORMATION_POSITION:
; 587  : 		////////////////////////////////////////
; 588  : 		{
; 589  : 			value = raw->formation_position;

  0033a	8b 45 fc	 mov	 eax, DWORD PTR _raw$[ebp]
  0033d	8b 88 2c 01 00
	00		 mov	 ecx, DWORD PTR [eax+300]
  00343	83 e1 1f	 and	 ecx, 31			; 0000001fH
  00346	89 4d f8	 mov	 DWORD PTR _value$[ebp], ecx

; 590  : 
; 591  : 			break;

  00349	e9 a8 09 00 00	 jmp	 $LN2@get_local_
$LN36@get_local_:

; 592  : 		}
; 593  : 		////////////////////////////////////////
; 594  : 		case INT_TYPE_GROUP_LEADER:
; 595  : 		////////////////////////////////////////
; 596  : 		{
; 597  : 			if ((get_local_entity_parent (en, LIST_TYPE_MEMBER)) && (get_local_entity_child_pred (en, LIST_TYPE_MEMBER) == NULL))

  0034e	83 7d 08 00	 cmp	 DWORD PTR _en$[ebp], 0
  00352	74 0a		 je	 SHORT $LN109@get_local_
  00354	8b 45 08	 mov	 eax, DWORD PTR _en$[ebp]
  00357	8b 08		 mov	 ecx, DWORD PTR [eax]
  00359	89 4d a8	 mov	 DWORD PTR tv215[ebp], ecx
  0035c	eb 1d		 jmp	 SHORT $LN110@get_local_
$LN109@get_local_:
  0035e	68 55 02 00 00	 push	 597			; 00000255H
  00363	68 00 00 00 00	 push	 OFFSET ??_C@_0EM@DGHJLEAG@c?3?2users?2nhv90?2projects?2eech?2ap@
  00368	8b 15 00 00 00
	00		 mov	 edx, DWORD PTR ?null_entity_pointer_message@@3PBDB ; null_entity_pointer_message
  0036e	52		 push	 edx
  0036f	e8 00 00 00 00	 call	 ?process_assert@@YGXPBD0H@Z ; process_assert
  00374	c7 45 a8 00 00
	00 00		 mov	 DWORD PTR tv215[ebp], 0
$LN110@get_local_:
  0037b	b8 01 00 00 00	 mov	 eax, 1
  00380	85 c0		 test	 eax, eax
  00382	74 09		 je	 SHORT $LN111@get_local_
  00384	c7 45 a4 19 00
	00 00		 mov	 DWORD PTR tv222[ebp], 25 ; 00000019H
  0038b	eb 1d		 jmp	 SHORT $LN112@get_local_
$LN111@get_local_:
  0038d	68 55 02 00 00	 push	 597			; 00000255H
  00392	68 00 00 00 00	 push	 OFFSET ??_C@_0EM@DGHJLEAG@c?3?2users?2nhv90?2projects?2eech?2ap@
  00397	8b 0d 00 00 00
	00		 mov	 ecx, DWORD PTR ?overload_invalid_list_type_message@@3PBDB ; overload_invalid_list_type_message
  0039d	51		 push	 ecx
  0039e	e8 00 00 00 00	 call	 ?process_assert@@YGXPBD0H@Z ; process_assert
  003a3	c7 45 a4 00 00
	00 00		 mov	 DWORD PTR tv222[ebp], 0
$LN112@get_local_:
  003aa	6a 19		 push	 25			; 00000019H
  003ac	8b 55 08	 mov	 edx, DWORD PTR _en$[ebp]
  003af	52		 push	 edx
  003b0	69 45 a8 b4 00
	00 00		 imul	 eax, DWORD PTR tv215[ebp], 180
  003b7	8b 4d a4	 mov	 ecx, DWORD PTR tv222[ebp]
  003ba	8b 94 88 00 00
	00 00		 mov	 edx, DWORD PTR ?fn_get_local_entity_parent@@3PAY0CN@P6GPAUENTITY@@PAU1@W4LIST_TYPES@@@ZA[eax+ecx*4]
  003c1	ff d2		 call	 edx
  003c3	85 c0		 test	 eax, eax
  003c5	0f 84 82 00 00
	00		 je	 $LN37@get_local_
  003cb	83 7d 08 00	 cmp	 DWORD PTR _en$[ebp], 0
  003cf	74 0a		 je	 SHORT $LN113@get_local_
  003d1	8b 45 08	 mov	 eax, DWORD PTR _en$[ebp]
  003d4	8b 08		 mov	 ecx, DWORD PTR [eax]
  003d6	89 4d a8	 mov	 DWORD PTR tv234[ebp], ecx
  003d9	eb 1d		 jmp	 SHORT $LN114@get_local_
$LN113@get_local_:
  003db	68 55 02 00 00	 push	 597			; 00000255H
  003e0	68 00 00 00 00	 push	 OFFSET ??_C@_0EM@DGHJLEAG@c?3?2users?2nhv90?2projects?2eech?2ap@
  003e5	8b 15 00 00 00
	00		 mov	 edx, DWORD PTR ?null_entity_pointer_message@@3PBDB ; null_entity_pointer_message
  003eb	52		 push	 edx
  003ec	e8 00 00 00 00	 call	 ?process_assert@@YGXPBD0H@Z ; process_assert
  003f1	c7 45 a8 00 00
	00 00		 mov	 DWORD PTR tv234[ebp], 0
$LN114@get_local_:
  003f8	b8 01 00 00 00	 mov	 eax, 1
  003fd	85 c0		 test	 eax, eax
  003ff	74 09		 je	 SHORT $LN115@get_local_
  00401	c7 45 a4 19 00
	00 00		 mov	 DWORD PTR tv241[ebp], 25 ; 00000019H
  00408	eb 1d		 jmp	 SHORT $LN116@get_local_
$LN115@get_local_:
  0040a	68 55 02 00 00	 push	 597			; 00000255H
  0040f	68 00 00 00 00	 push	 OFFSET ??_C@_0EM@DGHJLEAG@c?3?2users?2nhv90?2projects?2eech?2ap@
  00414	8b 0d 00 00 00
	00		 mov	 ecx, DWORD PTR ?overload_invalid_list_type_message@@3PBDB ; overload_invalid_list_type_message
  0041a	51		 push	 ecx
  0041b	e8 00 00 00 00	 call	 ?process_assert@@YGXPBD0H@Z ; process_assert
  00420	c7 45 a4 00 00
	00 00		 mov	 DWORD PTR tv241[ebp], 0
$LN116@get_local_:
  00427	6a 19		 push	 25			; 00000019H
  00429	8b 55 08	 mov	 edx, DWORD PTR _en$[ebp]
  0042c	52		 push	 edx
  0042d	69 45 a8 b4 00
	00 00		 imul	 eax, DWORD PTR tv234[ebp], 180
  00434	8b 4d a4	 mov	 ecx, DWORD PTR tv241[ebp]
  00437	8b 94 88 00 00
	00 00		 mov	 edx, DWORD PTR ?fn_get_local_entity_child_pred@@3PAY0CN@P6GPAUENTITY@@PAU1@W4LIST_TYPES@@@ZA[eax+ecx*4]
  0043e	ff d2		 call	 edx
  00440	85 c0		 test	 eax, eax
  00442	75 09		 jne	 SHORT $LN37@get_local_

; 598  : 			{
; 599  : 				value = TRUE;

  00444	c7 45 f8 01 00
	00 00		 mov	 DWORD PTR _value$[ebp], 1

; 600  : 			}
; 601  : 			else

  0044b	eb 07		 jmp	 SHORT $LN38@get_local_
$LN37@get_local_:

; 602  : 			{
; 603  : 				value = FALSE;

  0044d	c7 45 f8 00 00
	00 00		 mov	 DWORD PTR _value$[ebp], 0
$LN38@get_local_:

; 604  : 			}
; 605  : 
; 606  : 			break;

  00454	e9 9d 08 00 00	 jmp	 $LN2@get_local_
$LN39@get_local_:

; 607  : 		}
; 608  : 		////////////////////////////////////////
; 609  : 		case INT_TYPE_GROUP_MEMBER_ID:
; 610  : 		////////////////////////////////////////
; 611  : 		{
; 612  : 			value = raw->group_member_number + 1;

  00459	8b 45 fc	 mov	 eax, DWORD PTR _raw$[ebp]
  0045c	8b 88 2c 01 00
	00		 mov	 ecx, DWORD PTR [eax+300]
  00462	c1 e9 10	 shr	 ecx, 16			; 00000010H
  00465	83 e1 1f	 and	 ecx, 31			; 0000001fH
  00468	83 c1 01	 add	 ecx, 1
  0046b	89 4d f8	 mov	 DWORD PTR _value$[ebp], ecx

; 613  : 
; 614  : 			break;

  0046e	e9 83 08 00 00	 jmp	 $LN2@get_local_
$LN40@get_local_:

; 615  : 		}
; 616  : 		////////////////////////////////////////
; 617  : 		case INT_TYPE_GROUP_MEMBER_NUMBER:
; 618  : 		////////////////////////////////////////
; 619  : 		{
; 620  : 			value = raw->group_member_number;

  00473	8b 45 fc	 mov	 eax, DWORD PTR _raw$[ebp]
  00476	8b 88 2c 01 00
	00		 mov	 ecx, DWORD PTR [eax+300]
  0047c	c1 e9 10	 shr	 ecx, 16			; 00000010H
  0047f	83 e1 1f	 and	 ecx, 31			; 0000001fH
  00482	89 4d f8	 mov	 DWORD PTR _value$[ebp], ecx

; 621  : 
; 622  : 			break;

  00485	e9 6c 08 00 00	 jmp	 $LN2@get_local_
$LN41@get_local_:

; 623  : 		}
; 624  : 		////////////////////////////////////////
; 625  : 		case INT_TYPE_GROUP_MEMBER_STATE:
; 626  : 		////////////////////////////////////////
; 627  : 		{
; 628  : 			entity
; 629  : 				*task;
; 630  : 
; 631  : 			//
; 632  : 			// First check for being on takeoff queue
; 633  : 			//
; 634  : 
; 635  : 			if (get_local_entity_parent (en, LIST_TYPE_TAKEOFF_QUEUE))

  0048a	83 7d 08 00	 cmp	 DWORD PTR _en$[ebp], 0
  0048e	74 0a		 je	 SHORT $LN117@get_local_
  00490	8b 45 08	 mov	 eax, DWORD PTR _en$[ebp]
  00493	8b 08		 mov	 ecx, DWORD PTR [eax]
  00495	89 4d a8	 mov	 DWORD PTR tv260[ebp], ecx
  00498	eb 1d		 jmp	 SHORT $LN118@get_local_
$LN117@get_local_:
  0049a	68 7b 02 00 00	 push	 635			; 0000027bH
  0049f	68 00 00 00 00	 push	 OFFSET ??_C@_0EM@DGHJLEAG@c?3?2users?2nhv90?2projects?2eech?2ap@
  004a4	8b 15 00 00 00
	00		 mov	 edx, DWORD PTR ?null_entity_pointer_message@@3PBDB ; null_entity_pointer_message
  004aa	52		 push	 edx
  004ab	e8 00 00 00 00	 call	 ?process_assert@@YGXPBD0H@Z ; process_assert
  004b0	c7 45 a8 00 00
	00 00		 mov	 DWORD PTR tv260[ebp], 0
$LN118@get_local_:
  004b7	b8 01 00 00 00	 mov	 eax, 1
  004bc	85 c0		 test	 eax, eax
  004be	74 09		 je	 SHORT $LN119@get_local_
  004c0	c7 45 a4 25 00
	00 00		 mov	 DWORD PTR tv267[ebp], 37 ; 00000025H
  004c7	eb 1d		 jmp	 SHORT $LN120@get_local_
$LN119@get_local_:
  004c9	68 7b 02 00 00	 push	 635			; 0000027bH
  004ce	68 00 00 00 00	 push	 OFFSET ??_C@_0EM@DGHJLEAG@c?3?2users?2nhv90?2projects?2eech?2ap@
  004d3	8b 0d 00 00 00
	00		 mov	 ecx, DWORD PTR ?overload_invalid_list_type_message@@3PBDB ; overload_invalid_list_type_message
  004d9	51		 push	 ecx
  004da	e8 00 00 00 00	 call	 ?process_assert@@YGXPBD0H@Z ; process_assert
  004df	c7 45 a4 00 00
	00 00		 mov	 DWORD PTR tv267[ebp], 0
$LN120@get_local_:
  004e6	6a 25		 push	 37			; 00000025H
  004e8	8b 55 08	 mov	 edx, DWORD PTR _en$[ebp]
  004eb	52		 push	 edx
  004ec	69 45 a8 b4 00
	00 00		 imul	 eax, DWORD PTR tv260[ebp], 180
  004f3	8b 4d a4	 mov	 ecx, DWORD PTR tv267[ebp]
  004f6	8b 94 88 00 00
	00 00		 mov	 edx, DWORD PTR ?fn_get_local_entity_parent@@3PAY0CN@P6GPAUENTITY@@PAU1@W4LIST_TYPES@@@ZA[eax+ecx*4]
  004fd	ff d2		 call	 edx
  004ff	85 c0		 test	 eax, eax
  00501	74 0c		 je	 SHORT $LN42@get_local_

; 636  : 			{
; 637  : 				value = GROUP_MEMBER_STATE_WAITING;

  00503	c7 45 f8 01 00
	00 00		 mov	 DWORD PTR _value$[ebp], 1

; 638  : 
; 639  : 				break;

  0050a	e9 e7 07 00 00	 jmp	 $LN2@get_local_
$LN42@get_local_:

; 640  : 			}
; 641  : 
; 642  : 			//
; 643  : 			// Check Task
; 644  : 			//
; 645  : 
; 646  : 			task = get_local_entity_current_task (en);

  0050f	8b 45 08	 mov	 eax, DWORD PTR _en$[ebp]
  00512	50		 push	 eax
  00513	e8 00 00 00 00	 call	 ?get_local_entity_current_task@@YGPAUENTITY@@PAU1@@Z ; get_local_entity_current_task
  00518	89 45 f0	 mov	 DWORD PTR _task$2[ebp], eax

; 647  : 
; 648  : 			if (task)

  0051b	83 7d f0 00	 cmp	 DWORD PTR _task$2[ebp], 0
  0051f	0f 84 f3 01 00
	00		 je	 $LN43@get_local_

; 649  : 			{
; 650  : 				if (task == get_local_entity_primary_task (en))

  00525	8b 45 08	 mov	 eax, DWORD PTR _en$[ebp]
  00528	50		 push	 eax
  00529	e8 00 00 00 00	 call	 ?get_local_entity_primary_task@@YGPAUENTITY@@PAU1@@Z ; get_local_entity_primary_task
  0052e	39 45 f0	 cmp	 DWORD PTR _task$2[ebp], eax
  00531	0f 85 92 00 00
	00		 jne	 $LN45@get_local_

; 651  : 				{
; 652  : 					//
; 653  : 					// Member is on primary task
; 654  : 					//
; 655  : 
; 656  : 					if (get_local_entity_int_value (task, INT_TYPE_TASK_STATE) == TASK_STATE_COMPLETED)

  00537	83 7d f0 00	 cmp	 DWORD PTR _task$2[ebp], 0
  0053b	74 0a		 je	 SHORT $LN121@get_local_
  0053d	8b 45 f0	 mov	 eax, DWORD PTR _task$2[ebp]
  00540	8b 08		 mov	 ecx, DWORD PTR [eax]
  00542	89 4d a8	 mov	 DWORD PTR tv285[ebp], ecx
  00545	eb 1d		 jmp	 SHORT $LN122@get_local_
$LN121@get_local_:
  00547	68 90 02 00 00	 push	 656			; 00000290H
  0054c	68 00 00 00 00	 push	 OFFSET ??_C@_0EM@DGHJLEAG@c?3?2users?2nhv90?2projects?2eech?2ap@
  00551	8b 15 00 00 00
	00		 mov	 edx, DWORD PTR ?null_entity_pointer_message@@3PBDB ; null_entity_pointer_message
  00557	52		 push	 edx
  00558	e8 00 00 00 00	 call	 ?process_assert@@YGXPBD0H@Z ; process_assert
  0055d	c7 45 a8 00 00
	00 00		 mov	 DWORD PTR tv285[ebp], 0
$LN122@get_local_:
  00564	b8 01 00 00 00	 mov	 eax, 1
  00569	85 c0		 test	 eax, eax
  0056b	74 09		 je	 SHORT $LN123@get_local_
  0056d	c7 45 a4 e3 00
	00 00		 mov	 DWORD PTR tv292[ebp], 227 ; 000000e3H
  00574	eb 1d		 jmp	 SHORT $LN124@get_local_
$LN123@get_local_:
  00576	68 90 02 00 00	 push	 656			; 00000290H
  0057b	68 00 00 00 00	 push	 OFFSET ??_C@_0EM@DGHJLEAG@c?3?2users?2nhv90?2projects?2eech?2ap@
  00580	8b 0d 00 00 00
	00		 mov	 ecx, DWORD PTR ?overload_invalid_int_type_message@@3PBDB ; overload_invalid_int_type_message
  00586	51		 push	 ecx
  00587	e8 00 00 00 00	 call	 ?process_assert@@YGXPBD0H@Z ; process_assert
  0058c	c7 45 a4 00 00
	00 00		 mov	 DWORD PTR tv292[ebp], 0
$LN124@get_local_:
  00593	68 e3 00 00 00	 push	 227			; 000000e3H
  00598	8b 55 f0	 mov	 edx, DWORD PTR _task$2[ebp]
  0059b	52		 push	 edx
  0059c	69 45 a8 5c 04
	00 00		 imul	 eax, DWORD PTR tv285[ebp], 1116
  005a3	8b 4d a4	 mov	 ecx, DWORD PTR tv292[ebp]
  005a6	8b 94 88 00 00
	00 00		 mov	 edx, DWORD PTR ?fn_get_local_entity_int_value@@3PAY0BBH@P6GHPAUENTITY@@W4INT_TYPES@@@ZA[eax+ecx*4]
  005ad	ff d2		 call	 edx
  005af	83 f8 02	 cmp	 eax, 2
  005b2	75 09		 jne	 SHORT $LN47@get_local_

; 657  : 					{
; 658  : 						value = GROUP_MEMBER_STATE_RETURNING;

  005b4	c7 45 f8 05 00
	00 00		 mov	 DWORD PTR _value$[ebp], 5

; 659  : 					}
; 660  : 					else

  005bb	eb 07		 jmp	 SHORT $LN48@get_local_
$LN47@get_local_:

; 661  : 					{
; 662  : 						value = GROUP_MEMBER_STATE_NAVIGATING;

  005bd	c7 45 f8 03 00
	00 00		 mov	 DWORD PTR _value$[ebp], 3
$LN48@get_local_:

; 663  : 					}
; 664  : 				}
; 665  : 				else

  005c4	e9 4d 01 00 00	 jmp	 $LN8@get_local_
$LN45@get_local_:

; 666  : 				{
; 667  : 					//
; 668  : 					// Not A Primary Task
; 669  : 					//
; 670  : 
; 671  : 					switch (get_local_entity_int_value (task, INT_TYPE_ENTITY_SUB_TYPE))

  005c9	83 7d f0 00	 cmp	 DWORD PTR _task$2[ebp], 0
  005cd	74 0a		 je	 SHORT $LN125@get_local_
  005cf	8b 45 f0	 mov	 eax, DWORD PTR _task$2[ebp]
  005d2	8b 08		 mov	 ecx, DWORD PTR [eax]
  005d4	89 4d a8	 mov	 DWORD PTR tv304[ebp], ecx
  005d7	eb 1d		 jmp	 SHORT $LN126@get_local_
$LN125@get_local_:
  005d9	68 9f 02 00 00	 push	 671			; 0000029fH
  005de	68 00 00 00 00	 push	 OFFSET ??_C@_0EM@DGHJLEAG@c?3?2users?2nhv90?2projects?2eech?2ap@
  005e3	8b 15 00 00 00
	00		 mov	 edx, DWORD PTR ?null_entity_pointer_message@@3PBDB ; null_entity_pointer_message
  005e9	52		 push	 edx
  005ea	e8 00 00 00 00	 call	 ?process_assert@@YGXPBD0H@Z ; process_assert
  005ef	c7 45 a8 00 00
	00 00		 mov	 DWORD PTR tv304[ebp], 0
$LN126@get_local_:
  005f6	b8 01 00 00 00	 mov	 eax, 1
  005fb	85 c0		 test	 eax, eax
  005fd	74 09		 je	 SHORT $LN127@get_local_
  005ff	c7 45 a4 34 00
	00 00		 mov	 DWORD PTR tv311[ebp], 52 ; 00000034H
  00606	eb 1d		 jmp	 SHORT $LN128@get_local_
$LN127@get_local_:
  00608	68 9f 02 00 00	 push	 671			; 0000029fH
  0060d	68 00 00 00 00	 push	 OFFSET ??_C@_0EM@DGHJLEAG@c?3?2users?2nhv90?2projects?2eech?2ap@
  00612	8b 0d 00 00 00
	00		 mov	 ecx, DWORD PTR ?overload_invalid_int_type_message@@3PBDB ; overload_invalid_int_type_message
  00618	51		 push	 ecx
  00619	e8 00 00 00 00	 call	 ?process_assert@@YGXPBD0H@Z ; process_assert
  0061e	c7 45 a4 00 00
	00 00		 mov	 DWORD PTR tv311[ebp], 0
$LN128@get_local_:
  00625	6a 34		 push	 52			; 00000034H
  00627	8b 55 f0	 mov	 edx, DWORD PTR _task$2[ebp]
  0062a	52		 push	 edx
  0062b	69 45 a8 5c 04
	00 00		 imul	 eax, DWORD PTR tv304[ebp], 1116
  00632	8b 4d a4	 mov	 ecx, DWORD PTR tv311[ebp]
  00635	8b 94 88 00 00
	00 00		 mov	 edx, DWORD PTR ?fn_get_local_entity_int_value@@3PAY0BBH@P6GHPAUENTITY@@W4INT_TYPES@@@ZA[eax+ecx*4]
  0063c	ff d2		 call	 edx
  0063e	89 45 a0	 mov	 DWORD PTR tv317[ebp], eax
  00641	8b 45 a0	 mov	 eax, DWORD PTR tv317[ebp]
  00644	83 e8 09	 sub	 eax, 9
  00647	89 45 a0	 mov	 DWORD PTR tv317[ebp], eax
  0064a	83 7d a0 0e	 cmp	 DWORD PTR tv317[ebp], 14 ; 0000000eH
  0064e	77 35		 ja	 SHORT $LN52@get_local_
  00650	8b 4d a0	 mov	 ecx, DWORD PTR tv317[ebp]
  00653	0f b6 91 00 00
	00 00		 movzx	 edx, BYTE PTR $LN156@get_local_[ecx]
  0065a	ff 24 95 00 00
	00 00		 jmp	 DWORD PTR $LN161@get_local_[edx*4]
$LN49@get_local_:

; 672  : 					{
; 673  : 						case ENTITY_SUB_TYPE_TASK_ENGAGE:
; 674  : 						{
; 675  : 							value = GROUP_MEMBER_STATE_ATTACKING;

  00661	c7 45 f8 04 00
	00 00		 mov	 DWORD PTR _value$[ebp], 4

; 676  : 
; 677  : 							break;

  00668	e9 a9 00 00 00	 jmp	 $LN8@get_local_
$LN50@get_local_:

; 678  : 						}
; 679  : 						case ENTITY_SUB_TYPE_TASK_LANDING:
; 680  : 						case ENTITY_SUB_TYPE_TASK_LANDING_HOLDING:
; 681  : 						{
; 682  : 							value = GROUP_MEMBER_STATE_LANDING;

  0066d	c7 45 f8 06 00
	00 00		 mov	 DWORD PTR _value$[ebp], 6

; 683  : 
; 684  : 							break;

  00674	e9 9d 00 00 00	 jmp	 $LN8@get_local_
$LN51@get_local_:

; 685  : 						}
; 686  : 						case ENTITY_SUB_TYPE_TASK_TAKEOFF:
; 687  : 						case ENTITY_SUB_TYPE_TASK_TAKEOFF_HOLDING:
; 688  : 						{
; 689  : 							value = GROUP_MEMBER_STATE_TAKING_OFF;

  00679	c7 45 f8 02 00
	00 00		 mov	 DWORD PTR _value$[ebp], 2

; 690  : 
; 691  : 							break;

  00680	e9 91 00 00 00	 jmp	 $LN8@get_local_
$LN52@get_local_:

; 692  : 						}
; 693  : 						default:
; 694  : 						{
; 695  : 							debug_fatal ("AC_INT: Invalid Task Type %d For Get Group Member State",

  00685	83 7d f0 00	 cmp	 DWORD PTR _task$2[ebp], 0
  00689	74 0a		 je	 SHORT $LN129@get_local_
  0068b	8b 45 f0	 mov	 eax, DWORD PTR _task$2[ebp]
  0068e	8b 08		 mov	 ecx, DWORD PTR [eax]
  00690	89 4d a8	 mov	 DWORD PTR tv324[ebp], ecx
  00693	eb 24		 jmp	 SHORT $LN130@get_local_
$LN129@get_local_:
  00695	8b 15 00 00 00
	00		 mov	 edx, DWORD PTR ?__LINE__Var@?0??get_local_int_value@@YGHPAUENTITY@@W4INT_TYPES@@@Z@4JA
  0069b	81 c2 33 01 00
	00		 add	 edx, 307		; 00000133H
  006a1	52		 push	 edx
  006a2	68 00 00 00 00	 push	 OFFSET ??_C@_0EM@DGHJLEAG@c?3?2users?2nhv90?2projects?2eech?2ap@
  006a7	a1 00 00 00 00	 mov	 eax, DWORD PTR ?null_entity_pointer_message@@3PBDB ; null_entity_pointer_message
  006ac	50		 push	 eax
  006ad	e8 00 00 00 00	 call	 ?process_assert@@YGXPBD0H@Z ; process_assert
  006b2	c7 45 a8 00 00
	00 00		 mov	 DWORD PTR tv324[ebp], 0
$LN130@get_local_:
  006b9	b9 01 00 00 00	 mov	 ecx, 1
  006be	85 c9		 test	 ecx, ecx
  006c0	74 09		 je	 SHORT $LN131@get_local_
  006c2	c7 45 a4 34 00
	00 00		 mov	 DWORD PTR tv332[ebp], 52 ; 00000034H
  006c9	eb 24		 jmp	 SHORT $LN132@get_local_
$LN131@get_local_:
  006cb	8b 15 00 00 00
	00		 mov	 edx, DWORD PTR ?__LINE__Var@?0??get_local_int_value@@YGHPAUENTITY@@W4INT_TYPES@@@Z@4JA
  006d1	81 c2 33 01 00
	00		 add	 edx, 307		; 00000133H
  006d7	52		 push	 edx
  006d8	68 00 00 00 00	 push	 OFFSET ??_C@_0EM@DGHJLEAG@c?3?2users?2nhv90?2projects?2eech?2ap@
  006dd	a1 00 00 00 00	 mov	 eax, DWORD PTR ?overload_invalid_int_type_message@@3PBDB ; overload_invalid_int_type_message
  006e2	50		 push	 eax
  006e3	e8 00 00 00 00	 call	 ?process_assert@@YGXPBD0H@Z ; process_assert
  006e8	c7 45 a4 00 00
	00 00		 mov	 DWORD PTR tv332[ebp], 0
$LN132@get_local_:
  006ef	6a 34		 push	 52			; 00000034H
  006f1	8b 4d f0	 mov	 ecx, DWORD PTR _task$2[ebp]
  006f4	51		 push	 ecx
  006f5	69 55 a8 5c 04
	00 00		 imul	 edx, DWORD PTR tv324[ebp], 1116
  006fc	8b 45 a4	 mov	 eax, DWORD PTR tv332[ebp]
  006ff	8b 8c 82 00 00
	00 00		 mov	 ecx, DWORD PTR ?fn_get_local_entity_int_value@@3PAY0BBH@P6GHPAUENTITY@@W4INT_TYPES@@@ZA[edx+eax*4]
  00706	ff d1		 call	 ecx
  00708	50		 push	 eax
  00709	68 00 00 00 00	 push	 OFFSET ??_C@_0DI@BMCLHKLD@AC_INT?3?5Invalid?5Task?5Type?5?$CFd?5Fo@
  0070e	e8 00 00 00 00	 call	 ?debug_fatal@@YAXPBDZZ	; debug_fatal
  00713	83 c4 08	 add	 esp, 8
$LN8@get_local_:

; 696  : 												get_local_entity_int_value (task, INT_TYPE_ENTITY_SUB_TYPE));
; 697  : 						}
; 698  : 					}
; 699  : 				}
; 700  : 			}
; 701  : 			else

  00716	eb 07		 jmp	 SHORT $LN44@get_local_
$LN43@get_local_:

; 702  : 			{
; 703  : 				value = GROUP_MEMBER_STATE_IDLE;

  00718	c7 45 f8 00 00
	00 00		 mov	 DWORD PTR _value$[ebp], 0
$LN44@get_local_:

; 704  : 			}
; 705  : 
; 706  : 			break;

  0071f	e9 d2 05 00 00	 jmp	 $LN2@get_local_
$LN53@get_local_:

; 707  : 		}
; 708  : 		////////////////////////////////////////
; 709  : 		case INT_TYPE_GUNSHIP_RADAR_LOS_CLEAR:
; 710  : 		////////////////////////////////////////
; 711  : 		{
; 712  : 			value = raw->gunship_radar_los_clear;

  00724	8b 45 fc	 mov	 eax, DWORD PTR _raw$[ebp]
  00727	8b 88 2c 01 00
	00		 mov	 ecx, DWORD PTR [eax+300]
  0072d	c1 e9 0d	 shr	 ecx, 13			; 0000000dH
  00730	83 e1 01	 and	 ecx, 1
  00733	89 4d f8	 mov	 DWORD PTR _value$[ebp], ecx

; 713  : 
; 714  : 			break;

  00736	e9 bb 05 00 00	 jmp	 $LN2@get_local_
$LN54@get_local_:

; 715  : 		}
; 716  : 		////////////////////////////////////////
; 717  : 		case INT_TYPE_GUNSHIP_TYPE:
; 718  : 		////////////////////////////////////////
; 719  : 		{
; 720  : 			value = aircraft_database[raw->mob.sub_type].gunship_type;

  0073b	8b 45 fc	 mov	 eax, DWORD PTR _raw$[ebp]
  0073e	69 08 f4 00 00
	00		 imul	 ecx, DWORD PTR [eax], 244
  00744	8b 91 14 00 00
	00		 mov	 edx, DWORD PTR ?aircraft_database@@3PAUAIRCRAFT_DATA@@A[ecx+20]
  0074a	89 55 f8	 mov	 DWORD PTR _value$[ebp], edx

; 721  : 
; 722  : 			break;

  0074d	e9 a4 05 00 00	 jmp	 $LN2@get_local_
$LN55@get_local_:

; 723  : 		}
; 724  : 		////////////////////////////////////////
; 725  : 		case INT_TYPE_IDENTIFY_AIRCRAFT:
; 726  : 		////////////////////////////////////////
; 727  : 		{
; 728  : 			value = TRUE;

  00752	c7 45 f8 01 00
	00 00		 mov	 DWORD PTR _value$[ebp], 1

; 729  : 
; 730  : 			break;

  00759	e9 98 05 00 00	 jmp	 $LN2@get_local_
$LN56@get_local_:

; 731  : 		}
; 732  : 		////////////////////////////////////////
; 733  : 		case INT_TYPE_ID_NUMBER:
; 734  : 		////////////////////////////////////////
; 735  : 		{
; 736  : 			value = raw->id_number;

  0075e	8b 45 fc	 mov	 eax, DWORD PTR _raw$[ebp]
  00761	8b 88 38 01 00
	00		 mov	 ecx, DWORD PTR [eax+312]
  00767	89 4d f8	 mov	 DWORD PTR _value$[ebp], ecx

; 737  : 
; 738  : 			break;

  0076a	e9 87 05 00 00	 jmp	 $LN2@get_local_
$LN57@get_local_:

; 739  : 		}
; 740  : 		////////////////////////////////////////
; 741  : 		case INT_TYPE_ID_NUMBER_SIGNIFICANT_DIGITS:
; 742  : 		////////////////////////////////////////
; 743  : 		{
; 744  : 			value = raw->id_number_significant_digits;

  0076f	8b 45 fc	 mov	 eax, DWORD PTR _raw$[ebp]
  00772	8b 88 2c 01 00
	00		 mov	 ecx, DWORD PTR [eax+300]
  00778	c1 e9 15	 shr	 ecx, 21			; 00000015H
  0077b	83 e1 07	 and	 ecx, 7
  0077e	89 4d f8	 mov	 DWORD PTR _value$[ebp], ecx

; 745  : 
; 746  : 			break;

  00781	e9 70 05 00 00	 jmp	 $LN2@get_local_
$LN58@get_local_:

; 747  : 		}
; 748  : 		////////////////////////////////////////
; 749  : 		case INT_TYPE_INITIAL_DAMAGE_LEVEL:
; 750  : 		////////////////////////////////////////
; 751  : 		{
; 752  : 			value = aircraft_database[raw->mob.sub_type].initial_damage_level;

  00786	8b 45 fc	 mov	 eax, DWORD PTR _raw$[ebp]
  00789	69 08 f4 00 00
	00		 imul	 ecx, DWORD PTR [eax], 244
  0078f	8b 91 e0 00 00
	00		 mov	 edx, DWORD PTR ?aircraft_database@@3PAUAIRCRAFT_DATA@@A[ecx+224]
  00795	89 55 f8	 mov	 DWORD PTR _value$[ebp], edx

; 753  : 
; 754  : 			break;

  00798	e9 59 05 00 00	 jmp	 $LN2@get_local_
$LN59@get_local_:

; 755  : 		}
; 756  : 		////////////////////////////////////////
; 757  : 		case INT_TYPE_LANDED:
; 758  : 		////////////////////////////////////////
; 759  : 		{
; 760  : 
; 761  : 			switch (raw->operational_state)

  0079d	8b 45 fc	 mov	 eax, DWORD PTR _raw$[ebp]
  007a0	8b 88 2c 01 00
	00		 mov	 ecx, DWORD PTR [eax+300]
  007a6	c1 e9 05	 shr	 ecx, 5
  007a9	83 e1 1f	 and	 ecx, 31			; 0000001fH
  007ac	89 4d a8	 mov	 DWORD PTR tv362[ebp], ecx
  007af	83 7d a8 0c	 cmp	 DWORD PTR tv362[ebp], 12 ; 0000000cH
  007b3	77 23		 ja	 SHORT $LN62@get_local_
  007b5	8b 55 a8	 mov	 edx, DWORD PTR tv362[ebp]
  007b8	0f b6 82 00 00
	00 00		 movzx	 eax, BYTE PTR $LN157@get_local_[edx]
  007bf	ff 24 85 00 00
	00 00		 jmp	 DWORD PTR $LN162@get_local_[eax*4]
$LN60@get_local_:

; 762  : 			{
; 763  : 
; 764  : 				case OPERATIONAL_STATE_LANDED:
; 765  : 				//case OPERATIONAL_STATE_REPAIRING:
; 766  : 				//case OPERATIONAL_STATE_REFUELING:
; 767  : 				//case OPERATIONAL_STATE_REARMING:
; 768  : 				{
; 769  : 
; 770  : 					value = TRUE;

  007c6	c7 45 f8 01 00
	00 00		 mov	 DWORD PTR _value$[ebp], 1

; 771  : 
; 772  : 					break;

  007cd	eb 16		 jmp	 SHORT $LN10@get_local_
$LN61@get_local_:

; 773  : 				}
; 774  : 
; 775  : 				case OPERATIONAL_STATE_UNKNOWN:
; 776  : 				case OPERATIONAL_STATE_DEAD:
; 777  : 				case OPERATIONAL_STATE_DYING:
; 778  : 				case OPERATIONAL_STATE_LANDING:
; 779  : 				case OPERATIONAL_STATE_LANDING_HOLDING:
; 780  : 				case OPERATIONAL_STATE_NAVIGATING:
; 781  : 				case OPERATIONAL_STATE_STOPPED:
; 782  : 				case OPERATIONAL_STATE_TAKEOFF:
; 783  : 				case OPERATIONAL_STATE_TAKEOFF_HOLDING:
; 784  : 				case OPERATIONAL_STATE_TAXIING:
; 785  : 				case OPERATIONAL_STATE_WAITING:
; 786  : 				{
; 787  : 
; 788  : 					value = FALSE;

  007cf	c7 45 f8 00 00
	00 00		 mov	 DWORD PTR _value$[ebp], 0

; 789  : 
; 790  : 					break;

  007d6	eb 0d		 jmp	 SHORT $LN10@get_local_
$LN62@get_local_:

; 791  : 				}
; 792  : 
; 793  : 				default:
; 794  : 				{
; 795  : 
; 796  : 					debug_fatal ("AC_INT: unknown operational state");

  007d8	68 00 00 00 00	 push	 OFFSET ??_C@_0CC@EFENICDA@AC_INT?3?5unknown?5operational?5sta@
  007dd	e8 00 00 00 00	 call	 ?debug_fatal@@YAXPBDZZ	; debug_fatal
  007e2	83 c4 04	 add	 esp, 4
$LN10@get_local_:

; 797  : 				}
; 798  : 			}
; 799  : 
; 800  : 			break;

  007e5	e9 0c 05 00 00	 jmp	 $LN2@get_local_
$LN63@get_local_:

; 801  : 		}
; 802  : 		////////////////////////////////////////
; 803  : 		case INT_TYPE_LIGHTS_ON:
; 804  : 		////////////////////////////////////////
; 805  : 		{
; 806  : 			value = raw->lights_on;

  007ea	8b 45 fc	 mov	 eax, DWORD PTR _raw$[ebp]
  007ed	8b 88 2c 01 00
	00		 mov	 ecx, DWORD PTR [eax+300]
  007f3	c1 e9 0e	 shr	 ecx, 14			; 0000000eH
  007f6	83 e1 01	 and	 ecx, 1
  007f9	89 4d f8	 mov	 DWORD PTR _value$[ebp], ecx

; 807  : 
; 808  : 			break;

  007fc	e9 f5 04 00 00	 jmp	 $LN2@get_local_
$LN64@get_local_:

; 809  : 		}
; 810  : 		////////////////////////////////////////
; 811  : 		case INT_TYPE_MAP_ICON:
; 812  : 		////////////////////////////////////////
; 813  : 		{
; 814  : 			value = aircraft_database [raw->mob.sub_type].map_icon;

  00801	8b 45 fc	 mov	 eax, DWORD PTR _raw$[ebp]
  00804	69 08 f4 00 00
	00		 imul	 ecx, DWORD PTR [eax], 244
  0080a	8b 91 50 00 00
	00		 mov	 edx, DWORD PTR ?aircraft_database@@3PAUAIRCRAFT_DATA@@A[ecx+80]
  00810	89 55 f8	 mov	 DWORD PTR _value$[ebp], edx

; 815  : 
; 816  : 			break;

  00813	e9 de 04 00 00	 jmp	 $LN2@get_local_
$LN65@get_local_:

; 817  : 		}
; 818  : 		////////////////////////////////////////
; 819  : 		case INT_TYPE_MAX_WEAPON_CONFIG_TYPE:
; 820  : 		////////////////////////////////////////
; 821  : 		{
; 822  : 			value = aircraft_database[raw->mob.sub_type].max_weapon_config_type;

  00818	8b 45 fc	 mov	 eax, DWORD PTR _raw$[ebp]
  0081b	69 08 f4 00 00
	00		 imul	 ecx, DWORD PTR [eax], 244
  00821	8b 91 24 00 00
	00		 mov	 edx, DWORD PTR ?aircraft_database@@3PAUAIRCRAFT_DATA@@A[ecx+36]
  00827	89 55 f8	 mov	 DWORD PTR _value$[ebp], edx

; 823  : 
; 824  : 			break;

  0082a	e9 c7 04 00 00	 jmp	 $LN2@get_local_
$LN66@get_local_:

; 825  : 		}
; 826  : 		////////////////////////////////////////
; 827  : 		case INT_TYPE_MIN_WEAPON_CONFIG_TYPE:
; 828  : 		////////////////////////////////////////
; 829  : 		{
; 830  : 			value = aircraft_database[raw->mob.sub_type].min_weapon_config_type;

  0082f	8b 45 fc	 mov	 eax, DWORD PTR _raw$[ebp]
  00832	69 08 f4 00 00
	00		 imul	 ecx, DWORD PTR [eax], 244
  00838	8b 91 20 00 00
	00		 mov	 edx, DWORD PTR ?aircraft_database@@3PAUAIRCRAFT_DATA@@A[ecx+32]
  0083e	89 55 f8	 mov	 DWORD PTR _value$[ebp], edx

; 831  : 
; 832  : 			break;

  00841	e9 b0 04 00 00	 jmp	 $LN2@get_local_
$LN67@get_local_:

; 833  : 		}
; 834  : 		////////////////////////////////////////
; 835  : 		case INT_TYPE_MOBILE_MOVING:
; 836  : 		////////////////////////////////////////
; 837  : 		{
; 838  : 
; 839  : 			switch (raw->operational_state)

  00846	8b 45 fc	 mov	 eax, DWORD PTR _raw$[ebp]
  00849	8b 88 2c 01 00
	00		 mov	 ecx, DWORD PTR [eax+300]
  0084f	c1 e9 05	 shr	 ecx, 5
  00852	83 e1 1f	 and	 ecx, 31			; 0000001fH
  00855	89 4d a8	 mov	 DWORD PTR tv386[ebp], ecx
  00858	83 7d a8 0c	 cmp	 DWORD PTR tv386[ebp], 12 ; 0000000cH
  0085c	77 23		 ja	 SHORT $LN70@get_local_
  0085e	8b 55 a8	 mov	 edx, DWORD PTR tv386[ebp]
  00861	0f b6 82 00 00
	00 00		 movzx	 eax, BYTE PTR $LN158@get_local_[edx]
  00868	ff 24 85 00 00
	00 00		 jmp	 DWORD PTR $LN163@get_local_[eax*4]
$LN68@get_local_:

; 840  : 			{
; 841  : 
; 842  : 				case OPERATIONAL_STATE_LANDED:
; 843  : 				case OPERATIONAL_STATE_STOPPED:
; 844  : 				case OPERATIONAL_STATE_DEAD:
; 845  : 				//case OPERATIONAL_STATE_REPAIRING:
; 846  : 				//case OPERATIONAL_STATE_REFUELING:
; 847  : 				//case OPERATIONAL_STATE_REARMING:
; 848  : 				case OPERATIONAL_STATE_UNKNOWN:
; 849  : 				{
; 850  : 
; 851  : 					value = FALSE;

  0086f	c7 45 f8 00 00
	00 00		 mov	 DWORD PTR _value$[ebp], 0

; 852  : 
; 853  : 					break;

  00876	eb 16		 jmp	 SHORT $LN12@get_local_
$LN69@get_local_:

; 854  : 				}
; 855  : 
; 856  : 				case OPERATIONAL_STATE_DYING:
; 857  : 				case OPERATIONAL_STATE_LANDING:
; 858  : 				case OPERATIONAL_STATE_LANDING_HOLDING:
; 859  : 				case OPERATIONAL_STATE_NAVIGATING:
; 860  : 				case OPERATIONAL_STATE_TAKEOFF:
; 861  : 				case OPERATIONAL_STATE_TAKEOFF_HOLDING:
; 862  : 				case OPERATIONAL_STATE_TAXIING:
; 863  : 				case OPERATIONAL_STATE_WAITING:
; 864  : 				{
; 865  : 
; 866  : 					value = TRUE;

  00878	c7 45 f8 01 00
	00 00		 mov	 DWORD PTR _value$[ebp], 1

; 867  : 
; 868  : 					break;

  0087f	eb 0d		 jmp	 SHORT $LN12@get_local_
$LN70@get_local_:

; 869  : 				}
; 870  : 
; 871  : 				default:
; 872  : 				{
; 873  : 
; 874  : 					debug_fatal ("VH_INT: unknown operational state");

  00881	68 00 00 00 00	 push	 OFFSET ??_C@_0CC@KIIGBMNN@VH_INT?3?5unknown?5operational?5sta@
  00886	e8 00 00 00 00	 call	 ?debug_fatal@@YAXPBDZZ	; debug_fatal
  0088b	83 c4 04	 add	 esp, 4
$LN12@get_local_:

; 875  : 				}
; 876  : 			}
; 877  : 
; 878  : 			break;

  0088e	e9 63 04 00 00	 jmp	 $LN2@get_local_
$LN71@get_local_:

; 879  : 		}
; 880  : 		////////////////////////////////////////
; 881  : 		case INT_TYPE_MOVEMENT_TYPE:
; 882  : 		////////////////////////////////////////
; 883  : 		{
; 884  : 			value = MOVEMENT_TYPE_AIR;

  00893	c7 45 f8 01 00
	00 00		 mov	 DWORD PTR _value$[ebp], 1

; 885  : 
; 886  : 			break;

  0089a	e9 57 04 00 00	 jmp	 $LN2@get_local_
$LN72@get_local_:

; 887  : 		}
; 888  : 		////////////////////////////////////////
; 889  : 		case INT_TYPE_OBJECT_3D_SHAPE:
; 890  : 		////////////////////////////////////////
; 891  : 		{
; 892  : 			value = raw->object_3d_shape;

  0089f	8b 45 fc	 mov	 eax, DWORD PTR _raw$[ebp]
  008a2	8b 88 80 00 00
	00		 mov	 ecx, DWORD PTR [eax+128]
  008a8	89 4d f8	 mov	 DWORD PTR _value$[ebp], ecx

; 893  : 
; 894  : 			break;

  008ab	e9 46 04 00 00	 jmp	 $LN2@get_local_
$LN73@get_local_:

; 895  : 		}
; 896  : 		////////////////////////////////////////
; 897  : 		case INT_TYPE_OFFENSIVE_CAPABILITY:
; 898  : 		////////////////////////////////////////
; 899  : 		{
; 900  : 			value = aircraft_database[raw->mob.sub_type].offensive_capability;

  008b0	8b 45 fc	 mov	 eax, DWORD PTR _raw$[ebp]
  008b3	69 08 f4 00 00
	00		 imul	 ecx, DWORD PTR [eax], 244
  008b9	8b 91 e4 00 00
	00		 mov	 edx, DWORD PTR ?aircraft_database@@3PAUAIRCRAFT_DATA@@A[ecx+228]
  008bf	c1 ea 08	 shr	 edx, 8
  008c2	83 e2 01	 and	 edx, 1
  008c5	89 55 f8	 mov	 DWORD PTR _value$[ebp], edx

; 901  : 
; 902  : 			break;

  008c8	e9 29 04 00 00	 jmp	 $LN2@get_local_
$LN74@get_local_:

; 903  : 		}
; 904  : 		////////////////////////////////////////
; 905  : 		case INT_TYPE_OPERATIONAL_STATE:
; 906  : 		////////////////////////////////////////
; 907  : 		{
; 908  : 			value = raw->operational_state;

  008cd	8b 45 fc	 mov	 eax, DWORD PTR _raw$[ebp]
  008d0	8b 88 2c 01 00
	00		 mov	 ecx, DWORD PTR [eax+300]
  008d6	c1 e9 05	 shr	 ecx, 5
  008d9	83 e1 1f	 and	 ecx, 31			; 0000001fH
  008dc	89 4d f8	 mov	 DWORD PTR _value$[ebp], ecx

; 909  : 
; 910  : 			break;

  008df	e9 12 04 00 00	 jmp	 $LN2@get_local_
$LN75@get_local_:

; 911  : 		}
; 912  : 		////////////////////////////////////////
; 913  : 		case INT_TYPE_PLAYER_CONTROLLABLE:
; 914  : 		////////////////////////////////////////
; 915  : 		{
; 916  : 			value = aircraft_database[raw->mob.sub_type].player_controllable;

  008e4	8b 45 fc	 mov	 eax, DWORD PTR _raw$[ebp]
  008e7	69 08 f4 00 00
	00		 imul	 ecx, DWORD PTR [eax], 244
  008ed	8b 91 e4 00 00
	00		 mov	 edx, DWORD PTR ?aircraft_database@@3PAUAIRCRAFT_DATA@@A[ecx+228]
  008f3	c1 ea 09	 shr	 edx, 9
  008f6	83 e2 01	 and	 edx, 1
  008f9	89 55 f8	 mov	 DWORD PTR _value$[ebp], edx

; 917  : 
; 918  : 			break;

  008fc	e9 f5 03 00 00	 jmp	 $LN2@get_local_
$LN76@get_local_:

; 919  : 		}
; 920  : 		////////////////////////////////////////
; 921  : 		case INT_TYPE_POINTS_VALUE:
; 922  : 		////////////////////////////////////////
; 923  : 		{
; 924  : 			value = aircraft_database[raw->mob.sub_type].points_value;

  00901	8b 45 fc	 mov	 eax, DWORD PTR _raw$[ebp]
  00904	69 08 f4 00 00
	00		 imul	 ecx, DWORD PTR [eax], 244
  0090a	8b 91 e4 00 00
	00		 mov	 edx, DWORD PTR ?aircraft_database@@3PAUAIRCRAFT_DATA@@A[ecx+228]
  00910	c1 ea 0a	 shr	 edx, 10			; 0000000aH
  00913	81 e2 ff 0f 00
	00		 and	 edx, 4095		; 00000fffH
  00919	89 55 f8	 mov	 DWORD PTR _value$[ebp], edx

; 925  : 
; 926  : 			break;

  0091c	e9 d5 03 00 00	 jmp	 $LN2@get_local_
$LN77@get_local_:

; 927  : 		}
; 928  : 		////////////////////////////////////////
; 929  : 		case INT_TYPE_SCOUT_WEAPON_CONFIG_TYPE:
; 930  : 		////////////////////////////////////////
; 931  : 		{
; 932  : 			value = aircraft_database[raw->mob.sub_type].scout_weapon_config_type;

  00921	8b 45 fc	 mov	 eax, DWORD PTR _raw$[ebp]
  00924	69 08 f4 00 00
	00		 imul	 ecx, DWORD PTR [eax], 244
  0092a	8b 91 30 00 00
	00		 mov	 edx, DWORD PTR ?aircraft_database@@3PAUAIRCRAFT_DATA@@A[ecx+48]
  00930	89 55 f8	 mov	 DWORD PTR _value$[ebp], edx

; 933  : 
; 934  : 			break;

  00933	e9 be 03 00 00	 jmp	 $LN2@get_local_
$LN78@get_local_:

; 935  : 		}
; 936  : 		////////////////////////////////////////
; 937  : 		case INT_TYPE_SELECTED_WEAPON:
; 938  : 		////////////////////////////////////////
; 939  : 		{
; 940  : 			value = raw->selected_weapon;

  00938	8b 45 fc	 mov	 eax, DWORD PTR _raw$[ebp]
  0093b	8b 88 24 01 00
	00		 mov	 ecx, DWORD PTR [eax+292]
  00941	89 4d f8	 mov	 DWORD PTR _value$[ebp], ecx

; 941  : 
; 942  : 			break;

  00944	e9 ad 03 00 00	 jmp	 $LN2@get_local_
$LN79@get_local_:

; 943  : 		}
; 944  : 		////////////////////////////////////////
; 945  : 		case INT_TYPE_SELECTED_WEAPON_SYSTEM_READY:
; 946  : 		////////////////////////////////////////
; 947  : 		{
; 948  : 			value = raw->selected_weapon_system_ready;

  00949	8b 45 fc	 mov	 eax, DWORD PTR _raw$[ebp]
  0094c	8b 88 2c 01 00
	00		 mov	 ecx, DWORD PTR [eax+300]
  00952	c1 e9 0b	 shr	 ecx, 11			; 0000000bH
  00955	83 e1 01	 and	 ecx, 1
  00958	89 4d f8	 mov	 DWORD PTR _value$[ebp], ecx

; 949  : 
; 950  : 			break;

  0095b	e9 96 03 00 00	 jmp	 $LN2@get_local_
$LN80@get_local_:

; 951  : 		}
; 952  : 		////////////////////////////////////////
; 953  : 		case INT_TYPE_TARGET_PRIORITY_TYPE:
; 954  : 		////////////////////////////////////////
; 955  : 		{
; 956  : 			value = aircraft_database[raw->mob.sub_type].target_priority_type;

  00960	8b 45 fc	 mov	 eax, DWORD PTR _raw$[ebp]
  00963	69 08 f4 00 00
	00		 imul	 ecx, DWORD PTR [eax], 244
  00969	8b 91 3c 00 00
	00		 mov	 edx, DWORD PTR ?aircraft_database@@3PAUAIRCRAFT_DATA@@A[ecx+60]
  0096f	89 55 f8	 mov	 DWORD PTR _value$[ebp], edx

; 957  : 
; 958  : 			break;

  00972	e9 7f 03 00 00	 jmp	 $LN2@get_local_
$LN81@get_local_:

; 959  : 		}
; 960  : 		////////////////////////////////////////
; 961  : 		case INT_TYPE_TARGET_SYMBOL_TYPE:
; 962  : 		////////////////////////////////////////
; 963  : 		{
; 964  : 			value = aircraft_database[raw->mob.sub_type].target_symbol_type;

  00977	8b 45 fc	 mov	 eax, DWORD PTR _raw$[ebp]
  0097a	69 08 f4 00 00
	00		 imul	 ecx, DWORD PTR [eax], 244
  00980	8b 91 38 00 00
	00		 mov	 edx, DWORD PTR ?aircraft_database@@3PAUAIRCRAFT_DATA@@A[ecx+56]
  00986	89 55 f8	 mov	 DWORD PTR _value$[ebp], edx

; 965  : 
; 966  : 			break;

  00989	e9 68 03 00 00	 jmp	 $LN2@get_local_
$LN82@get_local_:

; 967  : 		}
; 968  : 		////////////////////////////////////////
; 969  : 		case INT_TYPE_TARGET_TYPE:
; 970  : 		////////////////////////////////////////
; 971  : 		{
; 972  : 			value = TARGET_TYPE_AIR;

  0098e	c7 45 f8 02 00
	00 00		 mov	 DWORD PTR _value$[ebp], 2

; 973  : 
; 974  : 			break;

  00995	e9 5c 03 00 00	 jmp	 $LN2@get_local_
$LN83@get_local_:

; 975  : 		}
; 976  : 		////////////////////////////////////////
; 977  : 		case INT_TYPE_TASK_LEADER:
; 978  : 		////////////////////////////////////////
; 979  : 		{
; 980  : 			entity
; 981  : 				*guide;
; 982  : 
; 983  : 			value = FALSE;

  0099a	c7 45 f8 00 00
	00 00		 mov	 DWORD PTR _value$[ebp], 0

; 984  : 
; 985  : 			guide = get_local_entity_parent (en, LIST_TYPE_FOLLOWER);

  009a1	83 7d 08 00	 cmp	 DWORD PTR _en$[ebp], 0
  009a5	74 0a		 je	 SHORT $LN133@get_local_
  009a7	8b 45 08	 mov	 eax, DWORD PTR _en$[ebp]
  009aa	8b 08		 mov	 ecx, DWORD PTR [eax]
  009ac	89 4d a8	 mov	 DWORD PTR tv439[ebp], ecx
  009af	eb 24		 jmp	 SHORT $LN134@get_local_
$LN133@get_local_:
  009b1	8b 15 00 00 00
	00		 mov	 edx, DWORD PTR ?__LINE__Var@?0??get_local_int_value@@YGHPAUENTITY@@W4INT_TYPES@@@Z@4JA
  009b7	81 c2 54 02 00
	00		 add	 edx, 596		; 00000254H
  009bd	52		 push	 edx
  009be	68 00 00 00 00	 push	 OFFSET ??_C@_0EM@DGHJLEAG@c?3?2users?2nhv90?2projects?2eech?2ap@
  009c3	a1 00 00 00 00	 mov	 eax, DWORD PTR ?null_entity_pointer_message@@3PBDB ; null_entity_pointer_message
  009c8	50		 push	 eax
  009c9	e8 00 00 00 00	 call	 ?process_assert@@YGXPBD0H@Z ; process_assert
  009ce	c7 45 a8 00 00
	00 00		 mov	 DWORD PTR tv439[ebp], 0
$LN134@get_local_:
  009d5	b9 01 00 00 00	 mov	 ecx, 1
  009da	85 c9		 test	 ecx, ecx
  009dc	74 09		 je	 SHORT $LN135@get_local_
  009de	c7 45 a4 0d 00
	00 00		 mov	 DWORD PTR tv447[ebp], 13 ; 0000000dH
  009e5	eb 24		 jmp	 SHORT $LN136@get_local_
$LN135@get_local_:
  009e7	8b 15 00 00 00
	00		 mov	 edx, DWORD PTR ?__LINE__Var@?0??get_local_int_value@@YGHPAUENTITY@@W4INT_TYPES@@@Z@4JA
  009ed	81 c2 54 02 00
	00		 add	 edx, 596		; 00000254H
  009f3	52		 push	 edx
  009f4	68 00 00 00 00	 push	 OFFSET ??_C@_0EM@DGHJLEAG@c?3?2users?2nhv90?2projects?2eech?2ap@
  009f9	a1 00 00 00 00	 mov	 eax, DWORD PTR ?overload_invalid_list_type_message@@3PBDB ; overload_invalid_list_type_message
  009fe	50		 push	 eax
  009ff	e8 00 00 00 00	 call	 ?process_assert@@YGXPBD0H@Z ; process_assert
  00a04	c7 45 a4 00 00
	00 00		 mov	 DWORD PTR tv447[ebp], 0
$LN136@get_local_:
  00a0b	6a 0d		 push	 13			; 0000000dH
  00a0d	8b 4d 08	 mov	 ecx, DWORD PTR _en$[ebp]
  00a10	51		 push	 ecx
  00a11	69 55 a8 b4 00
	00 00		 imul	 edx, DWORD PTR tv439[ebp], 180
  00a18	8b 45 a4	 mov	 eax, DWORD PTR tv447[ebp]
  00a1b	8b 8c 82 00 00
	00 00		 mov	 ecx, DWORD PTR ?fn_get_local_entity_parent@@3PAY0CN@P6GPAUENTITY@@PAU1@W4LIST_TYPES@@@ZA[edx+eax*4]
  00a22	ff d1		 call	 ecx
  00a24	89 45 ec	 mov	 DWORD PTR _guide$1[ebp], eax

; 986  : 
; 987  : 			if (guide)

  00a27	83 7d ec 00	 cmp	 DWORD PTR _guide$1[ebp], 0
  00a2b	74 7e		 je	 SHORT $LN85@get_local_

; 988  : 			{
; 989  : 				if (get_local_entity_ptr_value (guide, PTR_TYPE_TASK_LEADER) == en)

  00a2d	83 7d ec 00	 cmp	 DWORD PTR _guide$1[ebp], 0
  00a31	74 0a		 je	 SHORT $LN137@get_local_
  00a33	8b 45 ec	 mov	 eax, DWORD PTR _guide$1[ebp]
  00a36	8b 08		 mov	 ecx, DWORD PTR [eax]
  00a38	89 4d a8	 mov	 DWORD PTR tv459[ebp], ecx
  00a3b	eb 1d		 jmp	 SHORT $LN138@get_local_
$LN137@get_local_:
  00a3d	68 dd 03 00 00	 push	 989			; 000003ddH
  00a42	68 00 00 00 00	 push	 OFFSET ??_C@_0EM@DGHJLEAG@c?3?2users?2nhv90?2projects?2eech?2ap@
  00a47	8b 15 00 00 00
	00		 mov	 edx, DWORD PTR ?null_entity_pointer_message@@3PBDB ; null_entity_pointer_message
  00a4d	52		 push	 edx
  00a4e	e8 00 00 00 00	 call	 ?process_assert@@YGXPBD0H@Z ; process_assert
  00a53	c7 45 a8 00 00
	00 00		 mov	 DWORD PTR tv459[ebp], 0
$LN138@get_local_:
  00a5a	b8 01 00 00 00	 mov	 eax, 1
  00a5f	85 c0		 test	 eax, eax
  00a61	74 09		 je	 SHORT $LN139@get_local_
  00a63	c7 45 a4 0f 00
	00 00		 mov	 DWORD PTR tv466[ebp], 15 ; 0000000fH
  00a6a	eb 1d		 jmp	 SHORT $LN140@get_local_
$LN139@get_local_:
  00a6c	68 dd 03 00 00	 push	 989			; 000003ddH
  00a71	68 00 00 00 00	 push	 OFFSET ??_C@_0EM@DGHJLEAG@c?3?2users?2nhv90?2projects?2eech?2ap@
  00a76	8b 0d 00 00 00
	00		 mov	 ecx, DWORD PTR ?overload_invalid_ptr_type_message@@3PBDB ; overload_invalid_ptr_type_message
  00a7c	51		 push	 ecx
  00a7d	e8 00 00 00 00	 call	 ?process_assert@@YGXPBD0H@Z ; process_assert
  00a82	c7 45 a4 00 00
	00 00		 mov	 DWORD PTR tv466[ebp], 0
$LN140@get_local_:
  00a89	6a 0f		 push	 15			; 0000000fH
  00a8b	8b 55 ec	 mov	 edx, DWORD PTR _guide$1[ebp]
  00a8e	52		 push	 edx
  00a8f	6b 45 a8 50	 imul	 eax, DWORD PTR tv459[ebp], 80
  00a93	8b 4d a4	 mov	 ecx, DWORD PTR tv466[ebp]
  00a96	8b 94 88 00 00
	00 00		 mov	 edx, DWORD PTR ?fn_get_local_entity_ptr_value@@3PAY0BE@P6GPAXPAUENTITY@@W4PTR_TYPES@@@ZA[eax+ecx*4]
  00a9d	ff d2		 call	 edx
  00a9f	3b 45 08	 cmp	 eax, DWORD PTR _en$[ebp]
  00aa2	75 07		 jne	 SHORT $LN85@get_local_

; 990  : 				{
; 991  : 					value = TRUE;

  00aa4	c7 45 f8 01 00
	00 00		 mov	 DWORD PTR _value$[ebp], 1
$LN85@get_local_:

; 992  : 				}
; 993  : 			}
; 994  : 
; 995  : 			break;

  00aab	e9 46 02 00 00	 jmp	 $LN2@get_local_
$LN86@get_local_:

; 996  : 		}
; 997  : 		////////////////////////////////////////
; 998  : 		case INT_TYPE_TASK_TARGET_TYPE:
; 999  : 		////////////////////////////////////////
; 1000 : 		{
; 1001 : 			if (get_local_entity_int_value (en, INT_TYPE_LANDED))

  00ab0	83 7d 08 00	 cmp	 DWORD PTR _en$[ebp], 0
  00ab4	74 0a		 je	 SHORT $LN141@get_local_
  00ab6	8b 45 08	 mov	 eax, DWORD PTR _en$[ebp]
  00ab9	8b 08		 mov	 ecx, DWORD PTR [eax]
  00abb	89 4d a8	 mov	 DWORD PTR tv478[ebp], ecx
  00abe	eb 1d		 jmp	 SHORT $LN142@get_local_
$LN141@get_local_:
  00ac0	68 e9 03 00 00	 push	 1001			; 000003e9H
  00ac5	68 00 00 00 00	 push	 OFFSET ??_C@_0EM@DGHJLEAG@c?3?2users?2nhv90?2projects?2eech?2ap@
  00aca	8b 15 00 00 00
	00		 mov	 edx, DWORD PTR ?null_entity_pointer_message@@3PBDB ; null_entity_pointer_message
  00ad0	52		 push	 edx
  00ad1	e8 00 00 00 00	 call	 ?process_assert@@YGXPBD0H@Z ; process_assert
  00ad6	c7 45 a8 00 00
	00 00		 mov	 DWORD PTR tv478[ebp], 0
$LN142@get_local_:
  00add	b8 01 00 00 00	 mov	 eax, 1
  00ae2	85 c0		 test	 eax, eax
  00ae4	74 09		 je	 SHORT $LN143@get_local_
  00ae6	c7 45 a4 73 00
	00 00		 mov	 DWORD PTR tv485[ebp], 115 ; 00000073H
  00aed	eb 1d		 jmp	 SHORT $LN144@get_local_
$LN143@get_local_:
  00aef	68 e9 03 00 00	 push	 1001			; 000003e9H
  00af4	68 00 00 00 00	 push	 OFFSET ??_C@_0EM@DGHJLEAG@c?3?2users?2nhv90?2projects?2eech?2ap@
  00af9	8b 0d 00 00 00
	00		 mov	 ecx, DWORD PTR ?overload_invalid_int_type_message@@3PBDB ; overload_invalid_int_type_message
  00aff	51		 push	 ecx
  00b00	e8 00 00 00 00	 call	 ?process_assert@@YGXPBD0H@Z ; process_assert
  00b05	c7 45 a4 00 00
	00 00		 mov	 DWORD PTR tv485[ebp], 0
$LN144@get_local_:
  00b0c	6a 73		 push	 115			; 00000073H
  00b0e	8b 55 08	 mov	 edx, DWORD PTR _en$[ebp]
  00b11	52		 push	 edx
  00b12	69 45 a8 5c 04
	00 00		 imul	 eax, DWORD PTR tv478[ebp], 1116
  00b19	8b 4d a4	 mov	 ecx, DWORD PTR tv485[ebp]
  00b1c	8b 94 88 00 00
	00 00		 mov	 edx, DWORD PTR ?fn_get_local_entity_int_value@@3PAY0BBH@P6GHPAUENTITY@@W4INT_TYPES@@@ZA[eax+ecx*4]
  00b23	ff d2		 call	 edx
  00b25	85 c0		 test	 eax, eax
  00b27	74 09		 je	 SHORT $LN87@get_local_

; 1002 : 			{
; 1003 : 				value = (TASK_TARGET_TYPE_ANY | TASK_TARGET_TYPE_MOBILE | TASK_TARGET_TYPE_GROUNDED_AIRCRAFT);

  00b29	c7 45 f8 04 0a
	00 00		 mov	 DWORD PTR _value$[ebp], 2564 ; 00000a04H

; 1004 : 			}
; 1005 : 			else

  00b30	eb 07		 jmp	 SHORT $LN88@get_local_
$LN87@get_local_:

; 1006 : 			{
; 1007 : 				value = (TASK_TARGET_TYPE_ANY | TASK_TARGET_TYPE_MOBILE | TASK_TARGET_TYPE_AIRBORNE_AIRCRAFT);

  00b32	c7 45 f8 05 08
	00 00		 mov	 DWORD PTR _value$[ebp], 2053 ; 00000805H
$LN88@get_local_:

; 1008 : 			}
; 1009 : 
; 1010 : 			break;

  00b39	e9 b8 01 00 00	 jmp	 $LN2@get_local_
$LN89@get_local_:

; 1011 : 		}
; 1012 : 		////////////////////////////////////////
; 1013 : 		case INT_TYPE_THREAT_TYPE:
; 1014 : 		////////////////////////////////////////
; 1015 : 		{
; 1016 : 			value = aircraft_database[raw->mob.sub_type].threat_type;

  00b3e	8b 45 fc	 mov	 eax, DWORD PTR _raw$[ebp]
  00b41	69 08 f4 00 00
	00		 imul	 ecx, DWORD PTR [eax], 244
  00b47	8b 91 44 00 00
	00		 mov	 edx, DWORD PTR ?aircraft_database@@3PAUAIRCRAFT_DATA@@A[ecx+68]
  00b4d	89 55 f8	 mov	 DWORD PTR _value$[ebp], edx

; 1017 : 
; 1018 : 			break;

  00b50	e9 a1 01 00 00	 jmp	 $LN2@get_local_
$LN90@get_local_:

; 1019 : 		}
; 1020 : 		////////////////////////////////////////
; 1021 : 		case INT_TYPE_TRACK_ENTITY_ON_MAP:
; 1022 : 		////////////////////////////////////////
; 1023 : 		{
; 1024 : 			value = TRUE;

  00b55	c7 45 f8 01 00
	00 00		 mov	 DWORD PTR _value$[ebp], 1

; 1025 : 
; 1026 : 			break;

  00b5c	e9 95 01 00 00	 jmp	 $LN2@get_local_
$LN91@get_local_:

; 1027 : 		}
; 1028 : 		////////////////////////////////////////
; 1029 : 		case INT_TYPE_VIEW_CATEGORY:
; 1030 : 		////////////////////////////////////////
; 1031 : 		{
; 1032 : 			value = aircraft_database[raw->mob.sub_type].view_category;

  00b61	8b 45 fc	 mov	 eax, DWORD PTR _raw$[ebp]
  00b64	69 08 f4 00 00
	00		 imul	 ecx, DWORD PTR [eax], 244
  00b6a	8b 91 48 00 00
	00		 mov	 edx, DWORD PTR ?aircraft_database@@3PAUAIRCRAFT_DATA@@A[ecx+72]
  00b70	89 55 f8	 mov	 DWORD PTR _value$[ebp], edx

; 1033 : 
; 1034 : 			break;

  00b73	e9 7e 01 00 00	 jmp	 $LN2@get_local_
$LN92@get_local_:

; 1035 : 		}
; 1036 : 		////////////////////////////////////////
; 1037 : 		case INT_TYPE_VIEW_TYPE:
; 1038 : 		////////////////////////////////////////
; 1039 : 		{
; 1040 : 			value = aircraft_database[raw->mob.sub_type].view_type;

  00b78	8b 45 fc	 mov	 eax, DWORD PTR _raw$[ebp]
  00b7b	69 08 f4 00 00
	00		 imul	 ecx, DWORD PTR [eax], 244
  00b81	8b 91 4c 00 00
	00		 mov	 edx, DWORD PTR ?aircraft_database@@3PAUAIRCRAFT_DATA@@A[ecx+76]
  00b87	89 55 f8	 mov	 DWORD PTR _value$[ebp], edx

; 1041 : 
; 1042 : 			break;

  00b8a	e9 67 01 00 00	 jmp	 $LN2@get_local_
$LN93@get_local_:

; 1043 : 		}
; 1044 : 		////////////////////////////////////////
; 1045 : 		case INT_TYPE_VIEWABLE:
; 1046 : 		////////////////////////////////////////
; 1047 : 		{
; 1048 : 			value = raw->view_link.parent != NULL;

  00b8f	8b 45 fc	 mov	 eax, DWORD PTR _raw$[ebp]
  00b92	83 b8 c8 00 00
	00 00		 cmp	 DWORD PTR [eax+200], 0
  00b99	74 09		 je	 SHORT $LN145@get_local_
  00b9b	c7 45 a8 01 00
	00 00		 mov	 DWORD PTR tv510[ebp], 1
  00ba2	eb 07		 jmp	 SHORT $LN146@get_local_
$LN145@get_local_:
  00ba4	c7 45 a8 00 00
	00 00		 mov	 DWORD PTR tv510[ebp], 0
$LN146@get_local_:
  00bab	8b 4d a8	 mov	 ecx, DWORD PTR tv510[ebp]
  00bae	89 4d f8	 mov	 DWORD PTR _value$[ebp], ecx

; 1049 : 
; 1050 : 			break;

  00bb1	e9 40 01 00 00	 jmp	 $LN2@get_local_
$LN94@get_local_:

; 1051 : 		}
; 1052 : 		////////////////////////////////////////
; 1053 : 		case INT_TYPE_WEAPON_AND_TARGET_VECTORS_VALID:
; 1054 : 		////////////////////////////////////////
; 1055 : 		{
; 1056 : 			value = raw->weapon_and_target_vectors_valid;

  00bb6	8b 45 fc	 mov	 eax, DWORD PTR _raw$[ebp]
  00bb9	8b 88 2c 01 00
	00		 mov	 ecx, DWORD PTR [eax+300]
  00bbf	c1 e9 0c	 shr	 ecx, 12			; 0000000cH
  00bc2	83 e1 01	 and	 ecx, 1
  00bc5	89 4d f8	 mov	 DWORD PTR _value$[ebp], ecx

; 1057 : 
; 1058 : 			break;

  00bc8	e9 29 01 00 00	 jmp	 $LN2@get_local_
$LN95@get_local_:

; 1059 : 		}
; 1060 : 		////////////////////////////////////////
; 1061 : 		case INT_TYPE_WEAPON_CONFIG_TYPE:
; 1062 : 		////////////////////////////////////////
; 1063 : 		{
; 1064 : 			value = raw->weapon_config_type;

  00bcd	8b 45 fc	 mov	 eax, DWORD PTR _raw$[ebp]
  00bd0	8b 88 1c 01 00
	00		 mov	 ecx, DWORD PTR [eax+284]
  00bd6	89 4d f8	 mov	 DWORD PTR _value$[ebp], ecx

; 1065 : 
; 1066 : 			break;

  00bd9	e9 18 01 00 00	 jmp	 $LN2@get_local_
$LN96@get_local_:

; 1067 : 		}
; 1068 : 		////////////////////////////////////////
; 1069 : 		case INT_TYPE_WEAPON_SYSTEM_READY:
; 1070 : 		////////////////////////////////////////
; 1071 : 		{
; 1072 : 			////////////////////////////////////////
; 1073 : 			//
; 1074 : 			// WARNING! This only returns a valid value for aircraft that have weapon
; 1075 : 			//          systems to be made ready in the current weapons configuration.
; 1076 : 			//
; 1077 : 			////////////////////////////////////////
; 1078 : 
; 1079 : 			if (get_local_entity_float_value (en, FLOAT_TYPE_WEAPON_SYSTEM_READY_STATE) == AIRCRAFT_WEAPON_SYSTEM_READY_OPEN_FLOAT_VALUE)

  00bde	83 7d 08 00	 cmp	 DWORD PTR _en$[ebp], 0
  00be2	74 0a		 je	 SHORT $LN147@get_local_
  00be4	8b 45 08	 mov	 eax, DWORD PTR _en$[ebp]
  00be7	8b 08		 mov	 ecx, DWORD PTR [eax]
  00be9	89 4d a8	 mov	 DWORD PTR tv520[ebp], ecx
  00bec	eb 1d		 jmp	 SHORT $LN148@get_local_
$LN147@get_local_:
  00bee	68 37 04 00 00	 push	 1079			; 00000437H
  00bf3	68 00 00 00 00	 push	 OFFSET ??_C@_0EM@DGHJLEAG@c?3?2users?2nhv90?2projects?2eech?2ap@
  00bf8	8b 15 00 00 00
	00		 mov	 edx, DWORD PTR ?null_entity_pointer_message@@3PBDB ; null_entity_pointer_message
  00bfe	52		 push	 edx
  00bff	e8 00 00 00 00	 call	 ?process_assert@@YGXPBD0H@Z ; process_assert
  00c04	c7 45 a8 00 00
	00 00		 mov	 DWORD PTR tv520[ebp], 0
$LN148@get_local_:
  00c0b	b8 01 00 00 00	 mov	 eax, 1
  00c10	85 c0		 test	 eax, eax
  00c12	74 09		 je	 SHORT $LN149@get_local_
  00c14	c7 45 a4 9a 00
	00 00		 mov	 DWORD PTR tv527[ebp], 154 ; 0000009aH
  00c1b	eb 1d		 jmp	 SHORT $LN150@get_local_
$LN149@get_local_:
  00c1d	68 37 04 00 00	 push	 1079			; 00000437H
  00c22	68 00 00 00 00	 push	 OFFSET ??_C@_0EM@DGHJLEAG@c?3?2users?2nhv90?2projects?2eech?2ap@
  00c27	8b 0d 00 00 00
	00		 mov	 ecx, DWORD PTR ?overload_invalid_float_type_message@@3PBDB ; overload_invalid_float_type_message
  00c2d	51		 push	 ecx
  00c2e	e8 00 00 00 00	 call	 ?process_assert@@YGXPBD0H@Z ; process_assert
  00c33	c7 45 a4 00 00
	00 00		 mov	 DWORD PTR tv527[ebp], 0
$LN150@get_local_:
  00c3a	68 9a 00 00 00	 push	 154			; 0000009aH
  00c3f	8b 55 08	 mov	 edx, DWORD PTR _en$[ebp]
  00c42	52		 push	 edx
  00c43	69 45 a8 bc 02
	00 00		 imul	 eax, DWORD PTR tv520[ebp], 700
  00c4a	8b 4d a4	 mov	 ecx, DWORD PTR tv527[ebp]
  00c4d	8b 94 88 00 00
	00 00		 mov	 edx, DWORD PTR ?fn_get_local_entity_float_value@@3PAY0KP@P6GMPAUENTITY@@W4FLOAT_TYPES@@@ZA[eax+ecx*4]
  00c54	ff d2		 call	 edx
  00c56	dd 5d 9c	 fstp	 QWORD PTR tv792[ebp]
  00c59	f2 0f 10 45 9c	 movsd	 xmm0, QWORD PTR tv792[ebp]
  00c5e	66 0f 2e 05 00
	00 00 00	 ucomisd xmm0, QWORD PTR __real@4000000000000000
  00c66	9f		 lahf
  00c67	f6 c4 44	 test	 ah, 68			; 00000044H
  00c6a	7a 09		 jp	 SHORT $LN97@get_local_

; 1080 : 			{
; 1081 : 				value = TRUE;

  00c6c	c7 45 f8 01 00
	00 00		 mov	 DWORD PTR _value$[ebp], 1

; 1082 : 			}
; 1083 : 			else

  00c73	eb 07		 jmp	 SHORT $LN98@get_local_
$LN97@get_local_:

; 1084 : 			{
; 1085 : 				value = FALSE;

  00c75	c7 45 f8 00 00
	00 00		 mov	 DWORD PTR _value$[ebp], 0
$LN98@get_local_:

; 1086 : 			}
; 1087 : 
; 1088 : 			break;

  00c7c	eb 78		 jmp	 SHORT $LN2@get_local_
$LN99@get_local_:

; 1089 : 		}
; 1090 : 		////////////////////////////////////////
; 1091 : 		default:
; 1092 : 		////////////////////////////////////////
; 1093 : 		{
; 1094 : 			debug_fatal_invalid_int_type (en, type);

  00c7e	83 7d 08 00	 cmp	 DWORD PTR _en$[ebp], 0
  00c82	74 0a		 je	 SHORT $LN151@get_local_
  00c84	8b 45 08	 mov	 eax, DWORD PTR _en$[ebp]
  00c87	8b 08		 mov	 ecx, DWORD PTR [eax]
  00c89	89 4d a8	 mov	 DWORD PTR tv551[ebp], ecx
  00c8c	eb 24		 jmp	 SHORT $LN152@get_local_
$LN151@get_local_:
  00c8e	8b 15 00 00 00
	00		 mov	 edx, DWORD PTR ?__LINE__Var@?0??get_local_int_value@@YGHPAUENTITY@@W4INT_TYPES@@@Z@4JA
  00c94	81 c2 c1 02 00
	00		 add	 edx, 705		; 000002c1H
  00c9a	52		 push	 edx
  00c9b	68 00 00 00 00	 push	 OFFSET ??_C@_0EM@DGHJLEAG@c?3?2users?2nhv90?2projects?2eech?2ap@
  00ca0	a1 00 00 00 00	 mov	 eax, DWORD PTR ?null_entity_pointer_message@@3PBDB ; null_entity_pointer_message
  00ca5	50		 push	 eax
  00ca6	e8 00 00 00 00	 call	 ?process_assert@@YGXPBD0H@Z ; process_assert
  00cab	c7 45 a8 00 00
	00 00		 mov	 DWORD PTR tv551[ebp], 0
$LN152@get_local_:
  00cb2	8b 0d 00 00 00
	00		 mov	 ecx, DWORD PTR ?__LINE__Var@?0??get_local_int_value@@YGHPAUENTITY@@W4INT_TYPES@@@Z@4JA
  00cb8	81 c1 c1 02 00
	00		 add	 ecx, 705		; 000002c1H
  00cbe	51		 push	 ecx
  00cbf	68 00 00 00 00	 push	 OFFSET ??_C@_0EM@DGHJLEAG@c?3?2users?2nhv90?2projects?2eech?2ap@
  00cc4	6b 55 0c 14	 imul	 edx, DWORD PTR _type$[ebp], 20
  00cc8	8b 82 00 00 00
	00		 mov	 eax, DWORD PTR ?int_type_database@@3PAUINT_TYPE_DATA@@A[edx]
  00cce	50		 push	 eax
  00ccf	8b 4d 08	 mov	 ecx, DWORD PTR _en$[ebp]
  00cd2	2b 0d 00 00 00
	00		 sub	 ecx, DWORD PTR ?entities@@3PAUENTITY@@A ; entities
  00cd8	c1 f9 04	 sar	 ecx, 4
  00cdb	51		 push	 ecx
  00cdc	6b 55 a8 0c	 imul	 edx, DWORD PTR tv551[ebp], 12
  00ce0	8b 82 00 00 00
	00		 mov	 eax, DWORD PTR ?entity_type_database@@3PAUENTITY_TYPE_DATA@@A[edx]
  00ce6	50		 push	 eax
  00ce7	8b 0d 00 00 00
	00		 mov	 ecx, DWORD PTR ?debug_fatal_invalid_int_type_message@@3PBDB ; debug_fatal_invalid_int_type_message
  00ced	51		 push	 ecx
  00cee	e8 00 00 00 00	 call	 ?debug_fatal@@YAXPBDZZ	; debug_fatal
  00cf3	83 c4 18	 add	 esp, 24			; 00000018H
$LN2@get_local_:

; 1095 : 
; 1096 : 			break;
; 1097 : 		}
; 1098 : 	}
; 1099 : 
; 1100 : 	return (value);

  00cf6	8b 45 f8	 mov	 eax, DWORD PTR _value$[ebp]

; 1101 : }

  00cf9	5f		 pop	 edi
  00cfa	5e		 pop	 esi
  00cfb	5b		 pop	 ebx
  00cfc	8b e5		 mov	 esp, ebp
  00cfe	5d		 pop	 ebp
  00cff	c2 08 00	 ret	 8
  00d02	66 90		 npad	 2
$LN159@get_local_:
  00d04	00 00 00 00	 DD	 $LN14@get_local_
  00d08	00 00 00 00	 DD	 $LN15@get_local_
  00d0c	00 00 00 00	 DD	 $LN16@get_local_
  00d10	00 00 00 00	 DD	 $LN20@get_local_
  00d14	00 00 00 00	 DD	 $LN21@get_local_
  00d18	00 00 00 00	 DD	 $LN22@get_local_
  00d1c	00 00 00 00	 DD	 $LN23@get_local_
  00d20	00 00 00 00	 DD	 $LN24@get_local_
  00d24	00 00 00 00	 DD	 $LN25@get_local_
  00d28	00 00 00 00	 DD	 $LN26@get_local_
  00d2c	00 00 00 00	 DD	 $LN27@get_local_
  00d30	00 00 00 00	 DD	 $LN28@get_local_
  00d34	00 00 00 00	 DD	 $LN31@get_local_
  00d38	00 00 00 00	 DD	 $LN32@get_local_
  00d3c	00 00 00 00	 DD	 $LN33@get_local_
  00d40	00 00 00 00	 DD	 $LN34@get_local_
  00d44	00 00 00 00	 DD	 $LN35@get_local_
  00d48	00 00 00 00	 DD	 $LN36@get_local_
  00d4c	00 00 00 00	 DD	 $LN39@get_local_
  00d50	00 00 00 00	 DD	 $LN40@get_local_
  00d54	00 00 00 00	 DD	 $LN41@get_local_
  00d58	00 00 00 00	 DD	 $LN53@get_local_
  00d5c	00 00 00 00	 DD	 $LN54@get_local_
  00d60	00 00 00 00	 DD	 $LN55@get_local_
  00d64	00 00 00 00	 DD	 $LN56@get_local_
  00d68	00 00 00 00	 DD	 $LN57@get_local_
  00d6c	00 00 00 00	 DD	 $LN58@get_local_
  00d70	00 00 00 00	 DD	 $LN59@get_local_
  00d74	00 00 00 00	 DD	 $LN63@get_local_
  00d78	00 00 00 00	 DD	 $LN64@get_local_
  00d7c	00 00 00 00	 DD	 $LN65@get_local_
  00d80	00 00 00 00	 DD	 $LN66@get_local_
  00d84	00 00 00 00	 DD	 $LN67@get_local_
  00d88	00 00 00 00	 DD	 $LN71@get_local_
  00d8c	00 00 00 00	 DD	 $LN72@get_local_
  00d90	00 00 00 00	 DD	 $LN73@get_local_
  00d94	00 00 00 00	 DD	 $LN74@get_local_
  00d98	00 00 00 00	 DD	 $LN75@get_local_
  00d9c	00 00 00 00	 DD	 $LN76@get_local_
  00da0	00 00 00 00	 DD	 $LN77@get_local_
  00da4	00 00 00 00	 DD	 $LN78@get_local_
  00da8	00 00 00 00	 DD	 $LN79@get_local_
  00dac	00 00 00 00	 DD	 $LN80@get_local_
  00db0	00 00 00 00	 DD	 $LN81@get_local_
  00db4	00 00 00 00	 DD	 $LN82@get_local_
  00db8	00 00 00 00	 DD	 $LN83@get_local_
  00dbc	00 00 00 00	 DD	 $LN86@get_local_
  00dc0	00 00 00 00	 DD	 $LN89@get_local_
  00dc4	00 00 00 00	 DD	 $LN90@get_local_
  00dc8	00 00 00 00	 DD	 $LN91@get_local_
  00dcc	00 00 00 00	 DD	 $LN92@get_local_
  00dd0	00 00 00 00	 DD	 $LN93@get_local_
  00dd4	00 00 00 00	 DD	 $LN99@get_local_
$LN154@get_local_:
  00dd8	00		 DB	 0
  00dd9	01		 DB	 1
  00dda	02		 DB	 2
  00ddb	34		 DB	 52			; 00000034H
  00ddc	34		 DB	 52			; 00000034H
  00ddd	34		 DB	 52			; 00000034H
  00dde	34		 DB	 52			; 00000034H
  00ddf	34		 DB	 52			; 00000034H
  00de0	34		 DB	 52			; 00000034H
  00de1	34		 DB	 52			; 00000034H
  00de2	34		 DB	 52			; 00000034H
  00de3	34		 DB	 52			; 00000034H
  00de4	34		 DB	 52			; 00000034H
  00de5	34		 DB	 52			; 00000034H
  00de6	34		 DB	 52			; 00000034H
  00de7	34		 DB	 52			; 00000034H
  00de8	34		 DB	 52			; 00000034H
  00de9	34		 DB	 52			; 00000034H
  00dea	34		 DB	 52			; 00000034H
  00deb	34		 DB	 52			; 00000034H
  00dec	34		 DB	 52			; 00000034H
  00ded	34		 DB	 52			; 00000034H
  00dee	34		 DB	 52			; 00000034H
  00def	34		 DB	 52			; 00000034H
  00df0	34		 DB	 52			; 00000034H
  00df1	03		 DB	 3
  00df2	34		 DB	 52			; 00000034H
  00df3	34		 DB	 52			; 00000034H
  00df4	34		 DB	 52			; 00000034H
  00df5	34		 DB	 52			; 00000034H
  00df6	34		 DB	 52			; 00000034H
  00df7	34		 DB	 52			; 00000034H
  00df8	04		 DB	 4
  00df9	34		 DB	 52			; 00000034H
  00dfa	34		 DB	 52			; 00000034H
  00dfb	05		 DB	 5
  00dfc	34		 DB	 52			; 00000034H
  00dfd	34		 DB	 52			; 00000034H
  00dfe	34		 DB	 52			; 00000034H
  00dff	06		 DB	 6
  00e00	34		 DB	 52			; 00000034H
  00e01	34		 DB	 52			; 00000034H
  00e02	07		 DB	 7
  00e03	08		 DB	 8
  00e04	09		 DB	 9
  00e05	34		 DB	 52			; 00000034H
  00e06	34		 DB	 52			; 00000034H
  00e07	0a		 DB	 10			; 0000000aH
  00e08	34		 DB	 52			; 00000034H
  00e09	0b		 DB	 11			; 0000000bH
  00e0a	34		 DB	 52			; 00000034H
  00e0b	34		 DB	 52			; 00000034H
  00e0c	0c		 DB	 12			; 0000000cH
  00e0d	0d		 DB	 13			; 0000000dH
  00e0e	34		 DB	 52			; 00000034H
  00e0f	34		 DB	 52			; 00000034H
  00e10	0e		 DB	 14			; 0000000eH
  00e11	34		 DB	 52			; 00000034H
  00e12	0f		 DB	 15			; 0000000fH
  00e13	34		 DB	 52			; 00000034H
  00e14	10		 DB	 16			; 00000010H
  00e15	34		 DB	 52			; 00000034H
  00e16	34		 DB	 52			; 00000034H
  00e17	34		 DB	 52			; 00000034H
  00e18	34		 DB	 52			; 00000034H
  00e19	34		 DB	 52			; 00000034H
  00e1a	34		 DB	 52			; 00000034H
  00e1b	34		 DB	 52			; 00000034H
  00e1c	34		 DB	 52			; 00000034H
  00e1d	34		 DB	 52			; 00000034H
  00e1e	11		 DB	 17			; 00000011H
  00e1f	34		 DB	 52			; 00000034H
  00e20	12		 DB	 18			; 00000012H
  00e21	13		 DB	 19			; 00000013H
  00e22	14		 DB	 20			; 00000014H
  00e23	34		 DB	 52			; 00000034H
  00e24	34		 DB	 52			; 00000034H
  00e25	34		 DB	 52			; 00000034H
  00e26	15		 DB	 21			; 00000015H
  00e27	16		 DB	 22			; 00000016H
  00e28	34		 DB	 52			; 00000034H
  00e29	34		 DB	 52			; 00000034H
  00e2a	34		 DB	 52			; 00000034H
  00e2b	34		 DB	 52			; 00000034H
  00e2c	34		 DB	 52			; 00000034H
  00e2d	17		 DB	 23			; 00000017H
  00e2e	34		 DB	 52			; 00000034H
  00e2f	34		 DB	 52			; 00000034H
  00e30	34		 DB	 52			; 00000034H
  00e31	34		 DB	 52			; 00000034H
  00e32	34		 DB	 52			; 00000034H
  00e33	34		 DB	 52			; 00000034H
  00e34	34		 DB	 52			; 00000034H
  00e35	34		 DB	 52			; 00000034H
  00e36	34		 DB	 52			; 00000034H
  00e37	34		 DB	 52			; 00000034H
  00e38	34		 DB	 52			; 00000034H
  00e39	18		 DB	 24			; 00000018H
  00e3a	19		 DB	 25			; 00000019H
  00e3b	34		 DB	 52			; 00000034H
  00e3c	34		 DB	 52			; 00000034H
  00e3d	34		 DB	 52			; 00000034H
  00e3e	34		 DB	 52			; 00000034H
  00e3f	1a		 DB	 26			; 0000001aH
  00e40	34		 DB	 52			; 00000034H
  00e41	34		 DB	 52			; 00000034H
  00e42	34		 DB	 52			; 00000034H
  00e43	34		 DB	 52			; 00000034H
  00e44	34		 DB	 52			; 00000034H
  00e45	34		 DB	 52			; 00000034H
  00e46	34		 DB	 52			; 00000034H
  00e47	34		 DB	 52			; 00000034H
  00e48	34		 DB	 52			; 00000034H
  00e49	1b		 DB	 27			; 0000001bH
  00e4a	34		 DB	 52			; 00000034H
  00e4b	34		 DB	 52			; 00000034H
  00e4c	34		 DB	 52			; 00000034H
  00e4d	34		 DB	 52			; 00000034H
  00e4e	34		 DB	 52			; 00000034H
  00e4f	34		 DB	 52			; 00000034H
  00e50	1c		 DB	 28			; 0000001cH
  00e51	34		 DB	 52			; 00000034H
  00e52	34		 DB	 52			; 00000034H
  00e53	34		 DB	 52			; 00000034H
  00e54	34		 DB	 52			; 00000034H
  00e55	34		 DB	 52			; 00000034H
  00e56	34		 DB	 52			; 00000034H
  00e57	34		 DB	 52			; 00000034H
  00e58	1d		 DB	 29			; 0000001dH
  00e59	34		 DB	 52			; 00000034H
  00e5a	34		 DB	 52			; 00000034H
  00e5b	1e		 DB	 30			; 0000001eH
  00e5c	34		 DB	 52			; 00000034H
  00e5d	34		 DB	 52			; 00000034H
  00e5e	34		 DB	 52			; 00000034H
  00e5f	34		 DB	 52			; 00000034H
  00e60	34		 DB	 52			; 00000034H
  00e61	34		 DB	 52			; 00000034H
  00e62	1f		 DB	 31			; 0000001fH
  00e63	34		 DB	 52			; 00000034H
  00e64	20		 DB	 32			; 00000020H
  00e65	34		 DB	 52			; 00000034H
  00e66	21		 DB	 33			; 00000021H
  00e67	34		 DB	 52			; 00000034H
  00e68	22		 DB	 34			; 00000022H
  00e69	34		 DB	 52			; 00000034H
  00e6a	34		 DB	 52			; 00000034H
  00e6b	34		 DB	 52			; 00000034H
  00e6c	23		 DB	 35			; 00000023H
  00e6d	24		 DB	 36			; 00000024H
  00e6e	34		 DB	 52			; 00000034H
  00e6f	34		 DB	 52			; 00000034H
  00e70	34		 DB	 52			; 00000034H
  00e71	34		 DB	 52			; 00000034H
  00e72	34		 DB	 52			; 00000034H
  00e73	25		 DB	 37			; 00000025H
  00e74	34		 DB	 52			; 00000034H
  00e75	26		 DB	 38			; 00000026H
  00e76	34		 DB	 52			; 00000034H
  00e77	34		 DB	 52			; 00000034H
  00e78	34		 DB	 52			; 00000034H
  00e79	34		 DB	 52			; 00000034H
  00e7a	34		 DB	 52			; 00000034H
  00e7b	34		 DB	 52			; 00000034H
  00e7c	34		 DB	 52			; 00000034H
  00e7d	34		 DB	 52			; 00000034H
  00e7e	34		 DB	 52			; 00000034H
  00e7f	34		 DB	 52			; 00000034H
  00e80	34		 DB	 52			; 00000034H
  00e81	34		 DB	 52			; 00000034H
  00e82	34		 DB	 52			; 00000034H
  00e83	34		 DB	 52			; 00000034H
  00e84	34		 DB	 52			; 00000034H
  00e85	34		 DB	 52			; 00000034H
  00e86	34		 DB	 52			; 00000034H
  00e87	34		 DB	 52			; 00000034H
  00e88	34		 DB	 52			; 00000034H
  00e89	34		 DB	 52			; 00000034H
  00e8a	34		 DB	 52			; 00000034H
  00e8b	34		 DB	 52			; 00000034H
  00e8c	27		 DB	 39			; 00000027H
  00e8d	34		 DB	 52			; 00000034H
  00e8e	28		 DB	 40			; 00000028H
  00e8f	29		 DB	 41			; 00000029H
  00e90	34		 DB	 52			; 00000034H
  00e91	34		 DB	 52			; 00000034H
  00e92	34		 DB	 52			; 00000034H
  00e93	34		 DB	 52			; 00000034H
  00e94	34		 DB	 52			; 00000034H
  00e95	34		 DB	 52			; 00000034H
  00e96	34		 DB	 52			; 00000034H
  00e97	34		 DB	 52			; 00000034H
  00e98	34		 DB	 52			; 00000034H
  00e99	34		 DB	 52			; 00000034H
  00e9a	34		 DB	 52			; 00000034H
  00e9b	34		 DB	 52			; 00000034H
  00e9c	34		 DB	 52			; 00000034H
  00e9d	34		 DB	 52			; 00000034H
  00e9e	34		 DB	 52			; 00000034H
  00e9f	34		 DB	 52			; 00000034H
  00ea0	34		 DB	 52			; 00000034H
  00ea1	34		 DB	 52			; 00000034H
  00ea2	34		 DB	 52			; 00000034H
  00ea3	34		 DB	 52			; 00000034H
  00ea4	34		 DB	 52			; 00000034H
  00ea5	34		 DB	 52			; 00000034H
  00ea6	34		 DB	 52			; 00000034H
  00ea7	34		 DB	 52			; 00000034H
  00ea8	34		 DB	 52			; 00000034H
  00ea9	34		 DB	 52			; 00000034H
  00eaa	2a		 DB	 42			; 0000002aH
  00eab	2b		 DB	 43			; 0000002bH
  00eac	2c		 DB	 44			; 0000002cH
  00ead	34		 DB	 52			; 00000034H
  00eae	34		 DB	 52			; 00000034H
  00eaf	34		 DB	 52			; 00000034H
  00eb0	34		 DB	 52			; 00000034H
  00eb1	34		 DB	 52			; 00000034H
  00eb2	34		 DB	 52			; 00000034H
  00eb3	2d		 DB	 45			; 0000002dH
  00eb4	34		 DB	 52			; 00000034H
  00eb5	34		 DB	 52			; 00000034H
  00eb6	34		 DB	 52			; 00000034H
  00eb7	34		 DB	 52			; 00000034H
  00eb8	34		 DB	 52			; 00000034H
  00eb9	34		 DB	 52			; 00000034H
  00eba	34		 DB	 52			; 00000034H
  00ebb	34		 DB	 52			; 00000034H
  00ebc	2e		 DB	 46			; 0000002eH
  00ebd	34		 DB	 52			; 00000034H
  00ebe	34		 DB	 52			; 00000034H
  00ebf	2f		 DB	 47			; 0000002fH
  00ec0	34		 DB	 52			; 00000034H
  00ec1	34		 DB	 52			; 00000034H
  00ec2	30		 DB	 48			; 00000030H
  00ec3	34		 DB	 52			; 00000034H
  00ec4	34		 DB	 52			; 00000034H
  00ec5	34		 DB	 52			; 00000034H
  00ec6	34		 DB	 52			; 00000034H
  00ec7	34		 DB	 52			; 00000034H
  00ec8	34		 DB	 52			; 00000034H
  00ec9	34		 DB	 52			; 00000034H
  00eca	34		 DB	 52			; 00000034H
  00ecb	34		 DB	 52			; 00000034H
  00ecc	31		 DB	 49			; 00000031H
  00ecd	32		 DB	 50			; 00000032H
  00ece	33		 DB	 51			; 00000033H
  00ecf	90		 npad	 1
$LN160@get_local_:
  00ed0	00 00 00 00	 DD	 $LN17@get_local_
  00ed4	00 00 00 00	 DD	 $LN18@get_local_
$LN155@get_local_:
  00ed8	00		 DB	 0
  00ed9	00		 DB	 0
  00eda	00		 DB	 0
  00edb	01		 DB	 1
  00edc	00		 DB	 0
  00edd	01		 DB	 1
  00ede	01		 DB	 1
  00edf	01		 DB	 1
  00ee0	00		 DB	 0
  00ee1	01		 DB	 1
  00ee2	01		 DB	 1
  00ee3	00		 DB	 0
  00ee4	00		 DB	 0
  00ee5	0f 1f 00	 npad	 3
$LN161@get_local_:
  00ee8	00 00 00 00	 DD	 $LN49@get_local_
  00eec	00 00 00 00	 DD	 $LN50@get_local_
  00ef0	00 00 00 00	 DD	 $LN51@get_local_
  00ef4	00 00 00 00	 DD	 $LN52@get_local_
$LN156@get_local_:
  00ef8	00		 DB	 0
  00ef9	03		 DB	 3
  00efa	03		 DB	 3
  00efb	03		 DB	 3
  00efc	01		 DB	 1
  00efd	01		 DB	 1
  00efe	03		 DB	 3
  00eff	03		 DB	 3
  00f00	03		 DB	 3
  00f01	03		 DB	 3
  00f02	03		 DB	 3
  00f03	03		 DB	 3
  00f04	03		 DB	 3
  00f05	02		 DB	 2
  00f06	02		 DB	 2
  00f07	90		 npad	 1
$LN162@get_local_:
  00f08	00 00 00 00	 DD	 $LN61@get_local_
  00f0c	00 00 00 00	 DD	 $LN60@get_local_
  00f10	00 00 00 00	 DD	 $LN62@get_local_
$LN157@get_local_:
  00f14	00		 DB	 0
  00f15	02		 DB	 2
  00f16	00		 DB	 0
  00f17	00		 DB	 0
  00f18	01		 DB	 1
  00f19	00		 DB	 0
  00f1a	00		 DB	 0
  00f1b	00		 DB	 0
  00f1c	00		 DB	 0
  00f1d	00		 DB	 0
  00f1e	00		 DB	 0
  00f1f	00		 DB	 0
  00f20	00		 DB	 0
  00f21	0f 1f 00	 npad	 3
$LN163@get_local_:
  00f24	00 00 00 00	 DD	 $LN68@get_local_
  00f28	00 00 00 00	 DD	 $LN69@get_local_
  00f2c	00 00 00 00	 DD	 $LN70@get_local_
$LN158@get_local_:
  00f30	00		 DB	 0
  00f31	02		 DB	 2
  00f32	00		 DB	 0
  00f33	01		 DB	 1
  00f34	00		 DB	 0
  00f35	01		 DB	 1
  00f36	01		 DB	 1
  00f37	01		 DB	 1
  00f38	00		 DB	 0
  00f39	01		 DB	 1
  00f3a	01		 DB	 1
  00f3b	01		 DB	 1
  00f3c	01		 DB	 1
?get_local_int_value@@YGHPAUENTITY@@W4INT_TYPES@@@Z ENDP ; get_local_int_value
_TEXT	ENDS
; Function compile flags: /Odtp /ZI
; File c:\users\nhv90\projects\eech\aphavoc\source\entity\mobile\aircraft\ac_int.c
;	COMDAT ?set_client_int_value@@YGXPAUENTITY@@W4INT_TYPES@@H@Z
_TEXT	SEGMENT
_en$ = 8						; size = 4
_type$ = 12						; size = 4
_value$ = 16						; size = 4
?set_client_int_value@@YGXPAUENTITY@@W4INT_TYPES@@H@Z PROC ; set_client_int_value, COMDAT

; 369  : {

  00000	55		 push	 ebp
  00001	8b ec		 mov	 ebp, esp
  00003	83 ec 40	 sub	 esp, 64			; 00000040H
  00006	53		 push	 ebx
  00007	56		 push	 esi
  00008	57		 push	 edi

; 370  : 	if (get_comms_data_flow () == COMMS_DATA_FLOW_TX)

  00009	83 3d 00 00 00
	00 00		 cmp	 DWORD PTR ?system_comms_data_flow@@3W4COMMS_DATA_FLOW_TYPES@@A, 0 ; system_comms_data_flow
  00010	75 34		 jne	 SHORT $LN2@set_client

; 371  : 	{
; 372  : 		validate_client_server_remote_fn ();

  00012	e8 00 00 00 00	 call	 ?assert_client_server_remote_fn@@YGHXZ ; assert_client_server_remote_fn
  00017	85 c0		 test	 eax, eax
  00019	75 18		 jne	 SHORT $LN4@set_client
  0001b	a1 00 00 00 00	 mov	 eax, DWORD PTR ?__LINE__Var@?0??set_client_int_value@@YGXPAUENTITY@@W4INT_TYPES@@H@Z@4JA
  00020	83 c0 03	 add	 eax, 3
  00023	50		 push	 eax
  00024	68 00 00 00 00	 push	 OFFSET ??_C@_0EM@DGHJLEAG@c?3?2users?2nhv90?2projects?2eech?2ap@
  00029	68 00 00 00 00	 push	 OFFSET ??_C@_0CC@BNNNEGEG@assert_client_server_remote_fn?5@
  0002e	e8 00 00 00 00	 call	 ?process_assert@@YGXPBD0H@Z ; process_assert
$LN4@set_client:

; 373  : 
; 374  : 		set_remote_int_value (en, type, value);

  00033	8b 45 10	 mov	 eax, DWORD PTR _value$[ebp]
  00036	50		 push	 eax
  00037	8b 4d 0c	 mov	 ecx, DWORD PTR _type$[ebp]
  0003a	51		 push	 ecx
  0003b	8b 55 08	 mov	 edx, DWORD PTR _en$[ebp]
  0003e	52		 push	 edx
  0003f	e8 00 00 00 00	 call	 ?set_remote_int_value@@YGXPAUENTITY@@W4INT_TYPES@@H@Z ; set_remote_int_value

; 375  : 	}
; 376  : 	else

  00044	eb 32		 jmp	 SHORT $LN1@set_client
$LN2@set_client:

; 377  : 	{
; 378  : 		validate_client_server_local_fn ();

  00046	e8 00 00 00 00	 call	 ?assert_client_server_local_fn@@YGHXZ ; assert_client_server_local_fn
  0004b	85 c0		 test	 eax, eax
  0004d	75 18		 jne	 SHORT $LN5@set_client
  0004f	a1 00 00 00 00	 mov	 eax, DWORD PTR ?__LINE__Var@?0??set_client_int_value@@YGXPAUENTITY@@W4INT_TYPES@@H@Z@4JA
  00054	83 c0 09	 add	 eax, 9
  00057	50		 push	 eax
  00058	68 00 00 00 00	 push	 OFFSET ??_C@_0EM@DGHJLEAG@c?3?2users?2nhv90?2projects?2eech?2ap@
  0005d	68 00 00 00 00	 push	 OFFSET ??_C@_0CB@CFOCLFOK@assert_client_server_local_fn?5?$CI@
  00062	e8 00 00 00 00	 call	 ?process_assert@@YGXPBD0H@Z ; process_assert
$LN5@set_client:

; 379  : 
; 380  : 		set_local_int_value (en, type, value);

  00067	8b 45 10	 mov	 eax, DWORD PTR _value$[ebp]
  0006a	50		 push	 eax
  0006b	8b 4d 0c	 mov	 ecx, DWORD PTR _type$[ebp]
  0006e	51		 push	 ecx
  0006f	8b 55 08	 mov	 edx, DWORD PTR _en$[ebp]
  00072	52		 push	 edx
  00073	e8 00 00 00 00	 call	 ?set_local_int_value@@YGXPAUENTITY@@W4INT_TYPES@@H@Z ; set_local_int_value
$LN1@set_client:

; 381  : 	}
; 382  : }

  00078	5f		 pop	 edi
  00079	5e		 pop	 esi
  0007a	5b		 pop	 ebx
  0007b	8b e5		 mov	 esp, ebp
  0007d	5d		 pop	 ebp
  0007e	c2 0c 00	 ret	 12			; 0000000cH
?set_client_int_value@@YGXPAUENTITY@@W4INT_TYPES@@H@Z ENDP ; set_client_int_value
_TEXT	ENDS
; Function compile flags: /Odtp /ZI
; File c:\users\nhv90\projects\eech\aphavoc\source\entity\mobile\aircraft\ac_int.c
;	COMDAT ?set_server_int_value@@YGXPAUENTITY@@W4INT_TYPES@@H@Z
_TEXT	SEGMENT
_en$ = 8						; size = 4
_type$ = 12						; size = 4
_value$ = 16						; size = 4
?set_server_int_value@@YGXPAUENTITY@@W4INT_TYPES@@H@Z PROC ; set_server_int_value, COMDAT

; 354  : {

  00000	55		 push	 ebp
  00001	8b ec		 mov	 ebp, esp
  00003	83 ec 40	 sub	 esp, 64			; 00000040H
  00006	53		 push	 ebx
  00007	56		 push	 esi
  00008	57		 push	 edi

; 355  : 	validate_client_server_local_fn ();

  00009	e8 00 00 00 00	 call	 ?assert_client_server_local_fn@@YGHXZ ; assert_client_server_local_fn
  0000e	85 c0		 test	 eax, eax
  00010	75 18		 jne	 SHORT $LN2@set_server
  00012	a1 00 00 00 00	 mov	 eax, DWORD PTR ?__LINE__Var@?0??set_server_int_value@@YGXPAUENTITY@@W4INT_TYPES@@H@Z@4JA
  00017	83 c0 01	 add	 eax, 1
  0001a	50		 push	 eax
  0001b	68 00 00 00 00	 push	 OFFSET ??_C@_0EM@DGHJLEAG@c?3?2users?2nhv90?2projects?2eech?2ap@
  00020	68 00 00 00 00	 push	 OFFSET ??_C@_0CB@CFOCLFOK@assert_client_server_local_fn?5?$CI@
  00025	e8 00 00 00 00	 call	 ?process_assert@@YGXPBD0H@Z ; process_assert
$LN2@set_server:

; 356  : 
; 357  : 	set_local_int_value (en, type, value);

  0002a	8b 45 10	 mov	 eax, DWORD PTR _value$[ebp]
  0002d	50		 push	 eax
  0002e	8b 4d 0c	 mov	 ecx, DWORD PTR _type$[ebp]
  00031	51		 push	 ecx
  00032	8b 55 08	 mov	 edx, DWORD PTR _en$[ebp]
  00035	52		 push	 edx
  00036	e8 00 00 00 00	 call	 ?set_local_int_value@@YGXPAUENTITY@@W4INT_TYPES@@H@Z ; set_local_int_value

; 358  : 
; 359  : 	validate_client_server_remote_fn ();

  0003b	e8 00 00 00 00	 call	 ?assert_client_server_remote_fn@@YGHXZ ; assert_client_server_remote_fn
  00040	85 c0		 test	 eax, eax
  00042	75 18		 jne	 SHORT $LN3@set_server
  00044	a1 00 00 00 00	 mov	 eax, DWORD PTR ?__LINE__Var@?0??set_server_int_value@@YGXPAUENTITY@@W4INT_TYPES@@H@Z@4JA
  00049	83 c0 05	 add	 eax, 5
  0004c	50		 push	 eax
  0004d	68 00 00 00 00	 push	 OFFSET ??_C@_0EM@DGHJLEAG@c?3?2users?2nhv90?2projects?2eech?2ap@
  00052	68 00 00 00 00	 push	 OFFSET ??_C@_0CC@BNNNEGEG@assert_client_server_remote_fn?5@
  00057	e8 00 00 00 00	 call	 ?process_assert@@YGXPBD0H@Z ; process_assert
$LN3@set_server:

; 360  : 
; 361  : 	set_remote_int_value (en, type, value);

  0005c	8b 45 10	 mov	 eax, DWORD PTR _value$[ebp]
  0005f	50		 push	 eax
  00060	8b 4d 0c	 mov	 ecx, DWORD PTR _type$[ebp]
  00063	51		 push	 ecx
  00064	8b 55 08	 mov	 edx, DWORD PTR _en$[ebp]
  00067	52		 push	 edx
  00068	e8 00 00 00 00	 call	 ?set_remote_int_value@@YGXPAUENTITY@@W4INT_TYPES@@H@Z ; set_remote_int_value

; 362  : }

  0006d	5f		 pop	 edi
  0006e	5e		 pop	 esi
  0006f	5b		 pop	 ebx
  00070	8b e5		 mov	 esp, ebp
  00072	5d		 pop	 ebp
  00073	c2 0c 00	 ret	 12			; 0000000cH
?set_server_int_value@@YGXPAUENTITY@@W4INT_TYPES@@H@Z ENDP ; set_server_int_value
_TEXT	ENDS
; Function compile flags: /Odtp /ZI
; File c:\users\nhv90\projects\eech\aphavoc\source\entity\mobile\aircraft\ac_int.c
;	COMDAT ?set_remote_int_value@@YGXPAUENTITY@@W4INT_TYPES@@H@Z
_TEXT	SEGMENT
_en$ = 8						; size = 4
_type$ = 12						; size = 4
_value$ = 16						; size = 4
?set_remote_int_value@@YGXPAUENTITY@@W4INT_TYPES@@H@Z PROC ; set_remote_int_value, COMDAT

; 339  : {

  00000	55		 push	 ebp
  00001	8b ec		 mov	 ebp, esp
  00003	83 ec 40	 sub	 esp, 64			; 00000040H
  00006	53		 push	 ebx
  00007	56		 push	 esi
  00008	57		 push	 edi

; 340  : 	#if DEBUG_MODULE
; 341  : 
; 342  : 	debug_log_entity_args (ENTITY_DEBUG_REMOTE, ENTITY_DEBUG_INT_VALUE, en, type, value);
; 343  : 
; 344  : 	#endif
; 345  : 
; 346  : 	transmit_entity_comms_message (ENTITY_COMMS_INT_VALUE, en, type, value);

  00009	8b 45 10	 mov	 eax, DWORD PTR _value$[ebp]
  0000c	50		 push	 eax
  0000d	8b 4d 0c	 mov	 ecx, DWORD PTR _type$[ebp]
  00010	51		 push	 ecx
  00011	8b 55 08	 mov	 edx, DWORD PTR _en$[ebp]
  00014	52		 push	 edx
  00015	6a 17		 push	 23			; 00000017H
  00017	e8 00 00 00 00	 call	 ?transmit_entity_comms_message@@YAXW4ENTITY_COMMS_MESSAGES@@PAUENTITY@@ZZ ; transmit_entity_comms_message
  0001c	83 c4 10	 add	 esp, 16			; 00000010H

; 347  : }

  0001f	5f		 pop	 edi
  00020	5e		 pop	 esi
  00021	5b		 pop	 ebx
  00022	8b e5		 mov	 esp, ebp
  00024	5d		 pop	 ebp
  00025	c2 0c 00	 ret	 12			; 0000000cH
?set_remote_int_value@@YGXPAUENTITY@@W4INT_TYPES@@H@Z ENDP ; set_remote_int_value
_TEXT	ENDS
; Function compile flags: /Odtp /ZI
; File c:\users\nhv90\projects\eech\aphavoc\source\entity\mobile\aircraft\ac_int.c
;	COMDAT ?set_local_int_value@@YGXPAUENTITY@@W4INT_TYPES@@H@Z
_TEXT	SEGMENT
tv209 = -72						; size = 4
tv65 = -72						; size = 4
_raw$ = -4						; size = 4
_en$ = 8						; size = 4
_type$ = 12						; size = 4
_value$ = 16						; size = 4
?set_local_int_value@@YGXPAUENTITY@@W4INT_TYPES@@H@Z PROC ; set_local_int_value, COMDAT

; 126  : {

  00000	55		 push	 ebp
  00001	8b ec		 mov	 ebp, esp
  00003	83 ec 48	 sub	 esp, 72			; 00000048H
  00006	53		 push	 ebx
  00007	56		 push	 esi
  00008	57		 push	 edi

; 127  : 	aircraft
; 128  : 		*raw;
; 129  : 
; 130  : 	#if DEBUG_MODULE
; 131  : 
; 132  : 	debug_log_entity_args (ENTITY_DEBUG_LOCAL, ENTITY_DEBUG_INT_VALUE, en, type, value);
; 133  : 
; 134  : 	#endif
; 135  : 
; 136  : 	raw = (aircraft *) get_local_entity_data (en);

  00009	8b 45 08	 mov	 eax, DWORD PTR _en$[ebp]
  0000c	8b 48 04	 mov	 ecx, DWORD PTR [eax+4]
  0000f	89 4d fc	 mov	 DWORD PTR _raw$[ebp], ecx

; 137  : 
; 138  : 	switch (type)

  00012	8b 45 0c	 mov	 eax, DWORD PTR _type$[ebp]
  00015	89 45 b8	 mov	 DWORD PTR tv65[ebp], eax
  00018	8b 4d b8	 mov	 ecx, DWORD PTR tv65[ebp]
  0001b	83 e9 22	 sub	 ecx, 34			; 00000022H
  0001e	89 4d b8	 mov	 DWORD PTR tv65[ebp], ecx
  00021	81 7d b8 e3 00
	00 00		 cmp	 DWORD PTR tv65[ebp], 227 ; 000000e3H
  00028	0f 87 fd 02 00
	00		 ja	 $LN29@set_local_
  0002e	8b 55 b8	 mov	 edx, DWORD PTR tv65[ebp]
  00031	0f b6 82 00 00
	00 00		 movzx	 eax, BYTE PTR $LN33@set_local_[edx]
  00038	ff 24 85 00 00
	00 00		 jmp	 DWORD PTR $LN34@set_local_[eax*4]
$LN4@set_local_:

; 139  : 	{
; 140  : 		////////////////////////////////////////
; 141  : 		case INT_TYPE_CPG_IDENTIFIED:
; 142  : 		////////////////////////////////////////
; 143  : 		{
; 144  : 			raw->cpg_identified = value;

  0003f	8b 45 10	 mov	 eax, DWORD PTR _value$[ebp]
  00042	83 e0 01	 and	 eax, 1
  00045	c1 e0 0f	 shl	 eax, 15			; 0000000fH
  00048	8b 4d fc	 mov	 ecx, DWORD PTR _raw$[ebp]
  0004b	8b 91 2c 01 00
	00		 mov	 edx, DWORD PTR [ecx+300]
  00051	81 e2 ff 7f ff
	ff		 and	 edx, -32769		; ffff7fffH
  00057	0b d0		 or	 edx, eax
  00059	8b 45 fc	 mov	 eax, DWORD PTR _raw$[ebp]
  0005c	89 90 2c 01 00
	00		 mov	 DWORD PTR [eax+300], edx

; 145  : 
; 146  : 			break;

  00062	e9 3c 03 00 00	 jmp	 $LN2@set_local_
$LN5@set_local_:

; 147  : 		}
; 148  : 		////////////////////////////////////////
; 149  : 		case INT_TYPE_DAMAGE_LEVEL:
; 150  : 		////////////////////////////////////////
; 151  : 		{
; 152  : 			assess_aircraft_damage_level (en, raw->damage_level, value);

  00067	8b 45 10	 mov	 eax, DWORD PTR _value$[ebp]
  0006a	50		 push	 eax
  0006b	8b 4d fc	 mov	 ecx, DWORD PTR _raw$[ebp]
  0006e	8b 91 34 01 00
	00		 mov	 edx, DWORD PTR [ecx+308]
  00074	52		 push	 edx
  00075	8b 45 08	 mov	 eax, DWORD PTR _en$[ebp]
  00078	50		 push	 eax
  00079	e8 00 00 00 00	 call	 ?assess_aircraft_damage_level@@YGXPAUENTITY@@HH@Z ; assess_aircraft_damage_level

; 153  : 
; 154  : 			raw->damage_level = value;

  0007e	8b 45 fc	 mov	 eax, DWORD PTR _raw$[ebp]
  00081	8b 4d 10	 mov	 ecx, DWORD PTR _value$[ebp]
  00084	89 88 34 01 00
	00		 mov	 DWORD PTR [eax+308], ecx

; 155  : 
; 156  : 			break;

  0008a	e9 14 03 00 00	 jmp	 $LN2@set_local_
$LN6@set_local_:

; 157  : 		}
; 158  : 		////////////////////////////////////////
; 159  : 		case INT_TYPE_EJECTED:
; 160  : 		////////////////////////////////////////
; 161  : 		{
; 162  : 			raw->ejected = value;

  0008f	8b 45 10	 mov	 eax, DWORD PTR _value$[ebp]
  00092	83 e0 01	 and	 eax, 1
  00095	c1 e0 18	 shl	 eax, 24			; 00000018H
  00098	8b 4d fc	 mov	 ecx, DWORD PTR _raw$[ebp]
  0009b	8b 91 2c 01 00
	00		 mov	 edx, DWORD PTR [ecx+300]
  000a1	81 e2 ff ff ff
	fe		 and	 edx, -16777217		; feffffffH
  000a7	0b d0		 or	 edx, eax
  000a9	8b 45 fc	 mov	 eax, DWORD PTR _raw$[ebp]
  000ac	89 90 2c 01 00
	00		 mov	 DWORD PTR [eax+300], edx

; 163  : 
; 164  : 			break;

  000b2	e9 ec 02 00 00	 jmp	 $LN2@set_local_
$LN7@set_local_:

; 165  : 		}
; 166  : 		////////////////////////////////////////
; 167  : 		case INT_TYPE_FORMATION_POSITION:
; 168  : 		////////////////////////////////////////
; 169  : 		{
; 170  : 			raw->formation_position = value;

  000b7	8b 45 10	 mov	 eax, DWORD PTR _value$[ebp]
  000ba	83 e0 1f	 and	 eax, 31			; 0000001fH
  000bd	8b 4d fc	 mov	 ecx, DWORD PTR _raw$[ebp]
  000c0	8b 91 2c 01 00
	00		 mov	 edx, DWORD PTR [ecx+300]
  000c6	83 e2 e0	 and	 edx, -32		; ffffffe0H
  000c9	0b d0		 or	 edx, eax
  000cb	8b 45 fc	 mov	 eax, DWORD PTR _raw$[ebp]
  000ce	89 90 2c 01 00
	00		 mov	 DWORD PTR [eax+300], edx

; 171  : 
; 172  : 			break;

  000d4	e9 ca 02 00 00	 jmp	 $LN2@set_local_
$LN8@set_local_:

; 173  : 		}
; 174  : 		////////////////////////////////////////
; 175  : 		case INT_TYPE_GROUP_MEMBER_NUMBER:
; 176  : 		////////////////////////////////////////
; 177  : 		{
; 178  : 			ASSERT (value >= 0);

  000d9	83 7d 10 00	 cmp	 DWORD PTR _value$[ebp], 0
  000dd	7d 18		 jge	 SHORT $LN9@set_local_
  000df	a1 00 00 00 00	 mov	 eax, DWORD PTR ?__LINE__Var@?0??set_local_int_value@@YGXPAUENTITY@@W4INT_TYPES@@H@Z@4JA
  000e4	83 c0 34	 add	 eax, 52			; 00000034H
  000e7	50		 push	 eax
  000e8	68 00 00 00 00	 push	 OFFSET ??_C@_0EM@DGHJLEAG@c?3?2users?2nhv90?2projects?2eech?2ap@
  000ed	68 00 00 00 00	 push	 OFFSET ??_C@_0L@MHFEGEFF@value?5?$DO?$DN?50@
  000f2	e8 00 00 00 00	 call	 ?process_assert@@YGXPBD0H@Z ; process_assert
$LN9@set_local_:

; 179  : 
; 180  : 			ASSERT (value < (1 << NUM_GROUP_MEMBER_NUMBER_BITS));

  000f7	83 7d 10 20	 cmp	 DWORD PTR _value$[ebp], 32 ; 00000020H
  000fb	7c 18		 jl	 SHORT $LN10@set_local_
  000fd	a1 00 00 00 00	 mov	 eax, DWORD PTR ?__LINE__Var@?0??set_local_int_value@@YGXPAUENTITY@@W4INT_TYPES@@H@Z@4JA
  00102	83 c0 36	 add	 eax, 54			; 00000036H
  00105	50		 push	 eax
  00106	68 00 00 00 00	 push	 OFFSET ??_C@_0EM@DGHJLEAG@c?3?2users?2nhv90?2projects?2eech?2ap@
  0010b	68 00 00 00 00	 push	 OFFSET ??_C@_0CM@HGKGIGCD@value?5?$DM?5?$CI1?5?$DM?$DM?5NUM_GROUP_MEMBER_@
  00110	e8 00 00 00 00	 call	 ?process_assert@@YGXPBD0H@Z ; process_assert
$LN10@set_local_:

; 181  : 
; 182  : 			raw->group_member_number = value;

  00115	8b 45 10	 mov	 eax, DWORD PTR _value$[ebp]
  00118	83 e0 1f	 and	 eax, 31			; 0000001fH
  0011b	c1 e0 10	 shl	 eax, 16			; 00000010H
  0011e	8b 4d fc	 mov	 ecx, DWORD PTR _raw$[ebp]
  00121	8b 91 2c 01 00
	00		 mov	 edx, DWORD PTR [ecx+300]
  00127	81 e2 ff ff e0
	ff		 and	 edx, -2031617		; ffe0ffffH
  0012d	0b d0		 or	 edx, eax
  0012f	8b 45 fc	 mov	 eax, DWORD PTR _raw$[ebp]
  00132	89 90 2c 01 00
	00		 mov	 DWORD PTR [eax+300], edx

; 183  : 
; 184  : 			break;

  00138	e9 66 02 00 00	 jmp	 $LN2@set_local_
$LN11@set_local_:

; 185  : 		}
; 186  : 		////////////////////////////////////////
; 187  : 		case INT_TYPE_GUNSHIP_RADAR_LOS_CLEAR:
; 188  : 		////////////////////////////////////////
; 189  : 		{
; 190  : 			raw->gunship_radar_los_clear = value;

  0013d	8b 45 10	 mov	 eax, DWORD PTR _value$[ebp]
  00140	83 e0 01	 and	 eax, 1
  00143	c1 e0 0d	 shl	 eax, 13			; 0000000dH
  00146	8b 4d fc	 mov	 ecx, DWORD PTR _raw$[ebp]
  00149	8b 91 2c 01 00
	00		 mov	 edx, DWORD PTR [ecx+300]
  0014f	81 e2 ff df ff
	ff		 and	 edx, -8193		; ffffdfffH
  00155	0b d0		 or	 edx, eax
  00157	8b 45 fc	 mov	 eax, DWORD PTR _raw$[ebp]
  0015a	89 90 2c 01 00
	00		 mov	 DWORD PTR [eax+300], edx

; 191  : 
; 192  : 			break;

  00160	e9 3e 02 00 00	 jmp	 $LN2@set_local_
$LN12@set_local_:

; 193  : 		}
; 194  : 		////////////////////////////////////////
; 195  : 		case INT_TYPE_ID_NUMBER:
; 196  : 		////////////////////////////////////////
; 197  : 		{
; 198  : 			raw->id_number = value;

  00165	8b 45 fc	 mov	 eax, DWORD PTR _raw$[ebp]
  00168	8b 4d 10	 mov	 ecx, DWORD PTR _value$[ebp]
  0016b	89 88 38 01 00
	00		 mov	 DWORD PTR [eax+312], ecx

; 199  : 
; 200  : 			break;

  00171	e9 2d 02 00 00	 jmp	 $LN2@set_local_
$LN13@set_local_:

; 201  : 		}
; 202  : 		////////////////////////////////////////
; 203  : 		case INT_TYPE_ID_NUMBER_SIGNIFICANT_DIGITS:
; 204  : 		////////////////////////////////////////
; 205  : 		{
; 206  : 			raw->id_number_significant_digits = value;

  00176	8b 45 10	 mov	 eax, DWORD PTR _value$[ebp]
  00179	83 e0 07	 and	 eax, 7
  0017c	c1 e0 15	 shl	 eax, 21			; 00000015H
  0017f	8b 4d fc	 mov	 ecx, DWORD PTR _raw$[ebp]
  00182	8b 91 2c 01 00
	00		 mov	 edx, DWORD PTR [ecx+300]
  00188	81 e2 ff ff 1f
	ff		 and	 edx, -14680065		; ff1fffffH
  0018e	0b d0		 or	 edx, eax
  00190	8b 45 fc	 mov	 eax, DWORD PTR _raw$[ebp]
  00193	89 90 2c 01 00
	00		 mov	 DWORD PTR [eax+300], edx

; 207  : 
; 208  : 			break;

  00199	e9 05 02 00 00	 jmp	 $LN2@set_local_
$LN14@set_local_:

; 209  : 		}
; 210  : 		////////////////////////////////////////
; 211  : 		case INT_TYPE_LIGHTS_ON:
; 212  : 		////////////////////////////////////////
; 213  : 		{
; 214  : 			raw->lights_on = value;

  0019e	8b 45 10	 mov	 eax, DWORD PTR _value$[ebp]
  001a1	83 e0 01	 and	 eax, 1
  001a4	c1 e0 0e	 shl	 eax, 14			; 0000000eH
  001a7	8b 4d fc	 mov	 ecx, DWORD PTR _raw$[ebp]
  001aa	8b 91 2c 01 00
	00		 mov	 edx, DWORD PTR [ecx+300]
  001b0	81 e2 ff bf ff
	ff		 and	 edx, -16385		; ffffbfffH
  001b6	0b d0		 or	 edx, eax
  001b8	8b 45 fc	 mov	 eax, DWORD PTR _raw$[ebp]
  001bb	89 90 2c 01 00
	00		 mov	 DWORD PTR [eax+300], edx

; 215  : 
; 216  : 			break;

  001c1	e9 dd 01 00 00	 jmp	 $LN2@set_local_
$LN15@set_local_:

; 217  : 		}
; 218  : 		////////////////////////////////////////
; 219  : 		case INT_TYPE_OBJECT_3D_SHAPE:
; 220  : 		////////////////////////////////////////
; 221  : 		{
; 222  : 			raw->object_3d_shape = value;

  001c6	8b 45 fc	 mov	 eax, DWORD PTR _raw$[ebp]
  001c9	8b 4d 10	 mov	 ecx, DWORD PTR _value$[ebp]
  001cc	89 88 80 00 00
	00		 mov	 DWORD PTR [eax+128], ecx

; 223  : 
; 224  : 			break;

  001d2	e9 cc 01 00 00	 jmp	 $LN2@set_local_
$LN16@set_local_:

; 225  : 		}
; 226  : 		////////////////////////////////////////
; 227  : 		case INT_TYPE_OPERATIONAL_STATE:
; 228  : 		////////////////////////////////////////
; 229  : 		{
; 230  : 
; 231  : 			raw->operational_state = value;

  001d7	8b 45 10	 mov	 eax, DWORD PTR _value$[ebp]
  001da	83 e0 1f	 and	 eax, 31			; 0000001fH
  001dd	c1 e0 05	 shl	 eax, 5
  001e0	8b 4d fc	 mov	 ecx, DWORD PTR _raw$[ebp]
  001e3	8b 91 2c 01 00
	00		 mov	 edx, DWORD PTR [ecx+300]
  001e9	81 e2 1f fc ff
	ff		 and	 edx, -993		; fffffc1fH
  001ef	0b d0		 or	 edx, eax
  001f1	8b 45 fc	 mov	 eax, DWORD PTR _raw$[ebp]
  001f4	89 90 2c 01 00
	00		 mov	 DWORD PTR [eax+300], edx

; 232  : 
; 233  : 			break;

  001fa	e9 a4 01 00 00	 jmp	 $LN2@set_local_
$LN17@set_local_:

; 234  : 		}
; 235  : 		////////////////////////////////////////
; 236  : 		case INT_TYPE_SELECTED_WEAPON:
; 237  : 		////////////////////////////////////////
; 238  : 		{
; 239  : 			//
; 240  : 			// stop continuous sound effect
; 241  : 			//
; 242  : 
; 243  : 			if (raw->selected_weapon != value)

  001ff	8b 45 fc	 mov	 eax, DWORD PTR _raw$[ebp]
  00202	8b 88 24 01 00
	00		 mov	 ecx, DWORD PTR [eax+292]
  00208	3b 4d 10	 cmp	 ecx, DWORD PTR _value$[ebp]
  0020b	74 13		 je	 SHORT $LN18@set_local_

; 244  : 			{
; 245  : 				pause_local_continuous_weapon_sound_effect (en, raw->selected_weapon);

  0020d	8b 45 fc	 mov	 eax, DWORD PTR _raw$[ebp]
  00210	8b 88 24 01 00
	00		 mov	 ecx, DWORD PTR [eax+292]
  00216	51		 push	 ecx
  00217	8b 55 08	 mov	 edx, DWORD PTR _en$[ebp]
  0021a	52		 push	 edx
  0021b	e8 00 00 00 00	 call	 ?pause_local_continuous_weapon_sound_effect@@YGXPAUENTITY@@H@Z ; pause_local_continuous_weapon_sound_effect
$LN18@set_local_:

; 246  : 			}
; 247  : 
; 248  : 			//
; 249  : 			// play weapon selected speech
; 250  : 			//
; 251  : 
; 252  : 			if (get_comms_model () == COMMS_MODEL_SERVER)

  00220	83 3d 00 00 00
	00 00		 cmp	 DWORD PTR ?system_comms_model@@3W4COMMS_MODEL_TYPES@@A, 0 ; system_comms_model
  00227	75 0d		 jne	 SHORT $LN19@set_local_

; 253  : 			{
; 254  : 				play_entity_weapon_selected_speech (en, value);

  00229	8b 45 10	 mov	 eax, DWORD PTR _value$[ebp]
  0022c	50		 push	 eax
  0022d	8b 4d 08	 mov	 ecx, DWORD PTR _en$[ebp]
  00230	51		 push	 ecx
  00231	e8 00 00 00 00	 call	 ?play_entity_weapon_selected_speech@@YGXPAUENTITY@@H@Z ; play_entity_weapon_selected_speech
$LN19@set_local_:

; 255  : 			}
; 256  : 
; 257  : 			raw->selected_weapon = value;

  00236	8b 45 fc	 mov	 eax, DWORD PTR _raw$[ebp]
  00239	8b 4d 10	 mov	 ecx, DWORD PTR _value$[ebp]
  0023c	89 88 24 01 00
	00		 mov	 DWORD PTR [eax+292], ecx

; 258  : 
; 259  : 			raw->weapon_burst_timer = 0.0;

  00242	8b 45 fc	 mov	 eax, DWORD PTR _raw$[ebp]
  00245	0f 57 c0	 xorps	 xmm0, xmm0
  00248	f3 0f 11 80 04
	01 00 00	 movss	 DWORD PTR [eax+260], xmm0

; 260  : 
; 261  : 			//
; 262  : 			// special case for player's gunship
; 263  : 			//
; 264  : 
; 265  : 			if (en == get_gunship_entity ())

  00250	8b 45 08	 mov	 eax, DWORD PTR _en$[ebp]
  00253	3b 05 00 00 00
	00		 cmp	 eax, DWORD PTR ?gunship_entity@@3PAUENTITY@@A ; gunship_entity
  00259	75 47		 jne	 SHORT $LN24@set_local_

; 266  : 			{
; 267  : 				rocket_salvo_count = 0;

  0025b	c7 05 00 00 00
	00 00 00 00 00	 mov	 DWORD PTR ?rocket_salvo_count@@3HA, 0 ; rocket_salvo_count

; 268  : 
; 269  : 				if (value == ENTITY_SUB_TYPE_WEAPON_NO_WEAPON)

  00265	83 7d 10 00	 cmp	 DWORD PTR _value$[ebp], 0
  00269	75 0c		 jne	 SHORT $LN21@set_local_

; 270  : 				{
; 271  : 					hud_mode = previous_hud_mode;

  0026b	a1 00 00 00 00	 mov	 eax, DWORD PTR ?previous_hud_mode@@3W4HUD_MODES@@A ; previous_hud_mode
  00270	a3 00 00 00 00	 mov	 DWORD PTR ?hud_mode@@3W4HUD_MODES@@A, eax ; hud_mode

; 272  : 				}
; 273  : 				else

  00275	eb 2b		 jmp	 SHORT $LN24@set_local_
$LN21@set_local_:

; 274  : 				{
; 275  : 					if (hud_mode != HUD_MODE_WEAPON)

  00277	83 3d 00 00 00
	00 02		 cmp	 DWORD PTR ?hud_mode@@3W4HUD_MODES@@A, 2 ; hud_mode
  0027e	74 0a		 je	 SHORT $LN23@set_local_

; 276  : 						previous_hud_mode = hud_mode;

  00280	a1 00 00 00 00	 mov	 eax, DWORD PTR ?hud_mode@@3W4HUD_MODES@@A ; hud_mode
  00285	a3 00 00 00 00	 mov	 DWORD PTR ?previous_hud_mode@@3W4HUD_MODES@@A, eax ; previous_hud_mode
$LN23@set_local_:

; 277  : 					hud_mode = HUD_MODE_WEAPON;

  0028a	c7 05 00 00 00
	00 02 00 00 00	 mov	 DWORD PTR ?hud_mode@@3W4HUD_MODES@@A, 2 ; hud_mode

; 278  : 
; 279  : 					if (get_global_simple_avionics ())

  00294	83 3d 6c 03 00
	00 00		 cmp	 DWORD PTR ?global_options@@3UGLOBAL_OPTIONS_DATA@@A+876, 0
  0029b	74 05		 je	 SHORT $LN24@set_local_

; 280  : 					{
; 281  : 						select_simple_avionics_target_acquisition_system ();

  0029d	e8 00 00 00 00	 call	 ?select_simple_avionics_target_acquisition_system@@YGXXZ ; select_simple_avionics_target_acquisition_system
$LN24@set_local_:

; 282  : 					}
; 283  : 				}
; 284  : 			}
; 285  : 
; 286  : 			break;

  002a2	e9 fc 00 00 00	 jmp	 $LN2@set_local_
$LN25@set_local_:

; 287  : 		}
; 288  : 		////////////////////////////////////////
; 289  : 		case INT_TYPE_SELECTED_WEAPON_SYSTEM_READY:
; 290  : 		////////////////////////////////////////
; 291  : 		{
; 292  : 			raw->selected_weapon_system_ready = value;

  002a7	8b 45 10	 mov	 eax, DWORD PTR _value$[ebp]
  002aa	83 e0 01	 and	 eax, 1
  002ad	c1 e0 0b	 shl	 eax, 11			; 0000000bH
  002b0	8b 4d fc	 mov	 ecx, DWORD PTR _raw$[ebp]
  002b3	8b 91 2c 01 00
	00		 mov	 edx, DWORD PTR [ecx+300]
  002b9	81 e2 ff f7 ff
	ff		 and	 edx, -2049		; fffff7ffH
  002bf	0b d0		 or	 edx, eax
  002c1	8b 45 fc	 mov	 eax, DWORD PTR _raw$[ebp]
  002c4	89 90 2c 01 00
	00		 mov	 DWORD PTR [eax+300], edx

; 293  : 
; 294  : 			break;

  002ca	e9 d4 00 00 00	 jmp	 $LN2@set_local_
$LN26@set_local_:

; 295  : 		}
; 296  : 		////////////////////////////////////////
; 297  : 		case INT_TYPE_WEAPON_AND_TARGET_VECTORS_VALID:
; 298  : 		////////////////////////////////////////
; 299  : 		{
; 300  : 			raw->weapon_and_target_vectors_valid = value;

  002cf	8b 45 10	 mov	 eax, DWORD PTR _value$[ebp]
  002d2	83 e0 01	 and	 eax, 1
  002d5	c1 e0 0c	 shl	 eax, 12			; 0000000cH
  002d8	8b 4d fc	 mov	 ecx, DWORD PTR _raw$[ebp]
  002db	8b 91 2c 01 00
	00		 mov	 edx, DWORD PTR [ecx+300]
  002e1	81 e2 ff ef ff
	ff		 and	 edx, -4097		; ffffefffH
  002e7	0b d0		 or	 edx, eax
  002e9	8b 45 fc	 mov	 eax, DWORD PTR _raw$[ebp]
  002ec	89 90 2c 01 00
	00		 mov	 DWORD PTR [eax+300], edx

; 301  : 
; 302  : 			break;

  002f2	e9 ac 00 00 00	 jmp	 $LN2@set_local_
$LN27@set_local_:

; 303  : 		}
; 304  : 		////////////////////////////////////////
; 305  : 		case INT_TYPE_WEAPON_CONFIG_TYPE:
; 306  : 		////////////////////////////////////////
; 307  : 		{
; 308  : 			raw->weapon_config_type = (weapon_config_types) value;

  002f7	8b 45 fc	 mov	 eax, DWORD PTR _raw$[ebp]
  002fa	8b 4d 10	 mov	 ecx, DWORD PTR _value$[ebp]
  002fd	89 88 1c 01 00
	00		 mov	 DWORD PTR [eax+284], ecx

; 309  : 
; 310  : 			load_local_entity_weapon_config (en);

  00303	8b 45 08	 mov	 eax, DWORD PTR _en$[ebp]
  00306	50		 push	 eax
  00307	e8 00 00 00 00	 call	 ?load_local_entity_weapon_config@@YGXPAUENTITY@@@Z ; load_local_entity_weapon_config

; 311  : 
; 312  : 			if ((get_comms_model () == COMMS_MODEL_CLIENT) && (en == get_gunship_entity ()))

  0030c	83 3d 00 00 00
	00 01		 cmp	 DWORD PTR ?system_comms_model@@3W4COMMS_MODEL_TYPES@@A, 1 ; system_comms_model
  00313	75 14		 jne	 SHORT $LN28@set_local_
  00315	8b 45 08	 mov	 eax, DWORD PTR _en$[ebp]
  00318	3b 05 00 00 00
	00		 cmp	 eax, DWORD PTR ?gunship_entity@@3PAUENTITY@@A ; gunship_entity
  0031e	75 09		 jne	 SHORT $LN28@set_local_

; 313  : 			{
; 314  : 				//
; 315  : 				// needed because of the clients lag between selecting a new config, and it actually being changed
; 316  : 				//
; 317  : 
; 318  : 				weapon_loading_update_currently_selected_weapons (en);

  00320	8b 45 08	 mov	 eax, DWORD PTR _en$[ebp]
  00323	50		 push	 eax
  00324	e8 00 00 00 00	 call	 ?weapon_loading_update_currently_selected_weapons@@YGXPAUENTITY@@@Z ; weapon_loading_update_currently_selected_weapons
$LN28@set_local_:

; 319  : 			}
; 320  : 
; 321  : 			break;

  00329	eb 78		 jmp	 SHORT $LN2@set_local_
$LN29@set_local_:

; 322  : 		}
; 323  : 		////////////////////////////////////////
; 324  : 		default:
; 325  : 		////////////////////////////////////////
; 326  : 		{
; 327  : 			debug_fatal_invalid_int_type (en, type);

  0032b	83 7d 08 00	 cmp	 DWORD PTR _en$[ebp], 0
  0032f	74 0a		 je	 SHORT $LN31@set_local_
  00331	8b 45 08	 mov	 eax, DWORD PTR _en$[ebp]
  00334	8b 08		 mov	 ecx, DWORD PTR [eax]
  00336	89 4d b8	 mov	 DWORD PTR tv209[ebp], ecx
  00339	eb 24		 jmp	 SHORT $LN32@set_local_
$LN31@set_local_:
  0033b	8b 15 00 00 00
	00		 mov	 edx, DWORD PTR ?__LINE__Var@?0??set_local_int_value@@YGXPAUENTITY@@W4INT_TYPES@@H@Z@4JA
  00341	81 c2 c9 00 00
	00		 add	 edx, 201		; 000000c9H
  00347	52		 push	 edx
  00348	68 00 00 00 00	 push	 OFFSET ??_C@_0EM@DGHJLEAG@c?3?2users?2nhv90?2projects?2eech?2ap@
  0034d	a1 00 00 00 00	 mov	 eax, DWORD PTR ?null_entity_pointer_message@@3PBDB ; null_entity_pointer_message
  00352	50		 push	 eax
  00353	e8 00 00 00 00	 call	 ?process_assert@@YGXPBD0H@Z ; process_assert
  00358	c7 45 b8 00 00
	00 00		 mov	 DWORD PTR tv209[ebp], 0
$LN32@set_local_:
  0035f	8b 0d 00 00 00
	00		 mov	 ecx, DWORD PTR ?__LINE__Var@?0??set_local_int_value@@YGXPAUENTITY@@W4INT_TYPES@@H@Z@4JA
  00365	81 c1 c9 00 00
	00		 add	 ecx, 201		; 000000c9H
  0036b	51		 push	 ecx
  0036c	68 00 00 00 00	 push	 OFFSET ??_C@_0EM@DGHJLEAG@c?3?2users?2nhv90?2projects?2eech?2ap@
  00371	6b 55 0c 14	 imul	 edx, DWORD PTR _type$[ebp], 20
  00375	8b 82 00 00 00
	00		 mov	 eax, DWORD PTR ?int_type_database@@3PAUINT_TYPE_DATA@@A[edx]
  0037b	50		 push	 eax
  0037c	8b 4d 08	 mov	 ecx, DWORD PTR _en$[ebp]
  0037f	2b 0d 00 00 00
	00		 sub	 ecx, DWORD PTR ?entities@@3PAUENTITY@@A ; entities
  00385	c1 f9 04	 sar	 ecx, 4
  00388	51		 push	 ecx
  00389	6b 55 b8 0c	 imul	 edx, DWORD PTR tv209[ebp], 12
  0038d	8b 82 00 00 00
	00		 mov	 eax, DWORD PTR ?entity_type_database@@3PAUENTITY_TYPE_DATA@@A[edx]
  00393	50		 push	 eax
  00394	8b 0d 00 00 00
	00		 mov	 ecx, DWORD PTR ?debug_fatal_invalid_int_type_message@@3PBDB ; debug_fatal_invalid_int_type_message
  0039a	51		 push	 ecx
  0039b	e8 00 00 00 00	 call	 ?debug_fatal@@YAXPBDZZ	; debug_fatal
  003a0	83 c4 18	 add	 esp, 24			; 00000018H
$LN2@set_local_:

; 328  : 
; 329  : 			break;
; 330  : 		}
; 331  : 	}
; 332  : }

  003a3	5f		 pop	 edi
  003a4	5e		 pop	 esi
  003a5	5b		 pop	 ebx
  003a6	8b e5		 mov	 esp, ebp
  003a8	5d		 pop	 ebp
  003a9	c2 0c 00	 ret	 12			; 0000000cH
$LN34@set_local_:
  003ac	00 00 00 00	 DD	 $LN4@set_local_
  003b0	00 00 00 00	 DD	 $LN5@set_local_
  003b4	00 00 00 00	 DD	 $LN6@set_local_
  003b8	00 00 00 00	 DD	 $LN7@set_local_
  003bc	00 00 00 00	 DD	 $LN8@set_local_
  003c0	00 00 00 00	 DD	 $LN11@set_local_
  003c4	00 00 00 00	 DD	 $LN12@set_local_
  003c8	00 00 00 00	 DD	 $LN13@set_local_
  003cc	00 00 00 00	 DD	 $LN14@set_local_
  003d0	00 00 00 00	 DD	 $LN15@set_local_
  003d4	00 00 00 00	 DD	 $LN16@set_local_
  003d8	00 00 00 00	 DD	 $LN17@set_local_
  003dc	00 00 00 00	 DD	 $LN25@set_local_
  003e0	00 00 00 00	 DD	 $LN26@set_local_
  003e4	00 00 00 00	 DD	 $LN27@set_local_
  003e8	00 00 00 00	 DD	 $LN29@set_local_
$LN33@set_local_:
  003ec	00		 DB	 0
  003ed	0f		 DB	 15			; 0000000fH
  003ee	0f		 DB	 15			; 0000000fH
  003ef	01		 DB	 1
  003f0	0f		 DB	 15			; 0000000fH
  003f1	0f		 DB	 15			; 0000000fH
  003f2	0f		 DB	 15			; 0000000fH
  003f3	0f		 DB	 15			; 0000000fH
  003f4	0f		 DB	 15			; 0000000fH
  003f5	0f		 DB	 15			; 0000000fH
  003f6	0f		 DB	 15			; 0000000fH
  003f7	0f		 DB	 15			; 0000000fH
  003f8	0f		 DB	 15			; 0000000fH
  003f9	0f		 DB	 15			; 0000000fH
  003fa	0f		 DB	 15			; 0000000fH
  003fb	02		 DB	 2
  003fc	0f		 DB	 15			; 0000000fH
  003fd	0f		 DB	 15			; 0000000fH
  003fe	0f		 DB	 15			; 0000000fH
  003ff	0f		 DB	 15			; 0000000fH
  00400	0f		 DB	 15			; 0000000fH
  00401	0f		 DB	 15			; 0000000fH
  00402	0f		 DB	 15			; 0000000fH
  00403	0f		 DB	 15			; 0000000fH
  00404	0f		 DB	 15			; 0000000fH
  00405	0f		 DB	 15			; 0000000fH
  00406	0f		 DB	 15			; 0000000fH
  00407	0f		 DB	 15			; 0000000fH
  00408	03		 DB	 3
  00409	0f		 DB	 15			; 0000000fH
  0040a	0f		 DB	 15			; 0000000fH
  0040b	0f		 DB	 15			; 0000000fH
  0040c	0f		 DB	 15			; 0000000fH
  0040d	0f		 DB	 15			; 0000000fH
  0040e	0f		 DB	 15			; 0000000fH
  0040f	0f		 DB	 15			; 0000000fH
  00410	0f		 DB	 15			; 0000000fH
  00411	0f		 DB	 15			; 0000000fH
  00412	0f		 DB	 15			; 0000000fH
  00413	0f		 DB	 15			; 0000000fH
  00414	0f		 DB	 15			; 0000000fH
  00415	04		 DB	 4
  00416	0f		 DB	 15			; 0000000fH
  00417	0f		 DB	 15			; 0000000fH
  00418	0f		 DB	 15			; 0000000fH
  00419	0f		 DB	 15			; 0000000fH
  0041a	05		 DB	 5
  0041b	0f		 DB	 15			; 0000000fH
  0041c	0f		 DB	 15			; 0000000fH
  0041d	0f		 DB	 15			; 0000000fH
  0041e	0f		 DB	 15			; 0000000fH
  0041f	0f		 DB	 15			; 0000000fH
  00420	0f		 DB	 15			; 0000000fH
  00421	0f		 DB	 15			; 0000000fH
  00422	0f		 DB	 15			; 0000000fH
  00423	0f		 DB	 15			; 0000000fH
  00424	0f		 DB	 15			; 0000000fH
  00425	0f		 DB	 15			; 0000000fH
  00426	0f		 DB	 15			; 0000000fH
  00427	0f		 DB	 15			; 0000000fH
  00428	0f		 DB	 15			; 0000000fH
  00429	0f		 DB	 15			; 0000000fH
  0042a	0f		 DB	 15			; 0000000fH
  0042b	0f		 DB	 15			; 0000000fH
  0042c	0f		 DB	 15			; 0000000fH
  0042d	06		 DB	 6
  0042e	07		 DB	 7
  0042f	0f		 DB	 15			; 0000000fH
  00430	0f		 DB	 15			; 0000000fH
  00431	0f		 DB	 15			; 0000000fH
  00432	0f		 DB	 15			; 0000000fH
  00433	0f		 DB	 15			; 0000000fH
  00434	0f		 DB	 15			; 0000000fH
  00435	0f		 DB	 15			; 0000000fH
  00436	0f		 DB	 15			; 0000000fH
  00437	0f		 DB	 15			; 0000000fH
  00438	0f		 DB	 15			; 0000000fH
  00439	0f		 DB	 15			; 0000000fH
  0043a	0f		 DB	 15			; 0000000fH
  0043b	0f		 DB	 15			; 0000000fH
  0043c	0f		 DB	 15			; 0000000fH
  0043d	0f		 DB	 15			; 0000000fH
  0043e	0f		 DB	 15			; 0000000fH
  0043f	0f		 DB	 15			; 0000000fH
  00440	0f		 DB	 15			; 0000000fH
  00441	0f		 DB	 15			; 0000000fH
  00442	0f		 DB	 15			; 0000000fH
  00443	0f		 DB	 15			; 0000000fH
  00444	08		 DB	 8
  00445	0f		 DB	 15			; 0000000fH
  00446	0f		 DB	 15			; 0000000fH
  00447	0f		 DB	 15			; 0000000fH
  00448	0f		 DB	 15			; 0000000fH
  00449	0f		 DB	 15			; 0000000fH
  0044a	0f		 DB	 15			; 0000000fH
  0044b	0f		 DB	 15			; 0000000fH
  0044c	0f		 DB	 15			; 0000000fH
  0044d	0f		 DB	 15			; 0000000fH
  0044e	0f		 DB	 15			; 0000000fH
  0044f	0f		 DB	 15			; 0000000fH
  00450	0f		 DB	 15			; 0000000fH
  00451	0f		 DB	 15			; 0000000fH
  00452	0f		 DB	 15			; 0000000fH
  00453	0f		 DB	 15			; 0000000fH
  00454	0f		 DB	 15			; 0000000fH
  00455	0f		 DB	 15			; 0000000fH
  00456	0f		 DB	 15			; 0000000fH
  00457	0f		 DB	 15			; 0000000fH
  00458	0f		 DB	 15			; 0000000fH
  00459	0f		 DB	 15			; 0000000fH
  0045a	0f		 DB	 15			; 0000000fH
  0045b	0f		 DB	 15			; 0000000fH
  0045c	09		 DB	 9
  0045d	0f		 DB	 15			; 0000000fH
  0045e	0f		 DB	 15			; 0000000fH
  0045f	0f		 DB	 15			; 0000000fH
  00460	0f		 DB	 15			; 0000000fH
  00461	0a		 DB	 10			; 0000000aH
  00462	0f		 DB	 15			; 0000000fH
  00463	0f		 DB	 15			; 0000000fH
  00464	0f		 DB	 15			; 0000000fH
  00465	0f		 DB	 15			; 0000000fH
  00466	0f		 DB	 15			; 0000000fH
  00467	0f		 DB	 15			; 0000000fH
  00468	0f		 DB	 15			; 0000000fH
  00469	0f		 DB	 15			; 0000000fH
  0046a	0f		 DB	 15			; 0000000fH
  0046b	0f		 DB	 15			; 0000000fH
  0046c	0f		 DB	 15			; 0000000fH
  0046d	0f		 DB	 15			; 0000000fH
  0046e	0f		 DB	 15			; 0000000fH
  0046f	0f		 DB	 15			; 0000000fH
  00470	0f		 DB	 15			; 0000000fH
  00471	0f		 DB	 15			; 0000000fH
  00472	0f		 DB	 15			; 0000000fH
  00473	0f		 DB	 15			; 0000000fH
  00474	0f		 DB	 15			; 0000000fH
  00475	0f		 DB	 15			; 0000000fH
  00476	0f		 DB	 15			; 0000000fH
  00477	0f		 DB	 15			; 0000000fH
  00478	0f		 DB	 15			; 0000000fH
  00479	0f		 DB	 15			; 0000000fH
  0047a	0f		 DB	 15			; 0000000fH
  0047b	0f		 DB	 15			; 0000000fH
  0047c	0f		 DB	 15			; 0000000fH
  0047d	0f		 DB	 15			; 0000000fH
  0047e	0f		 DB	 15			; 0000000fH
  0047f	0f		 DB	 15			; 0000000fH
  00480	0f		 DB	 15			; 0000000fH
  00481	0f		 DB	 15			; 0000000fH
  00482	0b		 DB	 11			; 0000000bH
  00483	0c		 DB	 12			; 0000000cH
  00484	0f		 DB	 15			; 0000000fH
  00485	0f		 DB	 15			; 0000000fH
  00486	0f		 DB	 15			; 0000000fH
  00487	0f		 DB	 15			; 0000000fH
  00488	0f		 DB	 15			; 0000000fH
  00489	0f		 DB	 15			; 0000000fH
  0048a	0f		 DB	 15			; 0000000fH
  0048b	0f		 DB	 15			; 0000000fH
  0048c	0f		 DB	 15			; 0000000fH
  0048d	0f		 DB	 15			; 0000000fH
  0048e	0f		 DB	 15			; 0000000fH
  0048f	0f		 DB	 15			; 0000000fH
  00490	0f		 DB	 15			; 0000000fH
  00491	0f		 DB	 15			; 0000000fH
  00492	0f		 DB	 15			; 0000000fH
  00493	0f		 DB	 15			; 0000000fH
  00494	0f		 DB	 15			; 0000000fH
  00495	0f		 DB	 15			; 0000000fH
  00496	0f		 DB	 15			; 0000000fH
  00497	0f		 DB	 15			; 0000000fH
  00498	0f		 DB	 15			; 0000000fH
  00499	0f		 DB	 15			; 0000000fH
  0049a	0f		 DB	 15			; 0000000fH
  0049b	0f		 DB	 15			; 0000000fH
  0049c	0f		 DB	 15			; 0000000fH
  0049d	0f		 DB	 15			; 0000000fH
  0049e	0f		 DB	 15			; 0000000fH
  0049f	0f		 DB	 15			; 0000000fH
  004a0	0f		 DB	 15			; 0000000fH
  004a1	0f		 DB	 15			; 0000000fH
  004a2	0f		 DB	 15			; 0000000fH
  004a3	0f		 DB	 15			; 0000000fH
  004a4	0f		 DB	 15			; 0000000fH
  004a5	0f		 DB	 15			; 0000000fH
  004a6	0f		 DB	 15			; 0000000fH
  004a7	0f		 DB	 15			; 0000000fH
  004a8	0f		 DB	 15			; 0000000fH
  004a9	0f		 DB	 15			; 0000000fH
  004aa	0f		 DB	 15			; 0000000fH
  004ab	0f		 DB	 15			; 0000000fH
  004ac	0f		 DB	 15			; 0000000fH
  004ad	0f		 DB	 15			; 0000000fH
  004ae	0f		 DB	 15			; 0000000fH
  004af	0f		 DB	 15			; 0000000fH
  004b0	0f		 DB	 15			; 0000000fH
  004b1	0f		 DB	 15			; 0000000fH
  004b2	0f		 DB	 15			; 0000000fH
  004b3	0f		 DB	 15			; 0000000fH
  004b4	0f		 DB	 15			; 0000000fH
  004b5	0f		 DB	 15			; 0000000fH
  004b6	0f		 DB	 15			; 0000000fH
  004b7	0f		 DB	 15			; 0000000fH
  004b8	0f		 DB	 15			; 0000000fH
  004b9	0f		 DB	 15			; 0000000fH
  004ba	0f		 DB	 15			; 0000000fH
  004bb	0f		 DB	 15			; 0000000fH
  004bc	0f		 DB	 15			; 0000000fH
  004bd	0f		 DB	 15			; 0000000fH
  004be	0f		 DB	 15			; 0000000fH
  004bf	0f		 DB	 15			; 0000000fH
  004c0	0f		 DB	 15			; 0000000fH
  004c1	0f		 DB	 15			; 0000000fH
  004c2	0f		 DB	 15			; 0000000fH
  004c3	0f		 DB	 15			; 0000000fH
  004c4	0f		 DB	 15			; 0000000fH
  004c5	0f		 DB	 15			; 0000000fH
  004c6	0f		 DB	 15			; 0000000fH
  004c7	0f		 DB	 15			; 0000000fH
  004c8	0f		 DB	 15			; 0000000fH
  004c9	0f		 DB	 15			; 0000000fH
  004ca	0f		 DB	 15			; 0000000fH
  004cb	0f		 DB	 15			; 0000000fH
  004cc	0d		 DB	 13			; 0000000dH
  004cd	0f		 DB	 15			; 0000000fH
  004ce	0f		 DB	 15			; 0000000fH
  004cf	0e		 DB	 14			; 0000000eH
?set_local_int_value@@YGXPAUENTITY@@W4INT_TYPES@@H@Z ENDP ; set_local_int_value
_TEXT	ENDS
; Function compile flags: /Odtp /ZI
; File c:\users\nhv90\projects\eech\aphavoc\source\entity\mobile\aircraft\ac_int.c
;	COMDAT ?set_local_raw_int_value@@YGXPAUENTITY@@W4INT_TYPES@@H@Z
_TEXT	SEGMENT
tv84 = -72						; size = 4
tv65 = -72						; size = 4
_raw$ = -4						; size = 4
_en$ = 8						; size = 4
_type$ = 12						; size = 4
_value$ = 16						; size = 4
?set_local_raw_int_value@@YGXPAUENTITY@@W4INT_TYPES@@H@Z PROC ; set_local_raw_int_value, COMDAT

; 80   : {

  00000	55		 push	 ebp
  00001	8b ec		 mov	 ebp, esp
  00003	83 ec 48	 sub	 esp, 72			; 00000048H
  00006	53		 push	 ebx
  00007	56		 push	 esi
  00008	57		 push	 edi

; 81   : 	aircraft
; 82   : 		*raw;
; 83   : 
; 84   : 	#if DEBUG_MODULE
; 85   : 
; 86   : 	debug_log_entity_args (ENTITY_DEBUG_LOCAL, ENTITY_DEBUG_INT_VALUE, en, type, value);
; 87   : 
; 88   : 	#endif
; 89   : 
; 90   : 	raw = (aircraft *) get_local_entity_data (en);

  00009	8b 45 08	 mov	 eax, DWORD PTR _en$[ebp]
  0000c	8b 48 04	 mov	 ecx, DWORD PTR [eax+4]
  0000f	89 4d fc	 mov	 DWORD PTR _raw$[ebp], ecx

; 91   : 
; 92   : 	switch (type)

  00012	8b 45 0c	 mov	 eax, DWORD PTR _type$[ebp]
  00015	89 45 b8	 mov	 DWORD PTR tv65[ebp], eax
  00018	81 7d b8 b8 00
	00 00		 cmp	 DWORD PTR tv65[ebp], 184 ; 000000b8H
  0001f	74 0b		 je	 SHORT $LN4@set_local_
  00021	81 7d b8 05 01
	00 00		 cmp	 DWORD PTR tv65[ebp], 261 ; 00000105H
  00028	74 13		 je	 SHORT $LN5@set_local_
  0002a	eb 1f		 jmp	 SHORT $LN6@set_local_
$LN4@set_local_:

; 93   : 	{
; 94   : 		////////////////////////////////////////
; 95   : 		case INT_TYPE_SELECTED_WEAPON:
; 96   : 		////////////////////////////////////////
; 97   : 		{
; 98   : 			raw->selected_weapon = value;

  0002c	8b 45 fc	 mov	 eax, DWORD PTR _raw$[ebp]
  0002f	8b 4d 10	 mov	 ecx, DWORD PTR _value$[ebp]
  00032	89 88 24 01 00
	00		 mov	 DWORD PTR [eax+292], ecx

; 99   : 
; 100  : 			break;

  00038	e9 80 00 00 00	 jmp	 $LN1@set_local_
$LN5@set_local_:

; 101  : 		}
; 102  : 		////////////////////////////////////////
; 103  : 		case INT_TYPE_WEAPON_CONFIG_TYPE:
; 104  : 		////////////////////////////////////////
; 105  : 		{
; 106  : 			raw->weapon_config_type = (weapon_config_types) value;

  0003d	8b 45 fc	 mov	 eax, DWORD PTR _raw$[ebp]
  00040	8b 4d 10	 mov	 ecx, DWORD PTR _value$[ebp]
  00043	89 88 1c 01 00
	00		 mov	 DWORD PTR [eax+284], ecx

; 107  : 
; 108  : 			break;

  00049	eb 72		 jmp	 SHORT $LN1@set_local_
$LN6@set_local_:

; 109  : 		}
; 110  : 		////////////////////////////////////////
; 111  : 		default:
; 112  : 		////////////////////////////////////////
; 113  : 		{
; 114  : 			debug_fatal_invalid_int_type (en, type);

  0004b	83 7d 08 00	 cmp	 DWORD PTR _en$[ebp], 0
  0004f	74 0a		 je	 SHORT $LN8@set_local_
  00051	8b 45 08	 mov	 eax, DWORD PTR _en$[ebp]
  00054	8b 08		 mov	 ecx, DWORD PTR [eax]
  00056	89 4d b8	 mov	 DWORD PTR tv84[ebp], ecx
  00059	eb 21		 jmp	 SHORT $LN9@set_local_
$LN8@set_local_:
  0005b	8b 15 00 00 00
	00		 mov	 edx, DWORD PTR ?__LINE__Var@?0??set_local_raw_int_value@@YGXPAUENTITY@@W4INT_TYPES@@H@Z@4JA
  00061	83 c2 22	 add	 edx, 34			; 00000022H
  00064	52		 push	 edx
  00065	68 00 00 00 00	 push	 OFFSET ??_C@_0EM@DGHJLEAG@c?3?2users?2nhv90?2projects?2eech?2ap@
  0006a	a1 00 00 00 00	 mov	 eax, DWORD PTR ?null_entity_pointer_message@@3PBDB ; null_entity_pointer_message
  0006f	50		 push	 eax
  00070	e8 00 00 00 00	 call	 ?process_assert@@YGXPBD0H@Z ; process_assert
  00075	c7 45 b8 00 00
	00 00		 mov	 DWORD PTR tv84[ebp], 0
$LN9@set_local_:
  0007c	8b 0d 00 00 00
	00		 mov	 ecx, DWORD PTR ?__LINE__Var@?0??set_local_raw_int_value@@YGXPAUENTITY@@W4INT_TYPES@@H@Z@4JA
  00082	83 c1 22	 add	 ecx, 34			; 00000022H
  00085	51		 push	 ecx
  00086	68 00 00 00 00	 push	 OFFSET ??_C@_0EM@DGHJLEAG@c?3?2users?2nhv90?2projects?2eech?2ap@
  0008b	6b 55 0c 14	 imul	 edx, DWORD PTR _type$[ebp], 20
  0008f	8b 82 00 00 00
	00		 mov	 eax, DWORD PTR ?int_type_database@@3PAUINT_TYPE_DATA@@A[edx]
  00095	50		 push	 eax
  00096	8b 4d 08	 mov	 ecx, DWORD PTR _en$[ebp]
  00099	2b 0d 00 00 00
	00		 sub	 ecx, DWORD PTR ?entities@@3PAUENTITY@@A ; entities
  0009f	c1 f9 04	 sar	 ecx, 4
  000a2	51		 push	 ecx
  000a3	6b 55 b8 0c	 imul	 edx, DWORD PTR tv84[ebp], 12
  000a7	8b 82 00 00 00
	00		 mov	 eax, DWORD PTR ?entity_type_database@@3PAUENTITY_TYPE_DATA@@A[edx]
  000ad	50		 push	 eax
  000ae	8b 0d 00 00 00
	00		 mov	 ecx, DWORD PTR ?debug_fatal_invalid_int_type_message@@3PBDB ; debug_fatal_invalid_int_type_message
  000b4	51		 push	 ecx
  000b5	e8 00 00 00 00	 call	 ?debug_fatal@@YAXPBDZZ	; debug_fatal
  000ba	83 c4 18	 add	 esp, 24			; 00000018H
$LN1@set_local_:

; 115  : 
; 116  : 			break;
; 117  : 		}
; 118  : 	}
; 119  : }

  000bd	5f		 pop	 edi
  000be	5e		 pop	 esi
  000bf	5b		 pop	 ebx
  000c0	8b e5		 mov	 esp, ebp
  000c2	5d		 pop	 ebp
  000c3	c2 0c 00	 ret	 12			; 0000000cH
?set_local_raw_int_value@@YGXPAUENTITY@@W4INT_TYPES@@H@Z ENDP ; set_local_raw_int_value
_TEXT	ENDS
; Function compile flags: /Odtp /ZI
; File c:\users\nhv90\projects\eech\aphavoc\source\entity\mobile\aircraft\ac_int.c
;	COMDAT ?overload_aircraft_int_value_functions@@YGXW4ENTITY_TYPES@@@Z
_TEXT	SEGMENT
_type$ = 8						; size = 4
?overload_aircraft_int_value_functions@@YGXW4ENTITY_TYPES@@@Z PROC ; overload_aircraft_int_value_functions, COMDAT

; 1108 : {

  00000	55		 push	 ebp
  00001	8b ec		 mov	 ebp, esp
  00003	83 ec 40	 sub	 esp, 64			; 00000040H
  00006	53		 push	 ebx
  00007	56		 push	 esi
  00008	57		 push	 edi

; 1109 : 	fn_get_local_entity_int_value				[type][INT_TYPE_AIR_TO_AIR_WEAPON_CONFIG_TYPE]				= get_local_int_value;

  00009	69 45 08 5c 04
	00 00		 imul	 eax, DWORD PTR _type$[ebp], 1116
  00010	b9 04 00 00 00	 mov	 ecx, 4
  00015	d1 e1		 shl	 ecx, 1
  00017	c7 84 08 00 00
	00 00 00 00 00
	00		 mov	 DWORD PTR ?fn_get_local_entity_int_value@@3PAY0BBH@P6GHPAUENTITY@@W4INT_TYPES@@@ZA[eax+ecx], OFFSET ?get_local_int_value@@YGHPAUENTITY@@W4INT_TYPES@@@Z ; get_local_int_value

; 1110 : 
; 1111 : 	fn_get_local_entity_int_value				[type][INT_TYPE_AIR_TO_SURFACE_WEAPON_CONFIG_TYPE]			= get_local_int_value;

  00022	69 45 08 5c 04
	00 00		 imul	 eax, DWORD PTR _type$[ebp], 1116
  00029	b9 04 00 00 00	 mov	 ecx, 4
  0002e	6b d1 03	 imul	 edx, ecx, 3
  00031	c7 84 10 00 00
	00 00 00 00 00
	00		 mov	 DWORD PTR ?fn_get_local_entity_int_value@@3PAY0BBH@P6GHPAUENTITY@@W4INT_TYPES@@@ZA[eax+edx], OFFSET ?get_local_int_value@@YGHPAUENTITY@@W4INT_TYPES@@@Z ; get_local_int_value

; 1112 : 
; 1113 : 	fn_get_local_entity_int_value				[type][INT_TYPE_AIRBORNE_AIRCRAFT]								= get_local_int_value;

  0003c	69 45 08 5c 04
	00 00		 imul	 eax, DWORD PTR _type$[ebp], 1116
  00043	b9 04 00 00 00	 mov	 ecx, 4
  00048	c1 e1 02	 shl	 ecx, 2
  0004b	c7 84 08 00 00
	00 00 00 00 00
	00		 mov	 DWORD PTR ?fn_get_local_entity_int_value@@3PAY0BBH@P6GHPAUENTITY@@W4INT_TYPES@@@ZA[eax+ecx], OFFSET ?get_local_int_value@@YGHPAUENTITY@@W4INT_TYPES@@@Z ; get_local_int_value

; 1114 : 
; 1115 : 	fn_get_local_entity_int_value				[type][INT_TYPE_COLLISION_TEST_MOBILE]							= get_local_int_value;

  00056	69 45 08 5c 04
	00 00		 imul	 eax, DWORD PTR _type$[ebp], 1116
  0005d	b9 04 00 00 00	 mov	 ecx, 4
  00062	6b d1 1b	 imul	 edx, ecx, 27
  00065	c7 84 10 00 00
	00 00 00 00 00
	00		 mov	 DWORD PTR ?fn_get_local_entity_int_value@@3PAY0BBH@P6GHPAUENTITY@@W4INT_TYPES@@@ZA[eax+edx], OFFSET ?get_local_int_value@@YGHPAUENTITY@@W4INT_TYPES@@@Z ; get_local_int_value

; 1116 : 
; 1117 : 	fn_set_local_entity_raw_int_value		[type][INT_TYPE_CPG_IDENTIFIED]									= set_local_int_value;

  00070	69 45 08 5c 04
	00 00		 imul	 eax, DWORD PTR _type$[ebp], 1116
  00077	b9 04 00 00 00	 mov	 ecx, 4
  0007c	6b d1 22	 imul	 edx, ecx, 34
  0007f	c7 84 10 00 00
	00 00 00 00 00
	00		 mov	 DWORD PTR ?fn_set_local_entity_raw_int_value@@3PAY0BBH@P6GXPAUENTITY@@W4INT_TYPES@@H@ZA[eax+edx], OFFSET ?set_local_int_value@@YGXPAUENTITY@@W4INT_TYPES@@H@Z ; set_local_int_value

; 1118 : 	fn_set_local_entity_int_value				[type][INT_TYPE_CPG_IDENTIFIED]									= set_local_int_value;

  0008a	69 45 08 5c 04
	00 00		 imul	 eax, DWORD PTR _type$[ebp], 1116
  00091	b9 04 00 00 00	 mov	 ecx, 4
  00096	6b d1 22	 imul	 edx, ecx, 34
  00099	c7 84 10 00 00
	00 00 00 00 00
	00		 mov	 DWORD PTR ?fn_set_local_entity_int_value@@3PAY0BBH@P6GXPAUENTITY@@W4INT_TYPES@@H@ZA[eax+edx], OFFSET ?set_local_int_value@@YGXPAUENTITY@@W4INT_TYPES@@H@Z ; set_local_int_value

; 1119 : 	fn_get_local_entity_int_value				[type][INT_TYPE_CPG_IDENTIFIED]									= get_local_int_value;

  000a4	69 45 08 5c 04
	00 00		 imul	 eax, DWORD PTR _type$[ebp], 1116
  000ab	b9 04 00 00 00	 mov	 ecx, 4
  000b0	6b d1 22	 imul	 edx, ecx, 34
  000b3	c7 84 10 00 00
	00 00 00 00 00
	00		 mov	 DWORD PTR ?fn_get_local_entity_int_value@@3PAY0BBH@P6GHPAUENTITY@@W4INT_TYPES@@@ZA[eax+edx], OFFSET ?get_local_int_value@@YGHPAUENTITY@@W4INT_TYPES@@@Z ; get_local_int_value

; 1120 : 
; 1121 : 	fn_set_local_entity_raw_int_value		[type][INT_TYPE_DAMAGE_LEVEL]										= set_local_int_value;

  000be	69 45 08 5c 04
	00 00		 imul	 eax, DWORD PTR _type$[ebp], 1116
  000c5	b9 04 00 00 00	 mov	 ecx, 4
  000ca	6b d1 25	 imul	 edx, ecx, 37
  000cd	c7 84 10 00 00
	00 00 00 00 00
	00		 mov	 DWORD PTR ?fn_set_local_entity_raw_int_value@@3PAY0BBH@P6GXPAUENTITY@@W4INT_TYPES@@H@ZA[eax+edx], OFFSET ?set_local_int_value@@YGXPAUENTITY@@W4INT_TYPES@@H@Z ; set_local_int_value

; 1122 : 	fn_set_local_entity_int_value				[type][INT_TYPE_DAMAGE_LEVEL]										= set_local_int_value;

  000d8	69 45 08 5c 04
	00 00		 imul	 eax, DWORD PTR _type$[ebp], 1116
  000df	b9 04 00 00 00	 mov	 ecx, 4
  000e4	6b d1 25	 imul	 edx, ecx, 37
  000e7	c7 84 10 00 00
	00 00 00 00 00
	00		 mov	 DWORD PTR ?fn_set_local_entity_int_value@@3PAY0BBH@P6GXPAUENTITY@@W4INT_TYPES@@H@ZA[eax+edx], OFFSET ?set_local_int_value@@YGXPAUENTITY@@W4INT_TYPES@@H@Z ; set_local_int_value

; 1123 : 	fn_set_client_server_entity_int_value	[type][INT_TYPE_DAMAGE_LEVEL][COMMS_MODEL_SERVER]			= set_server_int_value;

  000f2	69 45 08 b8 08
	00 00		 imul	 eax, DWORD PTR _type$[ebp], 2232
  000f9	b9 08 00 00 00	 mov	 ecx, 8
  000fe	6b d1 25	 imul	 edx, ecx, 37
  00101	8d 84 10 00 00
	00 00		 lea	 eax, DWORD PTR ?fn_set_client_server_entity_int_value@@3PAY1BBH@1P6GXPAUENTITY@@W4INT_TYPES@@H@ZA[eax+edx]
  00108	b9 04 00 00 00	 mov	 ecx, 4
  0010d	6b d1 00	 imul	 edx, ecx, 0
  00110	c7 04 10 00 00
	00 00		 mov	 DWORD PTR [eax+edx], OFFSET ?set_server_int_value@@YGXPAUENTITY@@W4INT_TYPES@@H@Z ; set_server_int_value

; 1124 : 	fn_set_client_server_entity_int_value	[type][INT_TYPE_DAMAGE_LEVEL][COMMS_MODEL_CLIENT]			= set_client_int_value;

  00117	69 45 08 b8 08
	00 00		 imul	 eax, DWORD PTR _type$[ebp], 2232
  0011e	b9 08 00 00 00	 mov	 ecx, 8
  00123	6b d1 25	 imul	 edx, ecx, 37
  00126	8d 84 10 00 00
	00 00		 lea	 eax, DWORD PTR ?fn_set_client_server_entity_int_value@@3PAY1BBH@1P6GXPAUENTITY@@W4INT_TYPES@@H@ZA[eax+edx]
  0012d	b9 04 00 00 00	 mov	 ecx, 4
  00132	c1 e1 00	 shl	 ecx, 0
  00135	c7 04 08 00 00
	00 00		 mov	 DWORD PTR [eax+ecx], OFFSET ?set_client_int_value@@YGXPAUENTITY@@W4INT_TYPES@@H@Z ; set_client_int_value

; 1125 : 	fn_get_local_entity_int_value				[type][INT_TYPE_DAMAGE_LEVEL]										= get_local_int_value;

  0013c	69 45 08 5c 04
	00 00		 imul	 eax, DWORD PTR _type$[ebp], 1116
  00143	b9 04 00 00 00	 mov	 ecx, 4
  00148	6b d1 25	 imul	 edx, ecx, 37
  0014b	c7 84 10 00 00
	00 00 00 00 00
	00		 mov	 DWORD PTR ?fn_get_local_entity_int_value@@3PAY0BBH@P6GHPAUENTITY@@W4INT_TYPES@@@ZA[eax+edx], OFFSET ?get_local_int_value@@YGHPAUENTITY@@W4INT_TYPES@@@Z ; get_local_int_value

; 1126 : 
; 1127 : 	fn_get_local_entity_int_value				[type][INT_TYPE_DEFAULT_3D_SHAPE]								= get_local_int_value;

  00156	69 45 08 5c 04
	00 00		 imul	 eax, DWORD PTR _type$[ebp], 1116
  0015d	b9 04 00 00 00	 mov	 ecx, 4
  00162	6b d1 29	 imul	 edx, ecx, 41
  00165	c7 84 10 00 00
	00 00 00 00 00
	00		 mov	 DWORD PTR ?fn_get_local_entity_int_value@@3PAY0BBH@P6GHPAUENTITY@@W4INT_TYPES@@@ZA[eax+edx], OFFSET ?get_local_int_value@@YGHPAUENTITY@@W4INT_TYPES@@@Z ; get_local_int_value

; 1128 : 
; 1129 : 	fn_get_local_entity_int_value				[type][INT_TYPE_DEFAULT_WEAPON_CONFIG_TYPE]					= get_local_int_value;

  00170	69 45 08 5c 04
	00 00		 imul	 eax, DWORD PTR _type$[ebp], 1116
  00177	b9 04 00 00 00	 mov	 ecx, 4
  0017c	6b d1 2c	 imul	 edx, ecx, 44
  0017f	c7 84 10 00 00
	00 00 00 00 00
	00		 mov	 DWORD PTR ?fn_get_local_entity_int_value@@3PAY0BBH@P6GHPAUENTITY@@W4INT_TYPES@@@ZA[eax+edx], OFFSET ?get_local_int_value@@YGHPAUENTITY@@W4INT_TYPES@@@Z ; get_local_int_value

; 1130 : 
; 1131 : 	fn_get_local_entity_int_value				[type][INT_TYPE_DEFAULT_WEAPON_TYPE]							= get_local_int_value;

  0018a	69 45 08 5c 04
	00 00		 imul	 eax, DWORD PTR _type$[ebp], 1116
  00191	b9 04 00 00 00	 mov	 ecx, 4
  00196	6b d1 2d	 imul	 edx, ecx, 45
  00199	c7 84 10 00 00
	00 00 00 00 00
	00		 mov	 DWORD PTR ?fn_get_local_entity_int_value@@3PAY0BBH@P6GHPAUENTITY@@W4INT_TYPES@@@ZA[eax+edx], OFFSET ?get_local_int_value@@YGHPAUENTITY@@W4INT_TYPES@@@Z ; get_local_int_value

; 1132 : 
; 1133 : 	fn_get_local_entity_int_value				[type][INT_TYPE_DESTROYED_3D_SHAPE]								= get_local_int_value;

  001a4	69 45 08 5c 04
	00 00		 imul	 eax, DWORD PTR _type$[ebp], 1116
  001ab	b9 04 00 00 00	 mov	 ecx, 4
  001b0	6b d1 2e	 imul	 edx, ecx, 46
  001b3	c7 84 10 00 00
	00 00 00 00 00
	00		 mov	 DWORD PTR ?fn_get_local_entity_int_value@@3PAY0BBH@P6GHPAUENTITY@@W4INT_TYPES@@@ZA[eax+edx], OFFSET ?get_local_int_value@@YGHPAUENTITY@@W4INT_TYPES@@@Z ; get_local_int_value

; 1134 : 
; 1135 : 	fn_set_local_entity_raw_int_value		[type][INT_TYPE_EJECTED]											= set_local_int_value;

  001be	69 45 08 5c 04
	00 00		 imul	 eax, DWORD PTR _type$[ebp], 1116
  001c5	b9 04 00 00 00	 mov	 ecx, 4
  001ca	6b d1 31	 imul	 edx, ecx, 49
  001cd	c7 84 10 00 00
	00 00 00 00 00
	00		 mov	 DWORD PTR ?fn_set_local_entity_raw_int_value@@3PAY0BBH@P6GXPAUENTITY@@W4INT_TYPES@@H@ZA[eax+edx], OFFSET ?set_local_int_value@@YGXPAUENTITY@@W4INT_TYPES@@H@Z ; set_local_int_value

; 1136 : 	fn_set_local_entity_int_value				[type][INT_TYPE_EJECTED]											= set_local_int_value;

  001d8	69 45 08 5c 04
	00 00		 imul	 eax, DWORD PTR _type$[ebp], 1116
  001df	b9 04 00 00 00	 mov	 ecx, 4
  001e4	6b d1 31	 imul	 edx, ecx, 49
  001e7	c7 84 10 00 00
	00 00 00 00 00
	00		 mov	 DWORD PTR ?fn_set_local_entity_int_value@@3PAY0BBH@P6GXPAUENTITY@@W4INT_TYPES@@H@ZA[eax+edx], OFFSET ?set_local_int_value@@YGXPAUENTITY@@W4INT_TYPES@@H@Z ; set_local_int_value

; 1137 : 	fn_set_client_server_entity_int_value	[type][INT_TYPE_EJECTED][COMMS_MODEL_SERVER]					= set_server_int_value;

  001f2	69 45 08 b8 08
	00 00		 imul	 eax, DWORD PTR _type$[ebp], 2232
  001f9	b9 08 00 00 00	 mov	 ecx, 8
  001fe	6b d1 31	 imul	 edx, ecx, 49
  00201	8d 84 10 00 00
	00 00		 lea	 eax, DWORD PTR ?fn_set_client_server_entity_int_value@@3PAY1BBH@1P6GXPAUENTITY@@W4INT_TYPES@@H@ZA[eax+edx]
  00208	b9 04 00 00 00	 mov	 ecx, 4
  0020d	6b d1 00	 imul	 edx, ecx, 0
  00210	c7 04 10 00 00
	00 00		 mov	 DWORD PTR [eax+edx], OFFSET ?set_server_int_value@@YGXPAUENTITY@@W4INT_TYPES@@H@Z ; set_server_int_value

; 1138 : 	fn_set_client_server_entity_int_value	[type][INT_TYPE_EJECTED][COMMS_MODEL_CLIENT]					= set_client_int_value;

  00217	69 45 08 b8 08
	00 00		 imul	 eax, DWORD PTR _type$[ebp], 2232
  0021e	b9 08 00 00 00	 mov	 ecx, 8
  00223	6b d1 31	 imul	 edx, ecx, 49
  00226	8d 84 10 00 00
	00 00		 lea	 eax, DWORD PTR ?fn_set_client_server_entity_int_value@@3PAY1BBH@1P6GXPAUENTITY@@W4INT_TYPES@@H@ZA[eax+edx]
  0022d	b9 04 00 00 00	 mov	 ecx, 4
  00232	c1 e1 00	 shl	 ecx, 0
  00235	c7 04 08 00 00
	00 00		 mov	 DWORD PTR [eax+ecx], OFFSET ?set_client_int_value@@YGXPAUENTITY@@W4INT_TYPES@@H@Z ; set_client_int_value

; 1139 : 	fn_get_local_entity_int_value				[type][INT_TYPE_EJECTED]											= get_local_int_value;

  0023c	69 45 08 5c 04
	00 00		 imul	 eax, DWORD PTR _type$[ebp], 1116
  00243	b9 04 00 00 00	 mov	 ecx, 4
  00248	6b d1 31	 imul	 edx, ecx, 49
  0024b	c7 84 10 00 00
	00 00 00 00 00
	00		 mov	 DWORD PTR ?fn_get_local_entity_int_value@@3PAY0BBH@P6GHPAUENTITY@@W4INT_TYPES@@@ZA[eax+edx], OFFSET ?get_local_int_value@@YGHPAUENTITY@@W4INT_TYPES@@@Z ; get_local_int_value

; 1140 : 
; 1141 : 	fn_get_local_entity_int_value				[type][INT_TYPE_ENGAGE_ENEMY]										= get_local_int_value;

  00256	69 45 08 5c 04
	00 00		 imul	 eax, DWORD PTR _type$[ebp], 1116
  0025d	b9 04 00 00 00	 mov	 ecx, 4
  00262	6b d1 33	 imul	 edx, ecx, 51
  00265	c7 84 10 00 00
	00 00 00 00 00
	00		 mov	 DWORD PTR ?fn_get_local_entity_int_value@@3PAY0BBH@P6GHPAUENTITY@@W4INT_TYPES@@@ZA[eax+edx], OFFSET ?get_local_int_value@@YGHPAUENTITY@@W4INT_TYPES@@@Z ; get_local_int_value

; 1142 : 
; 1143 : 	fn_get_local_entity_int_value				[type][INT_TYPE_EXPLOSIVE_POWER]									= get_local_int_value;

  00270	69 45 08 5c 04
	00 00		 imul	 eax, DWORD PTR _type$[ebp], 1116
  00277	b9 04 00 00 00	 mov	 ecx, 4
  0027c	6b d1 36	 imul	 edx, ecx, 54
  0027f	c7 84 10 00 00
	00 00 00 00 00
	00		 mov	 DWORD PTR ?fn_get_local_entity_int_value@@3PAY0BBH@P6GHPAUENTITY@@W4INT_TYPES@@@ZA[eax+edx], OFFSET ?get_local_int_value@@YGHPAUENTITY@@W4INT_TYPES@@@Z ; get_local_int_value

; 1144 : 
; 1145 : 	fn_get_local_entity_int_value				[type][INT_TYPE_EXPLOSIVE_QUALITY]								= get_local_int_value;

  0028a	69 45 08 5c 04
	00 00		 imul	 eax, DWORD PTR _type$[ebp], 1116
  00291	b9 04 00 00 00	 mov	 ecx, 4
  00296	6b d1 37	 imul	 edx, ecx, 55
  00299	c7 84 10 00 00
	00 00 00 00 00
	00		 mov	 DWORD PTR ?fn_get_local_entity_int_value@@3PAY0BBH@P6GHPAUENTITY@@W4INT_TYPES@@@ZA[eax+edx], OFFSET ?get_local_int_value@@YGHPAUENTITY@@W4INT_TYPES@@@Z ; get_local_int_value

; 1146 : 
; 1147 : 	fn_get_local_entity_int_value				[type][INT_TYPE_FORCE]												= get_local_int_value;

  002a4	69 45 08 5c 04
	00 00		 imul	 eax, DWORD PTR _type$[ebp], 1116
  002ab	b9 04 00 00 00	 mov	 ecx, 4
  002b0	6b d1 3a	 imul	 edx, ecx, 58
  002b3	c7 84 10 00 00
	00 00 00 00 00
	00		 mov	 DWORD PTR ?fn_get_local_entity_int_value@@3PAY0BBH@P6GHPAUENTITY@@W4INT_TYPES@@@ZA[eax+edx], OFFSET ?get_local_int_value@@YGHPAUENTITY@@W4INT_TYPES@@@Z ; get_local_int_value

; 1148 : 
; 1149 : 	fn_get_local_entity_int_value				[type][INT_TYPE_FORCE_INFO_CATAGORY]							= get_local_int_value;

  002be	69 45 08 5c 04
	00 00		 imul	 eax, DWORD PTR _type$[ebp], 1116
  002c5	b9 04 00 00 00	 mov	 ecx, 4
  002ca	6b d1 3c	 imul	 edx, ecx, 60
  002cd	c7 84 10 00 00
	00 00 00 00 00
	00		 mov	 DWORD PTR ?fn_get_local_entity_int_value@@3PAY0BBH@P6GHPAUENTITY@@W4INT_TYPES@@@ZA[eax+edx], OFFSET ?get_local_int_value@@YGHPAUENTITY@@W4INT_TYPES@@@Z ; get_local_int_value

; 1150 : 
; 1151 : 	fn_set_local_entity_raw_int_value  		[type][INT_TYPE_FORMATION_POSITION]								= set_local_int_value;

  002d8	69 45 08 5c 04
	00 00		 imul	 eax, DWORD PTR _type$[ebp], 1116
  002df	b9 04 00 00 00	 mov	 ecx, 4
  002e4	6b d1 3e	 imul	 edx, ecx, 62
  002e7	c7 84 10 00 00
	00 00 00 00 00
	00		 mov	 DWORD PTR ?fn_set_local_entity_raw_int_value@@3PAY0BBH@P6GXPAUENTITY@@W4INT_TYPES@@H@ZA[eax+edx], OFFSET ?set_local_int_value@@YGXPAUENTITY@@W4INT_TYPES@@H@Z ; set_local_int_value

; 1152 : 	fn_set_local_entity_int_value				[type][INT_TYPE_FORMATION_POSITION]								= set_local_int_value;

  002f2	69 45 08 5c 04
	00 00		 imul	 eax, DWORD PTR _type$[ebp], 1116
  002f9	b9 04 00 00 00	 mov	 ecx, 4
  002fe	6b d1 3e	 imul	 edx, ecx, 62
  00301	c7 84 10 00 00
	00 00 00 00 00
	00		 mov	 DWORD PTR ?fn_set_local_entity_int_value@@3PAY0BBH@P6GXPAUENTITY@@W4INT_TYPES@@H@ZA[eax+edx], OFFSET ?set_local_int_value@@YGXPAUENTITY@@W4INT_TYPES@@H@Z ; set_local_int_value

; 1153 : 	fn_set_client_server_entity_int_value	[type][INT_TYPE_FORMATION_POSITION][COMMS_MODEL_SERVER]	= set_server_int_value;

  0030c	69 45 08 b8 08
	00 00		 imul	 eax, DWORD PTR _type$[ebp], 2232
  00313	b9 08 00 00 00	 mov	 ecx, 8
  00318	6b d1 3e	 imul	 edx, ecx, 62
  0031b	8d 84 10 00 00
	00 00		 lea	 eax, DWORD PTR ?fn_set_client_server_entity_int_value@@3PAY1BBH@1P6GXPAUENTITY@@W4INT_TYPES@@H@ZA[eax+edx]
  00322	b9 04 00 00 00	 mov	 ecx, 4
  00327	6b d1 00	 imul	 edx, ecx, 0
  0032a	c7 04 10 00 00
	00 00		 mov	 DWORD PTR [eax+edx], OFFSET ?set_server_int_value@@YGXPAUENTITY@@W4INT_TYPES@@H@Z ; set_server_int_value

; 1154 : 	fn_set_client_server_entity_int_value	[type][INT_TYPE_FORMATION_POSITION][COMMS_MODEL_CLIENT]	= set_client_int_value;

  00331	69 45 08 b8 08
	00 00		 imul	 eax, DWORD PTR _type$[ebp], 2232
  00338	b9 08 00 00 00	 mov	 ecx, 8
  0033d	6b d1 3e	 imul	 edx, ecx, 62
  00340	8d 84 10 00 00
	00 00		 lea	 eax, DWORD PTR ?fn_set_client_server_entity_int_value@@3PAY1BBH@1P6GXPAUENTITY@@W4INT_TYPES@@H@ZA[eax+edx]
  00347	b9 04 00 00 00	 mov	 ecx, 4
  0034c	c1 e1 00	 shl	 ecx, 0
  0034f	c7 04 08 00 00
	00 00		 mov	 DWORD PTR [eax+ecx], OFFSET ?set_client_int_value@@YGXPAUENTITY@@W4INT_TYPES@@H@Z ; set_client_int_value

; 1155 : 	fn_get_local_entity_int_value				[type][INT_TYPE_FORMATION_POSITION]								= get_local_int_value;

  00356	69 45 08 5c 04
	00 00		 imul	 eax, DWORD PTR _type$[ebp], 1116
  0035d	b9 04 00 00 00	 mov	 ecx, 4
  00362	6b d1 3e	 imul	 edx, ecx, 62
  00365	c7 84 10 00 00
	00 00 00 00 00
	00		 mov	 DWORD PTR ?fn_get_local_entity_int_value@@3PAY0BBH@P6GHPAUENTITY@@W4INT_TYPES@@@ZA[eax+edx], OFFSET ?get_local_int_value@@YGHPAUENTITY@@W4INT_TYPES@@@Z ; get_local_int_value

; 1156 : 
; 1157 : 	fn_get_local_entity_int_value				[type][INT_TYPE_GROUP_LEADER]										= get_local_int_value;

  00370	69 45 08 5c 04
	00 00		 imul	 eax, DWORD PTR _type$[ebp], 1116
  00377	b9 04 00 00 00	 mov	 ecx, 4
  0037c	6b d1 48	 imul	 edx, ecx, 72
  0037f	c7 84 10 00 00
	00 00 00 00 00
	00		 mov	 DWORD PTR ?fn_get_local_entity_int_value@@3PAY0BBH@P6GHPAUENTITY@@W4INT_TYPES@@@ZA[eax+edx], OFFSET ?get_local_int_value@@YGHPAUENTITY@@W4INT_TYPES@@@Z ; get_local_int_value

; 1158 : 
; 1159 : 	fn_get_local_entity_int_value				[type][INT_TYPE_GROUP_MEMBER_ID]									= get_local_int_value;

  0038a	69 45 08 5c 04
	00 00		 imul	 eax, DWORD PTR _type$[ebp], 1116
  00391	b9 04 00 00 00	 mov	 ecx, 4
  00396	6b d1 4a	 imul	 edx, ecx, 74
  00399	c7 84 10 00 00
	00 00 00 00 00
	00		 mov	 DWORD PTR ?fn_get_local_entity_int_value@@3PAY0BBH@P6GHPAUENTITY@@W4INT_TYPES@@@ZA[eax+edx], OFFSET ?get_local_int_value@@YGHPAUENTITY@@W4INT_TYPES@@@Z ; get_local_int_value

; 1160 : 
; 1161 : 	fn_set_local_entity_raw_int_value		[type][INT_TYPE_GROUP_MEMBER_NUMBER]							= set_local_int_value;

  003a4	69 45 08 5c 04
	00 00		 imul	 eax, DWORD PTR _type$[ebp], 1116
  003ab	b9 04 00 00 00	 mov	 ecx, 4
  003b0	6b d1 4b	 imul	 edx, ecx, 75
  003b3	c7 84 10 00 00
	00 00 00 00 00
	00		 mov	 DWORD PTR ?fn_set_local_entity_raw_int_value@@3PAY0BBH@P6GXPAUENTITY@@W4INT_TYPES@@H@ZA[eax+edx], OFFSET ?set_local_int_value@@YGXPAUENTITY@@W4INT_TYPES@@H@Z ; set_local_int_value

; 1162 : 	fn_set_local_entity_int_value				[type][INT_TYPE_GROUP_MEMBER_NUMBER]							= set_local_int_value;

  003be	69 45 08 5c 04
	00 00		 imul	 eax, DWORD PTR _type$[ebp], 1116
  003c5	b9 04 00 00 00	 mov	 ecx, 4
  003ca	6b d1 4b	 imul	 edx, ecx, 75
  003cd	c7 84 10 00 00
	00 00 00 00 00
	00		 mov	 DWORD PTR ?fn_set_local_entity_int_value@@3PAY0BBH@P6GXPAUENTITY@@W4INT_TYPES@@H@ZA[eax+edx], OFFSET ?set_local_int_value@@YGXPAUENTITY@@W4INT_TYPES@@H@Z ; set_local_int_value

; 1163 : 	fn_set_client_server_entity_int_value	[type][INT_TYPE_GROUP_MEMBER_NUMBER][COMMS_MODEL_SERVER]	= set_server_int_value;

  003d8	69 45 08 b8 08
	00 00		 imul	 eax, DWORD PTR _type$[ebp], 2232
  003df	b9 08 00 00 00	 mov	 ecx, 8
  003e4	6b d1 4b	 imul	 edx, ecx, 75
  003e7	8d 84 10 00 00
	00 00		 lea	 eax, DWORD PTR ?fn_set_client_server_entity_int_value@@3PAY1BBH@1P6GXPAUENTITY@@W4INT_TYPES@@H@ZA[eax+edx]
  003ee	b9 04 00 00 00	 mov	 ecx, 4
  003f3	6b d1 00	 imul	 edx, ecx, 0
  003f6	c7 04 10 00 00
	00 00		 mov	 DWORD PTR [eax+edx], OFFSET ?set_server_int_value@@YGXPAUENTITY@@W4INT_TYPES@@H@Z ; set_server_int_value

; 1164 : 	fn_set_client_server_entity_int_value	[type][INT_TYPE_GROUP_MEMBER_NUMBER][COMMS_MODEL_CLIENT]	= set_client_int_value;

  003fd	69 45 08 b8 08
	00 00		 imul	 eax, DWORD PTR _type$[ebp], 2232
  00404	b9 08 00 00 00	 mov	 ecx, 8
  00409	6b d1 4b	 imul	 edx, ecx, 75
  0040c	8d 84 10 00 00
	00 00		 lea	 eax, DWORD PTR ?fn_set_client_server_entity_int_value@@3PAY1BBH@1P6GXPAUENTITY@@W4INT_TYPES@@H@ZA[eax+edx]
  00413	b9 04 00 00 00	 mov	 ecx, 4
  00418	c1 e1 00	 shl	 ecx, 0
  0041b	c7 04 08 00 00
	00 00		 mov	 DWORD PTR [eax+ecx], OFFSET ?set_client_int_value@@YGXPAUENTITY@@W4INT_TYPES@@H@Z ; set_client_int_value

; 1165 : 	fn_get_local_entity_int_value				[type][INT_TYPE_GROUP_MEMBER_NUMBER]							= get_local_int_value;

  00422	69 45 08 5c 04
	00 00		 imul	 eax, DWORD PTR _type$[ebp], 1116
  00429	b9 04 00 00 00	 mov	 ecx, 4
  0042e	6b d1 4b	 imul	 edx, ecx, 75
  00431	c7 84 10 00 00
	00 00 00 00 00
	00		 mov	 DWORD PTR ?fn_get_local_entity_int_value@@3PAY0BBH@P6GHPAUENTITY@@W4INT_TYPES@@@ZA[eax+edx], OFFSET ?get_local_int_value@@YGHPAUENTITY@@W4INT_TYPES@@@Z ; get_local_int_value

; 1166 : 
; 1167 : 	fn_get_local_entity_int_value				[type][INT_TYPE_GROUP_MEMBER_STATE]								= get_local_int_value;

  0043c	69 45 08 5c 04
	00 00		 imul	 eax, DWORD PTR _type$[ebp], 1116
  00443	b9 04 00 00 00	 mov	 ecx, 4
  00448	6b d1 4c	 imul	 edx, ecx, 76
  0044b	c7 84 10 00 00
	00 00 00 00 00
	00		 mov	 DWORD PTR ?fn_get_local_entity_int_value@@3PAY0BBH@P6GHPAUENTITY@@W4INT_TYPES@@@ZA[eax+edx], OFFSET ?get_local_int_value@@YGHPAUENTITY@@W4INT_TYPES@@@Z ; get_local_int_value

; 1168 : 
; 1169 : 	fn_set_local_entity_raw_int_value		[type][INT_TYPE_GUNSHIP_RADAR_LOS_CLEAR]						= set_local_int_value;

  00456	69 45 08 5c 04
	00 00		 imul	 eax, DWORD PTR _type$[ebp], 1116
  0045d	b9 04 00 00 00	 mov	 ecx, 4
  00462	6b d1 50	 imul	 edx, ecx, 80
  00465	c7 84 10 00 00
	00 00 00 00 00
	00		 mov	 DWORD PTR ?fn_set_local_entity_raw_int_value@@3PAY0BBH@P6GXPAUENTITY@@W4INT_TYPES@@H@ZA[eax+edx], OFFSET ?set_local_int_value@@YGXPAUENTITY@@W4INT_TYPES@@H@Z ; set_local_int_value

; 1170 : 	fn_set_local_entity_int_value				[type][INT_TYPE_GUNSHIP_RADAR_LOS_CLEAR]						= set_local_int_value;

  00470	69 45 08 5c 04
	00 00		 imul	 eax, DWORD PTR _type$[ebp], 1116
  00477	b9 04 00 00 00	 mov	 ecx, 4
  0047c	6b d1 50	 imul	 edx, ecx, 80
  0047f	c7 84 10 00 00
	00 00 00 00 00
	00		 mov	 DWORD PTR ?fn_set_local_entity_int_value@@3PAY0BBH@P6GXPAUENTITY@@W4INT_TYPES@@H@ZA[eax+edx], OFFSET ?set_local_int_value@@YGXPAUENTITY@@W4INT_TYPES@@H@Z ; set_local_int_value

; 1171 : 	fn_get_local_entity_int_value				[type][INT_TYPE_GUNSHIP_RADAR_LOS_CLEAR]						= get_local_int_value;

  0048a	69 45 08 5c 04
	00 00		 imul	 eax, DWORD PTR _type$[ebp], 1116
  00491	b9 04 00 00 00	 mov	 ecx, 4
  00496	6b d1 50	 imul	 edx, ecx, 80
  00499	c7 84 10 00 00
	00 00 00 00 00
	00		 mov	 DWORD PTR ?fn_get_local_entity_int_value@@3PAY0BBH@P6GHPAUENTITY@@W4INT_TYPES@@@ZA[eax+edx], OFFSET ?get_local_int_value@@YGHPAUENTITY@@W4INT_TYPES@@@Z ; get_local_int_value

; 1172 : 
; 1173 : 	fn_get_local_entity_int_value				[type][INT_TYPE_GUNSHIP_TYPE]										= get_local_int_value;

  004a4	69 45 08 5c 04
	00 00		 imul	 eax, DWORD PTR _type$[ebp], 1116
  004ab	b9 04 00 00 00	 mov	 ecx, 4
  004b0	6b d1 51	 imul	 edx, ecx, 81
  004b3	c7 84 10 00 00
	00 00 00 00 00
	00		 mov	 DWORD PTR ?fn_get_local_entity_int_value@@3PAY0BBH@P6GHPAUENTITY@@W4INT_TYPES@@@ZA[eax+edx], OFFSET ?get_local_int_value@@YGHPAUENTITY@@W4INT_TYPES@@@Z ; get_local_int_value

; 1174 : 
; 1175 : 	fn_get_local_entity_int_value				[type][INT_TYPE_IDENTIFY_AIRCRAFT]								= get_local_int_value;

  004be	69 45 08 5c 04
	00 00		 imul	 eax, DWORD PTR _type$[ebp], 1116
  004c5	b9 04 00 00 00	 mov	 ecx, 4
  004ca	6b d1 57	 imul	 edx, ecx, 87
  004cd	c7 84 10 00 00
	00 00 00 00 00
	00		 mov	 DWORD PTR ?fn_get_local_entity_int_value@@3PAY0BBH@P6GHPAUENTITY@@W4INT_TYPES@@@ZA[eax+edx], OFFSET ?get_local_int_value@@YGHPAUENTITY@@W4INT_TYPES@@@Z ; get_local_int_value

; 1176 : 
; 1177 : 	fn_set_local_entity_raw_int_value		[type][INT_TYPE_ID_NUMBER]											= set_local_int_value;

  004d8	69 45 08 5c 04
	00 00		 imul	 eax, DWORD PTR _type$[ebp], 1116
  004df	b9 04 00 00 00	 mov	 ecx, 4
  004e4	6b d1 63	 imul	 edx, ecx, 99
  004e7	c7 84 10 00 00
	00 00 00 00 00
	00		 mov	 DWORD PTR ?fn_set_local_entity_raw_int_value@@3PAY0BBH@P6GXPAUENTITY@@W4INT_TYPES@@H@ZA[eax+edx], OFFSET ?set_local_int_value@@YGXPAUENTITY@@W4INT_TYPES@@H@Z ; set_local_int_value

; 1178 : 	fn_set_local_entity_int_value				[type][INT_TYPE_ID_NUMBER]											= set_local_int_value;

  004f2	69 45 08 5c 04
	00 00		 imul	 eax, DWORD PTR _type$[ebp], 1116
  004f9	b9 04 00 00 00	 mov	 ecx, 4
  004fe	6b d1 63	 imul	 edx, ecx, 99
  00501	c7 84 10 00 00
	00 00 00 00 00
	00		 mov	 DWORD PTR ?fn_set_local_entity_int_value@@3PAY0BBH@P6GXPAUENTITY@@W4INT_TYPES@@H@ZA[eax+edx], OFFSET ?set_local_int_value@@YGXPAUENTITY@@W4INT_TYPES@@H@Z ; set_local_int_value

; 1179 : 	fn_get_local_entity_int_value				[type][INT_TYPE_ID_NUMBER]											= get_local_int_value;

  0050c	69 45 08 5c 04
	00 00		 imul	 eax, DWORD PTR _type$[ebp], 1116
  00513	b9 04 00 00 00	 mov	 ecx, 4
  00518	6b d1 63	 imul	 edx, ecx, 99
  0051b	c7 84 10 00 00
	00 00 00 00 00
	00		 mov	 DWORD PTR ?fn_get_local_entity_int_value@@3PAY0BBH@P6GHPAUENTITY@@W4INT_TYPES@@@ZA[eax+edx], OFFSET ?get_local_int_value@@YGHPAUENTITY@@W4INT_TYPES@@@Z ; get_local_int_value

; 1180 : 
; 1181 : 	fn_set_local_entity_raw_int_value		[type][INT_TYPE_ID_NUMBER_SIGNIFICANT_DIGITS]				= set_local_int_value;

  00526	69 45 08 5c 04
	00 00		 imul	 eax, DWORD PTR _type$[ebp], 1116
  0052d	b9 04 00 00 00	 mov	 ecx, 4
  00532	6b d1 64	 imul	 edx, ecx, 100
  00535	c7 84 10 00 00
	00 00 00 00 00
	00		 mov	 DWORD PTR ?fn_set_local_entity_raw_int_value@@3PAY0BBH@P6GXPAUENTITY@@W4INT_TYPES@@H@ZA[eax+edx], OFFSET ?set_local_int_value@@YGXPAUENTITY@@W4INT_TYPES@@H@Z ; set_local_int_value

; 1182 : 	fn_set_local_entity_int_value				[type][INT_TYPE_ID_NUMBER_SIGNIFICANT_DIGITS]				= set_local_int_value;

  00540	69 45 08 5c 04
	00 00		 imul	 eax, DWORD PTR _type$[ebp], 1116
  00547	b9 04 00 00 00	 mov	 ecx, 4
  0054c	6b d1 64	 imul	 edx, ecx, 100
  0054f	c7 84 10 00 00
	00 00 00 00 00
	00		 mov	 DWORD PTR ?fn_set_local_entity_int_value@@3PAY0BBH@P6GXPAUENTITY@@W4INT_TYPES@@H@ZA[eax+edx], OFFSET ?set_local_int_value@@YGXPAUENTITY@@W4INT_TYPES@@H@Z ; set_local_int_value

; 1183 : 	fn_get_local_entity_int_value				[type][INT_TYPE_ID_NUMBER_SIGNIFICANT_DIGITS]				= get_local_int_value;

  0055a	69 45 08 5c 04
	00 00		 imul	 eax, DWORD PTR _type$[ebp], 1116
  00561	b9 04 00 00 00	 mov	 ecx, 4
  00566	6b d1 64	 imul	 edx, ecx, 100
  00569	c7 84 10 00 00
	00 00 00 00 00
	00		 mov	 DWORD PTR ?fn_get_local_entity_int_value@@3PAY0BBH@P6GHPAUENTITY@@W4INT_TYPES@@@ZA[eax+edx], OFFSET ?get_local_int_value@@YGHPAUENTITY@@W4INT_TYPES@@@Z ; get_local_int_value

; 1184 : 
; 1185 : 	fn_get_local_entity_int_value				[type][INT_TYPE_INITIAL_DAMAGE_LEVEL]							= get_local_int_value;

  00574	69 45 08 5c 04
	00 00		 imul	 eax, DWORD PTR _type$[ebp], 1116
  0057b	b9 04 00 00 00	 mov	 ecx, 4
  00580	6b d1 69	 imul	 edx, ecx, 105
  00583	c7 84 10 00 00
	00 00 00 00 00
	00		 mov	 DWORD PTR ?fn_get_local_entity_int_value@@3PAY0BBH@P6GHPAUENTITY@@W4INT_TYPES@@@ZA[eax+edx], OFFSET ?get_local_int_value@@YGHPAUENTITY@@W4INT_TYPES@@@Z ; get_local_int_value

; 1186 : 
; 1187 : 	fn_get_local_entity_int_value				[type][INT_TYPE_LANDED]												= get_local_int_value;

  0058e	69 45 08 5c 04
	00 00		 imul	 eax, DWORD PTR _type$[ebp], 1116
  00595	b9 04 00 00 00	 mov	 ecx, 4
  0059a	6b d1 73	 imul	 edx, ecx, 115
  0059d	c7 84 10 00 00
	00 00 00 00 00
	00		 mov	 DWORD PTR ?fn_get_local_entity_int_value@@3PAY0BBH@P6GHPAUENTITY@@W4INT_TYPES@@@ZA[eax+edx], OFFSET ?get_local_int_value@@YGHPAUENTITY@@W4INT_TYPES@@@Z ; get_local_int_value

; 1188 : 
; 1189 : 	fn_set_local_entity_raw_int_value		[type][INT_TYPE_LIGHTS_ON]											= set_local_raw_int_value;

  005a8	69 45 08 5c 04
	00 00		 imul	 eax, DWORD PTR _type$[ebp], 1116
  005af	b9 04 00 00 00	 mov	 ecx, 4
  005b4	6b d1 7a	 imul	 edx, ecx, 122
  005b7	c7 84 10 00 00
	00 00 00 00 00
	00		 mov	 DWORD PTR ?fn_set_local_entity_raw_int_value@@3PAY0BBH@P6GXPAUENTITY@@W4INT_TYPES@@H@ZA[eax+edx], OFFSET ?set_local_raw_int_value@@YGXPAUENTITY@@W4INT_TYPES@@H@Z ; set_local_raw_int_value

; 1190 : 	fn_set_local_entity_int_value				[type][INT_TYPE_LIGHTS_ON]											= set_local_int_value;

  005c2	69 45 08 5c 04
	00 00		 imul	 eax, DWORD PTR _type$[ebp], 1116
  005c9	b9 04 00 00 00	 mov	 ecx, 4
  005ce	6b d1 7a	 imul	 edx, ecx, 122
  005d1	c7 84 10 00 00
	00 00 00 00 00
	00		 mov	 DWORD PTR ?fn_set_local_entity_int_value@@3PAY0BBH@P6GXPAUENTITY@@W4INT_TYPES@@H@ZA[eax+edx], OFFSET ?set_local_int_value@@YGXPAUENTITY@@W4INT_TYPES@@H@Z ; set_local_int_value

; 1191 : 	fn_set_client_server_entity_int_value	[type][INT_TYPE_LIGHTS_ON][COMMS_MODEL_SERVER]				= set_server_int_value;

  005dc	69 45 08 b8 08
	00 00		 imul	 eax, DWORD PTR _type$[ebp], 2232
  005e3	b9 08 00 00 00	 mov	 ecx, 8
  005e8	6b d1 7a	 imul	 edx, ecx, 122
  005eb	8d 84 10 00 00
	00 00		 lea	 eax, DWORD PTR ?fn_set_client_server_entity_int_value@@3PAY1BBH@1P6GXPAUENTITY@@W4INT_TYPES@@H@ZA[eax+edx]
  005f2	b9 04 00 00 00	 mov	 ecx, 4
  005f7	6b d1 00	 imul	 edx, ecx, 0
  005fa	c7 04 10 00 00
	00 00		 mov	 DWORD PTR [eax+edx], OFFSET ?set_server_int_value@@YGXPAUENTITY@@W4INT_TYPES@@H@Z ; set_server_int_value

; 1192 : 	fn_set_client_server_entity_int_value	[type][INT_TYPE_LIGHTS_ON][COMMS_MODEL_CLIENT]				= set_client_int_value;

  00601	69 45 08 b8 08
	00 00		 imul	 eax, DWORD PTR _type$[ebp], 2232
  00608	b9 08 00 00 00	 mov	 ecx, 8
  0060d	6b d1 7a	 imul	 edx, ecx, 122
  00610	8d 84 10 00 00
	00 00		 lea	 eax, DWORD PTR ?fn_set_client_server_entity_int_value@@3PAY1BBH@1P6GXPAUENTITY@@W4INT_TYPES@@H@ZA[eax+edx]
  00617	b9 04 00 00 00	 mov	 ecx, 4
  0061c	c1 e1 00	 shl	 ecx, 0
  0061f	c7 04 08 00 00
	00 00		 mov	 DWORD PTR [eax+ecx], OFFSET ?set_client_int_value@@YGXPAUENTITY@@W4INT_TYPES@@H@Z ; set_client_int_value

; 1193 : 	fn_get_local_entity_int_value				[type][INT_TYPE_LIGHTS_ON]											= get_local_int_value;

  00626	69 45 08 5c 04
	00 00		 imul	 eax, DWORD PTR _type$[ebp], 1116
  0062d	b9 04 00 00 00	 mov	 ecx, 4
  00632	6b d1 7a	 imul	 edx, ecx, 122
  00635	c7 84 10 00 00
	00 00 00 00 00
	00		 mov	 DWORD PTR ?fn_get_local_entity_int_value@@3PAY0BBH@P6GHPAUENTITY@@W4INT_TYPES@@@ZA[eax+edx], OFFSET ?get_local_int_value@@YGHPAUENTITY@@W4INT_TYPES@@@Z ; get_local_int_value

; 1194 : 
; 1195 : 	fn_get_local_entity_int_value				[type][INT_TYPE_MAP_ICON]											= get_local_int_value;

  00640	69 45 08 5c 04
	00 00		 imul	 eax, DWORD PTR _type$[ebp], 1116
  00647	b9 04 00 00 00	 mov	 ecx, 4
  0064c	69 d1 82 00 00
	00		 imul	 edx, ecx, 130
  00652	c7 84 10 00 00
	00 00 00 00 00
	00		 mov	 DWORD PTR ?fn_get_local_entity_int_value@@3PAY0BBH@P6GHPAUENTITY@@W4INT_TYPES@@@ZA[eax+edx], OFFSET ?get_local_int_value@@YGHPAUENTITY@@W4INT_TYPES@@@Z ; get_local_int_value

; 1196 : 
; 1197 : 	fn_get_local_entity_int_value				[type][INT_TYPE_MAX_WEAPON_CONFIG_TYPE]						= get_local_int_value;

  0065d	69 45 08 5c 04
	00 00		 imul	 eax, DWORD PTR _type$[ebp], 1116
  00664	b9 04 00 00 00	 mov	 ecx, 4
  00669	69 d1 85 00 00
	00		 imul	 edx, ecx, 133
  0066f	c7 84 10 00 00
	00 00 00 00 00
	00		 mov	 DWORD PTR ?fn_get_local_entity_int_value@@3PAY0BBH@P6GHPAUENTITY@@W4INT_TYPES@@@ZA[eax+edx], OFFSET ?get_local_int_value@@YGHPAUENTITY@@W4INT_TYPES@@@Z ; get_local_int_value

; 1198 : 
; 1199 : 	fn_get_local_entity_int_value				[type][INT_TYPE_MIN_WEAPON_CONFIG_TYPE]						= get_local_int_value;

  0067a	69 45 08 5c 04
	00 00		 imul	 eax, DWORD PTR _type$[ebp], 1116
  00681	b9 04 00 00 00	 mov	 ecx, 4
  00686	69 d1 8c 00 00
	00		 imul	 edx, ecx, 140
  0068c	c7 84 10 00 00
	00 00 00 00 00
	00		 mov	 DWORD PTR ?fn_get_local_entity_int_value@@3PAY0BBH@P6GHPAUENTITY@@W4INT_TYPES@@@ZA[eax+edx], OFFSET ?get_local_int_value@@YGHPAUENTITY@@W4INT_TYPES@@@Z ; get_local_int_value

; 1200 : 
; 1201 : 	fn_get_local_entity_int_value				[type][INT_TYPE_MOBILE_MOVING]									= get_local_int_value;

  00697	69 45 08 5c 04
	00 00		 imul	 eax, DWORD PTR _type$[ebp], 1116
  0069e	b9 04 00 00 00	 mov	 ecx, 4
  006a3	69 d1 8e 00 00
	00		 imul	 edx, ecx, 142
  006a9	c7 84 10 00 00
	00 00 00 00 00
	00		 mov	 DWORD PTR ?fn_get_local_entity_int_value@@3PAY0BBH@P6GHPAUENTITY@@W4INT_TYPES@@@ZA[eax+edx], OFFSET ?get_local_int_value@@YGHPAUENTITY@@W4INT_TYPES@@@Z ; get_local_int_value

; 1202 : 
; 1203 : 	fn_get_local_entity_int_value				[type][INT_TYPE_MOVEMENT_TYPE]									= get_local_int_value;

  006b4	69 45 08 5c 04
	00 00		 imul	 eax, DWORD PTR _type$[ebp], 1116
  006bb	b9 04 00 00 00	 mov	 ecx, 4
  006c0	69 d1 90 00 00
	00		 imul	 edx, ecx, 144
  006c6	c7 84 10 00 00
	00 00 00 00 00
	00		 mov	 DWORD PTR ?fn_get_local_entity_int_value@@3PAY0BBH@P6GHPAUENTITY@@W4INT_TYPES@@@ZA[eax+edx], OFFSET ?get_local_int_value@@YGHPAUENTITY@@W4INT_TYPES@@@Z ; get_local_int_value

; 1204 : 
; 1205 : 	fn_set_local_entity_raw_int_value		[type][INT_TYPE_OBJECT_3D_SHAPE]									= set_local_int_value;

  006d1	69 45 08 5c 04
	00 00		 imul	 eax, DWORD PTR _type$[ebp], 1116
  006d8	b9 04 00 00 00	 mov	 ecx, 4
  006dd	69 d1 92 00 00
	00		 imul	 edx, ecx, 146
  006e3	c7 84 10 00 00
	00 00 00 00 00
	00		 mov	 DWORD PTR ?fn_set_local_entity_raw_int_value@@3PAY0BBH@P6GXPAUENTITY@@W4INT_TYPES@@H@ZA[eax+edx], OFFSET ?set_local_int_value@@YGXPAUENTITY@@W4INT_TYPES@@H@Z ; set_local_int_value

; 1206 : 	fn_set_local_entity_int_value				[type][INT_TYPE_OBJECT_3D_SHAPE]									= set_local_int_value;

  006ee	69 45 08 5c 04
	00 00		 imul	 eax, DWORD PTR _type$[ebp], 1116
  006f5	b9 04 00 00 00	 mov	 ecx, 4
  006fa	69 d1 92 00 00
	00		 imul	 edx, ecx, 146
  00700	c7 84 10 00 00
	00 00 00 00 00
	00		 mov	 DWORD PTR ?fn_set_local_entity_int_value@@3PAY0BBH@P6GXPAUENTITY@@W4INT_TYPES@@H@ZA[eax+edx], OFFSET ?set_local_int_value@@YGXPAUENTITY@@W4INT_TYPES@@H@Z ; set_local_int_value

; 1207 : 	fn_get_local_entity_int_value				[type][INT_TYPE_OBJECT_3D_SHAPE]									= get_local_int_value;

  0070b	69 45 08 5c 04
	00 00		 imul	 eax, DWORD PTR _type$[ebp], 1116
  00712	b9 04 00 00 00	 mov	 ecx, 4
  00717	69 d1 92 00 00
	00		 imul	 edx, ecx, 146
  0071d	c7 84 10 00 00
	00 00 00 00 00
	00		 mov	 DWORD PTR ?fn_get_local_entity_int_value@@3PAY0BBH@P6GHPAUENTITY@@W4INT_TYPES@@@ZA[eax+edx], OFFSET ?get_local_int_value@@YGHPAUENTITY@@W4INT_TYPES@@@Z ; get_local_int_value

; 1208 : 
; 1209 : 	fn_get_local_entity_int_value				[type][INT_TYPE_OFFENSIVE_CAPABILITY]							= get_local_int_value;

  00728	69 45 08 5c 04
	00 00		 imul	 eax, DWORD PTR _type$[ebp], 1116
  0072f	b9 04 00 00 00	 mov	 ecx, 4
  00734	69 d1 96 00 00
	00		 imul	 edx, ecx, 150
  0073a	c7 84 10 00 00
	00 00 00 00 00
	00		 mov	 DWORD PTR ?fn_get_local_entity_int_value@@3PAY0BBH@P6GHPAUENTITY@@W4INT_TYPES@@@ZA[eax+edx], OFFSET ?get_local_int_value@@YGHPAUENTITY@@W4INT_TYPES@@@Z ; get_local_int_value

; 1210 : 
; 1211 : 	fn_set_local_entity_raw_int_value		[type][INT_TYPE_OPERATIONAL_STATE]								= set_local_int_value;

  00745	69 45 08 5c 04
	00 00		 imul	 eax, DWORD PTR _type$[ebp], 1116
  0074c	b9 04 00 00 00	 mov	 ecx, 4
  00751	69 d1 97 00 00
	00		 imul	 edx, ecx, 151
  00757	c7 84 10 00 00
	00 00 00 00 00
	00		 mov	 DWORD PTR ?fn_set_local_entity_raw_int_value@@3PAY0BBH@P6GXPAUENTITY@@W4INT_TYPES@@H@ZA[eax+edx], OFFSET ?set_local_int_value@@YGXPAUENTITY@@W4INT_TYPES@@H@Z ; set_local_int_value

; 1212 : 	fn_set_local_entity_int_value				[type][INT_TYPE_OPERATIONAL_STATE]								= set_local_int_value;

  00762	69 45 08 5c 04
	00 00		 imul	 eax, DWORD PTR _type$[ebp], 1116
  00769	b9 04 00 00 00	 mov	 ecx, 4
  0076e	69 d1 97 00 00
	00		 imul	 edx, ecx, 151
  00774	c7 84 10 00 00
	00 00 00 00 00
	00		 mov	 DWORD PTR ?fn_set_local_entity_int_value@@3PAY0BBH@P6GXPAUENTITY@@W4INT_TYPES@@H@ZA[eax+edx], OFFSET ?set_local_int_value@@YGXPAUENTITY@@W4INT_TYPES@@H@Z ; set_local_int_value

; 1213 : 	fn_set_client_server_entity_int_value	[type][INT_TYPE_OPERATIONAL_STATE][COMMS_MODEL_SERVER]	= set_server_int_value;

  0077f	69 45 08 b8 08
	00 00		 imul	 eax, DWORD PTR _type$[ebp], 2232
  00786	b9 08 00 00 00	 mov	 ecx, 8
  0078b	69 d1 97 00 00
	00		 imul	 edx, ecx, 151
  00791	8d 84 10 00 00
	00 00		 lea	 eax, DWORD PTR ?fn_set_client_server_entity_int_value@@3PAY1BBH@1P6GXPAUENTITY@@W4INT_TYPES@@H@ZA[eax+edx]
  00798	b9 04 00 00 00	 mov	 ecx, 4
  0079d	6b d1 00	 imul	 edx, ecx, 0
  007a0	c7 04 10 00 00
	00 00		 mov	 DWORD PTR [eax+edx], OFFSET ?set_server_int_value@@YGXPAUENTITY@@W4INT_TYPES@@H@Z ; set_server_int_value

; 1214 : 	fn_set_client_server_entity_int_value	[type][INT_TYPE_OPERATIONAL_STATE][COMMS_MODEL_CLIENT]	= set_client_int_value;

  007a7	69 45 08 b8 08
	00 00		 imul	 eax, DWORD PTR _type$[ebp], 2232
  007ae	b9 08 00 00 00	 mov	 ecx, 8
  007b3	69 d1 97 00 00
	00		 imul	 edx, ecx, 151
  007b9	8d 84 10 00 00
	00 00		 lea	 eax, DWORD PTR ?fn_set_client_server_entity_int_value@@3PAY1BBH@1P6GXPAUENTITY@@W4INT_TYPES@@H@ZA[eax+edx]
  007c0	b9 04 00 00 00	 mov	 ecx, 4
  007c5	c1 e1 00	 shl	 ecx, 0
  007c8	c7 04 08 00 00
	00 00		 mov	 DWORD PTR [eax+ecx], OFFSET ?set_client_int_value@@YGXPAUENTITY@@W4INT_TYPES@@H@Z ; set_client_int_value

; 1215 : 	fn_get_local_entity_int_value				[type][INT_TYPE_OPERATIONAL_STATE]								= get_local_int_value;

  007cf	69 45 08 5c 04
	00 00		 imul	 eax, DWORD PTR _type$[ebp], 1116
  007d6	b9 04 00 00 00	 mov	 ecx, 4
  007db	69 d1 97 00 00
	00		 imul	 edx, ecx, 151
  007e1	c7 84 10 00 00
	00 00 00 00 00
	00		 mov	 DWORD PTR ?fn_get_local_entity_int_value@@3PAY0BBH@P6GHPAUENTITY@@W4INT_TYPES@@@ZA[eax+edx], OFFSET ?get_local_int_value@@YGHPAUENTITY@@W4INT_TYPES@@@Z ; get_local_int_value

; 1216 : 
; 1217 : 	fn_get_local_entity_int_value				[type][INT_TYPE_PLAYER_CONTROLLABLE]	 						= get_local_int_value;

  007ec	69 45 08 5c 04
	00 00		 imul	 eax, DWORD PTR _type$[ebp], 1116
  007f3	b9 04 00 00 00	 mov	 ecx, 4
  007f8	69 d1 9d 00 00
	00		 imul	 edx, ecx, 157
  007fe	c7 84 10 00 00
	00 00 00 00 00
	00		 mov	 DWORD PTR ?fn_get_local_entity_int_value@@3PAY0BBH@P6GHPAUENTITY@@W4INT_TYPES@@@ZA[eax+edx], OFFSET ?get_local_int_value@@YGHPAUENTITY@@W4INT_TYPES@@@Z ; get_local_int_value

; 1218 : 
; 1219 : 	fn_get_local_entity_int_value				[type][INT_TYPE_POINTS_VALUE]										= get_local_int_value;

  00809	69 45 08 5c 04
	00 00		 imul	 eax, DWORD PTR _type$[ebp], 1116
  00810	b9 04 00 00 00	 mov	 ecx, 4
  00815	69 d1 9f 00 00
	00		 imul	 edx, ecx, 159
  0081b	c7 84 10 00 00
	00 00 00 00 00
	00		 mov	 DWORD PTR ?fn_get_local_entity_int_value@@3PAY0BBH@P6GHPAUENTITY@@W4INT_TYPES@@@ZA[eax+edx], OFFSET ?get_local_int_value@@YGHPAUENTITY@@W4INT_TYPES@@@Z ; get_local_int_value

; 1220 : 
; 1221 : 	fn_get_local_entity_int_value				[type][INT_TYPE_SCOUT_WEAPON_CONFIG_TYPE]						= get_local_int_value;

  00826	69 45 08 5c 04
	00 00		 imul	 eax, DWORD PTR _type$[ebp], 1116
  0082d	b9 04 00 00 00	 mov	 ecx, 4
  00832	69 d1 b6 00 00
	00		 imul	 edx, ecx, 182
  00838	c7 84 10 00 00
	00 00 00 00 00
	00		 mov	 DWORD PTR ?fn_get_local_entity_int_value@@3PAY0BBH@P6GHPAUENTITY@@W4INT_TYPES@@@ZA[eax+edx], OFFSET ?get_local_int_value@@YGHPAUENTITY@@W4INT_TYPES@@@Z ; get_local_int_value

; 1222 : 
; 1223 : 	fn_set_local_entity_raw_int_value		[type][INT_TYPE_SELECTED_WEAPON]									= set_local_raw_int_value;

  00843	69 45 08 5c 04
	00 00		 imul	 eax, DWORD PTR _type$[ebp], 1116
  0084a	b9 04 00 00 00	 mov	 ecx, 4
  0084f	69 d1 b8 00 00
	00		 imul	 edx, ecx, 184
  00855	c7 84 10 00 00
	00 00 00 00 00
	00		 mov	 DWORD PTR ?fn_set_local_entity_raw_int_value@@3PAY0BBH@P6GXPAUENTITY@@W4INT_TYPES@@H@ZA[eax+edx], OFFSET ?set_local_raw_int_value@@YGXPAUENTITY@@W4INT_TYPES@@H@Z ; set_local_raw_int_value

; 1224 : 	fn_set_local_entity_int_value				[type][INT_TYPE_SELECTED_WEAPON]									= set_local_int_value;

  00860	69 45 08 5c 04
	00 00		 imul	 eax, DWORD PTR _type$[ebp], 1116
  00867	b9 04 00 00 00	 mov	 ecx, 4
  0086c	69 d1 b8 00 00
	00		 imul	 edx, ecx, 184
  00872	c7 84 10 00 00
	00 00 00 00 00
	00		 mov	 DWORD PTR ?fn_set_local_entity_int_value@@3PAY0BBH@P6GXPAUENTITY@@W4INT_TYPES@@H@ZA[eax+edx], OFFSET ?set_local_int_value@@YGXPAUENTITY@@W4INT_TYPES@@H@Z ; set_local_int_value

; 1225 : 	fn_set_client_server_entity_int_value	[type][INT_TYPE_SELECTED_WEAPON][COMMS_MODEL_SERVER]		= set_server_int_value;

  0087d	69 45 08 b8 08
	00 00		 imul	 eax, DWORD PTR _type$[ebp], 2232
  00884	b9 08 00 00 00	 mov	 ecx, 8
  00889	69 d1 b8 00 00
	00		 imul	 edx, ecx, 184
  0088f	8d 84 10 00 00
	00 00		 lea	 eax, DWORD PTR ?fn_set_client_server_entity_int_value@@3PAY1BBH@1P6GXPAUENTITY@@W4INT_TYPES@@H@ZA[eax+edx]
  00896	b9 04 00 00 00	 mov	 ecx, 4
  0089b	6b d1 00	 imul	 edx, ecx, 0
  0089e	c7 04 10 00 00
	00 00		 mov	 DWORD PTR [eax+edx], OFFSET ?set_server_int_value@@YGXPAUENTITY@@W4INT_TYPES@@H@Z ; set_server_int_value

; 1226 : 	fn_set_client_server_entity_int_value	[type][INT_TYPE_SELECTED_WEAPON][COMMS_MODEL_CLIENT]		= set_client_int_value;

  008a5	69 45 08 b8 08
	00 00		 imul	 eax, DWORD PTR _type$[ebp], 2232
  008ac	b9 08 00 00 00	 mov	 ecx, 8
  008b1	69 d1 b8 00 00
	00		 imul	 edx, ecx, 184
  008b7	8d 84 10 00 00
	00 00		 lea	 eax, DWORD PTR ?fn_set_client_server_entity_int_value@@3PAY1BBH@1P6GXPAUENTITY@@W4INT_TYPES@@H@ZA[eax+edx]
  008be	b9 04 00 00 00	 mov	 ecx, 4
  008c3	c1 e1 00	 shl	 ecx, 0
  008c6	c7 04 08 00 00
	00 00		 mov	 DWORD PTR [eax+ecx], OFFSET ?set_client_int_value@@YGXPAUENTITY@@W4INT_TYPES@@H@Z ; set_client_int_value

; 1227 : 	fn_get_local_entity_int_value				[type][INT_TYPE_SELECTED_WEAPON]									= get_local_int_value;

  008cd	69 45 08 5c 04
	00 00		 imul	 eax, DWORD PTR _type$[ebp], 1116
  008d4	b9 04 00 00 00	 mov	 ecx, 4
  008d9	69 d1 b8 00 00
	00		 imul	 edx, ecx, 184
  008df	c7 84 10 00 00
	00 00 00 00 00
	00		 mov	 DWORD PTR ?fn_get_local_entity_int_value@@3PAY0BBH@P6GHPAUENTITY@@W4INT_TYPES@@@ZA[eax+edx], OFFSET ?get_local_int_value@@YGHPAUENTITY@@W4INT_TYPES@@@Z ; get_local_int_value

; 1228 : 
; 1229 : 	fn_set_local_entity_raw_int_value		[type][INT_TYPE_SELECTED_WEAPON_SYSTEM_READY]  				= set_local_int_value;

  008ea	69 45 08 5c 04
	00 00		 imul	 eax, DWORD PTR _type$[ebp], 1116
  008f1	b9 04 00 00 00	 mov	 ecx, 4
  008f6	69 d1 b9 00 00
	00		 imul	 edx, ecx, 185
  008fc	c7 84 10 00 00
	00 00 00 00 00
	00		 mov	 DWORD PTR ?fn_set_local_entity_raw_int_value@@3PAY0BBH@P6GXPAUENTITY@@W4INT_TYPES@@H@ZA[eax+edx], OFFSET ?set_local_int_value@@YGXPAUENTITY@@W4INT_TYPES@@H@Z ; set_local_int_value

; 1230 : 	fn_set_local_entity_int_value				[type][INT_TYPE_SELECTED_WEAPON_SYSTEM_READY]				= set_local_int_value;

  00907	69 45 08 5c 04
	00 00		 imul	 eax, DWORD PTR _type$[ebp], 1116
  0090e	b9 04 00 00 00	 mov	 ecx, 4
  00913	69 d1 b9 00 00
	00		 imul	 edx, ecx, 185
  00919	c7 84 10 00 00
	00 00 00 00 00
	00		 mov	 DWORD PTR ?fn_set_local_entity_int_value@@3PAY0BBH@P6GXPAUENTITY@@W4INT_TYPES@@H@ZA[eax+edx], OFFSET ?set_local_int_value@@YGXPAUENTITY@@W4INT_TYPES@@H@Z ; set_local_int_value

; 1231 : 	fn_get_local_entity_int_value				[type][INT_TYPE_SELECTED_WEAPON_SYSTEM_READY]				= get_local_int_value;

  00924	69 45 08 5c 04
	00 00		 imul	 eax, DWORD PTR _type$[ebp], 1116
  0092b	b9 04 00 00 00	 mov	 ecx, 4
  00930	69 d1 b9 00 00
	00		 imul	 edx, ecx, 185
  00936	c7 84 10 00 00
	00 00 00 00 00
	00		 mov	 DWORD PTR ?fn_get_local_entity_int_value@@3PAY0BBH@P6GHPAUENTITY@@W4INT_TYPES@@@ZA[eax+edx], OFFSET ?get_local_int_value@@YGHPAUENTITY@@W4INT_TYPES@@@Z ; get_local_int_value

; 1232 : 
; 1233 : 	fn_get_local_entity_int_value				[type][INT_TYPE_TARGET_PRIORITY_TYPE]							= get_local_int_value;

  00941	69 45 08 5c 04
	00 00		 imul	 eax, DWORD PTR _type$[ebp], 1116
  00948	b9 04 00 00 00	 mov	 ecx, 4
  0094d	69 d1 d4 00 00
	00		 imul	 edx, ecx, 212
  00953	c7 84 10 00 00
	00 00 00 00 00
	00		 mov	 DWORD PTR ?fn_get_local_entity_int_value@@3PAY0BBH@P6GHPAUENTITY@@W4INT_TYPES@@@ZA[eax+edx], OFFSET ?get_local_int_value@@YGHPAUENTITY@@W4INT_TYPES@@@Z ; get_local_int_value

; 1234 : 
; 1235 : 	fn_get_local_entity_int_value				[type][INT_TYPE_TARGET_SYMBOL_TYPE]								= get_local_int_value;

  0095e	69 45 08 5c 04
	00 00		 imul	 eax, DWORD PTR _type$[ebp], 1116
  00965	b9 04 00 00 00	 mov	 ecx, 4
  0096a	69 d1 d5 00 00
	00		 imul	 edx, ecx, 213
  00970	c7 84 10 00 00
	00 00 00 00 00
	00		 mov	 DWORD PTR ?fn_get_local_entity_int_value@@3PAY0BBH@P6GHPAUENTITY@@W4INT_TYPES@@@ZA[eax+edx], OFFSET ?get_local_int_value@@YGHPAUENTITY@@W4INT_TYPES@@@Z ; get_local_int_value

; 1236 : 
; 1237 : 	fn_get_local_entity_int_value				[type][INT_TYPE_TARGET_TYPE]										= get_local_int_value;

  0097b	69 45 08 5c 04
	00 00		 imul	 eax, DWORD PTR _type$[ebp], 1116
  00982	b9 04 00 00 00	 mov	 ecx, 4
  00987	69 d1 d6 00 00
	00		 imul	 edx, ecx, 214
  0098d	c7 84 10 00 00
	00 00 00 00 00
	00		 mov	 DWORD PTR ?fn_get_local_entity_int_value@@3PAY0BBH@P6GHPAUENTITY@@W4INT_TYPES@@@ZA[eax+edx], OFFSET ?get_local_int_value@@YGHPAUENTITY@@W4INT_TYPES@@@Z ; get_local_int_value

; 1238 : 
; 1239 : 	fn_get_local_entity_int_value				[type][INT_TYPE_TASK_LEADER]										= get_local_int_value;

  00998	69 45 08 5c 04
	00 00		 imul	 eax, DWORD PTR _type$[ebp], 1116
  0099f	b9 04 00 00 00	 mov	 ecx, 4
  009a4	69 d1 dd 00 00
	00		 imul	 edx, ecx, 221
  009aa	c7 84 10 00 00
	00 00 00 00 00
	00		 mov	 DWORD PTR ?fn_get_local_entity_int_value@@3PAY0BBH@P6GHPAUENTITY@@W4INT_TYPES@@@ZA[eax+edx], OFFSET ?get_local_int_value@@YGHPAUENTITY@@W4INT_TYPES@@@Z ; get_local_int_value

; 1240 : 
; 1241 : 	fn_get_local_entity_int_value				[type][INT_TYPE_TASK_TARGET_TYPE]								= get_local_int_value;

  009b5	69 45 08 5c 04
	00 00		 imul	 eax, DWORD PTR _type$[ebp], 1116
  009bc	b9 04 00 00 00	 mov	 ecx, 4
  009c1	69 d1 e6 00 00
	00		 imul	 edx, ecx, 230
  009c7	c7 84 10 00 00
	00 00 00 00 00
	00		 mov	 DWORD PTR ?fn_get_local_entity_int_value@@3PAY0BBH@P6GHPAUENTITY@@W4INT_TYPES@@@ZA[eax+edx], OFFSET ?get_local_int_value@@YGHPAUENTITY@@W4INT_TYPES@@@Z ; get_local_int_value

; 1242 : 
; 1243 : 	fn_get_local_entity_int_value				[type][INT_TYPE_THREAT_TYPE]										= get_local_int_value;

  009d2	69 45 08 5c 04
	00 00		 imul	 eax, DWORD PTR _type$[ebp], 1116
  009d9	b9 04 00 00 00	 mov	 ecx, 4
  009de	69 d1 e9 00 00
	00		 imul	 edx, ecx, 233
  009e4	c7 84 10 00 00
	00 00 00 00 00
	00		 mov	 DWORD PTR ?fn_get_local_entity_int_value@@3PAY0BBH@P6GHPAUENTITY@@W4INT_TYPES@@@ZA[eax+edx], OFFSET ?get_local_int_value@@YGHPAUENTITY@@W4INT_TYPES@@@Z ; get_local_int_value

; 1244 : 
; 1245 : 	fn_get_local_entity_int_value				[type][INT_TYPE_TRACK_ENTITY_ON_MAP]							= get_local_int_value;

  009ef	69 45 08 5c 04
	00 00		 imul	 eax, DWORD PTR _type$[ebp], 1116
  009f6	b9 04 00 00 00	 mov	 ecx, 4
  009fb	69 d1 ec 00 00
	00		 imul	 edx, ecx, 236
  00a01	c7 84 10 00 00
	00 00 00 00 00
	00		 mov	 DWORD PTR ?fn_get_local_entity_int_value@@3PAY0BBH@P6GHPAUENTITY@@W4INT_TYPES@@@ZA[eax+edx], OFFSET ?get_local_int_value@@YGHPAUENTITY@@W4INT_TYPES@@@Z ; get_local_int_value

; 1246 : 
; 1247 : 	fn_get_local_entity_int_value				[type][INT_TYPE_VIEW_CATEGORY]									= get_local_int_value;

  00a0c	69 45 08 5c 04
	00 00		 imul	 eax, DWORD PTR _type$[ebp], 1116
  00a13	b9 04 00 00 00	 mov	 ecx, 4
  00a18	69 d1 f6 00 00
	00		 imul	 edx, ecx, 246
  00a1e	c7 84 10 00 00
	00 00 00 00 00
	00		 mov	 DWORD PTR ?fn_get_local_entity_int_value@@3PAY0BBH@P6GHPAUENTITY@@W4INT_TYPES@@@ZA[eax+edx], OFFSET ?get_local_int_value@@YGHPAUENTITY@@W4INT_TYPES@@@Z ; get_local_int_value

; 1248 : 
; 1249 : 	fn_get_local_entity_int_value				[type][INT_TYPE_VIEW_TYPE]											= get_local_int_value;

  00a29	69 45 08 5c 04
	00 00		 imul	 eax, DWORD PTR _type$[ebp], 1116
  00a30	b9 04 00 00 00	 mov	 ecx, 4
  00a35	69 d1 f7 00 00
	00		 imul	 edx, ecx, 247
  00a3b	c7 84 10 00 00
	00 00 00 00 00
	00		 mov	 DWORD PTR ?fn_get_local_entity_int_value@@3PAY0BBH@P6GHPAUENTITY@@W4INT_TYPES@@@ZA[eax+edx], OFFSET ?get_local_int_value@@YGHPAUENTITY@@W4INT_TYPES@@@Z ; get_local_int_value

; 1250 : 
; 1251 : 	fn_get_local_entity_int_value				[type][INT_TYPE_VIEWABLE]											= get_local_int_value;

  00a46	69 45 08 5c 04
	00 00		 imul	 eax, DWORD PTR _type$[ebp], 1116
  00a4d	b9 04 00 00 00	 mov	 ecx, 4
  00a52	69 d1 f8 00 00
	00		 imul	 edx, ecx, 248
  00a58	c7 84 10 00 00
	00 00 00 00 00
	00		 mov	 DWORD PTR ?fn_get_local_entity_int_value@@3PAY0BBH@P6GHPAUENTITY@@W4INT_TYPES@@@ZA[eax+edx], OFFSET ?get_local_int_value@@YGHPAUENTITY@@W4INT_TYPES@@@Z ; get_local_int_value

; 1252 : 
; 1253 : 	fn_set_local_entity_raw_int_value		[type][INT_TYPE_WEAPON_AND_TARGET_VECTORS_VALID]  			= set_local_int_value;

  00a63	69 45 08 5c 04
	00 00		 imul	 eax, DWORD PTR _type$[ebp], 1116
  00a6a	b9 04 00 00 00	 mov	 ecx, 4
  00a6f	69 d1 02 01 00
	00		 imul	 edx, ecx, 258
  00a75	c7 84 10 00 00
	00 00 00 00 00
	00		 mov	 DWORD PTR ?fn_set_local_entity_raw_int_value@@3PAY0BBH@P6GXPAUENTITY@@W4INT_TYPES@@H@ZA[eax+edx], OFFSET ?set_local_int_value@@YGXPAUENTITY@@W4INT_TYPES@@H@Z ; set_local_int_value

; 1254 : 	fn_set_local_entity_int_value				[type][INT_TYPE_WEAPON_AND_TARGET_VECTORS_VALID]			= set_local_int_value;

  00a80	69 45 08 5c 04
	00 00		 imul	 eax, DWORD PTR _type$[ebp], 1116
  00a87	b9 04 00 00 00	 mov	 ecx, 4
  00a8c	69 d1 02 01 00
	00		 imul	 edx, ecx, 258
  00a92	c7 84 10 00 00
	00 00 00 00 00
	00		 mov	 DWORD PTR ?fn_set_local_entity_int_value@@3PAY0BBH@P6GXPAUENTITY@@W4INT_TYPES@@H@ZA[eax+edx], OFFSET ?set_local_int_value@@YGXPAUENTITY@@W4INT_TYPES@@H@Z ; set_local_int_value

; 1255 : 	fn_get_local_entity_int_value				[type][INT_TYPE_WEAPON_AND_TARGET_VECTORS_VALID]			= get_local_int_value;

  00a9d	69 45 08 5c 04
	00 00		 imul	 eax, DWORD PTR _type$[ebp], 1116
  00aa4	b9 04 00 00 00	 mov	 ecx, 4
  00aa9	69 d1 02 01 00
	00		 imul	 edx, ecx, 258
  00aaf	c7 84 10 00 00
	00 00 00 00 00
	00		 mov	 DWORD PTR ?fn_get_local_entity_int_value@@3PAY0BBH@P6GHPAUENTITY@@W4INT_TYPES@@@ZA[eax+edx], OFFSET ?get_local_int_value@@YGHPAUENTITY@@W4INT_TYPES@@@Z ; get_local_int_value

; 1256 : 
; 1257 : 	fn_set_local_entity_raw_int_value		[type][INT_TYPE_WEAPON_CONFIG_TYPE]								= set_local_raw_int_value;

  00aba	69 45 08 5c 04
	00 00		 imul	 eax, DWORD PTR _type$[ebp], 1116
  00ac1	b9 04 00 00 00	 mov	 ecx, 4
  00ac6	69 d1 05 01 00
	00		 imul	 edx, ecx, 261
  00acc	c7 84 10 00 00
	00 00 00 00 00
	00		 mov	 DWORD PTR ?fn_set_local_entity_raw_int_value@@3PAY0BBH@P6GXPAUENTITY@@W4INT_TYPES@@H@ZA[eax+edx], OFFSET ?set_local_raw_int_value@@YGXPAUENTITY@@W4INT_TYPES@@H@Z ; set_local_raw_int_value

; 1258 : 	fn_set_local_entity_int_value				[type][INT_TYPE_WEAPON_CONFIG_TYPE]								= set_local_int_value;

  00ad7	69 45 08 5c 04
	00 00		 imul	 eax, DWORD PTR _type$[ebp], 1116
  00ade	b9 04 00 00 00	 mov	 ecx, 4
  00ae3	69 d1 05 01 00
	00		 imul	 edx, ecx, 261
  00ae9	c7 84 10 00 00
	00 00 00 00 00
	00		 mov	 DWORD PTR ?fn_set_local_entity_int_value@@3PAY0BBH@P6GXPAUENTITY@@W4INT_TYPES@@H@ZA[eax+edx], OFFSET ?set_local_int_value@@YGXPAUENTITY@@W4INT_TYPES@@H@Z ; set_local_int_value

; 1259 : 	fn_set_client_server_entity_int_value	[type][INT_TYPE_WEAPON_CONFIG_TYPE][COMMS_MODEL_SERVER]	= set_server_int_value;

  00af4	69 45 08 b8 08
	00 00		 imul	 eax, DWORD PTR _type$[ebp], 2232
  00afb	b9 08 00 00 00	 mov	 ecx, 8
  00b00	69 d1 05 01 00
	00		 imul	 edx, ecx, 261
  00b06	8d 84 10 00 00
	00 00		 lea	 eax, DWORD PTR ?fn_set_client_server_entity_int_value@@3PAY1BBH@1P6GXPAUENTITY@@W4INT_TYPES@@H@ZA[eax+edx]
  00b0d	b9 04 00 00 00	 mov	 ecx, 4
  00b12	6b d1 00	 imul	 edx, ecx, 0
  00b15	c7 04 10 00 00
	00 00		 mov	 DWORD PTR [eax+edx], OFFSET ?set_server_int_value@@YGXPAUENTITY@@W4INT_TYPES@@H@Z ; set_server_int_value

; 1260 : 	fn_set_client_server_entity_int_value	[type][INT_TYPE_WEAPON_CONFIG_TYPE][COMMS_MODEL_CLIENT]	= set_client_int_value;

  00b1c	69 45 08 b8 08
	00 00		 imul	 eax, DWORD PTR _type$[ebp], 2232
  00b23	b9 08 00 00 00	 mov	 ecx, 8
  00b28	69 d1 05 01 00
	00		 imul	 edx, ecx, 261
  00b2e	8d 84 10 00 00
	00 00		 lea	 eax, DWORD PTR ?fn_set_client_server_entity_int_value@@3PAY1BBH@1P6GXPAUENTITY@@W4INT_TYPES@@H@ZA[eax+edx]
  00b35	b9 04 00 00 00	 mov	 ecx, 4
  00b3a	c1 e1 00	 shl	 ecx, 0
  00b3d	c7 04 08 00 00
	00 00		 mov	 DWORD PTR [eax+ecx], OFFSET ?set_client_int_value@@YGXPAUENTITY@@W4INT_TYPES@@H@Z ; set_client_int_value

; 1261 : 	fn_get_local_entity_int_value				[type][INT_TYPE_WEAPON_CONFIG_TYPE]								= get_local_int_value;

  00b44	69 45 08 5c 04
	00 00		 imul	 eax, DWORD PTR _type$[ebp], 1116
  00b4b	b9 04 00 00 00	 mov	 ecx, 4
  00b50	69 d1 05 01 00
	00		 imul	 edx, ecx, 261
  00b56	c7 84 10 00 00
	00 00 00 00 00
	00		 mov	 DWORD PTR ?fn_get_local_entity_int_value@@3PAY0BBH@P6GHPAUENTITY@@W4INT_TYPES@@@ZA[eax+edx], OFFSET ?get_local_int_value@@YGHPAUENTITY@@W4INT_TYPES@@@Z ; get_local_int_value

; 1262 : 
; 1263 : 	fn_get_local_entity_int_value				[type][INT_TYPE_WEAPON_SYSTEM_READY]							= get_local_int_value;

  00b61	69 45 08 5c 04
	00 00		 imul	 eax, DWORD PTR _type$[ebp], 1116
  00b68	b9 04 00 00 00	 mov	 ecx, 4
  00b6d	69 d1 0f 01 00
	00		 imul	 edx, ecx, 271
  00b73	c7 84 10 00 00
	00 00 00 00 00
	00		 mov	 DWORD PTR ?fn_get_local_entity_int_value@@3PAY0BBH@P6GHPAUENTITY@@W4INT_TYPES@@@ZA[eax+edx], OFFSET ?get_local_int_value@@YGHPAUENTITY@@W4INT_TYPES@@@Z ; get_local_int_value

; 1264 : }

  00b7e	5f		 pop	 edi
  00b7f	5e		 pop	 esi
  00b80	5b		 pop	 ebx
  00b81	8b e5		 mov	 esp, ebp
  00b83	5d		 pop	 ebp
  00b84	c2 04 00	 ret	 4
?overload_aircraft_int_value_functions@@YGXW4ENTITY_TYPES@@@Z ENDP ; overload_aircraft_int_value_functions
_TEXT	ENDS
END
