; Listing generated by Microsoft (R) Optimizing Compiler Version 19.16.27045.0 

	TITLE	C:\Users\nhv90\Projects\eech\aphavoc\source\entity\mobile\aircraft\ac_ptr.c
	.686P
	.XMM
	include listing.inc
	.model	flat

INCLUDELIB MSVCRTD
INCLUDELIB OLDNAMES

PUBLIC	?overload_aircraft_ptr_value_functions@@YGXW4ENTITY_TYPES@@@Z ; overload_aircraft_ptr_value_functions
PUBLIC	?__LINE__Var@?0??set_local_ptr_value@@YGXPAUENTITY@@W4PTR_TYPES@@PAX@Z@4JA ; `set_local_ptr_value'::`1'::__LINE__Var
PUBLIC	??_C@_0EM@BNJLDHKK@c?3?2users?2nhv90?2projects?2eech?2ap@ ; `string'
PUBLIC	?__LINE__Var@?0??get_local_ptr_value@@YGPAXPAUENTITY@@W4PTR_TYPES@@@Z@4JA ; `get_local_ptr_value'::`1'::__LINE__Var
EXTRN	?process_assert@@YGXPBD0H@Z:PROC		; process_assert
EXTRN	?debug_fatal@@YAXPBDZZ:PROC			; debug_fatal
EXTRN	?get_3d_terrain_point_data_normal@@YGPAUVEC3D@@PAUTERRAIN_3D_POINT_DATA@@@Z:PROC ; get_3d_terrain_point_data_normal
EXTRN	?null_entity_pointer_message@@3PBDB:DWORD	; null_entity_pointer_message
EXTRN	?entity_type_database@@3PAUENTITY_TYPE_DATA@@A:BYTE ; entity_type_database
EXTRN	?ptr_type_database@@3PAUPTR_TYPE_DATA@@A:BYTE	; ptr_type_database
EXTRN	?debug_fatal_invalid_ptr_type_message@@3PBDB:DWORD ; debug_fatal_invalid_ptr_type_message
EXTRN	?fn_set_local_entity_ptr_value@@3PAY0BE@P6GXPAUENTITY@@W4PTR_TYPES@@PAX@ZA:BYTE ; fn_set_local_entity_ptr_value
EXTRN	?fn_get_local_entity_ptr_value@@3PAY0BE@P6GPAXPAUENTITY@@W4PTR_TYPES@@@ZA:BYTE ; fn_get_local_entity_ptr_value
EXTRN	?entities@@3PAUENTITY@@A:DWORD			; entities
;	COMDAT ?__LINE__Var@?0??get_local_ptr_value@@YGPAXPAUENTITY@@W4PTR_TYPES@@@Z@4JA
_DATA	SEGMENT
?__LINE__Var@?0??get_local_ptr_value@@YGPAXPAUENTITY@@W4PTR_TYPES@@@Z@4JA DD 077H ; `get_local_ptr_value'::`1'::__LINE__Var
_DATA	ENDS
;	COMDAT ??_C@_0EM@BNJLDHKK@c?3?2users?2nhv90?2projects?2eech?2ap@
CONST	SEGMENT
??_C@_0EM@BNJLDHKK@c?3?2users?2nhv90?2projects?2eech?2ap@ DB 'c:\users\nh'
	DB	'v90\projects\eech\aphavoc\source\entity\mobile\aircraft\ac_pt'
	DB	'r.c', 00H					; `string'
CONST	ENDS
;	COMDAT ?__LINE__Var@?0??set_local_ptr_value@@YGXPAUENTITY@@W4PTR_TYPES@@PAX@Z@4JA
_DATA	SEGMENT
?__LINE__Var@?0??set_local_ptr_value@@YGXPAUENTITY@@W4PTR_TYPES@@PAX@Z@4JA DD 050H ; `set_local_ptr_value'::`1'::__LINE__Var
_DATA	ENDS
; Function compile flags: /Odtp /ZI
; File c:\users\nhv90\projects\eech\aphavoc\source\entity\mobile\aircraft\ac_ptr.c
;	COMDAT ?get_local_ptr_value@@YGPAXPAUENTITY@@W4PTR_TYPES@@@Z
_TEXT	SEGMENT
tv89 = -76						; size = 4
tv65 = -76						; size = 4
_ptr$ = -8						; size = 4
_raw$ = -4						; size = 4
_en$ = 8						; size = 4
_type$ = 12						; size = 4
?get_local_ptr_value@@YGPAXPAUENTITY@@W4PTR_TYPES@@@Z PROC ; get_local_ptr_value, COMDAT

; 119  : {

  00000	55		 push	 ebp
  00001	8b ec		 mov	 ebp, esp
  00003	83 ec 4c	 sub	 esp, 76			; 0000004cH
  00006	53		 push	 ebx
  00007	56		 push	 esi
  00008	57		 push	 edi

; 120  : 	aircraft
; 121  : 		*raw;
; 122  : 
; 123  : 	void
; 124  : 		*ptr;
; 125  : 
; 126  : 	raw = (aircraft *) get_local_entity_data (en);

  00009	8b 45 08	 mov	 eax, DWORD PTR _en$[ebp]
  0000c	8b 48 04	 mov	 ecx, DWORD PTR [eax+4]
  0000f	89 4d fc	 mov	 DWORD PTR _raw$[ebp], ecx

; 127  : 
; 128  : 	switch (type)

  00012	8b 45 0c	 mov	 eax, DWORD PTR _type$[ebp]
  00015	89 45 b4	 mov	 DWORD PTR tv65[ebp], eax
  00018	8b 4d b4	 mov	 ecx, DWORD PTR tv65[ebp]
  0001b	83 e9 02	 sub	 ecx, 2
  0001e	89 4d b4	 mov	 DWORD PTR tv65[ebp], ecx
  00021	83 7d b4 11	 cmp	 DWORD PTR tv65[ebp], 17	; 00000011H
  00025	77 67		 ja	 SHORT $LN9@get_local_
  00027	8b 55 b4	 mov	 edx, DWORD PTR tv65[ebp]
  0002a	0f b6 82 00 00
	00 00		 movzx	 eax, BYTE PTR $LN13@get_local_[edx]
  00031	ff 24 85 00 00
	00 00		 jmp	 DWORD PTR $LN14@get_local_[eax*4]
$LN4@get_local_:

; 129  : 	{
; 130  : 		////////////////////////////////////////
; 131  : 		case PTR_TYPE_INSTANCE_3D_OBJECT:
; 132  : 		////////////////////////////////////////
; 133  : 		{
; 134  : 			ptr = raw->inst3d;

  00038	8b 45 fc	 mov	 eax, DWORD PTR _raw$[ebp]
  0003b	8b 88 84 00 00
	00		 mov	 ecx, DWORD PTR [eax+132]
  00041	89 4d f8	 mov	 DWORD PTR _ptr$[ebp], ecx

; 135  : 
; 136  : 			break;

  00044	e9 b7 00 00 00	 jmp	 $LN2@get_local_
$LN5@get_local_:

; 137  : 		}
; 138  : 		////////////////////////////////////////
; 139  : 		case PTR_TYPE_SOUND_EFFECT_DATA:
; 140  : 		////////////////////////////////////////
; 141  : 		{
; 142  : 			ptr = raw->sound_effect_data;

  00049	8b 45 fc	 mov	 eax, DWORD PTR _raw$[ebp]
  0004c	8b 88 28 01 00
	00		 mov	 ecx, DWORD PTR [eax+296]
  00052	89 4d f8	 mov	 DWORD PTR _ptr$[ebp], ecx

; 143  : 
; 144  : 			break;

  00055	e9 a6 00 00 00	 jmp	 $LN2@get_local_
$LN6@get_local_:

; 145  : 		}
; 146  : 		////////////////////////////////////////
; 147  : 		case PTR_TYPE_TERRAIN_FACE_NORMAL:
; 148  : 		////////////////////////////////////////
; 149  : 		{
; 150  : 			ptr = get_3d_terrain_point_data_normal (&raw->terrain_info);

  0005a	8b 45 fc	 mov	 eax, DWORD PTR _raw$[ebp]
  0005d	05 54 01 00 00	 add	 eax, 340		; 00000154H
  00062	50		 push	 eax
  00063	e8 00 00 00 00	 call	 ?get_3d_terrain_point_data_normal@@YGPAUVEC3D@@PAUTERRAIN_3D_POINT_DATA@@@Z ; get_3d_terrain_point_data_normal
  00068	89 45 f8	 mov	 DWORD PTR _ptr$[ebp], eax

; 151  : 
; 152  : 			break;

  0006b	e9 90 00 00 00	 jmp	 $LN2@get_local_
$LN7@get_local_:

; 153  : 		}
; 154  : 		////////////////////////////////////////
; 155  : 		case PTR_TYPE_TERRAIN_INFO:
; 156  : 		////////////////////////////////////////
; 157  : 		{
; 158  : 			ptr = &raw->terrain_info;

  00070	8b 45 fc	 mov	 eax, DWORD PTR _raw$[ebp]
  00073	05 54 01 00 00	 add	 eax, 340		; 00000154H
  00078	89 45 f8	 mov	 DWORD PTR _ptr$[ebp], eax

; 159  : 
; 160  : 			break;

  0007b	e9 80 00 00 00	 jmp	 $LN2@get_local_
$LN8@get_local_:

; 161  : 		}
; 162  : 		////////////////////////////////////////
; 163  : 		case PTR_TYPE_WEAPON_PACKAGE_STATUS_ARRAY:
; 164  : 		////////////////////////////////////////
; 165  : 		{
; 166  : 			ptr = raw->weapon_package_status_array;

  00080	8b 45 fc	 mov	 eax, DWORD PTR _raw$[ebp]
  00083	8b 88 20 01 00
	00		 mov	 ecx, DWORD PTR [eax+288]
  00089	89 4d f8	 mov	 DWORD PTR _ptr$[ebp], ecx

; 167  : 
; 168  : 			break;

  0008c	eb 72		 jmp	 SHORT $LN2@get_local_
$LN9@get_local_:

; 169  : 		}
; 170  : 		////////////////////////////////////////
; 171  : 		default:
; 172  : 		////////////////////////////////////////
; 173  : 		{
; 174  : 			debug_fatal_invalid_ptr_type (en, type);

  0008e	83 7d 08 00	 cmp	 DWORD PTR _en$[ebp], 0
  00092	74 0a		 je	 SHORT $LN11@get_local_
  00094	8b 45 08	 mov	 eax, DWORD PTR _en$[ebp]
  00097	8b 08		 mov	 ecx, DWORD PTR [eax]
  00099	89 4d b4	 mov	 DWORD PTR tv89[ebp], ecx
  0009c	eb 21		 jmp	 SHORT $LN12@get_local_
$LN11@get_local_:
  0009e	8b 15 00 00 00
	00		 mov	 edx, DWORD PTR ?__LINE__Var@?0??get_local_ptr_value@@YGPAXPAUENTITY@@W4PTR_TYPES@@@Z@4JA
  000a4	83 c2 37	 add	 edx, 55			; 00000037H
  000a7	52		 push	 edx
  000a8	68 00 00 00 00	 push	 OFFSET ??_C@_0EM@BNJLDHKK@c?3?2users?2nhv90?2projects?2eech?2ap@
  000ad	a1 00 00 00 00	 mov	 eax, DWORD PTR ?null_entity_pointer_message@@3PBDB ; null_entity_pointer_message
  000b2	50		 push	 eax
  000b3	e8 00 00 00 00	 call	 ?process_assert@@YGXPBD0H@Z ; process_assert
  000b8	c7 45 b4 00 00
	00 00		 mov	 DWORD PTR tv89[ebp], 0
$LN12@get_local_:
  000bf	8b 0d 00 00 00
	00		 mov	 ecx, DWORD PTR ?__LINE__Var@?0??get_local_ptr_value@@YGPAXPAUENTITY@@W4PTR_TYPES@@@Z@4JA
  000c5	83 c1 37	 add	 ecx, 55			; 00000037H
  000c8	51		 push	 ecx
  000c9	68 00 00 00 00	 push	 OFFSET ??_C@_0EM@BNJLDHKK@c?3?2users?2nhv90?2projects?2eech?2ap@
  000ce	8b 55 0c	 mov	 edx, DWORD PTR _type$[ebp]
  000d1	8b 04 95 00 00
	00 00		 mov	 eax, DWORD PTR ?ptr_type_database@@3PAUPTR_TYPE_DATA@@A[edx*4]
  000d8	50		 push	 eax
  000d9	8b 4d 08	 mov	 ecx, DWORD PTR _en$[ebp]
  000dc	2b 0d 00 00 00
	00		 sub	 ecx, DWORD PTR ?entities@@3PAUENTITY@@A ; entities
  000e2	c1 f9 04	 sar	 ecx, 4
  000e5	51		 push	 ecx
  000e6	6b 55 b4 0c	 imul	 edx, DWORD PTR tv89[ebp], 12
  000ea	8b 82 00 00 00
	00		 mov	 eax, DWORD PTR ?entity_type_database@@3PAUENTITY_TYPE_DATA@@A[edx]
  000f0	50		 push	 eax
  000f1	8b 0d 00 00 00
	00		 mov	 ecx, DWORD PTR ?debug_fatal_invalid_ptr_type_message@@3PBDB ; debug_fatal_invalid_ptr_type_message
  000f7	51		 push	 ecx
  000f8	e8 00 00 00 00	 call	 ?debug_fatal@@YAXPBDZZ	; debug_fatal
  000fd	83 c4 18	 add	 esp, 24			; 00000018H
$LN2@get_local_:

; 175  : 
; 176  : 			break;
; 177  : 		}
; 178  : 	}
; 179  : 
; 180  : 	return (ptr);

  00100	8b 45 f8	 mov	 eax, DWORD PTR _ptr$[ebp]

; 181  : }

  00103	5f		 pop	 edi
  00104	5e		 pop	 esi
  00105	5b		 pop	 ebx
  00106	8b e5		 mov	 esp, ebp
  00108	5d		 pop	 ebp
  00109	c2 08 00	 ret	 8
$LN14@get_local_:
  0010c	00 00 00 00	 DD	 $LN4@get_local_
  00110	00 00 00 00	 DD	 $LN5@get_local_
  00114	00 00 00 00	 DD	 $LN6@get_local_
  00118	00 00 00 00	 DD	 $LN7@get_local_
  0011c	00 00 00 00	 DD	 $LN8@get_local_
  00120	00 00 00 00	 DD	 $LN9@get_local_
$LN13@get_local_:
  00124	00		 DB	 0
  00125	05		 DB	 5
  00126	05		 DB	 5
  00127	05		 DB	 5
  00128	05		 DB	 5
  00129	05		 DB	 5
  0012a	05		 DB	 5
  0012b	05		 DB	 5
  0012c	05		 DB	 5
  0012d	05		 DB	 5
  0012e	05		 DB	 5
  0012f	05		 DB	 5
  00130	01		 DB	 1
  00131	05		 DB	 5
  00132	05		 DB	 5
  00133	02		 DB	 2
  00134	03		 DB	 3
  00135	04		 DB	 4
?get_local_ptr_value@@YGPAXPAUENTITY@@W4PTR_TYPES@@@Z ENDP ; get_local_ptr_value
_TEXT	ENDS
; Function compile flags: /Odtp /ZI
; File c:\users\nhv90\projects\eech\aphavoc\source\entity\mobile\aircraft\ac_ptr.c
;	COMDAT ?set_local_ptr_value@@YGXPAUENTITY@@W4PTR_TYPES@@PAX@Z
_TEXT	SEGMENT
tv83 = -72						; size = 4
tv65 = -72						; size = 4
_raw$ = -4						; size = 4
_en$ = 8						; size = 4
_type$ = 12						; size = 4
_ptr$ = 16						; size = 4
?set_local_ptr_value@@YGXPAUENTITY@@W4PTR_TYPES@@PAX@Z PROC ; set_local_ptr_value, COMDAT

; 80   : {

  00000	55		 push	 ebp
  00001	8b ec		 mov	 ebp, esp
  00003	83 ec 48	 sub	 esp, 72			; 00000048H
  00006	53		 push	 ebx
  00007	56		 push	 esi
  00008	57		 push	 edi

; 81   : 	aircraft
; 82   : 		*raw;
; 83   : 
; 84   : 	#if DEBUG_MODULE
; 85   : 
; 86   : 	debug_log_entity_args (ENTITY_DEBUG_LOCAL, ENTITY_DEBUG_PTR_VALUE, en, type, ptr);
; 87   : 
; 88   : 	#endif
; 89   : 
; 90   : 	raw = (aircraft *) get_local_entity_data (en);

  00009	8b 45 08	 mov	 eax, DWORD PTR _en$[ebp]
  0000c	8b 48 04	 mov	 ecx, DWORD PTR [eax+4]
  0000f	89 4d fc	 mov	 DWORD PTR _raw$[ebp], ecx

; 91   : 
; 92   : 	switch (type)

  00012	8b 45 0c	 mov	 eax, DWORD PTR _type$[ebp]
  00015	89 45 b8	 mov	 DWORD PTR tv65[ebp], eax
  00018	83 7d b8 0e	 cmp	 DWORD PTR tv65[ebp], 14	; 0000000eH
  0001c	74 02		 je	 SHORT $LN4@set_local_
  0001e	eb 0e		 jmp	 SHORT $LN5@set_local_
$LN4@set_local_:

; 93   : 	{
; 94   : 		////////////////////////////////////////
; 95   : 		case PTR_TYPE_SOUND_EFFECT_DATA:
; 96   : 		////////////////////////////////////////
; 97   : 		{
; 98   : 
; 99   : 			raw->sound_effect_data = (system_sound_effect *) ptr;

  00020	8b 45 fc	 mov	 eax, DWORD PTR _raw$[ebp]
  00023	8b 4d 10	 mov	 ecx, DWORD PTR _ptr$[ebp]
  00026	89 88 28 01 00
	00		 mov	 DWORD PTR [eax+296], ecx

; 100  : 
; 101  : 			break;

  0002c	eb 72		 jmp	 SHORT $LN1@set_local_
$LN5@set_local_:

; 102  : 		}
; 103  : 		////////////////////////////////////////
; 104  : 		default:
; 105  : 		////////////////////////////////////////
; 106  : 		{
; 107  : 			debug_fatal_invalid_ptr_type (en, type);

  0002e	83 7d 08 00	 cmp	 DWORD PTR _en$[ebp], 0
  00032	74 0a		 je	 SHORT $LN7@set_local_
  00034	8b 45 08	 mov	 eax, DWORD PTR _en$[ebp]
  00037	8b 08		 mov	 ecx, DWORD PTR [eax]
  00039	89 4d b8	 mov	 DWORD PTR tv83[ebp], ecx
  0003c	eb 21		 jmp	 SHORT $LN8@set_local_
$LN7@set_local_:
  0003e	8b 15 00 00 00
	00		 mov	 edx, DWORD PTR ?__LINE__Var@?0??set_local_ptr_value@@YGXPAUENTITY@@W4PTR_TYPES@@PAX@Z@4JA
  00044	83 c2 1b	 add	 edx, 27			; 0000001bH
  00047	52		 push	 edx
  00048	68 00 00 00 00	 push	 OFFSET ??_C@_0EM@BNJLDHKK@c?3?2users?2nhv90?2projects?2eech?2ap@
  0004d	a1 00 00 00 00	 mov	 eax, DWORD PTR ?null_entity_pointer_message@@3PBDB ; null_entity_pointer_message
  00052	50		 push	 eax
  00053	e8 00 00 00 00	 call	 ?process_assert@@YGXPBD0H@Z ; process_assert
  00058	c7 45 b8 00 00
	00 00		 mov	 DWORD PTR tv83[ebp], 0
$LN8@set_local_:
  0005f	8b 0d 00 00 00
	00		 mov	 ecx, DWORD PTR ?__LINE__Var@?0??set_local_ptr_value@@YGXPAUENTITY@@W4PTR_TYPES@@PAX@Z@4JA
  00065	83 c1 1b	 add	 ecx, 27			; 0000001bH
  00068	51		 push	 ecx
  00069	68 00 00 00 00	 push	 OFFSET ??_C@_0EM@BNJLDHKK@c?3?2users?2nhv90?2projects?2eech?2ap@
  0006e	8b 55 0c	 mov	 edx, DWORD PTR _type$[ebp]
  00071	8b 04 95 00 00
	00 00		 mov	 eax, DWORD PTR ?ptr_type_database@@3PAUPTR_TYPE_DATA@@A[edx*4]
  00078	50		 push	 eax
  00079	8b 4d 08	 mov	 ecx, DWORD PTR _en$[ebp]
  0007c	2b 0d 00 00 00
	00		 sub	 ecx, DWORD PTR ?entities@@3PAUENTITY@@A ; entities
  00082	c1 f9 04	 sar	 ecx, 4
  00085	51		 push	 ecx
  00086	6b 55 b8 0c	 imul	 edx, DWORD PTR tv83[ebp], 12
  0008a	8b 82 00 00 00
	00		 mov	 eax, DWORD PTR ?entity_type_database@@3PAUENTITY_TYPE_DATA@@A[edx]
  00090	50		 push	 eax
  00091	8b 0d 00 00 00
	00		 mov	 ecx, DWORD PTR ?debug_fatal_invalid_ptr_type_message@@3PBDB ; debug_fatal_invalid_ptr_type_message
  00097	51		 push	 ecx
  00098	e8 00 00 00 00	 call	 ?debug_fatal@@YAXPBDZZ	; debug_fatal
  0009d	83 c4 18	 add	 esp, 24			; 00000018H
$LN1@set_local_:

; 108  : 
; 109  : 			break;
; 110  : 		}
; 111  : 	}
; 112  : }

  000a0	5f		 pop	 edi
  000a1	5e		 pop	 esi
  000a2	5b		 pop	 ebx
  000a3	8b e5		 mov	 esp, ebp
  000a5	5d		 pop	 ebp
  000a6	c2 0c 00	 ret	 12			; 0000000cH
?set_local_ptr_value@@YGXPAUENTITY@@W4PTR_TYPES@@PAX@Z ENDP ; set_local_ptr_value
_TEXT	ENDS
; Function compile flags: /Odtp /ZI
; File c:\users\nhv90\projects\eech\aphavoc\source\entity\mobile\aircraft\ac_ptr.c
;	COMDAT ?overload_aircraft_ptr_value_functions@@YGXW4ENTITY_TYPES@@@Z
_TEXT	SEGMENT
_type$ = 8						; size = 4
?overload_aircraft_ptr_value_functions@@YGXW4ENTITY_TYPES@@@Z PROC ; overload_aircraft_ptr_value_functions, COMDAT

; 188  : {

  00000	55		 push	 ebp
  00001	8b ec		 mov	 ebp, esp
  00003	83 ec 40	 sub	 esp, 64			; 00000040H
  00006	53		 push	 ebx
  00007	56		 push	 esi
  00008	57		 push	 edi

; 189  : 
; 190  : 	fn_get_local_entity_ptr_value				[type][PTR_TYPE_INSTANCE_3D_OBJECT]								= get_local_ptr_value;

  00009	6b 45 08 50	 imul	 eax, DWORD PTR _type$[ebp], 80
  0000d	b9 04 00 00 00	 mov	 ecx, 4
  00012	d1 e1		 shl	 ecx, 1
  00014	c7 84 08 00 00
	00 00 00 00 00
	00		 mov	 DWORD PTR ?fn_get_local_entity_ptr_value@@3PAY0BE@P6GPAXPAUENTITY@@W4PTR_TYPES@@@ZA[eax+ecx], OFFSET ?get_local_ptr_value@@YGPAXPAUENTITY@@W4PTR_TYPES@@@Z ; get_local_ptr_value

; 191  : 
; 192  : 	fn_set_local_entity_ptr_value				[type][PTR_TYPE_SOUND_EFFECT_DATA]								= set_local_ptr_value;

  0001f	6b 45 08 50	 imul	 eax, DWORD PTR _type$[ebp], 80
  00023	b9 04 00 00 00	 mov	 ecx, 4
  00028	6b d1 0e	 imul	 edx, ecx, 14
  0002b	c7 84 10 00 00
	00 00 00 00 00
	00		 mov	 DWORD PTR ?fn_set_local_entity_ptr_value@@3PAY0BE@P6GXPAUENTITY@@W4PTR_TYPES@@PAX@ZA[eax+edx], OFFSET ?set_local_ptr_value@@YGXPAUENTITY@@W4PTR_TYPES@@PAX@Z ; set_local_ptr_value

; 193  : 	fn_get_local_entity_ptr_value				[type][PTR_TYPE_SOUND_EFFECT_DATA]								= get_local_ptr_value;

  00036	6b 45 08 50	 imul	 eax, DWORD PTR _type$[ebp], 80
  0003a	b9 04 00 00 00	 mov	 ecx, 4
  0003f	6b d1 0e	 imul	 edx, ecx, 14
  00042	c7 84 10 00 00
	00 00 00 00 00
	00		 mov	 DWORD PTR ?fn_get_local_entity_ptr_value@@3PAY0BE@P6GPAXPAUENTITY@@W4PTR_TYPES@@@ZA[eax+edx], OFFSET ?get_local_ptr_value@@YGPAXPAUENTITY@@W4PTR_TYPES@@@Z ; get_local_ptr_value

; 194  : 
; 195  : 	fn_get_local_entity_ptr_value				[type][PTR_TYPE_TERRAIN_FACE_NORMAL]							= get_local_ptr_value;

  0004d	6b 45 08 50	 imul	 eax, DWORD PTR _type$[ebp], 80
  00051	b9 04 00 00 00	 mov	 ecx, 4
  00056	6b d1 11	 imul	 edx, ecx, 17
  00059	c7 84 10 00 00
	00 00 00 00 00
	00		 mov	 DWORD PTR ?fn_get_local_entity_ptr_value@@3PAY0BE@P6GPAXPAUENTITY@@W4PTR_TYPES@@@ZA[eax+edx], OFFSET ?get_local_ptr_value@@YGPAXPAUENTITY@@W4PTR_TYPES@@@Z ; get_local_ptr_value

; 196  : 
; 197  : 	fn_get_local_entity_ptr_value				[type][PTR_TYPE_TERRAIN_INFO]										= get_local_ptr_value;

  00064	6b 45 08 50	 imul	 eax, DWORD PTR _type$[ebp], 80
  00068	b9 04 00 00 00	 mov	 ecx, 4
  0006d	6b d1 12	 imul	 edx, ecx, 18
  00070	c7 84 10 00 00
	00 00 00 00 00
	00		 mov	 DWORD PTR ?fn_get_local_entity_ptr_value@@3PAY0BE@P6GPAXPAUENTITY@@W4PTR_TYPES@@@ZA[eax+edx], OFFSET ?get_local_ptr_value@@YGPAXPAUENTITY@@W4PTR_TYPES@@@Z ; get_local_ptr_value

; 198  : 
; 199  : 	fn_get_local_entity_ptr_value				[type][PTR_TYPE_WEAPON_PACKAGE_STATUS_ARRAY]					= get_local_ptr_value;

  0007b	6b 45 08 50	 imul	 eax, DWORD PTR _type$[ebp], 80
  0007f	b9 04 00 00 00	 mov	 ecx, 4
  00084	6b d1 13	 imul	 edx, ecx, 19
  00087	c7 84 10 00 00
	00 00 00 00 00
	00		 mov	 DWORD PTR ?fn_get_local_entity_ptr_value@@3PAY0BE@P6GPAXPAUENTITY@@W4PTR_TYPES@@@ZA[eax+edx], OFFSET ?get_local_ptr_value@@YGPAXPAUENTITY@@W4PTR_TYPES@@@Z ; get_local_ptr_value

; 200  : }

  00092	5f		 pop	 edi
  00093	5e		 pop	 esi
  00094	5b		 pop	 ebx
  00095	8b e5		 mov	 esp, ebp
  00097	5d		 pop	 ebp
  00098	c2 04 00	 ret	 4
?overload_aircraft_ptr_value_functions@@YGXW4ENTITY_TYPES@@@Z ENDP ; overload_aircraft_ptr_value_functions
_TEXT	ENDS
END
