; Listing generated by Microsoft (R) Optimizing Compiler Version 19.16.27045.0 

	TITLE	C:\Users\nhv90\Projects\eech\aphavoc\source\entity\mobile\aircraft\ac_vec3d.c
	.686P
	.XMM
	include listing.inc
	.model	flat

INCLUDELIB MSVCRTD
INCLUDELIB OLDNAMES

PUBLIC	_atan2f
PUBLIC	?atan2@@YGMMM@Z					; atan2
PUBLIC	?overload_aircraft_vec3d_functions@@YGXW4ENTITY_TYPES@@@Z ; overload_aircraft_vec3d_functions
PUBLIC	?__LINE__Var@?0??set_local_raw_vec3d@@YGXPAUENTITY@@W4VEC3D_TYPES@@PAUVEC3D@@@Z@4JA ; `set_local_raw_vec3d'::`1'::__LINE__Var
PUBLIC	??_C@_0EO@FKLNJLDA@c?3?2users?2nhv90?2projects?2eech?2ap@ ; `string'
PUBLIC	??_C@_01MHEDDDHA@v@				; `string'
PUBLIC	?__LINE__Var@?0??set_local_vec3d@@YGXPAUENTITY@@W4VEC3D_TYPES@@PAUVEC3D@@@Z@4JA ; `set_local_vec3d'::`1'::__LINE__Var
PUBLIC	?__LINE__Var@?0??set_remote_vec3d@@YGXPAUENTITY@@W4VEC3D_TYPES@@PAUVEC3D@@@Z@4JA ; `set_remote_vec3d'::`1'::__LINE__Var
PUBLIC	?__LINE__Var@?0??set_server_vec3d@@YGXPAUENTITY@@W4VEC3D_TYPES@@PAUVEC3D@@@Z@4JA ; `set_server_vec3d'::`1'::__LINE__Var
PUBLIC	??_C@_0CB@CFOCLFOK@assert_client_server_local_fn?5?$CI@ ; `string'
PUBLIC	??_C@_0CC@BNNNEGEG@assert_client_server_remote_fn?5@ ; `string'
PUBLIC	?__LINE__Var@?0??set_client_vec3d@@YGXPAUENTITY@@W4VEC3D_TYPES@@PAUVEC3D@@@Z@4JA ; `set_client_vec3d'::`1'::__LINE__Var
PUBLIC	?__LINE__Var@?0??get_local_vec3d@@YGXPAUENTITY@@W4VEC3D_TYPES@@PAUVEC3D@@@Z@4JA ; `get_local_vec3d'::`1'::__LINE__Var
PUBLIC	?__LINE__Var@?0??get_local_vec3d_ptr@@YGPAUVEC3D@@PAUENTITY@@W4VEC3D_TYPES@@@Z@4JA ; `get_local_vec3d_ptr'::`1'::__LINE__Var
EXTRN	_atan2:PROC
EXTRN	?process_assert@@YGXPBD0H@Z:PROC		; process_assert
EXTRN	?debug_fatal@@YAXPBDZZ:PROC			; debug_fatal
EXTRN	?notify_local_entity@@YAHW4ENTITY_MESSAGES@@PAUENTITY@@1ZZ:PROC ; notify_local_entity
EXTRN	?insert_local_entity_into_parents_child_list@@YGXPAUENTITY@@W4LIST_TYPES@@00@Z:PROC ; insert_local_entity_into_parents_child_list
EXTRN	?delete_local_entity_from_parents_child_list@@YGXPAUENTITY@@W4LIST_TYPES@@@Z:PROC ; delete_local_entity_from_parents_child_list
EXTRN	?transmit_entity_comms_message@@YAXW4ENTITY_COMMS_MESSAGES@@PAUENTITY@@ZZ:PROC ; transmit_entity_comms_message
EXTRN	?assert_client_server_local_fn@@YGHXZ:PROC	; assert_client_server_local_fn
EXTRN	?assert_client_server_remote_fn@@YGHXZ:PROC	; assert_client_server_remote_fn
EXTRN	?play_aircraft_flown_into_new_sector_speech@@YGXPAUENTITY@@00@Z:PROC ; play_aircraft_flown_into_new_sector_speech
EXTRN	?get_local_sector_entity@@YGPAUENTITY@@PAUVEC3D@@@Z:PROC ; get_local_sector_entity
EXTRN	?null_entity_pointer_message@@3PBDB:DWORD	; null_entity_pointer_message
EXTRN	?entity_type_database@@3PAUENTITY_TYPE_DATA@@A:BYTE ; entity_type_database
EXTRN	?system_comms_model@@3W4COMMS_MODEL_TYPES@@A:DWORD ; system_comms_model
EXTRN	?system_comms_data_flow@@3W4COMMS_DATA_FLOW_TYPES@@A:DWORD ; system_comms_data_flow
EXTRN	?overload_invalid_list_type_message@@3PBDB:DWORD ; overload_invalid_list_type_message
EXTRN	?fn_get_local_entity_first_child@@3PAY0CN@P6GPAUENTITY@@PAU1@W4LIST_TYPES@@@ZA:BYTE ; fn_get_local_entity_first_child
EXTRN	?fn_get_local_entity_parent@@3PAY0CN@P6GPAUENTITY@@PAU1@W4LIST_TYPES@@@ZA:BYTE ; fn_get_local_entity_parent
EXTRN	?fn_get_local_entity_child_succ@@3PAY0CN@P6GPAUENTITY@@PAU1@W4LIST_TYPES@@@ZA:BYTE ; fn_get_local_entity_child_succ
EXTRN	?overload_invalid_int_type_message@@3PBDB:DWORD	; overload_invalid_int_type_message
EXTRN	?fn_get_local_entity_int_value@@3PAY0BBH@P6GHPAUENTITY@@W4INT_TYPES@@@ZA:BYTE ; fn_get_local_entity_int_value
EXTRN	?vec3d_type_database@@3PAUVEC3D_TYPE_DATA@@A:BYTE ; vec3d_type_database
EXTRN	?debug_fatal_invalid_vec3d_type_message@@3PBDB:DWORD ; debug_fatal_invalid_vec3d_type_message
EXTRN	?fn_set_local_entity_raw_vec3d@@3PAY0BI@P6GXPAUENTITY@@W4VEC3D_TYPES@@PAUVEC3D@@@ZA:BYTE ; fn_set_local_entity_raw_vec3d
EXTRN	?fn_set_local_entity_vec3d@@3PAY0BI@P6GXPAUENTITY@@W4VEC3D_TYPES@@PAUVEC3D@@@ZA:BYTE ; fn_set_local_entity_vec3d
EXTRN	?fn_set_client_server_entity_vec3d@@3PAY1BI@1P6GXPAUENTITY@@W4VEC3D_TYPES@@PAUVEC3D@@@ZA:BYTE ; fn_set_client_server_entity_vec3d
EXTRN	?fn_get_local_entity_vec3d@@3PAY0BI@P6GXPAUENTITY@@W4VEC3D_TYPES@@PAUVEC3D@@@ZA:BYTE ; fn_get_local_entity_vec3d
EXTRN	?fn_get_local_entity_vec3d_ptr@@3PAY0BI@P6GPAUVEC3D@@PAUENTITY@@W4VEC3D_TYPES@@@ZA:BYTE ; fn_get_local_entity_vec3d_ptr
EXTRN	?entities@@3PAUENTITY@@A:DWORD			; entities
EXTRN	__fltused:DWORD
;	COMDAT ?__LINE__Var@?0??get_local_vec3d_ptr@@YGPAUVEC3D@@PAUENTITY@@W4VEC3D_TYPES@@@Z@4JA
_DATA	SEGMENT
?__LINE__Var@?0??get_local_vec3d_ptr@@YGPAUVEC3D@@PAUENTITY@@W4VEC3D_TYPES@@@Z@4JA DD 0183H ; `get_local_vec3d_ptr'::`1'::__LINE__Var
_DATA	ENDS
;	COMDAT ?__LINE__Var@?0??get_local_vec3d@@YGXPAUENTITY@@W4VEC3D_TYPES@@PAUVEC3D@@@Z@4JA
_DATA	SEGMENT
?__LINE__Var@?0??get_local_vec3d@@YGXPAUENTITY@@W4VEC3D_TYPES@@PAUVEC3D@@@Z@4JA DD 0149H ; `get_local_vec3d'::`1'::__LINE__Var
_DATA	ENDS
;	COMDAT ?__LINE__Var@?0??set_client_vec3d@@YGXPAUENTITY@@W4VEC3D_TYPES@@PAUVEC3D@@@Z@4JA
_DATA	SEGMENT
?__LINE__Var@?0??set_client_vec3d@@YGXPAUENTITY@@W4VEC3D_TYPES@@PAUVEC3D@@@Z@4JA DD 0133H ; `set_client_vec3d'::`1'::__LINE__Var
_DATA	ENDS
;	COMDAT ??_C@_0CC@BNNNEGEG@assert_client_server_remote_fn?5@
CONST	SEGMENT
??_C@_0CC@BNNNEGEG@assert_client_server_remote_fn?5@ DB 'assert_client_se'
	DB	'rver_remote_fn ()', 00H			; `string'
CONST	ENDS
;	COMDAT ??_C@_0CB@CFOCLFOK@assert_client_server_local_fn?5?$CI@
CONST	SEGMENT
??_C@_0CB@CFOCLFOK@assert_client_server_local_fn?5?$CI@ DB 'assert_client'
	DB	'_server_local_fn ()', 00H			; `string'
CONST	ENDS
;	COMDAT ?__LINE__Var@?0??set_server_vec3d@@YGXPAUENTITY@@W4VEC3D_TYPES@@PAUVEC3D@@@Z@4JA
_DATA	SEGMENT
?__LINE__Var@?0??set_server_vec3d@@YGXPAUENTITY@@W4VEC3D_TYPES@@PAUVEC3D@@@Z@4JA DD 0122H ; `set_server_vec3d'::`1'::__LINE__Var
_DATA	ENDS
;	COMDAT ?__LINE__Var@?0??set_remote_vec3d@@YGXPAUENTITY@@W4VEC3D_TYPES@@PAUVEC3D@@@Z@4JA
_DATA	SEGMENT
?__LINE__Var@?0??set_remote_vec3d@@YGXPAUENTITY@@W4VEC3D_TYPES@@PAUVEC3D@@@Z@4JA DD 0111H ; `set_remote_vec3d'::`1'::__LINE__Var
_DATA	ENDS
;	COMDAT ?__LINE__Var@?0??set_local_vec3d@@YGXPAUENTITY@@W4VEC3D_TYPES@@PAUVEC3D@@@Z@4JA
_DATA	SEGMENT
?__LINE__Var@?0??set_local_vec3d@@YGXPAUENTITY@@W4VEC3D_TYPES@@PAUVEC3D@@@Z@4JA DD 07aH ; `set_local_vec3d'::`1'::__LINE__Var
_DATA	ENDS
;	COMDAT ??_C@_01MHEDDDHA@v@
CONST	SEGMENT
??_C@_01MHEDDDHA@v@ DB 'v', 00H				; `string'
CONST	ENDS
;	COMDAT ??_C@_0EO@FKLNJLDA@c?3?2users?2nhv90?2projects?2eech?2ap@
CONST	SEGMENT
??_C@_0EO@FKLNJLDA@c?3?2users?2nhv90?2projects?2eech?2ap@ DB 'c:\users\nh'
	DB	'v90\projects\eech\aphavoc\source\entity\mobile\aircraft\ac_ve'
	DB	'c3d.c', 00H					; `string'
CONST	ENDS
;	COMDAT ?__LINE__Var@?0??set_local_raw_vec3d@@YGXPAUENTITY@@W4VEC3D_TYPES@@PAUVEC3D@@@Z@4JA
_DATA	SEGMENT
?__LINE__Var@?0??set_local_raw_vec3d@@YGXPAUENTITY@@W4VEC3D_TYPES@@PAUVEC3D@@@Z@4JA DD 052H ; `set_local_raw_vec3d'::`1'::__LINE__Var
_DATA	ENDS
; Function compile flags: /Odtp /ZI
; File c:\users\nhv90\projects\eech\aphavoc\source\entity\mobile\aircraft\ac_vec3d.c
;	COMDAT ?get_local_vec3d_ptr@@YGPAUVEC3D@@PAUENTITY@@W4VEC3D_TYPES@@@Z
_TEXT	SEGMENT
tv88 = -76						; size = 4
tv65 = -76						; size = 4
_v$ = -8						; size = 4
_raw$ = -4						; size = 4
_en$ = 8						; size = 4
_type$ = 12						; size = 4
?get_local_vec3d_ptr@@YGPAUVEC3D@@PAUENTITY@@W4VEC3D_TYPES@@@Z PROC ; get_local_vec3d_ptr, COMDAT

; 387  : {

  00000	55		 push	 ebp
  00001	8b ec		 mov	 ebp, esp
  00003	83 ec 4c	 sub	 esp, 76			; 0000004cH
  00006	53		 push	 ebx
  00007	56		 push	 esi
  00008	57		 push	 edi

; 388  : 	aircraft
; 389  : 		*raw;
; 390  : 
; 391  : 	vec3d
; 392  : 		*v;
; 393  : 
; 394  : 	raw = (aircraft *) get_local_entity_data (en);

  00009	8b 45 08	 mov	 eax, DWORD PTR _en$[ebp]
  0000c	8b 48 04	 mov	 ecx, DWORD PTR [eax+4]
  0000f	89 4d fc	 mov	 DWORD PTR _raw$[ebp], ecx

; 395  : 
; 396  : 	switch (type)

  00012	8b 45 0c	 mov	 eax, DWORD PTR _type$[ebp]
  00015	89 45 b4	 mov	 DWORD PTR tv65[ebp], eax
  00018	8b 4d b4	 mov	 ecx, DWORD PTR tv65[ebp]
  0001b	83 e9 06	 sub	 ecx, 6
  0001e	89 4d b4	 mov	 DWORD PTR tv65[ebp], ecx
  00021	83 7d b4 08	 cmp	 DWORD PTR tv65[ebp], 8
  00025	77 40		 ja	 SHORT $LN8@get_local_
  00027	8b 55 b4	 mov	 edx, DWORD PTR tv65[ebp]
  0002a	ff 24 95 00 00
	00 00		 jmp	 DWORD PTR $LN12@get_local_[edx*4]
$LN4@get_local_:

; 397  : 	{
; 398  : 		////////////////////////////////////////
; 399  : 		case VEC3D_TYPE_MOTION_VECTOR:
; 400  : 		////////////////////////////////////////
; 401  : 		{
; 402  : 			v = &raw->mob.motion_vector;

  00031	8b 45 fc	 mov	 eax, DWORD PTR _raw$[ebp]
  00034	83 c0 34	 add	 eax, 52			; 00000034H
  00037	89 45 f8	 mov	 DWORD PTR _v$[ebp], eax

; 403  : 
; 404  : 			break;

  0003a	e9 9a 00 00 00	 jmp	 $LN2@get_local_
$LN5@get_local_:

; 405  : 		}
; 406  : 		////////////////////////////////////////
; 407  : 		case VEC3D_TYPE_POSITION:
; 408  : 		////////////////////////////////////////
; 409  : 		{
; 410  : 			v = &raw->mob.position;

  0003f	8b 45 fc	 mov	 eax, DWORD PTR _raw$[ebp]
  00042	83 c0 04	 add	 eax, 4
  00045	89 45 f8	 mov	 DWORD PTR _v$[ebp], eax

; 411  : 
; 412  : 			break;

  00048	e9 8c 00 00 00	 jmp	 $LN2@get_local_
$LN6@get_local_:

; 413  : 		}
; 414  : 		////////////////////////////////////////
; 415  : 		case VEC3D_TYPE_WEAPON_TO_TARGET_VECTOR:
; 416  : 		////////////////////////////////////////
; 417  : 		{
; 418  : 			v = &raw->weapon_to_target_vector;

  0004d	8b 45 fc	 mov	 eax, DWORD PTR _raw$[ebp]
  00050	05 48 01 00 00	 add	 eax, 328		; 00000148H
  00055	89 45 f8	 mov	 DWORD PTR _v$[ebp], eax

; 419  : 
; 420  : 			break;

  00058	eb 7f		 jmp	 SHORT $LN2@get_local_
$LN7@get_local_:

; 421  : 		}
; 422  : 		////////////////////////////////////////
; 423  : 		case VEC3D_TYPE_WEAPON_VECTOR:
; 424  : 		////////////////////////////////////////
; 425  : 		{
; 426  : 			v = &raw->weapon_vector;

  0005a	8b 45 fc	 mov	 eax, DWORD PTR _raw$[ebp]
  0005d	05 3c 01 00 00	 add	 eax, 316		; 0000013cH
  00062	89 45 f8	 mov	 DWORD PTR _v$[ebp], eax

; 427  : 
; 428  : 			break;

  00065	eb 72		 jmp	 SHORT $LN2@get_local_
$LN8@get_local_:

; 429  : 		}
; 430  : 		////////////////////////////////////////
; 431  : 		default:
; 432  : 		////////////////////////////////////////
; 433  : 		{
; 434  : 			debug_fatal_invalid_vec3d_type (en, type);

  00067	83 7d 08 00	 cmp	 DWORD PTR _en$[ebp], 0
  0006b	74 0a		 je	 SHORT $LN10@get_local_
  0006d	8b 45 08	 mov	 eax, DWORD PTR _en$[ebp]
  00070	8b 08		 mov	 ecx, DWORD PTR [eax]
  00072	89 4d b4	 mov	 DWORD PTR tv88[ebp], ecx
  00075	eb 21		 jmp	 SHORT $LN11@get_local_
$LN10@get_local_:
  00077	8b 15 00 00 00
	00		 mov	 edx, DWORD PTR ?__LINE__Var@?0??get_local_vec3d_ptr@@YGPAUVEC3D@@PAUENTITY@@W4VEC3D_TYPES@@@Z@4JA
  0007d	83 c2 2f	 add	 edx, 47			; 0000002fH
  00080	52		 push	 edx
  00081	68 00 00 00 00	 push	 OFFSET ??_C@_0EO@FKLNJLDA@c?3?2users?2nhv90?2projects?2eech?2ap@
  00086	a1 00 00 00 00	 mov	 eax, DWORD PTR ?null_entity_pointer_message@@3PBDB ; null_entity_pointer_message
  0008b	50		 push	 eax
  0008c	e8 00 00 00 00	 call	 ?process_assert@@YGXPBD0H@Z ; process_assert
  00091	c7 45 b4 00 00
	00 00		 mov	 DWORD PTR tv88[ebp], 0
$LN11@get_local_:
  00098	8b 0d 00 00 00
	00		 mov	 ecx, DWORD PTR ?__LINE__Var@?0??get_local_vec3d_ptr@@YGPAUVEC3D@@PAUENTITY@@W4VEC3D_TYPES@@@Z@4JA
  0009e	83 c1 2f	 add	 ecx, 47			; 0000002fH
  000a1	51		 push	 ecx
  000a2	68 00 00 00 00	 push	 OFFSET ??_C@_0EO@FKLNJLDA@c?3?2users?2nhv90?2projects?2eech?2ap@
  000a7	6b 55 0c 0c	 imul	 edx, DWORD PTR _type$[ebp], 12
  000ab	8b 82 00 00 00
	00		 mov	 eax, DWORD PTR ?vec3d_type_database@@3PAUVEC3D_TYPE_DATA@@A[edx]
  000b1	50		 push	 eax
  000b2	8b 4d 08	 mov	 ecx, DWORD PTR _en$[ebp]
  000b5	2b 0d 00 00 00
	00		 sub	 ecx, DWORD PTR ?entities@@3PAUENTITY@@A ; entities
  000bb	c1 f9 04	 sar	 ecx, 4
  000be	51		 push	 ecx
  000bf	6b 55 b4 0c	 imul	 edx, DWORD PTR tv88[ebp], 12
  000c3	8b 82 00 00 00
	00		 mov	 eax, DWORD PTR ?entity_type_database@@3PAUENTITY_TYPE_DATA@@A[edx]
  000c9	50		 push	 eax
  000ca	8b 0d 00 00 00
	00		 mov	 ecx, DWORD PTR ?debug_fatal_invalid_vec3d_type_message@@3PBDB ; debug_fatal_invalid_vec3d_type_message
  000d0	51		 push	 ecx
  000d1	e8 00 00 00 00	 call	 ?debug_fatal@@YAXPBDZZ	; debug_fatal
  000d6	83 c4 18	 add	 esp, 24			; 00000018H
$LN2@get_local_:

; 435  : 
; 436  : 			break;
; 437  : 		}
; 438  : 	}
; 439  : 
; 440  : 	return (v);

  000d9	8b 45 f8	 mov	 eax, DWORD PTR _v$[ebp]

; 441  : }

  000dc	5f		 pop	 edi
  000dd	5e		 pop	 esi
  000de	5b		 pop	 ebx
  000df	8b e5		 mov	 esp, ebp
  000e1	5d		 pop	 ebp
  000e2	c2 08 00	 ret	 8
  000e5	0f 1f 00	 npad	 3
$LN12@get_local_:
  000e8	00 00 00 00	 DD	 $LN4@get_local_
  000ec	00 00 00 00	 DD	 $LN8@get_local_
  000f0	00 00 00 00	 DD	 $LN5@get_local_
  000f4	00 00 00 00	 DD	 $LN8@get_local_
  000f8	00 00 00 00	 DD	 $LN8@get_local_
  000fc	00 00 00 00	 DD	 $LN8@get_local_
  00100	00 00 00 00	 DD	 $LN8@get_local_
  00104	00 00 00 00	 DD	 $LN6@get_local_
  00108	00 00 00 00	 DD	 $LN7@get_local_
?get_local_vec3d_ptr@@YGPAUVEC3D@@PAUENTITY@@W4VEC3D_TYPES@@@Z ENDP ; get_local_vec3d_ptr
_TEXT	ENDS
; Function compile flags: /Odtp /ZI
; File c:\users\nhv90\projects\eech\aphavoc\source\entity\mobile\aircraft\ac_vec3d.c
;	COMDAT ?get_local_vec3d@@YGXPAUENTITY@@W4VEC3D_TYPES@@PAUVEC3D@@@Z
_TEXT	SEGMENT
tv129 = -72						; size = 4
tv70 = -72						; size = 4
_raw$ = -4						; size = 4
_en$ = 8						; size = 4
_type$ = 12						; size = 4
_v$ = 16						; size = 4
?get_local_vec3d@@YGXPAUENTITY@@W4VEC3D_TYPES@@PAUVEC3D@@@Z PROC ; get_local_vec3d, COMDAT

; 329  : {

  00000	55		 push	 ebp
  00001	8b ec		 mov	 ebp, esp
  00003	83 ec 48	 sub	 esp, 72			; 00000048H
  00006	53		 push	 ebx
  00007	56		 push	 esi
  00008	57		 push	 edi

; 330  :    aircraft
; 331  :       *raw;
; 332  : 
; 333  :    ASSERT (v);

  00009	83 7d 10 00	 cmp	 DWORD PTR _v$[ebp], 0
  0000d	75 18		 jne	 SHORT $LN4@get_local_
  0000f	a1 00 00 00 00	 mov	 eax, DWORD PTR ?__LINE__Var@?0??get_local_vec3d@@YGXPAUENTITY@@W4VEC3D_TYPES@@PAUVEC3D@@@Z@4JA
  00014	83 c0 04	 add	 eax, 4
  00017	50		 push	 eax
  00018	68 00 00 00 00	 push	 OFFSET ??_C@_0EO@FKLNJLDA@c?3?2users?2nhv90?2projects?2eech?2ap@
  0001d	68 00 00 00 00	 push	 OFFSET ??_C@_01MHEDDDHA@v@
  00022	e8 00 00 00 00	 call	 ?process_assert@@YGXPBD0H@Z ; process_assert
$LN4@get_local_:

; 334  : 
; 335  :    raw = (aircraft *) get_local_entity_data (en);

  00027	8b 45 08	 mov	 eax, DWORD PTR _en$[ebp]
  0002a	8b 48 04	 mov	 ecx, DWORD PTR [eax+4]
  0002d	89 4d fc	 mov	 DWORD PTR _raw$[ebp], ecx

; 336  : 
; 337  :    switch (type)

  00030	8b 45 0c	 mov	 eax, DWORD PTR _type$[ebp]
  00033	89 45 b8	 mov	 DWORD PTR tv70[ebp], eax
  00036	8b 4d b8	 mov	 ecx, DWORD PTR tv70[ebp]
  00039	83 e9 06	 sub	 ecx, 6
  0003c	89 4d b8	 mov	 DWORD PTR tv70[ebp], ecx
  0003f	83 7d b8 08	 cmp	 DWORD PTR tv70[ebp], 8
  00043	0f 87 83 00 00
	00		 ja	 $LN9@get_local_
  00049	8b 55 b8	 mov	 edx, DWORD PTR tv70[ebp]
  0004c	ff 24 95 00 00
	00 00		 jmp	 DWORD PTR $LN13@get_local_[edx*4]
$LN5@get_local_:

; 338  :    {
; 339  : 		////////////////////////////////////////
; 340  : 		case VEC3D_TYPE_MOTION_VECTOR:
; 341  : 		////////////////////////////////////////
; 342  : 		{
; 343  : 			*v = raw->mob.motion_vector;

  00053	8b 45 fc	 mov	 eax, DWORD PTR _raw$[ebp]
  00056	83 c0 34	 add	 eax, 52			; 00000034H
  00059	8b 4d 10	 mov	 ecx, DWORD PTR _v$[ebp]
  0005c	8b 10		 mov	 edx, DWORD PTR [eax]
  0005e	89 11		 mov	 DWORD PTR [ecx], edx
  00060	8b 50 04	 mov	 edx, DWORD PTR [eax+4]
  00063	89 51 04	 mov	 DWORD PTR [ecx+4], edx
  00066	8b 40 08	 mov	 eax, DWORD PTR [eax+8]
  00069	89 41 08	 mov	 DWORD PTR [ecx+8], eax

; 344  : 
; 345  : 			break;

  0006c	e9 cd 00 00 00	 jmp	 $LN1@get_local_
$LN6@get_local_:

; 346  : 		}
; 347  : 		////////////////////////////////////////
; 348  : 		case VEC3D_TYPE_POSITION:
; 349  : 		////////////////////////////////////////
; 350  : 		{
; 351  : 			*v = raw->mob.position;

  00071	8b 45 fc	 mov	 eax, DWORD PTR _raw$[ebp]
  00074	83 c0 04	 add	 eax, 4
  00077	8b 4d 10	 mov	 ecx, DWORD PTR _v$[ebp]
  0007a	8b 10		 mov	 edx, DWORD PTR [eax]
  0007c	89 11		 mov	 DWORD PTR [ecx], edx
  0007e	8b 50 04	 mov	 edx, DWORD PTR [eax+4]
  00081	89 51 04	 mov	 DWORD PTR [ecx+4], edx
  00084	8b 40 08	 mov	 eax, DWORD PTR [eax+8]
  00087	89 41 08	 mov	 DWORD PTR [ecx+8], eax

; 352  : 
; 353  : 			break;

  0008a	e9 af 00 00 00	 jmp	 $LN1@get_local_
$LN7@get_local_:

; 354  : 		}
; 355  : 		////////////////////////////////////////
; 356  : 		case VEC3D_TYPE_WEAPON_TO_TARGET_VECTOR:
; 357  : 		////////////////////////////////////////
; 358  : 		{
; 359  : 			*v = raw->weapon_to_target_vector;

  0008f	8b 45 fc	 mov	 eax, DWORD PTR _raw$[ebp]
  00092	05 48 01 00 00	 add	 eax, 328		; 00000148H
  00097	8b 4d 10	 mov	 ecx, DWORD PTR _v$[ebp]
  0009a	8b 10		 mov	 edx, DWORD PTR [eax]
  0009c	89 11		 mov	 DWORD PTR [ecx], edx
  0009e	8b 50 04	 mov	 edx, DWORD PTR [eax+4]
  000a1	89 51 04	 mov	 DWORD PTR [ecx+4], edx
  000a4	8b 40 08	 mov	 eax, DWORD PTR [eax+8]
  000a7	89 41 08	 mov	 DWORD PTR [ecx+8], eax

; 360  : 
; 361  : 			break;

  000aa	e9 8f 00 00 00	 jmp	 $LN1@get_local_
$LN8@get_local_:

; 362  : 		}
; 363  : 		////////////////////////////////////////
; 364  : 		case VEC3D_TYPE_WEAPON_VECTOR:
; 365  : 		////////////////////////////////////////
; 366  : 		{
; 367  : 			*v = raw->weapon_vector;

  000af	8b 45 fc	 mov	 eax, DWORD PTR _raw$[ebp]
  000b2	05 3c 01 00 00	 add	 eax, 316		; 0000013cH
  000b7	8b 4d 10	 mov	 ecx, DWORD PTR _v$[ebp]
  000ba	8b 10		 mov	 edx, DWORD PTR [eax]
  000bc	89 11		 mov	 DWORD PTR [ecx], edx
  000be	8b 50 04	 mov	 edx, DWORD PTR [eax+4]
  000c1	89 51 04	 mov	 DWORD PTR [ecx+4], edx
  000c4	8b 40 08	 mov	 eax, DWORD PTR [eax+8]
  000c7	89 41 08	 mov	 DWORD PTR [ecx+8], eax

; 368  : 
; 369  : 			break;

  000ca	eb 72		 jmp	 SHORT $LN1@get_local_
$LN9@get_local_:

; 370  : 		}
; 371  : 		////////////////////////////////////////
; 372  : 		default:
; 373  : 		////////////////////////////////////////
; 374  : 		{
; 375  : 			debug_fatal_invalid_vec3d_type (en, type);

  000cc	83 7d 08 00	 cmp	 DWORD PTR _en$[ebp], 0
  000d0	74 0a		 je	 SHORT $LN11@get_local_
  000d2	8b 45 08	 mov	 eax, DWORD PTR _en$[ebp]
  000d5	8b 08		 mov	 ecx, DWORD PTR [eax]
  000d7	89 4d b8	 mov	 DWORD PTR tv129[ebp], ecx
  000da	eb 21		 jmp	 SHORT $LN12@get_local_
$LN11@get_local_:
  000dc	8b 15 00 00 00
	00		 mov	 edx, DWORD PTR ?__LINE__Var@?0??get_local_vec3d@@YGXPAUENTITY@@W4VEC3D_TYPES@@PAUVEC3D@@@Z@4JA
  000e2	83 c2 2e	 add	 edx, 46			; 0000002eH
  000e5	52		 push	 edx
  000e6	68 00 00 00 00	 push	 OFFSET ??_C@_0EO@FKLNJLDA@c?3?2users?2nhv90?2projects?2eech?2ap@
  000eb	a1 00 00 00 00	 mov	 eax, DWORD PTR ?null_entity_pointer_message@@3PBDB ; null_entity_pointer_message
  000f0	50		 push	 eax
  000f1	e8 00 00 00 00	 call	 ?process_assert@@YGXPBD0H@Z ; process_assert
  000f6	c7 45 b8 00 00
	00 00		 mov	 DWORD PTR tv129[ebp], 0
$LN12@get_local_:
  000fd	8b 0d 00 00 00
	00		 mov	 ecx, DWORD PTR ?__LINE__Var@?0??get_local_vec3d@@YGXPAUENTITY@@W4VEC3D_TYPES@@PAUVEC3D@@@Z@4JA
  00103	83 c1 2e	 add	 ecx, 46			; 0000002eH
  00106	51		 push	 ecx
  00107	68 00 00 00 00	 push	 OFFSET ??_C@_0EO@FKLNJLDA@c?3?2users?2nhv90?2projects?2eech?2ap@
  0010c	6b 55 0c 0c	 imul	 edx, DWORD PTR _type$[ebp], 12
  00110	8b 82 00 00 00
	00		 mov	 eax, DWORD PTR ?vec3d_type_database@@3PAUVEC3D_TYPE_DATA@@A[edx]
  00116	50		 push	 eax
  00117	8b 4d 08	 mov	 ecx, DWORD PTR _en$[ebp]
  0011a	2b 0d 00 00 00
	00		 sub	 ecx, DWORD PTR ?entities@@3PAUENTITY@@A ; entities
  00120	c1 f9 04	 sar	 ecx, 4
  00123	51		 push	 ecx
  00124	6b 55 b8 0c	 imul	 edx, DWORD PTR tv129[ebp], 12
  00128	8b 82 00 00 00
	00		 mov	 eax, DWORD PTR ?entity_type_database@@3PAUENTITY_TYPE_DATA@@A[edx]
  0012e	50		 push	 eax
  0012f	8b 0d 00 00 00
	00		 mov	 ecx, DWORD PTR ?debug_fatal_invalid_vec3d_type_message@@3PBDB ; debug_fatal_invalid_vec3d_type_message
  00135	51		 push	 ecx
  00136	e8 00 00 00 00	 call	 ?debug_fatal@@YAXPBDZZ	; debug_fatal
  0013b	83 c4 18	 add	 esp, 24			; 00000018H
$LN1@get_local_:

; 376  : 
; 377  : 			break;
; 378  : 		}
; 379  : 	}
; 380  : }

  0013e	5f		 pop	 edi
  0013f	5e		 pop	 esi
  00140	5b		 pop	 ebx
  00141	8b e5		 mov	 esp, ebp
  00143	5d		 pop	 ebp
  00144	c2 0c 00	 ret	 12			; 0000000cH
  00147	90		 npad	 1
$LN13@get_local_:
  00148	00 00 00 00	 DD	 $LN5@get_local_
  0014c	00 00 00 00	 DD	 $LN9@get_local_
  00150	00 00 00 00	 DD	 $LN6@get_local_
  00154	00 00 00 00	 DD	 $LN9@get_local_
  00158	00 00 00 00	 DD	 $LN9@get_local_
  0015c	00 00 00 00	 DD	 $LN9@get_local_
  00160	00 00 00 00	 DD	 $LN9@get_local_
  00164	00 00 00 00	 DD	 $LN7@get_local_
  00168	00 00 00 00	 DD	 $LN8@get_local_
?get_local_vec3d@@YGXPAUENTITY@@W4VEC3D_TYPES@@PAUVEC3D@@@Z ENDP ; get_local_vec3d
_TEXT	ENDS
; Function compile flags: /Odtp /ZI
; File c:\users\nhv90\projects\eech\aphavoc\source\entity\mobile\aircraft\ac_vec3d.c
;	COMDAT ?set_client_vec3d@@YGXPAUENTITY@@W4VEC3D_TYPES@@PAUVEC3D@@@Z
_TEXT	SEGMENT
_en$ = 8						; size = 4
_type$ = 12						; size = 4
_v$ = 16						; size = 4
?set_client_vec3d@@YGXPAUENTITY@@W4VEC3D_TYPES@@PAUVEC3D@@@Z PROC ; set_client_vec3d, COMDAT

; 307  : {

  00000	55		 push	 ebp
  00001	8b ec		 mov	 ebp, esp
  00003	83 ec 40	 sub	 esp, 64			; 00000040H
  00006	53		 push	 ebx
  00007	56		 push	 esi
  00008	57		 push	 edi

; 308  :    ASSERT (v);

  00009	83 7d 10 00	 cmp	 DWORD PTR _v$[ebp], 0
  0000d	75 18		 jne	 SHORT $LN2@set_client
  0000f	a1 00 00 00 00	 mov	 eax, DWORD PTR ?__LINE__Var@?0??set_client_vec3d@@YGXPAUENTITY@@W4VEC3D_TYPES@@PAUVEC3D@@@Z@4JA
  00014	83 c0 01	 add	 eax, 1
  00017	50		 push	 eax
  00018	68 00 00 00 00	 push	 OFFSET ??_C@_0EO@FKLNJLDA@c?3?2users?2nhv90?2projects?2eech?2ap@
  0001d	68 00 00 00 00	 push	 OFFSET ??_C@_01MHEDDDHA@v@
  00022	e8 00 00 00 00	 call	 ?process_assert@@YGXPBD0H@Z ; process_assert
$LN2@set_client:

; 309  : 
; 310  :    if (get_comms_data_flow () == COMMS_DATA_FLOW_TX)

  00027	83 3d 00 00 00
	00 00		 cmp	 DWORD PTR ?system_comms_data_flow@@3W4COMMS_DATA_FLOW_TYPES@@A, 0 ; system_comms_data_flow
  0002e	75 34		 jne	 SHORT $LN3@set_client

; 311  :    {
; 312  :       validate_client_server_remote_fn ();

  00030	e8 00 00 00 00	 call	 ?assert_client_server_remote_fn@@YGHXZ ; assert_client_server_remote_fn
  00035	85 c0		 test	 eax, eax
  00037	75 18		 jne	 SHORT $LN5@set_client
  00039	a1 00 00 00 00	 mov	 eax, DWORD PTR ?__LINE__Var@?0??set_client_vec3d@@YGXPAUENTITY@@W4VEC3D_TYPES@@PAUVEC3D@@@Z@4JA
  0003e	83 c0 05	 add	 eax, 5
  00041	50		 push	 eax
  00042	68 00 00 00 00	 push	 OFFSET ??_C@_0EO@FKLNJLDA@c?3?2users?2nhv90?2projects?2eech?2ap@
  00047	68 00 00 00 00	 push	 OFFSET ??_C@_0CC@BNNNEGEG@assert_client_server_remote_fn?5@
  0004c	e8 00 00 00 00	 call	 ?process_assert@@YGXPBD0H@Z ; process_assert
$LN5@set_client:

; 313  : 
; 314  :       set_remote_vec3d (en, type, v);

  00051	8b 45 10	 mov	 eax, DWORD PTR _v$[ebp]
  00054	50		 push	 eax
  00055	8b 4d 0c	 mov	 ecx, DWORD PTR _type$[ebp]
  00058	51		 push	 ecx
  00059	8b 55 08	 mov	 edx, DWORD PTR _en$[ebp]
  0005c	52		 push	 edx
  0005d	e8 00 00 00 00	 call	 ?set_remote_vec3d@@YGXPAUENTITY@@W4VEC3D_TYPES@@PAUVEC3D@@@Z ; set_remote_vec3d

; 315  :    }
; 316  :    else

  00062	eb 32		 jmp	 SHORT $LN1@set_client
$LN3@set_client:

; 317  :    {
; 318  :       validate_client_server_local_fn ();

  00064	e8 00 00 00 00	 call	 ?assert_client_server_local_fn@@YGHXZ ; assert_client_server_local_fn
  00069	85 c0		 test	 eax, eax
  0006b	75 18		 jne	 SHORT $LN6@set_client
  0006d	a1 00 00 00 00	 mov	 eax, DWORD PTR ?__LINE__Var@?0??set_client_vec3d@@YGXPAUENTITY@@W4VEC3D_TYPES@@PAUVEC3D@@@Z@4JA
  00072	83 c0 0b	 add	 eax, 11			; 0000000bH
  00075	50		 push	 eax
  00076	68 00 00 00 00	 push	 OFFSET ??_C@_0EO@FKLNJLDA@c?3?2users?2nhv90?2projects?2eech?2ap@
  0007b	68 00 00 00 00	 push	 OFFSET ??_C@_0CB@CFOCLFOK@assert_client_server_local_fn?5?$CI@
  00080	e8 00 00 00 00	 call	 ?process_assert@@YGXPBD0H@Z ; process_assert
$LN6@set_client:

; 319  : 
; 320  :       set_local_vec3d (en, type, v);

  00085	8b 45 10	 mov	 eax, DWORD PTR _v$[ebp]
  00088	50		 push	 eax
  00089	8b 4d 0c	 mov	 ecx, DWORD PTR _type$[ebp]
  0008c	51		 push	 ecx
  0008d	8b 55 08	 mov	 edx, DWORD PTR _en$[ebp]
  00090	52		 push	 edx
  00091	e8 00 00 00 00	 call	 ?set_local_vec3d@@YGXPAUENTITY@@W4VEC3D_TYPES@@PAUVEC3D@@@Z ; set_local_vec3d
$LN1@set_client:

; 321  :    }
; 322  : }

  00096	5f		 pop	 edi
  00097	5e		 pop	 esi
  00098	5b		 pop	 ebx
  00099	8b e5		 mov	 esp, ebp
  0009b	5d		 pop	 ebp
  0009c	c2 0c 00	 ret	 12			; 0000000cH
?set_client_vec3d@@YGXPAUENTITY@@W4VEC3D_TYPES@@PAUVEC3D@@@Z ENDP ; set_client_vec3d
_TEXT	ENDS
; Function compile flags: /Odtp /ZI
; File c:\users\nhv90\projects\eech\aphavoc\source\entity\mobile\aircraft\ac_vec3d.c
;	COMDAT ?set_server_vec3d@@YGXPAUENTITY@@W4VEC3D_TYPES@@PAUVEC3D@@@Z
_TEXT	SEGMENT
_en$ = 8						; size = 4
_type$ = 12						; size = 4
_v$ = 16						; size = 4
?set_server_vec3d@@YGXPAUENTITY@@W4VEC3D_TYPES@@PAUVEC3D@@@Z PROC ; set_server_vec3d, COMDAT

; 290  : {

  00000	55		 push	 ebp
  00001	8b ec		 mov	 ebp, esp
  00003	83 ec 40	 sub	 esp, 64			; 00000040H
  00006	53		 push	 ebx
  00007	56		 push	 esi
  00008	57		 push	 edi

; 291  :    ASSERT (v);

  00009	83 7d 10 00	 cmp	 DWORD PTR _v$[ebp], 0
  0000d	75 18		 jne	 SHORT $LN2@set_server
  0000f	a1 00 00 00 00	 mov	 eax, DWORD PTR ?__LINE__Var@?0??set_server_vec3d@@YGXPAUENTITY@@W4VEC3D_TYPES@@PAUVEC3D@@@Z@4JA
  00014	83 c0 01	 add	 eax, 1
  00017	50		 push	 eax
  00018	68 00 00 00 00	 push	 OFFSET ??_C@_0EO@FKLNJLDA@c?3?2users?2nhv90?2projects?2eech?2ap@
  0001d	68 00 00 00 00	 push	 OFFSET ??_C@_01MHEDDDHA@v@
  00022	e8 00 00 00 00	 call	 ?process_assert@@YGXPBD0H@Z ; process_assert
$LN2@set_server:

; 292  : 
; 293  :    validate_client_server_local_fn ();

  00027	e8 00 00 00 00	 call	 ?assert_client_server_local_fn@@YGHXZ ; assert_client_server_local_fn
  0002c	85 c0		 test	 eax, eax
  0002e	75 18		 jne	 SHORT $LN3@set_server
  00030	a1 00 00 00 00	 mov	 eax, DWORD PTR ?__LINE__Var@?0??set_server_vec3d@@YGXPAUENTITY@@W4VEC3D_TYPES@@PAUVEC3D@@@Z@4JA
  00035	83 c0 03	 add	 eax, 3
  00038	50		 push	 eax
  00039	68 00 00 00 00	 push	 OFFSET ??_C@_0EO@FKLNJLDA@c?3?2users?2nhv90?2projects?2eech?2ap@
  0003e	68 00 00 00 00	 push	 OFFSET ??_C@_0CB@CFOCLFOK@assert_client_server_local_fn?5?$CI@
  00043	e8 00 00 00 00	 call	 ?process_assert@@YGXPBD0H@Z ; process_assert
$LN3@set_server:

; 294  : 
; 295  :    set_local_vec3d (en, type, v);

  00048	8b 45 10	 mov	 eax, DWORD PTR _v$[ebp]
  0004b	50		 push	 eax
  0004c	8b 4d 0c	 mov	 ecx, DWORD PTR _type$[ebp]
  0004f	51		 push	 ecx
  00050	8b 55 08	 mov	 edx, DWORD PTR _en$[ebp]
  00053	52		 push	 edx
  00054	e8 00 00 00 00	 call	 ?set_local_vec3d@@YGXPAUENTITY@@W4VEC3D_TYPES@@PAUVEC3D@@@Z ; set_local_vec3d

; 296  : 
; 297  :    validate_client_server_remote_fn ();

  00059	e8 00 00 00 00	 call	 ?assert_client_server_remote_fn@@YGHXZ ; assert_client_server_remote_fn
  0005e	85 c0		 test	 eax, eax
  00060	75 18		 jne	 SHORT $LN4@set_server
  00062	a1 00 00 00 00	 mov	 eax, DWORD PTR ?__LINE__Var@?0??set_server_vec3d@@YGXPAUENTITY@@W4VEC3D_TYPES@@PAUVEC3D@@@Z@4JA
  00067	83 c0 07	 add	 eax, 7
  0006a	50		 push	 eax
  0006b	68 00 00 00 00	 push	 OFFSET ??_C@_0EO@FKLNJLDA@c?3?2users?2nhv90?2projects?2eech?2ap@
  00070	68 00 00 00 00	 push	 OFFSET ??_C@_0CC@BNNNEGEG@assert_client_server_remote_fn?5@
  00075	e8 00 00 00 00	 call	 ?process_assert@@YGXPBD0H@Z ; process_assert
$LN4@set_server:

; 298  : 
; 299  :    set_remote_vec3d (en, type, v);

  0007a	8b 45 10	 mov	 eax, DWORD PTR _v$[ebp]
  0007d	50		 push	 eax
  0007e	8b 4d 0c	 mov	 ecx, DWORD PTR _type$[ebp]
  00081	51		 push	 ecx
  00082	8b 55 08	 mov	 edx, DWORD PTR _en$[ebp]
  00085	52		 push	 edx
  00086	e8 00 00 00 00	 call	 ?set_remote_vec3d@@YGXPAUENTITY@@W4VEC3D_TYPES@@PAUVEC3D@@@Z ; set_remote_vec3d

; 300  : }

  0008b	5f		 pop	 edi
  0008c	5e		 pop	 esi
  0008d	5b		 pop	 ebx
  0008e	8b e5		 mov	 esp, ebp
  00090	5d		 pop	 ebp
  00091	c2 0c 00	 ret	 12			; 0000000cH
?set_server_vec3d@@YGXPAUENTITY@@W4VEC3D_TYPES@@PAUVEC3D@@@Z ENDP ; set_server_vec3d
_TEXT	ENDS
; Function compile flags: /Odtp /ZI
; File c:\users\nhv90\projects\eech\aphavoc\source\entity\mobile\aircraft\ac_vec3d.c
;	COMDAT ?set_remote_vec3d@@YGXPAUENTITY@@W4VEC3D_TYPES@@PAUVEC3D@@@Z
_TEXT	SEGMENT
_en$ = 8						; size = 4
_type$ = 12						; size = 4
_v$ = 16						; size = 4
?set_remote_vec3d@@YGXPAUENTITY@@W4VEC3D_TYPES@@PAUVEC3D@@@Z PROC ; set_remote_vec3d, COMDAT

; 273  : {

  00000	55		 push	 ebp
  00001	8b ec		 mov	 ebp, esp
  00003	83 ec 40	 sub	 esp, 64			; 00000040H
  00006	53		 push	 ebx
  00007	56		 push	 esi
  00008	57		 push	 edi

; 274  :    ASSERT (v);

  00009	83 7d 10 00	 cmp	 DWORD PTR _v$[ebp], 0
  0000d	75 18		 jne	 SHORT $LN2@set_remote
  0000f	a1 00 00 00 00	 mov	 eax, DWORD PTR ?__LINE__Var@?0??set_remote_vec3d@@YGXPAUENTITY@@W4VEC3D_TYPES@@PAUVEC3D@@@Z@4JA
  00014	83 c0 01	 add	 eax, 1
  00017	50		 push	 eax
  00018	68 00 00 00 00	 push	 OFFSET ??_C@_0EO@FKLNJLDA@c?3?2users?2nhv90?2projects?2eech?2ap@
  0001d	68 00 00 00 00	 push	 OFFSET ??_C@_01MHEDDDHA@v@
  00022	e8 00 00 00 00	 call	 ?process_assert@@YGXPBD0H@Z ; process_assert
$LN2@set_remote:

; 275  : 
; 276  :    #if DEBUG_MODULE
; 277  : 
; 278  :    debug_log_entity_args (ENTITY_DEBUG_REMOTE, ENTITY_DEBUG_VEC3D, en, type, v);
; 279  : 
; 280  :    #endif
; 281  : 
; 282  :    transmit_entity_comms_message (ENTITY_COMMS_VEC3D, en, type, v);

  00027	8b 45 10	 mov	 eax, DWORD PTR _v$[ebp]
  0002a	50		 push	 eax
  0002b	8b 4d 0c	 mov	 ecx, DWORD PTR _type$[ebp]
  0002e	51		 push	 ecx
  0002f	8b 55 08	 mov	 edx, DWORD PTR _en$[ebp]
  00032	52		 push	 edx
  00033	6a 42		 push	 66			; 00000042H
  00035	e8 00 00 00 00	 call	 ?transmit_entity_comms_message@@YAXW4ENTITY_COMMS_MESSAGES@@PAUENTITY@@ZZ ; transmit_entity_comms_message
  0003a	83 c4 10	 add	 esp, 16			; 00000010H

; 283  : }

  0003d	5f		 pop	 edi
  0003e	5e		 pop	 esi
  0003f	5b		 pop	 ebx
  00040	8b e5		 mov	 esp, ebp
  00042	5d		 pop	 ebp
  00043	c2 0c 00	 ret	 12			; 0000000cH
?set_remote_vec3d@@YGXPAUENTITY@@W4VEC3D_TYPES@@PAUVEC3D@@@Z ENDP ; set_remote_vec3d
_TEXT	ENDS
; Function compile flags: /Odtp /ZI
; File c:\users\nhv90\projects\eech\aphavoc\source\entity\mobile\aircraft\ac_vec3d.c
;	COMDAT ?set_local_vec3d@@YGXPAUENTITY@@W4VEC3D_TYPES@@PAUVEC3D@@@Z
_TEXT	SEGMENT
tv235 = -104						; size = 4
tv228 = -100						; size = 4
tv292 = -96						; size = 4
tv259 = -96						; size = 4
tv217 = -96						; size = 4
tv189 = -96						; size = 4
tv166 = -96						; size = 4
tv135 = -96						; size = 4
tv318 = -92						; size = 4
tv284 = -92						; size = 4
tv251 = -92						; size = 4
tv210 = -92						; size = 4
tv181 = -92						; size = 4
tv158 = -92						; size = 4
tv95 = -92						; size = 4
tv70 = -92						; size = 4
_new_sector$1 = -24					; size = 4
_old_sector$2 = -20					; size = 4
_special_effect$3 = -16					; size = 4
_dependent$4 = -12					; size = 4
_heading$5 = -8						; size = 4
_raw$ = -4						; size = 4
_en$ = 8						; size = 4
_type$ = 12						; size = 4
_v$ = 16						; size = 4
?set_local_vec3d@@YGXPAUENTITY@@W4VEC3D_TYPES@@PAUVEC3D@@@Z PROC ; set_local_vec3d, COMDAT

; 122  : {

  00000	55		 push	 ebp
  00001	8b ec		 mov	 ebp, esp
  00003	83 ec 68	 sub	 esp, 104		; 00000068H
  00006	53		 push	 ebx
  00007	56		 push	 esi
  00008	57		 push	 edi

; 123  :    aircraft
; 124  :       *raw;
; 125  : 
; 126  :    ASSERT (v);

  00009	83 7d 10 00	 cmp	 DWORD PTR _v$[ebp], 0
  0000d	75 18		 jne	 SHORT $LN8@set_local_
  0000f	a1 00 00 00 00	 mov	 eax, DWORD PTR ?__LINE__Var@?0??set_local_vec3d@@YGXPAUENTITY@@W4VEC3D_TYPES@@PAUVEC3D@@@Z@4JA
  00014	83 c0 04	 add	 eax, 4
  00017	50		 push	 eax
  00018	68 00 00 00 00	 push	 OFFSET ??_C@_0EO@FKLNJLDA@c?3?2users?2nhv90?2projects?2eech?2ap@
  0001d	68 00 00 00 00	 push	 OFFSET ??_C@_01MHEDDDHA@v@
  00022	e8 00 00 00 00	 call	 ?process_assert@@YGXPBD0H@Z ; process_assert
$LN8@set_local_:

; 127  : 
; 128  :    #if DEBUG_MODULE
; 129  : 
; 130  :    debug_log_entity_args (ENTITY_DEBUG_LOCAL, ENTITY_DEBUG_VEC3D, en, type, v);
; 131  : 
; 132  :    #endif
; 133  : 
; 134  :    raw = (aircraft *) get_local_entity_data (en);

  00027	8b 45 08	 mov	 eax, DWORD PTR _en$[ebp]
  0002a	8b 48 04	 mov	 ecx, DWORD PTR [eax+4]
  0002d	89 4d fc	 mov	 DWORD PTR _raw$[ebp], ecx

; 135  : 
; 136  :    switch (type)

  00030	8b 45 0c	 mov	 eax, DWORD PTR _type$[ebp]
  00033	89 45 a4	 mov	 DWORD PTR tv70[ebp], eax
  00036	8b 4d a4	 mov	 ecx, DWORD PTR tv70[ebp]
  00039	83 e9 06	 sub	 ecx, 6
  0003c	89 4d a4	 mov	 DWORD PTR tv70[ebp], ecx
  0003f	83 7d a4 08	 cmp	 DWORD PTR tv70[ebp], 8
  00043	0f 87 22 05 00
	00		 ja	 $LN16@set_local_
  00049	8b 55 a4	 mov	 edx, DWORD PTR tv70[ebp]
  0004c	ff 24 95 00 00
	00 00		 jmp	 DWORD PTR $LN48@set_local_[edx*4]
$LN9@set_local_:

; 137  :    {
; 138  :       ////////////////////////////////////////
; 139  :       case VEC3D_TYPE_MOTION_VECTOR:
; 140  :       ////////////////////////////////////////
; 141  :       {
; 142  :          raw->mob.motion_vector = *v;

  00053	8b 45 fc	 mov	 eax, DWORD PTR _raw$[ebp]
  00056	83 c0 34	 add	 eax, 52			; 00000034H
  00059	8b 4d 10	 mov	 ecx, DWORD PTR _v$[ebp]
  0005c	8b 11		 mov	 edx, DWORD PTR [ecx]
  0005e	89 10		 mov	 DWORD PTR [eax], edx
  00060	8b 51 04	 mov	 edx, DWORD PTR [ecx+4]
  00063	89 50 04	 mov	 DWORD PTR [eax+4], edx
  00066	8b 49 08	 mov	 ecx, DWORD PTR [ecx+8]
  00069	89 48 08	 mov	 DWORD PTR [eax+8], ecx

; 143  : 
; 144  :          break;

  0006c	e9 72 05 00 00	 jmp	 $LN2@set_local_
$LN10@set_local_:

; 145  :       }
; 146  :       ////////////////////////////////////////
; 147  :       case VEC3D_TYPE_POSITION:
; 148  :       ////////////////////////////////////////
; 149  :       {
; 150  : 
; 151  :          float
; 152  :             heading;
; 153  : 
; 154  :          entity
; 155  : 				*dependent,
; 156  : 				*special_effect,
; 157  : 				*old_sector,
; 158  : 				*new_sector;
; 159  : 
; 160  : 			//
; 161  : 			// notify dependents of move, must be done before set_vec3d so children can work out delta positions
; 162  : 			//
; 163  : 
; 164  :          heading = 0.0;

  00071	0f 57 c0	 xorps	 xmm0, xmm0
  00074	f3 0f 11 45 f8	 movss	 DWORD PTR _heading$5[ebp], xmm0

; 165  : 
; 166  : 			//if (get_local_entity_type (en) == ENTITY_TYPE_HELICOPTER)
; 167  : 			{
; 168  : 
; 169  : 				heading = get_heading_from_attitude_matrix (raw->mob.attitude);

  00079	b8 0c 00 00 00	 mov	 eax, 12			; 0000000cH
  0007e	d1 e0		 shl	 eax, 1
  00080	8b 4d fc	 mov	 ecx, DWORD PTR _raw$[ebp]
  00083	8d 54 01 10	 lea	 edx, DWORD PTR [ecx+eax+16]
  00087	b8 04 00 00 00	 mov	 eax, 4
  0008c	d1 e0		 shl	 eax, 1
  0008e	51		 push	 ecx
  0008f	f3 0f 10 04 02	 movss	 xmm0, DWORD PTR [edx+eax]
  00094	f3 0f 11 04 24	 movss	 DWORD PTR [esp], xmm0
  00099	b9 0c 00 00 00	 mov	 ecx, 12			; 0000000cH
  0009e	d1 e1		 shl	 ecx, 1
  000a0	8b 55 fc	 mov	 edx, DWORD PTR _raw$[ebp]
  000a3	8d 44 0a 10	 lea	 eax, DWORD PTR [edx+ecx+16]
  000a7	b9 04 00 00 00	 mov	 ecx, 4
  000ac	6b d1 00	 imul	 edx, ecx, 0
  000af	51		 push	 ecx
  000b0	f3 0f 10 04 10	 movss	 xmm0, DWORD PTR [eax+edx]
  000b5	f3 0f 11 04 24	 movss	 DWORD PTR [esp], xmm0
  000ba	e8 00 00 00 00	 call	 ?atan2@@YGMMM@Z		; atan2
  000bf	d9 5d f8	 fstp	 DWORD PTR _heading$5[ebp]

; 170  : 	
; 171  : 				dependent = get_local_entity_first_child (en, LIST_TYPE_MOVEMENT_DEPENDENT);

  000c2	83 7d 08 00	 cmp	 DWORD PTR _en$[ebp], 0
  000c6	74 0a		 je	 SHORT $LN18@set_local_
  000c8	8b 45 08	 mov	 eax, DWORD PTR _en$[ebp]
  000cb	8b 08		 mov	 ecx, DWORD PTR [eax]
  000cd	89 4d a4	 mov	 DWORD PTR tv95[ebp], ecx
  000d0	eb 21		 jmp	 SHORT $LN19@set_local_
$LN18@set_local_:
  000d2	8b 15 00 00 00
	00		 mov	 edx, DWORD PTR ?__LINE__Var@?0??set_local_vec3d@@YGXPAUENTITY@@W4VEC3D_TYPES@@PAUVEC3D@@@Z@4JA
  000d8	83 c2 31	 add	 edx, 49			; 00000031H
  000db	52		 push	 edx
  000dc	68 00 00 00 00	 push	 OFFSET ??_C@_0EO@FKLNJLDA@c?3?2users?2nhv90?2projects?2eech?2ap@
  000e1	a1 00 00 00 00	 mov	 eax, DWORD PTR ?null_entity_pointer_message@@3PBDB ; null_entity_pointer_message
  000e6	50		 push	 eax
  000e7	e8 00 00 00 00	 call	 ?process_assert@@YGXPBD0H@Z ; process_assert
  000ec	c7 45 a4 00 00
	00 00		 mov	 DWORD PTR tv95[ebp], 0
$LN19@set_local_:
  000f3	b9 01 00 00 00	 mov	 ecx, 1
  000f8	85 c9		 test	 ecx, ecx
  000fa	74 09		 je	 SHORT $LN20@set_local_
  000fc	c7 45 a0 1a 00
	00 00		 mov	 DWORD PTR tv135[ebp], 26 ; 0000001aH
  00103	eb 21		 jmp	 SHORT $LN21@set_local_
$LN20@set_local_:
  00105	8b 15 00 00 00
	00		 mov	 edx, DWORD PTR ?__LINE__Var@?0??set_local_vec3d@@YGXPAUENTITY@@W4VEC3D_TYPES@@PAUVEC3D@@@Z@4JA
  0010b	83 c2 31	 add	 edx, 49			; 00000031H
  0010e	52		 push	 edx
  0010f	68 00 00 00 00	 push	 OFFSET ??_C@_0EO@FKLNJLDA@c?3?2users?2nhv90?2projects?2eech?2ap@
  00114	a1 00 00 00 00	 mov	 eax, DWORD PTR ?overload_invalid_list_type_message@@3PBDB ; overload_invalid_list_type_message
  00119	50		 push	 eax
  0011a	e8 00 00 00 00	 call	 ?process_assert@@YGXPBD0H@Z ; process_assert
  0011f	c7 45 a0 00 00
	00 00		 mov	 DWORD PTR tv135[ebp], 0
$LN21@set_local_:
  00126	6a 1a		 push	 26			; 0000001aH
  00128	8b 4d 08	 mov	 ecx, DWORD PTR _en$[ebp]
  0012b	51		 push	 ecx
  0012c	69 55 a4 b4 00
	00 00		 imul	 edx, DWORD PTR tv95[ebp], 180
  00133	8b 45 a0	 mov	 eax, DWORD PTR tv135[ebp]
  00136	8b 8c 82 00 00
	00 00		 mov	 ecx, DWORD PTR ?fn_get_local_entity_first_child@@3PAY0CN@P6GPAUENTITY@@PAU1@W4LIST_TYPES@@@ZA[edx+eax*4]
  0013d	ff d1		 call	 ecx
  0013f	89 45 f4	 mov	 DWORD PTR _dependent$4[ebp], eax
$LN4@set_local_:

; 172  : 	
; 173  : 				while (dependent)

  00142	83 7d f4 00	 cmp	 DWORD PTR _dependent$4[ebp], 0
  00146	0f 84 b8 00 00
	00		 je	 $LN5@set_local_

; 174  : 				{
; 175  : 					#if DEBUG_MODULE_AIRCRAFT_POSITION_MESSAGE
; 176  : 	
; 177  : 					debug_log ("AIRCRAFT VEC3D: sending set entity position %f, %f, %f", raw->mob.position.x, raw->mob.position.y, raw->mob.position.z);
; 178  : 	
; 179  : 					#endif
; 180  : 	
; 181  : 					notify_local_entity (ENTITY_MESSAGE_SET_ENTITY_POSITION, dependent, en, v, (double) heading, (double) raw->mob.velocity);

  0014c	8b 45 fc	 mov	 eax, DWORD PTR _raw$[ebp]
  0014f	f3 0f 5a 40 40	 cvtss2sd xmm0, DWORD PTR [eax+64]
  00154	83 ec 08	 sub	 esp, 8
  00157	f2 0f 11 04 24	 movsd	 QWORD PTR [esp], xmm0
  0015c	f3 0f 5a 45 f8	 cvtss2sd xmm0, DWORD PTR _heading$5[ebp]
  00161	83 ec 08	 sub	 esp, 8
  00164	f2 0f 11 04 24	 movsd	 QWORD PTR [esp], xmm0
  00169	8b 4d 10	 mov	 ecx, DWORD PTR _v$[ebp]
  0016c	51		 push	 ecx
  0016d	8b 55 08	 mov	 edx, DWORD PTR _en$[ebp]
  00170	52		 push	 edx
  00171	8b 45 f4	 mov	 eax, DWORD PTR _dependent$4[ebp]
  00174	50		 push	 eax
  00175	6a 30		 push	 48			; 00000030H
  00177	e8 00 00 00 00	 call	 ?notify_local_entity@@YAHW4ENTITY_MESSAGES@@PAUENTITY@@1ZZ ; notify_local_entity
  0017c	83 c4 20	 add	 esp, 32			; 00000020H

; 182  : 	
; 183  : 					dependent = get_local_entity_child_succ (dependent, LIST_TYPE_MOVEMENT_DEPENDENT);

  0017f	83 7d f4 00	 cmp	 DWORD PTR _dependent$4[ebp], 0
  00183	74 0a		 je	 SHORT $LN22@set_local_
  00185	8b 45 f4	 mov	 eax, DWORD PTR _dependent$4[ebp]
  00188	8b 08		 mov	 ecx, DWORD PTR [eax]
  0018a	89 4d a4	 mov	 DWORD PTR tv158[ebp], ecx
  0018d	eb 21		 jmp	 SHORT $LN23@set_local_
$LN22@set_local_:
  0018f	8b 15 00 00 00
	00		 mov	 edx, DWORD PTR ?__LINE__Var@?0??set_local_vec3d@@YGXPAUENTITY@@W4VEC3D_TYPES@@PAUVEC3D@@@Z@4JA
  00195	83 c2 3d	 add	 edx, 61			; 0000003dH
  00198	52		 push	 edx
  00199	68 00 00 00 00	 push	 OFFSET ??_C@_0EO@FKLNJLDA@c?3?2users?2nhv90?2projects?2eech?2ap@
  0019e	a1 00 00 00 00	 mov	 eax, DWORD PTR ?null_entity_pointer_message@@3PBDB ; null_entity_pointer_message
  001a3	50		 push	 eax
  001a4	e8 00 00 00 00	 call	 ?process_assert@@YGXPBD0H@Z ; process_assert
  001a9	c7 45 a4 00 00
	00 00		 mov	 DWORD PTR tv158[ebp], 0
$LN23@set_local_:
  001b0	b9 01 00 00 00	 mov	 ecx, 1
  001b5	85 c9		 test	 ecx, ecx
  001b7	74 09		 je	 SHORT $LN24@set_local_
  001b9	c7 45 a0 1a 00
	00 00		 mov	 DWORD PTR tv166[ebp], 26 ; 0000001aH
  001c0	eb 21		 jmp	 SHORT $LN25@set_local_
$LN24@set_local_:
  001c2	8b 15 00 00 00
	00		 mov	 edx, DWORD PTR ?__LINE__Var@?0??set_local_vec3d@@YGXPAUENTITY@@W4VEC3D_TYPES@@PAUVEC3D@@@Z@4JA
  001c8	83 c2 3d	 add	 edx, 61			; 0000003dH
  001cb	52		 push	 edx
  001cc	68 00 00 00 00	 push	 OFFSET ??_C@_0EO@FKLNJLDA@c?3?2users?2nhv90?2projects?2eech?2ap@
  001d1	a1 00 00 00 00	 mov	 eax, DWORD PTR ?overload_invalid_list_type_message@@3PBDB ; overload_invalid_list_type_message
  001d6	50		 push	 eax
  001d7	e8 00 00 00 00	 call	 ?process_assert@@YGXPBD0H@Z ; process_assert
  001dc	c7 45 a0 00 00
	00 00		 mov	 DWORD PTR tv166[ebp], 0
$LN25@set_local_:
  001e3	6a 1a		 push	 26			; 0000001aH
  001e5	8b 4d f4	 mov	 ecx, DWORD PTR _dependent$4[ebp]
  001e8	51		 push	 ecx
  001e9	69 55 a4 b4 00
	00 00		 imul	 edx, DWORD PTR tv158[ebp], 180
  001f0	8b 45 a0	 mov	 eax, DWORD PTR tv166[ebp]
  001f3	8b 8c 82 00 00
	00 00		 mov	 ecx, DWORD PTR ?fn_get_local_entity_child_succ@@3PAY0CN@P6GPAUENTITY@@PAU1@W4LIST_TYPES@@@ZA[edx+eax*4]
  001fa	ff d1		 call	 ecx
  001fc	89 45 f4	 mov	 DWORD PTR _dependent$4[ebp], eax

; 184  : 				}

  001ff	e9 3e ff ff ff	 jmp	 $LN4@set_local_
$LN5@set_local_:

; 185  : 			}
; 186  : 
; 187  : 			//
; 188  : 			// Actual set_vec3d
; 189  : 			//
; 190  : 
; 191  :          raw->mob.position = *v;

  00204	8b 45 fc	 mov	 eax, DWORD PTR _raw$[ebp]
  00207	83 c0 04	 add	 eax, 4
  0020a	8b 4d 10	 mov	 ecx, DWORD PTR _v$[ebp]
  0020d	8b 11		 mov	 edx, DWORD PTR [ecx]
  0020f	89 10		 mov	 DWORD PTR [eax], edx
  00211	8b 51 04	 mov	 edx, DWORD PTR [ecx+4]
  00214	89 50 04	 mov	 DWORD PTR [eax+4], edx
  00217	8b 49 08	 mov	 ecx, DWORD PTR [ecx+8]
  0021a	89 48 08	 mov	 DWORD PTR [eax+8], ecx

; 192  : 
; 193  : 			//
; 194  : 			// check if entered new sector
; 195  : 			//
; 196  : 
; 197  : 			old_sector = get_local_entity_parent (en, LIST_TYPE_SECTOR);

  0021d	83 7d 08 00	 cmp	 DWORD PTR _en$[ebp], 0
  00221	74 0a		 je	 SHORT $LN26@set_local_
  00223	8b 45 08	 mov	 eax, DWORD PTR _en$[ebp]
  00226	8b 08		 mov	 ecx, DWORD PTR [eax]
  00228	89 4d a4	 mov	 DWORD PTR tv181[ebp], ecx
  0022b	eb 21		 jmp	 SHORT $LN27@set_local_
$LN26@set_local_:
  0022d	8b 15 00 00 00
	00		 mov	 edx, DWORD PTR ?__LINE__Var@?0??set_local_vec3d@@YGXPAUENTITY@@W4VEC3D_TYPES@@PAUVEC3D@@@Z@4JA
  00233	83 c2 4b	 add	 edx, 75			; 0000004bH
  00236	52		 push	 edx
  00237	68 00 00 00 00	 push	 OFFSET ??_C@_0EO@FKLNJLDA@c?3?2users?2nhv90?2projects?2eech?2ap@
  0023c	a1 00 00 00 00	 mov	 eax, DWORD PTR ?null_entity_pointer_message@@3PBDB ; null_entity_pointer_message
  00241	50		 push	 eax
  00242	e8 00 00 00 00	 call	 ?process_assert@@YGXPBD0H@Z ; process_assert
  00247	c7 45 a4 00 00
	00 00		 mov	 DWORD PTR tv181[ebp], 0
$LN27@set_local_:
  0024e	b9 01 00 00 00	 mov	 ecx, 1
  00253	85 c9		 test	 ecx, ecx
  00255	74 09		 je	 SHORT $LN28@set_local_
  00257	c7 45 a0 21 00
	00 00		 mov	 DWORD PTR tv189[ebp], 33 ; 00000021H
  0025e	eb 21		 jmp	 SHORT $LN29@set_local_
$LN28@set_local_:
  00260	8b 15 00 00 00
	00		 mov	 edx, DWORD PTR ?__LINE__Var@?0??set_local_vec3d@@YGXPAUENTITY@@W4VEC3D_TYPES@@PAUVEC3D@@@Z@4JA
  00266	83 c2 4b	 add	 edx, 75			; 0000004bH
  00269	52		 push	 edx
  0026a	68 00 00 00 00	 push	 OFFSET ??_C@_0EO@FKLNJLDA@c?3?2users?2nhv90?2projects?2eech?2ap@
  0026f	a1 00 00 00 00	 mov	 eax, DWORD PTR ?overload_invalid_list_type_message@@3PBDB ; overload_invalid_list_type_message
  00274	50		 push	 eax
  00275	e8 00 00 00 00	 call	 ?process_assert@@YGXPBD0H@Z ; process_assert
  0027a	c7 45 a0 00 00
	00 00		 mov	 DWORD PTR tv189[ebp], 0
$LN29@set_local_:
  00281	6a 21		 push	 33			; 00000021H
  00283	8b 4d 08	 mov	 ecx, DWORD PTR _en$[ebp]
  00286	51		 push	 ecx
  00287	69 55 a4 b4 00
	00 00		 imul	 edx, DWORD PTR tv181[ebp], 180
  0028e	8b 45 a0	 mov	 eax, DWORD PTR tv189[ebp]
  00291	8b 8c 82 00 00
	00 00		 mov	 ecx, DWORD PTR ?fn_get_local_entity_parent@@3PAY0CN@P6GPAUENTITY@@PAU1@W4LIST_TYPES@@@ZA[edx+eax*4]
  00298	ff d1		 call	 ecx
  0029a	89 45 ec	 mov	 DWORD PTR _old_sector$2[ebp], eax

; 198  : 
; 199  : 			new_sector = get_local_sector_entity (v);

  0029d	8b 45 10	 mov	 eax, DWORD PTR _v$[ebp]
  002a0	50		 push	 eax
  002a1	e8 00 00 00 00	 call	 ?get_local_sector_entity@@YGPAUENTITY@@PAUVEC3D@@@Z ; get_local_sector_entity
  002a6	89 45 e8	 mov	 DWORD PTR _new_sector$1[ebp], eax

; 200  : 
; 201  :          if (old_sector != new_sector)

  002a9	8b 45 ec	 mov	 eax, DWORD PTR _old_sector$2[ebp]
  002ac	3b 45 e8	 cmp	 eax, DWORD PTR _new_sector$1[ebp]
  002af	0f 84 2f 01 00
	00		 je	 $LN13@set_local_

; 202  :          {
; 203  :             delete_local_entity_from_parents_child_list (en, LIST_TYPE_SECTOR);

  002b5	6a 21		 push	 33			; 00000021H
  002b7	8b 45 08	 mov	 eax, DWORD PTR _en$[ebp]
  002ba	50		 push	 eax
  002bb	e8 00 00 00 00	 call	 ?delete_local_entity_from_parents_child_list@@YGXPAUENTITY@@W4LIST_TYPES@@@Z ; delete_local_entity_from_parents_child_list

; 204  : 
; 205  :             insert_local_entity_into_parents_child_list (en, LIST_TYPE_SECTOR, new_sector, NULL);

  002c0	6a 00		 push	 0
  002c2	8b 45 e8	 mov	 eax, DWORD PTR _new_sector$1[ebp]
  002c5	50		 push	 eax
  002c6	6a 21		 push	 33			; 00000021H
  002c8	8b 4d 08	 mov	 ecx, DWORD PTR _en$[ebp]
  002cb	51		 push	 ecx
  002cc	e8 00 00 00 00	 call	 ?insert_local_entity_into_parents_child_list@@YGXPAUENTITY@@W4LIST_TYPES@@00@Z ; insert_local_entity_into_parents_child_list

; 206  : 
; 207  : 				//
; 208  : 				// play speech for flown across "front-line"
; 209  : 				//
; 210  : 
; 211  : 				if (get_comms_model () == COMMS_MODEL_SERVER)

  002d1	83 3d 00 00 00
	00 00		 cmp	 DWORD PTR ?system_comms_model@@3W4COMMS_MODEL_TYPES@@A, 0 ; system_comms_model
  002d8	0f 85 06 01 00
	00		 jne	 $LN13@set_local_

; 212  : 				{
; 213  : 					if (get_local_entity_int_value (new_sector, INT_TYPE_SIDE) != get_local_entity_int_value (old_sector, INT_TYPE_SIDE))

  002de	83 7d e8 00	 cmp	 DWORD PTR _new_sector$1[ebp], 0
  002e2	74 0a		 je	 SHORT $LN30@set_local_
  002e4	8b 45 e8	 mov	 eax, DWORD PTR _new_sector$1[ebp]
  002e7	8b 08		 mov	 ecx, DWORD PTR [eax]
  002e9	89 4d a4	 mov	 DWORD PTR tv210[ebp], ecx
  002ec	eb 1d		 jmp	 SHORT $LN31@set_local_
$LN30@set_local_:
  002ee	68 d5 00 00 00	 push	 213			; 000000d5H
  002f3	68 00 00 00 00	 push	 OFFSET ??_C@_0EO@FKLNJLDA@c?3?2users?2nhv90?2projects?2eech?2ap@
  002f8	8b 15 00 00 00
	00		 mov	 edx, DWORD PTR ?null_entity_pointer_message@@3PBDB ; null_entity_pointer_message
  002fe	52		 push	 edx
  002ff	e8 00 00 00 00	 call	 ?process_assert@@YGXPBD0H@Z ; process_assert
  00304	c7 45 a4 00 00
	00 00		 mov	 DWORD PTR tv210[ebp], 0
$LN31@set_local_:
  0030b	b8 01 00 00 00	 mov	 eax, 1
  00310	85 c0		 test	 eax, eax
  00312	74 09		 je	 SHORT $LN32@set_local_
  00314	c7 45 a0 bb 00
	00 00		 mov	 DWORD PTR tv217[ebp], 187 ; 000000bbH
  0031b	eb 1d		 jmp	 SHORT $LN33@set_local_
$LN32@set_local_:
  0031d	68 d5 00 00 00	 push	 213			; 000000d5H
  00322	68 00 00 00 00	 push	 OFFSET ??_C@_0EO@FKLNJLDA@c?3?2users?2nhv90?2projects?2eech?2ap@
  00327	8b 0d 00 00 00
	00		 mov	 ecx, DWORD PTR ?overload_invalid_int_type_message@@3PBDB ; overload_invalid_int_type_message
  0032d	51		 push	 ecx
  0032e	e8 00 00 00 00	 call	 ?process_assert@@YGXPBD0H@Z ; process_assert
  00333	c7 45 a0 00 00
	00 00		 mov	 DWORD PTR tv217[ebp], 0
$LN33@set_local_:
  0033a	83 7d ec 00	 cmp	 DWORD PTR _old_sector$2[ebp], 0
  0033e	74 0a		 je	 SHORT $LN34@set_local_
  00340	8b 55 ec	 mov	 edx, DWORD PTR _old_sector$2[ebp]
  00343	8b 02		 mov	 eax, DWORD PTR [edx]
  00345	89 45 9c	 mov	 DWORD PTR tv228[ebp], eax
  00348	eb 1d		 jmp	 SHORT $LN35@set_local_
$LN34@set_local_:
  0034a	68 d5 00 00 00	 push	 213			; 000000d5H
  0034f	68 00 00 00 00	 push	 OFFSET ??_C@_0EO@FKLNJLDA@c?3?2users?2nhv90?2projects?2eech?2ap@
  00354	8b 0d 00 00 00
	00		 mov	 ecx, DWORD PTR ?null_entity_pointer_message@@3PBDB ; null_entity_pointer_message
  0035a	51		 push	 ecx
  0035b	e8 00 00 00 00	 call	 ?process_assert@@YGXPBD0H@Z ; process_assert
  00360	c7 45 9c 00 00
	00 00		 mov	 DWORD PTR tv228[ebp], 0
$LN35@set_local_:
  00367	ba 01 00 00 00	 mov	 edx, 1
  0036c	85 d2		 test	 edx, edx
  0036e	74 09		 je	 SHORT $LN36@set_local_
  00370	c7 45 98 bb 00
	00 00		 mov	 DWORD PTR tv235[ebp], 187 ; 000000bbH
  00377	eb 1c		 jmp	 SHORT $LN37@set_local_
$LN36@set_local_:
  00379	68 d5 00 00 00	 push	 213			; 000000d5H
  0037e	68 00 00 00 00	 push	 OFFSET ??_C@_0EO@FKLNJLDA@c?3?2users?2nhv90?2projects?2eech?2ap@
  00383	a1 00 00 00 00	 mov	 eax, DWORD PTR ?overload_invalid_int_type_message@@3PBDB ; overload_invalid_int_type_message
  00388	50		 push	 eax
  00389	e8 00 00 00 00	 call	 ?process_assert@@YGXPBD0H@Z ; process_assert
  0038e	c7 45 98 00 00
	00 00		 mov	 DWORD PTR tv235[ebp], 0
$LN37@set_local_:
  00395	68 bb 00 00 00	 push	 187			; 000000bbH
  0039a	8b 4d e8	 mov	 ecx, DWORD PTR _new_sector$1[ebp]
  0039d	51		 push	 ecx
  0039e	69 55 a4 5c 04
	00 00		 imul	 edx, DWORD PTR tv210[ebp], 1116
  003a5	8b 45 a0	 mov	 eax, DWORD PTR tv217[ebp]
  003a8	8b 8c 82 00 00
	00 00		 mov	 ecx, DWORD PTR ?fn_get_local_entity_int_value@@3PAY0BBH@P6GHPAUENTITY@@W4INT_TYPES@@@ZA[edx+eax*4]
  003af	ff d1		 call	 ecx
  003b1	8b f0		 mov	 esi, eax
  003b3	68 bb 00 00 00	 push	 187			; 000000bbH
  003b8	8b 55 ec	 mov	 edx, DWORD PTR _old_sector$2[ebp]
  003bb	52		 push	 edx
  003bc	69 45 9c 5c 04
	00 00		 imul	 eax, DWORD PTR tv228[ebp], 1116
  003c3	8b 4d 98	 mov	 ecx, DWORD PTR tv235[ebp]
  003c6	8b 94 88 00 00
	00 00		 mov	 edx, DWORD PTR ?fn_get_local_entity_int_value@@3PAY0BBH@P6GHPAUENTITY@@W4INT_TYPES@@@ZA[eax+ecx*4]
  003cd	ff d2		 call	 edx
  003cf	3b f0		 cmp	 esi, eax
  003d1	74 11		 je	 SHORT $LN13@set_local_

; 214  : 					{
; 215  : 						play_aircraft_flown_into_new_sector_speech (en, old_sector, new_sector);

  003d3	8b 45 e8	 mov	 eax, DWORD PTR _new_sector$1[ebp]
  003d6	50		 push	 eax
  003d7	8b 4d ec	 mov	 ecx, DWORD PTR _old_sector$2[ebp]
  003da	51		 push	 ecx
  003db	8b 55 08	 mov	 edx, DWORD PTR _en$[ebp]
  003de	52		 push	 edx
  003df	e8 00 00 00 00	 call	 ?play_aircraft_flown_into_new_sector_speech@@YGXPAUENTITY@@00@Z ; play_aircraft_flown_into_new_sector_speech
$LN13@set_local_:

; 216  : 					}
; 217  : 				}
; 218  :          }
; 219  : 
; 220  : 			//
; 221  : 			// notify special effects of move
; 222  : 			//
; 223  : 
; 224  : 			special_effect = get_local_entity_first_child (en, LIST_TYPE_SPECIAL_EFFECT);

  003e4	83 7d 08 00	 cmp	 DWORD PTR _en$[ebp], 0
  003e8	74 0a		 je	 SHORT $LN38@set_local_
  003ea	8b 45 08	 mov	 eax, DWORD PTR _en$[ebp]
  003ed	8b 08		 mov	 ecx, DWORD PTR [eax]
  003ef	89 4d a4	 mov	 DWORD PTR tv251[ebp], ecx
  003f2	eb 21		 jmp	 SHORT $LN39@set_local_
$LN38@set_local_:
  003f4	8b 15 00 00 00
	00		 mov	 edx, DWORD PTR ?__LINE__Var@?0??set_local_vec3d@@YGXPAUENTITY@@W4VEC3D_TYPES@@PAUVEC3D@@@Z@4JA
  003fa	83 c2 66	 add	 edx, 102		; 00000066H
  003fd	52		 push	 edx
  003fe	68 00 00 00 00	 push	 OFFSET ??_C@_0EO@FKLNJLDA@c?3?2users?2nhv90?2projects?2eech?2ap@
  00403	a1 00 00 00 00	 mov	 eax, DWORD PTR ?null_entity_pointer_message@@3PBDB ; null_entity_pointer_message
  00408	50		 push	 eax
  00409	e8 00 00 00 00	 call	 ?process_assert@@YGXPBD0H@Z ; process_assert
  0040e	c7 45 a4 00 00
	00 00		 mov	 DWORD PTR tv251[ebp], 0
$LN39@set_local_:
  00415	b9 01 00 00 00	 mov	 ecx, 1
  0041a	85 c9		 test	 ecx, ecx
  0041c	74 09		 je	 SHORT $LN40@set_local_
  0041e	c7 45 a0 24 00
	00 00		 mov	 DWORD PTR tv259[ebp], 36 ; 00000024H
  00425	eb 21		 jmp	 SHORT $LN41@set_local_
$LN40@set_local_:
  00427	8b 15 00 00 00
	00		 mov	 edx, DWORD PTR ?__LINE__Var@?0??set_local_vec3d@@YGXPAUENTITY@@W4VEC3D_TYPES@@PAUVEC3D@@@Z@4JA
  0042d	83 c2 66	 add	 edx, 102		; 00000066H
  00430	52		 push	 edx
  00431	68 00 00 00 00	 push	 OFFSET ??_C@_0EO@FKLNJLDA@c?3?2users?2nhv90?2projects?2eech?2ap@
  00436	a1 00 00 00 00	 mov	 eax, DWORD PTR ?overload_invalid_list_type_message@@3PBDB ; overload_invalid_list_type_message
  0043b	50		 push	 eax
  0043c	e8 00 00 00 00	 call	 ?process_assert@@YGXPBD0H@Z ; process_assert
  00441	c7 45 a0 00 00
	00 00		 mov	 DWORD PTR tv259[ebp], 0
$LN41@set_local_:
  00448	6a 24		 push	 36			; 00000024H
  0044a	8b 4d 08	 mov	 ecx, DWORD PTR _en$[ebp]
  0044d	51		 push	 ecx
  0044e	69 55 a4 b4 00
	00 00		 imul	 edx, DWORD PTR tv251[ebp], 180
  00455	8b 45 a0	 mov	 eax, DWORD PTR tv259[ebp]
  00458	8b 8c 82 00 00
	00 00		 mov	 ecx, DWORD PTR ?fn_get_local_entity_first_child@@3PAY0CN@P6GPAUENTITY@@PAU1@W4LIST_TYPES@@@ZA[edx+eax*4]
  0045f	ff d1		 call	 ecx
  00461	89 45 f0	 mov	 DWORD PTR _special_effect$3[ebp], eax
$LN6@set_local_:

; 225  : 
; 226  : 			while (special_effect)

  00464	83 7d f0 00	 cmp	 DWORD PTR _special_effect$3[ebp], 0
  00468	0f 84 bb 00 00
	00		 je	 $LN7@set_local_

; 227  : 			{
; 228  : 				#if DEBUG_MODULE_AIRCRAFT_POSITION_MESSAGE
; 229  : 
; 230  : 				debug_log ("AIRCRAFT VEC3D: sending set entity position %f, %f, %f", raw->mob.position.x, raw->mob.position.y, raw->mob.position.z);
; 231  : 
; 232  : 				#endif
; 233  : 
; 234  : 				notify_local_entity (ENTITY_MESSAGE_SET_ENTITY_POSITION, special_effect, en, &raw->mob.position, (double) heading, (double) raw->mob.velocity);

  0046e	8b 45 fc	 mov	 eax, DWORD PTR _raw$[ebp]
  00471	f3 0f 5a 40 40	 cvtss2sd xmm0, DWORD PTR [eax+64]
  00476	83 ec 08	 sub	 esp, 8
  00479	f2 0f 11 04 24	 movsd	 QWORD PTR [esp], xmm0
  0047e	f3 0f 5a 45 f8	 cvtss2sd xmm0, DWORD PTR _heading$5[ebp]
  00483	83 ec 08	 sub	 esp, 8
  00486	f2 0f 11 04 24	 movsd	 QWORD PTR [esp], xmm0
  0048b	8b 4d fc	 mov	 ecx, DWORD PTR _raw$[ebp]
  0048e	83 c1 04	 add	 ecx, 4
  00491	51		 push	 ecx
  00492	8b 55 08	 mov	 edx, DWORD PTR _en$[ebp]
  00495	52		 push	 edx
  00496	8b 45 f0	 mov	 eax, DWORD PTR _special_effect$3[ebp]
  00499	50		 push	 eax
  0049a	6a 30		 push	 48			; 00000030H
  0049c	e8 00 00 00 00	 call	 ?notify_local_entity@@YAHW4ENTITY_MESSAGES@@PAUENTITY@@1ZZ ; notify_local_entity
  004a1	83 c4 20	 add	 esp, 32			; 00000020H

; 235  : 
; 236  : 				special_effect = get_local_entity_child_succ (special_effect, LIST_TYPE_SPECIAL_EFFECT);

  004a4	83 7d f0 00	 cmp	 DWORD PTR _special_effect$3[ebp], 0
  004a8	74 0a		 je	 SHORT $LN42@set_local_
  004aa	8b 45 f0	 mov	 eax, DWORD PTR _special_effect$3[ebp]
  004ad	8b 08		 mov	 ecx, DWORD PTR [eax]
  004af	89 4d a4	 mov	 DWORD PTR tv284[ebp], ecx
  004b2	eb 21		 jmp	 SHORT $LN43@set_local_
$LN42@set_local_:
  004b4	8b 15 00 00 00
	00		 mov	 edx, DWORD PTR ?__LINE__Var@?0??set_local_vec3d@@YGXPAUENTITY@@W4VEC3D_TYPES@@PAUVEC3D@@@Z@4JA
  004ba	83 c2 72	 add	 edx, 114		; 00000072H
  004bd	52		 push	 edx
  004be	68 00 00 00 00	 push	 OFFSET ??_C@_0EO@FKLNJLDA@c?3?2users?2nhv90?2projects?2eech?2ap@
  004c3	a1 00 00 00 00	 mov	 eax, DWORD PTR ?null_entity_pointer_message@@3PBDB ; null_entity_pointer_message
  004c8	50		 push	 eax
  004c9	e8 00 00 00 00	 call	 ?process_assert@@YGXPBD0H@Z ; process_assert
  004ce	c7 45 a4 00 00
	00 00		 mov	 DWORD PTR tv284[ebp], 0
$LN43@set_local_:
  004d5	b9 01 00 00 00	 mov	 ecx, 1
  004da	85 c9		 test	 ecx, ecx
  004dc	74 09		 je	 SHORT $LN44@set_local_
  004de	c7 45 a0 24 00
	00 00		 mov	 DWORD PTR tv292[ebp], 36 ; 00000024H
  004e5	eb 21		 jmp	 SHORT $LN45@set_local_
$LN44@set_local_:
  004e7	8b 15 00 00 00
	00		 mov	 edx, DWORD PTR ?__LINE__Var@?0??set_local_vec3d@@YGXPAUENTITY@@W4VEC3D_TYPES@@PAUVEC3D@@@Z@4JA
  004ed	83 c2 72	 add	 edx, 114		; 00000072H
  004f0	52		 push	 edx
  004f1	68 00 00 00 00	 push	 OFFSET ??_C@_0EO@FKLNJLDA@c?3?2users?2nhv90?2projects?2eech?2ap@
  004f6	a1 00 00 00 00	 mov	 eax, DWORD PTR ?overload_invalid_list_type_message@@3PBDB ; overload_invalid_list_type_message
  004fb	50		 push	 eax
  004fc	e8 00 00 00 00	 call	 ?process_assert@@YGXPBD0H@Z ; process_assert
  00501	c7 45 a0 00 00
	00 00		 mov	 DWORD PTR tv292[ebp], 0
$LN45@set_local_:
  00508	6a 24		 push	 36			; 00000024H
  0050a	8b 4d f0	 mov	 ecx, DWORD PTR _special_effect$3[ebp]
  0050d	51		 push	 ecx
  0050e	69 55 a4 b4 00
	00 00		 imul	 edx, DWORD PTR tv284[ebp], 180
  00515	8b 45 a0	 mov	 eax, DWORD PTR tv292[ebp]
  00518	8b 8c 82 00 00
	00 00		 mov	 ecx, DWORD PTR ?fn_get_local_entity_child_succ@@3PAY0CN@P6GPAUENTITY@@PAU1@W4LIST_TYPES@@@ZA[edx+eax*4]
  0051f	ff d1		 call	 ecx
  00521	89 45 f0	 mov	 DWORD PTR _special_effect$3[ebp], eax

; 237  : 			}

  00524	e9 3b ff ff ff	 jmp	 $LN6@set_local_
$LN7@set_local_:

; 238  : 
; 239  :          break;

  00529	e9 b5 00 00 00	 jmp	 $LN2@set_local_
$LN14@set_local_:

; 240  :       }
; 241  :       ////////////////////////////////////////
; 242  :       case VEC3D_TYPE_WEAPON_TO_TARGET_VECTOR:
; 243  :       ////////////////////////////////////////
; 244  :       {
; 245  :          raw->weapon_to_target_vector = *v;

  0052e	8b 45 fc	 mov	 eax, DWORD PTR _raw$[ebp]
  00531	05 48 01 00 00	 add	 eax, 328		; 00000148H
  00536	8b 4d 10	 mov	 ecx, DWORD PTR _v$[ebp]
  00539	8b 11		 mov	 edx, DWORD PTR [ecx]
  0053b	89 10		 mov	 DWORD PTR [eax], edx
  0053d	8b 51 04	 mov	 edx, DWORD PTR [ecx+4]
  00540	89 50 04	 mov	 DWORD PTR [eax+4], edx
  00543	8b 49 08	 mov	 ecx, DWORD PTR [ecx+8]
  00546	89 48 08	 mov	 DWORD PTR [eax+8], ecx

; 246  : 
; 247  :          break;

  00549	e9 95 00 00 00	 jmp	 $LN2@set_local_
$LN15@set_local_:

; 248  :       }
; 249  :       ////////////////////////////////////////
; 250  :       case VEC3D_TYPE_WEAPON_VECTOR:
; 251  :       ////////////////////////////////////////
; 252  :       {
; 253  :          raw->weapon_vector = *v;

  0054e	8b 45 fc	 mov	 eax, DWORD PTR _raw$[ebp]
  00551	05 3c 01 00 00	 add	 eax, 316		; 0000013cH
  00556	8b 4d 10	 mov	 ecx, DWORD PTR _v$[ebp]
  00559	8b 11		 mov	 edx, DWORD PTR [ecx]
  0055b	89 10		 mov	 DWORD PTR [eax], edx
  0055d	8b 51 04	 mov	 edx, DWORD PTR [ecx+4]
  00560	89 50 04	 mov	 DWORD PTR [eax+4], edx
  00563	8b 49 08	 mov	 ecx, DWORD PTR [ecx+8]
  00566	89 48 08	 mov	 DWORD PTR [eax+8], ecx

; 254  : 
; 255  :          break;

  00569	eb 78		 jmp	 SHORT $LN2@set_local_
$LN16@set_local_:

; 256  :       }
; 257  :       ////////////////////////////////////////
; 258  :       default:
; 259  :       ////////////////////////////////////////
; 260  :       {
; 261  :          debug_fatal_invalid_vec3d_type (en, type);

  0056b	83 7d 08 00	 cmp	 DWORD PTR _en$[ebp], 0
  0056f	74 0a		 je	 SHORT $LN46@set_local_
  00571	8b 45 08	 mov	 eax, DWORD PTR _en$[ebp]
  00574	8b 08		 mov	 ecx, DWORD PTR [eax]
  00576	89 4d a4	 mov	 DWORD PTR tv318[ebp], ecx
  00579	eb 24		 jmp	 SHORT $LN47@set_local_
$LN46@set_local_:
  0057b	8b 15 00 00 00
	00		 mov	 edx, DWORD PTR ?__LINE__Var@?0??set_local_vec3d@@YGXPAUENTITY@@W4VEC3D_TYPES@@PAUVEC3D@@@Z@4JA
  00581	81 c2 8b 00 00
	00		 add	 edx, 139		; 0000008bH
  00587	52		 push	 edx
  00588	68 00 00 00 00	 push	 OFFSET ??_C@_0EO@FKLNJLDA@c?3?2users?2nhv90?2projects?2eech?2ap@
  0058d	a1 00 00 00 00	 mov	 eax, DWORD PTR ?null_entity_pointer_message@@3PBDB ; null_entity_pointer_message
  00592	50		 push	 eax
  00593	e8 00 00 00 00	 call	 ?process_assert@@YGXPBD0H@Z ; process_assert
  00598	c7 45 a4 00 00
	00 00		 mov	 DWORD PTR tv318[ebp], 0
$LN47@set_local_:
  0059f	8b 0d 00 00 00
	00		 mov	 ecx, DWORD PTR ?__LINE__Var@?0??set_local_vec3d@@YGXPAUENTITY@@W4VEC3D_TYPES@@PAUVEC3D@@@Z@4JA
  005a5	81 c1 8b 00 00
	00		 add	 ecx, 139		; 0000008bH
  005ab	51		 push	 ecx
  005ac	68 00 00 00 00	 push	 OFFSET ??_C@_0EO@FKLNJLDA@c?3?2users?2nhv90?2projects?2eech?2ap@
  005b1	6b 55 0c 0c	 imul	 edx, DWORD PTR _type$[ebp], 12
  005b5	8b 82 00 00 00
	00		 mov	 eax, DWORD PTR ?vec3d_type_database@@3PAUVEC3D_TYPE_DATA@@A[edx]
  005bb	50		 push	 eax
  005bc	8b 4d 08	 mov	 ecx, DWORD PTR _en$[ebp]
  005bf	2b 0d 00 00 00
	00		 sub	 ecx, DWORD PTR ?entities@@3PAUENTITY@@A ; entities
  005c5	c1 f9 04	 sar	 ecx, 4
  005c8	51		 push	 ecx
  005c9	6b 55 a4 0c	 imul	 edx, DWORD PTR tv318[ebp], 12
  005cd	8b 82 00 00 00
	00		 mov	 eax, DWORD PTR ?entity_type_database@@3PAUENTITY_TYPE_DATA@@A[edx]
  005d3	50		 push	 eax
  005d4	8b 0d 00 00 00
	00		 mov	 ecx, DWORD PTR ?debug_fatal_invalid_vec3d_type_message@@3PBDB ; debug_fatal_invalid_vec3d_type_message
  005da	51		 push	 ecx
  005db	e8 00 00 00 00	 call	 ?debug_fatal@@YAXPBDZZ	; debug_fatal
  005e0	83 c4 18	 add	 esp, 24			; 00000018H
$LN2@set_local_:

; 262  : 
; 263  :          break;
; 264  :       }
; 265  :    }
; 266  : }

  005e3	5f		 pop	 edi
  005e4	5e		 pop	 esi
  005e5	5b		 pop	 ebx
  005e6	8b e5		 mov	 esp, ebp
  005e8	5d		 pop	 ebp
  005e9	c2 0c 00	 ret	 12			; 0000000cH
$LN48@set_local_:
  005ec	00 00 00 00	 DD	 $LN9@set_local_
  005f0	00 00 00 00	 DD	 $LN16@set_local_
  005f4	00 00 00 00	 DD	 $LN10@set_local_
  005f8	00 00 00 00	 DD	 $LN16@set_local_
  005fc	00 00 00 00	 DD	 $LN16@set_local_
  00600	00 00 00 00	 DD	 $LN16@set_local_
  00604	00 00 00 00	 DD	 $LN16@set_local_
  00608	00 00 00 00	 DD	 $LN14@set_local_
  0060c	00 00 00 00	 DD	 $LN15@set_local_
?set_local_vec3d@@YGXPAUENTITY@@W4VEC3D_TYPES@@PAUVEC3D@@@Z ENDP ; set_local_vec3d
_TEXT	ENDS
; Function compile flags: /Odtp /ZI
; File c:\users\nhv90\projects\eech\aphavoc\source\entity\mobile\aircraft\ac_vec3d.c
;	COMDAT ?set_local_raw_vec3d@@YGXPAUENTITY@@W4VEC3D_TYPES@@PAUVEC3D@@@Z
_TEXT	SEGMENT
tv90 = -72						; size = 4
tv70 = -72						; size = 4
_raw$ = -4						; size = 4
_en$ = 8						; size = 4
_type$ = 12						; size = 4
_v$ = 16						; size = 4
?set_local_raw_vec3d@@YGXPAUENTITY@@W4VEC3D_TYPES@@PAUVEC3D@@@Z PROC ; set_local_raw_vec3d, COMDAT

; 82   : {

  00000	55		 push	 ebp
  00001	8b ec		 mov	 ebp, esp
  00003	83 ec 48	 sub	 esp, 72			; 00000048H
  00006	53		 push	 ebx
  00007	56		 push	 esi
  00008	57		 push	 edi

; 83   :    aircraft
; 84   :       *raw;
; 85   : 
; 86   :    ASSERT (v);

  00009	83 7d 10 00	 cmp	 DWORD PTR _v$[ebp], 0
  0000d	75 18		 jne	 SHORT $LN4@set_local_
  0000f	a1 00 00 00 00	 mov	 eax, DWORD PTR ?__LINE__Var@?0??set_local_raw_vec3d@@YGXPAUENTITY@@W4VEC3D_TYPES@@PAUVEC3D@@@Z@4JA
  00014	83 c0 04	 add	 eax, 4
  00017	50		 push	 eax
  00018	68 00 00 00 00	 push	 OFFSET ??_C@_0EO@FKLNJLDA@c?3?2users?2nhv90?2projects?2eech?2ap@
  0001d	68 00 00 00 00	 push	 OFFSET ??_C@_01MHEDDDHA@v@
  00022	e8 00 00 00 00	 call	 ?process_assert@@YGXPBD0H@Z ; process_assert
$LN4@set_local_:

; 87   : 
; 88   :    #if DEBUG_MODULE
; 89   : 
; 90   :    debug_log_entity_args (ENTITY_DEBUG_LOCAL, ENTITY_DEBUG_VEC3D, en, type, v);
; 91   : 
; 92   :    #endif
; 93   : 
; 94   :    raw = (aircraft *) get_local_entity_data (en);

  00027	8b 45 08	 mov	 eax, DWORD PTR _en$[ebp]
  0002a	8b 48 04	 mov	 ecx, DWORD PTR [eax+4]
  0002d	89 4d fc	 mov	 DWORD PTR _raw$[ebp], ecx

; 95   : 
; 96   :    switch (type)

  00030	8b 45 0c	 mov	 eax, DWORD PTR _type$[ebp]
  00033	89 45 b8	 mov	 DWORD PTR tv70[ebp], eax
  00036	83 7d b8 08	 cmp	 DWORD PTR tv70[ebp], 8
  0003a	74 02		 je	 SHORT $LN5@set_local_
  0003c	eb 1b		 jmp	 SHORT $LN6@set_local_
$LN5@set_local_:

; 97   :    {
; 98   :       ////////////////////////////////////////
; 99   :       case VEC3D_TYPE_POSITION:
; 100  :       ////////////////////////////////////////
; 101  :       {
; 102  :          raw->mob.position = *v;

  0003e	8b 45 fc	 mov	 eax, DWORD PTR _raw$[ebp]
  00041	83 c0 04	 add	 eax, 4
  00044	8b 4d 10	 mov	 ecx, DWORD PTR _v$[ebp]
  00047	8b 11		 mov	 edx, DWORD PTR [ecx]
  00049	89 10		 mov	 DWORD PTR [eax], edx
  0004b	8b 51 04	 mov	 edx, DWORD PTR [ecx+4]
  0004e	89 50 04	 mov	 DWORD PTR [eax+4], edx
  00051	8b 49 08	 mov	 ecx, DWORD PTR [ecx+8]
  00054	89 48 08	 mov	 DWORD PTR [eax+8], ecx

; 103  : 
; 104  :          break;

  00057	eb 72		 jmp	 SHORT $LN1@set_local_
$LN6@set_local_:

; 105  :       }
; 106  :       ////////////////////////////////////////
; 107  :       default:
; 108  :       ////////////////////////////////////////
; 109  :       {
; 110  :          debug_fatal_invalid_vec3d_type (en, type);

  00059	83 7d 08 00	 cmp	 DWORD PTR _en$[ebp], 0
  0005d	74 0a		 je	 SHORT $LN8@set_local_
  0005f	8b 45 08	 mov	 eax, DWORD PTR _en$[ebp]
  00062	8b 08		 mov	 ecx, DWORD PTR [eax]
  00064	89 4d b8	 mov	 DWORD PTR tv90[ebp], ecx
  00067	eb 21		 jmp	 SHORT $LN9@set_local_
$LN8@set_local_:
  00069	8b 15 00 00 00
	00		 mov	 edx, DWORD PTR ?__LINE__Var@?0??set_local_raw_vec3d@@YGXPAUENTITY@@W4VEC3D_TYPES@@PAUVEC3D@@@Z@4JA
  0006f	83 c2 1c	 add	 edx, 28			; 0000001cH
  00072	52		 push	 edx
  00073	68 00 00 00 00	 push	 OFFSET ??_C@_0EO@FKLNJLDA@c?3?2users?2nhv90?2projects?2eech?2ap@
  00078	a1 00 00 00 00	 mov	 eax, DWORD PTR ?null_entity_pointer_message@@3PBDB ; null_entity_pointer_message
  0007d	50		 push	 eax
  0007e	e8 00 00 00 00	 call	 ?process_assert@@YGXPBD0H@Z ; process_assert
  00083	c7 45 b8 00 00
	00 00		 mov	 DWORD PTR tv90[ebp], 0
$LN9@set_local_:
  0008a	8b 0d 00 00 00
	00		 mov	 ecx, DWORD PTR ?__LINE__Var@?0??set_local_raw_vec3d@@YGXPAUENTITY@@W4VEC3D_TYPES@@PAUVEC3D@@@Z@4JA
  00090	83 c1 1c	 add	 ecx, 28			; 0000001cH
  00093	51		 push	 ecx
  00094	68 00 00 00 00	 push	 OFFSET ??_C@_0EO@FKLNJLDA@c?3?2users?2nhv90?2projects?2eech?2ap@
  00099	6b 55 0c 0c	 imul	 edx, DWORD PTR _type$[ebp], 12
  0009d	8b 82 00 00 00
	00		 mov	 eax, DWORD PTR ?vec3d_type_database@@3PAUVEC3D_TYPE_DATA@@A[edx]
  000a3	50		 push	 eax
  000a4	8b 4d 08	 mov	 ecx, DWORD PTR _en$[ebp]
  000a7	2b 0d 00 00 00
	00		 sub	 ecx, DWORD PTR ?entities@@3PAUENTITY@@A ; entities
  000ad	c1 f9 04	 sar	 ecx, 4
  000b0	51		 push	 ecx
  000b1	6b 55 b8 0c	 imul	 edx, DWORD PTR tv90[ebp], 12
  000b5	8b 82 00 00 00
	00		 mov	 eax, DWORD PTR ?entity_type_database@@3PAUENTITY_TYPE_DATA@@A[edx]
  000bb	50		 push	 eax
  000bc	8b 0d 00 00 00
	00		 mov	 ecx, DWORD PTR ?debug_fatal_invalid_vec3d_type_message@@3PBDB ; debug_fatal_invalid_vec3d_type_message
  000c2	51		 push	 ecx
  000c3	e8 00 00 00 00	 call	 ?debug_fatal@@YAXPBDZZ	; debug_fatal
  000c8	83 c4 18	 add	 esp, 24			; 00000018H
$LN1@set_local_:

; 111  : 
; 112  :          break;
; 113  :       }
; 114  :    }
; 115  : }

  000cb	5f		 pop	 edi
  000cc	5e		 pop	 esi
  000cd	5b		 pop	 ebx
  000ce	8b e5		 mov	 esp, ebp
  000d0	5d		 pop	 ebp
  000d1	c2 0c 00	 ret	 12			; 0000000cH
?set_local_raw_vec3d@@YGXPAUENTITY@@W4VEC3D_TYPES@@PAUVEC3D@@@Z ENDP ; set_local_raw_vec3d
_TEXT	ENDS
; Function compile flags: /Odtp /ZI
; File c:\users\nhv90\projects\eech\aphavoc\source\entity\mobile\aircraft\ac_vec3d.c
;	COMDAT ?overload_aircraft_vec3d_functions@@YGXW4ENTITY_TYPES@@@Z
_TEXT	SEGMENT
_type$ = 8						; size = 4
?overload_aircraft_vec3d_functions@@YGXW4ENTITY_TYPES@@@Z PROC ; overload_aircraft_vec3d_functions, COMDAT

; 448  : {

  00000	55		 push	 ebp
  00001	8b ec		 mov	 ebp, esp
  00003	83 ec 40	 sub	 esp, 64			; 00000040H
  00006	53		 push	 ebx
  00007	56		 push	 esi
  00008	57		 push	 edi

; 449  : 	fn_set_local_entity_raw_vec3d			[type][VEC3D_TYPE_MOTION_VECTOR]								= set_local_vec3d;

  00009	6b 45 08 60	 imul	 eax, DWORD PTR _type$[ebp], 96
  0000d	b9 04 00 00 00	 mov	 ecx, 4
  00012	6b d1 06	 imul	 edx, ecx, 6
  00015	c7 84 10 00 00
	00 00 00 00 00
	00		 mov	 DWORD PTR ?fn_set_local_entity_raw_vec3d@@3PAY0BI@P6GXPAUENTITY@@W4VEC3D_TYPES@@PAUVEC3D@@@ZA[eax+edx], OFFSET ?set_local_vec3d@@YGXPAUENTITY@@W4VEC3D_TYPES@@PAUVEC3D@@@Z ; set_local_vec3d

; 450  : 	fn_set_local_entity_vec3d				[type][VEC3D_TYPE_MOTION_VECTOR]								= set_local_vec3d;

  00020	6b 45 08 60	 imul	 eax, DWORD PTR _type$[ebp], 96
  00024	b9 04 00 00 00	 mov	 ecx, 4
  00029	6b d1 06	 imul	 edx, ecx, 6
  0002c	c7 84 10 00 00
	00 00 00 00 00
	00		 mov	 DWORD PTR ?fn_set_local_entity_vec3d@@3PAY0BI@P6GXPAUENTITY@@W4VEC3D_TYPES@@PAUVEC3D@@@ZA[eax+edx], OFFSET ?set_local_vec3d@@YGXPAUENTITY@@W4VEC3D_TYPES@@PAUVEC3D@@@Z ; set_local_vec3d

; 451  : 	fn_set_client_server_entity_vec3d	[type][VEC3D_TYPE_MOTION_VECTOR][COMMS_MODEL_SERVER]	= set_server_vec3d;

  00037	69 45 08 c0 00
	00 00		 imul	 eax, DWORD PTR _type$[ebp], 192
  0003e	b9 08 00 00 00	 mov	 ecx, 8
  00043	6b d1 06	 imul	 edx, ecx, 6
  00046	8d 84 10 00 00
	00 00		 lea	 eax, DWORD PTR ?fn_set_client_server_entity_vec3d@@3PAY1BI@1P6GXPAUENTITY@@W4VEC3D_TYPES@@PAUVEC3D@@@ZA[eax+edx]
  0004d	b9 04 00 00 00	 mov	 ecx, 4
  00052	6b d1 00	 imul	 edx, ecx, 0
  00055	c7 04 10 00 00
	00 00		 mov	 DWORD PTR [eax+edx], OFFSET ?set_server_vec3d@@YGXPAUENTITY@@W4VEC3D_TYPES@@PAUVEC3D@@@Z ; set_server_vec3d

; 452  : 	fn_set_client_server_entity_vec3d	[type][VEC3D_TYPE_MOTION_VECTOR][COMMS_MODEL_CLIENT]	= set_client_vec3d;

  0005c	69 45 08 c0 00
	00 00		 imul	 eax, DWORD PTR _type$[ebp], 192
  00063	b9 08 00 00 00	 mov	 ecx, 8
  00068	6b d1 06	 imul	 edx, ecx, 6
  0006b	8d 84 10 00 00
	00 00		 lea	 eax, DWORD PTR ?fn_set_client_server_entity_vec3d@@3PAY1BI@1P6GXPAUENTITY@@W4VEC3D_TYPES@@PAUVEC3D@@@ZA[eax+edx]
  00072	b9 04 00 00 00	 mov	 ecx, 4
  00077	c1 e1 00	 shl	 ecx, 0
  0007a	c7 04 08 00 00
	00 00		 mov	 DWORD PTR [eax+ecx], OFFSET ?set_client_vec3d@@YGXPAUENTITY@@W4VEC3D_TYPES@@PAUVEC3D@@@Z ; set_client_vec3d

; 453  : 	fn_get_local_entity_vec3d				[type][VEC3D_TYPE_MOTION_VECTOR]								= get_local_vec3d;

  00081	6b 45 08 60	 imul	 eax, DWORD PTR _type$[ebp], 96
  00085	b9 04 00 00 00	 mov	 ecx, 4
  0008a	6b d1 06	 imul	 edx, ecx, 6
  0008d	c7 84 10 00 00
	00 00 00 00 00
	00		 mov	 DWORD PTR ?fn_get_local_entity_vec3d@@3PAY0BI@P6GXPAUENTITY@@W4VEC3D_TYPES@@PAUVEC3D@@@ZA[eax+edx], OFFSET ?get_local_vec3d@@YGXPAUENTITY@@W4VEC3D_TYPES@@PAUVEC3D@@@Z ; get_local_vec3d

; 454  : 	fn_get_local_entity_vec3d_ptr			[type][VEC3D_TYPE_MOTION_VECTOR]								= get_local_vec3d_ptr;

  00098	6b 45 08 60	 imul	 eax, DWORD PTR _type$[ebp], 96
  0009c	b9 04 00 00 00	 mov	 ecx, 4
  000a1	6b d1 06	 imul	 edx, ecx, 6
  000a4	c7 84 10 00 00
	00 00 00 00 00
	00		 mov	 DWORD PTR ?fn_get_local_entity_vec3d_ptr@@3PAY0BI@P6GPAUVEC3D@@PAUENTITY@@W4VEC3D_TYPES@@@ZA[eax+edx], OFFSET ?get_local_vec3d_ptr@@YGPAUVEC3D@@PAUENTITY@@W4VEC3D_TYPES@@@Z ; get_local_vec3d_ptr

; 455  : 
; 456  : 	fn_set_local_entity_raw_vec3d			[type][VEC3D_TYPE_POSITION]									= set_local_raw_vec3d;

  000af	6b 45 08 60	 imul	 eax, DWORD PTR _type$[ebp], 96
  000b3	b9 04 00 00 00	 mov	 ecx, 4
  000b8	c1 e1 03	 shl	 ecx, 3
  000bb	c7 84 08 00 00
	00 00 00 00 00
	00		 mov	 DWORD PTR ?fn_set_local_entity_raw_vec3d@@3PAY0BI@P6GXPAUENTITY@@W4VEC3D_TYPES@@PAUVEC3D@@@ZA[eax+ecx], OFFSET ?set_local_raw_vec3d@@YGXPAUENTITY@@W4VEC3D_TYPES@@PAUVEC3D@@@Z ; set_local_raw_vec3d

; 457  : 	fn_set_local_entity_vec3d				[type][VEC3D_TYPE_POSITION]									= set_local_vec3d;

  000c6	6b 45 08 60	 imul	 eax, DWORD PTR _type$[ebp], 96
  000ca	b9 04 00 00 00	 mov	 ecx, 4
  000cf	c1 e1 03	 shl	 ecx, 3
  000d2	c7 84 08 00 00
	00 00 00 00 00
	00		 mov	 DWORD PTR ?fn_set_local_entity_vec3d@@3PAY0BI@P6GXPAUENTITY@@W4VEC3D_TYPES@@PAUVEC3D@@@ZA[eax+ecx], OFFSET ?set_local_vec3d@@YGXPAUENTITY@@W4VEC3D_TYPES@@PAUVEC3D@@@Z ; set_local_vec3d

; 458  : 	fn_set_client_server_entity_vec3d	[type][VEC3D_TYPE_POSITION][COMMS_MODEL_SERVER]			= set_server_vec3d;

  000dd	69 45 08 c0 00
	00 00		 imul	 eax, DWORD PTR _type$[ebp], 192
  000e4	b9 08 00 00 00	 mov	 ecx, 8
  000e9	c1 e1 03	 shl	 ecx, 3
  000ec	8d 94 08 00 00
	00 00		 lea	 edx, DWORD PTR ?fn_set_client_server_entity_vec3d@@3PAY1BI@1P6GXPAUENTITY@@W4VEC3D_TYPES@@PAUVEC3D@@@ZA[eax+ecx]
  000f3	b8 04 00 00 00	 mov	 eax, 4
  000f8	6b c8 00	 imul	 ecx, eax, 0
  000fb	c7 04 0a 00 00
	00 00		 mov	 DWORD PTR [edx+ecx], OFFSET ?set_server_vec3d@@YGXPAUENTITY@@W4VEC3D_TYPES@@PAUVEC3D@@@Z ; set_server_vec3d

; 459  : 	fn_set_client_server_entity_vec3d	[type][VEC3D_TYPE_POSITION][COMMS_MODEL_CLIENT]			= set_client_vec3d;

  00102	69 45 08 c0 00
	00 00		 imul	 eax, DWORD PTR _type$[ebp], 192
  00109	b9 08 00 00 00	 mov	 ecx, 8
  0010e	c1 e1 03	 shl	 ecx, 3
  00111	8d 94 08 00 00
	00 00		 lea	 edx, DWORD PTR ?fn_set_client_server_entity_vec3d@@3PAY1BI@1P6GXPAUENTITY@@W4VEC3D_TYPES@@PAUVEC3D@@@ZA[eax+ecx]
  00118	b8 04 00 00 00	 mov	 eax, 4
  0011d	c1 e0 00	 shl	 eax, 0
  00120	c7 04 02 00 00
	00 00		 mov	 DWORD PTR [edx+eax], OFFSET ?set_client_vec3d@@YGXPAUENTITY@@W4VEC3D_TYPES@@PAUVEC3D@@@Z ; set_client_vec3d

; 460  : 	fn_get_local_entity_vec3d				[type][VEC3D_TYPE_POSITION]							 		= get_local_vec3d;

  00127	6b 45 08 60	 imul	 eax, DWORD PTR _type$[ebp], 96
  0012b	b9 04 00 00 00	 mov	 ecx, 4
  00130	c1 e1 03	 shl	 ecx, 3
  00133	c7 84 08 00 00
	00 00 00 00 00
	00		 mov	 DWORD PTR ?fn_get_local_entity_vec3d@@3PAY0BI@P6GXPAUENTITY@@W4VEC3D_TYPES@@PAUVEC3D@@@ZA[eax+ecx], OFFSET ?get_local_vec3d@@YGXPAUENTITY@@W4VEC3D_TYPES@@PAUVEC3D@@@Z ; get_local_vec3d

; 461  : 	fn_get_local_entity_vec3d_ptr			[type][VEC3D_TYPE_POSITION]									= get_local_vec3d_ptr;

  0013e	6b 45 08 60	 imul	 eax, DWORD PTR _type$[ebp], 96
  00142	b9 04 00 00 00	 mov	 ecx, 4
  00147	c1 e1 03	 shl	 ecx, 3
  0014a	c7 84 08 00 00
	00 00 00 00 00
	00		 mov	 DWORD PTR ?fn_get_local_entity_vec3d_ptr@@3PAY0BI@P6GPAUVEC3D@@PAUENTITY@@W4VEC3D_TYPES@@@ZA[eax+ecx], OFFSET ?get_local_vec3d_ptr@@YGPAUVEC3D@@PAUENTITY@@W4VEC3D_TYPES@@@Z ; get_local_vec3d_ptr

; 462  : 
; 463  : 	fn_set_local_entity_raw_vec3d			[type][VEC3D_TYPE_WEAPON_TO_TARGET_VECTOR]  				= set_local_vec3d;

  00155	6b 45 08 60	 imul	 eax, DWORD PTR _type$[ebp], 96
  00159	b9 04 00 00 00	 mov	 ecx, 4
  0015e	6b d1 0d	 imul	 edx, ecx, 13
  00161	c7 84 10 00 00
	00 00 00 00 00
	00		 mov	 DWORD PTR ?fn_set_local_entity_raw_vec3d@@3PAY0BI@P6GXPAUENTITY@@W4VEC3D_TYPES@@PAUVEC3D@@@ZA[eax+edx], OFFSET ?set_local_vec3d@@YGXPAUENTITY@@W4VEC3D_TYPES@@PAUVEC3D@@@Z ; set_local_vec3d

; 464  : 	fn_set_local_entity_vec3d				[type][VEC3D_TYPE_WEAPON_TO_TARGET_VECTOR]  				= set_local_vec3d;

  0016c	6b 45 08 60	 imul	 eax, DWORD PTR _type$[ebp], 96
  00170	b9 04 00 00 00	 mov	 ecx, 4
  00175	6b d1 0d	 imul	 edx, ecx, 13
  00178	c7 84 10 00 00
	00 00 00 00 00
	00		 mov	 DWORD PTR ?fn_set_local_entity_vec3d@@3PAY0BI@P6GXPAUENTITY@@W4VEC3D_TYPES@@PAUVEC3D@@@ZA[eax+edx], OFFSET ?set_local_vec3d@@YGXPAUENTITY@@W4VEC3D_TYPES@@PAUVEC3D@@@Z ; set_local_vec3d

; 465  : 	fn_get_local_entity_vec3d				[type][VEC3D_TYPE_WEAPON_TO_TARGET_VECTOR]  				= get_local_vec3d;

  00183	6b 45 08 60	 imul	 eax, DWORD PTR _type$[ebp], 96
  00187	b9 04 00 00 00	 mov	 ecx, 4
  0018c	6b d1 0d	 imul	 edx, ecx, 13
  0018f	c7 84 10 00 00
	00 00 00 00 00
	00		 mov	 DWORD PTR ?fn_get_local_entity_vec3d@@3PAY0BI@P6GXPAUENTITY@@W4VEC3D_TYPES@@PAUVEC3D@@@ZA[eax+edx], OFFSET ?get_local_vec3d@@YGXPAUENTITY@@W4VEC3D_TYPES@@PAUVEC3D@@@Z ; get_local_vec3d

; 466  : 	fn_get_local_entity_vec3d_ptr			[type][VEC3D_TYPE_WEAPON_TO_TARGET_VECTOR]  				= get_local_vec3d_ptr;

  0019a	6b 45 08 60	 imul	 eax, DWORD PTR _type$[ebp], 96
  0019e	b9 04 00 00 00	 mov	 ecx, 4
  001a3	6b d1 0d	 imul	 edx, ecx, 13
  001a6	c7 84 10 00 00
	00 00 00 00 00
	00		 mov	 DWORD PTR ?fn_get_local_entity_vec3d_ptr@@3PAY0BI@P6GPAUVEC3D@@PAUENTITY@@W4VEC3D_TYPES@@@ZA[eax+edx], OFFSET ?get_local_vec3d_ptr@@YGPAUVEC3D@@PAUENTITY@@W4VEC3D_TYPES@@@Z ; get_local_vec3d_ptr

; 467  : 
; 468  : 	fn_set_local_entity_raw_vec3d			[type][VEC3D_TYPE_WEAPON_VECTOR]								= set_local_vec3d;

  001b1	6b 45 08 60	 imul	 eax, DWORD PTR _type$[ebp], 96
  001b5	b9 04 00 00 00	 mov	 ecx, 4
  001ba	6b d1 0e	 imul	 edx, ecx, 14
  001bd	c7 84 10 00 00
	00 00 00 00 00
	00		 mov	 DWORD PTR ?fn_set_local_entity_raw_vec3d@@3PAY0BI@P6GXPAUENTITY@@W4VEC3D_TYPES@@PAUVEC3D@@@ZA[eax+edx], OFFSET ?set_local_vec3d@@YGXPAUENTITY@@W4VEC3D_TYPES@@PAUVEC3D@@@Z ; set_local_vec3d

; 469  : 	fn_set_local_entity_vec3d				[type][VEC3D_TYPE_WEAPON_VECTOR]								= set_local_vec3d;

  001c8	6b 45 08 60	 imul	 eax, DWORD PTR _type$[ebp], 96
  001cc	b9 04 00 00 00	 mov	 ecx, 4
  001d1	6b d1 0e	 imul	 edx, ecx, 14
  001d4	c7 84 10 00 00
	00 00 00 00 00
	00		 mov	 DWORD PTR ?fn_set_local_entity_vec3d@@3PAY0BI@P6GXPAUENTITY@@W4VEC3D_TYPES@@PAUVEC3D@@@ZA[eax+edx], OFFSET ?set_local_vec3d@@YGXPAUENTITY@@W4VEC3D_TYPES@@PAUVEC3D@@@Z ; set_local_vec3d

; 470  : 	fn_get_local_entity_vec3d				[type][VEC3D_TYPE_WEAPON_VECTOR]								= get_local_vec3d;

  001df	6b 45 08 60	 imul	 eax, DWORD PTR _type$[ebp], 96
  001e3	b9 04 00 00 00	 mov	 ecx, 4
  001e8	6b d1 0e	 imul	 edx, ecx, 14
  001eb	c7 84 10 00 00
	00 00 00 00 00
	00		 mov	 DWORD PTR ?fn_get_local_entity_vec3d@@3PAY0BI@P6GXPAUENTITY@@W4VEC3D_TYPES@@PAUVEC3D@@@ZA[eax+edx], OFFSET ?get_local_vec3d@@YGXPAUENTITY@@W4VEC3D_TYPES@@PAUVEC3D@@@Z ; get_local_vec3d

; 471  : 	fn_get_local_entity_vec3d_ptr			[type][VEC3D_TYPE_WEAPON_VECTOR]								= get_local_vec3d_ptr;

  001f6	6b 45 08 60	 imul	 eax, DWORD PTR _type$[ebp], 96
  001fa	b9 04 00 00 00	 mov	 ecx, 4
  001ff	6b d1 0e	 imul	 edx, ecx, 14
  00202	c7 84 10 00 00
	00 00 00 00 00
	00		 mov	 DWORD PTR ?fn_get_local_entity_vec3d_ptr@@3PAY0BI@P6GPAUVEC3D@@PAUENTITY@@W4VEC3D_TYPES@@@ZA[eax+edx], OFFSET ?get_local_vec3d_ptr@@YGPAUVEC3D@@PAUENTITY@@W4VEC3D_TYPES@@@Z ; get_local_vec3d_ptr

; 472  : }

  0020d	5f		 pop	 edi
  0020e	5e		 pop	 esi
  0020f	5b		 pop	 ebx
  00210	8b e5		 mov	 esp, ebp
  00212	5d		 pop	 ebp
  00213	c2 04 00	 ret	 4
?overload_aircraft_vec3d_functions@@YGXW4ENTITY_TYPES@@@Z ENDP ; overload_aircraft_vec3d_functions
_TEXT	ENDS
; Function compile flags: /Odtp /ZI
; File c:\program files (x86)\microsoft visual studio\2017\community\vc\tools\msvc\14.16.27023\include\cmath
;	COMDAT ?atan2@@YGMMM@Z
_TEXT	SEGMENT
__Yx$ = 8						; size = 4
__Xx$ = 12						; size = 4
?atan2@@YGMMM@Z PROC					; atan2, COMDAT

; 56   : 	{

  00000	55		 push	 ebp
  00001	8b ec		 mov	 ebp, esp
  00003	83 ec 40	 sub	 esp, 64			; 00000040H
  00006	53		 push	 ebx
  00007	56		 push	 esi
  00008	57		 push	 edi

; 57   : 	return (_CSTD atan2f(_Yx, _Xx));

  00009	51		 push	 ecx
  0000a	f3 0f 10 45 0c	 movss	 xmm0, DWORD PTR __Xx$[ebp]
  0000f	f3 0f 11 04 24	 movss	 DWORD PTR [esp], xmm0
  00014	51		 push	 ecx
  00015	f3 0f 10 45 08	 movss	 xmm0, DWORD PTR __Yx$[ebp]
  0001a	f3 0f 11 04 24	 movss	 DWORD PTR [esp], xmm0
  0001f	e8 00 00 00 00	 call	 _atan2f
  00024	83 c4 08	 add	 esp, 8

; 58   : 	}

  00027	5f		 pop	 edi
  00028	5e		 pop	 esi
  00029	5b		 pop	 ebx
  0002a	8b e5		 mov	 esp, ebp
  0002c	5d		 pop	 ebp
  0002d	c2 08 00	 ret	 8
?atan2@@YGMMM@Z ENDP					; atan2
_TEXT	ENDS
; Function compile flags: /Odtp /ZI
; File c:\program files (x86)\windows kits\10\include\10.0.18362.0\ucrt\corecrt_math.h
;	COMDAT _atan2f
_TEXT	SEGMENT
tv74 = -68						; size = 4
__Y$ = 8						; size = 4
__X$ = 12						; size = 4
_atan2f	PROC						; COMDAT

; 633  :         {

  00000	55		 push	 ebp
  00001	8b ec		 mov	 ebp, esp
  00003	83 ec 44	 sub	 esp, 68			; 00000044H
  00006	53		 push	 ebx
  00007	56		 push	 esi
  00008	57		 push	 edi

; 634  :             return (float)atan2(_Y, _X);

  00009	f3 0f 5a 45 0c	 cvtss2sd xmm0, DWORD PTR __X$[ebp]
  0000e	83 ec 08	 sub	 esp, 8
  00011	f2 0f 11 04 24	 movsd	 QWORD PTR [esp], xmm0
  00016	f3 0f 5a 45 08	 cvtss2sd xmm0, DWORD PTR __Y$[ebp]
  0001b	83 ec 08	 sub	 esp, 8
  0001e	f2 0f 11 04 24	 movsd	 QWORD PTR [esp], xmm0
  00023	e8 00 00 00 00	 call	 _atan2
  00028	83 c4 10	 add	 esp, 16			; 00000010H
  0002b	d9 5d bc	 fstp	 DWORD PTR tv74[ebp]
  0002e	d9 45 bc	 fld	 DWORD PTR tv74[ebp]

; 635  :         }

  00031	5f		 pop	 edi
  00032	5e		 pop	 esi
  00033	5b		 pop	 ebx
  00034	8b e5		 mov	 esp, ebp
  00036	5d		 pop	 ebp
  00037	c3		 ret	 0
_atan2f	ENDP
_TEXT	ENDS
END
