; Listing generated by Microsoft (R) Optimizing Compiler Version 19.16.27045.0 

	TITLE	C:\Users\nhv90\Projects\eech\aphavoc\source\entity\mobile\aircraft\ac_wpn.c
	.686P
	.XMM
	include listing.inc
	.model	flat

INCLUDELIB MSVCRTD
INCLUDELIB OLDNAMES

PUBLIC	?aircraft_fire_weapon@@YG?AW4AIRCRAFT_FIRE_RESULT@@PAUENTITY@@I@Z ; aircraft_fire_weapon
PUBLIC	?update_aircraft_weapon_fire@@YGXPAUENTITY@@@Z	; update_aircraft_weapon_fire
PUBLIC	?update_aircraft_decoy_release@@YGXPAUENTITY@@@Z ; update_aircraft_decoy_release
PUBLIC	??$max@M@std@@YGABMABM0@Z			; std::max<float>
PUBLIC	??_C@_02DKCKIIND@?$CFs@				; `string'
PUBLIC	?__LINE__Var@?0??play_aircraft_weapon_launched_speech@@YGXPAUENTITY@@H@Z@4JA ; `play_aircraft_weapon_launched_speech'::`1'::__LINE__Var
PUBLIC	??_C@_0EM@OPNBEJPF@c?3?2users?2nhv90?2projects?2eech?2ap@ ; `string'
PUBLIC	??_C@_02LFNMGJAP@en@				; `string'
PUBLIC	??_C@_0CJ@DMBLBJBK@get_comms_model?5?$CI?$CJ?5?$DN?$DN?5COMMS_MOD@ ; `string'
PUBLIC	??_C@_0BD@DLHLNNPB@speech_index?5?$CB?$DN?5?91@	; `string'
PUBLIC	?__LINE__Var@?0??aircraft_fire_weapon@@YG?AW4AIRCRAFT_FIRE_RESULT@@PAUENTITY@@I@Z@4JA ; `aircraft_fire_weapon'::`1'::__LINE__Var
PUBLIC	??_C@_0CG@FLDNICPN@AC_WPN?3?5Fire?5Weapon?5Error?5?9?5NO?5@ ; `string'
PUBLIC	??_C@_0DE@COOBMNOH@AC_WPN?3?5Fire?5Weapon?5Error?5?9?5WEA@ ; `string'
PUBLIC	??_C@_0CG@KGHACHAP@AC_WPN?3?5Fire?5Weapon?5Error?5?9?5NO?5@ ; `string'
PUBLIC	??_C@_0GB@GBCCNPEO@AC_WPN?3?5Switching?5to?5LOAL?5mode?5@ ; `string'
PUBLIC	??_C@_0EG@HCPBFMNG@AC_WPN?3?5Fire?5Weapon?5Error?5?9?5NO?5@ ; `string'
PUBLIC	?__LINE__Var@?0??update_aircraft_weapon_fire@@YGXPAUENTITY@@@Z@4JA ; `update_aircraft_weapon_fire'::`1'::__LINE__Var
PUBLIC	?__LINE__Var@?0??update_aircraft_decoy_release@@YGXPAUENTITY@@@Z@4JA ; `update_aircraft_decoy_release'::`1'::__LINE__Var
PUBLIC	??_C@_0BM@PIBAHDMH@en?5?$DN?$DN?5get_gunship_entity?5?$CI?$CJ@ ; `string'
PUBLIC	??_C@_0BD@FEEMDEPI@invalid?5comparator@		; `string'
PUBLIC	??_C@_0GK@JMBMHIBC@c?3?2program?5files?5?$CIx86?$CJ?2microsof@ ; `string'
PUBLIC	??_C@_1NE@FKBPBJEB@?$AAc?$AA?3?$AA?2?$AAp?$AAr?$AAo?$AAg?$AAr?$AAa?$AAm?$AA?5?$AAf?$AAi?$AAl?$AAe@ ; `string'
PUBLIC	??_C@_1BC@ICCOKLEG@?$AAs?$AAt?$AAd?$AA?3?$AA?3?$AAm?$AAa?$AAx@ ; `string'
PUBLIC	??_C@_1CK@NDNHPKPI@?$AA?$CC?$AAi?$AAn?$AAv?$AAa?$AAl?$AAi?$AAd?$AA?5?$AAc?$AAo?$AAm?$AAp?$AAa?$AAr@ ; `string'
PUBLIC	__real@0000000000000000
PUBLIC	__real@3f00002000400080
PUBLIC	__real@3f800000
PUBLIC	__real@3fc00000
PUBLIC	__real@4000000000000000
PUBLIC	__real@4024000000000000
PUBLIC	__real@40800000
EXTRN	__imp___invalid_parameter:PROC
EXTRN	__imp___CrtDbgReport:PROC
EXTRN	?process_assert@@YGXPBD0H@Z:PROC		; process_assert
EXTRN	?debug_log@@YAXPBDZZ:PROC			; debug_log
EXTRN	?get_2d_range@@YGMPBUVEC3D@@0@Z:PROC		; get_2d_range
EXTRN	?get_approx_3d_range@@YGMPBUVEC3D@@0@Z:PROC	; get_approx_3d_range
EXTRN	?check_position_line_of_sight@@YGHPAUENTITY@@0PAUVEC3D@@1W4MOBILE_LOS_CHECK_CRITERIA@@@Z:PROC ; check_position_line_of_sight
EXTRN	?launch_client_server_weapon@@YGXPAUENTITY@@H@Z:PROC ; launch_client_server_weapon
EXTRN	?get_decoy_type_for_weapon@@YGHPAUENTITY@@@Z:PROC ; get_decoy_type_for_weapon
EXTRN	?get_local_entity_weapon_available@@YGHPAUENTITY@@H@Z:PROC ; get_local_entity_weapon_available
EXTRN	?play_client_server_wingman_message@@YGHPAUENTITY@@MMW4speech_category_types@@MW4speech_intro_types@@W4speech_array_types@@H@Z:PROC ; play_client_server_wingman_message
EXTRN	?pause_client_server_continuous_weapon_sound_effect@@YGXPAUENTITY@@H@Z:PROC ; pause_client_server_continuous_weapon_sound_effect
EXTRN	?system_delta_time@@3MA:DWORD			; system_delta_time
EXTRN	?random_number_seed@@3HA:DWORD			; random_number_seed
EXTRN	?null_entity_pointer_message@@3PBDB:DWORD	; null_entity_pointer_message
EXTRN	?global_options@@3UGLOBAL_OPTIONS_DATA@@A:BYTE	; global_options
EXTRN	?system_comms_model@@3W4COMMS_MODEL_TYPES@@A:DWORD ; system_comms_model
EXTRN	?overload_invalid_list_type_message@@3PBDB:DWORD ; overload_invalid_list_type_message
EXTRN	?fn_get_local_entity_first_child@@3PAY0CN@P6GPAUENTITY@@PAU1@W4LIST_TYPES@@@ZA:BYTE ; fn_get_local_entity_first_child
EXTRN	?fn_get_local_entity_parent@@3PAY0CN@P6GPAUENTITY@@PAU1@W4LIST_TYPES@@@ZA:BYTE ; fn_get_local_entity_parent
EXTRN	?fn_get_local_entity_child_succ@@3PAY0CN@P6GPAUENTITY@@PAU1@W4LIST_TYPES@@@ZA:BYTE ; fn_get_local_entity_child_succ
EXTRN	?overload_invalid_float_type_message@@3PBDB:DWORD ; overload_invalid_float_type_message
EXTRN	?fn_get_local_entity_float_value@@3PAY0KP@P6GMPAUENTITY@@W4FLOAT_TYPES@@@ZA:BYTE ; fn_get_local_entity_float_value
EXTRN	?overload_invalid_int_type_message@@3PBDB:DWORD	; overload_invalid_int_type_message
EXTRN	?fn_set_local_entity_int_value@@3PAY0BBH@P6GXPAUENTITY@@W4INT_TYPES@@H@ZA:BYTE ; fn_set_local_entity_int_value
EXTRN	?fn_get_local_entity_int_value@@3PAY0BBH@P6GHPAUENTITY@@W4INT_TYPES@@@ZA:BYTE ; fn_get_local_entity_int_value
EXTRN	?overload_invalid_string_type_message@@3PBDB:DWORD ; overload_invalid_string_type_message
EXTRN	?fn_get_local_entity_string@@3PAY0N@P6GPBDPAUENTITY@@W4STRING_TYPES@@@ZA:BYTE ; fn_get_local_entity_string
EXTRN	?overload_invalid_vec3d_type_message@@3PBDB:DWORD ; overload_invalid_vec3d_type_message
EXTRN	?fn_get_local_entity_vec3d@@3PAY0BI@P6GXPAUENTITY@@W4VEC3D_TYPES@@PAUVEC3D@@@ZA:BYTE ; fn_get_local_entity_vec3d
EXTRN	?fn_get_local_entity_vec3d_ptr@@3PAY0BI@P6GPAUVEC3D@@PAUENTITY@@W4VEC3D_TYPES@@@ZA:BYTE ; fn_get_local_entity_vec3d_ptr
EXTRN	?entities@@3PAUENTITY@@A:DWORD			; entities
EXTRN	?weapon_database@@3PAUWEAPON_DATA@@A:BYTE	; weapon_database
EXTRN	?gunship_entity@@3PAUENTITY@@A:DWORD		; gunship_entity
EXTRN	?session_entity@@3PAUENTITY@@A:DWORD		; session_entity
EXTRN	__fltused:DWORD
;	COMDAT __real@40800000
CONST	SEGMENT
__real@40800000 DD 040800000r			; 4
CONST	ENDS
;	COMDAT __real@4024000000000000
CONST	SEGMENT
__real@4024000000000000 DQ 04024000000000000r	; 10
CONST	ENDS
;	COMDAT __real@4000000000000000
CONST	SEGMENT
__real@4000000000000000 DQ 04000000000000000r	; 2
CONST	ENDS
;	COMDAT __real@3fc00000
CONST	SEGMENT
__real@3fc00000 DD 03fc00000r			; 1.5
CONST	ENDS
;	COMDAT __real@3f800000
CONST	SEGMENT
__real@3f800000 DD 03f800000r			; 1
CONST	ENDS
;	COMDAT __real@3f00002000400080
CONST	SEGMENT
__real@3f00002000400080 DQ 03f00002000400080r	; 3.05185e-05
CONST	ENDS
;	COMDAT __real@0000000000000000
CONST	SEGMENT
__real@0000000000000000 DQ 00000000000000000r	; 0
CONST	ENDS
;	COMDAT ??_C@_1CK@NDNHPKPI@?$AA?$CC?$AAi?$AAn?$AAv?$AAa?$AAl?$AAi?$AAd?$AA?5?$AAc?$AAo?$AAm?$AAp?$AAa?$AAr@
CONST	SEGMENT
??_C@_1CK@NDNHPKPI@?$AA?$CC?$AAi?$AAn?$AAv?$AAa?$AAl?$AAi?$AAd?$AA?5?$AAc?$AAo?$AAm?$AAp?$AAa?$AAr@ DB '"'
	DB	00H, 'i', 00H, 'n', 00H, 'v', 00H, 'a', 00H, 'l', 00H, 'i', 00H
	DB	'd', 00H, ' ', 00H, 'c', 00H, 'o', 00H, 'm', 00H, 'p', 00H, 'a'
	DB	00H, 'r', 00H, 'a', 00H, 't', 00H, 'o', 00H, 'r', 00H, '"', 00H
	DB	00H, 00H					; `string'
CONST	ENDS
;	COMDAT ??_C@_1BC@ICCOKLEG@?$AAs?$AAt?$AAd?$AA?3?$AA?3?$AAm?$AAa?$AAx@
CONST	SEGMENT
??_C@_1BC@ICCOKLEG@?$AAs?$AAt?$AAd?$AA?3?$AA?3?$AAm?$AAa?$AAx@ DB 's', 00H
	DB	't', 00H, 'd', 00H, ':', 00H, ':', 00H, 'm', 00H, 'a', 00H, 'x'
	DB	00H, 00H, 00H				; `string'
CONST	ENDS
;	COMDAT ??_C@_1NE@FKBPBJEB@?$AAc?$AA?3?$AA?2?$AAp?$AAr?$AAo?$AAg?$AAr?$AAa?$AAm?$AA?5?$AAf?$AAi?$AAl?$AAe@
CONST	SEGMENT
??_C@_1NE@FKBPBJEB@?$AAc?$AA?3?$AA?2?$AAp?$AAr?$AAo?$AAg?$AAr?$AAa?$AAm?$AA?5?$AAf?$AAi?$AAl?$AAe@ DB 'c'
	DB	00H, ':', 00H, '\', 00H, 'p', 00H, 'r', 00H, 'o', 00H, 'g', 00H
	DB	'r', 00H, 'a', 00H, 'm', 00H, ' ', 00H, 'f', 00H, 'i', 00H, 'l'
	DB	00H, 'e', 00H, 's', 00H, ' ', 00H, '(', 00H, 'x', 00H, '8', 00H
	DB	'6', 00H, ')', 00H, '\', 00H, 'm', 00H, 'i', 00H, 'c', 00H, 'r'
	DB	00H, 'o', 00H, 's', 00H, 'o', 00H, 'f', 00H, 't', 00H, ' ', 00H
	DB	'v', 00H, 'i', 00H, 's', 00H, 'u', 00H, 'a', 00H, 'l', 00H, ' '
	DB	00H, 's', 00H, 't', 00H, 'u', 00H, 'd', 00H, 'i', 00H, 'o', 00H
	DB	'\', 00H, '2', 00H, '0', 00H, '1', 00H, '7', 00H, '\', 00H, 'c'
	DB	00H, 'o', 00H, 'm', 00H, 'm', 00H, 'u', 00H, 'n', 00H, 'i', 00H
	DB	't', 00H, 'y', 00H, '\', 00H, 'v', 00H, 'c', 00H, '\', 00H, 't'
	DB	00H, 'o', 00H, 'o', 00H, 'l', 00H, 's', 00H, '\', 00H, 'm', 00H
	DB	's', 00H, 'v', 00H, 'c', 00H, '\', 00H, '1', 00H, '4', 00H, '.'
	DB	00H, '1', 00H, '6', 00H, '.', 00H, '2', 00H, '7', 00H, '0', 00H
	DB	'2', 00H, '3', 00H, '\', 00H, 'i', 00H, 'n', 00H, 'c', 00H, 'l'
	DB	00H, 'u', 00H, 'd', 00H, 'e', 00H, '\', 00H, 'a', 00H, 'l', 00H
	DB	'g', 00H, 'o', 00H, 'r', 00H, 'i', 00H, 't', 00H, 'h', 00H, 'm'
	DB	00H, 00H, 00H				; `string'
CONST	ENDS
;	COMDAT ??_C@_0GK@JMBMHIBC@c?3?2program?5files?5?$CIx86?$CJ?2microsof@
CONST	SEGMENT
??_C@_0GK@JMBMHIBC@c?3?2program?5files?5?$CIx86?$CJ?2microsof@ DB 'c:\pro'
	DB	'gram files (x86)\microsoft visual studio\2017\community\vc\to'
	DB	'ols\msvc\14.16.27023\include\algorithm', 00H ; `string'
CONST	ENDS
;	COMDAT ??_C@_0BD@FEEMDEPI@invalid?5comparator@
CONST	SEGMENT
??_C@_0BD@FEEMDEPI@invalid?5comparator@ DB 'invalid comparator', 00H ; `string'
CONST	ENDS
;	COMDAT ??_C@_0BM@PIBAHDMH@en?5?$DN?$DN?5get_gunship_entity?5?$CI?$CJ@
CONST	SEGMENT
??_C@_0BM@PIBAHDMH@en?5?$DN?$DN?5get_gunship_entity?5?$CI?$CJ@ DB 'en == '
	DB	'get_gunship_entity ()', 00H			; `string'
CONST	ENDS
;	COMDAT ?__LINE__Var@?0??update_aircraft_decoy_release@@YGXPAUENTITY@@@Z@4JA
_DATA	SEGMENT
?__LINE__Var@?0??update_aircraft_decoy_release@@YGXPAUENTITY@@@Z@4JA DD 0185H ; `update_aircraft_decoy_release'::`1'::__LINE__Var
_DATA	ENDS
;	COMDAT ?__LINE__Var@?0??update_aircraft_weapon_fire@@YGXPAUENTITY@@@Z@4JA
_DATA	SEGMENT
?__LINE__Var@?0??update_aircraft_weapon_fire@@YGXPAUENTITY@@@Z@4JA DD 0134H ; `update_aircraft_weapon_fire'::`1'::__LINE__Var
_DATA	ENDS
;	COMDAT ??_C@_0EG@HCPBFMNG@AC_WPN?3?5Fire?5Weapon?5Error?5?9?5NO?5@
CONST	SEGMENT
??_C@_0EG@HCPBFMNG@AC_WPN?3?5Fire?5Weapon?5Error?5?9?5NO?5@ DB 'AC_WPN: F'
	DB	'ire Weapon Error - NO LOS (Aircraft %s (%d), Target %s (%d))', 00H ; `string'
CONST	ENDS
;	COMDAT ??_C@_0GB@GBCCNPEO@AC_WPN?3?5Switching?5to?5LOAL?5mode?5@
CONST	SEGMENT
??_C@_0GB@GBCCNPEO@AC_WPN?3?5Switching?5to?5LOAL?5mode?5@ DB 'AC_WPN: Swi'
	DB	'tching to LOAL mode to fire at target without LOS ((Aircraft '
	DB	'%s (%d), Target %s (%d))', 00H		; `string'
CONST	ENDS
;	COMDAT ??_C@_0CG@KGHACHAP@AC_WPN?3?5Fire?5Weapon?5Error?5?9?5NO?5@
CONST	SEGMENT
??_C@_0CG@KGHACHAP@AC_WPN?3?5Fire?5Weapon?5Error?5?9?5NO?5@ DB 'AC_WPN: F'
	DB	'ire Weapon Error - NO TARGET', 00H		; `string'
CONST	ENDS
;	COMDAT ??_C@_0DE@COOBMNOH@AC_WPN?3?5Fire?5Weapon?5Error?5?9?5WEA@
CONST	SEGMENT
??_C@_0DE@COOBMNOH@AC_WPN?3?5Fire?5Weapon?5Error?5?9?5WEA@ DB 'AC_WPN: Fi'
	DB	're Weapon Error - WEAPON SYSTEM NOT READY', 00H ; `string'
CONST	ENDS
;	COMDAT ??_C@_0CG@FLDNICPN@AC_WPN?3?5Fire?5Weapon?5Error?5?9?5NO?5@
CONST	SEGMENT
??_C@_0CG@FLDNICPN@AC_WPN?3?5Fire?5Weapon?5Error?5?9?5NO?5@ DB 'AC_WPN: F'
	DB	'ire Weapon Error - NO WEAPON', 00H		; `string'
CONST	ENDS
;	COMDAT ?__LINE__Var@?0??aircraft_fire_weapon@@YG?AW4AIRCRAFT_FIRE_RESULT@@PAUENTITY@@I@Z@4JA
_DATA	SEGMENT
?__LINE__Var@?0??aircraft_fire_weapon@@YG?AW4AIRCRAFT_FIRE_RESULT@@PAUENTITY@@I@Z@4JA DD 0a5H ; `aircraft_fire_weapon'::`1'::__LINE__Var
_DATA	ENDS
;	COMDAT ??_C@_0BD@DLHLNNPB@speech_index?5?$CB?$DN?5?91@
CONST	SEGMENT
??_C@_0BD@DLHLNNPB@speech_index?5?$CB?$DN?5?91@ DB 'speech_index != -1', 00H ; `string'
CONST	ENDS
;	COMDAT ??_C@_0CJ@DMBLBJBK@get_comms_model?5?$CI?$CJ?5?$DN?$DN?5COMMS_MOD@
CONST	SEGMENT
??_C@_0CJ@DMBLBJBK@get_comms_model?5?$CI?$CJ?5?$DN?$DN?5COMMS_MOD@ DB 'ge'
	DB	't_comms_model () == COMMS_MODEL_SERVER', 00H ; `string'
CONST	ENDS
;	COMDAT ??_C@_02LFNMGJAP@en@
CONST	SEGMENT
??_C@_02LFNMGJAP@en@ DB 'en', 00H			; `string'
CONST	ENDS
;	COMDAT ??_C@_0EM@OPNBEJPF@c?3?2users?2nhv90?2projects?2eech?2ap@
CONST	SEGMENT
??_C@_0EM@OPNBEJPF@c?3?2users?2nhv90?2projects?2eech?2ap@ DB 'c:\users\nh'
	DB	'v90\projects\eech\aphavoc\source\entity\mobile\aircraft\ac_wp'
	DB	'n.c', 00H					; `string'
CONST	ENDS
;	COMDAT ?__LINE__Var@?0??play_aircraft_weapon_launched_speech@@YGXPAUENTITY@@H@Z@4JA
_DATA	SEGMENT
?__LINE__Var@?0??play_aircraft_weapon_launched_speech@@YGXPAUENTITY@@H@Z@4JA DD 050H ; `play_aircraft_weapon_launched_speech'::`1'::__LINE__Var
_DATA	ENDS
;	COMDAT ??_C@_02DKCKIIND@?$CFs@
CONST	SEGMENT
??_C@_02DKCKIIND@?$CFs@ DB '%s', 00H			; `string'
CONST	ENDS
; Function compile flags: /Odtp /ZI
; File c:\program files (x86)\microsoft visual studio\2017\community\vc\tools\msvc\14.16.27023\include\algorithm
;	COMDAT ??$max@M@std@@YGABMABM0@Z
_TEXT	SEGMENT
__Left$ = 8						; size = 4
__Right$ = 12						; size = 4
??$max@M@std@@YGABMABM0@Z PROC				; std::max<float>, COMDAT

; 5387 : 	{	// return larger of _Left and _Right

  00000	55		 push	 ebp
  00001	8b ec		 mov	 ebp, esp
  00003	83 ec 40	 sub	 esp, 64			; 00000040H
  00006	53		 push	 ebx
  00007	56		 push	 esi
  00008	57		 push	 edi

; 5388 : 	if (_Left < _Right)

  00009	8b 45 0c	 mov	 eax, DWORD PTR __Right$[ebp]
  0000c	8b 4d 08	 mov	 ecx, DWORD PTR __Left$[ebp]
  0000f	f3 0f 10 00	 movss	 xmm0, DWORD PTR [eax]
  00013	0f 2f 01	 comiss	 xmm0, DWORD PTR [ecx]
  00016	76 64		 jbe	 SHORT $LN8@max
$LN4@max:

; 5389 : 		{
; 5390 : 		_STL_ASSERT(!(_Right < _Left), "invalid comparator");

  00018	8b 45 08	 mov	 eax, DWORD PTR __Left$[ebp]
  0001b	8b 4d 0c	 mov	 ecx, DWORD PTR __Right$[ebp]
  0001e	f3 0f 10 00	 movss	 xmm0, DWORD PTR [eax]
  00022	0f 2f 01	 comiss	 xmm0, DWORD PTR [ecx]
  00025	77 02		 ja	 SHORT $LN9@max
  00027	eb 4a		 jmp	 SHORT $LN6@max
$LN9@max:
  00029	68 00 00 00 00	 push	 OFFSET ??_C@_0BD@FEEMDEPI@invalid?5comparator@
  0002e	68 00 00 00 00	 push	 OFFSET ??_C@_02DKCKIIND@?$CFs@
  00033	6a 00		 push	 0
  00035	68 0e 15 00 00	 push	 5390			; 0000150eH
  0003a	68 00 00 00 00	 push	 OFFSET ??_C@_0GK@JMBMHIBC@c?3?2program?5files?5?$CIx86?$CJ?2microsof@
  0003f	6a 02		 push	 2
  00041	ff 15 00 00 00
	00		 call	 DWORD PTR __imp___CrtDbgReport
  00047	83 c4 18	 add	 esp, 24			; 00000018H
  0004a	83 f8 01	 cmp	 eax, 1
  0004d	75 01		 jne	 SHORT $LN12@max
  0004f	cc		 int	 3
$LN12@max:
  00050	6a 00		 push	 0
  00052	68 0e 15 00 00	 push	 5390			; 0000150eH
  00057	68 00 00 00 00	 push	 OFFSET ??_C@_1NE@FKBPBJEB@?$AAc?$AA?3?$AA?2?$AAp?$AAr?$AAo?$AAg?$AAr?$AAa?$AAm?$AA?5?$AAf?$AAi?$AAl?$AAe@
  0005c	68 00 00 00 00	 push	 OFFSET ??_C@_1BC@ICCOKLEG@?$AAs?$AAt?$AAd?$AA?3?$AA?3?$AAm?$AAa?$AAx@
  00061	68 00 00 00 00	 push	 OFFSET ??_C@_1CK@NDNHPKPI@?$AA?$CC?$AAi?$AAn?$AAv?$AAa?$AAl?$AAi?$AAd?$AA?5?$AAc?$AAo?$AAm?$AAp?$AAa?$AAr@
  00066	ff 15 00 00 00
	00		 call	 DWORD PTR __imp___invalid_parameter
  0006c	83 c4 14	 add	 esp, 20			; 00000014H
  0006f	33 c0		 xor	 eax, eax
  00071	75 b6		 jne	 SHORT $LN9@max
$LN6@max:
  00073	33 c0		 xor	 eax, eax
  00075	75 a1		 jne	 SHORT $LN4@max

; 5391 : 		return (_Right);

  00077	8b 45 0c	 mov	 eax, DWORD PTR __Right$[ebp]
  0007a	eb 03		 jmp	 SHORT $LN1@max
$LN8@max:

; 5392 : 		}
; 5393 : 
; 5394 : 	return (_Left);

  0007c	8b 45 08	 mov	 eax, DWORD PTR __Left$[ebp]
$LN1@max:

; 5395 : 	}

  0007f	5f		 pop	 edi
  00080	5e		 pop	 esi
  00081	5b		 pop	 ebx
  00082	8b e5		 mov	 esp, ebp
  00084	5d		 pop	 ebp
  00085	c2 08 00	 ret	 8
??$max@M@std@@YGABMABM0@Z ENDP				; std::max<float>
_TEXT	ENDS
; Function compile flags: /Odtp /ZI
; File c:\users\nhv90\projects\eech\aphavoc\source\entity\mobile\aircraft\ac_wpn.c
;	COMDAT ?play_aircraft_weapon_launched_speech@@YGXPAUENTITY@@H@Z
_TEXT	SEGMENT
tv86 = -80						; size = 4
tv128 = -76						; size = 4
tv79 = -76						; size = 4
_speech_index$ = -8					; size = 4
_weapon_class$ = -4					; size = 4
_en$ = 8						; size = 4
_weapon_type$ = 12					; size = 4
?play_aircraft_weapon_launched_speech@@YGXPAUENTITY@@H@Z PROC ; play_aircraft_weapon_launched_speech, COMDAT

; 80   : {

  00000	55		 push	 ebp
  00001	8b ec		 mov	 ebp, esp
  00003	83 ec 50	 sub	 esp, 80			; 00000050H
  00006	53		 push	 ebx
  00007	56		 push	 esi
  00008	57		 push	 edi

; 81   : 	weapon_launch_wingman_speech_types
; 82   : 		weapon_class;
; 83   : 
; 84   : 	int
; 85   : 		speech_index;
; 86   : 
; 87   : 	ASSERT (en);

  00009	83 7d 08 00	 cmp	 DWORD PTR _en$[ebp], 0
  0000d	75 18		 jne	 SHORT $LN4@play_aircr
  0000f	a1 00 00 00 00	 mov	 eax, DWORD PTR ?__LINE__Var@?0??play_aircraft_weapon_launched_speech@@YGXPAUENTITY@@H@Z@4JA
  00014	83 c0 07	 add	 eax, 7
  00017	50		 push	 eax
  00018	68 00 00 00 00	 push	 OFFSET ??_C@_0EM@OPNBEJPF@c?3?2users?2nhv90?2projects?2eech?2ap@
  0001d	68 00 00 00 00	 push	 OFFSET ??_C@_02LFNMGJAP@en@
  00022	e8 00 00 00 00	 call	 ?process_assert@@YGXPBD0H@Z ; process_assert
$LN4@play_aircr:

; 88   : 
; 89   : 	ASSERT (get_comms_model () == COMMS_MODEL_SERVER);

  00027	83 3d 00 00 00
	00 00		 cmp	 DWORD PTR ?system_comms_model@@3W4COMMS_MODEL_TYPES@@A, 0 ; system_comms_model
  0002e	74 18		 je	 SHORT $LN5@play_aircr
  00030	a1 00 00 00 00	 mov	 eax, DWORD PTR ?__LINE__Var@?0??play_aircraft_weapon_launched_speech@@YGXPAUENTITY@@H@Z@4JA
  00035	83 c0 09	 add	 eax, 9
  00038	50		 push	 eax
  00039	68 00 00 00 00	 push	 OFFSET ??_C@_0EM@OPNBEJPF@c?3?2users?2nhv90?2projects?2eech?2ap@
  0003e	68 00 00 00 00	 push	 OFFSET ??_C@_0CJ@DMBLBJBK@get_comms_model?5?$CI?$CJ?5?$DN?$DN?5COMMS_MOD@
  00043	e8 00 00 00 00	 call	 ?process_assert@@YGXPBD0H@Z ; process_assert
$LN5@play_aircr:

; 90   : 
; 91   : 	speech_index = -1;

  00048	c7 45 f8 ff ff
	ff ff		 mov	 DWORD PTR _speech_index$[ebp], -1

; 92   : 
; 93   : 	if (get_local_entity_int_value (en, INT_TYPE_PLAYER) == ENTITY_PLAYER_AI)

  0004f	83 7d 08 00	 cmp	 DWORD PTR _en$[ebp], 0
  00053	74 0a		 je	 SHORT $LN19@play_aircr
  00055	8b 45 08	 mov	 eax, DWORD PTR _en$[ebp]
  00058	8b 08		 mov	 ecx, DWORD PTR [eax]
  0005a	89 4d b4	 mov	 DWORD PTR tv79[ebp], ecx
  0005d	eb 1a		 jmp	 SHORT $LN20@play_aircr
$LN19@play_aircr:
  0005f	6a 5d		 push	 93			; 0000005dH
  00061	68 00 00 00 00	 push	 OFFSET ??_C@_0EM@OPNBEJPF@c?3?2users?2nhv90?2projects?2eech?2ap@
  00066	8b 15 00 00 00
	00		 mov	 edx, DWORD PTR ?null_entity_pointer_message@@3PBDB ; null_entity_pointer_message
  0006c	52		 push	 edx
  0006d	e8 00 00 00 00	 call	 ?process_assert@@YGXPBD0H@Z ; process_assert
  00072	c7 45 b4 00 00
	00 00		 mov	 DWORD PTR tv79[ebp], 0
$LN20@play_aircr:
  00079	b8 01 00 00 00	 mov	 eax, 1
  0007e	85 c0		 test	 eax, eax
  00080	74 09		 je	 SHORT $LN21@play_aircr
  00082	c7 45 b0 9c 00
	00 00		 mov	 DWORD PTR tv86[ebp], 156 ; 0000009cH
  00089	eb 1a		 jmp	 SHORT $LN22@play_aircr
$LN21@play_aircr:
  0008b	6a 5d		 push	 93			; 0000005dH
  0008d	68 00 00 00 00	 push	 OFFSET ??_C@_0EM@OPNBEJPF@c?3?2users?2nhv90?2projects?2eech?2ap@
  00092	8b 0d 00 00 00
	00		 mov	 ecx, DWORD PTR ?overload_invalid_int_type_message@@3PBDB ; overload_invalid_int_type_message
  00098	51		 push	 ecx
  00099	e8 00 00 00 00	 call	 ?process_assert@@YGXPBD0H@Z ; process_assert
  0009e	c7 45 b0 00 00
	00 00		 mov	 DWORD PTR tv86[ebp], 0
$LN22@play_aircr:
  000a5	68 9c 00 00 00	 push	 156			; 0000009cH
  000aa	8b 55 08	 mov	 edx, DWORD PTR _en$[ebp]
  000ad	52		 push	 edx
  000ae	69 45 b4 5c 04
	00 00		 imul	 eax, DWORD PTR tv79[ebp], 1116
  000b5	8b 4d b0	 mov	 ecx, DWORD PTR tv86[ebp]
  000b8	8b 94 88 00 00
	00 00		 mov	 edx, DWORD PTR ?fn_get_local_entity_int_value@@3PAY0BBH@P6GHPAUENTITY@@W4INT_TYPES@@@ZA[eax+ecx*4]
  000bf	ff d2		 call	 edx
  000c1	85 c0		 test	 eax, eax
  000c3	0f 85 38 01 00
	00		 jne	 $LN6@play_aircr

; 94   : 	{
; 95   : 		weapon_class = (weapon_launch_wingman_speech_types) weapon_database [weapon_type].weapon_launched_wingman_speech;

  000c9	69 45 0c e0 00
	00 00		 imul	 eax, DWORD PTR _weapon_type$[ebp], 224
  000d0	8b 88 4c 00 00
	00		 mov	 ecx, DWORD PTR ?weapon_database@@3PAUWEAPON_DATA@@A[eax+76]
  000d6	89 4d fc	 mov	 DWORD PTR _weapon_class$[ebp], ecx

; 96   : 
; 97   : 		switch (weapon_class)

  000d9	8b 45 fc	 mov	 eax, DWORD PTR _weapon_class$[ebp]
  000dc	89 45 b4	 mov	 DWORD PTR tv128[ebp], eax
  000df	83 7d b4 00	 cmp	 DWORD PTR tv128[ebp], 0
  000e3	74 11		 je	 SHORT $LN7@play_aircr
  000e5	83 7d b4 01	 cmp	 DWORD PTR tv128[ebp], 1
  000e9	74 45		 je	 SHORT $LN10@play_aircr
  000eb	83 7d b4 02	 cmp	 DWORD PTR tv128[ebp], 2
  000ef	74 79		 je	 SHORT $LN13@play_aircr
  000f1	e9 ae 00 00 00	 jmp	 $LN16@play_aircr
$LN7@play_aircr:

; 98   : 		{
; 99   : 			case WEAPON_LAUNCH_WINGMAN_SPEECH_CANNON:
; 100  : 			{
; 101  : 				if (rand16 () & 0x01)

  000f6	69 05 00 00 00
	00 6d 4e c6 41	 imul	 eax, DWORD PTR ?random_number_seed@@3HA, 1103515245 ; random_number_seed
  00100	05 39 30 00 00	 add	 eax, 12345		; 00003039H
  00105	a3 00 00 00 00	 mov	 DWORD PTR ?random_number_seed@@3HA, eax ; random_number_seed
  0010a	8b 0d 00 00 00
	00		 mov	 ecx, DWORD PTR ?random_number_seed@@3HA ; random_number_seed
  00110	c1 f9 10	 sar	 ecx, 16			; 00000010H
  00113	81 e1 ff 7f 00
	00		 and	 ecx, 32767		; 00007fffH
  00119	83 e1 01	 and	 ecx, 1
  0011c	74 09		 je	 SHORT $LN8@play_aircr

; 102  : 				{
; 103  : 					speech_index = SPEECH_WINGMAN_FIRING_CANNON;

  0011e	c7 45 f8 2d 00
	00 00		 mov	 DWORD PTR _speech_index$[ebp], 45 ; 0000002dH

; 104  : 				}
; 105  : 				else

  00125	eb 07		 jmp	 SHORT $LN9@play_aircr
$LN8@play_aircr:

; 106  : 				{
; 107  : 					speech_index = SPEECH_WINGMAN_ENGAGING_WITH_CANNON;

  00127	c7 45 f8 2e 00
	00 00		 mov	 DWORD PTR _speech_index$[ebp], 46 ; 0000002eH
$LN9@play_aircr:

; 108  : 				}
; 109  : 
; 110  : 				break;

  0012e	eb 76		 jmp	 SHORT $LN2@play_aircr
$LN10@play_aircr:

; 111  : 			}
; 112  : 			case WEAPON_LAUNCH_WINGMAN_SPEECH_ROCKET:
; 113  : 			{
; 114  : 				if (rand16 () & 0x01)

  00130	69 05 00 00 00
	00 6d 4e c6 41	 imul	 eax, DWORD PTR ?random_number_seed@@3HA, 1103515245 ; random_number_seed
  0013a	05 39 30 00 00	 add	 eax, 12345		; 00003039H
  0013f	a3 00 00 00 00	 mov	 DWORD PTR ?random_number_seed@@3HA, eax ; random_number_seed
  00144	8b 0d 00 00 00
	00		 mov	 ecx, DWORD PTR ?random_number_seed@@3HA ; random_number_seed
  0014a	c1 f9 10	 sar	 ecx, 16			; 00000010H
  0014d	81 e1 ff 7f 00
	00		 and	 ecx, 32767		; 00007fffH
  00153	83 e1 01	 and	 ecx, 1
  00156	74 09		 je	 SHORT $LN11@play_aircr

; 115  : 				{
; 116  : 					speech_index = SPEECH_WINGMAN_FIRING_ROCKETS;

  00158	c7 45 f8 2b 00
	00 00		 mov	 DWORD PTR _speech_index$[ebp], 43 ; 0000002bH

; 117  : 				}
; 118  : 				else

  0015f	eb 07		 jmp	 SHORT $LN12@play_aircr
$LN11@play_aircr:

; 119  : 				{
; 120  : 					speech_index = SPEECH_WINGMAN_ROCKETS_AWAY;

  00161	c7 45 f8 2c 00
	00 00		 mov	 DWORD PTR _speech_index$[ebp], 44 ; 0000002cH
$LN12@play_aircr:

; 121  : 				}
; 122  : 
; 123  : 				break;

  00168	eb 3c		 jmp	 SHORT $LN2@play_aircr
$LN13@play_aircr:

; 124  : 			}
; 125  : 			case WEAPON_LAUNCH_WINGMAN_SPEECH_MISSILE:
; 126  : 			{
; 127  : 				if (rand16 () & 0x01)

  0016a	69 05 00 00 00
	00 6d 4e c6 41	 imul	 eax, DWORD PTR ?random_number_seed@@3HA, 1103515245 ; random_number_seed
  00174	05 39 30 00 00	 add	 eax, 12345		; 00003039H
  00179	a3 00 00 00 00	 mov	 DWORD PTR ?random_number_seed@@3HA, eax ; random_number_seed
  0017e	8b 0d 00 00 00
	00		 mov	 ecx, DWORD PTR ?random_number_seed@@3HA ; random_number_seed
  00184	c1 f9 10	 sar	 ecx, 16			; 00000010H
  00187	81 e1 ff 7f 00
	00		 and	 ecx, 32767		; 00007fffH
  0018d	83 e1 01	 and	 ecx, 1
  00190	74 09		 je	 SHORT $LN14@play_aircr

; 128  : 				{
; 129  : 					speech_index = SPEECH_WINGMAN_LAUNCHING_MISSILE;

  00192	c7 45 f8 29 00
	00 00		 mov	 DWORD PTR _speech_index$[ebp], 41 ; 00000029H

; 130  : 				}
; 131  : 				else

  00199	eb 07		 jmp	 SHORT $LN15@play_aircr
$LN14@play_aircr:

; 132  : 				{
; 133  : 					speech_index = SPEECH_WINGMAN_MISSILE_AWAY;

  0019b	c7 45 f8 2a 00
	00 00		 mov	 DWORD PTR _speech_index$[ebp], 42 ; 0000002aH
$LN15@play_aircr:

; 134  : 				}
; 135  : 
; 136  : 				break;

  001a2	eb 02		 jmp	 SHORT $LN2@play_aircr
$LN16@play_aircr:

; 137  : 			}
; 138  : 			default:
; 139  : 			{
; 140  : 				return;

  001a4	eb 5b		 jmp	 SHORT $LN1@play_aircr
$LN2@play_aircr:

; 141  : 			}
; 142  : 		}
; 143  : 
; 144  : 		ASSERT (speech_index != -1);

  001a6	83 7d f8 ff	 cmp	 DWORD PTR _speech_index$[ebp], -1
  001aa	75 18		 jne	 SHORT $LN17@play_aircr
  001ac	a1 00 00 00 00	 mov	 eax, DWORD PTR ?__LINE__Var@?0??play_aircraft_weapon_launched_speech@@YGXPAUENTITY@@H@Z@4JA
  001b1	83 c0 40	 add	 eax, 64			; 00000040H
  001b4	50		 push	 eax
  001b5	68 00 00 00 00	 push	 OFFSET ??_C@_0EM@OPNBEJPF@c?3?2users?2nhv90?2projects?2eech?2ap@
  001ba	68 00 00 00 00	 push	 OFFSET ??_C@_0BD@DLHLNNPB@speech_index?5?$CB?$DN?5?91@
  001bf	e8 00 00 00 00	 call	 ?process_assert@@YGXPBD0H@Z ; process_assert
$LN17@play_aircr:

; 145  : 
; 146  : 		play_client_server_wingman_message

  001c4	8b 45 f8	 mov	 eax, DWORD PTR _speech_index$[ebp]
  001c7	50		 push	 eax
  001c8	6a 07		 push	 7
  001ca	6a 01		 push	 1
  001cc	51		 push	 ecx
  001cd	f3 0f 10 05 00
	00 00 00	 movss	 xmm0, DWORD PTR __real@40800000
  001d5	f3 0f 11 04 24	 movss	 DWORD PTR [esp], xmm0
  001da	6a 07		 push	 7
  001dc	51		 push	 ecx
  001dd	f3 0f 10 05 00
	00 00 00	 movss	 xmm0, DWORD PTR __real@3fc00000
  001e5	f3 0f 11 04 24	 movss	 DWORD PTR [esp], xmm0
  001ea	51		 push	 ecx
  001eb	f3 0f 10 05 00
	00 00 00	 movss	 xmm0, DWORD PTR __real@3f800000
  001f3	f3 0f 11 04 24	 movss	 DWORD PTR [esp], xmm0
  001f8	8b 4d 08	 mov	 ecx, DWORD PTR _en$[ebp]
  001fb	51		 push	 ecx
  001fc	e8 00 00 00 00	 call	 ?play_client_server_wingman_message@@YGHPAUENTITY@@MMW4speech_category_types@@MW4speech_intro_types@@W4speech_array_types@@H@Z ; play_client_server_wingman_message
$LN6@play_aircr:
$LN1@play_aircr:

; 147  : 		(
; 148  : 			en,
; 149  : 			1.0,
; 150  : 			1.5,
; 151  : 			SPEECH_CATEGORY_FIRING,
; 152  : 			4.0,
; 153  : 			SPEECH_INTRODUCTION_SOMETIMES,
; 154  : 			SPEECH_ARRAY_WINGMAN_MESSAGES,
; 155  : 			speech_index
; 156  : 		);
; 157  : 	}
; 158  : }

  00201	5f		 pop	 edi
  00202	5e		 pop	 esi
  00203	5b		 pop	 ebx
  00204	8b e5		 mov	 esp, ebp
  00206	5d		 pop	 ebp
  00207	c2 08 00	 ret	 8
?play_aircraft_weapon_launched_speech@@YGXPAUENTITY@@H@Z ENDP ; play_aircraft_weapon_launched_speech
_TEXT	ENDS
; Function compile flags: /Odtp /ZI
; File c:\users\nhv90\projects\eech\aphavoc\source\entity\mobile\aircraft\ac_wpn.c
;	COMDAT ?update_aircraft_decoy_release@@YGXPAUENTITY@@@Z
_TEXT	SEGMENT
tv365 = -128						; size = 4
tv336 = -128						; size = 4
tv313 = -128						; size = 4
tv281 = -128						; size = 4
tv258 = -128						; size = 4
tv232 = -128						; size = 4
tv206 = -128						; size = 4
tv177 = -128						; size = 4
tv156 = -128						; size = 4
tv137 = -128						; size = 4
tv357 = -124						; size = 4
tv328 = -124						; size = 4
tv305 = -124						; size = 4
tv273 = -124						; size = 4
tv250 = -124						; size = 4
tv225 = -124						; size = 4
tv218 = -124						; size = 4
tv198 = -124						; size = 4
tv169 = -124						; size = 4
tv149 = -124						; size = 4
tv130 = -124						; size = 4
$T1 = -120						; size = 4
$T2 = -116						; size = 4
_weapon_position$ = -48					; size = 4
_target_position$ = -44					; size = 4
_persuer$ = -40						; size = 4
_weapon_sub_type$ = -36					; size = 4
_time_to_impact$ = -32					; size = 4
_velocity$ = -28					; size = 4
_range$ = -24						; size = 4
_flare_released$ = -20					; size = 4
_chaff_released$ = -16					; size = 4
_flare_available$ = -12					; size = 4
_chaff_available$ = -8					; size = 4
_raw$ = -4						; size = 4
_en$ = 8						; size = 4
?update_aircraft_decoy_release@@YGXPAUENTITY@@@Z PROC	; update_aircraft_decoy_release, COMDAT

; 389  : {

  00000	55		 push	 ebp
  00001	8b ec		 mov	 ebp, esp
  00003	81 ec 80 00 00
	00		 sub	 esp, 128		; 00000080H
  00009	53		 push	 ebx
  0000a	56		 push	 esi
  0000b	57		 push	 edi

; 390  : 	aircraft
; 391  : 		*raw;
; 392  : 
; 393  : 	int
; 394  : 		chaff_available,
; 395  : 		flare_available,
; 396  : 		chaff_released,
; 397  : 		flare_released;
; 398  : 
; 399  : 	float
; 400  : 		range,
; 401  : 		velocity,
; 402  : 		time_to_impact;
; 403  : 
; 404  : 	entity_sub_types
; 405  : 		weapon_sub_type;
; 406  : 
; 407  : 	entity
; 408  : 		*persuer;
; 409  : 
; 410  : 	vec3d
; 411  : 		*target_position,
; 412  : 		*weapon_position;
; 413  : 
; 414  : 	ASSERT (en);

  0000c	83 7d 08 00	 cmp	 DWORD PTR _en$[ebp], 0
  00010	75 18		 jne	 SHORT $LN4@update_air
  00012	a1 00 00 00 00	 mov	 eax, DWORD PTR ?__LINE__Var@?0??update_aircraft_decoy_release@@YGXPAUENTITY@@@Z@4JA
  00017	83 c0 19	 add	 eax, 25			; 00000019H
  0001a	50		 push	 eax
  0001b	68 00 00 00 00	 push	 OFFSET ??_C@_0EM@OPNBEJPF@c?3?2users?2nhv90?2projects?2eech?2ap@
  00020	68 00 00 00 00	 push	 OFFSET ??_C@_02LFNMGJAP@en@
  00025	e8 00 00 00 00	 call	 ?process_assert@@YGXPBD0H@Z ; process_assert
$LN4@update_air:

; 415  : 
; 416  : 	#ifdef DEBUG
; 417  : 
; 418  : 	if (get_comms_model () == COMMS_MODEL_CLIENT)

  0002a	83 3d 00 00 00
	00 01		 cmp	 DWORD PTR ?system_comms_model@@3W4COMMS_MODEL_TYPES@@A, 1 ; system_comms_model
  00031	75 23		 jne	 SHORT $LN6@update_air

; 419  : 	{
; 420  : 		ASSERT (en == get_gunship_entity ());

  00033	8b 45 08	 mov	 eax, DWORD PTR _en$[ebp]
  00036	3b 05 00 00 00
	00		 cmp	 eax, DWORD PTR ?gunship_entity@@3PAUENTITY@@A ; gunship_entity
  0003c	74 18		 je	 SHORT $LN6@update_air
  0003e	a1 00 00 00 00	 mov	 eax, DWORD PTR ?__LINE__Var@?0??update_aircraft_decoy_release@@YGXPAUENTITY@@@Z@4JA
  00043	83 c0 1f	 add	 eax, 31			; 0000001fH
  00046	50		 push	 eax
  00047	68 00 00 00 00	 push	 OFFSET ??_C@_0EM@OPNBEJPF@c?3?2users?2nhv90?2projects?2eech?2ap@
  0004c	68 00 00 00 00	 push	 OFFSET ??_C@_0BM@PIBAHDMH@en?5?$DN?$DN?5get_gunship_entity?5?$CI?$CJ@
  00051	e8 00 00 00 00	 call	 ?process_assert@@YGXPBD0H@Z ; process_assert
$LN6@update_air:

; 421  : 	}
; 422  : 
; 423  : 	#endif
; 424  : 
; 425  : 	raw = (aircraft *) get_local_entity_data (en);

  00056	8b 45 08	 mov	 eax, DWORD PTR _en$[ebp]
  00059	8b 48 04	 mov	 ecx, DWORD PTR [eax+4]
  0005c	89 4d fc	 mov	 DWORD PTR _raw$[ebp], ecx

; 426  : 
; 427  : 	////////////////////////////////////////
; 428  : 	//
; 429  : 	// update timer
; 430  : 	//
; 431  : 	////////////////////////////////////////
; 432  : 
; 433  : 	raw->decoy_release_timer -= get_delta_time ();

  0005f	8b 45 fc	 mov	 eax, DWORD PTR _raw$[ebp]
  00062	f3 0f 10 80 0c
	01 00 00	 movss	 xmm0, DWORD PTR [eax+268]
  0006a	f3 0f 5c 05 00
	00 00 00	 subss	 xmm0, DWORD PTR ?system_delta_time@@3MA
  00072	8b 4d fc	 mov	 ecx, DWORD PTR _raw$[ebp]
  00075	f3 0f 11 81 0c
	01 00 00	 movss	 DWORD PTR [ecx+268], xmm0

; 434  : 
; 435  : 	if (raw->decoy_release_timer >= 0.0)

  0007d	8b 45 fc	 mov	 eax, DWORD PTR _raw$[ebp]
  00080	f3 0f 5a 80 0c
	01 00 00	 cvtss2sd xmm0, DWORD PTR [eax+268]
  00088	66 0f 2f 05 00
	00 00 00	 comisd	 xmm0, QWORD PTR __real@0000000000000000
  00090	72 05		 jb	 SHORT $LN7@update_air

; 436  : 	{
; 437  : 		return;

  00092	e9 1b 07 00 00	 jmp	 $LN1@update_air
$LN7@update_air:

; 438  : 	}
; 439  : 
; 440  : 	raw->decoy_release_timer = 2.0 + frand1 ();

  00097	69 05 00 00 00
	00 6d 4e c6 41	 imul	 eax, DWORD PTR ?random_number_seed@@3HA, 1103515245 ; random_number_seed
  000a1	05 39 30 00 00	 add	 eax, 12345		; 00003039H
  000a6	a3 00 00 00 00	 mov	 DWORD PTR ?random_number_seed@@3HA, eax ; random_number_seed
  000ab	8b 0d 00 00 00
	00		 mov	 ecx, DWORD PTR ?random_number_seed@@3HA ; random_number_seed
  000b1	c1 f9 10	 sar	 ecx, 16			; 00000010H
  000b4	81 e1 ff 7f 00
	00		 and	 ecx, 32767		; 00007fffH
  000ba	f2 0f 2a c1	 cvtsi2sd xmm0, ecx
  000be	f2 0f 59 05 00
	00 00 00	 mulsd	 xmm0, QWORD PTR __real@3f00002000400080
  000c6	f2 0f 58 05 00
	00 00 00	 addsd	 xmm0, QWORD PTR __real@4000000000000000
  000ce	f2 0f 5a c0	 cvtsd2ss xmm0, xmm0
  000d2	8b 55 fc	 mov	 edx, DWORD PTR _raw$[ebp]
  000d5	f3 0f 11 82 0c
	01 00 00	 movss	 DWORD PTR [edx+268], xmm0

; 441  : 
; 442  : 	////////////////////////////////////////
; 443  : 	//
; 444  : 	// validate
; 445  : 	//
; 446  : 	////////////////////////////////////////
; 447  : 
; 448  : 	if (en == get_gunship_entity ())

  000dd	8b 45 08	 mov	 eax, DWORD PTR _en$[ebp]
  000e0	3b 05 00 00 00
	00		 cmp	 eax, DWORD PTR ?gunship_entity@@3PAUENTITY@@A ; gunship_entity
  000e6	75 13		 jne	 SHORT $LN8@update_air

; 449  : 	{
; 450  : 		if (!get_global_auto_counter_measures ())

  000e8	83 3d 90 00 00
	00 00		 cmp	 DWORD PTR ?global_options@@3UGLOBAL_OPTIONS_DATA@@A+144, 0
  000ef	75 05		 jne	 SHORT $LN10@update_air

; 451  : 		{
; 452  : 			return;

  000f1	e9 bc 06 00 00	 jmp	 $LN1@update_air
$LN10@update_air:

; 453  : 		}
; 454  : 	}

  000f6	e9 81 00 00 00	 jmp	 $LN11@update_air
$LN8@update_air:

; 455  : 	else if (get_local_entity_int_value (en, INT_TYPE_PLAYER) != ENTITY_PLAYER_AI)

  000fb	83 7d 08 00	 cmp	 DWORD PTR _en$[ebp], 0
  000ff	74 0a		 je	 SHORT $LN29@update_air
  00101	8b 45 08	 mov	 eax, DWORD PTR _en$[ebp]
  00104	8b 08		 mov	 ecx, DWORD PTR [eax]
  00106	89 4d 84	 mov	 DWORD PTR tv130[ebp], ecx
  00109	eb 1d		 jmp	 SHORT $LN30@update_air
$LN29@update_air:
  0010b	68 c7 01 00 00	 push	 455			; 000001c7H
  00110	68 00 00 00 00	 push	 OFFSET ??_C@_0EM@OPNBEJPF@c?3?2users?2nhv90?2projects?2eech?2ap@
  00115	8b 15 00 00 00
	00		 mov	 edx, DWORD PTR ?null_entity_pointer_message@@3PBDB ; null_entity_pointer_message
  0011b	52		 push	 edx
  0011c	e8 00 00 00 00	 call	 ?process_assert@@YGXPBD0H@Z ; process_assert
  00121	c7 45 84 00 00
	00 00		 mov	 DWORD PTR tv130[ebp], 0
$LN30@update_air:
  00128	b8 01 00 00 00	 mov	 eax, 1
  0012d	85 c0		 test	 eax, eax
  0012f	74 09		 je	 SHORT $LN31@update_air
  00131	c7 45 80 9c 00
	00 00		 mov	 DWORD PTR tv137[ebp], 156 ; 0000009cH
  00138	eb 1d		 jmp	 SHORT $LN32@update_air
$LN31@update_air:
  0013a	68 c7 01 00 00	 push	 455			; 000001c7H
  0013f	68 00 00 00 00	 push	 OFFSET ??_C@_0EM@OPNBEJPF@c?3?2users?2nhv90?2projects?2eech?2ap@
  00144	8b 0d 00 00 00
	00		 mov	 ecx, DWORD PTR ?overload_invalid_int_type_message@@3PBDB ; overload_invalid_int_type_message
  0014a	51		 push	 ecx
  0014b	e8 00 00 00 00	 call	 ?process_assert@@YGXPBD0H@Z ; process_assert
  00150	c7 45 80 00 00
	00 00		 mov	 DWORD PTR tv137[ebp], 0
$LN32@update_air:
  00157	68 9c 00 00 00	 push	 156			; 0000009cH
  0015c	8b 55 08	 mov	 edx, DWORD PTR _en$[ebp]
  0015f	52		 push	 edx
  00160	69 45 84 5c 04
	00 00		 imul	 eax, DWORD PTR tv130[ebp], 1116
  00167	8b 4d 80	 mov	 ecx, DWORD PTR tv137[ebp]
  0016a	8b 94 88 00 00
	00 00		 mov	 edx, DWORD PTR ?fn_get_local_entity_int_value@@3PAY0BBH@P6GHPAUENTITY@@W4INT_TYPES@@@ZA[eax+ecx*4]
  00171	ff d2		 call	 edx
  00173	85 c0		 test	 eax, eax
  00175	74 05		 je	 SHORT $LN11@update_air

; 456  : 	{
; 457  : 		return;

  00177	e9 36 06 00 00	 jmp	 $LN1@update_air
$LN11@update_air:

; 458  : 	}
; 459  : 
; 460  : 	if (!get_local_entity_int_value (en, INT_TYPE_AIRBORNE_AIRCRAFT))

  0017c	83 7d 08 00	 cmp	 DWORD PTR _en$[ebp], 0
  00180	74 0a		 je	 SHORT $LN33@update_air
  00182	8b 45 08	 mov	 eax, DWORD PTR _en$[ebp]
  00185	8b 08		 mov	 ecx, DWORD PTR [eax]
  00187	89 4d 84	 mov	 DWORD PTR tv149[ebp], ecx
  0018a	eb 1d		 jmp	 SHORT $LN34@update_air
$LN33@update_air:
  0018c	68 cc 01 00 00	 push	 460			; 000001ccH
  00191	68 00 00 00 00	 push	 OFFSET ??_C@_0EM@OPNBEJPF@c?3?2users?2nhv90?2projects?2eech?2ap@
  00196	8b 15 00 00 00
	00		 mov	 edx, DWORD PTR ?null_entity_pointer_message@@3PBDB ; null_entity_pointer_message
  0019c	52		 push	 edx
  0019d	e8 00 00 00 00	 call	 ?process_assert@@YGXPBD0H@Z ; process_assert
  001a2	c7 45 84 00 00
	00 00		 mov	 DWORD PTR tv149[ebp], 0
$LN34@update_air:
  001a9	b8 01 00 00 00	 mov	 eax, 1
  001ae	85 c0		 test	 eax, eax
  001b0	74 09		 je	 SHORT $LN35@update_air
  001b2	c7 45 80 04 00
	00 00		 mov	 DWORD PTR tv156[ebp], 4
  001b9	eb 1d		 jmp	 SHORT $LN36@update_air
$LN35@update_air:
  001bb	68 cc 01 00 00	 push	 460			; 000001ccH
  001c0	68 00 00 00 00	 push	 OFFSET ??_C@_0EM@OPNBEJPF@c?3?2users?2nhv90?2projects?2eech?2ap@
  001c5	8b 0d 00 00 00
	00		 mov	 ecx, DWORD PTR ?overload_invalid_int_type_message@@3PBDB ; overload_invalid_int_type_message
  001cb	51		 push	 ecx
  001cc	e8 00 00 00 00	 call	 ?process_assert@@YGXPBD0H@Z ; process_assert
  001d1	c7 45 80 00 00
	00 00		 mov	 DWORD PTR tv156[ebp], 0
$LN36@update_air:
  001d8	6a 04		 push	 4
  001da	8b 55 08	 mov	 edx, DWORD PTR _en$[ebp]
  001dd	52		 push	 edx
  001de	69 45 84 5c 04
	00 00		 imul	 eax, DWORD PTR tv149[ebp], 1116
  001e5	8b 4d 80	 mov	 ecx, DWORD PTR tv156[ebp]
  001e8	8b 94 88 00 00
	00 00		 mov	 edx, DWORD PTR ?fn_get_local_entity_int_value@@3PAY0BBH@P6GHPAUENTITY@@W4INT_TYPES@@@ZA[eax+ecx*4]
  001ef	ff d2		 call	 edx
  001f1	85 c0		 test	 eax, eax
  001f3	75 05		 jne	 SHORT $LN12@update_air

; 461  : 	{
; 462  : 		return;

  001f5	e9 b8 05 00 00	 jmp	 $LN1@update_air
$LN12@update_air:

; 463  : 	}
; 464  : 
; 465  : 	persuer = get_local_entity_first_child (en, LIST_TYPE_TARGET);

  001fa	83 7d 08 00	 cmp	 DWORD PTR _en$[ebp], 0
  001fe	74 0a		 je	 SHORT $LN37@update_air
  00200	8b 45 08	 mov	 eax, DWORD PTR _en$[ebp]
  00203	8b 08		 mov	 ecx, DWORD PTR [eax]
  00205	89 4d 84	 mov	 DWORD PTR tv169[ebp], ecx
  00208	eb 21		 jmp	 SHORT $LN38@update_air
$LN37@update_air:
  0020a	8b 15 00 00 00
	00		 mov	 edx, DWORD PTR ?__LINE__Var@?0??update_aircraft_decoy_release@@YGXPAUENTITY@@@Z@4JA
  00210	83 c2 4c	 add	 edx, 76			; 0000004cH
  00213	52		 push	 edx
  00214	68 00 00 00 00	 push	 OFFSET ??_C@_0EM@OPNBEJPF@c?3?2users?2nhv90?2projects?2eech?2ap@
  00219	a1 00 00 00 00	 mov	 eax, DWORD PTR ?null_entity_pointer_message@@3PBDB ; null_entity_pointer_message
  0021e	50		 push	 eax
  0021f	e8 00 00 00 00	 call	 ?process_assert@@YGXPBD0H@Z ; process_assert
  00224	c7 45 84 00 00
	00 00		 mov	 DWORD PTR tv169[ebp], 0
$LN38@update_air:
  0022b	b9 01 00 00 00	 mov	 ecx, 1
  00230	85 c9		 test	 ecx, ecx
  00232	74 09		 je	 SHORT $LN39@update_air
  00234	c7 45 80 26 00
	00 00		 mov	 DWORD PTR tv177[ebp], 38 ; 00000026H
  0023b	eb 21		 jmp	 SHORT $LN40@update_air
$LN39@update_air:
  0023d	8b 15 00 00 00
	00		 mov	 edx, DWORD PTR ?__LINE__Var@?0??update_aircraft_decoy_release@@YGXPAUENTITY@@@Z@4JA
  00243	83 c2 4c	 add	 edx, 76			; 0000004cH
  00246	52		 push	 edx
  00247	68 00 00 00 00	 push	 OFFSET ??_C@_0EM@OPNBEJPF@c?3?2users?2nhv90?2projects?2eech?2ap@
  0024c	a1 00 00 00 00	 mov	 eax, DWORD PTR ?overload_invalid_list_type_message@@3PBDB ; overload_invalid_list_type_message
  00251	50		 push	 eax
  00252	e8 00 00 00 00	 call	 ?process_assert@@YGXPBD0H@Z ; process_assert
  00257	c7 45 80 00 00
	00 00		 mov	 DWORD PTR tv177[ebp], 0
$LN40@update_air:
  0025e	6a 26		 push	 38			; 00000026H
  00260	8b 4d 08	 mov	 ecx, DWORD PTR _en$[ebp]
  00263	51		 push	 ecx
  00264	69 55 84 b4 00
	00 00		 imul	 edx, DWORD PTR tv169[ebp], 180
  0026b	8b 45 80	 mov	 eax, DWORD PTR tv177[ebp]
  0026e	8b 8c 82 00 00
	00 00		 mov	 ecx, DWORD PTR ?fn_get_local_entity_first_child@@3PAY0CN@P6GPAUENTITY@@PAU1@W4LIST_TYPES@@@ZA[edx+eax*4]
  00275	ff d1		 call	 ecx
  00277	89 45 d8	 mov	 DWORD PTR _persuer$[ebp], eax

; 466  : 
; 467  : 	if (!persuer)

  0027a	83 7d d8 00	 cmp	 DWORD PTR _persuer$[ebp], 0
  0027e	75 05		 jne	 SHORT $LN13@update_air

; 468  : 	{
; 469  : 		return;

  00280	e9 2d 05 00 00	 jmp	 $LN1@update_air
$LN13@update_air:

; 470  : 	}
; 471  : 
; 472  : 	chaff_available = get_local_entity_weapon_available (en, ENTITY_SUB_TYPE_WEAPON_CHAFF);

  00285	6a 43		 push	 67			; 00000043H
  00287	8b 45 08	 mov	 eax, DWORD PTR _en$[ebp]
  0028a	50		 push	 eax
  0028b	e8 00 00 00 00	 call	 ?get_local_entity_weapon_available@@YGHPAUENTITY@@H@Z ; get_local_entity_weapon_available
  00290	89 45 f8	 mov	 DWORD PTR _chaff_available$[ebp], eax

; 473  : 
; 474  : 	flare_available = get_local_entity_weapon_available (en, ENTITY_SUB_TYPE_WEAPON_FLARE);

  00293	6a 44		 push	 68			; 00000044H
  00295	8b 45 08	 mov	 eax, DWORD PTR _en$[ebp]
  00298	50		 push	 eax
  00299	e8 00 00 00 00	 call	 ?get_local_entity_weapon_available@@YGHPAUENTITY@@H@Z ; get_local_entity_weapon_available
  0029e	89 45 f4	 mov	 DWORD PTR _flare_available$[ebp], eax

; 475  : 
; 476  : 	if (!(chaff_available || flare_available))

  002a1	83 7d f8 00	 cmp	 DWORD PTR _chaff_available$[ebp], 0
  002a5	75 0b		 jne	 SHORT $LN14@update_air
  002a7	83 7d f4 00	 cmp	 DWORD PTR _flare_available$[ebp], 0
  002ab	75 05		 jne	 SHORT $LN14@update_air

; 477  : 	{
; 478  : 		return;

  002ad	e9 00 05 00 00	 jmp	 $LN1@update_air
$LN14@update_air:

; 479  : 	}
; 480  : 
; 481  : 	////////////////////////////////////////
; 482  : 	//
; 483  : 	// check all persuers
; 484  : 	//
; 485  : 	////////////////////////////////////////
; 486  : 
; 487  : 	target_position = get_local_entity_vec3d_ptr (en, VEC3D_TYPE_POSITION);

  002b2	83 7d 08 00	 cmp	 DWORD PTR _en$[ebp], 0
  002b6	74 0a		 je	 SHORT $LN41@update_air
  002b8	8b 45 08	 mov	 eax, DWORD PTR _en$[ebp]
  002bb	8b 08		 mov	 ecx, DWORD PTR [eax]
  002bd	89 4d 84	 mov	 DWORD PTR tv198[ebp], ecx
  002c0	eb 21		 jmp	 SHORT $LN42@update_air
$LN41@update_air:
  002c2	8b 15 00 00 00
	00		 mov	 edx, DWORD PTR ?__LINE__Var@?0??update_aircraft_decoy_release@@YGXPAUENTITY@@@Z@4JA
  002c8	83 c2 62	 add	 edx, 98			; 00000062H
  002cb	52		 push	 edx
  002cc	68 00 00 00 00	 push	 OFFSET ??_C@_0EM@OPNBEJPF@c?3?2users?2nhv90?2projects?2eech?2ap@
  002d1	a1 00 00 00 00	 mov	 eax, DWORD PTR ?null_entity_pointer_message@@3PBDB ; null_entity_pointer_message
  002d6	50		 push	 eax
  002d7	e8 00 00 00 00	 call	 ?process_assert@@YGXPBD0H@Z ; process_assert
  002dc	c7 45 84 00 00
	00 00		 mov	 DWORD PTR tv198[ebp], 0
$LN42@update_air:
  002e3	b9 01 00 00 00	 mov	 ecx, 1
  002e8	85 c9		 test	 ecx, ecx
  002ea	74 09		 je	 SHORT $LN43@update_air
  002ec	c7 45 80 08 00
	00 00		 mov	 DWORD PTR tv206[ebp], 8
  002f3	eb 21		 jmp	 SHORT $LN44@update_air
$LN43@update_air:
  002f5	8b 15 00 00 00
	00		 mov	 edx, DWORD PTR ?__LINE__Var@?0??update_aircraft_decoy_release@@YGXPAUENTITY@@@Z@4JA
  002fb	83 c2 62	 add	 edx, 98			; 00000062H
  002fe	52		 push	 edx
  002ff	68 00 00 00 00	 push	 OFFSET ??_C@_0EM@OPNBEJPF@c?3?2users?2nhv90?2projects?2eech?2ap@
  00304	a1 00 00 00 00	 mov	 eax, DWORD PTR ?overload_invalid_vec3d_type_message@@3PBDB ; overload_invalid_vec3d_type_message
  00309	50		 push	 eax
  0030a	e8 00 00 00 00	 call	 ?process_assert@@YGXPBD0H@Z ; process_assert
  0030f	c7 45 80 00 00
	00 00		 mov	 DWORD PTR tv206[ebp], 0
$LN44@update_air:
  00316	6a 08		 push	 8
  00318	8b 4d 08	 mov	 ecx, DWORD PTR _en$[ebp]
  0031b	51		 push	 ecx
  0031c	6b 55 84 60	 imul	 edx, DWORD PTR tv198[ebp], 96
  00320	8b 45 80	 mov	 eax, DWORD PTR tv206[ebp]
  00323	8b 8c 82 00 00
	00 00		 mov	 ecx, DWORD PTR ?fn_get_local_entity_vec3d_ptr@@3PAY0BI@P6GPAUVEC3D@@PAUENTITY@@W4VEC3D_TYPES@@@ZA[edx+eax*4]
  0032a	ff d1		 call	 ecx
  0032c	89 45 d4	 mov	 DWORD PTR _target_position$[ebp], eax

; 488  : 
; 489  : 	chaff_released = FALSE;

  0032f	c7 45 f0 00 00
	00 00		 mov	 DWORD PTR _chaff_released$[ebp], 0

; 490  : 	flare_released = FALSE;

  00336	c7 45 ec 00 00
	00 00		 mov	 DWORD PTR _flare_released$[ebp], 0
$LN2@update_air:

; 491  : 
; 492  : 	while (persuer)

  0033d	83 7d d8 00	 cmp	 DWORD PTR _persuer$[ebp], 0
  00341	0f 84 6b 04 00
	00		 je	 $LN3@update_air

; 493  : 	{
; 494  : 		if (get_local_entity_type (persuer) == ENTITY_TYPE_WEAPON)

  00347	83 7d d8 00	 cmp	 DWORD PTR _persuer$[ebp], 0
  0034b	74 0a		 je	 SHORT $LN45@update_air
  0034d	8b 45 d8	 mov	 eax, DWORD PTR _persuer$[ebp]
  00350	8b 08		 mov	 ecx, DWORD PTR [eax]
  00352	89 4d 84	 mov	 DWORD PTR tv218[ebp], ecx
  00355	eb 1d		 jmp	 SHORT $LN46@update_air
$LN45@update_air:
  00357	68 ee 01 00 00	 push	 494			; 000001eeH
  0035c	68 00 00 00 00	 push	 OFFSET ??_C@_0EM@OPNBEJPF@c?3?2users?2nhv90?2projects?2eech?2ap@
  00361	8b 15 00 00 00
	00		 mov	 edx, DWORD PTR ?null_entity_pointer_message@@3PBDB ; null_entity_pointer_message
  00367	52		 push	 edx
  00368	e8 00 00 00 00	 call	 ?process_assert@@YGXPBD0H@Z ; process_assert
  0036d	c7 45 84 00 00
	00 00		 mov	 DWORD PTR tv218[ebp], 0
$LN46@update_air:
  00374	83 7d 84 25	 cmp	 DWORD PTR tv218[ebp], 37 ; 00000025H
  00378	0f 85 a9 03 00
	00		 jne	 $LN27@update_air

; 495  : 		{
; 496  : 			if (get_local_entity_int_value (persuer, INT_TYPE_WEAPON_GUIDANCE_TYPE) != WEAPON_GUIDANCE_TYPE_NONE)

  0037e	83 7d d8 00	 cmp	 DWORD PTR _persuer$[ebp], 0
  00382	74 0a		 je	 SHORT $LN47@update_air
  00384	8b 45 d8	 mov	 eax, DWORD PTR _persuer$[ebp]
  00387	8b 08		 mov	 ecx, DWORD PTR [eax]
  00389	89 4d 84	 mov	 DWORD PTR tv225[ebp], ecx
  0038c	eb 1d		 jmp	 SHORT $LN48@update_air
$LN47@update_air:
  0038e	68 f0 01 00 00	 push	 496			; 000001f0H
  00393	68 00 00 00 00	 push	 OFFSET ??_C@_0EM@OPNBEJPF@c?3?2users?2nhv90?2projects?2eech?2ap@
  00398	8b 15 00 00 00
	00		 mov	 edx, DWORD PTR ?null_entity_pointer_message@@3PBDB ; null_entity_pointer_message
  0039e	52		 push	 edx
  0039f	e8 00 00 00 00	 call	 ?process_assert@@YGXPBD0H@Z ; process_assert
  003a4	c7 45 84 00 00
	00 00		 mov	 DWORD PTR tv225[ebp], 0
$LN48@update_air:
  003ab	b8 01 00 00 00	 mov	 eax, 1
  003b0	85 c0		 test	 eax, eax
  003b2	74 09		 je	 SHORT $LN49@update_air
  003b4	c7 45 80 07 01
	00 00		 mov	 DWORD PTR tv232[ebp], 263 ; 00000107H
  003bb	eb 1d		 jmp	 SHORT $LN50@update_air
$LN49@update_air:
  003bd	68 f0 01 00 00	 push	 496			; 000001f0H
  003c2	68 00 00 00 00	 push	 OFFSET ??_C@_0EM@OPNBEJPF@c?3?2users?2nhv90?2projects?2eech?2ap@
  003c7	8b 0d 00 00 00
	00		 mov	 ecx, DWORD PTR ?overload_invalid_int_type_message@@3PBDB ; overload_invalid_int_type_message
  003cd	51		 push	 ecx
  003ce	e8 00 00 00 00	 call	 ?process_assert@@YGXPBD0H@Z ; process_assert
  003d3	c7 45 80 00 00
	00 00		 mov	 DWORD PTR tv232[ebp], 0
$LN50@update_air:
  003da	68 07 01 00 00	 push	 263			; 00000107H
  003df	8b 55 d8	 mov	 edx, DWORD PTR _persuer$[ebp]
  003e2	52		 push	 edx
  003e3	69 45 84 5c 04
	00 00		 imul	 eax, DWORD PTR tv225[ebp], 1116
  003ea	8b 4d 80	 mov	 ecx, DWORD PTR tv232[ebp]
  003ed	8b 94 88 00 00
	00 00		 mov	 edx, DWORD PTR ?fn_get_local_entity_int_value@@3PAY0BBH@P6GHPAUENTITY@@W4INT_TYPES@@@ZA[eax+ecx*4]
  003f4	ff d2		 call	 edx
  003f6	85 c0		 test	 eax, eax
  003f8	0f 84 29 03 00
	00		 je	 $LN27@update_air

; 497  : 			{
; 498  : 				weapon_sub_type = get_decoy_type_for_weapon (persuer);

  003fe	8b 45 d8	 mov	 eax, DWORD PTR _persuer$[ebp]
  00401	50		 push	 eax
  00402	e8 00 00 00 00	 call	 ?get_decoy_type_for_weapon@@YGHPAUENTITY@@@Z ; get_decoy_type_for_weapon
  00407	89 45 dc	 mov	 DWORD PTR _weapon_sub_type$[ebp], eax

; 499  : 
; 500  : 				if (weapon_sub_type == ENTITY_SUB_TYPE_WEAPON_CHAFF)

  0040a	83 7d dc 43	 cmp	 DWORD PTR _weapon_sub_type$[ebp], 67 ; 00000043H
  0040e	0f 85 81 01 00
	00		 jne	 $LN17@update_air

; 501  : 				{
; 502  : 					if (chaff_available)

  00414	83 7d f8 00	 cmp	 DWORD PTR _chaff_available$[ebp], 0
  00418	0f 84 72 01 00
	00		 je	 $LN22@update_air

; 503  : 					{
; 504  : 						if (!chaff_released)

  0041e	83 7d f0 00	 cmp	 DWORD PTR _chaff_released$[ebp], 0
  00422	0f 85 68 01 00
	00		 jne	 $LN22@update_air

; 505  : 						{
; 506  : 							weapon_position = get_local_entity_vec3d_ptr (persuer, VEC3D_TYPE_POSITION);

  00428	83 7d d8 00	 cmp	 DWORD PTR _persuer$[ebp], 0
  0042c	74 0a		 je	 SHORT $LN51@update_air
  0042e	8b 45 d8	 mov	 eax, DWORD PTR _persuer$[ebp]
  00431	8b 08		 mov	 ecx, DWORD PTR [eax]
  00433	89 4d 84	 mov	 DWORD PTR tv250[ebp], ecx
  00436	eb 21		 jmp	 SHORT $LN52@update_air
$LN51@update_air:
  00438	8b 15 00 00 00
	00		 mov	 edx, DWORD PTR ?__LINE__Var@?0??update_aircraft_decoy_release@@YGXPAUENTITY@@@Z@4JA
  0043e	83 c2 75	 add	 edx, 117		; 00000075H
  00441	52		 push	 edx
  00442	68 00 00 00 00	 push	 OFFSET ??_C@_0EM@OPNBEJPF@c?3?2users?2nhv90?2projects?2eech?2ap@
  00447	a1 00 00 00 00	 mov	 eax, DWORD PTR ?null_entity_pointer_message@@3PBDB ; null_entity_pointer_message
  0044c	50		 push	 eax
  0044d	e8 00 00 00 00	 call	 ?process_assert@@YGXPBD0H@Z ; process_assert
  00452	c7 45 84 00 00
	00 00		 mov	 DWORD PTR tv250[ebp], 0
$LN52@update_air:
  00459	b9 01 00 00 00	 mov	 ecx, 1
  0045e	85 c9		 test	 ecx, ecx
  00460	74 09		 je	 SHORT $LN53@update_air
  00462	c7 45 80 08 00
	00 00		 mov	 DWORD PTR tv258[ebp], 8
  00469	eb 21		 jmp	 SHORT $LN54@update_air
$LN53@update_air:
  0046b	8b 15 00 00 00
	00		 mov	 edx, DWORD PTR ?__LINE__Var@?0??update_aircraft_decoy_release@@YGXPAUENTITY@@@Z@4JA
  00471	83 c2 75	 add	 edx, 117		; 00000075H
  00474	52		 push	 edx
  00475	68 00 00 00 00	 push	 OFFSET ??_C@_0EM@OPNBEJPF@c?3?2users?2nhv90?2projects?2eech?2ap@
  0047a	a1 00 00 00 00	 mov	 eax, DWORD PTR ?overload_invalid_vec3d_type_message@@3PBDB ; overload_invalid_vec3d_type_message
  0047f	50		 push	 eax
  00480	e8 00 00 00 00	 call	 ?process_assert@@YGXPBD0H@Z ; process_assert
  00485	c7 45 80 00 00
	00 00		 mov	 DWORD PTR tv258[ebp], 0
$LN54@update_air:
  0048c	6a 08		 push	 8
  0048e	8b 4d d8	 mov	 ecx, DWORD PTR _persuer$[ebp]
  00491	51		 push	 ecx
  00492	6b 55 84 60	 imul	 edx, DWORD PTR tv250[ebp], 96
  00496	8b 45 80	 mov	 eax, DWORD PTR tv258[ebp]
  00499	8b 8c 82 00 00
	00 00		 mov	 ecx, DWORD PTR ?fn_get_local_entity_vec3d_ptr@@3PAY0BI@P6GPAUVEC3D@@PAUENTITY@@W4VEC3D_TYPES@@@ZA[edx+eax*4]
  004a0	ff d1		 call	 ecx
  004a2	89 45 d0	 mov	 DWORD PTR _weapon_position$[ebp], eax

; 507  : 
; 508  : 							range = get_approx_3d_range (weapon_position, target_position);

  004a5	8b 45 d4	 mov	 eax, DWORD PTR _target_position$[ebp]
  004a8	50		 push	 eax
  004a9	8b 4d d0	 mov	 ecx, DWORD PTR _weapon_position$[ebp]
  004ac	51		 push	 ecx
  004ad	e8 00 00 00 00	 call	 ?get_approx_3d_range@@YGMPBUVEC3D@@0@Z ; get_approx_3d_range
  004b2	d9 5d e8	 fstp	 DWORD PTR _range$[ebp]

; 509  : 
; 510  : 							velocity = get_local_entity_float_value (persuer, FLOAT_TYPE_VELOCITY);

  004b5	83 7d d8 00	 cmp	 DWORD PTR _persuer$[ebp], 0
  004b9	74 0a		 je	 SHORT $LN55@update_air
  004bb	8b 45 d8	 mov	 eax, DWORD PTR _persuer$[ebp]
  004be	8b 08		 mov	 ecx, DWORD PTR [eax]
  004c0	89 4d 84	 mov	 DWORD PTR tv273[ebp], ecx
  004c3	eb 21		 jmp	 SHORT $LN56@update_air
$LN55@update_air:
  004c5	8b 15 00 00 00
	00		 mov	 edx, DWORD PTR ?__LINE__Var@?0??update_aircraft_decoy_release@@YGXPAUENTITY@@@Z@4JA
  004cb	83 c2 79	 add	 edx, 121		; 00000079H
  004ce	52		 push	 edx
  004cf	68 00 00 00 00	 push	 OFFSET ??_C@_0EM@OPNBEJPF@c?3?2users?2nhv90?2projects?2eech?2ap@
  004d4	a1 00 00 00 00	 mov	 eax, DWORD PTR ?null_entity_pointer_message@@3PBDB ; null_entity_pointer_message
  004d9	50		 push	 eax
  004da	e8 00 00 00 00	 call	 ?process_assert@@YGXPBD0H@Z ; process_assert
  004df	c7 45 84 00 00
	00 00		 mov	 DWORD PTR tv273[ebp], 0
$LN56@update_air:
  004e6	b9 01 00 00 00	 mov	 ecx, 1
  004eb	85 c9		 test	 ecx, ecx
  004ed	74 09		 je	 SHORT $LN57@update_air
  004ef	c7 45 80 93 00
	00 00		 mov	 DWORD PTR tv281[ebp], 147 ; 00000093H
  004f6	eb 21		 jmp	 SHORT $LN58@update_air
$LN57@update_air:
  004f8	8b 15 00 00 00
	00		 mov	 edx, DWORD PTR ?__LINE__Var@?0??update_aircraft_decoy_release@@YGXPAUENTITY@@@Z@4JA
  004fe	83 c2 79	 add	 edx, 121		; 00000079H
  00501	52		 push	 edx
  00502	68 00 00 00 00	 push	 OFFSET ??_C@_0EM@OPNBEJPF@c?3?2users?2nhv90?2projects?2eech?2ap@
  00507	a1 00 00 00 00	 mov	 eax, DWORD PTR ?overload_invalid_float_type_message@@3PBDB ; overload_invalid_float_type_message
  0050c	50		 push	 eax
  0050d	e8 00 00 00 00	 call	 ?process_assert@@YGXPBD0H@Z ; process_assert
  00512	c7 45 80 00 00
	00 00		 mov	 DWORD PTR tv281[ebp], 0
$LN58@update_air:
  00519	68 93 00 00 00	 push	 147			; 00000093H
  0051e	8b 4d d8	 mov	 ecx, DWORD PTR _persuer$[ebp]
  00521	51		 push	 ecx
  00522	69 55 84 bc 02
	00 00		 imul	 edx, DWORD PTR tv273[ebp], 700
  00529	8b 45 80	 mov	 eax, DWORD PTR tv281[ebp]
  0052c	8b 8c 82 00 00
	00 00		 mov	 ecx, DWORD PTR ?fn_get_local_entity_float_value@@3PAY0KP@P6GMPAUENTITY@@W4FLOAT_TYPES@@@ZA[edx+eax*4]
  00533	ff d1		 call	 ecx
  00535	d9 5d e4	 fstp	 DWORD PTR _velocity$[ebp]

; 511  : 
; 512  : 							time_to_impact = range / max (velocity, 1.0f);

  00538	f3 0f 10 05 00
	00 00 00	 movss	 xmm0, DWORD PTR __real@3f800000
  00540	f3 0f 11 45 8c	 movss	 DWORD PTR $T2[ebp], xmm0
  00545	8d 45 8c	 lea	 eax, DWORD PTR $T2[ebp]
  00548	50		 push	 eax
  00549	8d 4d e4	 lea	 ecx, DWORD PTR _velocity$[ebp]
  0054c	51		 push	 ecx
  0054d	e8 00 00 00 00	 call	 ??$max@M@std@@YGABMABM0@Z ; std::max<float>
  00552	f3 0f 10 45 e8	 movss	 xmm0, DWORD PTR _range$[ebp]
  00557	f3 0f 5e 00	 divss	 xmm0, DWORD PTR [eax]
  0055b	f3 0f 11 45 e0	 movss	 DWORD PTR _time_to_impact$[ebp], xmm0

; 513  : 
; 514  : 							if (time_to_impact < 10.0)

  00560	f3 0f 5a 45 e0	 cvtss2sd xmm0, DWORD PTR _time_to_impact$[ebp]
  00565	f2 0f 10 0d 00
	00 00 00	 movsd	 xmm1, QWORD PTR __real@4024000000000000
  0056d	66 0f 2f c8	 comisd	 xmm1, xmm0
  00571	76 1d		 jbe	 SHORT $LN22@update_air

; 515  : 							{
; 516  : 								launch_client_server_weapon (en, ENTITY_SUB_TYPE_WEAPON_CHAFF);

  00573	6a 43		 push	 67			; 00000043H
  00575	8b 45 08	 mov	 eax, DWORD PTR _en$[ebp]
  00578	50		 push	 eax
  00579	e8 00 00 00 00	 call	 ?launch_client_server_weapon@@YGXPAUENTITY@@H@Z ; launch_client_server_weapon

; 517  : 
; 518  : 								chaff_released = TRUE;

  0057e	c7 45 f0 01 00
	00 00		 mov	 DWORD PTR _chaff_released$[ebp], 1

; 519  : 
; 520  : 								if (flare_released)

  00585	83 7d ec 00	 cmp	 DWORD PTR _flare_released$[ebp], 0
  00589	74 05		 je	 SHORT $LN22@update_air

; 521  : 								{
; 522  : 									break;

  0058b	e9 22 02 00 00	 jmp	 $LN3@update_air
$LN22@update_air:

; 523  : 								}
; 524  : 							}
; 525  : 						}
; 526  : 					}
; 527  : 				}

  00590	e9 92 01 00 00	 jmp	 $LN27@update_air
$LN17@update_air:

; 528  : 				else if (weapon_sub_type == ENTITY_SUB_TYPE_WEAPON_FLARE)

  00595	83 7d dc 44	 cmp	 DWORD PTR _weapon_sub_type$[ebp], 68 ; 00000044H
  00599	0f 85 88 01 00
	00		 jne	 $LN27@update_air

; 529  : 				{
; 530  : 					if (flare_available)

  0059f	83 7d f4 00	 cmp	 DWORD PTR _flare_available$[ebp], 0
  005a3	0f 84 7e 01 00
	00		 je	 $LN27@update_air

; 531  : 					{
; 532  : 						if (!flare_released)

  005a9	83 7d ec 00	 cmp	 DWORD PTR _flare_released$[ebp], 0
  005ad	0f 85 74 01 00
	00		 jne	 $LN27@update_air

; 533  : 						{
; 534  : 							weapon_position = get_local_entity_vec3d_ptr (persuer, VEC3D_TYPE_POSITION);

  005b3	83 7d d8 00	 cmp	 DWORD PTR _persuer$[ebp], 0
  005b7	74 0a		 je	 SHORT $LN59@update_air
  005b9	8b 45 d8	 mov	 eax, DWORD PTR _persuer$[ebp]
  005bc	8b 08		 mov	 ecx, DWORD PTR [eax]
  005be	89 4d 84	 mov	 DWORD PTR tv305[ebp], ecx
  005c1	eb 24		 jmp	 SHORT $LN60@update_air
$LN59@update_air:
  005c3	8b 15 00 00 00
	00		 mov	 edx, DWORD PTR ?__LINE__Var@?0??update_aircraft_decoy_release@@YGXPAUENTITY@@@Z@4JA
  005c9	81 c2 91 00 00
	00		 add	 edx, 145		; 00000091H
  005cf	52		 push	 edx
  005d0	68 00 00 00 00	 push	 OFFSET ??_C@_0EM@OPNBEJPF@c?3?2users?2nhv90?2projects?2eech?2ap@
  005d5	a1 00 00 00 00	 mov	 eax, DWORD PTR ?null_entity_pointer_message@@3PBDB ; null_entity_pointer_message
  005da	50		 push	 eax
  005db	e8 00 00 00 00	 call	 ?process_assert@@YGXPBD0H@Z ; process_assert
  005e0	c7 45 84 00 00
	00 00		 mov	 DWORD PTR tv305[ebp], 0
$LN60@update_air:
  005e7	b9 01 00 00 00	 mov	 ecx, 1
  005ec	85 c9		 test	 ecx, ecx
  005ee	74 09		 je	 SHORT $LN61@update_air
  005f0	c7 45 80 08 00
	00 00		 mov	 DWORD PTR tv313[ebp], 8
  005f7	eb 24		 jmp	 SHORT $LN62@update_air
$LN61@update_air:
  005f9	8b 15 00 00 00
	00		 mov	 edx, DWORD PTR ?__LINE__Var@?0??update_aircraft_decoy_release@@YGXPAUENTITY@@@Z@4JA
  005ff	81 c2 91 00 00
	00		 add	 edx, 145		; 00000091H
  00605	52		 push	 edx
  00606	68 00 00 00 00	 push	 OFFSET ??_C@_0EM@OPNBEJPF@c?3?2users?2nhv90?2projects?2eech?2ap@
  0060b	a1 00 00 00 00	 mov	 eax, DWORD PTR ?overload_invalid_vec3d_type_message@@3PBDB ; overload_invalid_vec3d_type_message
  00610	50		 push	 eax
  00611	e8 00 00 00 00	 call	 ?process_assert@@YGXPBD0H@Z ; process_assert
  00616	c7 45 80 00 00
	00 00		 mov	 DWORD PTR tv313[ebp], 0
$LN62@update_air:
  0061d	6a 08		 push	 8
  0061f	8b 4d d8	 mov	 ecx, DWORD PTR _persuer$[ebp]
  00622	51		 push	 ecx
  00623	6b 55 84 60	 imul	 edx, DWORD PTR tv305[ebp], 96
  00627	8b 45 80	 mov	 eax, DWORD PTR tv313[ebp]
  0062a	8b 8c 82 00 00
	00 00		 mov	 ecx, DWORD PTR ?fn_get_local_entity_vec3d_ptr@@3PAY0BI@P6GPAUVEC3D@@PAUENTITY@@W4VEC3D_TYPES@@@ZA[edx+eax*4]
  00631	ff d1		 call	 ecx
  00633	89 45 d0	 mov	 DWORD PTR _weapon_position$[ebp], eax

; 535  : 
; 536  : 							range = get_approx_3d_range (weapon_position, target_position);

  00636	8b 45 d4	 mov	 eax, DWORD PTR _target_position$[ebp]
  00639	50		 push	 eax
  0063a	8b 4d d0	 mov	 ecx, DWORD PTR _weapon_position$[ebp]
  0063d	51		 push	 ecx
  0063e	e8 00 00 00 00	 call	 ?get_approx_3d_range@@YGMPBUVEC3D@@0@Z ; get_approx_3d_range
  00643	d9 5d e8	 fstp	 DWORD PTR _range$[ebp]

; 537  : 
; 538  : 							velocity = get_local_entity_float_value (persuer, FLOAT_TYPE_VELOCITY);

  00646	83 7d d8 00	 cmp	 DWORD PTR _persuer$[ebp], 0
  0064a	74 0a		 je	 SHORT $LN63@update_air
  0064c	8b 45 d8	 mov	 eax, DWORD PTR _persuer$[ebp]
  0064f	8b 08		 mov	 ecx, DWORD PTR [eax]
  00651	89 4d 84	 mov	 DWORD PTR tv328[ebp], ecx
  00654	eb 24		 jmp	 SHORT $LN64@update_air
$LN63@update_air:
  00656	8b 15 00 00 00
	00		 mov	 edx, DWORD PTR ?__LINE__Var@?0??update_aircraft_decoy_release@@YGXPAUENTITY@@@Z@4JA
  0065c	81 c2 95 00 00
	00		 add	 edx, 149		; 00000095H
  00662	52		 push	 edx
  00663	68 00 00 00 00	 push	 OFFSET ??_C@_0EM@OPNBEJPF@c?3?2users?2nhv90?2projects?2eech?2ap@
  00668	a1 00 00 00 00	 mov	 eax, DWORD PTR ?null_entity_pointer_message@@3PBDB ; null_entity_pointer_message
  0066d	50		 push	 eax
  0066e	e8 00 00 00 00	 call	 ?process_assert@@YGXPBD0H@Z ; process_assert
  00673	c7 45 84 00 00
	00 00		 mov	 DWORD PTR tv328[ebp], 0
$LN64@update_air:
  0067a	b9 01 00 00 00	 mov	 ecx, 1
  0067f	85 c9		 test	 ecx, ecx
  00681	74 09		 je	 SHORT $LN65@update_air
  00683	c7 45 80 93 00
	00 00		 mov	 DWORD PTR tv336[ebp], 147 ; 00000093H
  0068a	eb 24		 jmp	 SHORT $LN66@update_air
$LN65@update_air:
  0068c	8b 15 00 00 00
	00		 mov	 edx, DWORD PTR ?__LINE__Var@?0??update_aircraft_decoy_release@@YGXPAUENTITY@@@Z@4JA
  00692	81 c2 95 00 00
	00		 add	 edx, 149		; 00000095H
  00698	52		 push	 edx
  00699	68 00 00 00 00	 push	 OFFSET ??_C@_0EM@OPNBEJPF@c?3?2users?2nhv90?2projects?2eech?2ap@
  0069e	a1 00 00 00 00	 mov	 eax, DWORD PTR ?overload_invalid_float_type_message@@3PBDB ; overload_invalid_float_type_message
  006a3	50		 push	 eax
  006a4	e8 00 00 00 00	 call	 ?process_assert@@YGXPBD0H@Z ; process_assert
  006a9	c7 45 80 00 00
	00 00		 mov	 DWORD PTR tv336[ebp], 0
$LN66@update_air:
  006b0	68 93 00 00 00	 push	 147			; 00000093H
  006b5	8b 4d d8	 mov	 ecx, DWORD PTR _persuer$[ebp]
  006b8	51		 push	 ecx
  006b9	69 55 84 bc 02
	00 00		 imul	 edx, DWORD PTR tv328[ebp], 700
  006c0	8b 45 80	 mov	 eax, DWORD PTR tv336[ebp]
  006c3	8b 8c 82 00 00
	00 00		 mov	 ecx, DWORD PTR ?fn_get_local_entity_float_value@@3PAY0KP@P6GMPAUENTITY@@W4FLOAT_TYPES@@@ZA[edx+eax*4]
  006ca	ff d1		 call	 ecx
  006cc	d9 5d e4	 fstp	 DWORD PTR _velocity$[ebp]

; 539  : 
; 540  : 							time_to_impact = range / max (velocity, 1.0f);

  006cf	f3 0f 10 05 00
	00 00 00	 movss	 xmm0, DWORD PTR __real@3f800000
  006d7	f3 0f 11 45 88	 movss	 DWORD PTR $T1[ebp], xmm0
  006dc	8d 45 88	 lea	 eax, DWORD PTR $T1[ebp]
  006df	50		 push	 eax
  006e0	8d 4d e4	 lea	 ecx, DWORD PTR _velocity$[ebp]
  006e3	51		 push	 ecx
  006e4	e8 00 00 00 00	 call	 ??$max@M@std@@YGABMABM0@Z ; std::max<float>
  006e9	f3 0f 10 45 e8	 movss	 xmm0, DWORD PTR _range$[ebp]
  006ee	f3 0f 5e 00	 divss	 xmm0, DWORD PTR [eax]
  006f2	f3 0f 11 45 e0	 movss	 DWORD PTR _time_to_impact$[ebp], xmm0

; 541  : 
; 542  : 							if (time_to_impact < 10.0)

  006f7	f3 0f 5a 45 e0	 cvtss2sd xmm0, DWORD PTR _time_to_impact$[ebp]
  006fc	f2 0f 10 0d 00
	00 00 00	 movsd	 xmm1, QWORD PTR __real@4024000000000000
  00704	66 0f 2f c8	 comisd	 xmm1, xmm0
  00708	76 1d		 jbe	 SHORT $LN27@update_air

; 543  : 							{
; 544  : 								launch_client_server_weapon (en, ENTITY_SUB_TYPE_WEAPON_FLARE);

  0070a	6a 44		 push	 68			; 00000044H
  0070c	8b 45 08	 mov	 eax, DWORD PTR _en$[ebp]
  0070f	50		 push	 eax
  00710	e8 00 00 00 00	 call	 ?launch_client_server_weapon@@YGXPAUENTITY@@H@Z ; launch_client_server_weapon

; 545  : 
; 546  : 								flare_released = TRUE;

  00715	c7 45 ec 01 00
	00 00		 mov	 DWORD PTR _flare_released$[ebp], 1

; 547  : 
; 548  : 								if (chaff_released)

  0071c	83 7d f0 00	 cmp	 DWORD PTR _chaff_released$[ebp], 0
  00720	74 05		 je	 SHORT $LN27@update_air

; 549  : 								{
; 550  : 									break;

  00722	e9 8b 00 00 00	 jmp	 $LN3@update_air
$LN27@update_air:

; 551  : 								}
; 552  : 							}
; 553  : 						}
; 554  : 					}
; 555  : 				}
; 556  : 			}
; 557  : 		}
; 558  : 
; 559  : 		persuer = get_local_entity_child_succ (persuer, LIST_TYPE_TARGET);

  00727	83 7d d8 00	 cmp	 DWORD PTR _persuer$[ebp], 0
  0072b	74 0a		 je	 SHORT $LN67@update_air
  0072d	8b 45 d8	 mov	 eax, DWORD PTR _persuer$[ebp]
  00730	8b 08		 mov	 ecx, DWORD PTR [eax]
  00732	89 4d 84	 mov	 DWORD PTR tv357[ebp], ecx
  00735	eb 24		 jmp	 SHORT $LN68@update_air
$LN67@update_air:
  00737	8b 15 00 00 00
	00		 mov	 edx, DWORD PTR ?__LINE__Var@?0??update_aircraft_decoy_release@@YGXPAUENTITY@@@Z@4JA
  0073d	81 c2 aa 00 00
	00		 add	 edx, 170		; 000000aaH
  00743	52		 push	 edx
  00744	68 00 00 00 00	 push	 OFFSET ??_C@_0EM@OPNBEJPF@c?3?2users?2nhv90?2projects?2eech?2ap@
  00749	a1 00 00 00 00	 mov	 eax, DWORD PTR ?null_entity_pointer_message@@3PBDB ; null_entity_pointer_message
  0074e	50		 push	 eax
  0074f	e8 00 00 00 00	 call	 ?process_assert@@YGXPBD0H@Z ; process_assert
  00754	c7 45 84 00 00
	00 00		 mov	 DWORD PTR tv357[ebp], 0
$LN68@update_air:
  0075b	b9 01 00 00 00	 mov	 ecx, 1
  00760	85 c9		 test	 ecx, ecx
  00762	74 09		 je	 SHORT $LN69@update_air
  00764	c7 45 80 26 00
	00 00		 mov	 DWORD PTR tv365[ebp], 38 ; 00000026H
  0076b	eb 24		 jmp	 SHORT $LN70@update_air
$LN69@update_air:
  0076d	8b 15 00 00 00
	00		 mov	 edx, DWORD PTR ?__LINE__Var@?0??update_aircraft_decoy_release@@YGXPAUENTITY@@@Z@4JA
  00773	81 c2 aa 00 00
	00		 add	 edx, 170		; 000000aaH
  00779	52		 push	 edx
  0077a	68 00 00 00 00	 push	 OFFSET ??_C@_0EM@OPNBEJPF@c?3?2users?2nhv90?2projects?2eech?2ap@
  0077f	a1 00 00 00 00	 mov	 eax, DWORD PTR ?overload_invalid_list_type_message@@3PBDB ; overload_invalid_list_type_message
  00784	50		 push	 eax
  00785	e8 00 00 00 00	 call	 ?process_assert@@YGXPBD0H@Z ; process_assert
  0078a	c7 45 80 00 00
	00 00		 mov	 DWORD PTR tv365[ebp], 0
$LN70@update_air:
  00791	6a 26		 push	 38			; 00000026H
  00793	8b 4d d8	 mov	 ecx, DWORD PTR _persuer$[ebp]
  00796	51		 push	 ecx
  00797	69 55 84 b4 00
	00 00		 imul	 edx, DWORD PTR tv357[ebp], 180
  0079e	8b 45 80	 mov	 eax, DWORD PTR tv365[ebp]
  007a1	8b 8c 82 00 00
	00 00		 mov	 ecx, DWORD PTR ?fn_get_local_entity_child_succ@@3PAY0CN@P6GPAUENTITY@@PAU1@W4LIST_TYPES@@@ZA[edx+eax*4]
  007a8	ff d1		 call	 ecx
  007aa	89 45 d8	 mov	 DWORD PTR _persuer$[ebp], eax

; 560  : 	}

  007ad	e9 8b fb ff ff	 jmp	 $LN2@update_air
$LN3@update_air:
$LN1@update_air:

; 561  : }

  007b2	5f		 pop	 edi
  007b3	5e		 pop	 esi
  007b4	5b		 pop	 ebx
  007b5	8b e5		 mov	 esp, ebp
  007b7	5d		 pop	 ebp
  007b8	c2 04 00	 ret	 4
?update_aircraft_decoy_release@@YGXPAUENTITY@@@Z ENDP	; update_aircraft_decoy_release
_TEXT	ENDS
; Function compile flags: /Odtp /ZI
; File c:\users\nhv90\projects\eech\aphavoc\source\entity\mobile\aircraft\ac_wpn.c
;	COMDAT ?update_aircraft_weapon_fire@@YGXPAUENTITY@@@Z
_TEXT	SEGMENT
_raw$ = -4						; size = 4
_en$ = 8						; size = 4
?update_aircraft_weapon_fire@@YGXPAUENTITY@@@Z PROC	; update_aircraft_weapon_fire, COMDAT

; 308  : {

  00000	55		 push	 ebp
  00001	8b ec		 mov	 ebp, esp
  00003	83 ec 44	 sub	 esp, 68			; 00000044H
  00006	53		 push	 ebx
  00007	56		 push	 esi
  00008	57		 push	 edi

; 309  :    aircraft
; 310  :       *raw;
; 311  : 
; 312  : 	ASSERT (en);

  00009	83 7d 08 00	 cmp	 DWORD PTR _en$[ebp], 0
  0000d	75 18		 jne	 SHORT $LN2@update_air
  0000f	a1 00 00 00 00	 mov	 eax, DWORD PTR ?__LINE__Var@?0??update_aircraft_weapon_fire@@YGXPAUENTITY@@@Z@4JA
  00014	83 c0 04	 add	 eax, 4
  00017	50		 push	 eax
  00018	68 00 00 00 00	 push	 OFFSET ??_C@_0EM@OPNBEJPF@c?3?2users?2nhv90?2projects?2eech?2ap@
  0001d	68 00 00 00 00	 push	 OFFSET ??_C@_02LFNMGJAP@en@
  00022	e8 00 00 00 00	 call	 ?process_assert@@YGXPBD0H@Z ; process_assert
$LN2@update_air:

; 313  : 
; 314  : 	ASSERT (get_comms_model () == COMMS_MODEL_SERVER);

  00027	83 3d 00 00 00
	00 00		 cmp	 DWORD PTR ?system_comms_model@@3W4COMMS_MODEL_TYPES@@A, 0 ; system_comms_model
  0002e	74 18		 je	 SHORT $LN3@update_air
  00030	a1 00 00 00 00	 mov	 eax, DWORD PTR ?__LINE__Var@?0??update_aircraft_weapon_fire@@YGXPAUENTITY@@@Z@4JA
  00035	83 c0 06	 add	 eax, 6
  00038	50		 push	 eax
  00039	68 00 00 00 00	 push	 OFFSET ??_C@_0EM@OPNBEJPF@c?3?2users?2nhv90?2projects?2eech?2ap@
  0003e	68 00 00 00 00	 push	 OFFSET ??_C@_0CJ@DMBLBJBK@get_comms_model?5?$CI?$CJ?5?$DN?$DN?5COMMS_MOD@
  00043	e8 00 00 00 00	 call	 ?process_assert@@YGXPBD0H@Z ; process_assert
$LN3@update_air:

; 315  : 
; 316  :    raw = (aircraft *) get_local_entity_data (en);

  00048	8b 45 08	 mov	 eax, DWORD PTR _en$[ebp]
  0004b	8b 48 04	 mov	 ecx, DWORD PTR [eax+4]
  0004e	89 4d fc	 mov	 DWORD PTR _raw$[ebp], ecx

; 317  : 
; 318  : 	if (raw->weapon_burst_timer > 0.0)

  00051	8b 45 fc	 mov	 eax, DWORD PTR _raw$[ebp]
  00054	f3 0f 5a 80 04
	01 00 00	 cvtss2sd xmm0, DWORD PTR [eax+260]
  0005c	66 0f 2f 05 00
	00 00 00	 comisd	 xmm0, QWORD PTR __real@0000000000000000
  00064	0f 86 ff 00 00
	00		 jbe	 $LN4@update_air

; 319  : 	{
; 320  : 		//
; 321  : 		// check valid selected weapon
; 322  : 		//
; 323  : 
; 324  : 		if (raw->selected_weapon == ENTITY_SUB_TYPE_WEAPON_NO_WEAPON)

  0006a	8b 45 fc	 mov	 eax, DWORD PTR _raw$[ebp]
  0006d	83 b8 24 01 00
	00 00		 cmp	 DWORD PTR [eax+292], 0
  00074	75 26		 jne	 SHORT $LN6@update_air

; 325  : 		{
; 326  : 			pause_client_server_continuous_weapon_sound_effect (en, raw->selected_weapon);

  00076	8b 45 fc	 mov	 eax, DWORD PTR _raw$[ebp]
  00079	8b 88 24 01 00
	00		 mov	 ecx, DWORD PTR [eax+292]
  0007f	51		 push	 ecx
  00080	8b 55 08	 mov	 edx, DWORD PTR _en$[ebp]
  00083	52		 push	 edx
  00084	e8 00 00 00 00	 call	 ?pause_client_server_continuous_weapon_sound_effect@@YGXPAUENTITY@@H@Z ; pause_client_server_continuous_weapon_sound_effect

; 327  : 
; 328  : 			raw->weapon_burst_timer = 0.0;

  00089	8b 45 fc	 mov	 eax, DWORD PTR _raw$[ebp]
  0008c	0f 57 c0	 xorps	 xmm0, xmm0
  0008f	f3 0f 11 80 04
	01 00 00	 movss	 DWORD PTR [eax+260], xmm0

; 329  : 
; 330  : 			return;

  00097	e9 da 00 00 00	 jmp	 $LN1@update_air
$LN6@update_air:

; 331  : 		}
; 332  : 
; 333  : 		//
; 334  : 		// check selected weapon is ready
; 335  : 		//
; 336  : 
; 337  : 		if (!raw->selected_weapon_system_ready)

  0009c	8b 45 fc	 mov	 eax, DWORD PTR _raw$[ebp]
  0009f	8b 88 2c 01 00
	00		 mov	 ecx, DWORD PTR [eax+300]
  000a5	c1 e9 0b	 shr	 ecx, 11			; 0000000bH
  000a8	83 e1 01	 and	 ecx, 1
  000ab	75 26		 jne	 SHORT $LN7@update_air

; 338  : 		{
; 339  : 			pause_client_server_continuous_weapon_sound_effect (en, raw->selected_weapon);

  000ad	8b 45 fc	 mov	 eax, DWORD PTR _raw$[ebp]
  000b0	8b 88 24 01 00
	00		 mov	 ecx, DWORD PTR [eax+292]
  000b6	51		 push	 ecx
  000b7	8b 55 08	 mov	 edx, DWORD PTR _en$[ebp]
  000ba	52		 push	 edx
  000bb	e8 00 00 00 00	 call	 ?pause_client_server_continuous_weapon_sound_effect@@YGXPAUENTITY@@H@Z ; pause_client_server_continuous_weapon_sound_effect

; 340  : 
; 341  : 			raw->weapon_burst_timer = 0.0;

  000c0	8b 45 fc	 mov	 eax, DWORD PTR _raw$[ebp]
  000c3	0f 57 c0	 xorps	 xmm0, xmm0
  000c6	f3 0f 11 80 04
	01 00 00	 movss	 DWORD PTR [eax+260], xmm0

; 342  : 
; 343  : 			return;

  000ce	e9 a3 00 00 00	 jmp	 $LN1@update_air
$LN7@update_air:

; 344  : 		}
; 345  : 
; 346  : 		//
; 347  : 		// check valid target
; 348  : 		//
; 349  : 
; 350  : 		if (!raw->mob.target_link.parent)

  000d3	8b 45 fc	 mov	 eax, DWORD PTR _raw$[ebp]
  000d6	83 78 64 00	 cmp	 DWORD PTR [eax+100], 0
  000da	75 23		 jne	 SHORT $LN8@update_air

; 351  : 		{
; 352  : 			pause_client_server_continuous_weapon_sound_effect (en, raw->selected_weapon);

  000dc	8b 45 fc	 mov	 eax, DWORD PTR _raw$[ebp]
  000df	8b 88 24 01 00
	00		 mov	 ecx, DWORD PTR [eax+292]
  000e5	51		 push	 ecx
  000e6	8b 55 08	 mov	 edx, DWORD PTR _en$[ebp]
  000e9	52		 push	 edx
  000ea	e8 00 00 00 00	 call	 ?pause_client_server_continuous_weapon_sound_effect@@YGXPAUENTITY@@H@Z ; pause_client_server_continuous_weapon_sound_effect

; 353  : 
; 354  : 			raw->weapon_burst_timer = 0.0;

  000ef	8b 45 fc	 mov	 eax, DWORD PTR _raw$[ebp]
  000f2	0f 57 c0	 xorps	 xmm0, xmm0
  000f5	f3 0f 11 80 04
	01 00 00	 movss	 DWORD PTR [eax+260], xmm0

; 355  : 
; 356  : 			return;

  000fd	eb 77		 jmp	 SHORT $LN1@update_air
$LN8@update_air:

; 357  : 		}
; 358  : 
; 359  : 		//
; 360  : 		// fire weapon
; 361  : 		//
; 362  : 
; 363  : 		launch_client_server_weapon (en, raw->selected_weapon);

  000ff	8b 45 fc	 mov	 eax, DWORD PTR _raw$[ebp]
  00102	8b 88 24 01 00
	00		 mov	 ecx, DWORD PTR [eax+292]
  00108	51		 push	 ecx
  00109	8b 55 08	 mov	 edx, DWORD PTR _en$[ebp]
  0010c	52		 push	 edx
  0010d	e8 00 00 00 00	 call	 ?launch_client_server_weapon@@YGXPAUENTITY@@H@Z ; launch_client_server_weapon

; 364  : 
; 365  : 		//
; 366  : 		// update burst timer
; 367  : 		//
; 368  : 
; 369  : 		raw->weapon_burst_timer -= get_delta_time ();

  00112	8b 45 fc	 mov	 eax, DWORD PTR _raw$[ebp]
  00115	f3 0f 10 80 04
	01 00 00	 movss	 xmm0, DWORD PTR [eax+260]
  0011d	f3 0f 5c 05 00
	00 00 00	 subss	 xmm0, DWORD PTR ?system_delta_time@@3MA
  00125	8b 4d fc	 mov	 ecx, DWORD PTR _raw$[ebp]
  00128	f3 0f 11 81 04
	01 00 00	 movss	 DWORD PTR [ecx+260], xmm0

; 370  : 
; 371  : 		if (raw->weapon_burst_timer <= 0.0)

  00130	8b 45 fc	 mov	 eax, DWORD PTR _raw$[ebp]
  00133	f3 0f 5a 80 04
	01 00 00	 cvtss2sd xmm0, DWORD PTR [eax+260]
  0013b	0f 57 c9	 xorps	 xmm1, xmm1
  0013e	66 0f 2f c8	 comisd	 xmm1, xmm0
  00142	72 23		 jb	 SHORT $LN9@update_air

; 372  : 		{
; 373  : 			pause_client_server_continuous_weapon_sound_effect (en, raw->selected_weapon);

  00144	8b 45 fc	 mov	 eax, DWORD PTR _raw$[ebp]
  00147	8b 88 24 01 00
	00		 mov	 ecx, DWORD PTR [eax+292]
  0014d	51		 push	 ecx
  0014e	8b 55 08	 mov	 edx, DWORD PTR _en$[ebp]
  00151	52		 push	 edx
  00152	e8 00 00 00 00	 call	 ?pause_client_server_continuous_weapon_sound_effect@@YGXPAUENTITY@@H@Z ; pause_client_server_continuous_weapon_sound_effect

; 374  : 
; 375  : 			raw->weapon_burst_timer = 0.0;

  00157	8b 45 fc	 mov	 eax, DWORD PTR _raw$[ebp]
  0015a	0f 57 c0	 xorps	 xmm0, xmm0
  0015d	f3 0f 11 80 04
	01 00 00	 movss	 DWORD PTR [eax+260], xmm0

; 376  : 
; 377  : 			return;

  00165	eb 0f		 jmp	 SHORT $LN1@update_air
$LN9@update_air:

; 378  : 		}
; 379  : 	}
; 380  : 	else

  00167	eb 0d		 jmp	 SHORT $LN5@update_air
$LN4@update_air:

; 381  : 		raw->weapon_salvo_timer = 0.0;

  00169	8b 45 fc	 mov	 eax, DWORD PTR _raw$[ebp]
  0016c	c7 80 30 01 00
	00 00 00 00 00	 mov	 DWORD PTR [eax+304], 0
$LN5@update_air:
$LN1@update_air:

; 382  : }

  00176	5f		 pop	 edi
  00177	5e		 pop	 esi
  00178	5b		 pop	 ebx
  00179	8b e5		 mov	 esp, ebp
  0017b	5d		 pop	 ebp
  0017c	c2 04 00	 ret	 4
?update_aircraft_weapon_fire@@YGXPAUENTITY@@@Z ENDP	; update_aircraft_weapon_fire
_TEXT	ENDS
; Function compile flags: /Odtp /ZI
; File c:\users\nhv90\projects\eech\aphavoc\source\entity\mobile\aircraft\ac_wpn.c
;	COMDAT ?aircraft_fire_weapon@@YG?AW4AIRCRAFT_FIRE_RESULT@@PAUENTITY@@I@Z
_TEXT	SEGMENT
tv530 = -112						; size = 8
tv400 = -112						; size = 4
tv351 = -112						; size = 4
tv392 = -108						; size = 4
tv343 = -108						; size = 4
tv425 = -104						; size = 4
tv376 = -104						; size = 4
tv327 = -104						; size = 4
tv296 = -104						; size = 4
tv266 = -104						; size = 4
tv246 = -104						; size = 4
tv226 = -104						; size = 4
tv205 = -104						; size = 4
tv183 = -104						; size = 4
tv159 = -104						; size = 4
tv137 = -104						; size = 4
tv84 = -104						; size = 4
tv551 = -100						; size = 4
tv417 = -100						; size = 4
tv368 = -100						; size = 4
tv319 = -100						; size = 4
tv289 = -100						; size = 4
tv258 = -100						; size = 4
tv238 = -100						; size = 4
tv218 = -100						; size = 4
tv198 = -100						; size = 4
tv175 = -100						; size = 4
tv152 = -100						; size = 4
tv130 = -100						; size = 4
tv77 = -100						; size = 4
_criteria$1 = -32					; size = 4
_loal_mode$ = -28					; size = 4
_en_pos$ = -24						; size = 12
_target_pos$ = -12					; size = 4
_raw$ = -8						; size = 4
_target$ = -4						; size = 4
_en$ = 8						; size = 4
_check_flags$ = 12					; size = 4
?aircraft_fire_weapon@@YG?AW4AIRCRAFT_FIRE_RESULT@@PAUENTITY@@I@Z PROC ; aircraft_fire_weapon, COMDAT

; 165  : {

  00000	55		 push	 ebp
  00001	8b ec		 mov	 ebp, esp
  00003	83 ec 70	 sub	 esp, 112		; 00000070H
  00006	53		 push	 ebx
  00007	56		 push	 esi
  00008	57		 push	 edi

; 166  : 	entity
; 167  : 		*target;
; 168  : 
; 169  : 	aircraft
; 170  : 		*raw;
; 171  : 
; 172  : 	vec3d
; 173  : 		*target_pos,
; 174  : 		en_pos;
; 175  : 
; 176  : 	int loal_mode = FALSE;

  00009	c7 45 e4 00 00
	00 00		 mov	 DWORD PTR _loal_mode$[ebp], 0

; 177  : 
; 178  : 	ASSERT (en);

  00010	83 7d 08 00	 cmp	 DWORD PTR _en$[ebp], 0
  00014	75 18		 jne	 SHORT $LN2@aircraft_f
  00016	a1 00 00 00 00	 mov	 eax, DWORD PTR ?__LINE__Var@?0??aircraft_fire_weapon@@YG?AW4AIRCRAFT_FIRE_RESULT@@PAUENTITY@@I@Z@4JA
  0001b	83 c0 0d	 add	 eax, 13			; 0000000dH
  0001e	50		 push	 eax
  0001f	68 00 00 00 00	 push	 OFFSET ??_C@_0EM@OPNBEJPF@c?3?2users?2nhv90?2projects?2eech?2ap@
  00024	68 00 00 00 00	 push	 OFFSET ??_C@_02LFNMGJAP@en@
  00029	e8 00 00 00 00	 call	 ?process_assert@@YGXPBD0H@Z ; process_assert
$LN2@aircraft_f:

; 179  : 
; 180  : 	raw = (aircraft *) get_local_entity_data (en);

  0002e	8b 45 08	 mov	 eax, DWORD PTR _en$[ebp]
  00031	8b 48 04	 mov	 ecx, DWORD PTR [eax+4]
  00034	89 4d f8	 mov	 DWORD PTR _raw$[ebp], ecx

; 181  : 
; 182  : 	//
; 183  : 	// Fire suppressed
; 184  : 	//
; 185  : 
; 186  : 	if (check_flags & AIRCRAFT_FIRE_SUPPRESSED)

  00037	8b 45 0c	 mov	 eax, DWORD PTR _check_flags$[ebp]
  0003a	83 e0 20	 and	 eax, 32			; 00000020H
  0003d	0f 84 8e 00 00
	00		 je	 $LN4@aircraft_f

; 187  : 	{
; 188  : 		if (get_local_entity_int_value (get_session_entity (), INT_TYPE_SUPPRESS_AI_FIRE))

  00043	83 3d 00 00 00
	00 00		 cmp	 DWORD PTR ?session_entity@@3PAUENTITY@@A, 0 ; session_entity
  0004a	74 0c		 je	 SHORT $LN18@aircraft_f
  0004c	a1 00 00 00 00	 mov	 eax, DWORD PTR ?session_entity@@3PAUENTITY@@A ; session_entity
  00051	8b 08		 mov	 ecx, DWORD PTR [eax]
  00053	89 4d 9c	 mov	 DWORD PTR tv77[ebp], ecx
  00056	eb 1d		 jmp	 SHORT $LN19@aircraft_f
$LN18@aircraft_f:
  00058	68 bc 00 00 00	 push	 188			; 000000bcH
  0005d	68 00 00 00 00	 push	 OFFSET ??_C@_0EM@OPNBEJPF@c?3?2users?2nhv90?2projects?2eech?2ap@
  00062	8b 15 00 00 00
	00		 mov	 edx, DWORD PTR ?null_entity_pointer_message@@3PBDB ; null_entity_pointer_message
  00068	52		 push	 edx
  00069	e8 00 00 00 00	 call	 ?process_assert@@YGXPBD0H@Z ; process_assert
  0006e	c7 45 9c 00 00
	00 00		 mov	 DWORD PTR tv77[ebp], 0
$LN19@aircraft_f:
  00075	b8 01 00 00 00	 mov	 eax, 1
  0007a	85 c0		 test	 eax, eax
  0007c	74 09		 je	 SHORT $LN20@aircraft_f
  0007e	c7 45 98 d0 00
	00 00		 mov	 DWORD PTR tv84[ebp], 208 ; 000000d0H
  00085	eb 1d		 jmp	 SHORT $LN21@aircraft_f
$LN20@aircraft_f:
  00087	68 bc 00 00 00	 push	 188			; 000000bcH
  0008c	68 00 00 00 00	 push	 OFFSET ??_C@_0EM@OPNBEJPF@c?3?2users?2nhv90?2projects?2eech?2ap@
  00091	8b 0d 00 00 00
	00		 mov	 ecx, DWORD PTR ?overload_invalid_int_type_message@@3PBDB ; overload_invalid_int_type_message
  00097	51		 push	 ecx
  00098	e8 00 00 00 00	 call	 ?process_assert@@YGXPBD0H@Z ; process_assert
  0009d	c7 45 98 00 00
	00 00		 mov	 DWORD PTR tv84[ebp], 0
$LN21@aircraft_f:
  000a4	68 d0 00 00 00	 push	 208			; 000000d0H
  000a9	8b 15 00 00 00
	00		 mov	 edx, DWORD PTR ?session_entity@@3PAUENTITY@@A ; session_entity
  000af	52		 push	 edx
  000b0	69 45 9c 5c 04
	00 00		 imul	 eax, DWORD PTR tv77[ebp], 1116
  000b7	8b 4d 98	 mov	 ecx, DWORD PTR tv84[ebp]
  000ba	8b 94 88 00 00
	00 00		 mov	 edx, DWORD PTR ?fn_get_local_entity_int_value@@3PAY0BBH@P6GHPAUENTITY@@W4INT_TYPES@@@ZA[eax+ecx*4]
  000c1	ff d2		 call	 edx
  000c3	85 c0		 test	 eax, eax
  000c5	74 0a		 je	 SHORT $LN4@aircraft_f

; 189  : 		{
; 190  : 			return AIRCRAFT_FIRE_SUPPRESSED;

  000c7	b8 20 00 00 00	 mov	 eax, 32			; 00000020H
  000cc	e9 e7 07 00 00	 jmp	 $LN1@aircraft_f
$LN4@aircraft_f:

; 191  : 		}
; 192  : 	}
; 193  : 
; 194  : 	//
; 195  : 	// check weapon
; 196  : 	//
; 197  : 
; 198  : 	if (check_flags & AIRCRAFT_FIRE_NO_WEAPON)

  000d1	8b 45 0c	 mov	 eax, DWORD PTR _check_flags$[ebp]
  000d4	83 e0 04	 and	 eax, 4
  000d7	0f 84 93 00 00
	00		 je	 $LN6@aircraft_f

; 199  : 	{
; 200  : 		if (get_local_entity_int_value (en, INT_TYPE_SELECTED_WEAPON) == ENTITY_SUB_TYPE_WEAPON_NO_WEAPON)

  000dd	83 7d 08 00	 cmp	 DWORD PTR _en$[ebp], 0
  000e1	74 0a		 je	 SHORT $LN22@aircraft_f
  000e3	8b 45 08	 mov	 eax, DWORD PTR _en$[ebp]
  000e6	8b 08		 mov	 ecx, DWORD PTR [eax]
  000e8	89 4d 9c	 mov	 DWORD PTR tv130[ebp], ecx
  000eb	eb 1d		 jmp	 SHORT $LN23@aircraft_f
$LN22@aircraft_f:
  000ed	68 c8 00 00 00	 push	 200			; 000000c8H
  000f2	68 00 00 00 00	 push	 OFFSET ??_C@_0EM@OPNBEJPF@c?3?2users?2nhv90?2projects?2eech?2ap@
  000f7	8b 15 00 00 00
	00		 mov	 edx, DWORD PTR ?null_entity_pointer_message@@3PBDB ; null_entity_pointer_message
  000fd	52		 push	 edx
  000fe	e8 00 00 00 00	 call	 ?process_assert@@YGXPBD0H@Z ; process_assert
  00103	c7 45 9c 00 00
	00 00		 mov	 DWORD PTR tv130[ebp], 0
$LN23@aircraft_f:
  0010a	b8 01 00 00 00	 mov	 eax, 1
  0010f	85 c0		 test	 eax, eax
  00111	74 09		 je	 SHORT $LN24@aircraft_f
  00113	c7 45 98 b8 00
	00 00		 mov	 DWORD PTR tv137[ebp], 184 ; 000000b8H
  0011a	eb 1d		 jmp	 SHORT $LN25@aircraft_f
$LN24@aircraft_f:
  0011c	68 c8 00 00 00	 push	 200			; 000000c8H
  00121	68 00 00 00 00	 push	 OFFSET ??_C@_0EM@OPNBEJPF@c?3?2users?2nhv90?2projects?2eech?2ap@
  00126	8b 0d 00 00 00
	00		 mov	 ecx, DWORD PTR ?overload_invalid_int_type_message@@3PBDB ; overload_invalid_int_type_message
  0012c	51		 push	 ecx
  0012d	e8 00 00 00 00	 call	 ?process_assert@@YGXPBD0H@Z ; process_assert
  00132	c7 45 98 00 00
	00 00		 mov	 DWORD PTR tv137[ebp], 0
$LN25@aircraft_f:
  00139	68 b8 00 00 00	 push	 184			; 000000b8H
  0013e	8b 55 08	 mov	 edx, DWORD PTR _en$[ebp]
  00141	52		 push	 edx
  00142	69 45 9c 5c 04
	00 00		 imul	 eax, DWORD PTR tv130[ebp], 1116
  00149	8b 4d 98	 mov	 ecx, DWORD PTR tv137[ebp]
  0014c	8b 94 88 00 00
	00 00		 mov	 edx, DWORD PTR ?fn_get_local_entity_int_value@@3PAY0BBH@P6GHPAUENTITY@@W4INT_TYPES@@@ZA[eax+ecx*4]
  00153	ff d2		 call	 edx
  00155	85 c0		 test	 eax, eax
  00157	75 17		 jne	 SHORT $LN6@aircraft_f

; 201  : 		{
; 202  : 			debug_log ("AC_WPN: Fire Weapon Error - NO WEAPON");

  00159	68 00 00 00 00	 push	 OFFSET ??_C@_0CG@FLDNICPN@AC_WPN?3?5Fire?5Weapon?5Error?5?9?5NO?5@
  0015e	e8 00 00 00 00	 call	 ?debug_log@@YAXPBDZZ	; debug_log
  00163	83 c4 04	 add	 esp, 4

; 203  : 
; 204  : 			return AIRCRAFT_FIRE_NO_WEAPON;

  00166	b8 04 00 00 00	 mov	 eax, 4
  0016b	e9 48 07 00 00	 jmp	 $LN1@aircraft_f
$LN6@aircraft_f:

; 205  : 		}
; 206  : 	}
; 207  : 
; 208  : 	//
; 209  : 	// weapon system_ready
; 210  : 	//
; 211  : 
; 212  : 	if (check_flags & AIRCRAFT_FIRE_WEAPON_SYSTEM_NOT_READY)

  00170	8b 45 0c	 mov	 eax, DWORD PTR _check_flags$[ebp]
  00173	83 e0 02	 and	 eax, 2
  00176	0f 84 93 00 00
	00		 je	 $LN8@aircraft_f

; 213  : 	{
; 214  : 		if (!get_local_entity_int_value (en, INT_TYPE_SELECTED_WEAPON_SYSTEM_READY))

  0017c	83 7d 08 00	 cmp	 DWORD PTR _en$[ebp], 0
  00180	74 0a		 je	 SHORT $LN26@aircraft_f
  00182	8b 45 08	 mov	 eax, DWORD PTR _en$[ebp]
  00185	8b 08		 mov	 ecx, DWORD PTR [eax]
  00187	89 4d 9c	 mov	 DWORD PTR tv152[ebp], ecx
  0018a	eb 1d		 jmp	 SHORT $LN27@aircraft_f
$LN26@aircraft_f:
  0018c	68 d6 00 00 00	 push	 214			; 000000d6H
  00191	68 00 00 00 00	 push	 OFFSET ??_C@_0EM@OPNBEJPF@c?3?2users?2nhv90?2projects?2eech?2ap@
  00196	8b 15 00 00 00
	00		 mov	 edx, DWORD PTR ?null_entity_pointer_message@@3PBDB ; null_entity_pointer_message
  0019c	52		 push	 edx
  0019d	e8 00 00 00 00	 call	 ?process_assert@@YGXPBD0H@Z ; process_assert
  001a2	c7 45 9c 00 00
	00 00		 mov	 DWORD PTR tv152[ebp], 0
$LN27@aircraft_f:
  001a9	b8 01 00 00 00	 mov	 eax, 1
  001ae	85 c0		 test	 eax, eax
  001b0	74 09		 je	 SHORT $LN28@aircraft_f
  001b2	c7 45 98 b9 00
	00 00		 mov	 DWORD PTR tv159[ebp], 185 ; 000000b9H
  001b9	eb 1d		 jmp	 SHORT $LN29@aircraft_f
$LN28@aircraft_f:
  001bb	68 d6 00 00 00	 push	 214			; 000000d6H
  001c0	68 00 00 00 00	 push	 OFFSET ??_C@_0EM@OPNBEJPF@c?3?2users?2nhv90?2projects?2eech?2ap@
  001c5	8b 0d 00 00 00
	00		 mov	 ecx, DWORD PTR ?overload_invalid_int_type_message@@3PBDB ; overload_invalid_int_type_message
  001cb	51		 push	 ecx
  001cc	e8 00 00 00 00	 call	 ?process_assert@@YGXPBD0H@Z ; process_assert
  001d1	c7 45 98 00 00
	00 00		 mov	 DWORD PTR tv159[ebp], 0
$LN29@aircraft_f:
  001d8	68 b9 00 00 00	 push	 185			; 000000b9H
  001dd	8b 55 08	 mov	 edx, DWORD PTR _en$[ebp]
  001e0	52		 push	 edx
  001e1	69 45 9c 5c 04
	00 00		 imul	 eax, DWORD PTR tv152[ebp], 1116
  001e8	8b 4d 98	 mov	 ecx, DWORD PTR tv159[ebp]
  001eb	8b 94 88 00 00
	00 00		 mov	 edx, DWORD PTR ?fn_get_local_entity_int_value@@3PAY0BBH@P6GHPAUENTITY@@W4INT_TYPES@@@ZA[eax+ecx*4]
  001f2	ff d2		 call	 edx
  001f4	85 c0		 test	 eax, eax
  001f6	75 17		 jne	 SHORT $LN8@aircraft_f

; 215  : 		{
; 216  : 			debug_log ("AC_WPN: Fire Weapon Error - WEAPON SYSTEM NOT READY");

  001f8	68 00 00 00 00	 push	 OFFSET ??_C@_0DE@COOBMNOH@AC_WPN?3?5Fire?5Weapon?5Error?5?9?5WEA@
  001fd	e8 00 00 00 00	 call	 ?debug_log@@YAXPBDZZ	; debug_log
  00202	83 c4 04	 add	 esp, 4

; 217  : 
; 218  : 			return AIRCRAFT_FIRE_WEAPON_SYSTEM_NOT_READY;

  00205	b8 02 00 00 00	 mov	 eax, 2
  0020a	e9 a9 06 00 00	 jmp	 $LN1@aircraft_f
$LN8@aircraft_f:

; 219  : 		}
; 220  : 	}
; 221  : 
; 222  : //	debug_log("%s: %d", get_sub_type_name(en), get_local_entity_int_value (en, INT_TYPE_SELECTED_WEAPON));
; 223  : 
; 224  : 	//
; 225  : 	// find target
; 226  : 	//
; 227  : 
; 228  : 	if (check_flags & AIRCRAFT_FIRE_NO_TARGET)

  0020f	8b 45 0c	 mov	 eax, DWORD PTR _check_flags$[ebp]
  00212	83 e0 08	 and	 eax, 8
  00215	0f 84 9d 00 00
	00		 je	 $LN10@aircraft_f

; 229  : 	{
; 230  : 		target = get_local_entity_parent (en, LIST_TYPE_TARGET);

  0021b	83 7d 08 00	 cmp	 DWORD PTR _en$[ebp], 0
  0021f	74 0a		 je	 SHORT $LN30@aircraft_f
  00221	8b 45 08	 mov	 eax, DWORD PTR _en$[ebp]
  00224	8b 08		 mov	 ecx, DWORD PTR [eax]
  00226	89 4d 9c	 mov	 DWORD PTR tv175[ebp], ecx
  00229	eb 21		 jmp	 SHORT $LN31@aircraft_f
$LN30@aircraft_f:
  0022b	8b 15 00 00 00
	00		 mov	 edx, DWORD PTR ?__LINE__Var@?0??aircraft_fire_weapon@@YG?AW4AIRCRAFT_FIRE_RESULT@@PAUENTITY@@I@Z@4JA
  00231	83 c2 41	 add	 edx, 65			; 00000041H
  00234	52		 push	 edx
  00235	68 00 00 00 00	 push	 OFFSET ??_C@_0EM@OPNBEJPF@c?3?2users?2nhv90?2projects?2eech?2ap@
  0023a	a1 00 00 00 00	 mov	 eax, DWORD PTR ?null_entity_pointer_message@@3PBDB ; null_entity_pointer_message
  0023f	50		 push	 eax
  00240	e8 00 00 00 00	 call	 ?process_assert@@YGXPBD0H@Z ; process_assert
  00245	c7 45 9c 00 00
	00 00		 mov	 DWORD PTR tv175[ebp], 0
$LN31@aircraft_f:
  0024c	b9 01 00 00 00	 mov	 ecx, 1
  00251	85 c9		 test	 ecx, ecx
  00253	74 09		 je	 SHORT $LN32@aircraft_f
  00255	c7 45 98 26 00
	00 00		 mov	 DWORD PTR tv183[ebp], 38 ; 00000026H
  0025c	eb 21		 jmp	 SHORT $LN33@aircraft_f
$LN32@aircraft_f:
  0025e	8b 15 00 00 00
	00		 mov	 edx, DWORD PTR ?__LINE__Var@?0??aircraft_fire_weapon@@YG?AW4AIRCRAFT_FIRE_RESULT@@PAUENTITY@@I@Z@4JA
  00264	83 c2 41	 add	 edx, 65			; 00000041H
  00267	52		 push	 edx
  00268	68 00 00 00 00	 push	 OFFSET ??_C@_0EM@OPNBEJPF@c?3?2users?2nhv90?2projects?2eech?2ap@
  0026d	a1 00 00 00 00	 mov	 eax, DWORD PTR ?overload_invalid_list_type_message@@3PBDB ; overload_invalid_list_type_message
  00272	50		 push	 eax
  00273	e8 00 00 00 00	 call	 ?process_assert@@YGXPBD0H@Z ; process_assert
  00278	c7 45 98 00 00
	00 00		 mov	 DWORD PTR tv183[ebp], 0
$LN33@aircraft_f:
  0027f	6a 26		 push	 38			; 00000026H
  00281	8b 4d 08	 mov	 ecx, DWORD PTR _en$[ebp]
  00284	51		 push	 ecx
  00285	69 55 9c b4 00
	00 00		 imul	 edx, DWORD PTR tv175[ebp], 180
  0028c	8b 45 98	 mov	 eax, DWORD PTR tv183[ebp]
  0028f	8b 8c 82 00 00
	00 00		 mov	 ecx, DWORD PTR ?fn_get_local_entity_parent@@3PAY0CN@P6GPAUENTITY@@PAU1@W4LIST_TYPES@@@ZA[edx+eax*4]
  00296	ff d1		 call	 ecx
  00298	89 45 fc	 mov	 DWORD PTR _target$[ebp], eax

; 231  : 
; 232  : 		if (!target)

  0029b	83 7d fc 00	 cmp	 DWORD PTR _target$[ebp], 0
  0029f	75 17		 jne	 SHORT $LN10@aircraft_f

; 233  : 		{
; 234  : 			debug_log ("AC_WPN: Fire Weapon Error - NO TARGET");

  002a1	68 00 00 00 00	 push	 OFFSET ??_C@_0CG@KGHACHAP@AC_WPN?3?5Fire?5Weapon?5Error?5?9?5NO?5@
  002a6	e8 00 00 00 00	 call	 ?debug_log@@YAXPBDZZ	; debug_log
  002ab	83 c4 04	 add	 esp, 4

; 235  : 
; 236  : 			return AIRCRAFT_FIRE_NO_TARGET;

  002ae	b8 08 00 00 00	 mov	 eax, 8
  002b3	e9 00 06 00 00	 jmp	 $LN1@aircraft_f
$LN10@aircraft_f:

; 237  : 		}
; 238  : 	}
; 239  : 
; 240  : 	//
; 241  : 	// line of sight checks
; 242  : 	//
; 243  : 
; 244  : 	if (check_flags & AIRCRAFT_FIRE_NO_LOS)

  002b8	8b 45 0c	 mov	 eax, DWORD PTR _check_flags$[ebp]
  002bb	83 e0 10	 and	 eax, 16			; 00000010H
  002be	0f 84 42 05 00
	00		 je	 $LN16@aircraft_f

; 245  : 	{
; 246  : 		int
; 247  : 			criteria;
; 248  : 
; 249  : 		if (get_local_entity_int_value (target, INT_TYPE_PLAYER) != ENTITY_PLAYER_AI)

  002c4	83 7d fc 00	 cmp	 DWORD PTR _target$[ebp], 0
  002c8	74 0a		 je	 SHORT $LN34@aircraft_f
  002ca	8b 45 fc	 mov	 eax, DWORD PTR _target$[ebp]
  002cd	8b 08		 mov	 ecx, DWORD PTR [eax]
  002cf	89 4d 9c	 mov	 DWORD PTR tv198[ebp], ecx
  002d2	eb 1d		 jmp	 SHORT $LN35@aircraft_f
$LN34@aircraft_f:
  002d4	68 f9 00 00 00	 push	 249			; 000000f9H
  002d9	68 00 00 00 00	 push	 OFFSET ??_C@_0EM@OPNBEJPF@c?3?2users?2nhv90?2projects?2eech?2ap@
  002de	8b 15 00 00 00
	00		 mov	 edx, DWORD PTR ?null_entity_pointer_message@@3PBDB ; null_entity_pointer_message
  002e4	52		 push	 edx
  002e5	e8 00 00 00 00	 call	 ?process_assert@@YGXPBD0H@Z ; process_assert
  002ea	c7 45 9c 00 00
	00 00		 mov	 DWORD PTR tv198[ebp], 0
$LN35@aircraft_f:
  002f1	b8 01 00 00 00	 mov	 eax, 1
  002f6	85 c0		 test	 eax, eax
  002f8	74 09		 je	 SHORT $LN36@aircraft_f
  002fa	c7 45 98 9c 00
	00 00		 mov	 DWORD PTR tv205[ebp], 156 ; 0000009cH
  00301	eb 1d		 jmp	 SHORT $LN37@aircraft_f
$LN36@aircraft_f:
  00303	68 f9 00 00 00	 push	 249			; 000000f9H
  00308	68 00 00 00 00	 push	 OFFSET ??_C@_0EM@OPNBEJPF@c?3?2users?2nhv90?2projects?2eech?2ap@
  0030d	8b 0d 00 00 00
	00		 mov	 ecx, DWORD PTR ?overload_invalid_int_type_message@@3PBDB ; overload_invalid_int_type_message
  00313	51		 push	 ecx
  00314	e8 00 00 00 00	 call	 ?process_assert@@YGXPBD0H@Z ; process_assert
  00319	c7 45 98 00 00
	00 00		 mov	 DWORD PTR tv205[ebp], 0
$LN37@aircraft_f:
  00320	68 9c 00 00 00	 push	 156			; 0000009cH
  00325	8b 55 fc	 mov	 edx, DWORD PTR _target$[ebp]
  00328	52		 push	 edx
  00329	69 45 9c 5c 04
	00 00		 imul	 eax, DWORD PTR tv198[ebp], 1116
  00330	8b 4d 98	 mov	 ecx, DWORD PTR tv205[ebp]
  00333	8b 94 88 00 00
	00 00		 mov	 edx, DWORD PTR ?fn_get_local_entity_int_value@@3PAY0BBH@P6GHPAUENTITY@@W4INT_TYPES@@@ZA[eax+ecx*4]
  0033a	ff d2		 call	 edx
  0033c	85 c0		 test	 eax, eax
  0033e	74 09		 je	 SHORT $LN12@aircraft_f

; 250  : 		{
; 251  : 			criteria = MOBILE_LOS_CHECK_ALL;

  00340	c7 45 e0 1f 00
	00 00		 mov	 DWORD PTR _criteria$1[ebp], 31 ; 0000001fH

; 252  : 		}
; 253  : 		else

  00347	eb 07		 jmp	 SHORT $LN13@aircraft_f
$LN12@aircraft_f:

; 254  : 		{
; 255  : 			criteria = MOBILE_LOS_CHECK_COURSE_TERRAIN;

  00349	c7 45 e0 01 00
	00 00		 mov	 DWORD PTR _criteria$1[ebp], 1
$LN13@aircraft_f:

; 256  : 		}
; 257  : 
; 258  : 		get_local_entity_vec3d (en, VEC3D_TYPE_POSITION, &en_pos);

  00350	83 7d 08 00	 cmp	 DWORD PTR _en$[ebp], 0
  00354	74 0a		 je	 SHORT $LN38@aircraft_f
  00356	8b 45 08	 mov	 eax, DWORD PTR _en$[ebp]
  00359	8b 08		 mov	 ecx, DWORD PTR [eax]
  0035b	89 4d 9c	 mov	 DWORD PTR tv218[ebp], ecx
  0035e	eb 21		 jmp	 SHORT $LN39@aircraft_f
$LN38@aircraft_f:
  00360	8b 15 00 00 00
	00		 mov	 edx, DWORD PTR ?__LINE__Var@?0??aircraft_fire_weapon@@YG?AW4AIRCRAFT_FIRE_RESULT@@PAUENTITY@@I@Z@4JA
  00366	83 c2 5d	 add	 edx, 93			; 0000005dH
  00369	52		 push	 edx
  0036a	68 00 00 00 00	 push	 OFFSET ??_C@_0EM@OPNBEJPF@c?3?2users?2nhv90?2projects?2eech?2ap@
  0036f	a1 00 00 00 00	 mov	 eax, DWORD PTR ?null_entity_pointer_message@@3PBDB ; null_entity_pointer_message
  00374	50		 push	 eax
  00375	e8 00 00 00 00	 call	 ?process_assert@@YGXPBD0H@Z ; process_assert
  0037a	c7 45 9c 00 00
	00 00		 mov	 DWORD PTR tv218[ebp], 0
$LN39@aircraft_f:
  00381	b9 01 00 00 00	 mov	 ecx, 1
  00386	85 c9		 test	 ecx, ecx
  00388	74 09		 je	 SHORT $LN40@aircraft_f
  0038a	c7 45 98 08 00
	00 00		 mov	 DWORD PTR tv226[ebp], 8
  00391	eb 21		 jmp	 SHORT $LN41@aircraft_f
$LN40@aircraft_f:
  00393	8b 15 00 00 00
	00		 mov	 edx, DWORD PTR ?__LINE__Var@?0??aircraft_fire_weapon@@YG?AW4AIRCRAFT_FIRE_RESULT@@PAUENTITY@@I@Z@4JA
  00399	83 c2 5d	 add	 edx, 93			; 0000005dH
  0039c	52		 push	 edx
  0039d	68 00 00 00 00	 push	 OFFSET ??_C@_0EM@OPNBEJPF@c?3?2users?2nhv90?2projects?2eech?2ap@
  003a2	a1 00 00 00 00	 mov	 eax, DWORD PTR ?overload_invalid_vec3d_type_message@@3PBDB ; overload_invalid_vec3d_type_message
  003a7	50		 push	 eax
  003a8	e8 00 00 00 00	 call	 ?process_assert@@YGXPBD0H@Z ; process_assert
  003ad	c7 45 98 00 00
	00 00		 mov	 DWORD PTR tv226[ebp], 0
$LN41@aircraft_f:
  003b4	8d 4d e8	 lea	 ecx, DWORD PTR _en_pos$[ebp]
  003b7	51		 push	 ecx
  003b8	6a 08		 push	 8
  003ba	8b 55 08	 mov	 edx, DWORD PTR _en$[ebp]
  003bd	52		 push	 edx
  003be	6b 45 9c 60	 imul	 eax, DWORD PTR tv218[ebp], 96
  003c2	8b 4d 98	 mov	 ecx, DWORD PTR tv226[ebp]
  003c5	8b 94 88 00 00
	00 00		 mov	 edx, DWORD PTR ?fn_get_local_entity_vec3d@@3PAY0BI@P6GXPAUENTITY@@W4VEC3D_TYPES@@PAUVEC3D@@@ZA[eax+ecx*4]
  003cc	ff d2		 call	 edx

; 259  : 
; 260  : 		target_pos = get_local_entity_vec3d_ptr (target, VEC3D_TYPE_POSITION);

  003ce	83 7d fc 00	 cmp	 DWORD PTR _target$[ebp], 0
  003d2	74 0a		 je	 SHORT $LN42@aircraft_f
  003d4	8b 45 fc	 mov	 eax, DWORD PTR _target$[ebp]
  003d7	8b 08		 mov	 ecx, DWORD PTR [eax]
  003d9	89 4d 9c	 mov	 DWORD PTR tv238[ebp], ecx
  003dc	eb 21		 jmp	 SHORT $LN43@aircraft_f
$LN42@aircraft_f:
  003de	8b 15 00 00 00
	00		 mov	 edx, DWORD PTR ?__LINE__Var@?0??aircraft_fire_weapon@@YG?AW4AIRCRAFT_FIRE_RESULT@@PAUENTITY@@I@Z@4JA
  003e4	83 c2 5f	 add	 edx, 95			; 0000005fH
  003e7	52		 push	 edx
  003e8	68 00 00 00 00	 push	 OFFSET ??_C@_0EM@OPNBEJPF@c?3?2users?2nhv90?2projects?2eech?2ap@
  003ed	a1 00 00 00 00	 mov	 eax, DWORD PTR ?null_entity_pointer_message@@3PBDB ; null_entity_pointer_message
  003f2	50		 push	 eax
  003f3	e8 00 00 00 00	 call	 ?process_assert@@YGXPBD0H@Z ; process_assert
  003f8	c7 45 9c 00 00
	00 00		 mov	 DWORD PTR tv238[ebp], 0
$LN43@aircraft_f:
  003ff	b9 01 00 00 00	 mov	 ecx, 1
  00404	85 c9		 test	 ecx, ecx
  00406	74 09		 je	 SHORT $LN44@aircraft_f
  00408	c7 45 98 08 00
	00 00		 mov	 DWORD PTR tv246[ebp], 8
  0040f	eb 21		 jmp	 SHORT $LN45@aircraft_f
$LN44@aircraft_f:
  00411	8b 15 00 00 00
	00		 mov	 edx, DWORD PTR ?__LINE__Var@?0??aircraft_fire_weapon@@YG?AW4AIRCRAFT_FIRE_RESULT@@PAUENTITY@@I@Z@4JA
  00417	83 c2 5f	 add	 edx, 95			; 0000005fH
  0041a	52		 push	 edx
  0041b	68 00 00 00 00	 push	 OFFSET ??_C@_0EM@OPNBEJPF@c?3?2users?2nhv90?2projects?2eech?2ap@
  00420	a1 00 00 00 00	 mov	 eax, DWORD PTR ?overload_invalid_vec3d_type_message@@3PBDB ; overload_invalid_vec3d_type_message
  00425	50		 push	 eax
  00426	e8 00 00 00 00	 call	 ?process_assert@@YGXPBD0H@Z ; process_assert
  0042b	c7 45 98 00 00
	00 00		 mov	 DWORD PTR tv246[ebp], 0
$LN45@aircraft_f:
  00432	6a 08		 push	 8
  00434	8b 4d fc	 mov	 ecx, DWORD PTR _target$[ebp]
  00437	51		 push	 ecx
  00438	6b 55 9c 60	 imul	 edx, DWORD PTR tv238[ebp], 96
  0043c	8b 45 98	 mov	 eax, DWORD PTR tv246[ebp]
  0043f	8b 8c 82 00 00
	00 00		 mov	 ecx, DWORD PTR ?fn_get_local_entity_vec3d_ptr@@3PAY0BI@P6GPAUVEC3D@@PAUENTITY@@W4VEC3D_TYPES@@@ZA[edx+eax*4]
  00446	ff d1		 call	 ecx
  00448	89 45 f4	 mov	 DWORD PTR _target_pos$[ebp], eax

; 261  : 
; 262  : 		en_pos.y -= (get_local_entity_float_value (en, FLOAT_TYPE_CENTRE_OF_GRAVITY_TO_GROUND_DISTANCE) + 2.0);

  0044b	83 7d 08 00	 cmp	 DWORD PTR _en$[ebp], 0
  0044f	74 0a		 je	 SHORT $LN46@aircraft_f
  00451	8b 45 08	 mov	 eax, DWORD PTR _en$[ebp]
  00454	8b 08		 mov	 ecx, DWORD PTR [eax]
  00456	89 4d 9c	 mov	 DWORD PTR tv258[ebp], ecx
  00459	eb 21		 jmp	 SHORT $LN47@aircraft_f
$LN46@aircraft_f:
  0045b	8b 15 00 00 00
	00		 mov	 edx, DWORD PTR ?__LINE__Var@?0??aircraft_fire_weapon@@YG?AW4AIRCRAFT_FIRE_RESULT@@PAUENTITY@@I@Z@4JA
  00461	83 c2 61	 add	 edx, 97			; 00000061H
  00464	52		 push	 edx
  00465	68 00 00 00 00	 push	 OFFSET ??_C@_0EM@OPNBEJPF@c?3?2users?2nhv90?2projects?2eech?2ap@
  0046a	a1 00 00 00 00	 mov	 eax, DWORD PTR ?null_entity_pointer_message@@3PBDB ; null_entity_pointer_message
  0046f	50		 push	 eax
  00470	e8 00 00 00 00	 call	 ?process_assert@@YGXPBD0H@Z ; process_assert
  00475	c7 45 9c 00 00
	00 00		 mov	 DWORD PTR tv258[ebp], 0
$LN47@aircraft_f:
  0047c	b9 01 00 00 00	 mov	 ecx, 1
  00481	85 c9		 test	 ecx, ecx
  00483	74 09		 je	 SHORT $LN48@aircraft_f
  00485	c7 45 98 12 00
	00 00		 mov	 DWORD PTR tv266[ebp], 18 ; 00000012H
  0048c	eb 21		 jmp	 SHORT $LN49@aircraft_f
$LN48@aircraft_f:
  0048e	8b 15 00 00 00
	00		 mov	 edx, DWORD PTR ?__LINE__Var@?0??aircraft_fire_weapon@@YG?AW4AIRCRAFT_FIRE_RESULT@@PAUENTITY@@I@Z@4JA
  00494	83 c2 61	 add	 edx, 97			; 00000061H
  00497	52		 push	 edx
  00498	68 00 00 00 00	 push	 OFFSET ??_C@_0EM@OPNBEJPF@c?3?2users?2nhv90?2projects?2eech?2ap@
  0049d	a1 00 00 00 00	 mov	 eax, DWORD PTR ?overload_invalid_float_type_message@@3PBDB ; overload_invalid_float_type_message
  004a2	50		 push	 eax
  004a3	e8 00 00 00 00	 call	 ?process_assert@@YGXPBD0H@Z ; process_assert
  004a8	c7 45 98 00 00
	00 00		 mov	 DWORD PTR tv266[ebp], 0
$LN49@aircraft_f:
  004af	6a 12		 push	 18			; 00000012H
  004b1	8b 4d 08	 mov	 ecx, DWORD PTR _en$[ebp]
  004b4	51		 push	 ecx
  004b5	69 55 9c bc 02
	00 00		 imul	 edx, DWORD PTR tv258[ebp], 700
  004bc	8b 45 98	 mov	 eax, DWORD PTR tv266[ebp]
  004bf	8b 8c 82 00 00
	00 00		 mov	 ecx, DWORD PTR ?fn_get_local_entity_float_value@@3PAY0KP@P6GMPAUENTITY@@W4FLOAT_TYPES@@@ZA[edx+eax*4]
  004c6	ff d1		 call	 ecx
  004c8	dd 5d 90	 fstp	 QWORD PTR tv530[ebp]
  004cb	f2 0f 10 45 90	 movsd	 xmm0, QWORD PTR tv530[ebp]
  004d0	f2 0f 58 05 00
	00 00 00	 addsd	 xmm0, QWORD PTR __real@4000000000000000
  004d8	f3 0f 5a 4d ec	 cvtss2sd xmm1, DWORD PTR _en_pos$[ebp+4]
  004dd	f2 0f 5c c8	 subsd	 xmm1, xmm0
  004e1	f2 0f 5a c1	 cvtsd2ss xmm0, xmm1
  004e5	f3 0f 11 45 ec	 movss	 DWORD PTR _en_pos$[ebp+4], xmm0

; 263  : 
; 264  : 		if (!check_position_line_of_sight (en, target, &en_pos, target_pos, (mobile_los_check_criteria) criteria))

  004ea	8b 45 e0	 mov	 eax, DWORD PTR _criteria$1[ebp]
  004ed	50		 push	 eax
  004ee	8b 4d f4	 mov	 ecx, DWORD PTR _target_pos$[ebp]
  004f1	51		 push	 ecx
  004f2	8d 55 e8	 lea	 edx, DWORD PTR _en_pos$[ebp]
  004f5	52		 push	 edx
  004f6	8b 45 fc	 mov	 eax, DWORD PTR _target$[ebp]
  004f9	50		 push	 eax
  004fa	8b 4d 08	 mov	 ecx, DWORD PTR _en$[ebp]
  004fd	51		 push	 ecx
  004fe	e8 00 00 00 00	 call	 ?check_position_line_of_sight@@YGHPAUENTITY@@0PAUVEC3D@@1W4MOBILE_LOS_CHECK_CRITERIA@@@Z ; check_position_line_of_sight
  00503	85 c0		 test	 eax, eax
  00505	0f 85 fb 02 00
	00		 jne	 $LN16@aircraft_f

; 265  : 		{
; 266  : 			if (get_local_entity_int_value (en, INT_TYPE_SELECTED_WEAPON) == ENTITY_SUB_TYPE_WEAPON_AGM114L_LONGBOW_HELLFIRE
; 267  : 				&& get_2d_range(&en_pos, target_pos) > weapon_database[ENTITY_SUB_TYPE_WEAPON_AGM114L_LONGBOW_HELLFIRE].min_range_loal)

  0050b	83 7d 08 00	 cmp	 DWORD PTR _en$[ebp], 0
  0050f	74 0a		 je	 SHORT $LN50@aircraft_f
  00511	8b 45 08	 mov	 eax, DWORD PTR _en$[ebp]
  00514	8b 08		 mov	 ecx, DWORD PTR [eax]
  00516	89 4d 9c	 mov	 DWORD PTR tv289[ebp], ecx
  00519	eb 1d		 jmp	 SHORT $LN51@aircraft_f
$LN50@aircraft_f:
  0051b	68 0a 01 00 00	 push	 266			; 0000010aH
  00520	68 00 00 00 00	 push	 OFFSET ??_C@_0EM@OPNBEJPF@c?3?2users?2nhv90?2projects?2eech?2ap@
  00525	8b 15 00 00 00
	00		 mov	 edx, DWORD PTR ?null_entity_pointer_message@@3PBDB ; null_entity_pointer_message
  0052b	52		 push	 edx
  0052c	e8 00 00 00 00	 call	 ?process_assert@@YGXPBD0H@Z ; process_assert
  00531	c7 45 9c 00 00
	00 00		 mov	 DWORD PTR tv289[ebp], 0
$LN51@aircraft_f:
  00538	b8 01 00 00 00	 mov	 eax, 1
  0053d	85 c0		 test	 eax, eax
  0053f	74 09		 je	 SHORT $LN52@aircraft_f
  00541	c7 45 98 b8 00
	00 00		 mov	 DWORD PTR tv296[ebp], 184 ; 000000b8H
  00548	eb 1d		 jmp	 SHORT $LN53@aircraft_f
$LN52@aircraft_f:
  0054a	68 0a 01 00 00	 push	 266			; 0000010aH
  0054f	68 00 00 00 00	 push	 OFFSET ??_C@_0EM@OPNBEJPF@c?3?2users?2nhv90?2projects?2eech?2ap@
  00554	8b 0d 00 00 00
	00		 mov	 ecx, DWORD PTR ?overload_invalid_int_type_message@@3PBDB ; overload_invalid_int_type_message
  0055a	51		 push	 ecx
  0055b	e8 00 00 00 00	 call	 ?process_assert@@YGXPBD0H@Z ; process_assert
  00560	c7 45 98 00 00
	00 00		 mov	 DWORD PTR tv296[ebp], 0
$LN53@aircraft_f:
  00567	68 b8 00 00 00	 push	 184			; 000000b8H
  0056c	8b 55 08	 mov	 edx, DWORD PTR _en$[ebp]
  0056f	52		 push	 edx
  00570	69 45 9c 5c 04
	00 00		 imul	 eax, DWORD PTR tv289[ebp], 1116
  00577	8b 4d 98	 mov	 ecx, DWORD PTR tv296[ebp]
  0057a	8b 94 88 00 00
	00 00		 mov	 edx, DWORD PTR ?fn_get_local_entity_int_value@@3PAY0BBH@P6GHPAUENTITY@@W4INT_TYPES@@@ZA[eax+ecx*4]
  00581	ff d2		 call	 edx
  00583	83 f8 2d	 cmp	 eax, 45			; 0000002dH
  00586	0f 85 53 01 00
	00		 jne	 $LN15@aircraft_f
  0058c	8b 45 f4	 mov	 eax, DWORD PTR _target_pos$[ebp]
  0058f	50		 push	 eax
  00590	8d 4d e8	 lea	 ecx, DWORD PTR _en_pos$[ebp]
  00593	51		 push	 ecx
  00594	e8 00 00 00 00	 call	 ?get_2d_range@@YGMPBUVEC3D@@0@Z ; get_2d_range
  00599	d9 5d 9c	 fstp	 DWORD PTR tv551[ebp]
  0059c	f3 0f 10 45 9c	 movss	 xmm0, DWORD PTR tv551[ebp]
  005a1	ba e0 00 00 00	 mov	 edx, 224		; 000000e0H
  005a6	6b c2 2d	 imul	 eax, edx, 45
  005a9	0f 2f 80 98 00
	00 00		 comiss	 xmm0, DWORD PTR ?weapon_database@@3PAUWEAPON_DATA@@A[eax+152]
  005b0	0f 86 29 01 00
	00		 jbe	 $LN15@aircraft_f

; 268  : 			{
; 269  : 				debug_log("AC_WPN: Switching to LOAL mode to fire at target without LOS ((Aircraft %s (%d), Target %s (%d))",

  005b6	83 7d fc 00	 cmp	 DWORD PTR _target$[ebp], 0
  005ba	74 0a		 je	 SHORT $LN54@aircraft_f
  005bc	8b 45 fc	 mov	 eax, DWORD PTR _target$[ebp]
  005bf	8b 08		 mov	 ecx, DWORD PTR [eax]
  005c1	89 4d 9c	 mov	 DWORD PTR tv319[ebp], ecx
  005c4	eb 21		 jmp	 SHORT $LN55@aircraft_f
$LN54@aircraft_f:
  005c6	8b 15 00 00 00
	00		 mov	 edx, DWORD PTR ?__LINE__Var@?0??aircraft_fire_weapon@@YG?AW4AIRCRAFT_FIRE_RESULT@@PAUENTITY@@I@Z@4JA
  005cc	83 c2 6a	 add	 edx, 106		; 0000006aH
  005cf	52		 push	 edx
  005d0	68 00 00 00 00	 push	 OFFSET ??_C@_0EM@OPNBEJPF@c?3?2users?2nhv90?2projects?2eech?2ap@
  005d5	a1 00 00 00 00	 mov	 eax, DWORD PTR ?null_entity_pointer_message@@3PBDB ; null_entity_pointer_message
  005da	50		 push	 eax
  005db	e8 00 00 00 00	 call	 ?process_assert@@YGXPBD0H@Z ; process_assert
  005e0	c7 45 9c 00 00
	00 00		 mov	 DWORD PTR tv319[ebp], 0
$LN55@aircraft_f:
  005e7	b9 01 00 00 00	 mov	 ecx, 1
  005ec	85 c9		 test	 ecx, ecx
  005ee	74 09		 je	 SHORT $LN56@aircraft_f
  005f0	c7 45 98 03 00
	00 00		 mov	 DWORD PTR tv327[ebp], 3
  005f7	eb 21		 jmp	 SHORT $LN57@aircraft_f
$LN56@aircraft_f:
  005f9	8b 15 00 00 00
	00		 mov	 edx, DWORD PTR ?__LINE__Var@?0??aircraft_fire_weapon@@YG?AW4AIRCRAFT_FIRE_RESULT@@PAUENTITY@@I@Z@4JA
  005ff	83 c2 6a	 add	 edx, 106		; 0000006aH
  00602	52		 push	 edx
  00603	68 00 00 00 00	 push	 OFFSET ??_C@_0EM@OPNBEJPF@c?3?2users?2nhv90?2projects?2eech?2ap@
  00608	a1 00 00 00 00	 mov	 eax, DWORD PTR ?overload_invalid_string_type_message@@3PBDB ; overload_invalid_string_type_message
  0060d	50		 push	 eax
  0060e	e8 00 00 00 00	 call	 ?process_assert@@YGXPBD0H@Z ; process_assert
  00613	c7 45 98 00 00
	00 00		 mov	 DWORD PTR tv327[ebp], 0
$LN57@aircraft_f:
  0061a	83 7d 08 00	 cmp	 DWORD PTR _en$[ebp], 0
  0061e	74 0a		 je	 SHORT $LN58@aircraft_f
  00620	8b 4d 08	 mov	 ecx, DWORD PTR _en$[ebp]
  00623	8b 11		 mov	 edx, DWORD PTR [ecx]
  00625	89 55 94	 mov	 DWORD PTR tv343[ebp], edx
  00628	eb 21		 jmp	 SHORT $LN59@aircraft_f
$LN58@aircraft_f:
  0062a	a1 00 00 00 00	 mov	 eax, DWORD PTR ?__LINE__Var@?0??aircraft_fire_weapon@@YG?AW4AIRCRAFT_FIRE_RESULT@@PAUENTITY@@I@Z@4JA
  0062f	83 c0 69	 add	 eax, 105		; 00000069H
  00632	50		 push	 eax
  00633	68 00 00 00 00	 push	 OFFSET ??_C@_0EM@OPNBEJPF@c?3?2users?2nhv90?2projects?2eech?2ap@
  00638	8b 0d 00 00 00
	00		 mov	 ecx, DWORD PTR ?null_entity_pointer_message@@3PBDB ; null_entity_pointer_message
  0063e	51		 push	 ecx
  0063f	e8 00 00 00 00	 call	 ?process_assert@@YGXPBD0H@Z ; process_assert
  00644	c7 45 94 00 00
	00 00		 mov	 DWORD PTR tv343[ebp], 0
$LN59@aircraft_f:
  0064b	ba 01 00 00 00	 mov	 edx, 1
  00650	85 d2		 test	 edx, edx
  00652	74 09		 je	 SHORT $LN60@aircraft_f
  00654	c7 45 90 03 00
	00 00		 mov	 DWORD PTR tv351[ebp], 3
  0065b	eb 21		 jmp	 SHORT $LN61@aircraft_f
$LN60@aircraft_f:
  0065d	a1 00 00 00 00	 mov	 eax, DWORD PTR ?__LINE__Var@?0??aircraft_fire_weapon@@YG?AW4AIRCRAFT_FIRE_RESULT@@PAUENTITY@@I@Z@4JA
  00662	83 c0 69	 add	 eax, 105		; 00000069H
  00665	50		 push	 eax
  00666	68 00 00 00 00	 push	 OFFSET ??_C@_0EM@OPNBEJPF@c?3?2users?2nhv90?2projects?2eech?2ap@
  0066b	8b 0d 00 00 00
	00		 mov	 ecx, DWORD PTR ?overload_invalid_string_type_message@@3PBDB ; overload_invalid_string_type_message
  00671	51		 push	 ecx
  00672	e8 00 00 00 00	 call	 ?process_assert@@YGXPBD0H@Z ; process_assert
  00677	c7 45 90 00 00
	00 00		 mov	 DWORD PTR tv351[ebp], 0
$LN61@aircraft_f:
  0067e	8b 55 fc	 mov	 edx, DWORD PTR _target$[ebp]
  00681	2b 15 00 00 00
	00		 sub	 edx, DWORD PTR ?entities@@3PAUENTITY@@A ; entities
  00687	c1 fa 04	 sar	 edx, 4
  0068a	52		 push	 edx
  0068b	6a 03		 push	 3
  0068d	8b 45 fc	 mov	 eax, DWORD PTR _target$[ebp]
  00690	50		 push	 eax
  00691	6b 4d 9c 34	 imul	 ecx, DWORD PTR tv319[ebp], 52
  00695	8b 55 98	 mov	 edx, DWORD PTR tv327[ebp]
  00698	8b 84 91 00 00
	00 00		 mov	 eax, DWORD PTR ?fn_get_local_entity_string@@3PAY0N@P6GPBDPAUENTITY@@W4STRING_TYPES@@@ZA[ecx+edx*4]
  0069f	ff d0		 call	 eax
  006a1	50		 push	 eax
  006a2	8b 4d 08	 mov	 ecx, DWORD PTR _en$[ebp]
  006a5	2b 0d 00 00 00
	00		 sub	 ecx, DWORD PTR ?entities@@3PAUENTITY@@A ; entities
  006ab	c1 f9 04	 sar	 ecx, 4
  006ae	51		 push	 ecx
  006af	6a 03		 push	 3
  006b1	8b 55 08	 mov	 edx, DWORD PTR _en$[ebp]
  006b4	52		 push	 edx
  006b5	6b 45 94 34	 imul	 eax, DWORD PTR tv343[ebp], 52
  006b9	8b 4d 90	 mov	 ecx, DWORD PTR tv351[ebp]
  006bc	8b 94 88 00 00
	00 00		 mov	 edx, DWORD PTR ?fn_get_local_entity_string@@3PAY0N@P6GPBDPAUENTITY@@W4STRING_TYPES@@@ZA[eax+ecx*4]
  006c3	ff d2		 call	 edx
  006c5	50		 push	 eax
  006c6	68 00 00 00 00	 push	 OFFSET ??_C@_0GB@GBCCNPEO@AC_WPN?3?5Switching?5to?5LOAL?5mode?5@
  006cb	e8 00 00 00 00	 call	 ?debug_log@@YAXPBDZZ	; debug_log
  006d0	83 c4 14	 add	 esp, 20			; 00000014H

; 270  : 									get_local_entity_string (en, STRING_TYPE_FULL_NAME), get_local_entity_index (en),
; 271  : 									get_local_entity_string (target, STRING_TYPE_FULL_NAME), get_local_entity_index (target));
; 272  : 
; 273  : 				loal_mode = TRUE;

  006d3	c7 45 e4 01 00
	00 00		 mov	 DWORD PTR _loal_mode$[ebp], 1

; 274  : 			}
; 275  : 			else

  006da	e9 27 01 00 00	 jmp	 $LN16@aircraft_f
$LN15@aircraft_f:

; 276  : 			{
; 277  : 				debug_log ("AC_WPN: Fire Weapon Error - NO LOS (Aircraft %s (%d), Target %s (%d))",

  006df	83 7d fc 00	 cmp	 DWORD PTR _target$[ebp], 0
  006e3	74 0a		 je	 SHORT $LN62@aircraft_f
  006e5	8b 45 fc	 mov	 eax, DWORD PTR _target$[ebp]
  006e8	8b 08		 mov	 ecx, DWORD PTR [eax]
  006ea	89 4d 9c	 mov	 DWORD PTR tv368[ebp], ecx
  006ed	eb 21		 jmp	 SHORT $LN63@aircraft_f
$LN62@aircraft_f:
  006ef	8b 15 00 00 00
	00		 mov	 edx, DWORD PTR ?__LINE__Var@?0??aircraft_fire_weapon@@YG?AW4AIRCRAFT_FIRE_RESULT@@PAUENTITY@@I@Z@4JA
  006f5	83 c2 72	 add	 edx, 114		; 00000072H
  006f8	52		 push	 edx
  006f9	68 00 00 00 00	 push	 OFFSET ??_C@_0EM@OPNBEJPF@c?3?2users?2nhv90?2projects?2eech?2ap@
  006fe	a1 00 00 00 00	 mov	 eax, DWORD PTR ?null_entity_pointer_message@@3PBDB ; null_entity_pointer_message
  00703	50		 push	 eax
  00704	e8 00 00 00 00	 call	 ?process_assert@@YGXPBD0H@Z ; process_assert
  00709	c7 45 9c 00 00
	00 00		 mov	 DWORD PTR tv368[ebp], 0
$LN63@aircraft_f:
  00710	b9 01 00 00 00	 mov	 ecx, 1
  00715	85 c9		 test	 ecx, ecx
  00717	74 09		 je	 SHORT $LN64@aircraft_f
  00719	c7 45 98 03 00
	00 00		 mov	 DWORD PTR tv376[ebp], 3
  00720	eb 21		 jmp	 SHORT $LN65@aircraft_f
$LN64@aircraft_f:
  00722	8b 15 00 00 00
	00		 mov	 edx, DWORD PTR ?__LINE__Var@?0??aircraft_fire_weapon@@YG?AW4AIRCRAFT_FIRE_RESULT@@PAUENTITY@@I@Z@4JA
  00728	83 c2 72	 add	 edx, 114		; 00000072H
  0072b	52		 push	 edx
  0072c	68 00 00 00 00	 push	 OFFSET ??_C@_0EM@OPNBEJPF@c?3?2users?2nhv90?2projects?2eech?2ap@
  00731	a1 00 00 00 00	 mov	 eax, DWORD PTR ?overload_invalid_string_type_message@@3PBDB ; overload_invalid_string_type_message
  00736	50		 push	 eax
  00737	e8 00 00 00 00	 call	 ?process_assert@@YGXPBD0H@Z ; process_assert
  0073c	c7 45 98 00 00
	00 00		 mov	 DWORD PTR tv376[ebp], 0
$LN65@aircraft_f:
  00743	83 7d 08 00	 cmp	 DWORD PTR _en$[ebp], 0
  00747	74 0a		 je	 SHORT $LN66@aircraft_f
  00749	8b 4d 08	 mov	 ecx, DWORD PTR _en$[ebp]
  0074c	8b 11		 mov	 edx, DWORD PTR [ecx]
  0074e	89 55 94	 mov	 DWORD PTR tv392[ebp], edx
  00751	eb 21		 jmp	 SHORT $LN67@aircraft_f
$LN66@aircraft_f:
  00753	a1 00 00 00 00	 mov	 eax, DWORD PTR ?__LINE__Var@?0??aircraft_fire_weapon@@YG?AW4AIRCRAFT_FIRE_RESULT@@PAUENTITY@@I@Z@4JA
  00758	83 c0 71	 add	 eax, 113		; 00000071H
  0075b	50		 push	 eax
  0075c	68 00 00 00 00	 push	 OFFSET ??_C@_0EM@OPNBEJPF@c?3?2users?2nhv90?2projects?2eech?2ap@
  00761	8b 0d 00 00 00
	00		 mov	 ecx, DWORD PTR ?null_entity_pointer_message@@3PBDB ; null_entity_pointer_message
  00767	51		 push	 ecx
  00768	e8 00 00 00 00	 call	 ?process_assert@@YGXPBD0H@Z ; process_assert
  0076d	c7 45 94 00 00
	00 00		 mov	 DWORD PTR tv392[ebp], 0
$LN67@aircraft_f:
  00774	ba 01 00 00 00	 mov	 edx, 1
  00779	85 d2		 test	 edx, edx
  0077b	74 09		 je	 SHORT $LN68@aircraft_f
  0077d	c7 45 90 03 00
	00 00		 mov	 DWORD PTR tv400[ebp], 3
  00784	eb 21		 jmp	 SHORT $LN69@aircraft_f
$LN68@aircraft_f:
  00786	a1 00 00 00 00	 mov	 eax, DWORD PTR ?__LINE__Var@?0??aircraft_fire_weapon@@YG?AW4AIRCRAFT_FIRE_RESULT@@PAUENTITY@@I@Z@4JA
  0078b	83 c0 71	 add	 eax, 113		; 00000071H
  0078e	50		 push	 eax
  0078f	68 00 00 00 00	 push	 OFFSET ??_C@_0EM@OPNBEJPF@c?3?2users?2nhv90?2projects?2eech?2ap@
  00794	8b 0d 00 00 00
	00		 mov	 ecx, DWORD PTR ?overload_invalid_string_type_message@@3PBDB ; overload_invalid_string_type_message
  0079a	51		 push	 ecx
  0079b	e8 00 00 00 00	 call	 ?process_assert@@YGXPBD0H@Z ; process_assert
  007a0	c7 45 90 00 00
	00 00		 mov	 DWORD PTR tv400[ebp], 0
$LN69@aircraft_f:
  007a7	8b 55 fc	 mov	 edx, DWORD PTR _target$[ebp]
  007aa	2b 15 00 00 00
	00		 sub	 edx, DWORD PTR ?entities@@3PAUENTITY@@A ; entities
  007b0	c1 fa 04	 sar	 edx, 4
  007b3	52		 push	 edx
  007b4	6a 03		 push	 3
  007b6	8b 45 fc	 mov	 eax, DWORD PTR _target$[ebp]
  007b9	50		 push	 eax
  007ba	6b 4d 9c 34	 imul	 ecx, DWORD PTR tv368[ebp], 52
  007be	8b 55 98	 mov	 edx, DWORD PTR tv376[ebp]
  007c1	8b 84 91 00 00
	00 00		 mov	 eax, DWORD PTR ?fn_get_local_entity_string@@3PAY0N@P6GPBDPAUENTITY@@W4STRING_TYPES@@@ZA[ecx+edx*4]
  007c8	ff d0		 call	 eax
  007ca	50		 push	 eax
  007cb	8b 4d 08	 mov	 ecx, DWORD PTR _en$[ebp]
  007ce	2b 0d 00 00 00
	00		 sub	 ecx, DWORD PTR ?entities@@3PAUENTITY@@A ; entities
  007d4	c1 f9 04	 sar	 ecx, 4
  007d7	51		 push	 ecx
  007d8	6a 03		 push	 3
  007da	8b 55 08	 mov	 edx, DWORD PTR _en$[ebp]
  007dd	52		 push	 edx
  007de	6b 45 94 34	 imul	 eax, DWORD PTR tv392[ebp], 52
  007e2	8b 4d 90	 mov	 ecx, DWORD PTR tv400[ebp]
  007e5	8b 94 88 00 00
	00 00		 mov	 edx, DWORD PTR ?fn_get_local_entity_string@@3PAY0N@P6GPBDPAUENTITY@@W4STRING_TYPES@@@ZA[eax+ecx*4]
  007ec	ff d2		 call	 edx
  007ee	50		 push	 eax
  007ef	68 00 00 00 00	 push	 OFFSET ??_C@_0EG@HCPBFMNG@AC_WPN?3?5Fire?5Weapon?5Error?5?9?5NO?5@
  007f4	e8 00 00 00 00	 call	 ?debug_log@@YAXPBDZZ	; debug_log
  007f9	83 c4 14	 add	 esp, 20			; 00000014H

; 278  : 									get_local_entity_string (en, STRING_TYPE_FULL_NAME), get_local_entity_index (en),
; 279  : 									get_local_entity_string (target, STRING_TYPE_FULL_NAME), get_local_entity_index (target));
; 280  : 
; 281  : 				return AIRCRAFT_FIRE_NO_LOS;

  007fc	b8 10 00 00 00	 mov	 eax, 16			; 00000010H
  00801	e9 b2 00 00 00	 jmp	 $LN1@aircraft_f
$LN16@aircraft_f:

; 282  : 			}
; 283  : 		}
; 284  : 	}
; 285  : 
; 286  : 	//
; 287  : 	// Play Speech
; 288  : 	//
; 289  : 
; 290  : 	play_aircraft_weapon_launched_speech (en, raw->selected_weapon);

  00806	8b 45 f8	 mov	 eax, DWORD PTR _raw$[ebp]
  00809	8b 88 24 01 00
	00		 mov	 ecx, DWORD PTR [eax+292]
  0080f	51		 push	 ecx
  00810	8b 55 08	 mov	 edx, DWORD PTR _en$[ebp]
  00813	52		 push	 edx
  00814	e8 00 00 00 00	 call	 ?play_aircraft_weapon_launched_speech@@YGXPAUENTITY@@H@Z ; play_aircraft_weapon_launched_speech

; 291  : 
; 292  : 	//
; 293  : 	// Fire weapon
; 294  : 	//
; 295  : 
; 296  : 	set_local_entity_int_value(en, INT_TYPE_LOCK_ON_AFTER_LAUNCH, loal_mode);

  00819	83 7d 08 00	 cmp	 DWORD PTR _en$[ebp], 0
  0081d	74 0a		 je	 SHORT $LN70@aircraft_f
  0081f	8b 45 08	 mov	 eax, DWORD PTR _en$[ebp]
  00822	8b 08		 mov	 ecx, DWORD PTR [eax]
  00824	89 4d 9c	 mov	 DWORD PTR tv417[ebp], ecx
  00827	eb 24		 jmp	 SHORT $LN71@aircraft_f
$LN70@aircraft_f:
  00829	8b 15 00 00 00
	00		 mov	 edx, DWORD PTR ?__LINE__Var@?0??aircraft_fire_weapon@@YG?AW4AIRCRAFT_FIRE_RESULT@@PAUENTITY@@I@Z@4JA
  0082f	81 c2 83 00 00
	00		 add	 edx, 131		; 00000083H
  00835	52		 push	 edx
  00836	68 00 00 00 00	 push	 OFFSET ??_C@_0EM@OPNBEJPF@c?3?2users?2nhv90?2projects?2eech?2ap@
  0083b	a1 00 00 00 00	 mov	 eax, DWORD PTR ?null_entity_pointer_message@@3PBDB ; null_entity_pointer_message
  00840	50		 push	 eax
  00841	e8 00 00 00 00	 call	 ?process_assert@@YGXPBD0H@Z ; process_assert
  00846	c7 45 9c 00 00
	00 00		 mov	 DWORD PTR tv417[ebp], 0
$LN71@aircraft_f:
  0084d	b9 01 00 00 00	 mov	 ecx, 1
  00852	85 c9		 test	 ecx, ecx
  00854	74 09		 je	 SHORT $LN72@aircraft_f
  00856	c7 45 98 7e 00
	00 00		 mov	 DWORD PTR tv425[ebp], 126 ; 0000007eH
  0085d	eb 24		 jmp	 SHORT $LN73@aircraft_f
$LN72@aircraft_f:
  0085f	8b 15 00 00 00
	00		 mov	 edx, DWORD PTR ?__LINE__Var@?0??aircraft_fire_weapon@@YG?AW4AIRCRAFT_FIRE_RESULT@@PAUENTITY@@I@Z@4JA
  00865	81 c2 83 00 00
	00		 add	 edx, 131		; 00000083H
  0086b	52		 push	 edx
  0086c	68 00 00 00 00	 push	 OFFSET ??_C@_0EM@OPNBEJPF@c?3?2users?2nhv90?2projects?2eech?2ap@
  00871	a1 00 00 00 00	 mov	 eax, DWORD PTR ?overload_invalid_int_type_message@@3PBDB ; overload_invalid_int_type_message
  00876	50		 push	 eax
  00877	e8 00 00 00 00	 call	 ?process_assert@@YGXPBD0H@Z ; process_assert
  0087c	c7 45 98 00 00
	00 00		 mov	 DWORD PTR tv425[ebp], 0
$LN73@aircraft_f:
  00883	8b 4d e4	 mov	 ecx, DWORD PTR _loal_mode$[ebp]
  00886	51		 push	 ecx
  00887	6a 7e		 push	 126			; 0000007eH
  00889	8b 55 08	 mov	 edx, DWORD PTR _en$[ebp]
  0088c	52		 push	 edx
  0088d	69 45 9c 5c 04
	00 00		 imul	 eax, DWORD PTR tv417[ebp], 1116
  00894	8b 4d 98	 mov	 ecx, DWORD PTR tv425[ebp]
  00897	8b 94 88 00 00
	00 00		 mov	 edx, DWORD PTR ?fn_set_local_entity_int_value@@3PAY0BBH@P6GXPAUENTITY@@W4INT_TYPES@@H@ZA[eax+ecx*4]
  0089e	ff d2		 call	 edx

; 297  : 
; 298  : 	launch_client_server_weapon (en, raw->selected_weapon);

  008a0	8b 45 f8	 mov	 eax, DWORD PTR _raw$[ebp]
  008a3	8b 88 24 01 00
	00		 mov	 ecx, DWORD PTR [eax+292]
  008a9	51		 push	 ecx
  008aa	8b 55 08	 mov	 edx, DWORD PTR _en$[ebp]
  008ad	52		 push	 edx
  008ae	e8 00 00 00 00	 call	 ?launch_client_server_weapon@@YGXPAUENTITY@@H@Z ; launch_client_server_weapon

; 299  : 
; 300  : 	return AIRCRAFT_FIRE_OK;

  008b3	b8 01 00 00 00	 mov	 eax, 1
$LN1@aircraft_f:

; 301  : }

  008b8	5f		 pop	 edi
  008b9	5e		 pop	 esi
  008ba	5b		 pop	 ebx
  008bb	8b e5		 mov	 esp, ebp
  008bd	5d		 pop	 ebp
  008be	c2 08 00	 ret	 8
?aircraft_fire_weapon@@YG?AW4AIRCRAFT_FIRE_RESULT@@PAUENTITY@@I@Z ENDP ; aircraft_fire_weapon
_TEXT	ENDS
END
