; Listing generated by Microsoft (R) Optimizing Compiler Version 19.16.27045.0 

	TITLE	C:\Users\nhv90\Projects\eech\aphavoc\source\gunships\cockpits\ah64a\ah_ckpt.c
	.686P
	.XMM
	include listing.inc
	.model	flat

INCLUDELIB MSVCRTD
INCLUDELIB OLDNAMES

PUBLIC	?initialise_ah64a_cockpits@@YGXXZ		; initialise_ah64a_cockpits
PUBLIC	?deinitialise_ah64a_cockpits@@YGXXZ		; deinitialise_ah64a_cockpits
PUBLIC	?update_ah64a_cockpits@@YGXXZ			; update_ah64a_cockpits
PUBLIC	?draw_ah64a_cockpit@@YGXW4COCKPIT_PANELS@@@Z	; draw_ah64a_cockpit
PUBLIC	??_C@_0EO@MJIONDDK@c?3?2users?2nhv90?2projects?2eech?2ap@ ; `string'
PUBLIC	??_C@_0BL@LGMPIFCI@Invalid?5cockpit?5panel?5?$DN?5?$CFd@ ; `string'
PUBLIC	__real@406c400000000000
PUBLIC	__real@406d600000000000
PUBLIC	__real@4074000000000000
PUBLIC	__real@4074e00000000000
PUBLIC	__real@4075200000000000
PUBLIC	__real@4076f00000000000
PUBLIC	__real@4079e00000000000
PUBLIC	__real@407ac00000000000
PUBLIC	__real@42880000
PUBLIC	__real@43000000
PUBLIC	__real@43ce0000
PUBLIC	__real@440f0000
EXTRN	?process_assert@@YGXPBD0H@Z:PROC		; process_assert
EXTRN	?debug_fatal@@YAXPBDZZ:PROC			; debug_fatal
EXTRN	?lock_screen@@YGHPAUSCREEN@@@Z:PROC		; lock_screen
EXTRN	?unlock_screen@@YGHPAUSCREEN@@@Z:PROC		; unlock_screen
EXTRN	?blit_rle_graphic@@YGXPBEHH@Z:PROC		; blit_rle_graphic
EXTRN	?blit_rgb_graphic@@YGXPBEHH@Z:PROC		; blit_rgb_graphic
EXTRN	?draw_ah64a_upfront_display_on_cockpit@@YGXMM@Z:PROC ; draw_ah64a_upfront_display_on_cockpit
EXTRN	?draw_ah64a_hud@@YGXXZ:PROC			; draw_ah64a_hud
EXTRN	?draw_ah64a_mfd_on_cockpit@@YGXMMHHW4MFD_LOCATIONS@@@Z:PROC ; draw_ah64a_mfd_on_cockpit
EXTRN	?draw_overlaid_ah64a_mfd@@YGXMMMW4MFD_LOCATIONS@@@Z:PROC ; draw_overlaid_ah64a_mfd
EXTRN	?initialise_ah64a_instrument_colours@@YGXXZ:PROC ; initialise_ah64a_instrument_colours
EXTRN	?set_ah64a_instrument_colours@@YGXXZ:PROC	; set_ah64a_instrument_colours
EXTRN	?draw_ah64a_fixed_cockpit_airspeed_indicator_needle@@YGXW4COCKPIT_PANELS@@@Z:PROC ; draw_ah64a_fixed_cockpit_airspeed_indicator_needle
EXTRN	?draw_ah64a_fixed_cockpit_barometric_altimeter_needle@@YGXW4COCKPIT_PANELS@@@Z:PROC ; draw_ah64a_fixed_cockpit_barometric_altimeter_needle
EXTRN	?draw_ah64a_fixed_cockpit_barometric_altimeter_digits@@YGXW4COCKPIT_PANELS@@@Z:PROC ; draw_ah64a_fixed_cockpit_barometric_altimeter_digits
EXTRN	?draw_ah64a_fixed_cockpit_clock_hands@@YGXW4COCKPIT_PANELS@@@Z:PROC ; draw_ah64a_fixed_cockpit_clock_hands
EXTRN	?initialise_ah64a_lamps@@YGXXZ:PROC		; initialise_ah64a_lamps
EXTRN	?draw_ah64a_indicator_lamps@@YGXW4COCKPIT_PANELS@@@Z:PROC ; draw_ah64a_indicator_lamps
EXTRN	?draw_ah64a_fire_detector_lamps@@YGXW4COCKPIT_PANELS@@@Z:PROC ; draw_ah64a_fire_detector_lamps
EXTRN	?draw_ah64a_armament_lamps@@YGXW4COCKPIT_PANELS@@@Z:PROC ; draw_ah64a_armament_lamps
EXTRN	?draw_ah64a_mfd_lamps@@YGXW4COCKPIT_PANELS@@@Z:PROC ; draw_ah64a_mfd_lamps
EXTRN	?draw_ah64a_internal_virtual_cockpit@@YGXI@Z:PROC ; draw_ah64a_internal_virtual_cockpit
EXTRN	?draw_ah64a_external_virtual_cockpit@@YGXIPAE@Z:PROC ; draw_ah64a_external_virtual_cockpit
EXTRN	?active_screen@@3PAUSCREEN@@A:DWORD		; active_screen
EXTRN	?graphics_files@@3PAUFILE_DATA@@A:BYTE		; graphics_files
EXTRN	?null_entity_pointer_message@@3PBDB:DWORD	; null_entity_pointer_message
EXTRN	?global_options@@3UGLOBAL_OPTIONS_DATA@@A:BYTE	; global_options
EXTRN	?overload_invalid_int_type_message@@3PBDB:DWORD	; overload_invalid_int_type_message
EXTRN	?fn_get_local_entity_int_value@@3PAY0BBH@P6GHPAUENTITY@@W4INT_TYPES@@@ZA:BYTE ; fn_get_local_entity_int_value
EXTRN	?session_entity@@3PAUENTITY@@A:DWORD		; session_entity
EXTRN	?ix_640_480@@3HA:DWORD				; ix_640_480
EXTRN	?iy_640_480@@3HA:DWORD				; iy_640_480
EXTRN	?fx_640_480@@3MA:DWORD				; fx_640_480
EXTRN	?fy_640_480@@3MA:DWORD				; fy_640_480
EXTRN	?base_cockpit_graphics_file@@3W4GRAPHICS_FILE_SPECIFIERS@@A:DWORD ; base_cockpit_graphics_file
EXTRN	__fltused:DWORD
;	COMDAT __real@440f0000
CONST	SEGMENT
__real@440f0000 DD 0440f0000r			; 572
CONST	ENDS
;	COMDAT __real@43ce0000
CONST	SEGMENT
__real@43ce0000 DD 043ce0000r			; 412
CONST	ENDS
;	COMDAT __real@43000000
CONST	SEGMENT
__real@43000000 DD 043000000r			; 128
CONST	ENDS
;	COMDAT __real@42880000
CONST	SEGMENT
__real@42880000 DD 042880000r			; 68
CONST	ENDS
;	COMDAT __real@407ac00000000000
CONST	SEGMENT
__real@407ac00000000000 DQ 0407ac00000000000r	; 428
CONST	ENDS
;	COMDAT __real@4079e00000000000
CONST	SEGMENT
__real@4079e00000000000 DQ 04079e00000000000r	; 414
CONST	ENDS
;	COMDAT __real@4076f00000000000
CONST	SEGMENT
__real@4076f00000000000 DQ 04076f00000000000r	; 367
CONST	ENDS
;	COMDAT __real@4075200000000000
CONST	SEGMENT
__real@4075200000000000 DQ 04075200000000000r	; 338
CONST	ENDS
;	COMDAT __real@4074e00000000000
CONST	SEGMENT
__real@4074e00000000000 DQ 04074e00000000000r	; 334
CONST	ENDS
;	COMDAT __real@4074000000000000
CONST	SEGMENT
__real@4074000000000000 DQ 04074000000000000r	; 320
CONST	ENDS
;	COMDAT __real@406d600000000000
CONST	SEGMENT
__real@406d600000000000 DQ 0406d600000000000r	; 235
CONST	ENDS
;	COMDAT __real@406c400000000000
CONST	SEGMENT
__real@406c400000000000 DQ 0406c400000000000r	; 226
CONST	ENDS
;	COMDAT ??_C@_0BL@LGMPIFCI@Invalid?5cockpit?5panel?5?$DN?5?$CFd@
CONST	SEGMENT
??_C@_0BL@LGMPIFCI@Invalid?5cockpit?5panel?5?$DN?5?$CFd@ DB 'Invalid cock'
	DB	'pit panel = %d', 00H			; `string'
CONST	ENDS
;	COMDAT ??_C@_0EO@MJIONDDK@c?3?2users?2nhv90?2projects?2eech?2ap@
CONST	SEGMENT
??_C@_0EO@MJIONDDK@c?3?2users?2nhv90?2projects?2eech?2ap@ DB 'c:\users\nh'
	DB	'v90\projects\eech\aphavoc\source\gunships\cockpits\ah64a\ah_c'
	DB	'kpt.c', 00H					; `string'
CONST	ENDS
; Function compile flags: /Odtp /ZI
; File c:\users\nhv90\projects\eech\aphavoc\source\gunships\cockpits\ah64a\ah_ckpt.c
;	COMDAT ?draw_ah64a_cockpit@@YGXW4COCKPIT_PANELS@@@Z
_TEXT	SEGMENT
tv82 = -76						; size = 4
tv76 = -72						; size = 4
tv128 = -68						; size = 4
tv69 = -68						; size = 4
_panel$ = 8						; size = 4
?draw_ah64a_cockpit@@YGXW4COCKPIT_PANELS@@@Z PROC	; draw_ah64a_cockpit, COMDAT

; 107  : {

  00000	55		 push	 ebp
  00001	8b ec		 mov	 ebp, esp
  00003	83 ec 4c	 sub	 esp, 76			; 0000004cH
  00006	53		 push	 ebx
  00007	56		 push	 esi
  00008	57		 push	 edi

; 108  : 	////////////////////////////////////////
; 109  : 	//
; 110  : 	// select cockpit graphics wrt time of day
; 111  : 	//
; 112  : 	////////////////////////////////////////
; 113  : 
; 114  : 	switch (get_local_entity_int_value (get_session_entity (), INT_TYPE_DAY_SEGMENT_TYPE))

  00009	83 3d 00 00 00
	00 00		 cmp	 DWORD PTR ?session_entity@@3PAUENTITY@@A, 0 ; session_entity
  00010	74 0c		 je	 SHORT $LN108@draw_ah64a
  00012	a1 00 00 00 00	 mov	 eax, DWORD PTR ?session_entity@@3PAUENTITY@@A ; session_entity
  00017	8b 08		 mov	 ecx, DWORD PTR [eax]
  00019	89 4d bc	 mov	 DWORD PTR tv69[ebp], ecx
  0001c	eb 1a		 jmp	 SHORT $LN109@draw_ah64a
$LN108@draw_ah64a:
  0001e	6a 72		 push	 114			; 00000072H
  00020	68 00 00 00 00	 push	 OFFSET ??_C@_0EO@MJIONDDK@c?3?2users?2nhv90?2projects?2eech?2ap@
  00025	8b 15 00 00 00
	00		 mov	 edx, DWORD PTR ?null_entity_pointer_message@@3PBDB ; null_entity_pointer_message
  0002b	52		 push	 edx
  0002c	e8 00 00 00 00	 call	 ?process_assert@@YGXPBD0H@Z ; process_assert
  00031	c7 45 bc 00 00
	00 00		 mov	 DWORD PTR tv69[ebp], 0
$LN109@draw_ah64a:
  00038	b8 01 00 00 00	 mov	 eax, 1
  0003d	85 c0		 test	 eax, eax
  0003f	74 09		 je	 SHORT $LN110@draw_ah64a
  00041	c7 45 b8 27 00
	00 00		 mov	 DWORD PTR tv76[ebp], 39	; 00000027H
  00048	eb 1a		 jmp	 SHORT $LN111@draw_ah64a
$LN110@draw_ah64a:
  0004a	6a 72		 push	 114			; 00000072H
  0004c	68 00 00 00 00	 push	 OFFSET ??_C@_0EO@MJIONDDK@c?3?2users?2nhv90?2projects?2eech?2ap@
  00051	8b 0d 00 00 00
	00		 mov	 ecx, DWORD PTR ?overload_invalid_int_type_message@@3PBDB ; overload_invalid_int_type_message
  00057	51		 push	 ecx
  00058	e8 00 00 00 00	 call	 ?process_assert@@YGXPBD0H@Z ; process_assert
  0005d	c7 45 b8 00 00
	00 00		 mov	 DWORD PTR tv76[ebp], 0
$LN111@draw_ah64a:
  00064	6a 27		 push	 39			; 00000027H
  00066	8b 15 00 00 00
	00		 mov	 edx, DWORD PTR ?session_entity@@3PAUENTITY@@A ; session_entity
  0006c	52		 push	 edx
  0006d	69 45 bc 5c 04
	00 00		 imul	 eax, DWORD PTR tv69[ebp], 1116
  00074	8b 4d b8	 mov	 ecx, DWORD PTR tv76[ebp]
  00077	8b 94 88 00 00
	00 00		 mov	 edx, DWORD PTR ?fn_get_local_entity_int_value@@3PAY0BBH@P6GHPAUENTITY@@W4INT_TYPES@@@ZA[eax+ecx*4]
  0007e	ff d2		 call	 edx
  00080	89 45 b4	 mov	 DWORD PTR tv82[ebp], eax
  00083	83 7d b4 03	 cmp	 DWORD PTR tv82[ebp], 3
  00087	77 38		 ja	 SHORT $LN2@draw_ah64a
  00089	8b 45 b4	 mov	 eax, DWORD PTR tv82[ebp]
  0008c	ff 24 85 00 00
	00 00		 jmp	 DWORD PTR $LN112@draw_ah64a[eax*4]
$LN6@draw_ah64a:

; 115  : 	{
; 116  : 		case DAY_SEGMENT_TYPE_DAWN:
; 117  : 		{
; 118  : 			base_cockpit_graphics_file = GRAPHICS_COCKPITS_APACHE_LEVEL2_BASE;

  00093	c7 05 00 00 00
	00 5c 00 00 00	 mov	 DWORD PTR ?base_cockpit_graphics_file@@3W4GRAPHICS_FILE_SPECIFIERS@@A, 92 ; base_cockpit_graphics_file, 0000005cH

; 119  : 
; 120  : 			break;

  0009d	eb 22		 jmp	 SHORT $LN2@draw_ah64a
$LN7@draw_ah64a:

; 121  : 		}
; 122  : 		case DAY_SEGMENT_TYPE_DAY:
; 123  : 		{
; 124  : 			base_cockpit_graphics_file = GRAPHICS_COCKPITS_APACHE_LEVEL1_BASE;

  0009f	c7 05 00 00 00
	00 2d 00 00 00	 mov	 DWORD PTR ?base_cockpit_graphics_file@@3W4GRAPHICS_FILE_SPECIFIERS@@A, 45 ; base_cockpit_graphics_file, 0000002dH

; 125  : 
; 126  : 			break;

  000a9	eb 16		 jmp	 SHORT $LN2@draw_ah64a
$LN8@draw_ah64a:

; 127  : 		}
; 128  : 		case DAY_SEGMENT_TYPE_DUSK:
; 129  : 		{
; 130  : 			base_cockpit_graphics_file = GRAPHICS_COCKPITS_APACHE_LEVEL2_BASE;

  000ab	c7 05 00 00 00
	00 5c 00 00 00	 mov	 DWORD PTR ?base_cockpit_graphics_file@@3W4GRAPHICS_FILE_SPECIFIERS@@A, 92 ; base_cockpit_graphics_file, 0000005cH

; 131  : 
; 132  : 			break;

  000b5	eb 0a		 jmp	 SHORT $LN2@draw_ah64a
$LN9@draw_ah64a:

; 133  : 		}
; 134  : 		case DAY_SEGMENT_TYPE_NIGHT:
; 135  : 		{
; 136  : 			base_cockpit_graphics_file = GRAPHICS_COCKPITS_APACHE_LEVEL3_BASE;

  000b7	c7 05 00 00 00
	00 8b 00 00 00	 mov	 DWORD PTR ?base_cockpit_graphics_file@@3W4GRAPHICS_FILE_SPECIFIERS@@A, 139 ; base_cockpit_graphics_file, 0000008bH
$LN2@draw_ah64a:

; 137  : 
; 138  : 			break;
; 139  : 		}
; 140  : 	}
; 141  : 
; 142  : 	#if DEMO_VERSION
; 143  : 
; 144  : 	base_cockpit_graphics_file = GRAPHICS_COCKPITS_APACHE_LEVEL1_BASE;
; 145  : 
; 146  : 	#endif
; 147  : 
; 148  : 	set_ah64a_instrument_colours ();

  000c1	e8 00 00 00 00	 call	 ?set_ah64a_instrument_colours@@YGXXZ ; set_ah64a_instrument_colours

; 149  : 
; 150  : 	////////////////////////////////////////
; 151  : 	//
; 152  : 	// draw overlaid instruments
; 153  : 	//
; 154  : 	////////////////////////////////////////
; 155  : 
; 156  : 	if (!get_global_draw_cockpit_graphics ())

  000c6	83 3d b8 01 00
	00 00		 cmp	 DWORD PTR ?global_options@@3UGLOBAL_OPTIONS_DATA@@A+440, 0
  000cd	75 77		 jne	 SHORT $LN12@draw_ah64a

; 157  : 	{
; 158  : 		if (get_global_draw_overlaid_instruments ())

  000cf	83 3d bc 01 00
	00 00		 cmp	 DWORD PTR ?global_options@@3UGLOBAL_OPTIONS_DATA@@A+444, 0
  000d6	74 6e		 je	 SHORT $LN12@draw_ah64a

; 159  : 		{
; 160  : 			if ((panel != COCKPIT_PANEL_SPECIAL_APACHE_LHS_MFD) && (panel != COCKPIT_PANEL_SPECIAL_APACHE_RHS_MFD))

  000d8	83 7d 08 1c	 cmp	 DWORD PTR _panel$[ebp], 28 ; 0000001cH
  000dc	74 68		 je	 SHORT $LN12@draw_ah64a
  000de	83 7d 08 1d	 cmp	 DWORD PTR _panel$[ebp], 29 ; 0000001dH
  000e2	74 62		 je	 SHORT $LN12@draw_ah64a

; 161  : 			{
; 162  : 				draw_overlaid_ah64a_mfd (68.0, 412.0, 128.0, MFD_LOCATION_LHS);

  000e4	6a 00		 push	 0
  000e6	51		 push	 ecx
  000e7	f3 0f 10 05 00
	00 00 00	 movss	 xmm0, DWORD PTR __real@43000000
  000ef	f3 0f 11 04 24	 movss	 DWORD PTR [esp], xmm0
  000f4	51		 push	 ecx
  000f5	f3 0f 10 05 00
	00 00 00	 movss	 xmm0, DWORD PTR __real@43ce0000
  000fd	f3 0f 11 04 24	 movss	 DWORD PTR [esp], xmm0
  00102	51		 push	 ecx
  00103	f3 0f 10 05 00
	00 00 00	 movss	 xmm0, DWORD PTR __real@42880000
  0010b	f3 0f 11 04 24	 movss	 DWORD PTR [esp], xmm0
  00110	e8 00 00 00 00	 call	 ?draw_overlaid_ah64a_mfd@@YGXMMMW4MFD_LOCATIONS@@@Z ; draw_overlaid_ah64a_mfd

; 163  : 
; 164  : 				draw_overlaid_ah64a_mfd (572.0, 412.0, 128.0, MFD_LOCATION_RHS);

  00115	6a 01		 push	 1
  00117	51		 push	 ecx
  00118	f3 0f 10 05 00
	00 00 00	 movss	 xmm0, DWORD PTR __real@43000000
  00120	f3 0f 11 04 24	 movss	 DWORD PTR [esp], xmm0
  00125	51		 push	 ecx
  00126	f3 0f 10 05 00
	00 00 00	 movss	 xmm0, DWORD PTR __real@43ce0000
  0012e	f3 0f 11 04 24	 movss	 DWORD PTR [esp], xmm0
  00133	51		 push	 ecx
  00134	f3 0f 10 05 00
	00 00 00	 movss	 xmm0, DWORD PTR __real@440f0000
  0013c	f3 0f 11 04 24	 movss	 DWORD PTR [esp], xmm0
  00141	e8 00 00 00 00	 call	 ?draw_overlaid_ah64a_mfd@@YGXMMMW4MFD_LOCATIONS@@@Z ; draw_overlaid_ah64a_mfd
$LN12@draw_ah64a:

; 165  : 			}
; 166  : 		}
; 167  : 	}
; 168  : 
; 169  : 	////////////////////////////////////////
; 170  : 	//
; 171  : 	// draw cockpits
; 172  : 	//
; 173  : 	////////////////////////////////////////
; 174  : 
; 175  : 	switch (panel)

  00146	8b 45 08	 mov	 eax, DWORD PTR _panel$[ebp]
  00149	89 45 bc	 mov	 DWORD PTR tv128[ebp], eax
  0014c	83 7d bc 1d	 cmp	 DWORD PTR tv128[ebp], 29 ; 0000001dH
  00150	0f 87 62 0f 00
	00		 ja	 $LN106@draw_ah64a
  00156	8b 4d bc	 mov	 ecx, DWORD PTR tv128[ebp]
  00159	ff 24 8d 00 00
	00 00		 jmp	 DWORD PTR $LN113@draw_ah64a[ecx*4]
$LN13@draw_ah64a:

; 176  : 	{
; 177  : 		////////////////////////////////////////
; 178  : 		case COCKPIT_PANEL_UP40_LEFT90:
; 179  : 		////////////////////////////////////////
; 180  : 		{
; 181  : 			if (get_global_draw_cockpit_graphics ())

  00160	83 3d b8 01 00
	00 00		 cmp	 DWORD PTR ?global_options@@3UGLOBAL_OPTIONS_DATA@@A+440, 0
  00167	74 46		 je	 SHORT $LN15@draw_ah64a

; 182  : 			{
; 183  : 				draw_ah64a_external_virtual_cockpit

  00169	6a 00		 push	 0
  0016b	68 00 10 01 00	 push	 69632			; 00011000H
  00170	e8 00 00 00 00	 call	 ?draw_ah64a_external_virtual_cockpit@@YGXIPAE@Z ; draw_ah64a_external_virtual_cockpit

; 184  : 				(
; 185  : 					VIRTUAL_COCKPIT_RAIN_EFFECT |
; 186  : 					VIRTUAL_COCKPIT_MAIN_ROTOR,
; 187  : 					NULL
; 188  : 				);
; 189  : 
; 190  : 				if (lock_screen (active_screen))

  00175	a1 00 00 00 00	 mov	 eax, DWORD PTR ?active_screen@@3PAUSCREEN@@A ; active_screen
  0017a	50		 push	 eax
  0017b	e8 00 00 00 00	 call	 ?lock_screen@@YGHPAUSCREEN@@@Z ; lock_screen
  00180	85 c0		 test	 eax, eax
  00182	74 2b		 je	 SHORT $LN15@draw_ah64a

; 191  : 				{
; 192  : 					blit_rle_graphic (get_graphics_file_data (base_cockpit_graphics_file + GRAPHICS_COCKPITS_APACHE_U40_L90_RLE), ix_640_480, iy_640_480);

  00184	a1 00 00 00 00	 mov	 eax, DWORD PTR ?iy_640_480@@3HA ; iy_640_480
  00189	50		 push	 eax
  0018a	8b 0d 00 00 00
	00		 mov	 ecx, DWORD PTR ?ix_640_480@@3HA ; ix_640_480
  00190	51		 push	 ecx
  00191	6b 15 00 00 00
	00 28		 imul	 edx, DWORD PTR ?base_cockpit_graphics_file@@3W4GRAPHICS_FILE_SPECIFIERS@@A, 40 ; base_cockpit_graphics_file
  00198	8b 82 1c 00 00
	00		 mov	 eax, DWORD PTR ?graphics_files@@3PAUFILE_DATA@@A[edx+28]
  0019e	50		 push	 eax
  0019f	e8 00 00 00 00	 call	 ?blit_rle_graphic@@YGXPBEHH@Z ; blit_rle_graphic

; 193  : 
; 194  : 					unlock_screen (active_screen);

  001a4	a1 00 00 00 00	 mov	 eax, DWORD PTR ?active_screen@@3PAUSCREEN@@A ; active_screen
  001a9	50		 push	 eax
  001aa	e8 00 00 00 00	 call	 ?unlock_screen@@YGHPAUSCREEN@@@Z ; unlock_screen
$LN15@draw_ah64a:

; 195  : 				}
; 196  : 			}
; 197  : 
; 198  : 			draw_ah64a_hud ();

  001af	e8 00 00 00 00	 call	 ?draw_ah64a_hud@@YGXXZ	; draw_ah64a_hud

; 199  : 
; 200  : 			break;

  001b4	e9 10 0f 00 00	 jmp	 $LN4@draw_ah64a
$LN16@draw_ah64a:

; 201  : 		}
; 202  : 		////////////////////////////////////////
; 203  : 		case COCKPIT_PANEL_UP40_LEFT60:
; 204  : 		////////////////////////////////////////
; 205  : 		{
; 206  : 			if (get_global_draw_cockpit_graphics ())

  001b9	83 3d b8 01 00
	00 00		 cmp	 DWORD PTR ?global_options@@3UGLOBAL_OPTIONS_DATA@@A+440, 0
  001c0	74 4b		 je	 SHORT $LN18@draw_ah64a

; 207  : 			{
; 208  : 				draw_ah64a_external_virtual_cockpit

  001c2	6a 00		 push	 0
  001c4	68 00 10 01 00	 push	 69632			; 00011000H
  001c9	e8 00 00 00 00	 call	 ?draw_ah64a_external_virtual_cockpit@@YGXIPAE@Z ; draw_ah64a_external_virtual_cockpit

; 209  : 				(
; 210  : 					VIRTUAL_COCKPIT_RAIN_EFFECT |
; 211  : 					VIRTUAL_COCKPIT_MAIN_ROTOR,
; 212  : 					NULL
; 213  : 				);
; 214  : 
; 215  : 				if (lock_screen (active_screen))

  001ce	a1 00 00 00 00	 mov	 eax, DWORD PTR ?active_screen@@3PAUSCREEN@@A ; active_screen
  001d3	50		 push	 eax
  001d4	e8 00 00 00 00	 call	 ?lock_screen@@YGHPAUSCREEN@@@Z ; lock_screen
  001d9	85 c0		 test	 eax, eax
  001db	74 30		 je	 SHORT $LN18@draw_ah64a

; 216  : 				{
; 217  : 					blit_rle_graphic (get_graphics_file_data (base_cockpit_graphics_file + GRAPHICS_COCKPITS_APACHE_U40_L60_RLE), ix_640_480, iy_640_480);

  001dd	a1 00 00 00 00	 mov	 eax, DWORD PTR ?iy_640_480@@3HA ; iy_640_480
  001e2	50		 push	 eax
  001e3	8b 0d 00 00 00
	00		 mov	 ecx, DWORD PTR ?ix_640_480@@3HA ; ix_640_480
  001e9	51		 push	 ecx
  001ea	8b 15 00 00 00
	00		 mov	 edx, DWORD PTR ?base_cockpit_graphics_file@@3W4GRAPHICS_FILE_SPECIFIERS@@A ; base_cockpit_graphics_file
  001f0	83 c2 01	 add	 edx, 1
  001f3	6b c2 28	 imul	 eax, edx, 40
  001f6	8b 88 1c 00 00
	00		 mov	 ecx, DWORD PTR ?graphics_files@@3PAUFILE_DATA@@A[eax+28]
  001fc	51		 push	 ecx
  001fd	e8 00 00 00 00	 call	 ?blit_rle_graphic@@YGXPBEHH@Z ; blit_rle_graphic

; 218  : 
; 219  : 					unlock_screen (active_screen);

  00202	a1 00 00 00 00	 mov	 eax, DWORD PTR ?active_screen@@3PAUSCREEN@@A ; active_screen
  00207	50		 push	 eax
  00208	e8 00 00 00 00	 call	 ?unlock_screen@@YGHPAUSCREEN@@@Z ; unlock_screen
$LN18@draw_ah64a:

; 220  : 				}
; 221  : 			}
; 222  : 
; 223  : 			draw_ah64a_hud ();

  0020d	e8 00 00 00 00	 call	 ?draw_ah64a_hud@@YGXXZ	; draw_ah64a_hud

; 224  : 
; 225  : 			break;

  00212	e9 b2 0e 00 00	 jmp	 $LN4@draw_ah64a
$LN19@draw_ah64a:

; 226  : 		}
; 227  : 		////////////////////////////////////////
; 228  : 		case COCKPIT_PANEL_UP40_LEFT30:
; 229  : 		////////////////////////////////////////
; 230  : 		{
; 231  : 			if (get_global_draw_cockpit_graphics ())

  00217	83 3d b8 01 00
	00 00		 cmp	 DWORD PTR ?global_options@@3UGLOBAL_OPTIONS_DATA@@A+440, 0
  0021e	74 4b		 je	 SHORT $LN21@draw_ah64a

; 232  : 			{
; 233  : 				draw_ah64a_external_virtual_cockpit

  00220	6a 00		 push	 0
  00222	68 00 10 01 00	 push	 69632			; 00011000H
  00227	e8 00 00 00 00	 call	 ?draw_ah64a_external_virtual_cockpit@@YGXIPAE@Z ; draw_ah64a_external_virtual_cockpit

; 234  : 				(
; 235  : 					VIRTUAL_COCKPIT_RAIN_EFFECT |
; 236  : 					VIRTUAL_COCKPIT_MAIN_ROTOR,
; 237  : 					NULL
; 238  : 				);
; 239  : 
; 240  : 				if (lock_screen (active_screen))

  0022c	a1 00 00 00 00	 mov	 eax, DWORD PTR ?active_screen@@3PAUSCREEN@@A ; active_screen
  00231	50		 push	 eax
  00232	e8 00 00 00 00	 call	 ?lock_screen@@YGHPAUSCREEN@@@Z ; lock_screen
  00237	85 c0		 test	 eax, eax
  00239	74 30		 je	 SHORT $LN21@draw_ah64a

; 241  : 				{
; 242  : 					blit_rle_graphic (get_graphics_file_data (base_cockpit_graphics_file + GRAPHICS_COCKPITS_APACHE_U40_L30_RLE), ix_640_480, iy_640_480);

  0023b	a1 00 00 00 00	 mov	 eax, DWORD PTR ?iy_640_480@@3HA ; iy_640_480
  00240	50		 push	 eax
  00241	8b 0d 00 00 00
	00		 mov	 ecx, DWORD PTR ?ix_640_480@@3HA ; ix_640_480
  00247	51		 push	 ecx
  00248	8b 15 00 00 00
	00		 mov	 edx, DWORD PTR ?base_cockpit_graphics_file@@3W4GRAPHICS_FILE_SPECIFIERS@@A ; base_cockpit_graphics_file
  0024e	83 c2 02	 add	 edx, 2
  00251	6b c2 28	 imul	 eax, edx, 40
  00254	8b 88 1c 00 00
	00		 mov	 ecx, DWORD PTR ?graphics_files@@3PAUFILE_DATA@@A[eax+28]
  0025a	51		 push	 ecx
  0025b	e8 00 00 00 00	 call	 ?blit_rle_graphic@@YGXPBEHH@Z ; blit_rle_graphic

; 243  : 
; 244  : 					unlock_screen (active_screen);

  00260	a1 00 00 00 00	 mov	 eax, DWORD PTR ?active_screen@@3PAUSCREEN@@A ; active_screen
  00265	50		 push	 eax
  00266	e8 00 00 00 00	 call	 ?unlock_screen@@YGHPAUSCREEN@@@Z ; unlock_screen
$LN21@draw_ah64a:

; 245  : 				}
; 246  : 			}
; 247  : 
; 248  : 			draw_ah64a_hud ();

  0026b	e8 00 00 00 00	 call	 ?draw_ah64a_hud@@YGXXZ	; draw_ah64a_hud

; 249  : 
; 250  : 			break;

  00270	e9 54 0e 00 00	 jmp	 $LN4@draw_ah64a
$LN22@draw_ah64a:

; 251  : 		}
; 252  : 		////////////////////////////////////////
; 253  : 		case COCKPIT_PANEL_UP40_AHEAD:
; 254  : 		////////////////////////////////////////
; 255  : 		{
; 256  : 			if (get_global_draw_cockpit_graphics ())

  00275	83 3d b8 01 00
	00 00		 cmp	 DWORD PTR ?global_options@@3UGLOBAL_OPTIONS_DATA@@A+440, 0
  0027c	74 4b		 je	 SHORT $LN24@draw_ah64a

; 257  : 			{
; 258  : 				draw_ah64a_external_virtual_cockpit

  0027e	6a 00		 push	 0
  00280	68 00 10 01 00	 push	 69632			; 00011000H
  00285	e8 00 00 00 00	 call	 ?draw_ah64a_external_virtual_cockpit@@YGXIPAE@Z ; draw_ah64a_external_virtual_cockpit

; 259  : 				(
; 260  : 					VIRTUAL_COCKPIT_RAIN_EFFECT |
; 261  : 					VIRTUAL_COCKPIT_MAIN_ROTOR,
; 262  : 					NULL
; 263  : 				);
; 264  : 
; 265  : 				if (lock_screen (active_screen))

  0028a	a1 00 00 00 00	 mov	 eax, DWORD PTR ?active_screen@@3PAUSCREEN@@A ; active_screen
  0028f	50		 push	 eax
  00290	e8 00 00 00 00	 call	 ?lock_screen@@YGHPAUSCREEN@@@Z ; lock_screen
  00295	85 c0		 test	 eax, eax
  00297	74 30		 je	 SHORT $LN24@draw_ah64a

; 266  : 				{
; 267  : 					blit_rle_graphic (get_graphics_file_data (base_cockpit_graphics_file + GRAPHICS_COCKPITS_APACHE_U40_AHD_RLE), ix_640_480, iy_640_480);

  00299	a1 00 00 00 00	 mov	 eax, DWORD PTR ?iy_640_480@@3HA ; iy_640_480
  0029e	50		 push	 eax
  0029f	8b 0d 00 00 00
	00		 mov	 ecx, DWORD PTR ?ix_640_480@@3HA ; ix_640_480
  002a5	51		 push	 ecx
  002a6	8b 15 00 00 00
	00		 mov	 edx, DWORD PTR ?base_cockpit_graphics_file@@3W4GRAPHICS_FILE_SPECIFIERS@@A ; base_cockpit_graphics_file
  002ac	83 c2 03	 add	 edx, 3
  002af	6b c2 28	 imul	 eax, edx, 40
  002b2	8b 88 1c 00 00
	00		 mov	 ecx, DWORD PTR ?graphics_files@@3PAUFILE_DATA@@A[eax+28]
  002b8	51		 push	 ecx
  002b9	e8 00 00 00 00	 call	 ?blit_rle_graphic@@YGXPBEHH@Z ; blit_rle_graphic

; 268  : 
; 269  : 					unlock_screen (active_screen);

  002be	a1 00 00 00 00	 mov	 eax, DWORD PTR ?active_screen@@3PAUSCREEN@@A ; active_screen
  002c3	50		 push	 eax
  002c4	e8 00 00 00 00	 call	 ?unlock_screen@@YGHPAUSCREEN@@@Z ; unlock_screen
$LN24@draw_ah64a:

; 270  : 				}
; 271  : 			}
; 272  : 
; 273  : 			draw_ah64a_hud ();

  002c9	e8 00 00 00 00	 call	 ?draw_ah64a_hud@@YGXXZ	; draw_ah64a_hud

; 274  : 
; 275  : 			break;

  002ce	e9 f6 0d 00 00	 jmp	 $LN4@draw_ah64a
$LN25@draw_ah64a:

; 276  : 		}
; 277  : 		////////////////////////////////////////
; 278  : 		case COCKPIT_PANEL_UP40_RIGHT30:
; 279  : 		////////////////////////////////////////
; 280  : 		{
; 281  : 			if (get_global_draw_cockpit_graphics ())

  002d3	83 3d b8 01 00
	00 00		 cmp	 DWORD PTR ?global_options@@3UGLOBAL_OPTIONS_DATA@@A+440, 0
  002da	74 4b		 je	 SHORT $LN27@draw_ah64a

; 282  : 			{
; 283  : 				draw_ah64a_external_virtual_cockpit

  002dc	6a 00		 push	 0
  002de	68 00 10 01 00	 push	 69632			; 00011000H
  002e3	e8 00 00 00 00	 call	 ?draw_ah64a_external_virtual_cockpit@@YGXIPAE@Z ; draw_ah64a_external_virtual_cockpit

; 284  : 				(
; 285  : 					VIRTUAL_COCKPIT_RAIN_EFFECT |
; 286  : 					VIRTUAL_COCKPIT_MAIN_ROTOR,
; 287  : 					NULL
; 288  : 				);
; 289  : 
; 290  : 				if (lock_screen (active_screen))

  002e8	a1 00 00 00 00	 mov	 eax, DWORD PTR ?active_screen@@3PAUSCREEN@@A ; active_screen
  002ed	50		 push	 eax
  002ee	e8 00 00 00 00	 call	 ?lock_screen@@YGHPAUSCREEN@@@Z ; lock_screen
  002f3	85 c0		 test	 eax, eax
  002f5	74 30		 je	 SHORT $LN27@draw_ah64a

; 291  : 				{
; 292  : 					blit_rle_graphic (get_graphics_file_data (base_cockpit_graphics_file + GRAPHICS_COCKPITS_APACHE_U40_R30_RLE), ix_640_480, iy_640_480);

  002f7	a1 00 00 00 00	 mov	 eax, DWORD PTR ?iy_640_480@@3HA ; iy_640_480
  002fc	50		 push	 eax
  002fd	8b 0d 00 00 00
	00		 mov	 ecx, DWORD PTR ?ix_640_480@@3HA ; ix_640_480
  00303	51		 push	 ecx
  00304	8b 15 00 00 00
	00		 mov	 edx, DWORD PTR ?base_cockpit_graphics_file@@3W4GRAPHICS_FILE_SPECIFIERS@@A ; base_cockpit_graphics_file
  0030a	83 c2 04	 add	 edx, 4
  0030d	6b c2 28	 imul	 eax, edx, 40
  00310	8b 88 1c 00 00
	00		 mov	 ecx, DWORD PTR ?graphics_files@@3PAUFILE_DATA@@A[eax+28]
  00316	51		 push	 ecx
  00317	e8 00 00 00 00	 call	 ?blit_rle_graphic@@YGXPBEHH@Z ; blit_rle_graphic

; 293  : 
; 294  : 					unlock_screen (active_screen);

  0031c	a1 00 00 00 00	 mov	 eax, DWORD PTR ?active_screen@@3PAUSCREEN@@A ; active_screen
  00321	50		 push	 eax
  00322	e8 00 00 00 00	 call	 ?unlock_screen@@YGHPAUSCREEN@@@Z ; unlock_screen
$LN27@draw_ah64a:

; 295  : 				}
; 296  : 			}
; 297  : 
; 298  : 			draw_ah64a_hud ();

  00327	e8 00 00 00 00	 call	 ?draw_ah64a_hud@@YGXXZ	; draw_ah64a_hud

; 299  : 
; 300  : 			break;

  0032c	e9 98 0d 00 00	 jmp	 $LN4@draw_ah64a
$LN28@draw_ah64a:

; 301  : 		}
; 302  : 		////////////////////////////////////////
; 303  : 		case COCKPIT_PANEL_UP40_RIGHT60:
; 304  : 		////////////////////////////////////////
; 305  : 		{
; 306  : 			if (get_global_draw_cockpit_graphics ())

  00331	83 3d b8 01 00
	00 00		 cmp	 DWORD PTR ?global_options@@3UGLOBAL_OPTIONS_DATA@@A+440, 0
  00338	74 4b		 je	 SHORT $LN30@draw_ah64a

; 307  : 			{
; 308  : 				draw_ah64a_external_virtual_cockpit

  0033a	6a 00		 push	 0
  0033c	68 00 10 01 00	 push	 69632			; 00011000H
  00341	e8 00 00 00 00	 call	 ?draw_ah64a_external_virtual_cockpit@@YGXIPAE@Z ; draw_ah64a_external_virtual_cockpit

; 309  : 				(
; 310  : 					VIRTUAL_COCKPIT_RAIN_EFFECT |
; 311  : 					VIRTUAL_COCKPIT_MAIN_ROTOR,
; 312  : 					NULL
; 313  : 				);
; 314  : 
; 315  : 				if (lock_screen (active_screen))

  00346	a1 00 00 00 00	 mov	 eax, DWORD PTR ?active_screen@@3PAUSCREEN@@A ; active_screen
  0034b	50		 push	 eax
  0034c	e8 00 00 00 00	 call	 ?lock_screen@@YGHPAUSCREEN@@@Z ; lock_screen
  00351	85 c0		 test	 eax, eax
  00353	74 30		 je	 SHORT $LN30@draw_ah64a

; 316  : 				{
; 317  : 					blit_rle_graphic (get_graphics_file_data (base_cockpit_graphics_file + GRAPHICS_COCKPITS_APACHE_U40_R60_RLE), ix_640_480, iy_640_480);

  00355	a1 00 00 00 00	 mov	 eax, DWORD PTR ?iy_640_480@@3HA ; iy_640_480
  0035a	50		 push	 eax
  0035b	8b 0d 00 00 00
	00		 mov	 ecx, DWORD PTR ?ix_640_480@@3HA ; ix_640_480
  00361	51		 push	 ecx
  00362	8b 15 00 00 00
	00		 mov	 edx, DWORD PTR ?base_cockpit_graphics_file@@3W4GRAPHICS_FILE_SPECIFIERS@@A ; base_cockpit_graphics_file
  00368	83 c2 05	 add	 edx, 5
  0036b	6b c2 28	 imul	 eax, edx, 40
  0036e	8b 88 1c 00 00
	00		 mov	 ecx, DWORD PTR ?graphics_files@@3PAUFILE_DATA@@A[eax+28]
  00374	51		 push	 ecx
  00375	e8 00 00 00 00	 call	 ?blit_rle_graphic@@YGXPBEHH@Z ; blit_rle_graphic

; 318  : 
; 319  : 					unlock_screen (active_screen);

  0037a	a1 00 00 00 00	 mov	 eax, DWORD PTR ?active_screen@@3PAUSCREEN@@A ; active_screen
  0037f	50		 push	 eax
  00380	e8 00 00 00 00	 call	 ?unlock_screen@@YGHPAUSCREEN@@@Z ; unlock_screen
$LN30@draw_ah64a:

; 320  : 				}
; 321  : 			}
; 322  : 
; 323  : 			draw_ah64a_hud ();

  00385	e8 00 00 00 00	 call	 ?draw_ah64a_hud@@YGXXZ	; draw_ah64a_hud

; 324  : 
; 325  : 			break;

  0038a	e9 3a 0d 00 00	 jmp	 $LN4@draw_ah64a
$LN31@draw_ah64a:

; 326  : 		}
; 327  : 		////////////////////////////////////////
; 328  : 		case COCKPIT_PANEL_UP40_RIGHT90:
; 329  : 		////////////////////////////////////////
; 330  : 		{
; 331  : 			if (get_global_draw_cockpit_graphics ())

  0038f	83 3d b8 01 00
	00 00		 cmp	 DWORD PTR ?global_options@@3UGLOBAL_OPTIONS_DATA@@A+440, 0
  00396	74 4b		 je	 SHORT $LN33@draw_ah64a

; 332  : 			{
; 333  : 				draw_ah64a_external_virtual_cockpit

  00398	6a 00		 push	 0
  0039a	68 00 10 01 00	 push	 69632			; 00011000H
  0039f	e8 00 00 00 00	 call	 ?draw_ah64a_external_virtual_cockpit@@YGXIPAE@Z ; draw_ah64a_external_virtual_cockpit

; 334  : 				(
; 335  : 					VIRTUAL_COCKPIT_RAIN_EFFECT |
; 336  : 					VIRTUAL_COCKPIT_MAIN_ROTOR,
; 337  : 					NULL
; 338  : 				);
; 339  : 
; 340  : 				if (lock_screen (active_screen))

  003a4	a1 00 00 00 00	 mov	 eax, DWORD PTR ?active_screen@@3PAUSCREEN@@A ; active_screen
  003a9	50		 push	 eax
  003aa	e8 00 00 00 00	 call	 ?lock_screen@@YGHPAUSCREEN@@@Z ; lock_screen
  003af	85 c0		 test	 eax, eax
  003b1	74 30		 je	 SHORT $LN33@draw_ah64a

; 341  : 				{
; 342  : 					blit_rle_graphic (get_graphics_file_data (base_cockpit_graphics_file + GRAPHICS_COCKPITS_APACHE_U40_R90_RLE), ix_640_480, iy_640_480);

  003b3	a1 00 00 00 00	 mov	 eax, DWORD PTR ?iy_640_480@@3HA ; iy_640_480
  003b8	50		 push	 eax
  003b9	8b 0d 00 00 00
	00		 mov	 ecx, DWORD PTR ?ix_640_480@@3HA ; ix_640_480
  003bf	51		 push	 ecx
  003c0	8b 15 00 00 00
	00		 mov	 edx, DWORD PTR ?base_cockpit_graphics_file@@3W4GRAPHICS_FILE_SPECIFIERS@@A ; base_cockpit_graphics_file
  003c6	83 c2 06	 add	 edx, 6
  003c9	6b c2 28	 imul	 eax, edx, 40
  003cc	8b 88 1c 00 00
	00		 mov	 ecx, DWORD PTR ?graphics_files@@3PAUFILE_DATA@@A[eax+28]
  003d2	51		 push	 ecx
  003d3	e8 00 00 00 00	 call	 ?blit_rle_graphic@@YGXPBEHH@Z ; blit_rle_graphic

; 343  : 
; 344  : 					unlock_screen (active_screen);

  003d8	a1 00 00 00 00	 mov	 eax, DWORD PTR ?active_screen@@3PAUSCREEN@@A ; active_screen
  003dd	50		 push	 eax
  003de	e8 00 00 00 00	 call	 ?unlock_screen@@YGHPAUSCREEN@@@Z ; unlock_screen
$LN33@draw_ah64a:

; 345  : 				}
; 346  : 			}
; 347  : 
; 348  : 			draw_ah64a_hud ();

  003e3	e8 00 00 00 00	 call	 ?draw_ah64a_hud@@YGXXZ	; draw_ah64a_hud

; 349  : 
; 350  : 			break;

  003e8	e9 dc 0c 00 00	 jmp	 $LN4@draw_ah64a
$LN34@draw_ah64a:

; 351  : 		}
; 352  : 		////////////////////////////////////////
; 353  : 		case COCKPIT_PANEL_UP20_LEFT90:
; 354  : 		////////////////////////////////////////
; 355  : 		{
; 356  : 			if (get_global_draw_cockpit_graphics ())

  003ed	83 3d b8 01 00
	00 00		 cmp	 DWORD PTR ?global_options@@3UGLOBAL_OPTIONS_DATA@@A+440, 0
  003f4	74 4b		 je	 SHORT $LN36@draw_ah64a

; 357  : 			{
; 358  : 				draw_ah64a_external_virtual_cockpit

  003f6	6a 00		 push	 0
  003f8	68 00 10 01 00	 push	 69632			; 00011000H
  003fd	e8 00 00 00 00	 call	 ?draw_ah64a_external_virtual_cockpit@@YGXIPAE@Z ; draw_ah64a_external_virtual_cockpit

; 359  : 				(
; 360  : 					VIRTUAL_COCKPIT_RAIN_EFFECT |
; 361  : 					VIRTUAL_COCKPIT_MAIN_ROTOR,
; 362  : 					NULL
; 363  : 				);
; 364  : 
; 365  : 				if (lock_screen (active_screen))

  00402	a1 00 00 00 00	 mov	 eax, DWORD PTR ?active_screen@@3PAUSCREEN@@A ; active_screen
  00407	50		 push	 eax
  00408	e8 00 00 00 00	 call	 ?lock_screen@@YGHPAUSCREEN@@@Z ; lock_screen
  0040d	85 c0		 test	 eax, eax
  0040f	74 30		 je	 SHORT $LN36@draw_ah64a

; 366  : 				{
; 367  : 					blit_rle_graphic (get_graphics_file_data (base_cockpit_graphics_file + GRAPHICS_COCKPITS_APACHE_U20_L90_RLE), ix_640_480, iy_640_480);

  00411	a1 00 00 00 00	 mov	 eax, DWORD PTR ?iy_640_480@@3HA ; iy_640_480
  00416	50		 push	 eax
  00417	8b 0d 00 00 00
	00		 mov	 ecx, DWORD PTR ?ix_640_480@@3HA ; ix_640_480
  0041d	51		 push	 ecx
  0041e	8b 15 00 00 00
	00		 mov	 edx, DWORD PTR ?base_cockpit_graphics_file@@3W4GRAPHICS_FILE_SPECIFIERS@@A ; base_cockpit_graphics_file
  00424	83 c2 07	 add	 edx, 7
  00427	6b c2 28	 imul	 eax, edx, 40
  0042a	8b 88 1c 00 00
	00		 mov	 ecx, DWORD PTR ?graphics_files@@3PAUFILE_DATA@@A[eax+28]
  00430	51		 push	 ecx
  00431	e8 00 00 00 00	 call	 ?blit_rle_graphic@@YGXPBEHH@Z ; blit_rle_graphic

; 368  : 
; 369  : 					unlock_screen (active_screen);

  00436	a1 00 00 00 00	 mov	 eax, DWORD PTR ?active_screen@@3PAUSCREEN@@A ; active_screen
  0043b	50		 push	 eax
  0043c	e8 00 00 00 00	 call	 ?unlock_screen@@YGHPAUSCREEN@@@Z ; unlock_screen
$LN36@draw_ah64a:

; 370  : 				}
; 371  : 			}
; 372  : 
; 373  : 			draw_ah64a_hud ();

  00441	e8 00 00 00 00	 call	 ?draw_ah64a_hud@@YGXXZ	; draw_ah64a_hud

; 374  : 
; 375  : 			break;

  00446	e9 7e 0c 00 00	 jmp	 $LN4@draw_ah64a
$LN37@draw_ah64a:

; 376  : 		}
; 377  : 		////////////////////////////////////////
; 378  : 		case COCKPIT_PANEL_UP20_LEFT60:
; 379  : 		////////////////////////////////////////
; 380  : 		{
; 381  : 			if (get_global_draw_cockpit_graphics ())

  0044b	83 3d b8 01 00
	00 00		 cmp	 DWORD PTR ?global_options@@3UGLOBAL_OPTIONS_DATA@@A+440, 0
  00452	74 4b		 je	 SHORT $LN39@draw_ah64a

; 382  : 			{
; 383  : 				draw_ah64a_external_virtual_cockpit

  00454	6a 00		 push	 0
  00456	68 00 10 01 00	 push	 69632			; 00011000H
  0045b	e8 00 00 00 00	 call	 ?draw_ah64a_external_virtual_cockpit@@YGXIPAE@Z ; draw_ah64a_external_virtual_cockpit

; 384  : 				(
; 385  : 					VIRTUAL_COCKPIT_RAIN_EFFECT |
; 386  : 					VIRTUAL_COCKPIT_MAIN_ROTOR,
; 387  : 					NULL
; 388  : 				);
; 389  : 
; 390  : 				if (lock_screen (active_screen))

  00460	a1 00 00 00 00	 mov	 eax, DWORD PTR ?active_screen@@3PAUSCREEN@@A ; active_screen
  00465	50		 push	 eax
  00466	e8 00 00 00 00	 call	 ?lock_screen@@YGHPAUSCREEN@@@Z ; lock_screen
  0046b	85 c0		 test	 eax, eax
  0046d	74 30		 je	 SHORT $LN39@draw_ah64a

; 391  : 				{
; 392  : 					blit_rle_graphic (get_graphics_file_data (base_cockpit_graphics_file + GRAPHICS_COCKPITS_APACHE_U20_L60_RLE), ix_640_480, iy_640_480);

  0046f	a1 00 00 00 00	 mov	 eax, DWORD PTR ?iy_640_480@@3HA ; iy_640_480
  00474	50		 push	 eax
  00475	8b 0d 00 00 00
	00		 mov	 ecx, DWORD PTR ?ix_640_480@@3HA ; ix_640_480
  0047b	51		 push	 ecx
  0047c	8b 15 00 00 00
	00		 mov	 edx, DWORD PTR ?base_cockpit_graphics_file@@3W4GRAPHICS_FILE_SPECIFIERS@@A ; base_cockpit_graphics_file
  00482	83 c2 08	 add	 edx, 8
  00485	6b c2 28	 imul	 eax, edx, 40
  00488	8b 88 1c 00 00
	00		 mov	 ecx, DWORD PTR ?graphics_files@@3PAUFILE_DATA@@A[eax+28]
  0048e	51		 push	 ecx
  0048f	e8 00 00 00 00	 call	 ?blit_rle_graphic@@YGXPBEHH@Z ; blit_rle_graphic

; 393  : 
; 394  : 					unlock_screen (active_screen);

  00494	a1 00 00 00 00	 mov	 eax, DWORD PTR ?active_screen@@3PAUSCREEN@@A ; active_screen
  00499	50		 push	 eax
  0049a	e8 00 00 00 00	 call	 ?unlock_screen@@YGHPAUSCREEN@@@Z ; unlock_screen
$LN39@draw_ah64a:

; 395  : 				}
; 396  : 			}
; 397  : 
; 398  : 			draw_ah64a_hud ();

  0049f	e8 00 00 00 00	 call	 ?draw_ah64a_hud@@YGXXZ	; draw_ah64a_hud

; 399  : 
; 400  : 			break;

  004a4	e9 20 0c 00 00	 jmp	 $LN4@draw_ah64a
$LN40@draw_ah64a:

; 401  : 		}
; 402  : 		////////////////////////////////////////
; 403  : 		case COCKPIT_PANEL_UP20_LEFT30:
; 404  : 		////////////////////////////////////////
; 405  : 		{
; 406  : 			if (get_global_draw_cockpit_graphics ())

  004a9	83 3d b8 01 00
	00 00		 cmp	 DWORD PTR ?global_options@@3UGLOBAL_OPTIONS_DATA@@A+440, 0
  004b0	74 5b		 je	 SHORT $LN42@draw_ah64a

; 407  : 			{
; 408  : 				draw_ah64a_external_virtual_cockpit

  004b2	a1 00 00 00 00	 mov	 eax, DWORD PTR ?base_cockpit_graphics_file@@3W4GRAPHICS_FILE_SPECIFIERS@@A ; base_cockpit_graphics_file
  004b7	83 c0 23	 add	 eax, 35			; 00000023H
  004ba	6b c8 28	 imul	 ecx, eax, 40
  004bd	8b 91 1c 00 00
	00		 mov	 edx, DWORD PTR ?graphics_files@@3PAUFILE_DATA@@A[ecx+28]
  004c3	52		 push	 edx
  004c4	68 00 b0 01 00	 push	 110592			; 0001b000H
  004c9	e8 00 00 00 00	 call	 ?draw_ah64a_external_virtual_cockpit@@YGXIPAE@Z ; draw_ah64a_external_virtual_cockpit

; 409  : 				(
; 410  : 					VIRTUAL_COCKPIT_RENDERED_WIPER |
; 411  : 					VIRTUAL_COCKPIT_MOVING_WIPER |
; 412  : 					VIRTUAL_COCKPIT_RAIN_EFFECT |
; 413  : 					VIRTUAL_COCKPIT_MAIN_ROTOR,
; 414  : 					get_graphics_file_data (base_cockpit_graphics_file + GRAPHICS_COCKPITS_APACHE_WIPER_U20_L30_RLE)
; 415  : 				);
; 416  : 
; 417  : 				if (lock_screen (active_screen))

  004ce	a1 00 00 00 00	 mov	 eax, DWORD PTR ?active_screen@@3PAUSCREEN@@A ; active_screen
  004d3	50		 push	 eax
  004d4	e8 00 00 00 00	 call	 ?lock_screen@@YGHPAUSCREEN@@@Z ; lock_screen
  004d9	85 c0		 test	 eax, eax
  004db	74 30		 je	 SHORT $LN42@draw_ah64a

; 418  : 				{
; 419  : 					blit_rle_graphic (get_graphics_file_data (base_cockpit_graphics_file + GRAPHICS_COCKPITS_APACHE_U20_L30_RLE), ix_640_480, iy_640_480);

  004dd	a1 00 00 00 00	 mov	 eax, DWORD PTR ?iy_640_480@@3HA ; iy_640_480
  004e2	50		 push	 eax
  004e3	8b 0d 00 00 00
	00		 mov	 ecx, DWORD PTR ?ix_640_480@@3HA ; ix_640_480
  004e9	51		 push	 ecx
  004ea	8b 15 00 00 00
	00		 mov	 edx, DWORD PTR ?base_cockpit_graphics_file@@3W4GRAPHICS_FILE_SPECIFIERS@@A ; base_cockpit_graphics_file
  004f0	83 c2 09	 add	 edx, 9
  004f3	6b c2 28	 imul	 eax, edx, 40
  004f6	8b 88 1c 00 00
	00		 mov	 ecx, DWORD PTR ?graphics_files@@3PAUFILE_DATA@@A[eax+28]
  004fc	51		 push	 ecx
  004fd	e8 00 00 00 00	 call	 ?blit_rle_graphic@@YGXPBEHH@Z ; blit_rle_graphic

; 420  : 
; 421  : 					unlock_screen (active_screen);

  00502	a1 00 00 00 00	 mov	 eax, DWORD PTR ?active_screen@@3PAUSCREEN@@A ; active_screen
  00507	50		 push	 eax
  00508	e8 00 00 00 00	 call	 ?unlock_screen@@YGHPAUSCREEN@@@Z ; unlock_screen
$LN42@draw_ah64a:

; 422  : 				}
; 423  : 			}
; 424  : 
; 425  : 			draw_ah64a_hud ();

  0050d	e8 00 00 00 00	 call	 ?draw_ah64a_hud@@YGXXZ	; draw_ah64a_hud

; 426  : 
; 427  : 			break;

  00512	e9 b2 0b 00 00	 jmp	 $LN4@draw_ah64a
$LN43@draw_ah64a:

; 428  : 		}
; 429  : 		////////////////////////////////////////
; 430  : 		case COCKPIT_PANEL_UP20_AHEAD:
; 431  : 		////////////////////////////////////////
; 432  : 		{
; 433  : 			if (get_global_draw_cockpit_graphics ())

  00517	83 3d b8 01 00
	00 00		 cmp	 DWORD PTR ?global_options@@3UGLOBAL_OPTIONS_DATA@@A+440, 0
  0051e	74 5b		 je	 SHORT $LN45@draw_ah64a

; 434  : 			{
; 435  : 				draw_ah64a_external_virtual_cockpit

  00520	a1 00 00 00 00	 mov	 eax, DWORD PTR ?base_cockpit_graphics_file@@3W4GRAPHICS_FILE_SPECIFIERS@@A ; base_cockpit_graphics_file
  00525	83 c0 24	 add	 eax, 36			; 00000024H
  00528	6b c8 28	 imul	 ecx, eax, 40
  0052b	8b 91 1c 00 00
	00		 mov	 edx, DWORD PTR ?graphics_files@@3PAUFILE_DATA@@A[ecx+28]
  00531	52		 push	 edx
  00532	68 00 b0 01 00	 push	 110592			; 0001b000H
  00537	e8 00 00 00 00	 call	 ?draw_ah64a_external_virtual_cockpit@@YGXIPAE@Z ; draw_ah64a_external_virtual_cockpit

; 436  : 				(
; 437  : 					VIRTUAL_COCKPIT_RENDERED_WIPER |
; 438  : 					VIRTUAL_COCKPIT_MOVING_WIPER |
; 439  : 					VIRTUAL_COCKPIT_RAIN_EFFECT |
; 440  : 					VIRTUAL_COCKPIT_MAIN_ROTOR,
; 441  : 					get_graphics_file_data (base_cockpit_graphics_file + GRAPHICS_COCKPITS_APACHE_WIPER_U20_AHD_RLE)
; 442  : 				);
; 443  : 
; 444  : 				if (lock_screen (active_screen))

  0053c	a1 00 00 00 00	 mov	 eax, DWORD PTR ?active_screen@@3PAUSCREEN@@A ; active_screen
  00541	50		 push	 eax
  00542	e8 00 00 00 00	 call	 ?lock_screen@@YGHPAUSCREEN@@@Z ; lock_screen
  00547	85 c0		 test	 eax, eax
  00549	74 30		 je	 SHORT $LN45@draw_ah64a

; 445  : 				{
; 446  : 					blit_rle_graphic (get_graphics_file_data (base_cockpit_graphics_file + GRAPHICS_COCKPITS_APACHE_U20_AHD_RLE), ix_640_480, iy_640_480);

  0054b	a1 00 00 00 00	 mov	 eax, DWORD PTR ?iy_640_480@@3HA ; iy_640_480
  00550	50		 push	 eax
  00551	8b 0d 00 00 00
	00		 mov	 ecx, DWORD PTR ?ix_640_480@@3HA ; ix_640_480
  00557	51		 push	 ecx
  00558	8b 15 00 00 00
	00		 mov	 edx, DWORD PTR ?base_cockpit_graphics_file@@3W4GRAPHICS_FILE_SPECIFIERS@@A ; base_cockpit_graphics_file
  0055e	83 c2 0a	 add	 edx, 10			; 0000000aH
  00561	6b c2 28	 imul	 eax, edx, 40
  00564	8b 88 1c 00 00
	00		 mov	 ecx, DWORD PTR ?graphics_files@@3PAUFILE_DATA@@A[eax+28]
  0056a	51		 push	 ecx
  0056b	e8 00 00 00 00	 call	 ?blit_rle_graphic@@YGXPBEHH@Z ; blit_rle_graphic

; 447  : 
; 448  : 					unlock_screen (active_screen);

  00570	a1 00 00 00 00	 mov	 eax, DWORD PTR ?active_screen@@3PAUSCREEN@@A ; active_screen
  00575	50		 push	 eax
  00576	e8 00 00 00 00	 call	 ?unlock_screen@@YGHPAUSCREEN@@@Z ; unlock_screen
$LN45@draw_ah64a:

; 449  : 				}
; 450  : 			}
; 451  : 
; 452  : 			draw_ah64a_hud ();

  0057b	e8 00 00 00 00	 call	 ?draw_ah64a_hud@@YGXXZ	; draw_ah64a_hud

; 453  : 
; 454  : 			break;

  00580	e9 44 0b 00 00	 jmp	 $LN4@draw_ah64a
$LN46@draw_ah64a:

; 455  : 		}
; 456  : 		////////////////////////////////////////
; 457  : 		case COCKPIT_PANEL_UP20_RIGHT30:
; 458  : 		////////////////////////////////////////
; 459  : 		{
; 460  : 			if (get_global_draw_cockpit_graphics ())

  00585	83 3d b8 01 00
	00 00		 cmp	 DWORD PTR ?global_options@@3UGLOBAL_OPTIONS_DATA@@A+440, 0
  0058c	74 4b		 je	 SHORT $LN48@draw_ah64a

; 461  : 			{
; 462  : 				draw_ah64a_external_virtual_cockpit

  0058e	6a 00		 push	 0
  00590	68 00 90 01 00	 push	 102400			; 00019000H
  00595	e8 00 00 00 00	 call	 ?draw_ah64a_external_virtual_cockpit@@YGXIPAE@Z ; draw_ah64a_external_virtual_cockpit

; 463  : 				(
; 464  : 					VIRTUAL_COCKPIT_MOVING_WIPER |
; 465  : 					VIRTUAL_COCKPIT_RAIN_EFFECT |
; 466  : 					VIRTUAL_COCKPIT_MAIN_ROTOR,
; 467  : 					NULL
; 468  : 				);
; 469  : 
; 470  : 				if (lock_screen (active_screen))

  0059a	a1 00 00 00 00	 mov	 eax, DWORD PTR ?active_screen@@3PAUSCREEN@@A ; active_screen
  0059f	50		 push	 eax
  005a0	e8 00 00 00 00	 call	 ?lock_screen@@YGHPAUSCREEN@@@Z ; lock_screen
  005a5	85 c0		 test	 eax, eax
  005a7	74 30		 je	 SHORT $LN48@draw_ah64a

; 471  : 				{
; 472  : 					blit_rle_graphic (get_graphics_file_data (base_cockpit_graphics_file + GRAPHICS_COCKPITS_APACHE_U20_R30_RLE), ix_640_480, iy_640_480);

  005a9	a1 00 00 00 00	 mov	 eax, DWORD PTR ?iy_640_480@@3HA ; iy_640_480
  005ae	50		 push	 eax
  005af	8b 0d 00 00 00
	00		 mov	 ecx, DWORD PTR ?ix_640_480@@3HA ; ix_640_480
  005b5	51		 push	 ecx
  005b6	8b 15 00 00 00
	00		 mov	 edx, DWORD PTR ?base_cockpit_graphics_file@@3W4GRAPHICS_FILE_SPECIFIERS@@A ; base_cockpit_graphics_file
  005bc	83 c2 0b	 add	 edx, 11			; 0000000bH
  005bf	6b c2 28	 imul	 eax, edx, 40
  005c2	8b 88 1c 00 00
	00		 mov	 ecx, DWORD PTR ?graphics_files@@3PAUFILE_DATA@@A[eax+28]
  005c8	51		 push	 ecx
  005c9	e8 00 00 00 00	 call	 ?blit_rle_graphic@@YGXPBEHH@Z ; blit_rle_graphic

; 473  : 
; 474  : 					unlock_screen (active_screen);

  005ce	a1 00 00 00 00	 mov	 eax, DWORD PTR ?active_screen@@3PAUSCREEN@@A ; active_screen
  005d3	50		 push	 eax
  005d4	e8 00 00 00 00	 call	 ?unlock_screen@@YGHPAUSCREEN@@@Z ; unlock_screen
$LN48@draw_ah64a:

; 475  : 				}
; 476  : 			}
; 477  : 
; 478  : 			draw_ah64a_hud ();

  005d9	e8 00 00 00 00	 call	 ?draw_ah64a_hud@@YGXXZ	; draw_ah64a_hud

; 479  : 
; 480  : 			break;

  005de	e9 e6 0a 00 00	 jmp	 $LN4@draw_ah64a
$LN49@draw_ah64a:

; 481  : 		}
; 482  : 		////////////////////////////////////////
; 483  : 		case COCKPIT_PANEL_UP20_RIGHT60:
; 484  : 		////////////////////////////////////////
; 485  : 		{
; 486  : 			if (get_global_draw_cockpit_graphics ())

  005e3	83 3d b8 01 00
	00 00		 cmp	 DWORD PTR ?global_options@@3UGLOBAL_OPTIONS_DATA@@A+440, 0
  005ea	74 4b		 je	 SHORT $LN51@draw_ah64a

; 487  : 			{
; 488  : 				draw_ah64a_external_virtual_cockpit

  005ec	6a 00		 push	 0
  005ee	68 00 10 01 00	 push	 69632			; 00011000H
  005f3	e8 00 00 00 00	 call	 ?draw_ah64a_external_virtual_cockpit@@YGXIPAE@Z ; draw_ah64a_external_virtual_cockpit

; 489  : 				(
; 490  : 					VIRTUAL_COCKPIT_RAIN_EFFECT |
; 491  : 					VIRTUAL_COCKPIT_MAIN_ROTOR,
; 492  : 					NULL
; 493  : 				);
; 494  : 
; 495  : 				if (lock_screen (active_screen))

  005f8	a1 00 00 00 00	 mov	 eax, DWORD PTR ?active_screen@@3PAUSCREEN@@A ; active_screen
  005fd	50		 push	 eax
  005fe	e8 00 00 00 00	 call	 ?lock_screen@@YGHPAUSCREEN@@@Z ; lock_screen
  00603	85 c0		 test	 eax, eax
  00605	74 30		 je	 SHORT $LN51@draw_ah64a

; 496  : 				{
; 497  : 					blit_rle_graphic (get_graphics_file_data (base_cockpit_graphics_file + GRAPHICS_COCKPITS_APACHE_U20_R60_RLE), ix_640_480, iy_640_480);

  00607	a1 00 00 00 00	 mov	 eax, DWORD PTR ?iy_640_480@@3HA ; iy_640_480
  0060c	50		 push	 eax
  0060d	8b 0d 00 00 00
	00		 mov	 ecx, DWORD PTR ?ix_640_480@@3HA ; ix_640_480
  00613	51		 push	 ecx
  00614	8b 15 00 00 00
	00		 mov	 edx, DWORD PTR ?base_cockpit_graphics_file@@3W4GRAPHICS_FILE_SPECIFIERS@@A ; base_cockpit_graphics_file
  0061a	83 c2 0c	 add	 edx, 12			; 0000000cH
  0061d	6b c2 28	 imul	 eax, edx, 40
  00620	8b 88 1c 00 00
	00		 mov	 ecx, DWORD PTR ?graphics_files@@3PAUFILE_DATA@@A[eax+28]
  00626	51		 push	 ecx
  00627	e8 00 00 00 00	 call	 ?blit_rle_graphic@@YGXPBEHH@Z ; blit_rle_graphic

; 498  : 
; 499  : 					unlock_screen (active_screen);

  0062c	a1 00 00 00 00	 mov	 eax, DWORD PTR ?active_screen@@3PAUSCREEN@@A ; active_screen
  00631	50		 push	 eax
  00632	e8 00 00 00 00	 call	 ?unlock_screen@@YGHPAUSCREEN@@@Z ; unlock_screen
$LN51@draw_ah64a:

; 500  : 				}
; 501  : 			}
; 502  : 
; 503  : 			draw_ah64a_hud ();

  00637	e8 00 00 00 00	 call	 ?draw_ah64a_hud@@YGXXZ	; draw_ah64a_hud

; 504  : 
; 505  : 			break;

  0063c	e9 88 0a 00 00	 jmp	 $LN4@draw_ah64a
$LN52@draw_ah64a:

; 506  : 		}
; 507  : 		////////////////////////////////////////
; 508  : 		case COCKPIT_PANEL_UP20_RIGHT90:
; 509  : 		////////////////////////////////////////
; 510  : 		{
; 511  : 			if (get_global_draw_cockpit_graphics ())

  00641	83 3d b8 01 00
	00 00		 cmp	 DWORD PTR ?global_options@@3UGLOBAL_OPTIONS_DATA@@A+440, 0
  00648	74 4b		 je	 SHORT $LN54@draw_ah64a

; 512  : 			{
; 513  : 				draw_ah64a_external_virtual_cockpit

  0064a	6a 00		 push	 0
  0064c	68 00 10 01 00	 push	 69632			; 00011000H
  00651	e8 00 00 00 00	 call	 ?draw_ah64a_external_virtual_cockpit@@YGXIPAE@Z ; draw_ah64a_external_virtual_cockpit

; 514  : 				(
; 515  : 					VIRTUAL_COCKPIT_RAIN_EFFECT |
; 516  : 					VIRTUAL_COCKPIT_MAIN_ROTOR,
; 517  : 					NULL
; 518  : 				);
; 519  : 
; 520  : 				if (lock_screen (active_screen))

  00656	a1 00 00 00 00	 mov	 eax, DWORD PTR ?active_screen@@3PAUSCREEN@@A ; active_screen
  0065b	50		 push	 eax
  0065c	e8 00 00 00 00	 call	 ?lock_screen@@YGHPAUSCREEN@@@Z ; lock_screen
  00661	85 c0		 test	 eax, eax
  00663	74 30		 je	 SHORT $LN54@draw_ah64a

; 521  : 				{
; 522  : 					blit_rle_graphic (get_graphics_file_data (base_cockpit_graphics_file + GRAPHICS_COCKPITS_APACHE_U20_R90_RLE), ix_640_480, iy_640_480);

  00665	a1 00 00 00 00	 mov	 eax, DWORD PTR ?iy_640_480@@3HA ; iy_640_480
  0066a	50		 push	 eax
  0066b	8b 0d 00 00 00
	00		 mov	 ecx, DWORD PTR ?ix_640_480@@3HA ; ix_640_480
  00671	51		 push	 ecx
  00672	8b 15 00 00 00
	00		 mov	 edx, DWORD PTR ?base_cockpit_graphics_file@@3W4GRAPHICS_FILE_SPECIFIERS@@A ; base_cockpit_graphics_file
  00678	83 c2 0d	 add	 edx, 13			; 0000000dH
  0067b	6b c2 28	 imul	 eax, edx, 40
  0067e	8b 88 1c 00 00
	00		 mov	 ecx, DWORD PTR ?graphics_files@@3PAUFILE_DATA@@A[eax+28]
  00684	51		 push	 ecx
  00685	e8 00 00 00 00	 call	 ?blit_rle_graphic@@YGXPBEHH@Z ; blit_rle_graphic

; 523  : 
; 524  : 					unlock_screen (active_screen);

  0068a	a1 00 00 00 00	 mov	 eax, DWORD PTR ?active_screen@@3PAUSCREEN@@A ; active_screen
  0068f	50		 push	 eax
  00690	e8 00 00 00 00	 call	 ?unlock_screen@@YGHPAUSCREEN@@@Z ; unlock_screen
$LN54@draw_ah64a:

; 525  : 				}
; 526  : 			}
; 527  : 
; 528  : 			draw_ah64a_hud ();

  00695	e8 00 00 00 00	 call	 ?draw_ah64a_hud@@YGXXZ	; draw_ah64a_hud

; 529  : 
; 530  : 			break;

  0069a	e9 2a 0a 00 00	 jmp	 $LN4@draw_ah64a
$LN55@draw_ah64a:

; 531  : 		}
; 532  : 		////////////////////////////////////////
; 533  : 		case COCKPIT_PANEL_LEVEL_LEFT90:
; 534  : 		////////////////////////////////////////
; 535  : 		{
; 536  : 			if (get_global_draw_cockpit_graphics ())

  0069f	83 3d b8 01 00
	00 00		 cmp	 DWORD PTR ?global_options@@3UGLOBAL_OPTIONS_DATA@@A+440, 0
  006a6	74 4b		 je	 SHORT $LN57@draw_ah64a

; 537  : 			{
; 538  : 				draw_ah64a_external_virtual_cockpit

  006a8	6a 00		 push	 0
  006aa	68 00 10 01 00	 push	 69632			; 00011000H
  006af	e8 00 00 00 00	 call	 ?draw_ah64a_external_virtual_cockpit@@YGXIPAE@Z ; draw_ah64a_external_virtual_cockpit

; 539  : 				(
; 540  : 					VIRTUAL_COCKPIT_RAIN_EFFECT |
; 541  : 					VIRTUAL_COCKPIT_MAIN_ROTOR,
; 542  : 					NULL
; 543  : 				);
; 544  : 
; 545  : 				if (lock_screen (active_screen))

  006b4	a1 00 00 00 00	 mov	 eax, DWORD PTR ?active_screen@@3PAUSCREEN@@A ; active_screen
  006b9	50		 push	 eax
  006ba	e8 00 00 00 00	 call	 ?lock_screen@@YGHPAUSCREEN@@@Z ; lock_screen
  006bf	85 c0		 test	 eax, eax
  006c1	74 30		 je	 SHORT $LN57@draw_ah64a

; 546  : 				{
; 547  : 					blit_rle_graphic (get_graphics_file_data (base_cockpit_graphics_file + GRAPHICS_COCKPITS_APACHE_LVL_L90_RLE), ix_640_480, iy_640_480);

  006c3	a1 00 00 00 00	 mov	 eax, DWORD PTR ?iy_640_480@@3HA ; iy_640_480
  006c8	50		 push	 eax
  006c9	8b 0d 00 00 00
	00		 mov	 ecx, DWORD PTR ?ix_640_480@@3HA ; ix_640_480
  006cf	51		 push	 ecx
  006d0	8b 15 00 00 00
	00		 mov	 edx, DWORD PTR ?base_cockpit_graphics_file@@3W4GRAPHICS_FILE_SPECIFIERS@@A ; base_cockpit_graphics_file
  006d6	83 c2 0e	 add	 edx, 14			; 0000000eH
  006d9	6b c2 28	 imul	 eax, edx, 40
  006dc	8b 88 1c 00 00
	00		 mov	 ecx, DWORD PTR ?graphics_files@@3PAUFILE_DATA@@A[eax+28]
  006e2	51		 push	 ecx
  006e3	e8 00 00 00 00	 call	 ?blit_rle_graphic@@YGXPBEHH@Z ; blit_rle_graphic

; 548  : 
; 549  : 					unlock_screen (active_screen);

  006e8	a1 00 00 00 00	 mov	 eax, DWORD PTR ?active_screen@@3PAUSCREEN@@A ; active_screen
  006ed	50		 push	 eax
  006ee	e8 00 00 00 00	 call	 ?unlock_screen@@YGHPAUSCREEN@@@Z ; unlock_screen
$LN57@draw_ah64a:

; 550  : 				}
; 551  : 			}
; 552  : 
; 553  : 			draw_ah64a_hud ();

  006f3	e8 00 00 00 00	 call	 ?draw_ah64a_hud@@YGXXZ	; draw_ah64a_hud

; 554  : 
; 555  : 			break;

  006f8	e9 cc 09 00 00	 jmp	 $LN4@draw_ah64a
$LN58@draw_ah64a:

; 556  : 		}
; 557  : 		////////////////////////////////////////
; 558  : 		case COCKPIT_PANEL_LEVEL_LEFT60:
; 559  : 		////////////////////////////////////////
; 560  : 		{
; 561  : 			if (get_global_draw_cockpit_graphics ())

  006fd	83 3d b8 01 00
	00 00		 cmp	 DWORD PTR ?global_options@@3UGLOBAL_OPTIONS_DATA@@A+440, 0
  00704	74 4b		 je	 SHORT $LN60@draw_ah64a

; 562  : 			{
; 563  : 				draw_ah64a_external_virtual_cockpit

  00706	6a 00		 push	 0
  00708	68 00 10 01 00	 push	 69632			; 00011000H
  0070d	e8 00 00 00 00	 call	 ?draw_ah64a_external_virtual_cockpit@@YGXIPAE@Z ; draw_ah64a_external_virtual_cockpit

; 564  : 				(
; 565  : 					VIRTUAL_COCKPIT_RAIN_EFFECT |
; 566  : 					VIRTUAL_COCKPIT_MAIN_ROTOR,
; 567  : 					NULL
; 568  : 				);
; 569  : 
; 570  : 				if (lock_screen (active_screen))

  00712	a1 00 00 00 00	 mov	 eax, DWORD PTR ?active_screen@@3PAUSCREEN@@A ; active_screen
  00717	50		 push	 eax
  00718	e8 00 00 00 00	 call	 ?lock_screen@@YGHPAUSCREEN@@@Z ; lock_screen
  0071d	85 c0		 test	 eax, eax
  0071f	74 30		 je	 SHORT $LN60@draw_ah64a

; 571  : 				{
; 572  : 					blit_rle_graphic (get_graphics_file_data (base_cockpit_graphics_file + GRAPHICS_COCKPITS_APACHE_LVL_L60_RLE), ix_640_480, iy_640_480);

  00721	a1 00 00 00 00	 mov	 eax, DWORD PTR ?iy_640_480@@3HA ; iy_640_480
  00726	50		 push	 eax
  00727	8b 0d 00 00 00
	00		 mov	 ecx, DWORD PTR ?ix_640_480@@3HA ; ix_640_480
  0072d	51		 push	 ecx
  0072e	8b 15 00 00 00
	00		 mov	 edx, DWORD PTR ?base_cockpit_graphics_file@@3W4GRAPHICS_FILE_SPECIFIERS@@A ; base_cockpit_graphics_file
  00734	83 c2 0f	 add	 edx, 15			; 0000000fH
  00737	6b c2 28	 imul	 eax, edx, 40
  0073a	8b 88 1c 00 00
	00		 mov	 ecx, DWORD PTR ?graphics_files@@3PAUFILE_DATA@@A[eax+28]
  00740	51		 push	 ecx
  00741	e8 00 00 00 00	 call	 ?blit_rle_graphic@@YGXPBEHH@Z ; blit_rle_graphic

; 573  : 
; 574  : 					unlock_screen (active_screen);

  00746	a1 00 00 00 00	 mov	 eax, DWORD PTR ?active_screen@@3PAUSCREEN@@A ; active_screen
  0074b	50		 push	 eax
  0074c	e8 00 00 00 00	 call	 ?unlock_screen@@YGHPAUSCREEN@@@Z ; unlock_screen
$LN60@draw_ah64a:

; 575  : 				}
; 576  : 			}
; 577  : 
; 578  : 			draw_ah64a_hud ();

  00751	e8 00 00 00 00	 call	 ?draw_ah64a_hud@@YGXXZ	; draw_ah64a_hud

; 579  : 
; 580  : 			break;

  00756	e9 6e 09 00 00	 jmp	 $LN4@draw_ah64a
$LN61@draw_ah64a:

; 581  : 		}
; 582  : 		////////////////////////////////////////
; 583  : 		case COCKPIT_PANEL_LEVEL_LEFT30:
; 584  : 		////////////////////////////////////////
; 585  : 		{
; 586  : 			if (get_global_draw_cockpit_graphics ())

  0075b	83 3d b8 01 00
	00 00		 cmp	 DWORD PTR ?global_options@@3UGLOBAL_OPTIONS_DATA@@A+440, 0
  00762	74 6d		 je	 SHORT $LN63@draw_ah64a

; 587  : 			{
; 588  : 				draw_ah64a_external_virtual_cockpit

  00764	a1 00 00 00 00	 mov	 eax, DWORD PTR ?base_cockpit_graphics_file@@3W4GRAPHICS_FILE_SPECIFIERS@@A ; base_cockpit_graphics_file
  00769	83 c0 25	 add	 eax, 37			; 00000025H
  0076c	6b c8 28	 imul	 ecx, eax, 40
  0076f	8b 91 1c 00 00
	00		 mov	 edx, DWORD PTR ?graphics_files@@3PAUFILE_DATA@@A[ecx+28]
  00775	52		 push	 edx
  00776	68 00 b0 01 00	 push	 110592			; 0001b000H
  0077b	e8 00 00 00 00	 call	 ?draw_ah64a_external_virtual_cockpit@@YGXIPAE@Z ; draw_ah64a_external_virtual_cockpit

; 589  : 				(
; 590  : 					VIRTUAL_COCKPIT_RENDERED_WIPER |
; 591  : 					VIRTUAL_COCKPIT_MOVING_WIPER |
; 592  : 					VIRTUAL_COCKPIT_RAIN_EFFECT |
; 593  : 					VIRTUAL_COCKPIT_MAIN_ROTOR,
; 594  : 					get_graphics_file_data (base_cockpit_graphics_file + GRAPHICS_COCKPITS_APACHE_WIPER_LVL_L30_RLE)
; 595  : 				);
; 596  : 
; 597  : 				if (lock_screen (active_screen))

  00780	a1 00 00 00 00	 mov	 eax, DWORD PTR ?active_screen@@3PAUSCREEN@@A ; active_screen
  00785	50		 push	 eax
  00786	e8 00 00 00 00	 call	 ?lock_screen@@YGHPAUSCREEN@@@Z ; lock_screen
  0078b	85 c0		 test	 eax, eax
  0078d	74 42		 je	 SHORT $LN63@draw_ah64a

; 598  : 				{
; 599  : 					blit_rle_graphic (get_graphics_file_data (base_cockpit_graphics_file + GRAPHICS_COCKPITS_APACHE_LVL_L30_RLE), ix_640_480, iy_640_480);

  0078f	a1 00 00 00 00	 mov	 eax, DWORD PTR ?iy_640_480@@3HA ; iy_640_480
  00794	50		 push	 eax
  00795	8b 0d 00 00 00
	00		 mov	 ecx, DWORD PTR ?ix_640_480@@3HA ; ix_640_480
  0079b	51		 push	 ecx
  0079c	8b 15 00 00 00
	00		 mov	 edx, DWORD PTR ?base_cockpit_graphics_file@@3W4GRAPHICS_FILE_SPECIFIERS@@A ; base_cockpit_graphics_file
  007a2	83 c2 10	 add	 edx, 16			; 00000010H
  007a5	6b c2 28	 imul	 eax, edx, 40
  007a8	8b 88 1c 00 00
	00		 mov	 ecx, DWORD PTR ?graphics_files@@3PAUFILE_DATA@@A[eax+28]
  007ae	51		 push	 ecx
  007af	e8 00 00 00 00	 call	 ?blit_rle_graphic@@YGXPBEHH@Z ; blit_rle_graphic

; 600  : 
; 601  : 					draw_ah64a_indicator_lamps (panel);

  007b4	8b 45 08	 mov	 eax, DWORD PTR _panel$[ebp]
  007b7	50		 push	 eax
  007b8	e8 00 00 00 00	 call	 ?draw_ah64a_indicator_lamps@@YGXW4COCKPIT_PANELS@@@Z ; draw_ah64a_indicator_lamps

; 602  : 
; 603  : 					draw_ah64a_fire_detector_lamps (panel);

  007bd	8b 45 08	 mov	 eax, DWORD PTR _panel$[ebp]
  007c0	50		 push	 eax
  007c1	e8 00 00 00 00	 call	 ?draw_ah64a_fire_detector_lamps@@YGXW4COCKPIT_PANELS@@@Z ; draw_ah64a_fire_detector_lamps

; 604  : 
; 605  : 					unlock_screen (active_screen);

  007c6	a1 00 00 00 00	 mov	 eax, DWORD PTR ?active_screen@@3PAUSCREEN@@A ; active_screen
  007cb	50		 push	 eax
  007cc	e8 00 00 00 00	 call	 ?unlock_screen@@YGHPAUSCREEN@@@Z ; unlock_screen
$LN63@draw_ah64a:

; 606  : 				}
; 607  : 			}
; 608  : 
; 609  : 			draw_ah64a_hud ();

  007d1	e8 00 00 00 00	 call	 ?draw_ah64a_hud@@YGXXZ	; draw_ah64a_hud

; 610  : 
; 611  : 			break;

  007d6	e9 ee 08 00 00	 jmp	 $LN4@draw_ah64a
$LN64@draw_ah64a:

; 612  : 		}
; 613  : 		////////////////////////////////////////
; 614  : 		case COCKPIT_PANEL_LEVEL_AHEAD:
; 615  : 		////////////////////////////////////////
; 616  : 		{
; 617  : 			if (get_global_draw_cockpit_graphics ())

  007db	83 3d b8 01 00
	00 00		 cmp	 DWORD PTR ?global_options@@3UGLOBAL_OPTIONS_DATA@@A+440, 0
  007e2	0f 84 a6 00 00
	00		 je	 $LN65@draw_ah64a

; 618  : 			{
; 619  : 				draw_ah64a_external_virtual_cockpit

  007e8	a1 00 00 00 00	 mov	 eax, DWORD PTR ?base_cockpit_graphics_file@@3W4GRAPHICS_FILE_SPECIFIERS@@A ; base_cockpit_graphics_file
  007ed	83 c0 26	 add	 eax, 38			; 00000026H
  007f0	6b c8 28	 imul	 ecx, eax, 40
  007f3	8b 91 1c 00 00
	00		 mov	 edx, DWORD PTR ?graphics_files@@3PAUFILE_DATA@@A[ecx+28]
  007f9	52		 push	 edx
  007fa	68 00 b0 01 00	 push	 110592			; 0001b000H
  007ff	e8 00 00 00 00	 call	 ?draw_ah64a_external_virtual_cockpit@@YGXIPAE@Z ; draw_ah64a_external_virtual_cockpit

; 620  : 				(
; 621  : 					VIRTUAL_COCKPIT_RENDERED_WIPER |
; 622  : 					VIRTUAL_COCKPIT_MOVING_WIPER |
; 623  : 					VIRTUAL_COCKPIT_RAIN_EFFECT |
; 624  : 					VIRTUAL_COCKPIT_MAIN_ROTOR,
; 625  : 					get_graphics_file_data (base_cockpit_graphics_file + GRAPHICS_COCKPITS_APACHE_WIPER_LVL_AHD_RLE)
; 626  : 				);
; 627  : 
; 628  : 				if (lock_screen (active_screen))

  00804	a1 00 00 00 00	 mov	 eax, DWORD PTR ?active_screen@@3PAUSCREEN@@A ; active_screen
  00809	50		 push	 eax
  0080a	e8 00 00 00 00	 call	 ?lock_screen@@YGHPAUSCREEN@@@Z ; lock_screen
  0080f	85 c0		 test	 eax, eax
  00811	74 42		 je	 SHORT $LN66@draw_ah64a

; 629  : 				{
; 630  : 					blit_rle_graphic (get_graphics_file_data (base_cockpit_graphics_file + GRAPHICS_COCKPITS_APACHE_LVL_AHD_RLE), ix_640_480, iy_640_480);

  00813	a1 00 00 00 00	 mov	 eax, DWORD PTR ?iy_640_480@@3HA ; iy_640_480
  00818	50		 push	 eax
  00819	8b 0d 00 00 00
	00		 mov	 ecx, DWORD PTR ?ix_640_480@@3HA ; ix_640_480
  0081f	51		 push	 ecx
  00820	8b 15 00 00 00
	00		 mov	 edx, DWORD PTR ?base_cockpit_graphics_file@@3W4GRAPHICS_FILE_SPECIFIERS@@A ; base_cockpit_graphics_file
  00826	83 c2 11	 add	 edx, 17			; 00000011H
  00829	6b c2 28	 imul	 eax, edx, 40
  0082c	8b 88 1c 00 00
	00		 mov	 ecx, DWORD PTR ?graphics_files@@3PAUFILE_DATA@@A[eax+28]
  00832	51		 push	 ecx
  00833	e8 00 00 00 00	 call	 ?blit_rle_graphic@@YGXPBEHH@Z ; blit_rle_graphic

; 631  : 
; 632  : 					draw_ah64a_indicator_lamps (panel);

  00838	8b 45 08	 mov	 eax, DWORD PTR _panel$[ebp]
  0083b	50		 push	 eax
  0083c	e8 00 00 00 00	 call	 ?draw_ah64a_indicator_lamps@@YGXW4COCKPIT_PANELS@@@Z ; draw_ah64a_indicator_lamps

; 633  : 
; 634  : 					draw_ah64a_fire_detector_lamps (panel);

  00841	8b 45 08	 mov	 eax, DWORD PTR _panel$[ebp]
  00844	50		 push	 eax
  00845	e8 00 00 00 00	 call	 ?draw_ah64a_fire_detector_lamps@@YGXW4COCKPIT_PANELS@@@Z ; draw_ah64a_fire_detector_lamps

; 635  : 
; 636  : 					unlock_screen (active_screen);

  0084a	a1 00 00 00 00	 mov	 eax, DWORD PTR ?active_screen@@3PAUSCREEN@@A ; active_screen
  0084f	50		 push	 eax
  00850	e8 00 00 00 00	 call	 ?unlock_screen@@YGHPAUSCREEN@@@Z ; unlock_screen
$LN66@draw_ah64a:

; 637  : 				}
; 638  : 
; 639  : 				draw_ah64a_upfront_display_on_cockpit (fx_640_480 + 338.0, fy_640_480 + 428.0);

  00855	f3 0f 5a 05 00
	00 00 00	 cvtss2sd xmm0, DWORD PTR ?fy_640_480@@3MA
  0085d	f2 0f 58 05 00
	00 00 00	 addsd	 xmm0, QWORD PTR __real@407ac00000000000
  00865	f2 0f 5a c0	 cvtsd2ss xmm0, xmm0
  00869	51		 push	 ecx
  0086a	f3 0f 11 04 24	 movss	 DWORD PTR [esp], xmm0
  0086f	f3 0f 5a 05 00
	00 00 00	 cvtss2sd xmm0, DWORD PTR ?fx_640_480@@3MA
  00877	f2 0f 58 05 00
	00 00 00	 addsd	 xmm0, QWORD PTR __real@4075200000000000
  0087f	f2 0f 5a c0	 cvtsd2ss xmm0, xmm0
  00883	51		 push	 ecx
  00884	f3 0f 11 04 24	 movss	 DWORD PTR [esp], xmm0
  00889	e8 00 00 00 00	 call	 ?draw_ah64a_upfront_display_on_cockpit@@YGXMM@Z ; draw_ah64a_upfront_display_on_cockpit
$LN65@draw_ah64a:

; 640  : 			}
; 641  : 
; 642  : 			draw_ah64a_hud ();

  0088e	e8 00 00 00 00	 call	 ?draw_ah64a_hud@@YGXXZ	; draw_ah64a_hud

; 643  : 
; 644  : 			break;

  00893	e9 31 08 00 00	 jmp	 $LN4@draw_ah64a
$LN67@draw_ah64a:

; 645  : 		}
; 646  : 		////////////////////////////////////////
; 647  : 		case COCKPIT_PANEL_LEVEL_RIGHT30:
; 648  : 		////////////////////////////////////////
; 649  : 		{
; 650  : 			if (get_global_draw_cockpit_graphics ())

  00898	83 3d b8 01 00
	00 00		 cmp	 DWORD PTR ?global_options@@3UGLOBAL_OPTIONS_DATA@@A+440, 0
  0089f	74 6e		 je	 SHORT $LN68@draw_ah64a

; 651  : 			{
; 652  : 				draw_ah64a_external_virtual_cockpit

  008a1	a1 00 00 00 00	 mov	 eax, DWORD PTR ?base_cockpit_graphics_file@@3W4GRAPHICS_FILE_SPECIFIERS@@A ; base_cockpit_graphics_file
  008a6	83 c0 27	 add	 eax, 39			; 00000027H
  008a9	6b c8 28	 imul	 ecx, eax, 40
  008ac	8b 91 1c 00 00
	00		 mov	 edx, DWORD PTR ?graphics_files@@3PAUFILE_DATA@@A[ecx+28]
  008b2	52		 push	 edx
  008b3	68 00 b0 01 00	 push	 110592			; 0001b000H
  008b8	e8 00 00 00 00	 call	 ?draw_ah64a_external_virtual_cockpit@@YGXIPAE@Z ; draw_ah64a_external_virtual_cockpit

; 653  : 				(
; 654  : 					VIRTUAL_COCKPIT_RENDERED_WIPER |
; 655  : 					VIRTUAL_COCKPIT_MOVING_WIPER |
; 656  : 					VIRTUAL_COCKPIT_RAIN_EFFECT |
; 657  : 					VIRTUAL_COCKPIT_MAIN_ROTOR,
; 658  : 					get_graphics_file_data (base_cockpit_graphics_file + GRAPHICS_COCKPITS_APACHE_WIPER_LVL_R30_RLE)
; 659  : 				);
; 660  : 
; 661  : 				if (lock_screen (active_screen))

  008bd	a1 00 00 00 00	 mov	 eax, DWORD PTR ?active_screen@@3PAUSCREEN@@A ; active_screen
  008c2	50		 push	 eax
  008c3	e8 00 00 00 00	 call	 ?lock_screen@@YGHPAUSCREEN@@@Z ; lock_screen
  008c8	85 c0		 test	 eax, eax
  008ca	74 39		 je	 SHORT $LN69@draw_ah64a

; 662  : 				{
; 663  : 					blit_rle_graphic (get_graphics_file_data (base_cockpit_graphics_file + GRAPHICS_COCKPITS_APACHE_LVL_R30_RLE), ix_640_480, iy_640_480);

  008cc	a1 00 00 00 00	 mov	 eax, DWORD PTR ?iy_640_480@@3HA ; iy_640_480
  008d1	50		 push	 eax
  008d2	8b 0d 00 00 00
	00		 mov	 ecx, DWORD PTR ?ix_640_480@@3HA ; ix_640_480
  008d8	51		 push	 ecx
  008d9	8b 15 00 00 00
	00		 mov	 edx, DWORD PTR ?base_cockpit_graphics_file@@3W4GRAPHICS_FILE_SPECIFIERS@@A ; base_cockpit_graphics_file
  008df	83 c2 12	 add	 edx, 18			; 00000012H
  008e2	6b c2 28	 imul	 eax, edx, 40
  008e5	8b 88 1c 00 00
	00		 mov	 ecx, DWORD PTR ?graphics_files@@3PAUFILE_DATA@@A[eax+28]
  008eb	51		 push	 ecx
  008ec	e8 00 00 00 00	 call	 ?blit_rle_graphic@@YGXPBEHH@Z ; blit_rle_graphic

; 664  : 
; 665  : 					draw_ah64a_indicator_lamps (panel);

  008f1	8b 45 08	 mov	 eax, DWORD PTR _panel$[ebp]
  008f4	50		 push	 eax
  008f5	e8 00 00 00 00	 call	 ?draw_ah64a_indicator_lamps@@YGXW4COCKPIT_PANELS@@@Z ; draw_ah64a_indicator_lamps

; 666  : 
; 667  : 					unlock_screen (active_screen);

  008fa	a1 00 00 00 00	 mov	 eax, DWORD PTR ?active_screen@@3PAUSCREEN@@A ; active_screen
  008ff	50		 push	 eax
  00900	e8 00 00 00 00	 call	 ?unlock_screen@@YGHPAUSCREEN@@@Z ; unlock_screen
$LN69@draw_ah64a:

; 668  : 				}
; 669  : 
; 670  : 				draw_ah64a_internal_virtual_cockpit

  00905	68 00 00 08 00	 push	 524288			; 00080000H
  0090a	e8 00 00 00 00	 call	 ?draw_ah64a_internal_virtual_cockpit@@YGXI@Z ; draw_ah64a_internal_virtual_cockpit
$LN68@draw_ah64a:

; 671  : 				(
; 672  : 					VIRTUAL_COCKPIT_UPFRONT_DISPLAY
; 673  : 				);
; 674  : 			}
; 675  : 
; 676  : 			draw_ah64a_hud ();

  0090f	e8 00 00 00 00	 call	 ?draw_ah64a_hud@@YGXXZ	; draw_ah64a_hud

; 677  : 
; 678  : 			break;

  00914	e9 b0 07 00 00	 jmp	 $LN4@draw_ah64a
$LN70@draw_ah64a:

; 679  : 		}
; 680  : 		////////////////////////////////////////
; 681  : 		case COCKPIT_PANEL_LEVEL_RIGHT60:
; 682  : 		////////////////////////////////////////
; 683  : 		{
; 684  : 			if (get_global_draw_cockpit_graphics ())

  00919	83 3d b8 01 00
	00 00		 cmp	 DWORD PTR ?global_options@@3UGLOBAL_OPTIONS_DATA@@A+440, 0
  00920	74 4b		 je	 SHORT $LN72@draw_ah64a

; 685  : 			{
; 686  : 				draw_ah64a_external_virtual_cockpit

  00922	6a 00		 push	 0
  00924	68 00 10 01 00	 push	 69632			; 00011000H
  00929	e8 00 00 00 00	 call	 ?draw_ah64a_external_virtual_cockpit@@YGXIPAE@Z ; draw_ah64a_external_virtual_cockpit

; 687  : 				(
; 688  : 					VIRTUAL_COCKPIT_RAIN_EFFECT |
; 689  : 					VIRTUAL_COCKPIT_MAIN_ROTOR,
; 690  : 					NULL
; 691  : 				);
; 692  : 
; 693  : 				if (lock_screen (active_screen))

  0092e	a1 00 00 00 00	 mov	 eax, DWORD PTR ?active_screen@@3PAUSCREEN@@A ; active_screen
  00933	50		 push	 eax
  00934	e8 00 00 00 00	 call	 ?lock_screen@@YGHPAUSCREEN@@@Z ; lock_screen
  00939	85 c0		 test	 eax, eax
  0093b	74 30		 je	 SHORT $LN72@draw_ah64a

; 694  : 				{
; 695  : 					blit_rle_graphic (get_graphics_file_data (base_cockpit_graphics_file + GRAPHICS_COCKPITS_APACHE_LVL_R60_RLE), ix_640_480, iy_640_480);

  0093d	a1 00 00 00 00	 mov	 eax, DWORD PTR ?iy_640_480@@3HA ; iy_640_480
  00942	50		 push	 eax
  00943	8b 0d 00 00 00
	00		 mov	 ecx, DWORD PTR ?ix_640_480@@3HA ; ix_640_480
  00949	51		 push	 ecx
  0094a	8b 15 00 00 00
	00		 mov	 edx, DWORD PTR ?base_cockpit_graphics_file@@3W4GRAPHICS_FILE_SPECIFIERS@@A ; base_cockpit_graphics_file
  00950	83 c2 13	 add	 edx, 19			; 00000013H
  00953	6b c2 28	 imul	 eax, edx, 40
  00956	8b 88 1c 00 00
	00		 mov	 ecx, DWORD PTR ?graphics_files@@3PAUFILE_DATA@@A[eax+28]
  0095c	51		 push	 ecx
  0095d	e8 00 00 00 00	 call	 ?blit_rle_graphic@@YGXPBEHH@Z ; blit_rle_graphic

; 696  : 
; 697  : 					unlock_screen (active_screen);

  00962	a1 00 00 00 00	 mov	 eax, DWORD PTR ?active_screen@@3PAUSCREEN@@A ; active_screen
  00967	50		 push	 eax
  00968	e8 00 00 00 00	 call	 ?unlock_screen@@YGHPAUSCREEN@@@Z ; unlock_screen
$LN72@draw_ah64a:

; 698  : 				}
; 699  : 			}
; 700  : 
; 701  : 			draw_ah64a_hud ();

  0096d	e8 00 00 00 00	 call	 ?draw_ah64a_hud@@YGXXZ	; draw_ah64a_hud

; 702  : 
; 703  : 			break;

  00972	e9 52 07 00 00	 jmp	 $LN4@draw_ah64a
$LN73@draw_ah64a:

; 704  : 		}
; 705  : 		////////////////////////////////////////
; 706  : 		case COCKPIT_PANEL_LEVEL_RIGHT90:
; 707  : 		////////////////////////////////////////
; 708  : 		{
; 709  : 			if (get_global_draw_cockpit_graphics ())

  00977	83 3d b8 01 00
	00 00		 cmp	 DWORD PTR ?global_options@@3UGLOBAL_OPTIONS_DATA@@A+440, 0
  0097e	74 4b		 je	 SHORT $LN75@draw_ah64a

; 710  : 			{
; 711  : 				draw_ah64a_external_virtual_cockpit

  00980	6a 00		 push	 0
  00982	68 00 10 01 00	 push	 69632			; 00011000H
  00987	e8 00 00 00 00	 call	 ?draw_ah64a_external_virtual_cockpit@@YGXIPAE@Z ; draw_ah64a_external_virtual_cockpit

; 712  : 				(
; 713  : 					VIRTUAL_COCKPIT_RAIN_EFFECT |
; 714  : 					VIRTUAL_COCKPIT_MAIN_ROTOR,
; 715  : 					NULL
; 716  : 				);
; 717  : 
; 718  : 				if (lock_screen (active_screen))

  0098c	a1 00 00 00 00	 mov	 eax, DWORD PTR ?active_screen@@3PAUSCREEN@@A ; active_screen
  00991	50		 push	 eax
  00992	e8 00 00 00 00	 call	 ?lock_screen@@YGHPAUSCREEN@@@Z ; lock_screen
  00997	85 c0		 test	 eax, eax
  00999	74 30		 je	 SHORT $LN75@draw_ah64a

; 719  : 				{
; 720  : 					blit_rle_graphic (get_graphics_file_data (base_cockpit_graphics_file + GRAPHICS_COCKPITS_APACHE_LVL_R90_RLE), ix_640_480, iy_640_480);

  0099b	a1 00 00 00 00	 mov	 eax, DWORD PTR ?iy_640_480@@3HA ; iy_640_480
  009a0	50		 push	 eax
  009a1	8b 0d 00 00 00
	00		 mov	 ecx, DWORD PTR ?ix_640_480@@3HA ; ix_640_480
  009a7	51		 push	 ecx
  009a8	8b 15 00 00 00
	00		 mov	 edx, DWORD PTR ?base_cockpit_graphics_file@@3W4GRAPHICS_FILE_SPECIFIERS@@A ; base_cockpit_graphics_file
  009ae	83 c2 14	 add	 edx, 20			; 00000014H
  009b1	6b c2 28	 imul	 eax, edx, 40
  009b4	8b 88 1c 00 00
	00		 mov	 ecx, DWORD PTR ?graphics_files@@3PAUFILE_DATA@@A[eax+28]
  009ba	51		 push	 ecx
  009bb	e8 00 00 00 00	 call	 ?blit_rle_graphic@@YGXPBEHH@Z ; blit_rle_graphic

; 721  : 
; 722  : 					unlock_screen (active_screen);

  009c0	a1 00 00 00 00	 mov	 eax, DWORD PTR ?active_screen@@3PAUSCREEN@@A ; active_screen
  009c5	50		 push	 eax
  009c6	e8 00 00 00 00	 call	 ?unlock_screen@@YGHPAUSCREEN@@@Z ; unlock_screen
$LN75@draw_ah64a:

; 723  : 				}
; 724  : 			}
; 725  : 
; 726  : 			draw_ah64a_hud ();

  009cb	e8 00 00 00 00	 call	 ?draw_ah64a_hud@@YGXXZ	; draw_ah64a_hud

; 727  : 
; 728  : 			break;

  009d0	e9 f4 06 00 00	 jmp	 $LN4@draw_ah64a
$LN76@draw_ah64a:

; 729  : 		}
; 730  : 		////////////////////////////////////////
; 731  : 		case COCKPIT_PANEL_DOWN20_LEFT90:
; 732  : 		////////////////////////////////////////
; 733  : 		{
; 734  : 			if (get_global_draw_cockpit_graphics ())

  009d5	83 3d b8 01 00
	00 00		 cmp	 DWORD PTR ?global_options@@3UGLOBAL_OPTIONS_DATA@@A+440, 0
  009dc	74 4b		 je	 SHORT $LN78@draw_ah64a

; 735  : 			{
; 736  : 				draw_ah64a_external_virtual_cockpit

  009de	6a 00		 push	 0
  009e0	68 00 10 01 00	 push	 69632			; 00011000H
  009e5	e8 00 00 00 00	 call	 ?draw_ah64a_external_virtual_cockpit@@YGXIPAE@Z ; draw_ah64a_external_virtual_cockpit

; 737  : 				(
; 738  : 					VIRTUAL_COCKPIT_RAIN_EFFECT |
; 739  : 					VIRTUAL_COCKPIT_MAIN_ROTOR,
; 740  : 					NULL
; 741  : 				);
; 742  : 
; 743  : 				if (lock_screen (active_screen))

  009ea	a1 00 00 00 00	 mov	 eax, DWORD PTR ?active_screen@@3PAUSCREEN@@A ; active_screen
  009ef	50		 push	 eax
  009f0	e8 00 00 00 00	 call	 ?lock_screen@@YGHPAUSCREEN@@@Z ; lock_screen
  009f5	85 c0		 test	 eax, eax
  009f7	74 30		 je	 SHORT $LN78@draw_ah64a

; 744  : 				{
; 745  : 					blit_rle_graphic (get_graphics_file_data (base_cockpit_graphics_file + GRAPHICS_COCKPITS_APACHE_D20_L90_RLE), ix_640_480, iy_640_480);

  009f9	a1 00 00 00 00	 mov	 eax, DWORD PTR ?iy_640_480@@3HA ; iy_640_480
  009fe	50		 push	 eax
  009ff	8b 0d 00 00 00
	00		 mov	 ecx, DWORD PTR ?ix_640_480@@3HA ; ix_640_480
  00a05	51		 push	 ecx
  00a06	8b 15 00 00 00
	00		 mov	 edx, DWORD PTR ?base_cockpit_graphics_file@@3W4GRAPHICS_FILE_SPECIFIERS@@A ; base_cockpit_graphics_file
  00a0c	83 c2 15	 add	 edx, 21			; 00000015H
  00a0f	6b c2 28	 imul	 eax, edx, 40
  00a12	8b 88 1c 00 00
	00		 mov	 ecx, DWORD PTR ?graphics_files@@3PAUFILE_DATA@@A[eax+28]
  00a18	51		 push	 ecx
  00a19	e8 00 00 00 00	 call	 ?blit_rle_graphic@@YGXPBEHH@Z ; blit_rle_graphic

; 746  : 
; 747  : 					unlock_screen (active_screen);

  00a1e	a1 00 00 00 00	 mov	 eax, DWORD PTR ?active_screen@@3PAUSCREEN@@A ; active_screen
  00a23	50		 push	 eax
  00a24	e8 00 00 00 00	 call	 ?unlock_screen@@YGHPAUSCREEN@@@Z ; unlock_screen
$LN78@draw_ah64a:

; 748  : 				}
; 749  : 			}
; 750  : 
; 751  : 			draw_ah64a_hud ();

  00a29	e8 00 00 00 00	 call	 ?draw_ah64a_hud@@YGXXZ	; draw_ah64a_hud

; 752  : 
; 753  : 			break;

  00a2e	e9 96 06 00 00	 jmp	 $LN4@draw_ah64a
$LN79@draw_ah64a:

; 754  : 		}
; 755  : 		////////////////////////////////////////
; 756  : 		case COCKPIT_PANEL_DOWN20_LEFT60:
; 757  : 		////////////////////////////////////////
; 758  : 		{
; 759  : 			if (get_global_draw_cockpit_graphics ())

  00a33	83 3d b8 01 00
	00 00		 cmp	 DWORD PTR ?global_options@@3UGLOBAL_OPTIONS_DATA@@A+440, 0
  00a3a	74 67		 je	 SHORT $LN80@draw_ah64a

; 760  : 			{
; 761  : 				draw_ah64a_external_virtual_cockpit

  00a3c	6a 00		 push	 0
  00a3e	68 00 10 01 00	 push	 69632			; 00011000H
  00a43	e8 00 00 00 00	 call	 ?draw_ah64a_external_virtual_cockpit@@YGXIPAE@Z ; draw_ah64a_external_virtual_cockpit

; 762  : 				(
; 763  : 					VIRTUAL_COCKPIT_RAIN_EFFECT |
; 764  : 					VIRTUAL_COCKPIT_MAIN_ROTOR,
; 765  : 					NULL
; 766  : 				);
; 767  : 
; 768  : 				if (lock_screen (active_screen))

  00a48	a1 00 00 00 00	 mov	 eax, DWORD PTR ?active_screen@@3PAUSCREEN@@A ; active_screen
  00a4d	50		 push	 eax
  00a4e	e8 00 00 00 00	 call	 ?lock_screen@@YGHPAUSCREEN@@@Z ; lock_screen
  00a53	85 c0		 test	 eax, eax
  00a55	74 42		 je	 SHORT $LN81@draw_ah64a

; 769  : 				{
; 770  : 					blit_rle_graphic (get_graphics_file_data (base_cockpit_graphics_file + GRAPHICS_COCKPITS_APACHE_D20_L60_RLE), ix_640_480, iy_640_480);

  00a57	a1 00 00 00 00	 mov	 eax, DWORD PTR ?iy_640_480@@3HA ; iy_640_480
  00a5c	50		 push	 eax
  00a5d	8b 0d 00 00 00
	00		 mov	 ecx, DWORD PTR ?ix_640_480@@3HA ; ix_640_480
  00a63	51		 push	 ecx
  00a64	8b 15 00 00 00
	00		 mov	 edx, DWORD PTR ?base_cockpit_graphics_file@@3W4GRAPHICS_FILE_SPECIFIERS@@A ; base_cockpit_graphics_file
  00a6a	83 c2 16	 add	 edx, 22			; 00000016H
  00a6d	6b c2 28	 imul	 eax, edx, 40
  00a70	8b 88 1c 00 00
	00		 mov	 ecx, DWORD PTR ?graphics_files@@3PAUFILE_DATA@@A[eax+28]
  00a76	51		 push	 ecx
  00a77	e8 00 00 00 00	 call	 ?blit_rle_graphic@@YGXPBEHH@Z ; blit_rle_graphic

; 771  : 
; 772  : 					draw_ah64a_fixed_cockpit_clock_hands (panel);

  00a7c	8b 45 08	 mov	 eax, DWORD PTR _panel$[ebp]
  00a7f	50		 push	 eax
  00a80	e8 00 00 00 00	 call	 ?draw_ah64a_fixed_cockpit_clock_hands@@YGXW4COCKPIT_PANELS@@@Z ; draw_ah64a_fixed_cockpit_clock_hands

; 773  : 
; 774  : 					draw_ah64a_armament_lamps (panel);

  00a85	8b 45 08	 mov	 eax, DWORD PTR _panel$[ebp]
  00a88	50		 push	 eax
  00a89	e8 00 00 00 00	 call	 ?draw_ah64a_armament_lamps@@YGXW4COCKPIT_PANELS@@@Z ; draw_ah64a_armament_lamps

; 775  : 
; 776  : 					unlock_screen (active_screen);

  00a8e	a1 00 00 00 00	 mov	 eax, DWORD PTR ?active_screen@@3PAUSCREEN@@A ; active_screen
  00a93	50		 push	 eax
  00a94	e8 00 00 00 00	 call	 ?unlock_screen@@YGHPAUSCREEN@@@Z ; unlock_screen
$LN81@draw_ah64a:

; 777  : 				}
; 778  : 
; 779  : 				draw_ah64a_internal_virtual_cockpit

  00a99	68 00 00 02 00	 push	 131072			; 00020000H
  00a9e	e8 00 00 00 00	 call	 ?draw_ah64a_internal_virtual_cockpit@@YGXI@Z ; draw_ah64a_internal_virtual_cockpit
$LN80@draw_ah64a:

; 780  : 				(
; 781  : 					VIRTUAL_COCKPIT_INSTRUMENT_NEEDLES
; 782  : 				);
; 783  : 			}
; 784  : 
; 785  : 			draw_ah64a_hud ();

  00aa3	e8 00 00 00 00	 call	 ?draw_ah64a_hud@@YGXXZ	; draw_ah64a_hud

; 786  : 
; 787  : 			break;

  00aa8	e9 1c 06 00 00	 jmp	 $LN4@draw_ah64a
$LN82@draw_ah64a:

; 788  : 		}
; 789  : 		////////////////////////////////////////
; 790  : 		case COCKPIT_PANEL_DOWN20_LEFT30:
; 791  : 		////////////////////////////////////////
; 792  : 		{
; 793  : 			if (get_global_draw_cockpit_graphics ())

  00aad	83 3d b8 01 00
	00 00		 cmp	 DWORD PTR ?global_options@@3UGLOBAL_OPTIONS_DATA@@A+440, 0
  00ab4	0f 84 d1 00 00
	00		 je	 $LN85@draw_ah64a

; 794  : 			{
; 795  : 				draw_ah64a_external_virtual_cockpit

  00aba	a1 00 00 00 00	 mov	 eax, DWORD PTR ?base_cockpit_graphics_file@@3W4GRAPHICS_FILE_SPECIFIERS@@A ; base_cockpit_graphics_file
  00abf	83 c0 28	 add	 eax, 40			; 00000028H
  00ac2	6b c8 28	 imul	 ecx, eax, 40
  00ac5	8b 91 1c 00 00
	00		 mov	 edx, DWORD PTR ?graphics_files@@3PAUFILE_DATA@@A[ecx+28]
  00acb	52		 push	 edx
  00acc	68 00 b0 01 00	 push	 110592			; 0001b000H
  00ad1	e8 00 00 00 00	 call	 ?draw_ah64a_external_virtual_cockpit@@YGXIPAE@Z ; draw_ah64a_external_virtual_cockpit

; 796  : 				(
; 797  : 					VIRTUAL_COCKPIT_RENDERED_WIPER |
; 798  : 					VIRTUAL_COCKPIT_MOVING_WIPER |
; 799  : 					VIRTUAL_COCKPIT_RAIN_EFFECT |
; 800  : 					VIRTUAL_COCKPIT_MAIN_ROTOR,
; 801  : 					get_graphics_file_data (base_cockpit_graphics_file + GRAPHICS_COCKPITS_APACHE_WIPER_D20_L30_RLE)
; 802  : 				);
; 803  : 
; 804  : 				if (lock_screen (active_screen))

  00ad6	a1 00 00 00 00	 mov	 eax, DWORD PTR ?active_screen@@3PAUSCREEN@@A ; active_screen
  00adb	50		 push	 eax
  00adc	e8 00 00 00 00	 call	 ?lock_screen@@YGHPAUSCREEN@@@Z ; lock_screen
  00ae1	85 c0		 test	 eax, eax
  00ae3	74 5d		 je	 SHORT $LN84@draw_ah64a

; 805  : 				{
; 806  : 					blit_rle_graphic (get_graphics_file_data (base_cockpit_graphics_file + GRAPHICS_COCKPITS_APACHE_D20_L30_RLE), ix_640_480, iy_640_480);

  00ae5	a1 00 00 00 00	 mov	 eax, DWORD PTR ?iy_640_480@@3HA ; iy_640_480
  00aea	50		 push	 eax
  00aeb	8b 0d 00 00 00
	00		 mov	 ecx, DWORD PTR ?ix_640_480@@3HA ; ix_640_480
  00af1	51		 push	 ecx
  00af2	8b 15 00 00 00
	00		 mov	 edx, DWORD PTR ?base_cockpit_graphics_file@@3W4GRAPHICS_FILE_SPECIFIERS@@A ; base_cockpit_graphics_file
  00af8	83 c2 17	 add	 edx, 23			; 00000017H
  00afb	6b c2 28	 imul	 eax, edx, 40
  00afe	8b 88 1c 00 00
	00		 mov	 ecx, DWORD PTR ?graphics_files@@3PAUFILE_DATA@@A[eax+28]
  00b04	51		 push	 ecx
  00b05	e8 00 00 00 00	 call	 ?blit_rle_graphic@@YGXPBEHH@Z ; blit_rle_graphic

; 807  : 
; 808  : 					draw_ah64a_fixed_cockpit_clock_hands (panel);

  00b0a	8b 45 08	 mov	 eax, DWORD PTR _panel$[ebp]
  00b0d	50		 push	 eax
  00b0e	e8 00 00 00 00	 call	 ?draw_ah64a_fixed_cockpit_clock_hands@@YGXW4COCKPIT_PANELS@@@Z ; draw_ah64a_fixed_cockpit_clock_hands

; 809  : 
; 810  : 					draw_ah64a_indicator_lamps (panel);

  00b13	8b 45 08	 mov	 eax, DWORD PTR _panel$[ebp]
  00b16	50		 push	 eax
  00b17	e8 00 00 00 00	 call	 ?draw_ah64a_indicator_lamps@@YGXW4COCKPIT_PANELS@@@Z ; draw_ah64a_indicator_lamps

; 811  : 
; 812  : 					draw_ah64a_fire_detector_lamps (panel);

  00b1c	8b 45 08	 mov	 eax, DWORD PTR _panel$[ebp]
  00b1f	50		 push	 eax
  00b20	e8 00 00 00 00	 call	 ?draw_ah64a_fire_detector_lamps@@YGXW4COCKPIT_PANELS@@@Z ; draw_ah64a_fire_detector_lamps

; 813  : 
; 814  : 					draw_ah64a_armament_lamps (panel);

  00b25	8b 45 08	 mov	 eax, DWORD PTR _panel$[ebp]
  00b28	50		 push	 eax
  00b29	e8 00 00 00 00	 call	 ?draw_ah64a_armament_lamps@@YGXW4COCKPIT_PANELS@@@Z ; draw_ah64a_armament_lamps

; 815  : 
; 816  : 					draw_ah64a_mfd_lamps (panel);

  00b2e	8b 45 08	 mov	 eax, DWORD PTR _panel$[ebp]
  00b31	50		 push	 eax
  00b32	e8 00 00 00 00	 call	 ?draw_ah64a_mfd_lamps@@YGXW4COCKPIT_PANELS@@@Z ; draw_ah64a_mfd_lamps

; 817  : 
; 818  : 					unlock_screen (active_screen);

  00b37	a1 00 00 00 00	 mov	 eax, DWORD PTR ?active_screen@@3PAUSCREEN@@A ; active_screen
  00b3c	50		 push	 eax
  00b3d	e8 00 00 00 00	 call	 ?unlock_screen@@YGHPAUSCREEN@@@Z ; unlock_screen
$LN84@draw_ah64a:

; 819  : 				}
; 820  : 
; 821  : 				draw_ah64a_internal_virtual_cockpit

  00b42	68 60 00 0a 00	 push	 655456			; 000a0060H
  00b47	e8 00 00 00 00	 call	 ?draw_ah64a_internal_virtual_cockpit@@YGXI@Z ; draw_ah64a_internal_virtual_cockpit

; 822  : 				(
; 823  : 					VIRTUAL_COCKPIT_LHS_MFD_DISPLAY |
; 824  : 					VIRTUAL_COCKPIT_RHS_MFD_DISPLAY |
; 825  : 					VIRTUAL_COCKPIT_UPFRONT_DISPLAY |
; 826  : 					VIRTUAL_COCKPIT_INSTRUMENT_NEEDLES
; 827  : 				);
; 828  : 
; 829  : 				if (lock_screen (active_screen))

  00b4c	a1 00 00 00 00	 mov	 eax, DWORD PTR ?active_screen@@3PAUSCREEN@@A ; active_screen
  00b51	50		 push	 eax
  00b52	e8 00 00 00 00	 call	 ?lock_screen@@YGHPAUSCREEN@@@Z ; lock_screen
  00b57	85 c0		 test	 eax, eax
  00b59	74 30		 je	 SHORT $LN85@draw_ah64a

; 830  : 				{
; 831  : 					blit_rle_graphic (get_graphics_file_data (base_cockpit_graphics_file + GRAPHICS_COCKPITS_APACHE_MFD_MASK_D20_L30_RLE), ix_640_480, iy_640_480);

  00b5b	a1 00 00 00 00	 mov	 eax, DWORD PTR ?iy_640_480@@3HA ; iy_640_480
  00b60	50		 push	 eax
  00b61	8b 0d 00 00 00
	00		 mov	 ecx, DWORD PTR ?ix_640_480@@3HA ; ix_640_480
  00b67	51		 push	 ecx
  00b68	8b 15 00 00 00
	00		 mov	 edx, DWORD PTR ?base_cockpit_graphics_file@@3W4GRAPHICS_FILE_SPECIFIERS@@A ; base_cockpit_graphics_file
  00b6e	83 c2 1e	 add	 edx, 30			; 0000001eH
  00b71	6b c2 28	 imul	 eax, edx, 40
  00b74	8b 88 1c 00 00
	00		 mov	 ecx, DWORD PTR ?graphics_files@@3PAUFILE_DATA@@A[eax+28]
  00b7a	51		 push	 ecx
  00b7b	e8 00 00 00 00	 call	 ?blit_rle_graphic@@YGXPBEHH@Z ; blit_rle_graphic

; 832  : 
; 833  : 					unlock_screen (active_screen);

  00b80	a1 00 00 00 00	 mov	 eax, DWORD PTR ?active_screen@@3PAUSCREEN@@A ; active_screen
  00b85	50		 push	 eax
  00b86	e8 00 00 00 00	 call	 ?unlock_screen@@YGHPAUSCREEN@@@Z ; unlock_screen
$LN85@draw_ah64a:

; 834  : 				}
; 835  : 			}
; 836  : 
; 837  : 			draw_ah64a_hud ();

  00b8b	e8 00 00 00 00	 call	 ?draw_ah64a_hud@@YGXXZ	; draw_ah64a_hud

; 838  : 
; 839  : 			break;

  00b90	e9 34 05 00 00	 jmp	 $LN4@draw_ah64a
$LN86@draw_ah64a:

; 840  : 		}
; 841  : 		////////////////////////////////////////
; 842  : 		case COCKPIT_PANEL_DOWN20_AHEAD:
; 843  : 		////////////////////////////////////////
; 844  : 		{
; 845  : 			if (get_global_draw_cockpit_graphics ())

  00b95	83 3d b8 01 00
	00 00		 cmp	 DWORD PTR ?global_options@@3UGLOBAL_OPTIONS_DATA@@A+440, 0
  00b9c	0f 84 a3 01 00
	00		 je	 $LN89@draw_ah64a

; 846  : 			{
; 847  : 				draw_ah64a_external_virtual_cockpit

  00ba2	a1 00 00 00 00	 mov	 eax, DWORD PTR ?base_cockpit_graphics_file@@3W4GRAPHICS_FILE_SPECIFIERS@@A ; base_cockpit_graphics_file
  00ba7	83 c0 29	 add	 eax, 41			; 00000029H
  00baa	6b c8 28	 imul	 ecx, eax, 40
  00bad	8b 91 1c 00 00
	00		 mov	 edx, DWORD PTR ?graphics_files@@3PAUFILE_DATA@@A[ecx+28]
  00bb3	52		 push	 edx
  00bb4	68 80 b4 01 00	 push	 111744			; 0001b480H
  00bb9	e8 00 00 00 00	 call	 ?draw_ah64a_external_virtual_cockpit@@YGXIPAE@Z ; draw_ah64a_external_virtual_cockpit

; 848  : 				(
; 849  : 					VIRTUAL_COCKPIT_RENDERED_WIPER |
; 850  : 					VIRTUAL_COCKPIT_MOVING_WIPER |
; 851  : 					VIRTUAL_COCKPIT_RAIN_EFFECT |
; 852  : 					VIRTUAL_COCKPIT_MAIN_ROTOR |
; 853  : 					VIRTUAL_COCKPIT_ADI |
; 854  : 					VIRTUAL_COCKPIT_COMPASS,
; 855  : 					get_graphics_file_data (base_cockpit_graphics_file + GRAPHICS_COCKPITS_APACHE_WIPER_D20_AHD_RLE)
; 856  : 				);
; 857  : 
; 858  : 				if (lock_screen (active_screen))

  00bbe	a1 00 00 00 00	 mov	 eax, DWORD PTR ?active_screen@@3PAUSCREEN@@A ; active_screen
  00bc3	50		 push	 eax
  00bc4	e8 00 00 00 00	 call	 ?lock_screen@@YGHPAUSCREEN@@@Z ; lock_screen
  00bc9	85 c0		 test	 eax, eax
  00bcb	74 78		 je	 SHORT $LN88@draw_ah64a

; 859  : 				{
; 860  : 					blit_rle_graphic (get_graphics_file_data (base_cockpit_graphics_file + GRAPHICS_COCKPITS_APACHE_D20_AHD_RLE), ix_640_480, iy_640_480);

  00bcd	a1 00 00 00 00	 mov	 eax, DWORD PTR ?iy_640_480@@3HA ; iy_640_480
  00bd2	50		 push	 eax
  00bd3	8b 0d 00 00 00
	00		 mov	 ecx, DWORD PTR ?ix_640_480@@3HA ; ix_640_480
  00bd9	51		 push	 ecx
  00bda	8b 15 00 00 00
	00		 mov	 edx, DWORD PTR ?base_cockpit_graphics_file@@3W4GRAPHICS_FILE_SPECIFIERS@@A ; base_cockpit_graphics_file
  00be0	83 c2 18	 add	 edx, 24			; 00000018H
  00be3	6b c2 28	 imul	 eax, edx, 40
  00be6	8b 88 1c 00 00
	00		 mov	 ecx, DWORD PTR ?graphics_files@@3PAUFILE_DATA@@A[eax+28]
  00bec	51		 push	 ecx
  00bed	e8 00 00 00 00	 call	 ?blit_rle_graphic@@YGXPBEHH@Z ; blit_rle_graphic

; 861  : 
; 862  : 					draw_ah64a_fixed_cockpit_airspeed_indicator_needle (panel);

  00bf2	8b 45 08	 mov	 eax, DWORD PTR _panel$[ebp]
  00bf5	50		 push	 eax
  00bf6	e8 00 00 00 00	 call	 ?draw_ah64a_fixed_cockpit_airspeed_indicator_needle@@YGXW4COCKPIT_PANELS@@@Z ; draw_ah64a_fixed_cockpit_airspeed_indicator_needle

; 863  : 
; 864  : 					draw_ah64a_fixed_cockpit_barometric_altimeter_digits (panel);

  00bfb	8b 45 08	 mov	 eax, DWORD PTR _panel$[ebp]
  00bfe	50		 push	 eax
  00bff	e8 00 00 00 00	 call	 ?draw_ah64a_fixed_cockpit_barometric_altimeter_digits@@YGXW4COCKPIT_PANELS@@@Z ; draw_ah64a_fixed_cockpit_barometric_altimeter_digits

; 865  : 
; 866  : 					draw_ah64a_fixed_cockpit_barometric_altimeter_needle (panel);

  00c04	8b 45 08	 mov	 eax, DWORD PTR _panel$[ebp]
  00c07	50		 push	 eax
  00c08	e8 00 00 00 00	 call	 ?draw_ah64a_fixed_cockpit_barometric_altimeter_needle@@YGXW4COCKPIT_PANELS@@@Z ; draw_ah64a_fixed_cockpit_barometric_altimeter_needle

; 867  : 
; 868  : 					draw_ah64a_fixed_cockpit_clock_hands (panel);

  00c0d	8b 45 08	 mov	 eax, DWORD PTR _panel$[ebp]
  00c10	50		 push	 eax
  00c11	e8 00 00 00 00	 call	 ?draw_ah64a_fixed_cockpit_clock_hands@@YGXW4COCKPIT_PANELS@@@Z ; draw_ah64a_fixed_cockpit_clock_hands

; 869  : 
; 870  : 					draw_ah64a_indicator_lamps (panel);

  00c16	8b 45 08	 mov	 eax, DWORD PTR _panel$[ebp]
  00c19	50		 push	 eax
  00c1a	e8 00 00 00 00	 call	 ?draw_ah64a_indicator_lamps@@YGXW4COCKPIT_PANELS@@@Z ; draw_ah64a_indicator_lamps

; 871  : 
; 872  : 					draw_ah64a_fire_detector_lamps (panel);

  00c1f	8b 45 08	 mov	 eax, DWORD PTR _panel$[ebp]
  00c22	50		 push	 eax
  00c23	e8 00 00 00 00	 call	 ?draw_ah64a_fire_detector_lamps@@YGXW4COCKPIT_PANELS@@@Z ; draw_ah64a_fire_detector_lamps

; 873  : 
; 874  : 					draw_ah64a_armament_lamps (panel);

  00c28	8b 45 08	 mov	 eax, DWORD PTR _panel$[ebp]
  00c2b	50		 push	 eax
  00c2c	e8 00 00 00 00	 call	 ?draw_ah64a_armament_lamps@@YGXW4COCKPIT_PANELS@@@Z ; draw_ah64a_armament_lamps

; 875  : 
; 876  : 					draw_ah64a_mfd_lamps (panel);

  00c31	8b 45 08	 mov	 eax, DWORD PTR _panel$[ebp]
  00c34	50		 push	 eax
  00c35	e8 00 00 00 00	 call	 ?draw_ah64a_mfd_lamps@@YGXW4COCKPIT_PANELS@@@Z ; draw_ah64a_mfd_lamps

; 877  : 
; 878  : 					unlock_screen (active_screen);

  00c3a	a1 00 00 00 00	 mov	 eax, DWORD PTR ?active_screen@@3PAUSCREEN@@A ; active_screen
  00c3f	50		 push	 eax
  00c40	e8 00 00 00 00	 call	 ?unlock_screen@@YGHPAUSCREEN@@@Z ; unlock_screen
$LN88@draw_ah64a:

; 879  : 				}
; 880  : 
; 881  : 				draw_ah64a_internal_virtual_cockpit

  00c45	68 00 00 02 00	 push	 131072			; 00020000H
  00c4a	e8 00 00 00 00	 call	 ?draw_ah64a_internal_virtual_cockpit@@YGXI@Z ; draw_ah64a_internal_virtual_cockpit

; 882  : 				(
; 883  : 					VIRTUAL_COCKPIT_INSTRUMENT_NEEDLES
; 884  : 				);
; 885  : 
; 886  : 				draw_ah64a_upfront_display_on_cockpit (fx_640_480 + 334.0, fy_640_480 + 226.0);

  00c4f	f3 0f 5a 05 00
	00 00 00	 cvtss2sd xmm0, DWORD PTR ?fy_640_480@@3MA
  00c57	f2 0f 58 05 00
	00 00 00	 addsd	 xmm0, QWORD PTR __real@406c400000000000
  00c5f	f2 0f 5a c0	 cvtsd2ss xmm0, xmm0
  00c63	51		 push	 ecx
  00c64	f3 0f 11 04 24	 movss	 DWORD PTR [esp], xmm0
  00c69	f3 0f 5a 05 00
	00 00 00	 cvtss2sd xmm0, DWORD PTR ?fx_640_480@@3MA
  00c71	f2 0f 58 05 00
	00 00 00	 addsd	 xmm0, QWORD PTR __real@4074e00000000000
  00c79	f2 0f 5a c0	 cvtsd2ss xmm0, xmm0
  00c7d	51		 push	 ecx
  00c7e	f3 0f 11 04 24	 movss	 DWORD PTR [esp], xmm0
  00c83	e8 00 00 00 00	 call	 ?draw_ah64a_upfront_display_on_cockpit@@YGXMM@Z ; draw_ah64a_upfront_display_on_cockpit

; 887  : 
; 888  : 				draw_ah64a_mfd_on_cockpit (fx_640_480 + 226.0, fy_640_480 + 367.0, FALSE, FALSE, MFD_LOCATION_LHS);

  00c88	6a 00		 push	 0
  00c8a	6a 00		 push	 0
  00c8c	6a 00		 push	 0
  00c8e	f3 0f 5a 05 00
	00 00 00	 cvtss2sd xmm0, DWORD PTR ?fy_640_480@@3MA
  00c96	f2 0f 58 05 00
	00 00 00	 addsd	 xmm0, QWORD PTR __real@4076f00000000000
  00c9e	f2 0f 5a c0	 cvtsd2ss xmm0, xmm0
  00ca2	51		 push	 ecx
  00ca3	f3 0f 11 04 24	 movss	 DWORD PTR [esp], xmm0
  00ca8	f3 0f 5a 05 00
	00 00 00	 cvtss2sd xmm0, DWORD PTR ?fx_640_480@@3MA
  00cb0	f2 0f 58 05 00
	00 00 00	 addsd	 xmm0, QWORD PTR __real@406c400000000000
  00cb8	f2 0f 5a c0	 cvtsd2ss xmm0, xmm0
  00cbc	51		 push	 ecx
  00cbd	f3 0f 11 04 24	 movss	 DWORD PTR [esp], xmm0
  00cc2	e8 00 00 00 00	 call	 ?draw_ah64a_mfd_on_cockpit@@YGXMMHHW4MFD_LOCATIONS@@@Z ; draw_ah64a_mfd_on_cockpit

; 889  : 
; 890  : 				draw_ah64a_mfd_on_cockpit (fx_640_480 + 414.0, fy_640_480 + 367.0, FALSE, FALSE, MFD_LOCATION_RHS);

  00cc7	6a 01		 push	 1
  00cc9	6a 00		 push	 0
  00ccb	6a 00		 push	 0
  00ccd	f3 0f 5a 05 00
	00 00 00	 cvtss2sd xmm0, DWORD PTR ?fy_640_480@@3MA
  00cd5	f2 0f 58 05 00
	00 00 00	 addsd	 xmm0, QWORD PTR __real@4076f00000000000
  00cdd	f2 0f 5a c0	 cvtsd2ss xmm0, xmm0
  00ce1	51		 push	 ecx
  00ce2	f3 0f 11 04 24	 movss	 DWORD PTR [esp], xmm0
  00ce7	f3 0f 5a 05 00
	00 00 00	 cvtss2sd xmm0, DWORD PTR ?fx_640_480@@3MA
  00cef	f2 0f 58 05 00
	00 00 00	 addsd	 xmm0, QWORD PTR __real@4079e00000000000
  00cf7	f2 0f 5a c0	 cvtsd2ss xmm0, xmm0
  00cfb	51		 push	 ecx
  00cfc	f3 0f 11 04 24	 movss	 DWORD PTR [esp], xmm0
  00d01	e8 00 00 00 00	 call	 ?draw_ah64a_mfd_on_cockpit@@YGXMMHHW4MFD_LOCATIONS@@@Z ; draw_ah64a_mfd_on_cockpit

; 891  : 
; 892  : 				if (lock_screen (active_screen))

  00d06	a1 00 00 00 00	 mov	 eax, DWORD PTR ?active_screen@@3PAUSCREEN@@A ; active_screen
  00d0b	50		 push	 eax
  00d0c	e8 00 00 00 00	 call	 ?lock_screen@@YGHPAUSCREEN@@@Z ; lock_screen
  00d11	85 c0		 test	 eax, eax
  00d13	74 30		 je	 SHORT $LN89@draw_ah64a

; 893  : 				{
; 894  : 					blit_rle_graphic (get_graphics_file_data (base_cockpit_graphics_file + GRAPHICS_COCKPITS_APACHE_MFD_MASK_D20_AHD_RLE), ix_640_480, iy_640_480);

  00d15	a1 00 00 00 00	 mov	 eax, DWORD PTR ?iy_640_480@@3HA ; iy_640_480
  00d1a	50		 push	 eax
  00d1b	8b 0d 00 00 00
	00		 mov	 ecx, DWORD PTR ?ix_640_480@@3HA ; ix_640_480
  00d21	51		 push	 ecx
  00d22	8b 15 00 00 00
	00		 mov	 edx, DWORD PTR ?base_cockpit_graphics_file@@3W4GRAPHICS_FILE_SPECIFIERS@@A ; base_cockpit_graphics_file
  00d28	83 c2 1f	 add	 edx, 31			; 0000001fH
  00d2b	6b c2 28	 imul	 eax, edx, 40
  00d2e	8b 88 1c 00 00
	00		 mov	 ecx, DWORD PTR ?graphics_files@@3PAUFILE_DATA@@A[eax+28]
  00d34	51		 push	 ecx
  00d35	e8 00 00 00 00	 call	 ?blit_rle_graphic@@YGXPBEHH@Z ; blit_rle_graphic

; 895  : 
; 896  : 					unlock_screen (active_screen);

  00d3a	a1 00 00 00 00	 mov	 eax, DWORD PTR ?active_screen@@3PAUSCREEN@@A ; active_screen
  00d3f	50		 push	 eax
  00d40	e8 00 00 00 00	 call	 ?unlock_screen@@YGHPAUSCREEN@@@Z ; unlock_screen
$LN89@draw_ah64a:

; 897  : 				}
; 898  : 			}
; 899  : 
; 900  : 			draw_ah64a_hud ();

  00d45	e8 00 00 00 00	 call	 ?draw_ah64a_hud@@YGXXZ	; draw_ah64a_hud

; 901  : 
; 902  : 			break;

  00d4a	e9 7a 03 00 00	 jmp	 $LN4@draw_ah64a
$LN90@draw_ah64a:

; 903  : 		}
; 904  : 		////////////////////////////////////////
; 905  : 		case COCKPIT_PANEL_DOWN20_RIGHT30:
; 906  : 		////////////////////////////////////////
; 907  : 		{
; 908  : 			if (get_global_draw_cockpit_graphics ())

  00d4f	83 3d b8 01 00
	00 00		 cmp	 DWORD PTR ?global_options@@3UGLOBAL_OPTIONS_DATA@@A+440, 0
  00d56	0f 84 c8 00 00
	00		 je	 $LN93@draw_ah64a

; 909  : 			{
; 910  : 				draw_ah64a_external_virtual_cockpit

  00d5c	a1 00 00 00 00	 mov	 eax, DWORD PTR ?base_cockpit_graphics_file@@3W4GRAPHICS_FILE_SPECIFIERS@@A ; base_cockpit_graphics_file
  00d61	83 c0 2a	 add	 eax, 42			; 0000002aH
  00d64	6b c8 28	 imul	 ecx, eax, 40
  00d67	8b 91 1c 00 00
	00		 mov	 edx, DWORD PTR ?graphics_files@@3PAUFILE_DATA@@A[ecx+28]
  00d6d	52		 push	 edx
  00d6e	68 80 b4 01 00	 push	 111744			; 0001b480H
  00d73	e8 00 00 00 00	 call	 ?draw_ah64a_external_virtual_cockpit@@YGXIPAE@Z ; draw_ah64a_external_virtual_cockpit

; 911  : 				(
; 912  : 					VIRTUAL_COCKPIT_RENDERED_WIPER |
; 913  : 					VIRTUAL_COCKPIT_MOVING_WIPER |
; 914  : 					VIRTUAL_COCKPIT_RAIN_EFFECT |
; 915  : 					VIRTUAL_COCKPIT_MAIN_ROTOR |
; 916  : 					VIRTUAL_COCKPIT_ADI |
; 917  : 					VIRTUAL_COCKPIT_COMPASS,
; 918  : 					get_graphics_file_data (base_cockpit_graphics_file + GRAPHICS_COCKPITS_APACHE_WIPER_D20_R30_RLE)
; 919  : 				);
; 920  : 
; 921  : 				if (lock_screen (active_screen))

  00d78	a1 00 00 00 00	 mov	 eax, DWORD PTR ?active_screen@@3PAUSCREEN@@A ; active_screen
  00d7d	50		 push	 eax
  00d7e	e8 00 00 00 00	 call	 ?lock_screen@@YGHPAUSCREEN@@@Z ; lock_screen
  00d83	85 c0		 test	 eax, eax
  00d85	74 54		 je	 SHORT $LN92@draw_ah64a

; 922  : 				{
; 923  : 					blit_rle_graphic (get_graphics_file_data (base_cockpit_graphics_file + GRAPHICS_COCKPITS_APACHE_D20_R30_RLE), ix_640_480, iy_640_480);

  00d87	a1 00 00 00 00	 mov	 eax, DWORD PTR ?iy_640_480@@3HA ; iy_640_480
  00d8c	50		 push	 eax
  00d8d	8b 0d 00 00 00
	00		 mov	 ecx, DWORD PTR ?ix_640_480@@3HA ; ix_640_480
  00d93	51		 push	 ecx
  00d94	8b 15 00 00 00
	00		 mov	 edx, DWORD PTR ?base_cockpit_graphics_file@@3W4GRAPHICS_FILE_SPECIFIERS@@A ; base_cockpit_graphics_file
  00d9a	83 c2 19	 add	 edx, 25			; 00000019H
  00d9d	6b c2 28	 imul	 eax, edx, 40
  00da0	8b 88 1c 00 00
	00		 mov	 ecx, DWORD PTR ?graphics_files@@3PAUFILE_DATA@@A[eax+28]
  00da6	51		 push	 ecx
  00da7	e8 00 00 00 00	 call	 ?blit_rle_graphic@@YGXPBEHH@Z ; blit_rle_graphic

; 924  : 
; 925  : 					draw_ah64a_fixed_cockpit_airspeed_indicator_needle (panel);

  00dac	8b 45 08	 mov	 eax, DWORD PTR _panel$[ebp]
  00daf	50		 push	 eax
  00db0	e8 00 00 00 00	 call	 ?draw_ah64a_fixed_cockpit_airspeed_indicator_needle@@YGXW4COCKPIT_PANELS@@@Z ; draw_ah64a_fixed_cockpit_airspeed_indicator_needle

; 926  : 
; 927  : 					draw_ah64a_fixed_cockpit_barometric_altimeter_needle (panel);

  00db5	8b 45 08	 mov	 eax, DWORD PTR _panel$[ebp]
  00db8	50		 push	 eax
  00db9	e8 00 00 00 00	 call	 ?draw_ah64a_fixed_cockpit_barometric_altimeter_needle@@YGXW4COCKPIT_PANELS@@@Z ; draw_ah64a_fixed_cockpit_barometric_altimeter_needle

; 928  : 
; 929  : 					draw_ah64a_indicator_lamps (panel);

  00dbe	8b 45 08	 mov	 eax, DWORD PTR _panel$[ebp]
  00dc1	50		 push	 eax
  00dc2	e8 00 00 00 00	 call	 ?draw_ah64a_indicator_lamps@@YGXW4COCKPIT_PANELS@@@Z ; draw_ah64a_indicator_lamps

; 930  : 
; 931  : 					draw_ah64a_mfd_lamps (panel);

  00dc7	8b 45 08	 mov	 eax, DWORD PTR _panel$[ebp]
  00dca	50		 push	 eax
  00dcb	e8 00 00 00 00	 call	 ?draw_ah64a_mfd_lamps@@YGXW4COCKPIT_PANELS@@@Z ; draw_ah64a_mfd_lamps

; 932  : 
; 933  : 					unlock_screen (active_screen);

  00dd0	a1 00 00 00 00	 mov	 eax, DWORD PTR ?active_screen@@3PAUSCREEN@@A ; active_screen
  00dd5	50		 push	 eax
  00dd6	e8 00 00 00 00	 call	 ?unlock_screen@@YGHPAUSCREEN@@@Z ; unlock_screen
$LN92@draw_ah64a:

; 934  : 				}
; 935  : 
; 936  : 				draw_ah64a_internal_virtual_cockpit

  00ddb	68 60 00 0a 00	 push	 655456			; 000a0060H
  00de0	e8 00 00 00 00	 call	 ?draw_ah64a_internal_virtual_cockpit@@YGXI@Z ; draw_ah64a_internal_virtual_cockpit

; 937  : 				(
; 938  : 					VIRTUAL_COCKPIT_LHS_MFD_DISPLAY |
; 939  : 					VIRTUAL_COCKPIT_RHS_MFD_DISPLAY |
; 940  : 					VIRTUAL_COCKPIT_UPFRONT_DISPLAY |
; 941  : 					VIRTUAL_COCKPIT_INSTRUMENT_NEEDLES
; 942  : 				);
; 943  : 
; 944  : 				if (lock_screen (active_screen))

  00de5	a1 00 00 00 00	 mov	 eax, DWORD PTR ?active_screen@@3PAUSCREEN@@A ; active_screen
  00dea	50		 push	 eax
  00deb	e8 00 00 00 00	 call	 ?lock_screen@@YGHPAUSCREEN@@@Z ; lock_screen
  00df0	85 c0		 test	 eax, eax
  00df2	74 30		 je	 SHORT $LN93@draw_ah64a

; 945  : 				{
; 946  : 					blit_rle_graphic (get_graphics_file_data (base_cockpit_graphics_file + GRAPHICS_COCKPITS_APACHE_MFD_MASK_D20_R30_RLE), ix_640_480, iy_640_480);

  00df4	a1 00 00 00 00	 mov	 eax, DWORD PTR ?iy_640_480@@3HA ; iy_640_480
  00df9	50		 push	 eax
  00dfa	8b 0d 00 00 00
	00		 mov	 ecx, DWORD PTR ?ix_640_480@@3HA ; ix_640_480
  00e00	51		 push	 ecx
  00e01	8b 15 00 00 00
	00		 mov	 edx, DWORD PTR ?base_cockpit_graphics_file@@3W4GRAPHICS_FILE_SPECIFIERS@@A ; base_cockpit_graphics_file
  00e07	83 c2 20	 add	 edx, 32			; 00000020H
  00e0a	6b c2 28	 imul	 eax, edx, 40
  00e0d	8b 88 1c 00 00
	00		 mov	 ecx, DWORD PTR ?graphics_files@@3PAUFILE_DATA@@A[eax+28]
  00e13	51		 push	 ecx
  00e14	e8 00 00 00 00	 call	 ?blit_rle_graphic@@YGXPBEHH@Z ; blit_rle_graphic

; 947  : 
; 948  : 					unlock_screen (active_screen);

  00e19	a1 00 00 00 00	 mov	 eax, DWORD PTR ?active_screen@@3PAUSCREEN@@A ; active_screen
  00e1e	50		 push	 eax
  00e1f	e8 00 00 00 00	 call	 ?unlock_screen@@YGHPAUSCREEN@@@Z ; unlock_screen
$LN93@draw_ah64a:

; 949  : 				}
; 950  : 			}
; 951  : 
; 952  : 			draw_ah64a_hud ();

  00e24	e8 00 00 00 00	 call	 ?draw_ah64a_hud@@YGXXZ	; draw_ah64a_hud

; 953  : 
; 954  : 			break;

  00e29	e9 9b 02 00 00	 jmp	 $LN4@draw_ah64a
$LN94@draw_ah64a:

; 955  : 		}
; 956  : 		////////////////////////////////////////
; 957  : 		case COCKPIT_PANEL_DOWN20_RIGHT60:
; 958  : 		////////////////////////////////////////
; 959  : 		{
; 960  : 			if (get_global_draw_cockpit_graphics ())

  00e2e	83 3d b8 01 00
	00 00		 cmp	 DWORD PTR ?global_options@@3UGLOBAL_OPTIONS_DATA@@A+440, 0
  00e35	74 67		 je	 SHORT $LN95@draw_ah64a

; 961  : 			{
; 962  : 				draw_ah64a_external_virtual_cockpit

  00e37	6a 00		 push	 0
  00e39	68 80 14 01 00	 push	 70784			; 00011480H
  00e3e	e8 00 00 00 00	 call	 ?draw_ah64a_external_virtual_cockpit@@YGXIPAE@Z ; draw_ah64a_external_virtual_cockpit

; 963  : 				(
; 964  : 					VIRTUAL_COCKPIT_RAIN_EFFECT |
; 965  : 					VIRTUAL_COCKPIT_MAIN_ROTOR |
; 966  : 					VIRTUAL_COCKPIT_ADI |
; 967  : 					VIRTUAL_COCKPIT_COMPASS,
; 968  : 					NULL
; 969  : 				);
; 970  : 
; 971  : 				if (lock_screen (active_screen))

  00e43	a1 00 00 00 00	 mov	 eax, DWORD PTR ?active_screen@@3PAUSCREEN@@A ; active_screen
  00e48	50		 push	 eax
  00e49	e8 00 00 00 00	 call	 ?lock_screen@@YGHPAUSCREEN@@@Z ; lock_screen
  00e4e	85 c0		 test	 eax, eax
  00e50	74 42		 je	 SHORT $LN96@draw_ah64a

; 972  : 				{
; 973  : 					blit_rle_graphic (get_graphics_file_data (base_cockpit_graphics_file + GRAPHICS_COCKPITS_APACHE_D20_R60_RLE), ix_640_480, iy_640_480);

  00e52	a1 00 00 00 00	 mov	 eax, DWORD PTR ?iy_640_480@@3HA ; iy_640_480
  00e57	50		 push	 eax
  00e58	8b 0d 00 00 00
	00		 mov	 ecx, DWORD PTR ?ix_640_480@@3HA ; ix_640_480
  00e5e	51		 push	 ecx
  00e5f	8b 15 00 00 00
	00		 mov	 edx, DWORD PTR ?base_cockpit_graphics_file@@3W4GRAPHICS_FILE_SPECIFIERS@@A ; base_cockpit_graphics_file
  00e65	83 c2 1a	 add	 edx, 26			; 0000001aH
  00e68	6b c2 28	 imul	 eax, edx, 40
  00e6b	8b 88 1c 00 00
	00		 mov	 ecx, DWORD PTR ?graphics_files@@3PAUFILE_DATA@@A[eax+28]
  00e71	51		 push	 ecx
  00e72	e8 00 00 00 00	 call	 ?blit_rle_graphic@@YGXPBEHH@Z ; blit_rle_graphic

; 974  : 
; 975  : 					draw_ah64a_fixed_cockpit_airspeed_indicator_needle (panel);

  00e77	8b 45 08	 mov	 eax, DWORD PTR _panel$[ebp]
  00e7a	50		 push	 eax
  00e7b	e8 00 00 00 00	 call	 ?draw_ah64a_fixed_cockpit_airspeed_indicator_needle@@YGXW4COCKPIT_PANELS@@@Z ; draw_ah64a_fixed_cockpit_airspeed_indicator_needle

; 976  : 
; 977  : 					draw_ah64a_fixed_cockpit_barometric_altimeter_needle (panel);

  00e80	8b 45 08	 mov	 eax, DWORD PTR _panel$[ebp]
  00e83	50		 push	 eax
  00e84	e8 00 00 00 00	 call	 ?draw_ah64a_fixed_cockpit_barometric_altimeter_needle@@YGXW4COCKPIT_PANELS@@@Z ; draw_ah64a_fixed_cockpit_barometric_altimeter_needle

; 978  : 
; 979  : 					unlock_screen (active_screen);

  00e89	a1 00 00 00 00	 mov	 eax, DWORD PTR ?active_screen@@3PAUSCREEN@@A ; active_screen
  00e8e	50		 push	 eax
  00e8f	e8 00 00 00 00	 call	 ?unlock_screen@@YGHPAUSCREEN@@@Z ; unlock_screen
$LN96@draw_ah64a:

; 980  : 				}
; 981  : 
; 982  : 				draw_ah64a_internal_virtual_cockpit

  00e94	68 00 00 02 00	 push	 131072			; 00020000H
  00e99	e8 00 00 00 00	 call	 ?draw_ah64a_internal_virtual_cockpit@@YGXI@Z ; draw_ah64a_internal_virtual_cockpit
$LN95@draw_ah64a:

; 983  : 				(
; 984  : 					VIRTUAL_COCKPIT_INSTRUMENT_NEEDLES
; 985  : 				);
; 986  : 			}
; 987  : 
; 988  : 			draw_ah64a_hud ();

  00e9e	e8 00 00 00 00	 call	 ?draw_ah64a_hud@@YGXXZ	; draw_ah64a_hud

; 989  : 
; 990  : 			break;

  00ea3	e9 21 02 00 00	 jmp	 $LN4@draw_ah64a
$LN97@draw_ah64a:

; 991  : 		}
; 992  : 		////////////////////////////////////////
; 993  : 		case COCKPIT_PANEL_DOWN20_RIGHT90:
; 994  : 		////////////////////////////////////////
; 995  : 		{
; 996  : 			if (get_global_draw_cockpit_graphics ())

  00ea8	83 3d b8 01 00
	00 00		 cmp	 DWORD PTR ?global_options@@3UGLOBAL_OPTIONS_DATA@@A+440, 0
  00eaf	74 4b		 je	 SHORT $LN99@draw_ah64a

; 997  : 			{
; 998  : 				draw_ah64a_external_virtual_cockpit

  00eb1	6a 00		 push	 0
  00eb3	68 00 10 01 00	 push	 69632			; 00011000H
  00eb8	e8 00 00 00 00	 call	 ?draw_ah64a_external_virtual_cockpit@@YGXIPAE@Z ; draw_ah64a_external_virtual_cockpit

; 999  : 				(
; 1000 : 					VIRTUAL_COCKPIT_RAIN_EFFECT |
; 1001 : 					VIRTUAL_COCKPIT_MAIN_ROTOR,
; 1002 : 					NULL
; 1003 : 				);
; 1004 : 
; 1005 : 				if (lock_screen (active_screen))

  00ebd	a1 00 00 00 00	 mov	 eax, DWORD PTR ?active_screen@@3PAUSCREEN@@A ; active_screen
  00ec2	50		 push	 eax
  00ec3	e8 00 00 00 00	 call	 ?lock_screen@@YGHPAUSCREEN@@@Z ; lock_screen
  00ec8	85 c0		 test	 eax, eax
  00eca	74 30		 je	 SHORT $LN99@draw_ah64a

; 1006 : 				{
; 1007 : 					blit_rle_graphic (get_graphics_file_data (base_cockpit_graphics_file + GRAPHICS_COCKPITS_APACHE_D20_R90_RLE), ix_640_480, iy_640_480);

  00ecc	a1 00 00 00 00	 mov	 eax, DWORD PTR ?iy_640_480@@3HA ; iy_640_480
  00ed1	50		 push	 eax
  00ed2	8b 0d 00 00 00
	00		 mov	 ecx, DWORD PTR ?ix_640_480@@3HA ; ix_640_480
  00ed8	51		 push	 ecx
  00ed9	8b 15 00 00 00
	00		 mov	 edx, DWORD PTR ?base_cockpit_graphics_file@@3W4GRAPHICS_FILE_SPECIFIERS@@A ; base_cockpit_graphics_file
  00edf	83 c2 1b	 add	 edx, 27			; 0000001bH
  00ee2	6b c2 28	 imul	 eax, edx, 40
  00ee5	8b 88 1c 00 00
	00		 mov	 ecx, DWORD PTR ?graphics_files@@3PAUFILE_DATA@@A[eax+28]
  00eeb	51		 push	 ecx
  00eec	e8 00 00 00 00	 call	 ?blit_rle_graphic@@YGXPBEHH@Z ; blit_rle_graphic

; 1008 : 
; 1009 : 					unlock_screen (active_screen);

  00ef1	a1 00 00 00 00	 mov	 eax, DWORD PTR ?active_screen@@3PAUSCREEN@@A ; active_screen
  00ef6	50		 push	 eax
  00ef7	e8 00 00 00 00	 call	 ?unlock_screen@@YGHPAUSCREEN@@@Z ; unlock_screen
$LN99@draw_ah64a:

; 1010 : 				}
; 1011 : 			}
; 1012 : 
; 1013 : 			draw_ah64a_hud ();

  00efc	e8 00 00 00 00	 call	 ?draw_ah64a_hud@@YGXXZ	; draw_ah64a_hud

; 1014 : 
; 1015 : 			break;

  00f01	e9 c3 01 00 00	 jmp	 $LN4@draw_ah64a
$LN100@draw_ah64a:

; 1016 : 		}
; 1017 : 		////////////////////////////////////////
; 1018 : 		case COCKPIT_PANEL_SPECIAL_APACHE_LHS_MFD:
; 1019 : 		////////////////////////////////////////
; 1020 : 		{
; 1021 : 			if (lock_screen (active_screen))

  00f06	a1 00 00 00 00	 mov	 eax, DWORD PTR ?active_screen@@3PAUSCREEN@@A ; active_screen
  00f0b	50		 push	 eax
  00f0c	e8 00 00 00 00	 call	 ?lock_screen@@YGHPAUSCREEN@@@Z ; lock_screen
  00f11	85 c0		 test	 eax, eax
  00f13	74 42		 je	 SHORT $LN101@draw_ah64a

; 1022 : 			{
; 1023 : 				blit_rgb_graphic (get_graphics_file_data (base_cockpit_graphics_file + GRAPHICS_COCKPITS_APACHE_LHS_MFD_RGB), ix_640_480, iy_640_480);

  00f15	a1 00 00 00 00	 mov	 eax, DWORD PTR ?iy_640_480@@3HA ; iy_640_480
  00f1a	50		 push	 eax
  00f1b	8b 0d 00 00 00
	00		 mov	 ecx, DWORD PTR ?ix_640_480@@3HA ; ix_640_480
  00f21	51		 push	 ecx
  00f22	8b 15 00 00 00
	00		 mov	 edx, DWORD PTR ?base_cockpit_graphics_file@@3W4GRAPHICS_FILE_SPECIFIERS@@A ; base_cockpit_graphics_file
  00f28	83 c2 1c	 add	 edx, 28			; 0000001cH
  00f2b	6b c2 28	 imul	 eax, edx, 40
  00f2e	8b 88 1c 00 00
	00		 mov	 ecx, DWORD PTR ?graphics_files@@3PAUFILE_DATA@@A[eax+28]
  00f34	51		 push	 ecx
  00f35	e8 00 00 00 00	 call	 ?blit_rgb_graphic@@YGXPBEHH@Z ; blit_rgb_graphic

; 1024 : 
; 1025 : 				draw_ah64a_armament_lamps (panel);

  00f3a	8b 45 08	 mov	 eax, DWORD PTR _panel$[ebp]
  00f3d	50		 push	 eax
  00f3e	e8 00 00 00 00	 call	 ?draw_ah64a_armament_lamps@@YGXW4COCKPIT_PANELS@@@Z ; draw_ah64a_armament_lamps

; 1026 : 
; 1027 : 				draw_ah64a_mfd_lamps (panel);

  00f43	8b 45 08	 mov	 eax, DWORD PTR _panel$[ebp]
  00f46	50		 push	 eax
  00f47	e8 00 00 00 00	 call	 ?draw_ah64a_mfd_lamps@@YGXW4COCKPIT_PANELS@@@Z ; draw_ah64a_mfd_lamps

; 1028 : 
; 1029 : 				unlock_screen (active_screen);

  00f4c	a1 00 00 00 00	 mov	 eax, DWORD PTR ?active_screen@@3PAUSCREEN@@A ; active_screen
  00f51	50		 push	 eax
  00f52	e8 00 00 00 00	 call	 ?unlock_screen@@YGHPAUSCREEN@@@Z ; unlock_screen
$LN101@draw_ah64a:

; 1030 : 			}
; 1031 : 
; 1032 : 			draw_ah64a_mfd_on_cockpit (fx_640_480 + 320.0, fy_640_480 + 235.0, TRUE, FALSE, MFD_LOCATION_LHS);

  00f57	6a 00		 push	 0
  00f59	6a 00		 push	 0
  00f5b	6a 01		 push	 1
  00f5d	f3 0f 5a 05 00
	00 00 00	 cvtss2sd xmm0, DWORD PTR ?fy_640_480@@3MA
  00f65	f2 0f 58 05 00
	00 00 00	 addsd	 xmm0, QWORD PTR __real@406d600000000000
  00f6d	f2 0f 5a c0	 cvtsd2ss xmm0, xmm0
  00f71	51		 push	 ecx
  00f72	f3 0f 11 04 24	 movss	 DWORD PTR [esp], xmm0
  00f77	f3 0f 5a 05 00
	00 00 00	 cvtss2sd xmm0, DWORD PTR ?fx_640_480@@3MA
  00f7f	f2 0f 58 05 00
	00 00 00	 addsd	 xmm0, QWORD PTR __real@4074000000000000
  00f87	f2 0f 5a c0	 cvtsd2ss xmm0, xmm0
  00f8b	51		 push	 ecx
  00f8c	f3 0f 11 04 24	 movss	 DWORD PTR [esp], xmm0
  00f91	e8 00 00 00 00	 call	 ?draw_ah64a_mfd_on_cockpit@@YGXMMHHW4MFD_LOCATIONS@@@Z ; draw_ah64a_mfd_on_cockpit

; 1033 : 
; 1034 : 			if (lock_screen (active_screen))

  00f96	a1 00 00 00 00	 mov	 eax, DWORD PTR ?active_screen@@3PAUSCREEN@@A ; active_screen
  00f9b	50		 push	 eax
  00f9c	e8 00 00 00 00	 call	 ?lock_screen@@YGHPAUSCREEN@@@Z ; lock_screen
  00fa1	85 c0		 test	 eax, eax
  00fa3	74 30		 je	 SHORT $LN102@draw_ah64a

; 1035 : 			{
; 1036 : 				blit_rle_graphic (get_graphics_file_data (base_cockpit_graphics_file + GRAPHICS_COCKPITS_APACHE_MFD_MASK_LHS_MFD_RLE), ix_640_480, iy_640_480);

  00fa5	a1 00 00 00 00	 mov	 eax, DWORD PTR ?iy_640_480@@3HA ; iy_640_480
  00faa	50		 push	 eax
  00fab	8b 0d 00 00 00
	00		 mov	 ecx, DWORD PTR ?ix_640_480@@3HA ; ix_640_480
  00fb1	51		 push	 ecx
  00fb2	8b 15 00 00 00
	00		 mov	 edx, DWORD PTR ?base_cockpit_graphics_file@@3W4GRAPHICS_FILE_SPECIFIERS@@A ; base_cockpit_graphics_file
  00fb8	83 c2 21	 add	 edx, 33			; 00000021H
  00fbb	6b c2 28	 imul	 eax, edx, 40
  00fbe	8b 88 1c 00 00
	00		 mov	 ecx, DWORD PTR ?graphics_files@@3PAUFILE_DATA@@A[eax+28]
  00fc4	51		 push	 ecx
  00fc5	e8 00 00 00 00	 call	 ?blit_rle_graphic@@YGXPBEHH@Z ; blit_rle_graphic

; 1037 : 
; 1038 : 				unlock_screen (active_screen);

  00fca	a1 00 00 00 00	 mov	 eax, DWORD PTR ?active_screen@@3PAUSCREEN@@A ; active_screen
  00fcf	50		 push	 eax
  00fd0	e8 00 00 00 00	 call	 ?unlock_screen@@YGHPAUSCREEN@@@Z ; unlock_screen
$LN102@draw_ah64a:

; 1039 : 			}
; 1040 : 
; 1041 : 			break;

  00fd5	e9 ef 00 00 00	 jmp	 $LN4@draw_ah64a
$LN103@draw_ah64a:

; 1042 : 		}
; 1043 : 		////////////////////////////////////////
; 1044 : 		case COCKPIT_PANEL_SPECIAL_APACHE_RHS_MFD:
; 1045 : 		////////////////////////////////////////
; 1046 : 		{
; 1047 : 			draw_ah64a_external_virtual_cockpit

  00fda	6a 00		 push	 0
  00fdc	68 00 01 00 00	 push	 256			; 00000100H
  00fe1	e8 00 00 00 00	 call	 ?draw_ah64a_external_virtual_cockpit@@YGXIPAE@Z ; draw_ah64a_external_virtual_cockpit

; 1048 : 			(
; 1049 : 				VIRTUAL_COCKPIT_LARGE_ADI,
; 1050 : 				NULL
; 1051 : 			);
; 1052 : 
; 1053 : 			if (lock_screen (active_screen))

  00fe6	a1 00 00 00 00	 mov	 eax, DWORD PTR ?active_screen@@3PAUSCREEN@@A ; active_screen
  00feb	50		 push	 eax
  00fec	e8 00 00 00 00	 call	 ?lock_screen@@YGHPAUSCREEN@@@Z ; lock_screen
  00ff1	85 c0		 test	 eax, eax
  00ff3	74 39		 je	 SHORT $LN104@draw_ah64a

; 1054 : 			{
; 1055 : 				blit_rle_graphic (get_graphics_file_data (base_cockpit_graphics_file + GRAPHICS_COCKPITS_APACHE_RHS_MFD_RLE), ix_640_480, iy_640_480);

  00ff5	a1 00 00 00 00	 mov	 eax, DWORD PTR ?iy_640_480@@3HA ; iy_640_480
  00ffa	50		 push	 eax
  00ffb	8b 0d 00 00 00
	00		 mov	 ecx, DWORD PTR ?ix_640_480@@3HA ; ix_640_480
  01001	51		 push	 ecx
  01002	8b 15 00 00 00
	00		 mov	 edx, DWORD PTR ?base_cockpit_graphics_file@@3W4GRAPHICS_FILE_SPECIFIERS@@A ; base_cockpit_graphics_file
  01008	83 c2 1d	 add	 edx, 29			; 0000001dH
  0100b	6b c2 28	 imul	 eax, edx, 40
  0100e	8b 88 1c 00 00
	00		 mov	 ecx, DWORD PTR ?graphics_files@@3PAUFILE_DATA@@A[eax+28]
  01014	51		 push	 ecx
  01015	e8 00 00 00 00	 call	 ?blit_rle_graphic@@YGXPBEHH@Z ; blit_rle_graphic

; 1056 : 
; 1057 : 				draw_ah64a_mfd_lamps (panel);

  0101a	8b 45 08	 mov	 eax, DWORD PTR _panel$[ebp]
  0101d	50		 push	 eax
  0101e	e8 00 00 00 00	 call	 ?draw_ah64a_mfd_lamps@@YGXW4COCKPIT_PANELS@@@Z ; draw_ah64a_mfd_lamps

; 1058 : 
; 1059 : 				unlock_screen (active_screen);

  01023	a1 00 00 00 00	 mov	 eax, DWORD PTR ?active_screen@@3PAUSCREEN@@A ; active_screen
  01028	50		 push	 eax
  01029	e8 00 00 00 00	 call	 ?unlock_screen@@YGHPAUSCREEN@@@Z ; unlock_screen
$LN104@draw_ah64a:

; 1060 : 			}
; 1061 : 
; 1062 : 			draw_ah64a_internal_virtual_cockpit

  0102e	68 00 00 04 00	 push	 262144			; 00040000H
  01033	e8 00 00 00 00	 call	 ?draw_ah64a_internal_virtual_cockpit@@YGXI@Z ; draw_ah64a_internal_virtual_cockpit

; 1063 : 			(
; 1064 : 				VIRTUAL_COCKPIT_INSTRUMENT_LARGE_NEEDLES
; 1065 : 			);
; 1066 : 
; 1067 : 			draw_ah64a_mfd_on_cockpit (fx_640_480 + 320.0, fy_640_480 + 235.0, TRUE, FALSE, MFD_LOCATION_RHS);

  01038	6a 01		 push	 1
  0103a	6a 00		 push	 0
  0103c	6a 01		 push	 1
  0103e	f3 0f 5a 05 00
	00 00 00	 cvtss2sd xmm0, DWORD PTR ?fy_640_480@@3MA
  01046	f2 0f 58 05 00
	00 00 00	 addsd	 xmm0, QWORD PTR __real@406d600000000000
  0104e	f2 0f 5a c0	 cvtsd2ss xmm0, xmm0
  01052	51		 push	 ecx
  01053	f3 0f 11 04 24	 movss	 DWORD PTR [esp], xmm0
  01058	f3 0f 5a 05 00
	00 00 00	 cvtss2sd xmm0, DWORD PTR ?fx_640_480@@3MA
  01060	f2 0f 58 05 00
	00 00 00	 addsd	 xmm0, QWORD PTR __real@4074000000000000
  01068	f2 0f 5a c0	 cvtsd2ss xmm0, xmm0
  0106c	51		 push	 ecx
  0106d	f3 0f 11 04 24	 movss	 DWORD PTR [esp], xmm0
  01072	e8 00 00 00 00	 call	 ?draw_ah64a_mfd_on_cockpit@@YGXMMHHW4MFD_LOCATIONS@@@Z ; draw_ah64a_mfd_on_cockpit

; 1068 : 
; 1069 : 			if (lock_screen (active_screen))

  01077	a1 00 00 00 00	 mov	 eax, DWORD PTR ?active_screen@@3PAUSCREEN@@A ; active_screen
  0107c	50		 push	 eax
  0107d	e8 00 00 00 00	 call	 ?lock_screen@@YGHPAUSCREEN@@@Z ; lock_screen
  01082	85 c0		 test	 eax, eax
  01084	74 30		 je	 SHORT $LN105@draw_ah64a

; 1070 : 			{
; 1071 : 				blit_rle_graphic (get_graphics_file_data (base_cockpit_graphics_file + GRAPHICS_COCKPITS_APACHE_MFD_MASK_RHS_MFD_RLE), ix_640_480, iy_640_480);

  01086	a1 00 00 00 00	 mov	 eax, DWORD PTR ?iy_640_480@@3HA ; iy_640_480
  0108b	50		 push	 eax
  0108c	8b 0d 00 00 00
	00		 mov	 ecx, DWORD PTR ?ix_640_480@@3HA ; ix_640_480
  01092	51		 push	 ecx
  01093	8b 15 00 00 00
	00		 mov	 edx, DWORD PTR ?base_cockpit_graphics_file@@3W4GRAPHICS_FILE_SPECIFIERS@@A ; base_cockpit_graphics_file
  01099	83 c2 22	 add	 edx, 34			; 00000022H
  0109c	6b c2 28	 imul	 eax, edx, 40
  0109f	8b 88 1c 00 00
	00		 mov	 ecx, DWORD PTR ?graphics_files@@3PAUFILE_DATA@@A[eax+28]
  010a5	51		 push	 ecx
  010a6	e8 00 00 00 00	 call	 ?blit_rle_graphic@@YGXPBEHH@Z ; blit_rle_graphic

; 1072 : 
; 1073 : 				unlock_screen (active_screen);

  010ab	a1 00 00 00 00	 mov	 eax, DWORD PTR ?active_screen@@3PAUSCREEN@@A ; active_screen
  010b0	50		 push	 eax
  010b1	e8 00 00 00 00	 call	 ?unlock_screen@@YGHPAUSCREEN@@@Z ; unlock_screen
$LN105@draw_ah64a:

; 1074 : 			}
; 1075 : 
; 1076 : 			break;

  010b6	eb 11		 jmp	 SHORT $LN4@draw_ah64a
$LN106@draw_ah64a:

; 1077 : 		}
; 1078 : 		////////////////////////////////////////
; 1079 : 		default:
; 1080 : 		////////////////////////////////////////
; 1081 : 		{
; 1082 : 			debug_fatal ("Invalid cockpit panel = %d", panel);

  010b8	8b 45 08	 mov	 eax, DWORD PTR _panel$[ebp]
  010bb	50		 push	 eax
  010bc	68 00 00 00 00	 push	 OFFSET ??_C@_0BL@LGMPIFCI@Invalid?5cockpit?5panel?5?$DN?5?$CFd@
  010c1	e8 00 00 00 00	 call	 ?debug_fatal@@YAXPBDZZ	; debug_fatal
  010c6	83 c4 08	 add	 esp, 8
$LN4@draw_ah64a:

; 1083 : 
; 1084 : 			break;
; 1085 : 		}
; 1086 : 	}
; 1087 : }

  010c9	5f		 pop	 edi
  010ca	5e		 pop	 esi
  010cb	5b		 pop	 ebx
  010cc	8b e5		 mov	 esp, ebp
  010ce	5d		 pop	 ebp
  010cf	c2 04 00	 ret	 4
  010d2	66 90		 npad	 2
$LN112@draw_ah64a:
  010d4	00 00 00 00	 DD	 $LN6@draw_ah64a
  010d8	00 00 00 00	 DD	 $LN7@draw_ah64a
  010dc	00 00 00 00	 DD	 $LN8@draw_ah64a
  010e0	00 00 00 00	 DD	 $LN9@draw_ah64a
$LN113@draw_ah64a:
  010e4	00 00 00 00	 DD	 $LN13@draw_ah64a
  010e8	00 00 00 00	 DD	 $LN16@draw_ah64a
  010ec	00 00 00 00	 DD	 $LN19@draw_ah64a
  010f0	00 00 00 00	 DD	 $LN22@draw_ah64a
  010f4	00 00 00 00	 DD	 $LN25@draw_ah64a
  010f8	00 00 00 00	 DD	 $LN28@draw_ah64a
  010fc	00 00 00 00	 DD	 $LN31@draw_ah64a
  01100	00 00 00 00	 DD	 $LN34@draw_ah64a
  01104	00 00 00 00	 DD	 $LN37@draw_ah64a
  01108	00 00 00 00	 DD	 $LN40@draw_ah64a
  0110c	00 00 00 00	 DD	 $LN43@draw_ah64a
  01110	00 00 00 00	 DD	 $LN46@draw_ah64a
  01114	00 00 00 00	 DD	 $LN49@draw_ah64a
  01118	00 00 00 00	 DD	 $LN52@draw_ah64a
  0111c	00 00 00 00	 DD	 $LN55@draw_ah64a
  01120	00 00 00 00	 DD	 $LN58@draw_ah64a
  01124	00 00 00 00	 DD	 $LN61@draw_ah64a
  01128	00 00 00 00	 DD	 $LN64@draw_ah64a
  0112c	00 00 00 00	 DD	 $LN67@draw_ah64a
  01130	00 00 00 00	 DD	 $LN70@draw_ah64a
  01134	00 00 00 00	 DD	 $LN73@draw_ah64a
  01138	00 00 00 00	 DD	 $LN76@draw_ah64a
  0113c	00 00 00 00	 DD	 $LN79@draw_ah64a
  01140	00 00 00 00	 DD	 $LN82@draw_ah64a
  01144	00 00 00 00	 DD	 $LN86@draw_ah64a
  01148	00 00 00 00	 DD	 $LN90@draw_ah64a
  0114c	00 00 00 00	 DD	 $LN94@draw_ah64a
  01150	00 00 00 00	 DD	 $LN97@draw_ah64a
  01154	00 00 00 00	 DD	 $LN100@draw_ah64a
  01158	00 00 00 00	 DD	 $LN103@draw_ah64a
?draw_ah64a_cockpit@@YGXW4COCKPIT_PANELS@@@Z ENDP	; draw_ah64a_cockpit
_TEXT	ENDS
; Function compile flags: /Odtp /ZI
; File c:\users\nhv90\projects\eech\aphavoc\source\gunships\cockpits\ah64a\ah_ckpt.c
;	COMDAT ?update_ah64a_cockpits@@YGXXZ
_TEXT	SEGMENT
?update_ah64a_cockpits@@YGXXZ PROC			; update_ah64a_cockpits, COMDAT

; 99   : {

  00000	55		 push	 ebp
  00001	8b ec		 mov	 ebp, esp
  00003	83 ec 40	 sub	 esp, 64			; 00000040H
  00006	53		 push	 ebx
  00007	56		 push	 esi
  00008	57		 push	 edi

; 100  : }

  00009	5f		 pop	 edi
  0000a	5e		 pop	 esi
  0000b	5b		 pop	 ebx
  0000c	8b e5		 mov	 esp, ebp
  0000e	5d		 pop	 ebp
  0000f	c3		 ret	 0
?update_ah64a_cockpits@@YGXXZ ENDP			; update_ah64a_cockpits
_TEXT	ENDS
; Function compile flags: /Odtp /ZI
; File c:\users\nhv90\projects\eech\aphavoc\source\gunships\cockpits\ah64a\ah_ckpt.c
;	COMDAT ?deinitialise_ah64a_cockpits@@YGXXZ
_TEXT	SEGMENT
?deinitialise_ah64a_cockpits@@YGXXZ PROC		; deinitialise_ah64a_cockpits, COMDAT

; 91   : {

  00000	55		 push	 ebp
  00001	8b ec		 mov	 ebp, esp
  00003	83 ec 40	 sub	 esp, 64			; 00000040H
  00006	53		 push	 ebx
  00007	56		 push	 esi
  00008	57		 push	 edi

; 92   : }

  00009	5f		 pop	 edi
  0000a	5e		 pop	 esi
  0000b	5b		 pop	 ebx
  0000c	8b e5		 mov	 esp, ebp
  0000e	5d		 pop	 ebp
  0000f	c3		 ret	 0
?deinitialise_ah64a_cockpits@@YGXXZ ENDP		; deinitialise_ah64a_cockpits
_TEXT	ENDS
; Function compile flags: /Odtp /ZI
; File c:\users\nhv90\projects\eech\aphavoc\source\gunships\cockpits\ah64a\ah_ckpt.c
;	COMDAT ?initialise_ah64a_cockpits@@YGXXZ
_TEXT	SEGMENT
?initialise_ah64a_cockpits@@YGXXZ PROC			; initialise_ah64a_cockpits, COMDAT

; 80   : {

  00000	55		 push	 ebp
  00001	8b ec		 mov	 ebp, esp
  00003	83 ec 40	 sub	 esp, 64			; 00000040H
  00006	53		 push	 ebx
  00007	56		 push	 esi
  00008	57		 push	 edi

; 81   : 	initialise_ah64a_lamps ();

  00009	e8 00 00 00 00	 call	 ?initialise_ah64a_lamps@@YGXXZ ; initialise_ah64a_lamps

; 82   : 
; 83   : 	initialise_ah64a_instrument_colours ();

  0000e	e8 00 00 00 00	 call	 ?initialise_ah64a_instrument_colours@@YGXXZ ; initialise_ah64a_instrument_colours

; 84   : }

  00013	5f		 pop	 edi
  00014	5e		 pop	 esi
  00015	5b		 pop	 ebx
  00016	8b e5		 mov	 esp, ebp
  00018	5d		 pop	 ebp
  00019	c3		 ret	 0
?initialise_ah64a_cockpits@@YGXXZ ENDP			; initialise_ah64a_cockpits
_TEXT	ENDS
END
