; Listing generated by Microsoft (R) Optimizing Compiler Version 19.16.27045.0 

	TITLE	C:\Users\nhv90\Projects\eech\aphavoc\source\gunships\avionics\ah64a\ah_dam.c
	.686P
	.XMM
	include listing.inc
	.model	flat

INCLUDELIB MSVCRTD
INCLUDELIB OLDNAMES

PUBLIC	?ah64a_damage@@3TAH64A_DAMAGE_FLAGS@@A		; ah64a_damage
_BSS	SEGMENT
?ah64a_damage@@3TAH64A_DAMAGE_FLAGS@@A DD 01H DUP (?)	; ah64a_damage
_BSS	ENDS
PUBLIC	?set_ah64a_weapon_damage_status@@YGXXZ		; set_ah64a_weapon_damage_status
PUBLIC	?fully_repair_ah64a_damage@@YGXXZ		; fully_repair_ah64a_damage
PUBLIC	?partially_repair_ah64a_damage@@YGXXZ		; partially_repair_ah64a_damage
PUBLIC	?repair_ah64a_weapon_damage@@YGXXZ		; repair_ah64a_weapon_damage
PUBLIC	?damage_ah64a@@YGXW4GUNSHIP_DAMAGE_LEVELS@@@Z	; damage_ah64a
PUBLIC	?notify_ah64a_avionics_of_dynamics_fault@@YGXI@Z ; notify_ah64a_avionics_of_dynamics_fault
PUBLIC	?__LINE__Var@?0??set_ah64a_weapon_damage_status@@YGXXZ@4JA ; `set_ah64a_weapon_damage_status'::`1'::__LINE__Var
PUBLIC	??_C@_0EN@HHKIAPFA@c?3?2users?2nhv90?2projects?2eech?2ap@ ; `string'
PUBLIC	??_C@_00CNPNBAHC@@				; `string'
PUBLIC	?__LINE__Var@?0??damage_systems@@YGXTAH64A_DAMAGE_FLAGS@@@Z@4JA ; `damage_systems'::`1'::__LINE__Var
PUBLIC	??_C@_0O@DFLGLKBF@RADAR?5FAILURE@		; `string'
PUBLIC	??_C@_0N@OMKABLID@FLIR?5FAILURE@		; `string'
PUBLIC	??_C@_0M@OPOMIKFA@DTV?5FAILURE@			; `string'
PUBLIC	??_C@_0M@GMDLJJLD@DVO?5FAILURE@			; `string'
PUBLIC	??_C@_07DMOCMFND@FAILURE@			; `string'
PUBLIC	??_C@_0M@KFAMODGI@LASER?5DESIG@			; `string'
PUBLIC	??_C@_0N@JDBOFCJG@RADAR?5JAMMER@		; `string'
PUBLIC	??_C@_09MILGCPFO@IR?5JAMMER@			; `string'
PUBLIC	??_C@_0N@LHMAJADA@NAV?5COMPUTER@		; `string'
PUBLIC	??_C@_0O@EMJMKINH@COMMS?5FAILURE@		; `string'
PUBLIC	??_C@_0O@KLLDPKCJ@RADAR?5WARNING@		; `string'
PUBLIC	??_C@_0P@CCIKFMOE@IHADSS?5FAILURE@		; `string'
PUBLIC	??_C@_0M@KHIEJMBO@MFD?5FAILURE@			; `string'
PUBLIC	??_C@_0N@MGLFKHCI@PNVS?5FAILURE@		; `string'
PUBLIC	??_C@_0L@NEDGJPHM@GUN?5JAMMED@			; `string'
PUBLIC	??_C@_07OHKEFPKJ@DAMAGED@			; `string'
PUBLIC	??_C@_09GLFEIKAK@HARDPOINT@			; `string'
PUBLIC	??_C@_0O@CDINACLN@CHAFF?5DISPNSR@		; `string'
PUBLIC	??_C@_0O@JCIPAKAM@FLARE?5DISPNSR@		; `string'
PUBLIC	??_C@_0BK@EECAIEOA@Invalid?5damage_level?5?$DN?5?$CFd@ ; `string'
PUBLIC	??_C@_0L@FFIGCBMA@MAIN?5ROTOR@			; `string'
PUBLIC	??_C@_0L@MCBINMPD@TAIL?5ROTOR@			; `string'
PUBLIC	??_C@_08KNAGGCOA@ENGINE?51@			; `string'
PUBLIC	??_C@_08IGCLDBCD@ENGINE?52@			; `string'
PUBLIC	??_C@_0O@HCOKLILH@ENGINE?51?5FIRE@		; `string'
PUBLIC	??_C@_0O@EDACKCCK@ENGINE?52?5FIRE@		; `string'
PUBLIC	??_C@_0N@PPIEOIMG@PRESSURE?5LOW@		; `string'
PUBLIC	??_C@_0L@POFMFPD@HYDRAULICS@			; `string'
PUBLIC	??_C@_0P@PBDJEGLC@SEC?5HYDRAULICS@		; `string'
PUBLIC	??_C@_0L@LMAEBBOE@STABILISER@			; `string'
PUBLIC	??_C@_09BHCFOJL@FUEL?5LEAK@			; `string'
PUBLIC	??_C@_08IBNIHFAO@PRESSURE@			; `string'
PUBLIC	??_C@_07GGBGBLMC@LOW?5OIL@			; `string'
PUBLIC	??_C@_08JPIIBFH@HIGH?5OIL@			; `string'
PUBLIC	__real@3f00002000400080
PUBLIC	__real@3feccccccccccccd
EXTRN	?process_assert@@YGXPBD0H@Z:PROC		; process_assert
EXTRN	?debug_fatal@@YAXPBDZZ:PROC			; debug_fatal
EXTRN	?set_client_server_entity_weapon_damage@@YGXPAUENTITY@@HHH@Z:PROC ; set_client_server_entity_weapon_damage
EXTRN	?get_next_available_weapon_sub_type@@YGHPAUENTITY@@@Z:PROC ; get_next_available_weapon_sub_type
EXTRN	?get_local_entity_weapon_available@@YGHPAUENTITY@@H@Z:PROC ; get_local_entity_weapon_available
EXTRN	?play_client_server_warning_message@@YGHPAUENTITY@@H@Z:PROC ; play_client_server_warning_message
EXTRN	?set_gunship_weapon@@YGXH@Z:PROC		; set_gunship_weapon
EXTRN	?activate_ah64a_master_caution@@YGXXZ:PROC	; activate_ah64a_master_caution
EXTRN	?set_ah64a_upfront_display_text@@YGXPAD000@Z:PROC ; set_ah64a_upfront_display_text
EXTRN	?select_ah64a_mfd_mode@@YGXW4MFD_MODES@@W4MFD_LOCATIONS@@@Z:PROC ; select_ah64a_mfd_mode
EXTRN	?select_ah64a_target_acquisition_system@@YGXW4TARGET_ACQUISITION_SYSTEMS@@@Z:PROC ; select_ah64a_target_acquisition_system
EXTRN	?dynamics_damage_model@@YGXIH@Z:PROC		; dynamics_damage_model
EXTRN	?random_number_seed@@3HA:DWORD			; random_number_seed
EXTRN	?null_entity_pointer_message@@3PBDB:DWORD	; null_entity_pointer_message
EXTRN	?global_options@@3UGLOBAL_OPTIONS_DATA@@A:BYTE	; global_options
EXTRN	?system_comms_model@@3W4COMMS_MODEL_TYPES@@A:DWORD ; system_comms_model
EXTRN	?overload_invalid_int_type_message@@3PBDB:DWORD	; overload_invalid_int_type_message
EXTRN	?fn_set_client_server_entity_int_value@@3PAY1BBH@1P6GXPAUENTITY@@W4INT_TYPES@@H@ZA:BYTE ; fn_set_client_server_entity_int_value
EXTRN	?fn_get_local_entity_int_value@@3PAY0BBH@P6GHPAUENTITY@@W4INT_TYPES@@@ZA:BYTE ; fn_get_local_entity_int_value
EXTRN	?gunship_entity@@3PAUENTITY@@A:DWORD		; gunship_entity
EXTRN	?target_acquisition_system@@3W4TARGET_ACQUISITION_SYSTEMS@@A:DWORD ; target_acquisition_system
EXTRN	?fire_extinguisher_used@@3HA:DWORD		; fire_extinguisher_used
EXTRN	?night_vision_system_active@@3HA:DWORD		; night_vision_system_active
EXTRN	__fltused:DWORD
;	COMDAT __real@3feccccccccccccd
CONST	SEGMENT
__real@3feccccccccccccd DQ 03feccccccccccccdr	; 0.9
CONST	ENDS
;	COMDAT __real@3f00002000400080
CONST	SEGMENT
__real@3f00002000400080 DQ 03f00002000400080r	; 3.05185e-05
CONST	ENDS
;	COMDAT ??_C@_08JPIIBFH@HIGH?5OIL@
CONST	SEGMENT
??_C@_08JPIIBFH@HIGH?5OIL@ DB 'HIGH OIL', 00H		; `string'
CONST	ENDS
;	COMDAT ??_C@_07GGBGBLMC@LOW?5OIL@
CONST	SEGMENT
??_C@_07GGBGBLMC@LOW?5OIL@ DB 'LOW OIL', 00H		; `string'
CONST	ENDS
;	COMDAT ??_C@_08IBNIHFAO@PRESSURE@
CONST	SEGMENT
??_C@_08IBNIHFAO@PRESSURE@ DB 'PRESSURE', 00H		; `string'
CONST	ENDS
;	COMDAT ??_C@_09BHCFOJL@FUEL?5LEAK@
CONST	SEGMENT
??_C@_09BHCFOJL@FUEL?5LEAK@ DB 'FUEL LEAK', 00H		; `string'
CONST	ENDS
;	COMDAT ??_C@_0L@LMAEBBOE@STABILISER@
CONST	SEGMENT
??_C@_0L@LMAEBBOE@STABILISER@ DB 'STABILISER', 00H	; `string'
CONST	ENDS
;	COMDAT ??_C@_0P@PBDJEGLC@SEC?5HYDRAULICS@
CONST	SEGMENT
??_C@_0P@PBDJEGLC@SEC?5HYDRAULICS@ DB 'SEC HYDRAULICS', 00H ; `string'
CONST	ENDS
;	COMDAT ??_C@_0L@POFMFPD@HYDRAULICS@
CONST	SEGMENT
??_C@_0L@POFMFPD@HYDRAULICS@ DB 'HYDRAULICS', 00H	; `string'
CONST	ENDS
;	COMDAT ??_C@_0N@PPIEOIMG@PRESSURE?5LOW@
CONST	SEGMENT
??_C@_0N@PPIEOIMG@PRESSURE?5LOW@ DB 'PRESSURE LOW', 00H	; `string'
CONST	ENDS
;	COMDAT ??_C@_0O@EDACKCCK@ENGINE?52?5FIRE@
CONST	SEGMENT
??_C@_0O@EDACKCCK@ENGINE?52?5FIRE@ DB 'ENGINE 2 FIRE', 00H ; `string'
CONST	ENDS
;	COMDAT ??_C@_0O@HCOKLILH@ENGINE?51?5FIRE@
CONST	SEGMENT
??_C@_0O@HCOKLILH@ENGINE?51?5FIRE@ DB 'ENGINE 1 FIRE', 00H ; `string'
CONST	ENDS
;	COMDAT ??_C@_08IGCLDBCD@ENGINE?52@
CONST	SEGMENT
??_C@_08IGCLDBCD@ENGINE?52@ DB 'ENGINE 2', 00H		; `string'
CONST	ENDS
;	COMDAT ??_C@_08KNAGGCOA@ENGINE?51@
CONST	SEGMENT
??_C@_08KNAGGCOA@ENGINE?51@ DB 'ENGINE 1', 00H		; `string'
CONST	ENDS
;	COMDAT ??_C@_0L@MCBINMPD@TAIL?5ROTOR@
CONST	SEGMENT
??_C@_0L@MCBINMPD@TAIL?5ROTOR@ DB 'TAIL ROTOR', 00H	; `string'
CONST	ENDS
;	COMDAT ??_C@_0L@FFIGCBMA@MAIN?5ROTOR@
CONST	SEGMENT
??_C@_0L@FFIGCBMA@MAIN?5ROTOR@ DB 'MAIN ROTOR', 00H	; `string'
CONST	ENDS
;	COMDAT ??_C@_0BK@EECAIEOA@Invalid?5damage_level?5?$DN?5?$CFd@
CONST	SEGMENT
??_C@_0BK@EECAIEOA@Invalid?5damage_level?5?$DN?5?$CFd@ DB 'Invalid damage'
	DB	'_level = %d', 00H				; `string'
CONST	ENDS
;	COMDAT ??_C@_0O@JCIPAKAM@FLARE?5DISPNSR@
CONST	SEGMENT
??_C@_0O@JCIPAKAM@FLARE?5DISPNSR@ DB 'FLARE DISPNSR', 00H ; `string'
CONST	ENDS
;	COMDAT ??_C@_0O@CDINACLN@CHAFF?5DISPNSR@
CONST	SEGMENT
??_C@_0O@CDINACLN@CHAFF?5DISPNSR@ DB 'CHAFF DISPNSR', 00H ; `string'
CONST	ENDS
;	COMDAT ??_C@_09GLFEIKAK@HARDPOINT@
CONST	SEGMENT
??_C@_09GLFEIKAK@HARDPOINT@ DB 'HARDPOINT', 00H		; `string'
CONST	ENDS
;	COMDAT ??_C@_07OHKEFPKJ@DAMAGED@
CONST	SEGMENT
??_C@_07OHKEFPKJ@DAMAGED@ DB 'DAMAGED', 00H		; `string'
CONST	ENDS
;	COMDAT ??_C@_0L@NEDGJPHM@GUN?5JAMMED@
CONST	SEGMENT
??_C@_0L@NEDGJPHM@GUN?5JAMMED@ DB 'GUN JAMMED', 00H	; `string'
CONST	ENDS
;	COMDAT ??_C@_0N@MGLFKHCI@PNVS?5FAILURE@
CONST	SEGMENT
??_C@_0N@MGLFKHCI@PNVS?5FAILURE@ DB 'PNVS FAILURE', 00H	; `string'
CONST	ENDS
;	COMDAT ??_C@_0M@KHIEJMBO@MFD?5FAILURE@
CONST	SEGMENT
??_C@_0M@KHIEJMBO@MFD?5FAILURE@ DB 'MFD FAILURE', 00H	; `string'
CONST	ENDS
;	COMDAT ??_C@_0P@CCIKFMOE@IHADSS?5FAILURE@
CONST	SEGMENT
??_C@_0P@CCIKFMOE@IHADSS?5FAILURE@ DB 'IHADSS FAILURE', 00H ; `string'
CONST	ENDS
;	COMDAT ??_C@_0O@KLLDPKCJ@RADAR?5WARNING@
CONST	SEGMENT
??_C@_0O@KLLDPKCJ@RADAR?5WARNING@ DB 'RADAR WARNING', 00H ; `string'
CONST	ENDS
;	COMDAT ??_C@_0O@EMJMKINH@COMMS?5FAILURE@
CONST	SEGMENT
??_C@_0O@EMJMKINH@COMMS?5FAILURE@ DB 'COMMS FAILURE', 00H ; `string'
CONST	ENDS
;	COMDAT ??_C@_0N@LHMAJADA@NAV?5COMPUTER@
CONST	SEGMENT
??_C@_0N@LHMAJADA@NAV?5COMPUTER@ DB 'NAV COMPUTER', 00H	; `string'
CONST	ENDS
;	COMDAT ??_C@_09MILGCPFO@IR?5JAMMER@
CONST	SEGMENT
??_C@_09MILGCPFO@IR?5JAMMER@ DB 'IR JAMMER', 00H	; `string'
CONST	ENDS
;	COMDAT ??_C@_0N@JDBOFCJG@RADAR?5JAMMER@
CONST	SEGMENT
??_C@_0N@JDBOFCJG@RADAR?5JAMMER@ DB 'RADAR JAMMER', 00H	; `string'
CONST	ENDS
;	COMDAT ??_C@_0M@KFAMODGI@LASER?5DESIG@
CONST	SEGMENT
??_C@_0M@KFAMODGI@LASER?5DESIG@ DB 'LASER DESIG', 00H	; `string'
CONST	ENDS
;	COMDAT ??_C@_07DMOCMFND@FAILURE@
CONST	SEGMENT
??_C@_07DMOCMFND@FAILURE@ DB 'FAILURE', 00H		; `string'
CONST	ENDS
;	COMDAT ??_C@_0M@GMDLJJLD@DVO?5FAILURE@
CONST	SEGMENT
??_C@_0M@GMDLJJLD@DVO?5FAILURE@ DB 'DVO FAILURE', 00H	; `string'
CONST	ENDS
;	COMDAT ??_C@_0M@OPOMIKFA@DTV?5FAILURE@
CONST	SEGMENT
??_C@_0M@OPOMIKFA@DTV?5FAILURE@ DB 'DTV FAILURE', 00H	; `string'
CONST	ENDS
;	COMDAT ??_C@_0N@OMKABLID@FLIR?5FAILURE@
CONST	SEGMENT
??_C@_0N@OMKABLID@FLIR?5FAILURE@ DB 'FLIR FAILURE', 00H	; `string'
CONST	ENDS
;	COMDAT ??_C@_0O@DFLGLKBF@RADAR?5FAILURE@
CONST	SEGMENT
??_C@_0O@DFLGLKBF@RADAR?5FAILURE@ DB 'RADAR FAILURE', 00H ; `string'
CONST	ENDS
;	COMDAT ?__LINE__Var@?0??damage_systems@@YGXTAH64A_DAMAGE_FLAGS@@@Z@4JA
_DATA	SEGMENT
?__LINE__Var@?0??damage_systems@@YGXTAH64A_DAMAGE_FLAGS@@@Z@4JA DD 01c7H ; `damage_systems'::`1'::__LINE__Var
_DATA	ENDS
;	COMDAT ??_C@_00CNPNBAHC@@
CONST	SEGMENT
??_C@_00CNPNBAHC@@ DB 00H				; `string'
CONST	ENDS
;	COMDAT ??_C@_0EN@HHKIAPFA@c?3?2users?2nhv90?2projects?2eech?2ap@
CONST	SEGMENT
??_C@_0EN@HHKIAPFA@c?3?2users?2nhv90?2projects?2eech?2ap@ DB 'c:\users\nh'
	DB	'v90\projects\eech\aphavoc\source\gunships\avionics\ah64a\ah_d'
	DB	'am.c', 00H					; `string'
CONST	ENDS
;	COMDAT ?__LINE__Var@?0??set_ah64a_weapon_damage_status@@YGXXZ@4JA
_DATA	SEGMENT
?__LINE__Var@?0??set_ah64a_weapon_damage_status@@YGXXZ@4JA DD 057H ; `set_ah64a_weapon_damage_status'::`1'::__LINE__Var
_DATA	ENDS
; Function compile flags: /Odtp /ZI
; File c:\users\nhv90\projects\eech\aphavoc\source\gunships\avionics\ah64a\ah_dam.c
;	COMDAT ?damage_systems@@YGXTAH64A_DAMAGE_FLAGS@@@Z
_TEXT	SEGMENT
tv282 = -76						; size = 4
tv261 = -76						; size = 4
tv226 = -76						; size = 4
tv205 = -76						; size = 4
tv274 = -72						; size = 4
tv254 = -72						; size = 4
tv218 = -72						; size = 4
tv198 = -72						; size = 4
_en$ = -4						; size = 4
_damage$ = 8						; size = 4
?damage_systems@@YGXTAH64A_DAMAGE_FLAGS@@@Z PROC	; damage_systems, COMDAT

; 455  : {

  00000	55		 push	 ebp
  00001	8b ec		 mov	 ebp, esp
  00003	83 ec 4c	 sub	 esp, 76			; 0000004cH
  00006	53		 push	 ebx
  00007	56		 push	 esi
  00008	57		 push	 edi

; 456  : 	entity
; 457  : 		*en;
; 458  : 
; 459  : 	en = get_gunship_entity ();

  00009	a1 00 00 00 00	 mov	 eax, DWORD PTR ?gunship_entity@@3PAUENTITY@@A ; gunship_entity
  0000e	89 45 fc	 mov	 DWORD PTR _en$[ebp], eax

; 460  : 
; 461  : 	////////////////////////////////////////
; 462  : 
; 463  : 	if (damage.radar)

  00011	8b 45 08	 mov	 eax, DWORD PTR _damage$[ebp]
  00014	83 e0 01	 and	 eax, 1
  00017	74 5a		 je	 SHORT $LN2@damage_sys

; 464  : 	{
; 465  : 		if (!ah64a_damage.radar)

  00019	a1 00 00 00 00	 mov	 eax, DWORD PTR ?ah64a_damage@@3TAH64A_DAMAGE_FLAGS@@A ; ah64a_damage
  0001e	83 e0 01	 and	 eax, 1
  00021	75 50		 jne	 SHORT $LN2@damage_sys

; 466  : 		{
; 467  : 			ah64a_damage.radar = TRUE;

  00023	a1 00 00 00 00	 mov	 eax, DWORD PTR ?ah64a_damage@@3TAH64A_DAMAGE_FLAGS@@A ; ah64a_damage
  00028	83 c8 01	 or	 eax, 1
  0002b	a3 00 00 00 00	 mov	 DWORD PTR ?ah64a_damage@@3TAH64A_DAMAGE_FLAGS@@A, eax ; ah64a_damage

; 468  : 
; 469  : 			dynamics_damage_model (DYNAMICS_DAMAGE_AVIONICS, FALSE);

  00030	6a 00		 push	 0
  00032	68 00 10 00 00	 push	 4096			; 00001000H
  00037	e8 00 00 00 00	 call	 ?dynamics_damage_model@@YGXIH@Z ; dynamics_damage_model

; 470  : 
; 471  : 			set_ah64a_upfront_display_text ("RADAR FAILURE", "", NULL, NULL);

  0003c	6a 00		 push	 0
  0003e	6a 00		 push	 0
  00040	68 00 00 00 00	 push	 OFFSET ??_C@_00CNPNBAHC@@
  00045	68 00 00 00 00	 push	 OFFSET ??_C@_0O@DFLGLKBF@RADAR?5FAILURE@
  0004a	e8 00 00 00 00	 call	 ?set_ah64a_upfront_display_text@@YGXPAD000@Z ; set_ah64a_upfront_display_text

; 472  : 
; 473  : 			play_client_server_warning_message (en, SPEECH_SYSTEM_RADAR_FAILURE);

  0004f	6a 00		 push	 0
  00051	8b 45 fc	 mov	 eax, DWORD PTR _en$[ebp]
  00054	50		 push	 eax
  00055	e8 00 00 00 00	 call	 ?play_client_server_warning_message@@YGHPAUENTITY@@H@Z ; play_client_server_warning_message

; 474  : 
; 475  : 			if
; 476  : 			(
; 477  : 				(target_acquisition_system == TARGET_ACQUISITION_SYSTEM_GROUND_RADAR) ||

  0005a	83 3d 00 00 00
	00 01		 cmp	 DWORD PTR ?target_acquisition_system@@3W4TARGET_ACQUISITION_SYSTEMS@@A, 1 ; target_acquisition_system
  00061	74 09		 je	 SHORT $LN5@damage_sys
  00063	83 3d 00 00 00
	00 02		 cmp	 DWORD PTR ?target_acquisition_system@@3W4TARGET_ACQUISITION_SYSTEMS@@A, 2 ; target_acquisition_system
  0006a	75 07		 jne	 SHORT $LN2@damage_sys
$LN5@damage_sys:

; 478  : 				(target_acquisition_system == TARGET_ACQUISITION_SYSTEM_AIR_RADAR)
; 479  : 			)
; 480  : 			{
; 481  : 				select_ah64a_target_acquisition_system (TARGET_ACQUISITION_SYSTEM_OFF);

  0006c	6a 00		 push	 0
  0006e	e8 00 00 00 00	 call	 ?select_ah64a_target_acquisition_system@@YGXW4TARGET_ACQUISITION_SYSTEMS@@@Z ; select_ah64a_target_acquisition_system
$LN2@damage_sys:

; 482  : 			}
; 483  : 		}
; 484  : 	}
; 485  : 
; 486  : 	////////////////////////////////////////
; 487  : 
; 488  : 	if (damage.flir)

  00073	8b 45 08	 mov	 eax, DWORD PTR _damage$[ebp]
  00076	c1 e8 02	 shr	 eax, 2
  00079	83 e0 01	 and	 eax, 1
  0007c	74 54		 je	 SHORT $LN6@damage_sys

; 489  : 	{
; 490  : 		if (!ah64a_damage.flir)

  0007e	a1 00 00 00 00	 mov	 eax, DWORD PTR ?ah64a_damage@@3TAH64A_DAMAGE_FLAGS@@A ; ah64a_damage
  00083	c1 e8 02	 shr	 eax, 2
  00086	83 e0 01	 and	 eax, 1
  00089	75 47		 jne	 SHORT $LN6@damage_sys

; 491  : 		{
; 492  : 			ah64a_damage.flir = TRUE;

  0008b	a1 00 00 00 00	 mov	 eax, DWORD PTR ?ah64a_damage@@3TAH64A_DAMAGE_FLAGS@@A ; ah64a_damage
  00090	83 c8 04	 or	 eax, 4
  00093	a3 00 00 00 00	 mov	 DWORD PTR ?ah64a_damage@@3TAH64A_DAMAGE_FLAGS@@A, eax ; ah64a_damage

; 493  : 
; 494  : 			dynamics_damage_model (DYNAMICS_DAMAGE_AVIONICS, FALSE);

  00098	6a 00		 push	 0
  0009a	68 00 10 00 00	 push	 4096			; 00001000H
  0009f	e8 00 00 00 00	 call	 ?dynamics_damage_model@@YGXIH@Z ; dynamics_damage_model

; 495  : 
; 496  : 			set_ah64a_upfront_display_text ("FLIR FAILURE", "", NULL, NULL);

  000a4	6a 00		 push	 0
  000a6	6a 00		 push	 0
  000a8	68 00 00 00 00	 push	 OFFSET ??_C@_00CNPNBAHC@@
  000ad	68 00 00 00 00	 push	 OFFSET ??_C@_0N@OMKABLID@FLIR?5FAILURE@
  000b2	e8 00 00 00 00	 call	 ?set_ah64a_upfront_display_text@@YGXPAD000@Z ; set_ah64a_upfront_display_text

; 497  : 
; 498  : 			play_client_server_warning_message (en, SPEECH_SYSTEM_FLIR_FAILURE);

  000b7	6a 01		 push	 1
  000b9	8b 45 fc	 mov	 eax, DWORD PTR _en$[ebp]
  000bc	50		 push	 eax
  000bd	e8 00 00 00 00	 call	 ?play_client_server_warning_message@@YGHPAUENTITY@@H@Z ; play_client_server_warning_message

; 499  : 
; 500  : 			if (target_acquisition_system == TARGET_ACQUISITION_SYSTEM_FLIR)

  000c2	83 3d 00 00 00
	00 03		 cmp	 DWORD PTR ?target_acquisition_system@@3W4TARGET_ACQUISITION_SYSTEMS@@A, 3 ; target_acquisition_system
  000c9	75 07		 jne	 SHORT $LN6@damage_sys

; 501  : 			{
; 502  : 				select_ah64a_target_acquisition_system (TARGET_ACQUISITION_SYSTEM_OFF);

  000cb	6a 00		 push	 0
  000cd	e8 00 00 00 00	 call	 ?select_ah64a_target_acquisition_system@@YGXW4TARGET_ACQUISITION_SYSTEMS@@@Z ; select_ah64a_target_acquisition_system
$LN6@damage_sys:

; 503  : 			}
; 504  : 		}
; 505  : 	}
; 506  : 
; 507  : 	////////////////////////////////////////
; 508  : 
; 509  : 	if (damage.dtv)

  000d2	8b 45 08	 mov	 eax, DWORD PTR _damage$[ebp]
  000d5	c1 e8 03	 shr	 eax, 3
  000d8	83 e0 01	 and	 eax, 1
  000db	74 54		 je	 SHORT $LN9@damage_sys

; 510  : 	{
; 511  : 		if (!ah64a_damage.dtv)

  000dd	a1 00 00 00 00	 mov	 eax, DWORD PTR ?ah64a_damage@@3TAH64A_DAMAGE_FLAGS@@A ; ah64a_damage
  000e2	c1 e8 03	 shr	 eax, 3
  000e5	83 e0 01	 and	 eax, 1
  000e8	75 47		 jne	 SHORT $LN9@damage_sys

; 512  : 		{
; 513  : 			ah64a_damage.dtv = TRUE;

  000ea	a1 00 00 00 00	 mov	 eax, DWORD PTR ?ah64a_damage@@3TAH64A_DAMAGE_FLAGS@@A ; ah64a_damage
  000ef	83 c8 08	 or	 eax, 8
  000f2	a3 00 00 00 00	 mov	 DWORD PTR ?ah64a_damage@@3TAH64A_DAMAGE_FLAGS@@A, eax ; ah64a_damage

; 514  : 
; 515  : 			dynamics_damage_model (DYNAMICS_DAMAGE_AVIONICS, FALSE);

  000f7	6a 00		 push	 0
  000f9	68 00 10 00 00	 push	 4096			; 00001000H
  000fe	e8 00 00 00 00	 call	 ?dynamics_damage_model@@YGXIH@Z ; dynamics_damage_model

; 516  : 
; 517  : 			set_ah64a_upfront_display_text ("DTV FAILURE", "", NULL, NULL);

  00103	6a 00		 push	 0
  00105	6a 00		 push	 0
  00107	68 00 00 00 00	 push	 OFFSET ??_C@_00CNPNBAHC@@
  0010c	68 00 00 00 00	 push	 OFFSET ??_C@_0M@OPOMIKFA@DTV?5FAILURE@
  00111	e8 00 00 00 00	 call	 ?set_ah64a_upfront_display_text@@YGXPAD000@Z ; set_ah64a_upfront_display_text

; 518  : 
; 519  : 			play_client_server_warning_message (en, SPEECH_SYSTEM_DTV_FAILURE);

  00116	6a 02		 push	 2
  00118	8b 45 fc	 mov	 eax, DWORD PTR _en$[ebp]
  0011b	50		 push	 eax
  0011c	e8 00 00 00 00	 call	 ?play_client_server_warning_message@@YGHPAUENTITY@@H@Z ; play_client_server_warning_message

; 520  : 
; 521  : 			if (target_acquisition_system == TARGET_ACQUISITION_SYSTEM_DTV)

  00121	83 3d 00 00 00
	00 04		 cmp	 DWORD PTR ?target_acquisition_system@@3W4TARGET_ACQUISITION_SYSTEMS@@A, 4 ; target_acquisition_system
  00128	75 07		 jne	 SHORT $LN9@damage_sys

; 522  : 			{
; 523  : 				select_ah64a_target_acquisition_system (TARGET_ACQUISITION_SYSTEM_OFF);

  0012a	6a 00		 push	 0
  0012c	e8 00 00 00 00	 call	 ?select_ah64a_target_acquisition_system@@YGXW4TARGET_ACQUISITION_SYSTEMS@@@Z ; select_ah64a_target_acquisition_system
$LN9@damage_sys:

; 524  : 			}
; 525  : 		}
; 526  : 	}
; 527  : 
; 528  : 	////////////////////////////////////////
; 529  : 
; 530  : 	if (damage.dvo)

  00131	8b 45 08	 mov	 eax, DWORD PTR _damage$[ebp]
  00134	c1 e8 04	 shr	 eax, 4
  00137	83 e0 01	 and	 eax, 1
  0013a	74 54		 je	 SHORT $LN12@damage_sys

; 531  : 	{
; 532  : 		if (!ah64a_damage.dvo)

  0013c	a1 00 00 00 00	 mov	 eax, DWORD PTR ?ah64a_damage@@3TAH64A_DAMAGE_FLAGS@@A ; ah64a_damage
  00141	c1 e8 04	 shr	 eax, 4
  00144	83 e0 01	 and	 eax, 1
  00147	75 47		 jne	 SHORT $LN12@damage_sys

; 533  : 		{
; 534  : 			ah64a_damage.dvo = TRUE;

  00149	a1 00 00 00 00	 mov	 eax, DWORD PTR ?ah64a_damage@@3TAH64A_DAMAGE_FLAGS@@A ; ah64a_damage
  0014e	83 c8 10	 or	 eax, 16			; 00000010H
  00151	a3 00 00 00 00	 mov	 DWORD PTR ?ah64a_damage@@3TAH64A_DAMAGE_FLAGS@@A, eax ; ah64a_damage

; 535  : 
; 536  : 			dynamics_damage_model (DYNAMICS_DAMAGE_AVIONICS, FALSE);

  00156	6a 00		 push	 0
  00158	68 00 10 00 00	 push	 4096			; 00001000H
  0015d	e8 00 00 00 00	 call	 ?dynamics_damage_model@@YGXIH@Z ; dynamics_damage_model

; 537  : 
; 538  : 			set_ah64a_upfront_display_text ("DVO FAILURE", "", NULL, NULL);

  00162	6a 00		 push	 0
  00164	6a 00		 push	 0
  00166	68 00 00 00 00	 push	 OFFSET ??_C@_00CNPNBAHC@@
  0016b	68 00 00 00 00	 push	 OFFSET ??_C@_0M@GMDLJJLD@DVO?5FAILURE@
  00170	e8 00 00 00 00	 call	 ?set_ah64a_upfront_display_text@@YGXPAD000@Z ; set_ah64a_upfront_display_text

; 539  : 
; 540  : 			play_client_server_warning_message (en, SPEECH_SYSTEM_DVO_FAILURE);

  00175	6a 04		 push	 4
  00177	8b 45 fc	 mov	 eax, DWORD PTR _en$[ebp]
  0017a	50		 push	 eax
  0017b	e8 00 00 00 00	 call	 ?play_client_server_warning_message@@YGHPAUENTITY@@H@Z ; play_client_server_warning_message

; 541  : 
; 542  : 			if (target_acquisition_system == TARGET_ACQUISITION_SYSTEM_DVO)

  00180	83 3d 00 00 00
	00 05		 cmp	 DWORD PTR ?target_acquisition_system@@3W4TARGET_ACQUISITION_SYSTEMS@@A, 5 ; target_acquisition_system
  00187	75 07		 jne	 SHORT $LN12@damage_sys

; 543  : 			{
; 544  : 				select_ah64a_target_acquisition_system (TARGET_ACQUISITION_SYSTEM_OFF);

  00189	6a 00		 push	 0
  0018b	e8 00 00 00 00	 call	 ?select_ah64a_target_acquisition_system@@YGXW4TARGET_ACQUISITION_SYSTEMS@@@Z ; select_ah64a_target_acquisition_system
$LN12@damage_sys:

; 545  : 			}
; 546  : 		}
; 547  : 	}
; 548  : 
; 549  : 	////////////////////////////////////////
; 550  : 
; 551  : 	if (damage.laser_designator)

  00190	8b 45 08	 mov	 eax, DWORD PTR _damage$[ebp]
  00193	c1 e8 06	 shr	 eax, 6
  00196	83 e0 01	 and	 eax, 1
  00199	74 44		 je	 SHORT $LN15@damage_sys

; 552  : 	{
; 553  : 		if (!ah64a_damage.laser_designator)

  0019b	a1 00 00 00 00	 mov	 eax, DWORD PTR ?ah64a_damage@@3TAH64A_DAMAGE_FLAGS@@A ; ah64a_damage
  001a0	c1 e8 06	 shr	 eax, 6
  001a3	83 e0 01	 and	 eax, 1
  001a6	75 37		 jne	 SHORT $LN15@damage_sys

; 554  : 		{
; 555  : 			ah64a_damage.laser_designator = TRUE;

  001a8	a1 00 00 00 00	 mov	 eax, DWORD PTR ?ah64a_damage@@3TAH64A_DAMAGE_FLAGS@@A ; ah64a_damage
  001ad	83 c8 40	 or	 eax, 64			; 00000040H
  001b0	a3 00 00 00 00	 mov	 DWORD PTR ?ah64a_damage@@3TAH64A_DAMAGE_FLAGS@@A, eax ; ah64a_damage

; 556  : 
; 557  : 			dynamics_damage_model (DYNAMICS_DAMAGE_AVIONICS, FALSE);

  001b5	6a 00		 push	 0
  001b7	68 00 10 00 00	 push	 4096			; 00001000H
  001bc	e8 00 00 00 00	 call	 ?dynamics_damage_model@@YGXIH@Z ; dynamics_damage_model

; 558  : 
; 559  : 			set_ah64a_upfront_display_text ("LASER DESIG", "FAILURE", NULL, NULL);

  001c1	6a 00		 push	 0
  001c3	6a 00		 push	 0
  001c5	68 00 00 00 00	 push	 OFFSET ??_C@_07DMOCMFND@FAILURE@
  001ca	68 00 00 00 00	 push	 OFFSET ??_C@_0M@KFAMODGI@LASER?5DESIG@
  001cf	e8 00 00 00 00	 call	 ?set_ah64a_upfront_display_text@@YGXPAD000@Z ; set_ah64a_upfront_display_text

; 560  : 
; 561  : 			play_client_server_warning_message (en, SPEECH_SYSTEM_LASER_DESIGNATOR_FAILURE);

  001d4	6a 06		 push	 6
  001d6	8b 45 fc	 mov	 eax, DWORD PTR _en$[ebp]
  001d9	50		 push	 eax
  001da	e8 00 00 00 00	 call	 ?play_client_server_warning_message@@YGHPAUENTITY@@H@Z ; play_client_server_warning_message
$LN15@damage_sys:

; 562  : 		}
; 563  : 	}
; 564  : 
; 565  : 	////////////////////////////////////////
; 566  : 
; 567  : 	if (damage.radar_jammer)

  001df	8b 45 08	 mov	 eax, DWORD PTR _damage$[ebp]
  001e2	c1 e8 07	 shr	 eax, 7
  001e5	83 e0 01	 and	 eax, 1
  001e8	0f 84 65 01 00
	00		 je	 $LN17@damage_sys

; 568  : 	{
; 569  : 		if (!ah64a_damage.radar_jammer)

  001ee	a1 00 00 00 00	 mov	 eax, DWORD PTR ?ah64a_damage@@3TAH64A_DAMAGE_FLAGS@@A ; ah64a_damage
  001f3	c1 e8 07	 shr	 eax, 7
  001f6	83 e0 01	 and	 eax, 1
  001f9	0f 85 54 01 00
	00		 jne	 $LN17@damage_sys

; 570  : 		{
; 571  : 			ah64a_damage.radar_jammer = TRUE;

  001ff	a1 00 00 00 00	 mov	 eax, DWORD PTR ?ah64a_damage@@3TAH64A_DAMAGE_FLAGS@@A ; ah64a_damage
  00204	0d 80 00 00 00	 or	 eax, 128		; 00000080H
  00209	a3 00 00 00 00	 mov	 DWORD PTR ?ah64a_damage@@3TAH64A_DAMAGE_FLAGS@@A, eax ; ah64a_damage

; 572  : 
; 573  : 			dynamics_damage_model (DYNAMICS_DAMAGE_AVIONICS, FALSE);

  0020e	6a 00		 push	 0
  00210	68 00 10 00 00	 push	 4096			; 00001000H
  00215	e8 00 00 00 00	 call	 ?dynamics_damage_model@@YGXIH@Z ; dynamics_damage_model

; 574  : 
; 575  : 			set_ah64a_upfront_display_text ("RADAR JAMMER", "FAILURE", NULL, NULL);

  0021a	6a 00		 push	 0
  0021c	6a 00		 push	 0
  0021e	68 00 00 00 00	 push	 OFFSET ??_C@_07DMOCMFND@FAILURE@
  00223	68 00 00 00 00	 push	 OFFSET ??_C@_0N@JDBOFCJG@RADAR?5JAMMER@
  00228	e8 00 00 00 00	 call	 ?set_ah64a_upfront_display_text@@YGXPAD000@Z ; set_ah64a_upfront_display_text

; 576  : 
; 577  : 			play_client_server_warning_message (en, SPEECH_SYSTEM_RADAR_JAMMER_FAILURE);

  0022d	6a 08		 push	 8
  0022f	8b 45 fc	 mov	 eax, DWORD PTR _en$[ebp]
  00232	50		 push	 eax
  00233	e8 00 00 00 00	 call	 ?play_client_server_warning_message@@YGHPAUENTITY@@H@Z ; play_client_server_warning_message

; 578  : 
; 579  : 			if (get_local_entity_int_value (get_gunship_entity (), INT_TYPE_RADAR_JAMMER_ON))

  00238	83 3d 00 00 00
	00 00		 cmp	 DWORD PTR ?gunship_entity@@3PAUENTITY@@A, 0 ; gunship_entity
  0023f	74 0c		 je	 SHORT $LN58@damage_sys
  00241	a1 00 00 00 00	 mov	 eax, DWORD PTR ?gunship_entity@@3PAUENTITY@@A ; gunship_entity
  00246	8b 08		 mov	 ecx, DWORD PTR [eax]
  00248	89 4d b8	 mov	 DWORD PTR tv198[ebp], ecx
  0024b	eb 1d		 jmp	 SHORT $LN59@damage_sys
$LN58@damage_sys:
  0024d	68 43 02 00 00	 push	 579			; 00000243H
  00252	68 00 00 00 00	 push	 OFFSET ??_C@_0EN@HHKIAPFA@c?3?2users?2nhv90?2projects?2eech?2ap@
  00257	8b 15 00 00 00
	00		 mov	 edx, DWORD PTR ?null_entity_pointer_message@@3PBDB ; null_entity_pointer_message
  0025d	52		 push	 edx
  0025e	e8 00 00 00 00	 call	 ?process_assert@@YGXPBD0H@Z ; process_assert
  00263	c7 45 b8 00 00
	00 00		 mov	 DWORD PTR tv198[ebp], 0
$LN59@damage_sys:
  0026a	b8 01 00 00 00	 mov	 eax, 1
  0026f	85 c0		 test	 eax, eax
  00271	74 09		 je	 SHORT $LN60@damage_sys
  00273	c7 45 b4 a8 00
	00 00		 mov	 DWORD PTR tv205[ebp], 168 ; 000000a8H
  0027a	eb 1d		 jmp	 SHORT $LN61@damage_sys
$LN60@damage_sys:
  0027c	68 43 02 00 00	 push	 579			; 00000243H
  00281	68 00 00 00 00	 push	 OFFSET ??_C@_0EN@HHKIAPFA@c?3?2users?2nhv90?2projects?2eech?2ap@
  00286	8b 0d 00 00 00
	00		 mov	 ecx, DWORD PTR ?overload_invalid_int_type_message@@3PBDB ; overload_invalid_int_type_message
  0028c	51		 push	 ecx
  0028d	e8 00 00 00 00	 call	 ?process_assert@@YGXPBD0H@Z ; process_assert
  00292	c7 45 b4 00 00
	00 00		 mov	 DWORD PTR tv205[ebp], 0
$LN61@damage_sys:
  00299	68 a8 00 00 00	 push	 168			; 000000a8H
  0029e	8b 15 00 00 00
	00		 mov	 edx, DWORD PTR ?gunship_entity@@3PAUENTITY@@A ; gunship_entity
  002a4	52		 push	 edx
  002a5	69 45 b8 5c 04
	00 00		 imul	 eax, DWORD PTR tv198[ebp], 1116
  002ac	8b 4d b4	 mov	 ecx, DWORD PTR tv205[ebp]
  002af	8b 94 88 00 00
	00 00		 mov	 edx, DWORD PTR ?fn_get_local_entity_int_value@@3PAY0BBH@P6GHPAUENTITY@@W4INT_TYPES@@@ZA[eax+ecx*4]
  002b6	ff d2		 call	 edx
  002b8	85 c0		 test	 eax, eax
  002ba	0f 84 93 00 00
	00		 je	 $LN17@damage_sys

; 580  : 			{
; 581  : 				set_client_server_entity_int_value (get_gunship_entity (), INT_TYPE_RADAR_JAMMER_ON, FALSE);

  002c0	83 3d 00 00 00
	00 00		 cmp	 DWORD PTR ?gunship_entity@@3PAUENTITY@@A, 0 ; gunship_entity
  002c7	74 0c		 je	 SHORT $LN62@damage_sys
  002c9	a1 00 00 00 00	 mov	 eax, DWORD PTR ?gunship_entity@@3PAUENTITY@@A ; gunship_entity
  002ce	8b 08		 mov	 ecx, DWORD PTR [eax]
  002d0	89 4d b8	 mov	 DWORD PTR tv218[ebp], ecx
  002d3	eb 21		 jmp	 SHORT $LN63@damage_sys
$LN62@damage_sys:
  002d5	8b 15 00 00 00
	00		 mov	 edx, DWORD PTR ?__LINE__Var@?0??damage_systems@@YGXTAH64A_DAMAGE_FLAGS@@@Z@4JA
  002db	83 c2 7e	 add	 edx, 126		; 0000007eH
  002de	52		 push	 edx
  002df	68 00 00 00 00	 push	 OFFSET ??_C@_0EN@HHKIAPFA@c?3?2users?2nhv90?2projects?2eech?2ap@
  002e4	a1 00 00 00 00	 mov	 eax, DWORD PTR ?null_entity_pointer_message@@3PBDB ; null_entity_pointer_message
  002e9	50		 push	 eax
  002ea	e8 00 00 00 00	 call	 ?process_assert@@YGXPBD0H@Z ; process_assert
  002ef	c7 45 b8 00 00
	00 00		 mov	 DWORD PTR tv218[ebp], 0
$LN63@damage_sys:
  002f6	b9 01 00 00 00	 mov	 ecx, 1
  002fb	85 c9		 test	 ecx, ecx
  002fd	74 09		 je	 SHORT $LN64@damage_sys
  002ff	c7 45 b4 a8 00
	00 00		 mov	 DWORD PTR tv226[ebp], 168 ; 000000a8H
  00306	eb 21		 jmp	 SHORT $LN65@damage_sys
$LN64@damage_sys:
  00308	8b 15 00 00 00
	00		 mov	 edx, DWORD PTR ?__LINE__Var@?0??damage_systems@@YGXTAH64A_DAMAGE_FLAGS@@@Z@4JA
  0030e	83 c2 7e	 add	 edx, 126		; 0000007eH
  00311	52		 push	 edx
  00312	68 00 00 00 00	 push	 OFFSET ??_C@_0EN@HHKIAPFA@c?3?2users?2nhv90?2projects?2eech?2ap@
  00317	a1 00 00 00 00	 mov	 eax, DWORD PTR ?overload_invalid_int_type_message@@3PBDB ; overload_invalid_int_type_message
  0031c	50		 push	 eax
  0031d	e8 00 00 00 00	 call	 ?process_assert@@YGXPBD0H@Z ; process_assert
  00322	c7 45 b4 00 00
	00 00		 mov	 DWORD PTR tv226[ebp], 0
$LN65@damage_sys:
  00329	6a 00		 push	 0
  0032b	68 a8 00 00 00	 push	 168			; 000000a8H
  00330	8b 0d 00 00 00
	00		 mov	 ecx, DWORD PTR ?gunship_entity@@3PAUENTITY@@A ; gunship_entity
  00336	51		 push	 ecx
  00337	69 55 b8 b8 08
	00 00		 imul	 edx, DWORD PTR tv218[ebp], 2232
  0033e	8b 45 b4	 mov	 eax, DWORD PTR tv226[ebp]
  00341	8d 8c c2 00 00
	00 00		 lea	 ecx, DWORD PTR ?fn_set_client_server_entity_int_value@@3PAY1BBH@1P6GXPAUENTITY@@W4INT_TYPES@@H@ZA[edx+eax*8]
  00348	8b 15 00 00 00
	00		 mov	 edx, DWORD PTR ?system_comms_model@@3W4COMMS_MODEL_TYPES@@A ; system_comms_model
  0034e	8b 04 91	 mov	 eax, DWORD PTR [ecx+edx*4]
  00351	ff d0		 call	 eax
$LN17@damage_sys:

; 582  : 			}
; 583  : 		}
; 584  : 	}
; 585  : 
; 586  : 	////////////////////////////////////////
; 587  : 
; 588  : 	if (damage.infra_red_jammer)

  00353	8b 45 08	 mov	 eax, DWORD PTR _damage$[ebp]
  00356	c1 e8 08	 shr	 eax, 8
  00359	83 e0 01	 and	 eax, 1
  0035c	0f 84 65 01 00
	00		 je	 $LN20@damage_sys

; 589  : 	{
; 590  : 		if (!ah64a_damage.infra_red_jammer)

  00362	a1 00 00 00 00	 mov	 eax, DWORD PTR ?ah64a_damage@@3TAH64A_DAMAGE_FLAGS@@A ; ah64a_damage
  00367	c1 e8 08	 shr	 eax, 8
  0036a	83 e0 01	 and	 eax, 1
  0036d	0f 85 54 01 00
	00		 jne	 $LN20@damage_sys

; 591  : 		{
; 592  : 			ah64a_damage.infra_red_jammer = TRUE;

  00373	a1 00 00 00 00	 mov	 eax, DWORD PTR ?ah64a_damage@@3TAH64A_DAMAGE_FLAGS@@A ; ah64a_damage
  00378	0d 00 01 00 00	 or	 eax, 256		; 00000100H
  0037d	a3 00 00 00 00	 mov	 DWORD PTR ?ah64a_damage@@3TAH64A_DAMAGE_FLAGS@@A, eax ; ah64a_damage

; 593  : 
; 594  : 			dynamics_damage_model (DYNAMICS_DAMAGE_AVIONICS, FALSE);

  00382	6a 00		 push	 0
  00384	68 00 10 00 00	 push	 4096			; 00001000H
  00389	e8 00 00 00 00	 call	 ?dynamics_damage_model@@YGXIH@Z ; dynamics_damage_model

; 595  : 
; 596  : 			set_ah64a_upfront_display_text ("IR JAMMER", "FAILURE", NULL, NULL);

  0038e	6a 00		 push	 0
  00390	6a 00		 push	 0
  00392	68 00 00 00 00	 push	 OFFSET ??_C@_07DMOCMFND@FAILURE@
  00397	68 00 00 00 00	 push	 OFFSET ??_C@_09MILGCPFO@IR?5JAMMER@
  0039c	e8 00 00 00 00	 call	 ?set_ah64a_upfront_display_text@@YGXPAD000@Z ; set_ah64a_upfront_display_text

; 597  : 
; 598  : 			play_client_server_warning_message (en, SPEECH_SYSTEM_IR_JAMMER_FAILURE);

  003a1	6a 09		 push	 9
  003a3	8b 45 fc	 mov	 eax, DWORD PTR _en$[ebp]
  003a6	50		 push	 eax
  003a7	e8 00 00 00 00	 call	 ?play_client_server_warning_message@@YGHPAUENTITY@@H@Z ; play_client_server_warning_message

; 599  : 
; 600  : 			if (get_local_entity_int_value (get_gunship_entity (), INT_TYPE_INFRA_RED_JAMMER_ON))

  003ac	83 3d 00 00 00
	00 00		 cmp	 DWORD PTR ?gunship_entity@@3PAUENTITY@@A, 0 ; gunship_entity
  003b3	74 0c		 je	 SHORT $LN66@damage_sys
  003b5	a1 00 00 00 00	 mov	 eax, DWORD PTR ?gunship_entity@@3PAUENTITY@@A ; gunship_entity
  003ba	8b 08		 mov	 ecx, DWORD PTR [eax]
  003bc	89 4d b8	 mov	 DWORD PTR tv254[ebp], ecx
  003bf	eb 1d		 jmp	 SHORT $LN67@damage_sys
$LN66@damage_sys:
  003c1	68 58 02 00 00	 push	 600			; 00000258H
  003c6	68 00 00 00 00	 push	 OFFSET ??_C@_0EN@HHKIAPFA@c?3?2users?2nhv90?2projects?2eech?2ap@
  003cb	8b 15 00 00 00
	00		 mov	 edx, DWORD PTR ?null_entity_pointer_message@@3PBDB ; null_entity_pointer_message
  003d1	52		 push	 edx
  003d2	e8 00 00 00 00	 call	 ?process_assert@@YGXPBD0H@Z ; process_assert
  003d7	c7 45 b8 00 00
	00 00		 mov	 DWORD PTR tv254[ebp], 0
$LN67@damage_sys:
  003de	b8 01 00 00 00	 mov	 eax, 1
  003e3	85 c0		 test	 eax, eax
  003e5	74 09		 je	 SHORT $LN68@damage_sys
  003e7	c7 45 b4 68 00
	00 00		 mov	 DWORD PTR tv261[ebp], 104 ; 00000068H
  003ee	eb 1d		 jmp	 SHORT $LN69@damage_sys
$LN68@damage_sys:
  003f0	68 58 02 00 00	 push	 600			; 00000258H
  003f5	68 00 00 00 00	 push	 OFFSET ??_C@_0EN@HHKIAPFA@c?3?2users?2nhv90?2projects?2eech?2ap@
  003fa	8b 0d 00 00 00
	00		 mov	 ecx, DWORD PTR ?overload_invalid_int_type_message@@3PBDB ; overload_invalid_int_type_message
  00400	51		 push	 ecx
  00401	e8 00 00 00 00	 call	 ?process_assert@@YGXPBD0H@Z ; process_assert
  00406	c7 45 b4 00 00
	00 00		 mov	 DWORD PTR tv261[ebp], 0
$LN69@damage_sys:
  0040d	6a 68		 push	 104			; 00000068H
  0040f	8b 15 00 00 00
	00		 mov	 edx, DWORD PTR ?gunship_entity@@3PAUENTITY@@A ; gunship_entity
  00415	52		 push	 edx
  00416	69 45 b8 5c 04
	00 00		 imul	 eax, DWORD PTR tv254[ebp], 1116
  0041d	8b 4d b4	 mov	 ecx, DWORD PTR tv261[ebp]
  00420	8b 94 88 00 00
	00 00		 mov	 edx, DWORD PTR ?fn_get_local_entity_int_value@@3PAY0BBH@P6GHPAUENTITY@@W4INT_TYPES@@@ZA[eax+ecx*4]
  00427	ff d2		 call	 edx
  00429	85 c0		 test	 eax, eax
  0042b	0f 84 96 00 00
	00		 je	 $LN20@damage_sys

; 601  : 			{
; 602  : 				set_client_server_entity_int_value (get_gunship_entity (), INT_TYPE_INFRA_RED_JAMMER_ON, FALSE);

  00431	83 3d 00 00 00
	00 00		 cmp	 DWORD PTR ?gunship_entity@@3PAUENTITY@@A, 0 ; gunship_entity
  00438	74 0c		 je	 SHORT $LN70@damage_sys
  0043a	a1 00 00 00 00	 mov	 eax, DWORD PTR ?gunship_entity@@3PAUENTITY@@A ; gunship_entity
  0043f	8b 08		 mov	 ecx, DWORD PTR [eax]
  00441	89 4d b8	 mov	 DWORD PTR tv274[ebp], ecx
  00444	eb 24		 jmp	 SHORT $LN71@damage_sys
$LN70@damage_sys:
  00446	8b 15 00 00 00
	00		 mov	 edx, DWORD PTR ?__LINE__Var@?0??damage_systems@@YGXTAH64A_DAMAGE_FLAGS@@@Z@4JA
  0044c	81 c2 93 00 00
	00		 add	 edx, 147		; 00000093H
  00452	52		 push	 edx
  00453	68 00 00 00 00	 push	 OFFSET ??_C@_0EN@HHKIAPFA@c?3?2users?2nhv90?2projects?2eech?2ap@
  00458	a1 00 00 00 00	 mov	 eax, DWORD PTR ?null_entity_pointer_message@@3PBDB ; null_entity_pointer_message
  0045d	50		 push	 eax
  0045e	e8 00 00 00 00	 call	 ?process_assert@@YGXPBD0H@Z ; process_assert
  00463	c7 45 b8 00 00
	00 00		 mov	 DWORD PTR tv274[ebp], 0
$LN71@damage_sys:
  0046a	b9 01 00 00 00	 mov	 ecx, 1
  0046f	85 c9		 test	 ecx, ecx
  00471	74 09		 je	 SHORT $LN72@damage_sys
  00473	c7 45 b4 68 00
	00 00		 mov	 DWORD PTR tv282[ebp], 104 ; 00000068H
  0047a	eb 24		 jmp	 SHORT $LN73@damage_sys
$LN72@damage_sys:
  0047c	8b 15 00 00 00
	00		 mov	 edx, DWORD PTR ?__LINE__Var@?0??damage_systems@@YGXTAH64A_DAMAGE_FLAGS@@@Z@4JA
  00482	81 c2 93 00 00
	00		 add	 edx, 147		; 00000093H
  00488	52		 push	 edx
  00489	68 00 00 00 00	 push	 OFFSET ??_C@_0EN@HHKIAPFA@c?3?2users?2nhv90?2projects?2eech?2ap@
  0048e	a1 00 00 00 00	 mov	 eax, DWORD PTR ?overload_invalid_int_type_message@@3PBDB ; overload_invalid_int_type_message
  00493	50		 push	 eax
  00494	e8 00 00 00 00	 call	 ?process_assert@@YGXPBD0H@Z ; process_assert
  00499	c7 45 b4 00 00
	00 00		 mov	 DWORD PTR tv282[ebp], 0
$LN73@damage_sys:
  004a0	6a 00		 push	 0
  004a2	6a 68		 push	 104			; 00000068H
  004a4	8b 0d 00 00 00
	00		 mov	 ecx, DWORD PTR ?gunship_entity@@3PAUENTITY@@A ; gunship_entity
  004aa	51		 push	 ecx
  004ab	69 55 b8 b8 08
	00 00		 imul	 edx, DWORD PTR tv274[ebp], 2232
  004b2	8b 45 b4	 mov	 eax, DWORD PTR tv282[ebp]
  004b5	8d 8c c2 00 00
	00 00		 lea	 ecx, DWORD PTR ?fn_set_client_server_entity_int_value@@3PAY1BBH@1P6GXPAUENTITY@@W4INT_TYPES@@H@ZA[edx+eax*8]
  004bc	8b 15 00 00 00
	00		 mov	 edx, DWORD PTR ?system_comms_model@@3W4COMMS_MODEL_TYPES@@A ; system_comms_model
  004c2	8b 04 91	 mov	 eax, DWORD PTR [ecx+edx*4]
  004c5	ff d0		 call	 eax
$LN20@damage_sys:

; 603  : 			}
; 604  : 		}
; 605  : 	}
; 606  : 
; 607  : 	////////////////////////////////////////
; 608  : 
; 609  : 	if (damage.navigation_computer)

  004c7	8b 45 08	 mov	 eax, DWORD PTR _damage$[ebp]
  004ca	c1 e8 0a	 shr	 eax, 10			; 0000000aH
  004cd	83 e0 01	 and	 eax, 1
  004d0	74 46		 je	 SHORT $LN23@damage_sys

; 610  : 	{
; 611  : 		if (!ah64a_damage.navigation_computer)

  004d2	a1 00 00 00 00	 mov	 eax, DWORD PTR ?ah64a_damage@@3TAH64A_DAMAGE_FLAGS@@A ; ah64a_damage
  004d7	c1 e8 0a	 shr	 eax, 10			; 0000000aH
  004da	83 e0 01	 and	 eax, 1
  004dd	75 39		 jne	 SHORT $LN23@damage_sys

; 612  : 		{
; 613  : 			ah64a_damage.navigation_computer = TRUE;

  004df	a1 00 00 00 00	 mov	 eax, DWORD PTR ?ah64a_damage@@3TAH64A_DAMAGE_FLAGS@@A ; ah64a_damage
  004e4	0d 00 04 00 00	 or	 eax, 1024		; 00000400H
  004e9	a3 00 00 00 00	 mov	 DWORD PTR ?ah64a_damage@@3TAH64A_DAMAGE_FLAGS@@A, eax ; ah64a_damage

; 614  : 
; 615  : 			dynamics_damage_model (DYNAMICS_DAMAGE_AVIONICS, FALSE);

  004ee	6a 00		 push	 0
  004f0	68 00 10 00 00	 push	 4096			; 00001000H
  004f5	e8 00 00 00 00	 call	 ?dynamics_damage_model@@YGXIH@Z ; dynamics_damage_model

; 616  : 
; 617  : 			set_ah64a_upfront_display_text ("NAV COMPUTER", "FAILURE", NULL, NULL);

  004fa	6a 00		 push	 0
  004fc	6a 00		 push	 0
  004fe	68 00 00 00 00	 push	 OFFSET ??_C@_07DMOCMFND@FAILURE@
  00503	68 00 00 00 00	 push	 OFFSET ??_C@_0N@LHMAJADA@NAV?5COMPUTER@
  00508	e8 00 00 00 00	 call	 ?set_ah64a_upfront_display_text@@YGXPAD000@Z ; set_ah64a_upfront_display_text

; 618  : 
; 619  : 			play_client_server_warning_message (en, SPEECH_SYSTEM_NAV_COMPUTER_FAILURE);

  0050d	6a 0a		 push	 10			; 0000000aH
  0050f	8b 45 fc	 mov	 eax, DWORD PTR _en$[ebp]
  00512	50		 push	 eax
  00513	e8 00 00 00 00	 call	 ?play_client_server_warning_message@@YGHPAUENTITY@@H@Z ; play_client_server_warning_message
$LN23@damage_sys:

; 620  : 		}
; 621  : 	}
; 622  : 
; 623  : 	////////////////////////////////////////
; 624  : 
; 625  : 	if (damage.communications)

  00518	8b 45 08	 mov	 eax, DWORD PTR _damage$[ebp]
  0051b	c1 e8 0c	 shr	 eax, 12			; 0000000cH
  0051e	83 e0 01	 and	 eax, 1
  00521	74 46		 je	 SHORT $LN25@damage_sys

; 626  : 	{
; 627  : 		if (!ah64a_damage.communications)

  00523	a1 00 00 00 00	 mov	 eax, DWORD PTR ?ah64a_damage@@3TAH64A_DAMAGE_FLAGS@@A ; ah64a_damage
  00528	c1 e8 0c	 shr	 eax, 12			; 0000000cH
  0052b	83 e0 01	 and	 eax, 1
  0052e	75 39		 jne	 SHORT $LN25@damage_sys

; 628  : 		{
; 629  : 			ah64a_damage.communications = TRUE;

  00530	a1 00 00 00 00	 mov	 eax, DWORD PTR ?ah64a_damage@@3TAH64A_DAMAGE_FLAGS@@A ; ah64a_damage
  00535	0d 00 10 00 00	 or	 eax, 4096		; 00001000H
  0053a	a3 00 00 00 00	 mov	 DWORD PTR ?ah64a_damage@@3TAH64A_DAMAGE_FLAGS@@A, eax ; ah64a_damage

; 630  : 
; 631  : 			dynamics_damage_model (DYNAMICS_DAMAGE_AVIONICS, FALSE);

  0053f	6a 00		 push	 0
  00541	68 00 10 00 00	 push	 4096			; 00001000H
  00546	e8 00 00 00 00	 call	 ?dynamics_damage_model@@YGXIH@Z ; dynamics_damage_model

; 632  : 
; 633  : 			set_ah64a_upfront_display_text ("COMMS FAILURE", "", NULL, NULL);

  0054b	6a 00		 push	 0
  0054d	6a 00		 push	 0
  0054f	68 00 00 00 00	 push	 OFFSET ??_C@_00CNPNBAHC@@
  00554	68 00 00 00 00	 push	 OFFSET ??_C@_0O@EMJMKINH@COMMS?5FAILURE@
  00559	e8 00 00 00 00	 call	 ?set_ah64a_upfront_display_text@@YGXPAD000@Z ; set_ah64a_upfront_display_text

; 634  : 
; 635  : 			play_client_server_warning_message (en, SPEECH_SYSTEM_COMMS_FAILURE);

  0055e	6a 0b		 push	 11			; 0000000bH
  00560	8b 45 fc	 mov	 eax, DWORD PTR _en$[ebp]
  00563	50		 push	 eax
  00564	e8 00 00 00 00	 call	 ?play_client_server_warning_message@@YGHPAUENTITY@@H@Z ; play_client_server_warning_message
$LN25@damage_sys:

; 636  : 		}
; 637  : 	}
; 638  : 
; 639  : 	////////////////////////////////////////
; 640  : 
; 641  : 	if (damage.radar_warning_system)

  00569	8b 45 08	 mov	 eax, DWORD PTR _damage$[ebp]
  0056c	c1 e8 0d	 shr	 eax, 13			; 0000000dH
  0056f	83 e0 01	 and	 eax, 1
  00572	74 46		 je	 SHORT $LN27@damage_sys

; 642  : 	{
; 643  : 		if (!ah64a_damage.radar_warning_system)

  00574	a1 00 00 00 00	 mov	 eax, DWORD PTR ?ah64a_damage@@3TAH64A_DAMAGE_FLAGS@@A ; ah64a_damage
  00579	c1 e8 0d	 shr	 eax, 13			; 0000000dH
  0057c	83 e0 01	 and	 eax, 1
  0057f	75 39		 jne	 SHORT $LN27@damage_sys

; 644  : 		{
; 645  : 			ah64a_damage.radar_warning_system = TRUE;

  00581	a1 00 00 00 00	 mov	 eax, DWORD PTR ?ah64a_damage@@3TAH64A_DAMAGE_FLAGS@@A ; ah64a_damage
  00586	0d 00 20 00 00	 or	 eax, 8192		; 00002000H
  0058b	a3 00 00 00 00	 mov	 DWORD PTR ?ah64a_damage@@3TAH64A_DAMAGE_FLAGS@@A, eax ; ah64a_damage

; 646  : 
; 647  : 			dynamics_damage_model (DYNAMICS_DAMAGE_AVIONICS, FALSE);

  00590	6a 00		 push	 0
  00592	68 00 10 00 00	 push	 4096			; 00001000H
  00597	e8 00 00 00 00	 call	 ?dynamics_damage_model@@YGXIH@Z ; dynamics_damage_model

; 648  : 
; 649  : 			set_ah64a_upfront_display_text ("RADAR WARNING", "FAILURE", NULL, NULL);

  0059c	6a 00		 push	 0
  0059e	6a 00		 push	 0
  005a0	68 00 00 00 00	 push	 OFFSET ??_C@_07DMOCMFND@FAILURE@
  005a5	68 00 00 00 00	 push	 OFFSET ??_C@_0O@KLLDPKCJ@RADAR?5WARNING@
  005aa	e8 00 00 00 00	 call	 ?set_ah64a_upfront_display_text@@YGXPAD000@Z ; set_ah64a_upfront_display_text

; 650  : 
; 651  : 			play_client_server_warning_message (en, SPEECH_SYSTEM_RADAR_WARNING_FAILURE);

  005af	6a 0c		 push	 12			; 0000000cH
  005b1	8b 45 fc	 mov	 eax, DWORD PTR _en$[ebp]
  005b4	50		 push	 eax
  005b5	e8 00 00 00 00	 call	 ?play_client_server_warning_message@@YGHPAUENTITY@@H@Z ; play_client_server_warning_message
$LN27@damage_sys:

; 652  : 		}
; 653  : 	}
; 654  : 
; 655  : 	////////////////////////////////////////
; 656  : 
; 657  : 	if (!get_global_simple_avionics ())

  005ba	83 3d 6c 03 00
	00 00		 cmp	 DWORD PTR ?global_options@@3UGLOBAL_OPTIONS_DATA@@A+876, 0
  005c1	75 61		 jne	 SHORT $LN29@damage_sys

; 658  : 	{
; 659  : 		if (damage.ihadss)

  005c3	8b 45 08	 mov	 eax, DWORD PTR _damage$[ebp]
  005c6	c1 e8 0e	 shr	 eax, 14			; 0000000eH
  005c9	83 e0 01	 and	 eax, 1
  005cc	74 56		 je	 SHORT $LN29@damage_sys

; 660  : 		{
; 661  : 			if (!ah64a_damage.ihadss)

  005ce	a1 00 00 00 00	 mov	 eax, DWORD PTR ?ah64a_damage@@3TAH64A_DAMAGE_FLAGS@@A ; ah64a_damage
  005d3	c1 e8 0e	 shr	 eax, 14			; 0000000eH
  005d6	83 e0 01	 and	 eax, 1
  005d9	75 49		 jne	 SHORT $LN29@damage_sys

; 662  : 			{
; 663  : 				ah64a_damage.ihadss = TRUE;

  005db	a1 00 00 00 00	 mov	 eax, DWORD PTR ?ah64a_damage@@3TAH64A_DAMAGE_FLAGS@@A ; ah64a_damage
  005e0	0d 00 40 00 00	 or	 eax, 16384		; 00004000H
  005e5	a3 00 00 00 00	 mov	 DWORD PTR ?ah64a_damage@@3TAH64A_DAMAGE_FLAGS@@A, eax ; ah64a_damage

; 664  : 
; 665  : 				dynamics_damage_model (DYNAMICS_DAMAGE_AVIONICS, FALSE);

  005ea	6a 00		 push	 0
  005ec	68 00 10 00 00	 push	 4096			; 00001000H
  005f1	e8 00 00 00 00	 call	 ?dynamics_damage_model@@YGXIH@Z ; dynamics_damage_model

; 666  : 
; 667  : 				set_ah64a_upfront_display_text ("IHADSS FAILURE", "", NULL, NULL);

  005f6	6a 00		 push	 0
  005f8	6a 00		 push	 0
  005fa	68 00 00 00 00	 push	 OFFSET ??_C@_00CNPNBAHC@@
  005ff	68 00 00 00 00	 push	 OFFSET ??_C@_0P@CCIKFMOE@IHADSS?5FAILURE@
  00604	e8 00 00 00 00	 call	 ?set_ah64a_upfront_display_text@@YGXPAD000@Z ; set_ah64a_upfront_display_text

; 668  : 
; 669  : 				play_client_server_warning_message (en, SPEECH_SYSTEM_IHADSS_FAILURE);

  00609	6a 0d		 push	 13			; 0000000dH
  0060b	8b 45 fc	 mov	 eax, DWORD PTR _en$[ebp]
  0060e	50		 push	 eax
  0060f	e8 00 00 00 00	 call	 ?play_client_server_warning_message@@YGHPAUENTITY@@H@Z ; play_client_server_warning_message

; 670  : 
; 671  : 				if (target_acquisition_system == TARGET_ACQUISITION_SYSTEM_IHADSS)

  00614	83 3d 00 00 00
	00 08		 cmp	 DWORD PTR ?target_acquisition_system@@3W4TARGET_ACQUISITION_SYSTEMS@@A, 8 ; target_acquisition_system
  0061b	75 07		 jne	 SHORT $LN29@damage_sys

; 672  : 				{
; 673  : 					select_ah64a_target_acquisition_system (TARGET_ACQUISITION_SYSTEM_OFF);

  0061d	6a 00		 push	 0
  0061f	e8 00 00 00 00	 call	 ?select_ah64a_target_acquisition_system@@YGXW4TARGET_ACQUISITION_SYSTEMS@@@Z ; select_ah64a_target_acquisition_system
$LN29@damage_sys:

; 674  : 				}
; 675  : 			}
; 676  : 		}
; 677  : 	}
; 678  : 
; 679  : 	////////////////////////////////////////
; 680  : 
; 681  : 	if (damage.lh_mfd)

  00624	8b 45 08	 mov	 eax, DWORD PTR _damage$[ebp]
  00627	c1 e8 0f	 shr	 eax, 15			; 0000000fH
  0062a	83 e0 01	 and	 eax, 1
  0062d	74 4f		 je	 SHORT $LN33@damage_sys

; 682  : 	{
; 683  : 		if (!ah64a_damage.lh_mfd)

  0062f	a1 00 00 00 00	 mov	 eax, DWORD PTR ?ah64a_damage@@3TAH64A_DAMAGE_FLAGS@@A ; ah64a_damage
  00634	c1 e8 0f	 shr	 eax, 15			; 0000000fH
  00637	83 e0 01	 and	 eax, 1
  0063a	75 42		 jne	 SHORT $LN33@damage_sys

; 684  : 		{
; 685  : 			ah64a_damage.lh_mfd = TRUE;

  0063c	a1 00 00 00 00	 mov	 eax, DWORD PTR ?ah64a_damage@@3TAH64A_DAMAGE_FLAGS@@A ; ah64a_damage
  00641	0d 00 80 00 00	 or	 eax, 32768		; 00008000H
  00646	a3 00 00 00 00	 mov	 DWORD PTR ?ah64a_damage@@3TAH64A_DAMAGE_FLAGS@@A, eax ; ah64a_damage

; 686  : 
; 687  : 			dynamics_damage_model (DYNAMICS_DAMAGE_AVIONICS, FALSE);

  0064b	6a 00		 push	 0
  0064d	68 00 10 00 00	 push	 4096			; 00001000H
  00652	e8 00 00 00 00	 call	 ?dynamics_damage_model@@YGXIH@Z ; dynamics_damage_model

; 688  : 
; 689  : 			set_ah64a_upfront_display_text ("MFD FAILURE", "", NULL, NULL);

  00657	6a 00		 push	 0
  00659	6a 00		 push	 0
  0065b	68 00 00 00 00	 push	 OFFSET ??_C@_00CNPNBAHC@@
  00660	68 00 00 00 00	 push	 OFFSET ??_C@_0M@KHIEJMBO@MFD?5FAILURE@
  00665	e8 00 00 00 00	 call	 ?set_ah64a_upfront_display_text@@YGXPAD000@Z ; set_ah64a_upfront_display_text

; 690  : 
; 691  : 			play_client_server_warning_message (en, SPEECH_SYSTEM_MFD_FAILURE);

  0066a	6a 11		 push	 17			; 00000011H
  0066c	8b 45 fc	 mov	 eax, DWORD PTR _en$[ebp]
  0066f	50		 push	 eax
  00670	e8 00 00 00 00	 call	 ?play_client_server_warning_message@@YGHPAUENTITY@@H@Z ; play_client_server_warning_message

; 692  : 
; 693  : 			select_ah64a_mfd_mode (MFD_MODE_DAMAGED, MFD_LOCATION_LHS);

  00675	6a 00		 push	 0
  00677	6a 01		 push	 1
  00679	e8 00 00 00 00	 call	 ?select_ah64a_mfd_mode@@YGXW4MFD_MODES@@W4MFD_LOCATIONS@@@Z ; select_ah64a_mfd_mode
$LN33@damage_sys:

; 694  : 		}
; 695  : 	}
; 696  : 
; 697  : 	////////////////////////////////////////
; 698  : 
; 699  : 	if (damage.rh_mfd)

  0067e	8b 45 08	 mov	 eax, DWORD PTR _damage$[ebp]
  00681	c1 e8 11	 shr	 eax, 17			; 00000011H
  00684	83 e0 01	 and	 eax, 1
  00687	74 4f		 je	 SHORT $LN35@damage_sys

; 700  : 	{
; 701  : 		if (!ah64a_damage.rh_mfd)

  00689	a1 00 00 00 00	 mov	 eax, DWORD PTR ?ah64a_damage@@3TAH64A_DAMAGE_FLAGS@@A ; ah64a_damage
  0068e	c1 e8 11	 shr	 eax, 17			; 00000011H
  00691	83 e0 01	 and	 eax, 1
  00694	75 42		 jne	 SHORT $LN35@damage_sys

; 702  : 		{
; 703  : 			ah64a_damage.rh_mfd = TRUE;

  00696	a1 00 00 00 00	 mov	 eax, DWORD PTR ?ah64a_damage@@3TAH64A_DAMAGE_FLAGS@@A ; ah64a_damage
  0069b	0d 00 00 02 00	 or	 eax, 131072		; 00020000H
  006a0	a3 00 00 00 00	 mov	 DWORD PTR ?ah64a_damage@@3TAH64A_DAMAGE_FLAGS@@A, eax ; ah64a_damage

; 704  : 
; 705  : 			dynamics_damage_model (DYNAMICS_DAMAGE_AVIONICS, FALSE);

  006a5	6a 00		 push	 0
  006a7	68 00 10 00 00	 push	 4096			; 00001000H
  006ac	e8 00 00 00 00	 call	 ?dynamics_damage_model@@YGXIH@Z ; dynamics_damage_model

; 706  : 
; 707  : 			set_ah64a_upfront_display_text ("MFD FAILURE", "", NULL, NULL);

  006b1	6a 00		 push	 0
  006b3	6a 00		 push	 0
  006b5	68 00 00 00 00	 push	 OFFSET ??_C@_00CNPNBAHC@@
  006ba	68 00 00 00 00	 push	 OFFSET ??_C@_0M@KHIEJMBO@MFD?5FAILURE@
  006bf	e8 00 00 00 00	 call	 ?set_ah64a_upfront_display_text@@YGXPAD000@Z ; set_ah64a_upfront_display_text

; 708  : 
; 709  : 			play_client_server_warning_message (en, SPEECH_SYSTEM_MFD_FAILURE);

  006c4	6a 11		 push	 17			; 00000011H
  006c6	8b 45 fc	 mov	 eax, DWORD PTR _en$[ebp]
  006c9	50		 push	 eax
  006ca	e8 00 00 00 00	 call	 ?play_client_server_warning_message@@YGHPAUENTITY@@H@Z ; play_client_server_warning_message

; 710  : 
; 711  : 			select_ah64a_mfd_mode (MFD_MODE_DAMAGED, MFD_LOCATION_RHS);

  006cf	6a 01		 push	 1
  006d1	6a 01		 push	 1
  006d3	e8 00 00 00 00	 call	 ?select_ah64a_mfd_mode@@YGXW4MFD_MODES@@W4MFD_LOCATIONS@@@Z ; select_ah64a_mfd_mode
$LN35@damage_sys:

; 712  : 		}
; 713  : 	}
; 714  : 
; 715  : 	////////////////////////////////////////
; 716  : 
; 717  : 	if (damage.pnvs)

  006d8	8b 45 08	 mov	 eax, DWORD PTR _damage$[ebp]
  006db	c1 e8 12	 shr	 eax, 18			; 00000012H
  006de	83 e0 01	 and	 eax, 1
  006e1	74 50		 je	 SHORT $LN37@damage_sys

; 718  : 	{
; 719  : 		if (!ah64a_damage.pnvs)

  006e3	a1 00 00 00 00	 mov	 eax, DWORD PTR ?ah64a_damage@@3TAH64A_DAMAGE_FLAGS@@A ; ah64a_damage
  006e8	c1 e8 12	 shr	 eax, 18			; 00000012H
  006eb	83 e0 01	 and	 eax, 1
  006ee	75 43		 jne	 SHORT $LN37@damage_sys

; 720  : 		{
; 721  : 			ah64a_damage.pnvs = TRUE;

  006f0	a1 00 00 00 00	 mov	 eax, DWORD PTR ?ah64a_damage@@3TAH64A_DAMAGE_FLAGS@@A ; ah64a_damage
  006f5	0d 00 00 04 00	 or	 eax, 262144		; 00040000H
  006fa	a3 00 00 00 00	 mov	 DWORD PTR ?ah64a_damage@@3TAH64A_DAMAGE_FLAGS@@A, eax ; ah64a_damage

; 722  : 
; 723  : 			dynamics_damage_model (DYNAMICS_DAMAGE_AVIONICS, FALSE);

  006ff	6a 00		 push	 0
  00701	68 00 10 00 00	 push	 4096			; 00001000H
  00706	e8 00 00 00 00	 call	 ?dynamics_damage_model@@YGXIH@Z ; dynamics_damage_model

; 724  : 
; 725  : 			set_ah64a_upfront_display_text ("PNVS FAILURE", "", NULL, NULL);

  0070b	6a 00		 push	 0
  0070d	6a 00		 push	 0
  0070f	68 00 00 00 00	 push	 OFFSET ??_C@_00CNPNBAHC@@
  00714	68 00 00 00 00	 push	 OFFSET ??_C@_0N@MGLFKHCI@PNVS?5FAILURE@
  00719	e8 00 00 00 00	 call	 ?set_ah64a_upfront_display_text@@YGXPAD000@Z ; set_ah64a_upfront_display_text

; 726  : 
; 727  : 			play_client_server_warning_message (en, SPEECH_SYSTEM_PNVS_FAILURE);

  0071e	6a 15		 push	 21			; 00000015H
  00720	8b 45 fc	 mov	 eax, DWORD PTR _en$[ebp]
  00723	50		 push	 eax
  00724	e8 00 00 00 00	 call	 ?play_client_server_warning_message@@YGHPAUENTITY@@H@Z ; play_client_server_warning_message

; 728  : 
; 729  : 			night_vision_system_active = FALSE;

  00729	c7 05 00 00 00
	00 00 00 00 00	 mov	 DWORD PTR ?night_vision_system_active@@3HA, 0 ; night_vision_system_active
$LN37@damage_sys:

; 730  : 		}
; 731  : 	}
; 732  : 
; 733  : 	////////////////////////////////////////
; 734  : 
; 735  : 	if (damage.gun_jammed)

  00733	8b 45 08	 mov	 eax, DWORD PTR _damage$[ebp]
  00736	c1 e8 13	 shr	 eax, 19			; 00000013H
  00739	83 e0 01	 and	 eax, 1
  0073c	74 46		 je	 SHORT $LN39@damage_sys

; 736  : 	{
; 737  : 		if (!ah64a_damage.gun_jammed)

  0073e	a1 00 00 00 00	 mov	 eax, DWORD PTR ?ah64a_damage@@3TAH64A_DAMAGE_FLAGS@@A ; ah64a_damage
  00743	c1 e8 13	 shr	 eax, 19			; 00000013H
  00746	83 e0 01	 and	 eax, 1
  00749	75 39		 jne	 SHORT $LN39@damage_sys

; 738  : 		{
; 739  : 			ah64a_damage.gun_jammed = TRUE;

  0074b	a1 00 00 00 00	 mov	 eax, DWORD PTR ?ah64a_damage@@3TAH64A_DAMAGE_FLAGS@@A ; ah64a_damage
  00750	0d 00 00 08 00	 or	 eax, 524288		; 00080000H
  00755	a3 00 00 00 00	 mov	 DWORD PTR ?ah64a_damage@@3TAH64A_DAMAGE_FLAGS@@A, eax ; ah64a_damage

; 740  : 
; 741  : 			dynamics_damage_model (DYNAMICS_DAMAGE_AVIONICS, FALSE);

  0075a	6a 00		 push	 0
  0075c	68 00 10 00 00	 push	 4096			; 00001000H
  00761	e8 00 00 00 00	 call	 ?dynamics_damage_model@@YGXIH@Z ; dynamics_damage_model

; 742  : 
; 743  : 			set_ah64a_upfront_display_text ("GUN JAMMED", "", NULL, NULL);

  00766	6a 00		 push	 0
  00768	6a 00		 push	 0
  0076a	68 00 00 00 00	 push	 OFFSET ??_C@_00CNPNBAHC@@
  0076f	68 00 00 00 00	 push	 OFFSET ??_C@_0L@NEDGJPHM@GUN?5JAMMED@
  00774	e8 00 00 00 00	 call	 ?set_ah64a_upfront_display_text@@YGXPAD000@Z ; set_ah64a_upfront_display_text

; 744  : 
; 745  : 			play_client_server_warning_message (en, SPEECH_SYSTEM_GUN_JAMMED);

  00779	6a 17		 push	 23			; 00000017H
  0077b	8b 45 fc	 mov	 eax, DWORD PTR _en$[ebp]
  0077e	50		 push	 eax
  0077f	e8 00 00 00 00	 call	 ?play_client_server_warning_message@@YGHPAUENTITY@@H@Z ; play_client_server_warning_message
$LN39@damage_sys:

; 746  : 		}
; 747  : 	}
; 748  : 
; 749  : 	////////////////////////////////////////
; 750  : 
; 751  : 	if (damage.lh_wing_tip_mount)

  00784	8b 45 08	 mov	 eax, DWORD PTR _damage$[ebp]
  00787	c1 e8 14	 shr	 eax, 20			; 00000014H
  0078a	83 e0 01	 and	 eax, 1
  0078d	74 46		 je	 SHORT $LN41@damage_sys

; 752  : 	{
; 753  : 		if (!ah64a_damage.lh_wing_tip_mount)

  0078f	a1 00 00 00 00	 mov	 eax, DWORD PTR ?ah64a_damage@@3TAH64A_DAMAGE_FLAGS@@A ; ah64a_damage
  00794	c1 e8 14	 shr	 eax, 20			; 00000014H
  00797	83 e0 01	 and	 eax, 1
  0079a	75 39		 jne	 SHORT $LN41@damage_sys

; 754  : 		{
; 755  : 			ah64a_damage.lh_wing_tip_mount = TRUE;

  0079c	a1 00 00 00 00	 mov	 eax, DWORD PTR ?ah64a_damage@@3TAH64A_DAMAGE_FLAGS@@A ; ah64a_damage
  007a1	0d 00 00 10 00	 or	 eax, 1048576		; 00100000H
  007a6	a3 00 00 00 00	 mov	 DWORD PTR ?ah64a_damage@@3TAH64A_DAMAGE_FLAGS@@A, eax ; ah64a_damage

; 756  : 
; 757  : 			dynamics_damage_model (DYNAMICS_DAMAGE_AVIONICS, FALSE);

  007ab	6a 00		 push	 0
  007ad	68 00 10 00 00	 push	 4096			; 00001000H
  007b2	e8 00 00 00 00	 call	 ?dynamics_damage_model@@YGXIH@Z ; dynamics_damage_model

; 758  : 
; 759  : 			set_ah64a_upfront_display_text ("HARDPOINT", "DAMAGED", NULL, NULL);

  007b7	6a 00		 push	 0
  007b9	6a 00		 push	 0
  007bb	68 00 00 00 00	 push	 OFFSET ??_C@_07OHKEFPKJ@DAMAGED@
  007c0	68 00 00 00 00	 push	 OFFSET ??_C@_09GLFEIKAK@HARDPOINT@
  007c5	e8 00 00 00 00	 call	 ?set_ah64a_upfront_display_text@@YGXPAD000@Z ; set_ah64a_upfront_display_text

; 760  : 
; 761  : 			play_client_server_warning_message (en, SPEECH_SYSTEM_HARDPOINT_DAMAGED);

  007ca	6a 18		 push	 24			; 00000018H
  007cc	8b 45 fc	 mov	 eax, DWORD PTR _en$[ebp]
  007cf	50		 push	 eax
  007d0	e8 00 00 00 00	 call	 ?play_client_server_warning_message@@YGHPAUENTITY@@H@Z ; play_client_server_warning_message
$LN41@damage_sys:

; 762  : 		}
; 763  : 	}
; 764  : 
; 765  : 	////////////////////////////////////////
; 766  : 
; 767  : 	if (damage.lh_outer_pylon)

  007d5	8b 45 08	 mov	 eax, DWORD PTR _damage$[ebp]
  007d8	c1 e8 16	 shr	 eax, 22			; 00000016H
  007db	83 e0 01	 and	 eax, 1
  007de	74 46		 je	 SHORT $LN43@damage_sys

; 768  : 	{
; 769  : 		if (!ah64a_damage.lh_outer_pylon)

  007e0	a1 00 00 00 00	 mov	 eax, DWORD PTR ?ah64a_damage@@3TAH64A_DAMAGE_FLAGS@@A ; ah64a_damage
  007e5	c1 e8 16	 shr	 eax, 22			; 00000016H
  007e8	83 e0 01	 and	 eax, 1
  007eb	75 39		 jne	 SHORT $LN43@damage_sys

; 770  : 		{
; 771  : 			ah64a_damage.lh_outer_pylon = TRUE;

  007ed	a1 00 00 00 00	 mov	 eax, DWORD PTR ?ah64a_damage@@3TAH64A_DAMAGE_FLAGS@@A ; ah64a_damage
  007f2	0d 00 00 40 00	 or	 eax, 4194304		; 00400000H
  007f7	a3 00 00 00 00	 mov	 DWORD PTR ?ah64a_damage@@3TAH64A_DAMAGE_FLAGS@@A, eax ; ah64a_damage

; 772  : 
; 773  : 			dynamics_damage_model (DYNAMICS_DAMAGE_AVIONICS, FALSE);

  007fc	6a 00		 push	 0
  007fe	68 00 10 00 00	 push	 4096			; 00001000H
  00803	e8 00 00 00 00	 call	 ?dynamics_damage_model@@YGXIH@Z ; dynamics_damage_model

; 774  : 
; 775  : 			set_ah64a_upfront_display_text ("HARDPOINT", "DAMAGED", NULL, NULL);

  00808	6a 00		 push	 0
  0080a	6a 00		 push	 0
  0080c	68 00 00 00 00	 push	 OFFSET ??_C@_07OHKEFPKJ@DAMAGED@
  00811	68 00 00 00 00	 push	 OFFSET ??_C@_09GLFEIKAK@HARDPOINT@
  00816	e8 00 00 00 00	 call	 ?set_ah64a_upfront_display_text@@YGXPAD000@Z ; set_ah64a_upfront_display_text

; 776  : 
; 777  : 			play_client_server_warning_message (en, SPEECH_SYSTEM_HARDPOINT_DAMAGED);

  0081b	6a 18		 push	 24			; 00000018H
  0081d	8b 45 fc	 mov	 eax, DWORD PTR _en$[ebp]
  00820	50		 push	 eax
  00821	e8 00 00 00 00	 call	 ?play_client_server_warning_message@@YGHPAUENTITY@@H@Z ; play_client_server_warning_message
$LN43@damage_sys:

; 778  : 		}
; 779  : 	}
; 780  : 
; 781  : 	////////////////////////////////////////
; 782  : 
; 783  : 	if (damage.lh_inner_pylon)

  00826	8b 45 08	 mov	 eax, DWORD PTR _damage$[ebp]
  00829	c1 e8 17	 shr	 eax, 23			; 00000017H
  0082c	83 e0 01	 and	 eax, 1
  0082f	74 46		 je	 SHORT $LN45@damage_sys

; 784  : 	{
; 785  : 		if (!ah64a_damage.lh_inner_pylon)

  00831	a1 00 00 00 00	 mov	 eax, DWORD PTR ?ah64a_damage@@3TAH64A_DAMAGE_FLAGS@@A ; ah64a_damage
  00836	c1 e8 17	 shr	 eax, 23			; 00000017H
  00839	83 e0 01	 and	 eax, 1
  0083c	75 39		 jne	 SHORT $LN45@damage_sys

; 786  : 		{
; 787  : 			ah64a_damage.lh_inner_pylon = TRUE;

  0083e	a1 00 00 00 00	 mov	 eax, DWORD PTR ?ah64a_damage@@3TAH64A_DAMAGE_FLAGS@@A ; ah64a_damage
  00843	0d 00 00 80 00	 or	 eax, 8388608		; 00800000H
  00848	a3 00 00 00 00	 mov	 DWORD PTR ?ah64a_damage@@3TAH64A_DAMAGE_FLAGS@@A, eax ; ah64a_damage

; 788  : 
; 789  : 			dynamics_damage_model (DYNAMICS_DAMAGE_AVIONICS, FALSE);

  0084d	6a 00		 push	 0
  0084f	68 00 10 00 00	 push	 4096			; 00001000H
  00854	e8 00 00 00 00	 call	 ?dynamics_damage_model@@YGXIH@Z ; dynamics_damage_model

; 790  : 
; 791  : 			set_ah64a_upfront_display_text ("HARDPOINT", "DAMAGED", NULL, NULL);

  00859	6a 00		 push	 0
  0085b	6a 00		 push	 0
  0085d	68 00 00 00 00	 push	 OFFSET ??_C@_07OHKEFPKJ@DAMAGED@
  00862	68 00 00 00 00	 push	 OFFSET ??_C@_09GLFEIKAK@HARDPOINT@
  00867	e8 00 00 00 00	 call	 ?set_ah64a_upfront_display_text@@YGXPAD000@Z ; set_ah64a_upfront_display_text

; 792  : 
; 793  : 			play_client_server_warning_message (en, SPEECH_SYSTEM_HARDPOINT_DAMAGED);

  0086c	6a 18		 push	 24			; 00000018H
  0086e	8b 45 fc	 mov	 eax, DWORD PTR _en$[ebp]
  00871	50		 push	 eax
  00872	e8 00 00 00 00	 call	 ?play_client_server_warning_message@@YGHPAUENTITY@@H@Z ; play_client_server_warning_message
$LN45@damage_sys:

; 794  : 		}
; 795  : 	}
; 796  : 
; 797  : 	////////////////////////////////////////
; 798  : 
; 799  : 	if (damage.rh_wing_tip_mount)

  00877	8b 45 08	 mov	 eax, DWORD PTR _damage$[ebp]
  0087a	c1 e8 19	 shr	 eax, 25			; 00000019H
  0087d	83 e0 01	 and	 eax, 1
  00880	74 46		 je	 SHORT $LN47@damage_sys

; 800  : 	{
; 801  : 		if (!ah64a_damage.rh_wing_tip_mount)

  00882	a1 00 00 00 00	 mov	 eax, DWORD PTR ?ah64a_damage@@3TAH64A_DAMAGE_FLAGS@@A ; ah64a_damage
  00887	c1 e8 19	 shr	 eax, 25			; 00000019H
  0088a	83 e0 01	 and	 eax, 1
  0088d	75 39		 jne	 SHORT $LN47@damage_sys

; 802  : 		{
; 803  : 			ah64a_damage.rh_wing_tip_mount = TRUE;

  0088f	a1 00 00 00 00	 mov	 eax, DWORD PTR ?ah64a_damage@@3TAH64A_DAMAGE_FLAGS@@A ; ah64a_damage
  00894	0d 00 00 00 02	 or	 eax, 33554432		; 02000000H
  00899	a3 00 00 00 00	 mov	 DWORD PTR ?ah64a_damage@@3TAH64A_DAMAGE_FLAGS@@A, eax ; ah64a_damage

; 804  : 
; 805  : 			dynamics_damage_model (DYNAMICS_DAMAGE_AVIONICS, FALSE);

  0089e	6a 00		 push	 0
  008a0	68 00 10 00 00	 push	 4096			; 00001000H
  008a5	e8 00 00 00 00	 call	 ?dynamics_damage_model@@YGXIH@Z ; dynamics_damage_model

; 806  : 
; 807  : 			set_ah64a_upfront_display_text ("HARDPOINT", "DAMAGED", NULL, NULL);

  008aa	6a 00		 push	 0
  008ac	6a 00		 push	 0
  008ae	68 00 00 00 00	 push	 OFFSET ??_C@_07OHKEFPKJ@DAMAGED@
  008b3	68 00 00 00 00	 push	 OFFSET ??_C@_09GLFEIKAK@HARDPOINT@
  008b8	e8 00 00 00 00	 call	 ?set_ah64a_upfront_display_text@@YGXPAD000@Z ; set_ah64a_upfront_display_text

; 808  : 
; 809  : 			play_client_server_warning_message (en, SPEECH_SYSTEM_HARDPOINT_DAMAGED);

  008bd	6a 18		 push	 24			; 00000018H
  008bf	8b 45 fc	 mov	 eax, DWORD PTR _en$[ebp]
  008c2	50		 push	 eax
  008c3	e8 00 00 00 00	 call	 ?play_client_server_warning_message@@YGHPAUENTITY@@H@Z ; play_client_server_warning_message
$LN47@damage_sys:

; 810  : 		}
; 811  : 	}
; 812  : 
; 813  : 	////////////////////////////////////////
; 814  : 
; 815  : 	if (damage.rh_outer_pylon)

  008c8	8b 45 08	 mov	 eax, DWORD PTR _damage$[ebp]
  008cb	c1 e8 1a	 shr	 eax, 26			; 0000001aH
  008ce	83 e0 01	 and	 eax, 1
  008d1	74 46		 je	 SHORT $LN49@damage_sys

; 816  : 	{
; 817  : 		if (!ah64a_damage.rh_outer_pylon)

  008d3	a1 00 00 00 00	 mov	 eax, DWORD PTR ?ah64a_damage@@3TAH64A_DAMAGE_FLAGS@@A ; ah64a_damage
  008d8	c1 e8 1a	 shr	 eax, 26			; 0000001aH
  008db	83 e0 01	 and	 eax, 1
  008de	75 39		 jne	 SHORT $LN49@damage_sys

; 818  : 		{
; 819  : 			ah64a_damage.rh_outer_pylon = TRUE;

  008e0	a1 00 00 00 00	 mov	 eax, DWORD PTR ?ah64a_damage@@3TAH64A_DAMAGE_FLAGS@@A ; ah64a_damage
  008e5	0d 00 00 00 04	 or	 eax, 67108864		; 04000000H
  008ea	a3 00 00 00 00	 mov	 DWORD PTR ?ah64a_damage@@3TAH64A_DAMAGE_FLAGS@@A, eax ; ah64a_damage

; 820  : 
; 821  : 			dynamics_damage_model (DYNAMICS_DAMAGE_AVIONICS, FALSE);

  008ef	6a 00		 push	 0
  008f1	68 00 10 00 00	 push	 4096			; 00001000H
  008f6	e8 00 00 00 00	 call	 ?dynamics_damage_model@@YGXIH@Z ; dynamics_damage_model

; 822  : 
; 823  : 			set_ah64a_upfront_display_text ("HARDPOINT", "DAMAGED", NULL, NULL);

  008fb	6a 00		 push	 0
  008fd	6a 00		 push	 0
  008ff	68 00 00 00 00	 push	 OFFSET ??_C@_07OHKEFPKJ@DAMAGED@
  00904	68 00 00 00 00	 push	 OFFSET ??_C@_09GLFEIKAK@HARDPOINT@
  00909	e8 00 00 00 00	 call	 ?set_ah64a_upfront_display_text@@YGXPAD000@Z ; set_ah64a_upfront_display_text

; 824  : 
; 825  : 			play_client_server_warning_message (en, SPEECH_SYSTEM_HARDPOINT_DAMAGED);

  0090e	6a 18		 push	 24			; 00000018H
  00910	8b 45 fc	 mov	 eax, DWORD PTR _en$[ebp]
  00913	50		 push	 eax
  00914	e8 00 00 00 00	 call	 ?play_client_server_warning_message@@YGHPAUENTITY@@H@Z ; play_client_server_warning_message
$LN49@damage_sys:

; 826  : 		}
; 827  : 	}
; 828  : 
; 829  : 	////////////////////////////////////////
; 830  : 
; 831  : 	if (damage.rh_inner_pylon)

  00919	8b 45 08	 mov	 eax, DWORD PTR _damage$[ebp]
  0091c	c1 e8 1c	 shr	 eax, 28			; 0000001cH
  0091f	83 e0 01	 and	 eax, 1
  00922	74 46		 je	 SHORT $LN51@damage_sys

; 832  : 	{
; 833  : 		if (!ah64a_damage.rh_inner_pylon)

  00924	a1 00 00 00 00	 mov	 eax, DWORD PTR ?ah64a_damage@@3TAH64A_DAMAGE_FLAGS@@A ; ah64a_damage
  00929	c1 e8 1c	 shr	 eax, 28			; 0000001cH
  0092c	83 e0 01	 and	 eax, 1
  0092f	75 39		 jne	 SHORT $LN51@damage_sys

; 834  : 		{
; 835  : 			ah64a_damage.rh_inner_pylon = TRUE;

  00931	a1 00 00 00 00	 mov	 eax, DWORD PTR ?ah64a_damage@@3TAH64A_DAMAGE_FLAGS@@A ; ah64a_damage
  00936	0d 00 00 00 10	 or	 eax, 268435456		; 10000000H
  0093b	a3 00 00 00 00	 mov	 DWORD PTR ?ah64a_damage@@3TAH64A_DAMAGE_FLAGS@@A, eax ; ah64a_damage

; 836  : 
; 837  : 			dynamics_damage_model (DYNAMICS_DAMAGE_AVIONICS, FALSE);

  00940	6a 00		 push	 0
  00942	68 00 10 00 00	 push	 4096			; 00001000H
  00947	e8 00 00 00 00	 call	 ?dynamics_damage_model@@YGXIH@Z ; dynamics_damage_model

; 838  : 
; 839  : 			set_ah64a_upfront_display_text ("HARDPOINT", "DAMAGED", NULL, NULL);

  0094c	6a 00		 push	 0
  0094e	6a 00		 push	 0
  00950	68 00 00 00 00	 push	 OFFSET ??_C@_07OHKEFPKJ@DAMAGED@
  00955	68 00 00 00 00	 push	 OFFSET ??_C@_09GLFEIKAK@HARDPOINT@
  0095a	e8 00 00 00 00	 call	 ?set_ah64a_upfront_display_text@@YGXPAD000@Z ; set_ah64a_upfront_display_text

; 840  : 
; 841  : 			play_client_server_warning_message (en, SPEECH_SYSTEM_HARDPOINT_DAMAGED);

  0095f	6a 18		 push	 24			; 00000018H
  00961	8b 45 fc	 mov	 eax, DWORD PTR _en$[ebp]
  00964	50		 push	 eax
  00965	e8 00 00 00 00	 call	 ?play_client_server_warning_message@@YGHPAUENTITY@@H@Z ; play_client_server_warning_message
$LN51@damage_sys:

; 842  : 		}
; 843  : 	}
; 844  : 
; 845  : 	////////////////////////////////////////
; 846  : 
; 847  : 	if (damage.chaff_dispenser)

  0096a	8b 45 08	 mov	 eax, DWORD PTR _damage$[ebp]
  0096d	c1 e8 1d	 shr	 eax, 29			; 0000001dH
  00970	83 e0 01	 and	 eax, 1
  00973	74 46		 je	 SHORT $LN53@damage_sys

; 848  : 	{
; 849  : 		if (!ah64a_damage.chaff_dispenser)

  00975	a1 00 00 00 00	 mov	 eax, DWORD PTR ?ah64a_damage@@3TAH64A_DAMAGE_FLAGS@@A ; ah64a_damage
  0097a	c1 e8 1d	 shr	 eax, 29			; 0000001dH
  0097d	83 e0 01	 and	 eax, 1
  00980	75 39		 jne	 SHORT $LN53@damage_sys

; 850  : 		{
; 851  : 			ah64a_damage.chaff_dispenser = TRUE;

  00982	a1 00 00 00 00	 mov	 eax, DWORD PTR ?ah64a_damage@@3TAH64A_DAMAGE_FLAGS@@A ; ah64a_damage
  00987	0d 00 00 00 20	 or	 eax, 536870912		; 20000000H
  0098c	a3 00 00 00 00	 mov	 DWORD PTR ?ah64a_damage@@3TAH64A_DAMAGE_FLAGS@@A, eax ; ah64a_damage

; 852  : 
; 853  : 			dynamics_damage_model (DYNAMICS_DAMAGE_AVIONICS, FALSE);

  00991	6a 00		 push	 0
  00993	68 00 10 00 00	 push	 4096			; 00001000H
  00998	e8 00 00 00 00	 call	 ?dynamics_damage_model@@YGXIH@Z ; dynamics_damage_model

; 854  : 
; 855  : 			set_ah64a_upfront_display_text ("CHAFF DISPNSR", "DAMAGED", NULL, NULL);

  0099d	6a 00		 push	 0
  0099f	6a 00		 push	 0
  009a1	68 00 00 00 00	 push	 OFFSET ??_C@_07OHKEFPKJ@DAMAGED@
  009a6	68 00 00 00 00	 push	 OFFSET ??_C@_0O@CDINACLN@CHAFF?5DISPNSR@
  009ab	e8 00 00 00 00	 call	 ?set_ah64a_upfront_display_text@@YGXPAD000@Z ; set_ah64a_upfront_display_text

; 856  : 
; 857  : 			play_client_server_warning_message (en, SPEECH_SYSTEM_CHAFF_DISPENSER_DAMAGED);

  009b0	6a 19		 push	 25			; 00000019H
  009b2	8b 45 fc	 mov	 eax, DWORD PTR _en$[ebp]
  009b5	50		 push	 eax
  009b6	e8 00 00 00 00	 call	 ?play_client_server_warning_message@@YGHPAUENTITY@@H@Z ; play_client_server_warning_message
$LN53@damage_sys:

; 858  : 		}
; 859  : 	}
; 860  : 
; 861  : 	////////////////////////////////////////
; 862  : 
; 863  : 	if (damage.flare_dispenser)

  009bb	8b 45 08	 mov	 eax, DWORD PTR _damage$[ebp]
  009be	c1 e8 1f	 shr	 eax, 31			; 0000001fH
  009c1	83 e0 01	 and	 eax, 1
  009c4	74 46		 je	 SHORT $LN55@damage_sys

; 864  : 	{
; 865  : 		if (!ah64a_damage.flare_dispenser)

  009c6	a1 00 00 00 00	 mov	 eax, DWORD PTR ?ah64a_damage@@3TAH64A_DAMAGE_FLAGS@@A ; ah64a_damage
  009cb	c1 e8 1f	 shr	 eax, 31			; 0000001fH
  009ce	83 e0 01	 and	 eax, 1
  009d1	75 39		 jne	 SHORT $LN55@damage_sys

; 866  : 		{
; 867  : 			ah64a_damage.flare_dispenser = TRUE;

  009d3	a1 00 00 00 00	 mov	 eax, DWORD PTR ?ah64a_damage@@3TAH64A_DAMAGE_FLAGS@@A ; ah64a_damage
  009d8	0d 00 00 00 80	 or	 eax, -2147483648	; 80000000H
  009dd	a3 00 00 00 00	 mov	 DWORD PTR ?ah64a_damage@@3TAH64A_DAMAGE_FLAGS@@A, eax ; ah64a_damage

; 868  : 
; 869  : 			dynamics_damage_model (DYNAMICS_DAMAGE_AVIONICS, FALSE);

  009e2	6a 00		 push	 0
  009e4	68 00 10 00 00	 push	 4096			; 00001000H
  009e9	e8 00 00 00 00	 call	 ?dynamics_damage_model@@YGXIH@Z ; dynamics_damage_model

; 870  : 
; 871  : 			set_ah64a_upfront_display_text ("FLARE DISPNSR", "DAMAGED", NULL, NULL);

  009ee	6a 00		 push	 0
  009f0	6a 00		 push	 0
  009f2	68 00 00 00 00	 push	 OFFSET ??_C@_07OHKEFPKJ@DAMAGED@
  009f7	68 00 00 00 00	 push	 OFFSET ??_C@_0O@JCIPAKAM@FLARE?5DISPNSR@
  009fc	e8 00 00 00 00	 call	 ?set_ah64a_upfront_display_text@@YGXPAD000@Z ; set_ah64a_upfront_display_text

; 872  : 
; 873  : 			play_client_server_warning_message (en, SPEECH_SYSTEM_FLARE_DISPENSER_DAMAGED);

  00a01	6a 1a		 push	 26			; 0000001aH
  00a03	8b 45 fc	 mov	 eax, DWORD PTR _en$[ebp]
  00a06	50		 push	 eax
  00a07	e8 00 00 00 00	 call	 ?play_client_server_warning_message@@YGHPAUENTITY@@H@Z ; play_client_server_warning_message
$LN55@damage_sys:

; 874  : 		}
; 875  : 	}
; 876  : 
; 877  : 	////////////////////////////////////////
; 878  : 
; 879  : 	set_ah64a_weapon_damage_status ();

  00a0c	e8 00 00 00 00	 call	 ?set_ah64a_weapon_damage_status@@YGXXZ ; set_ah64a_weapon_damage_status

; 880  : }

  00a11	5f		 pop	 edi
  00a12	5e		 pop	 esi
  00a13	5b		 pop	 ebx
  00a14	8b e5		 mov	 esp, ebp
  00a16	5d		 pop	 ebp
  00a17	c2 04 00	 ret	 4
?damage_systems@@YGXTAH64A_DAMAGE_FLAGS@@@Z ENDP	; damage_systems
_TEXT	ENDS
; Function compile flags: /Odtp /ZI
; File c:\users\nhv90\projects\eech\aphavoc\source\gunships\avionics\ah64a\ah_dam.c
;	COMDAT ?notify_ah64a_avionics_of_dynamics_fault@@YGXI@Z
_TEXT	SEGMENT
_damage$ = 8						; size = 4
?notify_ah64a_avionics_of_dynamics_fault@@YGXI@Z PROC	; notify_ah64a_avionics_of_dynamics_fault, COMDAT

; 937  : {

  00000	55		 push	 ebp
  00001	8b ec		 mov	 ebp, esp
  00003	83 ec 40	 sub	 esp, 64			; 00000040H
  00006	53		 push	 ebx
  00007	56		 push	 esi
  00008	57		 push	 edi

; 938  : 	if (damage & DYNAMICS_DAMAGE_MAIN_ROTOR)

  00009	8b 45 08	 mov	 eax, DWORD PTR _damage$[ebp]
  0000c	83 e0 02	 and	 eax, 2
  0000f	74 18		 je	 SHORT $LN2@notify_ah6

; 939  : 	{
; 940  : 		activate_ah64a_master_caution ();

  00011	e8 00 00 00 00	 call	 ?activate_ah64a_master_caution@@YGXXZ ; activate_ah64a_master_caution

; 941  : 
; 942  : 		set_ah64a_upfront_display_text ("MAIN ROTOR", "DAMAGED", NULL, NULL);

  00016	6a 00		 push	 0
  00018	6a 00		 push	 0
  0001a	68 00 00 00 00	 push	 OFFSET ??_C@_07OHKEFPKJ@DAMAGED@
  0001f	68 00 00 00 00	 push	 OFFSET ??_C@_0L@FFIGCBMA@MAIN?5ROTOR@
  00024	e8 00 00 00 00	 call	 ?set_ah64a_upfront_display_text@@YGXPAD000@Z ; set_ah64a_upfront_display_text
$LN2@notify_ah6:

; 943  : 	}
; 944  : 
; 945  : 	if (damage & DYNAMICS_DAMAGE_TAIL_ROTOR)

  00029	8b 45 08	 mov	 eax, DWORD PTR _damage$[ebp]
  0002c	83 e0 04	 and	 eax, 4
  0002f	74 18		 je	 SHORT $LN3@notify_ah6

; 946  : 	{
; 947  : 		activate_ah64a_master_caution ();

  00031	e8 00 00 00 00	 call	 ?activate_ah64a_master_caution@@YGXXZ ; activate_ah64a_master_caution

; 948  : 
; 949  : 		set_ah64a_upfront_display_text ("TAIL ROTOR", "DAMAGED", NULL, NULL);

  00036	6a 00		 push	 0
  00038	6a 00		 push	 0
  0003a	68 00 00 00 00	 push	 OFFSET ??_C@_07OHKEFPKJ@DAMAGED@
  0003f	68 00 00 00 00	 push	 OFFSET ??_C@_0L@MCBINMPD@TAIL?5ROTOR@
  00044	e8 00 00 00 00	 call	 ?set_ah64a_upfront_display_text@@YGXPAD000@Z ; set_ah64a_upfront_display_text
$LN3@notify_ah6:

; 950  : 	}
; 951  : 
; 952  : 	if (damage & DYNAMICS_DAMAGE_LEFT_ENGINE)

  00049	8b 45 08	 mov	 eax, DWORD PTR _damage$[ebp]
  0004c	83 e0 08	 and	 eax, 8
  0004f	74 18		 je	 SHORT $LN4@notify_ah6

; 953  : 	{
; 954  : 		activate_ah64a_master_caution ();

  00051	e8 00 00 00 00	 call	 ?activate_ah64a_master_caution@@YGXXZ ; activate_ah64a_master_caution

; 955  : 
; 956  : 		set_ah64a_upfront_display_text ("ENGINE 1", "DAMAGED", NULL, NULL);

  00056	6a 00		 push	 0
  00058	6a 00		 push	 0
  0005a	68 00 00 00 00	 push	 OFFSET ??_C@_07OHKEFPKJ@DAMAGED@
  0005f	68 00 00 00 00	 push	 OFFSET ??_C@_08KNAGGCOA@ENGINE?51@
  00064	e8 00 00 00 00	 call	 ?set_ah64a_upfront_display_text@@YGXPAD000@Z ; set_ah64a_upfront_display_text
$LN4@notify_ah6:

; 957  : 	}
; 958  : 
; 959  : 	if (damage & DYNAMICS_DAMAGE_RIGHT_ENGINE)

  00069	8b 45 08	 mov	 eax, DWORD PTR _damage$[ebp]
  0006c	83 e0 10	 and	 eax, 16			; 00000010H
  0006f	74 18		 je	 SHORT $LN5@notify_ah6

; 960  : 	{
; 961  : 		activate_ah64a_master_caution ();

  00071	e8 00 00 00 00	 call	 ?activate_ah64a_master_caution@@YGXXZ ; activate_ah64a_master_caution

; 962  : 
; 963  : 		set_ah64a_upfront_display_text ("ENGINE 2", "DAMAGED", NULL, NULL);

  00076	6a 00		 push	 0
  00078	6a 00		 push	 0
  0007a	68 00 00 00 00	 push	 OFFSET ??_C@_07OHKEFPKJ@DAMAGED@
  0007f	68 00 00 00 00	 push	 OFFSET ??_C@_08IGCLDBCD@ENGINE?52@
  00084	e8 00 00 00 00	 call	 ?set_ah64a_upfront_display_text@@YGXPAD000@Z ; set_ah64a_upfront_display_text
$LN5@notify_ah6:

; 964  : 	}
; 965  : 
; 966  : 	if (damage & DYNAMICS_DAMAGE_LEFT_ENGINE_FIRE)

  00089	8b 45 08	 mov	 eax, DWORD PTR _damage$[ebp]
  0008c	83 e0 20	 and	 eax, 32			; 00000020H
  0008f	74 18		 je	 SHORT $LN6@notify_ah6

; 967  : 	{
; 968  : 		activate_ah64a_master_caution ();

  00091	e8 00 00 00 00	 call	 ?activate_ah64a_master_caution@@YGXXZ ; activate_ah64a_master_caution

; 969  : 
; 970  : 		set_ah64a_upfront_display_text ("ENGINE 1 FIRE", "", NULL, NULL);

  00096	6a 00		 push	 0
  00098	6a 00		 push	 0
  0009a	68 00 00 00 00	 push	 OFFSET ??_C@_00CNPNBAHC@@
  0009f	68 00 00 00 00	 push	 OFFSET ??_C@_0O@HCOKLILH@ENGINE?51?5FIRE@
  000a4	e8 00 00 00 00	 call	 ?set_ah64a_upfront_display_text@@YGXPAD000@Z ; set_ah64a_upfront_display_text
$LN6@notify_ah6:

; 971  : 	}
; 972  : 
; 973  : 	if (damage & DYNAMICS_DAMAGE_RIGHT_ENGINE_FIRE)

  000a9	8b 45 08	 mov	 eax, DWORD PTR _damage$[ebp]
  000ac	83 e0 40	 and	 eax, 64			; 00000040H
  000af	74 18		 je	 SHORT $LN7@notify_ah6

; 974  : 	{
; 975  : 		activate_ah64a_master_caution ();

  000b1	e8 00 00 00 00	 call	 ?activate_ah64a_master_caution@@YGXXZ ; activate_ah64a_master_caution

; 976  : 
; 977  : 		set_ah64a_upfront_display_text ("ENGINE 2 FIRE", "", NULL, NULL);

  000b6	6a 00		 push	 0
  000b8	6a 00		 push	 0
  000ba	68 00 00 00 00	 push	 OFFSET ??_C@_00CNPNBAHC@@
  000bf	68 00 00 00 00	 push	 OFFSET ??_C@_0O@EDACKCCK@ENGINE?52?5FIRE@
  000c4	e8 00 00 00 00	 call	 ?set_ah64a_upfront_display_text@@YGXPAD000@Z ; set_ah64a_upfront_display_text
$LN7@notify_ah6:

; 978  : 	}
; 979  : 
; 980  : 	if (damage & DYNAMICS_DAMAGE_LOW_HYDRAULICS)

  000c9	8b 45 08	 mov	 eax, DWORD PTR _damage$[ebp]
  000cc	25 80 00 00 00	 and	 eax, 128		; 00000080H
  000d1	74 13		 je	 SHORT $LN8@notify_ah6

; 981  : 	{
; 982  : 		set_ah64a_upfront_display_text ("HYDRAULICS", "PRESSURE LOW", NULL, NULL);

  000d3	6a 00		 push	 0
  000d5	6a 00		 push	 0
  000d7	68 00 00 00 00	 push	 OFFSET ??_C@_0N@PPIEOIMG@PRESSURE?5LOW@
  000dc	68 00 00 00 00	 push	 OFFSET ??_C@_0L@POFMFPD@HYDRAULICS@
  000e1	e8 00 00 00 00	 call	 ?set_ah64a_upfront_display_text@@YGXPAD000@Z ; set_ah64a_upfront_display_text
$LN8@notify_ah6:

; 983  : 	}
; 984  : 
; 985  : 	if (damage & DYNAMICS_DAMAGE_SECONDARY_HYDRAULICS)

  000e6	8b 45 08	 mov	 eax, DWORD PTR _damage$[ebp]
  000e9	25 00 00 02 00	 and	 eax, 131072		; 00020000H
  000ee	74 13		 je	 SHORT $LN9@notify_ah6

; 986  : 	{
; 987  : 		set_ah64a_upfront_display_text ("SEC HYDRAULICS", "DAMAGED", NULL, NULL);

  000f0	6a 00		 push	 0
  000f2	6a 00		 push	 0
  000f4	68 00 00 00 00	 push	 OFFSET ??_C@_07OHKEFPKJ@DAMAGED@
  000f9	68 00 00 00 00	 push	 OFFSET ??_C@_0P@PBDJEGLC@SEC?5HYDRAULICS@
  000fe	e8 00 00 00 00	 call	 ?set_ah64a_upfront_display_text@@YGXPAD000@Z ; set_ah64a_upfront_display_text
$LN9@notify_ah6:

; 988  : 	}
; 989  : 
; 990  : 	if (damage & DYNAMICS_DAMAGE_STABILISER)

  00103	8b 45 08	 mov	 eax, DWORD PTR _damage$[ebp]
  00106	25 00 01 00 00	 and	 eax, 256		; 00000100H
  0010b	74 13		 je	 SHORT $LN10@notify_ah6

; 991  : 	{
; 992  : 		set_ah64a_upfront_display_text ("STABILISER", "FAILURE", NULL, NULL);

  0010d	6a 00		 push	 0
  0010f	6a 00		 push	 0
  00111	68 00 00 00 00	 push	 OFFSET ??_C@_07DMOCMFND@FAILURE@
  00116	68 00 00 00 00	 push	 OFFSET ??_C@_0L@LMAEBBOE@STABILISER@
  0011b	e8 00 00 00 00	 call	 ?set_ah64a_upfront_display_text@@YGXPAD000@Z ; set_ah64a_upfront_display_text
$LN10@notify_ah6:

; 993  : 	}
; 994  : 
; 995  : 	if (damage & DYNAMICS_DAMAGE_FUEL_LEAK)

  00120	8b 45 08	 mov	 eax, DWORD PTR _damage$[ebp]
  00123	25 00 02 00 00	 and	 eax, 512		; 00000200H
  00128	74 13		 je	 SHORT $LN11@notify_ah6

; 996  : 	{
; 997  : 		set_ah64a_upfront_display_text ("FUEL LEAK", "", NULL, NULL);

  0012a	6a 00		 push	 0
  0012c	6a 00		 push	 0
  0012e	68 00 00 00 00	 push	 OFFSET ??_C@_00CNPNBAHC@@
  00133	68 00 00 00 00	 push	 OFFSET ??_C@_09BHCFOJL@FUEL?5LEAK@
  00138	e8 00 00 00 00	 call	 ?set_ah64a_upfront_display_text@@YGXPAD000@Z ; set_ah64a_upfront_display_text
$LN11@notify_ah6:

; 998  : 	}
; 999  : 
; 1000 : 	if (damage & DYNAMICS_DAMAGE_LOW_OIL_PRESSURE)

  0013d	8b 45 08	 mov	 eax, DWORD PTR _damage$[ebp]
  00140	25 00 04 00 00	 and	 eax, 1024		; 00000400H
  00145	74 13		 je	 SHORT $LN12@notify_ah6

; 1001 : 	{
; 1002 : 		set_ah64a_upfront_display_text ("LOW OIL", "PRESSURE", NULL, NULL);

  00147	6a 00		 push	 0
  00149	6a 00		 push	 0
  0014b	68 00 00 00 00	 push	 OFFSET ??_C@_08IBNIHFAO@PRESSURE@
  00150	68 00 00 00 00	 push	 OFFSET ??_C@_07GGBGBLMC@LOW?5OIL@
  00155	e8 00 00 00 00	 call	 ?set_ah64a_upfront_display_text@@YGXPAD000@Z ; set_ah64a_upfront_display_text
$LN12@notify_ah6:

; 1003 : 	}
; 1004 : 
; 1005 : 	if (damage & DYNAMICS_DAMAGE_HIGH_OIL_PRESSURE)

  0015a	8b 45 08	 mov	 eax, DWORD PTR _damage$[ebp]
  0015d	25 00 08 00 00	 and	 eax, 2048		; 00000800H
  00162	74 13		 je	 SHORT $LN1@notify_ah6

; 1006 : 	{
; 1007 : 		set_ah64a_upfront_display_text ("HIGH OIL", "PRESSURE", NULL, NULL);

  00164	6a 00		 push	 0
  00166	6a 00		 push	 0
  00168	68 00 00 00 00	 push	 OFFSET ??_C@_08IBNIHFAO@PRESSURE@
  0016d	68 00 00 00 00	 push	 OFFSET ??_C@_08JPIIBFH@HIGH?5OIL@
  00172	e8 00 00 00 00	 call	 ?set_ah64a_upfront_display_text@@YGXPAD000@Z ; set_ah64a_upfront_display_text
$LN1@notify_ah6:

; 1008 : 	}
; 1009 : }

  00177	5f		 pop	 edi
  00178	5e		 pop	 esi
  00179	5b		 pop	 ebx
  0017a	8b e5		 mov	 esp, ebp
  0017c	5d		 pop	 ebp
  0017d	c2 04 00	 ret	 4
?notify_ah64a_avionics_of_dynamics_fault@@YGXI@Z ENDP	; notify_ah64a_avionics_of_dynamics_fault
_TEXT	ENDS
; Function compile flags: /Odtp /ZI
; File c:\users\nhv90\projects\eech\aphavoc\source\gunships\avionics\ah64a\ah_dam.c
;	COMDAT ?damage_ah64a@@YGXW4GUNSHIP_DAMAGE_LEVELS@@@Z
_TEXT	SEGMENT
tv64 = -76						; size = 4
_ah64a_damage$ = -8					; size = 4
_damage$ = -4						; size = 4
_damage_level$ = 8					; size = 4
?damage_ah64a@@YGXW4GUNSHIP_DAMAGE_LEVELS@@@Z PROC	; damage_ah64a, COMDAT

; 887  : {

  00000	55		 push	 ebp
  00001	8b ec		 mov	 ebp, esp
  00003	83 ec 4c	 sub	 esp, 76			; 0000004cH
  00006	53		 push	 ebx
  00007	56		 push	 esi
  00008	57		 push	 edi

; 888  : 	unsigned int
; 889  : 		damage;
; 890  : 
; 891  : 	ah64a_damage_flags
; 892  : 		ah64a_damage;
; 893  : 
; 894  : 	damage = 0;

  00009	c7 45 fc 00 00
	00 00		 mov	 DWORD PTR _damage$[ebp], 0

; 895  : 
; 896  : 	switch (damage_level)

  00010	8b 45 08	 mov	 eax, DWORD PTR _damage_level$[ebp]
  00013	89 45 b4	 mov	 DWORD PTR tv64[ebp], eax
  00016	83 7d b4 00	 cmp	 DWORD PTR tv64[ebp], 0
  0001a	74 15		 je	 SHORT $LN4@damage_ah6
  0001c	83 7d b4 01	 cmp	 DWORD PTR tv64[ebp], 1
  00020	74 47		 je	 SHORT $LN5@damage_ah6
  00022	83 7d b4 02	 cmp	 DWORD PTR tv64[ebp], 2
  00026	0f 84 a8 00 00
	00		 je	 $LN6@damage_ah6
  0002c	e9 3e 01 00 00	 jmp	 $LN7@damage_ah6
$LN4@damage_ah6:

; 897  : 	{
; 898  : 		case GUNSHIP_DAMAGE_LEVEL_LIGHT:
; 899  : 		{
; 900  : 			damage |= 1 << (rand16 () & 0x1f);

  00031	69 05 00 00 00
	00 6d 4e c6 41	 imul	 eax, DWORD PTR ?random_number_seed@@3HA, 1103515245 ; random_number_seed
  0003b	05 39 30 00 00	 add	 eax, 12345		; 00003039H
  00040	a3 00 00 00 00	 mov	 DWORD PTR ?random_number_seed@@3HA, eax ; random_number_seed
  00045	8b 0d 00 00 00
	00		 mov	 ecx, DWORD PTR ?random_number_seed@@3HA ; random_number_seed
  0004b	c1 f9 10	 sar	 ecx, 16			; 00000010H
  0004e	81 e1 ff 7f 00
	00		 and	 ecx, 32767		; 00007fffH
  00054	83 e1 1f	 and	 ecx, 31			; 0000001fH
  00057	ba 01 00 00 00	 mov	 edx, 1
  0005c	d3 e2		 shl	 edx, cl
  0005e	0b 55 fc	 or	 edx, DWORD PTR _damage$[ebp]
  00061	89 55 fc	 mov	 DWORD PTR _damage$[ebp], edx

; 901  : 
; 902  : 			break;

  00064	e9 17 01 00 00	 jmp	 $LN2@damage_ah6
$LN5@damage_ah6:

; 903  : 		}
; 904  : 		case GUNSHIP_DAMAGE_LEVEL_MEDIUM:
; 905  : 		{
; 906  : 			damage |= 1 << (rand16 () & 0x1f);

  00069	69 05 00 00 00
	00 6d 4e c6 41	 imul	 eax, DWORD PTR ?random_number_seed@@3HA, 1103515245 ; random_number_seed
  00073	05 39 30 00 00	 add	 eax, 12345		; 00003039H
  00078	a3 00 00 00 00	 mov	 DWORD PTR ?random_number_seed@@3HA, eax ; random_number_seed
  0007d	8b 0d 00 00 00
	00		 mov	 ecx, DWORD PTR ?random_number_seed@@3HA ; random_number_seed
  00083	c1 f9 10	 sar	 ecx, 16			; 00000010H
  00086	81 e1 ff 7f 00
	00		 and	 ecx, 32767		; 00007fffH
  0008c	83 e1 1f	 and	 ecx, 31			; 0000001fH
  0008f	ba 01 00 00 00	 mov	 edx, 1
  00094	d3 e2		 shl	 edx, cl
  00096	0b 55 fc	 or	 edx, DWORD PTR _damage$[ebp]
  00099	89 55 fc	 mov	 DWORD PTR _damage$[ebp], edx

; 907  : 			damage |= 1 << (rand16 () & 0x1f);

  0009c	69 05 00 00 00
	00 6d 4e c6 41	 imul	 eax, DWORD PTR ?random_number_seed@@3HA, 1103515245 ; random_number_seed
  000a6	05 39 30 00 00	 add	 eax, 12345		; 00003039H
  000ab	a3 00 00 00 00	 mov	 DWORD PTR ?random_number_seed@@3HA, eax ; random_number_seed
  000b0	8b 0d 00 00 00
	00		 mov	 ecx, DWORD PTR ?random_number_seed@@3HA ; random_number_seed
  000b6	c1 f9 10	 sar	 ecx, 16			; 00000010H
  000b9	81 e1 ff 7f 00
	00		 and	 ecx, 32767		; 00007fffH
  000bf	83 e1 1f	 and	 ecx, 31			; 0000001fH
  000c2	ba 01 00 00 00	 mov	 edx, 1
  000c7	d3 e2		 shl	 edx, cl
  000c9	0b 55 fc	 or	 edx, DWORD PTR _damage$[ebp]
  000cc	89 55 fc	 mov	 DWORD PTR _damage$[ebp], edx

; 908  : 
; 909  : 			break;

  000cf	e9 ac 00 00 00	 jmp	 $LN2@damage_ah6
$LN6@damage_ah6:

; 910  : 		}
; 911  : 		case GUNSHIP_DAMAGE_LEVEL_HEAVY:
; 912  : 		{
; 913  : 			damage |= 1 << (rand16 () & 0x1f);

  000d4	69 05 00 00 00
	00 6d 4e c6 41	 imul	 eax, DWORD PTR ?random_number_seed@@3HA, 1103515245 ; random_number_seed
  000de	05 39 30 00 00	 add	 eax, 12345		; 00003039H
  000e3	a3 00 00 00 00	 mov	 DWORD PTR ?random_number_seed@@3HA, eax ; random_number_seed
  000e8	8b 0d 00 00 00
	00		 mov	 ecx, DWORD PTR ?random_number_seed@@3HA ; random_number_seed
  000ee	c1 f9 10	 sar	 ecx, 16			; 00000010H
  000f1	81 e1 ff 7f 00
	00		 and	 ecx, 32767		; 00007fffH
  000f7	83 e1 1f	 and	 ecx, 31			; 0000001fH
  000fa	ba 01 00 00 00	 mov	 edx, 1
  000ff	d3 e2		 shl	 edx, cl
  00101	0b 55 fc	 or	 edx, DWORD PTR _damage$[ebp]
  00104	89 55 fc	 mov	 DWORD PTR _damage$[ebp], edx

; 914  : 			damage |= 1 << (rand16 () & 0x1f);

  00107	69 05 00 00 00
	00 6d 4e c6 41	 imul	 eax, DWORD PTR ?random_number_seed@@3HA, 1103515245 ; random_number_seed
  00111	05 39 30 00 00	 add	 eax, 12345		; 00003039H
  00116	a3 00 00 00 00	 mov	 DWORD PTR ?random_number_seed@@3HA, eax ; random_number_seed
  0011b	8b 0d 00 00 00
	00		 mov	 ecx, DWORD PTR ?random_number_seed@@3HA ; random_number_seed
  00121	c1 f9 10	 sar	 ecx, 16			; 00000010H
  00124	81 e1 ff 7f 00
	00		 and	 ecx, 32767		; 00007fffH
  0012a	83 e1 1f	 and	 ecx, 31			; 0000001fH
  0012d	ba 01 00 00 00	 mov	 edx, 1
  00132	d3 e2		 shl	 edx, cl
  00134	0b 55 fc	 or	 edx, DWORD PTR _damage$[ebp]
  00137	89 55 fc	 mov	 DWORD PTR _damage$[ebp], edx

; 915  : 			damage |= 1 << (rand16 () & 0x1f);

  0013a	69 05 00 00 00
	00 6d 4e c6 41	 imul	 eax, DWORD PTR ?random_number_seed@@3HA, 1103515245 ; random_number_seed
  00144	05 39 30 00 00	 add	 eax, 12345		; 00003039H
  00149	a3 00 00 00 00	 mov	 DWORD PTR ?random_number_seed@@3HA, eax ; random_number_seed
  0014e	8b 0d 00 00 00
	00		 mov	 ecx, DWORD PTR ?random_number_seed@@3HA ; random_number_seed
  00154	c1 f9 10	 sar	 ecx, 16			; 00000010H
  00157	81 e1 ff 7f 00
	00		 and	 ecx, 32767		; 00007fffH
  0015d	83 e1 1f	 and	 ecx, 31			; 0000001fH
  00160	ba 01 00 00 00	 mov	 edx, 1
  00165	d3 e2		 shl	 edx, cl
  00167	0b 55 fc	 or	 edx, DWORD PTR _damage$[ebp]
  0016a	89 55 fc	 mov	 DWORD PTR _damage$[ebp], edx

; 916  : 
; 917  : 			break;

  0016d	eb 11		 jmp	 SHORT $LN2@damage_ah6
$LN7@damage_ah6:

; 918  : 		}
; 919  : 		default:
; 920  : 		{
; 921  : 			debug_fatal ("Invalid damage_level = %d", damage_level);

  0016f	8b 45 08	 mov	 eax, DWORD PTR _damage_level$[ebp]
  00172	50		 push	 eax
  00173	68 00 00 00 00	 push	 OFFSET ??_C@_0BK@EECAIEOA@Invalid?5damage_level?5?$DN?5?$CFd@
  00178	e8 00 00 00 00	 call	 ?debug_fatal@@YAXPBDZZ	; debug_fatal
  0017d	83 c4 08	 add	 esp, 8
$LN2@damage_ah6:

; 922  : 
; 923  : 			break;
; 924  : 		}
; 925  : 	}
; 926  : 
; 927  : 	ah64a_damage.flags = damage;

  00180	8b 45 fc	 mov	 eax, DWORD PTR _damage$[ebp]
  00183	89 45 f8	 mov	 DWORD PTR _ah64a_damage$[ebp], eax

; 928  : 
; 929  : 	damage_systems (ah64a_damage);

  00186	8b 45 f8	 mov	 eax, DWORD PTR _ah64a_damage$[ebp]
  00189	50		 push	 eax
  0018a	e8 00 00 00 00	 call	 ?damage_systems@@YGXTAH64A_DAMAGE_FLAGS@@@Z ; damage_systems

; 930  : }

  0018f	5f		 pop	 edi
  00190	5e		 pop	 esi
  00191	5b		 pop	 ebx
  00192	8b e5		 mov	 esp, ebp
  00194	5d		 pop	 ebp
  00195	c2 04 00	 ret	 4
?damage_ah64a@@YGXW4GUNSHIP_DAMAGE_LEVELS@@@Z ENDP	; damage_ah64a
_TEXT	ENDS
; Function compile flags: /Odtp /ZI
; File c:\users\nhv90\projects\eech\aphavoc\source\gunships\avionics\ah64a\ah_dam.c
;	COMDAT ?repair_ah64a_weapon_damage@@YGXXZ
_TEXT	SEGMENT
?repair_ah64a_weapon_damage@@YGXXZ PROC			; repair_ah64a_weapon_damage, COMDAT

; 434  : {

  00000	55		 push	 ebp
  00001	8b ec		 mov	 ebp, esp
  00003	83 ec 40	 sub	 esp, 64			; 00000040H
  00006	53		 push	 ebx
  00007	56		 push	 esi
  00008	57		 push	 edi

; 435  : 	set_ah64a_upfront_display_text ("", "", NULL, NULL);

  00009	6a 00		 push	 0
  0000b	6a 00		 push	 0
  0000d	68 00 00 00 00	 push	 OFFSET ??_C@_00CNPNBAHC@@
  00012	68 00 00 00 00	 push	 OFFSET ??_C@_00CNPNBAHC@@
  00017	e8 00 00 00 00	 call	 ?set_ah64a_upfront_display_text@@YGXPAD000@Z ; set_ah64a_upfront_display_text

; 436  : 
; 437  : 	ah64a_damage.gun_jammed			= FALSE;

  0001c	a1 00 00 00 00	 mov	 eax, DWORD PTR ?ah64a_damage@@3TAH64A_DAMAGE_FLAGS@@A ; ah64a_damage
  00021	25 ff ff f7 ff	 and	 eax, -524289		; fff7ffffH
  00026	a3 00 00 00 00	 mov	 DWORD PTR ?ah64a_damage@@3TAH64A_DAMAGE_FLAGS@@A, eax ; ah64a_damage

; 438  : 	ah64a_damage.lh_wing_tip_mount	= FALSE;

  0002b	a1 00 00 00 00	 mov	 eax, DWORD PTR ?ah64a_damage@@3TAH64A_DAMAGE_FLAGS@@A ; ah64a_damage
  00030	25 ff ff ef ff	 and	 eax, -1048577		; ffefffffH
  00035	a3 00 00 00 00	 mov	 DWORD PTR ?ah64a_damage@@3TAH64A_DAMAGE_FLAGS@@A, eax ; ah64a_damage

; 439  : 	ah64a_damage.lh_outer_pylon		= FALSE;

  0003a	a1 00 00 00 00	 mov	 eax, DWORD PTR ?ah64a_damage@@3TAH64A_DAMAGE_FLAGS@@A ; ah64a_damage
  0003f	25 ff ff bf ff	 and	 eax, -4194305		; ffbfffffH
  00044	a3 00 00 00 00	 mov	 DWORD PTR ?ah64a_damage@@3TAH64A_DAMAGE_FLAGS@@A, eax ; ah64a_damage

; 440  : 	ah64a_damage.lh_inner_pylon		= FALSE;

  00049	a1 00 00 00 00	 mov	 eax, DWORD PTR ?ah64a_damage@@3TAH64A_DAMAGE_FLAGS@@A ; ah64a_damage
  0004e	25 ff ff 7f ff	 and	 eax, -8388609		; ff7fffffH
  00053	a3 00 00 00 00	 mov	 DWORD PTR ?ah64a_damage@@3TAH64A_DAMAGE_FLAGS@@A, eax ; ah64a_damage

; 441  : 	ah64a_damage.rh_wing_tip_mount	= FALSE;

  00058	a1 00 00 00 00	 mov	 eax, DWORD PTR ?ah64a_damage@@3TAH64A_DAMAGE_FLAGS@@A ; ah64a_damage
  0005d	25 ff ff ff fd	 and	 eax, -33554433		; fdffffffH
  00062	a3 00 00 00 00	 mov	 DWORD PTR ?ah64a_damage@@3TAH64A_DAMAGE_FLAGS@@A, eax ; ah64a_damage

; 442  : 	ah64a_damage.rh_outer_pylon		= FALSE;

  00067	a1 00 00 00 00	 mov	 eax, DWORD PTR ?ah64a_damage@@3TAH64A_DAMAGE_FLAGS@@A ; ah64a_damage
  0006c	25 ff ff ff fb	 and	 eax, -67108865		; fbffffffH
  00071	a3 00 00 00 00	 mov	 DWORD PTR ?ah64a_damage@@3TAH64A_DAMAGE_FLAGS@@A, eax ; ah64a_damage

; 443  : 	ah64a_damage.rh_inner_pylon		= FALSE;

  00076	a1 00 00 00 00	 mov	 eax, DWORD PTR ?ah64a_damage@@3TAH64A_DAMAGE_FLAGS@@A ; ah64a_damage
  0007b	25 ff ff ff ef	 and	 eax, -268435457		; efffffffH
  00080	a3 00 00 00 00	 mov	 DWORD PTR ?ah64a_damage@@3TAH64A_DAMAGE_FLAGS@@A, eax ; ah64a_damage

; 444  : 	ah64a_damage.chaff_dispenser		= FALSE;

  00085	a1 00 00 00 00	 mov	 eax, DWORD PTR ?ah64a_damage@@3TAH64A_DAMAGE_FLAGS@@A ; ah64a_damage
  0008a	25 ff ff ff df	 and	 eax, -536870913		; dfffffffH
  0008f	a3 00 00 00 00	 mov	 DWORD PTR ?ah64a_damage@@3TAH64A_DAMAGE_FLAGS@@A, eax ; ah64a_damage

; 445  : 	ah64a_damage.flare_dispenser		= FALSE;

  00094	a1 00 00 00 00	 mov	 eax, DWORD PTR ?ah64a_damage@@3TAH64A_DAMAGE_FLAGS@@A ; ah64a_damage
  00099	25 ff ff ff 7f	 and	 eax, 2147483647		; 7fffffffH
  0009e	a3 00 00 00 00	 mov	 DWORD PTR ?ah64a_damage@@3TAH64A_DAMAGE_FLAGS@@A, eax ; ah64a_damage

; 446  : 
; 447  : 	set_ah64a_weapon_damage_status ();

  000a3	e8 00 00 00 00	 call	 ?set_ah64a_weapon_damage_status@@YGXXZ ; set_ah64a_weapon_damage_status

; 448  : }

  000a8	5f		 pop	 edi
  000a9	5e		 pop	 esi
  000aa	5b		 pop	 ebx
  000ab	8b e5		 mov	 esp, ebp
  000ad	5d		 pop	 ebp
  000ae	c3		 ret	 0
?repair_ah64a_weapon_damage@@YGXXZ ENDP			; repair_ah64a_weapon_damage
_TEXT	ENDS
; Function compile flags: /Odtp /ZI
; File c:\users\nhv90\projects\eech\aphavoc\source\gunships\avionics\ah64a\ah_dam.c
;	COMDAT ?partially_repair_ah64a_damage@@YGXXZ
_TEXT	SEGMENT
tv448 = -68						; size = 4
tv433 = -68						; size = 4
tv418 = -68						; size = 4
tv403 = -68						; size = 4
tv388 = -68						; size = 4
tv373 = -68						; size = 4
tv358 = -68						; size = 4
tv343 = -68						; size = 4
tv328 = -68						; size = 4
tv313 = -68						; size = 4
tv293 = -68						; size = 4
tv273 = -68						; size = 4
tv258 = -68						; size = 4
tv243 = -68						; size = 4
tv228 = -68						; size = 4
tv213 = -68						; size = 4
tv198 = -68						; size = 4
tv183 = -68						; size = 4
tv168 = -68						; size = 4
tv153 = -68						; size = 4
tv138 = -68						; size = 4
tv91 = -68						; size = 4
tv77 = -68						; size = 4
?partially_repair_ah64a_damage@@YGXXZ PROC		; partially_repair_ah64a_damage, COMDAT

; 248  : {

  00000	55		 push	 ebp
  00001	8b ec		 mov	 ebp, esp
  00003	83 ec 44	 sub	 esp, 68			; 00000044H
  00006	53		 push	 ebx
  00007	56		 push	 esi
  00008	57		 push	 edi

; 249  : 	set_ah64a_upfront_display_text ("", "", NULL, NULL);

  00009	6a 00		 push	 0
  0000b	6a 00		 push	 0
  0000d	68 00 00 00 00	 push	 OFFSET ??_C@_00CNPNBAHC@@
  00012	68 00 00 00 00	 push	 OFFSET ??_C@_00CNPNBAHC@@
  00017	e8 00 00 00 00	 call	 ?set_ah64a_upfront_display_text@@YGXPAD000@Z ; set_ah64a_upfront_display_text

; 250  : 
; 251  : 	fire_extinguisher_used = FALSE;

  0001c	c7 05 00 00 00
	00 00 00 00 00	 mov	 DWORD PTR ?fire_extinguisher_used@@3HA, 0 ; fire_extinguisher_used

; 252  : 
; 253  : 	////////////////////////////////////////
; 254  : 
; 255  : 	if (ah64a_damage.radar)

  00026	a1 00 00 00 00	 mov	 eax, DWORD PTR ?ah64a_damage@@3TAH64A_DAMAGE_FLAGS@@A ; ah64a_damage
  0002b	83 e0 01	 and	 eax, 1
  0002e	74 5e		 je	 SHORT $LN2@partially_

; 256  : 	{
; 257  : 		ah64a_damage.radar = frand1 () > 0.90;

  00030	69 05 00 00 00
	00 6d 4e c6 41	 imul	 eax, DWORD PTR ?random_number_seed@@3HA, 1103515245 ; random_number_seed
  0003a	05 39 30 00 00	 add	 eax, 12345		; 00003039H
  0003f	a3 00 00 00 00	 mov	 DWORD PTR ?random_number_seed@@3HA, eax ; random_number_seed
  00044	8b 0d 00 00 00
	00		 mov	 ecx, DWORD PTR ?random_number_seed@@3HA ; random_number_seed
  0004a	c1 f9 10	 sar	 ecx, 16			; 00000010H
  0004d	81 e1 ff 7f 00
	00		 and	 ecx, 32767		; 00007fffH
  00053	f2 0f 2a c1	 cvtsi2sd xmm0, ecx
  00057	f2 0f 59 05 00
	00 00 00	 mulsd	 xmm0, QWORD PTR __real@3f00002000400080
  0005f	66 0f 2f 05 00
	00 00 00	 comisd	 xmm0, QWORD PTR __real@3feccccccccccccd
  00067	76 09		 jbe	 SHORT $LN28@partially_
  00069	c7 45 bc 01 00
	00 00		 mov	 DWORD PTR tv77[ebp], 1
  00070	eb 07		 jmp	 SHORT $LN29@partially_
$LN28@partially_:
  00072	c7 45 bc 00 00
	00 00		 mov	 DWORD PTR tv77[ebp], 0
$LN29@partially_:
  00079	8b 55 bc	 mov	 edx, DWORD PTR tv77[ebp]
  0007c	83 e2 01	 and	 edx, 1
  0007f	a1 00 00 00 00	 mov	 eax, DWORD PTR ?ah64a_damage@@3TAH64A_DAMAGE_FLAGS@@A ; ah64a_damage
  00084	83 e0 fe	 and	 eax, -2			; fffffffeH
  00087	0b c2		 or	 eax, edx
  00089	a3 00 00 00 00	 mov	 DWORD PTR ?ah64a_damage@@3TAH64A_DAMAGE_FLAGS@@A, eax ; ah64a_damage
$LN2@partially_:

; 258  : 	}
; 259  : 
; 260  : 	////////////////////////////////////////
; 261  : 
; 262  : 	if (ah64a_damage.flir)

  0008e	a1 00 00 00 00	 mov	 eax, DWORD PTR ?ah64a_damage@@3TAH64A_DAMAGE_FLAGS@@A ; ah64a_damage
  00093	c1 e8 02	 shr	 eax, 2
  00096	83 e0 01	 and	 eax, 1
  00099	74 61		 je	 SHORT $LN3@partially_

; 263  : 	{
; 264  : 		ah64a_damage.flir = frand1 () > 0.90;

  0009b	69 05 00 00 00
	00 6d 4e c6 41	 imul	 eax, DWORD PTR ?random_number_seed@@3HA, 1103515245 ; random_number_seed
  000a5	05 39 30 00 00	 add	 eax, 12345		; 00003039H
  000aa	a3 00 00 00 00	 mov	 DWORD PTR ?random_number_seed@@3HA, eax ; random_number_seed
  000af	8b 0d 00 00 00
	00		 mov	 ecx, DWORD PTR ?random_number_seed@@3HA ; random_number_seed
  000b5	c1 f9 10	 sar	 ecx, 16			; 00000010H
  000b8	81 e1 ff 7f 00
	00		 and	 ecx, 32767		; 00007fffH
  000be	f2 0f 2a c1	 cvtsi2sd xmm0, ecx
  000c2	f2 0f 59 05 00
	00 00 00	 mulsd	 xmm0, QWORD PTR __real@3f00002000400080
  000ca	66 0f 2f 05 00
	00 00 00	 comisd	 xmm0, QWORD PTR __real@3feccccccccccccd
  000d2	76 09		 jbe	 SHORT $LN30@partially_
  000d4	c7 45 bc 01 00
	00 00		 mov	 DWORD PTR tv91[ebp], 1
  000db	eb 07		 jmp	 SHORT $LN31@partially_
$LN30@partially_:
  000dd	c7 45 bc 00 00
	00 00		 mov	 DWORD PTR tv91[ebp], 0
$LN31@partially_:
  000e4	8b 55 bc	 mov	 edx, DWORD PTR tv91[ebp]
  000e7	83 e2 01	 and	 edx, 1
  000ea	c1 e2 02	 shl	 edx, 2
  000ed	a1 00 00 00 00	 mov	 eax, DWORD PTR ?ah64a_damage@@3TAH64A_DAMAGE_FLAGS@@A ; ah64a_damage
  000f2	83 e0 fb	 and	 eax, -5			; fffffffbH
  000f5	0b c2		 or	 eax, edx
  000f7	a3 00 00 00 00	 mov	 DWORD PTR ?ah64a_damage@@3TAH64A_DAMAGE_FLAGS@@A, eax ; ah64a_damage
$LN3@partially_:

; 265  : 	}
; 266  : 
; 267  : 	////////////////////////////////////////
; 268  : 
; 269  : 	if (ah64a_damage.dtv)

  000fc	a1 00 00 00 00	 mov	 eax, DWORD PTR ?ah64a_damage@@3TAH64A_DAMAGE_FLAGS@@A ; ah64a_damage
  00101	c1 e8 03	 shr	 eax, 3
  00104	83 e0 01	 and	 eax, 1
  00107	74 61		 je	 SHORT $LN4@partially_

; 270  : 	{
; 271  : 		ah64a_damage.dtv = frand1 () > 0.90;

  00109	69 05 00 00 00
	00 6d 4e c6 41	 imul	 eax, DWORD PTR ?random_number_seed@@3HA, 1103515245 ; random_number_seed
  00113	05 39 30 00 00	 add	 eax, 12345		; 00003039H
  00118	a3 00 00 00 00	 mov	 DWORD PTR ?random_number_seed@@3HA, eax ; random_number_seed
  0011d	8b 0d 00 00 00
	00		 mov	 ecx, DWORD PTR ?random_number_seed@@3HA ; random_number_seed
  00123	c1 f9 10	 sar	 ecx, 16			; 00000010H
  00126	81 e1 ff 7f 00
	00		 and	 ecx, 32767		; 00007fffH
  0012c	f2 0f 2a c1	 cvtsi2sd xmm0, ecx
  00130	f2 0f 59 05 00
	00 00 00	 mulsd	 xmm0, QWORD PTR __real@3f00002000400080
  00138	66 0f 2f 05 00
	00 00 00	 comisd	 xmm0, QWORD PTR __real@3feccccccccccccd
  00140	76 09		 jbe	 SHORT $LN32@partially_
  00142	c7 45 bc 01 00
	00 00		 mov	 DWORD PTR tv138[ebp], 1
  00149	eb 07		 jmp	 SHORT $LN33@partially_
$LN32@partially_:
  0014b	c7 45 bc 00 00
	00 00		 mov	 DWORD PTR tv138[ebp], 0
$LN33@partially_:
  00152	8b 55 bc	 mov	 edx, DWORD PTR tv138[ebp]
  00155	83 e2 01	 and	 edx, 1
  00158	c1 e2 03	 shl	 edx, 3
  0015b	a1 00 00 00 00	 mov	 eax, DWORD PTR ?ah64a_damage@@3TAH64A_DAMAGE_FLAGS@@A ; ah64a_damage
  00160	83 e0 f7	 and	 eax, -9			; fffffff7H
  00163	0b c2		 or	 eax, edx
  00165	a3 00 00 00 00	 mov	 DWORD PTR ?ah64a_damage@@3TAH64A_DAMAGE_FLAGS@@A, eax ; ah64a_damage
$LN4@partially_:

; 272  : 	}
; 273  : 
; 274  : 	////////////////////////////////////////
; 275  : 
; 276  : 	if (ah64a_damage.dvo)

  0016a	a1 00 00 00 00	 mov	 eax, DWORD PTR ?ah64a_damage@@3TAH64A_DAMAGE_FLAGS@@A ; ah64a_damage
  0016f	c1 e8 04	 shr	 eax, 4
  00172	83 e0 01	 and	 eax, 1
  00175	74 61		 je	 SHORT $LN5@partially_

; 277  : 	{
; 278  : 		ah64a_damage.dvo = frand1 () > 0.90;

  00177	69 05 00 00 00
	00 6d 4e c6 41	 imul	 eax, DWORD PTR ?random_number_seed@@3HA, 1103515245 ; random_number_seed
  00181	05 39 30 00 00	 add	 eax, 12345		; 00003039H
  00186	a3 00 00 00 00	 mov	 DWORD PTR ?random_number_seed@@3HA, eax ; random_number_seed
  0018b	8b 0d 00 00 00
	00		 mov	 ecx, DWORD PTR ?random_number_seed@@3HA ; random_number_seed
  00191	c1 f9 10	 sar	 ecx, 16			; 00000010H
  00194	81 e1 ff 7f 00
	00		 and	 ecx, 32767		; 00007fffH
  0019a	f2 0f 2a c1	 cvtsi2sd xmm0, ecx
  0019e	f2 0f 59 05 00
	00 00 00	 mulsd	 xmm0, QWORD PTR __real@3f00002000400080
  001a6	66 0f 2f 05 00
	00 00 00	 comisd	 xmm0, QWORD PTR __real@3feccccccccccccd
  001ae	76 09		 jbe	 SHORT $LN34@partially_
  001b0	c7 45 bc 01 00
	00 00		 mov	 DWORD PTR tv153[ebp], 1
  001b7	eb 07		 jmp	 SHORT $LN35@partially_
$LN34@partially_:
  001b9	c7 45 bc 00 00
	00 00		 mov	 DWORD PTR tv153[ebp], 0
$LN35@partially_:
  001c0	8b 55 bc	 mov	 edx, DWORD PTR tv153[ebp]
  001c3	83 e2 01	 and	 edx, 1
  001c6	c1 e2 04	 shl	 edx, 4
  001c9	a1 00 00 00 00	 mov	 eax, DWORD PTR ?ah64a_damage@@3TAH64A_DAMAGE_FLAGS@@A ; ah64a_damage
  001ce	83 e0 ef	 and	 eax, -17		; ffffffefH
  001d1	0b c2		 or	 eax, edx
  001d3	a3 00 00 00 00	 mov	 DWORD PTR ?ah64a_damage@@3TAH64A_DAMAGE_FLAGS@@A, eax ; ah64a_damage
$LN5@partially_:

; 279  : 	}
; 280  : 
; 281  : 	////////////////////////////////////////
; 282  : 
; 283  : 	if (ah64a_damage.laser_designator)

  001d8	a1 00 00 00 00	 mov	 eax, DWORD PTR ?ah64a_damage@@3TAH64A_DAMAGE_FLAGS@@A ; ah64a_damage
  001dd	c1 e8 06	 shr	 eax, 6
  001e0	83 e0 01	 and	 eax, 1
  001e3	74 61		 je	 SHORT $LN6@partially_

; 284  : 	{
; 285  : 		ah64a_damage.laser_designator = frand1 () > 0.90;

  001e5	69 05 00 00 00
	00 6d 4e c6 41	 imul	 eax, DWORD PTR ?random_number_seed@@3HA, 1103515245 ; random_number_seed
  001ef	05 39 30 00 00	 add	 eax, 12345		; 00003039H
  001f4	a3 00 00 00 00	 mov	 DWORD PTR ?random_number_seed@@3HA, eax ; random_number_seed
  001f9	8b 0d 00 00 00
	00		 mov	 ecx, DWORD PTR ?random_number_seed@@3HA ; random_number_seed
  001ff	c1 f9 10	 sar	 ecx, 16			; 00000010H
  00202	81 e1 ff 7f 00
	00		 and	 ecx, 32767		; 00007fffH
  00208	f2 0f 2a c1	 cvtsi2sd xmm0, ecx
  0020c	f2 0f 59 05 00
	00 00 00	 mulsd	 xmm0, QWORD PTR __real@3f00002000400080
  00214	66 0f 2f 05 00
	00 00 00	 comisd	 xmm0, QWORD PTR __real@3feccccccccccccd
  0021c	76 09		 jbe	 SHORT $LN36@partially_
  0021e	c7 45 bc 01 00
	00 00		 mov	 DWORD PTR tv168[ebp], 1
  00225	eb 07		 jmp	 SHORT $LN37@partially_
$LN36@partially_:
  00227	c7 45 bc 00 00
	00 00		 mov	 DWORD PTR tv168[ebp], 0
$LN37@partially_:
  0022e	8b 55 bc	 mov	 edx, DWORD PTR tv168[ebp]
  00231	83 e2 01	 and	 edx, 1
  00234	c1 e2 06	 shl	 edx, 6
  00237	a1 00 00 00 00	 mov	 eax, DWORD PTR ?ah64a_damage@@3TAH64A_DAMAGE_FLAGS@@A ; ah64a_damage
  0023c	83 e0 bf	 and	 eax, -65		; ffffffbfH
  0023f	0b c2		 or	 eax, edx
  00241	a3 00 00 00 00	 mov	 DWORD PTR ?ah64a_damage@@3TAH64A_DAMAGE_FLAGS@@A, eax ; ah64a_damage
$LN6@partially_:

; 286  : 	}
; 287  : 
; 288  : 	////////////////////////////////////////
; 289  : 
; 290  : 	if (ah64a_damage.radar_jammer)

  00246	a1 00 00 00 00	 mov	 eax, DWORD PTR ?ah64a_damage@@3TAH64A_DAMAGE_FLAGS@@A ; ah64a_damage
  0024b	c1 e8 07	 shr	 eax, 7
  0024e	83 e0 01	 and	 eax, 1
  00251	74 63		 je	 SHORT $LN7@partially_

; 291  : 	{
; 292  : 		ah64a_damage.radar_jammer = frand1 () > 0.90;

  00253	69 05 00 00 00
	00 6d 4e c6 41	 imul	 eax, DWORD PTR ?random_number_seed@@3HA, 1103515245 ; random_number_seed
  0025d	05 39 30 00 00	 add	 eax, 12345		; 00003039H
  00262	a3 00 00 00 00	 mov	 DWORD PTR ?random_number_seed@@3HA, eax ; random_number_seed
  00267	8b 0d 00 00 00
	00		 mov	 ecx, DWORD PTR ?random_number_seed@@3HA ; random_number_seed
  0026d	c1 f9 10	 sar	 ecx, 16			; 00000010H
  00270	81 e1 ff 7f 00
	00		 and	 ecx, 32767		; 00007fffH
  00276	f2 0f 2a c1	 cvtsi2sd xmm0, ecx
  0027a	f2 0f 59 05 00
	00 00 00	 mulsd	 xmm0, QWORD PTR __real@3f00002000400080
  00282	66 0f 2f 05 00
	00 00 00	 comisd	 xmm0, QWORD PTR __real@3feccccccccccccd
  0028a	76 09		 jbe	 SHORT $LN38@partially_
  0028c	c7 45 bc 01 00
	00 00		 mov	 DWORD PTR tv183[ebp], 1
  00293	eb 07		 jmp	 SHORT $LN39@partially_
$LN38@partially_:
  00295	c7 45 bc 00 00
	00 00		 mov	 DWORD PTR tv183[ebp], 0
$LN39@partially_:
  0029c	8b 55 bc	 mov	 edx, DWORD PTR tv183[ebp]
  0029f	83 e2 01	 and	 edx, 1
  002a2	c1 e2 07	 shl	 edx, 7
  002a5	a1 00 00 00 00	 mov	 eax, DWORD PTR ?ah64a_damage@@3TAH64A_DAMAGE_FLAGS@@A ; ah64a_damage
  002aa	25 7f ff ff ff	 and	 eax, -129		; ffffff7fH
  002af	0b c2		 or	 eax, edx
  002b1	a3 00 00 00 00	 mov	 DWORD PTR ?ah64a_damage@@3TAH64A_DAMAGE_FLAGS@@A, eax ; ah64a_damage
$LN7@partially_:

; 293  : 	}
; 294  : 
; 295  : 	////////////////////////////////////////
; 296  : 
; 297  : 	if (ah64a_damage.infra_red_jammer)

  002b6	a1 00 00 00 00	 mov	 eax, DWORD PTR ?ah64a_damage@@3TAH64A_DAMAGE_FLAGS@@A ; ah64a_damage
  002bb	c1 e8 08	 shr	 eax, 8
  002be	83 e0 01	 and	 eax, 1
  002c1	74 63		 je	 SHORT $LN8@partially_

; 298  : 	{
; 299  : 		ah64a_damage.infra_red_jammer = frand1 () > 0.90;

  002c3	69 05 00 00 00
	00 6d 4e c6 41	 imul	 eax, DWORD PTR ?random_number_seed@@3HA, 1103515245 ; random_number_seed
  002cd	05 39 30 00 00	 add	 eax, 12345		; 00003039H
  002d2	a3 00 00 00 00	 mov	 DWORD PTR ?random_number_seed@@3HA, eax ; random_number_seed
  002d7	8b 0d 00 00 00
	00		 mov	 ecx, DWORD PTR ?random_number_seed@@3HA ; random_number_seed
  002dd	c1 f9 10	 sar	 ecx, 16			; 00000010H
  002e0	81 e1 ff 7f 00
	00		 and	 ecx, 32767		; 00007fffH
  002e6	f2 0f 2a c1	 cvtsi2sd xmm0, ecx
  002ea	f2 0f 59 05 00
	00 00 00	 mulsd	 xmm0, QWORD PTR __real@3f00002000400080
  002f2	66 0f 2f 05 00
	00 00 00	 comisd	 xmm0, QWORD PTR __real@3feccccccccccccd
  002fa	76 09		 jbe	 SHORT $LN40@partially_
  002fc	c7 45 bc 01 00
	00 00		 mov	 DWORD PTR tv198[ebp], 1
  00303	eb 07		 jmp	 SHORT $LN41@partially_
$LN40@partially_:
  00305	c7 45 bc 00 00
	00 00		 mov	 DWORD PTR tv198[ebp], 0
$LN41@partially_:
  0030c	8b 55 bc	 mov	 edx, DWORD PTR tv198[ebp]
  0030f	83 e2 01	 and	 edx, 1
  00312	c1 e2 08	 shl	 edx, 8
  00315	a1 00 00 00 00	 mov	 eax, DWORD PTR ?ah64a_damage@@3TAH64A_DAMAGE_FLAGS@@A ; ah64a_damage
  0031a	25 ff fe ff ff	 and	 eax, -257		; fffffeffH
  0031f	0b c2		 or	 eax, edx
  00321	a3 00 00 00 00	 mov	 DWORD PTR ?ah64a_damage@@3TAH64A_DAMAGE_FLAGS@@A, eax ; ah64a_damage
$LN8@partially_:

; 300  : 	}
; 301  : 
; 302  : 	////////////////////////////////////////
; 303  : 
; 304  : 	if (ah64a_damage.navigation_computer)

  00326	a1 00 00 00 00	 mov	 eax, DWORD PTR ?ah64a_damage@@3TAH64A_DAMAGE_FLAGS@@A ; ah64a_damage
  0032b	c1 e8 0a	 shr	 eax, 10			; 0000000aH
  0032e	83 e0 01	 and	 eax, 1
  00331	74 63		 je	 SHORT $LN9@partially_

; 305  : 	{
; 306  : 		ah64a_damage.navigation_computer = frand1 () > 0.90;

  00333	69 05 00 00 00
	00 6d 4e c6 41	 imul	 eax, DWORD PTR ?random_number_seed@@3HA, 1103515245 ; random_number_seed
  0033d	05 39 30 00 00	 add	 eax, 12345		; 00003039H
  00342	a3 00 00 00 00	 mov	 DWORD PTR ?random_number_seed@@3HA, eax ; random_number_seed
  00347	8b 0d 00 00 00
	00		 mov	 ecx, DWORD PTR ?random_number_seed@@3HA ; random_number_seed
  0034d	c1 f9 10	 sar	 ecx, 16			; 00000010H
  00350	81 e1 ff 7f 00
	00		 and	 ecx, 32767		; 00007fffH
  00356	f2 0f 2a c1	 cvtsi2sd xmm0, ecx
  0035a	f2 0f 59 05 00
	00 00 00	 mulsd	 xmm0, QWORD PTR __real@3f00002000400080
  00362	66 0f 2f 05 00
	00 00 00	 comisd	 xmm0, QWORD PTR __real@3feccccccccccccd
  0036a	76 09		 jbe	 SHORT $LN42@partially_
  0036c	c7 45 bc 01 00
	00 00		 mov	 DWORD PTR tv213[ebp], 1
  00373	eb 07		 jmp	 SHORT $LN43@partially_
$LN42@partially_:
  00375	c7 45 bc 00 00
	00 00		 mov	 DWORD PTR tv213[ebp], 0
$LN43@partially_:
  0037c	8b 55 bc	 mov	 edx, DWORD PTR tv213[ebp]
  0037f	83 e2 01	 and	 edx, 1
  00382	c1 e2 0a	 shl	 edx, 10			; 0000000aH
  00385	a1 00 00 00 00	 mov	 eax, DWORD PTR ?ah64a_damage@@3TAH64A_DAMAGE_FLAGS@@A ; ah64a_damage
  0038a	25 ff fb ff ff	 and	 eax, -1025		; fffffbffH
  0038f	0b c2		 or	 eax, edx
  00391	a3 00 00 00 00	 mov	 DWORD PTR ?ah64a_damage@@3TAH64A_DAMAGE_FLAGS@@A, eax ; ah64a_damage
$LN9@partially_:

; 307  : 	}
; 308  : 
; 309  : 	////////////////////////////////////////
; 310  : 
; 311  : 	if (ah64a_damage.communications)

  00396	a1 00 00 00 00	 mov	 eax, DWORD PTR ?ah64a_damage@@3TAH64A_DAMAGE_FLAGS@@A ; ah64a_damage
  0039b	c1 e8 0c	 shr	 eax, 12			; 0000000cH
  0039e	83 e0 01	 and	 eax, 1
  003a1	74 63		 je	 SHORT $LN10@partially_

; 312  : 	{
; 313  : 		ah64a_damage.communications = frand1 () > 0.90;

  003a3	69 05 00 00 00
	00 6d 4e c6 41	 imul	 eax, DWORD PTR ?random_number_seed@@3HA, 1103515245 ; random_number_seed
  003ad	05 39 30 00 00	 add	 eax, 12345		; 00003039H
  003b2	a3 00 00 00 00	 mov	 DWORD PTR ?random_number_seed@@3HA, eax ; random_number_seed
  003b7	8b 0d 00 00 00
	00		 mov	 ecx, DWORD PTR ?random_number_seed@@3HA ; random_number_seed
  003bd	c1 f9 10	 sar	 ecx, 16			; 00000010H
  003c0	81 e1 ff 7f 00
	00		 and	 ecx, 32767		; 00007fffH
  003c6	f2 0f 2a c1	 cvtsi2sd xmm0, ecx
  003ca	f2 0f 59 05 00
	00 00 00	 mulsd	 xmm0, QWORD PTR __real@3f00002000400080
  003d2	66 0f 2f 05 00
	00 00 00	 comisd	 xmm0, QWORD PTR __real@3feccccccccccccd
  003da	76 09		 jbe	 SHORT $LN44@partially_
  003dc	c7 45 bc 01 00
	00 00		 mov	 DWORD PTR tv228[ebp], 1
  003e3	eb 07		 jmp	 SHORT $LN45@partially_
$LN44@partially_:
  003e5	c7 45 bc 00 00
	00 00		 mov	 DWORD PTR tv228[ebp], 0
$LN45@partially_:
  003ec	8b 55 bc	 mov	 edx, DWORD PTR tv228[ebp]
  003ef	83 e2 01	 and	 edx, 1
  003f2	c1 e2 0c	 shl	 edx, 12			; 0000000cH
  003f5	a1 00 00 00 00	 mov	 eax, DWORD PTR ?ah64a_damage@@3TAH64A_DAMAGE_FLAGS@@A ; ah64a_damage
  003fa	25 ff ef ff ff	 and	 eax, -4097		; ffffefffH
  003ff	0b c2		 or	 eax, edx
  00401	a3 00 00 00 00	 mov	 DWORD PTR ?ah64a_damage@@3TAH64A_DAMAGE_FLAGS@@A, eax ; ah64a_damage
$LN10@partially_:

; 314  : 	}
; 315  : 
; 316  : 	////////////////////////////////////////
; 317  : 
; 318  : 	if (ah64a_damage.radar_warning_system)

  00406	a1 00 00 00 00	 mov	 eax, DWORD PTR ?ah64a_damage@@3TAH64A_DAMAGE_FLAGS@@A ; ah64a_damage
  0040b	c1 e8 0d	 shr	 eax, 13			; 0000000dH
  0040e	83 e0 01	 and	 eax, 1
  00411	74 63		 je	 SHORT $LN11@partially_

; 319  : 	{
; 320  : 		ah64a_damage.radar_warning_system = frand1 () > 0.90;

  00413	69 05 00 00 00
	00 6d 4e c6 41	 imul	 eax, DWORD PTR ?random_number_seed@@3HA, 1103515245 ; random_number_seed
  0041d	05 39 30 00 00	 add	 eax, 12345		; 00003039H
  00422	a3 00 00 00 00	 mov	 DWORD PTR ?random_number_seed@@3HA, eax ; random_number_seed
  00427	8b 0d 00 00 00
	00		 mov	 ecx, DWORD PTR ?random_number_seed@@3HA ; random_number_seed
  0042d	c1 f9 10	 sar	 ecx, 16			; 00000010H
  00430	81 e1 ff 7f 00
	00		 and	 ecx, 32767		; 00007fffH
  00436	f2 0f 2a c1	 cvtsi2sd xmm0, ecx
  0043a	f2 0f 59 05 00
	00 00 00	 mulsd	 xmm0, QWORD PTR __real@3f00002000400080
  00442	66 0f 2f 05 00
	00 00 00	 comisd	 xmm0, QWORD PTR __real@3feccccccccccccd
  0044a	76 09		 jbe	 SHORT $LN46@partially_
  0044c	c7 45 bc 01 00
	00 00		 mov	 DWORD PTR tv243[ebp], 1
  00453	eb 07		 jmp	 SHORT $LN47@partially_
$LN46@partially_:
  00455	c7 45 bc 00 00
	00 00		 mov	 DWORD PTR tv243[ebp], 0
$LN47@partially_:
  0045c	8b 55 bc	 mov	 edx, DWORD PTR tv243[ebp]
  0045f	83 e2 01	 and	 edx, 1
  00462	c1 e2 0d	 shl	 edx, 13			; 0000000dH
  00465	a1 00 00 00 00	 mov	 eax, DWORD PTR ?ah64a_damage@@3TAH64A_DAMAGE_FLAGS@@A ; ah64a_damage
  0046a	25 ff df ff ff	 and	 eax, -8193		; ffffdfffH
  0046f	0b c2		 or	 eax, edx
  00471	a3 00 00 00 00	 mov	 DWORD PTR ?ah64a_damage@@3TAH64A_DAMAGE_FLAGS@@A, eax ; ah64a_damage
$LN11@partially_:

; 321  : 	}
; 322  : 
; 323  : 	////////////////////////////////////////
; 324  : 
; 325  : 	if (ah64a_damage.ihadss)

  00476	a1 00 00 00 00	 mov	 eax, DWORD PTR ?ah64a_damage@@3TAH64A_DAMAGE_FLAGS@@A ; ah64a_damage
  0047b	c1 e8 0e	 shr	 eax, 14			; 0000000eH
  0047e	83 e0 01	 and	 eax, 1
  00481	74 63		 je	 SHORT $LN12@partially_

; 326  : 	{
; 327  : 		ah64a_damage.ihadss = frand1 () > 0.90;

  00483	69 05 00 00 00
	00 6d 4e c6 41	 imul	 eax, DWORD PTR ?random_number_seed@@3HA, 1103515245 ; random_number_seed
  0048d	05 39 30 00 00	 add	 eax, 12345		; 00003039H
  00492	a3 00 00 00 00	 mov	 DWORD PTR ?random_number_seed@@3HA, eax ; random_number_seed
  00497	8b 0d 00 00 00
	00		 mov	 ecx, DWORD PTR ?random_number_seed@@3HA ; random_number_seed
  0049d	c1 f9 10	 sar	 ecx, 16			; 00000010H
  004a0	81 e1 ff 7f 00
	00		 and	 ecx, 32767		; 00007fffH
  004a6	f2 0f 2a c1	 cvtsi2sd xmm0, ecx
  004aa	f2 0f 59 05 00
	00 00 00	 mulsd	 xmm0, QWORD PTR __real@3f00002000400080
  004b2	66 0f 2f 05 00
	00 00 00	 comisd	 xmm0, QWORD PTR __real@3feccccccccccccd
  004ba	76 09		 jbe	 SHORT $LN48@partially_
  004bc	c7 45 bc 01 00
	00 00		 mov	 DWORD PTR tv258[ebp], 1
  004c3	eb 07		 jmp	 SHORT $LN49@partially_
$LN48@partially_:
  004c5	c7 45 bc 00 00
	00 00		 mov	 DWORD PTR tv258[ebp], 0
$LN49@partially_:
  004cc	8b 55 bc	 mov	 edx, DWORD PTR tv258[ebp]
  004cf	83 e2 01	 and	 edx, 1
  004d2	c1 e2 0e	 shl	 edx, 14			; 0000000eH
  004d5	a1 00 00 00 00	 mov	 eax, DWORD PTR ?ah64a_damage@@3TAH64A_DAMAGE_FLAGS@@A ; ah64a_damage
  004da	25 ff bf ff ff	 and	 eax, -16385		; ffffbfffH
  004df	0b c2		 or	 eax, edx
  004e1	a3 00 00 00 00	 mov	 DWORD PTR ?ah64a_damage@@3TAH64A_DAMAGE_FLAGS@@A, eax ; ah64a_damage
$LN12@partially_:

; 328  : 	}
; 329  : 
; 330  : 	////////////////////////////////////////
; 331  : 
; 332  : 	if (ah64a_damage.lh_mfd)

  004e6	a1 00 00 00 00	 mov	 eax, DWORD PTR ?ah64a_damage@@3TAH64A_DAMAGE_FLAGS@@A ; ah64a_damage
  004eb	c1 e8 0f	 shr	 eax, 15			; 0000000fH
  004ee	83 e0 01	 and	 eax, 1
  004f1	74 79		 je	 SHORT $LN14@partially_

; 333  : 	{
; 334  : 		ah64a_damage.lh_mfd = frand1 () > 0.90;

  004f3	69 05 00 00 00
	00 6d 4e c6 41	 imul	 eax, DWORD PTR ?random_number_seed@@3HA, 1103515245 ; random_number_seed
  004fd	05 39 30 00 00	 add	 eax, 12345		; 00003039H
  00502	a3 00 00 00 00	 mov	 DWORD PTR ?random_number_seed@@3HA, eax ; random_number_seed
  00507	8b 0d 00 00 00
	00		 mov	 ecx, DWORD PTR ?random_number_seed@@3HA ; random_number_seed
  0050d	c1 f9 10	 sar	 ecx, 16			; 00000010H
  00510	81 e1 ff 7f 00
	00		 and	 ecx, 32767		; 00007fffH
  00516	f2 0f 2a c1	 cvtsi2sd xmm0, ecx
  0051a	f2 0f 59 05 00
	00 00 00	 mulsd	 xmm0, QWORD PTR __real@3f00002000400080
  00522	66 0f 2f 05 00
	00 00 00	 comisd	 xmm0, QWORD PTR __real@3feccccccccccccd
  0052a	76 09		 jbe	 SHORT $LN50@partially_
  0052c	c7 45 bc 01 00
	00 00		 mov	 DWORD PTR tv273[ebp], 1
  00533	eb 07		 jmp	 SHORT $LN51@partially_
$LN50@partially_:
  00535	c7 45 bc 00 00
	00 00		 mov	 DWORD PTR tv273[ebp], 0
$LN51@partially_:
  0053c	8b 55 bc	 mov	 edx, DWORD PTR tv273[ebp]
  0053f	83 e2 01	 and	 edx, 1
  00542	c1 e2 0f	 shl	 edx, 15			; 0000000fH
  00545	a1 00 00 00 00	 mov	 eax, DWORD PTR ?ah64a_damage@@3TAH64A_DAMAGE_FLAGS@@A ; ah64a_damage
  0054a	25 ff 7f ff ff	 and	 eax, -32769		; ffff7fffH
  0054f	0b c2		 or	 eax, edx
  00551	a3 00 00 00 00	 mov	 DWORD PTR ?ah64a_damage@@3TAH64A_DAMAGE_FLAGS@@A, eax ; ah64a_damage

; 335  : 
; 336  : 		if (!ah64a_damage.lh_mfd)

  00556	a1 00 00 00 00	 mov	 eax, DWORD PTR ?ah64a_damage@@3TAH64A_DAMAGE_FLAGS@@A ; ah64a_damage
  0055b	c1 e8 0f	 shr	 eax, 15			; 0000000fH
  0055e	83 e0 01	 and	 eax, 1
  00561	75 09		 jne	 SHORT $LN14@partially_

; 337  : 		{
; 338  : 			select_ah64a_mfd_mode (MFD_MODE_OFF, MFD_LOCATION_LHS);

  00563	6a 00		 push	 0
  00565	6a 00		 push	 0
  00567	e8 00 00 00 00	 call	 ?select_ah64a_mfd_mode@@YGXW4MFD_MODES@@W4MFD_LOCATIONS@@@Z ; select_ah64a_mfd_mode
$LN14@partially_:

; 339  : 		}
; 340  : 	}
; 341  : 
; 342  : 	////////////////////////////////////////
; 343  : 
; 344  : 	if (ah64a_damage.rh_mfd)

  0056c	a1 00 00 00 00	 mov	 eax, DWORD PTR ?ah64a_damage@@3TAH64A_DAMAGE_FLAGS@@A ; ah64a_damage
  00571	c1 e8 11	 shr	 eax, 17			; 00000011H
  00574	83 e0 01	 and	 eax, 1
  00577	74 79		 je	 SHORT $LN16@partially_

; 345  : 	{
; 346  : 		ah64a_damage.rh_mfd = frand1 () > 0.90;

  00579	69 05 00 00 00
	00 6d 4e c6 41	 imul	 eax, DWORD PTR ?random_number_seed@@3HA, 1103515245 ; random_number_seed
  00583	05 39 30 00 00	 add	 eax, 12345		; 00003039H
  00588	a3 00 00 00 00	 mov	 DWORD PTR ?random_number_seed@@3HA, eax ; random_number_seed
  0058d	8b 0d 00 00 00
	00		 mov	 ecx, DWORD PTR ?random_number_seed@@3HA ; random_number_seed
  00593	c1 f9 10	 sar	 ecx, 16			; 00000010H
  00596	81 e1 ff 7f 00
	00		 and	 ecx, 32767		; 00007fffH
  0059c	f2 0f 2a c1	 cvtsi2sd xmm0, ecx
  005a0	f2 0f 59 05 00
	00 00 00	 mulsd	 xmm0, QWORD PTR __real@3f00002000400080
  005a8	66 0f 2f 05 00
	00 00 00	 comisd	 xmm0, QWORD PTR __real@3feccccccccccccd
  005b0	76 09		 jbe	 SHORT $LN52@partially_
  005b2	c7 45 bc 01 00
	00 00		 mov	 DWORD PTR tv293[ebp], 1
  005b9	eb 07		 jmp	 SHORT $LN53@partially_
$LN52@partially_:
  005bb	c7 45 bc 00 00
	00 00		 mov	 DWORD PTR tv293[ebp], 0
$LN53@partially_:
  005c2	8b 55 bc	 mov	 edx, DWORD PTR tv293[ebp]
  005c5	83 e2 01	 and	 edx, 1
  005c8	c1 e2 11	 shl	 edx, 17			; 00000011H
  005cb	a1 00 00 00 00	 mov	 eax, DWORD PTR ?ah64a_damage@@3TAH64A_DAMAGE_FLAGS@@A ; ah64a_damage
  005d0	25 ff ff fd ff	 and	 eax, -131073		; fffdffffH
  005d5	0b c2		 or	 eax, edx
  005d7	a3 00 00 00 00	 mov	 DWORD PTR ?ah64a_damage@@3TAH64A_DAMAGE_FLAGS@@A, eax ; ah64a_damage

; 347  : 
; 348  : 		if (!ah64a_damage.rh_mfd)

  005dc	a1 00 00 00 00	 mov	 eax, DWORD PTR ?ah64a_damage@@3TAH64A_DAMAGE_FLAGS@@A ; ah64a_damage
  005e1	c1 e8 11	 shr	 eax, 17			; 00000011H
  005e4	83 e0 01	 and	 eax, 1
  005e7	75 09		 jne	 SHORT $LN16@partially_

; 349  : 		{
; 350  : 			select_ah64a_mfd_mode (MFD_MODE_OFF, MFD_LOCATION_RHS);

  005e9	6a 01		 push	 1
  005eb	6a 00		 push	 0
  005ed	e8 00 00 00 00	 call	 ?select_ah64a_mfd_mode@@YGXW4MFD_MODES@@W4MFD_LOCATIONS@@@Z ; select_ah64a_mfd_mode
$LN16@partially_:

; 351  : 		}
; 352  : 	}
; 353  : 
; 354  : 	////////////////////////////////////////
; 355  : 
; 356  : 	if (ah64a_damage.pnvs)

  005f2	a1 00 00 00 00	 mov	 eax, DWORD PTR ?ah64a_damage@@3TAH64A_DAMAGE_FLAGS@@A ; ah64a_damage
  005f7	c1 e8 12	 shr	 eax, 18			; 00000012H
  005fa	83 e0 01	 and	 eax, 1
  005fd	74 63		 je	 SHORT $LN17@partially_

; 357  : 	{
; 358  : 		ah64a_damage.pnvs = frand1 () > 0.90;

  005ff	69 05 00 00 00
	00 6d 4e c6 41	 imul	 eax, DWORD PTR ?random_number_seed@@3HA, 1103515245 ; random_number_seed
  00609	05 39 30 00 00	 add	 eax, 12345		; 00003039H
  0060e	a3 00 00 00 00	 mov	 DWORD PTR ?random_number_seed@@3HA, eax ; random_number_seed
  00613	8b 0d 00 00 00
	00		 mov	 ecx, DWORD PTR ?random_number_seed@@3HA ; random_number_seed
  00619	c1 f9 10	 sar	 ecx, 16			; 00000010H
  0061c	81 e1 ff 7f 00
	00		 and	 ecx, 32767		; 00007fffH
  00622	f2 0f 2a c1	 cvtsi2sd xmm0, ecx
  00626	f2 0f 59 05 00
	00 00 00	 mulsd	 xmm0, QWORD PTR __real@3f00002000400080
  0062e	66 0f 2f 05 00
	00 00 00	 comisd	 xmm0, QWORD PTR __real@3feccccccccccccd
  00636	76 09		 jbe	 SHORT $LN54@partially_
  00638	c7 45 bc 01 00
	00 00		 mov	 DWORD PTR tv313[ebp], 1
  0063f	eb 07		 jmp	 SHORT $LN55@partially_
$LN54@partially_:
  00641	c7 45 bc 00 00
	00 00		 mov	 DWORD PTR tv313[ebp], 0
$LN55@partially_:
  00648	8b 55 bc	 mov	 edx, DWORD PTR tv313[ebp]
  0064b	83 e2 01	 and	 edx, 1
  0064e	c1 e2 12	 shl	 edx, 18			; 00000012H
  00651	a1 00 00 00 00	 mov	 eax, DWORD PTR ?ah64a_damage@@3TAH64A_DAMAGE_FLAGS@@A ; ah64a_damage
  00656	25 ff ff fb ff	 and	 eax, -262145		; fffbffffH
  0065b	0b c2		 or	 eax, edx
  0065d	a3 00 00 00 00	 mov	 DWORD PTR ?ah64a_damage@@3TAH64A_DAMAGE_FLAGS@@A, eax ; ah64a_damage
$LN17@partially_:

; 359  : 	}
; 360  : 
; 361  : 	////////////////////////////////////////
; 362  : 
; 363  : 	if (ah64a_damage.gun_jammed)

  00662	a1 00 00 00 00	 mov	 eax, DWORD PTR ?ah64a_damage@@3TAH64A_DAMAGE_FLAGS@@A ; ah64a_damage
  00667	c1 e8 13	 shr	 eax, 19			; 00000013H
  0066a	83 e0 01	 and	 eax, 1
  0066d	74 63		 je	 SHORT $LN18@partially_

; 364  : 	{
; 365  : 		ah64a_damage.gun_jammed = frand1 () > 0.90;

  0066f	69 05 00 00 00
	00 6d 4e c6 41	 imul	 eax, DWORD PTR ?random_number_seed@@3HA, 1103515245 ; random_number_seed
  00679	05 39 30 00 00	 add	 eax, 12345		; 00003039H
  0067e	a3 00 00 00 00	 mov	 DWORD PTR ?random_number_seed@@3HA, eax ; random_number_seed
  00683	8b 0d 00 00 00
	00		 mov	 ecx, DWORD PTR ?random_number_seed@@3HA ; random_number_seed
  00689	c1 f9 10	 sar	 ecx, 16			; 00000010H
  0068c	81 e1 ff 7f 00
	00		 and	 ecx, 32767		; 00007fffH
  00692	f2 0f 2a c1	 cvtsi2sd xmm0, ecx
  00696	f2 0f 59 05 00
	00 00 00	 mulsd	 xmm0, QWORD PTR __real@3f00002000400080
  0069e	66 0f 2f 05 00
	00 00 00	 comisd	 xmm0, QWORD PTR __real@3feccccccccccccd
  006a6	76 09		 jbe	 SHORT $LN56@partially_
  006a8	c7 45 bc 01 00
	00 00		 mov	 DWORD PTR tv328[ebp], 1
  006af	eb 07		 jmp	 SHORT $LN57@partially_
$LN56@partially_:
  006b1	c7 45 bc 00 00
	00 00		 mov	 DWORD PTR tv328[ebp], 0
$LN57@partially_:
  006b8	8b 55 bc	 mov	 edx, DWORD PTR tv328[ebp]
  006bb	83 e2 01	 and	 edx, 1
  006be	c1 e2 13	 shl	 edx, 19			; 00000013H
  006c1	a1 00 00 00 00	 mov	 eax, DWORD PTR ?ah64a_damage@@3TAH64A_DAMAGE_FLAGS@@A ; ah64a_damage
  006c6	25 ff ff f7 ff	 and	 eax, -524289		; fff7ffffH
  006cb	0b c2		 or	 eax, edx
  006cd	a3 00 00 00 00	 mov	 DWORD PTR ?ah64a_damage@@3TAH64A_DAMAGE_FLAGS@@A, eax ; ah64a_damage
$LN18@partially_:

; 366  : 	}
; 367  : 
; 368  : 	////////////////////////////////////////
; 369  : 
; 370  : 	if (ah64a_damage.lh_wing_tip_mount)

  006d2	a1 00 00 00 00	 mov	 eax, DWORD PTR ?ah64a_damage@@3TAH64A_DAMAGE_FLAGS@@A ; ah64a_damage
  006d7	c1 e8 14	 shr	 eax, 20			; 00000014H
  006da	83 e0 01	 and	 eax, 1
  006dd	74 63		 je	 SHORT $LN19@partially_

; 371  : 	{
; 372  : 		ah64a_damage.lh_wing_tip_mount = frand1 () > 0.90;

  006df	69 05 00 00 00
	00 6d 4e c6 41	 imul	 eax, DWORD PTR ?random_number_seed@@3HA, 1103515245 ; random_number_seed
  006e9	05 39 30 00 00	 add	 eax, 12345		; 00003039H
  006ee	a3 00 00 00 00	 mov	 DWORD PTR ?random_number_seed@@3HA, eax ; random_number_seed
  006f3	8b 0d 00 00 00
	00		 mov	 ecx, DWORD PTR ?random_number_seed@@3HA ; random_number_seed
  006f9	c1 f9 10	 sar	 ecx, 16			; 00000010H
  006fc	81 e1 ff 7f 00
	00		 and	 ecx, 32767		; 00007fffH
  00702	f2 0f 2a c1	 cvtsi2sd xmm0, ecx
  00706	f2 0f 59 05 00
	00 00 00	 mulsd	 xmm0, QWORD PTR __real@3f00002000400080
  0070e	66 0f 2f 05 00
	00 00 00	 comisd	 xmm0, QWORD PTR __real@3feccccccccccccd
  00716	76 09		 jbe	 SHORT $LN58@partially_
  00718	c7 45 bc 01 00
	00 00		 mov	 DWORD PTR tv343[ebp], 1
  0071f	eb 07		 jmp	 SHORT $LN59@partially_
$LN58@partially_:
  00721	c7 45 bc 00 00
	00 00		 mov	 DWORD PTR tv343[ebp], 0
$LN59@partially_:
  00728	8b 55 bc	 mov	 edx, DWORD PTR tv343[ebp]
  0072b	83 e2 01	 and	 edx, 1
  0072e	c1 e2 14	 shl	 edx, 20			; 00000014H
  00731	a1 00 00 00 00	 mov	 eax, DWORD PTR ?ah64a_damage@@3TAH64A_DAMAGE_FLAGS@@A ; ah64a_damage
  00736	25 ff ff ef ff	 and	 eax, -1048577		; ffefffffH
  0073b	0b c2		 or	 eax, edx
  0073d	a3 00 00 00 00	 mov	 DWORD PTR ?ah64a_damage@@3TAH64A_DAMAGE_FLAGS@@A, eax ; ah64a_damage
$LN19@partially_:

; 373  : 	}
; 374  : 
; 375  : 	////////////////////////////////////////
; 376  : 
; 377  : 	if (ah64a_damage.lh_outer_pylon)

  00742	a1 00 00 00 00	 mov	 eax, DWORD PTR ?ah64a_damage@@3TAH64A_DAMAGE_FLAGS@@A ; ah64a_damage
  00747	c1 e8 16	 shr	 eax, 22			; 00000016H
  0074a	83 e0 01	 and	 eax, 1
  0074d	74 63		 je	 SHORT $LN20@partially_

; 378  : 	{
; 379  : 		ah64a_damage.lh_outer_pylon = frand1 () > 0.90;

  0074f	69 05 00 00 00
	00 6d 4e c6 41	 imul	 eax, DWORD PTR ?random_number_seed@@3HA, 1103515245 ; random_number_seed
  00759	05 39 30 00 00	 add	 eax, 12345		; 00003039H
  0075e	a3 00 00 00 00	 mov	 DWORD PTR ?random_number_seed@@3HA, eax ; random_number_seed
  00763	8b 0d 00 00 00
	00		 mov	 ecx, DWORD PTR ?random_number_seed@@3HA ; random_number_seed
  00769	c1 f9 10	 sar	 ecx, 16			; 00000010H
  0076c	81 e1 ff 7f 00
	00		 and	 ecx, 32767		; 00007fffH
  00772	f2 0f 2a c1	 cvtsi2sd xmm0, ecx
  00776	f2 0f 59 05 00
	00 00 00	 mulsd	 xmm0, QWORD PTR __real@3f00002000400080
  0077e	66 0f 2f 05 00
	00 00 00	 comisd	 xmm0, QWORD PTR __real@3feccccccccccccd
  00786	76 09		 jbe	 SHORT $LN60@partially_
  00788	c7 45 bc 01 00
	00 00		 mov	 DWORD PTR tv358[ebp], 1
  0078f	eb 07		 jmp	 SHORT $LN61@partially_
$LN60@partially_:
  00791	c7 45 bc 00 00
	00 00		 mov	 DWORD PTR tv358[ebp], 0
$LN61@partially_:
  00798	8b 55 bc	 mov	 edx, DWORD PTR tv358[ebp]
  0079b	83 e2 01	 and	 edx, 1
  0079e	c1 e2 16	 shl	 edx, 22			; 00000016H
  007a1	a1 00 00 00 00	 mov	 eax, DWORD PTR ?ah64a_damage@@3TAH64A_DAMAGE_FLAGS@@A ; ah64a_damage
  007a6	25 ff ff bf ff	 and	 eax, -4194305		; ffbfffffH
  007ab	0b c2		 or	 eax, edx
  007ad	a3 00 00 00 00	 mov	 DWORD PTR ?ah64a_damage@@3TAH64A_DAMAGE_FLAGS@@A, eax ; ah64a_damage
$LN20@partially_:

; 380  : 	}
; 381  : 
; 382  : 	////////////////////////////////////////
; 383  : 
; 384  : 	if (ah64a_damage.lh_inner_pylon)

  007b2	a1 00 00 00 00	 mov	 eax, DWORD PTR ?ah64a_damage@@3TAH64A_DAMAGE_FLAGS@@A ; ah64a_damage
  007b7	c1 e8 17	 shr	 eax, 23			; 00000017H
  007ba	83 e0 01	 and	 eax, 1
  007bd	74 63		 je	 SHORT $LN21@partially_

; 385  : 	{
; 386  : 		ah64a_damage.lh_inner_pylon = frand1 () > 0.90;

  007bf	69 05 00 00 00
	00 6d 4e c6 41	 imul	 eax, DWORD PTR ?random_number_seed@@3HA, 1103515245 ; random_number_seed
  007c9	05 39 30 00 00	 add	 eax, 12345		; 00003039H
  007ce	a3 00 00 00 00	 mov	 DWORD PTR ?random_number_seed@@3HA, eax ; random_number_seed
  007d3	8b 0d 00 00 00
	00		 mov	 ecx, DWORD PTR ?random_number_seed@@3HA ; random_number_seed
  007d9	c1 f9 10	 sar	 ecx, 16			; 00000010H
  007dc	81 e1 ff 7f 00
	00		 and	 ecx, 32767		; 00007fffH
  007e2	f2 0f 2a c1	 cvtsi2sd xmm0, ecx
  007e6	f2 0f 59 05 00
	00 00 00	 mulsd	 xmm0, QWORD PTR __real@3f00002000400080
  007ee	66 0f 2f 05 00
	00 00 00	 comisd	 xmm0, QWORD PTR __real@3feccccccccccccd
  007f6	76 09		 jbe	 SHORT $LN62@partially_
  007f8	c7 45 bc 01 00
	00 00		 mov	 DWORD PTR tv373[ebp], 1
  007ff	eb 07		 jmp	 SHORT $LN63@partially_
$LN62@partially_:
  00801	c7 45 bc 00 00
	00 00		 mov	 DWORD PTR tv373[ebp], 0
$LN63@partially_:
  00808	8b 55 bc	 mov	 edx, DWORD PTR tv373[ebp]
  0080b	83 e2 01	 and	 edx, 1
  0080e	c1 e2 17	 shl	 edx, 23			; 00000017H
  00811	a1 00 00 00 00	 mov	 eax, DWORD PTR ?ah64a_damage@@3TAH64A_DAMAGE_FLAGS@@A ; ah64a_damage
  00816	25 ff ff 7f ff	 and	 eax, -8388609		; ff7fffffH
  0081b	0b c2		 or	 eax, edx
  0081d	a3 00 00 00 00	 mov	 DWORD PTR ?ah64a_damage@@3TAH64A_DAMAGE_FLAGS@@A, eax ; ah64a_damage
$LN21@partially_:

; 387  : 	}
; 388  : 
; 389  : 	////////////////////////////////////////
; 390  : 
; 391  : 	if (ah64a_damage.rh_wing_tip_mount)

  00822	a1 00 00 00 00	 mov	 eax, DWORD PTR ?ah64a_damage@@3TAH64A_DAMAGE_FLAGS@@A ; ah64a_damage
  00827	c1 e8 19	 shr	 eax, 25			; 00000019H
  0082a	83 e0 01	 and	 eax, 1
  0082d	74 63		 je	 SHORT $LN22@partially_

; 392  : 	{
; 393  : 		ah64a_damage.rh_wing_tip_mount = frand1 () > 0.90;

  0082f	69 05 00 00 00
	00 6d 4e c6 41	 imul	 eax, DWORD PTR ?random_number_seed@@3HA, 1103515245 ; random_number_seed
  00839	05 39 30 00 00	 add	 eax, 12345		; 00003039H
  0083e	a3 00 00 00 00	 mov	 DWORD PTR ?random_number_seed@@3HA, eax ; random_number_seed
  00843	8b 0d 00 00 00
	00		 mov	 ecx, DWORD PTR ?random_number_seed@@3HA ; random_number_seed
  00849	c1 f9 10	 sar	 ecx, 16			; 00000010H
  0084c	81 e1 ff 7f 00
	00		 and	 ecx, 32767		; 00007fffH
  00852	f2 0f 2a c1	 cvtsi2sd xmm0, ecx
  00856	f2 0f 59 05 00
	00 00 00	 mulsd	 xmm0, QWORD PTR __real@3f00002000400080
  0085e	66 0f 2f 05 00
	00 00 00	 comisd	 xmm0, QWORD PTR __real@3feccccccccccccd
  00866	76 09		 jbe	 SHORT $LN64@partially_
  00868	c7 45 bc 01 00
	00 00		 mov	 DWORD PTR tv388[ebp], 1
  0086f	eb 07		 jmp	 SHORT $LN65@partially_
$LN64@partially_:
  00871	c7 45 bc 00 00
	00 00		 mov	 DWORD PTR tv388[ebp], 0
$LN65@partially_:
  00878	8b 55 bc	 mov	 edx, DWORD PTR tv388[ebp]
  0087b	83 e2 01	 and	 edx, 1
  0087e	c1 e2 19	 shl	 edx, 25			; 00000019H
  00881	a1 00 00 00 00	 mov	 eax, DWORD PTR ?ah64a_damage@@3TAH64A_DAMAGE_FLAGS@@A ; ah64a_damage
  00886	25 ff ff ff fd	 and	 eax, -33554433		; fdffffffH
  0088b	0b c2		 or	 eax, edx
  0088d	a3 00 00 00 00	 mov	 DWORD PTR ?ah64a_damage@@3TAH64A_DAMAGE_FLAGS@@A, eax ; ah64a_damage
$LN22@partially_:

; 394  : 	}
; 395  : 
; 396  : 	////////////////////////////////////////
; 397  : 
; 398  : 	if (ah64a_damage.rh_outer_pylon)

  00892	a1 00 00 00 00	 mov	 eax, DWORD PTR ?ah64a_damage@@3TAH64A_DAMAGE_FLAGS@@A ; ah64a_damage
  00897	c1 e8 1a	 shr	 eax, 26			; 0000001aH
  0089a	83 e0 01	 and	 eax, 1
  0089d	74 63		 je	 SHORT $LN23@partially_

; 399  : 	{
; 400  : 		ah64a_damage.rh_outer_pylon = frand1 () > 0.90;

  0089f	69 05 00 00 00
	00 6d 4e c6 41	 imul	 eax, DWORD PTR ?random_number_seed@@3HA, 1103515245 ; random_number_seed
  008a9	05 39 30 00 00	 add	 eax, 12345		; 00003039H
  008ae	a3 00 00 00 00	 mov	 DWORD PTR ?random_number_seed@@3HA, eax ; random_number_seed
  008b3	8b 0d 00 00 00
	00		 mov	 ecx, DWORD PTR ?random_number_seed@@3HA ; random_number_seed
  008b9	c1 f9 10	 sar	 ecx, 16			; 00000010H
  008bc	81 e1 ff 7f 00
	00		 and	 ecx, 32767		; 00007fffH
  008c2	f2 0f 2a c1	 cvtsi2sd xmm0, ecx
  008c6	f2 0f 59 05 00
	00 00 00	 mulsd	 xmm0, QWORD PTR __real@3f00002000400080
  008ce	66 0f 2f 05 00
	00 00 00	 comisd	 xmm0, QWORD PTR __real@3feccccccccccccd
  008d6	76 09		 jbe	 SHORT $LN66@partially_
  008d8	c7 45 bc 01 00
	00 00		 mov	 DWORD PTR tv403[ebp], 1
  008df	eb 07		 jmp	 SHORT $LN67@partially_
$LN66@partially_:
  008e1	c7 45 bc 00 00
	00 00		 mov	 DWORD PTR tv403[ebp], 0
$LN67@partially_:
  008e8	8b 55 bc	 mov	 edx, DWORD PTR tv403[ebp]
  008eb	83 e2 01	 and	 edx, 1
  008ee	c1 e2 1a	 shl	 edx, 26			; 0000001aH
  008f1	a1 00 00 00 00	 mov	 eax, DWORD PTR ?ah64a_damage@@3TAH64A_DAMAGE_FLAGS@@A ; ah64a_damage
  008f6	25 ff ff ff fb	 and	 eax, -67108865		; fbffffffH
  008fb	0b c2		 or	 eax, edx
  008fd	a3 00 00 00 00	 mov	 DWORD PTR ?ah64a_damage@@3TAH64A_DAMAGE_FLAGS@@A, eax ; ah64a_damage
$LN23@partially_:

; 401  : 	}
; 402  : 
; 403  : 	////////////////////////////////////////
; 404  : 
; 405  : 	if (ah64a_damage.rh_inner_pylon)

  00902	a1 00 00 00 00	 mov	 eax, DWORD PTR ?ah64a_damage@@3TAH64A_DAMAGE_FLAGS@@A ; ah64a_damage
  00907	c1 e8 1c	 shr	 eax, 28			; 0000001cH
  0090a	83 e0 01	 and	 eax, 1
  0090d	74 63		 je	 SHORT $LN24@partially_

; 406  : 	{
; 407  : 		ah64a_damage.rh_inner_pylon = frand1 () > 0.90;

  0090f	69 05 00 00 00
	00 6d 4e c6 41	 imul	 eax, DWORD PTR ?random_number_seed@@3HA, 1103515245 ; random_number_seed
  00919	05 39 30 00 00	 add	 eax, 12345		; 00003039H
  0091e	a3 00 00 00 00	 mov	 DWORD PTR ?random_number_seed@@3HA, eax ; random_number_seed
  00923	8b 0d 00 00 00
	00		 mov	 ecx, DWORD PTR ?random_number_seed@@3HA ; random_number_seed
  00929	c1 f9 10	 sar	 ecx, 16			; 00000010H
  0092c	81 e1 ff 7f 00
	00		 and	 ecx, 32767		; 00007fffH
  00932	f2 0f 2a c1	 cvtsi2sd xmm0, ecx
  00936	f2 0f 59 05 00
	00 00 00	 mulsd	 xmm0, QWORD PTR __real@3f00002000400080
  0093e	66 0f 2f 05 00
	00 00 00	 comisd	 xmm0, QWORD PTR __real@3feccccccccccccd
  00946	76 09		 jbe	 SHORT $LN68@partially_
  00948	c7 45 bc 01 00
	00 00		 mov	 DWORD PTR tv418[ebp], 1
  0094f	eb 07		 jmp	 SHORT $LN69@partially_
$LN68@partially_:
  00951	c7 45 bc 00 00
	00 00		 mov	 DWORD PTR tv418[ebp], 0
$LN69@partially_:
  00958	8b 55 bc	 mov	 edx, DWORD PTR tv418[ebp]
  0095b	83 e2 01	 and	 edx, 1
  0095e	c1 e2 1c	 shl	 edx, 28			; 0000001cH
  00961	a1 00 00 00 00	 mov	 eax, DWORD PTR ?ah64a_damage@@3TAH64A_DAMAGE_FLAGS@@A ; ah64a_damage
  00966	25 ff ff ff ef	 and	 eax, -268435457		; efffffffH
  0096b	0b c2		 or	 eax, edx
  0096d	a3 00 00 00 00	 mov	 DWORD PTR ?ah64a_damage@@3TAH64A_DAMAGE_FLAGS@@A, eax ; ah64a_damage
$LN24@partially_:

; 408  : 	}
; 409  : 
; 410  : 	////////////////////////////////////////
; 411  : 
; 412  : 	if (ah64a_damage.chaff_dispenser)

  00972	a1 00 00 00 00	 mov	 eax, DWORD PTR ?ah64a_damage@@3TAH64A_DAMAGE_FLAGS@@A ; ah64a_damage
  00977	c1 e8 1d	 shr	 eax, 29			; 0000001dH
  0097a	83 e0 01	 and	 eax, 1
  0097d	74 63		 je	 SHORT $LN25@partially_

; 413  : 	{
; 414  : 		ah64a_damage.chaff_dispenser = frand1 () > 0.90;

  0097f	69 05 00 00 00
	00 6d 4e c6 41	 imul	 eax, DWORD PTR ?random_number_seed@@3HA, 1103515245 ; random_number_seed
  00989	05 39 30 00 00	 add	 eax, 12345		; 00003039H
  0098e	a3 00 00 00 00	 mov	 DWORD PTR ?random_number_seed@@3HA, eax ; random_number_seed
  00993	8b 0d 00 00 00
	00		 mov	 ecx, DWORD PTR ?random_number_seed@@3HA ; random_number_seed
  00999	c1 f9 10	 sar	 ecx, 16			; 00000010H
  0099c	81 e1 ff 7f 00
	00		 and	 ecx, 32767		; 00007fffH
  009a2	f2 0f 2a c1	 cvtsi2sd xmm0, ecx
  009a6	f2 0f 59 05 00
	00 00 00	 mulsd	 xmm0, QWORD PTR __real@3f00002000400080
  009ae	66 0f 2f 05 00
	00 00 00	 comisd	 xmm0, QWORD PTR __real@3feccccccccccccd
  009b6	76 09		 jbe	 SHORT $LN70@partially_
  009b8	c7 45 bc 01 00
	00 00		 mov	 DWORD PTR tv433[ebp], 1
  009bf	eb 07		 jmp	 SHORT $LN71@partially_
$LN70@partially_:
  009c1	c7 45 bc 00 00
	00 00		 mov	 DWORD PTR tv433[ebp], 0
$LN71@partially_:
  009c8	8b 55 bc	 mov	 edx, DWORD PTR tv433[ebp]
  009cb	83 e2 01	 and	 edx, 1
  009ce	c1 e2 1d	 shl	 edx, 29			; 0000001dH
  009d1	a1 00 00 00 00	 mov	 eax, DWORD PTR ?ah64a_damage@@3TAH64A_DAMAGE_FLAGS@@A ; ah64a_damage
  009d6	25 ff ff ff df	 and	 eax, -536870913		; dfffffffH
  009db	0b c2		 or	 eax, edx
  009dd	a3 00 00 00 00	 mov	 DWORD PTR ?ah64a_damage@@3TAH64A_DAMAGE_FLAGS@@A, eax ; ah64a_damage
$LN25@partially_:

; 415  : 	}
; 416  : 
; 417  : 	////////////////////////////////////////
; 418  : 
; 419  : 	if (ah64a_damage.flare_dispenser)

  009e2	a1 00 00 00 00	 mov	 eax, DWORD PTR ?ah64a_damage@@3TAH64A_DAMAGE_FLAGS@@A ; ah64a_damage
  009e7	c1 e8 1f	 shr	 eax, 31			; 0000001fH
  009ea	83 e0 01	 and	 eax, 1
  009ed	74 63		 je	 SHORT $LN26@partially_

; 420  : 	{
; 421  : 		ah64a_damage.flare_dispenser = frand1 () > 0.90;

  009ef	69 05 00 00 00
	00 6d 4e c6 41	 imul	 eax, DWORD PTR ?random_number_seed@@3HA, 1103515245 ; random_number_seed
  009f9	05 39 30 00 00	 add	 eax, 12345		; 00003039H
  009fe	a3 00 00 00 00	 mov	 DWORD PTR ?random_number_seed@@3HA, eax ; random_number_seed
  00a03	8b 0d 00 00 00
	00		 mov	 ecx, DWORD PTR ?random_number_seed@@3HA ; random_number_seed
  00a09	c1 f9 10	 sar	 ecx, 16			; 00000010H
  00a0c	81 e1 ff 7f 00
	00		 and	 ecx, 32767		; 00007fffH
  00a12	f2 0f 2a c1	 cvtsi2sd xmm0, ecx
  00a16	f2 0f 59 05 00
	00 00 00	 mulsd	 xmm0, QWORD PTR __real@3f00002000400080
  00a1e	66 0f 2f 05 00
	00 00 00	 comisd	 xmm0, QWORD PTR __real@3feccccccccccccd
  00a26	76 09		 jbe	 SHORT $LN72@partially_
  00a28	c7 45 bc 01 00
	00 00		 mov	 DWORD PTR tv448[ebp], 1
  00a2f	eb 07		 jmp	 SHORT $LN73@partially_
$LN72@partially_:
  00a31	c7 45 bc 00 00
	00 00		 mov	 DWORD PTR tv448[ebp], 0
$LN73@partially_:
  00a38	8b 55 bc	 mov	 edx, DWORD PTR tv448[ebp]
  00a3b	83 e2 01	 and	 edx, 1
  00a3e	c1 e2 1f	 shl	 edx, 31			; 0000001fH
  00a41	a1 00 00 00 00	 mov	 eax, DWORD PTR ?ah64a_damage@@3TAH64A_DAMAGE_FLAGS@@A ; ah64a_damage
  00a46	25 ff ff ff 7f	 and	 eax, 2147483647		; 7fffffffH
  00a4b	0b c2		 or	 eax, edx
  00a4d	a3 00 00 00 00	 mov	 DWORD PTR ?ah64a_damage@@3TAH64A_DAMAGE_FLAGS@@A, eax ; ah64a_damage
$LN26@partially_:

; 422  : 	}
; 423  : 
; 424  : 	////////////////////////////////////////
; 425  : 
; 426  : 	set_ah64a_weapon_damage_status ();

  00a52	e8 00 00 00 00	 call	 ?set_ah64a_weapon_damage_status@@YGXXZ ; set_ah64a_weapon_damage_status

; 427  : }

  00a57	5f		 pop	 edi
  00a58	5e		 pop	 esi
  00a59	5b		 pop	 ebx
  00a5a	8b e5		 mov	 esp, ebp
  00a5c	5d		 pop	 ebp
  00a5d	c3		 ret	 0
?partially_repair_ah64a_damage@@YGXXZ ENDP		; partially_repair_ah64a_damage
_TEXT	ENDS
; Function compile flags: /Odtp /ZI
; File c:\users\nhv90\projects\eech\aphavoc\source\gunships\avionics\ah64a\ah_dam.c
;	COMDAT ?fully_repair_ah64a_damage@@YGXXZ
_TEXT	SEGMENT
?fully_repair_ah64a_damage@@YGXXZ PROC			; fully_repair_ah64a_damage, COMDAT

; 131  : {

  00000	55		 push	 ebp
  00001	8b ec		 mov	 ebp, esp
  00003	83 ec 40	 sub	 esp, 64			; 00000040H
  00006	53		 push	 ebx
  00007	56		 push	 esi
  00008	57		 push	 edi

; 132  : 	set_ah64a_upfront_display_text ("", "", NULL, NULL);

  00009	6a 00		 push	 0
  0000b	6a 00		 push	 0
  0000d	68 00 00 00 00	 push	 OFFSET ??_C@_00CNPNBAHC@@
  00012	68 00 00 00 00	 push	 OFFSET ??_C@_00CNPNBAHC@@
  00017	e8 00 00 00 00	 call	 ?set_ah64a_upfront_display_text@@YGXPAD000@Z ; set_ah64a_upfront_display_text

; 133  : 
; 134  : 	fire_extinguisher_used = FALSE;

  0001c	c7 05 00 00 00
	00 00 00 00 00	 mov	 DWORD PTR ?fire_extinguisher_used@@3HA, 0 ; fire_extinguisher_used

; 135  : 
; 136  : 	////////////////////////////////////////
; 137  : 
; 138  : 	ah64a_damage.radar = FALSE;

  00026	a1 00 00 00 00	 mov	 eax, DWORD PTR ?ah64a_damage@@3TAH64A_DAMAGE_FLAGS@@A ; ah64a_damage
  0002b	83 e0 fe	 and	 eax, -2			; fffffffeH
  0002e	a3 00 00 00 00	 mov	 DWORD PTR ?ah64a_damage@@3TAH64A_DAMAGE_FLAGS@@A, eax ; ah64a_damage

; 139  : 
; 140  : 	////////////////////////////////////////
; 141  : 
; 142  : 	ah64a_damage.flir = FALSE;

  00033	a1 00 00 00 00	 mov	 eax, DWORD PTR ?ah64a_damage@@3TAH64A_DAMAGE_FLAGS@@A ; ah64a_damage
  00038	83 e0 fb	 and	 eax, -5			; fffffffbH
  0003b	a3 00 00 00 00	 mov	 DWORD PTR ?ah64a_damage@@3TAH64A_DAMAGE_FLAGS@@A, eax ; ah64a_damage

; 143  : 
; 144  : 	////////////////////////////////////////
; 145  : 
; 146  : 	ah64a_damage.dtv = FALSE;

  00040	a1 00 00 00 00	 mov	 eax, DWORD PTR ?ah64a_damage@@3TAH64A_DAMAGE_FLAGS@@A ; ah64a_damage
  00045	83 e0 f7	 and	 eax, -9			; fffffff7H
  00048	a3 00 00 00 00	 mov	 DWORD PTR ?ah64a_damage@@3TAH64A_DAMAGE_FLAGS@@A, eax ; ah64a_damage

; 147  : 
; 148  : 	////////////////////////////////////////
; 149  : 
; 150  : 	ah64a_damage.dvo = FALSE;

  0004d	a1 00 00 00 00	 mov	 eax, DWORD PTR ?ah64a_damage@@3TAH64A_DAMAGE_FLAGS@@A ; ah64a_damage
  00052	83 e0 ef	 and	 eax, -17		; ffffffefH
  00055	a3 00 00 00 00	 mov	 DWORD PTR ?ah64a_damage@@3TAH64A_DAMAGE_FLAGS@@A, eax ; ah64a_damage

; 151  : 
; 152  : 	////////////////////////////////////////
; 153  : 
; 154  : 	ah64a_damage.laser_designator = FALSE;

  0005a	a1 00 00 00 00	 mov	 eax, DWORD PTR ?ah64a_damage@@3TAH64A_DAMAGE_FLAGS@@A ; ah64a_damage
  0005f	83 e0 bf	 and	 eax, -65		; ffffffbfH
  00062	a3 00 00 00 00	 mov	 DWORD PTR ?ah64a_damage@@3TAH64A_DAMAGE_FLAGS@@A, eax ; ah64a_damage

; 155  : 
; 156  : 	////////////////////////////////////////
; 157  : 
; 158  : 	ah64a_damage.radar_jammer = FALSE;

  00067	a1 00 00 00 00	 mov	 eax, DWORD PTR ?ah64a_damage@@3TAH64A_DAMAGE_FLAGS@@A ; ah64a_damage
  0006c	25 7f ff ff ff	 and	 eax, -129		; ffffff7fH
  00071	a3 00 00 00 00	 mov	 DWORD PTR ?ah64a_damage@@3TAH64A_DAMAGE_FLAGS@@A, eax ; ah64a_damage

; 159  : 
; 160  : 	////////////////////////////////////////
; 161  : 
; 162  : 	ah64a_damage.infra_red_jammer = FALSE;

  00076	a1 00 00 00 00	 mov	 eax, DWORD PTR ?ah64a_damage@@3TAH64A_DAMAGE_FLAGS@@A ; ah64a_damage
  0007b	25 ff fe ff ff	 and	 eax, -257		; fffffeffH
  00080	a3 00 00 00 00	 mov	 DWORD PTR ?ah64a_damage@@3TAH64A_DAMAGE_FLAGS@@A, eax ; ah64a_damage

; 163  : 
; 164  : 	////////////////////////////////////////
; 165  : 
; 166  : 	ah64a_damage.navigation_computer = FALSE;

  00085	a1 00 00 00 00	 mov	 eax, DWORD PTR ?ah64a_damage@@3TAH64A_DAMAGE_FLAGS@@A ; ah64a_damage
  0008a	25 ff fb ff ff	 and	 eax, -1025		; fffffbffH
  0008f	a3 00 00 00 00	 mov	 DWORD PTR ?ah64a_damage@@3TAH64A_DAMAGE_FLAGS@@A, eax ; ah64a_damage

; 167  : 
; 168  : 	////////////////////////////////////////
; 169  : 
; 170  : 	ah64a_damage.communications = FALSE;

  00094	a1 00 00 00 00	 mov	 eax, DWORD PTR ?ah64a_damage@@3TAH64A_DAMAGE_FLAGS@@A ; ah64a_damage
  00099	25 ff ef ff ff	 and	 eax, -4097		; ffffefffH
  0009e	a3 00 00 00 00	 mov	 DWORD PTR ?ah64a_damage@@3TAH64A_DAMAGE_FLAGS@@A, eax ; ah64a_damage

; 171  : 
; 172  : 	////////////////////////////////////////
; 173  : 
; 174  : 	ah64a_damage.radar_warning_system = FALSE;

  000a3	a1 00 00 00 00	 mov	 eax, DWORD PTR ?ah64a_damage@@3TAH64A_DAMAGE_FLAGS@@A ; ah64a_damage
  000a8	25 ff df ff ff	 and	 eax, -8193		; ffffdfffH
  000ad	a3 00 00 00 00	 mov	 DWORD PTR ?ah64a_damage@@3TAH64A_DAMAGE_FLAGS@@A, eax ; ah64a_damage

; 175  : 
; 176  : 	////////////////////////////////////////
; 177  : 
; 178  : 	ah64a_damage.ihadss = FALSE;

  000b2	a1 00 00 00 00	 mov	 eax, DWORD PTR ?ah64a_damage@@3TAH64A_DAMAGE_FLAGS@@A ; ah64a_damage
  000b7	25 ff bf ff ff	 and	 eax, -16385		; ffffbfffH
  000bc	a3 00 00 00 00	 mov	 DWORD PTR ?ah64a_damage@@3TAH64A_DAMAGE_FLAGS@@A, eax ; ah64a_damage

; 179  : 
; 180  : 	////////////////////////////////////////
; 181  : 
; 182  : 	if (ah64a_damage.lh_mfd)

  000c1	a1 00 00 00 00	 mov	 eax, DWORD PTR ?ah64a_damage@@3TAH64A_DAMAGE_FLAGS@@A ; ah64a_damage
  000c6	c1 e8 0f	 shr	 eax, 15			; 0000000fH
  000c9	83 e0 01	 and	 eax, 1
  000cc	74 18		 je	 SHORT $LN2@fully_repa

; 183  : 	{
; 184  : 		ah64a_damage.lh_mfd = FALSE;

  000ce	a1 00 00 00 00	 mov	 eax, DWORD PTR ?ah64a_damage@@3TAH64A_DAMAGE_FLAGS@@A ; ah64a_damage
  000d3	25 ff 7f ff ff	 and	 eax, -32769		; ffff7fffH
  000d8	a3 00 00 00 00	 mov	 DWORD PTR ?ah64a_damage@@3TAH64A_DAMAGE_FLAGS@@A, eax ; ah64a_damage

; 185  : 
; 186  : 		select_ah64a_mfd_mode (MFD_MODE_OFF, MFD_LOCATION_LHS);

  000dd	6a 00		 push	 0
  000df	6a 00		 push	 0
  000e1	e8 00 00 00 00	 call	 ?select_ah64a_mfd_mode@@YGXW4MFD_MODES@@W4MFD_LOCATIONS@@@Z ; select_ah64a_mfd_mode
$LN2@fully_repa:

; 187  : 	}
; 188  : 
; 189  : 	////////////////////////////////////////
; 190  : 
; 191  : 	if (ah64a_damage.rh_mfd)

  000e6	a1 00 00 00 00	 mov	 eax, DWORD PTR ?ah64a_damage@@3TAH64A_DAMAGE_FLAGS@@A ; ah64a_damage
  000eb	c1 e8 11	 shr	 eax, 17			; 00000011H
  000ee	83 e0 01	 and	 eax, 1
  000f1	74 18		 je	 SHORT $LN3@fully_repa

; 192  : 	{
; 193  : 		ah64a_damage.rh_mfd = FALSE;

  000f3	a1 00 00 00 00	 mov	 eax, DWORD PTR ?ah64a_damage@@3TAH64A_DAMAGE_FLAGS@@A ; ah64a_damage
  000f8	25 ff ff fd ff	 and	 eax, -131073		; fffdffffH
  000fd	a3 00 00 00 00	 mov	 DWORD PTR ?ah64a_damage@@3TAH64A_DAMAGE_FLAGS@@A, eax ; ah64a_damage

; 194  : 
; 195  : 		select_ah64a_mfd_mode (MFD_MODE_OFF, MFD_LOCATION_RHS);

  00102	6a 01		 push	 1
  00104	6a 00		 push	 0
  00106	e8 00 00 00 00	 call	 ?select_ah64a_mfd_mode@@YGXW4MFD_MODES@@W4MFD_LOCATIONS@@@Z ; select_ah64a_mfd_mode
$LN3@fully_repa:

; 196  : 	}
; 197  : 
; 198  : 	////////////////////////////////////////
; 199  : 
; 200  : 	ah64a_damage.pnvs = FALSE;

  0010b	a1 00 00 00 00	 mov	 eax, DWORD PTR ?ah64a_damage@@3TAH64A_DAMAGE_FLAGS@@A ; ah64a_damage
  00110	25 ff ff fb ff	 and	 eax, -262145		; fffbffffH
  00115	a3 00 00 00 00	 mov	 DWORD PTR ?ah64a_damage@@3TAH64A_DAMAGE_FLAGS@@A, eax ; ah64a_damage

; 201  : 
; 202  : 	////////////////////////////////////////
; 203  : 
; 204  : 	ah64a_damage.gun_jammed = FALSE;

  0011a	a1 00 00 00 00	 mov	 eax, DWORD PTR ?ah64a_damage@@3TAH64A_DAMAGE_FLAGS@@A ; ah64a_damage
  0011f	25 ff ff f7 ff	 and	 eax, -524289		; fff7ffffH
  00124	a3 00 00 00 00	 mov	 DWORD PTR ?ah64a_damage@@3TAH64A_DAMAGE_FLAGS@@A, eax ; ah64a_damage

; 205  : 
; 206  : 	////////////////////////////////////////
; 207  : 
; 208  : 	ah64a_damage.lh_wing_tip_mount = FALSE;

  00129	a1 00 00 00 00	 mov	 eax, DWORD PTR ?ah64a_damage@@3TAH64A_DAMAGE_FLAGS@@A ; ah64a_damage
  0012e	25 ff ff ef ff	 and	 eax, -1048577		; ffefffffH
  00133	a3 00 00 00 00	 mov	 DWORD PTR ?ah64a_damage@@3TAH64A_DAMAGE_FLAGS@@A, eax ; ah64a_damage

; 209  : 
; 210  : 	////////////////////////////////////////
; 211  : 
; 212  : 	ah64a_damage.lh_outer_pylon = FALSE;

  00138	a1 00 00 00 00	 mov	 eax, DWORD PTR ?ah64a_damage@@3TAH64A_DAMAGE_FLAGS@@A ; ah64a_damage
  0013d	25 ff ff bf ff	 and	 eax, -4194305		; ffbfffffH
  00142	a3 00 00 00 00	 mov	 DWORD PTR ?ah64a_damage@@3TAH64A_DAMAGE_FLAGS@@A, eax ; ah64a_damage

; 213  : 
; 214  : 	////////////////////////////////////////
; 215  : 
; 216  : 	ah64a_damage.lh_inner_pylon = FALSE;

  00147	a1 00 00 00 00	 mov	 eax, DWORD PTR ?ah64a_damage@@3TAH64A_DAMAGE_FLAGS@@A ; ah64a_damage
  0014c	25 ff ff 7f ff	 and	 eax, -8388609		; ff7fffffH
  00151	a3 00 00 00 00	 mov	 DWORD PTR ?ah64a_damage@@3TAH64A_DAMAGE_FLAGS@@A, eax ; ah64a_damage

; 217  : 
; 218  : 	////////////////////////////////////////
; 219  : 
; 220  : 	ah64a_damage.rh_wing_tip_mount = FALSE;

  00156	a1 00 00 00 00	 mov	 eax, DWORD PTR ?ah64a_damage@@3TAH64A_DAMAGE_FLAGS@@A ; ah64a_damage
  0015b	25 ff ff ff fd	 and	 eax, -33554433		; fdffffffH
  00160	a3 00 00 00 00	 mov	 DWORD PTR ?ah64a_damage@@3TAH64A_DAMAGE_FLAGS@@A, eax ; ah64a_damage

; 221  : 
; 222  : 	////////////////////////////////////////
; 223  : 
; 224  : 	ah64a_damage.rh_outer_pylon = FALSE;

  00165	a1 00 00 00 00	 mov	 eax, DWORD PTR ?ah64a_damage@@3TAH64A_DAMAGE_FLAGS@@A ; ah64a_damage
  0016a	25 ff ff ff fb	 and	 eax, -67108865		; fbffffffH
  0016f	a3 00 00 00 00	 mov	 DWORD PTR ?ah64a_damage@@3TAH64A_DAMAGE_FLAGS@@A, eax ; ah64a_damage

; 225  : 
; 226  : 	////////////////////////////////////////
; 227  : 
; 228  : 	ah64a_damage.rh_inner_pylon = FALSE;

  00174	a1 00 00 00 00	 mov	 eax, DWORD PTR ?ah64a_damage@@3TAH64A_DAMAGE_FLAGS@@A ; ah64a_damage
  00179	25 ff ff ff ef	 and	 eax, -268435457		; efffffffH
  0017e	a3 00 00 00 00	 mov	 DWORD PTR ?ah64a_damage@@3TAH64A_DAMAGE_FLAGS@@A, eax ; ah64a_damage

; 229  : 
; 230  : 	////////////////////////////////////////
; 231  : 
; 232  : 	ah64a_damage.chaff_dispenser = FALSE;

  00183	a1 00 00 00 00	 mov	 eax, DWORD PTR ?ah64a_damage@@3TAH64A_DAMAGE_FLAGS@@A ; ah64a_damage
  00188	25 ff ff ff df	 and	 eax, -536870913		; dfffffffH
  0018d	a3 00 00 00 00	 mov	 DWORD PTR ?ah64a_damage@@3TAH64A_DAMAGE_FLAGS@@A, eax ; ah64a_damage

; 233  : 
; 234  : 	////////////////////////////////////////
; 235  : 
; 236  : 	ah64a_damage.flare_dispenser = FALSE;

  00192	a1 00 00 00 00	 mov	 eax, DWORD PTR ?ah64a_damage@@3TAH64A_DAMAGE_FLAGS@@A ; ah64a_damage
  00197	25 ff ff ff 7f	 and	 eax, 2147483647		; 7fffffffH
  0019c	a3 00 00 00 00	 mov	 DWORD PTR ?ah64a_damage@@3TAH64A_DAMAGE_FLAGS@@A, eax ; ah64a_damage

; 237  : 
; 238  : 	////////////////////////////////////////
; 239  : 
; 240  : 	set_ah64a_weapon_damage_status ();

  001a1	e8 00 00 00 00	 call	 ?set_ah64a_weapon_damage_status@@YGXXZ ; set_ah64a_weapon_damage_status

; 241  : }

  001a6	5f		 pop	 edi
  001a7	5e		 pop	 esi
  001a8	5b		 pop	 ebx
  001a9	8b e5		 mov	 esp, ebp
  001ab	5d		 pop	 ebp
  001ac	c3		 ret	 0
?fully_repair_ah64a_damage@@YGXXZ ENDP			; fully_repair_ah64a_damage
_TEXT	ENDS
; Function compile flags: /Odtp /ZI
; File c:\users\nhv90\projects\eech\aphavoc\source\gunships\avionics\ah64a\ah_dam.c
;	COMDAT ?set_ah64a_weapon_damage_status@@YGXXZ
_TEXT	SEGMENT
tv164 = -80						; size = 4
tv156 = -76						; size = 4
_weapon_sub_type$ = -8					; size = 4
_en$ = -4						; size = 4
?set_ah64a_weapon_damage_status@@YGXXZ PROC		; set_ah64a_weapon_damage_status, COMDAT

; 87   : {

  00000	55		 push	 ebp
  00001	8b ec		 mov	 ebp, esp
  00003	83 ec 50	 sub	 esp, 80			; 00000050H
  00006	53		 push	 ebx
  00007	56		 push	 esi
  00008	57		 push	 edi

; 88   : 	entity
; 89   : 		*en;
; 90   : 
; 91   : 	entity_sub_types
; 92   : 		weapon_sub_type;
; 93   : 
; 94   : 	en = get_gunship_entity ();

  00009	a1 00 00 00 00	 mov	 eax, DWORD PTR ?gunship_entity@@3PAUENTITY@@A ; gunship_entity
  0000e	89 45 fc	 mov	 DWORD PTR _en$[ebp], eax

; 95   : 
; 96   : 	set_client_server_entity_weapon_damage (en, AH64A_CHAIN_GUN_TURRET, ENTITY_SUB_TYPE_WEAPON_NO_WEAPON, ah64a_damage.gun_jammed);

  00011	a1 00 00 00 00	 mov	 eax, DWORD PTR ?ah64a_damage@@3TAH64A_DAMAGE_FLAGS@@A ; ah64a_damage
  00016	c1 e8 13	 shr	 eax, 19			; 00000013H
  00019	83 e0 01	 and	 eax, 1
  0001c	50		 push	 eax
  0001d	6a 00		 push	 0
  0001f	6a 06		 push	 6
  00021	8b 4d fc	 mov	 ecx, DWORD PTR _en$[ebp]
  00024	51		 push	 ecx
  00025	e8 00 00 00 00	 call	 ?set_client_server_entity_weapon_damage@@YGXPAUENTITY@@HHH@Z ; set_client_server_entity_weapon_damage

; 97   : 
; 98   : 	set_client_server_entity_weapon_damage (en, AH64A_LHS_WING_TIP_MOUNT, ENTITY_SUB_TYPE_WEAPON_NO_WEAPON, ah64a_damage.lh_wing_tip_mount);

  0002a	a1 00 00 00 00	 mov	 eax, DWORD PTR ?ah64a_damage@@3TAH64A_DAMAGE_FLAGS@@A ; ah64a_damage
  0002f	c1 e8 14	 shr	 eax, 20			; 00000014H
  00032	83 e0 01	 and	 eax, 1
  00035	50		 push	 eax
  00036	6a 00		 push	 0
  00038	6a 04		 push	 4
  0003a	8b 4d fc	 mov	 ecx, DWORD PTR _en$[ebp]
  0003d	51		 push	 ecx
  0003e	e8 00 00 00 00	 call	 ?set_client_server_entity_weapon_damage@@YGXPAUENTITY@@HHH@Z ; set_client_server_entity_weapon_damage

; 99   : 	set_client_server_entity_weapon_damage (en, AH64A_LHS_OUTER_PYLON, ENTITY_SUB_TYPE_WEAPON_NO_WEAPON, ah64a_damage.lh_outer_pylon);

  00043	a1 00 00 00 00	 mov	 eax, DWORD PTR ?ah64a_damage@@3TAH64A_DAMAGE_FLAGS@@A ; ah64a_damage
  00048	c1 e8 16	 shr	 eax, 22			; 00000016H
  0004b	83 e0 01	 and	 eax, 1
  0004e	50		 push	 eax
  0004f	6a 00		 push	 0
  00051	6a 02		 push	 2
  00053	8b 4d fc	 mov	 ecx, DWORD PTR _en$[ebp]
  00056	51		 push	 ecx
  00057	e8 00 00 00 00	 call	 ?set_client_server_entity_weapon_damage@@YGXPAUENTITY@@HHH@Z ; set_client_server_entity_weapon_damage

; 100  : 	set_client_server_entity_weapon_damage (en, AH64A_LHS_INNER_PYLON, ENTITY_SUB_TYPE_WEAPON_NO_WEAPON, ah64a_damage.lh_inner_pylon);

  0005c	a1 00 00 00 00	 mov	 eax, DWORD PTR ?ah64a_damage@@3TAH64A_DAMAGE_FLAGS@@A ; ah64a_damage
  00061	c1 e8 17	 shr	 eax, 23			; 00000017H
  00064	83 e0 01	 and	 eax, 1
  00067	50		 push	 eax
  00068	6a 00		 push	 0
  0006a	6a 00		 push	 0
  0006c	8b 4d fc	 mov	 ecx, DWORD PTR _en$[ebp]
  0006f	51		 push	 ecx
  00070	e8 00 00 00 00	 call	 ?set_client_server_entity_weapon_damage@@YGXPAUENTITY@@HHH@Z ; set_client_server_entity_weapon_damage

; 101  : 
; 102  : 	set_client_server_entity_weapon_damage (en, AH64A_RHS_WING_TIP_MOUNT, ENTITY_SUB_TYPE_WEAPON_NO_WEAPON, ah64a_damage.rh_wing_tip_mount);

  00075	a1 00 00 00 00	 mov	 eax, DWORD PTR ?ah64a_damage@@3TAH64A_DAMAGE_FLAGS@@A ; ah64a_damage
  0007a	c1 e8 19	 shr	 eax, 25			; 00000019H
  0007d	83 e0 01	 and	 eax, 1
  00080	50		 push	 eax
  00081	6a 00		 push	 0
  00083	6a 05		 push	 5
  00085	8b 4d fc	 mov	 ecx, DWORD PTR _en$[ebp]
  00088	51		 push	 ecx
  00089	e8 00 00 00 00	 call	 ?set_client_server_entity_weapon_damage@@YGXPAUENTITY@@HHH@Z ; set_client_server_entity_weapon_damage

; 103  : 	set_client_server_entity_weapon_damage (en, AH64A_RHS_OUTER_PYLON, ENTITY_SUB_TYPE_WEAPON_NO_WEAPON, ah64a_damage.rh_outer_pylon);

  0008e	a1 00 00 00 00	 mov	 eax, DWORD PTR ?ah64a_damage@@3TAH64A_DAMAGE_FLAGS@@A ; ah64a_damage
  00093	c1 e8 1a	 shr	 eax, 26			; 0000001aH
  00096	83 e0 01	 and	 eax, 1
  00099	50		 push	 eax
  0009a	6a 00		 push	 0
  0009c	6a 03		 push	 3
  0009e	8b 4d fc	 mov	 ecx, DWORD PTR _en$[ebp]
  000a1	51		 push	 ecx
  000a2	e8 00 00 00 00	 call	 ?set_client_server_entity_weapon_damage@@YGXPAUENTITY@@HHH@Z ; set_client_server_entity_weapon_damage

; 104  : 	set_client_server_entity_weapon_damage (en, AH64A_RHS_INNER_PYLON, ENTITY_SUB_TYPE_WEAPON_NO_WEAPON, ah64a_damage.rh_inner_pylon);

  000a7	a1 00 00 00 00	 mov	 eax, DWORD PTR ?ah64a_damage@@3TAH64A_DAMAGE_FLAGS@@A ; ah64a_damage
  000ac	c1 e8 1c	 shr	 eax, 28			; 0000001cH
  000af	83 e0 01	 and	 eax, 1
  000b2	50		 push	 eax
  000b3	6a 00		 push	 0
  000b5	6a 01		 push	 1
  000b7	8b 4d fc	 mov	 ecx, DWORD PTR _en$[ebp]
  000ba	51		 push	 ecx
  000bb	e8 00 00 00 00	 call	 ?set_client_server_entity_weapon_damage@@YGXPAUENTITY@@HHH@Z ; set_client_server_entity_weapon_damage

; 105  : 
; 106  : 	set_client_server_entity_weapon_damage (en, AH64A_CHAFF_DISPENSER, ENTITY_SUB_TYPE_WEAPON_CHAFF, ah64a_damage.chaff_dispenser);

  000c0	a1 00 00 00 00	 mov	 eax, DWORD PTR ?ah64a_damage@@3TAH64A_DAMAGE_FLAGS@@A ; ah64a_damage
  000c5	c1 e8 1d	 shr	 eax, 29			; 0000001dH
  000c8	83 e0 01	 and	 eax, 1
  000cb	50		 push	 eax
  000cc	6a 43		 push	 67			; 00000043H
  000ce	6a 07		 push	 7
  000d0	8b 4d fc	 mov	 ecx, DWORD PTR _en$[ebp]
  000d3	51		 push	 ecx
  000d4	e8 00 00 00 00	 call	 ?set_client_server_entity_weapon_damage@@YGXPAUENTITY@@HHH@Z ; set_client_server_entity_weapon_damage

; 107  : 	set_client_server_entity_weapon_damage (en, AH64A_FLARE_DISPENSER, ENTITY_SUB_TYPE_WEAPON_FLARE, ah64a_damage.flare_dispenser);

  000d9	a1 00 00 00 00	 mov	 eax, DWORD PTR ?ah64a_damage@@3TAH64A_DAMAGE_FLAGS@@A ; ah64a_damage
  000de	c1 e8 1f	 shr	 eax, 31			; 0000001fH
  000e1	83 e0 01	 and	 eax, 1
  000e4	50		 push	 eax
  000e5	6a 44		 push	 68			; 00000044H
  000e7	6a 07		 push	 7
  000e9	8b 4d fc	 mov	 ecx, DWORD PTR _en$[ebp]
  000ec	51		 push	 ecx
  000ed	e8 00 00 00 00	 call	 ?set_client_server_entity_weapon_damage@@YGXPAUENTITY@@HHH@Z ; set_client_server_entity_weapon_damage

; 108  : 
; 109  : 	//
; 110  : 	// check if selected weapon is still available, if not, select next
; 111  : 	//
; 112  : 
; 113  : 	weapon_sub_type = get_local_entity_int_value (en, INT_TYPE_SELECTED_WEAPON);

  000f2	83 7d fc 00	 cmp	 DWORD PTR _en$[ebp], 0
  000f6	74 0a		 je	 SHORT $LN5@set_ah64a_
  000f8	8b 45 fc	 mov	 eax, DWORD PTR _en$[ebp]
  000fb	8b 08		 mov	 ecx, DWORD PTR [eax]
  000fd	89 4d b4	 mov	 DWORD PTR tv156[ebp], ecx
  00100	eb 21		 jmp	 SHORT $LN6@set_ah64a_
$LN5@set_ah64a_:
  00102	8b 15 00 00 00
	00		 mov	 edx, DWORD PTR ?__LINE__Var@?0??set_ah64a_weapon_damage_status@@YGXXZ@4JA
  00108	83 c2 1a	 add	 edx, 26			; 0000001aH
  0010b	52		 push	 edx
  0010c	68 00 00 00 00	 push	 OFFSET ??_C@_0EN@HHKIAPFA@c?3?2users?2nhv90?2projects?2eech?2ap@
  00111	a1 00 00 00 00	 mov	 eax, DWORD PTR ?null_entity_pointer_message@@3PBDB ; null_entity_pointer_message
  00116	50		 push	 eax
  00117	e8 00 00 00 00	 call	 ?process_assert@@YGXPBD0H@Z ; process_assert
  0011c	c7 45 b4 00 00
	00 00		 mov	 DWORD PTR tv156[ebp], 0
$LN6@set_ah64a_:
  00123	b9 01 00 00 00	 mov	 ecx, 1
  00128	85 c9		 test	 ecx, ecx
  0012a	74 09		 je	 SHORT $LN7@set_ah64a_
  0012c	c7 45 b0 b8 00
	00 00		 mov	 DWORD PTR tv164[ebp], 184 ; 000000b8H
  00133	eb 21		 jmp	 SHORT $LN8@set_ah64a_
$LN7@set_ah64a_:
  00135	8b 15 00 00 00
	00		 mov	 edx, DWORD PTR ?__LINE__Var@?0??set_ah64a_weapon_damage_status@@YGXXZ@4JA
  0013b	83 c2 1a	 add	 edx, 26			; 0000001aH
  0013e	52		 push	 edx
  0013f	68 00 00 00 00	 push	 OFFSET ??_C@_0EN@HHKIAPFA@c?3?2users?2nhv90?2projects?2eech?2ap@
  00144	a1 00 00 00 00	 mov	 eax, DWORD PTR ?overload_invalid_int_type_message@@3PBDB ; overload_invalid_int_type_message
  00149	50		 push	 eax
  0014a	e8 00 00 00 00	 call	 ?process_assert@@YGXPBD0H@Z ; process_assert
  0014f	c7 45 b0 00 00
	00 00		 mov	 DWORD PTR tv164[ebp], 0
$LN8@set_ah64a_:
  00156	68 b8 00 00 00	 push	 184			; 000000b8H
  0015b	8b 4d fc	 mov	 ecx, DWORD PTR _en$[ebp]
  0015e	51		 push	 ecx
  0015f	69 55 b4 5c 04
	00 00		 imul	 edx, DWORD PTR tv156[ebp], 1116
  00166	8b 45 b0	 mov	 eax, DWORD PTR tv164[ebp]
  00169	8b 8c 82 00 00
	00 00		 mov	 ecx, DWORD PTR ?fn_get_local_entity_int_value@@3PAY0BBH@P6GHPAUENTITY@@W4INT_TYPES@@@ZA[edx+eax*4]
  00170	ff d1		 call	 ecx
  00172	89 45 f8	 mov	 DWORD PTR _weapon_sub_type$[ebp], eax

; 114  : 
; 115  : 	if (weapon_sub_type != ENTITY_SUB_TYPE_WEAPON_NO_WEAPON)

  00175	83 7d f8 00	 cmp	 DWORD PTR _weapon_sub_type$[ebp], 0
  00179	74 26		 je	 SHORT $LN1@set_ah64a_

; 116  : 	{
; 117  : 		if (!get_local_entity_weapon_available (en, weapon_sub_type))

  0017b	8b 45 f8	 mov	 eax, DWORD PTR _weapon_sub_type$[ebp]
  0017e	50		 push	 eax
  0017f	8b 4d fc	 mov	 ecx, DWORD PTR _en$[ebp]
  00182	51		 push	 ecx
  00183	e8 00 00 00 00	 call	 ?get_local_entity_weapon_available@@YGHPAUENTITY@@H@Z ; get_local_entity_weapon_available
  00188	85 c0		 test	 eax, eax
  0018a	75 15		 jne	 SHORT $LN1@set_ah64a_

; 118  : 		{
; 119  : 			weapon_sub_type = get_next_available_weapon_sub_type (en);

  0018c	8b 45 fc	 mov	 eax, DWORD PTR _en$[ebp]
  0018f	50		 push	 eax
  00190	e8 00 00 00 00	 call	 ?get_next_available_weapon_sub_type@@YGHPAUENTITY@@@Z ; get_next_available_weapon_sub_type
  00195	89 45 f8	 mov	 DWORD PTR _weapon_sub_type$[ebp], eax

; 120  : 
; 121  : 			set_gunship_weapon (weapon_sub_type);

  00198	8b 45 f8	 mov	 eax, DWORD PTR _weapon_sub_type$[ebp]
  0019b	50		 push	 eax
  0019c	e8 00 00 00 00	 call	 ?set_gunship_weapon@@YGXH@Z ; set_gunship_weapon
$LN1@set_ah64a_:

; 122  : 		}
; 123  : 	}
; 124  : }

  001a1	5f		 pop	 edi
  001a2	5e		 pop	 esi
  001a3	5b		 pop	 ebx
  001a4	8b e5		 mov	 esp, ebp
  001a6	5d		 pop	 ebp
  001a7	c3		 ret	 0
?set_ah64a_weapon_damage_status@@YGXXZ ENDP		; set_ah64a_weapon_damage_status
_TEXT	ENDS
END
