; Listing generated by Microsoft (R) Optimizing Compiler Version 19.16.27045.0 

	TITLE	C:\Users\nhv90\Projects\eech\aphavoc\source\gunships\avionics\ah64a\ah_radar.c
	.686P
	.XMM
	include listing.inc
	.model	flat

INCLUDELIB MSVCRTD
INCLUDELIB OLDNAMES

PUBLIC	?initialise_ah64a_radar@@YGXXZ			; initialise_ah64a_radar
PUBLIC	?deinitialise_ah64a_radar@@YGXXZ		; deinitialise_ah64a_radar
PUBLIC	?update_ah64a_ground_radar@@YGXXZ		; update_ah64a_ground_radar
PUBLIC	?centre_ah64a_ground_radar@@YGXXZ		; centre_ah64a_ground_radar
PUBLIC	?update_ah64a_air_radar@@YGXXZ			; update_ah64a_air_radar
PUBLIC	?centre_ah64a_air_radar@@YGXXZ			; centre_ah64a_air_radar
PUBLIC	__real@3e860a92
PUBLIC	__real@3f060a92
PUBLIC	__real@3f490fdb
PUBLIC	__real@3f800000
PUBLIC	__real@3f860a92
PUBLIC	__real@3fc0c15240000000
PUBLIC	__real@3fc90fdb
PUBLIC	__real@3fd0c15240000000
PUBLIC	__real@3fe0000000000000
PUBLIC	__real@3fe921fb60000000
PUBLIC	__real@3ff921fb51000000
PUBLIC	__real@400921fb51000000
PUBLIC	__real@401921fb51000000
PUBLIC	__real@40490fdb
PUBLIC	__real@40c90fdb
PUBLIC	__real@43fa0000
PUBLIC	__real@447a0000
PUBLIC	__real@44fa0000
PUBLIC	__real@457a0000
PUBLIC	__real@45fa0000
PUBLIC	__real@461c4000
PUBLIC	__real@bfe921fb60000000
PUBLIC	__real@c00921fb51000000
EXTRN	?limit_radar_sweep@@YGXPAURADAR_PARAMS@@@Z:PROC	; limit_radar_sweep
EXTRN	?get_next_ground_radar_target@@YGXXZ:PROC	; get_next_ground_radar_target
EXTRN	?get_previous_ground_radar_target@@YGXXZ:PROC	; get_previous_ground_radar_target
EXTRN	?select_next_designated_ground_radar_target@@YGXXZ:PROC ; select_next_designated_ground_radar_target
EXTRN	?get_next_air_radar_target@@YGXXZ:PROC		; get_next_air_radar_target
EXTRN	?get_previous_air_radar_target@@YGXXZ:PROC	; get_previous_air_radar_target
EXTRN	?select_next_designated_air_radar_target@@YGXXZ:PROC ; select_next_designated_air_radar_target
EXTRN	?command_line_designated_targets@@3HA:DWORD	; command_line_designated_targets
EXTRN	?single_target_acquisition_system_steer_left_key@@3HA:DWORD ; single_target_acquisition_system_steer_left_key
EXTRN	?single_target_acquisition_system_steer_right_key@@3HA:DWORD ; single_target_acquisition_system_steer_right_key
EXTRN	?single_target_acquisition_system_steer_up_key@@3HA:DWORD ; single_target_acquisition_system_steer_up_key
EXTRN	?single_target_acquisition_system_steer_down_key@@3HA:DWORD ; single_target_acquisition_system_steer_down_key
EXTRN	?single_target_acquisition_system_inc_range_key@@3HA:DWORD ; single_target_acquisition_system_inc_range_key
EXTRN	?single_target_acquisition_system_dec_range_key@@3HA:DWORD ; single_target_acquisition_system_dec_range_key
EXTRN	?single_target_acquisition_system_inc_target_priority_key@@3HA:DWORD ; single_target_acquisition_system_inc_target_priority_key
EXTRN	?single_target_acquisition_system_dec_target_priority_key@@3HA:DWORD ; single_target_acquisition_system_dec_target_priority_key
EXTRN	?single_target_acquisition_system_select_next_target_key@@3HA:DWORD ; single_target_acquisition_system_select_next_target_key
EXTRN	?single_target_acquisition_system_select_previous_target_key@@3HA:DWORD ; single_target_acquisition_system_select_previous_target_key
EXTRN	?single_target_acquisition_system_select_next_designated_key@@3HA:DWORD ; single_target_acquisition_system_select_next_designated_key
EXTRN	?single_target_acquisition_system_select_previous_designated_key@@3HA:DWORD ; single_target_acquisition_system_select_previous_designated_key
EXTRN	?single_target_acquisition_system_steer_left_fast_key@@3HA:DWORD ; single_target_acquisition_system_steer_left_fast_key
EXTRN	?single_target_acquisition_system_steer_right_fast_key@@3HA:DWORD ; single_target_acquisition_system_steer_right_fast_key
EXTRN	?single_target_acquisition_system_steer_up_fast_key@@3HA:DWORD ; single_target_acquisition_system_steer_up_fast_key
EXTRN	?single_target_acquisition_system_steer_down_fast_key@@3HA:DWORD ; single_target_acquisition_system_steer_down_fast_key
EXTRN	?single_target_acquisition_system_inc_range_fast_key@@3HA:DWORD ; single_target_acquisition_system_inc_range_fast_key
EXTRN	?single_target_acquisition_system_dec_range_fast_key@@3HA:DWORD ; single_target_acquisition_system_dec_range_fast_key
EXTRN	?single_target_acquisition_system_inc_target_priority_fast_key@@3HA:DWORD ; single_target_acquisition_system_inc_target_priority_fast_key
EXTRN	?single_target_acquisition_system_dec_target_priority_fast_key@@3HA:DWORD ; single_target_acquisition_system_dec_target_priority_fast_key
EXTRN	?ground_radar@@3URADAR_PARAMS@@A:BYTE		; ground_radar
EXTRN	?air_radar@@3URADAR_PARAMS@@A:BYTE		; air_radar
EXTRN	__fltused:DWORD
;	COMDAT __real@c00921fb51000000
CONST	SEGMENT
__real@c00921fb51000000 DQ 0c00921fb51000000r	; -3.14159
CONST	ENDS
;	COMDAT __real@bfe921fb60000000
CONST	SEGMENT
__real@bfe921fb60000000 DQ 0bfe921fb60000000r	; -0.785398
CONST	ENDS
;	COMDAT __real@461c4000
CONST	SEGMENT
__real@461c4000 DD 0461c4000r			; 10000
CONST	ENDS
;	COMDAT __real@45fa0000
CONST	SEGMENT
__real@45fa0000 DD 045fa0000r			; 8000
CONST	ENDS
;	COMDAT __real@457a0000
CONST	SEGMENT
__real@457a0000 DD 0457a0000r			; 4000
CONST	ENDS
;	COMDAT __real@44fa0000
CONST	SEGMENT
__real@44fa0000 DD 044fa0000r			; 2000
CONST	ENDS
;	COMDAT __real@447a0000
CONST	SEGMENT
__real@447a0000 DD 0447a0000r			; 1000
CONST	ENDS
;	COMDAT __real@43fa0000
CONST	SEGMENT
__real@43fa0000 DD 043fa0000r			; 500
CONST	ENDS
;	COMDAT __real@40c90fdb
CONST	SEGMENT
__real@40c90fdb DD 040c90fdbr			; 6.28319
CONST	ENDS
;	COMDAT __real@40490fdb
CONST	SEGMENT
__real@40490fdb DD 040490fdbr			; 3.14159
CONST	ENDS
;	COMDAT __real@401921fb51000000
CONST	SEGMENT
__real@401921fb51000000 DQ 0401921fb51000000r	; 6.28319
CONST	ENDS
;	COMDAT __real@400921fb51000000
CONST	SEGMENT
__real@400921fb51000000 DQ 0400921fb51000000r	; 3.14159
CONST	ENDS
;	COMDAT __real@3ff921fb51000000
CONST	SEGMENT
__real@3ff921fb51000000 DQ 03ff921fb51000000r	; 1.5708
CONST	ENDS
;	COMDAT __real@3fe921fb60000000
CONST	SEGMENT
__real@3fe921fb60000000 DQ 03fe921fb60000000r	; 0.785398
CONST	ENDS
;	COMDAT __real@3fe0000000000000
CONST	SEGMENT
__real@3fe0000000000000 DQ 03fe0000000000000r	; 0.5
CONST	ENDS
;	COMDAT __real@3fd0c15240000000
CONST	SEGMENT
__real@3fd0c15240000000 DQ 03fd0c15240000000r	; 0.261799
CONST	ENDS
;	COMDAT __real@3fc90fdb
CONST	SEGMENT
__real@3fc90fdb DD 03fc90fdbr			; 1.5708
CONST	ENDS
;	COMDAT __real@3fc0c15240000000
CONST	SEGMENT
__real@3fc0c15240000000 DQ 03fc0c15240000000r	; 0.1309
CONST	ENDS
;	COMDAT __real@3f860a92
CONST	SEGMENT
__real@3f860a92 DD 03f860a92r			; 1.0472
CONST	ENDS
;	COMDAT __real@3f800000
CONST	SEGMENT
__real@3f800000 DD 03f800000r			; 1
CONST	ENDS
;	COMDAT __real@3f490fdb
CONST	SEGMENT
__real@3f490fdb DD 03f490fdbr			; 0.785398
CONST	ENDS
;	COMDAT __real@3f060a92
CONST	SEGMENT
__real@3f060a92 DD 03f060a92r			; 0.523599
CONST	ENDS
;	COMDAT __real@3e860a92
CONST	SEGMENT
__real@3e860a92 DD 03e860a92r			; 0.261799
CONST	ENDS
; Function compile flags: /Odtp /ZI
; File c:\users\nhv90\projects\eech\aphavoc\source\gunships\avionics\ah64a\ah_radar.c
;	COMDAT ?select_previous_air_radar_target@@YGXXZ
_TEXT	SEGMENT
?select_previous_air_radar_target@@YGXXZ PROC		; select_previous_air_radar_target, COMDAT

; 888  : {

  00000	55		 push	 ebp
  00001	8b ec		 mov	 ebp, esp
  00003	83 ec 40	 sub	 esp, 64			; 00000040H
  00006	53		 push	 ebx
  00007	56		 push	 esi
  00008	57		 push	 edi

; 889  : 	get_previous_air_radar_target ();

  00009	e8 00 00 00 00	 call	 ?get_previous_air_radar_target@@YGXXZ ; get_previous_air_radar_target

; 890  : }

  0000e	5f		 pop	 edi
  0000f	5e		 pop	 esi
  00010	5b		 pop	 ebx
  00011	8b e5		 mov	 esp, ebp
  00013	5d		 pop	 ebp
  00014	c3		 ret	 0
?select_previous_air_radar_target@@YGXXZ ENDP		; select_previous_air_radar_target
_TEXT	ENDS
; Function compile flags: /Odtp /ZI
; File c:\users\nhv90\projects\eech\aphavoc\source\gunships\avionics\ah64a\ah_radar.c
;	COMDAT ?select_next_air_radar_target@@YGXXZ
_TEXT	SEGMENT
?select_next_air_radar_target@@YGXXZ PROC		; select_next_air_radar_target, COMDAT

; 879  : {

  00000	55		 push	 ebp
  00001	8b ec		 mov	 ebp, esp
  00003	83 ec 40	 sub	 esp, 64			; 00000040H
  00006	53		 push	 ebx
  00007	56		 push	 esi
  00008	57		 push	 edi

; 880  : 	get_next_air_radar_target ();

  00009	e8 00 00 00 00	 call	 ?get_next_air_radar_target@@YGXXZ ; get_next_air_radar_target

; 881  : }

  0000e	5f		 pop	 edi
  0000f	5e		 pop	 esi
  00010	5b		 pop	 ebx
  00011	8b e5		 mov	 esp, ebp
  00013	5d		 pop	 ebp
  00014	c3		 ret	 0
?select_next_air_radar_target@@YGXXZ ENDP		; select_next_air_radar_target
_TEXT	ENDS
; Function compile flags: /Odtp /ZI
; File c:\users\nhv90\projects\eech\aphavoc\source\gunships\avionics\ah64a\ah_radar.c
;	COMDAT ?fast_dec_air_radar_scan_range@@YGXXZ
_TEXT	SEGMENT
?fast_dec_air_radar_scan_range@@YGXXZ PROC		; fast_dec_air_radar_scan_range, COMDAT

; 870  : {

  00000	55		 push	 ebp
  00001	8b ec		 mov	 ebp, esp
  00003	83 ec 40	 sub	 esp, 64			; 00000040H
  00006	53		 push	 ebx
  00007	56		 push	 esi
  00008	57		 push	 edi

; 871  : 	air_radar.scan_range = AH64A_RADAR_SCAN_RANGE_500;

  00009	f3 0f 10 05 00
	00 00 00	 movss	 xmm0, DWORD PTR __real@43fa0000
  00011	f3 0f 11 05 00
	00 00 00	 movss	 DWORD PTR ?air_radar@@3URADAR_PARAMS@@A, xmm0

; 872  : }

  00019	5f		 pop	 edi
  0001a	5e		 pop	 esi
  0001b	5b		 pop	 ebx
  0001c	8b e5		 mov	 esp, ebp
  0001e	5d		 pop	 ebp
  0001f	c3		 ret	 0
?fast_dec_air_radar_scan_range@@YGXXZ ENDP		; fast_dec_air_radar_scan_range
_TEXT	ENDS
; Function compile flags: /Odtp /ZI
; File c:\users\nhv90\projects\eech\aphavoc\source\gunships\avionics\ah64a\ah_radar.c
;	COMDAT ?dec_air_radar_scan_range@@YGXXZ
_TEXT	SEGMENT
?dec_air_radar_scan_range@@YGXXZ PROC			; dec_air_radar_scan_range, COMDAT

; 846  : {

  00000	55		 push	 ebp
  00001	8b ec		 mov	 ebp, esp
  00003	83 ec 40	 sub	 esp, 64			; 00000040H
  00006	53		 push	 ebx
  00007	56		 push	 esi
  00008	57		 push	 edi

; 847  : 	if (air_radar.scan_range == AH64A_RADAR_SCAN_RANGE_8000)

  00009	f3 0f 10 05 00
	00 00 00	 movss	 xmm0, DWORD PTR ?air_radar@@3URADAR_PARAMS@@A
  00011	0f 2e 05 00 00
	00 00		 ucomiss xmm0, DWORD PTR __real@45fa0000
  00018	9f		 lahf
  00019	f6 c4 44	 test	 ah, 68			; 00000044H
  0001c	7a 12		 jp	 SHORT $LN2@dec_air_ra

; 848  : 	{
; 849  : 		air_radar.scan_range = AH64A_RADAR_SCAN_RANGE_4000;

  0001e	f3 0f 10 05 00
	00 00 00	 movss	 xmm0, DWORD PTR __real@457a0000
  00026	f3 0f 11 05 00
	00 00 00	 movss	 DWORD PTR ?air_radar@@3URADAR_PARAMS@@A, xmm0
  0002e	eb 73		 jmp	 SHORT $LN8@dec_air_ra
$LN2@dec_air_ra:

; 850  : 	}
; 851  : 	else if (air_radar.scan_range == AH64A_RADAR_SCAN_RANGE_4000)

  00030	f3 0f 10 05 00
	00 00 00	 movss	 xmm0, DWORD PTR ?air_radar@@3URADAR_PARAMS@@A
  00038	0f 2e 05 00 00
	00 00		 ucomiss xmm0, DWORD PTR __real@457a0000
  0003f	9f		 lahf
  00040	f6 c4 44	 test	 ah, 68			; 00000044H
  00043	7a 12		 jp	 SHORT $LN4@dec_air_ra

; 852  : 	{
; 853  : 		air_radar.scan_range = AH64A_RADAR_SCAN_RANGE_2000;

  00045	f3 0f 10 05 00
	00 00 00	 movss	 xmm0, DWORD PTR __real@44fa0000
  0004d	f3 0f 11 05 00
	00 00 00	 movss	 DWORD PTR ?air_radar@@3URADAR_PARAMS@@A, xmm0
  00055	eb 4c		 jmp	 SHORT $LN8@dec_air_ra
$LN4@dec_air_ra:

; 854  : 	}
; 855  : 	else if (air_radar.scan_range == AH64A_RADAR_SCAN_RANGE_2000)

  00057	f3 0f 10 05 00
	00 00 00	 movss	 xmm0, DWORD PTR ?air_radar@@3URADAR_PARAMS@@A
  0005f	0f 2e 05 00 00
	00 00		 ucomiss xmm0, DWORD PTR __real@44fa0000
  00066	9f		 lahf
  00067	f6 c4 44	 test	 ah, 68			; 00000044H
  0006a	7a 12		 jp	 SHORT $LN6@dec_air_ra

; 856  : 	{
; 857  : 		air_radar.scan_range = AH64A_RADAR_SCAN_RANGE_1000;

  0006c	f3 0f 10 05 00
	00 00 00	 movss	 xmm0, DWORD PTR __real@447a0000
  00074	f3 0f 11 05 00
	00 00 00	 movss	 DWORD PTR ?air_radar@@3URADAR_PARAMS@@A, xmm0
  0007c	eb 25		 jmp	 SHORT $LN8@dec_air_ra
$LN6@dec_air_ra:

; 858  : 	}
; 859  : 	else if (air_radar.scan_range == AH64A_RADAR_SCAN_RANGE_1000)

  0007e	f3 0f 10 05 00
	00 00 00	 movss	 xmm0, DWORD PTR ?air_radar@@3URADAR_PARAMS@@A
  00086	0f 2e 05 00 00
	00 00		 ucomiss xmm0, DWORD PTR __real@447a0000
  0008d	9f		 lahf
  0008e	f6 c4 44	 test	 ah, 68			; 00000044H
  00091	7a 10		 jp	 SHORT $LN8@dec_air_ra

; 860  : 	{
; 861  : 		air_radar.scan_range = AH64A_RADAR_SCAN_RANGE_500;

  00093	f3 0f 10 05 00
	00 00 00	 movss	 xmm0, DWORD PTR __real@43fa0000
  0009b	f3 0f 11 05 00
	00 00 00	 movss	 DWORD PTR ?air_radar@@3URADAR_PARAMS@@A, xmm0
$LN8@dec_air_ra:

; 862  : 	}
; 863  : }

  000a3	5f		 pop	 edi
  000a4	5e		 pop	 esi
  000a5	5b		 pop	 ebx
  000a6	8b e5		 mov	 esp, ebp
  000a8	5d		 pop	 ebp
  000a9	c3		 ret	 0
?dec_air_radar_scan_range@@YGXXZ ENDP			; dec_air_radar_scan_range
_TEXT	ENDS
; Function compile flags: /Odtp /ZI
; File c:\users\nhv90\projects\eech\aphavoc\source\gunships\avionics\ah64a\ah_radar.c
;	COMDAT ?fast_inc_air_radar_scan_range@@YGXXZ
_TEXT	SEGMENT
?fast_inc_air_radar_scan_range@@YGXXZ PROC		; fast_inc_air_radar_scan_range, COMDAT

; 837  : {

  00000	55		 push	 ebp
  00001	8b ec		 mov	 ebp, esp
  00003	83 ec 40	 sub	 esp, 64			; 00000040H
  00006	53		 push	 ebx
  00007	56		 push	 esi
  00008	57		 push	 edi

; 838  : 	air_radar.scan_range = AH64A_RADAR_SCAN_RANGE_8000;

  00009	f3 0f 10 05 00
	00 00 00	 movss	 xmm0, DWORD PTR __real@45fa0000
  00011	f3 0f 11 05 00
	00 00 00	 movss	 DWORD PTR ?air_radar@@3URADAR_PARAMS@@A, xmm0

; 839  : }

  00019	5f		 pop	 edi
  0001a	5e		 pop	 esi
  0001b	5b		 pop	 ebx
  0001c	8b e5		 mov	 esp, ebp
  0001e	5d		 pop	 ebp
  0001f	c3		 ret	 0
?fast_inc_air_radar_scan_range@@YGXXZ ENDP		; fast_inc_air_radar_scan_range
_TEXT	ENDS
; Function compile flags: /Odtp /ZI
; File c:\users\nhv90\projects\eech\aphavoc\source\gunships\avionics\ah64a\ah_radar.c
;	COMDAT ?inc_air_radar_scan_range@@YGXXZ
_TEXT	SEGMENT
?inc_air_radar_scan_range@@YGXXZ PROC			; inc_air_radar_scan_range, COMDAT

; 813  : {

  00000	55		 push	 ebp
  00001	8b ec		 mov	 ebp, esp
  00003	83 ec 40	 sub	 esp, 64			; 00000040H
  00006	53		 push	 ebx
  00007	56		 push	 esi
  00008	57		 push	 edi

; 814  : 	if (air_radar.scan_range == AH64A_RADAR_SCAN_RANGE_500)

  00009	f3 0f 10 05 00
	00 00 00	 movss	 xmm0, DWORD PTR ?air_radar@@3URADAR_PARAMS@@A
  00011	0f 2e 05 00 00
	00 00		 ucomiss xmm0, DWORD PTR __real@43fa0000
  00018	9f		 lahf
  00019	f6 c4 44	 test	 ah, 68			; 00000044H
  0001c	7a 12		 jp	 SHORT $LN2@inc_air_ra

; 815  : 	{
; 816  : 		air_radar.scan_range = AH64A_RADAR_SCAN_RANGE_1000;

  0001e	f3 0f 10 05 00
	00 00 00	 movss	 xmm0, DWORD PTR __real@447a0000
  00026	f3 0f 11 05 00
	00 00 00	 movss	 DWORD PTR ?air_radar@@3URADAR_PARAMS@@A, xmm0
  0002e	eb 73		 jmp	 SHORT $LN8@inc_air_ra
$LN2@inc_air_ra:

; 817  : 	}
; 818  : 	else if (air_radar.scan_range == AH64A_RADAR_SCAN_RANGE_1000)

  00030	f3 0f 10 05 00
	00 00 00	 movss	 xmm0, DWORD PTR ?air_radar@@3URADAR_PARAMS@@A
  00038	0f 2e 05 00 00
	00 00		 ucomiss xmm0, DWORD PTR __real@447a0000
  0003f	9f		 lahf
  00040	f6 c4 44	 test	 ah, 68			; 00000044H
  00043	7a 12		 jp	 SHORT $LN4@inc_air_ra

; 819  : 	{
; 820  : 		air_radar.scan_range = AH64A_RADAR_SCAN_RANGE_2000;

  00045	f3 0f 10 05 00
	00 00 00	 movss	 xmm0, DWORD PTR __real@44fa0000
  0004d	f3 0f 11 05 00
	00 00 00	 movss	 DWORD PTR ?air_radar@@3URADAR_PARAMS@@A, xmm0
  00055	eb 4c		 jmp	 SHORT $LN8@inc_air_ra
$LN4@inc_air_ra:

; 821  : 	}
; 822  : 	else if (air_radar.scan_range == AH64A_RADAR_SCAN_RANGE_2000)

  00057	f3 0f 10 05 00
	00 00 00	 movss	 xmm0, DWORD PTR ?air_radar@@3URADAR_PARAMS@@A
  0005f	0f 2e 05 00 00
	00 00		 ucomiss xmm0, DWORD PTR __real@44fa0000
  00066	9f		 lahf
  00067	f6 c4 44	 test	 ah, 68			; 00000044H
  0006a	7a 12		 jp	 SHORT $LN6@inc_air_ra

; 823  : 	{
; 824  : 		air_radar.scan_range = AH64A_RADAR_SCAN_RANGE_4000;

  0006c	f3 0f 10 05 00
	00 00 00	 movss	 xmm0, DWORD PTR __real@457a0000
  00074	f3 0f 11 05 00
	00 00 00	 movss	 DWORD PTR ?air_radar@@3URADAR_PARAMS@@A, xmm0
  0007c	eb 25		 jmp	 SHORT $LN8@inc_air_ra
$LN6@inc_air_ra:

; 825  : 	}
; 826  : 	else if (air_radar.scan_range == AH64A_RADAR_SCAN_RANGE_4000)

  0007e	f3 0f 10 05 00
	00 00 00	 movss	 xmm0, DWORD PTR ?air_radar@@3URADAR_PARAMS@@A
  00086	0f 2e 05 00 00
	00 00		 ucomiss xmm0, DWORD PTR __real@457a0000
  0008d	9f		 lahf
  0008e	f6 c4 44	 test	 ah, 68			; 00000044H
  00091	7a 10		 jp	 SHORT $LN8@inc_air_ra

; 827  : 	{
; 828  : 		air_radar.scan_range = AH64A_RADAR_SCAN_RANGE_8000;

  00093	f3 0f 10 05 00
	00 00 00	 movss	 xmm0, DWORD PTR __real@45fa0000
  0009b	f3 0f 11 05 00
	00 00 00	 movss	 DWORD PTR ?air_radar@@3URADAR_PARAMS@@A, xmm0
$LN8@inc_air_ra:

; 829  : 	}
; 830  : }

  000a3	5f		 pop	 edi
  000a4	5e		 pop	 esi
  000a5	5b		 pop	 ebx
  000a6	8b e5		 mov	 esp, ebp
  000a8	5d		 pop	 ebp
  000a9	c3		 ret	 0
?inc_air_radar_scan_range@@YGXXZ ENDP			; inc_air_radar_scan_range
_TEXT	ENDS
; Function compile flags: /Odtp /ZI
; File c:\users\nhv90\projects\eech\aphavoc\source\gunships\avionics\ah64a\ah_radar.c
;	COMDAT ?fast_dec_air_radar_scan_arc_size@@YGXXZ
_TEXT	SEGMENT
?fast_dec_air_radar_scan_arc_size@@YGXXZ PROC		; fast_dec_air_radar_scan_arc_size, COMDAT

; 802  : {

  00000	55		 push	 ebp
  00001	8b ec		 mov	 ebp, esp
  00003	83 ec 40	 sub	 esp, 64			; 00000040H
  00006	53		 push	 ebx
  00007	56		 push	 esi
  00008	57		 push	 edi

; 803  : 	air_radar.scan_arc_size = AH64A_RADAR_SCAN_ARC_SIZE_30;

  00009	f3 0f 10 05 00
	00 00 00	 movss	 xmm0, DWORD PTR __real@3f060a92
  00011	f3 0f 11 05 08
	00 00 00	 movss	 DWORD PTR ?air_radar@@3URADAR_PARAMS@@A+8, xmm0

; 804  : 
; 805  : 	limit_radar_sweep (&air_radar);

  00019	68 00 00 00 00	 push	 OFFSET ?air_radar@@3URADAR_PARAMS@@A ; air_radar
  0001e	e8 00 00 00 00	 call	 ?limit_radar_sweep@@YGXPAURADAR_PARAMS@@@Z ; limit_radar_sweep

; 806  : }

  00023	5f		 pop	 edi
  00024	5e		 pop	 esi
  00025	5b		 pop	 ebx
  00026	8b e5		 mov	 esp, ebp
  00028	5d		 pop	 ebp
  00029	c3		 ret	 0
?fast_dec_air_radar_scan_arc_size@@YGXXZ ENDP		; fast_dec_air_radar_scan_arc_size
_TEXT	ENDS
; Function compile flags: /Odtp /ZI
; File c:\users\nhv90\projects\eech\aphavoc\source\gunships\avionics\ah64a\ah_radar.c
;	COMDAT ?dec_air_radar_scan_arc_size@@YGXXZ
_TEXT	SEGMENT
?dec_air_radar_scan_arc_size@@YGXXZ PROC		; dec_air_radar_scan_arc_size, COMDAT

; 772  : {

  00000	55		 push	 ebp
  00001	8b ec		 mov	 ebp, esp
  00003	83 ec 40	 sub	 esp, 64			; 00000040H
  00006	53		 push	 ebx
  00007	56		 push	 esi
  00008	57		 push	 edi

; 773  : 	if (air_radar.scan_arc_size == AH64A_RADAR_SCAN_ARC_SIZE_360)

  00009	f3 0f 10 05 08
	00 00 00	 movss	 xmm0, DWORD PTR ?air_radar@@3URADAR_PARAMS@@A+8
  00011	0f 2e 05 00 00
	00 00		 ucomiss xmm0, DWORD PTR __real@40c90fdb
  00018	9f		 lahf
  00019	f6 c4 44	 test	 ah, 68			; 00000044H
  0001c	7a 15		 jp	 SHORT $LN2@dec_air_ra

; 774  : 	{
; 775  : 		air_radar.scan_arc_size = AH64A_RADAR_SCAN_ARC_SIZE_180;

  0001e	f3 0f 10 05 00
	00 00 00	 movss	 xmm0, DWORD PTR __real@40490fdb
  00026	f3 0f 11 05 08
	00 00 00	 movss	 DWORD PTR ?air_radar@@3URADAR_PARAMS@@A+8, xmm0
  0002e	e9 9a 00 00 00	 jmp	 $LN10@dec_air_ra
$LN2@dec_air_ra:

; 776  : 	}
; 777  : 	else if (air_radar.scan_arc_size == AH64A_RADAR_SCAN_ARC_SIZE_180)

  00033	f3 0f 10 05 08
	00 00 00	 movss	 xmm0, DWORD PTR ?air_radar@@3URADAR_PARAMS@@A+8
  0003b	0f 2e 05 00 00
	00 00		 ucomiss xmm0, DWORD PTR __real@40490fdb
  00042	9f		 lahf
  00043	f6 c4 44	 test	 ah, 68			; 00000044H
  00046	7a 12		 jp	 SHORT $LN4@dec_air_ra

; 778  : 	{
; 779  : 		air_radar.scan_arc_size = AH64A_RADAR_SCAN_ARC_SIZE_90;

  00048	f3 0f 10 05 00
	00 00 00	 movss	 xmm0, DWORD PTR __real@3fc90fdb
  00050	f3 0f 11 05 08
	00 00 00	 movss	 DWORD PTR ?air_radar@@3URADAR_PARAMS@@A+8, xmm0
  00058	eb 73		 jmp	 SHORT $LN10@dec_air_ra
$LN4@dec_air_ra:

; 780  : 	}
; 781  : 	else if (air_radar.scan_arc_size == AH64A_RADAR_SCAN_ARC_SIZE_90)

  0005a	f3 0f 10 05 08
	00 00 00	 movss	 xmm0, DWORD PTR ?air_radar@@3URADAR_PARAMS@@A+8
  00062	0f 2e 05 00 00
	00 00		 ucomiss xmm0, DWORD PTR __real@3fc90fdb
  00069	9f		 lahf
  0006a	f6 c4 44	 test	 ah, 68			; 00000044H
  0006d	7a 12		 jp	 SHORT $LN6@dec_air_ra

; 782  : 	{
; 783  : 		air_radar.scan_arc_size = AH64A_RADAR_SCAN_ARC_SIZE_60;

  0006f	f3 0f 10 05 00
	00 00 00	 movss	 xmm0, DWORD PTR __real@3f860a92
  00077	f3 0f 11 05 08
	00 00 00	 movss	 DWORD PTR ?air_radar@@3URADAR_PARAMS@@A+8, xmm0
  0007f	eb 4c		 jmp	 SHORT $LN10@dec_air_ra
$LN6@dec_air_ra:

; 784  : 	}
; 785  : 	else if (air_radar.scan_arc_size == AH64A_RADAR_SCAN_ARC_SIZE_60)

  00081	f3 0f 10 05 08
	00 00 00	 movss	 xmm0, DWORD PTR ?air_radar@@3URADAR_PARAMS@@A+8
  00089	0f 2e 05 00 00
	00 00		 ucomiss xmm0, DWORD PTR __real@3f860a92
  00090	9f		 lahf
  00091	f6 c4 44	 test	 ah, 68			; 00000044H
  00094	7a 12		 jp	 SHORT $LN8@dec_air_ra

; 786  : 	{
; 787  : 		air_radar.scan_arc_size = AH64A_RADAR_SCAN_ARC_SIZE_45;

  00096	f3 0f 10 05 00
	00 00 00	 movss	 xmm0, DWORD PTR __real@3f490fdb
  0009e	f3 0f 11 05 08
	00 00 00	 movss	 DWORD PTR ?air_radar@@3URADAR_PARAMS@@A+8, xmm0
  000a6	eb 25		 jmp	 SHORT $LN10@dec_air_ra
$LN8@dec_air_ra:

; 788  : 	}
; 789  : 	else if (air_radar.scan_arc_size == AH64A_RADAR_SCAN_ARC_SIZE_45)

  000a8	f3 0f 10 05 08
	00 00 00	 movss	 xmm0, DWORD PTR ?air_radar@@3URADAR_PARAMS@@A+8
  000b0	0f 2e 05 00 00
	00 00		 ucomiss xmm0, DWORD PTR __real@3f490fdb
  000b7	9f		 lahf
  000b8	f6 c4 44	 test	 ah, 68			; 00000044H
  000bb	7a 10		 jp	 SHORT $LN10@dec_air_ra

; 790  : 	{
; 791  : 		air_radar.scan_arc_size = AH64A_RADAR_SCAN_ARC_SIZE_30;

  000bd	f3 0f 10 05 00
	00 00 00	 movss	 xmm0, DWORD PTR __real@3f060a92
  000c5	f3 0f 11 05 08
	00 00 00	 movss	 DWORD PTR ?air_radar@@3URADAR_PARAMS@@A+8, xmm0
$LN10@dec_air_ra:

; 792  : 	}
; 793  : 
; 794  : 	limit_radar_sweep (&air_radar);

  000cd	68 00 00 00 00	 push	 OFFSET ?air_radar@@3URADAR_PARAMS@@A ; air_radar
  000d2	e8 00 00 00 00	 call	 ?limit_radar_sweep@@YGXPAURADAR_PARAMS@@@Z ; limit_radar_sweep

; 795  : }

  000d7	5f		 pop	 edi
  000d8	5e		 pop	 esi
  000d9	5b		 pop	 ebx
  000da	8b e5		 mov	 esp, ebp
  000dc	5d		 pop	 ebp
  000dd	c3		 ret	 0
?dec_air_radar_scan_arc_size@@YGXXZ ENDP		; dec_air_radar_scan_arc_size
_TEXT	ENDS
; Function compile flags: /Odtp /ZI
; File c:\users\nhv90\projects\eech\aphavoc\source\gunships\avionics\ah64a\ah_radar.c
;	COMDAT ?fast_inc_air_radar_scan_arc_size@@YGXXZ
_TEXT	SEGMENT
?fast_inc_air_radar_scan_arc_size@@YGXXZ PROC		; fast_inc_air_radar_scan_arc_size, COMDAT

; 759  : {

  00000	55		 push	 ebp
  00001	8b ec		 mov	 ebp, esp
  00003	83 ec 40	 sub	 esp, 64			; 00000040H
  00006	53		 push	 ebx
  00007	56		 push	 esi
  00008	57		 push	 edi

; 760  : 	air_radar.scan_arc_size = AH64A_RADAR_SCAN_ARC_SIZE_360;

  00009	f3 0f 10 05 00
	00 00 00	 movss	 xmm0, DWORD PTR __real@40c90fdb
  00011	f3 0f 11 05 08
	00 00 00	 movss	 DWORD PTR ?air_radar@@3URADAR_PARAMS@@A+8, xmm0

; 761  : 
; 762  : 	air_radar.sweep_direction = RADAR_SWEEP_CW;

  00019	f3 0f 10 05 00
	00 00 00	 movss	 xmm0, DWORD PTR __real@3f800000
  00021	f3 0f 11 05 14
	00 00 00	 movss	 DWORD PTR ?air_radar@@3URADAR_PARAMS@@A+20, xmm0

; 763  : 
; 764  : 	limit_radar_sweep (&air_radar);

  00029	68 00 00 00 00	 push	 OFFSET ?air_radar@@3URADAR_PARAMS@@A ; air_radar
  0002e	e8 00 00 00 00	 call	 ?limit_radar_sweep@@YGXPAURADAR_PARAMS@@@Z ; limit_radar_sweep

; 765  : }

  00033	5f		 pop	 edi
  00034	5e		 pop	 esi
  00035	5b		 pop	 ebx
  00036	8b e5		 mov	 esp, ebp
  00038	5d		 pop	 ebp
  00039	c3		 ret	 0
?fast_inc_air_radar_scan_arc_size@@YGXXZ ENDP		; fast_inc_air_radar_scan_arc_size
_TEXT	ENDS
; Function compile flags: /Odtp /ZI
; File c:\users\nhv90\projects\eech\aphavoc\source\gunships\avionics\ah64a\ah_radar.c
;	COMDAT ?inc_air_radar_scan_arc_size@@YGXXZ
_TEXT	SEGMENT
?inc_air_radar_scan_arc_size@@YGXXZ PROC		; inc_air_radar_scan_arc_size, COMDAT

; 727  : {

  00000	55		 push	 ebp
  00001	8b ec		 mov	 ebp, esp
  00003	83 ec 40	 sub	 esp, 64			; 00000040H
  00006	53		 push	 ebx
  00007	56		 push	 esi
  00008	57		 push	 edi

; 728  : 	if (air_radar.scan_arc_size == AH64A_RADAR_SCAN_ARC_SIZE_30)

  00009	f3 0f 10 05 08
	00 00 00	 movss	 xmm0, DWORD PTR ?air_radar@@3URADAR_PARAMS@@A+8
  00011	0f 2e 05 00 00
	00 00		 ucomiss xmm0, DWORD PTR __real@3f060a92
  00018	9f		 lahf
  00019	f6 c4 44	 test	 ah, 68			; 00000044H
  0001c	7a 15		 jp	 SHORT $LN2@inc_air_ra

; 729  : 	{
; 730  : 		air_radar.scan_arc_size = AH64A_RADAR_SCAN_ARC_SIZE_45;

  0001e	f3 0f 10 05 00
	00 00 00	 movss	 xmm0, DWORD PTR __real@3f490fdb
  00026	f3 0f 11 05 08
	00 00 00	 movss	 DWORD PTR ?air_radar@@3URADAR_PARAMS@@A+8, xmm0
  0002e	e9 ad 00 00 00	 jmp	 $LN10@inc_air_ra
$LN2@inc_air_ra:

; 731  : 	}
; 732  : 	else if (air_radar.scan_arc_size == AH64A_RADAR_SCAN_ARC_SIZE_45)

  00033	f3 0f 10 05 08
	00 00 00	 movss	 xmm0, DWORD PTR ?air_radar@@3URADAR_PARAMS@@A+8
  0003b	0f 2e 05 00 00
	00 00		 ucomiss xmm0, DWORD PTR __real@3f490fdb
  00042	9f		 lahf
  00043	f6 c4 44	 test	 ah, 68			; 00000044H
  00046	7a 15		 jp	 SHORT $LN4@inc_air_ra

; 733  : 	{
; 734  : 		air_radar.scan_arc_size = AH64A_RADAR_SCAN_ARC_SIZE_60;

  00048	f3 0f 10 05 00
	00 00 00	 movss	 xmm0, DWORD PTR __real@3f860a92
  00050	f3 0f 11 05 08
	00 00 00	 movss	 DWORD PTR ?air_radar@@3URADAR_PARAMS@@A+8, xmm0
  00058	e9 83 00 00 00	 jmp	 $LN10@inc_air_ra
$LN4@inc_air_ra:

; 735  : 	}
; 736  : 	else if (air_radar.scan_arc_size == AH64A_RADAR_SCAN_ARC_SIZE_60)

  0005d	f3 0f 10 05 08
	00 00 00	 movss	 xmm0, DWORD PTR ?air_radar@@3URADAR_PARAMS@@A+8
  00065	0f 2e 05 00 00
	00 00		 ucomiss xmm0, DWORD PTR __real@3f860a92
  0006c	9f		 lahf
  0006d	f6 c4 44	 test	 ah, 68			; 00000044H
  00070	7a 12		 jp	 SHORT $LN6@inc_air_ra

; 737  : 	{
; 738  : 		air_radar.scan_arc_size = AH64A_RADAR_SCAN_ARC_SIZE_90;

  00072	f3 0f 10 05 00
	00 00 00	 movss	 xmm0, DWORD PTR __real@3fc90fdb
  0007a	f3 0f 11 05 08
	00 00 00	 movss	 DWORD PTR ?air_radar@@3URADAR_PARAMS@@A+8, xmm0
  00082	eb 5c		 jmp	 SHORT $LN10@inc_air_ra
$LN6@inc_air_ra:

; 739  : 	}
; 740  : 	else if (air_radar.scan_arc_size == AH64A_RADAR_SCAN_ARC_SIZE_90)

  00084	f3 0f 10 05 08
	00 00 00	 movss	 xmm0, DWORD PTR ?air_radar@@3URADAR_PARAMS@@A+8
  0008c	0f 2e 05 00 00
	00 00		 ucomiss xmm0, DWORD PTR __real@3fc90fdb
  00093	9f		 lahf
  00094	f6 c4 44	 test	 ah, 68			; 00000044H
  00097	7a 12		 jp	 SHORT $LN8@inc_air_ra

; 741  : 	{
; 742  : 		air_radar.scan_arc_size = AH64A_RADAR_SCAN_ARC_SIZE_180;

  00099	f3 0f 10 05 00
	00 00 00	 movss	 xmm0, DWORD PTR __real@40490fdb
  000a1	f3 0f 11 05 08
	00 00 00	 movss	 DWORD PTR ?air_radar@@3URADAR_PARAMS@@A+8, xmm0
  000a9	eb 35		 jmp	 SHORT $LN10@inc_air_ra
$LN8@inc_air_ra:

; 743  : 	}
; 744  : 	else if (air_radar.scan_arc_size == AH64A_RADAR_SCAN_ARC_SIZE_180)

  000ab	f3 0f 10 05 08
	00 00 00	 movss	 xmm0, DWORD PTR ?air_radar@@3URADAR_PARAMS@@A+8
  000b3	0f 2e 05 00 00
	00 00		 ucomiss xmm0, DWORD PTR __real@40490fdb
  000ba	9f		 lahf
  000bb	f6 c4 44	 test	 ah, 68			; 00000044H
  000be	7a 20		 jp	 SHORT $LN10@inc_air_ra

; 745  : 	{
; 746  : 		air_radar.scan_arc_size = AH64A_RADAR_SCAN_ARC_SIZE_360;

  000c0	f3 0f 10 05 00
	00 00 00	 movss	 xmm0, DWORD PTR __real@40c90fdb
  000c8	f3 0f 11 05 08
	00 00 00	 movss	 DWORD PTR ?air_radar@@3URADAR_PARAMS@@A+8, xmm0

; 747  : 
; 748  : 		air_radar.sweep_direction = RADAR_SWEEP_CW;

  000d0	f3 0f 10 05 00
	00 00 00	 movss	 xmm0, DWORD PTR __real@3f800000
  000d8	f3 0f 11 05 14
	00 00 00	 movss	 DWORD PTR ?air_radar@@3URADAR_PARAMS@@A+20, xmm0
$LN10@inc_air_ra:

; 749  : 	}
; 750  : 
; 751  : 	limit_radar_sweep (&air_radar);

  000e0	68 00 00 00 00	 push	 OFFSET ?air_radar@@3URADAR_PARAMS@@A ; air_radar
  000e5	e8 00 00 00 00	 call	 ?limit_radar_sweep@@YGXPAURADAR_PARAMS@@@Z ; limit_radar_sweep

; 752  : }

  000ea	5f		 pop	 edi
  000eb	5e		 pop	 esi
  000ec	5b		 pop	 ebx
  000ed	8b e5		 mov	 esp, ebp
  000ef	5d		 pop	 ebp
  000f0	c3		 ret	 0
?inc_air_radar_scan_arc_size@@YGXXZ ENDP		; inc_air_radar_scan_arc_size
_TEXT	ENDS
; Function compile flags: /Odtp /ZI
; File c:\users\nhv90\projects\eech\aphavoc\source\gunships\avionics\ah64a\ah_radar.c
;	COMDAT ?fast_rotate_air_radar_scan_datum_right@@YGXXZ
_TEXT	SEGMENT
?fast_rotate_air_radar_scan_datum_right@@YGXXZ PROC	; fast_rotate_air_radar_scan_datum_right, COMDAT

; 709  : {

  00000	55		 push	 ebp
  00001	8b ec		 mov	 ebp, esp
  00003	83 ec 40	 sub	 esp, 64			; 00000040H
  00006	53		 push	 ebx
  00007	56		 push	 esi
  00008	57		 push	 edi

; 710  : 	air_radar.scan_datum += rad (90.0);

  00009	f3 0f 5a 05 04
	00 00 00	 cvtss2sd xmm0, DWORD PTR ?air_radar@@3URADAR_PARAMS@@A+4
  00011	f2 0f 58 05 00
	00 00 00	 addsd	 xmm0, QWORD PTR __real@3ff921fb51000000
  00019	f2 0f 5a c0	 cvtsd2ss xmm0, xmm0
  0001d	f3 0f 11 05 04
	00 00 00	 movss	 DWORD PTR ?air_radar@@3URADAR_PARAMS@@A+4, xmm0

; 711  : 
; 712  : 	air_radar.sweep_offset -= rad (90.0);

  00025	f3 0f 5a 05 0c
	00 00 00	 cvtss2sd xmm0, DWORD PTR ?air_radar@@3URADAR_PARAMS@@A+12
  0002d	f2 0f 5c 05 00
	00 00 00	 subsd	 xmm0, QWORD PTR __real@3ff921fb51000000
  00035	f2 0f 5a c0	 cvtsd2ss xmm0, xmm0
  00039	f3 0f 11 05 0c
	00 00 00	 movss	 DWORD PTR ?air_radar@@3URADAR_PARAMS@@A+12, xmm0

; 713  : 
; 714  : 	if (air_radar.scan_datum > rad (180.0))

  00041	f3 0f 5a 05 04
	00 00 00	 cvtss2sd xmm0, DWORD PTR ?air_radar@@3URADAR_PARAMS@@A+4
  00049	66 0f 2f 05 00
	00 00 00	 comisd	 xmm0, QWORD PTR __real@400921fb51000000
  00051	76 1c		 jbe	 SHORT $LN2@fast_rotat

; 715  : 	{
; 716  : 		air_radar.scan_datum -= rad (360.0);

  00053	f3 0f 5a 05 04
	00 00 00	 cvtss2sd xmm0, DWORD PTR ?air_radar@@3URADAR_PARAMS@@A+4
  0005b	f2 0f 5c 05 00
	00 00 00	 subsd	 xmm0, QWORD PTR __real@401921fb51000000
  00063	f2 0f 5a c0	 cvtsd2ss xmm0, xmm0
  00067	f3 0f 11 05 04
	00 00 00	 movss	 DWORD PTR ?air_radar@@3URADAR_PARAMS@@A+4, xmm0
$LN2@fast_rotat:

; 717  : 	}
; 718  : 
; 719  : 	limit_radar_sweep (&air_radar);

  0006f	68 00 00 00 00	 push	 OFFSET ?air_radar@@3URADAR_PARAMS@@A ; air_radar
  00074	e8 00 00 00 00	 call	 ?limit_radar_sweep@@YGXPAURADAR_PARAMS@@@Z ; limit_radar_sweep

; 720  : }

  00079	5f		 pop	 edi
  0007a	5e		 pop	 esi
  0007b	5b		 pop	 ebx
  0007c	8b e5		 mov	 esp, ebp
  0007e	5d		 pop	 ebp
  0007f	c3		 ret	 0
?fast_rotate_air_radar_scan_datum_right@@YGXXZ ENDP	; fast_rotate_air_radar_scan_datum_right
_TEXT	ENDS
; Function compile flags: /Odtp /ZI
; File c:\users\nhv90\projects\eech\aphavoc\source\gunships\avionics\ah64a\ah_radar.c
;	COMDAT ?rotate_air_radar_scan_datum_right@@YGXXZ
_TEXT	SEGMENT
?rotate_air_radar_scan_datum_right@@YGXXZ PROC		; rotate_air_radar_scan_datum_right, COMDAT

; 691  : {

  00000	55		 push	 ebp
  00001	8b ec		 mov	 ebp, esp
  00003	83 ec 40	 sub	 esp, 64			; 00000040H
  00006	53		 push	 ebx
  00007	56		 push	 esi
  00008	57		 push	 edi

; 692  : 	air_radar.scan_datum += AH64A_AIR_RADAR_SCAN_DATUM_ROTATE_STEP;

  00009	f3 0f 5a 05 04
	00 00 00	 cvtss2sd xmm0, DWORD PTR ?air_radar@@3URADAR_PARAMS@@A+4
  00011	f2 0f 58 05 00
	00 00 00	 addsd	 xmm0, QWORD PTR __real@3fd0c15240000000
  00019	f2 0f 5a c0	 cvtsd2ss xmm0, xmm0
  0001d	f3 0f 11 05 04
	00 00 00	 movss	 DWORD PTR ?air_radar@@3URADAR_PARAMS@@A+4, xmm0

; 693  : 
; 694  : 	air_radar.sweep_offset -= AH64A_AIR_RADAR_SCAN_DATUM_ROTATE_STEP;

  00025	f3 0f 5a 05 0c
	00 00 00	 cvtss2sd xmm0, DWORD PTR ?air_radar@@3URADAR_PARAMS@@A+12
  0002d	f2 0f 5c 05 00
	00 00 00	 subsd	 xmm0, QWORD PTR __real@3fd0c15240000000
  00035	f2 0f 5a c0	 cvtsd2ss xmm0, xmm0
  00039	f3 0f 11 05 0c
	00 00 00	 movss	 DWORD PTR ?air_radar@@3URADAR_PARAMS@@A+12, xmm0

; 695  : 
; 696  : 	if (air_radar.scan_datum > rad (180.0))

  00041	f3 0f 5a 05 04
	00 00 00	 cvtss2sd xmm0, DWORD PTR ?air_radar@@3URADAR_PARAMS@@A+4
  00049	66 0f 2f 05 00
	00 00 00	 comisd	 xmm0, QWORD PTR __real@400921fb51000000
  00051	76 1c		 jbe	 SHORT $LN2@rotate_air

; 697  : 	{
; 698  : 		air_radar.scan_datum -= rad (360.0);

  00053	f3 0f 5a 05 04
	00 00 00	 cvtss2sd xmm0, DWORD PTR ?air_radar@@3URADAR_PARAMS@@A+4
  0005b	f2 0f 5c 05 00
	00 00 00	 subsd	 xmm0, QWORD PTR __real@401921fb51000000
  00063	f2 0f 5a c0	 cvtsd2ss xmm0, xmm0
  00067	f3 0f 11 05 04
	00 00 00	 movss	 DWORD PTR ?air_radar@@3URADAR_PARAMS@@A+4, xmm0
$LN2@rotate_air:

; 699  : 	}
; 700  : 
; 701  : 	limit_radar_sweep (&air_radar);

  0006f	68 00 00 00 00	 push	 OFFSET ?air_radar@@3URADAR_PARAMS@@A ; air_radar
  00074	e8 00 00 00 00	 call	 ?limit_radar_sweep@@YGXPAURADAR_PARAMS@@@Z ; limit_radar_sweep

; 702  : }

  00079	5f		 pop	 edi
  0007a	5e		 pop	 esi
  0007b	5b		 pop	 ebx
  0007c	8b e5		 mov	 esp, ebp
  0007e	5d		 pop	 ebp
  0007f	c3		 ret	 0
?rotate_air_radar_scan_datum_right@@YGXXZ ENDP		; rotate_air_radar_scan_datum_right
_TEXT	ENDS
; Function compile flags: /Odtp /ZI
; File c:\users\nhv90\projects\eech\aphavoc\source\gunships\avionics\ah64a\ah_radar.c
;	COMDAT ?fast_rotate_air_radar_scan_datum_left@@YGXXZ
_TEXT	SEGMENT
?fast_rotate_air_radar_scan_datum_left@@YGXXZ PROC	; fast_rotate_air_radar_scan_datum_left, COMDAT

; 673  : {

  00000	55		 push	 ebp
  00001	8b ec		 mov	 ebp, esp
  00003	83 ec 40	 sub	 esp, 64			; 00000040H
  00006	53		 push	 ebx
  00007	56		 push	 esi
  00008	57		 push	 edi

; 674  : 	air_radar.scan_datum -= rad (90.0);

  00009	f3 0f 5a 05 04
	00 00 00	 cvtss2sd xmm0, DWORD PTR ?air_radar@@3URADAR_PARAMS@@A+4
  00011	f2 0f 5c 05 00
	00 00 00	 subsd	 xmm0, QWORD PTR __real@3ff921fb51000000
  00019	f2 0f 5a c0	 cvtsd2ss xmm0, xmm0
  0001d	f3 0f 11 05 04
	00 00 00	 movss	 DWORD PTR ?air_radar@@3URADAR_PARAMS@@A+4, xmm0

; 675  : 
; 676  : 	air_radar.sweep_offset += rad (90.0);

  00025	f3 0f 5a 05 0c
	00 00 00	 cvtss2sd xmm0, DWORD PTR ?air_radar@@3URADAR_PARAMS@@A+12
  0002d	f2 0f 58 05 00
	00 00 00	 addsd	 xmm0, QWORD PTR __real@3ff921fb51000000
  00035	f2 0f 5a c0	 cvtsd2ss xmm0, xmm0
  00039	f3 0f 11 05 0c
	00 00 00	 movss	 DWORD PTR ?air_radar@@3URADAR_PARAMS@@A+12, xmm0

; 677  : 
; 678  : 	if (air_radar.scan_datum < rad (-180.0))

  00041	f3 0f 5a 05 04
	00 00 00	 cvtss2sd xmm0, DWORD PTR ?air_radar@@3URADAR_PARAMS@@A+4
  00049	f2 0f 10 0d 00
	00 00 00	 movsd	 xmm1, QWORD PTR __real@c00921fb51000000
  00051	66 0f 2f c8	 comisd	 xmm1, xmm0
  00055	76 1c		 jbe	 SHORT $LN2@fast_rotat

; 679  : 	{
; 680  : 		air_radar.scan_datum += rad (360.0);

  00057	f3 0f 5a 05 04
	00 00 00	 cvtss2sd xmm0, DWORD PTR ?air_radar@@3URADAR_PARAMS@@A+4
  0005f	f2 0f 58 05 00
	00 00 00	 addsd	 xmm0, QWORD PTR __real@401921fb51000000
  00067	f2 0f 5a c0	 cvtsd2ss xmm0, xmm0
  0006b	f3 0f 11 05 04
	00 00 00	 movss	 DWORD PTR ?air_radar@@3URADAR_PARAMS@@A+4, xmm0
$LN2@fast_rotat:

; 681  : 	}
; 682  : 
; 683  : 	limit_radar_sweep (&air_radar);

  00073	68 00 00 00 00	 push	 OFFSET ?air_radar@@3URADAR_PARAMS@@A ; air_radar
  00078	e8 00 00 00 00	 call	 ?limit_radar_sweep@@YGXPAURADAR_PARAMS@@@Z ; limit_radar_sweep

; 684  : }

  0007d	5f		 pop	 edi
  0007e	5e		 pop	 esi
  0007f	5b		 pop	 ebx
  00080	8b e5		 mov	 esp, ebp
  00082	5d		 pop	 ebp
  00083	c3		 ret	 0
?fast_rotate_air_radar_scan_datum_left@@YGXXZ ENDP	; fast_rotate_air_radar_scan_datum_left
_TEXT	ENDS
; Function compile flags: /Odtp /ZI
; File c:\users\nhv90\projects\eech\aphavoc\source\gunships\avionics\ah64a\ah_radar.c
;	COMDAT ?rotate_air_radar_scan_datum_left@@YGXXZ
_TEXT	SEGMENT
?rotate_air_radar_scan_datum_left@@YGXXZ PROC		; rotate_air_radar_scan_datum_left, COMDAT

; 655  : {

  00000	55		 push	 ebp
  00001	8b ec		 mov	 ebp, esp
  00003	83 ec 40	 sub	 esp, 64			; 00000040H
  00006	53		 push	 ebx
  00007	56		 push	 esi
  00008	57		 push	 edi

; 656  : 	air_radar.scan_datum -= AH64A_AIR_RADAR_SCAN_DATUM_ROTATE_STEP;

  00009	f3 0f 5a 05 04
	00 00 00	 cvtss2sd xmm0, DWORD PTR ?air_radar@@3URADAR_PARAMS@@A+4
  00011	f2 0f 5c 05 00
	00 00 00	 subsd	 xmm0, QWORD PTR __real@3fd0c15240000000
  00019	f2 0f 5a c0	 cvtsd2ss xmm0, xmm0
  0001d	f3 0f 11 05 04
	00 00 00	 movss	 DWORD PTR ?air_radar@@3URADAR_PARAMS@@A+4, xmm0

; 657  : 
; 658  : 	air_radar.sweep_offset += AH64A_AIR_RADAR_SCAN_DATUM_ROTATE_STEP;

  00025	f3 0f 5a 05 0c
	00 00 00	 cvtss2sd xmm0, DWORD PTR ?air_radar@@3URADAR_PARAMS@@A+12
  0002d	f2 0f 58 05 00
	00 00 00	 addsd	 xmm0, QWORD PTR __real@3fd0c15240000000
  00035	f2 0f 5a c0	 cvtsd2ss xmm0, xmm0
  00039	f3 0f 11 05 0c
	00 00 00	 movss	 DWORD PTR ?air_radar@@3URADAR_PARAMS@@A+12, xmm0

; 659  : 
; 660  : 	if (air_radar.scan_datum < rad (-180.0))

  00041	f3 0f 5a 05 04
	00 00 00	 cvtss2sd xmm0, DWORD PTR ?air_radar@@3URADAR_PARAMS@@A+4
  00049	f2 0f 10 0d 00
	00 00 00	 movsd	 xmm1, QWORD PTR __real@c00921fb51000000
  00051	66 0f 2f c8	 comisd	 xmm1, xmm0
  00055	76 1c		 jbe	 SHORT $LN2@rotate_air

; 661  : 	{
; 662  : 		air_radar.scan_datum += rad (360.0);

  00057	f3 0f 5a 05 04
	00 00 00	 cvtss2sd xmm0, DWORD PTR ?air_radar@@3URADAR_PARAMS@@A+4
  0005f	f2 0f 58 05 00
	00 00 00	 addsd	 xmm0, QWORD PTR __real@401921fb51000000
  00067	f2 0f 5a c0	 cvtsd2ss xmm0, xmm0
  0006b	f3 0f 11 05 04
	00 00 00	 movss	 DWORD PTR ?air_radar@@3URADAR_PARAMS@@A+4, xmm0
$LN2@rotate_air:

; 663  : 	}
; 664  : 
; 665  : 	limit_radar_sweep (&air_radar);

  00073	68 00 00 00 00	 push	 OFFSET ?air_radar@@3URADAR_PARAMS@@A ; air_radar
  00078	e8 00 00 00 00	 call	 ?limit_radar_sweep@@YGXPAURADAR_PARAMS@@@Z ; limit_radar_sweep

; 666  : }

  0007d	5f		 pop	 edi
  0007e	5e		 pop	 esi
  0007f	5b		 pop	 ebx
  00080	8b e5		 mov	 esp, ebp
  00082	5d		 pop	 ebp
  00083	c3		 ret	 0
?rotate_air_radar_scan_datum_left@@YGXXZ ENDP		; rotate_air_radar_scan_datum_left
_TEXT	ENDS
; Function compile flags: /Odtp /ZI
; File c:\users\nhv90\projects\eech\aphavoc\source\gunships\avionics\ah64a\ah_radar.c
;	COMDAT ?select_previous_ground_radar_target@@YGXXZ
_TEXT	SEGMENT
?select_previous_ground_radar_target@@YGXXZ PROC	; select_previous_ground_radar_target, COMDAT

; 456  : {

  00000	55		 push	 ebp
  00001	8b ec		 mov	 ebp, esp
  00003	83 ec 40	 sub	 esp, 64			; 00000040H
  00006	53		 push	 ebx
  00007	56		 push	 esi
  00008	57		 push	 edi

; 457  : 	get_previous_ground_radar_target ();

  00009	e8 00 00 00 00	 call	 ?get_previous_ground_radar_target@@YGXXZ ; get_previous_ground_radar_target

; 458  : }

  0000e	5f		 pop	 edi
  0000f	5e		 pop	 esi
  00010	5b		 pop	 ebx
  00011	8b e5		 mov	 esp, ebp
  00013	5d		 pop	 ebp
  00014	c3		 ret	 0
?select_previous_ground_radar_target@@YGXXZ ENDP	; select_previous_ground_radar_target
_TEXT	ENDS
; Function compile flags: /Odtp /ZI
; File c:\users\nhv90\projects\eech\aphavoc\source\gunships\avionics\ah64a\ah_radar.c
;	COMDAT ?select_next_ground_radar_target@@YGXXZ
_TEXT	SEGMENT
?select_next_ground_radar_target@@YGXXZ PROC		; select_next_ground_radar_target, COMDAT

; 447  : {

  00000	55		 push	 ebp
  00001	8b ec		 mov	 ebp, esp
  00003	83 ec 40	 sub	 esp, 64			; 00000040H
  00006	53		 push	 ebx
  00007	56		 push	 esi
  00008	57		 push	 edi

; 448  : 	get_next_ground_radar_target ();

  00009	e8 00 00 00 00	 call	 ?get_next_ground_radar_target@@YGXXZ ; get_next_ground_radar_target

; 449  : }

  0000e	5f		 pop	 edi
  0000f	5e		 pop	 esi
  00010	5b		 pop	 ebx
  00011	8b e5		 mov	 esp, ebp
  00013	5d		 pop	 ebp
  00014	c3		 ret	 0
?select_next_ground_radar_target@@YGXXZ ENDP		; select_next_ground_radar_target
_TEXT	ENDS
; Function compile flags: /Odtp /ZI
; File c:\users\nhv90\projects\eech\aphavoc\source\gunships\avionics\ah64a\ah_radar.c
;	COMDAT ?fast_dec_ground_radar_target_priority@@YGXXZ
_TEXT	SEGMENT
?fast_dec_ground_radar_target_priority@@YGXXZ PROC	; fast_dec_ground_radar_target_priority, COMDAT

; 438  : {

  00000	55		 push	 ebp
  00001	8b ec		 mov	 ebp, esp
  00003	83 ec 40	 sub	 esp, 64			; 00000040H
  00006	53		 push	 ebx
  00007	56		 push	 esi
  00008	57		 push	 edi

; 439  : 	ground_radar.target_priority_type = TARGET_PRIORITY_UNKNOWN;

  00009	c7 05 2c 00 00
	00 00 00 00 00	 mov	 DWORD PTR ?ground_radar@@3URADAR_PARAMS@@A+44, 0

; 440  : }

  00013	5f		 pop	 edi
  00014	5e		 pop	 esi
  00015	5b		 pop	 ebx
  00016	8b e5		 mov	 esp, ebp
  00018	5d		 pop	 ebp
  00019	c3		 ret	 0
?fast_dec_ground_radar_target_priority@@YGXXZ ENDP	; fast_dec_ground_radar_target_priority
_TEXT	ENDS
; Function compile flags: /Odtp /ZI
; File c:\users\nhv90\projects\eech\aphavoc\source\gunships\avionics\ah64a\ah_radar.c
;	COMDAT ?dec_ground_radar_target_priority@@YGXXZ
_TEXT	SEGMENT
?dec_ground_radar_target_priority@@YGXXZ PROC		; dec_ground_radar_target_priority, COMDAT

; 412  : {

  00000	55		 push	 ebp
  00001	8b ec		 mov	 ebp, esp
  00003	83 ec 40	 sub	 esp, 64			; 00000040H
  00006	53		 push	 ebx
  00007	56		 push	 esi
  00008	57		 push	 edi

; 413  : 	if (ground_radar.target_priority_type == TARGET_PRIORITY_HIGH)

  00009	83 3d 2c 00 00
	00 03		 cmp	 DWORD PTR ?ground_radar@@3URADAR_PARAMS@@A+44, 3
  00010	75 0c		 jne	 SHORT $LN2@dec_ground

; 414  : 	{
; 415  : 		ground_radar.target_priority_type = TARGET_PRIORITY_MEDIUM;

  00012	c7 05 2c 00 00
	00 02 00 00 00	 mov	 DWORD PTR ?ground_radar@@3URADAR_PARAMS@@A+44, 2
  0001c	eb 3d		 jmp	 SHORT $LN1@dec_ground
$LN2@dec_ground:

; 416  : 	}
; 417  : 	else if (ground_radar.target_priority_type == TARGET_PRIORITY_MEDIUM)

  0001e	83 3d 2c 00 00
	00 02		 cmp	 DWORD PTR ?ground_radar@@3URADAR_PARAMS@@A+44, 2
  00025	75 0c		 jne	 SHORT $LN4@dec_ground

; 418  : 	{
; 419  : 		ground_radar.target_priority_type = TARGET_PRIORITY_LOW;

  00027	c7 05 2c 00 00
	00 01 00 00 00	 mov	 DWORD PTR ?ground_radar@@3URADAR_PARAMS@@A+44, 1
  00031	eb 28		 jmp	 SHORT $LN1@dec_ground
$LN4@dec_ground:

; 420  : 	}
; 421  : 	else if (ground_radar.target_priority_type == TARGET_PRIORITY_LOW)

  00033	83 3d 2c 00 00
	00 01		 cmp	 DWORD PTR ?ground_radar@@3URADAR_PARAMS@@A+44, 1
  0003a	75 0c		 jne	 SHORT $LN6@dec_ground

; 422  : 	{
; 423  : 		ground_radar.target_priority_type = TARGET_PRIORITY_UNKNOWN;

  0003c	c7 05 2c 00 00
	00 00 00 00 00	 mov	 DWORD PTR ?ground_radar@@3URADAR_PARAMS@@A+44, 0
  00046	eb 13		 jmp	 SHORT $LN1@dec_ground
$LN6@dec_ground:

; 424  : 	}
; 425  : 	// Jabberwock 031107 Designated targets
; 426  : 	else if (ground_radar.target_priority_type == TARGET_PRIORITY_DESIGNATED)

  00048	83 3d 2c 00 00
	00 04		 cmp	 DWORD PTR ?ground_radar@@3URADAR_PARAMS@@A+44, 4
  0004f	75 0a		 jne	 SHORT $LN1@dec_ground

; 427  : 	{
; 428  : 		ground_radar.target_priority_type = TARGET_PRIORITY_HIGH;

  00051	c7 05 2c 00 00
	00 03 00 00 00	 mov	 DWORD PTR ?ground_radar@@3URADAR_PARAMS@@A+44, 3
$LN1@dec_ground:

; 429  : 	}
; 430  : 	// Jabberwock 031107 ends	
; 431  : }

  0005b	5f		 pop	 edi
  0005c	5e		 pop	 esi
  0005d	5b		 pop	 ebx
  0005e	8b e5		 mov	 esp, ebp
  00060	5d		 pop	 ebp
  00061	c3		 ret	 0
?dec_ground_radar_target_priority@@YGXXZ ENDP		; dec_ground_radar_target_priority
_TEXT	ENDS
; Function compile flags: /Odtp /ZI
; File c:\users\nhv90\projects\eech\aphavoc\source\gunships\avionics\ah64a\ah_radar.c
;	COMDAT ?fast_inc_ground_radar_target_priority@@YGXXZ
_TEXT	SEGMENT
?fast_inc_ground_radar_target_priority@@YGXXZ PROC	; fast_inc_ground_radar_target_priority, COMDAT

; 403  : {

  00000	55		 push	 ebp
  00001	8b ec		 mov	 ebp, esp
  00003	83 ec 40	 sub	 esp, 64			; 00000040H
  00006	53		 push	 ebx
  00007	56		 push	 esi
  00008	57		 push	 edi

; 404  : 	ground_radar.target_priority_type = TARGET_PRIORITY_HIGH;

  00009	c7 05 2c 00 00
	00 03 00 00 00	 mov	 DWORD PTR ?ground_radar@@3URADAR_PARAMS@@A+44, 3

; 405  : }

  00013	5f		 pop	 edi
  00014	5e		 pop	 esi
  00015	5b		 pop	 ebx
  00016	8b e5		 mov	 esp, ebp
  00018	5d		 pop	 ebp
  00019	c3		 ret	 0
?fast_inc_ground_radar_target_priority@@YGXXZ ENDP	; fast_inc_ground_radar_target_priority
_TEXT	ENDS
; Function compile flags: /Odtp /ZI
; File c:\users\nhv90\projects\eech\aphavoc\source\gunships\avionics\ah64a\ah_radar.c
;	COMDAT ?inc_ground_radar_target_priority@@YGXXZ
_TEXT	SEGMENT
?inc_ground_radar_target_priority@@YGXXZ PROC		; inc_ground_radar_target_priority, COMDAT

; 377  : {

  00000	55		 push	 ebp
  00001	8b ec		 mov	 ebp, esp
  00003	83 ec 40	 sub	 esp, 64			; 00000040H
  00006	53		 push	 ebx
  00007	56		 push	 esi
  00008	57		 push	 edi

; 378  : 	if (ground_radar.target_priority_type == TARGET_PRIORITY_UNKNOWN)

  00009	83 3d 2c 00 00
	00 00		 cmp	 DWORD PTR ?ground_radar@@3URADAR_PARAMS@@A+44, 0
  00010	75 0c		 jne	 SHORT $LN2@inc_ground

; 379  : 	{
; 380  : 		ground_radar.target_priority_type = TARGET_PRIORITY_LOW;

  00012	c7 05 2c 00 00
	00 01 00 00 00	 mov	 DWORD PTR ?ground_radar@@3URADAR_PARAMS@@A+44, 1
  0001c	eb 46		 jmp	 SHORT $LN1@inc_ground
$LN2@inc_ground:

; 381  : 	}
; 382  : 	else if (ground_radar.target_priority_type == TARGET_PRIORITY_LOW)

  0001e	83 3d 2c 00 00
	00 01		 cmp	 DWORD PTR ?ground_radar@@3URADAR_PARAMS@@A+44, 1
  00025	75 0c		 jne	 SHORT $LN4@inc_ground

; 383  : 	{
; 384  : 		ground_radar.target_priority_type = TARGET_PRIORITY_MEDIUM;

  00027	c7 05 2c 00 00
	00 02 00 00 00	 mov	 DWORD PTR ?ground_radar@@3URADAR_PARAMS@@A+44, 2
  00031	eb 31		 jmp	 SHORT $LN1@inc_ground
$LN4@inc_ground:

; 385  : 	}
; 386  : 	else if (ground_radar.target_priority_type == TARGET_PRIORITY_MEDIUM)

  00033	83 3d 2c 00 00
	00 02		 cmp	 DWORD PTR ?ground_radar@@3URADAR_PARAMS@@A+44, 2
  0003a	75 0c		 jne	 SHORT $LN6@inc_ground

; 387  : 	{
; 388  : 		ground_radar.target_priority_type = TARGET_PRIORITY_HIGH;

  0003c	c7 05 2c 00 00
	00 03 00 00 00	 mov	 DWORD PTR ?ground_radar@@3URADAR_PARAMS@@A+44, 3
  00046	eb 1c		 jmp	 SHORT $LN1@inc_ground
$LN6@inc_ground:

; 389  : 	}
; 390  : 	// Jabberwock 031107 Designated targets
; 391  : 	else if ((ground_radar.target_priority_type == TARGET_PRIORITY_HIGH) && command_line_designated_targets)

  00048	83 3d 2c 00 00
	00 03		 cmp	 DWORD PTR ?ground_radar@@3URADAR_PARAMS@@A+44, 3
  0004f	75 13		 jne	 SHORT $LN1@inc_ground
  00051	83 3d 00 00 00
	00 00		 cmp	 DWORD PTR ?command_line_designated_targets@@3HA, 0 ; command_line_designated_targets
  00058	74 0a		 je	 SHORT $LN1@inc_ground

; 392  : 	{
; 393  : 		ground_radar.target_priority_type = TARGET_PRIORITY_DESIGNATED;

  0005a	c7 05 2c 00 00
	00 04 00 00 00	 mov	 DWORD PTR ?ground_radar@@3URADAR_PARAMS@@A+44, 4
$LN1@inc_ground:

; 394  : 	}
; 395  : 	// Jabberwock 031107 ends	
; 396  : }

  00064	5f		 pop	 edi
  00065	5e		 pop	 esi
  00066	5b		 pop	 ebx
  00067	8b e5		 mov	 esp, ebp
  00069	5d		 pop	 ebp
  0006a	c3		 ret	 0
?inc_ground_radar_target_priority@@YGXXZ ENDP		; inc_ground_radar_target_priority
_TEXT	ENDS
; Function compile flags: /Odtp /ZI
; File c:\users\nhv90\projects\eech\aphavoc\source\gunships\avionics\ah64a\ah_radar.c
;	COMDAT ?fast_dec_ground_radar_scan_range@@YGXXZ
_TEXT	SEGMENT
?fast_dec_ground_radar_scan_range@@YGXXZ PROC		; fast_dec_ground_radar_scan_range, COMDAT

; 368  : {

  00000	55		 push	 ebp
  00001	8b ec		 mov	 ebp, esp
  00003	83 ec 40	 sub	 esp, 64			; 00000040H
  00006	53		 push	 ebx
  00007	56		 push	 esi
  00008	57		 push	 edi

; 369  : 	ground_radar.scan_range = AH64A_RADAR_SCAN_RANGE_500;

  00009	f3 0f 10 05 00
	00 00 00	 movss	 xmm0, DWORD PTR __real@43fa0000
  00011	f3 0f 11 05 00
	00 00 00	 movss	 DWORD PTR ?ground_radar@@3URADAR_PARAMS@@A, xmm0

; 370  : }

  00019	5f		 pop	 edi
  0001a	5e		 pop	 esi
  0001b	5b		 pop	 ebx
  0001c	8b e5		 mov	 esp, ebp
  0001e	5d		 pop	 ebp
  0001f	c3		 ret	 0
?fast_dec_ground_radar_scan_range@@YGXXZ ENDP		; fast_dec_ground_radar_scan_range
_TEXT	ENDS
; Function compile flags: /Odtp /ZI
; File c:\users\nhv90\projects\eech\aphavoc\source\gunships\avionics\ah64a\ah_radar.c
;	COMDAT ?dec_ground_radar_scan_range@@YGXXZ
_TEXT	SEGMENT
?dec_ground_radar_scan_range@@YGXXZ PROC		; dec_ground_radar_scan_range, COMDAT

; 344  : {

  00000	55		 push	 ebp
  00001	8b ec		 mov	 ebp, esp
  00003	83 ec 40	 sub	 esp, 64			; 00000040H
  00006	53		 push	 ebx
  00007	56		 push	 esi
  00008	57		 push	 edi

; 345  : 	if (ground_radar.scan_range == AH64A_RADAR_SCAN_RANGE_8000)

  00009	f3 0f 10 05 00
	00 00 00	 movss	 xmm0, DWORD PTR ?ground_radar@@3URADAR_PARAMS@@A
  00011	0f 2e 05 00 00
	00 00		 ucomiss xmm0, DWORD PTR __real@45fa0000
  00018	9f		 lahf
  00019	f6 c4 44	 test	 ah, 68			; 00000044H
  0001c	7a 12		 jp	 SHORT $LN2@dec_ground

; 346  : 	{
; 347  : 		ground_radar.scan_range = AH64A_RADAR_SCAN_RANGE_4000;

  0001e	f3 0f 10 05 00
	00 00 00	 movss	 xmm0, DWORD PTR __real@457a0000
  00026	f3 0f 11 05 00
	00 00 00	 movss	 DWORD PTR ?ground_radar@@3URADAR_PARAMS@@A, xmm0
  0002e	eb 73		 jmp	 SHORT $LN8@dec_ground
$LN2@dec_ground:

; 348  : 	}
; 349  : 	else if (ground_radar.scan_range == AH64A_RADAR_SCAN_RANGE_4000)

  00030	f3 0f 10 05 00
	00 00 00	 movss	 xmm0, DWORD PTR ?ground_radar@@3URADAR_PARAMS@@A
  00038	0f 2e 05 00 00
	00 00		 ucomiss xmm0, DWORD PTR __real@457a0000
  0003f	9f		 lahf
  00040	f6 c4 44	 test	 ah, 68			; 00000044H
  00043	7a 12		 jp	 SHORT $LN4@dec_ground

; 350  : 	{
; 351  : 		ground_radar.scan_range = AH64A_RADAR_SCAN_RANGE_2000;

  00045	f3 0f 10 05 00
	00 00 00	 movss	 xmm0, DWORD PTR __real@44fa0000
  0004d	f3 0f 11 05 00
	00 00 00	 movss	 DWORD PTR ?ground_radar@@3URADAR_PARAMS@@A, xmm0
  00055	eb 4c		 jmp	 SHORT $LN8@dec_ground
$LN4@dec_ground:

; 352  : 	}
; 353  : 	else if (ground_radar.scan_range == AH64A_RADAR_SCAN_RANGE_2000)

  00057	f3 0f 10 05 00
	00 00 00	 movss	 xmm0, DWORD PTR ?ground_radar@@3URADAR_PARAMS@@A
  0005f	0f 2e 05 00 00
	00 00		 ucomiss xmm0, DWORD PTR __real@44fa0000
  00066	9f		 lahf
  00067	f6 c4 44	 test	 ah, 68			; 00000044H
  0006a	7a 12		 jp	 SHORT $LN6@dec_ground

; 354  : 	{
; 355  : 		ground_radar.scan_range = AH64A_RADAR_SCAN_RANGE_1000;

  0006c	f3 0f 10 05 00
	00 00 00	 movss	 xmm0, DWORD PTR __real@447a0000
  00074	f3 0f 11 05 00
	00 00 00	 movss	 DWORD PTR ?ground_radar@@3URADAR_PARAMS@@A, xmm0
  0007c	eb 25		 jmp	 SHORT $LN8@dec_ground
$LN6@dec_ground:

; 356  : 	}
; 357  : 	else if (ground_radar.scan_range == AH64A_RADAR_SCAN_RANGE_1000)

  0007e	f3 0f 10 05 00
	00 00 00	 movss	 xmm0, DWORD PTR ?ground_radar@@3URADAR_PARAMS@@A
  00086	0f 2e 05 00 00
	00 00		 ucomiss xmm0, DWORD PTR __real@447a0000
  0008d	9f		 lahf
  0008e	f6 c4 44	 test	 ah, 68			; 00000044H
  00091	7a 10		 jp	 SHORT $LN8@dec_ground

; 358  : 	{
; 359  : 		ground_radar.scan_range = AH64A_RADAR_SCAN_RANGE_500;

  00093	f3 0f 10 05 00
	00 00 00	 movss	 xmm0, DWORD PTR __real@43fa0000
  0009b	f3 0f 11 05 00
	00 00 00	 movss	 DWORD PTR ?ground_radar@@3URADAR_PARAMS@@A, xmm0
$LN8@dec_ground:

; 360  : 	}
; 361  : }

  000a3	5f		 pop	 edi
  000a4	5e		 pop	 esi
  000a5	5b		 pop	 ebx
  000a6	8b e5		 mov	 esp, ebp
  000a8	5d		 pop	 ebp
  000a9	c3		 ret	 0
?dec_ground_radar_scan_range@@YGXXZ ENDP		; dec_ground_radar_scan_range
_TEXT	ENDS
; Function compile flags: /Odtp /ZI
; File c:\users\nhv90\projects\eech\aphavoc\source\gunships\avionics\ah64a\ah_radar.c
;	COMDAT ?fast_inc_ground_radar_scan_range@@YGXXZ
_TEXT	SEGMENT
?fast_inc_ground_radar_scan_range@@YGXXZ PROC		; fast_inc_ground_radar_scan_range, COMDAT

; 335  : {

  00000	55		 push	 ebp
  00001	8b ec		 mov	 ebp, esp
  00003	83 ec 40	 sub	 esp, 64			; 00000040H
  00006	53		 push	 ebx
  00007	56		 push	 esi
  00008	57		 push	 edi

; 336  : 	ground_radar.scan_range = AH64A_RADAR_SCAN_RANGE_8000;

  00009	f3 0f 10 05 00
	00 00 00	 movss	 xmm0, DWORD PTR __real@45fa0000
  00011	f3 0f 11 05 00
	00 00 00	 movss	 DWORD PTR ?ground_radar@@3URADAR_PARAMS@@A, xmm0

; 337  : }

  00019	5f		 pop	 edi
  0001a	5e		 pop	 esi
  0001b	5b		 pop	 ebx
  0001c	8b e5		 mov	 esp, ebp
  0001e	5d		 pop	 ebp
  0001f	c3		 ret	 0
?fast_inc_ground_radar_scan_range@@YGXXZ ENDP		; fast_inc_ground_radar_scan_range
_TEXT	ENDS
; Function compile flags: /Odtp /ZI
; File c:\users\nhv90\projects\eech\aphavoc\source\gunships\avionics\ah64a\ah_radar.c
;	COMDAT ?inc_ground_radar_scan_range@@YGXXZ
_TEXT	SEGMENT
?inc_ground_radar_scan_range@@YGXXZ PROC		; inc_ground_radar_scan_range, COMDAT

; 311  : {

  00000	55		 push	 ebp
  00001	8b ec		 mov	 ebp, esp
  00003	83 ec 40	 sub	 esp, 64			; 00000040H
  00006	53		 push	 ebx
  00007	56		 push	 esi
  00008	57		 push	 edi

; 312  : 	if (ground_radar.scan_range == AH64A_RADAR_SCAN_RANGE_500)

  00009	f3 0f 10 05 00
	00 00 00	 movss	 xmm0, DWORD PTR ?ground_radar@@3URADAR_PARAMS@@A
  00011	0f 2e 05 00 00
	00 00		 ucomiss xmm0, DWORD PTR __real@43fa0000
  00018	9f		 lahf
  00019	f6 c4 44	 test	 ah, 68			; 00000044H
  0001c	7a 12		 jp	 SHORT $LN2@inc_ground

; 313  : 	{
; 314  : 		ground_radar.scan_range = AH64A_RADAR_SCAN_RANGE_1000;

  0001e	f3 0f 10 05 00
	00 00 00	 movss	 xmm0, DWORD PTR __real@447a0000
  00026	f3 0f 11 05 00
	00 00 00	 movss	 DWORD PTR ?ground_radar@@3URADAR_PARAMS@@A, xmm0
  0002e	eb 73		 jmp	 SHORT $LN8@inc_ground
$LN2@inc_ground:

; 315  : 	}
; 316  : 	else if (ground_radar.scan_range == AH64A_RADAR_SCAN_RANGE_1000)

  00030	f3 0f 10 05 00
	00 00 00	 movss	 xmm0, DWORD PTR ?ground_radar@@3URADAR_PARAMS@@A
  00038	0f 2e 05 00 00
	00 00		 ucomiss xmm0, DWORD PTR __real@447a0000
  0003f	9f		 lahf
  00040	f6 c4 44	 test	 ah, 68			; 00000044H
  00043	7a 12		 jp	 SHORT $LN4@inc_ground

; 317  : 	{
; 318  : 		ground_radar.scan_range = AH64A_RADAR_SCAN_RANGE_2000;

  00045	f3 0f 10 05 00
	00 00 00	 movss	 xmm0, DWORD PTR __real@44fa0000
  0004d	f3 0f 11 05 00
	00 00 00	 movss	 DWORD PTR ?ground_radar@@3URADAR_PARAMS@@A, xmm0
  00055	eb 4c		 jmp	 SHORT $LN8@inc_ground
$LN4@inc_ground:

; 319  : 	}
; 320  : 	else if (ground_radar.scan_range == AH64A_RADAR_SCAN_RANGE_2000)

  00057	f3 0f 10 05 00
	00 00 00	 movss	 xmm0, DWORD PTR ?ground_radar@@3URADAR_PARAMS@@A
  0005f	0f 2e 05 00 00
	00 00		 ucomiss xmm0, DWORD PTR __real@44fa0000
  00066	9f		 lahf
  00067	f6 c4 44	 test	 ah, 68			; 00000044H
  0006a	7a 12		 jp	 SHORT $LN6@inc_ground

; 321  : 	{
; 322  : 		ground_radar.scan_range = AH64A_RADAR_SCAN_RANGE_4000;

  0006c	f3 0f 10 05 00
	00 00 00	 movss	 xmm0, DWORD PTR __real@457a0000
  00074	f3 0f 11 05 00
	00 00 00	 movss	 DWORD PTR ?ground_radar@@3URADAR_PARAMS@@A, xmm0
  0007c	eb 25		 jmp	 SHORT $LN8@inc_ground
$LN6@inc_ground:

; 323  : 	}
; 324  : 	else if (ground_radar.scan_range == AH64A_RADAR_SCAN_RANGE_4000)

  0007e	f3 0f 10 05 00
	00 00 00	 movss	 xmm0, DWORD PTR ?ground_radar@@3URADAR_PARAMS@@A
  00086	0f 2e 05 00 00
	00 00		 ucomiss xmm0, DWORD PTR __real@457a0000
  0008d	9f		 lahf
  0008e	f6 c4 44	 test	 ah, 68			; 00000044H
  00091	7a 10		 jp	 SHORT $LN8@inc_ground

; 325  : 	{
; 326  : 		ground_radar.scan_range = AH64A_RADAR_SCAN_RANGE_8000;

  00093	f3 0f 10 05 00
	00 00 00	 movss	 xmm0, DWORD PTR __real@45fa0000
  0009b	f3 0f 11 05 00
	00 00 00	 movss	 DWORD PTR ?ground_radar@@3URADAR_PARAMS@@A, xmm0
$LN8@inc_ground:

; 327  : 	}
; 328  : }

  000a3	5f		 pop	 edi
  000a4	5e		 pop	 esi
  000a5	5b		 pop	 ebx
  000a6	8b e5		 mov	 esp, ebp
  000a8	5d		 pop	 ebp
  000a9	c3		 ret	 0
?inc_ground_radar_scan_range@@YGXXZ ENDP		; inc_ground_radar_scan_range
_TEXT	ENDS
; Function compile flags: /Odtp /ZI
; File c:\users\nhv90\projects\eech\aphavoc\source\gunships\avionics\ah64a\ah_radar.c
;	COMDAT ?fast_dec_ground_radar_scan_arc_size@@YGXXZ
_TEXT	SEGMENT
?fast_dec_ground_radar_scan_arc_size@@YGXXZ PROC	; fast_dec_ground_radar_scan_arc_size, COMDAT

; 300  : {

  00000	55		 push	 ebp
  00001	8b ec		 mov	 ebp, esp
  00003	83 ec 40	 sub	 esp, 64			; 00000040H
  00006	53		 push	 ebx
  00007	56		 push	 esi
  00008	57		 push	 edi

; 301  : 	ground_radar.scan_arc_size = AH64A_RADAR_SCAN_ARC_SIZE_15;

  00009	f3 0f 10 05 00
	00 00 00	 movss	 xmm0, DWORD PTR __real@3e860a92
  00011	f3 0f 11 05 08
	00 00 00	 movss	 DWORD PTR ?ground_radar@@3URADAR_PARAMS@@A+8, xmm0

; 302  : 
; 303  : 	limit_radar_sweep (&ground_radar);

  00019	68 00 00 00 00	 push	 OFFSET ?ground_radar@@3URADAR_PARAMS@@A ; ground_radar
  0001e	e8 00 00 00 00	 call	 ?limit_radar_sweep@@YGXPAURADAR_PARAMS@@@Z ; limit_radar_sweep

; 304  : }

  00023	5f		 pop	 edi
  00024	5e		 pop	 esi
  00025	5b		 pop	 ebx
  00026	8b e5		 mov	 esp, ebp
  00028	5d		 pop	 ebp
  00029	c3		 ret	 0
?fast_dec_ground_radar_scan_arc_size@@YGXXZ ENDP	; fast_dec_ground_radar_scan_arc_size
_TEXT	ENDS
; Function compile flags: /Odtp /ZI
; File c:\users\nhv90\projects\eech\aphavoc\source\gunships\avionics\ah64a\ah_radar.c
;	COMDAT ?dec_ground_radar_scan_arc_size@@YGXXZ
_TEXT	SEGMENT
?dec_ground_radar_scan_arc_size@@YGXXZ PROC		; dec_ground_radar_scan_arc_size, COMDAT

; 274  : {

  00000	55		 push	 ebp
  00001	8b ec		 mov	 ebp, esp
  00003	83 ec 40	 sub	 esp, 64			; 00000040H
  00006	53		 push	 ebx
  00007	56		 push	 esi
  00008	57		 push	 edi

; 275  : 	if (ground_radar.scan_arc_size == AH64A_RADAR_SCAN_ARC_SIZE_90)

  00009	f3 0f 10 05 08
	00 00 00	 movss	 xmm0, DWORD PTR ?ground_radar@@3URADAR_PARAMS@@A+8
  00011	0f 2e 05 00 00
	00 00		 ucomiss xmm0, DWORD PTR __real@3fc90fdb
  00018	9f		 lahf
  00019	f6 c4 44	 test	 ah, 68			; 00000044H
  0001c	7a 12		 jp	 SHORT $LN2@dec_ground

; 276  : 	{
; 277  : 		ground_radar.scan_arc_size = AH64A_RADAR_SCAN_ARC_SIZE_60;

  0001e	f3 0f 10 05 00
	00 00 00	 movss	 xmm0, DWORD PTR __real@3f860a92
  00026	f3 0f 11 05 08
	00 00 00	 movss	 DWORD PTR ?ground_radar@@3URADAR_PARAMS@@A+8, xmm0
  0002e	eb 73		 jmp	 SHORT $LN8@dec_ground
$LN2@dec_ground:

; 278  : 	}
; 279  : 	else if (ground_radar.scan_arc_size == AH64A_RADAR_SCAN_ARC_SIZE_60)

  00030	f3 0f 10 05 08
	00 00 00	 movss	 xmm0, DWORD PTR ?ground_radar@@3URADAR_PARAMS@@A+8
  00038	0f 2e 05 00 00
	00 00		 ucomiss xmm0, DWORD PTR __real@3f860a92
  0003f	9f		 lahf
  00040	f6 c4 44	 test	 ah, 68			; 00000044H
  00043	7a 12		 jp	 SHORT $LN4@dec_ground

; 280  : 	{
; 281  : 		ground_radar.scan_arc_size = AH64A_RADAR_SCAN_ARC_SIZE_45;

  00045	f3 0f 10 05 00
	00 00 00	 movss	 xmm0, DWORD PTR __real@3f490fdb
  0004d	f3 0f 11 05 08
	00 00 00	 movss	 DWORD PTR ?ground_radar@@3URADAR_PARAMS@@A+8, xmm0
  00055	eb 4c		 jmp	 SHORT $LN8@dec_ground
$LN4@dec_ground:

; 282  : 	}
; 283  : 	else if (ground_radar.scan_arc_size == AH64A_RADAR_SCAN_ARC_SIZE_45)

  00057	f3 0f 10 05 08
	00 00 00	 movss	 xmm0, DWORD PTR ?ground_radar@@3URADAR_PARAMS@@A+8
  0005f	0f 2e 05 00 00
	00 00		 ucomiss xmm0, DWORD PTR __real@3f490fdb
  00066	9f		 lahf
  00067	f6 c4 44	 test	 ah, 68			; 00000044H
  0006a	7a 12		 jp	 SHORT $LN6@dec_ground

; 284  : 	{
; 285  : 		ground_radar.scan_arc_size = AH64A_RADAR_SCAN_ARC_SIZE_30;

  0006c	f3 0f 10 05 00
	00 00 00	 movss	 xmm0, DWORD PTR __real@3f060a92
  00074	f3 0f 11 05 08
	00 00 00	 movss	 DWORD PTR ?ground_radar@@3URADAR_PARAMS@@A+8, xmm0
  0007c	eb 25		 jmp	 SHORT $LN8@dec_ground
$LN6@dec_ground:

; 286  : 	}
; 287  : 	else if (ground_radar.scan_arc_size == AH64A_RADAR_SCAN_ARC_SIZE_30)

  0007e	f3 0f 10 05 08
	00 00 00	 movss	 xmm0, DWORD PTR ?ground_radar@@3URADAR_PARAMS@@A+8
  00086	0f 2e 05 00 00
	00 00		 ucomiss xmm0, DWORD PTR __real@3f060a92
  0008d	9f		 lahf
  0008e	f6 c4 44	 test	 ah, 68			; 00000044H
  00091	7a 10		 jp	 SHORT $LN8@dec_ground

; 288  : 	{
; 289  : 		ground_radar.scan_arc_size = AH64A_RADAR_SCAN_ARC_SIZE_15;

  00093	f3 0f 10 05 00
	00 00 00	 movss	 xmm0, DWORD PTR __real@3e860a92
  0009b	f3 0f 11 05 08
	00 00 00	 movss	 DWORD PTR ?ground_radar@@3URADAR_PARAMS@@A+8, xmm0
$LN8@dec_ground:

; 290  : 	}
; 291  : 
; 292  : 	limit_radar_sweep (&ground_radar);

  000a3	68 00 00 00 00	 push	 OFFSET ?ground_radar@@3URADAR_PARAMS@@A ; ground_radar
  000a8	e8 00 00 00 00	 call	 ?limit_radar_sweep@@YGXPAURADAR_PARAMS@@@Z ; limit_radar_sweep

; 293  : }

  000ad	5f		 pop	 edi
  000ae	5e		 pop	 esi
  000af	5b		 pop	 ebx
  000b0	8b e5		 mov	 esp, ebp
  000b2	5d		 pop	 ebp
  000b3	c3		 ret	 0
?dec_ground_radar_scan_arc_size@@YGXXZ ENDP		; dec_ground_radar_scan_arc_size
_TEXT	ENDS
; Function compile flags: /Odtp /ZI
; File c:\users\nhv90\projects\eech\aphavoc\source\gunships\avionics\ah64a\ah_radar.c
;	COMDAT ?fast_inc_ground_radar_scan_arc_size@@YGXXZ
_TEXT	SEGMENT
?fast_inc_ground_radar_scan_arc_size@@YGXXZ PROC	; fast_inc_ground_radar_scan_arc_size, COMDAT

; 254  : {

  00000	55		 push	 ebp
  00001	8b ec		 mov	 ebp, esp
  00003	83 ec 40	 sub	 esp, 64			; 00000040H
  00006	53		 push	 ebx
  00007	56		 push	 esi
  00008	57		 push	 edi

; 255  : 	ground_radar.scan_arc_size = AH64A_RADAR_SCAN_ARC_SIZE_90;

  00009	f3 0f 10 05 00
	00 00 00	 movss	 xmm0, DWORD PTR __real@3fc90fdb
  00011	f3 0f 11 05 08
	00 00 00	 movss	 DWORD PTR ?ground_radar@@3URADAR_PARAMS@@A+8, xmm0

; 256  : 
; 257  : 	if ((ground_radar.scan_datum - (ground_radar.scan_arc_size * 0.5)) < -AH64A_RADAR_SCAN_ARC_SIZE_45)

  00019	f3 0f 5a 05 04
	00 00 00	 cvtss2sd xmm0, DWORD PTR ?ground_radar@@3URADAR_PARAMS@@A+4
  00021	f3 0f 5a 0d 08
	00 00 00	 cvtss2sd xmm1, DWORD PTR ?ground_radar@@3URADAR_PARAMS@@A+8
  00029	f2 0f 59 0d 00
	00 00 00	 mulsd	 xmm1, QWORD PTR __real@3fe0000000000000
  00031	f2 0f 5c c1	 subsd	 xmm0, xmm1
  00035	f2 0f 10 0d 00
	00 00 00	 movsd	 xmm1, QWORD PTR __real@bfe921fb60000000
  0003d	66 0f 2f c8	 comisd	 xmm1, xmm0
  00041	76 26		 jbe	 SHORT $LN2@fast_inc_g

; 258  : 	{
; 259  : 		ground_radar.scan_datum = -AH64A_RADAR_SCAN_ARC_SIZE_45 + (ground_radar.scan_arc_size * 0.5);

  00043	f3 0f 5a 05 08
	00 00 00	 cvtss2sd xmm0, DWORD PTR ?ground_radar@@3URADAR_PARAMS@@A+8
  0004b	f2 0f 59 05 00
	00 00 00	 mulsd	 xmm0, QWORD PTR __real@3fe0000000000000
  00053	f2 0f 58 05 00
	00 00 00	 addsd	 xmm0, QWORD PTR __real@bfe921fb60000000
  0005b	f2 0f 5a c0	 cvtsd2ss xmm0, xmm0
  0005f	f3 0f 11 05 04
	00 00 00	 movss	 DWORD PTR ?ground_radar@@3URADAR_PARAMS@@A+4, xmm0
  00067	eb 4e		 jmp	 SHORT $LN4@fast_inc_g
$LN2@fast_inc_g:

; 260  : 	}
; 261  : 	else if ((ground_radar.scan_datum + (ground_radar.scan_arc_size * 0.5)) > AH64A_RADAR_SCAN_ARC_SIZE_45)

  00069	f3 0f 5a 05 04
	00 00 00	 cvtss2sd xmm0, DWORD PTR ?ground_radar@@3URADAR_PARAMS@@A+4
  00071	f3 0f 5a 0d 08
	00 00 00	 cvtss2sd xmm1, DWORD PTR ?ground_radar@@3URADAR_PARAMS@@A+8
  00079	f2 0f 59 0d 00
	00 00 00	 mulsd	 xmm1, QWORD PTR __real@3fe0000000000000
  00081	f2 0f 58 c1	 addsd	 xmm0, xmm1
  00085	66 0f 2f 05 00
	00 00 00	 comisd	 xmm0, QWORD PTR __real@3fe921fb60000000
  0008d	76 28		 jbe	 SHORT $LN4@fast_inc_g

; 262  : 	{
; 263  : 		ground_radar.scan_datum = AH64A_RADAR_SCAN_ARC_SIZE_45 - (ground_radar.scan_arc_size * 0.5);

  0008f	f3 0f 5a 05 08
	00 00 00	 cvtss2sd xmm0, DWORD PTR ?ground_radar@@3URADAR_PARAMS@@A+8
  00097	f2 0f 59 05 00
	00 00 00	 mulsd	 xmm0, QWORD PTR __real@3fe0000000000000
  0009f	f2 0f 10 0d 00
	00 00 00	 movsd	 xmm1, QWORD PTR __real@3fe921fb60000000
  000a7	f2 0f 5c c8	 subsd	 xmm1, xmm0
  000ab	f2 0f 5a c1	 cvtsd2ss xmm0, xmm1
  000af	f3 0f 11 05 04
	00 00 00	 movss	 DWORD PTR ?ground_radar@@3URADAR_PARAMS@@A+4, xmm0
$LN4@fast_inc_g:

; 264  : 	}
; 265  : 
; 266  : 	limit_radar_sweep (&ground_radar);

  000b7	68 00 00 00 00	 push	 OFFSET ?ground_radar@@3URADAR_PARAMS@@A ; ground_radar
  000bc	e8 00 00 00 00	 call	 ?limit_radar_sweep@@YGXPAURADAR_PARAMS@@@Z ; limit_radar_sweep

; 267  : }

  000c1	5f		 pop	 edi
  000c2	5e		 pop	 esi
  000c3	5b		 pop	 ebx
  000c4	8b e5		 mov	 esp, ebp
  000c6	5d		 pop	 ebp
  000c7	c3		 ret	 0
?fast_inc_ground_radar_scan_arc_size@@YGXXZ ENDP	; fast_inc_ground_radar_scan_arc_size
_TEXT	ENDS
; Function compile flags: /Odtp /ZI
; File c:\users\nhv90\projects\eech\aphavoc\source\gunships\avionics\ah64a\ah_radar.c
;	COMDAT ?inc_ground_radar_scan_arc_size@@YGXXZ
_TEXT	SEGMENT
?inc_ground_radar_scan_arc_size@@YGXXZ PROC		; inc_ground_radar_scan_arc_size, COMDAT

; 219  : {

  00000	55		 push	 ebp
  00001	8b ec		 mov	 ebp, esp
  00003	83 ec 40	 sub	 esp, 64			; 00000040H
  00006	53		 push	 ebx
  00007	56		 push	 esi
  00008	57		 push	 edi

; 220  : 	if (ground_radar.scan_arc_size == AH64A_RADAR_SCAN_ARC_SIZE_15)

  00009	f3 0f 10 05 08
	00 00 00	 movss	 xmm0, DWORD PTR ?ground_radar@@3URADAR_PARAMS@@A+8
  00011	0f 2e 05 00 00
	00 00		 ucomiss xmm0, DWORD PTR __real@3e860a92
  00018	9f		 lahf
  00019	f6 c4 44	 test	 ah, 68			; 00000044H
  0001c	7a 12		 jp	 SHORT $LN2@inc_ground

; 221  : 	{
; 222  : 		ground_radar.scan_arc_size = AH64A_RADAR_SCAN_ARC_SIZE_30;

  0001e	f3 0f 10 05 00
	00 00 00	 movss	 xmm0, DWORD PTR __real@3f060a92
  00026	f3 0f 11 05 08
	00 00 00	 movss	 DWORD PTR ?ground_radar@@3URADAR_PARAMS@@A+8, xmm0
  0002e	eb 73		 jmp	 SHORT $LN8@inc_ground
$LN2@inc_ground:

; 223  : 	}
; 224  : 	else if (ground_radar.scan_arc_size == AH64A_RADAR_SCAN_ARC_SIZE_30)

  00030	f3 0f 10 05 08
	00 00 00	 movss	 xmm0, DWORD PTR ?ground_radar@@3URADAR_PARAMS@@A+8
  00038	0f 2e 05 00 00
	00 00		 ucomiss xmm0, DWORD PTR __real@3f060a92
  0003f	9f		 lahf
  00040	f6 c4 44	 test	 ah, 68			; 00000044H
  00043	7a 12		 jp	 SHORT $LN4@inc_ground

; 225  : 	{
; 226  : 		ground_radar.scan_arc_size = AH64A_RADAR_SCAN_ARC_SIZE_45;

  00045	f3 0f 10 05 00
	00 00 00	 movss	 xmm0, DWORD PTR __real@3f490fdb
  0004d	f3 0f 11 05 08
	00 00 00	 movss	 DWORD PTR ?ground_radar@@3URADAR_PARAMS@@A+8, xmm0
  00055	eb 4c		 jmp	 SHORT $LN8@inc_ground
$LN4@inc_ground:

; 227  : 	}
; 228  : 	else if (ground_radar.scan_arc_size == AH64A_RADAR_SCAN_ARC_SIZE_45)

  00057	f3 0f 10 05 08
	00 00 00	 movss	 xmm0, DWORD PTR ?ground_radar@@3URADAR_PARAMS@@A+8
  0005f	0f 2e 05 00 00
	00 00		 ucomiss xmm0, DWORD PTR __real@3f490fdb
  00066	9f		 lahf
  00067	f6 c4 44	 test	 ah, 68			; 00000044H
  0006a	7a 12		 jp	 SHORT $LN6@inc_ground

; 229  : 	{
; 230  : 		ground_radar.scan_arc_size = AH64A_RADAR_SCAN_ARC_SIZE_60;

  0006c	f3 0f 10 05 00
	00 00 00	 movss	 xmm0, DWORD PTR __real@3f860a92
  00074	f3 0f 11 05 08
	00 00 00	 movss	 DWORD PTR ?ground_radar@@3URADAR_PARAMS@@A+8, xmm0
  0007c	eb 25		 jmp	 SHORT $LN8@inc_ground
$LN6@inc_ground:

; 231  : 	}
; 232  : 	else if (ground_radar.scan_arc_size == AH64A_RADAR_SCAN_ARC_SIZE_60)

  0007e	f3 0f 10 05 08
	00 00 00	 movss	 xmm0, DWORD PTR ?ground_radar@@3URADAR_PARAMS@@A+8
  00086	0f 2e 05 00 00
	00 00		 ucomiss xmm0, DWORD PTR __real@3f860a92
  0008d	9f		 lahf
  0008e	f6 c4 44	 test	 ah, 68			; 00000044H
  00091	7a 10		 jp	 SHORT $LN8@inc_ground

; 233  : 	{
; 234  : 		ground_radar.scan_arc_size = AH64A_RADAR_SCAN_ARC_SIZE_90;

  00093	f3 0f 10 05 00
	00 00 00	 movss	 xmm0, DWORD PTR __real@3fc90fdb
  0009b	f3 0f 11 05 08
	00 00 00	 movss	 DWORD PTR ?ground_radar@@3URADAR_PARAMS@@A+8, xmm0
$LN8@inc_ground:

; 235  : 	}
; 236  : 
; 237  : 	if ((ground_radar.scan_datum - (ground_radar.scan_arc_size * 0.5)) < -AH64A_RADAR_SCAN_ARC_SIZE_45)

  000a3	f3 0f 5a 05 04
	00 00 00	 cvtss2sd xmm0, DWORD PTR ?ground_radar@@3URADAR_PARAMS@@A+4
  000ab	f3 0f 5a 0d 08
	00 00 00	 cvtss2sd xmm1, DWORD PTR ?ground_radar@@3URADAR_PARAMS@@A+8
  000b3	f2 0f 59 0d 00
	00 00 00	 mulsd	 xmm1, QWORD PTR __real@3fe0000000000000
  000bb	f2 0f 5c c1	 subsd	 xmm0, xmm1
  000bf	f2 0f 10 0d 00
	00 00 00	 movsd	 xmm1, QWORD PTR __real@bfe921fb60000000
  000c7	66 0f 2f c8	 comisd	 xmm1, xmm0
  000cb	76 26		 jbe	 SHORT $LN9@inc_ground

; 238  : 	{
; 239  : 		ground_radar.scan_datum = -AH64A_RADAR_SCAN_ARC_SIZE_45 + (ground_radar.scan_arc_size * 0.5);

  000cd	f3 0f 5a 05 08
	00 00 00	 cvtss2sd xmm0, DWORD PTR ?ground_radar@@3URADAR_PARAMS@@A+8
  000d5	f2 0f 59 05 00
	00 00 00	 mulsd	 xmm0, QWORD PTR __real@3fe0000000000000
  000dd	f2 0f 58 05 00
	00 00 00	 addsd	 xmm0, QWORD PTR __real@bfe921fb60000000
  000e5	f2 0f 5a c0	 cvtsd2ss xmm0, xmm0
  000e9	f3 0f 11 05 04
	00 00 00	 movss	 DWORD PTR ?ground_radar@@3URADAR_PARAMS@@A+4, xmm0
  000f1	eb 4e		 jmp	 SHORT $LN11@inc_ground
$LN9@inc_ground:

; 240  : 	}
; 241  : 	else if ((ground_radar.scan_datum + (ground_radar.scan_arc_size * 0.5)) > AH64A_RADAR_SCAN_ARC_SIZE_45)

  000f3	f3 0f 5a 05 04
	00 00 00	 cvtss2sd xmm0, DWORD PTR ?ground_radar@@3URADAR_PARAMS@@A+4
  000fb	f3 0f 5a 0d 08
	00 00 00	 cvtss2sd xmm1, DWORD PTR ?ground_radar@@3URADAR_PARAMS@@A+8
  00103	f2 0f 59 0d 00
	00 00 00	 mulsd	 xmm1, QWORD PTR __real@3fe0000000000000
  0010b	f2 0f 58 c1	 addsd	 xmm0, xmm1
  0010f	66 0f 2f 05 00
	00 00 00	 comisd	 xmm0, QWORD PTR __real@3fe921fb60000000
  00117	76 28		 jbe	 SHORT $LN11@inc_ground

; 242  : 	{
; 243  : 		ground_radar.scan_datum = AH64A_RADAR_SCAN_ARC_SIZE_45 - (ground_radar.scan_arc_size * 0.5);

  00119	f3 0f 5a 05 08
	00 00 00	 cvtss2sd xmm0, DWORD PTR ?ground_radar@@3URADAR_PARAMS@@A+8
  00121	f2 0f 59 05 00
	00 00 00	 mulsd	 xmm0, QWORD PTR __real@3fe0000000000000
  00129	f2 0f 10 0d 00
	00 00 00	 movsd	 xmm1, QWORD PTR __real@3fe921fb60000000
  00131	f2 0f 5c c8	 subsd	 xmm1, xmm0
  00135	f2 0f 5a c1	 cvtsd2ss xmm0, xmm1
  00139	f3 0f 11 05 04
	00 00 00	 movss	 DWORD PTR ?ground_radar@@3URADAR_PARAMS@@A+4, xmm0
$LN11@inc_ground:

; 244  : 	}
; 245  : 
; 246  : 	limit_radar_sweep (&ground_radar);

  00141	68 00 00 00 00	 push	 OFFSET ?ground_radar@@3URADAR_PARAMS@@A ; ground_radar
  00146	e8 00 00 00 00	 call	 ?limit_radar_sweep@@YGXPAURADAR_PARAMS@@@Z ; limit_radar_sweep

; 247  : }

  0014b	5f		 pop	 edi
  0014c	5e		 pop	 esi
  0014d	5b		 pop	 ebx
  0014e	8b e5		 mov	 esp, ebp
  00150	5d		 pop	 ebp
  00151	c3		 ret	 0
?inc_ground_radar_scan_arc_size@@YGXXZ ENDP		; inc_ground_radar_scan_arc_size
_TEXT	ENDS
; Function compile flags: /Odtp /ZI
; File c:\users\nhv90\projects\eech\aphavoc\source\gunships\avionics\ah64a\ah_radar.c
;	COMDAT ?fast_rotate_ground_radar_scan_datum_right@@YGXXZ
_TEXT	SEGMENT
_theta$ = -4						; size = 4
?fast_rotate_ground_radar_scan_datum_right@@YGXXZ PROC	; fast_rotate_ground_radar_scan_datum_right, COMDAT

; 199  : {

  00000	55		 push	 ebp
  00001	8b ec		 mov	 ebp, esp
  00003	83 ec 44	 sub	 esp, 68			; 00000044H
  00006	53		 push	 ebx
  00007	56		 push	 esi
  00008	57		 push	 edi

; 200  : 	float
; 201  : 		theta;
; 202  : 
; 203  : 	theta = ground_radar.scan_datum;

  00009	f3 0f 10 05 04
	00 00 00	 movss	 xmm0, DWORD PTR ?ground_radar@@3URADAR_PARAMS@@A+4
  00011	f3 0f 11 45 fc	 movss	 DWORD PTR _theta$[ebp], xmm0

; 204  : 
; 205  : 	ground_radar.scan_datum = AH64A_RADAR_SCAN_ARC_SIZE_45 - (ground_radar.scan_arc_size * 0.5);

  00016	f3 0f 5a 05 08
	00 00 00	 cvtss2sd xmm0, DWORD PTR ?ground_radar@@3URADAR_PARAMS@@A+8
  0001e	f2 0f 59 05 00
	00 00 00	 mulsd	 xmm0, QWORD PTR __real@3fe0000000000000
  00026	f2 0f 10 0d 00
	00 00 00	 movsd	 xmm1, QWORD PTR __real@3fe921fb60000000
  0002e	f2 0f 5c c8	 subsd	 xmm1, xmm0
  00032	f2 0f 5a c1	 cvtsd2ss xmm0, xmm1
  00036	f3 0f 11 05 04
	00 00 00	 movss	 DWORD PTR ?ground_radar@@3URADAR_PARAMS@@A+4, xmm0

; 206  : 
; 207  : 	theta = ground_radar.scan_datum - theta;

  0003e	f3 0f 10 05 04
	00 00 00	 movss	 xmm0, DWORD PTR ?ground_radar@@3URADAR_PARAMS@@A+4
  00046	f3 0f 5c 45 fc	 subss	 xmm0, DWORD PTR _theta$[ebp]
  0004b	f3 0f 11 45 fc	 movss	 DWORD PTR _theta$[ebp], xmm0

; 208  : 
; 209  : 	ground_radar.sweep_offset -= theta;

  00050	f3 0f 10 05 0c
	00 00 00	 movss	 xmm0, DWORD PTR ?ground_radar@@3URADAR_PARAMS@@A+12
  00058	f3 0f 5c 45 fc	 subss	 xmm0, DWORD PTR _theta$[ebp]
  0005d	f3 0f 11 05 0c
	00 00 00	 movss	 DWORD PTR ?ground_radar@@3URADAR_PARAMS@@A+12, xmm0

; 210  : 
; 211  : 	limit_radar_sweep (&ground_radar);

  00065	68 00 00 00 00	 push	 OFFSET ?ground_radar@@3URADAR_PARAMS@@A ; ground_radar
  0006a	e8 00 00 00 00	 call	 ?limit_radar_sweep@@YGXPAURADAR_PARAMS@@@Z ; limit_radar_sweep

; 212  : }

  0006f	5f		 pop	 edi
  00070	5e		 pop	 esi
  00071	5b		 pop	 ebx
  00072	8b e5		 mov	 esp, ebp
  00074	5d		 pop	 ebp
  00075	c3		 ret	 0
?fast_rotate_ground_radar_scan_datum_right@@YGXXZ ENDP	; fast_rotate_ground_radar_scan_datum_right
_TEXT	ENDS
; Function compile flags: /Odtp /ZI
; File c:\users\nhv90\projects\eech\aphavoc\source\gunships\avionics\ah64a\ah_radar.c
;	COMDAT ?rotate_ground_radar_scan_datum_right@@YGXXZ
_TEXT	SEGMENT
?rotate_ground_radar_scan_datum_right@@YGXXZ PROC	; rotate_ground_radar_scan_datum_right, COMDAT

; 179  : {

  00000	55		 push	 ebp
  00001	8b ec		 mov	 ebp, esp
  00003	83 ec 40	 sub	 esp, 64			; 00000040H
  00006	53		 push	 ebx
  00007	56		 push	 esi
  00008	57		 push	 edi

; 180  : 	ground_radar.scan_datum += AH64A_GROUND_RADAR_SCAN_DATUM_ROTATE_STEP;

  00009	f3 0f 5a 05 04
	00 00 00	 cvtss2sd xmm0, DWORD PTR ?ground_radar@@3URADAR_PARAMS@@A+4
  00011	f2 0f 58 05 00
	00 00 00	 addsd	 xmm0, QWORD PTR __real@3fc0c15240000000
  00019	f2 0f 5a c0	 cvtsd2ss xmm0, xmm0
  0001d	f3 0f 11 05 04
	00 00 00	 movss	 DWORD PTR ?ground_radar@@3URADAR_PARAMS@@A+4, xmm0

; 181  : 
; 182  : 	if ((ground_radar.scan_datum + (ground_radar.scan_arc_size * 0.5)) <= AH64A_RADAR_SCAN_ARC_SIZE_45)

  00025	f3 0f 5a 05 04
	00 00 00	 cvtss2sd xmm0, DWORD PTR ?ground_radar@@3URADAR_PARAMS@@A+4
  0002d	f3 0f 5a 0d 08
	00 00 00	 cvtss2sd xmm1, DWORD PTR ?ground_radar@@3URADAR_PARAMS@@A+8
  00035	f2 0f 59 0d 00
	00 00 00	 mulsd	 xmm1, QWORD PTR __real@3fe0000000000000
  0003d	f2 0f 58 c1	 addsd	 xmm0, xmm1
  00041	f2 0f 10 0d 00
	00 00 00	 movsd	 xmm1, QWORD PTR __real@3fe921fb60000000
  00049	66 0f 2f c8	 comisd	 xmm1, xmm0
  0004d	72 1e		 jb	 SHORT $LN2@rotate_gro

; 183  : 	{
; 184  : 		ground_radar.sweep_offset -= AH64A_GROUND_RADAR_SCAN_DATUM_ROTATE_STEP;

  0004f	f3 0f 5a 05 0c
	00 00 00	 cvtss2sd xmm0, DWORD PTR ?ground_radar@@3URADAR_PARAMS@@A+12
  00057	f2 0f 5c 05 00
	00 00 00	 subsd	 xmm0, QWORD PTR __real@3fc0c15240000000
  0005f	f2 0f 5a c0	 cvtsd2ss xmm0, xmm0
  00063	f3 0f 11 05 0c
	00 00 00	 movss	 DWORD PTR ?ground_radar@@3URADAR_PARAMS@@A+12, xmm0

; 185  : 	}
; 186  : 	else

  0006b	eb 28		 jmp	 SHORT $LN3@rotate_gro
$LN2@rotate_gro:

; 187  : 	{
; 188  : 		ground_radar.scan_datum = AH64A_RADAR_SCAN_ARC_SIZE_45 - (ground_radar.scan_arc_size * 0.5);

  0006d	f3 0f 5a 05 08
	00 00 00	 cvtss2sd xmm0, DWORD PTR ?ground_radar@@3URADAR_PARAMS@@A+8
  00075	f2 0f 59 05 00
	00 00 00	 mulsd	 xmm0, QWORD PTR __real@3fe0000000000000
  0007d	f2 0f 10 0d 00
	00 00 00	 movsd	 xmm1, QWORD PTR __real@3fe921fb60000000
  00085	f2 0f 5c c8	 subsd	 xmm1, xmm0
  00089	f2 0f 5a c1	 cvtsd2ss xmm0, xmm1
  0008d	f3 0f 11 05 04
	00 00 00	 movss	 DWORD PTR ?ground_radar@@3URADAR_PARAMS@@A+4, xmm0
$LN3@rotate_gro:

; 189  : 	}
; 190  : 
; 191  : 	limit_radar_sweep (&ground_radar);

  00095	68 00 00 00 00	 push	 OFFSET ?ground_radar@@3URADAR_PARAMS@@A ; ground_radar
  0009a	e8 00 00 00 00	 call	 ?limit_radar_sweep@@YGXPAURADAR_PARAMS@@@Z ; limit_radar_sweep

; 192  : }

  0009f	5f		 pop	 edi
  000a0	5e		 pop	 esi
  000a1	5b		 pop	 ebx
  000a2	8b e5		 mov	 esp, ebp
  000a4	5d		 pop	 ebp
  000a5	c3		 ret	 0
?rotate_ground_radar_scan_datum_right@@YGXXZ ENDP	; rotate_ground_radar_scan_datum_right
_TEXT	ENDS
; Function compile flags: /Odtp /ZI
; File c:\users\nhv90\projects\eech\aphavoc\source\gunships\avionics\ah64a\ah_radar.c
;	COMDAT ?fast_rotate_ground_radar_scan_datum_left@@YGXXZ
_TEXT	SEGMENT
_theta$ = -4						; size = 4
?fast_rotate_ground_radar_scan_datum_left@@YGXXZ PROC	; fast_rotate_ground_radar_scan_datum_left, COMDAT

; 159  : {

  00000	55		 push	 ebp
  00001	8b ec		 mov	 ebp, esp
  00003	83 ec 44	 sub	 esp, 68			; 00000044H
  00006	53		 push	 ebx
  00007	56		 push	 esi
  00008	57		 push	 edi

; 160  : 	float
; 161  : 		theta;
; 162  : 
; 163  : 	theta = ground_radar.scan_datum;

  00009	f3 0f 10 05 04
	00 00 00	 movss	 xmm0, DWORD PTR ?ground_radar@@3URADAR_PARAMS@@A+4
  00011	f3 0f 11 45 fc	 movss	 DWORD PTR _theta$[ebp], xmm0

; 164  : 
; 165  : 	ground_radar.scan_datum = -AH64A_RADAR_SCAN_ARC_SIZE_45 + (ground_radar.scan_arc_size * 0.5);

  00016	f3 0f 5a 05 08
	00 00 00	 cvtss2sd xmm0, DWORD PTR ?ground_radar@@3URADAR_PARAMS@@A+8
  0001e	f2 0f 59 05 00
	00 00 00	 mulsd	 xmm0, QWORD PTR __real@3fe0000000000000
  00026	f2 0f 58 05 00
	00 00 00	 addsd	 xmm0, QWORD PTR __real@bfe921fb60000000
  0002e	f2 0f 5a c0	 cvtsd2ss xmm0, xmm0
  00032	f3 0f 11 05 04
	00 00 00	 movss	 DWORD PTR ?ground_radar@@3URADAR_PARAMS@@A+4, xmm0

; 166  : 
; 167  : 	theta = ground_radar.scan_datum - theta;

  0003a	f3 0f 10 05 04
	00 00 00	 movss	 xmm0, DWORD PTR ?ground_radar@@3URADAR_PARAMS@@A+4
  00042	f3 0f 5c 45 fc	 subss	 xmm0, DWORD PTR _theta$[ebp]
  00047	f3 0f 11 45 fc	 movss	 DWORD PTR _theta$[ebp], xmm0

; 168  : 
; 169  : 	ground_radar.sweep_offset -= theta;

  0004c	f3 0f 10 05 0c
	00 00 00	 movss	 xmm0, DWORD PTR ?ground_radar@@3URADAR_PARAMS@@A+12
  00054	f3 0f 5c 45 fc	 subss	 xmm0, DWORD PTR _theta$[ebp]
  00059	f3 0f 11 05 0c
	00 00 00	 movss	 DWORD PTR ?ground_radar@@3URADAR_PARAMS@@A+12, xmm0

; 170  : 
; 171  : 	limit_radar_sweep (&ground_radar);

  00061	68 00 00 00 00	 push	 OFFSET ?ground_radar@@3URADAR_PARAMS@@A ; ground_radar
  00066	e8 00 00 00 00	 call	 ?limit_radar_sweep@@YGXPAURADAR_PARAMS@@@Z ; limit_radar_sweep

; 172  : }

  0006b	5f		 pop	 edi
  0006c	5e		 pop	 esi
  0006d	5b		 pop	 ebx
  0006e	8b e5		 mov	 esp, ebp
  00070	5d		 pop	 ebp
  00071	c3		 ret	 0
?fast_rotate_ground_radar_scan_datum_left@@YGXXZ ENDP	; fast_rotate_ground_radar_scan_datum_left
_TEXT	ENDS
; Function compile flags: /Odtp /ZI
; File c:\users\nhv90\projects\eech\aphavoc\source\gunships\avionics\ah64a\ah_radar.c
;	COMDAT ?rotate_ground_radar_scan_datum_left@@YGXXZ
_TEXT	SEGMENT
?rotate_ground_radar_scan_datum_left@@YGXXZ PROC	; rotate_ground_radar_scan_datum_left, COMDAT

; 139  : {

  00000	55		 push	 ebp
  00001	8b ec		 mov	 ebp, esp
  00003	83 ec 40	 sub	 esp, 64			; 00000040H
  00006	53		 push	 ebx
  00007	56		 push	 esi
  00008	57		 push	 edi

; 140  : 	ground_radar.scan_datum -= AH64A_GROUND_RADAR_SCAN_DATUM_ROTATE_STEP;

  00009	f3 0f 5a 05 04
	00 00 00	 cvtss2sd xmm0, DWORD PTR ?ground_radar@@3URADAR_PARAMS@@A+4
  00011	f2 0f 5c 05 00
	00 00 00	 subsd	 xmm0, QWORD PTR __real@3fc0c15240000000
  00019	f2 0f 5a c0	 cvtsd2ss xmm0, xmm0
  0001d	f3 0f 11 05 04
	00 00 00	 movss	 DWORD PTR ?ground_radar@@3URADAR_PARAMS@@A+4, xmm0

; 141  : 
; 142  : 	if ((ground_radar.scan_datum - (ground_radar.scan_arc_size * 0.5)) >= -AH64A_RADAR_SCAN_ARC_SIZE_45)

  00025	f3 0f 5a 05 04
	00 00 00	 cvtss2sd xmm0, DWORD PTR ?ground_radar@@3URADAR_PARAMS@@A+4
  0002d	f3 0f 5a 0d 08
	00 00 00	 cvtss2sd xmm1, DWORD PTR ?ground_radar@@3URADAR_PARAMS@@A+8
  00035	f2 0f 59 0d 00
	00 00 00	 mulsd	 xmm1, QWORD PTR __real@3fe0000000000000
  0003d	f2 0f 5c c1	 subsd	 xmm0, xmm1
  00041	66 0f 2f 05 00
	00 00 00	 comisd	 xmm0, QWORD PTR __real@bfe921fb60000000
  00049	72 1e		 jb	 SHORT $LN2@rotate_gro

; 143  : 	{
; 144  : 		ground_radar.sweep_offset += AH64A_GROUND_RADAR_SCAN_DATUM_ROTATE_STEP;

  0004b	f3 0f 5a 05 0c
	00 00 00	 cvtss2sd xmm0, DWORD PTR ?ground_radar@@3URADAR_PARAMS@@A+12
  00053	f2 0f 58 05 00
	00 00 00	 addsd	 xmm0, QWORD PTR __real@3fc0c15240000000
  0005b	f2 0f 5a c0	 cvtsd2ss xmm0, xmm0
  0005f	f3 0f 11 05 0c
	00 00 00	 movss	 DWORD PTR ?ground_radar@@3URADAR_PARAMS@@A+12, xmm0

; 145  : 	}
; 146  : 	else

  00067	eb 24		 jmp	 SHORT $LN3@rotate_gro
$LN2@rotate_gro:

; 147  : 	{
; 148  : 		ground_radar.scan_datum = -AH64A_RADAR_SCAN_ARC_SIZE_45 + (ground_radar.scan_arc_size * 0.5);

  00069	f3 0f 5a 05 08
	00 00 00	 cvtss2sd xmm0, DWORD PTR ?ground_radar@@3URADAR_PARAMS@@A+8
  00071	f2 0f 59 05 00
	00 00 00	 mulsd	 xmm0, QWORD PTR __real@3fe0000000000000
  00079	f2 0f 58 05 00
	00 00 00	 addsd	 xmm0, QWORD PTR __real@bfe921fb60000000
  00081	f2 0f 5a c0	 cvtsd2ss xmm0, xmm0
  00085	f3 0f 11 05 04
	00 00 00	 movss	 DWORD PTR ?ground_radar@@3URADAR_PARAMS@@A+4, xmm0
$LN3@rotate_gro:

; 149  : 	}
; 150  : 
; 151  : 	limit_radar_sweep (&ground_radar);

  0008d	68 00 00 00 00	 push	 OFFSET ?ground_radar@@3URADAR_PARAMS@@A ; ground_radar
  00092	e8 00 00 00 00	 call	 ?limit_radar_sweep@@YGXPAURADAR_PARAMS@@@Z ; limit_radar_sweep

; 152  : }

  00097	5f		 pop	 edi
  00098	5e		 pop	 esi
  00099	5b		 pop	 ebx
  0009a	8b e5		 mov	 esp, ebp
  0009c	5d		 pop	 ebp
  0009d	c3		 ret	 0
?rotate_ground_radar_scan_datum_left@@YGXXZ ENDP	; rotate_ground_radar_scan_datum_left
_TEXT	ENDS
; Function compile flags: /Odtp /ZI
; File c:\users\nhv90\projects\eech\aphavoc\source\gunships\avionics\ah64a\ah_radar.c
;	COMDAT ?centre_ah64a_air_radar@@YGXXZ
_TEXT	SEGMENT
?centre_ah64a_air_radar@@YGXXZ PROC			; centre_ah64a_air_radar, COMDAT

; 1036 : {

  00000	55		 push	 ebp
  00001	8b ec		 mov	 ebp, esp
  00003	83 ec 40	 sub	 esp, 64			; 00000040H
  00006	53		 push	 ebx
  00007	56		 push	 esi
  00008	57		 push	 edi

; 1037 : 	air_radar.sweep_offset += air_radar.scan_datum;

  00009	f3 0f 10 05 0c
	00 00 00	 movss	 xmm0, DWORD PTR ?air_radar@@3URADAR_PARAMS@@A+12
  00011	f3 0f 58 05 04
	00 00 00	 addss	 xmm0, DWORD PTR ?air_radar@@3URADAR_PARAMS@@A+4
  00019	f3 0f 11 05 0c
	00 00 00	 movss	 DWORD PTR ?air_radar@@3URADAR_PARAMS@@A+12, xmm0

; 1038 : 
; 1039 : 	air_radar.scan_datum = rad (0.0);

  00021	0f 57 c0	 xorps	 xmm0, xmm0
  00024	f3 0f 11 05 04
	00 00 00	 movss	 DWORD PTR ?air_radar@@3URADAR_PARAMS@@A+4, xmm0

; 1040 : 
; 1041 : 	limit_radar_sweep (&air_radar);

  0002c	68 00 00 00 00	 push	 OFFSET ?air_radar@@3URADAR_PARAMS@@A ; air_radar
  00031	e8 00 00 00 00	 call	 ?limit_radar_sweep@@YGXPAURADAR_PARAMS@@@Z ; limit_radar_sweep

; 1042 : }

  00036	5f		 pop	 edi
  00037	5e		 pop	 esi
  00038	5b		 pop	 ebx
  00039	8b e5		 mov	 esp, ebp
  0003b	5d		 pop	 ebp
  0003c	c3		 ret	 0
?centre_ah64a_air_radar@@YGXXZ ENDP			; centre_ah64a_air_radar
_TEXT	ENDS
; Function compile flags: /Odtp /ZI
; File c:\users\nhv90\projects\eech\aphavoc\source\gunships\avionics\ah64a\ah_radar.c
;	COMDAT ?update_ah64a_air_radar@@YGXXZ
_TEXT	SEGMENT
?update_ah64a_air_radar@@YGXXZ PROC			; update_ah64a_air_radar, COMDAT

; 897  : {

  00000	55		 push	 ebp
  00001	8b ec		 mov	 ebp, esp
  00003	83 ec 40	 sub	 esp, 64			; 00000040H
  00006	53		 push	 ebx
  00007	56		 push	 esi
  00008	57		 push	 edi
$LN2@update_ah6:

; 898  : 	////////////////////////////////////////
; 899  : 
; 900  : 	while (single_target_acquisition_system_steer_left_key)

  00009	83 3d 00 00 00
	00 00		 cmp	 DWORD PTR ?single_target_acquisition_system_steer_left_key@@3HA, 0 ; single_target_acquisition_system_steer_left_key
  00010	74 14		 je	 SHORT $LN4@update_ah6

; 901  : 	{
; 902  : 		rotate_air_radar_scan_datum_left ();

  00012	e8 00 00 00 00	 call	 ?rotate_air_radar_scan_datum_left@@YGXXZ ; rotate_air_radar_scan_datum_left

; 903  : 
; 904  : 		single_target_acquisition_system_steer_left_key--;

  00017	a1 00 00 00 00	 mov	 eax, DWORD PTR ?single_target_acquisition_system_steer_left_key@@3HA ; single_target_acquisition_system_steer_left_key
  0001c	83 e8 01	 sub	 eax, 1
  0001f	a3 00 00 00 00	 mov	 DWORD PTR ?single_target_acquisition_system_steer_left_key@@3HA, eax ; single_target_acquisition_system_steer_left_key

; 905  : 	}

  00024	eb e3		 jmp	 SHORT $LN2@update_ah6
$LN4@update_ah6:

; 906  : 
; 907  : 	while (single_target_acquisition_system_steer_left_fast_key)

  00026	83 3d 00 00 00
	00 00		 cmp	 DWORD PTR ?single_target_acquisition_system_steer_left_fast_key@@3HA, 0 ; single_target_acquisition_system_steer_left_fast_key
  0002d	74 14		 je	 SHORT $LN6@update_ah6

; 908  : 	{
; 909  : 		fast_rotate_air_radar_scan_datum_left ();

  0002f	e8 00 00 00 00	 call	 ?fast_rotate_air_radar_scan_datum_left@@YGXXZ ; fast_rotate_air_radar_scan_datum_left

; 910  : 
; 911  : 		single_target_acquisition_system_steer_left_fast_key--;

  00034	a1 00 00 00 00	 mov	 eax, DWORD PTR ?single_target_acquisition_system_steer_left_fast_key@@3HA ; single_target_acquisition_system_steer_left_fast_key
  00039	83 e8 01	 sub	 eax, 1
  0003c	a3 00 00 00 00	 mov	 DWORD PTR ?single_target_acquisition_system_steer_left_fast_key@@3HA, eax ; single_target_acquisition_system_steer_left_fast_key

; 912  : 	}

  00041	eb e3		 jmp	 SHORT $LN4@update_ah6
$LN6@update_ah6:

; 913  : 
; 914  : 	////////////////////////////////////////
; 915  : 
; 916  : 	while (single_target_acquisition_system_steer_right_key)

  00043	83 3d 00 00 00
	00 00		 cmp	 DWORD PTR ?single_target_acquisition_system_steer_right_key@@3HA, 0 ; single_target_acquisition_system_steer_right_key
  0004a	74 14		 je	 SHORT $LN8@update_ah6

; 917  : 	{
; 918  : 		rotate_air_radar_scan_datum_right ();

  0004c	e8 00 00 00 00	 call	 ?rotate_air_radar_scan_datum_right@@YGXXZ ; rotate_air_radar_scan_datum_right

; 919  : 
; 920  : 		single_target_acquisition_system_steer_right_key--;

  00051	a1 00 00 00 00	 mov	 eax, DWORD PTR ?single_target_acquisition_system_steer_right_key@@3HA ; single_target_acquisition_system_steer_right_key
  00056	83 e8 01	 sub	 eax, 1
  00059	a3 00 00 00 00	 mov	 DWORD PTR ?single_target_acquisition_system_steer_right_key@@3HA, eax ; single_target_acquisition_system_steer_right_key

; 921  : 	}

  0005e	eb e3		 jmp	 SHORT $LN6@update_ah6
$LN8@update_ah6:

; 922  : 
; 923  : 	while (single_target_acquisition_system_steer_right_fast_key)

  00060	83 3d 00 00 00
	00 00		 cmp	 DWORD PTR ?single_target_acquisition_system_steer_right_fast_key@@3HA, 0 ; single_target_acquisition_system_steer_right_fast_key
  00067	74 14		 je	 SHORT $LN10@update_ah6

; 924  : 	{
; 925  : 		fast_rotate_air_radar_scan_datum_right ();

  00069	e8 00 00 00 00	 call	 ?fast_rotate_air_radar_scan_datum_right@@YGXXZ ; fast_rotate_air_radar_scan_datum_right

; 926  : 
; 927  : 		single_target_acquisition_system_steer_right_fast_key--;

  0006e	a1 00 00 00 00	 mov	 eax, DWORD PTR ?single_target_acquisition_system_steer_right_fast_key@@3HA ; single_target_acquisition_system_steer_right_fast_key
  00073	83 e8 01	 sub	 eax, 1
  00076	a3 00 00 00 00	 mov	 DWORD PTR ?single_target_acquisition_system_steer_right_fast_key@@3HA, eax ; single_target_acquisition_system_steer_right_fast_key

; 928  : 	}

  0007b	eb e3		 jmp	 SHORT $LN8@update_ah6
$LN10@update_ah6:

; 929  : 
; 930  : 	////////////////////////////////////////
; 931  : 
; 932  : 	while (single_target_acquisition_system_steer_up_key)

  0007d	83 3d 00 00 00
	00 00		 cmp	 DWORD PTR ?single_target_acquisition_system_steer_up_key@@3HA, 0 ; single_target_acquisition_system_steer_up_key
  00084	74 14		 je	 SHORT $LN12@update_ah6

; 933  : 	{
; 934  : 		inc_air_radar_scan_arc_size ();

  00086	e8 00 00 00 00	 call	 ?inc_air_radar_scan_arc_size@@YGXXZ ; inc_air_radar_scan_arc_size

; 935  : 
; 936  : 		single_target_acquisition_system_steer_up_key--;

  0008b	a1 00 00 00 00	 mov	 eax, DWORD PTR ?single_target_acquisition_system_steer_up_key@@3HA ; single_target_acquisition_system_steer_up_key
  00090	83 e8 01	 sub	 eax, 1
  00093	a3 00 00 00 00	 mov	 DWORD PTR ?single_target_acquisition_system_steer_up_key@@3HA, eax ; single_target_acquisition_system_steer_up_key

; 937  : 	}

  00098	eb e3		 jmp	 SHORT $LN10@update_ah6
$LN12@update_ah6:

; 938  : 
; 939  : 	while (single_target_acquisition_system_steer_up_fast_key)

  0009a	83 3d 00 00 00
	00 00		 cmp	 DWORD PTR ?single_target_acquisition_system_steer_up_fast_key@@3HA, 0 ; single_target_acquisition_system_steer_up_fast_key
  000a1	74 14		 je	 SHORT $LN14@update_ah6

; 940  : 	{
; 941  : 		fast_inc_air_radar_scan_arc_size ();

  000a3	e8 00 00 00 00	 call	 ?fast_inc_air_radar_scan_arc_size@@YGXXZ ; fast_inc_air_radar_scan_arc_size

; 942  : 
; 943  : 		single_target_acquisition_system_steer_up_fast_key--;

  000a8	a1 00 00 00 00	 mov	 eax, DWORD PTR ?single_target_acquisition_system_steer_up_fast_key@@3HA ; single_target_acquisition_system_steer_up_fast_key
  000ad	83 e8 01	 sub	 eax, 1
  000b0	a3 00 00 00 00	 mov	 DWORD PTR ?single_target_acquisition_system_steer_up_fast_key@@3HA, eax ; single_target_acquisition_system_steer_up_fast_key

; 944  : 	}

  000b5	eb e3		 jmp	 SHORT $LN12@update_ah6
$LN14@update_ah6:

; 945  : 
; 946  : 	////////////////////////////////////////
; 947  : 
; 948  : 	while (single_target_acquisition_system_steer_down_key)

  000b7	83 3d 00 00 00
	00 00		 cmp	 DWORD PTR ?single_target_acquisition_system_steer_down_key@@3HA, 0 ; single_target_acquisition_system_steer_down_key
  000be	74 14		 je	 SHORT $LN16@update_ah6

; 949  : 	{
; 950  : 		dec_air_radar_scan_arc_size ();

  000c0	e8 00 00 00 00	 call	 ?dec_air_radar_scan_arc_size@@YGXXZ ; dec_air_radar_scan_arc_size

; 951  : 
; 952  : 		single_target_acquisition_system_steer_down_key--;

  000c5	a1 00 00 00 00	 mov	 eax, DWORD PTR ?single_target_acquisition_system_steer_down_key@@3HA ; single_target_acquisition_system_steer_down_key
  000ca	83 e8 01	 sub	 eax, 1
  000cd	a3 00 00 00 00	 mov	 DWORD PTR ?single_target_acquisition_system_steer_down_key@@3HA, eax ; single_target_acquisition_system_steer_down_key

; 953  : 	}

  000d2	eb e3		 jmp	 SHORT $LN14@update_ah6
$LN16@update_ah6:

; 954  : 
; 955  : 	while (single_target_acquisition_system_steer_down_fast_key)

  000d4	83 3d 00 00 00
	00 00		 cmp	 DWORD PTR ?single_target_acquisition_system_steer_down_fast_key@@3HA, 0 ; single_target_acquisition_system_steer_down_fast_key
  000db	74 14		 je	 SHORT $LN18@update_ah6

; 956  : 	{
; 957  : 		fast_dec_air_radar_scan_arc_size ();

  000dd	e8 00 00 00 00	 call	 ?fast_dec_air_radar_scan_arc_size@@YGXXZ ; fast_dec_air_radar_scan_arc_size

; 958  : 
; 959  : 		single_target_acquisition_system_steer_down_fast_key--;

  000e2	a1 00 00 00 00	 mov	 eax, DWORD PTR ?single_target_acquisition_system_steer_down_fast_key@@3HA ; single_target_acquisition_system_steer_down_fast_key
  000e7	83 e8 01	 sub	 eax, 1
  000ea	a3 00 00 00 00	 mov	 DWORD PTR ?single_target_acquisition_system_steer_down_fast_key@@3HA, eax ; single_target_acquisition_system_steer_down_fast_key

; 960  : 	}

  000ef	eb e3		 jmp	 SHORT $LN16@update_ah6
$LN18@update_ah6:

; 961  : 
; 962  : 	////////////////////////////////////////
; 963  : 
; 964  : 	while (single_target_acquisition_system_inc_range_key)

  000f1	83 3d 00 00 00
	00 00		 cmp	 DWORD PTR ?single_target_acquisition_system_inc_range_key@@3HA, 0 ; single_target_acquisition_system_inc_range_key
  000f8	74 14		 je	 SHORT $LN20@update_ah6

; 965  : 	{
; 966  : 		inc_air_radar_scan_range ();

  000fa	e8 00 00 00 00	 call	 ?inc_air_radar_scan_range@@YGXXZ ; inc_air_radar_scan_range

; 967  : 
; 968  : 		single_target_acquisition_system_inc_range_key--;

  000ff	a1 00 00 00 00	 mov	 eax, DWORD PTR ?single_target_acquisition_system_inc_range_key@@3HA ; single_target_acquisition_system_inc_range_key
  00104	83 e8 01	 sub	 eax, 1
  00107	a3 00 00 00 00	 mov	 DWORD PTR ?single_target_acquisition_system_inc_range_key@@3HA, eax ; single_target_acquisition_system_inc_range_key

; 969  : 	}

  0010c	eb e3		 jmp	 SHORT $LN18@update_ah6
$LN20@update_ah6:

; 970  : 
; 971  : 	while (single_target_acquisition_system_inc_range_fast_key)

  0010e	83 3d 00 00 00
	00 00		 cmp	 DWORD PTR ?single_target_acquisition_system_inc_range_fast_key@@3HA, 0 ; single_target_acquisition_system_inc_range_fast_key
  00115	74 14		 je	 SHORT $LN22@update_ah6

; 972  : 	{
; 973  : 		fast_inc_air_radar_scan_range ();

  00117	e8 00 00 00 00	 call	 ?fast_inc_air_radar_scan_range@@YGXXZ ; fast_inc_air_radar_scan_range

; 974  : 
; 975  : 		single_target_acquisition_system_inc_range_fast_key--;

  0011c	a1 00 00 00 00	 mov	 eax, DWORD PTR ?single_target_acquisition_system_inc_range_fast_key@@3HA ; single_target_acquisition_system_inc_range_fast_key
  00121	83 e8 01	 sub	 eax, 1
  00124	a3 00 00 00 00	 mov	 DWORD PTR ?single_target_acquisition_system_inc_range_fast_key@@3HA, eax ; single_target_acquisition_system_inc_range_fast_key

; 976  : 	}

  00129	eb e3		 jmp	 SHORT $LN20@update_ah6
$LN22@update_ah6:

; 977  : 
; 978  : 	////////////////////////////////////////
; 979  : 
; 980  : 	while (single_target_acquisition_system_dec_range_key)

  0012b	83 3d 00 00 00
	00 00		 cmp	 DWORD PTR ?single_target_acquisition_system_dec_range_key@@3HA, 0 ; single_target_acquisition_system_dec_range_key
  00132	74 14		 je	 SHORT $LN24@update_ah6

; 981  : 	{
; 982  : 		dec_air_radar_scan_range ();

  00134	e8 00 00 00 00	 call	 ?dec_air_radar_scan_range@@YGXXZ ; dec_air_radar_scan_range

; 983  : 
; 984  : 		single_target_acquisition_system_dec_range_key--;

  00139	a1 00 00 00 00	 mov	 eax, DWORD PTR ?single_target_acquisition_system_dec_range_key@@3HA ; single_target_acquisition_system_dec_range_key
  0013e	83 e8 01	 sub	 eax, 1
  00141	a3 00 00 00 00	 mov	 DWORD PTR ?single_target_acquisition_system_dec_range_key@@3HA, eax ; single_target_acquisition_system_dec_range_key

; 985  : 	}

  00146	eb e3		 jmp	 SHORT $LN22@update_ah6
$LN24@update_ah6:

; 986  : 
; 987  : 	while (single_target_acquisition_system_dec_range_fast_key)

  00148	83 3d 00 00 00
	00 00		 cmp	 DWORD PTR ?single_target_acquisition_system_dec_range_fast_key@@3HA, 0 ; single_target_acquisition_system_dec_range_fast_key
  0014f	74 14		 je	 SHORT $LN26@update_ah6

; 988  : 	{
; 989  : 		fast_dec_air_radar_scan_range ();

  00151	e8 00 00 00 00	 call	 ?fast_dec_air_radar_scan_range@@YGXXZ ; fast_dec_air_radar_scan_range

; 990  : 
; 991  : 		single_target_acquisition_system_dec_range_fast_key--;

  00156	a1 00 00 00 00	 mov	 eax, DWORD PTR ?single_target_acquisition_system_dec_range_fast_key@@3HA ; single_target_acquisition_system_dec_range_fast_key
  0015b	83 e8 01	 sub	 eax, 1
  0015e	a3 00 00 00 00	 mov	 DWORD PTR ?single_target_acquisition_system_dec_range_fast_key@@3HA, eax ; single_target_acquisition_system_dec_range_fast_key

; 992  : 	}

  00163	eb e3		 jmp	 SHORT $LN24@update_ah6
$LN26@update_ah6:

; 993  : 
; 994  : 	////////////////////////////////////////
; 995  : 
; 996  : 	while (single_target_acquisition_system_select_next_target_key)

  00165	83 3d 00 00 00
	00 00		 cmp	 DWORD PTR ?single_target_acquisition_system_select_next_target_key@@3HA, 0 ; single_target_acquisition_system_select_next_target_key
  0016c	74 14		 je	 SHORT $LN28@update_ah6

; 997  : 	{
; 998  : 		select_next_air_radar_target ();

  0016e	e8 00 00 00 00	 call	 ?select_next_air_radar_target@@YGXXZ ; select_next_air_radar_target

; 999  : 
; 1000 : 		single_target_acquisition_system_select_next_target_key--;

  00173	a1 00 00 00 00	 mov	 eax, DWORD PTR ?single_target_acquisition_system_select_next_target_key@@3HA ; single_target_acquisition_system_select_next_target_key
  00178	83 e8 01	 sub	 eax, 1
  0017b	a3 00 00 00 00	 mov	 DWORD PTR ?single_target_acquisition_system_select_next_target_key@@3HA, eax ; single_target_acquisition_system_select_next_target_key

; 1001 : 	}

  00180	eb e3		 jmp	 SHORT $LN26@update_ah6
$LN28@update_ah6:

; 1002 : 
; 1003 : 	////////////////////////////////////////
; 1004 : 
; 1005 : 	while (single_target_acquisition_system_select_previous_target_key)

  00182	83 3d 00 00 00
	00 00		 cmp	 DWORD PTR ?single_target_acquisition_system_select_previous_target_key@@3HA, 0 ; single_target_acquisition_system_select_previous_target_key
  00189	74 14		 je	 SHORT $LN30@update_ah6

; 1006 : 	{
; 1007 : 		select_previous_air_radar_target ();

  0018b	e8 00 00 00 00	 call	 ?select_previous_air_radar_target@@YGXXZ ; select_previous_air_radar_target

; 1008 : 
; 1009 : 		single_target_acquisition_system_select_previous_target_key--;

  00190	a1 00 00 00 00	 mov	 eax, DWORD PTR ?single_target_acquisition_system_select_previous_target_key@@3HA ; single_target_acquisition_system_select_previous_target_key
  00195	83 e8 01	 sub	 eax, 1
  00198	a3 00 00 00 00	 mov	 DWORD PTR ?single_target_acquisition_system_select_previous_target_key@@3HA, eax ; single_target_acquisition_system_select_previous_target_key

; 1010 : 	}

  0019d	eb e3		 jmp	 SHORT $LN28@update_ah6
$LN30@update_ah6:

; 1011 : // Jabberwock 031107 Designated targets
; 1012 : 	
; 1013 : 	while (single_target_acquisition_system_select_next_designated_key)

  0019f	83 3d 00 00 00
	00 00		 cmp	 DWORD PTR ?single_target_acquisition_system_select_next_designated_key@@3HA, 0 ; single_target_acquisition_system_select_next_designated_key
  001a6	74 14		 je	 SHORT $LN32@update_ah6

; 1014 : 	{
; 1015 : 		select_next_designated_air_radar_target ();

  001a8	e8 00 00 00 00	 call	 ?select_next_designated_air_radar_target@@YGXXZ ; select_next_designated_air_radar_target

; 1016 : 
; 1017 : 		single_target_acquisition_system_select_next_designated_key--;

  001ad	a1 00 00 00 00	 mov	 eax, DWORD PTR ?single_target_acquisition_system_select_next_designated_key@@3HA ; single_target_acquisition_system_select_next_designated_key
  001b2	83 e8 01	 sub	 eax, 1
  001b5	a3 00 00 00 00	 mov	 DWORD PTR ?single_target_acquisition_system_select_next_designated_key@@3HA, eax ; single_target_acquisition_system_select_next_designated_key

; 1018 : 	}

  001ba	eb e3		 jmp	 SHORT $LN30@update_ah6
$LN32@update_ah6:

; 1019 : 
; 1020 : 	////////////////////////////////////////
; 1021 : 
; 1022 : 	while (single_target_acquisition_system_select_previous_designated_key)

  001bc	83 3d 00 00 00
	00 00		 cmp	 DWORD PTR ?single_target_acquisition_system_select_previous_designated_key@@3HA, 0 ; single_target_acquisition_system_select_previous_designated_key
  001c3	74 14		 je	 SHORT $LN1@update_ah6

; 1023 : 	{
; 1024 : 		select_next_designated_air_radar_target ();

  001c5	e8 00 00 00 00	 call	 ?select_next_designated_air_radar_target@@YGXXZ ; select_next_designated_air_radar_target

; 1025 : 
; 1026 : 		single_target_acquisition_system_select_previous_designated_key--;

  001ca	a1 00 00 00 00	 mov	 eax, DWORD PTR ?single_target_acquisition_system_select_previous_designated_key@@3HA ; single_target_acquisition_system_select_previous_designated_key
  001cf	83 e8 01	 sub	 eax, 1
  001d2	a3 00 00 00 00	 mov	 DWORD PTR ?single_target_acquisition_system_select_previous_designated_key@@3HA, eax ; single_target_acquisition_system_select_previous_designated_key

; 1027 : 	}	

  001d7	eb e3		 jmp	 SHORT $LN32@update_ah6
$LN1@update_ah6:

; 1028 : // Jabberwock 031107 ends	
; 1029 : }

  001d9	5f		 pop	 edi
  001da	5e		 pop	 esi
  001db	5b		 pop	 ebx
  001dc	8b e5		 mov	 esp, ebp
  001de	5d		 pop	 ebp
  001df	c3		 ret	 0
?update_ah64a_air_radar@@YGXXZ ENDP			; update_ah64a_air_radar
_TEXT	ENDS
; Function compile flags: /Odtp /ZI
; File c:\users\nhv90\projects\eech\aphavoc\source\gunships\avionics\ah64a\ah_radar.c
;	COMDAT ?centre_ah64a_ground_radar@@YGXXZ
_TEXT	SEGMENT
?centre_ah64a_ground_radar@@YGXXZ PROC			; centre_ah64a_ground_radar, COMDAT

; 636  : {

  00000	55		 push	 ebp
  00001	8b ec		 mov	 ebp, esp
  00003	83 ec 40	 sub	 esp, 64			; 00000040H
  00006	53		 push	 ebx
  00007	56		 push	 esi
  00008	57		 push	 edi

; 637  : 	ground_radar.sweep_offset += ground_radar.scan_datum;

  00009	f3 0f 10 05 0c
	00 00 00	 movss	 xmm0, DWORD PTR ?ground_radar@@3URADAR_PARAMS@@A+12
  00011	f3 0f 58 05 04
	00 00 00	 addss	 xmm0, DWORD PTR ?ground_radar@@3URADAR_PARAMS@@A+4
  00019	f3 0f 11 05 0c
	00 00 00	 movss	 DWORD PTR ?ground_radar@@3URADAR_PARAMS@@A+12, xmm0

; 638  : 
; 639  : 	ground_radar.scan_datum = rad (0.0);

  00021	0f 57 c0	 xorps	 xmm0, xmm0
  00024	f3 0f 11 05 04
	00 00 00	 movss	 DWORD PTR ?ground_radar@@3URADAR_PARAMS@@A+4, xmm0

; 640  : 
; 641  : 	limit_radar_sweep (&ground_radar);

  0002c	68 00 00 00 00	 push	 OFFSET ?ground_radar@@3URADAR_PARAMS@@A ; ground_radar
  00031	e8 00 00 00 00	 call	 ?limit_radar_sweep@@YGXPAURADAR_PARAMS@@@Z ; limit_radar_sweep

; 642  : }

  00036	5f		 pop	 edi
  00037	5e		 pop	 esi
  00038	5b		 pop	 ebx
  00039	8b e5		 mov	 esp, ebp
  0003b	5d		 pop	 ebp
  0003c	c3		 ret	 0
?centre_ah64a_ground_radar@@YGXXZ ENDP			; centre_ah64a_ground_radar
_TEXT	ENDS
; Function compile flags: /Odtp /ZI
; File c:\users\nhv90\projects\eech\aphavoc\source\gunships\avionics\ah64a\ah_radar.c
;	COMDAT ?update_ah64a_ground_radar@@YGXXZ
_TEXT	SEGMENT
?update_ah64a_ground_radar@@YGXXZ PROC			; update_ah64a_ground_radar, COMDAT

; 465  : {

  00000	55		 push	 ebp
  00001	8b ec		 mov	 ebp, esp
  00003	83 ec 40	 sub	 esp, 64			; 00000040H
  00006	53		 push	 ebx
  00007	56		 push	 esi
  00008	57		 push	 edi
$LN2@update_ah6:

; 466  : 	////////////////////////////////////////
; 467  : 
; 468  : 	while (single_target_acquisition_system_steer_left_key)

  00009	83 3d 00 00 00
	00 00		 cmp	 DWORD PTR ?single_target_acquisition_system_steer_left_key@@3HA, 0 ; single_target_acquisition_system_steer_left_key
  00010	74 14		 je	 SHORT $LN4@update_ah6

; 469  : 	{
; 470  : 		rotate_ground_radar_scan_datum_left ();

  00012	e8 00 00 00 00	 call	 ?rotate_ground_radar_scan_datum_left@@YGXXZ ; rotate_ground_radar_scan_datum_left

; 471  : 
; 472  : 		single_target_acquisition_system_steer_left_key--;

  00017	a1 00 00 00 00	 mov	 eax, DWORD PTR ?single_target_acquisition_system_steer_left_key@@3HA ; single_target_acquisition_system_steer_left_key
  0001c	83 e8 01	 sub	 eax, 1
  0001f	a3 00 00 00 00	 mov	 DWORD PTR ?single_target_acquisition_system_steer_left_key@@3HA, eax ; single_target_acquisition_system_steer_left_key

; 473  : 	}

  00024	eb e3		 jmp	 SHORT $LN2@update_ah6
$LN4@update_ah6:

; 474  : 
; 475  : 	while (single_target_acquisition_system_steer_left_fast_key)

  00026	83 3d 00 00 00
	00 00		 cmp	 DWORD PTR ?single_target_acquisition_system_steer_left_fast_key@@3HA, 0 ; single_target_acquisition_system_steer_left_fast_key
  0002d	74 14		 je	 SHORT $LN6@update_ah6

; 476  : 	{
; 477  : 		fast_rotate_ground_radar_scan_datum_left ();

  0002f	e8 00 00 00 00	 call	 ?fast_rotate_ground_radar_scan_datum_left@@YGXXZ ; fast_rotate_ground_radar_scan_datum_left

; 478  : 
; 479  : 		single_target_acquisition_system_steer_left_fast_key--;

  00034	a1 00 00 00 00	 mov	 eax, DWORD PTR ?single_target_acquisition_system_steer_left_fast_key@@3HA ; single_target_acquisition_system_steer_left_fast_key
  00039	83 e8 01	 sub	 eax, 1
  0003c	a3 00 00 00 00	 mov	 DWORD PTR ?single_target_acquisition_system_steer_left_fast_key@@3HA, eax ; single_target_acquisition_system_steer_left_fast_key

; 480  : 	}

  00041	eb e3		 jmp	 SHORT $LN4@update_ah6
$LN6@update_ah6:

; 481  : 
; 482  : 	////////////////////////////////////////
; 483  : 
; 484  : 	while (single_target_acquisition_system_steer_right_key)

  00043	83 3d 00 00 00
	00 00		 cmp	 DWORD PTR ?single_target_acquisition_system_steer_right_key@@3HA, 0 ; single_target_acquisition_system_steer_right_key
  0004a	74 14		 je	 SHORT $LN8@update_ah6

; 485  : 	{
; 486  : 		rotate_ground_radar_scan_datum_right ();

  0004c	e8 00 00 00 00	 call	 ?rotate_ground_radar_scan_datum_right@@YGXXZ ; rotate_ground_radar_scan_datum_right

; 487  : 
; 488  : 		single_target_acquisition_system_steer_right_key--;

  00051	a1 00 00 00 00	 mov	 eax, DWORD PTR ?single_target_acquisition_system_steer_right_key@@3HA ; single_target_acquisition_system_steer_right_key
  00056	83 e8 01	 sub	 eax, 1
  00059	a3 00 00 00 00	 mov	 DWORD PTR ?single_target_acquisition_system_steer_right_key@@3HA, eax ; single_target_acquisition_system_steer_right_key

; 489  : 	}

  0005e	eb e3		 jmp	 SHORT $LN6@update_ah6
$LN8@update_ah6:

; 490  : 
; 491  : 	while (single_target_acquisition_system_steer_right_fast_key)

  00060	83 3d 00 00 00
	00 00		 cmp	 DWORD PTR ?single_target_acquisition_system_steer_right_fast_key@@3HA, 0 ; single_target_acquisition_system_steer_right_fast_key
  00067	74 14		 je	 SHORT $LN10@update_ah6

; 492  : 	{
; 493  : 		fast_rotate_ground_radar_scan_datum_right ();

  00069	e8 00 00 00 00	 call	 ?fast_rotate_ground_radar_scan_datum_right@@YGXXZ ; fast_rotate_ground_radar_scan_datum_right

; 494  : 
; 495  : 		single_target_acquisition_system_steer_right_fast_key--;

  0006e	a1 00 00 00 00	 mov	 eax, DWORD PTR ?single_target_acquisition_system_steer_right_fast_key@@3HA ; single_target_acquisition_system_steer_right_fast_key
  00073	83 e8 01	 sub	 eax, 1
  00076	a3 00 00 00 00	 mov	 DWORD PTR ?single_target_acquisition_system_steer_right_fast_key@@3HA, eax ; single_target_acquisition_system_steer_right_fast_key

; 496  : 	}

  0007b	eb e3		 jmp	 SHORT $LN8@update_ah6
$LN10@update_ah6:

; 497  : 
; 498  : 	////////////////////////////////////////
; 499  : 
; 500  : 	while (single_target_acquisition_system_steer_up_key)

  0007d	83 3d 00 00 00
	00 00		 cmp	 DWORD PTR ?single_target_acquisition_system_steer_up_key@@3HA, 0 ; single_target_acquisition_system_steer_up_key
  00084	74 14		 je	 SHORT $LN12@update_ah6

; 501  : 	{
; 502  : 		inc_ground_radar_scan_arc_size ();

  00086	e8 00 00 00 00	 call	 ?inc_ground_radar_scan_arc_size@@YGXXZ ; inc_ground_radar_scan_arc_size

; 503  : 
; 504  : 		single_target_acquisition_system_steer_up_key--;

  0008b	a1 00 00 00 00	 mov	 eax, DWORD PTR ?single_target_acquisition_system_steer_up_key@@3HA ; single_target_acquisition_system_steer_up_key
  00090	83 e8 01	 sub	 eax, 1
  00093	a3 00 00 00 00	 mov	 DWORD PTR ?single_target_acquisition_system_steer_up_key@@3HA, eax ; single_target_acquisition_system_steer_up_key

; 505  : 	}

  00098	eb e3		 jmp	 SHORT $LN10@update_ah6
$LN12@update_ah6:

; 506  : 
; 507  : 	while (single_target_acquisition_system_steer_up_fast_key)

  0009a	83 3d 00 00 00
	00 00		 cmp	 DWORD PTR ?single_target_acquisition_system_steer_up_fast_key@@3HA, 0 ; single_target_acquisition_system_steer_up_fast_key
  000a1	74 14		 je	 SHORT $LN14@update_ah6

; 508  : 	{
; 509  : 		fast_inc_ground_radar_scan_arc_size ();

  000a3	e8 00 00 00 00	 call	 ?fast_inc_ground_radar_scan_arc_size@@YGXXZ ; fast_inc_ground_radar_scan_arc_size

; 510  : 
; 511  : 		single_target_acquisition_system_steer_up_fast_key--;

  000a8	a1 00 00 00 00	 mov	 eax, DWORD PTR ?single_target_acquisition_system_steer_up_fast_key@@3HA ; single_target_acquisition_system_steer_up_fast_key
  000ad	83 e8 01	 sub	 eax, 1
  000b0	a3 00 00 00 00	 mov	 DWORD PTR ?single_target_acquisition_system_steer_up_fast_key@@3HA, eax ; single_target_acquisition_system_steer_up_fast_key

; 512  : 	}

  000b5	eb e3		 jmp	 SHORT $LN12@update_ah6
$LN14@update_ah6:

; 513  : 
; 514  : 	////////////////////////////////////////
; 515  : 
; 516  : 	while (single_target_acquisition_system_steer_down_key)

  000b7	83 3d 00 00 00
	00 00		 cmp	 DWORD PTR ?single_target_acquisition_system_steer_down_key@@3HA, 0 ; single_target_acquisition_system_steer_down_key
  000be	74 14		 je	 SHORT $LN16@update_ah6

; 517  : 	{
; 518  : 		dec_ground_radar_scan_arc_size ();

  000c0	e8 00 00 00 00	 call	 ?dec_ground_radar_scan_arc_size@@YGXXZ ; dec_ground_radar_scan_arc_size

; 519  : 
; 520  : 		single_target_acquisition_system_steer_down_key--;

  000c5	a1 00 00 00 00	 mov	 eax, DWORD PTR ?single_target_acquisition_system_steer_down_key@@3HA ; single_target_acquisition_system_steer_down_key
  000ca	83 e8 01	 sub	 eax, 1
  000cd	a3 00 00 00 00	 mov	 DWORD PTR ?single_target_acquisition_system_steer_down_key@@3HA, eax ; single_target_acquisition_system_steer_down_key

; 521  : 	}

  000d2	eb e3		 jmp	 SHORT $LN14@update_ah6
$LN16@update_ah6:

; 522  : 
; 523  : 	while (single_target_acquisition_system_steer_down_fast_key)

  000d4	83 3d 00 00 00
	00 00		 cmp	 DWORD PTR ?single_target_acquisition_system_steer_down_fast_key@@3HA, 0 ; single_target_acquisition_system_steer_down_fast_key
  000db	74 14		 je	 SHORT $LN18@update_ah6

; 524  : 	{
; 525  : 		fast_dec_ground_radar_scan_arc_size ();

  000dd	e8 00 00 00 00	 call	 ?fast_dec_ground_radar_scan_arc_size@@YGXXZ ; fast_dec_ground_radar_scan_arc_size

; 526  : 
; 527  : 		single_target_acquisition_system_steer_down_fast_key--;

  000e2	a1 00 00 00 00	 mov	 eax, DWORD PTR ?single_target_acquisition_system_steer_down_fast_key@@3HA ; single_target_acquisition_system_steer_down_fast_key
  000e7	83 e8 01	 sub	 eax, 1
  000ea	a3 00 00 00 00	 mov	 DWORD PTR ?single_target_acquisition_system_steer_down_fast_key@@3HA, eax ; single_target_acquisition_system_steer_down_fast_key

; 528  : 	}

  000ef	eb e3		 jmp	 SHORT $LN16@update_ah6
$LN18@update_ah6:

; 529  : 
; 530  : 	////////////////////////////////////////
; 531  : 
; 532  : 	while (single_target_acquisition_system_inc_range_key)

  000f1	83 3d 00 00 00
	00 00		 cmp	 DWORD PTR ?single_target_acquisition_system_inc_range_key@@3HA, 0 ; single_target_acquisition_system_inc_range_key
  000f8	74 14		 je	 SHORT $LN20@update_ah6

; 533  : 	{
; 534  : 		inc_ground_radar_scan_range ();

  000fa	e8 00 00 00 00	 call	 ?inc_ground_radar_scan_range@@YGXXZ ; inc_ground_radar_scan_range

; 535  : 
; 536  : 		single_target_acquisition_system_inc_range_key--;

  000ff	a1 00 00 00 00	 mov	 eax, DWORD PTR ?single_target_acquisition_system_inc_range_key@@3HA ; single_target_acquisition_system_inc_range_key
  00104	83 e8 01	 sub	 eax, 1
  00107	a3 00 00 00 00	 mov	 DWORD PTR ?single_target_acquisition_system_inc_range_key@@3HA, eax ; single_target_acquisition_system_inc_range_key

; 537  : 	}

  0010c	eb e3		 jmp	 SHORT $LN18@update_ah6
$LN20@update_ah6:

; 538  : 
; 539  : 	while (single_target_acquisition_system_inc_range_fast_key)

  0010e	83 3d 00 00 00
	00 00		 cmp	 DWORD PTR ?single_target_acquisition_system_inc_range_fast_key@@3HA, 0 ; single_target_acquisition_system_inc_range_fast_key
  00115	74 14		 je	 SHORT $LN22@update_ah6

; 540  : 	{
; 541  : 		fast_inc_ground_radar_scan_range ();

  00117	e8 00 00 00 00	 call	 ?fast_inc_ground_radar_scan_range@@YGXXZ ; fast_inc_ground_radar_scan_range

; 542  : 
; 543  : 		single_target_acquisition_system_inc_range_fast_key--;

  0011c	a1 00 00 00 00	 mov	 eax, DWORD PTR ?single_target_acquisition_system_inc_range_fast_key@@3HA ; single_target_acquisition_system_inc_range_fast_key
  00121	83 e8 01	 sub	 eax, 1
  00124	a3 00 00 00 00	 mov	 DWORD PTR ?single_target_acquisition_system_inc_range_fast_key@@3HA, eax ; single_target_acquisition_system_inc_range_fast_key

; 544  : 	}

  00129	eb e3		 jmp	 SHORT $LN20@update_ah6
$LN22@update_ah6:

; 545  : 
; 546  : 	////////////////////////////////////////
; 547  : 
; 548  : 	while (single_target_acquisition_system_dec_range_key)

  0012b	83 3d 00 00 00
	00 00		 cmp	 DWORD PTR ?single_target_acquisition_system_dec_range_key@@3HA, 0 ; single_target_acquisition_system_dec_range_key
  00132	74 14		 je	 SHORT $LN24@update_ah6

; 549  : 	{
; 550  : 		dec_ground_radar_scan_range ();

  00134	e8 00 00 00 00	 call	 ?dec_ground_radar_scan_range@@YGXXZ ; dec_ground_radar_scan_range

; 551  : 
; 552  : 		single_target_acquisition_system_dec_range_key--;

  00139	a1 00 00 00 00	 mov	 eax, DWORD PTR ?single_target_acquisition_system_dec_range_key@@3HA ; single_target_acquisition_system_dec_range_key
  0013e	83 e8 01	 sub	 eax, 1
  00141	a3 00 00 00 00	 mov	 DWORD PTR ?single_target_acquisition_system_dec_range_key@@3HA, eax ; single_target_acquisition_system_dec_range_key

; 553  : 	}

  00146	eb e3		 jmp	 SHORT $LN22@update_ah6
$LN24@update_ah6:

; 554  : 
; 555  : 	while (single_target_acquisition_system_dec_range_fast_key)

  00148	83 3d 00 00 00
	00 00		 cmp	 DWORD PTR ?single_target_acquisition_system_dec_range_fast_key@@3HA, 0 ; single_target_acquisition_system_dec_range_fast_key
  0014f	74 14		 je	 SHORT $LN26@update_ah6

; 556  : 	{
; 557  : 		fast_dec_ground_radar_scan_range ();

  00151	e8 00 00 00 00	 call	 ?fast_dec_ground_radar_scan_range@@YGXXZ ; fast_dec_ground_radar_scan_range

; 558  : 
; 559  : 		single_target_acquisition_system_dec_range_fast_key--;

  00156	a1 00 00 00 00	 mov	 eax, DWORD PTR ?single_target_acquisition_system_dec_range_fast_key@@3HA ; single_target_acquisition_system_dec_range_fast_key
  0015b	83 e8 01	 sub	 eax, 1
  0015e	a3 00 00 00 00	 mov	 DWORD PTR ?single_target_acquisition_system_dec_range_fast_key@@3HA, eax ; single_target_acquisition_system_dec_range_fast_key

; 560  : 	}

  00163	eb e3		 jmp	 SHORT $LN24@update_ah6
$LN26@update_ah6:

; 561  : 
; 562  : 	////////////////////////////////////////
; 563  : 
; 564  : 	while (single_target_acquisition_system_inc_target_priority_key)

  00165	83 3d 00 00 00
	00 00		 cmp	 DWORD PTR ?single_target_acquisition_system_inc_target_priority_key@@3HA, 0 ; single_target_acquisition_system_inc_target_priority_key
  0016c	74 14		 je	 SHORT $LN28@update_ah6

; 565  : 	{
; 566  : 		inc_ground_radar_target_priority ();

  0016e	e8 00 00 00 00	 call	 ?inc_ground_radar_target_priority@@YGXXZ ; inc_ground_radar_target_priority

; 567  : 
; 568  : 		single_target_acquisition_system_inc_target_priority_key--;

  00173	a1 00 00 00 00	 mov	 eax, DWORD PTR ?single_target_acquisition_system_inc_target_priority_key@@3HA ; single_target_acquisition_system_inc_target_priority_key
  00178	83 e8 01	 sub	 eax, 1
  0017b	a3 00 00 00 00	 mov	 DWORD PTR ?single_target_acquisition_system_inc_target_priority_key@@3HA, eax ; single_target_acquisition_system_inc_target_priority_key

; 569  : 	}

  00180	eb e3		 jmp	 SHORT $LN26@update_ah6
$LN28@update_ah6:

; 570  : 
; 571  : 	while (single_target_acquisition_system_inc_target_priority_fast_key)

  00182	83 3d 00 00 00
	00 00		 cmp	 DWORD PTR ?single_target_acquisition_system_inc_target_priority_fast_key@@3HA, 0 ; single_target_acquisition_system_inc_target_priority_fast_key
  00189	74 14		 je	 SHORT $LN30@update_ah6

; 572  : 	{
; 573  : 		fast_inc_ground_radar_target_priority ();

  0018b	e8 00 00 00 00	 call	 ?fast_inc_ground_radar_target_priority@@YGXXZ ; fast_inc_ground_radar_target_priority

; 574  : 
; 575  : 		single_target_acquisition_system_inc_target_priority_fast_key--;

  00190	a1 00 00 00 00	 mov	 eax, DWORD PTR ?single_target_acquisition_system_inc_target_priority_fast_key@@3HA ; single_target_acquisition_system_inc_target_priority_fast_key
  00195	83 e8 01	 sub	 eax, 1
  00198	a3 00 00 00 00	 mov	 DWORD PTR ?single_target_acquisition_system_inc_target_priority_fast_key@@3HA, eax ; single_target_acquisition_system_inc_target_priority_fast_key

; 576  : 	}

  0019d	eb e3		 jmp	 SHORT $LN28@update_ah6
$LN30@update_ah6:

; 577  : 
; 578  : 	////////////////////////////////////////
; 579  : 
; 580  : 	while (single_target_acquisition_system_dec_target_priority_key)

  0019f	83 3d 00 00 00
	00 00		 cmp	 DWORD PTR ?single_target_acquisition_system_dec_target_priority_key@@3HA, 0 ; single_target_acquisition_system_dec_target_priority_key
  001a6	74 14		 je	 SHORT $LN32@update_ah6

; 581  : 	{
; 582  : 		dec_ground_radar_target_priority ();

  001a8	e8 00 00 00 00	 call	 ?dec_ground_radar_target_priority@@YGXXZ ; dec_ground_radar_target_priority

; 583  : 
; 584  : 		single_target_acquisition_system_dec_target_priority_key--;

  001ad	a1 00 00 00 00	 mov	 eax, DWORD PTR ?single_target_acquisition_system_dec_target_priority_key@@3HA ; single_target_acquisition_system_dec_target_priority_key
  001b2	83 e8 01	 sub	 eax, 1
  001b5	a3 00 00 00 00	 mov	 DWORD PTR ?single_target_acquisition_system_dec_target_priority_key@@3HA, eax ; single_target_acquisition_system_dec_target_priority_key

; 585  : 	}

  001ba	eb e3		 jmp	 SHORT $LN30@update_ah6
$LN32@update_ah6:

; 586  : 
; 587  : 	while (single_target_acquisition_system_dec_target_priority_fast_key)

  001bc	83 3d 00 00 00
	00 00		 cmp	 DWORD PTR ?single_target_acquisition_system_dec_target_priority_fast_key@@3HA, 0 ; single_target_acquisition_system_dec_target_priority_fast_key
  001c3	74 14		 je	 SHORT $LN34@update_ah6

; 588  : 	{
; 589  : 		fast_dec_ground_radar_target_priority ();

  001c5	e8 00 00 00 00	 call	 ?fast_dec_ground_radar_target_priority@@YGXXZ ; fast_dec_ground_radar_target_priority

; 590  : 
; 591  : 		single_target_acquisition_system_dec_target_priority_fast_key--;

  001ca	a1 00 00 00 00	 mov	 eax, DWORD PTR ?single_target_acquisition_system_dec_target_priority_fast_key@@3HA ; single_target_acquisition_system_dec_target_priority_fast_key
  001cf	83 e8 01	 sub	 eax, 1
  001d2	a3 00 00 00 00	 mov	 DWORD PTR ?single_target_acquisition_system_dec_target_priority_fast_key@@3HA, eax ; single_target_acquisition_system_dec_target_priority_fast_key

; 592  : 	}

  001d7	eb e3		 jmp	 SHORT $LN32@update_ah6
$LN34@update_ah6:

; 593  : 
; 594  : 	////////////////////////////////////////
; 595  : 
; 596  : 	while (single_target_acquisition_system_select_next_target_key)

  001d9	83 3d 00 00 00
	00 00		 cmp	 DWORD PTR ?single_target_acquisition_system_select_next_target_key@@3HA, 0 ; single_target_acquisition_system_select_next_target_key
  001e0	74 14		 je	 SHORT $LN36@update_ah6

; 597  : 	{
; 598  : 		select_next_ground_radar_target ();

  001e2	e8 00 00 00 00	 call	 ?select_next_ground_radar_target@@YGXXZ ; select_next_ground_radar_target

; 599  : 
; 600  : 		single_target_acquisition_system_select_next_target_key--;

  001e7	a1 00 00 00 00	 mov	 eax, DWORD PTR ?single_target_acquisition_system_select_next_target_key@@3HA ; single_target_acquisition_system_select_next_target_key
  001ec	83 e8 01	 sub	 eax, 1
  001ef	a3 00 00 00 00	 mov	 DWORD PTR ?single_target_acquisition_system_select_next_target_key@@3HA, eax ; single_target_acquisition_system_select_next_target_key

; 601  : 	}

  001f4	eb e3		 jmp	 SHORT $LN34@update_ah6
$LN36@update_ah6:

; 602  : 
; 603  : 	////////////////////////////////////////
; 604  : 
; 605  : 	while (single_target_acquisition_system_select_previous_target_key)

  001f6	83 3d 00 00 00
	00 00		 cmp	 DWORD PTR ?single_target_acquisition_system_select_previous_target_key@@3HA, 0 ; single_target_acquisition_system_select_previous_target_key
  001fd	74 14		 je	 SHORT $LN38@update_ah6

; 606  : 	{
; 607  : 		select_previous_ground_radar_target ();

  001ff	e8 00 00 00 00	 call	 ?select_previous_ground_radar_target@@YGXXZ ; select_previous_ground_radar_target

; 608  : 
; 609  : 		single_target_acquisition_system_select_previous_target_key--;

  00204	a1 00 00 00 00	 mov	 eax, DWORD PTR ?single_target_acquisition_system_select_previous_target_key@@3HA ; single_target_acquisition_system_select_previous_target_key
  00209	83 e8 01	 sub	 eax, 1
  0020c	a3 00 00 00 00	 mov	 DWORD PTR ?single_target_acquisition_system_select_previous_target_key@@3HA, eax ; single_target_acquisition_system_select_previous_target_key

; 610  : 	}

  00211	eb e3		 jmp	 SHORT $LN36@update_ah6
$LN38@update_ah6:

; 611  : // Jabberwock 031107 Designated targets
; 612  : 	
; 613  : 	while (single_target_acquisition_system_select_next_designated_key)

  00213	83 3d 00 00 00
	00 00		 cmp	 DWORD PTR ?single_target_acquisition_system_select_next_designated_key@@3HA, 0 ; single_target_acquisition_system_select_next_designated_key
  0021a	74 14		 je	 SHORT $LN40@update_ah6

; 614  : 	{
; 615  : 		select_next_designated_ground_radar_target ();

  0021c	e8 00 00 00 00	 call	 ?select_next_designated_ground_radar_target@@YGXXZ ; select_next_designated_ground_radar_target

; 616  : 
; 617  : 		single_target_acquisition_system_select_next_designated_key--;

  00221	a1 00 00 00 00	 mov	 eax, DWORD PTR ?single_target_acquisition_system_select_next_designated_key@@3HA ; single_target_acquisition_system_select_next_designated_key
  00226	83 e8 01	 sub	 eax, 1
  00229	a3 00 00 00 00	 mov	 DWORD PTR ?single_target_acquisition_system_select_next_designated_key@@3HA, eax ; single_target_acquisition_system_select_next_designated_key

; 618  : 	}

  0022e	eb e3		 jmp	 SHORT $LN38@update_ah6
$LN40@update_ah6:

; 619  : 
; 620  : 	////////////////////////////////////////
; 621  : 
; 622  : 	while (single_target_acquisition_system_select_previous_designated_key)

  00230	83 3d 00 00 00
	00 00		 cmp	 DWORD PTR ?single_target_acquisition_system_select_previous_designated_key@@3HA, 0 ; single_target_acquisition_system_select_previous_designated_key
  00237	74 14		 je	 SHORT $LN1@update_ah6

; 623  : 	{
; 624  : 		select_next_designated_ground_radar_target ();

  00239	e8 00 00 00 00	 call	 ?select_next_designated_ground_radar_target@@YGXXZ ; select_next_designated_ground_radar_target

; 625  : 
; 626  : 		single_target_acquisition_system_select_previous_designated_key--;

  0023e	a1 00 00 00 00	 mov	 eax, DWORD PTR ?single_target_acquisition_system_select_previous_designated_key@@3HA ; single_target_acquisition_system_select_previous_designated_key
  00243	83 e8 01	 sub	 eax, 1
  00246	a3 00 00 00 00	 mov	 DWORD PTR ?single_target_acquisition_system_select_previous_designated_key@@3HA, eax ; single_target_acquisition_system_select_previous_designated_key

; 627  : 	}	

  0024b	eb e3		 jmp	 SHORT $LN40@update_ah6
$LN1@update_ah6:

; 628  : // Jabberwock 031107 ends	
; 629  : }

  0024d	5f		 pop	 edi
  0024e	5e		 pop	 esi
  0024f	5b		 pop	 ebx
  00250	8b e5		 mov	 esp, ebp
  00252	5d		 pop	 ebp
  00253	c3		 ret	 0
?update_ah64a_ground_radar@@YGXXZ ENDP			; update_ah64a_ground_radar
_TEXT	ENDS
; Function compile flags: /Odtp /ZI
; File c:\users\nhv90\projects\eech\aphavoc\source\gunships\avionics\ah64a\ah_radar.c
;	COMDAT ?deinitialise_ah64a_radar@@YGXXZ
_TEXT	SEGMENT
?deinitialise_ah64a_radar@@YGXXZ PROC			; deinitialise_ah64a_radar, COMDAT

; 125  : {

  00000	55		 push	 ebp
  00001	8b ec		 mov	 ebp, esp
  00003	83 ec 40	 sub	 esp, 64			; 00000040H
  00006	53		 push	 ebx
  00007	56		 push	 esi
  00008	57		 push	 edi

; 126  : }

  00009	5f		 pop	 edi
  0000a	5e		 pop	 esi
  0000b	5b		 pop	 ebx
  0000c	8b e5		 mov	 esp, ebp
  0000e	5d		 pop	 ebp
  0000f	c3		 ret	 0
?deinitialise_ah64a_radar@@YGXXZ ENDP			; deinitialise_ah64a_radar
_TEXT	ENDS
; Function compile flags: /Odtp /ZI
; File c:\users\nhv90\projects\eech\aphavoc\source\gunships\avionics\ah64a\ah_radar.c
;	COMDAT ?initialise_ah64a_radar@@YGXXZ
_TEXT	SEGMENT
?initialise_ah64a_radar@@YGXXZ PROC			; initialise_ah64a_radar, COMDAT

; 84   : {

  00000	55		 push	 ebp
  00001	8b ec		 mov	 ebp, esp
  00003	83 ec 40	 sub	 esp, 64			; 00000040H
  00006	53		 push	 ebx
  00007	56		 push	 esi
  00008	57		 push	 edi

; 85   : ////Moje 030818 TAke away until VJ looks into it
; 86   : //VJ 030807 radar range adjustable 	
; 87   : ////Moje 030818   AH64A_RADAR_SCAN_RANGE_500 = radar_range_ah64a[0];	
; 88   : ////Moje 030818	AH64A_RADAR_SCAN_RANGE_1000 = radar_range_ah64a[1];
; 89   : ////Moje 030818	AH64A_RADAR_SCAN_RANGE_2000 = radar_range_ah64a[2];		
; 90   : ////Moje 030818	AH64A_RADAR_SCAN_RANGE_4000 = radar_range_ah64a[3];		
; 91   : ////Moje 030818	AH64A_RADAR_SCAN_RANGE_8000 = radar_range_ah64a[4];			
; 92   : 	
; 93   : 	ground_radar.scan_range		  			= AH64A_RADAR_SCAN_RANGE_8000;

  00009	f3 0f 10 05 00
	00 00 00	 movss	 xmm0, DWORD PTR __real@45fa0000
  00011	f3 0f 11 05 00
	00 00 00	 movss	 DWORD PTR ?ground_radar@@3URADAR_PARAMS@@A, xmm0

; 94   : 	ground_radar.scan_datum	  				= rad (0.0);

  00019	0f 57 c0	 xorps	 xmm0, xmm0
  0001c	f3 0f 11 05 04
	00 00 00	 movss	 DWORD PTR ?ground_radar@@3URADAR_PARAMS@@A+4, xmm0

; 95   : 	ground_radar.scan_arc_size	  			= AH64A_RADAR_SCAN_ARC_SIZE_90;

  00024	f3 0f 10 05 00
	00 00 00	 movss	 xmm0, DWORD PTR __real@3fc90fdb
  0002c	f3 0f 11 05 08
	00 00 00	 movss	 DWORD PTR ?ground_radar@@3URADAR_PARAMS@@A+8, xmm0

; 96   : 	ground_radar.sweep_offset 				= rad (0.0);

  00034	0f 57 c0	 xorps	 xmm0, xmm0
  00037	f3 0f 11 05 0c
	00 00 00	 movss	 DWORD PTR ?ground_radar@@3URADAR_PARAMS@@A+12, xmm0

; 97   : 	ground_radar.sweep_rate		  			= rad (360.0) / 6.0;

  0003f	f3 0f 10 05 00
	00 00 00	 movss	 xmm0, DWORD PTR __real@3f860a92
  00047	f3 0f 11 05 10
	00 00 00	 movss	 DWORD PTR ?ground_radar@@3URADAR_PARAMS@@A+16, xmm0

; 98   : 	ground_radar.sweep_direction			= RADAR_SWEEP_CW;

  0004f	f3 0f 10 05 00
	00 00 00	 movss	 xmm0, DWORD PTR __real@3f800000
  00057	f3 0f 11 05 14
	00 00 00	 movss	 DWORD PTR ?ground_radar@@3URADAR_PARAMS@@A+20, xmm0

; 99   : 	ground_radar.max_target_track_range	= AH64A_RADAR_SCAN_RANGE_8000 + 2000.0;

  0005f	f3 0f 10 05 00
	00 00 00	 movss	 xmm0, DWORD PTR __real@461c4000
  00067	f3 0f 11 05 18
	00 00 00	 movss	 DWORD PTR ?ground_radar@@3URADAR_PARAMS@@A+24, xmm0

; 100  : 	ground_radar.show_allied_targets		= TRUE;

  0006f	c7 05 1c 00 00
	00 01 00 00 00	 mov	 DWORD PTR ?ground_radar@@3URADAR_PARAMS@@A+28, 1

; 101  : 	ground_radar.target_locked	  			= FALSE;

  00079	c7 05 20 00 00
	00 00 00 00 00	 mov	 DWORD PTR ?ground_radar@@3URADAR_PARAMS@@A+32, 0

; 102  : 	ground_radar.auto_target				= TRUE;

  00083	c7 05 24 00 00
	00 01 00 00 00	 mov	 DWORD PTR ?ground_radar@@3URADAR_PARAMS@@A+36, 1

; 103  : 	ground_radar.target_priority_type	= TARGET_PRIORITY_UNKNOWN;

  0008d	c7 05 2c 00 00
	00 00 00 00 00	 mov	 DWORD PTR ?ground_radar@@3URADAR_PARAMS@@A+44, 0

; 104  : 	ground_radar.sweep_mode		 			= RADAR_SWEEP_MODE_CONTINUOUS;

  00097	c7 05 28 00 00
	00 00 00 00 00	 mov	 DWORD PTR ?ground_radar@@3URADAR_PARAMS@@A+40, 0

; 105  : 
; 106  : 	air_radar.scan_range			 			= AH64A_RADAR_SCAN_RANGE_8000;

  000a1	f3 0f 10 05 00
	00 00 00	 movss	 xmm0, DWORD PTR __real@45fa0000
  000a9	f3 0f 11 05 00
	00 00 00	 movss	 DWORD PTR ?air_radar@@3URADAR_PARAMS@@A, xmm0

; 107  : 	air_radar.scan_datum	  		 			= rad (0.0);

  000b1	0f 57 c0	 xorps	 xmm0, xmm0
  000b4	f3 0f 11 05 04
	00 00 00	 movss	 DWORD PTR ?air_radar@@3URADAR_PARAMS@@A+4, xmm0

; 108  : 	air_radar.scan_arc_size	  				= AH64A_RADAR_SCAN_ARC_SIZE_360;

  000bc	f3 0f 10 05 00
	00 00 00	 movss	 xmm0, DWORD PTR __real@40c90fdb
  000c4	f3 0f 11 05 08
	00 00 00	 movss	 DWORD PTR ?air_radar@@3URADAR_PARAMS@@A+8, xmm0

; 109  : 	air_radar.sweep_offset	  				= rad (0.0);

  000cc	0f 57 c0	 xorps	 xmm0, xmm0
  000cf	f3 0f 11 05 0c
	00 00 00	 movss	 DWORD PTR ?air_radar@@3URADAR_PARAMS@@A+12, xmm0

; 110  : 	air_radar.sweep_rate		  				= rad (360.0) / 6.0;

  000d7	f3 0f 10 05 00
	00 00 00	 movss	 xmm0, DWORD PTR __real@3f860a92
  000df	f3 0f 11 05 10
	00 00 00	 movss	 DWORD PTR ?air_radar@@3URADAR_PARAMS@@A+16, xmm0

; 111  : 	air_radar.sweep_direction 				= RADAR_SWEEP_CW;

  000e7	f3 0f 10 05 00
	00 00 00	 movss	 xmm0, DWORD PTR __real@3f800000
  000ef	f3 0f 11 05 14
	00 00 00	 movss	 DWORD PTR ?air_radar@@3URADAR_PARAMS@@A+20, xmm0

; 112  : 	air_radar.max_target_track_range		= AH64A_RADAR_SCAN_RANGE_8000 + 2000.0;

  000f7	f3 0f 10 05 00
	00 00 00	 movss	 xmm0, DWORD PTR __real@461c4000
  000ff	f3 0f 11 05 18
	00 00 00	 movss	 DWORD PTR ?air_radar@@3URADAR_PARAMS@@A+24, xmm0

; 113  : 	air_radar.show_allied_targets			= TRUE;

  00107	c7 05 1c 00 00
	00 01 00 00 00	 mov	 DWORD PTR ?air_radar@@3URADAR_PARAMS@@A+28, 1

; 114  : 	air_radar.target_locked					= FALSE;

  00111	c7 05 20 00 00
	00 00 00 00 00	 mov	 DWORD PTR ?air_radar@@3URADAR_PARAMS@@A+32, 0

; 115  : 	air_radar.auto_target					= TRUE;

  0011b	c7 05 24 00 00
	00 01 00 00 00	 mov	 DWORD PTR ?air_radar@@3URADAR_PARAMS@@A+36, 1

; 116  : 	air_radar.target_priority_type		= TARGET_PRIORITY_UNKNOWN;

  00125	c7 05 2c 00 00
	00 00 00 00 00	 mov	 DWORD PTR ?air_radar@@3URADAR_PARAMS@@A+44, 0

; 117  : 	air_radar.sweep_mode						= RADAR_SWEEP_MODE_CONTINUOUS;

  0012f	c7 05 28 00 00
	00 00 00 00 00	 mov	 DWORD PTR ?air_radar@@3URADAR_PARAMS@@A+40, 0

; 118  : }

  00139	5f		 pop	 edi
  0013a	5e		 pop	 esi
  0013b	5b		 pop	 ebx
  0013c	8b e5		 mov	 esp, ebp
  0013e	5d		 pop	 ebp
  0013f	c3		 ret	 0
?initialise_ah64a_radar@@YGXXZ ENDP			; initialise_ah64a_radar
_TEXT	ENDS
END
