; Listing generated by Microsoft (R) Optimizing Compiler Version 19.16.27045.0 

	TITLE	C:\Users\nhv90\Projects\eech\aphavoc\source\ai_extrn.c
	.686P
	.XMM
	include listing.inc
	.model	flat

INCLUDELIB MSVCRTD
INCLUDELIB OLDNAMES

PUBLIC	?strategy_names@@3PAPBDA			; strategy_names
PUBLIC	?group_mode_names@@3PAPBDA			; group_mode_names
PUBLIC	?movement_names@@3PAPBDA			; movement_names
PUBLIC	?ai_suitability_type_names@@3PAPBDA		; ai_suitability_type_names
PUBLIC	___@@_PchSym_@00@UfhvihUmseJAUkilqvxghUvvxsUwvyftUzrPvcgimOlyq@4B2008FD98C1DD4
PUBLIC	??_C@_0BG@CLHFAECI@STRATEGY_TYPE_INVALID@	; `string'
PUBLIC	??_C@_07EJEPFBMD@Retreat@			; `string'
PUBLIC	??_C@_06NDLMCCFH@Defend@			; `string'
PUBLIC	??_C@_07PANIFAJJ@Advance@			; `string'
PUBLIC	??_C@_0BD@PNGLIPBL@NUM_STRATEGY_TYPES@		; `string'
PUBLIC	??_C@_04IBDNPPCI@Idle@				; `string'
PUBLIC	??_C@_04OPEFEHND@Busy@				; `string'
PUBLIC	??_C@_0BF@PMKFOJOG@NUM_GROUP_MODE_TYPES@	; `string'
PUBLIC	??_C@_0BD@MJOAMMGJ@MOVEMENT_TYPE_NONE@		; `string'
PUBLIC	??_C@_03KNFJGCC@AIR@				; `string'
PUBLIC	??_C@_06GKBINIEJ@GROUND@			; `string'
PUBLIC	??_C@_03JIDALBMA@SEA@				; `string'
PUBLIC	??_C@_03NIFPGLBG@ALL@				; `string'
PUBLIC	??_C@_0BD@FMFCAHIN@NUM_MOVEMENT_TYPES@		; `string'
PUBLIC	??_C@_0BE@MNCMOMIP@AIR_ATTACK_STRENGTH@		; `string'
PUBLIC	??_C@_0BH@PCPNJLKL@GROUND_ATTACK_STRENGTH@	; `string'
PUBLIC	??_C@_0P@IDDCGCGO@MOVEMENT_SPEED@		; `string'
PUBLIC	??_C@_0BB@MPKMCMDC@MOVEMENT_STEALTH@		; `string'
PUBLIC	??_C@_0M@JIFAOJAI@CARGO_SPACE@			; `string'
PUBLIC	??_C@_0M@BLNHMEHG@TROOP_SPACE@			; `string'
PUBLIC	??_C@_0BJ@NKLBABDM@NUM_AI_SUITABILITY_TYPES@	; `string'
;	COMDAT ___@@_PchSym_@00@UfhvihUmseJAUkilqvxghUvvxsUwvyftUzrPvcgimOlyq@4B2008FD98C1DD4
_BSS	SEGMENT
___@@_PchSym_@00@UfhvihUmseJAUkilqvxghUvvxsUwvyftUzrPvcgimOlyq@4B2008FD98C1DD4 DD 01H DUP (?)
_BSS	ENDS
;	COMDAT ??_C@_0BJ@NKLBABDM@NUM_AI_SUITABILITY_TYPES@
CONST	SEGMENT
??_C@_0BJ@NKLBABDM@NUM_AI_SUITABILITY_TYPES@ DB 'NUM_AI_SUITABILITY_TYPES'
	DB	00H						; `string'
CONST	ENDS
;	COMDAT ??_C@_0M@BLNHMEHG@TROOP_SPACE@
CONST	SEGMENT
??_C@_0M@BLNHMEHG@TROOP_SPACE@ DB 'TROOP_SPACE', 00H	; `string'
CONST	ENDS
;	COMDAT ??_C@_0M@JIFAOJAI@CARGO_SPACE@
CONST	SEGMENT
??_C@_0M@JIFAOJAI@CARGO_SPACE@ DB 'CARGO_SPACE', 00H	; `string'
CONST	ENDS
;	COMDAT ??_C@_0BB@MPKMCMDC@MOVEMENT_STEALTH@
CONST	SEGMENT
??_C@_0BB@MPKMCMDC@MOVEMENT_STEALTH@ DB 'MOVEMENT_STEALTH', 00H ; `string'
CONST	ENDS
;	COMDAT ??_C@_0P@IDDCGCGO@MOVEMENT_SPEED@
CONST	SEGMENT
??_C@_0P@IDDCGCGO@MOVEMENT_SPEED@ DB 'MOVEMENT_SPEED', 00H ; `string'
CONST	ENDS
;	COMDAT ??_C@_0BH@PCPNJLKL@GROUND_ATTACK_STRENGTH@
CONST	SEGMENT
??_C@_0BH@PCPNJLKL@GROUND_ATTACK_STRENGTH@ DB 'GROUND_ATTACK_STRENGTH', 00H ; `string'
CONST	ENDS
;	COMDAT ??_C@_0BE@MNCMOMIP@AIR_ATTACK_STRENGTH@
CONST	SEGMENT
??_C@_0BE@MNCMOMIP@AIR_ATTACK_STRENGTH@ DB 'AIR_ATTACK_STRENGTH', 00H ; `string'
CONST	ENDS
;	COMDAT ??_C@_0BD@FMFCAHIN@NUM_MOVEMENT_TYPES@
CONST	SEGMENT
??_C@_0BD@FMFCAHIN@NUM_MOVEMENT_TYPES@ DB 'NUM_MOVEMENT_TYPES', 00H ; `string'
CONST	ENDS
;	COMDAT ??_C@_03NIFPGLBG@ALL@
CONST	SEGMENT
??_C@_03NIFPGLBG@ALL@ DB 'ALL', 00H			; `string'
CONST	ENDS
;	COMDAT ??_C@_03JIDALBMA@SEA@
CONST	SEGMENT
??_C@_03JIDALBMA@SEA@ DB 'SEA', 00H			; `string'
CONST	ENDS
;	COMDAT ??_C@_06GKBINIEJ@GROUND@
CONST	SEGMENT
??_C@_06GKBINIEJ@GROUND@ DB 'GROUND', 00H		; `string'
CONST	ENDS
;	COMDAT ??_C@_03KNFJGCC@AIR@
CONST	SEGMENT
??_C@_03KNFJGCC@AIR@ DB 'AIR', 00H			; `string'
CONST	ENDS
;	COMDAT ??_C@_0BD@MJOAMMGJ@MOVEMENT_TYPE_NONE@
CONST	SEGMENT
??_C@_0BD@MJOAMMGJ@MOVEMENT_TYPE_NONE@ DB 'MOVEMENT_TYPE_NONE', 00H ; `string'
CONST	ENDS
;	COMDAT ??_C@_0BF@PMKFOJOG@NUM_GROUP_MODE_TYPES@
CONST	SEGMENT
??_C@_0BF@PMKFOJOG@NUM_GROUP_MODE_TYPES@ DB 'NUM_GROUP_MODE_TYPES', 00H ; `string'
CONST	ENDS
;	COMDAT ??_C@_04OPEFEHND@Busy@
CONST	SEGMENT
??_C@_04OPEFEHND@Busy@ DB 'Busy', 00H			; `string'
CONST	ENDS
;	COMDAT ??_C@_04IBDNPPCI@Idle@
CONST	SEGMENT
??_C@_04IBDNPPCI@Idle@ DB 'Idle', 00H			; `string'
CONST	ENDS
;	COMDAT ??_C@_0BD@PNGLIPBL@NUM_STRATEGY_TYPES@
CONST	SEGMENT
??_C@_0BD@PNGLIPBL@NUM_STRATEGY_TYPES@ DB 'NUM_STRATEGY_TYPES', 00H ; `string'
CONST	ENDS
;	COMDAT ??_C@_07PANIFAJJ@Advance@
CONST	SEGMENT
??_C@_07PANIFAJJ@Advance@ DB 'Advance', 00H		; `string'
CONST	ENDS
;	COMDAT ??_C@_06NDLMCCFH@Defend@
CONST	SEGMENT
??_C@_06NDLMCCFH@Defend@ DB 'Defend', 00H		; `string'
CONST	ENDS
;	COMDAT ??_C@_07EJEPFBMD@Retreat@
CONST	SEGMENT
??_C@_07EJEPFBMD@Retreat@ DB 'Retreat', 00H		; `string'
CONST	ENDS
;	COMDAT ??_C@_0BG@CLHFAECI@STRATEGY_TYPE_INVALID@
CONST	SEGMENT
??_C@_0BG@CLHFAECI@STRATEGY_TYPE_INVALID@ DB 'STRATEGY_TYPE_INVALID', 00H ; `string'
CONST	ENDS
_DATA	SEGMENT
?strategy_names@@3PAPBDA DD FLAT:??_C@_0BG@CLHFAECI@STRATEGY_TYPE_INVALID@ ; strategy_names
	DD	FLAT:??_C@_07EJEPFBMD@Retreat@
	DD	FLAT:??_C@_06NDLMCCFH@Defend@
	DD	FLAT:??_C@_07PANIFAJJ@Advance@
	DD	FLAT:??_C@_0BD@PNGLIPBL@NUM_STRATEGY_TYPES@
?group_mode_names@@3PAPBDA DD FLAT:??_C@_04IBDNPPCI@Idle@ ; group_mode_names
	DD	FLAT:??_C@_04OPEFEHND@Busy@
	DD	FLAT:??_C@_0BF@PMKFOJOG@NUM_GROUP_MODE_TYPES@
?movement_names@@3PAPBDA DD FLAT:??_C@_0BD@MJOAMMGJ@MOVEMENT_TYPE_NONE@ ; movement_names
	DD	FLAT:??_C@_03KNFJGCC@AIR@
	DD	FLAT:??_C@_06GKBINIEJ@GROUND@
	DD	FLAT:??_C@_03JIDALBMA@SEA@
	DD	FLAT:??_C@_03NIFPGLBG@ALL@
	DD	FLAT:??_C@_0BD@FMFCAHIN@NUM_MOVEMENT_TYPES@
?ai_suitability_type_names@@3PAPBDA DD FLAT:??_C@_0BE@MNCMOMIP@AIR_ATTACK_STRENGTH@ ; ai_suitability_type_names
	DD	FLAT:??_C@_0BH@PCPNJLKL@GROUND_ATTACK_STRENGTH@
	DD	FLAT:??_C@_0P@IDDCGCGO@MOVEMENT_SPEED@
	DD	FLAT:??_C@_0BB@MPKMCMDC@MOVEMENT_STEALTH@
	DD	FLAT:??_C@_0M@JIFAOJAI@CARGO_SPACE@
	DD	FLAT:??_C@_0M@BLNHMEHG@TROOP_SPACE@
	DD	FLAT:??_C@_0BJ@NKLBABDM@NUM_AI_SUITABILITY_TYPES@
_DATA	ENDS
END
