; Listing generated by Microsoft (R) Optimizing Compiler Version 19.16.27045.0 

	TITLE	C:\Users\nhv90\Projects\eech\aphavoc\source\ai\ai_misc\ai_misc.c
	.686P
	.XMM
	include listing.inc
	.model	flat

INCLUDELIB MSVCRTD
INCLUDELIB OLDNAMES

PUBLIC	?get_closest_waypoint@@YGPAUENTITY@@PAU1@PAUVEC3D@@MPAM@Z ; get_closest_waypoint
PUBLIC	?get_closest_halfway_waypoint@@YGPAUENTITY@@PAU1@PAUVEC3D@@MPAM@Z ; get_closest_halfway_waypoint
PUBLIC	?get_closest_free_landing_site@@YGPAUENTITY@@HPAU1@PAUVEC3D@@MPAMH@Z ; get_closest_free_landing_site
PUBLIC	?get_closest_mobile_entity@@YGPAUENTITY@@PAUVEC3D@@@Z ; get_closest_mobile_entity
PUBLIC	?get_closest_road_node@@YGHPAUVEC3D@@M@Z	; get_closest_road_node
PUBLIC	?get_closest_side_road_node@@YGHW4ENTITY_SIDES@@PAUVEC3D@@M@Z ; get_closest_side_road_node
PUBLIC	?validate_landing_route@@YGHPAUENTITY@@@Z	; validate_landing_route
PUBLIC	?__LINE__Var@?0??get_closest_waypoint@@YGPAUENTITY@@PAU2@PAUVEC3D@@MPAM@Z@4JA ; `get_closest_waypoint'::`1'::__LINE__Var
PUBLIC	??_C@_0EB@GJLKGHAC@c?3?2users?2nhv90?2projects?2eech?2ap@ ; `string'
PUBLIC	?__LINE__Var@?0??get_closest_halfway_waypoint@@YGPAUENTITY@@PAU2@PAUVEC3D@@MPAM@Z@4JA ; `get_closest_halfway_waypoint'::`1'::__LINE__Var
PUBLIC	?__LINE__Var@?0??get_closest_free_landing_site@@YGPAUENTITY@@HPAU2@PAUVEC3D@@MPAMH@Z@4JA ; `get_closest_free_landing_site'::`1'::__LINE__Var
PUBLIC	??_C@_0DG@MAGKBKKN@AI_MISC?3?5FAILED?5GET?5CLOSEST?5LAN@ ; `string'
PUBLIC	??_C@_0CD@JOMNFILD@?7searching?5for?5?$CFd?5?$CFs?5landing?5si@ ; `string'
PUBLIC	??_C@_0FA@BEBELJKD@?7found?5?$CFs?5landing?5site?5type?5?$CFs?5@ ; `string'
PUBLIC	??_C@_0BK@PCOMGFDK@AI_MISC?3?5found?5keysite?5?$CFs@ ; `string'
PUBLIC	?__LINE__Var@?0??get_closest_road_node@@YGHPAUVEC3D@@M@Z@4JA ; `get_closest_road_node'::`1'::__LINE__Var
PUBLIC	??_C@_03PCBNCGFH@pos@				; `string'
PUBLIC	??_C@_0BE@BLOGCFGI@road_node_positions@		; `string'
PUBLIC	?__LINE__Var@?0??get_closest_side_road_node@@YGHW4ENTITY_SIDES@@PAUVEC3D@@M@Z@4JA ; `get_closest_side_road_node'::`1'::__LINE__Var
PUBLIC	?__LINE__Var@?0??validate_landing_route@@YGHPAUENTITY@@@Z@4JA ; `validate_landing_route'::`1'::__LINE__Var
PUBLIC	??_C@_0EJ@BOGFIKLP@WARNING?4?5Route?5parser?5failed?5on@ ; `string'
PUBLIC	??_C@_0FI@INEJIBIJ@WARNING?4?5Route?5parser?5failed?5on@ ; `string'
PUBLIC	??_C@_0FE@JDENKHHB@WARNING?4?5Route?5parser?5failed?5on@ ; `string'
PUBLIC	??_C@_0FG@FPCDHEOC@WARNING?4?5Route?5parser?5failed?5on@ ; `string'
PUBLIC	??_C@_0DM@MIMFIPOF@WARNING?4?5Route?5parser?4?5No?5Waypo@ ; `string'
PUBLIC	??_C@_0FO@CPLOBHFC@WARNING?4?5Route?5parser?5failed?5on@ ; `string'
PUBLIC	??_C@_0FG@HOLPAGE@WARNING?4?5Route?5parser?5failed?5on@ ; `string'
PUBLIC	??_C@_0FH@KGBMMDPB@WARNING?4?5Route?5parser?5failed?5on@ ; `string'
PUBLIC	??_C@_0FI@OMPACAJC@WARNING?4?5Route?5parser?5failed?5on@ ; `string'
PUBLIC	??_C@_0DM@LOGPNHKO@WARNING?4?5Route?5parser?4?5No?5Waypo@ ; `string'
PUBLIC	??_C@_0EJ@EAEECICD@WARNING?4?5Route?5parser?5failed?5on@ ; `string'
PUBLIC	??_C@_0FC@KOMBKPH@WARNING?4?5Route?5parser?5failed?5on@ ; `string'
PUBLIC	??_C@_0FE@FMPPIINB@WARNING?4?5Route?5parser?5failed?5on@ ; `string'
PUBLIC	??_C@_0DJ@MMMKIOFG@WARNING?4?5Route?5parser?4?5No?5Waypo@ ; `string'
PUBLIC	?__LINE__Var@?0??get_closest_mobile_entity@@YGPAUENTITY@@PAUVEC3D@@@Z@4JA ; `get_closest_mobile_entity'::`1'::__LINE__Var
PUBLIC	__real@3ff0000000000000
PUBLIC	__real@40000000
PUBLIC	__real@4cbebc20
EXTRN	?process_assert@@YGXPBD0H@Z:PROC		; process_assert
EXTRN	?debug_fatal@@YAXPBDZZ:PROC			; debug_fatal
EXTRN	?debug_log@@YAXPBDZZ:PROC			; debug_log
EXTRN	?get_3d_vector_magnitude@@YGMPBUVEC3D@@@Z:PROC	; get_3d_vector_magnitude
EXTRN	?get_2d_range@@YGMPBUVEC3D@@0@Z:PROC		; get_2d_range
EXTRN	?get_approx_2d_range@@YGMPBUVEC3D@@0@Z:PROC	; get_approx_2d_range
EXTRN	__ftol2_sse:PROC
EXTRN	?entity_sub_type_landing_names@@3PAPBDA:BYTE	; entity_sub_type_landing_names
EXTRN	?null_entity_pointer_message@@3PBDB:DWORD	; null_entity_pointer_message
EXTRN	?overload_invalid_list_type_message@@3PBDB:DWORD ; overload_invalid_list_type_message
EXTRN	?fn_get_local_entity_first_child@@3PAY0CN@P6GPAUENTITY@@PAU1@W4LIST_TYPES@@@ZA:BYTE ; fn_get_local_entity_first_child
EXTRN	?fn_get_local_entity_parent@@3PAY0CN@P6GPAUENTITY@@PAU1@W4LIST_TYPES@@@ZA:BYTE ; fn_get_local_entity_parent
EXTRN	?fn_get_local_entity_child_succ@@3PAY0CN@P6GPAUENTITY@@PAU1@W4LIST_TYPES@@@ZA:BYTE ; fn_get_local_entity_child_succ
EXTRN	?overload_invalid_int_type_message@@3PBDB:DWORD	; overload_invalid_int_type_message
EXTRN	?fn_get_local_entity_int_value@@3PAY0BBH@P6GHPAUENTITY@@W4INT_TYPES@@@ZA:BYTE ; fn_get_local_entity_int_value
EXTRN	?overload_invalid_string_type_message@@3PBDB:DWORD ; overload_invalid_string_type_message
EXTRN	?fn_get_local_entity_string@@3PAY0N@P6GPBDPAUENTITY@@W4STRING_TYPES@@@ZA:BYTE ; fn_get_local_entity_string
EXTRN	?overload_invalid_vec3d_type_message@@3PBDB:DWORD ; overload_invalid_vec3d_type_message
EXTRN	?fn_get_local_entity_vec3d@@3PAY0BI@P6GXPAUENTITY@@W4VEC3D_TYPES@@PAUVEC3D@@@ZA:BYTE ; fn_get_local_entity_vec3d
EXTRN	?fn_get_local_entity_vec3d_ptr@@3PAY0BI@P6GPAUVEC3D@@PAUENTITY@@W4VEC3D_TYPES@@@ZA:BYTE ; fn_get_local_entity_vec3d_ptr
EXTRN	?first_used_entity@@3PAUENTITY@@A:DWORD		; first_used_entity
EXTRN	?road_nodes@@3PAUNODE_DATA@@A:DWORD		; road_nodes
EXTRN	?road_node_positions@@3PAUVEC3D@@A:DWORD	; road_node_positions
EXTRN	?total_number_of_road_nodes@@3HA:DWORD		; total_number_of_road_nodes
EXTRN	__fltused:DWORD
;	COMDAT __real@4cbebc20
CONST	SEGMENT
__real@4cbebc20 DD 04cbebc20r			; 1e+08
CONST	ENDS
;	COMDAT __real@40000000
CONST	SEGMENT
__real@40000000 DD 040000000r			; 2
CONST	ENDS
;	COMDAT __real@3ff0000000000000
CONST	SEGMENT
__real@3ff0000000000000 DQ 03ff0000000000000r	; 1
CONST	ENDS
;	COMDAT ?__LINE__Var@?0??get_closest_mobile_entity@@YGPAUENTITY@@PAUVEC3D@@@Z@4JA
_DATA	SEGMENT
?__LINE__Var@?0??get_closest_mobile_entity@@YGPAUENTITY@@PAUVEC3D@@@Z@4JA DD 0400H ; `get_closest_mobile_entity'::`1'::__LINE__Var
_DATA	ENDS
;	COMDAT ??_C@_0DJ@MMMKIOFG@WARNING?4?5Route?5parser?4?5No?5Waypo@
CONST	SEGMENT
??_C@_0DJ@MMMKIOFG@WARNING?4?5Route?5parser?4?5No?5Waypo@ DB 'WARNING. Ro'
	DB	'ute parser. No Waypoint present in Loop route', 00H ; `string'
CONST	ENDS
;	COMDAT ??_C@_0FE@FMPPIINB@WARNING?4?5Route?5parser?5failed?5on@
CONST	SEGMENT
??_C@_0FE@FMPPIINB@WARNING?4?5Route?5parser?5failed?5on@ DB 'WARNING. Rou'
	DB	'te parser failed on landing route. Waypoint present after Loo'
	DB	'p waypoint', 00H				; `string'
CONST	ENDS
;	COMDAT ??_C@_0FC@KOMBKPH@WARNING?4?5Route?5parser?5failed?5on@
CONST	SEGMENT
??_C@_0FC@KOMBKPH@WARNING?4?5Route?5parser?5failed?5on@ DB 'WARNING. Rout'
	DB	'e parser failed on holding route. Loop waypoint not in correc'
	DB	't place', 00H				; `string'
CONST	ENDS
;	COMDAT ??_C@_0EJ@EAEECICD@WARNING?4?5Route?5parser?5failed?5on@
CONST	SEGMENT
??_C@_0EJ@EAEECICD@WARNING?4?5Route?5parser?5failed?5on@ DB 'WARNING. Rou'
	DB	'te parser failed on takeoff route. Non nav waypoint in route', 00H ; `string'
CONST	ENDS
;	COMDAT ??_C@_0DM@LOGPNHKO@WARNING?4?5Route?5parser?4?5No?5Waypo@
CONST	SEGMENT
??_C@_0DM@LOGPNHKO@WARNING?4?5Route?5parser?4?5No?5Waypo@ DB 'WARNING. Ro'
	DB	'ute parser. No Waypoint present in Takeoff route', 00H ; `string'
CONST	ENDS
;	COMDAT ??_C@_0FI@OMPACAJC@WARNING?4?5Route?5parser?5failed?5on@
CONST	SEGMENT
??_C@_0FI@OMPACAJC@WARNING?4?5Route?5parser?5failed?5on@ DB 'WARNING. Rou'
	DB	'te parser failed on landing route. Waypoint present after Tak'
	DB	'e off waypoint', 00H			; `string'
CONST	ENDS
;	COMDAT ??_C@_0FH@KGBMMDPB@WARNING?4?5Route?5parser?5failed?5on@
CONST	SEGMENT
??_C@_0FH@KGBMMDPB@WARNING?4?5Route?5parser?5failed?5on@ DB 'WARNING. Rou'
	DB	'te parser failed on takeoff route. Taken off waypoint not in '
	DB	'correct place', 00H				; `string'
CONST	ENDS
;	COMDAT ??_C@_0FG@HOLPAGE@WARNING?4?5Route?5parser?5failed?5on@
CONST	SEGMENT
??_C@_0FG@HOLPAGE@WARNING?4?5Route?5parser?5failed?5on@ DB 'WARNING. Rout'
	DB	'e parser failed on takeoff route. Incorrect number of Lift of'
	DB	'f waypoints', 00H				; `string'
CONST	ENDS
;	COMDAT ??_C@_0FO@CPLOBHFC@WARNING?4?5Route?5parser?5failed?5on@
CONST	SEGMENT
??_C@_0FO@CPLOBHFC@WARNING?4?5Route?5parser?5failed?5on@ DB 'WARNING. Rou'
	DB	'te parser failed on takeoff route. Non nav / lift off / start'
	DB	'up waypoint in route', 00H			; `string'
CONST	ENDS
;	COMDAT ??_C@_0DM@MIMFIPOF@WARNING?4?5Route?5parser?4?5No?5Waypo@
CONST	SEGMENT
??_C@_0DM@MIMFIPOF@WARNING?4?5Route?5parser?4?5No?5Waypo@ DB 'WARNING. Ro'
	DB	'ute parser. No Waypoint present in Landing route', 00H ; `string'
CONST	ENDS
;	COMDAT ??_C@_0FG@FPCDHEOC@WARNING?4?5Route?5parser?5failed?5on@
CONST	SEGMENT
??_C@_0FG@FPCDHEOC@WARNING?4?5Route?5parser?5failed?5on@ DB 'WARNING. Rou'
	DB	'te parser failed on landing route. Waypoint present after Lan'
	DB	'ded waypoint', 00H				; `string'
CONST	ENDS
;	COMDAT ??_C@_0FE@JDENKHHB@WARNING?4?5Route?5parser?5failed?5on@
CONST	SEGMENT
??_C@_0FE@JDENKHHB@WARNING?4?5Route?5parser?5failed?5on@ DB 'WARNING. Rou'
	DB	'te parser failed on landing route. Landed waypoint not in cor'
	DB	'rect place', 00H				; `string'
CONST	ENDS
;	COMDAT ??_C@_0FI@INEJIBIJ@WARNING?4?5Route?5parser?5failed?5on@
CONST	SEGMENT
??_C@_0FI@INEJIBIJ@WARNING?4?5Route?5parser?5failed?5on@ DB 'WARNING. Rou'
	DB	'te parser failed on takeoff route. Incorrect number of Touch '
	DB	'down waypoints', 00H			; `string'
CONST	ENDS
;	COMDAT ??_C@_0EJ@BOGFIKLP@WARNING?4?5Route?5parser?5failed?5on@
CONST	SEGMENT
??_C@_0EJ@BOGFIKLP@WARNING?4?5Route?5parser?5failed?5on@ DB 'WARNING. Rou'
	DB	'te parser failed on landing route. Non nav waypoint in route', 00H ; `string'
CONST	ENDS
;	COMDAT ?__LINE__Var@?0??validate_landing_route@@YGHPAUENTITY@@@Z@4JA
_DATA	SEGMENT
?__LINE__Var@?0??validate_landing_route@@YGHPAUENTITY@@@Z@4JA DD 0251H ; `validate_landing_route'::`1'::__LINE__Var
_DATA	ENDS
;	COMDAT ?__LINE__Var@?0??get_closest_side_road_node@@YGHW4ENTITY_SIDES@@PAUVEC3D@@M@Z@4JA
_DATA	SEGMENT
?__LINE__Var@?0??get_closest_side_road_node@@YGHW4ENTITY_SIDES@@PAUVEC3D@@M@Z@4JA DD 0217H ; `get_closest_side_road_node'::`1'::__LINE__Var
_DATA	ENDS
;	COMDAT ??_C@_0BE@BLOGCFGI@road_node_positions@
CONST	SEGMENT
??_C@_0BE@BLOGCFGI@road_node_positions@ DB 'road_node_positions', 00H ; `string'
CONST	ENDS
;	COMDAT ??_C@_03PCBNCGFH@pos@
CONST	SEGMENT
??_C@_03PCBNCGFH@pos@ DB 'pos', 00H			; `string'
CONST	ENDS
;	COMDAT ?__LINE__Var@?0??get_closest_road_node@@YGHPAUVEC3D@@M@Z@4JA
_DATA	SEGMENT
?__LINE__Var@?0??get_closest_road_node@@YGHPAUVEC3D@@M@Z@4JA DD 01e1H ; `get_closest_road_node'::`1'::__LINE__Var
_DATA	ENDS
;	COMDAT ??_C@_0BK@PCOMGFDK@AI_MISC?3?5found?5keysite?5?$CFs@
CONST	SEGMENT
??_C@_0BK@PCOMGFDK@AI_MISC?3?5found?5keysite?5?$CFs@ DB 'AI_MISC: found k'
	DB	'eysite %s', 00H				; `string'
CONST	ENDS
;	COMDAT ??_C@_0FA@BEBELJKD@?7found?5?$CFs?5landing?5site?5type?5?$CFs?5@
CONST	SEGMENT
??_C@_0FA@BEBELJKD@?7found?5?$CFs?5landing?5site?5type?5?$CFs?5@ DB 09H, 'f'
	DB	'ound %s landing site type %s use %d, range %f, total %d, free'
	DB	' %d, reserved %d', 00H			; `string'
CONST	ENDS
;	COMDAT ??_C@_0CD@JOMNFILD@?7searching?5for?5?$CFd?5?$CFs?5landing?5si@
CONST	SEGMENT
??_C@_0CD@JOMNFILD@?7searching?5for?5?$CFd?5?$CFs?5landing?5si@ DB 09H, 's'
	DB	'earching for %d %s landing sites', 00H	; `string'
CONST	ENDS
;	COMDAT ??_C@_0DG@MAGKBKKN@AI_MISC?3?5FAILED?5GET?5CLOSEST?5LAN@
CONST	SEGMENT
??_C@_0DG@MAGKBKKN@AI_MISC?3?5FAILED?5GET?5CLOSEST?5LAN@ DB 'AI_MISC: FAI'
	DB	'LED GET CLOSEST LANDING_SITE !!!!!!!!!!!!', 00H ; `string'
CONST	ENDS
;	COMDAT ?__LINE__Var@?0??get_closest_free_landing_site@@YGPAUENTITY@@HPAU2@PAUVEC3D@@MPAMH@Z@4JA
_DATA	SEGMENT
?__LINE__Var@?0??get_closest_free_landing_site@@YGPAUENTITY@@HPAU2@PAUVEC3D@@MPAMH@Z@4JA DD 0efH ; `get_closest_free_landing_site'::`1'::__LINE__Var
_DATA	ENDS
;	COMDAT ?__LINE__Var@?0??get_closest_halfway_waypoint@@YGPAUENTITY@@PAU2@PAUVEC3D@@MPAM@Z@4JA
_DATA	SEGMENT
?__LINE__Var@?0??get_closest_halfway_waypoint@@YGPAUENTITY@@PAU2@PAUVEC3D@@MPAM@Z@4JA DD 0a5H ; `get_closest_halfway_waypoint'::`1'::__LINE__Var
_DATA	ENDS
;	COMDAT ??_C@_0EB@GJLKGHAC@c?3?2users?2nhv90?2projects?2eech?2ap@
CONST	SEGMENT
??_C@_0EB@GJLKGHAC@c?3?2users?2nhv90?2projects?2eech?2ap@ DB 'c:\users\nh'
	DB	'v90\projects\eech\aphavoc\source\ai\ai_misc\ai_misc.c', 00H ; `string'
CONST	ENDS
;	COMDAT ?__LINE__Var@?0??get_closest_waypoint@@YGPAUENTITY@@PAU2@PAUVEC3D@@MPAM@Z@4JA
_DATA	SEGMENT
?__LINE__Var@?0??get_closest_waypoint@@YGPAUENTITY@@PAU2@PAUVEC3D@@MPAM@Z@4JA DD 054H ; `get_closest_waypoint'::`1'::__LINE__Var
_DATA	ENDS
; Function compile flags: /Odtp /ZI
; File c:\users\nhv90\projects\eech\aphavoc\source\ai\ai_misc\ai_misc.c
;	COMDAT ?validate_landing_route@@YGHPAUENTITY@@@Z
_TEXT	SEGMENT
tv432 = -104						; size = 4
tv173 = -104						; size = 4
tv154 = -104						; size = 4
tv910 = -100						; size = 4
tv890 = -100						; size = 4
tv870 = -100						; size = 4
tv850 = -100						; size = 4
tv829 = -100						; size = 4
tv808 = -100						; size = 4
tv784 = -100						; size = 4
tv764 = -100						; size = 4
tv744 = -100						; size = 4
tv724 = -100						; size = 4
tv702 = -100						; size = 4
tv682 = -100						; size = 4
tv661 = -100						; size = 4
tv641 = -100						; size = 4
tv620 = -100						; size = 4
tv597 = -100						; size = 4
tv577 = -100						; size = 4
tv555 = -100						; size = 4
tv535 = -100						; size = 4
tv509 = -100						; size = 4
tv488 = -100						; size = 4
tv468 = -100						; size = 4
tv447 = -100						; size = 4
tv426 = -100						; size = 4
tv404 = -100						; size = 4
tv384 = -100						; size = 4
tv364 = -100						; size = 4
tv342 = -100						; size = 4
tv321 = -100						; size = 4
tv300 = -100						; size = 4
tv277 = -100						; size = 4
tv255 = -100						; size = 4
tv235 = -100						; size = 4
tv209 = -100						; size = 4
tv188 = -100						; size = 4
tv167 = -100						; size = 4
tv148 = -100						; size = 4
tv130 = -100						; size = 4
tv78 = -100						; size = 4
tv903 = -96						; size = 4
tv882 = -96						; size = 4
tv862 = -96						; size = 4
tv842 = -96						; size = 4
tv821 = -96						; size = 4
tv800 = -96						; size = 4
tv777 = -96						; size = 4
tv756 = -96						; size = 4
tv736 = -96						; size = 4
tv716 = -96						; size = 4
tv694 = -96						; size = 4
tv674 = -96						; size = 4
tv653 = -96						; size = 4
tv633 = -96						; size = 4
tv612 = -96						; size = 4
tv590 = -96						; size = 4
tv569 = -96						; size = 4
tv547 = -96						; size = 4
tv527 = -96						; size = 4
tv501 = -96						; size = 4
tv480 = -96						; size = 4
tv460 = -96						; size = 4
tv439 = -96						; size = 4
tv419 = -96						; size = 4
tv397 = -96						; size = 4
tv376 = -96						; size = 4
tv356 = -96						; size = 4
tv334 = -96						; size = 4
tv313 = -96						; size = 4
tv292 = -96						; size = 4
tv270 = -96						; size = 4
tv247 = -96						; size = 4
tv227 = -96						; size = 4
tv201 = -96						; size = 4
tv180 = -96						; size = 4
tv160 = -96						; size = 4
tv141 = -96						; size = 4
tv90 = -96						; size = 4
tv70 = -96						; size = 4
_wp_formation$ = -28					; size = 4
_route_formation$ = -24					; size = 4
_wp$ = -20						; size = 4
_keysite_en$ = -16					; size = 4
_landing_en$ = -12					; size = 4
_type$ = -8						; size = 4
_count$ = -4						; size = 4
_route_task$ = 8					; size = 4
?validate_landing_route@@YGHPAUENTITY@@@Z PROC		; validate_landing_route, COMDAT

; 593  : {

  00000	55		 push	 ebp
  00001	8b ec		 mov	 ebp, esp
  00003	83 ec 68	 sub	 esp, 104		; 00000068H
  00006	53		 push	 ebx
  00007	56		 push	 esi
  00008	57		 push	 edi

; 594  : 
; 595  : 	int
; 596  : 		count;
; 597  : 
; 598  : 	entity_sub_types
; 599  : 		type;
; 600  : 
; 601  : 	entity
; 602  : 		*landing_en,
; 603  : 		*keysite_en,
; 604  : 		*wp;
; 605  : 
; 606  : 	formation_types
; 607  : 		route_formation,
; 608  : 		wp_formation;
; 609  : 
; 610  : 	landing_en = get_local_entity_parent (route_task, LIST_TYPE_ASSIGNED_TASK);

  00009	83 7d 08 00	 cmp	 DWORD PTR _route_task$[ebp], 0
  0000d	74 0a		 je	 SHORT $LN54@validate_l
  0000f	8b 45 08	 mov	 eax, DWORD PTR _route_task$[ebp]
  00012	8b 08		 mov	 ecx, DWORD PTR [eax]
  00014	89 4d a0	 mov	 DWORD PTR tv70[ebp], ecx
  00017	eb 21		 jmp	 SHORT $LN55@validate_l
$LN54@validate_l:
  00019	8b 15 00 00 00
	00		 mov	 edx, DWORD PTR ?__LINE__Var@?0??validate_landing_route@@YGHPAUENTITY@@@Z@4JA
  0001f	83 c2 11	 add	 edx, 17			; 00000011H
  00022	52		 push	 edx
  00023	68 00 00 00 00	 push	 OFFSET ??_C@_0EB@GJLKGHAC@c?3?2users?2nhv90?2projects?2eech?2ap@
  00028	a1 00 00 00 00	 mov	 eax, DWORD PTR ?null_entity_pointer_message@@3PBDB ; null_entity_pointer_message
  0002d	50		 push	 eax
  0002e	e8 00 00 00 00	 call	 ?process_assert@@YGXPBD0H@Z ; process_assert
  00033	c7 45 a0 00 00
	00 00		 mov	 DWORD PTR tv70[ebp], 0
$LN55@validate_l:
  0003a	b9 01 00 00 00	 mov	 ecx, 1
  0003f	85 c9		 test	 ecx, ecx
  00041	74 09		 je	 SHORT $LN56@validate_l
  00043	c7 45 9c 03 00
	00 00		 mov	 DWORD PTR tv78[ebp], 3
  0004a	eb 21		 jmp	 SHORT $LN57@validate_l
$LN56@validate_l:
  0004c	8b 15 00 00 00
	00		 mov	 edx, DWORD PTR ?__LINE__Var@?0??validate_landing_route@@YGHPAUENTITY@@@Z@4JA
  00052	83 c2 11	 add	 edx, 17			; 00000011H
  00055	52		 push	 edx
  00056	68 00 00 00 00	 push	 OFFSET ??_C@_0EB@GJLKGHAC@c?3?2users?2nhv90?2projects?2eech?2ap@
  0005b	a1 00 00 00 00	 mov	 eax, DWORD PTR ?overload_invalid_list_type_message@@3PBDB ; overload_invalid_list_type_message
  00060	50		 push	 eax
  00061	e8 00 00 00 00	 call	 ?process_assert@@YGXPBD0H@Z ; process_assert
  00066	c7 45 9c 00 00
	00 00		 mov	 DWORD PTR tv78[ebp], 0
$LN57@validate_l:
  0006d	6a 03		 push	 3
  0006f	8b 4d 08	 mov	 ecx, DWORD PTR _route_task$[ebp]
  00072	51		 push	 ecx
  00073	69 55 a0 b4 00
	00 00		 imul	 edx, DWORD PTR tv70[ebp], 180
  0007a	8b 45 9c	 mov	 eax, DWORD PTR tv78[ebp]
  0007d	8b 8c 82 00 00
	00 00		 mov	 ecx, DWORD PTR ?fn_get_local_entity_parent@@3PAY0CN@P6GPAUENTITY@@PAU1@W4LIST_TYPES@@@ZA[edx+eax*4]
  00084	ff d1		 call	 ecx
  00086	89 45 f4	 mov	 DWORD PTR _landing_en$[ebp], eax

; 611  : 
; 612  : 	keysite_en = get_local_entity_parent (landing_en, LIST_TYPE_LANDING_SITE);

  00089	83 7d f4 00	 cmp	 DWORD PTR _landing_en$[ebp], 0
  0008d	74 0a		 je	 SHORT $LN58@validate_l
  0008f	8b 45 f4	 mov	 eax, DWORD PTR _landing_en$[ebp]
  00092	8b 08		 mov	 ecx, DWORD PTR [eax]
  00094	89 4d a0	 mov	 DWORD PTR tv90[ebp], ecx
  00097	eb 21		 jmp	 SHORT $LN59@validate_l
$LN58@validate_l:
  00099	8b 15 00 00 00
	00		 mov	 edx, DWORD PTR ?__LINE__Var@?0??validate_landing_route@@YGHPAUENTITY@@@Z@4JA
  0009f	83 c2 13	 add	 edx, 19			; 00000013H
  000a2	52		 push	 edx
  000a3	68 00 00 00 00	 push	 OFFSET ??_C@_0EB@GJLKGHAC@c?3?2users?2nhv90?2projects?2eech?2ap@
  000a8	a1 00 00 00 00	 mov	 eax, DWORD PTR ?null_entity_pointer_message@@3PBDB ; null_entity_pointer_message
  000ad	50		 push	 eax
  000ae	e8 00 00 00 00	 call	 ?process_assert@@YGXPBD0H@Z ; process_assert
  000b3	c7 45 a0 00 00
	00 00		 mov	 DWORD PTR tv90[ebp], 0
$LN59@validate_l:
  000ba	b9 01 00 00 00	 mov	 ecx, 1
  000bf	85 c9		 test	 ecx, ecx
  000c1	74 09		 je	 SHORT $LN60@validate_l
  000c3	c7 45 9c 17 00
	00 00		 mov	 DWORD PTR tv130[ebp], 23 ; 00000017H
  000ca	eb 21		 jmp	 SHORT $LN61@validate_l
$LN60@validate_l:
  000cc	8b 15 00 00 00
	00		 mov	 edx, DWORD PTR ?__LINE__Var@?0??validate_landing_route@@YGHPAUENTITY@@@Z@4JA
  000d2	83 c2 13	 add	 edx, 19			; 00000013H
  000d5	52		 push	 edx
  000d6	68 00 00 00 00	 push	 OFFSET ??_C@_0EB@GJLKGHAC@c?3?2users?2nhv90?2projects?2eech?2ap@
  000db	a1 00 00 00 00	 mov	 eax, DWORD PTR ?overload_invalid_list_type_message@@3PBDB ; overload_invalid_list_type_message
  000e0	50		 push	 eax
  000e1	e8 00 00 00 00	 call	 ?process_assert@@YGXPBD0H@Z ; process_assert
  000e6	c7 45 9c 00 00
	00 00		 mov	 DWORD PTR tv130[ebp], 0
$LN61@validate_l:
  000ed	6a 17		 push	 23			; 00000017H
  000ef	8b 4d f4	 mov	 ecx, DWORD PTR _landing_en$[ebp]
  000f2	51		 push	 ecx
  000f3	69 55 a0 b4 00
	00 00		 imul	 edx, DWORD PTR tv90[ebp], 180
  000fa	8b 45 9c	 mov	 eax, DWORD PTR tv130[ebp]
  000fd	8b 8c 82 00 00
	00 00		 mov	 ecx, DWORD PTR ?fn_get_local_entity_parent@@3PAY0CN@P6GPAUENTITY@@PAU1@W4LIST_TYPES@@@ZA[edx+eax*4]
  00104	ff d1		 call	 ecx
  00106	89 45 f0	 mov	 DWORD PTR _keysite_en$[ebp], eax

; 613  : 
; 614  : 	#if DEBUG_MODULE
; 615  : 
; 616  : 	debug_log ("Route Parsing: Keysite %s, landing %s, side %s, route %s",
; 617  : 					get_local_entity_string (keysite_en, STRING_TYPE_KEYSITE_NAME),
; 618  : 					entity_sub_type_landing_names [get_local_entity_int_value (landing_en, INT_TYPE_ENTITY_SUB_TYPE)],
; 619  : 					entity_side_names [get_local_entity_int_value (keysite_en, INT_TYPE_SIDE)],
; 620  : 					entity_sub_type_task_names [get_local_entity_int_value (route_task, INT_TYPE_ENTITY_SUB_TYPE)]);
; 621  : 
; 622  : 	#endif
; 623  : 
; 624  : 	switch (get_local_entity_int_value (route_task, INT_TYPE_ENTITY_SUB_TYPE))

  00109	83 7d 08 00	 cmp	 DWORD PTR _route_task$[ebp], 0
  0010d	74 0a		 je	 SHORT $LN62@validate_l
  0010f	8b 45 08	 mov	 eax, DWORD PTR _route_task$[ebp]
  00112	8b 08		 mov	 ecx, DWORD PTR [eax]
  00114	89 4d a0	 mov	 DWORD PTR tv141[ebp], ecx
  00117	eb 1d		 jmp	 SHORT $LN63@validate_l
$LN62@validate_l:
  00119	68 70 02 00 00	 push	 624			; 00000270H
  0011e	68 00 00 00 00	 push	 OFFSET ??_C@_0EB@GJLKGHAC@c?3?2users?2nhv90?2projects?2eech?2ap@
  00123	8b 15 00 00 00
	00		 mov	 edx, DWORD PTR ?null_entity_pointer_message@@3PBDB ; null_entity_pointer_message
  00129	52		 push	 edx
  0012a	e8 00 00 00 00	 call	 ?process_assert@@YGXPBD0H@Z ; process_assert
  0012f	c7 45 a0 00 00
	00 00		 mov	 DWORD PTR tv141[ebp], 0
$LN63@validate_l:
  00136	b8 01 00 00 00	 mov	 eax, 1
  0013b	85 c0		 test	 eax, eax
  0013d	74 09		 je	 SHORT $LN64@validate_l
  0013f	c7 45 9c 34 00
	00 00		 mov	 DWORD PTR tv148[ebp], 52 ; 00000034H
  00146	eb 1d		 jmp	 SHORT $LN65@validate_l
$LN64@validate_l:
  00148	68 70 02 00 00	 push	 624			; 00000270H
  0014d	68 00 00 00 00	 push	 OFFSET ??_C@_0EB@GJLKGHAC@c?3?2users?2nhv90?2projects?2eech?2ap@
  00152	8b 0d 00 00 00
	00		 mov	 ecx, DWORD PTR ?overload_invalid_int_type_message@@3PBDB ; overload_invalid_int_type_message
  00158	51		 push	 ecx
  00159	e8 00 00 00 00	 call	 ?process_assert@@YGXPBD0H@Z ; process_assert
  0015e	c7 45 9c 00 00
	00 00		 mov	 DWORD PTR tv148[ebp], 0
$LN65@validate_l:
  00165	6a 34		 push	 52			; 00000034H
  00167	8b 55 08	 mov	 edx, DWORD PTR _route_task$[ebp]
  0016a	52		 push	 edx
  0016b	69 45 a0 5c 04
	00 00		 imul	 eax, DWORD PTR tv141[ebp], 1116
  00172	8b 4d 9c	 mov	 ecx, DWORD PTR tv148[ebp]
  00175	8b 94 88 00 00
	00 00		 mov	 edx, DWORD PTR ?fn_get_local_entity_int_value@@3PAY0BBH@P6GHPAUENTITY@@W4INT_TYPES@@@ZA[eax+ecx*4]
  0017c	ff d2		 call	 edx
  0017e	89 45 98	 mov	 DWORD PTR tv154[ebp], eax
  00181	8b 45 98	 mov	 eax, DWORD PTR tv154[ebp]
  00184	83 e8 0d	 sub	 eax, 13			; 0000000dH
  00187	89 45 98	 mov	 DWORD PTR tv154[ebp], eax
  0018a	83 7d 98 0a	 cmp	 DWORD PTR tv154[ebp], 10 ; 0000000aH
  0018e	0f 87 bf 14 00
	00		 ja	 $LN2@validate_l
  00194	8b 4d 98	 mov	 ecx, DWORD PTR tv154[ebp]
  00197	0f b6 91 00 00
	00 00		 movzx	 edx, BYTE PTR $LN210@validate_l[ecx]
  0019e	ff 24 95 00 00
	00 00		 jmp	 DWORD PTR $LN211@validate_l[edx*4]
$LN18@validate_l:

; 625  : 	{
; 626  : 
; 627  : 		case ENTITY_SUB_TYPE_TASK_LANDING:
; 628  : 		{
; 629  : 
; 630  : 			switch (get_local_entity_int_value (landing_en, INT_TYPE_ENTITY_SUB_TYPE))

  001a5	83 7d f4 00	 cmp	 DWORD PTR _landing_en$[ebp], 0
  001a9	74 0a		 je	 SHORT $LN66@validate_l
  001ab	8b 45 f4	 mov	 eax, DWORD PTR _landing_en$[ebp]
  001ae	8b 08		 mov	 ecx, DWORD PTR [eax]
  001b0	89 4d a0	 mov	 DWORD PTR tv160[ebp], ecx
  001b3	eb 1d		 jmp	 SHORT $LN67@validate_l
$LN66@validate_l:
  001b5	68 76 02 00 00	 push	 630			; 00000276H
  001ba	68 00 00 00 00	 push	 OFFSET ??_C@_0EB@GJLKGHAC@c?3?2users?2nhv90?2projects?2eech?2ap@
  001bf	8b 15 00 00 00
	00		 mov	 edx, DWORD PTR ?null_entity_pointer_message@@3PBDB ; null_entity_pointer_message
  001c5	52		 push	 edx
  001c6	e8 00 00 00 00	 call	 ?process_assert@@YGXPBD0H@Z ; process_assert
  001cb	c7 45 a0 00 00
	00 00		 mov	 DWORD PTR tv160[ebp], 0
$LN67@validate_l:
  001d2	b8 01 00 00 00	 mov	 eax, 1
  001d7	85 c0		 test	 eax, eax
  001d9	74 09		 je	 SHORT $LN68@validate_l
  001db	c7 45 9c 34 00
	00 00		 mov	 DWORD PTR tv167[ebp], 52 ; 00000034H
  001e2	eb 1d		 jmp	 SHORT $LN69@validate_l
$LN68@validate_l:
  001e4	68 76 02 00 00	 push	 630			; 00000276H
  001e9	68 00 00 00 00	 push	 OFFSET ??_C@_0EB@GJLKGHAC@c?3?2users?2nhv90?2projects?2eech?2ap@
  001ee	8b 0d 00 00 00
	00		 mov	 ecx, DWORD PTR ?overload_invalid_int_type_message@@3PBDB ; overload_invalid_int_type_message
  001f4	51		 push	 ecx
  001f5	e8 00 00 00 00	 call	 ?process_assert@@YGXPBD0H@Z ; process_assert
  001fa	c7 45 9c 00 00
	00 00		 mov	 DWORD PTR tv167[ebp], 0
$LN69@validate_l:
  00201	6a 34		 push	 52			; 00000034H
  00203	8b 55 f4	 mov	 edx, DWORD PTR _landing_en$[ebp]
  00206	52		 push	 edx
  00207	69 45 a0 5c 04
	00 00		 imul	 eax, DWORD PTR tv160[ebp], 1116
  0020e	8b 4d 9c	 mov	 ecx, DWORD PTR tv167[ebp]
  00211	8b 94 88 00 00
	00 00		 mov	 edx, DWORD PTR ?fn_get_local_entity_int_value@@3PAY0BBH@P6GHPAUENTITY@@W4INT_TYPES@@@ZA[eax+ecx*4]
  00218	ff d2		 call	 edx
  0021a	89 45 98	 mov	 DWORD PTR tv173[ebp], eax
  0021d	83 7d 98 05	 cmp	 DWORD PTR tv173[ebp], 5
  00221	0f 87 73 06 00
	00		 ja	 $LN4@validate_l
  00227	8b 45 98	 mov	 eax, DWORD PTR tv173[ebp]
  0022a	ff 24 85 00 00
	00 00		 jmp	 DWORD PTR $LN212@validate_l[eax*4]
$LN19@validate_l:

; 631  : 			{
; 632  : 
; 633  : 				case ENTITY_SUB_TYPE_LANDING_FIXED_WING:
; 634  : 				{
; 635  : 
; 636  : 					//
; 637  : 					// Navigation waypoint
; 638  : 					//
; 639  : 		
; 640  : 					wp = get_local_entity_first_child (route_task, LIST_TYPE_WAYPOINT);

  00231	83 7d 08 00	 cmp	 DWORD PTR _route_task$[ebp], 0
  00235	74 0a		 je	 SHORT $LN70@validate_l
  00237	8b 45 08	 mov	 eax, DWORD PTR _route_task$[ebp]
  0023a	8b 08		 mov	 ecx, DWORD PTR [eax]
  0023c	89 4d a0	 mov	 DWORD PTR tv180[ebp], ecx
  0023f	eb 21		 jmp	 SHORT $LN71@validate_l
$LN70@validate_l:
  00241	8b 15 00 00 00
	00		 mov	 edx, DWORD PTR ?__LINE__Var@?0??validate_landing_route@@YGHPAUENTITY@@@Z@4JA
  00247	83 c2 2f	 add	 edx, 47			; 0000002fH
  0024a	52		 push	 edx
  0024b	68 00 00 00 00	 push	 OFFSET ??_C@_0EB@GJLKGHAC@c?3?2users?2nhv90?2projects?2eech?2ap@
  00250	a1 00 00 00 00	 mov	 eax, DWORD PTR ?null_entity_pointer_message@@3PBDB ; null_entity_pointer_message
  00255	50		 push	 eax
  00256	e8 00 00 00 00	 call	 ?process_assert@@YGXPBD0H@Z ; process_assert
  0025b	c7 45 a0 00 00
	00 00		 mov	 DWORD PTR tv180[ebp], 0
$LN71@validate_l:
  00262	b9 01 00 00 00	 mov	 ecx, 1
  00267	85 c9		 test	 ecx, ecx
  00269	74 09		 je	 SHORT $LN72@validate_l
  0026b	c7 45 9c 2c 00
	00 00		 mov	 DWORD PTR tv188[ebp], 44 ; 0000002cH
  00272	eb 21		 jmp	 SHORT $LN73@validate_l
$LN72@validate_l:
  00274	8b 15 00 00 00
	00		 mov	 edx, DWORD PTR ?__LINE__Var@?0??validate_landing_route@@YGHPAUENTITY@@@Z@4JA
  0027a	83 c2 2f	 add	 edx, 47			; 0000002fH
  0027d	52		 push	 edx
  0027e	68 00 00 00 00	 push	 OFFSET ??_C@_0EB@GJLKGHAC@c?3?2users?2nhv90?2projects?2eech?2ap@
  00283	a1 00 00 00 00	 mov	 eax, DWORD PTR ?overload_invalid_list_type_message@@3PBDB ; overload_invalid_list_type_message
  00288	50		 push	 eax
  00289	e8 00 00 00 00	 call	 ?process_assert@@YGXPBD0H@Z ; process_assert
  0028e	c7 45 9c 00 00
	00 00		 mov	 DWORD PTR tv188[ebp], 0
$LN73@validate_l:
  00295	6a 2c		 push	 44			; 0000002cH
  00297	8b 4d 08	 mov	 ecx, DWORD PTR _route_task$[ebp]
  0029a	51		 push	 ecx
  0029b	69 55 a0 b4 00
	00 00		 imul	 edx, DWORD PTR tv180[ebp], 180
  002a2	8b 45 9c	 mov	 eax, DWORD PTR tv188[ebp]
  002a5	8b 8c 82 00 00
	00 00		 mov	 ecx, DWORD PTR ?fn_get_local_entity_first_child@@3PAY0CN@P6GPAUENTITY@@PAU1@W4LIST_TYPES@@@ZA[edx+eax*4]
  002ac	ff d1		 call	 ecx
  002ae	89 45 ec	 mov	 DWORD PTR _wp$[ebp], eax

; 641  : 
; 642  : 					if (wp)

  002b1	83 7d ec 00	 cmp	 DWORD PTR _wp$[ebp], 0
  002b5	0f 84 6c 02 00
	00		 je	 $LN20@validate_l

; 643  : 					{
; 644  : 	
; 645  : 						type = get_local_entity_int_value (wp, INT_TYPE_ENTITY_SUB_TYPE);

  002bb	83 7d ec 00	 cmp	 DWORD PTR _wp$[ebp], 0
  002bf	74 0a		 je	 SHORT $LN74@validate_l
  002c1	8b 45 ec	 mov	 eax, DWORD PTR _wp$[ebp]
  002c4	8b 08		 mov	 ecx, DWORD PTR [eax]
  002c6	89 4d a0	 mov	 DWORD PTR tv201[ebp], ecx
  002c9	eb 21		 jmp	 SHORT $LN75@validate_l
$LN74@validate_l:
  002cb	8b 15 00 00 00
	00		 mov	 edx, DWORD PTR ?__LINE__Var@?0??validate_landing_route@@YGHPAUENTITY@@@Z@4JA
  002d1	83 c2 34	 add	 edx, 52			; 00000034H
  002d4	52		 push	 edx
  002d5	68 00 00 00 00	 push	 OFFSET ??_C@_0EB@GJLKGHAC@c?3?2users?2nhv90?2projects?2eech?2ap@
  002da	a1 00 00 00 00	 mov	 eax, DWORD PTR ?null_entity_pointer_message@@3PBDB ; null_entity_pointer_message
  002df	50		 push	 eax
  002e0	e8 00 00 00 00	 call	 ?process_assert@@YGXPBD0H@Z ; process_assert
  002e5	c7 45 a0 00 00
	00 00		 mov	 DWORD PTR tv201[ebp], 0
$LN75@validate_l:
  002ec	b9 01 00 00 00	 mov	 ecx, 1
  002f1	85 c9		 test	 ecx, ecx
  002f3	74 09		 je	 SHORT $LN76@validate_l
  002f5	c7 45 9c 34 00
	00 00		 mov	 DWORD PTR tv209[ebp], 52 ; 00000034H
  002fc	eb 21		 jmp	 SHORT $LN77@validate_l
$LN76@validate_l:
  002fe	8b 15 00 00 00
	00		 mov	 edx, DWORD PTR ?__LINE__Var@?0??validate_landing_route@@YGHPAUENTITY@@@Z@4JA
  00304	83 c2 34	 add	 edx, 52			; 00000034H
  00307	52		 push	 edx
  00308	68 00 00 00 00	 push	 OFFSET ??_C@_0EB@GJLKGHAC@c?3?2users?2nhv90?2projects?2eech?2ap@
  0030d	a1 00 00 00 00	 mov	 eax, DWORD PTR ?overload_invalid_int_type_message@@3PBDB ; overload_invalid_int_type_message
  00312	50		 push	 eax
  00313	e8 00 00 00 00	 call	 ?process_assert@@YGXPBD0H@Z ; process_assert
  00318	c7 45 9c 00 00
	00 00		 mov	 DWORD PTR tv209[ebp], 0
$LN77@validate_l:
  0031f	6a 34		 push	 52			; 00000034H
  00321	8b 4d ec	 mov	 ecx, DWORD PTR _wp$[ebp]
  00324	51		 push	 ecx
  00325	69 55 a0 5c 04
	00 00		 imul	 edx, DWORD PTR tv201[ebp], 1116
  0032c	8b 45 9c	 mov	 eax, DWORD PTR tv209[ebp]
  0032f	8b 8c 82 00 00
	00 00		 mov	 ecx, DWORD PTR ?fn_get_local_entity_int_value@@3PAY0BBH@P6GHPAUENTITY@@W4INT_TYPES@@@ZA[edx+eax*4]
  00336	ff d1		 call	 ecx
  00338	89 45 f8	 mov	 DWORD PTR _type$[ebp], eax

; 646  : 	
; 647  : 						count = 0;

  0033b	c7 45 fc 00 00
	00 00		 mov	 DWORD PTR _count$[ebp], 0
$LN6@validate_l:

; 648  : 			
; 649  : 						while (type != ENTITY_SUB_TYPE_WAYPOINT_LANDED)

  00342	83 7d f8 0e	 cmp	 DWORD PTR _type$[ebp], 14 ; 0000000eH
  00346	0f 84 2d 01 00
	00		 je	 $LN7@validate_l

; 650  : 						{
; 651  : 			
; 652  : 							if ((type != ENTITY_SUB_TYPE_WAYPOINT_NAVIGATION) &&

  0034c	83 7d f8 11	 cmp	 DWORD PTR _type$[ebp], 17 ; 00000011H
  00350	74 13		 je	 SHORT $LN22@validate_l
  00352	83 7d f8 1d	 cmp	 DWORD PTR _type$[ebp], 29 ; 0000001dH
  00356	74 0d		 je	 SHORT $LN22@validate_l

; 653  : 								(type != ENTITY_SUB_TYPE_WAYPOINT_TOUCH_DOWN))
; 654  : 							{
; 655  : 			
; 656  : 								debug_fatal ("WARNING. Route parser failed on landing route. Non nav waypoint in route");

  00358	68 00 00 00 00	 push	 OFFSET ??_C@_0EJ@BOGFIKLP@WARNING?4?5Route?5parser?5failed?5on@
  0035d	e8 00 00 00 00	 call	 ?debug_fatal@@YAXPBDZZ	; debug_fatal
  00362	83 c4 04	 add	 esp, 4
$LN22@validate_l:

; 657  : 							}
; 658  : 	
; 659  : 							if (type == ENTITY_SUB_TYPE_WAYPOINT_TOUCH_DOWN)

  00365	83 7d f8 1d	 cmp	 DWORD PTR _type$[ebp], 29 ; 0000001dH
  00369	75 09		 jne	 SHORT $LN23@validate_l

; 660  : 							{
; 661  : 	
; 662  : 								count ++;

  0036b	8b 45 fc	 mov	 eax, DWORD PTR _count$[ebp]
  0036e	83 c0 01	 add	 eax, 1
  00371	89 45 fc	 mov	 DWORD PTR _count$[ebp], eax
$LN23@validate_l:

; 663  : 							}
; 664  : 			
; 665  : 							wp = get_local_entity_child_succ (wp, LIST_TYPE_WAYPOINT);

  00374	83 7d ec 00	 cmp	 DWORD PTR _wp$[ebp], 0
  00378	74 0a		 je	 SHORT $LN78@validate_l
  0037a	8b 45 ec	 mov	 eax, DWORD PTR _wp$[ebp]
  0037d	8b 08		 mov	 ecx, DWORD PTR [eax]
  0037f	89 4d a0	 mov	 DWORD PTR tv227[ebp], ecx
  00382	eb 21		 jmp	 SHORT $LN79@validate_l
$LN78@validate_l:
  00384	8b 15 00 00 00
	00		 mov	 edx, DWORD PTR ?__LINE__Var@?0??validate_landing_route@@YGHPAUENTITY@@@Z@4JA
  0038a	83 c2 48	 add	 edx, 72			; 00000048H
  0038d	52		 push	 edx
  0038e	68 00 00 00 00	 push	 OFFSET ??_C@_0EB@GJLKGHAC@c?3?2users?2nhv90?2projects?2eech?2ap@
  00393	a1 00 00 00 00	 mov	 eax, DWORD PTR ?null_entity_pointer_message@@3PBDB ; null_entity_pointer_message
  00398	50		 push	 eax
  00399	e8 00 00 00 00	 call	 ?process_assert@@YGXPBD0H@Z ; process_assert
  0039e	c7 45 a0 00 00
	00 00		 mov	 DWORD PTR tv227[ebp], 0
$LN79@validate_l:
  003a5	b9 01 00 00 00	 mov	 ecx, 1
  003aa	85 c9		 test	 ecx, ecx
  003ac	74 09		 je	 SHORT $LN80@validate_l
  003ae	c7 45 9c 2c 00
	00 00		 mov	 DWORD PTR tv235[ebp], 44 ; 0000002cH
  003b5	eb 21		 jmp	 SHORT $LN81@validate_l
$LN80@validate_l:
  003b7	8b 15 00 00 00
	00		 mov	 edx, DWORD PTR ?__LINE__Var@?0??validate_landing_route@@YGHPAUENTITY@@@Z@4JA
  003bd	83 c2 48	 add	 edx, 72			; 00000048H
  003c0	52		 push	 edx
  003c1	68 00 00 00 00	 push	 OFFSET ??_C@_0EB@GJLKGHAC@c?3?2users?2nhv90?2projects?2eech?2ap@
  003c6	a1 00 00 00 00	 mov	 eax, DWORD PTR ?overload_invalid_list_type_message@@3PBDB ; overload_invalid_list_type_message
  003cb	50		 push	 eax
  003cc	e8 00 00 00 00	 call	 ?process_assert@@YGXPBD0H@Z ; process_assert
  003d1	c7 45 9c 00 00
	00 00		 mov	 DWORD PTR tv235[ebp], 0
$LN81@validate_l:
  003d8	6a 2c		 push	 44			; 0000002cH
  003da	8b 4d ec	 mov	 ecx, DWORD PTR _wp$[ebp]
  003dd	51		 push	 ecx
  003de	69 55 a0 b4 00
	00 00		 imul	 edx, DWORD PTR tv227[ebp], 180
  003e5	8b 45 9c	 mov	 eax, DWORD PTR tv235[ebp]
  003e8	8b 8c 82 00 00
	00 00		 mov	 ecx, DWORD PTR ?fn_get_local_entity_child_succ@@3PAY0CN@P6GPAUENTITY@@PAU1@W4LIST_TYPES@@@ZA[edx+eax*4]
  003ef	ff d1		 call	 ecx
  003f1	89 45 ec	 mov	 DWORD PTR _wp$[ebp], eax

; 666  : 			
; 667  : 							type = get_local_entity_int_value (wp, INT_TYPE_ENTITY_SUB_TYPE);

  003f4	83 7d ec 00	 cmp	 DWORD PTR _wp$[ebp], 0
  003f8	74 0a		 je	 SHORT $LN82@validate_l
  003fa	8b 45 ec	 mov	 eax, DWORD PTR _wp$[ebp]
  003fd	8b 08		 mov	 ecx, DWORD PTR [eax]
  003ff	89 4d a0	 mov	 DWORD PTR tv247[ebp], ecx
  00402	eb 21		 jmp	 SHORT $LN83@validate_l
$LN82@validate_l:
  00404	8b 15 00 00 00
	00		 mov	 edx, DWORD PTR ?__LINE__Var@?0??validate_landing_route@@YGHPAUENTITY@@@Z@4JA
  0040a	83 c2 4a	 add	 edx, 74			; 0000004aH
  0040d	52		 push	 edx
  0040e	68 00 00 00 00	 push	 OFFSET ??_C@_0EB@GJLKGHAC@c?3?2users?2nhv90?2projects?2eech?2ap@
  00413	a1 00 00 00 00	 mov	 eax, DWORD PTR ?null_entity_pointer_message@@3PBDB ; null_entity_pointer_message
  00418	50		 push	 eax
  00419	e8 00 00 00 00	 call	 ?process_assert@@YGXPBD0H@Z ; process_assert
  0041e	c7 45 a0 00 00
	00 00		 mov	 DWORD PTR tv247[ebp], 0
$LN83@validate_l:
  00425	b9 01 00 00 00	 mov	 ecx, 1
  0042a	85 c9		 test	 ecx, ecx
  0042c	74 09		 je	 SHORT $LN84@validate_l
  0042e	c7 45 9c 34 00
	00 00		 mov	 DWORD PTR tv255[ebp], 52 ; 00000034H
  00435	eb 21		 jmp	 SHORT $LN85@validate_l
$LN84@validate_l:
  00437	8b 15 00 00 00
	00		 mov	 edx, DWORD PTR ?__LINE__Var@?0??validate_landing_route@@YGHPAUENTITY@@@Z@4JA
  0043d	83 c2 4a	 add	 edx, 74			; 0000004aH
  00440	52		 push	 edx
  00441	68 00 00 00 00	 push	 OFFSET ??_C@_0EB@GJLKGHAC@c?3?2users?2nhv90?2projects?2eech?2ap@
  00446	a1 00 00 00 00	 mov	 eax, DWORD PTR ?overload_invalid_int_type_message@@3PBDB ; overload_invalid_int_type_message
  0044b	50		 push	 eax
  0044c	e8 00 00 00 00	 call	 ?process_assert@@YGXPBD0H@Z ; process_assert
  00451	c7 45 9c 00 00
	00 00		 mov	 DWORD PTR tv255[ebp], 0
$LN85@validate_l:
  00458	6a 34		 push	 52			; 00000034H
  0045a	8b 4d ec	 mov	 ecx, DWORD PTR _wp$[ebp]
  0045d	51		 push	 ecx
  0045e	69 55 a0 5c 04
	00 00		 imul	 edx, DWORD PTR tv247[ebp], 1116
  00465	8b 45 9c	 mov	 eax, DWORD PTR tv255[ebp]
  00468	8b 8c 82 00 00
	00 00		 mov	 ecx, DWORD PTR ?fn_get_local_entity_int_value@@3PAY0BBH@P6GHPAUENTITY@@W4INT_TYPES@@@ZA[edx+eax*4]
  0046f	ff d1		 call	 ecx
  00471	89 45 f8	 mov	 DWORD PTR _type$[ebp], eax

; 668  : 						}

  00474	e9 c9 fe ff ff	 jmp	 $LN6@validate_l
$LN7@validate_l:

; 669  : 	
; 670  : 						if (count != 1)

  00479	83 7d fc 01	 cmp	 DWORD PTR _count$[ebp], 1
  0047d	74 0d		 je	 SHORT $LN24@validate_l

; 671  : 						{
; 672  : 	
; 673  : 							debug_fatal ("WARNING. Route parser failed on takeoff route. Incorrect number of Touch down waypoints");

  0047f	68 00 00 00 00	 push	 OFFSET ??_C@_0FI@INEJIBIJ@WARNING?4?5Route?5parser?5failed?5on@
  00484	e8 00 00 00 00	 call	 ?debug_fatal@@YAXPBDZZ	; debug_fatal
  00489	83 c4 04	 add	 esp, 4
$LN24@validate_l:

; 674  : 						}
; 675  : 	
; 676  : 						//
; 677  : 						// Landed
; 678  : 						//
; 679  : 			
; 680  : 						if (type != ENTITY_SUB_TYPE_WAYPOINT_LANDED)

  0048c	83 7d f8 0e	 cmp	 DWORD PTR _type$[ebp], 14 ; 0000000eH
  00490	74 0d		 je	 SHORT $LN25@validate_l

; 681  : 						{
; 682  : 			
; 683  : 							debug_fatal ("WARNING. Route parser failed on landing route. Landed waypoint not in correct place");

  00492	68 00 00 00 00	 push	 OFFSET ??_C@_0FE@JDENKHHB@WARNING?4?5Route?5parser?5failed?5on@
  00497	e8 00 00 00 00	 call	 ?debug_fatal@@YAXPBDZZ	; debug_fatal
  0049c	83 c4 04	 add	 esp, 4
$LN25@validate_l:

; 684  : 						}
; 685  : 	
; 686  : 						//
; 687  : 						// Extras
; 688  : 						//
; 689  : 			
; 690  : 						if (get_local_entity_child_succ (wp, LIST_TYPE_WAYPOINT))

  0049f	83 7d ec 00	 cmp	 DWORD PTR _wp$[ebp], 0
  004a3	74 0a		 je	 SHORT $LN86@validate_l
  004a5	8b 45 ec	 mov	 eax, DWORD PTR _wp$[ebp]
  004a8	8b 08		 mov	 ecx, DWORD PTR [eax]
  004aa	89 4d a0	 mov	 DWORD PTR tv270[ebp], ecx
  004ad	eb 1d		 jmp	 SHORT $LN87@validate_l
$LN86@validate_l:
  004af	68 b2 02 00 00	 push	 690			; 000002b2H
  004b4	68 00 00 00 00	 push	 OFFSET ??_C@_0EB@GJLKGHAC@c?3?2users?2nhv90?2projects?2eech?2ap@
  004b9	8b 15 00 00 00
	00		 mov	 edx, DWORD PTR ?null_entity_pointer_message@@3PBDB ; null_entity_pointer_message
  004bf	52		 push	 edx
  004c0	e8 00 00 00 00	 call	 ?process_assert@@YGXPBD0H@Z ; process_assert
  004c5	c7 45 a0 00 00
	00 00		 mov	 DWORD PTR tv270[ebp], 0
$LN87@validate_l:
  004cc	b8 01 00 00 00	 mov	 eax, 1
  004d1	85 c0		 test	 eax, eax
  004d3	74 09		 je	 SHORT $LN88@validate_l
  004d5	c7 45 9c 2c 00
	00 00		 mov	 DWORD PTR tv277[ebp], 44 ; 0000002cH
  004dc	eb 1d		 jmp	 SHORT $LN89@validate_l
$LN88@validate_l:
  004de	68 b2 02 00 00	 push	 690			; 000002b2H
  004e3	68 00 00 00 00	 push	 OFFSET ??_C@_0EB@GJLKGHAC@c?3?2users?2nhv90?2projects?2eech?2ap@
  004e8	8b 0d 00 00 00
	00		 mov	 ecx, DWORD PTR ?overload_invalid_list_type_message@@3PBDB ; overload_invalid_list_type_message
  004ee	51		 push	 ecx
  004ef	e8 00 00 00 00	 call	 ?process_assert@@YGXPBD0H@Z ; process_assert
  004f4	c7 45 9c 00 00
	00 00		 mov	 DWORD PTR tv277[ebp], 0
$LN89@validate_l:
  004fb	6a 2c		 push	 44			; 0000002cH
  004fd	8b 55 ec	 mov	 edx, DWORD PTR _wp$[ebp]
  00500	52		 push	 edx
  00501	69 45 a0 b4 00
	00 00		 imul	 eax, DWORD PTR tv270[ebp], 180
  00508	8b 4d 9c	 mov	 ecx, DWORD PTR tv277[ebp]
  0050b	8b 94 88 00 00
	00 00		 mov	 edx, DWORD PTR ?fn_get_local_entity_child_succ@@3PAY0CN@P6GPAUENTITY@@PAU1@W4LIST_TYPES@@@ZA[eax+ecx*4]
  00512	ff d2		 call	 edx
  00514	85 c0		 test	 eax, eax
  00516	74 0d		 je	 SHORT $LN26@validate_l

; 691  : 						{
; 692  : 			
; 693  : 							debug_fatal ("WARNING. Route parser failed on landing route. Waypoint present after Landed waypoint");

  00518	68 00 00 00 00	 push	 OFFSET ??_C@_0FG@FPCDHEOC@WARNING?4?5Route?5parser?5failed?5on@
  0051d	e8 00 00 00 00	 call	 ?debug_fatal@@YAXPBDZZ	; debug_fatal
  00522	83 c4 04	 add	 esp, 4
$LN26@validate_l:

; 694  : 						}
; 695  : 					}
; 696  : 					else

  00525	eb 0d		 jmp	 SHORT $LN21@validate_l
$LN20@validate_l:

; 697  : 					{
; 698  : 
; 699  : 						debug_log ("WARNING. Route parser. No Waypoint present in Landing route");

  00527	68 00 00 00 00	 push	 OFFSET ??_C@_0DM@MIMFIPOF@WARNING?4?5Route?5parser?4?5No?5Waypo@
  0052c	e8 00 00 00 00	 call	 ?debug_log@@YAXPBDZZ	; debug_log
  00531	83 c4 04	 add	 esp, 4
$LN21@validate_l:

; 700  : 					}
; 701  : 
; 702  : 					break;

  00534	e9 61 03 00 00	 jmp	 $LN4@validate_l
$LN27@validate_l:

; 703  : 				}
; 704  : 
; 705  : 				case ENTITY_SUB_TYPE_LANDING_HELICOPTER:
; 706  : 				case ENTITY_SUB_TYPE_LANDING_GROUND:
; 707  : 				case ENTITY_SUB_TYPE_LANDING_SEA:
; 708  : 				{
; 709  : 
; 710  : 					//
; 711  : 					// Navigations
; 712  : 					//
; 713  : 		
; 714  : 					wp = get_local_entity_first_child (route_task, LIST_TYPE_WAYPOINT);

  00539	83 7d 08 00	 cmp	 DWORD PTR _route_task$[ebp], 0
  0053d	74 0a		 je	 SHORT $LN90@validate_l
  0053f	8b 45 08	 mov	 eax, DWORD PTR _route_task$[ebp]
  00542	8b 08		 mov	 ecx, DWORD PTR [eax]
  00544	89 4d a0	 mov	 DWORD PTR tv292[ebp], ecx
  00547	eb 21		 jmp	 SHORT $LN91@validate_l
$LN90@validate_l:
  00549	8b 15 00 00 00
	00		 mov	 edx, DWORD PTR ?__LINE__Var@?0??validate_landing_route@@YGHPAUENTITY@@@Z@4JA
  0054f	83 c2 79	 add	 edx, 121		; 00000079H
  00552	52		 push	 edx
  00553	68 00 00 00 00	 push	 OFFSET ??_C@_0EB@GJLKGHAC@c?3?2users?2nhv90?2projects?2eech?2ap@
  00558	a1 00 00 00 00	 mov	 eax, DWORD PTR ?null_entity_pointer_message@@3PBDB ; null_entity_pointer_message
  0055d	50		 push	 eax
  0055e	e8 00 00 00 00	 call	 ?process_assert@@YGXPBD0H@Z ; process_assert
  00563	c7 45 a0 00 00
	00 00		 mov	 DWORD PTR tv292[ebp], 0
$LN91@validate_l:
  0056a	b9 01 00 00 00	 mov	 ecx, 1
  0056f	85 c9		 test	 ecx, ecx
  00571	74 09		 je	 SHORT $LN92@validate_l
  00573	c7 45 9c 2c 00
	00 00		 mov	 DWORD PTR tv300[ebp], 44 ; 0000002cH
  0057a	eb 21		 jmp	 SHORT $LN93@validate_l
$LN92@validate_l:
  0057c	8b 15 00 00 00
	00		 mov	 edx, DWORD PTR ?__LINE__Var@?0??validate_landing_route@@YGHPAUENTITY@@@Z@4JA
  00582	83 c2 79	 add	 edx, 121		; 00000079H
  00585	52		 push	 edx
  00586	68 00 00 00 00	 push	 OFFSET ??_C@_0EB@GJLKGHAC@c?3?2users?2nhv90?2projects?2eech?2ap@
  0058b	a1 00 00 00 00	 mov	 eax, DWORD PTR ?overload_invalid_list_type_message@@3PBDB ; overload_invalid_list_type_message
  00590	50		 push	 eax
  00591	e8 00 00 00 00	 call	 ?process_assert@@YGXPBD0H@Z ; process_assert
  00596	c7 45 9c 00 00
	00 00		 mov	 DWORD PTR tv300[ebp], 0
$LN93@validate_l:
  0059d	6a 2c		 push	 44			; 0000002cH
  0059f	8b 4d 08	 mov	 ecx, DWORD PTR _route_task$[ebp]
  005a2	51		 push	 ecx
  005a3	69 55 a0 b4 00
	00 00		 imul	 edx, DWORD PTR tv292[ebp], 180
  005aa	8b 45 9c	 mov	 eax, DWORD PTR tv300[ebp]
  005ad	8b 8c 82 00 00
	00 00		 mov	 ecx, DWORD PTR ?fn_get_local_entity_first_child@@3PAY0CN@P6GPAUENTITY@@PAU1@W4LIST_TYPES@@@ZA[edx+eax*4]
  005b4	ff d1		 call	 ecx
  005b6	89 45 ec	 mov	 DWORD PTR _wp$[ebp], eax

; 715  : 
; 716  : 					if (wp)

  005b9	83 7d ec 00	 cmp	 DWORD PTR _wp$[ebp], 0
  005bd	0f 84 ca 02 00
	00		 je	 $LN28@validate_l
$LN8@validate_l:

; 717  : 					{
; 718  : 			
; 719  : 						while (get_local_entity_child_succ (wp, LIST_TYPE_WAYPOINT))

  005c3	83 7d ec 00	 cmp	 DWORD PTR _wp$[ebp], 0
  005c7	74 0a		 je	 SHORT $LN94@validate_l
  005c9	8b 45 ec	 mov	 eax, DWORD PTR _wp$[ebp]
  005cc	8b 08		 mov	 ecx, DWORD PTR [eax]
  005ce	89 4d a0	 mov	 DWORD PTR tv313[ebp], ecx
  005d1	eb 21		 jmp	 SHORT $LN95@validate_l
$LN94@validate_l:
  005d3	8b 15 00 00 00
	00		 mov	 edx, DWORD PTR ?__LINE__Var@?0??validate_landing_route@@YGHPAUENTITY@@@Z@4JA
  005d9	83 c2 7e	 add	 edx, 126		; 0000007eH
  005dc	52		 push	 edx
  005dd	68 00 00 00 00	 push	 OFFSET ??_C@_0EB@GJLKGHAC@c?3?2users?2nhv90?2projects?2eech?2ap@
  005e2	a1 00 00 00 00	 mov	 eax, DWORD PTR ?null_entity_pointer_message@@3PBDB ; null_entity_pointer_message
  005e7	50		 push	 eax
  005e8	e8 00 00 00 00	 call	 ?process_assert@@YGXPBD0H@Z ; process_assert
  005ed	c7 45 a0 00 00
	00 00		 mov	 DWORD PTR tv313[ebp], 0
$LN95@validate_l:
  005f4	b9 01 00 00 00	 mov	 ecx, 1
  005f9	85 c9		 test	 ecx, ecx
  005fb	74 09		 je	 SHORT $LN96@validate_l
  005fd	c7 45 9c 2c 00
	00 00		 mov	 DWORD PTR tv321[ebp], 44 ; 0000002cH
  00604	eb 21		 jmp	 SHORT $LN97@validate_l
$LN96@validate_l:
  00606	8b 15 00 00 00
	00		 mov	 edx, DWORD PTR ?__LINE__Var@?0??validate_landing_route@@YGHPAUENTITY@@@Z@4JA
  0060c	83 c2 7e	 add	 edx, 126		; 0000007eH
  0060f	52		 push	 edx
  00610	68 00 00 00 00	 push	 OFFSET ??_C@_0EB@GJLKGHAC@c?3?2users?2nhv90?2projects?2eech?2ap@
  00615	a1 00 00 00 00	 mov	 eax, DWORD PTR ?overload_invalid_list_type_message@@3PBDB ; overload_invalid_list_type_message
  0061a	50		 push	 eax
  0061b	e8 00 00 00 00	 call	 ?process_assert@@YGXPBD0H@Z ; process_assert
  00620	c7 45 9c 00 00
	00 00		 mov	 DWORD PTR tv321[ebp], 0
$LN97@validate_l:
  00627	6a 2c		 push	 44			; 0000002cH
  00629	8b 4d ec	 mov	 ecx, DWORD PTR _wp$[ebp]
  0062c	51		 push	 ecx
  0062d	69 55 a0 b4 00
	00 00		 imul	 edx, DWORD PTR tv313[ebp], 180
  00634	8b 45 9c	 mov	 eax, DWORD PTR tv321[ebp]
  00637	8b 8c 82 00 00
	00 00		 mov	 ecx, DWORD PTR ?fn_get_local_entity_child_succ@@3PAY0CN@P6GPAUENTITY@@PAU1@W4LIST_TYPES@@@ZA[edx+eax*4]
  0063e	ff d1		 call	 ecx
  00640	85 c0		 test	 eax, eax
  00642	0f 84 24 01 00
	00		 je	 $LN9@validate_l

; 720  : 						{
; 721  : 			
; 722  : 							type = get_local_entity_int_value (wp, INT_TYPE_ENTITY_SUB_TYPE);

  00648	83 7d ec 00	 cmp	 DWORD PTR _wp$[ebp], 0
  0064c	74 0a		 je	 SHORT $LN98@validate_l
  0064e	8b 45 ec	 mov	 eax, DWORD PTR _wp$[ebp]
  00651	8b 08		 mov	 ecx, DWORD PTR [eax]
  00653	89 4d a0	 mov	 DWORD PTR tv334[ebp], ecx
  00656	eb 24		 jmp	 SHORT $LN99@validate_l
$LN98@validate_l:
  00658	8b 15 00 00 00
	00		 mov	 edx, DWORD PTR ?__LINE__Var@?0??validate_landing_route@@YGHPAUENTITY@@@Z@4JA
  0065e	81 c2 81 00 00
	00		 add	 edx, 129		; 00000081H
  00664	52		 push	 edx
  00665	68 00 00 00 00	 push	 OFFSET ??_C@_0EB@GJLKGHAC@c?3?2users?2nhv90?2projects?2eech?2ap@
  0066a	a1 00 00 00 00	 mov	 eax, DWORD PTR ?null_entity_pointer_message@@3PBDB ; null_entity_pointer_message
  0066f	50		 push	 eax
  00670	e8 00 00 00 00	 call	 ?process_assert@@YGXPBD0H@Z ; process_assert
  00675	c7 45 a0 00 00
	00 00		 mov	 DWORD PTR tv334[ebp], 0
$LN99@validate_l:
  0067c	b9 01 00 00 00	 mov	 ecx, 1
  00681	85 c9		 test	 ecx, ecx
  00683	74 09		 je	 SHORT $LN100@validate_l
  00685	c7 45 9c 34 00
	00 00		 mov	 DWORD PTR tv342[ebp], 52 ; 00000034H
  0068c	eb 24		 jmp	 SHORT $LN101@validate_l
$LN100@validate_l:
  0068e	8b 15 00 00 00
	00		 mov	 edx, DWORD PTR ?__LINE__Var@?0??validate_landing_route@@YGHPAUENTITY@@@Z@4JA
  00694	81 c2 81 00 00
	00		 add	 edx, 129		; 00000081H
  0069a	52		 push	 edx
  0069b	68 00 00 00 00	 push	 OFFSET ??_C@_0EB@GJLKGHAC@c?3?2users?2nhv90?2projects?2eech?2ap@
  006a0	a1 00 00 00 00	 mov	 eax, DWORD PTR ?overload_invalid_int_type_message@@3PBDB ; overload_invalid_int_type_message
  006a5	50		 push	 eax
  006a6	e8 00 00 00 00	 call	 ?process_assert@@YGXPBD0H@Z ; process_assert
  006ab	c7 45 9c 00 00
	00 00		 mov	 DWORD PTR tv342[ebp], 0
$LN101@validate_l:
  006b2	6a 34		 push	 52			; 00000034H
  006b4	8b 4d ec	 mov	 ecx, DWORD PTR _wp$[ebp]
  006b7	51		 push	 ecx
  006b8	69 55 a0 5c 04
	00 00		 imul	 edx, DWORD PTR tv334[ebp], 1116
  006bf	8b 45 9c	 mov	 eax, DWORD PTR tv342[ebp]
  006c2	8b 8c 82 00 00
	00 00		 mov	 ecx, DWORD PTR ?fn_get_local_entity_int_value@@3PAY0BBH@P6GHPAUENTITY@@W4INT_TYPES@@@ZA[edx+eax*4]
  006c9	ff d1		 call	 ecx
  006cb	89 45 f8	 mov	 DWORD PTR _type$[ebp], eax

; 723  : 			
; 724  : 							if (type != ENTITY_SUB_TYPE_WAYPOINT_NAVIGATION)

  006ce	83 7d f8 11	 cmp	 DWORD PTR _type$[ebp], 17 ; 00000011H
  006d2	74 0d		 je	 SHORT $LN30@validate_l

; 725  : 							{
; 726  : 			
; 727  : 								debug_fatal ("WARNING. Route parser failed on landing route. Non nav waypoint in route");

  006d4	68 00 00 00 00	 push	 OFFSET ??_C@_0EJ@BOGFIKLP@WARNING?4?5Route?5parser?5failed?5on@
  006d9	e8 00 00 00 00	 call	 ?debug_fatal@@YAXPBDZZ	; debug_fatal
  006de	83 c4 04	 add	 esp, 4
$LN30@validate_l:

; 728  : 							}
; 729  : 			
; 730  : 							wp = get_local_entity_child_succ (wp, LIST_TYPE_WAYPOINT);

  006e1	83 7d ec 00	 cmp	 DWORD PTR _wp$[ebp], 0
  006e5	74 0a		 je	 SHORT $LN102@validate_l
  006e7	8b 45 ec	 mov	 eax, DWORD PTR _wp$[ebp]
  006ea	8b 08		 mov	 ecx, DWORD PTR [eax]
  006ec	89 4d a0	 mov	 DWORD PTR tv356[ebp], ecx
  006ef	eb 24		 jmp	 SHORT $LN103@validate_l
$LN102@validate_l:
  006f1	8b 15 00 00 00
	00		 mov	 edx, DWORD PTR ?__LINE__Var@?0??validate_landing_route@@YGHPAUENTITY@@@Z@4JA
  006f7	81 c2 89 00 00
	00		 add	 edx, 137		; 00000089H
  006fd	52		 push	 edx
  006fe	68 00 00 00 00	 push	 OFFSET ??_C@_0EB@GJLKGHAC@c?3?2users?2nhv90?2projects?2eech?2ap@
  00703	a1 00 00 00 00	 mov	 eax, DWORD PTR ?null_entity_pointer_message@@3PBDB ; null_entity_pointer_message
  00708	50		 push	 eax
  00709	e8 00 00 00 00	 call	 ?process_assert@@YGXPBD0H@Z ; process_assert
  0070e	c7 45 a0 00 00
	00 00		 mov	 DWORD PTR tv356[ebp], 0
$LN103@validate_l:
  00715	b9 01 00 00 00	 mov	 ecx, 1
  0071a	85 c9		 test	 ecx, ecx
  0071c	74 09		 je	 SHORT $LN104@validate_l
  0071e	c7 45 9c 2c 00
	00 00		 mov	 DWORD PTR tv364[ebp], 44 ; 0000002cH
  00725	eb 24		 jmp	 SHORT $LN105@validate_l
$LN104@validate_l:
  00727	8b 15 00 00 00
	00		 mov	 edx, DWORD PTR ?__LINE__Var@?0??validate_landing_route@@YGHPAUENTITY@@@Z@4JA
  0072d	81 c2 89 00 00
	00		 add	 edx, 137		; 00000089H
  00733	52		 push	 edx
  00734	68 00 00 00 00	 push	 OFFSET ??_C@_0EB@GJLKGHAC@c?3?2users?2nhv90?2projects?2eech?2ap@
  00739	a1 00 00 00 00	 mov	 eax, DWORD PTR ?overload_invalid_list_type_message@@3PBDB ; overload_invalid_list_type_message
  0073e	50		 push	 eax
  0073f	e8 00 00 00 00	 call	 ?process_assert@@YGXPBD0H@Z ; process_assert
  00744	c7 45 9c 00 00
	00 00		 mov	 DWORD PTR tv364[ebp], 0
$LN105@validate_l:
  0074b	6a 2c		 push	 44			; 0000002cH
  0074d	8b 4d ec	 mov	 ecx, DWORD PTR _wp$[ebp]
  00750	51		 push	 ecx
  00751	69 55 a0 b4 00
	00 00		 imul	 edx, DWORD PTR tv356[ebp], 180
  00758	8b 45 9c	 mov	 eax, DWORD PTR tv364[ebp]
  0075b	8b 8c 82 00 00
	00 00		 mov	 ecx, DWORD PTR ?fn_get_local_entity_child_succ@@3PAY0CN@P6GPAUENTITY@@PAU1@W4LIST_TYPES@@@ZA[edx+eax*4]
  00762	ff d1		 call	 ecx
  00764	89 45 ec	 mov	 DWORD PTR _wp$[ebp], eax

; 731  : 						}

  00767	e9 57 fe ff ff	 jmp	 $LN8@validate_l
$LN9@validate_l:

; 732  : 	
; 733  : 						//
; 734  : 						// Landed
; 735  : 						//
; 736  : 			
; 737  : 						type = get_local_entity_int_value (wp, INT_TYPE_ENTITY_SUB_TYPE);

  0076c	83 7d ec 00	 cmp	 DWORD PTR _wp$[ebp], 0
  00770	74 0a		 je	 SHORT $LN106@validate_l
  00772	8b 45 ec	 mov	 eax, DWORD PTR _wp$[ebp]
  00775	8b 08		 mov	 ecx, DWORD PTR [eax]
  00777	89 4d a0	 mov	 DWORD PTR tv376[ebp], ecx
  0077a	eb 24		 jmp	 SHORT $LN107@validate_l
$LN106@validate_l:
  0077c	8b 15 00 00 00
	00		 mov	 edx, DWORD PTR ?__LINE__Var@?0??validate_landing_route@@YGHPAUENTITY@@@Z@4JA
  00782	81 c2 90 00 00
	00		 add	 edx, 144		; 00000090H
  00788	52		 push	 edx
  00789	68 00 00 00 00	 push	 OFFSET ??_C@_0EB@GJLKGHAC@c?3?2users?2nhv90?2projects?2eech?2ap@
  0078e	a1 00 00 00 00	 mov	 eax, DWORD PTR ?null_entity_pointer_message@@3PBDB ; null_entity_pointer_message
  00793	50		 push	 eax
  00794	e8 00 00 00 00	 call	 ?process_assert@@YGXPBD0H@Z ; process_assert
  00799	c7 45 a0 00 00
	00 00		 mov	 DWORD PTR tv376[ebp], 0
$LN107@validate_l:
  007a0	b9 01 00 00 00	 mov	 ecx, 1
  007a5	85 c9		 test	 ecx, ecx
  007a7	74 09		 je	 SHORT $LN108@validate_l
  007a9	c7 45 9c 34 00
	00 00		 mov	 DWORD PTR tv384[ebp], 52 ; 00000034H
  007b0	eb 24		 jmp	 SHORT $LN109@validate_l
$LN108@validate_l:
  007b2	8b 15 00 00 00
	00		 mov	 edx, DWORD PTR ?__LINE__Var@?0??validate_landing_route@@YGHPAUENTITY@@@Z@4JA
  007b8	81 c2 90 00 00
	00		 add	 edx, 144		; 00000090H
  007be	52		 push	 edx
  007bf	68 00 00 00 00	 push	 OFFSET ??_C@_0EB@GJLKGHAC@c?3?2users?2nhv90?2projects?2eech?2ap@
  007c4	a1 00 00 00 00	 mov	 eax, DWORD PTR ?overload_invalid_int_type_message@@3PBDB ; overload_invalid_int_type_message
  007c9	50		 push	 eax
  007ca	e8 00 00 00 00	 call	 ?process_assert@@YGXPBD0H@Z ; process_assert
  007cf	c7 45 9c 00 00
	00 00		 mov	 DWORD PTR tv384[ebp], 0
$LN109@validate_l:
  007d6	6a 34		 push	 52			; 00000034H
  007d8	8b 4d ec	 mov	 ecx, DWORD PTR _wp$[ebp]
  007db	51		 push	 ecx
  007dc	69 55 a0 5c 04
	00 00		 imul	 edx, DWORD PTR tv376[ebp], 1116
  007e3	8b 45 9c	 mov	 eax, DWORD PTR tv384[ebp]
  007e6	8b 8c 82 00 00
	00 00		 mov	 ecx, DWORD PTR ?fn_get_local_entity_int_value@@3PAY0BBH@P6GHPAUENTITY@@W4INT_TYPES@@@ZA[edx+eax*4]
  007ed	ff d1		 call	 ecx
  007ef	89 45 f8	 mov	 DWORD PTR _type$[ebp], eax

; 738  : 			
; 739  : 						if (type != ENTITY_SUB_TYPE_WAYPOINT_LANDED)

  007f2	83 7d f8 0e	 cmp	 DWORD PTR _type$[ebp], 14 ; 0000000eH
  007f6	74 0d		 je	 SHORT $LN31@validate_l

; 740  : 						{
; 741  : 			
; 742  : 							debug_fatal ("WARNING. Route parser failed on landing route. Landed waypoint not in correct place");

  007f8	68 00 00 00 00	 push	 OFFSET ??_C@_0FE@JDENKHHB@WARNING?4?5Route?5parser?5failed?5on@
  007fd	e8 00 00 00 00	 call	 ?debug_fatal@@YAXPBDZZ	; debug_fatal
  00802	83 c4 04	 add	 esp, 4
$LN31@validate_l:

; 743  : 						}
; 744  : 	
; 745  : 						//
; 746  : 						// Extras
; 747  : 						//
; 748  : 			
; 749  : 						if (get_local_entity_child_succ (wp, LIST_TYPE_WAYPOINT))

  00805	83 7d ec 00	 cmp	 DWORD PTR _wp$[ebp], 0
  00809	74 0a		 je	 SHORT $LN110@validate_l
  0080b	8b 45 ec	 mov	 eax, DWORD PTR _wp$[ebp]
  0080e	8b 08		 mov	 ecx, DWORD PTR [eax]
  00810	89 4d a0	 mov	 DWORD PTR tv397[ebp], ecx
  00813	eb 1d		 jmp	 SHORT $LN111@validate_l
$LN110@validate_l:
  00815	68 ed 02 00 00	 push	 749			; 000002edH
  0081a	68 00 00 00 00	 push	 OFFSET ??_C@_0EB@GJLKGHAC@c?3?2users?2nhv90?2projects?2eech?2ap@
  0081f	8b 15 00 00 00
	00		 mov	 edx, DWORD PTR ?null_entity_pointer_message@@3PBDB ; null_entity_pointer_message
  00825	52		 push	 edx
  00826	e8 00 00 00 00	 call	 ?process_assert@@YGXPBD0H@Z ; process_assert
  0082b	c7 45 a0 00 00
	00 00		 mov	 DWORD PTR tv397[ebp], 0
$LN111@validate_l:
  00832	b8 01 00 00 00	 mov	 eax, 1
  00837	85 c0		 test	 eax, eax
  00839	74 09		 je	 SHORT $LN112@validate_l
  0083b	c7 45 9c 2c 00
	00 00		 mov	 DWORD PTR tv404[ebp], 44 ; 0000002cH
  00842	eb 1d		 jmp	 SHORT $LN113@validate_l
$LN112@validate_l:
  00844	68 ed 02 00 00	 push	 749			; 000002edH
  00849	68 00 00 00 00	 push	 OFFSET ??_C@_0EB@GJLKGHAC@c?3?2users?2nhv90?2projects?2eech?2ap@
  0084e	8b 0d 00 00 00
	00		 mov	 ecx, DWORD PTR ?overload_invalid_list_type_message@@3PBDB ; overload_invalid_list_type_message
  00854	51		 push	 ecx
  00855	e8 00 00 00 00	 call	 ?process_assert@@YGXPBD0H@Z ; process_assert
  0085a	c7 45 9c 00 00
	00 00		 mov	 DWORD PTR tv404[ebp], 0
$LN113@validate_l:
  00861	6a 2c		 push	 44			; 0000002cH
  00863	8b 55 ec	 mov	 edx, DWORD PTR _wp$[ebp]
  00866	52		 push	 edx
  00867	69 45 a0 b4 00
	00 00		 imul	 eax, DWORD PTR tv397[ebp], 180
  0086e	8b 4d 9c	 mov	 ecx, DWORD PTR tv404[ebp]
  00871	8b 94 88 00 00
	00 00		 mov	 edx, DWORD PTR ?fn_get_local_entity_child_succ@@3PAY0CN@P6GPAUENTITY@@PAU1@W4LIST_TYPES@@@ZA[eax+ecx*4]
  00878	ff d2		 call	 edx
  0087a	85 c0		 test	 eax, eax
  0087c	74 0d		 je	 SHORT $LN32@validate_l

; 750  : 						{
; 751  : 			
; 752  : 							debug_fatal ("WARNING. Route parser failed on landing route. Waypoint present after Landed waypoint");

  0087e	68 00 00 00 00	 push	 OFFSET ??_C@_0FG@FPCDHEOC@WARNING?4?5Route?5parser?5failed?5on@
  00883	e8 00 00 00 00	 call	 ?debug_fatal@@YAXPBDZZ	; debug_fatal
  00888	83 c4 04	 add	 esp, 4
$LN32@validate_l:

; 753  : 						}
; 754  : 					}
; 755  : 					else

  0088b	eb 0d		 jmp	 SHORT $LN4@validate_l
$LN28@validate_l:

; 756  : 					{
; 757  : 
; 758  : 						debug_log ("WARNING. Route parser. No Waypoint present in Landing route");

  0088d	68 00 00 00 00	 push	 OFFSET ??_C@_0DM@MIMFIPOF@WARNING?4?5Route?5parser?4?5No?5Waypo@
  00892	e8 00 00 00 00	 call	 ?debug_log@@YAXPBDZZ	; debug_log
  00897	83 c4 04	 add	 esp, 4
$LN4@validate_l:

; 759  : 					}
; 760  : 		
; 761  : 					break;
; 762  : 				}
; 763  : 			}
; 764  : 
; 765  : 			break;

  0089a	e9 b4 0d 00 00	 jmp	 $LN2@validate_l
$LN33@validate_l:

; 766  : 		}
; 767  : 
; 768  : 		case ENTITY_SUB_TYPE_TASK_TAKEOFF:
; 769  : 		{
; 770  : 
; 771  : 			switch (get_local_entity_int_value (landing_en, INT_TYPE_ENTITY_SUB_TYPE))

  0089f	83 7d f4 00	 cmp	 DWORD PTR _landing_en$[ebp], 0
  008a3	74 0a		 je	 SHORT $LN114@validate_l
  008a5	8b 45 f4	 mov	 eax, DWORD PTR _landing_en$[ebp]
  008a8	8b 08		 mov	 ecx, DWORD PTR [eax]
  008aa	89 4d a0	 mov	 DWORD PTR tv419[ebp], ecx
  008ad	eb 1d		 jmp	 SHORT $LN115@validate_l
$LN114@validate_l:
  008af	68 03 03 00 00	 push	 771			; 00000303H
  008b4	68 00 00 00 00	 push	 OFFSET ??_C@_0EB@GJLKGHAC@c?3?2users?2nhv90?2projects?2eech?2ap@
  008b9	8b 15 00 00 00
	00		 mov	 edx, DWORD PTR ?null_entity_pointer_message@@3PBDB ; null_entity_pointer_message
  008bf	52		 push	 edx
  008c0	e8 00 00 00 00	 call	 ?process_assert@@YGXPBD0H@Z ; process_assert
  008c5	c7 45 a0 00 00
	00 00		 mov	 DWORD PTR tv419[ebp], 0
$LN115@validate_l:
  008cc	b8 01 00 00 00	 mov	 eax, 1
  008d1	85 c0		 test	 eax, eax
  008d3	74 09		 je	 SHORT $LN116@validate_l
  008d5	c7 45 9c 34 00
	00 00		 mov	 DWORD PTR tv426[ebp], 52 ; 00000034H
  008dc	eb 1d		 jmp	 SHORT $LN117@validate_l
$LN116@validate_l:
  008de	68 03 03 00 00	 push	 771			; 00000303H
  008e3	68 00 00 00 00	 push	 OFFSET ??_C@_0EB@GJLKGHAC@c?3?2users?2nhv90?2projects?2eech?2ap@
  008e8	8b 0d 00 00 00
	00		 mov	 ecx, DWORD PTR ?overload_invalid_int_type_message@@3PBDB ; overload_invalid_int_type_message
  008ee	51		 push	 ecx
  008ef	e8 00 00 00 00	 call	 ?process_assert@@YGXPBD0H@Z ; process_assert
  008f4	c7 45 9c 00 00
	00 00		 mov	 DWORD PTR tv426[ebp], 0
$LN117@validate_l:
  008fb	6a 34		 push	 52			; 00000034H
  008fd	8b 55 f4	 mov	 edx, DWORD PTR _landing_en$[ebp]
  00900	52		 push	 edx
  00901	69 45 a0 5c 04
	00 00		 imul	 eax, DWORD PTR tv419[ebp], 1116
  00908	8b 4d 9c	 mov	 ecx, DWORD PTR tv426[ebp]
  0090b	8b 94 88 00 00
	00 00		 mov	 edx, DWORD PTR ?fn_get_local_entity_int_value@@3PAY0BBH@P6GHPAUENTITY@@W4INT_TYPES@@@ZA[eax+ecx*4]
  00912	ff d2		 call	 edx
  00914	89 45 98	 mov	 DWORD PTR tv432[ebp], eax
  00917	83 7d 98 05	 cmp	 DWORD PTR tv432[ebp], 5
  0091b	0f 87 d3 09 00
	00		 ja	 $LN10@validate_l
  00921	8b 45 98	 mov	 eax, DWORD PTR tv432[ebp]
  00924	ff 24 85 00 00
	00 00		 jmp	 DWORD PTR $LN213@validate_l[eax*4]
$LN34@validate_l:

; 772  : 			{
; 773  : 
; 774  : 				case ENTITY_SUB_TYPE_LANDING_FIXED_WING:
; 775  : 				{
; 776  : 
; 777  : 					//
; 778  : 					// Navigation waypoints
; 779  : 					//
; 780  : 
; 781  : 					count = 0;

  0092b	c7 45 fc 00 00
	00 00		 mov	 DWORD PTR _count$[ebp], 0

; 782  : 		
; 783  : 					wp = get_local_entity_first_child (route_task, LIST_TYPE_WAYPOINT);

  00932	83 7d 08 00	 cmp	 DWORD PTR _route_task$[ebp], 0
  00936	74 0a		 je	 SHORT $LN118@validate_l
  00938	8b 45 08	 mov	 eax, DWORD PTR _route_task$[ebp]
  0093b	8b 08		 mov	 ecx, DWORD PTR [eax]
  0093d	89 4d a0	 mov	 DWORD PTR tv439[ebp], ecx
  00940	eb 24		 jmp	 SHORT $LN119@validate_l
$LN118@validate_l:
  00942	8b 15 00 00 00
	00		 mov	 edx, DWORD PTR ?__LINE__Var@?0??validate_landing_route@@YGHPAUENTITY@@@Z@4JA
  00948	81 c2 be 00 00
	00		 add	 edx, 190		; 000000beH
  0094e	52		 push	 edx
  0094f	68 00 00 00 00	 push	 OFFSET ??_C@_0EB@GJLKGHAC@c?3?2users?2nhv90?2projects?2eech?2ap@
  00954	a1 00 00 00 00	 mov	 eax, DWORD PTR ?null_entity_pointer_message@@3PBDB ; null_entity_pointer_message
  00959	50		 push	 eax
  0095a	e8 00 00 00 00	 call	 ?process_assert@@YGXPBD0H@Z ; process_assert
  0095f	c7 45 a0 00 00
	00 00		 mov	 DWORD PTR tv439[ebp], 0
$LN119@validate_l:
  00966	b9 01 00 00 00	 mov	 ecx, 1
  0096b	85 c9		 test	 ecx, ecx
  0096d	74 09		 je	 SHORT $LN120@validate_l
  0096f	c7 45 9c 2c 00
	00 00		 mov	 DWORD PTR tv447[ebp], 44 ; 0000002cH
  00976	eb 24		 jmp	 SHORT $LN121@validate_l
$LN120@validate_l:
  00978	8b 15 00 00 00
	00		 mov	 edx, DWORD PTR ?__LINE__Var@?0??validate_landing_route@@YGHPAUENTITY@@@Z@4JA
  0097e	81 c2 be 00 00
	00		 add	 edx, 190		; 000000beH
  00984	52		 push	 edx
  00985	68 00 00 00 00	 push	 OFFSET ??_C@_0EB@GJLKGHAC@c?3?2users?2nhv90?2projects?2eech?2ap@
  0098a	a1 00 00 00 00	 mov	 eax, DWORD PTR ?overload_invalid_list_type_message@@3PBDB ; overload_invalid_list_type_message
  0098f	50		 push	 eax
  00990	e8 00 00 00 00	 call	 ?process_assert@@YGXPBD0H@Z ; process_assert
  00995	c7 45 9c 00 00
	00 00		 mov	 DWORD PTR tv447[ebp], 0
$LN121@validate_l:
  0099c	6a 2c		 push	 44			; 0000002cH
  0099e	8b 4d 08	 mov	 ecx, DWORD PTR _route_task$[ebp]
  009a1	51		 push	 ecx
  009a2	69 55 a0 b4 00
	00 00		 imul	 edx, DWORD PTR tv439[ebp], 180
  009a9	8b 45 9c	 mov	 eax, DWORD PTR tv447[ebp]
  009ac	8b 8c 82 00 00
	00 00		 mov	 ecx, DWORD PTR ?fn_get_local_entity_first_child@@3PAY0CN@P6GPAUENTITY@@PAU1@W4LIST_TYPES@@@ZA[edx+eax*4]
  009b3	ff d1		 call	 ecx
  009b5	89 45 ec	 mov	 DWORD PTR _wp$[ebp], eax

; 784  : 
; 785  : 					if (wp)

  009b8	83 7d ec 00	 cmp	 DWORD PTR _wp$[ebp], 0
  009bc	0f 84 18 04 00
	00		 je	 $LN35@validate_l

; 786  : 					{
; 787  : 			
; 788  : 						route_formation = (formation_types) get_local_entity_int_value (wp, INT_TYPE_WAYPOINT_FORMATION);

  009c2	83 7d ec 00	 cmp	 DWORD PTR _wp$[ebp], 0
  009c6	74 0a		 je	 SHORT $LN122@validate_l
  009c8	8b 45 ec	 mov	 eax, DWORD PTR _wp$[ebp]
  009cb	8b 08		 mov	 ecx, DWORD PTR [eax]
  009cd	89 4d a0	 mov	 DWORD PTR tv460[ebp], ecx
  009d0	eb 24		 jmp	 SHORT $LN123@validate_l
$LN122@validate_l:
  009d2	8b 15 00 00 00
	00		 mov	 edx, DWORD PTR ?__LINE__Var@?0??validate_landing_route@@YGHPAUENTITY@@@Z@4JA
  009d8	81 c2 c3 00 00
	00		 add	 edx, 195		; 000000c3H
  009de	52		 push	 edx
  009df	68 00 00 00 00	 push	 OFFSET ??_C@_0EB@GJLKGHAC@c?3?2users?2nhv90?2projects?2eech?2ap@
  009e4	a1 00 00 00 00	 mov	 eax, DWORD PTR ?null_entity_pointer_message@@3PBDB ; null_entity_pointer_message
  009e9	50		 push	 eax
  009ea	e8 00 00 00 00	 call	 ?process_assert@@YGXPBD0H@Z ; process_assert
  009ef	c7 45 a0 00 00
	00 00		 mov	 DWORD PTR tv460[ebp], 0
$LN123@validate_l:
  009f6	b9 01 00 00 00	 mov	 ecx, 1
  009fb	85 c9		 test	 ecx, ecx
  009fd	74 09		 je	 SHORT $LN124@validate_l
  009ff	c7 45 9c fe 00
	00 00		 mov	 DWORD PTR tv468[ebp], 254 ; 000000feH
  00a06	eb 24		 jmp	 SHORT $LN125@validate_l
$LN124@validate_l:
  00a08	8b 15 00 00 00
	00		 mov	 edx, DWORD PTR ?__LINE__Var@?0??validate_landing_route@@YGHPAUENTITY@@@Z@4JA
  00a0e	81 c2 c3 00 00
	00		 add	 edx, 195		; 000000c3H
  00a14	52		 push	 edx
  00a15	68 00 00 00 00	 push	 OFFSET ??_C@_0EB@GJLKGHAC@c?3?2users?2nhv90?2projects?2eech?2ap@
  00a1a	a1 00 00 00 00	 mov	 eax, DWORD PTR ?overload_invalid_int_type_message@@3PBDB ; overload_invalid_int_type_message
  00a1f	50		 push	 eax
  00a20	e8 00 00 00 00	 call	 ?process_assert@@YGXPBD0H@Z ; process_assert
  00a25	c7 45 9c 00 00
	00 00		 mov	 DWORD PTR tv468[ebp], 0
$LN125@validate_l:
  00a2c	68 fe 00 00 00	 push	 254			; 000000feH
  00a31	8b 4d ec	 mov	 ecx, DWORD PTR _wp$[ebp]
  00a34	51		 push	 ecx
  00a35	69 55 a0 5c 04
	00 00		 imul	 edx, DWORD PTR tv460[ebp], 1116
  00a3c	8b 45 9c	 mov	 eax, DWORD PTR tv468[ebp]
  00a3f	8b 8c 82 00 00
	00 00		 mov	 ecx, DWORD PTR ?fn_get_local_entity_int_value@@3PAY0BBH@P6GHPAUENTITY@@W4INT_TYPES@@@ZA[edx+eax*4]
  00a46	ff d1		 call	 ecx
  00a48	89 45 e8	 mov	 DWORD PTR _route_formation$[ebp], eax

; 789  : 			
; 790  : 						type = get_local_entity_int_value (wp, INT_TYPE_ENTITY_SUB_TYPE);

  00a4b	83 7d ec 00	 cmp	 DWORD PTR _wp$[ebp], 0
  00a4f	74 0a		 je	 SHORT $LN126@validate_l
  00a51	8b 45 ec	 mov	 eax, DWORD PTR _wp$[ebp]
  00a54	8b 08		 mov	 ecx, DWORD PTR [eax]
  00a56	89 4d a0	 mov	 DWORD PTR tv480[ebp], ecx
  00a59	eb 24		 jmp	 SHORT $LN127@validate_l
$LN126@validate_l:
  00a5b	8b 15 00 00 00
	00		 mov	 edx, DWORD PTR ?__LINE__Var@?0??validate_landing_route@@YGHPAUENTITY@@@Z@4JA
  00a61	81 c2 c5 00 00
	00		 add	 edx, 197		; 000000c5H
  00a67	52		 push	 edx
  00a68	68 00 00 00 00	 push	 OFFSET ??_C@_0EB@GJLKGHAC@c?3?2users?2nhv90?2projects?2eech?2ap@
  00a6d	a1 00 00 00 00	 mov	 eax, DWORD PTR ?null_entity_pointer_message@@3PBDB ; null_entity_pointer_message
  00a72	50		 push	 eax
  00a73	e8 00 00 00 00	 call	 ?process_assert@@YGXPBD0H@Z ; process_assert
  00a78	c7 45 a0 00 00
	00 00		 mov	 DWORD PTR tv480[ebp], 0
$LN127@validate_l:
  00a7f	b9 01 00 00 00	 mov	 ecx, 1
  00a84	85 c9		 test	 ecx, ecx
  00a86	74 09		 je	 SHORT $LN128@validate_l
  00a88	c7 45 9c 34 00
	00 00		 mov	 DWORD PTR tv488[ebp], 52 ; 00000034H
  00a8f	eb 24		 jmp	 SHORT $LN129@validate_l
$LN128@validate_l:
  00a91	8b 15 00 00 00
	00		 mov	 edx, DWORD PTR ?__LINE__Var@?0??validate_landing_route@@YGHPAUENTITY@@@Z@4JA
  00a97	81 c2 c5 00 00
	00		 add	 edx, 197		; 000000c5H
  00a9d	52		 push	 edx
  00a9e	68 00 00 00 00	 push	 OFFSET ??_C@_0EB@GJLKGHAC@c?3?2users?2nhv90?2projects?2eech?2ap@
  00aa3	a1 00 00 00 00	 mov	 eax, DWORD PTR ?overload_invalid_int_type_message@@3PBDB ; overload_invalid_int_type_message
  00aa8	50		 push	 eax
  00aa9	e8 00 00 00 00	 call	 ?process_assert@@YGXPBD0H@Z ; process_assert
  00aae	c7 45 9c 00 00
	00 00		 mov	 DWORD PTR tv488[ebp], 0
$LN129@validate_l:
  00ab5	6a 34		 push	 52			; 00000034H
  00ab7	8b 4d ec	 mov	 ecx, DWORD PTR _wp$[ebp]
  00aba	51		 push	 ecx
  00abb	69 55 a0 5c 04
	00 00		 imul	 edx, DWORD PTR tv480[ebp], 1116
  00ac2	8b 45 9c	 mov	 eax, DWORD PTR tv488[ebp]
  00ac5	8b 8c 82 00 00
	00 00		 mov	 ecx, DWORD PTR ?fn_get_local_entity_int_value@@3PAY0BBH@P6GHPAUENTITY@@W4INT_TYPES@@@ZA[edx+eax*4]
  00acc	ff d1		 call	 ecx
  00ace	89 45 f8	 mov	 DWORD PTR _type$[ebp], eax
$LN12@validate_l:

; 791  : 			
; 792  : 						while (type != ENTITY_SUB_TYPE_WAYPOINT_TAKEN_OFF)

  00ad1	83 7d f8 1a	 cmp	 DWORD PTR _type$[ebp], 26 ; 0000001aH
  00ad5	0f 84 c8 01 00
	00		 je	 $LN13@validate_l

; 793  : 						{
; 794  : 			
; 795  : 							wp_formation = (formation_types)get_local_entity_int_value (wp, INT_TYPE_WAYPOINT_FORMATION);

  00adb	83 7d ec 00	 cmp	 DWORD PTR _wp$[ebp], 0
  00adf	74 0a		 je	 SHORT $LN130@validate_l
  00ae1	8b 45 ec	 mov	 eax, DWORD PTR _wp$[ebp]
  00ae4	8b 08		 mov	 ecx, DWORD PTR [eax]
  00ae6	89 4d a0	 mov	 DWORD PTR tv501[ebp], ecx
  00ae9	eb 24		 jmp	 SHORT $LN131@validate_l
$LN130@validate_l:
  00aeb	8b 15 00 00 00
	00		 mov	 edx, DWORD PTR ?__LINE__Var@?0??validate_landing_route@@YGHPAUENTITY@@@Z@4JA
  00af1	81 c2 ca 00 00
	00		 add	 edx, 202		; 000000caH
  00af7	52		 push	 edx
  00af8	68 00 00 00 00	 push	 OFFSET ??_C@_0EB@GJLKGHAC@c?3?2users?2nhv90?2projects?2eech?2ap@
  00afd	a1 00 00 00 00	 mov	 eax, DWORD PTR ?null_entity_pointer_message@@3PBDB ; null_entity_pointer_message
  00b02	50		 push	 eax
  00b03	e8 00 00 00 00	 call	 ?process_assert@@YGXPBD0H@Z ; process_assert
  00b08	c7 45 a0 00 00
	00 00		 mov	 DWORD PTR tv501[ebp], 0
$LN131@validate_l:
  00b0f	b9 01 00 00 00	 mov	 ecx, 1
  00b14	85 c9		 test	 ecx, ecx
  00b16	74 09		 je	 SHORT $LN132@validate_l
  00b18	c7 45 9c fe 00
	00 00		 mov	 DWORD PTR tv509[ebp], 254 ; 000000feH
  00b1f	eb 24		 jmp	 SHORT $LN133@validate_l
$LN132@validate_l:
  00b21	8b 15 00 00 00
	00		 mov	 edx, DWORD PTR ?__LINE__Var@?0??validate_landing_route@@YGHPAUENTITY@@@Z@4JA
  00b27	81 c2 ca 00 00
	00		 add	 edx, 202		; 000000caH
  00b2d	52		 push	 edx
  00b2e	68 00 00 00 00	 push	 OFFSET ??_C@_0EB@GJLKGHAC@c?3?2users?2nhv90?2projects?2eech?2ap@
  00b33	a1 00 00 00 00	 mov	 eax, DWORD PTR ?overload_invalid_int_type_message@@3PBDB ; overload_invalid_int_type_message
  00b38	50		 push	 eax
  00b39	e8 00 00 00 00	 call	 ?process_assert@@YGXPBD0H@Z ; process_assert
  00b3e	c7 45 9c 00 00
	00 00		 mov	 DWORD PTR tv509[ebp], 0
$LN133@validate_l:
  00b45	68 fe 00 00 00	 push	 254			; 000000feH
  00b4a	8b 4d ec	 mov	 ecx, DWORD PTR _wp$[ebp]
  00b4d	51		 push	 ecx
  00b4e	69 55 a0 5c 04
	00 00		 imul	 edx, DWORD PTR tv501[ebp], 1116
  00b55	8b 45 9c	 mov	 eax, DWORD PTR tv509[ebp]
  00b58	8b 8c 82 00 00
	00 00		 mov	 ecx, DWORD PTR ?fn_get_local_entity_int_value@@3PAY0BBH@P6GHPAUENTITY@@W4INT_TYPES@@@ZA[edx+eax*4]
  00b5f	ff d1		 call	 ecx
  00b61	89 45 e4	 mov	 DWORD PTR _wp_formation$[ebp], eax

; 796  : 		/*
; 797  : 							if (route_formation != wp_formation)
; 798  : 							{
; 799  : 			
; 800  : 								debug_fatal ("WARNING. Route parser failed on takeoff formation, route %s, wp %s",
; 801  : 												get_formation_name (route_formation), get_formation_name (wp_formation));
; 802  : 							}
; 803  : 		*/
; 804  : 							if ((type != ENTITY_SUB_TYPE_WAYPOINT_NAVIGATION) &&
; 805  : 								(type != ENTITY_SUB_TYPE_WAYPOINT_LIFT_OFF) &&

  00b64	83 7d f8 11	 cmp	 DWORD PTR _type$[ebp], 17 ; 00000011H
  00b68	74 19		 je	 SHORT $LN37@validate_l
  00b6a	83 7d f8 0f	 cmp	 DWORD PTR _type$[ebp], 15 ; 0000000fH
  00b6e	74 13		 je	 SHORT $LN37@validate_l
  00b70	83 7d f8 18	 cmp	 DWORD PTR _type$[ebp], 24 ; 00000018H
  00b74	74 0d		 je	 SHORT $LN37@validate_l

; 806  : 								(type != ENTITY_SUB_TYPE_WAYPOINT_START_UP))
; 807  : 							{
; 808  : 			
; 809  : 								debug_fatal ("WARNING. Route parser failed on takeoff route. Non nav / lift off / startup waypoint in route");

  00b76	68 00 00 00 00	 push	 OFFSET ??_C@_0FO@CPLOBHFC@WARNING?4?5Route?5parser?5failed?5on@
  00b7b	e8 00 00 00 00	 call	 ?debug_fatal@@YAXPBDZZ	; debug_fatal
  00b80	83 c4 04	 add	 esp, 4
$LN37@validate_l:

; 810  : 							}
; 811  : 	
; 812  : 							if (type == ENTITY_SUB_TYPE_WAYPOINT_LIFT_OFF)

  00b83	83 7d f8 0f	 cmp	 DWORD PTR _type$[ebp], 15 ; 0000000fH
  00b87	75 09		 jne	 SHORT $LN38@validate_l

; 813  : 							{
; 814  : 	
; 815  : 								count ++;

  00b89	8b 45 fc	 mov	 eax, DWORD PTR _count$[ebp]
  00b8c	83 c0 01	 add	 eax, 1
  00b8f	89 45 fc	 mov	 DWORD PTR _count$[ebp], eax
$LN38@validate_l:

; 816  : 							}
; 817  : 			
; 818  : 							wp = get_local_entity_child_succ (wp, LIST_TYPE_WAYPOINT);

  00b92	83 7d ec 00	 cmp	 DWORD PTR _wp$[ebp], 0
  00b96	74 0a		 je	 SHORT $LN134@validate_l
  00b98	8b 45 ec	 mov	 eax, DWORD PTR _wp$[ebp]
  00b9b	8b 08		 mov	 ecx, DWORD PTR [eax]
  00b9d	89 4d a0	 mov	 DWORD PTR tv527[ebp], ecx
  00ba0	eb 24		 jmp	 SHORT $LN135@validate_l
$LN134@validate_l:
  00ba2	8b 15 00 00 00
	00		 mov	 edx, DWORD PTR ?__LINE__Var@?0??validate_landing_route@@YGHPAUENTITY@@@Z@4JA
  00ba8	81 c2 e1 00 00
	00		 add	 edx, 225		; 000000e1H
  00bae	52		 push	 edx
  00baf	68 00 00 00 00	 push	 OFFSET ??_C@_0EB@GJLKGHAC@c?3?2users?2nhv90?2projects?2eech?2ap@
  00bb4	a1 00 00 00 00	 mov	 eax, DWORD PTR ?null_entity_pointer_message@@3PBDB ; null_entity_pointer_message
  00bb9	50		 push	 eax
  00bba	e8 00 00 00 00	 call	 ?process_assert@@YGXPBD0H@Z ; process_assert
  00bbf	c7 45 a0 00 00
	00 00		 mov	 DWORD PTR tv527[ebp], 0
$LN135@validate_l:
  00bc6	b9 01 00 00 00	 mov	 ecx, 1
  00bcb	85 c9		 test	 ecx, ecx
  00bcd	74 09		 je	 SHORT $LN136@validate_l
  00bcf	c7 45 9c 2c 00
	00 00		 mov	 DWORD PTR tv535[ebp], 44 ; 0000002cH
  00bd6	eb 24		 jmp	 SHORT $LN137@validate_l
$LN136@validate_l:
  00bd8	8b 15 00 00 00
	00		 mov	 edx, DWORD PTR ?__LINE__Var@?0??validate_landing_route@@YGHPAUENTITY@@@Z@4JA
  00bde	81 c2 e1 00 00
	00		 add	 edx, 225		; 000000e1H
  00be4	52		 push	 edx
  00be5	68 00 00 00 00	 push	 OFFSET ??_C@_0EB@GJLKGHAC@c?3?2users?2nhv90?2projects?2eech?2ap@
  00bea	a1 00 00 00 00	 mov	 eax, DWORD PTR ?overload_invalid_list_type_message@@3PBDB ; overload_invalid_list_type_message
  00bef	50		 push	 eax
  00bf0	e8 00 00 00 00	 call	 ?process_assert@@YGXPBD0H@Z ; process_assert
  00bf5	c7 45 9c 00 00
	00 00		 mov	 DWORD PTR tv535[ebp], 0
$LN137@validate_l:
  00bfc	6a 2c		 push	 44			; 0000002cH
  00bfe	8b 4d ec	 mov	 ecx, DWORD PTR _wp$[ebp]
  00c01	51		 push	 ecx
  00c02	69 55 a0 b4 00
	00 00		 imul	 edx, DWORD PTR tv527[ebp], 180
  00c09	8b 45 9c	 mov	 eax, DWORD PTR tv535[ebp]
  00c0c	8b 8c 82 00 00
	00 00		 mov	 ecx, DWORD PTR ?fn_get_local_entity_child_succ@@3PAY0CN@P6GPAUENTITY@@PAU1@W4LIST_TYPES@@@ZA[edx+eax*4]
  00c13	ff d1		 call	 ecx
  00c15	89 45 ec	 mov	 DWORD PTR _wp$[ebp], eax

; 819  : 			
; 820  : 							type = get_local_entity_int_value (wp, INT_TYPE_ENTITY_SUB_TYPE);

  00c18	83 7d ec 00	 cmp	 DWORD PTR _wp$[ebp], 0
  00c1c	74 0a		 je	 SHORT $LN138@validate_l
  00c1e	8b 45 ec	 mov	 eax, DWORD PTR _wp$[ebp]
  00c21	8b 08		 mov	 ecx, DWORD PTR [eax]
  00c23	89 4d a0	 mov	 DWORD PTR tv547[ebp], ecx
  00c26	eb 24		 jmp	 SHORT $LN139@validate_l
$LN138@validate_l:
  00c28	8b 15 00 00 00
	00		 mov	 edx, DWORD PTR ?__LINE__Var@?0??validate_landing_route@@YGHPAUENTITY@@@Z@4JA
  00c2e	81 c2 e3 00 00
	00		 add	 edx, 227		; 000000e3H
  00c34	52		 push	 edx
  00c35	68 00 00 00 00	 push	 OFFSET ??_C@_0EB@GJLKGHAC@c?3?2users?2nhv90?2projects?2eech?2ap@
  00c3a	a1 00 00 00 00	 mov	 eax, DWORD PTR ?null_entity_pointer_message@@3PBDB ; null_entity_pointer_message
  00c3f	50		 push	 eax
  00c40	e8 00 00 00 00	 call	 ?process_assert@@YGXPBD0H@Z ; process_assert
  00c45	c7 45 a0 00 00
	00 00		 mov	 DWORD PTR tv547[ebp], 0
$LN139@validate_l:
  00c4c	b9 01 00 00 00	 mov	 ecx, 1
  00c51	85 c9		 test	 ecx, ecx
  00c53	74 09		 je	 SHORT $LN140@validate_l
  00c55	c7 45 9c 34 00
	00 00		 mov	 DWORD PTR tv555[ebp], 52 ; 00000034H
  00c5c	eb 24		 jmp	 SHORT $LN141@validate_l
$LN140@validate_l:
  00c5e	8b 15 00 00 00
	00		 mov	 edx, DWORD PTR ?__LINE__Var@?0??validate_landing_route@@YGHPAUENTITY@@@Z@4JA
  00c64	81 c2 e3 00 00
	00		 add	 edx, 227		; 000000e3H
  00c6a	52		 push	 edx
  00c6b	68 00 00 00 00	 push	 OFFSET ??_C@_0EB@GJLKGHAC@c?3?2users?2nhv90?2projects?2eech?2ap@
  00c70	a1 00 00 00 00	 mov	 eax, DWORD PTR ?overload_invalid_int_type_message@@3PBDB ; overload_invalid_int_type_message
  00c75	50		 push	 eax
  00c76	e8 00 00 00 00	 call	 ?process_assert@@YGXPBD0H@Z ; process_assert
  00c7b	c7 45 9c 00 00
	00 00		 mov	 DWORD PTR tv555[ebp], 0
$LN141@validate_l:
  00c82	6a 34		 push	 52			; 00000034H
  00c84	8b 4d ec	 mov	 ecx, DWORD PTR _wp$[ebp]
  00c87	51		 push	 ecx
  00c88	69 55 a0 5c 04
	00 00		 imul	 edx, DWORD PTR tv547[ebp], 1116
  00c8f	8b 45 9c	 mov	 eax, DWORD PTR tv555[ebp]
  00c92	8b 8c 82 00 00
	00 00		 mov	 ecx, DWORD PTR ?fn_get_local_entity_int_value@@3PAY0BBH@P6GHPAUENTITY@@W4INT_TYPES@@@ZA[edx+eax*4]
  00c99	ff d1		 call	 ecx
  00c9b	89 45 f8	 mov	 DWORD PTR _type$[ebp], eax

; 821  : 						}

  00c9e	e9 2e fe ff ff	 jmp	 $LN12@validate_l
$LN13@validate_l:

; 822  : 	
; 823  : 						if (count != 1)

  00ca3	83 7d fc 01	 cmp	 DWORD PTR _count$[ebp], 1
  00ca7	74 0d		 je	 SHORT $LN39@validate_l

; 824  : 						{
; 825  : 	
; 826  : 							debug_fatal ("WARNING. Route parser failed on takeoff route. Incorrect number of Lift off waypoints");

  00ca9	68 00 00 00 00	 push	 OFFSET ??_C@_0FG@HOLPAGE@WARNING?4?5Route?5parser?5failed?5on@
  00cae	e8 00 00 00 00	 call	 ?debug_fatal@@YAXPBDZZ	; debug_fatal
  00cb3	83 c4 04	 add	 esp, 4
$LN39@validate_l:

; 827  : 						}
; 828  : 	
; 829  : 						//
; 830  : 						// taken off waypoint
; 831  : 						//
; 832  : 			
; 833  : 						wp_formation = (formation_types)get_local_entity_int_value (wp, INT_TYPE_WAYPOINT_FORMATION);

  00cb6	83 7d ec 00	 cmp	 DWORD PTR _wp$[ebp], 0
  00cba	74 0a		 je	 SHORT $LN142@validate_l
  00cbc	8b 45 ec	 mov	 eax, DWORD PTR _wp$[ebp]
  00cbf	8b 08		 mov	 ecx, DWORD PTR [eax]
  00cc1	89 4d a0	 mov	 DWORD PTR tv569[ebp], ecx
  00cc4	eb 24		 jmp	 SHORT $LN143@validate_l
$LN142@validate_l:
  00cc6	8b 15 00 00 00
	00		 mov	 edx, DWORD PTR ?__LINE__Var@?0??validate_landing_route@@YGHPAUENTITY@@@Z@4JA
  00ccc	81 c2 f0 00 00
	00		 add	 edx, 240		; 000000f0H
  00cd2	52		 push	 edx
  00cd3	68 00 00 00 00	 push	 OFFSET ??_C@_0EB@GJLKGHAC@c?3?2users?2nhv90?2projects?2eech?2ap@
  00cd8	a1 00 00 00 00	 mov	 eax, DWORD PTR ?null_entity_pointer_message@@3PBDB ; null_entity_pointer_message
  00cdd	50		 push	 eax
  00cde	e8 00 00 00 00	 call	 ?process_assert@@YGXPBD0H@Z ; process_assert
  00ce3	c7 45 a0 00 00
	00 00		 mov	 DWORD PTR tv569[ebp], 0
$LN143@validate_l:
  00cea	b9 01 00 00 00	 mov	 ecx, 1
  00cef	85 c9		 test	 ecx, ecx
  00cf1	74 09		 je	 SHORT $LN144@validate_l
  00cf3	c7 45 9c fe 00
	00 00		 mov	 DWORD PTR tv577[ebp], 254 ; 000000feH
  00cfa	eb 24		 jmp	 SHORT $LN145@validate_l
$LN144@validate_l:
  00cfc	8b 15 00 00 00
	00		 mov	 edx, DWORD PTR ?__LINE__Var@?0??validate_landing_route@@YGHPAUENTITY@@@Z@4JA
  00d02	81 c2 f0 00 00
	00		 add	 edx, 240		; 000000f0H
  00d08	52		 push	 edx
  00d09	68 00 00 00 00	 push	 OFFSET ??_C@_0EB@GJLKGHAC@c?3?2users?2nhv90?2projects?2eech?2ap@
  00d0e	a1 00 00 00 00	 mov	 eax, DWORD PTR ?overload_invalid_int_type_message@@3PBDB ; overload_invalid_int_type_message
  00d13	50		 push	 eax
  00d14	e8 00 00 00 00	 call	 ?process_assert@@YGXPBD0H@Z ; process_assert
  00d19	c7 45 9c 00 00
	00 00		 mov	 DWORD PTR tv577[ebp], 0
$LN145@validate_l:
  00d20	68 fe 00 00 00	 push	 254			; 000000feH
  00d25	8b 4d ec	 mov	 ecx, DWORD PTR _wp$[ebp]
  00d28	51		 push	 ecx
  00d29	69 55 a0 5c 04
	00 00		 imul	 edx, DWORD PTR tv569[ebp], 1116
  00d30	8b 45 9c	 mov	 eax, DWORD PTR tv577[ebp]
  00d33	8b 8c 82 00 00
	00 00		 mov	 ecx, DWORD PTR ?fn_get_local_entity_int_value@@3PAY0BBH@P6GHPAUENTITY@@W4INT_TYPES@@@ZA[edx+eax*4]
  00d3a	ff d1		 call	 ecx
  00d3c	89 45 e4	 mov	 DWORD PTR _wp_formation$[ebp], eax

; 834  : 		/*
; 835  : 						if (route_formation != wp_formation)
; 836  : 						{
; 837  : 			
; 838  : 							debug_fatal ("WARNING. Route parser failed on takeoff formation, route %s, wp %s",
; 839  : 											get_formation_name (route_formation), get_formation_name (wp_formation));
; 840  : 						}
; 841  : 		*/
; 842  : 						if (type != ENTITY_SUB_TYPE_WAYPOINT_TAKEN_OFF)

  00d3f	83 7d f8 1a	 cmp	 DWORD PTR _type$[ebp], 26 ; 0000001aH
  00d43	74 0d		 je	 SHORT $LN40@validate_l

; 843  : 						{
; 844  : 			
; 845  : 							debug_fatal ("WARNING. Route parser failed on takeoff route. Taken off waypoint not in correct place");

  00d45	68 00 00 00 00	 push	 OFFSET ??_C@_0FH@KGBMMDPB@WARNING?4?5Route?5parser?5failed?5on@
  00d4a	e8 00 00 00 00	 call	 ?debug_fatal@@YAXPBDZZ	; debug_fatal
  00d4f	83 c4 04	 add	 esp, 4
$LN40@validate_l:

; 846  : 						}
; 847  : 	
; 848  : 						//
; 849  : 						// Extras
; 850  : 						//
; 851  : 			
; 852  : 						if (get_local_entity_child_succ (wp, LIST_TYPE_WAYPOINT))

  00d52	83 7d ec 00	 cmp	 DWORD PTR _wp$[ebp], 0
  00d56	74 0a		 je	 SHORT $LN146@validate_l
  00d58	8b 45 ec	 mov	 eax, DWORD PTR _wp$[ebp]
  00d5b	8b 08		 mov	 ecx, DWORD PTR [eax]
  00d5d	89 4d a0	 mov	 DWORD PTR tv590[ebp], ecx
  00d60	eb 1d		 jmp	 SHORT $LN147@validate_l
$LN146@validate_l:
  00d62	68 54 03 00 00	 push	 852			; 00000354H
  00d67	68 00 00 00 00	 push	 OFFSET ??_C@_0EB@GJLKGHAC@c?3?2users?2nhv90?2projects?2eech?2ap@
  00d6c	8b 15 00 00 00
	00		 mov	 edx, DWORD PTR ?null_entity_pointer_message@@3PBDB ; null_entity_pointer_message
  00d72	52		 push	 edx
  00d73	e8 00 00 00 00	 call	 ?process_assert@@YGXPBD0H@Z ; process_assert
  00d78	c7 45 a0 00 00
	00 00		 mov	 DWORD PTR tv590[ebp], 0
$LN147@validate_l:
  00d7f	b8 01 00 00 00	 mov	 eax, 1
  00d84	85 c0		 test	 eax, eax
  00d86	74 09		 je	 SHORT $LN148@validate_l
  00d88	c7 45 9c 2c 00
	00 00		 mov	 DWORD PTR tv597[ebp], 44 ; 0000002cH
  00d8f	eb 1d		 jmp	 SHORT $LN149@validate_l
$LN148@validate_l:
  00d91	68 54 03 00 00	 push	 852			; 00000354H
  00d96	68 00 00 00 00	 push	 OFFSET ??_C@_0EB@GJLKGHAC@c?3?2users?2nhv90?2projects?2eech?2ap@
  00d9b	8b 0d 00 00 00
	00		 mov	 ecx, DWORD PTR ?overload_invalid_list_type_message@@3PBDB ; overload_invalid_list_type_message
  00da1	51		 push	 ecx
  00da2	e8 00 00 00 00	 call	 ?process_assert@@YGXPBD0H@Z ; process_assert
  00da7	c7 45 9c 00 00
	00 00		 mov	 DWORD PTR tv597[ebp], 0
$LN149@validate_l:
  00dae	6a 2c		 push	 44			; 0000002cH
  00db0	8b 55 ec	 mov	 edx, DWORD PTR _wp$[ebp]
  00db3	52		 push	 edx
  00db4	69 45 a0 b4 00
	00 00		 imul	 eax, DWORD PTR tv590[ebp], 180
  00dbb	8b 4d 9c	 mov	 ecx, DWORD PTR tv597[ebp]
  00dbe	8b 94 88 00 00
	00 00		 mov	 edx, DWORD PTR ?fn_get_local_entity_child_succ@@3PAY0CN@P6GPAUENTITY@@PAU1@W4LIST_TYPES@@@ZA[eax+ecx*4]
  00dc5	ff d2		 call	 edx
  00dc7	85 c0		 test	 eax, eax
  00dc9	74 0d		 je	 SHORT $LN41@validate_l

; 853  : 						{
; 854  : 			
; 855  : 							debug_fatal ("WARNING. Route parser failed on landing route. Waypoint present after Take off waypoint");

  00dcb	68 00 00 00 00	 push	 OFFSET ??_C@_0FI@OMPACAJC@WARNING?4?5Route?5parser?5failed?5on@
  00dd0	e8 00 00 00 00	 call	 ?debug_fatal@@YAXPBDZZ	; debug_fatal
  00dd5	83 c4 04	 add	 esp, 4
$LN41@validate_l:

; 856  : 						}
; 857  : 					}
; 858  : 					else

  00dd8	eb 0d		 jmp	 SHORT $LN36@validate_l
$LN35@validate_l:

; 859  : 					{
; 860  : 
; 861  : 						debug_log ("WARNING. Route parser. No Waypoint present in Takeoff route");

  00dda	68 00 00 00 00	 push	 OFFSET ??_C@_0DM@LOGPNHKO@WARNING?4?5Route?5parser?4?5No?5Waypo@
  00ddf	e8 00 00 00 00	 call	 ?debug_log@@YAXPBDZZ	; debug_log
  00de4	83 c4 04	 add	 esp, 4
$LN36@validate_l:

; 862  : 					}
; 863  : 
; 864  : 					break;

  00de7	e9 08 05 00 00	 jmp	 $LN10@validate_l
$LN42@validate_l:

; 865  : 				}
; 866  : 
; 867  : 				case ENTITY_SUB_TYPE_LANDING_HELICOPTER:
; 868  : 				case ENTITY_SUB_TYPE_LANDING_GROUND:
; 869  : 				case ENTITY_SUB_TYPE_LANDING_SEA:
; 870  : 				{
; 871  : 
; 872  : 					//
; 873  : 					// Navigation waypoints
; 874  : 					//
; 875  : 		
; 876  : 					wp = get_local_entity_first_child (route_task, LIST_TYPE_WAYPOINT);

  00dec	83 7d 08 00	 cmp	 DWORD PTR _route_task$[ebp], 0
  00df0	74 0a		 je	 SHORT $LN150@validate_l
  00df2	8b 45 08	 mov	 eax, DWORD PTR _route_task$[ebp]
  00df5	8b 08		 mov	 ecx, DWORD PTR [eax]
  00df7	89 4d a0	 mov	 DWORD PTR tv612[ebp], ecx
  00dfa	eb 24		 jmp	 SHORT $LN151@validate_l
$LN150@validate_l:
  00dfc	8b 15 00 00 00
	00		 mov	 edx, DWORD PTR ?__LINE__Var@?0??validate_landing_route@@YGHPAUENTITY@@@Z@4JA
  00e02	81 c2 1b 01 00
	00		 add	 edx, 283		; 0000011bH
  00e08	52		 push	 edx
  00e09	68 00 00 00 00	 push	 OFFSET ??_C@_0EB@GJLKGHAC@c?3?2users?2nhv90?2projects?2eech?2ap@
  00e0e	a1 00 00 00 00	 mov	 eax, DWORD PTR ?null_entity_pointer_message@@3PBDB ; null_entity_pointer_message
  00e13	50		 push	 eax
  00e14	e8 00 00 00 00	 call	 ?process_assert@@YGXPBD0H@Z ; process_assert
  00e19	c7 45 a0 00 00
	00 00		 mov	 DWORD PTR tv612[ebp], 0
$LN151@validate_l:
  00e20	b9 01 00 00 00	 mov	 ecx, 1
  00e25	85 c9		 test	 ecx, ecx
  00e27	74 09		 je	 SHORT $LN152@validate_l
  00e29	c7 45 9c 2c 00
	00 00		 mov	 DWORD PTR tv620[ebp], 44 ; 0000002cH
  00e30	eb 24		 jmp	 SHORT $LN153@validate_l
$LN152@validate_l:
  00e32	8b 15 00 00 00
	00		 mov	 edx, DWORD PTR ?__LINE__Var@?0??validate_landing_route@@YGHPAUENTITY@@@Z@4JA
  00e38	81 c2 1b 01 00
	00		 add	 edx, 283		; 0000011bH
  00e3e	52		 push	 edx
  00e3f	68 00 00 00 00	 push	 OFFSET ??_C@_0EB@GJLKGHAC@c?3?2users?2nhv90?2projects?2eech?2ap@
  00e44	a1 00 00 00 00	 mov	 eax, DWORD PTR ?overload_invalid_list_type_message@@3PBDB ; overload_invalid_list_type_message
  00e49	50		 push	 eax
  00e4a	e8 00 00 00 00	 call	 ?process_assert@@YGXPBD0H@Z ; process_assert
  00e4f	c7 45 9c 00 00
	00 00		 mov	 DWORD PTR tv620[ebp], 0
$LN153@validate_l:
  00e56	6a 2c		 push	 44			; 0000002cH
  00e58	8b 4d 08	 mov	 ecx, DWORD PTR _route_task$[ebp]
  00e5b	51		 push	 ecx
  00e5c	69 55 a0 b4 00
	00 00		 imul	 edx, DWORD PTR tv612[ebp], 180
  00e63	8b 45 9c	 mov	 eax, DWORD PTR tv620[ebp]
  00e66	8b 8c 82 00 00
	00 00		 mov	 ecx, DWORD PTR ?fn_get_local_entity_first_child@@3PAY0CN@P6GPAUENTITY@@PAU1@W4LIST_TYPES@@@ZA[edx+eax*4]
  00e6d	ff d1		 call	 ecx
  00e6f	89 45 ec	 mov	 DWORD PTR _wp$[ebp], eax

; 877  : 
; 878  : 					if (wp)

  00e72	83 7d ec 00	 cmp	 DWORD PTR _wp$[ebp], 0
  00e76	0f 84 6b 04 00
	00		 je	 $LN43@validate_l

; 879  : 					{
; 880  : 			
; 881  : 						route_formation = (formation_types)get_local_entity_int_value (wp, INT_TYPE_WAYPOINT_FORMATION);

  00e7c	83 7d ec 00	 cmp	 DWORD PTR _wp$[ebp], 0
  00e80	74 0a		 je	 SHORT $LN154@validate_l
  00e82	8b 45 ec	 mov	 eax, DWORD PTR _wp$[ebp]
  00e85	8b 08		 mov	 ecx, DWORD PTR [eax]
  00e87	89 4d a0	 mov	 DWORD PTR tv633[ebp], ecx
  00e8a	eb 24		 jmp	 SHORT $LN155@validate_l
$LN154@validate_l:
  00e8c	8b 15 00 00 00
	00		 mov	 edx, DWORD PTR ?__LINE__Var@?0??validate_landing_route@@YGHPAUENTITY@@@Z@4JA
  00e92	81 c2 20 01 00
	00		 add	 edx, 288		; 00000120H
  00e98	52		 push	 edx
  00e99	68 00 00 00 00	 push	 OFFSET ??_C@_0EB@GJLKGHAC@c?3?2users?2nhv90?2projects?2eech?2ap@
  00e9e	a1 00 00 00 00	 mov	 eax, DWORD PTR ?null_entity_pointer_message@@3PBDB ; null_entity_pointer_message
  00ea3	50		 push	 eax
  00ea4	e8 00 00 00 00	 call	 ?process_assert@@YGXPBD0H@Z ; process_assert
  00ea9	c7 45 a0 00 00
	00 00		 mov	 DWORD PTR tv633[ebp], 0
$LN155@validate_l:
  00eb0	b9 01 00 00 00	 mov	 ecx, 1
  00eb5	85 c9		 test	 ecx, ecx
  00eb7	74 09		 je	 SHORT $LN156@validate_l
  00eb9	c7 45 9c fe 00
	00 00		 mov	 DWORD PTR tv641[ebp], 254 ; 000000feH
  00ec0	eb 24		 jmp	 SHORT $LN157@validate_l
$LN156@validate_l:
  00ec2	8b 15 00 00 00
	00		 mov	 edx, DWORD PTR ?__LINE__Var@?0??validate_landing_route@@YGHPAUENTITY@@@Z@4JA
  00ec8	81 c2 20 01 00
	00		 add	 edx, 288		; 00000120H
  00ece	52		 push	 edx
  00ecf	68 00 00 00 00	 push	 OFFSET ??_C@_0EB@GJLKGHAC@c?3?2users?2nhv90?2projects?2eech?2ap@
  00ed4	a1 00 00 00 00	 mov	 eax, DWORD PTR ?overload_invalid_int_type_message@@3PBDB ; overload_invalid_int_type_message
  00ed9	50		 push	 eax
  00eda	e8 00 00 00 00	 call	 ?process_assert@@YGXPBD0H@Z ; process_assert
  00edf	c7 45 9c 00 00
	00 00		 mov	 DWORD PTR tv641[ebp], 0
$LN157@validate_l:
  00ee6	68 fe 00 00 00	 push	 254			; 000000feH
  00eeb	8b 4d ec	 mov	 ecx, DWORD PTR _wp$[ebp]
  00eee	51		 push	 ecx
  00eef	69 55 a0 5c 04
	00 00		 imul	 edx, DWORD PTR tv633[ebp], 1116
  00ef6	8b 45 9c	 mov	 eax, DWORD PTR tv641[ebp]
  00ef9	8b 8c 82 00 00
	00 00		 mov	 ecx, DWORD PTR ?fn_get_local_entity_int_value@@3PAY0BBH@P6GHPAUENTITY@@W4INT_TYPES@@@ZA[edx+eax*4]
  00f00	ff d1		 call	 ecx
  00f02	89 45 e8	 mov	 DWORD PTR _route_formation$[ebp], eax
$LN14@validate_l:

; 882  : 			
; 883  : 						while (get_local_entity_child_succ (wp, LIST_TYPE_WAYPOINT))

  00f05	83 7d ec 00	 cmp	 DWORD PTR _wp$[ebp], 0
  00f09	74 0a		 je	 SHORT $LN158@validate_l
  00f0b	8b 45 ec	 mov	 eax, DWORD PTR _wp$[ebp]
  00f0e	8b 08		 mov	 ecx, DWORD PTR [eax]
  00f10	89 4d a0	 mov	 DWORD PTR tv653[ebp], ecx
  00f13	eb 24		 jmp	 SHORT $LN159@validate_l
$LN158@validate_l:
  00f15	8b 15 00 00 00
	00		 mov	 edx, DWORD PTR ?__LINE__Var@?0??validate_landing_route@@YGHPAUENTITY@@@Z@4JA
  00f1b	81 c2 22 01 00
	00		 add	 edx, 290		; 00000122H
  00f21	52		 push	 edx
  00f22	68 00 00 00 00	 push	 OFFSET ??_C@_0EB@GJLKGHAC@c?3?2users?2nhv90?2projects?2eech?2ap@
  00f27	a1 00 00 00 00	 mov	 eax, DWORD PTR ?null_entity_pointer_message@@3PBDB ; null_entity_pointer_message
  00f2c	50		 push	 eax
  00f2d	e8 00 00 00 00	 call	 ?process_assert@@YGXPBD0H@Z ; process_assert
  00f32	c7 45 a0 00 00
	00 00		 mov	 DWORD PTR tv653[ebp], 0
$LN159@validate_l:
  00f39	b9 01 00 00 00	 mov	 ecx, 1
  00f3e	85 c9		 test	 ecx, ecx
  00f40	74 09		 je	 SHORT $LN160@validate_l
  00f42	c7 45 9c 2c 00
	00 00		 mov	 DWORD PTR tv661[ebp], 44 ; 0000002cH
  00f49	eb 24		 jmp	 SHORT $LN161@validate_l
$LN160@validate_l:
  00f4b	8b 15 00 00 00
	00		 mov	 edx, DWORD PTR ?__LINE__Var@?0??validate_landing_route@@YGHPAUENTITY@@@Z@4JA
  00f51	81 c2 22 01 00
	00		 add	 edx, 290		; 00000122H
  00f57	52		 push	 edx
  00f58	68 00 00 00 00	 push	 OFFSET ??_C@_0EB@GJLKGHAC@c?3?2users?2nhv90?2projects?2eech?2ap@
  00f5d	a1 00 00 00 00	 mov	 eax, DWORD PTR ?overload_invalid_list_type_message@@3PBDB ; overload_invalid_list_type_message
  00f62	50		 push	 eax
  00f63	e8 00 00 00 00	 call	 ?process_assert@@YGXPBD0H@Z ; process_assert
  00f68	c7 45 9c 00 00
	00 00		 mov	 DWORD PTR tv661[ebp], 0
$LN161@validate_l:
  00f6f	6a 2c		 push	 44			; 0000002cH
  00f71	8b 4d ec	 mov	 ecx, DWORD PTR _wp$[ebp]
  00f74	51		 push	 ecx
  00f75	69 55 a0 b4 00
	00 00		 imul	 edx, DWORD PTR tv653[ebp], 180
  00f7c	8b 45 9c	 mov	 eax, DWORD PTR tv661[ebp]
  00f7f	8b 8c 82 00 00
	00 00		 mov	 ecx, DWORD PTR ?fn_get_local_entity_child_succ@@3PAY0CN@P6GPAUENTITY@@PAU1@W4LIST_TYPES@@@ZA[edx+eax*4]
  00f86	ff d1		 call	 ecx
  00f88	85 c0		 test	 eax, eax
  00f8a	0f 84 ad 01 00
	00		 je	 $LN15@validate_l

; 884  : 						{
; 885  : 			
; 886  : 							wp_formation = (formation_types)get_local_entity_int_value (wp, INT_TYPE_WAYPOINT_FORMATION);

  00f90	83 7d ec 00	 cmp	 DWORD PTR _wp$[ebp], 0
  00f94	74 0a		 je	 SHORT $LN162@validate_l
  00f96	8b 45 ec	 mov	 eax, DWORD PTR _wp$[ebp]
  00f99	8b 08		 mov	 ecx, DWORD PTR [eax]
  00f9b	89 4d a0	 mov	 DWORD PTR tv674[ebp], ecx
  00f9e	eb 24		 jmp	 SHORT $LN163@validate_l
$LN162@validate_l:
  00fa0	8b 15 00 00 00
	00		 mov	 edx, DWORD PTR ?__LINE__Var@?0??validate_landing_route@@YGHPAUENTITY@@@Z@4JA
  00fa6	81 c2 25 01 00
	00		 add	 edx, 293		; 00000125H
  00fac	52		 push	 edx
  00fad	68 00 00 00 00	 push	 OFFSET ??_C@_0EB@GJLKGHAC@c?3?2users?2nhv90?2projects?2eech?2ap@
  00fb2	a1 00 00 00 00	 mov	 eax, DWORD PTR ?null_entity_pointer_message@@3PBDB ; null_entity_pointer_message
  00fb7	50		 push	 eax
  00fb8	e8 00 00 00 00	 call	 ?process_assert@@YGXPBD0H@Z ; process_assert
  00fbd	c7 45 a0 00 00
	00 00		 mov	 DWORD PTR tv674[ebp], 0
$LN163@validate_l:
  00fc4	b9 01 00 00 00	 mov	 ecx, 1
  00fc9	85 c9		 test	 ecx, ecx
  00fcb	74 09		 je	 SHORT $LN164@validate_l
  00fcd	c7 45 9c fe 00
	00 00		 mov	 DWORD PTR tv682[ebp], 254 ; 000000feH
  00fd4	eb 24		 jmp	 SHORT $LN165@validate_l
$LN164@validate_l:
  00fd6	8b 15 00 00 00
	00		 mov	 edx, DWORD PTR ?__LINE__Var@?0??validate_landing_route@@YGHPAUENTITY@@@Z@4JA
  00fdc	81 c2 25 01 00
	00		 add	 edx, 293		; 00000125H
  00fe2	52		 push	 edx
  00fe3	68 00 00 00 00	 push	 OFFSET ??_C@_0EB@GJLKGHAC@c?3?2users?2nhv90?2projects?2eech?2ap@
  00fe8	a1 00 00 00 00	 mov	 eax, DWORD PTR ?overload_invalid_int_type_message@@3PBDB ; overload_invalid_int_type_message
  00fed	50		 push	 eax
  00fee	e8 00 00 00 00	 call	 ?process_assert@@YGXPBD0H@Z ; process_assert
  00ff3	c7 45 9c 00 00
	00 00		 mov	 DWORD PTR tv682[ebp], 0
$LN165@validate_l:
  00ffa	68 fe 00 00 00	 push	 254			; 000000feH
  00fff	8b 4d ec	 mov	 ecx, DWORD PTR _wp$[ebp]
  01002	51		 push	 ecx
  01003	69 55 a0 5c 04
	00 00		 imul	 edx, DWORD PTR tv674[ebp], 1116
  0100a	8b 45 9c	 mov	 eax, DWORD PTR tv682[ebp]
  0100d	8b 8c 82 00 00
	00 00		 mov	 ecx, DWORD PTR ?fn_get_local_entity_int_value@@3PAY0BBH@P6GHPAUENTITY@@W4INT_TYPES@@@ZA[edx+eax*4]
  01014	ff d1		 call	 ecx
  01016	89 45 e4	 mov	 DWORD PTR _wp_formation$[ebp], eax

; 887  : 		/*
; 888  : 							if (route_formation != wp_formation)
; 889  : 							{
; 890  : 			
; 891  : 								debug_fatal ("WARNING. Route parser failed on takeoff formation, route %s, wp %s",
; 892  : 												get_formation_name (route_formation), get_formation_name (wp_formation));
; 893  : 							}
; 894  : 		*/
; 895  : 							type = get_local_entity_int_value (wp, INT_TYPE_ENTITY_SUB_TYPE);

  01019	83 7d ec 00	 cmp	 DWORD PTR _wp$[ebp], 0
  0101d	74 0a		 je	 SHORT $LN166@validate_l
  0101f	8b 45 ec	 mov	 eax, DWORD PTR _wp$[ebp]
  01022	8b 08		 mov	 ecx, DWORD PTR [eax]
  01024	89 4d a0	 mov	 DWORD PTR tv694[ebp], ecx
  01027	eb 24		 jmp	 SHORT $LN167@validate_l
$LN166@validate_l:
  01029	8b 15 00 00 00
	00		 mov	 edx, DWORD PTR ?__LINE__Var@?0??validate_landing_route@@YGHPAUENTITY@@@Z@4JA
  0102f	81 c2 2e 01 00
	00		 add	 edx, 302		; 0000012eH
  01035	52		 push	 edx
  01036	68 00 00 00 00	 push	 OFFSET ??_C@_0EB@GJLKGHAC@c?3?2users?2nhv90?2projects?2eech?2ap@
  0103b	a1 00 00 00 00	 mov	 eax, DWORD PTR ?null_entity_pointer_message@@3PBDB ; null_entity_pointer_message
  01040	50		 push	 eax
  01041	e8 00 00 00 00	 call	 ?process_assert@@YGXPBD0H@Z ; process_assert
  01046	c7 45 a0 00 00
	00 00		 mov	 DWORD PTR tv694[ebp], 0
$LN167@validate_l:
  0104d	b9 01 00 00 00	 mov	 ecx, 1
  01052	85 c9		 test	 ecx, ecx
  01054	74 09		 je	 SHORT $LN168@validate_l
  01056	c7 45 9c 34 00
	00 00		 mov	 DWORD PTR tv702[ebp], 52 ; 00000034H
  0105d	eb 24		 jmp	 SHORT $LN169@validate_l
$LN168@validate_l:
  0105f	8b 15 00 00 00
	00		 mov	 edx, DWORD PTR ?__LINE__Var@?0??validate_landing_route@@YGHPAUENTITY@@@Z@4JA
  01065	81 c2 2e 01 00
	00		 add	 edx, 302		; 0000012eH
  0106b	52		 push	 edx
  0106c	68 00 00 00 00	 push	 OFFSET ??_C@_0EB@GJLKGHAC@c?3?2users?2nhv90?2projects?2eech?2ap@
  01071	a1 00 00 00 00	 mov	 eax, DWORD PTR ?overload_invalid_int_type_message@@3PBDB ; overload_invalid_int_type_message
  01076	50		 push	 eax
  01077	e8 00 00 00 00	 call	 ?process_assert@@YGXPBD0H@Z ; process_assert
  0107c	c7 45 9c 00 00
	00 00		 mov	 DWORD PTR tv702[ebp], 0
$LN169@validate_l:
  01083	6a 34		 push	 52			; 00000034H
  01085	8b 4d ec	 mov	 ecx, DWORD PTR _wp$[ebp]
  01088	51		 push	 ecx
  01089	69 55 a0 5c 04
	00 00		 imul	 edx, DWORD PTR tv694[ebp], 1116
  01090	8b 45 9c	 mov	 eax, DWORD PTR tv702[ebp]
  01093	8b 8c 82 00 00
	00 00		 mov	 ecx, DWORD PTR ?fn_get_local_entity_int_value@@3PAY0BBH@P6GHPAUENTITY@@W4INT_TYPES@@@ZA[edx+eax*4]
  0109a	ff d1		 call	 ecx
  0109c	89 45 f8	 mov	 DWORD PTR _type$[ebp], eax

; 896  : 			
; 897  : 							if (type != ENTITY_SUB_TYPE_WAYPOINT_NAVIGATION)

  0109f	83 7d f8 11	 cmp	 DWORD PTR _type$[ebp], 17 ; 00000011H
  010a3	74 0d		 je	 SHORT $LN45@validate_l

; 898  : 							{
; 899  : 			
; 900  : 								debug_fatal ("WARNING. Route parser failed on takeoff route. Non nav waypoint in route");

  010a5	68 00 00 00 00	 push	 OFFSET ??_C@_0EJ@EAEECICD@WARNING?4?5Route?5parser?5failed?5on@
  010aa	e8 00 00 00 00	 call	 ?debug_fatal@@YAXPBDZZ	; debug_fatal
  010af	83 c4 04	 add	 esp, 4
$LN45@validate_l:

; 901  : 							}
; 902  : 			
; 903  : 							wp = get_local_entity_child_succ (wp, LIST_TYPE_WAYPOINT);

  010b2	83 7d ec 00	 cmp	 DWORD PTR _wp$[ebp], 0
  010b6	74 0a		 je	 SHORT $LN170@validate_l
  010b8	8b 45 ec	 mov	 eax, DWORD PTR _wp$[ebp]
  010bb	8b 08		 mov	 ecx, DWORD PTR [eax]
  010bd	89 4d a0	 mov	 DWORD PTR tv716[ebp], ecx
  010c0	eb 24		 jmp	 SHORT $LN171@validate_l
$LN170@validate_l:
  010c2	8b 15 00 00 00
	00		 mov	 edx, DWORD PTR ?__LINE__Var@?0??validate_landing_route@@YGHPAUENTITY@@@Z@4JA
  010c8	81 c2 36 01 00
	00		 add	 edx, 310		; 00000136H
  010ce	52		 push	 edx
  010cf	68 00 00 00 00	 push	 OFFSET ??_C@_0EB@GJLKGHAC@c?3?2users?2nhv90?2projects?2eech?2ap@
  010d4	a1 00 00 00 00	 mov	 eax, DWORD PTR ?null_entity_pointer_message@@3PBDB ; null_entity_pointer_message
  010d9	50		 push	 eax
  010da	e8 00 00 00 00	 call	 ?process_assert@@YGXPBD0H@Z ; process_assert
  010df	c7 45 a0 00 00
	00 00		 mov	 DWORD PTR tv716[ebp], 0
$LN171@validate_l:
  010e6	b9 01 00 00 00	 mov	 ecx, 1
  010eb	85 c9		 test	 ecx, ecx
  010ed	74 09		 je	 SHORT $LN172@validate_l
  010ef	c7 45 9c 2c 00
	00 00		 mov	 DWORD PTR tv724[ebp], 44 ; 0000002cH
  010f6	eb 24		 jmp	 SHORT $LN173@validate_l
$LN172@validate_l:
  010f8	8b 15 00 00 00
	00		 mov	 edx, DWORD PTR ?__LINE__Var@?0??validate_landing_route@@YGHPAUENTITY@@@Z@4JA
  010fe	81 c2 36 01 00
	00		 add	 edx, 310		; 00000136H
  01104	52		 push	 edx
  01105	68 00 00 00 00	 push	 OFFSET ??_C@_0EB@GJLKGHAC@c?3?2users?2nhv90?2projects?2eech?2ap@
  0110a	a1 00 00 00 00	 mov	 eax, DWORD PTR ?overload_invalid_list_type_message@@3PBDB ; overload_invalid_list_type_message
  0110f	50		 push	 eax
  01110	e8 00 00 00 00	 call	 ?process_assert@@YGXPBD0H@Z ; process_assert
  01115	c7 45 9c 00 00
	00 00		 mov	 DWORD PTR tv724[ebp], 0
$LN173@validate_l:
  0111c	6a 2c		 push	 44			; 0000002cH
  0111e	8b 4d ec	 mov	 ecx, DWORD PTR _wp$[ebp]
  01121	51		 push	 ecx
  01122	69 55 a0 b4 00
	00 00		 imul	 edx, DWORD PTR tv716[ebp], 180
  01129	8b 45 9c	 mov	 eax, DWORD PTR tv724[ebp]
  0112c	8b 8c 82 00 00
	00 00		 mov	 ecx, DWORD PTR ?fn_get_local_entity_child_succ@@3PAY0CN@P6GPAUENTITY@@PAU1@W4LIST_TYPES@@@ZA[edx+eax*4]
  01133	ff d1		 call	 ecx
  01135	89 45 ec	 mov	 DWORD PTR _wp$[ebp], eax

; 904  : 						}

  01138	e9 c8 fd ff ff	 jmp	 $LN14@validate_l
$LN15@validate_l:

; 905  : 	
; 906  : 						//
; 907  : 						// taken off waypoint
; 908  : 						//
; 909  : 			
; 910  : 						wp_formation = (formation_types)get_local_entity_int_value (wp, INT_TYPE_WAYPOINT_FORMATION);

  0113d	83 7d ec 00	 cmp	 DWORD PTR _wp$[ebp], 0
  01141	74 0a		 je	 SHORT $LN174@validate_l
  01143	8b 45 ec	 mov	 eax, DWORD PTR _wp$[ebp]
  01146	8b 08		 mov	 ecx, DWORD PTR [eax]
  01148	89 4d a0	 mov	 DWORD PTR tv736[ebp], ecx
  0114b	eb 24		 jmp	 SHORT $LN175@validate_l
$LN174@validate_l:
  0114d	8b 15 00 00 00
	00		 mov	 edx, DWORD PTR ?__LINE__Var@?0??validate_landing_route@@YGHPAUENTITY@@@Z@4JA
  01153	81 c2 3d 01 00
	00		 add	 edx, 317		; 0000013dH
  01159	52		 push	 edx
  0115a	68 00 00 00 00	 push	 OFFSET ??_C@_0EB@GJLKGHAC@c?3?2users?2nhv90?2projects?2eech?2ap@
  0115f	a1 00 00 00 00	 mov	 eax, DWORD PTR ?null_entity_pointer_message@@3PBDB ; null_entity_pointer_message
  01164	50		 push	 eax
  01165	e8 00 00 00 00	 call	 ?process_assert@@YGXPBD0H@Z ; process_assert
  0116a	c7 45 a0 00 00
	00 00		 mov	 DWORD PTR tv736[ebp], 0
$LN175@validate_l:
  01171	b9 01 00 00 00	 mov	 ecx, 1
  01176	85 c9		 test	 ecx, ecx
  01178	74 09		 je	 SHORT $LN176@validate_l
  0117a	c7 45 9c fe 00
	00 00		 mov	 DWORD PTR tv744[ebp], 254 ; 000000feH
  01181	eb 24		 jmp	 SHORT $LN177@validate_l
$LN176@validate_l:
  01183	8b 15 00 00 00
	00		 mov	 edx, DWORD PTR ?__LINE__Var@?0??validate_landing_route@@YGHPAUENTITY@@@Z@4JA
  01189	81 c2 3d 01 00
	00		 add	 edx, 317		; 0000013dH
  0118f	52		 push	 edx
  01190	68 00 00 00 00	 push	 OFFSET ??_C@_0EB@GJLKGHAC@c?3?2users?2nhv90?2projects?2eech?2ap@
  01195	a1 00 00 00 00	 mov	 eax, DWORD PTR ?overload_invalid_int_type_message@@3PBDB ; overload_invalid_int_type_message
  0119a	50		 push	 eax
  0119b	e8 00 00 00 00	 call	 ?process_assert@@YGXPBD0H@Z ; process_assert
  011a0	c7 45 9c 00 00
	00 00		 mov	 DWORD PTR tv744[ebp], 0
$LN177@validate_l:
  011a7	68 fe 00 00 00	 push	 254			; 000000feH
  011ac	8b 4d ec	 mov	 ecx, DWORD PTR _wp$[ebp]
  011af	51		 push	 ecx
  011b0	69 55 a0 5c 04
	00 00		 imul	 edx, DWORD PTR tv736[ebp], 1116
  011b7	8b 45 9c	 mov	 eax, DWORD PTR tv744[ebp]
  011ba	8b 8c 82 00 00
	00 00		 mov	 ecx, DWORD PTR ?fn_get_local_entity_int_value@@3PAY0BBH@P6GHPAUENTITY@@W4INT_TYPES@@@ZA[edx+eax*4]
  011c1	ff d1		 call	 ecx
  011c3	89 45 e4	 mov	 DWORD PTR _wp_formation$[ebp], eax

; 911  : 		/*
; 912  : 						if (route_formation != wp_formation)
; 913  : 						{
; 914  : 			
; 915  : 							debug_fatal ("WARNING. Route parser failed on takeoff formation, route %s, wp %s",
; 916  : 											get_formation_name (route_formation), get_formation_name (wp_formation));
; 917  : 						}
; 918  : 		*/
; 919  : 						type = get_local_entity_int_value (wp, INT_TYPE_ENTITY_SUB_TYPE);

  011c6	83 7d ec 00	 cmp	 DWORD PTR _wp$[ebp], 0
  011ca	74 0a		 je	 SHORT $LN178@validate_l
  011cc	8b 45 ec	 mov	 eax, DWORD PTR _wp$[ebp]
  011cf	8b 08		 mov	 ecx, DWORD PTR [eax]
  011d1	89 4d a0	 mov	 DWORD PTR tv756[ebp], ecx
  011d4	eb 24		 jmp	 SHORT $LN179@validate_l
$LN178@validate_l:
  011d6	8b 15 00 00 00
	00		 mov	 edx, DWORD PTR ?__LINE__Var@?0??validate_landing_route@@YGHPAUENTITY@@@Z@4JA
  011dc	81 c2 46 01 00
	00		 add	 edx, 326		; 00000146H
  011e2	52		 push	 edx
  011e3	68 00 00 00 00	 push	 OFFSET ??_C@_0EB@GJLKGHAC@c?3?2users?2nhv90?2projects?2eech?2ap@
  011e8	a1 00 00 00 00	 mov	 eax, DWORD PTR ?null_entity_pointer_message@@3PBDB ; null_entity_pointer_message
  011ed	50		 push	 eax
  011ee	e8 00 00 00 00	 call	 ?process_assert@@YGXPBD0H@Z ; process_assert
  011f3	c7 45 a0 00 00
	00 00		 mov	 DWORD PTR tv756[ebp], 0
$LN179@validate_l:
  011fa	b9 01 00 00 00	 mov	 ecx, 1
  011ff	85 c9		 test	 ecx, ecx
  01201	74 09		 je	 SHORT $LN180@validate_l
  01203	c7 45 9c 34 00
	00 00		 mov	 DWORD PTR tv764[ebp], 52 ; 00000034H
  0120a	eb 24		 jmp	 SHORT $LN181@validate_l
$LN180@validate_l:
  0120c	8b 15 00 00 00
	00		 mov	 edx, DWORD PTR ?__LINE__Var@?0??validate_landing_route@@YGHPAUENTITY@@@Z@4JA
  01212	81 c2 46 01 00
	00		 add	 edx, 326		; 00000146H
  01218	52		 push	 edx
  01219	68 00 00 00 00	 push	 OFFSET ??_C@_0EB@GJLKGHAC@c?3?2users?2nhv90?2projects?2eech?2ap@
  0121e	a1 00 00 00 00	 mov	 eax, DWORD PTR ?overload_invalid_int_type_message@@3PBDB ; overload_invalid_int_type_message
  01223	50		 push	 eax
  01224	e8 00 00 00 00	 call	 ?process_assert@@YGXPBD0H@Z ; process_assert
  01229	c7 45 9c 00 00
	00 00		 mov	 DWORD PTR tv764[ebp], 0
$LN181@validate_l:
  01230	6a 34		 push	 52			; 00000034H
  01232	8b 4d ec	 mov	 ecx, DWORD PTR _wp$[ebp]
  01235	51		 push	 ecx
  01236	69 55 a0 5c 04
	00 00		 imul	 edx, DWORD PTR tv756[ebp], 1116
  0123d	8b 45 9c	 mov	 eax, DWORD PTR tv764[ebp]
  01240	8b 8c 82 00 00
	00 00		 mov	 ecx, DWORD PTR ?fn_get_local_entity_int_value@@3PAY0BBH@P6GHPAUENTITY@@W4INT_TYPES@@@ZA[edx+eax*4]
  01247	ff d1		 call	 ecx
  01249	89 45 f8	 mov	 DWORD PTR _type$[ebp], eax

; 920  : 			
; 921  : 						if (type != ENTITY_SUB_TYPE_WAYPOINT_TAKEN_OFF)

  0124c	83 7d f8 1a	 cmp	 DWORD PTR _type$[ebp], 26 ; 0000001aH
  01250	74 0d		 je	 SHORT $LN46@validate_l

; 922  : 						{
; 923  : 			
; 924  : 							debug_fatal ("WARNING. Route parser failed on takeoff route. Taken off waypoint not in correct place");

  01252	68 00 00 00 00	 push	 OFFSET ??_C@_0FH@KGBMMDPB@WARNING?4?5Route?5parser?5failed?5on@
  01257	e8 00 00 00 00	 call	 ?debug_fatal@@YAXPBDZZ	; debug_fatal
  0125c	83 c4 04	 add	 esp, 4
$LN46@validate_l:

; 925  : 						}
; 926  : 	
; 927  : 						//
; 928  : 						// Extras
; 929  : 						//
; 930  : 			
; 931  : 						if (get_local_entity_child_succ (wp, LIST_TYPE_WAYPOINT))

  0125f	83 7d ec 00	 cmp	 DWORD PTR _wp$[ebp], 0
  01263	74 0a		 je	 SHORT $LN182@validate_l
  01265	8b 45 ec	 mov	 eax, DWORD PTR _wp$[ebp]
  01268	8b 08		 mov	 ecx, DWORD PTR [eax]
  0126a	89 4d a0	 mov	 DWORD PTR tv777[ebp], ecx
  0126d	eb 1d		 jmp	 SHORT $LN183@validate_l
$LN182@validate_l:
  0126f	68 a3 03 00 00	 push	 931			; 000003a3H
  01274	68 00 00 00 00	 push	 OFFSET ??_C@_0EB@GJLKGHAC@c?3?2users?2nhv90?2projects?2eech?2ap@
  01279	8b 15 00 00 00
	00		 mov	 edx, DWORD PTR ?null_entity_pointer_message@@3PBDB ; null_entity_pointer_message
  0127f	52		 push	 edx
  01280	e8 00 00 00 00	 call	 ?process_assert@@YGXPBD0H@Z ; process_assert
  01285	c7 45 a0 00 00
	00 00		 mov	 DWORD PTR tv777[ebp], 0
$LN183@validate_l:
  0128c	b8 01 00 00 00	 mov	 eax, 1
  01291	85 c0		 test	 eax, eax
  01293	74 09		 je	 SHORT $LN184@validate_l
  01295	c7 45 9c 2c 00
	00 00		 mov	 DWORD PTR tv784[ebp], 44 ; 0000002cH
  0129c	eb 1d		 jmp	 SHORT $LN185@validate_l
$LN184@validate_l:
  0129e	68 a3 03 00 00	 push	 931			; 000003a3H
  012a3	68 00 00 00 00	 push	 OFFSET ??_C@_0EB@GJLKGHAC@c?3?2users?2nhv90?2projects?2eech?2ap@
  012a8	8b 0d 00 00 00
	00		 mov	 ecx, DWORD PTR ?overload_invalid_list_type_message@@3PBDB ; overload_invalid_list_type_message
  012ae	51		 push	 ecx
  012af	e8 00 00 00 00	 call	 ?process_assert@@YGXPBD0H@Z ; process_assert
  012b4	c7 45 9c 00 00
	00 00		 mov	 DWORD PTR tv784[ebp], 0
$LN185@validate_l:
  012bb	6a 2c		 push	 44			; 0000002cH
  012bd	8b 55 ec	 mov	 edx, DWORD PTR _wp$[ebp]
  012c0	52		 push	 edx
  012c1	69 45 a0 b4 00
	00 00		 imul	 eax, DWORD PTR tv777[ebp], 180
  012c8	8b 4d 9c	 mov	 ecx, DWORD PTR tv784[ebp]
  012cb	8b 94 88 00 00
	00 00		 mov	 edx, DWORD PTR ?fn_get_local_entity_child_succ@@3PAY0CN@P6GPAUENTITY@@PAU1@W4LIST_TYPES@@@ZA[eax+ecx*4]
  012d2	ff d2		 call	 edx
  012d4	85 c0		 test	 eax, eax
  012d6	74 0d		 je	 SHORT $LN47@validate_l

; 932  : 						{
; 933  : 			
; 934  : 							debug_fatal ("WARNING. Route parser failed on landing route. Waypoint present after Take off waypoint");

  012d8	68 00 00 00 00	 push	 OFFSET ??_C@_0FI@OMPACAJC@WARNING?4?5Route?5parser?5failed?5on@
  012dd	e8 00 00 00 00	 call	 ?debug_fatal@@YAXPBDZZ	; debug_fatal
  012e2	83 c4 04	 add	 esp, 4
$LN47@validate_l:

; 935  : 						}
; 936  : 					}
; 937  : 					else

  012e5	eb 0d		 jmp	 SHORT $LN10@validate_l
$LN43@validate_l:

; 938  : 					{
; 939  : 
; 940  : 						debug_log ("WARNING. Route parser. No Waypoint present in Takeoff route");

  012e7	68 00 00 00 00	 push	 OFFSET ??_C@_0DM@LOGPNHKO@WARNING?4?5Route?5parser?4?5No?5Waypo@
  012ec	e8 00 00 00 00	 call	 ?debug_log@@YAXPBDZZ	; debug_log
  012f1	83 c4 04	 add	 esp, 4
$LN10@validate_l:

; 941  : 					}
; 942  : 
; 943  : 					break;
; 944  : 				}
; 945  : 			}
; 946  : 
; 947  : 			break;

  012f4	e9 5a 03 00 00	 jmp	 $LN2@validate_l
$LN48@validate_l:

; 948  : 		}
; 949  : 
; 950  : 		case ENTITY_SUB_TYPE_TASK_LANDING_HOLDING:
; 951  : 		case ENTITY_SUB_TYPE_TASK_TAKEOFF_HOLDING:
; 952  : 		{
; 953  : 
; 954  : 			//
; 955  : 			// Navigation waypoint
; 956  : 			//
; 957  : 
; 958  : 			wp = get_local_entity_first_child (route_task, LIST_TYPE_WAYPOINT);

  012f9	83 7d 08 00	 cmp	 DWORD PTR _route_task$[ebp], 0
  012fd	74 0a		 je	 SHORT $LN186@validate_l
  012ff	8b 45 08	 mov	 eax, DWORD PTR _route_task$[ebp]
  01302	8b 08		 mov	 ecx, DWORD PTR [eax]
  01304	89 4d a0	 mov	 DWORD PTR tv800[ebp], ecx
  01307	eb 24		 jmp	 SHORT $LN187@validate_l
$LN186@validate_l:
  01309	8b 15 00 00 00
	00		 mov	 edx, DWORD PTR ?__LINE__Var@?0??validate_landing_route@@YGHPAUENTITY@@@Z@4JA
  0130f	81 c2 6d 01 00
	00		 add	 edx, 365		; 0000016dH
  01315	52		 push	 edx
  01316	68 00 00 00 00	 push	 OFFSET ??_C@_0EB@GJLKGHAC@c?3?2users?2nhv90?2projects?2eech?2ap@
  0131b	a1 00 00 00 00	 mov	 eax, DWORD PTR ?null_entity_pointer_message@@3PBDB ; null_entity_pointer_message
  01320	50		 push	 eax
  01321	e8 00 00 00 00	 call	 ?process_assert@@YGXPBD0H@Z ; process_assert
  01326	c7 45 a0 00 00
	00 00		 mov	 DWORD PTR tv800[ebp], 0
$LN187@validate_l:
  0132d	b9 01 00 00 00	 mov	 ecx, 1
  01332	85 c9		 test	 ecx, ecx
  01334	74 09		 je	 SHORT $LN188@validate_l
  01336	c7 45 9c 2c 00
	00 00		 mov	 DWORD PTR tv808[ebp], 44 ; 0000002cH
  0133d	eb 24		 jmp	 SHORT $LN189@validate_l
$LN188@validate_l:
  0133f	8b 15 00 00 00
	00		 mov	 edx, DWORD PTR ?__LINE__Var@?0??validate_landing_route@@YGHPAUENTITY@@@Z@4JA
  01345	81 c2 6d 01 00
	00		 add	 edx, 365		; 0000016dH
  0134b	52		 push	 edx
  0134c	68 00 00 00 00	 push	 OFFSET ??_C@_0EB@GJLKGHAC@c?3?2users?2nhv90?2projects?2eech?2ap@
  01351	a1 00 00 00 00	 mov	 eax, DWORD PTR ?overload_invalid_list_type_message@@3PBDB ; overload_invalid_list_type_message
  01356	50		 push	 eax
  01357	e8 00 00 00 00	 call	 ?process_assert@@YGXPBD0H@Z ; process_assert
  0135c	c7 45 9c 00 00
	00 00		 mov	 DWORD PTR tv808[ebp], 0
$LN189@validate_l:
  01363	6a 2c		 push	 44			; 0000002cH
  01365	8b 4d 08	 mov	 ecx, DWORD PTR _route_task$[ebp]
  01368	51		 push	 ecx
  01369	69 55 a0 b4 00
	00 00		 imul	 edx, DWORD PTR tv800[ebp], 180
  01370	8b 45 9c	 mov	 eax, DWORD PTR tv808[ebp]
  01373	8b 8c 82 00 00
	00 00		 mov	 ecx, DWORD PTR ?fn_get_local_entity_first_child@@3PAY0CN@P6GPAUENTITY@@PAU1@W4LIST_TYPES@@@ZA[edx+eax*4]
  0137a	ff d1		 call	 ecx
  0137c	89 45 ec	 mov	 DWORD PTR _wp$[ebp], eax

; 959  : 
; 960  : 			if (wp)

  0137f	83 7d ec 00	 cmp	 DWORD PTR _wp$[ebp], 0
  01383	0f 84 bd 02 00
	00		 je	 $LN49@validate_l
$LN16@validate_l:

; 961  : 			{
; 962  : 	
; 963  : 				while (get_local_entity_child_succ (wp, LIST_TYPE_WAYPOINT))

  01389	83 7d ec 00	 cmp	 DWORD PTR _wp$[ebp], 0
  0138d	74 0a		 je	 SHORT $LN190@validate_l
  0138f	8b 45 ec	 mov	 eax, DWORD PTR _wp$[ebp]
  01392	8b 08		 mov	 ecx, DWORD PTR [eax]
  01394	89 4d a0	 mov	 DWORD PTR tv821[ebp], ecx
  01397	eb 24		 jmp	 SHORT $LN191@validate_l
$LN190@validate_l:
  01399	8b 15 00 00 00
	00		 mov	 edx, DWORD PTR ?__LINE__Var@?0??validate_landing_route@@YGHPAUENTITY@@@Z@4JA
  0139f	81 c2 72 01 00
	00		 add	 edx, 370		; 00000172H
  013a5	52		 push	 edx
  013a6	68 00 00 00 00	 push	 OFFSET ??_C@_0EB@GJLKGHAC@c?3?2users?2nhv90?2projects?2eech?2ap@
  013ab	a1 00 00 00 00	 mov	 eax, DWORD PTR ?null_entity_pointer_message@@3PBDB ; null_entity_pointer_message
  013b0	50		 push	 eax
  013b1	e8 00 00 00 00	 call	 ?process_assert@@YGXPBD0H@Z ; process_assert
  013b6	c7 45 a0 00 00
	00 00		 mov	 DWORD PTR tv821[ebp], 0
$LN191@validate_l:
  013bd	b9 01 00 00 00	 mov	 ecx, 1
  013c2	85 c9		 test	 ecx, ecx
  013c4	74 09		 je	 SHORT $LN192@validate_l
  013c6	c7 45 9c 2c 00
	00 00		 mov	 DWORD PTR tv829[ebp], 44 ; 0000002cH
  013cd	eb 24		 jmp	 SHORT $LN193@validate_l
$LN192@validate_l:
  013cf	8b 15 00 00 00
	00		 mov	 edx, DWORD PTR ?__LINE__Var@?0??validate_landing_route@@YGHPAUENTITY@@@Z@4JA
  013d5	81 c2 72 01 00
	00		 add	 edx, 370		; 00000172H
  013db	52		 push	 edx
  013dc	68 00 00 00 00	 push	 OFFSET ??_C@_0EB@GJLKGHAC@c?3?2users?2nhv90?2projects?2eech?2ap@
  013e1	a1 00 00 00 00	 mov	 eax, DWORD PTR ?overload_invalid_list_type_message@@3PBDB ; overload_invalid_list_type_message
  013e6	50		 push	 eax
  013e7	e8 00 00 00 00	 call	 ?process_assert@@YGXPBD0H@Z ; process_assert
  013ec	c7 45 9c 00 00
	00 00		 mov	 DWORD PTR tv829[ebp], 0
$LN193@validate_l:
  013f3	6a 2c		 push	 44			; 0000002cH
  013f5	8b 4d ec	 mov	 ecx, DWORD PTR _wp$[ebp]
  013f8	51		 push	 ecx
  013f9	69 55 a0 b4 00
	00 00		 imul	 edx, DWORD PTR tv821[ebp], 180
  01400	8b 45 9c	 mov	 eax, DWORD PTR tv829[ebp]
  01403	8b 8c 82 00 00
	00 00		 mov	 ecx, DWORD PTR ?fn_get_local_entity_child_succ@@3PAY0CN@P6GPAUENTITY@@PAU1@W4LIST_TYPES@@@ZA[edx+eax*4]
  0140a	ff d1		 call	 ecx
  0140c	85 c0		 test	 eax, eax
  0140e	0f 84 11 01 00
	00		 je	 $LN17@validate_l

; 964  : 				{
; 965  : 	
; 966  : 					type = get_local_entity_int_value (wp, INT_TYPE_ENTITY_SUB_TYPE);

  01414	83 7d ec 00	 cmp	 DWORD PTR _wp$[ebp], 0
  01418	74 0a		 je	 SHORT $LN194@validate_l
  0141a	8b 45 ec	 mov	 eax, DWORD PTR _wp$[ebp]
  0141d	8b 08		 mov	 ecx, DWORD PTR [eax]
  0141f	89 4d a0	 mov	 DWORD PTR tv842[ebp], ecx
  01422	eb 24		 jmp	 SHORT $LN195@validate_l
$LN194@validate_l:
  01424	8b 15 00 00 00
	00		 mov	 edx, DWORD PTR ?__LINE__Var@?0??validate_landing_route@@YGHPAUENTITY@@@Z@4JA
  0142a	81 c2 75 01 00
	00		 add	 edx, 373		; 00000175H
  01430	52		 push	 edx
  01431	68 00 00 00 00	 push	 OFFSET ??_C@_0EB@GJLKGHAC@c?3?2users?2nhv90?2projects?2eech?2ap@
  01436	a1 00 00 00 00	 mov	 eax, DWORD PTR ?null_entity_pointer_message@@3PBDB ; null_entity_pointer_message
  0143b	50		 push	 eax
  0143c	e8 00 00 00 00	 call	 ?process_assert@@YGXPBD0H@Z ; process_assert
  01441	c7 45 a0 00 00
	00 00		 mov	 DWORD PTR tv842[ebp], 0
$LN195@validate_l:
  01448	b9 01 00 00 00	 mov	 ecx, 1
  0144d	85 c9		 test	 ecx, ecx
  0144f	74 09		 je	 SHORT $LN196@validate_l
  01451	c7 45 9c 34 00
	00 00		 mov	 DWORD PTR tv850[ebp], 52 ; 00000034H
  01458	eb 24		 jmp	 SHORT $LN197@validate_l
$LN196@validate_l:
  0145a	8b 15 00 00 00
	00		 mov	 edx, DWORD PTR ?__LINE__Var@?0??validate_landing_route@@YGHPAUENTITY@@@Z@4JA
  01460	81 c2 75 01 00
	00		 add	 edx, 373		; 00000175H
  01466	52		 push	 edx
  01467	68 00 00 00 00	 push	 OFFSET ??_C@_0EB@GJLKGHAC@c?3?2users?2nhv90?2projects?2eech?2ap@
  0146c	a1 00 00 00 00	 mov	 eax, DWORD PTR ?overload_invalid_int_type_message@@3PBDB ; overload_invalid_int_type_message
  01471	50		 push	 eax
  01472	e8 00 00 00 00	 call	 ?process_assert@@YGXPBD0H@Z ; process_assert
  01477	c7 45 9c 00 00
	00 00		 mov	 DWORD PTR tv850[ebp], 0
$LN197@validate_l:
  0147e	6a 34		 push	 52			; 00000034H
  01480	8b 4d ec	 mov	 ecx, DWORD PTR _wp$[ebp]
  01483	51		 push	 ecx
  01484	69 55 a0 5c 04
	00 00		 imul	 edx, DWORD PTR tv842[ebp], 1116
  0148b	8b 45 9c	 mov	 eax, DWORD PTR tv850[ebp]
  0148e	8b 8c 82 00 00
	00 00		 mov	 ecx, DWORD PTR ?fn_get_local_entity_int_value@@3PAY0BBH@P6GHPAUENTITY@@W4INT_TYPES@@@ZA[edx+eax*4]
  01495	ff d1		 call	 ecx
  01497	89 45 f8	 mov	 DWORD PTR _type$[ebp], eax

; 967  : /*
; 968  : 					if (type != ENTITY_SUB_TYPE_WAYPOINT_HOLDING)
; 969  : 					{
; 970  : 	
; 971  : 						debug_fatal ("WARNING. Route parser failed on holding route. Non holding waypoint in route");
; 972  : 					}
; 973  : 				*/
; 974  : 	
; 975  : 					wp = get_local_entity_child_succ (wp, LIST_TYPE_WAYPOINT);

  0149a	83 7d ec 00	 cmp	 DWORD PTR _wp$[ebp], 0
  0149e	74 0a		 je	 SHORT $LN198@validate_l
  014a0	8b 45 ec	 mov	 eax, DWORD PTR _wp$[ebp]
  014a3	8b 08		 mov	 ecx, DWORD PTR [eax]
  014a5	89 4d a0	 mov	 DWORD PTR tv862[ebp], ecx
  014a8	eb 24		 jmp	 SHORT $LN199@validate_l
$LN198@validate_l:
  014aa	8b 15 00 00 00
	00		 mov	 edx, DWORD PTR ?__LINE__Var@?0??validate_landing_route@@YGHPAUENTITY@@@Z@4JA
  014b0	81 c2 7e 01 00
	00		 add	 edx, 382		; 0000017eH
  014b6	52		 push	 edx
  014b7	68 00 00 00 00	 push	 OFFSET ??_C@_0EB@GJLKGHAC@c?3?2users?2nhv90?2projects?2eech?2ap@
  014bc	a1 00 00 00 00	 mov	 eax, DWORD PTR ?null_entity_pointer_message@@3PBDB ; null_entity_pointer_message
  014c1	50		 push	 eax
  014c2	e8 00 00 00 00	 call	 ?process_assert@@YGXPBD0H@Z ; process_assert
  014c7	c7 45 a0 00 00
	00 00		 mov	 DWORD PTR tv862[ebp], 0
$LN199@validate_l:
  014ce	b9 01 00 00 00	 mov	 ecx, 1
  014d3	85 c9		 test	 ecx, ecx
  014d5	74 09		 je	 SHORT $LN200@validate_l
  014d7	c7 45 9c 2c 00
	00 00		 mov	 DWORD PTR tv870[ebp], 44 ; 0000002cH
  014de	eb 24		 jmp	 SHORT $LN201@validate_l
$LN200@validate_l:
  014e0	8b 15 00 00 00
	00		 mov	 edx, DWORD PTR ?__LINE__Var@?0??validate_landing_route@@YGHPAUENTITY@@@Z@4JA
  014e6	81 c2 7e 01 00
	00		 add	 edx, 382		; 0000017eH
  014ec	52		 push	 edx
  014ed	68 00 00 00 00	 push	 OFFSET ??_C@_0EB@GJLKGHAC@c?3?2users?2nhv90?2projects?2eech?2ap@
  014f2	a1 00 00 00 00	 mov	 eax, DWORD PTR ?overload_invalid_list_type_message@@3PBDB ; overload_invalid_list_type_message
  014f7	50		 push	 eax
  014f8	e8 00 00 00 00	 call	 ?process_assert@@YGXPBD0H@Z ; process_assert
  014fd	c7 45 9c 00 00
	00 00		 mov	 DWORD PTR tv870[ebp], 0
$LN201@validate_l:
  01504	6a 2c		 push	 44			; 0000002cH
  01506	8b 4d ec	 mov	 ecx, DWORD PTR _wp$[ebp]
  01509	51		 push	 ecx
  0150a	69 55 a0 b4 00
	00 00		 imul	 edx, DWORD PTR tv862[ebp], 180
  01511	8b 45 9c	 mov	 eax, DWORD PTR tv870[ebp]
  01514	8b 8c 82 00 00
	00 00		 mov	 ecx, DWORD PTR ?fn_get_local_entity_child_succ@@3PAY0CN@P6GPAUENTITY@@PAU1@W4LIST_TYPES@@@ZA[edx+eax*4]
  0151b	ff d1		 call	 ecx
  0151d	89 45 ec	 mov	 DWORD PTR _wp$[ebp], eax

; 976  : 				}

  01520	e9 64 fe ff ff	 jmp	 $LN16@validate_l
$LN17@validate_l:

; 977  : 	
; 978  : 				//
; 979  : 				// loop waypoint
; 980  : 				//
; 981  : 	
; 982  : 				type = get_local_entity_int_value (wp, INT_TYPE_ENTITY_SUB_TYPE);

  01525	83 7d ec 00	 cmp	 DWORD PTR _wp$[ebp], 0
  01529	74 0a		 je	 SHORT $LN202@validate_l
  0152b	8b 45 ec	 mov	 eax, DWORD PTR _wp$[ebp]
  0152e	8b 08		 mov	 ecx, DWORD PTR [eax]
  01530	89 4d a0	 mov	 DWORD PTR tv882[ebp], ecx
  01533	eb 24		 jmp	 SHORT $LN203@validate_l
$LN202@validate_l:
  01535	8b 15 00 00 00
	00		 mov	 edx, DWORD PTR ?__LINE__Var@?0??validate_landing_route@@YGHPAUENTITY@@@Z@4JA
  0153b	81 c2 85 01 00
	00		 add	 edx, 389		; 00000185H
  01541	52		 push	 edx
  01542	68 00 00 00 00	 push	 OFFSET ??_C@_0EB@GJLKGHAC@c?3?2users?2nhv90?2projects?2eech?2ap@
  01547	a1 00 00 00 00	 mov	 eax, DWORD PTR ?null_entity_pointer_message@@3PBDB ; null_entity_pointer_message
  0154c	50		 push	 eax
  0154d	e8 00 00 00 00	 call	 ?process_assert@@YGXPBD0H@Z ; process_assert
  01552	c7 45 a0 00 00
	00 00		 mov	 DWORD PTR tv882[ebp], 0
$LN203@validate_l:
  01559	b9 01 00 00 00	 mov	 ecx, 1
  0155e	85 c9		 test	 ecx, ecx
  01560	74 09		 je	 SHORT $LN204@validate_l
  01562	c7 45 9c 34 00
	00 00		 mov	 DWORD PTR tv890[ebp], 52 ; 00000034H
  01569	eb 24		 jmp	 SHORT $LN205@validate_l
$LN204@validate_l:
  0156b	8b 15 00 00 00
	00		 mov	 edx, DWORD PTR ?__LINE__Var@?0??validate_landing_route@@YGHPAUENTITY@@@Z@4JA
  01571	81 c2 85 01 00
	00		 add	 edx, 389		; 00000185H
  01577	52		 push	 edx
  01578	68 00 00 00 00	 push	 OFFSET ??_C@_0EB@GJLKGHAC@c?3?2users?2nhv90?2projects?2eech?2ap@
  0157d	a1 00 00 00 00	 mov	 eax, DWORD PTR ?overload_invalid_int_type_message@@3PBDB ; overload_invalid_int_type_message
  01582	50		 push	 eax
  01583	e8 00 00 00 00	 call	 ?process_assert@@YGXPBD0H@Z ; process_assert
  01588	c7 45 9c 00 00
	00 00		 mov	 DWORD PTR tv890[ebp], 0
$LN205@validate_l:
  0158f	6a 34		 push	 52			; 00000034H
  01591	8b 4d ec	 mov	 ecx, DWORD PTR _wp$[ebp]
  01594	51		 push	 ecx
  01595	69 55 a0 5c 04
	00 00		 imul	 edx, DWORD PTR tv882[ebp], 1116
  0159c	8b 45 9c	 mov	 eax, DWORD PTR tv890[ebp]
  0159f	8b 8c 82 00 00
	00 00		 mov	 ecx, DWORD PTR ?fn_get_local_entity_int_value@@3PAY0BBH@P6GHPAUENTITY@@W4INT_TYPES@@@ZA[edx+eax*4]
  015a6	ff d1		 call	 ecx
  015a8	89 45 f8	 mov	 DWORD PTR _type$[ebp], eax

; 983  : 	
; 984  : 				if (type != ENTITY_SUB_TYPE_WAYPOINT_HOLDING_LOOP)

  015ab	83 7d f8 0b	 cmp	 DWORD PTR _type$[ebp], 11 ; 0000000bH
  015af	74 0d		 je	 SHORT $LN51@validate_l

; 985  : 				{
; 986  : 	
; 987  : 					debug_fatal ("WARNING. Route parser failed on holding route. Loop waypoint not in correct place");

  015b1	68 00 00 00 00	 push	 OFFSET ??_C@_0FC@KOMBKPH@WARNING?4?5Route?5parser?5failed?5on@
  015b6	e8 00 00 00 00	 call	 ?debug_fatal@@YAXPBDZZ	; debug_fatal
  015bb	83 c4 04	 add	 esp, 4
$LN51@validate_l:

; 988  : 				}
; 989  : 	
; 990  : 				//
; 991  : 				// Extras
; 992  : 				//
; 993  : 	
; 994  : 				if (get_local_entity_child_succ (wp, LIST_TYPE_WAYPOINT))

  015be	83 7d ec 00	 cmp	 DWORD PTR _wp$[ebp], 0
  015c2	74 0a		 je	 SHORT $LN206@validate_l
  015c4	8b 45 ec	 mov	 eax, DWORD PTR _wp$[ebp]
  015c7	8b 08		 mov	 ecx, DWORD PTR [eax]
  015c9	89 4d a0	 mov	 DWORD PTR tv903[ebp], ecx
  015cc	eb 1d		 jmp	 SHORT $LN207@validate_l
$LN206@validate_l:
  015ce	68 e2 03 00 00	 push	 994			; 000003e2H
  015d3	68 00 00 00 00	 push	 OFFSET ??_C@_0EB@GJLKGHAC@c?3?2users?2nhv90?2projects?2eech?2ap@
  015d8	8b 15 00 00 00
	00		 mov	 edx, DWORD PTR ?null_entity_pointer_message@@3PBDB ; null_entity_pointer_message
  015de	52		 push	 edx
  015df	e8 00 00 00 00	 call	 ?process_assert@@YGXPBD0H@Z ; process_assert
  015e4	c7 45 a0 00 00
	00 00		 mov	 DWORD PTR tv903[ebp], 0
$LN207@validate_l:
  015eb	b8 01 00 00 00	 mov	 eax, 1
  015f0	85 c0		 test	 eax, eax
  015f2	74 09		 je	 SHORT $LN208@validate_l
  015f4	c7 45 9c 2c 00
	00 00		 mov	 DWORD PTR tv910[ebp], 44 ; 0000002cH
  015fb	eb 1d		 jmp	 SHORT $LN209@validate_l
$LN208@validate_l:
  015fd	68 e2 03 00 00	 push	 994			; 000003e2H
  01602	68 00 00 00 00	 push	 OFFSET ??_C@_0EB@GJLKGHAC@c?3?2users?2nhv90?2projects?2eech?2ap@
  01607	8b 0d 00 00 00
	00		 mov	 ecx, DWORD PTR ?overload_invalid_list_type_message@@3PBDB ; overload_invalid_list_type_message
  0160d	51		 push	 ecx
  0160e	e8 00 00 00 00	 call	 ?process_assert@@YGXPBD0H@Z ; process_assert
  01613	c7 45 9c 00 00
	00 00		 mov	 DWORD PTR tv910[ebp], 0
$LN209@validate_l:
  0161a	6a 2c		 push	 44			; 0000002cH
  0161c	8b 55 ec	 mov	 edx, DWORD PTR _wp$[ebp]
  0161f	52		 push	 edx
  01620	69 45 a0 b4 00
	00 00		 imul	 eax, DWORD PTR tv903[ebp], 180
  01627	8b 4d 9c	 mov	 ecx, DWORD PTR tv910[ebp]
  0162a	8b 94 88 00 00
	00 00		 mov	 edx, DWORD PTR ?fn_get_local_entity_child_succ@@3PAY0CN@P6GPAUENTITY@@PAU1@W4LIST_TYPES@@@ZA[eax+ecx*4]
  01631	ff d2		 call	 edx
  01633	85 c0		 test	 eax, eax
  01635	74 0d		 je	 SHORT $LN52@validate_l

; 995  : 				{
; 996  : 	
; 997  : 					debug_fatal ("WARNING. Route parser failed on landing route. Waypoint present after Loop waypoint");

  01637	68 00 00 00 00	 push	 OFFSET ??_C@_0FE@FMPPIINB@WARNING?4?5Route?5parser?5failed?5on@
  0163c	e8 00 00 00 00	 call	 ?debug_fatal@@YAXPBDZZ	; debug_fatal
  01641	83 c4 04	 add	 esp, 4
$LN52@validate_l:

; 998  : 				}
; 999  : 			}
; 1000 : 			else

  01644	eb 0d		 jmp	 SHORT $LN2@validate_l
$LN49@validate_l:

; 1001 : 			{
; 1002 : 
; 1003 : 				debug_log ("WARNING. Route parser. No Waypoint present in Loop route");

  01646	68 00 00 00 00	 push	 OFFSET ??_C@_0DJ@MMMKIOFG@WARNING?4?5Route?5parser?4?5No?5Waypo@
  0164b	e8 00 00 00 00	 call	 ?debug_log@@YAXPBDZZ	; debug_log
  01650	83 c4 04	 add	 esp, 4
$LN2@validate_l:

; 1004 : 			}
; 1005 : 
; 1006 : 			break;
; 1007 : 		}
; 1008 : 	}
; 1009 : 
; 1010 : 	#if DEBUG_MODULE
; 1011 : 
; 1012 : 	debug_log ("Landing Route Parsing Complete");
; 1013 : 
; 1014 : 	#endif
; 1015 : 
; 1016 : 	return TRUE;

  01653	b8 01 00 00 00	 mov	 eax, 1

; 1017 : }

  01658	5f		 pop	 edi
  01659	5e		 pop	 esi
  0165a	5b		 pop	 ebx
  0165b	8b e5		 mov	 esp, ebp
  0165d	5d		 pop	 ebp
  0165e	c2 04 00	 ret	 4
  01661	0f 1f 00	 npad	 3
$LN211@validate_l:
  01664	00 00 00 00	 DD	 $LN18@validate_l
  01668	00 00 00 00	 DD	 $LN48@validate_l
  0166c	00 00 00 00	 DD	 $LN33@validate_l
  01670	00 00 00 00	 DD	 $LN2@validate_l
$LN210@validate_l:
  01674	00		 DB	 0
  01675	01		 DB	 1
  01676	03		 DB	 3
  01677	03		 DB	 3
  01678	03		 DB	 3
  01679	03		 DB	 3
  0167a	03		 DB	 3
  0167b	03		 DB	 3
  0167c	03		 DB	 3
  0167d	02		 DB	 2
  0167e	01		 DB	 1
  0167f	90		 npad	 1
$LN212@validate_l:
  01680	00 00 00 00	 DD	 $LN19@validate_l
  01684	00 00 00 00	 DD	 $LN4@validate_l
  01688	00 00 00 00	 DD	 $LN27@validate_l
  0168c	00 00 00 00	 DD	 $LN27@validate_l
  01690	00 00 00 00	 DD	 $LN4@validate_l
  01694	00 00 00 00	 DD	 $LN27@validate_l
$LN213@validate_l:
  01698	00 00 00 00	 DD	 $LN34@validate_l
  0169c	00 00 00 00	 DD	 $LN10@validate_l
  016a0	00 00 00 00	 DD	 $LN42@validate_l
  016a4	00 00 00 00	 DD	 $LN42@validate_l
  016a8	00 00 00 00	 DD	 $LN10@validate_l
  016ac	00 00 00 00	 DD	 $LN42@validate_l
?validate_landing_route@@YGHPAUENTITY@@@Z ENDP		; validate_landing_route
_TEXT	ENDS
; Function compile flags: /Odtp /ZI
; File c:\users\nhv90\projects\eech\aphavoc\source\ai\ai_misc\ai_misc.c
;	COMDAT ?get_closest_side_road_node@@YGHW4ENTITY_SIDES@@PAUVEC3D@@M@Z
_TEXT	SEGMENT
_best_range$ = -16					; size = 4
_range$ = -12						; size = 4
_best_node$ = -8					; size = 4
_loop$ = -4						; size = 4
_side$ = 8						; size = 4
_pos$ = 12						; size = 4
_error$ = 16						; size = 4
?get_closest_side_road_node@@YGHW4ENTITY_SIDES@@PAUVEC3D@@M@Z PROC ; get_closest_side_road_node, COMDAT

; 535  : {

  00000	55		 push	 ebp
  00001	8b ec		 mov	 ebp, esp
  00003	83 ec 50	 sub	 esp, 80			; 00000050H
  00006	53		 push	 ebx
  00007	56		 push	 esi
  00008	57		 push	 edi

; 536  : 
; 537  : 	int
; 538  : 		loop,
; 539  : 		best_node = 0;

  00009	c7 45 f8 00 00
	00 00		 mov	 DWORD PTR _best_node$[ebp], 0

; 540  : 
; 541  : 	float
; 542  : 		range,
; 543  : 		best_range;
; 544  : 
; 545  : 	ASSERT (pos);

  00010	83 7d 0c 00	 cmp	 DWORD PTR _pos$[ebp], 0
  00014	75 18		 jne	 SHORT $LN5@get_closes
  00016	a1 00 00 00 00	 mov	 eax, DWORD PTR ?__LINE__Var@?0??get_closest_side_road_node@@YGHW4ENTITY_SIDES@@PAUVEC3D@@M@Z@4JA
  0001b	83 c0 0a	 add	 eax, 10			; 0000000aH
  0001e	50		 push	 eax
  0001f	68 00 00 00 00	 push	 OFFSET ??_C@_0EB@GJLKGHAC@c?3?2users?2nhv90?2projects?2eech?2ap@
  00024	68 00 00 00 00	 push	 OFFSET ??_C@_03PCBNCGFH@pos@
  00029	e8 00 00 00 00	 call	 ?process_assert@@YGXPBD0H@Z ; process_assert
$LN5@get_closes:

; 546  : 		
; 547  : 	ASSERT (road_node_positions);

  0002e	83 3d 00 00 00
	00 00		 cmp	 DWORD PTR ?road_node_positions@@3PAUVEC3D@@A, 0 ; road_node_positions
  00035	75 18		 jne	 SHORT $LN6@get_closes
  00037	a1 00 00 00 00	 mov	 eax, DWORD PTR ?__LINE__Var@?0??get_closest_side_road_node@@YGHW4ENTITY_SIDES@@PAUVEC3D@@M@Z@4JA
  0003c	83 c0 0c	 add	 eax, 12			; 0000000cH
  0003f	50		 push	 eax
  00040	68 00 00 00 00	 push	 OFFSET ??_C@_0EB@GJLKGHAC@c?3?2users?2nhv90?2projects?2eech?2ap@
  00045	68 00 00 00 00	 push	 OFFSET ??_C@_0BE@BLOGCFGI@road_node_positions@
  0004a	e8 00 00 00 00	 call	 ?process_assert@@YGXPBD0H@Z ; process_assert
$LN6@get_closes:

; 548  : 
; 549  : 	best_range = 99999999;

  0004f	f3 0f 10 05 00
	00 00 00	 movss	 xmm0, DWORD PTR __real@4cbebc20
  00057	f3 0f 11 45 f0	 movss	 DWORD PTR _best_range$[ebp], xmm0

; 550  : 
; 551  : 	for (loop = 0; loop < total_number_of_road_nodes; loop ++)

  0005c	c7 45 fc 00 00
	00 00		 mov	 DWORD PTR _loop$[ebp], 0
  00063	eb 09		 jmp	 SHORT $LN4@get_closes
$LN2@get_closes:
  00065	8b 45 fc	 mov	 eax, DWORD PTR _loop$[ebp]
  00068	83 c0 01	 add	 eax, 1
  0006b	89 45 fc	 mov	 DWORD PTR _loop$[ebp], eax
$LN4@get_closes:
  0006e	8b 45 fc	 mov	 eax, DWORD PTR _loop$[ebp]
  00071	3b 05 00 00 00
	00		 cmp	 eax, DWORD PTR ?total_number_of_road_nodes@@3HA ; total_number_of_road_nodes
  00077	7d 57		 jge	 SHORT $LN3@get_closes

; 552  : 	{
; 553  : 
; 554  : //		if (road_nodes [loop].side_aware & side)
; 555  : 		{
; 556  : 
; 557  : 			if (road_nodes [loop].number_of_links > 0)

  00079	6b 45 fc 0c	 imul	 eax, DWORD PTR _loop$[ebp], 12
  0007d	8b 0d 00 00 00
	00		 mov	 ecx, DWORD PTR ?road_nodes@@3PAUNODE_DATA@@A ; road_nodes
  00083	8b 54 01 04	 mov	 edx, DWORD PTR [ecx+eax+4]
  00087	83 e2 7f	 and	 edx, 127		; 0000007fH
  0008a	76 42		 jbe	 SHORT $LN9@get_closes

; 558  : 			{
; 559  : 		
; 560  : 				range = get_approx_2d_range (&road_node_positions [loop], pos);

  0008c	8b 45 0c	 mov	 eax, DWORD PTR _pos$[ebp]
  0008f	50		 push	 eax
  00090	6b 4d fc 0c	 imul	 ecx, DWORD PTR _loop$[ebp], 12
  00094	03 0d 00 00 00
	00		 add	 ecx, DWORD PTR ?road_node_positions@@3PAUVEC3D@@A ; road_node_positions
  0009a	51		 push	 ecx
  0009b	e8 00 00 00 00	 call	 ?get_approx_2d_range@@YGMPBUVEC3D@@0@Z ; get_approx_2d_range
  000a0	d9 5d f4	 fstp	 DWORD PTR _range$[ebp]

; 561  : 		
; 562  : 				if (range < best_range)

  000a3	f3 0f 10 45 f0	 movss	 xmm0, DWORD PTR _best_range$[ebp]
  000a8	0f 2f 45 f4	 comiss	 xmm0, DWORD PTR _range$[ebp]
  000ac	76 20		 jbe	 SHORT $LN9@get_closes

; 563  : 				{
; 564  : 		
; 565  : 					best_range = range;

  000ae	f3 0f 10 45 f4	 movss	 xmm0, DWORD PTR _range$[ebp]
  000b3	f3 0f 11 45 f0	 movss	 DWORD PTR _best_range$[ebp], xmm0

; 566  : 		
; 567  : 					best_node = loop;

  000b8	8b 45 fc	 mov	 eax, DWORD PTR _loop$[ebp]
  000bb	89 45 f8	 mov	 DWORD PTR _best_node$[ebp], eax

; 568  : 		
; 569  : 					if (range <= error)

  000be	f3 0f 10 45 10	 movss	 xmm0, DWORD PTR _error$[ebp]
  000c3	0f 2f 45 f4	 comiss	 xmm0, DWORD PTR _range$[ebp]
  000c7	72 05		 jb	 SHORT $LN9@get_closes

; 570  : 					{
; 571  : 		
; 572  : 						return best_node;

  000c9	8b 45 f8	 mov	 eax, DWORD PTR _best_node$[ebp]
  000cc	eb 05		 jmp	 SHORT $LN1@get_closes
$LN9@get_closes:

; 573  : 					}
; 574  : 				}
; 575  : 			}
; 576  : 		}
; 577  : 	}

  000ce	eb 95		 jmp	 SHORT $LN2@get_closes
$LN3@get_closes:

; 578  : 
; 579  : 	#if LANDING_DEBUG >= 3
; 580  : 
; 581  : 	debug_log ("ROAD ROUTE: closest node to %f, %f is node %d at %f, %f", x, z, best_node, road_node_positions [best_node].x, road_node_positions [best_node].z);
; 582  : 
; 583  : 	#endif
; 584  : 
; 585  : 	return best_node;

  000d0	8b 45 f8	 mov	 eax, DWORD PTR _best_node$[ebp]
$LN1@get_closes:

; 586  : }

  000d3	5f		 pop	 edi
  000d4	5e		 pop	 esi
  000d5	5b		 pop	 ebx
  000d6	8b e5		 mov	 esp, ebp
  000d8	5d		 pop	 ebp
  000d9	c2 0c 00	 ret	 12			; 0000000cH
?get_closest_side_road_node@@YGHW4ENTITY_SIDES@@PAUVEC3D@@M@Z ENDP ; get_closest_side_road_node
_TEXT	ENDS
; Function compile flags: /Odtp /ZI
; File c:\users\nhv90\projects\eech\aphavoc\source\ai\ai_misc\ai_misc.c
;	COMDAT ?get_closest_road_node@@YGHPAUVEC3D@@M@Z
_TEXT	SEGMENT
_best_range$ = -16					; size = 4
_range$ = -12						; size = 4
_best_node$ = -8					; size = 4
_loop$ = -4						; size = 4
_pos$ = 8						; size = 4
_error$ = 12						; size = 4
?get_closest_road_node@@YGHPAUVEC3D@@M@Z PROC		; get_closest_road_node, COMDAT

; 481  : {

  00000	55		 push	 ebp
  00001	8b ec		 mov	 ebp, esp
  00003	83 ec 50	 sub	 esp, 80			; 00000050H
  00006	53		 push	 ebx
  00007	56		 push	 esi
  00008	57		 push	 edi

; 482  : 
; 483  : 	int
; 484  : 		loop,
; 485  : 		best_node = 0;

  00009	c7 45 f8 00 00
	00 00		 mov	 DWORD PTR _best_node$[ebp], 0

; 486  : 
; 487  : 	float
; 488  : 		range,
; 489  : 		best_range;
; 490  : 
; 491  : 	ASSERT (pos);

  00010	83 7d 08 00	 cmp	 DWORD PTR _pos$[ebp], 0
  00014	75 18		 jne	 SHORT $LN5@get_closes
  00016	a1 00 00 00 00	 mov	 eax, DWORD PTR ?__LINE__Var@?0??get_closest_road_node@@YGHPAUVEC3D@@M@Z@4JA
  0001b	83 c0 0a	 add	 eax, 10			; 0000000aH
  0001e	50		 push	 eax
  0001f	68 00 00 00 00	 push	 OFFSET ??_C@_0EB@GJLKGHAC@c?3?2users?2nhv90?2projects?2eech?2ap@
  00024	68 00 00 00 00	 push	 OFFSET ??_C@_03PCBNCGFH@pos@
  00029	e8 00 00 00 00	 call	 ?process_assert@@YGXPBD0H@Z ; process_assert
$LN5@get_closes:

; 492  : 		
; 493  : 	ASSERT (road_node_positions);

  0002e	83 3d 00 00 00
	00 00		 cmp	 DWORD PTR ?road_node_positions@@3PAUVEC3D@@A, 0 ; road_node_positions
  00035	75 18		 jne	 SHORT $LN6@get_closes
  00037	a1 00 00 00 00	 mov	 eax, DWORD PTR ?__LINE__Var@?0??get_closest_road_node@@YGHPAUVEC3D@@M@Z@4JA
  0003c	83 c0 0c	 add	 eax, 12			; 0000000cH
  0003f	50		 push	 eax
  00040	68 00 00 00 00	 push	 OFFSET ??_C@_0EB@GJLKGHAC@c?3?2users?2nhv90?2projects?2eech?2ap@
  00045	68 00 00 00 00	 push	 OFFSET ??_C@_0BE@BLOGCFGI@road_node_positions@
  0004a	e8 00 00 00 00	 call	 ?process_assert@@YGXPBD0H@Z ; process_assert
$LN6@get_closes:

; 494  : 
; 495  : 	best_range = 99999999;

  0004f	f3 0f 10 05 00
	00 00 00	 movss	 xmm0, DWORD PTR __real@4cbebc20
  00057	f3 0f 11 45 f0	 movss	 DWORD PTR _best_range$[ebp], xmm0

; 496  : 
; 497  : 	for (loop = 0; loop < total_number_of_road_nodes; loop ++)

  0005c	c7 45 fc 00 00
	00 00		 mov	 DWORD PTR _loop$[ebp], 0
  00063	eb 09		 jmp	 SHORT $LN4@get_closes
$LN2@get_closes:
  00065	8b 45 fc	 mov	 eax, DWORD PTR _loop$[ebp]
  00068	83 c0 01	 add	 eax, 1
  0006b	89 45 fc	 mov	 DWORD PTR _loop$[ebp], eax
$LN4@get_closes:
  0006e	8b 45 fc	 mov	 eax, DWORD PTR _loop$[ebp]
  00071	3b 05 00 00 00
	00		 cmp	 eax, DWORD PTR ?total_number_of_road_nodes@@3HA ; total_number_of_road_nodes
  00077	7d 57		 jge	 SHORT $LN3@get_closes

; 498  : 	{
; 499  : 
; 500  : 		if (road_nodes [loop].number_of_links > 0)

  00079	6b 45 fc 0c	 imul	 eax, DWORD PTR _loop$[ebp], 12
  0007d	8b 0d 00 00 00
	00		 mov	 ecx, DWORD PTR ?road_nodes@@3PAUNODE_DATA@@A ; road_nodes
  00083	8b 54 01 04	 mov	 edx, DWORD PTR [ecx+eax+4]
  00087	83 e2 7f	 and	 edx, 127		; 0000007fH
  0008a	76 42		 jbe	 SHORT $LN9@get_closes

; 501  : 		{
; 502  : 	
; 503  : 			range = get_approx_2d_range (&road_node_positions [loop], pos);

  0008c	8b 45 08	 mov	 eax, DWORD PTR _pos$[ebp]
  0008f	50		 push	 eax
  00090	6b 4d fc 0c	 imul	 ecx, DWORD PTR _loop$[ebp], 12
  00094	03 0d 00 00 00
	00		 add	 ecx, DWORD PTR ?road_node_positions@@3PAUVEC3D@@A ; road_node_positions
  0009a	51		 push	 ecx
  0009b	e8 00 00 00 00	 call	 ?get_approx_2d_range@@YGMPBUVEC3D@@0@Z ; get_approx_2d_range
  000a0	d9 5d f4	 fstp	 DWORD PTR _range$[ebp]

; 504  : 	
; 505  : 			if (range < best_range)

  000a3	f3 0f 10 45 f0	 movss	 xmm0, DWORD PTR _best_range$[ebp]
  000a8	0f 2f 45 f4	 comiss	 xmm0, DWORD PTR _range$[ebp]
  000ac	76 20		 jbe	 SHORT $LN9@get_closes

; 506  : 			{
; 507  : 	
; 508  : 				best_range = range;

  000ae	f3 0f 10 45 f4	 movss	 xmm0, DWORD PTR _range$[ebp]
  000b3	f3 0f 11 45 f0	 movss	 DWORD PTR _best_range$[ebp], xmm0

; 509  : 	
; 510  : 				best_node = loop;

  000b8	8b 45 fc	 mov	 eax, DWORD PTR _loop$[ebp]
  000bb	89 45 f8	 mov	 DWORD PTR _best_node$[ebp], eax

; 511  : 	
; 512  : 				if (range <= error)

  000be	f3 0f 10 45 0c	 movss	 xmm0, DWORD PTR _error$[ebp]
  000c3	0f 2f 45 f4	 comiss	 xmm0, DWORD PTR _range$[ebp]
  000c7	72 05		 jb	 SHORT $LN9@get_closes

; 513  : 				{
; 514  : 	
; 515  : 					return best_node;

  000c9	8b 45 f8	 mov	 eax, DWORD PTR _best_node$[ebp]
  000cc	eb 05		 jmp	 SHORT $LN1@get_closes
$LN9@get_closes:

; 516  : 				}
; 517  : 			}
; 518  : 		}
; 519  : 	}

  000ce	eb 95		 jmp	 SHORT $LN2@get_closes
$LN3@get_closes:

; 520  : 
; 521  : 	#if LANDING_DEBUG >= 3
; 522  : 
; 523  : 	debug_log ("ROAD ROUTE: closest node to %f, %f is node %d at %f, %f", x, z, best_node, road_node_positions [best_node].x, road_node_positions [best_node].z);
; 524  : 
; 525  : 	#endif
; 526  : 
; 527  : 	return best_node;

  000d0	8b 45 f8	 mov	 eax, DWORD PTR _best_node$[ebp]
$LN1@get_closes:

; 528  : }

  000d3	5f		 pop	 edi
  000d4	5e		 pop	 esi
  000d5	5b		 pop	 ebx
  000d6	8b e5		 mov	 esp, ebp
  000d8	5d		 pop	 ebp
  000d9	c2 08 00	 ret	 8
?get_closest_road_node@@YGHPAUVEC3D@@M@Z ENDP		; get_closest_road_node
_TEXT	ENDS
; Function compile flags: /Odtp /ZI
; File c:\users\nhv90\projects\eech\aphavoc\source\ai\ai_misc\ai_misc.c
;	COMDAT ?get_closest_mobile_entity@@YGPAUENTITY@@PAUVEC3D@@@Z
_TEXT	SEGMENT
tv130 = -112						; size = 4
tv77 = -112						; size = 4
tv90 = -108						; size = 4
tv70 = -108						; size = 4
_test_pos$ = -40					; size = 12
_pos2$ = -28						; size = 12
_best_range$ = -16					; size = 4
_range$ = -12						; size = 4
_en$ = -8						; size = 4
_closest_en$ = -4					; size = 4
_pos$ = 8						; size = 4
?get_closest_mobile_entity@@YGPAUENTITY@@PAUVEC3D@@@Z PROC ; get_closest_mobile_entity, COMDAT

; 1024 : {

  00000	55		 push	 ebp
  00001	8b ec		 mov	 ebp, esp
  00003	83 ec 70	 sub	 esp, 112		; 00000070H
  00006	53		 push	 ebx
  00007	56		 push	 esi
  00008	57		 push	 edi

; 1025 : 
; 1026 : 	entity
; 1027 : 		*closest_en = NULL,

  00009	c7 45 fc 00 00
	00 00		 mov	 DWORD PTR _closest_en$[ebp], 0

; 1028 : 		*en;
; 1029 : 
; 1030 : 	int
; 1031 : 		range,
; 1032 : 		best_range = INT_MAX;

  00010	c7 45 f0 ff ff
	ff 7f		 mov	 DWORD PTR _best_range$[ebp], 2147483647 ; 7fffffffH

; 1033 : 
; 1034 : 	vec3d
; 1035 : 		pos2,
; 1036 : 		test_pos;
; 1037 : 
; 1038 : 	en = get_local_entity_list ();

  00017	a1 00 00 00 00	 mov	 eax, DWORD PTR ?first_used_entity@@3PAUENTITY@@A ; first_used_entity
  0001c	89 45 f8	 mov	 DWORD PTR _en$[ebp], eax
$LN2@get_closes:

; 1039 : 
; 1040 : 	while (en)

  0001f	83 7d f8 00	 cmp	 DWORD PTR _en$[ebp], 0
  00023	0f 84 71 01 00
	00		 je	 $LN3@get_closes

; 1041 : 	{
; 1042 : 
; 1043 : 		if (get_local_entity_int_value (en, INT_TYPE_IDENTIFY_MOBILE))

  00029	83 7d f8 00	 cmp	 DWORD PTR _en$[ebp], 0
  0002d	74 0a		 je	 SHORT $LN8@get_closes
  0002f	8b 45 f8	 mov	 eax, DWORD PTR _en$[ebp]
  00032	8b 08		 mov	 ecx, DWORD PTR [eax]
  00034	89 4d 94	 mov	 DWORD PTR tv70[ebp], ecx
  00037	eb 1d		 jmp	 SHORT $LN9@get_closes
$LN8@get_closes:
  00039	68 13 04 00 00	 push	 1043			; 00000413H
  0003e	68 00 00 00 00	 push	 OFFSET ??_C@_0EB@GJLKGHAC@c?3?2users?2nhv90?2projects?2eech?2ap@
  00043	8b 15 00 00 00
	00		 mov	 edx, DWORD PTR ?null_entity_pointer_message@@3PBDB ; null_entity_pointer_message
  00049	52		 push	 edx
  0004a	e8 00 00 00 00	 call	 ?process_assert@@YGXPBD0H@Z ; process_assert
  0004f	c7 45 94 00 00
	00 00		 mov	 DWORD PTR tv70[ebp], 0
$LN9@get_closes:
  00056	b8 01 00 00 00	 mov	 eax, 1
  0005b	85 c0		 test	 eax, eax
  0005d	74 09		 je	 SHORT $LN10@get_closes
  0005f	c7 45 90 5d 00
	00 00		 mov	 DWORD PTR tv77[ebp], 93	; 0000005dH
  00066	eb 1d		 jmp	 SHORT $LN11@get_closes
$LN10@get_closes:
  00068	68 13 04 00 00	 push	 1043			; 00000413H
  0006d	68 00 00 00 00	 push	 OFFSET ??_C@_0EB@GJLKGHAC@c?3?2users?2nhv90?2projects?2eech?2ap@
  00072	8b 0d 00 00 00
	00		 mov	 ecx, DWORD PTR ?overload_invalid_int_type_message@@3PBDB ; overload_invalid_int_type_message
  00078	51		 push	 ecx
  00079	e8 00 00 00 00	 call	 ?process_assert@@YGXPBD0H@Z ; process_assert
  0007e	c7 45 90 00 00
	00 00		 mov	 DWORD PTR tv77[ebp], 0
$LN11@get_closes:
  00085	6a 5d		 push	 93			; 0000005dH
  00087	8b 55 f8	 mov	 edx, DWORD PTR _en$[ebp]
  0008a	52		 push	 edx
  0008b	69 45 94 5c 04
	00 00		 imul	 eax, DWORD PTR tv70[ebp], 1116
  00092	8b 4d 90	 mov	 ecx, DWORD PTR tv77[ebp]
  00095	8b 94 88 00 00
	00 00		 mov	 edx, DWORD PTR ?fn_get_local_entity_int_value@@3PAY0BBH@P6GHPAUENTITY@@W4INT_TYPES@@@ZA[eax+ecx*4]
  0009c	ff d2		 call	 edx
  0009e	85 c0		 test	 eax, eax
  000a0	0f 84 e6 00 00
	00		 je	 $LN6@get_closes

; 1044 : 		{
; 1045 : 	
; 1046 : 			get_local_entity_vec3d (en, VEC3D_TYPE_POSITION, &pos2);

  000a6	83 7d f8 00	 cmp	 DWORD PTR _en$[ebp], 0
  000aa	74 0a		 je	 SHORT $LN12@get_closes
  000ac	8b 45 f8	 mov	 eax, DWORD PTR _en$[ebp]
  000af	8b 08		 mov	 ecx, DWORD PTR [eax]
  000b1	89 4d 94	 mov	 DWORD PTR tv90[ebp], ecx
  000b4	eb 21		 jmp	 SHORT $LN13@get_closes
$LN12@get_closes:
  000b6	8b 15 00 00 00
	00		 mov	 edx, DWORD PTR ?__LINE__Var@?0??get_closest_mobile_entity@@YGPAUENTITY@@PAUVEC3D@@@Z@4JA
  000bc	83 c2 16	 add	 edx, 22			; 00000016H
  000bf	52		 push	 edx
  000c0	68 00 00 00 00	 push	 OFFSET ??_C@_0EB@GJLKGHAC@c?3?2users?2nhv90?2projects?2eech?2ap@
  000c5	a1 00 00 00 00	 mov	 eax, DWORD PTR ?null_entity_pointer_message@@3PBDB ; null_entity_pointer_message
  000ca	50		 push	 eax
  000cb	e8 00 00 00 00	 call	 ?process_assert@@YGXPBD0H@Z ; process_assert
  000d0	c7 45 94 00 00
	00 00		 mov	 DWORD PTR tv90[ebp], 0
$LN13@get_closes:
  000d7	b9 01 00 00 00	 mov	 ecx, 1
  000dc	85 c9		 test	 ecx, ecx
  000de	74 09		 je	 SHORT $LN14@get_closes
  000e0	c7 45 90 08 00
	00 00		 mov	 DWORD PTR tv130[ebp], 8
  000e7	eb 21		 jmp	 SHORT $LN15@get_closes
$LN14@get_closes:
  000e9	8b 15 00 00 00
	00		 mov	 edx, DWORD PTR ?__LINE__Var@?0??get_closest_mobile_entity@@YGPAUENTITY@@PAUVEC3D@@@Z@4JA
  000ef	83 c2 16	 add	 edx, 22			; 00000016H
  000f2	52		 push	 edx
  000f3	68 00 00 00 00	 push	 OFFSET ??_C@_0EB@GJLKGHAC@c?3?2users?2nhv90?2projects?2eech?2ap@
  000f8	a1 00 00 00 00	 mov	 eax, DWORD PTR ?overload_invalid_vec3d_type_message@@3PBDB ; overload_invalid_vec3d_type_message
  000fd	50		 push	 eax
  000fe	e8 00 00 00 00	 call	 ?process_assert@@YGXPBD0H@Z ; process_assert
  00103	c7 45 90 00 00
	00 00		 mov	 DWORD PTR tv130[ebp], 0
$LN15@get_closes:
  0010a	8d 4d e4	 lea	 ecx, DWORD PTR _pos2$[ebp]
  0010d	51		 push	 ecx
  0010e	6a 08		 push	 8
  00110	8b 55 f8	 mov	 edx, DWORD PTR _en$[ebp]
  00113	52		 push	 edx
  00114	6b 45 94 60	 imul	 eax, DWORD PTR tv90[ebp], 96
  00118	8b 4d 90	 mov	 ecx, DWORD PTR tv130[ebp]
  0011b	8b 94 88 00 00
	00 00		 mov	 edx, DWORD PTR ?fn_get_local_entity_vec3d@@3PAY0BI@P6GXPAUENTITY@@W4VEC3D_TYPES@@PAUVEC3D@@@ZA[eax+ecx*4]
  00122	ff d2		 call	 edx

; 1047 : 	
; 1048 : 			test_pos.x = pos->x - pos2.x;

  00124	8b 45 08	 mov	 eax, DWORD PTR _pos$[ebp]
  00127	f3 0f 10 00	 movss	 xmm0, DWORD PTR [eax]
  0012b	f3 0f 5c 45 e4	 subss	 xmm0, DWORD PTR _pos2$[ebp]
  00130	f3 0f 11 45 d8	 movss	 DWORD PTR _test_pos$[ebp], xmm0

; 1049 : 	
; 1050 : 			test_pos.y = 0.0;

  00135	0f 57 c0	 xorps	 xmm0, xmm0
  00138	f3 0f 11 45 dc	 movss	 DWORD PTR _test_pos$[ebp+4], xmm0

; 1051 : 	
; 1052 : 			test_pos.z = pos->z - pos2.z;

  0013d	8b 45 08	 mov	 eax, DWORD PTR _pos$[ebp]
  00140	f3 0f 10 40 08	 movss	 xmm0, DWORD PTR [eax+8]
  00145	f3 0f 5c 45 ec	 subss	 xmm0, DWORD PTR _pos2$[ebp+8]
  0014a	f3 0f 11 45 e0	 movss	 DWORD PTR _test_pos$[ebp+8], xmm0

; 1053 : 	
; 1054 : 			range = get_3d_vector_magnitude (&test_pos);

  0014f	8d 45 d8	 lea	 eax, DWORD PTR _test_pos$[ebp]
  00152	50		 push	 eax
  00153	e8 00 00 00 00	 call	 ?get_3d_vector_magnitude@@YGMPBUVEC3D@@@Z ; get_3d_vector_magnitude
  00158	e8 00 00 00 00	 call	 __ftol2_sse
  0015d	89 45 f4	 mov	 DWORD PTR _range$[ebp], eax

; 1055 : 	
; 1056 : 			if (range < best_range)

  00160	8b 45 f4	 mov	 eax, DWORD PTR _range$[ebp]
  00163	3b 45 f0	 cmp	 eax, DWORD PTR _best_range$[ebp]
  00166	7d 24		 jge	 SHORT $LN6@get_closes

; 1057 : 			{
; 1058 : 	
; 1059 : 				best_range = range;

  00168	8b 45 f4	 mov	 eax, DWORD PTR _range$[ebp]
  0016b	89 45 f0	 mov	 DWORD PTR _best_range$[ebp], eax

; 1060 : 	
; 1061 : 				closest_en = en;

  0016e	8b 45 f8	 mov	 eax, DWORD PTR _en$[ebp]
  00171	89 45 fc	 mov	 DWORD PTR _closest_en$[ebp], eax

; 1062 : 	
; 1063 : 				if (range < 1.0)

  00174	f2 0f 2a 45 f4	 cvtsi2sd xmm0, DWORD PTR _range$[ebp]
  00179	f2 0f 10 0d 00
	00 00 00	 movsd	 xmm1, QWORD PTR __real@3ff0000000000000
  00181	66 0f 2f c8	 comisd	 xmm1, xmm0
  00185	76 05		 jbe	 SHORT $LN6@get_closes

; 1064 : 				{
; 1065 : 				
; 1066 : 					return closest_en;

  00187	8b 45 fc	 mov	 eax, DWORD PTR _closest_en$[ebp]
  0018a	eb 11		 jmp	 SHORT $LN1@get_closes
$LN6@get_closes:

; 1067 : 				}
; 1068 : 			}
; 1069 : 		}
; 1070 : 
; 1071 : 		en = get_local_entity_succ (en);

  0018c	8b 45 f8	 mov	 eax, DWORD PTR _en$[ebp]
  0018f	8b 48 08	 mov	 ecx, DWORD PTR [eax+8]
  00192	89 4d f8	 mov	 DWORD PTR _en$[ebp], ecx

; 1072 : 	}

  00195	e9 85 fe ff ff	 jmp	 $LN2@get_closes
$LN3@get_closes:

; 1073 : 	
; 1074 : 	return closest_en;

  0019a	8b 45 fc	 mov	 eax, DWORD PTR _closest_en$[ebp]
$LN1@get_closes:

; 1075 : }

  0019d	5f		 pop	 edi
  0019e	5e		 pop	 esi
  0019f	5b		 pop	 ebx
  001a0	8b e5		 mov	 esp, ebp
  001a2	5d		 pop	 ebp
  001a3	c2 04 00	 ret	 4
?get_closest_mobile_entity@@YGPAUENTITY@@PAUVEC3D@@@Z ENDP ; get_closest_mobile_entity
_TEXT	ENDS
; Function compile flags: /Odtp /ZI
; File c:\users\nhv90\projects\eech\aphavoc\source\ai\ai_misc\ai_misc.c
;	COMDAT ?get_closest_free_landing_site@@YGPAUENTITY@@HPAU1@PAUVEC3D@@MPAMH@Z
_TEXT	SEGMENT
tv499 = -168						; size = 4
tv491 = -164						; size = 4
tv476 = -160						; size = 4
tv468 = -156						; size = 4
tv455 = -152						; size = 4
tv447 = -148						; size = 4
tv432 = -144						; size = 4
tv424 = -140						; size = 4
tv680 = -136						; size = 4
tv411 = -136						; size = 4
tv229 = -136						; size = 4
tv672 = -132						; size = 4
tv403 = -132						; size = 4
tv221 = -132						; size = 4
tv770 = -128						; size = 4
tv750 = -128						; size = 4
tv727 = -128						; size = 4
tv702 = -128						; size = 4
tv660 = -128						; size = 4
tv639 = -128						; size = 4
tv620 = -128						; size = 4
tv599 = -128						; size = 4
tv580 = -128						; size = 4
tv561 = -128						; size = 4
tv541 = -128						; size = 4
tv521 = -128						; size = 4
tv390 = -128						; size = 4
tv367 = -128						; size = 4
tv346 = -128						; size = 4
tv325 = -128						; size = 4
tv297 = -128						; size = 4
tv277 = -128						; size = 4
tv251 = -128						; size = 4
tv209 = -128						; size = 4
tv188 = -128						; size = 4
tv169 = -128						; size = 4
tv148 = -128						; size = 4
tv129 = -128						; size = 4
tv78 = -128						; size = 4
tv762 = -124						; size = 4
tv742 = -124						; size = 4
tv719 = -124						; size = 4
tv694 = -124						; size = 4
tv652 = -124						; size = 4
tv632 = -124						; size = 4
tv612 = -124						; size = 4
tv592 = -124						; size = 4
tv573 = -124						; size = 4
tv553 = -124						; size = 4
tv533 = -124						; size = 4
tv513 = -124						; size = 4
tv382 = -124						; size = 4
tv359 = -124						; size = 4
tv338 = -124						; size = 4
tv317 = -124						; size = 4
tv289 = -124						; size = 4
tv269 = -124						; size = 4
tv243 = -124						; size = 4
tv201 = -124						; size = 4
tv181 = -124						; size = 4
tv161 = -124						; size = 4
tv141 = -124						; size = 4
tv90 = -124						; size = 4
tv70 = -124						; size = 4
_current_landing$1 = -56				; size = 4
_current_keysite$2 = -52				; size = 4
_closest_landing$3 = -48				; size = 4
_landing_pos$4 = -44					; size = 4
_range$5 = -40						; size = 4
_best_range$6 = -36					; size = 4
_sites_available$7 = -32				; size = 4
_current_landing$ = -28					; size = 4
_current_keysite$ = -24					; size = 4
_closest_landing$ = -20					; size = 4
_landing_pos$ = -16					; size = 4
_range$ = -12						; size = 4
_best_range$ = -8					; size = 4
_sites_available$ = -4					; size = 4
_sub_type$ = 8						; size = 4
_force$ = 12						; size = 4
_pos$ = 16						; size = 4
_min_range$ = 20					; size = 4
_actual_range$ = 24					; size = 4
_sites_required$ = 28					; size = 4
?get_closest_free_landing_site@@YGPAUENTITY@@HPAU1@PAUVEC3D@@MPAMH@Z PROC ; get_closest_free_landing_site, COMDAT

; 239  : {

  00000	55		 push	 ebp
  00001	8b ec		 mov	 ebp, esp
  00003	81 ec a8 00 00
	00		 sub	 esp, 168		; 000000a8H
  00009	53		 push	 ebx
  0000a	56		 push	 esi
  0000b	57		 push	 edi

; 240  : 
; 241  : 	int
; 242  : 		sites_available;
; 243  : 
; 244  : 	float
; 245  : 		best_range,
; 246  : 		range;
; 247  : 
; 248  : 	vec3d
; 249  : 		*landing_pos;
; 250  : 
; 251  : 	entity
; 252  : 		*closest_landing = NULL,

  0000c	c7 45 ec 00 00
	00 00		 mov	 DWORD PTR _closest_landing$[ebp], 0

; 253  : 		*current_keysite,
; 254  : 		*current_landing;
; 255  : 
; 256  : 	best_range = 99999999;

  00013	f3 0f 10 05 00
	00 00 00	 movss	 xmm0, DWORD PTR __real@4cbebc20
  0001b	f3 0f 11 45 f8	 movss	 DWORD PTR _best_range$[ebp], xmm0

; 257  : 
; 258  : 	current_keysite = get_local_entity_first_child (force, LIST_TYPE_KEYSITE_FORCE);

  00020	83 7d 0c 00	 cmp	 DWORD PTR _force$[ebp], 0
  00024	74 0a		 je	 SHORT $LN32@get_closes
  00026	8b 45 0c	 mov	 eax, DWORD PTR _force$[ebp]
  00029	8b 08		 mov	 ecx, DWORD PTR [eax]
  0002b	89 4d 84	 mov	 DWORD PTR tv70[ebp], ecx
  0002e	eb 21		 jmp	 SHORT $LN33@get_closes
$LN32@get_closes:
  00030	8b 15 00 00 00
	00		 mov	 edx, DWORD PTR ?__LINE__Var@?0??get_closest_free_landing_site@@YGPAUENTITY@@HPAU2@PAUVEC3D@@MPAMH@Z@4JA
  00036	83 c2 13	 add	 edx, 19			; 00000013H
  00039	52		 push	 edx
  0003a	68 00 00 00 00	 push	 OFFSET ??_C@_0EB@GJLKGHAC@c?3?2users?2nhv90?2projects?2eech?2ap@
  0003f	a1 00 00 00 00	 mov	 eax, DWORD PTR ?null_entity_pointer_message@@3PBDB ; null_entity_pointer_message
  00044	50		 push	 eax
  00045	e8 00 00 00 00	 call	 ?process_assert@@YGXPBD0H@Z ; process_assert
  0004a	c7 45 84 00 00
	00 00		 mov	 DWORD PTR tv70[ebp], 0
$LN33@get_closes:
  00051	b9 01 00 00 00	 mov	 ecx, 1
  00056	85 c9		 test	 ecx, ecx
  00058	74 09		 je	 SHORT $LN34@get_closes
  0005a	c7 45 80 15 00
	00 00		 mov	 DWORD PTR tv78[ebp], 21	; 00000015H
  00061	eb 21		 jmp	 SHORT $LN35@get_closes
$LN34@get_closes:
  00063	8b 15 00 00 00
	00		 mov	 edx, DWORD PTR ?__LINE__Var@?0??get_closest_free_landing_site@@YGPAUENTITY@@HPAU2@PAUVEC3D@@MPAMH@Z@4JA
  00069	83 c2 13	 add	 edx, 19			; 00000013H
  0006c	52		 push	 edx
  0006d	68 00 00 00 00	 push	 OFFSET ??_C@_0EB@GJLKGHAC@c?3?2users?2nhv90?2projects?2eech?2ap@
  00072	a1 00 00 00 00	 mov	 eax, DWORD PTR ?overload_invalid_list_type_message@@3PBDB ; overload_invalid_list_type_message
  00077	50		 push	 eax
  00078	e8 00 00 00 00	 call	 ?process_assert@@YGXPBD0H@Z ; process_assert
  0007d	c7 45 80 00 00
	00 00		 mov	 DWORD PTR tv78[ebp], 0
$LN35@get_closes:
  00084	6a 15		 push	 21			; 00000015H
  00086	8b 4d 0c	 mov	 ecx, DWORD PTR _force$[ebp]
  00089	51		 push	 ecx
  0008a	69 55 84 b4 00
	00 00		 imul	 edx, DWORD PTR tv70[ebp], 180
  00091	8b 45 80	 mov	 eax, DWORD PTR tv78[ebp]
  00094	8b 8c 82 00 00
	00 00		 mov	 ecx, DWORD PTR ?fn_get_local_entity_first_child@@3PAY0CN@P6GPAUENTITY@@PAU1@W4LIST_TYPES@@@ZA[edx+eax*4]
  0009b	ff d1		 call	 ecx
  0009d	89 45 e8	 mov	 DWORD PTR _current_keysite$[ebp], eax
$LN2@get_closes:

; 259  : 
; 260  : 	while (current_keysite)

  000a0	83 7d e8 00	 cmp	 DWORD PTR _current_keysite$[ebp], 0
  000a4	0f 84 fb 04 00
	00		 je	 $LN3@get_closes

; 261  : 	{
; 262  : 		if (get_local_entity_int_value (current_keysite, INT_TYPE_IN_USE))

  000aa	83 7d e8 00	 cmp	 DWORD PTR _current_keysite$[ebp], 0
  000ae	74 0a		 je	 SHORT $LN36@get_closes
  000b0	8b 45 e8	 mov	 eax, DWORD PTR _current_keysite$[ebp]
  000b3	8b 08		 mov	 ecx, DWORD PTR [eax]
  000b5	89 4d 84	 mov	 DWORD PTR tv90[ebp], ecx
  000b8	eb 1d		 jmp	 SHORT $LN37@get_closes
$LN36@get_closes:
  000ba	68 06 01 00 00	 push	 262			; 00000106H
  000bf	68 00 00 00 00	 push	 OFFSET ??_C@_0EB@GJLKGHAC@c?3?2users?2nhv90?2projects?2eech?2ap@
  000c4	8b 15 00 00 00
	00		 mov	 edx, DWORD PTR ?null_entity_pointer_message@@3PBDB ; null_entity_pointer_message
  000ca	52		 push	 edx
  000cb	e8 00 00 00 00	 call	 ?process_assert@@YGXPBD0H@Z ; process_assert
  000d0	c7 45 84 00 00
	00 00		 mov	 DWORD PTR tv90[ebp], 0
$LN37@get_closes:
  000d7	b8 01 00 00 00	 mov	 eax, 1
  000dc	85 c0		 test	 eax, eax
  000de	74 09		 je	 SHORT $LN38@get_closes
  000e0	c7 45 80 6d 00
	00 00		 mov	 DWORD PTR tv129[ebp], 109 ; 0000006dH
  000e7	eb 1d		 jmp	 SHORT $LN39@get_closes
$LN38@get_closes:
  000e9	68 06 01 00 00	 push	 262			; 00000106H
  000ee	68 00 00 00 00	 push	 OFFSET ??_C@_0EB@GJLKGHAC@c?3?2users?2nhv90?2projects?2eech?2ap@
  000f3	8b 0d 00 00 00
	00		 mov	 ecx, DWORD PTR ?overload_invalid_int_type_message@@3PBDB ; overload_invalid_int_type_message
  000f9	51		 push	 ecx
  000fa	e8 00 00 00 00	 call	 ?process_assert@@YGXPBD0H@Z ; process_assert
  000ff	c7 45 80 00 00
	00 00		 mov	 DWORD PTR tv129[ebp], 0
$LN39@get_closes:
  00106	6a 6d		 push	 109			; 0000006dH
  00108	8b 55 e8	 mov	 edx, DWORD PTR _current_keysite$[ebp]
  0010b	52		 push	 edx
  0010c	69 45 84 5c 04
	00 00		 imul	 eax, DWORD PTR tv90[ebp], 1116
  00113	8b 4d 80	 mov	 ecx, DWORD PTR tv129[ebp]
  00116	8b 94 88 00 00
	00 00		 mov	 edx, DWORD PTR ?fn_get_local_entity_int_value@@3PAY0BBH@P6GHPAUENTITY@@W4INT_TYPES@@@ZA[eax+ecx*4]
  0011d	ff d2		 call	 edx
  0011f	85 c0		 test	 eax, eax
  00121	0f 84 f9 03 00
	00		 je	 $LN5@get_closes

; 263  : 		{
; 264  : 			if (get_local_entity_int_value (current_keysite, INT_TYPE_KEYSITE_USABLE_STATE) == KEYSITE_STATE_USABLE)

  00127	83 7d e8 00	 cmp	 DWORD PTR _current_keysite$[ebp], 0
  0012b	74 0a		 je	 SHORT $LN40@get_closes
  0012d	8b 45 e8	 mov	 eax, DWORD PTR _current_keysite$[ebp]
  00130	8b 08		 mov	 ecx, DWORD PTR [eax]
  00132	89 4d 84	 mov	 DWORD PTR tv141[ebp], ecx
  00135	eb 1d		 jmp	 SHORT $LN41@get_closes
$LN40@get_closes:
  00137	68 08 01 00 00	 push	 264			; 00000108H
  0013c	68 00 00 00 00	 push	 OFFSET ??_C@_0EB@GJLKGHAC@c?3?2users?2nhv90?2projects?2eech?2ap@
  00141	8b 15 00 00 00
	00		 mov	 edx, DWORD PTR ?null_entity_pointer_message@@3PBDB ; null_entity_pointer_message
  00147	52		 push	 edx
  00148	e8 00 00 00 00	 call	 ?process_assert@@YGXPBD0H@Z ; process_assert
  0014d	c7 45 84 00 00
	00 00		 mov	 DWORD PTR tv141[ebp], 0
$LN41@get_closes:
  00154	b8 01 00 00 00	 mov	 eax, 1
  00159	85 c0		 test	 eax, eax
  0015b	74 09		 je	 SHORT $LN42@get_closes
  0015d	c7 45 80 70 00
	00 00		 mov	 DWORD PTR tv148[ebp], 112 ; 00000070H
  00164	eb 1d		 jmp	 SHORT $LN43@get_closes
$LN42@get_closes:
  00166	68 08 01 00 00	 push	 264			; 00000108H
  0016b	68 00 00 00 00	 push	 OFFSET ??_C@_0EB@GJLKGHAC@c?3?2users?2nhv90?2projects?2eech?2ap@
  00170	8b 0d 00 00 00
	00		 mov	 ecx, DWORD PTR ?overload_invalid_int_type_message@@3PBDB ; overload_invalid_int_type_message
  00176	51		 push	 ecx
  00177	e8 00 00 00 00	 call	 ?process_assert@@YGXPBD0H@Z ; process_assert
  0017c	c7 45 80 00 00
	00 00		 mov	 DWORD PTR tv148[ebp], 0
$LN43@get_closes:
  00183	6a 70		 push	 112			; 00000070H
  00185	8b 55 e8	 mov	 edx, DWORD PTR _current_keysite$[ebp]
  00188	52		 push	 edx
  00189	69 45 84 5c 04
	00 00		 imul	 eax, DWORD PTR tv141[ebp], 1116
  00190	8b 4d 80	 mov	 ecx, DWORD PTR tv148[ebp]
  00193	8b 94 88 00 00
	00 00		 mov	 edx, DWORD PTR ?fn_get_local_entity_int_value@@3PAY0BBH@P6GHPAUENTITY@@W4INT_TYPES@@@ZA[eax+ecx*4]
  0019a	ff d2		 call	 edx
  0019c	85 c0		 test	 eax, eax
  0019e	0f 85 7c 03 00
	00		 jne	 $LN5@get_closes

; 265  : 			{
; 266  : 				current_landing = get_local_entity_first_child (current_keysite, LIST_TYPE_LANDING_SITE);

  001a4	83 7d e8 00	 cmp	 DWORD PTR _current_keysite$[ebp], 0
  001a8	74 0a		 je	 SHORT $LN44@get_closes
  001aa	8b 45 e8	 mov	 eax, DWORD PTR _current_keysite$[ebp]
  001ad	8b 08		 mov	 ecx, DWORD PTR [eax]
  001af	89 4d 84	 mov	 DWORD PTR tv161[ebp], ecx
  001b2	eb 21		 jmp	 SHORT $LN45@get_closes
$LN44@get_closes:
  001b4	8b 15 00 00 00
	00		 mov	 edx, DWORD PTR ?__LINE__Var@?0??get_closest_free_landing_site@@YGPAUENTITY@@HPAU2@PAUVEC3D@@MPAMH@Z@4JA
  001ba	83 c2 1b	 add	 edx, 27			; 0000001bH
  001bd	52		 push	 edx
  001be	68 00 00 00 00	 push	 OFFSET ??_C@_0EB@GJLKGHAC@c?3?2users?2nhv90?2projects?2eech?2ap@
  001c3	a1 00 00 00 00	 mov	 eax, DWORD PTR ?null_entity_pointer_message@@3PBDB ; null_entity_pointer_message
  001c8	50		 push	 eax
  001c9	e8 00 00 00 00	 call	 ?process_assert@@YGXPBD0H@Z ; process_assert
  001ce	c7 45 84 00 00
	00 00		 mov	 DWORD PTR tv161[ebp], 0
$LN45@get_closes:
  001d5	b9 01 00 00 00	 mov	 ecx, 1
  001da	85 c9		 test	 ecx, ecx
  001dc	74 09		 je	 SHORT $LN46@get_closes
  001de	c7 45 80 17 00
	00 00		 mov	 DWORD PTR tv169[ebp], 23 ; 00000017H
  001e5	eb 21		 jmp	 SHORT $LN47@get_closes
$LN46@get_closes:
  001e7	8b 15 00 00 00
	00		 mov	 edx, DWORD PTR ?__LINE__Var@?0??get_closest_free_landing_site@@YGPAUENTITY@@HPAU2@PAUVEC3D@@MPAMH@Z@4JA
  001ed	83 c2 1b	 add	 edx, 27			; 0000001bH
  001f0	52		 push	 edx
  001f1	68 00 00 00 00	 push	 OFFSET ??_C@_0EB@GJLKGHAC@c?3?2users?2nhv90?2projects?2eech?2ap@
  001f6	a1 00 00 00 00	 mov	 eax, DWORD PTR ?overload_invalid_list_type_message@@3PBDB ; overload_invalid_list_type_message
  001fb	50		 push	 eax
  001fc	e8 00 00 00 00	 call	 ?process_assert@@YGXPBD0H@Z ; process_assert
  00201	c7 45 80 00 00
	00 00		 mov	 DWORD PTR tv169[ebp], 0
$LN47@get_closes:
  00208	6a 17		 push	 23			; 00000017H
  0020a	8b 4d e8	 mov	 ecx, DWORD PTR _current_keysite$[ebp]
  0020d	51		 push	 ecx
  0020e	69 55 84 b4 00
	00 00		 imul	 edx, DWORD PTR tv161[ebp], 180
  00215	8b 45 80	 mov	 eax, DWORD PTR tv169[ebp]
  00218	8b 8c 82 00 00
	00 00		 mov	 ecx, DWORD PTR ?fn_get_local_entity_first_child@@3PAY0CN@P6GPAUENTITY@@PAU1@W4LIST_TYPES@@@ZA[edx+eax*4]
  0021f	ff d1		 call	 ecx
  00221	89 45 e4	 mov	 DWORD PTR _current_landing$[ebp], eax
$LN4@get_closes:

; 267  : 		
; 268  : 				while (current_landing)

  00224	83 7d e4 00	 cmp	 DWORD PTR _current_landing$[ebp], 0
  00228	0f 84 f2 02 00
	00		 je	 $LN5@get_closes

; 269  : 				{
; 270  : 		
; 271  : 					if (get_local_entity_int_value (current_landing, INT_TYPE_ENTITY_SUB_TYPE) == sub_type)

  0022e	83 7d e4 00	 cmp	 DWORD PTR _current_landing$[ebp], 0
  00232	74 0a		 je	 SHORT $LN48@get_closes
  00234	8b 45 e4	 mov	 eax, DWORD PTR _current_landing$[ebp]
  00237	8b 08		 mov	 ecx, DWORD PTR [eax]
  00239	89 4d 84	 mov	 DWORD PTR tv181[ebp], ecx
  0023c	eb 1d		 jmp	 SHORT $LN49@get_closes
$LN48@get_closes:
  0023e	68 0f 01 00 00	 push	 271			; 0000010fH
  00243	68 00 00 00 00	 push	 OFFSET ??_C@_0EB@GJLKGHAC@c?3?2users?2nhv90?2projects?2eech?2ap@
  00248	8b 15 00 00 00
	00		 mov	 edx, DWORD PTR ?null_entity_pointer_message@@3PBDB ; null_entity_pointer_message
  0024e	52		 push	 edx
  0024f	e8 00 00 00 00	 call	 ?process_assert@@YGXPBD0H@Z ; process_assert
  00254	c7 45 84 00 00
	00 00		 mov	 DWORD PTR tv181[ebp], 0
$LN49@get_closes:
  0025b	b8 01 00 00 00	 mov	 eax, 1
  00260	85 c0		 test	 eax, eax
  00262	74 09		 je	 SHORT $LN50@get_closes
  00264	c7 45 80 34 00
	00 00		 mov	 DWORD PTR tv188[ebp], 52 ; 00000034H
  0026b	eb 1d		 jmp	 SHORT $LN51@get_closes
$LN50@get_closes:
  0026d	68 0f 01 00 00	 push	 271			; 0000010fH
  00272	68 00 00 00 00	 push	 OFFSET ??_C@_0EB@GJLKGHAC@c?3?2users?2nhv90?2projects?2eech?2ap@
  00277	8b 0d 00 00 00
	00		 mov	 ecx, DWORD PTR ?overload_invalid_int_type_message@@3PBDB ; overload_invalid_int_type_message
  0027d	51		 push	 ecx
  0027e	e8 00 00 00 00	 call	 ?process_assert@@YGXPBD0H@Z ; process_assert
  00283	c7 45 80 00 00
	00 00		 mov	 DWORD PTR tv188[ebp], 0
$LN51@get_closes:
  0028a	6a 34		 push	 52			; 00000034H
  0028c	8b 55 e4	 mov	 edx, DWORD PTR _current_landing$[ebp]
  0028f	52		 push	 edx
  00290	69 45 84 5c 04
	00 00		 imul	 eax, DWORD PTR tv181[ebp], 1116
  00297	8b 4d 80	 mov	 ecx, DWORD PTR tv188[ebp]
  0029a	8b 94 88 00 00
	00 00		 mov	 edx, DWORD PTR ?fn_get_local_entity_int_value@@3PAY0BBH@P6GHPAUENTITY@@W4INT_TYPES@@@ZA[eax+ecx*4]
  002a1	ff d2		 call	 edx
  002a3	3b 45 08	 cmp	 eax, DWORD PTR _sub_type$[ebp]
  002a6	0f 85 ef 01 00
	00		 jne	 $LN20@get_closes

; 272  : 					{
; 273  : 		
; 274  : 						sites_available = get_local_entity_int_value (current_landing, INT_TYPE_FREE_LANDING_SITES) - get_local_entity_int_value (current_landing, INT_TYPE_RESERVED_LANDING_SITES);

  002ac	83 7d e4 00	 cmp	 DWORD PTR _current_landing$[ebp], 0
  002b0	74 0a		 je	 SHORT $LN52@get_closes
  002b2	8b 45 e4	 mov	 eax, DWORD PTR _current_landing$[ebp]
  002b5	8b 08		 mov	 ecx, DWORD PTR [eax]
  002b7	89 4d 84	 mov	 DWORD PTR tv201[ebp], ecx
  002ba	eb 21		 jmp	 SHORT $LN53@get_closes
$LN52@get_closes:
  002bc	8b 15 00 00 00
	00		 mov	 edx, DWORD PTR ?__LINE__Var@?0??get_closest_free_landing_site@@YGPAUENTITY@@HPAU2@PAUVEC3D@@MPAMH@Z@4JA
  002c2	83 c2 23	 add	 edx, 35			; 00000023H
  002c5	52		 push	 edx
  002c6	68 00 00 00 00	 push	 OFFSET ??_C@_0EB@GJLKGHAC@c?3?2users?2nhv90?2projects?2eech?2ap@
  002cb	a1 00 00 00 00	 mov	 eax, DWORD PTR ?null_entity_pointer_message@@3PBDB ; null_entity_pointer_message
  002d0	50		 push	 eax
  002d1	e8 00 00 00 00	 call	 ?process_assert@@YGXPBD0H@Z ; process_assert
  002d6	c7 45 84 00 00
	00 00		 mov	 DWORD PTR tv201[ebp], 0
$LN53@get_closes:
  002dd	b9 01 00 00 00	 mov	 ecx, 1
  002e2	85 c9		 test	 ecx, ecx
  002e4	74 09		 je	 SHORT $LN54@get_closes
  002e6	c7 45 80 40 00
	00 00		 mov	 DWORD PTR tv209[ebp], 64 ; 00000040H
  002ed	eb 21		 jmp	 SHORT $LN55@get_closes
$LN54@get_closes:
  002ef	8b 15 00 00 00
	00		 mov	 edx, DWORD PTR ?__LINE__Var@?0??get_closest_free_landing_site@@YGPAUENTITY@@HPAU2@PAUVEC3D@@MPAMH@Z@4JA
  002f5	83 c2 23	 add	 edx, 35			; 00000023H
  002f8	52		 push	 edx
  002f9	68 00 00 00 00	 push	 OFFSET ??_C@_0EB@GJLKGHAC@c?3?2users?2nhv90?2projects?2eech?2ap@
  002fe	a1 00 00 00 00	 mov	 eax, DWORD PTR ?overload_invalid_int_type_message@@3PBDB ; overload_invalid_int_type_message
  00303	50		 push	 eax
  00304	e8 00 00 00 00	 call	 ?process_assert@@YGXPBD0H@Z ; process_assert
  00309	c7 45 80 00 00
	00 00		 mov	 DWORD PTR tv209[ebp], 0
$LN55@get_closes:
  00310	83 7d e4 00	 cmp	 DWORD PTR _current_landing$[ebp], 0
  00314	74 0d		 je	 SHORT $LN56@get_closes
  00316	8b 4d e4	 mov	 ecx, DWORD PTR _current_landing$[ebp]
  00319	8b 11		 mov	 edx, DWORD PTR [ecx]
  0031b	89 95 7c ff ff
	ff		 mov	 DWORD PTR tv221[ebp], edx
  00321	eb 24		 jmp	 SHORT $LN57@get_closes
$LN56@get_closes:
  00323	a1 00 00 00 00	 mov	 eax, DWORD PTR ?__LINE__Var@?0??get_closest_free_landing_site@@YGPAUENTITY@@HPAU2@PAUVEC3D@@MPAMH@Z@4JA
  00328	83 c0 23	 add	 eax, 35			; 00000023H
  0032b	50		 push	 eax
  0032c	68 00 00 00 00	 push	 OFFSET ??_C@_0EB@GJLKGHAC@c?3?2users?2nhv90?2projects?2eech?2ap@
  00331	8b 0d 00 00 00
	00		 mov	 ecx, DWORD PTR ?null_entity_pointer_message@@3PBDB ; null_entity_pointer_message
  00337	51		 push	 ecx
  00338	e8 00 00 00 00	 call	 ?process_assert@@YGXPBD0H@Z ; process_assert
  0033d	c7 85 7c ff ff
	ff 00 00 00 00	 mov	 DWORD PTR tv221[ebp], 0
$LN57@get_closes:
  00347	ba 01 00 00 00	 mov	 edx, 1
  0034c	85 d2		 test	 edx, edx
  0034e	74 0c		 je	 SHORT $LN58@get_closes
  00350	c7 85 78 ff ff
	ff af 00 00 00	 mov	 DWORD PTR tv229[ebp], 175 ; 000000afH
  0035a	eb 24		 jmp	 SHORT $LN59@get_closes
$LN58@get_closes:
  0035c	a1 00 00 00 00	 mov	 eax, DWORD PTR ?__LINE__Var@?0??get_closest_free_landing_site@@YGPAUENTITY@@HPAU2@PAUVEC3D@@MPAMH@Z@4JA
  00361	83 c0 23	 add	 eax, 35			; 00000023H
  00364	50		 push	 eax
  00365	68 00 00 00 00	 push	 OFFSET ??_C@_0EB@GJLKGHAC@c?3?2users?2nhv90?2projects?2eech?2ap@
  0036a	8b 0d 00 00 00
	00		 mov	 ecx, DWORD PTR ?overload_invalid_int_type_message@@3PBDB ; overload_invalid_int_type_message
  00370	51		 push	 ecx
  00371	e8 00 00 00 00	 call	 ?process_assert@@YGXPBD0H@Z ; process_assert
  00376	c7 85 78 ff ff
	ff 00 00 00 00	 mov	 DWORD PTR tv229[ebp], 0
$LN59@get_closes:
  00380	6a 40		 push	 64			; 00000040H
  00382	8b 55 e4	 mov	 edx, DWORD PTR _current_landing$[ebp]
  00385	52		 push	 edx
  00386	69 45 84 5c 04
	00 00		 imul	 eax, DWORD PTR tv201[ebp], 1116
  0038d	8b 4d 80	 mov	 ecx, DWORD PTR tv209[ebp]
  00390	8b 94 88 00 00
	00 00		 mov	 edx, DWORD PTR ?fn_get_local_entity_int_value@@3PAY0BBH@P6GHPAUENTITY@@W4INT_TYPES@@@ZA[eax+ecx*4]
  00397	ff d2		 call	 edx
  00399	8b f0		 mov	 esi, eax
  0039b	68 af 00 00 00	 push	 175			; 000000afH
  003a0	8b 45 e4	 mov	 eax, DWORD PTR _current_landing$[ebp]
  003a3	50		 push	 eax
  003a4	69 8d 7c ff ff
	ff 5c 04 00 00	 imul	 ecx, DWORD PTR tv221[ebp], 1116
  003ae	8b 95 78 ff ff
	ff		 mov	 edx, DWORD PTR tv229[ebp]
  003b4	8b 84 91 00 00
	00 00		 mov	 eax, DWORD PTR ?fn_get_local_entity_int_value@@3PAY0BBH@P6GHPAUENTITY@@W4INT_TYPES@@@ZA[ecx+edx*4]
  003bb	ff d0		 call	 eax
  003bd	2b f0		 sub	 esi, eax
  003bf	89 75 fc	 mov	 DWORD PTR _sites_available$[ebp], esi

; 275  : 		
; 276  : 						if (sites_available >= sites_required)

  003c2	8b 45 fc	 mov	 eax, DWORD PTR _sites_available$[ebp]
  003c5	3b 45 1c	 cmp	 eax, DWORD PTR _sites_required$[ebp]
  003c8	0f 8c cd 00 00
	00		 jl	 $LN20@get_closes

; 277  : 						{
; 278  : 		
; 279  : 							landing_pos = get_local_entity_vec3d_ptr (current_landing, VEC3D_TYPE_POSITION);

  003ce	83 7d e4 00	 cmp	 DWORD PTR _current_landing$[ebp], 0
  003d2	74 0a		 je	 SHORT $LN60@get_closes
  003d4	8b 45 e4	 mov	 eax, DWORD PTR _current_landing$[ebp]
  003d7	8b 08		 mov	 ecx, DWORD PTR [eax]
  003d9	89 4d 84	 mov	 DWORD PTR tv243[ebp], ecx
  003dc	eb 21		 jmp	 SHORT $LN61@get_closes
$LN60@get_closes:
  003de	8b 15 00 00 00
	00		 mov	 edx, DWORD PTR ?__LINE__Var@?0??get_closest_free_landing_site@@YGPAUENTITY@@HPAU2@PAUVEC3D@@MPAMH@Z@4JA
  003e4	83 c2 28	 add	 edx, 40			; 00000028H
  003e7	52		 push	 edx
  003e8	68 00 00 00 00	 push	 OFFSET ??_C@_0EB@GJLKGHAC@c?3?2users?2nhv90?2projects?2eech?2ap@
  003ed	a1 00 00 00 00	 mov	 eax, DWORD PTR ?null_entity_pointer_message@@3PBDB ; null_entity_pointer_message
  003f2	50		 push	 eax
  003f3	e8 00 00 00 00	 call	 ?process_assert@@YGXPBD0H@Z ; process_assert
  003f8	c7 45 84 00 00
	00 00		 mov	 DWORD PTR tv243[ebp], 0
$LN61@get_closes:
  003ff	b9 01 00 00 00	 mov	 ecx, 1
  00404	85 c9		 test	 ecx, ecx
  00406	74 09		 je	 SHORT $LN62@get_closes
  00408	c7 45 80 08 00
	00 00		 mov	 DWORD PTR tv251[ebp], 8
  0040f	eb 21		 jmp	 SHORT $LN63@get_closes
$LN62@get_closes:
  00411	8b 15 00 00 00
	00		 mov	 edx, DWORD PTR ?__LINE__Var@?0??get_closest_free_landing_site@@YGPAUENTITY@@HPAU2@PAUVEC3D@@MPAMH@Z@4JA
  00417	83 c2 28	 add	 edx, 40			; 00000028H
  0041a	52		 push	 edx
  0041b	68 00 00 00 00	 push	 OFFSET ??_C@_0EB@GJLKGHAC@c?3?2users?2nhv90?2projects?2eech?2ap@
  00420	a1 00 00 00 00	 mov	 eax, DWORD PTR ?overload_invalid_vec3d_type_message@@3PBDB ; overload_invalid_vec3d_type_message
  00425	50		 push	 eax
  00426	e8 00 00 00 00	 call	 ?process_assert@@YGXPBD0H@Z ; process_assert
  0042b	c7 45 80 00 00
	00 00		 mov	 DWORD PTR tv251[ebp], 0
$LN63@get_closes:
  00432	6a 08		 push	 8
  00434	8b 4d e4	 mov	 ecx, DWORD PTR _current_landing$[ebp]
  00437	51		 push	 ecx
  00438	6b 55 84 60	 imul	 edx, DWORD PTR tv243[ebp], 96
  0043c	8b 45 80	 mov	 eax, DWORD PTR tv251[ebp]
  0043f	8b 8c 82 00 00
	00 00		 mov	 ecx, DWORD PTR ?fn_get_local_entity_vec3d_ptr@@3PAY0BI@P6GPAUVEC3D@@PAUENTITY@@W4VEC3D_TYPES@@@ZA[edx+eax*4]
  00446	ff d1		 call	 ecx
  00448	89 45 f0	 mov	 DWORD PTR _landing_pos$[ebp], eax

; 280  : 		
; 281  : 							range = get_approx_2d_range (landing_pos, pos);

  0044b	8b 45 10	 mov	 eax, DWORD PTR _pos$[ebp]
  0044e	50		 push	 eax
  0044f	8b 4d f0	 mov	 ecx, DWORD PTR _landing_pos$[ebp]
  00452	51		 push	 ecx
  00453	e8 00 00 00 00	 call	 ?get_approx_2d_range@@YGMPBUVEC3D@@0@Z ; get_approx_2d_range
  00458	d9 5d f4	 fstp	 DWORD PTR _range$[ebp]

; 282  : 	
; 283  : 							#if DEBUG_MODULE
; 284  : 	
; 285  : 							debug_log ("AI_MISC: assessing keysite %s range %f", get_local_entity_string (current_keysite, STRING_TYPE_KEYSITE_NAME), range);
; 286  : 	
; 287  : 							#endif
; 288  : 		
; 289  : 							if (range <= min_range)

  0045b	f3 0f 10 45 14	 movss	 xmm0, DWORD PTR _min_range$[ebp]
  00460	0f 2f 45 f4	 comiss	 xmm0, DWORD PTR _range$[ebp]
  00464	72 1a		 jb	 SHORT $LN18@get_closes

; 290  : 							{
; 291  : 		
; 292  : 								#if LANDING_DEBUG >= 2
; 293  : 		
; 294  : 								debug_log ("AI_MISC: EARLY OUT: found key landing site type %d range %f, total %d, free %d, reserved %d",
; 295  : 									get_local_entity_int_value (current_landing, INT_TYPE_ENTITY_SUB_TYPE),
; 296  : 									range,
; 297  : 									get_local_entity_int_value (current_landing, INT_TYPE_TOTAL_LANDING_SITES),
; 298  : 									get_local_entity_int_value (current_landing, INT_TYPE_FREE_LANDING_SITES),
; 299  : 									get_local_entity_int_value (current_landing, INT_TYPE_RESERVED_LANDING_SITES));
; 300  : 		
; 301  : 								#endif
; 302  : 		
; 303  : 								if (actual_range)

  00466	83 7d 18 00	 cmp	 DWORD PTR _actual_range$[ebp], 0
  0046a	74 0c		 je	 SHORT $LN19@get_closes

; 304  : 								{
; 305  : 									*actual_range = range;	

  0046c	8b 45 18	 mov	 eax, DWORD PTR _actual_range$[ebp]
  0046f	f3 0f 10 45 f4	 movss	 xmm0, DWORD PTR _range$[ebp]
  00474	f3 0f 11 00	 movss	 DWORD PTR [eax], xmm0
$LN19@get_closes:

; 306  : 								}
; 307  : 	
; 308  : 								return current_landing;

  00478	8b 45 e4	 mov	 eax, DWORD PTR _current_landing$[ebp]
  0047b	e9 1d 0e 00 00	 jmp	 $LN1@get_closes
$LN18@get_closes:

; 309  : 							}
; 310  : 		
; 311  : 							if (range < best_range)

  00480	f3 0f 10 45 f8	 movss	 xmm0, DWORD PTR _best_range$[ebp]
  00485	0f 2f 45 f4	 comiss	 xmm0, DWORD PTR _range$[ebp]
  00489	76 10		 jbe	 SHORT $LN20@get_closes

; 312  : 							{
; 313  : 		
; 314  : 								best_range = range;

  0048b	f3 0f 10 45 f4	 movss	 xmm0, DWORD PTR _range$[ebp]
  00490	f3 0f 11 45 f8	 movss	 DWORD PTR _best_range$[ebp], xmm0

; 315  : 		
; 316  : 								closest_landing = current_landing;

  00495	8b 45 e4	 mov	 eax, DWORD PTR _current_landing$[ebp]
  00498	89 45 ec	 mov	 DWORD PTR _closest_landing$[ebp], eax
$LN20@get_closes:

; 317  : 		
; 318  : 								#if LANDING_DEBUG
; 319  : 		
; 320  : 								debug_log ("AI_MISC: found %s landing site type %d range %f, total %d, free %d, reserved %d",
; 321  : 									get_local_entity_string (current_keysite, STRING_TYPE_KEYSITE_NAME),
; 322  : 									get_local_entity_int_value (current_landing, INT_TYPE_ENTITY_SUB_TYPE),
; 323  : 									range,
; 324  : 									get_local_entity_int_value (current_landing, INT_TYPE_TOTAL_LANDING_SITES),
; 325  : 									get_local_entity_int_value (current_landing, INT_TYPE_FREE_LANDING_SITES),
; 326  : 									get_local_entity_int_value (current_landing, INT_TYPE_RESERVED_LANDING_SITES));
; 327  : 		
; 328  : 								#endif
; 329  : 							}
; 330  : 						}
; 331  : 					}
; 332  : 		
; 333  : 					current_landing = get_local_entity_child_succ (current_landing, LIST_TYPE_LANDING_SITE);

  0049b	83 7d e4 00	 cmp	 DWORD PTR _current_landing$[ebp], 0
  0049f	74 0a		 je	 SHORT $LN64@get_closes
  004a1	8b 45 e4	 mov	 eax, DWORD PTR _current_landing$[ebp]
  004a4	8b 08		 mov	 ecx, DWORD PTR [eax]
  004a6	89 4d 84	 mov	 DWORD PTR tv269[ebp], ecx
  004a9	eb 21		 jmp	 SHORT $LN65@get_closes
$LN64@get_closes:
  004ab	8b 15 00 00 00
	00		 mov	 edx, DWORD PTR ?__LINE__Var@?0??get_closest_free_landing_site@@YGPAUENTITY@@HPAU2@PAUVEC3D@@MPAMH@Z@4JA
  004b1	83 c2 5e	 add	 edx, 94			; 0000005eH
  004b4	52		 push	 edx
  004b5	68 00 00 00 00	 push	 OFFSET ??_C@_0EB@GJLKGHAC@c?3?2users?2nhv90?2projects?2eech?2ap@
  004ba	a1 00 00 00 00	 mov	 eax, DWORD PTR ?null_entity_pointer_message@@3PBDB ; null_entity_pointer_message
  004bf	50		 push	 eax
  004c0	e8 00 00 00 00	 call	 ?process_assert@@YGXPBD0H@Z ; process_assert
  004c5	c7 45 84 00 00
	00 00		 mov	 DWORD PTR tv269[ebp], 0
$LN65@get_closes:
  004cc	b9 01 00 00 00	 mov	 ecx, 1
  004d1	85 c9		 test	 ecx, ecx
  004d3	74 09		 je	 SHORT $LN66@get_closes
  004d5	c7 45 80 17 00
	00 00		 mov	 DWORD PTR tv277[ebp], 23 ; 00000017H
  004dc	eb 21		 jmp	 SHORT $LN67@get_closes
$LN66@get_closes:
  004de	8b 15 00 00 00
	00		 mov	 edx, DWORD PTR ?__LINE__Var@?0??get_closest_free_landing_site@@YGPAUENTITY@@HPAU2@PAUVEC3D@@MPAMH@Z@4JA
  004e4	83 c2 5e	 add	 edx, 94			; 0000005eH
  004e7	52		 push	 edx
  004e8	68 00 00 00 00	 push	 OFFSET ??_C@_0EB@GJLKGHAC@c?3?2users?2nhv90?2projects?2eech?2ap@
  004ed	a1 00 00 00 00	 mov	 eax, DWORD PTR ?overload_invalid_list_type_message@@3PBDB ; overload_invalid_list_type_message
  004f2	50		 push	 eax
  004f3	e8 00 00 00 00	 call	 ?process_assert@@YGXPBD0H@Z ; process_assert
  004f8	c7 45 80 00 00
	00 00		 mov	 DWORD PTR tv277[ebp], 0
$LN67@get_closes:
  004ff	6a 17		 push	 23			; 00000017H
  00501	8b 4d e4	 mov	 ecx, DWORD PTR _current_landing$[ebp]
  00504	51		 push	 ecx
  00505	69 55 84 b4 00
	00 00		 imul	 edx, DWORD PTR tv269[ebp], 180
  0050c	8b 45 80	 mov	 eax, DWORD PTR tv277[ebp]
  0050f	8b 8c 82 00 00
	00 00		 mov	 ecx, DWORD PTR ?fn_get_local_entity_child_succ@@3PAY0CN@P6GPAUENTITY@@PAU1@W4LIST_TYPES@@@ZA[edx+eax*4]
  00516	ff d1		 call	 ecx
  00518	89 45 e4	 mov	 DWORD PTR _current_landing$[ebp], eax

; 334  : 				}

  0051b	e9 04 fd ff ff	 jmp	 $LN4@get_closes
$LN5@get_closes:

; 335  : 			}
; 336  : 		}
; 337  : 		
; 338  : 		current_keysite = get_local_entity_child_succ (current_keysite, LIST_TYPE_KEYSITE_FORCE);

  00520	83 7d e8 00	 cmp	 DWORD PTR _current_keysite$[ebp], 0
  00524	74 0a		 je	 SHORT $LN68@get_closes
  00526	8b 45 e8	 mov	 eax, DWORD PTR _current_keysite$[ebp]
  00529	8b 08		 mov	 ecx, DWORD PTR [eax]
  0052b	89 4d 84	 mov	 DWORD PTR tv289[ebp], ecx
  0052e	eb 21		 jmp	 SHORT $LN69@get_closes
$LN68@get_closes:
  00530	8b 15 00 00 00
	00		 mov	 edx, DWORD PTR ?__LINE__Var@?0??get_closest_free_landing_site@@YGPAUENTITY@@HPAU2@PAUVEC3D@@MPAMH@Z@4JA
  00536	83 c2 63	 add	 edx, 99			; 00000063H
  00539	52		 push	 edx
  0053a	68 00 00 00 00	 push	 OFFSET ??_C@_0EB@GJLKGHAC@c?3?2users?2nhv90?2projects?2eech?2ap@
  0053f	a1 00 00 00 00	 mov	 eax, DWORD PTR ?null_entity_pointer_message@@3PBDB ; null_entity_pointer_message
  00544	50		 push	 eax
  00545	e8 00 00 00 00	 call	 ?process_assert@@YGXPBD0H@Z ; process_assert
  0054a	c7 45 84 00 00
	00 00		 mov	 DWORD PTR tv289[ebp], 0
$LN69@get_closes:
  00551	b9 01 00 00 00	 mov	 ecx, 1
  00556	85 c9		 test	 ecx, ecx
  00558	74 09		 je	 SHORT $LN70@get_closes
  0055a	c7 45 80 15 00
	00 00		 mov	 DWORD PTR tv297[ebp], 21 ; 00000015H
  00561	eb 21		 jmp	 SHORT $LN71@get_closes
$LN70@get_closes:
  00563	8b 15 00 00 00
	00		 mov	 edx, DWORD PTR ?__LINE__Var@?0??get_closest_free_landing_site@@YGPAUENTITY@@HPAU2@PAUVEC3D@@MPAMH@Z@4JA
  00569	83 c2 63	 add	 edx, 99			; 00000063H
  0056c	52		 push	 edx
  0056d	68 00 00 00 00	 push	 OFFSET ??_C@_0EB@GJLKGHAC@c?3?2users?2nhv90?2projects?2eech?2ap@
  00572	a1 00 00 00 00	 mov	 eax, DWORD PTR ?overload_invalid_list_type_message@@3PBDB ; overload_invalid_list_type_message
  00577	50		 push	 eax
  00578	e8 00 00 00 00	 call	 ?process_assert@@YGXPBD0H@Z ; process_assert
  0057d	c7 45 80 00 00
	00 00		 mov	 DWORD PTR tv297[ebp], 0
$LN71@get_closes:
  00584	6a 15		 push	 21			; 00000015H
  00586	8b 4d e8	 mov	 ecx, DWORD PTR _current_keysite$[ebp]
  00589	51		 push	 ecx
  0058a	69 55 84 b4 00
	00 00		 imul	 edx, DWORD PTR tv289[ebp], 180
  00591	8b 45 80	 mov	 eax, DWORD PTR tv297[ebp]
  00594	8b 8c 82 00 00
	00 00		 mov	 ecx, DWORD PTR ?fn_get_local_entity_child_succ@@3PAY0CN@P6GPAUENTITY@@PAU1@W4LIST_TYPES@@@ZA[edx+eax*4]
  0059b	ff d1		 call	 ecx
  0059d	89 45 e8	 mov	 DWORD PTR _current_keysite$[ebp], eax

; 339  : 	}

  005a0	e9 fb fa ff ff	 jmp	 $LN2@get_closes
$LN3@get_closes:

; 340  : 
; 341  : 	if (actual_range)

  005a5	83 7d 18 00	 cmp	 DWORD PTR _actual_range$[ebp], 0
  005a9	74 0c		 je	 SHORT $LN21@get_closes

; 342  : 	{
; 343  : 		*actual_range = best_range;

  005ab	8b 45 18	 mov	 eax, DWORD PTR _actual_range$[ebp]
  005ae	f3 0f 10 45 f8	 movss	 xmm0, DWORD PTR _best_range$[ebp]
  005b3	f3 0f 11 00	 movss	 DWORD PTR [eax], xmm0
$LN21@get_closes:

; 344  : 	}
; 345  : 
; 346  : 	//
; 347  : 	// DEBUG
; 348  : 	//
; 349  : 
; 350  : 	if (!closest_landing)

  005b7	83 7d ec 00	 cmp	 DWORD PTR _closest_landing$[ebp], 0
  005bb	0f 85 d9 0c 00
	00		 jne	 $LN30@get_closes

; 351  : 	{
; 352  : 
; 353  : 		debug_log ("AI_MISC: FAILED GET CLOSEST LANDING_SITE !!!!!!!!!!!!");

  005c1	68 00 00 00 00	 push	 OFFSET ??_C@_0DG@MAGKBKKN@AI_MISC?3?5FAILED?5GET?5CLOSEST?5LAN@
  005c6	e8 00 00 00 00	 call	 ?debug_log@@YAXPBDZZ	; debug_log
  005cb	83 c4 04	 add	 esp, 4

; 354  : 
; 355  : 		debug_log ("	searching for %d %s landing sites", sites_required, entity_sub_type_landing_names [sub_type]);

  005ce	8b 45 08	 mov	 eax, DWORD PTR _sub_type$[ebp]
  005d1	8b 0c 85 00 00
	00 00		 mov	 ecx, DWORD PTR ?entity_sub_type_landing_names@@3PAPBDA[eax*4]
  005d8	51		 push	 ecx
  005d9	8b 55 1c	 mov	 edx, DWORD PTR _sites_required$[ebp]
  005dc	52		 push	 edx
  005dd	68 00 00 00 00	 push	 OFFSET ??_C@_0CD@JOMNFILD@?7searching?5for?5?$CFd?5?$CFs?5landing?5si@
  005e2	e8 00 00 00 00	 call	 ?debug_log@@YAXPBDZZ	; debug_log
  005e7	83 c4 0c	 add	 esp, 12			; 0000000cH

; 356  : 
; 357  : 		current_keysite = get_local_entity_first_child (force, LIST_TYPE_KEYSITE_FORCE);

  005ea	83 7d 0c 00	 cmp	 DWORD PTR _force$[ebp], 0
  005ee	74 0a		 je	 SHORT $LN72@get_closes
  005f0	8b 45 0c	 mov	 eax, DWORD PTR _force$[ebp]
  005f3	8b 08		 mov	 ecx, DWORD PTR [eax]
  005f5	89 4d 84	 mov	 DWORD PTR tv317[ebp], ecx
  005f8	eb 21		 jmp	 SHORT $LN73@get_closes
$LN72@get_closes:
  005fa	8b 15 00 00 00
	00		 mov	 edx, DWORD PTR ?__LINE__Var@?0??get_closest_free_landing_site@@YGPAUENTITY@@HPAU2@PAUVEC3D@@MPAMH@Z@4JA
  00600	83 c2 76	 add	 edx, 118		; 00000076H
  00603	52		 push	 edx
  00604	68 00 00 00 00	 push	 OFFSET ??_C@_0EB@GJLKGHAC@c?3?2users?2nhv90?2projects?2eech?2ap@
  00609	a1 00 00 00 00	 mov	 eax, DWORD PTR ?null_entity_pointer_message@@3PBDB ; null_entity_pointer_message
  0060e	50		 push	 eax
  0060f	e8 00 00 00 00	 call	 ?process_assert@@YGXPBD0H@Z ; process_assert
  00614	c7 45 84 00 00
	00 00		 mov	 DWORD PTR tv317[ebp], 0
$LN73@get_closes:
  0061b	b9 01 00 00 00	 mov	 ecx, 1
  00620	85 c9		 test	 ecx, ecx
  00622	74 09		 je	 SHORT $LN74@get_closes
  00624	c7 45 80 15 00
	00 00		 mov	 DWORD PTR tv325[ebp], 21 ; 00000015H
  0062b	eb 21		 jmp	 SHORT $LN75@get_closes
$LN74@get_closes:
  0062d	8b 15 00 00 00
	00		 mov	 edx, DWORD PTR ?__LINE__Var@?0??get_closest_free_landing_site@@YGPAUENTITY@@HPAU2@PAUVEC3D@@MPAMH@Z@4JA
  00633	83 c2 76	 add	 edx, 118		; 00000076H
  00636	52		 push	 edx
  00637	68 00 00 00 00	 push	 OFFSET ??_C@_0EB@GJLKGHAC@c?3?2users?2nhv90?2projects?2eech?2ap@
  0063c	a1 00 00 00 00	 mov	 eax, DWORD PTR ?overload_invalid_list_type_message@@3PBDB ; overload_invalid_list_type_message
  00641	50		 push	 eax
  00642	e8 00 00 00 00	 call	 ?process_assert@@YGXPBD0H@Z ; process_assert
  00647	c7 45 80 00 00
	00 00		 mov	 DWORD PTR tv325[ebp], 0
$LN75@get_closes:
  0064e	6a 15		 push	 21			; 00000015H
  00650	8b 4d 0c	 mov	 ecx, DWORD PTR _force$[ebp]
  00653	51		 push	 ecx
  00654	69 55 84 b4 00
	00 00		 imul	 edx, DWORD PTR tv317[ebp], 180
  0065b	8b 45 80	 mov	 eax, DWORD PTR tv325[ebp]
  0065e	8b 8c 82 00 00
	00 00		 mov	 ecx, DWORD PTR ?fn_get_local_entity_first_child@@3PAY0CN@P6GPAUENTITY@@PAU1@W4LIST_TYPES@@@ZA[edx+eax*4]
  00665	ff d1		 call	 ecx
  00667	89 45 e8	 mov	 DWORD PTR _current_keysite$[ebp], eax
$LN6@get_closes:

; 358  : 
; 359  : 		while (current_keysite)

  0066a	83 7d e8 00	 cmp	 DWORD PTR _current_keysite$[ebp], 0
  0066e	0f 84 c9 05 00
	00		 je	 $LN7@get_closes

; 360  : 		{
; 361  : 
; 362  : 			current_landing = get_local_entity_first_child (current_keysite, LIST_TYPE_LANDING_SITE);

  00674	83 7d e8 00	 cmp	 DWORD PTR _current_keysite$[ebp], 0
  00678	74 0a		 je	 SHORT $LN76@get_closes
  0067a	8b 45 e8	 mov	 eax, DWORD PTR _current_keysite$[ebp]
  0067d	8b 08		 mov	 ecx, DWORD PTR [eax]
  0067f	89 4d 84	 mov	 DWORD PTR tv338[ebp], ecx
  00682	eb 21		 jmp	 SHORT $LN77@get_closes
$LN76@get_closes:
  00684	8b 15 00 00 00
	00		 mov	 edx, DWORD PTR ?__LINE__Var@?0??get_closest_free_landing_site@@YGPAUENTITY@@HPAU2@PAUVEC3D@@MPAMH@Z@4JA
  0068a	83 c2 7b	 add	 edx, 123		; 0000007bH
  0068d	52		 push	 edx
  0068e	68 00 00 00 00	 push	 OFFSET ??_C@_0EB@GJLKGHAC@c?3?2users?2nhv90?2projects?2eech?2ap@
  00693	a1 00 00 00 00	 mov	 eax, DWORD PTR ?null_entity_pointer_message@@3PBDB ; null_entity_pointer_message
  00698	50		 push	 eax
  00699	e8 00 00 00 00	 call	 ?process_assert@@YGXPBD0H@Z ; process_assert
  0069e	c7 45 84 00 00
	00 00		 mov	 DWORD PTR tv338[ebp], 0
$LN77@get_closes:
  006a5	b9 01 00 00 00	 mov	 ecx, 1
  006aa	85 c9		 test	 ecx, ecx
  006ac	74 09		 je	 SHORT $LN78@get_closes
  006ae	c7 45 80 17 00
	00 00		 mov	 DWORD PTR tv346[ebp], 23 ; 00000017H
  006b5	eb 21		 jmp	 SHORT $LN79@get_closes
$LN78@get_closes:
  006b7	8b 15 00 00 00
	00		 mov	 edx, DWORD PTR ?__LINE__Var@?0??get_closest_free_landing_site@@YGPAUENTITY@@HPAU2@PAUVEC3D@@MPAMH@Z@4JA
  006bd	83 c2 7b	 add	 edx, 123		; 0000007bH
  006c0	52		 push	 edx
  006c1	68 00 00 00 00	 push	 OFFSET ??_C@_0EB@GJLKGHAC@c?3?2users?2nhv90?2projects?2eech?2ap@
  006c6	a1 00 00 00 00	 mov	 eax, DWORD PTR ?overload_invalid_list_type_message@@3PBDB ; overload_invalid_list_type_message
  006cb	50		 push	 eax
  006cc	e8 00 00 00 00	 call	 ?process_assert@@YGXPBD0H@Z ; process_assert
  006d1	c7 45 80 00 00
	00 00		 mov	 DWORD PTR tv346[ebp], 0
$LN79@get_closes:
  006d8	6a 17		 push	 23			; 00000017H
  006da	8b 4d e8	 mov	 ecx, DWORD PTR _current_keysite$[ebp]
  006dd	51		 push	 ecx
  006de	69 55 84 b4 00
	00 00		 imul	 edx, DWORD PTR tv338[ebp], 180
  006e5	8b 45 80	 mov	 eax, DWORD PTR tv346[ebp]
  006e8	8b 8c 82 00 00
	00 00		 mov	 ecx, DWORD PTR ?fn_get_local_entity_first_child@@3PAY0CN@P6GPAUENTITY@@PAU1@W4LIST_TYPES@@@ZA[edx+eax*4]
  006ef	ff d1		 call	 ecx
  006f1	89 45 e4	 mov	 DWORD PTR _current_landing$[ebp], eax
$LN8@get_closes:

; 363  : 
; 364  : 			while (current_landing)

  006f4	83 7d e4 00	 cmp	 DWORD PTR _current_landing$[ebp], 0
  006f8	0f 84 b4 04 00
	00		 je	 $LN9@get_closes

; 365  : 			{
; 366  : 
; 367  : 				landing_pos = get_local_entity_vec3d_ptr (current_landing, VEC3D_TYPE_POSITION);

  006fe	83 7d e4 00	 cmp	 DWORD PTR _current_landing$[ebp], 0
  00702	74 0a		 je	 SHORT $LN80@get_closes
  00704	8b 45 e4	 mov	 eax, DWORD PTR _current_landing$[ebp]
  00707	8b 08		 mov	 ecx, DWORD PTR [eax]
  00709	89 4d 84	 mov	 DWORD PTR tv359[ebp], ecx
  0070c	eb 24		 jmp	 SHORT $LN81@get_closes
$LN80@get_closes:
  0070e	8b 15 00 00 00
	00		 mov	 edx, DWORD PTR ?__LINE__Var@?0??get_closest_free_landing_site@@YGPAUENTITY@@HPAU2@PAUVEC3D@@MPAMH@Z@4JA
  00714	81 c2 80 00 00
	00		 add	 edx, 128		; 00000080H
  0071a	52		 push	 edx
  0071b	68 00 00 00 00	 push	 OFFSET ??_C@_0EB@GJLKGHAC@c?3?2users?2nhv90?2projects?2eech?2ap@
  00720	a1 00 00 00 00	 mov	 eax, DWORD PTR ?null_entity_pointer_message@@3PBDB ; null_entity_pointer_message
  00725	50		 push	 eax
  00726	e8 00 00 00 00	 call	 ?process_assert@@YGXPBD0H@Z ; process_assert
  0072b	c7 45 84 00 00
	00 00		 mov	 DWORD PTR tv359[ebp], 0
$LN81@get_closes:
  00732	b9 01 00 00 00	 mov	 ecx, 1
  00737	85 c9		 test	 ecx, ecx
  00739	74 09		 je	 SHORT $LN82@get_closes
  0073b	c7 45 80 08 00
	00 00		 mov	 DWORD PTR tv367[ebp], 8
  00742	eb 24		 jmp	 SHORT $LN83@get_closes
$LN82@get_closes:
  00744	8b 15 00 00 00
	00		 mov	 edx, DWORD PTR ?__LINE__Var@?0??get_closest_free_landing_site@@YGPAUENTITY@@HPAU2@PAUVEC3D@@MPAMH@Z@4JA
  0074a	81 c2 80 00 00
	00		 add	 edx, 128		; 00000080H
  00750	52		 push	 edx
  00751	68 00 00 00 00	 push	 OFFSET ??_C@_0EB@GJLKGHAC@c?3?2users?2nhv90?2projects?2eech?2ap@
  00756	a1 00 00 00 00	 mov	 eax, DWORD PTR ?overload_invalid_vec3d_type_message@@3PBDB ; overload_invalid_vec3d_type_message
  0075b	50		 push	 eax
  0075c	e8 00 00 00 00	 call	 ?process_assert@@YGXPBD0H@Z ; process_assert
  00761	c7 45 80 00 00
	00 00		 mov	 DWORD PTR tv367[ebp], 0
$LN83@get_closes:
  00768	6a 08		 push	 8
  0076a	8b 4d e4	 mov	 ecx, DWORD PTR _current_landing$[ebp]
  0076d	51		 push	 ecx
  0076e	6b 55 84 60	 imul	 edx, DWORD PTR tv359[ebp], 96
  00772	8b 45 80	 mov	 eax, DWORD PTR tv367[ebp]
  00775	8b 8c 82 00 00
	00 00		 mov	 ecx, DWORD PTR ?fn_get_local_entity_vec3d_ptr@@3PAY0BI@P6GPAUVEC3D@@PAUENTITY@@W4VEC3D_TYPES@@@ZA[edx+eax*4]
  0077c	ff d1		 call	 ecx
  0077e	89 45 f0	 mov	 DWORD PTR _landing_pos$[ebp], eax

; 368  : 
; 369  : 				range = get_approx_2d_range (landing_pos, pos);

  00781	8b 45 10	 mov	 eax, DWORD PTR _pos$[ebp]
  00784	50		 push	 eax
  00785	8b 4d f0	 mov	 ecx, DWORD PTR _landing_pos$[ebp]
  00788	51		 push	 ecx
  00789	e8 00 00 00 00	 call	 ?get_approx_2d_range@@YGMPBUVEC3D@@0@Z ; get_approx_2d_range
  0078e	d9 5d f4	 fstp	 DWORD PTR _range$[ebp]

; 370  : 
; 371  : 				debug_log ("	found %s landing site type %s use %d, range %f, total %d, free %d, reserved %d",

  00791	83 7d e4 00	 cmp	 DWORD PTR _current_landing$[ebp], 0
  00795	74 0a		 je	 SHORT $LN84@get_closes
  00797	8b 45 e4	 mov	 eax, DWORD PTR _current_landing$[ebp]
  0079a	8b 08		 mov	 ecx, DWORD PTR [eax]
  0079c	89 4d 84	 mov	 DWORD PTR tv382[ebp], ecx
  0079f	eb 24		 jmp	 SHORT $LN85@get_closes
$LN84@get_closes:
  007a1	8b 15 00 00 00
	00		 mov	 edx, DWORD PTR ?__LINE__Var@?0??get_closest_free_landing_site@@YGPAUENTITY@@HPAU2@PAUVEC3D@@MPAMH@Z@4JA
  007a7	81 c2 8b 00 00
	00		 add	 edx, 139		; 0000008bH
  007ad	52		 push	 edx
  007ae	68 00 00 00 00	 push	 OFFSET ??_C@_0EB@GJLKGHAC@c?3?2users?2nhv90?2projects?2eech?2ap@
  007b3	a1 00 00 00 00	 mov	 eax, DWORD PTR ?null_entity_pointer_message@@3PBDB ; null_entity_pointer_message
  007b8	50		 push	 eax
  007b9	e8 00 00 00 00	 call	 ?process_assert@@YGXPBD0H@Z ; process_assert
  007be	c7 45 84 00 00
	00 00		 mov	 DWORD PTR tv382[ebp], 0
$LN85@get_closes:
  007c5	b9 01 00 00 00	 mov	 ecx, 1
  007ca	85 c9		 test	 ecx, ecx
  007cc	74 09		 je	 SHORT $LN86@get_closes
  007ce	c7 45 80 af 00
	00 00		 mov	 DWORD PTR tv390[ebp], 175 ; 000000afH
  007d5	eb 24		 jmp	 SHORT $LN87@get_closes
$LN86@get_closes:
  007d7	8b 15 00 00 00
	00		 mov	 edx, DWORD PTR ?__LINE__Var@?0??get_closest_free_landing_site@@YGPAUENTITY@@HPAU2@PAUVEC3D@@MPAMH@Z@4JA
  007dd	81 c2 8b 00 00
	00		 add	 edx, 139		; 0000008bH
  007e3	52		 push	 edx
  007e4	68 00 00 00 00	 push	 OFFSET ??_C@_0EB@GJLKGHAC@c?3?2users?2nhv90?2projects?2eech?2ap@
  007e9	a1 00 00 00 00	 mov	 eax, DWORD PTR ?overload_invalid_int_type_message@@3PBDB ; overload_invalid_int_type_message
  007ee	50		 push	 eax
  007ef	e8 00 00 00 00	 call	 ?process_assert@@YGXPBD0H@Z ; process_assert
  007f4	c7 45 80 00 00
	00 00		 mov	 DWORD PTR tv390[ebp], 0
$LN87@get_closes:
  007fb	83 7d e4 00	 cmp	 DWORD PTR _current_landing$[ebp], 0
  007ff	74 0d		 je	 SHORT $LN88@get_closes
  00801	8b 4d e4	 mov	 ecx, DWORD PTR _current_landing$[ebp]
  00804	8b 11		 mov	 edx, DWORD PTR [ecx]
  00806	89 95 7c ff ff
	ff		 mov	 DWORD PTR tv403[ebp], edx
  0080c	eb 26		 jmp	 SHORT $LN89@get_closes
$LN88@get_closes:
  0080e	a1 00 00 00 00	 mov	 eax, DWORD PTR ?__LINE__Var@?0??get_closest_free_landing_site@@YGPAUENTITY@@HPAU2@PAUVEC3D@@MPAMH@Z@4JA
  00813	05 8a 00 00 00	 add	 eax, 138		; 0000008aH
  00818	50		 push	 eax
  00819	68 00 00 00 00	 push	 OFFSET ??_C@_0EB@GJLKGHAC@c?3?2users?2nhv90?2projects?2eech?2ap@
  0081e	8b 0d 00 00 00
	00		 mov	 ecx, DWORD PTR ?null_entity_pointer_message@@3PBDB ; null_entity_pointer_message
  00824	51		 push	 ecx
  00825	e8 00 00 00 00	 call	 ?process_assert@@YGXPBD0H@Z ; process_assert
  0082a	c7 85 7c ff ff
	ff 00 00 00 00	 mov	 DWORD PTR tv403[ebp], 0
$LN89@get_closes:
  00834	ba 01 00 00 00	 mov	 edx, 1
  00839	85 d2		 test	 edx, edx
  0083b	74 0c		 je	 SHORT $LN90@get_closes
  0083d	c7 85 78 ff ff
	ff 40 00 00 00	 mov	 DWORD PTR tv411[ebp], 64 ; 00000040H
  00847	eb 26		 jmp	 SHORT $LN91@get_closes
$LN90@get_closes:
  00849	a1 00 00 00 00	 mov	 eax, DWORD PTR ?__LINE__Var@?0??get_closest_free_landing_site@@YGPAUENTITY@@HPAU2@PAUVEC3D@@MPAMH@Z@4JA
  0084e	05 8a 00 00 00	 add	 eax, 138		; 0000008aH
  00853	50		 push	 eax
  00854	68 00 00 00 00	 push	 OFFSET ??_C@_0EB@GJLKGHAC@c?3?2users?2nhv90?2projects?2eech?2ap@
  00859	8b 0d 00 00 00
	00		 mov	 ecx, DWORD PTR ?overload_invalid_int_type_message@@3PBDB ; overload_invalid_int_type_message
  0085f	51		 push	 ecx
  00860	e8 00 00 00 00	 call	 ?process_assert@@YGXPBD0H@Z ; process_assert
  00865	c7 85 78 ff ff
	ff 00 00 00 00	 mov	 DWORD PTR tv411[ebp], 0
$LN91@get_closes:
  0086f	83 7d e4 00	 cmp	 DWORD PTR _current_landing$[ebp], 0
  00873	74 0d		 je	 SHORT $LN92@get_closes
  00875	8b 55 e4	 mov	 edx, DWORD PTR _current_landing$[ebp]
  00878	8b 02		 mov	 eax, DWORD PTR [edx]
  0087a	89 85 74 ff ff
	ff		 mov	 DWORD PTR tv424[ebp], eax
  00880	eb 28		 jmp	 SHORT $LN93@get_closes
$LN92@get_closes:
  00882	8b 0d 00 00 00
	00		 mov	 ecx, DWORD PTR ?__LINE__Var@?0??get_closest_free_landing_site@@YGPAUENTITY@@HPAU2@PAUVEC3D@@MPAMH@Z@4JA
  00888	81 c1 89 00 00
	00		 add	 ecx, 137		; 00000089H
  0088e	51		 push	 ecx
  0088f	68 00 00 00 00	 push	 OFFSET ??_C@_0EB@GJLKGHAC@c?3?2users?2nhv90?2projects?2eech?2ap@
  00894	8b 15 00 00 00
	00		 mov	 edx, DWORD PTR ?null_entity_pointer_message@@3PBDB ; null_entity_pointer_message
  0089a	52		 push	 edx
  0089b	e8 00 00 00 00	 call	 ?process_assert@@YGXPBD0H@Z ; process_assert
  008a0	c7 85 74 ff ff
	ff 00 00 00 00	 mov	 DWORD PTR tv424[ebp], 0
$LN93@get_closes:
  008aa	b8 01 00 00 00	 mov	 eax, 1
  008af	85 c0		 test	 eax, eax
  008b1	74 0c		 je	 SHORT $LN94@get_closes
  008b3	c7 85 70 ff ff
	ff eb 00 00 00	 mov	 DWORD PTR tv432[ebp], 235 ; 000000ebH
  008bd	eb 28		 jmp	 SHORT $LN95@get_closes
$LN94@get_closes:
  008bf	8b 0d 00 00 00
	00		 mov	 ecx, DWORD PTR ?__LINE__Var@?0??get_closest_free_landing_site@@YGPAUENTITY@@HPAU2@PAUVEC3D@@MPAMH@Z@4JA
  008c5	81 c1 89 00 00
	00		 add	 ecx, 137		; 00000089H
  008cb	51		 push	 ecx
  008cc	68 00 00 00 00	 push	 OFFSET ??_C@_0EB@GJLKGHAC@c?3?2users?2nhv90?2projects?2eech?2ap@
  008d1	8b 15 00 00 00
	00		 mov	 edx, DWORD PTR ?overload_invalid_int_type_message@@3PBDB ; overload_invalid_int_type_message
  008d7	52		 push	 edx
  008d8	e8 00 00 00 00	 call	 ?process_assert@@YGXPBD0H@Z ; process_assert
  008dd	c7 85 70 ff ff
	ff 00 00 00 00	 mov	 DWORD PTR tv432[ebp], 0
$LN95@get_closes:
  008e7	83 7d e8 00	 cmp	 DWORD PTR _current_keysite$[ebp], 0
  008eb	74 0d		 je	 SHORT $LN96@get_closes
  008ed	8b 45 e8	 mov	 eax, DWORD PTR _current_keysite$[ebp]
  008f0	8b 08		 mov	 ecx, DWORD PTR [eax]
  008f2	89 8d 6c ff ff
	ff		 mov	 DWORD PTR tv447[ebp], ecx
  008f8	eb 27		 jmp	 SHORT $LN97@get_closes
$LN96@get_closes:
  008fa	8b 15 00 00 00
	00		 mov	 edx, DWORD PTR ?__LINE__Var@?0??get_closest_free_landing_site@@YGPAUENTITY@@HPAU2@PAUVEC3D@@MPAMH@Z@4JA
  00900	81 c2 87 00 00
	00		 add	 edx, 135		; 00000087H
  00906	52		 push	 edx
  00907	68 00 00 00 00	 push	 OFFSET ??_C@_0EB@GJLKGHAC@c?3?2users?2nhv90?2projects?2eech?2ap@
  0090c	a1 00 00 00 00	 mov	 eax, DWORD PTR ?null_entity_pointer_message@@3PBDB ; null_entity_pointer_message
  00911	50		 push	 eax
  00912	e8 00 00 00 00	 call	 ?process_assert@@YGXPBD0H@Z ; process_assert
  00917	c7 85 6c ff ff
	ff 00 00 00 00	 mov	 DWORD PTR tv447[ebp], 0
$LN97@get_closes:
  00921	b9 01 00 00 00	 mov	 ecx, 1
  00926	85 c9		 test	 ecx, ecx
  00928	74 0c		 je	 SHORT $LN98@get_closes
  0092a	c7 85 68 ff ff
	ff 6d 00 00 00	 mov	 DWORD PTR tv455[ebp], 109 ; 0000006dH
  00934	eb 27		 jmp	 SHORT $LN99@get_closes
$LN98@get_closes:
  00936	8b 15 00 00 00
	00		 mov	 edx, DWORD PTR ?__LINE__Var@?0??get_closest_free_landing_site@@YGPAUENTITY@@HPAU2@PAUVEC3D@@MPAMH@Z@4JA
  0093c	81 c2 87 00 00
	00		 add	 edx, 135		; 00000087H
  00942	52		 push	 edx
  00943	68 00 00 00 00	 push	 OFFSET ??_C@_0EB@GJLKGHAC@c?3?2users?2nhv90?2projects?2eech?2ap@
  00948	a1 00 00 00 00	 mov	 eax, DWORD PTR ?overload_invalid_int_type_message@@3PBDB ; overload_invalid_int_type_message
  0094d	50		 push	 eax
  0094e	e8 00 00 00 00	 call	 ?process_assert@@YGXPBD0H@Z ; process_assert
  00953	c7 85 68 ff ff
	ff 00 00 00 00	 mov	 DWORD PTR tv455[ebp], 0
$LN99@get_closes:
  0095d	83 7d e4 00	 cmp	 DWORD PTR _current_landing$[ebp], 0
  00961	74 0d		 je	 SHORT $LN100@get_closes
  00963	8b 4d e4	 mov	 ecx, DWORD PTR _current_landing$[ebp]
  00966	8b 11		 mov	 edx, DWORD PTR [ecx]
  00968	89 95 64 ff ff
	ff		 mov	 DWORD PTR tv468[ebp], edx
  0096e	eb 26		 jmp	 SHORT $LN101@get_closes
$LN100@get_closes:
  00970	a1 00 00 00 00	 mov	 eax, DWORD PTR ?__LINE__Var@?0??get_closest_free_landing_site@@YGPAUENTITY@@HPAU2@PAUVEC3D@@MPAMH@Z@4JA
  00975	05 86 00 00 00	 add	 eax, 134		; 00000086H
  0097a	50		 push	 eax
  0097b	68 00 00 00 00	 push	 OFFSET ??_C@_0EB@GJLKGHAC@c?3?2users?2nhv90?2projects?2eech?2ap@
  00980	8b 0d 00 00 00
	00		 mov	 ecx, DWORD PTR ?null_entity_pointer_message@@3PBDB ; null_entity_pointer_message
  00986	51		 push	 ecx
  00987	e8 00 00 00 00	 call	 ?process_assert@@YGXPBD0H@Z ; process_assert
  0098c	c7 85 64 ff ff
	ff 00 00 00 00	 mov	 DWORD PTR tv468[ebp], 0
$LN101@get_closes:
  00996	ba 01 00 00 00	 mov	 edx, 1
  0099b	85 d2		 test	 edx, edx
  0099d	74 0c		 je	 SHORT $LN102@get_closes
  0099f	c7 85 60 ff ff
	ff 34 00 00 00	 mov	 DWORD PTR tv476[ebp], 52 ; 00000034H
  009a9	eb 26		 jmp	 SHORT $LN103@get_closes
$LN102@get_closes:
  009ab	a1 00 00 00 00	 mov	 eax, DWORD PTR ?__LINE__Var@?0??get_closest_free_landing_site@@YGPAUENTITY@@HPAU2@PAUVEC3D@@MPAMH@Z@4JA
  009b0	05 86 00 00 00	 add	 eax, 134		; 00000086H
  009b5	50		 push	 eax
  009b6	68 00 00 00 00	 push	 OFFSET ??_C@_0EB@GJLKGHAC@c?3?2users?2nhv90?2projects?2eech?2ap@
  009bb	8b 0d 00 00 00
	00		 mov	 ecx, DWORD PTR ?overload_invalid_int_type_message@@3PBDB ; overload_invalid_int_type_message
  009c1	51		 push	 ecx
  009c2	e8 00 00 00 00	 call	 ?process_assert@@YGXPBD0H@Z ; process_assert
  009c7	c7 85 60 ff ff
	ff 00 00 00 00	 mov	 DWORD PTR tv476[ebp], 0
$LN103@get_closes:
  009d1	83 7d e8 00	 cmp	 DWORD PTR _current_keysite$[ebp], 0
  009d5	74 0d		 je	 SHORT $LN104@get_closes
  009d7	8b 55 e8	 mov	 edx, DWORD PTR _current_keysite$[ebp]
  009da	8b 02		 mov	 eax, DWORD PTR [edx]
  009dc	89 85 5c ff ff
	ff		 mov	 DWORD PTR tv491[ebp], eax
  009e2	eb 28		 jmp	 SHORT $LN105@get_closes
$LN104@get_closes:
  009e4	8b 0d 00 00 00
	00		 mov	 ecx, DWORD PTR ?__LINE__Var@?0??get_closest_free_landing_site@@YGPAUENTITY@@HPAU2@PAUVEC3D@@MPAMH@Z@4JA
  009ea	81 c1 85 00 00
	00		 add	 ecx, 133		; 00000085H
  009f0	51		 push	 ecx
  009f1	68 00 00 00 00	 push	 OFFSET ??_C@_0EB@GJLKGHAC@c?3?2users?2nhv90?2projects?2eech?2ap@
  009f6	8b 15 00 00 00
	00		 mov	 edx, DWORD PTR ?null_entity_pointer_message@@3PBDB ; null_entity_pointer_message
  009fc	52		 push	 edx
  009fd	e8 00 00 00 00	 call	 ?process_assert@@YGXPBD0H@Z ; process_assert
  00a02	c7 85 5c ff ff
	ff 00 00 00 00	 mov	 DWORD PTR tv491[ebp], 0
$LN105@get_closes:
  00a0c	b8 01 00 00 00	 mov	 eax, 1
  00a11	85 c0		 test	 eax, eax
  00a13	74 0c		 je	 SHORT $LN106@get_closes
  00a15	c7 85 58 ff ff
	ff 07 00 00 00	 mov	 DWORD PTR tv499[ebp], 7
  00a1f	eb 28		 jmp	 SHORT $LN107@get_closes
$LN106@get_closes:
  00a21	8b 0d 00 00 00
	00		 mov	 ecx, DWORD PTR ?__LINE__Var@?0??get_closest_free_landing_site@@YGPAUENTITY@@HPAU2@PAUVEC3D@@MPAMH@Z@4JA
  00a27	81 c1 85 00 00
	00		 add	 ecx, 133		; 00000085H
  00a2d	51		 push	 ecx
  00a2e	68 00 00 00 00	 push	 OFFSET ??_C@_0EB@GJLKGHAC@c?3?2users?2nhv90?2projects?2eech?2ap@
  00a33	8b 15 00 00 00
	00		 mov	 edx, DWORD PTR ?overload_invalid_string_type_message@@3PBDB ; overload_invalid_string_type_message
  00a39	52		 push	 edx
  00a3a	e8 00 00 00 00	 call	 ?process_assert@@YGXPBD0H@Z ; process_assert
  00a3f	c7 85 58 ff ff
	ff 00 00 00 00	 mov	 DWORD PTR tv499[ebp], 0
$LN107@get_closes:
  00a49	68 af 00 00 00	 push	 175			; 000000afH
  00a4e	8b 45 e4	 mov	 eax, DWORD PTR _current_landing$[ebp]
  00a51	50		 push	 eax
  00a52	69 4d 84 5c 04
	00 00		 imul	 ecx, DWORD PTR tv382[ebp], 1116
  00a59	8b 55 80	 mov	 edx, DWORD PTR tv390[ebp]
  00a5c	8b 84 91 00 00
	00 00		 mov	 eax, DWORD PTR ?fn_get_local_entity_int_value@@3PAY0BBH@P6GHPAUENTITY@@W4INT_TYPES@@@ZA[ecx+edx*4]
  00a63	ff d0		 call	 eax
  00a65	50		 push	 eax
  00a66	6a 40		 push	 64			; 00000040H
  00a68	8b 4d e4	 mov	 ecx, DWORD PTR _current_landing$[ebp]
  00a6b	51		 push	 ecx
  00a6c	69 95 7c ff ff
	ff 5c 04 00 00	 imul	 edx, DWORD PTR tv403[ebp], 1116
  00a76	8b 85 78 ff ff
	ff		 mov	 eax, DWORD PTR tv411[ebp]
  00a7c	8b 8c 82 00 00
	00 00		 mov	 ecx, DWORD PTR ?fn_get_local_entity_int_value@@3PAY0BBH@P6GHPAUENTITY@@W4INT_TYPES@@@ZA[edx+eax*4]
  00a83	ff d1		 call	 ecx
  00a85	50		 push	 eax
  00a86	68 eb 00 00 00	 push	 235			; 000000ebH
  00a8b	8b 55 e4	 mov	 edx, DWORD PTR _current_landing$[ebp]
  00a8e	52		 push	 edx
  00a8f	69 85 74 ff ff
	ff 5c 04 00 00	 imul	 eax, DWORD PTR tv424[ebp], 1116
  00a99	8b 8d 70 ff ff
	ff		 mov	 ecx, DWORD PTR tv432[ebp]
  00a9f	8b 94 88 00 00
	00 00		 mov	 edx, DWORD PTR ?fn_get_local_entity_int_value@@3PAY0BBH@P6GHPAUENTITY@@W4INT_TYPES@@@ZA[eax+ecx*4]
  00aa6	ff d2		 call	 edx
  00aa8	50		 push	 eax
  00aa9	f3 0f 5a 45 f4	 cvtss2sd xmm0, DWORD PTR _range$[ebp]
  00aae	83 ec 08	 sub	 esp, 8
  00ab1	f2 0f 11 04 24	 movsd	 QWORD PTR [esp], xmm0
  00ab6	6a 6d		 push	 109			; 0000006dH
  00ab8	8b 45 e8	 mov	 eax, DWORD PTR _current_keysite$[ebp]
  00abb	50		 push	 eax
  00abc	69 8d 6c ff ff
	ff 5c 04 00 00	 imul	 ecx, DWORD PTR tv447[ebp], 1116
  00ac6	8b 95 68 ff ff
	ff		 mov	 edx, DWORD PTR tv455[ebp]
  00acc	8b 84 91 00 00
	00 00		 mov	 eax, DWORD PTR ?fn_get_local_entity_int_value@@3PAY0BBH@P6GHPAUENTITY@@W4INT_TYPES@@@ZA[ecx+edx*4]
  00ad3	ff d0		 call	 eax
  00ad5	50		 push	 eax
  00ad6	6a 34		 push	 52			; 00000034H
  00ad8	8b 4d e4	 mov	 ecx, DWORD PTR _current_landing$[ebp]
  00adb	51		 push	 ecx
  00adc	69 95 64 ff ff
	ff 5c 04 00 00	 imul	 edx, DWORD PTR tv468[ebp], 1116
  00ae6	8b 85 60 ff ff
	ff		 mov	 eax, DWORD PTR tv476[ebp]
  00aec	8b 8c 82 00 00
	00 00		 mov	 ecx, DWORD PTR ?fn_get_local_entity_int_value@@3PAY0BBH@P6GHPAUENTITY@@W4INT_TYPES@@@ZA[edx+eax*4]
  00af3	ff d1		 call	 ecx
  00af5	8b 14 85 00 00
	00 00		 mov	 edx, DWORD PTR ?entity_sub_type_landing_names@@3PAPBDA[eax*4]
  00afc	52		 push	 edx
  00afd	6a 07		 push	 7
  00aff	8b 45 e8	 mov	 eax, DWORD PTR _current_keysite$[ebp]
  00b02	50		 push	 eax
  00b03	6b 8d 5c ff ff
	ff 34		 imul	 ecx, DWORD PTR tv491[ebp], 52
  00b0a	8b 95 58 ff ff
	ff		 mov	 edx, DWORD PTR tv499[ebp]
  00b10	8b 84 91 00 00
	00 00		 mov	 eax, DWORD PTR ?fn_get_local_entity_string@@3PAY0N@P6GPBDPAUENTITY@@W4STRING_TYPES@@@ZA[ecx+edx*4]
  00b17	ff d0		 call	 eax
  00b19	50		 push	 eax
  00b1a	68 00 00 00 00	 push	 OFFSET ??_C@_0FA@BEBELJKD@?7found?5?$CFs?5landing?5site?5type?5?$CFs?5@
  00b1f	e8 00 00 00 00	 call	 ?debug_log@@YAXPBDZZ	; debug_log
  00b24	83 c4 24	 add	 esp, 36			; 00000024H

; 372  : 								get_local_entity_string (current_keysite, STRING_TYPE_KEYSITE_NAME),
; 373  : 								entity_sub_type_landing_names [get_local_entity_int_value (current_landing, INT_TYPE_ENTITY_SUB_TYPE)],
; 374  : 								get_local_entity_int_value (current_keysite, INT_TYPE_IN_USE),
; 375  : 								range,
; 376  : 								get_local_entity_int_value (current_landing, INT_TYPE_TOTAL_LANDING_SITES),
; 377  : 								get_local_entity_int_value (current_landing, INT_TYPE_FREE_LANDING_SITES),
; 378  : 								get_local_entity_int_value (current_landing, INT_TYPE_RESERVED_LANDING_SITES));
; 379  : 
; 380  : 				current_landing = get_local_entity_child_succ (current_landing, LIST_TYPE_LANDING_SITE);

  00b27	83 7d e4 00	 cmp	 DWORD PTR _current_landing$[ebp], 0
  00b2b	74 0a		 je	 SHORT $LN108@get_closes
  00b2d	8b 45 e4	 mov	 eax, DWORD PTR _current_landing$[ebp]
  00b30	8b 08		 mov	 ecx, DWORD PTR [eax]
  00b32	89 4d 84	 mov	 DWORD PTR tv513[ebp], ecx
  00b35	eb 24		 jmp	 SHORT $LN109@get_closes
$LN108@get_closes:
  00b37	8b 15 00 00 00
	00		 mov	 edx, DWORD PTR ?__LINE__Var@?0??get_closest_free_landing_site@@YGPAUENTITY@@HPAU2@PAUVEC3D@@MPAMH@Z@4JA
  00b3d	81 c2 8d 00 00
	00		 add	 edx, 141		; 0000008dH
  00b43	52		 push	 edx
  00b44	68 00 00 00 00	 push	 OFFSET ??_C@_0EB@GJLKGHAC@c?3?2users?2nhv90?2projects?2eech?2ap@
  00b49	a1 00 00 00 00	 mov	 eax, DWORD PTR ?null_entity_pointer_message@@3PBDB ; null_entity_pointer_message
  00b4e	50		 push	 eax
  00b4f	e8 00 00 00 00	 call	 ?process_assert@@YGXPBD0H@Z ; process_assert
  00b54	c7 45 84 00 00
	00 00		 mov	 DWORD PTR tv513[ebp], 0
$LN109@get_closes:
  00b5b	b9 01 00 00 00	 mov	 ecx, 1
  00b60	85 c9		 test	 ecx, ecx
  00b62	74 09		 je	 SHORT $LN110@get_closes
  00b64	c7 45 80 17 00
	00 00		 mov	 DWORD PTR tv521[ebp], 23 ; 00000017H
  00b6b	eb 24		 jmp	 SHORT $LN111@get_closes
$LN110@get_closes:
  00b6d	8b 15 00 00 00
	00		 mov	 edx, DWORD PTR ?__LINE__Var@?0??get_closest_free_landing_site@@YGPAUENTITY@@HPAU2@PAUVEC3D@@MPAMH@Z@4JA
  00b73	81 c2 8d 00 00
	00		 add	 edx, 141		; 0000008dH
  00b79	52		 push	 edx
  00b7a	68 00 00 00 00	 push	 OFFSET ??_C@_0EB@GJLKGHAC@c?3?2users?2nhv90?2projects?2eech?2ap@
  00b7f	a1 00 00 00 00	 mov	 eax, DWORD PTR ?overload_invalid_list_type_message@@3PBDB ; overload_invalid_list_type_message
  00b84	50		 push	 eax
  00b85	e8 00 00 00 00	 call	 ?process_assert@@YGXPBD0H@Z ; process_assert
  00b8a	c7 45 80 00 00
	00 00		 mov	 DWORD PTR tv521[ebp], 0
$LN111@get_closes:
  00b91	6a 17		 push	 23			; 00000017H
  00b93	8b 4d e4	 mov	 ecx, DWORD PTR _current_landing$[ebp]
  00b96	51		 push	 ecx
  00b97	69 55 84 b4 00
	00 00		 imul	 edx, DWORD PTR tv513[ebp], 180
  00b9e	8b 45 80	 mov	 eax, DWORD PTR tv521[ebp]
  00ba1	8b 8c 82 00 00
	00 00		 mov	 ecx, DWORD PTR ?fn_get_local_entity_child_succ@@3PAY0CN@P6GPAUENTITY@@PAU1@W4LIST_TYPES@@@ZA[edx+eax*4]
  00ba8	ff d1		 call	 ecx
  00baa	89 45 e4	 mov	 DWORD PTR _current_landing$[ebp], eax

; 381  : 			}

  00bad	e9 42 fb ff ff	 jmp	 $LN8@get_closes
$LN9@get_closes:

; 382  : 
; 383  : 			current_keysite = get_local_entity_child_succ (current_keysite, LIST_TYPE_KEYSITE_FORCE);

  00bb2	83 7d e8 00	 cmp	 DWORD PTR _current_keysite$[ebp], 0
  00bb6	74 0a		 je	 SHORT $LN112@get_closes
  00bb8	8b 45 e8	 mov	 eax, DWORD PTR _current_keysite$[ebp]
  00bbb	8b 08		 mov	 ecx, DWORD PTR [eax]
  00bbd	89 4d 84	 mov	 DWORD PTR tv533[ebp], ecx
  00bc0	eb 24		 jmp	 SHORT $LN113@get_closes
$LN112@get_closes:
  00bc2	8b 15 00 00 00
	00		 mov	 edx, DWORD PTR ?__LINE__Var@?0??get_closest_free_landing_site@@YGPAUENTITY@@HPAU2@PAUVEC3D@@MPAMH@Z@4JA
  00bc8	81 c2 90 00 00
	00		 add	 edx, 144		; 00000090H
  00bce	52		 push	 edx
  00bcf	68 00 00 00 00	 push	 OFFSET ??_C@_0EB@GJLKGHAC@c?3?2users?2nhv90?2projects?2eech?2ap@
  00bd4	a1 00 00 00 00	 mov	 eax, DWORD PTR ?null_entity_pointer_message@@3PBDB ; null_entity_pointer_message
  00bd9	50		 push	 eax
  00bda	e8 00 00 00 00	 call	 ?process_assert@@YGXPBD0H@Z ; process_assert
  00bdf	c7 45 84 00 00
	00 00		 mov	 DWORD PTR tv533[ebp], 0
$LN113@get_closes:
  00be6	b9 01 00 00 00	 mov	 ecx, 1
  00beb	85 c9		 test	 ecx, ecx
  00bed	74 09		 je	 SHORT $LN114@get_closes
  00bef	c7 45 80 15 00
	00 00		 mov	 DWORD PTR tv541[ebp], 21 ; 00000015H
  00bf6	eb 24		 jmp	 SHORT $LN115@get_closes
$LN114@get_closes:
  00bf8	8b 15 00 00 00
	00		 mov	 edx, DWORD PTR ?__LINE__Var@?0??get_closest_free_landing_site@@YGPAUENTITY@@HPAU2@PAUVEC3D@@MPAMH@Z@4JA
  00bfe	81 c2 90 00 00
	00		 add	 edx, 144		; 00000090H
  00c04	52		 push	 edx
  00c05	68 00 00 00 00	 push	 OFFSET ??_C@_0EB@GJLKGHAC@c?3?2users?2nhv90?2projects?2eech?2ap@
  00c0a	a1 00 00 00 00	 mov	 eax, DWORD PTR ?overload_invalid_list_type_message@@3PBDB ; overload_invalid_list_type_message
  00c0f	50		 push	 eax
  00c10	e8 00 00 00 00	 call	 ?process_assert@@YGXPBD0H@Z ; process_assert
  00c15	c7 45 80 00 00
	00 00		 mov	 DWORD PTR tv541[ebp], 0
$LN115@get_closes:
  00c1c	6a 15		 push	 21			; 00000015H
  00c1e	8b 4d e8	 mov	 ecx, DWORD PTR _current_keysite$[ebp]
  00c21	51		 push	 ecx
  00c22	69 55 84 b4 00
	00 00		 imul	 edx, DWORD PTR tv533[ebp], 180
  00c29	8b 45 80	 mov	 eax, DWORD PTR tv541[ebp]
  00c2c	8b 8c 82 00 00
	00 00		 mov	 ecx, DWORD PTR ?fn_get_local_entity_child_succ@@3PAY0CN@P6GPAUENTITY@@PAU1@W4LIST_TYPES@@@ZA[edx+eax*4]
  00c33	ff d1		 call	 ecx
  00c35	89 45 e8	 mov	 DWORD PTR _current_keysite$[ebp], eax

; 384  : 		}

  00c38	e9 2d fa ff ff	 jmp	 $LN6@get_closes
$LN7@get_closes:

; 385  : 		{
; 386  : 		
; 387  : 			int
; 388  : 				sites_available;
; 389  : 		
; 390  : 			float
; 391  : 				best_range,
; 392  : 				range;
; 393  : 		
; 394  : 			vec3d
; 395  : 				*landing_pos;
; 396  : 		
; 397  : 			entity
; 398  : 				*closest_landing = NULL,

  00c3d	c7 45 d0 00 00
	00 00		 mov	 DWORD PTR _closest_landing$3[ebp], 0

; 399  : 				*current_keysite,
; 400  : 				*current_landing;
; 401  : 		
; 402  : 			best_range = 99999999;

  00c44	f3 0f 10 05 00
	00 00 00	 movss	 xmm0, DWORD PTR __real@4cbebc20
  00c4c	f3 0f 11 45 dc	 movss	 DWORD PTR _best_range$6[ebp], xmm0

; 403  : 		
; 404  : 			current_keysite = get_local_entity_first_child (force, LIST_TYPE_KEYSITE_FORCE);

  00c51	83 7d 0c 00	 cmp	 DWORD PTR _force$[ebp], 0
  00c55	74 0a		 je	 SHORT $LN116@get_closes
  00c57	8b 45 0c	 mov	 eax, DWORD PTR _force$[ebp]
  00c5a	8b 08		 mov	 ecx, DWORD PTR [eax]
  00c5c	89 4d 84	 mov	 DWORD PTR tv553[ebp], ecx
  00c5f	eb 24		 jmp	 SHORT $LN117@get_closes
$LN116@get_closes:
  00c61	8b 15 00 00 00
	00		 mov	 edx, DWORD PTR ?__LINE__Var@?0??get_closest_free_landing_site@@YGPAUENTITY@@HPAU2@PAUVEC3D@@MPAMH@Z@4JA
  00c67	81 c2 a5 00 00
	00		 add	 edx, 165		; 000000a5H
  00c6d	52		 push	 edx
  00c6e	68 00 00 00 00	 push	 OFFSET ??_C@_0EB@GJLKGHAC@c?3?2users?2nhv90?2projects?2eech?2ap@
  00c73	a1 00 00 00 00	 mov	 eax, DWORD PTR ?null_entity_pointer_message@@3PBDB ; null_entity_pointer_message
  00c78	50		 push	 eax
  00c79	e8 00 00 00 00	 call	 ?process_assert@@YGXPBD0H@Z ; process_assert
  00c7e	c7 45 84 00 00
	00 00		 mov	 DWORD PTR tv553[ebp], 0
$LN117@get_closes:
  00c85	b9 01 00 00 00	 mov	 ecx, 1
  00c8a	85 c9		 test	 ecx, ecx
  00c8c	74 09		 je	 SHORT $LN118@get_closes
  00c8e	c7 45 80 15 00
	00 00		 mov	 DWORD PTR tv561[ebp], 21 ; 00000015H
  00c95	eb 24		 jmp	 SHORT $LN119@get_closes
$LN118@get_closes:
  00c97	8b 15 00 00 00
	00		 mov	 edx, DWORD PTR ?__LINE__Var@?0??get_closest_free_landing_site@@YGPAUENTITY@@HPAU2@PAUVEC3D@@MPAMH@Z@4JA
  00c9d	81 c2 a5 00 00
	00		 add	 edx, 165		; 000000a5H
  00ca3	52		 push	 edx
  00ca4	68 00 00 00 00	 push	 OFFSET ??_C@_0EB@GJLKGHAC@c?3?2users?2nhv90?2projects?2eech?2ap@
  00ca9	a1 00 00 00 00	 mov	 eax, DWORD PTR ?overload_invalid_list_type_message@@3PBDB ; overload_invalid_list_type_message
  00cae	50		 push	 eax
  00caf	e8 00 00 00 00	 call	 ?process_assert@@YGXPBD0H@Z ; process_assert
  00cb4	c7 45 80 00 00
	00 00		 mov	 DWORD PTR tv561[ebp], 0
$LN119@get_closes:
  00cbb	6a 15		 push	 21			; 00000015H
  00cbd	8b 4d 0c	 mov	 ecx, DWORD PTR _force$[ebp]
  00cc0	51		 push	 ecx
  00cc1	69 55 84 b4 00
	00 00		 imul	 edx, DWORD PTR tv553[ebp], 180
  00cc8	8b 45 80	 mov	 eax, DWORD PTR tv561[ebp]
  00ccb	8b 8c 82 00 00
	00 00		 mov	 ecx, DWORD PTR ?fn_get_local_entity_first_child@@3PAY0CN@P6GPAUENTITY@@PAU1@W4LIST_TYPES@@@ZA[edx+eax*4]
  00cd2	ff d1		 call	 ecx
  00cd4	89 45 cc	 mov	 DWORD PTR _current_keysite$2[ebp], eax
$LN10@get_closes:

; 405  : 		
; 406  : 			while (current_keysite)

  00cd7	83 7d cc 00	 cmp	 DWORD PTR _current_keysite$2[ebp], 0
  00cdb	0f 84 a7 05 00
	00		 je	 $LN11@get_closes

; 407  : 			{
; 408  : 				if (get_local_entity_int_value (current_keysite, INT_TYPE_IN_USE))

  00ce1	83 7d cc 00	 cmp	 DWORD PTR _current_keysite$2[ebp], 0
  00ce5	74 0a		 je	 SHORT $LN120@get_closes
  00ce7	8b 45 cc	 mov	 eax, DWORD PTR _current_keysite$2[ebp]
  00cea	8b 08		 mov	 ecx, DWORD PTR [eax]
  00cec	89 4d 84	 mov	 DWORD PTR tv573[ebp], ecx
  00cef	eb 1d		 jmp	 SHORT $LN121@get_closes
$LN120@get_closes:
  00cf1	68 98 01 00 00	 push	 408			; 00000198H
  00cf6	68 00 00 00 00	 push	 OFFSET ??_C@_0EB@GJLKGHAC@c?3?2users?2nhv90?2projects?2eech?2ap@
  00cfb	8b 15 00 00 00
	00		 mov	 edx, DWORD PTR ?null_entity_pointer_message@@3PBDB ; null_entity_pointer_message
  00d01	52		 push	 edx
  00d02	e8 00 00 00 00	 call	 ?process_assert@@YGXPBD0H@Z ; process_assert
  00d07	c7 45 84 00 00
	00 00		 mov	 DWORD PTR tv573[ebp], 0
$LN121@get_closes:
  00d0e	b8 01 00 00 00	 mov	 eax, 1
  00d13	85 c0		 test	 eax, eax
  00d15	74 09		 je	 SHORT $LN122@get_closes
  00d17	c7 45 80 6d 00
	00 00		 mov	 DWORD PTR tv580[ebp], 109 ; 0000006dH
  00d1e	eb 1d		 jmp	 SHORT $LN123@get_closes
$LN122@get_closes:
  00d20	68 98 01 00 00	 push	 408			; 00000198H
  00d25	68 00 00 00 00	 push	 OFFSET ??_C@_0EB@GJLKGHAC@c?3?2users?2nhv90?2projects?2eech?2ap@
  00d2a	8b 0d 00 00 00
	00		 mov	 ecx, DWORD PTR ?overload_invalid_int_type_message@@3PBDB ; overload_invalid_int_type_message
  00d30	51		 push	 ecx
  00d31	e8 00 00 00 00	 call	 ?process_assert@@YGXPBD0H@Z ; process_assert
  00d36	c7 45 80 00 00
	00 00		 mov	 DWORD PTR tv580[ebp], 0
$LN123@get_closes:
  00d3d	6a 6d		 push	 109			; 0000006dH
  00d3f	8b 55 cc	 mov	 edx, DWORD PTR _current_keysite$2[ebp]
  00d42	52		 push	 edx
  00d43	69 45 84 5c 04
	00 00		 imul	 eax, DWORD PTR tv573[ebp], 1116
  00d4a	8b 4d 80	 mov	 ecx, DWORD PTR tv580[ebp]
  00d4d	8b 94 88 00 00
	00 00		 mov	 edx, DWORD PTR ?fn_get_local_entity_int_value@@3PAY0BBH@P6GHPAUENTITY@@W4INT_TYPES@@@ZA[eax+ecx*4]
  00d54	ff d2		 call	 edx
  00d56	85 c0		 test	 eax, eax
  00d58	0f 84 9f 04 00
	00		 je	 $LN13@get_closes

; 409  : 				{
; 410  : 					if (get_local_entity_int_value (current_keysite, INT_TYPE_KEYSITE_USABLE_STATE) == KEYSITE_STATE_USABLE)

  00d5e	83 7d cc 00	 cmp	 DWORD PTR _current_keysite$2[ebp], 0
  00d62	74 0a		 je	 SHORT $LN124@get_closes
  00d64	8b 45 cc	 mov	 eax, DWORD PTR _current_keysite$2[ebp]
  00d67	8b 08		 mov	 ecx, DWORD PTR [eax]
  00d69	89 4d 84	 mov	 DWORD PTR tv592[ebp], ecx
  00d6c	eb 1d		 jmp	 SHORT $LN125@get_closes
$LN124@get_closes:
  00d6e	68 9a 01 00 00	 push	 410			; 0000019aH
  00d73	68 00 00 00 00	 push	 OFFSET ??_C@_0EB@GJLKGHAC@c?3?2users?2nhv90?2projects?2eech?2ap@
  00d78	8b 15 00 00 00
	00		 mov	 edx, DWORD PTR ?null_entity_pointer_message@@3PBDB ; null_entity_pointer_message
  00d7e	52		 push	 edx
  00d7f	e8 00 00 00 00	 call	 ?process_assert@@YGXPBD0H@Z ; process_assert
  00d84	c7 45 84 00 00
	00 00		 mov	 DWORD PTR tv592[ebp], 0
$LN125@get_closes:
  00d8b	b8 01 00 00 00	 mov	 eax, 1
  00d90	85 c0		 test	 eax, eax
  00d92	74 09		 je	 SHORT $LN126@get_closes
  00d94	c7 45 80 70 00
	00 00		 mov	 DWORD PTR tv599[ebp], 112 ; 00000070H
  00d9b	eb 1d		 jmp	 SHORT $LN127@get_closes
$LN126@get_closes:
  00d9d	68 9a 01 00 00	 push	 410			; 0000019aH
  00da2	68 00 00 00 00	 push	 OFFSET ??_C@_0EB@GJLKGHAC@c?3?2users?2nhv90?2projects?2eech?2ap@
  00da7	8b 0d 00 00 00
	00		 mov	 ecx, DWORD PTR ?overload_invalid_int_type_message@@3PBDB ; overload_invalid_int_type_message
  00dad	51		 push	 ecx
  00dae	e8 00 00 00 00	 call	 ?process_assert@@YGXPBD0H@Z ; process_assert
  00db3	c7 45 80 00 00
	00 00		 mov	 DWORD PTR tv599[ebp], 0
$LN127@get_closes:
  00dba	6a 70		 push	 112			; 00000070H
  00dbc	8b 55 cc	 mov	 edx, DWORD PTR _current_keysite$2[ebp]
  00dbf	52		 push	 edx
  00dc0	69 45 84 5c 04
	00 00		 imul	 eax, DWORD PTR tv592[ebp], 1116
  00dc7	8b 4d 80	 mov	 ecx, DWORD PTR tv599[ebp]
  00dca	8b 94 88 00 00
	00 00		 mov	 edx, DWORD PTR ?fn_get_local_entity_int_value@@3PAY0BBH@P6GHPAUENTITY@@W4INT_TYPES@@@ZA[eax+ecx*4]
  00dd1	ff d2		 call	 edx
  00dd3	85 c0		 test	 eax, eax
  00dd5	0f 85 22 04 00
	00		 jne	 $LN13@get_closes

; 411  : 					{
; 412  : 						current_landing = get_local_entity_first_child (current_keysite, LIST_TYPE_LANDING_SITE);

  00ddb	83 7d cc 00	 cmp	 DWORD PTR _current_keysite$2[ebp], 0
  00ddf	74 0a		 je	 SHORT $LN128@get_closes
  00de1	8b 45 cc	 mov	 eax, DWORD PTR _current_keysite$2[ebp]
  00de4	8b 08		 mov	 ecx, DWORD PTR [eax]
  00de6	89 4d 84	 mov	 DWORD PTR tv612[ebp], ecx
  00de9	eb 24		 jmp	 SHORT $LN129@get_closes
$LN128@get_closes:
  00deb	8b 15 00 00 00
	00		 mov	 edx, DWORD PTR ?__LINE__Var@?0??get_closest_free_landing_site@@YGPAUENTITY@@HPAU2@PAUVEC3D@@MPAMH@Z@4JA
  00df1	81 c2 ad 00 00
	00		 add	 edx, 173		; 000000adH
  00df7	52		 push	 edx
  00df8	68 00 00 00 00	 push	 OFFSET ??_C@_0EB@GJLKGHAC@c?3?2users?2nhv90?2projects?2eech?2ap@
  00dfd	a1 00 00 00 00	 mov	 eax, DWORD PTR ?null_entity_pointer_message@@3PBDB ; null_entity_pointer_message
  00e02	50		 push	 eax
  00e03	e8 00 00 00 00	 call	 ?process_assert@@YGXPBD0H@Z ; process_assert
  00e08	c7 45 84 00 00
	00 00		 mov	 DWORD PTR tv612[ebp], 0
$LN129@get_closes:
  00e0f	b9 01 00 00 00	 mov	 ecx, 1
  00e14	85 c9		 test	 ecx, ecx
  00e16	74 09		 je	 SHORT $LN130@get_closes
  00e18	c7 45 80 17 00
	00 00		 mov	 DWORD PTR tv620[ebp], 23 ; 00000017H
  00e1f	eb 24		 jmp	 SHORT $LN131@get_closes
$LN130@get_closes:
  00e21	8b 15 00 00 00
	00		 mov	 edx, DWORD PTR ?__LINE__Var@?0??get_closest_free_landing_site@@YGPAUENTITY@@HPAU2@PAUVEC3D@@MPAMH@Z@4JA
  00e27	81 c2 ad 00 00
	00		 add	 edx, 173		; 000000adH
  00e2d	52		 push	 edx
  00e2e	68 00 00 00 00	 push	 OFFSET ??_C@_0EB@GJLKGHAC@c?3?2users?2nhv90?2projects?2eech?2ap@
  00e33	a1 00 00 00 00	 mov	 eax, DWORD PTR ?overload_invalid_list_type_message@@3PBDB ; overload_invalid_list_type_message
  00e38	50		 push	 eax
  00e39	e8 00 00 00 00	 call	 ?process_assert@@YGXPBD0H@Z ; process_assert
  00e3e	c7 45 80 00 00
	00 00		 mov	 DWORD PTR tv620[ebp], 0
$LN131@get_closes:
  00e45	6a 17		 push	 23			; 00000017H
  00e47	8b 4d cc	 mov	 ecx, DWORD PTR _current_keysite$2[ebp]
  00e4a	51		 push	 ecx
  00e4b	69 55 84 b4 00
	00 00		 imul	 edx, DWORD PTR tv612[ebp], 180
  00e52	8b 45 80	 mov	 eax, DWORD PTR tv620[ebp]
  00e55	8b 8c 82 00 00
	00 00		 mov	 ecx, DWORD PTR ?fn_get_local_entity_first_child@@3PAY0CN@P6GPAUENTITY@@PAU1@W4LIST_TYPES@@@ZA[edx+eax*4]
  00e5c	ff d1		 call	 ecx
  00e5e	89 45 c8	 mov	 DWORD PTR _current_landing$1[ebp], eax
$LN12@get_closes:

; 413  : 				
; 414  : 						while (current_landing)

  00e61	83 7d c8 00	 cmp	 DWORD PTR _current_landing$1[ebp], 0
  00e65	0f 84 92 03 00
	00		 je	 $LN13@get_closes

; 415  : 						{
; 416  : 				
; 417  : 							if (get_local_entity_int_value (current_landing, INT_TYPE_ENTITY_SUB_TYPE) == sub_type)

  00e6b	83 7d c8 00	 cmp	 DWORD PTR _current_landing$1[ebp], 0
  00e6f	74 0a		 je	 SHORT $LN132@get_closes
  00e71	8b 45 c8	 mov	 eax, DWORD PTR _current_landing$1[ebp]
  00e74	8b 08		 mov	 ecx, DWORD PTR [eax]
  00e76	89 4d 84	 mov	 DWORD PTR tv632[ebp], ecx
  00e79	eb 1d		 jmp	 SHORT $LN133@get_closes
$LN132@get_closes:
  00e7b	68 a1 01 00 00	 push	 417			; 000001a1H
  00e80	68 00 00 00 00	 push	 OFFSET ??_C@_0EB@GJLKGHAC@c?3?2users?2nhv90?2projects?2eech?2ap@
  00e85	8b 15 00 00 00
	00		 mov	 edx, DWORD PTR ?null_entity_pointer_message@@3PBDB ; null_entity_pointer_message
  00e8b	52		 push	 edx
  00e8c	e8 00 00 00 00	 call	 ?process_assert@@YGXPBD0H@Z ; process_assert
  00e91	c7 45 84 00 00
	00 00		 mov	 DWORD PTR tv632[ebp], 0
$LN133@get_closes:
  00e98	b8 01 00 00 00	 mov	 eax, 1
  00e9d	85 c0		 test	 eax, eax
  00e9f	74 09		 je	 SHORT $LN134@get_closes
  00ea1	c7 45 80 34 00
	00 00		 mov	 DWORD PTR tv639[ebp], 52 ; 00000034H
  00ea8	eb 1d		 jmp	 SHORT $LN135@get_closes
$LN134@get_closes:
  00eaa	68 a1 01 00 00	 push	 417			; 000001a1H
  00eaf	68 00 00 00 00	 push	 OFFSET ??_C@_0EB@GJLKGHAC@c?3?2users?2nhv90?2projects?2eech?2ap@
  00eb4	8b 0d 00 00 00
	00		 mov	 ecx, DWORD PTR ?overload_invalid_int_type_message@@3PBDB ; overload_invalid_int_type_message
  00eba	51		 push	 ecx
  00ebb	e8 00 00 00 00	 call	 ?process_assert@@YGXPBD0H@Z ; process_assert
  00ec0	c7 45 80 00 00
	00 00		 mov	 DWORD PTR tv639[ebp], 0
$LN135@get_closes:
  00ec7	6a 34		 push	 52			; 00000034H
  00ec9	8b 55 c8	 mov	 edx, DWORD PTR _current_landing$1[ebp]
  00ecc	52		 push	 edx
  00ecd	69 45 84 5c 04
	00 00		 imul	 eax, DWORD PTR tv632[ebp], 1116
  00ed4	8b 4d 80	 mov	 ecx, DWORD PTR tv639[ebp]
  00ed7	8b 94 88 00 00
	00 00		 mov	 edx, DWORD PTR ?fn_get_local_entity_int_value@@3PAY0BBH@P6GHPAUENTITY@@W4INT_TYPES@@@ZA[eax+ecx*4]
  00ede	ff d2		 call	 edx
  00ee0	3b 45 08	 cmp	 eax, DWORD PTR _sub_type$[ebp]
  00ee3	0f 85 89 02 00
	00		 jne	 $LN29@get_closes

; 418  : 							{
; 419  : 				
; 420  : 								sites_available = get_local_entity_int_value (current_landing, INT_TYPE_FREE_LANDING_SITES) - get_local_entity_int_value (current_landing, INT_TYPE_RESERVED_LANDING_SITES);

  00ee9	83 7d c8 00	 cmp	 DWORD PTR _current_landing$1[ebp], 0
  00eed	74 0a		 je	 SHORT $LN136@get_closes
  00eef	8b 45 c8	 mov	 eax, DWORD PTR _current_landing$1[ebp]
  00ef2	8b 08		 mov	 ecx, DWORD PTR [eax]
  00ef4	89 4d 84	 mov	 DWORD PTR tv652[ebp], ecx
  00ef7	eb 24		 jmp	 SHORT $LN137@get_closes
$LN136@get_closes:
  00ef9	8b 15 00 00 00
	00		 mov	 edx, DWORD PTR ?__LINE__Var@?0??get_closest_free_landing_site@@YGPAUENTITY@@HPAU2@PAUVEC3D@@MPAMH@Z@4JA
  00eff	81 c2 b5 00 00
	00		 add	 edx, 181		; 000000b5H
  00f05	52		 push	 edx
  00f06	68 00 00 00 00	 push	 OFFSET ??_C@_0EB@GJLKGHAC@c?3?2users?2nhv90?2projects?2eech?2ap@
  00f0b	a1 00 00 00 00	 mov	 eax, DWORD PTR ?null_entity_pointer_message@@3PBDB ; null_entity_pointer_message
  00f10	50		 push	 eax
  00f11	e8 00 00 00 00	 call	 ?process_assert@@YGXPBD0H@Z ; process_assert
  00f16	c7 45 84 00 00
	00 00		 mov	 DWORD PTR tv652[ebp], 0
$LN137@get_closes:
  00f1d	b9 01 00 00 00	 mov	 ecx, 1
  00f22	85 c9		 test	 ecx, ecx
  00f24	74 09		 je	 SHORT $LN138@get_closes
  00f26	c7 45 80 40 00
	00 00		 mov	 DWORD PTR tv660[ebp], 64 ; 00000040H
  00f2d	eb 24		 jmp	 SHORT $LN139@get_closes
$LN138@get_closes:
  00f2f	8b 15 00 00 00
	00		 mov	 edx, DWORD PTR ?__LINE__Var@?0??get_closest_free_landing_site@@YGPAUENTITY@@HPAU2@PAUVEC3D@@MPAMH@Z@4JA
  00f35	81 c2 b5 00 00
	00		 add	 edx, 181		; 000000b5H
  00f3b	52		 push	 edx
  00f3c	68 00 00 00 00	 push	 OFFSET ??_C@_0EB@GJLKGHAC@c?3?2users?2nhv90?2projects?2eech?2ap@
  00f41	a1 00 00 00 00	 mov	 eax, DWORD PTR ?overload_invalid_int_type_message@@3PBDB ; overload_invalid_int_type_message
  00f46	50		 push	 eax
  00f47	e8 00 00 00 00	 call	 ?process_assert@@YGXPBD0H@Z ; process_assert
  00f4c	c7 45 80 00 00
	00 00		 mov	 DWORD PTR tv660[ebp], 0
$LN139@get_closes:
  00f53	83 7d c8 00	 cmp	 DWORD PTR _current_landing$1[ebp], 0
  00f57	74 0d		 je	 SHORT $LN140@get_closes
  00f59	8b 4d c8	 mov	 ecx, DWORD PTR _current_landing$1[ebp]
  00f5c	8b 11		 mov	 edx, DWORD PTR [ecx]
  00f5e	89 95 7c ff ff
	ff		 mov	 DWORD PTR tv672[ebp], edx
  00f64	eb 26		 jmp	 SHORT $LN141@get_closes
$LN140@get_closes:
  00f66	a1 00 00 00 00	 mov	 eax, DWORD PTR ?__LINE__Var@?0??get_closest_free_landing_site@@YGPAUENTITY@@HPAU2@PAUVEC3D@@MPAMH@Z@4JA
  00f6b	05 b5 00 00 00	 add	 eax, 181		; 000000b5H
  00f70	50		 push	 eax
  00f71	68 00 00 00 00	 push	 OFFSET ??_C@_0EB@GJLKGHAC@c?3?2users?2nhv90?2projects?2eech?2ap@
  00f76	8b 0d 00 00 00
	00		 mov	 ecx, DWORD PTR ?null_entity_pointer_message@@3PBDB ; null_entity_pointer_message
  00f7c	51		 push	 ecx
  00f7d	e8 00 00 00 00	 call	 ?process_assert@@YGXPBD0H@Z ; process_assert
  00f82	c7 85 7c ff ff
	ff 00 00 00 00	 mov	 DWORD PTR tv672[ebp], 0
$LN141@get_closes:
  00f8c	ba 01 00 00 00	 mov	 edx, 1
  00f91	85 d2		 test	 edx, edx
  00f93	74 0c		 je	 SHORT $LN142@get_closes
  00f95	c7 85 78 ff ff
	ff af 00 00 00	 mov	 DWORD PTR tv680[ebp], 175 ; 000000afH
  00f9f	eb 26		 jmp	 SHORT $LN143@get_closes
$LN142@get_closes:
  00fa1	a1 00 00 00 00	 mov	 eax, DWORD PTR ?__LINE__Var@?0??get_closest_free_landing_site@@YGPAUENTITY@@HPAU2@PAUVEC3D@@MPAMH@Z@4JA
  00fa6	05 b5 00 00 00	 add	 eax, 181		; 000000b5H
  00fab	50		 push	 eax
  00fac	68 00 00 00 00	 push	 OFFSET ??_C@_0EB@GJLKGHAC@c?3?2users?2nhv90?2projects?2eech?2ap@
  00fb1	8b 0d 00 00 00
	00		 mov	 ecx, DWORD PTR ?overload_invalid_int_type_message@@3PBDB ; overload_invalid_int_type_message
  00fb7	51		 push	 ecx
  00fb8	e8 00 00 00 00	 call	 ?process_assert@@YGXPBD0H@Z ; process_assert
  00fbd	c7 85 78 ff ff
	ff 00 00 00 00	 mov	 DWORD PTR tv680[ebp], 0
$LN143@get_closes:
  00fc7	6a 40		 push	 64			; 00000040H
  00fc9	8b 55 c8	 mov	 edx, DWORD PTR _current_landing$1[ebp]
  00fcc	52		 push	 edx
  00fcd	69 45 84 5c 04
	00 00		 imul	 eax, DWORD PTR tv652[ebp], 1116
  00fd4	8b 4d 80	 mov	 ecx, DWORD PTR tv660[ebp]
  00fd7	8b 94 88 00 00
	00 00		 mov	 edx, DWORD PTR ?fn_get_local_entity_int_value@@3PAY0BBH@P6GHPAUENTITY@@W4INT_TYPES@@@ZA[eax+ecx*4]
  00fde	ff d2		 call	 edx
  00fe0	8b f0		 mov	 esi, eax
  00fe2	68 af 00 00 00	 push	 175			; 000000afH
  00fe7	8b 45 c8	 mov	 eax, DWORD PTR _current_landing$1[ebp]
  00fea	50		 push	 eax
  00feb	69 8d 7c ff ff
	ff 5c 04 00 00	 imul	 ecx, DWORD PTR tv672[ebp], 1116
  00ff5	8b 95 78 ff ff
	ff		 mov	 edx, DWORD PTR tv680[ebp]
  00ffb	8b 84 91 00 00
	00 00		 mov	 eax, DWORD PTR ?fn_get_local_entity_int_value@@3PAY0BBH@P6GHPAUENTITY@@W4INT_TYPES@@@ZA[ecx+edx*4]
  01002	ff d0		 call	 eax
  01004	2b f0		 sub	 esi, eax
  01006	89 75 e0	 mov	 DWORD PTR _sites_available$7[ebp], esi

; 421  : 				
; 422  : 								if (sites_available >= sites_required)

  01009	8b 45 e0	 mov	 eax, DWORD PTR _sites_available$7[ebp]
  0100c	3b 45 1c	 cmp	 eax, DWORD PTR _sites_required$[ebp]
  0100f	0f 8c 5d 01 00
	00		 jl	 $LN29@get_closes

; 423  : 								{
; 424  : 				
; 425  : 									landing_pos = get_local_entity_vec3d_ptr (current_landing, VEC3D_TYPE_POSITION);

  01015	83 7d c8 00	 cmp	 DWORD PTR _current_landing$1[ebp], 0
  01019	74 0a		 je	 SHORT $LN144@get_closes
  0101b	8b 45 c8	 mov	 eax, DWORD PTR _current_landing$1[ebp]
  0101e	8b 08		 mov	 ecx, DWORD PTR [eax]
  01020	89 4d 84	 mov	 DWORD PTR tv694[ebp], ecx
  01023	eb 24		 jmp	 SHORT $LN145@get_closes
$LN144@get_closes:
  01025	8b 15 00 00 00
	00		 mov	 edx, DWORD PTR ?__LINE__Var@?0??get_closest_free_landing_site@@YGPAUENTITY@@HPAU2@PAUVEC3D@@MPAMH@Z@4JA
  0102b	81 c2 ba 00 00
	00		 add	 edx, 186		; 000000baH
  01031	52		 push	 edx
  01032	68 00 00 00 00	 push	 OFFSET ??_C@_0EB@GJLKGHAC@c?3?2users?2nhv90?2projects?2eech?2ap@
  01037	a1 00 00 00 00	 mov	 eax, DWORD PTR ?null_entity_pointer_message@@3PBDB ; null_entity_pointer_message
  0103c	50		 push	 eax
  0103d	e8 00 00 00 00	 call	 ?process_assert@@YGXPBD0H@Z ; process_assert
  01042	c7 45 84 00 00
	00 00		 mov	 DWORD PTR tv694[ebp], 0
$LN145@get_closes:
  01049	b9 01 00 00 00	 mov	 ecx, 1
  0104e	85 c9		 test	 ecx, ecx
  01050	74 09		 je	 SHORT $LN146@get_closes
  01052	c7 45 80 08 00
	00 00		 mov	 DWORD PTR tv702[ebp], 8
  01059	eb 24		 jmp	 SHORT $LN147@get_closes
$LN146@get_closes:
  0105b	8b 15 00 00 00
	00		 mov	 edx, DWORD PTR ?__LINE__Var@?0??get_closest_free_landing_site@@YGPAUENTITY@@HPAU2@PAUVEC3D@@MPAMH@Z@4JA
  01061	81 c2 ba 00 00
	00		 add	 edx, 186		; 000000baH
  01067	52		 push	 edx
  01068	68 00 00 00 00	 push	 OFFSET ??_C@_0EB@GJLKGHAC@c?3?2users?2nhv90?2projects?2eech?2ap@
  0106d	a1 00 00 00 00	 mov	 eax, DWORD PTR ?overload_invalid_vec3d_type_message@@3PBDB ; overload_invalid_vec3d_type_message
  01072	50		 push	 eax
  01073	e8 00 00 00 00	 call	 ?process_assert@@YGXPBD0H@Z ; process_assert
  01078	c7 45 80 00 00
	00 00		 mov	 DWORD PTR tv702[ebp], 0
$LN147@get_closes:
  0107f	6a 08		 push	 8
  01081	8b 4d c8	 mov	 ecx, DWORD PTR _current_landing$1[ebp]
  01084	51		 push	 ecx
  01085	6b 55 84 60	 imul	 edx, DWORD PTR tv694[ebp], 96
  01089	8b 45 80	 mov	 eax, DWORD PTR tv702[ebp]
  0108c	8b 8c 82 00 00
	00 00		 mov	 ecx, DWORD PTR ?fn_get_local_entity_vec3d_ptr@@3PAY0BI@P6GPAUVEC3D@@PAUENTITY@@W4VEC3D_TYPES@@@ZA[edx+eax*4]
  01093	ff d1		 call	 ecx
  01095	89 45 d4	 mov	 DWORD PTR _landing_pos$4[ebp], eax

; 426  : 				
; 427  : 									range = get_approx_2d_range (landing_pos, pos);

  01098	8b 45 10	 mov	 eax, DWORD PTR _pos$[ebp]
  0109b	50		 push	 eax
  0109c	8b 4d d4	 mov	 ecx, DWORD PTR _landing_pos$4[ebp]
  0109f	51		 push	 ecx
  010a0	e8 00 00 00 00	 call	 ?get_approx_2d_range@@YGMPBUVEC3D@@0@Z ; get_approx_2d_range
  010a5	d9 5d d8	 fstp	 DWORD PTR _range$5[ebp]

; 428  : 			
; 429  : 									if (range <= min_range)

  010a8	f3 0f 10 45 14	 movss	 xmm0, DWORD PTR _min_range$[ebp]
  010ad	0f 2f 45 d8	 comiss	 xmm0, DWORD PTR _range$5[ebp]
  010b1	0f 82 a0 00 00
	00		 jb	 $LN27@get_closes

; 430  : 									{
; 431  : 				
; 432  : 										if (actual_range)

  010b7	83 7d 18 00	 cmp	 DWORD PTR _actual_range$[ebp], 0
  010bb	74 0c		 je	 SHORT $LN28@get_closes

; 433  : 										{
; 434  : 											*actual_range = range;

  010bd	8b 45 18	 mov	 eax, DWORD PTR _actual_range$[ebp]
  010c0	f3 0f 10 45 d8	 movss	 xmm0, DWORD PTR _range$5[ebp]
  010c5	f3 0f 11 00	 movss	 DWORD PTR [eax], xmm0
$LN28@get_closes:

; 435  : 										}
; 436  : 	
; 437  : 										debug_log ("AI_MISC: found keysite %s", get_local_entity_string (current_keysite, STRING_TYPE_KEYSITE_NAME));

  010c9	83 7d cc 00	 cmp	 DWORD PTR _current_keysite$2[ebp], 0
  010cd	74 0a		 je	 SHORT $LN148@get_closes
  010cf	8b 45 cc	 mov	 eax, DWORD PTR _current_keysite$2[ebp]
  010d2	8b 08		 mov	 ecx, DWORD PTR [eax]
  010d4	89 4d 84	 mov	 DWORD PTR tv719[ebp], ecx
  010d7	eb 24		 jmp	 SHORT $LN149@get_closes
$LN148@get_closes:
  010d9	8b 15 00 00 00
	00		 mov	 edx, DWORD PTR ?__LINE__Var@?0??get_closest_free_landing_site@@YGPAUENTITY@@HPAU2@PAUVEC3D@@MPAMH@Z@4JA
  010df	81 c2 c6 00 00
	00		 add	 edx, 198		; 000000c6H
  010e5	52		 push	 edx
  010e6	68 00 00 00 00	 push	 OFFSET ??_C@_0EB@GJLKGHAC@c?3?2users?2nhv90?2projects?2eech?2ap@
  010eb	a1 00 00 00 00	 mov	 eax, DWORD PTR ?null_entity_pointer_message@@3PBDB ; null_entity_pointer_message
  010f0	50		 push	 eax
  010f1	e8 00 00 00 00	 call	 ?process_assert@@YGXPBD0H@Z ; process_assert
  010f6	c7 45 84 00 00
	00 00		 mov	 DWORD PTR tv719[ebp], 0
$LN149@get_closes:
  010fd	b9 01 00 00 00	 mov	 ecx, 1
  01102	85 c9		 test	 ecx, ecx
  01104	74 09		 je	 SHORT $LN150@get_closes
  01106	c7 45 80 07 00
	00 00		 mov	 DWORD PTR tv727[ebp], 7
  0110d	eb 24		 jmp	 SHORT $LN151@get_closes
$LN150@get_closes:
  0110f	8b 15 00 00 00
	00		 mov	 edx, DWORD PTR ?__LINE__Var@?0??get_closest_free_landing_site@@YGPAUENTITY@@HPAU2@PAUVEC3D@@MPAMH@Z@4JA
  01115	81 c2 c6 00 00
	00		 add	 edx, 198		; 000000c6H
  0111b	52		 push	 edx
  0111c	68 00 00 00 00	 push	 OFFSET ??_C@_0EB@GJLKGHAC@c?3?2users?2nhv90?2projects?2eech?2ap@
  01121	a1 00 00 00 00	 mov	 eax, DWORD PTR ?overload_invalid_string_type_message@@3PBDB ; overload_invalid_string_type_message
  01126	50		 push	 eax
  01127	e8 00 00 00 00	 call	 ?process_assert@@YGXPBD0H@Z ; process_assert
  0112c	c7 45 80 00 00
	00 00		 mov	 DWORD PTR tv727[ebp], 0
$LN151@get_closes:
  01133	6a 07		 push	 7
  01135	8b 4d cc	 mov	 ecx, DWORD PTR _current_keysite$2[ebp]
  01138	51		 push	 ecx
  01139	6b 55 84 34	 imul	 edx, DWORD PTR tv719[ebp], 52
  0113d	8b 45 80	 mov	 eax, DWORD PTR tv727[ebp]
  01140	8b 8c 82 00 00
	00 00		 mov	 ecx, DWORD PTR ?fn_get_local_entity_string@@3PAY0N@P6GPBDPAUENTITY@@W4STRING_TYPES@@@ZA[edx+eax*4]
  01147	ff d1		 call	 ecx
  01149	50		 push	 eax
  0114a	68 00 00 00 00	 push	 OFFSET ??_C@_0BK@PCOMGFDK@AI_MISC?3?5found?5keysite?5?$CFs@
  0114f	e8 00 00 00 00	 call	 ?debug_log@@YAXPBDZZ	; debug_log
  01154	83 c4 08	 add	 esp, 8
$LN27@get_closes:

; 438  : 									}
; 439  : 				
; 440  : 									if (range < best_range)

  01157	f3 0f 10 45 dc	 movss	 xmm0, DWORD PTR _best_range$6[ebp]
  0115c	0f 2f 45 d8	 comiss	 xmm0, DWORD PTR _range$5[ebp]
  01160	76 10		 jbe	 SHORT $LN29@get_closes

; 441  : 									{
; 442  : 				
; 443  : 										best_range = range;

  01162	f3 0f 10 45 d8	 movss	 xmm0, DWORD PTR _range$5[ebp]
  01167	f3 0f 11 45 dc	 movss	 DWORD PTR _best_range$6[ebp], xmm0

; 444  : 				
; 445  : 										closest_landing = current_landing;

  0116c	8b 45 c8	 mov	 eax, DWORD PTR _current_landing$1[ebp]
  0116f	89 45 d0	 mov	 DWORD PTR _closest_landing$3[ebp], eax
$LN29@get_closes:

; 446  : 									}
; 447  : 								}
; 448  : 							}
; 449  : 				
; 450  : 							current_landing = get_local_entity_child_succ (current_landing, LIST_TYPE_LANDING_SITE);

  01172	83 7d c8 00	 cmp	 DWORD PTR _current_landing$1[ebp], 0
  01176	74 0a		 je	 SHORT $LN152@get_closes
  01178	8b 45 c8	 mov	 eax, DWORD PTR _current_landing$1[ebp]
  0117b	8b 08		 mov	 ecx, DWORD PTR [eax]
  0117d	89 4d 84	 mov	 DWORD PTR tv742[ebp], ecx
  01180	eb 24		 jmp	 SHORT $LN153@get_closes
$LN152@get_closes:
  01182	8b 15 00 00 00
	00		 mov	 edx, DWORD PTR ?__LINE__Var@?0??get_closest_free_landing_site@@YGPAUENTITY@@HPAU2@PAUVEC3D@@MPAMH@Z@4JA
  01188	81 c2 d3 00 00
	00		 add	 edx, 211		; 000000d3H
  0118e	52		 push	 edx
  0118f	68 00 00 00 00	 push	 OFFSET ??_C@_0EB@GJLKGHAC@c?3?2users?2nhv90?2projects?2eech?2ap@
  01194	a1 00 00 00 00	 mov	 eax, DWORD PTR ?null_entity_pointer_message@@3PBDB ; null_entity_pointer_message
  01199	50		 push	 eax
  0119a	e8 00 00 00 00	 call	 ?process_assert@@YGXPBD0H@Z ; process_assert
  0119f	c7 45 84 00 00
	00 00		 mov	 DWORD PTR tv742[ebp], 0
$LN153@get_closes:
  011a6	b9 01 00 00 00	 mov	 ecx, 1
  011ab	85 c9		 test	 ecx, ecx
  011ad	74 09		 je	 SHORT $LN154@get_closes
  011af	c7 45 80 17 00
	00 00		 mov	 DWORD PTR tv750[ebp], 23 ; 00000017H
  011b6	eb 24		 jmp	 SHORT $LN155@get_closes
$LN154@get_closes:
  011b8	8b 15 00 00 00
	00		 mov	 edx, DWORD PTR ?__LINE__Var@?0??get_closest_free_landing_site@@YGPAUENTITY@@HPAU2@PAUVEC3D@@MPAMH@Z@4JA
  011be	81 c2 d3 00 00
	00		 add	 edx, 211		; 000000d3H
  011c4	52		 push	 edx
  011c5	68 00 00 00 00	 push	 OFFSET ??_C@_0EB@GJLKGHAC@c?3?2users?2nhv90?2projects?2eech?2ap@
  011ca	a1 00 00 00 00	 mov	 eax, DWORD PTR ?overload_invalid_list_type_message@@3PBDB ; overload_invalid_list_type_message
  011cf	50		 push	 eax
  011d0	e8 00 00 00 00	 call	 ?process_assert@@YGXPBD0H@Z ; process_assert
  011d5	c7 45 80 00 00
	00 00		 mov	 DWORD PTR tv750[ebp], 0
$LN155@get_closes:
  011dc	6a 17		 push	 23			; 00000017H
  011de	8b 4d c8	 mov	 ecx, DWORD PTR _current_landing$1[ebp]
  011e1	51		 push	 ecx
  011e2	69 55 84 b4 00
	00 00		 imul	 edx, DWORD PTR tv742[ebp], 180
  011e9	8b 45 80	 mov	 eax, DWORD PTR tv750[ebp]
  011ec	8b 8c 82 00 00
	00 00		 mov	 ecx, DWORD PTR ?fn_get_local_entity_child_succ@@3PAY0CN@P6GPAUENTITY@@PAU1@W4LIST_TYPES@@@ZA[edx+eax*4]
  011f3	ff d1		 call	 ecx
  011f5	89 45 c8	 mov	 DWORD PTR _current_landing$1[ebp], eax

; 451  : 						}

  011f8	e9 64 fc ff ff	 jmp	 $LN12@get_closes
$LN13@get_closes:

; 452  : 					}
; 453  : 				}
; 454  : 		
; 455  : 				current_keysite = get_local_entity_child_succ (current_keysite, LIST_TYPE_KEYSITE_FORCE);

  011fd	83 7d cc 00	 cmp	 DWORD PTR _current_keysite$2[ebp], 0
  01201	74 0a		 je	 SHORT $LN156@get_closes
  01203	8b 45 cc	 mov	 eax, DWORD PTR _current_keysite$2[ebp]
  01206	8b 08		 mov	 ecx, DWORD PTR [eax]
  01208	89 4d 84	 mov	 DWORD PTR tv762[ebp], ecx
  0120b	eb 24		 jmp	 SHORT $LN157@get_closes
$LN156@get_closes:
  0120d	8b 15 00 00 00
	00		 mov	 edx, DWORD PTR ?__LINE__Var@?0??get_closest_free_landing_site@@YGPAUENTITY@@HPAU2@PAUVEC3D@@MPAMH@Z@4JA
  01213	81 c2 d8 00 00
	00		 add	 edx, 216		; 000000d8H
  01219	52		 push	 edx
  0121a	68 00 00 00 00	 push	 OFFSET ??_C@_0EB@GJLKGHAC@c?3?2users?2nhv90?2projects?2eech?2ap@
  0121f	a1 00 00 00 00	 mov	 eax, DWORD PTR ?null_entity_pointer_message@@3PBDB ; null_entity_pointer_message
  01224	50		 push	 eax
  01225	e8 00 00 00 00	 call	 ?process_assert@@YGXPBD0H@Z ; process_assert
  0122a	c7 45 84 00 00
	00 00		 mov	 DWORD PTR tv762[ebp], 0
$LN157@get_closes:
  01231	b9 01 00 00 00	 mov	 ecx, 1
  01236	85 c9		 test	 ecx, ecx
  01238	74 09		 je	 SHORT $LN158@get_closes
  0123a	c7 45 80 15 00
	00 00		 mov	 DWORD PTR tv770[ebp], 21 ; 00000015H
  01241	eb 24		 jmp	 SHORT $LN159@get_closes
$LN158@get_closes:
  01243	8b 15 00 00 00
	00		 mov	 edx, DWORD PTR ?__LINE__Var@?0??get_closest_free_landing_site@@YGPAUENTITY@@HPAU2@PAUVEC3D@@MPAMH@Z@4JA
  01249	81 c2 d8 00 00
	00		 add	 edx, 216		; 000000d8H
  0124f	52		 push	 edx
  01250	68 00 00 00 00	 push	 OFFSET ??_C@_0EB@GJLKGHAC@c?3?2users?2nhv90?2projects?2eech?2ap@
  01255	a1 00 00 00 00	 mov	 eax, DWORD PTR ?overload_invalid_list_type_message@@3PBDB ; overload_invalid_list_type_message
  0125a	50		 push	 eax
  0125b	e8 00 00 00 00	 call	 ?process_assert@@YGXPBD0H@Z ; process_assert
  01260	c7 45 80 00 00
	00 00		 mov	 DWORD PTR tv770[ebp], 0
$LN159@get_closes:
  01267	6a 15		 push	 21			; 00000015H
  01269	8b 4d cc	 mov	 ecx, DWORD PTR _current_keysite$2[ebp]
  0126c	51		 push	 ecx
  0126d	69 55 84 b4 00
	00 00		 imul	 edx, DWORD PTR tv762[ebp], 180
  01274	8b 45 80	 mov	 eax, DWORD PTR tv770[ebp]
  01277	8b 8c 82 00 00
	00 00		 mov	 ecx, DWORD PTR ?fn_get_local_entity_child_succ@@3PAY0CN@P6GPAUENTITY@@PAU1@W4LIST_TYPES@@@ZA[edx+eax*4]
  0127e	ff d1		 call	 ecx
  01280	89 45 cc	 mov	 DWORD PTR _current_keysite$2[ebp], eax

; 456  : 			}

  01283	e9 4f fa ff ff	 jmp	 $LN10@get_closes
$LN11@get_closes:

; 457  : 		
; 458  : 			if (actual_range)

  01288	83 7d 18 00	 cmp	 DWORD PTR _actual_range$[ebp], 0
  0128c	74 0c		 je	 SHORT $LN30@get_closes

; 459  : 			{
; 460  : 				*actual_range = best_range;

  0128e	8b 45 18	 mov	 eax, DWORD PTR _actual_range$[ebp]
  01291	f3 0f 10 45 dc	 movss	 xmm0, DWORD PTR _best_range$6[ebp]
  01296	f3 0f 11 00	 movss	 DWORD PTR [eax], xmm0
$LN30@get_closes:

; 461  : 			}
; 462  : 
; 463  : 			//debug_log ("AI_MISC: found keysite %s", get_local_entity_string (current_keysite, STRING_TYPE_KEYSITE_NAME));
; 464  : 		}
; 465  : 	}
; 466  : 
; 467  : 	//
; 468  : 	// END
; 469  : 	//
; 470  : 
; 471  : 	//ASSERT (closest_landing);
; 472  : 
; 473  : 	return closest_landing;

  0129a	8b 45 ec	 mov	 eax, DWORD PTR _closest_landing$[ebp]
$LN1@get_closes:

; 474  : }

  0129d	5f		 pop	 edi
  0129e	5e		 pop	 esi
  0129f	5b		 pop	 ebx
  012a0	8b e5		 mov	 esp, ebp
  012a2	5d		 pop	 ebp
  012a3	c2 18 00	 ret	 24			; 00000018H
?get_closest_free_landing_site@@YGPAUENTITY@@HPAU1@PAUVEC3D@@MPAMH@Z ENDP ; get_closest_free_landing_site
_TEXT	ENDS
; Function compile flags: /Odtp /ZI
; File c:\users\nhv90\projects\eech\aphavoc\source\ai\ai_misc\ai_misc.c
;	COMDAT ?get_closest_halfway_waypoint@@YGPAUENTITY@@PAU1@PAUVEC3D@@MPAM@Z
_TEXT	SEGMENT
tv274 = -112						; size = 4
tv254 = -112						; size = 4
tv234 = -112						; size = 4
tv213 = -112						; size = 4
tv171 = -112						; size = 4
tv151 = -112						; size = 4
tv130 = -112						; size = 4
tv78 = -112						; size = 4
tv266 = -108						; size = 4
tv246 = -108						; size = 4
tv226 = -108						; size = 4
tv205 = -108						; size = 4
tv163 = -108						; size = 4
tv143 = -108						; size = 4
tv90 = -108						; size = 4
tv70 = -108						; size = 4
_waypoint2$ = -40					; size = 4
_waypoint1$ = -36					; size = 4
_closest_waypoint$ = -32				; size = 4
_mid_pos$ = -28						; size = 12
_waypoint_pos2$ = -16					; size = 4
_waypoint_pos1$ = -12					; size = 4
_range$ = -8						; size = 4
_best_range$ = -4					; size = 4
_task$ = 8						; size = 4
_pos$ = 12						; size = 4
_min_range$ = 16					; size = 4
_actual_range$ = 20					; size = 4
?get_closest_halfway_waypoint@@YGPAUENTITY@@PAU1@PAUVEC3D@@MPAM@Z PROC ; get_closest_halfway_waypoint, COMDAT

; 165  : {

  00000	55		 push	 ebp
  00001	8b ec		 mov	 ebp, esp
  00003	83 ec 70	 sub	 esp, 112		; 00000070H
  00006	53		 push	 ebx
  00007	56		 push	 esi
  00008	57		 push	 edi

; 166  : 
; 167  : 	float
; 168  : 		best_range,
; 169  : 		range;
; 170  : 
; 171  : 	vec3d
; 172  : 		*waypoint_pos1,
; 173  : 		*waypoint_pos2,
; 174  : 		mid_pos;
; 175  : 
; 176  : 	entity
; 177  : 		*closest_waypoint = NULL,

  00009	c7 45 e0 00 00
	00 00		 mov	 DWORD PTR _closest_waypoint$[ebp], 0

; 178  : 		*waypoint1,
; 179  : 		*waypoint2;
; 180  : 
; 181  : 	best_range = 99999999;

  00010	f3 0f 10 05 00
	00 00 00	 movss	 xmm0, DWORD PTR __real@4cbebc20
  00018	f3 0f 11 45 fc	 movss	 DWORD PTR _best_range$[ebp], xmm0

; 182  : 
; 183  : 	waypoint1 = get_local_entity_first_child (task, LIST_TYPE_WAYPOINT);

  0001d	83 7d 08 00	 cmp	 DWORD PTR _task$[ebp], 0
  00021	74 0a		 je	 SHORT $LN8@get_closes
  00023	8b 45 08	 mov	 eax, DWORD PTR _task$[ebp]
  00026	8b 08		 mov	 ecx, DWORD PTR [eax]
  00028	89 4d 94	 mov	 DWORD PTR tv70[ebp], ecx
  0002b	eb 21		 jmp	 SHORT $LN9@get_closes
$LN8@get_closes:
  0002d	8b 15 00 00 00
	00		 mov	 edx, DWORD PTR ?__LINE__Var@?0??get_closest_halfway_waypoint@@YGPAUENTITY@@PAU2@PAUVEC3D@@MPAM@Z@4JA
  00033	83 c2 12	 add	 edx, 18			; 00000012H
  00036	52		 push	 edx
  00037	68 00 00 00 00	 push	 OFFSET ??_C@_0EB@GJLKGHAC@c?3?2users?2nhv90?2projects?2eech?2ap@
  0003c	a1 00 00 00 00	 mov	 eax, DWORD PTR ?null_entity_pointer_message@@3PBDB ; null_entity_pointer_message
  00041	50		 push	 eax
  00042	e8 00 00 00 00	 call	 ?process_assert@@YGXPBD0H@Z ; process_assert
  00047	c7 45 94 00 00
	00 00		 mov	 DWORD PTR tv70[ebp], 0
$LN9@get_closes:
  0004e	b9 01 00 00 00	 mov	 ecx, 1
  00053	85 c9		 test	 ecx, ecx
  00055	74 09		 je	 SHORT $LN10@get_closes
  00057	c7 45 90 2c 00
	00 00		 mov	 DWORD PTR tv78[ebp], 44	; 0000002cH
  0005e	eb 21		 jmp	 SHORT $LN11@get_closes
$LN10@get_closes:
  00060	8b 15 00 00 00
	00		 mov	 edx, DWORD PTR ?__LINE__Var@?0??get_closest_halfway_waypoint@@YGPAUENTITY@@PAU2@PAUVEC3D@@MPAM@Z@4JA
  00066	83 c2 12	 add	 edx, 18			; 00000012H
  00069	52		 push	 edx
  0006a	68 00 00 00 00	 push	 OFFSET ??_C@_0EB@GJLKGHAC@c?3?2users?2nhv90?2projects?2eech?2ap@
  0006f	a1 00 00 00 00	 mov	 eax, DWORD PTR ?overload_invalid_list_type_message@@3PBDB ; overload_invalid_list_type_message
  00074	50		 push	 eax
  00075	e8 00 00 00 00	 call	 ?process_assert@@YGXPBD0H@Z ; process_assert
  0007a	c7 45 90 00 00
	00 00		 mov	 DWORD PTR tv78[ebp], 0
$LN11@get_closes:
  00081	6a 2c		 push	 44			; 0000002cH
  00083	8b 4d 08	 mov	 ecx, DWORD PTR _task$[ebp]
  00086	51		 push	 ecx
  00087	69 55 94 b4 00
	00 00		 imul	 edx, DWORD PTR tv70[ebp], 180
  0008e	8b 45 90	 mov	 eax, DWORD PTR tv78[ebp]
  00091	8b 8c 82 00 00
	00 00		 mov	 ecx, DWORD PTR ?fn_get_local_entity_first_child@@3PAY0CN@P6GPAUENTITY@@PAU1@W4LIST_TYPES@@@ZA[edx+eax*4]
  00098	ff d1		 call	 ecx
  0009a	89 45 dc	 mov	 DWORD PTR _waypoint1$[ebp], eax

; 184  : 	waypoint2 = get_local_entity_child_succ (waypoint1, LIST_TYPE_WAYPOINT);

  0009d	83 7d dc 00	 cmp	 DWORD PTR _waypoint1$[ebp], 0
  000a1	74 0a		 je	 SHORT $LN12@get_closes
  000a3	8b 45 dc	 mov	 eax, DWORD PTR _waypoint1$[ebp]
  000a6	8b 08		 mov	 ecx, DWORD PTR [eax]
  000a8	89 4d 94	 mov	 DWORD PTR tv90[ebp], ecx
  000ab	eb 21		 jmp	 SHORT $LN13@get_closes
$LN12@get_closes:
  000ad	8b 15 00 00 00
	00		 mov	 edx, DWORD PTR ?__LINE__Var@?0??get_closest_halfway_waypoint@@YGPAUENTITY@@PAU2@PAUVEC3D@@MPAM@Z@4JA
  000b3	83 c2 13	 add	 edx, 19			; 00000013H
  000b6	52		 push	 edx
  000b7	68 00 00 00 00	 push	 OFFSET ??_C@_0EB@GJLKGHAC@c?3?2users?2nhv90?2projects?2eech?2ap@
  000bc	a1 00 00 00 00	 mov	 eax, DWORD PTR ?null_entity_pointer_message@@3PBDB ; null_entity_pointer_message
  000c1	50		 push	 eax
  000c2	e8 00 00 00 00	 call	 ?process_assert@@YGXPBD0H@Z ; process_assert
  000c7	c7 45 94 00 00
	00 00		 mov	 DWORD PTR tv90[ebp], 0
$LN13@get_closes:
  000ce	b9 01 00 00 00	 mov	 ecx, 1
  000d3	85 c9		 test	 ecx, ecx
  000d5	74 09		 je	 SHORT $LN14@get_closes
  000d7	c7 45 90 2c 00
	00 00		 mov	 DWORD PTR tv130[ebp], 44 ; 0000002cH
  000de	eb 21		 jmp	 SHORT $LN15@get_closes
$LN14@get_closes:
  000e0	8b 15 00 00 00
	00		 mov	 edx, DWORD PTR ?__LINE__Var@?0??get_closest_halfway_waypoint@@YGPAUENTITY@@PAU2@PAUVEC3D@@MPAM@Z@4JA
  000e6	83 c2 13	 add	 edx, 19			; 00000013H
  000e9	52		 push	 edx
  000ea	68 00 00 00 00	 push	 OFFSET ??_C@_0EB@GJLKGHAC@c?3?2users?2nhv90?2projects?2eech?2ap@
  000ef	a1 00 00 00 00	 mov	 eax, DWORD PTR ?overload_invalid_list_type_message@@3PBDB ; overload_invalid_list_type_message
  000f4	50		 push	 eax
  000f5	e8 00 00 00 00	 call	 ?process_assert@@YGXPBD0H@Z ; process_assert
  000fa	c7 45 90 00 00
	00 00		 mov	 DWORD PTR tv130[ebp], 0
$LN15@get_closes:
  00101	6a 2c		 push	 44			; 0000002cH
  00103	8b 4d dc	 mov	 ecx, DWORD PTR _waypoint1$[ebp]
  00106	51		 push	 ecx
  00107	69 55 94 b4 00
	00 00		 imul	 edx, DWORD PTR tv90[ebp], 180
  0010e	8b 45 90	 mov	 eax, DWORD PTR tv130[ebp]
  00111	8b 8c 82 00 00
	00 00		 mov	 ecx, DWORD PTR ?fn_get_local_entity_child_succ@@3PAY0CN@P6GPAUENTITY@@PAU1@W4LIST_TYPES@@@ZA[edx+eax*4]
  00118	ff d1		 call	 ecx
  0011a	89 45 d8	 mov	 DWORD PTR _waypoint2$[ebp], eax
$LN2@get_closes:

; 185  : 
; 186  : 	while (waypoint2)

  0011d	83 7d d8 00	 cmp	 DWORD PTR _waypoint2$[ebp], 0
  00121	0f 84 1c 02 00
	00		 je	 $LN3@get_closes

; 187  : 	{
; 188  : 
; 189  : 		waypoint_pos1 = get_local_entity_vec3d_ptr (waypoint1, VEC3D_TYPE_POSITION);

  00127	83 7d dc 00	 cmp	 DWORD PTR _waypoint1$[ebp], 0
  0012b	74 0a		 je	 SHORT $LN16@get_closes
  0012d	8b 45 dc	 mov	 eax, DWORD PTR _waypoint1$[ebp]
  00130	8b 08		 mov	 ecx, DWORD PTR [eax]
  00132	89 4d 94	 mov	 DWORD PTR tv143[ebp], ecx
  00135	eb 21		 jmp	 SHORT $LN17@get_closes
$LN16@get_closes:
  00137	8b 15 00 00 00
	00		 mov	 edx, DWORD PTR ?__LINE__Var@?0??get_closest_halfway_waypoint@@YGPAUENTITY@@PAU2@PAUVEC3D@@MPAM@Z@4JA
  0013d	83 c2 18	 add	 edx, 24			; 00000018H
  00140	52		 push	 edx
  00141	68 00 00 00 00	 push	 OFFSET ??_C@_0EB@GJLKGHAC@c?3?2users?2nhv90?2projects?2eech?2ap@
  00146	a1 00 00 00 00	 mov	 eax, DWORD PTR ?null_entity_pointer_message@@3PBDB ; null_entity_pointer_message
  0014b	50		 push	 eax
  0014c	e8 00 00 00 00	 call	 ?process_assert@@YGXPBD0H@Z ; process_assert
  00151	c7 45 94 00 00
	00 00		 mov	 DWORD PTR tv143[ebp], 0
$LN17@get_closes:
  00158	b9 01 00 00 00	 mov	 ecx, 1
  0015d	85 c9		 test	 ecx, ecx
  0015f	74 09		 je	 SHORT $LN18@get_closes
  00161	c7 45 90 08 00
	00 00		 mov	 DWORD PTR tv151[ebp], 8
  00168	eb 21		 jmp	 SHORT $LN19@get_closes
$LN18@get_closes:
  0016a	8b 15 00 00 00
	00		 mov	 edx, DWORD PTR ?__LINE__Var@?0??get_closest_halfway_waypoint@@YGPAUENTITY@@PAU2@PAUVEC3D@@MPAM@Z@4JA
  00170	83 c2 18	 add	 edx, 24			; 00000018H
  00173	52		 push	 edx
  00174	68 00 00 00 00	 push	 OFFSET ??_C@_0EB@GJLKGHAC@c?3?2users?2nhv90?2projects?2eech?2ap@
  00179	a1 00 00 00 00	 mov	 eax, DWORD PTR ?overload_invalid_vec3d_type_message@@3PBDB ; overload_invalid_vec3d_type_message
  0017e	50		 push	 eax
  0017f	e8 00 00 00 00	 call	 ?process_assert@@YGXPBD0H@Z ; process_assert
  00184	c7 45 90 00 00
	00 00		 mov	 DWORD PTR tv151[ebp], 0
$LN19@get_closes:
  0018b	6a 08		 push	 8
  0018d	8b 4d dc	 mov	 ecx, DWORD PTR _waypoint1$[ebp]
  00190	51		 push	 ecx
  00191	6b 55 94 60	 imul	 edx, DWORD PTR tv143[ebp], 96
  00195	8b 45 90	 mov	 eax, DWORD PTR tv151[ebp]
  00198	8b 8c 82 00 00
	00 00		 mov	 ecx, DWORD PTR ?fn_get_local_entity_vec3d_ptr@@3PAY0BI@P6GPAUVEC3D@@PAUENTITY@@W4VEC3D_TYPES@@@ZA[edx+eax*4]
  0019f	ff d1		 call	 ecx
  001a1	89 45 f4	 mov	 DWORD PTR _waypoint_pos1$[ebp], eax

; 190  : 		waypoint_pos2 = get_local_entity_vec3d_ptr (waypoint2, VEC3D_TYPE_POSITION);

  001a4	83 7d d8 00	 cmp	 DWORD PTR _waypoint2$[ebp], 0
  001a8	74 0a		 je	 SHORT $LN20@get_closes
  001aa	8b 45 d8	 mov	 eax, DWORD PTR _waypoint2$[ebp]
  001ad	8b 08		 mov	 ecx, DWORD PTR [eax]
  001af	89 4d 94	 mov	 DWORD PTR tv163[ebp], ecx
  001b2	eb 21		 jmp	 SHORT $LN21@get_closes
$LN20@get_closes:
  001b4	8b 15 00 00 00
	00		 mov	 edx, DWORD PTR ?__LINE__Var@?0??get_closest_halfway_waypoint@@YGPAUENTITY@@PAU2@PAUVEC3D@@MPAM@Z@4JA
  001ba	83 c2 19	 add	 edx, 25			; 00000019H
  001bd	52		 push	 edx
  001be	68 00 00 00 00	 push	 OFFSET ??_C@_0EB@GJLKGHAC@c?3?2users?2nhv90?2projects?2eech?2ap@
  001c3	a1 00 00 00 00	 mov	 eax, DWORD PTR ?null_entity_pointer_message@@3PBDB ; null_entity_pointer_message
  001c8	50		 push	 eax
  001c9	e8 00 00 00 00	 call	 ?process_assert@@YGXPBD0H@Z ; process_assert
  001ce	c7 45 94 00 00
	00 00		 mov	 DWORD PTR tv163[ebp], 0
$LN21@get_closes:
  001d5	b9 01 00 00 00	 mov	 ecx, 1
  001da	85 c9		 test	 ecx, ecx
  001dc	74 09		 je	 SHORT $LN22@get_closes
  001de	c7 45 90 08 00
	00 00		 mov	 DWORD PTR tv171[ebp], 8
  001e5	eb 21		 jmp	 SHORT $LN23@get_closes
$LN22@get_closes:
  001e7	8b 15 00 00 00
	00		 mov	 edx, DWORD PTR ?__LINE__Var@?0??get_closest_halfway_waypoint@@YGPAUENTITY@@PAU2@PAUVEC3D@@MPAM@Z@4JA
  001ed	83 c2 19	 add	 edx, 25			; 00000019H
  001f0	52		 push	 edx
  001f1	68 00 00 00 00	 push	 OFFSET ??_C@_0EB@GJLKGHAC@c?3?2users?2nhv90?2projects?2eech?2ap@
  001f6	a1 00 00 00 00	 mov	 eax, DWORD PTR ?overload_invalid_vec3d_type_message@@3PBDB ; overload_invalid_vec3d_type_message
  001fb	50		 push	 eax
  001fc	e8 00 00 00 00	 call	 ?process_assert@@YGXPBD0H@Z ; process_assert
  00201	c7 45 90 00 00
	00 00		 mov	 DWORD PTR tv171[ebp], 0
$LN23@get_closes:
  00208	6a 08		 push	 8
  0020a	8b 4d d8	 mov	 ecx, DWORD PTR _waypoint2$[ebp]
  0020d	51		 push	 ecx
  0020e	6b 55 94 60	 imul	 edx, DWORD PTR tv163[ebp], 96
  00212	8b 45 90	 mov	 eax, DWORD PTR tv171[ebp]
  00215	8b 8c 82 00 00
	00 00		 mov	 ecx, DWORD PTR ?fn_get_local_entity_vec3d_ptr@@3PAY0BI@P6GPAUVEC3D@@PAUENTITY@@W4VEC3D_TYPES@@@ZA[edx+eax*4]
  0021c	ff d1		 call	 ecx
  0021e	89 45 f0	 mov	 DWORD PTR _waypoint_pos2$[ebp], eax

; 191  : 
; 192  : 		mid_pos.x = waypoint_pos1->x + ( ( waypoint_pos2->x - waypoint_pos1->x ) / 2 );

  00221	8b 45 f0	 mov	 eax, DWORD PTR _waypoint_pos2$[ebp]
  00224	8b 4d f4	 mov	 ecx, DWORD PTR _waypoint_pos1$[ebp]
  00227	f3 0f 10 00	 movss	 xmm0, DWORD PTR [eax]
  0022b	f3 0f 5c 01	 subss	 xmm0, DWORD PTR [ecx]
  0022f	f3 0f 5e 05 00
	00 00 00	 divss	 xmm0, DWORD PTR __real@40000000
  00237	8b 55 f4	 mov	 edx, DWORD PTR _waypoint_pos1$[ebp]
  0023a	f3 0f 58 02	 addss	 xmm0, DWORD PTR [edx]
  0023e	f3 0f 11 45 e4	 movss	 DWORD PTR _mid_pos$[ebp], xmm0

; 193  : 		mid_pos.y = waypoint_pos1->y + ( ( waypoint_pos2->y - waypoint_pos1->y ) / 2 );

  00243	8b 45 f0	 mov	 eax, DWORD PTR _waypoint_pos2$[ebp]
  00246	8b 4d f4	 mov	 ecx, DWORD PTR _waypoint_pos1$[ebp]
  00249	f3 0f 10 40 04	 movss	 xmm0, DWORD PTR [eax+4]
  0024e	f3 0f 5c 41 04	 subss	 xmm0, DWORD PTR [ecx+4]
  00253	f3 0f 5e 05 00
	00 00 00	 divss	 xmm0, DWORD PTR __real@40000000
  0025b	8b 55 f4	 mov	 edx, DWORD PTR _waypoint_pos1$[ebp]
  0025e	f3 0f 58 42 04	 addss	 xmm0, DWORD PTR [edx+4]
  00263	f3 0f 11 45 e8	 movss	 DWORD PTR _mid_pos$[ebp+4], xmm0

; 194  : 		mid_pos.z = waypoint_pos1->z + ( ( waypoint_pos2->z - waypoint_pos1->z ) / 2 );

  00268	8b 45 f0	 mov	 eax, DWORD PTR _waypoint_pos2$[ebp]
  0026b	8b 4d f4	 mov	 ecx, DWORD PTR _waypoint_pos1$[ebp]
  0026e	f3 0f 10 40 08	 movss	 xmm0, DWORD PTR [eax+8]
  00273	f3 0f 5c 41 08	 subss	 xmm0, DWORD PTR [ecx+8]
  00278	f3 0f 5e 05 00
	00 00 00	 divss	 xmm0, DWORD PTR __real@40000000
  00280	8b 55 f4	 mov	 edx, DWORD PTR _waypoint_pos1$[ebp]
  00283	f3 0f 58 42 08	 addss	 xmm0, DWORD PTR [edx+8]
  00288	f3 0f 11 45 ec	 movss	 DWORD PTR _mid_pos$[ebp+8], xmm0

; 195  : 
; 196  : 		range = get_approx_2d_range (&mid_pos, pos);

  0028d	8b 45 0c	 mov	 eax, DWORD PTR _pos$[ebp]
  00290	50		 push	 eax
  00291	8d 4d e4	 lea	 ecx, DWORD PTR _mid_pos$[ebp]
  00294	51		 push	 ecx
  00295	e8 00 00 00 00	 call	 ?get_approx_2d_range@@YGMPBUVEC3D@@0@Z ; get_approx_2d_range
  0029a	d9 5d f8	 fstp	 DWORD PTR _range$[ebp]

; 197  : 
; 198  : 		if (range < best_range)

  0029d	f3 0f 10 45 fc	 movss	 xmm0, DWORD PTR _best_range$[ebp]
  002a2	0f 2f 45 f8	 comiss	 xmm0, DWORD PTR _range$[ebp]
  002a6	76 10		 jbe	 SHORT $LN4@get_closes

; 199  : 		{
; 200  : 
; 201  : 			best_range = range;

  002a8	f3 0f 10 45 f8	 movss	 xmm0, DWORD PTR _range$[ebp]
  002ad	f3 0f 11 45 fc	 movss	 DWORD PTR _best_range$[ebp], xmm0

; 202  : 			closest_waypoint = waypoint1;

  002b2	8b 45 dc	 mov	 eax, DWORD PTR _waypoint1$[ebp]
  002b5	89 45 e0	 mov	 DWORD PTR _closest_waypoint$[ebp], eax
$LN4@get_closes:

; 203  : 		}
; 204  : 
; 205  : 		waypoint1 = waypoint2;

  002b8	8b 45 d8	 mov	 eax, DWORD PTR _waypoint2$[ebp]
  002bb	89 45 dc	 mov	 DWORD PTR _waypoint1$[ebp], eax

; 206  : 		waypoint2 = get_local_entity_child_succ (waypoint2, LIST_TYPE_WAYPOINT);

  002be	83 7d d8 00	 cmp	 DWORD PTR _waypoint2$[ebp], 0
  002c2	74 0a		 je	 SHORT $LN24@get_closes
  002c4	8b 45 d8	 mov	 eax, DWORD PTR _waypoint2$[ebp]
  002c7	8b 08		 mov	 ecx, DWORD PTR [eax]
  002c9	89 4d 94	 mov	 DWORD PTR tv205[ebp], ecx
  002cc	eb 21		 jmp	 SHORT $LN25@get_closes
$LN24@get_closes:
  002ce	8b 15 00 00 00
	00		 mov	 edx, DWORD PTR ?__LINE__Var@?0??get_closest_halfway_waypoint@@YGPAUENTITY@@PAU2@PAUVEC3D@@MPAM@Z@4JA
  002d4	83 c2 29	 add	 edx, 41			; 00000029H
  002d7	52		 push	 edx
  002d8	68 00 00 00 00	 push	 OFFSET ??_C@_0EB@GJLKGHAC@c?3?2users?2nhv90?2projects?2eech?2ap@
  002dd	a1 00 00 00 00	 mov	 eax, DWORD PTR ?null_entity_pointer_message@@3PBDB ; null_entity_pointer_message
  002e2	50		 push	 eax
  002e3	e8 00 00 00 00	 call	 ?process_assert@@YGXPBD0H@Z ; process_assert
  002e8	c7 45 94 00 00
	00 00		 mov	 DWORD PTR tv205[ebp], 0
$LN25@get_closes:
  002ef	b9 01 00 00 00	 mov	 ecx, 1
  002f4	85 c9		 test	 ecx, ecx
  002f6	74 09		 je	 SHORT $LN26@get_closes
  002f8	c7 45 90 2c 00
	00 00		 mov	 DWORD PTR tv213[ebp], 44 ; 0000002cH
  002ff	eb 21		 jmp	 SHORT $LN27@get_closes
$LN26@get_closes:
  00301	8b 15 00 00 00
	00		 mov	 edx, DWORD PTR ?__LINE__Var@?0??get_closest_halfway_waypoint@@YGPAUENTITY@@PAU2@PAUVEC3D@@MPAM@Z@4JA
  00307	83 c2 29	 add	 edx, 41			; 00000029H
  0030a	52		 push	 edx
  0030b	68 00 00 00 00	 push	 OFFSET ??_C@_0EB@GJLKGHAC@c?3?2users?2nhv90?2projects?2eech?2ap@
  00310	a1 00 00 00 00	 mov	 eax, DWORD PTR ?overload_invalid_list_type_message@@3PBDB ; overload_invalid_list_type_message
  00315	50		 push	 eax
  00316	e8 00 00 00 00	 call	 ?process_assert@@YGXPBD0H@Z ; process_assert
  0031b	c7 45 90 00 00
	00 00		 mov	 DWORD PTR tv213[ebp], 0
$LN27@get_closes:
  00322	6a 2c		 push	 44			; 0000002cH
  00324	8b 4d d8	 mov	 ecx, DWORD PTR _waypoint2$[ebp]
  00327	51		 push	 ecx
  00328	69 55 94 b4 00
	00 00		 imul	 edx, DWORD PTR tv205[ebp], 180
  0032f	8b 45 90	 mov	 eax, DWORD PTR tv213[ebp]
  00332	8b 8c 82 00 00
	00 00		 mov	 ecx, DWORD PTR ?fn_get_local_entity_child_succ@@3PAY0CN@P6GPAUENTITY@@PAU1@W4LIST_TYPES@@@ZA[edx+eax*4]
  00339	ff d1		 call	 ecx
  0033b	89 45 d8	 mov	 DWORD PTR _waypoint2$[ebp], eax

; 207  : 	}

  0033e	e9 da fd ff ff	 jmp	 $LN2@get_closes
$LN3@get_closes:

; 208  : 
; 209  : 	if ( closest_waypoint )

  00343	83 7d e0 00	 cmp	 DWORD PTR _closest_waypoint$[ebp], 0
  00347	0f 84 fc 01 00
	00		 je	 $LN5@get_closes

; 210  : 	{
; 211  : 
; 212  : 		waypoint1 = closest_waypoint;

  0034d	8b 45 e0	 mov	 eax, DWORD PTR _closest_waypoint$[ebp]
  00350	89 45 dc	 mov	 DWORD PTR _waypoint1$[ebp], eax

; 213  : 		waypoint2 = get_local_entity_child_succ (waypoint1, LIST_TYPE_WAYPOINT);

  00353	83 7d dc 00	 cmp	 DWORD PTR _waypoint1$[ebp], 0
  00357	74 0a		 je	 SHORT $LN28@get_closes
  00359	8b 45 dc	 mov	 eax, DWORD PTR _waypoint1$[ebp]
  0035c	8b 08		 mov	 ecx, DWORD PTR [eax]
  0035e	89 4d 94	 mov	 DWORD PTR tv226[ebp], ecx
  00361	eb 21		 jmp	 SHORT $LN29@get_closes
$LN28@get_closes:
  00363	8b 15 00 00 00
	00		 mov	 edx, DWORD PTR ?__LINE__Var@?0??get_closest_halfway_waypoint@@YGPAUENTITY@@PAU2@PAUVEC3D@@MPAM@Z@4JA
  00369	83 c2 30	 add	 edx, 48			; 00000030H
  0036c	52		 push	 edx
  0036d	68 00 00 00 00	 push	 OFFSET ??_C@_0EB@GJLKGHAC@c?3?2users?2nhv90?2projects?2eech?2ap@
  00372	a1 00 00 00 00	 mov	 eax, DWORD PTR ?null_entity_pointer_message@@3PBDB ; null_entity_pointer_message
  00377	50		 push	 eax
  00378	e8 00 00 00 00	 call	 ?process_assert@@YGXPBD0H@Z ; process_assert
  0037d	c7 45 94 00 00
	00 00		 mov	 DWORD PTR tv226[ebp], 0
$LN29@get_closes:
  00384	b9 01 00 00 00	 mov	 ecx, 1
  00389	85 c9		 test	 ecx, ecx
  0038b	74 09		 je	 SHORT $LN30@get_closes
  0038d	c7 45 90 2c 00
	00 00		 mov	 DWORD PTR tv234[ebp], 44 ; 0000002cH
  00394	eb 21		 jmp	 SHORT $LN31@get_closes
$LN30@get_closes:
  00396	8b 15 00 00 00
	00		 mov	 edx, DWORD PTR ?__LINE__Var@?0??get_closest_halfway_waypoint@@YGPAUENTITY@@PAU2@PAUVEC3D@@MPAM@Z@4JA
  0039c	83 c2 30	 add	 edx, 48			; 00000030H
  0039f	52		 push	 edx
  003a0	68 00 00 00 00	 push	 OFFSET ??_C@_0EB@GJLKGHAC@c?3?2users?2nhv90?2projects?2eech?2ap@
  003a5	a1 00 00 00 00	 mov	 eax, DWORD PTR ?overload_invalid_list_type_message@@3PBDB ; overload_invalid_list_type_message
  003aa	50		 push	 eax
  003ab	e8 00 00 00 00	 call	 ?process_assert@@YGXPBD0H@Z ; process_assert
  003b0	c7 45 90 00 00
	00 00		 mov	 DWORD PTR tv234[ebp], 0
$LN31@get_closes:
  003b7	6a 2c		 push	 44			; 0000002cH
  003b9	8b 4d dc	 mov	 ecx, DWORD PTR _waypoint1$[ebp]
  003bc	51		 push	 ecx
  003bd	69 55 94 b4 00
	00 00		 imul	 edx, DWORD PTR tv226[ebp], 180
  003c4	8b 45 90	 mov	 eax, DWORD PTR tv234[ebp]
  003c7	8b 8c 82 00 00
	00 00		 mov	 ecx, DWORD PTR ?fn_get_local_entity_child_succ@@3PAY0CN@P6GPAUENTITY@@PAU1@W4LIST_TYPES@@@ZA[edx+eax*4]
  003ce	ff d1		 call	 ecx
  003d0	89 45 d8	 mov	 DWORD PTR _waypoint2$[ebp], eax

; 214  : 
; 215  : 		waypoint_pos1 = get_local_entity_vec3d_ptr (waypoint1, VEC3D_TYPE_POSITION);

  003d3	83 7d dc 00	 cmp	 DWORD PTR _waypoint1$[ebp], 0
  003d7	74 0a		 je	 SHORT $LN32@get_closes
  003d9	8b 45 dc	 mov	 eax, DWORD PTR _waypoint1$[ebp]
  003dc	8b 08		 mov	 ecx, DWORD PTR [eax]
  003de	89 4d 94	 mov	 DWORD PTR tv246[ebp], ecx
  003e1	eb 21		 jmp	 SHORT $LN33@get_closes
$LN32@get_closes:
  003e3	8b 15 00 00 00
	00		 mov	 edx, DWORD PTR ?__LINE__Var@?0??get_closest_halfway_waypoint@@YGPAUENTITY@@PAU2@PAUVEC3D@@MPAM@Z@4JA
  003e9	83 c2 32	 add	 edx, 50			; 00000032H
  003ec	52		 push	 edx
  003ed	68 00 00 00 00	 push	 OFFSET ??_C@_0EB@GJLKGHAC@c?3?2users?2nhv90?2projects?2eech?2ap@
  003f2	a1 00 00 00 00	 mov	 eax, DWORD PTR ?null_entity_pointer_message@@3PBDB ; null_entity_pointer_message
  003f7	50		 push	 eax
  003f8	e8 00 00 00 00	 call	 ?process_assert@@YGXPBD0H@Z ; process_assert
  003fd	c7 45 94 00 00
	00 00		 mov	 DWORD PTR tv246[ebp], 0
$LN33@get_closes:
  00404	b9 01 00 00 00	 mov	 ecx, 1
  00409	85 c9		 test	 ecx, ecx
  0040b	74 09		 je	 SHORT $LN34@get_closes
  0040d	c7 45 90 08 00
	00 00		 mov	 DWORD PTR tv254[ebp], 8
  00414	eb 21		 jmp	 SHORT $LN35@get_closes
$LN34@get_closes:
  00416	8b 15 00 00 00
	00		 mov	 edx, DWORD PTR ?__LINE__Var@?0??get_closest_halfway_waypoint@@YGPAUENTITY@@PAU2@PAUVEC3D@@MPAM@Z@4JA
  0041c	83 c2 32	 add	 edx, 50			; 00000032H
  0041f	52		 push	 edx
  00420	68 00 00 00 00	 push	 OFFSET ??_C@_0EB@GJLKGHAC@c?3?2users?2nhv90?2projects?2eech?2ap@
  00425	a1 00 00 00 00	 mov	 eax, DWORD PTR ?overload_invalid_vec3d_type_message@@3PBDB ; overload_invalid_vec3d_type_message
  0042a	50		 push	 eax
  0042b	e8 00 00 00 00	 call	 ?process_assert@@YGXPBD0H@Z ; process_assert
  00430	c7 45 90 00 00
	00 00		 mov	 DWORD PTR tv254[ebp], 0
$LN35@get_closes:
  00437	6a 08		 push	 8
  00439	8b 4d dc	 mov	 ecx, DWORD PTR _waypoint1$[ebp]
  0043c	51		 push	 ecx
  0043d	6b 55 94 60	 imul	 edx, DWORD PTR tv246[ebp], 96
  00441	8b 45 90	 mov	 eax, DWORD PTR tv254[ebp]
  00444	8b 8c 82 00 00
	00 00		 mov	 ecx, DWORD PTR ?fn_get_local_entity_vec3d_ptr@@3PAY0BI@P6GPAUVEC3D@@PAUENTITY@@W4VEC3D_TYPES@@@ZA[edx+eax*4]
  0044b	ff d1		 call	 ecx
  0044d	89 45 f4	 mov	 DWORD PTR _waypoint_pos1$[ebp], eax

; 216  : 		waypoint_pos2 = get_local_entity_vec3d_ptr (waypoint2, VEC3D_TYPE_POSITION);

  00450	83 7d d8 00	 cmp	 DWORD PTR _waypoint2$[ebp], 0
  00454	74 0a		 je	 SHORT $LN36@get_closes
  00456	8b 45 d8	 mov	 eax, DWORD PTR _waypoint2$[ebp]
  00459	8b 08		 mov	 ecx, DWORD PTR [eax]
  0045b	89 4d 94	 mov	 DWORD PTR tv266[ebp], ecx
  0045e	eb 21		 jmp	 SHORT $LN37@get_closes
$LN36@get_closes:
  00460	8b 15 00 00 00
	00		 mov	 edx, DWORD PTR ?__LINE__Var@?0??get_closest_halfway_waypoint@@YGPAUENTITY@@PAU2@PAUVEC3D@@MPAM@Z@4JA
  00466	83 c2 33	 add	 edx, 51			; 00000033H
  00469	52		 push	 edx
  0046a	68 00 00 00 00	 push	 OFFSET ??_C@_0EB@GJLKGHAC@c?3?2users?2nhv90?2projects?2eech?2ap@
  0046f	a1 00 00 00 00	 mov	 eax, DWORD PTR ?null_entity_pointer_message@@3PBDB ; null_entity_pointer_message
  00474	50		 push	 eax
  00475	e8 00 00 00 00	 call	 ?process_assert@@YGXPBD0H@Z ; process_assert
  0047a	c7 45 94 00 00
	00 00		 mov	 DWORD PTR tv266[ebp], 0
$LN37@get_closes:
  00481	b9 01 00 00 00	 mov	 ecx, 1
  00486	85 c9		 test	 ecx, ecx
  00488	74 09		 je	 SHORT $LN38@get_closes
  0048a	c7 45 90 08 00
	00 00		 mov	 DWORD PTR tv274[ebp], 8
  00491	eb 21		 jmp	 SHORT $LN39@get_closes
$LN38@get_closes:
  00493	8b 15 00 00 00
	00		 mov	 edx, DWORD PTR ?__LINE__Var@?0??get_closest_halfway_waypoint@@YGPAUENTITY@@PAU2@PAUVEC3D@@MPAM@Z@4JA
  00499	83 c2 33	 add	 edx, 51			; 00000033H
  0049c	52		 push	 edx
  0049d	68 00 00 00 00	 push	 OFFSET ??_C@_0EB@GJLKGHAC@c?3?2users?2nhv90?2projects?2eech?2ap@
  004a2	a1 00 00 00 00	 mov	 eax, DWORD PTR ?overload_invalid_vec3d_type_message@@3PBDB ; overload_invalid_vec3d_type_message
  004a7	50		 push	 eax
  004a8	e8 00 00 00 00	 call	 ?process_assert@@YGXPBD0H@Z ; process_assert
  004ad	c7 45 90 00 00
	00 00		 mov	 DWORD PTR tv274[ebp], 0
$LN39@get_closes:
  004b4	6a 08		 push	 8
  004b6	8b 4d d8	 mov	 ecx, DWORD PTR _waypoint2$[ebp]
  004b9	51		 push	 ecx
  004ba	6b 55 94 60	 imul	 edx, DWORD PTR tv266[ebp], 96
  004be	8b 45 90	 mov	 eax, DWORD PTR tv274[ebp]
  004c1	8b 8c 82 00 00
	00 00		 mov	 ecx, DWORD PTR ?fn_get_local_entity_vec3d_ptr@@3PAY0BI@P6GPAUVEC3D@@PAUENTITY@@W4VEC3D_TYPES@@@ZA[edx+eax*4]
  004c8	ff d1		 call	 ecx
  004ca	89 45 f0	 mov	 DWORD PTR _waypoint_pos2$[ebp], eax

; 217  : 
; 218  : 		mid_pos.x = waypoint_pos1->x + ( ( waypoint_pos2->x - waypoint_pos1->x ) / 2 );

  004cd	8b 45 f0	 mov	 eax, DWORD PTR _waypoint_pos2$[ebp]
  004d0	8b 4d f4	 mov	 ecx, DWORD PTR _waypoint_pos1$[ebp]
  004d3	f3 0f 10 00	 movss	 xmm0, DWORD PTR [eax]
  004d7	f3 0f 5c 01	 subss	 xmm0, DWORD PTR [ecx]
  004db	f3 0f 5e 05 00
	00 00 00	 divss	 xmm0, DWORD PTR __real@40000000
  004e3	8b 55 f4	 mov	 edx, DWORD PTR _waypoint_pos1$[ebp]
  004e6	f3 0f 58 02	 addss	 xmm0, DWORD PTR [edx]
  004ea	f3 0f 11 45 e4	 movss	 DWORD PTR _mid_pos$[ebp], xmm0

; 219  : 		mid_pos.y = waypoint_pos1->y + ( ( waypoint_pos2->y - waypoint_pos1->y ) / 2 );

  004ef	8b 45 f0	 mov	 eax, DWORD PTR _waypoint_pos2$[ebp]
  004f2	8b 4d f4	 mov	 ecx, DWORD PTR _waypoint_pos1$[ebp]
  004f5	f3 0f 10 40 04	 movss	 xmm0, DWORD PTR [eax+4]
  004fa	f3 0f 5c 41 04	 subss	 xmm0, DWORD PTR [ecx+4]
  004ff	f3 0f 5e 05 00
	00 00 00	 divss	 xmm0, DWORD PTR __real@40000000
  00507	8b 55 f4	 mov	 edx, DWORD PTR _waypoint_pos1$[ebp]
  0050a	f3 0f 58 42 04	 addss	 xmm0, DWORD PTR [edx+4]
  0050f	f3 0f 11 45 e8	 movss	 DWORD PTR _mid_pos$[ebp+4], xmm0

; 220  : 		mid_pos.z = waypoint_pos1->z + ( ( waypoint_pos2->z - waypoint_pos1->z ) / 2 );

  00514	8b 45 f0	 mov	 eax, DWORD PTR _waypoint_pos2$[ebp]
  00517	8b 4d f4	 mov	 ecx, DWORD PTR _waypoint_pos1$[ebp]
  0051a	f3 0f 10 40 08	 movss	 xmm0, DWORD PTR [eax+8]
  0051f	f3 0f 5c 41 08	 subss	 xmm0, DWORD PTR [ecx+8]
  00524	f3 0f 5e 05 00
	00 00 00	 divss	 xmm0, DWORD PTR __real@40000000
  0052c	8b 55 f4	 mov	 edx, DWORD PTR _waypoint_pos1$[ebp]
  0052f	f3 0f 58 42 08	 addss	 xmm0, DWORD PTR [edx+8]
  00534	f3 0f 11 45 ec	 movss	 DWORD PTR _mid_pos$[ebp+8], xmm0

; 221  : 
; 222  : 		best_range = get_2d_range (&mid_pos, pos);

  00539	8b 45 0c	 mov	 eax, DWORD PTR _pos$[ebp]
  0053c	50		 push	 eax
  0053d	8d 4d e4	 lea	 ecx, DWORD PTR _mid_pos$[ebp]
  00540	51		 push	 ecx
  00541	e8 00 00 00 00	 call	 ?get_2d_range@@YGMPBUVEC3D@@0@Z ; get_2d_range
  00546	d9 5d fc	 fstp	 DWORD PTR _best_range$[ebp]
$LN5@get_closes:

; 223  : 	}
; 224  : 
; 225  : 	if (actual_range)

  00549	83 7d 14 00	 cmp	 DWORD PTR _actual_range$[ebp], 0
  0054d	74 0c		 je	 SHORT $LN6@get_closes

; 226  : 	{
; 227  : 
; 228  : 		*actual_range = best_range;

  0054f	8b 45 14	 mov	 eax, DWORD PTR _actual_range$[ebp]
  00552	f3 0f 10 45 fc	 movss	 xmm0, DWORD PTR _best_range$[ebp]
  00557	f3 0f 11 00	 movss	 DWORD PTR [eax], xmm0
$LN6@get_closes:

; 229  : 	}
; 230  : 
; 231  : 	return ( closest_waypoint );

  0055b	8b 45 e0	 mov	 eax, DWORD PTR _closest_waypoint$[ebp]

; 232  : }

  0055e	5f		 pop	 edi
  0055f	5e		 pop	 esi
  00560	5b		 pop	 ebx
  00561	8b e5		 mov	 esp, ebp
  00563	5d		 pop	 ebp
  00564	c2 10 00	 ret	 16			; 00000010H
?get_closest_halfway_waypoint@@YGPAUENTITY@@PAU1@PAUVEC3D@@MPAM@Z ENDP ; get_closest_halfway_waypoint
_TEXT	ENDS
; Function compile flags: /Odtp /ZI
; File c:\users\nhv90\projects\eech\aphavoc\source\ai\ai_misc\ai_misc.c
;	COMDAT ?get_closest_waypoint@@YGPAUENTITY@@PAU1@PAUVEC3D@@MPAM@Z
_TEXT	SEGMENT
tv178 = -92						; size = 4
tv157 = -92						; size = 4
tv131 = -92						; size = 4
tv78 = -92						; size = 4
tv170 = -88						; size = 4
tv149 = -88						; size = 4
tv91 = -88						; size = 4
tv70 = -88						; size = 4
_current_waypoint$ = -20				; size = 4
_closest_waypoint$ = -16				; size = 4
_waypoint_pos$ = -12					; size = 4
_range$ = -8						; size = 4
_best_range$ = -4					; size = 4
_task$ = 8						; size = 4
_pos$ = 12						; size = 4
_min_range$ = 16					; size = 4
_actual_range$ = 20					; size = 4
?get_closest_waypoint@@YGPAUENTITY@@PAU1@PAUVEC3D@@MPAM@Z PROC ; get_closest_waypoint, COMDAT

; 84   : {

  00000	55		 push	 ebp
  00001	8b ec		 mov	 ebp, esp
  00003	83 ec 5c	 sub	 esp, 92			; 0000005cH
  00006	53		 push	 ebx
  00007	56		 push	 esi
  00008	57		 push	 edi

; 85   : 
; 86   : 	float
; 87   : 		best_range,
; 88   : 		range;
; 89   : 
; 90   : 	vec3d
; 91   : 		*waypoint_pos;
; 92   : 
; 93   : 	entity
; 94   : 		*closest_waypoint = NULL,

  00009	c7 45 f0 00 00
	00 00		 mov	 DWORD PTR _closest_waypoint$[ebp], 0

; 95   : 		*current_waypoint;
; 96   : 
; 97   : 	best_range = 99999999;

  00010	f3 0f 10 05 00
	00 00 00	 movss	 xmm0, DWORD PTR __real@4cbebc20
  00018	f3 0f 11 45 fc	 movss	 DWORD PTR _best_range$[ebp], xmm0

; 98   : 
; 99   : 	current_waypoint = get_local_entity_first_child (task, LIST_TYPE_WAYPOINT);

  0001d	83 7d 08 00	 cmp	 DWORD PTR _task$[ebp], 0
  00021	74 0a		 je	 SHORT $LN10@get_closes
  00023	8b 45 08	 mov	 eax, DWORD PTR _task$[ebp]
  00026	8b 08		 mov	 ecx, DWORD PTR [eax]
  00028	89 4d a8	 mov	 DWORD PTR tv70[ebp], ecx
  0002b	eb 21		 jmp	 SHORT $LN11@get_closes
$LN10@get_closes:
  0002d	8b 15 00 00 00
	00		 mov	 edx, DWORD PTR ?__LINE__Var@?0??get_closest_waypoint@@YGPAUENTITY@@PAU2@PAUVEC3D@@MPAM@Z@4JA
  00033	83 c2 0f	 add	 edx, 15			; 0000000fH
  00036	52		 push	 edx
  00037	68 00 00 00 00	 push	 OFFSET ??_C@_0EB@GJLKGHAC@c?3?2users?2nhv90?2projects?2eech?2ap@
  0003c	a1 00 00 00 00	 mov	 eax, DWORD PTR ?null_entity_pointer_message@@3PBDB ; null_entity_pointer_message
  00041	50		 push	 eax
  00042	e8 00 00 00 00	 call	 ?process_assert@@YGXPBD0H@Z ; process_assert
  00047	c7 45 a8 00 00
	00 00		 mov	 DWORD PTR tv70[ebp], 0
$LN11@get_closes:
  0004e	b9 01 00 00 00	 mov	 ecx, 1
  00053	85 c9		 test	 ecx, ecx
  00055	74 09		 je	 SHORT $LN12@get_closes
  00057	c7 45 a4 2c 00
	00 00		 mov	 DWORD PTR tv78[ebp], 44	; 0000002cH
  0005e	eb 21		 jmp	 SHORT $LN13@get_closes
$LN12@get_closes:
  00060	8b 15 00 00 00
	00		 mov	 edx, DWORD PTR ?__LINE__Var@?0??get_closest_waypoint@@YGPAUENTITY@@PAU2@PAUVEC3D@@MPAM@Z@4JA
  00066	83 c2 0f	 add	 edx, 15			; 0000000fH
  00069	52		 push	 edx
  0006a	68 00 00 00 00	 push	 OFFSET ??_C@_0EB@GJLKGHAC@c?3?2users?2nhv90?2projects?2eech?2ap@
  0006f	a1 00 00 00 00	 mov	 eax, DWORD PTR ?overload_invalid_list_type_message@@3PBDB ; overload_invalid_list_type_message
  00074	50		 push	 eax
  00075	e8 00 00 00 00	 call	 ?process_assert@@YGXPBD0H@Z ; process_assert
  0007a	c7 45 a4 00 00
	00 00		 mov	 DWORD PTR tv78[ebp], 0
$LN13@get_closes:
  00081	6a 2c		 push	 44			; 0000002cH
  00083	8b 4d 08	 mov	 ecx, DWORD PTR _task$[ebp]
  00086	51		 push	 ecx
  00087	69 55 a8 b4 00
	00 00		 imul	 edx, DWORD PTR tv70[ebp], 180
  0008e	8b 45 a4	 mov	 eax, DWORD PTR tv78[ebp]
  00091	8b 8c 82 00 00
	00 00		 mov	 ecx, DWORD PTR ?fn_get_local_entity_first_child@@3PAY0CN@P6GPAUENTITY@@PAU1@W4LIST_TYPES@@@ZA[edx+eax*4]
  00098	ff d1		 call	 ecx
  0009a	89 45 ec	 mov	 DWORD PTR _current_waypoint$[ebp], eax
$LN2@get_closes:

; 100  : 
; 101  : 	while (current_waypoint)

  0009d	83 7d ec 00	 cmp	 DWORD PTR _current_waypoint$[ebp], 0
  000a1	0f 84 52 01 00
	00		 je	 $LN3@get_closes

; 102  : 	{
; 103  : 
; 104  : 		waypoint_pos = get_local_entity_vec3d_ptr (current_waypoint, VEC3D_TYPE_POSITION);

  000a7	83 7d ec 00	 cmp	 DWORD PTR _current_waypoint$[ebp], 0
  000ab	74 0a		 je	 SHORT $LN14@get_closes
  000ad	8b 45 ec	 mov	 eax, DWORD PTR _current_waypoint$[ebp]
  000b0	8b 08		 mov	 ecx, DWORD PTR [eax]
  000b2	89 4d a8	 mov	 DWORD PTR tv91[ebp], ecx
  000b5	eb 21		 jmp	 SHORT $LN15@get_closes
$LN14@get_closes:
  000b7	8b 15 00 00 00
	00		 mov	 edx, DWORD PTR ?__LINE__Var@?0??get_closest_waypoint@@YGPAUENTITY@@PAU2@PAUVEC3D@@MPAM@Z@4JA
  000bd	83 c2 14	 add	 edx, 20			; 00000014H
  000c0	52		 push	 edx
  000c1	68 00 00 00 00	 push	 OFFSET ??_C@_0EB@GJLKGHAC@c?3?2users?2nhv90?2projects?2eech?2ap@
  000c6	a1 00 00 00 00	 mov	 eax, DWORD PTR ?null_entity_pointer_message@@3PBDB ; null_entity_pointer_message
  000cb	50		 push	 eax
  000cc	e8 00 00 00 00	 call	 ?process_assert@@YGXPBD0H@Z ; process_assert
  000d1	c7 45 a8 00 00
	00 00		 mov	 DWORD PTR tv91[ebp], 0
$LN15@get_closes:
  000d8	b9 01 00 00 00	 mov	 ecx, 1
  000dd	85 c9		 test	 ecx, ecx
  000df	74 09		 je	 SHORT $LN16@get_closes
  000e1	c7 45 a4 08 00
	00 00		 mov	 DWORD PTR tv131[ebp], 8
  000e8	eb 21		 jmp	 SHORT $LN17@get_closes
$LN16@get_closes:
  000ea	8b 15 00 00 00
	00		 mov	 edx, DWORD PTR ?__LINE__Var@?0??get_closest_waypoint@@YGPAUENTITY@@PAU2@PAUVEC3D@@MPAM@Z@4JA
  000f0	83 c2 14	 add	 edx, 20			; 00000014H
  000f3	52		 push	 edx
  000f4	68 00 00 00 00	 push	 OFFSET ??_C@_0EB@GJLKGHAC@c?3?2users?2nhv90?2projects?2eech?2ap@
  000f9	a1 00 00 00 00	 mov	 eax, DWORD PTR ?overload_invalid_vec3d_type_message@@3PBDB ; overload_invalid_vec3d_type_message
  000fe	50		 push	 eax
  000ff	e8 00 00 00 00	 call	 ?process_assert@@YGXPBD0H@Z ; process_assert
  00104	c7 45 a4 00 00
	00 00		 mov	 DWORD PTR tv131[ebp], 0
$LN17@get_closes:
  0010b	6a 08		 push	 8
  0010d	8b 4d ec	 mov	 ecx, DWORD PTR _current_waypoint$[ebp]
  00110	51		 push	 ecx
  00111	6b 55 a8 60	 imul	 edx, DWORD PTR tv91[ebp], 96
  00115	8b 45 a4	 mov	 eax, DWORD PTR tv131[ebp]
  00118	8b 8c 82 00 00
	00 00		 mov	 ecx, DWORD PTR ?fn_get_local_entity_vec3d_ptr@@3PAY0BI@P6GPAUVEC3D@@PAUENTITY@@W4VEC3D_TYPES@@@ZA[edx+eax*4]
  0011f	ff d1		 call	 ecx
  00121	89 45 f4	 mov	 DWORD PTR _waypoint_pos$[ebp], eax

; 105  : 
; 106  : 		range = get_approx_2d_range (waypoint_pos, pos);

  00124	8b 45 0c	 mov	 eax, DWORD PTR _pos$[ebp]
  00127	50		 push	 eax
  00128	8b 4d f4	 mov	 ecx, DWORD PTR _waypoint_pos$[ebp]
  0012b	51		 push	 ecx
  0012c	e8 00 00 00 00	 call	 ?get_approx_2d_range@@YGMPBUVEC3D@@0@Z ; get_approx_2d_range
  00131	d9 5d f8	 fstp	 DWORD PTR _range$[ebp]

; 107  : 
; 108  : 		if (actual_range)

  00134	83 7d 14 00	 cmp	 DWORD PTR _actual_range$[ebp], 0
  00138	74 0c		 je	 SHORT $LN4@get_closes

; 109  : 		{
; 110  : 	
; 111  : 			*actual_range = range;

  0013a	8b 45 14	 mov	 eax, DWORD PTR _actual_range$[ebp]
  0013d	f3 0f 10 45 f8	 movss	 xmm0, DWORD PTR _range$[ebp]
  00142	f3 0f 11 00	 movss	 DWORD PTR [eax], xmm0
$LN4@get_closes:

; 112  : 		}
; 113  : 
; 114  : 		if (range <= min_range)

  00146	f3 0f 10 45 10	 movss	 xmm0, DWORD PTR _min_range$[ebp]
  0014b	0f 2f 45 f8	 comiss	 xmm0, DWORD PTR _range$[ebp]
  0014f	72 08		 jb	 SHORT $LN5@get_closes

; 115  : 		{
; 116  : 
; 117  : 			#if LANDING_DEBUG >= 2
; 118  : 
; 119  : 			debug_log ("AI_MISC: EARLY OUT: found waypoint %d (type %d) range %f", current_waypoint, entity_sub_type_waypoint_names [get_local_entity_int_value (current_waypoint, INT_TYPE_ENTITY_SUB_TYPE)], range);
; 120  : 
; 121  : 			#endif
; 122  : 
; 123  : 			return current_waypoint;

  00151	8b 45 ec	 mov	 eax, DWORD PTR _current_waypoint$[ebp]
  00154	e9 4c 01 00 00	 jmp	 $LN1@get_closes
$LN5@get_closes:

; 124  : 		}
; 125  : 
; 126  : 		if (range < best_range)

  00159	f3 0f 10 45 fc	 movss	 xmm0, DWORD PTR _best_range$[ebp]
  0015e	0f 2f 45 f8	 comiss	 xmm0, DWORD PTR _range$[ebp]
  00162	76 10		 jbe	 SHORT $LN6@get_closes

; 127  : 		{
; 128  : 
; 129  : 			best_range = range;

  00164	f3 0f 10 45 f8	 movss	 xmm0, DWORD PTR _range$[ebp]
  00169	f3 0f 11 45 fc	 movss	 DWORD PTR _best_range$[ebp], xmm0

; 130  : 
; 131  : 			closest_waypoint = current_waypoint;

  0016e	8b 45 ec	 mov	 eax, DWORD PTR _current_waypoint$[ebp]
  00171	89 45 f0	 mov	 DWORD PTR _closest_waypoint$[ebp], eax
$LN6@get_closes:

; 132  : 
; 133  : 			#if LANDING_DEBUG
; 134  : 
; 135  : 			debug_log ("AI_MISC: found waypoint %d (type %d) range %f", current_keysite, entity_sub_type_waypoint_names [get_local_entity_int_value (current_waypoint, INT_TYPE_ENTITY_SUB_TYPE)], range);
; 136  : 
; 137  : 			#endif
; 138  : 		}
; 139  : 
; 140  : 		current_waypoint = get_local_entity_child_succ (current_waypoint, LIST_TYPE_WAYPOINT);

  00174	83 7d ec 00	 cmp	 DWORD PTR _current_waypoint$[ebp], 0
  00178	74 0a		 je	 SHORT $LN18@get_closes
  0017a	8b 45 ec	 mov	 eax, DWORD PTR _current_waypoint$[ebp]
  0017d	8b 08		 mov	 ecx, DWORD PTR [eax]
  0017f	89 4d a8	 mov	 DWORD PTR tv149[ebp], ecx
  00182	eb 21		 jmp	 SHORT $LN19@get_closes
$LN18@get_closes:
  00184	8b 15 00 00 00
	00		 mov	 edx, DWORD PTR ?__LINE__Var@?0??get_closest_waypoint@@YGPAUENTITY@@PAU2@PAUVEC3D@@MPAM@Z@4JA
  0018a	83 c2 38	 add	 edx, 56			; 00000038H
  0018d	52		 push	 edx
  0018e	68 00 00 00 00	 push	 OFFSET ??_C@_0EB@GJLKGHAC@c?3?2users?2nhv90?2projects?2eech?2ap@
  00193	a1 00 00 00 00	 mov	 eax, DWORD PTR ?null_entity_pointer_message@@3PBDB ; null_entity_pointer_message
  00198	50		 push	 eax
  00199	e8 00 00 00 00	 call	 ?process_assert@@YGXPBD0H@Z ; process_assert
  0019e	c7 45 a8 00 00
	00 00		 mov	 DWORD PTR tv149[ebp], 0
$LN19@get_closes:
  001a5	b9 01 00 00 00	 mov	 ecx, 1
  001aa	85 c9		 test	 ecx, ecx
  001ac	74 09		 je	 SHORT $LN20@get_closes
  001ae	c7 45 a4 2c 00
	00 00		 mov	 DWORD PTR tv157[ebp], 44 ; 0000002cH
  001b5	eb 21		 jmp	 SHORT $LN21@get_closes
$LN20@get_closes:
  001b7	8b 15 00 00 00
	00		 mov	 edx, DWORD PTR ?__LINE__Var@?0??get_closest_waypoint@@YGPAUENTITY@@PAU2@PAUVEC3D@@MPAM@Z@4JA
  001bd	83 c2 38	 add	 edx, 56			; 00000038H
  001c0	52		 push	 edx
  001c1	68 00 00 00 00	 push	 OFFSET ??_C@_0EB@GJLKGHAC@c?3?2users?2nhv90?2projects?2eech?2ap@
  001c6	a1 00 00 00 00	 mov	 eax, DWORD PTR ?overload_invalid_list_type_message@@3PBDB ; overload_invalid_list_type_message
  001cb	50		 push	 eax
  001cc	e8 00 00 00 00	 call	 ?process_assert@@YGXPBD0H@Z ; process_assert
  001d1	c7 45 a4 00 00
	00 00		 mov	 DWORD PTR tv157[ebp], 0
$LN21@get_closes:
  001d8	6a 2c		 push	 44			; 0000002cH
  001da	8b 4d ec	 mov	 ecx, DWORD PTR _current_waypoint$[ebp]
  001dd	51		 push	 ecx
  001de	69 55 a8 b4 00
	00 00		 imul	 edx, DWORD PTR tv149[ebp], 180
  001e5	8b 45 a4	 mov	 eax, DWORD PTR tv157[ebp]
  001e8	8b 8c 82 00 00
	00 00		 mov	 ecx, DWORD PTR ?fn_get_local_entity_child_succ@@3PAY0CN@P6GPAUENTITY@@PAU1@W4LIST_TYPES@@@ZA[edx+eax*4]
  001ef	ff d1		 call	 ecx
  001f1	89 45 ec	 mov	 DWORD PTR _current_waypoint$[ebp], eax

; 141  : 	} 

  001f4	e9 a4 fe ff ff	 jmp	 $LN2@get_closes
$LN3@get_closes:

; 142  : 
; 143  : 	if ( closest_waypoint )

  001f9	83 7d f0 00	 cmp	 DWORD PTR _closest_waypoint$[ebp], 0
  001fd	0f 84 8d 00 00
	00		 je	 $LN7@get_closes

; 144  : 	{
; 145  : 
; 146  : 		waypoint_pos = get_local_entity_vec3d_ptr (closest_waypoint, VEC3D_TYPE_POSITION);

  00203	83 7d f0 00	 cmp	 DWORD PTR _closest_waypoint$[ebp], 0
  00207	74 0a		 je	 SHORT $LN22@get_closes
  00209	8b 45 f0	 mov	 eax, DWORD PTR _closest_waypoint$[ebp]
  0020c	8b 08		 mov	 ecx, DWORD PTR [eax]
  0020e	89 4d a8	 mov	 DWORD PTR tv170[ebp], ecx
  00211	eb 21		 jmp	 SHORT $LN23@get_closes
$LN22@get_closes:
  00213	8b 15 00 00 00
	00		 mov	 edx, DWORD PTR ?__LINE__Var@?0??get_closest_waypoint@@YGPAUENTITY@@PAU2@PAUVEC3D@@MPAM@Z@4JA
  00219	83 c2 3e	 add	 edx, 62			; 0000003eH
  0021c	52		 push	 edx
  0021d	68 00 00 00 00	 push	 OFFSET ??_C@_0EB@GJLKGHAC@c?3?2users?2nhv90?2projects?2eech?2ap@
  00222	a1 00 00 00 00	 mov	 eax, DWORD PTR ?null_entity_pointer_message@@3PBDB ; null_entity_pointer_message
  00227	50		 push	 eax
  00228	e8 00 00 00 00	 call	 ?process_assert@@YGXPBD0H@Z ; process_assert
  0022d	c7 45 a8 00 00
	00 00		 mov	 DWORD PTR tv170[ebp], 0
$LN23@get_closes:
  00234	b9 01 00 00 00	 mov	 ecx, 1
  00239	85 c9		 test	 ecx, ecx
  0023b	74 09		 je	 SHORT $LN24@get_closes
  0023d	c7 45 a4 08 00
	00 00		 mov	 DWORD PTR tv178[ebp], 8
  00244	eb 21		 jmp	 SHORT $LN25@get_closes
$LN24@get_closes:
  00246	8b 15 00 00 00
	00		 mov	 edx, DWORD PTR ?__LINE__Var@?0??get_closest_waypoint@@YGPAUENTITY@@PAU2@PAUVEC3D@@MPAM@Z@4JA
  0024c	83 c2 3e	 add	 edx, 62			; 0000003eH
  0024f	52		 push	 edx
  00250	68 00 00 00 00	 push	 OFFSET ??_C@_0EB@GJLKGHAC@c?3?2users?2nhv90?2projects?2eech?2ap@
  00255	a1 00 00 00 00	 mov	 eax, DWORD PTR ?overload_invalid_vec3d_type_message@@3PBDB ; overload_invalid_vec3d_type_message
  0025a	50		 push	 eax
  0025b	e8 00 00 00 00	 call	 ?process_assert@@YGXPBD0H@Z ; process_assert
  00260	c7 45 a4 00 00
	00 00		 mov	 DWORD PTR tv178[ebp], 0
$LN25@get_closes:
  00267	6a 08		 push	 8
  00269	8b 4d f0	 mov	 ecx, DWORD PTR _closest_waypoint$[ebp]
  0026c	51		 push	 ecx
  0026d	6b 55 a8 60	 imul	 edx, DWORD PTR tv170[ebp], 96
  00271	8b 45 a4	 mov	 eax, DWORD PTR tv178[ebp]
  00274	8b 8c 82 00 00
	00 00		 mov	 ecx, DWORD PTR ?fn_get_local_entity_vec3d_ptr@@3PAY0BI@P6GPAUVEC3D@@PAUENTITY@@W4VEC3D_TYPES@@@ZA[edx+eax*4]
  0027b	ff d1		 call	 ecx
  0027d	89 45 f4	 mov	 DWORD PTR _waypoint_pos$[ebp], eax

; 147  : 
; 148  : 		best_range = get_2d_range (waypoint_pos, pos);

  00280	8b 45 0c	 mov	 eax, DWORD PTR _pos$[ebp]
  00283	50		 push	 eax
  00284	8b 4d f4	 mov	 ecx, DWORD PTR _waypoint_pos$[ebp]
  00287	51		 push	 ecx
  00288	e8 00 00 00 00	 call	 ?get_2d_range@@YGMPBUVEC3D@@0@Z ; get_2d_range
  0028d	d9 5d fc	 fstp	 DWORD PTR _best_range$[ebp]
$LN7@get_closes:

; 149  : 	}
; 150  : 
; 151  : 	if (actual_range)

  00290	83 7d 14 00	 cmp	 DWORD PTR _actual_range$[ebp], 0
  00294	74 0c		 je	 SHORT $LN8@get_closes

; 152  : 	{
; 153  : 
; 154  : 		*actual_range = best_range;

  00296	8b 45 14	 mov	 eax, DWORD PTR _actual_range$[ebp]
  00299	f3 0f 10 45 fc	 movss	 xmm0, DWORD PTR _best_range$[ebp]
  0029e	f3 0f 11 00	 movss	 DWORD PTR [eax], xmm0
$LN8@get_closes:

; 155  : 	}
; 156  : 
; 157  : 	return closest_waypoint;

  002a2	8b 45 f0	 mov	 eax, DWORD PTR _closest_waypoint$[ebp]
$LN1@get_closes:

; 158  : }

  002a5	5f		 pop	 edi
  002a6	5e		 pop	 esi
  002a7	5b		 pop	 ebx
  002a8	8b e5		 mov	 esp, ebp
  002aa	5d		 pop	 ebp
  002ab	c2 10 00	 ret	 16			; 00000010H
?get_closest_waypoint@@YGPAUENTITY@@PAU1@PAUVEC3D@@MPAM@Z ENDP ; get_closest_waypoint
_TEXT	ENDS
END
