; Listing generated by Microsoft (R) Optimizing Compiler Version 19.16.27045.0 

	TITLE	C:\Users\nhv90\Projects\eech\aphavoc\source\entity\mobile\aircraft\aircraft.c
	.686P
	.XMM
	include listing.inc
	.model	flat

INCLUDELIB MSVCRTD
INCLUDELIB OLDNAMES

PUBLIC	?aircraft_critically_damaged@@YG?AW4aircraft_damage_types@@PAUENTITY@@@Z ; aircraft_critically_damaged
PUBLIC	?assess_aircraft_damage_level@@YGXPAUENTITY@@HH@Z ; assess_aircraft_damage_level
PUBLIC	?play_aircraft_shot_at_speech@@YGXPAUENTITY@@0@Z ; play_aircraft_shot_at_speech
PUBLIC	?play_aircraft_destroyed_speech@@YGXPAUENTITY@@0@Z ; play_aircraft_destroyed_speech
PUBLIC	?play_aircraft_targeted_speech@@YGXPAUENTITY@@0@Z ; play_aircraft_targeted_speech
PUBLIC	?play_aircraft_flown_into_new_sector_speech@@YGXPAUENTITY@@00@Z ; play_aircraft_flown_into_new_sector_speech
PUBLIC	?update_aircraft_damage_timers@@YGXXZ		; update_aircraft_damage_timers
PUBLIC	?get_aircraft_send_damage_update_flag@@YGHXZ	; get_aircraft_send_damage_update_flag
PUBLIC	??_C@_0EO@EFCBEFCN@c?3?2users?2nhv90?2projects?2eech?2ap@ ; `string'
PUBLIC	?__LINE__Var@?0??play_aircraft_shot_at_speech@@YGXPAUENTITY@@0@Z@4JA ; `play_aircraft_shot_at_speech'::`1'::__LINE__Var
PUBLIC	??_C@_06GPEKEEBB@victim@			; `string'
PUBLIC	??_C@_09HKMIOAOH@aggressor@			; `string'
PUBLIC	?__LINE__Var@?0??play_aircraft_destroyed_speech@@YGXPAUENTITY@@0@Z@4JA ; `play_aircraft_destroyed_speech'::`1'::__LINE__Var
PUBLIC	?__LINE__Var@?0??play_aircraft_targeted_speech@@YGXPAUENTITY@@0@Z@4JA ; `play_aircraft_targeted_speech'::`1'::__LINE__Var
PUBLIC	?__LINE__Var@?0??play_aircraft_flown_into_new_sector_speech@@YGXPAUENTITY@@00@Z@4JA ; `play_aircraft_flown_into_new_sector_speech'::`1'::__LINE__Var
PUBLIC	??_C@_02LFNMGJAP@en@				; `string'
PUBLIC	__real@3f000000
PUBLIC	__real@3f19999a
PUBLIC	__real@3f4ccccd
PUBLIC	__real@3f800000
PUBLIC	__real@40400000
PUBLIC	__real@40800000
PUBLIC	__real@40a00000
PUBLIC	__real@41000000
PUBLIC	__real@41200000
PUBLIC	__real@41700000
PUBLIC	__real@41800000
EXTRN	?process_assert@@YGXPBD0H@Z:PROC		; process_assert
EXTRN	?assess_fixed_wing_damage_level@@YGXPAUENTITY@@HH@Z:PROC ; assess_fixed_wing_damage_level
EXTRN	?get_speech_random_value@@YGHPAUSPEECH_INSTANCE_TYPE@@HH@Z:PROC ; get_speech_random_value
EXTRN	?play_client_server_cpg_message@@YGHPAUENTITY@@MMHMH@Z:PROC ; play_client_server_cpg_message
EXTRN	?play_client_server_wingman_message@@YGHPAUENTITY@@MMW4speech_category_types@@MW4speech_intro_types@@W4speech_array_types@@H@Z:PROC ; play_client_server_wingman_message
EXTRN	?system_delta_time@@3MA:DWORD			; system_delta_time
EXTRN	?random_number_seed@@3HA:DWORD			; random_number_seed
EXTRN	?null_entity_pointer_message@@3PBDB:DWORD	; null_entity_pointer_message
EXTRN	?overload_invalid_int_type_message@@3PBDB:DWORD	; overload_invalid_int_type_message
EXTRN	?fn_get_local_entity_int_value@@3PAY0BBH@P6GHPAUENTITY@@W4INT_TYPES@@@ZA:BYTE ; fn_get_local_entity_int_value
EXTRN	?aircraft_database@@3PAUAIRCRAFT_DATA@@A:BYTE	; aircraft_database
EXTRN	__fltused:DWORD
_BSS	SEGMENT
?aircraft_damage_timer@@3MA DD 01H DUP (?)		; aircraft_damage_timer
?send_damage_update_flag@@3HA DD 01H DUP (?)		; send_damage_update_flag
?last_ac_hit_aggressor_wingman_comment@@3PAHA DD 03H DUP (?) ; last_ac_hit_aggressor_wingman_comment
?last_ac_hit_aggressor_cpg_comment@@3PAHA DD 03H DUP (?) ; last_ac_hit_aggressor_cpg_comment
?last_ac_hit_victim_wingman_comment@@3PAHA DD 03H DUP (?) ; last_ac_hit_victim_wingman_comment
?last_ac_destroyed_cpg_comment@@3PAHA DD 03H DUP (?)	; last_ac_destroyed_cpg_comment
_BSS	ENDS
;	COMDAT __real@41800000
CONST	SEGMENT
__real@41800000 DD 041800000r			; 16
CONST	ENDS
;	COMDAT __real@41700000
CONST	SEGMENT
__real@41700000 DD 041700000r			; 15
CONST	ENDS
;	COMDAT __real@41200000
CONST	SEGMENT
__real@41200000 DD 041200000r			; 10
CONST	ENDS
;	COMDAT __real@41000000
CONST	SEGMENT
__real@41000000 DD 041000000r			; 8
CONST	ENDS
;	COMDAT __real@40a00000
CONST	SEGMENT
__real@40a00000 DD 040a00000r			; 5
CONST	ENDS
;	COMDAT __real@40800000
CONST	SEGMENT
__real@40800000 DD 040800000r			; 4
CONST	ENDS
;	COMDAT __real@40400000
CONST	SEGMENT
__real@40400000 DD 040400000r			; 3
CONST	ENDS
;	COMDAT __real@3f800000
CONST	SEGMENT
__real@3f800000 DD 03f800000r			; 1
CONST	ENDS
;	COMDAT __real@3f4ccccd
CONST	SEGMENT
__real@3f4ccccd DD 03f4ccccdr			; 0.8
CONST	ENDS
;	COMDAT __real@3f19999a
CONST	SEGMENT
__real@3f19999a DD 03f19999ar			; 0.6
CONST	ENDS
;	COMDAT __real@3f000000
CONST	SEGMENT
__real@3f000000 DD 03f000000r			; 0.5
CONST	ENDS
;	COMDAT ??_C@_02LFNMGJAP@en@
CONST	SEGMENT
??_C@_02LFNMGJAP@en@ DB 'en', 00H			; `string'
CONST	ENDS
;	COMDAT ?__LINE__Var@?0??play_aircraft_flown_into_new_sector_speech@@YGXPAUENTITY@@00@Z@4JA
_DATA	SEGMENT
?__LINE__Var@?0??play_aircraft_flown_into_new_sector_speech@@YGXPAUENTITY@@00@Z@4JA DD 0228H ; `play_aircraft_flown_into_new_sector_speech'::`1'::__LINE__Var
_DATA	ENDS
;	COMDAT ?__LINE__Var@?0??play_aircraft_targeted_speech@@YGXPAUENTITY@@0@Z@4JA
_DATA	SEGMENT
?__LINE__Var@?0??play_aircraft_targeted_speech@@YGXPAUENTITY@@0@Z@4JA DD 020bH ; `play_aircraft_targeted_speech'::`1'::__LINE__Var
_DATA	ENDS
;	COMDAT ?__LINE__Var@?0??play_aircraft_destroyed_speech@@YGXPAUENTITY@@0@Z@4JA
_DATA	SEGMENT
?__LINE__Var@?0??play_aircraft_destroyed_speech@@YGXPAUENTITY@@0@Z@4JA DD 01a1H ; `play_aircraft_destroyed_speech'::`1'::__LINE__Var
_DATA	ENDS
;	COMDAT ??_C@_09HKMIOAOH@aggressor@
CONST	SEGMENT
??_C@_09HKMIOAOH@aggressor@ DB 'aggressor', 00H		; `string'
CONST	ENDS
;	COMDAT ??_C@_06GPEKEEBB@victim@
CONST	SEGMENT
??_C@_06GPEKEEBB@victim@ DB 'victim', 00H		; `string'
CONST	ENDS
;	COMDAT ?__LINE__Var@?0??play_aircraft_shot_at_speech@@YGXPAUENTITY@@0@Z@4JA
_DATA	SEGMENT
?__LINE__Var@?0??play_aircraft_shot_at_speech@@YGXPAUENTITY@@0@Z@4JA DD 0b2H ; `play_aircraft_shot_at_speech'::`1'::__LINE__Var
_DATA	ENDS
_DATA	SEGMENT
?num_ac_hit_aggressor_wingman_comments@@3PAHA DD 00H	; num_ac_hit_aggressor_wingman_comments
	DD	01H
	DD	01H
?aircraft_hit_aggressor_wingman_comments@@3PAUSPEECH_INSTANCE_TYPE@@A DD 011H ; aircraft_hit_aggressor_wingman_comments
	DD	07H
	DD	064H
	DD	01H
?num_ac_hit_aggressor_cpg_comments@@3PAHA DD 00H	; num_ac_hit_aggressor_cpg_comments
	DD	01H
	DD	01H
?aircraft_hit_aggressor_cpg_comments@@3PAUSPEECH_INSTANCE_TYPE@@A DD 06bH ; aircraft_hit_aggressor_cpg_comments
	DD	09H
	DD	064H
	DD	00H
?num_ac_hit_victim_wingman_comments@@3PAHA DD 00H	; num_ac_hit_victim_wingman_comments
	DD	01H
	DD	01H
?aircraft_hit_victim_wingman_comments@@3PAUSPEECH_INSTANCE_TYPE@@A DD 0fH ; aircraft_hit_victim_wingman_comments
	DD	07H
	DD	064H
	DD	02H
?num_ac_destroyed_cpg_comments@@3PAHA DD 00H		; num_ac_destroyed_cpg_comments
	DD	04H
	DD	04H
?aircraft_destroyed_cpg_comments@@3PAUSPEECH_INSTANCE_TYPE@@A DD 06dH ; aircraft_destroyed_cpg_comments
	DD	09H
	DD	064H
	DD	01H
	DD	06eH
	DD	09H
	DD	064H
	DD	01H
	DD	06fH
	DD	09H
	DD	064H
	DD	01H
	DD	070H
	DD	09H
	DD	064H
	DD	01H
_DATA	ENDS
;	COMDAT ??_C@_0EO@EFCBEFCN@c?3?2users?2nhv90?2projects?2eech?2ap@
CONST	SEGMENT
??_C@_0EO@EFCBEFCN@c?3?2users?2nhv90?2projects?2eech?2ap@ DB 'c:\users\nh'
	DB	'v90\projects\eech\aphavoc\source\entity\mobile\aircraft\aircr'
	DB	'aft.c', 00H					; `string'
CONST	ENDS
; Function compile flags: /Odtp /ZI
; File c:\users\nhv90\projects\eech\aphavoc\source\entity\mobile\aircraft\aircraft.c
;	COMDAT ?get_aircraft_send_damage_update_flag@@YGHXZ
_TEXT	SEGMENT
?get_aircraft_send_damage_update_flag@@YGHXZ PROC	; get_aircraft_send_damage_update_flag, COMDAT

; 601  : {

  00000	55		 push	 ebp
  00001	8b ec		 mov	 ebp, esp
  00003	83 ec 40	 sub	 esp, 64			; 00000040H
  00006	53		 push	 ebx
  00007	56		 push	 esi
  00008	57		 push	 edi

; 602  : 	return send_damage_update_flag;

  00009	a1 00 00 00 00	 mov	 eax, DWORD PTR ?send_damage_update_flag@@3HA

; 603  : }

  0000e	5f		 pop	 edi
  0000f	5e		 pop	 esi
  00010	5b		 pop	 ebx
  00011	8b e5		 mov	 esp, ebp
  00013	5d		 pop	 ebp
  00014	c3		 ret	 0
?get_aircraft_send_damage_update_flag@@YGHXZ ENDP	; get_aircraft_send_damage_update_flag
_TEXT	ENDS
; Function compile flags: /Odtp /ZI
; File c:\users\nhv90\projects\eech\aphavoc\source\entity\mobile\aircraft\aircraft.c
;	COMDAT ?update_aircraft_damage_timers@@YGXXZ
_TEXT	SEGMENT
?update_aircraft_damage_timers@@YGXXZ PROC		; update_aircraft_damage_timers, COMDAT

; 579  : {

  00000	55		 push	 ebp
  00001	8b ec		 mov	 ebp, esp
  00003	83 ec 40	 sub	 esp, 64			; 00000040H
  00006	53		 push	 ebx
  00007	56		 push	 esi
  00008	57		 push	 edi

; 580  : 
; 581  : 	if (send_damage_update_flag)

  00009	83 3d 00 00 00
	00 00		 cmp	 DWORD PTR ?send_damage_update_flag@@3HA, 0
  00010	74 0a		 je	 SHORT $LN2@update_air

; 582  : 	{
; 583  : 		send_damage_update_flag = FALSE;

  00012	c7 05 00 00 00
	00 00 00 00 00	 mov	 DWORD PTR ?send_damage_update_flag@@3HA, 0
$LN2@update_air:

; 584  : 	}
; 585  : 
; 586  : 	aircraft_damage_timer -= get_delta_time ();

  0001c	f3 0f 10 05 00
	00 00 00	 movss	 xmm0, DWORD PTR ?aircraft_damage_timer@@3MA
  00024	f3 0f 5c 05 00
	00 00 00	 subss	 xmm0, DWORD PTR ?system_delta_time@@3MA
  0002c	f3 0f 11 05 00
	00 00 00	 movss	 DWORD PTR ?aircraft_damage_timer@@3MA, xmm0

; 587  : 
; 588  : 	if (aircraft_damage_timer < 0.0)

  00034	f3 0f 5a 05 00
	00 00 00	 cvtss2sd xmm0, DWORD PTR ?aircraft_damage_timer@@3MA
  0003c	0f 57 c9	 xorps	 xmm1, xmm1
  0003f	66 0f 2f c8	 comisd	 xmm1, xmm0
  00043	76 1a		 jbe	 SHORT $LN3@update_air

; 589  : 	{
; 590  : 		aircraft_damage_timer = AIRCRAFT_DAMAGE_TIMER_MAX_VALUE;

  00045	f3 0f 10 05 00
	00 00 00	 movss	 xmm0, DWORD PTR __real@41200000
  0004d	f3 0f 11 05 00
	00 00 00	 movss	 DWORD PTR ?aircraft_damage_timer@@3MA, xmm0

; 591  : 
; 592  : 		send_damage_update_flag = TRUE;

  00055	c7 05 00 00 00
	00 01 00 00 00	 mov	 DWORD PTR ?send_damage_update_flag@@3HA, 1
$LN3@update_air:

; 593  : 	}
; 594  : }

  0005f	5f		 pop	 edi
  00060	5e		 pop	 esi
  00061	5b		 pop	 ebx
  00062	8b e5		 mov	 esp, ebp
  00064	5d		 pop	 ebp
  00065	c3		 ret	 0
?update_aircraft_damage_timers@@YGXXZ ENDP		; update_aircraft_damage_timers
_TEXT	ENDS
; Function compile flags: /Odtp /ZI
; File c:\users\nhv90\projects\eech\aphavoc\source\entity\mobile\aircraft\aircraft.c
;	COMDAT ?play_aircraft_flown_into_new_sector_speech@@YGXPAUENTITY@@00@Z
_TEXT	SEGMENT
tv133 = -76						; size = 4
tv83 = -76						; size = 4
tv94 = -72						; size = 4
tv75 = -72						; size = 4
_side$ = -4						; size = 4
_en$ = 8						; size = 4
_old_sector$ = 12					; size = 4
_new_sector$ = 16					; size = 4
?play_aircraft_flown_into_new_sector_speech@@YGXPAUENTITY@@00@Z PROC ; play_aircraft_flown_into_new_sector_speech, COMDAT

; 552  : {

  00000	55		 push	 ebp
  00001	8b ec		 mov	 ebp, esp
  00003	83 ec 4c	 sub	 esp, 76			; 0000004cH
  00006	53		 push	 ebx
  00007	56		 push	 esi
  00008	57		 push	 edi

; 553  : 	entity_sides
; 554  : 		side;
; 555  : 
; 556  : 	ASSERT (en);

  00009	83 7d 08 00	 cmp	 DWORD PTR _en$[ebp], 0
  0000d	75 18		 jne	 SHORT $LN2@play_aircr
  0000f	a1 00 00 00 00	 mov	 eax, DWORD PTR ?__LINE__Var@?0??play_aircraft_flown_into_new_sector_speech@@YGXPAUENTITY@@00@Z@4JA
  00014	83 c0 04	 add	 eax, 4
  00017	50		 push	 eax
  00018	68 00 00 00 00	 push	 OFFSET ??_C@_0EO@EFCBEFCN@c?3?2users?2nhv90?2projects?2eech?2ap@
  0001d	68 00 00 00 00	 push	 OFFSET ??_C@_02LFNMGJAP@en@
  00022	e8 00 00 00 00	 call	 ?process_assert@@YGXPBD0H@Z ; process_assert
$LN2@play_aircr:

; 557  : 
; 558  : 	side = (entity_sides) get_local_entity_int_value (en, INT_TYPE_SIDE);

  00027	83 7d 08 00	 cmp	 DWORD PTR _en$[ebp], 0
  0002b	74 0a		 je	 SHORT $LN6@play_aircr
  0002d	8b 45 08	 mov	 eax, DWORD PTR _en$[ebp]
  00030	8b 08		 mov	 ecx, DWORD PTR [eax]
  00032	89 4d b8	 mov	 DWORD PTR tv75[ebp], ecx
  00035	eb 21		 jmp	 SHORT $LN7@play_aircr
$LN6@play_aircr:
  00037	8b 15 00 00 00
	00		 mov	 edx, DWORD PTR ?__LINE__Var@?0??play_aircraft_flown_into_new_sector_speech@@YGXPAUENTITY@@00@Z@4JA
  0003d	83 c2 06	 add	 edx, 6
  00040	52		 push	 edx
  00041	68 00 00 00 00	 push	 OFFSET ??_C@_0EO@EFCBEFCN@c?3?2users?2nhv90?2projects?2eech?2ap@
  00046	a1 00 00 00 00	 mov	 eax, DWORD PTR ?null_entity_pointer_message@@3PBDB ; null_entity_pointer_message
  0004b	50		 push	 eax
  0004c	e8 00 00 00 00	 call	 ?process_assert@@YGXPBD0H@Z ; process_assert
  00051	c7 45 b8 00 00
	00 00		 mov	 DWORD PTR tv75[ebp], 0
$LN7@play_aircr:
  00058	b9 01 00 00 00	 mov	 ecx, 1
  0005d	85 c9		 test	 ecx, ecx
  0005f	74 09		 je	 SHORT $LN8@play_aircr
  00061	c7 45 b4 bb 00
	00 00		 mov	 DWORD PTR tv83[ebp], 187 ; 000000bbH
  00068	eb 21		 jmp	 SHORT $LN9@play_aircr
$LN8@play_aircr:
  0006a	8b 15 00 00 00
	00		 mov	 edx, DWORD PTR ?__LINE__Var@?0??play_aircraft_flown_into_new_sector_speech@@YGXPAUENTITY@@00@Z@4JA
  00070	83 c2 06	 add	 edx, 6
  00073	52		 push	 edx
  00074	68 00 00 00 00	 push	 OFFSET ??_C@_0EO@EFCBEFCN@c?3?2users?2nhv90?2projects?2eech?2ap@
  00079	a1 00 00 00 00	 mov	 eax, DWORD PTR ?overload_invalid_int_type_message@@3PBDB ; overload_invalid_int_type_message
  0007e	50		 push	 eax
  0007f	e8 00 00 00 00	 call	 ?process_assert@@YGXPBD0H@Z ; process_assert
  00084	c7 45 b4 00 00
	00 00		 mov	 DWORD PTR tv83[ebp], 0
$LN9@play_aircr:
  0008b	68 bb 00 00 00	 push	 187			; 000000bbH
  00090	8b 4d 08	 mov	 ecx, DWORD PTR _en$[ebp]
  00093	51		 push	 ecx
  00094	69 55 b8 5c 04
	00 00		 imul	 edx, DWORD PTR tv75[ebp], 1116
  0009b	8b 45 b4	 mov	 eax, DWORD PTR tv83[ebp]
  0009e	8b 8c 82 00 00
	00 00		 mov	 ecx, DWORD PTR ?fn_get_local_entity_int_value@@3PAY0BBH@P6GHPAUENTITY@@W4INT_TYPES@@@ZA[edx+eax*4]
  000a5	ff d1		 call	 ecx
  000a7	89 45 fc	 mov	 DWORD PTR _side$[ebp], eax

; 559  : 
; 560  : 	if (side == (entity_sides) get_local_entity_int_value (new_sector, INT_TYPE_SECTOR_SIDE))

  000aa	83 7d 10 00	 cmp	 DWORD PTR _new_sector$[ebp], 0
  000ae	74 0a		 je	 SHORT $LN10@play_aircr
  000b0	8b 45 10	 mov	 eax, DWORD PTR _new_sector$[ebp]
  000b3	8b 08		 mov	 ecx, DWORD PTR [eax]
  000b5	89 4d b8	 mov	 DWORD PTR tv94[ebp], ecx
  000b8	eb 1d		 jmp	 SHORT $LN11@play_aircr
$LN10@play_aircr:
  000ba	68 30 02 00 00	 push	 560			; 00000230H
  000bf	68 00 00 00 00	 push	 OFFSET ??_C@_0EO@EFCBEFCN@c?3?2users?2nhv90?2projects?2eech?2ap@
  000c4	8b 15 00 00 00
	00		 mov	 edx, DWORD PTR ?null_entity_pointer_message@@3PBDB ; null_entity_pointer_message
  000ca	52		 push	 edx
  000cb	e8 00 00 00 00	 call	 ?process_assert@@YGXPBD0H@Z ; process_assert
  000d0	c7 45 b8 00 00
	00 00		 mov	 DWORD PTR tv94[ebp], 0
$LN11@play_aircr:
  000d7	b8 01 00 00 00	 mov	 eax, 1
  000dc	85 c0		 test	 eax, eax
  000de	74 09		 je	 SHORT $LN12@play_aircr
  000e0	c7 45 b4 b7 00
	00 00		 mov	 DWORD PTR tv133[ebp], 183 ; 000000b7H
  000e7	eb 1d		 jmp	 SHORT $LN13@play_aircr
$LN12@play_aircr:
  000e9	68 30 02 00 00	 push	 560			; 00000230H
  000ee	68 00 00 00 00	 push	 OFFSET ??_C@_0EO@EFCBEFCN@c?3?2users?2nhv90?2projects?2eech?2ap@
  000f3	8b 0d 00 00 00
	00		 mov	 ecx, DWORD PTR ?overload_invalid_int_type_message@@3PBDB ; overload_invalid_int_type_message
  000f9	51		 push	 ecx
  000fa	e8 00 00 00 00	 call	 ?process_assert@@YGXPBD0H@Z ; process_assert
  000ff	c7 45 b4 00 00
	00 00		 mov	 DWORD PTR tv133[ebp], 0
$LN13@play_aircr:
  00106	68 b7 00 00 00	 push	 183			; 000000b7H
  0010b	8b 55 10	 mov	 edx, DWORD PTR _new_sector$[ebp]
  0010e	52		 push	 edx
  0010f	69 45 b8 5c 04
	00 00		 imul	 eax, DWORD PTR tv94[ebp], 1116
  00116	8b 4d b4	 mov	 ecx, DWORD PTR tv133[ebp]
  00119	8b 94 88 00 00
	00 00		 mov	 edx, DWORD PTR ?fn_get_local_entity_int_value@@3PAY0BBH@P6GHPAUENTITY@@W4INT_TYPES@@@ZA[eax+ecx*4]
  00120	ff d2		 call	 edx

; 561  : 	{
; 562  : 		//
; 563  : 		// flown into friendly sector
; 564  : 		//
; 565  : 	}
; 566  : 	else
; 567  : 	{
; 568  : 		//
; 569  : 		// flown into enemy sector
; 570  : 		//
; 571  : 	}
; 572  : }

  00122	5f		 pop	 edi
  00123	5e		 pop	 esi
  00124	5b		 pop	 ebx
  00125	8b e5		 mov	 esp, ebp
  00127	5d		 pop	 ebp
  00128	c2 0c 00	 ret	 12			; 0000000cH
?play_aircraft_flown_into_new_sector_speech@@YGXPAUENTITY@@00@Z ENDP ; play_aircraft_flown_into_new_sector_speech
_TEXT	ENDS
; Function compile flags: /Odtp /ZI
; File c:\users\nhv90\projects\eech\aphavoc\source\entity\mobile\aircraft\aircraft.c
;	COMDAT ?play_aircraft_targeted_speech@@YGXPAUENTITY@@0@Z
_TEXT	SEGMENT
tv140 = -80						; size = 4
tv88 = -80						; size = 4
tv132 = -76						; size = 4
tv80 = -76						; size = 4
_aggressor_side$ = -8					; size = 4
_victim_side$ = -4					; size = 4
_victim$ = 8						; size = 4
_aggressor$ = 12					; size = 4
?play_aircraft_targeted_speech@@YGXPAUENTITY@@0@Z PROC	; play_aircraft_targeted_speech, COMDAT

; 523  : {

  00000	55		 push	 ebp
  00001	8b ec		 mov	 ebp, esp
  00003	83 ec 50	 sub	 esp, 80			; 00000050H
  00006	53		 push	 ebx
  00007	56		 push	 esi
  00008	57		 push	 edi

; 524  : 	entity_sides
; 525  : 		victim_side,
; 526  : 		aggressor_side;
; 527  : 
; 528  : 	ASSERT (victim);

  00009	83 7d 08 00	 cmp	 DWORD PTR _victim$[ebp], 0
  0000d	75 18		 jne	 SHORT $LN2@play_aircr
  0000f	a1 00 00 00 00	 mov	 eax, DWORD PTR ?__LINE__Var@?0??play_aircraft_targeted_speech@@YGXPAUENTITY@@0@Z@4JA
  00014	83 c0 05	 add	 eax, 5
  00017	50		 push	 eax
  00018	68 00 00 00 00	 push	 OFFSET ??_C@_0EO@EFCBEFCN@c?3?2users?2nhv90?2projects?2eech?2ap@
  0001d	68 00 00 00 00	 push	 OFFSET ??_C@_06GPEKEEBB@victim@
  00022	e8 00 00 00 00	 call	 ?process_assert@@YGXPBD0H@Z ; process_assert
$LN2@play_aircr:

; 529  : 
; 530  : 	ASSERT (aggressor);

  00027	83 7d 0c 00	 cmp	 DWORD PTR _aggressor$[ebp], 0
  0002b	75 18		 jne	 SHORT $LN3@play_aircr
  0002d	a1 00 00 00 00	 mov	 eax, DWORD PTR ?__LINE__Var@?0??play_aircraft_targeted_speech@@YGXPAUENTITY@@0@Z@4JA
  00032	83 c0 07	 add	 eax, 7
  00035	50		 push	 eax
  00036	68 00 00 00 00	 push	 OFFSET ??_C@_0EO@EFCBEFCN@c?3?2users?2nhv90?2projects?2eech?2ap@
  0003b	68 00 00 00 00	 push	 OFFSET ??_C@_09HKMIOAOH@aggressor@
  00040	e8 00 00 00 00	 call	 ?process_assert@@YGXPBD0H@Z ; process_assert
$LN3@play_aircr:

; 531  : 
; 532  : 	victim_side = (entity_sides) get_local_entity_int_value (victim, INT_TYPE_SIDE);

  00045	83 7d 08 00	 cmp	 DWORD PTR _victim$[ebp], 0
  00049	74 0a		 je	 SHORT $LN7@play_aircr
  0004b	8b 45 08	 mov	 eax, DWORD PTR _victim$[ebp]
  0004e	8b 08		 mov	 ecx, DWORD PTR [eax]
  00050	89 4d b4	 mov	 DWORD PTR tv80[ebp], ecx
  00053	eb 21		 jmp	 SHORT $LN8@play_aircr
$LN7@play_aircr:
  00055	8b 15 00 00 00
	00		 mov	 edx, DWORD PTR ?__LINE__Var@?0??play_aircraft_targeted_speech@@YGXPAUENTITY@@0@Z@4JA
  0005b	83 c2 09	 add	 edx, 9
  0005e	52		 push	 edx
  0005f	68 00 00 00 00	 push	 OFFSET ??_C@_0EO@EFCBEFCN@c?3?2users?2nhv90?2projects?2eech?2ap@
  00064	a1 00 00 00 00	 mov	 eax, DWORD PTR ?null_entity_pointer_message@@3PBDB ; null_entity_pointer_message
  00069	50		 push	 eax
  0006a	e8 00 00 00 00	 call	 ?process_assert@@YGXPBD0H@Z ; process_assert
  0006f	c7 45 b4 00 00
	00 00		 mov	 DWORD PTR tv80[ebp], 0
$LN8@play_aircr:
  00076	b9 01 00 00 00	 mov	 ecx, 1
  0007b	85 c9		 test	 ecx, ecx
  0007d	74 09		 je	 SHORT $LN9@play_aircr
  0007f	c7 45 b0 bb 00
	00 00		 mov	 DWORD PTR tv88[ebp], 187 ; 000000bbH
  00086	eb 21		 jmp	 SHORT $LN10@play_aircr
$LN9@play_aircr:
  00088	8b 15 00 00 00
	00		 mov	 edx, DWORD PTR ?__LINE__Var@?0??play_aircraft_targeted_speech@@YGXPAUENTITY@@0@Z@4JA
  0008e	83 c2 09	 add	 edx, 9
  00091	52		 push	 edx
  00092	68 00 00 00 00	 push	 OFFSET ??_C@_0EO@EFCBEFCN@c?3?2users?2nhv90?2projects?2eech?2ap@
  00097	a1 00 00 00 00	 mov	 eax, DWORD PTR ?overload_invalid_int_type_message@@3PBDB ; overload_invalid_int_type_message
  0009c	50		 push	 eax
  0009d	e8 00 00 00 00	 call	 ?process_assert@@YGXPBD0H@Z ; process_assert
  000a2	c7 45 b0 00 00
	00 00		 mov	 DWORD PTR tv88[ebp], 0
$LN10@play_aircr:
  000a9	68 bb 00 00 00	 push	 187			; 000000bbH
  000ae	8b 4d 08	 mov	 ecx, DWORD PTR _victim$[ebp]
  000b1	51		 push	 ecx
  000b2	69 55 b4 5c 04
	00 00		 imul	 edx, DWORD PTR tv80[ebp], 1116
  000b9	8b 45 b0	 mov	 eax, DWORD PTR tv88[ebp]
  000bc	8b 8c 82 00 00
	00 00		 mov	 ecx, DWORD PTR ?fn_get_local_entity_int_value@@3PAY0BBH@P6GHPAUENTITY@@W4INT_TYPES@@@ZA[edx+eax*4]
  000c3	ff d1		 call	 ecx
  000c5	89 45 fc	 mov	 DWORD PTR _victim_side$[ebp], eax

; 533  : 
; 534  : 	aggressor_side = (entity_sides) get_local_entity_int_value (aggressor, INT_TYPE_SIDE);

  000c8	83 7d 0c 00	 cmp	 DWORD PTR _aggressor$[ebp], 0
  000cc	74 0a		 je	 SHORT $LN11@play_aircr
  000ce	8b 45 0c	 mov	 eax, DWORD PTR _aggressor$[ebp]
  000d1	8b 08		 mov	 ecx, DWORD PTR [eax]
  000d3	89 4d b4	 mov	 DWORD PTR tv132[ebp], ecx
  000d6	eb 21		 jmp	 SHORT $LN12@play_aircr
$LN11@play_aircr:
  000d8	8b 15 00 00 00
	00		 mov	 edx, DWORD PTR ?__LINE__Var@?0??play_aircraft_targeted_speech@@YGXPAUENTITY@@0@Z@4JA
  000de	83 c2 0b	 add	 edx, 11			; 0000000bH
  000e1	52		 push	 edx
  000e2	68 00 00 00 00	 push	 OFFSET ??_C@_0EO@EFCBEFCN@c?3?2users?2nhv90?2projects?2eech?2ap@
  000e7	a1 00 00 00 00	 mov	 eax, DWORD PTR ?null_entity_pointer_message@@3PBDB ; null_entity_pointer_message
  000ec	50		 push	 eax
  000ed	e8 00 00 00 00	 call	 ?process_assert@@YGXPBD0H@Z ; process_assert
  000f2	c7 45 b4 00 00
	00 00		 mov	 DWORD PTR tv132[ebp], 0
$LN12@play_aircr:
  000f9	b9 01 00 00 00	 mov	 ecx, 1
  000fe	85 c9		 test	 ecx, ecx
  00100	74 09		 je	 SHORT $LN13@play_aircr
  00102	c7 45 b0 bb 00
	00 00		 mov	 DWORD PTR tv140[ebp], 187 ; 000000bbH
  00109	eb 21		 jmp	 SHORT $LN14@play_aircr
$LN13@play_aircr:
  0010b	8b 15 00 00 00
	00		 mov	 edx, DWORD PTR ?__LINE__Var@?0??play_aircraft_targeted_speech@@YGXPAUENTITY@@0@Z@4JA
  00111	83 c2 0b	 add	 edx, 11			; 0000000bH
  00114	52		 push	 edx
  00115	68 00 00 00 00	 push	 OFFSET ??_C@_0EO@EFCBEFCN@c?3?2users?2nhv90?2projects?2eech?2ap@
  0011a	a1 00 00 00 00	 mov	 eax, DWORD PTR ?overload_invalid_int_type_message@@3PBDB ; overload_invalid_int_type_message
  0011f	50		 push	 eax
  00120	e8 00 00 00 00	 call	 ?process_assert@@YGXPBD0H@Z ; process_assert
  00125	c7 45 b0 00 00
	00 00		 mov	 DWORD PTR tv140[ebp], 0
$LN14@play_aircr:
  0012c	68 bb 00 00 00	 push	 187			; 000000bbH
  00131	8b 4d 0c	 mov	 ecx, DWORD PTR _aggressor$[ebp]
  00134	51		 push	 ecx
  00135	69 55 b4 5c 04
	00 00		 imul	 edx, DWORD PTR tv132[ebp], 1116
  0013c	8b 45 b0	 mov	 eax, DWORD PTR tv140[ebp]
  0013f	8b 8c 82 00 00
	00 00		 mov	 ecx, DWORD PTR ?fn_get_local_entity_int_value@@3PAY0BBH@P6GHPAUENTITY@@W4INT_TYPES@@@ZA[edx+eax*4]
  00146	ff d1		 call	 ecx
  00148	89 45 f8	 mov	 DWORD PTR _aggressor_side$[ebp], eax

; 535  : 
; 536  : 	if (victim_side == aggressor_side)
; 537  : 	{
; 538  : 		//
; 539  : 		// TARGETTING OWN SIDE
; 540  : 		//
; 541  : 	}
; 542  : 	else
; 543  : 	{
; 544  : 	}
; 545  : }

  0014b	5f		 pop	 edi
  0014c	5e		 pop	 esi
  0014d	5b		 pop	 ebx
  0014e	8b e5		 mov	 esp, ebp
  00150	5d		 pop	 ebp
  00151	c2 08 00	 ret	 8
?play_aircraft_targeted_speech@@YGXPAUENTITY@@0@Z ENDP	; play_aircraft_targeted_speech
_TEXT	ENDS
; Function compile flags: /Odtp /ZI
; File c:\users\nhv90\projects\eech\aphavoc\source\entity\mobile\aircraft\aircraft.c
;	COMDAT ?play_aircraft_destroyed_speech@@YGXPAUENTITY@@0@Z
_TEXT	SEGMENT
tv210 = -92						; size = 4
tv191 = -92						; size = 4
tv159 = -92						; size = 4
tv140 = -92						; size = 4
tv88 = -92						; size = 4
tv203 = -88						; size = 4
tv184 = -88						; size = 4
tv152 = -88						; size = 4
tv132 = -88						; size = 4
tv80 = -88						; size = 4
_speech_index$ = -20					; size = 4
_array_type$ = -16					; size = 4
_val$ = -12						; size = 4
_aggressor_side$ = -8					; size = 4
_victim_side$ = -4					; size = 4
_victim$ = 8						; size = 4
_aggressor$ = 12					; size = 4
?play_aircraft_destroyed_speech@@YGXPAUENTITY@@0@Z PROC	; play_aircraft_destroyed_speech, COMDAT

; 417  : {

  00000	55		 push	 ebp
  00001	8b ec		 mov	 ebp, esp
  00003	83 ec 5c	 sub	 esp, 92			; 0000005cH
  00006	53		 push	 ebx
  00007	56		 push	 esi
  00008	57		 push	 edi

; 418  : 	entity_sides
; 419  : 		victim_side,
; 420  : 		aggressor_side;
; 421  : 
; 422  : 	int
; 423  : 		val,
; 424  : 		array_type,
; 425  : 		speech_index;
; 426  : 
; 427  : 	ASSERT (victim);

  00009	83 7d 08 00	 cmp	 DWORD PTR _victim$[ebp], 0
  0000d	75 18		 jne	 SHORT $LN2@play_aircr
  0000f	a1 00 00 00 00	 mov	 eax, DWORD PTR ?__LINE__Var@?0??play_aircraft_destroyed_speech@@YGXPAUENTITY@@0@Z@4JA
  00014	83 c0 0a	 add	 eax, 10			; 0000000aH
  00017	50		 push	 eax
  00018	68 00 00 00 00	 push	 OFFSET ??_C@_0EO@EFCBEFCN@c?3?2users?2nhv90?2projects?2eech?2ap@
  0001d	68 00 00 00 00	 push	 OFFSET ??_C@_06GPEKEEBB@victim@
  00022	e8 00 00 00 00	 call	 ?process_assert@@YGXPBD0H@Z ; process_assert
$LN2@play_aircr:

; 428  : 
; 429  : 	ASSERT (aggressor);

  00027	83 7d 0c 00	 cmp	 DWORD PTR _aggressor$[ebp], 0
  0002b	75 18		 jne	 SHORT $LN3@play_aircr
  0002d	a1 00 00 00 00	 mov	 eax, DWORD PTR ?__LINE__Var@?0??play_aircraft_destroyed_speech@@YGXPAUENTITY@@0@Z@4JA
  00032	83 c0 0c	 add	 eax, 12			; 0000000cH
  00035	50		 push	 eax
  00036	68 00 00 00 00	 push	 OFFSET ??_C@_0EO@EFCBEFCN@c?3?2users?2nhv90?2projects?2eech?2ap@
  0003b	68 00 00 00 00	 push	 OFFSET ??_C@_09HKMIOAOH@aggressor@
  00040	e8 00 00 00 00	 call	 ?process_assert@@YGXPBD0H@Z ; process_assert
$LN3@play_aircr:

; 430  : 
; 431  : 	victim_side = (entity_sides) get_local_entity_int_value (victim, INT_TYPE_SIDE);

  00045	83 7d 08 00	 cmp	 DWORD PTR _victim$[ebp], 0
  00049	74 0a		 je	 SHORT $LN14@play_aircr
  0004b	8b 45 08	 mov	 eax, DWORD PTR _victim$[ebp]
  0004e	8b 08		 mov	 ecx, DWORD PTR [eax]
  00050	89 4d a8	 mov	 DWORD PTR tv80[ebp], ecx
  00053	eb 21		 jmp	 SHORT $LN15@play_aircr
$LN14@play_aircr:
  00055	8b 15 00 00 00
	00		 mov	 edx, DWORD PTR ?__LINE__Var@?0??play_aircraft_destroyed_speech@@YGXPAUENTITY@@0@Z@4JA
  0005b	83 c2 0e	 add	 edx, 14			; 0000000eH
  0005e	52		 push	 edx
  0005f	68 00 00 00 00	 push	 OFFSET ??_C@_0EO@EFCBEFCN@c?3?2users?2nhv90?2projects?2eech?2ap@
  00064	a1 00 00 00 00	 mov	 eax, DWORD PTR ?null_entity_pointer_message@@3PBDB ; null_entity_pointer_message
  00069	50		 push	 eax
  0006a	e8 00 00 00 00	 call	 ?process_assert@@YGXPBD0H@Z ; process_assert
  0006f	c7 45 a8 00 00
	00 00		 mov	 DWORD PTR tv80[ebp], 0
$LN15@play_aircr:
  00076	b9 01 00 00 00	 mov	 ecx, 1
  0007b	85 c9		 test	 ecx, ecx
  0007d	74 09		 je	 SHORT $LN16@play_aircr
  0007f	c7 45 a4 bb 00
	00 00		 mov	 DWORD PTR tv88[ebp], 187 ; 000000bbH
  00086	eb 21		 jmp	 SHORT $LN17@play_aircr
$LN16@play_aircr:
  00088	8b 15 00 00 00
	00		 mov	 edx, DWORD PTR ?__LINE__Var@?0??play_aircraft_destroyed_speech@@YGXPAUENTITY@@0@Z@4JA
  0008e	83 c2 0e	 add	 edx, 14			; 0000000eH
  00091	52		 push	 edx
  00092	68 00 00 00 00	 push	 OFFSET ??_C@_0EO@EFCBEFCN@c?3?2users?2nhv90?2projects?2eech?2ap@
  00097	a1 00 00 00 00	 mov	 eax, DWORD PTR ?overload_invalid_int_type_message@@3PBDB ; overload_invalid_int_type_message
  0009c	50		 push	 eax
  0009d	e8 00 00 00 00	 call	 ?process_assert@@YGXPBD0H@Z ; process_assert
  000a2	c7 45 a4 00 00
	00 00		 mov	 DWORD PTR tv88[ebp], 0
$LN17@play_aircr:
  000a9	68 bb 00 00 00	 push	 187			; 000000bbH
  000ae	8b 4d 08	 mov	 ecx, DWORD PTR _victim$[ebp]
  000b1	51		 push	 ecx
  000b2	69 55 a8 5c 04
	00 00		 imul	 edx, DWORD PTR tv80[ebp], 1116
  000b9	8b 45 a4	 mov	 eax, DWORD PTR tv88[ebp]
  000bc	8b 8c 82 00 00
	00 00		 mov	 ecx, DWORD PTR ?fn_get_local_entity_int_value@@3PAY0BBH@P6GHPAUENTITY@@W4INT_TYPES@@@ZA[edx+eax*4]
  000c3	ff d1		 call	 ecx
  000c5	89 45 fc	 mov	 DWORD PTR _victim_side$[ebp], eax

; 432  : 
; 433  : 	aggressor_side = (entity_sides) get_local_entity_int_value (aggressor, INT_TYPE_SIDE);

  000c8	83 7d 0c 00	 cmp	 DWORD PTR _aggressor$[ebp], 0
  000cc	74 0a		 je	 SHORT $LN18@play_aircr
  000ce	8b 45 0c	 mov	 eax, DWORD PTR _aggressor$[ebp]
  000d1	8b 08		 mov	 ecx, DWORD PTR [eax]
  000d3	89 4d a8	 mov	 DWORD PTR tv132[ebp], ecx
  000d6	eb 21		 jmp	 SHORT $LN19@play_aircr
$LN18@play_aircr:
  000d8	8b 15 00 00 00
	00		 mov	 edx, DWORD PTR ?__LINE__Var@?0??play_aircraft_destroyed_speech@@YGXPAUENTITY@@0@Z@4JA
  000de	83 c2 10	 add	 edx, 16			; 00000010H
  000e1	52		 push	 edx
  000e2	68 00 00 00 00	 push	 OFFSET ??_C@_0EO@EFCBEFCN@c?3?2users?2nhv90?2projects?2eech?2ap@
  000e7	a1 00 00 00 00	 mov	 eax, DWORD PTR ?null_entity_pointer_message@@3PBDB ; null_entity_pointer_message
  000ec	50		 push	 eax
  000ed	e8 00 00 00 00	 call	 ?process_assert@@YGXPBD0H@Z ; process_assert
  000f2	c7 45 a8 00 00
	00 00		 mov	 DWORD PTR tv132[ebp], 0
$LN19@play_aircr:
  000f9	b9 01 00 00 00	 mov	 ecx, 1
  000fe	85 c9		 test	 ecx, ecx
  00100	74 09		 je	 SHORT $LN20@play_aircr
  00102	c7 45 a4 bb 00
	00 00		 mov	 DWORD PTR tv140[ebp], 187 ; 000000bbH
  00109	eb 21		 jmp	 SHORT $LN21@play_aircr
$LN20@play_aircr:
  0010b	8b 15 00 00 00
	00		 mov	 edx, DWORD PTR ?__LINE__Var@?0??play_aircraft_destroyed_speech@@YGXPAUENTITY@@0@Z@4JA
  00111	83 c2 10	 add	 edx, 16			; 00000010H
  00114	52		 push	 edx
  00115	68 00 00 00 00	 push	 OFFSET ??_C@_0EO@EFCBEFCN@c?3?2users?2nhv90?2projects?2eech?2ap@
  0011a	a1 00 00 00 00	 mov	 eax, DWORD PTR ?overload_invalid_int_type_message@@3PBDB ; overload_invalid_int_type_message
  0011f	50		 push	 eax
  00120	e8 00 00 00 00	 call	 ?process_assert@@YGXPBD0H@Z ; process_assert
  00125	c7 45 a4 00 00
	00 00		 mov	 DWORD PTR tv140[ebp], 0
$LN21@play_aircr:
  0012c	68 bb 00 00 00	 push	 187			; 000000bbH
  00131	8b 4d 0c	 mov	 ecx, DWORD PTR _aggressor$[ebp]
  00134	51		 push	 ecx
  00135	69 55 a8 5c 04
	00 00		 imul	 edx, DWORD PTR tv132[ebp], 1116
  0013c	8b 45 a4	 mov	 eax, DWORD PTR tv140[ebp]
  0013f	8b 8c 82 00 00
	00 00		 mov	 ecx, DWORD PTR ?fn_get_local_entity_int_value@@3PAY0BBH@P6GHPAUENTITY@@W4INT_TYPES@@@ZA[edx+eax*4]
  00146	ff d1		 call	 ecx
  00148	89 45 f8	 mov	 DWORD PTR _aggressor_side$[ebp], eax

; 434  : 
; 435  : 	if (aggressor_side == victim_side)

  0014b	8b 45 f8	 mov	 eax, DWORD PTR _aggressor_side$[ebp]
  0014e	3b 45 fc	 cmp	 eax, DWORD PTR _victim_side$[ebp]
  00151	0f 85 fa 00 00
	00		 jne	 $LN4@play_aircr

; 436  : 	{
; 437  : 		//
; 438  : 		// FRIENDLY FIRE
; 439  : 		//
; 440  : 
; 441  : 		if (get_local_entity_int_value (aggressor, INT_TYPE_PLAYER) != ENTITY_PLAYER_AI)

  00157	83 7d 0c 00	 cmp	 DWORD PTR _aggressor$[ebp], 0
  0015b	74 0a		 je	 SHORT $LN22@play_aircr
  0015d	8b 45 0c	 mov	 eax, DWORD PTR _aggressor$[ebp]
  00160	8b 08		 mov	 ecx, DWORD PTR [eax]
  00162	89 4d a8	 mov	 DWORD PTR tv152[ebp], ecx
  00165	eb 1d		 jmp	 SHORT $LN23@play_aircr
$LN22@play_aircr:
  00167	68 b9 01 00 00	 push	 441			; 000001b9H
  0016c	68 00 00 00 00	 push	 OFFSET ??_C@_0EO@EFCBEFCN@c?3?2users?2nhv90?2projects?2eech?2ap@
  00171	8b 15 00 00 00
	00		 mov	 edx, DWORD PTR ?null_entity_pointer_message@@3PBDB ; null_entity_pointer_message
  00177	52		 push	 edx
  00178	e8 00 00 00 00	 call	 ?process_assert@@YGXPBD0H@Z ; process_assert
  0017d	c7 45 a8 00 00
	00 00		 mov	 DWORD PTR tv152[ebp], 0
$LN23@play_aircr:
  00184	b8 01 00 00 00	 mov	 eax, 1
  00189	85 c0		 test	 eax, eax
  0018b	74 09		 je	 SHORT $LN24@play_aircr
  0018d	c7 45 a4 9c 00
	00 00		 mov	 DWORD PTR tv159[ebp], 156 ; 0000009cH
  00194	eb 1d		 jmp	 SHORT $LN25@play_aircr
$LN24@play_aircr:
  00196	68 b9 01 00 00	 push	 441			; 000001b9H
  0019b	68 00 00 00 00	 push	 OFFSET ??_C@_0EO@EFCBEFCN@c?3?2users?2nhv90?2projects?2eech?2ap@
  001a0	8b 0d 00 00 00
	00		 mov	 ecx, DWORD PTR ?overload_invalid_int_type_message@@3PBDB ; overload_invalid_int_type_message
  001a6	51		 push	 ecx
  001a7	e8 00 00 00 00	 call	 ?process_assert@@YGXPBD0H@Z ; process_assert
  001ac	c7 45 a4 00 00
	00 00		 mov	 DWORD PTR tv159[ebp], 0
$LN25@play_aircr:
  001b3	68 9c 00 00 00	 push	 156			; 0000009cH
  001b8	8b 55 0c	 mov	 edx, DWORD PTR _aggressor$[ebp]
  001bb	52		 push	 edx
  001bc	69 45 a8 5c 04
	00 00		 imul	 eax, DWORD PTR tv152[ebp], 1116
  001c3	8b 4d a4	 mov	 ecx, DWORD PTR tv159[ebp]
  001c6	8b 94 88 00 00
	00 00		 mov	 edx, DWORD PTR ?fn_get_local_entity_int_value@@3PAY0BBH@P6GHPAUENTITY@@W4INT_TYPES@@@ZA[eax+ecx*4]
  001cd	ff d2		 call	 edx
  001cf	85 c0		 test	 eax, eax
  001d1	74 79		 je	 SHORT $LN7@play_aircr

; 442  : 		{
; 443  : 			if (aggressor != victim)

  001d3	8b 45 0c	 mov	 eax, DWORD PTR _aggressor$[ebp]
  001d6	3b 45 08	 cmp	 eax, DWORD PTR _victim$[ebp]
  001d9	74 71		 je	 SHORT $LN7@play_aircr

; 444  : 			{
; 445  : 				// PLAY_SPEECH (CPG)
; 446  : 				//
; 447  : 				// (Hold your fire, we're hitting friendlies) | (Cease fire, we're hitting our own guys)
; 448  : 	
; 449  : 				if (rand16 () & 1)

  001db	69 05 00 00 00
	00 6d 4e c6 41	 imul	 eax, DWORD PTR ?random_number_seed@@3HA, 1103515245 ; random_number_seed
  001e5	05 39 30 00 00	 add	 eax, 12345		; 00003039H
  001ea	a3 00 00 00 00	 mov	 DWORD PTR ?random_number_seed@@3HA, eax ; random_number_seed
  001ef	8b 0d 00 00 00
	00		 mov	 ecx, DWORD PTR ?random_number_seed@@3HA ; random_number_seed
  001f5	c1 f9 10	 sar	 ecx, 16			; 00000010H
  001f8	81 e1 ff 7f 00
	00		 and	 ecx, 32767		; 00007fffH
  001fe	83 e1 01	 and	 ecx, 1
  00201	74 09		 je	 SHORT $LN8@play_aircr

; 450  : 				{
; 451  : 					speech_index = SPEECH_CPG_FRIENDLY_FIRE1;

  00203	c7 45 ec 5c 00
	00 00		 mov	 DWORD PTR _speech_index$[ebp], 92 ; 0000005cH

; 452  : 				}
; 453  : 				else

  0020a	eb 07		 jmp	 SHORT $LN9@play_aircr
$LN8@play_aircr:

; 454  : 				{
; 455  : 					speech_index = SPEECH_CPG_FRIENDLY_FIRE2;

  0020c	c7 45 ec 5d 00
	00 00		 mov	 DWORD PTR _speech_index$[ebp], 93 ; 0000005dH
$LN9@play_aircr:

; 456  : 				}
; 457  : 	
; 458  : 				play_client_server_cpg_message

  00213	8b 45 ec	 mov	 eax, DWORD PTR _speech_index$[ebp]
  00216	50		 push	 eax
  00217	51		 push	 ecx
  00218	f3 0f 10 05 00
	00 00 00	 movss	 xmm0, DWORD PTR __real@41000000
  00220	f3 0f 11 04 24	 movss	 DWORD PTR [esp], xmm0
  00225	6a 02		 push	 2
  00227	51		 push	 ecx
  00228	f3 0f 10 05 00
	00 00 00	 movss	 xmm0, DWORD PTR __real@40400000
  00230	f3 0f 11 04 24	 movss	 DWORD PTR [esp], xmm0
  00235	51		 push	 ecx
  00236	f3 0f 10 05 00
	00 00 00	 movss	 xmm0, DWORD PTR __real@3f800000
  0023e	f3 0f 11 04 24	 movss	 DWORD PTR [esp], xmm0
  00243	8b 4d 0c	 mov	 ecx, DWORD PTR _aggressor$[ebp]
  00246	51		 push	 ecx
  00247	e8 00 00 00 00	 call	 ?play_client_server_cpg_message@@YGHPAUENTITY@@MMHMH@Z ; play_client_server_cpg_message
$LN7@play_aircr:

; 459  : 				(
; 460  : 					aggressor,
; 461  : 					1.0,
; 462  : 					3.0,
; 463  : 					SPEECH_CATEGORY_ATTACKING_TARGETS,
; 464  : 					8.0,
; 465  : 					speech_index
; 466  : 				);
; 467  : 			}
; 468  : 		}
; 469  : 	}
; 470  : 	else

  0024c	e9 b0 01 00 00	 jmp	 $LN12@play_aircr
$LN4@play_aircr:

; 471  : 	{
; 472  : 		if (get_local_entity_int_value (aggressor, INT_TYPE_IDENTIFY_AIRCRAFT))

  00251	83 7d 0c 00	 cmp	 DWORD PTR _aggressor$[ebp], 0
  00255	74 0a		 je	 SHORT $LN26@play_aircr
  00257	8b 45 0c	 mov	 eax, DWORD PTR _aggressor$[ebp]
  0025a	8b 08		 mov	 ecx, DWORD PTR [eax]
  0025c	89 4d a8	 mov	 DWORD PTR tv184[ebp], ecx
  0025f	eb 1d		 jmp	 SHORT $LN27@play_aircr
$LN26@play_aircr:
  00261	68 d8 01 00 00	 push	 472			; 000001d8H
  00266	68 00 00 00 00	 push	 OFFSET ??_C@_0EO@EFCBEFCN@c?3?2users?2nhv90?2projects?2eech?2ap@
  0026b	8b 15 00 00 00
	00		 mov	 edx, DWORD PTR ?null_entity_pointer_message@@3PBDB ; null_entity_pointer_message
  00271	52		 push	 edx
  00272	e8 00 00 00 00	 call	 ?process_assert@@YGXPBD0H@Z ; process_assert
  00277	c7 45 a8 00 00
	00 00		 mov	 DWORD PTR tv184[ebp], 0
$LN27@play_aircr:
  0027e	b8 01 00 00 00	 mov	 eax, 1
  00283	85 c0		 test	 eax, eax
  00285	74 09		 je	 SHORT $LN28@play_aircr
  00287	c7 45 a4 57 00
	00 00		 mov	 DWORD PTR tv191[ebp], 87 ; 00000057H
  0028e	eb 1d		 jmp	 SHORT $LN29@play_aircr
$LN28@play_aircr:
  00290	68 d8 01 00 00	 push	 472			; 000001d8H
  00295	68 00 00 00 00	 push	 OFFSET ??_C@_0EO@EFCBEFCN@c?3?2users?2nhv90?2projects?2eech?2ap@
  0029a	8b 0d 00 00 00
	00		 mov	 ecx, DWORD PTR ?overload_invalid_int_type_message@@3PBDB ; overload_invalid_int_type_message
  002a0	51		 push	 ecx
  002a1	e8 00 00 00 00	 call	 ?process_assert@@YGXPBD0H@Z ; process_assert
  002a6	c7 45 a4 00 00
	00 00		 mov	 DWORD PTR tv191[ebp], 0
$LN29@play_aircr:
  002ad	6a 57		 push	 87			; 00000057H
  002af	8b 55 0c	 mov	 edx, DWORD PTR _aggressor$[ebp]
  002b2	52		 push	 edx
  002b3	69 45 a8 5c 04
	00 00		 imul	 eax, DWORD PTR tv184[ebp], 1116
  002ba	8b 4d a4	 mov	 ecx, DWORD PTR tv191[ebp]
  002bd	8b 94 88 00 00
	00 00		 mov	 edx, DWORD PTR ?fn_get_local_entity_int_value@@3PAY0BBH@P6GHPAUENTITY@@W4INT_TYPES@@@ZA[eax+ecx*4]
  002c4	ff d2		 call	 edx
  002c6	85 c0		 test	 eax, eax
  002c8	0f 84 33 01 00
	00		 je	 $LN12@play_aircr

; 473  : 		{
; 474  : 			if (get_local_entity_int_value (aggressor, INT_TYPE_PLAYER) != ENTITY_PLAYER_AI)

  002ce	83 7d 0c 00	 cmp	 DWORD PTR _aggressor$[ebp], 0
  002d2	74 0a		 je	 SHORT $LN30@play_aircr
  002d4	8b 45 0c	 mov	 eax, DWORD PTR _aggressor$[ebp]
  002d7	8b 08		 mov	 ecx, DWORD PTR [eax]
  002d9	89 4d a8	 mov	 DWORD PTR tv203[ebp], ecx
  002dc	eb 1d		 jmp	 SHORT $LN31@play_aircr
$LN30@play_aircr:
  002de	68 da 01 00 00	 push	 474			; 000001daH
  002e3	68 00 00 00 00	 push	 OFFSET ??_C@_0EO@EFCBEFCN@c?3?2users?2nhv90?2projects?2eech?2ap@
  002e8	8b 15 00 00 00
	00		 mov	 edx, DWORD PTR ?null_entity_pointer_message@@3PBDB ; null_entity_pointer_message
  002ee	52		 push	 edx
  002ef	e8 00 00 00 00	 call	 ?process_assert@@YGXPBD0H@Z ; process_assert
  002f4	c7 45 a8 00 00
	00 00		 mov	 DWORD PTR tv203[ebp], 0
$LN31@play_aircr:
  002fb	b8 01 00 00 00	 mov	 eax, 1
  00300	85 c0		 test	 eax, eax
  00302	74 09		 je	 SHORT $LN32@play_aircr
  00304	c7 45 a4 9c 00
	00 00		 mov	 DWORD PTR tv210[ebp], 156 ; 0000009cH
  0030b	eb 1d		 jmp	 SHORT $LN33@play_aircr
$LN32@play_aircr:
  0030d	68 da 01 00 00	 push	 474			; 000001daH
  00312	68 00 00 00 00	 push	 OFFSET ??_C@_0EO@EFCBEFCN@c?3?2users?2nhv90?2projects?2eech?2ap@
  00317	8b 0d 00 00 00
	00		 mov	 ecx, DWORD PTR ?overload_invalid_int_type_message@@3PBDB ; overload_invalid_int_type_message
  0031d	51		 push	 ecx
  0031e	e8 00 00 00 00	 call	 ?process_assert@@YGXPBD0H@Z ; process_assert
  00323	c7 45 a4 00 00
	00 00		 mov	 DWORD PTR tv210[ebp], 0
$LN33@play_aircr:
  0032a	68 9c 00 00 00	 push	 156			; 0000009cH
  0032f	8b 55 0c	 mov	 edx, DWORD PTR _aggressor$[ebp]
  00332	52		 push	 edx
  00333	69 45 a8 5c 04
	00 00		 imul	 eax, DWORD PTR tv203[ebp], 1116
  0033a	8b 4d a4	 mov	 ecx, DWORD PTR tv210[ebp]
  0033d	8b 94 88 00 00
	00 00		 mov	 edx, DWORD PTR ?fn_get_local_entity_int_value@@3PAY0BBH@P6GHPAUENTITY@@W4INT_TYPES@@@ZA[eax+ecx*4]
  00344	ff d2		 call	 edx
  00346	85 c0		 test	 eax, eax
  00348	74 7c		 je	 SHORT $LN11@play_aircr

; 475  : 			{
; 476  : 				// PLAY_SPEECH (CPG)
; 477  : 				//
; 478  : 				// (Target down) | (Enemy aircraft shot down) | etc
; 479  : 	
; 480  : 				val = get_speech_random_value

  0034a	8b 45 f8	 mov	 eax, DWORD PTR _aggressor_side$[ebp]
  0034d	8b 0c 85 00 00
	00 00		 mov	 ecx, DWORD PTR ?last_ac_destroyed_cpg_comment@@3PAHA[eax*4]
  00354	51		 push	 ecx
  00355	8b 55 f8	 mov	 edx, DWORD PTR _aggressor_side$[ebp]
  00358	8b 04 95 00 00
	00 00		 mov	 eax, DWORD PTR ?num_ac_destroyed_cpg_comments@@3PAHA[edx*4]
  0035f	50		 push	 eax
  00360	68 00 00 00 00	 push	 OFFSET ?aircraft_destroyed_cpg_comments@@3PAUSPEECH_INSTANCE_TYPE@@A
  00365	e8 00 00 00 00	 call	 ?get_speech_random_value@@YGHPAUSPEECH_INSTANCE_TYPE@@HH@Z ; get_speech_random_value
  0036a	89 45 f4	 mov	 DWORD PTR _val$[ebp], eax

; 481  : 						(
; 482  : 							aircraft_destroyed_cpg_comments,
; 483  : 							num_ac_destroyed_cpg_comments [aggressor_side],
; 484  : 							last_ac_destroyed_cpg_comment [aggressor_side]
; 485  : 						);
; 486  : 
; 487  : 				array_type = aircraft_destroyed_cpg_comments [val].array_type;

  0036d	8b 45 f4	 mov	 eax, DWORD PTR _val$[ebp]
  00370	c1 e0 04	 shl	 eax, 4
  00373	8b 88 04 00 00
	00		 mov	 ecx, DWORD PTR ?aircraft_destroyed_cpg_comments@@3PAUSPEECH_INSTANCE_TYPE@@A[eax+4]
  00379	89 4d f0	 mov	 DWORD PTR _array_type$[ebp], ecx

; 488  : 				speech_index = aircraft_destroyed_cpg_comments [val].speech_index;

  0037c	8b 45 f4	 mov	 eax, DWORD PTR _val$[ebp]
  0037f	c1 e0 04	 shl	 eax, 4
  00382	8b 88 00 00 00
	00		 mov	 ecx, DWORD PTR ?aircraft_destroyed_cpg_comments@@3PAUSPEECH_INSTANCE_TYPE@@A[eax]
  00388	89 4d ec	 mov	 DWORD PTR _speech_index$[ebp], ecx

; 489  : 
; 490  : 				play_client_server_cpg_message

  0038b	8b 45 ec	 mov	 eax, DWORD PTR _speech_index$[ebp]
  0038e	50		 push	 eax
  0038f	51		 push	 ecx
  00390	f3 0f 10 05 00
	00 00 00	 movss	 xmm0, DWORD PTR __real@41000000
  00398	f3 0f 11 04 24	 movss	 DWORD PTR [esp], xmm0
  0039d	6a 06		 push	 6
  0039f	51		 push	 ecx
  003a0	f3 0f 10 05 00
	00 00 00	 movss	 xmm0, DWORD PTR __real@40a00000
  003a8	f3 0f 11 04 24	 movss	 DWORD PTR [esp], xmm0
  003ad	51		 push	 ecx
  003ae	f3 0f 10 05 00
	00 00 00	 movss	 xmm0, DWORD PTR __real@3f19999a
  003b6	f3 0f 11 04 24	 movss	 DWORD PTR [esp], xmm0
  003bb	8b 4d 0c	 mov	 ecx, DWORD PTR _aggressor$[ebp]
  003be	51		 push	 ecx
  003bf	e8 00 00 00 00	 call	 ?play_client_server_cpg_message@@YGHPAUENTITY@@MMHMH@Z ; play_client_server_cpg_message

; 491  : 				(
; 492  : 					aggressor,
; 493  : 					0.6,
; 494  : 					5.0,
; 495  : 					SPEECH_CATEGORY_DESTROYED_TARGETS, 8.0,
; 496  : 					speech_index
; 497  : 				);
; 498  : 			}
; 499  : 			else

  003c4	eb 3b		 jmp	 SHORT $LN12@play_aircr
$LN11@play_aircr:

; 500  : 			{
; 501  : 				// PLAY_SPEECH (WINGMAN)
; 502  : 				//
; 503  : 	
; 504  : 				play_client_server_wingman_message

  003c6	6a 13		 push	 19			; 00000013H
  003c8	6a 07		 push	 7
  003ca	6a 01		 push	 1
  003cc	51		 push	 ecx
  003cd	f3 0f 10 05 00
	00 00 00	 movss	 xmm0, DWORD PTR __real@41000000
  003d5	f3 0f 11 04 24	 movss	 DWORD PTR [esp], xmm0
  003da	6a 06		 push	 6
  003dc	51		 push	 ecx
  003dd	f3 0f 10 05 00
	00 00 00	 movss	 xmm0, DWORD PTR __real@40a00000
  003e5	f3 0f 11 04 24	 movss	 DWORD PTR [esp], xmm0
  003ea	51		 push	 ecx
  003eb	f3 0f 10 05 00
	00 00 00	 movss	 xmm0, DWORD PTR __real@3f19999a
  003f3	f3 0f 11 04 24	 movss	 DWORD PTR [esp], xmm0
  003f8	8b 45 0c	 mov	 eax, DWORD PTR _aggressor$[ebp]
  003fb	50		 push	 eax
  003fc	e8 00 00 00 00	 call	 ?play_client_server_wingman_message@@YGHPAUENTITY@@MMW4speech_category_types@@MW4speech_intro_types@@W4speech_array_types@@H@Z ; play_client_server_wingman_message
$LN12@play_aircr:

; 505  : 				(
; 506  : 					aggressor,
; 507  : 					0.6,
; 508  : 					5.0,
; 509  : 					SPEECH_CATEGORY_DESTROYED_TARGETS, 8.0,
; 510  : 					SPEECH_INTRODUCTION_SOMETIMES,
; 511  : 					SPEECH_ARRAY_WINGMAN_MESSAGES, SPEECH_WINGMAN_TARGET_DESTROYED
; 512  : 				);
; 513  : 			}
; 514  : 		}
; 515  : 	}
; 516  : }

  00401	5f		 pop	 edi
  00402	5e		 pop	 esi
  00403	5b		 pop	 ebx
  00404	8b e5		 mov	 esp, ebp
  00406	5d		 pop	 ebp
  00407	c2 08 00	 ret	 8
?play_aircraft_destroyed_speech@@YGXPAUENTITY@@0@Z ENDP	; play_aircraft_destroyed_speech
_TEXT	ENDS
; Function compile flags: /Odtp /ZI
; File c:\users\nhv90\projects\eech\aphavoc\source\entity\mobile\aircraft\aircraft.c
;	COMDAT ?play_aircraft_shot_at_speech@@YGXPAUENTITY@@0@Z
_TEXT	SEGMENT
tv286 = -96						; size = 4
tv267 = -96						; size = 4
tv223 = -96						; size = 4
tv194 = -96						; size = 4
tv159 = -96						; size = 4
tv140 = -96						; size = 4
tv88 = -96						; size = 4
tv279 = -92						; size = 4
tv260 = -92						; size = 4
tv216 = -92						; size = 4
tv187 = -92						; size = 4
tv152 = -92						; size = 4
tv132 = -92						; size = 4
tv80 = -92						; size = 4
_last_index$ = -24					; size = 4
_speech_index$ = -20					; size = 4
_array_type$ = -16					; size = 4
_val$ = -12						; size = 4
_aggressor_side$ = -8					; size = 4
_victim_side$ = -4					; size = 4
_victim$ = 8						; size = 4
_aggressor$ = 12					; size = 4
?play_aircraft_shot_at_speech@@YGXPAUENTITY@@0@Z PROC	; play_aircraft_shot_at_speech, COMDAT

; 178  : {

  00000	55		 push	 ebp
  00001	8b ec		 mov	 ebp, esp
  00003	83 ec 60	 sub	 esp, 96			; 00000060H
  00006	53		 push	 ebx
  00007	56		 push	 esi
  00008	57		 push	 edi

; 179  : 	entity_sides
; 180  : 		victim_side,
; 181  : 		aggressor_side;
; 182  : 
; 183  : 	int
; 184  : 		val,
; 185  : 		array_type,
; 186  : 		speech_index,
; 187  : 		*last_index;
; 188  : 
; 189  : 	ASSERT (victim);

  00009	83 7d 08 00	 cmp	 DWORD PTR _victim$[ebp], 0
  0000d	75 18		 jne	 SHORT $LN2@play_aircr
  0000f	a1 00 00 00 00	 mov	 eax, DWORD PTR ?__LINE__Var@?0??play_aircraft_shot_at_speech@@YGXPAUENTITY@@0@Z@4JA
  00014	83 c0 0b	 add	 eax, 11			; 0000000bH
  00017	50		 push	 eax
  00018	68 00 00 00 00	 push	 OFFSET ??_C@_0EO@EFCBEFCN@c?3?2users?2nhv90?2projects?2eech?2ap@
  0001d	68 00 00 00 00	 push	 OFFSET ??_C@_06GPEKEEBB@victim@
  00022	e8 00 00 00 00	 call	 ?process_assert@@YGXPBD0H@Z ; process_assert
$LN2@play_aircr:

; 190  : 
; 191  : 	ASSERT (aggressor);

  00027	83 7d 0c 00	 cmp	 DWORD PTR _aggressor$[ebp], 0
  0002b	75 18		 jne	 SHORT $LN3@play_aircr
  0002d	a1 00 00 00 00	 mov	 eax, DWORD PTR ?__LINE__Var@?0??play_aircraft_shot_at_speech@@YGXPAUENTITY@@0@Z@4JA
  00032	83 c0 0d	 add	 eax, 13			; 0000000dH
  00035	50		 push	 eax
  00036	68 00 00 00 00	 push	 OFFSET ??_C@_0EO@EFCBEFCN@c?3?2users?2nhv90?2projects?2eech?2ap@
  0003b	68 00 00 00 00	 push	 OFFSET ??_C@_09HKMIOAOH@aggressor@
  00040	e8 00 00 00 00	 call	 ?process_assert@@YGXPBD0H@Z ; process_assert
$LN3@play_aircr:

; 192  : 
; 193  : 	victim_side = (entity_sides) get_local_entity_int_value (victim, INT_TYPE_SIDE);

  00045	83 7d 08 00	 cmp	 DWORD PTR _victim$[ebp], 0
  00049	74 0a		 je	 SHORT $LN20@play_aircr
  0004b	8b 45 08	 mov	 eax, DWORD PTR _victim$[ebp]
  0004e	8b 08		 mov	 ecx, DWORD PTR [eax]
  00050	89 4d a4	 mov	 DWORD PTR tv80[ebp], ecx
  00053	eb 21		 jmp	 SHORT $LN21@play_aircr
$LN20@play_aircr:
  00055	8b 15 00 00 00
	00		 mov	 edx, DWORD PTR ?__LINE__Var@?0??play_aircraft_shot_at_speech@@YGXPAUENTITY@@0@Z@4JA
  0005b	83 c2 0f	 add	 edx, 15			; 0000000fH
  0005e	52		 push	 edx
  0005f	68 00 00 00 00	 push	 OFFSET ??_C@_0EO@EFCBEFCN@c?3?2users?2nhv90?2projects?2eech?2ap@
  00064	a1 00 00 00 00	 mov	 eax, DWORD PTR ?null_entity_pointer_message@@3PBDB ; null_entity_pointer_message
  00069	50		 push	 eax
  0006a	e8 00 00 00 00	 call	 ?process_assert@@YGXPBD0H@Z ; process_assert
  0006f	c7 45 a4 00 00
	00 00		 mov	 DWORD PTR tv80[ebp], 0
$LN21@play_aircr:
  00076	b9 01 00 00 00	 mov	 ecx, 1
  0007b	85 c9		 test	 ecx, ecx
  0007d	74 09		 je	 SHORT $LN22@play_aircr
  0007f	c7 45 a0 bb 00
	00 00		 mov	 DWORD PTR tv88[ebp], 187 ; 000000bbH
  00086	eb 21		 jmp	 SHORT $LN23@play_aircr
$LN22@play_aircr:
  00088	8b 15 00 00 00
	00		 mov	 edx, DWORD PTR ?__LINE__Var@?0??play_aircraft_shot_at_speech@@YGXPAUENTITY@@0@Z@4JA
  0008e	83 c2 0f	 add	 edx, 15			; 0000000fH
  00091	52		 push	 edx
  00092	68 00 00 00 00	 push	 OFFSET ??_C@_0EO@EFCBEFCN@c?3?2users?2nhv90?2projects?2eech?2ap@
  00097	a1 00 00 00 00	 mov	 eax, DWORD PTR ?overload_invalid_int_type_message@@3PBDB ; overload_invalid_int_type_message
  0009c	50		 push	 eax
  0009d	e8 00 00 00 00	 call	 ?process_assert@@YGXPBD0H@Z ; process_assert
  000a2	c7 45 a0 00 00
	00 00		 mov	 DWORD PTR tv88[ebp], 0
$LN23@play_aircr:
  000a9	68 bb 00 00 00	 push	 187			; 000000bbH
  000ae	8b 4d 08	 mov	 ecx, DWORD PTR _victim$[ebp]
  000b1	51		 push	 ecx
  000b2	69 55 a4 5c 04
	00 00		 imul	 edx, DWORD PTR tv80[ebp], 1116
  000b9	8b 45 a0	 mov	 eax, DWORD PTR tv88[ebp]
  000bc	8b 8c 82 00 00
	00 00		 mov	 ecx, DWORD PTR ?fn_get_local_entity_int_value@@3PAY0BBH@P6GHPAUENTITY@@W4INT_TYPES@@@ZA[edx+eax*4]
  000c3	ff d1		 call	 ecx
  000c5	89 45 fc	 mov	 DWORD PTR _victim_side$[ebp], eax

; 194  : 
; 195  : 	aggressor_side = (entity_sides) get_local_entity_int_value (aggressor, INT_TYPE_SIDE);

  000c8	83 7d 0c 00	 cmp	 DWORD PTR _aggressor$[ebp], 0
  000cc	74 0a		 je	 SHORT $LN24@play_aircr
  000ce	8b 45 0c	 mov	 eax, DWORD PTR _aggressor$[ebp]
  000d1	8b 08		 mov	 ecx, DWORD PTR [eax]
  000d3	89 4d a4	 mov	 DWORD PTR tv132[ebp], ecx
  000d6	eb 21		 jmp	 SHORT $LN25@play_aircr
$LN24@play_aircr:
  000d8	8b 15 00 00 00
	00		 mov	 edx, DWORD PTR ?__LINE__Var@?0??play_aircraft_shot_at_speech@@YGXPAUENTITY@@0@Z@4JA
  000de	83 c2 11	 add	 edx, 17			; 00000011H
  000e1	52		 push	 edx
  000e2	68 00 00 00 00	 push	 OFFSET ??_C@_0EO@EFCBEFCN@c?3?2users?2nhv90?2projects?2eech?2ap@
  000e7	a1 00 00 00 00	 mov	 eax, DWORD PTR ?null_entity_pointer_message@@3PBDB ; null_entity_pointer_message
  000ec	50		 push	 eax
  000ed	e8 00 00 00 00	 call	 ?process_assert@@YGXPBD0H@Z ; process_assert
  000f2	c7 45 a4 00 00
	00 00		 mov	 DWORD PTR tv132[ebp], 0
$LN25@play_aircr:
  000f9	b9 01 00 00 00	 mov	 ecx, 1
  000fe	85 c9		 test	 ecx, ecx
  00100	74 09		 je	 SHORT $LN26@play_aircr
  00102	c7 45 a0 bb 00
	00 00		 mov	 DWORD PTR tv140[ebp], 187 ; 000000bbH
  00109	eb 21		 jmp	 SHORT $LN27@play_aircr
$LN26@play_aircr:
  0010b	8b 15 00 00 00
	00		 mov	 edx, DWORD PTR ?__LINE__Var@?0??play_aircraft_shot_at_speech@@YGXPAUENTITY@@0@Z@4JA
  00111	83 c2 11	 add	 edx, 17			; 00000011H
  00114	52		 push	 edx
  00115	68 00 00 00 00	 push	 OFFSET ??_C@_0EO@EFCBEFCN@c?3?2users?2nhv90?2projects?2eech?2ap@
  0011a	a1 00 00 00 00	 mov	 eax, DWORD PTR ?overload_invalid_int_type_message@@3PBDB ; overload_invalid_int_type_message
  0011f	50		 push	 eax
  00120	e8 00 00 00 00	 call	 ?process_assert@@YGXPBD0H@Z ; process_assert
  00125	c7 45 a0 00 00
	00 00		 mov	 DWORD PTR tv140[ebp], 0
$LN27@play_aircr:
  0012c	68 bb 00 00 00	 push	 187			; 000000bbH
  00131	8b 4d 0c	 mov	 ecx, DWORD PTR _aggressor$[ebp]
  00134	51		 push	 ecx
  00135	69 55 a4 5c 04
	00 00		 imul	 edx, DWORD PTR tv132[ebp], 1116
  0013c	8b 45 a0	 mov	 eax, DWORD PTR tv140[ebp]
  0013f	8b 8c 82 00 00
	00 00		 mov	 ecx, DWORD PTR ?fn_get_local_entity_int_value@@3PAY0BBH@P6GHPAUENTITY@@W4INT_TYPES@@@ZA[edx+eax*4]
  00146	ff d1		 call	 ecx
  00148	89 45 f8	 mov	 DWORD PTR _aggressor_side$[ebp], eax

; 196  : 
; 197  : 	last_index = NULL;

  0014b	c7 45 e8 00 00
	00 00		 mov	 DWORD PTR _last_index$[ebp], 0

; 198  : 
; 199  : 	if (aggressor_side == victim_side)

  00152	8b 45 f8	 mov	 eax, DWORD PTR _aggressor_side$[ebp]
  00155	3b 45 fc	 cmp	 eax, DWORD PTR _victim_side$[ebp]
  00158	0f 85 fa 00 00
	00		 jne	 $LN4@play_aircr

; 200  : 	{
; 201  : 		//
; 202  : 		// FRIENDLY FIRE
; 203  : 		//
; 204  : 
; 205  : 		////////////////////////////////////
; 206  : 		//
; 207  : 		// victims speech
; 208  : 		//
; 209  : 		////////////////////////////////////
; 210  : 		
; 211  : 		////////////////////////////////////
; 212  : 		//
; 213  : 		// Aggressors speech
; 214  : 		//
; 215  : 		////////////////////////////////////
; 216  : 
; 217  : 		if (get_local_entity_int_value (aggressor, INT_TYPE_PLAYER) != ENTITY_PLAYER_AI)

  0015e	83 7d 0c 00	 cmp	 DWORD PTR _aggressor$[ebp], 0
  00162	74 0a		 je	 SHORT $LN28@play_aircr
  00164	8b 45 0c	 mov	 eax, DWORD PTR _aggressor$[ebp]
  00167	8b 08		 mov	 ecx, DWORD PTR [eax]
  00169	89 4d a4	 mov	 DWORD PTR tv152[ebp], ecx
  0016c	eb 1d		 jmp	 SHORT $LN29@play_aircr
$LN28@play_aircr:
  0016e	68 d9 00 00 00	 push	 217			; 000000d9H
  00173	68 00 00 00 00	 push	 OFFSET ??_C@_0EO@EFCBEFCN@c?3?2users?2nhv90?2projects?2eech?2ap@
  00178	8b 15 00 00 00
	00		 mov	 edx, DWORD PTR ?null_entity_pointer_message@@3PBDB ; null_entity_pointer_message
  0017e	52		 push	 edx
  0017f	e8 00 00 00 00	 call	 ?process_assert@@YGXPBD0H@Z ; process_assert
  00184	c7 45 a4 00 00
	00 00		 mov	 DWORD PTR tv152[ebp], 0
$LN29@play_aircr:
  0018b	b8 01 00 00 00	 mov	 eax, 1
  00190	85 c0		 test	 eax, eax
  00192	74 09		 je	 SHORT $LN30@play_aircr
  00194	c7 45 a0 9c 00
	00 00		 mov	 DWORD PTR tv159[ebp], 156 ; 0000009cH
  0019b	eb 1d		 jmp	 SHORT $LN31@play_aircr
$LN30@play_aircr:
  0019d	68 d9 00 00 00	 push	 217			; 000000d9H
  001a2	68 00 00 00 00	 push	 OFFSET ??_C@_0EO@EFCBEFCN@c?3?2users?2nhv90?2projects?2eech?2ap@
  001a7	8b 0d 00 00 00
	00		 mov	 ecx, DWORD PTR ?overload_invalid_int_type_message@@3PBDB ; overload_invalid_int_type_message
  001ad	51		 push	 ecx
  001ae	e8 00 00 00 00	 call	 ?process_assert@@YGXPBD0H@Z ; process_assert
  001b3	c7 45 a0 00 00
	00 00		 mov	 DWORD PTR tv159[ebp], 0
$LN31@play_aircr:
  001ba	68 9c 00 00 00	 push	 156			; 0000009cH
  001bf	8b 55 0c	 mov	 edx, DWORD PTR _aggressor$[ebp]
  001c2	52		 push	 edx
  001c3	69 45 a4 5c 04
	00 00		 imul	 eax, DWORD PTR tv152[ebp], 1116
  001ca	8b 4d a0	 mov	 ecx, DWORD PTR tv159[ebp]
  001cd	8b 94 88 00 00
	00 00		 mov	 edx, DWORD PTR ?fn_get_local_entity_int_value@@3PAY0BBH@P6GHPAUENTITY@@W4INT_TYPES@@@ZA[eax+ecx*4]
  001d4	ff d2		 call	 edx
  001d6	85 c0		 test	 eax, eax
  001d8	74 79		 je	 SHORT $LN7@play_aircr

; 218  : 		{
; 219  : 			if (aggressor != victim)

  001da	8b 45 0c	 mov	 eax, DWORD PTR _aggressor$[ebp]
  001dd	3b 45 08	 cmp	 eax, DWORD PTR _victim$[ebp]
  001e0	74 71		 je	 SHORT $LN7@play_aircr

; 220  : 			{
; 221  : 				// PLAY_SPEECH (CPG)
; 222  : 				//
; 223  : 				// (Hold your fire, we're hitting friendlies) | (Cease fire, we're hitting our own guys)
; 224  : 	
; 225  : 				if (rand16 () & 1)

  001e2	69 05 00 00 00
	00 6d 4e c6 41	 imul	 eax, DWORD PTR ?random_number_seed@@3HA, 1103515245 ; random_number_seed
  001ec	05 39 30 00 00	 add	 eax, 12345		; 00003039H
  001f1	a3 00 00 00 00	 mov	 DWORD PTR ?random_number_seed@@3HA, eax ; random_number_seed
  001f6	8b 0d 00 00 00
	00		 mov	 ecx, DWORD PTR ?random_number_seed@@3HA ; random_number_seed
  001fc	c1 f9 10	 sar	 ecx, 16			; 00000010H
  001ff	81 e1 ff 7f 00
	00		 and	 ecx, 32767		; 00007fffH
  00205	83 e1 01	 and	 ecx, 1
  00208	74 09		 je	 SHORT $LN8@play_aircr

; 226  : 				{
; 227  : 					speech_index = SPEECH_CPG_FRIENDLY_FIRE1;

  0020a	c7 45 ec 5c 00
	00 00		 mov	 DWORD PTR _speech_index$[ebp], 92 ; 0000005cH

; 228  : 				}
; 229  : 				else

  00211	eb 07		 jmp	 SHORT $LN9@play_aircr
$LN8@play_aircr:

; 230  : 				{
; 231  : 					speech_index = SPEECH_CPG_FRIENDLY_FIRE2;

  00213	c7 45 ec 5d 00
	00 00		 mov	 DWORD PTR _speech_index$[ebp], 93 ; 0000005dH
$LN9@play_aircr:

; 232  : 				}
; 233  : 	
; 234  : 				play_client_server_cpg_message

  0021a	8b 45 ec	 mov	 eax, DWORD PTR _speech_index$[ebp]
  0021d	50		 push	 eax
  0021e	51		 push	 ecx
  0021f	f3 0f 10 05 00
	00 00 00	 movss	 xmm0, DWORD PTR __real@41000000
  00227	f3 0f 11 04 24	 movss	 DWORD PTR [esp], xmm0
  0022c	6a 02		 push	 2
  0022e	51		 push	 ecx
  0022f	f3 0f 10 05 00
	00 00 00	 movss	 xmm0, DWORD PTR __real@40400000
  00237	f3 0f 11 04 24	 movss	 DWORD PTR [esp], xmm0
  0023c	51		 push	 ecx
  0023d	f3 0f 10 05 00
	00 00 00	 movss	 xmm0, DWORD PTR __real@3f800000
  00245	f3 0f 11 04 24	 movss	 DWORD PTR [esp], xmm0
  0024a	8b 4d 0c	 mov	 ecx, DWORD PTR _aggressor$[ebp]
  0024d	51		 push	 ecx
  0024e	e8 00 00 00 00	 call	 ?play_client_server_cpg_message@@YGHPAUENTITY@@MMHMH@Z ; play_client_server_cpg_message
$LN7@play_aircr:

; 235  : 				(
; 236  : 					aggressor,
; 237  : 					1.0,
; 238  : 					3.0,
; 239  : 					SPEECH_CATEGORY_ATTACKING_TARGETS,
; 240  : 					8.0,
; 241  : 					speech_index
; 242  : 				);
; 243  : 			}
; 244  : 		}
; 245  : 	}
; 246  : 	else

  00253	e9 f4 03 00 00	 jmp	 $LN18@play_aircr
$LN4@play_aircr:

; 247  : 	{
; 248  : 		if (aircraft_critically_damaged (victim))

  00258	8b 45 08	 mov	 eax, DWORD PTR _victim$[ebp]
  0025b	50		 push	 eax
  0025c	e8 00 00 00 00	 call	 ?aircraft_critically_damaged@@YG?AW4aircraft_damage_types@@PAUENTITY@@@Z ; aircraft_critically_damaged
  00261	85 c0		 test	 eax, eax
  00263	0f 84 d4 00 00
	00		 je	 $LN10@play_aircr

; 249  : 		{
; 250  : 			////////////////////////////////////
; 251  : 			//
; 252  : 			// victims speech
; 253  : 			//
; 254  : 			////////////////////////////////////
; 255  : 		
; 256  : 			if (get_local_entity_int_value (victim, INT_TYPE_PLAYER) != ENTITY_PLAYER_AI)

  00269	83 7d 08 00	 cmp	 DWORD PTR _victim$[ebp], 0
  0026d	74 0a		 je	 SHORT $LN32@play_aircr
  0026f	8b 45 08	 mov	 eax, DWORD PTR _victim$[ebp]
  00272	8b 08		 mov	 ecx, DWORD PTR [eax]
  00274	89 4d a4	 mov	 DWORD PTR tv187[ebp], ecx
  00277	eb 1d		 jmp	 SHORT $LN33@play_aircr
$LN32@play_aircr:
  00279	68 00 01 00 00	 push	 256			; 00000100H
  0027e	68 00 00 00 00	 push	 OFFSET ??_C@_0EO@EFCBEFCN@c?3?2users?2nhv90?2projects?2eech?2ap@
  00283	8b 15 00 00 00
	00		 mov	 edx, DWORD PTR ?null_entity_pointer_message@@3PBDB ; null_entity_pointer_message
  00289	52		 push	 edx
  0028a	e8 00 00 00 00	 call	 ?process_assert@@YGXPBD0H@Z ; process_assert
  0028f	c7 45 a4 00 00
	00 00		 mov	 DWORD PTR tv187[ebp], 0
$LN33@play_aircr:
  00296	b8 01 00 00 00	 mov	 eax, 1
  0029b	85 c0		 test	 eax, eax
  0029d	74 09		 je	 SHORT $LN34@play_aircr
  0029f	c7 45 a0 9c 00
	00 00		 mov	 DWORD PTR tv194[ebp], 156 ; 0000009cH
  002a6	eb 1d		 jmp	 SHORT $LN35@play_aircr
$LN34@play_aircr:
  002a8	68 00 01 00 00	 push	 256			; 00000100H
  002ad	68 00 00 00 00	 push	 OFFSET ??_C@_0EO@EFCBEFCN@c?3?2users?2nhv90?2projects?2eech?2ap@
  002b2	8b 0d 00 00 00
	00		 mov	 ecx, DWORD PTR ?overload_invalid_int_type_message@@3PBDB ; overload_invalid_int_type_message
  002b8	51		 push	 ecx
  002b9	e8 00 00 00 00	 call	 ?process_assert@@YGXPBD0H@Z ; process_assert
  002be	c7 45 a0 00 00
	00 00		 mov	 DWORD PTR tv194[ebp], 0
$LN35@play_aircr:
  002c5	68 9c 00 00 00	 push	 156			; 0000009cH
  002ca	8b 55 08	 mov	 edx, DWORD PTR _victim$[ebp]
  002cd	52		 push	 edx
  002ce	69 45 a4 5c 04
	00 00		 imul	 eax, DWORD PTR tv187[ebp], 1116
  002d5	8b 4d a0	 mov	 ecx, DWORD PTR tv194[ebp]
  002d8	8b 94 88 00 00
	00 00		 mov	 edx, DWORD PTR ?fn_get_local_entity_int_value@@3PAY0BBH@P6GHPAUENTITY@@W4INT_TYPES@@@ZA[eax+ecx*4]
  002df	ff d2		 call	 edx
  002e1	85 c0		 test	 eax, eax
  002e3	74 02		 je	 SHORT $LN12@play_aircr

; 257  : 			{
; 258  : 				// PLAY_SPEECH (CPG)
; 259  : 				//
; 260  : 				// (Where did that come from) | (We're french fries) | etc
; 261  : 			}
; 262  : 			else

  002e5	eb 44		 jmp	 SHORT $LN13@play_aircr
$LN12@play_aircr:

; 263  : 			{
; 264  : 				// PLAY_SPEECH (WINGMAN)
; 265  : 				//
; 266  : 				//	[This is..]
; 267  : 				// [callsign + number]
; 268  : 				// (Mayday, Mayday, we are going down) | (I've been hit, I'm going down, repeat going down) 
; 269  : 
; 270  : 				speech_index = SPEECH_WINGMAN_GOING_DOWN;

  002e7	c7 45 ec 10 00
	00 00		 mov	 DWORD PTR _speech_index$[ebp], 16 ; 00000010H

; 271  : 
; 272  : 				play_client_server_wingman_message

  002ee	8b 45 ec	 mov	 eax, DWORD PTR _speech_index$[ebp]
  002f1	50		 push	 eax
  002f2	6a 07		 push	 7
  002f4	6a 02		 push	 2
  002f6	51		 push	 ecx
  002f7	f3 0f 10 05 00
	00 00 00	 movss	 xmm0, DWORD PTR __real@41200000
  002ff	f3 0f 11 04 24	 movss	 DWORD PTR [esp], xmm0
  00304	6a 11		 push	 17			; 00000011H
  00306	51		 push	 ecx
  00307	f3 0f 10 05 00
	00 00 00	 movss	 xmm0, DWORD PTR __real@40800000
  0030f	f3 0f 11 04 24	 movss	 DWORD PTR [esp], xmm0
  00314	51		 push	 ecx
  00315	f3 0f 10 05 00
	00 00 00	 movss	 xmm0, DWORD PTR __real@3f000000
  0031d	f3 0f 11 04 24	 movss	 DWORD PTR [esp], xmm0
  00322	8b 4d 08	 mov	 ecx, DWORD PTR _victim$[ebp]
  00325	51		 push	 ecx
  00326	e8 00 00 00 00	 call	 ?play_client_server_wingman_message@@YGHPAUENTITY@@MMW4speech_category_types@@MW4speech_intro_types@@W4speech_array_types@@H@Z ; play_client_server_wingman_message
$LN13@play_aircr:

; 273  : 				(
; 274  : 					victim,
; 275  : 					0.5,
; 276  : 					4.0,
; 277  : 					SPEECH_CATEGORY_UNDER_ATTACK, 10.0,
; 278  : 					SPEECH_INTRODUCTION_ALWAYS,
; 279  : 					SPEECH_ARRAY_WINGMAN_MESSAGES, speech_index
; 280  : 				);
; 281  : 			}
; 282  : 
; 283  : 			////////////////////////////////////
; 284  : 			//
; 285  : 			// Aggressors speech
; 286  : 			//
; 287  : 			////////////////////////////////////
; 288  : 
; 289  : 			play_aircraft_destroyed_speech (victim, aggressor);

  0032b	8b 45 0c	 mov	 eax, DWORD PTR _aggressor$[ebp]
  0032e	50		 push	 eax
  0032f	8b 4d 08	 mov	 ecx, DWORD PTR _victim$[ebp]
  00332	51		 push	 ecx
  00333	e8 00 00 00 00	 call	 ?play_aircraft_destroyed_speech@@YGXPAUENTITY@@0@Z ; play_aircraft_destroyed_speech

; 290  : 		}
; 291  : 		else

  00338	e9 0f 03 00 00	 jmp	 $LN18@play_aircr
$LN10@play_aircr:

; 292  : 		{
; 293  : 			////////////////////////////////////
; 294  : 			//
; 295  : 			// victims speech
; 296  : 			//
; 297  : 			////////////////////////////////////
; 298  : 
; 299  : 			if (get_local_entity_int_value (victim, INT_TYPE_PLAYER) != ENTITY_PLAYER_AI)

  0033d	83 7d 08 00	 cmp	 DWORD PTR _victim$[ebp], 0
  00341	74 0a		 je	 SHORT $LN36@play_aircr
  00343	8b 45 08	 mov	 eax, DWORD PTR _victim$[ebp]
  00346	8b 08		 mov	 ecx, DWORD PTR [eax]
  00348	89 4d a4	 mov	 DWORD PTR tv216[ebp], ecx
  0034b	eb 1d		 jmp	 SHORT $LN37@play_aircr
$LN36@play_aircr:
  0034d	68 2b 01 00 00	 push	 299			; 0000012bH
  00352	68 00 00 00 00	 push	 OFFSET ??_C@_0EO@EFCBEFCN@c?3?2users?2nhv90?2projects?2eech?2ap@
  00357	8b 15 00 00 00
	00		 mov	 edx, DWORD PTR ?null_entity_pointer_message@@3PBDB ; null_entity_pointer_message
  0035d	52		 push	 edx
  0035e	e8 00 00 00 00	 call	 ?process_assert@@YGXPBD0H@Z ; process_assert
  00363	c7 45 a4 00 00
	00 00		 mov	 DWORD PTR tv216[ebp], 0
$LN37@play_aircr:
  0036a	b8 01 00 00 00	 mov	 eax, 1
  0036f	85 c0		 test	 eax, eax
  00371	74 09		 je	 SHORT $LN38@play_aircr
  00373	c7 45 a0 9c 00
	00 00		 mov	 DWORD PTR tv223[ebp], 156 ; 0000009cH
  0037a	eb 1d		 jmp	 SHORT $LN39@play_aircr
$LN38@play_aircr:
  0037c	68 2b 01 00 00	 push	 299			; 0000012bH
  00381	68 00 00 00 00	 push	 OFFSET ??_C@_0EO@EFCBEFCN@c?3?2users?2nhv90?2projects?2eech?2ap@
  00386	8b 0d 00 00 00
	00		 mov	 ecx, DWORD PTR ?overload_invalid_int_type_message@@3PBDB ; overload_invalid_int_type_message
  0038c	51		 push	 ecx
  0038d	e8 00 00 00 00	 call	 ?process_assert@@YGXPBD0H@Z ; process_assert
  00392	c7 45 a0 00 00
	00 00		 mov	 DWORD PTR tv223[ebp], 0
$LN39@play_aircr:
  00399	68 9c 00 00 00	 push	 156			; 0000009cH
  0039e	8b 55 08	 mov	 edx, DWORD PTR _victim$[ebp]
  003a1	52		 push	 edx
  003a2	69 45 a4 5c 04
	00 00		 imul	 eax, DWORD PTR tv216[ebp], 1116
  003a9	8b 4d a0	 mov	 ecx, DWORD PTR tv223[ebp]
  003ac	8b 94 88 00 00
	00 00		 mov	 edx, DWORD PTR ?fn_get_local_entity_int_value@@3PAY0BBH@P6GHPAUENTITY@@W4INT_TYPES@@@ZA[eax+ecx*4]
  003b3	ff d2		 call	 edx
  003b5	85 c0		 test	 eax, eax
  003b7	74 05		 je	 SHORT $LN14@play_aircr

; 300  : 			{
; 301  : 			}
; 302  : 			else

  003b9	e9 8b 00 00 00	 jmp	 $LN15@play_aircr
$LN14@play_aircr:

; 303  : 			{
; 304  : 				// PLAY_SPEECH (WINGMAN)
; 305  : 				//
; 306  : 				//	[This is..]
; 307  : 				// [callsign + number]
; 308  : 				// (We're taking hits) | (Things are heating up out here) | (It's too dangerous up here etc..)
; 309  : 
; 310  : 				val = get_speech_random_value

  003be	8b 45 fc	 mov	 eax, DWORD PTR _victim_side$[ebp]
  003c1	8b 0c 85 00 00
	00 00		 mov	 ecx, DWORD PTR ?last_ac_hit_victim_wingman_comment@@3PAHA[eax*4]
  003c8	51		 push	 ecx
  003c9	8b 55 fc	 mov	 edx, DWORD PTR _victim_side$[ebp]
  003cc	8b 04 95 00 00
	00 00		 mov	 eax, DWORD PTR ?num_ac_hit_victim_wingman_comments@@3PAHA[edx*4]
  003d3	50		 push	 eax
  003d4	68 00 00 00 00	 push	 OFFSET ?aircraft_hit_victim_wingman_comments@@3PAUSPEECH_INSTANCE_TYPE@@A
  003d9	e8 00 00 00 00	 call	 ?get_speech_random_value@@YGHPAUSPEECH_INSTANCE_TYPE@@HH@Z ; get_speech_random_value
  003de	89 45 f4	 mov	 DWORD PTR _val$[ebp], eax

; 311  : 						(
; 312  : 							aircraft_hit_victim_wingman_comments,
; 313  : 							num_ac_hit_victim_wingman_comments [victim_side],
; 314  : 							last_ac_hit_victim_wingman_comment [victim_side]
; 315  : 						);
; 316  : 
; 317  : 				array_type = aircraft_hit_victim_wingman_comments [val].array_type;

  003e1	8b 45 f4	 mov	 eax, DWORD PTR _val$[ebp]
  003e4	c1 e0 04	 shl	 eax, 4
  003e7	8b 88 04 00 00
	00		 mov	 ecx, DWORD PTR ?aircraft_hit_victim_wingman_comments@@3PAUSPEECH_INSTANCE_TYPE@@A[eax+4]
  003ed	89 4d f0	 mov	 DWORD PTR _array_type$[ebp], ecx

; 318  : 				speech_index = aircraft_hit_victim_wingman_comments [val].speech_index;

  003f0	8b 45 f4	 mov	 eax, DWORD PTR _val$[ebp]
  003f3	c1 e0 04	 shl	 eax, 4
  003f6	8b 88 00 00 00
	00		 mov	 ecx, DWORD PTR ?aircraft_hit_victim_wingman_comments@@3PAUSPEECH_INSTANCE_TYPE@@A[eax]
  003fc	89 4d ec	 mov	 DWORD PTR _speech_index$[ebp], ecx

; 319  : 
; 320  : 				play_client_server_wingman_message

  003ff	8b 45 ec	 mov	 eax, DWORD PTR _speech_index$[ebp]
  00402	50		 push	 eax
  00403	8b 4d f0	 mov	 ecx, DWORD PTR _array_type$[ebp]
  00406	51		 push	 ecx
  00407	8b 55 f4	 mov	 edx, DWORD PTR _val$[ebp]
  0040a	c1 e2 04	 shl	 edx, 4
  0040d	8b 82 0c 00 00
	00		 mov	 eax, DWORD PTR ?aircraft_hit_victim_wingman_comments@@3PAUSPEECH_INSTANCE_TYPE@@A[edx+12]
  00413	50		 push	 eax
  00414	51		 push	 ecx
  00415	f3 0f 10 05 00
	00 00 00	 movss	 xmm0, DWORD PTR __real@41800000
  0041d	f3 0f 11 04 24	 movss	 DWORD PTR [esp], xmm0
  00422	6a 11		 push	 17			; 00000011H
  00424	51		 push	 ecx
  00425	f3 0f 10 05 00
	00 00 00	 movss	 xmm0, DWORD PTR __real@41000000
  0042d	f3 0f 11 04 24	 movss	 DWORD PTR [esp], xmm0
  00432	51		 push	 ecx
  00433	f3 0f 10 05 00
	00 00 00	 movss	 xmm0, DWORD PTR __real@3f4ccccd
  0043b	f3 0f 11 04 24	 movss	 DWORD PTR [esp], xmm0
  00440	8b 4d 08	 mov	 ecx, DWORD PTR _victim$[ebp]
  00443	51		 push	 ecx
  00444	e8 00 00 00 00	 call	 ?play_client_server_wingman_message@@YGHPAUENTITY@@MMW4speech_category_types@@MW4speech_intro_types@@W4speech_array_types@@H@Z ; play_client_server_wingman_message
$LN15@play_aircr:

; 321  : 				(
; 322  : 					victim,
; 323  : 					0.8,
; 324  : 					8.0,
; 325  : 					SPEECH_CATEGORY_UNDER_ATTACK, 16.0,
; 326  : 					aircraft_hit_victim_wingman_comments [val].introduction,
; 327  : 					(speech_array_types) array_type, speech_index
; 328  : 				);
; 329  : 			}
; 330  : 
; 331  : 			////////////////////////////////////
; 332  : 			//
; 333  : 			// Aggressors speech
; 334  : 			//
; 335  : 			////////////////////////////////////
; 336  : 
; 337  : 			if (get_local_entity_int_value (aggressor, INT_TYPE_IDENTIFY_AIRCRAFT))

  00449	83 7d 0c 00	 cmp	 DWORD PTR _aggressor$[ebp], 0
  0044d	74 0a		 je	 SHORT $LN40@play_aircr
  0044f	8b 45 0c	 mov	 eax, DWORD PTR _aggressor$[ebp]
  00452	8b 08		 mov	 ecx, DWORD PTR [eax]
  00454	89 4d a4	 mov	 DWORD PTR tv260[ebp], ecx
  00457	eb 1d		 jmp	 SHORT $LN41@play_aircr
$LN40@play_aircr:
  00459	68 51 01 00 00	 push	 337			; 00000151H
  0045e	68 00 00 00 00	 push	 OFFSET ??_C@_0EO@EFCBEFCN@c?3?2users?2nhv90?2projects?2eech?2ap@
  00463	8b 15 00 00 00
	00		 mov	 edx, DWORD PTR ?null_entity_pointer_message@@3PBDB ; null_entity_pointer_message
  00469	52		 push	 edx
  0046a	e8 00 00 00 00	 call	 ?process_assert@@YGXPBD0H@Z ; process_assert
  0046f	c7 45 a4 00 00
	00 00		 mov	 DWORD PTR tv260[ebp], 0
$LN41@play_aircr:
  00476	b8 01 00 00 00	 mov	 eax, 1
  0047b	85 c0		 test	 eax, eax
  0047d	74 09		 je	 SHORT $LN42@play_aircr
  0047f	c7 45 a0 57 00
	00 00		 mov	 DWORD PTR tv267[ebp], 87 ; 00000057H
  00486	eb 1d		 jmp	 SHORT $LN43@play_aircr
$LN42@play_aircr:
  00488	68 51 01 00 00	 push	 337			; 00000151H
  0048d	68 00 00 00 00	 push	 OFFSET ??_C@_0EO@EFCBEFCN@c?3?2users?2nhv90?2projects?2eech?2ap@
  00492	8b 0d 00 00 00
	00		 mov	 ecx, DWORD PTR ?overload_invalid_int_type_message@@3PBDB ; overload_invalid_int_type_message
  00498	51		 push	 ecx
  00499	e8 00 00 00 00	 call	 ?process_assert@@YGXPBD0H@Z ; process_assert
  0049e	c7 45 a0 00 00
	00 00		 mov	 DWORD PTR tv267[ebp], 0
$LN43@play_aircr:
  004a5	6a 57		 push	 87			; 00000057H
  004a7	8b 55 0c	 mov	 edx, DWORD PTR _aggressor$[ebp]
  004aa	52		 push	 edx
  004ab	69 45 a4 5c 04
	00 00		 imul	 eax, DWORD PTR tv260[ebp], 1116
  004b2	8b 4d a0	 mov	 ecx, DWORD PTR tv267[ebp]
  004b5	8b 94 88 00 00
	00 00		 mov	 edx, DWORD PTR ?fn_get_local_entity_int_value@@3PAY0BBH@P6GHPAUENTITY@@W4INT_TYPES@@@ZA[eax+ecx*4]
  004bc	ff d2		 call	 edx
  004be	85 c0		 test	 eax, eax
  004c0	0f 84 86 01 00
	00		 je	 $LN18@play_aircr

; 338  : 			{
; 339  : 				if (get_local_entity_int_value (aggressor, INT_TYPE_PLAYER) != ENTITY_PLAYER_AI)

  004c6	83 7d 0c 00	 cmp	 DWORD PTR _aggressor$[ebp], 0
  004ca	74 0a		 je	 SHORT $LN44@play_aircr
  004cc	8b 45 0c	 mov	 eax, DWORD PTR _aggressor$[ebp]
  004cf	8b 08		 mov	 ecx, DWORD PTR [eax]
  004d1	89 4d a4	 mov	 DWORD PTR tv279[ebp], ecx
  004d4	eb 1d		 jmp	 SHORT $LN45@play_aircr
$LN44@play_aircr:
  004d6	68 53 01 00 00	 push	 339			; 00000153H
  004db	68 00 00 00 00	 push	 OFFSET ??_C@_0EO@EFCBEFCN@c?3?2users?2nhv90?2projects?2eech?2ap@
  004e0	8b 15 00 00 00
	00		 mov	 edx, DWORD PTR ?null_entity_pointer_message@@3PBDB ; null_entity_pointer_message
  004e6	52		 push	 edx
  004e7	e8 00 00 00 00	 call	 ?process_assert@@YGXPBD0H@Z ; process_assert
  004ec	c7 45 a4 00 00
	00 00		 mov	 DWORD PTR tv279[ebp], 0
$LN45@play_aircr:
  004f3	b8 01 00 00 00	 mov	 eax, 1
  004f8	85 c0		 test	 eax, eax
  004fa	74 09		 je	 SHORT $LN46@play_aircr
  004fc	c7 45 a0 9c 00
	00 00		 mov	 DWORD PTR tv286[ebp], 156 ; 0000009cH
  00503	eb 1d		 jmp	 SHORT $LN47@play_aircr
$LN46@play_aircr:
  00505	68 53 01 00 00	 push	 339			; 00000153H
  0050a	68 00 00 00 00	 push	 OFFSET ??_C@_0EO@EFCBEFCN@c?3?2users?2nhv90?2projects?2eech?2ap@
  0050f	8b 0d 00 00 00
	00		 mov	 ecx, DWORD PTR ?overload_invalid_int_type_message@@3PBDB ; overload_invalid_int_type_message
  00515	51		 push	 ecx
  00516	e8 00 00 00 00	 call	 ?process_assert@@YGXPBD0H@Z ; process_assert
  0051b	c7 45 a0 00 00
	00 00		 mov	 DWORD PTR tv286[ebp], 0
$LN47@play_aircr:
  00522	68 9c 00 00 00	 push	 156			; 0000009cH
  00527	8b 55 0c	 mov	 edx, DWORD PTR _aggressor$[ebp]
  0052a	52		 push	 edx
  0052b	69 45 a4 5c 04
	00 00		 imul	 eax, DWORD PTR tv279[ebp], 1116
  00532	8b 4d a0	 mov	 ecx, DWORD PTR tv286[ebp]
  00535	8b 94 88 00 00
	00 00		 mov	 edx, DWORD PTR ?fn_get_local_entity_int_value@@3PAY0BBH@P6GHPAUENTITY@@W4INT_TYPES@@@ZA[eax+ecx*4]
  0053c	ff d2		 call	 edx
  0053e	85 c0		 test	 eax, eax
  00540	74 7f		 je	 SHORT $LN17@play_aircr

; 340  : 				{
; 341  : 					// PLAY_SPEECH (CPG)
; 342  : 					//
; 343  : 					// (Target Hit) | (Turkey shoot) | (Fish in a barrel) | (They can run, etc)
; 344  : 
; 345  : 					val = get_speech_random_value

  00542	8b 45 f8	 mov	 eax, DWORD PTR _aggressor_side$[ebp]
  00545	8b 0c 85 00 00
	00 00		 mov	 ecx, DWORD PTR ?last_ac_hit_aggressor_cpg_comment@@3PAHA[eax*4]
  0054c	51		 push	 ecx
  0054d	8b 55 f8	 mov	 edx, DWORD PTR _aggressor_side$[ebp]
  00550	8b 04 95 00 00
	00 00		 mov	 eax, DWORD PTR ?num_ac_hit_aggressor_cpg_comments@@3PAHA[edx*4]
  00557	50		 push	 eax
  00558	68 00 00 00 00	 push	 OFFSET ?aircraft_hit_aggressor_cpg_comments@@3PAUSPEECH_INSTANCE_TYPE@@A
  0055d	e8 00 00 00 00	 call	 ?get_speech_random_value@@YGHPAUSPEECH_INSTANCE_TYPE@@HH@Z ; get_speech_random_value
  00562	89 45 f4	 mov	 DWORD PTR _val$[ebp], eax

; 346  : 							(
; 347  : 								aircraft_hit_aggressor_cpg_comments,
; 348  : 								num_ac_hit_aggressor_cpg_comments [aggressor_side],
; 349  : 								last_ac_hit_aggressor_cpg_comment [aggressor_side]
; 350  : 							);
; 351  : 	
; 352  : 					array_type = aircraft_hit_aggressor_cpg_comments [val].array_type;

  00565	8b 45 f4	 mov	 eax, DWORD PTR _val$[ebp]
  00568	c1 e0 04	 shl	 eax, 4
  0056b	8b 88 04 00 00
	00		 mov	 ecx, DWORD PTR ?aircraft_hit_aggressor_cpg_comments@@3PAUSPEECH_INSTANCE_TYPE@@A[eax+4]
  00571	89 4d f0	 mov	 DWORD PTR _array_type$[ebp], ecx

; 353  : 					speech_index = aircraft_hit_aggressor_cpg_comments [val].speech_index;

  00574	8b 45 f4	 mov	 eax, DWORD PTR _val$[ebp]
  00577	c1 e0 04	 shl	 eax, 4
  0057a	8b 88 00 00 00
	00		 mov	 ecx, DWORD PTR ?aircraft_hit_aggressor_cpg_comments@@3PAUSPEECH_INSTANCE_TYPE@@A[eax]
  00580	89 4d ec	 mov	 DWORD PTR _speech_index$[ebp], ecx

; 354  : 	
; 355  : 					play_client_server_cpg_message

  00583	8b 45 ec	 mov	 eax, DWORD PTR _speech_index$[ebp]
  00586	50		 push	 eax
  00587	51		 push	 ecx
  00588	f3 0f 10 05 00
	00 00 00	 movss	 xmm0, DWORD PTR __real@41700000
  00590	f3 0f 11 04 24	 movss	 DWORD PTR [esp], xmm0
  00595	6a 02		 push	 2
  00597	51		 push	 ecx
  00598	f3 0f 10 05 00
	00 00 00	 movss	 xmm0, DWORD PTR __real@40a00000
  005a0	f3 0f 11 04 24	 movss	 DWORD PTR [esp], xmm0
  005a5	51		 push	 ecx
  005a6	f3 0f 10 05 00
	00 00 00	 movss	 xmm0, DWORD PTR __real@3f19999a
  005ae	f3 0f 11 04 24	 movss	 DWORD PTR [esp], xmm0
  005b3	8b 4d 0c	 mov	 ecx, DWORD PTR _aggressor$[ebp]
  005b6	51		 push	 ecx
  005b7	e8 00 00 00 00	 call	 ?play_client_server_cpg_message@@YGHPAUENTITY@@MMHMH@Z ; play_client_server_cpg_message

; 356  : 					(
; 357  : 						aggressor,
; 358  : 						0.6,
; 359  : 						5.0,
; 360  : 						SPEECH_CATEGORY_ATTACKING_TARGETS, 15.0,
; 361  : 						speech_index
; 362  : 					);
; 363  : 				}
; 364  : 				else

  005bc	e9 8b 00 00 00	 jmp	 $LN18@play_aircr
$LN17@play_aircr:

; 365  : 				{
; 366  : 					// PLAY_SPEECH (WINGMAN)
; 367  : 					//
; 368  : 					//	[This is..]
; 369  : 					// [callsign + number]
; 370  : 					// (Target Hit) | (Turkey shoot) | (Fish in a barrel) | (They can run, etc)
; 371  : 
; 372  : 					val = get_speech_random_value

  005c1	8b 45 f8	 mov	 eax, DWORD PTR _aggressor_side$[ebp]
  005c4	8b 0c 85 00 00
	00 00		 mov	 ecx, DWORD PTR ?last_ac_hit_aggressor_wingman_comment@@3PAHA[eax*4]
  005cb	51		 push	 ecx
  005cc	8b 55 f8	 mov	 edx, DWORD PTR _aggressor_side$[ebp]
  005cf	8b 04 95 00 00
	00 00		 mov	 eax, DWORD PTR ?num_ac_hit_aggressor_wingman_comments@@3PAHA[edx*4]
  005d6	50		 push	 eax
  005d7	68 00 00 00 00	 push	 OFFSET ?aircraft_hit_aggressor_wingman_comments@@3PAUSPEECH_INSTANCE_TYPE@@A
  005dc	e8 00 00 00 00	 call	 ?get_speech_random_value@@YGHPAUSPEECH_INSTANCE_TYPE@@HH@Z ; get_speech_random_value
  005e1	89 45 f4	 mov	 DWORD PTR _val$[ebp], eax

; 373  : 							(
; 374  : 								aircraft_hit_aggressor_wingman_comments,
; 375  : 								num_ac_hit_aggressor_wingman_comments [aggressor_side],
; 376  : 								last_ac_hit_aggressor_wingman_comment [aggressor_side]
; 377  : 							);
; 378  : 
; 379  : 					array_type = aircraft_hit_aggressor_wingman_comments [val].array_type;

  005e4	8b 45 f4	 mov	 eax, DWORD PTR _val$[ebp]
  005e7	c1 e0 04	 shl	 eax, 4
  005ea	8b 88 04 00 00
	00		 mov	 ecx, DWORD PTR ?aircraft_hit_aggressor_wingman_comments@@3PAUSPEECH_INSTANCE_TYPE@@A[eax+4]
  005f0	89 4d f0	 mov	 DWORD PTR _array_type$[ebp], ecx

; 380  : 					speech_index = aircraft_hit_aggressor_wingman_comments [val].speech_index;

  005f3	8b 45 f4	 mov	 eax, DWORD PTR _val$[ebp]
  005f6	c1 e0 04	 shl	 eax, 4
  005f9	8b 88 00 00 00
	00		 mov	 ecx, DWORD PTR ?aircraft_hit_aggressor_wingman_comments@@3PAUSPEECH_INSTANCE_TYPE@@A[eax]
  005ff	89 4d ec	 mov	 DWORD PTR _speech_index$[ebp], ecx

; 381  : 
; 382  : 					play_client_server_wingman_message

  00602	8b 45 ec	 mov	 eax, DWORD PTR _speech_index$[ebp]
  00605	50		 push	 eax
  00606	8b 4d f0	 mov	 ecx, DWORD PTR _array_type$[ebp]
  00609	51		 push	 ecx
  0060a	8b 55 f4	 mov	 edx, DWORD PTR _val$[ebp]
  0060d	c1 e2 04	 shl	 edx, 4
  00610	8b 82 0c 00 00
	00		 mov	 eax, DWORD PTR ?aircraft_hit_aggressor_wingman_comments@@3PAUSPEECH_INSTANCE_TYPE@@A[edx+12]
  00616	50		 push	 eax
  00617	51		 push	 ecx
  00618	f3 0f 10 05 00
	00 00 00	 movss	 xmm0, DWORD PTR __real@41800000
  00620	f3 0f 11 04 24	 movss	 DWORD PTR [esp], xmm0
  00625	6a 02		 push	 2
  00627	51		 push	 ecx
  00628	f3 0f 10 05 00
	00 00 00	 movss	 xmm0, DWORD PTR __real@40a00000
  00630	f3 0f 11 04 24	 movss	 DWORD PTR [esp], xmm0
  00635	51		 push	 ecx
  00636	f3 0f 10 05 00
	00 00 00	 movss	 xmm0, DWORD PTR __real@3f19999a
  0063e	f3 0f 11 04 24	 movss	 DWORD PTR [esp], xmm0
  00643	8b 4d 0c	 mov	 ecx, DWORD PTR _aggressor$[ebp]
  00646	51		 push	 ecx
  00647	e8 00 00 00 00	 call	 ?play_client_server_wingman_message@@YGHPAUENTITY@@MMW4speech_category_types@@MW4speech_intro_types@@W4speech_array_types@@H@Z ; play_client_server_wingman_message
$LN18@play_aircr:

; 383  : 					(
; 384  : 						aggressor,
; 385  : 						0.6,
; 386  : 						5.0,
; 387  : 						SPEECH_CATEGORY_ATTACKING_TARGETS, 16.0,
; 388  : 						aircraft_hit_aggressor_wingman_comments [val].introduction,
; 389  : 						(speech_array_types) array_type, speech_index
; 390  : 					);
; 391  : 				}
; 392  : 			}
; 393  : 		}
; 394  : 	}
; 395  : }

  0064c	5f		 pop	 edi
  0064d	5e		 pop	 esi
  0064e	5b		 pop	 ebx
  0064f	8b e5		 mov	 esp, ebp
  00651	5d		 pop	 ebp
  00652	c2 08 00	 ret	 8
?play_aircraft_shot_at_speech@@YGXPAUENTITY@@0@Z ENDP	; play_aircraft_shot_at_speech
_TEXT	ENDS
; Function compile flags: /Odtp /ZI
; File c:\users\nhv90\projects\eech\aphavoc\source\entity\mobile\aircraft\aircraft.c
;	COMDAT ?assess_aircraft_damage_level@@YGXPAUENTITY@@HH@Z
_TEXT	SEGMENT
tv70 = -72						; size = 4
tv69 = -68						; size = 4
_en$ = 8						; size = 4
_old_damage_level$ = 12					; size = 4
_new_damage_level$ = 16					; size = 4
?assess_aircraft_damage_level@@YGXPAUENTITY@@HH@Z PROC	; assess_aircraft_damage_level, COMDAT

; 120  : {

  00000	55		 push	 ebp
  00001	8b ec		 mov	 ebp, esp
  00003	83 ec 48	 sub	 esp, 72			; 00000048H
  00006	53		 push	 ebx
  00007	56		 push	 esi
  00008	57		 push	 edi

; 121  : 
; 122  : 	switch (get_local_entity_type (en))

  00009	83 7d 08 00	 cmp	 DWORD PTR _en$[ebp], 0
  0000d	74 0a		 je	 SHORT $LN7@assess_air
  0000f	8b 45 08	 mov	 eax, DWORD PTR _en$[ebp]
  00012	8b 08		 mov	 ecx, DWORD PTR [eax]
  00014	89 4d bc	 mov	 DWORD PTR tv69[ebp], ecx
  00017	eb 1a		 jmp	 SHORT $LN8@assess_air
$LN7@assess_air:
  00019	6a 7a		 push	 122			; 0000007aH
  0001b	68 00 00 00 00	 push	 OFFSET ??_C@_0EO@EFCBEFCN@c?3?2users?2nhv90?2projects?2eech?2ap@
  00020	8b 15 00 00 00
	00		 mov	 edx, DWORD PTR ?null_entity_pointer_message@@3PBDB ; null_entity_pointer_message
  00026	52		 push	 edx
  00027	e8 00 00 00 00	 call	 ?process_assert@@YGXPBD0H@Z ; process_assert
  0002c	c7 45 bc 00 00
	00 00		 mov	 DWORD PTR tv69[ebp], 0
$LN8@assess_air:
  00033	8b 45 bc	 mov	 eax, DWORD PTR tv69[ebp]
  00036	89 45 b8	 mov	 DWORD PTR tv70[ebp], eax
  00039	83 7d b8 0a	 cmp	 DWORD PTR tv70[ebp], 10	; 0000000aH
  0003d	74 02		 je	 SHORT $LN4@assess_air
  0003f	eb 11		 jmp	 SHORT $LN1@assess_air
$LN4@assess_air:

; 123  : 	{
; 124  : 		case ENTITY_TYPE_FIXED_WING:
; 125  : 		{
; 126  : 			assess_fixed_wing_damage_level (en, old_damage_level, new_damage_level);

  00041	8b 45 10	 mov	 eax, DWORD PTR _new_damage_level$[ebp]
  00044	50		 push	 eax
  00045	8b 4d 0c	 mov	 ecx, DWORD PTR _old_damage_level$[ebp]
  00048	51		 push	 ecx
  00049	8b 55 08	 mov	 edx, DWORD PTR _en$[ebp]
  0004c	52		 push	 edx
  0004d	e8 00 00 00 00	 call	 ?assess_fixed_wing_damage_level@@YGXPAUENTITY@@HH@Z ; assess_fixed_wing_damage_level
$LN1@assess_air:

; 127  : 
; 128  : 			break;
; 129  : 		}
; 130  : 		case ENTITY_TYPE_HELICOPTER:
; 131  : 		{
; 132  : 			break;
; 133  : 		}
; 134  : 	}
; 135  : }

  00052	5f		 pop	 edi
  00053	5e		 pop	 esi
  00054	5b		 pop	 ebx
  00055	8b e5		 mov	 esp, ebp
  00057	5d		 pop	 ebp
  00058	c2 0c 00	 ret	 12			; 0000000cH
?assess_aircraft_damage_level@@YGXPAUENTITY@@HH@Z ENDP	; assess_aircraft_damage_level
_TEXT	ENDS
; Function compile flags: /Odtp /ZI
; File c:\users\nhv90\projects\eech\aphavoc\source\entity\mobile\aircraft\aircraft.c
;	COMDAT ?aircraft_critically_damaged@@YG?AW4aircraft_damage_types@@PAUENTITY@@@Z
_TEXT	SEGMENT
_percent_damaged$ = -8					; size = 4
_raw$ = -4						; size = 4
_en$ = 8						; size = 4
?aircraft_critically_damaged@@YG?AW4aircraft_damage_types@@PAUENTITY@@@Z PROC ; aircraft_critically_damaged, COMDAT

; 89   : {

  00000	55		 push	 ebp
  00001	8b ec		 mov	 ebp, esp
  00003	83 ec 48	 sub	 esp, 72			; 00000048H
  00006	53		 push	 ebx
  00007	56		 push	 esi
  00008	57		 push	 edi

; 90   : 
; 91   : 	aircraft
; 92   : 		*raw;
; 93   : 
; 94   : 	int
; 95   : 		percent_damaged;
; 96   : 
; 97   : 	raw = (aircraft *) get_local_entity_data (en);

  00009	8b 45 08	 mov	 eax, DWORD PTR _en$[ebp]
  0000c	8b 48 04	 mov	 ecx, DWORD PTR [eax+4]
  0000f	89 4d fc	 mov	 DWORD PTR _raw$[ebp], ecx

; 98   : 
; 99   : 	percent_damaged = (100 * raw->damage_level) / aircraft_database[raw->mob.sub_type].initial_damage_level;

  00012	8b 45 fc	 mov	 eax, DWORD PTR _raw$[ebp]
  00015	6b 80 34 01 00
	00 64		 imul	 eax, DWORD PTR [eax+308], 100
  0001c	8b 4d fc	 mov	 ecx, DWORD PTR _raw$[ebp]
  0001f	69 09 f4 00 00
	00		 imul	 ecx, DWORD PTR [ecx], 244
  00025	99		 cdq
  00026	f7 b9 e0 00 00
	00		 idiv	 DWORD PTR ?aircraft_database@@3PAUAIRCRAFT_DATA@@A[ecx+224]
  0002c	89 45 f8	 mov	 DWORD PTR _percent_damaged$[ebp], eax

; 100  : 
; 101  : 	if (percent_damaged < CRITICAL_DAMAGE_LEVEL)

  0002f	83 7d f8 0f	 cmp	 DWORD PTR _percent_damaged$[ebp], 15 ; 0000000fH
  00033	7d 09		 jge	 SHORT $LN2@aircraft_c

; 102  : 	{
; 103  : 		return AIRCRAFT_DAMAGE_CRITICAL;

  00035	b8 02 00 00 00	 mov	 eax, 2
  0003a	eb 13		 jmp	 SHORT $LN1@aircraft_c
  0003c	eb 11		 jmp	 SHORT $LN1@aircraft_c
$LN2@aircraft_c:

; 104  : 	}
; 105  : 	else if (percent_damaged < MORTAL_DAMAGE_LEVEL)

  0003e	83 7d f8 19	 cmp	 DWORD PTR _percent_damaged$[ebp], 25 ; 00000019H
  00042	7d 09		 jge	 SHORT $LN4@aircraft_c

; 106  : 	{
; 107  : 		return AIRCRAFT_DAMAGE_MORTAL;

  00044	b8 01 00 00 00	 mov	 eax, 1
  00049	eb 04		 jmp	 SHORT $LN1@aircraft_c

; 108  : 	}
; 109  : 	else

  0004b	eb 02		 jmp	 SHORT $LN1@aircraft_c
$LN4@aircraft_c:

; 110  : 	{
; 111  : 		return AIRCRAFT_DAMAGE_NONE;

  0004d	33 c0		 xor	 eax, eax
$LN1@aircraft_c:

; 112  : 	}
; 113  : }

  0004f	5f		 pop	 edi
  00050	5e		 pop	 esi
  00051	5b		 pop	 ebx
  00052	8b e5		 mov	 esp, ebp
  00054	5d		 pop	 ebp
  00055	c2 04 00	 ret	 4
?aircraft_critically_damaged@@YG?AW4aircraft_damage_types@@PAUENTITY@@@Z ENDP ; aircraft_critically_damaged
_TEXT	ENDS
END
