; Listing generated by Microsoft (R) Optimizing Compiler Version 19.16.27045.0 

	TITLE	C:\Users\nhv90\Projects\eech\aphavoc\source\gunships\avionics\apache\ap_radar.c
	.686P
	.XMM
	include listing.inc
	.model	flat

INCLUDELIB MSVCRTD
INCLUDELIB OLDNAMES

PUBLIC	?radar_range_apache@@3PAMA			; radar_range_apache
PUBLIC	?APACHE_RADAR_SCAN_RANGE_500@@3MA		; APACHE_RADAR_SCAN_RANGE_500
PUBLIC	?APACHE_RADAR_SCAN_RANGE_1000@@3MA		; APACHE_RADAR_SCAN_RANGE_1000
PUBLIC	?APACHE_RADAR_SCAN_RANGE_2000@@3MA		; APACHE_RADAR_SCAN_RANGE_2000
PUBLIC	?APACHE_RADAR_SCAN_RANGE_4000@@3MA		; APACHE_RADAR_SCAN_RANGE_4000
PUBLIC	?APACHE_RADAR_SCAN_RANGE_8000@@3MA		; APACHE_RADAR_SCAN_RANGE_8000
_BSS	SEGMENT
?radar_range_apache@@3PAMA DD 05H DUP (?)		; radar_range_apache
?APACHE_RADAR_SCAN_RANGE_500@@3MA DD 01H DUP (?)	; APACHE_RADAR_SCAN_RANGE_500
?APACHE_RADAR_SCAN_RANGE_1000@@3MA DD 01H DUP (?)	; APACHE_RADAR_SCAN_RANGE_1000
?APACHE_RADAR_SCAN_RANGE_2000@@3MA DD 01H DUP (?)	; APACHE_RADAR_SCAN_RANGE_2000
?APACHE_RADAR_SCAN_RANGE_4000@@3MA DD 01H DUP (?)	; APACHE_RADAR_SCAN_RANGE_4000
?APACHE_RADAR_SCAN_RANGE_8000@@3MA DD 01H DUP (?)	; APACHE_RADAR_SCAN_RANGE_8000
_BSS	ENDS
PUBLIC	?initialise_apache_radar@@YGXXZ			; initialise_apache_radar
PUBLIC	?deinitialise_apache_radar@@YGXXZ		; deinitialise_apache_radar
PUBLIC	?update_apache_ground_radar@@YGXXZ		; update_apache_ground_radar
PUBLIC	?centre_apache_ground_radar@@YGXXZ		; centre_apache_ground_radar
PUBLIC	?update_apache_air_radar@@YGXXZ			; update_apache_air_radar
PUBLIC	?centre_apache_air_radar@@YGXXZ			; centre_apache_air_radar
PUBLIC	__real@3e860a92
PUBLIC	__real@3f060a92
PUBLIC	__real@3f490fdb
PUBLIC	__real@3f800000
PUBLIC	__real@3f860a92
PUBLIC	__real@3fc0c15240000000
PUBLIC	__real@3fc90fdb
PUBLIC	__real@3fd0c15240000000
PUBLIC	__real@3fe0000000000000
PUBLIC	__real@3fe921fb60000000
PUBLIC	__real@3ff921fb51000000
PUBLIC	__real@400921fb51000000
PUBLIC	__real@401921fb51000000
PUBLIC	__real@40490fdb
PUBLIC	__real@409f400000000000
PUBLIC	__real@40c90fdb
PUBLIC	__real@bfe921fb60000000
PUBLIC	__real@c00921fb51000000
EXTRN	?limit_radar_sweep@@YGXPAURADAR_PARAMS@@@Z:PROC	; limit_radar_sweep
EXTRN	?get_next_ground_radar_target@@YGXXZ:PROC	; get_next_ground_radar_target
EXTRN	?get_previous_ground_radar_target@@YGXXZ:PROC	; get_previous_ground_radar_target
EXTRN	?select_next_designated_ground_radar_target@@YGXXZ:PROC ; select_next_designated_ground_radar_target
EXTRN	?get_next_air_radar_target@@YGXXZ:PROC		; get_next_air_radar_target
EXTRN	?get_previous_air_radar_target@@YGXXZ:PROC	; get_previous_air_radar_target
EXTRN	?select_next_designated_air_radar_target@@YGXXZ:PROC ; select_next_designated_air_radar_target
EXTRN	?command_line_designated_targets@@3HA:DWORD	; command_line_designated_targets
EXTRN	?single_target_acquisition_system_steer_left_key@@3HA:DWORD ; single_target_acquisition_system_steer_left_key
EXTRN	?single_target_acquisition_system_steer_right_key@@3HA:DWORD ; single_target_acquisition_system_steer_right_key
EXTRN	?single_target_acquisition_system_steer_up_key@@3HA:DWORD ; single_target_acquisition_system_steer_up_key
EXTRN	?single_target_acquisition_system_steer_down_key@@3HA:DWORD ; single_target_acquisition_system_steer_down_key
EXTRN	?single_target_acquisition_system_inc_range_key@@3HA:DWORD ; single_target_acquisition_system_inc_range_key
EXTRN	?single_target_acquisition_system_dec_range_key@@3HA:DWORD ; single_target_acquisition_system_dec_range_key
EXTRN	?single_target_acquisition_system_inc_target_priority_key@@3HA:DWORD ; single_target_acquisition_system_inc_target_priority_key
EXTRN	?single_target_acquisition_system_dec_target_priority_key@@3HA:DWORD ; single_target_acquisition_system_dec_target_priority_key
EXTRN	?single_target_acquisition_system_select_next_target_key@@3HA:DWORD ; single_target_acquisition_system_select_next_target_key
EXTRN	?single_target_acquisition_system_select_previous_target_key@@3HA:DWORD ; single_target_acquisition_system_select_previous_target_key
EXTRN	?single_target_acquisition_system_select_next_designated_key@@3HA:DWORD ; single_target_acquisition_system_select_next_designated_key
EXTRN	?single_target_acquisition_system_select_previous_designated_key@@3HA:DWORD ; single_target_acquisition_system_select_previous_designated_key
EXTRN	?single_target_acquisition_system_steer_left_fast_key@@3HA:DWORD ; single_target_acquisition_system_steer_left_fast_key
EXTRN	?single_target_acquisition_system_steer_right_fast_key@@3HA:DWORD ; single_target_acquisition_system_steer_right_fast_key
EXTRN	?single_target_acquisition_system_steer_up_fast_key@@3HA:DWORD ; single_target_acquisition_system_steer_up_fast_key
EXTRN	?single_target_acquisition_system_steer_down_fast_key@@3HA:DWORD ; single_target_acquisition_system_steer_down_fast_key
EXTRN	?single_target_acquisition_system_inc_range_fast_key@@3HA:DWORD ; single_target_acquisition_system_inc_range_fast_key
EXTRN	?single_target_acquisition_system_dec_range_fast_key@@3HA:DWORD ; single_target_acquisition_system_dec_range_fast_key
EXTRN	?single_target_acquisition_system_inc_target_priority_fast_key@@3HA:DWORD ; single_target_acquisition_system_inc_target_priority_fast_key
EXTRN	?single_target_acquisition_system_dec_target_priority_fast_key@@3HA:DWORD ; single_target_acquisition_system_dec_target_priority_fast_key
EXTRN	?ground_radar@@3URADAR_PARAMS@@A:BYTE		; ground_radar
EXTRN	?air_radar@@3URADAR_PARAMS@@A:BYTE		; air_radar
EXTRN	__fltused:DWORD
;	COMDAT __real@c00921fb51000000
CONST	SEGMENT
__real@c00921fb51000000 DQ 0c00921fb51000000r	; -3.14159
CONST	ENDS
;	COMDAT __real@bfe921fb60000000
CONST	SEGMENT
__real@bfe921fb60000000 DQ 0bfe921fb60000000r	; -0.785398
CONST	ENDS
;	COMDAT __real@40c90fdb
CONST	SEGMENT
__real@40c90fdb DD 040c90fdbr			; 6.28319
CONST	ENDS
;	COMDAT __real@409f400000000000
CONST	SEGMENT
__real@409f400000000000 DQ 0409f400000000000r	; 2000
CONST	ENDS
;	COMDAT __real@40490fdb
CONST	SEGMENT
__real@40490fdb DD 040490fdbr			; 3.14159
CONST	ENDS
;	COMDAT __real@401921fb51000000
CONST	SEGMENT
__real@401921fb51000000 DQ 0401921fb51000000r	; 6.28319
CONST	ENDS
;	COMDAT __real@400921fb51000000
CONST	SEGMENT
__real@400921fb51000000 DQ 0400921fb51000000r	; 3.14159
CONST	ENDS
;	COMDAT __real@3ff921fb51000000
CONST	SEGMENT
__real@3ff921fb51000000 DQ 03ff921fb51000000r	; 1.5708
CONST	ENDS
;	COMDAT __real@3fe921fb60000000
CONST	SEGMENT
__real@3fe921fb60000000 DQ 03fe921fb60000000r	; 0.785398
CONST	ENDS
;	COMDAT __real@3fe0000000000000
CONST	SEGMENT
__real@3fe0000000000000 DQ 03fe0000000000000r	; 0.5
CONST	ENDS
;	COMDAT __real@3fd0c15240000000
CONST	SEGMENT
__real@3fd0c15240000000 DQ 03fd0c15240000000r	; 0.261799
CONST	ENDS
;	COMDAT __real@3fc90fdb
CONST	SEGMENT
__real@3fc90fdb DD 03fc90fdbr			; 1.5708
CONST	ENDS
;	COMDAT __real@3fc0c15240000000
CONST	SEGMENT
__real@3fc0c15240000000 DQ 03fc0c15240000000r	; 0.1309
CONST	ENDS
;	COMDAT __real@3f860a92
CONST	SEGMENT
__real@3f860a92 DD 03f860a92r			; 1.0472
CONST	ENDS
;	COMDAT __real@3f800000
CONST	SEGMENT
__real@3f800000 DD 03f800000r			; 1
CONST	ENDS
;	COMDAT __real@3f490fdb
CONST	SEGMENT
__real@3f490fdb DD 03f490fdbr			; 0.785398
CONST	ENDS
;	COMDAT __real@3f060a92
CONST	SEGMENT
__real@3f060a92 DD 03f060a92r			; 0.523599
CONST	ENDS
;	COMDAT __real@3e860a92
CONST	SEGMENT
__real@3e860a92 DD 03e860a92r			; 0.261799
CONST	ENDS
; Function compile flags: /Odtp /ZI
; File c:\users\nhv90\projects\eech\aphavoc\source\gunships\avionics\apache\ap_radar.c
;	COMDAT ?select_previous_air_radar_target@@YGXXZ
_TEXT	SEGMENT
?select_previous_air_radar_target@@YGXXZ PROC		; select_previous_air_radar_target, COMDAT

; 888  : {

  00000	55		 push	 ebp
  00001	8b ec		 mov	 ebp, esp
  00003	83 ec 40	 sub	 esp, 64			; 00000040H
  00006	53		 push	 ebx
  00007	56		 push	 esi
  00008	57		 push	 edi

; 889  : 	get_previous_air_radar_target ();

  00009	e8 00 00 00 00	 call	 ?get_previous_air_radar_target@@YGXXZ ; get_previous_air_radar_target

; 890  : }

  0000e	5f		 pop	 edi
  0000f	5e		 pop	 esi
  00010	5b		 pop	 ebx
  00011	8b e5		 mov	 esp, ebp
  00013	5d		 pop	 ebp
  00014	c3		 ret	 0
?select_previous_air_radar_target@@YGXXZ ENDP		; select_previous_air_radar_target
_TEXT	ENDS
; Function compile flags: /Odtp /ZI
; File c:\users\nhv90\projects\eech\aphavoc\source\gunships\avionics\apache\ap_radar.c
;	COMDAT ?select_next_air_radar_target@@YGXXZ
_TEXT	SEGMENT
?select_next_air_radar_target@@YGXXZ PROC		; select_next_air_radar_target, COMDAT

; 879  : {

  00000	55		 push	 ebp
  00001	8b ec		 mov	 ebp, esp
  00003	83 ec 40	 sub	 esp, 64			; 00000040H
  00006	53		 push	 ebx
  00007	56		 push	 esi
  00008	57		 push	 edi

; 880  : 	get_next_air_radar_target ();

  00009	e8 00 00 00 00	 call	 ?get_next_air_radar_target@@YGXXZ ; get_next_air_radar_target

; 881  : }

  0000e	5f		 pop	 edi
  0000f	5e		 pop	 esi
  00010	5b		 pop	 ebx
  00011	8b e5		 mov	 esp, ebp
  00013	5d		 pop	 ebp
  00014	c3		 ret	 0
?select_next_air_radar_target@@YGXXZ ENDP		; select_next_air_radar_target
_TEXT	ENDS
; Function compile flags: /Odtp /ZI
; File c:\users\nhv90\projects\eech\aphavoc\source\gunships\avionics\apache\ap_radar.c
;	COMDAT ?fast_dec_air_radar_scan_range@@YGXXZ
_TEXT	SEGMENT
?fast_dec_air_radar_scan_range@@YGXXZ PROC		; fast_dec_air_radar_scan_range, COMDAT

; 870  : {

  00000	55		 push	 ebp
  00001	8b ec		 mov	 ebp, esp
  00003	83 ec 40	 sub	 esp, 64			; 00000040H
  00006	53		 push	 ebx
  00007	56		 push	 esi
  00008	57		 push	 edi

; 871  : 	air_radar.scan_range = APACHE_RADAR_SCAN_RANGE_500;

  00009	f3 0f 10 05 00
	00 00 00	 movss	 xmm0, DWORD PTR ?APACHE_RADAR_SCAN_RANGE_500@@3MA
  00011	f3 0f 11 05 00
	00 00 00	 movss	 DWORD PTR ?air_radar@@3URADAR_PARAMS@@A, xmm0

; 872  : }

  00019	5f		 pop	 edi
  0001a	5e		 pop	 esi
  0001b	5b		 pop	 ebx
  0001c	8b e5		 mov	 esp, ebp
  0001e	5d		 pop	 ebp
  0001f	c3		 ret	 0
?fast_dec_air_radar_scan_range@@YGXXZ ENDP		; fast_dec_air_radar_scan_range
_TEXT	ENDS
; Function compile flags: /Odtp /ZI
; File c:\users\nhv90\projects\eech\aphavoc\source\gunships\avionics\apache\ap_radar.c
;	COMDAT ?dec_air_radar_scan_range@@YGXXZ
_TEXT	SEGMENT
?dec_air_radar_scan_range@@YGXXZ PROC			; dec_air_radar_scan_range, COMDAT

; 846  : {

  00000	55		 push	 ebp
  00001	8b ec		 mov	 ebp, esp
  00003	83 ec 40	 sub	 esp, 64			; 00000040H
  00006	53		 push	 ebx
  00007	56		 push	 esi
  00008	57		 push	 edi

; 847  : 	if (air_radar.scan_range == APACHE_RADAR_SCAN_RANGE_8000)

  00009	f3 0f 10 05 00
	00 00 00	 movss	 xmm0, DWORD PTR ?air_radar@@3URADAR_PARAMS@@A
  00011	0f 2e 05 00 00
	00 00		 ucomiss xmm0, DWORD PTR ?APACHE_RADAR_SCAN_RANGE_8000@@3MA
  00018	9f		 lahf
  00019	f6 c4 44	 test	 ah, 68			; 00000044H
  0001c	7a 12		 jp	 SHORT $LN2@dec_air_ra

; 848  : 	{
; 849  : 		air_radar.scan_range = APACHE_RADAR_SCAN_RANGE_4000;

  0001e	f3 0f 10 05 00
	00 00 00	 movss	 xmm0, DWORD PTR ?APACHE_RADAR_SCAN_RANGE_4000@@3MA
  00026	f3 0f 11 05 00
	00 00 00	 movss	 DWORD PTR ?air_radar@@3URADAR_PARAMS@@A, xmm0
  0002e	eb 73		 jmp	 SHORT $LN8@dec_air_ra
$LN2@dec_air_ra:

; 850  : 	}
; 851  : 	else if (air_radar.scan_range == APACHE_RADAR_SCAN_RANGE_4000)

  00030	f3 0f 10 05 00
	00 00 00	 movss	 xmm0, DWORD PTR ?air_radar@@3URADAR_PARAMS@@A
  00038	0f 2e 05 00 00
	00 00		 ucomiss xmm0, DWORD PTR ?APACHE_RADAR_SCAN_RANGE_4000@@3MA
  0003f	9f		 lahf
  00040	f6 c4 44	 test	 ah, 68			; 00000044H
  00043	7a 12		 jp	 SHORT $LN4@dec_air_ra

; 852  : 	{
; 853  : 		air_radar.scan_range = APACHE_RADAR_SCAN_RANGE_2000;

  00045	f3 0f 10 05 00
	00 00 00	 movss	 xmm0, DWORD PTR ?APACHE_RADAR_SCAN_RANGE_2000@@3MA
  0004d	f3 0f 11 05 00
	00 00 00	 movss	 DWORD PTR ?air_radar@@3URADAR_PARAMS@@A, xmm0
  00055	eb 4c		 jmp	 SHORT $LN8@dec_air_ra
$LN4@dec_air_ra:

; 854  : 	}
; 855  : 	else if (air_radar.scan_range == APACHE_RADAR_SCAN_RANGE_2000)

  00057	f3 0f 10 05 00
	00 00 00	 movss	 xmm0, DWORD PTR ?air_radar@@3URADAR_PARAMS@@A
  0005f	0f 2e 05 00 00
	00 00		 ucomiss xmm0, DWORD PTR ?APACHE_RADAR_SCAN_RANGE_2000@@3MA
  00066	9f		 lahf
  00067	f6 c4 44	 test	 ah, 68			; 00000044H
  0006a	7a 12		 jp	 SHORT $LN6@dec_air_ra

; 856  : 	{
; 857  : 		air_radar.scan_range = APACHE_RADAR_SCAN_RANGE_1000;

  0006c	f3 0f 10 05 00
	00 00 00	 movss	 xmm0, DWORD PTR ?APACHE_RADAR_SCAN_RANGE_1000@@3MA
  00074	f3 0f 11 05 00
	00 00 00	 movss	 DWORD PTR ?air_radar@@3URADAR_PARAMS@@A, xmm0
  0007c	eb 25		 jmp	 SHORT $LN8@dec_air_ra
$LN6@dec_air_ra:

; 858  : 	}
; 859  : 	else if (air_radar.scan_range == APACHE_RADAR_SCAN_RANGE_1000)

  0007e	f3 0f 10 05 00
	00 00 00	 movss	 xmm0, DWORD PTR ?air_radar@@3URADAR_PARAMS@@A
  00086	0f 2e 05 00 00
	00 00		 ucomiss xmm0, DWORD PTR ?APACHE_RADAR_SCAN_RANGE_1000@@3MA
  0008d	9f		 lahf
  0008e	f6 c4 44	 test	 ah, 68			; 00000044H
  00091	7a 10		 jp	 SHORT $LN8@dec_air_ra

; 860  : 	{
; 861  : 		air_radar.scan_range = APACHE_RADAR_SCAN_RANGE_500;

  00093	f3 0f 10 05 00
	00 00 00	 movss	 xmm0, DWORD PTR ?APACHE_RADAR_SCAN_RANGE_500@@3MA
  0009b	f3 0f 11 05 00
	00 00 00	 movss	 DWORD PTR ?air_radar@@3URADAR_PARAMS@@A, xmm0
$LN8@dec_air_ra:

; 862  : 	}
; 863  : }

  000a3	5f		 pop	 edi
  000a4	5e		 pop	 esi
  000a5	5b		 pop	 ebx
  000a6	8b e5		 mov	 esp, ebp
  000a8	5d		 pop	 ebp
  000a9	c3		 ret	 0
?dec_air_radar_scan_range@@YGXXZ ENDP			; dec_air_radar_scan_range
_TEXT	ENDS
; Function compile flags: /Odtp /ZI
; File c:\users\nhv90\projects\eech\aphavoc\source\gunships\avionics\apache\ap_radar.c
;	COMDAT ?fast_inc_air_radar_scan_range@@YGXXZ
_TEXT	SEGMENT
?fast_inc_air_radar_scan_range@@YGXXZ PROC		; fast_inc_air_radar_scan_range, COMDAT

; 837  : {

  00000	55		 push	 ebp
  00001	8b ec		 mov	 ebp, esp
  00003	83 ec 40	 sub	 esp, 64			; 00000040H
  00006	53		 push	 ebx
  00007	56		 push	 esi
  00008	57		 push	 edi

; 838  : 	air_radar.scan_range = APACHE_RADAR_SCAN_RANGE_8000;

  00009	f3 0f 10 05 00
	00 00 00	 movss	 xmm0, DWORD PTR ?APACHE_RADAR_SCAN_RANGE_8000@@3MA
  00011	f3 0f 11 05 00
	00 00 00	 movss	 DWORD PTR ?air_radar@@3URADAR_PARAMS@@A, xmm0

; 839  : }

  00019	5f		 pop	 edi
  0001a	5e		 pop	 esi
  0001b	5b		 pop	 ebx
  0001c	8b e5		 mov	 esp, ebp
  0001e	5d		 pop	 ebp
  0001f	c3		 ret	 0
?fast_inc_air_radar_scan_range@@YGXXZ ENDP		; fast_inc_air_radar_scan_range
_TEXT	ENDS
; Function compile flags: /Odtp /ZI
; File c:\users\nhv90\projects\eech\aphavoc\source\gunships\avionics\apache\ap_radar.c
;	COMDAT ?inc_air_radar_scan_range@@YGXXZ
_TEXT	SEGMENT
?inc_air_radar_scan_range@@YGXXZ PROC			; inc_air_radar_scan_range, COMDAT

; 813  : {

  00000	55		 push	 ebp
  00001	8b ec		 mov	 ebp, esp
  00003	83 ec 40	 sub	 esp, 64			; 00000040H
  00006	53		 push	 ebx
  00007	56		 push	 esi
  00008	57		 push	 edi

; 814  : 	if (air_radar.scan_range == APACHE_RADAR_SCAN_RANGE_500)

  00009	f3 0f 10 05 00
	00 00 00	 movss	 xmm0, DWORD PTR ?air_radar@@3URADAR_PARAMS@@A
  00011	0f 2e 05 00 00
	00 00		 ucomiss xmm0, DWORD PTR ?APACHE_RADAR_SCAN_RANGE_500@@3MA
  00018	9f		 lahf
  00019	f6 c4 44	 test	 ah, 68			; 00000044H
  0001c	7a 12		 jp	 SHORT $LN2@inc_air_ra

; 815  : 	{
; 816  : 		air_radar.scan_range = APACHE_RADAR_SCAN_RANGE_1000;

  0001e	f3 0f 10 05 00
	00 00 00	 movss	 xmm0, DWORD PTR ?APACHE_RADAR_SCAN_RANGE_1000@@3MA
  00026	f3 0f 11 05 00
	00 00 00	 movss	 DWORD PTR ?air_radar@@3URADAR_PARAMS@@A, xmm0
  0002e	eb 73		 jmp	 SHORT $LN8@inc_air_ra
$LN2@inc_air_ra:

; 817  : 	}
; 818  : 	else if (air_radar.scan_range == APACHE_RADAR_SCAN_RANGE_1000)

  00030	f3 0f 10 05 00
	00 00 00	 movss	 xmm0, DWORD PTR ?air_radar@@3URADAR_PARAMS@@A
  00038	0f 2e 05 00 00
	00 00		 ucomiss xmm0, DWORD PTR ?APACHE_RADAR_SCAN_RANGE_1000@@3MA
  0003f	9f		 lahf
  00040	f6 c4 44	 test	 ah, 68			; 00000044H
  00043	7a 12		 jp	 SHORT $LN4@inc_air_ra

; 819  : 	{
; 820  : 		air_radar.scan_range = APACHE_RADAR_SCAN_RANGE_2000;

  00045	f3 0f 10 05 00
	00 00 00	 movss	 xmm0, DWORD PTR ?APACHE_RADAR_SCAN_RANGE_2000@@3MA
  0004d	f3 0f 11 05 00
	00 00 00	 movss	 DWORD PTR ?air_radar@@3URADAR_PARAMS@@A, xmm0
  00055	eb 4c		 jmp	 SHORT $LN8@inc_air_ra
$LN4@inc_air_ra:

; 821  : 	}
; 822  : 	else if (air_radar.scan_range == APACHE_RADAR_SCAN_RANGE_2000)

  00057	f3 0f 10 05 00
	00 00 00	 movss	 xmm0, DWORD PTR ?air_radar@@3URADAR_PARAMS@@A
  0005f	0f 2e 05 00 00
	00 00		 ucomiss xmm0, DWORD PTR ?APACHE_RADAR_SCAN_RANGE_2000@@3MA
  00066	9f		 lahf
  00067	f6 c4 44	 test	 ah, 68			; 00000044H
  0006a	7a 12		 jp	 SHORT $LN6@inc_air_ra

; 823  : 	{
; 824  : 		air_radar.scan_range = APACHE_RADAR_SCAN_RANGE_4000;

  0006c	f3 0f 10 05 00
	00 00 00	 movss	 xmm0, DWORD PTR ?APACHE_RADAR_SCAN_RANGE_4000@@3MA
  00074	f3 0f 11 05 00
	00 00 00	 movss	 DWORD PTR ?air_radar@@3URADAR_PARAMS@@A, xmm0
  0007c	eb 25		 jmp	 SHORT $LN8@inc_air_ra
$LN6@inc_air_ra:

; 825  : 	}
; 826  : 	else if (air_radar.scan_range == APACHE_RADAR_SCAN_RANGE_4000)

  0007e	f3 0f 10 05 00
	00 00 00	 movss	 xmm0, DWORD PTR ?air_radar@@3URADAR_PARAMS@@A
  00086	0f 2e 05 00 00
	00 00		 ucomiss xmm0, DWORD PTR ?APACHE_RADAR_SCAN_RANGE_4000@@3MA
  0008d	9f		 lahf
  0008e	f6 c4 44	 test	 ah, 68			; 00000044H
  00091	7a 10		 jp	 SHORT $LN8@inc_air_ra

; 827  : 	{
; 828  : 		air_radar.scan_range = APACHE_RADAR_SCAN_RANGE_8000;

  00093	f3 0f 10 05 00
	00 00 00	 movss	 xmm0, DWORD PTR ?APACHE_RADAR_SCAN_RANGE_8000@@3MA
  0009b	f3 0f 11 05 00
	00 00 00	 movss	 DWORD PTR ?air_radar@@3URADAR_PARAMS@@A, xmm0
$LN8@inc_air_ra:

; 829  : 	}
; 830  : }

  000a3	5f		 pop	 edi
  000a4	5e		 pop	 esi
  000a5	5b		 pop	 ebx
  000a6	8b e5		 mov	 esp, ebp
  000a8	5d		 pop	 ebp
  000a9	c3		 ret	 0
?inc_air_radar_scan_range@@YGXXZ ENDP			; inc_air_radar_scan_range
_TEXT	ENDS
; Function compile flags: /Odtp /ZI
; File c:\users\nhv90\projects\eech\aphavoc\source\gunships\avionics\apache\ap_radar.c
;	COMDAT ?fast_dec_air_radar_scan_arc_size@@YGXXZ
_TEXT	SEGMENT
?fast_dec_air_radar_scan_arc_size@@YGXXZ PROC		; fast_dec_air_radar_scan_arc_size, COMDAT

; 802  : {

  00000	55		 push	 ebp
  00001	8b ec		 mov	 ebp, esp
  00003	83 ec 40	 sub	 esp, 64			; 00000040H
  00006	53		 push	 ebx
  00007	56		 push	 esi
  00008	57		 push	 edi

; 803  : 	air_radar.scan_arc_size = APACHE_RADAR_SCAN_ARC_SIZE_30;

  00009	f3 0f 10 05 00
	00 00 00	 movss	 xmm0, DWORD PTR __real@3f060a92
  00011	f3 0f 11 05 08
	00 00 00	 movss	 DWORD PTR ?air_radar@@3URADAR_PARAMS@@A+8, xmm0

; 804  : 
; 805  : 	limit_radar_sweep (&air_radar);

  00019	68 00 00 00 00	 push	 OFFSET ?air_radar@@3URADAR_PARAMS@@A ; air_radar
  0001e	e8 00 00 00 00	 call	 ?limit_radar_sweep@@YGXPAURADAR_PARAMS@@@Z ; limit_radar_sweep

; 806  : }

  00023	5f		 pop	 edi
  00024	5e		 pop	 esi
  00025	5b		 pop	 ebx
  00026	8b e5		 mov	 esp, ebp
  00028	5d		 pop	 ebp
  00029	c3		 ret	 0
?fast_dec_air_radar_scan_arc_size@@YGXXZ ENDP		; fast_dec_air_radar_scan_arc_size
_TEXT	ENDS
; Function compile flags: /Odtp /ZI
; File c:\users\nhv90\projects\eech\aphavoc\source\gunships\avionics\apache\ap_radar.c
;	COMDAT ?dec_air_radar_scan_arc_size@@YGXXZ
_TEXT	SEGMENT
?dec_air_radar_scan_arc_size@@YGXXZ PROC		; dec_air_radar_scan_arc_size, COMDAT

; 772  : {

  00000	55		 push	 ebp
  00001	8b ec		 mov	 ebp, esp
  00003	83 ec 40	 sub	 esp, 64			; 00000040H
  00006	53		 push	 ebx
  00007	56		 push	 esi
  00008	57		 push	 edi

; 773  : 	if (air_radar.scan_arc_size == APACHE_RADAR_SCAN_ARC_SIZE_360)

  00009	f3 0f 10 05 08
	00 00 00	 movss	 xmm0, DWORD PTR ?air_radar@@3URADAR_PARAMS@@A+8
  00011	0f 2e 05 00 00
	00 00		 ucomiss xmm0, DWORD PTR __real@40c90fdb
  00018	9f		 lahf
  00019	f6 c4 44	 test	 ah, 68			; 00000044H
  0001c	7a 15		 jp	 SHORT $LN2@dec_air_ra

; 774  : 	{
; 775  : 		air_radar.scan_arc_size = APACHE_RADAR_SCAN_ARC_SIZE_180;

  0001e	f3 0f 10 05 00
	00 00 00	 movss	 xmm0, DWORD PTR __real@40490fdb
  00026	f3 0f 11 05 08
	00 00 00	 movss	 DWORD PTR ?air_radar@@3URADAR_PARAMS@@A+8, xmm0
  0002e	e9 9a 00 00 00	 jmp	 $LN10@dec_air_ra
$LN2@dec_air_ra:

; 776  : 	}
; 777  : 	else if (air_radar.scan_arc_size == APACHE_RADAR_SCAN_ARC_SIZE_180)

  00033	f3 0f 10 05 08
	00 00 00	 movss	 xmm0, DWORD PTR ?air_radar@@3URADAR_PARAMS@@A+8
  0003b	0f 2e 05 00 00
	00 00		 ucomiss xmm0, DWORD PTR __real@40490fdb
  00042	9f		 lahf
  00043	f6 c4 44	 test	 ah, 68			; 00000044H
  00046	7a 12		 jp	 SHORT $LN4@dec_air_ra

; 778  : 	{
; 779  : 		air_radar.scan_arc_size = APACHE_RADAR_SCAN_ARC_SIZE_90;

  00048	f3 0f 10 05 00
	00 00 00	 movss	 xmm0, DWORD PTR __real@3fc90fdb
  00050	f3 0f 11 05 08
	00 00 00	 movss	 DWORD PTR ?air_radar@@3URADAR_PARAMS@@A+8, xmm0
  00058	eb 73		 jmp	 SHORT $LN10@dec_air_ra
$LN4@dec_air_ra:

; 780  : 	}
; 781  : 	else if (air_radar.scan_arc_size == APACHE_RADAR_SCAN_ARC_SIZE_90)

  0005a	f3 0f 10 05 08
	00 00 00	 movss	 xmm0, DWORD PTR ?air_radar@@3URADAR_PARAMS@@A+8
  00062	0f 2e 05 00 00
	00 00		 ucomiss xmm0, DWORD PTR __real@3fc90fdb
  00069	9f		 lahf
  0006a	f6 c4 44	 test	 ah, 68			; 00000044H
  0006d	7a 12		 jp	 SHORT $LN6@dec_air_ra

; 782  : 	{
; 783  : 		air_radar.scan_arc_size = APACHE_RADAR_SCAN_ARC_SIZE_60;

  0006f	f3 0f 10 05 00
	00 00 00	 movss	 xmm0, DWORD PTR __real@3f860a92
  00077	f3 0f 11 05 08
	00 00 00	 movss	 DWORD PTR ?air_radar@@3URADAR_PARAMS@@A+8, xmm0
  0007f	eb 4c		 jmp	 SHORT $LN10@dec_air_ra
$LN6@dec_air_ra:

; 784  : 	}
; 785  : 	else if (air_radar.scan_arc_size == APACHE_RADAR_SCAN_ARC_SIZE_60)

  00081	f3 0f 10 05 08
	00 00 00	 movss	 xmm0, DWORD PTR ?air_radar@@3URADAR_PARAMS@@A+8
  00089	0f 2e 05 00 00
	00 00		 ucomiss xmm0, DWORD PTR __real@3f860a92
  00090	9f		 lahf
  00091	f6 c4 44	 test	 ah, 68			; 00000044H
  00094	7a 12		 jp	 SHORT $LN8@dec_air_ra

; 786  : 	{
; 787  : 		air_radar.scan_arc_size = APACHE_RADAR_SCAN_ARC_SIZE_45;

  00096	f3 0f 10 05 00
	00 00 00	 movss	 xmm0, DWORD PTR __real@3f490fdb
  0009e	f3 0f 11 05 08
	00 00 00	 movss	 DWORD PTR ?air_radar@@3URADAR_PARAMS@@A+8, xmm0
  000a6	eb 25		 jmp	 SHORT $LN10@dec_air_ra
$LN8@dec_air_ra:

; 788  : 	}
; 789  : 	else if (air_radar.scan_arc_size == APACHE_RADAR_SCAN_ARC_SIZE_45)

  000a8	f3 0f 10 05 08
	00 00 00	 movss	 xmm0, DWORD PTR ?air_radar@@3URADAR_PARAMS@@A+8
  000b0	0f 2e 05 00 00
	00 00		 ucomiss xmm0, DWORD PTR __real@3f490fdb
  000b7	9f		 lahf
  000b8	f6 c4 44	 test	 ah, 68			; 00000044H
  000bb	7a 10		 jp	 SHORT $LN10@dec_air_ra

; 790  : 	{
; 791  : 		air_radar.scan_arc_size = APACHE_RADAR_SCAN_ARC_SIZE_30;

  000bd	f3 0f 10 05 00
	00 00 00	 movss	 xmm0, DWORD PTR __real@3f060a92
  000c5	f3 0f 11 05 08
	00 00 00	 movss	 DWORD PTR ?air_radar@@3URADAR_PARAMS@@A+8, xmm0
$LN10@dec_air_ra:

; 792  : 	}
; 793  : 
; 794  : 	limit_radar_sweep (&air_radar);

  000cd	68 00 00 00 00	 push	 OFFSET ?air_radar@@3URADAR_PARAMS@@A ; air_radar
  000d2	e8 00 00 00 00	 call	 ?limit_radar_sweep@@YGXPAURADAR_PARAMS@@@Z ; limit_radar_sweep

; 795  : }

  000d7	5f		 pop	 edi
  000d8	5e		 pop	 esi
  000d9	5b		 pop	 ebx
  000da	8b e5		 mov	 esp, ebp
  000dc	5d		 pop	 ebp
  000dd	c3		 ret	 0
?dec_air_radar_scan_arc_size@@YGXXZ ENDP		; dec_air_radar_scan_arc_size
_TEXT	ENDS
; Function compile flags: /Odtp /ZI
; File c:\users\nhv90\projects\eech\aphavoc\source\gunships\avionics\apache\ap_radar.c
;	COMDAT ?fast_inc_air_radar_scan_arc_size@@YGXXZ
_TEXT	SEGMENT
?fast_inc_air_radar_scan_arc_size@@YGXXZ PROC		; fast_inc_air_radar_scan_arc_size, COMDAT

; 759  : {

  00000	55		 push	 ebp
  00001	8b ec		 mov	 ebp, esp
  00003	83 ec 40	 sub	 esp, 64			; 00000040H
  00006	53		 push	 ebx
  00007	56		 push	 esi
  00008	57		 push	 edi

; 760  : 	air_radar.scan_arc_size = APACHE_RADAR_SCAN_ARC_SIZE_360;

  00009	f3 0f 10 05 00
	00 00 00	 movss	 xmm0, DWORD PTR __real@40c90fdb
  00011	f3 0f 11 05 08
	00 00 00	 movss	 DWORD PTR ?air_radar@@3URADAR_PARAMS@@A+8, xmm0

; 761  : 
; 762  : 	air_radar.sweep_direction = RADAR_SWEEP_CW;

  00019	f3 0f 10 05 00
	00 00 00	 movss	 xmm0, DWORD PTR __real@3f800000
  00021	f3 0f 11 05 14
	00 00 00	 movss	 DWORD PTR ?air_radar@@3URADAR_PARAMS@@A+20, xmm0

; 763  : 
; 764  : 	limit_radar_sweep (&air_radar);

  00029	68 00 00 00 00	 push	 OFFSET ?air_radar@@3URADAR_PARAMS@@A ; air_radar
  0002e	e8 00 00 00 00	 call	 ?limit_radar_sweep@@YGXPAURADAR_PARAMS@@@Z ; limit_radar_sweep

; 765  : }

  00033	5f		 pop	 edi
  00034	5e		 pop	 esi
  00035	5b		 pop	 ebx
  00036	8b e5		 mov	 esp, ebp
  00038	5d		 pop	 ebp
  00039	c3		 ret	 0
?fast_inc_air_radar_scan_arc_size@@YGXXZ ENDP		; fast_inc_air_radar_scan_arc_size
_TEXT	ENDS
; Function compile flags: /Odtp /ZI
; File c:\users\nhv90\projects\eech\aphavoc\source\gunships\avionics\apache\ap_radar.c
;	COMDAT ?inc_air_radar_scan_arc_size@@YGXXZ
_TEXT	SEGMENT
?inc_air_radar_scan_arc_size@@YGXXZ PROC		; inc_air_radar_scan_arc_size, COMDAT

; 727  : {

  00000	55		 push	 ebp
  00001	8b ec		 mov	 ebp, esp
  00003	83 ec 40	 sub	 esp, 64			; 00000040H
  00006	53		 push	 ebx
  00007	56		 push	 esi
  00008	57		 push	 edi

; 728  : 	if (air_radar.scan_arc_size == APACHE_RADAR_SCAN_ARC_SIZE_30)

  00009	f3 0f 10 05 08
	00 00 00	 movss	 xmm0, DWORD PTR ?air_radar@@3URADAR_PARAMS@@A+8
  00011	0f 2e 05 00 00
	00 00		 ucomiss xmm0, DWORD PTR __real@3f060a92
  00018	9f		 lahf
  00019	f6 c4 44	 test	 ah, 68			; 00000044H
  0001c	7a 15		 jp	 SHORT $LN2@inc_air_ra

; 729  : 	{
; 730  : 		air_radar.scan_arc_size = APACHE_RADAR_SCAN_ARC_SIZE_45;

  0001e	f3 0f 10 05 00
	00 00 00	 movss	 xmm0, DWORD PTR __real@3f490fdb
  00026	f3 0f 11 05 08
	00 00 00	 movss	 DWORD PTR ?air_radar@@3URADAR_PARAMS@@A+8, xmm0
  0002e	e9 ad 00 00 00	 jmp	 $LN10@inc_air_ra
$LN2@inc_air_ra:

; 731  : 	}
; 732  : 	else if (air_radar.scan_arc_size == APACHE_RADAR_SCAN_ARC_SIZE_45)

  00033	f3 0f 10 05 08
	00 00 00	 movss	 xmm0, DWORD PTR ?air_radar@@3URADAR_PARAMS@@A+8
  0003b	0f 2e 05 00 00
	00 00		 ucomiss xmm0, DWORD PTR __real@3f490fdb
  00042	9f		 lahf
  00043	f6 c4 44	 test	 ah, 68			; 00000044H
  00046	7a 15		 jp	 SHORT $LN4@inc_air_ra

; 733  : 	{
; 734  : 		air_radar.scan_arc_size = APACHE_RADAR_SCAN_ARC_SIZE_60;

  00048	f3 0f 10 05 00
	00 00 00	 movss	 xmm0, DWORD PTR __real@3f860a92
  00050	f3 0f 11 05 08
	00 00 00	 movss	 DWORD PTR ?air_radar@@3URADAR_PARAMS@@A+8, xmm0
  00058	e9 83 00 00 00	 jmp	 $LN10@inc_air_ra
$LN4@inc_air_ra:

; 735  : 	}
; 736  : 	else if (air_radar.scan_arc_size == APACHE_RADAR_SCAN_ARC_SIZE_60)

  0005d	f3 0f 10 05 08
	00 00 00	 movss	 xmm0, DWORD PTR ?air_radar@@3URADAR_PARAMS@@A+8
  00065	0f 2e 05 00 00
	00 00		 ucomiss xmm0, DWORD PTR __real@3f860a92
  0006c	9f		 lahf
  0006d	f6 c4 44	 test	 ah, 68			; 00000044H
  00070	7a 12		 jp	 SHORT $LN6@inc_air_ra

; 737  : 	{
; 738  : 		air_radar.scan_arc_size = APACHE_RADAR_SCAN_ARC_SIZE_90;

  00072	f3 0f 10 05 00
	00 00 00	 movss	 xmm0, DWORD PTR __real@3fc90fdb
  0007a	f3 0f 11 05 08
	00 00 00	 movss	 DWORD PTR ?air_radar@@3URADAR_PARAMS@@A+8, xmm0
  00082	eb 5c		 jmp	 SHORT $LN10@inc_air_ra
$LN6@inc_air_ra:

; 739  : 	}
; 740  : 	else if (air_radar.scan_arc_size == APACHE_RADAR_SCAN_ARC_SIZE_90)

  00084	f3 0f 10 05 08
	00 00 00	 movss	 xmm0, DWORD PTR ?air_radar@@3URADAR_PARAMS@@A+8
  0008c	0f 2e 05 00 00
	00 00		 ucomiss xmm0, DWORD PTR __real@3fc90fdb
  00093	9f		 lahf
  00094	f6 c4 44	 test	 ah, 68			; 00000044H
  00097	7a 12		 jp	 SHORT $LN8@inc_air_ra

; 741  : 	{
; 742  : 		air_radar.scan_arc_size = APACHE_RADAR_SCAN_ARC_SIZE_180;

  00099	f3 0f 10 05 00
	00 00 00	 movss	 xmm0, DWORD PTR __real@40490fdb
  000a1	f3 0f 11 05 08
	00 00 00	 movss	 DWORD PTR ?air_radar@@3URADAR_PARAMS@@A+8, xmm0
  000a9	eb 35		 jmp	 SHORT $LN10@inc_air_ra
$LN8@inc_air_ra:

; 743  : 	}
; 744  : 	else if (air_radar.scan_arc_size == APACHE_RADAR_SCAN_ARC_SIZE_180)

  000ab	f3 0f 10 05 08
	00 00 00	 movss	 xmm0, DWORD PTR ?air_radar@@3URADAR_PARAMS@@A+8
  000b3	0f 2e 05 00 00
	00 00		 ucomiss xmm0, DWORD PTR __real@40490fdb
  000ba	9f		 lahf
  000bb	f6 c4 44	 test	 ah, 68			; 00000044H
  000be	7a 20		 jp	 SHORT $LN10@inc_air_ra

; 745  : 	{
; 746  : 		air_radar.scan_arc_size = APACHE_RADAR_SCAN_ARC_SIZE_360;

  000c0	f3 0f 10 05 00
	00 00 00	 movss	 xmm0, DWORD PTR __real@40c90fdb
  000c8	f3 0f 11 05 08
	00 00 00	 movss	 DWORD PTR ?air_radar@@3URADAR_PARAMS@@A+8, xmm0

; 747  : 
; 748  : 		air_radar.sweep_direction = RADAR_SWEEP_CW;

  000d0	f3 0f 10 05 00
	00 00 00	 movss	 xmm0, DWORD PTR __real@3f800000
  000d8	f3 0f 11 05 14
	00 00 00	 movss	 DWORD PTR ?air_radar@@3URADAR_PARAMS@@A+20, xmm0
$LN10@inc_air_ra:

; 749  : 	}
; 750  : 
; 751  : 	limit_radar_sweep (&air_radar);

  000e0	68 00 00 00 00	 push	 OFFSET ?air_radar@@3URADAR_PARAMS@@A ; air_radar
  000e5	e8 00 00 00 00	 call	 ?limit_radar_sweep@@YGXPAURADAR_PARAMS@@@Z ; limit_radar_sweep

; 752  : }

  000ea	5f		 pop	 edi
  000eb	5e		 pop	 esi
  000ec	5b		 pop	 ebx
  000ed	8b e5		 mov	 esp, ebp
  000ef	5d		 pop	 ebp
  000f0	c3		 ret	 0
?inc_air_radar_scan_arc_size@@YGXXZ ENDP		; inc_air_radar_scan_arc_size
_TEXT	ENDS
; Function compile flags: /Odtp /ZI
; File c:\users\nhv90\projects\eech\aphavoc\source\gunships\avionics\apache\ap_radar.c
;	COMDAT ?fast_rotate_air_radar_scan_datum_right@@YGXXZ
_TEXT	SEGMENT
?fast_rotate_air_radar_scan_datum_right@@YGXXZ PROC	; fast_rotate_air_radar_scan_datum_right, COMDAT

; 709  : {

  00000	55		 push	 ebp
  00001	8b ec		 mov	 ebp, esp
  00003	83 ec 40	 sub	 esp, 64			; 00000040H
  00006	53		 push	 ebx
  00007	56		 push	 esi
  00008	57		 push	 edi

; 710  : 	air_radar.scan_datum += rad (90.0);

  00009	f3 0f 5a 05 04
	00 00 00	 cvtss2sd xmm0, DWORD PTR ?air_radar@@3URADAR_PARAMS@@A+4
  00011	f2 0f 58 05 00
	00 00 00	 addsd	 xmm0, QWORD PTR __real@3ff921fb51000000
  00019	f2 0f 5a c0	 cvtsd2ss xmm0, xmm0
  0001d	f3 0f 11 05 04
	00 00 00	 movss	 DWORD PTR ?air_radar@@3URADAR_PARAMS@@A+4, xmm0

; 711  : 
; 712  : 	air_radar.sweep_offset -= rad (90.0);

  00025	f3 0f 5a 05 0c
	00 00 00	 cvtss2sd xmm0, DWORD PTR ?air_radar@@3URADAR_PARAMS@@A+12
  0002d	f2 0f 5c 05 00
	00 00 00	 subsd	 xmm0, QWORD PTR __real@3ff921fb51000000
  00035	f2 0f 5a c0	 cvtsd2ss xmm0, xmm0
  00039	f3 0f 11 05 0c
	00 00 00	 movss	 DWORD PTR ?air_radar@@3URADAR_PARAMS@@A+12, xmm0

; 713  : 
; 714  : 	if (air_radar.scan_datum > rad (180.0))

  00041	f3 0f 5a 05 04
	00 00 00	 cvtss2sd xmm0, DWORD PTR ?air_radar@@3URADAR_PARAMS@@A+4
  00049	66 0f 2f 05 00
	00 00 00	 comisd	 xmm0, QWORD PTR __real@400921fb51000000
  00051	76 1c		 jbe	 SHORT $LN2@fast_rotat

; 715  : 	{
; 716  : 		air_radar.scan_datum -= rad (360.0);

  00053	f3 0f 5a 05 04
	00 00 00	 cvtss2sd xmm0, DWORD PTR ?air_radar@@3URADAR_PARAMS@@A+4
  0005b	f2 0f 5c 05 00
	00 00 00	 subsd	 xmm0, QWORD PTR __real@401921fb51000000
  00063	f2 0f 5a c0	 cvtsd2ss xmm0, xmm0
  00067	f3 0f 11 05 04
	00 00 00	 movss	 DWORD PTR ?air_radar@@3URADAR_PARAMS@@A+4, xmm0
$LN2@fast_rotat:

; 717  : 	}
; 718  : 
; 719  : 	limit_radar_sweep (&air_radar);

  0006f	68 00 00 00 00	 push	 OFFSET ?air_radar@@3URADAR_PARAMS@@A ; air_radar
  00074	e8 00 00 00 00	 call	 ?limit_radar_sweep@@YGXPAURADAR_PARAMS@@@Z ; limit_radar_sweep

; 720  : }

  00079	5f		 pop	 edi
  0007a	5e		 pop	 esi
  0007b	5b		 pop	 ebx
  0007c	8b e5		 mov	 esp, ebp
  0007e	5d		 pop	 ebp
  0007f	c3		 ret	 0
?fast_rotate_air_radar_scan_datum_right@@YGXXZ ENDP	; fast_rotate_air_radar_scan_datum_right
_TEXT	ENDS
; Function compile flags: /Odtp /ZI
; File c:\users\nhv90\projects\eech\aphavoc\source\gunships\avionics\apache\ap_radar.c
;	COMDAT ?rotate_air_radar_scan_datum_right@@YGXXZ
_TEXT	SEGMENT
?rotate_air_radar_scan_datum_right@@YGXXZ PROC		; rotate_air_radar_scan_datum_right, COMDAT

; 691  : {

  00000	55		 push	 ebp
  00001	8b ec		 mov	 ebp, esp
  00003	83 ec 40	 sub	 esp, 64			; 00000040H
  00006	53		 push	 ebx
  00007	56		 push	 esi
  00008	57		 push	 edi

; 692  : 	air_radar.scan_datum += APACHE_AIR_RADAR_SCAN_DATUM_ROTATE_STEP;

  00009	f3 0f 5a 05 04
	00 00 00	 cvtss2sd xmm0, DWORD PTR ?air_radar@@3URADAR_PARAMS@@A+4
  00011	f2 0f 58 05 00
	00 00 00	 addsd	 xmm0, QWORD PTR __real@3fd0c15240000000
  00019	f2 0f 5a c0	 cvtsd2ss xmm0, xmm0
  0001d	f3 0f 11 05 04
	00 00 00	 movss	 DWORD PTR ?air_radar@@3URADAR_PARAMS@@A+4, xmm0

; 693  : 
; 694  : 	air_radar.sweep_offset -= APACHE_AIR_RADAR_SCAN_DATUM_ROTATE_STEP;

  00025	f3 0f 5a 05 0c
	00 00 00	 cvtss2sd xmm0, DWORD PTR ?air_radar@@3URADAR_PARAMS@@A+12
  0002d	f2 0f 5c 05 00
	00 00 00	 subsd	 xmm0, QWORD PTR __real@3fd0c15240000000
  00035	f2 0f 5a c0	 cvtsd2ss xmm0, xmm0
  00039	f3 0f 11 05 0c
	00 00 00	 movss	 DWORD PTR ?air_radar@@3URADAR_PARAMS@@A+12, xmm0

; 695  : 
; 696  : 	if (air_radar.scan_datum > rad (180.0))

  00041	f3 0f 5a 05 04
	00 00 00	 cvtss2sd xmm0, DWORD PTR ?air_radar@@3URADAR_PARAMS@@A+4
  00049	66 0f 2f 05 00
	00 00 00	 comisd	 xmm0, QWORD PTR __real@400921fb51000000
  00051	76 1c		 jbe	 SHORT $LN2@rotate_air

; 697  : 	{
; 698  : 		air_radar.scan_datum -= rad (360.0);

  00053	f3 0f 5a 05 04
	00 00 00	 cvtss2sd xmm0, DWORD PTR ?air_radar@@3URADAR_PARAMS@@A+4
  0005b	f2 0f 5c 05 00
	00 00 00	 subsd	 xmm0, QWORD PTR __real@401921fb51000000
  00063	f2 0f 5a c0	 cvtsd2ss xmm0, xmm0
  00067	f3 0f 11 05 04
	00 00 00	 movss	 DWORD PTR ?air_radar@@3URADAR_PARAMS@@A+4, xmm0
$LN2@rotate_air:

; 699  : 	}
; 700  : 
; 701  : 	limit_radar_sweep (&air_radar);

  0006f	68 00 00 00 00	 push	 OFFSET ?air_radar@@3URADAR_PARAMS@@A ; air_radar
  00074	e8 00 00 00 00	 call	 ?limit_radar_sweep@@YGXPAURADAR_PARAMS@@@Z ; limit_radar_sweep

; 702  : }

  00079	5f		 pop	 edi
  0007a	5e		 pop	 esi
  0007b	5b		 pop	 ebx
  0007c	8b e5		 mov	 esp, ebp
  0007e	5d		 pop	 ebp
  0007f	c3		 ret	 0
?rotate_air_radar_scan_datum_right@@YGXXZ ENDP		; rotate_air_radar_scan_datum_right
_TEXT	ENDS
; Function compile flags: /Odtp /ZI
; File c:\users\nhv90\projects\eech\aphavoc\source\gunships\avionics\apache\ap_radar.c
;	COMDAT ?fast_rotate_air_radar_scan_datum_left@@YGXXZ
_TEXT	SEGMENT
?fast_rotate_air_radar_scan_datum_left@@YGXXZ PROC	; fast_rotate_air_radar_scan_datum_left, COMDAT

; 673  : {

  00000	55		 push	 ebp
  00001	8b ec		 mov	 ebp, esp
  00003	83 ec 40	 sub	 esp, 64			; 00000040H
  00006	53		 push	 ebx
  00007	56		 push	 esi
  00008	57		 push	 edi

; 674  : 	air_radar.scan_datum -= rad (90.0);

  00009	f3 0f 5a 05 04
	00 00 00	 cvtss2sd xmm0, DWORD PTR ?air_radar@@3URADAR_PARAMS@@A+4
  00011	f2 0f 5c 05 00
	00 00 00	 subsd	 xmm0, QWORD PTR __real@3ff921fb51000000
  00019	f2 0f 5a c0	 cvtsd2ss xmm0, xmm0
  0001d	f3 0f 11 05 04
	00 00 00	 movss	 DWORD PTR ?air_radar@@3URADAR_PARAMS@@A+4, xmm0

; 675  : 
; 676  : 	air_radar.sweep_offset += rad (90.0);

  00025	f3 0f 5a 05 0c
	00 00 00	 cvtss2sd xmm0, DWORD PTR ?air_radar@@3URADAR_PARAMS@@A+12
  0002d	f2 0f 58 05 00
	00 00 00	 addsd	 xmm0, QWORD PTR __real@3ff921fb51000000
  00035	f2 0f 5a c0	 cvtsd2ss xmm0, xmm0
  00039	f3 0f 11 05 0c
	00 00 00	 movss	 DWORD PTR ?air_radar@@3URADAR_PARAMS@@A+12, xmm0

; 677  : 
; 678  : 	if (air_radar.scan_datum < rad (-180.0))

  00041	f3 0f 5a 05 04
	00 00 00	 cvtss2sd xmm0, DWORD PTR ?air_radar@@3URADAR_PARAMS@@A+4
  00049	f2 0f 10 0d 00
	00 00 00	 movsd	 xmm1, QWORD PTR __real@c00921fb51000000
  00051	66 0f 2f c8	 comisd	 xmm1, xmm0
  00055	76 1c		 jbe	 SHORT $LN2@fast_rotat

; 679  : 	{
; 680  : 		air_radar.scan_datum += rad (360.0);

  00057	f3 0f 5a 05 04
	00 00 00	 cvtss2sd xmm0, DWORD PTR ?air_radar@@3URADAR_PARAMS@@A+4
  0005f	f2 0f 58 05 00
	00 00 00	 addsd	 xmm0, QWORD PTR __real@401921fb51000000
  00067	f2 0f 5a c0	 cvtsd2ss xmm0, xmm0
  0006b	f3 0f 11 05 04
	00 00 00	 movss	 DWORD PTR ?air_radar@@3URADAR_PARAMS@@A+4, xmm0
$LN2@fast_rotat:

; 681  : 	}
; 682  : 
; 683  : 	limit_radar_sweep (&air_radar);

  00073	68 00 00 00 00	 push	 OFFSET ?air_radar@@3URADAR_PARAMS@@A ; air_radar
  00078	e8 00 00 00 00	 call	 ?limit_radar_sweep@@YGXPAURADAR_PARAMS@@@Z ; limit_radar_sweep

; 684  : }

  0007d	5f		 pop	 edi
  0007e	5e		 pop	 esi
  0007f	5b		 pop	 ebx
  00080	8b e5		 mov	 esp, ebp
  00082	5d		 pop	 ebp
  00083	c3		 ret	 0
?fast_rotate_air_radar_scan_datum_left@@YGXXZ ENDP	; fast_rotate_air_radar_scan_datum_left
_TEXT	ENDS
; Function compile flags: /Odtp /ZI
; File c:\users\nhv90\projects\eech\aphavoc\source\gunships\avionics\apache\ap_radar.c
;	COMDAT ?rotate_air_radar_scan_datum_left@@YGXXZ
_TEXT	SEGMENT
?rotate_air_radar_scan_datum_left@@YGXXZ PROC		; rotate_air_radar_scan_datum_left, COMDAT

; 655  : {

  00000	55		 push	 ebp
  00001	8b ec		 mov	 ebp, esp
  00003	83 ec 40	 sub	 esp, 64			; 00000040H
  00006	53		 push	 ebx
  00007	56		 push	 esi
  00008	57		 push	 edi

; 656  : 	air_radar.scan_datum -= APACHE_AIR_RADAR_SCAN_DATUM_ROTATE_STEP;

  00009	f3 0f 5a 05 04
	00 00 00	 cvtss2sd xmm0, DWORD PTR ?air_radar@@3URADAR_PARAMS@@A+4
  00011	f2 0f 5c 05 00
	00 00 00	 subsd	 xmm0, QWORD PTR __real@3fd0c15240000000
  00019	f2 0f 5a c0	 cvtsd2ss xmm0, xmm0
  0001d	f3 0f 11 05 04
	00 00 00	 movss	 DWORD PTR ?air_radar@@3URADAR_PARAMS@@A+4, xmm0

; 657  : 
; 658  : 	air_radar.sweep_offset += APACHE_AIR_RADAR_SCAN_DATUM_ROTATE_STEP;

  00025	f3 0f 5a 05 0c
	00 00 00	 cvtss2sd xmm0, DWORD PTR ?air_radar@@3URADAR_PARAMS@@A+12
  0002d	f2 0f 58 05 00
	00 00 00	 addsd	 xmm0, QWORD PTR __real@3fd0c15240000000
  00035	f2 0f 5a c0	 cvtsd2ss xmm0, xmm0
  00039	f3 0f 11 05 0c
	00 00 00	 movss	 DWORD PTR ?air_radar@@3URADAR_PARAMS@@A+12, xmm0

; 659  : 
; 660  : 	if (air_radar.scan_datum < rad (-180.0))

  00041	f3 0f 5a 05 04
	00 00 00	 cvtss2sd xmm0, DWORD PTR ?air_radar@@3URADAR_PARAMS@@A+4
  00049	f2 0f 10 0d 00
	00 00 00	 movsd	 xmm1, QWORD PTR __real@c00921fb51000000
  00051	66 0f 2f c8	 comisd	 xmm1, xmm0
  00055	76 1c		 jbe	 SHORT $LN2@rotate_air

; 661  : 	{
; 662  : 		air_radar.scan_datum += rad (360.0);

  00057	f3 0f 5a 05 04
	00 00 00	 cvtss2sd xmm0, DWORD PTR ?air_radar@@3URADAR_PARAMS@@A+4
  0005f	f2 0f 58 05 00
	00 00 00	 addsd	 xmm0, QWORD PTR __real@401921fb51000000
  00067	f2 0f 5a c0	 cvtsd2ss xmm0, xmm0
  0006b	f3 0f 11 05 04
	00 00 00	 movss	 DWORD PTR ?air_radar@@3URADAR_PARAMS@@A+4, xmm0
$LN2@rotate_air:

; 663  : 	}
; 664  : 
; 665  : 	limit_radar_sweep (&air_radar);

  00073	68 00 00 00 00	 push	 OFFSET ?air_radar@@3URADAR_PARAMS@@A ; air_radar
  00078	e8 00 00 00 00	 call	 ?limit_radar_sweep@@YGXPAURADAR_PARAMS@@@Z ; limit_radar_sweep

; 666  : }

  0007d	5f		 pop	 edi
  0007e	5e		 pop	 esi
  0007f	5b		 pop	 ebx
  00080	8b e5		 mov	 esp, ebp
  00082	5d		 pop	 ebp
  00083	c3		 ret	 0
?rotate_air_radar_scan_datum_left@@YGXXZ ENDP		; rotate_air_radar_scan_datum_left
_TEXT	ENDS
; Function compile flags: /Odtp /ZI
; File c:\users\nhv90\projects\eech\aphavoc\source\gunships\avionics\apache\ap_radar.c
;	COMDAT ?select_previous_ground_radar_target@@YGXXZ
_TEXT	SEGMENT
?select_previous_ground_radar_target@@YGXXZ PROC	; select_previous_ground_radar_target, COMDAT

; 455  : {

  00000	55		 push	 ebp
  00001	8b ec		 mov	 ebp, esp
  00003	83 ec 40	 sub	 esp, 64			; 00000040H
  00006	53		 push	 ebx
  00007	56		 push	 esi
  00008	57		 push	 edi

; 456  : 	get_previous_ground_radar_target ();

  00009	e8 00 00 00 00	 call	 ?get_previous_ground_radar_target@@YGXXZ ; get_previous_ground_radar_target

; 457  : }

  0000e	5f		 pop	 edi
  0000f	5e		 pop	 esi
  00010	5b		 pop	 ebx
  00011	8b e5		 mov	 esp, ebp
  00013	5d		 pop	 ebp
  00014	c3		 ret	 0
?select_previous_ground_radar_target@@YGXXZ ENDP	; select_previous_ground_radar_target
_TEXT	ENDS
; Function compile flags: /Odtp /ZI
; File c:\users\nhv90\projects\eech\aphavoc\source\gunships\avionics\apache\ap_radar.c
;	COMDAT ?select_next_ground_radar_target@@YGXXZ
_TEXT	SEGMENT
?select_next_ground_radar_target@@YGXXZ PROC		; select_next_ground_radar_target, COMDAT

; 446  : {

  00000	55		 push	 ebp
  00001	8b ec		 mov	 ebp, esp
  00003	83 ec 40	 sub	 esp, 64			; 00000040H
  00006	53		 push	 ebx
  00007	56		 push	 esi
  00008	57		 push	 edi

; 447  : 	get_next_ground_radar_target ();

  00009	e8 00 00 00 00	 call	 ?get_next_ground_radar_target@@YGXXZ ; get_next_ground_radar_target

; 448  : }

  0000e	5f		 pop	 edi
  0000f	5e		 pop	 esi
  00010	5b		 pop	 ebx
  00011	8b e5		 mov	 esp, ebp
  00013	5d		 pop	 ebp
  00014	c3		 ret	 0
?select_next_ground_radar_target@@YGXXZ ENDP		; select_next_ground_radar_target
_TEXT	ENDS
; Function compile flags: /Odtp /ZI
; File c:\users\nhv90\projects\eech\aphavoc\source\gunships\avionics\apache\ap_radar.c
;	COMDAT ?fast_dec_ground_radar_target_priority@@YGXXZ
_TEXT	SEGMENT
?fast_dec_ground_radar_target_priority@@YGXXZ PROC	; fast_dec_ground_radar_target_priority, COMDAT

; 437  : {

  00000	55		 push	 ebp
  00001	8b ec		 mov	 ebp, esp
  00003	83 ec 40	 sub	 esp, 64			; 00000040H
  00006	53		 push	 ebx
  00007	56		 push	 esi
  00008	57		 push	 edi

; 438  : 	ground_radar.target_priority_type = TARGET_PRIORITY_UNKNOWN;

  00009	c7 05 2c 00 00
	00 00 00 00 00	 mov	 DWORD PTR ?ground_radar@@3URADAR_PARAMS@@A+44, 0

; 439  : }

  00013	5f		 pop	 edi
  00014	5e		 pop	 esi
  00015	5b		 pop	 ebx
  00016	8b e5		 mov	 esp, ebp
  00018	5d		 pop	 ebp
  00019	c3		 ret	 0
?fast_dec_ground_radar_target_priority@@YGXXZ ENDP	; fast_dec_ground_radar_target_priority
_TEXT	ENDS
; Function compile flags: /Odtp /ZI
; File c:\users\nhv90\projects\eech\aphavoc\source\gunships\avionics\apache\ap_radar.c
;	COMDAT ?dec_ground_radar_target_priority@@YGXXZ
_TEXT	SEGMENT
?dec_ground_radar_target_priority@@YGXXZ PROC		; dec_ground_radar_target_priority, COMDAT

; 411  : {

  00000	55		 push	 ebp
  00001	8b ec		 mov	 ebp, esp
  00003	83 ec 40	 sub	 esp, 64			; 00000040H
  00006	53		 push	 ebx
  00007	56		 push	 esi
  00008	57		 push	 edi

; 412  : 	if (ground_radar.target_priority_type == TARGET_PRIORITY_HIGH)

  00009	83 3d 2c 00 00
	00 03		 cmp	 DWORD PTR ?ground_radar@@3URADAR_PARAMS@@A+44, 3
  00010	75 0c		 jne	 SHORT $LN2@dec_ground

; 413  : 	{
; 414  : 		ground_radar.target_priority_type = TARGET_PRIORITY_MEDIUM;

  00012	c7 05 2c 00 00
	00 02 00 00 00	 mov	 DWORD PTR ?ground_radar@@3URADAR_PARAMS@@A+44, 2
  0001c	eb 3d		 jmp	 SHORT $LN1@dec_ground
$LN2@dec_ground:

; 415  : 	}
; 416  : 	else if (ground_radar.target_priority_type == TARGET_PRIORITY_MEDIUM)

  0001e	83 3d 2c 00 00
	00 02		 cmp	 DWORD PTR ?ground_radar@@3URADAR_PARAMS@@A+44, 2
  00025	75 0c		 jne	 SHORT $LN4@dec_ground

; 417  : 	{
; 418  : 		ground_radar.target_priority_type = TARGET_PRIORITY_LOW;

  00027	c7 05 2c 00 00
	00 01 00 00 00	 mov	 DWORD PTR ?ground_radar@@3URADAR_PARAMS@@A+44, 1
  00031	eb 28		 jmp	 SHORT $LN1@dec_ground
$LN4@dec_ground:

; 419  : 	}
; 420  : 	else if (ground_radar.target_priority_type == TARGET_PRIORITY_LOW)

  00033	83 3d 2c 00 00
	00 01		 cmp	 DWORD PTR ?ground_radar@@3URADAR_PARAMS@@A+44, 1
  0003a	75 0c		 jne	 SHORT $LN6@dec_ground

; 421  : 	{
; 422  : 		ground_radar.target_priority_type = TARGET_PRIORITY_UNKNOWN;

  0003c	c7 05 2c 00 00
	00 00 00 00 00	 mov	 DWORD PTR ?ground_radar@@3URADAR_PARAMS@@A+44, 0
  00046	eb 13		 jmp	 SHORT $LN1@dec_ground
$LN6@dec_ground:

; 423  : 	}
; 424  : 	// Jabberwock 031107 Designated targets
; 425  : 	else if (ground_radar.target_priority_type == TARGET_PRIORITY_DESIGNATED)

  00048	83 3d 2c 00 00
	00 04		 cmp	 DWORD PTR ?ground_radar@@3URADAR_PARAMS@@A+44, 4
  0004f	75 0a		 jne	 SHORT $LN1@dec_ground

; 426  : 	{
; 427  : 		ground_radar.target_priority_type = TARGET_PRIORITY_HIGH;

  00051	c7 05 2c 00 00
	00 03 00 00 00	 mov	 DWORD PTR ?ground_radar@@3URADAR_PARAMS@@A+44, 3
$LN1@dec_ground:

; 428  : 	}
; 429  : 	// Jabberwock 031107 ends	
; 430  : }

  0005b	5f		 pop	 edi
  0005c	5e		 pop	 esi
  0005d	5b		 pop	 ebx
  0005e	8b e5		 mov	 esp, ebp
  00060	5d		 pop	 ebp
  00061	c3		 ret	 0
?dec_ground_radar_target_priority@@YGXXZ ENDP		; dec_ground_radar_target_priority
_TEXT	ENDS
; Function compile flags: /Odtp /ZI
; File c:\users\nhv90\projects\eech\aphavoc\source\gunships\avionics\apache\ap_radar.c
;	COMDAT ?fast_inc_ground_radar_target_priority@@YGXXZ
_TEXT	SEGMENT
?fast_inc_ground_radar_target_priority@@YGXXZ PROC	; fast_inc_ground_radar_target_priority, COMDAT

; 402  : {

  00000	55		 push	 ebp
  00001	8b ec		 mov	 ebp, esp
  00003	83 ec 40	 sub	 esp, 64			; 00000040H
  00006	53		 push	 ebx
  00007	56		 push	 esi
  00008	57		 push	 edi

; 403  : 	ground_radar.target_priority_type = TARGET_PRIORITY_HIGH;

  00009	c7 05 2c 00 00
	00 03 00 00 00	 mov	 DWORD PTR ?ground_radar@@3URADAR_PARAMS@@A+44, 3

; 404  : }

  00013	5f		 pop	 edi
  00014	5e		 pop	 esi
  00015	5b		 pop	 ebx
  00016	8b e5		 mov	 esp, ebp
  00018	5d		 pop	 ebp
  00019	c3		 ret	 0
?fast_inc_ground_radar_target_priority@@YGXXZ ENDP	; fast_inc_ground_radar_target_priority
_TEXT	ENDS
; Function compile flags: /Odtp /ZI
; File c:\users\nhv90\projects\eech\aphavoc\source\gunships\avionics\apache\ap_radar.c
;	COMDAT ?inc_ground_radar_target_priority@@YGXXZ
_TEXT	SEGMENT
?inc_ground_radar_target_priority@@YGXXZ PROC		; inc_ground_radar_target_priority, COMDAT

; 376  : {

  00000	55		 push	 ebp
  00001	8b ec		 mov	 ebp, esp
  00003	83 ec 40	 sub	 esp, 64			; 00000040H
  00006	53		 push	 ebx
  00007	56		 push	 esi
  00008	57		 push	 edi

; 377  : 	if (ground_radar.target_priority_type == TARGET_PRIORITY_UNKNOWN)

  00009	83 3d 2c 00 00
	00 00		 cmp	 DWORD PTR ?ground_radar@@3URADAR_PARAMS@@A+44, 0
  00010	75 0c		 jne	 SHORT $LN2@inc_ground

; 378  : 	{
; 379  : 		ground_radar.target_priority_type = TARGET_PRIORITY_LOW;

  00012	c7 05 2c 00 00
	00 01 00 00 00	 mov	 DWORD PTR ?ground_radar@@3URADAR_PARAMS@@A+44, 1
  0001c	eb 46		 jmp	 SHORT $LN1@inc_ground
$LN2@inc_ground:

; 380  : 	}
; 381  : 	else if (ground_radar.target_priority_type == TARGET_PRIORITY_LOW)

  0001e	83 3d 2c 00 00
	00 01		 cmp	 DWORD PTR ?ground_radar@@3URADAR_PARAMS@@A+44, 1
  00025	75 0c		 jne	 SHORT $LN4@inc_ground

; 382  : 	{
; 383  : 		ground_radar.target_priority_type = TARGET_PRIORITY_MEDIUM;

  00027	c7 05 2c 00 00
	00 02 00 00 00	 mov	 DWORD PTR ?ground_radar@@3URADAR_PARAMS@@A+44, 2
  00031	eb 31		 jmp	 SHORT $LN1@inc_ground
$LN4@inc_ground:

; 384  : 	}
; 385  : 	else if (ground_radar.target_priority_type == TARGET_PRIORITY_MEDIUM)

  00033	83 3d 2c 00 00
	00 02		 cmp	 DWORD PTR ?ground_radar@@3URADAR_PARAMS@@A+44, 2
  0003a	75 0c		 jne	 SHORT $LN6@inc_ground

; 386  : 	{
; 387  : 		ground_radar.target_priority_type = TARGET_PRIORITY_HIGH;

  0003c	c7 05 2c 00 00
	00 03 00 00 00	 mov	 DWORD PTR ?ground_radar@@3URADAR_PARAMS@@A+44, 3
  00046	eb 1c		 jmp	 SHORT $LN1@inc_ground
$LN6@inc_ground:

; 388  : 	}
; 389  : 	// Jabberwock 031107 Designated targets
; 390  : 	else if ((ground_radar.target_priority_type == TARGET_PRIORITY_HIGH) && command_line_designated_targets)

  00048	83 3d 2c 00 00
	00 03		 cmp	 DWORD PTR ?ground_radar@@3URADAR_PARAMS@@A+44, 3
  0004f	75 13		 jne	 SHORT $LN1@inc_ground
  00051	83 3d 00 00 00
	00 00		 cmp	 DWORD PTR ?command_line_designated_targets@@3HA, 0 ; command_line_designated_targets
  00058	74 0a		 je	 SHORT $LN1@inc_ground

; 391  : 	{
; 392  : 		ground_radar.target_priority_type = TARGET_PRIORITY_DESIGNATED;

  0005a	c7 05 2c 00 00
	00 04 00 00 00	 mov	 DWORD PTR ?ground_radar@@3URADAR_PARAMS@@A+44, 4
$LN1@inc_ground:

; 393  : 	}
; 394  : 	// Jabberwock 031107 ends	
; 395  : }

  00064	5f		 pop	 edi
  00065	5e		 pop	 esi
  00066	5b		 pop	 ebx
  00067	8b e5		 mov	 esp, ebp
  00069	5d		 pop	 ebp
  0006a	c3		 ret	 0
?inc_ground_radar_target_priority@@YGXXZ ENDP		; inc_ground_radar_target_priority
_TEXT	ENDS
; Function compile flags: /Odtp /ZI
; File c:\users\nhv90\projects\eech\aphavoc\source\gunships\avionics\apache\ap_radar.c
;	COMDAT ?fast_dec_ground_radar_scan_range@@YGXXZ
_TEXT	SEGMENT
?fast_dec_ground_radar_scan_range@@YGXXZ PROC		; fast_dec_ground_radar_scan_range, COMDAT

; 367  : {

  00000	55		 push	 ebp
  00001	8b ec		 mov	 ebp, esp
  00003	83 ec 40	 sub	 esp, 64			; 00000040H
  00006	53		 push	 ebx
  00007	56		 push	 esi
  00008	57		 push	 edi

; 368  : 	ground_radar.scan_range = APACHE_RADAR_SCAN_RANGE_500;

  00009	f3 0f 10 05 00
	00 00 00	 movss	 xmm0, DWORD PTR ?APACHE_RADAR_SCAN_RANGE_500@@3MA
  00011	f3 0f 11 05 00
	00 00 00	 movss	 DWORD PTR ?ground_radar@@3URADAR_PARAMS@@A, xmm0

; 369  : }

  00019	5f		 pop	 edi
  0001a	5e		 pop	 esi
  0001b	5b		 pop	 ebx
  0001c	8b e5		 mov	 esp, ebp
  0001e	5d		 pop	 ebp
  0001f	c3		 ret	 0
?fast_dec_ground_radar_scan_range@@YGXXZ ENDP		; fast_dec_ground_radar_scan_range
_TEXT	ENDS
; Function compile flags: /Odtp /ZI
; File c:\users\nhv90\projects\eech\aphavoc\source\gunships\avionics\apache\ap_radar.c
;	COMDAT ?dec_ground_radar_scan_range@@YGXXZ
_TEXT	SEGMENT
?dec_ground_radar_scan_range@@YGXXZ PROC		; dec_ground_radar_scan_range, COMDAT

; 343  : {

  00000	55		 push	 ebp
  00001	8b ec		 mov	 ebp, esp
  00003	83 ec 40	 sub	 esp, 64			; 00000040H
  00006	53		 push	 ebx
  00007	56		 push	 esi
  00008	57		 push	 edi

; 344  : 	if (ground_radar.scan_range == APACHE_RADAR_SCAN_RANGE_8000)

  00009	f3 0f 10 05 00
	00 00 00	 movss	 xmm0, DWORD PTR ?ground_radar@@3URADAR_PARAMS@@A
  00011	0f 2e 05 00 00
	00 00		 ucomiss xmm0, DWORD PTR ?APACHE_RADAR_SCAN_RANGE_8000@@3MA
  00018	9f		 lahf
  00019	f6 c4 44	 test	 ah, 68			; 00000044H
  0001c	7a 12		 jp	 SHORT $LN2@dec_ground

; 345  : 	{
; 346  : 		ground_radar.scan_range = APACHE_RADAR_SCAN_RANGE_4000;

  0001e	f3 0f 10 05 00
	00 00 00	 movss	 xmm0, DWORD PTR ?APACHE_RADAR_SCAN_RANGE_4000@@3MA
  00026	f3 0f 11 05 00
	00 00 00	 movss	 DWORD PTR ?ground_radar@@3URADAR_PARAMS@@A, xmm0
  0002e	eb 73		 jmp	 SHORT $LN8@dec_ground
$LN2@dec_ground:

; 347  : 	}
; 348  : 	else if (ground_radar.scan_range == APACHE_RADAR_SCAN_RANGE_4000)

  00030	f3 0f 10 05 00
	00 00 00	 movss	 xmm0, DWORD PTR ?ground_radar@@3URADAR_PARAMS@@A
  00038	0f 2e 05 00 00
	00 00		 ucomiss xmm0, DWORD PTR ?APACHE_RADAR_SCAN_RANGE_4000@@3MA
  0003f	9f		 lahf
  00040	f6 c4 44	 test	 ah, 68			; 00000044H
  00043	7a 12		 jp	 SHORT $LN4@dec_ground

; 349  : 	{
; 350  : 		ground_radar.scan_range = APACHE_RADAR_SCAN_RANGE_2000;

  00045	f3 0f 10 05 00
	00 00 00	 movss	 xmm0, DWORD PTR ?APACHE_RADAR_SCAN_RANGE_2000@@3MA
  0004d	f3 0f 11 05 00
	00 00 00	 movss	 DWORD PTR ?ground_radar@@3URADAR_PARAMS@@A, xmm0
  00055	eb 4c		 jmp	 SHORT $LN8@dec_ground
$LN4@dec_ground:

; 351  : 	}
; 352  : 	else if (ground_radar.scan_range == APACHE_RADAR_SCAN_RANGE_2000)

  00057	f3 0f 10 05 00
	00 00 00	 movss	 xmm0, DWORD PTR ?ground_radar@@3URADAR_PARAMS@@A
  0005f	0f 2e 05 00 00
	00 00		 ucomiss xmm0, DWORD PTR ?APACHE_RADAR_SCAN_RANGE_2000@@3MA
  00066	9f		 lahf
  00067	f6 c4 44	 test	 ah, 68			; 00000044H
  0006a	7a 12		 jp	 SHORT $LN6@dec_ground

; 353  : 	{
; 354  : 		ground_radar.scan_range = APACHE_RADAR_SCAN_RANGE_1000;

  0006c	f3 0f 10 05 00
	00 00 00	 movss	 xmm0, DWORD PTR ?APACHE_RADAR_SCAN_RANGE_1000@@3MA
  00074	f3 0f 11 05 00
	00 00 00	 movss	 DWORD PTR ?ground_radar@@3URADAR_PARAMS@@A, xmm0
  0007c	eb 25		 jmp	 SHORT $LN8@dec_ground
$LN6@dec_ground:

; 355  : 	}
; 356  : 	else if (ground_radar.scan_range == APACHE_RADAR_SCAN_RANGE_1000)

  0007e	f3 0f 10 05 00
	00 00 00	 movss	 xmm0, DWORD PTR ?ground_radar@@3URADAR_PARAMS@@A
  00086	0f 2e 05 00 00
	00 00		 ucomiss xmm0, DWORD PTR ?APACHE_RADAR_SCAN_RANGE_1000@@3MA
  0008d	9f		 lahf
  0008e	f6 c4 44	 test	 ah, 68			; 00000044H
  00091	7a 10		 jp	 SHORT $LN8@dec_ground

; 357  : 	{
; 358  : 		ground_radar.scan_range = APACHE_RADAR_SCAN_RANGE_500;

  00093	f3 0f 10 05 00
	00 00 00	 movss	 xmm0, DWORD PTR ?APACHE_RADAR_SCAN_RANGE_500@@3MA
  0009b	f3 0f 11 05 00
	00 00 00	 movss	 DWORD PTR ?ground_radar@@3URADAR_PARAMS@@A, xmm0
$LN8@dec_ground:

; 359  : 	}
; 360  : }

  000a3	5f		 pop	 edi
  000a4	5e		 pop	 esi
  000a5	5b		 pop	 ebx
  000a6	8b e5		 mov	 esp, ebp
  000a8	5d		 pop	 ebp
  000a9	c3		 ret	 0
?dec_ground_radar_scan_range@@YGXXZ ENDP		; dec_ground_radar_scan_range
_TEXT	ENDS
; Function compile flags: /Odtp /ZI
; File c:\users\nhv90\projects\eech\aphavoc\source\gunships\avionics\apache\ap_radar.c
;	COMDAT ?fast_inc_ground_radar_scan_range@@YGXXZ
_TEXT	SEGMENT
?fast_inc_ground_radar_scan_range@@YGXXZ PROC		; fast_inc_ground_radar_scan_range, COMDAT

; 334  : {

  00000	55		 push	 ebp
  00001	8b ec		 mov	 ebp, esp
  00003	83 ec 40	 sub	 esp, 64			; 00000040H
  00006	53		 push	 ebx
  00007	56		 push	 esi
  00008	57		 push	 edi

; 335  : 	ground_radar.scan_range = APACHE_RADAR_SCAN_RANGE_8000;

  00009	f3 0f 10 05 00
	00 00 00	 movss	 xmm0, DWORD PTR ?APACHE_RADAR_SCAN_RANGE_8000@@3MA
  00011	f3 0f 11 05 00
	00 00 00	 movss	 DWORD PTR ?ground_radar@@3URADAR_PARAMS@@A, xmm0

; 336  : }

  00019	5f		 pop	 edi
  0001a	5e		 pop	 esi
  0001b	5b		 pop	 ebx
  0001c	8b e5		 mov	 esp, ebp
  0001e	5d		 pop	 ebp
  0001f	c3		 ret	 0
?fast_inc_ground_radar_scan_range@@YGXXZ ENDP		; fast_inc_ground_radar_scan_range
_TEXT	ENDS
; Function compile flags: /Odtp /ZI
; File c:\users\nhv90\projects\eech\aphavoc\source\gunships\avionics\apache\ap_radar.c
;	COMDAT ?inc_ground_radar_scan_range@@YGXXZ
_TEXT	SEGMENT
?inc_ground_radar_scan_range@@YGXXZ PROC		; inc_ground_radar_scan_range, COMDAT

; 310  : {

  00000	55		 push	 ebp
  00001	8b ec		 mov	 ebp, esp
  00003	83 ec 40	 sub	 esp, 64			; 00000040H
  00006	53		 push	 ebx
  00007	56		 push	 esi
  00008	57		 push	 edi

; 311  : 	if (ground_radar.scan_range == APACHE_RADAR_SCAN_RANGE_500)

  00009	f3 0f 10 05 00
	00 00 00	 movss	 xmm0, DWORD PTR ?ground_radar@@3URADAR_PARAMS@@A
  00011	0f 2e 05 00 00
	00 00		 ucomiss xmm0, DWORD PTR ?APACHE_RADAR_SCAN_RANGE_500@@3MA
  00018	9f		 lahf
  00019	f6 c4 44	 test	 ah, 68			; 00000044H
  0001c	7a 12		 jp	 SHORT $LN2@inc_ground

; 312  : 	{
; 313  : 		ground_radar.scan_range = APACHE_RADAR_SCAN_RANGE_1000;

  0001e	f3 0f 10 05 00
	00 00 00	 movss	 xmm0, DWORD PTR ?APACHE_RADAR_SCAN_RANGE_1000@@3MA
  00026	f3 0f 11 05 00
	00 00 00	 movss	 DWORD PTR ?ground_radar@@3URADAR_PARAMS@@A, xmm0
  0002e	eb 73		 jmp	 SHORT $LN8@inc_ground
$LN2@inc_ground:

; 314  : 	}
; 315  : 	else if (ground_radar.scan_range == APACHE_RADAR_SCAN_RANGE_1000)

  00030	f3 0f 10 05 00
	00 00 00	 movss	 xmm0, DWORD PTR ?ground_radar@@3URADAR_PARAMS@@A
  00038	0f 2e 05 00 00
	00 00		 ucomiss xmm0, DWORD PTR ?APACHE_RADAR_SCAN_RANGE_1000@@3MA
  0003f	9f		 lahf
  00040	f6 c4 44	 test	 ah, 68			; 00000044H
  00043	7a 12		 jp	 SHORT $LN4@inc_ground

; 316  : 	{
; 317  : 		ground_radar.scan_range = APACHE_RADAR_SCAN_RANGE_2000;

  00045	f3 0f 10 05 00
	00 00 00	 movss	 xmm0, DWORD PTR ?APACHE_RADAR_SCAN_RANGE_2000@@3MA
  0004d	f3 0f 11 05 00
	00 00 00	 movss	 DWORD PTR ?ground_radar@@3URADAR_PARAMS@@A, xmm0
  00055	eb 4c		 jmp	 SHORT $LN8@inc_ground
$LN4@inc_ground:

; 318  : 	}
; 319  : 	else if (ground_radar.scan_range == APACHE_RADAR_SCAN_RANGE_2000)

  00057	f3 0f 10 05 00
	00 00 00	 movss	 xmm0, DWORD PTR ?ground_radar@@3URADAR_PARAMS@@A
  0005f	0f 2e 05 00 00
	00 00		 ucomiss xmm0, DWORD PTR ?APACHE_RADAR_SCAN_RANGE_2000@@3MA
  00066	9f		 lahf
  00067	f6 c4 44	 test	 ah, 68			; 00000044H
  0006a	7a 12		 jp	 SHORT $LN6@inc_ground

; 320  : 	{
; 321  : 		ground_radar.scan_range = APACHE_RADAR_SCAN_RANGE_4000;

  0006c	f3 0f 10 05 00
	00 00 00	 movss	 xmm0, DWORD PTR ?APACHE_RADAR_SCAN_RANGE_4000@@3MA
  00074	f3 0f 11 05 00
	00 00 00	 movss	 DWORD PTR ?ground_radar@@3URADAR_PARAMS@@A, xmm0
  0007c	eb 25		 jmp	 SHORT $LN8@inc_ground
$LN6@inc_ground:

; 322  : 	}
; 323  : 	else if (ground_radar.scan_range == APACHE_RADAR_SCAN_RANGE_4000)

  0007e	f3 0f 10 05 00
	00 00 00	 movss	 xmm0, DWORD PTR ?ground_radar@@3URADAR_PARAMS@@A
  00086	0f 2e 05 00 00
	00 00		 ucomiss xmm0, DWORD PTR ?APACHE_RADAR_SCAN_RANGE_4000@@3MA
  0008d	9f		 lahf
  0008e	f6 c4 44	 test	 ah, 68			; 00000044H
  00091	7a 10		 jp	 SHORT $LN8@inc_ground

; 324  : 	{
; 325  : 		ground_radar.scan_range = APACHE_RADAR_SCAN_RANGE_8000;

  00093	f3 0f 10 05 00
	00 00 00	 movss	 xmm0, DWORD PTR ?APACHE_RADAR_SCAN_RANGE_8000@@3MA
  0009b	f3 0f 11 05 00
	00 00 00	 movss	 DWORD PTR ?ground_radar@@3URADAR_PARAMS@@A, xmm0
$LN8@inc_ground:

; 326  : 	}
; 327  : }

  000a3	5f		 pop	 edi
  000a4	5e		 pop	 esi
  000a5	5b		 pop	 ebx
  000a6	8b e5		 mov	 esp, ebp
  000a8	5d		 pop	 ebp
  000a9	c3		 ret	 0
?inc_ground_radar_scan_range@@YGXXZ ENDP		; inc_ground_radar_scan_range
_TEXT	ENDS
; Function compile flags: /Odtp /ZI
; File c:\users\nhv90\projects\eech\aphavoc\source\gunships\avionics\apache\ap_radar.c
;	COMDAT ?fast_dec_ground_radar_scan_arc_size@@YGXXZ
_TEXT	SEGMENT
?fast_dec_ground_radar_scan_arc_size@@YGXXZ PROC	; fast_dec_ground_radar_scan_arc_size, COMDAT

; 299  : {

  00000	55		 push	 ebp
  00001	8b ec		 mov	 ebp, esp
  00003	83 ec 40	 sub	 esp, 64			; 00000040H
  00006	53		 push	 ebx
  00007	56		 push	 esi
  00008	57		 push	 edi

; 300  : 	ground_radar.scan_arc_size = APACHE_RADAR_SCAN_ARC_SIZE_15;

  00009	f3 0f 10 05 00
	00 00 00	 movss	 xmm0, DWORD PTR __real@3e860a92
  00011	f3 0f 11 05 08
	00 00 00	 movss	 DWORD PTR ?ground_radar@@3URADAR_PARAMS@@A+8, xmm0

; 301  : 
; 302  : 	limit_radar_sweep (&ground_radar);

  00019	68 00 00 00 00	 push	 OFFSET ?ground_radar@@3URADAR_PARAMS@@A ; ground_radar
  0001e	e8 00 00 00 00	 call	 ?limit_radar_sweep@@YGXPAURADAR_PARAMS@@@Z ; limit_radar_sweep

; 303  : }

  00023	5f		 pop	 edi
  00024	5e		 pop	 esi
  00025	5b		 pop	 ebx
  00026	8b e5		 mov	 esp, ebp
  00028	5d		 pop	 ebp
  00029	c3		 ret	 0
?fast_dec_ground_radar_scan_arc_size@@YGXXZ ENDP	; fast_dec_ground_radar_scan_arc_size
_TEXT	ENDS
; Function compile flags: /Odtp /ZI
; File c:\users\nhv90\projects\eech\aphavoc\source\gunships\avionics\apache\ap_radar.c
;	COMDAT ?dec_ground_radar_scan_arc_size@@YGXXZ
_TEXT	SEGMENT
?dec_ground_radar_scan_arc_size@@YGXXZ PROC		; dec_ground_radar_scan_arc_size, COMDAT

; 273  : {

  00000	55		 push	 ebp
  00001	8b ec		 mov	 ebp, esp
  00003	83 ec 40	 sub	 esp, 64			; 00000040H
  00006	53		 push	 ebx
  00007	56		 push	 esi
  00008	57		 push	 edi

; 274  : 	if (ground_radar.scan_arc_size == APACHE_RADAR_SCAN_ARC_SIZE_90)

  00009	f3 0f 10 05 08
	00 00 00	 movss	 xmm0, DWORD PTR ?ground_radar@@3URADAR_PARAMS@@A+8
  00011	0f 2e 05 00 00
	00 00		 ucomiss xmm0, DWORD PTR __real@3fc90fdb
  00018	9f		 lahf
  00019	f6 c4 44	 test	 ah, 68			; 00000044H
  0001c	7a 12		 jp	 SHORT $LN2@dec_ground

; 275  : 	{
; 276  : 		ground_radar.scan_arc_size = APACHE_RADAR_SCAN_ARC_SIZE_60;

  0001e	f3 0f 10 05 00
	00 00 00	 movss	 xmm0, DWORD PTR __real@3f860a92
  00026	f3 0f 11 05 08
	00 00 00	 movss	 DWORD PTR ?ground_radar@@3URADAR_PARAMS@@A+8, xmm0
  0002e	eb 73		 jmp	 SHORT $LN8@dec_ground
$LN2@dec_ground:

; 277  : 	}
; 278  : 	else if (ground_radar.scan_arc_size == APACHE_RADAR_SCAN_ARC_SIZE_60)

  00030	f3 0f 10 05 08
	00 00 00	 movss	 xmm0, DWORD PTR ?ground_radar@@3URADAR_PARAMS@@A+8
  00038	0f 2e 05 00 00
	00 00		 ucomiss xmm0, DWORD PTR __real@3f860a92
  0003f	9f		 lahf
  00040	f6 c4 44	 test	 ah, 68			; 00000044H
  00043	7a 12		 jp	 SHORT $LN4@dec_ground

; 279  : 	{
; 280  : 		ground_radar.scan_arc_size = APACHE_RADAR_SCAN_ARC_SIZE_45;

  00045	f3 0f 10 05 00
	00 00 00	 movss	 xmm0, DWORD PTR __real@3f490fdb
  0004d	f3 0f 11 05 08
	00 00 00	 movss	 DWORD PTR ?ground_radar@@3URADAR_PARAMS@@A+8, xmm0
  00055	eb 4c		 jmp	 SHORT $LN8@dec_ground
$LN4@dec_ground:

; 281  : 	}
; 282  : 	else if (ground_radar.scan_arc_size == APACHE_RADAR_SCAN_ARC_SIZE_45)

  00057	f3 0f 10 05 08
	00 00 00	 movss	 xmm0, DWORD PTR ?ground_radar@@3URADAR_PARAMS@@A+8
  0005f	0f 2e 05 00 00
	00 00		 ucomiss xmm0, DWORD PTR __real@3f490fdb
  00066	9f		 lahf
  00067	f6 c4 44	 test	 ah, 68			; 00000044H
  0006a	7a 12		 jp	 SHORT $LN6@dec_ground

; 283  : 	{
; 284  : 		ground_radar.scan_arc_size = APACHE_RADAR_SCAN_ARC_SIZE_30;

  0006c	f3 0f 10 05 00
	00 00 00	 movss	 xmm0, DWORD PTR __real@3f060a92
  00074	f3 0f 11 05 08
	00 00 00	 movss	 DWORD PTR ?ground_radar@@3URADAR_PARAMS@@A+8, xmm0
  0007c	eb 25		 jmp	 SHORT $LN8@dec_ground
$LN6@dec_ground:

; 285  : 	}
; 286  : 	else if (ground_radar.scan_arc_size == APACHE_RADAR_SCAN_ARC_SIZE_30)

  0007e	f3 0f 10 05 08
	00 00 00	 movss	 xmm0, DWORD PTR ?ground_radar@@3URADAR_PARAMS@@A+8
  00086	0f 2e 05 00 00
	00 00		 ucomiss xmm0, DWORD PTR __real@3f060a92
  0008d	9f		 lahf
  0008e	f6 c4 44	 test	 ah, 68			; 00000044H
  00091	7a 10		 jp	 SHORT $LN8@dec_ground

; 287  : 	{
; 288  : 		ground_radar.scan_arc_size = APACHE_RADAR_SCAN_ARC_SIZE_15;

  00093	f3 0f 10 05 00
	00 00 00	 movss	 xmm0, DWORD PTR __real@3e860a92
  0009b	f3 0f 11 05 08
	00 00 00	 movss	 DWORD PTR ?ground_radar@@3URADAR_PARAMS@@A+8, xmm0
$LN8@dec_ground:

; 289  : 	}
; 290  : 
; 291  : 	limit_radar_sweep (&ground_radar);

  000a3	68 00 00 00 00	 push	 OFFSET ?ground_radar@@3URADAR_PARAMS@@A ; ground_radar
  000a8	e8 00 00 00 00	 call	 ?limit_radar_sweep@@YGXPAURADAR_PARAMS@@@Z ; limit_radar_sweep

; 292  : }

  000ad	5f		 pop	 edi
  000ae	5e		 pop	 esi
  000af	5b		 pop	 ebx
  000b0	8b e5		 mov	 esp, ebp
  000b2	5d		 pop	 ebp
  000b3	c3		 ret	 0
?dec_ground_radar_scan_arc_size@@YGXXZ ENDP		; dec_ground_radar_scan_arc_size
_TEXT	ENDS
; Function compile flags: /Odtp /ZI
; File c:\users\nhv90\projects\eech\aphavoc\source\gunships\avionics\apache\ap_radar.c
;	COMDAT ?fast_inc_ground_radar_scan_arc_size@@YGXXZ
_TEXT	SEGMENT
?fast_inc_ground_radar_scan_arc_size@@YGXXZ PROC	; fast_inc_ground_radar_scan_arc_size, COMDAT

; 253  : {

  00000	55		 push	 ebp
  00001	8b ec		 mov	 ebp, esp
  00003	83 ec 40	 sub	 esp, 64			; 00000040H
  00006	53		 push	 ebx
  00007	56		 push	 esi
  00008	57		 push	 edi

; 254  : 	ground_radar.scan_arc_size = APACHE_RADAR_SCAN_ARC_SIZE_90;

  00009	f3 0f 10 05 00
	00 00 00	 movss	 xmm0, DWORD PTR __real@3fc90fdb
  00011	f3 0f 11 05 08
	00 00 00	 movss	 DWORD PTR ?ground_radar@@3URADAR_PARAMS@@A+8, xmm0

; 255  : 
; 256  : 	if ((ground_radar.scan_datum - (ground_radar.scan_arc_size * 0.5)) < -APACHE_RADAR_SCAN_ARC_SIZE_45)

  00019	f3 0f 5a 05 04
	00 00 00	 cvtss2sd xmm0, DWORD PTR ?ground_radar@@3URADAR_PARAMS@@A+4
  00021	f3 0f 5a 0d 08
	00 00 00	 cvtss2sd xmm1, DWORD PTR ?ground_radar@@3URADAR_PARAMS@@A+8
  00029	f2 0f 59 0d 00
	00 00 00	 mulsd	 xmm1, QWORD PTR __real@3fe0000000000000
  00031	f2 0f 5c c1	 subsd	 xmm0, xmm1
  00035	f2 0f 10 0d 00
	00 00 00	 movsd	 xmm1, QWORD PTR __real@bfe921fb60000000
  0003d	66 0f 2f c8	 comisd	 xmm1, xmm0
  00041	76 26		 jbe	 SHORT $LN2@fast_inc_g

; 257  : 	{
; 258  : 		ground_radar.scan_datum = -APACHE_RADAR_SCAN_ARC_SIZE_45 + (ground_radar.scan_arc_size * 0.5);

  00043	f3 0f 5a 05 08
	00 00 00	 cvtss2sd xmm0, DWORD PTR ?ground_radar@@3URADAR_PARAMS@@A+8
  0004b	f2 0f 59 05 00
	00 00 00	 mulsd	 xmm0, QWORD PTR __real@3fe0000000000000
  00053	f2 0f 58 05 00
	00 00 00	 addsd	 xmm0, QWORD PTR __real@bfe921fb60000000
  0005b	f2 0f 5a c0	 cvtsd2ss xmm0, xmm0
  0005f	f3 0f 11 05 04
	00 00 00	 movss	 DWORD PTR ?ground_radar@@3URADAR_PARAMS@@A+4, xmm0
  00067	eb 4e		 jmp	 SHORT $LN4@fast_inc_g
$LN2@fast_inc_g:

; 259  : 	}
; 260  : 	else if ((ground_radar.scan_datum + (ground_radar.scan_arc_size * 0.5)) > APACHE_RADAR_SCAN_ARC_SIZE_45)

  00069	f3 0f 5a 05 04
	00 00 00	 cvtss2sd xmm0, DWORD PTR ?ground_radar@@3URADAR_PARAMS@@A+4
  00071	f3 0f 5a 0d 08
	00 00 00	 cvtss2sd xmm1, DWORD PTR ?ground_radar@@3URADAR_PARAMS@@A+8
  00079	f2 0f 59 0d 00
	00 00 00	 mulsd	 xmm1, QWORD PTR __real@3fe0000000000000
  00081	f2 0f 58 c1	 addsd	 xmm0, xmm1
  00085	66 0f 2f 05 00
	00 00 00	 comisd	 xmm0, QWORD PTR __real@3fe921fb60000000
  0008d	76 28		 jbe	 SHORT $LN4@fast_inc_g

; 261  : 	{
; 262  : 		ground_radar.scan_datum = APACHE_RADAR_SCAN_ARC_SIZE_45 - (ground_radar.scan_arc_size * 0.5);

  0008f	f3 0f 5a 05 08
	00 00 00	 cvtss2sd xmm0, DWORD PTR ?ground_radar@@3URADAR_PARAMS@@A+8
  00097	f2 0f 59 05 00
	00 00 00	 mulsd	 xmm0, QWORD PTR __real@3fe0000000000000
  0009f	f2 0f 10 0d 00
	00 00 00	 movsd	 xmm1, QWORD PTR __real@3fe921fb60000000
  000a7	f2 0f 5c c8	 subsd	 xmm1, xmm0
  000ab	f2 0f 5a c1	 cvtsd2ss xmm0, xmm1
  000af	f3 0f 11 05 04
	00 00 00	 movss	 DWORD PTR ?ground_radar@@3URADAR_PARAMS@@A+4, xmm0
$LN4@fast_inc_g:

; 263  : 	}
; 264  : 
; 265  : 	limit_radar_sweep (&ground_radar);

  000b7	68 00 00 00 00	 push	 OFFSET ?ground_radar@@3URADAR_PARAMS@@A ; ground_radar
  000bc	e8 00 00 00 00	 call	 ?limit_radar_sweep@@YGXPAURADAR_PARAMS@@@Z ; limit_radar_sweep

; 266  : }

  000c1	5f		 pop	 edi
  000c2	5e		 pop	 esi
  000c3	5b		 pop	 ebx
  000c4	8b e5		 mov	 esp, ebp
  000c6	5d		 pop	 ebp
  000c7	c3		 ret	 0
?fast_inc_ground_radar_scan_arc_size@@YGXXZ ENDP	; fast_inc_ground_radar_scan_arc_size
_TEXT	ENDS
; Function compile flags: /Odtp /ZI
; File c:\users\nhv90\projects\eech\aphavoc\source\gunships\avionics\apache\ap_radar.c
;	COMDAT ?inc_ground_radar_scan_arc_size@@YGXXZ
_TEXT	SEGMENT
?inc_ground_radar_scan_arc_size@@YGXXZ PROC		; inc_ground_radar_scan_arc_size, COMDAT

; 218  : {

  00000	55		 push	 ebp
  00001	8b ec		 mov	 ebp, esp
  00003	83 ec 40	 sub	 esp, 64			; 00000040H
  00006	53		 push	 ebx
  00007	56		 push	 esi
  00008	57		 push	 edi

; 219  : 	if (ground_radar.scan_arc_size == APACHE_RADAR_SCAN_ARC_SIZE_15)

  00009	f3 0f 10 05 08
	00 00 00	 movss	 xmm0, DWORD PTR ?ground_radar@@3URADAR_PARAMS@@A+8
  00011	0f 2e 05 00 00
	00 00		 ucomiss xmm0, DWORD PTR __real@3e860a92
  00018	9f		 lahf
  00019	f6 c4 44	 test	 ah, 68			; 00000044H
  0001c	7a 12		 jp	 SHORT $LN2@inc_ground

; 220  : 	{
; 221  : 		ground_radar.scan_arc_size = APACHE_RADAR_SCAN_ARC_SIZE_30;

  0001e	f3 0f 10 05 00
	00 00 00	 movss	 xmm0, DWORD PTR __real@3f060a92
  00026	f3 0f 11 05 08
	00 00 00	 movss	 DWORD PTR ?ground_radar@@3URADAR_PARAMS@@A+8, xmm0
  0002e	eb 73		 jmp	 SHORT $LN8@inc_ground
$LN2@inc_ground:

; 222  : 	}
; 223  : 	else if (ground_radar.scan_arc_size == APACHE_RADAR_SCAN_ARC_SIZE_30)

  00030	f3 0f 10 05 08
	00 00 00	 movss	 xmm0, DWORD PTR ?ground_radar@@3URADAR_PARAMS@@A+8
  00038	0f 2e 05 00 00
	00 00		 ucomiss xmm0, DWORD PTR __real@3f060a92
  0003f	9f		 lahf
  00040	f6 c4 44	 test	 ah, 68			; 00000044H
  00043	7a 12		 jp	 SHORT $LN4@inc_ground

; 224  : 	{
; 225  : 		ground_radar.scan_arc_size = APACHE_RADAR_SCAN_ARC_SIZE_45;

  00045	f3 0f 10 05 00
	00 00 00	 movss	 xmm0, DWORD PTR __real@3f490fdb
  0004d	f3 0f 11 05 08
	00 00 00	 movss	 DWORD PTR ?ground_radar@@3URADAR_PARAMS@@A+8, xmm0
  00055	eb 4c		 jmp	 SHORT $LN8@inc_ground
$LN4@inc_ground:

; 226  : 	}
; 227  : 	else if (ground_radar.scan_arc_size == APACHE_RADAR_SCAN_ARC_SIZE_45)

  00057	f3 0f 10 05 08
	00 00 00	 movss	 xmm0, DWORD PTR ?ground_radar@@3URADAR_PARAMS@@A+8
  0005f	0f 2e 05 00 00
	00 00		 ucomiss xmm0, DWORD PTR __real@3f490fdb
  00066	9f		 lahf
  00067	f6 c4 44	 test	 ah, 68			; 00000044H
  0006a	7a 12		 jp	 SHORT $LN6@inc_ground

; 228  : 	{
; 229  : 		ground_radar.scan_arc_size = APACHE_RADAR_SCAN_ARC_SIZE_60;

  0006c	f3 0f 10 05 00
	00 00 00	 movss	 xmm0, DWORD PTR __real@3f860a92
  00074	f3 0f 11 05 08
	00 00 00	 movss	 DWORD PTR ?ground_radar@@3URADAR_PARAMS@@A+8, xmm0
  0007c	eb 25		 jmp	 SHORT $LN8@inc_ground
$LN6@inc_ground:

; 230  : 	}
; 231  : 	else if (ground_radar.scan_arc_size == APACHE_RADAR_SCAN_ARC_SIZE_60)

  0007e	f3 0f 10 05 08
	00 00 00	 movss	 xmm0, DWORD PTR ?ground_radar@@3URADAR_PARAMS@@A+8
  00086	0f 2e 05 00 00
	00 00		 ucomiss xmm0, DWORD PTR __real@3f860a92
  0008d	9f		 lahf
  0008e	f6 c4 44	 test	 ah, 68			; 00000044H
  00091	7a 10		 jp	 SHORT $LN8@inc_ground

; 232  : 	{
; 233  : 		ground_radar.scan_arc_size = APACHE_RADAR_SCAN_ARC_SIZE_90;

  00093	f3 0f 10 05 00
	00 00 00	 movss	 xmm0, DWORD PTR __real@3fc90fdb
  0009b	f3 0f 11 05 08
	00 00 00	 movss	 DWORD PTR ?ground_radar@@3URADAR_PARAMS@@A+8, xmm0
$LN8@inc_ground:

; 234  : 	}
; 235  : 
; 236  : 	if ((ground_radar.scan_datum - (ground_radar.scan_arc_size * 0.5)) < -APACHE_RADAR_SCAN_ARC_SIZE_45)

  000a3	f3 0f 5a 05 04
	00 00 00	 cvtss2sd xmm0, DWORD PTR ?ground_radar@@3URADAR_PARAMS@@A+4
  000ab	f3 0f 5a 0d 08
	00 00 00	 cvtss2sd xmm1, DWORD PTR ?ground_radar@@3URADAR_PARAMS@@A+8
  000b3	f2 0f 59 0d 00
	00 00 00	 mulsd	 xmm1, QWORD PTR __real@3fe0000000000000
  000bb	f2 0f 5c c1	 subsd	 xmm0, xmm1
  000bf	f2 0f 10 0d 00
	00 00 00	 movsd	 xmm1, QWORD PTR __real@bfe921fb60000000
  000c7	66 0f 2f c8	 comisd	 xmm1, xmm0
  000cb	76 26		 jbe	 SHORT $LN9@inc_ground

; 237  : 	{
; 238  : 		ground_radar.scan_datum = -APACHE_RADAR_SCAN_ARC_SIZE_45 + (ground_radar.scan_arc_size * 0.5);

  000cd	f3 0f 5a 05 08
	00 00 00	 cvtss2sd xmm0, DWORD PTR ?ground_radar@@3URADAR_PARAMS@@A+8
  000d5	f2 0f 59 05 00
	00 00 00	 mulsd	 xmm0, QWORD PTR __real@3fe0000000000000
  000dd	f2 0f 58 05 00
	00 00 00	 addsd	 xmm0, QWORD PTR __real@bfe921fb60000000
  000e5	f2 0f 5a c0	 cvtsd2ss xmm0, xmm0
  000e9	f3 0f 11 05 04
	00 00 00	 movss	 DWORD PTR ?ground_radar@@3URADAR_PARAMS@@A+4, xmm0
  000f1	eb 4e		 jmp	 SHORT $LN11@inc_ground
$LN9@inc_ground:

; 239  : 	}
; 240  : 	else if ((ground_radar.scan_datum + (ground_radar.scan_arc_size * 0.5)) > APACHE_RADAR_SCAN_ARC_SIZE_45)

  000f3	f3 0f 5a 05 04
	00 00 00	 cvtss2sd xmm0, DWORD PTR ?ground_radar@@3URADAR_PARAMS@@A+4
  000fb	f3 0f 5a 0d 08
	00 00 00	 cvtss2sd xmm1, DWORD PTR ?ground_radar@@3URADAR_PARAMS@@A+8
  00103	f2 0f 59 0d 00
	00 00 00	 mulsd	 xmm1, QWORD PTR __real@3fe0000000000000
  0010b	f2 0f 58 c1	 addsd	 xmm0, xmm1
  0010f	66 0f 2f 05 00
	00 00 00	 comisd	 xmm0, QWORD PTR __real@3fe921fb60000000
  00117	76 28		 jbe	 SHORT $LN11@inc_ground

; 241  : 	{
; 242  : 		ground_radar.scan_datum = APACHE_RADAR_SCAN_ARC_SIZE_45 - (ground_radar.scan_arc_size * 0.5);

  00119	f3 0f 5a 05 08
	00 00 00	 cvtss2sd xmm0, DWORD PTR ?ground_radar@@3URADAR_PARAMS@@A+8
  00121	f2 0f 59 05 00
	00 00 00	 mulsd	 xmm0, QWORD PTR __real@3fe0000000000000
  00129	f2 0f 10 0d 00
	00 00 00	 movsd	 xmm1, QWORD PTR __real@3fe921fb60000000
  00131	f2 0f 5c c8	 subsd	 xmm1, xmm0
  00135	f2 0f 5a c1	 cvtsd2ss xmm0, xmm1
  00139	f3 0f 11 05 04
	00 00 00	 movss	 DWORD PTR ?ground_radar@@3URADAR_PARAMS@@A+4, xmm0
$LN11@inc_ground:

; 243  : 	}
; 244  : 
; 245  : 	limit_radar_sweep (&ground_radar);

  00141	68 00 00 00 00	 push	 OFFSET ?ground_radar@@3URADAR_PARAMS@@A ; ground_radar
  00146	e8 00 00 00 00	 call	 ?limit_radar_sweep@@YGXPAURADAR_PARAMS@@@Z ; limit_radar_sweep

; 246  : }

  0014b	5f		 pop	 edi
  0014c	5e		 pop	 esi
  0014d	5b		 pop	 ebx
  0014e	8b e5		 mov	 esp, ebp
  00150	5d		 pop	 ebp
  00151	c3		 ret	 0
?inc_ground_radar_scan_arc_size@@YGXXZ ENDP		; inc_ground_radar_scan_arc_size
_TEXT	ENDS
; Function compile flags: /Odtp /ZI
; File c:\users\nhv90\projects\eech\aphavoc\source\gunships\avionics\apache\ap_radar.c
;	COMDAT ?fast_rotate_ground_radar_scan_datum_right@@YGXXZ
_TEXT	SEGMENT
_theta$ = -4						; size = 4
?fast_rotate_ground_radar_scan_datum_right@@YGXXZ PROC	; fast_rotate_ground_radar_scan_datum_right, COMDAT

; 198  : {

  00000	55		 push	 ebp
  00001	8b ec		 mov	 ebp, esp
  00003	83 ec 44	 sub	 esp, 68			; 00000044H
  00006	53		 push	 ebx
  00007	56		 push	 esi
  00008	57		 push	 edi

; 199  : 	float
; 200  : 		theta;
; 201  : 
; 202  : 	theta = ground_radar.scan_datum;

  00009	f3 0f 10 05 04
	00 00 00	 movss	 xmm0, DWORD PTR ?ground_radar@@3URADAR_PARAMS@@A+4
  00011	f3 0f 11 45 fc	 movss	 DWORD PTR _theta$[ebp], xmm0

; 203  : 
; 204  : 	ground_radar.scan_datum = APACHE_RADAR_SCAN_ARC_SIZE_45 - (ground_radar.scan_arc_size * 0.5);

  00016	f3 0f 5a 05 08
	00 00 00	 cvtss2sd xmm0, DWORD PTR ?ground_radar@@3URADAR_PARAMS@@A+8
  0001e	f2 0f 59 05 00
	00 00 00	 mulsd	 xmm0, QWORD PTR __real@3fe0000000000000
  00026	f2 0f 10 0d 00
	00 00 00	 movsd	 xmm1, QWORD PTR __real@3fe921fb60000000
  0002e	f2 0f 5c c8	 subsd	 xmm1, xmm0
  00032	f2 0f 5a c1	 cvtsd2ss xmm0, xmm1
  00036	f3 0f 11 05 04
	00 00 00	 movss	 DWORD PTR ?ground_radar@@3URADAR_PARAMS@@A+4, xmm0

; 205  : 
; 206  : 	theta = ground_radar.scan_datum - theta;

  0003e	f3 0f 10 05 04
	00 00 00	 movss	 xmm0, DWORD PTR ?ground_radar@@3URADAR_PARAMS@@A+4
  00046	f3 0f 5c 45 fc	 subss	 xmm0, DWORD PTR _theta$[ebp]
  0004b	f3 0f 11 45 fc	 movss	 DWORD PTR _theta$[ebp], xmm0

; 207  : 
; 208  : 	ground_radar.sweep_offset -= theta;

  00050	f3 0f 10 05 0c
	00 00 00	 movss	 xmm0, DWORD PTR ?ground_radar@@3URADAR_PARAMS@@A+12
  00058	f3 0f 5c 45 fc	 subss	 xmm0, DWORD PTR _theta$[ebp]
  0005d	f3 0f 11 05 0c
	00 00 00	 movss	 DWORD PTR ?ground_radar@@3URADAR_PARAMS@@A+12, xmm0

; 209  : 
; 210  : 	limit_radar_sweep (&ground_radar);

  00065	68 00 00 00 00	 push	 OFFSET ?ground_radar@@3URADAR_PARAMS@@A ; ground_radar
  0006a	e8 00 00 00 00	 call	 ?limit_radar_sweep@@YGXPAURADAR_PARAMS@@@Z ; limit_radar_sweep

; 211  : }

  0006f	5f		 pop	 edi
  00070	5e		 pop	 esi
  00071	5b		 pop	 ebx
  00072	8b e5		 mov	 esp, ebp
  00074	5d		 pop	 ebp
  00075	c3		 ret	 0
?fast_rotate_ground_radar_scan_datum_right@@YGXXZ ENDP	; fast_rotate_ground_radar_scan_datum_right
_TEXT	ENDS
; Function compile flags: /Odtp /ZI
; File c:\users\nhv90\projects\eech\aphavoc\source\gunships\avionics\apache\ap_radar.c
;	COMDAT ?rotate_ground_radar_scan_datum_right@@YGXXZ
_TEXT	SEGMENT
?rotate_ground_radar_scan_datum_right@@YGXXZ PROC	; rotate_ground_radar_scan_datum_right, COMDAT

; 178  : {

  00000	55		 push	 ebp
  00001	8b ec		 mov	 ebp, esp
  00003	83 ec 40	 sub	 esp, 64			; 00000040H
  00006	53		 push	 ebx
  00007	56		 push	 esi
  00008	57		 push	 edi

; 179  : 	ground_radar.scan_datum += APACHE_GROUND_RADAR_SCAN_DATUM_ROTATE_STEP;

  00009	f3 0f 5a 05 04
	00 00 00	 cvtss2sd xmm0, DWORD PTR ?ground_radar@@3URADAR_PARAMS@@A+4
  00011	f2 0f 58 05 00
	00 00 00	 addsd	 xmm0, QWORD PTR __real@3fc0c15240000000
  00019	f2 0f 5a c0	 cvtsd2ss xmm0, xmm0
  0001d	f3 0f 11 05 04
	00 00 00	 movss	 DWORD PTR ?ground_radar@@3URADAR_PARAMS@@A+4, xmm0

; 180  : 
; 181  : 	if ((ground_radar.scan_datum + (ground_radar.scan_arc_size * 0.5)) <= APACHE_RADAR_SCAN_ARC_SIZE_45)

  00025	f3 0f 5a 05 04
	00 00 00	 cvtss2sd xmm0, DWORD PTR ?ground_radar@@3URADAR_PARAMS@@A+4
  0002d	f3 0f 5a 0d 08
	00 00 00	 cvtss2sd xmm1, DWORD PTR ?ground_radar@@3URADAR_PARAMS@@A+8
  00035	f2 0f 59 0d 00
	00 00 00	 mulsd	 xmm1, QWORD PTR __real@3fe0000000000000
  0003d	f2 0f 58 c1	 addsd	 xmm0, xmm1
  00041	f2 0f 10 0d 00
	00 00 00	 movsd	 xmm1, QWORD PTR __real@3fe921fb60000000
  00049	66 0f 2f c8	 comisd	 xmm1, xmm0
  0004d	72 1e		 jb	 SHORT $LN2@rotate_gro

; 182  : 	{
; 183  : 		ground_radar.sweep_offset -= APACHE_GROUND_RADAR_SCAN_DATUM_ROTATE_STEP;

  0004f	f3 0f 5a 05 0c
	00 00 00	 cvtss2sd xmm0, DWORD PTR ?ground_radar@@3URADAR_PARAMS@@A+12
  00057	f2 0f 5c 05 00
	00 00 00	 subsd	 xmm0, QWORD PTR __real@3fc0c15240000000
  0005f	f2 0f 5a c0	 cvtsd2ss xmm0, xmm0
  00063	f3 0f 11 05 0c
	00 00 00	 movss	 DWORD PTR ?ground_radar@@3URADAR_PARAMS@@A+12, xmm0

; 184  : 	}
; 185  : 	else

  0006b	eb 28		 jmp	 SHORT $LN3@rotate_gro
$LN2@rotate_gro:

; 186  : 	{
; 187  : 		ground_radar.scan_datum = APACHE_RADAR_SCAN_ARC_SIZE_45 - (ground_radar.scan_arc_size * 0.5);

  0006d	f3 0f 5a 05 08
	00 00 00	 cvtss2sd xmm0, DWORD PTR ?ground_radar@@3URADAR_PARAMS@@A+8
  00075	f2 0f 59 05 00
	00 00 00	 mulsd	 xmm0, QWORD PTR __real@3fe0000000000000
  0007d	f2 0f 10 0d 00
	00 00 00	 movsd	 xmm1, QWORD PTR __real@3fe921fb60000000
  00085	f2 0f 5c c8	 subsd	 xmm1, xmm0
  00089	f2 0f 5a c1	 cvtsd2ss xmm0, xmm1
  0008d	f3 0f 11 05 04
	00 00 00	 movss	 DWORD PTR ?ground_radar@@3URADAR_PARAMS@@A+4, xmm0
$LN3@rotate_gro:

; 188  : 	}
; 189  : 
; 190  : 	limit_radar_sweep (&ground_radar);

  00095	68 00 00 00 00	 push	 OFFSET ?ground_radar@@3URADAR_PARAMS@@A ; ground_radar
  0009a	e8 00 00 00 00	 call	 ?limit_radar_sweep@@YGXPAURADAR_PARAMS@@@Z ; limit_radar_sweep

; 191  : }

  0009f	5f		 pop	 edi
  000a0	5e		 pop	 esi
  000a1	5b		 pop	 ebx
  000a2	8b e5		 mov	 esp, ebp
  000a4	5d		 pop	 ebp
  000a5	c3		 ret	 0
?rotate_ground_radar_scan_datum_right@@YGXXZ ENDP	; rotate_ground_radar_scan_datum_right
_TEXT	ENDS
; Function compile flags: /Odtp /ZI
; File c:\users\nhv90\projects\eech\aphavoc\source\gunships\avionics\apache\ap_radar.c
;	COMDAT ?fast_rotate_ground_radar_scan_datum_left@@YGXXZ
_TEXT	SEGMENT
_theta$ = -4						; size = 4
?fast_rotate_ground_radar_scan_datum_left@@YGXXZ PROC	; fast_rotate_ground_radar_scan_datum_left, COMDAT

; 158  : {

  00000	55		 push	 ebp
  00001	8b ec		 mov	 ebp, esp
  00003	83 ec 44	 sub	 esp, 68			; 00000044H
  00006	53		 push	 ebx
  00007	56		 push	 esi
  00008	57		 push	 edi

; 159  : 	float
; 160  : 		theta;
; 161  : 
; 162  : 	theta = ground_radar.scan_datum;

  00009	f3 0f 10 05 04
	00 00 00	 movss	 xmm0, DWORD PTR ?ground_radar@@3URADAR_PARAMS@@A+4
  00011	f3 0f 11 45 fc	 movss	 DWORD PTR _theta$[ebp], xmm0

; 163  : 
; 164  : 	ground_radar.scan_datum = -APACHE_RADAR_SCAN_ARC_SIZE_45 + (ground_radar.scan_arc_size * 0.5);

  00016	f3 0f 5a 05 08
	00 00 00	 cvtss2sd xmm0, DWORD PTR ?ground_radar@@3URADAR_PARAMS@@A+8
  0001e	f2 0f 59 05 00
	00 00 00	 mulsd	 xmm0, QWORD PTR __real@3fe0000000000000
  00026	f2 0f 58 05 00
	00 00 00	 addsd	 xmm0, QWORD PTR __real@bfe921fb60000000
  0002e	f2 0f 5a c0	 cvtsd2ss xmm0, xmm0
  00032	f3 0f 11 05 04
	00 00 00	 movss	 DWORD PTR ?ground_radar@@3URADAR_PARAMS@@A+4, xmm0

; 165  : 
; 166  : 	theta = ground_radar.scan_datum - theta;

  0003a	f3 0f 10 05 04
	00 00 00	 movss	 xmm0, DWORD PTR ?ground_radar@@3URADAR_PARAMS@@A+4
  00042	f3 0f 5c 45 fc	 subss	 xmm0, DWORD PTR _theta$[ebp]
  00047	f3 0f 11 45 fc	 movss	 DWORD PTR _theta$[ebp], xmm0

; 167  : 
; 168  : 	ground_radar.sweep_offset -= theta;

  0004c	f3 0f 10 05 0c
	00 00 00	 movss	 xmm0, DWORD PTR ?ground_radar@@3URADAR_PARAMS@@A+12
  00054	f3 0f 5c 45 fc	 subss	 xmm0, DWORD PTR _theta$[ebp]
  00059	f3 0f 11 05 0c
	00 00 00	 movss	 DWORD PTR ?ground_radar@@3URADAR_PARAMS@@A+12, xmm0

; 169  : 
; 170  : 	limit_radar_sweep (&ground_radar);

  00061	68 00 00 00 00	 push	 OFFSET ?ground_radar@@3URADAR_PARAMS@@A ; ground_radar
  00066	e8 00 00 00 00	 call	 ?limit_radar_sweep@@YGXPAURADAR_PARAMS@@@Z ; limit_radar_sweep

; 171  : }

  0006b	5f		 pop	 edi
  0006c	5e		 pop	 esi
  0006d	5b		 pop	 ebx
  0006e	8b e5		 mov	 esp, ebp
  00070	5d		 pop	 ebp
  00071	c3		 ret	 0
?fast_rotate_ground_radar_scan_datum_left@@YGXXZ ENDP	; fast_rotate_ground_radar_scan_datum_left
_TEXT	ENDS
; Function compile flags: /Odtp /ZI
; File c:\users\nhv90\projects\eech\aphavoc\source\gunships\avionics\apache\ap_radar.c
;	COMDAT ?rotate_ground_radar_scan_datum_left@@YGXXZ
_TEXT	SEGMENT
?rotate_ground_radar_scan_datum_left@@YGXXZ PROC	; rotate_ground_radar_scan_datum_left, COMDAT

; 138  : {

  00000	55		 push	 ebp
  00001	8b ec		 mov	 ebp, esp
  00003	83 ec 40	 sub	 esp, 64			; 00000040H
  00006	53		 push	 ebx
  00007	56		 push	 esi
  00008	57		 push	 edi

; 139  : 	ground_radar.scan_datum -= APACHE_GROUND_RADAR_SCAN_DATUM_ROTATE_STEP;

  00009	f3 0f 5a 05 04
	00 00 00	 cvtss2sd xmm0, DWORD PTR ?ground_radar@@3URADAR_PARAMS@@A+4
  00011	f2 0f 5c 05 00
	00 00 00	 subsd	 xmm0, QWORD PTR __real@3fc0c15240000000
  00019	f2 0f 5a c0	 cvtsd2ss xmm0, xmm0
  0001d	f3 0f 11 05 04
	00 00 00	 movss	 DWORD PTR ?ground_radar@@3URADAR_PARAMS@@A+4, xmm0

; 140  : 
; 141  : 	if ((ground_radar.scan_datum - (ground_radar.scan_arc_size * 0.5)) >= -APACHE_RADAR_SCAN_ARC_SIZE_45)

  00025	f3 0f 5a 05 04
	00 00 00	 cvtss2sd xmm0, DWORD PTR ?ground_radar@@3URADAR_PARAMS@@A+4
  0002d	f3 0f 5a 0d 08
	00 00 00	 cvtss2sd xmm1, DWORD PTR ?ground_radar@@3URADAR_PARAMS@@A+8
  00035	f2 0f 59 0d 00
	00 00 00	 mulsd	 xmm1, QWORD PTR __real@3fe0000000000000
  0003d	f2 0f 5c c1	 subsd	 xmm0, xmm1
  00041	66 0f 2f 05 00
	00 00 00	 comisd	 xmm0, QWORD PTR __real@bfe921fb60000000
  00049	72 1e		 jb	 SHORT $LN2@rotate_gro

; 142  : 	{
; 143  : 		ground_radar.sweep_offset += APACHE_GROUND_RADAR_SCAN_DATUM_ROTATE_STEP;

  0004b	f3 0f 5a 05 0c
	00 00 00	 cvtss2sd xmm0, DWORD PTR ?ground_radar@@3URADAR_PARAMS@@A+12
  00053	f2 0f 58 05 00
	00 00 00	 addsd	 xmm0, QWORD PTR __real@3fc0c15240000000
  0005b	f2 0f 5a c0	 cvtsd2ss xmm0, xmm0
  0005f	f3 0f 11 05 0c
	00 00 00	 movss	 DWORD PTR ?ground_radar@@3URADAR_PARAMS@@A+12, xmm0

; 144  : 	}
; 145  : 	else

  00067	eb 24		 jmp	 SHORT $LN3@rotate_gro
$LN2@rotate_gro:

; 146  : 	{
; 147  : 		ground_radar.scan_datum = -APACHE_RADAR_SCAN_ARC_SIZE_45 + (ground_radar.scan_arc_size * 0.5);

  00069	f3 0f 5a 05 08
	00 00 00	 cvtss2sd xmm0, DWORD PTR ?ground_radar@@3URADAR_PARAMS@@A+8
  00071	f2 0f 59 05 00
	00 00 00	 mulsd	 xmm0, QWORD PTR __real@3fe0000000000000
  00079	f2 0f 58 05 00
	00 00 00	 addsd	 xmm0, QWORD PTR __real@bfe921fb60000000
  00081	f2 0f 5a c0	 cvtsd2ss xmm0, xmm0
  00085	f3 0f 11 05 04
	00 00 00	 movss	 DWORD PTR ?ground_radar@@3URADAR_PARAMS@@A+4, xmm0
$LN3@rotate_gro:

; 148  : 	}
; 149  : 
; 150  : 	limit_radar_sweep (&ground_radar);

  0008d	68 00 00 00 00	 push	 OFFSET ?ground_radar@@3URADAR_PARAMS@@A ; ground_radar
  00092	e8 00 00 00 00	 call	 ?limit_radar_sweep@@YGXPAURADAR_PARAMS@@@Z ; limit_radar_sweep

; 151  : }

  00097	5f		 pop	 edi
  00098	5e		 pop	 esi
  00099	5b		 pop	 ebx
  0009a	8b e5		 mov	 esp, ebp
  0009c	5d		 pop	 ebp
  0009d	c3		 ret	 0
?rotate_ground_radar_scan_datum_left@@YGXXZ ENDP	; rotate_ground_radar_scan_datum_left
_TEXT	ENDS
; Function compile flags: /Odtp /ZI
; File c:\users\nhv90\projects\eech\aphavoc\source\gunships\avionics\apache\ap_radar.c
;	COMDAT ?centre_apache_air_radar@@YGXXZ
_TEXT	SEGMENT
?centre_apache_air_radar@@YGXXZ PROC			; centre_apache_air_radar, COMDAT

; 1036 : {

  00000	55		 push	 ebp
  00001	8b ec		 mov	 ebp, esp
  00003	83 ec 40	 sub	 esp, 64			; 00000040H
  00006	53		 push	 ebx
  00007	56		 push	 esi
  00008	57		 push	 edi

; 1037 : 	air_radar.sweep_offset += air_radar.scan_datum;

  00009	f3 0f 10 05 0c
	00 00 00	 movss	 xmm0, DWORD PTR ?air_radar@@3URADAR_PARAMS@@A+12
  00011	f3 0f 58 05 04
	00 00 00	 addss	 xmm0, DWORD PTR ?air_radar@@3URADAR_PARAMS@@A+4
  00019	f3 0f 11 05 0c
	00 00 00	 movss	 DWORD PTR ?air_radar@@3URADAR_PARAMS@@A+12, xmm0

; 1038 : 
; 1039 : 	air_radar.scan_datum = rad (0.0);

  00021	0f 57 c0	 xorps	 xmm0, xmm0
  00024	f3 0f 11 05 04
	00 00 00	 movss	 DWORD PTR ?air_radar@@3URADAR_PARAMS@@A+4, xmm0

; 1040 : 
; 1041 : 	limit_radar_sweep (&air_radar);

  0002c	68 00 00 00 00	 push	 OFFSET ?air_radar@@3URADAR_PARAMS@@A ; air_radar
  00031	e8 00 00 00 00	 call	 ?limit_radar_sweep@@YGXPAURADAR_PARAMS@@@Z ; limit_radar_sweep

; 1042 : }

  00036	5f		 pop	 edi
  00037	5e		 pop	 esi
  00038	5b		 pop	 ebx
  00039	8b e5		 mov	 esp, ebp
  0003b	5d		 pop	 ebp
  0003c	c3		 ret	 0
?centre_apache_air_radar@@YGXXZ ENDP			; centre_apache_air_radar
_TEXT	ENDS
; Function compile flags: /Odtp /ZI
; File c:\users\nhv90\projects\eech\aphavoc\source\gunships\avionics\apache\ap_radar.c
;	COMDAT ?update_apache_air_radar@@YGXXZ
_TEXT	SEGMENT
?update_apache_air_radar@@YGXXZ PROC			; update_apache_air_radar, COMDAT

; 897  : {

  00000	55		 push	 ebp
  00001	8b ec		 mov	 ebp, esp
  00003	83 ec 40	 sub	 esp, 64			; 00000040H
  00006	53		 push	 ebx
  00007	56		 push	 esi
  00008	57		 push	 edi
$LN2@update_apa:

; 898  : 	////////////////////////////////////////
; 899  : 
; 900  : 	while (single_target_acquisition_system_steer_left_key)

  00009	83 3d 00 00 00
	00 00		 cmp	 DWORD PTR ?single_target_acquisition_system_steer_left_key@@3HA, 0 ; single_target_acquisition_system_steer_left_key
  00010	74 14		 je	 SHORT $LN4@update_apa

; 901  : 	{
; 902  : 		rotate_air_radar_scan_datum_left ();

  00012	e8 00 00 00 00	 call	 ?rotate_air_radar_scan_datum_left@@YGXXZ ; rotate_air_radar_scan_datum_left

; 903  : 
; 904  : 		single_target_acquisition_system_steer_left_key--;

  00017	a1 00 00 00 00	 mov	 eax, DWORD PTR ?single_target_acquisition_system_steer_left_key@@3HA ; single_target_acquisition_system_steer_left_key
  0001c	83 e8 01	 sub	 eax, 1
  0001f	a3 00 00 00 00	 mov	 DWORD PTR ?single_target_acquisition_system_steer_left_key@@3HA, eax ; single_target_acquisition_system_steer_left_key

; 905  : 	}

  00024	eb e3		 jmp	 SHORT $LN2@update_apa
$LN4@update_apa:

; 906  : 
; 907  : 	while (single_target_acquisition_system_steer_left_fast_key)

  00026	83 3d 00 00 00
	00 00		 cmp	 DWORD PTR ?single_target_acquisition_system_steer_left_fast_key@@3HA, 0 ; single_target_acquisition_system_steer_left_fast_key
  0002d	74 14		 je	 SHORT $LN6@update_apa

; 908  : 	{
; 909  : 		fast_rotate_air_radar_scan_datum_left ();

  0002f	e8 00 00 00 00	 call	 ?fast_rotate_air_radar_scan_datum_left@@YGXXZ ; fast_rotate_air_radar_scan_datum_left

; 910  : 
; 911  : 		single_target_acquisition_system_steer_left_fast_key--;

  00034	a1 00 00 00 00	 mov	 eax, DWORD PTR ?single_target_acquisition_system_steer_left_fast_key@@3HA ; single_target_acquisition_system_steer_left_fast_key
  00039	83 e8 01	 sub	 eax, 1
  0003c	a3 00 00 00 00	 mov	 DWORD PTR ?single_target_acquisition_system_steer_left_fast_key@@3HA, eax ; single_target_acquisition_system_steer_left_fast_key

; 912  : 	}

  00041	eb e3		 jmp	 SHORT $LN4@update_apa
$LN6@update_apa:

; 913  : 
; 914  : 	////////////////////////////////////////
; 915  : 
; 916  : 	while (single_target_acquisition_system_steer_right_key)

  00043	83 3d 00 00 00
	00 00		 cmp	 DWORD PTR ?single_target_acquisition_system_steer_right_key@@3HA, 0 ; single_target_acquisition_system_steer_right_key
  0004a	74 14		 je	 SHORT $LN8@update_apa

; 917  : 	{
; 918  : 		rotate_air_radar_scan_datum_right ();

  0004c	e8 00 00 00 00	 call	 ?rotate_air_radar_scan_datum_right@@YGXXZ ; rotate_air_radar_scan_datum_right

; 919  : 
; 920  : 		single_target_acquisition_system_steer_right_key--;

  00051	a1 00 00 00 00	 mov	 eax, DWORD PTR ?single_target_acquisition_system_steer_right_key@@3HA ; single_target_acquisition_system_steer_right_key
  00056	83 e8 01	 sub	 eax, 1
  00059	a3 00 00 00 00	 mov	 DWORD PTR ?single_target_acquisition_system_steer_right_key@@3HA, eax ; single_target_acquisition_system_steer_right_key

; 921  : 	}

  0005e	eb e3		 jmp	 SHORT $LN6@update_apa
$LN8@update_apa:

; 922  : 
; 923  : 	while (single_target_acquisition_system_steer_right_fast_key)

  00060	83 3d 00 00 00
	00 00		 cmp	 DWORD PTR ?single_target_acquisition_system_steer_right_fast_key@@3HA, 0 ; single_target_acquisition_system_steer_right_fast_key
  00067	74 14		 je	 SHORT $LN10@update_apa

; 924  : 	{
; 925  : 		fast_rotate_air_radar_scan_datum_right ();

  00069	e8 00 00 00 00	 call	 ?fast_rotate_air_radar_scan_datum_right@@YGXXZ ; fast_rotate_air_radar_scan_datum_right

; 926  : 
; 927  : 		single_target_acquisition_system_steer_right_fast_key--;

  0006e	a1 00 00 00 00	 mov	 eax, DWORD PTR ?single_target_acquisition_system_steer_right_fast_key@@3HA ; single_target_acquisition_system_steer_right_fast_key
  00073	83 e8 01	 sub	 eax, 1
  00076	a3 00 00 00 00	 mov	 DWORD PTR ?single_target_acquisition_system_steer_right_fast_key@@3HA, eax ; single_target_acquisition_system_steer_right_fast_key

; 928  : 	}

  0007b	eb e3		 jmp	 SHORT $LN8@update_apa
$LN10@update_apa:

; 929  : 
; 930  : 	////////////////////////////////////////
; 931  : 
; 932  : 	while (single_target_acquisition_system_steer_up_key)

  0007d	83 3d 00 00 00
	00 00		 cmp	 DWORD PTR ?single_target_acquisition_system_steer_up_key@@3HA, 0 ; single_target_acquisition_system_steer_up_key
  00084	74 14		 je	 SHORT $LN12@update_apa

; 933  : 	{
; 934  : 		inc_air_radar_scan_arc_size ();

  00086	e8 00 00 00 00	 call	 ?inc_air_radar_scan_arc_size@@YGXXZ ; inc_air_radar_scan_arc_size

; 935  : 
; 936  : 		single_target_acquisition_system_steer_up_key--;

  0008b	a1 00 00 00 00	 mov	 eax, DWORD PTR ?single_target_acquisition_system_steer_up_key@@3HA ; single_target_acquisition_system_steer_up_key
  00090	83 e8 01	 sub	 eax, 1
  00093	a3 00 00 00 00	 mov	 DWORD PTR ?single_target_acquisition_system_steer_up_key@@3HA, eax ; single_target_acquisition_system_steer_up_key

; 937  : 	}

  00098	eb e3		 jmp	 SHORT $LN10@update_apa
$LN12@update_apa:

; 938  : 
; 939  : 	while (single_target_acquisition_system_steer_up_fast_key)

  0009a	83 3d 00 00 00
	00 00		 cmp	 DWORD PTR ?single_target_acquisition_system_steer_up_fast_key@@3HA, 0 ; single_target_acquisition_system_steer_up_fast_key
  000a1	74 14		 je	 SHORT $LN14@update_apa

; 940  : 	{
; 941  : 		fast_inc_air_radar_scan_arc_size ();

  000a3	e8 00 00 00 00	 call	 ?fast_inc_air_radar_scan_arc_size@@YGXXZ ; fast_inc_air_radar_scan_arc_size

; 942  : 
; 943  : 		single_target_acquisition_system_steer_up_fast_key--;

  000a8	a1 00 00 00 00	 mov	 eax, DWORD PTR ?single_target_acquisition_system_steer_up_fast_key@@3HA ; single_target_acquisition_system_steer_up_fast_key
  000ad	83 e8 01	 sub	 eax, 1
  000b0	a3 00 00 00 00	 mov	 DWORD PTR ?single_target_acquisition_system_steer_up_fast_key@@3HA, eax ; single_target_acquisition_system_steer_up_fast_key

; 944  : 	}

  000b5	eb e3		 jmp	 SHORT $LN12@update_apa
$LN14@update_apa:

; 945  : 
; 946  : 	////////////////////////////////////////
; 947  : 
; 948  : 	while (single_target_acquisition_system_steer_down_key)

  000b7	83 3d 00 00 00
	00 00		 cmp	 DWORD PTR ?single_target_acquisition_system_steer_down_key@@3HA, 0 ; single_target_acquisition_system_steer_down_key
  000be	74 14		 je	 SHORT $LN16@update_apa

; 949  : 	{
; 950  : 		dec_air_radar_scan_arc_size ();

  000c0	e8 00 00 00 00	 call	 ?dec_air_radar_scan_arc_size@@YGXXZ ; dec_air_radar_scan_arc_size

; 951  : 
; 952  : 		single_target_acquisition_system_steer_down_key--;

  000c5	a1 00 00 00 00	 mov	 eax, DWORD PTR ?single_target_acquisition_system_steer_down_key@@3HA ; single_target_acquisition_system_steer_down_key
  000ca	83 e8 01	 sub	 eax, 1
  000cd	a3 00 00 00 00	 mov	 DWORD PTR ?single_target_acquisition_system_steer_down_key@@3HA, eax ; single_target_acquisition_system_steer_down_key

; 953  : 	}

  000d2	eb e3		 jmp	 SHORT $LN14@update_apa
$LN16@update_apa:

; 954  : 
; 955  : 	while (single_target_acquisition_system_steer_down_fast_key)

  000d4	83 3d 00 00 00
	00 00		 cmp	 DWORD PTR ?single_target_acquisition_system_steer_down_fast_key@@3HA, 0 ; single_target_acquisition_system_steer_down_fast_key
  000db	74 14		 je	 SHORT $LN18@update_apa

; 956  : 	{
; 957  : 		fast_dec_air_radar_scan_arc_size ();

  000dd	e8 00 00 00 00	 call	 ?fast_dec_air_radar_scan_arc_size@@YGXXZ ; fast_dec_air_radar_scan_arc_size

; 958  : 
; 959  : 		single_target_acquisition_system_steer_down_fast_key--;

  000e2	a1 00 00 00 00	 mov	 eax, DWORD PTR ?single_target_acquisition_system_steer_down_fast_key@@3HA ; single_target_acquisition_system_steer_down_fast_key
  000e7	83 e8 01	 sub	 eax, 1
  000ea	a3 00 00 00 00	 mov	 DWORD PTR ?single_target_acquisition_system_steer_down_fast_key@@3HA, eax ; single_target_acquisition_system_steer_down_fast_key

; 960  : 	}

  000ef	eb e3		 jmp	 SHORT $LN16@update_apa
$LN18@update_apa:

; 961  : 
; 962  : 	////////////////////////////////////////
; 963  : 
; 964  : 	while (single_target_acquisition_system_inc_range_key)

  000f1	83 3d 00 00 00
	00 00		 cmp	 DWORD PTR ?single_target_acquisition_system_inc_range_key@@3HA, 0 ; single_target_acquisition_system_inc_range_key
  000f8	74 14		 je	 SHORT $LN20@update_apa

; 965  : 	{
; 966  : 		inc_air_radar_scan_range ();

  000fa	e8 00 00 00 00	 call	 ?inc_air_radar_scan_range@@YGXXZ ; inc_air_radar_scan_range

; 967  : 
; 968  : 		single_target_acquisition_system_inc_range_key--;

  000ff	a1 00 00 00 00	 mov	 eax, DWORD PTR ?single_target_acquisition_system_inc_range_key@@3HA ; single_target_acquisition_system_inc_range_key
  00104	83 e8 01	 sub	 eax, 1
  00107	a3 00 00 00 00	 mov	 DWORD PTR ?single_target_acquisition_system_inc_range_key@@3HA, eax ; single_target_acquisition_system_inc_range_key

; 969  : 	}

  0010c	eb e3		 jmp	 SHORT $LN18@update_apa
$LN20@update_apa:

; 970  : 
; 971  : 	while (single_target_acquisition_system_inc_range_fast_key)

  0010e	83 3d 00 00 00
	00 00		 cmp	 DWORD PTR ?single_target_acquisition_system_inc_range_fast_key@@3HA, 0 ; single_target_acquisition_system_inc_range_fast_key
  00115	74 14		 je	 SHORT $LN22@update_apa

; 972  : 	{
; 973  : 		fast_inc_air_radar_scan_range ();

  00117	e8 00 00 00 00	 call	 ?fast_inc_air_radar_scan_range@@YGXXZ ; fast_inc_air_radar_scan_range

; 974  : 
; 975  : 		single_target_acquisition_system_inc_range_fast_key--;

  0011c	a1 00 00 00 00	 mov	 eax, DWORD PTR ?single_target_acquisition_system_inc_range_fast_key@@3HA ; single_target_acquisition_system_inc_range_fast_key
  00121	83 e8 01	 sub	 eax, 1
  00124	a3 00 00 00 00	 mov	 DWORD PTR ?single_target_acquisition_system_inc_range_fast_key@@3HA, eax ; single_target_acquisition_system_inc_range_fast_key

; 976  : 	}

  00129	eb e3		 jmp	 SHORT $LN20@update_apa
$LN22@update_apa:

; 977  : 
; 978  : 	////////////////////////////////////////
; 979  : 
; 980  : 	while (single_target_acquisition_system_dec_range_key)

  0012b	83 3d 00 00 00
	00 00		 cmp	 DWORD PTR ?single_target_acquisition_system_dec_range_key@@3HA, 0 ; single_target_acquisition_system_dec_range_key
  00132	74 14		 je	 SHORT $LN24@update_apa

; 981  : 	{
; 982  : 		dec_air_radar_scan_range ();

  00134	e8 00 00 00 00	 call	 ?dec_air_radar_scan_range@@YGXXZ ; dec_air_radar_scan_range

; 983  : 
; 984  : 		single_target_acquisition_system_dec_range_key--;

  00139	a1 00 00 00 00	 mov	 eax, DWORD PTR ?single_target_acquisition_system_dec_range_key@@3HA ; single_target_acquisition_system_dec_range_key
  0013e	83 e8 01	 sub	 eax, 1
  00141	a3 00 00 00 00	 mov	 DWORD PTR ?single_target_acquisition_system_dec_range_key@@3HA, eax ; single_target_acquisition_system_dec_range_key

; 985  : 	}

  00146	eb e3		 jmp	 SHORT $LN22@update_apa
$LN24@update_apa:

; 986  : 
; 987  : 	while (single_target_acquisition_system_dec_range_fast_key)

  00148	83 3d 00 00 00
	00 00		 cmp	 DWORD PTR ?single_target_acquisition_system_dec_range_fast_key@@3HA, 0 ; single_target_acquisition_system_dec_range_fast_key
  0014f	74 14		 je	 SHORT $LN26@update_apa

; 988  : 	{
; 989  : 		fast_dec_air_radar_scan_range ();

  00151	e8 00 00 00 00	 call	 ?fast_dec_air_radar_scan_range@@YGXXZ ; fast_dec_air_radar_scan_range

; 990  : 
; 991  : 		single_target_acquisition_system_dec_range_fast_key--;

  00156	a1 00 00 00 00	 mov	 eax, DWORD PTR ?single_target_acquisition_system_dec_range_fast_key@@3HA ; single_target_acquisition_system_dec_range_fast_key
  0015b	83 e8 01	 sub	 eax, 1
  0015e	a3 00 00 00 00	 mov	 DWORD PTR ?single_target_acquisition_system_dec_range_fast_key@@3HA, eax ; single_target_acquisition_system_dec_range_fast_key

; 992  : 	}

  00163	eb e3		 jmp	 SHORT $LN24@update_apa
$LN26@update_apa:

; 993  : 
; 994  : 	////////////////////////////////////////
; 995  : 
; 996  : 	while (single_target_acquisition_system_select_next_target_key)

  00165	83 3d 00 00 00
	00 00		 cmp	 DWORD PTR ?single_target_acquisition_system_select_next_target_key@@3HA, 0 ; single_target_acquisition_system_select_next_target_key
  0016c	74 14		 je	 SHORT $LN28@update_apa

; 997  : 	{
; 998  : 		select_next_air_radar_target ();

  0016e	e8 00 00 00 00	 call	 ?select_next_air_radar_target@@YGXXZ ; select_next_air_radar_target

; 999  : 
; 1000 : 		single_target_acquisition_system_select_next_target_key--;

  00173	a1 00 00 00 00	 mov	 eax, DWORD PTR ?single_target_acquisition_system_select_next_target_key@@3HA ; single_target_acquisition_system_select_next_target_key
  00178	83 e8 01	 sub	 eax, 1
  0017b	a3 00 00 00 00	 mov	 DWORD PTR ?single_target_acquisition_system_select_next_target_key@@3HA, eax ; single_target_acquisition_system_select_next_target_key

; 1001 : 	}

  00180	eb e3		 jmp	 SHORT $LN26@update_apa
$LN28@update_apa:

; 1002 : 
; 1003 : 	////////////////////////////////////////
; 1004 : 
; 1005 : 	while (single_target_acquisition_system_select_previous_target_key)

  00182	83 3d 00 00 00
	00 00		 cmp	 DWORD PTR ?single_target_acquisition_system_select_previous_target_key@@3HA, 0 ; single_target_acquisition_system_select_previous_target_key
  00189	74 14		 je	 SHORT $LN30@update_apa

; 1006 : 	{
; 1007 : 		select_previous_air_radar_target ();

  0018b	e8 00 00 00 00	 call	 ?select_previous_air_radar_target@@YGXXZ ; select_previous_air_radar_target

; 1008 : 
; 1009 : 		single_target_acquisition_system_select_previous_target_key--;

  00190	a1 00 00 00 00	 mov	 eax, DWORD PTR ?single_target_acquisition_system_select_previous_target_key@@3HA ; single_target_acquisition_system_select_previous_target_key
  00195	83 e8 01	 sub	 eax, 1
  00198	a3 00 00 00 00	 mov	 DWORD PTR ?single_target_acquisition_system_select_previous_target_key@@3HA, eax ; single_target_acquisition_system_select_previous_target_key

; 1010 : 	}

  0019d	eb e3		 jmp	 SHORT $LN28@update_apa
$LN30@update_apa:

; 1011 : // Jabberwock 031107 Designated targets
; 1012 : 	
; 1013 : 	while (single_target_acquisition_system_select_next_designated_key)

  0019f	83 3d 00 00 00
	00 00		 cmp	 DWORD PTR ?single_target_acquisition_system_select_next_designated_key@@3HA, 0 ; single_target_acquisition_system_select_next_designated_key
  001a6	74 14		 je	 SHORT $LN32@update_apa

; 1014 : 	{
; 1015 : 		select_next_designated_air_radar_target ();

  001a8	e8 00 00 00 00	 call	 ?select_next_designated_air_radar_target@@YGXXZ ; select_next_designated_air_radar_target

; 1016 : 
; 1017 : 		single_target_acquisition_system_select_next_designated_key--;

  001ad	a1 00 00 00 00	 mov	 eax, DWORD PTR ?single_target_acquisition_system_select_next_designated_key@@3HA ; single_target_acquisition_system_select_next_designated_key
  001b2	83 e8 01	 sub	 eax, 1
  001b5	a3 00 00 00 00	 mov	 DWORD PTR ?single_target_acquisition_system_select_next_designated_key@@3HA, eax ; single_target_acquisition_system_select_next_designated_key

; 1018 : 	}

  001ba	eb e3		 jmp	 SHORT $LN30@update_apa
$LN32@update_apa:

; 1019 : 
; 1020 : 	////////////////////////////////////////
; 1021 : 
; 1022 : 	while (single_target_acquisition_system_select_previous_designated_key)

  001bc	83 3d 00 00 00
	00 00		 cmp	 DWORD PTR ?single_target_acquisition_system_select_previous_designated_key@@3HA, 0 ; single_target_acquisition_system_select_previous_designated_key
  001c3	74 14		 je	 SHORT $LN1@update_apa

; 1023 : 	{
; 1024 : 		select_next_designated_air_radar_target ();

  001c5	e8 00 00 00 00	 call	 ?select_next_designated_air_radar_target@@YGXXZ ; select_next_designated_air_radar_target

; 1025 : 
; 1026 : 		single_target_acquisition_system_select_previous_designated_key--;

  001ca	a1 00 00 00 00	 mov	 eax, DWORD PTR ?single_target_acquisition_system_select_previous_designated_key@@3HA ; single_target_acquisition_system_select_previous_designated_key
  001cf	83 e8 01	 sub	 eax, 1
  001d2	a3 00 00 00 00	 mov	 DWORD PTR ?single_target_acquisition_system_select_previous_designated_key@@3HA, eax ; single_target_acquisition_system_select_previous_designated_key

; 1027 : 	}	

  001d7	eb e3		 jmp	 SHORT $LN32@update_apa
$LN1@update_apa:

; 1028 : // Jabberwock 031107 ends	
; 1029 : }

  001d9	5f		 pop	 edi
  001da	5e		 pop	 esi
  001db	5b		 pop	 ebx
  001dc	8b e5		 mov	 esp, ebp
  001de	5d		 pop	 ebp
  001df	c3		 ret	 0
?update_apache_air_radar@@YGXXZ ENDP			; update_apache_air_radar
_TEXT	ENDS
; Function compile flags: /Odtp /ZI
; File c:\users\nhv90\projects\eech\aphavoc\source\gunships\avionics\apache\ap_radar.c
;	COMDAT ?centre_apache_ground_radar@@YGXXZ
_TEXT	SEGMENT
?centre_apache_ground_radar@@YGXXZ PROC			; centre_apache_ground_radar, COMDAT

; 636  : {

  00000	55		 push	 ebp
  00001	8b ec		 mov	 ebp, esp
  00003	83 ec 40	 sub	 esp, 64			; 00000040H
  00006	53		 push	 ebx
  00007	56		 push	 esi
  00008	57		 push	 edi

; 637  : 	ground_radar.sweep_offset += ground_radar.scan_datum;

  00009	f3 0f 10 05 0c
	00 00 00	 movss	 xmm0, DWORD PTR ?ground_radar@@3URADAR_PARAMS@@A+12
  00011	f3 0f 58 05 04
	00 00 00	 addss	 xmm0, DWORD PTR ?ground_radar@@3URADAR_PARAMS@@A+4
  00019	f3 0f 11 05 0c
	00 00 00	 movss	 DWORD PTR ?ground_radar@@3URADAR_PARAMS@@A+12, xmm0

; 638  : 
; 639  : 	ground_radar.scan_datum = rad (0.0);

  00021	0f 57 c0	 xorps	 xmm0, xmm0
  00024	f3 0f 11 05 04
	00 00 00	 movss	 DWORD PTR ?ground_radar@@3URADAR_PARAMS@@A+4, xmm0

; 640  : 
; 641  : 	limit_radar_sweep (&ground_radar);

  0002c	68 00 00 00 00	 push	 OFFSET ?ground_radar@@3URADAR_PARAMS@@A ; ground_radar
  00031	e8 00 00 00 00	 call	 ?limit_radar_sweep@@YGXPAURADAR_PARAMS@@@Z ; limit_radar_sweep

; 642  : }

  00036	5f		 pop	 edi
  00037	5e		 pop	 esi
  00038	5b		 pop	 ebx
  00039	8b e5		 mov	 esp, ebp
  0003b	5d		 pop	 ebp
  0003c	c3		 ret	 0
?centre_apache_ground_radar@@YGXXZ ENDP			; centre_apache_ground_radar
_TEXT	ENDS
; Function compile flags: /Odtp /ZI
; File c:\users\nhv90\projects\eech\aphavoc\source\gunships\avionics\apache\ap_radar.c
;	COMDAT ?update_apache_ground_radar@@YGXXZ
_TEXT	SEGMENT
?update_apache_ground_radar@@YGXXZ PROC			; update_apache_ground_radar, COMDAT

; 464  : {

  00000	55		 push	 ebp
  00001	8b ec		 mov	 ebp, esp
  00003	83 ec 40	 sub	 esp, 64			; 00000040H
  00006	53		 push	 ebx
  00007	56		 push	 esi
  00008	57		 push	 edi
$LN2@update_apa:

; 465  : 	////////////////////////////////////////
; 466  : 
; 467  : 	while (single_target_acquisition_system_steer_left_key)

  00009	83 3d 00 00 00
	00 00		 cmp	 DWORD PTR ?single_target_acquisition_system_steer_left_key@@3HA, 0 ; single_target_acquisition_system_steer_left_key
  00010	74 14		 je	 SHORT $LN4@update_apa

; 468  : 	{
; 469  : 		rotate_ground_radar_scan_datum_left ();

  00012	e8 00 00 00 00	 call	 ?rotate_ground_radar_scan_datum_left@@YGXXZ ; rotate_ground_radar_scan_datum_left

; 470  : 
; 471  : 		single_target_acquisition_system_steer_left_key--;

  00017	a1 00 00 00 00	 mov	 eax, DWORD PTR ?single_target_acquisition_system_steer_left_key@@3HA ; single_target_acquisition_system_steer_left_key
  0001c	83 e8 01	 sub	 eax, 1
  0001f	a3 00 00 00 00	 mov	 DWORD PTR ?single_target_acquisition_system_steer_left_key@@3HA, eax ; single_target_acquisition_system_steer_left_key

; 472  : 	}

  00024	eb e3		 jmp	 SHORT $LN2@update_apa
$LN4@update_apa:

; 473  : 
; 474  : 	while (single_target_acquisition_system_steer_left_fast_key)

  00026	83 3d 00 00 00
	00 00		 cmp	 DWORD PTR ?single_target_acquisition_system_steer_left_fast_key@@3HA, 0 ; single_target_acquisition_system_steer_left_fast_key
  0002d	74 14		 je	 SHORT $LN6@update_apa

; 475  : 	{
; 476  : 		fast_rotate_ground_radar_scan_datum_left ();

  0002f	e8 00 00 00 00	 call	 ?fast_rotate_ground_radar_scan_datum_left@@YGXXZ ; fast_rotate_ground_radar_scan_datum_left

; 477  : 
; 478  : 		single_target_acquisition_system_steer_left_fast_key--;

  00034	a1 00 00 00 00	 mov	 eax, DWORD PTR ?single_target_acquisition_system_steer_left_fast_key@@3HA ; single_target_acquisition_system_steer_left_fast_key
  00039	83 e8 01	 sub	 eax, 1
  0003c	a3 00 00 00 00	 mov	 DWORD PTR ?single_target_acquisition_system_steer_left_fast_key@@3HA, eax ; single_target_acquisition_system_steer_left_fast_key

; 479  : 	}

  00041	eb e3		 jmp	 SHORT $LN4@update_apa
$LN6@update_apa:

; 480  : 
; 481  : 	////////////////////////////////////////
; 482  : 
; 483  : 	while (single_target_acquisition_system_steer_right_key)

  00043	83 3d 00 00 00
	00 00		 cmp	 DWORD PTR ?single_target_acquisition_system_steer_right_key@@3HA, 0 ; single_target_acquisition_system_steer_right_key
  0004a	74 14		 je	 SHORT $LN8@update_apa

; 484  : 	{
; 485  : 		rotate_ground_radar_scan_datum_right ();

  0004c	e8 00 00 00 00	 call	 ?rotate_ground_radar_scan_datum_right@@YGXXZ ; rotate_ground_radar_scan_datum_right

; 486  : 
; 487  : 		single_target_acquisition_system_steer_right_key--;

  00051	a1 00 00 00 00	 mov	 eax, DWORD PTR ?single_target_acquisition_system_steer_right_key@@3HA ; single_target_acquisition_system_steer_right_key
  00056	83 e8 01	 sub	 eax, 1
  00059	a3 00 00 00 00	 mov	 DWORD PTR ?single_target_acquisition_system_steer_right_key@@3HA, eax ; single_target_acquisition_system_steer_right_key

; 488  : 	}

  0005e	eb e3		 jmp	 SHORT $LN6@update_apa
$LN8@update_apa:

; 489  : 
; 490  : 	while (single_target_acquisition_system_steer_right_fast_key)

  00060	83 3d 00 00 00
	00 00		 cmp	 DWORD PTR ?single_target_acquisition_system_steer_right_fast_key@@3HA, 0 ; single_target_acquisition_system_steer_right_fast_key
  00067	74 14		 je	 SHORT $LN10@update_apa

; 491  : 	{
; 492  : 		fast_rotate_ground_radar_scan_datum_right ();

  00069	e8 00 00 00 00	 call	 ?fast_rotate_ground_radar_scan_datum_right@@YGXXZ ; fast_rotate_ground_radar_scan_datum_right

; 493  : 
; 494  : 		single_target_acquisition_system_steer_right_fast_key--;

  0006e	a1 00 00 00 00	 mov	 eax, DWORD PTR ?single_target_acquisition_system_steer_right_fast_key@@3HA ; single_target_acquisition_system_steer_right_fast_key
  00073	83 e8 01	 sub	 eax, 1
  00076	a3 00 00 00 00	 mov	 DWORD PTR ?single_target_acquisition_system_steer_right_fast_key@@3HA, eax ; single_target_acquisition_system_steer_right_fast_key

; 495  : 	}

  0007b	eb e3		 jmp	 SHORT $LN8@update_apa
$LN10@update_apa:

; 496  : 
; 497  : 	////////////////////////////////////////
; 498  : 
; 499  : 	while (single_target_acquisition_system_steer_up_key)

  0007d	83 3d 00 00 00
	00 00		 cmp	 DWORD PTR ?single_target_acquisition_system_steer_up_key@@3HA, 0 ; single_target_acquisition_system_steer_up_key
  00084	74 14		 je	 SHORT $LN12@update_apa

; 500  : 	{
; 501  : 		inc_ground_radar_scan_arc_size ();

  00086	e8 00 00 00 00	 call	 ?inc_ground_radar_scan_arc_size@@YGXXZ ; inc_ground_radar_scan_arc_size

; 502  : 
; 503  : 		single_target_acquisition_system_steer_up_key--;

  0008b	a1 00 00 00 00	 mov	 eax, DWORD PTR ?single_target_acquisition_system_steer_up_key@@3HA ; single_target_acquisition_system_steer_up_key
  00090	83 e8 01	 sub	 eax, 1
  00093	a3 00 00 00 00	 mov	 DWORD PTR ?single_target_acquisition_system_steer_up_key@@3HA, eax ; single_target_acquisition_system_steer_up_key

; 504  : 	}

  00098	eb e3		 jmp	 SHORT $LN10@update_apa
$LN12@update_apa:

; 505  : 
; 506  : 	while (single_target_acquisition_system_steer_up_fast_key)

  0009a	83 3d 00 00 00
	00 00		 cmp	 DWORD PTR ?single_target_acquisition_system_steer_up_fast_key@@3HA, 0 ; single_target_acquisition_system_steer_up_fast_key
  000a1	74 14		 je	 SHORT $LN14@update_apa

; 507  : 	{
; 508  : 		fast_inc_ground_radar_scan_arc_size ();

  000a3	e8 00 00 00 00	 call	 ?fast_inc_ground_radar_scan_arc_size@@YGXXZ ; fast_inc_ground_radar_scan_arc_size

; 509  : 
; 510  : 		single_target_acquisition_system_steer_up_fast_key--;

  000a8	a1 00 00 00 00	 mov	 eax, DWORD PTR ?single_target_acquisition_system_steer_up_fast_key@@3HA ; single_target_acquisition_system_steer_up_fast_key
  000ad	83 e8 01	 sub	 eax, 1
  000b0	a3 00 00 00 00	 mov	 DWORD PTR ?single_target_acquisition_system_steer_up_fast_key@@3HA, eax ; single_target_acquisition_system_steer_up_fast_key

; 511  : 	}

  000b5	eb e3		 jmp	 SHORT $LN12@update_apa
$LN14@update_apa:

; 512  : 
; 513  : 	////////////////////////////////////////
; 514  : 
; 515  : 	while (single_target_acquisition_system_steer_down_key)

  000b7	83 3d 00 00 00
	00 00		 cmp	 DWORD PTR ?single_target_acquisition_system_steer_down_key@@3HA, 0 ; single_target_acquisition_system_steer_down_key
  000be	74 14		 je	 SHORT $LN16@update_apa

; 516  : 	{
; 517  : 		dec_ground_radar_scan_arc_size ();

  000c0	e8 00 00 00 00	 call	 ?dec_ground_radar_scan_arc_size@@YGXXZ ; dec_ground_radar_scan_arc_size

; 518  : 
; 519  : 		single_target_acquisition_system_steer_down_key--;

  000c5	a1 00 00 00 00	 mov	 eax, DWORD PTR ?single_target_acquisition_system_steer_down_key@@3HA ; single_target_acquisition_system_steer_down_key
  000ca	83 e8 01	 sub	 eax, 1
  000cd	a3 00 00 00 00	 mov	 DWORD PTR ?single_target_acquisition_system_steer_down_key@@3HA, eax ; single_target_acquisition_system_steer_down_key

; 520  : 	}

  000d2	eb e3		 jmp	 SHORT $LN14@update_apa
$LN16@update_apa:

; 521  : 
; 522  : 	while (single_target_acquisition_system_steer_down_fast_key)

  000d4	83 3d 00 00 00
	00 00		 cmp	 DWORD PTR ?single_target_acquisition_system_steer_down_fast_key@@3HA, 0 ; single_target_acquisition_system_steer_down_fast_key
  000db	74 14		 je	 SHORT $LN18@update_apa

; 523  : 	{
; 524  : 		fast_dec_ground_radar_scan_arc_size ();

  000dd	e8 00 00 00 00	 call	 ?fast_dec_ground_radar_scan_arc_size@@YGXXZ ; fast_dec_ground_radar_scan_arc_size

; 525  : 
; 526  : 		single_target_acquisition_system_steer_down_fast_key--;

  000e2	a1 00 00 00 00	 mov	 eax, DWORD PTR ?single_target_acquisition_system_steer_down_fast_key@@3HA ; single_target_acquisition_system_steer_down_fast_key
  000e7	83 e8 01	 sub	 eax, 1
  000ea	a3 00 00 00 00	 mov	 DWORD PTR ?single_target_acquisition_system_steer_down_fast_key@@3HA, eax ; single_target_acquisition_system_steer_down_fast_key

; 527  : 	}

  000ef	eb e3		 jmp	 SHORT $LN16@update_apa
$LN18@update_apa:

; 528  : 
; 529  : 	////////////////////////////////////////
; 530  : 
; 531  : 	while (single_target_acquisition_system_inc_range_key)

  000f1	83 3d 00 00 00
	00 00		 cmp	 DWORD PTR ?single_target_acquisition_system_inc_range_key@@3HA, 0 ; single_target_acquisition_system_inc_range_key
  000f8	74 14		 je	 SHORT $LN20@update_apa

; 532  : 	{
; 533  : 		inc_ground_radar_scan_range ();

  000fa	e8 00 00 00 00	 call	 ?inc_ground_radar_scan_range@@YGXXZ ; inc_ground_radar_scan_range

; 534  : 
; 535  : 		single_target_acquisition_system_inc_range_key--;

  000ff	a1 00 00 00 00	 mov	 eax, DWORD PTR ?single_target_acquisition_system_inc_range_key@@3HA ; single_target_acquisition_system_inc_range_key
  00104	83 e8 01	 sub	 eax, 1
  00107	a3 00 00 00 00	 mov	 DWORD PTR ?single_target_acquisition_system_inc_range_key@@3HA, eax ; single_target_acquisition_system_inc_range_key

; 536  : 	}

  0010c	eb e3		 jmp	 SHORT $LN18@update_apa
$LN20@update_apa:

; 537  : 
; 538  : 	while (single_target_acquisition_system_inc_range_fast_key)

  0010e	83 3d 00 00 00
	00 00		 cmp	 DWORD PTR ?single_target_acquisition_system_inc_range_fast_key@@3HA, 0 ; single_target_acquisition_system_inc_range_fast_key
  00115	74 14		 je	 SHORT $LN22@update_apa

; 539  : 	{
; 540  : 		fast_inc_ground_radar_scan_range ();

  00117	e8 00 00 00 00	 call	 ?fast_inc_ground_radar_scan_range@@YGXXZ ; fast_inc_ground_radar_scan_range

; 541  : 
; 542  : 		single_target_acquisition_system_inc_range_fast_key--;

  0011c	a1 00 00 00 00	 mov	 eax, DWORD PTR ?single_target_acquisition_system_inc_range_fast_key@@3HA ; single_target_acquisition_system_inc_range_fast_key
  00121	83 e8 01	 sub	 eax, 1
  00124	a3 00 00 00 00	 mov	 DWORD PTR ?single_target_acquisition_system_inc_range_fast_key@@3HA, eax ; single_target_acquisition_system_inc_range_fast_key

; 543  : 	}

  00129	eb e3		 jmp	 SHORT $LN20@update_apa
$LN22@update_apa:

; 544  : 
; 545  : 	////////////////////////////////////////
; 546  : 
; 547  : 	while (single_target_acquisition_system_dec_range_key)

  0012b	83 3d 00 00 00
	00 00		 cmp	 DWORD PTR ?single_target_acquisition_system_dec_range_key@@3HA, 0 ; single_target_acquisition_system_dec_range_key
  00132	74 14		 je	 SHORT $LN24@update_apa

; 548  : 	{
; 549  : 		dec_ground_radar_scan_range ();

  00134	e8 00 00 00 00	 call	 ?dec_ground_radar_scan_range@@YGXXZ ; dec_ground_radar_scan_range

; 550  : 
; 551  : 		single_target_acquisition_system_dec_range_key--;

  00139	a1 00 00 00 00	 mov	 eax, DWORD PTR ?single_target_acquisition_system_dec_range_key@@3HA ; single_target_acquisition_system_dec_range_key
  0013e	83 e8 01	 sub	 eax, 1
  00141	a3 00 00 00 00	 mov	 DWORD PTR ?single_target_acquisition_system_dec_range_key@@3HA, eax ; single_target_acquisition_system_dec_range_key

; 552  : 	}

  00146	eb e3		 jmp	 SHORT $LN22@update_apa
$LN24@update_apa:

; 553  : 
; 554  : 	while (single_target_acquisition_system_dec_range_fast_key)

  00148	83 3d 00 00 00
	00 00		 cmp	 DWORD PTR ?single_target_acquisition_system_dec_range_fast_key@@3HA, 0 ; single_target_acquisition_system_dec_range_fast_key
  0014f	74 14		 je	 SHORT $LN26@update_apa

; 555  : 	{
; 556  : 		fast_dec_ground_radar_scan_range ();

  00151	e8 00 00 00 00	 call	 ?fast_dec_ground_radar_scan_range@@YGXXZ ; fast_dec_ground_radar_scan_range

; 557  : 
; 558  : 		single_target_acquisition_system_dec_range_fast_key--;

  00156	a1 00 00 00 00	 mov	 eax, DWORD PTR ?single_target_acquisition_system_dec_range_fast_key@@3HA ; single_target_acquisition_system_dec_range_fast_key
  0015b	83 e8 01	 sub	 eax, 1
  0015e	a3 00 00 00 00	 mov	 DWORD PTR ?single_target_acquisition_system_dec_range_fast_key@@3HA, eax ; single_target_acquisition_system_dec_range_fast_key

; 559  : 	}

  00163	eb e3		 jmp	 SHORT $LN24@update_apa
$LN26@update_apa:

; 560  : 
; 561  : 	////////////////////////////////////////
; 562  : 
; 563  : 	while (single_target_acquisition_system_inc_target_priority_key)

  00165	83 3d 00 00 00
	00 00		 cmp	 DWORD PTR ?single_target_acquisition_system_inc_target_priority_key@@3HA, 0 ; single_target_acquisition_system_inc_target_priority_key
  0016c	74 14		 je	 SHORT $LN28@update_apa

; 564  : 	{
; 565  : 		inc_ground_radar_target_priority ();

  0016e	e8 00 00 00 00	 call	 ?inc_ground_radar_target_priority@@YGXXZ ; inc_ground_radar_target_priority

; 566  : 
; 567  : 		single_target_acquisition_system_inc_target_priority_key--;

  00173	a1 00 00 00 00	 mov	 eax, DWORD PTR ?single_target_acquisition_system_inc_target_priority_key@@3HA ; single_target_acquisition_system_inc_target_priority_key
  00178	83 e8 01	 sub	 eax, 1
  0017b	a3 00 00 00 00	 mov	 DWORD PTR ?single_target_acquisition_system_inc_target_priority_key@@3HA, eax ; single_target_acquisition_system_inc_target_priority_key

; 568  : 	}

  00180	eb e3		 jmp	 SHORT $LN26@update_apa
$LN28@update_apa:

; 569  : 
; 570  : 	while (single_target_acquisition_system_inc_target_priority_fast_key)

  00182	83 3d 00 00 00
	00 00		 cmp	 DWORD PTR ?single_target_acquisition_system_inc_target_priority_fast_key@@3HA, 0 ; single_target_acquisition_system_inc_target_priority_fast_key
  00189	74 14		 je	 SHORT $LN30@update_apa

; 571  : 	{
; 572  : 		fast_inc_ground_radar_target_priority ();

  0018b	e8 00 00 00 00	 call	 ?fast_inc_ground_radar_target_priority@@YGXXZ ; fast_inc_ground_radar_target_priority

; 573  : 
; 574  : 		single_target_acquisition_system_inc_target_priority_fast_key--;

  00190	a1 00 00 00 00	 mov	 eax, DWORD PTR ?single_target_acquisition_system_inc_target_priority_fast_key@@3HA ; single_target_acquisition_system_inc_target_priority_fast_key
  00195	83 e8 01	 sub	 eax, 1
  00198	a3 00 00 00 00	 mov	 DWORD PTR ?single_target_acquisition_system_inc_target_priority_fast_key@@3HA, eax ; single_target_acquisition_system_inc_target_priority_fast_key

; 575  : 	}

  0019d	eb e3		 jmp	 SHORT $LN28@update_apa
$LN30@update_apa:

; 576  : 
; 577  : 	////////////////////////////////////////
; 578  : 
; 579  : 	while (single_target_acquisition_system_dec_target_priority_key)

  0019f	83 3d 00 00 00
	00 00		 cmp	 DWORD PTR ?single_target_acquisition_system_dec_target_priority_key@@3HA, 0 ; single_target_acquisition_system_dec_target_priority_key
  001a6	74 14		 je	 SHORT $LN32@update_apa

; 580  : 	{
; 581  : 		dec_ground_radar_target_priority ();

  001a8	e8 00 00 00 00	 call	 ?dec_ground_radar_target_priority@@YGXXZ ; dec_ground_radar_target_priority

; 582  : 
; 583  : 		single_target_acquisition_system_dec_target_priority_key--;

  001ad	a1 00 00 00 00	 mov	 eax, DWORD PTR ?single_target_acquisition_system_dec_target_priority_key@@3HA ; single_target_acquisition_system_dec_target_priority_key
  001b2	83 e8 01	 sub	 eax, 1
  001b5	a3 00 00 00 00	 mov	 DWORD PTR ?single_target_acquisition_system_dec_target_priority_key@@3HA, eax ; single_target_acquisition_system_dec_target_priority_key

; 584  : 	}

  001ba	eb e3		 jmp	 SHORT $LN30@update_apa
$LN32@update_apa:

; 585  : 
; 586  : 	while (single_target_acquisition_system_dec_target_priority_fast_key)

  001bc	83 3d 00 00 00
	00 00		 cmp	 DWORD PTR ?single_target_acquisition_system_dec_target_priority_fast_key@@3HA, 0 ; single_target_acquisition_system_dec_target_priority_fast_key
  001c3	74 14		 je	 SHORT $LN34@update_apa

; 587  : 	{
; 588  : 		fast_dec_ground_radar_target_priority ();

  001c5	e8 00 00 00 00	 call	 ?fast_dec_ground_radar_target_priority@@YGXXZ ; fast_dec_ground_radar_target_priority

; 589  : 
; 590  : 		single_target_acquisition_system_dec_target_priority_fast_key--;

  001ca	a1 00 00 00 00	 mov	 eax, DWORD PTR ?single_target_acquisition_system_dec_target_priority_fast_key@@3HA ; single_target_acquisition_system_dec_target_priority_fast_key
  001cf	83 e8 01	 sub	 eax, 1
  001d2	a3 00 00 00 00	 mov	 DWORD PTR ?single_target_acquisition_system_dec_target_priority_fast_key@@3HA, eax ; single_target_acquisition_system_dec_target_priority_fast_key

; 591  : 	}

  001d7	eb e3		 jmp	 SHORT $LN32@update_apa
$LN34@update_apa:

; 592  : 
; 593  : 	////////////////////////////////////////
; 594  : 
; 595  : 	while (single_target_acquisition_system_select_next_target_key)

  001d9	83 3d 00 00 00
	00 00		 cmp	 DWORD PTR ?single_target_acquisition_system_select_next_target_key@@3HA, 0 ; single_target_acquisition_system_select_next_target_key
  001e0	74 14		 je	 SHORT $LN36@update_apa

; 596  : 	{
; 597  : 		select_next_ground_radar_target ();

  001e2	e8 00 00 00 00	 call	 ?select_next_ground_radar_target@@YGXXZ ; select_next_ground_radar_target

; 598  : 
; 599  : 		single_target_acquisition_system_select_next_target_key--;

  001e7	a1 00 00 00 00	 mov	 eax, DWORD PTR ?single_target_acquisition_system_select_next_target_key@@3HA ; single_target_acquisition_system_select_next_target_key
  001ec	83 e8 01	 sub	 eax, 1
  001ef	a3 00 00 00 00	 mov	 DWORD PTR ?single_target_acquisition_system_select_next_target_key@@3HA, eax ; single_target_acquisition_system_select_next_target_key

; 600  : 	}

  001f4	eb e3		 jmp	 SHORT $LN34@update_apa
$LN36@update_apa:

; 601  : 
; 602  : 	////////////////////////////////////////
; 603  : 
; 604  : 	while (single_target_acquisition_system_select_previous_target_key)

  001f6	83 3d 00 00 00
	00 00		 cmp	 DWORD PTR ?single_target_acquisition_system_select_previous_target_key@@3HA, 0 ; single_target_acquisition_system_select_previous_target_key
  001fd	74 14		 je	 SHORT $LN38@update_apa

; 605  : 	{
; 606  : 		select_previous_ground_radar_target ();

  001ff	e8 00 00 00 00	 call	 ?select_previous_ground_radar_target@@YGXXZ ; select_previous_ground_radar_target

; 607  : 
; 608  : 		single_target_acquisition_system_select_previous_target_key--;

  00204	a1 00 00 00 00	 mov	 eax, DWORD PTR ?single_target_acquisition_system_select_previous_target_key@@3HA ; single_target_acquisition_system_select_previous_target_key
  00209	83 e8 01	 sub	 eax, 1
  0020c	a3 00 00 00 00	 mov	 DWORD PTR ?single_target_acquisition_system_select_previous_target_key@@3HA, eax ; single_target_acquisition_system_select_previous_target_key

; 609  : 	}

  00211	eb e3		 jmp	 SHORT $LN36@update_apa
$LN38@update_apa:

; 610  : 
; 611  : // Jabberwock 031107 Designated targets
; 612  : 	
; 613  : 	while (single_target_acquisition_system_select_next_designated_key)

  00213	83 3d 00 00 00
	00 00		 cmp	 DWORD PTR ?single_target_acquisition_system_select_next_designated_key@@3HA, 0 ; single_target_acquisition_system_select_next_designated_key
  0021a	74 14		 je	 SHORT $LN40@update_apa

; 614  : 	{
; 615  : 		select_next_designated_ground_radar_target ();

  0021c	e8 00 00 00 00	 call	 ?select_next_designated_ground_radar_target@@YGXXZ ; select_next_designated_ground_radar_target

; 616  : 
; 617  : 		single_target_acquisition_system_select_next_designated_key--;

  00221	a1 00 00 00 00	 mov	 eax, DWORD PTR ?single_target_acquisition_system_select_next_designated_key@@3HA ; single_target_acquisition_system_select_next_designated_key
  00226	83 e8 01	 sub	 eax, 1
  00229	a3 00 00 00 00	 mov	 DWORD PTR ?single_target_acquisition_system_select_next_designated_key@@3HA, eax ; single_target_acquisition_system_select_next_designated_key

; 618  : 	}

  0022e	eb e3		 jmp	 SHORT $LN38@update_apa
$LN40@update_apa:

; 619  : 
; 620  : 	////////////////////////////////////////
; 621  : 
; 622  : 	while (single_target_acquisition_system_select_previous_designated_key)

  00230	83 3d 00 00 00
	00 00		 cmp	 DWORD PTR ?single_target_acquisition_system_select_previous_designated_key@@3HA, 0 ; single_target_acquisition_system_select_previous_designated_key
  00237	74 14		 je	 SHORT $LN1@update_apa

; 623  : 	{
; 624  : 		select_next_designated_ground_radar_target ();

  00239	e8 00 00 00 00	 call	 ?select_next_designated_ground_radar_target@@YGXXZ ; select_next_designated_ground_radar_target

; 625  : 
; 626  : 		single_target_acquisition_system_select_previous_designated_key--;

  0023e	a1 00 00 00 00	 mov	 eax, DWORD PTR ?single_target_acquisition_system_select_previous_designated_key@@3HA ; single_target_acquisition_system_select_previous_designated_key
  00243	83 e8 01	 sub	 eax, 1
  00246	a3 00 00 00 00	 mov	 DWORD PTR ?single_target_acquisition_system_select_previous_designated_key@@3HA, eax ; single_target_acquisition_system_select_previous_designated_key

; 627  : 	}	

  0024b	eb e3		 jmp	 SHORT $LN40@update_apa
$LN1@update_apa:

; 628  : // Jabberwock 031107 ends	
; 629  : }

  0024d	5f		 pop	 edi
  0024e	5e		 pop	 esi
  0024f	5b		 pop	 ebx
  00250	8b e5		 mov	 esp, ebp
  00252	5d		 pop	 ebp
  00253	c3		 ret	 0
?update_apache_ground_radar@@YGXXZ ENDP			; update_apache_ground_radar
_TEXT	ENDS
; Function compile flags: /Odtp /ZI
; File c:\users\nhv90\projects\eech\aphavoc\source\gunships\avionics\apache\ap_radar.c
;	COMDAT ?deinitialise_apache_radar@@YGXXZ
_TEXT	SEGMENT
?deinitialise_apache_radar@@YGXXZ PROC			; deinitialise_apache_radar, COMDAT

; 124  : {

  00000	55		 push	 ebp
  00001	8b ec		 mov	 ebp, esp
  00003	83 ec 40	 sub	 esp, 64			; 00000040H
  00006	53		 push	 ebx
  00007	56		 push	 esi
  00008	57		 push	 edi

; 125  : }

  00009	5f		 pop	 edi
  0000a	5e		 pop	 esi
  0000b	5b		 pop	 ebx
  0000c	8b e5		 mov	 esp, ebp
  0000e	5d		 pop	 ebp
  0000f	c3		 ret	 0
?deinitialise_apache_radar@@YGXXZ ENDP			; deinitialise_apache_radar
_TEXT	ENDS
; Function compile flags: /Odtp /ZI
; File c:\users\nhv90\projects\eech\aphavoc\source\gunships\avionics\apache\ap_radar.c
;	COMDAT ?initialise_apache_radar@@YGXXZ
_TEXT	SEGMENT
?initialise_apache_radar@@YGXXZ PROC			; initialise_apache_radar, COMDAT

; 84   : {

  00000	55		 push	 ebp
  00001	8b ec		 mov	 ebp, esp
  00003	83 ec 40	 sub	 esp, 64			; 00000040H
  00006	53		 push	 ebx
  00007	56		 push	 esi
  00008	57		 push	 edi

; 85   : //VJ 030807 radar range adjustable 	
; 86   :    APACHE_RADAR_SCAN_RANGE_500 = radar_range_apache[0];	

  00009	b8 04 00 00 00	 mov	 eax, 4
  0000e	6b c8 00	 imul	 ecx, eax, 0
  00011	f3 0f 10 81 00
	00 00 00	 movss	 xmm0, DWORD PTR ?radar_range_apache@@3PAMA[ecx]
  00019	f3 0f 11 05 00
	00 00 00	 movss	 DWORD PTR ?APACHE_RADAR_SCAN_RANGE_500@@3MA, xmm0

; 87   : 	APACHE_RADAR_SCAN_RANGE_1000 = radar_range_apache[1];

  00021	b8 04 00 00 00	 mov	 eax, 4
  00026	c1 e0 00	 shl	 eax, 0
  00029	f3 0f 10 80 00
	00 00 00	 movss	 xmm0, DWORD PTR ?radar_range_apache@@3PAMA[eax]
  00031	f3 0f 11 05 00
	00 00 00	 movss	 DWORD PTR ?APACHE_RADAR_SCAN_RANGE_1000@@3MA, xmm0

; 88   : 	APACHE_RADAR_SCAN_RANGE_2000 = radar_range_apache[2];		

  00039	b8 04 00 00 00	 mov	 eax, 4
  0003e	d1 e0		 shl	 eax, 1
  00040	f3 0f 10 80 00
	00 00 00	 movss	 xmm0, DWORD PTR ?radar_range_apache@@3PAMA[eax]
  00048	f3 0f 11 05 00
	00 00 00	 movss	 DWORD PTR ?APACHE_RADAR_SCAN_RANGE_2000@@3MA, xmm0

; 89   : 	APACHE_RADAR_SCAN_RANGE_4000 = radar_range_apache[3];		

  00050	b8 04 00 00 00	 mov	 eax, 4
  00055	6b c8 03	 imul	 ecx, eax, 3
  00058	f3 0f 10 81 00
	00 00 00	 movss	 xmm0, DWORD PTR ?radar_range_apache@@3PAMA[ecx]
  00060	f3 0f 11 05 00
	00 00 00	 movss	 DWORD PTR ?APACHE_RADAR_SCAN_RANGE_4000@@3MA, xmm0

; 90   : 	APACHE_RADAR_SCAN_RANGE_8000 = radar_range_apache[4];			

  00068	b8 04 00 00 00	 mov	 eax, 4
  0006d	c1 e0 02	 shl	 eax, 2
  00070	f3 0f 10 80 00
	00 00 00	 movss	 xmm0, DWORD PTR ?radar_range_apache@@3PAMA[eax]
  00078	f3 0f 11 05 00
	00 00 00	 movss	 DWORD PTR ?APACHE_RADAR_SCAN_RANGE_8000@@3MA, xmm0

; 91   : 	
; 92   : 	ground_radar.scan_range		  			= APACHE_RADAR_SCAN_RANGE_8000;

  00080	f3 0f 10 05 00
	00 00 00	 movss	 xmm0, DWORD PTR ?APACHE_RADAR_SCAN_RANGE_8000@@3MA
  00088	f3 0f 11 05 00
	00 00 00	 movss	 DWORD PTR ?ground_radar@@3URADAR_PARAMS@@A, xmm0

; 93   : 	ground_radar.scan_datum	  				= rad (0.0);

  00090	0f 57 c0	 xorps	 xmm0, xmm0
  00093	f3 0f 11 05 04
	00 00 00	 movss	 DWORD PTR ?ground_radar@@3URADAR_PARAMS@@A+4, xmm0

; 94   : 	ground_radar.scan_arc_size	  			= APACHE_RADAR_SCAN_ARC_SIZE_90;

  0009b	f3 0f 10 05 00
	00 00 00	 movss	 xmm0, DWORD PTR __real@3fc90fdb
  000a3	f3 0f 11 05 08
	00 00 00	 movss	 DWORD PTR ?ground_radar@@3URADAR_PARAMS@@A+8, xmm0

; 95   : 	ground_radar.sweep_offset 				= rad (0.0);

  000ab	0f 57 c0	 xorps	 xmm0, xmm0
  000ae	f3 0f 11 05 0c
	00 00 00	 movss	 DWORD PTR ?ground_radar@@3URADAR_PARAMS@@A+12, xmm0

; 96   : 	ground_radar.sweep_rate		  			= rad (360.0) / 6.0;

  000b6	f3 0f 10 05 00
	00 00 00	 movss	 xmm0, DWORD PTR __real@3f860a92
  000be	f3 0f 11 05 10
	00 00 00	 movss	 DWORD PTR ?ground_radar@@3URADAR_PARAMS@@A+16, xmm0

; 97   : 	ground_radar.sweep_direction			= RADAR_SWEEP_CW;

  000c6	f3 0f 10 05 00
	00 00 00	 movss	 xmm0, DWORD PTR __real@3f800000
  000ce	f3 0f 11 05 14
	00 00 00	 movss	 DWORD PTR ?ground_radar@@3URADAR_PARAMS@@A+20, xmm0

; 98   : 	ground_radar.max_target_track_range	= APACHE_RADAR_SCAN_RANGE_8000 + 2000.0;

  000d6	f3 0f 5a 05 00
	00 00 00	 cvtss2sd xmm0, DWORD PTR ?APACHE_RADAR_SCAN_RANGE_8000@@3MA
  000de	f2 0f 58 05 00
	00 00 00	 addsd	 xmm0, QWORD PTR __real@409f400000000000
  000e6	f2 0f 5a c0	 cvtsd2ss xmm0, xmm0
  000ea	f3 0f 11 05 18
	00 00 00	 movss	 DWORD PTR ?ground_radar@@3URADAR_PARAMS@@A+24, xmm0

; 99   : 	ground_radar.show_allied_targets		= TRUE;

  000f2	c7 05 1c 00 00
	00 01 00 00 00	 mov	 DWORD PTR ?ground_radar@@3URADAR_PARAMS@@A+28, 1

; 100  : 	ground_radar.target_locked	  			= FALSE;

  000fc	c7 05 20 00 00
	00 00 00 00 00	 mov	 DWORD PTR ?ground_radar@@3URADAR_PARAMS@@A+32, 0

; 101  : 	ground_radar.auto_target				= TRUE;

  00106	c7 05 24 00 00
	00 01 00 00 00	 mov	 DWORD PTR ?ground_radar@@3URADAR_PARAMS@@A+36, 1

; 102  : 	ground_radar.target_priority_type	= TARGET_PRIORITY_UNKNOWN;

  00110	c7 05 2c 00 00
	00 00 00 00 00	 mov	 DWORD PTR ?ground_radar@@3URADAR_PARAMS@@A+44, 0

; 103  : 	ground_radar.sweep_mode		 			= RADAR_SWEEP_MODE_CONTINUOUS;

  0011a	c7 05 28 00 00
	00 00 00 00 00	 mov	 DWORD PTR ?ground_radar@@3URADAR_PARAMS@@A+40, 0

; 104  : 
; 105  : 	air_radar.scan_range			 			= APACHE_RADAR_SCAN_RANGE_8000;

  00124	f3 0f 10 05 00
	00 00 00	 movss	 xmm0, DWORD PTR ?APACHE_RADAR_SCAN_RANGE_8000@@3MA
  0012c	f3 0f 11 05 00
	00 00 00	 movss	 DWORD PTR ?air_radar@@3URADAR_PARAMS@@A, xmm0

; 106  : 	air_radar.scan_datum	  		 			= rad (0.0);

  00134	0f 57 c0	 xorps	 xmm0, xmm0
  00137	f3 0f 11 05 04
	00 00 00	 movss	 DWORD PTR ?air_radar@@3URADAR_PARAMS@@A+4, xmm0

; 107  : 	air_radar.scan_arc_size	  				= APACHE_RADAR_SCAN_ARC_SIZE_360;

  0013f	f3 0f 10 05 00
	00 00 00	 movss	 xmm0, DWORD PTR __real@40c90fdb
  00147	f3 0f 11 05 08
	00 00 00	 movss	 DWORD PTR ?air_radar@@3URADAR_PARAMS@@A+8, xmm0

; 108  : 	air_radar.sweep_offset	  				= rad (0.0);

  0014f	0f 57 c0	 xorps	 xmm0, xmm0
  00152	f3 0f 11 05 0c
	00 00 00	 movss	 DWORD PTR ?air_radar@@3URADAR_PARAMS@@A+12, xmm0

; 109  : 	air_radar.sweep_rate		  				= rad (360.0) / 6.0;

  0015a	f3 0f 10 05 00
	00 00 00	 movss	 xmm0, DWORD PTR __real@3f860a92
  00162	f3 0f 11 05 10
	00 00 00	 movss	 DWORD PTR ?air_radar@@3URADAR_PARAMS@@A+16, xmm0

; 110  : 	air_radar.sweep_direction 				= RADAR_SWEEP_CW;

  0016a	f3 0f 10 05 00
	00 00 00	 movss	 xmm0, DWORD PTR __real@3f800000
  00172	f3 0f 11 05 14
	00 00 00	 movss	 DWORD PTR ?air_radar@@3URADAR_PARAMS@@A+20, xmm0

; 111  : 	air_radar.max_target_track_range		= APACHE_RADAR_SCAN_RANGE_8000 + 2000.0;

  0017a	f3 0f 5a 05 00
	00 00 00	 cvtss2sd xmm0, DWORD PTR ?APACHE_RADAR_SCAN_RANGE_8000@@3MA
  00182	f2 0f 58 05 00
	00 00 00	 addsd	 xmm0, QWORD PTR __real@409f400000000000
  0018a	f2 0f 5a c0	 cvtsd2ss xmm0, xmm0
  0018e	f3 0f 11 05 18
	00 00 00	 movss	 DWORD PTR ?air_radar@@3URADAR_PARAMS@@A+24, xmm0

; 112  : 	air_radar.show_allied_targets			= TRUE;

  00196	c7 05 1c 00 00
	00 01 00 00 00	 mov	 DWORD PTR ?air_radar@@3URADAR_PARAMS@@A+28, 1

; 113  : 	air_radar.target_locked					= FALSE;

  001a0	c7 05 20 00 00
	00 00 00 00 00	 mov	 DWORD PTR ?air_radar@@3URADAR_PARAMS@@A+32, 0

; 114  : 	air_radar.auto_target					= TRUE;

  001aa	c7 05 24 00 00
	00 01 00 00 00	 mov	 DWORD PTR ?air_radar@@3URADAR_PARAMS@@A+36, 1

; 115  : 	air_radar.target_priority_type		= TARGET_PRIORITY_UNKNOWN;

  001b4	c7 05 2c 00 00
	00 00 00 00 00	 mov	 DWORD PTR ?air_radar@@3URADAR_PARAMS@@A+44, 0

; 116  : 	air_radar.sweep_mode						= RADAR_SWEEP_MODE_CONTINUOUS;

  001be	c7 05 28 00 00
	00 00 00 00 00	 mov	 DWORD PTR ?air_radar@@3URADAR_PARAMS@@A+40, 0

; 117  : }

  001c8	5f		 pop	 edi
  001c9	5e		 pop	 esi
  001ca	5b		 pop	 ebx
  001cb	8b e5		 mov	 esp, ebp
  001cd	5d		 pop	 ebp
  001ce	c3		 ret	 0
?initialise_apache_radar@@YGXXZ ENDP			; initialise_apache_radar
_TEXT	ENDS
END
