; Listing generated by Microsoft (R) Optimizing Compiler Version 19.16.27045.0 

	TITLE	C:\Users\nhv90\Projects\eech\aphavoc\source\gunships\avionics\apache\ap_tgt.c
	.686P
	.XMM
	include listing.inc
	.model	flat

INCLUDELIB MSVCRTD
INCLUDELIB OLDNAMES

PUBLIC	?initialise_apache_target_acquisition_systems@@YGXXZ ; initialise_apache_target_acquisition_systems
PUBLIC	?deinitialise_apache_target_acquisition_systems@@YGXXZ ; deinitialise_apache_target_acquisition_systems
PUBLIC	?select_apache_target_acquisition_system@@YGXW4TARGET_ACQUISITION_SYSTEMS@@@Z ; select_apache_target_acquisition_system
PUBLIC	?update_apache_target_acquisition_system@@YGXXZ	; update_apache_target_acquisition_system
PUBLIC	?centre_apache_target_acquisition_system@@YGXXZ	; centre_apache_target_acquisition_system
PUBLIC	?toggle_apache_show_allied_targets@@YGXXZ	; toggle_apache_show_allied_targets
PUBLIC	?toggle_apache_auto_target@@YGXXZ		; toggle_apache_auto_target
PUBLIC	?toggle_apache_lock_target@@YGXXZ		; toggle_apache_lock_target
PUBLIC	?set_apache_lock_target@@YGXH@Z			; set_apache_lock_target
PUBLIC	?apache_target_acquisition_system_misc_function1@@YGXXZ ; apache_target_acquisition_system_misc_function1
PUBLIC	?apache_target_acquisition_system_misc_function2@@YGXXZ ; apache_target_acquisition_system_misc_function2
PUBLIC	??_C@_0CH@DDKDNBNH@Invalid?5target?5acquisition?5syst@ ; `string'
PUBLIC	?__LINE__Var@?0??update_apache_target_acquisition_system@@YGXXZ@4JA ; `update_apache_target_acquisition_system'::`1'::__LINE__Var
PUBLIC	??_C@_0EO@CIFDMJHG@c?3?2users?2nhv90?2projects?2eech?2ap@ ; `string'
EXTRN	?process_assert@@YGXPBD0H@Z:PROC		; process_assert
EXTRN	?debug_fatal@@YAXPBDZZ:PROC			; debug_fatal
EXTRN	?query_TIR_active@@YAHXZ:PROC			; query_TIR_active
EXTRN	?set_view_mode@@YGHW4VIEW_MODES@@@Z:PROC	; set_view_mode
EXTRN	?select_padlock_view_event@@YGXW4PADLOCK_MODES@@@Z:PROC ; select_padlock_view_event
EXTRN	?reset_common_target_acquisition_system_keys@@YGXXZ:PROC ; reset_common_target_acquisition_system_keys
EXTRN	?set_gunship_target@@YGXPAUENTITY@@@Z:PROC	; set_gunship_target
EXTRN	?play_common_cpg_target_acquisition_system_speech@@YGXW4TARGET_ACQUISITION_SYSTEMS@@0H@Z:PROC ; play_common_cpg_target_acquisition_system_speech
EXTRN	?update_common_eo@@YGXXZ:PROC			; update_common_eo
EXTRN	?activate_common_eo@@YGXXZ:PROC			; activate_common_eo
EXTRN	?deactivate_common_eo@@YGXXZ:PROC		; deactivate_common_eo
EXTRN	?slave_common_eo_to_current_target@@YGXXZ:PROC	; slave_common_eo_to_current_target
EXTRN	?laser_is_active@@YGHXZ:PROC			; laser_is_active
EXTRN	?set_laser_is_active@@YGXH@Z:PROC		; set_laser_is_active
EXTRN	?toggle_eo_lock@@YGXXZ:PROC			; toggle_eo_lock
EXTRN	?set_eo_lock@@YGXH@Z:PROC			; set_eo_lock
EXTRN	?update_common_hms@@YGXXZ:PROC			; update_common_hms
EXTRN	?activate_common_hms@@YGXXZ:PROC		; activate_common_hms
EXTRN	?deactivate_common_hms@@YGXXZ:PROC		; deactivate_common_hms
EXTRN	?reset_mfd_mouse_buttons@@YGXXZ:PROC		; reset_mfd_mouse_buttons
EXTRN	?update_common_ground_radar@@YGXH@Z:PROC	; update_common_ground_radar
EXTRN	?activate_common_ground_radar@@YGXXZ:PROC	; activate_common_ground_radar
EXTRN	?deactivate_common_ground_radar@@YGXXZ:PROC	; deactivate_common_ground_radar
EXTRN	?toggle_ground_radar_active@@YGXXZ:PROC		; toggle_ground_radar_active
EXTRN	?ground_radar_is_active@@YGHXZ:PROC		; ground_radar_is_active
EXTRN	?set_ground_radar_is_active@@YGXH@Z:PROC	; set_ground_radar_is_active
EXTRN	?update_common_air_radar@@YGXXZ:PROC		; update_common_air_radar
EXTRN	?activate_common_air_radar@@YGXXZ:PROC		; activate_common_air_radar
EXTRN	?deactivate_common_air_radar@@YGXXZ:PROC	; deactivate_common_air_radar
EXTRN	?toggle_air_radar_active@@YGXXZ:PROC		; toggle_air_radar_active
EXTRN	?air_radar_is_active@@YGHXZ:PROC		; air_radar_is_active
EXTRN	?set_air_radar_is_active@@YGXH@Z:PROC		; set_air_radar_is_active
EXTRN	?update_weapon_lock_type@@YGXW4TARGET_ACQUISITION_SYSTEMS@@@Z:PROC ; update_weapon_lock_type
EXTRN	?initialise_apache_eo@@YGXXZ:PROC		; initialise_apache_eo
EXTRN	?deinitialise_apache_eo@@YGXXZ:PROC		; deinitialise_apache_eo
EXTRN	?update_apache_eo@@YGXPAUEO_PARAMS@@@Z:PROC	; update_apache_eo
EXTRN	?centre_apache_eo@@YGXXZ:PROC			; centre_apache_eo
EXTRN	?slave_apache_eo_to_current_target@@YGXXZ:PROC	; slave_apache_eo_to_current_target
EXTRN	?initialise_apache_hms@@YGXXZ:PROC		; initialise_apache_hms
EXTRN	?deinitialise_apache_hms@@YGXXZ:PROC		; deinitialise_apache_hms
EXTRN	?update_apache_hms@@YGXXZ:PROC			; update_apache_hms
EXTRN	?select_apache_ground_radar_mfd@@YGXXZ:PROC	; select_apache_ground_radar_mfd
EXTRN	?select_apache_air_radar_mfd@@YGXXZ:PROC	; select_apache_air_radar_mfd
EXTRN	?select_apache_tads_mfd@@YGXXZ:PROC		; select_apache_tads_mfd
EXTRN	?initialise_apache_radar@@YGXXZ:PROC		; initialise_apache_radar
EXTRN	?deinitialise_apache_radar@@YGXXZ:PROC		; deinitialise_apache_radar
EXTRN	?update_apache_ground_radar@@YGXXZ:PROC		; update_apache_ground_radar
EXTRN	?centre_apache_ground_radar@@YGXXZ:PROC		; centre_apache_ground_radar
EXTRN	?update_apache_air_radar@@YGXXZ:PROC		; update_apache_air_radar
EXTRN	?centre_apache_air_radar@@YGXXZ:PROC		; centre_apache_air_radar
EXTRN	?command_line_manual_laser_radar@@3HA:DWORD	; command_line_manual_laser_radar
EXTRN	?command_line_targeting_system_auto_page@@3HA:DWORD ; command_line_targeting_system_auto_page
EXTRN	?null_entity_pointer_message@@3PBDB:DWORD	; null_entity_pointer_message
EXTRN	?system_comms_model@@3W4COMMS_MODEL_TYPES@@A:DWORD ; system_comms_model
EXTRN	?overload_invalid_list_type_message@@3PBDB:DWORD ; overload_invalid_list_type_message
EXTRN	?fn_get_local_entity_parent@@3PAY0CN@P6GPAUENTITY@@PAU1@W4LIST_TYPES@@@ZA:BYTE ; fn_get_local_entity_parent
EXTRN	?overload_invalid_int_type_message@@3PBDB:DWORD	; overload_invalid_int_type_message
EXTRN	?fn_set_client_server_entity_int_value@@3PAY1BBH@1P6GXPAUENTITY@@W4INT_TYPES@@H@ZA:BYTE ; fn_set_client_server_entity_int_value
EXTRN	?fn_get_local_entity_int_value@@3PAY0BBH@P6GHPAUENTITY@@W4INT_TYPES@@@ZA:BYTE ; fn_get_local_entity_int_value
EXTRN	?gunship_entity@@3PAUENTITY@@A:DWORD		; gunship_entity
EXTRN	?view_mode@@3W4VIEW_MODES@@A:DWORD		; view_mode
EXTRN	?in_cockpit@@3HA:DWORD				; in_cockpit
EXTRN	?target_acquisition_system@@3W4TARGET_ACQUISITION_SYSTEMS@@A:DWORD ; target_acquisition_system
EXTRN	?target_locked@@3HA:DWORD			; target_locked
EXTRN	?hms_target_locked@@3HA:DWORD			; hms_target_locked
EXTRN	?hud_mode@@3W4HUD_MODES@@A:DWORD		; hud_mode
EXTRN	?previous_hud_mode@@3W4HUD_MODES@@A:DWORD	; previous_hud_mode
EXTRN	?ground_radar@@3URADAR_PARAMS@@A:BYTE		; ground_radar
EXTRN	?air_radar@@3URADAR_PARAMS@@A:BYTE		; air_radar
EXTRN	?apache_damage@@3TAPACHE_DAMAGE_FLAGS@@A:DWORD	; apache_damage
EXTRN	?apache_flir@@3UEO_PARAMS@@A:BYTE		; apache_flir
EXTRN	?apache_dtv@@3UEO_PARAMS@@A:BYTE		; apache_dtv
EXTRN	?apache_dvo@@3UEO_PARAMS@@A:BYTE		; apache_dvo
;	COMDAT ??_C@_0EO@CIFDMJHG@c?3?2users?2nhv90?2projects?2eech?2ap@
CONST	SEGMENT
??_C@_0EO@CIFDMJHG@c?3?2users?2nhv90?2projects?2eech?2ap@ DB 'c:\users\nh'
	DB	'v90\projects\eech\aphavoc\source\gunships\avionics\apache\ap_'
	DB	'tgt.c', 00H					; `string'
CONST	ENDS
;	COMDAT ?__LINE__Var@?0??update_apache_target_acquisition_system@@YGXXZ@4JA
_DATA	SEGMENT
?__LINE__Var@?0??update_apache_target_acquisition_system@@YGXXZ@4JA DD 0186H ; `update_apache_target_acquisition_system'::`1'::__LINE__Var
_DATA	ENDS
;	COMDAT ??_C@_0CH@DDKDNBNH@Invalid?5target?5acquisition?5syst@
CONST	SEGMENT
??_C@_0CH@DDKDNBNH@Invalid?5target?5acquisition?5syst@ DB 'Invalid target'
	DB	' acquisition system = %d', 00H		; `string'
CONST	ENDS
; Function compile flags: /Odtp /ZI
; File c:\users\nhv90\projects\eech\aphavoc\source\gunships\avionics\apache\ap_tgt.c
;	COMDAT ?deselect_apache_target_acquisition_system@@YGXW4TARGET_ACQUISITION_SYSTEMS@@@Z
_TEXT	SEGMENT
tv64 = -68						; size = 4
_system$ = 8						; size = 4
?deselect_apache_target_acquisition_system@@YGXW4TARGET_ACQUISITION_SYSTEMS@@@Z PROC ; deselect_apache_target_acquisition_system, COMDAT

; 106  : {

  00000	55		 push	 ebp
  00001	8b ec		 mov	 ebp, esp
  00003	83 ec 44	 sub	 esp, 68			; 00000044H
  00006	53		 push	 ebx
  00007	56		 push	 esi
  00008	57		 push	 edi

; 107  : 	
; 108  : 	switch (system)

  00009	8b 45 08	 mov	 eax, DWORD PTR _system$[ebp]
  0000c	89 45 bc	 mov	 DWORD PTR tv64[ebp], eax
  0000f	83 7d bc 08	 cmp	 DWORD PTR tv64[ebp], 8
  00013	77 58		 ja	 SHORT $LN14@deselect_a
  00015	8b 4d bc	 mov	 ecx, DWORD PTR tv64[ebp]
  00018	ff 24 8d 00 00
	00 00		 jmp	 DWORD PTR $LN16@deselect_a[ecx*4]
$LN4@deselect_a:

; 109  : 	{
; 110  : 		////////////////////////////////////////
; 111  : 		case TARGET_ACQUISITION_SYSTEM_OFF:
; 112  : 		////////////////////////////////////////
; 113  : 		{
; 114  : 			// laser is on in all modes but OFF in automatic mode
; 115  : 			if (!command_line_manual_laser_radar)

  0001f	83 3d 00 00 00
	00 00		 cmp	 DWORD PTR ?command_line_manual_laser_radar@@3HA, 0 ; command_line_manual_laser_radar
  00026	75 07		 jne	 SHORT $LN5@deselect_a

; 116  : 				set_laser_is_active(TRUE);

  00028	6a 01		 push	 1
  0002a	e8 00 00 00 00	 call	 ?set_laser_is_active@@YGXH@Z ; set_laser_is_active
$LN5@deselect_a:

; 117  : 			
; 118  : 			break;

  0002f	eb 4d		 jmp	 SHORT $LN1@deselect_a
$LN6@deselect_a:

; 119  : 		}
; 120  : 		////////////////////////////////////////
; 121  : 		case TARGET_ACQUISITION_SYSTEM_GROUND_RADAR:
; 122  : 		////////////////////////////////////////
; 123  : 		{
; 124  : 			if (!command_line_manual_laser_radar)

  00031	83 3d 00 00 00
	00 00		 cmp	 DWORD PTR ?command_line_manual_laser_radar@@3HA, 0 ; command_line_manual_laser_radar
  00038	75 05		 jne	 SHORT $LN7@deselect_a

; 125  : 				deactivate_common_ground_radar ();

  0003a	e8 00 00 00 00	 call	 ?deactivate_common_ground_radar@@YGXXZ ; deactivate_common_ground_radar
$LN7@deselect_a:

; 126  : 
; 127  : 			break;

  0003f	eb 3d		 jmp	 SHORT $LN1@deselect_a
$LN8@deselect_a:

; 128  : 		}
; 129  : 		////////////////////////////////////////
; 130  : 		case TARGET_ACQUISITION_SYSTEM_AIR_RADAR:
; 131  : 		////////////////////////////////////////
; 132  : 		{
; 133  : 			if (!command_line_manual_laser_radar)

  00041	83 3d 00 00 00
	00 00		 cmp	 DWORD PTR ?command_line_manual_laser_radar@@3HA, 0 ; command_line_manual_laser_radar
  00048	75 05		 jne	 SHORT $LN9@deselect_a

; 134  : 				deactivate_common_air_radar ();

  0004a	e8 00 00 00 00	 call	 ?deactivate_common_air_radar@@YGXXZ ; deactivate_common_air_radar
$LN9@deselect_a:

; 135  : 
; 136  : 			break;

  0004f	eb 2d		 jmp	 SHORT $LN1@deselect_a
$LN10@deselect_a:

; 137  : 		}
; 138  : 		////////////////////////////////////////
; 139  : 		case TARGET_ACQUISITION_SYSTEM_FLIR:
; 140  : 		////////////////////////////////////////
; 141  : 		{
; 142  : 			deactivate_common_eo ();

  00051	e8 00 00 00 00	 call	 ?deactivate_common_eo@@YGXXZ ; deactivate_common_eo

; 143  : 
; 144  : 			break;

  00056	eb 26		 jmp	 SHORT $LN1@deselect_a
$LN11@deselect_a:

; 145  : 		}
; 146  : 		////////////////////////////////////////
; 147  : 		case TARGET_ACQUISITION_SYSTEM_DTV:
; 148  : 		////////////////////////////////////////
; 149  : 		{
; 150  : 			deactivate_common_eo ();

  00058	e8 00 00 00 00	 call	 ?deactivate_common_eo@@YGXXZ ; deactivate_common_eo

; 151  : 
; 152  : 			break;

  0005d	eb 1f		 jmp	 SHORT $LN1@deselect_a
$LN12@deselect_a:

; 153  : 		}
; 154  : 		////////////////////////////////////////
; 155  : 		case TARGET_ACQUISITION_SYSTEM_DVO:
; 156  : 		////////////////////////////////////////
; 157  : 		{
; 158  : 			deactivate_common_eo ();

  0005f	e8 00 00 00 00	 call	 ?deactivate_common_eo@@YGXXZ ; deactivate_common_eo

; 159  : 
; 160  : 			break;

  00064	eb 18		 jmp	 SHORT $LN1@deselect_a
$LN13@deselect_a:

; 161  : 		}
; 162  : 		////////////////////////////////////////
; 163  : 		case TARGET_ACQUISITION_SYSTEM_IHADSS:
; 164  : 		////////////////////////////////////////
; 165  : 		{
; 166  : 			deactivate_common_hms ();

  00066	e8 00 00 00 00	 call	 ?deactivate_common_hms@@YGXXZ ; deactivate_common_hms

; 167  : 
; 168  : 			break;

  0006b	eb 11		 jmp	 SHORT $LN1@deselect_a
$LN14@deselect_a:

; 169  : 		}
; 170  : 		////////////////////////////////////////
; 171  : 		default:
; 172  : 		////////////////////////////////////////
; 173  : 		{
; 174  : 			debug_fatal ("Invalid target acquisition system = %d", system);

  0006d	8b 45 08	 mov	 eax, DWORD PTR _system$[ebp]
  00070	50		 push	 eax
  00071	68 00 00 00 00	 push	 OFFSET ??_C@_0CH@DDKDNBNH@Invalid?5target?5acquisition?5syst@
  00076	e8 00 00 00 00	 call	 ?debug_fatal@@YAXPBDZZ	; debug_fatal
  0007b	83 c4 08	 add	 esp, 8
$LN1@deselect_a:

; 175  : 
; 176  : 			break;
; 177  : 		}
; 178  : 	}
; 179  : }

  0007e	5f		 pop	 edi
  0007f	5e		 pop	 esi
  00080	5b		 pop	 ebx
  00081	8b e5		 mov	 esp, ebp
  00083	5d		 pop	 ebp
  00084	c2 04 00	 ret	 4
  00087	90		 npad	 1
$LN16@deselect_a:
  00088	00 00 00 00	 DD	 $LN4@deselect_a
  0008c	00 00 00 00	 DD	 $LN6@deselect_a
  00090	00 00 00 00	 DD	 $LN8@deselect_a
  00094	00 00 00 00	 DD	 $LN10@deselect_a
  00098	00 00 00 00	 DD	 $LN11@deselect_a
  0009c	00 00 00 00	 DD	 $LN12@deselect_a
  000a0	00 00 00 00	 DD	 $LN14@deselect_a
  000a4	00 00 00 00	 DD	 $LN14@deselect_a
  000a8	00 00 00 00	 DD	 $LN13@deselect_a
?deselect_apache_target_acquisition_system@@YGXW4TARGET_ACQUISITION_SYSTEMS@@@Z ENDP ; deselect_apache_target_acquisition_system
_TEXT	ENDS
; Function compile flags: /Odtp /ZI
; File c:\users\nhv90\projects\eech\aphavoc\source\gunships\avionics\apache\ap_tgt.c
;	COMDAT ?apache_target_acquisition_system_misc_function2@@YGXXZ
_TEXT	SEGMENT
tv64 = -68						; size = 4
?apache_target_acquisition_system_misc_function2@@YGXXZ PROC ; apache_target_acquisition_system_misc_function2, COMDAT

; 952  : {

  00000	55		 push	 ebp
  00001	8b ec		 mov	 ebp, esp
  00003	83 ec 44	 sub	 esp, 68			; 00000044H
  00006	53		 push	 ebx
  00007	56		 push	 esi
  00008	57		 push	 edi

; 953  : 	switch (target_acquisition_system)

  00009	a1 00 00 00 00	 mov	 eax, DWORD PTR ?target_acquisition_system@@3W4TARGET_ACQUISITION_SYSTEMS@@A ; target_acquisition_system
  0000e	89 45 bc	 mov	 DWORD PTR tv64[ebp], eax
  00011	83 7d bc 08	 cmp	 DWORD PTR tv64[ebp], 8
  00015	0f 87 b5 00 00
	00		 ja	 $LN1@apache_tar
  0001b	8b 4d bc	 mov	 ecx, DWORD PTR tv64[ebp]
  0001e	0f b6 91 00 00
	00 00		 movzx	 edx, BYTE PTR $LN19@apache_tar[ecx]
  00025	ff 24 95 00 00
	00 00		 jmp	 DWORD PTR $LN20@apache_tar[edx*4]
$LN4@apache_tar:

; 954  : 	{
; 955  : 		////////////////////////////////////////
; 956  : 		case TARGET_ACQUISITION_SYSTEM_OFF:
; 957  : 		case TARGET_ACQUISITION_SYSTEM_GROUND_RADAR:
; 958  : 		case TARGET_ACQUISITION_SYSTEM_FLIR:
; 959  : 		case TARGET_ACQUISITION_SYSTEM_DTV:
; 960  : 		case TARGET_ACQUISITION_SYSTEM_DVO:
; 961  : 		case TARGET_ACQUISITION_SYSTEM_IHADSS:
; 962  : 		////////////////////////////////////////
; 963  : 		{
; 964  : 			if (ground_radar.sweep_mode == RADAR_SWEEP_MODE_SINGLE_INACTIVE)

  0002c	83 3d 28 00 00
	00 01		 cmp	 DWORD PTR ?ground_radar@@3URADAR_PARAMS@@A+40, 1
  00033	75 1d		 jne	 SHORT $LN5@apache_tar

; 965  : 			{
; 966  : 				if (!apache_damage.radar)

  00035	a1 00 00 00 00	 mov	 eax, DWORD PTR ?apache_damage@@3TAPACHE_DAMAGE_FLAGS@@A ; apache_damage
  0003a	83 e0 01	 and	 eax, 1
  0003d	75 11		 jne	 SHORT $LN7@apache_tar

; 967  : 				{
; 968  : 					ground_radar.sweep_mode = RADAR_SWEEP_MODE_SINGLE_ACTIVE;

  0003f	c7 05 28 00 00
	00 02 00 00 00	 mov	 DWORD PTR ?ground_radar@@3URADAR_PARAMS@@A+40, 2

; 969  : 					set_ground_radar_is_active(TRUE);

  00049	6a 01		 push	 1
  0004b	e8 00 00 00 00	 call	 ?set_ground_radar_is_active@@YGXH@Z ; set_ground_radar_is_active
$LN7@apache_tar:

; 970  : 				}
; 971  : 			}

  00050	eb 2b		 jmp	 SHORT $LN6@apache_tar
$LN5@apache_tar:

; 972  : 			else if (ground_radar.sweep_mode == RADAR_SWEEP_MODE_SINGLE_ACTIVE)

  00052	83 3d 28 00 00
	00 02		 cmp	 DWORD PTR ?ground_radar@@3URADAR_PARAMS@@A+40, 2
  00059	75 13		 jne	 SHORT $LN8@apache_tar

; 973  : 			{
; 974  : 				ground_radar.sweep_mode = RADAR_SWEEP_MODE_SINGLE_INACTIVE;

  0005b	c7 05 28 00 00
	00 01 00 00 00	 mov	 DWORD PTR ?ground_radar@@3URADAR_PARAMS@@A+40, 1

; 975  : 				set_ground_radar_is_active(FALSE);

  00065	6a 00		 push	 0
  00067	e8 00 00 00 00	 call	 ?set_ground_radar_is_active@@YGXH@Z ; set_ground_radar_is_active
  0006c	eb 0f		 jmp	 SHORT $LN6@apache_tar
$LN8@apache_tar:

; 976  : 			}
; 977  : 			else if (!apache_damage.radar)

  0006e	a1 00 00 00 00	 mov	 eax, DWORD PTR ?apache_damage@@3TAPACHE_DAMAGE_FLAGS@@A ; apache_damage
  00073	83 e0 01	 and	 eax, 1
  00076	75 05		 jne	 SHORT $LN6@apache_tar

; 978  : 				toggle_ground_radar_active();

  00078	e8 00 00 00 00	 call	 ?toggle_ground_radar_active@@YGXXZ ; toggle_ground_radar_active
$LN6@apache_tar:

; 979  : 
; 980  : 			break;

  0007d	eb 51		 jmp	 SHORT $LN1@apache_tar
$LN11@apache_tar:

; 981  : 		}
; 982  : 		////////////////////////////////////////
; 983  : 		case TARGET_ACQUISITION_SYSTEM_AIR_RADAR:
; 984  : 		////////////////////////////////////////
; 985  : 		{
; 986  : 			if (air_radar.sweep_mode == RADAR_SWEEP_MODE_SINGLE_INACTIVE)

  0007f	83 3d 28 00 00
	00 01		 cmp	 DWORD PTR ?air_radar@@3URADAR_PARAMS@@A+40, 1
  00086	75 1d		 jne	 SHORT $LN12@apache_tar

; 987  : 			{
; 988  : 				if (!apache_damage.radar)

  00088	a1 00 00 00 00	 mov	 eax, DWORD PTR ?apache_damage@@3TAPACHE_DAMAGE_FLAGS@@A ; apache_damage
  0008d	83 e0 01	 and	 eax, 1
  00090	75 11		 jne	 SHORT $LN14@apache_tar

; 989  : 				{
; 990  : 					air_radar.sweep_mode = RADAR_SWEEP_MODE_SINGLE_ACTIVE;

  00092	c7 05 28 00 00
	00 02 00 00 00	 mov	 DWORD PTR ?air_radar@@3URADAR_PARAMS@@A+40, 2

; 991  : 					set_air_radar_is_active(TRUE);

  0009c	6a 01		 push	 1
  0009e	e8 00 00 00 00	 call	 ?set_air_radar_is_active@@YGXH@Z ; set_air_radar_is_active
$LN14@apache_tar:

; 992  : 				}
; 993  : 			}

  000a3	eb 2b		 jmp	 SHORT $LN1@apache_tar
$LN12@apache_tar:

; 994  : 			else if (air_radar.sweep_mode == RADAR_SWEEP_MODE_SINGLE_ACTIVE)

  000a5	83 3d 28 00 00
	00 02		 cmp	 DWORD PTR ?air_radar@@3URADAR_PARAMS@@A+40, 2
  000ac	75 13		 jne	 SHORT $LN15@apache_tar

; 995  : 			{
; 996  : 				air_radar.sweep_mode = RADAR_SWEEP_MODE_SINGLE_INACTIVE;

  000ae	c7 05 28 00 00
	00 01 00 00 00	 mov	 DWORD PTR ?air_radar@@3URADAR_PARAMS@@A+40, 1

; 997  : 				set_air_radar_is_active(FALSE);

  000b8	6a 00		 push	 0
  000ba	e8 00 00 00 00	 call	 ?set_air_radar_is_active@@YGXH@Z ; set_air_radar_is_active
  000bf	eb 0f		 jmp	 SHORT $LN1@apache_tar
$LN15@apache_tar:

; 998  : 			}
; 999  : 			else if (!apache_damage.radar)

  000c1	a1 00 00 00 00	 mov	 eax, DWORD PTR ?apache_damage@@3TAPACHE_DAMAGE_FLAGS@@A ; apache_damage
  000c6	83 e0 01	 and	 eax, 1
  000c9	75 05		 jne	 SHORT $LN1@apache_tar

; 1000 : 				toggle_air_radar_active();

  000cb	e8 00 00 00 00	 call	 ?toggle_air_radar_active@@YGXXZ ; toggle_air_radar_active
$LN1@apache_tar:

; 1001 : 
; 1002 : 			break;
; 1003 : 		}
; 1004 : 	}
; 1005 : }

  000d0	5f		 pop	 edi
  000d1	5e		 pop	 esi
  000d2	5b		 pop	 ebx
  000d3	8b e5		 mov	 esp, ebp
  000d5	5d		 pop	 ebp
  000d6	c3		 ret	 0
  000d7	90		 npad	 1
$LN20@apache_tar:
  000d8	00 00 00 00	 DD	 $LN4@apache_tar
  000dc	00 00 00 00	 DD	 $LN11@apache_tar
  000e0	00 00 00 00	 DD	 $LN1@apache_tar
$LN19@apache_tar:
  000e4	00		 DB	 0
  000e5	00		 DB	 0
  000e6	01		 DB	 1
  000e7	00		 DB	 0
  000e8	00		 DB	 0
  000e9	00		 DB	 0
  000ea	02		 DB	 2
  000eb	02		 DB	 2
  000ec	00		 DB	 0
?apache_target_acquisition_system_misc_function2@@YGXXZ ENDP ; apache_target_acquisition_system_misc_function2
_TEXT	ENDS
; Function compile flags: /Odtp /ZI
; File c:\users\nhv90\projects\eech\aphavoc\source\gunships\avionics\apache\ap_tgt.c
;	COMDAT ?apache_target_acquisition_system_misc_function1@@YGXXZ
_TEXT	SEGMENT
tv83 = -68						; size = 4
tv73 = -68						; size = 4
tv64 = -68						; size = 4
?apache_target_acquisition_system_misc_function1@@YGXXZ PROC ; apache_target_acquisition_system_misc_function1, COMDAT

; 888  : {

  00000	55		 push	 ebp
  00001	8b ec		 mov	 ebp, esp
  00003	83 ec 44	 sub	 esp, 68			; 00000044H
  00006	53		 push	 ebx
  00007	56		 push	 esi
  00008	57		 push	 edi

; 889  : 	switch (target_acquisition_system)

  00009	a1 00 00 00 00	 mov	 eax, DWORD PTR ?target_acquisition_system@@3W4TARGET_ACQUISITION_SYSTEMS@@A ; target_acquisition_system
  0000e	89 45 bc	 mov	 DWORD PTR tv64[ebp], eax
  00011	83 7d bc 08	 cmp	 DWORD PTR tv64[ebp], 8
  00015	0f 87 f3 00 00
	00		 ja	 $LN1@apache_tar
  0001b	8b 4d bc	 mov	 ecx, DWORD PTR tv64[ebp]
  0001e	0f b6 91 00 00
	00 00		 movzx	 edx, BYTE PTR $LN23@apache_tar[ecx]
  00025	ff 24 95 00 00
	00 00		 jmp	 DWORD PTR $LN24@apache_tar[edx*4]
$LN4@apache_tar:

; 890  : 	{
; 891  : 		case TARGET_ACQUISITION_SYSTEM_OFF:
; 892  : 		case TARGET_ACQUISITION_SYSTEM_GROUND_RADAR:
; 893  : 		case TARGET_ACQUISITION_SYSTEM_FLIR:
; 894  : 		case TARGET_ACQUISITION_SYSTEM_DTV:
; 895  : 		case TARGET_ACQUISITION_SYSTEM_DVO:
; 896  : 		case TARGET_ACQUISITION_SYSTEM_IHADSS:
; 897  : 		{
; 898  : 			if (apache_damage.radar)

  0002c	a1 00 00 00 00	 mov	 eax, DWORD PTR ?apache_damage@@3TAPACHE_DAMAGE_FLAGS@@A ; apache_damage
  00031	83 e0 01	 and	 eax, 1
  00034	74 10		 je	 SHORT $LN5@apache_tar

; 899  : 			{
; 900  : 				set_ground_radar_is_active(FALSE);

  00036	6a 00		 push	 0
  00038	e8 00 00 00 00	 call	 ?set_ground_radar_is_active@@YGXH@Z ; set_ground_radar_is_active

; 901  : 				set_air_radar_is_active(FALSE);

  0003d	6a 00		 push	 0
  0003f	e8 00 00 00 00	 call	 ?set_air_radar_is_active@@YGXH@Z ; set_air_radar_is_active
  00044	eb 56		 jmp	 SHORT $LN6@apache_tar
$LN5@apache_tar:

; 902  : 			}
; 903  : 			else if (ground_radar.sweep_mode == RADAR_SWEEP_MODE_CONTINUOUS)

  00046	83 3d 28 00 00
	00 00		 cmp	 DWORD PTR ?ground_radar@@3URADAR_PARAMS@@A+40, 0
  0004d	75 21		 jne	 SHORT $LN7@apache_tar

; 904  : 			{
; 905  : 				if (ground_radar_is_active())

  0004f	e8 00 00 00 00	 call	 ?ground_radar_is_active@@YGHXZ ; ground_radar_is_active
  00054	85 c0		 test	 eax, eax
  00056	74 0c		 je	 SHORT $LN9@apache_tar

; 906  : 					ground_radar.sweep_mode = RADAR_SWEEP_MODE_SINGLE_ACTIVE;

  00058	c7 05 28 00 00
	00 02 00 00 00	 mov	 DWORD PTR ?ground_radar@@3URADAR_PARAMS@@A+40, 2

; 907  : 				else

  00062	eb 0a		 jmp	 SHORT $LN10@apache_tar
$LN9@apache_tar:

; 908  : 					ground_radar.sweep_mode = RADAR_SWEEP_MODE_SINGLE_INACTIVE;

  00064	c7 05 28 00 00
	00 01 00 00 00	 mov	 DWORD PTR ?ground_radar@@3URADAR_PARAMS@@A+40, 1
$LN10@apache_tar:

; 909  : 			}
; 910  : 			else

  0006e	eb 2c		 jmp	 SHORT $LN6@apache_tar
$LN7@apache_tar:

; 911  : 			{
; 912  : 				set_ground_radar_is_active(ground_radar.sweep_mode == RADAR_SWEEP_MODE_SINGLE_ACTIVE);

  00070	83 3d 28 00 00
	00 02		 cmp	 DWORD PTR ?ground_radar@@3URADAR_PARAMS@@A+40, 2
  00077	75 09		 jne	 SHORT $LN19@apache_tar
  00079	c7 45 bc 01 00
	00 00		 mov	 DWORD PTR tv73[ebp], 1
  00080	eb 07		 jmp	 SHORT $LN20@apache_tar
$LN19@apache_tar:
  00082	c7 45 bc 00 00
	00 00		 mov	 DWORD PTR tv73[ebp], 0
$LN20@apache_tar:
  00089	8b 45 bc	 mov	 eax, DWORD PTR tv73[ebp]
  0008c	50		 push	 eax
  0008d	e8 00 00 00 00	 call	 ?set_ground_radar_is_active@@YGXH@Z ; set_ground_radar_is_active

; 913  : 				
; 914  : 				ground_radar.sweep_mode = RADAR_SWEEP_MODE_CONTINUOUS;

  00092	c7 05 28 00 00
	00 00 00 00 00	 mov	 DWORD PTR ?ground_radar@@3URADAR_PARAMS@@A+40, 0
$LN6@apache_tar:

; 915  : 			}
; 916  : 
; 917  : 			break;

  0009c	eb 70		 jmp	 SHORT $LN1@apache_tar
$LN11@apache_tar:

; 918  : 		}
; 919  : 		////////////////////////////////////////
; 920  : 		case TARGET_ACQUISITION_SYSTEM_AIR_RADAR:
; 921  : 		////////////////////////////////////////
; 922  : 		{
; 923  : 			if (apache_damage.radar)

  0009e	a1 00 00 00 00	 mov	 eax, DWORD PTR ?apache_damage@@3TAPACHE_DAMAGE_FLAGS@@A ; apache_damage
  000a3	83 e0 01	 and	 eax, 1
  000a6	74 10		 je	 SHORT $LN12@apache_tar

; 924  : 			{
; 925  : 				set_ground_radar_is_active(FALSE);

  000a8	6a 00		 push	 0
  000aa	e8 00 00 00 00	 call	 ?set_ground_radar_is_active@@YGXH@Z ; set_ground_radar_is_active

; 926  : 				set_air_radar_is_active(FALSE);

  000af	6a 00		 push	 0
  000b1	e8 00 00 00 00	 call	 ?set_air_radar_is_active@@YGXH@Z ; set_air_radar_is_active
  000b6	eb 56		 jmp	 SHORT $LN1@apache_tar
$LN12@apache_tar:

; 927  : 			}
; 928  : 			else if (air_radar.sweep_mode == RADAR_SWEEP_MODE_CONTINUOUS)

  000b8	83 3d 28 00 00
	00 00		 cmp	 DWORD PTR ?air_radar@@3URADAR_PARAMS@@A+40, 0
  000bf	75 21		 jne	 SHORT $LN14@apache_tar

; 929  : 			{
; 930  : 				if (air_radar_is_active())

  000c1	e8 00 00 00 00	 call	 ?air_radar_is_active@@YGHXZ ; air_radar_is_active
  000c6	85 c0		 test	 eax, eax
  000c8	74 0c		 je	 SHORT $LN16@apache_tar

; 931  : 					air_radar.sweep_mode = RADAR_SWEEP_MODE_SINGLE_ACTIVE;

  000ca	c7 05 28 00 00
	00 02 00 00 00	 mov	 DWORD PTR ?air_radar@@3URADAR_PARAMS@@A+40, 2

; 932  : 				else

  000d4	eb 0a		 jmp	 SHORT $LN17@apache_tar
$LN16@apache_tar:

; 933  : 					air_radar.sweep_mode = RADAR_SWEEP_MODE_SINGLE_INACTIVE;

  000d6	c7 05 28 00 00
	00 01 00 00 00	 mov	 DWORD PTR ?air_radar@@3URADAR_PARAMS@@A+40, 1
$LN17@apache_tar:

; 934  : 			}
; 935  : 			else

  000e0	eb 2c		 jmp	 SHORT $LN1@apache_tar
$LN14@apache_tar:

; 936  : 			{
; 937  : 				set_air_radar_is_active(air_radar.sweep_mode == RADAR_SWEEP_MODE_SINGLE_ACTIVE);

  000e2	83 3d 28 00 00
	00 02		 cmp	 DWORD PTR ?air_radar@@3URADAR_PARAMS@@A+40, 2
  000e9	75 09		 jne	 SHORT $LN21@apache_tar
  000eb	c7 45 bc 01 00
	00 00		 mov	 DWORD PTR tv83[ebp], 1
  000f2	eb 07		 jmp	 SHORT $LN22@apache_tar
$LN21@apache_tar:
  000f4	c7 45 bc 00 00
	00 00		 mov	 DWORD PTR tv83[ebp], 0
$LN22@apache_tar:
  000fb	8b 45 bc	 mov	 eax, DWORD PTR tv83[ebp]
  000fe	50		 push	 eax
  000ff	e8 00 00 00 00	 call	 ?set_air_radar_is_active@@YGXH@Z ; set_air_radar_is_active

; 938  : 				
; 939  : 				air_radar.sweep_mode = RADAR_SWEEP_MODE_CONTINUOUS;

  00104	c7 05 28 00 00
	00 00 00 00 00	 mov	 DWORD PTR ?air_radar@@3URADAR_PARAMS@@A+40, 0
$LN1@apache_tar:

; 940  : 			}
; 941  : 
; 942  : 			break;
; 943  : 		}
; 944  : 	}
; 945  : }

  0010e	5f		 pop	 edi
  0010f	5e		 pop	 esi
  00110	5b		 pop	 ebx
  00111	8b e5		 mov	 esp, ebp
  00113	5d		 pop	 ebp
  00114	c3		 ret	 0
  00115	0f 1f 00	 npad	 3
$LN24@apache_tar:
  00118	00 00 00 00	 DD	 $LN4@apache_tar
  0011c	00 00 00 00	 DD	 $LN11@apache_tar
  00120	00 00 00 00	 DD	 $LN1@apache_tar
$LN23@apache_tar:
  00124	00		 DB	 0
  00125	00		 DB	 0
  00126	01		 DB	 1
  00127	00		 DB	 0
  00128	00		 DB	 0
  00129	00		 DB	 0
  0012a	02		 DB	 2
  0012b	02		 DB	 2
  0012c	00		 DB	 0
?apache_target_acquisition_system_misc_function1@@YGXXZ ENDP ; apache_target_acquisition_system_misc_function1
_TEXT	ENDS
; Function compile flags: /Odtp /ZI
; File c:\users\nhv90\projects\eech\aphavoc\source\gunships\avionics\apache\ap_tgt.c
;	COMDAT ?set_apache_lock_target@@YGXH@Z
_TEXT	SEGMENT
tv64 = -68						; size = 4
_lock$ = 8						; size = 4
?set_apache_lock_target@@YGXH@Z PROC			; set_apache_lock_target, COMDAT

; 837  : {

  00000	55		 push	 ebp
  00001	8b ec		 mov	 ebp, esp
  00003	83 ec 44	 sub	 esp, 68			; 00000044H
  00006	53		 push	 ebx
  00007	56		 push	 esi
  00008	57		 push	 edi

; 838  : 	switch (target_acquisition_system)

  00009	a1 00 00 00 00	 mov	 eax, DWORD PTR ?target_acquisition_system@@3W4TARGET_ACQUISITION_SYSTEMS@@A ; target_acquisition_system
  0000e	89 45 bc	 mov	 DWORD PTR tv64[ebp], eax
  00011	8b 4d bc	 mov	 ecx, DWORD PTR tv64[ebp]
  00014	83 e9 01	 sub	 ecx, 1
  00017	89 4d bc	 mov	 DWORD PTR tv64[ebp], ecx
  0001a	83 7d bc 07	 cmp	 DWORD PTR tv64[ebp], 7
  0001e	77 33		 ja	 SHORT $LN1@set_apache
  00020	8b 55 bc	 mov	 edx, DWORD PTR tv64[ebp]
  00023	ff 24 95 00 00
	00 00		 jmp	 DWORD PTR $LN10@set_apache[edx*4]

; 839  : 	{
; 840  : 		////////////////////////////////////////
; 841  : 		case TARGET_ACQUISITION_SYSTEM_OFF:
; 842  : 		////////////////////////////////////////
; 843  : 		{
; 844  : 			break;

  0002a	eb 27		 jmp	 SHORT $LN1@set_apache
$LN5@set_apache:

; 845  : 		}
; 846  : 		////////////////////////////////////////
; 847  : 		case TARGET_ACQUISITION_SYSTEM_GROUND_RADAR:
; 848  : 		////////////////////////////////////////
; 849  : 		{
; 850  : 			ground_radar.target_locked = lock;

  0002c	8b 45 08	 mov	 eax, DWORD PTR _lock$[ebp]
  0002f	a3 20 00 00 00	 mov	 DWORD PTR ?ground_radar@@3URADAR_PARAMS@@A+32, eax

; 851  : 
; 852  : 			break;

  00034	eb 1d		 jmp	 SHORT $LN1@set_apache
$LN6@set_apache:

; 853  : 		}
; 854  : 		////////////////////////////////////////
; 855  : 		case TARGET_ACQUISITION_SYSTEM_AIR_RADAR:
; 856  : 		////////////////////////////////////////
; 857  : 		{
; 858  : 			air_radar.target_locked = lock;

  00036	8b 45 08	 mov	 eax, DWORD PTR _lock$[ebp]
  00039	a3 20 00 00 00	 mov	 DWORD PTR ?air_radar@@3URADAR_PARAMS@@A+32, eax

; 859  : 
; 860  : 			break;

  0003e	eb 13		 jmp	 SHORT $LN1@set_apache
$LN7@set_apache:

; 861  : 		}
; 862  : 		////////////////////////////////////////
; 863  : 		case TARGET_ACQUISITION_SYSTEM_FLIR:
; 864  : 		case TARGET_ACQUISITION_SYSTEM_DTV:
; 865  : 		case TARGET_ACQUISITION_SYSTEM_DVO:
; 866  : 		////////////////////////////////////////
; 867  : 		{
; 868  : 			set_eo_lock(lock);

  00040	8b 45 08	 mov	 eax, DWORD PTR _lock$[ebp]
  00043	50		 push	 eax
  00044	e8 00 00 00 00	 call	 ?set_eo_lock@@YGXH@Z	; set_eo_lock

; 869  : 
; 870  : 			break;

  00049	eb 08		 jmp	 SHORT $LN1@set_apache
$LN8@set_apache:

; 871  : 		}
; 872  : 		////////////////////////////////////////
; 873  : 		case TARGET_ACQUISITION_SYSTEM_IHADSS:
; 874  : 		////////////////////////////////////////
; 875  : 		{
; 876  : 			hms_target_locked = lock;

  0004b	8b 45 08	 mov	 eax, DWORD PTR _lock$[ebp]
  0004e	a3 00 00 00 00	 mov	 DWORD PTR ?hms_target_locked@@3HA, eax ; hms_target_locked
$LN1@set_apache:

; 877  : 
; 878  : 			break;
; 879  : 		}
; 880  : 	}
; 881  : }

  00053	5f		 pop	 edi
  00054	5e		 pop	 esi
  00055	5b		 pop	 ebx
  00056	8b e5		 mov	 esp, ebp
  00058	5d		 pop	 ebp
  00059	c2 04 00	 ret	 4
$LN10@set_apache:
  0005c	00 00 00 00	 DD	 $LN5@set_apache
  00060	00 00 00 00	 DD	 $LN6@set_apache
  00064	00 00 00 00	 DD	 $LN7@set_apache
  00068	00 00 00 00	 DD	 $LN7@set_apache
  0006c	00 00 00 00	 DD	 $LN7@set_apache
  00070	00 00 00 00	 DD	 $LN1@set_apache
  00074	00 00 00 00	 DD	 $LN1@set_apache
  00078	00 00 00 00	 DD	 $LN8@set_apache
?set_apache_lock_target@@YGXH@Z ENDP			; set_apache_lock_target
_TEXT	ENDS
; Function compile flags: /Odtp /ZI
; File c:\users\nhv90\projects\eech\aphavoc\source\gunships\avionics\apache\ap_tgt.c
;	COMDAT ?toggle_apache_lock_target@@YGXXZ
_TEXT	SEGMENT
tv64 = -68						; size = 4
?toggle_apache_lock_target@@YGXXZ PROC			; toggle_apache_lock_target, COMDAT

; 769  : {

  00000	55		 push	 ebp
  00001	8b ec		 mov	 ebp, esp
  00003	83 ec 44	 sub	 esp, 68			; 00000044H
  00006	53		 push	 ebx
  00007	56		 push	 esi
  00008	57		 push	 edi

; 770  : 	switch (target_acquisition_system)

  00009	a1 00 00 00 00	 mov	 eax, DWORD PTR ?target_acquisition_system@@3W4TARGET_ACQUISITION_SYSTEMS@@A ; target_acquisition_system
  0000e	89 45 bc	 mov	 DWORD PTR tv64[ebp], eax
  00011	8b 4d bc	 mov	 ecx, DWORD PTR tv64[ebp]
  00014	83 e9 01	 sub	 ecx, 1
  00017	89 4d bc	 mov	 DWORD PTR tv64[ebp], ecx
  0001a	83 7d bc 07	 cmp	 DWORD PTR tv64[ebp], 7
  0001e	77 74		 ja	 SHORT $LN1@toggle_apa
  00020	8b 55 bc	 mov	 edx, DWORD PTR tv64[ebp]
  00023	ff 24 95 00 00
	00 00		 jmp	 DWORD PTR $LN15@toggle_apa[edx*4]

; 771  : 	{
; 772  : 		////////////////////////////////////////
; 773  : 		case TARGET_ACQUISITION_SYSTEM_OFF:
; 774  : 		////////////////////////////////////////
; 775  : 		{
; 776  : 			break;

  0002a	eb 68		 jmp	 SHORT $LN1@toggle_apa
$LN5@toggle_apa:

; 777  : 		}
; 778  : 		////////////////////////////////////////
; 779  : 		case TARGET_ACQUISITION_SYSTEM_GROUND_RADAR:
; 780  : 		////////////////////////////////////////
; 781  : 		{
; 782  : 			ground_radar.target_locked ^= 1;

  0002c	a1 20 00 00 00	 mov	 eax, DWORD PTR ?ground_radar@@3URADAR_PARAMS@@A+32
  00031	83 f0 01	 xor	 eax, 1
  00034	a3 20 00 00 00	 mov	 DWORD PTR ?ground_radar@@3URADAR_PARAMS@@A+32, eax

; 783  : 
; 784  : 			break;

  00039	eb 59		 jmp	 SHORT $LN1@toggle_apa
$LN6@toggle_apa:

; 785  : 		}
; 786  : 		////////////////////////////////////////
; 787  : 		case TARGET_ACQUISITION_SYSTEM_AIR_RADAR:
; 788  : 		////////////////////////////////////////
; 789  : 		{
; 790  : 			air_radar.target_locked ^= 1;

  0003b	a1 20 00 00 00	 mov	 eax, DWORD PTR ?air_radar@@3URADAR_PARAMS@@A+32
  00040	83 f0 01	 xor	 eax, 1
  00043	a3 20 00 00 00	 mov	 DWORD PTR ?air_radar@@3URADAR_PARAMS@@A+32, eax

; 791  : 
; 792  : 			break;

  00048	eb 4a		 jmp	 SHORT $LN1@toggle_apa
$LN7@toggle_apa:

; 793  : 		}
; 794  : 		////////////////////////////////////////
; 795  : 		case TARGET_ACQUISITION_SYSTEM_FLIR:
; 796  : 		case TARGET_ACQUISITION_SYSTEM_DTV:
; 797  : 		case TARGET_ACQUISITION_SYSTEM_DVO:
; 798  : 		////////////////////////////////////////
; 799  : 		{
; 800  : 			toggle_eo_lock();

  0004a	e8 00 00 00 00	 call	 ?toggle_eo_lock@@YGXXZ	; toggle_eo_lock

; 801  : 
; 802  : 			break;

  0004f	eb 43		 jmp	 SHORT $LN1@toggle_apa
$LN8@toggle_apa:

; 803  : 		}
; 804  : 		////////////////////////////////////////
; 805  : 		case TARGET_ACQUISITION_SYSTEM_IHADSS:
; 806  : 		////////////////////////////////////////
; 807  : 		{
; 808  : 			hms_target_locked ^= 1;

  00051	a1 00 00 00 00	 mov	 eax, DWORD PTR ?hms_target_locked@@3HA ; hms_target_locked
  00056	83 f0 01	 xor	 eax, 1
  00059	a3 00 00 00 00	 mov	 DWORD PTR ?hms_target_locked@@3HA, eax ; hms_target_locked

; 809  : 
; 810  : 			if (hms_target_locked)

  0005e	74 24		 je	 SHORT $LN9@toggle_apa

; 811  : 			{
; 812  : 				if (in_cockpit && !query_TIR_active())

  00060	83 3d 00 00 00
	00 00		 cmp	 DWORD PTR ?in_cockpit@@3HA, 0 ; in_cockpit
  00067	74 12		 je	 SHORT $LN11@toggle_apa
  00069	e8 00 00 00 00	 call	 ?query_TIR_active@@YAHXZ ; query_TIR_active
  0006e	85 c0		 test	 eax, eax
  00070	75 09		 jne	 SHORT $LN11@toggle_apa

; 813  : 				{
; 814  : 					set_view_mode (VIEW_MODE_VIRTUAL_COCKPIT_TRACK_TARGET);

  00072	6a 22		 push	 34			; 00000022H
  00074	e8 00 00 00 00	 call	 ?set_view_mode@@YGHW4VIEW_MODES@@@Z ; set_view_mode

; 815  : 				}
; 816  : 				else

  00079	eb 07		 jmp	 SHORT $LN12@toggle_apa
$LN11@toggle_apa:

; 817  : 					set_eo_lock(TRUE);

  0007b	6a 01		 push	 1
  0007d	e8 00 00 00 00	 call	 ?set_eo_lock@@YGXH@Z	; set_eo_lock
$LN12@toggle_apa:

; 818  : 			}
; 819  : 			else

  00082	eb 10		 jmp	 SHORT $LN1@toggle_apa
$LN9@toggle_apa:

; 820  : 			{
; 821  : 				if (get_view_mode () == VIEW_MODE_VIRTUAL_COCKPIT_TRACK_TARGET)

  00084	83 3d 00 00 00
	00 22		 cmp	 DWORD PTR ?view_mode@@3W4VIEW_MODES@@A, 34 ; view_mode, 00000022H
  0008b	75 07		 jne	 SHORT $LN1@toggle_apa

; 822  : 				{
; 823  : 					select_padlock_view_event (PADLOCK_MODE_NONE);

  0008d	6a 00		 push	 0
  0008f	e8 00 00 00 00	 call	 ?select_padlock_view_event@@YGXW4PADLOCK_MODES@@@Z ; select_padlock_view_event
$LN1@toggle_apa:

; 824  : 				}
; 825  : 			}
; 826  : 
; 827  : 			break;
; 828  : 		}
; 829  : 	}
; 830  : }

  00094	5f		 pop	 edi
  00095	5e		 pop	 esi
  00096	5b		 pop	 ebx
  00097	8b e5		 mov	 esp, ebp
  00099	5d		 pop	 ebp
  0009a	c3		 ret	 0
  0009b	90		 npad	 1
$LN15@toggle_apa:
  0009c	00 00 00 00	 DD	 $LN5@toggle_apa
  000a0	00 00 00 00	 DD	 $LN6@toggle_apa
  000a4	00 00 00 00	 DD	 $LN7@toggle_apa
  000a8	00 00 00 00	 DD	 $LN7@toggle_apa
  000ac	00 00 00 00	 DD	 $LN7@toggle_apa
  000b0	00 00 00 00	 DD	 $LN1@toggle_apa
  000b4	00 00 00 00	 DD	 $LN1@toggle_apa
  000b8	00 00 00 00	 DD	 $LN8@toggle_apa
?toggle_apache_lock_target@@YGXXZ ENDP			; toggle_apache_lock_target
_TEXT	ENDS
; Function compile flags: /Odtp /ZI
; File c:\users\nhv90\projects\eech\aphavoc\source\gunships\avionics\apache\ap_tgt.c
;	COMDAT ?toggle_apache_auto_target@@YGXXZ
_TEXT	SEGMENT
tv64 = -68						; size = 4
?toggle_apache_auto_target@@YGXXZ PROC			; toggle_apache_auto_target, COMDAT

; 712  : {

  00000	55		 push	 ebp
  00001	8b ec		 mov	 ebp, esp
  00003	83 ec 44	 sub	 esp, 68			; 00000044H
  00006	53		 push	 ebx
  00007	56		 push	 esi
  00008	57		 push	 edi

; 713  : 	switch (target_acquisition_system)

  00009	a1 00 00 00 00	 mov	 eax, DWORD PTR ?target_acquisition_system@@3W4TARGET_ACQUISITION_SYSTEMS@@A ; target_acquisition_system
  0000e	89 45 bc	 mov	 DWORD PTR tv64[ebp], eax
  00011	83 7d bc 01	 cmp	 DWORD PTR tv64[ebp], 1
  00015	74 0a		 je	 SHORT $LN5@toggle_apa
  00017	83 7d bc 02	 cmp	 DWORD PTR tv64[ebp], 2
  0001b	74 13		 je	 SHORT $LN6@toggle_apa
  0001d	eb 1e		 jmp	 SHORT $LN1@toggle_apa

; 714  : 	{
; 715  : 		////////////////////////////////////////
; 716  : 		case TARGET_ACQUISITION_SYSTEM_OFF:
; 717  : 		////////////////////////////////////////
; 718  : 		{
; 719  : 			break;

  0001f	eb 1c		 jmp	 SHORT $LN1@toggle_apa
$LN5@toggle_apa:

; 720  : 		}
; 721  : 		////////////////////////////////////////
; 722  : 		case TARGET_ACQUISITION_SYSTEM_GROUND_RADAR:
; 723  : 		////////////////////////////////////////
; 724  : 		{
; 725  : 			ground_radar.auto_target ^= 1;

  00021	a1 24 00 00 00	 mov	 eax, DWORD PTR ?ground_radar@@3URADAR_PARAMS@@A+36
  00026	83 f0 01	 xor	 eax, 1
  00029	a3 24 00 00 00	 mov	 DWORD PTR ?ground_radar@@3URADAR_PARAMS@@A+36, eax

; 726  : 
; 727  : 			break;

  0002e	eb 0d		 jmp	 SHORT $LN1@toggle_apa
$LN6@toggle_apa:

; 728  : 		}
; 729  : 		////////////////////////////////////////
; 730  : 		case TARGET_ACQUISITION_SYSTEM_AIR_RADAR:
; 731  : 		////////////////////////////////////////
; 732  : 		{
; 733  : 			air_radar.auto_target ^= 1;

  00030	a1 24 00 00 00	 mov	 eax, DWORD PTR ?air_radar@@3URADAR_PARAMS@@A+36
  00035	83 f0 01	 xor	 eax, 1
  00038	a3 24 00 00 00	 mov	 DWORD PTR ?air_radar@@3URADAR_PARAMS@@A+36, eax
$LN1@toggle_apa:

; 734  : 
; 735  : 			break;
; 736  : 		}
; 737  : 		////////////////////////////////////////
; 738  : 		case TARGET_ACQUISITION_SYSTEM_FLIR:
; 739  : 		////////////////////////////////////////
; 740  : 		{
; 741  : 			break;
; 742  : 		}
; 743  : 		////////////////////////////////////////
; 744  : 		case TARGET_ACQUISITION_SYSTEM_DTV:
; 745  : 		////////////////////////////////////////
; 746  : 		{
; 747  : 			break;
; 748  : 		}
; 749  : 		////////////////////////////////////////
; 750  : 		case TARGET_ACQUISITION_SYSTEM_DVO:
; 751  : 		////////////////////////////////////////
; 752  : 		{
; 753  : 			break;
; 754  : 		}
; 755  : 		////////////////////////////////////////
; 756  : 		case TARGET_ACQUISITION_SYSTEM_IHADSS:
; 757  : 		////////////////////////////////////////
; 758  : 		{
; 759  : 			break;
; 760  : 		}
; 761  : 	}
; 762  : }

  0003d	5f		 pop	 edi
  0003e	5e		 pop	 esi
  0003f	5b		 pop	 ebx
  00040	8b e5		 mov	 esp, ebp
  00042	5d		 pop	 ebp
  00043	c3		 ret	 0
?toggle_apache_auto_target@@YGXXZ ENDP			; toggle_apache_auto_target
_TEXT	ENDS
; Function compile flags: /Odtp /ZI
; File c:\users\nhv90\projects\eech\aphavoc\source\gunships\avionics\apache\ap_tgt.c
;	COMDAT ?toggle_apache_show_allied_targets@@YGXXZ
_TEXT	SEGMENT
tv64 = -68						; size = 4
?toggle_apache_show_allied_targets@@YGXXZ PROC		; toggle_apache_show_allied_targets, COMDAT

; 657  : {

  00000	55		 push	 ebp
  00001	8b ec		 mov	 ebp, esp
  00003	83 ec 44	 sub	 esp, 68			; 00000044H
  00006	53		 push	 ebx
  00007	56		 push	 esi
  00008	57		 push	 edi

; 658  : 	switch (target_acquisition_system)

  00009	a1 00 00 00 00	 mov	 eax, DWORD PTR ?target_acquisition_system@@3W4TARGET_ACQUISITION_SYSTEMS@@A ; target_acquisition_system
  0000e	89 45 bc	 mov	 DWORD PTR tv64[ebp], eax
  00011	83 7d bc 02	 cmp	 DWORD PTR tv64[ebp], 2
  00015	74 06		 je	 SHORT $LN6@toggle_apa
  00017	eb 11		 jmp	 SHORT $LN1@toggle_apa

; 659  : 	{
; 660  : 		////////////////////////////////////////
; 661  : 		case TARGET_ACQUISITION_SYSTEM_OFF:
; 662  : 		////////////////////////////////////////
; 663  : 		{
; 664  : 			break;

  00019	eb 0f		 jmp	 SHORT $LN1@toggle_apa

; 665  : 		}
; 666  : 		////////////////////////////////////////
; 667  : 		case TARGET_ACQUISITION_SYSTEM_GROUND_RADAR:
; 668  : 		////////////////////////////////////////
; 669  : 		{
; 670  : 			break;

  0001b	eb 0d		 jmp	 SHORT $LN1@toggle_apa
$LN6@toggle_apa:

; 671  : 		}
; 672  : 		////////////////////////////////////////
; 673  : 		case TARGET_ACQUISITION_SYSTEM_AIR_RADAR:
; 674  : 		////////////////////////////////////////
; 675  : 		{
; 676  : 			air_radar.show_allied_targets ^= 1;

  0001d	a1 1c 00 00 00	 mov	 eax, DWORD PTR ?air_radar@@3URADAR_PARAMS@@A+28
  00022	83 f0 01	 xor	 eax, 1
  00025	a3 1c 00 00 00	 mov	 DWORD PTR ?air_radar@@3URADAR_PARAMS@@A+28, eax
$LN1@toggle_apa:

; 677  : 
; 678  : 			break;
; 679  : 		}
; 680  : 		////////////////////////////////////////
; 681  : 		case TARGET_ACQUISITION_SYSTEM_FLIR:
; 682  : 		////////////////////////////////////////
; 683  : 		{
; 684  : 			break;
; 685  : 		}
; 686  : 		////////////////////////////////////////
; 687  : 		case TARGET_ACQUISITION_SYSTEM_DTV:
; 688  : 		////////////////////////////////////////
; 689  : 		{
; 690  : 			break;
; 691  : 		}
; 692  : 		////////////////////////////////////////
; 693  : 		case TARGET_ACQUISITION_SYSTEM_DVO:
; 694  : 		////////////////////////////////////////
; 695  : 		{
; 696  : 			break;
; 697  : 		}
; 698  : 		////////////////////////////////////////
; 699  : 		case TARGET_ACQUISITION_SYSTEM_IHADSS:
; 700  : 		////////////////////////////////////////
; 701  : 		{
; 702  : 			break;
; 703  : 		}
; 704  : 	}
; 705  : }

  0002a	5f		 pop	 edi
  0002b	5e		 pop	 esi
  0002c	5b		 pop	 ebx
  0002d	8b e5		 mov	 esp, ebp
  0002f	5d		 pop	 ebp
  00030	c3		 ret	 0
?toggle_apache_show_allied_targets@@YGXXZ ENDP		; toggle_apache_show_allied_targets
_TEXT	ENDS
; Function compile flags: /Odtp /ZI
; File c:\users\nhv90\projects\eech\aphavoc\source\gunships\avionics\apache\ap_tgt.c
;	COMDAT ?centre_apache_target_acquisition_system@@YGXXZ
_TEXT	SEGMENT
tv64 = -68						; size = 4
?centre_apache_target_acquisition_system@@YGXXZ PROC	; centre_apache_target_acquisition_system, COMDAT

; 594  : {

  00000	55		 push	 ebp
  00001	8b ec		 mov	 ebp, esp
  00003	83 ec 44	 sub	 esp, 68			; 00000044H
  00006	53		 push	 ebx
  00007	56		 push	 esi
  00008	57		 push	 edi

; 595  : 	switch (target_acquisition_system)

  00009	a1 00 00 00 00	 mov	 eax, DWORD PTR ?target_acquisition_system@@3W4TARGET_ACQUISITION_SYSTEMS@@A ; target_acquisition_system
  0000e	89 45 bc	 mov	 DWORD PTR tv64[ebp], eax
  00011	8b 4d bc	 mov	 ecx, DWORD PTR tv64[ebp]
  00014	83 e9 01	 sub	 ecx, 1
  00017	89 4d bc	 mov	 DWORD PTR tv64[ebp], ecx
  0001a	83 7d bc 04	 cmp	 DWORD PTR tv64[ebp], 4
  0001e	77 2d		 ja	 SHORT $LN1@centre_apa
  00020	8b 55 bc	 mov	 edx, DWORD PTR tv64[ebp]
  00023	ff 24 95 00 00
	00 00		 jmp	 DWORD PTR $LN12@centre_apa[edx*4]

; 596  : 	{
; 597  : 		////////////////////////////////////////
; 598  : 		case TARGET_ACQUISITION_SYSTEM_OFF:
; 599  : 		////////////////////////////////////////
; 600  : 		{
; 601  : 			break;

  0002a	eb 21		 jmp	 SHORT $LN1@centre_apa
$LN5@centre_apa:

; 602  : 		}
; 603  : 		////////////////////////////////////////
; 604  : 		case TARGET_ACQUISITION_SYSTEM_GROUND_RADAR:
; 605  : 		////////////////////////////////////////
; 606  : 		{
; 607  : 			centre_apache_ground_radar ();

  0002c	e8 00 00 00 00	 call	 ?centre_apache_ground_radar@@YGXXZ ; centre_apache_ground_radar

; 608  : 
; 609  : 			break;

  00031	eb 1a		 jmp	 SHORT $LN1@centre_apa
$LN6@centre_apa:

; 610  : 		}
; 611  : 		////////////////////////////////////////
; 612  : 		case TARGET_ACQUISITION_SYSTEM_AIR_RADAR:
; 613  : 		////////////////////////////////////////
; 614  : 		{
; 615  : 			centre_apache_air_radar ();

  00033	e8 00 00 00 00	 call	 ?centre_apache_air_radar@@YGXXZ ; centre_apache_air_radar

; 616  : 
; 617  : 			break;

  00038	eb 13		 jmp	 SHORT $LN1@centre_apa
$LN7@centre_apa:

; 618  : 		}
; 619  : 		////////////////////////////////////////
; 620  : 		case TARGET_ACQUISITION_SYSTEM_FLIR:
; 621  : 		////////////////////////////////////////
; 622  : 		{
; 623  : 			centre_apache_eo ();

  0003a	e8 00 00 00 00	 call	 ?centre_apache_eo@@YGXXZ ; centre_apache_eo

; 624  : 
; 625  : 			break;

  0003f	eb 0c		 jmp	 SHORT $LN1@centre_apa
$LN8@centre_apa:

; 626  : 		}
; 627  : 		////////////////////////////////////////
; 628  : 		case TARGET_ACQUISITION_SYSTEM_DTV:
; 629  : 		////////////////////////////////////////
; 630  : 		{
; 631  : 			centre_apache_eo ();

  00041	e8 00 00 00 00	 call	 ?centre_apache_eo@@YGXXZ ; centre_apache_eo

; 632  : 
; 633  : 			break;

  00046	eb 05		 jmp	 SHORT $LN1@centre_apa
$LN9@centre_apa:

; 634  : 		}
; 635  : 		////////////////////////////////////////
; 636  : 		case TARGET_ACQUISITION_SYSTEM_DVO:
; 637  : 		////////////////////////////////////////
; 638  : 		{
; 639  : 			centre_apache_eo ();

  00048	e8 00 00 00 00	 call	 ?centre_apache_eo@@YGXXZ ; centre_apache_eo
$LN1@centre_apa:

; 640  : 
; 641  : 			break;
; 642  : 		}
; 643  : 		////////////////////////////////////////
; 644  : 		case TARGET_ACQUISITION_SYSTEM_IHADSS:
; 645  : 		////////////////////////////////////////
; 646  : 		{
; 647  : 			break;
; 648  : 		}
; 649  : 	}
; 650  : }

  0004d	5f		 pop	 edi
  0004e	5e		 pop	 esi
  0004f	5b		 pop	 ebx
  00050	8b e5		 mov	 esp, ebp
  00052	5d		 pop	 ebp
  00053	c3		 ret	 0
$LN12@centre_apa:
  00054	00 00 00 00	 DD	 $LN5@centre_apa
  00058	00 00 00 00	 DD	 $LN6@centre_apa
  0005c	00 00 00 00	 DD	 $LN7@centre_apa
  00060	00 00 00 00	 DD	 $LN8@centre_apa
  00064	00 00 00 00	 DD	 $LN9@centre_apa
?centre_apache_target_acquisition_system@@YGXXZ ENDP	; centre_apache_target_acquisition_system
_TEXT	ENDS
; Function compile flags: /Odtp /ZI
; File c:\users\nhv90\projects\eech\aphavoc\source\gunships\avionics\apache\ap_tgt.c
;	COMDAT ?update_apache_target_acquisition_system@@YGXXZ
_TEXT	SEGMENT
tv283 = -92						; size = 4
tv262 = -92						; size = 4
tv243 = -92						; size = 4
tv219 = -92						; size = 4
tv198 = -92						; size = 4
tv172 = -92						; size = 4
tv151 = -92						; size = 4
tv95 = -92						; size = 4
tv275 = -88						; size = 4
tv255 = -88						; size = 4
tv235 = -88						; size = 4
tv228 = -88						; size = 4
tv211 = -88						; size = 4
tv191 = -88						; size = 4
tv185 = -88						; size = 4
tv164 = -88						; size = 4
tv144 = -88						; size = 4
tv87 = -88						; size = 4
tv69 = -88						; size = 4
_los_to_target$1 = -20					; size = 4
_laser_on$2 = -16					; size = 4
_radar_on$3 = -12					; size = 4
_target$4 = -8						; size = 4
_source$5 = -4						; size = 4
?update_apache_target_acquisition_system@@YGXXZ PROC	; update_apache_target_acquisition_system, COMDAT

; 390  : {

  00000	55		 push	 ebp
  00001	8b ec		 mov	 ebp, esp
  00003	83 ec 5c	 sub	 esp, 92			; 0000005cH
  00006	53		 push	 ebx
  00007	56		 push	 esi
  00008	57		 push	 edi

; 391  : 	if (ground_radar_is_active())

  00009	e8 00 00 00 00	 call	 ?ground_radar_is_active@@YGHXZ ; ground_radar_is_active
  0000e	85 c0		 test	 eax, eax
  00010	74 09		 je	 SHORT $LN6@update_apa

; 392  : 		update_common_ground_radar(FALSE);

  00012	6a 00		 push	 0
  00014	e8 00 00 00 00	 call	 ?update_common_ground_radar@@YGXH@Z ; update_common_ground_radar
  00019	eb 0e		 jmp	 SHORT $LN7@update_apa
$LN6@update_apa:

; 393  : 	else if (air_radar_is_active())

  0001b	e8 00 00 00 00	 call	 ?air_radar_is_active@@YGHXZ ; air_radar_is_active
  00020	85 c0		 test	 eax, eax
  00022	74 05		 je	 SHORT $LN7@update_apa

; 394  : 		update_common_air_radar();

  00024	e8 00 00 00 00	 call	 ?update_common_air_radar@@YGXXZ ; update_common_air_radar
$LN7@update_apa:

; 395  : 	
; 396  : 	switch (target_acquisition_system)

  00029	a1 00 00 00 00	 mov	 eax, DWORD PTR ?target_acquisition_system@@3W4TARGET_ACQUISITION_SYSTEMS@@A ; target_acquisition_system
  0002e	89 45 a8	 mov	 DWORD PTR tv69[ebp], eax
  00031	83 7d a8 08	 cmp	 DWORD PTR tv69[ebp], 8
  00035	0f 87 bd 00 00
	00		 ja	 $LN2@update_apa
  0003b	8b 4d a8	 mov	 ecx, DWORD PTR tv69[ebp]
  0003e	ff 24 8d 00 00
	00 00		 jmp	 DWORD PTR $LN63@update_apa[ecx*4]
$LN9@update_apa:

; 397  : 	{
; 398  : 		////////////////////////////////////////
; 399  : 		case TARGET_ACQUISITION_SYSTEM_OFF:
; 400  : 		////////////////////////////////////////
; 401  : 		{
; 402  : 			target_locked = FALSE;

  00045	c7 05 00 00 00
	00 00 00 00 00	 mov	 DWORD PTR ?target_locked@@3HA, 0 ; target_locked

; 403  : 
; 404  : 			update_weapon_lock_type (TARGET_ACQUISITION_SYSTEM_OFF);

  0004f	6a 00		 push	 0
  00051	e8 00 00 00 00	 call	 ?update_weapon_lock_type@@YGXW4TARGET_ACQUISITION_SYSTEMS@@@Z ; update_weapon_lock_type

; 405  : 
; 406  : 			slave_common_eo_to_current_target ();

  00056	e8 00 00 00 00	 call	 ?slave_common_eo_to_current_target@@YGXXZ ; slave_common_eo_to_current_target

; 407  : 
; 408  : 			slave_apache_eo_to_current_target ();

  0005b	e8 00 00 00 00	 call	 ?slave_apache_eo_to_current_target@@YGXXZ ; slave_apache_eo_to_current_target

; 409  : 
; 410  : 			break;

  00060	e9 93 00 00 00	 jmp	 $LN2@update_apa
$LN10@update_apa:

; 411  : 		}
; 412  : 		////////////////////////////////////////
; 413  : 		case TARGET_ACQUISITION_SYSTEM_GROUND_RADAR:
; 414  : 		////////////////////////////////////////
; 415  : 		{
; 416  : 			update_apache_ground_radar ();  // this only updates scan zones etc, only need to do it when radar is active

  00065	e8 00 00 00 00	 call	 ?update_apache_ground_radar@@YGXXZ ; update_apache_ground_radar

; 417  : 
; 418  : 			update_weapon_lock_type (TARGET_ACQUISITION_SYSTEM_GROUND_RADAR);

  0006a	6a 01		 push	 1
  0006c	e8 00 00 00 00	 call	 ?update_weapon_lock_type@@YGXW4TARGET_ACQUISITION_SYSTEMS@@@Z ; update_weapon_lock_type

; 419  : 
; 420  : 			slave_common_eo_to_current_target ();

  00071	e8 00 00 00 00	 call	 ?slave_common_eo_to_current_target@@YGXXZ ; slave_common_eo_to_current_target

; 421  : 
; 422  : 			slave_apache_eo_to_current_target ();

  00076	e8 00 00 00 00	 call	 ?slave_apache_eo_to_current_target@@YGXXZ ; slave_apache_eo_to_current_target

; 423  : 
; 424  : 			break;

  0007b	eb 7b		 jmp	 SHORT $LN2@update_apa
$LN11@update_apa:

; 425  : 		}
; 426  : 		////////////////////////////////////////
; 427  : 		case TARGET_ACQUISITION_SYSTEM_AIR_RADAR:
; 428  : 		////////////////////////////////////////
; 429  : 		{
; 430  : 			update_apache_air_radar ();

  0007d	e8 00 00 00 00	 call	 ?update_apache_air_radar@@YGXXZ ; update_apache_air_radar

; 431  : 
; 432  : 			update_weapon_lock_type (TARGET_ACQUISITION_SYSTEM_AIR_RADAR);

  00082	6a 02		 push	 2
  00084	e8 00 00 00 00	 call	 ?update_weapon_lock_type@@YGXW4TARGET_ACQUISITION_SYSTEMS@@@Z ; update_weapon_lock_type

; 433  : 
; 434  : 			slave_common_eo_to_current_target ();

  00089	e8 00 00 00 00	 call	 ?slave_common_eo_to_current_target@@YGXXZ ; slave_common_eo_to_current_target

; 435  : 
; 436  : 			slave_apache_eo_to_current_target ();

  0008e	e8 00 00 00 00	 call	 ?slave_apache_eo_to_current_target@@YGXXZ ; slave_apache_eo_to_current_target

; 437  : 
; 438  : 			break;

  00093	eb 63		 jmp	 SHORT $LN2@update_apa
$LN12@update_apa:

; 439  : 		}
; 440  : 		////////////////////////////////////////
; 441  : 		case TARGET_ACQUISITION_SYSTEM_FLIR:
; 442  : 		////////////////////////////////////////
; 443  : 		{
; 444  : 			update_apache_eo (&apache_flir);

  00095	68 00 00 00 00	 push	 OFFSET ?apache_flir@@3UEO_PARAMS@@A ; apache_flir
  0009a	e8 00 00 00 00	 call	 ?update_apache_eo@@YGXPAUEO_PARAMS@@@Z ; update_apache_eo

; 445  : 
; 446  : 			update_common_eo ();

  0009f	e8 00 00 00 00	 call	 ?update_common_eo@@YGXXZ ; update_common_eo

; 447  : 
; 448  : 			update_weapon_lock_type (TARGET_ACQUISITION_SYSTEM_FLIR);

  000a4	6a 03		 push	 3
  000a6	e8 00 00 00 00	 call	 ?update_weapon_lock_type@@YGXW4TARGET_ACQUISITION_SYSTEMS@@@Z ; update_weapon_lock_type

; 449  : 
; 450  : 			break;

  000ab	eb 4b		 jmp	 SHORT $LN2@update_apa
$LN13@update_apa:

; 451  : 		}
; 452  : 		////////////////////////////////////////
; 453  : 		case TARGET_ACQUISITION_SYSTEM_DTV:
; 454  : 		////////////////////////////////////////
; 455  : 		{
; 456  : 			update_apache_eo (&apache_dtv);

  000ad	68 00 00 00 00	 push	 OFFSET ?apache_dtv@@3UEO_PARAMS@@A ; apache_dtv
  000b2	e8 00 00 00 00	 call	 ?update_apache_eo@@YGXPAUEO_PARAMS@@@Z ; update_apache_eo

; 457  : 
; 458  : 			update_common_eo ();

  000b7	e8 00 00 00 00	 call	 ?update_common_eo@@YGXXZ ; update_common_eo

; 459  : 
; 460  : 			update_weapon_lock_type (TARGET_ACQUISITION_SYSTEM_DTV);

  000bc	6a 04		 push	 4
  000be	e8 00 00 00 00	 call	 ?update_weapon_lock_type@@YGXW4TARGET_ACQUISITION_SYSTEMS@@@Z ; update_weapon_lock_type

; 461  : 
; 462  : 			break;

  000c3	eb 33		 jmp	 SHORT $LN2@update_apa
$LN14@update_apa:

; 463  : 		}
; 464  : 		////////////////////////////////////////
; 465  : 		case TARGET_ACQUISITION_SYSTEM_DVO:
; 466  : 		////////////////////////////////////////
; 467  : 		{
; 468  : 			update_apache_eo (&apache_dvo);

  000c5	68 00 00 00 00	 push	 OFFSET ?apache_dvo@@3UEO_PARAMS@@A ; apache_dvo
  000ca	e8 00 00 00 00	 call	 ?update_apache_eo@@YGXPAUEO_PARAMS@@@Z ; update_apache_eo

; 469  : 
; 470  : 			update_common_eo ();

  000cf	e8 00 00 00 00	 call	 ?update_common_eo@@YGXXZ ; update_common_eo

; 471  : 
; 472  : 			update_weapon_lock_type (TARGET_ACQUISITION_SYSTEM_DVO);

  000d4	6a 05		 push	 5
  000d6	e8 00 00 00 00	 call	 ?update_weapon_lock_type@@YGXW4TARGET_ACQUISITION_SYSTEMS@@@Z ; update_weapon_lock_type

; 473  : 
; 474  : 			break;

  000db	eb 1b		 jmp	 SHORT $LN2@update_apa
$LN15@update_apa:

; 475  : 		}
; 476  : 		////////////////////////////////////////
; 477  : 		case TARGET_ACQUISITION_SYSTEM_IHADSS:
; 478  : 		////////////////////////////////////////
; 479  : 		{
; 480  : 			update_apache_hms ();

  000dd	e8 00 00 00 00	 call	 ?update_apache_hms@@YGXXZ ; update_apache_hms

; 481  : 
; 482  : 			update_common_hms ();

  000e2	e8 00 00 00 00	 call	 ?update_common_hms@@YGXXZ ; update_common_hms

; 483  : 
; 484  : 			update_weapon_lock_type (TARGET_ACQUISITION_SYSTEM_IHADSS);

  000e7	6a 08		 push	 8
  000e9	e8 00 00 00 00	 call	 ?update_weapon_lock_type@@YGXW4TARGET_ACQUISITION_SYSTEMS@@@Z ; update_weapon_lock_type

; 485  : 
; 486  : 			slave_common_eo_to_current_target ();

  000ee	e8 00 00 00 00	 call	 ?slave_common_eo_to_current_target@@YGXXZ ; slave_common_eo_to_current_target

; 487  : 
; 488  : 			slave_apache_eo_to_current_target ();

  000f3	e8 00 00 00 00	 call	 ?slave_apache_eo_to_current_target@@YGXXZ ; slave_apache_eo_to_current_target
$LN2@update_apa:

; 489  : 
; 490  : 			break;
; 491  : 		}
; 492  : 	}
; 493  : 
; 494  : 	////////////////////////////////////////
; 495  : 	//
; 496  : 	// radar / laser / los to target
; 497  : 	//
; 498  : 	////////////////////////////////////////
; 499  : 
; 500  : 	{
; 501  : 		entity
; 502  : 			*source,
; 503  : 			*target;
; 504  : 
; 505  : 		int
; 506  : 			radar_on,
; 507  : 			laser_on,
; 508  : 			los_to_target;
; 509  : 
; 510  : 		source = get_gunship_entity ();

  000f8	a1 00 00 00 00	 mov	 eax, DWORD PTR ?gunship_entity@@3PAUENTITY@@A ; gunship_entity
  000fd	89 45 fc	 mov	 DWORD PTR _source$5[ebp], eax

; 511  : 
; 512  : 		target = get_local_entity_parent (source, LIST_TYPE_TARGET);

  00100	83 7d fc 00	 cmp	 DWORD PTR _source$5[ebp], 0
  00104	74 0a		 je	 SHORT $LN29@update_apa
  00106	8b 45 fc	 mov	 eax, DWORD PTR _source$5[ebp]
  00109	8b 08		 mov	 ecx, DWORD PTR [eax]
  0010b	89 4d a8	 mov	 DWORD PTR tv87[ebp], ecx
  0010e	eb 21		 jmp	 SHORT $LN30@update_apa
$LN29@update_apa:
  00110	8b 15 00 00 00
	00		 mov	 edx, DWORD PTR ?__LINE__Var@?0??update_apache_target_acquisition_system@@YGXXZ@4JA
  00116	83 c2 7a	 add	 edx, 122		; 0000007aH
  00119	52		 push	 edx
  0011a	68 00 00 00 00	 push	 OFFSET ??_C@_0EO@CIFDMJHG@c?3?2users?2nhv90?2projects?2eech?2ap@
  0011f	a1 00 00 00 00	 mov	 eax, DWORD PTR ?null_entity_pointer_message@@3PBDB ; null_entity_pointer_message
  00124	50		 push	 eax
  00125	e8 00 00 00 00	 call	 ?process_assert@@YGXPBD0H@Z ; process_assert
  0012a	c7 45 a8 00 00
	00 00		 mov	 DWORD PTR tv87[ebp], 0
$LN30@update_apa:
  00131	b9 01 00 00 00	 mov	 ecx, 1
  00136	85 c9		 test	 ecx, ecx
  00138	74 09		 je	 SHORT $LN31@update_apa
  0013a	c7 45 a4 26 00
	00 00		 mov	 DWORD PTR tv95[ebp], 38	; 00000026H
  00141	eb 21		 jmp	 SHORT $LN32@update_apa
$LN31@update_apa:
  00143	8b 15 00 00 00
	00		 mov	 edx, DWORD PTR ?__LINE__Var@?0??update_apache_target_acquisition_system@@YGXXZ@4JA
  00149	83 c2 7a	 add	 edx, 122		; 0000007aH
  0014c	52		 push	 edx
  0014d	68 00 00 00 00	 push	 OFFSET ??_C@_0EO@CIFDMJHG@c?3?2users?2nhv90?2projects?2eech?2ap@
  00152	a1 00 00 00 00	 mov	 eax, DWORD PTR ?overload_invalid_list_type_message@@3PBDB ; overload_invalid_list_type_message
  00157	50		 push	 eax
  00158	e8 00 00 00 00	 call	 ?process_assert@@YGXPBD0H@Z ; process_assert
  0015d	c7 45 a4 00 00
	00 00		 mov	 DWORD PTR tv95[ebp], 0
$LN32@update_apa:
  00164	6a 26		 push	 38			; 00000026H
  00166	8b 4d fc	 mov	 ecx, DWORD PTR _source$5[ebp]
  00169	51		 push	 ecx
  0016a	69 55 a8 b4 00
	00 00		 imul	 edx, DWORD PTR tv87[ebp], 180
  00171	8b 45 a4	 mov	 eax, DWORD PTR tv95[ebp]
  00174	8b 8c 82 00 00
	00 00		 mov	 ecx, DWORD PTR ?fn_get_local_entity_parent@@3PAY0CN@P6GPAUENTITY@@PAU1@W4LIST_TYPES@@@ZA[edx+eax*4]
  0017b	ff d1		 call	 ecx
  0017d	89 45 f8	 mov	 DWORD PTR _target$4[ebp], eax

; 513  : 
; 514  : 		//
; 515  : 		// radar on/off
; 516  : 		//
; 517  : 
; 518  : 		radar_on = FALSE;

  00180	c7 45 f4 00 00
	00 00		 mov	 DWORD PTR _radar_on$3[ebp], 0

; 519  : 
; 520  : 		if (ground_radar_is_active() && ground_radar.sweep_mode != RADAR_SWEEP_MODE_SINGLE_INACTIVE)

  00187	e8 00 00 00 00	 call	 ?ground_radar_is_active@@YGHXZ ; ground_radar_is_active
  0018c	85 c0		 test	 eax, eax
  0018e	74 12		 je	 SHORT $LN16@update_apa
  00190	83 3d 28 00 00
	00 01		 cmp	 DWORD PTR ?ground_radar@@3URADAR_PARAMS@@A+40, 1
  00197	74 09		 je	 SHORT $LN16@update_apa

; 521  : 			radar_on = TRUE;

  00199	c7 45 f4 01 00
	00 00		 mov	 DWORD PTR _radar_on$3[ebp], 1
  001a0	eb 19		 jmp	 SHORT $LN17@update_apa
$LN16@update_apa:

; 522  : 
; 523  : 		else if (air_radar_is_active() && air_radar.sweep_mode != RADAR_SWEEP_MODE_SINGLE_INACTIVE)

  001a2	e8 00 00 00 00	 call	 ?air_radar_is_active@@YGHXZ ; air_radar_is_active
  001a7	85 c0		 test	 eax, eax
  001a9	74 10		 je	 SHORT $LN17@update_apa
  001ab	83 3d 28 00 00
	00 01		 cmp	 DWORD PTR ?air_radar@@3URADAR_PARAMS@@A+40, 1
  001b2	74 07		 je	 SHORT $LN17@update_apa

; 524  : 			radar_on = TRUE;

  001b4	c7 45 f4 01 00
	00 00		 mov	 DWORD PTR _radar_on$3[ebp], 1
$LN17@update_apa:

; 525  : 
; 526  : 		if (radar_on != get_local_entity_int_value (source, INT_TYPE_RADAR_ON))

  001bb	83 7d fc 00	 cmp	 DWORD PTR _source$5[ebp], 0
  001bf	74 0a		 je	 SHORT $LN33@update_apa
  001c1	8b 45 fc	 mov	 eax, DWORD PTR _source$5[ebp]
  001c4	8b 08		 mov	 ecx, DWORD PTR [eax]
  001c6	89 4d a8	 mov	 DWORD PTR tv144[ebp], ecx
  001c9	eb 1d		 jmp	 SHORT $LN34@update_apa
$LN33@update_apa:
  001cb	68 0e 02 00 00	 push	 526			; 0000020eH
  001d0	68 00 00 00 00	 push	 OFFSET ??_C@_0EO@CIFDMJHG@c?3?2users?2nhv90?2projects?2eech?2ap@
  001d5	8b 15 00 00 00
	00		 mov	 edx, DWORD PTR ?null_entity_pointer_message@@3PBDB ; null_entity_pointer_message
  001db	52		 push	 edx
  001dc	e8 00 00 00 00	 call	 ?process_assert@@YGXPBD0H@Z ; process_assert
  001e1	c7 45 a8 00 00
	00 00		 mov	 DWORD PTR tv144[ebp], 0
$LN34@update_apa:
  001e8	b8 01 00 00 00	 mov	 eax, 1
  001ed	85 c0		 test	 eax, eax
  001ef	74 09		 je	 SHORT $LN35@update_apa
  001f1	c7 45 a4 a9 00
	00 00		 mov	 DWORD PTR tv151[ebp], 169 ; 000000a9H
  001f8	eb 1d		 jmp	 SHORT $LN36@update_apa
$LN35@update_apa:
  001fa	68 0e 02 00 00	 push	 526			; 0000020eH
  001ff	68 00 00 00 00	 push	 OFFSET ??_C@_0EO@CIFDMJHG@c?3?2users?2nhv90?2projects?2eech?2ap@
  00204	8b 0d 00 00 00
	00		 mov	 ecx, DWORD PTR ?overload_invalid_int_type_message@@3PBDB ; overload_invalid_int_type_message
  0020a	51		 push	 ecx
  0020b	e8 00 00 00 00	 call	 ?process_assert@@YGXPBD0H@Z ; process_assert
  00210	c7 45 a4 00 00
	00 00		 mov	 DWORD PTR tv151[ebp], 0
$LN36@update_apa:
  00217	68 a9 00 00 00	 push	 169			; 000000a9H
  0021c	8b 55 fc	 mov	 edx, DWORD PTR _source$5[ebp]
  0021f	52		 push	 edx
  00220	69 45 a8 5c 04
	00 00		 imul	 eax, DWORD PTR tv144[ebp], 1116
  00227	8b 4d a4	 mov	 ecx, DWORD PTR tv151[ebp]
  0022a	8b 94 88 00 00
	00 00		 mov	 edx, DWORD PTR ?fn_get_local_entity_int_value@@3PAY0BBH@P6GHPAUENTITY@@W4INT_TYPES@@@ZA[eax+ecx*4]
  00231	ff d2		 call	 edx
  00233	39 45 f4	 cmp	 DWORD PTR _radar_on$3[ebp], eax
  00236	0f 84 92 00 00
	00		 je	 $LN19@update_apa

; 527  : 			set_client_server_entity_int_value (source, INT_TYPE_RADAR_ON, radar_on);

  0023c	83 7d fc 00	 cmp	 DWORD PTR _source$5[ebp], 0
  00240	74 0a		 je	 SHORT $LN37@update_apa
  00242	8b 45 fc	 mov	 eax, DWORD PTR _source$5[ebp]
  00245	8b 08		 mov	 ecx, DWORD PTR [eax]
  00247	89 4d a8	 mov	 DWORD PTR tv164[ebp], ecx
  0024a	eb 24		 jmp	 SHORT $LN38@update_apa
$LN37@update_apa:
  0024c	8b 15 00 00 00
	00		 mov	 edx, DWORD PTR ?__LINE__Var@?0??update_apache_target_acquisition_system@@YGXXZ@4JA
  00252	81 c2 89 00 00
	00		 add	 edx, 137		; 00000089H
  00258	52		 push	 edx
  00259	68 00 00 00 00	 push	 OFFSET ??_C@_0EO@CIFDMJHG@c?3?2users?2nhv90?2projects?2eech?2ap@
  0025e	a1 00 00 00 00	 mov	 eax, DWORD PTR ?null_entity_pointer_message@@3PBDB ; null_entity_pointer_message
  00263	50		 push	 eax
  00264	e8 00 00 00 00	 call	 ?process_assert@@YGXPBD0H@Z ; process_assert
  00269	c7 45 a8 00 00
	00 00		 mov	 DWORD PTR tv164[ebp], 0
$LN38@update_apa:
  00270	b9 01 00 00 00	 mov	 ecx, 1
  00275	85 c9		 test	 ecx, ecx
  00277	74 09		 je	 SHORT $LN39@update_apa
  00279	c7 45 a4 a9 00
	00 00		 mov	 DWORD PTR tv172[ebp], 169 ; 000000a9H
  00280	eb 24		 jmp	 SHORT $LN40@update_apa
$LN39@update_apa:
  00282	8b 15 00 00 00
	00		 mov	 edx, DWORD PTR ?__LINE__Var@?0??update_apache_target_acquisition_system@@YGXXZ@4JA
  00288	81 c2 89 00 00
	00		 add	 edx, 137		; 00000089H
  0028e	52		 push	 edx
  0028f	68 00 00 00 00	 push	 OFFSET ??_C@_0EO@CIFDMJHG@c?3?2users?2nhv90?2projects?2eech?2ap@
  00294	a1 00 00 00 00	 mov	 eax, DWORD PTR ?overload_invalid_int_type_message@@3PBDB ; overload_invalid_int_type_message
  00299	50		 push	 eax
  0029a	e8 00 00 00 00	 call	 ?process_assert@@YGXPBD0H@Z ; process_assert
  0029f	c7 45 a4 00 00
	00 00		 mov	 DWORD PTR tv172[ebp], 0
$LN40@update_apa:
  002a6	8b 4d f4	 mov	 ecx, DWORD PTR _radar_on$3[ebp]
  002a9	51		 push	 ecx
  002aa	68 a9 00 00 00	 push	 169			; 000000a9H
  002af	8b 55 fc	 mov	 edx, DWORD PTR _source$5[ebp]
  002b2	52		 push	 edx
  002b3	69 45 a8 b8 08
	00 00		 imul	 eax, DWORD PTR tv164[ebp], 2232
  002ba	8b 4d a4	 mov	 ecx, DWORD PTR tv172[ebp]
  002bd	8d 94 c8 00 00
	00 00		 lea	 edx, DWORD PTR ?fn_set_client_server_entity_int_value@@3PAY1BBH@1P6GXPAUENTITY@@W4INT_TYPES@@H@ZA[eax+ecx*8]
  002c4	a1 00 00 00 00	 mov	 eax, DWORD PTR ?system_comms_model@@3W4COMMS_MODEL_TYPES@@A ; system_comms_model
  002c9	8b 0c 82	 mov	 ecx, DWORD PTR [edx+eax*4]
  002cc	ff d1		 call	 ecx
$LN19@update_apa:

; 528  : 
; 529  : 		//
; 530  : 		// laser on/off
; 531  : 		//
; 532  : 
; 533  : 		laser_on = laser_is_active() && !apache_damage.laser_designator;

  002ce	e8 00 00 00 00	 call	 ?laser_is_active@@YGHXZ	; laser_is_active
  002d3	85 c0		 test	 eax, eax
  002d5	74 16		 je	 SHORT $LN41@update_apa
  002d7	a1 00 00 00 00	 mov	 eax, DWORD PTR ?apache_damage@@3TAPACHE_DAMAGE_FLAGS@@A ; apache_damage
  002dc	c1 e8 06	 shr	 eax, 6
  002df	83 e0 01	 and	 eax, 1
  002e2	75 09		 jne	 SHORT $LN41@update_apa
  002e4	c7 45 a8 01 00
	00 00		 mov	 DWORD PTR tv185[ebp], 1
  002eb	eb 07		 jmp	 SHORT $LN42@update_apa
$LN41@update_apa:
  002ed	c7 45 a8 00 00
	00 00		 mov	 DWORD PTR tv185[ebp], 0
$LN42@update_apa:
  002f4	8b 4d a8	 mov	 ecx, DWORD PTR tv185[ebp]
  002f7	89 4d f0	 mov	 DWORD PTR _laser_on$2[ebp], ecx

; 534  : 
; 535  : 		if (laser_on != get_local_entity_int_value (source, INT_TYPE_LASER_ON))

  002fa	83 7d fc 00	 cmp	 DWORD PTR _source$5[ebp], 0
  002fe	74 0a		 je	 SHORT $LN43@update_apa
  00300	8b 45 fc	 mov	 eax, DWORD PTR _source$5[ebp]
  00303	8b 08		 mov	 ecx, DWORD PTR [eax]
  00305	89 4d a8	 mov	 DWORD PTR tv191[ebp], ecx
  00308	eb 1d		 jmp	 SHORT $LN44@update_apa
$LN43@update_apa:
  0030a	68 17 02 00 00	 push	 535			; 00000217H
  0030f	68 00 00 00 00	 push	 OFFSET ??_C@_0EO@CIFDMJHG@c?3?2users?2nhv90?2projects?2eech?2ap@
  00314	8b 15 00 00 00
	00		 mov	 edx, DWORD PTR ?null_entity_pointer_message@@3PBDB ; null_entity_pointer_message
  0031a	52		 push	 edx
  0031b	e8 00 00 00 00	 call	 ?process_assert@@YGXPBD0H@Z ; process_assert
  00320	c7 45 a8 00 00
	00 00		 mov	 DWORD PTR tv191[ebp], 0
$LN44@update_apa:
  00327	b8 01 00 00 00	 mov	 eax, 1
  0032c	85 c0		 test	 eax, eax
  0032e	74 09		 je	 SHORT $LN45@update_apa
  00330	c7 45 a4 78 00
	00 00		 mov	 DWORD PTR tv198[ebp], 120 ; 00000078H
  00337	eb 1d		 jmp	 SHORT $LN46@update_apa
$LN45@update_apa:
  00339	68 17 02 00 00	 push	 535			; 00000217H
  0033e	68 00 00 00 00	 push	 OFFSET ??_C@_0EO@CIFDMJHG@c?3?2users?2nhv90?2projects?2eech?2ap@
  00343	8b 0d 00 00 00
	00		 mov	 ecx, DWORD PTR ?overload_invalid_int_type_message@@3PBDB ; overload_invalid_int_type_message
  00349	51		 push	 ecx
  0034a	e8 00 00 00 00	 call	 ?process_assert@@YGXPBD0H@Z ; process_assert
  0034f	c7 45 a4 00 00
	00 00		 mov	 DWORD PTR tv198[ebp], 0
$LN46@update_apa:
  00356	6a 78		 push	 120			; 00000078H
  00358	8b 55 fc	 mov	 edx, DWORD PTR _source$5[ebp]
  0035b	52		 push	 edx
  0035c	69 45 a8 5c 04
	00 00		 imul	 eax, DWORD PTR tv191[ebp], 1116
  00363	8b 4d a4	 mov	 ecx, DWORD PTR tv198[ebp]
  00366	8b 94 88 00 00
	00 00		 mov	 edx, DWORD PTR ?fn_get_local_entity_int_value@@3PAY0BBH@P6GHPAUENTITY@@W4INT_TYPES@@@ZA[eax+ecx*4]
  0036d	ff d2		 call	 edx
  0036f	39 45 f0	 cmp	 DWORD PTR _laser_on$2[ebp], eax
  00372	0f 84 8f 00 00
	00		 je	 $LN20@update_apa

; 536  : 		{
; 537  : 			set_client_server_entity_int_value (source, INT_TYPE_LASER_ON, laser_on);

  00378	83 7d fc 00	 cmp	 DWORD PTR _source$5[ebp], 0
  0037c	74 0a		 je	 SHORT $LN47@update_apa
  0037e	8b 45 fc	 mov	 eax, DWORD PTR _source$5[ebp]
  00381	8b 08		 mov	 ecx, DWORD PTR [eax]
  00383	89 4d a8	 mov	 DWORD PTR tv211[ebp], ecx
  00386	eb 24		 jmp	 SHORT $LN48@update_apa
$LN47@update_apa:
  00388	8b 15 00 00 00
	00		 mov	 edx, DWORD PTR ?__LINE__Var@?0??update_apache_target_acquisition_system@@YGXXZ@4JA
  0038e	81 c2 93 00 00
	00		 add	 edx, 147		; 00000093H
  00394	52		 push	 edx
  00395	68 00 00 00 00	 push	 OFFSET ??_C@_0EO@CIFDMJHG@c?3?2users?2nhv90?2projects?2eech?2ap@
  0039a	a1 00 00 00 00	 mov	 eax, DWORD PTR ?null_entity_pointer_message@@3PBDB ; null_entity_pointer_message
  0039f	50		 push	 eax
  003a0	e8 00 00 00 00	 call	 ?process_assert@@YGXPBD0H@Z ; process_assert
  003a5	c7 45 a8 00 00
	00 00		 mov	 DWORD PTR tv211[ebp], 0
$LN48@update_apa:
  003ac	b9 01 00 00 00	 mov	 ecx, 1
  003b1	85 c9		 test	 ecx, ecx
  003b3	74 09		 je	 SHORT $LN49@update_apa
  003b5	c7 45 a4 78 00
	00 00		 mov	 DWORD PTR tv219[ebp], 120 ; 00000078H
  003bc	eb 24		 jmp	 SHORT $LN50@update_apa
$LN49@update_apa:
  003be	8b 15 00 00 00
	00		 mov	 edx, DWORD PTR ?__LINE__Var@?0??update_apache_target_acquisition_system@@YGXXZ@4JA
  003c4	81 c2 93 00 00
	00		 add	 edx, 147		; 00000093H
  003ca	52		 push	 edx
  003cb	68 00 00 00 00	 push	 OFFSET ??_C@_0EO@CIFDMJHG@c?3?2users?2nhv90?2projects?2eech?2ap@
  003d0	a1 00 00 00 00	 mov	 eax, DWORD PTR ?overload_invalid_int_type_message@@3PBDB ; overload_invalid_int_type_message
  003d5	50		 push	 eax
  003d6	e8 00 00 00 00	 call	 ?process_assert@@YGXPBD0H@Z ; process_assert
  003db	c7 45 a4 00 00
	00 00		 mov	 DWORD PTR tv219[ebp], 0
$LN50@update_apa:
  003e2	8b 4d f0	 mov	 ecx, DWORD PTR _laser_on$2[ebp]
  003e5	51		 push	 ecx
  003e6	6a 78		 push	 120			; 00000078H
  003e8	8b 55 fc	 mov	 edx, DWORD PTR _source$5[ebp]
  003eb	52		 push	 edx
  003ec	69 45 a8 b8 08
	00 00		 imul	 eax, DWORD PTR tv211[ebp], 2232
  003f3	8b 4d a4	 mov	 ecx, DWORD PTR tv219[ebp]
  003f6	8d 94 c8 00 00
	00 00		 lea	 edx, DWORD PTR ?fn_set_client_server_entity_int_value@@3PAY1BBH@1P6GXPAUENTITY@@W4INT_TYPES@@H@ZA[eax+ecx*8]
  003fd	a1 00 00 00 00	 mov	 eax, DWORD PTR ?system_comms_model@@3W4COMMS_MODEL_TYPES@@A ; system_comms_model
  00402	8b 0c 82	 mov	 ecx, DWORD PTR [edx+eax*4]
  00405	ff d1		 call	 ecx
$LN20@update_apa:

; 538  : 		}
; 539  : 
; 540  : 		//
; 541  : 		// line of sight to target
; 542  : 		//
; 543  : 
; 544  : 		if (target)

  00407	83 7d f8 00	 cmp	 DWORD PTR _target$4[ebp], 0
  0040b	0f 84 c2 00 00
	00		 je	 $LN21@update_apa

; 545  : 		{
; 546  : 			switch (target_acquisition_system)

  00411	a1 00 00 00 00	 mov	 eax, DWORD PTR ?target_acquisition_system@@3W4TARGET_ACQUISITION_SYSTEMS@@A ; target_acquisition_system
  00416	89 45 a8	 mov	 DWORD PTR tv228[ebp], eax
  00419	83 7d a8 08	 cmp	 DWORD PTR tv228[ebp], 8
  0041d	0f 87 ae 00 00
	00		 ja	 $LN4@update_apa
  00423	8b 4d a8	 mov	 ecx, DWORD PTR tv228[ebp]
  00426	ff 24 8d 00 00
	00 00		 jmp	 DWORD PTR $LN64@update_apa[ecx*4]
$LN23@update_apa:

; 547  : 			{
; 548  : 				case TARGET_ACQUISITION_SYSTEM_OFF:
; 549  : 				{
; 550  : 					los_to_target = FALSE;

  0042d	c7 45 ec 00 00
	00 00		 mov	 DWORD PTR _los_to_target$1[ebp], 0

; 551  : 
; 552  : 					break;

  00434	e9 98 00 00 00	 jmp	 $LN4@update_apa
$LN24@update_apa:

; 553  : 				}
; 554  : 				case TARGET_ACQUISITION_SYSTEM_GROUND_RADAR:
; 555  : 				case TARGET_ACQUISITION_SYSTEM_AIR_RADAR:
; 556  : 				{
; 557  : 					los_to_target = get_local_entity_int_value (target, INT_TYPE_GUNSHIP_RADAR_LOS_CLEAR);

  00439	83 7d f8 00	 cmp	 DWORD PTR _target$4[ebp], 0
  0043d	74 0a		 je	 SHORT $LN51@update_apa
  0043f	8b 45 f8	 mov	 eax, DWORD PTR _target$4[ebp]
  00442	8b 08		 mov	 ecx, DWORD PTR [eax]
  00444	89 4d a8	 mov	 DWORD PTR tv235[ebp], ecx
  00447	eb 24		 jmp	 SHORT $LN52@update_apa
$LN51@update_apa:
  00449	8b 15 00 00 00
	00		 mov	 edx, DWORD PTR ?__LINE__Var@?0??update_apache_target_acquisition_system@@YGXXZ@4JA
  0044f	81 c2 a7 00 00
	00		 add	 edx, 167		; 000000a7H
  00455	52		 push	 edx
  00456	68 00 00 00 00	 push	 OFFSET ??_C@_0EO@CIFDMJHG@c?3?2users?2nhv90?2projects?2eech?2ap@
  0045b	a1 00 00 00 00	 mov	 eax, DWORD PTR ?null_entity_pointer_message@@3PBDB ; null_entity_pointer_message
  00460	50		 push	 eax
  00461	e8 00 00 00 00	 call	 ?process_assert@@YGXPBD0H@Z ; process_assert
  00466	c7 45 a8 00 00
	00 00		 mov	 DWORD PTR tv235[ebp], 0
$LN52@update_apa:
  0046d	b9 01 00 00 00	 mov	 ecx, 1
  00472	85 c9		 test	 ecx, ecx
  00474	74 09		 je	 SHORT $LN53@update_apa
  00476	c7 45 a4 50 00
	00 00		 mov	 DWORD PTR tv243[ebp], 80 ; 00000050H
  0047d	eb 24		 jmp	 SHORT $LN54@update_apa
$LN53@update_apa:
  0047f	8b 15 00 00 00
	00		 mov	 edx, DWORD PTR ?__LINE__Var@?0??update_apache_target_acquisition_system@@YGXXZ@4JA
  00485	81 c2 a7 00 00
	00		 add	 edx, 167		; 000000a7H
  0048b	52		 push	 edx
  0048c	68 00 00 00 00	 push	 OFFSET ??_C@_0EO@CIFDMJHG@c?3?2users?2nhv90?2projects?2eech?2ap@
  00491	a1 00 00 00 00	 mov	 eax, DWORD PTR ?overload_invalid_int_type_message@@3PBDB ; overload_invalid_int_type_message
  00496	50		 push	 eax
  00497	e8 00 00 00 00	 call	 ?process_assert@@YGXPBD0H@Z ; process_assert
  0049c	c7 45 a4 00 00
	00 00		 mov	 DWORD PTR tv243[ebp], 0
$LN54@update_apa:
  004a3	6a 50		 push	 80			; 00000050H
  004a5	8b 4d f8	 mov	 ecx, DWORD PTR _target$4[ebp]
  004a8	51		 push	 ecx
  004a9	69 55 a8 5c 04
	00 00		 imul	 edx, DWORD PTR tv235[ebp], 1116
  004b0	8b 45 a4	 mov	 eax, DWORD PTR tv243[ebp]
  004b3	8b 8c 82 00 00
	00 00		 mov	 ecx, DWORD PTR ?fn_get_local_entity_int_value@@3PAY0BBH@P6GHPAUENTITY@@W4INT_TYPES@@@ZA[edx+eax*4]
  004ba	ff d1		 call	 ecx
  004bc	89 45 ec	 mov	 DWORD PTR _los_to_target$1[ebp], eax

; 558  : 
; 559  : 					break;

  004bf	eb 10		 jmp	 SHORT $LN4@update_apa
$LN25@update_apa:

; 560  : 				}
; 561  : 				case TARGET_ACQUISITION_SYSTEM_FLIR:
; 562  : 				case TARGET_ACQUISITION_SYSTEM_DTV:
; 563  : 				case TARGET_ACQUISITION_SYSTEM_DVO:
; 564  : 				{
; 565  : 					los_to_target = TRUE;

  004c1	c7 45 ec 01 00
	00 00		 mov	 DWORD PTR _los_to_target$1[ebp], 1

; 566  : 
; 567  : 					break;

  004c8	eb 07		 jmp	 SHORT $LN4@update_apa
$LN26@update_apa:

; 568  : 				}
; 569  : 				case TARGET_ACQUISITION_SYSTEM_IHADSS:
; 570  : 				{
; 571  : 					los_to_target = TRUE;

  004ca	c7 45 ec 01 00
	00 00		 mov	 DWORD PTR _los_to_target$1[ebp], 1
$LN4@update_apa:

; 572  : 
; 573  : 					break;
; 574  : 				}
; 575  : 			}
; 576  : 		}
; 577  : 		else

  004d1	eb 07		 jmp	 SHORT $LN22@update_apa
$LN21@update_apa:

; 578  : 		{
; 579  : 			los_to_target = FALSE;

  004d3	c7 45 ec 00 00
	00 00		 mov	 DWORD PTR _los_to_target$1[ebp], 0
$LN22@update_apa:

; 580  : 		}
; 581  : 
; 582  : 		if (los_to_target != get_local_entity_int_value (source, INT_TYPE_LOS_TO_TARGET))

  004da	83 7d fc 00	 cmp	 DWORD PTR _source$5[ebp], 0
  004de	74 0a		 je	 SHORT $LN55@update_apa
  004e0	8b 45 fc	 mov	 eax, DWORD PTR _source$5[ebp]
  004e3	8b 08		 mov	 ecx, DWORD PTR [eax]
  004e5	89 4d a8	 mov	 DWORD PTR tv255[ebp], ecx
  004e8	eb 1d		 jmp	 SHORT $LN56@update_apa
$LN55@update_apa:
  004ea	68 46 02 00 00	 push	 582			; 00000246H
  004ef	68 00 00 00 00	 push	 OFFSET ??_C@_0EO@CIFDMJHG@c?3?2users?2nhv90?2projects?2eech?2ap@
  004f4	8b 15 00 00 00
	00		 mov	 edx, DWORD PTR ?null_entity_pointer_message@@3PBDB ; null_entity_pointer_message
  004fa	52		 push	 edx
  004fb	e8 00 00 00 00	 call	 ?process_assert@@YGXPBD0H@Z ; process_assert
  00500	c7 45 a8 00 00
	00 00		 mov	 DWORD PTR tv255[ebp], 0
$LN56@update_apa:
  00507	b8 01 00 00 00	 mov	 eax, 1
  0050c	85 c0		 test	 eax, eax
  0050e	74 09		 je	 SHORT $LN57@update_apa
  00510	c7 45 a4 80 00
	00 00		 mov	 DWORD PTR tv262[ebp], 128 ; 00000080H
  00517	eb 1d		 jmp	 SHORT $LN58@update_apa
$LN57@update_apa:
  00519	68 46 02 00 00	 push	 582			; 00000246H
  0051e	68 00 00 00 00	 push	 OFFSET ??_C@_0EO@CIFDMJHG@c?3?2users?2nhv90?2projects?2eech?2ap@
  00523	8b 0d 00 00 00
	00		 mov	 ecx, DWORD PTR ?overload_invalid_int_type_message@@3PBDB ; overload_invalid_int_type_message
  00529	51		 push	 ecx
  0052a	e8 00 00 00 00	 call	 ?process_assert@@YGXPBD0H@Z ; process_assert
  0052f	c7 45 a4 00 00
	00 00		 mov	 DWORD PTR tv262[ebp], 0
$LN58@update_apa:
  00536	68 80 00 00 00	 push	 128			; 00000080H
  0053b	8b 55 fc	 mov	 edx, DWORD PTR _source$5[ebp]
  0053e	52		 push	 edx
  0053f	69 45 a8 5c 04
	00 00		 imul	 eax, DWORD PTR tv255[ebp], 1116
  00546	8b 4d a4	 mov	 ecx, DWORD PTR tv262[ebp]
  00549	8b 94 88 00 00
	00 00		 mov	 edx, DWORD PTR ?fn_get_local_entity_int_value@@3PAY0BBH@P6GHPAUENTITY@@W4INT_TYPES@@@ZA[eax+ecx*4]
  00550	ff d2		 call	 edx
  00552	39 45 ec	 cmp	 DWORD PTR _los_to_target$1[ebp], eax
  00555	0f 84 92 00 00
	00		 je	 $LN1@update_apa

; 583  : 		{
; 584  : 			set_client_server_entity_int_value (source, INT_TYPE_LOS_TO_TARGET, los_to_target);

  0055b	83 7d fc 00	 cmp	 DWORD PTR _source$5[ebp], 0
  0055f	74 0a		 je	 SHORT $LN59@update_apa
  00561	8b 45 fc	 mov	 eax, DWORD PTR _source$5[ebp]
  00564	8b 08		 mov	 ecx, DWORD PTR [eax]
  00566	89 4d a8	 mov	 DWORD PTR tv275[ebp], ecx
  00569	eb 24		 jmp	 SHORT $LN60@update_apa
$LN59@update_apa:
  0056b	8b 15 00 00 00
	00		 mov	 edx, DWORD PTR ?__LINE__Var@?0??update_apache_target_acquisition_system@@YGXXZ@4JA
  00571	81 c2 c2 00 00
	00		 add	 edx, 194		; 000000c2H
  00577	52		 push	 edx
  00578	68 00 00 00 00	 push	 OFFSET ??_C@_0EO@CIFDMJHG@c?3?2users?2nhv90?2projects?2eech?2ap@
  0057d	a1 00 00 00 00	 mov	 eax, DWORD PTR ?null_entity_pointer_message@@3PBDB ; null_entity_pointer_message
  00582	50		 push	 eax
  00583	e8 00 00 00 00	 call	 ?process_assert@@YGXPBD0H@Z ; process_assert
  00588	c7 45 a8 00 00
	00 00		 mov	 DWORD PTR tv275[ebp], 0
$LN60@update_apa:
  0058f	b9 01 00 00 00	 mov	 ecx, 1
  00594	85 c9		 test	 ecx, ecx
  00596	74 09		 je	 SHORT $LN61@update_apa
  00598	c7 45 a4 80 00
	00 00		 mov	 DWORD PTR tv283[ebp], 128 ; 00000080H
  0059f	eb 24		 jmp	 SHORT $LN62@update_apa
$LN61@update_apa:
  005a1	8b 15 00 00 00
	00		 mov	 edx, DWORD PTR ?__LINE__Var@?0??update_apache_target_acquisition_system@@YGXXZ@4JA
  005a7	81 c2 c2 00 00
	00		 add	 edx, 194		; 000000c2H
  005ad	52		 push	 edx
  005ae	68 00 00 00 00	 push	 OFFSET ??_C@_0EO@CIFDMJHG@c?3?2users?2nhv90?2projects?2eech?2ap@
  005b3	a1 00 00 00 00	 mov	 eax, DWORD PTR ?overload_invalid_int_type_message@@3PBDB ; overload_invalid_int_type_message
  005b8	50		 push	 eax
  005b9	e8 00 00 00 00	 call	 ?process_assert@@YGXPBD0H@Z ; process_assert
  005be	c7 45 a4 00 00
	00 00		 mov	 DWORD PTR tv283[ebp], 0
$LN62@update_apa:
  005c5	8b 4d ec	 mov	 ecx, DWORD PTR _los_to_target$1[ebp]
  005c8	51		 push	 ecx
  005c9	68 80 00 00 00	 push	 128			; 00000080H
  005ce	8b 55 fc	 mov	 edx, DWORD PTR _source$5[ebp]
  005d1	52		 push	 edx
  005d2	69 45 a8 b8 08
	00 00		 imul	 eax, DWORD PTR tv275[ebp], 2232
  005d9	8b 4d a4	 mov	 ecx, DWORD PTR tv283[ebp]
  005dc	8d 94 c8 00 00
	00 00		 lea	 edx, DWORD PTR ?fn_set_client_server_entity_int_value@@3PAY1BBH@1P6GXPAUENTITY@@W4INT_TYPES@@H@ZA[eax+ecx*8]
  005e3	a1 00 00 00 00	 mov	 eax, DWORD PTR ?system_comms_model@@3W4COMMS_MODEL_TYPES@@A ; system_comms_model
  005e8	8b 0c 82	 mov	 ecx, DWORD PTR [edx+eax*4]
  005eb	ff d1		 call	 ecx
$LN1@update_apa:

; 585  : 		}
; 586  : 	}
; 587  : }

  005ed	5f		 pop	 edi
  005ee	5e		 pop	 esi
  005ef	5b		 pop	 ebx
  005f0	8b e5		 mov	 esp, ebp
  005f2	5d		 pop	 ebp
  005f3	c3		 ret	 0
$LN63@update_apa:
  005f4	00 00 00 00	 DD	 $LN9@update_apa
  005f8	00 00 00 00	 DD	 $LN10@update_apa
  005fc	00 00 00 00	 DD	 $LN11@update_apa
  00600	00 00 00 00	 DD	 $LN12@update_apa
  00604	00 00 00 00	 DD	 $LN13@update_apa
  00608	00 00 00 00	 DD	 $LN14@update_apa
  0060c	00 00 00 00	 DD	 $LN2@update_apa
  00610	00 00 00 00	 DD	 $LN2@update_apa
  00614	00 00 00 00	 DD	 $LN15@update_apa
$LN64@update_apa:
  00618	00 00 00 00	 DD	 $LN23@update_apa
  0061c	00 00 00 00	 DD	 $LN24@update_apa
  00620	00 00 00 00	 DD	 $LN24@update_apa
  00624	00 00 00 00	 DD	 $LN25@update_apa
  00628	00 00 00 00	 DD	 $LN25@update_apa
  0062c	00 00 00 00	 DD	 $LN25@update_apa
  00630	00 00 00 00	 DD	 $LN4@update_apa
  00634	00 00 00 00	 DD	 $LN4@update_apa
  00638	00 00 00 00	 DD	 $LN26@update_apa
?update_apache_target_acquisition_system@@YGXXZ ENDP	; update_apache_target_acquisition_system
_TEXT	ENDS
; Function compile flags: /Odtp /ZI
; File c:\users\nhv90\projects\eech\aphavoc\source\gunships\avionics\apache\ap_tgt.c
;	COMDAT ?select_apache_target_acquisition_system@@YGXW4TARGET_ACQUISITION_SYSTEMS@@@Z
_TEXT	SEGMENT
tv65 = -80						; size = 4
_damaged$ = -12						; size = 4
_old_system$ = -8					; size = 4
_new_system$ = -4					; size = 4
_system$ = 8						; size = 4
?select_apache_target_acquisition_system@@YGXW4TARGET_ACQUISITION_SYSTEMS@@@Z PROC ; select_apache_target_acquisition_system, COMDAT

; 186  : {

  00000	55		 push	 ebp
  00001	8b ec		 mov	 ebp, esp
  00003	83 ec 50	 sub	 esp, 80			; 00000050H
  00006	53		 push	 ebx
  00007	56		 push	 esi
  00008	57		 push	 edi

; 187  : 	target_acquisition_systems
; 188  : 		new_system,
; 189  : 		old_system;
; 190  : 
; 191  : 	int
; 192  : 		damaged;
; 193  : 
; 194  : 	new_system = system;

  00009	8b 45 08	 mov	 eax, DWORD PTR _system$[ebp]
  0000c	89 45 fc	 mov	 DWORD PTR _new_system$[ebp], eax

; 195  : 	old_system = target_acquisition_system;

  0000f	a1 00 00 00 00	 mov	 eax, DWORD PTR ?target_acquisition_system@@3W4TARGET_ACQUISITION_SYSTEMS@@A ; target_acquisition_system
  00014	89 45 f8	 mov	 DWORD PTR _old_system$[ebp], eax

; 196  : 
; 197  : 	damaged = FALSE;

  00017	c7 45 f4 00 00
	00 00		 mov	 DWORD PTR _damaged$[ebp], 0

; 198  : 
; 199  : 	reset_common_target_acquisition_system_keys ();

  0001e	e8 00 00 00 00	 call	 ?reset_common_target_acquisition_system_keys@@YGXXZ ; reset_common_target_acquisition_system_keys

; 200  : 
; 201  : 	deselect_apache_target_acquisition_system (target_acquisition_system);

  00023	a1 00 00 00 00	 mov	 eax, DWORD PTR ?target_acquisition_system@@3W4TARGET_ACQUISITION_SYSTEMS@@A ; target_acquisition_system
  00028	50		 push	 eax
  00029	e8 00 00 00 00	 call	 ?deselect_apache_target_acquisition_system@@YGXW4TARGET_ACQUISITION_SYSTEMS@@@Z ; deselect_apache_target_acquisition_system

; 202  : 
; 203  : 	switch (system)

  0002e	8b 45 08	 mov	 eax, DWORD PTR _system$[ebp]
  00031	89 45 b0	 mov	 DWORD PTR tv65[ebp], eax
  00034	83 7d b0 08	 cmp	 DWORD PTR tv65[ebp], 8
  00038	0f 87 49 02 00
	00		 ja	 $LN31@select_apa
  0003e	8b 4d b0	 mov	 ecx, DWORD PTR tv65[ebp]
  00041	ff 24 8d 00 00
	00 00		 jmp	 DWORD PTR $LN34@select_apa[ecx*4]
$LN4@select_apa:

; 204  : 	{
; 205  : 		////////////////////////////////////////
; 206  : 		case TARGET_ACQUISITION_SYSTEM_OFF:
; 207  : 		////////////////////////////////////////
; 208  : 		{
; 209  : 			target_acquisition_system = system;

  00048	8b 45 08	 mov	 eax, DWORD PTR _system$[ebp]
  0004b	a3 00 00 00 00	 mov	 DWORD PTR ?target_acquisition_system@@3W4TARGET_ACQUISITION_SYSTEMS@@A, eax ; target_acquisition_system

; 210  : 
; 211  : 			set_gunship_target (NULL);

  00050	6a 00		 push	 0
  00052	e8 00 00 00 00	 call	 ?set_gunship_target@@YGXPAUENTITY@@@Z ; set_gunship_target

; 212  : 			
; 213  : 			if (!command_line_manual_laser_radar)

  00057	83 3d 00 00 00
	00 00		 cmp	 DWORD PTR ?command_line_manual_laser_radar@@3HA, 0 ; command_line_manual_laser_radar
  0005e	75 07		 jne	 SHORT $LN5@select_apa

; 214  : 				set_laser_is_active(FALSE);

  00060	6a 00		 push	 0
  00062	e8 00 00 00 00	 call	 ?set_laser_is_active@@YGXH@Z ; set_laser_is_active
$LN5@select_apa:

; 215  : 
; 216  : 			#if 0
; 217  : 
; 218  : 			hud_mode = previous_hud_mode;
; 219  : 
; 220  : 			#endif
; 221  : 
; 222  : 			break;

  00067	e9 2c 02 00 00	 jmp	 $LN2@select_apa
$LN6@select_apa:

; 223  : 		}
; 224  : 		////////////////////////////////////////
; 225  : 		case TARGET_ACQUISITION_SYSTEM_GROUND_RADAR:
; 226  : 		////////////////////////////////////////
; 227  : 		{
; 228  : 			if (!apache_damage.radar)

  0006c	a1 00 00 00 00	 mov	 eax, DWORD PTR ?apache_damage@@3TAPACHE_DAMAGE_FLAGS@@A ; apache_damage
  00071	83 e0 01	 and	 eax, 1
  00074	75 46		 jne	 SHORT $LN7@select_apa

; 229  : 			{
; 230  : 				target_acquisition_system = system;

  00076	8b 45 08	 mov	 eax, DWORD PTR _system$[ebp]
  00079	a3 00 00 00 00	 mov	 DWORD PTR ?target_acquisition_system@@3W4TARGET_ACQUISITION_SYSTEMS@@A, eax ; target_acquisition_system

; 231  : 
; 232  : 				deactivate_common_air_radar();

  0007e	e8 00 00 00 00	 call	 ?deactivate_common_air_radar@@YGXXZ ; deactivate_common_air_radar

; 233  : 
; 234  : 				if (!command_line_manual_laser_radar)

  00083	83 3d 00 00 00
	00 00		 cmp	 DWORD PTR ?command_line_manual_laser_radar@@3HA, 0 ; command_line_manual_laser_radar
  0008a	75 05		 jne	 SHORT $LN8@select_apa

; 235  : 					activate_common_ground_radar ();

  0008c	e8 00 00 00 00	 call	 ?activate_common_ground_radar@@YGXXZ ; activate_common_ground_radar
$LN8@select_apa:

; 236  : 
; 237  : 				if (command_line_targeting_system_auto_page)

  00091	83 3d 00 00 00
	00 00		 cmp	 DWORD PTR ?command_line_targeting_system_auto_page@@3HA, 0 ; command_line_targeting_system_auto_page
  00098	74 05		 je	 SHORT $LN9@select_apa

; 238  : 					select_apache_ground_radar_mfd ();

  0009a	e8 00 00 00 00	 call	 ?select_apache_ground_radar_mfd@@YGXXZ ; select_apache_ground_radar_mfd
$LN9@select_apa:

; 239  : 
; 240  : 				if (hud_mode != HUD_MODE_WEAPON)

  0009f	83 3d 00 00 00
	00 02		 cmp	 DWORD PTR ?hud_mode@@3W4HUD_MODES@@A, 2 ; hud_mode
  000a6	74 0a		 je	 SHORT $LN10@select_apa

; 241  : 					previous_hud_mode = hud_mode;

  000a8	a1 00 00 00 00	 mov	 eax, DWORD PTR ?hud_mode@@3W4HUD_MODES@@A ; hud_mode
  000ad	a3 00 00 00 00	 mov	 DWORD PTR ?previous_hud_mode@@3W4HUD_MODES@@A, eax ; previous_hud_mode
$LN10@select_apa:

; 242  : 
; 243  : 				hud_mode = HUD_MODE_WEAPON;

  000b2	c7 05 00 00 00
	00 02 00 00 00	 mov	 DWORD PTR ?hud_mode@@3W4HUD_MODES@@A, 2 ; hud_mode
$LN7@select_apa:

; 244  : 			}
; 245  : 
; 246  : 			damaged = apache_damage.radar;

  000bc	a1 00 00 00 00	 mov	 eax, DWORD PTR ?apache_damage@@3TAPACHE_DAMAGE_FLAGS@@A ; apache_damage
  000c1	83 e0 01	 and	 eax, 1
  000c4	89 45 f4	 mov	 DWORD PTR _damaged$[ebp], eax

; 247  : 
; 248  : 			break;

  000c7	e9 cc 01 00 00	 jmp	 $LN2@select_apa
$LN11@select_apa:

; 249  : 		}
; 250  : 		////////////////////////////////////////
; 251  : 		case TARGET_ACQUISITION_SYSTEM_AIR_RADAR:
; 252  : 		////////////////////////////////////////
; 253  : 		{
; 254  : 			if (!apache_damage.radar)

  000cc	a1 00 00 00 00	 mov	 eax, DWORD PTR ?apache_damage@@3TAPACHE_DAMAGE_FLAGS@@A ; apache_damage
  000d1	83 e0 01	 and	 eax, 1
  000d4	75 46		 jne	 SHORT $LN12@select_apa

; 255  : 			{
; 256  : 				target_acquisition_system = system;

  000d6	8b 45 08	 mov	 eax, DWORD PTR _system$[ebp]
  000d9	a3 00 00 00 00	 mov	 DWORD PTR ?target_acquisition_system@@3W4TARGET_ACQUISITION_SYSTEMS@@A, eax ; target_acquisition_system

; 257  : 
; 258  : 				deactivate_common_air_radar();

  000de	e8 00 00 00 00	 call	 ?deactivate_common_air_radar@@YGXXZ ; deactivate_common_air_radar

; 259  : 
; 260  : 				if (!command_line_manual_laser_radar)

  000e3	83 3d 00 00 00
	00 00		 cmp	 DWORD PTR ?command_line_manual_laser_radar@@3HA, 0 ; command_line_manual_laser_radar
  000ea	75 05		 jne	 SHORT $LN13@select_apa

; 261  : 					activate_common_air_radar ();

  000ec	e8 00 00 00 00	 call	 ?activate_common_air_radar@@YGXXZ ; activate_common_air_radar
$LN13@select_apa:

; 262  : 
; 263  : 				if (command_line_targeting_system_auto_page)

  000f1	83 3d 00 00 00
	00 00		 cmp	 DWORD PTR ?command_line_targeting_system_auto_page@@3HA, 0 ; command_line_targeting_system_auto_page
  000f8	74 05		 je	 SHORT $LN14@select_apa

; 264  : 					select_apache_air_radar_mfd ();

  000fa	e8 00 00 00 00	 call	 ?select_apache_air_radar_mfd@@YGXXZ ; select_apache_air_radar_mfd
$LN14@select_apa:

; 265  : 
; 266  : 				if (hud_mode != HUD_MODE_WEAPON)

  000ff	83 3d 00 00 00
	00 02		 cmp	 DWORD PTR ?hud_mode@@3W4HUD_MODES@@A, 2 ; hud_mode
  00106	74 0a		 je	 SHORT $LN15@select_apa

; 267  : 					previous_hud_mode = hud_mode;

  00108	a1 00 00 00 00	 mov	 eax, DWORD PTR ?hud_mode@@3W4HUD_MODES@@A ; hud_mode
  0010d	a3 00 00 00 00	 mov	 DWORD PTR ?previous_hud_mode@@3W4HUD_MODES@@A, eax ; previous_hud_mode
$LN15@select_apa:

; 268  : 
; 269  : 				hud_mode = HUD_MODE_WEAPON;

  00112	c7 05 00 00 00
	00 02 00 00 00	 mov	 DWORD PTR ?hud_mode@@3W4HUD_MODES@@A, 2 ; hud_mode
$LN12@select_apa:

; 270  : 			}
; 271  : 
; 272  : 			damaged = apache_damage.radar;

  0011c	a1 00 00 00 00	 mov	 eax, DWORD PTR ?apache_damage@@3TAPACHE_DAMAGE_FLAGS@@A ; apache_damage
  00121	83 e0 01	 and	 eax, 1
  00124	89 45 f4	 mov	 DWORD PTR _damaged$[ebp], eax

; 273  : 
; 274  : 			break;

  00127	e9 6c 01 00 00	 jmp	 $LN2@select_apa
$LN16@select_apa:

; 275  : 		}
; 276  : 		////////////////////////////////////////
; 277  : 		case TARGET_ACQUISITION_SYSTEM_FLIR:
; 278  : 		////////////////////////////////////////
; 279  : 		{
; 280  : 			reset_mfd_mouse_buttons();

  0012c	e8 00 00 00 00	 call	 ?reset_mfd_mouse_buttons@@YGXXZ ; reset_mfd_mouse_buttons

; 281  : 			
; 282  : 			if (!apache_damage.flir)

  00131	a1 00 00 00 00	 mov	 eax, DWORD PTR ?apache_damage@@3TAPACHE_DAMAGE_FLAGS@@A ; apache_damage
  00136	c1 e8 02	 shr	 eax, 2
  00139	83 e0 01	 and	 eax, 1
  0013c	75 38		 jne	 SHORT $LN17@select_apa

; 283  : 			{
; 284  : 				target_acquisition_system = system;

  0013e	8b 45 08	 mov	 eax, DWORD PTR _system$[ebp]
  00141	a3 00 00 00 00	 mov	 DWORD PTR ?target_acquisition_system@@3W4TARGET_ACQUISITION_SYSTEMS@@A, eax ; target_acquisition_system

; 285  : 
; 286  : 				activate_common_eo ();

  00146	e8 00 00 00 00	 call	 ?activate_common_eo@@YGXXZ ; activate_common_eo

; 287  : 
; 288  : 				if (command_line_targeting_system_auto_page)

  0014b	83 3d 00 00 00
	00 00		 cmp	 DWORD PTR ?command_line_targeting_system_auto_page@@3HA, 0 ; command_line_targeting_system_auto_page
  00152	74 05		 je	 SHORT $LN18@select_apa

; 289  : 					select_apache_tads_mfd ();

  00154	e8 00 00 00 00	 call	 ?select_apache_tads_mfd@@YGXXZ ; select_apache_tads_mfd
$LN18@select_apa:

; 290  : 
; 291  : 				if (hud_mode != HUD_MODE_WEAPON)

  00159	83 3d 00 00 00
	00 02		 cmp	 DWORD PTR ?hud_mode@@3W4HUD_MODES@@A, 2 ; hud_mode
  00160	74 0a		 je	 SHORT $LN19@select_apa

; 292  : 					previous_hud_mode = hud_mode;

  00162	a1 00 00 00 00	 mov	 eax, DWORD PTR ?hud_mode@@3W4HUD_MODES@@A ; hud_mode
  00167	a3 00 00 00 00	 mov	 DWORD PTR ?previous_hud_mode@@3W4HUD_MODES@@A, eax ; previous_hud_mode
$LN19@select_apa:

; 293  : 
; 294  : 				hud_mode = HUD_MODE_WEAPON;

  0016c	c7 05 00 00 00
	00 02 00 00 00	 mov	 DWORD PTR ?hud_mode@@3W4HUD_MODES@@A, 2 ; hud_mode
$LN17@select_apa:

; 295  : 			}
; 296  : 
; 297  : 			damaged = apache_damage.flir;

  00176	a1 00 00 00 00	 mov	 eax, DWORD PTR ?apache_damage@@3TAPACHE_DAMAGE_FLAGS@@A ; apache_damage
  0017b	c1 e8 02	 shr	 eax, 2
  0017e	83 e0 01	 and	 eax, 1
  00181	89 45 f4	 mov	 DWORD PTR _damaged$[ebp], eax

; 298  : 
; 299  : 			break;

  00184	e9 0f 01 00 00	 jmp	 $LN2@select_apa
$LN20@select_apa:

; 300  : 		}
; 301  : 		////////////////////////////////////////
; 302  : 		case TARGET_ACQUISITION_SYSTEM_DTV:
; 303  : 		////////////////////////////////////////
; 304  : 		{
; 305  : 			reset_mfd_mouse_buttons();

  00189	e8 00 00 00 00	 call	 ?reset_mfd_mouse_buttons@@YGXXZ ; reset_mfd_mouse_buttons

; 306  : 			
; 307  : 			if (!apache_damage.dtv)

  0018e	a1 00 00 00 00	 mov	 eax, DWORD PTR ?apache_damage@@3TAPACHE_DAMAGE_FLAGS@@A ; apache_damage
  00193	c1 e8 03	 shr	 eax, 3
  00196	83 e0 01	 and	 eax, 1
  00199	75 38		 jne	 SHORT $LN21@select_apa

; 308  : 			{
; 309  : 				target_acquisition_system = system;

  0019b	8b 45 08	 mov	 eax, DWORD PTR _system$[ebp]
  0019e	a3 00 00 00 00	 mov	 DWORD PTR ?target_acquisition_system@@3W4TARGET_ACQUISITION_SYSTEMS@@A, eax ; target_acquisition_system

; 310  : 
; 311  : 				activate_common_eo ();

  001a3	e8 00 00 00 00	 call	 ?activate_common_eo@@YGXXZ ; activate_common_eo

; 312  : 
; 313  : 				if (command_line_targeting_system_auto_page)

  001a8	83 3d 00 00 00
	00 00		 cmp	 DWORD PTR ?command_line_targeting_system_auto_page@@3HA, 0 ; command_line_targeting_system_auto_page
  001af	74 05		 je	 SHORT $LN22@select_apa

; 314  : 					select_apache_tads_mfd ();

  001b1	e8 00 00 00 00	 call	 ?select_apache_tads_mfd@@YGXXZ ; select_apache_tads_mfd
$LN22@select_apa:

; 315  : 
; 316  : 				if (hud_mode != HUD_MODE_WEAPON)

  001b6	83 3d 00 00 00
	00 02		 cmp	 DWORD PTR ?hud_mode@@3W4HUD_MODES@@A, 2 ; hud_mode
  001bd	74 0a		 je	 SHORT $LN23@select_apa

; 317  : 					previous_hud_mode = hud_mode;

  001bf	a1 00 00 00 00	 mov	 eax, DWORD PTR ?hud_mode@@3W4HUD_MODES@@A ; hud_mode
  001c4	a3 00 00 00 00	 mov	 DWORD PTR ?previous_hud_mode@@3W4HUD_MODES@@A, eax ; previous_hud_mode
$LN23@select_apa:

; 318  : 
; 319  : 				hud_mode = HUD_MODE_WEAPON;

  001c9	c7 05 00 00 00
	00 02 00 00 00	 mov	 DWORD PTR ?hud_mode@@3W4HUD_MODES@@A, 2 ; hud_mode
$LN21@select_apa:

; 320  : 			}
; 321  : 
; 322  : 			damaged = apache_damage.dtv;

  001d3	a1 00 00 00 00	 mov	 eax, DWORD PTR ?apache_damage@@3TAPACHE_DAMAGE_FLAGS@@A ; apache_damage
  001d8	c1 e8 03	 shr	 eax, 3
  001db	83 e0 01	 and	 eax, 1
  001de	89 45 f4	 mov	 DWORD PTR _damaged$[ebp], eax

; 323  : 
; 324  : 			break;

  001e1	e9 b2 00 00 00	 jmp	 $LN2@select_apa
$LN24@select_apa:

; 325  : 		}
; 326  : 		////////////////////////////////////////
; 327  : 		case TARGET_ACQUISITION_SYSTEM_DVO:
; 328  : 		////////////////////////////////////////
; 329  : 		{
; 330  : 			reset_mfd_mouse_buttons();

  001e6	e8 00 00 00 00	 call	 ?reset_mfd_mouse_buttons@@YGXXZ ; reset_mfd_mouse_buttons

; 331  : 			
; 332  : 			if (!apache_damage.dvo)

  001eb	a1 00 00 00 00	 mov	 eax, DWORD PTR ?apache_damage@@3TAPACHE_DAMAGE_FLAGS@@A ; apache_damage
  001f0	c1 e8 04	 shr	 eax, 4
  001f3	83 e0 01	 and	 eax, 1
  001f6	75 38		 jne	 SHORT $LN25@select_apa

; 333  : 			{
; 334  : 				target_acquisition_system = system;

  001f8	8b 45 08	 mov	 eax, DWORD PTR _system$[ebp]
  001fb	a3 00 00 00 00	 mov	 DWORD PTR ?target_acquisition_system@@3W4TARGET_ACQUISITION_SYSTEMS@@A, eax ; target_acquisition_system

; 335  : 
; 336  : 				activate_common_eo ();

  00200	e8 00 00 00 00	 call	 ?activate_common_eo@@YGXXZ ; activate_common_eo

; 337  : 
; 338  : 				if (command_line_targeting_system_auto_page)

  00205	83 3d 00 00 00
	00 00		 cmp	 DWORD PTR ?command_line_targeting_system_auto_page@@3HA, 0 ; command_line_targeting_system_auto_page
  0020c	74 05		 je	 SHORT $LN26@select_apa

; 339  : 					select_apache_tads_mfd ();

  0020e	e8 00 00 00 00	 call	 ?select_apache_tads_mfd@@YGXXZ ; select_apache_tads_mfd
$LN26@select_apa:

; 340  : 
; 341  : 				if (hud_mode != HUD_MODE_WEAPON)

  00213	83 3d 00 00 00
	00 02		 cmp	 DWORD PTR ?hud_mode@@3W4HUD_MODES@@A, 2 ; hud_mode
  0021a	74 0a		 je	 SHORT $LN27@select_apa

; 342  : 					previous_hud_mode = hud_mode;

  0021c	a1 00 00 00 00	 mov	 eax, DWORD PTR ?hud_mode@@3W4HUD_MODES@@A ; hud_mode
  00221	a3 00 00 00 00	 mov	 DWORD PTR ?previous_hud_mode@@3W4HUD_MODES@@A, eax ; previous_hud_mode
$LN27@select_apa:

; 343  : 
; 344  : 				hud_mode = HUD_MODE_WEAPON;

  00226	c7 05 00 00 00
	00 02 00 00 00	 mov	 DWORD PTR ?hud_mode@@3W4HUD_MODES@@A, 2 ; hud_mode
$LN25@select_apa:

; 345  : 			}
; 346  : 
; 347  : 			damaged = apache_damage.dvo;

  00230	a1 00 00 00 00	 mov	 eax, DWORD PTR ?apache_damage@@3TAPACHE_DAMAGE_FLAGS@@A ; apache_damage
  00235	c1 e8 04	 shr	 eax, 4
  00238	83 e0 01	 and	 eax, 1
  0023b	89 45 f4	 mov	 DWORD PTR _damaged$[ebp], eax

; 348  : 
; 349  : 			break;

  0023e	eb 58		 jmp	 SHORT $LN2@select_apa
$LN28@select_apa:

; 350  : 		}
; 351  : 		////////////////////////////////////////
; 352  : 		case TARGET_ACQUISITION_SYSTEM_IHADSS:
; 353  : 		////////////////////////////////////////
; 354  : 		{
; 355  : 			if (!apache_damage.ihadss)

  00240	a1 00 00 00 00	 mov	 eax, DWORD PTR ?apache_damage@@3TAPACHE_DAMAGE_FLAGS@@A ; apache_damage
  00245	c1 e8 0e	 shr	 eax, 14			; 0000000eH
  00248	83 e0 01	 and	 eax, 1
  0024b	75 2a		 jne	 SHORT $LN29@select_apa

; 356  : 			{
; 357  : 				target_acquisition_system = system;

  0024d	8b 45 08	 mov	 eax, DWORD PTR _system$[ebp]
  00250	a3 00 00 00 00	 mov	 DWORD PTR ?target_acquisition_system@@3W4TARGET_ACQUISITION_SYSTEMS@@A, eax ; target_acquisition_system

; 358  : 
; 359  : 				activate_common_hms ();

  00255	e8 00 00 00 00	 call	 ?activate_common_hms@@YGXXZ ; activate_common_hms

; 360  : 
; 361  : 				if (hud_mode != HUD_MODE_WEAPON)

  0025a	83 3d 00 00 00
	00 02		 cmp	 DWORD PTR ?hud_mode@@3W4HUD_MODES@@A, 2 ; hud_mode
  00261	74 0a		 je	 SHORT $LN30@select_apa

; 362  : 					previous_hud_mode = hud_mode;

  00263	a1 00 00 00 00	 mov	 eax, DWORD PTR ?hud_mode@@3W4HUD_MODES@@A ; hud_mode
  00268	a3 00 00 00 00	 mov	 DWORD PTR ?previous_hud_mode@@3W4HUD_MODES@@A, eax ; previous_hud_mode
$LN30@select_apa:

; 363  : 
; 364  : 				hud_mode = HUD_MODE_WEAPON;

  0026d	c7 05 00 00 00
	00 02 00 00 00	 mov	 DWORD PTR ?hud_mode@@3W4HUD_MODES@@A, 2 ; hud_mode
$LN29@select_apa:

; 365  : 			}
; 366  : 
; 367  : 			damaged = apache_damage.ihadss;

  00277	a1 00 00 00 00	 mov	 eax, DWORD PTR ?apache_damage@@3TAPACHE_DAMAGE_FLAGS@@A ; apache_damage
  0027c	c1 e8 0e	 shr	 eax, 14			; 0000000eH
  0027f	83 e0 01	 and	 eax, 1
  00282	89 45 f4	 mov	 DWORD PTR _damaged$[ebp], eax

; 368  : 
; 369  : 			break;

  00285	eb 11		 jmp	 SHORT $LN2@select_apa
$LN31@select_apa:

; 370  : 		}
; 371  : 		////////////////////////////////////////
; 372  : 		default:
; 373  : 		////////////////////////////////////////
; 374  : 		{
; 375  : 			debug_fatal ("Invalid target acquisition system = %d", system);

  00287	8b 45 08	 mov	 eax, DWORD PTR _system$[ebp]
  0028a	50		 push	 eax
  0028b	68 00 00 00 00	 push	 OFFSET ??_C@_0CH@DDKDNBNH@Invalid?5target?5acquisition?5syst@
  00290	e8 00 00 00 00	 call	 ?debug_fatal@@YAXPBDZZ	; debug_fatal
  00295	83 c4 08	 add	 esp, 8
$LN2@select_apa:

; 376  : 
; 377  : 			break;
; 378  : 		}
; 379  : 	}
; 380  : 
; 381  : 	if (!command_line_manual_laser_radar)

  00298	83 3d 00 00 00
	00 00		 cmp	 DWORD PTR ?command_line_manual_laser_radar@@3HA, 0 ; command_line_manual_laser_radar
  0029f	75 11		 jne	 SHORT $LN1@select_apa

; 382  : 		play_common_cpg_target_acquisition_system_speech (new_system, old_system, damaged);

  002a1	8b 45 f4	 mov	 eax, DWORD PTR _damaged$[ebp]
  002a4	50		 push	 eax
  002a5	8b 4d f8	 mov	 ecx, DWORD PTR _old_system$[ebp]
  002a8	51		 push	 ecx
  002a9	8b 55 fc	 mov	 edx, DWORD PTR _new_system$[ebp]
  002ac	52		 push	 edx
  002ad	e8 00 00 00 00	 call	 ?play_common_cpg_target_acquisition_system_speech@@YGXW4TARGET_ACQUISITION_SYSTEMS@@0H@Z ; play_common_cpg_target_acquisition_system_speech
$LN1@select_apa:

; 383  : }

  002b2	5f		 pop	 edi
  002b3	5e		 pop	 esi
  002b4	5b		 pop	 ebx
  002b5	8b e5		 mov	 esp, ebp
  002b7	5d		 pop	 ebp
  002b8	c2 04 00	 ret	 4
  002bb	90		 npad	 1
$LN34@select_apa:
  002bc	00 00 00 00	 DD	 $LN4@select_apa
  002c0	00 00 00 00	 DD	 $LN6@select_apa
  002c4	00 00 00 00	 DD	 $LN11@select_apa
  002c8	00 00 00 00	 DD	 $LN16@select_apa
  002cc	00 00 00 00	 DD	 $LN20@select_apa
  002d0	00 00 00 00	 DD	 $LN24@select_apa
  002d4	00 00 00 00	 DD	 $LN31@select_apa
  002d8	00 00 00 00	 DD	 $LN31@select_apa
  002dc	00 00 00 00	 DD	 $LN28@select_apa
?select_apache_target_acquisition_system@@YGXW4TARGET_ACQUISITION_SYSTEMS@@@Z ENDP ; select_apache_target_acquisition_system
_TEXT	ENDS
; Function compile flags: /Odtp /ZI
; File c:\users\nhv90\projects\eech\aphavoc\source\gunships\avionics\apache\ap_tgt.c
;	COMDAT ?deinitialise_apache_target_acquisition_systems@@YGXXZ
_TEXT	SEGMENT
?deinitialise_apache_target_acquisition_systems@@YGXXZ PROC ; deinitialise_apache_target_acquisition_systems, COMDAT

; 93   : {

  00000	55		 push	 ebp
  00001	8b ec		 mov	 ebp, esp
  00003	83 ec 40	 sub	 esp, 64			; 00000040H
  00006	53		 push	 ebx
  00007	56		 push	 esi
  00008	57		 push	 edi

; 94   : 	deinitialise_apache_radar ();

  00009	e8 00 00 00 00	 call	 ?deinitialise_apache_radar@@YGXXZ ; deinitialise_apache_radar

; 95   : 
; 96   : 	deinitialise_apache_eo ();

  0000e	e8 00 00 00 00	 call	 ?deinitialise_apache_eo@@YGXXZ ; deinitialise_apache_eo

; 97   : 
; 98   : 	deinitialise_apache_hms ();

  00013	e8 00 00 00 00	 call	 ?deinitialise_apache_hms@@YGXXZ ; deinitialise_apache_hms

; 99   : }

  00018	5f		 pop	 edi
  00019	5e		 pop	 esi
  0001a	5b		 pop	 ebx
  0001b	8b e5		 mov	 esp, ebp
  0001d	5d		 pop	 ebp
  0001e	c3		 ret	 0
?deinitialise_apache_target_acquisition_systems@@YGXXZ ENDP ; deinitialise_apache_target_acquisition_systems
_TEXT	ENDS
; Function compile flags: /Odtp /ZI
; File c:\users\nhv90\projects\eech\aphavoc\source\gunships\avionics\apache\ap_tgt.c
;	COMDAT ?initialise_apache_target_acquisition_systems@@YGXXZ
_TEXT	SEGMENT
?initialise_apache_target_acquisition_systems@@YGXXZ PROC ; initialise_apache_target_acquisition_systems, COMDAT

; 80   : {

  00000	55		 push	 ebp
  00001	8b ec		 mov	 ebp, esp
  00003	83 ec 40	 sub	 esp, 64			; 00000040H
  00006	53		 push	 ebx
  00007	56		 push	 esi
  00008	57		 push	 edi

; 81   : 	initialise_apache_radar ();

  00009	e8 00 00 00 00	 call	 ?initialise_apache_radar@@YGXXZ ; initialise_apache_radar

; 82   : 
; 83   : 	initialise_apache_eo ();

  0000e	e8 00 00 00 00	 call	 ?initialise_apache_eo@@YGXXZ ; initialise_apache_eo

; 84   : 
; 85   : 	initialise_apache_hms ();

  00013	e8 00 00 00 00	 call	 ?initialise_apache_hms@@YGXXZ ; initialise_apache_hms

; 86   : }

  00018	5f		 pop	 edi
  00019	5e		 pop	 esi
  0001a	5b		 pop	 ebx
  0001b	8b e5		 mov	 esp, ebp
  0001d	5d		 pop	 ebp
  0001e	c3		 ret	 0
?initialise_apache_target_acquisition_systems@@YGXXZ ENDP ; initialise_apache_target_acquisition_systems
_TEXT	ENDS
END
