; Listing generated by Microsoft (R) Optimizing Compiler Version 19.16.27045.0 

	TITLE	C:\Users\nhv90\Projects\eech\aphavoc\source\gunships\avionics\apache\ap_wpn.c
	.686P
	.XMM
	include listing.inc
	.model	flat

INCLUDELIB MSVCRTD
INCLUDELIB OLDNAMES

PUBLIC	?apache_stinger_seeker_head_x_position@@3MA	; apache_stinger_seeker_head_x_position
PUBLIC	?apache_stinger_seeker_head_y_position@@3MA	; apache_stinger_seeker_head_y_position
_BSS	SEGMENT
?apache_stinger_seeker_head_x_position@@3MA DD 01H DUP (?) ; apache_stinger_seeker_head_x_position
?apache_stinger_seeker_head_y_position@@3MA DD 01H DUP (?) ; apache_stinger_seeker_head_y_position
_BSS	ENDS
PUBLIC	_cosf
PUBLIC	_sinf
PUBLIC	?cos@@YGMM@Z					; cos
PUBLIC	?sin@@YGMM@Z					; sin
PUBLIC	?initialise_apache_weapon_systems@@YGXXZ	; initialise_apache_weapon_systems
PUBLIC	?update_apache_weapon_systems@@YGXXZ		; update_apache_weapon_systems
PUBLIC	?toggle_apache_radar_jammer_manual@@YGXXZ	; toggle_apache_radar_jammer_manual
PUBLIC	?set_apache_radar_jammer_manual@@YGXH@Z		; set_apache_radar_jammer_manual
PUBLIC	?set_apache_radar_jammer_auto@@YGXH@Z		; set_apache_radar_jammer_auto
PUBLIC	?toggle_apache_infra_red_jammer_manual@@YGXXZ	; toggle_apache_infra_red_jammer_manual
PUBLIC	?set_apache_infra_red_jammer_manual@@YGXH@Z	; set_apache_infra_red_jammer_manual
PUBLIC	?set_apache_infra_red_jammer_auto@@YGXH@Z	; set_apache_infra_red_jammer_auto
PUBLIC	??$min@H@std@@YGABHABH0@Z			; std::min<int>
PUBLIC	??$max@H@std@@YGABHABH0@Z			; std::max<int>
PUBLIC	??_C@_02DKCKIIND@?$CFs@				; `string'
PUBLIC	?__LINE__Var@?0??apply_weapon_recoil_effect@@YGXPAUENTITY@@H@Z@4JA ; `apply_weapon_recoil_effect'::`1'::__LINE__Var
PUBLIC	??_C@_0EO@EDKDEHLB@c?3?2users?2nhv90?2projects?2eech?2ap@ ; `string'
PUBLIC	??_C@_02LFNMGJAP@en@				; `string'
PUBLIC	?__LINE__Var@?0??update_apache_weapon_systems@@YGXXZ@4JA ; `update_apache_weapon_systems'::`1'::__LINE__Var
PUBLIC	?__LINE__Var@?0??toggle_apache_radar_jammer_manual@@YGXXZ@4JA ; `toggle_apache_radar_jammer_manual'::`1'::__LINE__Var
PUBLIC	?__LINE__Var@?0??set_apache_radar_jammer_manual@@YGXH@Z@4JA ; `set_apache_radar_jammer_manual'::`1'::__LINE__Var
PUBLIC	?__LINE__Var@?0??set_apache_radar_jammer_auto@@YGXH@Z@4JA ; `set_apache_radar_jammer_auto'::`1'::__LINE__Var
PUBLIC	?__LINE__Var@?0??toggle_apache_infra_red_jammer_manual@@YGXXZ@4JA ; `toggle_apache_infra_red_jammer_manual'::`1'::__LINE__Var
PUBLIC	?__LINE__Var@?0??set_apache_infra_red_jammer_manual@@YGXH@Z@4JA ; `set_apache_infra_red_jammer_manual'::`1'::__LINE__Var
PUBLIC	?__LINE__Var@?0??set_apache_infra_red_jammer_auto@@YGXH@Z@4JA ; `set_apache_infra_red_jammer_auto'::`1'::__LINE__Var
PUBLIC	??_C@_0BD@FEEMDEPI@invalid?5comparator@		; `string'
PUBLIC	??_C@_0GK@JMBMHIBC@c?3?2program?5files?5?$CIx86?$CJ?2microsof@ ; `string'
PUBLIC	??_C@_1NE@FKBPBJEB@?$AAc?$AA?3?$AA?2?$AAp?$AAr?$AAo?$AAg?$AAr?$AAa?$AAm?$AA?5?$AAf?$AAi?$AAl?$AAe@ ; `string'
PUBLIC	??_C@_1BC@BLAPCBGI@?$AAs?$AAt?$AAd?$AA?3?$AA?3?$AAm?$AAi?$AAn@ ; `string'
PUBLIC	??_C@_1CK@NDNHPKPI@?$AA?$CC?$AAi?$AAn?$AAv?$AAa?$AAl?$AAi?$AAd?$AA?5?$AAc?$AAo?$AAm?$AAp?$AAa?$AAr@ ; `string'
PUBLIC	??_C@_1BC@ICCOKLEG@?$AAs?$AAt?$AAd?$AA?3?$AA?3?$AAm?$AAa?$AAx@ ; `string'
PUBLIC	__real@0000000000000000
PUBLIC	__real@3e4ccccd
PUBLIC	__real@3f000000
PUBLIC	__real@3f19999a
PUBLIC	__real@3f333333
PUBLIC	__real@3f800000
PUBLIC	__real@3fc0000000000000
PUBLIC	__real@3fd0000000000000
PUBLIC	__real@4000c15236000000
PUBLIC	__real@400921fb51000000
PUBLIC	__real@40400000
PUBLIC	__real@41000000
PUBLIC	__real@41200000
EXTRN	__imp___invalid_parameter:PROC
EXTRN	__imp___CrtDbgReport:PROC
EXTRN	_cos:PROC
EXTRN	_sin:PROC
EXTRN	?process_assert@@YGXPBD0H@Z:PROC		; process_assert
EXTRN	?launch_client_server_weapon@@YGXPAUENTITY@@H@Z:PROC ; launch_client_server_weapon
EXTRN	?get_local_entity_weapon_count@@YGHPAUENTITY@@H@Z:PROC ; get_local_entity_weapon_count
EXTRN	?get_local_entity_selected_weapon_viewpoint@@YGHPAUENTITY@@PAUVIEWPOINT@@@Z:PROC ; get_local_entity_selected_weapon_viewpoint
EXTRN	?play_client_server_cpg_message@@YGHPAUENTITY@@MMHMH@Z:PROC ; play_client_server_cpg_message
EXTRN	?pause_local_entity_sound_type@@YGHPAUENTITY@@HM@Z:PROC ; pause_local_entity_sound_type
EXTRN	?resume_local_entity_sound_type@@YGHPAUENTITY@@H@Z:PROC ; resume_local_entity_sound_type
EXTRN	?pfz_active@@YGHXZ:PROC				; pfz_active
EXTRN	?get_next_ground_radar_target@@YGXXZ:PROC	; get_next_ground_radar_target
EXTRN	?play_common_cpg_radar_jammer_speech@@YGXH@Z:PROC ; play_common_cpg_radar_jammer_speech
EXTRN	?play_common_cpg_infra_red_jammer_speech@@YGXH@Z:PROC ; play_common_cpg_infra_red_jammer_speech
EXTRN	?play_common_cpg_failed_launch_speech@@YGXW4WEAPON_LOCK_TYPES@@@Z:PROC ; play_common_cpg_failed_launch_speech
EXTRN	?update_good_tone@@YGXXZ:PROC			; update_good_tone
EXTRN	?reset_good_tone@@YGXXZ:PROC			; reset_good_tone
EXTRN	?add_dynamic_weapon_launch_force@@YGXPAUVEC3D@@0MM@Z:PROC ; add_dynamic_weapon_launch_force
EXTRN	?system_delta_time@@3MA:DWORD			; system_delta_time
EXTRN	?null_entity_pointer_message@@3PBDB:DWORD	; null_entity_pointer_message
EXTRN	?global_options@@3UGLOBAL_OPTIONS_DATA@@A:BYTE	; global_options
EXTRN	?system_comms_model@@3W4COMMS_MODEL_TYPES@@A:DWORD ; system_comms_model
EXTRN	?overload_invalid_list_type_message@@3PBDB:DWORD ; overload_invalid_list_type_message
EXTRN	?fn_get_local_entity_parent@@3PAY0CN@P6GPAUENTITY@@PAU1@W4LIST_TYPES@@@ZA:BYTE ; fn_get_local_entity_parent
EXTRN	?overload_invalid_int_type_message@@3PBDB:DWORD	; overload_invalid_int_type_message
EXTRN	?fn_set_client_server_entity_int_value@@3PAY1BBH@1P6GXPAUENTITY@@W4INT_TYPES@@H@ZA:BYTE ; fn_set_client_server_entity_int_value
EXTRN	?fn_get_local_entity_int_value@@3PAY0BBH@P6GHPAUENTITY@@W4INT_TYPES@@@ZA:BYTE ; fn_get_local_entity_int_value
EXTRN	?weapon_database@@3PAUWEAPON_DATA@@A:BYTE	; weapon_database
EXTRN	?gunship_entity@@3PAUENTITY@@A:DWORD		; gunship_entity
EXTRN	?target_acquisition_system@@3W4TARGET_ACQUISITION_SYSTEMS@@A:DWORD ; target_acquisition_system
EXTRN	?weapon_lock_type@@3W4WEAPON_LOCK_TYPES@@A:DWORD ; weapon_lock_type
EXTRN	?fire_continuous_weapon@@3HA:DWORD		; fire_continuous_weapon
EXTRN	?fire_single_weapon@@3HA:DWORD			; fire_single_weapon
EXTRN	?rocket_salvo_size@@3HA:DWORD			; rocket_salvo_size
EXTRN	?rocket_salvo_count@@3HA:DWORD			; rocket_salvo_count
EXTRN	?gun_is_firing@@3HA:DWORD			; gun_is_firing
EXTRN	?apache_damage@@3TAPACHE_DAMAGE_FLAGS@@A:DWORD	; apache_damage
EXTRN	__fltused:DWORD
_BSS	SEGMENT
?seeker_head_theta1@@3MA DD 01H DUP (?)			; seeker_head_theta1
?seeker_head_theta2@@3MA DD 01H DUP (?)			; seeker_head_theta2
_BSS	ENDS
;	COMDAT __real@41200000
CONST	SEGMENT
__real@41200000 DD 041200000r			; 10
CONST	ENDS
;	COMDAT __real@41000000
CONST	SEGMENT
__real@41000000 DD 041000000r			; 8
CONST	ENDS
;	COMDAT __real@40400000
CONST	SEGMENT
__real@40400000 DD 040400000r			; 3
CONST	ENDS
;	COMDAT __real@400921fb51000000
CONST	SEGMENT
__real@400921fb51000000 DQ 0400921fb51000000r	; 3.14159
CONST	ENDS
;	COMDAT __real@4000c15236000000
CONST	SEGMENT
__real@4000c15236000000 DQ 04000c15236000000r	; 2.0944
CONST	ENDS
;	COMDAT __real@3fd0000000000000
CONST	SEGMENT
__real@3fd0000000000000 DQ 03fd0000000000000r	; 0.25
CONST	ENDS
;	COMDAT __real@3fc0000000000000
CONST	SEGMENT
__real@3fc0000000000000 DQ 03fc0000000000000r	; 0.125
CONST	ENDS
;	COMDAT __real@3f800000
CONST	SEGMENT
__real@3f800000 DD 03f800000r			; 1
CONST	ENDS
;	COMDAT __real@3f333333
CONST	SEGMENT
__real@3f333333 DD 03f333333r			; 0.7
CONST	ENDS
;	COMDAT __real@3f19999a
CONST	SEGMENT
__real@3f19999a DD 03f19999ar			; 0.6
CONST	ENDS
;	COMDAT __real@3f000000
CONST	SEGMENT
__real@3f000000 DD 03f000000r			; 0.5
CONST	ENDS
;	COMDAT __real@3e4ccccd
CONST	SEGMENT
__real@3e4ccccd DD 03e4ccccdr			; 0.2
CONST	ENDS
;	COMDAT __real@0000000000000000
CONST	SEGMENT
__real@0000000000000000 DQ 00000000000000000r	; 0
CONST	ENDS
;	COMDAT ??_C@_1BC@ICCOKLEG@?$AAs?$AAt?$AAd?$AA?3?$AA?3?$AAm?$AAa?$AAx@
CONST	SEGMENT
??_C@_1BC@ICCOKLEG@?$AAs?$AAt?$AAd?$AA?3?$AA?3?$AAm?$AAa?$AAx@ DB 's', 00H
	DB	't', 00H, 'd', 00H, ':', 00H, ':', 00H, 'm', 00H, 'a', 00H, 'x'
	DB	00H, 00H, 00H				; `string'
CONST	ENDS
;	COMDAT ??_C@_1CK@NDNHPKPI@?$AA?$CC?$AAi?$AAn?$AAv?$AAa?$AAl?$AAi?$AAd?$AA?5?$AAc?$AAo?$AAm?$AAp?$AAa?$AAr@
CONST	SEGMENT
??_C@_1CK@NDNHPKPI@?$AA?$CC?$AAi?$AAn?$AAv?$AAa?$AAl?$AAi?$AAd?$AA?5?$AAc?$AAo?$AAm?$AAp?$AAa?$AAr@ DB '"'
	DB	00H, 'i', 00H, 'n', 00H, 'v', 00H, 'a', 00H, 'l', 00H, 'i', 00H
	DB	'd', 00H, ' ', 00H, 'c', 00H, 'o', 00H, 'm', 00H, 'p', 00H, 'a'
	DB	00H, 'r', 00H, 'a', 00H, 't', 00H, 'o', 00H, 'r', 00H, '"', 00H
	DB	00H, 00H					; `string'
CONST	ENDS
;	COMDAT ??_C@_1BC@BLAPCBGI@?$AAs?$AAt?$AAd?$AA?3?$AA?3?$AAm?$AAi?$AAn@
CONST	SEGMENT
??_C@_1BC@BLAPCBGI@?$AAs?$AAt?$AAd?$AA?3?$AA?3?$AAm?$AAi?$AAn@ DB 's', 00H
	DB	't', 00H, 'd', 00H, ':', 00H, ':', 00H, 'm', 00H, 'i', 00H, 'n'
	DB	00H, 00H, 00H				; `string'
CONST	ENDS
;	COMDAT ??_C@_1NE@FKBPBJEB@?$AAc?$AA?3?$AA?2?$AAp?$AAr?$AAo?$AAg?$AAr?$AAa?$AAm?$AA?5?$AAf?$AAi?$AAl?$AAe@
CONST	SEGMENT
??_C@_1NE@FKBPBJEB@?$AAc?$AA?3?$AA?2?$AAp?$AAr?$AAo?$AAg?$AAr?$AAa?$AAm?$AA?5?$AAf?$AAi?$AAl?$AAe@ DB 'c'
	DB	00H, ':', 00H, '\', 00H, 'p', 00H, 'r', 00H, 'o', 00H, 'g', 00H
	DB	'r', 00H, 'a', 00H, 'm', 00H, ' ', 00H, 'f', 00H, 'i', 00H, 'l'
	DB	00H, 'e', 00H, 's', 00H, ' ', 00H, '(', 00H, 'x', 00H, '8', 00H
	DB	'6', 00H, ')', 00H, '\', 00H, 'm', 00H, 'i', 00H, 'c', 00H, 'r'
	DB	00H, 'o', 00H, 's', 00H, 'o', 00H, 'f', 00H, 't', 00H, ' ', 00H
	DB	'v', 00H, 'i', 00H, 's', 00H, 'u', 00H, 'a', 00H, 'l', 00H, ' '
	DB	00H, 's', 00H, 't', 00H, 'u', 00H, 'd', 00H, 'i', 00H, 'o', 00H
	DB	'\', 00H, '2', 00H, '0', 00H, '1', 00H, '7', 00H, '\', 00H, 'c'
	DB	00H, 'o', 00H, 'm', 00H, 'm', 00H, 'u', 00H, 'n', 00H, 'i', 00H
	DB	't', 00H, 'y', 00H, '\', 00H, 'v', 00H, 'c', 00H, '\', 00H, 't'
	DB	00H, 'o', 00H, 'o', 00H, 'l', 00H, 's', 00H, '\', 00H, 'm', 00H
	DB	's', 00H, 'v', 00H, 'c', 00H, '\', 00H, '1', 00H, '4', 00H, '.'
	DB	00H, '1', 00H, '6', 00H, '.', 00H, '2', 00H, '7', 00H, '0', 00H
	DB	'2', 00H, '3', 00H, '\', 00H, 'i', 00H, 'n', 00H, 'c', 00H, 'l'
	DB	00H, 'u', 00H, 'd', 00H, 'e', 00H, '\', 00H, 'a', 00H, 'l', 00H
	DB	'g', 00H, 'o', 00H, 'r', 00H, 'i', 00H, 't', 00H, 'h', 00H, 'm'
	DB	00H, 00H, 00H				; `string'
CONST	ENDS
;	COMDAT ??_C@_0GK@JMBMHIBC@c?3?2program?5files?5?$CIx86?$CJ?2microsof@
CONST	SEGMENT
??_C@_0GK@JMBMHIBC@c?3?2program?5files?5?$CIx86?$CJ?2microsof@ DB 'c:\pro'
	DB	'gram files (x86)\microsoft visual studio\2017\community\vc\to'
	DB	'ols\msvc\14.16.27023\include\algorithm', 00H ; `string'
CONST	ENDS
;	COMDAT ??_C@_0BD@FEEMDEPI@invalid?5comparator@
CONST	SEGMENT
??_C@_0BD@FEEMDEPI@invalid?5comparator@ DB 'invalid comparator', 00H ; `string'
CONST	ENDS
;	COMDAT ?__LINE__Var@?0??set_apache_infra_red_jammer_auto@@YGXH@Z@4JA
_DATA	SEGMENT
?__LINE__Var@?0??set_apache_infra_red_jammer_auto@@YGXH@Z@4JA DD 0241H ; `set_apache_infra_red_jammer_auto'::`1'::__LINE__Var
_DATA	ENDS
;	COMDAT ?__LINE__Var@?0??set_apache_infra_red_jammer_manual@@YGXH@Z@4JA
_DATA	SEGMENT
?__LINE__Var@?0??set_apache_infra_red_jammer_manual@@YGXH@Z@4JA DD 022fH ; `set_apache_infra_red_jammer_manual'::`1'::__LINE__Var
_DATA	ENDS
;	COMDAT ?__LINE__Var@?0??toggle_apache_infra_red_jammer_manual@@YGXXZ@4JA
_DATA	SEGMENT
?__LINE__Var@?0??toggle_apache_infra_red_jammer_manual@@YGXXZ@4JA DD 0217H ; `toggle_apache_infra_red_jammer_manual'::`1'::__LINE__Var
_DATA	ENDS
;	COMDAT ?__LINE__Var@?0??set_apache_radar_jammer_auto@@YGXH@Z@4JA
_DATA	SEGMENT
?__LINE__Var@?0??set_apache_radar_jammer_auto@@YGXH@Z@4JA DD 0205H ; `set_apache_radar_jammer_auto'::`1'::__LINE__Var
_DATA	ENDS
;	COMDAT ?__LINE__Var@?0??set_apache_radar_jammer_manual@@YGXH@Z@4JA
_DATA	SEGMENT
?__LINE__Var@?0??set_apache_radar_jammer_manual@@YGXH@Z@4JA DD 01f3H ; `set_apache_radar_jammer_manual'::`1'::__LINE__Var
_DATA	ENDS
;	COMDAT ?__LINE__Var@?0??toggle_apache_radar_jammer_manual@@YGXXZ@4JA
_DATA	SEGMENT
?__LINE__Var@?0??toggle_apache_radar_jammer_manual@@YGXXZ@4JA DD 01dbH ; `toggle_apache_radar_jammer_manual'::`1'::__LINE__Var
_DATA	ENDS
;	COMDAT ?__LINE__Var@?0??update_apache_weapon_systems@@YGXXZ@4JA
_DATA	SEGMENT
?__LINE__Var@?0??update_apache_weapon_systems@@YGXXZ@4JA DD 0b2H ; `update_apache_weapon_systems'::`1'::__LINE__Var
_DATA	ENDS
;	COMDAT ??_C@_02LFNMGJAP@en@
CONST	SEGMENT
??_C@_02LFNMGJAP@en@ DB 'en', 00H			; `string'
CONST	ENDS
;	COMDAT ??_C@_0EO@EDKDEHLB@c?3?2users?2nhv90?2projects?2eech?2ap@
CONST	SEGMENT
??_C@_0EO@EDKDEHLB@c?3?2users?2nhv90?2projects?2eech?2ap@ DB 'c:\users\nh'
	DB	'v90\projects\eech\aphavoc\source\gunships\avionics\apache\ap_'
	DB	'wpn.c', 00H					; `string'
CONST	ENDS
;	COMDAT ?__LINE__Var@?0??apply_weapon_recoil_effect@@YGXPAUENTITY@@H@Z@4JA
_DATA	SEGMENT
?__LINE__Var@?0??apply_weapon_recoil_effect@@YGXPAUENTITY@@H@Z@4JA DD 065H ; `apply_weapon_recoil_effect'::`1'::__LINE__Var
_DATA	ENDS
;	COMDAT ??_C@_02DKCKIIND@?$CFs@
CONST	SEGMENT
??_C@_02DKCKIIND@?$CFs@ DB '%s', 00H			; `string'
CONST	ENDS
; Function compile flags: /Odtp /ZI
; File c:\program files (x86)\microsoft visual studio\2017\community\vc\tools\msvc\14.16.27023\include\algorithm
;	COMDAT ??$max@H@std@@YGABHABH0@Z
_TEXT	SEGMENT
__Left$ = 8						; size = 4
__Right$ = 12						; size = 4
??$max@H@std@@YGABHABH0@Z PROC				; std::max<int>, COMDAT

; 5387 : 	{	// return larger of _Left and _Right

  00000	55		 push	 ebp
  00001	8b ec		 mov	 ebp, esp
  00003	83 ec 40	 sub	 esp, 64			; 00000040H
  00006	53		 push	 ebx
  00007	56		 push	 esi
  00008	57		 push	 edi

; 5388 : 	if (_Left < _Right)

  00009	8b 45 08	 mov	 eax, DWORD PTR __Left$[ebp]
  0000c	8b 4d 0c	 mov	 ecx, DWORD PTR __Right$[ebp]
  0000f	8b 10		 mov	 edx, DWORD PTR [eax]
  00011	3b 11		 cmp	 edx, DWORD PTR [ecx]
  00013	7d 61		 jge	 SHORT $LN8@max
$LN4@max:

; 5389 : 		{
; 5390 : 		_STL_ASSERT(!(_Right < _Left), "invalid comparator");

  00015	8b 45 0c	 mov	 eax, DWORD PTR __Right$[ebp]
  00018	8b 4d 08	 mov	 ecx, DWORD PTR __Left$[ebp]
  0001b	8b 10		 mov	 edx, DWORD PTR [eax]
  0001d	3b 11		 cmp	 edx, DWORD PTR [ecx]
  0001f	7c 02		 jl	 SHORT $LN7@max
  00021	eb 4a		 jmp	 SHORT $LN2@max
$LN7@max:
  00023	68 00 00 00 00	 push	 OFFSET ??_C@_0BD@FEEMDEPI@invalid?5comparator@
  00028	68 00 00 00 00	 push	 OFFSET ??_C@_02DKCKIIND@?$CFs@
  0002d	6a 00		 push	 0
  0002f	68 0e 15 00 00	 push	 5390			; 0000150eH
  00034	68 00 00 00 00	 push	 OFFSET ??_C@_0GK@JMBMHIBC@c?3?2program?5files?5?$CIx86?$CJ?2microsof@
  00039	6a 02		 push	 2
  0003b	ff 15 00 00 00
	00		 call	 DWORD PTR __imp___CrtDbgReport
  00041	83 c4 18	 add	 esp, 24			; 00000018H
  00044	83 f8 01	 cmp	 eax, 1
  00047	75 01		 jne	 SHORT $LN12@max
  00049	cc		 int	 3
$LN12@max:
  0004a	6a 00		 push	 0
  0004c	68 0e 15 00 00	 push	 5390			; 0000150eH
  00051	68 00 00 00 00	 push	 OFFSET ??_C@_1NE@FKBPBJEB@?$AAc?$AA?3?$AA?2?$AAp?$AAr?$AAo?$AAg?$AAr?$AAa?$AAm?$AA?5?$AAf?$AAi?$AAl?$AAe@
  00056	68 00 00 00 00	 push	 OFFSET ??_C@_1BC@ICCOKLEG@?$AAs?$AAt?$AAd?$AA?3?$AA?3?$AAm?$AAa?$AAx@
  0005b	68 00 00 00 00	 push	 OFFSET ??_C@_1CK@NDNHPKPI@?$AA?$CC?$AAi?$AAn?$AAv?$AAa?$AAl?$AAi?$AAd?$AA?5?$AAc?$AAo?$AAm?$AAp?$AAa?$AAr@
  00060	ff 15 00 00 00
	00		 call	 DWORD PTR __imp___invalid_parameter
  00066	83 c4 14	 add	 esp, 20			; 00000014H
  00069	33 c0		 xor	 eax, eax
  0006b	75 b6		 jne	 SHORT $LN7@max
$LN2@max:
  0006d	33 c0		 xor	 eax, eax
  0006f	75 a4		 jne	 SHORT $LN4@max

; 5391 : 		return (_Right);

  00071	8b 45 0c	 mov	 eax, DWORD PTR __Right$[ebp]
  00074	eb 03		 jmp	 SHORT $LN11@max
$LN8@max:

; 5392 : 		}
; 5393 : 
; 5394 : 	return (_Left);

  00076	8b 45 08	 mov	 eax, DWORD PTR __Left$[ebp]
$LN11@max:

; 5395 : 	}

  00079	5f		 pop	 edi
  0007a	5e		 pop	 esi
  0007b	5b		 pop	 ebx
  0007c	8b e5		 mov	 esp, ebp
  0007e	5d		 pop	 ebp
  0007f	c2 08 00	 ret	 8
??$max@H@std@@YGABHABH0@Z ENDP				; std::max<int>
_TEXT	ENDS
; Function compile flags: /Odtp /ZI
; File c:\program files (x86)\microsoft visual studio\2017\community\vc\tools\msvc\14.16.27023\include\algorithm
;	COMDAT ??$min@H@std@@YGABHABH0@Z
_TEXT	SEGMENT
__Left$ = 8						; size = 4
__Right$ = 12						; size = 4
??$min@H@std@@YGABHABH0@Z PROC				; std::min<int>, COMDAT

; 5427 : 	{	// return smaller of _Left and _Right

  00000	55		 push	 ebp
  00001	8b ec		 mov	 ebp, esp
  00003	83 ec 40	 sub	 esp, 64			; 00000040H
  00006	53		 push	 ebx
  00007	56		 push	 esi
  00008	57		 push	 edi

; 5428 : 	if (_Right < _Left)

  00009	8b 45 0c	 mov	 eax, DWORD PTR __Right$[ebp]
  0000c	8b 4d 08	 mov	 ecx, DWORD PTR __Left$[ebp]
  0000f	8b 10		 mov	 edx, DWORD PTR [eax]
  00011	3b 11		 cmp	 edx, DWORD PTR [ecx]
  00013	7d 61		 jge	 SHORT $LN8@min
$LN4@min:

; 5429 : 		{
; 5430 : 		_STL_ASSERT(!(_Left < _Right), "invalid comparator");

  00015	8b 45 08	 mov	 eax, DWORD PTR __Left$[ebp]
  00018	8b 4d 0c	 mov	 ecx, DWORD PTR __Right$[ebp]
  0001b	8b 10		 mov	 edx, DWORD PTR [eax]
  0001d	3b 11		 cmp	 edx, DWORD PTR [ecx]
  0001f	7c 02		 jl	 SHORT $LN7@min
  00021	eb 4a		 jmp	 SHORT $LN2@min
$LN7@min:
  00023	68 00 00 00 00	 push	 OFFSET ??_C@_0BD@FEEMDEPI@invalid?5comparator@
  00028	68 00 00 00 00	 push	 OFFSET ??_C@_02DKCKIIND@?$CFs@
  0002d	6a 00		 push	 0
  0002f	68 36 15 00 00	 push	 5430			; 00001536H
  00034	68 00 00 00 00	 push	 OFFSET ??_C@_0GK@JMBMHIBC@c?3?2program?5files?5?$CIx86?$CJ?2microsof@
  00039	6a 02		 push	 2
  0003b	ff 15 00 00 00
	00		 call	 DWORD PTR __imp___CrtDbgReport
  00041	83 c4 18	 add	 esp, 24			; 00000018H
  00044	83 f8 01	 cmp	 eax, 1
  00047	75 01		 jne	 SHORT $LN12@min
  00049	cc		 int	 3
$LN12@min:
  0004a	6a 00		 push	 0
  0004c	68 36 15 00 00	 push	 5430			; 00001536H
  00051	68 00 00 00 00	 push	 OFFSET ??_C@_1NE@FKBPBJEB@?$AAc?$AA?3?$AA?2?$AAp?$AAr?$AAo?$AAg?$AAr?$AAa?$AAm?$AA?5?$AAf?$AAi?$AAl?$AAe@
  00056	68 00 00 00 00	 push	 OFFSET ??_C@_1BC@BLAPCBGI@?$AAs?$AAt?$AAd?$AA?3?$AA?3?$AAm?$AAi?$AAn@
  0005b	68 00 00 00 00	 push	 OFFSET ??_C@_1CK@NDNHPKPI@?$AA?$CC?$AAi?$AAn?$AAv?$AAa?$AAl?$AAi?$AAd?$AA?5?$AAc?$AAo?$AAm?$AAp?$AAa?$AAr@
  00060	ff 15 00 00 00
	00		 call	 DWORD PTR __imp___invalid_parameter
  00066	83 c4 14	 add	 esp, 20			; 00000014H
  00069	33 c0		 xor	 eax, eax
  0006b	75 b6		 jne	 SHORT $LN7@min
$LN2@min:
  0006d	33 c0		 xor	 eax, eax
  0006f	75 a4		 jne	 SHORT $LN4@min

; 5431 : 		return (_Right);

  00071	8b 45 0c	 mov	 eax, DWORD PTR __Right$[ebp]
  00074	eb 03		 jmp	 SHORT $LN11@min
$LN8@min:

; 5432 : 		}
; 5433 : 
; 5434 : 	return (_Left);

  00076	8b 45 08	 mov	 eax, DWORD PTR __Left$[ebp]
$LN11@min:

; 5435 : 	}

  00079	5f		 pop	 edi
  0007a	5e		 pop	 esi
  0007b	5b		 pop	 ebx
  0007c	8b e5		 mov	 esp, ebp
  0007e	5d		 pop	 ebp
  0007f	c2 08 00	 ret	 8
??$min@H@std@@YGABHABH0@Z ENDP				; std::min<int>
_TEXT	ENDS
; Function compile flags: /Odtp /ZI
; File c:\users\nhv90\projects\eech\aphavoc\source\gunships\avionics\apache\ap_wpn.c
;	COMDAT ?apply_weapon_recoil_effect@@YGXPAUENTITY@@H@Z
_TEXT	SEGMENT
tv73 = -124						; size = 4
_vp$ = -56						; size = 48
_strength$ = -8						; size = 4
_duration$ = -4						; size = 4
_en$ = 8						; size = 4
_selected_weapon$ = 12					; size = 4
?apply_weapon_recoil_effect@@YGXPAUENTITY@@H@Z PROC	; apply_weapon_recoil_effect, COMDAT

; 101  : {

  00000	55		 push	 ebp
  00001	8b ec		 mov	 ebp, esp
  00003	83 ec 7c	 sub	 esp, 124		; 0000007cH
  00006	53		 push	 ebx
  00007	56		 push	 esi
  00008	57		 push	 edi

; 102  : 	float
; 103  : 		duration,
; 104  : 		strength;
; 105  : 
; 106  : 	viewpoint
; 107  : 		vp;
; 108  : 
; 109  : 	ASSERT (en);

  00009	83 7d 08 00	 cmp	 DWORD PTR _en$[ebp], 0
  0000d	75 18		 jne	 SHORT $LN4@apply_weap
  0000f	a1 00 00 00 00	 mov	 eax, DWORD PTR ?__LINE__Var@?0??apply_weapon_recoil_effect@@YGXPAUENTITY@@H@Z@4JA
  00014	83 c0 08	 add	 eax, 8
  00017	50		 push	 eax
  00018	68 00 00 00 00	 push	 OFFSET ??_C@_0EO@EDKDEHLB@c?3?2users?2nhv90?2projects?2eech?2ap@
  0001d	68 00 00 00 00	 push	 OFFSET ??_C@_02LFNMGJAP@en@
  00022	e8 00 00 00 00	 call	 ?process_assert@@YGXPBD0H@Z ; process_assert
$LN4@apply_weap:

; 110  : 
; 111  : 	if (get_local_entity_selected_weapon_viewpoint (en, &vp))

  00027	8d 45 c8	 lea	 eax, DWORD PTR _vp$[ebp]
  0002a	50		 push	 eax
  0002b	8b 4d 08	 mov	 ecx, DWORD PTR _en$[ebp]
  0002e	51		 push	 ecx
  0002f	e8 00 00 00 00	 call	 ?get_local_entity_selected_weapon_viewpoint@@YGHPAUENTITY@@PAUVIEWPOINT@@@Z ; get_local_entity_selected_weapon_viewpoint
  00034	85 c0		 test	 eax, eax
  00036	0f 84 cd 00 00
	00		 je	 $LN5@apply_weap

; 112  : 	{
; 113  : 		switch (selected_weapon)

  0003c	8b 45 0c	 mov	 eax, DWORD PTR _selected_weapon$[ebp]
  0003f	89 45 84	 mov	 DWORD PTR tv73[ebp], eax
  00042	8b 4d 84	 mov	 ecx, DWORD PTR tv73[ebp]
  00045	83 e9 07	 sub	 ecx, 7
  00048	89 4d 84	 mov	 DWORD PTR tv73[ebp], ecx
  0004b	83 7d 84 27	 cmp	 DWORD PTR tv73[ebp], 39	; 00000027H
  0004f	0f 87 81 00 00
	00		 ja	 $LN10@apply_weap
  00055	8b 55 84	 mov	 edx, DWORD PTR tv73[ebp]
  00058	0f b6 82 00 00
	00 00		 movzx	 eax, BYTE PTR $LN12@apply_weap[edx]
  0005f	ff 24 85 00 00
	00 00		 jmp	 DWORD PTR $LN13@apply_weap[eax*4]
$LN6@apply_weap:

; 114  : 		{
; 115  : 			////////////////////////////////////////
; 116  : 			case ENTITY_SUB_TYPE_WEAPON_M230_30MM_ROUND:
; 117  : 			////////////////////////////////////////
; 118  : 			{
; 119  : 				duration = 0.2;

  00066	f3 0f 10 05 00
	00 00 00	 movss	 xmm0, DWORD PTR __real@3e4ccccd
  0006e	f3 0f 11 45 fc	 movss	 DWORD PTR _duration$[ebp], xmm0

; 120  : 
; 121  : 				strength = 3.0;

  00073	f3 0f 10 05 00
	00 00 00	 movss	 xmm0, DWORD PTR __real@40400000
  0007b	f3 0f 11 45 f8	 movss	 DWORD PTR _strength$[ebp], xmm0

; 122  : 
; 123  : 				break;

  00080	eb 64		 jmp	 SHORT $LN2@apply_weap
$LN7@apply_weap:

; 124  : 			}
; 125  : 			////////////////////////////////////////
; 126  : 			case ENTITY_SUB_TYPE_WEAPON_AIM92_STINGER:
; 127  : 			////////////////////////////////////////
; 128  : 			{
; 129  : 				duration = 0.6;

  00082	f3 0f 10 05 00
	00 00 00	 movss	 xmm0, DWORD PTR __real@3f19999a
  0008a	f3 0f 11 45 fc	 movss	 DWORD PTR _duration$[ebp], xmm0

; 130  : 
; 131  : 				strength = 10.0;

  0008f	f3 0f 10 05 00
	00 00 00	 movss	 xmm0, DWORD PTR __real@41200000
  00097	f3 0f 11 45 f8	 movss	 DWORD PTR _strength$[ebp], xmm0

; 132  : 
; 133  : 				break;

  0009c	eb 48		 jmp	 SHORT $LN2@apply_weap
$LN8@apply_weap:

; 134  : 			}
; 135  : 			////////////////////////////////////////
; 136  : 			case ENTITY_SUB_TYPE_WEAPON_AGM114L_LONGBOW_HELLFIRE:
; 137  : 			case ENTITY_SUB_TYPE_WEAPON_AGM114K_HELLFIRE_II:
; 138  : 			////////////////////////////////////////
; 139  : 			{
; 140  : 				duration = 0.5;

  0009e	f3 0f 10 05 00
	00 00 00	 movss	 xmm0, DWORD PTR __real@3f000000
  000a6	f3 0f 11 45 fc	 movss	 DWORD PTR _duration$[ebp], xmm0

; 141  : 
; 142  : 				strength = 10.0;

  000ab	f3 0f 10 05 00
	00 00 00	 movss	 xmm0, DWORD PTR __real@41200000
  000b3	f3 0f 11 45 f8	 movss	 DWORD PTR _strength$[ebp], xmm0

; 143  : 
; 144  : 				break;

  000b8	eb 2c		 jmp	 SHORT $LN2@apply_weap
$LN9@apply_weap:

; 145  : 			}
; 146  : 			////////////////////////////////////////
; 147  : 			case ENTITY_SUB_TYPE_WEAPON_HYDRA70_M255:
; 148  : 			case ENTITY_SUB_TYPE_WEAPON_HYDRA70_M261:
; 149  : 			////////////////////////////////////////
; 150  : 			{
; 151  : 				duration = 0.7;

  000ba	f3 0f 10 05 00
	00 00 00	 movss	 xmm0, DWORD PTR __real@3f333333
  000c2	f3 0f 11 45 fc	 movss	 DWORD PTR _duration$[ebp], xmm0

; 152  : 
; 153  : 				strength = 8.0;

  000c7	f3 0f 10 05 00
	00 00 00	 movss	 xmm0, DWORD PTR __real@41000000
  000cf	f3 0f 11 45 f8	 movss	 DWORD PTR _strength$[ebp], xmm0

; 154  : 
; 155  : 				break;

  000d4	eb 10		 jmp	 SHORT $LN2@apply_weap
$LN10@apply_weap:

; 156  : 			}
; 157  : 			////////////////////////////////////////
; 158  : 			default:
; 159  : 			////////////////////////////////////////
; 160  : 			{
; 161  : 				duration = 0.0;

  000d6	0f 57 c0	 xorps	 xmm0, xmm0
  000d9	f3 0f 11 45 fc	 movss	 DWORD PTR _duration$[ebp], xmm0

; 162  : 
; 163  : 				strength = 0.0;

  000de	0f 57 c0	 xorps	 xmm0, xmm0
  000e1	f3 0f 11 45 f8	 movss	 DWORD PTR _strength$[ebp], xmm0
$LN2@apply_weap:

; 164  : 
; 165  : 				break;
; 166  : 			}
; 167  : 		}
; 168  : 
; 169  : 		add_dynamic_weapon_launch_force (&vp.position, &vp.zv, strength, duration);

  000e6	51		 push	 ecx
  000e7	f3 0f 10 45 fc	 movss	 xmm0, DWORD PTR _duration$[ebp]
  000ec	f3 0f 11 04 24	 movss	 DWORD PTR [esp], xmm0
  000f1	51		 push	 ecx
  000f2	f3 0f 10 45 f8	 movss	 xmm0, DWORD PTR _strength$[ebp]
  000f7	f3 0f 11 04 24	 movss	 DWORD PTR [esp], xmm0
  000fc	8d 45 ec	 lea	 eax, DWORD PTR _vp$[ebp+36]
  000ff	50		 push	 eax
  00100	8d 4d c8	 lea	 ecx, DWORD PTR _vp$[ebp]
  00103	51		 push	 ecx
  00104	e8 00 00 00 00	 call	 ?add_dynamic_weapon_launch_force@@YGXPAUVEC3D@@0MM@Z ; add_dynamic_weapon_launch_force
$LN5@apply_weap:

; 170  : 	}
; 171  : }

  00109	5f		 pop	 edi
  0010a	5e		 pop	 esi
  0010b	5b		 pop	 ebx
  0010c	8b e5		 mov	 esp, ebp
  0010e	5d		 pop	 ebp
  0010f	c2 08 00	 ret	 8
  00112	66 90		 npad	 2
$LN13@apply_weap:
  00114	00 00 00 00	 DD	 $LN6@apply_weap
  00118	00 00 00 00	 DD	 $LN9@apply_weap
  0011c	00 00 00 00	 DD	 $LN7@apply_weap
  00120	00 00 00 00	 DD	 $LN8@apply_weap
  00124	00 00 00 00	 DD	 $LN10@apply_weap
$LN12@apply_weap:
  00128	00		 DB	 0
  00129	04		 DB	 4
  0012a	04		 DB	 4
  0012b	04		 DB	 4
  0012c	04		 DB	 4
  0012d	04		 DB	 4
  0012e	04		 DB	 4
  0012f	04		 DB	 4
  00130	04		 DB	 4
  00131	04		 DB	 4
  00132	04		 DB	 4
  00133	04		 DB	 4
  00134	04		 DB	 4
  00135	04		 DB	 4
  00136	04		 DB	 4
  00137	04		 DB	 4
  00138	04		 DB	 4
  00139	04		 DB	 4
  0013a	04		 DB	 4
  0013b	04		 DB	 4
  0013c	04		 DB	 4
  0013d	04		 DB	 4
  0013e	04		 DB	 4
  0013f	01		 DB	 1
  00140	01		 DB	 1
  00141	04		 DB	 4
  00142	04		 DB	 4
  00143	04		 DB	 4
  00144	04		 DB	 4
  00145	02		 DB	 2
  00146	04		 DB	 4
  00147	04		 DB	 4
  00148	04		 DB	 4
  00149	04		 DB	 4
  0014a	04		 DB	 4
  0014b	04		 DB	 4
  0014c	04		 DB	 4
  0014d	04		 DB	 4
  0014e	03		 DB	 3
  0014f	03		 DB	 3
?apply_weapon_recoil_effect@@YGXPAUENTITY@@H@Z ENDP	; apply_weapon_recoil_effect
_TEXT	ENDS
; Function compile flags: /Odtp /ZI
; File c:\users\nhv90\projects\eech\aphavoc\source\gunships\avionics\apache\ap_wpn.c
;	COMDAT ?set_apache_infra_red_jammer_auto@@YGXH@Z
_TEXT	SEGMENT
tv133 = -72						; size = 4
tv80 = -72						; size = 4
tv93 = -68						; size = 4
tv73 = -68						; size = 4
_state$ = 8						; size = 4
?set_apache_infra_red_jammer_auto@@YGXH@Z PROC		; set_apache_infra_red_jammer_auto, COMDAT

; 577  : {

  00000	55		 push	 ebp
  00001	8b ec		 mov	 ebp, esp
  00003	83 ec 48	 sub	 esp, 72			; 00000048H
  00006	53		 push	 ebx
  00007	56		 push	 esi
  00008	57		 push	 edi

; 578  : 	if (!apache_damage.infra_red_jammer)

  00009	a1 00 00 00 00	 mov	 eax, DWORD PTR ?apache_damage@@3TAPACHE_DAMAGE_FLAGS@@A ; apache_damage
  0000e	c1 e8 08	 shr	 eax, 8
  00011	83 e0 01	 and	 eax, 1
  00014	0f 85 24 01 00
	00		 jne	 $LN1@set_apache

; 579  : 	{
; 580  : 		if (get_global_auto_counter_measures ())

  0001a	83 3d 90 00 00
	00 00		 cmp	 DWORD PTR ?global_options@@3UGLOBAL_OPTIONS_DATA@@A+144, 0
  00021	0f 84 17 01 00
	00		 je	 $LN1@set_apache

; 581  : 		{
; 582  : 			if (state != get_local_entity_int_value (get_gunship_entity (), INT_TYPE_INFRA_RED_JAMMER_ON))

  00027	83 3d 00 00 00
	00 00		 cmp	 DWORD PTR ?gunship_entity@@3PAUENTITY@@A, 0 ; gunship_entity
  0002e	74 0c		 je	 SHORT $LN6@set_apache
  00030	a1 00 00 00 00	 mov	 eax, DWORD PTR ?gunship_entity@@3PAUENTITY@@A ; gunship_entity
  00035	8b 08		 mov	 ecx, DWORD PTR [eax]
  00037	89 4d bc	 mov	 DWORD PTR tv73[ebp], ecx
  0003a	eb 1d		 jmp	 SHORT $LN7@set_apache
$LN6@set_apache:
  0003c	68 46 02 00 00	 push	 582			; 00000246H
  00041	68 00 00 00 00	 push	 OFFSET ??_C@_0EO@EDKDEHLB@c?3?2users?2nhv90?2projects?2eech?2ap@
  00046	8b 15 00 00 00
	00		 mov	 edx, DWORD PTR ?null_entity_pointer_message@@3PBDB ; null_entity_pointer_message
  0004c	52		 push	 edx
  0004d	e8 00 00 00 00	 call	 ?process_assert@@YGXPBD0H@Z ; process_assert
  00052	c7 45 bc 00 00
	00 00		 mov	 DWORD PTR tv73[ebp], 0
$LN7@set_apache:
  00059	b8 01 00 00 00	 mov	 eax, 1
  0005e	85 c0		 test	 eax, eax
  00060	74 09		 je	 SHORT $LN8@set_apache
  00062	c7 45 b8 68 00
	00 00		 mov	 DWORD PTR tv80[ebp], 104 ; 00000068H
  00069	eb 1d		 jmp	 SHORT $LN9@set_apache
$LN8@set_apache:
  0006b	68 46 02 00 00	 push	 582			; 00000246H
  00070	68 00 00 00 00	 push	 OFFSET ??_C@_0EO@EDKDEHLB@c?3?2users?2nhv90?2projects?2eech?2ap@
  00075	8b 0d 00 00 00
	00		 mov	 ecx, DWORD PTR ?overload_invalid_int_type_message@@3PBDB ; overload_invalid_int_type_message
  0007b	51		 push	 ecx
  0007c	e8 00 00 00 00	 call	 ?process_assert@@YGXPBD0H@Z ; process_assert
  00081	c7 45 b8 00 00
	00 00		 mov	 DWORD PTR tv80[ebp], 0
$LN9@set_apache:
  00088	6a 68		 push	 104			; 00000068H
  0008a	8b 15 00 00 00
	00		 mov	 edx, DWORD PTR ?gunship_entity@@3PAUENTITY@@A ; gunship_entity
  00090	52		 push	 edx
  00091	69 45 bc 5c 04
	00 00		 imul	 eax, DWORD PTR tv73[ebp], 1116
  00098	8b 4d b8	 mov	 ecx, DWORD PTR tv80[ebp]
  0009b	8b 94 88 00 00
	00 00		 mov	 edx, DWORD PTR ?fn_get_local_entity_int_value@@3PAY0BBH@P6GHPAUENTITY@@W4INT_TYPES@@@ZA[eax+ecx*4]
  000a2	ff d2		 call	 edx
  000a4	39 45 08	 cmp	 DWORD PTR _state$[ebp], eax
  000a7	0f 84 91 00 00
	00		 je	 $LN1@set_apache

; 583  : 			{
; 584  : 				set_client_server_entity_int_value (get_gunship_entity (), INT_TYPE_INFRA_RED_JAMMER_ON, state);

  000ad	83 3d 00 00 00
	00 00		 cmp	 DWORD PTR ?gunship_entity@@3PAUENTITY@@A, 0 ; gunship_entity
  000b4	74 0c		 je	 SHORT $LN10@set_apache
  000b6	a1 00 00 00 00	 mov	 eax, DWORD PTR ?gunship_entity@@3PAUENTITY@@A ; gunship_entity
  000bb	8b 08		 mov	 ecx, DWORD PTR [eax]
  000bd	89 4d bc	 mov	 DWORD PTR tv93[ebp], ecx
  000c0	eb 21		 jmp	 SHORT $LN11@set_apache
$LN10@set_apache:
  000c2	8b 15 00 00 00
	00		 mov	 edx, DWORD PTR ?__LINE__Var@?0??set_apache_infra_red_jammer_auto@@YGXH@Z@4JA
  000c8	83 c2 07	 add	 edx, 7
  000cb	52		 push	 edx
  000cc	68 00 00 00 00	 push	 OFFSET ??_C@_0EO@EDKDEHLB@c?3?2users?2nhv90?2projects?2eech?2ap@
  000d1	a1 00 00 00 00	 mov	 eax, DWORD PTR ?null_entity_pointer_message@@3PBDB ; null_entity_pointer_message
  000d6	50		 push	 eax
  000d7	e8 00 00 00 00	 call	 ?process_assert@@YGXPBD0H@Z ; process_assert
  000dc	c7 45 bc 00 00
	00 00		 mov	 DWORD PTR tv93[ebp], 0
$LN11@set_apache:
  000e3	b9 01 00 00 00	 mov	 ecx, 1
  000e8	85 c9		 test	 ecx, ecx
  000ea	74 09		 je	 SHORT $LN12@set_apache
  000ec	c7 45 b8 68 00
	00 00		 mov	 DWORD PTR tv133[ebp], 104 ; 00000068H
  000f3	eb 21		 jmp	 SHORT $LN13@set_apache
$LN12@set_apache:
  000f5	8b 15 00 00 00
	00		 mov	 edx, DWORD PTR ?__LINE__Var@?0??set_apache_infra_red_jammer_auto@@YGXH@Z@4JA
  000fb	83 c2 07	 add	 edx, 7
  000fe	52		 push	 edx
  000ff	68 00 00 00 00	 push	 OFFSET ??_C@_0EO@EDKDEHLB@c?3?2users?2nhv90?2projects?2eech?2ap@
  00104	a1 00 00 00 00	 mov	 eax, DWORD PTR ?overload_invalid_int_type_message@@3PBDB ; overload_invalid_int_type_message
  00109	50		 push	 eax
  0010a	e8 00 00 00 00	 call	 ?process_assert@@YGXPBD0H@Z ; process_assert
  0010f	c7 45 b8 00 00
	00 00		 mov	 DWORD PTR tv133[ebp], 0
$LN13@set_apache:
  00116	8b 4d 08	 mov	 ecx, DWORD PTR _state$[ebp]
  00119	51		 push	 ecx
  0011a	6a 68		 push	 104			; 00000068H
  0011c	8b 15 00 00 00
	00		 mov	 edx, DWORD PTR ?gunship_entity@@3PAUENTITY@@A ; gunship_entity
  00122	52		 push	 edx
  00123	69 45 bc b8 08
	00 00		 imul	 eax, DWORD PTR tv93[ebp], 2232
  0012a	8b 4d b8	 mov	 ecx, DWORD PTR tv133[ebp]
  0012d	8d 94 c8 00 00
	00 00		 lea	 edx, DWORD PTR ?fn_set_client_server_entity_int_value@@3PAY1BBH@1P6GXPAUENTITY@@W4INT_TYPES@@H@ZA[eax+ecx*8]
  00134	a1 00 00 00 00	 mov	 eax, DWORD PTR ?system_comms_model@@3W4COMMS_MODEL_TYPES@@A ; system_comms_model
  00139	8b 0c 82	 mov	 ecx, DWORD PTR [edx+eax*4]
  0013c	ff d1		 call	 ecx
$LN1@set_apache:

; 585  : 			}
; 586  : 		}
; 587  : 	}
; 588  : }

  0013e	5f		 pop	 edi
  0013f	5e		 pop	 esi
  00140	5b		 pop	 ebx
  00141	8b e5		 mov	 esp, ebp
  00143	5d		 pop	 ebp
  00144	c2 04 00	 ret	 4
?set_apache_infra_red_jammer_auto@@YGXH@Z ENDP		; set_apache_infra_red_jammer_auto
_TEXT	ENDS
; Function compile flags: /Odtp /ZI
; File c:\users\nhv90\projects\eech\aphavoc\source\gunships\avionics\apache\ap_wpn.c
;	COMDAT ?set_apache_infra_red_jammer_manual@@YGXH@Z
_TEXT	SEGMENT
tv133 = -72						; size = 4
tv80 = -72						; size = 4
tv93 = -68						; size = 4
tv73 = -68						; size = 4
_state$ = 8						; size = 4
?set_apache_infra_red_jammer_manual@@YGXH@Z PROC	; set_apache_infra_red_jammer_manual, COMDAT

; 559  : {

  00000	55		 push	 ebp
  00001	8b ec		 mov	 ebp, esp
  00003	83 ec 48	 sub	 esp, 72			; 00000048H
  00006	53		 push	 ebx
  00007	56		 push	 esi
  00008	57		 push	 edi

; 560  : 	if (!apache_damage.infra_red_jammer)

  00009	a1 00 00 00 00	 mov	 eax, DWORD PTR ?apache_damage@@3TAPACHE_DAMAGE_FLAGS@@A ; apache_damage
  0000e	c1 e8 08	 shr	 eax, 8
  00011	83 e0 01	 and	 eax, 1
  00014	0f 85 24 01 00
	00		 jne	 $LN1@set_apache

; 561  : 	{
; 562  : 		if (!get_global_auto_counter_measures ())

  0001a	83 3d 90 00 00
	00 00		 cmp	 DWORD PTR ?global_options@@3UGLOBAL_OPTIONS_DATA@@A+144, 0
  00021	0f 85 17 01 00
	00		 jne	 $LN1@set_apache

; 563  : 		{
; 564  : 			if (state != get_local_entity_int_value (get_gunship_entity (), INT_TYPE_INFRA_RED_JAMMER_ON))

  00027	83 3d 00 00 00
	00 00		 cmp	 DWORD PTR ?gunship_entity@@3PAUENTITY@@A, 0 ; gunship_entity
  0002e	74 0c		 je	 SHORT $LN6@set_apache
  00030	a1 00 00 00 00	 mov	 eax, DWORD PTR ?gunship_entity@@3PAUENTITY@@A ; gunship_entity
  00035	8b 08		 mov	 ecx, DWORD PTR [eax]
  00037	89 4d bc	 mov	 DWORD PTR tv73[ebp], ecx
  0003a	eb 1d		 jmp	 SHORT $LN7@set_apache
$LN6@set_apache:
  0003c	68 34 02 00 00	 push	 564			; 00000234H
  00041	68 00 00 00 00	 push	 OFFSET ??_C@_0EO@EDKDEHLB@c?3?2users?2nhv90?2projects?2eech?2ap@
  00046	8b 15 00 00 00
	00		 mov	 edx, DWORD PTR ?null_entity_pointer_message@@3PBDB ; null_entity_pointer_message
  0004c	52		 push	 edx
  0004d	e8 00 00 00 00	 call	 ?process_assert@@YGXPBD0H@Z ; process_assert
  00052	c7 45 bc 00 00
	00 00		 mov	 DWORD PTR tv73[ebp], 0
$LN7@set_apache:
  00059	b8 01 00 00 00	 mov	 eax, 1
  0005e	85 c0		 test	 eax, eax
  00060	74 09		 je	 SHORT $LN8@set_apache
  00062	c7 45 b8 68 00
	00 00		 mov	 DWORD PTR tv80[ebp], 104 ; 00000068H
  00069	eb 1d		 jmp	 SHORT $LN9@set_apache
$LN8@set_apache:
  0006b	68 34 02 00 00	 push	 564			; 00000234H
  00070	68 00 00 00 00	 push	 OFFSET ??_C@_0EO@EDKDEHLB@c?3?2users?2nhv90?2projects?2eech?2ap@
  00075	8b 0d 00 00 00
	00		 mov	 ecx, DWORD PTR ?overload_invalid_int_type_message@@3PBDB ; overload_invalid_int_type_message
  0007b	51		 push	 ecx
  0007c	e8 00 00 00 00	 call	 ?process_assert@@YGXPBD0H@Z ; process_assert
  00081	c7 45 b8 00 00
	00 00		 mov	 DWORD PTR tv80[ebp], 0
$LN9@set_apache:
  00088	6a 68		 push	 104			; 00000068H
  0008a	8b 15 00 00 00
	00		 mov	 edx, DWORD PTR ?gunship_entity@@3PAUENTITY@@A ; gunship_entity
  00090	52		 push	 edx
  00091	69 45 bc 5c 04
	00 00		 imul	 eax, DWORD PTR tv73[ebp], 1116
  00098	8b 4d b8	 mov	 ecx, DWORD PTR tv80[ebp]
  0009b	8b 94 88 00 00
	00 00		 mov	 edx, DWORD PTR ?fn_get_local_entity_int_value@@3PAY0BBH@P6GHPAUENTITY@@W4INT_TYPES@@@ZA[eax+ecx*4]
  000a2	ff d2		 call	 edx
  000a4	39 45 08	 cmp	 DWORD PTR _state$[ebp], eax
  000a7	0f 84 91 00 00
	00		 je	 $LN1@set_apache

; 565  : 			{
; 566  : 				set_client_server_entity_int_value (get_gunship_entity (), INT_TYPE_INFRA_RED_JAMMER_ON, state);

  000ad	83 3d 00 00 00
	00 00		 cmp	 DWORD PTR ?gunship_entity@@3PAUENTITY@@A, 0 ; gunship_entity
  000b4	74 0c		 je	 SHORT $LN10@set_apache
  000b6	a1 00 00 00 00	 mov	 eax, DWORD PTR ?gunship_entity@@3PAUENTITY@@A ; gunship_entity
  000bb	8b 08		 mov	 ecx, DWORD PTR [eax]
  000bd	89 4d bc	 mov	 DWORD PTR tv93[ebp], ecx
  000c0	eb 21		 jmp	 SHORT $LN11@set_apache
$LN10@set_apache:
  000c2	8b 15 00 00 00
	00		 mov	 edx, DWORD PTR ?__LINE__Var@?0??set_apache_infra_red_jammer_manual@@YGXH@Z@4JA
  000c8	83 c2 07	 add	 edx, 7
  000cb	52		 push	 edx
  000cc	68 00 00 00 00	 push	 OFFSET ??_C@_0EO@EDKDEHLB@c?3?2users?2nhv90?2projects?2eech?2ap@
  000d1	a1 00 00 00 00	 mov	 eax, DWORD PTR ?null_entity_pointer_message@@3PBDB ; null_entity_pointer_message
  000d6	50		 push	 eax
  000d7	e8 00 00 00 00	 call	 ?process_assert@@YGXPBD0H@Z ; process_assert
  000dc	c7 45 bc 00 00
	00 00		 mov	 DWORD PTR tv93[ebp], 0
$LN11@set_apache:
  000e3	b9 01 00 00 00	 mov	 ecx, 1
  000e8	85 c9		 test	 ecx, ecx
  000ea	74 09		 je	 SHORT $LN12@set_apache
  000ec	c7 45 b8 68 00
	00 00		 mov	 DWORD PTR tv133[ebp], 104 ; 00000068H
  000f3	eb 21		 jmp	 SHORT $LN13@set_apache
$LN12@set_apache:
  000f5	8b 15 00 00 00
	00		 mov	 edx, DWORD PTR ?__LINE__Var@?0??set_apache_infra_red_jammer_manual@@YGXH@Z@4JA
  000fb	83 c2 07	 add	 edx, 7
  000fe	52		 push	 edx
  000ff	68 00 00 00 00	 push	 OFFSET ??_C@_0EO@EDKDEHLB@c?3?2users?2nhv90?2projects?2eech?2ap@
  00104	a1 00 00 00 00	 mov	 eax, DWORD PTR ?overload_invalid_int_type_message@@3PBDB ; overload_invalid_int_type_message
  00109	50		 push	 eax
  0010a	e8 00 00 00 00	 call	 ?process_assert@@YGXPBD0H@Z ; process_assert
  0010f	c7 45 b8 00 00
	00 00		 mov	 DWORD PTR tv133[ebp], 0
$LN13@set_apache:
  00116	8b 4d 08	 mov	 ecx, DWORD PTR _state$[ebp]
  00119	51		 push	 ecx
  0011a	6a 68		 push	 104			; 00000068H
  0011c	8b 15 00 00 00
	00		 mov	 edx, DWORD PTR ?gunship_entity@@3PAUENTITY@@A ; gunship_entity
  00122	52		 push	 edx
  00123	69 45 bc b8 08
	00 00		 imul	 eax, DWORD PTR tv93[ebp], 2232
  0012a	8b 4d b8	 mov	 ecx, DWORD PTR tv133[ebp]
  0012d	8d 94 c8 00 00
	00 00		 lea	 edx, DWORD PTR ?fn_set_client_server_entity_int_value@@3PAY1BBH@1P6GXPAUENTITY@@W4INT_TYPES@@H@ZA[eax+ecx*8]
  00134	a1 00 00 00 00	 mov	 eax, DWORD PTR ?system_comms_model@@3W4COMMS_MODEL_TYPES@@A ; system_comms_model
  00139	8b 0c 82	 mov	 ecx, DWORD PTR [edx+eax*4]
  0013c	ff d1		 call	 ecx
$LN1@set_apache:

; 567  : 			}
; 568  : 		}
; 569  : 	}
; 570  : }

  0013e	5f		 pop	 edi
  0013f	5e		 pop	 esi
  00140	5b		 pop	 ebx
  00141	8b e5		 mov	 esp, ebp
  00143	5d		 pop	 ebp
  00144	c2 04 00	 ret	 4
?set_apache_infra_red_jammer_manual@@YGXH@Z ENDP	; set_apache_infra_red_jammer_manual
_TEXT	ENDS
; Function compile flags: /Odtp /ZI
; File c:\users\nhv90\projects\eech\aphavoc\source\gunships\avionics\apache\ap_wpn.c
;	COMDAT ?toggle_apache_infra_red_jammer_manual@@YGXXZ
_TEXT	SEGMENT
tv155 = -72						; size = 4
tv133 = -72						; size = 4
tv80 = -72						; size = 4
tv147 = -68						; size = 4
tv93 = -68						; size = 4
tv73 = -68						; size = 4
?toggle_apache_infra_red_jammer_manual@@YGXXZ PROC	; toggle_apache_infra_red_jammer_manual, COMDAT

; 535  : {

  00000	55		 push	 ebp
  00001	8b ec		 mov	 ebp, esp
  00003	83 ec 48	 sub	 esp, 72			; 00000048H
  00006	53		 push	 ebx
  00007	56		 push	 esi
  00008	57		 push	 edi

; 536  : 	if (!apache_damage.infra_red_jammer)

  00009	a1 00 00 00 00	 mov	 eax, DWORD PTR ?apache_damage@@3TAPACHE_DAMAGE_FLAGS@@A ; apache_damage
  0000e	c1 e8 08	 shr	 eax, 8
  00011	83 e0 01	 and	 eax, 1
  00014	0f 85 b7 01 00
	00		 jne	 $LN2@toggle_apa

; 537  : 	{
; 538  : 		if (!get_global_auto_counter_measures ())

  0001a	83 3d 90 00 00
	00 00		 cmp	 DWORD PTR ?global_options@@3UGLOBAL_OPTIONS_DATA@@A+144, 0
  00021	0f 85 aa 01 00
	00		 jne	 $LN2@toggle_apa

; 539  : 		{
; 540  : 			if (get_local_entity_int_value (get_gunship_entity (), INT_TYPE_INFRA_RED_JAMMER_ON))

  00027	83 3d 00 00 00
	00 00		 cmp	 DWORD PTR ?gunship_entity@@3PAUENTITY@@A, 0 ; gunship_entity
  0002e	74 0c		 je	 SHORT $LN7@toggle_apa
  00030	a1 00 00 00 00	 mov	 eax, DWORD PTR ?gunship_entity@@3PAUENTITY@@A ; gunship_entity
  00035	8b 08		 mov	 ecx, DWORD PTR [eax]
  00037	89 4d bc	 mov	 DWORD PTR tv73[ebp], ecx
  0003a	eb 1d		 jmp	 SHORT $LN8@toggle_apa
$LN7@toggle_apa:
  0003c	68 1c 02 00 00	 push	 540			; 0000021cH
  00041	68 00 00 00 00	 push	 OFFSET ??_C@_0EO@EDKDEHLB@c?3?2users?2nhv90?2projects?2eech?2ap@
  00046	8b 15 00 00 00
	00		 mov	 edx, DWORD PTR ?null_entity_pointer_message@@3PBDB ; null_entity_pointer_message
  0004c	52		 push	 edx
  0004d	e8 00 00 00 00	 call	 ?process_assert@@YGXPBD0H@Z ; process_assert
  00052	c7 45 bc 00 00
	00 00		 mov	 DWORD PTR tv73[ebp], 0
$LN8@toggle_apa:
  00059	b8 01 00 00 00	 mov	 eax, 1
  0005e	85 c0		 test	 eax, eax
  00060	74 09		 je	 SHORT $LN9@toggle_apa
  00062	c7 45 b8 68 00
	00 00		 mov	 DWORD PTR tv80[ebp], 104 ; 00000068H
  00069	eb 1d		 jmp	 SHORT $LN10@toggle_apa
$LN9@toggle_apa:
  0006b	68 1c 02 00 00	 push	 540			; 0000021cH
  00070	68 00 00 00 00	 push	 OFFSET ??_C@_0EO@EDKDEHLB@c?3?2users?2nhv90?2projects?2eech?2ap@
  00075	8b 0d 00 00 00
	00		 mov	 ecx, DWORD PTR ?overload_invalid_int_type_message@@3PBDB ; overload_invalid_int_type_message
  0007b	51		 push	 ecx
  0007c	e8 00 00 00 00	 call	 ?process_assert@@YGXPBD0H@Z ; process_assert
  00081	c7 45 b8 00 00
	00 00		 mov	 DWORD PTR tv80[ebp], 0
$LN10@toggle_apa:
  00088	6a 68		 push	 104			; 00000068H
  0008a	8b 15 00 00 00
	00		 mov	 edx, DWORD PTR ?gunship_entity@@3PAUENTITY@@A ; gunship_entity
  00090	52		 push	 edx
  00091	69 45 bc 5c 04
	00 00		 imul	 eax, DWORD PTR tv73[ebp], 1116
  00098	8b 4d b8	 mov	 ecx, DWORD PTR tv80[ebp]
  0009b	8b 94 88 00 00
	00 00		 mov	 edx, DWORD PTR ?fn_get_local_entity_int_value@@3PAY0BBH@P6GHPAUENTITY@@W4INT_TYPES@@@ZA[eax+ecx*4]
  000a2	ff d2		 call	 edx
  000a4	85 c0		 test	 eax, eax
  000a6	0f 84 95 00 00
	00		 je	 $LN4@toggle_apa

; 541  : 			{
; 542  : 				set_client_server_entity_int_value (get_gunship_entity (), INT_TYPE_INFRA_RED_JAMMER_ON, FALSE);

  000ac	83 3d 00 00 00
	00 00		 cmp	 DWORD PTR ?gunship_entity@@3PAUENTITY@@A, 0 ; gunship_entity
  000b3	74 0c		 je	 SHORT $LN11@toggle_apa
  000b5	a1 00 00 00 00	 mov	 eax, DWORD PTR ?gunship_entity@@3PAUENTITY@@A ; gunship_entity
  000ba	8b 08		 mov	 ecx, DWORD PTR [eax]
  000bc	89 4d bc	 mov	 DWORD PTR tv93[ebp], ecx
  000bf	eb 21		 jmp	 SHORT $LN12@toggle_apa
$LN11@toggle_apa:
  000c1	8b 15 00 00 00
	00		 mov	 edx, DWORD PTR ?__LINE__Var@?0??toggle_apache_infra_red_jammer_manual@@YGXXZ@4JA
  000c7	83 c2 07	 add	 edx, 7
  000ca	52		 push	 edx
  000cb	68 00 00 00 00	 push	 OFFSET ??_C@_0EO@EDKDEHLB@c?3?2users?2nhv90?2projects?2eech?2ap@
  000d0	a1 00 00 00 00	 mov	 eax, DWORD PTR ?null_entity_pointer_message@@3PBDB ; null_entity_pointer_message
  000d5	50		 push	 eax
  000d6	e8 00 00 00 00	 call	 ?process_assert@@YGXPBD0H@Z ; process_assert
  000db	c7 45 bc 00 00
	00 00		 mov	 DWORD PTR tv93[ebp], 0
$LN12@toggle_apa:
  000e2	b9 01 00 00 00	 mov	 ecx, 1
  000e7	85 c9		 test	 ecx, ecx
  000e9	74 09		 je	 SHORT $LN13@toggle_apa
  000eb	c7 45 b8 68 00
	00 00		 mov	 DWORD PTR tv133[ebp], 104 ; 00000068H
  000f2	eb 21		 jmp	 SHORT $LN14@toggle_apa
$LN13@toggle_apa:
  000f4	8b 15 00 00 00
	00		 mov	 edx, DWORD PTR ?__LINE__Var@?0??toggle_apache_infra_red_jammer_manual@@YGXXZ@4JA
  000fa	83 c2 07	 add	 edx, 7
  000fd	52		 push	 edx
  000fe	68 00 00 00 00	 push	 OFFSET ??_C@_0EO@EDKDEHLB@c?3?2users?2nhv90?2projects?2eech?2ap@
  00103	a1 00 00 00 00	 mov	 eax, DWORD PTR ?overload_invalid_int_type_message@@3PBDB ; overload_invalid_int_type_message
  00108	50		 push	 eax
  00109	e8 00 00 00 00	 call	 ?process_assert@@YGXPBD0H@Z ; process_assert
  0010e	c7 45 b8 00 00
	00 00		 mov	 DWORD PTR tv133[ebp], 0
$LN14@toggle_apa:
  00115	6a 00		 push	 0
  00117	6a 68		 push	 104			; 00000068H
  00119	8b 0d 00 00 00
	00		 mov	 ecx, DWORD PTR ?gunship_entity@@3PAUENTITY@@A ; gunship_entity
  0011f	51		 push	 ecx
  00120	69 55 bc b8 08
	00 00		 imul	 edx, DWORD PTR tv93[ebp], 2232
  00127	8b 45 b8	 mov	 eax, DWORD PTR tv133[ebp]
  0012a	8d 8c c2 00 00
	00 00		 lea	 ecx, DWORD PTR ?fn_set_client_server_entity_int_value@@3PAY1BBH@1P6GXPAUENTITY@@W4INT_TYPES@@H@ZA[edx+eax*8]
  00131	8b 15 00 00 00
	00		 mov	 edx, DWORD PTR ?system_comms_model@@3W4COMMS_MODEL_TYPES@@A ; system_comms_model
  00137	8b 04 91	 mov	 eax, DWORD PTR [ecx+edx*4]
  0013a	ff d0		 call	 eax

; 543  : 			}
; 544  : 			else

  0013c	e9 90 00 00 00	 jmp	 $LN2@toggle_apa
$LN4@toggle_apa:

; 545  : 			{
; 546  : 				set_client_server_entity_int_value (get_gunship_entity (), INT_TYPE_INFRA_RED_JAMMER_ON, TRUE);

  00141	83 3d 00 00 00
	00 00		 cmp	 DWORD PTR ?gunship_entity@@3PAUENTITY@@A, 0 ; gunship_entity
  00148	74 0c		 je	 SHORT $LN15@toggle_apa
  0014a	a1 00 00 00 00	 mov	 eax, DWORD PTR ?gunship_entity@@3PAUENTITY@@A ; gunship_entity
  0014f	8b 08		 mov	 ecx, DWORD PTR [eax]
  00151	89 4d bc	 mov	 DWORD PTR tv147[ebp], ecx
  00154	eb 21		 jmp	 SHORT $LN16@toggle_apa
$LN15@toggle_apa:
  00156	8b 15 00 00 00
	00		 mov	 edx, DWORD PTR ?__LINE__Var@?0??toggle_apache_infra_red_jammer_manual@@YGXXZ@4JA
  0015c	83 c2 0b	 add	 edx, 11			; 0000000bH
  0015f	52		 push	 edx
  00160	68 00 00 00 00	 push	 OFFSET ??_C@_0EO@EDKDEHLB@c?3?2users?2nhv90?2projects?2eech?2ap@
  00165	a1 00 00 00 00	 mov	 eax, DWORD PTR ?null_entity_pointer_message@@3PBDB ; null_entity_pointer_message
  0016a	50		 push	 eax
  0016b	e8 00 00 00 00	 call	 ?process_assert@@YGXPBD0H@Z ; process_assert
  00170	c7 45 bc 00 00
	00 00		 mov	 DWORD PTR tv147[ebp], 0
$LN16@toggle_apa:
  00177	b9 01 00 00 00	 mov	 ecx, 1
  0017c	85 c9		 test	 ecx, ecx
  0017e	74 09		 je	 SHORT $LN17@toggle_apa
  00180	c7 45 b8 68 00
	00 00		 mov	 DWORD PTR tv155[ebp], 104 ; 00000068H
  00187	eb 21		 jmp	 SHORT $LN18@toggle_apa
$LN17@toggle_apa:
  00189	8b 15 00 00 00
	00		 mov	 edx, DWORD PTR ?__LINE__Var@?0??toggle_apache_infra_red_jammer_manual@@YGXXZ@4JA
  0018f	83 c2 0b	 add	 edx, 11			; 0000000bH
  00192	52		 push	 edx
  00193	68 00 00 00 00	 push	 OFFSET ??_C@_0EO@EDKDEHLB@c?3?2users?2nhv90?2projects?2eech?2ap@
  00198	a1 00 00 00 00	 mov	 eax, DWORD PTR ?overload_invalid_int_type_message@@3PBDB ; overload_invalid_int_type_message
  0019d	50		 push	 eax
  0019e	e8 00 00 00 00	 call	 ?process_assert@@YGXPBD0H@Z ; process_assert
  001a3	c7 45 b8 00 00
	00 00		 mov	 DWORD PTR tv155[ebp], 0
$LN18@toggle_apa:
  001aa	6a 01		 push	 1
  001ac	6a 68		 push	 104			; 00000068H
  001ae	8b 0d 00 00 00
	00		 mov	 ecx, DWORD PTR ?gunship_entity@@3PAUENTITY@@A ; gunship_entity
  001b4	51		 push	 ecx
  001b5	69 55 bc b8 08
	00 00		 imul	 edx, DWORD PTR tv147[ebp], 2232
  001bc	8b 45 b8	 mov	 eax, DWORD PTR tv155[ebp]
  001bf	8d 8c c2 00 00
	00 00		 lea	 ecx, DWORD PTR ?fn_set_client_server_entity_int_value@@3PAY1BBH@1P6GXPAUENTITY@@W4INT_TYPES@@H@ZA[edx+eax*8]
  001c6	8b 15 00 00 00
	00		 mov	 edx, DWORD PTR ?system_comms_model@@3W4COMMS_MODEL_TYPES@@A ; system_comms_model
  001cc	8b 04 91	 mov	 eax, DWORD PTR [ecx+edx*4]
  001cf	ff d0		 call	 eax
$LN2@toggle_apa:

; 547  : 			}
; 548  : 		}
; 549  : 	}
; 550  : 
; 551  : 	play_common_cpg_infra_red_jammer_speech (apache_damage.infra_red_jammer);

  001d1	a1 00 00 00 00	 mov	 eax, DWORD PTR ?apache_damage@@3TAPACHE_DAMAGE_FLAGS@@A ; apache_damage
  001d6	c1 e8 08	 shr	 eax, 8
  001d9	83 e0 01	 and	 eax, 1
  001dc	50		 push	 eax
  001dd	e8 00 00 00 00	 call	 ?play_common_cpg_infra_red_jammer_speech@@YGXH@Z ; play_common_cpg_infra_red_jammer_speech

; 552  : }

  001e2	5f		 pop	 edi
  001e3	5e		 pop	 esi
  001e4	5b		 pop	 ebx
  001e5	8b e5		 mov	 esp, ebp
  001e7	5d		 pop	 ebp
  001e8	c3		 ret	 0
?toggle_apache_infra_red_jammer_manual@@YGXXZ ENDP	; toggle_apache_infra_red_jammer_manual
_TEXT	ENDS
; Function compile flags: /Odtp /ZI
; File c:\users\nhv90\projects\eech\aphavoc\source\gunships\avionics\apache\ap_wpn.c
;	COMDAT ?set_apache_radar_jammer_auto@@YGXH@Z
_TEXT	SEGMENT
tv133 = -72						; size = 4
tv80 = -72						; size = 4
tv93 = -68						; size = 4
tv73 = -68						; size = 4
_state$ = 8						; size = 4
?set_apache_radar_jammer_auto@@YGXH@Z PROC		; set_apache_radar_jammer_auto, COMDAT

; 517  : {

  00000	55		 push	 ebp
  00001	8b ec		 mov	 ebp, esp
  00003	83 ec 48	 sub	 esp, 72			; 00000048H
  00006	53		 push	 ebx
  00007	56		 push	 esi
  00008	57		 push	 edi

; 518  : 	if (!apache_damage.radar_jammer)

  00009	a1 00 00 00 00	 mov	 eax, DWORD PTR ?apache_damage@@3TAPACHE_DAMAGE_FLAGS@@A ; apache_damage
  0000e	c1 e8 07	 shr	 eax, 7
  00011	83 e0 01	 and	 eax, 1
  00014	0f 85 2a 01 00
	00		 jne	 $LN1@set_apache

; 519  : 	{
; 520  : 		if (get_global_auto_counter_measures ())

  0001a	83 3d 90 00 00
	00 00		 cmp	 DWORD PTR ?global_options@@3UGLOBAL_OPTIONS_DATA@@A+144, 0
  00021	0f 84 1d 01 00
	00		 je	 $LN1@set_apache

; 521  : 		{
; 522  : 			if (state != get_local_entity_int_value (get_gunship_entity (), INT_TYPE_RADAR_JAMMER_ON))

  00027	83 3d 00 00 00
	00 00		 cmp	 DWORD PTR ?gunship_entity@@3PAUENTITY@@A, 0 ; gunship_entity
  0002e	74 0c		 je	 SHORT $LN6@set_apache
  00030	a1 00 00 00 00	 mov	 eax, DWORD PTR ?gunship_entity@@3PAUENTITY@@A ; gunship_entity
  00035	8b 08		 mov	 ecx, DWORD PTR [eax]
  00037	89 4d bc	 mov	 DWORD PTR tv73[ebp], ecx
  0003a	eb 1d		 jmp	 SHORT $LN7@set_apache
$LN6@set_apache:
  0003c	68 0a 02 00 00	 push	 522			; 0000020aH
  00041	68 00 00 00 00	 push	 OFFSET ??_C@_0EO@EDKDEHLB@c?3?2users?2nhv90?2projects?2eech?2ap@
  00046	8b 15 00 00 00
	00		 mov	 edx, DWORD PTR ?null_entity_pointer_message@@3PBDB ; null_entity_pointer_message
  0004c	52		 push	 edx
  0004d	e8 00 00 00 00	 call	 ?process_assert@@YGXPBD0H@Z ; process_assert
  00052	c7 45 bc 00 00
	00 00		 mov	 DWORD PTR tv73[ebp], 0
$LN7@set_apache:
  00059	b8 01 00 00 00	 mov	 eax, 1
  0005e	85 c0		 test	 eax, eax
  00060	74 09		 je	 SHORT $LN8@set_apache
  00062	c7 45 b8 a8 00
	00 00		 mov	 DWORD PTR tv80[ebp], 168 ; 000000a8H
  00069	eb 1d		 jmp	 SHORT $LN9@set_apache
$LN8@set_apache:
  0006b	68 0a 02 00 00	 push	 522			; 0000020aH
  00070	68 00 00 00 00	 push	 OFFSET ??_C@_0EO@EDKDEHLB@c?3?2users?2nhv90?2projects?2eech?2ap@
  00075	8b 0d 00 00 00
	00		 mov	 ecx, DWORD PTR ?overload_invalid_int_type_message@@3PBDB ; overload_invalid_int_type_message
  0007b	51		 push	 ecx
  0007c	e8 00 00 00 00	 call	 ?process_assert@@YGXPBD0H@Z ; process_assert
  00081	c7 45 b8 00 00
	00 00		 mov	 DWORD PTR tv80[ebp], 0
$LN9@set_apache:
  00088	68 a8 00 00 00	 push	 168			; 000000a8H
  0008d	8b 15 00 00 00
	00		 mov	 edx, DWORD PTR ?gunship_entity@@3PAUENTITY@@A ; gunship_entity
  00093	52		 push	 edx
  00094	69 45 bc 5c 04
	00 00		 imul	 eax, DWORD PTR tv73[ebp], 1116
  0009b	8b 4d b8	 mov	 ecx, DWORD PTR tv80[ebp]
  0009e	8b 94 88 00 00
	00 00		 mov	 edx, DWORD PTR ?fn_get_local_entity_int_value@@3PAY0BBH@P6GHPAUENTITY@@W4INT_TYPES@@@ZA[eax+ecx*4]
  000a5	ff d2		 call	 edx
  000a7	39 45 08	 cmp	 DWORD PTR _state$[ebp], eax
  000aa	0f 84 94 00 00
	00		 je	 $LN1@set_apache

; 523  : 			{
; 524  : 				set_client_server_entity_int_value (get_gunship_entity (), INT_TYPE_RADAR_JAMMER_ON, state);

  000b0	83 3d 00 00 00
	00 00		 cmp	 DWORD PTR ?gunship_entity@@3PAUENTITY@@A, 0 ; gunship_entity
  000b7	74 0c		 je	 SHORT $LN10@set_apache
  000b9	a1 00 00 00 00	 mov	 eax, DWORD PTR ?gunship_entity@@3PAUENTITY@@A ; gunship_entity
  000be	8b 08		 mov	 ecx, DWORD PTR [eax]
  000c0	89 4d bc	 mov	 DWORD PTR tv93[ebp], ecx
  000c3	eb 21		 jmp	 SHORT $LN11@set_apache
$LN10@set_apache:
  000c5	8b 15 00 00 00
	00		 mov	 edx, DWORD PTR ?__LINE__Var@?0??set_apache_radar_jammer_auto@@YGXH@Z@4JA
  000cb	83 c2 07	 add	 edx, 7
  000ce	52		 push	 edx
  000cf	68 00 00 00 00	 push	 OFFSET ??_C@_0EO@EDKDEHLB@c?3?2users?2nhv90?2projects?2eech?2ap@
  000d4	a1 00 00 00 00	 mov	 eax, DWORD PTR ?null_entity_pointer_message@@3PBDB ; null_entity_pointer_message
  000d9	50		 push	 eax
  000da	e8 00 00 00 00	 call	 ?process_assert@@YGXPBD0H@Z ; process_assert
  000df	c7 45 bc 00 00
	00 00		 mov	 DWORD PTR tv93[ebp], 0
$LN11@set_apache:
  000e6	b9 01 00 00 00	 mov	 ecx, 1
  000eb	85 c9		 test	 ecx, ecx
  000ed	74 09		 je	 SHORT $LN12@set_apache
  000ef	c7 45 b8 a8 00
	00 00		 mov	 DWORD PTR tv133[ebp], 168 ; 000000a8H
  000f6	eb 21		 jmp	 SHORT $LN13@set_apache
$LN12@set_apache:
  000f8	8b 15 00 00 00
	00		 mov	 edx, DWORD PTR ?__LINE__Var@?0??set_apache_radar_jammer_auto@@YGXH@Z@4JA
  000fe	83 c2 07	 add	 edx, 7
  00101	52		 push	 edx
  00102	68 00 00 00 00	 push	 OFFSET ??_C@_0EO@EDKDEHLB@c?3?2users?2nhv90?2projects?2eech?2ap@
  00107	a1 00 00 00 00	 mov	 eax, DWORD PTR ?overload_invalid_int_type_message@@3PBDB ; overload_invalid_int_type_message
  0010c	50		 push	 eax
  0010d	e8 00 00 00 00	 call	 ?process_assert@@YGXPBD0H@Z ; process_assert
  00112	c7 45 b8 00 00
	00 00		 mov	 DWORD PTR tv133[ebp], 0
$LN13@set_apache:
  00119	8b 4d 08	 mov	 ecx, DWORD PTR _state$[ebp]
  0011c	51		 push	 ecx
  0011d	68 a8 00 00 00	 push	 168			; 000000a8H
  00122	8b 15 00 00 00
	00		 mov	 edx, DWORD PTR ?gunship_entity@@3PAUENTITY@@A ; gunship_entity
  00128	52		 push	 edx
  00129	69 45 bc b8 08
	00 00		 imul	 eax, DWORD PTR tv93[ebp], 2232
  00130	8b 4d b8	 mov	 ecx, DWORD PTR tv133[ebp]
  00133	8d 94 c8 00 00
	00 00		 lea	 edx, DWORD PTR ?fn_set_client_server_entity_int_value@@3PAY1BBH@1P6GXPAUENTITY@@W4INT_TYPES@@H@ZA[eax+ecx*8]
  0013a	a1 00 00 00 00	 mov	 eax, DWORD PTR ?system_comms_model@@3W4COMMS_MODEL_TYPES@@A ; system_comms_model
  0013f	8b 0c 82	 mov	 ecx, DWORD PTR [edx+eax*4]
  00142	ff d1		 call	 ecx
$LN1@set_apache:

; 525  : 			}
; 526  : 		}
; 527  : 	}
; 528  : }

  00144	5f		 pop	 edi
  00145	5e		 pop	 esi
  00146	5b		 pop	 ebx
  00147	8b e5		 mov	 esp, ebp
  00149	5d		 pop	 ebp
  0014a	c2 04 00	 ret	 4
?set_apache_radar_jammer_auto@@YGXH@Z ENDP		; set_apache_radar_jammer_auto
_TEXT	ENDS
; Function compile flags: /Odtp /ZI
; File c:\users\nhv90\projects\eech\aphavoc\source\gunships\avionics\apache\ap_wpn.c
;	COMDAT ?set_apache_radar_jammer_manual@@YGXH@Z
_TEXT	SEGMENT
tv133 = -72						; size = 4
tv80 = -72						; size = 4
tv93 = -68						; size = 4
tv73 = -68						; size = 4
_state$ = 8						; size = 4
?set_apache_radar_jammer_manual@@YGXH@Z PROC		; set_apache_radar_jammer_manual, COMDAT

; 499  : {

  00000	55		 push	 ebp
  00001	8b ec		 mov	 ebp, esp
  00003	83 ec 48	 sub	 esp, 72			; 00000048H
  00006	53		 push	 ebx
  00007	56		 push	 esi
  00008	57		 push	 edi

; 500  : 	if (!apache_damage.radar_jammer)

  00009	a1 00 00 00 00	 mov	 eax, DWORD PTR ?apache_damage@@3TAPACHE_DAMAGE_FLAGS@@A ; apache_damage
  0000e	c1 e8 07	 shr	 eax, 7
  00011	83 e0 01	 and	 eax, 1
  00014	0f 85 2a 01 00
	00		 jne	 $LN1@set_apache

; 501  : 	{
; 502  : 		if (!get_global_auto_counter_measures ())

  0001a	83 3d 90 00 00
	00 00		 cmp	 DWORD PTR ?global_options@@3UGLOBAL_OPTIONS_DATA@@A+144, 0
  00021	0f 85 1d 01 00
	00		 jne	 $LN1@set_apache

; 503  : 		{
; 504  : 			if (state != get_local_entity_int_value (get_gunship_entity (), INT_TYPE_RADAR_JAMMER_ON))

  00027	83 3d 00 00 00
	00 00		 cmp	 DWORD PTR ?gunship_entity@@3PAUENTITY@@A, 0 ; gunship_entity
  0002e	74 0c		 je	 SHORT $LN6@set_apache
  00030	a1 00 00 00 00	 mov	 eax, DWORD PTR ?gunship_entity@@3PAUENTITY@@A ; gunship_entity
  00035	8b 08		 mov	 ecx, DWORD PTR [eax]
  00037	89 4d bc	 mov	 DWORD PTR tv73[ebp], ecx
  0003a	eb 1d		 jmp	 SHORT $LN7@set_apache
$LN6@set_apache:
  0003c	68 f8 01 00 00	 push	 504			; 000001f8H
  00041	68 00 00 00 00	 push	 OFFSET ??_C@_0EO@EDKDEHLB@c?3?2users?2nhv90?2projects?2eech?2ap@
  00046	8b 15 00 00 00
	00		 mov	 edx, DWORD PTR ?null_entity_pointer_message@@3PBDB ; null_entity_pointer_message
  0004c	52		 push	 edx
  0004d	e8 00 00 00 00	 call	 ?process_assert@@YGXPBD0H@Z ; process_assert
  00052	c7 45 bc 00 00
	00 00		 mov	 DWORD PTR tv73[ebp], 0
$LN7@set_apache:
  00059	b8 01 00 00 00	 mov	 eax, 1
  0005e	85 c0		 test	 eax, eax
  00060	74 09		 je	 SHORT $LN8@set_apache
  00062	c7 45 b8 a8 00
	00 00		 mov	 DWORD PTR tv80[ebp], 168 ; 000000a8H
  00069	eb 1d		 jmp	 SHORT $LN9@set_apache
$LN8@set_apache:
  0006b	68 f8 01 00 00	 push	 504			; 000001f8H
  00070	68 00 00 00 00	 push	 OFFSET ??_C@_0EO@EDKDEHLB@c?3?2users?2nhv90?2projects?2eech?2ap@
  00075	8b 0d 00 00 00
	00		 mov	 ecx, DWORD PTR ?overload_invalid_int_type_message@@3PBDB ; overload_invalid_int_type_message
  0007b	51		 push	 ecx
  0007c	e8 00 00 00 00	 call	 ?process_assert@@YGXPBD0H@Z ; process_assert
  00081	c7 45 b8 00 00
	00 00		 mov	 DWORD PTR tv80[ebp], 0
$LN9@set_apache:
  00088	68 a8 00 00 00	 push	 168			; 000000a8H
  0008d	8b 15 00 00 00
	00		 mov	 edx, DWORD PTR ?gunship_entity@@3PAUENTITY@@A ; gunship_entity
  00093	52		 push	 edx
  00094	69 45 bc 5c 04
	00 00		 imul	 eax, DWORD PTR tv73[ebp], 1116
  0009b	8b 4d b8	 mov	 ecx, DWORD PTR tv80[ebp]
  0009e	8b 94 88 00 00
	00 00		 mov	 edx, DWORD PTR ?fn_get_local_entity_int_value@@3PAY0BBH@P6GHPAUENTITY@@W4INT_TYPES@@@ZA[eax+ecx*4]
  000a5	ff d2		 call	 edx
  000a7	39 45 08	 cmp	 DWORD PTR _state$[ebp], eax
  000aa	0f 84 94 00 00
	00		 je	 $LN1@set_apache

; 505  : 			{
; 506  : 				set_client_server_entity_int_value (get_gunship_entity (), INT_TYPE_RADAR_JAMMER_ON, state);

  000b0	83 3d 00 00 00
	00 00		 cmp	 DWORD PTR ?gunship_entity@@3PAUENTITY@@A, 0 ; gunship_entity
  000b7	74 0c		 je	 SHORT $LN10@set_apache
  000b9	a1 00 00 00 00	 mov	 eax, DWORD PTR ?gunship_entity@@3PAUENTITY@@A ; gunship_entity
  000be	8b 08		 mov	 ecx, DWORD PTR [eax]
  000c0	89 4d bc	 mov	 DWORD PTR tv93[ebp], ecx
  000c3	eb 21		 jmp	 SHORT $LN11@set_apache
$LN10@set_apache:
  000c5	8b 15 00 00 00
	00		 mov	 edx, DWORD PTR ?__LINE__Var@?0??set_apache_radar_jammer_manual@@YGXH@Z@4JA
  000cb	83 c2 07	 add	 edx, 7
  000ce	52		 push	 edx
  000cf	68 00 00 00 00	 push	 OFFSET ??_C@_0EO@EDKDEHLB@c?3?2users?2nhv90?2projects?2eech?2ap@
  000d4	a1 00 00 00 00	 mov	 eax, DWORD PTR ?null_entity_pointer_message@@3PBDB ; null_entity_pointer_message
  000d9	50		 push	 eax
  000da	e8 00 00 00 00	 call	 ?process_assert@@YGXPBD0H@Z ; process_assert
  000df	c7 45 bc 00 00
	00 00		 mov	 DWORD PTR tv93[ebp], 0
$LN11@set_apache:
  000e6	b9 01 00 00 00	 mov	 ecx, 1
  000eb	85 c9		 test	 ecx, ecx
  000ed	74 09		 je	 SHORT $LN12@set_apache
  000ef	c7 45 b8 a8 00
	00 00		 mov	 DWORD PTR tv133[ebp], 168 ; 000000a8H
  000f6	eb 21		 jmp	 SHORT $LN13@set_apache
$LN12@set_apache:
  000f8	8b 15 00 00 00
	00		 mov	 edx, DWORD PTR ?__LINE__Var@?0??set_apache_radar_jammer_manual@@YGXH@Z@4JA
  000fe	83 c2 07	 add	 edx, 7
  00101	52		 push	 edx
  00102	68 00 00 00 00	 push	 OFFSET ??_C@_0EO@EDKDEHLB@c?3?2users?2nhv90?2projects?2eech?2ap@
  00107	a1 00 00 00 00	 mov	 eax, DWORD PTR ?overload_invalid_int_type_message@@3PBDB ; overload_invalid_int_type_message
  0010c	50		 push	 eax
  0010d	e8 00 00 00 00	 call	 ?process_assert@@YGXPBD0H@Z ; process_assert
  00112	c7 45 b8 00 00
	00 00		 mov	 DWORD PTR tv133[ebp], 0
$LN13@set_apache:
  00119	8b 4d 08	 mov	 ecx, DWORD PTR _state$[ebp]
  0011c	51		 push	 ecx
  0011d	68 a8 00 00 00	 push	 168			; 000000a8H
  00122	8b 15 00 00 00
	00		 mov	 edx, DWORD PTR ?gunship_entity@@3PAUENTITY@@A ; gunship_entity
  00128	52		 push	 edx
  00129	69 45 bc b8 08
	00 00		 imul	 eax, DWORD PTR tv93[ebp], 2232
  00130	8b 4d b8	 mov	 ecx, DWORD PTR tv133[ebp]
  00133	8d 94 c8 00 00
	00 00		 lea	 edx, DWORD PTR ?fn_set_client_server_entity_int_value@@3PAY1BBH@1P6GXPAUENTITY@@W4INT_TYPES@@H@ZA[eax+ecx*8]
  0013a	a1 00 00 00 00	 mov	 eax, DWORD PTR ?system_comms_model@@3W4COMMS_MODEL_TYPES@@A ; system_comms_model
  0013f	8b 0c 82	 mov	 ecx, DWORD PTR [edx+eax*4]
  00142	ff d1		 call	 ecx
$LN1@set_apache:

; 507  : 			}
; 508  : 		}
; 509  : 	}
; 510  : }

  00144	5f		 pop	 edi
  00145	5e		 pop	 esi
  00146	5b		 pop	 ebx
  00147	8b e5		 mov	 esp, ebp
  00149	5d		 pop	 ebp
  0014a	c2 04 00	 ret	 4
?set_apache_radar_jammer_manual@@YGXH@Z ENDP		; set_apache_radar_jammer_manual
_TEXT	ENDS
; Function compile flags: /Odtp /ZI
; File c:\users\nhv90\projects\eech\aphavoc\source\gunships\avionics\apache\ap_wpn.c
;	COMDAT ?toggle_apache_radar_jammer_manual@@YGXXZ
_TEXT	SEGMENT
tv155 = -72						; size = 4
tv133 = -72						; size = 4
tv80 = -72						; size = 4
tv147 = -68						; size = 4
tv93 = -68						; size = 4
tv73 = -68						; size = 4
?toggle_apache_radar_jammer_manual@@YGXXZ PROC		; toggle_apache_radar_jammer_manual, COMDAT

; 475  : {

  00000	55		 push	 ebp
  00001	8b ec		 mov	 ebp, esp
  00003	83 ec 48	 sub	 esp, 72			; 00000048H
  00006	53		 push	 ebx
  00007	56		 push	 esi
  00008	57		 push	 edi

; 476  : 	if (!apache_damage.radar_jammer)

  00009	a1 00 00 00 00	 mov	 eax, DWORD PTR ?apache_damage@@3TAPACHE_DAMAGE_FLAGS@@A ; apache_damage
  0000e	c1 e8 07	 shr	 eax, 7
  00011	83 e0 01	 and	 eax, 1
  00014	0f 85 c0 01 00
	00		 jne	 $LN2@toggle_apa

; 477  : 	{
; 478  : 		if (!get_global_auto_counter_measures ())

  0001a	83 3d 90 00 00
	00 00		 cmp	 DWORD PTR ?global_options@@3UGLOBAL_OPTIONS_DATA@@A+144, 0
  00021	0f 85 b3 01 00
	00		 jne	 $LN2@toggle_apa

; 479  : 		{
; 480  : 			if (get_local_entity_int_value (get_gunship_entity (), INT_TYPE_RADAR_JAMMER_ON))

  00027	83 3d 00 00 00
	00 00		 cmp	 DWORD PTR ?gunship_entity@@3PAUENTITY@@A, 0 ; gunship_entity
  0002e	74 0c		 je	 SHORT $LN7@toggle_apa
  00030	a1 00 00 00 00	 mov	 eax, DWORD PTR ?gunship_entity@@3PAUENTITY@@A ; gunship_entity
  00035	8b 08		 mov	 ecx, DWORD PTR [eax]
  00037	89 4d bc	 mov	 DWORD PTR tv73[ebp], ecx
  0003a	eb 1d		 jmp	 SHORT $LN8@toggle_apa
$LN7@toggle_apa:
  0003c	68 e0 01 00 00	 push	 480			; 000001e0H
  00041	68 00 00 00 00	 push	 OFFSET ??_C@_0EO@EDKDEHLB@c?3?2users?2nhv90?2projects?2eech?2ap@
  00046	8b 15 00 00 00
	00		 mov	 edx, DWORD PTR ?null_entity_pointer_message@@3PBDB ; null_entity_pointer_message
  0004c	52		 push	 edx
  0004d	e8 00 00 00 00	 call	 ?process_assert@@YGXPBD0H@Z ; process_assert
  00052	c7 45 bc 00 00
	00 00		 mov	 DWORD PTR tv73[ebp], 0
$LN8@toggle_apa:
  00059	b8 01 00 00 00	 mov	 eax, 1
  0005e	85 c0		 test	 eax, eax
  00060	74 09		 je	 SHORT $LN9@toggle_apa
  00062	c7 45 b8 a8 00
	00 00		 mov	 DWORD PTR tv80[ebp], 168 ; 000000a8H
  00069	eb 1d		 jmp	 SHORT $LN10@toggle_apa
$LN9@toggle_apa:
  0006b	68 e0 01 00 00	 push	 480			; 000001e0H
  00070	68 00 00 00 00	 push	 OFFSET ??_C@_0EO@EDKDEHLB@c?3?2users?2nhv90?2projects?2eech?2ap@
  00075	8b 0d 00 00 00
	00		 mov	 ecx, DWORD PTR ?overload_invalid_int_type_message@@3PBDB ; overload_invalid_int_type_message
  0007b	51		 push	 ecx
  0007c	e8 00 00 00 00	 call	 ?process_assert@@YGXPBD0H@Z ; process_assert
  00081	c7 45 b8 00 00
	00 00		 mov	 DWORD PTR tv80[ebp], 0
$LN10@toggle_apa:
  00088	68 a8 00 00 00	 push	 168			; 000000a8H
  0008d	8b 15 00 00 00
	00		 mov	 edx, DWORD PTR ?gunship_entity@@3PAUENTITY@@A ; gunship_entity
  00093	52		 push	 edx
  00094	69 45 bc 5c 04
	00 00		 imul	 eax, DWORD PTR tv73[ebp], 1116
  0009b	8b 4d b8	 mov	 ecx, DWORD PTR tv80[ebp]
  0009e	8b 94 88 00 00
	00 00		 mov	 edx, DWORD PTR ?fn_get_local_entity_int_value@@3PAY0BBH@P6GHPAUENTITY@@W4INT_TYPES@@@ZA[eax+ecx*4]
  000a5	ff d2		 call	 edx
  000a7	85 c0		 test	 eax, eax
  000a9	0f 84 98 00 00
	00		 je	 $LN4@toggle_apa

; 481  : 			{
; 482  : 				set_client_server_entity_int_value (get_gunship_entity (), INT_TYPE_RADAR_JAMMER_ON, FALSE);

  000af	83 3d 00 00 00
	00 00		 cmp	 DWORD PTR ?gunship_entity@@3PAUENTITY@@A, 0 ; gunship_entity
  000b6	74 0c		 je	 SHORT $LN11@toggle_apa
  000b8	a1 00 00 00 00	 mov	 eax, DWORD PTR ?gunship_entity@@3PAUENTITY@@A ; gunship_entity
  000bd	8b 08		 mov	 ecx, DWORD PTR [eax]
  000bf	89 4d bc	 mov	 DWORD PTR tv93[ebp], ecx
  000c2	eb 21		 jmp	 SHORT $LN12@toggle_apa
$LN11@toggle_apa:
  000c4	8b 15 00 00 00
	00		 mov	 edx, DWORD PTR ?__LINE__Var@?0??toggle_apache_radar_jammer_manual@@YGXXZ@4JA
  000ca	83 c2 07	 add	 edx, 7
  000cd	52		 push	 edx
  000ce	68 00 00 00 00	 push	 OFFSET ??_C@_0EO@EDKDEHLB@c?3?2users?2nhv90?2projects?2eech?2ap@
  000d3	a1 00 00 00 00	 mov	 eax, DWORD PTR ?null_entity_pointer_message@@3PBDB ; null_entity_pointer_message
  000d8	50		 push	 eax
  000d9	e8 00 00 00 00	 call	 ?process_assert@@YGXPBD0H@Z ; process_assert
  000de	c7 45 bc 00 00
	00 00		 mov	 DWORD PTR tv93[ebp], 0
$LN12@toggle_apa:
  000e5	b9 01 00 00 00	 mov	 ecx, 1
  000ea	85 c9		 test	 ecx, ecx
  000ec	74 09		 je	 SHORT $LN13@toggle_apa
  000ee	c7 45 b8 a8 00
	00 00		 mov	 DWORD PTR tv133[ebp], 168 ; 000000a8H
  000f5	eb 21		 jmp	 SHORT $LN14@toggle_apa
$LN13@toggle_apa:
  000f7	8b 15 00 00 00
	00		 mov	 edx, DWORD PTR ?__LINE__Var@?0??toggle_apache_radar_jammer_manual@@YGXXZ@4JA
  000fd	83 c2 07	 add	 edx, 7
  00100	52		 push	 edx
  00101	68 00 00 00 00	 push	 OFFSET ??_C@_0EO@EDKDEHLB@c?3?2users?2nhv90?2projects?2eech?2ap@
  00106	a1 00 00 00 00	 mov	 eax, DWORD PTR ?overload_invalid_int_type_message@@3PBDB ; overload_invalid_int_type_message
  0010b	50		 push	 eax
  0010c	e8 00 00 00 00	 call	 ?process_assert@@YGXPBD0H@Z ; process_assert
  00111	c7 45 b8 00 00
	00 00		 mov	 DWORD PTR tv133[ebp], 0
$LN14@toggle_apa:
  00118	6a 00		 push	 0
  0011a	68 a8 00 00 00	 push	 168			; 000000a8H
  0011f	8b 0d 00 00 00
	00		 mov	 ecx, DWORD PTR ?gunship_entity@@3PAUENTITY@@A ; gunship_entity
  00125	51		 push	 ecx
  00126	69 55 bc b8 08
	00 00		 imul	 edx, DWORD PTR tv93[ebp], 2232
  0012d	8b 45 b8	 mov	 eax, DWORD PTR tv133[ebp]
  00130	8d 8c c2 00 00
	00 00		 lea	 ecx, DWORD PTR ?fn_set_client_server_entity_int_value@@3PAY1BBH@1P6GXPAUENTITY@@W4INT_TYPES@@H@ZA[edx+eax*8]
  00137	8b 15 00 00 00
	00		 mov	 edx, DWORD PTR ?system_comms_model@@3W4COMMS_MODEL_TYPES@@A ; system_comms_model
  0013d	8b 04 91	 mov	 eax, DWORD PTR [ecx+edx*4]
  00140	ff d0		 call	 eax

; 483  : 			}
; 484  : 			else

  00142	e9 93 00 00 00	 jmp	 $LN2@toggle_apa
$LN4@toggle_apa:

; 485  : 			{
; 486  : 				set_client_server_entity_int_value (get_gunship_entity (), INT_TYPE_RADAR_JAMMER_ON, TRUE);

  00147	83 3d 00 00 00
	00 00		 cmp	 DWORD PTR ?gunship_entity@@3PAUENTITY@@A, 0 ; gunship_entity
  0014e	74 0c		 je	 SHORT $LN15@toggle_apa
  00150	a1 00 00 00 00	 mov	 eax, DWORD PTR ?gunship_entity@@3PAUENTITY@@A ; gunship_entity
  00155	8b 08		 mov	 ecx, DWORD PTR [eax]
  00157	89 4d bc	 mov	 DWORD PTR tv147[ebp], ecx
  0015a	eb 21		 jmp	 SHORT $LN16@toggle_apa
$LN15@toggle_apa:
  0015c	8b 15 00 00 00
	00		 mov	 edx, DWORD PTR ?__LINE__Var@?0??toggle_apache_radar_jammer_manual@@YGXXZ@4JA
  00162	83 c2 0b	 add	 edx, 11			; 0000000bH
  00165	52		 push	 edx
  00166	68 00 00 00 00	 push	 OFFSET ??_C@_0EO@EDKDEHLB@c?3?2users?2nhv90?2projects?2eech?2ap@
  0016b	a1 00 00 00 00	 mov	 eax, DWORD PTR ?null_entity_pointer_message@@3PBDB ; null_entity_pointer_message
  00170	50		 push	 eax
  00171	e8 00 00 00 00	 call	 ?process_assert@@YGXPBD0H@Z ; process_assert
  00176	c7 45 bc 00 00
	00 00		 mov	 DWORD PTR tv147[ebp], 0
$LN16@toggle_apa:
  0017d	b9 01 00 00 00	 mov	 ecx, 1
  00182	85 c9		 test	 ecx, ecx
  00184	74 09		 je	 SHORT $LN17@toggle_apa
  00186	c7 45 b8 a8 00
	00 00		 mov	 DWORD PTR tv155[ebp], 168 ; 000000a8H
  0018d	eb 21		 jmp	 SHORT $LN18@toggle_apa
$LN17@toggle_apa:
  0018f	8b 15 00 00 00
	00		 mov	 edx, DWORD PTR ?__LINE__Var@?0??toggle_apache_radar_jammer_manual@@YGXXZ@4JA
  00195	83 c2 0b	 add	 edx, 11			; 0000000bH
  00198	52		 push	 edx
  00199	68 00 00 00 00	 push	 OFFSET ??_C@_0EO@EDKDEHLB@c?3?2users?2nhv90?2projects?2eech?2ap@
  0019e	a1 00 00 00 00	 mov	 eax, DWORD PTR ?overload_invalid_int_type_message@@3PBDB ; overload_invalid_int_type_message
  001a3	50		 push	 eax
  001a4	e8 00 00 00 00	 call	 ?process_assert@@YGXPBD0H@Z ; process_assert
  001a9	c7 45 b8 00 00
	00 00		 mov	 DWORD PTR tv155[ebp], 0
$LN18@toggle_apa:
  001b0	6a 01		 push	 1
  001b2	68 a8 00 00 00	 push	 168			; 000000a8H
  001b7	8b 0d 00 00 00
	00		 mov	 ecx, DWORD PTR ?gunship_entity@@3PAUENTITY@@A ; gunship_entity
  001bd	51		 push	 ecx
  001be	69 55 bc b8 08
	00 00		 imul	 edx, DWORD PTR tv147[ebp], 2232
  001c5	8b 45 b8	 mov	 eax, DWORD PTR tv155[ebp]
  001c8	8d 8c c2 00 00
	00 00		 lea	 ecx, DWORD PTR ?fn_set_client_server_entity_int_value@@3PAY1BBH@1P6GXPAUENTITY@@W4INT_TYPES@@H@ZA[edx+eax*8]
  001cf	8b 15 00 00 00
	00		 mov	 edx, DWORD PTR ?system_comms_model@@3W4COMMS_MODEL_TYPES@@A ; system_comms_model
  001d5	8b 04 91	 mov	 eax, DWORD PTR [ecx+edx*4]
  001d8	ff d0		 call	 eax
$LN2@toggle_apa:

; 487  : 			}
; 488  : 		}
; 489  : 	}
; 490  : 
; 491  : 	play_common_cpg_radar_jammer_speech (apache_damage.radar_jammer);

  001da	a1 00 00 00 00	 mov	 eax, DWORD PTR ?apache_damage@@3TAPACHE_DAMAGE_FLAGS@@A ; apache_damage
  001df	c1 e8 07	 shr	 eax, 7
  001e2	83 e0 01	 and	 eax, 1
  001e5	50		 push	 eax
  001e6	e8 00 00 00 00	 call	 ?play_common_cpg_radar_jammer_speech@@YGXH@Z ; play_common_cpg_radar_jammer_speech

; 492  : }

  001eb	5f		 pop	 edi
  001ec	5e		 pop	 esi
  001ed	5b		 pop	 ebx
  001ee	8b e5		 mov	 esp, ebp
  001f0	5d		 pop	 ebp
  001f1	c3		 ret	 0
?toggle_apache_radar_jammer_manual@@YGXXZ ENDP		; toggle_apache_radar_jammer_manual
_TEXT	ENDS
; Function compile flags: /Odtp /ZI
; File c:\users\nhv90\projects\eech\aphavoc\source\gunships\avionics\apache\ap_wpn.c
;	COMDAT ?update_apache_weapon_systems@@YGXXZ
_TEXT	SEGMENT
tv339 = -96						; size = 8
tv331 = -96						; size = 8
tv323 = -96						; size = 8
tv315 = -96						; size = 8
tv273 = -96						; size = 4
tv232 = -96						; size = 4
tv178 = -96						; size = 4
tv78 = -96						; size = 4
tv266 = -92						; size = 4
tv224 = -92						; size = 4
tv171 = -92						; size = 4
tv157 = -92						; size = 4
tv70 = -92						; size = 4
$T1 = -88						; size = 4
$T2 = -84						; size = 4
_weapon_sub_type$ = -16					; size = 4
_target$ = -12						; size = 4
_en$ = -8						; size = 4
_inhibit_launch$ = -4					; size = 4
?update_apache_weapon_systems@@YGXXZ PROC		; update_apache_weapon_systems, COMDAT

; 178  : {

  00000	55		 push	 ebp
  00001	8b ec		 mov	 ebp, esp
  00003	83 ec 60	 sub	 esp, 96			; 00000060H
  00006	53		 push	 ebx
  00007	56		 push	 esi
  00008	57		 push	 edi

; 179  : 	int
; 180  : 		inhibit_launch;
; 181  : 
; 182  : 	entity
; 183  : 		*en,
; 184  : 		*target;
; 185  : 
; 186  : 	entity_sub_types
; 187  : 		weapon_sub_type;
; 188  : 
; 189  : 	en = get_gunship_entity ();

  00009	a1 00 00 00 00	 mov	 eax, DWORD PTR ?gunship_entity@@3PAUENTITY@@A ; gunship_entity
  0000e	89 45 f8	 mov	 DWORD PTR _en$[ebp], eax

; 190  : 
; 191  : 	weapon_sub_type = get_local_entity_int_value (en, INT_TYPE_SELECTED_WEAPON);

  00011	83 7d f8 00	 cmp	 DWORD PTR _en$[ebp], 0
  00015	74 0a		 je	 SHORT $LN37@update_apa
  00017	8b 45 f8	 mov	 eax, DWORD PTR _en$[ebp]
  0001a	8b 08		 mov	 ecx, DWORD PTR [eax]
  0001c	89 4d a4	 mov	 DWORD PTR tv70[ebp], ecx
  0001f	eb 21		 jmp	 SHORT $LN38@update_apa
$LN37@update_apa:
  00021	8b 15 00 00 00
	00		 mov	 edx, DWORD PTR ?__LINE__Var@?0??update_apache_weapon_systems@@YGXXZ@4JA
  00027	83 c2 0d	 add	 edx, 13			; 0000000dH
  0002a	52		 push	 edx
  0002b	68 00 00 00 00	 push	 OFFSET ??_C@_0EO@EDKDEHLB@c?3?2users?2nhv90?2projects?2eech?2ap@
  00030	a1 00 00 00 00	 mov	 eax, DWORD PTR ?null_entity_pointer_message@@3PBDB ; null_entity_pointer_message
  00035	50		 push	 eax
  00036	e8 00 00 00 00	 call	 ?process_assert@@YGXPBD0H@Z ; process_assert
  0003b	c7 45 a4 00 00
	00 00		 mov	 DWORD PTR tv70[ebp], 0
$LN38@update_apa:
  00042	b9 01 00 00 00	 mov	 ecx, 1
  00047	85 c9		 test	 ecx, ecx
  00049	74 09		 je	 SHORT $LN39@update_apa
  0004b	c7 45 a0 b8 00
	00 00		 mov	 DWORD PTR tv78[ebp], 184 ; 000000b8H
  00052	eb 21		 jmp	 SHORT $LN40@update_apa
$LN39@update_apa:
  00054	8b 15 00 00 00
	00		 mov	 edx, DWORD PTR ?__LINE__Var@?0??update_apache_weapon_systems@@YGXXZ@4JA
  0005a	83 c2 0d	 add	 edx, 13			; 0000000dH
  0005d	52		 push	 edx
  0005e	68 00 00 00 00	 push	 OFFSET ??_C@_0EO@EDKDEHLB@c?3?2users?2nhv90?2projects?2eech?2ap@
  00063	a1 00 00 00 00	 mov	 eax, DWORD PTR ?overload_invalid_int_type_message@@3PBDB ; overload_invalid_int_type_message
  00068	50		 push	 eax
  00069	e8 00 00 00 00	 call	 ?process_assert@@YGXPBD0H@Z ; process_assert
  0006e	c7 45 a0 00 00
	00 00		 mov	 DWORD PTR tv78[ebp], 0
$LN40@update_apa:
  00075	68 b8 00 00 00	 push	 184			; 000000b8H
  0007a	8b 4d f8	 mov	 ecx, DWORD PTR _en$[ebp]
  0007d	51		 push	 ecx
  0007e	69 55 a4 5c 04
	00 00		 imul	 edx, DWORD PTR tv70[ebp], 1116
  00085	8b 45 a0	 mov	 eax, DWORD PTR tv78[ebp]
  00088	8b 8c 82 00 00
	00 00		 mov	 ecx, DWORD PTR ?fn_get_local_entity_int_value@@3PAY0BBH@P6GHPAUENTITY@@W4INT_TYPES@@@ZA[edx+eax*4]
  0008f	ff d1		 call	 ecx
  00091	89 45 f0	 mov	 DWORD PTR _weapon_sub_type$[ebp], eax

; 192  : 
; 193  : 	gun_is_firing = FALSE;

  00094	c7 05 00 00 00
	00 00 00 00 00	 mov	 DWORD PTR ?gun_is_firing@@3HA, 0 ; gun_is_firing

; 194  : 
; 195  : 	////////////////////////////////////////
; 196  : 	//
; 197  : 	// Stinger lock tone
; 198  : 	//
; 199  : 	////////////////////////////////////////
; 200  : 
; 201  : 	if ((weapon_sub_type == ENTITY_SUB_TYPE_WEAPON_AIM92_STINGER) && (weapon_lock_type == WEAPON_LOCK_VALID))

  0009e	83 7d f0 24	 cmp	 DWORD PTR _weapon_sub_type$[ebp], 36 ; 00000024H
  000a2	75 1b		 jne	 SHORT $LN4@update_apa
  000a4	83 3d 00 00 00
	00 09		 cmp	 DWORD PTR ?weapon_lock_type@@3W4WEAPON_LOCK_TYPES@@A, 9 ; weapon_lock_type
  000ab	75 12		 jne	 SHORT $LN4@update_apa

; 202  : 	{
; 203  : 		resume_local_entity_sound_type (en, ENTITY_SUB_TYPE_EFFECT_SOUND_LOCK_ON_TONE);

  000ad	6a 18		 push	 24			; 00000018H
  000af	8b 45 f8	 mov	 eax, DWORD PTR _en$[ebp]
  000b2	50		 push	 eax
  000b3	e8 00 00 00 00	 call	 ?resume_local_entity_sound_type@@YGHPAUENTITY@@H@Z ; resume_local_entity_sound_type

; 204  : 
; 205  : 		update_good_tone ();

  000b8	e8 00 00 00 00	 call	 ?update_good_tone@@YGXXZ ; update_good_tone

; 206  : 	}
; 207  : 	else

  000bd	eb 1e		 jmp	 SHORT $LN5@update_apa
$LN4@update_apa:

; 208  : 	{
; 209  : 		pause_local_entity_sound_type (en, ENTITY_SUB_TYPE_EFFECT_SOUND_LOCK_ON_TONE, 0.5);

  000bf	51		 push	 ecx
  000c0	f3 0f 10 05 00
	00 00 00	 movss	 xmm0, DWORD PTR __real@3f000000
  000c8	f3 0f 11 04 24	 movss	 DWORD PTR [esp], xmm0
  000cd	6a 18		 push	 24			; 00000018H
  000cf	8b 45 f8	 mov	 eax, DWORD PTR _en$[ebp]
  000d2	50		 push	 eax
  000d3	e8 00 00 00 00	 call	 ?pause_local_entity_sound_type@@YGHPAUENTITY@@HM@Z ; pause_local_entity_sound_type

; 210  : 
; 211  : 		reset_good_tone ();

  000d8	e8 00 00 00 00	 call	 ?reset_good_tone@@YGXXZ	; reset_good_tone
$LN5@update_apa:

; 212  : 	}
; 213  : 
; 214  : 	////////////////////////////////////////
; 215  : 	//
; 216  : 	// Stinger seeker head position
; 217  : 	//
; 218  : 	////////////////////////////////////////
; 219  : 
; 220  : 	apache_stinger_seeker_head_x_position = 0.25 * sin (seeker_head_theta1);

  000dd	51		 push	 ecx
  000de	f3 0f 10 05 00
	00 00 00	 movss	 xmm0, DWORD PTR ?seeker_head_theta1@@3MA
  000e6	f3 0f 11 04 24	 movss	 DWORD PTR [esp], xmm0
  000eb	e8 00 00 00 00	 call	 ?sin@@YGMM@Z		; sin
  000f0	dd 5d a0	 fstp	 QWORD PTR tv315[ebp]
  000f3	f2 0f 10 45 a0	 movsd	 xmm0, QWORD PTR tv315[ebp]
  000f8	f2 0f 59 05 00
	00 00 00	 mulsd	 xmm0, QWORD PTR __real@3fd0000000000000
  00100	f2 0f 5a c0	 cvtsd2ss xmm0, xmm0
  00104	f3 0f 11 05 00
	00 00 00	 movss	 DWORD PTR ?apache_stinger_seeker_head_x_position@@3MA, xmm0

; 221  : 	apache_stinger_seeker_head_y_position = 0.25 * cos (seeker_head_theta1);

  0010c	51		 push	 ecx
  0010d	f3 0f 10 05 00
	00 00 00	 movss	 xmm0, DWORD PTR ?seeker_head_theta1@@3MA
  00115	f3 0f 11 04 24	 movss	 DWORD PTR [esp], xmm0
  0011a	e8 00 00 00 00	 call	 ?cos@@YGMM@Z		; cos
  0011f	dd 5d a0	 fstp	 QWORD PTR tv323[ebp]
  00122	f2 0f 10 45 a0	 movsd	 xmm0, QWORD PTR tv323[ebp]
  00127	f2 0f 59 05 00
	00 00 00	 mulsd	 xmm0, QWORD PTR __real@3fd0000000000000
  0012f	f2 0f 5a c0	 cvtsd2ss xmm0, xmm0
  00133	f3 0f 11 05 00
	00 00 00	 movss	 DWORD PTR ?apache_stinger_seeker_head_y_position@@3MA, xmm0

; 222  : 
; 223  : 	apache_stinger_seeker_head_x_position += 0.125 * sin (seeker_head_theta2);

  0013b	51		 push	 ecx
  0013c	f3 0f 10 05 00
	00 00 00	 movss	 xmm0, DWORD PTR ?seeker_head_theta2@@3MA
  00144	f3 0f 11 04 24	 movss	 DWORD PTR [esp], xmm0
  00149	e8 00 00 00 00	 call	 ?sin@@YGMM@Z		; sin
  0014e	dd 5d a0	 fstp	 QWORD PTR tv331[ebp]
  00151	f2 0f 10 45 a0	 movsd	 xmm0, QWORD PTR tv331[ebp]
  00156	f2 0f 59 05 00
	00 00 00	 mulsd	 xmm0, QWORD PTR __real@3fc0000000000000
  0015e	f3 0f 5a 0d 00
	00 00 00	 cvtss2sd xmm1, DWORD PTR ?apache_stinger_seeker_head_x_position@@3MA
  00166	f2 0f 58 c8	 addsd	 xmm1, xmm0
  0016a	f2 0f 5a c1	 cvtsd2ss xmm0, xmm1
  0016e	f3 0f 11 05 00
	00 00 00	 movss	 DWORD PTR ?apache_stinger_seeker_head_x_position@@3MA, xmm0

; 224  : 	apache_stinger_seeker_head_y_position += 0.125 * cos (seeker_head_theta2);

  00176	51		 push	 ecx
  00177	f3 0f 10 05 00
	00 00 00	 movss	 xmm0, DWORD PTR ?seeker_head_theta2@@3MA
  0017f	f3 0f 11 04 24	 movss	 DWORD PTR [esp], xmm0
  00184	e8 00 00 00 00	 call	 ?cos@@YGMM@Z		; cos
  00189	dd 5d a0	 fstp	 QWORD PTR tv339[ebp]
  0018c	f2 0f 10 45 a0	 movsd	 xmm0, QWORD PTR tv339[ebp]
  00191	f2 0f 59 05 00
	00 00 00	 mulsd	 xmm0, QWORD PTR __real@3fc0000000000000
  00199	f3 0f 5a 0d 00
	00 00 00	 cvtss2sd xmm1, DWORD PTR ?apache_stinger_seeker_head_y_position@@3MA
  001a1	f2 0f 58 c8	 addsd	 xmm1, xmm0
  001a5	f2 0f 5a c1	 cvtsd2ss xmm0, xmm1
  001a9	f3 0f 11 05 00
	00 00 00	 movss	 DWORD PTR ?apache_stinger_seeker_head_y_position@@3MA, xmm0

; 225  : 
; 226  : 	seeker_head_theta1 += rad (120.0) * get_delta_time ();

  001b1	f3 0f 5a 05 00
	00 00 00	 cvtss2sd xmm0, DWORD PTR ?system_delta_time@@3MA
  001b9	f2 0f 59 05 00
	00 00 00	 mulsd	 xmm0, QWORD PTR __real@4000c15236000000
  001c1	f3 0f 5a 0d 00
	00 00 00	 cvtss2sd xmm1, DWORD PTR ?seeker_head_theta1@@3MA
  001c9	f2 0f 58 c8	 addsd	 xmm1, xmm0
  001cd	f2 0f 5a c1	 cvtsd2ss xmm0, xmm1
  001d1	f3 0f 11 05 00
	00 00 00	 movss	 DWORD PTR ?seeker_head_theta1@@3MA, xmm0

; 227  : 	seeker_head_theta2 -= rad (180.0) * get_delta_time ();

  001d9	f3 0f 5a 05 00
	00 00 00	 cvtss2sd xmm0, DWORD PTR ?system_delta_time@@3MA
  001e1	f2 0f 59 05 00
	00 00 00	 mulsd	 xmm0, QWORD PTR __real@400921fb51000000
  001e9	f3 0f 5a 0d 00
	00 00 00	 cvtss2sd xmm1, DWORD PTR ?seeker_head_theta2@@3MA
  001f1	f2 0f 5c c8	 subsd	 xmm1, xmm0
  001f5	f2 0f 5a c1	 cvtsd2ss xmm0, xmm1
  001f9	f3 0f 11 05 00
	00 00 00	 movss	 DWORD PTR ?seeker_head_theta2@@3MA, xmm0

; 228  : 
; 229  : 	////////////////////////////////////////
; 230  : 	//
; 231  : 	// weapon launch interlocks
; 232  : 	//
; 233  : 	////////////////////////////////////////
; 234  : 
; 235  : 	inhibit_launch = FALSE;

  00201	c7 45 fc 00 00
	00 00		 mov	 DWORD PTR _inhibit_launch$[ebp], 0

; 236  : 
; 237  : 	switch (weapon_sub_type)

  00208	8b 45 f0	 mov	 eax, DWORD PTR _weapon_sub_type$[ebp]
  0020b	89 45 a4	 mov	 DWORD PTR tv157[ebp], eax
  0020e	8b 4d a4	 mov	 ecx, DWORD PTR tv157[ebp]
  00211	83 e9 07	 sub	 ecx, 7
  00214	89 4d a4	 mov	 DWORD PTR tv157[ebp], ecx
  00217	83 7d a4 27	 cmp	 DWORD PTR tv157[ebp], 39 ; 00000027H
  0021b	0f 87 4b 01 00
	00		 ja	 $LN2@update_apa
  00221	8b 55 a4	 mov	 edx, DWORD PTR tv157[ebp]
  00224	0f b6 82 00 00
	00 00		 movzx	 eax, BYTE PTR $LN53@update_apa[edx]
  0022b	ff 24 85 00 00
	00 00		 jmp	 DWORD PTR $LN54@update_apa[eax*4]
$LN6@update_apa:

; 238  : 	{
; 239  : 		////////////////////////////////////////
; 240  : 		case ENTITY_SUB_TYPE_WEAPON_M230_30MM_ROUND:
; 241  : 		////////////////////////////////////////
; 242  : 		{
; 243  : 			if
; 244  : 			(
; 245  : 				//WEAPON_LOCK_NO_ACQUIRE
; 246  : 				(weapon_lock_type == WEAPON_LOCK_NO_WEAPON)

  00232	83 3d 00 00 00
	00 01		 cmp	 DWORD PTR ?weapon_lock_type@@3W4WEAPON_LOCK_TYPES@@A, 1 ; weapon_lock_type
  00239	75 07		 jne	 SHORT $LN7@update_apa

; 247  : 				//WEAPON_LOCK_NO_TARGET
; 248  : 				//WEAPON_LOCK_INVALID_TARGET
; 249  : 				//WEAPON_LOCK_SEEKER_LIMIT
; 250  : 				//WEAPON_LOCK_NO_LOS
; 251  : 				//WEAPON_LOCK_NO_BORESIGHT
; 252  : 				//WEAPON_LOCK_MIN_RANGE
; 253  : 				//WEAPON_LOCK_MAX_RANGE
; 254  : 				//WEAPON_LOCK_VALID
; 255  : 			)
; 256  : 			{
; 257  : 				inhibit_launch = TRUE;

  0023b	c7 45 fc 01 00
	00 00		 mov	 DWORD PTR _inhibit_launch$[ebp], 1
$LN7@update_apa:

; 258  : 			}
; 259  : 
; 260  : 			break;

  00242	e9 25 01 00 00	 jmp	 $LN2@update_apa
$LN8@update_apa:

; 261  : 		}
; 262  : 		////////////////////////////////////////
; 263  : 		case ENTITY_SUB_TYPE_WEAPON_AIM92_STINGER:
; 264  : 		////////////////////////////////////////
; 265  : 		{
; 266  : 			if
; 267  : 			(
; 268  : 				(weapon_lock_type == WEAPON_LOCK_NO_ACQUIRE) ||
; 269  : 				(weapon_lock_type == WEAPON_LOCK_NO_WEAPON) ||
; 270  : 				(weapon_lock_type == WEAPON_LOCK_NO_TARGET) ||
; 271  : 				(weapon_lock_type == WEAPON_LOCK_INVALID_TARGET) ||
; 272  : 				(weapon_lock_type == WEAPON_LOCK_SEEKER_LIMIT) ||
; 273  : 				(weapon_lock_type == WEAPON_LOCK_NO_LOS) ||

  00247	83 3d 00 00 00
	00 00		 cmp	 DWORD PTR ?weapon_lock_type@@3W4WEAPON_LOCK_TYPES@@A, 0 ; weapon_lock_type
  0024e	74 36		 je	 SHORT $LN10@update_apa
  00250	83 3d 00 00 00
	00 01		 cmp	 DWORD PTR ?weapon_lock_type@@3W4WEAPON_LOCK_TYPES@@A, 1 ; weapon_lock_type
  00257	74 2d		 je	 SHORT $LN10@update_apa
  00259	83 3d 00 00 00
	00 02		 cmp	 DWORD PTR ?weapon_lock_type@@3W4WEAPON_LOCK_TYPES@@A, 2 ; weapon_lock_type
  00260	74 24		 je	 SHORT $LN10@update_apa
  00262	83 3d 00 00 00
	00 03		 cmp	 DWORD PTR ?weapon_lock_type@@3W4WEAPON_LOCK_TYPES@@A, 3 ; weapon_lock_type
  00269	74 1b		 je	 SHORT $LN10@update_apa
  0026b	83 3d 00 00 00
	00 04		 cmp	 DWORD PTR ?weapon_lock_type@@3W4WEAPON_LOCK_TYPES@@A, 4 ; weapon_lock_type
  00272	74 12		 je	 SHORT $LN10@update_apa
  00274	83 3d 00 00 00
	00 05		 cmp	 DWORD PTR ?weapon_lock_type@@3W4WEAPON_LOCK_TYPES@@A, 5 ; weapon_lock_type
  0027b	74 09		 je	 SHORT $LN10@update_apa
  0027d	83 3d 00 00 00
	00 08		 cmp	 DWORD PTR ?weapon_lock_type@@3W4WEAPON_LOCK_TYPES@@A, 8 ; weapon_lock_type
  00284	75 07		 jne	 SHORT $LN9@update_apa
$LN10@update_apa:

; 274  : 				//WEAPON_LOCK_NO_BORESIGHT
; 275  : 				//WEAPON_LOCK_MIN_RANGE
; 276  : 				(weapon_lock_type == WEAPON_LOCK_MAX_RANGE)
; 277  : 				//WEAPON_LOCK_VALID
; 278  : 			)
; 279  : 			{
; 280  : 				inhibit_launch = TRUE;

  00286	c7 45 fc 01 00
	00 00		 mov	 DWORD PTR _inhibit_launch$[ebp], 1
$LN9@update_apa:

; 281  : 			}
; 282  : 
; 283  : 			break;

  0028d	e9 da 00 00 00	 jmp	 $LN2@update_apa
$LN11@update_apa:

; 284  : 		}
; 285  : 		////////////////////////////////////////
; 286  : 		case ENTITY_SUB_TYPE_WEAPON_AGM114L_LONGBOW_HELLFIRE:
; 287  : 		case ENTITY_SUB_TYPE_WEAPON_AGM114K_HELLFIRE_II:
; 288  : 		////////////////////////////////////////
; 289  : 		{
; 290  : 			if (!get_local_entity_int_value (en, INT_TYPE_LOCK_ON_AFTER_LAUNCH))

  00292	83 7d f8 00	 cmp	 DWORD PTR _en$[ebp], 0
  00296	74 0a		 je	 SHORT $LN41@update_apa
  00298	8b 45 f8	 mov	 eax, DWORD PTR _en$[ebp]
  0029b	8b 08		 mov	 ecx, DWORD PTR [eax]
  0029d	89 4d a4	 mov	 DWORD PTR tv171[ebp], ecx
  002a0	eb 1d		 jmp	 SHORT $LN42@update_apa
$LN41@update_apa:
  002a2	68 22 01 00 00	 push	 290			; 00000122H
  002a7	68 00 00 00 00	 push	 OFFSET ??_C@_0EO@EDKDEHLB@c?3?2users?2nhv90?2projects?2eech?2ap@
  002ac	8b 15 00 00 00
	00		 mov	 edx, DWORD PTR ?null_entity_pointer_message@@3PBDB ; null_entity_pointer_message
  002b2	52		 push	 edx
  002b3	e8 00 00 00 00	 call	 ?process_assert@@YGXPBD0H@Z ; process_assert
  002b8	c7 45 a4 00 00
	00 00		 mov	 DWORD PTR tv171[ebp], 0
$LN42@update_apa:
  002bf	b8 01 00 00 00	 mov	 eax, 1
  002c4	85 c0		 test	 eax, eax
  002c6	74 09		 je	 SHORT $LN43@update_apa
  002c8	c7 45 a0 7e 00
	00 00		 mov	 DWORD PTR tv178[ebp], 126 ; 0000007eH
  002cf	eb 1d		 jmp	 SHORT $LN44@update_apa
$LN43@update_apa:
  002d1	68 22 01 00 00	 push	 290			; 00000122H
  002d6	68 00 00 00 00	 push	 OFFSET ??_C@_0EO@EDKDEHLB@c?3?2users?2nhv90?2projects?2eech?2ap@
  002db	8b 0d 00 00 00
	00		 mov	 ecx, DWORD PTR ?overload_invalid_int_type_message@@3PBDB ; overload_invalid_int_type_message
  002e1	51		 push	 ecx
  002e2	e8 00 00 00 00	 call	 ?process_assert@@YGXPBD0H@Z ; process_assert
  002e7	c7 45 a0 00 00
	00 00		 mov	 DWORD PTR tv178[ebp], 0
$LN44@update_apa:
  002ee	6a 7e		 push	 126			; 0000007eH
  002f0	8b 55 f8	 mov	 edx, DWORD PTR _en$[ebp]
  002f3	52		 push	 edx
  002f4	69 45 a4 5c 04
	00 00		 imul	 eax, DWORD PTR tv171[ebp], 1116
  002fb	8b 4d a0	 mov	 ecx, DWORD PTR tv178[ebp]
  002fe	8b 94 88 00 00
	00 00		 mov	 edx, DWORD PTR ?fn_get_local_entity_int_value@@3PAY0BBH@P6GHPAUENTITY@@W4INT_TYPES@@@ZA[eax+ecx*4]
  00305	ff d2		 call	 edx
  00307	85 c0		 test	 eax, eax
  00309	75 3f		 jne	 SHORT $LN12@update_apa

; 291  : 			{
; 292  : 				if
; 293  : 				(
; 294  : 					(weapon_lock_type == WEAPON_LOCK_NO_ACQUIRE) ||
; 295  : 					(weapon_lock_type == WEAPON_LOCK_NO_WEAPON) ||
; 296  : 					(weapon_lock_type == WEAPON_LOCK_NO_TARGET) ||
; 297  : 					(weapon_lock_type == WEAPON_LOCK_INVALID_TARGET) ||
; 298  : 					(weapon_lock_type == WEAPON_LOCK_SEEKER_LIMIT) ||

  0030b	83 3d 00 00 00
	00 00		 cmp	 DWORD PTR ?weapon_lock_type@@3W4WEAPON_LOCK_TYPES@@A, 0 ; weapon_lock_type
  00312	74 2d		 je	 SHORT $LN15@update_apa
  00314	83 3d 00 00 00
	00 01		 cmp	 DWORD PTR ?weapon_lock_type@@3W4WEAPON_LOCK_TYPES@@A, 1 ; weapon_lock_type
  0031b	74 24		 je	 SHORT $LN15@update_apa
  0031d	83 3d 00 00 00
	00 02		 cmp	 DWORD PTR ?weapon_lock_type@@3W4WEAPON_LOCK_TYPES@@A, 2 ; weapon_lock_type
  00324	74 1b		 je	 SHORT $LN15@update_apa
  00326	83 3d 00 00 00
	00 03		 cmp	 DWORD PTR ?weapon_lock_type@@3W4WEAPON_LOCK_TYPES@@A, 3 ; weapon_lock_type
  0032d	74 12		 je	 SHORT $LN15@update_apa
  0032f	83 3d 00 00 00
	00 04		 cmp	 DWORD PTR ?weapon_lock_type@@3W4WEAPON_LOCK_TYPES@@A, 4 ; weapon_lock_type
  00336	74 09		 je	 SHORT $LN15@update_apa
  00338	83 3d 00 00 00
	00 08		 cmp	 DWORD PTR ?weapon_lock_type@@3W4WEAPON_LOCK_TYPES@@A, 8 ; weapon_lock_type
  0033f	75 07		 jne	 SHORT $LN14@update_apa
$LN15@update_apa:

; 299  : 					//WEAPON_LOCK_NO_LOS
; 300  : 					//WEAPON_LOCK_NO_BORESIGHT
; 301  : 					//WEAPON_LOCK_MIN_RANGE
; 302  : 					(weapon_lock_type == WEAPON_LOCK_MAX_RANGE)
; 303  : 					//WEAPON_LOCK_VALID
; 304  : 				)
; 305  : 				{
; 306  : 					inhibit_launch = TRUE;

  00341	c7 45 fc 01 00
	00 00		 mov	 DWORD PTR _inhibit_launch$[ebp], 1
$LN14@update_apa:

; 307  : 				}
; 308  : 			}
; 309  : 			else

  00348	eb 10		 jmp	 SHORT $LN16@update_apa
$LN12@update_apa:

; 310  : 			{
; 311  : 				if
; 312  : 				(
; 313  : 					//WEAPON_LOCK_NO_ACQUIRE
; 314  : 					(weapon_lock_type == WEAPON_LOCK_NO_WEAPON)

  0034a	83 3d 00 00 00
	00 01		 cmp	 DWORD PTR ?weapon_lock_type@@3W4WEAPON_LOCK_TYPES@@A, 1 ; weapon_lock_type
  00351	75 07		 jne	 SHORT $LN16@update_apa

; 315  : 					//WEAPON_LOCK_NO_TARGET
; 316  : 					//WEAPON_LOCK_INVALID_TARGET
; 317  : 					//WEAPON_LOCK_SEEKER_LIMIT
; 318  : 					//WEAPON_LOCK_NO_LOS
; 319  : 					//WEAPON_LOCK_NO_BORESIGHT
; 320  : 					//WEAPON_LOCK_MIN_RANGE
; 321  : 					//WEAPON_LOCK_MAX_RANGE
; 322  : 					//WEAPON_LOCK_VALID
; 323  : 				)
; 324  : 				{
; 325  : 					inhibit_launch = TRUE;

  00353	c7 45 fc 01 00
	00 00		 mov	 DWORD PTR _inhibit_launch$[ebp], 1
$LN16@update_apa:

; 326  : 				}
; 327  : 			}
; 328  : 
; 329  : 			break;

  0035a	eb 10		 jmp	 SHORT $LN2@update_apa
$LN17@update_apa:

; 330  : 		}
; 331  : 		////////////////////////////////////////
; 332  : 		case ENTITY_SUB_TYPE_WEAPON_HYDRA70_M255:
; 333  : 		case ENTITY_SUB_TYPE_WEAPON_HYDRA70_M261:
; 334  : 		////////////////////////////////////////
; 335  : 		{
; 336  : 			if
; 337  : 			(
; 338  : 				//WEAPON_LOCK_NO_ACQUIRE
; 339  : 				(weapon_lock_type == WEAPON_LOCK_NO_WEAPON)

  0035c	83 3d 00 00 00
	00 01		 cmp	 DWORD PTR ?weapon_lock_type@@3W4WEAPON_LOCK_TYPES@@A, 1 ; weapon_lock_type
  00363	75 07		 jne	 SHORT $LN18@update_apa

; 340  : 				//WEAPON_LOCK_NO_TARGET
; 341  : 				//WEAPON_LOCK_INVALID_TARGET
; 342  : 				//WEAPON_LOCK_SEEKER_LIMIT
; 343  : 				//WEAPON_LOCK_NO_LOS
; 344  : 				//WEAPON_LOCK_NO_BORESIGHT
; 345  : 				//WEAPON_LOCK_MIN_RANGE
; 346  : 				//WEAPON_LOCK_MAX_RANGE
; 347  : 				//WEAPON_LOCK_VALID
; 348  : 			)
; 349  : 			{
; 350  : 				inhibit_launch = TRUE;

  00365	c7 45 fc 01 00
	00 00		 mov	 DWORD PTR _inhibit_launch$[ebp], 1
$LN18@update_apa:
$LN2@update_apa:

; 351  : 			}
; 352  : 
; 353  : 			break;
; 354  : 		}
; 355  : 	}
; 356  : 
; 357  : 	if (inhibit_launch)

  0036c	83 7d fc 00	 cmp	 DWORD PTR _inhibit_launch$[ebp], 0
  00370	74 2d		 je	 SHORT $LN19@update_apa

; 358  : 	{
; 359  : 		if (fire_single_weapon)

  00372	83 3d 00 00 00
	00 00		 cmp	 DWORD PTR ?fire_single_weapon@@3HA, 0 ; fire_single_weapon
  00379	74 0b		 je	 SHORT $LN20@update_apa

; 360  : 		{
; 361  : 			play_common_cpg_failed_launch_speech (weapon_lock_type);

  0037b	a1 00 00 00 00	 mov	 eax, DWORD PTR ?weapon_lock_type@@3W4WEAPON_LOCK_TYPES@@A ; weapon_lock_type
  00380	50		 push	 eax
  00381	e8 00 00 00 00	 call	 ?play_common_cpg_failed_launch_speech@@YGXW4WEAPON_LOCK_TYPES@@@Z ; play_common_cpg_failed_launch_speech
$LN20@update_apa:

; 362  : 		}
; 363  : 
; 364  : 		rocket_salvo_count = 0;

  00386	c7 05 00 00 00
	00 00 00 00 00	 mov	 DWORD PTR ?rocket_salvo_count@@3HA, 0 ; rocket_salvo_count

; 365  : 
; 366  : 		fire_single_weapon = 0;

  00390	c7 05 00 00 00
	00 00 00 00 00	 mov	 DWORD PTR ?fire_single_weapon@@3HA, 0 ; fire_single_weapon

; 367  : 
; 368  : 		return;

  0039a	e9 e5 02 00 00	 jmp	 $LN1@update_apa
$LN19@update_apa:

; 369  : 	}
; 370  : 
; 371  : 	//
; 372  : 	// ensure that there is a selected weapon
; 373  : 	//
; 374  : 
; 375  : 	if (weapon_sub_type == ENTITY_SUB_TYPE_WEAPON_NO_WEAPON)

  0039f	83 7d f0 00	 cmp	 DWORD PTR _weapon_sub_type$[ebp], 0
  003a3	75 5b		 jne	 SHORT $LN21@update_apa

; 376  : 	{
; 377  : 		if (fire_single_weapon)

  003a5	83 3d 00 00 00
	00 00		 cmp	 DWORD PTR ?fire_single_weapon@@3HA, 0 ; fire_single_weapon
  003ac	74 39		 je	 SHORT $LN22@update_apa

; 378  : 		{
; 379  : 			play_client_server_cpg_message (get_gunship_entity (), 0.5, 1.0, SPEECH_CATEGORY_CPG_SYSTEMS, 1.0, SPEECH_CPG_NO_WEAPON);

  003ae	6a 50		 push	 80			; 00000050H
  003b0	51		 push	 ecx
  003b1	f3 0f 10 05 00
	00 00 00	 movss	 xmm0, DWORD PTR __real@3f800000
  003b9	f3 0f 11 04 24	 movss	 DWORD PTR [esp], xmm0
  003be	6a 04		 push	 4
  003c0	51		 push	 ecx
  003c1	f3 0f 10 05 00
	00 00 00	 movss	 xmm0, DWORD PTR __real@3f800000
  003c9	f3 0f 11 04 24	 movss	 DWORD PTR [esp], xmm0
  003ce	51		 push	 ecx
  003cf	f3 0f 10 05 00
	00 00 00	 movss	 xmm0, DWORD PTR __real@3f000000
  003d7	f3 0f 11 04 24	 movss	 DWORD PTR [esp], xmm0
  003dc	a1 00 00 00 00	 mov	 eax, DWORD PTR ?gunship_entity@@3PAUENTITY@@A ; gunship_entity
  003e1	50		 push	 eax
  003e2	e8 00 00 00 00	 call	 ?play_client_server_cpg_message@@YGHPAUENTITY@@MMHMH@Z ; play_client_server_cpg_message
$LN22@update_apa:

; 380  : 		}
; 381  : 
; 382  : 		rocket_salvo_count = 0;

  003e7	c7 05 00 00 00
	00 00 00 00 00	 mov	 DWORD PTR ?rocket_salvo_count@@3HA, 0 ; rocket_salvo_count

; 383  : 
; 384  : 		fire_single_weapon = 0;

  003f1	c7 05 00 00 00
	00 00 00 00 00	 mov	 DWORD PTR ?fire_single_weapon@@3HA, 0 ; fire_single_weapon

; 385  : 
; 386  : 		return;

  003fb	e9 84 02 00 00	 jmp	 $LN1@update_apa
$LN21@update_apa:

; 387  : 	}
; 388  : 
; 389  : 	////////////////////////////////////////
; 390  : 	//
; 391  : 	// rocket salvo
; 392  : 	//
; 393  : 	////////////////////////////////////////
; 394  : 
; 395  : 	if ((weapon_sub_type == ENTITY_SUB_TYPE_WEAPON_HYDRA70_M255) || (weapon_sub_type == ENTITY_SUB_TYPE_WEAPON_HYDRA70_M261))

  00400	83 7d f0 1e	 cmp	 DWORD PTR _weapon_sub_type$[ebp], 30 ; 0000001eH
  00404	74 06		 je	 SHORT $LN25@update_apa
  00406	83 7d f0 1f	 cmp	 DWORD PTR _weapon_sub_type$[ebp], 31 ; 0000001fH
  0040a	75 6e		 jne	 SHORT $LN23@update_apa
$LN25@update_apa:

; 396  : 	{
; 397  : 		if (fire_single_weapon)

  0040c	83 3d 00 00 00
	00 00		 cmp	 DWORD PTR ?fire_single_weapon@@3HA, 0 ; fire_single_weapon
  00413	74 10		 je	 SHORT $LN26@update_apa

; 398  : 		{
; 399  : 			rocket_salvo_count += rocket_salvo_size;

  00415	a1 00 00 00 00	 mov	 eax, DWORD PTR ?rocket_salvo_count@@3HA ; rocket_salvo_count
  0041a	03 05 00 00 00
	00		 add	 eax, DWORD PTR ?rocket_salvo_size@@3HA ; rocket_salvo_size
  00420	a3 00 00 00 00	 mov	 DWORD PTR ?rocket_salvo_count@@3HA, eax ; rocket_salvo_count
$LN26@update_apa:

; 400  : 		}
; 401  : 
; 402  : 		if (rocket_salvo_count)

  00425	83 3d 00 00 00
	00 00		 cmp	 DWORD PTR ?rocket_salvo_count@@3HA, 0 ; rocket_salvo_count
  0042c	74 4a		 je	 SHORT $LN27@update_apa

; 403  : 		{
; 404  : 			fire_single_weapon = min (rocket_salvo_count, 2);

  0042e	c7 45 ac 02 00
	00 00		 mov	 DWORD PTR $T2[ebp], 2
  00435	8d 45 ac	 lea	 eax, DWORD PTR $T2[ebp]
  00438	50		 push	 eax
  00439	68 00 00 00 00	 push	 OFFSET ?rocket_salvo_count@@3HA ; rocket_salvo_count
  0043e	e8 00 00 00 00	 call	 ??$min@H@std@@YGABHABH0@Z ; std::min<int>
  00443	8b 08		 mov	 ecx, DWORD PTR [eax]
  00445	89 0d 00 00 00
	00		 mov	 DWORD PTR ?fire_single_weapon@@3HA, ecx ; fire_single_weapon

; 405  : 
; 406  : 			rocket_salvo_count -= fire_single_weapon;

  0044b	a1 00 00 00 00	 mov	 eax, DWORD PTR ?rocket_salvo_count@@3HA ; rocket_salvo_count
  00450	2b 05 00 00 00
	00		 sub	 eax, DWORD PTR ?fire_single_weapon@@3HA ; fire_single_weapon
  00456	a3 00 00 00 00	 mov	 DWORD PTR ?rocket_salvo_count@@3HA, eax ; rocket_salvo_count

; 407  : 
; 408  : 			rocket_salvo_count = max (rocket_salvo_count, 0);

  0045b	c7 45 a8 00 00
	00 00		 mov	 DWORD PTR $T1[ebp], 0
  00462	8d 45 a8	 lea	 eax, DWORD PTR $T1[ebp]
  00465	50		 push	 eax
  00466	68 00 00 00 00	 push	 OFFSET ?rocket_salvo_count@@3HA ; rocket_salvo_count
  0046b	e8 00 00 00 00	 call	 ??$max@H@std@@YGABHABH0@Z ; std::max<int>
  00470	8b 08		 mov	 ecx, DWORD PTR [eax]
  00472	89 0d 00 00 00
	00		 mov	 DWORD PTR ?rocket_salvo_count@@3HA, ecx ; rocket_salvo_count
$LN27@update_apa:

; 409  : 		}
; 410  : 	}
; 411  : 	else

  00478	eb 0a		 jmp	 SHORT $LN24@update_apa
$LN23@update_apa:

; 412  : 	{
; 413  : 		rocket_salvo_count = 0;

  0047a	c7 05 00 00 00
	00 00 00 00 00	 mov	 DWORD PTR ?rocket_salvo_count@@3HA, 0 ; rocket_salvo_count
$LN24@update_apa:

; 414  : 	}
; 415  : 
; 416  : 	////////////////////////////////////////
; 417  : 	//
; 418  : 	// launch weapon(s)
; 419  : 	//
; 420  : 	////////////////////////////////////////
; 421  : 
; 422  : 	target = get_local_entity_parent (en, LIST_TYPE_TARGET);

  00484	83 7d f8 00	 cmp	 DWORD PTR _en$[ebp], 0
  00488	74 0a		 je	 SHORT $LN45@update_apa
  0048a	8b 45 f8	 mov	 eax, DWORD PTR _en$[ebp]
  0048d	8b 08		 mov	 ecx, DWORD PTR [eax]
  0048f	89 4d a4	 mov	 DWORD PTR tv224[ebp], ecx
  00492	eb 24		 jmp	 SHORT $LN46@update_apa
$LN45@update_apa:
  00494	8b 15 00 00 00
	00		 mov	 edx, DWORD PTR ?__LINE__Var@?0??update_apache_weapon_systems@@YGXXZ@4JA
  0049a	81 c2 f4 00 00
	00		 add	 edx, 244		; 000000f4H
  004a0	52		 push	 edx
  004a1	68 00 00 00 00	 push	 OFFSET ??_C@_0EO@EDKDEHLB@c?3?2users?2nhv90?2projects?2eech?2ap@
  004a6	a1 00 00 00 00	 mov	 eax, DWORD PTR ?null_entity_pointer_message@@3PBDB ; null_entity_pointer_message
  004ab	50		 push	 eax
  004ac	e8 00 00 00 00	 call	 ?process_assert@@YGXPBD0H@Z ; process_assert
  004b1	c7 45 a4 00 00
	00 00		 mov	 DWORD PTR tv224[ebp], 0
$LN46@update_apa:
  004b8	b9 01 00 00 00	 mov	 ecx, 1
  004bd	85 c9		 test	 ecx, ecx
  004bf	74 09		 je	 SHORT $LN47@update_apa
  004c1	c7 45 a0 26 00
	00 00		 mov	 DWORD PTR tv232[ebp], 38 ; 00000026H
  004c8	eb 24		 jmp	 SHORT $LN48@update_apa
$LN47@update_apa:
  004ca	8b 15 00 00 00
	00		 mov	 edx, DWORD PTR ?__LINE__Var@?0??update_apache_weapon_systems@@YGXXZ@4JA
  004d0	81 c2 f4 00 00
	00		 add	 edx, 244		; 000000f4H
  004d6	52		 push	 edx
  004d7	68 00 00 00 00	 push	 OFFSET ??_C@_0EO@EDKDEHLB@c?3?2users?2nhv90?2projects?2eech?2ap@
  004dc	a1 00 00 00 00	 mov	 eax, DWORD PTR ?overload_invalid_list_type_message@@3PBDB ; overload_invalid_list_type_message
  004e1	50		 push	 eax
  004e2	e8 00 00 00 00	 call	 ?process_assert@@YGXPBD0H@Z ; process_assert
  004e7	c7 45 a0 00 00
	00 00		 mov	 DWORD PTR tv232[ebp], 0
$LN48@update_apa:
  004ee	6a 26		 push	 38			; 00000026H
  004f0	8b 4d f8	 mov	 ecx, DWORD PTR _en$[ebp]
  004f3	51		 push	 ecx
  004f4	69 55 a4 b4 00
	00 00		 imul	 edx, DWORD PTR tv224[ebp], 180
  004fb	8b 45 a0	 mov	 eax, DWORD PTR tv232[ebp]
  004fe	8b 8c 82 00 00
	00 00		 mov	 ecx, DWORD PTR ?fn_get_local_entity_parent@@3PAY0CN@P6GPAUENTITY@@PAU1@W4LIST_TYPES@@@ZA[edx+eax*4]
  00505	ff d1		 call	 ecx
  00507	89 45 f4	 mov	 DWORD PTR _target$[ebp], eax

; 423  : 
; 424  : 	if ((fire_continuous_weapon || fire_single_weapon) && get_local_entity_weapon_count (en, weapon_sub_type) > 0)

  0050a	83 3d 00 00 00
	00 00		 cmp	 DWORD PTR ?fire_continuous_weapon@@3HA, 0 ; fire_continuous_weapon
  00511	75 0d		 jne	 SHORT $LN30@update_apa
  00513	83 3d 00 00 00
	00 00		 cmp	 DWORD PTR ?fire_single_weapon@@3HA, 0 ; fire_single_weapon
  0051a	0f 84 4a 01 00
	00		 je	 $LN28@update_apa
$LN30@update_apa:
  00520	8b 45 f0	 mov	 eax, DWORD PTR _weapon_sub_type$[ebp]
  00523	50		 push	 eax
  00524	8b 4d f8	 mov	 ecx, DWORD PTR _en$[ebp]
  00527	51		 push	 ecx
  00528	e8 00 00 00 00	 call	 ?get_local_entity_weapon_count@@YGHPAUENTITY@@H@Z ; get_local_entity_weapon_count
  0052d	85 c0		 test	 eax, eax
  0052f	0f 8e 35 01 00
	00		 jle	 $LN28@update_apa

; 425  : 	{
; 426  : 		if (weapon_database[weapon_sub_type].rate_of_fire == FIRE_SINGLE_WEAPON)

  00535	69 45 f0 e0 00
	00 00		 imul	 eax, DWORD PTR _weapon_sub_type$[ebp], 224
  0053c	f3 0f 5a 80 c8
	00 00 00	 cvtss2sd xmm0, DWORD PTR ?weapon_database@@3PAUWEAPON_DATA@@A[eax+200]
  00544	66 0f 2e 05 00
	00 00 00	 ucomisd xmm0, QWORD PTR __real@0000000000000000
  0054c	9f		 lahf
  0054d	f6 c4 44	 test	 ah, 68			; 00000044H
  00550	0f 8a ee 00 00
	00		 jp	 $LN31@update_apa

; 427  : 		{
; 428  : 			//
; 429  : 			// fire a maximum of two weapons per frame (one off of each stub wing)
; 430  : 			//
; 431  : 
; 432  : 			if (fire_single_weapon >= 2)

  00556	83 3d 00 00 00
	00 02		 cmp	 DWORD PTR ?fire_single_weapon@@3HA, 2 ; fire_single_weapon
  0055d	7c 1a		 jl	 SHORT $LN33@update_apa

; 433  : 			{
; 434  : 				apply_weapon_recoil_effect (en, weapon_sub_type);

  0055f	8b 45 f0	 mov	 eax, DWORD PTR _weapon_sub_type$[ebp]
  00562	50		 push	 eax
  00563	8b 4d f8	 mov	 ecx, DWORD PTR _en$[ebp]
  00566	51		 push	 ecx
  00567	e8 00 00 00 00	 call	 ?apply_weapon_recoil_effect@@YGXPAUENTITY@@H@Z ; apply_weapon_recoil_effect

; 435  : 
; 436  : 				launch_client_server_weapon (en, weapon_sub_type);

  0056c	8b 45 f0	 mov	 eax, DWORD PTR _weapon_sub_type$[ebp]
  0056f	50		 push	 eax
  00570	8b 4d f8	 mov	 ecx, DWORD PTR _en$[ebp]
  00573	51		 push	 ecx
  00574	e8 00 00 00 00	 call	 ?launch_client_server_weapon@@YGXPAUENTITY@@H@Z ; launch_client_server_weapon
$LN33@update_apa:

; 437  : 			}
; 438  : 
; 439  : 			if (fire_single_weapon >= 1)

  00579	83 3d 00 00 00
	00 01		 cmp	 DWORD PTR ?fire_single_weapon@@3HA, 1 ; fire_single_weapon
  00580	7c 1a		 jl	 SHORT $LN34@update_apa

; 440  : 			{
; 441  : 				apply_weapon_recoil_effect (en, weapon_sub_type);

  00582	8b 45 f0	 mov	 eax, DWORD PTR _weapon_sub_type$[ebp]
  00585	50		 push	 eax
  00586	8b 4d f8	 mov	 ecx, DWORD PTR _en$[ebp]
  00589	51		 push	 ecx
  0058a	e8 00 00 00 00	 call	 ?apply_weapon_recoil_effect@@YGXPAUENTITY@@H@Z ; apply_weapon_recoil_effect

; 442  : 
; 443  : 				launch_client_server_weapon (en, weapon_sub_type);

  0058f	8b 45 f0	 mov	 eax, DWORD PTR _weapon_sub_type$[ebp]
  00592	50		 push	 eax
  00593	8b 4d f8	 mov	 ecx, DWORD PTR _en$[ebp]
  00596	51		 push	 ecx
  00597	e8 00 00 00 00	 call	 ?launch_client_server_weapon@@YGXPAUENTITY@@H@Z ; launch_client_server_weapon
$LN34@update_apa:

; 444  : 			}
; 445  : 			
; 446  : 			// when firing radar hellfires in PFZ mode automaticly select next target
; 447  : 			// after each launch
; 448  : 			if (weapon_sub_type == ENTITY_SUB_TYPE_WEAPON_AGM114L_LONGBOW_HELLFIRE
; 449  : 				&& target_acquisition_system == TARGET_ACQUISITION_SYSTEM_GROUND_RADAR
; 450  : 				&& get_local_entity_int_value (get_gunship_entity (), INT_TYPE_LOCK_ON_AFTER_LAUNCH)  // TODO: remove this once radar hellfires get their target upon launch, not 3 seconds later
; 451  : 				&& pfz_active())

  0059c	83 7d f0 2d	 cmp	 DWORD PTR _weapon_sub_type$[ebp], 45 ; 0000002dH
  005a0	0f 85 9c 00 00
	00		 jne	 $LN35@update_apa
  005a6	83 3d 00 00 00
	00 01		 cmp	 DWORD PTR ?target_acquisition_system@@3W4TARGET_ACQUISITION_SYSTEMS@@A, 1 ; target_acquisition_system
  005ad	0f 85 8f 00 00
	00		 jne	 $LN35@update_apa
  005b3	83 3d 00 00 00
	00 00		 cmp	 DWORD PTR ?gunship_entity@@3PAUENTITY@@A, 0 ; gunship_entity
  005ba	74 0c		 je	 SHORT $LN49@update_apa
  005bc	a1 00 00 00 00	 mov	 eax, DWORD PTR ?gunship_entity@@3PAUENTITY@@A ; gunship_entity
  005c1	8b 08		 mov	 ecx, DWORD PTR [eax]
  005c3	89 4d a4	 mov	 DWORD PTR tv266[ebp], ecx
  005c6	eb 1d		 jmp	 SHORT $LN50@update_apa
$LN49@update_apa:
  005c8	68 c2 01 00 00	 push	 450			; 000001c2H
  005cd	68 00 00 00 00	 push	 OFFSET ??_C@_0EO@EDKDEHLB@c?3?2users?2nhv90?2projects?2eech?2ap@
  005d2	8b 15 00 00 00
	00		 mov	 edx, DWORD PTR ?null_entity_pointer_message@@3PBDB ; null_entity_pointer_message
  005d8	52		 push	 edx
  005d9	e8 00 00 00 00	 call	 ?process_assert@@YGXPBD0H@Z ; process_assert
  005de	c7 45 a4 00 00
	00 00		 mov	 DWORD PTR tv266[ebp], 0
$LN50@update_apa:
  005e5	b8 01 00 00 00	 mov	 eax, 1
  005ea	85 c0		 test	 eax, eax
  005ec	74 09		 je	 SHORT $LN51@update_apa
  005ee	c7 45 a0 7e 00
	00 00		 mov	 DWORD PTR tv273[ebp], 126 ; 0000007eH
  005f5	eb 1d		 jmp	 SHORT $LN52@update_apa
$LN51@update_apa:
  005f7	68 c2 01 00 00	 push	 450			; 000001c2H
  005fc	68 00 00 00 00	 push	 OFFSET ??_C@_0EO@EDKDEHLB@c?3?2users?2nhv90?2projects?2eech?2ap@
  00601	8b 0d 00 00 00
	00		 mov	 ecx, DWORD PTR ?overload_invalid_int_type_message@@3PBDB ; overload_invalid_int_type_message
  00607	51		 push	 ecx
  00608	e8 00 00 00 00	 call	 ?process_assert@@YGXPBD0H@Z ; process_assert
  0060d	c7 45 a0 00 00
	00 00		 mov	 DWORD PTR tv273[ebp], 0
$LN52@update_apa:
  00614	6a 7e		 push	 126			; 0000007eH
  00616	8b 15 00 00 00
	00		 mov	 edx, DWORD PTR ?gunship_entity@@3PAUENTITY@@A ; gunship_entity
  0061c	52		 push	 edx
  0061d	69 45 a4 5c 04
	00 00		 imul	 eax, DWORD PTR tv266[ebp], 1116
  00624	8b 4d a0	 mov	 ecx, DWORD PTR tv273[ebp]
  00627	8b 94 88 00 00
	00 00		 mov	 edx, DWORD PTR ?fn_get_local_entity_int_value@@3PAY0BBH@P6GHPAUENTITY@@W4INT_TYPES@@@ZA[eax+ecx*4]
  0062e	ff d2		 call	 edx
  00630	85 c0		 test	 eax, eax
  00632	74 0e		 je	 SHORT $LN35@update_apa
  00634	e8 00 00 00 00	 call	 ?pfz_active@@YGHXZ	; pfz_active
  00639	85 c0		 test	 eax, eax
  0063b	74 05		 je	 SHORT $LN35@update_apa

; 452  : 			{
; 453  : 				get_next_ground_radar_target();	

  0063d	e8 00 00 00 00	 call	 ?get_next_ground_radar_target@@YGXXZ ; get_next_ground_radar_target
$LN35@update_apa:

; 454  : 			}
; 455  : 		}
; 456  : 		else

  00642	eb 24		 jmp	 SHORT $LN32@update_apa
$LN31@update_apa:

; 457  : 		{
; 458  : 			gun_is_firing = TRUE;

  00644	c7 05 00 00 00
	00 01 00 00 00	 mov	 DWORD PTR ?gun_is_firing@@3HA, 1 ; gun_is_firing

; 459  : 
; 460  : 			apply_weapon_recoil_effect (en, weapon_sub_type);

  0064e	8b 45 f0	 mov	 eax, DWORD PTR _weapon_sub_type$[ebp]
  00651	50		 push	 eax
  00652	8b 4d f8	 mov	 ecx, DWORD PTR _en$[ebp]
  00655	51		 push	 ecx
  00656	e8 00 00 00 00	 call	 ?apply_weapon_recoil_effect@@YGXPAUENTITY@@H@Z ; apply_weapon_recoil_effect

; 461  : 			launch_client_server_weapon (en, weapon_sub_type);

  0065b	8b 45 f0	 mov	 eax, DWORD PTR _weapon_sub_type$[ebp]
  0065e	50		 push	 eax
  0065f	8b 4d f8	 mov	 ecx, DWORD PTR _en$[ebp]
  00662	51		 push	 ecx
  00663	e8 00 00 00 00	 call	 ?launch_client_server_weapon@@YGXPAUENTITY@@H@Z ; launch_client_server_weapon
$LN32@update_apa:

; 462  : 		}
; 463  : 	}
; 464  : 	else

  00668	eb 10		 jmp	 SHORT $LN29@update_apa
$LN28@update_apa:

; 465  : 		((helicopter*)get_local_entity_data(en))->ac.weapon_salvo_timer = 0.0;

  0066a	8b 45 f8	 mov	 eax, DWORD PTR _en$[ebp]
  0066d	8b 48 04	 mov	 ecx, DWORD PTR [eax+4]
  00670	c7 81 30 01 00
	00 00 00 00 00	 mov	 DWORD PTR [ecx+304], 0
$LN29@update_apa:

; 466  : 
; 467  : 	fire_single_weapon = 0;

  0067a	c7 05 00 00 00
	00 00 00 00 00	 mov	 DWORD PTR ?fire_single_weapon@@3HA, 0 ; fire_single_weapon
$LN1@update_apa:

; 468  : }

  00684	5f		 pop	 edi
  00685	5e		 pop	 esi
  00686	5b		 pop	 ebx
  00687	8b e5		 mov	 esp, ebp
  00689	5d		 pop	 ebp
  0068a	c3		 ret	 0
  0068b	90		 npad	 1
$LN54@update_apa:
  0068c	00 00 00 00	 DD	 $LN6@update_apa
  00690	00 00 00 00	 DD	 $LN17@update_apa
  00694	00 00 00 00	 DD	 $LN8@update_apa
  00698	00 00 00 00	 DD	 $LN11@update_apa
  0069c	00 00 00 00	 DD	 $LN2@update_apa
$LN53@update_apa:
  006a0	00		 DB	 0
  006a1	04		 DB	 4
  006a2	04		 DB	 4
  006a3	04		 DB	 4
  006a4	04		 DB	 4
  006a5	04		 DB	 4
  006a6	04		 DB	 4
  006a7	04		 DB	 4
  006a8	04		 DB	 4
  006a9	04		 DB	 4
  006aa	04		 DB	 4
  006ab	04		 DB	 4
  006ac	04		 DB	 4
  006ad	04		 DB	 4
  006ae	04		 DB	 4
  006af	04		 DB	 4
  006b0	04		 DB	 4
  006b1	04		 DB	 4
  006b2	04		 DB	 4
  006b3	04		 DB	 4
  006b4	04		 DB	 4
  006b5	04		 DB	 4
  006b6	04		 DB	 4
  006b7	01		 DB	 1
  006b8	01		 DB	 1
  006b9	04		 DB	 4
  006ba	04		 DB	 4
  006bb	04		 DB	 4
  006bc	04		 DB	 4
  006bd	02		 DB	 2
  006be	04		 DB	 4
  006bf	04		 DB	 4
  006c0	04		 DB	 4
  006c1	04		 DB	 4
  006c2	04		 DB	 4
  006c3	04		 DB	 4
  006c4	04		 DB	 4
  006c5	04		 DB	 4
  006c6	03		 DB	 3
  006c7	03		 DB	 3
?update_apache_weapon_systems@@YGXXZ ENDP		; update_apache_weapon_systems
_TEXT	ENDS
; Function compile flags: /Odtp /ZI
; File c:\users\nhv90\projects\eech\aphavoc\source\gunships\avionics\apache\ap_wpn.c
;	COMDAT ?initialise_apache_weapon_systems@@YGXXZ
_TEXT	SEGMENT
?initialise_apache_weapon_systems@@YGXXZ PROC		; initialise_apache_weapon_systems, COMDAT

; 86   : {

  00000	55		 push	 ebp
  00001	8b ec		 mov	 ebp, esp
  00003	83 ec 40	 sub	 esp, 64			; 00000040H
  00006	53		 push	 ebx
  00007	56		 push	 esi
  00008	57		 push	 edi

; 87   : 	seeker_head_theta1 = 0.0;

  00009	0f 57 c0	 xorps	 xmm0, xmm0
  0000c	f3 0f 11 05 00
	00 00 00	 movss	 DWORD PTR ?seeker_head_theta1@@3MA, xmm0

; 88   : 
; 89   : 	seeker_head_theta2 = 0.0;

  00014	0f 57 c0	 xorps	 xmm0, xmm0
  00017	f3 0f 11 05 00
	00 00 00	 movss	 DWORD PTR ?seeker_head_theta2@@3MA, xmm0

; 90   : 
; 91   : 	apache_stinger_seeker_head_x_position = 0.0;

  0001f	0f 57 c0	 xorps	 xmm0, xmm0
  00022	f3 0f 11 05 00
	00 00 00	 movss	 DWORD PTR ?apache_stinger_seeker_head_x_position@@3MA, xmm0

; 92   : 
; 93   : 	apache_stinger_seeker_head_y_position = 0.0;

  0002a	0f 57 c0	 xorps	 xmm0, xmm0
  0002d	f3 0f 11 05 00
	00 00 00	 movss	 DWORD PTR ?apache_stinger_seeker_head_y_position@@3MA, xmm0

; 94   : }

  00035	5f		 pop	 edi
  00036	5e		 pop	 esi
  00037	5b		 pop	 ebx
  00038	8b e5		 mov	 esp, ebp
  0003a	5d		 pop	 ebp
  0003b	c3		 ret	 0
?initialise_apache_weapon_systems@@YGXXZ ENDP		; initialise_apache_weapon_systems
_TEXT	ENDS
; Function compile flags: /Odtp /ZI
; File c:\program files (x86)\microsoft visual studio\2017\community\vc\tools\msvc\14.16.27023\include\cmath
;	COMDAT ?sin@@YGMM@Z
_TEXT	SEGMENT
__Xx$ = 8						; size = 4
?sin@@YGMM@Z PROC					; sin, COMDAT

; 284  : 	{

  00000	55		 push	 ebp
  00001	8b ec		 mov	 ebp, esp
  00003	83 ec 40	 sub	 esp, 64			; 00000040H
  00006	53		 push	 ebx
  00007	56		 push	 esi
  00008	57		 push	 edi

; 285  : 	return (_CSTD sinf(_Xx));

  00009	51		 push	 ecx
  0000a	f3 0f 10 45 08	 movss	 xmm0, DWORD PTR __Xx$[ebp]
  0000f	f3 0f 11 04 24	 movss	 DWORD PTR [esp], xmm0
  00014	e8 00 00 00 00	 call	 _sinf
  00019	83 c4 04	 add	 esp, 4

; 286  : 	}

  0001c	5f		 pop	 edi
  0001d	5e		 pop	 esi
  0001e	5b		 pop	 ebx
  0001f	8b e5		 mov	 esp, ebp
  00021	5d		 pop	 ebp
  00022	c2 04 00	 ret	 4
?sin@@YGMM@Z ENDP					; sin
_TEXT	ENDS
; Function compile flags: /Odtp /ZI
; File c:\program files (x86)\microsoft visual studio\2017\community\vc\tools\msvc\14.16.27023\include\cmath
;	COMDAT ?cos@@YGMM@Z
_TEXT	SEGMENT
__Xx$ = 8						; size = 4
?cos@@YGMM@Z PROC					; cos, COMDAT

; 77   : 	{

  00000	55		 push	 ebp
  00001	8b ec		 mov	 ebp, esp
  00003	83 ec 40	 sub	 esp, 64			; 00000040H
  00006	53		 push	 ebx
  00007	56		 push	 esi
  00008	57		 push	 edi

; 78   : 	return (_CSTD cosf(_Xx));

  00009	51		 push	 ecx
  0000a	f3 0f 10 45 08	 movss	 xmm0, DWORD PTR __Xx$[ebp]
  0000f	f3 0f 11 04 24	 movss	 DWORD PTR [esp], xmm0
  00014	e8 00 00 00 00	 call	 _cosf
  00019	83 c4 04	 add	 esp, 4

; 79   : 	}

  0001c	5f		 pop	 edi
  0001d	5e		 pop	 esi
  0001e	5b		 pop	 ebx
  0001f	8b e5		 mov	 esp, ebp
  00021	5d		 pop	 ebp
  00022	c2 04 00	 ret	 4
?cos@@YGMM@Z ENDP					; cos
_TEXT	ENDS
; Function compile flags: /Odtp /ZI
; File c:\program files (x86)\windows kits\10\include\10.0.18362.0\ucrt\corecrt_math.h
;	COMDAT _sinf
_TEXT	SEGMENT
tv71 = -68						; size = 4
__X$ = 8						; size = 4
_sinf	PROC						; COMDAT

; 749  :         {

  00000	55		 push	 ebp
  00001	8b ec		 mov	 ebp, esp
  00003	83 ec 44	 sub	 esp, 68			; 00000044H
  00006	53		 push	 ebx
  00007	56		 push	 esi
  00008	57		 push	 edi

; 750  :             return (float)sin(_X);

  00009	f3 0f 5a 45 08	 cvtss2sd xmm0, DWORD PTR __X$[ebp]
  0000e	83 ec 08	 sub	 esp, 8
  00011	f2 0f 11 04 24	 movsd	 QWORD PTR [esp], xmm0
  00016	e8 00 00 00 00	 call	 _sin
  0001b	83 c4 08	 add	 esp, 8
  0001e	d9 5d bc	 fstp	 DWORD PTR tv71[ebp]
  00021	d9 45 bc	 fld	 DWORD PTR tv71[ebp]

; 751  :         }

  00024	5f		 pop	 edi
  00025	5e		 pop	 esi
  00026	5b		 pop	 ebx
  00027	8b e5		 mov	 esp, ebp
  00029	5d		 pop	 ebp
  0002a	c3		 ret	 0
_sinf	ENDP
_TEXT	ENDS
; Function compile flags: /Odtp /ZI
; File c:\program files (x86)\windows kits\10\include\10.0.18362.0\ucrt\corecrt_math.h
;	COMDAT _cosf
_TEXT	SEGMENT
tv71 = -68						; size = 4
__X$ = 8						; size = 4
_cosf	PROC						; COMDAT

; 648  :         {

  00000	55		 push	 ebp
  00001	8b ec		 mov	 ebp, esp
  00003	83 ec 44	 sub	 esp, 68			; 00000044H
  00006	53		 push	 ebx
  00007	56		 push	 esi
  00008	57		 push	 edi

; 649  :             return (float)cos(_X);

  00009	f3 0f 5a 45 08	 cvtss2sd xmm0, DWORD PTR __X$[ebp]
  0000e	83 ec 08	 sub	 esp, 8
  00011	f2 0f 11 04 24	 movsd	 QWORD PTR [esp], xmm0
  00016	e8 00 00 00 00	 call	 _cos
  0001b	83 c4 08	 add	 esp, 8
  0001e	d9 5d bc	 fstp	 DWORD PTR tv71[ebp]
  00021	d9 45 bc	 fld	 DWORD PTR tv71[ebp]

; 650  :         }

  00024	5f		 pop	 edi
  00025	5e		 pop	 esi
  00026	5b		 pop	 ebx
  00027	8b e5		 mov	 esp, ebp
  00029	5d		 pop	 ebp
  0002a	c3		 ret	 0
_cosf	ENDP
_TEXT	ENDS
END
