; Listing generated by Microsoft (R) Optimizing Compiler Version 19.16.27045.0 

	TITLE	C:\Users\nhv90\Projects\eech\modules\userint2\ui_obj\area\ar_funcs.c
	.686P
	.XMM
	include listing.inc
	.model	flat

INCLUDELIB MSVCRTD
INCLUDELIB OLDNAMES

PUBLIC	?initialise_area_ui_object_functions@@YGXH@Z	; initialise_area_ui_object_functions
EXTRN	?overload_area_ui_object_colour_functions@@YGXH@Z:PROC ; overload_area_ui_object_colour_functions
EXTRN	?overload_area_ui_object_create_functions@@YGXH@Z:PROC ; overload_area_ui_object_create_functions
EXTRN	?overload_area_ui_object_draw_functions@@YGXH@Z:PROC ; overload_area_ui_object_draw_functions
EXTRN	?overload_area_ui_object_flag_functions@@YGXH@Z:PROC ; overload_area_ui_object_flag_functions
EXTRN	?overload_area_ui_object_function_functions@@YGXH@Z:PROC ; overload_area_ui_object_function_functions
EXTRN	?overload_area_ui_object_graphic_functions@@YGXH@Z:PROC ; overload_area_ui_object_graphic_functions
EXTRN	?overload_area_ui_object_link_functions@@YGXH@Z:PROC ; overload_area_ui_object_link_functions
EXTRN	?overload_area_ui_object_notify_functions@@YGXH@Z:PROC ; overload_area_ui_object_notify_functions
EXTRN	?overload_area_ui_object_origin_functions@@YGXH@Z:PROC ; overload_area_ui_object_origin_functions
EXTRN	?overload_area_ui_object_position_functions@@YGXH@Z:PROC ; overload_area_ui_object_position_functions
EXTRN	?overload_area_ui_object_ptr_functions@@YGXH@Z:PROC ; overload_area_ui_object_ptr_functions
EXTRN	?overload_area_ui_object_size_functions@@YGXH@Z:PROC ; overload_area_ui_object_size_functions
EXTRN	?overload_area_ui_object_slider_functions@@YGXH@Z:PROC ; overload_area_ui_object_slider_functions
EXTRN	?overload_area_ui_object_text_functions@@YGXH@Z:PROC ; overload_area_ui_object_text_functions
EXTRN	?overload_area_ui_object_update_functions@@YGXH@Z:PROC ; overload_area_ui_object_update_functions
; Function compile flags: /Odtp /ZI
; File c:\users\nhv90\projects\eech\modules\userint2\ui_obj\area\ar_funcs.c
;	COMDAT ?initialise_area_ui_object_functions@@YGXH@Z
_TEXT	SEGMENT
_type$ = 8						; size = 4
?initialise_area_ui_object_functions@@YGXH@Z PROC	; initialise_area_ui_object_functions, COMDAT

; 74   : {

  00000	55		 push	 ebp
  00001	8b ec		 mov	 ebp, esp
  00003	83 ec 40	 sub	 esp, 64			; 00000040H
  00006	53		 push	 ebx
  00007	56		 push	 esi
  00008	57		 push	 edi

; 75   : 
; 76   : 	overload_area_ui_object_create_functions (type);

  00009	8b 45 08	 mov	 eax, DWORD PTR _type$[ebp]
  0000c	50		 push	 eax
  0000d	e8 00 00 00 00	 call	 ?overload_area_ui_object_create_functions@@YGXH@Z ; overload_area_ui_object_create_functions

; 77   : 
; 78   : 	overload_area_ui_object_colour_functions (type);

  00012	8b 45 08	 mov	 eax, DWORD PTR _type$[ebp]
  00015	50		 push	 eax
  00016	e8 00 00 00 00	 call	 ?overload_area_ui_object_colour_functions@@YGXH@Z ; overload_area_ui_object_colour_functions

; 79   : 
; 80   : 	overload_area_ui_object_draw_functions (type);

  0001b	8b 45 08	 mov	 eax, DWORD PTR _type$[ebp]
  0001e	50		 push	 eax
  0001f	e8 00 00 00 00	 call	 ?overload_area_ui_object_draw_functions@@YGXH@Z ; overload_area_ui_object_draw_functions

; 81   : 
; 82   : 	overload_area_ui_object_flag_functions (type);

  00024	8b 45 08	 mov	 eax, DWORD PTR _type$[ebp]
  00027	50		 push	 eax
  00028	e8 00 00 00 00	 call	 ?overload_area_ui_object_flag_functions@@YGXH@Z ; overload_area_ui_object_flag_functions

; 83   : 	
; 84   : 	overload_area_ui_object_function_functions (type);

  0002d	8b 45 08	 mov	 eax, DWORD PTR _type$[ebp]
  00030	50		 push	 eax
  00031	e8 00 00 00 00	 call	 ?overload_area_ui_object_function_functions@@YGXH@Z ; overload_area_ui_object_function_functions

; 85   : 
; 86   : 	overload_area_ui_object_graphic_functions (type);

  00036	8b 45 08	 mov	 eax, DWORD PTR _type$[ebp]
  00039	50		 push	 eax
  0003a	e8 00 00 00 00	 call	 ?overload_area_ui_object_graphic_functions@@YGXH@Z ; overload_area_ui_object_graphic_functions

; 87   : 
; 88   : 	overload_area_ui_object_link_functions (type);

  0003f	8b 45 08	 mov	 eax, DWORD PTR _type$[ebp]
  00042	50		 push	 eax
  00043	e8 00 00 00 00	 call	 ?overload_area_ui_object_link_functions@@YGXH@Z ; overload_area_ui_object_link_functions

; 89   : 
; 90   : 	overload_area_ui_object_notify_functions (type);

  00048	8b 45 08	 mov	 eax, DWORD PTR _type$[ebp]
  0004b	50		 push	 eax
  0004c	e8 00 00 00 00	 call	 ?overload_area_ui_object_notify_functions@@YGXH@Z ; overload_area_ui_object_notify_functions

; 91   : 
; 92   : 	overload_area_ui_object_origin_functions (type);

  00051	8b 45 08	 mov	 eax, DWORD PTR _type$[ebp]
  00054	50		 push	 eax
  00055	e8 00 00 00 00	 call	 ?overload_area_ui_object_origin_functions@@YGXH@Z ; overload_area_ui_object_origin_functions

; 93   : 
; 94   : 	overload_area_ui_object_position_functions (type);

  0005a	8b 45 08	 mov	 eax, DWORD PTR _type$[ebp]
  0005d	50		 push	 eax
  0005e	e8 00 00 00 00	 call	 ?overload_area_ui_object_position_functions@@YGXH@Z ; overload_area_ui_object_position_functions

; 95   : 
; 96   : 	overload_area_ui_object_ptr_functions (type);

  00063	8b 45 08	 mov	 eax, DWORD PTR _type$[ebp]
  00066	50		 push	 eax
  00067	e8 00 00 00 00	 call	 ?overload_area_ui_object_ptr_functions@@YGXH@Z ; overload_area_ui_object_ptr_functions

; 97   : 
; 98   : 	overload_area_ui_object_slider_functions (type);

  0006c	8b 45 08	 mov	 eax, DWORD PTR _type$[ebp]
  0006f	50		 push	 eax
  00070	e8 00 00 00 00	 call	 ?overload_area_ui_object_slider_functions@@YGXH@Z ; overload_area_ui_object_slider_functions

; 99   : 
; 100  : 	overload_area_ui_object_text_functions (type);

  00075	8b 45 08	 mov	 eax, DWORD PTR _type$[ebp]
  00078	50		 push	 eax
  00079	e8 00 00 00 00	 call	 ?overload_area_ui_object_text_functions@@YGXH@Z ; overload_area_ui_object_text_functions

; 101  : 
; 102  : 	overload_area_ui_object_update_functions (type);

  0007e	8b 45 08	 mov	 eax, DWORD PTR _type$[ebp]
  00081	50		 push	 eax
  00082	e8 00 00 00 00	 call	 ?overload_area_ui_object_update_functions@@YGXH@Z ; overload_area_ui_object_update_functions

; 103  : 
; 104  : 	overload_area_ui_object_size_functions (type);

  00087	8b 45 08	 mov	 eax, DWORD PTR _type$[ebp]
  0008a	50		 push	 eax
  0008b	e8 00 00 00 00	 call	 ?overload_area_ui_object_size_functions@@YGXH@Z ; overload_area_ui_object_size_functions

; 105  : }

  00090	5f		 pop	 edi
  00091	5e		 pop	 esi
  00092	5b		 pop	 ebx
  00093	8b e5		 mov	 esp, ebp
  00095	5d		 pop	 ebp
  00096	c2 04 00	 ret	 4
?initialise_area_ui_object_functions@@YGXH@Z ENDP	; initialise_area_ui_object_functions
_TEXT	ENDS
END
