; Listing generated by Microsoft (R) Optimizing Compiler Version 19.16.27045.0 

	TITLE	C:\Users\nhv90\Projects\eech\modules\userint2\ui_obj\area\ar_graph.c
	.686P
	.XMM
	include listing.inc
	.model	flat

INCLUDELIB MSVCRTD
INCLUDELIB OLDNAMES

PUBLIC	?overload_area_ui_object_graphic_functions@@YGXH@Z ; overload_area_ui_object_graphic_functions
EXTRN	?fn_set_ui_object_graphic@@3PAP6GXPAUUI_OBJECT@@PAG@ZA:BYTE ; fn_set_ui_object_graphic
EXTRN	?fn_get_ui_object_graphic@@3PAP6GPAGPAUUI_OBJECT@@@ZA:BYTE ; fn_get_ui_object_graphic
EXTRN	?fn_set_ui_object_texture_graphic@@3PAP6GXPAUUI_OBJECT@@PAUTEXTURE_GRAPHIC@@@ZA:BYTE ; fn_set_ui_object_texture_graphic
EXTRN	?fn_get_ui_object_texture_graphic@@3PAP6GPAUTEXTURE_GRAPHIC@@PAUUI_OBJECT@@@ZA:BYTE ; fn_get_ui_object_texture_graphic
EXTRN	?fn_set_ui_object_highlighted_texture_graphic@@3PAP6GXPAUUI_OBJECT@@PAUTEXTURE_GRAPHIC@@@ZA:BYTE ; fn_set_ui_object_highlighted_texture_graphic
EXTRN	?fn_get_ui_object_highlighted_texture_graphic@@3PAP6GPAUTEXTURE_GRAPHIC@@PAUUI_OBJECT@@@ZA:BYTE ; fn_get_ui_object_highlighted_texture_graphic
EXTRN	?fn_set_ui_object_selected_texture_graphic@@3PAP6GXPAUUI_OBJECT@@PAUTEXTURE_GRAPHIC@@@ZA:BYTE ; fn_set_ui_object_selected_texture_graphic
EXTRN	?fn_get_ui_object_selected_texture_graphic@@3PAP6GPAUTEXTURE_GRAPHIC@@PAUUI_OBJECT@@@ZA:BYTE ; fn_get_ui_object_selected_texture_graphic
EXTRN	?fn_set_ui_object_active_screen@@3PAP6GXPAUUI_OBJECT@@PAUSCREEN@@@ZA:BYTE ; fn_set_ui_object_active_screen
EXTRN	?fn_get_ui_object_active_screen@@3PAP6GPAUSCREEN@@PAUUI_OBJECT@@@ZA:BYTE ; fn_get_ui_object_active_screen
EXTRN	?fn_set_ui_object_memory_graphic@@3PAP6GXPAUUI_OBJECT@@PAUSCREEN@@@ZA:BYTE ; fn_set_ui_object_memory_graphic
EXTRN	?fn_get_ui_object_memory_graphic@@3PAP6GPAUSCREEN@@PAUUI_OBJECT@@@ZA:BYTE ; fn_get_ui_object_memory_graphic
EXTRN	?fn_set_ui_object_zoomable_palette_graphic@@3PAP6GXPAUUI_OBJECT@@PAUZOOMABLE_GRAPHIC@@@ZA:BYTE ; fn_set_ui_object_zoomable_palette_graphic
EXTRN	?fn_get_ui_object_zoomable_palette_graphic@@3PAP6GPAUZOOMABLE_GRAPHIC@@PAUUI_OBJECT@@@ZA:BYTE ; fn_get_ui_object_zoomable_palette_graphic
EXTRN	?fn_set_ui_object_graphic_type@@3PAP6GXPAUUI_OBJECT@@H@ZA:BYTE ; fn_set_ui_object_graphic_type
EXTRN	?fn_get_ui_object_graphic_type@@3PAP6GHPAUUI_OBJECT@@@ZA:BYTE ; fn_get_ui_object_graphic_type
EXTRN	?fn_set_ui_object_graphic_zoom@@3PAP6GXPAUUI_OBJECT@@H@ZA:BYTE ; fn_set_ui_object_graphic_zoom
EXTRN	?fn_get_ui_object_graphic_zoom@@3PAP6GHPAUUI_OBJECT@@@ZA:BYTE ; fn_get_ui_object_graphic_zoom
; Function compile flags: /Odtp /ZI
; File c:\users\nhv90\projects\eech\modules\userint2\ui_obj\area\ar_graph.c
;	COMDAT ?get_area_ui_object_active_screen@@YGPAUSCREEN@@PAUUI_OBJECT@@@Z
_TEXT	SEGMENT
_area$ = -4						; size = 4
_obj$ = 8						; size = 4
?get_area_ui_object_active_screen@@YGPAUSCREEN@@PAUUI_OBJECT@@@Z PROC ; get_area_ui_object_active_screen, COMDAT

; 395  : {

  00000	55		 push	 ebp
  00001	8b ec		 mov	 ebp, esp
  00003	83 ec 44	 sub	 esp, 68			; 00000044H
  00006	53		 push	 ebx
  00007	56		 push	 esi
  00008	57		 push	 edi

; 396  : 	
; 397  : 	area_ui_object
; 398  : 		*area;
; 399  : 
; 400  : 	area = (area_ui_object *) obj->data;

  00009	8b 45 08	 mov	 eax, DWORD PTR _obj$[ebp]
  0000c	8b 48 04	 mov	 ecx, DWORD PTR [eax+4]
  0000f	89 4d fc	 mov	 DWORD PTR _area$[ebp], ecx

; 401  : 
; 402  : 	return (area->active_screen);

  00012	8b 45 fc	 mov	 eax, DWORD PTR _area$[ebp]
  00015	8b 80 e0 00 00
	00		 mov	 eax, DWORD PTR [eax+224]

; 403  : }

  0001b	5f		 pop	 edi
  0001c	5e		 pop	 esi
  0001d	5b		 pop	 ebx
  0001e	8b e5		 mov	 esp, ebp
  00020	5d		 pop	 ebp
  00021	c2 04 00	 ret	 4
?get_area_ui_object_active_screen@@YGPAUSCREEN@@PAUUI_OBJECT@@@Z ENDP ; get_area_ui_object_active_screen
_TEXT	ENDS
; Function compile flags: /Odtp /ZI
; File c:\users\nhv90\projects\eech\modules\userint2\ui_obj\area\ar_graph.c
;	COMDAT ?set_area_ui_object_active_screen@@YGXPAUUI_OBJECT@@PAUSCREEN@@@Z
_TEXT	SEGMENT
_area$ = -4						; size = 4
_obj$ = 8						; size = 4
_active_screen$ = 12					; size = 4
?set_area_ui_object_active_screen@@YGXPAUUI_OBJECT@@PAUSCREEN@@@Z PROC ; set_area_ui_object_active_screen, COMDAT

; 380  : {

  00000	55		 push	 ebp
  00001	8b ec		 mov	 ebp, esp
  00003	83 ec 44	 sub	 esp, 68			; 00000044H
  00006	53		 push	 ebx
  00007	56		 push	 esi
  00008	57		 push	 edi

; 381  : 	
; 382  : 	area_ui_object
; 383  : 		*area;
; 384  : 
; 385  : 	area = (area_ui_object *) obj->data;

  00009	8b 45 08	 mov	 eax, DWORD PTR _obj$[ebp]
  0000c	8b 48 04	 mov	 ecx, DWORD PTR [eax+4]
  0000f	89 4d fc	 mov	 DWORD PTR _area$[ebp], ecx

; 386  : 
; 387  : 	area->active_screen = active_screen;

  00012	8b 45 fc	 mov	 eax, DWORD PTR _area$[ebp]
  00015	8b 4d 0c	 mov	 ecx, DWORD PTR _active_screen$[ebp]
  00018	89 88 e0 00 00
	00		 mov	 DWORD PTR [eax+224], ecx

; 388  : }

  0001e	5f		 pop	 edi
  0001f	5e		 pop	 esi
  00020	5b		 pop	 ebx
  00021	8b e5		 mov	 esp, ebp
  00023	5d		 pop	 ebp
  00024	c2 08 00	 ret	 8
?set_area_ui_object_active_screen@@YGXPAUUI_OBJECT@@PAUSCREEN@@@Z ENDP ; set_area_ui_object_active_screen
_TEXT	ENDS
; Function compile flags: /Odtp /ZI
; File c:\users\nhv90\projects\eech\modules\userint2\ui_obj\area\ar_graph.c
;	COMDAT ?get_area_ui_object_graphic_zoom@@YGHPAUUI_OBJECT@@@Z
_TEXT	SEGMENT
_area$ = -4						; size = 4
_obj$ = 8						; size = 4
?get_area_ui_object_graphic_zoom@@YGHPAUUI_OBJECT@@@Z PROC ; get_area_ui_object_graphic_zoom, COMDAT

; 365  : {

  00000	55		 push	 ebp
  00001	8b ec		 mov	 ebp, esp
  00003	83 ec 44	 sub	 esp, 68			; 00000044H
  00006	53		 push	 ebx
  00007	56		 push	 esi
  00008	57		 push	 edi

; 366  : 	
; 367  : 	area_ui_object
; 368  : 		*area;
; 369  : 
; 370  : 	area = (area_ui_object *) obj->data;

  00009	8b 45 08	 mov	 eax, DWORD PTR _obj$[ebp]
  0000c	8b 48 04	 mov	 ecx, DWORD PTR [eax+4]
  0000f	89 4d fc	 mov	 DWORD PTR _area$[ebp], ecx

; 371  : 
; 372  : 	return (area->zoom);

  00012	8b 45 fc	 mov	 eax, DWORD PTR _area$[ebp]
  00015	8b 40 2c	 mov	 eax, DWORD PTR [eax+44]

; 373  : }

  00018	5f		 pop	 edi
  00019	5e		 pop	 esi
  0001a	5b		 pop	 ebx
  0001b	8b e5		 mov	 esp, ebp
  0001d	5d		 pop	 ebp
  0001e	c2 04 00	 ret	 4
?get_area_ui_object_graphic_zoom@@YGHPAUUI_OBJECT@@@Z ENDP ; get_area_ui_object_graphic_zoom
_TEXT	ENDS
; Function compile flags: /Odtp /ZI
; File c:\users\nhv90\projects\eech\modules\userint2\ui_obj\area\ar_graph.c
;	COMDAT ?set_area_ui_object_graphic_zoom@@YGXPAUUI_OBJECT@@H@Z
_TEXT	SEGMENT
_area$ = -4						; size = 4
_obj$ = 8						; size = 4
_zoom$ = 12						; size = 4
?set_area_ui_object_graphic_zoom@@YGXPAUUI_OBJECT@@H@Z PROC ; set_area_ui_object_graphic_zoom, COMDAT

; 350  : {

  00000	55		 push	 ebp
  00001	8b ec		 mov	 ebp, esp
  00003	83 ec 44	 sub	 esp, 68			; 00000044H
  00006	53		 push	 ebx
  00007	56		 push	 esi
  00008	57		 push	 edi

; 351  : 	
; 352  : 	area_ui_object
; 353  : 		*area;
; 354  : 
; 355  : 	area = (area_ui_object *) obj->data;

  00009	8b 45 08	 mov	 eax, DWORD PTR _obj$[ebp]
  0000c	8b 48 04	 mov	 ecx, DWORD PTR [eax+4]
  0000f	89 4d fc	 mov	 DWORD PTR _area$[ebp], ecx

; 356  : 
; 357  : 	area->zoom = zoom;

  00012	8b 45 fc	 mov	 eax, DWORD PTR _area$[ebp]
  00015	8b 4d 0c	 mov	 ecx, DWORD PTR _zoom$[ebp]
  00018	89 48 2c	 mov	 DWORD PTR [eax+44], ecx

; 358  : }

  0001b	5f		 pop	 edi
  0001c	5e		 pop	 esi
  0001d	5b		 pop	 ebx
  0001e	8b e5		 mov	 esp, ebp
  00020	5d		 pop	 ebp
  00021	c2 08 00	 ret	 8
?set_area_ui_object_graphic_zoom@@YGXPAUUI_OBJECT@@H@Z ENDP ; set_area_ui_object_graphic_zoom
_TEXT	ENDS
; Function compile flags: /Odtp /ZI
; File c:\users\nhv90\projects\eech\modules\userint2\ui_obj\area\ar_graph.c
;	COMDAT ?get_area_ui_object_graphic_type@@YGHPAUUI_OBJECT@@@Z
_TEXT	SEGMENT
_area$ = -4						; size = 4
_obj$ = 8						; size = 4
?get_area_ui_object_graphic_type@@YGHPAUUI_OBJECT@@@Z PROC ; get_area_ui_object_graphic_type, COMDAT

; 335  : {

  00000	55		 push	 ebp
  00001	8b ec		 mov	 ebp, esp
  00003	83 ec 44	 sub	 esp, 68			; 00000044H
  00006	53		 push	 ebx
  00007	56		 push	 esi
  00008	57		 push	 edi

; 336  : 	
; 337  : 	area_ui_object
; 338  : 		*area;
; 339  : 
; 340  : 	area = (area_ui_object *) obj->data;

  00009	8b 45 08	 mov	 eax, DWORD PTR _obj$[ebp]
  0000c	8b 48 04	 mov	 ecx, DWORD PTR [eax+4]
  0000f	89 4d fc	 mov	 DWORD PTR _area$[ebp], ecx

; 341  : 
; 342  : 	return (area->graphic_type);

  00012	8b 45 fc	 mov	 eax, DWORD PTR _area$[ebp]
  00015	8b 40 4c	 mov	 eax, DWORD PTR [eax+76]
  00018	c1 e8 14	 shr	 eax, 20			; 00000014H
  0001b	83 e0 07	 and	 eax, 7

; 343  : }

  0001e	5f		 pop	 edi
  0001f	5e		 pop	 esi
  00020	5b		 pop	 ebx
  00021	8b e5		 mov	 esp, ebp
  00023	5d		 pop	 ebp
  00024	c2 04 00	 ret	 4
?get_area_ui_object_graphic_type@@YGHPAUUI_OBJECT@@@Z ENDP ; get_area_ui_object_graphic_type
_TEXT	ENDS
; Function compile flags: /Odtp /ZI
; File c:\users\nhv90\projects\eech\modules\userint2\ui_obj\area\ar_graph.c
;	COMDAT ?set_area_ui_object_graphic_type@@YGXPAUUI_OBJECT@@H@Z
_TEXT	SEGMENT
_area$ = -4						; size = 4
_obj$ = 8						; size = 4
_graphic_type$ = 12					; size = 4
?set_area_ui_object_graphic_type@@YGXPAUUI_OBJECT@@H@Z PROC ; set_area_ui_object_graphic_type, COMDAT

; 320  : {

  00000	55		 push	 ebp
  00001	8b ec		 mov	 ebp, esp
  00003	83 ec 44	 sub	 esp, 68			; 00000044H
  00006	53		 push	 ebx
  00007	56		 push	 esi
  00008	57		 push	 edi

; 321  : 	
; 322  : 	area_ui_object
; 323  : 		*area;
; 324  : 
; 325  : 	area = (area_ui_object *) obj->data;

  00009	8b 45 08	 mov	 eax, DWORD PTR _obj$[ebp]
  0000c	8b 48 04	 mov	 ecx, DWORD PTR [eax+4]
  0000f	89 4d fc	 mov	 DWORD PTR _area$[ebp], ecx

; 326  : 
; 327  : 	area->graphic_type = graphic_type;

  00012	8b 45 0c	 mov	 eax, DWORD PTR _graphic_type$[ebp]
  00015	83 e0 07	 and	 eax, 7
  00018	c1 e0 14	 shl	 eax, 20			; 00000014H
  0001b	8b 4d fc	 mov	 ecx, DWORD PTR _area$[ebp]
  0001e	8b 51 4c	 mov	 edx, DWORD PTR [ecx+76]
  00021	81 e2 ff ff 8f
	ff		 and	 edx, -7340033		; ff8fffffH
  00027	0b d0		 or	 edx, eax
  00029	8b 45 fc	 mov	 eax, DWORD PTR _area$[ebp]
  0002c	89 50 4c	 mov	 DWORD PTR [eax+76], edx

; 328  : }

  0002f	5f		 pop	 edi
  00030	5e		 pop	 esi
  00031	5b		 pop	 ebx
  00032	8b e5		 mov	 esp, ebp
  00034	5d		 pop	 ebp
  00035	c2 08 00	 ret	 8
?set_area_ui_object_graphic_type@@YGXPAUUI_OBJECT@@H@Z ENDP ; set_area_ui_object_graphic_type
_TEXT	ENDS
; Function compile flags: /Odtp /ZI
; File c:\users\nhv90\projects\eech\modules\userint2\ui_obj\area\ar_graph.c
;	COMDAT ?get_area_ui_object_zoomable_palette_graphic@@YGPAUZOOMABLE_GRAPHIC@@PAUUI_OBJECT@@@Z
_TEXT	SEGMENT
_area$ = -4						; size = 4
_obj$ = 8						; size = 4
?get_area_ui_object_zoomable_palette_graphic@@YGPAUZOOMABLE_GRAPHIC@@PAUUI_OBJECT@@@Z PROC ; get_area_ui_object_zoomable_palette_graphic, COMDAT

; 305  : {

  00000	55		 push	 ebp
  00001	8b ec		 mov	 ebp, esp
  00003	83 ec 44	 sub	 esp, 68			; 00000044H
  00006	53		 push	 ebx
  00007	56		 push	 esi
  00008	57		 push	 edi

; 306  : 	
; 307  : 	area_ui_object
; 308  : 		*area;
; 309  : 
; 310  : 	area = (area_ui_object *) obj->data;

  00009	8b 45 08	 mov	 eax, DWORD PTR _obj$[ebp]
  0000c	8b 48 04	 mov	 ecx, DWORD PTR [eax+4]
  0000f	89 4d fc	 mov	 DWORD PTR _area$[ebp], ecx

; 311  : 
; 312  : 	return (area->zoomable_palette_graphic);

  00012	8b 45 fc	 mov	 eax, DWORD PTR _area$[ebp]
  00015	8b 40 70	 mov	 eax, DWORD PTR [eax+112]

; 313  : }

  00018	5f		 pop	 edi
  00019	5e		 pop	 esi
  0001a	5b		 pop	 ebx
  0001b	8b e5		 mov	 esp, ebp
  0001d	5d		 pop	 ebp
  0001e	c2 04 00	 ret	 4
?get_area_ui_object_zoomable_palette_graphic@@YGPAUZOOMABLE_GRAPHIC@@PAUUI_OBJECT@@@Z ENDP ; get_area_ui_object_zoomable_palette_graphic
_TEXT	ENDS
; Function compile flags: /Odtp /ZI
; File c:\users\nhv90\projects\eech\modules\userint2\ui_obj\area\ar_graph.c
;	COMDAT ?set_area_ui_object_zoomable_palette_graphic@@YGXPAUUI_OBJECT@@PAUZOOMABLE_GRAPHIC@@@Z
_TEXT	SEGMENT
_area$ = -4						; size = 4
_obj$ = 8						; size = 4
_graphic$ = 12						; size = 4
?set_area_ui_object_zoomable_palette_graphic@@YGXPAUUI_OBJECT@@PAUZOOMABLE_GRAPHIC@@@Z PROC ; set_area_ui_object_zoomable_palette_graphic, COMDAT

; 279  : {

  00000	55		 push	 ebp
  00001	8b ec		 mov	 ebp, esp
  00003	83 ec 44	 sub	 esp, 68			; 00000044H
  00006	53		 push	 ebx
  00007	56		 push	 esi
  00008	57		 push	 edi

; 280  : 	
; 281  : 	area_ui_object
; 282  : 		*area;
; 283  : 
; 284  : 	area = (area_ui_object *) obj->data;

  00009	8b 45 08	 mov	 eax, DWORD PTR _obj$[ebp]
  0000c	8b 48 04	 mov	 ecx, DWORD PTR [eax+4]
  0000f	89 4d fc	 mov	 DWORD PTR _area$[ebp], ecx

; 285  : 
; 286  : 	area->zoomable_palette_graphic = graphic;

  00012	8b 45 fc	 mov	 eax, DWORD PTR _area$[ebp]
  00015	8b 4d 0c	 mov	 ecx, DWORD PTR _graphic$[ebp]
  00018	89 48 70	 mov	 DWORD PTR [eax+112], ecx

; 287  : 
; 288  : 	if (graphic)

  0001b	83 7d 0c 00	 cmp	 DWORD PTR _graphic$[ebp], 0
  0001f	74 16		 je	 SHORT $LN2@set_area_u

; 289  : 	{
; 290  : 
; 291  : 		set_ui_object_graphic_type (obj, UI_OBJECT_ZOOMABLE_PALETTE_GRAPHIC);

  00021	6a 04		 push	 4
  00023	8b 45 08	 mov	 eax, DWORD PTR _obj$[ebp]
  00026	50		 push	 eax
  00027	8b 4d 08	 mov	 ecx, DWORD PTR _obj$[ebp]
  0002a	8b 11		 mov	 edx, DWORD PTR [ecx]
  0002c	8b 04 95 00 00
	00 00		 mov	 eax, DWORD PTR ?fn_set_ui_object_graphic_type@@3PAP6GXPAUUI_OBJECT@@H@ZA[edx*4]
  00033	ff d0		 call	 eax

; 292  : 	}
; 293  : 	else

  00035	eb 14		 jmp	 SHORT $LN1@set_area_u
$LN2@set_area_u:

; 294  : 	{
; 295  : 
; 296  : 		set_ui_object_graphic_type (obj, UI_OBJECT_NO_GRAPHIC);

  00037	6a 00		 push	 0
  00039	8b 45 08	 mov	 eax, DWORD PTR _obj$[ebp]
  0003c	50		 push	 eax
  0003d	8b 4d 08	 mov	 ecx, DWORD PTR _obj$[ebp]
  00040	8b 11		 mov	 edx, DWORD PTR [ecx]
  00042	8b 04 95 00 00
	00 00		 mov	 eax, DWORD PTR ?fn_set_ui_object_graphic_type@@3PAP6GXPAUUI_OBJECT@@H@ZA[edx*4]
  00049	ff d0		 call	 eax
$LN1@set_area_u:

; 297  : 	}
; 298  : }

  0004b	5f		 pop	 edi
  0004c	5e		 pop	 esi
  0004d	5b		 pop	 ebx
  0004e	8b e5		 mov	 esp, ebp
  00050	5d		 pop	 ebp
  00051	c2 08 00	 ret	 8
?set_area_ui_object_zoomable_palette_graphic@@YGXPAUUI_OBJECT@@PAUZOOMABLE_GRAPHIC@@@Z ENDP ; set_area_ui_object_zoomable_palette_graphic
_TEXT	ENDS
; Function compile flags: /Odtp /ZI
; File c:\users\nhv90\projects\eech\modules\userint2\ui_obj\area\ar_graph.c
;	COMDAT ?get_area_ui_object_memory_graphic@@YGPAUSCREEN@@PAUUI_OBJECT@@@Z
_TEXT	SEGMENT
_area$ = -4						; size = 4
_obj$ = 8						; size = 4
?get_area_ui_object_memory_graphic@@YGPAUSCREEN@@PAUUI_OBJECT@@@Z PROC ; get_area_ui_object_memory_graphic, COMDAT

; 264  : {

  00000	55		 push	 ebp
  00001	8b ec		 mov	 ebp, esp
  00003	83 ec 44	 sub	 esp, 68			; 00000044H
  00006	53		 push	 ebx
  00007	56		 push	 esi
  00008	57		 push	 edi

; 265  : 	
; 266  : 	area_ui_object
; 267  : 		*area;
; 268  : 
; 269  : 	area = (area_ui_object *) obj->data;

  00009	8b 45 08	 mov	 eax, DWORD PTR _obj$[ebp]
  0000c	8b 48 04	 mov	 ecx, DWORD PTR [eax+4]
  0000f	89 4d fc	 mov	 DWORD PTR _area$[ebp], ecx

; 270  : 
; 271  : 	return (area->memory_graphic);

  00012	8b 45 fc	 mov	 eax, DWORD PTR _area$[ebp]
  00015	8b 40 70	 mov	 eax, DWORD PTR [eax+112]

; 272  : }

  00018	5f		 pop	 edi
  00019	5e		 pop	 esi
  0001a	5b		 pop	 ebx
  0001b	8b e5		 mov	 esp, ebp
  0001d	5d		 pop	 ebp
  0001e	c2 04 00	 ret	 4
?get_area_ui_object_memory_graphic@@YGPAUSCREEN@@PAUUI_OBJECT@@@Z ENDP ; get_area_ui_object_memory_graphic
_TEXT	ENDS
; Function compile flags: /Odtp /ZI
; File c:\users\nhv90\projects\eech\modules\userint2\ui_obj\area\ar_graph.c
;	COMDAT ?set_area_ui_object_memory_graphic@@YGXPAUUI_OBJECT@@PAUSCREEN@@@Z
_TEXT	SEGMENT
_area$ = -4						; size = 4
_obj$ = 8						; size = 4
_memory_graphic$ = 12					; size = 4
?set_area_ui_object_memory_graphic@@YGXPAUUI_OBJECT@@PAUSCREEN@@@Z PROC ; set_area_ui_object_memory_graphic, COMDAT

; 238  : {

  00000	55		 push	 ebp
  00001	8b ec		 mov	 ebp, esp
  00003	83 ec 44	 sub	 esp, 68			; 00000044H
  00006	53		 push	 ebx
  00007	56		 push	 esi
  00008	57		 push	 edi

; 239  : 	
; 240  : 	area_ui_object
; 241  : 		*area;
; 242  : 
; 243  : 	area = (area_ui_object *) obj->data;

  00009	8b 45 08	 mov	 eax, DWORD PTR _obj$[ebp]
  0000c	8b 48 04	 mov	 ecx, DWORD PTR [eax+4]
  0000f	89 4d fc	 mov	 DWORD PTR _area$[ebp], ecx

; 244  : 
; 245  : 	area->memory_graphic = memory_graphic;

  00012	8b 45 fc	 mov	 eax, DWORD PTR _area$[ebp]
  00015	8b 4d 0c	 mov	 ecx, DWORD PTR _memory_graphic$[ebp]
  00018	89 48 70	 mov	 DWORD PTR [eax+112], ecx

; 246  : 
; 247  : 	if (memory_graphic)

  0001b	83 7d 0c 00	 cmp	 DWORD PTR _memory_graphic$[ebp], 0
  0001f	74 16		 je	 SHORT $LN2@set_area_u

; 248  : 	{
; 249  : 
; 250  : 		set_ui_object_graphic_type (obj, UI_OBJECT_MEMORY_GRAPHIC);

  00021	6a 02		 push	 2
  00023	8b 45 08	 mov	 eax, DWORD PTR _obj$[ebp]
  00026	50		 push	 eax
  00027	8b 4d 08	 mov	 ecx, DWORD PTR _obj$[ebp]
  0002a	8b 11		 mov	 edx, DWORD PTR [ecx]
  0002c	8b 04 95 00 00
	00 00		 mov	 eax, DWORD PTR ?fn_set_ui_object_graphic_type@@3PAP6GXPAUUI_OBJECT@@H@ZA[edx*4]
  00033	ff d0		 call	 eax

; 251  : 	}
; 252  : 	else

  00035	eb 14		 jmp	 SHORT $LN1@set_area_u
$LN2@set_area_u:

; 253  : 	{
; 254  : 
; 255  : 		set_ui_object_graphic_type (obj, UI_OBJECT_NO_GRAPHIC);

  00037	6a 00		 push	 0
  00039	8b 45 08	 mov	 eax, DWORD PTR _obj$[ebp]
  0003c	50		 push	 eax
  0003d	8b 4d 08	 mov	 ecx, DWORD PTR _obj$[ebp]
  00040	8b 11		 mov	 edx, DWORD PTR [ecx]
  00042	8b 04 95 00 00
	00 00		 mov	 eax, DWORD PTR ?fn_set_ui_object_graphic_type@@3PAP6GXPAUUI_OBJECT@@H@ZA[edx*4]
  00049	ff d0		 call	 eax
$LN1@set_area_u:

; 256  : 	}
; 257  : }

  0004b	5f		 pop	 edi
  0004c	5e		 pop	 esi
  0004d	5b		 pop	 ebx
  0004e	8b e5		 mov	 esp, ebp
  00050	5d		 pop	 ebp
  00051	c2 08 00	 ret	 8
?set_area_ui_object_memory_graphic@@YGXPAUUI_OBJECT@@PAUSCREEN@@@Z ENDP ; set_area_ui_object_memory_graphic
_TEXT	ENDS
; Function compile flags: /Odtp /ZI
; File c:\users\nhv90\projects\eech\modules\userint2\ui_obj\area\ar_graph.c
;	COMDAT ?get_area_ui_object_selected_texture_graphic@@YGPAUTEXTURE_GRAPHIC@@PAUUI_OBJECT@@@Z
_TEXT	SEGMENT
_area$ = -4						; size = 4
_obj$ = 8						; size = 4
?get_area_ui_object_selected_texture_graphic@@YGPAUTEXTURE_GRAPHIC@@PAUUI_OBJECT@@@Z PROC ; get_area_ui_object_selected_texture_graphic, COMDAT

; 223  : {

  00000	55		 push	 ebp
  00001	8b ec		 mov	 ebp, esp
  00003	83 ec 44	 sub	 esp, 68			; 00000044H
  00006	53		 push	 ebx
  00007	56		 push	 esi
  00008	57		 push	 edi

; 224  : 	
; 225  : 	area_ui_object
; 226  : 		*area;
; 227  : 
; 228  : 	area = (area_ui_object *) obj->data;

  00009	8b 45 08	 mov	 eax, DWORD PTR _obj$[ebp]
  0000c	8b 48 04	 mov	 ecx, DWORD PTR [eax+4]
  0000f	89 4d fc	 mov	 DWORD PTR _area$[ebp], ecx

; 229  : 
; 230  : 	return (area->selected_texture_graphic);

  00012	8b 45 fc	 mov	 eax, DWORD PTR _area$[ebp]
  00015	8b 40 74	 mov	 eax, DWORD PTR [eax+116]

; 231  : }

  00018	5f		 pop	 edi
  00019	5e		 pop	 esi
  0001a	5b		 pop	 ebx
  0001b	8b e5		 mov	 esp, ebp
  0001d	5d		 pop	 ebp
  0001e	c2 04 00	 ret	 4
?get_area_ui_object_selected_texture_graphic@@YGPAUTEXTURE_GRAPHIC@@PAUUI_OBJECT@@@Z ENDP ; get_area_ui_object_selected_texture_graphic
_TEXT	ENDS
; Function compile flags: /Odtp /ZI
; File c:\users\nhv90\projects\eech\modules\userint2\ui_obj\area\ar_graph.c
;	COMDAT ?set_area_ui_object_selected_texture_graphic@@YGXPAUUI_OBJECT@@PAUTEXTURE_GRAPHIC@@@Z
_TEXT	SEGMENT
_area$ = -4						; size = 4
_obj$ = 8						; size = 4
_graphic$ = 12						; size = 4
?set_area_ui_object_selected_texture_graphic@@YGXPAUUI_OBJECT@@PAUTEXTURE_GRAPHIC@@@Z PROC ; set_area_ui_object_selected_texture_graphic, COMDAT

; 197  : {

  00000	55		 push	 ebp
  00001	8b ec		 mov	 ebp, esp
  00003	83 ec 44	 sub	 esp, 68			; 00000044H
  00006	53		 push	 ebx
  00007	56		 push	 esi
  00008	57		 push	 edi

; 198  : 	
; 199  : 	area_ui_object
; 200  : 		*area;
; 201  : 
; 202  : 	area = (area_ui_object *) obj->data;

  00009	8b 45 08	 mov	 eax, DWORD PTR _obj$[ebp]
  0000c	8b 48 04	 mov	 ecx, DWORD PTR [eax+4]
  0000f	89 4d fc	 mov	 DWORD PTR _area$[ebp], ecx

; 203  : 
; 204  : 	area->selected_texture_graphic = graphic;

  00012	8b 45 fc	 mov	 eax, DWORD PTR _area$[ebp]
  00015	8b 4d 0c	 mov	 ecx, DWORD PTR _graphic$[ebp]
  00018	89 48 74	 mov	 DWORD PTR [eax+116], ecx

; 205  : 
; 206  : 	if (graphic)

  0001b	83 7d 0c 00	 cmp	 DWORD PTR _graphic$[ebp], 0
  0001f	74 16		 je	 SHORT $LN2@set_area_u

; 207  : 	{
; 208  : 
; 209  : 		set_ui_object_graphic_type (obj, UI_OBJECT_TEXTURE_GRAPHIC);

  00021	6a 05		 push	 5
  00023	8b 45 08	 mov	 eax, DWORD PTR _obj$[ebp]
  00026	50		 push	 eax
  00027	8b 4d 08	 mov	 ecx, DWORD PTR _obj$[ebp]
  0002a	8b 11		 mov	 edx, DWORD PTR [ecx]
  0002c	8b 04 95 00 00
	00 00		 mov	 eax, DWORD PTR ?fn_set_ui_object_graphic_type@@3PAP6GXPAUUI_OBJECT@@H@ZA[edx*4]
  00033	ff d0		 call	 eax

; 210  : 	}
; 211  : 	else

  00035	eb 14		 jmp	 SHORT $LN1@set_area_u
$LN2@set_area_u:

; 212  : 	{
; 213  : 
; 214  : 		set_ui_object_graphic_type (obj, UI_OBJECT_NO_GRAPHIC);

  00037	6a 00		 push	 0
  00039	8b 45 08	 mov	 eax, DWORD PTR _obj$[ebp]
  0003c	50		 push	 eax
  0003d	8b 4d 08	 mov	 ecx, DWORD PTR _obj$[ebp]
  00040	8b 11		 mov	 edx, DWORD PTR [ecx]
  00042	8b 04 95 00 00
	00 00		 mov	 eax, DWORD PTR ?fn_set_ui_object_graphic_type@@3PAP6GXPAUUI_OBJECT@@H@ZA[edx*4]
  00049	ff d0		 call	 eax
$LN1@set_area_u:

; 215  : 	}
; 216  : }

  0004b	5f		 pop	 edi
  0004c	5e		 pop	 esi
  0004d	5b		 pop	 ebx
  0004e	8b e5		 mov	 esp, ebp
  00050	5d		 pop	 ebp
  00051	c2 08 00	 ret	 8
?set_area_ui_object_selected_texture_graphic@@YGXPAUUI_OBJECT@@PAUTEXTURE_GRAPHIC@@@Z ENDP ; set_area_ui_object_selected_texture_graphic
_TEXT	ENDS
; Function compile flags: /Odtp /ZI
; File c:\users\nhv90\projects\eech\modules\userint2\ui_obj\area\ar_graph.c
;	COMDAT ?get_area_ui_object_highlighted_texture_graphic@@YGPAUTEXTURE_GRAPHIC@@PAUUI_OBJECT@@@Z
_TEXT	SEGMENT
_area$ = -4						; size = 4
_obj$ = 8						; size = 4
?get_area_ui_object_highlighted_texture_graphic@@YGPAUTEXTURE_GRAPHIC@@PAUUI_OBJECT@@@Z PROC ; get_area_ui_object_highlighted_texture_graphic, COMDAT

; 182  : {

  00000	55		 push	 ebp
  00001	8b ec		 mov	 ebp, esp
  00003	83 ec 44	 sub	 esp, 68			; 00000044H
  00006	53		 push	 ebx
  00007	56		 push	 esi
  00008	57		 push	 edi

; 183  : 	
; 184  : 	area_ui_object
; 185  : 		*area;
; 186  : 
; 187  : 	area = (area_ui_object *) obj->data;

  00009	8b 45 08	 mov	 eax, DWORD PTR _obj$[ebp]
  0000c	8b 48 04	 mov	 ecx, DWORD PTR [eax+4]
  0000f	89 4d fc	 mov	 DWORD PTR _area$[ebp], ecx

; 188  : 
; 189  : 	return (area->highlighted_texture_graphic);

  00012	8b 45 fc	 mov	 eax, DWORD PTR _area$[ebp]
  00015	8b 40 78	 mov	 eax, DWORD PTR [eax+120]

; 190  : }

  00018	5f		 pop	 edi
  00019	5e		 pop	 esi
  0001a	5b		 pop	 ebx
  0001b	8b e5		 mov	 esp, ebp
  0001d	5d		 pop	 ebp
  0001e	c2 04 00	 ret	 4
?get_area_ui_object_highlighted_texture_graphic@@YGPAUTEXTURE_GRAPHIC@@PAUUI_OBJECT@@@Z ENDP ; get_area_ui_object_highlighted_texture_graphic
_TEXT	ENDS
; Function compile flags: /Odtp /ZI
; File c:\users\nhv90\projects\eech\modules\userint2\ui_obj\area\ar_graph.c
;	COMDAT ?set_area_ui_object_highlighted_texture_graphic@@YGXPAUUI_OBJECT@@PAUTEXTURE_GRAPHIC@@@Z
_TEXT	SEGMENT
_area$ = -4						; size = 4
_obj$ = 8						; size = 4
_graphic$ = 12						; size = 4
?set_area_ui_object_highlighted_texture_graphic@@YGXPAUUI_OBJECT@@PAUTEXTURE_GRAPHIC@@@Z PROC ; set_area_ui_object_highlighted_texture_graphic, COMDAT

; 156  : {

  00000	55		 push	 ebp
  00001	8b ec		 mov	 ebp, esp
  00003	83 ec 44	 sub	 esp, 68			; 00000044H
  00006	53		 push	 ebx
  00007	56		 push	 esi
  00008	57		 push	 edi

; 157  : 	
; 158  : 	area_ui_object
; 159  : 		*area;
; 160  : 
; 161  : 	area = (area_ui_object *) obj->data;

  00009	8b 45 08	 mov	 eax, DWORD PTR _obj$[ebp]
  0000c	8b 48 04	 mov	 ecx, DWORD PTR [eax+4]
  0000f	89 4d fc	 mov	 DWORD PTR _area$[ebp], ecx

; 162  : 
; 163  : 	area->highlighted_texture_graphic = graphic;

  00012	8b 45 fc	 mov	 eax, DWORD PTR _area$[ebp]
  00015	8b 4d 0c	 mov	 ecx, DWORD PTR _graphic$[ebp]
  00018	89 48 78	 mov	 DWORD PTR [eax+120], ecx

; 164  : 
; 165  : 	if (graphic)

  0001b	83 7d 0c 00	 cmp	 DWORD PTR _graphic$[ebp], 0
  0001f	74 16		 je	 SHORT $LN2@set_area_u

; 166  : 	{
; 167  : 
; 168  : 		set_ui_object_graphic_type (obj, UI_OBJECT_TEXTURE_GRAPHIC);

  00021	6a 05		 push	 5
  00023	8b 45 08	 mov	 eax, DWORD PTR _obj$[ebp]
  00026	50		 push	 eax
  00027	8b 4d 08	 mov	 ecx, DWORD PTR _obj$[ebp]
  0002a	8b 11		 mov	 edx, DWORD PTR [ecx]
  0002c	8b 04 95 00 00
	00 00		 mov	 eax, DWORD PTR ?fn_set_ui_object_graphic_type@@3PAP6GXPAUUI_OBJECT@@H@ZA[edx*4]
  00033	ff d0		 call	 eax

; 169  : 	}
; 170  : 	else

  00035	eb 14		 jmp	 SHORT $LN1@set_area_u
$LN2@set_area_u:

; 171  : 	{
; 172  : 
; 173  : 		set_ui_object_graphic_type (obj, UI_OBJECT_NO_GRAPHIC);

  00037	6a 00		 push	 0
  00039	8b 45 08	 mov	 eax, DWORD PTR _obj$[ebp]
  0003c	50		 push	 eax
  0003d	8b 4d 08	 mov	 ecx, DWORD PTR _obj$[ebp]
  00040	8b 11		 mov	 edx, DWORD PTR [ecx]
  00042	8b 04 95 00 00
	00 00		 mov	 eax, DWORD PTR ?fn_set_ui_object_graphic_type@@3PAP6GXPAUUI_OBJECT@@H@ZA[edx*4]
  00049	ff d0		 call	 eax
$LN1@set_area_u:

; 174  : 	}
; 175  : }

  0004b	5f		 pop	 edi
  0004c	5e		 pop	 esi
  0004d	5b		 pop	 ebx
  0004e	8b e5		 mov	 esp, ebp
  00050	5d		 pop	 ebp
  00051	c2 08 00	 ret	 8
?set_area_ui_object_highlighted_texture_graphic@@YGXPAUUI_OBJECT@@PAUTEXTURE_GRAPHIC@@@Z ENDP ; set_area_ui_object_highlighted_texture_graphic
_TEXT	ENDS
; Function compile flags: /Odtp /ZI
; File c:\users\nhv90\projects\eech\modules\userint2\ui_obj\area\ar_graph.c
;	COMDAT ?get_area_ui_object_texture_graphic@@YGPAUTEXTURE_GRAPHIC@@PAUUI_OBJECT@@@Z
_TEXT	SEGMENT
_area$ = -4						; size = 4
_obj$ = 8						; size = 4
?get_area_ui_object_texture_graphic@@YGPAUTEXTURE_GRAPHIC@@PAUUI_OBJECT@@@Z PROC ; get_area_ui_object_texture_graphic, COMDAT

; 141  : {

  00000	55		 push	 ebp
  00001	8b ec		 mov	 ebp, esp
  00003	83 ec 44	 sub	 esp, 68			; 00000044H
  00006	53		 push	 ebx
  00007	56		 push	 esi
  00008	57		 push	 edi

; 142  : 	
; 143  : 	area_ui_object
; 144  : 		*area;
; 145  : 
; 146  : 	area = (area_ui_object *) obj->data;

  00009	8b 45 08	 mov	 eax, DWORD PTR _obj$[ebp]
  0000c	8b 48 04	 mov	 ecx, DWORD PTR [eax+4]
  0000f	89 4d fc	 mov	 DWORD PTR _area$[ebp], ecx

; 147  : 
; 148  : 	return (area->texture_graphic);

  00012	8b 45 fc	 mov	 eax, DWORD PTR _area$[ebp]
  00015	8b 40 70	 mov	 eax, DWORD PTR [eax+112]

; 149  : }

  00018	5f		 pop	 edi
  00019	5e		 pop	 esi
  0001a	5b		 pop	 ebx
  0001b	8b e5		 mov	 esp, ebp
  0001d	5d		 pop	 ebp
  0001e	c2 04 00	 ret	 4
?get_area_ui_object_texture_graphic@@YGPAUTEXTURE_GRAPHIC@@PAUUI_OBJECT@@@Z ENDP ; get_area_ui_object_texture_graphic
_TEXT	ENDS
; Function compile flags: /Odtp /ZI
; File c:\users\nhv90\projects\eech\modules\userint2\ui_obj\area\ar_graph.c
;	COMDAT ?set_area_ui_object_texture_graphic@@YGXPAUUI_OBJECT@@PAUTEXTURE_GRAPHIC@@@Z
_TEXT	SEGMENT
_area$ = -4						; size = 4
_obj$ = 8						; size = 4
_graphic$ = 12						; size = 4
?set_area_ui_object_texture_graphic@@YGXPAUUI_OBJECT@@PAUTEXTURE_GRAPHIC@@@Z PROC ; set_area_ui_object_texture_graphic, COMDAT

; 115  : {

  00000	55		 push	 ebp
  00001	8b ec		 mov	 ebp, esp
  00003	83 ec 44	 sub	 esp, 68			; 00000044H
  00006	53		 push	 ebx
  00007	56		 push	 esi
  00008	57		 push	 edi

; 116  : 	
; 117  : 	area_ui_object
; 118  : 		*area;
; 119  : 
; 120  : 	area = (area_ui_object *) obj->data;

  00009	8b 45 08	 mov	 eax, DWORD PTR _obj$[ebp]
  0000c	8b 48 04	 mov	 ecx, DWORD PTR [eax+4]
  0000f	89 4d fc	 mov	 DWORD PTR _area$[ebp], ecx

; 121  : 
; 122  : 	area->texture_graphic = graphic;

  00012	8b 45 fc	 mov	 eax, DWORD PTR _area$[ebp]
  00015	8b 4d 0c	 mov	 ecx, DWORD PTR _graphic$[ebp]
  00018	89 48 70	 mov	 DWORD PTR [eax+112], ecx

; 123  : 
; 124  : 	if (graphic)

  0001b	83 7d 0c 00	 cmp	 DWORD PTR _graphic$[ebp], 0
  0001f	74 16		 je	 SHORT $LN2@set_area_u

; 125  : 	{
; 126  : 
; 127  : 		set_ui_object_graphic_type (obj, UI_OBJECT_TEXTURE_GRAPHIC);

  00021	6a 05		 push	 5
  00023	8b 45 08	 mov	 eax, DWORD PTR _obj$[ebp]
  00026	50		 push	 eax
  00027	8b 4d 08	 mov	 ecx, DWORD PTR _obj$[ebp]
  0002a	8b 11		 mov	 edx, DWORD PTR [ecx]
  0002c	8b 04 95 00 00
	00 00		 mov	 eax, DWORD PTR ?fn_set_ui_object_graphic_type@@3PAP6GXPAUUI_OBJECT@@H@ZA[edx*4]
  00033	ff d0		 call	 eax

; 128  : 	}
; 129  : 	else

  00035	eb 14		 jmp	 SHORT $LN1@set_area_u
$LN2@set_area_u:

; 130  : 	{
; 131  : 
; 132  : 		set_ui_object_graphic_type (obj, UI_OBJECT_NO_GRAPHIC);

  00037	6a 00		 push	 0
  00039	8b 45 08	 mov	 eax, DWORD PTR _obj$[ebp]
  0003c	50		 push	 eax
  0003d	8b 4d 08	 mov	 ecx, DWORD PTR _obj$[ebp]
  00040	8b 11		 mov	 edx, DWORD PTR [ecx]
  00042	8b 04 95 00 00
	00 00		 mov	 eax, DWORD PTR ?fn_set_ui_object_graphic_type@@3PAP6GXPAUUI_OBJECT@@H@ZA[edx*4]
  00049	ff d0		 call	 eax
$LN1@set_area_u:

; 133  : 	}
; 134  : }

  0004b	5f		 pop	 edi
  0004c	5e		 pop	 esi
  0004d	5b		 pop	 ebx
  0004e	8b e5		 mov	 esp, ebp
  00050	5d		 pop	 ebp
  00051	c2 08 00	 ret	 8
?set_area_ui_object_texture_graphic@@YGXPAUUI_OBJECT@@PAUTEXTURE_GRAPHIC@@@Z ENDP ; set_area_ui_object_texture_graphic
_TEXT	ENDS
; Function compile flags: /Odtp /ZI
; File c:\users\nhv90\projects\eech\modules\userint2\ui_obj\area\ar_graph.c
;	COMDAT ?get_area_ui_object_graphic@@YGPAGPAUUI_OBJECT@@@Z
_TEXT	SEGMENT
_area$ = -4						; size = 4
_obj$ = 8						; size = 4
?get_area_ui_object_graphic@@YGPAGPAUUI_OBJECT@@@Z PROC	; get_area_ui_object_graphic, COMDAT

; 100  : {

  00000	55		 push	 ebp
  00001	8b ec		 mov	 ebp, esp
  00003	83 ec 44	 sub	 esp, 68			; 00000044H
  00006	53		 push	 ebx
  00007	56		 push	 esi
  00008	57		 push	 edi

; 101  : 	
; 102  : 	area_ui_object
; 103  : 		*area;
; 104  : 
; 105  : 	area = (area_ui_object *) obj->data;

  00009	8b 45 08	 mov	 eax, DWORD PTR _obj$[ebp]
  0000c	8b 48 04	 mov	 ecx, DWORD PTR [eax+4]
  0000f	89 4d fc	 mov	 DWORD PTR _area$[ebp], ecx

; 106  : 
; 107  : 	return (area->graphic);

  00012	8b 45 fc	 mov	 eax, DWORD PTR _area$[ebp]
  00015	8b 40 70	 mov	 eax, DWORD PTR [eax+112]

; 108  : }

  00018	5f		 pop	 edi
  00019	5e		 pop	 esi
  0001a	5b		 pop	 ebx
  0001b	8b e5		 mov	 esp, ebp
  0001d	5d		 pop	 ebp
  0001e	c2 04 00	 ret	 4
?get_area_ui_object_graphic@@YGPAGPAUUI_OBJECT@@@Z ENDP	; get_area_ui_object_graphic
_TEXT	ENDS
; Function compile flags: /Odtp /ZI
; File c:\users\nhv90\projects\eech\modules\userint2\ui_obj\area\ar_graph.c
;	COMDAT ?set_area_ui_object_graphic@@YGXPAUUI_OBJECT@@PAG@Z
_TEXT	SEGMENT
_area$ = -4						; size = 4
_obj$ = 8						; size = 4
_graphic$ = 12						; size = 4
?set_area_ui_object_graphic@@YGXPAUUI_OBJECT@@PAG@Z PROC ; set_area_ui_object_graphic, COMDAT

; 74   : {

  00000	55		 push	 ebp
  00001	8b ec		 mov	 ebp, esp
  00003	83 ec 44	 sub	 esp, 68			; 00000044H
  00006	53		 push	 ebx
  00007	56		 push	 esi
  00008	57		 push	 edi

; 75   : 	
; 76   : 	area_ui_object
; 77   : 		*area;
; 78   : 
; 79   : 	area = (area_ui_object *) obj->data;

  00009	8b 45 08	 mov	 eax, DWORD PTR _obj$[ebp]
  0000c	8b 48 04	 mov	 ecx, DWORD PTR [eax+4]
  0000f	89 4d fc	 mov	 DWORD PTR _area$[ebp], ecx

; 80   : 
; 81   : 	area->graphic = graphic;

  00012	8b 45 fc	 mov	 eax, DWORD PTR _area$[ebp]
  00015	8b 4d 0c	 mov	 ecx, DWORD PTR _graphic$[ebp]
  00018	89 48 70	 mov	 DWORD PTR [eax+112], ecx

; 82   : 
; 83   : 	if (graphic)

  0001b	83 7d 0c 00	 cmp	 DWORD PTR _graphic$[ebp], 0
  0001f	74 16		 je	 SHORT $LN2@set_area_u

; 84   : 	{
; 85   : 
; 86   : 		set_ui_object_graphic_type (obj, UI_OBJECT_GRAPHIC);

  00021	6a 01		 push	 1
  00023	8b 45 08	 mov	 eax, DWORD PTR _obj$[ebp]
  00026	50		 push	 eax
  00027	8b 4d 08	 mov	 ecx, DWORD PTR _obj$[ebp]
  0002a	8b 11		 mov	 edx, DWORD PTR [ecx]
  0002c	8b 04 95 00 00
	00 00		 mov	 eax, DWORD PTR ?fn_set_ui_object_graphic_type@@3PAP6GXPAUUI_OBJECT@@H@ZA[edx*4]
  00033	ff d0		 call	 eax

; 87   : 	}
; 88   : 	else

  00035	eb 14		 jmp	 SHORT $LN1@set_area_u
$LN2@set_area_u:

; 89   : 	{
; 90   : 
; 91   : 		set_ui_object_graphic_type (obj, UI_OBJECT_NO_GRAPHIC);

  00037	6a 00		 push	 0
  00039	8b 45 08	 mov	 eax, DWORD PTR _obj$[ebp]
  0003c	50		 push	 eax
  0003d	8b 4d 08	 mov	 ecx, DWORD PTR _obj$[ebp]
  00040	8b 11		 mov	 edx, DWORD PTR [ecx]
  00042	8b 04 95 00 00
	00 00		 mov	 eax, DWORD PTR ?fn_set_ui_object_graphic_type@@3PAP6GXPAUUI_OBJECT@@H@ZA[edx*4]
  00049	ff d0		 call	 eax
$LN1@set_area_u:

; 92   : 	}
; 93   : }

  0004b	5f		 pop	 edi
  0004c	5e		 pop	 esi
  0004d	5b		 pop	 ebx
  0004e	8b e5		 mov	 esp, ebp
  00050	5d		 pop	 ebp
  00051	c2 08 00	 ret	 8
?set_area_ui_object_graphic@@YGXPAUUI_OBJECT@@PAG@Z ENDP ; set_area_ui_object_graphic
_TEXT	ENDS
; Function compile flags: /Odtp /ZI
; File c:\users\nhv90\projects\eech\modules\userint2\ui_obj\area\ar_graph.c
;	COMDAT ?overload_area_ui_object_graphic_functions@@YGXH@Z
_TEXT	SEGMENT
_type$ = 8						; size = 4
?overload_area_ui_object_graphic_functions@@YGXH@Z PROC	; overload_area_ui_object_graphic_functions, COMDAT

; 410  : {

  00000	55		 push	 ebp
  00001	8b ec		 mov	 ebp, esp
  00003	83 ec 40	 sub	 esp, 64			; 00000040H
  00006	53		 push	 ebx
  00007	56		 push	 esi
  00008	57		 push	 edi

; 411  : 
; 412  : 	fn_set_ui_object_graphic [type] 								= set_area_ui_object_graphic;

  00009	8b 45 08	 mov	 eax, DWORD PTR _type$[ebp]
  0000c	c7 04 85 00 00
	00 00 00 00 00
	00		 mov	 DWORD PTR ?fn_set_ui_object_graphic@@3PAP6GXPAUUI_OBJECT@@PAG@ZA[eax*4], OFFSET ?set_area_ui_object_graphic@@YGXPAUUI_OBJECT@@PAG@Z ; set_area_ui_object_graphic

; 413  : 
; 414  : 	fn_get_ui_object_graphic [type] 								= get_area_ui_object_graphic;

  00017	8b 45 08	 mov	 eax, DWORD PTR _type$[ebp]
  0001a	c7 04 85 00 00
	00 00 00 00 00
	00		 mov	 DWORD PTR ?fn_get_ui_object_graphic@@3PAP6GPAGPAUUI_OBJECT@@@ZA[eax*4], OFFSET ?get_area_ui_object_graphic@@YGPAGPAUUI_OBJECT@@@Z ; get_area_ui_object_graphic

; 415  : 
; 416  : 	fn_set_ui_object_texture_graphic [type] 					= set_area_ui_object_texture_graphic;

  00025	8b 45 08	 mov	 eax, DWORD PTR _type$[ebp]
  00028	c7 04 85 00 00
	00 00 00 00 00
	00		 mov	 DWORD PTR ?fn_set_ui_object_texture_graphic@@3PAP6GXPAUUI_OBJECT@@PAUTEXTURE_GRAPHIC@@@ZA[eax*4], OFFSET ?set_area_ui_object_texture_graphic@@YGXPAUUI_OBJECT@@PAUTEXTURE_GRAPHIC@@@Z ; set_area_ui_object_texture_graphic

; 417  : 
; 418  : 	fn_get_ui_object_texture_graphic [type] 					= get_area_ui_object_texture_graphic;

  00033	8b 45 08	 mov	 eax, DWORD PTR _type$[ebp]
  00036	c7 04 85 00 00
	00 00 00 00 00
	00		 mov	 DWORD PTR ?fn_get_ui_object_texture_graphic@@3PAP6GPAUTEXTURE_GRAPHIC@@PAUUI_OBJECT@@@ZA[eax*4], OFFSET ?get_area_ui_object_texture_graphic@@YGPAUTEXTURE_GRAPHIC@@PAUUI_OBJECT@@@Z ; get_area_ui_object_texture_graphic

; 419  : 
; 420  : 	fn_set_ui_object_highlighted_texture_graphic [type] 	= set_area_ui_object_highlighted_texture_graphic;

  00041	8b 45 08	 mov	 eax, DWORD PTR _type$[ebp]
  00044	c7 04 85 00 00
	00 00 00 00 00
	00		 mov	 DWORD PTR ?fn_set_ui_object_highlighted_texture_graphic@@3PAP6GXPAUUI_OBJECT@@PAUTEXTURE_GRAPHIC@@@ZA[eax*4], OFFSET ?set_area_ui_object_highlighted_texture_graphic@@YGXPAUUI_OBJECT@@PAUTEXTURE_GRAPHIC@@@Z ; set_area_ui_object_highlighted_texture_graphic

; 421  : 
; 422  : 	fn_get_ui_object_highlighted_texture_graphic [type] 	= get_area_ui_object_highlighted_texture_graphic;

  0004f	8b 45 08	 mov	 eax, DWORD PTR _type$[ebp]
  00052	c7 04 85 00 00
	00 00 00 00 00
	00		 mov	 DWORD PTR ?fn_get_ui_object_highlighted_texture_graphic@@3PAP6GPAUTEXTURE_GRAPHIC@@PAUUI_OBJECT@@@ZA[eax*4], OFFSET ?get_area_ui_object_highlighted_texture_graphic@@YGPAUTEXTURE_GRAPHIC@@PAUUI_OBJECT@@@Z ; get_area_ui_object_highlighted_texture_graphic

; 423  : 
; 424  : 	fn_set_ui_object_selected_texture_graphic [type] 		= set_area_ui_object_selected_texture_graphic;

  0005d	8b 45 08	 mov	 eax, DWORD PTR _type$[ebp]
  00060	c7 04 85 00 00
	00 00 00 00 00
	00		 mov	 DWORD PTR ?fn_set_ui_object_selected_texture_graphic@@3PAP6GXPAUUI_OBJECT@@PAUTEXTURE_GRAPHIC@@@ZA[eax*4], OFFSET ?set_area_ui_object_selected_texture_graphic@@YGXPAUUI_OBJECT@@PAUTEXTURE_GRAPHIC@@@Z ; set_area_ui_object_selected_texture_graphic

; 425  : 
; 426  : 	fn_get_ui_object_selected_texture_graphic [type] 		= get_area_ui_object_selected_texture_graphic;

  0006b	8b 45 08	 mov	 eax, DWORD PTR _type$[ebp]
  0006e	c7 04 85 00 00
	00 00 00 00 00
	00		 mov	 DWORD PTR ?fn_get_ui_object_selected_texture_graphic@@3PAP6GPAUTEXTURE_GRAPHIC@@PAUUI_OBJECT@@@ZA[eax*4], OFFSET ?get_area_ui_object_selected_texture_graphic@@YGPAUTEXTURE_GRAPHIC@@PAUUI_OBJECT@@@Z ; get_area_ui_object_selected_texture_graphic

; 427  : 
; 428  : 	fn_set_ui_object_memory_graphic [type]						= set_area_ui_object_memory_graphic;

  00079	8b 45 08	 mov	 eax, DWORD PTR _type$[ebp]
  0007c	c7 04 85 00 00
	00 00 00 00 00
	00		 mov	 DWORD PTR ?fn_set_ui_object_memory_graphic@@3PAP6GXPAUUI_OBJECT@@PAUSCREEN@@@ZA[eax*4], OFFSET ?set_area_ui_object_memory_graphic@@YGXPAUUI_OBJECT@@PAUSCREEN@@@Z ; set_area_ui_object_memory_graphic

; 429  : 
; 430  : 	fn_get_ui_object_memory_graphic [type]						= get_area_ui_object_memory_graphic;

  00087	8b 45 08	 mov	 eax, DWORD PTR _type$[ebp]
  0008a	c7 04 85 00 00
	00 00 00 00 00
	00		 mov	 DWORD PTR ?fn_get_ui_object_memory_graphic@@3PAP6GPAUSCREEN@@PAUUI_OBJECT@@@ZA[eax*4], OFFSET ?get_area_ui_object_memory_graphic@@YGPAUSCREEN@@PAUUI_OBJECT@@@Z ; get_area_ui_object_memory_graphic

; 431  : 
; 432  : 	fn_set_ui_object_zoomable_palette_graphic [type]		= set_area_ui_object_zoomable_palette_graphic;

  00095	8b 45 08	 mov	 eax, DWORD PTR _type$[ebp]
  00098	c7 04 85 00 00
	00 00 00 00 00
	00		 mov	 DWORD PTR ?fn_set_ui_object_zoomable_palette_graphic@@3PAP6GXPAUUI_OBJECT@@PAUZOOMABLE_GRAPHIC@@@ZA[eax*4], OFFSET ?set_area_ui_object_zoomable_palette_graphic@@YGXPAUUI_OBJECT@@PAUZOOMABLE_GRAPHIC@@@Z ; set_area_ui_object_zoomable_palette_graphic

; 433  : 
; 434  : 	fn_get_ui_object_zoomable_palette_graphic [type]		= get_area_ui_object_zoomable_palette_graphic;

  000a3	8b 45 08	 mov	 eax, DWORD PTR _type$[ebp]
  000a6	c7 04 85 00 00
	00 00 00 00 00
	00		 mov	 DWORD PTR ?fn_get_ui_object_zoomable_palette_graphic@@3PAP6GPAUZOOMABLE_GRAPHIC@@PAUUI_OBJECT@@@ZA[eax*4], OFFSET ?get_area_ui_object_zoomable_palette_graphic@@YGPAUZOOMABLE_GRAPHIC@@PAUUI_OBJECT@@@Z ; get_area_ui_object_zoomable_palette_graphic

; 435  : 
; 436  : 	fn_set_ui_object_graphic_type [type]						= set_area_ui_object_graphic_type;

  000b1	8b 45 08	 mov	 eax, DWORD PTR _type$[ebp]
  000b4	c7 04 85 00 00
	00 00 00 00 00
	00		 mov	 DWORD PTR ?fn_set_ui_object_graphic_type@@3PAP6GXPAUUI_OBJECT@@H@ZA[eax*4], OFFSET ?set_area_ui_object_graphic_type@@YGXPAUUI_OBJECT@@H@Z ; set_area_ui_object_graphic_type

; 437  : 
; 438  : 	fn_get_ui_object_graphic_type [type]						= get_area_ui_object_graphic_type;

  000bf	8b 45 08	 mov	 eax, DWORD PTR _type$[ebp]
  000c2	c7 04 85 00 00
	00 00 00 00 00
	00		 mov	 DWORD PTR ?fn_get_ui_object_graphic_type@@3PAP6GHPAUUI_OBJECT@@@ZA[eax*4], OFFSET ?get_area_ui_object_graphic_type@@YGHPAUUI_OBJECT@@@Z ; get_area_ui_object_graphic_type

; 439  : 
; 440  : 	fn_set_ui_object_graphic_zoom [type]						= set_area_ui_object_graphic_zoom;

  000cd	8b 45 08	 mov	 eax, DWORD PTR _type$[ebp]
  000d0	c7 04 85 00 00
	00 00 00 00 00
	00		 mov	 DWORD PTR ?fn_set_ui_object_graphic_zoom@@3PAP6GXPAUUI_OBJECT@@H@ZA[eax*4], OFFSET ?set_area_ui_object_graphic_zoom@@YGXPAUUI_OBJECT@@H@Z ; set_area_ui_object_graphic_zoom

; 441  : 
; 442  : 	fn_get_ui_object_graphic_zoom [type]						= get_area_ui_object_graphic_zoom;

  000db	8b 45 08	 mov	 eax, DWORD PTR _type$[ebp]
  000de	c7 04 85 00 00
	00 00 00 00 00
	00		 mov	 DWORD PTR ?fn_get_ui_object_graphic_zoom@@3PAP6GHPAUUI_OBJECT@@@ZA[eax*4], OFFSET ?get_area_ui_object_graphic_zoom@@YGHPAUUI_OBJECT@@@Z ; get_area_ui_object_graphic_zoom

; 443  : 
; 444  : 	fn_set_ui_object_active_screen [type]						= set_area_ui_object_active_screen;

  000e9	8b 45 08	 mov	 eax, DWORD PTR _type$[ebp]
  000ec	c7 04 85 00 00
	00 00 00 00 00
	00		 mov	 DWORD PTR ?fn_set_ui_object_active_screen@@3PAP6GXPAUUI_OBJECT@@PAUSCREEN@@@ZA[eax*4], OFFSET ?set_area_ui_object_active_screen@@YGXPAUUI_OBJECT@@PAUSCREEN@@@Z ; set_area_ui_object_active_screen

; 445  : 
; 446  : 	fn_get_ui_object_active_screen [type]						= get_area_ui_object_active_screen;

  000f7	8b 45 08	 mov	 eax, DWORD PTR _type$[ebp]
  000fa	c7 04 85 00 00
	00 00 00 00 00
	00		 mov	 DWORD PTR ?fn_get_ui_object_active_screen@@3PAP6GPAUSCREEN@@PAUUI_OBJECT@@@ZA[eax*4], OFFSET ?get_area_ui_object_active_screen@@YGPAUSCREEN@@PAUUI_OBJECT@@@Z ; get_area_ui_object_active_screen

; 447  : }

  00105	5f		 pop	 edi
  00106	5e		 pop	 esi
  00107	5b		 pop	 ebx
  00108	8b e5		 mov	 esp, ebp
  0010a	5d		 pop	 ebp
  0010b	c2 04 00	 ret	 4
?overload_area_ui_object_graphic_functions@@YGXH@Z ENDP	; overload_area_ui_object_graphic_functions
_TEXT	ENDS
END
