; Listing generated by Microsoft (R) Optimizing Compiler Version 19.16.27045.0 

	TITLE	C:\Users\nhv90\Projects\eech\modules\system\ascii.c
	.686P
	.XMM
	include listing.inc
	.model	flat

INCLUDELIB MSVCRTD
INCLUDELIB OLDNAMES

PUBLIC	?dik_names@@3PAPBDA				; dik_names
PUBLIC	?dinput_to_ascii_table@@3PADA			; dinput_to_ascii_table
PUBLIC	?dinput_to_ascii_upper_table@@3PADA		; dinput_to_ascii_upper_table
PUBLIC	??_C@_04OKGDLNCL@NONE@				; `string'
PUBLIC	??_C@_06CDPDIIDH@ESCAPE@			; `string'
PUBLIC	??_C@_01HIHLOKLC@1@				; `string'
PUBLIC	??_C@_01FDFGLJHB@2@				; `string'
PUBLIC	??_C@_01EKENIIDA@3@				; `string'
PUBLIC	??_C@_01FAMBOPH@4@				; `string'
PUBLIC	??_C@_01BMBHCPLG@5@				; `string'
PUBLIC	??_C@_01DHDKHMHF@6@				; `string'
PUBLIC	??_C@_01COCBENDE@7@				; `string'
PUBLIC	??_C@_01KJLJFBPL@8@				; `string'
PUBLIC	??_C@_01LAKCGALK@9@				; `string'
PUBLIC	??_C@_01GBGANLPD@0@				; `string'
PUBLIC	??_C@_05CIDCLABE@MINUS@				; `string'
PUBLIC	??_C@_06IIDPKENN@EQUALS@			; `string'
PUBLIC	??_C@_04FJBHJJME@BACK@				; `string'
PUBLIC	??_C@_03CJMDHCGG@TAB@				; `string'
PUBLIC	??_C@_01BNIGIBBF@Q@				; `string'
PUBLIC	??_C@_01ELNMCGJD@W@				; `string'
PUBLIC	??_C@_01DDCIFGEA@E@				; `string'
PUBLIC	??_C@_01DGKLNCNG@R@				; `string'
PUBLIC	??_C@_01GAPBHFFA@T@				; `string'
PUBLIC	??_C@_01NFFPALBN@Y@				; `string'
PUBLIC	??_C@_01HJOKEEBB@U@				; `string'
PUBLIC	??_C@_01JPJNBJEM@I@				; `string'
PUBLIC	??_C@_01MJMHLOMK@O@				; `string'
PUBLIC	??_C@_01EJNLAFE@P@				; `string'
PUBLIC	??_C@_08MBGGNFFL@LBRACKET@			; `string'
PUBLIC	??_C@_08KFGEEMLI@RBRACKET@			; `string'
PUBLIC	??_C@_06LJMOENAO@RETURN@			; `string'
PUBLIC	??_C@_08IKMONEBG@LCONTROL@			; `string'
PUBLIC	??_C@_01FHEEJDEE@A@				; `string'
PUBLIC	??_C@_01CPLAODJH@S@				; `string'
PUBLIC	??_C@_01CKDDGHAB@D@				; `string'
PUBLIC	??_C@_01BIAFAFID@F@				; `string'
PUBLIC	??_C@_01BBODEMC@G@				; `string'
PUBLIC	??_C@_01IGIGCIAN@H@				; `string'
PUBLIC	??_C@_01LELAEKIP@J@				; `string'
PUBLIC	??_C@_01KNKLHLMO@K@				; `string'
PUBLIC	??_C@_01OCOKONAJ@L@				; `string'
PUBLIC	??_C@_09COMJPDLF@SEMICOLON@			; `string'
PUBLIC	??_C@_0L@JENNPFNN@APOSTROPHE@			; `string'
PUBLIC	??_C@_05NICECODJ@GRAVE@				; `string'
PUBLIC	??_C@_06EPHNCIMI@LSHIFT@			; `string'
PUBLIC	??_C@_09MMCGBGHA@BACKSLASH@			; `string'
PUBLIC	??_C@_01POHCFINO@Z@				; `string'
PUBLIC	??_C@_01MMEEDKFM@X@				; `string'
PUBLIC	??_C@_01GFHCPBMG@C@				; `string'
PUBLIC	??_C@_01FCMHBHNC@V@				; `string'
PUBLIC	??_C@_01HMGJMAIH@B@				; `string'
PUBLIC	??_C@_01NANMIPIL@N@				; `string'
PUBLIC	??_C@_01PLPBNMEI@M@				; `string'
PUBLIC	??_C@_05OFAMAJDB@COMMA@				; `string'
PUBLIC	??_C@_06FFMPJJAJ@PERIOD@			; `string'
PUBLIC	??_C@_05CMNGPLPB@SLASH@				; `string'
PUBLIC	??_C@_06HIJMMPFL@RSHIFT@			; `string'
PUBLIC	??_C@_08LDEOAAGM@MULTIPLY@			; `string'
PUBLIC	??_C@_04CACBGOAG@LALT@				; `string'
PUBLIC	??_C@_05CAEOFMEP@SPACE@				; `string'
PUBLIC	??_C@_07OPCFNGJB@CAPITAL@			; `string'
PUBLIC	??_C@_02LCPENACN@F1@				; `string'
PUBLIC	??_C@_02JJNJIDOO@F2@				; `string'
PUBLIC	??_C@_02IAMCLCKP@F3@				; `string'
PUBLIC	??_C@_02MPIDCEGI@F4@				; `string'
PUBLIC	??_C@_02NGJIBFCJ@F5@				; `string'
PUBLIC	??_C@_02PNLFEGOK@F6@				; `string'
PUBLIC	??_C@_02OEKOHHKL@F7@				; `string'
PUBLIC	??_C@_02GDDGGLGE@F8@				; `string'
PUBLIC	??_C@_02HKCNFKCF@F9@				; `string'
PUBLIC	??_C@_03JKCLJOFG@F10@				; `string'
PUBLIC	??_C@_07FLMEHHJP@NUMLOCK@			; `string'
PUBLIC	??_C@_06FNIKALAE@SCROLL@			; `string'
PUBLIC	??_C@_07JIMOFKFA@NUMPAD7@			; `string'
PUBLIC	??_C@_07BPFGEGJP@NUMPAD8@			; `string'
PUBLIC	??_C@_07GENHHNO@NUMPAD9@			; `string'
PUBLIC	??_C@_08MGBEENML@SUBTRACT@			; `string'
PUBLIC	??_C@_07LDODAJJD@NUMPAD4@			; `string'
PUBLIC	??_C@_07KKPIDINC@NUMPAD5@			; `string'
PUBLIC	??_C@_07IBNFGLBB@NUMPAD6@			; `string'
PUBLIC	??_C@_03BOJFLAKG@ADD@				; `string'
PUBLIC	??_C@_07MOJEPNNG@NUMPAD1@			; `string'
PUBLIC	??_C@_07OFLJKOBF@NUMPAD2@			; `string'
PUBLIC	??_C@_07PMKCJPFE@NUMPAD3@			; `string'
PUBLIC	??_C@_07NHIPMMJH@NUMPAD0@			; `string'
PUBLIC	??_C@_07LJPMJDLL@DECIMAL@			; `string'
PUBLIC	??_C@_03IDDAKPBH@F11@				; `string'
PUBLIC	??_C@_03KIBNPMNE@F12@				; `string'
PUBLIC	??_C@_03LBAGMNJF@F13@				; `string'
PUBLIC	??_C@_03POEHFLFC@F14@				; `string'
PUBLIC	??_C@_03OHFMGKBD@F15@				; `string'
PUBLIC	??_C@_04KGDAIAGM@KANA@				; `string'
PUBLIC	??_C@_07BAKIHLPO@CONVERT@			; `string'
PUBLIC	??_C@_09BHFIDHCE@NOCONVERT@			; `string'
PUBLIC	??_C@_03HABFENGL@YEN@				; `string'
PUBLIC	??_C@_0N@DJGCIENF@NUMPADEQUALS@			; `string'
PUBLIC	??_C@_0L@ICKCLMNA@CIRCUMFLEX@			; `string'
PUBLIC	??_C@_02KPDBFJEK@AT@				; `string'
PUBLIC	??_C@_05NJKMKGPF@COLON@				; `string'
PUBLIC	??_C@_09CDKPIEFA@UNDERLINE@			; `string'
PUBLIC	??_C@_05GJEMAGFO@KANJI@				; `string'
PUBLIC	??_C@_04MDHMLCKF@STOP@				; `string'
PUBLIC	??_C@_02DIEBGEG@AX@				; `string'
PUBLIC	??_C@_09CIFDPFIO@UNLABELED@			; `string'
PUBLIC	??_C@_0M@BKBBOHJI@NUMPADENTER@			; `string'
PUBLIC	??_C@_08OOMMENPF@RCONTROL@			; `string'
PUBLIC	??_C@_0M@LDMFCFAK@NUMPADCOMMA@			; `string'
PUBLIC	??_C@_06FBFCJJMP@DIVIDE@			; `string'
PUBLIC	??_C@_05OEAELPDI@SYSRQ@				; `string'
PUBLIC	??_C@_04PPPBEHOF@RALT@				; `string'
PUBLIC	??_C@_04GHGFPGNC@HOME@				; `string'
PUBLIC	??_C@_02NAHCJHOC@UP@				; `string'
PUBLIC	??_C@_04NHMBBGKC@PGUP@				; `string'
PUBLIC	??_C@_04KCNEHMIH@LEFT@				; `string'
PUBLIC	??_C@_05PMAFOJDE@RIGHT@				; `string'
PUBLIC	??_C@_03JMGAKCCH@END@				; `string'
PUBLIC	??_C@_04FANAOELO@DOWN@				; `string'
PUBLIC	??_C@_04BOGEOADK@PGDN@				; `string'
PUBLIC	??_C@_06OEMEAEKN@INSERT@			; `string'
PUBLIC	??_C@_06FKDAMKFP@DELETE@			; `string'
PUBLIC	??_C@_04ODLFFOHF@LWIN@				; `string'
PUBLIC	??_C@_04DMGFHHJG@RWIN@				; `string'
PUBLIC	??_C@_04GKGJFGJO@APPS@				; `string'
PUBLIC	?conversion_table@@3PAUutf8_conversion@@A	; conversion_table
_BSS	SEGMENT
?dinput_to_ascii_table@@3PADA DB 0100H DUP (?)		; dinput_to_ascii_table
?dinput_to_ascii_upper_table@@3PADA DB 0100H DUP (?)	; dinput_to_ascii_upper_table
?conversion_table@@3PAUutf8_conversion@@A DW 05eH DUP (?) ; conversion_table
_BSS	ENDS
;	COMDAT ??_C@_04GKGJFGJO@APPS@
CONST	SEGMENT
??_C@_04GKGJFGJO@APPS@ DB 'APPS', 00H			; `string'
CONST	ENDS
;	COMDAT ??_C@_04DMGFHHJG@RWIN@
CONST	SEGMENT
??_C@_04DMGFHHJG@RWIN@ DB 'RWIN', 00H			; `string'
CONST	ENDS
;	COMDAT ??_C@_04ODLFFOHF@LWIN@
CONST	SEGMENT
??_C@_04ODLFFOHF@LWIN@ DB 'LWIN', 00H			; `string'
CONST	ENDS
;	COMDAT ??_C@_06FKDAMKFP@DELETE@
CONST	SEGMENT
??_C@_06FKDAMKFP@DELETE@ DB 'DELETE', 00H		; `string'
CONST	ENDS
;	COMDAT ??_C@_06OEMEAEKN@INSERT@
CONST	SEGMENT
??_C@_06OEMEAEKN@INSERT@ DB 'INSERT', 00H		; `string'
CONST	ENDS
;	COMDAT ??_C@_04BOGEOADK@PGDN@
CONST	SEGMENT
??_C@_04BOGEOADK@PGDN@ DB 'PGDN', 00H			; `string'
CONST	ENDS
;	COMDAT ??_C@_04FANAOELO@DOWN@
CONST	SEGMENT
??_C@_04FANAOELO@DOWN@ DB 'DOWN', 00H			; `string'
CONST	ENDS
;	COMDAT ??_C@_03JMGAKCCH@END@
CONST	SEGMENT
??_C@_03JMGAKCCH@END@ DB 'END', 00H			; `string'
CONST	ENDS
;	COMDAT ??_C@_05PMAFOJDE@RIGHT@
CONST	SEGMENT
??_C@_05PMAFOJDE@RIGHT@ DB 'RIGHT', 00H			; `string'
CONST	ENDS
;	COMDAT ??_C@_04KCNEHMIH@LEFT@
CONST	SEGMENT
??_C@_04KCNEHMIH@LEFT@ DB 'LEFT', 00H			; `string'
CONST	ENDS
;	COMDAT ??_C@_04NHMBBGKC@PGUP@
CONST	SEGMENT
??_C@_04NHMBBGKC@PGUP@ DB 'PGUP', 00H			; `string'
CONST	ENDS
;	COMDAT ??_C@_02NAHCJHOC@UP@
CONST	SEGMENT
??_C@_02NAHCJHOC@UP@ DB 'UP', 00H			; `string'
CONST	ENDS
;	COMDAT ??_C@_04GHGFPGNC@HOME@
CONST	SEGMENT
??_C@_04GHGFPGNC@HOME@ DB 'HOME', 00H			; `string'
CONST	ENDS
;	COMDAT ??_C@_04PPPBEHOF@RALT@
CONST	SEGMENT
??_C@_04PPPBEHOF@RALT@ DB 'RALT', 00H			; `string'
CONST	ENDS
;	COMDAT ??_C@_05OEAELPDI@SYSRQ@
CONST	SEGMENT
??_C@_05OEAELPDI@SYSRQ@ DB 'SYSRQ', 00H			; `string'
CONST	ENDS
;	COMDAT ??_C@_06FBFCJJMP@DIVIDE@
CONST	SEGMENT
??_C@_06FBFCJJMP@DIVIDE@ DB 'DIVIDE', 00H		; `string'
CONST	ENDS
;	COMDAT ??_C@_0M@LDMFCFAK@NUMPADCOMMA@
CONST	SEGMENT
??_C@_0M@LDMFCFAK@NUMPADCOMMA@ DB 'NUMPADCOMMA', 00H	; `string'
CONST	ENDS
;	COMDAT ??_C@_08OOMMENPF@RCONTROL@
CONST	SEGMENT
??_C@_08OOMMENPF@RCONTROL@ DB 'RCONTROL', 00H		; `string'
CONST	ENDS
;	COMDAT ??_C@_0M@BKBBOHJI@NUMPADENTER@
CONST	SEGMENT
??_C@_0M@BKBBOHJI@NUMPADENTER@ DB 'NUMPADENTER', 00H	; `string'
CONST	ENDS
;	COMDAT ??_C@_09CIFDPFIO@UNLABELED@
CONST	SEGMENT
??_C@_09CIFDPFIO@UNLABELED@ DB 'UNLABELED', 00H		; `string'
CONST	ENDS
;	COMDAT ??_C@_02DIEBGEG@AX@
CONST	SEGMENT
??_C@_02DIEBGEG@AX@ DB 'AX', 00H			; `string'
CONST	ENDS
;	COMDAT ??_C@_04MDHMLCKF@STOP@
CONST	SEGMENT
??_C@_04MDHMLCKF@STOP@ DB 'STOP', 00H			; `string'
CONST	ENDS
;	COMDAT ??_C@_05GJEMAGFO@KANJI@
CONST	SEGMENT
??_C@_05GJEMAGFO@KANJI@ DB 'KANJI', 00H			; `string'
CONST	ENDS
;	COMDAT ??_C@_09CDKPIEFA@UNDERLINE@
CONST	SEGMENT
??_C@_09CDKPIEFA@UNDERLINE@ DB 'UNDERLINE', 00H		; `string'
CONST	ENDS
;	COMDAT ??_C@_05NJKMKGPF@COLON@
CONST	SEGMENT
??_C@_05NJKMKGPF@COLON@ DB 'COLON', 00H			; `string'
CONST	ENDS
;	COMDAT ??_C@_02KPDBFJEK@AT@
CONST	SEGMENT
??_C@_02KPDBFJEK@AT@ DB 'AT', 00H			; `string'
CONST	ENDS
;	COMDAT ??_C@_0L@ICKCLMNA@CIRCUMFLEX@
CONST	SEGMENT
??_C@_0L@ICKCLMNA@CIRCUMFLEX@ DB 'CIRCUMFLEX', 00H	; `string'
CONST	ENDS
;	COMDAT ??_C@_0N@DJGCIENF@NUMPADEQUALS@
CONST	SEGMENT
??_C@_0N@DJGCIENF@NUMPADEQUALS@ DB 'NUMPADEQUALS', 00H	; `string'
CONST	ENDS
;	COMDAT ??_C@_03HABFENGL@YEN@
CONST	SEGMENT
??_C@_03HABFENGL@YEN@ DB 'YEN', 00H			; `string'
CONST	ENDS
;	COMDAT ??_C@_09BHFIDHCE@NOCONVERT@
CONST	SEGMENT
??_C@_09BHFIDHCE@NOCONVERT@ DB 'NOCONVERT', 00H		; `string'
CONST	ENDS
;	COMDAT ??_C@_07BAKIHLPO@CONVERT@
CONST	SEGMENT
??_C@_07BAKIHLPO@CONVERT@ DB 'CONVERT', 00H		; `string'
CONST	ENDS
;	COMDAT ??_C@_04KGDAIAGM@KANA@
CONST	SEGMENT
??_C@_04KGDAIAGM@KANA@ DB 'KANA', 00H			; `string'
CONST	ENDS
;	COMDAT ??_C@_03OHFMGKBD@F15@
CONST	SEGMENT
??_C@_03OHFMGKBD@F15@ DB 'F15', 00H			; `string'
CONST	ENDS
;	COMDAT ??_C@_03POEHFLFC@F14@
CONST	SEGMENT
??_C@_03POEHFLFC@F14@ DB 'F14', 00H			; `string'
CONST	ENDS
;	COMDAT ??_C@_03LBAGMNJF@F13@
CONST	SEGMENT
??_C@_03LBAGMNJF@F13@ DB 'F13', 00H			; `string'
CONST	ENDS
;	COMDAT ??_C@_03KIBNPMNE@F12@
CONST	SEGMENT
??_C@_03KIBNPMNE@F12@ DB 'F12', 00H			; `string'
CONST	ENDS
;	COMDAT ??_C@_03IDDAKPBH@F11@
CONST	SEGMENT
??_C@_03IDDAKPBH@F11@ DB 'F11', 00H			; `string'
CONST	ENDS
;	COMDAT ??_C@_07LJPMJDLL@DECIMAL@
CONST	SEGMENT
??_C@_07LJPMJDLL@DECIMAL@ DB 'DECIMAL', 00H		; `string'
CONST	ENDS
;	COMDAT ??_C@_07NHIPMMJH@NUMPAD0@
CONST	SEGMENT
??_C@_07NHIPMMJH@NUMPAD0@ DB 'NUMPAD0', 00H		; `string'
CONST	ENDS
;	COMDAT ??_C@_07PMKCJPFE@NUMPAD3@
CONST	SEGMENT
??_C@_07PMKCJPFE@NUMPAD3@ DB 'NUMPAD3', 00H		; `string'
CONST	ENDS
;	COMDAT ??_C@_07OFLJKOBF@NUMPAD2@
CONST	SEGMENT
??_C@_07OFLJKOBF@NUMPAD2@ DB 'NUMPAD2', 00H		; `string'
CONST	ENDS
;	COMDAT ??_C@_07MOJEPNNG@NUMPAD1@
CONST	SEGMENT
??_C@_07MOJEPNNG@NUMPAD1@ DB 'NUMPAD1', 00H		; `string'
CONST	ENDS
;	COMDAT ??_C@_03BOJFLAKG@ADD@
CONST	SEGMENT
??_C@_03BOJFLAKG@ADD@ DB 'ADD', 00H			; `string'
CONST	ENDS
;	COMDAT ??_C@_07IBNFGLBB@NUMPAD6@
CONST	SEGMENT
??_C@_07IBNFGLBB@NUMPAD6@ DB 'NUMPAD6', 00H		; `string'
CONST	ENDS
;	COMDAT ??_C@_07KKPIDINC@NUMPAD5@
CONST	SEGMENT
??_C@_07KKPIDINC@NUMPAD5@ DB 'NUMPAD5', 00H		; `string'
CONST	ENDS
;	COMDAT ??_C@_07LDODAJJD@NUMPAD4@
CONST	SEGMENT
??_C@_07LDODAJJD@NUMPAD4@ DB 'NUMPAD4', 00H		; `string'
CONST	ENDS
;	COMDAT ??_C@_08MGBEENML@SUBTRACT@
CONST	SEGMENT
??_C@_08MGBEENML@SUBTRACT@ DB 'SUBTRACT', 00H		; `string'
CONST	ENDS
;	COMDAT ??_C@_07GENHHNO@NUMPAD9@
CONST	SEGMENT
??_C@_07GENHHNO@NUMPAD9@ DB 'NUMPAD9', 00H		; `string'
CONST	ENDS
;	COMDAT ??_C@_07BPFGEGJP@NUMPAD8@
CONST	SEGMENT
??_C@_07BPFGEGJP@NUMPAD8@ DB 'NUMPAD8', 00H		; `string'
CONST	ENDS
;	COMDAT ??_C@_07JIMOFKFA@NUMPAD7@
CONST	SEGMENT
??_C@_07JIMOFKFA@NUMPAD7@ DB 'NUMPAD7', 00H		; `string'
CONST	ENDS
;	COMDAT ??_C@_06FNIKALAE@SCROLL@
CONST	SEGMENT
??_C@_06FNIKALAE@SCROLL@ DB 'SCROLL', 00H		; `string'
CONST	ENDS
;	COMDAT ??_C@_07FLMEHHJP@NUMLOCK@
CONST	SEGMENT
??_C@_07FLMEHHJP@NUMLOCK@ DB 'NUMLOCK', 00H		; `string'
CONST	ENDS
;	COMDAT ??_C@_03JKCLJOFG@F10@
CONST	SEGMENT
??_C@_03JKCLJOFG@F10@ DB 'F10', 00H			; `string'
CONST	ENDS
;	COMDAT ??_C@_02HKCNFKCF@F9@
CONST	SEGMENT
??_C@_02HKCNFKCF@F9@ DB 'F9', 00H			; `string'
CONST	ENDS
;	COMDAT ??_C@_02GDDGGLGE@F8@
CONST	SEGMENT
??_C@_02GDDGGLGE@F8@ DB 'F8', 00H			; `string'
CONST	ENDS
;	COMDAT ??_C@_02OEKOHHKL@F7@
CONST	SEGMENT
??_C@_02OEKOHHKL@F7@ DB 'F7', 00H			; `string'
CONST	ENDS
;	COMDAT ??_C@_02PNLFEGOK@F6@
CONST	SEGMENT
??_C@_02PNLFEGOK@F6@ DB 'F6', 00H			; `string'
CONST	ENDS
;	COMDAT ??_C@_02NGJIBFCJ@F5@
CONST	SEGMENT
??_C@_02NGJIBFCJ@F5@ DB 'F5', 00H			; `string'
CONST	ENDS
;	COMDAT ??_C@_02MPIDCEGI@F4@
CONST	SEGMENT
??_C@_02MPIDCEGI@F4@ DB 'F4', 00H			; `string'
CONST	ENDS
;	COMDAT ??_C@_02IAMCLCKP@F3@
CONST	SEGMENT
??_C@_02IAMCLCKP@F3@ DB 'F3', 00H			; `string'
CONST	ENDS
;	COMDAT ??_C@_02JJNJIDOO@F2@
CONST	SEGMENT
??_C@_02JJNJIDOO@F2@ DB 'F2', 00H			; `string'
CONST	ENDS
;	COMDAT ??_C@_02LCPENACN@F1@
CONST	SEGMENT
??_C@_02LCPENACN@F1@ DB 'F1', 00H			; `string'
CONST	ENDS
;	COMDAT ??_C@_07OPCFNGJB@CAPITAL@
CONST	SEGMENT
??_C@_07OPCFNGJB@CAPITAL@ DB 'CAPITAL', 00H		; `string'
CONST	ENDS
;	COMDAT ??_C@_05CAEOFMEP@SPACE@
CONST	SEGMENT
??_C@_05CAEOFMEP@SPACE@ DB 'SPACE', 00H			; `string'
CONST	ENDS
;	COMDAT ??_C@_04CACBGOAG@LALT@
CONST	SEGMENT
??_C@_04CACBGOAG@LALT@ DB 'LALT', 00H			; `string'
CONST	ENDS
;	COMDAT ??_C@_08LDEOAAGM@MULTIPLY@
CONST	SEGMENT
??_C@_08LDEOAAGM@MULTIPLY@ DB 'MULTIPLY', 00H		; `string'
CONST	ENDS
;	COMDAT ??_C@_06HIJMMPFL@RSHIFT@
CONST	SEGMENT
??_C@_06HIJMMPFL@RSHIFT@ DB 'RSHIFT', 00H		; `string'
CONST	ENDS
;	COMDAT ??_C@_05CMNGPLPB@SLASH@
CONST	SEGMENT
??_C@_05CMNGPLPB@SLASH@ DB 'SLASH', 00H			; `string'
CONST	ENDS
;	COMDAT ??_C@_06FFMPJJAJ@PERIOD@
CONST	SEGMENT
??_C@_06FFMPJJAJ@PERIOD@ DB 'PERIOD', 00H		; `string'
CONST	ENDS
;	COMDAT ??_C@_05OFAMAJDB@COMMA@
CONST	SEGMENT
??_C@_05OFAMAJDB@COMMA@ DB 'COMMA', 00H			; `string'
CONST	ENDS
;	COMDAT ??_C@_01PLPBNMEI@M@
CONST	SEGMENT
??_C@_01PLPBNMEI@M@ DB 'M', 00H				; `string'
CONST	ENDS
;	COMDAT ??_C@_01NANMIPIL@N@
CONST	SEGMENT
??_C@_01NANMIPIL@N@ DB 'N', 00H				; `string'
CONST	ENDS
;	COMDAT ??_C@_01HMGJMAIH@B@
CONST	SEGMENT
??_C@_01HMGJMAIH@B@ DB 'B', 00H				; `string'
CONST	ENDS
;	COMDAT ??_C@_01FCMHBHNC@V@
CONST	SEGMENT
??_C@_01FCMHBHNC@V@ DB 'V', 00H				; `string'
CONST	ENDS
;	COMDAT ??_C@_01GFHCPBMG@C@
CONST	SEGMENT
??_C@_01GFHCPBMG@C@ DB 'C', 00H				; `string'
CONST	ENDS
;	COMDAT ??_C@_01MMEEDKFM@X@
CONST	SEGMENT
??_C@_01MMEEDKFM@X@ DB 'X', 00H				; `string'
CONST	ENDS
;	COMDAT ??_C@_01POHCFINO@Z@
CONST	SEGMENT
??_C@_01POHCFINO@Z@ DB 'Z', 00H				; `string'
CONST	ENDS
;	COMDAT ??_C@_09MMCGBGHA@BACKSLASH@
CONST	SEGMENT
??_C@_09MMCGBGHA@BACKSLASH@ DB 'BACKSLASH', 00H		; `string'
CONST	ENDS
;	COMDAT ??_C@_06EPHNCIMI@LSHIFT@
CONST	SEGMENT
??_C@_06EPHNCIMI@LSHIFT@ DB 'LSHIFT', 00H		; `string'
CONST	ENDS
;	COMDAT ??_C@_05NICECODJ@GRAVE@
CONST	SEGMENT
??_C@_05NICECODJ@GRAVE@ DB 'GRAVE', 00H			; `string'
CONST	ENDS
;	COMDAT ??_C@_0L@JENNPFNN@APOSTROPHE@
CONST	SEGMENT
??_C@_0L@JENNPFNN@APOSTROPHE@ DB 'APOSTROPHE', 00H	; `string'
CONST	ENDS
;	COMDAT ??_C@_09COMJPDLF@SEMICOLON@
CONST	SEGMENT
??_C@_09COMJPDLF@SEMICOLON@ DB 'SEMICOLON', 00H		; `string'
CONST	ENDS
;	COMDAT ??_C@_01OCOKONAJ@L@
CONST	SEGMENT
??_C@_01OCOKONAJ@L@ DB 'L', 00H				; `string'
CONST	ENDS
;	COMDAT ??_C@_01KNKLHLMO@K@
CONST	SEGMENT
??_C@_01KNKLHLMO@K@ DB 'K', 00H				; `string'
CONST	ENDS
;	COMDAT ??_C@_01LELAEKIP@J@
CONST	SEGMENT
??_C@_01LELAEKIP@J@ DB 'J', 00H				; `string'
CONST	ENDS
;	COMDAT ??_C@_01IGIGCIAN@H@
CONST	SEGMENT
??_C@_01IGIGCIAN@H@ DB 'H', 00H				; `string'
CONST	ENDS
;	COMDAT ??_C@_01BBODEMC@G@
CONST	SEGMENT
??_C@_01BBODEMC@G@ DB 'G', 00H				; `string'
CONST	ENDS
;	COMDAT ??_C@_01BIAFAFID@F@
CONST	SEGMENT
??_C@_01BIAFAFID@F@ DB 'F', 00H				; `string'
CONST	ENDS
;	COMDAT ??_C@_01CKDDGHAB@D@
CONST	SEGMENT
??_C@_01CKDDGHAB@D@ DB 'D', 00H				; `string'
CONST	ENDS
;	COMDAT ??_C@_01CPLAODJH@S@
CONST	SEGMENT
??_C@_01CPLAODJH@S@ DB 'S', 00H				; `string'
CONST	ENDS
;	COMDAT ??_C@_01FHEEJDEE@A@
CONST	SEGMENT
??_C@_01FHEEJDEE@A@ DB 'A', 00H				; `string'
CONST	ENDS
;	COMDAT ??_C@_08IKMONEBG@LCONTROL@
CONST	SEGMENT
??_C@_08IKMONEBG@LCONTROL@ DB 'LCONTROL', 00H		; `string'
CONST	ENDS
;	COMDAT ??_C@_06LJMOENAO@RETURN@
CONST	SEGMENT
??_C@_06LJMOENAO@RETURN@ DB 'RETURN', 00H		; `string'
CONST	ENDS
;	COMDAT ??_C@_08KFGEEMLI@RBRACKET@
CONST	SEGMENT
??_C@_08KFGEEMLI@RBRACKET@ DB 'RBRACKET', 00H		; `string'
CONST	ENDS
;	COMDAT ??_C@_08MBGGNFFL@LBRACKET@
CONST	SEGMENT
??_C@_08MBGGNFFL@LBRACKET@ DB 'LBRACKET', 00H		; `string'
CONST	ENDS
;	COMDAT ??_C@_01EJNLAFE@P@
CONST	SEGMENT
??_C@_01EJNLAFE@P@ DB 'P', 00H				; `string'
CONST	ENDS
;	COMDAT ??_C@_01MJMHLOMK@O@
CONST	SEGMENT
??_C@_01MJMHLOMK@O@ DB 'O', 00H				; `string'
CONST	ENDS
;	COMDAT ??_C@_01JPJNBJEM@I@
CONST	SEGMENT
??_C@_01JPJNBJEM@I@ DB 'I', 00H				; `string'
CONST	ENDS
;	COMDAT ??_C@_01HJOKEEBB@U@
CONST	SEGMENT
??_C@_01HJOKEEBB@U@ DB 'U', 00H				; `string'
CONST	ENDS
;	COMDAT ??_C@_01NFFPALBN@Y@
CONST	SEGMENT
??_C@_01NFFPALBN@Y@ DB 'Y', 00H				; `string'
CONST	ENDS
;	COMDAT ??_C@_01GAPBHFFA@T@
CONST	SEGMENT
??_C@_01GAPBHFFA@T@ DB 'T', 00H				; `string'
CONST	ENDS
;	COMDAT ??_C@_01DGKLNCNG@R@
CONST	SEGMENT
??_C@_01DGKLNCNG@R@ DB 'R', 00H				; `string'
CONST	ENDS
;	COMDAT ??_C@_01DDCIFGEA@E@
CONST	SEGMENT
??_C@_01DDCIFGEA@E@ DB 'E', 00H				; `string'
CONST	ENDS
;	COMDAT ??_C@_01ELNMCGJD@W@
CONST	SEGMENT
??_C@_01ELNMCGJD@W@ DB 'W', 00H				; `string'
CONST	ENDS
;	COMDAT ??_C@_01BNIGIBBF@Q@
CONST	SEGMENT
??_C@_01BNIGIBBF@Q@ DB 'Q', 00H				; `string'
CONST	ENDS
;	COMDAT ??_C@_03CJMDHCGG@TAB@
CONST	SEGMENT
??_C@_03CJMDHCGG@TAB@ DB 'TAB', 00H			; `string'
CONST	ENDS
;	COMDAT ??_C@_04FJBHJJME@BACK@
CONST	SEGMENT
??_C@_04FJBHJJME@BACK@ DB 'BACK', 00H			; `string'
CONST	ENDS
;	COMDAT ??_C@_06IIDPKENN@EQUALS@
CONST	SEGMENT
??_C@_06IIDPKENN@EQUALS@ DB 'EQUALS', 00H		; `string'
CONST	ENDS
;	COMDAT ??_C@_05CIDCLABE@MINUS@
CONST	SEGMENT
??_C@_05CIDCLABE@MINUS@ DB 'MINUS', 00H			; `string'
CONST	ENDS
;	COMDAT ??_C@_01GBGANLPD@0@
CONST	SEGMENT
??_C@_01GBGANLPD@0@ DB '0', 00H				; `string'
CONST	ENDS
;	COMDAT ??_C@_01LAKCGALK@9@
CONST	SEGMENT
??_C@_01LAKCGALK@9@ DB '9', 00H				; `string'
CONST	ENDS
;	COMDAT ??_C@_01KJLJFBPL@8@
CONST	SEGMENT
??_C@_01KJLJFBPL@8@ DB '8', 00H				; `string'
CONST	ENDS
;	COMDAT ??_C@_01COCBENDE@7@
CONST	SEGMENT
??_C@_01COCBENDE@7@ DB '7', 00H				; `string'
CONST	ENDS
;	COMDAT ??_C@_01DHDKHMHF@6@
CONST	SEGMENT
??_C@_01DHDKHMHF@6@ DB '6', 00H				; `string'
CONST	ENDS
;	COMDAT ??_C@_01BMBHCPLG@5@
CONST	SEGMENT
??_C@_01BMBHCPLG@5@ DB '5', 00H				; `string'
CONST	ENDS
;	COMDAT ??_C@_01FAMBOPH@4@
CONST	SEGMENT
??_C@_01FAMBOPH@4@ DB '4', 00H				; `string'
CONST	ENDS
;	COMDAT ??_C@_01EKENIIDA@3@
CONST	SEGMENT
??_C@_01EKENIIDA@3@ DB '3', 00H				; `string'
CONST	ENDS
;	COMDAT ??_C@_01FDFGLJHB@2@
CONST	SEGMENT
??_C@_01FDFGLJHB@2@ DB '2', 00H				; `string'
CONST	ENDS
;	COMDAT ??_C@_01HIHLOKLC@1@
CONST	SEGMENT
??_C@_01HIHLOKLC@1@ DB '1', 00H				; `string'
CONST	ENDS
;	COMDAT ??_C@_06CDPDIIDH@ESCAPE@
CONST	SEGMENT
??_C@_06CDPDIIDH@ESCAPE@ DB 'ESCAPE', 00H		; `string'
CONST	ENDS
;	COMDAT ??_C@_04OKGDLNCL@NONE@
CONST	SEGMENT
??_C@_04OKGDLNCL@NONE@ DB 'NONE', 00H			; `string'
CONST	ENDS
_DATA	SEGMENT
?dik_names@@3PAPBDA DD FLAT:??_C@_04OKGDLNCL@NONE@	; dik_names
	DD	FLAT:??_C@_06CDPDIIDH@ESCAPE@
	DD	FLAT:??_C@_01HIHLOKLC@1@
	DD	FLAT:??_C@_01FDFGLJHB@2@
	DD	FLAT:??_C@_01EKENIIDA@3@
	DD	FLAT:??_C@_01FAMBOPH@4@
	DD	FLAT:??_C@_01BMBHCPLG@5@
	DD	FLAT:??_C@_01DHDKHMHF@6@
	DD	FLAT:??_C@_01COCBENDE@7@
	DD	FLAT:??_C@_01KJLJFBPL@8@
	DD	FLAT:??_C@_01LAKCGALK@9@
	DD	FLAT:??_C@_01GBGANLPD@0@
	DD	FLAT:??_C@_05CIDCLABE@MINUS@
	DD	FLAT:??_C@_06IIDPKENN@EQUALS@
	DD	FLAT:??_C@_04FJBHJJME@BACK@
	DD	FLAT:??_C@_03CJMDHCGG@TAB@
	DD	FLAT:??_C@_01BNIGIBBF@Q@
	DD	FLAT:??_C@_01ELNMCGJD@W@
	DD	FLAT:??_C@_01DDCIFGEA@E@
	DD	FLAT:??_C@_01DGKLNCNG@R@
	DD	FLAT:??_C@_01GAPBHFFA@T@
	DD	FLAT:??_C@_01NFFPALBN@Y@
	DD	FLAT:??_C@_01HJOKEEBB@U@
	DD	FLAT:??_C@_01JPJNBJEM@I@
	DD	FLAT:??_C@_01MJMHLOMK@O@
	DD	FLAT:??_C@_01EJNLAFE@P@
	DD	FLAT:??_C@_08MBGGNFFL@LBRACKET@
	DD	FLAT:??_C@_08KFGEEMLI@RBRACKET@
	DD	FLAT:??_C@_06LJMOENAO@RETURN@
	DD	FLAT:??_C@_08IKMONEBG@LCONTROL@
	DD	FLAT:??_C@_01FHEEJDEE@A@
	DD	FLAT:??_C@_01CPLAODJH@S@
	DD	FLAT:??_C@_01CKDDGHAB@D@
	DD	FLAT:??_C@_01BIAFAFID@F@
	DD	FLAT:??_C@_01BBODEMC@G@
	DD	FLAT:??_C@_01IGIGCIAN@H@
	DD	FLAT:??_C@_01LELAEKIP@J@
	DD	FLAT:??_C@_01KNKLHLMO@K@
	DD	FLAT:??_C@_01OCOKONAJ@L@
	DD	FLAT:??_C@_09COMJPDLF@SEMICOLON@
	DD	FLAT:??_C@_0L@JENNPFNN@APOSTROPHE@
	DD	FLAT:??_C@_05NICECODJ@GRAVE@
	DD	FLAT:??_C@_06EPHNCIMI@LSHIFT@
	DD	FLAT:??_C@_09MMCGBGHA@BACKSLASH@
	DD	FLAT:??_C@_01POHCFINO@Z@
	DD	FLAT:??_C@_01MMEEDKFM@X@
	DD	FLAT:??_C@_01GFHCPBMG@C@
	DD	FLAT:??_C@_01FCMHBHNC@V@
	DD	FLAT:??_C@_01HMGJMAIH@B@
	DD	FLAT:??_C@_01NANMIPIL@N@
	DD	FLAT:??_C@_01PLPBNMEI@M@
	DD	FLAT:??_C@_05OFAMAJDB@COMMA@
	DD	FLAT:??_C@_06FFMPJJAJ@PERIOD@
	DD	FLAT:??_C@_05CMNGPLPB@SLASH@
	DD	FLAT:??_C@_06HIJMMPFL@RSHIFT@
	DD	FLAT:??_C@_08LDEOAAGM@MULTIPLY@
	DD	FLAT:??_C@_04CACBGOAG@LALT@
	DD	FLAT:??_C@_05CAEOFMEP@SPACE@
	DD	FLAT:??_C@_07OPCFNGJB@CAPITAL@
	DD	FLAT:??_C@_02LCPENACN@F1@
	DD	FLAT:??_C@_02JJNJIDOO@F2@
	DD	FLAT:??_C@_02IAMCLCKP@F3@
	DD	FLAT:??_C@_02MPIDCEGI@F4@
	DD	FLAT:??_C@_02NGJIBFCJ@F5@
	DD	FLAT:??_C@_02PNLFEGOK@F6@
	DD	FLAT:??_C@_02OEKOHHKL@F7@
	DD	FLAT:??_C@_02GDDGGLGE@F8@
	DD	FLAT:??_C@_02HKCNFKCF@F9@
	DD	FLAT:??_C@_03JKCLJOFG@F10@
	DD	FLAT:??_C@_07FLMEHHJP@NUMLOCK@
	DD	FLAT:??_C@_06FNIKALAE@SCROLL@
	DD	FLAT:??_C@_07JIMOFKFA@NUMPAD7@
	DD	FLAT:??_C@_07BPFGEGJP@NUMPAD8@
	DD	FLAT:??_C@_07GENHHNO@NUMPAD9@
	DD	FLAT:??_C@_08MGBEENML@SUBTRACT@
	DD	FLAT:??_C@_07LDODAJJD@NUMPAD4@
	DD	FLAT:??_C@_07KKPIDINC@NUMPAD5@
	DD	FLAT:??_C@_07IBNFGLBB@NUMPAD6@
	DD	FLAT:??_C@_03BOJFLAKG@ADD@
	DD	FLAT:??_C@_07MOJEPNNG@NUMPAD1@
	DD	FLAT:??_C@_07OFLJKOBF@NUMPAD2@
	DD	FLAT:??_C@_07PMKCJPFE@NUMPAD3@
	DD	FLAT:??_C@_07NHIPMMJH@NUMPAD0@
	DD	FLAT:??_C@_07LJPMJDLL@DECIMAL@
	DD	FLAT:??_C@_03IDDAKPBH@F11@
	DD	FLAT:??_C@_03KIBNPMNE@F12@
	DD	FLAT:??_C@_03LBAGMNJF@F13@
	DD	FLAT:??_C@_03POEHFLFC@F14@
	DD	FLAT:??_C@_03OHFMGKBD@F15@
	DD	FLAT:??_C@_04KGDAIAGM@KANA@
	DD	FLAT:??_C@_07BAKIHLPO@CONVERT@
	DD	FLAT:??_C@_09BHFIDHCE@NOCONVERT@
	DD	FLAT:??_C@_03HABFENGL@YEN@
	DD	FLAT:??_C@_0N@DJGCIENF@NUMPADEQUALS@
	DD	FLAT:??_C@_0L@ICKCLMNA@CIRCUMFLEX@
	DD	FLAT:??_C@_02KPDBFJEK@AT@
	DD	FLAT:??_C@_05NJKMKGPF@COLON@
	DD	FLAT:??_C@_09CDKPIEFA@UNDERLINE@
	DD	FLAT:??_C@_05GJEMAGFO@KANJI@
	DD	FLAT:??_C@_04MDHMLCKF@STOP@
	DD	FLAT:??_C@_02DIEBGEG@AX@
	DD	FLAT:??_C@_09CIFDPFIO@UNLABELED@
	DD	FLAT:??_C@_0M@BKBBOHJI@NUMPADENTER@
	DD	FLAT:??_C@_08OOMMENPF@RCONTROL@
	DD	FLAT:??_C@_0M@LDMFCFAK@NUMPADCOMMA@
	DD	FLAT:??_C@_06FBFCJJMP@DIVIDE@
	DD	FLAT:??_C@_05OEAELPDI@SYSRQ@
	DD	FLAT:??_C@_04PPPBEHOF@RALT@
	DD	FLAT:??_C@_04GHGFPGNC@HOME@
	DD	FLAT:??_C@_02NAHCJHOC@UP@
	DD	FLAT:??_C@_04NHMBBGKC@PGUP@
	DD	FLAT:??_C@_04KCNEHMIH@LEFT@
	DD	FLAT:??_C@_05PMAFOJDE@RIGHT@
	DD	FLAT:??_C@_03JMGAKCCH@END@
	DD	FLAT:??_C@_04FANAOELO@DOWN@
	DD	FLAT:??_C@_04BOGEOADK@PGDN@
	DD	FLAT:??_C@_06OEMEAEKN@INSERT@
	DD	FLAT:??_C@_06FKDAMKFP@DELETE@
	DD	FLAT:??_C@_04ODLFFOHF@LWIN@
	DD	FLAT:??_C@_04DMGFHHJG@RWIN@
	DD	FLAT:??_C@_04GKGJFGJO@APPS@
_DATA	ENDS
PUBLIC	?initialise_dinput_to_ascii_conversion_table@@YGXXZ ; initialise_dinput_to_ascii_conversion_table
PUBLIC	?initialise_utf8_conversion_table@@YGXXZ	; initialise_utf8_conversion_table
PUBLIC	?dinput_to_ascii@@YGDH@Z			; dinput_to_ascii
PUBLIC	?dinput_to_upper_ascii@@YGDH@Z			; dinput_to_upper_ascii
PUBLIC	?ascii_to_dinput@@YGHH@Z			; ascii_to_dinput
PUBLIC	?latin1_to_utf8@@YGXPBDPADIH@Z			; latin1_to_utf8
; Function compile flags: /Odtp /ZI
; File c:\users\nhv90\projects\eech\modules\system\ascii.c
;	COMDAT ?latin1_to_utf8@@YGXPBDPADIH@Z
_TEXT	SEGMENT
_out$ = -8						; size = 4
_tmp$ = -4						; size = 4
_latin1_text$ = 8					; size = 4
_result$ = 12						; size = 4
_result_len$ = 16					; size = 4
_escape_tacview_control_chars$ = 20			; size = 4
?latin1_to_utf8@@YGXPBDPADIH@Z PROC			; latin1_to_utf8, COMDAT

; 461  : {

  00000	55		 push	 ebp
  00001	8b ec		 mov	 ebp, esp
  00003	83 ec 48	 sub	 esp, 72			; 00000048H
  00006	53		 push	 ebx
  00007	56		 push	 esi
  00008	57		 push	 edi

; 462  : 	const char* tmp = latin1_text;

  00009	8b 45 08	 mov	 eax, DWORD PTR _latin1_text$[ebp]
  0000c	89 45 fc	 mov	 DWORD PTR _tmp$[ebp], eax

; 463  : 	char* out = result;

  0000f	8b 45 0c	 mov	 eax, DWORD PTR _result$[ebp]
  00012	89 45 f8	 mov	 DWORD PTR _out$[ebp], eax

; 464  : 
; 465  : 	for (tmp = latin1_text; *tmp && ((out - result) < ((int)result_len - 2)); tmp++)

  00015	8b 45 08	 mov	 eax, DWORD PTR _latin1_text$[ebp]
  00018	89 45 fc	 mov	 DWORD PTR _tmp$[ebp], eax
  0001b	eb 09		 jmp	 SHORT $LN4@latin1_to_
$LN2@latin1_to_:
  0001d	8b 45 fc	 mov	 eax, DWORD PTR _tmp$[ebp]
  00020	83 c0 01	 add	 eax, 1
  00023	89 45 fc	 mov	 DWORD PTR _tmp$[ebp], eax
$LN4@latin1_to_:
  00026	8b 45 fc	 mov	 eax, DWORD PTR _tmp$[ebp]
  00029	0f b6 08	 movzx	 ecx, BYTE PTR [eax]
  0002c	85 c9		 test	 ecx, ecx
  0002e	0f 84 cd 00 00
	00		 je	 $LN3@latin1_to_
  00034	8b 45 f8	 mov	 eax, DWORD PTR _out$[ebp]
  00037	2b 45 0c	 sub	 eax, DWORD PTR _result$[ebp]
  0003a	8b 4d 10	 mov	 ecx, DWORD PTR _result_len$[ebp]
  0003d	83 e9 02	 sub	 ecx, 2
  00040	3b c1		 cmp	 eax, ecx
  00042	0f 8d b9 00 00
	00		 jge	 $LN3@latin1_to_

; 466  : 	{
; 467  : 		if (escape_tacview_control_chars && (*tmp == '=' || *tmp == ',' || *tmp == '\n'))

  00048	83 7d 14 00	 cmp	 DWORD PTR _escape_tacview_control_chars$[ebp], 0
  0004c	74 45		 je	 SHORT $LN5@latin1_to_
  0004e	8b 45 fc	 mov	 eax, DWORD PTR _tmp$[ebp]
  00051	0f b6 08	 movzx	 ecx, BYTE PTR [eax]
  00054	83 f9 3d	 cmp	 ecx, 61			; 0000003dH
  00057	74 16		 je	 SHORT $LN7@latin1_to_
  00059	8b 45 fc	 mov	 eax, DWORD PTR _tmp$[ebp]
  0005c	0f b6 08	 movzx	 ecx, BYTE PTR [eax]
  0005f	83 f9 2c	 cmp	 ecx, 44			; 0000002cH
  00062	74 0b		 je	 SHORT $LN7@latin1_to_
  00064	8b 45 fc	 mov	 eax, DWORD PTR _tmp$[ebp]
  00067	0f b6 08	 movzx	 ecx, BYTE PTR [eax]
  0006a	83 f9 0a	 cmp	 ecx, 10			; 0000000aH
  0006d	75 24		 jne	 SHORT $LN5@latin1_to_
$LN7@latin1_to_:

; 468  : 		{
; 469  : 			*out++ = '\\';

  0006f	8b 45 f8	 mov	 eax, DWORD PTR _out$[ebp]
  00072	c6 00 5c	 mov	 BYTE PTR [eax], 92	; 0000005cH
  00075	8b 4d f8	 mov	 ecx, DWORD PTR _out$[ebp]
  00078	83 c1 01	 add	 ecx, 1
  0007b	89 4d f8	 mov	 DWORD PTR _out$[ebp], ecx

; 470  : 			*out++ = *tmp;

  0007e	8b 45 f8	 mov	 eax, DWORD PTR _out$[ebp]
  00081	8b 4d fc	 mov	 ecx, DWORD PTR _tmp$[ebp]
  00084	8a 11		 mov	 dl, BYTE PTR [ecx]
  00086	88 10		 mov	 BYTE PTR [eax], dl
  00088	8b 45 f8	 mov	 eax, DWORD PTR _out$[ebp]
  0008b	83 c0 01	 add	 eax, 1
  0008e	89 45 f8	 mov	 DWORD PTR _out$[ebp], eax
  00091	eb 69		 jmp	 SHORT $LN6@latin1_to_
$LN5@latin1_to_:

; 471  : 		}
; 472  : 		else if (*tmp < utf8_start)

  00093	8b 45 fc	 mov	 eax, DWORD PTR _tmp$[ebp]
  00096	0f b6 08	 movzx	 ecx, BYTE PTR [eax]
  00099	81 f9 a1 00 00
	00		 cmp	 ecx, 161		; 000000a1H
  0009f	7d 15		 jge	 SHORT $LN8@latin1_to_

; 473  : 			*out++ = *tmp;

  000a1	8b 45 f8	 mov	 eax, DWORD PTR _out$[ebp]
  000a4	8b 4d fc	 mov	 ecx, DWORD PTR _tmp$[ebp]
  000a7	8a 11		 mov	 dl, BYTE PTR [ecx]
  000a9	88 10		 mov	 BYTE PTR [eax], dl
  000ab	8b 45 f8	 mov	 eax, DWORD PTR _out$[ebp]
  000ae	83 c0 01	 add	 eax, 1
  000b1	89 45 f8	 mov	 DWORD PTR _out$[ebp], eax

; 474  : 		else

  000b4	eb 46		 jmp	 SHORT $LN6@latin1_to_
$LN8@latin1_to_:

; 475  : 		{
; 476  : 			*out++ = conversion_table[*tmp - utf8_start].utf8[0];

  000b6	8b 45 fc	 mov	 eax, DWORD PTR _tmp$[ebp]
  000b9	0f b6 08	 movzx	 ecx, BYTE PTR [eax]
  000bc	ba 01 00 00 00	 mov	 edx, 1
  000c1	6b c2 00	 imul	 eax, edx, 0
  000c4	8b 55 f8	 mov	 edx, DWORD PTR _out$[ebp]
  000c7	8a 84 48 be fe
	ff ff		 mov	 al, BYTE PTR ?conversion_table@@3PAUutf8_conversion@@A[eax+ecx*2-322]
  000ce	88 02		 mov	 BYTE PTR [edx], al
  000d0	8b 4d f8	 mov	 ecx, DWORD PTR _out$[ebp]
  000d3	83 c1 01	 add	 ecx, 1
  000d6	89 4d f8	 mov	 DWORD PTR _out$[ebp], ecx

; 477  : 			*out++ = conversion_table[*tmp - utf8_start].utf8[1];

  000d9	8b 45 fc	 mov	 eax, DWORD PTR _tmp$[ebp]
  000dc	0f b6 08	 movzx	 ecx, BYTE PTR [eax]
  000df	ba 01 00 00 00	 mov	 edx, 1
  000e4	c1 e2 00	 shl	 edx, 0
  000e7	8b 45 f8	 mov	 eax, DWORD PTR _out$[ebp]
  000ea	8a 8c 4a be fe
	ff ff		 mov	 cl, BYTE PTR ?conversion_table@@3PAUutf8_conversion@@A[edx+ecx*2-322]
  000f1	88 08		 mov	 BYTE PTR [eax], cl
  000f3	8b 55 f8	 mov	 edx, DWORD PTR _out$[ebp]
  000f6	83 c2 01	 add	 edx, 1
  000f9	89 55 f8	 mov	 DWORD PTR _out$[ebp], edx
$LN6@latin1_to_:

; 478  : 		}
; 479  : 	}

  000fc	e9 1c ff ff ff	 jmp	 $LN2@latin1_to_
$LN3@latin1_to_:

; 480  : 
; 481  : 	*out = '\0';

  00101	8b 45 f8	 mov	 eax, DWORD PTR _out$[ebp]
  00104	c6 00 00	 mov	 BYTE PTR [eax], 0

; 482  : }

  00107	5f		 pop	 edi
  00108	5e		 pop	 esi
  00109	5b		 pop	 ebx
  0010a	8b e5		 mov	 esp, ebp
  0010c	5d		 pop	 ebp
  0010d	c2 10 00	 ret	 16			; 00000010H
?latin1_to_utf8@@YGXPBDPADIH@Z ENDP			; latin1_to_utf8
_TEXT	ENDS
; Function compile flags: /Odtp /ZI
; File c:\users\nhv90\projects\eech\modules\system\ascii.c
;	COMDAT ?ascii_to_dinput@@YGHH@Z
_TEXT	SEGMENT
_loop$ = -4						; size = 4
_ascii_code$ = 8					; size = 4
?ascii_to_dinput@@YGHH@Z PROC				; ascii_to_dinput, COMDAT

; 281  : {

  00000	55		 push	 ebp
  00001	8b ec		 mov	 ebp, esp
  00003	83 ec 44	 sub	 esp, 68			; 00000044H
  00006	53		 push	 ebx
  00007	56		 push	 esi
  00008	57		 push	 edi

; 282  : 
; 283  : 	int
; 284  : 		loop;
; 285  : 
; 286  : 	for (loop = 0; loop < sizeof (dinput_to_ascii_table); loop ++)

  00009	c7 45 fc 00 00
	00 00		 mov	 DWORD PTR _loop$[ebp], 0
  00010	eb 09		 jmp	 SHORT $LN4@ascii_to_d
$LN2@ascii_to_d:
  00012	8b 45 fc	 mov	 eax, DWORD PTR _loop$[ebp]
  00015	83 c0 01	 add	 eax, 1
  00018	89 45 fc	 mov	 DWORD PTR _loop$[ebp], eax
$LN4@ascii_to_d:
  0001b	81 7d fc 00 01
	00 00		 cmp	 DWORD PTR _loop$[ebp], 256 ; 00000100H
  00022	73 16		 jae	 SHORT $LN3@ascii_to_d

; 287  : 	{
; 288  : 
; 289  : 		if (dinput_to_ascii_table [loop] == ascii_code)

  00024	8b 45 fc	 mov	 eax, DWORD PTR _loop$[ebp]
  00027	0f b6 88 00 00
	00 00		 movzx	 ecx, BYTE PTR ?dinput_to_ascii_table@@3PADA[eax]
  0002e	3b 4d 08	 cmp	 ecx, DWORD PTR _ascii_code$[ebp]
  00031	75 05		 jne	 SHORT $LN5@ascii_to_d

; 290  : 		{
; 291  : 
; 292  : 			return loop;

  00033	8b 45 fc	 mov	 eax, DWORD PTR _loop$[ebp]
  00036	eb 04		 jmp	 SHORT $LN1@ascii_to_d
$LN5@ascii_to_d:

; 293  : 		}
; 294  : 	}

  00038	eb d8		 jmp	 SHORT $LN2@ascii_to_d
$LN3@ascii_to_d:

; 295  : 
; 296  : 	return 0;

  0003a	33 c0		 xor	 eax, eax
$LN1@ascii_to_d:

; 297  : }

  0003c	5f		 pop	 edi
  0003d	5e		 pop	 esi
  0003e	5b		 pop	 ebx
  0003f	8b e5		 mov	 esp, ebp
  00041	5d		 pop	 ebp
  00042	c2 04 00	 ret	 4
?ascii_to_dinput@@YGHH@Z ENDP				; ascii_to_dinput
_TEXT	ENDS
; Function compile flags: /Odtp /ZI
; File c:\users\nhv90\projects\eech\modules\system\ascii.c
;	COMDAT ?dinput_to_upper_ascii@@YGDH@Z
_TEXT	SEGMENT
_dinput_code$ = 8					; size = 4
?dinput_to_upper_ascii@@YGDH@Z PROC			; dinput_to_upper_ascii, COMDAT

; 271  : {

  00000	55		 push	 ebp
  00001	8b ec		 mov	 ebp, esp
  00003	83 ec 40	 sub	 esp, 64			; 00000040H
  00006	53		 push	 ebx
  00007	56		 push	 esi
  00008	57		 push	 edi

; 272  : 
; 273  : 	return dinput_to_ascii_upper_table [dinput_code];

  00009	8b 45 08	 mov	 eax, DWORD PTR _dinput_code$[ebp]
  0000c	8a 80 00 00 00
	00		 mov	 al, BYTE PTR ?dinput_to_ascii_upper_table@@3PADA[eax]

; 274  : }

  00012	5f		 pop	 edi
  00013	5e		 pop	 esi
  00014	5b		 pop	 ebx
  00015	8b e5		 mov	 esp, ebp
  00017	5d		 pop	 ebp
  00018	c2 04 00	 ret	 4
?dinput_to_upper_ascii@@YGDH@Z ENDP			; dinput_to_upper_ascii
_TEXT	ENDS
; Function compile flags: /Odtp /ZI
; File c:\users\nhv90\projects\eech\modules\system\ascii.c
;	COMDAT ?dinput_to_ascii@@YGDH@Z
_TEXT	SEGMENT
_dinput_code$ = 8					; size = 4
?dinput_to_ascii@@YGDH@Z PROC				; dinput_to_ascii, COMDAT

; 261  : {

  00000	55		 push	 ebp
  00001	8b ec		 mov	 ebp, esp
  00003	83 ec 40	 sub	 esp, 64			; 00000040H
  00006	53		 push	 ebx
  00007	56		 push	 esi
  00008	57		 push	 edi

; 262  : 
; 263  : 	return dinput_to_ascii_table [dinput_code];

  00009	8b 45 08	 mov	 eax, DWORD PTR _dinput_code$[ebp]
  0000c	8a 80 00 00 00
	00		 mov	 al, BYTE PTR ?dinput_to_ascii_table@@3PADA[eax]

; 264  : }

  00012	5f		 pop	 edi
  00013	5e		 pop	 esi
  00014	5b		 pop	 ebx
  00015	8b e5		 mov	 esp, ebp
  00017	5d		 pop	 ebp
  00018	c2 04 00	 ret	 4
?dinput_to_ascii@@YGDH@Z ENDP				; dinput_to_ascii
_TEXT	ENDS
; Function compile flags: /Odtp /ZI
; File c:\users\nhv90\projects\eech\modules\system\ascii.c
;	COMDAT ?initialise_utf8_conversion_table@@YGXXZ
_TEXT	SEGMENT
_chr$ = -4						; size = 4
?initialise_utf8_conversion_table@@YGXXZ PROC		; initialise_utf8_conversion_table, COMDAT

; 444  : {

  00000	55		 push	 ebp
  00001	8b ec		 mov	 ebp, esp
  00003	83 ec 44	 sub	 esp, 68			; 00000044H
  00006	53		 push	 ebx
  00007	56		 push	 esi
  00008	57		 push	 edi

; 445  : 	int chr;
; 446  : 
; 447  : 	for (chr = utf8_start; chr <= 191; chr++)

  00009	c7 45 fc a1 00
	00 00		 mov	 DWORD PTR _chr$[ebp], 161 ; 000000a1H
  00010	eb 09		 jmp	 SHORT $LN4@initialise
$LN2@initialise:
  00012	8b 45 fc	 mov	 eax, DWORD PTR _chr$[ebp]
  00015	83 c0 01	 add	 eax, 1
  00018	89 45 fc	 mov	 DWORD PTR _chr$[ebp], eax
$LN4@initialise:
  0001b	81 7d fc bf 00
	00 00		 cmp	 DWORD PTR _chr$[ebp], 191 ; 000000bfH
  00022	7f 2a		 jg	 SHORT $LN3@initialise

; 448  : 	{
; 449  : 		conversion_table[chr - utf8_start].utf8[0] = 0xc2;

  00024	b8 01 00 00 00	 mov	 eax, 1
  00029	6b c8 00	 imul	 ecx, eax, 0
  0002c	8b 55 fc	 mov	 edx, DWORD PTR _chr$[ebp]
  0002f	c6 84 51 be fe
	ff ff c2	 mov	 BYTE PTR ?conversion_table@@3PAUutf8_conversion@@A[ecx+edx*2-322], 194 ; 000000c2H

; 450  : 		conversion_table[chr - utf8_start].utf8[1] = 0xa1 + (chr-utf8_start);

  00037	8b 45 fc	 mov	 eax, DWORD PTR _chr$[ebp]
  0003a	b9 01 00 00 00	 mov	 ecx, 1
  0003f	c1 e1 00	 shl	 ecx, 0
  00042	8b 55 fc	 mov	 edx, DWORD PTR _chr$[ebp]
  00045	88 84 51 be fe
	ff ff		 mov	 BYTE PTR ?conversion_table@@3PAUutf8_conversion@@A[ecx+edx*2-322], al

; 451  : 	}

  0004c	eb c4		 jmp	 SHORT $LN2@initialise
$LN3@initialise:

; 452  : 
; 453  : 	for (chr = 192; chr <= 255; chr++)

  0004e	c7 45 fc c0 00
	00 00		 mov	 DWORD PTR _chr$[ebp], 192 ; 000000c0H
  00055	eb 09		 jmp	 SHORT $LN7@initialise
$LN5@initialise:
  00057	8b 45 fc	 mov	 eax, DWORD PTR _chr$[ebp]
  0005a	83 c0 01	 add	 eax, 1
  0005d	89 45 fc	 mov	 DWORD PTR _chr$[ebp], eax
$LN7@initialise:
  00060	81 7d fc ff 00
	00 00		 cmp	 DWORD PTR _chr$[ebp], 255 ; 000000ffH
  00067	7f 2d		 jg	 SHORT $LN1@initialise

; 454  : 	{
; 455  : 		conversion_table[chr - utf8_start].utf8[0] = 0xc3;

  00069	b8 01 00 00 00	 mov	 eax, 1
  0006e	6b c8 00	 imul	 ecx, eax, 0
  00071	8b 55 fc	 mov	 edx, DWORD PTR _chr$[ebp]
  00074	c6 84 51 be fe
	ff ff c3	 mov	 BYTE PTR ?conversion_table@@3PAUutf8_conversion@@A[ecx+edx*2-322], 195 ; 000000c3H

; 456  : 		conversion_table[chr - utf8_start].utf8[1] = 0x80 + (chr-192);

  0007c	8b 45 fc	 mov	 eax, DWORD PTR _chr$[ebp]
  0007f	83 e8 40	 sub	 eax, 64			; 00000040H
  00082	b9 01 00 00 00	 mov	 ecx, 1
  00087	c1 e1 00	 shl	 ecx, 0
  0008a	8b 55 fc	 mov	 edx, DWORD PTR _chr$[ebp]
  0008d	88 84 51 be fe
	ff ff		 mov	 BYTE PTR ?conversion_table@@3PAUutf8_conversion@@A[ecx+edx*2-322], al

; 457  : 	}

  00094	eb c1		 jmp	 SHORT $LN5@initialise
$LN1@initialise:

; 458  : }

  00096	5f		 pop	 edi
  00097	5e		 pop	 esi
  00098	5b		 pop	 ebx
  00099	8b e5		 mov	 esp, ebp
  0009b	5d		 pop	 ebp
  0009c	c3		 ret	 0
?initialise_utf8_conversion_table@@YGXXZ ENDP		; initialise_utf8_conversion_table
_TEXT	ENDS
; Function compile flags: /Odtp /ZI
; File c:\users\nhv90\projects\eech\modules\system\ascii.c
;	COMDAT ?initialise_dinput_to_ascii_conversion_table@@YGXXZ
_TEXT	SEGMENT
_loop$ = -4						; size = 4
?initialise_dinput_to_ascii_conversion_table@@YGXXZ PROC ; initialise_dinput_to_ascii_conversion_table, COMDAT

; 82   : {

  00000	55		 push	 ebp
  00001	8b ec		 mov	 ebp, esp
  00003	83 ec 44	 sub	 esp, 68			; 00000044H
  00006	53		 push	 ebx
  00007	56		 push	 esi
  00008	57		 push	 edi

; 83   : 
; 84   : 	int
; 85   : 		loop;
; 86   : 
; 87   : 	//
; 88   : 	// Lowercase characters
; 89   : 	//
; 90   : 
; 91   : 	for (loop = 0; loop < sizeof (dinput_to_ascii_table); loop ++)

  00009	c7 45 fc 00 00
	00 00		 mov	 DWORD PTR _loop$[ebp], 0
  00010	eb 09		 jmp	 SHORT $LN4@initialise
$LN2@initialise:
  00012	8b 45 fc	 mov	 eax, DWORD PTR _loop$[ebp]
  00015	83 c0 01	 add	 eax, 1
  00018	89 45 fc	 mov	 DWORD PTR _loop$[ebp], eax
$LN4@initialise:
  0001b	81 7d fc 00 01
	00 00		 cmp	 DWORD PTR _loop$[ebp], 256 ; 00000100H
  00022	73 0e		 jae	 SHORT $LN3@initialise

; 92   : 	{
; 93   : 
; 94   : 		dinput_to_ascii_table [loop] = loop;

  00024	8b 45 fc	 mov	 eax, DWORD PTR _loop$[ebp]
  00027	8a 4d fc	 mov	 cl, BYTE PTR _loop$[ebp]
  0002a	88 88 00 00 00
	00		 mov	 BYTE PTR ?dinput_to_ascii_table@@3PADA[eax], cl

; 95   : 	}

  00030	eb e0		 jmp	 SHORT $LN2@initialise
$LN3@initialise:

; 96   : 
; 97   : 	dinput_to_ascii_table [DIK_BACK] = 8;

  00032	b8 01 00 00 00	 mov	 eax, 1
  00037	6b c8 0e	 imul	 ecx, eax, 14
  0003a	c6 81 00 00 00
	00 08		 mov	 BYTE PTR ?dinput_to_ascii_table@@3PADA[ecx], 8

; 98   : 	dinput_to_ascii_table [DIK_ESCAPE] = 27;

  00041	b8 01 00 00 00	 mov	 eax, 1
  00046	c1 e0 00	 shl	 eax, 0
  00049	c6 80 00 00 00
	00 1b		 mov	 BYTE PTR ?dinput_to_ascii_table@@3PADA[eax], 27 ; 0000001bH

; 99   : 	dinput_to_ascii_table [DIK_RETURN] = 13;

  00050	b8 01 00 00 00	 mov	 eax, 1
  00055	6b c8 1c	 imul	 ecx, eax, 28
  00058	c6 81 00 00 00
	00 0d		 mov	 BYTE PTR ?dinput_to_ascii_table@@3PADA[ecx], 13 ; 0000000dH

; 100  : 
; 101  : 	dinput_to_ascii_table [DIK_1] = '1';

  0005f	b8 01 00 00 00	 mov	 eax, 1
  00064	d1 e0		 shl	 eax, 1
  00066	c6 80 00 00 00
	00 31		 mov	 BYTE PTR ?dinput_to_ascii_table@@3PADA[eax], 49 ; 00000031H

; 102  : 	dinput_to_ascii_table [DIK_2] = '2';

  0006d	b8 01 00 00 00	 mov	 eax, 1
  00072	6b c8 03	 imul	 ecx, eax, 3
  00075	c6 81 00 00 00
	00 32		 mov	 BYTE PTR ?dinput_to_ascii_table@@3PADA[ecx], 50 ; 00000032H

; 103  : 	dinput_to_ascii_table [DIK_3] = '3';

  0007c	b8 01 00 00 00	 mov	 eax, 1
  00081	c1 e0 02	 shl	 eax, 2
  00084	c6 80 00 00 00
	00 33		 mov	 BYTE PTR ?dinput_to_ascii_table@@3PADA[eax], 51 ; 00000033H

; 104  : 	dinput_to_ascii_table [DIK_4] = '4';

  0008b	b8 01 00 00 00	 mov	 eax, 1
  00090	6b c8 05	 imul	 ecx, eax, 5
  00093	c6 81 00 00 00
	00 34		 mov	 BYTE PTR ?dinput_to_ascii_table@@3PADA[ecx], 52 ; 00000034H

; 105  : 	dinput_to_ascii_table [DIK_5] = '5';

  0009a	b8 01 00 00 00	 mov	 eax, 1
  0009f	6b c8 06	 imul	 ecx, eax, 6
  000a2	c6 81 00 00 00
	00 35		 mov	 BYTE PTR ?dinput_to_ascii_table@@3PADA[ecx], 53 ; 00000035H

; 106  : 	dinput_to_ascii_table [DIK_6] = '6';

  000a9	b8 01 00 00 00	 mov	 eax, 1
  000ae	6b c8 07	 imul	 ecx, eax, 7
  000b1	c6 81 00 00 00
	00 36		 mov	 BYTE PTR ?dinput_to_ascii_table@@3PADA[ecx], 54 ; 00000036H

; 107  : 	dinput_to_ascii_table [DIK_7] = '7';

  000b8	b8 01 00 00 00	 mov	 eax, 1
  000bd	c1 e0 03	 shl	 eax, 3
  000c0	c6 80 00 00 00
	00 37		 mov	 BYTE PTR ?dinput_to_ascii_table@@3PADA[eax], 55 ; 00000037H

; 108  : 	dinput_to_ascii_table [DIK_8] = '8';

  000c7	b8 01 00 00 00	 mov	 eax, 1
  000cc	6b c8 09	 imul	 ecx, eax, 9
  000cf	c6 81 00 00 00
	00 38		 mov	 BYTE PTR ?dinput_to_ascii_table@@3PADA[ecx], 56 ; 00000038H

; 109  : 	dinput_to_ascii_table [DIK_9] = '9';

  000d6	b8 01 00 00 00	 mov	 eax, 1
  000db	6b c8 0a	 imul	 ecx, eax, 10
  000de	c6 81 00 00 00
	00 39		 mov	 BYTE PTR ?dinput_to_ascii_table@@3PADA[ecx], 57 ; 00000039H

; 110  : 	dinput_to_ascii_table [DIK_0] = '0';

  000e5	b8 01 00 00 00	 mov	 eax, 1
  000ea	6b c8 0b	 imul	 ecx, eax, 11
  000ed	c6 81 00 00 00
	00 30		 mov	 BYTE PTR ?dinput_to_ascii_table@@3PADA[ecx], 48 ; 00000030H

; 111  : 	dinput_to_ascii_table [DIK_MINUS] = '-';

  000f4	b8 01 00 00 00	 mov	 eax, 1
  000f9	6b c8 0c	 imul	 ecx, eax, 12
  000fc	c6 81 00 00 00
	00 2d		 mov	 BYTE PTR ?dinput_to_ascii_table@@3PADA[ecx], 45 ; 0000002dH

; 112  : 	dinput_to_ascii_table [DIK_EQUALS] = '=';

  00103	b8 01 00 00 00	 mov	 eax, 1
  00108	6b c8 0d	 imul	 ecx, eax, 13
  0010b	c6 81 00 00 00
	00 3d		 mov	 BYTE PTR ?dinput_to_ascii_table@@3PADA[ecx], 61 ; 0000003dH

; 113  : 	dinput_to_ascii_table [DIK_TAB] = '	';

  00112	b8 01 00 00 00	 mov	 eax, 1
  00117	6b c8 0f	 imul	 ecx, eax, 15
  0011a	c6 81 00 00 00
	00 09		 mov	 BYTE PTR ?dinput_to_ascii_table@@3PADA[ecx], 9

; 114  : 	dinput_to_ascii_table [DIK_Q] = 'Q';

  00121	b8 01 00 00 00	 mov	 eax, 1
  00126	c1 e0 04	 shl	 eax, 4
  00129	c6 80 00 00 00
	00 51		 mov	 BYTE PTR ?dinput_to_ascii_table@@3PADA[eax], 81 ; 00000051H

; 115  : 	dinput_to_ascii_table [DIK_W] = 'W';

  00130	b8 01 00 00 00	 mov	 eax, 1
  00135	6b c8 11	 imul	 ecx, eax, 17
  00138	c6 81 00 00 00
	00 57		 mov	 BYTE PTR ?dinput_to_ascii_table@@3PADA[ecx], 87 ; 00000057H

; 116  : 	dinput_to_ascii_table [DIK_E] = 'E';

  0013f	b8 01 00 00 00	 mov	 eax, 1
  00144	6b c8 12	 imul	 ecx, eax, 18
  00147	c6 81 00 00 00
	00 45		 mov	 BYTE PTR ?dinput_to_ascii_table@@3PADA[ecx], 69 ; 00000045H

; 117  : 	dinput_to_ascii_table [DIK_R] = 'R';

  0014e	b8 01 00 00 00	 mov	 eax, 1
  00153	6b c8 13	 imul	 ecx, eax, 19
  00156	c6 81 00 00 00
	00 52		 mov	 BYTE PTR ?dinput_to_ascii_table@@3PADA[ecx], 82 ; 00000052H

; 118  : 	dinput_to_ascii_table [DIK_T] = 'T';

  0015d	b8 01 00 00 00	 mov	 eax, 1
  00162	6b c8 14	 imul	 ecx, eax, 20
  00165	c6 81 00 00 00
	00 54		 mov	 BYTE PTR ?dinput_to_ascii_table@@3PADA[ecx], 84 ; 00000054H

; 119  : 	dinput_to_ascii_table [DIK_Y] = 'Y';

  0016c	b8 01 00 00 00	 mov	 eax, 1
  00171	6b c8 15	 imul	 ecx, eax, 21
  00174	c6 81 00 00 00
	00 59		 mov	 BYTE PTR ?dinput_to_ascii_table@@3PADA[ecx], 89 ; 00000059H

; 120  : 	dinput_to_ascii_table [DIK_U] = 'U';

  0017b	b8 01 00 00 00	 mov	 eax, 1
  00180	6b c8 16	 imul	 ecx, eax, 22
  00183	c6 81 00 00 00
	00 55		 mov	 BYTE PTR ?dinput_to_ascii_table@@3PADA[ecx], 85 ; 00000055H

; 121  : 	dinput_to_ascii_table [DIK_I] = 'I';

  0018a	b8 01 00 00 00	 mov	 eax, 1
  0018f	6b c8 17	 imul	 ecx, eax, 23
  00192	c6 81 00 00 00
	00 49		 mov	 BYTE PTR ?dinput_to_ascii_table@@3PADA[ecx], 73 ; 00000049H

; 122  : 	dinput_to_ascii_table [DIK_O] = 'O';

  00199	b8 01 00 00 00	 mov	 eax, 1
  0019e	6b c8 18	 imul	 ecx, eax, 24
  001a1	c6 81 00 00 00
	00 4f		 mov	 BYTE PTR ?dinput_to_ascii_table@@3PADA[ecx], 79 ; 0000004fH

; 123  : 	dinput_to_ascii_table [DIK_P] = 'P';

  001a8	b8 01 00 00 00	 mov	 eax, 1
  001ad	6b c8 19	 imul	 ecx, eax, 25
  001b0	c6 81 00 00 00
	00 50		 mov	 BYTE PTR ?dinput_to_ascii_table@@3PADA[ecx], 80 ; 00000050H

; 124  : 	dinput_to_ascii_table [DIK_LBRACKET] = '[';

  001b7	b8 01 00 00 00	 mov	 eax, 1
  001bc	6b c8 1a	 imul	 ecx, eax, 26
  001bf	c6 81 00 00 00
	00 5b		 mov	 BYTE PTR ?dinput_to_ascii_table@@3PADA[ecx], 91 ; 0000005bH

; 125  : 	dinput_to_ascii_table [DIK_RBRACKET] = ']';

  001c6	b8 01 00 00 00	 mov	 eax, 1
  001cb	6b c8 1b	 imul	 ecx, eax, 27
  001ce	c6 81 00 00 00
	00 5d		 mov	 BYTE PTR ?dinput_to_ascii_table@@3PADA[ecx], 93 ; 0000005dH

; 126  : 	dinput_to_ascii_table [DIK_A] = 'A';

  001d5	b8 01 00 00 00	 mov	 eax, 1
  001da	6b c8 1e	 imul	 ecx, eax, 30
  001dd	c6 81 00 00 00
	00 41		 mov	 BYTE PTR ?dinput_to_ascii_table@@3PADA[ecx], 65 ; 00000041H

; 127  : 	dinput_to_ascii_table [DIK_S] = 'S';

  001e4	b8 01 00 00 00	 mov	 eax, 1
  001e9	6b c8 1f	 imul	 ecx, eax, 31
  001ec	c6 81 00 00 00
	00 53		 mov	 BYTE PTR ?dinput_to_ascii_table@@3PADA[ecx], 83 ; 00000053H

; 128  : 	dinput_to_ascii_table [DIK_D] = 'D';

  001f3	b8 01 00 00 00	 mov	 eax, 1
  001f8	c1 e0 05	 shl	 eax, 5
  001fb	c6 80 00 00 00
	00 44		 mov	 BYTE PTR ?dinput_to_ascii_table@@3PADA[eax], 68 ; 00000044H

; 129  : 	dinput_to_ascii_table [DIK_F] = 'F';

  00202	b8 01 00 00 00	 mov	 eax, 1
  00207	6b c8 21	 imul	 ecx, eax, 33
  0020a	c6 81 00 00 00
	00 46		 mov	 BYTE PTR ?dinput_to_ascii_table@@3PADA[ecx], 70 ; 00000046H

; 130  : 	dinput_to_ascii_table [DIK_G] = 'G';

  00211	b8 01 00 00 00	 mov	 eax, 1
  00216	6b c8 22	 imul	 ecx, eax, 34
  00219	c6 81 00 00 00
	00 47		 mov	 BYTE PTR ?dinput_to_ascii_table@@3PADA[ecx], 71 ; 00000047H

; 131  : 	dinput_to_ascii_table [DIK_H] = 'H';

  00220	b8 01 00 00 00	 mov	 eax, 1
  00225	6b c8 23	 imul	 ecx, eax, 35
  00228	c6 81 00 00 00
	00 48		 mov	 BYTE PTR ?dinput_to_ascii_table@@3PADA[ecx], 72 ; 00000048H

; 132  : 	dinput_to_ascii_table [DIK_J] = 'J';

  0022f	b8 01 00 00 00	 mov	 eax, 1
  00234	6b c8 24	 imul	 ecx, eax, 36
  00237	c6 81 00 00 00
	00 4a		 mov	 BYTE PTR ?dinput_to_ascii_table@@3PADA[ecx], 74 ; 0000004aH

; 133  : 	dinput_to_ascii_table [DIK_K] = 'K';

  0023e	b8 01 00 00 00	 mov	 eax, 1
  00243	6b c8 25	 imul	 ecx, eax, 37
  00246	c6 81 00 00 00
	00 4b		 mov	 BYTE PTR ?dinput_to_ascii_table@@3PADA[ecx], 75 ; 0000004bH

; 134  : 	dinput_to_ascii_table [DIK_L] = 'L';

  0024d	b8 01 00 00 00	 mov	 eax, 1
  00252	6b c8 26	 imul	 ecx, eax, 38
  00255	c6 81 00 00 00
	00 4c		 mov	 BYTE PTR ?dinput_to_ascii_table@@3PADA[ecx], 76 ; 0000004cH

; 135  : 	dinput_to_ascii_table [DIK_SEMICOLON] = ';';

  0025c	b8 01 00 00 00	 mov	 eax, 1
  00261	6b c8 27	 imul	 ecx, eax, 39
  00264	c6 81 00 00 00
	00 3b		 mov	 BYTE PTR ?dinput_to_ascii_table@@3PADA[ecx], 59 ; 0000003bH

; 136  : 	dinput_to_ascii_table [DIK_APOSTROPHE] = '\'';

  0026b	b8 01 00 00 00	 mov	 eax, 1
  00270	6b c8 28	 imul	 ecx, eax, 40
  00273	c6 81 00 00 00
	00 27		 mov	 BYTE PTR ?dinput_to_ascii_table@@3PADA[ecx], 39 ; 00000027H

; 137  : 	dinput_to_ascii_table [DIK_GRAVE] = '`';

  0027a	b8 01 00 00 00	 mov	 eax, 1
  0027f	6b c8 29	 imul	 ecx, eax, 41
  00282	c6 81 00 00 00
	00 60		 mov	 BYTE PTR ?dinput_to_ascii_table@@3PADA[ecx], 96 ; 00000060H

; 138  : 	dinput_to_ascii_table [DIK_BACKSLASH] = '\\';

  00289	b8 01 00 00 00	 mov	 eax, 1
  0028e	6b c8 2b	 imul	 ecx, eax, 43
  00291	c6 81 00 00 00
	00 5c		 mov	 BYTE PTR ?dinput_to_ascii_table@@3PADA[ecx], 92 ; 0000005cH

; 139  : 	dinput_to_ascii_table [DIK_Z] = 'Z';

  00298	b8 01 00 00 00	 mov	 eax, 1
  0029d	6b c8 2c	 imul	 ecx, eax, 44
  002a0	c6 81 00 00 00
	00 5a		 mov	 BYTE PTR ?dinput_to_ascii_table@@3PADA[ecx], 90 ; 0000005aH

; 140  : 	dinput_to_ascii_table [DIK_X] = 'X';

  002a7	b8 01 00 00 00	 mov	 eax, 1
  002ac	6b c8 2d	 imul	 ecx, eax, 45
  002af	c6 81 00 00 00
	00 58		 mov	 BYTE PTR ?dinput_to_ascii_table@@3PADA[ecx], 88 ; 00000058H

; 141  : 	dinput_to_ascii_table [DIK_C] = 'C';

  002b6	b8 01 00 00 00	 mov	 eax, 1
  002bb	6b c8 2e	 imul	 ecx, eax, 46
  002be	c6 81 00 00 00
	00 43		 mov	 BYTE PTR ?dinput_to_ascii_table@@3PADA[ecx], 67 ; 00000043H

; 142  : 	dinput_to_ascii_table [DIK_V] = 'V';

  002c5	b8 01 00 00 00	 mov	 eax, 1
  002ca	6b c8 2f	 imul	 ecx, eax, 47
  002cd	c6 81 00 00 00
	00 56		 mov	 BYTE PTR ?dinput_to_ascii_table@@3PADA[ecx], 86 ; 00000056H

; 143  : 	dinput_to_ascii_table [DIK_B] = 'B';

  002d4	b8 01 00 00 00	 mov	 eax, 1
  002d9	6b c8 30	 imul	 ecx, eax, 48
  002dc	c6 81 00 00 00
	00 42		 mov	 BYTE PTR ?dinput_to_ascii_table@@3PADA[ecx], 66 ; 00000042H

; 144  : 	dinput_to_ascii_table [DIK_N] = 'N';

  002e3	b8 01 00 00 00	 mov	 eax, 1
  002e8	6b c8 31	 imul	 ecx, eax, 49
  002eb	c6 81 00 00 00
	00 4e		 mov	 BYTE PTR ?dinput_to_ascii_table@@3PADA[ecx], 78 ; 0000004eH

; 145  : 	dinput_to_ascii_table [DIK_M] = 'M';

  002f2	b8 01 00 00 00	 mov	 eax, 1
  002f7	6b c8 32	 imul	 ecx, eax, 50
  002fa	c6 81 00 00 00
	00 4d		 mov	 BYTE PTR ?dinput_to_ascii_table@@3PADA[ecx], 77 ; 0000004dH

; 146  : 	dinput_to_ascii_table [DIK_COMMA] = ',';

  00301	b8 01 00 00 00	 mov	 eax, 1
  00306	6b c8 33	 imul	 ecx, eax, 51
  00309	c6 81 00 00 00
	00 2c		 mov	 BYTE PTR ?dinput_to_ascii_table@@3PADA[ecx], 44 ; 0000002cH

; 147  : 	dinput_to_ascii_table [DIK_PERIOD] = '.';

  00310	b8 01 00 00 00	 mov	 eax, 1
  00315	6b c8 34	 imul	 ecx, eax, 52
  00318	c6 81 00 00 00
	00 2e		 mov	 BYTE PTR ?dinput_to_ascii_table@@3PADA[ecx], 46 ; 0000002eH

; 148  : 	dinput_to_ascii_table [DIK_SLASH] = '/';

  0031f	b8 01 00 00 00	 mov	 eax, 1
  00324	6b c8 35	 imul	 ecx, eax, 53
  00327	c6 81 00 00 00
	00 2f		 mov	 BYTE PTR ?dinput_to_ascii_table@@3PADA[ecx], 47 ; 0000002fH

; 149  : 	dinput_to_ascii_table [DIK_MULTIPLY] = '*';

  0032e	b8 01 00 00 00	 mov	 eax, 1
  00333	6b c8 37	 imul	 ecx, eax, 55
  00336	c6 81 00 00 00
	00 2a		 mov	 BYTE PTR ?dinput_to_ascii_table@@3PADA[ecx], 42 ; 0000002aH

; 150  : 	dinput_to_ascii_table [DIK_SPACE] = ' ';

  0033d	b8 01 00 00 00	 mov	 eax, 1
  00342	6b c8 39	 imul	 ecx, eax, 57
  00345	c6 81 00 00 00
	00 20		 mov	 BYTE PTR ?dinput_to_ascii_table@@3PADA[ecx], 32 ; 00000020H

; 151  : 	dinput_to_ascii_table [DIK_NUMPAD7] = '7';

  0034c	b8 01 00 00 00	 mov	 eax, 1
  00351	6b c8 47	 imul	 ecx, eax, 71
  00354	c6 81 00 00 00
	00 37		 mov	 BYTE PTR ?dinput_to_ascii_table@@3PADA[ecx], 55 ; 00000037H

; 152  : 	dinput_to_ascii_table [DIK_NUMPAD8] = '8';

  0035b	b8 01 00 00 00	 mov	 eax, 1
  00360	6b c8 48	 imul	 ecx, eax, 72
  00363	c6 81 00 00 00
	00 38		 mov	 BYTE PTR ?dinput_to_ascii_table@@3PADA[ecx], 56 ; 00000038H

; 153  : 	dinput_to_ascii_table [DIK_NUMPAD9] = '9';

  0036a	b8 01 00 00 00	 mov	 eax, 1
  0036f	6b c8 49	 imul	 ecx, eax, 73
  00372	c6 81 00 00 00
	00 39		 mov	 BYTE PTR ?dinput_to_ascii_table@@3PADA[ecx], 57 ; 00000039H

; 154  : 	dinput_to_ascii_table [DIK_SUBTRACT] = '-';

  00379	b8 01 00 00 00	 mov	 eax, 1
  0037e	6b c8 4a	 imul	 ecx, eax, 74
  00381	c6 81 00 00 00
	00 2d		 mov	 BYTE PTR ?dinput_to_ascii_table@@3PADA[ecx], 45 ; 0000002dH

; 155  : 	dinput_to_ascii_table [DIK_NUMPAD4] = '4';

  00388	b8 01 00 00 00	 mov	 eax, 1
  0038d	6b c8 4b	 imul	 ecx, eax, 75
  00390	c6 81 00 00 00
	00 34		 mov	 BYTE PTR ?dinput_to_ascii_table@@3PADA[ecx], 52 ; 00000034H

; 156  : 	dinput_to_ascii_table [DIK_NUMPAD5] = '5';

  00397	b8 01 00 00 00	 mov	 eax, 1
  0039c	6b c8 4c	 imul	 ecx, eax, 76
  0039f	c6 81 00 00 00
	00 35		 mov	 BYTE PTR ?dinput_to_ascii_table@@3PADA[ecx], 53 ; 00000035H

; 157  : 	dinput_to_ascii_table [DIK_NUMPAD6] = '6';

  003a6	b8 01 00 00 00	 mov	 eax, 1
  003ab	6b c8 4d	 imul	 ecx, eax, 77
  003ae	c6 81 00 00 00
	00 36		 mov	 BYTE PTR ?dinput_to_ascii_table@@3PADA[ecx], 54 ; 00000036H

; 158  : 	dinput_to_ascii_table [DIK_ADD] = '+';

  003b5	b8 01 00 00 00	 mov	 eax, 1
  003ba	6b c8 4e	 imul	 ecx, eax, 78
  003bd	c6 81 00 00 00
	00 2b		 mov	 BYTE PTR ?dinput_to_ascii_table@@3PADA[ecx], 43 ; 0000002bH

; 159  : 	dinput_to_ascii_table [DIK_NUMPAD1] = '1';

  003c4	b8 01 00 00 00	 mov	 eax, 1
  003c9	6b c8 4f	 imul	 ecx, eax, 79
  003cc	c6 81 00 00 00
	00 31		 mov	 BYTE PTR ?dinput_to_ascii_table@@3PADA[ecx], 49 ; 00000031H

; 160  : 	dinput_to_ascii_table [DIK_NUMPAD2] = '2';

  003d3	b8 01 00 00 00	 mov	 eax, 1
  003d8	6b c8 50	 imul	 ecx, eax, 80
  003db	c6 81 00 00 00
	00 32		 mov	 BYTE PTR ?dinput_to_ascii_table@@3PADA[ecx], 50 ; 00000032H

; 161  : 	dinput_to_ascii_table [DIK_NUMPAD3] = '3';

  003e2	b8 01 00 00 00	 mov	 eax, 1
  003e7	6b c8 51	 imul	 ecx, eax, 81
  003ea	c6 81 00 00 00
	00 33		 mov	 BYTE PTR ?dinput_to_ascii_table@@3PADA[ecx], 51 ; 00000033H

; 162  : 	dinput_to_ascii_table [DIK_NUMPAD0] = '0';

  003f1	b8 01 00 00 00	 mov	 eax, 1
  003f6	6b c8 52	 imul	 ecx, eax, 82
  003f9	c6 81 00 00 00
	00 30		 mov	 BYTE PTR ?dinput_to_ascii_table@@3PADA[ecx], 48 ; 00000030H

; 163  : 	dinput_to_ascii_table [DIK_DECIMAL] = '.';

  00400	b8 01 00 00 00	 mov	 eax, 1
  00405	6b c8 53	 imul	 ecx, eax, 83
  00408	c6 81 00 00 00
	00 2e		 mov	 BYTE PTR ?dinput_to_ascii_table@@3PADA[ecx], 46 ; 0000002eH

; 164  : 	dinput_to_ascii_table [DIK_NUMPADEQUALS] = '=';

  0040f	b8 01 00 00 00	 mov	 eax, 1
  00414	69 c8 8d 00 00
	00		 imul	 ecx, eax, 141
  0041a	c6 81 00 00 00
	00 3d		 mov	 BYTE PTR ?dinput_to_ascii_table@@3PADA[ecx], 61 ; 0000003dH

; 165  : 	dinput_to_ascii_table [DIK_CIRCUMFLEX] = '~';

  00421	b8 01 00 00 00	 mov	 eax, 1
  00426	69 c8 90 00 00
	00		 imul	 ecx, eax, 144
  0042c	c6 81 00 00 00
	00 7e		 mov	 BYTE PTR ?dinput_to_ascii_table@@3PADA[ecx], 126 ; 0000007eH

; 166  : 	dinput_to_ascii_table [DIK_COLON] = ':';

  00433	b8 01 00 00 00	 mov	 eax, 1
  00438	69 c8 92 00 00
	00		 imul	 ecx, eax, 146
  0043e	c6 81 00 00 00
	00 3a		 mov	 BYTE PTR ?dinput_to_ascii_table@@3PADA[ecx], 58 ; 0000003aH

; 167  : 	dinput_to_ascii_table [DIK_UNDERLINE] = '_';

  00445	b8 01 00 00 00	 mov	 eax, 1
  0044a	69 c8 93 00 00
	00		 imul	 ecx, eax, 147
  00450	c6 81 00 00 00
	00 5f		 mov	 BYTE PTR ?dinput_to_ascii_table@@3PADA[ecx], 95 ; 0000005fH

; 168  : 	dinput_to_ascii_table [DIK_STOP] = '.';

  00457	b8 01 00 00 00	 mov	 eax, 1
  0045c	69 c8 95 00 00
	00		 imul	 ecx, eax, 149
  00462	c6 81 00 00 00
	00 2e		 mov	 BYTE PTR ?dinput_to_ascii_table@@3PADA[ecx], 46 ; 0000002eH

; 169  : 	dinput_to_ascii_table [DIK_DIVIDE] = '/';

  00469	b8 01 00 00 00	 mov	 eax, 1
  0046e	69 c8 b5 00 00
	00		 imul	 ecx, eax, 181
  00474	c6 81 00 00 00
	00 2f		 mov	 BYTE PTR ?dinput_to_ascii_table@@3PADA[ecx], 47 ; 0000002fH

; 170  : 
; 171  : 	//
; 172  : 	// Uppercase characters
; 173  : 	//
; 174  : 
; 175  : 	for (loop = 0; loop < sizeof (dinput_to_ascii_table); loop ++)

  0047b	c7 45 fc 00 00
	00 00		 mov	 DWORD PTR _loop$[ebp], 0
  00482	eb 09		 jmp	 SHORT $LN7@initialise
$LN5@initialise:
  00484	8b 45 fc	 mov	 eax, DWORD PTR _loop$[ebp]
  00487	83 c0 01	 add	 eax, 1
  0048a	89 45 fc	 mov	 DWORD PTR _loop$[ebp], eax
$LN7@initialise:
  0048d	81 7d fc 00 01
	00 00		 cmp	 DWORD PTR _loop$[ebp], 256 ; 00000100H
  00494	73 0e		 jae	 SHORT $LN6@initialise

; 176  : 	{
; 177  : 
; 178  : 		dinput_to_ascii_upper_table [loop] = loop;

  00496	8b 45 fc	 mov	 eax, DWORD PTR _loop$[ebp]
  00499	8a 4d fc	 mov	 cl, BYTE PTR _loop$[ebp]
  0049c	88 88 00 00 00
	00		 mov	 BYTE PTR ?dinput_to_ascii_upper_table@@3PADA[eax], cl

; 179  : 	}

  004a2	eb e0		 jmp	 SHORT $LN5@initialise
$LN6@initialise:

; 180  : 
; 181  : 	dinput_to_ascii_upper_table [DIK_BACK] = 8;

  004a4	b8 01 00 00 00	 mov	 eax, 1
  004a9	6b c8 0e	 imul	 ecx, eax, 14
  004ac	c6 81 00 00 00
	00 08		 mov	 BYTE PTR ?dinput_to_ascii_upper_table@@3PADA[ecx], 8

; 182  : 	dinput_to_ascii_upper_table [DIK_ESCAPE] = 27;

  004b3	b8 01 00 00 00	 mov	 eax, 1
  004b8	c1 e0 00	 shl	 eax, 0
  004bb	c6 80 00 00 00
	00 1b		 mov	 BYTE PTR ?dinput_to_ascii_upper_table@@3PADA[eax], 27 ; 0000001bH

; 183  : 	dinput_to_ascii_upper_table [DIK_RETURN] = 13;

  004c2	b8 01 00 00 00	 mov	 eax, 1
  004c7	6b c8 1c	 imul	 ecx, eax, 28
  004ca	c6 81 00 00 00
	00 0d		 mov	 BYTE PTR ?dinput_to_ascii_upper_table@@3PADA[ecx], 13 ; 0000000dH

; 184  : 
; 185  : 	dinput_to_ascii_upper_table [DIK_1] = '!';

  004d1	b8 01 00 00 00	 mov	 eax, 1
  004d6	d1 e0		 shl	 eax, 1
  004d8	c6 80 00 00 00
	00 21		 mov	 BYTE PTR ?dinput_to_ascii_upper_table@@3PADA[eax], 33 ; 00000021H

; 186  : 	dinput_to_ascii_upper_table [DIK_2] = '"';

  004df	b8 01 00 00 00	 mov	 eax, 1
  004e4	6b c8 03	 imul	 ecx, eax, 3
  004e7	c6 81 00 00 00
	00 22		 mov	 BYTE PTR ?dinput_to_ascii_upper_table@@3PADA[ecx], 34 ; 00000022H

; 187  : 	dinput_to_ascii_upper_table [DIK_3] = '';

  004ee	b8 01 00 00 00	 mov	 eax, 1
  004f3	c1 e0 02	 shl	 eax, 2
  004f6	c6 80 00 00 00
	00 a3		 mov	 BYTE PTR ?dinput_to_ascii_upper_table@@3PADA[eax], 163 ; 000000a3H

; 188  : 	dinput_to_ascii_upper_table [DIK_4] = '$';

  004fd	b8 01 00 00 00	 mov	 eax, 1
  00502	6b c8 05	 imul	 ecx, eax, 5
  00505	c6 81 00 00 00
	00 24		 mov	 BYTE PTR ?dinput_to_ascii_upper_table@@3PADA[ecx], 36 ; 00000024H

; 189  : 	dinput_to_ascii_upper_table [DIK_5] = '%';

  0050c	b8 01 00 00 00	 mov	 eax, 1
  00511	6b c8 06	 imul	 ecx, eax, 6
  00514	c6 81 00 00 00
	00 25		 mov	 BYTE PTR ?dinput_to_ascii_upper_table@@3PADA[ecx], 37 ; 00000025H

; 190  : 	dinput_to_ascii_upper_table [DIK_6] = '^';

  0051b	b8 01 00 00 00	 mov	 eax, 1
  00520	6b c8 07	 imul	 ecx, eax, 7
  00523	c6 81 00 00 00
	00 5e		 mov	 BYTE PTR ?dinput_to_ascii_upper_table@@3PADA[ecx], 94 ; 0000005eH

; 191  : 	dinput_to_ascii_upper_table [DIK_7] = '&';

  0052a	b8 01 00 00 00	 mov	 eax, 1
  0052f	c1 e0 03	 shl	 eax, 3
  00532	c6 80 00 00 00
	00 26		 mov	 BYTE PTR ?dinput_to_ascii_upper_table@@3PADA[eax], 38 ; 00000026H

; 192  : 	dinput_to_ascii_upper_table [DIK_8] = '*';

  00539	b8 01 00 00 00	 mov	 eax, 1
  0053e	6b c8 09	 imul	 ecx, eax, 9
  00541	c6 81 00 00 00
	00 2a		 mov	 BYTE PTR ?dinput_to_ascii_upper_table@@3PADA[ecx], 42 ; 0000002aH

; 193  : 	dinput_to_ascii_upper_table [DIK_9] = '(';

  00548	b8 01 00 00 00	 mov	 eax, 1
  0054d	6b c8 0a	 imul	 ecx, eax, 10
  00550	c6 81 00 00 00
	00 28		 mov	 BYTE PTR ?dinput_to_ascii_upper_table@@3PADA[ecx], 40 ; 00000028H

; 194  : 	dinput_to_ascii_upper_table [DIK_0] = ')';

  00557	b8 01 00 00 00	 mov	 eax, 1
  0055c	6b c8 0b	 imul	 ecx, eax, 11
  0055f	c6 81 00 00 00
	00 29		 mov	 BYTE PTR ?dinput_to_ascii_upper_table@@3PADA[ecx], 41 ; 00000029H

; 195  : 	dinput_to_ascii_upper_table [DIK_MINUS] = '_';

  00566	b8 01 00 00 00	 mov	 eax, 1
  0056b	6b c8 0c	 imul	 ecx, eax, 12
  0056e	c6 81 00 00 00
	00 5f		 mov	 BYTE PTR ?dinput_to_ascii_upper_table@@3PADA[ecx], 95 ; 0000005fH

; 196  : 	dinput_to_ascii_upper_table [DIK_EQUALS] = '+';

  00575	b8 01 00 00 00	 mov	 eax, 1
  0057a	6b c8 0d	 imul	 ecx, eax, 13
  0057d	c6 81 00 00 00
	00 2b		 mov	 BYTE PTR ?dinput_to_ascii_upper_table@@3PADA[ecx], 43 ; 0000002bH

; 197  : 	dinput_to_ascii_upper_table [DIK_TAB] = '	';

  00584	b8 01 00 00 00	 mov	 eax, 1
  00589	6b c8 0f	 imul	 ecx, eax, 15
  0058c	c6 81 00 00 00
	00 09		 mov	 BYTE PTR ?dinput_to_ascii_upper_table@@3PADA[ecx], 9

; 198  : 	dinput_to_ascii_upper_table [DIK_Q] = 'Q';

  00593	b8 01 00 00 00	 mov	 eax, 1
  00598	c1 e0 04	 shl	 eax, 4
  0059b	c6 80 00 00 00
	00 51		 mov	 BYTE PTR ?dinput_to_ascii_upper_table@@3PADA[eax], 81 ; 00000051H

; 199  : 	dinput_to_ascii_upper_table [DIK_W] = 'W';

  005a2	b8 01 00 00 00	 mov	 eax, 1
  005a7	6b c8 11	 imul	 ecx, eax, 17
  005aa	c6 81 00 00 00
	00 57		 mov	 BYTE PTR ?dinput_to_ascii_upper_table@@3PADA[ecx], 87 ; 00000057H

; 200  : 	dinput_to_ascii_upper_table [DIK_E] = 'E';

  005b1	b8 01 00 00 00	 mov	 eax, 1
  005b6	6b c8 12	 imul	 ecx, eax, 18
  005b9	c6 81 00 00 00
	00 45		 mov	 BYTE PTR ?dinput_to_ascii_upper_table@@3PADA[ecx], 69 ; 00000045H

; 201  : 	dinput_to_ascii_upper_table [DIK_R] = 'R';

  005c0	b8 01 00 00 00	 mov	 eax, 1
  005c5	6b c8 13	 imul	 ecx, eax, 19
  005c8	c6 81 00 00 00
	00 52		 mov	 BYTE PTR ?dinput_to_ascii_upper_table@@3PADA[ecx], 82 ; 00000052H

; 202  : 	dinput_to_ascii_upper_table [DIK_T] = 'T';

  005cf	b8 01 00 00 00	 mov	 eax, 1
  005d4	6b c8 14	 imul	 ecx, eax, 20
  005d7	c6 81 00 00 00
	00 54		 mov	 BYTE PTR ?dinput_to_ascii_upper_table@@3PADA[ecx], 84 ; 00000054H

; 203  : 	dinput_to_ascii_upper_table [DIK_Y] = 'Y';

  005de	b8 01 00 00 00	 mov	 eax, 1
  005e3	6b c8 15	 imul	 ecx, eax, 21
  005e6	c6 81 00 00 00
	00 59		 mov	 BYTE PTR ?dinput_to_ascii_upper_table@@3PADA[ecx], 89 ; 00000059H

; 204  : 	dinput_to_ascii_upper_table [DIK_U] = 'U';

  005ed	b8 01 00 00 00	 mov	 eax, 1
  005f2	6b c8 16	 imul	 ecx, eax, 22
  005f5	c6 81 00 00 00
	00 55		 mov	 BYTE PTR ?dinput_to_ascii_upper_table@@3PADA[ecx], 85 ; 00000055H

; 205  : 	dinput_to_ascii_upper_table [DIK_I] = 'I';

  005fc	b8 01 00 00 00	 mov	 eax, 1
  00601	6b c8 17	 imul	 ecx, eax, 23
  00604	c6 81 00 00 00
	00 49		 mov	 BYTE PTR ?dinput_to_ascii_upper_table@@3PADA[ecx], 73 ; 00000049H

; 206  : 	dinput_to_ascii_upper_table [DIK_O] = 'O';

  0060b	b8 01 00 00 00	 mov	 eax, 1
  00610	6b c8 18	 imul	 ecx, eax, 24
  00613	c6 81 00 00 00
	00 4f		 mov	 BYTE PTR ?dinput_to_ascii_upper_table@@3PADA[ecx], 79 ; 0000004fH

; 207  : 	dinput_to_ascii_upper_table [DIK_P] = 'P';

  0061a	b8 01 00 00 00	 mov	 eax, 1
  0061f	6b c8 19	 imul	 ecx, eax, 25
  00622	c6 81 00 00 00
	00 50		 mov	 BYTE PTR ?dinput_to_ascii_upper_table@@3PADA[ecx], 80 ; 00000050H

; 208  : 	dinput_to_ascii_upper_table [DIK_LBRACKET] = '{';

  00629	b8 01 00 00 00	 mov	 eax, 1
  0062e	6b c8 1a	 imul	 ecx, eax, 26
  00631	c6 81 00 00 00
	00 7b		 mov	 BYTE PTR ?dinput_to_ascii_upper_table@@3PADA[ecx], 123 ; 0000007bH

; 209  : 	dinput_to_ascii_upper_table [DIK_RBRACKET] = '}';

  00638	b8 01 00 00 00	 mov	 eax, 1
  0063d	6b c8 1b	 imul	 ecx, eax, 27
  00640	c6 81 00 00 00
	00 7d		 mov	 BYTE PTR ?dinput_to_ascii_upper_table@@3PADA[ecx], 125 ; 0000007dH

; 210  : 	dinput_to_ascii_upper_table [DIK_A] = 'A';

  00647	b8 01 00 00 00	 mov	 eax, 1
  0064c	6b c8 1e	 imul	 ecx, eax, 30
  0064f	c6 81 00 00 00
	00 41		 mov	 BYTE PTR ?dinput_to_ascii_upper_table@@3PADA[ecx], 65 ; 00000041H

; 211  : 	dinput_to_ascii_upper_table [DIK_S] = 'S';

  00656	b8 01 00 00 00	 mov	 eax, 1
  0065b	6b c8 1f	 imul	 ecx, eax, 31
  0065e	c6 81 00 00 00
	00 53		 mov	 BYTE PTR ?dinput_to_ascii_upper_table@@3PADA[ecx], 83 ; 00000053H

; 212  : 	dinput_to_ascii_upper_table [DIK_D] = 'D';

  00665	b8 01 00 00 00	 mov	 eax, 1
  0066a	c1 e0 05	 shl	 eax, 5
  0066d	c6 80 00 00 00
	00 44		 mov	 BYTE PTR ?dinput_to_ascii_upper_table@@3PADA[eax], 68 ; 00000044H

; 213  : 	dinput_to_ascii_upper_table [DIK_F] = 'F';

  00674	b8 01 00 00 00	 mov	 eax, 1
  00679	6b c8 21	 imul	 ecx, eax, 33
  0067c	c6 81 00 00 00
	00 46		 mov	 BYTE PTR ?dinput_to_ascii_upper_table@@3PADA[ecx], 70 ; 00000046H

; 214  : 	dinput_to_ascii_upper_table [DIK_G] = 'G';

  00683	b8 01 00 00 00	 mov	 eax, 1
  00688	6b c8 22	 imul	 ecx, eax, 34
  0068b	c6 81 00 00 00
	00 47		 mov	 BYTE PTR ?dinput_to_ascii_upper_table@@3PADA[ecx], 71 ; 00000047H

; 215  : 	dinput_to_ascii_upper_table [DIK_H] = 'H';

  00692	b8 01 00 00 00	 mov	 eax, 1
  00697	6b c8 23	 imul	 ecx, eax, 35
  0069a	c6 81 00 00 00
	00 48		 mov	 BYTE PTR ?dinput_to_ascii_upper_table@@3PADA[ecx], 72 ; 00000048H

; 216  : 	dinput_to_ascii_upper_table [DIK_J] = 'J';

  006a1	b8 01 00 00 00	 mov	 eax, 1
  006a6	6b c8 24	 imul	 ecx, eax, 36
  006a9	c6 81 00 00 00
	00 4a		 mov	 BYTE PTR ?dinput_to_ascii_upper_table@@3PADA[ecx], 74 ; 0000004aH

; 217  : 	dinput_to_ascii_upper_table [DIK_K] = 'K';

  006b0	b8 01 00 00 00	 mov	 eax, 1
  006b5	6b c8 25	 imul	 ecx, eax, 37
  006b8	c6 81 00 00 00
	00 4b		 mov	 BYTE PTR ?dinput_to_ascii_upper_table@@3PADA[ecx], 75 ; 0000004bH

; 218  : 	dinput_to_ascii_upper_table [DIK_L] = 'L';

  006bf	b8 01 00 00 00	 mov	 eax, 1
  006c4	6b c8 26	 imul	 ecx, eax, 38
  006c7	c6 81 00 00 00
	00 4c		 mov	 BYTE PTR ?dinput_to_ascii_upper_table@@3PADA[ecx], 76 ; 0000004cH

; 219  : 	dinput_to_ascii_upper_table [DIK_SEMICOLON] = ':';

  006ce	b8 01 00 00 00	 mov	 eax, 1
  006d3	6b c8 27	 imul	 ecx, eax, 39
  006d6	c6 81 00 00 00
	00 3a		 mov	 BYTE PTR ?dinput_to_ascii_upper_table@@3PADA[ecx], 58 ; 0000003aH

; 220  : 	dinput_to_ascii_upper_table [DIK_APOSTROPHE] = '\'';

  006dd	b8 01 00 00 00	 mov	 eax, 1
  006e2	6b c8 28	 imul	 ecx, eax, 40
  006e5	c6 81 00 00 00
	00 27		 mov	 BYTE PTR ?dinput_to_ascii_upper_table@@3PADA[ecx], 39 ; 00000027H

; 221  : 	dinput_to_ascii_upper_table [DIK_GRAVE] = '`';

  006ec	b8 01 00 00 00	 mov	 eax, 1
  006f1	6b c8 29	 imul	 ecx, eax, 41
  006f4	c6 81 00 00 00
	00 60		 mov	 BYTE PTR ?dinput_to_ascii_upper_table@@3PADA[ecx], 96 ; 00000060H

; 222  : 	dinput_to_ascii_upper_table [DIK_BACKSLASH] = '\\';

  006fb	b8 01 00 00 00	 mov	 eax, 1
  00700	6b c8 2b	 imul	 ecx, eax, 43
  00703	c6 81 00 00 00
	00 5c		 mov	 BYTE PTR ?dinput_to_ascii_upper_table@@3PADA[ecx], 92 ; 0000005cH

; 223  : 	dinput_to_ascii_upper_table [DIK_Z] = 'Z';

  0070a	b8 01 00 00 00	 mov	 eax, 1
  0070f	6b c8 2c	 imul	 ecx, eax, 44
  00712	c6 81 00 00 00
	00 5a		 mov	 BYTE PTR ?dinput_to_ascii_upper_table@@3PADA[ecx], 90 ; 0000005aH

; 224  : 	dinput_to_ascii_upper_table [DIK_X] = 'X';

  00719	b8 01 00 00 00	 mov	 eax, 1
  0071e	6b c8 2d	 imul	 ecx, eax, 45
  00721	c6 81 00 00 00
	00 58		 mov	 BYTE PTR ?dinput_to_ascii_upper_table@@3PADA[ecx], 88 ; 00000058H

; 225  : 	dinput_to_ascii_upper_table [DIK_C] = 'C';

  00728	b8 01 00 00 00	 mov	 eax, 1
  0072d	6b c8 2e	 imul	 ecx, eax, 46
  00730	c6 81 00 00 00
	00 43		 mov	 BYTE PTR ?dinput_to_ascii_upper_table@@3PADA[ecx], 67 ; 00000043H

; 226  : 	dinput_to_ascii_upper_table [DIK_V] = 'V';

  00737	b8 01 00 00 00	 mov	 eax, 1
  0073c	6b c8 2f	 imul	 ecx, eax, 47
  0073f	c6 81 00 00 00
	00 56		 mov	 BYTE PTR ?dinput_to_ascii_upper_table@@3PADA[ecx], 86 ; 00000056H

; 227  : 	dinput_to_ascii_upper_table [DIK_B] = 'B';

  00746	b8 01 00 00 00	 mov	 eax, 1
  0074b	6b c8 30	 imul	 ecx, eax, 48
  0074e	c6 81 00 00 00
	00 42		 mov	 BYTE PTR ?dinput_to_ascii_upper_table@@3PADA[ecx], 66 ; 00000042H

; 228  : 	dinput_to_ascii_upper_table [DIK_N] = 'N';

  00755	b8 01 00 00 00	 mov	 eax, 1
  0075a	6b c8 31	 imul	 ecx, eax, 49
  0075d	c6 81 00 00 00
	00 4e		 mov	 BYTE PTR ?dinput_to_ascii_upper_table@@3PADA[ecx], 78 ; 0000004eH

; 229  : 	dinput_to_ascii_upper_table [DIK_M] = 'M';

  00764	b8 01 00 00 00	 mov	 eax, 1
  00769	6b c8 32	 imul	 ecx, eax, 50
  0076c	c6 81 00 00 00
	00 4d		 mov	 BYTE PTR ?dinput_to_ascii_upper_table@@3PADA[ecx], 77 ; 0000004dH

; 230  : 	dinput_to_ascii_upper_table [DIK_COMMA] = '<';

  00773	b8 01 00 00 00	 mov	 eax, 1
  00778	6b c8 33	 imul	 ecx, eax, 51
  0077b	c6 81 00 00 00
	00 3c		 mov	 BYTE PTR ?dinput_to_ascii_upper_table@@3PADA[ecx], 60 ; 0000003cH

; 231  : 	dinput_to_ascii_upper_table [DIK_PERIOD] = '>';

  00782	b8 01 00 00 00	 mov	 eax, 1
  00787	6b c8 34	 imul	 ecx, eax, 52
  0078a	c6 81 00 00 00
	00 3e		 mov	 BYTE PTR ?dinput_to_ascii_upper_table@@3PADA[ecx], 62 ; 0000003eH

; 232  : 	dinput_to_ascii_upper_table [DIK_SLASH] = '\?';

  00791	b8 01 00 00 00	 mov	 eax, 1
  00796	6b c8 35	 imul	 ecx, eax, 53
  00799	c6 81 00 00 00
	00 3f		 mov	 BYTE PTR ?dinput_to_ascii_upper_table@@3PADA[ecx], 63 ; 0000003fH

; 233  : 	dinput_to_ascii_upper_table [DIK_MULTIPLY] = '*';

  007a0	b8 01 00 00 00	 mov	 eax, 1
  007a5	6b c8 37	 imul	 ecx, eax, 55
  007a8	c6 81 00 00 00
	00 2a		 mov	 BYTE PTR ?dinput_to_ascii_upper_table@@3PADA[ecx], 42 ; 0000002aH

; 234  : 	dinput_to_ascii_upper_table [DIK_SPACE] = ' ';

  007af	b8 01 00 00 00	 mov	 eax, 1
  007b4	6b c8 39	 imul	 ecx, eax, 57
  007b7	c6 81 00 00 00
	00 20		 mov	 BYTE PTR ?dinput_to_ascii_upper_table@@3PADA[ecx], 32 ; 00000020H

; 235  : 	dinput_to_ascii_upper_table [DIK_NUMPAD7] = '7';

  007be	b8 01 00 00 00	 mov	 eax, 1
  007c3	6b c8 47	 imul	 ecx, eax, 71
  007c6	c6 81 00 00 00
	00 37		 mov	 BYTE PTR ?dinput_to_ascii_upper_table@@3PADA[ecx], 55 ; 00000037H

; 236  : 	dinput_to_ascii_upper_table [DIK_NUMPAD8] = '8';

  007cd	b8 01 00 00 00	 mov	 eax, 1
  007d2	6b c8 48	 imul	 ecx, eax, 72
  007d5	c6 81 00 00 00
	00 38		 mov	 BYTE PTR ?dinput_to_ascii_upper_table@@3PADA[ecx], 56 ; 00000038H

; 237  : 	dinput_to_ascii_upper_table [DIK_NUMPAD9] = '9';

  007dc	b8 01 00 00 00	 mov	 eax, 1
  007e1	6b c8 49	 imul	 ecx, eax, 73
  007e4	c6 81 00 00 00
	00 39		 mov	 BYTE PTR ?dinput_to_ascii_upper_table@@3PADA[ecx], 57 ; 00000039H

; 238  : 	dinput_to_ascii_upper_table [DIK_SUBTRACT] = '-';

  007eb	b8 01 00 00 00	 mov	 eax, 1
  007f0	6b c8 4a	 imul	 ecx, eax, 74
  007f3	c6 81 00 00 00
	00 2d		 mov	 BYTE PTR ?dinput_to_ascii_upper_table@@3PADA[ecx], 45 ; 0000002dH

; 239  : 	dinput_to_ascii_upper_table [DIK_NUMPAD4] = '4';

  007fa	b8 01 00 00 00	 mov	 eax, 1
  007ff	6b c8 4b	 imul	 ecx, eax, 75
  00802	c6 81 00 00 00
	00 34		 mov	 BYTE PTR ?dinput_to_ascii_upper_table@@3PADA[ecx], 52 ; 00000034H

; 240  : 	dinput_to_ascii_upper_table [DIK_NUMPAD5] = '5';

  00809	b8 01 00 00 00	 mov	 eax, 1
  0080e	6b c8 4c	 imul	 ecx, eax, 76
  00811	c6 81 00 00 00
	00 35		 mov	 BYTE PTR ?dinput_to_ascii_upper_table@@3PADA[ecx], 53 ; 00000035H

; 241  : 	dinput_to_ascii_upper_table [DIK_NUMPAD6] = '6';

  00818	b8 01 00 00 00	 mov	 eax, 1
  0081d	6b c8 4d	 imul	 ecx, eax, 77
  00820	c6 81 00 00 00
	00 36		 mov	 BYTE PTR ?dinput_to_ascii_upper_table@@3PADA[ecx], 54 ; 00000036H

; 242  : 	dinput_to_ascii_upper_table [DIK_ADD] = '+';

  00827	b8 01 00 00 00	 mov	 eax, 1
  0082c	6b c8 4e	 imul	 ecx, eax, 78
  0082f	c6 81 00 00 00
	00 2b		 mov	 BYTE PTR ?dinput_to_ascii_upper_table@@3PADA[ecx], 43 ; 0000002bH

; 243  : 	dinput_to_ascii_upper_table [DIK_NUMPAD1] = '1';

  00836	b8 01 00 00 00	 mov	 eax, 1
  0083b	6b c8 4f	 imul	 ecx, eax, 79
  0083e	c6 81 00 00 00
	00 31		 mov	 BYTE PTR ?dinput_to_ascii_upper_table@@3PADA[ecx], 49 ; 00000031H

; 244  : 	dinput_to_ascii_upper_table [DIK_NUMPAD2] = '2';

  00845	b8 01 00 00 00	 mov	 eax, 1
  0084a	6b c8 50	 imul	 ecx, eax, 80
  0084d	c6 81 00 00 00
	00 32		 mov	 BYTE PTR ?dinput_to_ascii_upper_table@@3PADA[ecx], 50 ; 00000032H

; 245  : 	dinput_to_ascii_upper_table [DIK_NUMPAD3] = '3';

  00854	b8 01 00 00 00	 mov	 eax, 1
  00859	6b c8 51	 imul	 ecx, eax, 81
  0085c	c6 81 00 00 00
	00 33		 mov	 BYTE PTR ?dinput_to_ascii_upper_table@@3PADA[ecx], 51 ; 00000033H

; 246  : 	dinput_to_ascii_upper_table [DIK_NUMPAD0] = '0';

  00863	b8 01 00 00 00	 mov	 eax, 1
  00868	6b c8 52	 imul	 ecx, eax, 82
  0086b	c6 81 00 00 00
	00 30		 mov	 BYTE PTR ?dinput_to_ascii_upper_table@@3PADA[ecx], 48 ; 00000030H

; 247  : 	dinput_to_ascii_upper_table [DIK_DECIMAL] = '.';

  00872	b8 01 00 00 00	 mov	 eax, 1
  00877	6b c8 53	 imul	 ecx, eax, 83
  0087a	c6 81 00 00 00
	00 2e		 mov	 BYTE PTR ?dinput_to_ascii_upper_table@@3PADA[ecx], 46 ; 0000002eH

; 248  : 	dinput_to_ascii_upper_table [DIK_NUMPADEQUALS] = '=';

  00881	b8 01 00 00 00	 mov	 eax, 1
  00886	69 c8 8d 00 00
	00		 imul	 ecx, eax, 141
  0088c	c6 81 00 00 00
	00 3d		 mov	 BYTE PTR ?dinput_to_ascii_upper_table@@3PADA[ecx], 61 ; 0000003dH

; 249  : 	dinput_to_ascii_upper_table [DIK_CIRCUMFLEX] = '~';

  00893	b8 01 00 00 00	 mov	 eax, 1
  00898	69 c8 90 00 00
	00		 imul	 ecx, eax, 144
  0089e	c6 81 00 00 00
	00 7e		 mov	 BYTE PTR ?dinput_to_ascii_upper_table@@3PADA[ecx], 126 ; 0000007eH

; 250  : 	dinput_to_ascii_upper_table [DIK_COLON] = ':';

  008a5	b8 01 00 00 00	 mov	 eax, 1
  008aa	69 c8 92 00 00
	00		 imul	 ecx, eax, 146
  008b0	c6 81 00 00 00
	00 3a		 mov	 BYTE PTR ?dinput_to_ascii_upper_table@@3PADA[ecx], 58 ; 0000003aH

; 251  : 	dinput_to_ascii_upper_table [DIK_UNDERLINE] = '_';

  008b7	b8 01 00 00 00	 mov	 eax, 1
  008bc	69 c8 93 00 00
	00		 imul	 ecx, eax, 147
  008c2	c6 81 00 00 00
	00 5f		 mov	 BYTE PTR ?dinput_to_ascii_upper_table@@3PADA[ecx], 95 ; 0000005fH

; 252  : 	dinput_to_ascii_upper_table [DIK_STOP] = '.';

  008c9	b8 01 00 00 00	 mov	 eax, 1
  008ce	69 c8 95 00 00
	00		 imul	 ecx, eax, 149
  008d4	c6 81 00 00 00
	00 2e		 mov	 BYTE PTR ?dinput_to_ascii_upper_table@@3PADA[ecx], 46 ; 0000002eH

; 253  : 	dinput_to_ascii_upper_table [DIK_DIVIDE] = '/';

  008db	b8 01 00 00 00	 mov	 eax, 1
  008e0	69 c8 b5 00 00
	00		 imul	 ecx, eax, 181
  008e6	c6 81 00 00 00
	00 2f		 mov	 BYTE PTR ?dinput_to_ascii_upper_table@@3PADA[ecx], 47 ; 0000002fH

; 254  : }

  008ed	5f		 pop	 edi
  008ee	5e		 pop	 esi
  008ef	5b		 pop	 ebx
  008f0	8b e5		 mov	 esp, ebp
  008f2	5d		 pop	 ebp
  008f3	c3		 ret	 0
?initialise_dinput_to_ascii_conversion_table@@YGXXZ ENDP ; initialise_dinput_to_ascii_conversion_table
_TEXT	ENDS
END
