; Listing generated by Microsoft (R) Optimizing Compiler Version 19.16.27045.0 

	TITLE	C:\Users\nhv90\Projects\eech\aphavoc\source\gunships\avionics\blackhawk\bh_avlmp.c
	.686P
	.XMM
	include listing.inc
	.model	flat

INCLUDELIB MSVCRTD
INCLUDELIB OLDNAMES

PUBLIC	?activate_blackhawk_master_caution@@YGXXZ	; activate_blackhawk_master_caution
PUBLIC	?deactivate_blackhawk_master_caution@@YGXXZ	; deactivate_blackhawk_master_caution
PUBLIC	?initialise_blackhawk_lamp_avionics@@YGXXZ	; initialise_blackhawk_lamp_avionics
PUBLIC	?deinitialise_blackhawk_lamp_avionics@@YGXXZ	; deinitialise_blackhawk_lamp_avionics
PUBLIC	?update_blackhawk_lamp_avionics@@YGXXZ		; update_blackhawk_lamp_avionics
PUBLIC	?__LINE__Var@?0??update_indicator_lamps@@YGXXZ@4JA ; `update_indicator_lamps'::`1'::__LINE__Var
PUBLIC	??_C@_0FD@KNNIENEC@c?3?2users?2nhv90?2projects?2eech?2ap@ ; `string'
PUBLIC	__real@3f000000
PUBLIC	__real@3fe999999999999a
PUBLIC	__real@40400000
PUBLIC	__real@4056800000000000
EXTRN	?process_assert@@YGXPBD0H@Z:PROC		; process_assert
EXTRN	?play_client_server_warning_message@@YGHPAUENTITY@@H@Z:PROC ; play_client_server_warning_message
EXTRN	?pause_local_entity_sound_type@@YGHPAUENTITY@@HM@Z:PROC ; pause_local_entity_sound_type
EXTRN	?resume_local_entity_sound_type@@YGHPAUENTITY@@H@Z:PROC ; resume_local_entity_sound_type
EXTRN	?get_blackhawk_mfd_has_focus@@YGHW4MFD_LOCATIONS@@@Z:PROC ; get_blackhawk_mfd_has_focus
EXTRN	?get_current_flight_dynamics_auto_pilot@@YGHXZ:PROC ; get_current_flight_dynamics_auto_pilot
EXTRN	?system_delta_time@@3MA:DWORD			; system_delta_time
EXTRN	?null_entity_pointer_message@@3PBDB:DWORD	; null_entity_pointer_message
EXTRN	?overload_invalid_int_type_message@@3PBDB:DWORD	; overload_invalid_int_type_message
EXTRN	?fn_get_local_entity_int_value@@3PAY0BBH@P6GHPAUENTITY@@W4INT_TYPES@@@ZA:BYTE ; fn_get_local_entity_int_value
EXTRN	?gunship_entity@@3PAUENTITY@@A:DWORD		; gunship_entity
EXTRN	?blackhawk_lamps@@3UBLACKHAWK_LAMP_FLAGS@@A:DWORD ; blackhawk_lamps
EXTRN	?current_flight_dynamics@@3PAUDYNAMICS_TYPE@@A:DWORD ; current_flight_dynamics
EXTRN	__fltused:DWORD
_BSS	SEGMENT
?engine_damage_imminent_status@@3HA DD 01H DUP (?)	; engine_damage_imminent_status
?previous_engine_damage_imminent_status@@3HA DD 01H DUP (?) ; previous_engine_damage_imminent_status
?master_caution_sound_timer@@3MA DD 01H DUP (?)		; master_caution_sound_timer
_BSS	ENDS
;	COMDAT __real@4056800000000000
CONST	SEGMENT
__real@4056800000000000 DQ 04056800000000000r	; 90
CONST	ENDS
;	COMDAT __real@40400000
CONST	SEGMENT
__real@40400000 DD 040400000r			; 3
CONST	ENDS
;	COMDAT __real@3fe999999999999a
CONST	SEGMENT
__real@3fe999999999999a DQ 03fe999999999999ar	; 0.8
CONST	ENDS
;	COMDAT __real@3f000000
CONST	SEGMENT
__real@3f000000 DD 03f000000r			; 0.5
CONST	ENDS
;	COMDAT ??_C@_0FD@KNNIENEC@c?3?2users?2nhv90?2projects?2eech?2ap@
CONST	SEGMENT
??_C@_0FD@KNNIENEC@c?3?2users?2nhv90?2projects?2eech?2ap@ DB 'c:\users\nh'
	DB	'v90\projects\eech\aphavoc\source\gunships\avionics\blackhawk\'
	DB	'bh_avlmp.c', 00H				; `string'
CONST	ENDS
;	COMDAT ?__LINE__Var@?0??update_indicator_lamps@@YGXXZ@4JA
_DATA	SEGMENT
?__LINE__Var@?0??update_indicator_lamps@@YGXXZ@4JA DD 0caH ; `update_indicator_lamps'::`1'::__LINE__Var
_DATA	ENDS
; Function compile flags: /Odtp /ZI
; File c:\users\nhv90\projects\eech\aphavoc\source\gunships\avionics\blackhawk\bh_avlmp.c
;	COMDAT ?update_mfd_lamps@@YGXXZ
_TEXT	SEGMENT
tv73 = -68						; size = 4
tv66 = -68						; size = 4
?update_mfd_lamps@@YGXXZ PROC				; update_mfd_lamps, COMDAT

; 238  : {

  00000	55		 push	 ebp
  00001	8b ec		 mov	 ebp, esp
  00003	83 ec 44	 sub	 esp, 68			; 00000044H
  00006	53		 push	 ebx
  00007	56		 push	 esi
  00008	57		 push	 edi

; 239  : 	blackhawk_lamps.mfd_lamp_1 = get_blackhawk_mfd_has_focus (MFD_LOCATION_LHS);

  00009	6a 00		 push	 0
  0000b	e8 00 00 00 00	 call	 ?get_blackhawk_mfd_has_focus@@YGHW4MFD_LOCATIONS@@@Z ; get_blackhawk_mfd_has_focus
  00010	89 45 bc	 mov	 DWORD PTR tv66[ebp], eax
  00013	8b 45 bc	 mov	 eax, DWORD PTR tv66[ebp]
  00016	83 e0 01	 and	 eax, 1
  00019	c1 e0 0e	 shl	 eax, 14			; 0000000eH
  0001c	8b 0d 00 00 00
	00		 mov	 ecx, DWORD PTR ?blackhawk_lamps@@3UBLACKHAWK_LAMP_FLAGS@@A ; blackhawk_lamps
  00022	81 e1 ff bf ff
	ff		 and	 ecx, -16385		; ffffbfffH
  00028	0b c8		 or	 ecx, eax
  0002a	89 0d 00 00 00
	00		 mov	 DWORD PTR ?blackhawk_lamps@@3UBLACKHAWK_LAMP_FLAGS@@A, ecx ; blackhawk_lamps

; 240  : 
; 241  : 	blackhawk_lamps.mfd_lamp_2 = get_blackhawk_mfd_has_focus (MFD_LOCATION_RHS);

  00030	6a 01		 push	 1
  00032	e8 00 00 00 00	 call	 ?get_blackhawk_mfd_has_focus@@YGHW4MFD_LOCATIONS@@@Z ; get_blackhawk_mfd_has_focus
  00037	89 45 bc	 mov	 DWORD PTR tv73[ebp], eax
  0003a	8b 45 bc	 mov	 eax, DWORD PTR tv73[ebp]
  0003d	83 e0 01	 and	 eax, 1
  00040	c1 e0 0f	 shl	 eax, 15			; 0000000fH
  00043	8b 0d 00 00 00
	00		 mov	 ecx, DWORD PTR ?blackhawk_lamps@@3UBLACKHAWK_LAMP_FLAGS@@A ; blackhawk_lamps
  00049	81 e1 ff 7f ff
	ff		 and	 ecx, -32769		; ffff7fffH
  0004f	0b c8		 or	 ecx, eax
  00051	89 0d 00 00 00
	00		 mov	 DWORD PTR ?blackhawk_lamps@@3UBLACKHAWK_LAMP_FLAGS@@A, ecx ; blackhawk_lamps

; 242  : }

  00057	5f		 pop	 edi
  00058	5e		 pop	 esi
  00059	5b		 pop	 ebx
  0005a	8b e5		 mov	 esp, ebp
  0005c	5d		 pop	 ebp
  0005d	c3		 ret	 0
?update_mfd_lamps@@YGXXZ ENDP				; update_mfd_lamps
_TEXT	ENDS
; Function compile flags: /Odtp /ZI
; File c:\users\nhv90\projects\eech\aphavoc\source\gunships\avionics\blackhawk\bh_avlmp.c
;	COMDAT ?update_indicator_lamps@@YGXXZ
_TEXT	SEGMENT
tv223 = -80						; size = 4
tv198 = -80						; size = 4
tv173 = -80						; size = 4
tv217 = -76						; size = 4
tv192 = -76						; size = 4
tv167 = -76						; size = 4
tv209 = -72						; size = 4
tv184 = -72						; size = 4
tv159 = -72						; size = 4
tv148 = -72						; size = 4
tv135 = -72						; size = 4
tv90 = -72						; size = 4
tv79 = -72						; size = 4
_en$ = -4						; size = 4
?update_indicator_lamps@@YGXXZ PROC			; update_indicator_lamps, COMDAT

; 202  : {

  00000	55		 push	 ebp
  00001	8b ec		 mov	 ebp, esp
  00003	83 ec 50	 sub	 esp, 80			; 00000050H
  00006	53		 push	 ebx
  00007	56		 push	 esi
  00008	57		 push	 edi

; 203  : 	entity
; 204  : 		*en;
; 205  : 
; 206  : 	en = get_gunship_entity ();

  00009	a1 00 00 00 00	 mov	 eax, DWORD PTR ?gunship_entity@@3PAUENTITY@@A ; gunship_entity
  0000e	89 45 fc	 mov	 DWORD PTR _en$[ebp], eax

; 207  : 
; 208  : 	blackhawk_lamps.indicator_lamp_1 = get_current_flight_dynamics_rotor_brake ();

  00011	a1 00 00 00 00	 mov	 eax, DWORD PTR ?current_flight_dynamics@@3PAUDYNAMICS_TYPE@@A ; current_flight_dynamics
  00016	8b 88 28 25 00
	00		 mov	 ecx, DWORD PTR [eax+9512]
  0001c	c1 e9 05	 shr	 ecx, 5
  0001f	83 e1 01	 and	 ecx, 1
  00022	83 e1 01	 and	 ecx, 1
  00025	8b 15 00 00 00
	00		 mov	 edx, DWORD PTR ?blackhawk_lamps@@3UBLACKHAWK_LAMP_FLAGS@@A ; blackhawk_lamps
  0002b	83 e2 fe	 and	 edx, -2			; fffffffeH
  0002e	0b d1		 or	 edx, ecx
  00030	89 15 00 00 00
	00		 mov	 DWORD PTR ?blackhawk_lamps@@3UBLACKHAWK_LAMP_FLAGS@@A, edx ; blackhawk_lamps

; 209  : 
; 210  : 	blackhawk_lamps.indicator_lamp_2 = get_current_flight_dynamics_overtorque ();

  00036	e8 00 00 00 00	 call	 ?get_current_flight_dynamics_auto_pilot@@YGHXZ ; get_current_flight_dynamics_auto_pilot
  0003b	85 c0		 test	 eax, eax
  0003d	75 2c		 jne	 SHORT $LN3@update_ind
  0003f	a1 00 00 00 00	 mov	 eax, DWORD PTR ?current_flight_dynamics@@3PAUDYNAMICS_TYPE@@A ; current_flight_dynamics
  00044	8b 88 28 25 00
	00		 mov	 ecx, DWORD PTR [eax+9512]
  0004a	83 e1 01	 and	 ecx, 1
  0004d	8b 15 00 00 00
	00		 mov	 edx, DWORD PTR ?current_flight_dynamics@@3PAUDYNAMICS_TYPE@@A ; current_flight_dynamics
  00053	8b 82 28 25 00
	00		 mov	 eax, DWORD PTR [edx+9512]
  00059	d1 e8		 shr	 eax, 1
  0005b	83 e0 01	 and	 eax, 1
  0005e	0b c8		 or	 ecx, eax
  00060	74 09		 je	 SHORT $LN3@update_ind
  00062	c7 45 b8 01 00
	00 00		 mov	 DWORD PTR tv79[ebp], 1
  00069	eb 07		 jmp	 SHORT $LN4@update_ind
$LN3@update_ind:
  0006b	c7 45 b8 00 00
	00 00		 mov	 DWORD PTR tv79[ebp], 0
$LN4@update_ind:
  00072	8b 4d b8	 mov	 ecx, DWORD PTR tv79[ebp]
  00075	83 e1 01	 and	 ecx, 1
  00078	d1 e1		 shl	 ecx, 1
  0007a	8b 15 00 00 00
	00		 mov	 edx, DWORD PTR ?blackhawk_lamps@@3UBLACKHAWK_LAMP_FLAGS@@A ; blackhawk_lamps
  00080	83 e2 fd	 and	 edx, -3			; fffffffdH
  00083	0b d1		 or	 edx, ecx
  00085	89 15 00 00 00
	00		 mov	 DWORD PTR ?blackhawk_lamps@@3UBLACKHAWK_LAMP_FLAGS@@A, edx ; blackhawk_lamps

; 211  : 
; 212  : 	blackhawk_lamps.indicator_lamp_3 = get_current_flight_dynamics_low_rotor_rpm ();

  0008b	e8 00 00 00 00	 call	 ?get_current_flight_dynamics_auto_pilot@@YGHXZ ; get_current_flight_dynamics_auto_pilot
  00090	85 c0		 test	 eax, eax
  00092	75 24		 jne	 SHORT $LN5@update_ind
  00094	a1 00 00 00 00	 mov	 eax, DWORD PTR ?current_flight_dynamics@@3PAUDYNAMICS_TYPE@@A ; current_flight_dynamics
  00099	f3 0f 5a 80 14
	1e 00 00	 cvtss2sd xmm0, DWORD PTR [eax+7700]
  000a1	f2 0f 10 0d 00
	00 00 00	 movsd	 xmm1, QWORD PTR __real@4056800000000000
  000a9	66 0f 2f c8	 comisd	 xmm1, xmm0
  000ad	76 09		 jbe	 SHORT $LN5@update_ind
  000af	c7 45 b8 01 00
	00 00		 mov	 DWORD PTR tv90[ebp], 1
  000b6	eb 07		 jmp	 SHORT $LN6@update_ind
$LN5@update_ind:
  000b8	c7 45 b8 00 00
	00 00		 mov	 DWORD PTR tv90[ebp], 0
$LN6@update_ind:
  000bf	8b 4d b8	 mov	 ecx, DWORD PTR tv90[ebp]
  000c2	83 e1 01	 and	 ecx, 1
  000c5	c1 e1 02	 shl	 ecx, 2
  000c8	8b 15 00 00 00
	00		 mov	 edx, DWORD PTR ?blackhawk_lamps@@3UBLACKHAWK_LAMP_FLAGS@@A ; blackhawk_lamps
  000ce	83 e2 fb	 and	 edx, -5			; fffffffbH
  000d1	0b d1		 or	 edx, ecx
  000d3	89 15 00 00 00
	00		 mov	 DWORD PTR ?blackhawk_lamps@@3UBLACKHAWK_LAMP_FLAGS@@A, edx ; blackhawk_lamps

; 213  : 
; 214  : 	blackhawk_lamps.indicator_lamp_4 = get_current_flight_dynamics_wheel_brake ();

  000d9	a1 00 00 00 00	 mov	 eax, DWORD PTR ?current_flight_dynamics@@3PAUDYNAMICS_TYPE@@A ; current_flight_dynamics
  000de	8b 88 28 25 00
	00		 mov	 ecx, DWORD PTR [eax+9512]
  000e4	c1 e9 06	 shr	 ecx, 6
  000e7	83 e1 01	 and	 ecx, 1
  000ea	83 e1 01	 and	 ecx, 1
  000ed	c1 e1 03	 shl	 ecx, 3
  000f0	8b 15 00 00 00
	00		 mov	 edx, DWORD PTR ?blackhawk_lamps@@3UBLACKHAWK_LAMP_FLAGS@@A ; blackhawk_lamps
  000f6	83 e2 f7	 and	 edx, -9			; fffffff7H
  000f9	0b d1		 or	 edx, ecx
  000fb	89 15 00 00 00
	00		 mov	 DWORD PTR ?blackhawk_lamps@@3UBLACKHAWK_LAMP_FLAGS@@A, edx ; blackhawk_lamps

; 215  : 
; 216  : 	blackhawk_lamps.indicator_lamp_5 = get_current_flight_dynamics_auto_pilot ();

  00101	e8 00 00 00 00	 call	 ?get_current_flight_dynamics_auto_pilot@@YGHXZ ; get_current_flight_dynamics_auto_pilot
  00106	89 45 b8	 mov	 DWORD PTR tv135[ebp], eax
  00109	8b 45 b8	 mov	 eax, DWORD PTR tv135[ebp]
  0010c	83 e0 01	 and	 eax, 1
  0010f	c1 e0 04	 shl	 eax, 4
  00112	8b 0d 00 00 00
	00		 mov	 ecx, DWORD PTR ?blackhawk_lamps@@3UBLACKHAWK_LAMP_FLAGS@@A ; blackhawk_lamps
  00118	83 e1 ef	 and	 ecx, -17		; ffffffefH
  0011b	0b c8		 or	 ecx, eax
  0011d	89 0d 00 00 00
	00		 mov	 DWORD PTR ?blackhawk_lamps@@3UBLACKHAWK_LAMP_FLAGS@@A, ecx ; blackhawk_lamps

; 217  : 
; 218  : 	blackhawk_lamps.indicator_lamp_6 = get_current_flight_dynamics_auto_hover ();

  00123	a1 00 00 00 00	 mov	 eax, DWORD PTR ?current_flight_dynamics@@3PAUDYNAMICS_TYPE@@A ; current_flight_dynamics
  00128	8b 88 28 25 00
	00		 mov	 ecx, DWORD PTR [eax+9512]
  0012e	c1 e9 07	 shr	 ecx, 7
  00131	83 e1 07	 and	 ecx, 7
  00134	83 f9 01	 cmp	 ecx, 1
  00137	74 20		 je	 SHORT $LN7@update_ind
  00139	8b 15 00 00 00
	00		 mov	 edx, DWORD PTR ?current_flight_dynamics@@3PAUDYNAMICS_TYPE@@A ; current_flight_dynamics
  0013f	8b 82 28 25 00
	00		 mov	 eax, DWORD PTR [edx+9512]
  00145	c1 e8 07	 shr	 eax, 7
  00148	83 e0 07	 and	 eax, 7
  0014b	83 f8 02	 cmp	 eax, 2
  0014e	74 09		 je	 SHORT $LN7@update_ind
  00150	c7 45 b8 00 00
	00 00		 mov	 DWORD PTR tv148[ebp], 0
  00157	eb 07		 jmp	 SHORT $LN8@update_ind
$LN7@update_ind:
  00159	c7 45 b8 01 00
	00 00		 mov	 DWORD PTR tv148[ebp], 1
$LN8@update_ind:
  00160	8b 4d b8	 mov	 ecx, DWORD PTR tv148[ebp]
  00163	83 e1 01	 and	 ecx, 1
  00166	c1 e1 05	 shl	 ecx, 5
  00169	8b 15 00 00 00
	00		 mov	 edx, DWORD PTR ?blackhawk_lamps@@3UBLACKHAWK_LAMP_FLAGS@@A ; blackhawk_lamps
  0016f	83 e2 df	 and	 edx, -33		; ffffffdfH
  00172	0b d1		 or	 edx, ecx
  00174	89 15 00 00 00
	00		 mov	 DWORD PTR ?blackhawk_lamps@@3UBLACKHAWK_LAMP_FLAGS@@A, edx ; blackhawk_lamps

; 219  : 
; 220  : 	blackhawk_lamps.indicator_lamp_7 = get_local_entity_int_value (en, INT_TYPE_RADAR_ON);

  0017a	83 7d fc 00	 cmp	 DWORD PTR _en$[ebp], 0
  0017e	74 0a		 je	 SHORT $LN9@update_ind
  00180	8b 45 fc	 mov	 eax, DWORD PTR _en$[ebp]
  00183	8b 08		 mov	 ecx, DWORD PTR [eax]
  00185	89 4d b8	 mov	 DWORD PTR tv159[ebp], ecx
  00188	eb 21		 jmp	 SHORT $LN10@update_ind
$LN9@update_ind:
  0018a	8b 15 00 00 00
	00		 mov	 edx, DWORD PTR ?__LINE__Var@?0??update_indicator_lamps@@YGXXZ@4JA
  00190	83 c2 12	 add	 edx, 18			; 00000012H
  00193	52		 push	 edx
  00194	68 00 00 00 00	 push	 OFFSET ??_C@_0FD@KNNIENEC@c?3?2users?2nhv90?2projects?2eech?2ap@
  00199	a1 00 00 00 00	 mov	 eax, DWORD PTR ?null_entity_pointer_message@@3PBDB ; null_entity_pointer_message
  0019e	50		 push	 eax
  0019f	e8 00 00 00 00	 call	 ?process_assert@@YGXPBD0H@Z ; process_assert
  001a4	c7 45 b8 00 00
	00 00		 mov	 DWORD PTR tv159[ebp], 0
$LN10@update_ind:
  001ab	b9 01 00 00 00	 mov	 ecx, 1
  001b0	85 c9		 test	 ecx, ecx
  001b2	74 09		 je	 SHORT $LN11@update_ind
  001b4	c7 45 b4 a9 00
	00 00		 mov	 DWORD PTR tv167[ebp], 169 ; 000000a9H
  001bb	eb 21		 jmp	 SHORT $LN12@update_ind
$LN11@update_ind:
  001bd	8b 15 00 00 00
	00		 mov	 edx, DWORD PTR ?__LINE__Var@?0??update_indicator_lamps@@YGXXZ@4JA
  001c3	83 c2 12	 add	 edx, 18			; 00000012H
  001c6	52		 push	 edx
  001c7	68 00 00 00 00	 push	 OFFSET ??_C@_0FD@KNNIENEC@c?3?2users?2nhv90?2projects?2eech?2ap@
  001cc	a1 00 00 00 00	 mov	 eax, DWORD PTR ?overload_invalid_int_type_message@@3PBDB ; overload_invalid_int_type_message
  001d1	50		 push	 eax
  001d2	e8 00 00 00 00	 call	 ?process_assert@@YGXPBD0H@Z ; process_assert
  001d7	c7 45 b4 00 00
	00 00		 mov	 DWORD PTR tv167[ebp], 0
$LN12@update_ind:
  001de	68 a9 00 00 00	 push	 169			; 000000a9H
  001e3	8b 4d fc	 mov	 ecx, DWORD PTR _en$[ebp]
  001e6	51		 push	 ecx
  001e7	69 55 b8 5c 04
	00 00		 imul	 edx, DWORD PTR tv159[ebp], 1116
  001ee	8b 45 b4	 mov	 eax, DWORD PTR tv167[ebp]
  001f1	8b 8c 82 00 00
	00 00		 mov	 ecx, DWORD PTR ?fn_get_local_entity_int_value@@3PAY0BBH@P6GHPAUENTITY@@W4INT_TYPES@@@ZA[edx+eax*4]
  001f8	ff d1		 call	 ecx
  001fa	89 45 b0	 mov	 DWORD PTR tv173[ebp], eax
  001fd	8b 55 b0	 mov	 edx, DWORD PTR tv173[ebp]
  00200	83 e2 01	 and	 edx, 1
  00203	c1 e2 06	 shl	 edx, 6
  00206	a1 00 00 00 00	 mov	 eax, DWORD PTR ?blackhawk_lamps@@3UBLACKHAWK_LAMP_FLAGS@@A ; blackhawk_lamps
  0020b	83 e0 bf	 and	 eax, -65		; ffffffbfH
  0020e	0b c2		 or	 eax, edx
  00210	a3 00 00 00 00	 mov	 DWORD PTR ?blackhawk_lamps@@3UBLACKHAWK_LAMP_FLAGS@@A, eax ; blackhawk_lamps

; 221  : 
; 222  : 	blackhawk_lamps.indicator_lamp_8 = get_local_entity_int_value (en, INT_TYPE_RADAR_JAMMER_ON);

  00215	83 7d fc 00	 cmp	 DWORD PTR _en$[ebp], 0
  00219	74 0a		 je	 SHORT $LN13@update_ind
  0021b	8b 45 fc	 mov	 eax, DWORD PTR _en$[ebp]
  0021e	8b 08		 mov	 ecx, DWORD PTR [eax]
  00220	89 4d b8	 mov	 DWORD PTR tv184[ebp], ecx
  00223	eb 21		 jmp	 SHORT $LN14@update_ind
$LN13@update_ind:
  00225	8b 15 00 00 00
	00		 mov	 edx, DWORD PTR ?__LINE__Var@?0??update_indicator_lamps@@YGXXZ@4JA
  0022b	83 c2 14	 add	 edx, 20			; 00000014H
  0022e	52		 push	 edx
  0022f	68 00 00 00 00	 push	 OFFSET ??_C@_0FD@KNNIENEC@c?3?2users?2nhv90?2projects?2eech?2ap@
  00234	a1 00 00 00 00	 mov	 eax, DWORD PTR ?null_entity_pointer_message@@3PBDB ; null_entity_pointer_message
  00239	50		 push	 eax
  0023a	e8 00 00 00 00	 call	 ?process_assert@@YGXPBD0H@Z ; process_assert
  0023f	c7 45 b8 00 00
	00 00		 mov	 DWORD PTR tv184[ebp], 0
$LN14@update_ind:
  00246	b9 01 00 00 00	 mov	 ecx, 1
  0024b	85 c9		 test	 ecx, ecx
  0024d	74 09		 je	 SHORT $LN15@update_ind
  0024f	c7 45 b4 a8 00
	00 00		 mov	 DWORD PTR tv192[ebp], 168 ; 000000a8H
  00256	eb 21		 jmp	 SHORT $LN16@update_ind
$LN15@update_ind:
  00258	8b 15 00 00 00
	00		 mov	 edx, DWORD PTR ?__LINE__Var@?0??update_indicator_lamps@@YGXXZ@4JA
  0025e	83 c2 14	 add	 edx, 20			; 00000014H
  00261	52		 push	 edx
  00262	68 00 00 00 00	 push	 OFFSET ??_C@_0FD@KNNIENEC@c?3?2users?2nhv90?2projects?2eech?2ap@
  00267	a1 00 00 00 00	 mov	 eax, DWORD PTR ?overload_invalid_int_type_message@@3PBDB ; overload_invalid_int_type_message
  0026c	50		 push	 eax
  0026d	e8 00 00 00 00	 call	 ?process_assert@@YGXPBD0H@Z ; process_assert
  00272	c7 45 b4 00 00
	00 00		 mov	 DWORD PTR tv192[ebp], 0
$LN16@update_ind:
  00279	68 a8 00 00 00	 push	 168			; 000000a8H
  0027e	8b 4d fc	 mov	 ecx, DWORD PTR _en$[ebp]
  00281	51		 push	 ecx
  00282	69 55 b8 5c 04
	00 00		 imul	 edx, DWORD PTR tv184[ebp], 1116
  00289	8b 45 b4	 mov	 eax, DWORD PTR tv192[ebp]
  0028c	8b 8c 82 00 00
	00 00		 mov	 ecx, DWORD PTR ?fn_get_local_entity_int_value@@3PAY0BBH@P6GHPAUENTITY@@W4INT_TYPES@@@ZA[edx+eax*4]
  00293	ff d1		 call	 ecx
  00295	89 45 b0	 mov	 DWORD PTR tv198[ebp], eax
  00298	8b 55 b0	 mov	 edx, DWORD PTR tv198[ebp]
  0029b	83 e2 01	 and	 edx, 1
  0029e	c1 e2 07	 shl	 edx, 7
  002a1	a1 00 00 00 00	 mov	 eax, DWORD PTR ?blackhawk_lamps@@3UBLACKHAWK_LAMP_FLAGS@@A ; blackhawk_lamps
  002a6	25 7f ff ff ff	 and	 eax, -129		; ffffff7fH
  002ab	0b c2		 or	 eax, edx
  002ad	a3 00 00 00 00	 mov	 DWORD PTR ?blackhawk_lamps@@3UBLACKHAWK_LAMP_FLAGS@@A, eax ; blackhawk_lamps

; 223  : 
; 224  : 	blackhawk_lamps.indicator_lamp_9 = get_local_entity_int_value (en, INT_TYPE_INFRA_RED_JAMMER_ON);

  002b2	83 7d fc 00	 cmp	 DWORD PTR _en$[ebp], 0
  002b6	74 0a		 je	 SHORT $LN17@update_ind
  002b8	8b 45 fc	 mov	 eax, DWORD PTR _en$[ebp]
  002bb	8b 08		 mov	 ecx, DWORD PTR [eax]
  002bd	89 4d b8	 mov	 DWORD PTR tv209[ebp], ecx
  002c0	eb 21		 jmp	 SHORT $LN18@update_ind
$LN17@update_ind:
  002c2	8b 15 00 00 00
	00		 mov	 edx, DWORD PTR ?__LINE__Var@?0??update_indicator_lamps@@YGXXZ@4JA
  002c8	83 c2 16	 add	 edx, 22			; 00000016H
  002cb	52		 push	 edx
  002cc	68 00 00 00 00	 push	 OFFSET ??_C@_0FD@KNNIENEC@c?3?2users?2nhv90?2projects?2eech?2ap@
  002d1	a1 00 00 00 00	 mov	 eax, DWORD PTR ?null_entity_pointer_message@@3PBDB ; null_entity_pointer_message
  002d6	50		 push	 eax
  002d7	e8 00 00 00 00	 call	 ?process_assert@@YGXPBD0H@Z ; process_assert
  002dc	c7 45 b8 00 00
	00 00		 mov	 DWORD PTR tv209[ebp], 0
$LN18@update_ind:
  002e3	b9 01 00 00 00	 mov	 ecx, 1
  002e8	85 c9		 test	 ecx, ecx
  002ea	74 09		 je	 SHORT $LN19@update_ind
  002ec	c7 45 b4 68 00
	00 00		 mov	 DWORD PTR tv217[ebp], 104 ; 00000068H
  002f3	eb 21		 jmp	 SHORT $LN20@update_ind
$LN19@update_ind:
  002f5	8b 15 00 00 00
	00		 mov	 edx, DWORD PTR ?__LINE__Var@?0??update_indicator_lamps@@YGXXZ@4JA
  002fb	83 c2 16	 add	 edx, 22			; 00000016H
  002fe	52		 push	 edx
  002ff	68 00 00 00 00	 push	 OFFSET ??_C@_0FD@KNNIENEC@c?3?2users?2nhv90?2projects?2eech?2ap@
  00304	a1 00 00 00 00	 mov	 eax, DWORD PTR ?overload_invalid_int_type_message@@3PBDB ; overload_invalid_int_type_message
  00309	50		 push	 eax
  0030a	e8 00 00 00 00	 call	 ?process_assert@@YGXPBD0H@Z ; process_assert
  0030f	c7 45 b4 00 00
	00 00		 mov	 DWORD PTR tv217[ebp], 0
$LN20@update_ind:
  00316	6a 68		 push	 104			; 00000068H
  00318	8b 4d fc	 mov	 ecx, DWORD PTR _en$[ebp]
  0031b	51		 push	 ecx
  0031c	69 55 b8 5c 04
	00 00		 imul	 edx, DWORD PTR tv209[ebp], 1116
  00323	8b 45 b4	 mov	 eax, DWORD PTR tv217[ebp]
  00326	8b 8c 82 00 00
	00 00		 mov	 ecx, DWORD PTR ?fn_get_local_entity_int_value@@3PAY0BBH@P6GHPAUENTITY@@W4INT_TYPES@@@ZA[edx+eax*4]
  0032d	ff d1		 call	 ecx
  0032f	89 45 b0	 mov	 DWORD PTR tv223[ebp], eax
  00332	8b 55 b0	 mov	 edx, DWORD PTR tv223[ebp]
  00335	83 e2 01	 and	 edx, 1
  00338	c1 e2 08	 shl	 edx, 8
  0033b	a1 00 00 00 00	 mov	 eax, DWORD PTR ?blackhawk_lamps@@3UBLACKHAWK_LAMP_FLAGS@@A ; blackhawk_lamps
  00340	25 ff fe ff ff	 and	 eax, -257		; fffffeffH
  00345	0b c2		 or	 eax, edx
  00347	a3 00 00 00 00	 mov	 DWORD PTR ?blackhawk_lamps@@3UBLACKHAWK_LAMP_FLAGS@@A, eax ; blackhawk_lamps

; 225  : }

  0034c	5f		 pop	 edi
  0034d	5e		 pop	 esi
  0034e	5b		 pop	 ebx
  0034f	8b e5		 mov	 esp, ebp
  00351	5d		 pop	 ebp
  00352	c3		 ret	 0
?update_indicator_lamps@@YGXXZ ENDP			; update_indicator_lamps
_TEXT	ENDS
; Function compile flags: /Odtp /ZI
; File c:\users\nhv90\projects\eech\aphavoc\source\gunships\avionics\blackhawk\bh_avlmp.c
;	COMDAT ?update_engine_fire_lamps@@YGXXZ
_TEXT	SEGMENT
tv75 = -68						; size = 4
tv67 = -68						; size = 4
?update_engine_fire_lamps@@YGXXZ PROC			; update_engine_fire_lamps, COMDAT

; 185  : {

  00000	55		 push	 ebp
  00001	8b ec		 mov	 ebp, esp
  00003	83 ec 44	 sub	 esp, 68			; 00000044H
  00006	53		 push	 ebx
  00007	56		 push	 esi
  00008	57		 push	 edi

; 186  : 	blackhawk_lamps.engine_1_fire = get_dynamics_damage_type (DYNAMICS_DAMAGE_LEFT_ENGINE_FIRE);

  00009	a1 00 00 00 00	 mov	 eax, DWORD PTR ?current_flight_dynamics@@3PAUDYNAMICS_TYPE@@A ; current_flight_dynamics
  0000e	8b 88 24 25 00
	00		 mov	 ecx, DWORD PTR [eax+9508]
  00014	83 e1 20	 and	 ecx, 32			; 00000020H
  00017	74 09		 je	 SHORT $LN3@update_eng
  00019	c7 45 bc 01 00
	00 00		 mov	 DWORD PTR tv67[ebp], 1
  00020	eb 07		 jmp	 SHORT $LN4@update_eng
$LN3@update_eng:
  00022	c7 45 bc 00 00
	00 00		 mov	 DWORD PTR tv67[ebp], 0
$LN4@update_eng:
  00029	8b 55 bc	 mov	 edx, DWORD PTR tv67[ebp]
  0002c	83 e2 01	 and	 edx, 1
  0002f	c1 e2 09	 shl	 edx, 9
  00032	a1 00 00 00 00	 mov	 eax, DWORD PTR ?blackhawk_lamps@@3UBLACKHAWK_LAMP_FLAGS@@A ; blackhawk_lamps
  00037	25 ff fd ff ff	 and	 eax, -513		; fffffdffH
  0003c	0b c2		 or	 eax, edx
  0003e	a3 00 00 00 00	 mov	 DWORD PTR ?blackhawk_lamps@@3UBLACKHAWK_LAMP_FLAGS@@A, eax ; blackhawk_lamps

; 187  : 
; 188  : 	blackhawk_lamps.engine_2_fire = get_dynamics_damage_type (DYNAMICS_DAMAGE_RIGHT_ENGINE_FIRE);

  00043	a1 00 00 00 00	 mov	 eax, DWORD PTR ?current_flight_dynamics@@3PAUDYNAMICS_TYPE@@A ; current_flight_dynamics
  00048	8b 88 24 25 00
	00		 mov	 ecx, DWORD PTR [eax+9508]
  0004e	83 e1 40	 and	 ecx, 64			; 00000040H
  00051	74 09		 je	 SHORT $LN5@update_eng
  00053	c7 45 bc 01 00
	00 00		 mov	 DWORD PTR tv75[ebp], 1
  0005a	eb 07		 jmp	 SHORT $LN6@update_eng
$LN5@update_eng:
  0005c	c7 45 bc 00 00
	00 00		 mov	 DWORD PTR tv75[ebp], 0
$LN6@update_eng:
  00063	8b 55 bc	 mov	 edx, DWORD PTR tv75[ebp]
  00066	83 e2 01	 and	 edx, 1
  00069	c1 e2 0b	 shl	 edx, 11			; 0000000bH
  0006c	a1 00 00 00 00	 mov	 eax, DWORD PTR ?blackhawk_lamps@@3UBLACKHAWK_LAMP_FLAGS@@A ; blackhawk_lamps
  00071	25 ff f7 ff ff	 and	 eax, -2049		; fffff7ffH
  00076	0b c2		 or	 eax, edx
  00078	a3 00 00 00 00	 mov	 DWORD PTR ?blackhawk_lamps@@3UBLACKHAWK_LAMP_FLAGS@@A, eax ; blackhawk_lamps

; 189  : }

  0007d	5f		 pop	 edi
  0007e	5e		 pop	 esi
  0007f	5b		 pop	 ebx
  00080	8b e5		 mov	 esp, ebp
  00082	5d		 pop	 ebp
  00083	c3		 ret	 0
?update_engine_fire_lamps@@YGXXZ ENDP			; update_engine_fire_lamps
_TEXT	ENDS
; Function compile flags: /Odtp /ZI
; File c:\users\nhv90\projects\eech\aphavoc\source\gunships\avionics\blackhawk\bh_avlmp.c
;	COMDAT ?update_master_caution@@YGXXZ
_TEXT	SEGMENT
tv80 = -68						; size = 4
?update_master_caution@@YGXXZ PROC			; update_master_caution, COMDAT

; 144  : {

  00000	55		 push	 ebp
  00001	8b ec		 mov	 ebp, esp
  00003	83 ec 44	 sub	 esp, 68			; 00000044H
  00006	53		 push	 ebx
  00007	56		 push	 esi
  00008	57		 push	 edi

; 145  : 	//
; 146  : 	// monitor engine damage
; 147  : 	//
; 148  : 
; 149  : 	engine_damage_imminent_status = get_current_flight_dynamics_engine_damage_imminent ();

  00009	a1 00 00 00 00	 mov	 eax, DWORD PTR ?current_flight_dynamics@@3PAUDYNAMICS_TYPE@@A ; current_flight_dynamics
  0000e	f3 0f 5a 80 c4
	1c 00 00	 cvtss2sd xmm0, DWORD PTR [eax+7364]
  00016	8b 0d 00 00 00
	00		 mov	 ecx, DWORD PTR ?current_flight_dynamics@@3PAUDYNAMICS_TYPE@@A ; current_flight_dynamics
  0001c	f3 0f 5a 89 d0
	1c 00 00	 cvtss2sd xmm1, DWORD PTR [ecx+7376]
  00024	f2 0f 59 0d 00
	00 00 00	 mulsd	 xmm1, QWORD PTR __real@3fe999999999999a
  0002c	66 0f 2f c1	 comisd	 xmm0, xmm1
  00030	77 32		 ja	 SHORT $LN5@update_mas
  00032	8b 15 00 00 00
	00		 mov	 edx, DWORD PTR ?current_flight_dynamics@@3PAUDYNAMICS_TYPE@@A ; current_flight_dynamics
  00038	f3 0f 5a 82 24
	1d 00 00	 cvtss2sd xmm0, DWORD PTR [edx+7460]
  00040	a1 00 00 00 00	 mov	 eax, DWORD PTR ?current_flight_dynamics@@3PAUDYNAMICS_TYPE@@A ; current_flight_dynamics
  00045	f3 0f 5a 88 30
	1d 00 00	 cvtss2sd xmm1, DWORD PTR [eax+7472]
  0004d	f2 0f 59 0d 00
	00 00 00	 mulsd	 xmm1, QWORD PTR __real@3fe999999999999a
  00055	66 0f 2f c1	 comisd	 xmm0, xmm1
  00059	77 09		 ja	 SHORT $LN5@update_mas
  0005b	c7 45 bc 00 00
	00 00		 mov	 DWORD PTR tv80[ebp], 0
  00062	eb 07		 jmp	 SHORT $LN6@update_mas
$LN5@update_mas:
  00064	c7 45 bc 01 00
	00 00		 mov	 DWORD PTR tv80[ebp], 1
$LN6@update_mas:
  0006b	8b 4d bc	 mov	 ecx, DWORD PTR tv80[ebp]
  0006e	89 0d 00 00 00
	00		 mov	 DWORD PTR ?engine_damage_imminent_status@@3HA, ecx

; 150  : 
; 151  : 	if ((!previous_engine_damage_imminent_status) && engine_damage_imminent_status)

  00074	83 3d 00 00 00
	00 00		 cmp	 DWORD PTR ?previous_engine_damage_imminent_status@@3HA, 0
  0007b	75 1b		 jne	 SHORT $LN2@update_mas
  0007d	83 3d 00 00 00
	00 00		 cmp	 DWORD PTR ?engine_damage_imminent_status@@3HA, 0
  00084	74 12		 je	 SHORT $LN2@update_mas

; 152  : 	{
; 153  : 		play_client_server_warning_message (get_gunship_entity (), SPEECH_SYSTEM_ENGINE_OVERTORQUE);

  00086	6a 28		 push	 40			; 00000028H
  00088	a1 00 00 00 00	 mov	 eax, DWORD PTR ?gunship_entity@@3PAUENTITY@@A ; gunship_entity
  0008d	50		 push	 eax
  0008e	e8 00 00 00 00	 call	 ?play_client_server_warning_message@@YGHPAUENTITY@@H@Z ; play_client_server_warning_message

; 154  : 
; 155  : 		activate_blackhawk_master_caution ();

  00093	e8 00 00 00 00	 call	 ?activate_blackhawk_master_caution@@YGXXZ ; activate_blackhawk_master_caution
$LN2@update_mas:

; 156  : 	}
; 157  : 
; 158  : 	previous_engine_damage_imminent_status = engine_damage_imminent_status;

  00098	a1 00 00 00 00	 mov	 eax, DWORD PTR ?engine_damage_imminent_status@@3HA
  0009d	a3 00 00 00 00	 mov	 DWORD PTR ?previous_engine_damage_imminent_status@@3HA, eax

; 159  : 
; 160  : 	//
; 161  : 	// update master caution
; 162  : 	//
; 163  : 
; 164  : 	master_caution_sound_timer -= get_delta_time ();

  000a2	f3 0f 10 05 00
	00 00 00	 movss	 xmm0, DWORD PTR ?master_caution_sound_timer@@3MA
  000aa	f3 0f 5c 05 00
	00 00 00	 subss	 xmm0, DWORD PTR ?system_delta_time@@3MA
  000b2	f3 0f 11 05 00
	00 00 00	 movss	 DWORD PTR ?master_caution_sound_timer@@3MA, xmm0

; 165  : 
; 166  : 	if (master_caution_sound_timer <= 0.0)

  000ba	f3 0f 5a 05 00
	00 00 00	 cvtss2sd xmm0, DWORD PTR ?master_caution_sound_timer@@3MA
  000c2	0f 57 c9	 xorps	 xmm1, xmm1
  000c5	66 0f 2f c8	 comisd	 xmm1, xmm0
  000c9	72 26		 jb	 SHORT $LN3@update_mas

; 167  : 	{
; 168  : 		master_caution_sound_timer = 0.0;

  000cb	0f 57 c0	 xorps	 xmm0, xmm0
  000ce	f3 0f 11 05 00
	00 00 00	 movss	 DWORD PTR ?master_caution_sound_timer@@3MA, xmm0

; 169  : 
; 170  : 		pause_local_entity_sound_type (get_gunship_entity (), ENTITY_SUB_TYPE_EFFECT_SOUND_MCA, 0.5);

  000d6	51		 push	 ecx
  000d7	f3 0f 10 05 00
	00 00 00	 movss	 xmm0, DWORD PTR __real@3f000000
  000df	f3 0f 11 04 24	 movss	 DWORD PTR [esp], xmm0
  000e4	6a 19		 push	 25			; 00000019H
  000e6	a1 00 00 00 00	 mov	 eax, DWORD PTR ?gunship_entity@@3PAUENTITY@@A ; gunship_entity
  000eb	50		 push	 eax
  000ec	e8 00 00 00 00	 call	 ?pause_local_entity_sound_type@@YGHPAUENTITY@@HM@Z ; pause_local_entity_sound_type
$LN3@update_mas:

; 171  : 	}
; 172  : }

  000f1	5f		 pop	 edi
  000f2	5e		 pop	 esi
  000f3	5b		 pop	 ebx
  000f4	8b e5		 mov	 esp, ebp
  000f6	5d		 pop	 ebp
  000f7	c3		 ret	 0
?update_master_caution@@YGXXZ ENDP			; update_master_caution
_TEXT	ENDS
; Function compile flags: /Odtp /ZI
; File c:\users\nhv90\projects\eech\aphavoc\source\gunships\avionics\blackhawk\bh_avlmp.c
;	COMDAT ?deinitialise_master_caution@@YGXXZ
_TEXT	SEGMENT
?deinitialise_master_caution@@YGXXZ PROC		; deinitialise_master_caution, COMDAT

; 110  : {

  00000	55		 push	 ebp
  00001	8b ec		 mov	 ebp, esp
  00003	83 ec 40	 sub	 esp, 64			; 00000040H
  00006	53		 push	 ebx
  00007	56		 push	 esi
  00008	57		 push	 edi

; 111  : 	if (get_gunship_entity ())

  00009	83 3d 00 00 00
	00 00		 cmp	 DWORD PTR ?gunship_entity@@3PAUENTITY@@A, 0 ; gunship_entity
  00010	74 1b		 je	 SHORT $LN2@deinitiali

; 112  : 	{
; 113  : 		pause_local_entity_sound_type (get_gunship_entity (), ENTITY_SUB_TYPE_EFFECT_SOUND_MCA, 0.5);

  00012	51		 push	 ecx
  00013	f3 0f 10 05 00
	00 00 00	 movss	 xmm0, DWORD PTR __real@3f000000
  0001b	f3 0f 11 04 24	 movss	 DWORD PTR [esp], xmm0
  00020	6a 19		 push	 25			; 00000019H
  00022	a1 00 00 00 00	 mov	 eax, DWORD PTR ?gunship_entity@@3PAUENTITY@@A ; gunship_entity
  00027	50		 push	 eax
  00028	e8 00 00 00 00	 call	 ?pause_local_entity_sound_type@@YGHPAUENTITY@@HM@Z ; pause_local_entity_sound_type
$LN2@deinitiali:

; 114  : 	}
; 115  : }

  0002d	5f		 pop	 edi
  0002e	5e		 pop	 esi
  0002f	5b		 pop	 ebx
  00030	8b e5		 mov	 esp, ebp
  00032	5d		 pop	 ebp
  00033	c3		 ret	 0
?deinitialise_master_caution@@YGXXZ ENDP		; deinitialise_master_caution
_TEXT	ENDS
; Function compile flags: /Odtp /ZI
; File c:\users\nhv90\projects\eech\aphavoc\source\gunships\avionics\blackhawk\bh_avlmp.c
;	COMDAT ?initialise_master_caution@@YGXXZ
_TEXT	SEGMENT
?initialise_master_caution@@YGXXZ PROC			; initialise_master_caution, COMDAT

; 97   : {

  00000	55		 push	 ebp
  00001	8b ec		 mov	 ebp, esp
  00003	83 ec 40	 sub	 esp, 64			; 00000040H
  00006	53		 push	 ebx
  00007	56		 push	 esi
  00008	57		 push	 edi

; 98   : 	master_caution_sound_timer = 0.0;

  00009	0f 57 c0	 xorps	 xmm0, xmm0
  0000c	f3 0f 11 05 00
	00 00 00	 movss	 DWORD PTR ?master_caution_sound_timer@@3MA, xmm0

; 99   : 
; 100  : 	engine_damage_imminent_status = FALSE;

  00014	c7 05 00 00 00
	00 00 00 00 00	 mov	 DWORD PTR ?engine_damage_imminent_status@@3HA, 0

; 101  : 
; 102  : 	previous_engine_damage_imminent_status = FALSE;

  0001e	c7 05 00 00 00
	00 00 00 00 00	 mov	 DWORD PTR ?previous_engine_damage_imminent_status@@3HA, 0

; 103  : }

  00028	5f		 pop	 edi
  00029	5e		 pop	 esi
  0002a	5b		 pop	 ebx
  0002b	8b e5		 mov	 esp, ebp
  0002d	5d		 pop	 ebp
  0002e	c3		 ret	 0
?initialise_master_caution@@YGXXZ ENDP			; initialise_master_caution
_TEXT	ENDS
; Function compile flags: /Odtp /ZI
; File c:\users\nhv90\projects\eech\aphavoc\source\gunships\avionics\blackhawk\bh_avlmp.c
;	COMDAT ?update_blackhawk_lamp_avionics@@YGXXZ
_TEXT	SEGMENT
?update_blackhawk_lamp_avionics@@YGXXZ PROC		; update_blackhawk_lamp_avionics, COMDAT

; 277  : {

  00000	55		 push	 ebp
  00001	8b ec		 mov	 ebp, esp
  00003	83 ec 40	 sub	 esp, 64			; 00000040H
  00006	53		 push	 ebx
  00007	56		 push	 esi
  00008	57		 push	 edi

; 278  : 	update_master_caution ();

  00009	e8 00 00 00 00	 call	 ?update_master_caution@@YGXXZ ; update_master_caution

; 279  : 
; 280  : 	update_engine_fire_lamps ();

  0000e	e8 00 00 00 00	 call	 ?update_engine_fire_lamps@@YGXXZ ; update_engine_fire_lamps

; 281  : 
; 282  : 	update_indicator_lamps ();

  00013	e8 00 00 00 00	 call	 ?update_indicator_lamps@@YGXXZ ; update_indicator_lamps

; 283  : 
; 284  : 	update_mfd_lamps ();

  00018	e8 00 00 00 00	 call	 ?update_mfd_lamps@@YGXXZ ; update_mfd_lamps

; 285  : }

  0001d	5f		 pop	 edi
  0001e	5e		 pop	 esi
  0001f	5b		 pop	 ebx
  00020	8b e5		 mov	 esp, ebp
  00022	5d		 pop	 ebp
  00023	c3		 ret	 0
?update_blackhawk_lamp_avionics@@YGXXZ ENDP		; update_blackhawk_lamp_avionics
_TEXT	ENDS
; Function compile flags: /Odtp /ZI
; File c:\users\nhv90\projects\eech\aphavoc\source\gunships\avionics\blackhawk\bh_avlmp.c
;	COMDAT ?deinitialise_blackhawk_lamp_avionics@@YGXXZ
_TEXT	SEGMENT
?deinitialise_blackhawk_lamp_avionics@@YGXXZ PROC	; deinitialise_blackhawk_lamp_avionics, COMDAT

; 268  : {

  00000	55		 push	 ebp
  00001	8b ec		 mov	 ebp, esp
  00003	83 ec 40	 sub	 esp, 64			; 00000040H
  00006	53		 push	 ebx
  00007	56		 push	 esi
  00008	57		 push	 edi

; 269  : 	deinitialise_master_caution ();

  00009	e8 00 00 00 00	 call	 ?deinitialise_master_caution@@YGXXZ ; deinitialise_master_caution

; 270  : }

  0000e	5f		 pop	 edi
  0000f	5e		 pop	 esi
  00010	5b		 pop	 ebx
  00011	8b e5		 mov	 esp, ebp
  00013	5d		 pop	 ebp
  00014	c3		 ret	 0
?deinitialise_blackhawk_lamp_avionics@@YGXXZ ENDP	; deinitialise_blackhawk_lamp_avionics
_TEXT	ENDS
; Function compile flags: /Odtp /ZI
; File c:\users\nhv90\projects\eech\aphavoc\source\gunships\avionics\blackhawk\bh_avlmp.c
;	COMDAT ?initialise_blackhawk_lamp_avionics@@YGXXZ
_TEXT	SEGMENT
?initialise_blackhawk_lamp_avionics@@YGXXZ PROC		; initialise_blackhawk_lamp_avionics, COMDAT

; 259  : {

  00000	55		 push	 ebp
  00001	8b ec		 mov	 ebp, esp
  00003	83 ec 40	 sub	 esp, 64			; 00000040H
  00006	53		 push	 ebx
  00007	56		 push	 esi
  00008	57		 push	 edi

; 260  : 	initialise_master_caution ();

  00009	e8 00 00 00 00	 call	 ?initialise_master_caution@@YGXXZ ; initialise_master_caution

; 261  : }

  0000e	5f		 pop	 edi
  0000f	5e		 pop	 esi
  00010	5b		 pop	 ebx
  00011	8b e5		 mov	 esp, ebp
  00013	5d		 pop	 ebp
  00014	c3		 ret	 0
?initialise_blackhawk_lamp_avionics@@YGXXZ ENDP		; initialise_blackhawk_lamp_avionics
_TEXT	ENDS
; Function compile flags: /Odtp /ZI
; File c:\users\nhv90\projects\eech\aphavoc\source\gunships\avionics\blackhawk\bh_avlmp.c
;	COMDAT ?deactivate_blackhawk_master_caution@@YGXXZ
_TEXT	SEGMENT
?deactivate_blackhawk_master_caution@@YGXXZ PROC	; deactivate_blackhawk_master_caution, COMDAT

; 133  : {

  00000	55		 push	 ebp
  00001	8b ec		 mov	 ebp, esp
  00003	83 ec 40	 sub	 esp, 64			; 00000040H
  00006	53		 push	 ebx
  00007	56		 push	 esi
  00008	57		 push	 edi

; 134  : 	master_caution_sound_timer = 0.0;

  00009	0f 57 c0	 xorps	 xmm0, xmm0
  0000c	f3 0f 11 05 00
	00 00 00	 movss	 DWORD PTR ?master_caution_sound_timer@@3MA, xmm0

; 135  : 
; 136  : 	pause_local_entity_sound_type (get_gunship_entity (), ENTITY_SUB_TYPE_EFFECT_SOUND_MCA, 0.5);

  00014	51		 push	 ecx
  00015	f3 0f 10 05 00
	00 00 00	 movss	 xmm0, DWORD PTR __real@3f000000
  0001d	f3 0f 11 04 24	 movss	 DWORD PTR [esp], xmm0
  00022	6a 19		 push	 25			; 00000019H
  00024	a1 00 00 00 00	 mov	 eax, DWORD PTR ?gunship_entity@@3PAUENTITY@@A ; gunship_entity
  00029	50		 push	 eax
  0002a	e8 00 00 00 00	 call	 ?pause_local_entity_sound_type@@YGHPAUENTITY@@HM@Z ; pause_local_entity_sound_type

; 137  : }

  0002f	5f		 pop	 edi
  00030	5e		 pop	 esi
  00031	5b		 pop	 ebx
  00032	8b e5		 mov	 esp, ebp
  00034	5d		 pop	 ebp
  00035	c3		 ret	 0
?deactivate_blackhawk_master_caution@@YGXXZ ENDP	; deactivate_blackhawk_master_caution
_TEXT	ENDS
; Function compile flags: /Odtp /ZI
; File c:\users\nhv90\projects\eech\aphavoc\source\gunships\avionics\blackhawk\bh_avlmp.c
;	COMDAT ?activate_blackhawk_master_caution@@YGXXZ
_TEXT	SEGMENT
?activate_blackhawk_master_caution@@YGXXZ PROC		; activate_blackhawk_master_caution, COMDAT

; 122  : {

  00000	55		 push	 ebp
  00001	8b ec		 mov	 ebp, esp
  00003	83 ec 40	 sub	 esp, 64			; 00000040H
  00006	53		 push	 ebx
  00007	56		 push	 esi
  00008	57		 push	 edi

; 123  : 	master_caution_sound_timer = 3.0;

  00009	f3 0f 10 05 00
	00 00 00	 movss	 xmm0, DWORD PTR __real@40400000
  00011	f3 0f 11 05 00
	00 00 00	 movss	 DWORD PTR ?master_caution_sound_timer@@3MA, xmm0

; 124  : 
; 125  : 	resume_local_entity_sound_type (get_gunship_entity (), ENTITY_SUB_TYPE_EFFECT_SOUND_MCA);

  00019	6a 19		 push	 25			; 00000019H
  0001b	a1 00 00 00 00	 mov	 eax, DWORD PTR ?gunship_entity@@3PAUENTITY@@A ; gunship_entity
  00020	50		 push	 eax
  00021	e8 00 00 00 00	 call	 ?resume_local_entity_sound_type@@YGHPAUENTITY@@H@Z ; resume_local_entity_sound_type

; 126  : }

  00026	5f		 pop	 edi
  00027	5e		 pop	 esi
  00028	5b		 pop	 ebx
  00029	8b e5		 mov	 esp, ebp
  0002b	5d		 pop	 ebp
  0002c	c3		 ret	 0
?activate_blackhawk_master_caution@@YGXXZ ENDP		; activate_blackhawk_master_caution
_TEXT	ENDS
END
