; Listing generated by Microsoft (R) Optimizing Compiler Version 19.16.27045.0 

	TITLE	C:\Users\nhv90\Projects\eech\aphavoc\source\gunships\avionics\blackhawk\bh_wpn.c
	.686P
	.XMM
	include listing.inc
	.model	flat

INCLUDELIB MSVCRTD
INCLUDELIB OLDNAMES

PUBLIC	?blackhawk_stinger_seeker_head_x_position@@3MA	; blackhawk_stinger_seeker_head_x_position
PUBLIC	?blackhawk_stinger_seeker_head_y_position@@3MA	; blackhawk_stinger_seeker_head_y_position
_BSS	SEGMENT
?blackhawk_stinger_seeker_head_x_position@@3MA DD 01H DUP (?) ; blackhawk_stinger_seeker_head_x_position
?blackhawk_stinger_seeker_head_y_position@@3MA DD 01H DUP (?) ; blackhawk_stinger_seeker_head_y_position
_BSS	ENDS
PUBLIC	_cosf
PUBLIC	_sinf
PUBLIC	?cos@@YGMM@Z					; cos
PUBLIC	?sin@@YGMM@Z					; sin
PUBLIC	?initialise_blackhawk_weapon_systems@@YGXXZ	; initialise_blackhawk_weapon_systems
PUBLIC	?update_blackhawk_weapon_systems@@YGXXZ		; update_blackhawk_weapon_systems
PUBLIC	?get_blackhawk_missile_flight_time@@YGMXZ	; get_blackhawk_missile_flight_time
PUBLIC	?toggle_blackhawk_radar_jammer_manual@@YGXXZ	; toggle_blackhawk_radar_jammer_manual
PUBLIC	?set_blackhawk_radar_jammer_manual@@YGXH@Z	; set_blackhawk_radar_jammer_manual
PUBLIC	?set_blackhawk_radar_jammer_auto@@YGXH@Z	; set_blackhawk_radar_jammer_auto
PUBLIC	?toggle_blackhawk_infra_red_jammer_manual@@YGXXZ ; toggle_blackhawk_infra_red_jammer_manual
PUBLIC	?set_blackhawk_infra_red_jammer_manual@@YGXH@Z	; set_blackhawk_infra_red_jammer_manual
PUBLIC	?set_blackhawk_infra_red_jammer_auto@@YGXH@Z	; set_blackhawk_infra_red_jammer_auto
PUBLIC	??$min@H@std@@YGABHABH0@Z			; std::min<int>
PUBLIC	??$max@H@std@@YGABHABH0@Z			; std::max<int>
PUBLIC	??_C@_02DKCKIIND@?$CFs@				; `string'
PUBLIC	?__LINE__Var@?0??apply_weapon_recoil_effect@@YGXPAUENTITY@@H@Z@4JA ; `apply_weapon_recoil_effect'::`1'::__LINE__Var
PUBLIC	??_C@_0FB@CKEGNPDJ@c?3?2users?2nhv90?2projects?2eech?2ap@ ; `string'
PUBLIC	??_C@_02LFNMGJAP@en@				; `string'
PUBLIC	?__LINE__Var@?0??update_blackhawk_weapon_systems@@YGXXZ@4JA ; `update_blackhawk_weapon_systems'::`1'::__LINE__Var
PUBLIC	?__LINE__Var@?0??get_blackhawk_missile_flight_time@@YGMXZ@4JA ; `get_blackhawk_missile_flight_time'::`1'::__LINE__Var
PUBLIC	?__LINE__Var@?0??toggle_blackhawk_radar_jammer_manual@@YGXXZ@4JA ; `toggle_blackhawk_radar_jammer_manual'::`1'::__LINE__Var
PUBLIC	?__LINE__Var@?0??set_blackhawk_radar_jammer_manual@@YGXH@Z@4JA ; `set_blackhawk_radar_jammer_manual'::`1'::__LINE__Var
PUBLIC	?__LINE__Var@?0??set_blackhawk_radar_jammer_auto@@YGXH@Z@4JA ; `set_blackhawk_radar_jammer_auto'::`1'::__LINE__Var
PUBLIC	?__LINE__Var@?0??toggle_blackhawk_infra_red_jammer_manual@@YGXXZ@4JA ; `toggle_blackhawk_infra_red_jammer_manual'::`1'::__LINE__Var
PUBLIC	?__LINE__Var@?0??set_blackhawk_infra_red_jammer_manual@@YGXH@Z@4JA ; `set_blackhawk_infra_red_jammer_manual'::`1'::__LINE__Var
PUBLIC	?__LINE__Var@?0??set_blackhawk_infra_red_jammer_auto@@YGXH@Z@4JA ; `set_blackhawk_infra_red_jammer_auto'::`1'::__LINE__Var
PUBLIC	??_C@_0BD@FEEMDEPI@invalid?5comparator@		; `string'
PUBLIC	??_C@_0GK@JMBMHIBC@c?3?2program?5files?5?$CIx86?$CJ?2microsof@ ; `string'
PUBLIC	??_C@_1NE@FKBPBJEB@?$AAc?$AA?3?$AA?2?$AAp?$AAr?$AAo?$AAg?$AAr?$AAa?$AAm?$AA?5?$AAf?$AAi?$AAl?$AAe@ ; `string'
PUBLIC	??_C@_1BC@BLAPCBGI@?$AAs?$AAt?$AAd?$AA?3?$AA?3?$AAm?$AAi?$AAn@ ; `string'
PUBLIC	??_C@_1CK@NDNHPKPI@?$AA?$CC?$AAi?$AAn?$AAv?$AAa?$AAl?$AAi?$AAd?$AA?5?$AAc?$AAo?$AAm?$AAp?$AAa?$AAr@ ; `string'
PUBLIC	??_C@_1BC@ICCOKLEG@?$AAs?$AAt?$AAd?$AA?3?$AA?3?$AAm?$AAa?$AAx@ ; `string'
PUBLIC	__real@0000000000000000
PUBLIC	__real@3e4ccccd
PUBLIC	__real@3f000000
PUBLIC	__real@3f19999a
PUBLIC	__real@3f333333
PUBLIC	__real@3f800000
PUBLIC	__real@3fc0000000000000
PUBLIC	__real@3fd0000000000000
PUBLIC	__real@4000c15236000000
PUBLIC	__real@400921fb51000000
PUBLIC	__real@40400000
PUBLIC	__real@41000000
PUBLIC	__real@41200000
EXTRN	__imp___invalid_parameter:PROC
EXTRN	__imp___CrtDbgReport:PROC
EXTRN	_cos:PROC
EXTRN	_sin:PROC
EXTRN	?process_assert@@YGXPBD0H@Z:PROC		; process_assert
EXTRN	?get_3d_range@@YGMPBUVEC3D@@0@Z:PROC		; get_3d_range
EXTRN	?launch_client_server_weapon@@YGXPAUENTITY@@H@Z:PROC ; launch_client_server_weapon
EXTRN	?get_local_entity_selected_weapon_viewpoint@@YGHPAUENTITY@@PAUVIEWPOINT@@@Z:PROC ; get_local_entity_selected_weapon_viewpoint
EXTRN	?play_client_server_cpg_message@@YGHPAUENTITY@@MMHMH@Z:PROC ; play_client_server_cpg_message
EXTRN	?pause_local_entity_sound_type@@YGHPAUENTITY@@HM@Z:PROC ; pause_local_entity_sound_type
EXTRN	?resume_local_entity_sound_type@@YGHPAUENTITY@@H@Z:PROC ; resume_local_entity_sound_type
EXTRN	?play_common_cpg_radar_jammer_speech@@YGXH@Z:PROC ; play_common_cpg_radar_jammer_speech
EXTRN	?play_common_cpg_infra_red_jammer_speech@@YGXH@Z:PROC ; play_common_cpg_infra_red_jammer_speech
EXTRN	?play_common_cpg_failed_launch_speech@@YGXW4WEAPON_LOCK_TYPES@@@Z:PROC ; play_common_cpg_failed_launch_speech
EXTRN	?update_good_tone@@YGXXZ:PROC			; update_good_tone
EXTRN	?reset_good_tone@@YGXXZ:PROC			; reset_good_tone
EXTRN	?add_dynamic_weapon_launch_force@@YGXPAUVEC3D@@0MM@Z:PROC ; add_dynamic_weapon_launch_force
EXTRN	?system_delta_time@@3MA:DWORD			; system_delta_time
EXTRN	?null_entity_pointer_message@@3PBDB:DWORD	; null_entity_pointer_message
EXTRN	?global_options@@3UGLOBAL_OPTIONS_DATA@@A:BYTE	; global_options
EXTRN	?system_comms_model@@3W4COMMS_MODEL_TYPES@@A:DWORD ; system_comms_model
EXTRN	?overload_invalid_list_type_message@@3PBDB:DWORD ; overload_invalid_list_type_message
EXTRN	?fn_get_local_entity_first_child@@3PAY0CN@P6GPAUENTITY@@PAU1@W4LIST_TYPES@@@ZA:BYTE ; fn_get_local_entity_first_child
EXTRN	?fn_get_local_entity_parent@@3PAY0CN@P6GPAUENTITY@@PAU1@W4LIST_TYPES@@@ZA:BYTE ; fn_get_local_entity_parent
EXTRN	?fn_get_local_entity_child_succ@@3PAY0CN@P6GPAUENTITY@@PAU1@W4LIST_TYPES@@@ZA:BYTE ; fn_get_local_entity_child_succ
EXTRN	?overload_invalid_float_type_message@@3PBDB:DWORD ; overload_invalid_float_type_message
EXTRN	?fn_get_local_entity_float_value@@3PAY0KP@P6GMPAUENTITY@@W4FLOAT_TYPES@@@ZA:BYTE ; fn_get_local_entity_float_value
EXTRN	?overload_invalid_int_type_message@@3PBDB:DWORD	; overload_invalid_int_type_message
EXTRN	?fn_set_client_server_entity_int_value@@3PAY1BBH@1P6GXPAUENTITY@@W4INT_TYPES@@H@ZA:BYTE ; fn_set_client_server_entity_int_value
EXTRN	?fn_get_local_entity_int_value@@3PAY0BBH@P6GHPAUENTITY@@W4INT_TYPES@@@ZA:BYTE ; fn_get_local_entity_int_value
EXTRN	?overload_invalid_vec3d_type_message@@3PBDB:DWORD ; overload_invalid_vec3d_type_message
EXTRN	?fn_get_local_entity_vec3d_ptr@@3PAY0BI@P6GPAUVEC3D@@PAUENTITY@@W4VEC3D_TYPES@@@ZA:BYTE ; fn_get_local_entity_vec3d_ptr
EXTRN	?weapon_database@@3PAUWEAPON_DATA@@A:BYTE	; weapon_database
EXTRN	?gunship_entity@@3PAUENTITY@@A:DWORD		; gunship_entity
EXTRN	?weapon_lock_type@@3W4WEAPON_LOCK_TYPES@@A:DWORD ; weapon_lock_type
EXTRN	?fire_continuous_weapon@@3HA:DWORD		; fire_continuous_weapon
EXTRN	?fire_single_weapon@@3HA:DWORD			; fire_single_weapon
EXTRN	?rocket_salvo_size@@3HA:DWORD			; rocket_salvo_size
EXTRN	?rocket_salvo_count@@3HA:DWORD			; rocket_salvo_count
EXTRN	?blackhawk_damage@@3TBLACKHAWK_DAMAGE_FLAGS@@A:DWORD ; blackhawk_damage
EXTRN	__fltused:DWORD
_BSS	SEGMENT
?seeker_head_theta1@@3MA DD 01H DUP (?)			; seeker_head_theta1
?seeker_head_theta2@@3MA DD 01H DUP (?)			; seeker_head_theta2
_BSS	ENDS
;	COMDAT __real@41200000
CONST	SEGMENT
__real@41200000 DD 041200000r			; 10
CONST	ENDS
;	COMDAT __real@41000000
CONST	SEGMENT
__real@41000000 DD 041000000r			; 8
CONST	ENDS
;	COMDAT __real@40400000
CONST	SEGMENT
__real@40400000 DD 040400000r			; 3
CONST	ENDS
;	COMDAT __real@400921fb51000000
CONST	SEGMENT
__real@400921fb51000000 DQ 0400921fb51000000r	; 3.14159
CONST	ENDS
;	COMDAT __real@4000c15236000000
CONST	SEGMENT
__real@4000c15236000000 DQ 04000c15236000000r	; 2.0944
CONST	ENDS
;	COMDAT __real@3fd0000000000000
CONST	SEGMENT
__real@3fd0000000000000 DQ 03fd0000000000000r	; 0.25
CONST	ENDS
;	COMDAT __real@3fc0000000000000
CONST	SEGMENT
__real@3fc0000000000000 DQ 03fc0000000000000r	; 0.125
CONST	ENDS
;	COMDAT __real@3f800000
CONST	SEGMENT
__real@3f800000 DD 03f800000r			; 1
CONST	ENDS
;	COMDAT __real@3f333333
CONST	SEGMENT
__real@3f333333 DD 03f333333r			; 0.7
CONST	ENDS
;	COMDAT __real@3f19999a
CONST	SEGMENT
__real@3f19999a DD 03f19999ar			; 0.6
CONST	ENDS
;	COMDAT __real@3f000000
CONST	SEGMENT
__real@3f000000 DD 03f000000r			; 0.5
CONST	ENDS
;	COMDAT __real@3e4ccccd
CONST	SEGMENT
__real@3e4ccccd DD 03e4ccccdr			; 0.2
CONST	ENDS
;	COMDAT __real@0000000000000000
CONST	SEGMENT
__real@0000000000000000 DQ 00000000000000000r	; 0
CONST	ENDS
;	COMDAT ??_C@_1BC@ICCOKLEG@?$AAs?$AAt?$AAd?$AA?3?$AA?3?$AAm?$AAa?$AAx@
CONST	SEGMENT
??_C@_1BC@ICCOKLEG@?$AAs?$AAt?$AAd?$AA?3?$AA?3?$AAm?$AAa?$AAx@ DB 's', 00H
	DB	't', 00H, 'd', 00H, ':', 00H, ':', 00H, 'm', 00H, 'a', 00H, 'x'
	DB	00H, 00H, 00H				; `string'
CONST	ENDS
;	COMDAT ??_C@_1CK@NDNHPKPI@?$AA?$CC?$AAi?$AAn?$AAv?$AAa?$AAl?$AAi?$AAd?$AA?5?$AAc?$AAo?$AAm?$AAp?$AAa?$AAr@
CONST	SEGMENT
??_C@_1CK@NDNHPKPI@?$AA?$CC?$AAi?$AAn?$AAv?$AAa?$AAl?$AAi?$AAd?$AA?5?$AAc?$AAo?$AAm?$AAp?$AAa?$AAr@ DB '"'
	DB	00H, 'i', 00H, 'n', 00H, 'v', 00H, 'a', 00H, 'l', 00H, 'i', 00H
	DB	'd', 00H, ' ', 00H, 'c', 00H, 'o', 00H, 'm', 00H, 'p', 00H, 'a'
	DB	00H, 'r', 00H, 'a', 00H, 't', 00H, 'o', 00H, 'r', 00H, '"', 00H
	DB	00H, 00H					; `string'
CONST	ENDS
;	COMDAT ??_C@_1BC@BLAPCBGI@?$AAs?$AAt?$AAd?$AA?3?$AA?3?$AAm?$AAi?$AAn@
CONST	SEGMENT
??_C@_1BC@BLAPCBGI@?$AAs?$AAt?$AAd?$AA?3?$AA?3?$AAm?$AAi?$AAn@ DB 's', 00H
	DB	't', 00H, 'd', 00H, ':', 00H, ':', 00H, 'm', 00H, 'i', 00H, 'n'
	DB	00H, 00H, 00H				; `string'
CONST	ENDS
;	COMDAT ??_C@_1NE@FKBPBJEB@?$AAc?$AA?3?$AA?2?$AAp?$AAr?$AAo?$AAg?$AAr?$AAa?$AAm?$AA?5?$AAf?$AAi?$AAl?$AAe@
CONST	SEGMENT
??_C@_1NE@FKBPBJEB@?$AAc?$AA?3?$AA?2?$AAp?$AAr?$AAo?$AAg?$AAr?$AAa?$AAm?$AA?5?$AAf?$AAi?$AAl?$AAe@ DB 'c'
	DB	00H, ':', 00H, '\', 00H, 'p', 00H, 'r', 00H, 'o', 00H, 'g', 00H
	DB	'r', 00H, 'a', 00H, 'm', 00H, ' ', 00H, 'f', 00H, 'i', 00H, 'l'
	DB	00H, 'e', 00H, 's', 00H, ' ', 00H, '(', 00H, 'x', 00H, '8', 00H
	DB	'6', 00H, ')', 00H, '\', 00H, 'm', 00H, 'i', 00H, 'c', 00H, 'r'
	DB	00H, 'o', 00H, 's', 00H, 'o', 00H, 'f', 00H, 't', 00H, ' ', 00H
	DB	'v', 00H, 'i', 00H, 's', 00H, 'u', 00H, 'a', 00H, 'l', 00H, ' '
	DB	00H, 's', 00H, 't', 00H, 'u', 00H, 'd', 00H, 'i', 00H, 'o', 00H
	DB	'\', 00H, '2', 00H, '0', 00H, '1', 00H, '7', 00H, '\', 00H, 'c'
	DB	00H, 'o', 00H, 'm', 00H, 'm', 00H, 'u', 00H, 'n', 00H, 'i', 00H
	DB	't', 00H, 'y', 00H, '\', 00H, 'v', 00H, 'c', 00H, '\', 00H, 't'
	DB	00H, 'o', 00H, 'o', 00H, 'l', 00H, 's', 00H, '\', 00H, 'm', 00H
	DB	's', 00H, 'v', 00H, 'c', 00H, '\', 00H, '1', 00H, '4', 00H, '.'
	DB	00H, '1', 00H, '6', 00H, '.', 00H, '2', 00H, '7', 00H, '0', 00H
	DB	'2', 00H, '3', 00H, '\', 00H, 'i', 00H, 'n', 00H, 'c', 00H, 'l'
	DB	00H, 'u', 00H, 'd', 00H, 'e', 00H, '\', 00H, 'a', 00H, 'l', 00H
	DB	'g', 00H, 'o', 00H, 'r', 00H, 'i', 00H, 't', 00H, 'h', 00H, 'm'
	DB	00H, 00H, 00H				; `string'
CONST	ENDS
;	COMDAT ??_C@_0GK@JMBMHIBC@c?3?2program?5files?5?$CIx86?$CJ?2microsof@
CONST	SEGMENT
??_C@_0GK@JMBMHIBC@c?3?2program?5files?5?$CIx86?$CJ?2microsof@ DB 'c:\pro'
	DB	'gram files (x86)\microsoft visual studio\2017\community\vc\to'
	DB	'ols\msvc\14.16.27023\include\algorithm', 00H ; `string'
CONST	ENDS
;	COMDAT ??_C@_0BD@FEEMDEPI@invalid?5comparator@
CONST	SEGMENT
??_C@_0BD@FEEMDEPI@invalid?5comparator@ DB 'invalid comparator', 00H ; `string'
CONST	ENDS
;	COMDAT ?__LINE__Var@?0??set_blackhawk_infra_red_jammer_auto@@YGXH@Z@4JA
_DATA	SEGMENT
?__LINE__Var@?0??set_blackhawk_infra_red_jammer_auto@@YGXH@Z@4JA DD 0276H ; `set_blackhawk_infra_red_jammer_auto'::`1'::__LINE__Var
_DATA	ENDS
;	COMDAT ?__LINE__Var@?0??set_blackhawk_infra_red_jammer_manual@@YGXH@Z@4JA
_DATA	SEGMENT
?__LINE__Var@?0??set_blackhawk_infra_red_jammer_manual@@YGXH@Z@4JA DD 0264H ; `set_blackhawk_infra_red_jammer_manual'::`1'::__LINE__Var
_DATA	ENDS
;	COMDAT ?__LINE__Var@?0??toggle_blackhawk_infra_red_jammer_manual@@YGXXZ@4JA
_DATA	SEGMENT
?__LINE__Var@?0??toggle_blackhawk_infra_red_jammer_manual@@YGXXZ@4JA DD 024cH ; `toggle_blackhawk_infra_red_jammer_manual'::`1'::__LINE__Var
_DATA	ENDS
;	COMDAT ?__LINE__Var@?0??set_blackhawk_radar_jammer_auto@@YGXH@Z@4JA
_DATA	SEGMENT
?__LINE__Var@?0??set_blackhawk_radar_jammer_auto@@YGXH@Z@4JA DD 023aH ; `set_blackhawk_radar_jammer_auto'::`1'::__LINE__Var
_DATA	ENDS
;	COMDAT ?__LINE__Var@?0??set_blackhawk_radar_jammer_manual@@YGXH@Z@4JA
_DATA	SEGMENT
?__LINE__Var@?0??set_blackhawk_radar_jammer_manual@@YGXH@Z@4JA DD 0228H ; `set_blackhawk_radar_jammer_manual'::`1'::__LINE__Var
_DATA	ENDS
;	COMDAT ?__LINE__Var@?0??toggle_blackhawk_radar_jammer_manual@@YGXXZ@4JA
_DATA	SEGMENT
?__LINE__Var@?0??toggle_blackhawk_radar_jammer_manual@@YGXXZ@4JA DD 0210H ; `toggle_blackhawk_radar_jammer_manual'::`1'::__LINE__Var
_DATA	ENDS
;	COMDAT ?__LINE__Var@?0??get_blackhawk_missile_flight_time@@YGMXZ@4JA
_DATA	SEGMENT
?__LINE__Var@?0??get_blackhawk_missile_flight_time@@YGMXZ@4JA DD 01ceH ; `get_blackhawk_missile_flight_time'::`1'::__LINE__Var
_DATA	ENDS
;	COMDAT ?__LINE__Var@?0??update_blackhawk_weapon_systems@@YGXXZ@4JA
_DATA	SEGMENT
?__LINE__Var@?0??update_blackhawk_weapon_systems@@YGXXZ@4JA DD 0b2H ; `update_blackhawk_weapon_systems'::`1'::__LINE__Var
_DATA	ENDS
;	COMDAT ??_C@_02LFNMGJAP@en@
CONST	SEGMENT
??_C@_02LFNMGJAP@en@ DB 'en', 00H			; `string'
CONST	ENDS
;	COMDAT ??_C@_0FB@CKEGNPDJ@c?3?2users?2nhv90?2projects?2eech?2ap@
CONST	SEGMENT
??_C@_0FB@CKEGNPDJ@c?3?2users?2nhv90?2projects?2eech?2ap@ DB 'c:\users\nh'
	DB	'v90\projects\eech\aphavoc\source\gunships\avionics\blackhawk\'
	DB	'bh_wpn.c', 00H				; `string'
CONST	ENDS
;	COMDAT ?__LINE__Var@?0??apply_weapon_recoil_effect@@YGXPAUENTITY@@H@Z@4JA
_DATA	SEGMENT
?__LINE__Var@?0??apply_weapon_recoil_effect@@YGXPAUENTITY@@H@Z@4JA DD 065H ; `apply_weapon_recoil_effect'::`1'::__LINE__Var
_DATA	ENDS
;	COMDAT ??_C@_02DKCKIIND@?$CFs@
CONST	SEGMENT
??_C@_02DKCKIIND@?$CFs@ DB '%s', 00H			; `string'
CONST	ENDS
; Function compile flags: /Odtp /ZI
; File c:\program files (x86)\microsoft visual studio\2017\community\vc\tools\msvc\14.16.27023\include\algorithm
;	COMDAT ??$max@H@std@@YGABHABH0@Z
_TEXT	SEGMENT
__Left$ = 8						; size = 4
__Right$ = 12						; size = 4
??$max@H@std@@YGABHABH0@Z PROC				; std::max<int>, COMDAT

; 5387 : 	{	// return larger of _Left and _Right

  00000	55		 push	 ebp
  00001	8b ec		 mov	 ebp, esp
  00003	83 ec 40	 sub	 esp, 64			; 00000040H
  00006	53		 push	 ebx
  00007	56		 push	 esi
  00008	57		 push	 edi

; 5388 : 	if (_Left < _Right)

  00009	8b 45 08	 mov	 eax, DWORD PTR __Left$[ebp]
  0000c	8b 4d 0c	 mov	 ecx, DWORD PTR __Right$[ebp]
  0000f	8b 10		 mov	 edx, DWORD PTR [eax]
  00011	3b 11		 cmp	 edx, DWORD PTR [ecx]
  00013	7d 61		 jge	 SHORT $LN8@max
$LN4@max:

; 5389 : 		{
; 5390 : 		_STL_ASSERT(!(_Right < _Left), "invalid comparator");

  00015	8b 45 0c	 mov	 eax, DWORD PTR __Right$[ebp]
  00018	8b 4d 08	 mov	 ecx, DWORD PTR __Left$[ebp]
  0001b	8b 10		 mov	 edx, DWORD PTR [eax]
  0001d	3b 11		 cmp	 edx, DWORD PTR [ecx]
  0001f	7c 02		 jl	 SHORT $LN7@max
  00021	eb 4a		 jmp	 SHORT $LN2@max
$LN7@max:
  00023	68 00 00 00 00	 push	 OFFSET ??_C@_0BD@FEEMDEPI@invalid?5comparator@
  00028	68 00 00 00 00	 push	 OFFSET ??_C@_02DKCKIIND@?$CFs@
  0002d	6a 00		 push	 0
  0002f	68 0e 15 00 00	 push	 5390			; 0000150eH
  00034	68 00 00 00 00	 push	 OFFSET ??_C@_0GK@JMBMHIBC@c?3?2program?5files?5?$CIx86?$CJ?2microsof@
  00039	6a 02		 push	 2
  0003b	ff 15 00 00 00
	00		 call	 DWORD PTR __imp___CrtDbgReport
  00041	83 c4 18	 add	 esp, 24			; 00000018H
  00044	83 f8 01	 cmp	 eax, 1
  00047	75 01		 jne	 SHORT $LN12@max
  00049	cc		 int	 3
$LN12@max:
  0004a	6a 00		 push	 0
  0004c	68 0e 15 00 00	 push	 5390			; 0000150eH
  00051	68 00 00 00 00	 push	 OFFSET ??_C@_1NE@FKBPBJEB@?$AAc?$AA?3?$AA?2?$AAp?$AAr?$AAo?$AAg?$AAr?$AAa?$AAm?$AA?5?$AAf?$AAi?$AAl?$AAe@
  00056	68 00 00 00 00	 push	 OFFSET ??_C@_1BC@ICCOKLEG@?$AAs?$AAt?$AAd?$AA?3?$AA?3?$AAm?$AAa?$AAx@
  0005b	68 00 00 00 00	 push	 OFFSET ??_C@_1CK@NDNHPKPI@?$AA?$CC?$AAi?$AAn?$AAv?$AAa?$AAl?$AAi?$AAd?$AA?5?$AAc?$AAo?$AAm?$AAp?$AAa?$AAr@
  00060	ff 15 00 00 00
	00		 call	 DWORD PTR __imp___invalid_parameter
  00066	83 c4 14	 add	 esp, 20			; 00000014H
  00069	33 c0		 xor	 eax, eax
  0006b	75 b6		 jne	 SHORT $LN7@max
$LN2@max:
  0006d	33 c0		 xor	 eax, eax
  0006f	75 a4		 jne	 SHORT $LN4@max

; 5391 : 		return (_Right);

  00071	8b 45 0c	 mov	 eax, DWORD PTR __Right$[ebp]
  00074	eb 03		 jmp	 SHORT $LN11@max
$LN8@max:

; 5392 : 		}
; 5393 : 
; 5394 : 	return (_Left);

  00076	8b 45 08	 mov	 eax, DWORD PTR __Left$[ebp]
$LN11@max:

; 5395 : 	}

  00079	5f		 pop	 edi
  0007a	5e		 pop	 esi
  0007b	5b		 pop	 ebx
  0007c	8b e5		 mov	 esp, ebp
  0007e	5d		 pop	 ebp
  0007f	c2 08 00	 ret	 8
??$max@H@std@@YGABHABH0@Z ENDP				; std::max<int>
_TEXT	ENDS
; Function compile flags: /Odtp /ZI
; File c:\program files (x86)\microsoft visual studio\2017\community\vc\tools\msvc\14.16.27023\include\algorithm
;	COMDAT ??$min@H@std@@YGABHABH0@Z
_TEXT	SEGMENT
__Left$ = 8						; size = 4
__Right$ = 12						; size = 4
??$min@H@std@@YGABHABH0@Z PROC				; std::min<int>, COMDAT

; 5427 : 	{	// return smaller of _Left and _Right

  00000	55		 push	 ebp
  00001	8b ec		 mov	 ebp, esp
  00003	83 ec 40	 sub	 esp, 64			; 00000040H
  00006	53		 push	 ebx
  00007	56		 push	 esi
  00008	57		 push	 edi

; 5428 : 	if (_Right < _Left)

  00009	8b 45 0c	 mov	 eax, DWORD PTR __Right$[ebp]
  0000c	8b 4d 08	 mov	 ecx, DWORD PTR __Left$[ebp]
  0000f	8b 10		 mov	 edx, DWORD PTR [eax]
  00011	3b 11		 cmp	 edx, DWORD PTR [ecx]
  00013	7d 61		 jge	 SHORT $LN8@min
$LN4@min:

; 5429 : 		{
; 5430 : 		_STL_ASSERT(!(_Left < _Right), "invalid comparator");

  00015	8b 45 08	 mov	 eax, DWORD PTR __Left$[ebp]
  00018	8b 4d 0c	 mov	 ecx, DWORD PTR __Right$[ebp]
  0001b	8b 10		 mov	 edx, DWORD PTR [eax]
  0001d	3b 11		 cmp	 edx, DWORD PTR [ecx]
  0001f	7c 02		 jl	 SHORT $LN7@min
  00021	eb 4a		 jmp	 SHORT $LN2@min
$LN7@min:
  00023	68 00 00 00 00	 push	 OFFSET ??_C@_0BD@FEEMDEPI@invalid?5comparator@
  00028	68 00 00 00 00	 push	 OFFSET ??_C@_02DKCKIIND@?$CFs@
  0002d	6a 00		 push	 0
  0002f	68 36 15 00 00	 push	 5430			; 00001536H
  00034	68 00 00 00 00	 push	 OFFSET ??_C@_0GK@JMBMHIBC@c?3?2program?5files?5?$CIx86?$CJ?2microsof@
  00039	6a 02		 push	 2
  0003b	ff 15 00 00 00
	00		 call	 DWORD PTR __imp___CrtDbgReport
  00041	83 c4 18	 add	 esp, 24			; 00000018H
  00044	83 f8 01	 cmp	 eax, 1
  00047	75 01		 jne	 SHORT $LN12@min
  00049	cc		 int	 3
$LN12@min:
  0004a	6a 00		 push	 0
  0004c	68 36 15 00 00	 push	 5430			; 00001536H
  00051	68 00 00 00 00	 push	 OFFSET ??_C@_1NE@FKBPBJEB@?$AAc?$AA?3?$AA?2?$AAp?$AAr?$AAo?$AAg?$AAr?$AAa?$AAm?$AA?5?$AAf?$AAi?$AAl?$AAe@
  00056	68 00 00 00 00	 push	 OFFSET ??_C@_1BC@BLAPCBGI@?$AAs?$AAt?$AAd?$AA?3?$AA?3?$AAm?$AAi?$AAn@
  0005b	68 00 00 00 00	 push	 OFFSET ??_C@_1CK@NDNHPKPI@?$AA?$CC?$AAi?$AAn?$AAv?$AAa?$AAl?$AAi?$AAd?$AA?5?$AAc?$AAo?$AAm?$AAp?$AAa?$AAr@
  00060	ff 15 00 00 00
	00		 call	 DWORD PTR __imp___invalid_parameter
  00066	83 c4 14	 add	 esp, 20			; 00000014H
  00069	33 c0		 xor	 eax, eax
  0006b	75 b6		 jne	 SHORT $LN7@min
$LN2@min:
  0006d	33 c0		 xor	 eax, eax
  0006f	75 a4		 jne	 SHORT $LN4@min

; 5431 : 		return (_Right);

  00071	8b 45 0c	 mov	 eax, DWORD PTR __Right$[ebp]
  00074	eb 03		 jmp	 SHORT $LN11@min
$LN8@min:

; 5432 : 		}
; 5433 : 
; 5434 : 	return (_Left);

  00076	8b 45 08	 mov	 eax, DWORD PTR __Left$[ebp]
$LN11@min:

; 5435 : 	}

  00079	5f		 pop	 edi
  0007a	5e		 pop	 esi
  0007b	5b		 pop	 ebx
  0007c	8b e5		 mov	 esp, ebp
  0007e	5d		 pop	 ebp
  0007f	c2 08 00	 ret	 8
??$min@H@std@@YGABHABH0@Z ENDP				; std::min<int>
_TEXT	ENDS
; Function compile flags: /Odtp /ZI
; File c:\users\nhv90\projects\eech\aphavoc\source\gunships\avionics\blackhawk\bh_wpn.c
;	COMDAT ?apply_weapon_recoil_effect@@YGXPAUENTITY@@H@Z
_TEXT	SEGMENT
tv73 = -124						; size = 4
_vp$ = -56						; size = 48
_strength$ = -8						; size = 4
_duration$ = -4						; size = 4
_en$ = 8						; size = 4
_selected_weapon$ = 12					; size = 4
?apply_weapon_recoil_effect@@YGXPAUENTITY@@H@Z PROC	; apply_weapon_recoil_effect, COMDAT

; 101  : {

  00000	55		 push	 ebp
  00001	8b ec		 mov	 ebp, esp
  00003	83 ec 7c	 sub	 esp, 124		; 0000007cH
  00006	53		 push	 ebx
  00007	56		 push	 esi
  00008	57		 push	 edi

; 102  : 	float
; 103  : 		duration,
; 104  : 		strength;
; 105  : 
; 106  : 	viewpoint
; 107  : 		vp;
; 108  : 
; 109  : 	ASSERT (en);

  00009	83 7d 08 00	 cmp	 DWORD PTR _en$[ebp], 0
  0000d	75 18		 jne	 SHORT $LN4@apply_weap
  0000f	a1 00 00 00 00	 mov	 eax, DWORD PTR ?__LINE__Var@?0??apply_weapon_recoil_effect@@YGXPAUENTITY@@H@Z@4JA
  00014	83 c0 08	 add	 eax, 8
  00017	50		 push	 eax
  00018	68 00 00 00 00	 push	 OFFSET ??_C@_0FB@CKEGNPDJ@c?3?2users?2nhv90?2projects?2eech?2ap@
  0001d	68 00 00 00 00	 push	 OFFSET ??_C@_02LFNMGJAP@en@
  00022	e8 00 00 00 00	 call	 ?process_assert@@YGXPBD0H@Z ; process_assert
$LN4@apply_weap:

; 110  : 
; 111  : 	if (get_local_entity_selected_weapon_viewpoint (en, &vp))

  00027	8d 45 c8	 lea	 eax, DWORD PTR _vp$[ebp]
  0002a	50		 push	 eax
  0002b	8b 4d 08	 mov	 ecx, DWORD PTR _en$[ebp]
  0002e	51		 push	 ecx
  0002f	e8 00 00 00 00	 call	 ?get_local_entity_selected_weapon_viewpoint@@YGHPAUENTITY@@PAUVIEWPOINT@@@Z ; get_local_entity_selected_weapon_viewpoint
  00034	85 c0		 test	 eax, eax
  00036	0f 84 cd 00 00
	00		 je	 $LN5@apply_weap

; 112  : 	{
; 113  : 		switch (selected_weapon)

  0003c	8b 45 0c	 mov	 eax, DWORD PTR _selected_weapon$[ebp]
  0003f	89 45 84	 mov	 DWORD PTR tv73[ebp], eax
  00042	8b 4d 84	 mov	 ecx, DWORD PTR tv73[ebp]
  00045	83 e9 07	 sub	 ecx, 7
  00048	89 4d 84	 mov	 DWORD PTR tv73[ebp], ecx
  0004b	83 7d 84 27	 cmp	 DWORD PTR tv73[ebp], 39	; 00000027H
  0004f	0f 87 81 00 00
	00		 ja	 $LN10@apply_weap
  00055	8b 55 84	 mov	 edx, DWORD PTR tv73[ebp]
  00058	0f b6 82 00 00
	00 00		 movzx	 eax, BYTE PTR $LN12@apply_weap[edx]
  0005f	ff 24 85 00 00
	00 00		 jmp	 DWORD PTR $LN13@apply_weap[eax*4]
$LN6@apply_weap:

; 114  : 		{
; 115  : 			////////////////////////////////////////
; 116  : 			case ENTITY_SUB_TYPE_WEAPON_M230_30MM_ROUND:
; 117  : 			////////////////////////////////////////
; 118  : 			{
; 119  : 				duration = 0.2;

  00066	f3 0f 10 05 00
	00 00 00	 movss	 xmm0, DWORD PTR __real@3e4ccccd
  0006e	f3 0f 11 45 fc	 movss	 DWORD PTR _duration$[ebp], xmm0

; 120  : 
; 121  : 				strength = 3.0;

  00073	f3 0f 10 05 00
	00 00 00	 movss	 xmm0, DWORD PTR __real@40400000
  0007b	f3 0f 11 45 f8	 movss	 DWORD PTR _strength$[ebp], xmm0

; 122  : 
; 123  : 				break;

  00080	eb 64		 jmp	 SHORT $LN2@apply_weap
$LN7@apply_weap:

; 124  : 			}
; 125  : 			////////////////////////////////////////
; 126  : 			case ENTITY_SUB_TYPE_WEAPON_AIM92_STINGER:
; 127  : 			////////////////////////////////////////
; 128  : 			{
; 129  : 				duration = 0.6;

  00082	f3 0f 10 05 00
	00 00 00	 movss	 xmm0, DWORD PTR __real@3f19999a
  0008a	f3 0f 11 45 fc	 movss	 DWORD PTR _duration$[ebp], xmm0

; 130  : 
; 131  : 				strength = 10.0;

  0008f	f3 0f 10 05 00
	00 00 00	 movss	 xmm0, DWORD PTR __real@41200000
  00097	f3 0f 11 45 f8	 movss	 DWORD PTR _strength$[ebp], xmm0

; 132  : 
; 133  : 				break;

  0009c	eb 48		 jmp	 SHORT $LN2@apply_weap
$LN8@apply_weap:

; 134  : 			}
; 135  : 			////////////////////////////////////////
; 136  : 			case ENTITY_SUB_TYPE_WEAPON_AGM114L_LONGBOW_HELLFIRE:
; 137  : 			case ENTITY_SUB_TYPE_WEAPON_AGM114K_HELLFIRE_II:
; 138  : 			////////////////////////////////////////
; 139  : 			{
; 140  : 				duration = 0.5;

  0009e	f3 0f 10 05 00
	00 00 00	 movss	 xmm0, DWORD PTR __real@3f000000
  000a6	f3 0f 11 45 fc	 movss	 DWORD PTR _duration$[ebp], xmm0

; 141  : 
; 142  : 				strength = 10.0;

  000ab	f3 0f 10 05 00
	00 00 00	 movss	 xmm0, DWORD PTR __real@41200000
  000b3	f3 0f 11 45 f8	 movss	 DWORD PTR _strength$[ebp], xmm0

; 143  : 
; 144  : 				break;

  000b8	eb 2c		 jmp	 SHORT $LN2@apply_weap
$LN9@apply_weap:

; 145  : 			}
; 146  : 			////////////////////////////////////////
; 147  : 			case ENTITY_SUB_TYPE_WEAPON_HYDRA70_M255:
; 148  : 			case ENTITY_SUB_TYPE_WEAPON_HYDRA70_M261:
; 149  : 			////////////////////////////////////////
; 150  : 			{
; 151  : 				duration = 0.7;

  000ba	f3 0f 10 05 00
	00 00 00	 movss	 xmm0, DWORD PTR __real@3f333333
  000c2	f3 0f 11 45 fc	 movss	 DWORD PTR _duration$[ebp], xmm0

; 152  : 
; 153  : 				strength = 8.0;

  000c7	f3 0f 10 05 00
	00 00 00	 movss	 xmm0, DWORD PTR __real@41000000
  000cf	f3 0f 11 45 f8	 movss	 DWORD PTR _strength$[ebp], xmm0

; 154  : 
; 155  : 				break;

  000d4	eb 10		 jmp	 SHORT $LN2@apply_weap
$LN10@apply_weap:

; 156  : 			}
; 157  : 			////////////////////////////////////////
; 158  : 			default:
; 159  : 			////////////////////////////////////////
; 160  : 			{
; 161  : 				duration = 0.0;

  000d6	0f 57 c0	 xorps	 xmm0, xmm0
  000d9	f3 0f 11 45 fc	 movss	 DWORD PTR _duration$[ebp], xmm0

; 162  : 
; 163  : 				strength = 0.0;

  000de	0f 57 c0	 xorps	 xmm0, xmm0
  000e1	f3 0f 11 45 f8	 movss	 DWORD PTR _strength$[ebp], xmm0
$LN2@apply_weap:

; 164  : 
; 165  : 				break;
; 166  : 			}
; 167  : 		}
; 168  : 
; 169  : 		add_dynamic_weapon_launch_force (&vp.position, &vp.zv, strength, duration);

  000e6	51		 push	 ecx
  000e7	f3 0f 10 45 fc	 movss	 xmm0, DWORD PTR _duration$[ebp]
  000ec	f3 0f 11 04 24	 movss	 DWORD PTR [esp], xmm0
  000f1	51		 push	 ecx
  000f2	f3 0f 10 45 f8	 movss	 xmm0, DWORD PTR _strength$[ebp]
  000f7	f3 0f 11 04 24	 movss	 DWORD PTR [esp], xmm0
  000fc	8d 45 ec	 lea	 eax, DWORD PTR _vp$[ebp+36]
  000ff	50		 push	 eax
  00100	8d 4d c8	 lea	 ecx, DWORD PTR _vp$[ebp]
  00103	51		 push	 ecx
  00104	e8 00 00 00 00	 call	 ?add_dynamic_weapon_launch_force@@YGXPAUVEC3D@@0MM@Z ; add_dynamic_weapon_launch_force
$LN5@apply_weap:

; 170  : 	}
; 171  : }

  00109	5f		 pop	 edi
  0010a	5e		 pop	 esi
  0010b	5b		 pop	 ebx
  0010c	8b e5		 mov	 esp, ebp
  0010e	5d		 pop	 ebp
  0010f	c2 08 00	 ret	 8
  00112	66 90		 npad	 2
$LN13@apply_weap:
  00114	00 00 00 00	 DD	 $LN6@apply_weap
  00118	00 00 00 00	 DD	 $LN9@apply_weap
  0011c	00 00 00 00	 DD	 $LN7@apply_weap
  00120	00 00 00 00	 DD	 $LN8@apply_weap
  00124	00 00 00 00	 DD	 $LN10@apply_weap
$LN12@apply_weap:
  00128	00		 DB	 0
  00129	04		 DB	 4
  0012a	04		 DB	 4
  0012b	04		 DB	 4
  0012c	04		 DB	 4
  0012d	04		 DB	 4
  0012e	04		 DB	 4
  0012f	04		 DB	 4
  00130	04		 DB	 4
  00131	04		 DB	 4
  00132	04		 DB	 4
  00133	04		 DB	 4
  00134	04		 DB	 4
  00135	04		 DB	 4
  00136	04		 DB	 4
  00137	04		 DB	 4
  00138	04		 DB	 4
  00139	04		 DB	 4
  0013a	04		 DB	 4
  0013b	04		 DB	 4
  0013c	04		 DB	 4
  0013d	04		 DB	 4
  0013e	04		 DB	 4
  0013f	01		 DB	 1
  00140	01		 DB	 1
  00141	04		 DB	 4
  00142	04		 DB	 4
  00143	04		 DB	 4
  00144	04		 DB	 4
  00145	02		 DB	 2
  00146	04		 DB	 4
  00147	04		 DB	 4
  00148	04		 DB	 4
  00149	04		 DB	 4
  0014a	04		 DB	 4
  0014b	04		 DB	 4
  0014c	04		 DB	 4
  0014d	04		 DB	 4
  0014e	03		 DB	 3
  0014f	03		 DB	 3
?apply_weapon_recoil_effect@@YGXPAUENTITY@@H@Z ENDP	; apply_weapon_recoil_effect
_TEXT	ENDS
; Function compile flags: /Odtp /ZI
; File c:\users\nhv90\projects\eech\aphavoc\source\gunships\avionics\blackhawk\bh_wpn.c
;	COMDAT ?set_blackhawk_infra_red_jammer_auto@@YGXH@Z
_TEXT	SEGMENT
tv133 = -72						; size = 4
tv80 = -72						; size = 4
tv93 = -68						; size = 4
tv73 = -68						; size = 4
_state$ = 8						; size = 4
?set_blackhawk_infra_red_jammer_auto@@YGXH@Z PROC	; set_blackhawk_infra_red_jammer_auto, COMDAT

; 630  : {

  00000	55		 push	 ebp
  00001	8b ec		 mov	 ebp, esp
  00003	83 ec 48	 sub	 esp, 72			; 00000048H
  00006	53		 push	 ebx
  00007	56		 push	 esi
  00008	57		 push	 edi

; 631  : 	if (!blackhawk_damage.infra_red_jammer)

  00009	a1 00 00 00 00	 mov	 eax, DWORD PTR ?blackhawk_damage@@3TBLACKHAWK_DAMAGE_FLAGS@@A ; blackhawk_damage
  0000e	c1 e8 08	 shr	 eax, 8
  00011	83 e0 01	 and	 eax, 1
  00014	0f 85 24 01 00
	00		 jne	 $LN1@set_blackh

; 632  : 	{
; 633  : 		if (get_global_auto_counter_measures ())

  0001a	83 3d 90 00 00
	00 00		 cmp	 DWORD PTR ?global_options@@3UGLOBAL_OPTIONS_DATA@@A+144, 0
  00021	0f 84 17 01 00
	00		 je	 $LN1@set_blackh

; 634  : 		{
; 635  : 			if (state != get_local_entity_int_value (get_gunship_entity (), INT_TYPE_INFRA_RED_JAMMER_ON))

  00027	83 3d 00 00 00
	00 00		 cmp	 DWORD PTR ?gunship_entity@@3PAUENTITY@@A, 0 ; gunship_entity
  0002e	74 0c		 je	 SHORT $LN6@set_blackh
  00030	a1 00 00 00 00	 mov	 eax, DWORD PTR ?gunship_entity@@3PAUENTITY@@A ; gunship_entity
  00035	8b 08		 mov	 ecx, DWORD PTR [eax]
  00037	89 4d bc	 mov	 DWORD PTR tv73[ebp], ecx
  0003a	eb 1d		 jmp	 SHORT $LN7@set_blackh
$LN6@set_blackh:
  0003c	68 7b 02 00 00	 push	 635			; 0000027bH
  00041	68 00 00 00 00	 push	 OFFSET ??_C@_0FB@CKEGNPDJ@c?3?2users?2nhv90?2projects?2eech?2ap@
  00046	8b 15 00 00 00
	00		 mov	 edx, DWORD PTR ?null_entity_pointer_message@@3PBDB ; null_entity_pointer_message
  0004c	52		 push	 edx
  0004d	e8 00 00 00 00	 call	 ?process_assert@@YGXPBD0H@Z ; process_assert
  00052	c7 45 bc 00 00
	00 00		 mov	 DWORD PTR tv73[ebp], 0
$LN7@set_blackh:
  00059	b8 01 00 00 00	 mov	 eax, 1
  0005e	85 c0		 test	 eax, eax
  00060	74 09		 je	 SHORT $LN8@set_blackh
  00062	c7 45 b8 68 00
	00 00		 mov	 DWORD PTR tv80[ebp], 104 ; 00000068H
  00069	eb 1d		 jmp	 SHORT $LN9@set_blackh
$LN8@set_blackh:
  0006b	68 7b 02 00 00	 push	 635			; 0000027bH
  00070	68 00 00 00 00	 push	 OFFSET ??_C@_0FB@CKEGNPDJ@c?3?2users?2nhv90?2projects?2eech?2ap@
  00075	8b 0d 00 00 00
	00		 mov	 ecx, DWORD PTR ?overload_invalid_int_type_message@@3PBDB ; overload_invalid_int_type_message
  0007b	51		 push	 ecx
  0007c	e8 00 00 00 00	 call	 ?process_assert@@YGXPBD0H@Z ; process_assert
  00081	c7 45 b8 00 00
	00 00		 mov	 DWORD PTR tv80[ebp], 0
$LN9@set_blackh:
  00088	6a 68		 push	 104			; 00000068H
  0008a	8b 15 00 00 00
	00		 mov	 edx, DWORD PTR ?gunship_entity@@3PAUENTITY@@A ; gunship_entity
  00090	52		 push	 edx
  00091	69 45 bc 5c 04
	00 00		 imul	 eax, DWORD PTR tv73[ebp], 1116
  00098	8b 4d b8	 mov	 ecx, DWORD PTR tv80[ebp]
  0009b	8b 94 88 00 00
	00 00		 mov	 edx, DWORD PTR ?fn_get_local_entity_int_value@@3PAY0BBH@P6GHPAUENTITY@@W4INT_TYPES@@@ZA[eax+ecx*4]
  000a2	ff d2		 call	 edx
  000a4	39 45 08	 cmp	 DWORD PTR _state$[ebp], eax
  000a7	0f 84 91 00 00
	00		 je	 $LN1@set_blackh

; 636  : 			{
; 637  : 				set_client_server_entity_int_value (get_gunship_entity (), INT_TYPE_INFRA_RED_JAMMER_ON, state);

  000ad	83 3d 00 00 00
	00 00		 cmp	 DWORD PTR ?gunship_entity@@3PAUENTITY@@A, 0 ; gunship_entity
  000b4	74 0c		 je	 SHORT $LN10@set_blackh
  000b6	a1 00 00 00 00	 mov	 eax, DWORD PTR ?gunship_entity@@3PAUENTITY@@A ; gunship_entity
  000bb	8b 08		 mov	 ecx, DWORD PTR [eax]
  000bd	89 4d bc	 mov	 DWORD PTR tv93[ebp], ecx
  000c0	eb 21		 jmp	 SHORT $LN11@set_blackh
$LN10@set_blackh:
  000c2	8b 15 00 00 00
	00		 mov	 edx, DWORD PTR ?__LINE__Var@?0??set_blackhawk_infra_red_jammer_auto@@YGXH@Z@4JA
  000c8	83 c2 07	 add	 edx, 7
  000cb	52		 push	 edx
  000cc	68 00 00 00 00	 push	 OFFSET ??_C@_0FB@CKEGNPDJ@c?3?2users?2nhv90?2projects?2eech?2ap@
  000d1	a1 00 00 00 00	 mov	 eax, DWORD PTR ?null_entity_pointer_message@@3PBDB ; null_entity_pointer_message
  000d6	50		 push	 eax
  000d7	e8 00 00 00 00	 call	 ?process_assert@@YGXPBD0H@Z ; process_assert
  000dc	c7 45 bc 00 00
	00 00		 mov	 DWORD PTR tv93[ebp], 0
$LN11@set_blackh:
  000e3	b9 01 00 00 00	 mov	 ecx, 1
  000e8	85 c9		 test	 ecx, ecx
  000ea	74 09		 je	 SHORT $LN12@set_blackh
  000ec	c7 45 b8 68 00
	00 00		 mov	 DWORD PTR tv133[ebp], 104 ; 00000068H
  000f3	eb 21		 jmp	 SHORT $LN13@set_blackh
$LN12@set_blackh:
  000f5	8b 15 00 00 00
	00		 mov	 edx, DWORD PTR ?__LINE__Var@?0??set_blackhawk_infra_red_jammer_auto@@YGXH@Z@4JA
  000fb	83 c2 07	 add	 edx, 7
  000fe	52		 push	 edx
  000ff	68 00 00 00 00	 push	 OFFSET ??_C@_0FB@CKEGNPDJ@c?3?2users?2nhv90?2projects?2eech?2ap@
  00104	a1 00 00 00 00	 mov	 eax, DWORD PTR ?overload_invalid_int_type_message@@3PBDB ; overload_invalid_int_type_message
  00109	50		 push	 eax
  0010a	e8 00 00 00 00	 call	 ?process_assert@@YGXPBD0H@Z ; process_assert
  0010f	c7 45 b8 00 00
	00 00		 mov	 DWORD PTR tv133[ebp], 0
$LN13@set_blackh:
  00116	8b 4d 08	 mov	 ecx, DWORD PTR _state$[ebp]
  00119	51		 push	 ecx
  0011a	6a 68		 push	 104			; 00000068H
  0011c	8b 15 00 00 00
	00		 mov	 edx, DWORD PTR ?gunship_entity@@3PAUENTITY@@A ; gunship_entity
  00122	52		 push	 edx
  00123	69 45 bc b8 08
	00 00		 imul	 eax, DWORD PTR tv93[ebp], 2232
  0012a	8b 4d b8	 mov	 ecx, DWORD PTR tv133[ebp]
  0012d	8d 94 c8 00 00
	00 00		 lea	 edx, DWORD PTR ?fn_set_client_server_entity_int_value@@3PAY1BBH@1P6GXPAUENTITY@@W4INT_TYPES@@H@ZA[eax+ecx*8]
  00134	a1 00 00 00 00	 mov	 eax, DWORD PTR ?system_comms_model@@3W4COMMS_MODEL_TYPES@@A ; system_comms_model
  00139	8b 0c 82	 mov	 ecx, DWORD PTR [edx+eax*4]
  0013c	ff d1		 call	 ecx
$LN1@set_blackh:

; 638  : 			}
; 639  : 		}
; 640  : 	}
; 641  : }

  0013e	5f		 pop	 edi
  0013f	5e		 pop	 esi
  00140	5b		 pop	 ebx
  00141	8b e5		 mov	 esp, ebp
  00143	5d		 pop	 ebp
  00144	c2 04 00	 ret	 4
?set_blackhawk_infra_red_jammer_auto@@YGXH@Z ENDP	; set_blackhawk_infra_red_jammer_auto
_TEXT	ENDS
; Function compile flags: /Odtp /ZI
; File c:\users\nhv90\projects\eech\aphavoc\source\gunships\avionics\blackhawk\bh_wpn.c
;	COMDAT ?set_blackhawk_infra_red_jammer_manual@@YGXH@Z
_TEXT	SEGMENT
tv133 = -72						; size = 4
tv80 = -72						; size = 4
tv93 = -68						; size = 4
tv73 = -68						; size = 4
_state$ = 8						; size = 4
?set_blackhawk_infra_red_jammer_manual@@YGXH@Z PROC	; set_blackhawk_infra_red_jammer_manual, COMDAT

; 612  : {

  00000	55		 push	 ebp
  00001	8b ec		 mov	 ebp, esp
  00003	83 ec 48	 sub	 esp, 72			; 00000048H
  00006	53		 push	 ebx
  00007	56		 push	 esi
  00008	57		 push	 edi

; 613  : 	if (!blackhawk_damage.infra_red_jammer)

  00009	a1 00 00 00 00	 mov	 eax, DWORD PTR ?blackhawk_damage@@3TBLACKHAWK_DAMAGE_FLAGS@@A ; blackhawk_damage
  0000e	c1 e8 08	 shr	 eax, 8
  00011	83 e0 01	 and	 eax, 1
  00014	0f 85 24 01 00
	00		 jne	 $LN1@set_blackh

; 614  : 	{
; 615  : 		if (!get_global_auto_counter_measures ())

  0001a	83 3d 90 00 00
	00 00		 cmp	 DWORD PTR ?global_options@@3UGLOBAL_OPTIONS_DATA@@A+144, 0
  00021	0f 85 17 01 00
	00		 jne	 $LN1@set_blackh

; 616  : 		{
; 617  : 			if (state != get_local_entity_int_value (get_gunship_entity (), INT_TYPE_INFRA_RED_JAMMER_ON))

  00027	83 3d 00 00 00
	00 00		 cmp	 DWORD PTR ?gunship_entity@@3PAUENTITY@@A, 0 ; gunship_entity
  0002e	74 0c		 je	 SHORT $LN6@set_blackh
  00030	a1 00 00 00 00	 mov	 eax, DWORD PTR ?gunship_entity@@3PAUENTITY@@A ; gunship_entity
  00035	8b 08		 mov	 ecx, DWORD PTR [eax]
  00037	89 4d bc	 mov	 DWORD PTR tv73[ebp], ecx
  0003a	eb 1d		 jmp	 SHORT $LN7@set_blackh
$LN6@set_blackh:
  0003c	68 69 02 00 00	 push	 617			; 00000269H
  00041	68 00 00 00 00	 push	 OFFSET ??_C@_0FB@CKEGNPDJ@c?3?2users?2nhv90?2projects?2eech?2ap@
  00046	8b 15 00 00 00
	00		 mov	 edx, DWORD PTR ?null_entity_pointer_message@@3PBDB ; null_entity_pointer_message
  0004c	52		 push	 edx
  0004d	e8 00 00 00 00	 call	 ?process_assert@@YGXPBD0H@Z ; process_assert
  00052	c7 45 bc 00 00
	00 00		 mov	 DWORD PTR tv73[ebp], 0
$LN7@set_blackh:
  00059	b8 01 00 00 00	 mov	 eax, 1
  0005e	85 c0		 test	 eax, eax
  00060	74 09		 je	 SHORT $LN8@set_blackh
  00062	c7 45 b8 68 00
	00 00		 mov	 DWORD PTR tv80[ebp], 104 ; 00000068H
  00069	eb 1d		 jmp	 SHORT $LN9@set_blackh
$LN8@set_blackh:
  0006b	68 69 02 00 00	 push	 617			; 00000269H
  00070	68 00 00 00 00	 push	 OFFSET ??_C@_0FB@CKEGNPDJ@c?3?2users?2nhv90?2projects?2eech?2ap@
  00075	8b 0d 00 00 00
	00		 mov	 ecx, DWORD PTR ?overload_invalid_int_type_message@@3PBDB ; overload_invalid_int_type_message
  0007b	51		 push	 ecx
  0007c	e8 00 00 00 00	 call	 ?process_assert@@YGXPBD0H@Z ; process_assert
  00081	c7 45 b8 00 00
	00 00		 mov	 DWORD PTR tv80[ebp], 0
$LN9@set_blackh:
  00088	6a 68		 push	 104			; 00000068H
  0008a	8b 15 00 00 00
	00		 mov	 edx, DWORD PTR ?gunship_entity@@3PAUENTITY@@A ; gunship_entity
  00090	52		 push	 edx
  00091	69 45 bc 5c 04
	00 00		 imul	 eax, DWORD PTR tv73[ebp], 1116
  00098	8b 4d b8	 mov	 ecx, DWORD PTR tv80[ebp]
  0009b	8b 94 88 00 00
	00 00		 mov	 edx, DWORD PTR ?fn_get_local_entity_int_value@@3PAY0BBH@P6GHPAUENTITY@@W4INT_TYPES@@@ZA[eax+ecx*4]
  000a2	ff d2		 call	 edx
  000a4	39 45 08	 cmp	 DWORD PTR _state$[ebp], eax
  000a7	0f 84 91 00 00
	00		 je	 $LN1@set_blackh

; 618  : 			{
; 619  : 				set_client_server_entity_int_value (get_gunship_entity (), INT_TYPE_INFRA_RED_JAMMER_ON, state);

  000ad	83 3d 00 00 00
	00 00		 cmp	 DWORD PTR ?gunship_entity@@3PAUENTITY@@A, 0 ; gunship_entity
  000b4	74 0c		 je	 SHORT $LN10@set_blackh
  000b6	a1 00 00 00 00	 mov	 eax, DWORD PTR ?gunship_entity@@3PAUENTITY@@A ; gunship_entity
  000bb	8b 08		 mov	 ecx, DWORD PTR [eax]
  000bd	89 4d bc	 mov	 DWORD PTR tv93[ebp], ecx
  000c0	eb 21		 jmp	 SHORT $LN11@set_blackh
$LN10@set_blackh:
  000c2	8b 15 00 00 00
	00		 mov	 edx, DWORD PTR ?__LINE__Var@?0??set_blackhawk_infra_red_jammer_manual@@YGXH@Z@4JA
  000c8	83 c2 07	 add	 edx, 7
  000cb	52		 push	 edx
  000cc	68 00 00 00 00	 push	 OFFSET ??_C@_0FB@CKEGNPDJ@c?3?2users?2nhv90?2projects?2eech?2ap@
  000d1	a1 00 00 00 00	 mov	 eax, DWORD PTR ?null_entity_pointer_message@@3PBDB ; null_entity_pointer_message
  000d6	50		 push	 eax
  000d7	e8 00 00 00 00	 call	 ?process_assert@@YGXPBD0H@Z ; process_assert
  000dc	c7 45 bc 00 00
	00 00		 mov	 DWORD PTR tv93[ebp], 0
$LN11@set_blackh:
  000e3	b9 01 00 00 00	 mov	 ecx, 1
  000e8	85 c9		 test	 ecx, ecx
  000ea	74 09		 je	 SHORT $LN12@set_blackh
  000ec	c7 45 b8 68 00
	00 00		 mov	 DWORD PTR tv133[ebp], 104 ; 00000068H
  000f3	eb 21		 jmp	 SHORT $LN13@set_blackh
$LN12@set_blackh:
  000f5	8b 15 00 00 00
	00		 mov	 edx, DWORD PTR ?__LINE__Var@?0??set_blackhawk_infra_red_jammer_manual@@YGXH@Z@4JA
  000fb	83 c2 07	 add	 edx, 7
  000fe	52		 push	 edx
  000ff	68 00 00 00 00	 push	 OFFSET ??_C@_0FB@CKEGNPDJ@c?3?2users?2nhv90?2projects?2eech?2ap@
  00104	a1 00 00 00 00	 mov	 eax, DWORD PTR ?overload_invalid_int_type_message@@3PBDB ; overload_invalid_int_type_message
  00109	50		 push	 eax
  0010a	e8 00 00 00 00	 call	 ?process_assert@@YGXPBD0H@Z ; process_assert
  0010f	c7 45 b8 00 00
	00 00		 mov	 DWORD PTR tv133[ebp], 0
$LN13@set_blackh:
  00116	8b 4d 08	 mov	 ecx, DWORD PTR _state$[ebp]
  00119	51		 push	 ecx
  0011a	6a 68		 push	 104			; 00000068H
  0011c	8b 15 00 00 00
	00		 mov	 edx, DWORD PTR ?gunship_entity@@3PAUENTITY@@A ; gunship_entity
  00122	52		 push	 edx
  00123	69 45 bc b8 08
	00 00		 imul	 eax, DWORD PTR tv93[ebp], 2232
  0012a	8b 4d b8	 mov	 ecx, DWORD PTR tv133[ebp]
  0012d	8d 94 c8 00 00
	00 00		 lea	 edx, DWORD PTR ?fn_set_client_server_entity_int_value@@3PAY1BBH@1P6GXPAUENTITY@@W4INT_TYPES@@H@ZA[eax+ecx*8]
  00134	a1 00 00 00 00	 mov	 eax, DWORD PTR ?system_comms_model@@3W4COMMS_MODEL_TYPES@@A ; system_comms_model
  00139	8b 0c 82	 mov	 ecx, DWORD PTR [edx+eax*4]
  0013c	ff d1		 call	 ecx
$LN1@set_blackh:

; 620  : 			}
; 621  : 		}
; 622  : 	}
; 623  : }

  0013e	5f		 pop	 edi
  0013f	5e		 pop	 esi
  00140	5b		 pop	 ebx
  00141	8b e5		 mov	 esp, ebp
  00143	5d		 pop	 ebp
  00144	c2 04 00	 ret	 4
?set_blackhawk_infra_red_jammer_manual@@YGXH@Z ENDP	; set_blackhawk_infra_red_jammer_manual
_TEXT	ENDS
; Function compile flags: /Odtp /ZI
; File c:\users\nhv90\projects\eech\aphavoc\source\gunships\avionics\blackhawk\bh_wpn.c
;	COMDAT ?toggle_blackhawk_infra_red_jammer_manual@@YGXXZ
_TEXT	SEGMENT
tv155 = -72						; size = 4
tv133 = -72						; size = 4
tv80 = -72						; size = 4
tv147 = -68						; size = 4
tv93 = -68						; size = 4
tv73 = -68						; size = 4
?toggle_blackhawk_infra_red_jammer_manual@@YGXXZ PROC	; toggle_blackhawk_infra_red_jammer_manual, COMDAT

; 588  : {

  00000	55		 push	 ebp
  00001	8b ec		 mov	 ebp, esp
  00003	83 ec 48	 sub	 esp, 72			; 00000048H
  00006	53		 push	 ebx
  00007	56		 push	 esi
  00008	57		 push	 edi

; 589  : 	if (!blackhawk_damage.infra_red_jammer)

  00009	a1 00 00 00 00	 mov	 eax, DWORD PTR ?blackhawk_damage@@3TBLACKHAWK_DAMAGE_FLAGS@@A ; blackhawk_damage
  0000e	c1 e8 08	 shr	 eax, 8
  00011	83 e0 01	 and	 eax, 1
  00014	0f 85 b7 01 00
	00		 jne	 $LN2@toggle_bla

; 590  : 	{
; 591  : 		if (!get_global_auto_counter_measures ())

  0001a	83 3d 90 00 00
	00 00		 cmp	 DWORD PTR ?global_options@@3UGLOBAL_OPTIONS_DATA@@A+144, 0
  00021	0f 85 aa 01 00
	00		 jne	 $LN2@toggle_bla

; 592  : 		{
; 593  : 			if (get_local_entity_int_value (get_gunship_entity (), INT_TYPE_INFRA_RED_JAMMER_ON))

  00027	83 3d 00 00 00
	00 00		 cmp	 DWORD PTR ?gunship_entity@@3PAUENTITY@@A, 0 ; gunship_entity
  0002e	74 0c		 je	 SHORT $LN7@toggle_bla
  00030	a1 00 00 00 00	 mov	 eax, DWORD PTR ?gunship_entity@@3PAUENTITY@@A ; gunship_entity
  00035	8b 08		 mov	 ecx, DWORD PTR [eax]
  00037	89 4d bc	 mov	 DWORD PTR tv73[ebp], ecx
  0003a	eb 1d		 jmp	 SHORT $LN8@toggle_bla
$LN7@toggle_bla:
  0003c	68 51 02 00 00	 push	 593			; 00000251H
  00041	68 00 00 00 00	 push	 OFFSET ??_C@_0FB@CKEGNPDJ@c?3?2users?2nhv90?2projects?2eech?2ap@
  00046	8b 15 00 00 00
	00		 mov	 edx, DWORD PTR ?null_entity_pointer_message@@3PBDB ; null_entity_pointer_message
  0004c	52		 push	 edx
  0004d	e8 00 00 00 00	 call	 ?process_assert@@YGXPBD0H@Z ; process_assert
  00052	c7 45 bc 00 00
	00 00		 mov	 DWORD PTR tv73[ebp], 0
$LN8@toggle_bla:
  00059	b8 01 00 00 00	 mov	 eax, 1
  0005e	85 c0		 test	 eax, eax
  00060	74 09		 je	 SHORT $LN9@toggle_bla
  00062	c7 45 b8 68 00
	00 00		 mov	 DWORD PTR tv80[ebp], 104 ; 00000068H
  00069	eb 1d		 jmp	 SHORT $LN10@toggle_bla
$LN9@toggle_bla:
  0006b	68 51 02 00 00	 push	 593			; 00000251H
  00070	68 00 00 00 00	 push	 OFFSET ??_C@_0FB@CKEGNPDJ@c?3?2users?2nhv90?2projects?2eech?2ap@
  00075	8b 0d 00 00 00
	00		 mov	 ecx, DWORD PTR ?overload_invalid_int_type_message@@3PBDB ; overload_invalid_int_type_message
  0007b	51		 push	 ecx
  0007c	e8 00 00 00 00	 call	 ?process_assert@@YGXPBD0H@Z ; process_assert
  00081	c7 45 b8 00 00
	00 00		 mov	 DWORD PTR tv80[ebp], 0
$LN10@toggle_bla:
  00088	6a 68		 push	 104			; 00000068H
  0008a	8b 15 00 00 00
	00		 mov	 edx, DWORD PTR ?gunship_entity@@3PAUENTITY@@A ; gunship_entity
  00090	52		 push	 edx
  00091	69 45 bc 5c 04
	00 00		 imul	 eax, DWORD PTR tv73[ebp], 1116
  00098	8b 4d b8	 mov	 ecx, DWORD PTR tv80[ebp]
  0009b	8b 94 88 00 00
	00 00		 mov	 edx, DWORD PTR ?fn_get_local_entity_int_value@@3PAY0BBH@P6GHPAUENTITY@@W4INT_TYPES@@@ZA[eax+ecx*4]
  000a2	ff d2		 call	 edx
  000a4	85 c0		 test	 eax, eax
  000a6	0f 84 95 00 00
	00		 je	 $LN4@toggle_bla

; 594  : 			{
; 595  : 				set_client_server_entity_int_value (get_gunship_entity (), INT_TYPE_INFRA_RED_JAMMER_ON, FALSE);

  000ac	83 3d 00 00 00
	00 00		 cmp	 DWORD PTR ?gunship_entity@@3PAUENTITY@@A, 0 ; gunship_entity
  000b3	74 0c		 je	 SHORT $LN11@toggle_bla
  000b5	a1 00 00 00 00	 mov	 eax, DWORD PTR ?gunship_entity@@3PAUENTITY@@A ; gunship_entity
  000ba	8b 08		 mov	 ecx, DWORD PTR [eax]
  000bc	89 4d bc	 mov	 DWORD PTR tv93[ebp], ecx
  000bf	eb 21		 jmp	 SHORT $LN12@toggle_bla
$LN11@toggle_bla:
  000c1	8b 15 00 00 00
	00		 mov	 edx, DWORD PTR ?__LINE__Var@?0??toggle_blackhawk_infra_red_jammer_manual@@YGXXZ@4JA
  000c7	83 c2 07	 add	 edx, 7
  000ca	52		 push	 edx
  000cb	68 00 00 00 00	 push	 OFFSET ??_C@_0FB@CKEGNPDJ@c?3?2users?2nhv90?2projects?2eech?2ap@
  000d0	a1 00 00 00 00	 mov	 eax, DWORD PTR ?null_entity_pointer_message@@3PBDB ; null_entity_pointer_message
  000d5	50		 push	 eax
  000d6	e8 00 00 00 00	 call	 ?process_assert@@YGXPBD0H@Z ; process_assert
  000db	c7 45 bc 00 00
	00 00		 mov	 DWORD PTR tv93[ebp], 0
$LN12@toggle_bla:
  000e2	b9 01 00 00 00	 mov	 ecx, 1
  000e7	85 c9		 test	 ecx, ecx
  000e9	74 09		 je	 SHORT $LN13@toggle_bla
  000eb	c7 45 b8 68 00
	00 00		 mov	 DWORD PTR tv133[ebp], 104 ; 00000068H
  000f2	eb 21		 jmp	 SHORT $LN14@toggle_bla
$LN13@toggle_bla:
  000f4	8b 15 00 00 00
	00		 mov	 edx, DWORD PTR ?__LINE__Var@?0??toggle_blackhawk_infra_red_jammer_manual@@YGXXZ@4JA
  000fa	83 c2 07	 add	 edx, 7
  000fd	52		 push	 edx
  000fe	68 00 00 00 00	 push	 OFFSET ??_C@_0FB@CKEGNPDJ@c?3?2users?2nhv90?2projects?2eech?2ap@
  00103	a1 00 00 00 00	 mov	 eax, DWORD PTR ?overload_invalid_int_type_message@@3PBDB ; overload_invalid_int_type_message
  00108	50		 push	 eax
  00109	e8 00 00 00 00	 call	 ?process_assert@@YGXPBD0H@Z ; process_assert
  0010e	c7 45 b8 00 00
	00 00		 mov	 DWORD PTR tv133[ebp], 0
$LN14@toggle_bla:
  00115	6a 00		 push	 0
  00117	6a 68		 push	 104			; 00000068H
  00119	8b 0d 00 00 00
	00		 mov	 ecx, DWORD PTR ?gunship_entity@@3PAUENTITY@@A ; gunship_entity
  0011f	51		 push	 ecx
  00120	69 55 bc b8 08
	00 00		 imul	 edx, DWORD PTR tv93[ebp], 2232
  00127	8b 45 b8	 mov	 eax, DWORD PTR tv133[ebp]
  0012a	8d 8c c2 00 00
	00 00		 lea	 ecx, DWORD PTR ?fn_set_client_server_entity_int_value@@3PAY1BBH@1P6GXPAUENTITY@@W4INT_TYPES@@H@ZA[edx+eax*8]
  00131	8b 15 00 00 00
	00		 mov	 edx, DWORD PTR ?system_comms_model@@3W4COMMS_MODEL_TYPES@@A ; system_comms_model
  00137	8b 04 91	 mov	 eax, DWORD PTR [ecx+edx*4]
  0013a	ff d0		 call	 eax

; 596  : 			}
; 597  : 			else

  0013c	e9 90 00 00 00	 jmp	 $LN2@toggle_bla
$LN4@toggle_bla:

; 598  : 			{
; 599  : 				set_client_server_entity_int_value (get_gunship_entity (), INT_TYPE_INFRA_RED_JAMMER_ON, TRUE);

  00141	83 3d 00 00 00
	00 00		 cmp	 DWORD PTR ?gunship_entity@@3PAUENTITY@@A, 0 ; gunship_entity
  00148	74 0c		 je	 SHORT $LN15@toggle_bla
  0014a	a1 00 00 00 00	 mov	 eax, DWORD PTR ?gunship_entity@@3PAUENTITY@@A ; gunship_entity
  0014f	8b 08		 mov	 ecx, DWORD PTR [eax]
  00151	89 4d bc	 mov	 DWORD PTR tv147[ebp], ecx
  00154	eb 21		 jmp	 SHORT $LN16@toggle_bla
$LN15@toggle_bla:
  00156	8b 15 00 00 00
	00		 mov	 edx, DWORD PTR ?__LINE__Var@?0??toggle_blackhawk_infra_red_jammer_manual@@YGXXZ@4JA
  0015c	83 c2 0b	 add	 edx, 11			; 0000000bH
  0015f	52		 push	 edx
  00160	68 00 00 00 00	 push	 OFFSET ??_C@_0FB@CKEGNPDJ@c?3?2users?2nhv90?2projects?2eech?2ap@
  00165	a1 00 00 00 00	 mov	 eax, DWORD PTR ?null_entity_pointer_message@@3PBDB ; null_entity_pointer_message
  0016a	50		 push	 eax
  0016b	e8 00 00 00 00	 call	 ?process_assert@@YGXPBD0H@Z ; process_assert
  00170	c7 45 bc 00 00
	00 00		 mov	 DWORD PTR tv147[ebp], 0
$LN16@toggle_bla:
  00177	b9 01 00 00 00	 mov	 ecx, 1
  0017c	85 c9		 test	 ecx, ecx
  0017e	74 09		 je	 SHORT $LN17@toggle_bla
  00180	c7 45 b8 68 00
	00 00		 mov	 DWORD PTR tv155[ebp], 104 ; 00000068H
  00187	eb 21		 jmp	 SHORT $LN18@toggle_bla
$LN17@toggle_bla:
  00189	8b 15 00 00 00
	00		 mov	 edx, DWORD PTR ?__LINE__Var@?0??toggle_blackhawk_infra_red_jammer_manual@@YGXXZ@4JA
  0018f	83 c2 0b	 add	 edx, 11			; 0000000bH
  00192	52		 push	 edx
  00193	68 00 00 00 00	 push	 OFFSET ??_C@_0FB@CKEGNPDJ@c?3?2users?2nhv90?2projects?2eech?2ap@
  00198	a1 00 00 00 00	 mov	 eax, DWORD PTR ?overload_invalid_int_type_message@@3PBDB ; overload_invalid_int_type_message
  0019d	50		 push	 eax
  0019e	e8 00 00 00 00	 call	 ?process_assert@@YGXPBD0H@Z ; process_assert
  001a3	c7 45 b8 00 00
	00 00		 mov	 DWORD PTR tv155[ebp], 0
$LN18@toggle_bla:
  001aa	6a 01		 push	 1
  001ac	6a 68		 push	 104			; 00000068H
  001ae	8b 0d 00 00 00
	00		 mov	 ecx, DWORD PTR ?gunship_entity@@3PAUENTITY@@A ; gunship_entity
  001b4	51		 push	 ecx
  001b5	69 55 bc b8 08
	00 00		 imul	 edx, DWORD PTR tv147[ebp], 2232
  001bc	8b 45 b8	 mov	 eax, DWORD PTR tv155[ebp]
  001bf	8d 8c c2 00 00
	00 00		 lea	 ecx, DWORD PTR ?fn_set_client_server_entity_int_value@@3PAY1BBH@1P6GXPAUENTITY@@W4INT_TYPES@@H@ZA[edx+eax*8]
  001c6	8b 15 00 00 00
	00		 mov	 edx, DWORD PTR ?system_comms_model@@3W4COMMS_MODEL_TYPES@@A ; system_comms_model
  001cc	8b 04 91	 mov	 eax, DWORD PTR [ecx+edx*4]
  001cf	ff d0		 call	 eax
$LN2@toggle_bla:

; 600  : 			}
; 601  : 		}
; 602  : 	}
; 603  : 
; 604  : 	play_common_cpg_infra_red_jammer_speech (blackhawk_damage.infra_red_jammer);

  001d1	a1 00 00 00 00	 mov	 eax, DWORD PTR ?blackhawk_damage@@3TBLACKHAWK_DAMAGE_FLAGS@@A ; blackhawk_damage
  001d6	c1 e8 08	 shr	 eax, 8
  001d9	83 e0 01	 and	 eax, 1
  001dc	50		 push	 eax
  001dd	e8 00 00 00 00	 call	 ?play_common_cpg_infra_red_jammer_speech@@YGXH@Z ; play_common_cpg_infra_red_jammer_speech

; 605  : }

  001e2	5f		 pop	 edi
  001e3	5e		 pop	 esi
  001e4	5b		 pop	 ebx
  001e5	8b e5		 mov	 esp, ebp
  001e7	5d		 pop	 ebp
  001e8	c3		 ret	 0
?toggle_blackhawk_infra_red_jammer_manual@@YGXXZ ENDP	; toggle_blackhawk_infra_red_jammer_manual
_TEXT	ENDS
; Function compile flags: /Odtp /ZI
; File c:\users\nhv90\projects\eech\aphavoc\source\gunships\avionics\blackhawk\bh_wpn.c
;	COMDAT ?set_blackhawk_radar_jammer_auto@@YGXH@Z
_TEXT	SEGMENT
tv133 = -72						; size = 4
tv80 = -72						; size = 4
tv93 = -68						; size = 4
tv73 = -68						; size = 4
_state$ = 8						; size = 4
?set_blackhawk_radar_jammer_auto@@YGXH@Z PROC		; set_blackhawk_radar_jammer_auto, COMDAT

; 570  : {

  00000	55		 push	 ebp
  00001	8b ec		 mov	 ebp, esp
  00003	83 ec 48	 sub	 esp, 72			; 00000048H
  00006	53		 push	 ebx
  00007	56		 push	 esi
  00008	57		 push	 edi

; 571  : 	if (!blackhawk_damage.radar_jammer)

  00009	a1 00 00 00 00	 mov	 eax, DWORD PTR ?blackhawk_damage@@3TBLACKHAWK_DAMAGE_FLAGS@@A ; blackhawk_damage
  0000e	c1 e8 07	 shr	 eax, 7
  00011	83 e0 01	 and	 eax, 1
  00014	0f 85 2a 01 00
	00		 jne	 $LN1@set_blackh

; 572  : 	{
; 573  : 		if (get_global_auto_counter_measures ())

  0001a	83 3d 90 00 00
	00 00		 cmp	 DWORD PTR ?global_options@@3UGLOBAL_OPTIONS_DATA@@A+144, 0
  00021	0f 84 1d 01 00
	00		 je	 $LN1@set_blackh

; 574  : 		{
; 575  : 			if (state != get_local_entity_int_value (get_gunship_entity (), INT_TYPE_RADAR_JAMMER_ON))

  00027	83 3d 00 00 00
	00 00		 cmp	 DWORD PTR ?gunship_entity@@3PAUENTITY@@A, 0 ; gunship_entity
  0002e	74 0c		 je	 SHORT $LN6@set_blackh
  00030	a1 00 00 00 00	 mov	 eax, DWORD PTR ?gunship_entity@@3PAUENTITY@@A ; gunship_entity
  00035	8b 08		 mov	 ecx, DWORD PTR [eax]
  00037	89 4d bc	 mov	 DWORD PTR tv73[ebp], ecx
  0003a	eb 1d		 jmp	 SHORT $LN7@set_blackh
$LN6@set_blackh:
  0003c	68 3f 02 00 00	 push	 575			; 0000023fH
  00041	68 00 00 00 00	 push	 OFFSET ??_C@_0FB@CKEGNPDJ@c?3?2users?2nhv90?2projects?2eech?2ap@
  00046	8b 15 00 00 00
	00		 mov	 edx, DWORD PTR ?null_entity_pointer_message@@3PBDB ; null_entity_pointer_message
  0004c	52		 push	 edx
  0004d	e8 00 00 00 00	 call	 ?process_assert@@YGXPBD0H@Z ; process_assert
  00052	c7 45 bc 00 00
	00 00		 mov	 DWORD PTR tv73[ebp], 0
$LN7@set_blackh:
  00059	b8 01 00 00 00	 mov	 eax, 1
  0005e	85 c0		 test	 eax, eax
  00060	74 09		 je	 SHORT $LN8@set_blackh
  00062	c7 45 b8 a8 00
	00 00		 mov	 DWORD PTR tv80[ebp], 168 ; 000000a8H
  00069	eb 1d		 jmp	 SHORT $LN9@set_blackh
$LN8@set_blackh:
  0006b	68 3f 02 00 00	 push	 575			; 0000023fH
  00070	68 00 00 00 00	 push	 OFFSET ??_C@_0FB@CKEGNPDJ@c?3?2users?2nhv90?2projects?2eech?2ap@
  00075	8b 0d 00 00 00
	00		 mov	 ecx, DWORD PTR ?overload_invalid_int_type_message@@3PBDB ; overload_invalid_int_type_message
  0007b	51		 push	 ecx
  0007c	e8 00 00 00 00	 call	 ?process_assert@@YGXPBD0H@Z ; process_assert
  00081	c7 45 b8 00 00
	00 00		 mov	 DWORD PTR tv80[ebp], 0
$LN9@set_blackh:
  00088	68 a8 00 00 00	 push	 168			; 000000a8H
  0008d	8b 15 00 00 00
	00		 mov	 edx, DWORD PTR ?gunship_entity@@3PAUENTITY@@A ; gunship_entity
  00093	52		 push	 edx
  00094	69 45 bc 5c 04
	00 00		 imul	 eax, DWORD PTR tv73[ebp], 1116
  0009b	8b 4d b8	 mov	 ecx, DWORD PTR tv80[ebp]
  0009e	8b 94 88 00 00
	00 00		 mov	 edx, DWORD PTR ?fn_get_local_entity_int_value@@3PAY0BBH@P6GHPAUENTITY@@W4INT_TYPES@@@ZA[eax+ecx*4]
  000a5	ff d2		 call	 edx
  000a7	39 45 08	 cmp	 DWORD PTR _state$[ebp], eax
  000aa	0f 84 94 00 00
	00		 je	 $LN1@set_blackh

; 576  : 			{
; 577  : 				set_client_server_entity_int_value (get_gunship_entity (), INT_TYPE_RADAR_JAMMER_ON, state);

  000b0	83 3d 00 00 00
	00 00		 cmp	 DWORD PTR ?gunship_entity@@3PAUENTITY@@A, 0 ; gunship_entity
  000b7	74 0c		 je	 SHORT $LN10@set_blackh
  000b9	a1 00 00 00 00	 mov	 eax, DWORD PTR ?gunship_entity@@3PAUENTITY@@A ; gunship_entity
  000be	8b 08		 mov	 ecx, DWORD PTR [eax]
  000c0	89 4d bc	 mov	 DWORD PTR tv93[ebp], ecx
  000c3	eb 21		 jmp	 SHORT $LN11@set_blackh
$LN10@set_blackh:
  000c5	8b 15 00 00 00
	00		 mov	 edx, DWORD PTR ?__LINE__Var@?0??set_blackhawk_radar_jammer_auto@@YGXH@Z@4JA
  000cb	83 c2 07	 add	 edx, 7
  000ce	52		 push	 edx
  000cf	68 00 00 00 00	 push	 OFFSET ??_C@_0FB@CKEGNPDJ@c?3?2users?2nhv90?2projects?2eech?2ap@
  000d4	a1 00 00 00 00	 mov	 eax, DWORD PTR ?null_entity_pointer_message@@3PBDB ; null_entity_pointer_message
  000d9	50		 push	 eax
  000da	e8 00 00 00 00	 call	 ?process_assert@@YGXPBD0H@Z ; process_assert
  000df	c7 45 bc 00 00
	00 00		 mov	 DWORD PTR tv93[ebp], 0
$LN11@set_blackh:
  000e6	b9 01 00 00 00	 mov	 ecx, 1
  000eb	85 c9		 test	 ecx, ecx
  000ed	74 09		 je	 SHORT $LN12@set_blackh
  000ef	c7 45 b8 a8 00
	00 00		 mov	 DWORD PTR tv133[ebp], 168 ; 000000a8H
  000f6	eb 21		 jmp	 SHORT $LN13@set_blackh
$LN12@set_blackh:
  000f8	8b 15 00 00 00
	00		 mov	 edx, DWORD PTR ?__LINE__Var@?0??set_blackhawk_radar_jammer_auto@@YGXH@Z@4JA
  000fe	83 c2 07	 add	 edx, 7
  00101	52		 push	 edx
  00102	68 00 00 00 00	 push	 OFFSET ??_C@_0FB@CKEGNPDJ@c?3?2users?2nhv90?2projects?2eech?2ap@
  00107	a1 00 00 00 00	 mov	 eax, DWORD PTR ?overload_invalid_int_type_message@@3PBDB ; overload_invalid_int_type_message
  0010c	50		 push	 eax
  0010d	e8 00 00 00 00	 call	 ?process_assert@@YGXPBD0H@Z ; process_assert
  00112	c7 45 b8 00 00
	00 00		 mov	 DWORD PTR tv133[ebp], 0
$LN13@set_blackh:
  00119	8b 4d 08	 mov	 ecx, DWORD PTR _state$[ebp]
  0011c	51		 push	 ecx
  0011d	68 a8 00 00 00	 push	 168			; 000000a8H
  00122	8b 15 00 00 00
	00		 mov	 edx, DWORD PTR ?gunship_entity@@3PAUENTITY@@A ; gunship_entity
  00128	52		 push	 edx
  00129	69 45 bc b8 08
	00 00		 imul	 eax, DWORD PTR tv93[ebp], 2232
  00130	8b 4d b8	 mov	 ecx, DWORD PTR tv133[ebp]
  00133	8d 94 c8 00 00
	00 00		 lea	 edx, DWORD PTR ?fn_set_client_server_entity_int_value@@3PAY1BBH@1P6GXPAUENTITY@@W4INT_TYPES@@H@ZA[eax+ecx*8]
  0013a	a1 00 00 00 00	 mov	 eax, DWORD PTR ?system_comms_model@@3W4COMMS_MODEL_TYPES@@A ; system_comms_model
  0013f	8b 0c 82	 mov	 ecx, DWORD PTR [edx+eax*4]
  00142	ff d1		 call	 ecx
$LN1@set_blackh:

; 578  : 			}
; 579  : 		}
; 580  : 	}
; 581  : }

  00144	5f		 pop	 edi
  00145	5e		 pop	 esi
  00146	5b		 pop	 ebx
  00147	8b e5		 mov	 esp, ebp
  00149	5d		 pop	 ebp
  0014a	c2 04 00	 ret	 4
?set_blackhawk_radar_jammer_auto@@YGXH@Z ENDP		; set_blackhawk_radar_jammer_auto
_TEXT	ENDS
; Function compile flags: /Odtp /ZI
; File c:\users\nhv90\projects\eech\aphavoc\source\gunships\avionics\blackhawk\bh_wpn.c
;	COMDAT ?set_blackhawk_radar_jammer_manual@@YGXH@Z
_TEXT	SEGMENT
tv133 = -72						; size = 4
tv80 = -72						; size = 4
tv93 = -68						; size = 4
tv73 = -68						; size = 4
_state$ = 8						; size = 4
?set_blackhawk_radar_jammer_manual@@YGXH@Z PROC		; set_blackhawk_radar_jammer_manual, COMDAT

; 552  : {

  00000	55		 push	 ebp
  00001	8b ec		 mov	 ebp, esp
  00003	83 ec 48	 sub	 esp, 72			; 00000048H
  00006	53		 push	 ebx
  00007	56		 push	 esi
  00008	57		 push	 edi

; 553  : 	if (!blackhawk_damage.radar_jammer)

  00009	a1 00 00 00 00	 mov	 eax, DWORD PTR ?blackhawk_damage@@3TBLACKHAWK_DAMAGE_FLAGS@@A ; blackhawk_damage
  0000e	c1 e8 07	 shr	 eax, 7
  00011	83 e0 01	 and	 eax, 1
  00014	0f 85 2a 01 00
	00		 jne	 $LN1@set_blackh

; 554  : 	{
; 555  : 		if (!get_global_auto_counter_measures ())

  0001a	83 3d 90 00 00
	00 00		 cmp	 DWORD PTR ?global_options@@3UGLOBAL_OPTIONS_DATA@@A+144, 0
  00021	0f 85 1d 01 00
	00		 jne	 $LN1@set_blackh

; 556  : 		{
; 557  : 			if (state != get_local_entity_int_value (get_gunship_entity (), INT_TYPE_RADAR_JAMMER_ON))

  00027	83 3d 00 00 00
	00 00		 cmp	 DWORD PTR ?gunship_entity@@3PAUENTITY@@A, 0 ; gunship_entity
  0002e	74 0c		 je	 SHORT $LN6@set_blackh
  00030	a1 00 00 00 00	 mov	 eax, DWORD PTR ?gunship_entity@@3PAUENTITY@@A ; gunship_entity
  00035	8b 08		 mov	 ecx, DWORD PTR [eax]
  00037	89 4d bc	 mov	 DWORD PTR tv73[ebp], ecx
  0003a	eb 1d		 jmp	 SHORT $LN7@set_blackh
$LN6@set_blackh:
  0003c	68 2d 02 00 00	 push	 557			; 0000022dH
  00041	68 00 00 00 00	 push	 OFFSET ??_C@_0FB@CKEGNPDJ@c?3?2users?2nhv90?2projects?2eech?2ap@
  00046	8b 15 00 00 00
	00		 mov	 edx, DWORD PTR ?null_entity_pointer_message@@3PBDB ; null_entity_pointer_message
  0004c	52		 push	 edx
  0004d	e8 00 00 00 00	 call	 ?process_assert@@YGXPBD0H@Z ; process_assert
  00052	c7 45 bc 00 00
	00 00		 mov	 DWORD PTR tv73[ebp], 0
$LN7@set_blackh:
  00059	b8 01 00 00 00	 mov	 eax, 1
  0005e	85 c0		 test	 eax, eax
  00060	74 09		 je	 SHORT $LN8@set_blackh
  00062	c7 45 b8 a8 00
	00 00		 mov	 DWORD PTR tv80[ebp], 168 ; 000000a8H
  00069	eb 1d		 jmp	 SHORT $LN9@set_blackh
$LN8@set_blackh:
  0006b	68 2d 02 00 00	 push	 557			; 0000022dH
  00070	68 00 00 00 00	 push	 OFFSET ??_C@_0FB@CKEGNPDJ@c?3?2users?2nhv90?2projects?2eech?2ap@
  00075	8b 0d 00 00 00
	00		 mov	 ecx, DWORD PTR ?overload_invalid_int_type_message@@3PBDB ; overload_invalid_int_type_message
  0007b	51		 push	 ecx
  0007c	e8 00 00 00 00	 call	 ?process_assert@@YGXPBD0H@Z ; process_assert
  00081	c7 45 b8 00 00
	00 00		 mov	 DWORD PTR tv80[ebp], 0
$LN9@set_blackh:
  00088	68 a8 00 00 00	 push	 168			; 000000a8H
  0008d	8b 15 00 00 00
	00		 mov	 edx, DWORD PTR ?gunship_entity@@3PAUENTITY@@A ; gunship_entity
  00093	52		 push	 edx
  00094	69 45 bc 5c 04
	00 00		 imul	 eax, DWORD PTR tv73[ebp], 1116
  0009b	8b 4d b8	 mov	 ecx, DWORD PTR tv80[ebp]
  0009e	8b 94 88 00 00
	00 00		 mov	 edx, DWORD PTR ?fn_get_local_entity_int_value@@3PAY0BBH@P6GHPAUENTITY@@W4INT_TYPES@@@ZA[eax+ecx*4]
  000a5	ff d2		 call	 edx
  000a7	39 45 08	 cmp	 DWORD PTR _state$[ebp], eax
  000aa	0f 84 94 00 00
	00		 je	 $LN1@set_blackh

; 558  : 			{
; 559  : 				set_client_server_entity_int_value (get_gunship_entity (), INT_TYPE_RADAR_JAMMER_ON, state);

  000b0	83 3d 00 00 00
	00 00		 cmp	 DWORD PTR ?gunship_entity@@3PAUENTITY@@A, 0 ; gunship_entity
  000b7	74 0c		 je	 SHORT $LN10@set_blackh
  000b9	a1 00 00 00 00	 mov	 eax, DWORD PTR ?gunship_entity@@3PAUENTITY@@A ; gunship_entity
  000be	8b 08		 mov	 ecx, DWORD PTR [eax]
  000c0	89 4d bc	 mov	 DWORD PTR tv93[ebp], ecx
  000c3	eb 21		 jmp	 SHORT $LN11@set_blackh
$LN10@set_blackh:
  000c5	8b 15 00 00 00
	00		 mov	 edx, DWORD PTR ?__LINE__Var@?0??set_blackhawk_radar_jammer_manual@@YGXH@Z@4JA
  000cb	83 c2 07	 add	 edx, 7
  000ce	52		 push	 edx
  000cf	68 00 00 00 00	 push	 OFFSET ??_C@_0FB@CKEGNPDJ@c?3?2users?2nhv90?2projects?2eech?2ap@
  000d4	a1 00 00 00 00	 mov	 eax, DWORD PTR ?null_entity_pointer_message@@3PBDB ; null_entity_pointer_message
  000d9	50		 push	 eax
  000da	e8 00 00 00 00	 call	 ?process_assert@@YGXPBD0H@Z ; process_assert
  000df	c7 45 bc 00 00
	00 00		 mov	 DWORD PTR tv93[ebp], 0
$LN11@set_blackh:
  000e6	b9 01 00 00 00	 mov	 ecx, 1
  000eb	85 c9		 test	 ecx, ecx
  000ed	74 09		 je	 SHORT $LN12@set_blackh
  000ef	c7 45 b8 a8 00
	00 00		 mov	 DWORD PTR tv133[ebp], 168 ; 000000a8H
  000f6	eb 21		 jmp	 SHORT $LN13@set_blackh
$LN12@set_blackh:
  000f8	8b 15 00 00 00
	00		 mov	 edx, DWORD PTR ?__LINE__Var@?0??set_blackhawk_radar_jammer_manual@@YGXH@Z@4JA
  000fe	83 c2 07	 add	 edx, 7
  00101	52		 push	 edx
  00102	68 00 00 00 00	 push	 OFFSET ??_C@_0FB@CKEGNPDJ@c?3?2users?2nhv90?2projects?2eech?2ap@
  00107	a1 00 00 00 00	 mov	 eax, DWORD PTR ?overload_invalid_int_type_message@@3PBDB ; overload_invalid_int_type_message
  0010c	50		 push	 eax
  0010d	e8 00 00 00 00	 call	 ?process_assert@@YGXPBD0H@Z ; process_assert
  00112	c7 45 b8 00 00
	00 00		 mov	 DWORD PTR tv133[ebp], 0
$LN13@set_blackh:
  00119	8b 4d 08	 mov	 ecx, DWORD PTR _state$[ebp]
  0011c	51		 push	 ecx
  0011d	68 a8 00 00 00	 push	 168			; 000000a8H
  00122	8b 15 00 00 00
	00		 mov	 edx, DWORD PTR ?gunship_entity@@3PAUENTITY@@A ; gunship_entity
  00128	52		 push	 edx
  00129	69 45 bc b8 08
	00 00		 imul	 eax, DWORD PTR tv93[ebp], 2232
  00130	8b 4d b8	 mov	 ecx, DWORD PTR tv133[ebp]
  00133	8d 94 c8 00 00
	00 00		 lea	 edx, DWORD PTR ?fn_set_client_server_entity_int_value@@3PAY1BBH@1P6GXPAUENTITY@@W4INT_TYPES@@H@ZA[eax+ecx*8]
  0013a	a1 00 00 00 00	 mov	 eax, DWORD PTR ?system_comms_model@@3W4COMMS_MODEL_TYPES@@A ; system_comms_model
  0013f	8b 0c 82	 mov	 ecx, DWORD PTR [edx+eax*4]
  00142	ff d1		 call	 ecx
$LN1@set_blackh:

; 560  : 			}
; 561  : 		}
; 562  : 	}
; 563  : }

  00144	5f		 pop	 edi
  00145	5e		 pop	 esi
  00146	5b		 pop	 ebx
  00147	8b e5		 mov	 esp, ebp
  00149	5d		 pop	 ebp
  0014a	c2 04 00	 ret	 4
?set_blackhawk_radar_jammer_manual@@YGXH@Z ENDP		; set_blackhawk_radar_jammer_manual
_TEXT	ENDS
; Function compile flags: /Odtp /ZI
; File c:\users\nhv90\projects\eech\aphavoc\source\gunships\avionics\blackhawk\bh_wpn.c
;	COMDAT ?toggle_blackhawk_radar_jammer_manual@@YGXXZ
_TEXT	SEGMENT
tv155 = -72						; size = 4
tv133 = -72						; size = 4
tv80 = -72						; size = 4
tv147 = -68						; size = 4
tv93 = -68						; size = 4
tv73 = -68						; size = 4
?toggle_blackhawk_radar_jammer_manual@@YGXXZ PROC	; toggle_blackhawk_radar_jammer_manual, COMDAT

; 528  : {

  00000	55		 push	 ebp
  00001	8b ec		 mov	 ebp, esp
  00003	83 ec 48	 sub	 esp, 72			; 00000048H
  00006	53		 push	 ebx
  00007	56		 push	 esi
  00008	57		 push	 edi

; 529  : 	if (!blackhawk_damage.radar_jammer)

  00009	a1 00 00 00 00	 mov	 eax, DWORD PTR ?blackhawk_damage@@3TBLACKHAWK_DAMAGE_FLAGS@@A ; blackhawk_damage
  0000e	c1 e8 07	 shr	 eax, 7
  00011	83 e0 01	 and	 eax, 1
  00014	0f 85 c0 01 00
	00		 jne	 $LN2@toggle_bla

; 530  : 	{
; 531  : 		if (!get_global_auto_counter_measures ())

  0001a	83 3d 90 00 00
	00 00		 cmp	 DWORD PTR ?global_options@@3UGLOBAL_OPTIONS_DATA@@A+144, 0
  00021	0f 85 b3 01 00
	00		 jne	 $LN2@toggle_bla

; 532  : 		{
; 533  : 			if (get_local_entity_int_value (get_gunship_entity (), INT_TYPE_RADAR_JAMMER_ON))

  00027	83 3d 00 00 00
	00 00		 cmp	 DWORD PTR ?gunship_entity@@3PAUENTITY@@A, 0 ; gunship_entity
  0002e	74 0c		 je	 SHORT $LN7@toggle_bla
  00030	a1 00 00 00 00	 mov	 eax, DWORD PTR ?gunship_entity@@3PAUENTITY@@A ; gunship_entity
  00035	8b 08		 mov	 ecx, DWORD PTR [eax]
  00037	89 4d bc	 mov	 DWORD PTR tv73[ebp], ecx
  0003a	eb 1d		 jmp	 SHORT $LN8@toggle_bla
$LN7@toggle_bla:
  0003c	68 15 02 00 00	 push	 533			; 00000215H
  00041	68 00 00 00 00	 push	 OFFSET ??_C@_0FB@CKEGNPDJ@c?3?2users?2nhv90?2projects?2eech?2ap@
  00046	8b 15 00 00 00
	00		 mov	 edx, DWORD PTR ?null_entity_pointer_message@@3PBDB ; null_entity_pointer_message
  0004c	52		 push	 edx
  0004d	e8 00 00 00 00	 call	 ?process_assert@@YGXPBD0H@Z ; process_assert
  00052	c7 45 bc 00 00
	00 00		 mov	 DWORD PTR tv73[ebp], 0
$LN8@toggle_bla:
  00059	b8 01 00 00 00	 mov	 eax, 1
  0005e	85 c0		 test	 eax, eax
  00060	74 09		 je	 SHORT $LN9@toggle_bla
  00062	c7 45 b8 a8 00
	00 00		 mov	 DWORD PTR tv80[ebp], 168 ; 000000a8H
  00069	eb 1d		 jmp	 SHORT $LN10@toggle_bla
$LN9@toggle_bla:
  0006b	68 15 02 00 00	 push	 533			; 00000215H
  00070	68 00 00 00 00	 push	 OFFSET ??_C@_0FB@CKEGNPDJ@c?3?2users?2nhv90?2projects?2eech?2ap@
  00075	8b 0d 00 00 00
	00		 mov	 ecx, DWORD PTR ?overload_invalid_int_type_message@@3PBDB ; overload_invalid_int_type_message
  0007b	51		 push	 ecx
  0007c	e8 00 00 00 00	 call	 ?process_assert@@YGXPBD0H@Z ; process_assert
  00081	c7 45 b8 00 00
	00 00		 mov	 DWORD PTR tv80[ebp], 0
$LN10@toggle_bla:
  00088	68 a8 00 00 00	 push	 168			; 000000a8H
  0008d	8b 15 00 00 00
	00		 mov	 edx, DWORD PTR ?gunship_entity@@3PAUENTITY@@A ; gunship_entity
  00093	52		 push	 edx
  00094	69 45 bc 5c 04
	00 00		 imul	 eax, DWORD PTR tv73[ebp], 1116
  0009b	8b 4d b8	 mov	 ecx, DWORD PTR tv80[ebp]
  0009e	8b 94 88 00 00
	00 00		 mov	 edx, DWORD PTR ?fn_get_local_entity_int_value@@3PAY0BBH@P6GHPAUENTITY@@W4INT_TYPES@@@ZA[eax+ecx*4]
  000a5	ff d2		 call	 edx
  000a7	85 c0		 test	 eax, eax
  000a9	0f 84 98 00 00
	00		 je	 $LN4@toggle_bla

; 534  : 			{
; 535  : 				set_client_server_entity_int_value (get_gunship_entity (), INT_TYPE_RADAR_JAMMER_ON, FALSE);

  000af	83 3d 00 00 00
	00 00		 cmp	 DWORD PTR ?gunship_entity@@3PAUENTITY@@A, 0 ; gunship_entity
  000b6	74 0c		 je	 SHORT $LN11@toggle_bla
  000b8	a1 00 00 00 00	 mov	 eax, DWORD PTR ?gunship_entity@@3PAUENTITY@@A ; gunship_entity
  000bd	8b 08		 mov	 ecx, DWORD PTR [eax]
  000bf	89 4d bc	 mov	 DWORD PTR tv93[ebp], ecx
  000c2	eb 21		 jmp	 SHORT $LN12@toggle_bla
$LN11@toggle_bla:
  000c4	8b 15 00 00 00
	00		 mov	 edx, DWORD PTR ?__LINE__Var@?0??toggle_blackhawk_radar_jammer_manual@@YGXXZ@4JA
  000ca	83 c2 07	 add	 edx, 7
  000cd	52		 push	 edx
  000ce	68 00 00 00 00	 push	 OFFSET ??_C@_0FB@CKEGNPDJ@c?3?2users?2nhv90?2projects?2eech?2ap@
  000d3	a1 00 00 00 00	 mov	 eax, DWORD PTR ?null_entity_pointer_message@@3PBDB ; null_entity_pointer_message
  000d8	50		 push	 eax
  000d9	e8 00 00 00 00	 call	 ?process_assert@@YGXPBD0H@Z ; process_assert
  000de	c7 45 bc 00 00
	00 00		 mov	 DWORD PTR tv93[ebp], 0
$LN12@toggle_bla:
  000e5	b9 01 00 00 00	 mov	 ecx, 1
  000ea	85 c9		 test	 ecx, ecx
  000ec	74 09		 je	 SHORT $LN13@toggle_bla
  000ee	c7 45 b8 a8 00
	00 00		 mov	 DWORD PTR tv133[ebp], 168 ; 000000a8H
  000f5	eb 21		 jmp	 SHORT $LN14@toggle_bla
$LN13@toggle_bla:
  000f7	8b 15 00 00 00
	00		 mov	 edx, DWORD PTR ?__LINE__Var@?0??toggle_blackhawk_radar_jammer_manual@@YGXXZ@4JA
  000fd	83 c2 07	 add	 edx, 7
  00100	52		 push	 edx
  00101	68 00 00 00 00	 push	 OFFSET ??_C@_0FB@CKEGNPDJ@c?3?2users?2nhv90?2projects?2eech?2ap@
  00106	a1 00 00 00 00	 mov	 eax, DWORD PTR ?overload_invalid_int_type_message@@3PBDB ; overload_invalid_int_type_message
  0010b	50		 push	 eax
  0010c	e8 00 00 00 00	 call	 ?process_assert@@YGXPBD0H@Z ; process_assert
  00111	c7 45 b8 00 00
	00 00		 mov	 DWORD PTR tv133[ebp], 0
$LN14@toggle_bla:
  00118	6a 00		 push	 0
  0011a	68 a8 00 00 00	 push	 168			; 000000a8H
  0011f	8b 0d 00 00 00
	00		 mov	 ecx, DWORD PTR ?gunship_entity@@3PAUENTITY@@A ; gunship_entity
  00125	51		 push	 ecx
  00126	69 55 bc b8 08
	00 00		 imul	 edx, DWORD PTR tv93[ebp], 2232
  0012d	8b 45 b8	 mov	 eax, DWORD PTR tv133[ebp]
  00130	8d 8c c2 00 00
	00 00		 lea	 ecx, DWORD PTR ?fn_set_client_server_entity_int_value@@3PAY1BBH@1P6GXPAUENTITY@@W4INT_TYPES@@H@ZA[edx+eax*8]
  00137	8b 15 00 00 00
	00		 mov	 edx, DWORD PTR ?system_comms_model@@3W4COMMS_MODEL_TYPES@@A ; system_comms_model
  0013d	8b 04 91	 mov	 eax, DWORD PTR [ecx+edx*4]
  00140	ff d0		 call	 eax

; 536  : 			}
; 537  : 			else

  00142	e9 93 00 00 00	 jmp	 $LN2@toggle_bla
$LN4@toggle_bla:

; 538  : 			{
; 539  : 				set_client_server_entity_int_value (get_gunship_entity (), INT_TYPE_RADAR_JAMMER_ON, TRUE);

  00147	83 3d 00 00 00
	00 00		 cmp	 DWORD PTR ?gunship_entity@@3PAUENTITY@@A, 0 ; gunship_entity
  0014e	74 0c		 je	 SHORT $LN15@toggle_bla
  00150	a1 00 00 00 00	 mov	 eax, DWORD PTR ?gunship_entity@@3PAUENTITY@@A ; gunship_entity
  00155	8b 08		 mov	 ecx, DWORD PTR [eax]
  00157	89 4d bc	 mov	 DWORD PTR tv147[ebp], ecx
  0015a	eb 21		 jmp	 SHORT $LN16@toggle_bla
$LN15@toggle_bla:
  0015c	8b 15 00 00 00
	00		 mov	 edx, DWORD PTR ?__LINE__Var@?0??toggle_blackhawk_radar_jammer_manual@@YGXXZ@4JA
  00162	83 c2 0b	 add	 edx, 11			; 0000000bH
  00165	52		 push	 edx
  00166	68 00 00 00 00	 push	 OFFSET ??_C@_0FB@CKEGNPDJ@c?3?2users?2nhv90?2projects?2eech?2ap@
  0016b	a1 00 00 00 00	 mov	 eax, DWORD PTR ?null_entity_pointer_message@@3PBDB ; null_entity_pointer_message
  00170	50		 push	 eax
  00171	e8 00 00 00 00	 call	 ?process_assert@@YGXPBD0H@Z ; process_assert
  00176	c7 45 bc 00 00
	00 00		 mov	 DWORD PTR tv147[ebp], 0
$LN16@toggle_bla:
  0017d	b9 01 00 00 00	 mov	 ecx, 1
  00182	85 c9		 test	 ecx, ecx
  00184	74 09		 je	 SHORT $LN17@toggle_bla
  00186	c7 45 b8 a8 00
	00 00		 mov	 DWORD PTR tv155[ebp], 168 ; 000000a8H
  0018d	eb 21		 jmp	 SHORT $LN18@toggle_bla
$LN17@toggle_bla:
  0018f	8b 15 00 00 00
	00		 mov	 edx, DWORD PTR ?__LINE__Var@?0??toggle_blackhawk_radar_jammer_manual@@YGXXZ@4JA
  00195	83 c2 0b	 add	 edx, 11			; 0000000bH
  00198	52		 push	 edx
  00199	68 00 00 00 00	 push	 OFFSET ??_C@_0FB@CKEGNPDJ@c?3?2users?2nhv90?2projects?2eech?2ap@
  0019e	a1 00 00 00 00	 mov	 eax, DWORD PTR ?overload_invalid_int_type_message@@3PBDB ; overload_invalid_int_type_message
  001a3	50		 push	 eax
  001a4	e8 00 00 00 00	 call	 ?process_assert@@YGXPBD0H@Z ; process_assert
  001a9	c7 45 b8 00 00
	00 00		 mov	 DWORD PTR tv155[ebp], 0
$LN18@toggle_bla:
  001b0	6a 01		 push	 1
  001b2	68 a8 00 00 00	 push	 168			; 000000a8H
  001b7	8b 0d 00 00 00
	00		 mov	 ecx, DWORD PTR ?gunship_entity@@3PAUENTITY@@A ; gunship_entity
  001bd	51		 push	 ecx
  001be	69 55 bc b8 08
	00 00		 imul	 edx, DWORD PTR tv147[ebp], 2232
  001c5	8b 45 b8	 mov	 eax, DWORD PTR tv155[ebp]
  001c8	8d 8c c2 00 00
	00 00		 lea	 ecx, DWORD PTR ?fn_set_client_server_entity_int_value@@3PAY1BBH@1P6GXPAUENTITY@@W4INT_TYPES@@H@ZA[edx+eax*8]
  001cf	8b 15 00 00 00
	00		 mov	 edx, DWORD PTR ?system_comms_model@@3W4COMMS_MODEL_TYPES@@A ; system_comms_model
  001d5	8b 04 91	 mov	 eax, DWORD PTR [ecx+edx*4]
  001d8	ff d0		 call	 eax
$LN2@toggle_bla:

; 540  : 			}
; 541  : 		}
; 542  : 	}
; 543  : 
; 544  : 	play_common_cpg_radar_jammer_speech (blackhawk_damage.radar_jammer);

  001da	a1 00 00 00 00	 mov	 eax, DWORD PTR ?blackhawk_damage@@3TBLACKHAWK_DAMAGE_FLAGS@@A ; blackhawk_damage
  001df	c1 e8 07	 shr	 eax, 7
  001e2	83 e0 01	 and	 eax, 1
  001e5	50		 push	 eax
  001e6	e8 00 00 00 00	 call	 ?play_common_cpg_radar_jammer_speech@@YGXH@Z ; play_common_cpg_radar_jammer_speech

; 545  : }

  001eb	5f		 pop	 edi
  001ec	5e		 pop	 esi
  001ed	5b		 pop	 ebx
  001ee	8b e5		 mov	 esp, ebp
  001f0	5d		 pop	 ebp
  001f1	c3		 ret	 0
?toggle_blackhawk_radar_jammer_manual@@YGXXZ ENDP	; toggle_blackhawk_radar_jammer_manual
_TEXT	ENDS
; Function compile flags: /Odtp /ZI
; File c:\users\nhv90\projects\eech\aphavoc\source\gunships\avionics\blackhawk\bh_wpn.c
;	COMDAT ?get_blackhawk_missile_flight_time@@YGMXZ
_TEXT	SEGMENT
tv240 = -108						; size = 4
tv217 = -108						; size = 4
tv194 = -108						; size = 4
tv174 = -108						; size = 4
tv153 = -108						; size = 4
tv131 = -108						; size = 4
tv78 = -108						; size = 4
tv232 = -104						; size = 4
tv209 = -104						; size = 4
tv186 = -104						; size = 4
tv166 = -104						; size = 4
tv145 = -104						; size = 4
tv91 = -104						; size = 4
tv70 = -104						; size = 4
_target_range$ = -36					; size = 4
_weapon_velocity$ = -32					; size = 4
_flight_time$ = -28					; size = 4
_target_position$ = -24					; size = 4
_weapon_position$ = -20					; size = 4
_target$ = -16						; size = 4
_weapon$ = -12						; size = 4
_en$ = -8						; size = 4
_weapon_sub_type$ = -4					; size = 4
?get_blackhawk_missile_flight_time@@YGMXZ PROC		; get_blackhawk_missile_flight_time, COMDAT

; 462  : {

  00000	55		 push	 ebp
  00001	8b ec		 mov	 ebp, esp
  00003	83 ec 6c	 sub	 esp, 108		; 0000006cH
  00006	53		 push	 ebx
  00007	56		 push	 esi
  00008	57		 push	 edi

; 463  : 	entity_sub_types
; 464  : 		weapon_sub_type;
; 465  : 
; 466  : 	entity
; 467  : 		*en,
; 468  : 		*weapon,
; 469  : 		*target;
; 470  : 
; 471  : 	vec3d
; 472  : 		*weapon_position,
; 473  : 		*target_position;
; 474  : 
; 475  : 	float
; 476  : 		flight_time,
; 477  : 		weapon_velocity,
; 478  : 		target_range;
; 479  : 
; 480  : 	flight_time = 0.0;

  00009	0f 57 c0	 xorps	 xmm0, xmm0
  0000c	f3 0f 11 45 e4	 movss	 DWORD PTR _flight_time$[ebp], xmm0

; 481  : 
; 482  : 	en = get_gunship_entity ();

  00011	a1 00 00 00 00	 mov	 eax, DWORD PTR ?gunship_entity@@3PAUENTITY@@A ; gunship_entity
  00016	89 45 f8	 mov	 DWORD PTR _en$[ebp], eax

; 483  : 
; 484  : 	//
; 485  : 	// find most recently launched Hellfire with a target (first found on list)
; 486  : 	//
; 487  : 
; 488  : 	weapon = get_local_entity_first_child (en, LIST_TYPE_LAUNCHED_WEAPON);

  00019	83 7d f8 00	 cmp	 DWORD PTR _en$[ebp], 0
  0001d	74 0a		 je	 SHORT $LN9@get_blackh
  0001f	8b 45 f8	 mov	 eax, DWORD PTR _en$[ebp]
  00022	8b 08		 mov	 ecx, DWORD PTR [eax]
  00024	89 4d 98	 mov	 DWORD PTR tv70[ebp], ecx
  00027	eb 21		 jmp	 SHORT $LN10@get_blackh
$LN9@get_blackh:
  00029	8b 15 00 00 00
	00		 mov	 edx, DWORD PTR ?__LINE__Var@?0??get_blackhawk_missile_flight_time@@YGMXZ@4JA
  0002f	83 c2 1a	 add	 edx, 26			; 0000001aH
  00032	52		 push	 edx
  00033	68 00 00 00 00	 push	 OFFSET ??_C@_0FB@CKEGNPDJ@c?3?2users?2nhv90?2projects?2eech?2ap@
  00038	a1 00 00 00 00	 mov	 eax, DWORD PTR ?null_entity_pointer_message@@3PBDB ; null_entity_pointer_message
  0003d	50		 push	 eax
  0003e	e8 00 00 00 00	 call	 ?process_assert@@YGXPBD0H@Z ; process_assert
  00043	c7 45 98 00 00
	00 00		 mov	 DWORD PTR tv70[ebp], 0
$LN10@get_blackh:
  0004a	b9 01 00 00 00	 mov	 ecx, 1
  0004f	85 c9		 test	 ecx, ecx
  00051	74 09		 je	 SHORT $LN11@get_blackh
  00053	c7 45 94 18 00
	00 00		 mov	 DWORD PTR tv78[ebp], 24	; 00000018H
  0005a	eb 21		 jmp	 SHORT $LN12@get_blackh
$LN11@get_blackh:
  0005c	8b 15 00 00 00
	00		 mov	 edx, DWORD PTR ?__LINE__Var@?0??get_blackhawk_missile_flight_time@@YGMXZ@4JA
  00062	83 c2 1a	 add	 edx, 26			; 0000001aH
  00065	52		 push	 edx
  00066	68 00 00 00 00	 push	 OFFSET ??_C@_0FB@CKEGNPDJ@c?3?2users?2nhv90?2projects?2eech?2ap@
  0006b	a1 00 00 00 00	 mov	 eax, DWORD PTR ?overload_invalid_list_type_message@@3PBDB ; overload_invalid_list_type_message
  00070	50		 push	 eax
  00071	e8 00 00 00 00	 call	 ?process_assert@@YGXPBD0H@Z ; process_assert
  00076	c7 45 94 00 00
	00 00		 mov	 DWORD PTR tv78[ebp], 0
$LN12@get_blackh:
  0007d	6a 18		 push	 24			; 00000018H
  0007f	8b 4d f8	 mov	 ecx, DWORD PTR _en$[ebp]
  00082	51		 push	 ecx
  00083	69 55 98 b4 00
	00 00		 imul	 edx, DWORD PTR tv70[ebp], 180
  0008a	8b 45 94	 mov	 eax, DWORD PTR tv78[ebp]
  0008d	8b 8c 82 00 00
	00 00		 mov	 ecx, DWORD PTR ?fn_get_local_entity_first_child@@3PAY0CN@P6GPAUENTITY@@PAU1@W4LIST_TYPES@@@ZA[edx+eax*4]
  00094	ff d1		 call	 ecx
  00096	89 45 f4	 mov	 DWORD PTR _weapon$[ebp], eax
$LN2@get_blackh:

; 489  : 
; 490  : 	while (weapon)

  00099	83 7d f4 00	 cmp	 DWORD PTR _weapon$[ebp], 0
  0009d	0f 84 4f 03 00
	00		 je	 $LN3@get_blackh

; 491  : 	{
; 492  : 		weapon_sub_type = get_local_entity_int_value (weapon, INT_TYPE_ENTITY_SUB_TYPE);

  000a3	83 7d f4 00	 cmp	 DWORD PTR _weapon$[ebp], 0
  000a7	74 0a		 je	 SHORT $LN13@get_blackh
  000a9	8b 45 f4	 mov	 eax, DWORD PTR _weapon$[ebp]
  000ac	8b 08		 mov	 ecx, DWORD PTR [eax]
  000ae	89 4d 98	 mov	 DWORD PTR tv91[ebp], ecx
  000b1	eb 21		 jmp	 SHORT $LN14@get_blackh
$LN13@get_blackh:
  000b3	8b 15 00 00 00
	00		 mov	 edx, DWORD PTR ?__LINE__Var@?0??get_blackhawk_missile_flight_time@@YGMXZ@4JA
  000b9	83 c2 1e	 add	 edx, 30			; 0000001eH
  000bc	52		 push	 edx
  000bd	68 00 00 00 00	 push	 OFFSET ??_C@_0FB@CKEGNPDJ@c?3?2users?2nhv90?2projects?2eech?2ap@
  000c2	a1 00 00 00 00	 mov	 eax, DWORD PTR ?null_entity_pointer_message@@3PBDB ; null_entity_pointer_message
  000c7	50		 push	 eax
  000c8	e8 00 00 00 00	 call	 ?process_assert@@YGXPBD0H@Z ; process_assert
  000cd	c7 45 98 00 00
	00 00		 mov	 DWORD PTR tv91[ebp], 0
$LN14@get_blackh:
  000d4	b9 01 00 00 00	 mov	 ecx, 1
  000d9	85 c9		 test	 ecx, ecx
  000db	74 09		 je	 SHORT $LN15@get_blackh
  000dd	c7 45 94 34 00
	00 00		 mov	 DWORD PTR tv131[ebp], 52 ; 00000034H
  000e4	eb 21		 jmp	 SHORT $LN16@get_blackh
$LN15@get_blackh:
  000e6	8b 15 00 00 00
	00		 mov	 edx, DWORD PTR ?__LINE__Var@?0??get_blackhawk_missile_flight_time@@YGMXZ@4JA
  000ec	83 c2 1e	 add	 edx, 30			; 0000001eH
  000ef	52		 push	 edx
  000f0	68 00 00 00 00	 push	 OFFSET ??_C@_0FB@CKEGNPDJ@c?3?2users?2nhv90?2projects?2eech?2ap@
  000f5	a1 00 00 00 00	 mov	 eax, DWORD PTR ?overload_invalid_int_type_message@@3PBDB ; overload_invalid_int_type_message
  000fa	50		 push	 eax
  000fb	e8 00 00 00 00	 call	 ?process_assert@@YGXPBD0H@Z ; process_assert
  00100	c7 45 94 00 00
	00 00		 mov	 DWORD PTR tv131[ebp], 0
$LN16@get_blackh:
  00107	6a 34		 push	 52			; 00000034H
  00109	8b 4d f4	 mov	 ecx, DWORD PTR _weapon$[ebp]
  0010c	51		 push	 ecx
  0010d	69 55 98 5c 04
	00 00		 imul	 edx, DWORD PTR tv91[ebp], 1116
  00114	8b 45 94	 mov	 eax, DWORD PTR tv131[ebp]
  00117	8b 8c 82 00 00
	00 00		 mov	 ecx, DWORD PTR ?fn_get_local_entity_int_value@@3PAY0BBH@P6GHPAUENTITY@@W4INT_TYPES@@@ZA[edx+eax*4]
  0011e	ff d1		 call	 ecx
  00120	89 45 fc	 mov	 DWORD PTR _weapon_sub_type$[ebp], eax

; 493  : 
; 494  : 		if ((weapon_sub_type == ENTITY_SUB_TYPE_WEAPON_AGM114L_LONGBOW_HELLFIRE) || (weapon_sub_type == ENTITY_SUB_TYPE_WEAPON_AGM114K_HELLFIRE_II))

  00123	83 7d fc 2d	 cmp	 DWORD PTR _weapon_sub_type$[ebp], 45 ; 0000002dH
  00127	74 0a		 je	 SHORT $LN5@get_blackh
  00129	83 7d fc 2e	 cmp	 DWORD PTR _weapon_sub_type$[ebp], 46 ; 0000002eH
  0012d	0f 85 3a 02 00
	00		 jne	 $LN7@get_blackh
$LN5@get_blackh:

; 495  : 		{
; 496  : 			target = get_local_entity_parent (weapon, LIST_TYPE_TARGET);

  00133	83 7d f4 00	 cmp	 DWORD PTR _weapon$[ebp], 0
  00137	74 0a		 je	 SHORT $LN17@get_blackh
  00139	8b 45 f4	 mov	 eax, DWORD PTR _weapon$[ebp]
  0013c	8b 08		 mov	 ecx, DWORD PTR [eax]
  0013e	89 4d 98	 mov	 DWORD PTR tv145[ebp], ecx
  00141	eb 21		 jmp	 SHORT $LN18@get_blackh
$LN17@get_blackh:
  00143	8b 15 00 00 00
	00		 mov	 edx, DWORD PTR ?__LINE__Var@?0??get_blackhawk_missile_flight_time@@YGMXZ@4JA
  00149	83 c2 22	 add	 edx, 34			; 00000022H
  0014c	52		 push	 edx
  0014d	68 00 00 00 00	 push	 OFFSET ??_C@_0FB@CKEGNPDJ@c?3?2users?2nhv90?2projects?2eech?2ap@
  00152	a1 00 00 00 00	 mov	 eax, DWORD PTR ?null_entity_pointer_message@@3PBDB ; null_entity_pointer_message
  00157	50		 push	 eax
  00158	e8 00 00 00 00	 call	 ?process_assert@@YGXPBD0H@Z ; process_assert
  0015d	c7 45 98 00 00
	00 00		 mov	 DWORD PTR tv145[ebp], 0
$LN18@get_blackh:
  00164	b9 01 00 00 00	 mov	 ecx, 1
  00169	85 c9		 test	 ecx, ecx
  0016b	74 09		 je	 SHORT $LN19@get_blackh
  0016d	c7 45 94 26 00
	00 00		 mov	 DWORD PTR tv153[ebp], 38 ; 00000026H
  00174	eb 21		 jmp	 SHORT $LN20@get_blackh
$LN19@get_blackh:
  00176	8b 15 00 00 00
	00		 mov	 edx, DWORD PTR ?__LINE__Var@?0??get_blackhawk_missile_flight_time@@YGMXZ@4JA
  0017c	83 c2 22	 add	 edx, 34			; 00000022H
  0017f	52		 push	 edx
  00180	68 00 00 00 00	 push	 OFFSET ??_C@_0FB@CKEGNPDJ@c?3?2users?2nhv90?2projects?2eech?2ap@
  00185	a1 00 00 00 00	 mov	 eax, DWORD PTR ?overload_invalid_list_type_message@@3PBDB ; overload_invalid_list_type_message
  0018a	50		 push	 eax
  0018b	e8 00 00 00 00	 call	 ?process_assert@@YGXPBD0H@Z ; process_assert
  00190	c7 45 94 00 00
	00 00		 mov	 DWORD PTR tv153[ebp], 0
$LN20@get_blackh:
  00197	6a 26		 push	 38			; 00000026H
  00199	8b 4d f4	 mov	 ecx, DWORD PTR _weapon$[ebp]
  0019c	51		 push	 ecx
  0019d	69 55 98 b4 00
	00 00		 imul	 edx, DWORD PTR tv145[ebp], 180
  001a4	8b 45 94	 mov	 eax, DWORD PTR tv153[ebp]
  001a7	8b 8c 82 00 00
	00 00		 mov	 ecx, DWORD PTR ?fn_get_local_entity_parent@@3PAY0CN@P6GPAUENTITY@@PAU1@W4LIST_TYPES@@@ZA[edx+eax*4]
  001ae	ff d1		 call	 ecx
  001b0	89 45 f0	 mov	 DWORD PTR _target$[ebp], eax

; 497  : 
; 498  : 			if (target)

  001b3	83 7d f0 00	 cmp	 DWORD PTR _target$[ebp], 0
  001b7	0f 84 b0 01 00
	00		 je	 $LN7@get_blackh

; 499  : 			{
; 500  : 				weapon_position = get_local_entity_vec3d_ptr (weapon, VEC3D_TYPE_POSITION);

  001bd	83 7d f4 00	 cmp	 DWORD PTR _weapon$[ebp], 0
  001c1	74 0a		 je	 SHORT $LN21@get_blackh
  001c3	8b 45 f4	 mov	 eax, DWORD PTR _weapon$[ebp]
  001c6	8b 08		 mov	 ecx, DWORD PTR [eax]
  001c8	89 4d 98	 mov	 DWORD PTR tv166[ebp], ecx
  001cb	eb 21		 jmp	 SHORT $LN22@get_blackh
$LN21@get_blackh:
  001cd	8b 15 00 00 00
	00		 mov	 edx, DWORD PTR ?__LINE__Var@?0??get_blackhawk_missile_flight_time@@YGMXZ@4JA
  001d3	83 c2 26	 add	 edx, 38			; 00000026H
  001d6	52		 push	 edx
  001d7	68 00 00 00 00	 push	 OFFSET ??_C@_0FB@CKEGNPDJ@c?3?2users?2nhv90?2projects?2eech?2ap@
  001dc	a1 00 00 00 00	 mov	 eax, DWORD PTR ?null_entity_pointer_message@@3PBDB ; null_entity_pointer_message
  001e1	50		 push	 eax
  001e2	e8 00 00 00 00	 call	 ?process_assert@@YGXPBD0H@Z ; process_assert
  001e7	c7 45 98 00 00
	00 00		 mov	 DWORD PTR tv166[ebp], 0
$LN22@get_blackh:
  001ee	b9 01 00 00 00	 mov	 ecx, 1
  001f3	85 c9		 test	 ecx, ecx
  001f5	74 09		 je	 SHORT $LN23@get_blackh
  001f7	c7 45 94 08 00
	00 00		 mov	 DWORD PTR tv174[ebp], 8
  001fe	eb 21		 jmp	 SHORT $LN24@get_blackh
$LN23@get_blackh:
  00200	8b 15 00 00 00
	00		 mov	 edx, DWORD PTR ?__LINE__Var@?0??get_blackhawk_missile_flight_time@@YGMXZ@4JA
  00206	83 c2 26	 add	 edx, 38			; 00000026H
  00209	52		 push	 edx
  0020a	68 00 00 00 00	 push	 OFFSET ??_C@_0FB@CKEGNPDJ@c?3?2users?2nhv90?2projects?2eech?2ap@
  0020f	a1 00 00 00 00	 mov	 eax, DWORD PTR ?overload_invalid_vec3d_type_message@@3PBDB ; overload_invalid_vec3d_type_message
  00214	50		 push	 eax
  00215	e8 00 00 00 00	 call	 ?process_assert@@YGXPBD0H@Z ; process_assert
  0021a	c7 45 94 00 00
	00 00		 mov	 DWORD PTR tv174[ebp], 0
$LN24@get_blackh:
  00221	6a 08		 push	 8
  00223	8b 4d f4	 mov	 ecx, DWORD PTR _weapon$[ebp]
  00226	51		 push	 ecx
  00227	6b 55 98 60	 imul	 edx, DWORD PTR tv166[ebp], 96
  0022b	8b 45 94	 mov	 eax, DWORD PTR tv174[ebp]
  0022e	8b 8c 82 00 00
	00 00		 mov	 ecx, DWORD PTR ?fn_get_local_entity_vec3d_ptr@@3PAY0BI@P6GPAUVEC3D@@PAUENTITY@@W4VEC3D_TYPES@@@ZA[edx+eax*4]
  00235	ff d1		 call	 ecx
  00237	89 45 ec	 mov	 DWORD PTR _weapon_position$[ebp], eax

; 501  : 
; 502  : 				target_position = get_local_entity_vec3d_ptr (target, VEC3D_TYPE_POSITION);

  0023a	83 7d f0 00	 cmp	 DWORD PTR _target$[ebp], 0
  0023e	74 0a		 je	 SHORT $LN25@get_blackh
  00240	8b 45 f0	 mov	 eax, DWORD PTR _target$[ebp]
  00243	8b 08		 mov	 ecx, DWORD PTR [eax]
  00245	89 4d 98	 mov	 DWORD PTR tv186[ebp], ecx
  00248	eb 21		 jmp	 SHORT $LN26@get_blackh
$LN25@get_blackh:
  0024a	8b 15 00 00 00
	00		 mov	 edx, DWORD PTR ?__LINE__Var@?0??get_blackhawk_missile_flight_time@@YGMXZ@4JA
  00250	83 c2 28	 add	 edx, 40			; 00000028H
  00253	52		 push	 edx
  00254	68 00 00 00 00	 push	 OFFSET ??_C@_0FB@CKEGNPDJ@c?3?2users?2nhv90?2projects?2eech?2ap@
  00259	a1 00 00 00 00	 mov	 eax, DWORD PTR ?null_entity_pointer_message@@3PBDB ; null_entity_pointer_message
  0025e	50		 push	 eax
  0025f	e8 00 00 00 00	 call	 ?process_assert@@YGXPBD0H@Z ; process_assert
  00264	c7 45 98 00 00
	00 00		 mov	 DWORD PTR tv186[ebp], 0
$LN26@get_blackh:
  0026b	b9 01 00 00 00	 mov	 ecx, 1
  00270	85 c9		 test	 ecx, ecx
  00272	74 09		 je	 SHORT $LN27@get_blackh
  00274	c7 45 94 08 00
	00 00		 mov	 DWORD PTR tv194[ebp], 8
  0027b	eb 21		 jmp	 SHORT $LN28@get_blackh
$LN27@get_blackh:
  0027d	8b 15 00 00 00
	00		 mov	 edx, DWORD PTR ?__LINE__Var@?0??get_blackhawk_missile_flight_time@@YGMXZ@4JA
  00283	83 c2 28	 add	 edx, 40			; 00000028H
  00286	52		 push	 edx
  00287	68 00 00 00 00	 push	 OFFSET ??_C@_0FB@CKEGNPDJ@c?3?2users?2nhv90?2projects?2eech?2ap@
  0028c	a1 00 00 00 00	 mov	 eax, DWORD PTR ?overload_invalid_vec3d_type_message@@3PBDB ; overload_invalid_vec3d_type_message
  00291	50		 push	 eax
  00292	e8 00 00 00 00	 call	 ?process_assert@@YGXPBD0H@Z ; process_assert
  00297	c7 45 94 00 00
	00 00		 mov	 DWORD PTR tv194[ebp], 0
$LN28@get_blackh:
  0029e	6a 08		 push	 8
  002a0	8b 4d f0	 mov	 ecx, DWORD PTR _target$[ebp]
  002a3	51		 push	 ecx
  002a4	6b 55 98 60	 imul	 edx, DWORD PTR tv186[ebp], 96
  002a8	8b 45 94	 mov	 eax, DWORD PTR tv194[ebp]
  002ab	8b 8c 82 00 00
	00 00		 mov	 ecx, DWORD PTR ?fn_get_local_entity_vec3d_ptr@@3PAY0BI@P6GPAUVEC3D@@PAUENTITY@@W4VEC3D_TYPES@@@ZA[edx+eax*4]
  002b2	ff d1		 call	 ecx
  002b4	89 45 e8	 mov	 DWORD PTR _target_position$[ebp], eax

; 503  : 
; 504  : 				target_range = get_3d_range (weapon_position, target_position);

  002b7	8b 45 e8	 mov	 eax, DWORD PTR _target_position$[ebp]
  002ba	50		 push	 eax
  002bb	8b 4d ec	 mov	 ecx, DWORD PTR _weapon_position$[ebp]
  002be	51		 push	 ecx
  002bf	e8 00 00 00 00	 call	 ?get_3d_range@@YGMPBUVEC3D@@0@Z ; get_3d_range
  002c4	d9 5d dc	 fstp	 DWORD PTR _target_range$[ebp]

; 505  : 
; 506  : 				weapon_velocity = get_local_entity_float_value (weapon, FLOAT_TYPE_VELOCITY);

  002c7	83 7d f4 00	 cmp	 DWORD PTR _weapon$[ebp], 0
  002cb	74 0a		 je	 SHORT $LN29@get_blackh
  002cd	8b 45 f4	 mov	 eax, DWORD PTR _weapon$[ebp]
  002d0	8b 08		 mov	 ecx, DWORD PTR [eax]
  002d2	89 4d 98	 mov	 DWORD PTR tv209[ebp], ecx
  002d5	eb 21		 jmp	 SHORT $LN30@get_blackh
$LN29@get_blackh:
  002d7	8b 15 00 00 00
	00		 mov	 edx, DWORD PTR ?__LINE__Var@?0??get_blackhawk_missile_flight_time@@YGMXZ@4JA
  002dd	83 c2 2c	 add	 edx, 44			; 0000002cH
  002e0	52		 push	 edx
  002e1	68 00 00 00 00	 push	 OFFSET ??_C@_0FB@CKEGNPDJ@c?3?2users?2nhv90?2projects?2eech?2ap@
  002e6	a1 00 00 00 00	 mov	 eax, DWORD PTR ?null_entity_pointer_message@@3PBDB ; null_entity_pointer_message
  002eb	50		 push	 eax
  002ec	e8 00 00 00 00	 call	 ?process_assert@@YGXPBD0H@Z ; process_assert
  002f1	c7 45 98 00 00
	00 00		 mov	 DWORD PTR tv209[ebp], 0
$LN30@get_blackh:
  002f8	b9 01 00 00 00	 mov	 ecx, 1
  002fd	85 c9		 test	 ecx, ecx
  002ff	74 09		 je	 SHORT $LN31@get_blackh
  00301	c7 45 94 93 00
	00 00		 mov	 DWORD PTR tv217[ebp], 147 ; 00000093H
  00308	eb 21		 jmp	 SHORT $LN32@get_blackh
$LN31@get_blackh:
  0030a	8b 15 00 00 00
	00		 mov	 edx, DWORD PTR ?__LINE__Var@?0??get_blackhawk_missile_flight_time@@YGMXZ@4JA
  00310	83 c2 2c	 add	 edx, 44			; 0000002cH
  00313	52		 push	 edx
  00314	68 00 00 00 00	 push	 OFFSET ??_C@_0FB@CKEGNPDJ@c?3?2users?2nhv90?2projects?2eech?2ap@
  00319	a1 00 00 00 00	 mov	 eax, DWORD PTR ?overload_invalid_float_type_message@@3PBDB ; overload_invalid_float_type_message
  0031e	50		 push	 eax
  0031f	e8 00 00 00 00	 call	 ?process_assert@@YGXPBD0H@Z ; process_assert
  00324	c7 45 94 00 00
	00 00		 mov	 DWORD PTR tv217[ebp], 0
$LN32@get_blackh:
  0032b	68 93 00 00 00	 push	 147			; 00000093H
  00330	8b 4d f4	 mov	 ecx, DWORD PTR _weapon$[ebp]
  00333	51		 push	 ecx
  00334	69 55 98 bc 02
	00 00		 imul	 edx, DWORD PTR tv209[ebp], 700
  0033b	8b 45 94	 mov	 eax, DWORD PTR tv217[ebp]
  0033e	8b 8c 82 00 00
	00 00		 mov	 ecx, DWORD PTR ?fn_get_local_entity_float_value@@3PAY0KP@P6GMPAUENTITY@@W4FLOAT_TYPES@@@ZA[edx+eax*4]
  00345	ff d1		 call	 ecx
  00347	d9 5d e0	 fstp	 DWORD PTR _weapon_velocity$[ebp]

; 507  : 
; 508  : 				if (weapon_velocity > 0.0)

  0034a	f3 0f 5a 45 e0	 cvtss2sd xmm0, DWORD PTR _weapon_velocity$[ebp]
  0034f	66 0f 2f 05 00
	00 00 00	 comisd	 xmm0, QWORD PTR __real@0000000000000000
  00357	76 14		 jbe	 SHORT $LN7@get_blackh

; 509  : 				{
; 510  : 					flight_time = target_range / weapon_velocity;

  00359	f3 0f 10 45 dc	 movss	 xmm0, DWORD PTR _target_range$[ebp]
  0035e	f3 0f 5e 45 e0	 divss	 xmm0, DWORD PTR _weapon_velocity$[ebp]
  00363	f3 0f 11 45 e4	 movss	 DWORD PTR _flight_time$[ebp], xmm0

; 511  : 
; 512  : 					break;

  00368	e9 85 00 00 00	 jmp	 $LN3@get_blackh
$LN7@get_blackh:

; 513  : 				}
; 514  : 			}
; 515  : 		}
; 516  : 
; 517  : 		weapon = get_local_entity_child_succ (weapon, LIST_TYPE_LAUNCHED_WEAPON);

  0036d	83 7d f4 00	 cmp	 DWORD PTR _weapon$[ebp], 0
  00371	74 0a		 je	 SHORT $LN33@get_blackh
  00373	8b 45 f4	 mov	 eax, DWORD PTR _weapon$[ebp]
  00376	8b 08		 mov	 ecx, DWORD PTR [eax]
  00378	89 4d 98	 mov	 DWORD PTR tv232[ebp], ecx
  0037b	eb 21		 jmp	 SHORT $LN34@get_blackh
$LN33@get_blackh:
  0037d	8b 15 00 00 00
	00		 mov	 edx, DWORD PTR ?__LINE__Var@?0??get_blackhawk_missile_flight_time@@YGMXZ@4JA
  00383	83 c2 37	 add	 edx, 55			; 00000037H
  00386	52		 push	 edx
  00387	68 00 00 00 00	 push	 OFFSET ??_C@_0FB@CKEGNPDJ@c?3?2users?2nhv90?2projects?2eech?2ap@
  0038c	a1 00 00 00 00	 mov	 eax, DWORD PTR ?null_entity_pointer_message@@3PBDB ; null_entity_pointer_message
  00391	50		 push	 eax
  00392	e8 00 00 00 00	 call	 ?process_assert@@YGXPBD0H@Z ; process_assert
  00397	c7 45 98 00 00
	00 00		 mov	 DWORD PTR tv232[ebp], 0
$LN34@get_blackh:
  0039e	b9 01 00 00 00	 mov	 ecx, 1
  003a3	85 c9		 test	 ecx, ecx
  003a5	74 09		 je	 SHORT $LN35@get_blackh
  003a7	c7 45 94 18 00
	00 00		 mov	 DWORD PTR tv240[ebp], 24 ; 00000018H
  003ae	eb 21		 jmp	 SHORT $LN36@get_blackh
$LN35@get_blackh:
  003b0	8b 15 00 00 00
	00		 mov	 edx, DWORD PTR ?__LINE__Var@?0??get_blackhawk_missile_flight_time@@YGMXZ@4JA
  003b6	83 c2 37	 add	 edx, 55			; 00000037H
  003b9	52		 push	 edx
  003ba	68 00 00 00 00	 push	 OFFSET ??_C@_0FB@CKEGNPDJ@c?3?2users?2nhv90?2projects?2eech?2ap@
  003bf	a1 00 00 00 00	 mov	 eax, DWORD PTR ?overload_invalid_list_type_message@@3PBDB ; overload_invalid_list_type_message
  003c4	50		 push	 eax
  003c5	e8 00 00 00 00	 call	 ?process_assert@@YGXPBD0H@Z ; process_assert
  003ca	c7 45 94 00 00
	00 00		 mov	 DWORD PTR tv240[ebp], 0
$LN36@get_blackh:
  003d1	6a 18		 push	 24			; 00000018H
  003d3	8b 4d f4	 mov	 ecx, DWORD PTR _weapon$[ebp]
  003d6	51		 push	 ecx
  003d7	69 55 98 b4 00
	00 00		 imul	 edx, DWORD PTR tv232[ebp], 180
  003de	8b 45 94	 mov	 eax, DWORD PTR tv240[ebp]
  003e1	8b 8c 82 00 00
	00 00		 mov	 ecx, DWORD PTR ?fn_get_local_entity_child_succ@@3PAY0CN@P6GPAUENTITY@@PAU1@W4LIST_TYPES@@@ZA[edx+eax*4]
  003e8	ff d1		 call	 ecx
  003ea	89 45 f4	 mov	 DWORD PTR _weapon$[ebp], eax

; 518  : 	}

  003ed	e9 a7 fc ff ff	 jmp	 $LN2@get_blackh
$LN3@get_blackh:

; 519  : 
; 520  : 	return (flight_time);

  003f2	d9 45 e4	 fld	 DWORD PTR _flight_time$[ebp]

; 521  : }

  003f5	5f		 pop	 edi
  003f6	5e		 pop	 esi
  003f7	5b		 pop	 ebx
  003f8	8b e5		 mov	 esp, ebp
  003fa	5d		 pop	 ebp
  003fb	c3		 ret	 0
?get_blackhawk_missile_flight_time@@YGMXZ ENDP		; get_blackhawk_missile_flight_time
_TEXT	ENDS
; Function compile flags: /Odtp /ZI
; File c:\users\nhv90\projects\eech\aphavoc\source\gunships\avionics\blackhawk\bh_wpn.c
;	COMDAT ?update_blackhawk_weapon_systems@@YGXXZ
_TEXT	SEGMENT
tv312 = -96						; size = 8
tv304 = -96						; size = 8
tv296 = -96						; size = 8
tv288 = -96						; size = 8
tv232 = -96						; size = 4
tv178 = -96						; size = 4
tv78 = -96						; size = 4
tv224 = -92						; size = 4
tv171 = -92						; size = 4
tv157 = -92						; size = 4
tv70 = -92						; size = 4
$T1 = -88						; size = 4
$T2 = -84						; size = 4
_weapon_sub_type$ = -16					; size = 4
_target$ = -12						; size = 4
_en$ = -8						; size = 4
_inhibit_launch$ = -4					; size = 4
?update_blackhawk_weapon_systems@@YGXXZ PROC		; update_blackhawk_weapon_systems, COMDAT

; 178  : {

  00000	55		 push	 ebp
  00001	8b ec		 mov	 ebp, esp
  00003	83 ec 60	 sub	 esp, 96			; 00000060H
  00006	53		 push	 ebx
  00007	56		 push	 esi
  00008	57		 push	 edi

; 179  : 	int
; 180  : 		inhibit_launch;
; 181  : 
; 182  : 	entity
; 183  : 		*en,
; 184  : 		*target;
; 185  : 
; 186  : 	entity_sub_types
; 187  : 		weapon_sub_type;
; 188  : 
; 189  : 	en = get_gunship_entity ();

  00009	a1 00 00 00 00	 mov	 eax, DWORD PTR ?gunship_entity@@3PAUENTITY@@A ; gunship_entity
  0000e	89 45 f8	 mov	 DWORD PTR _en$[ebp], eax

; 190  : 
; 191  : 	weapon_sub_type = get_local_entity_int_value (en, INT_TYPE_SELECTED_WEAPON);

  00011	83 7d f8 00	 cmp	 DWORD PTR _en$[ebp], 0
  00015	74 0a		 je	 SHORT $LN36@update_bla
  00017	8b 45 f8	 mov	 eax, DWORD PTR _en$[ebp]
  0001a	8b 08		 mov	 ecx, DWORD PTR [eax]
  0001c	89 4d a4	 mov	 DWORD PTR tv70[ebp], ecx
  0001f	eb 21		 jmp	 SHORT $LN37@update_bla
$LN36@update_bla:
  00021	8b 15 00 00 00
	00		 mov	 edx, DWORD PTR ?__LINE__Var@?0??update_blackhawk_weapon_systems@@YGXXZ@4JA
  00027	83 c2 0d	 add	 edx, 13			; 0000000dH
  0002a	52		 push	 edx
  0002b	68 00 00 00 00	 push	 OFFSET ??_C@_0FB@CKEGNPDJ@c?3?2users?2nhv90?2projects?2eech?2ap@
  00030	a1 00 00 00 00	 mov	 eax, DWORD PTR ?null_entity_pointer_message@@3PBDB ; null_entity_pointer_message
  00035	50		 push	 eax
  00036	e8 00 00 00 00	 call	 ?process_assert@@YGXPBD0H@Z ; process_assert
  0003b	c7 45 a4 00 00
	00 00		 mov	 DWORD PTR tv70[ebp], 0
$LN37@update_bla:
  00042	b9 01 00 00 00	 mov	 ecx, 1
  00047	85 c9		 test	 ecx, ecx
  00049	74 09		 je	 SHORT $LN38@update_bla
  0004b	c7 45 a0 b8 00
	00 00		 mov	 DWORD PTR tv78[ebp], 184 ; 000000b8H
  00052	eb 21		 jmp	 SHORT $LN39@update_bla
$LN38@update_bla:
  00054	8b 15 00 00 00
	00		 mov	 edx, DWORD PTR ?__LINE__Var@?0??update_blackhawk_weapon_systems@@YGXXZ@4JA
  0005a	83 c2 0d	 add	 edx, 13			; 0000000dH
  0005d	52		 push	 edx
  0005e	68 00 00 00 00	 push	 OFFSET ??_C@_0FB@CKEGNPDJ@c?3?2users?2nhv90?2projects?2eech?2ap@
  00063	a1 00 00 00 00	 mov	 eax, DWORD PTR ?overload_invalid_int_type_message@@3PBDB ; overload_invalid_int_type_message
  00068	50		 push	 eax
  00069	e8 00 00 00 00	 call	 ?process_assert@@YGXPBD0H@Z ; process_assert
  0006e	c7 45 a0 00 00
	00 00		 mov	 DWORD PTR tv78[ebp], 0
$LN39@update_bla:
  00075	68 b8 00 00 00	 push	 184			; 000000b8H
  0007a	8b 4d f8	 mov	 ecx, DWORD PTR _en$[ebp]
  0007d	51		 push	 ecx
  0007e	69 55 a4 5c 04
	00 00		 imul	 edx, DWORD PTR tv70[ebp], 1116
  00085	8b 45 a0	 mov	 eax, DWORD PTR tv78[ebp]
  00088	8b 8c 82 00 00
	00 00		 mov	 ecx, DWORD PTR ?fn_get_local_entity_int_value@@3PAY0BBH@P6GHPAUENTITY@@W4INT_TYPES@@@ZA[edx+eax*4]
  0008f	ff d1		 call	 ecx
  00091	89 45 f0	 mov	 DWORD PTR _weapon_sub_type$[ebp], eax

; 192  : 
; 193  : 	////////////////////////////////////////
; 194  : 	//
; 195  : 	// Stinger lock tone
; 196  : 	//
; 197  : 	////////////////////////////////////////
; 198  : 
; 199  : 	if ((weapon_sub_type == ENTITY_SUB_TYPE_WEAPON_AIM92_STINGER) && (weapon_lock_type == WEAPON_LOCK_VALID))

  00094	83 7d f0 24	 cmp	 DWORD PTR _weapon_sub_type$[ebp], 36 ; 00000024H
  00098	75 1b		 jne	 SHORT $LN4@update_bla
  0009a	83 3d 00 00 00
	00 09		 cmp	 DWORD PTR ?weapon_lock_type@@3W4WEAPON_LOCK_TYPES@@A, 9 ; weapon_lock_type
  000a1	75 12		 jne	 SHORT $LN4@update_bla

; 200  : 	{
; 201  : 		resume_local_entity_sound_type (en, ENTITY_SUB_TYPE_EFFECT_SOUND_LOCK_ON_TONE);

  000a3	6a 18		 push	 24			; 00000018H
  000a5	8b 45 f8	 mov	 eax, DWORD PTR _en$[ebp]
  000a8	50		 push	 eax
  000a9	e8 00 00 00 00	 call	 ?resume_local_entity_sound_type@@YGHPAUENTITY@@H@Z ; resume_local_entity_sound_type

; 202  : 
; 203  : 		update_good_tone ();

  000ae	e8 00 00 00 00	 call	 ?update_good_tone@@YGXXZ ; update_good_tone

; 204  : 	}
; 205  : 	else

  000b3	eb 1e		 jmp	 SHORT $LN5@update_bla
$LN4@update_bla:

; 206  : 	{
; 207  : 		pause_local_entity_sound_type (en, ENTITY_SUB_TYPE_EFFECT_SOUND_LOCK_ON_TONE, 0.5);

  000b5	51		 push	 ecx
  000b6	f3 0f 10 05 00
	00 00 00	 movss	 xmm0, DWORD PTR __real@3f000000
  000be	f3 0f 11 04 24	 movss	 DWORD PTR [esp], xmm0
  000c3	6a 18		 push	 24			; 00000018H
  000c5	8b 45 f8	 mov	 eax, DWORD PTR _en$[ebp]
  000c8	50		 push	 eax
  000c9	e8 00 00 00 00	 call	 ?pause_local_entity_sound_type@@YGHPAUENTITY@@HM@Z ; pause_local_entity_sound_type

; 208  : 
; 209  : 		reset_good_tone ();

  000ce	e8 00 00 00 00	 call	 ?reset_good_tone@@YGXXZ	; reset_good_tone
$LN5@update_bla:

; 210  : 	}
; 211  : 
; 212  : 	////////////////////////////////////////
; 213  : 	//
; 214  : 	// Stinger seeker head position
; 215  : 	//
; 216  : 	////////////////////////////////////////
; 217  : 
; 218  : 	blackhawk_stinger_seeker_head_x_position = 0.25 * sin (seeker_head_theta1);

  000d3	51		 push	 ecx
  000d4	f3 0f 10 05 00
	00 00 00	 movss	 xmm0, DWORD PTR ?seeker_head_theta1@@3MA
  000dc	f3 0f 11 04 24	 movss	 DWORD PTR [esp], xmm0
  000e1	e8 00 00 00 00	 call	 ?sin@@YGMM@Z		; sin
  000e6	dd 5d a0	 fstp	 QWORD PTR tv288[ebp]
  000e9	f2 0f 10 45 a0	 movsd	 xmm0, QWORD PTR tv288[ebp]
  000ee	f2 0f 59 05 00
	00 00 00	 mulsd	 xmm0, QWORD PTR __real@3fd0000000000000
  000f6	f2 0f 5a c0	 cvtsd2ss xmm0, xmm0
  000fa	f3 0f 11 05 00
	00 00 00	 movss	 DWORD PTR ?blackhawk_stinger_seeker_head_x_position@@3MA, xmm0

; 219  : 	blackhawk_stinger_seeker_head_y_position = 0.25 * cos (seeker_head_theta1);

  00102	51		 push	 ecx
  00103	f3 0f 10 05 00
	00 00 00	 movss	 xmm0, DWORD PTR ?seeker_head_theta1@@3MA
  0010b	f3 0f 11 04 24	 movss	 DWORD PTR [esp], xmm0
  00110	e8 00 00 00 00	 call	 ?cos@@YGMM@Z		; cos
  00115	dd 5d a0	 fstp	 QWORD PTR tv296[ebp]
  00118	f2 0f 10 45 a0	 movsd	 xmm0, QWORD PTR tv296[ebp]
  0011d	f2 0f 59 05 00
	00 00 00	 mulsd	 xmm0, QWORD PTR __real@3fd0000000000000
  00125	f2 0f 5a c0	 cvtsd2ss xmm0, xmm0
  00129	f3 0f 11 05 00
	00 00 00	 movss	 DWORD PTR ?blackhawk_stinger_seeker_head_y_position@@3MA, xmm0

; 220  : 
; 221  : 	blackhawk_stinger_seeker_head_x_position += 0.125 * sin (seeker_head_theta2);

  00131	51		 push	 ecx
  00132	f3 0f 10 05 00
	00 00 00	 movss	 xmm0, DWORD PTR ?seeker_head_theta2@@3MA
  0013a	f3 0f 11 04 24	 movss	 DWORD PTR [esp], xmm0
  0013f	e8 00 00 00 00	 call	 ?sin@@YGMM@Z		; sin
  00144	dd 5d a0	 fstp	 QWORD PTR tv304[ebp]
  00147	f2 0f 10 45 a0	 movsd	 xmm0, QWORD PTR tv304[ebp]
  0014c	f2 0f 59 05 00
	00 00 00	 mulsd	 xmm0, QWORD PTR __real@3fc0000000000000
  00154	f3 0f 5a 0d 00
	00 00 00	 cvtss2sd xmm1, DWORD PTR ?blackhawk_stinger_seeker_head_x_position@@3MA
  0015c	f2 0f 58 c8	 addsd	 xmm1, xmm0
  00160	f2 0f 5a c1	 cvtsd2ss xmm0, xmm1
  00164	f3 0f 11 05 00
	00 00 00	 movss	 DWORD PTR ?blackhawk_stinger_seeker_head_x_position@@3MA, xmm0

; 222  : 	blackhawk_stinger_seeker_head_y_position += 0.125 * cos (seeker_head_theta2);

  0016c	51		 push	 ecx
  0016d	f3 0f 10 05 00
	00 00 00	 movss	 xmm0, DWORD PTR ?seeker_head_theta2@@3MA
  00175	f3 0f 11 04 24	 movss	 DWORD PTR [esp], xmm0
  0017a	e8 00 00 00 00	 call	 ?cos@@YGMM@Z		; cos
  0017f	dd 5d a0	 fstp	 QWORD PTR tv312[ebp]
  00182	f2 0f 10 45 a0	 movsd	 xmm0, QWORD PTR tv312[ebp]
  00187	f2 0f 59 05 00
	00 00 00	 mulsd	 xmm0, QWORD PTR __real@3fc0000000000000
  0018f	f3 0f 5a 0d 00
	00 00 00	 cvtss2sd xmm1, DWORD PTR ?blackhawk_stinger_seeker_head_y_position@@3MA
  00197	f2 0f 58 c8	 addsd	 xmm1, xmm0
  0019b	f2 0f 5a c1	 cvtsd2ss xmm0, xmm1
  0019f	f3 0f 11 05 00
	00 00 00	 movss	 DWORD PTR ?blackhawk_stinger_seeker_head_y_position@@3MA, xmm0

; 223  : 
; 224  : 	seeker_head_theta1 += rad (120.0) * get_delta_time ();

  001a7	f3 0f 5a 05 00
	00 00 00	 cvtss2sd xmm0, DWORD PTR ?system_delta_time@@3MA
  001af	f2 0f 59 05 00
	00 00 00	 mulsd	 xmm0, QWORD PTR __real@4000c15236000000
  001b7	f3 0f 5a 0d 00
	00 00 00	 cvtss2sd xmm1, DWORD PTR ?seeker_head_theta1@@3MA
  001bf	f2 0f 58 c8	 addsd	 xmm1, xmm0
  001c3	f2 0f 5a c1	 cvtsd2ss xmm0, xmm1
  001c7	f3 0f 11 05 00
	00 00 00	 movss	 DWORD PTR ?seeker_head_theta1@@3MA, xmm0

; 225  : 	seeker_head_theta2 -= rad (180.0) * get_delta_time ();

  001cf	f3 0f 5a 05 00
	00 00 00	 cvtss2sd xmm0, DWORD PTR ?system_delta_time@@3MA
  001d7	f2 0f 59 05 00
	00 00 00	 mulsd	 xmm0, QWORD PTR __real@400921fb51000000
  001df	f3 0f 5a 0d 00
	00 00 00	 cvtss2sd xmm1, DWORD PTR ?seeker_head_theta2@@3MA
  001e7	f2 0f 5c c8	 subsd	 xmm1, xmm0
  001eb	f2 0f 5a c1	 cvtsd2ss xmm0, xmm1
  001ef	f3 0f 11 05 00
	00 00 00	 movss	 DWORD PTR ?seeker_head_theta2@@3MA, xmm0

; 226  : 
; 227  : 	////////////////////////////////////////
; 228  : 	//
; 229  : 	// weapon launch interlocks
; 230  : 	//
; 231  : 	////////////////////////////////////////
; 232  : 
; 233  : 	inhibit_launch = FALSE;

  001f7	c7 45 fc 00 00
	00 00		 mov	 DWORD PTR _inhibit_launch$[ebp], 0

; 234  : 
; 235  : 	switch (weapon_sub_type)

  001fe	8b 45 f0	 mov	 eax, DWORD PTR _weapon_sub_type$[ebp]
  00201	89 45 a4	 mov	 DWORD PTR tv157[ebp], eax
  00204	8b 4d a4	 mov	 ecx, DWORD PTR tv157[ebp]
  00207	83 e9 07	 sub	 ecx, 7
  0020a	89 4d a4	 mov	 DWORD PTR tv157[ebp], ecx
  0020d	83 7d a4 27	 cmp	 DWORD PTR tv157[ebp], 39 ; 00000027H
  00211	0f 87 4b 01 00
	00		 ja	 $LN2@update_bla
  00217	8b 55 a4	 mov	 edx, DWORD PTR tv157[ebp]
  0021a	0f b6 82 00 00
	00 00		 movzx	 eax, BYTE PTR $LN48@update_bla[edx]
  00221	ff 24 85 00 00
	00 00		 jmp	 DWORD PTR $LN49@update_bla[eax*4]
$LN6@update_bla:

; 236  : 	{
; 237  : 		////////////////////////////////////////
; 238  : 		case ENTITY_SUB_TYPE_WEAPON_M230_30MM_ROUND:
; 239  : 		////////////////////////////////////////
; 240  : 		{
; 241  : 			if
; 242  : 			(
; 243  : 				//WEAPON_LOCK_NO_ACQUIRE
; 244  : 				(weapon_lock_type == WEAPON_LOCK_NO_WEAPON)

  00228	83 3d 00 00 00
	00 01		 cmp	 DWORD PTR ?weapon_lock_type@@3W4WEAPON_LOCK_TYPES@@A, 1 ; weapon_lock_type
  0022f	75 07		 jne	 SHORT $LN7@update_bla

; 245  : 				//WEAPON_LOCK_NO_TARGET
; 246  : 				//WEAPON_LOCK_INVALID_TARGET
; 247  : 				//WEAPON_LOCK_SEEKER_LIMIT
; 248  : 				//WEAPON_LOCK_NO_LOS
; 249  : 				//WEAPON_LOCK_NO_BORESIGHT
; 250  : 				//WEAPON_LOCK_MIN_RANGE
; 251  : 				//WEAPON_LOCK_MAX_RANGE
; 252  : 				//WEAPON_LOCK_VALID
; 253  : 			)
; 254  : 			{
; 255  : 				inhibit_launch = TRUE;

  00231	c7 45 fc 01 00
	00 00		 mov	 DWORD PTR _inhibit_launch$[ebp], 1
$LN7@update_bla:

; 256  : 			}
; 257  : 
; 258  : 			break;

  00238	e9 25 01 00 00	 jmp	 $LN2@update_bla
$LN8@update_bla:

; 259  : 		}
; 260  : 		////////////////////////////////////////
; 261  : 		case ENTITY_SUB_TYPE_WEAPON_AIM92_STINGER:
; 262  : 		////////////////////////////////////////
; 263  : 		{
; 264  : 			if
; 265  : 			(
; 266  : 				(weapon_lock_type == WEAPON_LOCK_NO_ACQUIRE) ||
; 267  : 				(weapon_lock_type == WEAPON_LOCK_NO_WEAPON) ||
; 268  : 				(weapon_lock_type == WEAPON_LOCK_NO_TARGET) ||
; 269  : 				(weapon_lock_type == WEAPON_LOCK_INVALID_TARGET) ||
; 270  : 				(weapon_lock_type == WEAPON_LOCK_SEEKER_LIMIT) ||
; 271  : 				(weapon_lock_type == WEAPON_LOCK_NO_LOS) ||

  0023d	83 3d 00 00 00
	00 00		 cmp	 DWORD PTR ?weapon_lock_type@@3W4WEAPON_LOCK_TYPES@@A, 0 ; weapon_lock_type
  00244	74 36		 je	 SHORT $LN10@update_bla
  00246	83 3d 00 00 00
	00 01		 cmp	 DWORD PTR ?weapon_lock_type@@3W4WEAPON_LOCK_TYPES@@A, 1 ; weapon_lock_type
  0024d	74 2d		 je	 SHORT $LN10@update_bla
  0024f	83 3d 00 00 00
	00 02		 cmp	 DWORD PTR ?weapon_lock_type@@3W4WEAPON_LOCK_TYPES@@A, 2 ; weapon_lock_type
  00256	74 24		 je	 SHORT $LN10@update_bla
  00258	83 3d 00 00 00
	00 03		 cmp	 DWORD PTR ?weapon_lock_type@@3W4WEAPON_LOCK_TYPES@@A, 3 ; weapon_lock_type
  0025f	74 1b		 je	 SHORT $LN10@update_bla
  00261	83 3d 00 00 00
	00 04		 cmp	 DWORD PTR ?weapon_lock_type@@3W4WEAPON_LOCK_TYPES@@A, 4 ; weapon_lock_type
  00268	74 12		 je	 SHORT $LN10@update_bla
  0026a	83 3d 00 00 00
	00 05		 cmp	 DWORD PTR ?weapon_lock_type@@3W4WEAPON_LOCK_TYPES@@A, 5 ; weapon_lock_type
  00271	74 09		 je	 SHORT $LN10@update_bla
  00273	83 3d 00 00 00
	00 08		 cmp	 DWORD PTR ?weapon_lock_type@@3W4WEAPON_LOCK_TYPES@@A, 8 ; weapon_lock_type
  0027a	75 07		 jne	 SHORT $LN9@update_bla
$LN10@update_bla:

; 272  : 				//WEAPON_LOCK_NO_BORESIGHT
; 273  : 				//WEAPON_LOCK_MIN_RANGE
; 274  : 				(weapon_lock_type == WEAPON_LOCK_MAX_RANGE)
; 275  : 				//WEAPON_LOCK_VALID
; 276  : 			)
; 277  : 			{
; 278  : 				inhibit_launch = TRUE;

  0027c	c7 45 fc 01 00
	00 00		 mov	 DWORD PTR _inhibit_launch$[ebp], 1
$LN9@update_bla:

; 279  : 			}
; 280  : 
; 281  : 			break;

  00283	e9 da 00 00 00	 jmp	 $LN2@update_bla
$LN11@update_bla:

; 282  : 		}
; 283  : 		////////////////////////////////////////
; 284  : 		case ENTITY_SUB_TYPE_WEAPON_AGM114L_LONGBOW_HELLFIRE:
; 285  : 		case ENTITY_SUB_TYPE_WEAPON_AGM114K_HELLFIRE_II:
; 286  : 		////////////////////////////////////////
; 287  : 		{
; 288  : 			if (!get_local_entity_int_value (en, INT_TYPE_LOCK_ON_AFTER_LAUNCH))

  00288	83 7d f8 00	 cmp	 DWORD PTR _en$[ebp], 0
  0028c	74 0a		 je	 SHORT $LN40@update_bla
  0028e	8b 45 f8	 mov	 eax, DWORD PTR _en$[ebp]
  00291	8b 08		 mov	 ecx, DWORD PTR [eax]
  00293	89 4d a4	 mov	 DWORD PTR tv171[ebp], ecx
  00296	eb 1d		 jmp	 SHORT $LN41@update_bla
$LN40@update_bla:
  00298	68 20 01 00 00	 push	 288			; 00000120H
  0029d	68 00 00 00 00	 push	 OFFSET ??_C@_0FB@CKEGNPDJ@c?3?2users?2nhv90?2projects?2eech?2ap@
  002a2	8b 15 00 00 00
	00		 mov	 edx, DWORD PTR ?null_entity_pointer_message@@3PBDB ; null_entity_pointer_message
  002a8	52		 push	 edx
  002a9	e8 00 00 00 00	 call	 ?process_assert@@YGXPBD0H@Z ; process_assert
  002ae	c7 45 a4 00 00
	00 00		 mov	 DWORD PTR tv171[ebp], 0
$LN41@update_bla:
  002b5	b8 01 00 00 00	 mov	 eax, 1
  002ba	85 c0		 test	 eax, eax
  002bc	74 09		 je	 SHORT $LN42@update_bla
  002be	c7 45 a0 7e 00
	00 00		 mov	 DWORD PTR tv178[ebp], 126 ; 0000007eH
  002c5	eb 1d		 jmp	 SHORT $LN43@update_bla
$LN42@update_bla:
  002c7	68 20 01 00 00	 push	 288			; 00000120H
  002cc	68 00 00 00 00	 push	 OFFSET ??_C@_0FB@CKEGNPDJ@c?3?2users?2nhv90?2projects?2eech?2ap@
  002d1	8b 0d 00 00 00
	00		 mov	 ecx, DWORD PTR ?overload_invalid_int_type_message@@3PBDB ; overload_invalid_int_type_message
  002d7	51		 push	 ecx
  002d8	e8 00 00 00 00	 call	 ?process_assert@@YGXPBD0H@Z ; process_assert
  002dd	c7 45 a0 00 00
	00 00		 mov	 DWORD PTR tv178[ebp], 0
$LN43@update_bla:
  002e4	6a 7e		 push	 126			; 0000007eH
  002e6	8b 55 f8	 mov	 edx, DWORD PTR _en$[ebp]
  002e9	52		 push	 edx
  002ea	69 45 a4 5c 04
	00 00		 imul	 eax, DWORD PTR tv171[ebp], 1116
  002f1	8b 4d a0	 mov	 ecx, DWORD PTR tv178[ebp]
  002f4	8b 94 88 00 00
	00 00		 mov	 edx, DWORD PTR ?fn_get_local_entity_int_value@@3PAY0BBH@P6GHPAUENTITY@@W4INT_TYPES@@@ZA[eax+ecx*4]
  002fb	ff d2		 call	 edx
  002fd	85 c0		 test	 eax, eax
  002ff	75 3f		 jne	 SHORT $LN12@update_bla

; 289  : 			{
; 290  : 				if
; 291  : 				(
; 292  : 					(weapon_lock_type == WEAPON_LOCK_NO_ACQUIRE) ||
; 293  : 					(weapon_lock_type == WEAPON_LOCK_NO_WEAPON) ||
; 294  : 					(weapon_lock_type == WEAPON_LOCK_NO_TARGET) ||
; 295  : 					(weapon_lock_type == WEAPON_LOCK_INVALID_TARGET) ||
; 296  : 					(weapon_lock_type == WEAPON_LOCK_SEEKER_LIMIT) ||

  00301	83 3d 00 00 00
	00 00		 cmp	 DWORD PTR ?weapon_lock_type@@3W4WEAPON_LOCK_TYPES@@A, 0 ; weapon_lock_type
  00308	74 2d		 je	 SHORT $LN15@update_bla
  0030a	83 3d 00 00 00
	00 01		 cmp	 DWORD PTR ?weapon_lock_type@@3W4WEAPON_LOCK_TYPES@@A, 1 ; weapon_lock_type
  00311	74 24		 je	 SHORT $LN15@update_bla
  00313	83 3d 00 00 00
	00 02		 cmp	 DWORD PTR ?weapon_lock_type@@3W4WEAPON_LOCK_TYPES@@A, 2 ; weapon_lock_type
  0031a	74 1b		 je	 SHORT $LN15@update_bla
  0031c	83 3d 00 00 00
	00 03		 cmp	 DWORD PTR ?weapon_lock_type@@3W4WEAPON_LOCK_TYPES@@A, 3 ; weapon_lock_type
  00323	74 12		 je	 SHORT $LN15@update_bla
  00325	83 3d 00 00 00
	00 04		 cmp	 DWORD PTR ?weapon_lock_type@@3W4WEAPON_LOCK_TYPES@@A, 4 ; weapon_lock_type
  0032c	74 09		 je	 SHORT $LN15@update_bla
  0032e	83 3d 00 00 00
	00 08		 cmp	 DWORD PTR ?weapon_lock_type@@3W4WEAPON_LOCK_TYPES@@A, 8 ; weapon_lock_type
  00335	75 07		 jne	 SHORT $LN14@update_bla
$LN15@update_bla:

; 297  : 					//WEAPON_LOCK_NO_LOS
; 298  : 					//WEAPON_LOCK_NO_BORESIGHT
; 299  : 					//WEAPON_LOCK_MIN_RANGE
; 300  : 					(weapon_lock_type == WEAPON_LOCK_MAX_RANGE)
; 301  : 					//WEAPON_LOCK_VALID
; 302  : 				)
; 303  : 				{
; 304  : 					inhibit_launch = TRUE;

  00337	c7 45 fc 01 00
	00 00		 mov	 DWORD PTR _inhibit_launch$[ebp], 1
$LN14@update_bla:

; 305  : 				}
; 306  : 			}
; 307  : 			else

  0033e	eb 10		 jmp	 SHORT $LN16@update_bla
$LN12@update_bla:

; 308  : 			{
; 309  : 				if
; 310  : 				(
; 311  : 					//WEAPON_LOCK_NO_ACQUIRE
; 312  : 					(weapon_lock_type == WEAPON_LOCK_NO_WEAPON)

  00340	83 3d 00 00 00
	00 01		 cmp	 DWORD PTR ?weapon_lock_type@@3W4WEAPON_LOCK_TYPES@@A, 1 ; weapon_lock_type
  00347	75 07		 jne	 SHORT $LN16@update_bla

; 313  : 					//WEAPON_LOCK_NO_TARGET
; 314  : 					//WEAPON_LOCK_INVALID_TARGET
; 315  : 					//WEAPON_LOCK_SEEKER_LIMIT
; 316  : 					//WEAPON_LOCK_NO_LOS
; 317  : 					//WEAPON_LOCK_NO_BORESIGHT
; 318  : 					//WEAPON_LOCK_MIN_RANGE
; 319  : 					//WEAPON_LOCK_MAX_RANGE
; 320  : 					//WEAPON_LOCK_VALID
; 321  : 				)
; 322  : 				{
; 323  : 					inhibit_launch = TRUE;

  00349	c7 45 fc 01 00
	00 00		 mov	 DWORD PTR _inhibit_launch$[ebp], 1
$LN16@update_bla:

; 324  : 				}
; 325  : 			}
; 326  : 
; 327  : 			break;

  00350	eb 10		 jmp	 SHORT $LN2@update_bla
$LN17@update_bla:

; 328  : 		}
; 329  : 		////////////////////////////////////////
; 330  : 		case ENTITY_SUB_TYPE_WEAPON_HYDRA70_M255:
; 331  : 		case ENTITY_SUB_TYPE_WEAPON_HYDRA70_M261:
; 332  : 		////////////////////////////////////////
; 333  : 		{
; 334  : 			if
; 335  : 			(
; 336  : 				//WEAPON_LOCK_NO_ACQUIRE
; 337  : 				(weapon_lock_type == WEAPON_LOCK_NO_WEAPON)

  00352	83 3d 00 00 00
	00 01		 cmp	 DWORD PTR ?weapon_lock_type@@3W4WEAPON_LOCK_TYPES@@A, 1 ; weapon_lock_type
  00359	75 07		 jne	 SHORT $LN18@update_bla

; 338  : 				//WEAPON_LOCK_NO_TARGET
; 339  : 				//WEAPON_LOCK_INVALID_TARGET
; 340  : 				//WEAPON_LOCK_SEEKER_LIMIT
; 341  : 				//WEAPON_LOCK_NO_LOS
; 342  : 				//WEAPON_LOCK_NO_BORESIGHT
; 343  : 				//WEAPON_LOCK_MIN_RANGE
; 344  : 				//WEAPON_LOCK_MAX_RANGE
; 345  : 				//WEAPON_LOCK_VALID
; 346  : 			)
; 347  : 			{
; 348  : 				inhibit_launch = TRUE;

  0035b	c7 45 fc 01 00
	00 00		 mov	 DWORD PTR _inhibit_launch$[ebp], 1
$LN18@update_bla:
$LN2@update_bla:

; 349  : 			}
; 350  : 
; 351  : 			break;
; 352  : 		}
; 353  : 	}
; 354  : 
; 355  : 	if (inhibit_launch)

  00362	83 7d fc 00	 cmp	 DWORD PTR _inhibit_launch$[ebp], 0
  00366	74 2d		 je	 SHORT $LN19@update_bla

; 356  : 	{
; 357  : 		if (fire_single_weapon)

  00368	83 3d 00 00 00
	00 00		 cmp	 DWORD PTR ?fire_single_weapon@@3HA, 0 ; fire_single_weapon
  0036f	74 0b		 je	 SHORT $LN20@update_bla

; 358  : 		{
; 359  : 			play_common_cpg_failed_launch_speech (weapon_lock_type);

  00371	a1 00 00 00 00	 mov	 eax, DWORD PTR ?weapon_lock_type@@3W4WEAPON_LOCK_TYPES@@A ; weapon_lock_type
  00376	50		 push	 eax
  00377	e8 00 00 00 00	 call	 ?play_common_cpg_failed_launch_speech@@YGXW4WEAPON_LOCK_TYPES@@@Z ; play_common_cpg_failed_launch_speech
$LN20@update_bla:

; 360  : 		}
; 361  : 
; 362  : 		rocket_salvo_count = 0;

  0037c	c7 05 00 00 00
	00 00 00 00 00	 mov	 DWORD PTR ?rocket_salvo_count@@3HA, 0 ; rocket_salvo_count

; 363  : 
; 364  : 		fire_single_weapon = 0;

  00386	c7 05 00 00 00
	00 00 00 00 00	 mov	 DWORD PTR ?fire_single_weapon@@3HA, 0 ; fire_single_weapon

; 365  : 
; 366  : 		return;

  00390	e9 1c 02 00 00	 jmp	 $LN1@update_bla
$LN19@update_bla:

; 367  : 	}
; 368  : 
; 369  : 	//
; 370  : 	// ensure that there is a selected weapon
; 371  : 	//
; 372  : 
; 373  : 	if (weapon_sub_type == ENTITY_SUB_TYPE_WEAPON_NO_WEAPON)

  00395	83 7d f0 00	 cmp	 DWORD PTR _weapon_sub_type$[ebp], 0
  00399	75 5b		 jne	 SHORT $LN21@update_bla

; 374  : 	{
; 375  : 		if (fire_single_weapon)

  0039b	83 3d 00 00 00
	00 00		 cmp	 DWORD PTR ?fire_single_weapon@@3HA, 0 ; fire_single_weapon
  003a2	74 39		 je	 SHORT $LN22@update_bla

; 376  : 		{
; 377  : 			play_client_server_cpg_message (get_gunship_entity (), 0.5, 1.0, SPEECH_CATEGORY_CPG_SYSTEMS, 1.0, SPEECH_CPG_NO_WEAPON);

  003a4	6a 50		 push	 80			; 00000050H
  003a6	51		 push	 ecx
  003a7	f3 0f 10 05 00
	00 00 00	 movss	 xmm0, DWORD PTR __real@3f800000
  003af	f3 0f 11 04 24	 movss	 DWORD PTR [esp], xmm0
  003b4	6a 04		 push	 4
  003b6	51		 push	 ecx
  003b7	f3 0f 10 05 00
	00 00 00	 movss	 xmm0, DWORD PTR __real@3f800000
  003bf	f3 0f 11 04 24	 movss	 DWORD PTR [esp], xmm0
  003c4	51		 push	 ecx
  003c5	f3 0f 10 05 00
	00 00 00	 movss	 xmm0, DWORD PTR __real@3f000000
  003cd	f3 0f 11 04 24	 movss	 DWORD PTR [esp], xmm0
  003d2	a1 00 00 00 00	 mov	 eax, DWORD PTR ?gunship_entity@@3PAUENTITY@@A ; gunship_entity
  003d7	50		 push	 eax
  003d8	e8 00 00 00 00	 call	 ?play_client_server_cpg_message@@YGHPAUENTITY@@MMHMH@Z ; play_client_server_cpg_message
$LN22@update_bla:

; 378  : 		}
; 379  : 
; 380  : 		rocket_salvo_count = 0;

  003dd	c7 05 00 00 00
	00 00 00 00 00	 mov	 DWORD PTR ?rocket_salvo_count@@3HA, 0 ; rocket_salvo_count

; 381  : 
; 382  : 		fire_single_weapon = 0;

  003e7	c7 05 00 00 00
	00 00 00 00 00	 mov	 DWORD PTR ?fire_single_weapon@@3HA, 0 ; fire_single_weapon

; 383  : 
; 384  : 		return;

  003f1	e9 bb 01 00 00	 jmp	 $LN1@update_bla
$LN21@update_bla:

; 385  : 	}
; 386  : 
; 387  : 	////////////////////////////////////////
; 388  : 	//
; 389  : 	// rocket salvo
; 390  : 	//
; 391  : 	////////////////////////////////////////
; 392  : 
; 393  : 	if ((weapon_sub_type == ENTITY_SUB_TYPE_WEAPON_HYDRA70_M255) || (weapon_sub_type == ENTITY_SUB_TYPE_WEAPON_HYDRA70_M261))

  003f6	83 7d f0 1e	 cmp	 DWORD PTR _weapon_sub_type$[ebp], 30 ; 0000001eH
  003fa	74 06		 je	 SHORT $LN25@update_bla
  003fc	83 7d f0 1f	 cmp	 DWORD PTR _weapon_sub_type$[ebp], 31 ; 0000001fH
  00400	75 6e		 jne	 SHORT $LN23@update_bla
$LN25@update_bla:

; 394  : 	{
; 395  : 		if (fire_single_weapon)

  00402	83 3d 00 00 00
	00 00		 cmp	 DWORD PTR ?fire_single_weapon@@3HA, 0 ; fire_single_weapon
  00409	74 10		 je	 SHORT $LN26@update_bla

; 396  : 		{
; 397  : 			rocket_salvo_count += rocket_salvo_size;

  0040b	a1 00 00 00 00	 mov	 eax, DWORD PTR ?rocket_salvo_count@@3HA ; rocket_salvo_count
  00410	03 05 00 00 00
	00		 add	 eax, DWORD PTR ?rocket_salvo_size@@3HA ; rocket_salvo_size
  00416	a3 00 00 00 00	 mov	 DWORD PTR ?rocket_salvo_count@@3HA, eax ; rocket_salvo_count
$LN26@update_bla:

; 398  : 		}
; 399  : 
; 400  : 		if (rocket_salvo_count)

  0041b	83 3d 00 00 00
	00 00		 cmp	 DWORD PTR ?rocket_salvo_count@@3HA, 0 ; rocket_salvo_count
  00422	74 4a		 je	 SHORT $LN27@update_bla

; 401  : 		{
; 402  : 			fire_single_weapon = min (rocket_salvo_count, 2);

  00424	c7 45 ac 02 00
	00 00		 mov	 DWORD PTR $T2[ebp], 2
  0042b	8d 45 ac	 lea	 eax, DWORD PTR $T2[ebp]
  0042e	50		 push	 eax
  0042f	68 00 00 00 00	 push	 OFFSET ?rocket_salvo_count@@3HA ; rocket_salvo_count
  00434	e8 00 00 00 00	 call	 ??$min@H@std@@YGABHABH0@Z ; std::min<int>
  00439	8b 08		 mov	 ecx, DWORD PTR [eax]
  0043b	89 0d 00 00 00
	00		 mov	 DWORD PTR ?fire_single_weapon@@3HA, ecx ; fire_single_weapon

; 403  : 
; 404  : 			rocket_salvo_count -= fire_single_weapon;

  00441	a1 00 00 00 00	 mov	 eax, DWORD PTR ?rocket_salvo_count@@3HA ; rocket_salvo_count
  00446	2b 05 00 00 00
	00		 sub	 eax, DWORD PTR ?fire_single_weapon@@3HA ; fire_single_weapon
  0044c	a3 00 00 00 00	 mov	 DWORD PTR ?rocket_salvo_count@@3HA, eax ; rocket_salvo_count

; 405  : 
; 406  : 			rocket_salvo_count = max (rocket_salvo_count, 0);

  00451	c7 45 a8 00 00
	00 00		 mov	 DWORD PTR $T1[ebp], 0
  00458	8d 45 a8	 lea	 eax, DWORD PTR $T1[ebp]
  0045b	50		 push	 eax
  0045c	68 00 00 00 00	 push	 OFFSET ?rocket_salvo_count@@3HA ; rocket_salvo_count
  00461	e8 00 00 00 00	 call	 ??$max@H@std@@YGABHABH0@Z ; std::max<int>
  00466	8b 08		 mov	 ecx, DWORD PTR [eax]
  00468	89 0d 00 00 00
	00		 mov	 DWORD PTR ?rocket_salvo_count@@3HA, ecx ; rocket_salvo_count
$LN27@update_bla:

; 407  : 		}
; 408  : 	}
; 409  : 	else

  0046e	eb 0a		 jmp	 SHORT $LN24@update_bla
$LN23@update_bla:

; 410  : 	{
; 411  : 		rocket_salvo_count = 0;

  00470	c7 05 00 00 00
	00 00 00 00 00	 mov	 DWORD PTR ?rocket_salvo_count@@3HA, 0 ; rocket_salvo_count
$LN24@update_bla:

; 412  : 	}
; 413  : 
; 414  : 	////////////////////////////////////////
; 415  : 	//
; 416  : 	// launch weapon(s)
; 417  : 	//
; 418  : 	////////////////////////////////////////
; 419  : 
; 420  : 	target = get_local_entity_parent (en, LIST_TYPE_TARGET);

  0047a	83 7d f8 00	 cmp	 DWORD PTR _en$[ebp], 0
  0047e	74 0a		 je	 SHORT $LN44@update_bla
  00480	8b 45 f8	 mov	 eax, DWORD PTR _en$[ebp]
  00483	8b 08		 mov	 ecx, DWORD PTR [eax]
  00485	89 4d a4	 mov	 DWORD PTR tv224[ebp], ecx
  00488	eb 24		 jmp	 SHORT $LN45@update_bla
$LN44@update_bla:
  0048a	8b 15 00 00 00
	00		 mov	 edx, DWORD PTR ?__LINE__Var@?0??update_blackhawk_weapon_systems@@YGXXZ@4JA
  00490	81 c2 f2 00 00
	00		 add	 edx, 242		; 000000f2H
  00496	52		 push	 edx
  00497	68 00 00 00 00	 push	 OFFSET ??_C@_0FB@CKEGNPDJ@c?3?2users?2nhv90?2projects?2eech?2ap@
  0049c	a1 00 00 00 00	 mov	 eax, DWORD PTR ?null_entity_pointer_message@@3PBDB ; null_entity_pointer_message
  004a1	50		 push	 eax
  004a2	e8 00 00 00 00	 call	 ?process_assert@@YGXPBD0H@Z ; process_assert
  004a7	c7 45 a4 00 00
	00 00		 mov	 DWORD PTR tv224[ebp], 0
$LN45@update_bla:
  004ae	b9 01 00 00 00	 mov	 ecx, 1
  004b3	85 c9		 test	 ecx, ecx
  004b5	74 09		 je	 SHORT $LN46@update_bla
  004b7	c7 45 a0 26 00
	00 00		 mov	 DWORD PTR tv232[ebp], 38 ; 00000026H
  004be	eb 24		 jmp	 SHORT $LN47@update_bla
$LN46@update_bla:
  004c0	8b 15 00 00 00
	00		 mov	 edx, DWORD PTR ?__LINE__Var@?0??update_blackhawk_weapon_systems@@YGXXZ@4JA
  004c6	81 c2 f2 00 00
	00		 add	 edx, 242		; 000000f2H
  004cc	52		 push	 edx
  004cd	68 00 00 00 00	 push	 OFFSET ??_C@_0FB@CKEGNPDJ@c?3?2users?2nhv90?2projects?2eech?2ap@
  004d2	a1 00 00 00 00	 mov	 eax, DWORD PTR ?overload_invalid_list_type_message@@3PBDB ; overload_invalid_list_type_message
  004d7	50		 push	 eax
  004d8	e8 00 00 00 00	 call	 ?process_assert@@YGXPBD0H@Z ; process_assert
  004dd	c7 45 a0 00 00
	00 00		 mov	 DWORD PTR tv232[ebp], 0
$LN47@update_bla:
  004e4	6a 26		 push	 38			; 00000026H
  004e6	8b 4d f8	 mov	 ecx, DWORD PTR _en$[ebp]
  004e9	51		 push	 ecx
  004ea	69 55 a4 b4 00
	00 00		 imul	 edx, DWORD PTR tv224[ebp], 180
  004f1	8b 45 a0	 mov	 eax, DWORD PTR tv232[ebp]
  004f4	8b 8c 82 00 00
	00 00		 mov	 ecx, DWORD PTR ?fn_get_local_entity_parent@@3PAY0CN@P6GPAUENTITY@@PAU1@W4LIST_TYPES@@@ZA[edx+eax*4]
  004fb	ff d1		 call	 ecx
  004fd	89 45 f4	 mov	 DWORD PTR _target$[ebp], eax

; 421  : 
; 422  : 	if (fire_continuous_weapon || fire_single_weapon)

  00500	83 3d 00 00 00
	00 00		 cmp	 DWORD PTR ?fire_continuous_weapon@@3HA, 0 ; fire_continuous_weapon
  00507	75 0d		 jne	 SHORT $LN30@update_bla
  00509	83 3d 00 00 00
	00 00		 cmp	 DWORD PTR ?fire_single_weapon@@3HA, 0 ; fire_single_weapon
  00510	0f 84 81 00 00
	00		 je	 $LN28@update_bla
$LN30@update_bla:

; 423  : 	{
; 424  : 		if (weapon_database[weapon_sub_type].rate_of_fire == FIRE_SINGLE_WEAPON)

  00516	69 45 f0 e0 00
	00 00		 imul	 eax, DWORD PTR _weapon_sub_type$[ebp], 224
  0051d	f3 0f 5a 80 c8
	00 00 00	 cvtss2sd xmm0, DWORD PTR ?weapon_database@@3PAUWEAPON_DATA@@A[eax+200]
  00525	66 0f 2e 05 00
	00 00 00	 ucomisd xmm0, QWORD PTR __real@0000000000000000
  0052d	9f		 lahf
  0052e	f6 c4 44	 test	 ah, 68			; 00000044H
  00531	7a 48		 jp	 SHORT $LN31@update_bla

; 425  : 		{
; 426  : 			//
; 427  : 			// fire a maximum of two weapons per frame (one off of each stub wing)
; 428  : 			//
; 429  : 
; 430  : 			if (fire_single_weapon >= 2)

  00533	83 3d 00 00 00
	00 02		 cmp	 DWORD PTR ?fire_single_weapon@@3HA, 2 ; fire_single_weapon
  0053a	7c 1a		 jl	 SHORT $LN33@update_bla

; 431  : 			{
; 432  : 				apply_weapon_recoil_effect (en, weapon_sub_type);

  0053c	8b 45 f0	 mov	 eax, DWORD PTR _weapon_sub_type$[ebp]
  0053f	50		 push	 eax
  00540	8b 4d f8	 mov	 ecx, DWORD PTR _en$[ebp]
  00543	51		 push	 ecx
  00544	e8 00 00 00 00	 call	 ?apply_weapon_recoil_effect@@YGXPAUENTITY@@H@Z ; apply_weapon_recoil_effect

; 433  : 
; 434  : 				launch_client_server_weapon (en, weapon_sub_type);

  00549	8b 45 f0	 mov	 eax, DWORD PTR _weapon_sub_type$[ebp]
  0054c	50		 push	 eax
  0054d	8b 4d f8	 mov	 ecx, DWORD PTR _en$[ebp]
  00550	51		 push	 ecx
  00551	e8 00 00 00 00	 call	 ?launch_client_server_weapon@@YGXPAUENTITY@@H@Z ; launch_client_server_weapon
$LN33@update_bla:

; 435  : 			}
; 436  : 
; 437  : 			if (fire_single_weapon >= 1)

  00556	83 3d 00 00 00
	00 01		 cmp	 DWORD PTR ?fire_single_weapon@@3HA, 1 ; fire_single_weapon
  0055d	7c 1a		 jl	 SHORT $LN34@update_bla

; 438  : 			{
; 439  : 				apply_weapon_recoil_effect (en, weapon_sub_type);

  0055f	8b 45 f0	 mov	 eax, DWORD PTR _weapon_sub_type$[ebp]
  00562	50		 push	 eax
  00563	8b 4d f8	 mov	 ecx, DWORD PTR _en$[ebp]
  00566	51		 push	 ecx
  00567	e8 00 00 00 00	 call	 ?apply_weapon_recoil_effect@@YGXPAUENTITY@@H@Z ; apply_weapon_recoil_effect

; 440  : 
; 441  : 				launch_client_server_weapon (en, weapon_sub_type);

  0056c	8b 45 f0	 mov	 eax, DWORD PTR _weapon_sub_type$[ebp]
  0056f	50		 push	 eax
  00570	8b 4d f8	 mov	 ecx, DWORD PTR _en$[ebp]
  00573	51		 push	 ecx
  00574	e8 00 00 00 00	 call	 ?launch_client_server_weapon@@YGXPAUENTITY@@H@Z ; launch_client_server_weapon
$LN34@update_bla:

; 442  : 			}
; 443  : 		}
; 444  : 		else

  00579	eb 1a		 jmp	 SHORT $LN32@update_bla
$LN31@update_bla:

; 445  : 		{
; 446  : 			apply_weapon_recoil_effect (en, weapon_sub_type);

  0057b	8b 45 f0	 mov	 eax, DWORD PTR _weapon_sub_type$[ebp]
  0057e	50		 push	 eax
  0057f	8b 4d f8	 mov	 ecx, DWORD PTR _en$[ebp]
  00582	51		 push	 ecx
  00583	e8 00 00 00 00	 call	 ?apply_weapon_recoil_effect@@YGXPAUENTITY@@H@Z ; apply_weapon_recoil_effect

; 447  : 
; 448  : 			launch_client_server_weapon (en, weapon_sub_type);

  00588	8b 45 f0	 mov	 eax, DWORD PTR _weapon_sub_type$[ebp]
  0058b	50		 push	 eax
  0058c	8b 4d f8	 mov	 ecx, DWORD PTR _en$[ebp]
  0058f	51		 push	 ecx
  00590	e8 00 00 00 00	 call	 ?launch_client_server_weapon@@YGXPAUENTITY@@H@Z ; launch_client_server_weapon
$LN32@update_bla:

; 449  : 		}
; 450  : 	}
; 451  : 	else

  00595	eb 10		 jmp	 SHORT $LN29@update_bla
$LN28@update_bla:

; 452  : 		((helicopter*)get_local_entity_data(en))->ac.weapon_salvo_timer = 0.0;

  00597	8b 45 f8	 mov	 eax, DWORD PTR _en$[ebp]
  0059a	8b 48 04	 mov	 ecx, DWORD PTR [eax+4]
  0059d	c7 81 30 01 00
	00 00 00 00 00	 mov	 DWORD PTR [ecx+304], 0
$LN29@update_bla:

; 453  : 
; 454  : 	fire_single_weapon = 0;

  005a7	c7 05 00 00 00
	00 00 00 00 00	 mov	 DWORD PTR ?fire_single_weapon@@3HA, 0 ; fire_single_weapon
$LN1@update_bla:

; 455  : }

  005b1	5f		 pop	 edi
  005b2	5e		 pop	 esi
  005b3	5b		 pop	 ebx
  005b4	8b e5		 mov	 esp, ebp
  005b6	5d		 pop	 ebp
  005b7	c3		 ret	 0
$LN49@update_bla:
  005b8	00 00 00 00	 DD	 $LN6@update_bla
  005bc	00 00 00 00	 DD	 $LN17@update_bla
  005c0	00 00 00 00	 DD	 $LN8@update_bla
  005c4	00 00 00 00	 DD	 $LN11@update_bla
  005c8	00 00 00 00	 DD	 $LN2@update_bla
$LN48@update_bla:
  005cc	00		 DB	 0
  005cd	04		 DB	 4
  005ce	04		 DB	 4
  005cf	04		 DB	 4
  005d0	04		 DB	 4
  005d1	04		 DB	 4
  005d2	04		 DB	 4
  005d3	04		 DB	 4
  005d4	04		 DB	 4
  005d5	04		 DB	 4
  005d6	04		 DB	 4
  005d7	04		 DB	 4
  005d8	04		 DB	 4
  005d9	04		 DB	 4
  005da	04		 DB	 4
  005db	04		 DB	 4
  005dc	04		 DB	 4
  005dd	04		 DB	 4
  005de	04		 DB	 4
  005df	04		 DB	 4
  005e0	04		 DB	 4
  005e1	04		 DB	 4
  005e2	04		 DB	 4
  005e3	01		 DB	 1
  005e4	01		 DB	 1
  005e5	04		 DB	 4
  005e6	04		 DB	 4
  005e7	04		 DB	 4
  005e8	04		 DB	 4
  005e9	02		 DB	 2
  005ea	04		 DB	 4
  005eb	04		 DB	 4
  005ec	04		 DB	 4
  005ed	04		 DB	 4
  005ee	04		 DB	 4
  005ef	04		 DB	 4
  005f0	04		 DB	 4
  005f1	04		 DB	 4
  005f2	03		 DB	 3
  005f3	03		 DB	 3
?update_blackhawk_weapon_systems@@YGXXZ ENDP		; update_blackhawk_weapon_systems
_TEXT	ENDS
; Function compile flags: /Odtp /ZI
; File c:\users\nhv90\projects\eech\aphavoc\source\gunships\avionics\blackhawk\bh_wpn.c
;	COMDAT ?initialise_blackhawk_weapon_systems@@YGXXZ
_TEXT	SEGMENT
?initialise_blackhawk_weapon_systems@@YGXXZ PROC	; initialise_blackhawk_weapon_systems, COMDAT

; 86   : {

  00000	55		 push	 ebp
  00001	8b ec		 mov	 ebp, esp
  00003	83 ec 40	 sub	 esp, 64			; 00000040H
  00006	53		 push	 ebx
  00007	56		 push	 esi
  00008	57		 push	 edi

; 87   : 	seeker_head_theta1 = 0.0;

  00009	0f 57 c0	 xorps	 xmm0, xmm0
  0000c	f3 0f 11 05 00
	00 00 00	 movss	 DWORD PTR ?seeker_head_theta1@@3MA, xmm0

; 88   : 
; 89   : 	seeker_head_theta2 = 0.0;

  00014	0f 57 c0	 xorps	 xmm0, xmm0
  00017	f3 0f 11 05 00
	00 00 00	 movss	 DWORD PTR ?seeker_head_theta2@@3MA, xmm0

; 90   : 
; 91   : 	blackhawk_stinger_seeker_head_x_position = 0.0;

  0001f	0f 57 c0	 xorps	 xmm0, xmm0
  00022	f3 0f 11 05 00
	00 00 00	 movss	 DWORD PTR ?blackhawk_stinger_seeker_head_x_position@@3MA, xmm0

; 92   : 
; 93   : 	blackhawk_stinger_seeker_head_y_position = 0.0;

  0002a	0f 57 c0	 xorps	 xmm0, xmm0
  0002d	f3 0f 11 05 00
	00 00 00	 movss	 DWORD PTR ?blackhawk_stinger_seeker_head_y_position@@3MA, xmm0

; 94   : }

  00035	5f		 pop	 edi
  00036	5e		 pop	 esi
  00037	5b		 pop	 ebx
  00038	8b e5		 mov	 esp, ebp
  0003a	5d		 pop	 ebp
  0003b	c3		 ret	 0
?initialise_blackhawk_weapon_systems@@YGXXZ ENDP	; initialise_blackhawk_weapon_systems
_TEXT	ENDS
; Function compile flags: /Odtp /ZI
; File c:\program files (x86)\microsoft visual studio\2017\community\vc\tools\msvc\14.16.27023\include\cmath
;	COMDAT ?sin@@YGMM@Z
_TEXT	SEGMENT
__Xx$ = 8						; size = 4
?sin@@YGMM@Z PROC					; sin, COMDAT

; 284  : 	{

  00000	55		 push	 ebp
  00001	8b ec		 mov	 ebp, esp
  00003	83 ec 40	 sub	 esp, 64			; 00000040H
  00006	53		 push	 ebx
  00007	56		 push	 esi
  00008	57		 push	 edi

; 285  : 	return (_CSTD sinf(_Xx));

  00009	51		 push	 ecx
  0000a	f3 0f 10 45 08	 movss	 xmm0, DWORD PTR __Xx$[ebp]
  0000f	f3 0f 11 04 24	 movss	 DWORD PTR [esp], xmm0
  00014	e8 00 00 00 00	 call	 _sinf
  00019	83 c4 04	 add	 esp, 4

; 286  : 	}

  0001c	5f		 pop	 edi
  0001d	5e		 pop	 esi
  0001e	5b		 pop	 ebx
  0001f	8b e5		 mov	 esp, ebp
  00021	5d		 pop	 ebp
  00022	c2 04 00	 ret	 4
?sin@@YGMM@Z ENDP					; sin
_TEXT	ENDS
; Function compile flags: /Odtp /ZI
; File c:\program files (x86)\microsoft visual studio\2017\community\vc\tools\msvc\14.16.27023\include\cmath
;	COMDAT ?cos@@YGMM@Z
_TEXT	SEGMENT
__Xx$ = 8						; size = 4
?cos@@YGMM@Z PROC					; cos, COMDAT

; 77   : 	{

  00000	55		 push	 ebp
  00001	8b ec		 mov	 ebp, esp
  00003	83 ec 40	 sub	 esp, 64			; 00000040H
  00006	53		 push	 ebx
  00007	56		 push	 esi
  00008	57		 push	 edi

; 78   : 	return (_CSTD cosf(_Xx));

  00009	51		 push	 ecx
  0000a	f3 0f 10 45 08	 movss	 xmm0, DWORD PTR __Xx$[ebp]
  0000f	f3 0f 11 04 24	 movss	 DWORD PTR [esp], xmm0
  00014	e8 00 00 00 00	 call	 _cosf
  00019	83 c4 04	 add	 esp, 4

; 79   : 	}

  0001c	5f		 pop	 edi
  0001d	5e		 pop	 esi
  0001e	5b		 pop	 ebx
  0001f	8b e5		 mov	 esp, ebp
  00021	5d		 pop	 ebp
  00022	c2 04 00	 ret	 4
?cos@@YGMM@Z ENDP					; cos
_TEXT	ENDS
; Function compile flags: /Odtp /ZI
; File c:\program files (x86)\windows kits\10\include\10.0.18362.0\ucrt\corecrt_math.h
;	COMDAT _sinf
_TEXT	SEGMENT
tv71 = -68						; size = 4
__X$ = 8						; size = 4
_sinf	PROC						; COMDAT

; 749  :         {

  00000	55		 push	 ebp
  00001	8b ec		 mov	 ebp, esp
  00003	83 ec 44	 sub	 esp, 68			; 00000044H
  00006	53		 push	 ebx
  00007	56		 push	 esi
  00008	57		 push	 edi

; 750  :             return (float)sin(_X);

  00009	f3 0f 5a 45 08	 cvtss2sd xmm0, DWORD PTR __X$[ebp]
  0000e	83 ec 08	 sub	 esp, 8
  00011	f2 0f 11 04 24	 movsd	 QWORD PTR [esp], xmm0
  00016	e8 00 00 00 00	 call	 _sin
  0001b	83 c4 08	 add	 esp, 8
  0001e	d9 5d bc	 fstp	 DWORD PTR tv71[ebp]
  00021	d9 45 bc	 fld	 DWORD PTR tv71[ebp]

; 751  :         }

  00024	5f		 pop	 edi
  00025	5e		 pop	 esi
  00026	5b		 pop	 ebx
  00027	8b e5		 mov	 esp, ebp
  00029	5d		 pop	 ebp
  0002a	c3		 ret	 0
_sinf	ENDP
_TEXT	ENDS
; Function compile flags: /Odtp /ZI
; File c:\program files (x86)\windows kits\10\include\10.0.18362.0\ucrt\corecrt_math.h
;	COMDAT _cosf
_TEXT	SEGMENT
tv71 = -68						; size = 4
__X$ = 8						; size = 4
_cosf	PROC						; COMDAT

; 648  :         {

  00000	55		 push	 ebp
  00001	8b ec		 mov	 ebp, esp
  00003	83 ec 44	 sub	 esp, 68			; 00000044H
  00006	53		 push	 ebx
  00007	56		 push	 esi
  00008	57		 push	 edi

; 649  :             return (float)cos(_X);

  00009	f3 0f 5a 45 08	 cvtss2sd xmm0, DWORD PTR __X$[ebp]
  0000e	83 ec 08	 sub	 esp, 8
  00011	f2 0f 11 04 24	 movsd	 QWORD PTR [esp], xmm0
  00016	e8 00 00 00 00	 call	 _cos
  0001b	83 c4 08	 add	 esp, 8
  0001e	d9 5d bc	 fstp	 DWORD PTR tv71[ebp]
  00021	d9 45 bc	 fld	 DWORD PTR tv71[ebp]

; 650  :         }

  00024	5f		 pop	 edi
  00025	5e		 pop	 esi
  00026	5b		 pop	 ebx
  00027	8b e5		 mov	 esp, ebp
  00029	5d		 pop	 ebp
  0002a	c3		 ret	 0
_cosf	ENDP
_TEXT	ENDS
END
