; Listing generated by Microsoft (R) Optimizing Compiler Version 19.16.27045.0 

	TITLE	C:\Users\nhv90\Projects\eech\aphavoc\source\entity\special\bridge\br_float.c
	.686P
	.XMM
	include listing.inc
	.model	flat

INCLUDELIB MSVCRTD
INCLUDELIB OLDNAMES

PUBLIC	?overload_bridge_float_value_functions@@YGXXZ	; overload_bridge_float_value_functions
PUBLIC	?__LINE__Var@?0??set_local_float_value@@YGXPAUENTITY@@W4FLOAT_TYPES@@M@Z@4JA ; `set_local_float_value'::`1'::__LINE__Var
PUBLIC	??_C@_0EN@JNKBEJGI@c?3?2users?2nhv90?2projects?2eech?2ap@ ; `string'
PUBLIC	?__LINE__Var@?0??set_server_float_value@@YGXPAUENTITY@@W4FLOAT_TYPES@@M@Z@4JA ; `set_server_float_value'::`1'::__LINE__Var
PUBLIC	??_C@_0CB@CFOCLFOK@assert_client_server_local_fn?5?$CI@ ; `string'
PUBLIC	??_C@_0CC@BNNNEGEG@assert_client_server_remote_fn?5@ ; `string'
PUBLIC	?__LINE__Var@?0??set_client_float_value@@YGXPAUENTITY@@W4FLOAT_TYPES@@M@Z@4JA ; `set_client_float_value'::`1'::__LINE__Var
PUBLIC	?__LINE__Var@?0??get_local_float_value@@YGMPAUENTITY@@W4FLOAT_TYPES@@@Z@4JA ; `get_local_float_value'::`1'::__LINE__Var
PUBLIC	__real@44480000
EXTRN	?process_assert@@YGXPBD0H@Z:PROC		; process_assert
EXTRN	?debug_fatal@@YAXPBDZZ:PROC			; debug_fatal
EXTRN	?transmit_entity_comms_message@@YAXW4ENTITY_COMMS_MESSAGES@@PAUENTITY@@ZZ:PROC ; transmit_entity_comms_message
EXTRN	?assert_client_server_local_fn@@YGHXZ:PROC	; assert_client_server_local_fn
EXTRN	?assert_client_server_remote_fn@@YGHXZ:PROC	; assert_client_server_remote_fn
EXTRN	?null_entity_pointer_message@@3PBDB:DWORD	; null_entity_pointer_message
EXTRN	?entity_type_database@@3PAUENTITY_TYPE_DATA@@A:BYTE ; entity_type_database
EXTRN	?system_comms_data_flow@@3W4COMMS_DATA_FLOW_TYPES@@A:DWORD ; system_comms_data_flow
EXTRN	?float_type_database@@3PAUFLOAT_TYPE_DATA@@A:BYTE ; float_type_database
EXTRN	?debug_fatal_invalid_float_type_message@@3PBDB:DWORD ; debug_fatal_invalid_float_type_message
EXTRN	?fn_set_local_entity_raw_float_value@@3PAY0KP@P6GXPAUENTITY@@W4FLOAT_TYPES@@M@ZA:BYTE ; fn_set_local_entity_raw_float_value
EXTRN	?fn_set_local_entity_float_value@@3PAY0KP@P6GXPAUENTITY@@W4FLOAT_TYPES@@M@ZA:BYTE ; fn_set_local_entity_float_value
EXTRN	?fn_set_client_server_entity_float_value@@3PAY1KP@1P6GXPAUENTITY@@W4FLOAT_TYPES@@M@ZA:BYTE ; fn_set_client_server_entity_float_value
EXTRN	?fn_get_local_entity_float_value@@3PAY0KP@P6GMPAUENTITY@@W4FLOAT_TYPES@@@ZA:BYTE ; fn_get_local_entity_float_value
EXTRN	?entities@@3PAUENTITY@@A:DWORD			; entities
EXTRN	__fltused:DWORD
;	COMDAT __real@44480000
CONST	SEGMENT
__real@44480000 DD 044480000r			; 800
CONST	ENDS
;	COMDAT ?__LINE__Var@?0??get_local_float_value@@YGMPAUENTITY@@W4FLOAT_TYPES@@@Z@4JA
_DATA	SEGMENT
?__LINE__Var@?0??get_local_float_value@@YGMPAUENTITY@@W4FLOAT_TYPES@@@Z@4JA DD 0b0H ; `get_local_float_value'::`1'::__LINE__Var
_DATA	ENDS
;	COMDAT ?__LINE__Var@?0??set_client_float_value@@YGXPAUENTITY@@W4FLOAT_TYPES@@M@Z@4JA
_DATA	SEGMENT
?__LINE__Var@?0??set_client_float_value@@YGXPAUENTITY@@W4FLOAT_TYPES@@M@Z@4JA DD 09cH ; `set_client_float_value'::`1'::__LINE__Var
_DATA	ENDS
;	COMDAT ??_C@_0CC@BNNNEGEG@assert_client_server_remote_fn?5@
CONST	SEGMENT
??_C@_0CC@BNNNEGEG@assert_client_server_remote_fn?5@ DB 'assert_client_se'
	DB	'rver_remote_fn ()', 00H			; `string'
CONST	ENDS
;	COMDAT ??_C@_0CB@CFOCLFOK@assert_client_server_local_fn?5?$CI@
CONST	SEGMENT
??_C@_0CB@CFOCLFOK@assert_client_server_local_fn?5?$CI@ DB 'assert_client'
	DB	'_server_local_fn ()', 00H			; `string'
CONST	ENDS
;	COMDAT ?__LINE__Var@?0??set_server_float_value@@YGXPAUENTITY@@W4FLOAT_TYPES@@M@Z@4JA
_DATA	SEGMENT
?__LINE__Var@?0??set_server_float_value@@YGXPAUENTITY@@W4FLOAT_TYPES@@M@Z@4JA DD 08dH ; `set_server_float_value'::`1'::__LINE__Var
_DATA	ENDS
;	COMDAT ??_C@_0EN@JNKBEJGI@c?3?2users?2nhv90?2projects?2eech?2ap@
CONST	SEGMENT
??_C@_0EN@JNKBEJGI@c?3?2users?2nhv90?2projects?2eech?2ap@ DB 'c:\users\nh'
	DB	'v90\projects\eech\aphavoc\source\entity\special\bridge\br_flo'
	DB	'at.c', 00H					; `string'
CONST	ENDS
;	COMDAT ?__LINE__Var@?0??set_local_float_value@@YGXPAUENTITY@@W4FLOAT_TYPES@@M@Z@4JA
_DATA	SEGMENT
?__LINE__Var@?0??set_local_float_value@@YGXPAUENTITY@@W4FLOAT_TYPES@@M@Z@4JA DD 050H ; `set_local_float_value'::`1'::__LINE__Var
_DATA	ENDS
; Function compile flags: /Odtp /ZI
; File c:\users\nhv90\projects\eech\aphavoc\source\entity\special\bridge\br_float.c
;	COMDAT ?get_local_float_value@@YGMPAUENTITY@@W4FLOAT_TYPES@@@Z
_TEXT	SEGMENT
tv84 = -76						; size = 4
tv65 = -76						; size = 4
_value$ = -8						; size = 4
_raw$ = -4						; size = 4
_en$ = 8						; size = 4
_type$ = 12						; size = 4
?get_local_float_value@@YGMPAUENTITY@@W4FLOAT_TYPES@@@Z PROC ; get_local_float_value, COMDAT

; 176  : {

  00000	55		 push	 ebp
  00001	8b ec		 mov	 ebp, esp
  00003	83 ec 4c	 sub	 esp, 76			; 0000004cH
  00006	53		 push	 ebx
  00007	56		 push	 esi
  00008	57		 push	 edi

; 177  : 	bridge
; 178  : 		*raw;
; 179  : 
; 180  : 	float
; 181  : 		value;
; 182  : 
; 183  : 	raw = (bridge *) get_local_entity_data (en);

  00009	8b 45 08	 mov	 eax, DWORD PTR _en$[ebp]
  0000c	8b 48 04	 mov	 ecx, DWORD PTR [eax+4]
  0000f	89 4d fc	 mov	 DWORD PTR _raw$[ebp], ecx

; 184  : 
; 185  : 	switch (type)

  00012	8b 45 0c	 mov	 eax, DWORD PTR _type$[ebp]
  00015	89 45 b4	 mov	 DWORD PTR tv65[ebp], eax
  00018	83 7d b4 54	 cmp	 DWORD PTR tv65[ebp], 84	; 00000054H
  0001c	74 0e		 je	 SHORT $LN4@get_local_
  0001e	83 7d b4 6e	 cmp	 DWORD PTR tv65[ebp], 110 ; 0000006eH
  00022	74 1a		 je	 SHORT $LN5@get_local_
  00024	83 7d b4 73	 cmp	 DWORD PTR tv65[ebp], 115 ; 00000073H
  00028	74 26		 je	 SHORT $LN6@get_local_
  0002a	eb 33		 jmp	 SHORT $LN7@get_local_
$LN4@get_local_:

; 186  : 	{
; 187  : 		////////////////////////////////////////
; 188  : 		case FLOAT_TYPE_PITCH:
; 189  : 		////////////////////////////////////////
; 190  : 		{
; 191  : 			value = raw->pitch;

  0002c	8b 45 fc	 mov	 eax, DWORD PTR _raw$[ebp]
  0002f	f3 0f 10 40 10	 movss	 xmm0, DWORD PTR [eax+16]
  00034	f3 0f 11 45 f8	 movss	 DWORD PTR _value$[ebp], xmm0

; 192  : 
; 193  : 			break;

  00039	e9 93 00 00 00	 jmp	 $LN2@get_local_
$LN5@get_local_:

; 194  : 		}
; 195  : 		////////////////////////////////////////
; 196  : 		case FLOAT_TYPE_RECON_DISTANCE:
; 197  : 		////////////////////////////////////////
; 198  : 		{
; 199  : 			value = 800.0;

  0003e	f3 0f 10 05 00
	00 00 00	 movss	 xmm0, DWORD PTR __real@44480000
  00046	f3 0f 11 45 f8	 movss	 DWORD PTR _value$[ebp], xmm0

; 200  : 
; 201  : 			break;

  0004b	e9 81 00 00 00	 jmp	 $LN2@get_local_
$LN6@get_local_:

; 202  : 		}
; 203  : 		////////////////////////////////////////
; 204  : 		case FLOAT_TYPE_SCALE:
; 205  : 		////////////////////////////////////////
; 206  : 		{
; 207  : 			value = raw->scale;

  00050	8b 45 fc	 mov	 eax, DWORD PTR _raw$[ebp]
  00053	f3 0f 10 40 14	 movss	 xmm0, DWORD PTR [eax+20]
  00058	f3 0f 11 45 f8	 movss	 DWORD PTR _value$[ebp], xmm0

; 208  : 
; 209  : 			break;

  0005d	eb 72		 jmp	 SHORT $LN2@get_local_
$LN7@get_local_:

; 210  : 		}
; 211  : 		////////////////////////////////////////
; 212  : 		default:
; 213  : 		////////////////////////////////////////
; 214  : 		{
; 215  : 			debug_fatal_invalid_float_type (en, type);

  0005f	83 7d 08 00	 cmp	 DWORD PTR _en$[ebp], 0
  00063	74 0a		 je	 SHORT $LN9@get_local_
  00065	8b 45 08	 mov	 eax, DWORD PTR _en$[ebp]
  00068	8b 08		 mov	 ecx, DWORD PTR [eax]
  0006a	89 4d b4	 mov	 DWORD PTR tv84[ebp], ecx
  0006d	eb 21		 jmp	 SHORT $LN10@get_local_
$LN9@get_local_:
  0006f	8b 15 00 00 00
	00		 mov	 edx, DWORD PTR ?__LINE__Var@?0??get_local_float_value@@YGMPAUENTITY@@W4FLOAT_TYPES@@@Z@4JA
  00075	83 c2 27	 add	 edx, 39			; 00000027H
  00078	52		 push	 edx
  00079	68 00 00 00 00	 push	 OFFSET ??_C@_0EN@JNKBEJGI@c?3?2users?2nhv90?2projects?2eech?2ap@
  0007e	a1 00 00 00 00	 mov	 eax, DWORD PTR ?null_entity_pointer_message@@3PBDB ; null_entity_pointer_message
  00083	50		 push	 eax
  00084	e8 00 00 00 00	 call	 ?process_assert@@YGXPBD0H@Z ; process_assert
  00089	c7 45 b4 00 00
	00 00		 mov	 DWORD PTR tv84[ebp], 0
$LN10@get_local_:
  00090	8b 0d 00 00 00
	00		 mov	 ecx, DWORD PTR ?__LINE__Var@?0??get_local_float_value@@YGMPAUENTITY@@W4FLOAT_TYPES@@@Z@4JA
  00096	83 c1 27	 add	 ecx, 39			; 00000027H
  00099	51		 push	 ecx
  0009a	68 00 00 00 00	 push	 OFFSET ??_C@_0EN@JNKBEJGI@c?3?2users?2nhv90?2projects?2eech?2ap@
  0009f	6b 55 0c 18	 imul	 edx, DWORD PTR _type$[ebp], 24
  000a3	8b 82 00 00 00
	00		 mov	 eax, DWORD PTR ?float_type_database@@3PAUFLOAT_TYPE_DATA@@A[edx]
  000a9	50		 push	 eax
  000aa	8b 4d 08	 mov	 ecx, DWORD PTR _en$[ebp]
  000ad	2b 0d 00 00 00
	00		 sub	 ecx, DWORD PTR ?entities@@3PAUENTITY@@A ; entities
  000b3	c1 f9 04	 sar	 ecx, 4
  000b6	51		 push	 ecx
  000b7	6b 55 b4 0c	 imul	 edx, DWORD PTR tv84[ebp], 12
  000bb	8b 82 00 00 00
	00		 mov	 eax, DWORD PTR ?entity_type_database@@3PAUENTITY_TYPE_DATA@@A[edx]
  000c1	50		 push	 eax
  000c2	8b 0d 00 00 00
	00		 mov	 ecx, DWORD PTR ?debug_fatal_invalid_float_type_message@@3PBDB ; debug_fatal_invalid_float_type_message
  000c8	51		 push	 ecx
  000c9	e8 00 00 00 00	 call	 ?debug_fatal@@YAXPBDZZ	; debug_fatal
  000ce	83 c4 18	 add	 esp, 24			; 00000018H
$LN2@get_local_:

; 216  : 
; 217  : 			break;
; 218  : 		}
; 219  : 	}
; 220  : 
; 221  : 	return (value);

  000d1	d9 45 f8	 fld	 DWORD PTR _value$[ebp]

; 222  : }

  000d4	5f		 pop	 edi
  000d5	5e		 pop	 esi
  000d6	5b		 pop	 ebx
  000d7	8b e5		 mov	 esp, ebp
  000d9	5d		 pop	 ebp
  000da	c2 08 00	 ret	 8
?get_local_float_value@@YGMPAUENTITY@@W4FLOAT_TYPES@@@Z ENDP ; get_local_float_value
_TEXT	ENDS
; Function compile flags: /Odtp /ZI
; File c:\users\nhv90\projects\eech\aphavoc\source\entity\special\bridge\br_float.c
;	COMDAT ?set_client_float_value@@YGXPAUENTITY@@W4FLOAT_TYPES@@M@Z
_TEXT	SEGMENT
_en$ = 8						; size = 4
_type$ = 12						; size = 4
_value$ = 16						; size = 4
?set_client_float_value@@YGXPAUENTITY@@W4FLOAT_TYPES@@M@Z PROC ; set_client_float_value, COMDAT

; 156  : {

  00000	55		 push	 ebp
  00001	8b ec		 mov	 ebp, esp
  00003	83 ec 40	 sub	 esp, 64			; 00000040H
  00006	53		 push	 ebx
  00007	56		 push	 esi
  00008	57		 push	 edi

; 157  : 	if (get_comms_data_flow () == COMMS_DATA_FLOW_TX)

  00009	83 3d 00 00 00
	00 00		 cmp	 DWORD PTR ?system_comms_data_flow@@3W4COMMS_DATA_FLOW_TYPES@@A, 0 ; system_comms_data_flow
  00010	75 3b		 jne	 SHORT $LN2@set_client

; 158  : 	{
; 159  : 		validate_client_server_remote_fn ();

  00012	e8 00 00 00 00	 call	 ?assert_client_server_remote_fn@@YGHXZ ; assert_client_server_remote_fn
  00017	85 c0		 test	 eax, eax
  00019	75 18		 jne	 SHORT $LN4@set_client
  0001b	a1 00 00 00 00	 mov	 eax, DWORD PTR ?__LINE__Var@?0??set_client_float_value@@YGXPAUENTITY@@W4FLOAT_TYPES@@M@Z@4JA
  00020	83 c0 03	 add	 eax, 3
  00023	50		 push	 eax
  00024	68 00 00 00 00	 push	 OFFSET ??_C@_0EN@JNKBEJGI@c?3?2users?2nhv90?2projects?2eech?2ap@
  00029	68 00 00 00 00	 push	 OFFSET ??_C@_0CC@BNNNEGEG@assert_client_server_remote_fn?5@
  0002e	e8 00 00 00 00	 call	 ?process_assert@@YGXPBD0H@Z ; process_assert
$LN4@set_client:

; 160  : 
; 161  : 		set_remote_float_value (en, type, value);

  00033	51		 push	 ecx
  00034	f3 0f 10 45 10	 movss	 xmm0, DWORD PTR _value$[ebp]
  00039	f3 0f 11 04 24	 movss	 DWORD PTR [esp], xmm0
  0003e	8b 45 0c	 mov	 eax, DWORD PTR _type$[ebp]
  00041	50		 push	 eax
  00042	8b 4d 08	 mov	 ecx, DWORD PTR _en$[ebp]
  00045	51		 push	 ecx
  00046	e8 00 00 00 00	 call	 ?set_remote_float_value@@YGXPAUENTITY@@W4FLOAT_TYPES@@M@Z ; set_remote_float_value

; 162  : 	}
; 163  : 	else

  0004b	eb 39		 jmp	 SHORT $LN3@set_client
$LN2@set_client:

; 164  : 	{
; 165  : 		validate_client_server_local_fn ();

  0004d	e8 00 00 00 00	 call	 ?assert_client_server_local_fn@@YGHXZ ; assert_client_server_local_fn
  00052	85 c0		 test	 eax, eax
  00054	75 18		 jne	 SHORT $LN5@set_client
  00056	a1 00 00 00 00	 mov	 eax, DWORD PTR ?__LINE__Var@?0??set_client_float_value@@YGXPAUENTITY@@W4FLOAT_TYPES@@M@Z@4JA
  0005b	83 c0 09	 add	 eax, 9
  0005e	50		 push	 eax
  0005f	68 00 00 00 00	 push	 OFFSET ??_C@_0EN@JNKBEJGI@c?3?2users?2nhv90?2projects?2eech?2ap@
  00064	68 00 00 00 00	 push	 OFFSET ??_C@_0CB@CFOCLFOK@assert_client_server_local_fn?5?$CI@
  00069	e8 00 00 00 00	 call	 ?process_assert@@YGXPBD0H@Z ; process_assert
$LN5@set_client:

; 166  : 
; 167  : 		set_local_float_value (en, type, value);

  0006e	51		 push	 ecx
  0006f	f3 0f 10 45 10	 movss	 xmm0, DWORD PTR _value$[ebp]
  00074	f3 0f 11 04 24	 movss	 DWORD PTR [esp], xmm0
  00079	8b 45 0c	 mov	 eax, DWORD PTR _type$[ebp]
  0007c	50		 push	 eax
  0007d	8b 4d 08	 mov	 ecx, DWORD PTR _en$[ebp]
  00080	51		 push	 ecx
  00081	e8 00 00 00 00	 call	 ?set_local_float_value@@YGXPAUENTITY@@W4FLOAT_TYPES@@M@Z ; set_local_float_value
$LN3@set_client:

; 168  : 	}
; 169  : }

  00086	5f		 pop	 edi
  00087	5e		 pop	 esi
  00088	5b		 pop	 ebx
  00089	8b e5		 mov	 esp, ebp
  0008b	5d		 pop	 ebp
  0008c	c2 0c 00	 ret	 12			; 0000000cH
?set_client_float_value@@YGXPAUENTITY@@W4FLOAT_TYPES@@M@Z ENDP ; set_client_float_value
_TEXT	ENDS
; Function compile flags: /Odtp /ZI
; File c:\users\nhv90\projects\eech\aphavoc\source\entity\special\bridge\br_float.c
;	COMDAT ?set_server_float_value@@YGXPAUENTITY@@W4FLOAT_TYPES@@M@Z
_TEXT	SEGMENT
_en$ = 8						; size = 4
_type$ = 12						; size = 4
_value$ = 16						; size = 4
?set_server_float_value@@YGXPAUENTITY@@W4FLOAT_TYPES@@M@Z PROC ; set_server_float_value, COMDAT

; 141  : {

  00000	55		 push	 ebp
  00001	8b ec		 mov	 ebp, esp
  00003	83 ec 40	 sub	 esp, 64			; 00000040H
  00006	53		 push	 ebx
  00007	56		 push	 esi
  00008	57		 push	 edi

; 142  : 	validate_client_server_local_fn ();

  00009	e8 00 00 00 00	 call	 ?assert_client_server_local_fn@@YGHXZ ; assert_client_server_local_fn
  0000e	85 c0		 test	 eax, eax
  00010	75 18		 jne	 SHORT $LN2@set_server
  00012	a1 00 00 00 00	 mov	 eax, DWORD PTR ?__LINE__Var@?0??set_server_float_value@@YGXPAUENTITY@@W4FLOAT_TYPES@@M@Z@4JA
  00017	83 c0 01	 add	 eax, 1
  0001a	50		 push	 eax
  0001b	68 00 00 00 00	 push	 OFFSET ??_C@_0EN@JNKBEJGI@c?3?2users?2nhv90?2projects?2eech?2ap@
  00020	68 00 00 00 00	 push	 OFFSET ??_C@_0CB@CFOCLFOK@assert_client_server_local_fn?5?$CI@
  00025	e8 00 00 00 00	 call	 ?process_assert@@YGXPBD0H@Z ; process_assert
$LN2@set_server:

; 143  : 
; 144  : 	set_local_float_value (en, type, value);

  0002a	51		 push	 ecx
  0002b	f3 0f 10 45 10	 movss	 xmm0, DWORD PTR _value$[ebp]
  00030	f3 0f 11 04 24	 movss	 DWORD PTR [esp], xmm0
  00035	8b 45 0c	 mov	 eax, DWORD PTR _type$[ebp]
  00038	50		 push	 eax
  00039	8b 4d 08	 mov	 ecx, DWORD PTR _en$[ebp]
  0003c	51		 push	 ecx
  0003d	e8 00 00 00 00	 call	 ?set_local_float_value@@YGXPAUENTITY@@W4FLOAT_TYPES@@M@Z ; set_local_float_value

; 145  : 
; 146  : 	validate_client_server_remote_fn ();

  00042	e8 00 00 00 00	 call	 ?assert_client_server_remote_fn@@YGHXZ ; assert_client_server_remote_fn
  00047	85 c0		 test	 eax, eax
  00049	75 18		 jne	 SHORT $LN3@set_server
  0004b	a1 00 00 00 00	 mov	 eax, DWORD PTR ?__LINE__Var@?0??set_server_float_value@@YGXPAUENTITY@@W4FLOAT_TYPES@@M@Z@4JA
  00050	83 c0 05	 add	 eax, 5
  00053	50		 push	 eax
  00054	68 00 00 00 00	 push	 OFFSET ??_C@_0EN@JNKBEJGI@c?3?2users?2nhv90?2projects?2eech?2ap@
  00059	68 00 00 00 00	 push	 OFFSET ??_C@_0CC@BNNNEGEG@assert_client_server_remote_fn?5@
  0005e	e8 00 00 00 00	 call	 ?process_assert@@YGXPBD0H@Z ; process_assert
$LN3@set_server:

; 147  : 
; 148  : 	set_remote_float_value (en, type, value);

  00063	51		 push	 ecx
  00064	f3 0f 10 45 10	 movss	 xmm0, DWORD PTR _value$[ebp]
  00069	f3 0f 11 04 24	 movss	 DWORD PTR [esp], xmm0
  0006e	8b 45 0c	 mov	 eax, DWORD PTR _type$[ebp]
  00071	50		 push	 eax
  00072	8b 4d 08	 mov	 ecx, DWORD PTR _en$[ebp]
  00075	51		 push	 ecx
  00076	e8 00 00 00 00	 call	 ?set_remote_float_value@@YGXPAUENTITY@@W4FLOAT_TYPES@@M@Z ; set_remote_float_value

; 149  : }

  0007b	5f		 pop	 edi
  0007c	5e		 pop	 esi
  0007d	5b		 pop	 ebx
  0007e	8b e5		 mov	 esp, ebp
  00080	5d		 pop	 ebp
  00081	c2 0c 00	 ret	 12			; 0000000cH
?set_server_float_value@@YGXPAUENTITY@@W4FLOAT_TYPES@@M@Z ENDP ; set_server_float_value
_TEXT	ENDS
; Function compile flags: /Odtp /ZI
; File c:\users\nhv90\projects\eech\aphavoc\source\entity\special\bridge\br_float.c
;	COMDAT ?set_remote_float_value@@YGXPAUENTITY@@W4FLOAT_TYPES@@M@Z
_TEXT	SEGMENT
_en$ = 8						; size = 4
_type$ = 12						; size = 4
_value$ = 16						; size = 4
?set_remote_float_value@@YGXPAUENTITY@@W4FLOAT_TYPES@@M@Z PROC ; set_remote_float_value, COMDAT

; 126  : {

  00000	55		 push	 ebp
  00001	8b ec		 mov	 ebp, esp
  00003	83 ec 40	 sub	 esp, 64			; 00000040H
  00006	53		 push	 ebx
  00007	56		 push	 esi
  00008	57		 push	 edi

; 127  : 	#if DEBUG_MODULE
; 128  : 
; 129  : 	debug_log_entity_args (ENTITY_DEBUG_REMOTE, ENTITY_DEBUG_FLOAT_VALUE, en, type, value);
; 130  : 
; 131  : 	#endif
; 132  : 
; 133  : 	transmit_entity_comms_message (ENTITY_COMMS_FLOAT_VALUE, en, type, value);

  00009	f3 0f 5a 45 10	 cvtss2sd xmm0, DWORD PTR _value$[ebp]
  0000e	83 ec 08	 sub	 esp, 8
  00011	f2 0f 11 04 24	 movsd	 QWORD PTR [esp], xmm0
  00016	8b 45 0c	 mov	 eax, DWORD PTR _type$[ebp]
  00019	50		 push	 eax
  0001a	8b 4d 08	 mov	 ecx, DWORD PTR _en$[ebp]
  0001d	51		 push	 ecx
  0001e	6a 16		 push	 22			; 00000016H
  00020	e8 00 00 00 00	 call	 ?transmit_entity_comms_message@@YAXW4ENTITY_COMMS_MESSAGES@@PAUENTITY@@ZZ ; transmit_entity_comms_message
  00025	83 c4 14	 add	 esp, 20			; 00000014H

; 134  : }

  00028	5f		 pop	 edi
  00029	5e		 pop	 esi
  0002a	5b		 pop	 ebx
  0002b	8b e5		 mov	 esp, ebp
  0002d	5d		 pop	 ebp
  0002e	c2 0c 00	 ret	 12			; 0000000cH
?set_remote_float_value@@YGXPAUENTITY@@W4FLOAT_TYPES@@M@Z ENDP ; set_remote_float_value
_TEXT	ENDS
; Function compile flags: /Odtp /ZI
; File c:\users\nhv90\projects\eech\aphavoc\source\entity\special\bridge\br_float.c
;	COMDAT ?set_local_float_value@@YGXPAUENTITY@@W4FLOAT_TYPES@@M@Z
_TEXT	SEGMENT
tv84 = -72						; size = 4
tv65 = -72						; size = 4
_raw$ = -4						; size = 4
_en$ = 8						; size = 4
_type$ = 12						; size = 4
_value$ = 16						; size = 4
?set_local_float_value@@YGXPAUENTITY@@W4FLOAT_TYPES@@M@Z PROC ; set_local_float_value, COMDAT

; 80   : {

  00000	55		 push	 ebp
  00001	8b ec		 mov	 ebp, esp
  00003	83 ec 48	 sub	 esp, 72			; 00000048H
  00006	53		 push	 ebx
  00007	56		 push	 esi
  00008	57		 push	 edi

; 81   : 	bridge
; 82   : 		*raw;
; 83   : 
; 84   : 	#if DEBUG_MODULE
; 85   : 
; 86   : 	debug_log_entity_args (ENTITY_DEBUG_LOCAL, ENTITY_DEBUG_FLOAT_VALUE, en, type, value);
; 87   : 
; 88   : 	#endif
; 89   : 
; 90   : 	raw = (bridge *) get_local_entity_data (en);

  00009	8b 45 08	 mov	 eax, DWORD PTR _en$[ebp]
  0000c	8b 48 04	 mov	 ecx, DWORD PTR [eax+4]
  0000f	89 4d fc	 mov	 DWORD PTR _raw$[ebp], ecx

; 91   : 
; 92   : 	switch (type)

  00012	8b 45 0c	 mov	 eax, DWORD PTR _type$[ebp]
  00015	89 45 b8	 mov	 DWORD PTR tv65[ebp], eax
  00018	83 7d b8 54	 cmp	 DWORD PTR tv65[ebp], 84	; 00000054H
  0001c	74 08		 je	 SHORT $LN4@set_local_
  0001e	83 7d b8 73	 cmp	 DWORD PTR tv65[ebp], 115 ; 00000073H
  00022	74 14		 je	 SHORT $LN5@set_local_
  00024	eb 21		 jmp	 SHORT $LN6@set_local_
$LN4@set_local_:

; 93   : 	{
; 94   : 		////////////////////////////////////////
; 95   : 		case FLOAT_TYPE_PITCH:
; 96   : 		////////////////////////////////////////
; 97   : 		{
; 98   : 			raw->pitch = value;

  00026	8b 45 fc	 mov	 eax, DWORD PTR _raw$[ebp]
  00029	f3 0f 10 45 10	 movss	 xmm0, DWORD PTR _value$[ebp]
  0002e	f3 0f 11 40 10	 movss	 DWORD PTR [eax+16], xmm0

; 99   : 
; 100  : 			break;

  00033	e9 81 00 00 00	 jmp	 $LN2@set_local_
$LN5@set_local_:

; 101  : 		}
; 102  : 		////////////////////////////////////////
; 103  : 		case FLOAT_TYPE_SCALE:
; 104  : 		////////////////////////////////////////
; 105  : 		{
; 106  : 			raw->scale = value;

  00038	8b 45 fc	 mov	 eax, DWORD PTR _raw$[ebp]
  0003b	f3 0f 10 45 10	 movss	 xmm0, DWORD PTR _value$[ebp]
  00040	f3 0f 11 40 14	 movss	 DWORD PTR [eax+20], xmm0

; 107  : 
; 108  : 			break;

  00045	eb 72		 jmp	 SHORT $LN2@set_local_
$LN6@set_local_:

; 109  : 		}
; 110  : 		////////////////////////////////////////
; 111  : 		default:
; 112  : 		////////////////////////////////////////
; 113  : 		{
; 114  : 			debug_fatal_invalid_float_type (en, type);

  00047	83 7d 08 00	 cmp	 DWORD PTR _en$[ebp], 0
  0004b	74 0a		 je	 SHORT $LN8@set_local_
  0004d	8b 45 08	 mov	 eax, DWORD PTR _en$[ebp]
  00050	8b 08		 mov	 ecx, DWORD PTR [eax]
  00052	89 4d b8	 mov	 DWORD PTR tv84[ebp], ecx
  00055	eb 21		 jmp	 SHORT $LN9@set_local_
$LN8@set_local_:
  00057	8b 15 00 00 00
	00		 mov	 edx, DWORD PTR ?__LINE__Var@?0??set_local_float_value@@YGXPAUENTITY@@W4FLOAT_TYPES@@M@Z@4JA
  0005d	83 c2 22	 add	 edx, 34			; 00000022H
  00060	52		 push	 edx
  00061	68 00 00 00 00	 push	 OFFSET ??_C@_0EN@JNKBEJGI@c?3?2users?2nhv90?2projects?2eech?2ap@
  00066	a1 00 00 00 00	 mov	 eax, DWORD PTR ?null_entity_pointer_message@@3PBDB ; null_entity_pointer_message
  0006b	50		 push	 eax
  0006c	e8 00 00 00 00	 call	 ?process_assert@@YGXPBD0H@Z ; process_assert
  00071	c7 45 b8 00 00
	00 00		 mov	 DWORD PTR tv84[ebp], 0
$LN9@set_local_:
  00078	8b 0d 00 00 00
	00		 mov	 ecx, DWORD PTR ?__LINE__Var@?0??set_local_float_value@@YGXPAUENTITY@@W4FLOAT_TYPES@@M@Z@4JA
  0007e	83 c1 22	 add	 ecx, 34			; 00000022H
  00081	51		 push	 ecx
  00082	68 00 00 00 00	 push	 OFFSET ??_C@_0EN@JNKBEJGI@c?3?2users?2nhv90?2projects?2eech?2ap@
  00087	6b 55 0c 18	 imul	 edx, DWORD PTR _type$[ebp], 24
  0008b	8b 82 00 00 00
	00		 mov	 eax, DWORD PTR ?float_type_database@@3PAUFLOAT_TYPE_DATA@@A[edx]
  00091	50		 push	 eax
  00092	8b 4d 08	 mov	 ecx, DWORD PTR _en$[ebp]
  00095	2b 0d 00 00 00
	00		 sub	 ecx, DWORD PTR ?entities@@3PAUENTITY@@A ; entities
  0009b	c1 f9 04	 sar	 ecx, 4
  0009e	51		 push	 ecx
  0009f	6b 55 b8 0c	 imul	 edx, DWORD PTR tv84[ebp], 12
  000a3	8b 82 00 00 00
	00		 mov	 eax, DWORD PTR ?entity_type_database@@3PAUENTITY_TYPE_DATA@@A[edx]
  000a9	50		 push	 eax
  000aa	8b 0d 00 00 00
	00		 mov	 ecx, DWORD PTR ?debug_fatal_invalid_float_type_message@@3PBDB ; debug_fatal_invalid_float_type_message
  000b0	51		 push	 ecx
  000b1	e8 00 00 00 00	 call	 ?debug_fatal@@YAXPBDZZ	; debug_fatal
  000b6	83 c4 18	 add	 esp, 24			; 00000018H
$LN2@set_local_:

; 115  : 
; 116  : 			break;
; 117  : 		}
; 118  : 	}
; 119  : }

  000b9	5f		 pop	 edi
  000ba	5e		 pop	 esi
  000bb	5b		 pop	 ebx
  000bc	8b e5		 mov	 esp, ebp
  000be	5d		 pop	 ebp
  000bf	c2 0c 00	 ret	 12			; 0000000cH
?set_local_float_value@@YGXPAUENTITY@@W4FLOAT_TYPES@@M@Z ENDP ; set_local_float_value
_TEXT	ENDS
; Function compile flags: /Odtp /ZI
; File c:\users\nhv90\projects\eech\aphavoc\source\entity\special\bridge\br_float.c
;	COMDAT ?overload_bridge_float_value_functions@@YGXXZ
_TEXT	SEGMENT
?overload_bridge_float_value_functions@@YGXXZ PROC	; overload_bridge_float_value_functions, COMDAT

; 229  : {

  00000	55		 push	 ebp
  00001	8b ec		 mov	 ebp, esp
  00003	83 ec 40	 sub	 esp, 64			; 00000040H
  00006	53		 push	 ebx
  00007	56		 push	 esi
  00008	57		 push	 edi

; 230  : 	fn_set_local_entity_raw_float_value			[ENTITY_TYPE_BRIDGE][FLOAT_TYPE_PITCH]									= set_local_float_value;

  00009	b8 bc 02 00 00	 mov	 eax, 700		; 000002bcH
  0000e	d1 e0		 shl	 eax, 1
  00010	b9 04 00 00 00	 mov	 ecx, 4
  00015	6b d1 54	 imul	 edx, ecx, 84
  00018	c7 84 10 00 00
	00 00 00 00 00
	00		 mov	 DWORD PTR ?fn_set_local_entity_raw_float_value@@3PAY0KP@P6GXPAUENTITY@@W4FLOAT_TYPES@@M@ZA[eax+edx], OFFSET ?set_local_float_value@@YGXPAUENTITY@@W4FLOAT_TYPES@@M@Z ; set_local_float_value

; 231  : 	fn_set_local_entity_float_value				[ENTITY_TYPE_BRIDGE][FLOAT_TYPE_PITCH]									= set_local_float_value;

  00023	b8 bc 02 00 00	 mov	 eax, 700		; 000002bcH
  00028	d1 e0		 shl	 eax, 1
  0002a	b9 04 00 00 00	 mov	 ecx, 4
  0002f	6b d1 54	 imul	 edx, ecx, 84
  00032	c7 84 10 00 00
	00 00 00 00 00
	00		 mov	 DWORD PTR ?fn_set_local_entity_float_value@@3PAY0KP@P6GXPAUENTITY@@W4FLOAT_TYPES@@M@ZA[eax+edx], OFFSET ?set_local_float_value@@YGXPAUENTITY@@W4FLOAT_TYPES@@M@Z ; set_local_float_value

; 232  : 	fn_set_client_server_entity_float_value	[ENTITY_TYPE_BRIDGE][FLOAT_TYPE_PITCH][COMMS_MODEL_SERVER]		= set_server_float_value;

  0003d	b8 78 05 00 00	 mov	 eax, 1400		; 00000578H
  00042	d1 e0		 shl	 eax, 1
  00044	b9 08 00 00 00	 mov	 ecx, 8
  00049	6b d1 54	 imul	 edx, ecx, 84
  0004c	8d 84 10 00 00
	00 00		 lea	 eax, DWORD PTR ?fn_set_client_server_entity_float_value@@3PAY1KP@1P6GXPAUENTITY@@W4FLOAT_TYPES@@M@ZA[eax+edx]
  00053	b9 04 00 00 00	 mov	 ecx, 4
  00058	6b d1 00	 imul	 edx, ecx, 0
  0005b	c7 04 10 00 00
	00 00		 mov	 DWORD PTR [eax+edx], OFFSET ?set_server_float_value@@YGXPAUENTITY@@W4FLOAT_TYPES@@M@Z ; set_server_float_value

; 233  : 	fn_set_client_server_entity_float_value	[ENTITY_TYPE_BRIDGE][FLOAT_TYPE_PITCH][COMMS_MODEL_CLIENT]		= set_client_float_value;

  00062	b8 78 05 00 00	 mov	 eax, 1400		; 00000578H
  00067	d1 e0		 shl	 eax, 1
  00069	b9 08 00 00 00	 mov	 ecx, 8
  0006e	6b d1 54	 imul	 edx, ecx, 84
  00071	8d 84 10 00 00
	00 00		 lea	 eax, DWORD PTR ?fn_set_client_server_entity_float_value@@3PAY1KP@1P6GXPAUENTITY@@W4FLOAT_TYPES@@M@ZA[eax+edx]
  00078	b9 04 00 00 00	 mov	 ecx, 4
  0007d	c1 e1 00	 shl	 ecx, 0
  00080	c7 04 08 00 00
	00 00		 mov	 DWORD PTR [eax+ecx], OFFSET ?set_client_float_value@@YGXPAUENTITY@@W4FLOAT_TYPES@@M@Z ; set_client_float_value

; 234  : 	fn_get_local_entity_float_value				[ENTITY_TYPE_BRIDGE][FLOAT_TYPE_PITCH]									= get_local_float_value;

  00087	b8 bc 02 00 00	 mov	 eax, 700		; 000002bcH
  0008c	d1 e0		 shl	 eax, 1
  0008e	b9 04 00 00 00	 mov	 ecx, 4
  00093	6b d1 54	 imul	 edx, ecx, 84
  00096	c7 84 10 00 00
	00 00 00 00 00
	00		 mov	 DWORD PTR ?fn_get_local_entity_float_value@@3PAY0KP@P6GMPAUENTITY@@W4FLOAT_TYPES@@@ZA[eax+edx], OFFSET ?get_local_float_value@@YGMPAUENTITY@@W4FLOAT_TYPES@@@Z ; get_local_float_value

; 235  : 
; 236  : 	fn_set_local_entity_raw_float_value			[ENTITY_TYPE_BRIDGE][FLOAT_TYPE_RECON_DISTANCE]						= set_local_float_value;

  000a1	b8 bc 02 00 00	 mov	 eax, 700		; 000002bcH
  000a6	d1 e0		 shl	 eax, 1
  000a8	b9 04 00 00 00	 mov	 ecx, 4
  000ad	6b d1 6e	 imul	 edx, ecx, 110
  000b0	c7 84 10 00 00
	00 00 00 00 00
	00		 mov	 DWORD PTR ?fn_set_local_entity_raw_float_value@@3PAY0KP@P6GXPAUENTITY@@W4FLOAT_TYPES@@M@ZA[eax+edx], OFFSET ?set_local_float_value@@YGXPAUENTITY@@W4FLOAT_TYPES@@M@Z ; set_local_float_value

; 237  : 
; 238  : 	fn_set_local_entity_raw_float_value			[ENTITY_TYPE_BRIDGE][FLOAT_TYPE_SCALE]									= set_local_float_value;

  000bb	b8 bc 02 00 00	 mov	 eax, 700		; 000002bcH
  000c0	d1 e0		 shl	 eax, 1
  000c2	b9 04 00 00 00	 mov	 ecx, 4
  000c7	6b d1 73	 imul	 edx, ecx, 115
  000ca	c7 84 10 00 00
	00 00 00 00 00
	00		 mov	 DWORD PTR ?fn_set_local_entity_raw_float_value@@3PAY0KP@P6GXPAUENTITY@@W4FLOAT_TYPES@@M@ZA[eax+edx], OFFSET ?set_local_float_value@@YGXPAUENTITY@@W4FLOAT_TYPES@@M@Z ; set_local_float_value

; 239  : 	fn_set_local_entity_float_value				[ENTITY_TYPE_BRIDGE][FLOAT_TYPE_SCALE]									= set_local_float_value;

  000d5	b8 bc 02 00 00	 mov	 eax, 700		; 000002bcH
  000da	d1 e0		 shl	 eax, 1
  000dc	b9 04 00 00 00	 mov	 ecx, 4
  000e1	6b d1 73	 imul	 edx, ecx, 115
  000e4	c7 84 10 00 00
	00 00 00 00 00
	00		 mov	 DWORD PTR ?fn_set_local_entity_float_value@@3PAY0KP@P6GXPAUENTITY@@W4FLOAT_TYPES@@M@ZA[eax+edx], OFFSET ?set_local_float_value@@YGXPAUENTITY@@W4FLOAT_TYPES@@M@Z ; set_local_float_value

; 240  : 	fn_set_client_server_entity_float_value	[ENTITY_TYPE_BRIDGE][FLOAT_TYPE_SCALE][COMMS_MODEL_SERVER]		= set_server_float_value;

  000ef	b8 78 05 00 00	 mov	 eax, 1400		; 00000578H
  000f4	d1 e0		 shl	 eax, 1
  000f6	b9 08 00 00 00	 mov	 ecx, 8
  000fb	6b d1 73	 imul	 edx, ecx, 115
  000fe	8d 84 10 00 00
	00 00		 lea	 eax, DWORD PTR ?fn_set_client_server_entity_float_value@@3PAY1KP@1P6GXPAUENTITY@@W4FLOAT_TYPES@@M@ZA[eax+edx]
  00105	b9 04 00 00 00	 mov	 ecx, 4
  0010a	6b d1 00	 imul	 edx, ecx, 0
  0010d	c7 04 10 00 00
	00 00		 mov	 DWORD PTR [eax+edx], OFFSET ?set_server_float_value@@YGXPAUENTITY@@W4FLOAT_TYPES@@M@Z ; set_server_float_value

; 241  : 	fn_set_client_server_entity_float_value	[ENTITY_TYPE_BRIDGE][FLOAT_TYPE_SCALE][COMMS_MODEL_CLIENT]		= set_client_float_value;

  00114	b8 78 05 00 00	 mov	 eax, 1400		; 00000578H
  00119	d1 e0		 shl	 eax, 1
  0011b	b9 08 00 00 00	 mov	 ecx, 8
  00120	6b d1 73	 imul	 edx, ecx, 115
  00123	8d 84 10 00 00
	00 00		 lea	 eax, DWORD PTR ?fn_set_client_server_entity_float_value@@3PAY1KP@1P6GXPAUENTITY@@W4FLOAT_TYPES@@M@ZA[eax+edx]
  0012a	b9 04 00 00 00	 mov	 ecx, 4
  0012f	c1 e1 00	 shl	 ecx, 0
  00132	c7 04 08 00 00
	00 00		 mov	 DWORD PTR [eax+ecx], OFFSET ?set_client_float_value@@YGXPAUENTITY@@W4FLOAT_TYPES@@M@Z ; set_client_float_value

; 242  : 	fn_get_local_entity_float_value				[ENTITY_TYPE_BRIDGE][FLOAT_TYPE_SCALE]									= get_local_float_value;

  00139	b8 bc 02 00 00	 mov	 eax, 700		; 000002bcH
  0013e	d1 e0		 shl	 eax, 1
  00140	b9 04 00 00 00	 mov	 ecx, 4
  00145	6b d1 73	 imul	 edx, ecx, 115
  00148	c7 84 10 00 00
	00 00 00 00 00
	00		 mov	 DWORD PTR ?fn_get_local_entity_float_value@@3PAY0KP@P6GMPAUENTITY@@W4FLOAT_TYPES@@@ZA[eax+edx], OFFSET ?get_local_float_value@@YGMPAUENTITY@@W4FLOAT_TYPES@@@Z ; get_local_float_value

; 243  : }

  00153	5f		 pop	 edi
  00154	5e		 pop	 esi
  00155	5b		 pop	 ebx
  00156	8b e5		 mov	 esp, ebp
  00158	5d		 pop	 ebp
  00159	c3		 ret	 0
?overload_bridge_float_value_functions@@YGXXZ ENDP	; overload_bridge_float_value_functions
_TEXT	ENDS
END
