; Listing generated by Microsoft (R) Optimizing Compiler Version 19.16.27045.0 

	TITLE	C:\Users\nhv90\Projects\eech\aphavoc\source\entity\special\bridge\br_int.c
	.686P
	.XMM
	include listing.inc
	.model	flat

INCLUDELIB MSVCRTD
INCLUDELIB OLDNAMES

PUBLIC	?overload_bridge_int_value_functions@@YGXXZ	; overload_bridge_int_value_functions
PUBLIC	?__LINE__Var@?0??set_local_int_value@@YGXPAUENTITY@@W4INT_TYPES@@H@Z@4JA ; `set_local_int_value'::`1'::__LINE__Var
PUBLIC	??_C@_0EL@EMMMHEGL@c?3?2users?2nhv90?2projects?2eech?2ap@ ; `string'
PUBLIC	?__LINE__Var@?0??set_server_int_value@@YGXPAUENTITY@@W4INT_TYPES@@H@Z@4JA ; `set_server_int_value'::`1'::__LINE__Var
PUBLIC	??_C@_0CB@CFOCLFOK@assert_client_server_local_fn?5?$CI@ ; `string'
PUBLIC	??_C@_0CC@BNNNEGEG@assert_client_server_remote_fn?5@ ; `string'
PUBLIC	?__LINE__Var@?0??set_client_int_value@@YGXPAUENTITY@@W4INT_TYPES@@H@Z@4JA ; `set_client_int_value'::`1'::__LINE__Var
PUBLIC	?__LINE__Var@?0??get_local_int_value@@YGHPAUENTITY@@W4INT_TYPES@@@Z@4JA ; `get_local_int_value'::`1'::__LINE__Var
EXTRN	?process_assert@@YGXPBD0H@Z:PROC		; process_assert
EXTRN	?debug_fatal@@YAXPBDZZ:PROC			; debug_fatal
EXTRN	?transmit_entity_comms_message@@YAXW4ENTITY_COMMS_MESSAGES@@PAUENTITY@@ZZ:PROC ; transmit_entity_comms_message
EXTRN	?assert_client_server_local_fn@@YGHXZ:PROC	; assert_client_server_local_fn
EXTRN	?assert_client_server_remote_fn@@YGHXZ:PROC	; assert_client_server_remote_fn
EXTRN	?null_entity_pointer_message@@3PBDB:DWORD	; null_entity_pointer_message
EXTRN	?entity_type_database@@3PAUENTITY_TYPE_DATA@@A:BYTE ; entity_type_database
EXTRN	?system_comms_data_flow@@3W4COMMS_DATA_FLOW_TYPES@@A:DWORD ; system_comms_data_flow
EXTRN	?int_type_database@@3PAUINT_TYPE_DATA@@A:BYTE	; int_type_database
EXTRN	?debug_fatal_invalid_int_type_message@@3PBDB:DWORD ; debug_fatal_invalid_int_type_message
EXTRN	?fn_set_local_entity_raw_int_value@@3PAY0BBH@P6GXPAUENTITY@@W4INT_TYPES@@H@ZA:BYTE ; fn_set_local_entity_raw_int_value
EXTRN	?fn_set_local_entity_int_value@@3PAY0BBH@P6GXPAUENTITY@@W4INT_TYPES@@H@ZA:BYTE ; fn_set_local_entity_int_value
EXTRN	?fn_set_client_server_entity_int_value@@3PAY1BBH@1P6GXPAUENTITY@@W4INT_TYPES@@H@ZA:BYTE ; fn_set_client_server_entity_int_value
EXTRN	?fn_get_local_entity_int_value@@3PAY0BBH@P6GHPAUENTITY@@W4INT_TYPES@@@ZA:BYTE ; fn_get_local_entity_int_value
EXTRN	?entities@@3PAUENTITY@@A:DWORD			; entities
;	COMDAT ?__LINE__Var@?0??get_local_int_value@@YGHPAUENTITY@@W4INT_TYPES@@@Z@4JA
_DATA	SEGMENT
?__LINE__Var@?0??get_local_int_value@@YGHPAUENTITY@@W4INT_TYPES@@@Z@4JA DD 0c0H ; `get_local_int_value'::`1'::__LINE__Var
_DATA	ENDS
;	COMDAT ?__LINE__Var@?0??set_client_int_value@@YGXPAUENTITY@@W4INT_TYPES@@H@Z@4JA
_DATA	SEGMENT
?__LINE__Var@?0??set_client_int_value@@YGXPAUENTITY@@W4INT_TYPES@@H@Z@4JA DD 0acH ; `set_client_int_value'::`1'::__LINE__Var
_DATA	ENDS
;	COMDAT ??_C@_0CC@BNNNEGEG@assert_client_server_remote_fn?5@
CONST	SEGMENT
??_C@_0CC@BNNNEGEG@assert_client_server_remote_fn?5@ DB 'assert_client_se'
	DB	'rver_remote_fn ()', 00H			; `string'
CONST	ENDS
;	COMDAT ??_C@_0CB@CFOCLFOK@assert_client_server_local_fn?5?$CI@
CONST	SEGMENT
??_C@_0CB@CFOCLFOK@assert_client_server_local_fn?5?$CI@ DB 'assert_client'
	DB	'_server_local_fn ()', 00H			; `string'
CONST	ENDS
;	COMDAT ?__LINE__Var@?0??set_server_int_value@@YGXPAUENTITY@@W4INT_TYPES@@H@Z@4JA
_DATA	SEGMENT
?__LINE__Var@?0??set_server_int_value@@YGXPAUENTITY@@W4INT_TYPES@@H@Z@4JA DD 09dH ; `set_server_int_value'::`1'::__LINE__Var
_DATA	ENDS
;	COMDAT ??_C@_0EL@EMMMHEGL@c?3?2users?2nhv90?2projects?2eech?2ap@
CONST	SEGMENT
??_C@_0EL@EMMMHEGL@c?3?2users?2nhv90?2projects?2eech?2ap@ DB 'c:\users\nh'
	DB	'v90\projects\eech\aphavoc\source\entity\special\bridge\br_int'
	DB	'.c', 00H					; `string'
CONST	ENDS
;	COMDAT ?__LINE__Var@?0??set_local_int_value@@YGXPAUENTITY@@W4INT_TYPES@@H@Z@4JA
_DATA	SEGMENT
?__LINE__Var@?0??set_local_int_value@@YGXPAUENTITY@@W4INT_TYPES@@H@Z@4JA DD 050H ; `set_local_int_value'::`1'::__LINE__Var
_DATA	ENDS
; Function compile flags: /Odtp /ZI
; File c:\users\nhv90\projects\eech\aphavoc\source\entity\special\bridge\br_int.c
;	COMDAT ?get_local_int_value@@YGHPAUENTITY@@W4INT_TYPES@@@Z
_TEXT	SEGMENT
tv86 = -76						; size = 4
tv65 = -76						; size = 4
_value$ = -8						; size = 4
_raw$ = -4						; size = 4
_en$ = 8						; size = 4
_type$ = 12						; size = 4
?get_local_int_value@@YGHPAUENTITY@@W4INT_TYPES@@@Z PROC ; get_local_int_value, COMDAT

; 192  : {

  00000	55		 push	 ebp
  00001	8b ec		 mov	 ebp, esp
  00003	83 ec 4c	 sub	 esp, 76			; 0000004cH
  00006	53		 push	 ebx
  00007	56		 push	 esi
  00008	57		 push	 edi

; 193  : 	bridge
; 194  : 		*raw;
; 195  : 
; 196  : 	int
; 197  : 		value;
; 198  : 
; 199  : 	raw = (bridge *) get_local_entity_data (en);

  00009	8b 45 08	 mov	 eax, DWORD PTR _en$[ebp]
  0000c	8b 48 04	 mov	 ecx, DWORD PTR [eax+4]
  0000f	89 4d fc	 mov	 DWORD PTR _raw$[ebp], ecx

; 200  : 
; 201  : 	switch (type)

  00012	8b 45 0c	 mov	 eax, DWORD PTR _type$[ebp]
  00015	89 45 b4	 mov	 DWORD PTR tv65[ebp], eax
  00018	8b 4d b4	 mov	 ecx, DWORD PTR tv65[ebp]
  0001b	83 e9 07	 sub	 ecx, 7
  0001e	89 4d b4	 mov	 DWORD PTR tv65[ebp], ecx
  00021	81 7d b4 c3 00
	00 00		 cmp	 DWORD PTR tv65[ebp], 195 ; 000000c3H
  00028	77 42		 ja	 SHORT $LN8@get_local_
  0002a	8b 55 b4	 mov	 edx, DWORD PTR tv65[ebp]
  0002d	0f b6 82 00 00
	00 00		 movzx	 eax, BYTE PTR $LN12@get_local_[edx]
  00034	ff 24 85 00 00
	00 00		 jmp	 DWORD PTR $LN13@get_local_[eax*4]
$LN4@get_local_:

; 202  : 	{
; 203  : 		////////////////////////////////////////
; 204  : 		case INT_TYPE_ALIVE:
; 205  : 		////////////////////////////////////////
; 206  : 		{
; 207  : 			value = raw->alive;

  0003b	8b 45 fc	 mov	 eax, DWORD PTR _raw$[ebp]
  0003e	8b 48 04	 mov	 ecx, DWORD PTR [eax+4]
  00041	89 4d f8	 mov	 DWORD PTR _value$[ebp], ecx

; 208  : 
; 209  : 			break;

  00044	e9 95 00 00 00	 jmp	 $LN2@get_local_
$LN5@get_local_:

; 210  : 		}
; 211  : 		////////////////////////////////////////
; 212  : 		case INT_TYPE_ENTITY_SUB_TYPE:
; 213  : 		////////////////////////////////////////
; 214  : 		{
; 215  : 			value = raw->sub_type;

  00049	8b 45 fc	 mov	 eax, DWORD PTR _raw$[ebp]
  0004c	8b 08		 mov	 ecx, DWORD PTR [eax]
  0004e	89 4d f8	 mov	 DWORD PTR _value$[ebp], ecx

; 216  : 
; 217  : 			break;

  00051	e9 88 00 00 00	 jmp	 $LN2@get_local_
$LN6@get_local_:

; 218  : 		}
; 219  : 		////////////////////////////////////////
; 220  : 		case INT_TYPE_START_NODE:
; 221  : 		////////////////////////////////////////
; 222  : 		{
; 223  : 			value = raw->start_node;

  00056	8b 45 fc	 mov	 eax, DWORD PTR _raw$[ebp]
  00059	8b 48 08	 mov	 ecx, DWORD PTR [eax+8]
  0005c	89 4d f8	 mov	 DWORD PTR _value$[ebp], ecx

; 224  : 
; 225  : 			break;

  0005f	eb 7d		 jmp	 SHORT $LN2@get_local_
$LN7@get_local_:

; 226  : 		}
; 227  : 		////////////////////////////////////////
; 228  : 		case INT_TYPE_END_NODE:
; 229  : 		////////////////////////////////////////
; 230  : 		{
; 231  : 			value = raw->end_node;

  00061	8b 45 fc	 mov	 eax, DWORD PTR _raw$[ebp]
  00064	8b 48 0c	 mov	 ecx, DWORD PTR [eax+12]
  00067	89 4d f8	 mov	 DWORD PTR _value$[ebp], ecx

; 232  : 
; 233  : 			break;

  0006a	eb 72		 jmp	 SHORT $LN2@get_local_
$LN8@get_local_:

; 234  : 		}
; 235  : 		////////////////////////////////////////
; 236  : 		default:
; 237  : 		////////////////////////////////////////
; 238  : 		{
; 239  : 			debug_fatal_invalid_int_type (en, type);

  0006c	83 7d 08 00	 cmp	 DWORD PTR _en$[ebp], 0
  00070	74 0a		 je	 SHORT $LN10@get_local_
  00072	8b 45 08	 mov	 eax, DWORD PTR _en$[ebp]
  00075	8b 08		 mov	 ecx, DWORD PTR [eax]
  00077	89 4d b4	 mov	 DWORD PTR tv86[ebp], ecx
  0007a	eb 21		 jmp	 SHORT $LN11@get_local_
$LN10@get_local_:
  0007c	8b 15 00 00 00
	00		 mov	 edx, DWORD PTR ?__LINE__Var@?0??get_local_int_value@@YGHPAUENTITY@@W4INT_TYPES@@@Z@4JA
  00082	83 c2 2f	 add	 edx, 47			; 0000002fH
  00085	52		 push	 edx
  00086	68 00 00 00 00	 push	 OFFSET ??_C@_0EL@EMMMHEGL@c?3?2users?2nhv90?2projects?2eech?2ap@
  0008b	a1 00 00 00 00	 mov	 eax, DWORD PTR ?null_entity_pointer_message@@3PBDB ; null_entity_pointer_message
  00090	50		 push	 eax
  00091	e8 00 00 00 00	 call	 ?process_assert@@YGXPBD0H@Z ; process_assert
  00096	c7 45 b4 00 00
	00 00		 mov	 DWORD PTR tv86[ebp], 0
$LN11@get_local_:
  0009d	8b 0d 00 00 00
	00		 mov	 ecx, DWORD PTR ?__LINE__Var@?0??get_local_int_value@@YGHPAUENTITY@@W4INT_TYPES@@@Z@4JA
  000a3	83 c1 2f	 add	 ecx, 47			; 0000002fH
  000a6	51		 push	 ecx
  000a7	68 00 00 00 00	 push	 OFFSET ??_C@_0EL@EMMMHEGL@c?3?2users?2nhv90?2projects?2eech?2ap@
  000ac	6b 55 0c 14	 imul	 edx, DWORD PTR _type$[ebp], 20
  000b0	8b 82 00 00 00
	00		 mov	 eax, DWORD PTR ?int_type_database@@3PAUINT_TYPE_DATA@@A[edx]
  000b6	50		 push	 eax
  000b7	8b 4d 08	 mov	 ecx, DWORD PTR _en$[ebp]
  000ba	2b 0d 00 00 00
	00		 sub	 ecx, DWORD PTR ?entities@@3PAUENTITY@@A ; entities
  000c0	c1 f9 04	 sar	 ecx, 4
  000c3	51		 push	 ecx
  000c4	6b 55 b4 0c	 imul	 edx, DWORD PTR tv86[ebp], 12
  000c8	8b 82 00 00 00
	00		 mov	 eax, DWORD PTR ?entity_type_database@@3PAUENTITY_TYPE_DATA@@A[edx]
  000ce	50		 push	 eax
  000cf	8b 0d 00 00 00
	00		 mov	 ecx, DWORD PTR ?debug_fatal_invalid_int_type_message@@3PBDB ; debug_fatal_invalid_int_type_message
  000d5	51		 push	 ecx
  000d6	e8 00 00 00 00	 call	 ?debug_fatal@@YAXPBDZZ	; debug_fatal
  000db	83 c4 18	 add	 esp, 24			; 00000018H
$LN2@get_local_:

; 240  : 
; 241  : 			break;
; 242  : 		}
; 243  : 	}
; 244  : 
; 245  : 	return (value);

  000de	8b 45 f8	 mov	 eax, DWORD PTR _value$[ebp]

; 246  : }

  000e1	5f		 pop	 edi
  000e2	5e		 pop	 esi
  000e3	5b		 pop	 ebx
  000e4	8b e5		 mov	 esp, ebp
  000e6	5d		 pop	 ebp
  000e7	c2 08 00	 ret	 8
  000ea	66 90		 npad	 2
$LN13@get_local_:
  000ec	00 00 00 00	 DD	 $LN4@get_local_
  000f0	00 00 00 00	 DD	 $LN7@get_local_
  000f4	00 00 00 00	 DD	 $LN5@get_local_
  000f8	00 00 00 00	 DD	 $LN6@get_local_
  000fc	00 00 00 00	 DD	 $LN8@get_local_
$LN12@get_local_:
  00100	00		 DB	 0
  00101	04		 DB	 4
  00102	04		 DB	 4
  00103	04		 DB	 4
  00104	04		 DB	 4
  00105	04		 DB	 4
  00106	04		 DB	 4
  00107	04		 DB	 4
  00108	04		 DB	 4
  00109	04		 DB	 4
  0010a	04		 DB	 4
  0010b	04		 DB	 4
  0010c	04		 DB	 4
  0010d	04		 DB	 4
  0010e	04		 DB	 4
  0010f	04		 DB	 4
  00110	04		 DB	 4
  00111	04		 DB	 4
  00112	04		 DB	 4
  00113	04		 DB	 4
  00114	04		 DB	 4
  00115	04		 DB	 4
  00116	04		 DB	 4
  00117	04		 DB	 4
  00118	04		 DB	 4
  00119	04		 DB	 4
  0011a	04		 DB	 4
  0011b	04		 DB	 4
  0011c	04		 DB	 4
  0011d	04		 DB	 4
  0011e	04		 DB	 4
  0011f	04		 DB	 4
  00120	04		 DB	 4
  00121	04		 DB	 4
  00122	04		 DB	 4
  00123	04		 DB	 4
  00124	04		 DB	 4
  00125	04		 DB	 4
  00126	04		 DB	 4
  00127	04		 DB	 4
  00128	04		 DB	 4
  00129	04		 DB	 4
  0012a	04		 DB	 4
  0012b	01		 DB	 1
  0012c	04		 DB	 4
  0012d	02		 DB	 2
  0012e	04		 DB	 4
  0012f	04		 DB	 4
  00130	04		 DB	 4
  00131	04		 DB	 4
  00132	04		 DB	 4
  00133	04		 DB	 4
  00134	04		 DB	 4
  00135	04		 DB	 4
  00136	04		 DB	 4
  00137	04		 DB	 4
  00138	04		 DB	 4
  00139	04		 DB	 4
  0013a	04		 DB	 4
  0013b	04		 DB	 4
  0013c	04		 DB	 4
  0013d	04		 DB	 4
  0013e	04		 DB	 4
  0013f	04		 DB	 4
  00140	04		 DB	 4
  00141	04		 DB	 4
  00142	04		 DB	 4
  00143	04		 DB	 4
  00144	04		 DB	 4
  00145	04		 DB	 4
  00146	04		 DB	 4
  00147	04		 DB	 4
  00148	04		 DB	 4
  00149	04		 DB	 4
  0014a	04		 DB	 4
  0014b	04		 DB	 4
  0014c	04		 DB	 4
  0014d	04		 DB	 4
  0014e	04		 DB	 4
  0014f	04		 DB	 4
  00150	04		 DB	 4
  00151	04		 DB	 4
  00152	04		 DB	 4
  00153	04		 DB	 4
  00154	04		 DB	 4
  00155	04		 DB	 4
  00156	04		 DB	 4
  00157	04		 DB	 4
  00158	04		 DB	 4
  00159	04		 DB	 4
  0015a	04		 DB	 4
  0015b	04		 DB	 4
  0015c	04		 DB	 4
  0015d	04		 DB	 4
  0015e	04		 DB	 4
  0015f	04		 DB	 4
  00160	04		 DB	 4
  00161	04		 DB	 4
  00162	04		 DB	 4
  00163	04		 DB	 4
  00164	04		 DB	 4
  00165	04		 DB	 4
  00166	04		 DB	 4
  00167	04		 DB	 4
  00168	04		 DB	 4
  00169	04		 DB	 4
  0016a	04		 DB	 4
  0016b	04		 DB	 4
  0016c	04		 DB	 4
  0016d	04		 DB	 4
  0016e	04		 DB	 4
  0016f	04		 DB	 4
  00170	04		 DB	 4
  00171	04		 DB	 4
  00172	04		 DB	 4
  00173	04		 DB	 4
  00174	04		 DB	 4
  00175	04		 DB	 4
  00176	04		 DB	 4
  00177	04		 DB	 4
  00178	04		 DB	 4
  00179	04		 DB	 4
  0017a	04		 DB	 4
  0017b	04		 DB	 4
  0017c	04		 DB	 4
  0017d	04		 DB	 4
  0017e	04		 DB	 4
  0017f	04		 DB	 4
  00180	04		 DB	 4
  00181	04		 DB	 4
  00182	04		 DB	 4
  00183	04		 DB	 4
  00184	04		 DB	 4
  00185	04		 DB	 4
  00186	04		 DB	 4
  00187	04		 DB	 4
  00188	04		 DB	 4
  00189	04		 DB	 4
  0018a	04		 DB	 4
  0018b	04		 DB	 4
  0018c	04		 DB	 4
  0018d	04		 DB	 4
  0018e	04		 DB	 4
  0018f	04		 DB	 4
  00190	04		 DB	 4
  00191	04		 DB	 4
  00192	04		 DB	 4
  00193	04		 DB	 4
  00194	04		 DB	 4
  00195	04		 DB	 4
  00196	04		 DB	 4
  00197	04		 DB	 4
  00198	04		 DB	 4
  00199	04		 DB	 4
  0019a	04		 DB	 4
  0019b	04		 DB	 4
  0019c	04		 DB	 4
  0019d	04		 DB	 4
  0019e	04		 DB	 4
  0019f	04		 DB	 4
  001a0	04		 DB	 4
  001a1	04		 DB	 4
  001a2	04		 DB	 4
  001a3	04		 DB	 4
  001a4	04		 DB	 4
  001a5	04		 DB	 4
  001a6	04		 DB	 4
  001a7	04		 DB	 4
  001a8	04		 DB	 4
  001a9	04		 DB	 4
  001aa	04		 DB	 4
  001ab	04		 DB	 4
  001ac	04		 DB	 4
  001ad	04		 DB	 4
  001ae	04		 DB	 4
  001af	04		 DB	 4
  001b0	04		 DB	 4
  001b1	04		 DB	 4
  001b2	04		 DB	 4
  001b3	04		 DB	 4
  001b4	04		 DB	 4
  001b5	04		 DB	 4
  001b6	04		 DB	 4
  001b7	04		 DB	 4
  001b8	04		 DB	 4
  001b9	04		 DB	 4
  001ba	04		 DB	 4
  001bb	04		 DB	 4
  001bc	04		 DB	 4
  001bd	04		 DB	 4
  001be	04		 DB	 4
  001bf	04		 DB	 4
  001c0	04		 DB	 4
  001c1	04		 DB	 4
  001c2	04		 DB	 4
  001c3	03		 DB	 3
?get_local_int_value@@YGHPAUENTITY@@W4INT_TYPES@@@Z ENDP ; get_local_int_value
_TEXT	ENDS
; Function compile flags: /Odtp /ZI
; File c:\users\nhv90\projects\eech\aphavoc\source\entity\special\bridge\br_int.c
;	COMDAT ?set_client_int_value@@YGXPAUENTITY@@W4INT_TYPES@@H@Z
_TEXT	SEGMENT
_en$ = 8						; size = 4
_type$ = 12						; size = 4
_value$ = 16						; size = 4
?set_client_int_value@@YGXPAUENTITY@@W4INT_TYPES@@H@Z PROC ; set_client_int_value, COMDAT

; 172  : {

  00000	55		 push	 ebp
  00001	8b ec		 mov	 ebp, esp
  00003	83 ec 40	 sub	 esp, 64			; 00000040H
  00006	53		 push	 ebx
  00007	56		 push	 esi
  00008	57		 push	 edi

; 173  : 	if (get_comms_data_flow () == COMMS_DATA_FLOW_TX)

  00009	83 3d 00 00 00
	00 00		 cmp	 DWORD PTR ?system_comms_data_flow@@3W4COMMS_DATA_FLOW_TYPES@@A, 0 ; system_comms_data_flow
  00010	75 34		 jne	 SHORT $LN2@set_client

; 174  : 	{
; 175  : 		validate_client_server_remote_fn ();

  00012	e8 00 00 00 00	 call	 ?assert_client_server_remote_fn@@YGHXZ ; assert_client_server_remote_fn
  00017	85 c0		 test	 eax, eax
  00019	75 18		 jne	 SHORT $LN4@set_client
  0001b	a1 00 00 00 00	 mov	 eax, DWORD PTR ?__LINE__Var@?0??set_client_int_value@@YGXPAUENTITY@@W4INT_TYPES@@H@Z@4JA
  00020	83 c0 03	 add	 eax, 3
  00023	50		 push	 eax
  00024	68 00 00 00 00	 push	 OFFSET ??_C@_0EL@EMMMHEGL@c?3?2users?2nhv90?2projects?2eech?2ap@
  00029	68 00 00 00 00	 push	 OFFSET ??_C@_0CC@BNNNEGEG@assert_client_server_remote_fn?5@
  0002e	e8 00 00 00 00	 call	 ?process_assert@@YGXPBD0H@Z ; process_assert
$LN4@set_client:

; 176  : 
; 177  : 		set_remote_int_value (en, type, value);

  00033	8b 45 10	 mov	 eax, DWORD PTR _value$[ebp]
  00036	50		 push	 eax
  00037	8b 4d 0c	 mov	 ecx, DWORD PTR _type$[ebp]
  0003a	51		 push	 ecx
  0003b	8b 55 08	 mov	 edx, DWORD PTR _en$[ebp]
  0003e	52		 push	 edx
  0003f	e8 00 00 00 00	 call	 ?set_remote_int_value@@YGXPAUENTITY@@W4INT_TYPES@@H@Z ; set_remote_int_value

; 178  : 	}
; 179  : 	else

  00044	eb 32		 jmp	 SHORT $LN1@set_client
$LN2@set_client:

; 180  : 	{
; 181  : 		validate_client_server_local_fn ();

  00046	e8 00 00 00 00	 call	 ?assert_client_server_local_fn@@YGHXZ ; assert_client_server_local_fn
  0004b	85 c0		 test	 eax, eax
  0004d	75 18		 jne	 SHORT $LN5@set_client
  0004f	a1 00 00 00 00	 mov	 eax, DWORD PTR ?__LINE__Var@?0??set_client_int_value@@YGXPAUENTITY@@W4INT_TYPES@@H@Z@4JA
  00054	83 c0 09	 add	 eax, 9
  00057	50		 push	 eax
  00058	68 00 00 00 00	 push	 OFFSET ??_C@_0EL@EMMMHEGL@c?3?2users?2nhv90?2projects?2eech?2ap@
  0005d	68 00 00 00 00	 push	 OFFSET ??_C@_0CB@CFOCLFOK@assert_client_server_local_fn?5?$CI@
  00062	e8 00 00 00 00	 call	 ?process_assert@@YGXPBD0H@Z ; process_assert
$LN5@set_client:

; 182  : 
; 183  : 		set_local_int_value (en, type, value);

  00067	8b 45 10	 mov	 eax, DWORD PTR _value$[ebp]
  0006a	50		 push	 eax
  0006b	8b 4d 0c	 mov	 ecx, DWORD PTR _type$[ebp]
  0006e	51		 push	 ecx
  0006f	8b 55 08	 mov	 edx, DWORD PTR _en$[ebp]
  00072	52		 push	 edx
  00073	e8 00 00 00 00	 call	 ?set_local_int_value@@YGXPAUENTITY@@W4INT_TYPES@@H@Z ; set_local_int_value
$LN1@set_client:

; 184  : 	}
; 185  : }

  00078	5f		 pop	 edi
  00079	5e		 pop	 esi
  0007a	5b		 pop	 ebx
  0007b	8b e5		 mov	 esp, ebp
  0007d	5d		 pop	 ebp
  0007e	c2 0c 00	 ret	 12			; 0000000cH
?set_client_int_value@@YGXPAUENTITY@@W4INT_TYPES@@H@Z ENDP ; set_client_int_value
_TEXT	ENDS
; Function compile flags: /Odtp /ZI
; File c:\users\nhv90\projects\eech\aphavoc\source\entity\special\bridge\br_int.c
;	COMDAT ?set_server_int_value@@YGXPAUENTITY@@W4INT_TYPES@@H@Z
_TEXT	SEGMENT
_en$ = 8						; size = 4
_type$ = 12						; size = 4
_value$ = 16						; size = 4
?set_server_int_value@@YGXPAUENTITY@@W4INT_TYPES@@H@Z PROC ; set_server_int_value, COMDAT

; 157  : {

  00000	55		 push	 ebp
  00001	8b ec		 mov	 ebp, esp
  00003	83 ec 40	 sub	 esp, 64			; 00000040H
  00006	53		 push	 ebx
  00007	56		 push	 esi
  00008	57		 push	 edi

; 158  : 	validate_client_server_local_fn ();

  00009	e8 00 00 00 00	 call	 ?assert_client_server_local_fn@@YGHXZ ; assert_client_server_local_fn
  0000e	85 c0		 test	 eax, eax
  00010	75 18		 jne	 SHORT $LN2@set_server
  00012	a1 00 00 00 00	 mov	 eax, DWORD PTR ?__LINE__Var@?0??set_server_int_value@@YGXPAUENTITY@@W4INT_TYPES@@H@Z@4JA
  00017	83 c0 01	 add	 eax, 1
  0001a	50		 push	 eax
  0001b	68 00 00 00 00	 push	 OFFSET ??_C@_0EL@EMMMHEGL@c?3?2users?2nhv90?2projects?2eech?2ap@
  00020	68 00 00 00 00	 push	 OFFSET ??_C@_0CB@CFOCLFOK@assert_client_server_local_fn?5?$CI@
  00025	e8 00 00 00 00	 call	 ?process_assert@@YGXPBD0H@Z ; process_assert
$LN2@set_server:

; 159  : 
; 160  : 	set_local_int_value (en, type, value);

  0002a	8b 45 10	 mov	 eax, DWORD PTR _value$[ebp]
  0002d	50		 push	 eax
  0002e	8b 4d 0c	 mov	 ecx, DWORD PTR _type$[ebp]
  00031	51		 push	 ecx
  00032	8b 55 08	 mov	 edx, DWORD PTR _en$[ebp]
  00035	52		 push	 edx
  00036	e8 00 00 00 00	 call	 ?set_local_int_value@@YGXPAUENTITY@@W4INT_TYPES@@H@Z ; set_local_int_value

; 161  : 
; 162  : 	validate_client_server_remote_fn ();

  0003b	e8 00 00 00 00	 call	 ?assert_client_server_remote_fn@@YGHXZ ; assert_client_server_remote_fn
  00040	85 c0		 test	 eax, eax
  00042	75 18		 jne	 SHORT $LN3@set_server
  00044	a1 00 00 00 00	 mov	 eax, DWORD PTR ?__LINE__Var@?0??set_server_int_value@@YGXPAUENTITY@@W4INT_TYPES@@H@Z@4JA
  00049	83 c0 05	 add	 eax, 5
  0004c	50		 push	 eax
  0004d	68 00 00 00 00	 push	 OFFSET ??_C@_0EL@EMMMHEGL@c?3?2users?2nhv90?2projects?2eech?2ap@
  00052	68 00 00 00 00	 push	 OFFSET ??_C@_0CC@BNNNEGEG@assert_client_server_remote_fn?5@
  00057	e8 00 00 00 00	 call	 ?process_assert@@YGXPBD0H@Z ; process_assert
$LN3@set_server:

; 163  : 
; 164  : 	set_remote_int_value (en, type, value);

  0005c	8b 45 10	 mov	 eax, DWORD PTR _value$[ebp]
  0005f	50		 push	 eax
  00060	8b 4d 0c	 mov	 ecx, DWORD PTR _type$[ebp]
  00063	51		 push	 ecx
  00064	8b 55 08	 mov	 edx, DWORD PTR _en$[ebp]
  00067	52		 push	 edx
  00068	e8 00 00 00 00	 call	 ?set_remote_int_value@@YGXPAUENTITY@@W4INT_TYPES@@H@Z ; set_remote_int_value

; 165  : }

  0006d	5f		 pop	 edi
  0006e	5e		 pop	 esi
  0006f	5b		 pop	 ebx
  00070	8b e5		 mov	 esp, ebp
  00072	5d		 pop	 ebp
  00073	c2 0c 00	 ret	 12			; 0000000cH
?set_server_int_value@@YGXPAUENTITY@@W4INT_TYPES@@H@Z ENDP ; set_server_int_value
_TEXT	ENDS
; Function compile flags: /Odtp /ZI
; File c:\users\nhv90\projects\eech\aphavoc\source\entity\special\bridge\br_int.c
;	COMDAT ?set_remote_int_value@@YGXPAUENTITY@@W4INT_TYPES@@H@Z
_TEXT	SEGMENT
_en$ = 8						; size = 4
_type$ = 12						; size = 4
_value$ = 16						; size = 4
?set_remote_int_value@@YGXPAUENTITY@@W4INT_TYPES@@H@Z PROC ; set_remote_int_value, COMDAT

; 142  : {

  00000	55		 push	 ebp
  00001	8b ec		 mov	 ebp, esp
  00003	83 ec 40	 sub	 esp, 64			; 00000040H
  00006	53		 push	 ebx
  00007	56		 push	 esi
  00008	57		 push	 edi

; 143  : 	#if DEBUG_MODULE
; 144  : 
; 145  : 	debug_log_entity_args (ENTITY_DEBUG_REMOTE, ENTITY_DEBUG_INT_VALUE, en, type, value);
; 146  : 
; 147  : 	#endif
; 148  : 
; 149  : 	transmit_entity_comms_message (ENTITY_COMMS_INT_VALUE, en, type, value);

  00009	8b 45 10	 mov	 eax, DWORD PTR _value$[ebp]
  0000c	50		 push	 eax
  0000d	8b 4d 0c	 mov	 ecx, DWORD PTR _type$[ebp]
  00010	51		 push	 ecx
  00011	8b 55 08	 mov	 edx, DWORD PTR _en$[ebp]
  00014	52		 push	 edx
  00015	6a 17		 push	 23			; 00000017H
  00017	e8 00 00 00 00	 call	 ?transmit_entity_comms_message@@YAXW4ENTITY_COMMS_MESSAGES@@PAUENTITY@@ZZ ; transmit_entity_comms_message
  0001c	83 c4 10	 add	 esp, 16			; 00000010H

; 150  : }

  0001f	5f		 pop	 edi
  00020	5e		 pop	 esi
  00021	5b		 pop	 ebx
  00022	8b e5		 mov	 esp, ebp
  00024	5d		 pop	 ebp
  00025	c2 0c 00	 ret	 12			; 0000000cH
?set_remote_int_value@@YGXPAUENTITY@@W4INT_TYPES@@H@Z ENDP ; set_remote_int_value
_TEXT	ENDS
; Function compile flags: /Odtp /ZI
; File c:\users\nhv90\projects\eech\aphavoc\source\entity\special\bridge\br_int.c
;	COMDAT ?set_local_int_value@@YGXPAUENTITY@@W4INT_TYPES@@H@Z
_TEXT	SEGMENT
tv86 = -72						; size = 4
tv65 = -72						; size = 4
_raw$ = -4						; size = 4
_en$ = 8						; size = 4
_type$ = 12						; size = 4
_value$ = 16						; size = 4
?set_local_int_value@@YGXPAUENTITY@@W4INT_TYPES@@H@Z PROC ; set_local_int_value, COMDAT

; 80   : {

  00000	55		 push	 ebp
  00001	8b ec		 mov	 ebp, esp
  00003	83 ec 48	 sub	 esp, 72			; 00000048H
  00006	53		 push	 ebx
  00007	56		 push	 esi
  00008	57		 push	 edi

; 81   : 	bridge
; 82   : 		*raw;
; 83   : 
; 84   : 	#if DEBUG_MODULE
; 85   : 
; 86   : 	debug_log_entity_args (ENTITY_DEBUG_LOCAL, ENTITY_DEBUG_INT_VALUE, en, type, value);
; 87   : 
; 88   : 	#endif
; 89   : 
; 90   : 	raw = (bridge *) get_local_entity_data (en);

  00009	8b 45 08	 mov	 eax, DWORD PTR _en$[ebp]
  0000c	8b 48 04	 mov	 ecx, DWORD PTR [eax+4]
  0000f	89 4d fc	 mov	 DWORD PTR _raw$[ebp], ecx

; 91   : 
; 92   : 	switch (type)

  00012	8b 45 0c	 mov	 eax, DWORD PTR _type$[ebp]
  00015	89 45 b8	 mov	 DWORD PTR tv65[ebp], eax
  00018	8b 4d b8	 mov	 ecx, DWORD PTR tv65[ebp]
  0001b	83 e9 07	 sub	 ecx, 7
  0001e	89 4d b8	 mov	 DWORD PTR tv65[ebp], ecx
  00021	81 7d b8 c3 00
	00 00		 cmp	 DWORD PTR tv65[ebp], 195 ; 000000c3H
  00028	77 42		 ja	 SHORT $LN8@set_local_
  0002a	8b 55 b8	 mov	 edx, DWORD PTR tv65[ebp]
  0002d	0f b6 82 00 00
	00 00		 movzx	 eax, BYTE PTR $LN12@set_local_[edx]
  00034	ff 24 85 00 00
	00 00		 jmp	 DWORD PTR $LN13@set_local_[eax*4]
$LN4@set_local_:

; 93   : 	{
; 94   : 		////////////////////////////////////////
; 95   : 		case INT_TYPE_ALIVE:
; 96   : 		////////////////////////////////////////
; 97   : 		{
; 98   : 			raw->alive = value;

  0003b	8b 45 fc	 mov	 eax, DWORD PTR _raw$[ebp]
  0003e	8b 4d 10	 mov	 ecx, DWORD PTR _value$[ebp]
  00041	89 48 04	 mov	 DWORD PTR [eax+4], ecx

; 99   : 
; 100  : 			break;

  00044	e9 95 00 00 00	 jmp	 $LN1@set_local_
$LN5@set_local_:

; 101  : 		}
; 102  : 		////////////////////////////////////////
; 103  : 		case INT_TYPE_ENTITY_SUB_TYPE:
; 104  : 		////////////////////////////////////////
; 105  : 		{
; 106  : 			raw->sub_type = value;

  00049	8b 45 fc	 mov	 eax, DWORD PTR _raw$[ebp]
  0004c	8b 4d 10	 mov	 ecx, DWORD PTR _value$[ebp]
  0004f	89 08		 mov	 DWORD PTR [eax], ecx

; 107  : 
; 108  : 			break;

  00051	e9 88 00 00 00	 jmp	 $LN1@set_local_
$LN6@set_local_:

; 109  : 		}
; 110  : 		////////////////////////////////////////
; 111  : 		case INT_TYPE_START_NODE:
; 112  : 		////////////////////////////////////////
; 113  : 		{
; 114  : 			raw->start_node = value;

  00056	8b 45 fc	 mov	 eax, DWORD PTR _raw$[ebp]
  00059	8b 4d 10	 mov	 ecx, DWORD PTR _value$[ebp]
  0005c	89 48 08	 mov	 DWORD PTR [eax+8], ecx

; 115  : 
; 116  : 			break;

  0005f	eb 7d		 jmp	 SHORT $LN1@set_local_
$LN7@set_local_:

; 117  : 		}
; 118  : 		////////////////////////////////////////
; 119  : 		case INT_TYPE_END_NODE:
; 120  : 		////////////////////////////////////////
; 121  : 		{
; 122  : 			raw->end_node = value;

  00061	8b 45 fc	 mov	 eax, DWORD PTR _raw$[ebp]
  00064	8b 4d 10	 mov	 ecx, DWORD PTR _value$[ebp]
  00067	89 48 0c	 mov	 DWORD PTR [eax+12], ecx

; 123  : 
; 124  : 			break;

  0006a	eb 72		 jmp	 SHORT $LN1@set_local_
$LN8@set_local_:

; 125  : 		}
; 126  : 		////////////////////////////////////////
; 127  : 		default:
; 128  : 		////////////////////////////////////////
; 129  : 		{
; 130  : 			debug_fatal_invalid_int_type (en, type);

  0006c	83 7d 08 00	 cmp	 DWORD PTR _en$[ebp], 0
  00070	74 0a		 je	 SHORT $LN10@set_local_
  00072	8b 45 08	 mov	 eax, DWORD PTR _en$[ebp]
  00075	8b 08		 mov	 ecx, DWORD PTR [eax]
  00077	89 4d b8	 mov	 DWORD PTR tv86[ebp], ecx
  0007a	eb 21		 jmp	 SHORT $LN11@set_local_
$LN10@set_local_:
  0007c	8b 15 00 00 00
	00		 mov	 edx, DWORD PTR ?__LINE__Var@?0??set_local_int_value@@YGXPAUENTITY@@W4INT_TYPES@@H@Z@4JA
  00082	83 c2 32	 add	 edx, 50			; 00000032H
  00085	52		 push	 edx
  00086	68 00 00 00 00	 push	 OFFSET ??_C@_0EL@EMMMHEGL@c?3?2users?2nhv90?2projects?2eech?2ap@
  0008b	a1 00 00 00 00	 mov	 eax, DWORD PTR ?null_entity_pointer_message@@3PBDB ; null_entity_pointer_message
  00090	50		 push	 eax
  00091	e8 00 00 00 00	 call	 ?process_assert@@YGXPBD0H@Z ; process_assert
  00096	c7 45 b8 00 00
	00 00		 mov	 DWORD PTR tv86[ebp], 0
$LN11@set_local_:
  0009d	8b 0d 00 00 00
	00		 mov	 ecx, DWORD PTR ?__LINE__Var@?0??set_local_int_value@@YGXPAUENTITY@@W4INT_TYPES@@H@Z@4JA
  000a3	83 c1 32	 add	 ecx, 50			; 00000032H
  000a6	51		 push	 ecx
  000a7	68 00 00 00 00	 push	 OFFSET ??_C@_0EL@EMMMHEGL@c?3?2users?2nhv90?2projects?2eech?2ap@
  000ac	6b 55 0c 14	 imul	 edx, DWORD PTR _type$[ebp], 20
  000b0	8b 82 00 00 00
	00		 mov	 eax, DWORD PTR ?int_type_database@@3PAUINT_TYPE_DATA@@A[edx]
  000b6	50		 push	 eax
  000b7	8b 4d 08	 mov	 ecx, DWORD PTR _en$[ebp]
  000ba	2b 0d 00 00 00
	00		 sub	 ecx, DWORD PTR ?entities@@3PAUENTITY@@A ; entities
  000c0	c1 f9 04	 sar	 ecx, 4
  000c3	51		 push	 ecx
  000c4	6b 55 b8 0c	 imul	 edx, DWORD PTR tv86[ebp], 12
  000c8	8b 82 00 00 00
	00		 mov	 eax, DWORD PTR ?entity_type_database@@3PAUENTITY_TYPE_DATA@@A[edx]
  000ce	50		 push	 eax
  000cf	8b 0d 00 00 00
	00		 mov	 ecx, DWORD PTR ?debug_fatal_invalid_int_type_message@@3PBDB ; debug_fatal_invalid_int_type_message
  000d5	51		 push	 ecx
  000d6	e8 00 00 00 00	 call	 ?debug_fatal@@YAXPBDZZ	; debug_fatal
  000db	83 c4 18	 add	 esp, 24			; 00000018H
$LN1@set_local_:

; 131  : 
; 132  : 			break;
; 133  : 		}
; 134  : 	}
; 135  : }

  000de	5f		 pop	 edi
  000df	5e		 pop	 esi
  000e0	5b		 pop	 ebx
  000e1	8b e5		 mov	 esp, ebp
  000e3	5d		 pop	 ebp
  000e4	c2 0c 00	 ret	 12			; 0000000cH
  000e7	90		 npad	 1
$LN13@set_local_:
  000e8	00 00 00 00	 DD	 $LN4@set_local_
  000ec	00 00 00 00	 DD	 $LN7@set_local_
  000f0	00 00 00 00	 DD	 $LN5@set_local_
  000f4	00 00 00 00	 DD	 $LN6@set_local_
  000f8	00 00 00 00	 DD	 $LN8@set_local_
$LN12@set_local_:
  000fc	00		 DB	 0
  000fd	04		 DB	 4
  000fe	04		 DB	 4
  000ff	04		 DB	 4
  00100	04		 DB	 4
  00101	04		 DB	 4
  00102	04		 DB	 4
  00103	04		 DB	 4
  00104	04		 DB	 4
  00105	04		 DB	 4
  00106	04		 DB	 4
  00107	04		 DB	 4
  00108	04		 DB	 4
  00109	04		 DB	 4
  0010a	04		 DB	 4
  0010b	04		 DB	 4
  0010c	04		 DB	 4
  0010d	04		 DB	 4
  0010e	04		 DB	 4
  0010f	04		 DB	 4
  00110	04		 DB	 4
  00111	04		 DB	 4
  00112	04		 DB	 4
  00113	04		 DB	 4
  00114	04		 DB	 4
  00115	04		 DB	 4
  00116	04		 DB	 4
  00117	04		 DB	 4
  00118	04		 DB	 4
  00119	04		 DB	 4
  0011a	04		 DB	 4
  0011b	04		 DB	 4
  0011c	04		 DB	 4
  0011d	04		 DB	 4
  0011e	04		 DB	 4
  0011f	04		 DB	 4
  00120	04		 DB	 4
  00121	04		 DB	 4
  00122	04		 DB	 4
  00123	04		 DB	 4
  00124	04		 DB	 4
  00125	04		 DB	 4
  00126	04		 DB	 4
  00127	01		 DB	 1
  00128	04		 DB	 4
  00129	02		 DB	 2
  0012a	04		 DB	 4
  0012b	04		 DB	 4
  0012c	04		 DB	 4
  0012d	04		 DB	 4
  0012e	04		 DB	 4
  0012f	04		 DB	 4
  00130	04		 DB	 4
  00131	04		 DB	 4
  00132	04		 DB	 4
  00133	04		 DB	 4
  00134	04		 DB	 4
  00135	04		 DB	 4
  00136	04		 DB	 4
  00137	04		 DB	 4
  00138	04		 DB	 4
  00139	04		 DB	 4
  0013a	04		 DB	 4
  0013b	04		 DB	 4
  0013c	04		 DB	 4
  0013d	04		 DB	 4
  0013e	04		 DB	 4
  0013f	04		 DB	 4
  00140	04		 DB	 4
  00141	04		 DB	 4
  00142	04		 DB	 4
  00143	04		 DB	 4
  00144	04		 DB	 4
  00145	04		 DB	 4
  00146	04		 DB	 4
  00147	04		 DB	 4
  00148	04		 DB	 4
  00149	04		 DB	 4
  0014a	04		 DB	 4
  0014b	04		 DB	 4
  0014c	04		 DB	 4
  0014d	04		 DB	 4
  0014e	04		 DB	 4
  0014f	04		 DB	 4
  00150	04		 DB	 4
  00151	04		 DB	 4
  00152	04		 DB	 4
  00153	04		 DB	 4
  00154	04		 DB	 4
  00155	04		 DB	 4
  00156	04		 DB	 4
  00157	04		 DB	 4
  00158	04		 DB	 4
  00159	04		 DB	 4
  0015a	04		 DB	 4
  0015b	04		 DB	 4
  0015c	04		 DB	 4
  0015d	04		 DB	 4
  0015e	04		 DB	 4
  0015f	04		 DB	 4
  00160	04		 DB	 4
  00161	04		 DB	 4
  00162	04		 DB	 4
  00163	04		 DB	 4
  00164	04		 DB	 4
  00165	04		 DB	 4
  00166	04		 DB	 4
  00167	04		 DB	 4
  00168	04		 DB	 4
  00169	04		 DB	 4
  0016a	04		 DB	 4
  0016b	04		 DB	 4
  0016c	04		 DB	 4
  0016d	04		 DB	 4
  0016e	04		 DB	 4
  0016f	04		 DB	 4
  00170	04		 DB	 4
  00171	04		 DB	 4
  00172	04		 DB	 4
  00173	04		 DB	 4
  00174	04		 DB	 4
  00175	04		 DB	 4
  00176	04		 DB	 4
  00177	04		 DB	 4
  00178	04		 DB	 4
  00179	04		 DB	 4
  0017a	04		 DB	 4
  0017b	04		 DB	 4
  0017c	04		 DB	 4
  0017d	04		 DB	 4
  0017e	04		 DB	 4
  0017f	04		 DB	 4
  00180	04		 DB	 4
  00181	04		 DB	 4
  00182	04		 DB	 4
  00183	04		 DB	 4
  00184	04		 DB	 4
  00185	04		 DB	 4
  00186	04		 DB	 4
  00187	04		 DB	 4
  00188	04		 DB	 4
  00189	04		 DB	 4
  0018a	04		 DB	 4
  0018b	04		 DB	 4
  0018c	04		 DB	 4
  0018d	04		 DB	 4
  0018e	04		 DB	 4
  0018f	04		 DB	 4
  00190	04		 DB	 4
  00191	04		 DB	 4
  00192	04		 DB	 4
  00193	04		 DB	 4
  00194	04		 DB	 4
  00195	04		 DB	 4
  00196	04		 DB	 4
  00197	04		 DB	 4
  00198	04		 DB	 4
  00199	04		 DB	 4
  0019a	04		 DB	 4
  0019b	04		 DB	 4
  0019c	04		 DB	 4
  0019d	04		 DB	 4
  0019e	04		 DB	 4
  0019f	04		 DB	 4
  001a0	04		 DB	 4
  001a1	04		 DB	 4
  001a2	04		 DB	 4
  001a3	04		 DB	 4
  001a4	04		 DB	 4
  001a5	04		 DB	 4
  001a6	04		 DB	 4
  001a7	04		 DB	 4
  001a8	04		 DB	 4
  001a9	04		 DB	 4
  001aa	04		 DB	 4
  001ab	04		 DB	 4
  001ac	04		 DB	 4
  001ad	04		 DB	 4
  001ae	04		 DB	 4
  001af	04		 DB	 4
  001b0	04		 DB	 4
  001b1	04		 DB	 4
  001b2	04		 DB	 4
  001b3	04		 DB	 4
  001b4	04		 DB	 4
  001b5	04		 DB	 4
  001b6	04		 DB	 4
  001b7	04		 DB	 4
  001b8	04		 DB	 4
  001b9	04		 DB	 4
  001ba	04		 DB	 4
  001bb	04		 DB	 4
  001bc	04		 DB	 4
  001bd	04		 DB	 4
  001be	04		 DB	 4
  001bf	03		 DB	 3
?set_local_int_value@@YGXPAUENTITY@@W4INT_TYPES@@H@Z ENDP ; set_local_int_value
_TEXT	ENDS
; Function compile flags: /Odtp /ZI
; File c:\users\nhv90\projects\eech\aphavoc\source\entity\special\bridge\br_int.c
;	COMDAT ?overload_bridge_int_value_functions@@YGXXZ
_TEXT	SEGMENT
?overload_bridge_int_value_functions@@YGXXZ PROC	; overload_bridge_int_value_functions, COMDAT

; 253  : {

  00000	55		 push	 ebp
  00001	8b ec		 mov	 ebp, esp
  00003	83 ec 40	 sub	 esp, 64			; 00000040H
  00006	53		 push	 ebx
  00007	56		 push	 esi
  00008	57		 push	 edi

; 254  : 	fn_set_local_entity_raw_int_value		[ENTITY_TYPE_BRIDGE][INT_TYPE_ALIVE]									= set_local_int_value;

  00009	b8 5c 04 00 00	 mov	 eax, 1116		; 0000045cH
  0000e	d1 e0		 shl	 eax, 1
  00010	b9 04 00 00 00	 mov	 ecx, 4
  00015	6b d1 07	 imul	 edx, ecx, 7
  00018	c7 84 10 00 00
	00 00 00 00 00
	00		 mov	 DWORD PTR ?fn_set_local_entity_raw_int_value@@3PAY0BBH@P6GXPAUENTITY@@W4INT_TYPES@@H@ZA[eax+edx], OFFSET ?set_local_int_value@@YGXPAUENTITY@@W4INT_TYPES@@H@Z ; set_local_int_value

; 255  : 	fn_set_local_entity_int_value				[ENTITY_TYPE_BRIDGE][INT_TYPE_ALIVE]									= set_local_int_value;

  00023	b8 5c 04 00 00	 mov	 eax, 1116		; 0000045cH
  00028	d1 e0		 shl	 eax, 1
  0002a	b9 04 00 00 00	 mov	 ecx, 4
  0002f	6b d1 07	 imul	 edx, ecx, 7
  00032	c7 84 10 00 00
	00 00 00 00 00
	00		 mov	 DWORD PTR ?fn_set_local_entity_int_value@@3PAY0BBH@P6GXPAUENTITY@@W4INT_TYPES@@H@ZA[eax+edx], OFFSET ?set_local_int_value@@YGXPAUENTITY@@W4INT_TYPES@@H@Z ; set_local_int_value

; 256  : 	fn_set_client_server_entity_int_value	[ENTITY_TYPE_BRIDGE][INT_TYPE_ALIVE][COMMS_MODEL_SERVER]			= set_server_int_value;

  0003d	b8 b8 08 00 00	 mov	 eax, 2232		; 000008b8H
  00042	d1 e0		 shl	 eax, 1
  00044	b9 08 00 00 00	 mov	 ecx, 8
  00049	6b d1 07	 imul	 edx, ecx, 7
  0004c	8d 84 10 00 00
	00 00		 lea	 eax, DWORD PTR ?fn_set_client_server_entity_int_value@@3PAY1BBH@1P6GXPAUENTITY@@W4INT_TYPES@@H@ZA[eax+edx]
  00053	b9 04 00 00 00	 mov	 ecx, 4
  00058	6b d1 00	 imul	 edx, ecx, 0
  0005b	c7 04 10 00 00
	00 00		 mov	 DWORD PTR [eax+edx], OFFSET ?set_server_int_value@@YGXPAUENTITY@@W4INT_TYPES@@H@Z ; set_server_int_value

; 257  : 	fn_set_client_server_entity_int_value	[ENTITY_TYPE_BRIDGE][INT_TYPE_ALIVE][COMMS_MODEL_CLIENT]			= set_client_int_value;

  00062	b8 b8 08 00 00	 mov	 eax, 2232		; 000008b8H
  00067	d1 e0		 shl	 eax, 1
  00069	b9 08 00 00 00	 mov	 ecx, 8
  0006e	6b d1 07	 imul	 edx, ecx, 7
  00071	8d 84 10 00 00
	00 00		 lea	 eax, DWORD PTR ?fn_set_client_server_entity_int_value@@3PAY1BBH@1P6GXPAUENTITY@@W4INT_TYPES@@H@ZA[eax+edx]
  00078	b9 04 00 00 00	 mov	 ecx, 4
  0007d	c1 e1 00	 shl	 ecx, 0
  00080	c7 04 08 00 00
	00 00		 mov	 DWORD PTR [eax+ecx], OFFSET ?set_client_int_value@@YGXPAUENTITY@@W4INT_TYPES@@H@Z ; set_client_int_value

; 258  : 	fn_get_local_entity_int_value				[ENTITY_TYPE_BRIDGE][INT_TYPE_ALIVE]									= get_local_int_value;

  00087	b8 5c 04 00 00	 mov	 eax, 1116		; 0000045cH
  0008c	d1 e0		 shl	 eax, 1
  0008e	b9 04 00 00 00	 mov	 ecx, 4
  00093	6b d1 07	 imul	 edx, ecx, 7
  00096	c7 84 10 00 00
	00 00 00 00 00
	00		 mov	 DWORD PTR ?fn_get_local_entity_int_value@@3PAY0BBH@P6GHPAUENTITY@@W4INT_TYPES@@@ZA[eax+edx], OFFSET ?get_local_int_value@@YGHPAUENTITY@@W4INT_TYPES@@@Z ; get_local_int_value

; 259  : 
; 260  : 	fn_set_local_entity_raw_int_value		[ENTITY_TYPE_BRIDGE][INT_TYPE_ENTITY_SUB_TYPE]									= set_local_int_value;

  000a1	b8 5c 04 00 00	 mov	 eax, 1116		; 0000045cH
  000a6	d1 e0		 shl	 eax, 1
  000a8	b9 04 00 00 00	 mov	 ecx, 4
  000ad	6b d1 34	 imul	 edx, ecx, 52
  000b0	c7 84 10 00 00
	00 00 00 00 00
	00		 mov	 DWORD PTR ?fn_set_local_entity_raw_int_value@@3PAY0BBH@P6GXPAUENTITY@@W4INT_TYPES@@H@ZA[eax+edx], OFFSET ?set_local_int_value@@YGXPAUENTITY@@W4INT_TYPES@@H@Z ; set_local_int_value

; 261  : 	fn_set_local_entity_int_value				[ENTITY_TYPE_BRIDGE][INT_TYPE_ENTITY_SUB_TYPE]									= set_local_int_value;

  000bb	b8 5c 04 00 00	 mov	 eax, 1116		; 0000045cH
  000c0	d1 e0		 shl	 eax, 1
  000c2	b9 04 00 00 00	 mov	 ecx, 4
  000c7	6b d1 34	 imul	 edx, ecx, 52
  000ca	c7 84 10 00 00
	00 00 00 00 00
	00		 mov	 DWORD PTR ?fn_set_local_entity_int_value@@3PAY0BBH@P6GXPAUENTITY@@W4INT_TYPES@@H@ZA[eax+edx], OFFSET ?set_local_int_value@@YGXPAUENTITY@@W4INT_TYPES@@H@Z ; set_local_int_value

; 262  : 	fn_set_client_server_entity_int_value	[ENTITY_TYPE_BRIDGE][INT_TYPE_ENTITY_SUB_TYPE][COMMS_MODEL_SERVER]		= set_server_int_value;

  000d5	b8 b8 08 00 00	 mov	 eax, 2232		; 000008b8H
  000da	d1 e0		 shl	 eax, 1
  000dc	b9 08 00 00 00	 mov	 ecx, 8
  000e1	6b d1 34	 imul	 edx, ecx, 52
  000e4	8d 84 10 00 00
	00 00		 lea	 eax, DWORD PTR ?fn_set_client_server_entity_int_value@@3PAY1BBH@1P6GXPAUENTITY@@W4INT_TYPES@@H@ZA[eax+edx]
  000eb	b9 04 00 00 00	 mov	 ecx, 4
  000f0	6b d1 00	 imul	 edx, ecx, 0
  000f3	c7 04 10 00 00
	00 00		 mov	 DWORD PTR [eax+edx], OFFSET ?set_server_int_value@@YGXPAUENTITY@@W4INT_TYPES@@H@Z ; set_server_int_value

; 263  : 	fn_set_client_server_entity_int_value	[ENTITY_TYPE_BRIDGE][INT_TYPE_ENTITY_SUB_TYPE][COMMS_MODEL_CLIENT]		= set_client_int_value;

  000fa	b8 b8 08 00 00	 mov	 eax, 2232		; 000008b8H
  000ff	d1 e0		 shl	 eax, 1
  00101	b9 08 00 00 00	 mov	 ecx, 8
  00106	6b d1 34	 imul	 edx, ecx, 52
  00109	8d 84 10 00 00
	00 00		 lea	 eax, DWORD PTR ?fn_set_client_server_entity_int_value@@3PAY1BBH@1P6GXPAUENTITY@@W4INT_TYPES@@H@ZA[eax+edx]
  00110	b9 04 00 00 00	 mov	 ecx, 4
  00115	c1 e1 00	 shl	 ecx, 0
  00118	c7 04 08 00 00
	00 00		 mov	 DWORD PTR [eax+ecx], OFFSET ?set_client_int_value@@YGXPAUENTITY@@W4INT_TYPES@@H@Z ; set_client_int_value

; 264  : 	fn_get_local_entity_int_value				[ENTITY_TYPE_BRIDGE][INT_TYPE_ENTITY_SUB_TYPE]									= get_local_int_value;

  0011f	b8 5c 04 00 00	 mov	 eax, 1116		; 0000045cH
  00124	d1 e0		 shl	 eax, 1
  00126	b9 04 00 00 00	 mov	 ecx, 4
  0012b	6b d1 34	 imul	 edx, ecx, 52
  0012e	c7 84 10 00 00
	00 00 00 00 00
	00		 mov	 DWORD PTR ?fn_get_local_entity_int_value@@3PAY0BBH@P6GHPAUENTITY@@W4INT_TYPES@@@ZA[eax+edx], OFFSET ?get_local_int_value@@YGHPAUENTITY@@W4INT_TYPES@@@Z ; get_local_int_value

; 265  : 
; 266  : 	fn_set_local_entity_raw_int_value		[ENTITY_TYPE_BRIDGE][INT_TYPE_START_NODE]											= set_local_int_value;

  00139	b8 5c 04 00 00	 mov	 eax, 1116		; 0000045cH
  0013e	d1 e0		 shl	 eax, 1
  00140	b9 04 00 00 00	 mov	 ecx, 4
  00145	69 d1 ca 00 00
	00		 imul	 edx, ecx, 202
  0014b	c7 84 10 00 00
	00 00 00 00 00
	00		 mov	 DWORD PTR ?fn_set_local_entity_raw_int_value@@3PAY0BBH@P6GXPAUENTITY@@W4INT_TYPES@@H@ZA[eax+edx], OFFSET ?set_local_int_value@@YGXPAUENTITY@@W4INT_TYPES@@H@Z ; set_local_int_value

; 267  : 	fn_set_local_entity_int_value				[ENTITY_TYPE_BRIDGE][INT_TYPE_START_NODE]											= set_local_int_value;

  00156	b8 5c 04 00 00	 mov	 eax, 1116		; 0000045cH
  0015b	d1 e0		 shl	 eax, 1
  0015d	b9 04 00 00 00	 mov	 ecx, 4
  00162	69 d1 ca 00 00
	00		 imul	 edx, ecx, 202
  00168	c7 84 10 00 00
	00 00 00 00 00
	00		 mov	 DWORD PTR ?fn_set_local_entity_int_value@@3PAY0BBH@P6GXPAUENTITY@@W4INT_TYPES@@H@ZA[eax+edx], OFFSET ?set_local_int_value@@YGXPAUENTITY@@W4INT_TYPES@@H@Z ; set_local_int_value

; 268  : 	fn_set_client_server_entity_int_value	[ENTITY_TYPE_BRIDGE][INT_TYPE_START_NODE][COMMS_MODEL_SERVER]				= set_server_int_value;

  00173	b8 b8 08 00 00	 mov	 eax, 2232		; 000008b8H
  00178	d1 e0		 shl	 eax, 1
  0017a	b9 08 00 00 00	 mov	 ecx, 8
  0017f	69 d1 ca 00 00
	00		 imul	 edx, ecx, 202
  00185	8d 84 10 00 00
	00 00		 lea	 eax, DWORD PTR ?fn_set_client_server_entity_int_value@@3PAY1BBH@1P6GXPAUENTITY@@W4INT_TYPES@@H@ZA[eax+edx]
  0018c	b9 04 00 00 00	 mov	 ecx, 4
  00191	6b d1 00	 imul	 edx, ecx, 0
  00194	c7 04 10 00 00
	00 00		 mov	 DWORD PTR [eax+edx], OFFSET ?set_server_int_value@@YGXPAUENTITY@@W4INT_TYPES@@H@Z ; set_server_int_value

; 269  : 	fn_set_client_server_entity_int_value	[ENTITY_TYPE_BRIDGE][INT_TYPE_START_NODE][COMMS_MODEL_CLIENT]				= set_client_int_value;

  0019b	b8 b8 08 00 00	 mov	 eax, 2232		; 000008b8H
  001a0	d1 e0		 shl	 eax, 1
  001a2	b9 08 00 00 00	 mov	 ecx, 8
  001a7	69 d1 ca 00 00
	00		 imul	 edx, ecx, 202
  001ad	8d 84 10 00 00
	00 00		 lea	 eax, DWORD PTR ?fn_set_client_server_entity_int_value@@3PAY1BBH@1P6GXPAUENTITY@@W4INT_TYPES@@H@ZA[eax+edx]
  001b4	b9 04 00 00 00	 mov	 ecx, 4
  001b9	c1 e1 00	 shl	 ecx, 0
  001bc	c7 04 08 00 00
	00 00		 mov	 DWORD PTR [eax+ecx], OFFSET ?set_client_int_value@@YGXPAUENTITY@@W4INT_TYPES@@H@Z ; set_client_int_value

; 270  : 	fn_get_local_entity_int_value				[ENTITY_TYPE_BRIDGE][INT_TYPE_START_NODE]											= get_local_int_value;

  001c3	b8 5c 04 00 00	 mov	 eax, 1116		; 0000045cH
  001c8	d1 e0		 shl	 eax, 1
  001ca	b9 04 00 00 00	 mov	 ecx, 4
  001cf	69 d1 ca 00 00
	00		 imul	 edx, ecx, 202
  001d5	c7 84 10 00 00
	00 00 00 00 00
	00		 mov	 DWORD PTR ?fn_get_local_entity_int_value@@3PAY0BBH@P6GHPAUENTITY@@W4INT_TYPES@@@ZA[eax+edx], OFFSET ?get_local_int_value@@YGHPAUENTITY@@W4INT_TYPES@@@Z ; get_local_int_value

; 271  : 
; 272  : 	fn_set_local_entity_raw_int_value		[ENTITY_TYPE_BRIDGE][INT_TYPE_END_NODE]											= set_local_int_value;

  001e0	b8 5c 04 00 00	 mov	 eax, 1116		; 0000045cH
  001e5	d1 e0		 shl	 eax, 1
  001e7	b9 04 00 00 00	 mov	 ecx, 4
  001ec	6b d1 32	 imul	 edx, ecx, 50
  001ef	c7 84 10 00 00
	00 00 00 00 00
	00		 mov	 DWORD PTR ?fn_set_local_entity_raw_int_value@@3PAY0BBH@P6GXPAUENTITY@@W4INT_TYPES@@H@ZA[eax+edx], OFFSET ?set_local_int_value@@YGXPAUENTITY@@W4INT_TYPES@@H@Z ; set_local_int_value

; 273  : 	fn_set_local_entity_int_value				[ENTITY_TYPE_BRIDGE][INT_TYPE_END_NODE]											= set_local_int_value;

  001fa	b8 5c 04 00 00	 mov	 eax, 1116		; 0000045cH
  001ff	d1 e0		 shl	 eax, 1
  00201	b9 04 00 00 00	 mov	 ecx, 4
  00206	6b d1 32	 imul	 edx, ecx, 50
  00209	c7 84 10 00 00
	00 00 00 00 00
	00		 mov	 DWORD PTR ?fn_set_local_entity_int_value@@3PAY0BBH@P6GXPAUENTITY@@W4INT_TYPES@@H@ZA[eax+edx], OFFSET ?set_local_int_value@@YGXPAUENTITY@@W4INT_TYPES@@H@Z ; set_local_int_value

; 274  : 	fn_set_client_server_entity_int_value	[ENTITY_TYPE_BRIDGE][INT_TYPE_END_NODE][COMMS_MODEL_SERVER]					= set_server_int_value;

  00214	b8 b8 08 00 00	 mov	 eax, 2232		; 000008b8H
  00219	d1 e0		 shl	 eax, 1
  0021b	b9 08 00 00 00	 mov	 ecx, 8
  00220	6b d1 32	 imul	 edx, ecx, 50
  00223	8d 84 10 00 00
	00 00		 lea	 eax, DWORD PTR ?fn_set_client_server_entity_int_value@@3PAY1BBH@1P6GXPAUENTITY@@W4INT_TYPES@@H@ZA[eax+edx]
  0022a	b9 04 00 00 00	 mov	 ecx, 4
  0022f	6b d1 00	 imul	 edx, ecx, 0
  00232	c7 04 10 00 00
	00 00		 mov	 DWORD PTR [eax+edx], OFFSET ?set_server_int_value@@YGXPAUENTITY@@W4INT_TYPES@@H@Z ; set_server_int_value

; 275  : 	fn_set_client_server_entity_int_value	[ENTITY_TYPE_BRIDGE][INT_TYPE_END_NODE][COMMS_MODEL_CLIENT]					= set_client_int_value;

  00239	b8 b8 08 00 00	 mov	 eax, 2232		; 000008b8H
  0023e	d1 e0		 shl	 eax, 1
  00240	b9 08 00 00 00	 mov	 ecx, 8
  00245	6b d1 32	 imul	 edx, ecx, 50
  00248	8d 84 10 00 00
	00 00		 lea	 eax, DWORD PTR ?fn_set_client_server_entity_int_value@@3PAY1BBH@1P6GXPAUENTITY@@W4INT_TYPES@@H@ZA[eax+edx]
  0024f	b9 04 00 00 00	 mov	 ecx, 4
  00254	c1 e1 00	 shl	 ecx, 0
  00257	c7 04 08 00 00
	00 00		 mov	 DWORD PTR [eax+ecx], OFFSET ?set_client_int_value@@YGXPAUENTITY@@W4INT_TYPES@@H@Z ; set_client_int_value

; 276  : 	fn_get_local_entity_int_value				[ENTITY_TYPE_BRIDGE][INT_TYPE_END_NODE]											= get_local_int_value;

  0025e	b8 5c 04 00 00	 mov	 eax, 1116		; 0000045cH
  00263	d1 e0		 shl	 eax, 1
  00265	b9 04 00 00 00	 mov	 ecx, 4
  0026a	6b d1 32	 imul	 edx, ecx, 50
  0026d	c7 84 10 00 00
	00 00 00 00 00
	00		 mov	 DWORD PTR ?fn_get_local_entity_int_value@@3PAY0BBH@P6GHPAUENTITY@@W4INT_TYPES@@@ZA[eax+edx], OFFSET ?get_local_int_value@@YGHPAUENTITY@@W4INT_TYPES@@@Z ; get_local_int_value

; 277  : }

  00278	5f		 pop	 edi
  00279	5e		 pop	 esi
  0027a	5b		 pop	 ebx
  0027b	8b e5		 mov	 esp, ebp
  0027d	5d		 pop	 ebp
  0027e	c3		 ret	 0
?overload_bridge_int_value_functions@@YGXXZ ENDP	; overload_bridge_int_value_functions
_TEXT	ENDS
END
