; Listing generated by Microsoft (R) Optimizing Compiler Version 19.16.27045.0 

	TITLE	C:\Users\nhv90\Projects\eech\aphavoc\source\ai\faction\briefing.c
	.686P
	.XMM
	include listing.inc
	.model	flat

INCLUDELIB MSVCRTD
INCLUDELIB OLDNAMES

PUBLIC	?us_medal_type_names@@3PAPBDA			; us_medal_type_names
PUBLIC	?cis_medal_type_names@@3PAPBDA			; cis_medal_type_names
PUBLIC	?rank_type_names@@3PAPBDA			; rank_type_names
PUBLIC	?task_briefing_database@@3PAUTASK_BRIEFING_TYPE@@A ; task_briefing_database
PUBLIC	?extra_briefing_database@@3PAUEXTRA_BRIEFING_TYPE@@A ; extra_briefing_database
PUBLIC	?brief_filenames@@3PAPBDA			; brief_filenames
PUBLIC	??_C@_0N@MKPOFGHC@brief_en?4dat@		; `string'
PUBLIC	??_C@_0N@IPACIOAP@brief_fr?4dat@		; `string'
PUBLIC	??_C@_0N@GEOKNAF@brief_de?4dat@			; `string'
PUBLIC	??_C@_0N@KPBDBNPL@brief_it?4dat@		; `string'
PUBLIC	??_C@_0N@PHCMJMGN@brief_sp?4dat@		; `string'
PUBLIC	??_C@_0N@NHMPOFHH@brief_rs?4dat@		; `string'
PUBLIC	??_C@_0N@LCNAEEBA@brief_pl?4dat@		; `string'
PUBLIC	?briefing_substitutions@@3PAUBRIEFING_SUBSTITUTION_TYPE@@A ; briefing_substitutions
PUBLIC	??_C@_05NAIABEH@GROUP@				; `string'
PUBLIC	??_C@_07KMIMGCEM@KEYSITE@			; `string'
PUBLIC	??_C@_05FEAKLIED@MEDAL@				; `string'
PUBLIC	??_C@_08JPMAAECC@POSITION@			; `string'
PUBLIC	??_C@_04DBCPJNBF@RANK@				; `string'
PUBLIC	??_C@_06IHEMAHDD@SECTOR@			; `string'
PUBLIC	??_C@_0M@HKJIKBKL@TARGET_TYPE@			; `string'
_BSS	SEGMENT
?us_medal_type_names@@3PAPBDA DD 0dH DUP (?)		; us_medal_type_names
?cis_medal_type_names@@3PAPBDA DD 0dH DUP (?)		; cis_medal_type_names
?rank_type_names@@3PAPBDA DD 06H DUP (?)		; rank_type_names
?task_briefing_database@@3PAUTASK_BRIEFING_TYPE@@A DD 01H DUP (?) ; task_briefing_database
?extra_briefing_database@@3PAUEXTRA_BRIEFING_TYPE@@A DD 01H DUP (?) ; extra_briefing_database
_BSS	ENDS
;	COMDAT ??_C@_0M@HKJIKBKL@TARGET_TYPE@
CONST	SEGMENT
??_C@_0M@HKJIKBKL@TARGET_TYPE@ DB 'TARGET_TYPE', 00H	; `string'
CONST	ENDS
;	COMDAT ??_C@_06IHEMAHDD@SECTOR@
CONST	SEGMENT
??_C@_06IHEMAHDD@SECTOR@ DB 'SECTOR', 00H		; `string'
CONST	ENDS
;	COMDAT ??_C@_04DBCPJNBF@RANK@
CONST	SEGMENT
??_C@_04DBCPJNBF@RANK@ DB 'RANK', 00H			; `string'
CONST	ENDS
;	COMDAT ??_C@_08JPMAAECC@POSITION@
CONST	SEGMENT
??_C@_08JPMAAECC@POSITION@ DB 'POSITION', 00H		; `string'
CONST	ENDS
;	COMDAT ??_C@_05FEAKLIED@MEDAL@
CONST	SEGMENT
??_C@_05FEAKLIED@MEDAL@ DB 'MEDAL', 00H			; `string'
CONST	ENDS
;	COMDAT ??_C@_07KMIMGCEM@KEYSITE@
CONST	SEGMENT
??_C@_07KMIMGCEM@KEYSITE@ DB 'KEYSITE', 00H		; `string'
CONST	ENDS
;	COMDAT ??_C@_05NAIABEH@GROUP@
CONST	SEGMENT
??_C@_05NAIABEH@GROUP@ DB 'GROUP', 00H			; `string'
CONST	ENDS
;	COMDAT ??_C@_0N@LCNAEEBA@brief_pl?4dat@
CONST	SEGMENT
??_C@_0N@LCNAEEBA@brief_pl?4dat@ DB 'brief_pl.dat', 00H	; `string'
CONST	ENDS
;	COMDAT ??_C@_0N@NHMPOFHH@brief_rs?4dat@
CONST	SEGMENT
??_C@_0N@NHMPOFHH@brief_rs?4dat@ DB 'brief_rs.dat', 00H	; `string'
CONST	ENDS
;	COMDAT ??_C@_0N@PHCMJMGN@brief_sp?4dat@
CONST	SEGMENT
??_C@_0N@PHCMJMGN@brief_sp?4dat@ DB 'brief_sp.dat', 00H	; `string'
CONST	ENDS
;	COMDAT ??_C@_0N@KPBDBNPL@brief_it?4dat@
CONST	SEGMENT
??_C@_0N@KPBDBNPL@brief_it?4dat@ DB 'brief_it.dat', 00H	; `string'
CONST	ENDS
;	COMDAT ??_C@_0N@GEOKNAF@brief_de?4dat@
CONST	SEGMENT
??_C@_0N@GEOKNAF@brief_de?4dat@ DB 'brief_de.dat', 00H	; `string'
CONST	ENDS
;	COMDAT ??_C@_0N@IPACIOAP@brief_fr?4dat@
CONST	SEGMENT
??_C@_0N@IPACIOAP@brief_fr?4dat@ DB 'brief_fr.dat', 00H	; `string'
CONST	ENDS
;	COMDAT ??_C@_0N@MKPOFGHC@brief_en?4dat@
CONST	SEGMENT
??_C@_0N@MKPOFGHC@brief_en?4dat@ DB 'brief_en.dat', 00H	; `string'
CONST	ENDS
_DATA	SEGMENT
?brief_filenames@@3PAPBDA DD FLAT:??_C@_0N@MKPOFGHC@brief_en?4dat@ ; brief_filenames
	DD	FLAT:??_C@_0N@IPACIOAP@brief_fr?4dat@
	DD	FLAT:??_C@_0N@GEOKNAF@brief_de?4dat@
	DD	FLAT:??_C@_0N@KPBDBNPL@brief_it?4dat@
	DD	FLAT:??_C@_0N@PHCMJMGN@brief_sp?4dat@
	DD	FLAT:??_C@_0N@NHMPOFHH@brief_rs?4dat@
	DD	FLAT:??_C@_0N@LCNAEEBA@brief_pl?4dat@
	ORG $+4
?briefing_substitutions@@3PAUBRIEFING_SUBSTITUTION_TYPE@@A DD FLAT:??_C@_05NAIABEH@GROUP@ ; briefing_substitutions
	DD	00H
	DD	FLAT:?briefing_add_group@@YGXPAUENTITY@@W4MEDAL_TYPES@@W4PILOT_RANK_TYPES@@PAPAD@Z
	DD	FLAT:??_C@_07KMIMGCEM@KEYSITE@
	DD	00H
	DD	FLAT:?briefing_add_keysite@@YGXPAUENTITY@@W4MEDAL_TYPES@@W4PILOT_RANK_TYPES@@PAPAD@Z
	DD	FLAT:??_C@_05FEAKLIED@MEDAL@
	DD	00H
	DD	FLAT:?briefing_add_medal@@YGXPAUENTITY@@W4MEDAL_TYPES@@W4PILOT_RANK_TYPES@@PAPAD@Z
	DD	FLAT:??_C@_08JPMAAECC@POSITION@
	DD	00H
	DD	FLAT:?briefing_add_position@@YGXPAUENTITY@@W4MEDAL_TYPES@@W4PILOT_RANK_TYPES@@PAPAD@Z
	DD	FLAT:??_C@_04DBCPJNBF@RANK@
	DD	00H
	DD	FLAT:?briefing_add_rank@@YGXPAUENTITY@@W4MEDAL_TYPES@@W4PILOT_RANK_TYPES@@PAPAD@Z
	DD	FLAT:??_C@_06IHEMAHDD@SECTOR@
	DD	00H
	DD	FLAT:?briefing_add_sector@@YGXPAUENTITY@@W4MEDAL_TYPES@@W4PILOT_RANK_TYPES@@PAPAD@Z
	DD	FLAT:??_C@_0M@HKJIKBKL@TARGET_TYPE@
	DD	00H
	DD	FLAT:?briefing_add_target_type@@YGXPAUENTITY@@W4MEDAL_TYPES@@W4PILOT_RANK_TYPES@@PAPAD@Z
_DATA	ENDS
PUBLIC	___local_stdio_printf_options
PUBLIC	__vsnprintf_l
PUBLIC	__vsprintf_l
PUBLIC	_sprintf
PUBLIC	?strstr@@YAPADQADQBD@Z				; strstr
PUBLIC	?initialise_briefing_parser@@YGXXZ		; initialise_briefing_parser
PUBLIC	?deinitialise_briefing_parser@@YGXXZ		; deinitialise_briefing_parser
PUBLIC	?get_briefing_text@@YGHPAUENTITY@@PAD11@Z	; get_briefing_text
PUBLIC	?get_debriefing_text@@YGHPAUENTITY@@PAPAD1@Z	; get_debriefing_text
PUBLIC	?get_medal_briefing_text@@YGHPAUENTITY@@HPAD@Z	; get_medal_briefing_text
PUBLIC	?get_promotion_briefing_text@@YGHPAUENTITY@@HPAD@Z ; get_promotion_briefing_text
PUBLIC	?get_objective_briefing_text@@YGHPAUENTITY@@HPAD@Z ; get_objective_briefing_text
PUBLIC	?_OptionsStorage@?1??__local_stdio_printf_options@@9@4_KA ; `__local_stdio_printf_options'::`2'::_OptionsStorage
PUBLIC	??_C@_02DKCKIIND@?$CFs@				; `string'
PUBLIC	?__LINE__Var@?0??initialise_briefing_parser@@YGXXZ@4JA ; `initialise_briefing_parser'::`1'::__LINE__Var
PUBLIC	??_C@_0EC@JLKMNKLD@c?3?2users?2nhv90?2projects?2eech?2ap@ ; `string'
PUBLIC	??_C@_0CC@EEKIOPJL@get_valid_current_game_session?5@ ; `string'
PUBLIC	??_C@_0BA@DEKILMDL@?4?4?2common?2data?2@	; `string'
PUBLIC	??_C@_04HDOCAJNK@?$CFs?$CFs@			; `string'
PUBLIC	??_C@_01KDCPPGHE@r@				; `string'
PUBLIC	??_C@_0FG@DLGLHDID@task_briefing_database?5?$FLtask_ty@ ; `string'
PUBLIC	??_C@_0FG@HGIDHDOE@task_briefing_database?5?$FLtask_ty@ ; `string'
PUBLIC	??_C@_0FG@PLALIOAG@task_briefing_database?5?$FLtask_ty@ ; `string'
PUBLIC	??_C@_0BJ@HMINENEM@BRIEFING?3?5unknown?5tag?5?$CFd@ ; `string'
PUBLIC	??_C@_0FP@HCJIGHGK@task_briefing_database?5?$FLtask_ty@ ; `string'
PUBLIC	??_C@_0FP@GMBBCKNI@task_briefing_database?5?$FLtask_ty@ ; `string'
PUBLIC	??_C@_0FP@IODPDAIO@task_briefing_database?5?$FLtask_ty@ ; `string'
PUBLIC	??_C@_0BI@NHAOLFJJ@result?5?$DN?$DN?5FILE_TAG_TYPE@ ; `string'
PUBLIC	??_C@_0BJ@DCBJLJMM@result?5?$DN?$DN?5FILE_TAG_TEXT1@ ; `string'
PUBLIC	?__LINE__Var@?0??briefing_add_position@@YGXPAUENTITY@@W4MEDAL_TYPES@@W4PILOT_RANK_TYPES@@PAPAD@Z@4JA ; `briefing_add_position'::`1'::__LINE__Var
PUBLIC	??_C@_07CHKKAENF@?$CFd?5?3?5?$CFd@		; `string'
PUBLIC	?__LINE__Var@?0??briefing_add_sector@@YGXPAUENTITY@@W4MEDAL_TYPES@@W4PILOT_RANK_TYPES@@PAPAD@Z@4JA ; `briefing_add_sector'::`1'::__LINE__Var
PUBLIC	??_C@_06EMNKOAHN@Sector@			; `string'
PUBLIC	??_C@_0P@HPNEGNCK@?$CFs?5?$FL?$CF03d?3?$CF03d?$FN@ ; `string'
PUBLIC	??_C@_0N@IKDPDOME@?5?$FL?$CF03d?3?$CF03d?$FN@	; `string'
PUBLIC	?__LINE__Var@?0??briefing_add_keysite@@YGXPAUENTITY@@W4MEDAL_TYPES@@W4PILOT_RANK_TYPES@@PAPAD@Z@4JA ; `briefing_add_keysite'::`1'::__LINE__Var
PUBLIC	??_C@_0FP@OOKDOKOG@BRIEFING?3?5Trying?5to?5build?5brief@ ; `string'
PUBLIC	??_C@_0EB@LLPJPGGK@BRIEFING?3?5Trying?5to?5build?5brief@ ; `string'
PUBLIC	?__LINE__Var@?0??briefing_add_group@@YGXPAUENTITY@@W4MEDAL_TYPES@@W4PILOT_RANK_TYPES@@PAPAD@Z@4JA ; `briefing_add_group'::`1'::__LINE__Var
PUBLIC	??_C@_07MLNBPDHK@company@			; `string'
PUBLIC	??_C@_02KEGNLNML@?0?5@				; `string'
PUBLIC	??_C@_0FN@HMMMHNJO@BRIEFING?3?5Trying?5to?5build?5brief@ ; `string'
PUBLIC	?__LINE__Var@?0??briefing_add_target_type@@YGXPAUENTITY@@W4MEDAL_TYPES@@W4PILOT_RANK_TYPES@@PAPAD@Z@4JA ; `briefing_add_target_type'::`1'::__LINE__Var
PUBLIC	?__LINE__Var@?0??get_briefing_text@@YGHPAUENTITY@@PAD11@Z@4JA ; `get_briefing_text'::`1'::__LINE__Var
PUBLIC	??_C@_0CO@KFNBFGBK@BRIEFING?3?5WARNING?3?5no?5briefing?5@ ; `string'
PUBLIC	?__LINE__Var@?0??get_debriefing_text@@YGHPAUENTITY@@PAPAD1@Z@4JA ; `get_debriefing_text'::`1'::__LINE__Var
PUBLIC	??_C@_04GGKLLKOO@task@				; `string'
PUBLIC	??_C@_0DE@GOGDJCBO@BRIEFING?3?5Doing?5debrief?5for?5inc@ ; `string'
PUBLIC	?__LINE__Var@?0??get_medal_briefing_text@@YGHPAUENTITY@@HPAD@Z@4JA ; `get_medal_briefing_text'::`1'::__LINE__Var
PUBLIC	??_C@_0BL@MIKGJDHO@this_medal?9?$DOtext_count?5?$DO?50@ ; `string'
PUBLIC	??_C@_0CI@NJFNEKAJ@BRIEFING?3?5WARNING?3?5no?5medal?5tex@ ; `string'
PUBLIC	?__LINE__Var@?0??get_promotion_briefing_text@@YGHPAUENTITY@@HPAD@Z@4JA ; `get_promotion_briefing_text'::`1'::__LINE__Var
PUBLIC	??_C@_0BK@POHGJKOG@this_rank?9?$DOtext_count?5?$DO?50@ ; `string'
PUBLIC	??_C@_0CH@HDHGFPDN@BRIEFING?3?5WARNING?3?5no?5rank?5text@ ; `string'
PUBLIC	?__LINE__Var@?0??get_objective_briefing_text@@YGHPAUENTITY@@HPAD@Z@4JA ; `get_objective_briefing_text'::`1'::__LINE__Var
PUBLIC	??_C@_0BP@EOIHHHKG@this_objective?9?$DOtext_count?5?$DO?50@ ; `string'
PUBLIC	??_C@_0CM@CCOFBLGF@BRIEFING?3?5WARNING?3?5no?5objective@ ; `string'
EXTRN	__imp__fclose:PROC
EXTRN	__imp____stdio_common_vsprintf:PROC
EXTRN	_memset:PROC
EXTRN	_strstr:PROC
EXTRN	_strcat:PROC
EXTRN	_strcpy:PROC
EXTRN	_strlen:PROC
EXTRN	?process_assert@@YGXPBD0H@Z:PROC		; process_assert
EXTRN	?convert_float_to_int@@YGXMPAH@Z:PROC		; convert_float_to_int
EXTRN	?debug_fatal@@YAXPBDZZ:PROC			; debug_fatal
EXTRN	?debug_log@@YAXPBDZZ:PROC			; debug_log
EXTRN	?safe_fopen@@YGPAU_iobuf@@PBD0@Z:PROC		; safe_fopen
EXTRN	?malloc_heap_memory@@YGPAXI@Z:PROC		; malloc_heap_memory
EXTRN	?free_mem@@YGXPAX@Z:PROC			; free_mem
EXTRN	?get_next_file_tag@@YGHPAU_iobuf@@QAPBDH@Z:PROC	; get_next_file_tag
EXTRN	?check_next_file_tag@@YGHPAU_iobuf@@QAPBDH@Z:PROC ; check_next_file_tag
EXTRN	?get_next_file_paragraph@@YGHPAU_iobuf@@PADH@Z:PROC ; get_next_file_paragraph
EXTRN	?get_next_file_enum@@YGHPAU_iobuf@@QAPBDH@Z:PROC ; get_next_file_enum
EXTRN	?get_task_friendly_fire_incidents@@YGHPAUENTITY@@@Z:PROC ; get_task_friendly_fire_incidents
EXTRN	?get_trans@@YGPBDPBD@Z:PROC			; get_trans
EXTRN	?entity_sub_type_keysite_names@@3PAPBDA:BYTE	; entity_sub_type_keysite_names
EXTRN	?entity_sub_type_task_names@@3PAPBDA:BYTE	; entity_sub_type_task_names
EXTRN	?null_entity_pointer_message@@3PBDB:DWORD	; null_entity_pointer_message
EXTRN	?global_options@@3UGLOBAL_OPTIONS_DATA@@A:BYTE	; global_options
EXTRN	?world_map@@3UWORLD_MAP_DATA@@A:BYTE		; world_map
EXTRN	?overload_invalid_list_type_message@@3PBDB:DWORD ; overload_invalid_list_type_message
EXTRN	?fn_get_local_entity_parent@@3PAY0CN@P6GPAUENTITY@@PAU1@W4LIST_TYPES@@@ZA:BYTE ; fn_get_local_entity_parent
EXTRN	?overload_invalid_int_type_message@@3PBDB:DWORD	; overload_invalid_int_type_message
EXTRN	?fn_get_local_entity_int_value@@3PAY0BBH@P6GHPAUENTITY@@W4INT_TYPES@@@ZA:BYTE ; fn_get_local_entity_int_value
EXTRN	?overload_invalid_string_type_message@@3PBDB:DWORD ; overload_invalid_string_type_message
EXTRN	?fn_get_local_entity_string@@3PAY0N@P6GPBDPAUENTITY@@W4STRING_TYPES@@@ZA:BYTE ; fn_get_local_entity_string
EXTRN	?overload_invalid_vec3d_type_message@@3PBDB:DWORD ; overload_invalid_vec3d_type_message
EXTRN	?fn_get_local_entity_vec3d_ptr@@3PAY0BI@P6GPAUVEC3D@@PAUENTITY@@W4VEC3D_TYPES@@@ZA:BYTE ; fn_get_local_entity_vec3d_ptr
EXTRN	?entities@@3PAUENTITY@@A:DWORD			; entities
EXTRN	?application_tag_strings@@3PAPBDA:BYTE		; application_tag_strings
EXTRN	?pilot_rank_names@@3PAPBDA:BYTE			; pilot_rank_names
EXTRN	?medal_type_names@@3PAPBDA:BYTE			; medal_type_names
EXTRN	?current_game_session@@3PAUSESSION_LIST_DATA_TYPE@@A:DWORD ; current_game_session
EXTRN	__fltused:DWORD
;	COMDAT ?_OptionsStorage@?1??__local_stdio_printf_options@@9@4_KA
_BSS	SEGMENT
?_OptionsStorage@?1??__local_stdio_printf_options@@9@4_KA DQ 01H DUP (?) ; `__local_stdio_printf_options'::`2'::_OptionsStorage
_BSS	ENDS
;	COMDAT ??_C@_0CM@CCOFBLGF@BRIEFING?3?5WARNING?3?5no?5objective@
CONST	SEGMENT
??_C@_0CM@CCOFBLGF@BRIEFING?3?5WARNING?3?5no?5objective@ DB 'BRIEFING: WA'
	DB	'RNING: no objective text for %s', 00H	; `string'
CONST	ENDS
;	COMDAT ??_C@_0BP@EOIHHHKG@this_objective?9?$DOtext_count?5?$DO?50@
CONST	SEGMENT
??_C@_0BP@EOIHHHKG@this_objective?9?$DOtext_count?5?$DO?50@ DB 'this_obje'
	DB	'ctive->text_count > 0', 00H			; `string'
CONST	ENDS
;	COMDAT ?__LINE__Var@?0??get_objective_briefing_text@@YGHPAUENTITY@@HPAD@Z@4JA
_DATA	SEGMENT
?__LINE__Var@?0??get_objective_briefing_text@@YGHPAUENTITY@@HPAD@Z@4JA DD 0598H ; `get_objective_briefing_text'::`1'::__LINE__Var
_DATA	ENDS
;	COMDAT ??_C@_0CH@HDHGFPDN@BRIEFING?3?5WARNING?3?5no?5rank?5text@
CONST	SEGMENT
??_C@_0CH@HDHGFPDN@BRIEFING?3?5WARNING?3?5no?5rank?5text@ DB 'BRIEFING: W'
	DB	'ARNING: no rank text for %s', 00H		; `string'
CONST	ENDS
;	COMDAT ??_C@_0BK@POHGJKOG@this_rank?9?$DOtext_count?5?$DO?50@
CONST	SEGMENT
??_C@_0BK@POHGJKOG@this_rank?9?$DOtext_count?5?$DO?50@ DB 'this_rank->tex'
	DB	't_count > 0', 00H				; `string'
CONST	ENDS
;	COMDAT ?__LINE__Var@?0??get_promotion_briefing_text@@YGHPAUENTITY@@HPAD@Z@4JA
_DATA	SEGMENT
?__LINE__Var@?0??get_promotion_briefing_text@@YGHPAUENTITY@@HPAD@Z@4JA DD 0574H ; `get_promotion_briefing_text'::`1'::__LINE__Var
_DATA	ENDS
;	COMDAT ??_C@_0CI@NJFNEKAJ@BRIEFING?3?5WARNING?3?5no?5medal?5tex@
CONST	SEGMENT
??_C@_0CI@NJFNEKAJ@BRIEFING?3?5WARNING?3?5no?5medal?5tex@ DB 'BRIEFING: W'
	DB	'ARNING: no medal text for %s', 00H		; `string'
CONST	ENDS
;	COMDAT ??_C@_0BL@MIKGJDHO@this_medal?9?$DOtext_count?5?$DO?50@
CONST	SEGMENT
??_C@_0BL@MIKGJDHO@this_medal?9?$DOtext_count?5?$DO?50@ DB 'this_medal->t'
	DB	'ext_count > 0', 00H				; `string'
CONST	ENDS
;	COMDAT ?__LINE__Var@?0??get_medal_briefing_text@@YGHPAUENTITY@@HPAD@Z@4JA
_DATA	SEGMENT
?__LINE__Var@?0??get_medal_briefing_text@@YGHPAUENTITY@@HPAD@Z@4JA DD 0551H ; `get_medal_briefing_text'::`1'::__LINE__Var
_DATA	ENDS
;	COMDAT ??_C@_0DE@GOGDJCBO@BRIEFING?3?5Doing?5debrief?5for?5inc@
CONST	SEGMENT
??_C@_0DE@GOGDJCBO@BRIEFING?3?5Doing?5debrief?5for?5inc@ DB 'BRIEFING: Do'
	DB	'ing debrief for incomplete task %s (%d)', 00H ; `string'
CONST	ENDS
;	COMDAT ??_C@_04GGKLLKOO@task@
CONST	SEGMENT
??_C@_04GGKLLKOO@task@ DB 'task', 00H			; `string'
CONST	ENDS
;	COMDAT ?__LINE__Var@?0??get_debriefing_text@@YGHPAUENTITY@@PAPAD1@Z@4JA
_DATA	SEGMENT
?__LINE__Var@?0??get_debriefing_text@@YGHPAUENTITY@@PAPAD1@Z@4JA DD 04edH ; `get_debriefing_text'::`1'::__LINE__Var
_DATA	ENDS
;	COMDAT ??_C@_0CO@KFNBFGBK@BRIEFING?3?5WARNING?3?5no?5briefing?5@
CONST	SEGMENT
??_C@_0CO@KFNBFGBK@BRIEFING?3?5WARNING?3?5no?5briefing?5@ DB 'BRIEFING: W'
	DB	'ARNING: no briefing for mission %s', 00H	; `string'
CONST	ENDS
;	COMDAT ?__LINE__Var@?0??get_briefing_text@@YGHPAUENTITY@@PAD11@Z@4JA
_DATA	SEGMENT
?__LINE__Var@?0??get_briefing_text@@YGHPAUENTITY@@PAD11@Z@4JA DD 04a1H ; `get_briefing_text'::`1'::__LINE__Var
_DATA	ENDS
;	COMDAT ?__LINE__Var@?0??briefing_add_target_type@@YGXPAUENTITY@@W4MEDAL_TYPES@@W4PILOT_RANK_TYPES@@PAPAD@Z@4JA
_DATA	SEGMENT
?__LINE__Var@?0??briefing_add_target_type@@YGXPAUENTITY@@W4MEDAL_TYPES@@W4PILOT_RANK_TYPES@@PAPAD@Z@4JA DD 0417H ; `briefing_add_target_type'::`1'::__LINE__Var
_DATA	ENDS
;	COMDAT ??_C@_0FN@HMMMHNJO@BRIEFING?3?5Trying?5to?5build?5brief@
CONST	SEGMENT
??_C@_0FN@HMMMHNJO@BRIEFING?3?5Trying?5to?5build?5brief@ DB 'BRIEFING: Tr'
	DB	'ying to build briefing text for %s (%d) mission but object is'
	DB	'n''t a group %s (%d)', 00H			; `string'
CONST	ENDS
;	COMDAT ??_C@_02KEGNLNML@?0?5@
CONST	SEGMENT
??_C@_02KEGNLNML@?0?5@ DB ', ', 00H			; `string'
CONST	ENDS
;	COMDAT ??_C@_07MLNBPDHK@company@
CONST	SEGMENT
??_C@_07MLNBPDHK@company@ DB 'company', 00H		; `string'
CONST	ENDS
;	COMDAT ?__LINE__Var@?0??briefing_add_group@@YGXPAUENTITY@@W4MEDAL_TYPES@@W4PILOT_RANK_TYPES@@PAPAD@Z@4JA
_DATA	SEGMENT
?__LINE__Var@?0??briefing_add_group@@YGXPAUENTITY@@W4MEDAL_TYPES@@W4PILOT_RANK_TYPES@@PAPAD@Z@4JA DD 03e9H ; `briefing_add_group'::`1'::__LINE__Var
_DATA	ENDS
;	COMDAT ??_C@_0EB@LLPJPGGK@BRIEFING?3?5Trying?5to?5build?5brief@
CONST	SEGMENT
??_C@_0EB@LLPJPGGK@BRIEFING?3?5Trying?5to?5build?5brief@ DB 'BRIEFING: Tr'
	DB	'ying to build briefing text for %s (%d) unknown type', 00H ; `string'
CONST	ENDS
;	COMDAT ??_C@_0FP@OOKDOKOG@BRIEFING?3?5Trying?5to?5build?5brief@
CONST	SEGMENT
??_C@_0FP@OOKDOKOG@BRIEFING?3?5Trying?5to?5build?5brief@ DB 'BRIEFING: Tr'
	DB	'ying to build briefing text for %s (%d) mission but object is'
	DB	'n''t a keysite %s (%d)', 00H		; `string'
CONST	ENDS
;	COMDAT ?__LINE__Var@?0??briefing_add_keysite@@YGXPAUENTITY@@W4MEDAL_TYPES@@W4PILOT_RANK_TYPES@@PAPAD@Z@4JA
_DATA	SEGMENT
?__LINE__Var@?0??briefing_add_keysite@@YGXPAUENTITY@@W4MEDAL_TYPES@@W4PILOT_RANK_TYPES@@PAPAD@Z@4JA DD 0395H ; `briefing_add_keysite'::`1'::__LINE__Var
_DATA	ENDS
;	COMDAT ??_C@_0N@IKDPDOME@?5?$FL?$CF03d?3?$CF03d?$FN@
CONST	SEGMENT
??_C@_0N@IKDPDOME@?5?$FL?$CF03d?3?$CF03d?$FN@ DB ' [%03d:%03d]', 00H ; `string'
CONST	ENDS
;	COMDAT ??_C@_0P@HPNEGNCK@?$CFs?5?$FL?$CF03d?3?$CF03d?$FN@
CONST	SEGMENT
??_C@_0P@HPNEGNCK@?$CFs?5?$FL?$CF03d?3?$CF03d?$FN@ DB '%s [%03d:%03d]', 00H ; `string'
CONST	ENDS
;	COMDAT ??_C@_06EMNKOAHN@Sector@
CONST	SEGMENT
??_C@_06EMNKOAHN@Sector@ DB 'Sector', 00H		; `string'
CONST	ENDS
;	COMDAT ?__LINE__Var@?0??briefing_add_sector@@YGXPAUENTITY@@W4MEDAL_TYPES@@W4PILOT_RANK_TYPES@@PAPAD@Z@4JA
_DATA	SEGMENT
?__LINE__Var@?0??briefing_add_sector@@YGXPAUENTITY@@W4MEDAL_TYPES@@W4PILOT_RANK_TYPES@@PAPAD@Z@4JA DD 035eH ; `briefing_add_sector'::`1'::__LINE__Var
_DATA	ENDS
;	COMDAT ??_C@_07CHKKAENF@?$CFd?5?3?5?$CFd@
CONST	SEGMENT
??_C@_07CHKKAENF@?$CFd?5?3?5?$CFd@ DB '%d : %d', 00H	; `string'
CONST	ENDS
;	COMDAT ?__LINE__Var@?0??briefing_add_position@@YGXPAUENTITY@@W4MEDAL_TYPES@@W4PILOT_RANK_TYPES@@PAPAD@Z@4JA
_DATA	SEGMENT
?__LINE__Var@?0??briefing_add_position@@YGXPAUENTITY@@W4MEDAL_TYPES@@W4PILOT_RANK_TYPES@@PAPAD@Z@4JA DD 0336H ; `briefing_add_position'::`1'::__LINE__Var
_DATA	ENDS
;	COMDAT ??_C@_0BJ@DCBJLJMM@result?5?$DN?$DN?5FILE_TAG_TEXT1@
CONST	SEGMENT
??_C@_0BJ@DCBJLJMM@result?5?$DN?$DN?5FILE_TAG_TEXT1@ DB 'result == FILE_T'
	DB	'AG_TEXT1', 00H				; `string'
CONST	ENDS
;	COMDAT ??_C@_0BI@NHAOLFJJ@result?5?$DN?$DN?5FILE_TAG_TYPE@
CONST	SEGMENT
??_C@_0BI@NHAOLFJJ@result?5?$DN?$DN?5FILE_TAG_TYPE@ DB 'result == FILE_TA'
	DB	'G_TYPE', 00H				; `string'
CONST	ENDS
;	COMDAT ??_C@_0FP@IODPDAIO@task_briefing_database?5?$FLtask_ty@
CONST	SEGMENT
??_C@_0FP@IODPDAIO@task_briefing_database?5?$FLtask_ty@ DB 'task_briefing'
	DB	'_database [task_type].debriefing_text_failure_count < MAX_NUM'
	DB	'BER_OF_MISSION_TEXTS', 00H			; `string'
CONST	ENDS
;	COMDAT ??_C@_0FP@GMBBCKNI@task_briefing_database?5?$FLtask_ty@
CONST	SEGMENT
??_C@_0FP@GMBBCKNI@task_briefing_database?5?$FLtask_ty@ DB 'task_briefing'
	DB	'_database [task_type].debriefing_text_partial_count < MAX_NUM'
	DB	'BER_OF_MISSION_TEXTS', 00H			; `string'
CONST	ENDS
;	COMDAT ??_C@_0FP@HCJIGHGK@task_briefing_database?5?$FLtask_ty@
CONST	SEGMENT
??_C@_0FP@HCJIGHGK@task_briefing_database?5?$FLtask_ty@ DB 'task_briefing'
	DB	'_database [task_type].debriefing_text_success_count < MAX_NUM'
	DB	'BER_OF_MISSION_TEXTS', 00H			; `string'
CONST	ENDS
;	COMDAT ??_C@_0BJ@HMINENEM@BRIEFING?3?5unknown?5tag?5?$CFd@
CONST	SEGMENT
??_C@_0BJ@HMINENEM@BRIEFING?3?5unknown?5tag?5?$CFd@ DB 'BRIEFING: unknown'
	DB	' tag %d', 00H				; `string'
CONST	ENDS
;	COMDAT ??_C@_0FG@PLALIOAG@task_briefing_database?5?$FLtask_ty@
CONST	SEGMENT
??_C@_0FG@PLALIOAG@task_briefing_database?5?$FLtask_ty@ DB 'task_briefing'
	DB	'_database [task_type].briefing_text3_count < MAX_NUMBER_OF_MI'
	DB	'SSION_TEXTS', 00H				; `string'
CONST	ENDS
;	COMDAT ??_C@_0FG@HGIDHDOE@task_briefing_database?5?$FLtask_ty@
CONST	SEGMENT
??_C@_0FG@HGIDHDOE@task_briefing_database?5?$FLtask_ty@ DB 'task_briefing'
	DB	'_database [task_type].briefing_text2_count < MAX_NUMBER_OF_MI'
	DB	'SSION_TEXTS', 00H				; `string'
CONST	ENDS
;	COMDAT ??_C@_0FG@DLGLHDID@task_briefing_database?5?$FLtask_ty@
CONST	SEGMENT
??_C@_0FG@DLGLHDID@task_briefing_database?5?$FLtask_ty@ DB 'task_briefing'
	DB	'_database [task_type].briefing_text1_count < MAX_NUMBER_OF_MI'
	DB	'SSION_TEXTS', 00H				; `string'
CONST	ENDS
;	COMDAT ??_C@_01KDCPPGHE@r@
CONST	SEGMENT
??_C@_01KDCPPGHE@r@ DB 'r', 00H				; `string'
CONST	ENDS
;	COMDAT ??_C@_04HDOCAJNK@?$CFs?$CFs@
CONST	SEGMENT
??_C@_04HDOCAJNK@?$CFs?$CFs@ DB '%s%s', 00H		; `string'
CONST	ENDS
;	COMDAT ??_C@_0BA@DEKILMDL@?4?4?2common?2data?2@
CONST	SEGMENT
??_C@_0BA@DEKILMDL@?4?4?2common?2data?2@ DB '..\common\data\', 00H ; `string'
CONST	ENDS
;	COMDAT ??_C@_0CC@EEKIOPJL@get_valid_current_game_session?5@
CONST	SEGMENT
??_C@_0CC@EEKIOPJL@get_valid_current_game_session?5@ DB 'get_valid_curren'
	DB	't_game_session ()', 00H			; `string'
CONST	ENDS
;	COMDAT ??_C@_0EC@JLKMNKLD@c?3?2users?2nhv90?2projects?2eech?2ap@
CONST	SEGMENT
??_C@_0EC@JLKMNKLD@c?3?2users?2nhv90?2projects?2eech?2ap@ DB 'c:\users\nh'
	DB	'v90\projects\eech\aphavoc\source\ai\faction\briefing.c', 00H ; `string'
CONST	ENDS
;	COMDAT ?__LINE__Var@?0??initialise_briefing_parser@@YGXXZ@4JA
_DATA	SEGMENT
?__LINE__Var@?0??initialise_briefing_parser@@YGXXZ@4JA DD 0d2H ; `initialise_briefing_parser'::`1'::__LINE__Var
_DATA	ENDS
;	COMDAT ??_C@_02DKCKIIND@?$CFs@
CONST	SEGMENT
??_C@_02DKCKIIND@?$CFs@ DB '%s', 00H			; `string'
CONST	ENDS
; Function compile flags: /Odtp /ZI
; File c:\users\nhv90\projects\eech\aphavoc\source\ai\faction\briefing.c
;	COMDAT ?get_extra_briefing_data@@YGPAUEXTRA_BRIEFING_TYPE@@W4EXTRA_BRIEFING_TYPES@@H@Z
_TEXT	SEGMENT
tv68 = -72						; size = 4
_this_item$ = -4					; size = 4
_type$ = 8						; size = 4
_sub_type$ = 12						; size = 4
?get_extra_briefing_data@@YGPAUEXTRA_BRIEFING_TYPE@@W4EXTRA_BRIEFING_TYPES@@H@Z PROC ; get_extra_briefing_data, COMDAT

; 1134 : {

  00000	55		 push	 ebp
  00001	8b ec		 mov	 ebp, esp
  00003	83 ec 48	 sub	 esp, 72			; 00000048H
  00006	53		 push	 ebx
  00007	56		 push	 esi
  00008	57		 push	 edi

; 1135 : 
; 1136 : 	extra_briefing_type
; 1137 : 		*this_item;
; 1138 : 
; 1139 : 	this_item = extra_briefing_database;

  00009	a1 00 00 00 00	 mov	 eax, DWORD PTR ?extra_briefing_database@@3PAUEXTRA_BRIEFING_TYPE@@A ; extra_briefing_database
  0000e	89 45 fc	 mov	 DWORD PTR _this_item$[ebp], eax
$LN2@get_extra_:

; 1140 : 
; 1141 : 	while (this_item)

  00011	83 7d fc 00	 cmp	 DWORD PTR _this_item$[ebp], 0
  00015	74 51		 je	 SHORT $LN3@get_extra_

; 1142 : 	{
; 1143 : 
; 1144 : 		if (this_item->type == type)

  00017	8b 45 fc	 mov	 eax, DWORD PTR _this_item$[ebp]
  0001a	8b 08		 mov	 ecx, DWORD PTR [eax]
  0001c	3b 4d 08	 cmp	 ecx, DWORD PTR _type$[ebp]
  0001f	75 39		 jne	 SHORT $LN6@get_extra_

; 1145 : 		{
; 1146 : 
; 1147 : 			switch (this_item->type)

  00021	8b 45 fc	 mov	 eax, DWORD PTR _this_item$[ebp]
  00024	8b 08		 mov	 ecx, DWORD PTR [eax]
  00026	89 4d b8	 mov	 DWORD PTR tv68[ebp], ecx
  00029	83 7d b8 00	 cmp	 DWORD PTR tv68[ebp], 0
  0002d	74 02		 je	 SHORT $LN7@get_extra_
  0002f	eb 19		 jmp	 SHORT $LN9@get_extra_
$LN7@get_extra_:

; 1148 : 			{
; 1149 : 
; 1150 : 				case EXTRA_BRIEFING_MEDAL:
; 1151 : 				{
; 1152 : 	
; 1153 : 					if (this_item->sub_type & (1 << sub_type))

  00031	b8 01 00 00 00	 mov	 eax, 1
  00036	8b 4d 0c	 mov	 ecx, DWORD PTR _sub_type$[ebp]
  00039	d3 e0		 shl	 eax, cl
  0003b	8b 4d fc	 mov	 ecx, DWORD PTR _this_item$[ebp]
  0003e	23 41 04	 and	 eax, DWORD PTR [ecx+4]
  00041	74 05		 je	 SHORT $LN8@get_extra_

; 1154 : 					{
; 1155 : 			
; 1156 : 						return this_item;

  00043	8b 45 fc	 mov	 eax, DWORD PTR _this_item$[ebp]
  00046	eb 22		 jmp	 SHORT $LN1@get_extra_
$LN8@get_extra_:

; 1157 : 					}
; 1158 : 
; 1159 : 					break;

  00048	eb 10		 jmp	 SHORT $LN6@get_extra_
$LN9@get_extra_:

; 1160 : 				}
; 1161 : 
; 1162 : 				default:
; 1163 : 				{
; 1164 : 
; 1165 : 					if (this_item->sub_type == sub_type)

  0004a	8b 45 fc	 mov	 eax, DWORD PTR _this_item$[ebp]
  0004d	8b 48 04	 mov	 ecx, DWORD PTR [eax+4]
  00050	3b 4d 0c	 cmp	 ecx, DWORD PTR _sub_type$[ebp]
  00053	75 05		 jne	 SHORT $LN6@get_extra_

; 1166 : 					{
; 1167 : 		
; 1168 : 						return this_item;

  00055	8b 45 fc	 mov	 eax, DWORD PTR _this_item$[ebp]
  00058	eb 10		 jmp	 SHORT $LN1@get_extra_
$LN6@get_extra_:

; 1169 : 					}
; 1170 : 				}
; 1171 : 			}
; 1172 : 		}
; 1173 : 
; 1174 : 		this_item = this_item->next;

  0005a	8b 45 fc	 mov	 eax, DWORD PTR _this_item$[ebp]
  0005d	8b 88 84 00 00
	00		 mov	 ecx, DWORD PTR [eax+132]
  00063	89 4d fc	 mov	 DWORD PTR _this_item$[ebp], ecx

; 1175 : 	}

  00066	eb a9		 jmp	 SHORT $LN2@get_extra_
$LN3@get_extra_:

; 1176 : 
; 1177 : 	return NULL;

  00068	33 c0		 xor	 eax, eax
$LN1@get_extra_:

; 1178 : }

  0006a	5f		 pop	 edi
  0006b	5e		 pop	 esi
  0006c	5b		 pop	 ebx
  0006d	8b e5		 mov	 esp, ebp
  0006f	5d		 pop	 ebp
  00070	c2 08 00	 ret	 8
?get_extra_briefing_data@@YGPAUEXTRA_BRIEFING_TYPE@@W4EXTRA_BRIEFING_TYPES@@H@Z ENDP ; get_extra_briefing_data
_TEXT	ENDS
; Function compile flags: /Odtp /ZI
; File c:\users\nhv90\projects\eech\aphavoc\source\ai\faction\briefing.c
;	COMDAT ?get_task_briefing_data@@YGPAUTASK_BRIEFING_TYPE@@H@Z
_TEXT	SEGMENT
_task_type$ = 8						; size = 4
?get_task_briefing_data@@YGPAUTASK_BRIEFING_TYPE@@H@Z PROC ; get_task_briefing_data, COMDAT

; 1115 : {

  00000	55		 push	 ebp
  00001	8b ec		 mov	 ebp, esp
  00003	83 ec 40	 sub	 esp, 64			; 00000040H
  00006	53		 push	 ebx
  00007	56		 push	 esi
  00008	57		 push	 edi

; 1116 : 
; 1117 : 	if (task_briefing_database [task_type].task_type == task_type)

  00009	69 45 08 ec 02
	00 00		 imul	 eax, DWORD PTR _task_type$[ebp], 748
  00010	8b 0d 00 00 00
	00		 mov	 ecx, DWORD PTR ?task_briefing_database@@3PAUTASK_BRIEFING_TYPE@@A ; task_briefing_database
  00016	8b 14 01	 mov	 edx, DWORD PTR [ecx+eax]
  00019	3b 55 08	 cmp	 edx, DWORD PTR _task_type$[ebp]
  0001c	75 11		 jne	 SHORT $LN2@get_task_b

; 1118 : 	{
; 1119 : 
; 1120 : 		return &task_briefing_database [task_type];

  0001e	69 45 08 ec 02
	00 00		 imul	 eax, DWORD PTR _task_type$[ebp], 748
  00025	03 05 00 00 00
	00		 add	 eax, DWORD PTR ?task_briefing_database@@3PAUTASK_BRIEFING_TYPE@@A ; task_briefing_database
  0002b	eb 04		 jmp	 SHORT $LN1@get_task_b

; 1121 : 	}
; 1122 : 	else

  0002d	eb 02		 jmp	 SHORT $LN1@get_task_b
$LN2@get_task_b:

; 1123 : 	{
; 1124 : 
; 1125 : 		return NULL;

  0002f	33 c0		 xor	 eax, eax
$LN1@get_task_b:

; 1126 : 	}
; 1127 : }

  00031	5f		 pop	 edi
  00032	5e		 pop	 esi
  00033	5b		 pop	 ebx
  00034	8b e5		 mov	 esp, ebp
  00036	5d		 pop	 ebp
  00037	c2 04 00	 ret	 4
?get_task_briefing_data@@YGPAUTASK_BRIEFING_TYPE@@H@Z ENDP ; get_task_briefing_data
_TEXT	ENDS
; Function compile flags: /Odtp /ZI
; File c:\users\nhv90\projects\eech\aphavoc\source\ai\faction\briefing.c
;	COMDAT ?briefing_add_rank@@YGXPAUENTITY@@W4MEDAL_TYPES@@W4PILOT_RANK_TYPES@@PAPAD@Z
_TEXT	SEGMENT
_task$ = 8						; size = 4
_medal$ = 12						; size = 4
_rank$ = 16						; size = 4
_text$ = 20						; size = 4
?briefing_add_rank@@YGXPAUENTITY@@W4MEDAL_TYPES@@W4PILOT_RANK_TYPES@@PAPAD@Z PROC ; briefing_add_rank, COMDAT

; 1103 : {

  00000	55		 push	 ebp
  00001	8b ec		 mov	 ebp, esp
  00003	83 ec 40	 sub	 esp, 64			; 00000040H
  00006	53		 push	 ebx
  00007	56		 push	 esi
  00008	57		 push	 edi

; 1104 : 
; 1105 : 	strcpy (*text, get_trans (rank_type_names [rank]));

  00009	8b 45 10	 mov	 eax, DWORD PTR _rank$[ebp]
  0000c	8b 0c 85 00 00
	00 00		 mov	 ecx, DWORD PTR ?rank_type_names@@3PAPBDA[eax*4]
  00013	51		 push	 ecx
  00014	e8 00 00 00 00	 call	 ?get_trans@@YGPBDPBD@Z	; get_trans
  00019	50		 push	 eax
  0001a	8b 55 14	 mov	 edx, DWORD PTR _text$[ebp]
  0001d	8b 02		 mov	 eax, DWORD PTR [edx]
  0001f	50		 push	 eax
  00020	e8 00 00 00 00	 call	 _strcpy
  00025	83 c4 08	 add	 esp, 8

; 1106 : 
; 1107 : 	*text += strlen (get_trans (rank_type_names [rank]));

  00028	8b 45 10	 mov	 eax, DWORD PTR _rank$[ebp]
  0002b	8b 0c 85 00 00
	00 00		 mov	 ecx, DWORD PTR ?rank_type_names@@3PAPBDA[eax*4]
  00032	51		 push	 ecx
  00033	e8 00 00 00 00	 call	 ?get_trans@@YGPBDPBD@Z	; get_trans
  00038	50		 push	 eax
  00039	e8 00 00 00 00	 call	 _strlen
  0003e	83 c4 04	 add	 esp, 4
  00041	8b 55 14	 mov	 edx, DWORD PTR _text$[ebp]
  00044	03 02		 add	 eax, DWORD PTR [edx]
  00046	8b 4d 14	 mov	 ecx, DWORD PTR _text$[ebp]
  00049	89 01		 mov	 DWORD PTR [ecx], eax

; 1108 : }

  0004b	5f		 pop	 edi
  0004c	5e		 pop	 esi
  0004d	5b		 pop	 ebx
  0004e	8b e5		 mov	 esp, ebp
  00050	5d		 pop	 ebp
  00051	c2 10 00	 ret	 16			; 00000010H
?briefing_add_rank@@YGXPAUENTITY@@W4MEDAL_TYPES@@W4PILOT_RANK_TYPES@@PAPAD@Z ENDP ; briefing_add_rank
_TEXT	ENDS
; Function compile flags: /Odtp /ZI
; File c:\users\nhv90\projects\eech\aphavoc\source\ai\faction\briefing.c
;	COMDAT ?briefing_add_medal@@YGXPAUENTITY@@W4MEDAL_TYPES@@W4PILOT_RANK_TYPES@@PAPAD@Z
_TEXT	SEGMENT
tv76 = -72						; size = 4
tv69 = -68						; size = 4
_task$ = 8						; size = 4
_medal$ = 12						; size = 4
_rank$ = 16						; size = 4
_text$ = 20						; size = 4
?briefing_add_medal@@YGXPAUENTITY@@W4MEDAL_TYPES@@W4PILOT_RANK_TYPES@@PAPAD@Z PROC ; briefing_add_medal, COMDAT

; 1080 : {

  00000	55		 push	 ebp
  00001	8b ec		 mov	 ebp, esp
  00003	83 ec 48	 sub	 esp, 72			; 00000048H
  00006	53		 push	 ebx
  00007	56		 push	 esi
  00008	57		 push	 edi

; 1081 : 
; 1082 : 	if (get_local_entity_int_value (task, INT_TYPE_SIDE) == ENTITY_SIDE_BLUE_FORCE)

  00009	83 7d 08 00	 cmp	 DWORD PTR _task$[ebp], 0
  0000d	74 0a		 je	 SHORT $LN5@briefing_a
  0000f	8b 45 08	 mov	 eax, DWORD PTR _task$[ebp]
  00012	8b 08		 mov	 ecx, DWORD PTR [eax]
  00014	89 4d bc	 mov	 DWORD PTR tv69[ebp], ecx
  00017	eb 1d		 jmp	 SHORT $LN6@briefing_a
$LN5@briefing_a:
  00019	68 3a 04 00 00	 push	 1082			; 0000043aH
  0001e	68 00 00 00 00	 push	 OFFSET ??_C@_0EC@JLKMNKLD@c?3?2users?2nhv90?2projects?2eech?2ap@
  00023	8b 15 00 00 00
	00		 mov	 edx, DWORD PTR ?null_entity_pointer_message@@3PBDB ; null_entity_pointer_message
  00029	52		 push	 edx
  0002a	e8 00 00 00 00	 call	 ?process_assert@@YGXPBD0H@Z ; process_assert
  0002f	c7 45 bc 00 00
	00 00		 mov	 DWORD PTR tv69[ebp], 0
$LN6@briefing_a:
  00036	b8 01 00 00 00	 mov	 eax, 1
  0003b	85 c0		 test	 eax, eax
  0003d	74 09		 je	 SHORT $LN7@briefing_a
  0003f	c7 45 b8 bb 00
	00 00		 mov	 DWORD PTR tv76[ebp], 187 ; 000000bbH
  00046	eb 1d		 jmp	 SHORT $LN8@briefing_a
$LN7@briefing_a:
  00048	68 3a 04 00 00	 push	 1082			; 0000043aH
  0004d	68 00 00 00 00	 push	 OFFSET ??_C@_0EC@JLKMNKLD@c?3?2users?2nhv90?2projects?2eech?2ap@
  00052	8b 0d 00 00 00
	00		 mov	 ecx, DWORD PTR ?overload_invalid_int_type_message@@3PBDB ; overload_invalid_int_type_message
  00058	51		 push	 ecx
  00059	e8 00 00 00 00	 call	 ?process_assert@@YGXPBD0H@Z ; process_assert
  0005e	c7 45 b8 00 00
	00 00		 mov	 DWORD PTR tv76[ebp], 0
$LN8@briefing_a:
  00065	68 bb 00 00 00	 push	 187			; 000000bbH
  0006a	8b 55 08	 mov	 edx, DWORD PTR _task$[ebp]
  0006d	52		 push	 edx
  0006e	69 45 bc 5c 04
	00 00		 imul	 eax, DWORD PTR tv69[ebp], 1116
  00075	8b 4d b8	 mov	 ecx, DWORD PTR tv76[ebp]
  00078	8b 94 88 00 00
	00 00		 mov	 edx, DWORD PTR ?fn_get_local_entity_int_value@@3PAY0BBH@P6GHPAUENTITY@@W4INT_TYPES@@@ZA[eax+ecx*4]
  0007f	ff d2		 call	 edx
  00081	83 f8 01	 cmp	 eax, 1
  00084	75 44		 jne	 SHORT $LN2@briefing_a

; 1083 : 	{
; 1084 : 
; 1085 : 		strcpy (*text, get_trans (us_medal_type_names [medal]));

  00086	8b 45 0c	 mov	 eax, DWORD PTR _medal$[ebp]
  00089	8b 0c 85 00 00
	00 00		 mov	 ecx, DWORD PTR ?us_medal_type_names@@3PAPBDA[eax*4]
  00090	51		 push	 ecx
  00091	e8 00 00 00 00	 call	 ?get_trans@@YGPBDPBD@Z	; get_trans
  00096	50		 push	 eax
  00097	8b 55 14	 mov	 edx, DWORD PTR _text$[ebp]
  0009a	8b 02		 mov	 eax, DWORD PTR [edx]
  0009c	50		 push	 eax
  0009d	e8 00 00 00 00	 call	 _strcpy
  000a2	83 c4 08	 add	 esp, 8

; 1086 : 
; 1087 : 		*text += strlen (get_trans (us_medal_type_names [medal]));

  000a5	8b 45 0c	 mov	 eax, DWORD PTR _medal$[ebp]
  000a8	8b 0c 85 00 00
	00 00		 mov	 ecx, DWORD PTR ?us_medal_type_names@@3PAPBDA[eax*4]
  000af	51		 push	 ecx
  000b0	e8 00 00 00 00	 call	 ?get_trans@@YGPBDPBD@Z	; get_trans
  000b5	50		 push	 eax
  000b6	e8 00 00 00 00	 call	 _strlen
  000bb	83 c4 04	 add	 esp, 4
  000be	8b 55 14	 mov	 edx, DWORD PTR _text$[ebp]
  000c1	03 02		 add	 eax, DWORD PTR [edx]
  000c3	8b 4d 14	 mov	 ecx, DWORD PTR _text$[ebp]
  000c6	89 01		 mov	 DWORD PTR [ecx], eax

; 1088 : 	}
; 1089 : 	else

  000c8	eb 42		 jmp	 SHORT $LN1@briefing_a
$LN2@briefing_a:

; 1090 : 	{
; 1091 : 
; 1092 : 		strcpy (*text, get_trans (cis_medal_type_names [medal]));

  000ca	8b 45 0c	 mov	 eax, DWORD PTR _medal$[ebp]
  000cd	8b 0c 85 00 00
	00 00		 mov	 ecx, DWORD PTR ?cis_medal_type_names@@3PAPBDA[eax*4]
  000d4	51		 push	 ecx
  000d5	e8 00 00 00 00	 call	 ?get_trans@@YGPBDPBD@Z	; get_trans
  000da	50		 push	 eax
  000db	8b 55 14	 mov	 edx, DWORD PTR _text$[ebp]
  000de	8b 02		 mov	 eax, DWORD PTR [edx]
  000e0	50		 push	 eax
  000e1	e8 00 00 00 00	 call	 _strcpy
  000e6	83 c4 08	 add	 esp, 8

; 1093 : 
; 1094 : 		*text += strlen (get_trans (cis_medal_type_names [medal]));

  000e9	8b 45 0c	 mov	 eax, DWORD PTR _medal$[ebp]
  000ec	8b 0c 85 00 00
	00 00		 mov	 ecx, DWORD PTR ?cis_medal_type_names@@3PAPBDA[eax*4]
  000f3	51		 push	 ecx
  000f4	e8 00 00 00 00	 call	 ?get_trans@@YGPBDPBD@Z	; get_trans
  000f9	50		 push	 eax
  000fa	e8 00 00 00 00	 call	 _strlen
  000ff	83 c4 04	 add	 esp, 4
  00102	8b 55 14	 mov	 edx, DWORD PTR _text$[ebp]
  00105	03 02		 add	 eax, DWORD PTR [edx]
  00107	8b 4d 14	 mov	 ecx, DWORD PTR _text$[ebp]
  0010a	89 01		 mov	 DWORD PTR [ecx], eax
$LN1@briefing_a:

; 1095 : 	}
; 1096 : }

  0010c	5f		 pop	 edi
  0010d	5e		 pop	 esi
  0010e	5b		 pop	 ebx
  0010f	8b e5		 mov	 esp, ebp
  00111	5d		 pop	 ebp
  00112	c2 10 00	 ret	 16			; 00000010H
?briefing_add_medal@@YGXPAUENTITY@@W4MEDAL_TYPES@@W4PILOT_RANK_TYPES@@PAPAD@Z ENDP ; briefing_add_medal
_TEXT	ENDS
; Function compile flags: /Odtp /ZI
; File c:\users\nhv90\projects\eech\aphavoc\source\ai\faction\briefing.c
;	COMDAT ?briefing_add_target_type@@YGXPAUENTITY@@W4MEDAL_TYPES@@W4PILOT_RANK_TYPES@@PAPAD@Z
_TEXT	SEGMENT
tv162 = -76						; size = 4
tv140 = -76						; size = 4
tv92 = -76						; size = 4
tv79 = -76						; size = 4
tv154 = -72						; size = 4
tv132 = -72						; size = 4
tv91 = -72						; size = 4
tv71 = -72						; size = 4
_target$ = -4						; size = 4
_task$ = 8						; size = 4
_medal$ = 12						; size = 4
_rank$ = 16						; size = 4
_text$ = 20						; size = 4
?briefing_add_target_type@@YGXPAUENTITY@@W4MEDAL_TYPES@@W4PILOT_RANK_TYPES@@PAPAD@Z PROC ; briefing_add_target_type, COMDAT

; 1047 : {

  00000	55		 push	 ebp
  00001	8b ec		 mov	 ebp, esp
  00003	83 ec 4c	 sub	 esp, 76			; 0000004cH
  00006	53		 push	 ebx
  00007	56		 push	 esi
  00008	57		 push	 edi

; 1048 : 
; 1049 : 	entity
; 1050 : 		*target;
; 1051 : 
; 1052 : 	if (task)

  00009	83 7d 08 00	 cmp	 DWORD PTR _task$[ebp], 0
  0000d	0f 84 d3 01 00
	00		 je	 $LN1@briefing_a

; 1053 : 	{
; 1054 : 
; 1055 : 		target = get_local_entity_parent (task, LIST_TYPE_TASK_DEPENDENT);

  00013	83 7d 08 00	 cmp	 DWORD PTR _task$[ebp], 0
  00017	74 0a		 je	 SHORT $LN8@briefing_a
  00019	8b 45 08	 mov	 eax, DWORD PTR _task$[ebp]
  0001c	8b 08		 mov	 ecx, DWORD PTR [eax]
  0001e	89 4d b8	 mov	 DWORD PTR tv71[ebp], ecx
  00021	eb 21		 jmp	 SHORT $LN9@briefing_a
$LN8@briefing_a:
  00023	8b 15 00 00 00
	00		 mov	 edx, DWORD PTR ?__LINE__Var@?0??briefing_add_target_type@@YGXPAUENTITY@@W4MEDAL_TYPES@@W4PILOT_RANK_TYPES@@PAPAD@Z@4JA
  00029	83 c2 08	 add	 edx, 8
  0002c	52		 push	 edx
  0002d	68 00 00 00 00	 push	 OFFSET ??_C@_0EC@JLKMNKLD@c?3?2users?2nhv90?2projects?2eech?2ap@
  00032	a1 00 00 00 00	 mov	 eax, DWORD PTR ?null_entity_pointer_message@@3PBDB ; null_entity_pointer_message
  00037	50		 push	 eax
  00038	e8 00 00 00 00	 call	 ?process_assert@@YGXPBD0H@Z ; process_assert
  0003d	c7 45 b8 00 00
	00 00		 mov	 DWORD PTR tv71[ebp], 0
$LN9@briefing_a:
  00044	b9 01 00 00 00	 mov	 ecx, 1
  00049	85 c9		 test	 ecx, ecx
  0004b	74 09		 je	 SHORT $LN10@briefing_a
  0004d	c7 45 b4 27 00
	00 00		 mov	 DWORD PTR tv79[ebp], 39	; 00000027H
  00054	eb 21		 jmp	 SHORT $LN11@briefing_a
$LN10@briefing_a:
  00056	8b 15 00 00 00
	00		 mov	 edx, DWORD PTR ?__LINE__Var@?0??briefing_add_target_type@@YGXPAUENTITY@@W4MEDAL_TYPES@@W4PILOT_RANK_TYPES@@PAPAD@Z@4JA
  0005c	83 c2 08	 add	 edx, 8
  0005f	52		 push	 edx
  00060	68 00 00 00 00	 push	 OFFSET ??_C@_0EC@JLKMNKLD@c?3?2users?2nhv90?2projects?2eech?2ap@
  00065	a1 00 00 00 00	 mov	 eax, DWORD PTR ?overload_invalid_list_type_message@@3PBDB ; overload_invalid_list_type_message
  0006a	50		 push	 eax
  0006b	e8 00 00 00 00	 call	 ?process_assert@@YGXPBD0H@Z ; process_assert
  00070	c7 45 b4 00 00
	00 00		 mov	 DWORD PTR tv79[ebp], 0
$LN11@briefing_a:
  00077	6a 27		 push	 39			; 00000027H
  00079	8b 4d 08	 mov	 ecx, DWORD PTR _task$[ebp]
  0007c	51		 push	 ecx
  0007d	69 55 b8 b4 00
	00 00		 imul	 edx, DWORD PTR tv71[ebp], 180
  00084	8b 45 b4	 mov	 eax, DWORD PTR tv79[ebp]
  00087	8b 8c 82 00 00
	00 00		 mov	 ecx, DWORD PTR ?fn_get_local_entity_parent@@3PAY0CN@P6GPAUENTITY@@PAU1@W4LIST_TYPES@@@ZA[edx+eax*4]
  0008e	ff d1		 call	 ecx
  00090	89 45 fc	 mov	 DWORD PTR _target$[ebp], eax

; 1056 : 
; 1057 : 		if (target)

  00093	83 7d fc 00	 cmp	 DWORD PTR _target$[ebp], 0
  00097	0f 84 49 01 00
	00		 je	 $LN1@briefing_a

; 1058 : 		{
; 1059 : 			switch (get_local_entity_type (target))

  0009d	83 7d fc 00	 cmp	 DWORD PTR _target$[ebp], 0
  000a1	74 0a		 je	 SHORT $LN12@briefing_a
  000a3	8b 45 fc	 mov	 eax, DWORD PTR _target$[ebp]
  000a6	8b 08		 mov	 ecx, DWORD PTR [eax]
  000a8	89 4d b8	 mov	 DWORD PTR tv91[ebp], ecx
  000ab	eb 1d		 jmp	 SHORT $LN13@briefing_a
$LN12@briefing_a:
  000ad	68 23 04 00 00	 push	 1059			; 00000423H
  000b2	68 00 00 00 00	 push	 OFFSET ??_C@_0EC@JLKMNKLD@c?3?2users?2nhv90?2projects?2eech?2ap@
  000b7	8b 15 00 00 00
	00		 mov	 edx, DWORD PTR ?null_entity_pointer_message@@3PBDB ; null_entity_pointer_message
  000bd	52		 push	 edx
  000be	e8 00 00 00 00	 call	 ?process_assert@@YGXPBD0H@Z ; process_assert
  000c3	c7 45 b8 00 00
	00 00		 mov	 DWORD PTR tv91[ebp], 0
$LN13@briefing_a:
  000ca	8b 45 b8	 mov	 eax, DWORD PTR tv91[ebp]
  000cd	89 45 b4	 mov	 DWORD PTR tv92[ebp], eax

; 1060 : 			{
; 1061 : 
; 1062 : 				default:
; 1063 : 				{
; 1064 : 	
; 1065 : 					strcpy (*text, get_local_entity_string (target, STRING_TYPE_FULL_NAME));

  000d0	83 7d fc 00	 cmp	 DWORD PTR _target$[ebp], 0
  000d4	74 0a		 je	 SHORT $LN14@briefing_a
  000d6	8b 45 fc	 mov	 eax, DWORD PTR _target$[ebp]
  000d9	8b 08		 mov	 ecx, DWORD PTR [eax]
  000db	89 4d b8	 mov	 DWORD PTR tv132[ebp], ecx
  000de	eb 21		 jmp	 SHORT $LN15@briefing_a
$LN14@briefing_a:
  000e0	8b 15 00 00 00
	00		 mov	 edx, DWORD PTR ?__LINE__Var@?0??briefing_add_target_type@@YGXPAUENTITY@@W4MEDAL_TYPES@@W4PILOT_RANK_TYPES@@PAPAD@Z@4JA
  000e6	83 c2 12	 add	 edx, 18			; 00000012H
  000e9	52		 push	 edx
  000ea	68 00 00 00 00	 push	 OFFSET ??_C@_0EC@JLKMNKLD@c?3?2users?2nhv90?2projects?2eech?2ap@
  000ef	a1 00 00 00 00	 mov	 eax, DWORD PTR ?null_entity_pointer_message@@3PBDB ; null_entity_pointer_message
  000f4	50		 push	 eax
  000f5	e8 00 00 00 00	 call	 ?process_assert@@YGXPBD0H@Z ; process_assert
  000fa	c7 45 b8 00 00
	00 00		 mov	 DWORD PTR tv132[ebp], 0
$LN15@briefing_a:
  00101	b9 01 00 00 00	 mov	 ecx, 1
  00106	85 c9		 test	 ecx, ecx
  00108	74 09		 je	 SHORT $LN16@briefing_a
  0010a	c7 45 b4 03 00
	00 00		 mov	 DWORD PTR tv140[ebp], 3
  00111	eb 21		 jmp	 SHORT $LN17@briefing_a
$LN16@briefing_a:
  00113	8b 15 00 00 00
	00		 mov	 edx, DWORD PTR ?__LINE__Var@?0??briefing_add_target_type@@YGXPAUENTITY@@W4MEDAL_TYPES@@W4PILOT_RANK_TYPES@@PAPAD@Z@4JA
  00119	83 c2 12	 add	 edx, 18			; 00000012H
  0011c	52		 push	 edx
  0011d	68 00 00 00 00	 push	 OFFSET ??_C@_0EC@JLKMNKLD@c?3?2users?2nhv90?2projects?2eech?2ap@
  00122	a1 00 00 00 00	 mov	 eax, DWORD PTR ?overload_invalid_string_type_message@@3PBDB ; overload_invalid_string_type_message
  00127	50		 push	 eax
  00128	e8 00 00 00 00	 call	 ?process_assert@@YGXPBD0H@Z ; process_assert
  0012d	c7 45 b4 00 00
	00 00		 mov	 DWORD PTR tv140[ebp], 0
$LN17@briefing_a:
  00134	6a 03		 push	 3
  00136	8b 4d fc	 mov	 ecx, DWORD PTR _target$[ebp]
  00139	51		 push	 ecx
  0013a	6b 55 b8 34	 imul	 edx, DWORD PTR tv132[ebp], 52
  0013e	8b 45 b4	 mov	 eax, DWORD PTR tv140[ebp]
  00141	8b 8c 82 00 00
	00 00		 mov	 ecx, DWORD PTR ?fn_get_local_entity_string@@3PAY0N@P6GPBDPAUENTITY@@W4STRING_TYPES@@@ZA[edx+eax*4]
  00148	ff d1		 call	 ecx
  0014a	50		 push	 eax
  0014b	8b 55 14	 mov	 edx, DWORD PTR _text$[ebp]
  0014e	8b 02		 mov	 eax, DWORD PTR [edx]
  00150	50		 push	 eax
  00151	e8 00 00 00 00	 call	 _strcpy
  00156	83 c4 08	 add	 esp, 8

; 1066 : 					*text += strlen (get_local_entity_string (target, STRING_TYPE_FULL_NAME));

  00159	83 7d fc 00	 cmp	 DWORD PTR _target$[ebp], 0
  0015d	74 0a		 je	 SHORT $LN18@briefing_a
  0015f	8b 45 fc	 mov	 eax, DWORD PTR _target$[ebp]
  00162	8b 08		 mov	 ecx, DWORD PTR [eax]
  00164	89 4d b8	 mov	 DWORD PTR tv154[ebp], ecx
  00167	eb 21		 jmp	 SHORT $LN19@briefing_a
$LN18@briefing_a:
  00169	8b 15 00 00 00
	00		 mov	 edx, DWORD PTR ?__LINE__Var@?0??briefing_add_target_type@@YGXPAUENTITY@@W4MEDAL_TYPES@@W4PILOT_RANK_TYPES@@PAPAD@Z@4JA
  0016f	83 c2 13	 add	 edx, 19			; 00000013H
  00172	52		 push	 edx
  00173	68 00 00 00 00	 push	 OFFSET ??_C@_0EC@JLKMNKLD@c?3?2users?2nhv90?2projects?2eech?2ap@
  00178	a1 00 00 00 00	 mov	 eax, DWORD PTR ?null_entity_pointer_message@@3PBDB ; null_entity_pointer_message
  0017d	50		 push	 eax
  0017e	e8 00 00 00 00	 call	 ?process_assert@@YGXPBD0H@Z ; process_assert
  00183	c7 45 b8 00 00
	00 00		 mov	 DWORD PTR tv154[ebp], 0
$LN19@briefing_a:
  0018a	b9 01 00 00 00	 mov	 ecx, 1
  0018f	85 c9		 test	 ecx, ecx
  00191	74 09		 je	 SHORT $LN20@briefing_a
  00193	c7 45 b4 03 00
	00 00		 mov	 DWORD PTR tv162[ebp], 3
  0019a	eb 21		 jmp	 SHORT $LN21@briefing_a
$LN20@briefing_a:
  0019c	8b 15 00 00 00
	00		 mov	 edx, DWORD PTR ?__LINE__Var@?0??briefing_add_target_type@@YGXPAUENTITY@@W4MEDAL_TYPES@@W4PILOT_RANK_TYPES@@PAPAD@Z@4JA
  001a2	83 c2 13	 add	 edx, 19			; 00000013H
  001a5	52		 push	 edx
  001a6	68 00 00 00 00	 push	 OFFSET ??_C@_0EC@JLKMNKLD@c?3?2users?2nhv90?2projects?2eech?2ap@
  001ab	a1 00 00 00 00	 mov	 eax, DWORD PTR ?overload_invalid_string_type_message@@3PBDB ; overload_invalid_string_type_message
  001b0	50		 push	 eax
  001b1	e8 00 00 00 00	 call	 ?process_assert@@YGXPBD0H@Z ; process_assert
  001b6	c7 45 b4 00 00
	00 00		 mov	 DWORD PTR tv162[ebp], 0
$LN21@briefing_a:
  001bd	6a 03		 push	 3
  001bf	8b 4d fc	 mov	 ecx, DWORD PTR _target$[ebp]
  001c2	51		 push	 ecx
  001c3	6b 55 b8 34	 imul	 edx, DWORD PTR tv154[ebp], 52
  001c7	8b 45 b4	 mov	 eax, DWORD PTR tv162[ebp]
  001ca	8b 8c 82 00 00
	00 00		 mov	 ecx, DWORD PTR ?fn_get_local_entity_string@@3PAY0N@P6GPBDPAUENTITY@@W4STRING_TYPES@@@ZA[edx+eax*4]
  001d1	ff d1		 call	 ecx
  001d3	50		 push	 eax
  001d4	e8 00 00 00 00	 call	 _strlen
  001d9	83 c4 04	 add	 esp, 4
  001dc	8b 55 14	 mov	 edx, DWORD PTR _text$[ebp]
  001df	03 02		 add	 eax, DWORD PTR [edx]
  001e1	8b 4d 14	 mov	 ecx, DWORD PTR _text$[ebp]
  001e4	89 01		 mov	 DWORD PTR [ecx], eax
$LN1@briefing_a:

; 1067 : 	
; 1068 : 					break;
; 1069 : 				}
; 1070 : 			}
; 1071 : 		}
; 1072 : 	}
; 1073 : }

  001e6	5f		 pop	 edi
  001e7	5e		 pop	 esi
  001e8	5b		 pop	 ebx
  001e9	8b e5		 mov	 esp, ebp
  001eb	5d		 pop	 ebp
  001ec	c2 10 00	 ret	 16			; 00000010H
?briefing_add_target_type@@YGXPAUENTITY@@W4MEDAL_TYPES@@W4PILOT_RANK_TYPES@@PAPAD@Z ENDP ; briefing_add_target_type
_TEXT	ENDS
; Function compile flags: /Odtp /ZI
; File c:\users\nhv90\projects\eech\aphavoc\source\ai\faction\briefing.c
;	COMDAT ?briefing_add_group@@YGXPAUENTITY@@W4MEDAL_TYPES@@W4PILOT_RANK_TYPES@@PAPAD@Z
_TEXT	SEGMENT
tv286 = -88						; size = 4
tv278 = -84						; size = 4
tv262 = -80						; size = 4
tv237 = -80						; size = 4
tv215 = -80						; size = 4
tv187 = -80						; size = 4
tv165 = -80						; size = 4
tv139 = -80						; size = 4
tv79 = -80						; size = 4
tv254 = -76						; size = 4
tv229 = -76						; size = 4
tv207 = -76						; size = 4
tv179 = -76						; size = 4
tv157 = -76						; size = 4
tv131 = -76						; size = 4
tv91 = -76						; size = 4
tv71 = -76						; size = 4
_company$ = -8						; size = 4
_group$ = -4						; size = 4
_task$ = 8						; size = 4
_medal$ = 12						; size = 4
_rank$ = 16						; size = 4
_text$ = 20						; size = 4
?briefing_add_group@@YGXPAUENTITY@@W4MEDAL_TYPES@@W4PILOT_RANK_TYPES@@PAPAD@Z PROC ; briefing_add_group, COMDAT

; 1001 : {

  00000	55		 push	 ebp
  00001	8b ec		 mov	 ebp, esp
  00003	83 ec 58	 sub	 esp, 88			; 00000058H
  00006	53		 push	 ebx
  00007	56		 push	 esi
  00008	57		 push	 edi

; 1002 : 
; 1003 : 	entity
; 1004 : 		*group,
; 1005 : 		*company;
; 1006 : 
; 1007 : 	if (task)

  00009	83 7d 08 00	 cmp	 DWORD PTR _task$[ebp], 0
  0000d	0f 84 d7 04 00
	00		 je	 $LN1@briefing_a

; 1008 : 	{
; 1009 : 
; 1010 : 		group = get_local_entity_parent (task, LIST_TYPE_TASK_DEPENDENT);

  00013	83 7d 08 00	 cmp	 DWORD PTR _task$[ebp], 0
  00017	74 0a		 je	 SHORT $LN8@briefing_a
  00019	8b 45 08	 mov	 eax, DWORD PTR _task$[ebp]
  0001c	8b 08		 mov	 ecx, DWORD PTR [eax]
  0001e	89 4d b4	 mov	 DWORD PTR tv71[ebp], ecx
  00021	eb 21		 jmp	 SHORT $LN9@briefing_a
$LN8@briefing_a:
  00023	8b 15 00 00 00
	00		 mov	 edx, DWORD PTR ?__LINE__Var@?0??briefing_add_group@@YGXPAUENTITY@@W4MEDAL_TYPES@@W4PILOT_RANK_TYPES@@PAPAD@Z@4JA
  00029	83 c2 09	 add	 edx, 9
  0002c	52		 push	 edx
  0002d	68 00 00 00 00	 push	 OFFSET ??_C@_0EC@JLKMNKLD@c?3?2users?2nhv90?2projects?2eech?2ap@
  00032	a1 00 00 00 00	 mov	 eax, DWORD PTR ?null_entity_pointer_message@@3PBDB ; null_entity_pointer_message
  00037	50		 push	 eax
  00038	e8 00 00 00 00	 call	 ?process_assert@@YGXPBD0H@Z ; process_assert
  0003d	c7 45 b4 00 00
	00 00		 mov	 DWORD PTR tv71[ebp], 0
$LN9@briefing_a:
  00044	b9 01 00 00 00	 mov	 ecx, 1
  00049	85 c9		 test	 ecx, ecx
  0004b	74 09		 je	 SHORT $LN10@briefing_a
  0004d	c7 45 b0 27 00
	00 00		 mov	 DWORD PTR tv79[ebp], 39	; 00000027H
  00054	eb 21		 jmp	 SHORT $LN11@briefing_a
$LN10@briefing_a:
  00056	8b 15 00 00 00
	00		 mov	 edx, DWORD PTR ?__LINE__Var@?0??briefing_add_group@@YGXPAUENTITY@@W4MEDAL_TYPES@@W4PILOT_RANK_TYPES@@PAPAD@Z@4JA
  0005c	83 c2 09	 add	 edx, 9
  0005f	52		 push	 edx
  00060	68 00 00 00 00	 push	 OFFSET ??_C@_0EC@JLKMNKLD@c?3?2users?2nhv90?2projects?2eech?2ap@
  00065	a1 00 00 00 00	 mov	 eax, DWORD PTR ?overload_invalid_list_type_message@@3PBDB ; overload_invalid_list_type_message
  0006a	50		 push	 eax
  0006b	e8 00 00 00 00	 call	 ?process_assert@@YGXPBD0H@Z ; process_assert
  00070	c7 45 b0 00 00
	00 00		 mov	 DWORD PTR tv79[ebp], 0
$LN11@briefing_a:
  00077	6a 27		 push	 39			; 00000027H
  00079	8b 4d 08	 mov	 ecx, DWORD PTR _task$[ebp]
  0007c	51		 push	 ecx
  0007d	69 55 b4 b4 00
	00 00		 imul	 edx, DWORD PTR tv71[ebp], 180
  00084	8b 45 b0	 mov	 eax, DWORD PTR tv79[ebp]
  00087	8b 8c 82 00 00
	00 00		 mov	 ecx, DWORD PTR ?fn_get_local_entity_parent@@3PAY0CN@P6GPAUENTITY@@PAU1@W4LIST_TYPES@@@ZA[edx+eax*4]
  0008e	ff d1		 call	 ecx
  00090	89 45 fc	 mov	 DWORD PTR _group$[ebp], eax

; 1011 : 
; 1012 : 		if (group)

  00093	83 7d fc 00	 cmp	 DWORD PTR _group$[ebp], 0
  00097	0f 84 4d 04 00
	00		 je	 $LN1@briefing_a

; 1013 : 		{
; 1014 : 
; 1015 : 			if (get_local_entity_type (group) == ENTITY_TYPE_GROUP)

  0009d	83 7d fc 00	 cmp	 DWORD PTR _group$[ebp], 0
  000a1	74 0a		 je	 SHORT $LN12@briefing_a
  000a3	8b 45 fc	 mov	 eax, DWORD PTR _group$[ebp]
  000a6	8b 08		 mov	 ecx, DWORD PTR [eax]
  000a8	89 4d b4	 mov	 DWORD PTR tv91[ebp], ecx
  000ab	eb 1d		 jmp	 SHORT $LN13@briefing_a
$LN12@briefing_a:
  000ad	68 f7 03 00 00	 push	 1015			; 000003f7H
  000b2	68 00 00 00 00	 push	 OFFSET ??_C@_0EC@JLKMNKLD@c?3?2users?2nhv90?2projects?2eech?2ap@
  000b7	8b 15 00 00 00
	00		 mov	 edx, DWORD PTR ?null_entity_pointer_message@@3PBDB ; null_entity_pointer_message
  000bd	52		 push	 edx
  000be	e8 00 00 00 00	 call	 ?process_assert@@YGXPBD0H@Z ; process_assert
  000c3	c7 45 b4 00 00
	00 00		 mov	 DWORD PTR tv91[ebp], 0
$LN13@briefing_a:
  000ca	83 7d b4 0c	 cmp	 DWORD PTR tv91[ebp], 12	; 0000000cH
  000ce	0f 85 f9 02 00
	00		 jne	 $LN4@briefing_a

; 1016 : 			{
; 1017 : 
; 1018 : 				company = get_local_entity_parent (group, LIST_TYPE_DIVISION);

  000d4	83 7d fc 00	 cmp	 DWORD PTR _group$[ebp], 0
  000d8	74 0a		 je	 SHORT $LN14@briefing_a
  000da	8b 45 fc	 mov	 eax, DWORD PTR _group$[ebp]
  000dd	8b 08		 mov	 ecx, DWORD PTR [eax]
  000df	89 4d b4	 mov	 DWORD PTR tv131[ebp], ecx
  000e2	eb 21		 jmp	 SHORT $LN15@briefing_a
$LN14@briefing_a:
  000e4	8b 15 00 00 00
	00		 mov	 edx, DWORD PTR ?__LINE__Var@?0??briefing_add_group@@YGXPAUENTITY@@W4MEDAL_TYPES@@W4PILOT_RANK_TYPES@@PAPAD@Z@4JA
  000ea	83 c2 11	 add	 edx, 17			; 00000011H
  000ed	52		 push	 edx
  000ee	68 00 00 00 00	 push	 OFFSET ??_C@_0EC@JLKMNKLD@c?3?2users?2nhv90?2projects?2eech?2ap@
  000f3	a1 00 00 00 00	 mov	 eax, DWORD PTR ?null_entity_pointer_message@@3PBDB ; null_entity_pointer_message
  000f8	50		 push	 eax
  000f9	e8 00 00 00 00	 call	 ?process_assert@@YGXPBD0H@Z ; process_assert
  000fe	c7 45 b4 00 00
	00 00		 mov	 DWORD PTR tv131[ebp], 0
$LN15@briefing_a:
  00105	b9 01 00 00 00	 mov	 ecx, 1
  0010a	85 c9		 test	 ecx, ecx
  0010c	74 09		 je	 SHORT $LN16@briefing_a
  0010e	c7 45 b0 0b 00
	00 00		 mov	 DWORD PTR tv139[ebp], 11 ; 0000000bH
  00115	eb 21		 jmp	 SHORT $LN17@briefing_a
$LN16@briefing_a:
  00117	8b 15 00 00 00
	00		 mov	 edx, DWORD PTR ?__LINE__Var@?0??briefing_add_group@@YGXPAUENTITY@@W4MEDAL_TYPES@@W4PILOT_RANK_TYPES@@PAPAD@Z@4JA
  0011d	83 c2 11	 add	 edx, 17			; 00000011H
  00120	52		 push	 edx
  00121	68 00 00 00 00	 push	 OFFSET ??_C@_0EC@JLKMNKLD@c?3?2users?2nhv90?2projects?2eech?2ap@
  00126	a1 00 00 00 00	 mov	 eax, DWORD PTR ?overload_invalid_list_type_message@@3PBDB ; overload_invalid_list_type_message
  0012b	50		 push	 eax
  0012c	e8 00 00 00 00	 call	 ?process_assert@@YGXPBD0H@Z ; process_assert
  00131	c7 45 b0 00 00
	00 00		 mov	 DWORD PTR tv139[ebp], 0
$LN17@briefing_a:
  00138	6a 0b		 push	 11			; 0000000bH
  0013a	8b 4d fc	 mov	 ecx, DWORD PTR _group$[ebp]
  0013d	51		 push	 ecx
  0013e	69 55 b4 b4 00
	00 00		 imul	 edx, DWORD PTR tv131[ebp], 180
  00145	8b 45 b0	 mov	 eax, DWORD PTR tv139[ebp]
  00148	8b 8c 82 00 00
	00 00		 mov	 ecx, DWORD PTR ?fn_get_local_entity_parent@@3PAY0CN@P6GPAUENTITY@@PAU1@W4LIST_TYPES@@@ZA[edx+eax*4]
  0014f	ff d1		 call	 ecx
  00151	89 45 f8	 mov	 DWORD PTR _company$[ebp], eax

; 1019 : 
; 1020 : 				ASSERT (company);

  00154	83 7d f8 00	 cmp	 DWORD PTR _company$[ebp], 0
  00158	75 18		 jne	 SHORT $LN6@briefing_a
  0015a	a1 00 00 00 00	 mov	 eax, DWORD PTR ?__LINE__Var@?0??briefing_add_group@@YGXPAUENTITY@@W4MEDAL_TYPES@@W4PILOT_RANK_TYPES@@PAPAD@Z@4JA
  0015f	83 c0 13	 add	 eax, 19			; 00000013H
  00162	50		 push	 eax
  00163	68 00 00 00 00	 push	 OFFSET ??_C@_0EC@JLKMNKLD@c?3?2users?2nhv90?2projects?2eech?2ap@
  00168	68 00 00 00 00	 push	 OFFSET ??_C@_07MLNBPDHK@company@
  0016d	e8 00 00 00 00	 call	 ?process_assert@@YGXPBD0H@Z ; process_assert
$LN6@briefing_a:

; 1021 : 
; 1022 : 				strcpy (*text, get_local_entity_string (group, STRING_TYPE_DIVISION_NAME));

  00172	83 7d fc 00	 cmp	 DWORD PTR _group$[ebp], 0
  00176	74 0a		 je	 SHORT $LN18@briefing_a
  00178	8b 45 fc	 mov	 eax, DWORD PTR _group$[ebp]
  0017b	8b 08		 mov	 ecx, DWORD PTR [eax]
  0017d	89 4d b4	 mov	 DWORD PTR tv157[ebp], ecx
  00180	eb 21		 jmp	 SHORT $LN19@briefing_a
$LN18@briefing_a:
  00182	8b 15 00 00 00
	00		 mov	 edx, DWORD PTR ?__LINE__Var@?0??briefing_add_group@@YGXPAUENTITY@@W4MEDAL_TYPES@@W4PILOT_RANK_TYPES@@PAPAD@Z@4JA
  00188	83 c2 15	 add	 edx, 21			; 00000015H
  0018b	52		 push	 edx
  0018c	68 00 00 00 00	 push	 OFFSET ??_C@_0EC@JLKMNKLD@c?3?2users?2nhv90?2projects?2eech?2ap@
  00191	a1 00 00 00 00	 mov	 eax, DWORD PTR ?null_entity_pointer_message@@3PBDB ; null_entity_pointer_message
  00196	50		 push	 eax
  00197	e8 00 00 00 00	 call	 ?process_assert@@YGXPBD0H@Z ; process_assert
  0019c	c7 45 b4 00 00
	00 00		 mov	 DWORD PTR tv157[ebp], 0
$LN19@briefing_a:
  001a3	b9 01 00 00 00	 mov	 ecx, 1
  001a8	85 c9		 test	 ecx, ecx
  001aa	74 09		 je	 SHORT $LN20@briefing_a
  001ac	c7 45 b0 00 00
	00 00		 mov	 DWORD PTR tv165[ebp], 0
  001b3	eb 21		 jmp	 SHORT $LN21@briefing_a
$LN20@briefing_a:
  001b5	8b 15 00 00 00
	00		 mov	 edx, DWORD PTR ?__LINE__Var@?0??briefing_add_group@@YGXPAUENTITY@@W4MEDAL_TYPES@@W4PILOT_RANK_TYPES@@PAPAD@Z@4JA
  001bb	83 c2 15	 add	 edx, 21			; 00000015H
  001be	52		 push	 edx
  001bf	68 00 00 00 00	 push	 OFFSET ??_C@_0EC@JLKMNKLD@c?3?2users?2nhv90?2projects?2eech?2ap@
  001c4	a1 00 00 00 00	 mov	 eax, DWORD PTR ?overload_invalid_string_type_message@@3PBDB ; overload_invalid_string_type_message
  001c9	50		 push	 eax
  001ca	e8 00 00 00 00	 call	 ?process_assert@@YGXPBD0H@Z ; process_assert
  001cf	c7 45 b0 00 00
	00 00		 mov	 DWORD PTR tv165[ebp], 0
$LN21@briefing_a:
  001d6	6a 00		 push	 0
  001d8	8b 4d fc	 mov	 ecx, DWORD PTR _group$[ebp]
  001db	51		 push	 ecx
  001dc	6b 55 b4 34	 imul	 edx, DWORD PTR tv157[ebp], 52
  001e0	8b 45 b0	 mov	 eax, DWORD PTR tv165[ebp]
  001e3	8b 8c 82 00 00
	00 00		 mov	 ecx, DWORD PTR ?fn_get_local_entity_string@@3PAY0N@P6GPBDPAUENTITY@@W4STRING_TYPES@@@ZA[edx+eax*4]
  001ea	ff d1		 call	 ecx
  001ec	50		 push	 eax
  001ed	8b 55 14	 mov	 edx, DWORD PTR _text$[ebp]
  001f0	8b 02		 mov	 eax, DWORD PTR [edx]
  001f2	50		 push	 eax
  001f3	e8 00 00 00 00	 call	 _strcpy
  001f8	83 c4 08	 add	 esp, 8

; 1023 : 				*text += strlen (get_local_entity_string (group, STRING_TYPE_DIVISION_NAME));

  001fb	83 7d fc 00	 cmp	 DWORD PTR _group$[ebp], 0
  001ff	74 0a		 je	 SHORT $LN22@briefing_a
  00201	8b 45 fc	 mov	 eax, DWORD PTR _group$[ebp]
  00204	8b 08		 mov	 ecx, DWORD PTR [eax]
  00206	89 4d b4	 mov	 DWORD PTR tv179[ebp], ecx
  00209	eb 21		 jmp	 SHORT $LN23@briefing_a
$LN22@briefing_a:
  0020b	8b 15 00 00 00
	00		 mov	 edx, DWORD PTR ?__LINE__Var@?0??briefing_add_group@@YGXPAUENTITY@@W4MEDAL_TYPES@@W4PILOT_RANK_TYPES@@PAPAD@Z@4JA
  00211	83 c2 16	 add	 edx, 22			; 00000016H
  00214	52		 push	 edx
  00215	68 00 00 00 00	 push	 OFFSET ??_C@_0EC@JLKMNKLD@c?3?2users?2nhv90?2projects?2eech?2ap@
  0021a	a1 00 00 00 00	 mov	 eax, DWORD PTR ?null_entity_pointer_message@@3PBDB ; null_entity_pointer_message
  0021f	50		 push	 eax
  00220	e8 00 00 00 00	 call	 ?process_assert@@YGXPBD0H@Z ; process_assert
  00225	c7 45 b4 00 00
	00 00		 mov	 DWORD PTR tv179[ebp], 0
$LN23@briefing_a:
  0022c	b9 01 00 00 00	 mov	 ecx, 1
  00231	85 c9		 test	 ecx, ecx
  00233	74 09		 je	 SHORT $LN24@briefing_a
  00235	c7 45 b0 00 00
	00 00		 mov	 DWORD PTR tv187[ebp], 0
  0023c	eb 21		 jmp	 SHORT $LN25@briefing_a
$LN24@briefing_a:
  0023e	8b 15 00 00 00
	00		 mov	 edx, DWORD PTR ?__LINE__Var@?0??briefing_add_group@@YGXPAUENTITY@@W4MEDAL_TYPES@@W4PILOT_RANK_TYPES@@PAPAD@Z@4JA
  00244	83 c2 16	 add	 edx, 22			; 00000016H
  00247	52		 push	 edx
  00248	68 00 00 00 00	 push	 OFFSET ??_C@_0EC@JLKMNKLD@c?3?2users?2nhv90?2projects?2eech?2ap@
  0024d	a1 00 00 00 00	 mov	 eax, DWORD PTR ?overload_invalid_string_type_message@@3PBDB ; overload_invalid_string_type_message
  00252	50		 push	 eax
  00253	e8 00 00 00 00	 call	 ?process_assert@@YGXPBD0H@Z ; process_assert
  00258	c7 45 b0 00 00
	00 00		 mov	 DWORD PTR tv187[ebp], 0
$LN25@briefing_a:
  0025f	6a 00		 push	 0
  00261	8b 4d fc	 mov	 ecx, DWORD PTR _group$[ebp]
  00264	51		 push	 ecx
  00265	6b 55 b4 34	 imul	 edx, DWORD PTR tv179[ebp], 52
  00269	8b 45 b0	 mov	 eax, DWORD PTR tv187[ebp]
  0026c	8b 8c 82 00 00
	00 00		 mov	 ecx, DWORD PTR ?fn_get_local_entity_string@@3PAY0N@P6GPBDPAUENTITY@@W4STRING_TYPES@@@ZA[edx+eax*4]
  00273	ff d1		 call	 ecx
  00275	50		 push	 eax
  00276	e8 00 00 00 00	 call	 _strlen
  0027b	83 c4 04	 add	 esp, 4
  0027e	8b 55 14	 mov	 edx, DWORD PTR _text$[ebp]
  00281	03 02		 add	 eax, DWORD PTR [edx]
  00283	8b 4d 14	 mov	 ecx, DWORD PTR _text$[ebp]
  00286	89 01		 mov	 DWORD PTR [ecx], eax

; 1024 : 
; 1025 : 				strcpy (*text, ", ");

  00288	68 00 00 00 00	 push	 OFFSET ??_C@_02KEGNLNML@?0?5@
  0028d	8b 45 14	 mov	 eax, DWORD PTR _text$[ebp]
  00290	8b 08		 mov	 ecx, DWORD PTR [eax]
  00292	51		 push	 ecx
  00293	e8 00 00 00 00	 call	 _strcpy
  00298	83 c4 08	 add	 esp, 8

; 1026 : 				*text += strlen (", ");

  0029b	68 00 00 00 00	 push	 OFFSET ??_C@_02KEGNLNML@?0?5@
  002a0	e8 00 00 00 00	 call	 _strlen
  002a5	83 c4 04	 add	 esp, 4
  002a8	8b 4d 14	 mov	 ecx, DWORD PTR _text$[ebp]
  002ab	03 01		 add	 eax, DWORD PTR [ecx]
  002ad	8b 55 14	 mov	 edx, DWORD PTR _text$[ebp]
  002b0	89 02		 mov	 DWORD PTR [edx], eax

; 1027 : 			
; 1028 : 				strcat (*text, get_local_entity_string (company, STRING_TYPE_DIVISION_NAME));

  002b2	83 7d f8 00	 cmp	 DWORD PTR _company$[ebp], 0
  002b6	74 0a		 je	 SHORT $LN26@briefing_a
  002b8	8b 45 f8	 mov	 eax, DWORD PTR _company$[ebp]
  002bb	8b 08		 mov	 ecx, DWORD PTR [eax]
  002bd	89 4d b4	 mov	 DWORD PTR tv207[ebp], ecx
  002c0	eb 21		 jmp	 SHORT $LN27@briefing_a
$LN26@briefing_a:
  002c2	8b 15 00 00 00
	00		 mov	 edx, DWORD PTR ?__LINE__Var@?0??briefing_add_group@@YGXPAUENTITY@@W4MEDAL_TYPES@@W4PILOT_RANK_TYPES@@PAPAD@Z@4JA
  002c8	83 c2 1b	 add	 edx, 27			; 0000001bH
  002cb	52		 push	 edx
  002cc	68 00 00 00 00	 push	 OFFSET ??_C@_0EC@JLKMNKLD@c?3?2users?2nhv90?2projects?2eech?2ap@
  002d1	a1 00 00 00 00	 mov	 eax, DWORD PTR ?null_entity_pointer_message@@3PBDB ; null_entity_pointer_message
  002d6	50		 push	 eax
  002d7	e8 00 00 00 00	 call	 ?process_assert@@YGXPBD0H@Z ; process_assert
  002dc	c7 45 b4 00 00
	00 00		 mov	 DWORD PTR tv207[ebp], 0
$LN27@briefing_a:
  002e3	b9 01 00 00 00	 mov	 ecx, 1
  002e8	85 c9		 test	 ecx, ecx
  002ea	74 09		 je	 SHORT $LN28@briefing_a
  002ec	c7 45 b0 00 00
	00 00		 mov	 DWORD PTR tv215[ebp], 0
  002f3	eb 21		 jmp	 SHORT $LN29@briefing_a
$LN28@briefing_a:
  002f5	8b 15 00 00 00
	00		 mov	 edx, DWORD PTR ?__LINE__Var@?0??briefing_add_group@@YGXPAUENTITY@@W4MEDAL_TYPES@@W4PILOT_RANK_TYPES@@PAPAD@Z@4JA
  002fb	83 c2 1b	 add	 edx, 27			; 0000001bH
  002fe	52		 push	 edx
  002ff	68 00 00 00 00	 push	 OFFSET ??_C@_0EC@JLKMNKLD@c?3?2users?2nhv90?2projects?2eech?2ap@
  00304	a1 00 00 00 00	 mov	 eax, DWORD PTR ?overload_invalid_string_type_message@@3PBDB ; overload_invalid_string_type_message
  00309	50		 push	 eax
  0030a	e8 00 00 00 00	 call	 ?process_assert@@YGXPBD0H@Z ; process_assert
  0030f	c7 45 b0 00 00
	00 00		 mov	 DWORD PTR tv215[ebp], 0
$LN29@briefing_a:
  00316	6a 00		 push	 0
  00318	8b 4d f8	 mov	 ecx, DWORD PTR _company$[ebp]
  0031b	51		 push	 ecx
  0031c	6b 55 b4 34	 imul	 edx, DWORD PTR tv207[ebp], 52
  00320	8b 45 b0	 mov	 eax, DWORD PTR tv215[ebp]
  00323	8b 8c 82 00 00
	00 00		 mov	 ecx, DWORD PTR ?fn_get_local_entity_string@@3PAY0N@P6GPBDPAUENTITY@@W4STRING_TYPES@@@ZA[edx+eax*4]
  0032a	ff d1		 call	 ecx
  0032c	50		 push	 eax
  0032d	8b 55 14	 mov	 edx, DWORD PTR _text$[ebp]
  00330	8b 02		 mov	 eax, DWORD PTR [edx]
  00332	50		 push	 eax
  00333	e8 00 00 00 00	 call	 _strcat
  00338	83 c4 08	 add	 esp, 8

; 1029 : 				*text += strlen (get_local_entity_string (company, STRING_TYPE_DIVISION_NAME));

  0033b	83 7d f8 00	 cmp	 DWORD PTR _company$[ebp], 0
  0033f	74 0a		 je	 SHORT $LN30@briefing_a
  00341	8b 45 f8	 mov	 eax, DWORD PTR _company$[ebp]
  00344	8b 08		 mov	 ecx, DWORD PTR [eax]
  00346	89 4d b4	 mov	 DWORD PTR tv229[ebp], ecx
  00349	eb 21		 jmp	 SHORT $LN31@briefing_a
$LN30@briefing_a:
  0034b	8b 15 00 00 00
	00		 mov	 edx, DWORD PTR ?__LINE__Var@?0??briefing_add_group@@YGXPAUENTITY@@W4MEDAL_TYPES@@W4PILOT_RANK_TYPES@@PAPAD@Z@4JA
  00351	83 c2 1c	 add	 edx, 28			; 0000001cH
  00354	52		 push	 edx
  00355	68 00 00 00 00	 push	 OFFSET ??_C@_0EC@JLKMNKLD@c?3?2users?2nhv90?2projects?2eech?2ap@
  0035a	a1 00 00 00 00	 mov	 eax, DWORD PTR ?null_entity_pointer_message@@3PBDB ; null_entity_pointer_message
  0035f	50		 push	 eax
  00360	e8 00 00 00 00	 call	 ?process_assert@@YGXPBD0H@Z ; process_assert
  00365	c7 45 b4 00 00
	00 00		 mov	 DWORD PTR tv229[ebp], 0
$LN31@briefing_a:
  0036c	b9 01 00 00 00	 mov	 ecx, 1
  00371	85 c9		 test	 ecx, ecx
  00373	74 09		 je	 SHORT $LN32@briefing_a
  00375	c7 45 b0 00 00
	00 00		 mov	 DWORD PTR tv237[ebp], 0
  0037c	eb 21		 jmp	 SHORT $LN33@briefing_a
$LN32@briefing_a:
  0037e	8b 15 00 00 00
	00		 mov	 edx, DWORD PTR ?__LINE__Var@?0??briefing_add_group@@YGXPAUENTITY@@W4MEDAL_TYPES@@W4PILOT_RANK_TYPES@@PAPAD@Z@4JA
  00384	83 c2 1c	 add	 edx, 28			; 0000001cH
  00387	52		 push	 edx
  00388	68 00 00 00 00	 push	 OFFSET ??_C@_0EC@JLKMNKLD@c?3?2users?2nhv90?2projects?2eech?2ap@
  0038d	a1 00 00 00 00	 mov	 eax, DWORD PTR ?overload_invalid_string_type_message@@3PBDB ; overload_invalid_string_type_message
  00392	50		 push	 eax
  00393	e8 00 00 00 00	 call	 ?process_assert@@YGXPBD0H@Z ; process_assert
  00398	c7 45 b0 00 00
	00 00		 mov	 DWORD PTR tv237[ebp], 0
$LN33@briefing_a:
  0039f	6a 00		 push	 0
  003a1	8b 4d f8	 mov	 ecx, DWORD PTR _company$[ebp]
  003a4	51		 push	 ecx
  003a5	6b 55 b4 34	 imul	 edx, DWORD PTR tv229[ebp], 52
  003a9	8b 45 b0	 mov	 eax, DWORD PTR tv237[ebp]
  003ac	8b 8c 82 00 00
	00 00		 mov	 ecx, DWORD PTR ?fn_get_local_entity_string@@3PAY0N@P6GPBDPAUENTITY@@W4STRING_TYPES@@@ZA[edx+eax*4]
  003b3	ff d1		 call	 ecx
  003b5	50		 push	 eax
  003b6	e8 00 00 00 00	 call	 _strlen
  003bb	83 c4 04	 add	 esp, 4
  003be	8b 55 14	 mov	 edx, DWORD PTR _text$[ebp]
  003c1	03 02		 add	 eax, DWORD PTR [edx]
  003c3	8b 4d 14	 mov	 ecx, DWORD PTR _text$[ebp]
  003c6	89 01		 mov	 DWORD PTR [ecx], eax

; 1030 : 			}
; 1031 : 			else

  003c8	e9 1d 01 00 00	 jmp	 $LN1@briefing_a
$LN4@briefing_a:

; 1032 : 			{
; 1033 : 			
; 1034 : 				debug_fatal ("BRIEFING: Trying to build briefing text for %s (%d) mission but object isn't a group %s (%d)",

  003cd	83 7d fc 00	 cmp	 DWORD PTR _group$[ebp], 0
  003d1	74 0a		 je	 SHORT $LN34@briefing_a
  003d3	8b 45 fc	 mov	 eax, DWORD PTR _group$[ebp]
  003d6	8b 08		 mov	 ecx, DWORD PTR [eax]
  003d8	89 4d b4	 mov	 DWORD PTR tv254[ebp], ecx
  003db	eb 21		 jmp	 SHORT $LN35@briefing_a
$LN34@briefing_a:
  003dd	8b 15 00 00 00
	00		 mov	 edx, DWORD PTR ?__LINE__Var@?0??briefing_add_group@@YGXPAUENTITY@@W4MEDAL_TYPES@@W4PILOT_RANK_TYPES@@PAPAD@Z@4JA
  003e3	83 c2 23	 add	 edx, 35			; 00000023H
  003e6	52		 push	 edx
  003e7	68 00 00 00 00	 push	 OFFSET ??_C@_0EC@JLKMNKLD@c?3?2users?2nhv90?2projects?2eech?2ap@
  003ec	a1 00 00 00 00	 mov	 eax, DWORD PTR ?null_entity_pointer_message@@3PBDB ; null_entity_pointer_message
  003f1	50		 push	 eax
  003f2	e8 00 00 00 00	 call	 ?process_assert@@YGXPBD0H@Z ; process_assert
  003f7	c7 45 b4 00 00
	00 00		 mov	 DWORD PTR tv254[ebp], 0
$LN35@briefing_a:
  003fe	b9 01 00 00 00	 mov	 ecx, 1
  00403	85 c9		 test	 ecx, ecx
  00405	74 09		 je	 SHORT $LN36@briefing_a
  00407	c7 45 b0 03 00
	00 00		 mov	 DWORD PTR tv262[ebp], 3
  0040e	eb 21		 jmp	 SHORT $LN37@briefing_a
$LN36@briefing_a:
  00410	8b 15 00 00 00
	00		 mov	 edx, DWORD PTR ?__LINE__Var@?0??briefing_add_group@@YGXPAUENTITY@@W4MEDAL_TYPES@@W4PILOT_RANK_TYPES@@PAPAD@Z@4JA
  00416	83 c2 23	 add	 edx, 35			; 00000023H
  00419	52		 push	 edx
  0041a	68 00 00 00 00	 push	 OFFSET ??_C@_0EC@JLKMNKLD@c?3?2users?2nhv90?2projects?2eech?2ap@
  0041f	a1 00 00 00 00	 mov	 eax, DWORD PTR ?overload_invalid_string_type_message@@3PBDB ; overload_invalid_string_type_message
  00424	50		 push	 eax
  00425	e8 00 00 00 00	 call	 ?process_assert@@YGXPBD0H@Z ; process_assert
  0042a	c7 45 b0 00 00
	00 00		 mov	 DWORD PTR tv262[ebp], 0
$LN37@briefing_a:
  00431	83 7d 08 00	 cmp	 DWORD PTR _task$[ebp], 0
  00435	74 0a		 je	 SHORT $LN38@briefing_a
  00437	8b 4d 08	 mov	 ecx, DWORD PTR _task$[ebp]
  0043a	8b 11		 mov	 edx, DWORD PTR [ecx]
  0043c	89 55 ac	 mov	 DWORD PTR tv278[ebp], edx
  0043f	eb 21		 jmp	 SHORT $LN39@briefing_a
$LN38@briefing_a:
  00441	a1 00 00 00 00	 mov	 eax, DWORD PTR ?__LINE__Var@?0??briefing_add_group@@YGXPAUENTITY@@W4MEDAL_TYPES@@W4PILOT_RANK_TYPES@@PAPAD@Z@4JA
  00446	83 c0 22	 add	 eax, 34			; 00000022H
  00449	50		 push	 eax
  0044a	68 00 00 00 00	 push	 OFFSET ??_C@_0EC@JLKMNKLD@c?3?2users?2nhv90?2projects?2eech?2ap@
  0044f	8b 0d 00 00 00
	00		 mov	 ecx, DWORD PTR ?null_entity_pointer_message@@3PBDB ; null_entity_pointer_message
  00455	51		 push	 ecx
  00456	e8 00 00 00 00	 call	 ?process_assert@@YGXPBD0H@Z ; process_assert
  0045b	c7 45 ac 00 00
	00 00		 mov	 DWORD PTR tv278[ebp], 0
$LN39@briefing_a:
  00462	ba 01 00 00 00	 mov	 edx, 1
  00467	85 d2		 test	 edx, edx
  00469	74 09		 je	 SHORT $LN40@briefing_a
  0046b	c7 45 a8 03 00
	00 00		 mov	 DWORD PTR tv286[ebp], 3
  00472	eb 21		 jmp	 SHORT $LN41@briefing_a
$LN40@briefing_a:
  00474	a1 00 00 00 00	 mov	 eax, DWORD PTR ?__LINE__Var@?0??briefing_add_group@@YGXPAUENTITY@@W4MEDAL_TYPES@@W4PILOT_RANK_TYPES@@PAPAD@Z@4JA
  00479	83 c0 22	 add	 eax, 34			; 00000022H
  0047c	50		 push	 eax
  0047d	68 00 00 00 00	 push	 OFFSET ??_C@_0EC@JLKMNKLD@c?3?2users?2nhv90?2projects?2eech?2ap@
  00482	8b 0d 00 00 00
	00		 mov	 ecx, DWORD PTR ?overload_invalid_string_type_message@@3PBDB ; overload_invalid_string_type_message
  00488	51		 push	 ecx
  00489	e8 00 00 00 00	 call	 ?process_assert@@YGXPBD0H@Z ; process_assert
  0048e	c7 45 a8 00 00
	00 00		 mov	 DWORD PTR tv286[ebp], 0
$LN41@briefing_a:
  00495	8b 55 fc	 mov	 edx, DWORD PTR _group$[ebp]
  00498	2b 15 00 00 00
	00		 sub	 edx, DWORD PTR ?entities@@3PAUENTITY@@A ; entities
  0049e	c1 fa 04	 sar	 edx, 4
  004a1	52		 push	 edx
  004a2	6a 03		 push	 3
  004a4	8b 45 fc	 mov	 eax, DWORD PTR _group$[ebp]
  004a7	50		 push	 eax
  004a8	6b 4d b4 34	 imul	 ecx, DWORD PTR tv254[ebp], 52
  004ac	8b 55 b0	 mov	 edx, DWORD PTR tv262[ebp]
  004af	8b 84 91 00 00
	00 00		 mov	 eax, DWORD PTR ?fn_get_local_entity_string@@3PAY0N@P6GPBDPAUENTITY@@W4STRING_TYPES@@@ZA[ecx+edx*4]
  004b6	ff d0		 call	 eax
  004b8	50		 push	 eax
  004b9	8b 4d 08	 mov	 ecx, DWORD PTR _task$[ebp]
  004bc	2b 0d 00 00 00
	00		 sub	 ecx, DWORD PTR ?entities@@3PAUENTITY@@A ; entities
  004c2	c1 f9 04	 sar	 ecx, 4
  004c5	51		 push	 ecx
  004c6	6a 03		 push	 3
  004c8	8b 55 08	 mov	 edx, DWORD PTR _task$[ebp]
  004cb	52		 push	 edx
  004cc	6b 45 ac 34	 imul	 eax, DWORD PTR tv278[ebp], 52
  004d0	8b 4d a8	 mov	 ecx, DWORD PTR tv286[ebp]
  004d3	8b 94 88 00 00
	00 00		 mov	 edx, DWORD PTR ?fn_get_local_entity_string@@3PAY0N@P6GPBDPAUENTITY@@W4STRING_TYPES@@@ZA[eax+ecx*4]
  004da	ff d2		 call	 edx
  004dc	50		 push	 eax
  004dd	68 00 00 00 00	 push	 OFFSET ??_C@_0FN@HMMMHNJO@BRIEFING?3?5Trying?5to?5build?5brief@
  004e2	e8 00 00 00 00	 call	 ?debug_fatal@@YAXPBDZZ	; debug_fatal
  004e7	83 c4 14	 add	 esp, 20			; 00000014H
$LN1@briefing_a:

; 1035 : 								get_local_entity_string (task, STRING_TYPE_FULL_NAME), get_local_entity_index (task),
; 1036 : 								get_local_entity_string (group, STRING_TYPE_FULL_NAME), get_local_entity_index (group));
; 1037 : 			}
; 1038 : 		}
; 1039 : 	}
; 1040 : }

  004ea	5f		 pop	 edi
  004eb	5e		 pop	 esi
  004ec	5b		 pop	 ebx
  004ed	8b e5		 mov	 esp, ebp
  004ef	5d		 pop	 ebp
  004f0	c2 10 00	 ret	 16			; 00000010H
?briefing_add_group@@YGXPAUENTITY@@W4MEDAL_TYPES@@W4PILOT_RANK_TYPES@@PAPAD@Z ENDP ; briefing_add_group
_TEXT	ENDS
; Function compile flags: /Odtp /ZI
; File c:\users\nhv90\projects\eech\aphavoc\source\ai\faction\briefing.c
;	COMDAT ?briefing_add_keysite@@YGXPAUENTITY@@W4MEDAL_TYPES@@W4PILOT_RANK_TYPES@@PAPAD@Z
_TEXT	SEGMENT
tv218 = -84						; size = 4
tv210 = -80						; size = 4
tv288 = -76						; size = 4
tv263 = -76						; size = 4
tv241 = -76						; size = 4
tv194 = -76						; size = 4
tv169 = -76						; size = 4
tv147 = -76						; size = 4
tv86 = -76						; size = 4
tv71 = -76						; size = 4
tv280 = -72						; size = 4
tv255 = -72						; size = 4
tv233 = -72						; size = 4
tv186 = -72						; size = 4
tv161 = -72						; size = 4
tv139 = -72						; size = 4
tv130 = -72						; size = 4
tv78 = -72						; size = 4
tv70 = -72						; size = 4
_keysite$ = -4						; size = 4
_en$ = 8						; size = 4
_medal$ = 12						; size = 4
_rank$ = 16						; size = 4
_text$ = 20						; size = 4
?briefing_add_keysite@@YGXPAUENTITY@@W4MEDAL_TYPES@@W4PILOT_RANK_TYPES@@PAPAD@Z PROC ; briefing_add_keysite, COMDAT

; 917  : {

  00000	55		 push	 ebp
  00001	8b ec		 mov	 ebp, esp
  00003	83 ec 54	 sub	 esp, 84			; 00000054H
  00006	53		 push	 ebx
  00007	56		 push	 esi
  00008	57		 push	 edi

; 918  : 
; 919  : 	entity
; 920  : 		*keysite;
; 921  : 
; 922  : 	if (en)

  00009	83 7d 08 00	 cmp	 DWORD PTR _en$[ebp], 0
  0000d	0f 84 f6 04 00
	00		 je	 $LN1@briefing_a

; 923  : 	{
; 924  : 
; 925  : 		switch (get_local_entity_type (en))

  00013	83 7d 08 00	 cmp	 DWORD PTR _en$[ebp], 0
  00017	74 0a		 je	 SHORT $LN12@briefing_a
  00019	8b 45 08	 mov	 eax, DWORD PTR _en$[ebp]
  0001c	8b 08		 mov	 ecx, DWORD PTR [eax]
  0001e	89 4d b8	 mov	 DWORD PTR tv70[ebp], ecx
  00021	eb 1d		 jmp	 SHORT $LN13@briefing_a
$LN12@briefing_a:
  00023	68 9d 03 00 00	 push	 925			; 0000039dH
  00028	68 00 00 00 00	 push	 OFFSET ??_C@_0EC@JLKMNKLD@c?3?2users?2nhv90?2projects?2eech?2ap@
  0002d	8b 15 00 00 00
	00		 mov	 edx, DWORD PTR ?null_entity_pointer_message@@3PBDB ; null_entity_pointer_message
  00033	52		 push	 edx
  00034	e8 00 00 00 00	 call	 ?process_assert@@YGXPBD0H@Z ; process_assert
  00039	c7 45 b8 00 00
	00 00		 mov	 DWORD PTR tv70[ebp], 0
$LN13@briefing_a:
  00040	8b 45 b8	 mov	 eax, DWORD PTR tv70[ebp]
  00043	89 45 b4	 mov	 DWORD PTR tv71[ebp], eax
  00046	83 7d b4 0f	 cmp	 DWORD PTR tv71[ebp], 15	; 0000000fH
  0004a	0f 84 09 03 00
	00		 je	 $LN9@briefing_a
  00050	83 7d b4 22	 cmp	 DWORD PTR tv71[ebp], 34	; 00000022H
  00054	74 05		 je	 SHORT $LN5@briefing_a
  00056	e9 19 04 00 00	 jmp	 $LN10@briefing_a
$LN5@briefing_a:

; 926  : 		{
; 927  : 
; 928  : 			case ENTITY_TYPE_TASK:
; 929  : 			{
; 930  : 		
; 931  : 				keysite = get_local_entity_parent (en, LIST_TYPE_TASK_DEPENDENT);

  0005b	83 7d 08 00	 cmp	 DWORD PTR _en$[ebp], 0
  0005f	74 0a		 je	 SHORT $LN14@briefing_a
  00061	8b 45 08	 mov	 eax, DWORD PTR _en$[ebp]
  00064	8b 08		 mov	 ecx, DWORD PTR [eax]
  00066	89 4d b8	 mov	 DWORD PTR tv78[ebp], ecx
  00069	eb 21		 jmp	 SHORT $LN15@briefing_a
$LN14@briefing_a:
  0006b	8b 15 00 00 00
	00		 mov	 edx, DWORD PTR ?__LINE__Var@?0??briefing_add_keysite@@YGXPAUENTITY@@W4MEDAL_TYPES@@W4PILOT_RANK_TYPES@@PAPAD@Z@4JA
  00071	83 c2 0e	 add	 edx, 14			; 0000000eH
  00074	52		 push	 edx
  00075	68 00 00 00 00	 push	 OFFSET ??_C@_0EC@JLKMNKLD@c?3?2users?2nhv90?2projects?2eech?2ap@
  0007a	a1 00 00 00 00	 mov	 eax, DWORD PTR ?null_entity_pointer_message@@3PBDB ; null_entity_pointer_message
  0007f	50		 push	 eax
  00080	e8 00 00 00 00	 call	 ?process_assert@@YGXPBD0H@Z ; process_assert
  00085	c7 45 b8 00 00
	00 00		 mov	 DWORD PTR tv78[ebp], 0
$LN15@briefing_a:
  0008c	b9 01 00 00 00	 mov	 ecx, 1
  00091	85 c9		 test	 ecx, ecx
  00093	74 09		 je	 SHORT $LN16@briefing_a
  00095	c7 45 b4 27 00
	00 00		 mov	 DWORD PTR tv86[ebp], 39	; 00000027H
  0009c	eb 21		 jmp	 SHORT $LN17@briefing_a
$LN16@briefing_a:
  0009e	8b 15 00 00 00
	00		 mov	 edx, DWORD PTR ?__LINE__Var@?0??briefing_add_keysite@@YGXPAUENTITY@@W4MEDAL_TYPES@@W4PILOT_RANK_TYPES@@PAPAD@Z@4JA
  000a4	83 c2 0e	 add	 edx, 14			; 0000000eH
  000a7	52		 push	 edx
  000a8	68 00 00 00 00	 push	 OFFSET ??_C@_0EC@JLKMNKLD@c?3?2users?2nhv90?2projects?2eech?2ap@
  000ad	a1 00 00 00 00	 mov	 eax, DWORD PTR ?overload_invalid_list_type_message@@3PBDB ; overload_invalid_list_type_message
  000b2	50		 push	 eax
  000b3	e8 00 00 00 00	 call	 ?process_assert@@YGXPBD0H@Z ; process_assert
  000b8	c7 45 b4 00 00
	00 00		 mov	 DWORD PTR tv86[ebp], 0
$LN17@briefing_a:
  000bf	6a 27		 push	 39			; 00000027H
  000c1	8b 4d 08	 mov	 ecx, DWORD PTR _en$[ebp]
  000c4	51		 push	 ecx
  000c5	69 55 b8 b4 00
	00 00		 imul	 edx, DWORD PTR tv78[ebp], 180
  000cc	8b 45 b4	 mov	 eax, DWORD PTR tv86[ebp]
  000cf	8b 8c 82 00 00
	00 00		 mov	 ecx, DWORD PTR ?fn_get_local_entity_parent@@3PAY0CN@P6GPAUENTITY@@PAU1@W4LIST_TYPES@@@ZA[edx+eax*4]
  000d6	ff d1		 call	 ecx
  000d8	89 45 fc	 mov	 DWORD PTR _keysite$[ebp], eax

; 932  : 		
; 933  : 				if (keysite)

  000db	83 7d fc 00	 cmp	 DWORD PTR _keysite$[ebp], 0
  000df	0f 84 6f 02 00
	00		 je	 $LN6@briefing_a

; 934  : 				{
; 935  : 		
; 936  : 					if (get_local_entity_type (keysite) == ENTITY_TYPE_KEYSITE)

  000e5	83 7d fc 00	 cmp	 DWORD PTR _keysite$[ebp], 0
  000e9	74 0a		 je	 SHORT $LN18@briefing_a
  000eb	8b 45 fc	 mov	 eax, DWORD PTR _keysite$[ebp]
  000ee	8b 08		 mov	 ecx, DWORD PTR [eax]
  000f0	89 4d b8	 mov	 DWORD PTR tv130[ebp], ecx
  000f3	eb 1d		 jmp	 SHORT $LN19@briefing_a
$LN18@briefing_a:
  000f5	68 a8 03 00 00	 push	 936			; 000003a8H
  000fa	68 00 00 00 00	 push	 OFFSET ??_C@_0EC@JLKMNKLD@c?3?2users?2nhv90?2projects?2eech?2ap@
  000ff	8b 15 00 00 00
	00		 mov	 edx, DWORD PTR ?null_entity_pointer_message@@3PBDB ; null_entity_pointer_message
  00105	52		 push	 edx
  00106	e8 00 00 00 00	 call	 ?process_assert@@YGXPBD0H@Z ; process_assert
  0010b	c7 45 b8 00 00
	00 00		 mov	 DWORD PTR tv130[ebp], 0
$LN19@briefing_a:
  00112	83 7d b8 0f	 cmp	 DWORD PTR tv130[ebp], 15 ; 0000000fH
  00116	0f 85 1b 01 00
	00		 jne	 $LN7@briefing_a

; 937  : 					{
; 938  : 					
; 939  : 						strcpy (*text, get_local_entity_string (keysite, STRING_TYPE_KEYSITE_NAME));

  0011c	83 7d fc 00	 cmp	 DWORD PTR _keysite$[ebp], 0
  00120	74 0a		 je	 SHORT $LN20@briefing_a
  00122	8b 45 fc	 mov	 eax, DWORD PTR _keysite$[ebp]
  00125	8b 08		 mov	 ecx, DWORD PTR [eax]
  00127	89 4d b8	 mov	 DWORD PTR tv139[ebp], ecx
  0012a	eb 21		 jmp	 SHORT $LN21@briefing_a
$LN20@briefing_a:
  0012c	8b 15 00 00 00
	00		 mov	 edx, DWORD PTR ?__LINE__Var@?0??briefing_add_keysite@@YGXPAUENTITY@@W4MEDAL_TYPES@@W4PILOT_RANK_TYPES@@PAPAD@Z@4JA
  00132	83 c2 16	 add	 edx, 22			; 00000016H
  00135	52		 push	 edx
  00136	68 00 00 00 00	 push	 OFFSET ??_C@_0EC@JLKMNKLD@c?3?2users?2nhv90?2projects?2eech?2ap@
  0013b	a1 00 00 00 00	 mov	 eax, DWORD PTR ?null_entity_pointer_message@@3PBDB ; null_entity_pointer_message
  00140	50		 push	 eax
  00141	e8 00 00 00 00	 call	 ?process_assert@@YGXPBD0H@Z ; process_assert
  00146	c7 45 b8 00 00
	00 00		 mov	 DWORD PTR tv139[ebp], 0
$LN21@briefing_a:
  0014d	b9 01 00 00 00	 mov	 ecx, 1
  00152	85 c9		 test	 ecx, ecx
  00154	74 09		 je	 SHORT $LN22@briefing_a
  00156	c7 45 b4 07 00
	00 00		 mov	 DWORD PTR tv147[ebp], 7
  0015d	eb 21		 jmp	 SHORT $LN23@briefing_a
$LN22@briefing_a:
  0015f	8b 15 00 00 00
	00		 mov	 edx, DWORD PTR ?__LINE__Var@?0??briefing_add_keysite@@YGXPAUENTITY@@W4MEDAL_TYPES@@W4PILOT_RANK_TYPES@@PAPAD@Z@4JA
  00165	83 c2 16	 add	 edx, 22			; 00000016H
  00168	52		 push	 edx
  00169	68 00 00 00 00	 push	 OFFSET ??_C@_0EC@JLKMNKLD@c?3?2users?2nhv90?2projects?2eech?2ap@
  0016e	a1 00 00 00 00	 mov	 eax, DWORD PTR ?overload_invalid_string_type_message@@3PBDB ; overload_invalid_string_type_message
  00173	50		 push	 eax
  00174	e8 00 00 00 00	 call	 ?process_assert@@YGXPBD0H@Z ; process_assert
  00179	c7 45 b4 00 00
	00 00		 mov	 DWORD PTR tv147[ebp], 0
$LN23@briefing_a:
  00180	6a 07		 push	 7
  00182	8b 4d fc	 mov	 ecx, DWORD PTR _keysite$[ebp]
  00185	51		 push	 ecx
  00186	6b 55 b8 34	 imul	 edx, DWORD PTR tv139[ebp], 52
  0018a	8b 45 b4	 mov	 eax, DWORD PTR tv147[ebp]
  0018d	8b 8c 82 00 00
	00 00		 mov	 ecx, DWORD PTR ?fn_get_local_entity_string@@3PAY0N@P6GPBDPAUENTITY@@W4STRING_TYPES@@@ZA[edx+eax*4]
  00194	ff d1		 call	 ecx
  00196	50		 push	 eax
  00197	8b 55 14	 mov	 edx, DWORD PTR _text$[ebp]
  0019a	8b 02		 mov	 eax, DWORD PTR [edx]
  0019c	50		 push	 eax
  0019d	e8 00 00 00 00	 call	 _strcpy
  001a2	83 c4 08	 add	 esp, 8

; 940  : 						*text += strlen (get_local_entity_string (keysite, STRING_TYPE_KEYSITE_NAME));

  001a5	83 7d fc 00	 cmp	 DWORD PTR _keysite$[ebp], 0
  001a9	74 0a		 je	 SHORT $LN24@briefing_a
  001ab	8b 45 fc	 mov	 eax, DWORD PTR _keysite$[ebp]
  001ae	8b 08		 mov	 ecx, DWORD PTR [eax]
  001b0	89 4d b8	 mov	 DWORD PTR tv161[ebp], ecx
  001b3	eb 21		 jmp	 SHORT $LN25@briefing_a
$LN24@briefing_a:
  001b5	8b 15 00 00 00
	00		 mov	 edx, DWORD PTR ?__LINE__Var@?0??briefing_add_keysite@@YGXPAUENTITY@@W4MEDAL_TYPES@@W4PILOT_RANK_TYPES@@PAPAD@Z@4JA
  001bb	83 c2 17	 add	 edx, 23			; 00000017H
  001be	52		 push	 edx
  001bf	68 00 00 00 00	 push	 OFFSET ??_C@_0EC@JLKMNKLD@c?3?2users?2nhv90?2projects?2eech?2ap@
  001c4	a1 00 00 00 00	 mov	 eax, DWORD PTR ?null_entity_pointer_message@@3PBDB ; null_entity_pointer_message
  001c9	50		 push	 eax
  001ca	e8 00 00 00 00	 call	 ?process_assert@@YGXPBD0H@Z ; process_assert
  001cf	c7 45 b8 00 00
	00 00		 mov	 DWORD PTR tv161[ebp], 0
$LN25@briefing_a:
  001d6	b9 01 00 00 00	 mov	 ecx, 1
  001db	85 c9		 test	 ecx, ecx
  001dd	74 09		 je	 SHORT $LN26@briefing_a
  001df	c7 45 b4 07 00
	00 00		 mov	 DWORD PTR tv169[ebp], 7
  001e6	eb 21		 jmp	 SHORT $LN27@briefing_a
$LN26@briefing_a:
  001e8	8b 15 00 00 00
	00		 mov	 edx, DWORD PTR ?__LINE__Var@?0??briefing_add_keysite@@YGXPAUENTITY@@W4MEDAL_TYPES@@W4PILOT_RANK_TYPES@@PAPAD@Z@4JA
  001ee	83 c2 17	 add	 edx, 23			; 00000017H
  001f1	52		 push	 edx
  001f2	68 00 00 00 00	 push	 OFFSET ??_C@_0EC@JLKMNKLD@c?3?2users?2nhv90?2projects?2eech?2ap@
  001f7	a1 00 00 00 00	 mov	 eax, DWORD PTR ?overload_invalid_string_type_message@@3PBDB ; overload_invalid_string_type_message
  001fc	50		 push	 eax
  001fd	e8 00 00 00 00	 call	 ?process_assert@@YGXPBD0H@Z ; process_assert
  00202	c7 45 b4 00 00
	00 00		 mov	 DWORD PTR tv169[ebp], 0
$LN27@briefing_a:
  00209	6a 07		 push	 7
  0020b	8b 4d fc	 mov	 ecx, DWORD PTR _keysite$[ebp]
  0020e	51		 push	 ecx
  0020f	6b 55 b8 34	 imul	 edx, DWORD PTR tv161[ebp], 52
  00213	8b 45 b4	 mov	 eax, DWORD PTR tv169[ebp]
  00216	8b 8c 82 00 00
	00 00		 mov	 ecx, DWORD PTR ?fn_get_local_entity_string@@3PAY0N@P6GPBDPAUENTITY@@W4STRING_TYPES@@@ZA[edx+eax*4]
  0021d	ff d1		 call	 ecx
  0021f	50		 push	 eax
  00220	e8 00 00 00 00	 call	 _strlen
  00225	83 c4 04	 add	 esp, 4
  00228	8b 55 14	 mov	 edx, DWORD PTR _text$[ebp]
  0022b	03 02		 add	 eax, DWORD PTR [edx]
  0022d	8b 4d 14	 mov	 ecx, DWORD PTR _text$[ebp]
  00230	89 01		 mov	 DWORD PTR [ecx], eax

; 941  : 					}
; 942  : 					else

  00232	e9 1d 01 00 00	 jmp	 $LN6@briefing_a
$LN7@briefing_a:

; 943  : 					{
; 944  : 					
; 945  : 						debug_fatal ("BRIEFING: Trying to build briefing text for %s (%d) mission but object isn't a keysite %s (%d)",

  00237	83 7d fc 00	 cmp	 DWORD PTR _keysite$[ebp], 0
  0023b	74 0a		 je	 SHORT $LN28@briefing_a
  0023d	8b 45 fc	 mov	 eax, DWORD PTR _keysite$[ebp]
  00240	8b 08		 mov	 ecx, DWORD PTR [eax]
  00242	89 4d b8	 mov	 DWORD PTR tv186[ebp], ecx
  00245	eb 21		 jmp	 SHORT $LN29@briefing_a
$LN28@briefing_a:
  00247	8b 15 00 00 00
	00		 mov	 edx, DWORD PTR ?__LINE__Var@?0??briefing_add_keysite@@YGXPAUENTITY@@W4MEDAL_TYPES@@W4PILOT_RANK_TYPES@@PAPAD@Z@4JA
  0024d	83 c2 1e	 add	 edx, 30			; 0000001eH
  00250	52		 push	 edx
  00251	68 00 00 00 00	 push	 OFFSET ??_C@_0EC@JLKMNKLD@c?3?2users?2nhv90?2projects?2eech?2ap@
  00256	a1 00 00 00 00	 mov	 eax, DWORD PTR ?null_entity_pointer_message@@3PBDB ; null_entity_pointer_message
  0025b	50		 push	 eax
  0025c	e8 00 00 00 00	 call	 ?process_assert@@YGXPBD0H@Z ; process_assert
  00261	c7 45 b8 00 00
	00 00		 mov	 DWORD PTR tv186[ebp], 0
$LN29@briefing_a:
  00268	b9 01 00 00 00	 mov	 ecx, 1
  0026d	85 c9		 test	 ecx, ecx
  0026f	74 09		 je	 SHORT $LN30@briefing_a
  00271	c7 45 b4 03 00
	00 00		 mov	 DWORD PTR tv194[ebp], 3
  00278	eb 21		 jmp	 SHORT $LN31@briefing_a
$LN30@briefing_a:
  0027a	8b 15 00 00 00
	00		 mov	 edx, DWORD PTR ?__LINE__Var@?0??briefing_add_keysite@@YGXPAUENTITY@@W4MEDAL_TYPES@@W4PILOT_RANK_TYPES@@PAPAD@Z@4JA
  00280	83 c2 1e	 add	 edx, 30			; 0000001eH
  00283	52		 push	 edx
  00284	68 00 00 00 00	 push	 OFFSET ??_C@_0EC@JLKMNKLD@c?3?2users?2nhv90?2projects?2eech?2ap@
  00289	a1 00 00 00 00	 mov	 eax, DWORD PTR ?overload_invalid_string_type_message@@3PBDB ; overload_invalid_string_type_message
  0028e	50		 push	 eax
  0028f	e8 00 00 00 00	 call	 ?process_assert@@YGXPBD0H@Z ; process_assert
  00294	c7 45 b4 00 00
	00 00		 mov	 DWORD PTR tv194[ebp], 0
$LN31@briefing_a:
  0029b	83 7d 08 00	 cmp	 DWORD PTR _en$[ebp], 0
  0029f	74 0a		 je	 SHORT $LN32@briefing_a
  002a1	8b 4d 08	 mov	 ecx, DWORD PTR _en$[ebp]
  002a4	8b 11		 mov	 edx, DWORD PTR [ecx]
  002a6	89 55 b0	 mov	 DWORD PTR tv210[ebp], edx
  002a9	eb 21		 jmp	 SHORT $LN33@briefing_a
$LN32@briefing_a:
  002ab	a1 00 00 00 00	 mov	 eax, DWORD PTR ?__LINE__Var@?0??briefing_add_keysite@@YGXPAUENTITY@@W4MEDAL_TYPES@@W4PILOT_RANK_TYPES@@PAPAD@Z@4JA
  002b0	83 c0 1d	 add	 eax, 29			; 0000001dH
  002b3	50		 push	 eax
  002b4	68 00 00 00 00	 push	 OFFSET ??_C@_0EC@JLKMNKLD@c?3?2users?2nhv90?2projects?2eech?2ap@
  002b9	8b 0d 00 00 00
	00		 mov	 ecx, DWORD PTR ?null_entity_pointer_message@@3PBDB ; null_entity_pointer_message
  002bf	51		 push	 ecx
  002c0	e8 00 00 00 00	 call	 ?process_assert@@YGXPBD0H@Z ; process_assert
  002c5	c7 45 b0 00 00
	00 00		 mov	 DWORD PTR tv210[ebp], 0
$LN33@briefing_a:
  002cc	ba 01 00 00 00	 mov	 edx, 1
  002d1	85 d2		 test	 edx, edx
  002d3	74 09		 je	 SHORT $LN34@briefing_a
  002d5	c7 45 ac 03 00
	00 00		 mov	 DWORD PTR tv218[ebp], 3
  002dc	eb 21		 jmp	 SHORT $LN35@briefing_a
$LN34@briefing_a:
  002de	a1 00 00 00 00	 mov	 eax, DWORD PTR ?__LINE__Var@?0??briefing_add_keysite@@YGXPAUENTITY@@W4MEDAL_TYPES@@W4PILOT_RANK_TYPES@@PAPAD@Z@4JA
  002e3	83 c0 1d	 add	 eax, 29			; 0000001dH
  002e6	50		 push	 eax
  002e7	68 00 00 00 00	 push	 OFFSET ??_C@_0EC@JLKMNKLD@c?3?2users?2nhv90?2projects?2eech?2ap@
  002ec	8b 0d 00 00 00
	00		 mov	 ecx, DWORD PTR ?overload_invalid_string_type_message@@3PBDB ; overload_invalid_string_type_message
  002f2	51		 push	 ecx
  002f3	e8 00 00 00 00	 call	 ?process_assert@@YGXPBD0H@Z ; process_assert
  002f8	c7 45 ac 00 00
	00 00		 mov	 DWORD PTR tv218[ebp], 0
$LN35@briefing_a:
  002ff	8b 55 fc	 mov	 edx, DWORD PTR _keysite$[ebp]
  00302	2b 15 00 00 00
	00		 sub	 edx, DWORD PTR ?entities@@3PAUENTITY@@A ; entities
  00308	c1 fa 04	 sar	 edx, 4
  0030b	52		 push	 edx
  0030c	6a 03		 push	 3
  0030e	8b 45 fc	 mov	 eax, DWORD PTR _keysite$[ebp]
  00311	50		 push	 eax
  00312	6b 4d b8 34	 imul	 ecx, DWORD PTR tv186[ebp], 52
  00316	8b 55 b4	 mov	 edx, DWORD PTR tv194[ebp]
  00319	8b 84 91 00 00
	00 00		 mov	 eax, DWORD PTR ?fn_get_local_entity_string@@3PAY0N@P6GPBDPAUENTITY@@W4STRING_TYPES@@@ZA[ecx+edx*4]
  00320	ff d0		 call	 eax
  00322	50		 push	 eax
  00323	8b 4d 08	 mov	 ecx, DWORD PTR _en$[ebp]
  00326	2b 0d 00 00 00
	00		 sub	 ecx, DWORD PTR ?entities@@3PAUENTITY@@A ; entities
  0032c	c1 f9 04	 sar	 ecx, 4
  0032f	51		 push	 ecx
  00330	6a 03		 push	 3
  00332	8b 55 08	 mov	 edx, DWORD PTR _en$[ebp]
  00335	52		 push	 edx
  00336	6b 45 b0 34	 imul	 eax, DWORD PTR tv210[ebp], 52
  0033a	8b 4d ac	 mov	 ecx, DWORD PTR tv218[ebp]
  0033d	8b 94 88 00 00
	00 00		 mov	 edx, DWORD PTR ?fn_get_local_entity_string@@3PAY0N@P6GPBDPAUENTITY@@W4STRING_TYPES@@@ZA[eax+ecx*4]
  00344	ff d2		 call	 edx
  00346	50		 push	 eax
  00347	68 00 00 00 00	 push	 OFFSET ??_C@_0FP@OOKDOKOG@BRIEFING?3?5Trying?5to?5build?5brief@
  0034c	e8 00 00 00 00	 call	 ?debug_fatal@@YAXPBDZZ	; debug_fatal
  00351	83 c4 14	 add	 esp, 20			; 00000014H
$LN6@briefing_a:

; 946  : 										get_local_entity_string (en, STRING_TYPE_FULL_NAME), get_local_entity_index (en),
; 947  : 										get_local_entity_string (keysite, STRING_TYPE_FULL_NAME), get_local_entity_index (keysite));
; 948  : 					}
; 949  : 				}
; 950  : 
; 951  : 				break;

  00354	e9 b0 01 00 00	 jmp	 $LN1@briefing_a
$LN9@briefing_a:

; 952  : 			}
; 953  : 
; 954  : 			case ENTITY_TYPE_KEYSITE:
; 955  : 			{
; 956  : 		
; 957  : 				strcpy (*text, get_local_entity_string (en, STRING_TYPE_KEYSITE_NAME));

  00359	83 7d 08 00	 cmp	 DWORD PTR _en$[ebp], 0
  0035d	74 0a		 je	 SHORT $LN36@briefing_a
  0035f	8b 45 08	 mov	 eax, DWORD PTR _en$[ebp]
  00362	8b 08		 mov	 ecx, DWORD PTR [eax]
  00364	89 4d b8	 mov	 DWORD PTR tv233[ebp], ecx
  00367	eb 21		 jmp	 SHORT $LN37@briefing_a
$LN36@briefing_a:
  00369	8b 15 00 00 00
	00		 mov	 edx, DWORD PTR ?__LINE__Var@?0??briefing_add_keysite@@YGXPAUENTITY@@W4MEDAL_TYPES@@W4PILOT_RANK_TYPES@@PAPAD@Z@4JA
  0036f	83 c2 28	 add	 edx, 40			; 00000028H
  00372	52		 push	 edx
  00373	68 00 00 00 00	 push	 OFFSET ??_C@_0EC@JLKMNKLD@c?3?2users?2nhv90?2projects?2eech?2ap@
  00378	a1 00 00 00 00	 mov	 eax, DWORD PTR ?null_entity_pointer_message@@3PBDB ; null_entity_pointer_message
  0037d	50		 push	 eax
  0037e	e8 00 00 00 00	 call	 ?process_assert@@YGXPBD0H@Z ; process_assert
  00383	c7 45 b8 00 00
	00 00		 mov	 DWORD PTR tv233[ebp], 0
$LN37@briefing_a:
  0038a	b9 01 00 00 00	 mov	 ecx, 1
  0038f	85 c9		 test	 ecx, ecx
  00391	74 09		 je	 SHORT $LN38@briefing_a
  00393	c7 45 b4 07 00
	00 00		 mov	 DWORD PTR tv241[ebp], 7
  0039a	eb 21		 jmp	 SHORT $LN39@briefing_a
$LN38@briefing_a:
  0039c	8b 15 00 00 00
	00		 mov	 edx, DWORD PTR ?__LINE__Var@?0??briefing_add_keysite@@YGXPAUENTITY@@W4MEDAL_TYPES@@W4PILOT_RANK_TYPES@@PAPAD@Z@4JA
  003a2	83 c2 28	 add	 edx, 40			; 00000028H
  003a5	52		 push	 edx
  003a6	68 00 00 00 00	 push	 OFFSET ??_C@_0EC@JLKMNKLD@c?3?2users?2nhv90?2projects?2eech?2ap@
  003ab	a1 00 00 00 00	 mov	 eax, DWORD PTR ?overload_invalid_string_type_message@@3PBDB ; overload_invalid_string_type_message
  003b0	50		 push	 eax
  003b1	e8 00 00 00 00	 call	 ?process_assert@@YGXPBD0H@Z ; process_assert
  003b6	c7 45 b4 00 00
	00 00		 mov	 DWORD PTR tv241[ebp], 0
$LN39@briefing_a:
  003bd	6a 07		 push	 7
  003bf	8b 4d 08	 mov	 ecx, DWORD PTR _en$[ebp]
  003c2	51		 push	 ecx
  003c3	6b 55 b8 34	 imul	 edx, DWORD PTR tv233[ebp], 52
  003c7	8b 45 b4	 mov	 eax, DWORD PTR tv241[ebp]
  003ca	8b 8c 82 00 00
	00 00		 mov	 ecx, DWORD PTR ?fn_get_local_entity_string@@3PAY0N@P6GPBDPAUENTITY@@W4STRING_TYPES@@@ZA[edx+eax*4]
  003d1	ff d1		 call	 ecx
  003d3	50		 push	 eax
  003d4	8b 55 14	 mov	 edx, DWORD PTR _text$[ebp]
  003d7	8b 02		 mov	 eax, DWORD PTR [edx]
  003d9	50		 push	 eax
  003da	e8 00 00 00 00	 call	 _strcpy
  003df	83 c4 08	 add	 esp, 8

; 958  : 				*text += strlen (get_local_entity_string (en, STRING_TYPE_KEYSITE_NAME));

  003e2	83 7d 08 00	 cmp	 DWORD PTR _en$[ebp], 0
  003e6	74 0a		 je	 SHORT $LN40@briefing_a
  003e8	8b 45 08	 mov	 eax, DWORD PTR _en$[ebp]
  003eb	8b 08		 mov	 ecx, DWORD PTR [eax]
  003ed	89 4d b8	 mov	 DWORD PTR tv255[ebp], ecx
  003f0	eb 21		 jmp	 SHORT $LN41@briefing_a
$LN40@briefing_a:
  003f2	8b 15 00 00 00
	00		 mov	 edx, DWORD PTR ?__LINE__Var@?0??briefing_add_keysite@@YGXPAUENTITY@@W4MEDAL_TYPES@@W4PILOT_RANK_TYPES@@PAPAD@Z@4JA
  003f8	83 c2 29	 add	 edx, 41			; 00000029H
  003fb	52		 push	 edx
  003fc	68 00 00 00 00	 push	 OFFSET ??_C@_0EC@JLKMNKLD@c?3?2users?2nhv90?2projects?2eech?2ap@
  00401	a1 00 00 00 00	 mov	 eax, DWORD PTR ?null_entity_pointer_message@@3PBDB ; null_entity_pointer_message
  00406	50		 push	 eax
  00407	e8 00 00 00 00	 call	 ?process_assert@@YGXPBD0H@Z ; process_assert
  0040c	c7 45 b8 00 00
	00 00		 mov	 DWORD PTR tv255[ebp], 0
$LN41@briefing_a:
  00413	b9 01 00 00 00	 mov	 ecx, 1
  00418	85 c9		 test	 ecx, ecx
  0041a	74 09		 je	 SHORT $LN42@briefing_a
  0041c	c7 45 b4 07 00
	00 00		 mov	 DWORD PTR tv263[ebp], 7
  00423	eb 21		 jmp	 SHORT $LN43@briefing_a
$LN42@briefing_a:
  00425	8b 15 00 00 00
	00		 mov	 edx, DWORD PTR ?__LINE__Var@?0??briefing_add_keysite@@YGXPAUENTITY@@W4MEDAL_TYPES@@W4PILOT_RANK_TYPES@@PAPAD@Z@4JA
  0042b	83 c2 29	 add	 edx, 41			; 00000029H
  0042e	52		 push	 edx
  0042f	68 00 00 00 00	 push	 OFFSET ??_C@_0EC@JLKMNKLD@c?3?2users?2nhv90?2projects?2eech?2ap@
  00434	a1 00 00 00 00	 mov	 eax, DWORD PTR ?overload_invalid_string_type_message@@3PBDB ; overload_invalid_string_type_message
  00439	50		 push	 eax
  0043a	e8 00 00 00 00	 call	 ?process_assert@@YGXPBD0H@Z ; process_assert
  0043f	c7 45 b4 00 00
	00 00		 mov	 DWORD PTR tv263[ebp], 0
$LN43@briefing_a:
  00446	6a 07		 push	 7
  00448	8b 4d 08	 mov	 ecx, DWORD PTR _en$[ebp]
  0044b	51		 push	 ecx
  0044c	6b 55 b8 34	 imul	 edx, DWORD PTR tv255[ebp], 52
  00450	8b 45 b4	 mov	 eax, DWORD PTR tv263[ebp]
  00453	8b 8c 82 00 00
	00 00		 mov	 ecx, DWORD PTR ?fn_get_local_entity_string@@3PAY0N@P6GPBDPAUENTITY@@W4STRING_TYPES@@@ZA[edx+eax*4]
  0045a	ff d1		 call	 ecx
  0045c	50		 push	 eax
  0045d	e8 00 00 00 00	 call	 _strlen
  00462	83 c4 04	 add	 esp, 4
  00465	8b 55 14	 mov	 edx, DWORD PTR _text$[ebp]
  00468	03 02		 add	 eax, DWORD PTR [edx]
  0046a	8b 4d 14	 mov	 ecx, DWORD PTR _text$[ebp]
  0046d	89 01		 mov	 DWORD PTR [ecx], eax

; 959  : 
; 960  : 				break;

  0046f	e9 95 00 00 00	 jmp	 $LN1@briefing_a
$LN10@briefing_a:

; 961  : 
; 962  : 			}
; 963  : 			default:
; 964  : 			{
; 965  : 				
; 966  : 				debug_fatal ("BRIEFING: Trying to build briefing text for %s (%d) unknown type",

  00474	83 7d 08 00	 cmp	 DWORD PTR _en$[ebp], 0
  00478	74 0a		 je	 SHORT $LN44@briefing_a
  0047a	8b 45 08	 mov	 eax, DWORD PTR _en$[ebp]
  0047d	8b 08		 mov	 ecx, DWORD PTR [eax]
  0047f	89 4d b8	 mov	 DWORD PTR tv280[ebp], ecx
  00482	eb 21		 jmp	 SHORT $LN45@briefing_a
$LN44@briefing_a:
  00484	8b 15 00 00 00
	00		 mov	 edx, DWORD PTR ?__LINE__Var@?0??briefing_add_keysite@@YGXPAUENTITY@@W4MEDAL_TYPES@@W4PILOT_RANK_TYPES@@PAPAD@Z@4JA
  0048a	83 c2 32	 add	 edx, 50			; 00000032H
  0048d	52		 push	 edx
  0048e	68 00 00 00 00	 push	 OFFSET ??_C@_0EC@JLKMNKLD@c?3?2users?2nhv90?2projects?2eech?2ap@
  00493	a1 00 00 00 00	 mov	 eax, DWORD PTR ?null_entity_pointer_message@@3PBDB ; null_entity_pointer_message
  00498	50		 push	 eax
  00499	e8 00 00 00 00	 call	 ?process_assert@@YGXPBD0H@Z ; process_assert
  0049e	c7 45 b8 00 00
	00 00		 mov	 DWORD PTR tv280[ebp], 0
$LN45@briefing_a:
  004a5	b9 01 00 00 00	 mov	 ecx, 1
  004aa	85 c9		 test	 ecx, ecx
  004ac	74 09		 je	 SHORT $LN46@briefing_a
  004ae	c7 45 b4 03 00
	00 00		 mov	 DWORD PTR tv288[ebp], 3
  004b5	eb 21		 jmp	 SHORT $LN47@briefing_a
$LN46@briefing_a:
  004b7	8b 15 00 00 00
	00		 mov	 edx, DWORD PTR ?__LINE__Var@?0??briefing_add_keysite@@YGXPAUENTITY@@W4MEDAL_TYPES@@W4PILOT_RANK_TYPES@@PAPAD@Z@4JA
  004bd	83 c2 32	 add	 edx, 50			; 00000032H
  004c0	52		 push	 edx
  004c1	68 00 00 00 00	 push	 OFFSET ??_C@_0EC@JLKMNKLD@c?3?2users?2nhv90?2projects?2eech?2ap@
  004c6	a1 00 00 00 00	 mov	 eax, DWORD PTR ?overload_invalid_string_type_message@@3PBDB ; overload_invalid_string_type_message
  004cb	50		 push	 eax
  004cc	e8 00 00 00 00	 call	 ?process_assert@@YGXPBD0H@Z ; process_assert
  004d1	c7 45 b4 00 00
	00 00		 mov	 DWORD PTR tv288[ebp], 0
$LN47@briefing_a:
  004d8	8b 4d 08	 mov	 ecx, DWORD PTR _en$[ebp]
  004db	2b 0d 00 00 00
	00		 sub	 ecx, DWORD PTR ?entities@@3PAUENTITY@@A ; entities
  004e1	c1 f9 04	 sar	 ecx, 4
  004e4	51		 push	 ecx
  004e5	6a 03		 push	 3
  004e7	8b 55 08	 mov	 edx, DWORD PTR _en$[ebp]
  004ea	52		 push	 edx
  004eb	6b 45 b8 34	 imul	 eax, DWORD PTR tv280[ebp], 52
  004ef	8b 4d b4	 mov	 ecx, DWORD PTR tv288[ebp]
  004f2	8b 94 88 00 00
	00 00		 mov	 edx, DWORD PTR ?fn_get_local_entity_string@@3PAY0N@P6GPBDPAUENTITY@@W4STRING_TYPES@@@ZA[eax+ecx*4]
  004f9	ff d2		 call	 edx
  004fb	50		 push	 eax
  004fc	68 00 00 00 00	 push	 OFFSET ??_C@_0EB@LLPJPGGK@BRIEFING?3?5Trying?5to?5build?5brief@
  00501	e8 00 00 00 00	 call	 ?debug_fatal@@YAXPBDZZ	; debug_fatal
  00506	83 c4 0c	 add	 esp, 12			; 0000000cH
$LN1@briefing_a:

; 967  : 								get_local_entity_string (en, STRING_TYPE_FULL_NAME), get_local_entity_index (en));
; 968  : 
; 969  : 				break;
; 970  : 			}
; 971  : 		}
; 972  : 	}
; 973  : }

  00509	5f		 pop	 edi
  0050a	5e		 pop	 esi
  0050b	5b		 pop	 ebx
  0050c	8b e5		 mov	 esp, ebp
  0050e	5d		 pop	 ebp
  0050f	c2 10 00	 ret	 16			; 00000010H
?briefing_add_keysite@@YGXPAUENTITY@@W4MEDAL_TYPES@@W4PILOT_RANK_TYPES@@PAPAD@Z ENDP ; briefing_add_keysite
_TEXT	ENDS
; Function compile flags: /Odtp /ZI
; File c:\users\nhv90\projects\eech\aphavoc\source\ai\faction\briefing.c
;	COMDAT ?briefing_add_sector@@YGXPAUENTITY@@W4MEDAL_TYPES@@W4PILOT_RANK_TYPES@@PAPAD@Z
_TEXT	SEGMENT
tv137 = -116						; size = 4
tv85 = -116						; size = 4
tv70 = -116						; size = 4
tv129 = -112						; size = 4
tv77 = -112						; size = 4
tv69 = -112						; size = 4
_z$ = -44						; size = 4
_x$ = -40						; size = 4
_pos$ = -36						; size = 4
_buffer$ = -32						; size = 32
_en$ = 8						; size = 4
_medal$ = 12						; size = 4
_rank$ = 16						; size = 4
_text$ = 20						; size = 4
?briefing_add_sector@@YGXPAUENTITY@@W4MEDAL_TYPES@@W4PILOT_RANK_TYPES@@PAPAD@Z PROC ; briefing_add_sector, COMDAT

; 862  : {

  00000	55		 push	 ebp
  00001	8b ec		 mov	 ebp, esp
  00003	83 ec 74	 sub	 esp, 116		; 00000074H
  00006	53		 push	 ebx
  00007	56		 push	 esi
  00008	57		 push	 edi

; 863  : 
; 864  : 	char
; 865  : 		buffer [32];
; 866  : 
; 867  : 	vec3d
; 868  : 		*pos;
; 869  : 
; 870  : 	int
; 871  : 		x,
; 872  : 		z;
; 873  : 
; 874  : 	switch (get_local_entity_type (en))

  00009	83 7d 08 00	 cmp	 DWORD PTR _en$[ebp], 0
  0000d	74 0a		 je	 SHORT $LN9@briefing_a
  0000f	8b 45 08	 mov	 eax, DWORD PTR _en$[ebp]
  00012	8b 08		 mov	 ecx, DWORD PTR [eax]
  00014	89 4d 90	 mov	 DWORD PTR tv69[ebp], ecx
  00017	eb 1d		 jmp	 SHORT $LN10@briefing_a
$LN9@briefing_a:
  00019	68 6a 03 00 00	 push	 874			; 0000036aH
  0001e	68 00 00 00 00	 push	 OFFSET ??_C@_0EC@JLKMNKLD@c?3?2users?2nhv90?2projects?2eech?2ap@
  00023	8b 15 00 00 00
	00		 mov	 edx, DWORD PTR ?null_entity_pointer_message@@3PBDB ; null_entity_pointer_message
  00029	52		 push	 edx
  0002a	e8 00 00 00 00	 call	 ?process_assert@@YGXPBD0H@Z ; process_assert
  0002f	c7 45 90 00 00
	00 00		 mov	 DWORD PTR tv69[ebp], 0
$LN10@briefing_a:
  00036	8b 45 90	 mov	 eax, DWORD PTR tv69[ebp]
  00039	89 45 8c	 mov	 DWORD PTR tv70[ebp], eax
  0003c	83 7d 8c 22	 cmp	 DWORD PTR tv70[ebp], 34	; 00000022H
  00040	74 02		 je	 SHORT $LN4@briefing_a
  00042	eb 7f		 jmp	 SHORT $LN5@briefing_a
$LN4@briefing_a:

; 875  : 	{
; 876  : 
; 877  : 		case ENTITY_TYPE_TASK:
; 878  : 		{
; 879  : 		
; 880  : 			pos = get_local_entity_vec3d_ptr (en, VEC3D_TYPE_STOP_POSITION);

  00044	83 7d 08 00	 cmp	 DWORD PTR _en$[ebp], 0
  00048	74 0a		 je	 SHORT $LN11@briefing_a
  0004a	8b 45 08	 mov	 eax, DWORD PTR _en$[ebp]
  0004d	8b 08		 mov	 ecx, DWORD PTR [eax]
  0004f	89 4d 90	 mov	 DWORD PTR tv77[ebp], ecx
  00052	eb 21		 jmp	 SHORT $LN12@briefing_a
$LN11@briefing_a:
  00054	8b 15 00 00 00
	00		 mov	 edx, DWORD PTR ?__LINE__Var@?0??briefing_add_sector@@YGXPAUENTITY@@W4MEDAL_TYPES@@W4PILOT_RANK_TYPES@@PAPAD@Z@4JA
  0005a	83 c2 12	 add	 edx, 18			; 00000012H
  0005d	52		 push	 edx
  0005e	68 00 00 00 00	 push	 OFFSET ??_C@_0EC@JLKMNKLD@c?3?2users?2nhv90?2projects?2eech?2ap@
  00063	a1 00 00 00 00	 mov	 eax, DWORD PTR ?null_entity_pointer_message@@3PBDB ; null_entity_pointer_message
  00068	50		 push	 eax
  00069	e8 00 00 00 00	 call	 ?process_assert@@YGXPBD0H@Z ; process_assert
  0006e	c7 45 90 00 00
	00 00		 mov	 DWORD PTR tv77[ebp], 0
$LN12@briefing_a:
  00075	b9 01 00 00 00	 mov	 ecx, 1
  0007a	85 c9		 test	 ecx, ecx
  0007c	74 09		 je	 SHORT $LN13@briefing_a
  0007e	c7 45 8c 0b 00
	00 00		 mov	 DWORD PTR tv85[ebp], 11	; 0000000bH
  00085	eb 21		 jmp	 SHORT $LN14@briefing_a
$LN13@briefing_a:
  00087	8b 15 00 00 00
	00		 mov	 edx, DWORD PTR ?__LINE__Var@?0??briefing_add_sector@@YGXPAUENTITY@@W4MEDAL_TYPES@@W4PILOT_RANK_TYPES@@PAPAD@Z@4JA
  0008d	83 c2 12	 add	 edx, 18			; 00000012H
  00090	52		 push	 edx
  00091	68 00 00 00 00	 push	 OFFSET ??_C@_0EC@JLKMNKLD@c?3?2users?2nhv90?2projects?2eech?2ap@
  00096	a1 00 00 00 00	 mov	 eax, DWORD PTR ?overload_invalid_vec3d_type_message@@3PBDB ; overload_invalid_vec3d_type_message
  0009b	50		 push	 eax
  0009c	e8 00 00 00 00	 call	 ?process_assert@@YGXPBD0H@Z ; process_assert
  000a1	c7 45 8c 00 00
	00 00		 mov	 DWORD PTR tv85[ebp], 0
$LN14@briefing_a:
  000a8	6a 0b		 push	 11			; 0000000bH
  000aa	8b 4d 08	 mov	 ecx, DWORD PTR _en$[ebp]
  000ad	51		 push	 ecx
  000ae	6b 55 90 60	 imul	 edx, DWORD PTR tv77[ebp], 96
  000b2	8b 45 8c	 mov	 eax, DWORD PTR tv85[ebp]
  000b5	8b 8c 82 00 00
	00 00		 mov	 ecx, DWORD PTR ?fn_get_local_entity_vec3d_ptr@@3PAY0BI@P6GPAUVEC3D@@PAUENTITY@@W4VEC3D_TYPES@@@ZA[edx+eax*4]
  000bc	ff d1		 call	 ecx
  000be	89 45 dc	 mov	 DWORD PTR _pos$[ebp], eax

; 881  : 		
; 882  : 	  		break;

  000c1	eb 7d		 jmp	 SHORT $LN2@briefing_a
$LN5@briefing_a:

; 883  : 		}
; 884  : 
; 885  : 		default:
; 886  : 		{
; 887  : 		
; 888  : 			pos = get_local_entity_vec3d_ptr (en, VEC3D_TYPE_POSITION);

  000c3	83 7d 08 00	 cmp	 DWORD PTR _en$[ebp], 0
  000c7	74 0a		 je	 SHORT $LN15@briefing_a
  000c9	8b 45 08	 mov	 eax, DWORD PTR _en$[ebp]
  000cc	8b 08		 mov	 ecx, DWORD PTR [eax]
  000ce	89 4d 90	 mov	 DWORD PTR tv129[ebp], ecx
  000d1	eb 21		 jmp	 SHORT $LN16@briefing_a
$LN15@briefing_a:
  000d3	8b 15 00 00 00
	00		 mov	 edx, DWORD PTR ?__LINE__Var@?0??briefing_add_sector@@YGXPAUENTITY@@W4MEDAL_TYPES@@W4PILOT_RANK_TYPES@@PAPAD@Z@4JA
  000d9	83 c2 1a	 add	 edx, 26			; 0000001aH
  000dc	52		 push	 edx
  000dd	68 00 00 00 00	 push	 OFFSET ??_C@_0EC@JLKMNKLD@c?3?2users?2nhv90?2projects?2eech?2ap@
  000e2	a1 00 00 00 00	 mov	 eax, DWORD PTR ?null_entity_pointer_message@@3PBDB ; null_entity_pointer_message
  000e7	50		 push	 eax
  000e8	e8 00 00 00 00	 call	 ?process_assert@@YGXPBD0H@Z ; process_assert
  000ed	c7 45 90 00 00
	00 00		 mov	 DWORD PTR tv129[ebp], 0
$LN16@briefing_a:
  000f4	b9 01 00 00 00	 mov	 ecx, 1
  000f9	85 c9		 test	 ecx, ecx
  000fb	74 09		 je	 SHORT $LN17@briefing_a
  000fd	c7 45 8c 08 00
	00 00		 mov	 DWORD PTR tv137[ebp], 8
  00104	eb 21		 jmp	 SHORT $LN18@briefing_a
$LN17@briefing_a:
  00106	8b 15 00 00 00
	00		 mov	 edx, DWORD PTR ?__LINE__Var@?0??briefing_add_sector@@YGXPAUENTITY@@W4MEDAL_TYPES@@W4PILOT_RANK_TYPES@@PAPAD@Z@4JA
  0010c	83 c2 1a	 add	 edx, 26			; 0000001aH
  0010f	52		 push	 edx
  00110	68 00 00 00 00	 push	 OFFSET ??_C@_0EC@JLKMNKLD@c?3?2users?2nhv90?2projects?2eech?2ap@
  00115	a1 00 00 00 00	 mov	 eax, DWORD PTR ?overload_invalid_vec3d_type_message@@3PBDB ; overload_invalid_vec3d_type_message
  0011a	50		 push	 eax
  0011b	e8 00 00 00 00	 call	 ?process_assert@@YGXPBD0H@Z ; process_assert
  00120	c7 45 8c 00 00
	00 00		 mov	 DWORD PTR tv137[ebp], 0
$LN18@briefing_a:
  00127	6a 08		 push	 8
  00129	8b 4d 08	 mov	 ecx, DWORD PTR _en$[ebp]
  0012c	51		 push	 ecx
  0012d	6b 55 90 60	 imul	 edx, DWORD PTR tv129[ebp], 96
  00131	8b 45 8c	 mov	 eax, DWORD PTR tv137[ebp]
  00134	8b 8c 82 00 00
	00 00		 mov	 ecx, DWORD PTR ?fn_get_local_entity_vec3d_ptr@@3PAY0BI@P6GPAUVEC3D@@PAUENTITY@@W4VEC3D_TYPES@@@ZA[edx+eax*4]
  0013b	ff d1		 call	 ecx
  0013d	89 45 dc	 mov	 DWORD PTR _pos$[ebp], eax
$LN2@briefing_a:

; 889  : 
; 890  : 			break;
; 891  : 		}
; 892  : 	}
; 893  : 		
; 894  : 	get_x_sector (x, pos->x);

  00140	8d 45 d8	 lea	 eax, DWORD PTR _x$[ebp]
  00143	50		 push	 eax
  00144	8b 4d dc	 mov	 ecx, DWORD PTR _pos$[ebp]
  00147	f3 0f 10 01	 movss	 xmm0, DWORD PTR [ecx]
  0014b	51		 push	 ecx
  0014c	f3 0f 11 04 24	 movss	 DWORD PTR [esp], xmm0
  00151	e8 00 00 00 00	 call	 ?convert_float_to_int@@YGXMPAH@Z ; convert_float_to_int
  00156	8b 45 d8	 mov	 eax, DWORD PTR _x$[ebp]
  00159	99		 cdq
  0015a	f7 3d 00 00 00
	00		 idiv	 DWORD PTR ?world_map@@3UWORLD_MAP_DATA@@A
  00160	89 45 d8	 mov	 DWORD PTR _x$[ebp], eax

; 895  : 	get_z_sector (z, pos->z);

  00163	8d 45 d4	 lea	 eax, DWORD PTR _z$[ebp]
  00166	50		 push	 eax
  00167	8b 4d dc	 mov	 ecx, DWORD PTR _pos$[ebp]
  0016a	f3 0f 10 41 08	 movss	 xmm0, DWORD PTR [ecx+8]
  0016f	51		 push	 ecx
  00170	f3 0f 11 04 24	 movss	 DWORD PTR [esp], xmm0
  00175	e8 00 00 00 00	 call	 ?convert_float_to_int@@YGXMPAH@Z ; convert_float_to_int
  0017a	8b 45 d4	 mov	 eax, DWORD PTR _z$[ebp]
  0017d	99		 cdq
  0017e	f7 3d 00 00 00
	00		 idiv	 DWORD PTR ?world_map@@3UWORLD_MAP_DATA@@A
  00184	89 45 d4	 mov	 DWORD PTR _z$[ebp], eax

; 896  : 
; 897  : 	if (get_global_current_language () != LANGUAGE_POLISH)

  00187	83 3d 04 00 00
	00 06		 cmp	 DWORD PTR ?global_options@@3UGLOBAL_OPTIONS_DATA@@A+4, 6
  0018e	74 26		 je	 SHORT $LN6@briefing_a

; 898  : 	{
; 899  : 		sprintf (buffer, "%s [%03d:%03d]", get_trans ("Sector"), x, z);

  00190	8b 45 d4	 mov	 eax, DWORD PTR _z$[ebp]
  00193	50		 push	 eax
  00194	8b 4d d8	 mov	 ecx, DWORD PTR _x$[ebp]
  00197	51		 push	 ecx
  00198	68 00 00 00 00	 push	 OFFSET ??_C@_06EMNKOAHN@Sector@
  0019d	e8 00 00 00 00	 call	 ?get_trans@@YGPBDPBD@Z	; get_trans
  001a2	50		 push	 eax
  001a3	68 00 00 00 00	 push	 OFFSET ??_C@_0P@HPNEGNCK@?$CFs?5?$FL?$CF03d?3?$CF03d?$FN@
  001a8	8d 55 e0	 lea	 edx, DWORD PTR _buffer$[ebp]
  001ab	52		 push	 edx
  001ac	e8 00 00 00 00	 call	 _sprintf
  001b1	83 c4 14	 add	 esp, 20			; 00000014H

; 900  : 	}
; 901  : 	else

  001b4	eb 19		 jmp	 SHORT $LN7@briefing_a
$LN6@briefing_a:

; 902  : 	{
; 903  : 		sprintf (buffer, " [%03d:%03d]", x, z);

  001b6	8b 45 d4	 mov	 eax, DWORD PTR _z$[ebp]
  001b9	50		 push	 eax
  001ba	8b 4d d8	 mov	 ecx, DWORD PTR _x$[ebp]
  001bd	51		 push	 ecx
  001be	68 00 00 00 00	 push	 OFFSET ??_C@_0N@IKDPDOME@?5?$FL?$CF03d?3?$CF03d?$FN@
  001c3	8d 55 e0	 lea	 edx, DWORD PTR _buffer$[ebp]
  001c6	52		 push	 edx
  001c7	e8 00 00 00 00	 call	 _sprintf
  001cc	83 c4 10	 add	 esp, 16			; 00000010H
$LN7@briefing_a:

; 904  : 	}
; 905  : 	
; 906  : 
; 907  : 	strcpy (*text, buffer);

  001cf	8d 45 e0	 lea	 eax, DWORD PTR _buffer$[ebp]
  001d2	50		 push	 eax
  001d3	8b 4d 14	 mov	 ecx, DWORD PTR _text$[ebp]
  001d6	8b 11		 mov	 edx, DWORD PTR [ecx]
  001d8	52		 push	 edx
  001d9	e8 00 00 00 00	 call	 _strcpy
  001de	83 c4 08	 add	 esp, 8

; 908  : 
; 909  : 	*text += strlen (buffer);

  001e1	8d 45 e0	 lea	 eax, DWORD PTR _buffer$[ebp]
  001e4	50		 push	 eax
  001e5	e8 00 00 00 00	 call	 _strlen
  001ea	83 c4 04	 add	 esp, 4
  001ed	8b 4d 14	 mov	 ecx, DWORD PTR _text$[ebp]
  001f0	03 01		 add	 eax, DWORD PTR [ecx]
  001f2	8b 55 14	 mov	 edx, DWORD PTR _text$[ebp]
  001f5	89 02		 mov	 DWORD PTR [edx], eax

; 910  : }

  001f7	5f		 pop	 edi
  001f8	5e		 pop	 esi
  001f9	5b		 pop	 ebx
  001fa	8b e5		 mov	 esp, ebp
  001fc	5d		 pop	 ebp
  001fd	c2 10 00	 ret	 16			; 00000010H
?briefing_add_sector@@YGXPAUENTITY@@W4MEDAL_TYPES@@W4PILOT_RANK_TYPES@@PAPAD@Z ENDP ; briefing_add_sector
_TEXT	ENDS
; Function compile flags: /Odtp /ZI
; File c:\users\nhv90\projects\eech\aphavoc\source\ai\faction\briefing.c
;	COMDAT ?briefing_add_position@@YGXPAUENTITY@@W4MEDAL_TYPES@@W4PILOT_RANK_TYPES@@PAPAD@Z
_TEXT	SEGMENT
tv137 = -108						; size = 4
tv85 = -108						; size = 4
tv70 = -108						; size = 4
tv129 = -104						; size = 4
tv77 = -104						; size = 4
tv69 = -104						; size = 4
_pos$ = -36						; size = 4
_buffer$ = -32						; size = 32
_en$ = 8						; size = 4
_medal$ = 12						; size = 4
_rank$ = 16						; size = 4
_text$ = 20						; size = 4
?briefing_add_position@@YGXPAUENTITY@@W4MEDAL_TYPES@@W4PILOT_RANK_TYPES@@PAPAD@Z PROC ; briefing_add_position, COMDAT

; 822  : {

  00000	55		 push	 ebp
  00001	8b ec		 mov	 ebp, esp
  00003	83 ec 6c	 sub	 esp, 108		; 0000006cH
  00006	53		 push	 ebx
  00007	56		 push	 esi
  00008	57		 push	 edi

; 823  : 
; 824  : 	char
; 825  : 		buffer [32];
; 826  : 
; 827  : 	vec3d
; 828  : 		*pos;
; 829  : 
; 830  : 	switch (get_local_entity_type (en))

  00009	83 7d 08 00	 cmp	 DWORD PTR _en$[ebp], 0
  0000d	74 0a		 je	 SHORT $LN7@briefing_a
  0000f	8b 45 08	 mov	 eax, DWORD PTR _en$[ebp]
  00012	8b 08		 mov	 ecx, DWORD PTR [eax]
  00014	89 4d 98	 mov	 DWORD PTR tv69[ebp], ecx
  00017	eb 1d		 jmp	 SHORT $LN8@briefing_a
$LN7@briefing_a:
  00019	68 3e 03 00 00	 push	 830			; 0000033eH
  0001e	68 00 00 00 00	 push	 OFFSET ??_C@_0EC@JLKMNKLD@c?3?2users?2nhv90?2projects?2eech?2ap@
  00023	8b 15 00 00 00
	00		 mov	 edx, DWORD PTR ?null_entity_pointer_message@@3PBDB ; null_entity_pointer_message
  00029	52		 push	 edx
  0002a	e8 00 00 00 00	 call	 ?process_assert@@YGXPBD0H@Z ; process_assert
  0002f	c7 45 98 00 00
	00 00		 mov	 DWORD PTR tv69[ebp], 0
$LN8@briefing_a:
  00036	8b 45 98	 mov	 eax, DWORD PTR tv69[ebp]
  00039	89 45 94	 mov	 DWORD PTR tv70[ebp], eax
  0003c	83 7d 94 22	 cmp	 DWORD PTR tv70[ebp], 34	; 00000022H
  00040	74 02		 je	 SHORT $LN4@briefing_a
  00042	eb 7f		 jmp	 SHORT $LN5@briefing_a
$LN4@briefing_a:

; 831  : 	{
; 832  : 
; 833  : 		case ENTITY_TYPE_TASK:
; 834  : 		{
; 835  : 		
; 836  : 			pos = get_local_entity_vec3d_ptr (en, VEC3D_TYPE_STOP_POSITION);

  00044	83 7d 08 00	 cmp	 DWORD PTR _en$[ebp], 0
  00048	74 0a		 je	 SHORT $LN9@briefing_a
  0004a	8b 45 08	 mov	 eax, DWORD PTR _en$[ebp]
  0004d	8b 08		 mov	 ecx, DWORD PTR [eax]
  0004f	89 4d 98	 mov	 DWORD PTR tv77[ebp], ecx
  00052	eb 21		 jmp	 SHORT $LN10@briefing_a
$LN9@briefing_a:
  00054	8b 15 00 00 00
	00		 mov	 edx, DWORD PTR ?__LINE__Var@?0??briefing_add_position@@YGXPAUENTITY@@W4MEDAL_TYPES@@W4PILOT_RANK_TYPES@@PAPAD@Z@4JA
  0005a	83 c2 0e	 add	 edx, 14			; 0000000eH
  0005d	52		 push	 edx
  0005e	68 00 00 00 00	 push	 OFFSET ??_C@_0EC@JLKMNKLD@c?3?2users?2nhv90?2projects?2eech?2ap@
  00063	a1 00 00 00 00	 mov	 eax, DWORD PTR ?null_entity_pointer_message@@3PBDB ; null_entity_pointer_message
  00068	50		 push	 eax
  00069	e8 00 00 00 00	 call	 ?process_assert@@YGXPBD0H@Z ; process_assert
  0006e	c7 45 98 00 00
	00 00		 mov	 DWORD PTR tv77[ebp], 0
$LN10@briefing_a:
  00075	b9 01 00 00 00	 mov	 ecx, 1
  0007a	85 c9		 test	 ecx, ecx
  0007c	74 09		 je	 SHORT $LN11@briefing_a
  0007e	c7 45 94 0b 00
	00 00		 mov	 DWORD PTR tv85[ebp], 11	; 0000000bH
  00085	eb 21		 jmp	 SHORT $LN12@briefing_a
$LN11@briefing_a:
  00087	8b 15 00 00 00
	00		 mov	 edx, DWORD PTR ?__LINE__Var@?0??briefing_add_position@@YGXPAUENTITY@@W4MEDAL_TYPES@@W4PILOT_RANK_TYPES@@PAPAD@Z@4JA
  0008d	83 c2 0e	 add	 edx, 14			; 0000000eH
  00090	52		 push	 edx
  00091	68 00 00 00 00	 push	 OFFSET ??_C@_0EC@JLKMNKLD@c?3?2users?2nhv90?2projects?2eech?2ap@
  00096	a1 00 00 00 00	 mov	 eax, DWORD PTR ?overload_invalid_vec3d_type_message@@3PBDB ; overload_invalid_vec3d_type_message
  0009b	50		 push	 eax
  0009c	e8 00 00 00 00	 call	 ?process_assert@@YGXPBD0H@Z ; process_assert
  000a1	c7 45 94 00 00
	00 00		 mov	 DWORD PTR tv85[ebp], 0
$LN12@briefing_a:
  000a8	6a 0b		 push	 11			; 0000000bH
  000aa	8b 4d 08	 mov	 ecx, DWORD PTR _en$[ebp]
  000ad	51		 push	 ecx
  000ae	6b 55 98 60	 imul	 edx, DWORD PTR tv77[ebp], 96
  000b2	8b 45 94	 mov	 eax, DWORD PTR tv85[ebp]
  000b5	8b 8c 82 00 00
	00 00		 mov	 ecx, DWORD PTR ?fn_get_local_entity_vec3d_ptr@@3PAY0BI@P6GPAUVEC3D@@PAUENTITY@@W4VEC3D_TYPES@@@ZA[edx+eax*4]
  000bc	ff d1		 call	 ecx
  000be	89 45 dc	 mov	 DWORD PTR _pos$[ebp], eax

; 837  : 		
; 838  : 	  		break;

  000c1	eb 7d		 jmp	 SHORT $LN2@briefing_a
$LN5@briefing_a:

; 839  : 		}
; 840  : 
; 841  : 		default:
; 842  : 		{
; 843  : 		
; 844  : 			pos = get_local_entity_vec3d_ptr (en, VEC3D_TYPE_POSITION);

  000c3	83 7d 08 00	 cmp	 DWORD PTR _en$[ebp], 0
  000c7	74 0a		 je	 SHORT $LN13@briefing_a
  000c9	8b 45 08	 mov	 eax, DWORD PTR _en$[ebp]
  000cc	8b 08		 mov	 ecx, DWORD PTR [eax]
  000ce	89 4d 98	 mov	 DWORD PTR tv129[ebp], ecx
  000d1	eb 21		 jmp	 SHORT $LN14@briefing_a
$LN13@briefing_a:
  000d3	8b 15 00 00 00
	00		 mov	 edx, DWORD PTR ?__LINE__Var@?0??briefing_add_position@@YGXPAUENTITY@@W4MEDAL_TYPES@@W4PILOT_RANK_TYPES@@PAPAD@Z@4JA
  000d9	83 c2 16	 add	 edx, 22			; 00000016H
  000dc	52		 push	 edx
  000dd	68 00 00 00 00	 push	 OFFSET ??_C@_0EC@JLKMNKLD@c?3?2users?2nhv90?2projects?2eech?2ap@
  000e2	a1 00 00 00 00	 mov	 eax, DWORD PTR ?null_entity_pointer_message@@3PBDB ; null_entity_pointer_message
  000e7	50		 push	 eax
  000e8	e8 00 00 00 00	 call	 ?process_assert@@YGXPBD0H@Z ; process_assert
  000ed	c7 45 98 00 00
	00 00		 mov	 DWORD PTR tv129[ebp], 0
$LN14@briefing_a:
  000f4	b9 01 00 00 00	 mov	 ecx, 1
  000f9	85 c9		 test	 ecx, ecx
  000fb	74 09		 je	 SHORT $LN15@briefing_a
  000fd	c7 45 94 08 00
	00 00		 mov	 DWORD PTR tv137[ebp], 8
  00104	eb 21		 jmp	 SHORT $LN16@briefing_a
$LN15@briefing_a:
  00106	8b 15 00 00 00
	00		 mov	 edx, DWORD PTR ?__LINE__Var@?0??briefing_add_position@@YGXPAUENTITY@@W4MEDAL_TYPES@@W4PILOT_RANK_TYPES@@PAPAD@Z@4JA
  0010c	83 c2 16	 add	 edx, 22			; 00000016H
  0010f	52		 push	 edx
  00110	68 00 00 00 00	 push	 OFFSET ??_C@_0EC@JLKMNKLD@c?3?2users?2nhv90?2projects?2eech?2ap@
  00115	a1 00 00 00 00	 mov	 eax, DWORD PTR ?overload_invalid_vec3d_type_message@@3PBDB ; overload_invalid_vec3d_type_message
  0011a	50		 push	 eax
  0011b	e8 00 00 00 00	 call	 ?process_assert@@YGXPBD0H@Z ; process_assert
  00120	c7 45 94 00 00
	00 00		 mov	 DWORD PTR tv137[ebp], 0
$LN16@briefing_a:
  00127	6a 08		 push	 8
  00129	8b 4d 08	 mov	 ecx, DWORD PTR _en$[ebp]
  0012c	51		 push	 ecx
  0012d	6b 55 98 60	 imul	 edx, DWORD PTR tv129[ebp], 96
  00131	8b 45 94	 mov	 eax, DWORD PTR tv137[ebp]
  00134	8b 8c 82 00 00
	00 00		 mov	 ecx, DWORD PTR ?fn_get_local_entity_vec3d_ptr@@3PAY0BI@P6GPAUVEC3D@@PAUENTITY@@W4VEC3D_TYPES@@@ZA[edx+eax*4]
  0013b	ff d1		 call	 ecx
  0013d	89 45 dc	 mov	 DWORD PTR _pos$[ebp], eax
$LN2@briefing_a:

; 845  : 
; 846  : 			break;
; 847  : 		}
; 848  : 	}
; 849  : 		
; 850  : 	sprintf (buffer, "%d : %d", (int) pos->x, (int) pos->z);

  00140	8b 45 dc	 mov	 eax, DWORD PTR _pos$[ebp]
  00143	f3 0f 2c 48 08	 cvttss2si ecx, DWORD PTR [eax+8]
  00148	51		 push	 ecx
  00149	8b 55 dc	 mov	 edx, DWORD PTR _pos$[ebp]
  0014c	f3 0f 2c 02	 cvttss2si eax, DWORD PTR [edx]
  00150	50		 push	 eax
  00151	68 00 00 00 00	 push	 OFFSET ??_C@_07CHKKAENF@?$CFd?5?3?5?$CFd@
  00156	8d 4d e0	 lea	 ecx, DWORD PTR _buffer$[ebp]
  00159	51		 push	 ecx
  0015a	e8 00 00 00 00	 call	 _sprintf
  0015f	83 c4 10	 add	 esp, 16			; 00000010H

; 851  : 
; 852  : 	strcpy (*text, buffer);

  00162	8d 45 e0	 lea	 eax, DWORD PTR _buffer$[ebp]
  00165	50		 push	 eax
  00166	8b 4d 14	 mov	 ecx, DWORD PTR _text$[ebp]
  00169	8b 11		 mov	 edx, DWORD PTR [ecx]
  0016b	52		 push	 edx
  0016c	e8 00 00 00 00	 call	 _strcpy
  00171	83 c4 08	 add	 esp, 8

; 853  : 
; 854  : 	*text += strlen (buffer);

  00174	8d 45 e0	 lea	 eax, DWORD PTR _buffer$[ebp]
  00177	50		 push	 eax
  00178	e8 00 00 00 00	 call	 _strlen
  0017d	83 c4 04	 add	 esp, 4
  00180	8b 4d 14	 mov	 ecx, DWORD PTR _text$[ebp]
  00183	03 01		 add	 eax, DWORD PTR [ecx]
  00185	8b 55 14	 mov	 edx, DWORD PTR _text$[ebp]
  00188	89 02		 mov	 DWORD PTR [edx], eax

; 855  : }

  0018a	5f		 pop	 edi
  0018b	5e		 pop	 esi
  0018c	5b		 pop	 ebx
  0018d	8b e5		 mov	 esp, ebp
  0018f	5d		 pop	 ebp
  00190	c2 10 00	 ret	 16			; 00000010H
?briefing_add_position@@YGXPAUENTITY@@W4MEDAL_TYPES@@W4PILOT_RANK_TYPES@@PAPAD@Z ENDP ; briefing_add_position
_TEXT	ENDS
; Function compile flags: /Odtp /ZI
; File c:\users\nhv90\projects\eech\aphavoc\source\ai\faction\briefing.c
;	COMDAT ?build_substitution_info@@YGXPAUENTITY@@W4MEDAL_TYPES@@W4PILOT_RANK_TYPES@@PAD3@Z
_TEXT	SEGMENT
_loop$1 = -20						; size = 4
_loop$ = -16						; size = 4
_flag$ = -12						; size = 4
_temp_text$ = -8					; size = 4
_text_ptr$ = -4						; size = 4
_task$ = 8						; size = 4
_medal$ = 12						; size = 4
_rank$ = 16						; size = 4
_text_buffer$ = 20					; size = 4
_destination_text$ = 24					; size = 4
?build_substitution_info@@YGXPAUENTITY@@W4MEDAL_TYPES@@W4PILOT_RANK_TYPES@@PAD3@Z PROC ; build_substitution_info, COMDAT

; 736  : {

  00000	55		 push	 ebp
  00001	8b ec		 mov	 ebp, esp
  00003	83 ec 54	 sub	 esp, 84			; 00000054H
  00006	53		 push	 ebx
  00007	56		 push	 esi
  00008	57		 push	 edi

; 737  : 
; 738  : 	char
; 739  : 		*text_ptr,
; 740  : 		*temp_text;
; 741  : 
; 742  : 	int
; 743  : 		flag,
; 744  : 		loop;
; 745  : 
; 746  : 	temp_text = text_buffer;

  00009	8b 45 14	 mov	 eax, DWORD PTR _text_buffer$[ebp]
  0000c	89 45 f8	 mov	 DWORD PTR _temp_text$[ebp], eax

; 747  : 	text_ptr = destination_text;

  0000f	8b 45 18	 mov	 eax, DWORD PTR _destination_text$[ebp]
  00012	89 45 fc	 mov	 DWORD PTR _text_ptr$[ebp], eax

; 748  : 
; 749  : 	if (text_buffer == NULL)

  00015	83 7d 14 00	 cmp	 DWORD PTR _text_buffer$[ebp], 0
  00019	75 0b		 jne	 SHORT $LN10@build_subs

; 750  : 	{
; 751  : 
; 752  : 		*text_ptr = '\0';

  0001b	8b 45 fc	 mov	 eax, DWORD PTR _text_ptr$[ebp]
  0001e	c6 00 00	 mov	 BYTE PTR [eax], 0

; 753  : 
; 754  : 		return;

  00021	e9 e4 00 00 00	 jmp	 $LN1@build_subs
$LN10@build_subs:

; 755  : 	}
; 756  : 
; 757  : 	//
; 758  : 	// initialise substitution string
; 759  : 	//
; 760  : 
; 761  : 	for (loop = 0; loop < sizeof (briefing_substitutions) / sizeof (briefing_substitution_type); loop ++)

  00026	c7 45 f0 00 00
	00 00		 mov	 DWORD PTR _loop$[ebp], 0
  0002d	eb 09		 jmp	 SHORT $LN4@build_subs
$LN2@build_subs:
  0002f	8b 45 f0	 mov	 eax, DWORD PTR _loop$[ebp]
  00032	83 c0 01	 add	 eax, 1
  00035	89 45 f0	 mov	 DWORD PTR _loop$[ebp], eax
$LN4@build_subs:
  00038	83 7d f0 07	 cmp	 DWORD PTR _loop$[ebp], 7
  0003c	73 23		 jae	 SHORT $LN5@build_subs

; 762  : 	{
; 763  : 
; 764  : 		briefing_substitutions [loop].position_ptr = strstr (text_buffer, briefing_substitutions [loop].string);

  0003e	6b 45 f0 0c	 imul	 eax, DWORD PTR _loop$[ebp], 12
  00042	8b 88 00 00 00
	00		 mov	 ecx, DWORD PTR ?briefing_substitutions@@3PAUBRIEFING_SUBSTITUTION_TYPE@@A[eax]
  00048	51		 push	 ecx
  00049	8b 55 14	 mov	 edx, DWORD PTR _text_buffer$[ebp]
  0004c	52		 push	 edx
  0004d	e8 00 00 00 00	 call	 ?strstr@@YAPADQADQBD@Z	; strstr
  00052	83 c4 08	 add	 esp, 8
  00055	6b 4d f0 0c	 imul	 ecx, DWORD PTR _loop$[ebp], 12
  00059	89 81 04 00 00
	00		 mov	 DWORD PTR ?briefing_substitutions@@3PAUBRIEFING_SUBSTITUTION_TYPE@@A[ecx+4], eax

; 765  : 	}

  0005f	eb ce		 jmp	 SHORT $LN2@build_subs
$LN5@build_subs:

; 766  : 
; 767  : 	//
; 768  : 	//
; 769  : 	//
; 770  : 
; 771  : 	while (*temp_text != '\0')

  00061	8b 45 f8	 mov	 eax, DWORD PTR _temp_text$[ebp]
  00064	0f b6 08	 movzx	 ecx, BYTE PTR [eax]
  00067	85 c9		 test	 ecx, ecx
  00069	0f 84 95 00 00
	00		 je	 $LN6@build_subs

; 772  : 	{
; 773  : 
; 774  : 		int
; 775  : 			loop;
; 776  : 
; 777  : 		//
; 778  : 		// check for substitution string
; 779  : 		//
; 780  : 
; 781  : 		flag = FALSE;

  0006f	c7 45 f4 00 00
	00 00		 mov	 DWORD PTR _flag$[ebp], 0

; 782  : 
; 783  : 		for (loop = 0; loop < sizeof (briefing_substitutions) / sizeof (briefing_substitution_type); loop ++)

  00076	c7 45 ec 00 00
	00 00		 mov	 DWORD PTR _loop$1[ebp], 0
  0007d	eb 09		 jmp	 SHORT $LN9@build_subs
$LN7@build_subs:
  0007f	8b 45 ec	 mov	 eax, DWORD PTR _loop$1[ebp]
  00082	83 c0 01	 add	 eax, 1
  00085	89 45 ec	 mov	 DWORD PTR _loop$1[ebp], eax
$LN9@build_subs:
  00088	83 7d ec 07	 cmp	 DWORD PTR _loop$1[ebp], 7
  0008c	73 4f		 jae	 SHORT $LN8@build_subs

; 784  : 		{
; 785  : 	
; 786  : 			if (briefing_substitutions [loop].position_ptr == temp_text)

  0008e	6b 45 ec 0c	 imul	 eax, DWORD PTR _loop$1[ebp], 12
  00092	8b 88 04 00 00
	00		 mov	 ecx, DWORD PTR ?briefing_substitutions@@3PAUBRIEFING_SUBSTITUTION_TYPE@@A[eax+4]
  00098	3b 4d f8	 cmp	 ecx, DWORD PTR _temp_text$[ebp]
  0009b	75 3e		 jne	 SHORT $LN11@build_subs

; 787  : 			{
; 788  : 
; 789  : 				briefing_substitutions [loop].function (task, medal, rank, &text_ptr);

  0009d	8d 45 fc	 lea	 eax, DWORD PTR _text_ptr$[ebp]
  000a0	50		 push	 eax
  000a1	8b 4d 10	 mov	 ecx, DWORD PTR _rank$[ebp]
  000a4	51		 push	 ecx
  000a5	8b 55 0c	 mov	 edx, DWORD PTR _medal$[ebp]
  000a8	52		 push	 edx
  000a9	8b 45 08	 mov	 eax, DWORD PTR _task$[ebp]
  000ac	50		 push	 eax
  000ad	6b 4d ec 0c	 imul	 ecx, DWORD PTR _loop$1[ebp], 12
  000b1	8b 91 08 00 00
	00		 mov	 edx, DWORD PTR ?briefing_substitutions@@3PAUBRIEFING_SUBSTITUTION_TYPE@@A[ecx+8]
  000b7	ff d2		 call	 edx

; 790  : 
; 791  : 				temp_text += strlen (briefing_substitutions [loop].string);

  000b9	6b 45 ec 0c	 imul	 eax, DWORD PTR _loop$1[ebp], 12
  000bd	8b 88 00 00 00
	00		 mov	 ecx, DWORD PTR ?briefing_substitutions@@3PAUBRIEFING_SUBSTITUTION_TYPE@@A[eax]
  000c3	51		 push	 ecx
  000c4	e8 00 00 00 00	 call	 _strlen
  000c9	83 c4 04	 add	 esp, 4
  000cc	03 45 f8	 add	 eax, DWORD PTR _temp_text$[ebp]
  000cf	89 45 f8	 mov	 DWORD PTR _temp_text$[ebp], eax

; 792  : 
; 793  : 				flag = TRUE;

  000d2	c7 45 f4 01 00
	00 00		 mov	 DWORD PTR _flag$[ebp], 1

; 794  : 
; 795  : 				break;

  000d9	eb 02		 jmp	 SHORT $LN8@build_subs
$LN11@build_subs:

; 796  : 			}
; 797  : 		}

  000db	eb a2		 jmp	 SHORT $LN7@build_subs
$LN8@build_subs:

; 798  : 
; 799  : 		if (!flag)

  000dd	83 7d f4 00	 cmp	 DWORD PTR _flag$[ebp], 0
  000e1	75 1c		 jne	 SHORT $LN12@build_subs

; 800  : 		{
; 801  : 
; 802  : 			//
; 803  : 			// copy string across
; 804  : 			//
; 805  : 
; 806  : 			*text_ptr = *temp_text;

  000e3	8b 45 fc	 mov	 eax, DWORD PTR _text_ptr$[ebp]
  000e6	8b 4d f8	 mov	 ecx, DWORD PTR _temp_text$[ebp]
  000e9	8a 11		 mov	 dl, BYTE PTR [ecx]
  000eb	88 10		 mov	 BYTE PTR [eax], dl

; 807  : 	
; 808  : 			text_ptr ++;

  000ed	8b 45 fc	 mov	 eax, DWORD PTR _text_ptr$[ebp]
  000f0	83 c0 01	 add	 eax, 1
  000f3	89 45 fc	 mov	 DWORD PTR _text_ptr$[ebp], eax

; 809  : 
; 810  : 			temp_text ++;

  000f6	8b 45 f8	 mov	 eax, DWORD PTR _temp_text$[ebp]
  000f9	83 c0 01	 add	 eax, 1
  000fc	89 45 f8	 mov	 DWORD PTR _temp_text$[ebp], eax
$LN12@build_subs:

; 811  : 		}
; 812  : 	}

  000ff	e9 5d ff ff ff	 jmp	 $LN5@build_subs
$LN6@build_subs:

; 813  : 
; 814  : 	*text_ptr = '\0';

  00104	8b 45 fc	 mov	 eax, DWORD PTR _text_ptr$[ebp]
  00107	c6 00 00	 mov	 BYTE PTR [eax], 0
$LN1@build_subs:

; 815  : }

  0010a	5f		 pop	 edi
  0010b	5e		 pop	 esi
  0010c	5b		 pop	 ebx
  0010d	8b e5		 mov	 esp, ebp
  0010f	5d		 pop	 ebp
  00110	c2 14 00	 ret	 20			; 00000014H
?build_substitution_info@@YGXPAUENTITY@@W4MEDAL_TYPES@@W4PILOT_RANK_TYPES@@PAD3@Z ENDP ; build_substitution_info
_TEXT	ENDS
; Function compile flags: /Odtp /ZI
; File c:\users\nhv90\projects\eech\aphavoc\source\ai\faction\briefing.c
;	COMDAT ?get_objective_briefing_text@@YGHPAUENTITY@@HPAD@Z
_TEXT	SEGMENT
_this_objective$ = -8					; size = 4
_text_choice$ = -4					; size = 4
_keysite$ = 8						; size = 4
_objective_type$ = 12					; size = 4
_objective_text$ = 16					; size = 4
?get_objective_briefing_text@@YGHPAUENTITY@@HPAD@Z PROC	; get_objective_briefing_text, COMDAT

; 1432 : {

  00000	55		 push	 ebp
  00001	8b ec		 mov	 ebp, esp
  00003	83 ec 48	 sub	 esp, 72			; 00000048H
  00006	53		 push	 ebx
  00007	56		 push	 esi
  00008	57		 push	 edi

; 1433 : 
; 1434 : 	int
; 1435 : 		text_choice;
; 1436 : 
; 1437 : 	extra_briefing_type
; 1438 : 		*this_objective;
; 1439 : 
; 1440 : 	this_objective = get_extra_briefing_data (EXTRA_BRIEFING_OBJECTIVES, objective_type);

  00009	8b 45 0c	 mov	 eax, DWORD PTR _objective_type$[ebp]
  0000c	50		 push	 eax
  0000d	6a 02		 push	 2
  0000f	e8 00 00 00 00	 call	 ?get_extra_briefing_data@@YGPAUEXTRA_BRIEFING_TYPE@@W4EXTRA_BRIEFING_TYPES@@H@Z ; get_extra_briefing_data
  00014	89 45 f8	 mov	 DWORD PTR _this_objective$[ebp], eax

; 1441 : 
; 1442 : 	if (this_objective)

  00017	83 7d f8 00	 cmp	 DWORD PTR _this_objective$[ebp], 0
  0001b	74 5c		 je	 SHORT $LN2@get_object

; 1443 : 	{
; 1444 : 
; 1445 : 		ASSERT (this_objective->text_count > 0);

  0001d	8b 45 f8	 mov	 eax, DWORD PTR _this_objective$[ebp]
  00020	83 78 08 00	 cmp	 DWORD PTR [eax+8], 0
  00024	7f 18		 jg	 SHORT $LN4@get_object
  00026	a1 00 00 00 00	 mov	 eax, DWORD PTR ?__LINE__Var@?0??get_objective_briefing_text@@YGHPAUENTITY@@HPAD@Z@4JA
  0002b	83 c0 0d	 add	 eax, 13			; 0000000dH
  0002e	50		 push	 eax
  0002f	68 00 00 00 00	 push	 OFFSET ??_C@_0EC@JLKMNKLD@c?3?2users?2nhv90?2projects?2eech?2ap@
  00034	68 00 00 00 00	 push	 OFFSET ??_C@_0BP@EOIHHHKG@this_objective?9?$DOtext_count?5?$DO?50@
  00039	e8 00 00 00 00	 call	 ?process_assert@@YGXPBD0H@Z ; process_assert
$LN4@get_object:

; 1446 : 	
; 1447 : 		text_choice = get_local_entity_index (keysite) % this_objective->text_count;

  0003e	8b 45 08	 mov	 eax, DWORD PTR _keysite$[ebp]
  00041	2b 05 00 00 00
	00		 sub	 eax, DWORD PTR ?entities@@3PAUENTITY@@A ; entities
  00047	c1 f8 04	 sar	 eax, 4
  0004a	8b 4d f8	 mov	 ecx, DWORD PTR _this_objective$[ebp]
  0004d	99		 cdq
  0004e	f7 79 08	 idiv	 DWORD PTR [ecx+8]
  00051	89 55 fc	 mov	 DWORD PTR _text_choice$[ebp], edx

; 1448 : 	
; 1449 : 		build_substitution_info (keysite, NUM_MEDAL_TYPES, NUM_PILOT_RANKS, this_objective->briefing_text [text_choice], objective_text);

  00054	8b 45 10	 mov	 eax, DWORD PTR _objective_text$[ebp]
  00057	50		 push	 eax
  00058	8b 4d fc	 mov	 ecx, DWORD PTR _text_choice$[ebp]
  0005b	8b 55 f8	 mov	 edx, DWORD PTR _this_objective$[ebp]
  0005e	8b 44 8a 0c	 mov	 eax, DWORD PTR [edx+ecx*4+12]
  00062	50		 push	 eax
  00063	6a 06		 push	 6
  00065	6a 0d		 push	 13			; 0000000dH
  00067	8b 4d 08	 mov	 ecx, DWORD PTR _keysite$[ebp]
  0006a	51		 push	 ecx
  0006b	e8 00 00 00 00	 call	 ?build_substitution_info@@YGXPAUENTITY@@W4MEDAL_TYPES@@W4PILOT_RANK_TYPES@@PAD3@Z ; build_substitution_info

; 1450 : 
; 1451 : 		return TRUE;

  00070	b8 01 00 00 00	 mov	 eax, 1
  00075	eb 1c		 jmp	 SHORT $LN1@get_object

; 1452 : 	}
; 1453 : 	else

  00077	eb 18		 jmp	 SHORT $LN3@get_object
$LN2@get_object:

; 1454 : 	{
; 1455 : 
; 1456 : 		debug_log ("BRIEFING: WARNING: no objective text for %s", entity_sub_type_keysite_names [objective_type]);

  00079	8b 45 0c	 mov	 eax, DWORD PTR _objective_type$[ebp]
  0007c	8b 0c 85 00 00
	00 00		 mov	 ecx, DWORD PTR ?entity_sub_type_keysite_names@@3PAPBDA[eax*4]
  00083	51		 push	 ecx
  00084	68 00 00 00 00	 push	 OFFSET ??_C@_0CM@CCOFBLGF@BRIEFING?3?5WARNING?3?5no?5objective@
  00089	e8 00 00 00 00	 call	 ?debug_log@@YAXPBDZZ	; debug_log
  0008e	83 c4 08	 add	 esp, 8
$LN3@get_object:

; 1457 : 	}
; 1458 : 
; 1459 : 	return FALSE;

  00091	33 c0		 xor	 eax, eax
$LN1@get_object:

; 1460 : }

  00093	5f		 pop	 edi
  00094	5e		 pop	 esi
  00095	5b		 pop	 ebx
  00096	8b e5		 mov	 esp, ebp
  00098	5d		 pop	 ebp
  00099	c2 0c 00	 ret	 12			; 0000000cH
?get_objective_briefing_text@@YGHPAUENTITY@@HPAD@Z ENDP	; get_objective_briefing_text
_TEXT	ENDS
; Function compile flags: /Odtp /ZI
; File c:\users\nhv90\projects\eech\aphavoc\source\ai\faction\briefing.c
;	COMDAT ?get_promotion_briefing_text@@YGHPAUENTITY@@HPAD@Z
_TEXT	SEGMENT
_this_rank$ = -8					; size = 4
_text_choice$ = -4					; size = 4
_task$ = 8						; size = 4
_rank_type$ = 12					; size = 4
_rank_text$ = 16					; size = 4
?get_promotion_briefing_text@@YGHPAUENTITY@@HPAD@Z PROC	; get_promotion_briefing_text, COMDAT

; 1396 : {

  00000	55		 push	 ebp
  00001	8b ec		 mov	 ebp, esp
  00003	83 ec 48	 sub	 esp, 72			; 00000048H
  00006	53		 push	 ebx
  00007	56		 push	 esi
  00008	57		 push	 edi

; 1397 : 
; 1398 : 	int
; 1399 : 		text_choice;
; 1400 : 
; 1401 : 	extra_briefing_type
; 1402 : 		*this_rank;
; 1403 : 
; 1404 : 	// sub_type == 0 because there aren't different texts per promotion
; 1405 : 	this_rank = get_extra_briefing_data (EXTRA_BRIEFING_PROMOTION, 0);

  00009	6a 00		 push	 0
  0000b	6a 01		 push	 1
  0000d	e8 00 00 00 00	 call	 ?get_extra_briefing_data@@YGPAUEXTRA_BRIEFING_TYPE@@W4EXTRA_BRIEFING_TYPES@@H@Z ; get_extra_briefing_data
  00012	89 45 f8	 mov	 DWORD PTR _this_rank$[ebp], eax

; 1406 : 
; 1407 : 	if (this_rank)

  00015	83 7d f8 00	 cmp	 DWORD PTR _this_rank$[ebp], 0
  00019	74 5e		 je	 SHORT $LN2@get_promot

; 1408 : 	{
; 1409 : 
; 1410 : 		ASSERT (this_rank->text_count > 0);

  0001b	8b 45 f8	 mov	 eax, DWORD PTR _this_rank$[ebp]
  0001e	83 78 08 00	 cmp	 DWORD PTR [eax+8], 0
  00022	7f 18		 jg	 SHORT $LN4@get_promot
  00024	a1 00 00 00 00	 mov	 eax, DWORD PTR ?__LINE__Var@?0??get_promotion_briefing_text@@YGHPAUENTITY@@HPAD@Z@4JA
  00029	83 c0 0e	 add	 eax, 14			; 0000000eH
  0002c	50		 push	 eax
  0002d	68 00 00 00 00	 push	 OFFSET ??_C@_0EC@JLKMNKLD@c?3?2users?2nhv90?2projects?2eech?2ap@
  00032	68 00 00 00 00	 push	 OFFSET ??_C@_0BK@POHGJKOG@this_rank?9?$DOtext_count?5?$DO?50@
  00037	e8 00 00 00 00	 call	 ?process_assert@@YGXPBD0H@Z ; process_assert
$LN4@get_promot:

; 1411 : 	
; 1412 : 		text_choice = get_local_entity_index (task) % this_rank->text_count;

  0003c	8b 45 08	 mov	 eax, DWORD PTR _task$[ebp]
  0003f	2b 05 00 00 00
	00		 sub	 eax, DWORD PTR ?entities@@3PAUENTITY@@A ; entities
  00045	c1 f8 04	 sar	 eax, 4
  00048	8b 4d f8	 mov	 ecx, DWORD PTR _this_rank$[ebp]
  0004b	99		 cdq
  0004c	f7 79 08	 idiv	 DWORD PTR [ecx+8]
  0004f	89 55 fc	 mov	 DWORD PTR _text_choice$[ebp], edx

; 1413 : 	
; 1414 : 		build_substitution_info (task, NUM_MEDAL_TYPES, (pilot_rank_types) rank_type, this_rank->briefing_text [text_choice], rank_text);

  00052	8b 45 10	 mov	 eax, DWORD PTR _rank_text$[ebp]
  00055	50		 push	 eax
  00056	8b 4d fc	 mov	 ecx, DWORD PTR _text_choice$[ebp]
  00059	8b 55 f8	 mov	 edx, DWORD PTR _this_rank$[ebp]
  0005c	8b 44 8a 0c	 mov	 eax, DWORD PTR [edx+ecx*4+12]
  00060	50		 push	 eax
  00061	8b 4d 0c	 mov	 ecx, DWORD PTR _rank_type$[ebp]
  00064	51		 push	 ecx
  00065	6a 0d		 push	 13			; 0000000dH
  00067	8b 55 08	 mov	 edx, DWORD PTR _task$[ebp]
  0006a	52		 push	 edx
  0006b	e8 00 00 00 00	 call	 ?build_substitution_info@@YGXPAUENTITY@@W4MEDAL_TYPES@@W4PILOT_RANK_TYPES@@PAD3@Z ; build_substitution_info

; 1415 : 
; 1416 : 		return TRUE;

  00070	b8 01 00 00 00	 mov	 eax, 1
  00075	eb 1c		 jmp	 SHORT $LN1@get_promot

; 1417 : 	}
; 1418 : 	else

  00077	eb 18		 jmp	 SHORT $LN3@get_promot
$LN2@get_promot:

; 1419 : 	{
; 1420 : 
; 1421 : 		debug_log ("BRIEFING: WARNING: no rank text for %s", pilot_rank_names [rank_type]);

  00079	8b 45 0c	 mov	 eax, DWORD PTR _rank_type$[ebp]
  0007c	8b 0c 85 00 00
	00 00		 mov	 ecx, DWORD PTR ?pilot_rank_names@@3PAPBDA[eax*4]
  00083	51		 push	 ecx
  00084	68 00 00 00 00	 push	 OFFSET ??_C@_0CH@HDHGFPDN@BRIEFING?3?5WARNING?3?5no?5rank?5text@
  00089	e8 00 00 00 00	 call	 ?debug_log@@YAXPBDZZ	; debug_log
  0008e	83 c4 08	 add	 esp, 8
$LN3@get_promot:

; 1422 : 	}
; 1423 : 
; 1424 : 	return FALSE;

  00091	33 c0		 xor	 eax, eax
$LN1@get_promot:

; 1425 : }

  00093	5f		 pop	 edi
  00094	5e		 pop	 esi
  00095	5b		 pop	 ebx
  00096	8b e5		 mov	 esp, ebp
  00098	5d		 pop	 ebp
  00099	c2 0c 00	 ret	 12			; 0000000cH
?get_promotion_briefing_text@@YGHPAUENTITY@@HPAD@Z ENDP	; get_promotion_briefing_text
_TEXT	ENDS
; Function compile flags: /Odtp /ZI
; File c:\users\nhv90\projects\eech\aphavoc\source\ai\faction\briefing.c
;	COMDAT ?get_medal_briefing_text@@YGHPAUENTITY@@HPAD@Z
_TEXT	SEGMENT
_this_medal$ = -8					; size = 4
_text_choice$ = -4					; size = 4
_task$ = 8						; size = 4
_medal_type$ = 12					; size = 4
_medal_text$ = 16					; size = 4
?get_medal_briefing_text@@YGHPAUENTITY@@HPAD@Z PROC	; get_medal_briefing_text, COMDAT

; 1361 : {

  00000	55		 push	 ebp
  00001	8b ec		 mov	 ebp, esp
  00003	83 ec 48	 sub	 esp, 72			; 00000048H
  00006	53		 push	 ebx
  00007	56		 push	 esi
  00008	57		 push	 edi

; 1362 : 
; 1363 : 	int
; 1364 : 		text_choice;
; 1365 : 
; 1366 : 	extra_briefing_type
; 1367 : 		*this_medal;
; 1368 : 
; 1369 : 	this_medal = get_extra_briefing_data (EXTRA_BRIEFING_MEDAL, medal_type);

  00009	8b 45 0c	 mov	 eax, DWORD PTR _medal_type$[ebp]
  0000c	50		 push	 eax
  0000d	6a 00		 push	 0
  0000f	e8 00 00 00 00	 call	 ?get_extra_briefing_data@@YGPAUEXTRA_BRIEFING_TYPE@@W4EXTRA_BRIEFING_TYPES@@H@Z ; get_extra_briefing_data
  00014	89 45 f8	 mov	 DWORD PTR _this_medal$[ebp], eax

; 1370 : 
; 1371 : 	if (this_medal)

  00017	83 7d f8 00	 cmp	 DWORD PTR _this_medal$[ebp], 0
  0001b	74 5e		 je	 SHORT $LN2@get_medal_

; 1372 : 	{
; 1373 : 
; 1374 : 		ASSERT (this_medal->text_count > 0);

  0001d	8b 45 f8	 mov	 eax, DWORD PTR _this_medal$[ebp]
  00020	83 78 08 00	 cmp	 DWORD PTR [eax+8], 0
  00024	7f 18		 jg	 SHORT $LN4@get_medal_
  00026	a1 00 00 00 00	 mov	 eax, DWORD PTR ?__LINE__Var@?0??get_medal_briefing_text@@YGHPAUENTITY@@HPAD@Z@4JA
  0002b	83 c0 0d	 add	 eax, 13			; 0000000dH
  0002e	50		 push	 eax
  0002f	68 00 00 00 00	 push	 OFFSET ??_C@_0EC@JLKMNKLD@c?3?2users?2nhv90?2projects?2eech?2ap@
  00034	68 00 00 00 00	 push	 OFFSET ??_C@_0BL@MIKGJDHO@this_medal?9?$DOtext_count?5?$DO?50@
  00039	e8 00 00 00 00	 call	 ?process_assert@@YGXPBD0H@Z ; process_assert
$LN4@get_medal_:

; 1375 : 	
; 1376 : 		text_choice = get_local_entity_index (task) % this_medal->text_count;

  0003e	8b 45 08	 mov	 eax, DWORD PTR _task$[ebp]
  00041	2b 05 00 00 00
	00		 sub	 eax, DWORD PTR ?entities@@3PAUENTITY@@A ; entities
  00047	c1 f8 04	 sar	 eax, 4
  0004a	8b 4d f8	 mov	 ecx, DWORD PTR _this_medal$[ebp]
  0004d	99		 cdq
  0004e	f7 79 08	 idiv	 DWORD PTR [ecx+8]
  00051	89 55 fc	 mov	 DWORD PTR _text_choice$[ebp], edx

; 1377 : 	
; 1378 : 		build_substitution_info (task, (medal_types) medal_type, NUM_PILOT_RANKS, this_medal->briefing_text [text_choice], medal_text);

  00054	8b 45 10	 mov	 eax, DWORD PTR _medal_text$[ebp]
  00057	50		 push	 eax
  00058	8b 4d fc	 mov	 ecx, DWORD PTR _text_choice$[ebp]
  0005b	8b 55 f8	 mov	 edx, DWORD PTR _this_medal$[ebp]
  0005e	8b 44 8a 0c	 mov	 eax, DWORD PTR [edx+ecx*4+12]
  00062	50		 push	 eax
  00063	6a 06		 push	 6
  00065	8b 4d 0c	 mov	 ecx, DWORD PTR _medal_type$[ebp]
  00068	51		 push	 ecx
  00069	8b 55 08	 mov	 edx, DWORD PTR _task$[ebp]
  0006c	52		 push	 edx
  0006d	e8 00 00 00 00	 call	 ?build_substitution_info@@YGXPAUENTITY@@W4MEDAL_TYPES@@W4PILOT_RANK_TYPES@@PAD3@Z ; build_substitution_info

; 1379 : 
; 1380 : 		return TRUE;

  00072	b8 01 00 00 00	 mov	 eax, 1
  00077	eb 1c		 jmp	 SHORT $LN1@get_medal_

; 1381 : 	}
; 1382 : 	else

  00079	eb 18		 jmp	 SHORT $LN3@get_medal_
$LN2@get_medal_:

; 1383 : 	{
; 1384 : 
; 1385 : 		debug_log ("BRIEFING: WARNING: no medal text for %s", medal_type_names [medal_type]);

  0007b	8b 45 0c	 mov	 eax, DWORD PTR _medal_type$[ebp]
  0007e	8b 0c 85 00 00
	00 00		 mov	 ecx, DWORD PTR ?medal_type_names@@3PAPBDA[eax*4]
  00085	51		 push	 ecx
  00086	68 00 00 00 00	 push	 OFFSET ??_C@_0CI@NJFNEKAJ@BRIEFING?3?5WARNING?3?5no?5medal?5tex@
  0008b	e8 00 00 00 00	 call	 ?debug_log@@YAXPBDZZ	; debug_log
  00090	83 c4 08	 add	 esp, 8
$LN3@get_medal_:

; 1386 : 	}
; 1387 : 
; 1388 : 	return FALSE;

  00093	33 c0		 xor	 eax, eax
$LN1@get_medal_:

; 1389 : }

  00095	5f		 pop	 edi
  00096	5e		 pop	 esi
  00097	5b		 pop	 ebx
  00098	8b e5		 mov	 esp, ebp
  0009a	5d		 pop	 ebp
  0009b	c2 0c 00	 ret	 12			; 0000000cH
?get_medal_briefing_text@@YGHPAUENTITY@@HPAD@Z ENDP	; get_medal_briefing_text
_TEXT	ENDS
; Function compile flags: /Odtp /ZI
; File c:\users\nhv90\projects\eech\aphavoc\source\ai\faction\briefing.c
;	COMDAT ?get_debriefing_text@@YGHPAUENTITY@@PAPAD1@Z
_TEXT	SEGMENT
tv147 = -88						; size = 4
tv210 = -84						; size = 4
tv141 = -84						; size = 4
tv84 = -84						; size = 4
tv202 = -80						; size = 4
tv134 = -80						; size = 4
tv76 = -80						; size = 4
_ff_task_debriefing$ = -12				; size = 4
_task_debriefing$ = -8					; size = 4
_text_choice$ = -4					; size = 4
_task$ = 8						; size = 4
_debrief$ = 12						; size = 4
_ff_debrief$ = 16					; size = 4
?get_debriefing_text@@YGHPAUENTITY@@PAPAD1@Z PROC	; get_debriefing_text, COMDAT

; 1261 : {

  00000	55		 push	 ebp
  00001	8b ec		 mov	 ebp, esp
  00003	83 ec 58	 sub	 esp, 88			; 00000058H
  00006	53		 push	 ebx
  00007	56		 push	 esi
  00008	57		 push	 edi

; 1262 : 
; 1263 : 	int
; 1264 : 		text_choice;
; 1265 : 
; 1266 : 	task_briefing_type
; 1267 : 		*task_debriefing,
; 1268 : 		*ff_task_debriefing;
; 1269 : 
; 1270 : 	ASSERT (task); 

  00009	83 7d 08 00	 cmp	 DWORD PTR _task$[ebp], 0
  0000d	75 18		 jne	 SHORT $LN4@get_debrie
  0000f	a1 00 00 00 00	 mov	 eax, DWORD PTR ?__LINE__Var@?0??get_debriefing_text@@YGHPAUENTITY@@PAPAD1@Z@4JA
  00014	83 c0 09	 add	 eax, 9
  00017	50		 push	 eax
  00018	68 00 00 00 00	 push	 OFFSET ??_C@_0EC@JLKMNKLD@c?3?2users?2nhv90?2projects?2eech?2ap@
  0001d	68 00 00 00 00	 push	 OFFSET ??_C@_04GGKLLKOO@task@
  00022	e8 00 00 00 00	 call	 ?process_assert@@YGXPBD0H@Z ; process_assert
$LN4@get_debrie:

; 1271 : 
; 1272 : 	*debrief = NULL;

  00027	8b 45 0c	 mov	 eax, DWORD PTR _debrief$[ebp]
  0002a	c7 00 00 00 00
	00		 mov	 DWORD PTR [eax], 0

; 1273 : 
; 1274 : 	*ff_debrief = NULL;

  00030	8b 45 10	 mov	 eax, DWORD PTR _ff_debrief$[ebp]
  00033	c7 00 00 00 00
	00		 mov	 DWORD PTR [eax], 0

; 1275 : 
; 1276 : 	ff_task_debriefing = NULL;

  00039	c7 45 f4 00 00
	00 00		 mov	 DWORD PTR _ff_task_debriefing$[ebp], 0

; 1277 : 
; 1278 : 	task_debriefing = get_task_briefing_data (get_local_entity_int_value (task, INT_TYPE_ENTITY_SUB_TYPE));

  00040	83 7d 08 00	 cmp	 DWORD PTR _task$[ebp], 0
  00044	74 0a		 je	 SHORT $LN15@get_debrie
  00046	8b 45 08	 mov	 eax, DWORD PTR _task$[ebp]
  00049	8b 08		 mov	 ecx, DWORD PTR [eax]
  0004b	89 4d b0	 mov	 DWORD PTR tv76[ebp], ecx
  0004e	eb 21		 jmp	 SHORT $LN16@get_debrie
$LN15@get_debrie:
  00050	8b 15 00 00 00
	00		 mov	 edx, DWORD PTR ?__LINE__Var@?0??get_debriefing_text@@YGHPAUENTITY@@PAPAD1@Z@4JA
  00056	83 c2 11	 add	 edx, 17			; 00000011H
  00059	52		 push	 edx
  0005a	68 00 00 00 00	 push	 OFFSET ??_C@_0EC@JLKMNKLD@c?3?2users?2nhv90?2projects?2eech?2ap@
  0005f	a1 00 00 00 00	 mov	 eax, DWORD PTR ?null_entity_pointer_message@@3PBDB ; null_entity_pointer_message
  00064	50		 push	 eax
  00065	e8 00 00 00 00	 call	 ?process_assert@@YGXPBD0H@Z ; process_assert
  0006a	c7 45 b0 00 00
	00 00		 mov	 DWORD PTR tv76[ebp], 0
$LN16@get_debrie:
  00071	b9 01 00 00 00	 mov	 ecx, 1
  00076	85 c9		 test	 ecx, ecx
  00078	74 09		 je	 SHORT $LN17@get_debrie
  0007a	c7 45 ac 34 00
	00 00		 mov	 DWORD PTR tv84[ebp], 52	; 00000034H
  00081	eb 21		 jmp	 SHORT $LN18@get_debrie
$LN17@get_debrie:
  00083	8b 15 00 00 00
	00		 mov	 edx, DWORD PTR ?__LINE__Var@?0??get_debriefing_text@@YGHPAUENTITY@@PAPAD1@Z@4JA
  00089	83 c2 11	 add	 edx, 17			; 00000011H
  0008c	52		 push	 edx
  0008d	68 00 00 00 00	 push	 OFFSET ??_C@_0EC@JLKMNKLD@c?3?2users?2nhv90?2projects?2eech?2ap@
  00092	a1 00 00 00 00	 mov	 eax, DWORD PTR ?overload_invalid_int_type_message@@3PBDB ; overload_invalid_int_type_message
  00097	50		 push	 eax
  00098	e8 00 00 00 00	 call	 ?process_assert@@YGXPBD0H@Z ; process_assert
  0009d	c7 45 ac 00 00
	00 00		 mov	 DWORD PTR tv84[ebp], 0
$LN18@get_debrie:
  000a4	6a 34		 push	 52			; 00000034H
  000a6	8b 4d 08	 mov	 ecx, DWORD PTR _task$[ebp]
  000a9	51		 push	 ecx
  000aa	69 55 b0 5c 04
	00 00		 imul	 edx, DWORD PTR tv76[ebp], 1116
  000b1	8b 45 ac	 mov	 eax, DWORD PTR tv84[ebp]
  000b4	8b 8c 82 00 00
	00 00		 mov	 ecx, DWORD PTR ?fn_get_local_entity_int_value@@3PAY0BBH@P6GHPAUENTITY@@W4INT_TYPES@@@ZA[edx+eax*4]
  000bb	ff d1		 call	 ecx
  000bd	50		 push	 eax
  000be	e8 00 00 00 00	 call	 ?get_task_briefing_data@@YGPAUTASK_BRIEFING_TYPE@@H@Z ; get_task_briefing_data
  000c3	89 45 f8	 mov	 DWORD PTR _task_debriefing$[ebp], eax

; 1279 : 
; 1280 : 	// friendly fire debriefing text held is TASK_NOTHING
; 1281 : 	if (get_task_friendly_fire_incidents (task))

  000c6	8b 45 08	 mov	 eax, DWORD PTR _task$[ebp]
  000c9	50		 push	 eax
  000ca	e8 00 00 00 00	 call	 ?get_task_friendly_fire_incidents@@YGHPAUENTITY@@@Z ; get_task_friendly_fire_incidents
  000cf	85 c0		 test	 eax, eax
  000d1	74 0a		 je	 SHORT $LN5@get_debrie

; 1282 : 	{
; 1283 : 
; 1284 : 		ff_task_debriefing = get_task_briefing_data (ENTITY_SUB_TYPE_TASK_NOTHING);

  000d3	6a 00		 push	 0
  000d5	e8 00 00 00 00	 call	 ?get_task_briefing_data@@YGPAUTASK_BRIEFING_TYPE@@H@Z ; get_task_briefing_data
  000da	89 45 f4	 mov	 DWORD PTR _ff_task_debriefing$[ebp], eax
$LN5@get_debrie:

; 1285 : 	}
; 1286 : 
; 1287 : 	if (task_debriefing)

  000dd	83 7d f8 00	 cmp	 DWORD PTR _task_debriefing$[ebp], 0
  000e1	0f 84 3c 02 00
	00		 je	 $LN6@get_debrie

; 1288 : 	{
; 1289 : 
; 1290 : 		switch (get_local_entity_int_value (task, INT_TYPE_TASK_COMPLETED))

  000e7	83 7d 08 00	 cmp	 DWORD PTR _task$[ebp], 0
  000eb	74 0a		 je	 SHORT $LN19@get_debrie
  000ed	8b 45 08	 mov	 eax, DWORD PTR _task$[ebp]
  000f0	8b 08		 mov	 ecx, DWORD PTR [eax]
  000f2	89 4d b0	 mov	 DWORD PTR tv134[ebp], ecx
  000f5	eb 1d		 jmp	 SHORT $LN20@get_debrie
$LN19@get_debrie:
  000f7	68 0a 05 00 00	 push	 1290			; 0000050aH
  000fc	68 00 00 00 00	 push	 OFFSET ??_C@_0EC@JLKMNKLD@c?3?2users?2nhv90?2projects?2eech?2ap@
  00101	8b 15 00 00 00
	00		 mov	 edx, DWORD PTR ?null_entity_pointer_message@@3PBDB ; null_entity_pointer_message
  00107	52		 push	 edx
  00108	e8 00 00 00 00	 call	 ?process_assert@@YGXPBD0H@Z ; process_assert
  0010d	c7 45 b0 00 00
	00 00		 mov	 DWORD PTR tv134[ebp], 0
$LN20@get_debrie:
  00114	b8 01 00 00 00	 mov	 eax, 1
  00119	85 c0		 test	 eax, eax
  0011b	74 09		 je	 SHORT $LN21@get_debrie
  0011d	c7 45 ac d9 00
	00 00		 mov	 DWORD PTR tv141[ebp], 217 ; 000000d9H
  00124	eb 1d		 jmp	 SHORT $LN22@get_debrie
$LN21@get_debrie:
  00126	68 0a 05 00 00	 push	 1290			; 0000050aH
  0012b	68 00 00 00 00	 push	 OFFSET ??_C@_0EC@JLKMNKLD@c?3?2users?2nhv90?2projects?2eech?2ap@
  00130	8b 0d 00 00 00
	00		 mov	 ecx, DWORD PTR ?overload_invalid_int_type_message@@3PBDB ; overload_invalid_int_type_message
  00136	51		 push	 ecx
  00137	e8 00 00 00 00	 call	 ?process_assert@@YGXPBD0H@Z ; process_assert
  0013c	c7 45 ac 00 00
	00 00		 mov	 DWORD PTR tv141[ebp], 0
$LN22@get_debrie:
  00143	68 d9 00 00 00	 push	 217			; 000000d9H
  00148	8b 55 08	 mov	 edx, DWORD PTR _task$[ebp]
  0014b	52		 push	 edx
  0014c	69 45 b0 5c 04
	00 00		 imul	 eax, DWORD PTR tv134[ebp], 1116
  00153	8b 4d ac	 mov	 ecx, DWORD PTR tv141[ebp]
  00156	8b 94 88 00 00
	00 00		 mov	 edx, DWORD PTR ?fn_get_local_entity_int_value@@3PAY0BBH@P6GHPAUENTITY@@W4INT_TYPES@@@ZA[eax+ecx*4]
  0015d	ff d2		 call	 edx
  0015f	89 45 a8	 mov	 DWORD PTR tv147[ebp], eax
  00162	83 7d a8 03	 cmp	 DWORD PTR tv147[ebp], 3
  00166	0f 87 b0 01 00
	00		 ja	 $LN2@get_debrie
  0016c	8b 45 a8	 mov	 eax, DWORD PTR tv147[ebp]
  0016f	ff 24 85 00 00
	00 00		 jmp	 DWORD PTR $LN27@get_debrie[eax*4]
$LN7@get_debrie:

; 1291 : 		{
; 1292 : 
; 1293 : 			case TASK_COMPLETED_SUCCESS:
; 1294 : 			{
; 1295 : 	
; 1296 : 				text_choice = get_local_entity_index (task) % task_debriefing->debriefing_text_success_count;

  00176	8b 45 08	 mov	 eax, DWORD PTR _task$[ebp]
  00179	2b 05 00 00 00
	00		 sub	 eax, DWORD PTR ?entities@@3PAUENTITY@@A ; entities
  0017f	c1 f8 04	 sar	 eax, 4
  00182	8b 4d f8	 mov	 ecx, DWORD PTR _task_debriefing$[ebp]
  00185	99		 cdq
  00186	f7 79 10	 idiv	 DWORD PTR [ecx+16]
  00189	89 55 fc	 mov	 DWORD PTR _text_choice$[ebp], edx

; 1297 : 				*debrief = task_debriefing->debriefing_text_success [text_choice];

  0018c	8b 45 0c	 mov	 eax, DWORD PTR _debrief$[ebp]
  0018f	8b 4d fc	 mov	 ecx, DWORD PTR _text_choice$[ebp]
  00192	8b 55 f8	 mov	 edx, DWORD PTR _task_debriefing$[ebp]
  00195	8b 8c 8a 84 01
	00 00		 mov	 ecx, DWORD PTR [edx+ecx*4+388]
  0019c	89 08		 mov	 DWORD PTR [eax], ecx

; 1298 : 
; 1299 : 				if (ff_task_debriefing)

  0019e	83 7d f4 00	 cmp	 DWORD PTR _ff_task_debriefing$[ebp], 0
  001a2	74 28		 je	 SHORT $LN8@get_debrie

; 1300 : 				{
; 1301 : 
; 1302 : 					text_choice = get_local_entity_index (task) % ff_task_debriefing->debriefing_text_success_count;

  001a4	8b 45 08	 mov	 eax, DWORD PTR _task$[ebp]
  001a7	2b 05 00 00 00
	00		 sub	 eax, DWORD PTR ?entities@@3PAUENTITY@@A ; entities
  001ad	c1 f8 04	 sar	 eax, 4
  001b0	8b 4d f4	 mov	 ecx, DWORD PTR _ff_task_debriefing$[ebp]
  001b3	99		 cdq
  001b4	f7 79 10	 idiv	 DWORD PTR [ecx+16]
  001b7	89 55 fc	 mov	 DWORD PTR _text_choice$[ebp], edx

; 1303 : 					*ff_debrief = ff_task_debriefing->debriefing_text_success [text_choice];

  001ba	8b 45 10	 mov	 eax, DWORD PTR _ff_debrief$[ebp]
  001bd	8b 4d fc	 mov	 ecx, DWORD PTR _text_choice$[ebp]
  001c0	8b 55 f4	 mov	 edx, DWORD PTR _ff_task_debriefing$[ebp]
  001c3	8b 8c 8a 84 01
	00 00		 mov	 ecx, DWORD PTR [edx+ecx*4+388]
  001ca	89 08		 mov	 DWORD PTR [eax], ecx
$LN8@get_debrie:

; 1304 : 				}
; 1305 : 
; 1306 : 				break;

  001cc	e9 4b 01 00 00	 jmp	 $LN2@get_debrie
$LN9@get_debrie:

; 1307 : 			}
; 1308 : 
; 1309 : 			case TASK_COMPLETED_PARTIAL:
; 1310 : 			{
; 1311 : 	
; 1312 : 				text_choice = get_local_entity_index (task) % task_debriefing->debriefing_text_partial_count;

  001d1	8b 45 08	 mov	 eax, DWORD PTR _task$[ebp]
  001d4	2b 05 00 00 00
	00		 sub	 eax, DWORD PTR ?entities@@3PAUENTITY@@A ; entities
  001da	c1 f8 04	 sar	 eax, 4
  001dd	8b 4d f8	 mov	 ecx, DWORD PTR _task_debriefing$[ebp]
  001e0	99		 cdq
  001e1	f7 79 14	 idiv	 DWORD PTR [ecx+20]
  001e4	89 55 fc	 mov	 DWORD PTR _text_choice$[ebp], edx

; 1313 : 				*debrief = task_debriefing->debriefing_text_partial [text_choice];

  001e7	8b 45 0c	 mov	 eax, DWORD PTR _debrief$[ebp]
  001ea	8b 4d fc	 mov	 ecx, DWORD PTR _text_choice$[ebp]
  001ed	8b 55 f8	 mov	 edx, DWORD PTR _task_debriefing$[ebp]
  001f0	8b 8c 8a fc 01
	00 00		 mov	 ecx, DWORD PTR [edx+ecx*4+508]
  001f7	89 08		 mov	 DWORD PTR [eax], ecx

; 1314 : 
; 1315 : 				if (ff_task_debriefing)

  001f9	83 7d f4 00	 cmp	 DWORD PTR _ff_task_debriefing$[ebp], 0
  001fd	74 28		 je	 SHORT $LN10@get_debrie

; 1316 : 				{
; 1317 : 
; 1318 : 					text_choice = get_local_entity_index (task) % ff_task_debriefing->debriefing_text_partial_count;

  001ff	8b 45 08	 mov	 eax, DWORD PTR _task$[ebp]
  00202	2b 05 00 00 00
	00		 sub	 eax, DWORD PTR ?entities@@3PAUENTITY@@A ; entities
  00208	c1 f8 04	 sar	 eax, 4
  0020b	8b 4d f4	 mov	 ecx, DWORD PTR _ff_task_debriefing$[ebp]
  0020e	99		 cdq
  0020f	f7 79 14	 idiv	 DWORD PTR [ecx+20]
  00212	89 55 fc	 mov	 DWORD PTR _text_choice$[ebp], edx

; 1319 : 					*ff_debrief = ff_task_debriefing->debriefing_text_partial [text_choice];

  00215	8b 45 10	 mov	 eax, DWORD PTR _ff_debrief$[ebp]
  00218	8b 4d fc	 mov	 ecx, DWORD PTR _text_choice$[ebp]
  0021b	8b 55 f4	 mov	 edx, DWORD PTR _ff_task_debriefing$[ebp]
  0021e	8b 8c 8a fc 01
	00 00		 mov	 ecx, DWORD PTR [edx+ecx*4+508]
  00225	89 08		 mov	 DWORD PTR [eax], ecx
$LN10@get_debrie:

; 1320 : 				}
; 1321 : 
; 1322 : 				break;

  00227	e9 f0 00 00 00	 jmp	 $LN2@get_debrie
$LN11@get_debrie:

; 1323 : 			}
; 1324 : 
; 1325 : 			case TASK_COMPLETED_FAILURE:
; 1326 : 			{
; 1327 : 	
; 1328 : 				text_choice = get_local_entity_index (task) % task_debriefing->debriefing_text_failure_count;

  0022c	8b 45 08	 mov	 eax, DWORD PTR _task$[ebp]
  0022f	2b 05 00 00 00
	00		 sub	 eax, DWORD PTR ?entities@@3PAUENTITY@@A ; entities
  00235	c1 f8 04	 sar	 eax, 4
  00238	8b 4d f8	 mov	 ecx, DWORD PTR _task_debriefing$[ebp]
  0023b	99		 cdq
  0023c	f7 79 18	 idiv	 DWORD PTR [ecx+24]
  0023f	89 55 fc	 mov	 DWORD PTR _text_choice$[ebp], edx

; 1329 : 				*debrief = task_debriefing->debriefing_text_failure [text_choice];

  00242	8b 45 0c	 mov	 eax, DWORD PTR _debrief$[ebp]
  00245	8b 4d fc	 mov	 ecx, DWORD PTR _text_choice$[ebp]
  00248	8b 55 f8	 mov	 edx, DWORD PTR _task_debriefing$[ebp]
  0024b	8b 8c 8a 74 02
	00 00		 mov	 ecx, DWORD PTR [edx+ecx*4+628]
  00252	89 08		 mov	 DWORD PTR [eax], ecx

; 1330 : 
; 1331 : 				if (ff_task_debriefing)

  00254	83 7d f4 00	 cmp	 DWORD PTR _ff_task_debriefing$[ebp], 0
  00258	74 28		 je	 SHORT $LN12@get_debrie

; 1332 : 				{
; 1333 : 
; 1334 : 					text_choice = get_local_entity_index (task) % ff_task_debriefing->debriefing_text_failure_count;

  0025a	8b 45 08	 mov	 eax, DWORD PTR _task$[ebp]
  0025d	2b 05 00 00 00
	00		 sub	 eax, DWORD PTR ?entities@@3PAUENTITY@@A ; entities
  00263	c1 f8 04	 sar	 eax, 4
  00266	8b 4d f4	 mov	 ecx, DWORD PTR _ff_task_debriefing$[ebp]
  00269	99		 cdq
  0026a	f7 79 18	 idiv	 DWORD PTR [ecx+24]
  0026d	89 55 fc	 mov	 DWORD PTR _text_choice$[ebp], edx

; 1335 : 					*ff_debrief = ff_task_debriefing->debriefing_text_failure [text_choice];

  00270	8b 45 10	 mov	 eax, DWORD PTR _ff_debrief$[ebp]
  00273	8b 4d fc	 mov	 ecx, DWORD PTR _text_choice$[ebp]
  00276	8b 55 f4	 mov	 edx, DWORD PTR _ff_task_debriefing$[ebp]
  00279	8b 8c 8a 74 02
	00 00		 mov	 ecx, DWORD PTR [edx+ecx*4+628]
  00280	89 08		 mov	 DWORD PTR [eax], ecx
$LN12@get_debrie:

; 1336 : 				}
; 1337 : 
; 1338 : 				break;

  00282	e9 95 00 00 00	 jmp	 $LN2@get_debrie
$LN13@get_debrie:

; 1339 : 			}
; 1340 : 
; 1341 : 			case TASK_INCOMPLETE:
; 1342 : 			{
; 1343 : 
; 1344 : 				debug_fatal ("BRIEFING: Doing debrief for incomplete task %s (%d)", get_local_entity_string (task, STRING_TYPE_FULL_NAME), get_local_entity_index (task));

  00287	83 7d 08 00	 cmp	 DWORD PTR _task$[ebp], 0
  0028b	74 0a		 je	 SHORT $LN23@get_debrie
  0028d	8b 45 08	 mov	 eax, DWORD PTR _task$[ebp]
  00290	8b 08		 mov	 ecx, DWORD PTR [eax]
  00292	89 4d b0	 mov	 DWORD PTR tv202[ebp], ecx
  00295	eb 21		 jmp	 SHORT $LN24@get_debrie
$LN23@get_debrie:
  00297	8b 15 00 00 00
	00		 mov	 edx, DWORD PTR ?__LINE__Var@?0??get_debriefing_text@@YGHPAUENTITY@@PAPAD1@Z@4JA
  0029d	83 c2 53	 add	 edx, 83			; 00000053H
  002a0	52		 push	 edx
  002a1	68 00 00 00 00	 push	 OFFSET ??_C@_0EC@JLKMNKLD@c?3?2users?2nhv90?2projects?2eech?2ap@
  002a6	a1 00 00 00 00	 mov	 eax, DWORD PTR ?null_entity_pointer_message@@3PBDB ; null_entity_pointer_message
  002ab	50		 push	 eax
  002ac	e8 00 00 00 00	 call	 ?process_assert@@YGXPBD0H@Z ; process_assert
  002b1	c7 45 b0 00 00
	00 00		 mov	 DWORD PTR tv202[ebp], 0
$LN24@get_debrie:
  002b8	b9 01 00 00 00	 mov	 ecx, 1
  002bd	85 c9		 test	 ecx, ecx
  002bf	74 09		 je	 SHORT $LN25@get_debrie
  002c1	c7 45 ac 03 00
	00 00		 mov	 DWORD PTR tv210[ebp], 3
  002c8	eb 21		 jmp	 SHORT $LN26@get_debrie
$LN25@get_debrie:
  002ca	8b 15 00 00 00
	00		 mov	 edx, DWORD PTR ?__LINE__Var@?0??get_debriefing_text@@YGHPAUENTITY@@PAPAD1@Z@4JA
  002d0	83 c2 53	 add	 edx, 83			; 00000053H
  002d3	52		 push	 edx
  002d4	68 00 00 00 00	 push	 OFFSET ??_C@_0EC@JLKMNKLD@c?3?2users?2nhv90?2projects?2eech?2ap@
  002d9	a1 00 00 00 00	 mov	 eax, DWORD PTR ?overload_invalid_string_type_message@@3PBDB ; overload_invalid_string_type_message
  002de	50		 push	 eax
  002df	e8 00 00 00 00	 call	 ?process_assert@@YGXPBD0H@Z ; process_assert
  002e4	c7 45 ac 00 00
	00 00		 mov	 DWORD PTR tv210[ebp], 0
$LN26@get_debrie:
  002eb	8b 4d 08	 mov	 ecx, DWORD PTR _task$[ebp]
  002ee	2b 0d 00 00 00
	00		 sub	 ecx, DWORD PTR ?entities@@3PAUENTITY@@A ; entities
  002f4	c1 f9 04	 sar	 ecx, 4
  002f7	51		 push	 ecx
  002f8	6a 03		 push	 3
  002fa	8b 55 08	 mov	 edx, DWORD PTR _task$[ebp]
  002fd	52		 push	 edx
  002fe	6b 45 b0 34	 imul	 eax, DWORD PTR tv202[ebp], 52
  00302	8b 4d ac	 mov	 ecx, DWORD PTR tv210[ebp]
  00305	8b 94 88 00 00
	00 00		 mov	 edx, DWORD PTR ?fn_get_local_entity_string@@3PAY0N@P6GPBDPAUENTITY@@W4STRING_TYPES@@@ZA[eax+ecx*4]
  0030c	ff d2		 call	 edx
  0030e	50		 push	 eax
  0030f	68 00 00 00 00	 push	 OFFSET ??_C@_0DE@GOGDJCBO@BRIEFING?3?5Doing?5debrief?5for?5inc@
  00314	e8 00 00 00 00	 call	 ?debug_fatal@@YAXPBDZZ	; debug_fatal
  00319	83 c4 0c	 add	 esp, 12			; 0000000cH
$LN2@get_debrie:

; 1345 : 
; 1346 : 				break;
; 1347 : 			}
; 1348 : 		}
; 1349 : 
; 1350 : 		return TRUE;

  0031c	b8 01 00 00 00	 mov	 eax, 1
  00321	eb 02		 jmp	 SHORT $LN1@get_debrie
$LN6@get_debrie:

; 1351 : 	}
; 1352 : 
; 1353 : 	return FALSE;

  00323	33 c0		 xor	 eax, eax
$LN1@get_debrie:

; 1354 : }

  00325	5f		 pop	 edi
  00326	5e		 pop	 esi
  00327	5b		 pop	 ebx
  00328	8b e5		 mov	 esp, ebp
  0032a	5d		 pop	 ebp
  0032b	c2 0c 00	 ret	 12			; 0000000cH
  0032e	66 90		 npad	 2
$LN27@get_debrie:
  00330	00 00 00 00	 DD	 $LN13@get_debrie
  00334	00 00 00 00	 DD	 $LN11@get_debrie
  00338	00 00 00 00	 DD	 $LN9@get_debrie
  0033c	00 00 00 00	 DD	 $LN7@get_debrie
?get_debriefing_text@@YGHPAUENTITY@@PAPAD1@Z ENDP	; get_debriefing_text
_TEXT	ENDS
; Function compile flags: /Odtp /ZI
; File c:\users\nhv90\projects\eech\aphavoc\source\ai\faction\briefing.c
;	COMDAT ?get_briefing_text@@YGHPAUENTITY@@PAD11@Z
_TEXT	SEGMENT
tv201 = -92						; size = 4
tv88 = -92						; size = 4
tv193 = -88						; size = 4
tv80 = -88						; size = 4
_task_briefing$ = -20					; size = 4
_text3_choice$ = -16					; size = 4
_text2_choice$ = -12					; size = 4
_text1_choice$ = -8					; size = 4
_remainder$ = -4					; size = 4
_task$ = 8						; size = 4
_text1$ = 12						; size = 4
_text2$ = 16						; size = 4
_text3$ = 20						; size = 4
?get_briefing_text@@YGHPAUENTITY@@PAD11@Z PROC		; get_briefing_text, COMDAT

; 1185 : {

  00000	55		 push	 ebp
  00001	8b ec		 mov	 ebp, esp
  00003	83 ec 5c	 sub	 esp, 92			; 0000005cH
  00006	53		 push	 ebx
  00007	56		 push	 esi
  00008	57		 push	 edi

; 1186 : 
; 1187 : 	int
; 1188 : 		remainder,
; 1189 : 		text1_choice,
; 1190 : 		text2_choice,
; 1191 : 		text3_choice;
; 1192 : 
; 1193 : 	task_briefing_type
; 1194 : 		*task_briefing;
; 1195 : 
; 1196 : 	memset (text1, 0, sizeof (text1));

  00009	6a 04		 push	 4
  0000b	6a 00		 push	 0
  0000d	8b 45 0c	 mov	 eax, DWORD PTR _text1$[ebp]
  00010	50		 push	 eax
  00011	e8 00 00 00 00	 call	 _memset
  00016	83 c4 0c	 add	 esp, 12			; 0000000cH

; 1197 : 	memset (text2, 0, sizeof (text2));

  00019	6a 04		 push	 4
  0001b	6a 00		 push	 0
  0001d	8b 45 10	 mov	 eax, DWORD PTR _text2$[ebp]
  00020	50		 push	 eax
  00021	e8 00 00 00 00	 call	 _memset
  00026	83 c4 0c	 add	 esp, 12			; 0000000cH

; 1198 : 	memset (text3, 0, sizeof (text3));

  00029	6a 04		 push	 4
  0002b	6a 00		 push	 0
  0002d	8b 45 14	 mov	 eax, DWORD PTR _text3$[ebp]
  00030	50		 push	 eax
  00031	e8 00 00 00 00	 call	 _memset
  00036	83 c4 0c	 add	 esp, 12			; 0000000cH

; 1199 : 
; 1200 : 	task_briefing = get_task_briefing_data (get_local_entity_int_value (task, INT_TYPE_ENTITY_SUB_TYPE));

  00039	83 7d 08 00	 cmp	 DWORD PTR _task$[ebp], 0
  0003d	74 0a		 je	 SHORT $LN7@get_briefi
  0003f	8b 45 08	 mov	 eax, DWORD PTR _task$[ebp]
  00042	8b 08		 mov	 ecx, DWORD PTR [eax]
  00044	89 4d a8	 mov	 DWORD PTR tv80[ebp], ecx
  00047	eb 21		 jmp	 SHORT $LN8@get_briefi
$LN7@get_briefi:
  00049	8b 15 00 00 00
	00		 mov	 edx, DWORD PTR ?__LINE__Var@?0??get_briefing_text@@YGHPAUENTITY@@PAD11@Z@4JA
  0004f	83 c2 0f	 add	 edx, 15			; 0000000fH
  00052	52		 push	 edx
  00053	68 00 00 00 00	 push	 OFFSET ??_C@_0EC@JLKMNKLD@c?3?2users?2nhv90?2projects?2eech?2ap@
  00058	a1 00 00 00 00	 mov	 eax, DWORD PTR ?null_entity_pointer_message@@3PBDB ; null_entity_pointer_message
  0005d	50		 push	 eax
  0005e	e8 00 00 00 00	 call	 ?process_assert@@YGXPBD0H@Z ; process_assert
  00063	c7 45 a8 00 00
	00 00		 mov	 DWORD PTR tv80[ebp], 0
$LN8@get_briefi:
  0006a	b9 01 00 00 00	 mov	 ecx, 1
  0006f	85 c9		 test	 ecx, ecx
  00071	74 09		 je	 SHORT $LN9@get_briefi
  00073	c7 45 a4 34 00
	00 00		 mov	 DWORD PTR tv88[ebp], 52	; 00000034H
  0007a	eb 21		 jmp	 SHORT $LN10@get_briefi
$LN9@get_briefi:
  0007c	8b 15 00 00 00
	00		 mov	 edx, DWORD PTR ?__LINE__Var@?0??get_briefing_text@@YGHPAUENTITY@@PAD11@Z@4JA
  00082	83 c2 0f	 add	 edx, 15			; 0000000fH
  00085	52		 push	 edx
  00086	68 00 00 00 00	 push	 OFFSET ??_C@_0EC@JLKMNKLD@c?3?2users?2nhv90?2projects?2eech?2ap@
  0008b	a1 00 00 00 00	 mov	 eax, DWORD PTR ?overload_invalid_int_type_message@@3PBDB ; overload_invalid_int_type_message
  00090	50		 push	 eax
  00091	e8 00 00 00 00	 call	 ?process_assert@@YGXPBD0H@Z ; process_assert
  00096	c7 45 a4 00 00
	00 00		 mov	 DWORD PTR tv88[ebp], 0
$LN10@get_briefi:
  0009d	6a 34		 push	 52			; 00000034H
  0009f	8b 4d 08	 mov	 ecx, DWORD PTR _task$[ebp]
  000a2	51		 push	 ecx
  000a3	69 55 a8 5c 04
	00 00		 imul	 edx, DWORD PTR tv80[ebp], 1116
  000aa	8b 45 a4	 mov	 eax, DWORD PTR tv88[ebp]
  000ad	8b 8c 82 00 00
	00 00		 mov	 ecx, DWORD PTR ?fn_get_local_entity_int_value@@3PAY0BBH@P6GHPAUENTITY@@W4INT_TYPES@@@ZA[edx+eax*4]
  000b4	ff d1		 call	 ecx
  000b6	50		 push	 eax
  000b7	e8 00 00 00 00	 call	 ?get_task_briefing_data@@YGPAUTASK_BRIEFING_TYPE@@H@Z ; get_task_briefing_data
  000bc	89 45 ec	 mov	 DWORD PTR _task_briefing$[ebp], eax

; 1201 : 
; 1202 : 	if (task_briefing)

  000bf	83 7d ec 00	 cmp	 DWORD PTR _task_briefing$[ebp], 0
  000c3	0f 84 17 01 00
	00		 je	 $LN2@get_briefi

; 1203 : 	{
; 1204 : 
; 1205 : 		// text 1 choice
; 1206 : 	
; 1207 : 		// check if any texts
; 1208 : 		if (task_briefing->briefing_text1 [0])

  000c9	b8 04 00 00 00	 mov	 eax, 4
  000ce	6b c8 00	 imul	 ecx, eax, 0
  000d1	8b 55 ec	 mov	 edx, DWORD PTR _task_briefing$[ebp]
  000d4	83 7c 0a 1c 00	 cmp	 DWORD PTR [edx+ecx+28], 0
  000d9	74 48		 je	 SHORT $LN3@get_briefi

; 1209 : 		{
; 1210 : 		
; 1211 : 			text1_choice = get_local_entity_index (task) % task_briefing->briefing_text1_count;

  000db	8b 45 08	 mov	 eax, DWORD PTR _task$[ebp]
  000de	2b 05 00 00 00
	00		 sub	 eax, DWORD PTR ?entities@@3PAUENTITY@@A ; entities
  000e4	c1 f8 04	 sar	 eax, 4
  000e7	8b 4d ec	 mov	 ecx, DWORD PTR _task_briefing$[ebp]
  000ea	99		 cdq
  000eb	f7 79 04	 idiv	 DWORD PTR [ecx+4]
  000ee	89 55 f8	 mov	 DWORD PTR _text1_choice$[ebp], edx

; 1212 : 			
; 1213 : 			remainder = get_local_entity_index (task) / task_briefing->briefing_text1_count;

  000f1	8b 45 08	 mov	 eax, DWORD PTR _task$[ebp]
  000f4	2b 05 00 00 00
	00		 sub	 eax, DWORD PTR ?entities@@3PAUENTITY@@A ; entities
  000fa	c1 f8 04	 sar	 eax, 4
  000fd	8b 4d ec	 mov	 ecx, DWORD PTR _task_briefing$[ebp]
  00100	99		 cdq
  00101	f7 79 04	 idiv	 DWORD PTR [ecx+4]
  00104	89 45 fc	 mov	 DWORD PTR _remainder$[ebp], eax

; 1214 : 		
; 1215 : 			build_substitution_info (task, NUM_MEDAL_TYPES, NUM_PILOT_RANKS, task_briefing->briefing_text1 [text1_choice], text1);

  00107	8b 45 0c	 mov	 eax, DWORD PTR _text1$[ebp]
  0010a	50		 push	 eax
  0010b	8b 4d f8	 mov	 ecx, DWORD PTR _text1_choice$[ebp]
  0010e	8b 55 ec	 mov	 edx, DWORD PTR _task_briefing$[ebp]
  00111	8b 44 8a 1c	 mov	 eax, DWORD PTR [edx+ecx*4+28]
  00115	50		 push	 eax
  00116	6a 06		 push	 6
  00118	6a 0d		 push	 13			; 0000000dH
  0011a	8b 4d 08	 mov	 ecx, DWORD PTR _task$[ebp]
  0011d	51		 push	 ecx
  0011e	e8 00 00 00 00	 call	 ?build_substitution_info@@YGXPAUENTITY@@W4MEDAL_TYPES@@W4PILOT_RANK_TYPES@@PAD3@Z ; build_substitution_info
$LN3@get_briefi:

; 1216 : 		}
; 1217 : 	
; 1218 : 		// text 2 choice
; 1219 : 	
; 1220 : 		// check if any texts
; 1221 : 		if (task_briefing->briefing_text2 [0])

  00123	b8 04 00 00 00	 mov	 eax, 4
  00128	6b c8 00	 imul	 ecx, eax, 0
  0012b	8b 55 ec	 mov	 edx, DWORD PTR _task_briefing$[ebp]
  0012e	83 bc 0a 94 00
	00 00 00	 cmp	 DWORD PTR [edx+ecx+148], 0
  00136	74 38		 je	 SHORT $LN4@get_briefi

; 1222 : 		{
; 1223 : 		
; 1224 : 			text2_choice = (remainder + get_local_entity_index (task)) % task_briefing->briefing_text2_count;

  00138	8b 45 08	 mov	 eax, DWORD PTR _task$[ebp]
  0013b	2b 05 00 00 00
	00		 sub	 eax, DWORD PTR ?entities@@3PAUENTITY@@A ; entities
  00141	c1 f8 04	 sar	 eax, 4
  00144	03 45 fc	 add	 eax, DWORD PTR _remainder$[ebp]
  00147	8b 4d ec	 mov	 ecx, DWORD PTR _task_briefing$[ebp]
  0014a	99		 cdq
  0014b	f7 79 08	 idiv	 DWORD PTR [ecx+8]
  0014e	89 55 f4	 mov	 DWORD PTR _text2_choice$[ebp], edx

; 1225 : 		
; 1226 : 			build_substitution_info (task, NUM_MEDAL_TYPES, NUM_PILOT_RANKS, task_briefing->briefing_text2 [text2_choice], text2);

  00151	8b 45 10	 mov	 eax, DWORD PTR _text2$[ebp]
  00154	50		 push	 eax
  00155	8b 4d f4	 mov	 ecx, DWORD PTR _text2_choice$[ebp]
  00158	8b 55 ec	 mov	 edx, DWORD PTR _task_briefing$[ebp]
  0015b	8b 84 8a 94 00
	00 00		 mov	 eax, DWORD PTR [edx+ecx*4+148]
  00162	50		 push	 eax
  00163	6a 06		 push	 6
  00165	6a 0d		 push	 13			; 0000000dH
  00167	8b 4d 08	 mov	 ecx, DWORD PTR _task$[ebp]
  0016a	51		 push	 ecx
  0016b	e8 00 00 00 00	 call	 ?build_substitution_info@@YGXPAUENTITY@@W4MEDAL_TYPES@@W4PILOT_RANK_TYPES@@PAD3@Z ; build_substitution_info
$LN4@get_briefi:

; 1227 : 		}
; 1228 : 	
; 1229 : 		// text 3 choice
; 1230 : 	
; 1231 : 		// check if any texts
; 1232 : 		if (task_briefing->briefing_text3 [0])

  00170	b8 04 00 00 00	 mov	 eax, 4
  00175	6b c8 00	 imul	 ecx, eax, 0
  00178	8b 55 ec	 mov	 edx, DWORD PTR _task_briefing$[ebp]
  0017b	83 bc 0a 0c 01
	00 00 00	 cmp	 DWORD PTR [edx+ecx+268], 0
  00183	74 51		 je	 SHORT $LN5@get_briefi

; 1233 : 		{
; 1234 : 		
; 1235 : 			remainder += get_local_entity_index (task) / task_briefing->briefing_text3_count;

  00185	8b 45 08	 mov	 eax, DWORD PTR _task$[ebp]
  00188	2b 05 00 00 00
	00		 sub	 eax, DWORD PTR ?entities@@3PAUENTITY@@A ; entities
  0018e	c1 f8 04	 sar	 eax, 4
  00191	8b 4d ec	 mov	 ecx, DWORD PTR _task_briefing$[ebp]
  00194	99		 cdq
  00195	f7 79 0c	 idiv	 DWORD PTR [ecx+12]
  00198	03 45 fc	 add	 eax, DWORD PTR _remainder$[ebp]
  0019b	89 45 fc	 mov	 DWORD PTR _remainder$[ebp], eax

; 1236 : 		
; 1237 : 			text3_choice = (remainder + get_local_entity_index (task)) % task_briefing->briefing_text3_count;

  0019e	8b 45 08	 mov	 eax, DWORD PTR _task$[ebp]
  001a1	2b 05 00 00 00
	00		 sub	 eax, DWORD PTR ?entities@@3PAUENTITY@@A ; entities
  001a7	c1 f8 04	 sar	 eax, 4
  001aa	03 45 fc	 add	 eax, DWORD PTR _remainder$[ebp]
  001ad	8b 4d ec	 mov	 ecx, DWORD PTR _task_briefing$[ebp]
  001b0	99		 cdq
  001b1	f7 79 0c	 idiv	 DWORD PTR [ecx+12]
  001b4	89 55 f0	 mov	 DWORD PTR _text3_choice$[ebp], edx

; 1238 : 		
; 1239 : 			build_substitution_info (task, NUM_MEDAL_TYPES, NUM_PILOT_RANKS, task_briefing->briefing_text3 [text3_choice], text3);

  001b7	8b 45 14	 mov	 eax, DWORD PTR _text3$[ebp]
  001ba	50		 push	 eax
  001bb	8b 4d f0	 mov	 ecx, DWORD PTR _text3_choice$[ebp]
  001be	8b 55 ec	 mov	 edx, DWORD PTR _task_briefing$[ebp]
  001c1	8b 84 8a 0c 01
	00 00		 mov	 eax, DWORD PTR [edx+ecx*4+268]
  001c8	50		 push	 eax
  001c9	6a 06		 push	 6
  001cb	6a 0d		 push	 13			; 0000000dH
  001cd	8b 4d 08	 mov	 ecx, DWORD PTR _task$[ebp]
  001d0	51		 push	 ecx
  001d1	e8 00 00 00 00	 call	 ?build_substitution_info@@YGXPAUENTITY@@W4MEDAL_TYPES@@W4PILOT_RANK_TYPES@@PAD3@Z ; build_substitution_info
$LN5@get_briefi:

; 1240 : 		}
; 1241 : 	
; 1242 : 		#if DEBUG_MODULE
; 1243 : 	
; 1244 : 		debug_log ("BRIEFING: using %d, %d, %d for text choice", text1_choice, text2_choice, text3_choice);
; 1245 : 	
; 1246 : 		#endif
; 1247 : 
; 1248 : 		return TRUE;

  001d6	b8 01 00 00 00	 mov	 eax, 1
  001db	e9 8a 00 00 00	 jmp	 $LN1@get_briefi
$LN2@get_briefi:

; 1249 : 	}
; 1250 : 
; 1251 : 	debug_log ("BRIEFING: WARNING: no briefing for mission %s", get_local_entity_string (task, STRING_TYPE_FULL_NAME));

  001e0	83 7d 08 00	 cmp	 DWORD PTR _task$[ebp], 0
  001e4	74 0a		 je	 SHORT $LN11@get_briefi
  001e6	8b 45 08	 mov	 eax, DWORD PTR _task$[ebp]
  001e9	8b 08		 mov	 ecx, DWORD PTR [eax]
  001eb	89 4d a8	 mov	 DWORD PTR tv193[ebp], ecx
  001ee	eb 21		 jmp	 SHORT $LN12@get_briefi
$LN11@get_briefi:
  001f0	8b 15 00 00 00
	00		 mov	 edx, DWORD PTR ?__LINE__Var@?0??get_briefing_text@@YGHPAUENTITY@@PAD11@Z@4JA
  001f6	83 c2 42	 add	 edx, 66			; 00000042H
  001f9	52		 push	 edx
  001fa	68 00 00 00 00	 push	 OFFSET ??_C@_0EC@JLKMNKLD@c?3?2users?2nhv90?2projects?2eech?2ap@
  001ff	a1 00 00 00 00	 mov	 eax, DWORD PTR ?null_entity_pointer_message@@3PBDB ; null_entity_pointer_message
  00204	50		 push	 eax
  00205	e8 00 00 00 00	 call	 ?process_assert@@YGXPBD0H@Z ; process_assert
  0020a	c7 45 a8 00 00
	00 00		 mov	 DWORD PTR tv193[ebp], 0
$LN12@get_briefi:
  00211	b9 01 00 00 00	 mov	 ecx, 1
  00216	85 c9		 test	 ecx, ecx
  00218	74 09		 je	 SHORT $LN13@get_briefi
  0021a	c7 45 a4 03 00
	00 00		 mov	 DWORD PTR tv201[ebp], 3
  00221	eb 21		 jmp	 SHORT $LN14@get_briefi
$LN13@get_briefi:
  00223	8b 15 00 00 00
	00		 mov	 edx, DWORD PTR ?__LINE__Var@?0??get_briefing_text@@YGHPAUENTITY@@PAD11@Z@4JA
  00229	83 c2 42	 add	 edx, 66			; 00000042H
  0022c	52		 push	 edx
  0022d	68 00 00 00 00	 push	 OFFSET ??_C@_0EC@JLKMNKLD@c?3?2users?2nhv90?2projects?2eech?2ap@
  00232	a1 00 00 00 00	 mov	 eax, DWORD PTR ?overload_invalid_string_type_message@@3PBDB ; overload_invalid_string_type_message
  00237	50		 push	 eax
  00238	e8 00 00 00 00	 call	 ?process_assert@@YGXPBD0H@Z ; process_assert
  0023d	c7 45 a4 00 00
	00 00		 mov	 DWORD PTR tv201[ebp], 0
$LN14@get_briefi:
  00244	6a 03		 push	 3
  00246	8b 4d 08	 mov	 ecx, DWORD PTR _task$[ebp]
  00249	51		 push	 ecx
  0024a	6b 55 a8 34	 imul	 edx, DWORD PTR tv193[ebp], 52
  0024e	8b 45 a4	 mov	 eax, DWORD PTR tv201[ebp]
  00251	8b 8c 82 00 00
	00 00		 mov	 ecx, DWORD PTR ?fn_get_local_entity_string@@3PAY0N@P6GPBDPAUENTITY@@W4STRING_TYPES@@@ZA[edx+eax*4]
  00258	ff d1		 call	 ecx
  0025a	50		 push	 eax
  0025b	68 00 00 00 00	 push	 OFFSET ??_C@_0CO@KFNBFGBK@BRIEFING?3?5WARNING?3?5no?5briefing?5@
  00260	e8 00 00 00 00	 call	 ?debug_log@@YAXPBDZZ	; debug_log
  00265	83 c4 08	 add	 esp, 8

; 1252 : 
; 1253 : 	return FALSE;

  00268	33 c0		 xor	 eax, eax
$LN1@get_briefi:

; 1254 : }

  0026a	5f		 pop	 edi
  0026b	5e		 pop	 esi
  0026c	5b		 pop	 ebx
  0026d	8b e5		 mov	 esp, ebp
  0026f	5d		 pop	 ebp
  00270	c2 10 00	 ret	 16			; 00000010H
?get_briefing_text@@YGHPAUENTITY@@PAD11@Z ENDP		; get_briefing_text
_TEXT	ENDS
; Function compile flags: /Odtp /ZI
; File c:\users\nhv90\projects\eech\aphavoc\source\ai\faction\briefing.c
;	COMDAT ?deinitialise_briefing_parser@@YGXXZ
_TEXT	SEGMENT
_this_medal$ = -12					; size = 4
_loop2$ = -8						; size = 4
_loop$ = -4						; size = 4
?deinitialise_briefing_parser@@YGXXZ PROC		; deinitialise_briefing_parser, COMDAT

; 635  : {

  00000	55		 push	 ebp
  00001	8b ec		 mov	 ebp, esp
  00003	83 ec 4c	 sub	 esp, 76			; 0000004cH
  00006	53		 push	 ebx
  00007	56		 push	 esi
  00008	57		 push	 edi

; 636  : 
; 637  : 	int
; 638  : 		loop,
; 639  : 		loop2;
; 640  : 
; 641  : 	extra_briefing_type
; 642  : 		*this_medal;
; 643  : 
; 644  : 	//
; 645  : 	// Briefing / Debriefing
; 646  : 	//
; 647  : 
; 648  : 	if (task_briefing_database)

  00009	83 3d 00 00 00
	00 00		 cmp	 DWORD PTR ?task_briefing_database@@3PAUTASK_BRIEFING_TYPE@@A, 0 ; task_briefing_database
  00010	0f 84 91 01 00
	00		 je	 $LN8@deinitiali

; 649  : 	{
; 650  : 	
; 651  : 		for (loop = 0; loop < NUM_ENTITY_SUB_TYPE_TASKS; loop ++)

  00016	c7 45 fc 00 00
	00 00		 mov	 DWORD PTR _loop$[ebp], 0
  0001d	eb 09		 jmp	 SHORT $LN4@deinitiali
$LN2@deinitiali:
  0001f	8b 45 fc	 mov	 eax, DWORD PTR _loop$[ebp]
  00022	83 c0 01	 add	 eax, 1
  00025	89 45 fc	 mov	 DWORD PTR _loop$[ebp], eax
$LN4@deinitiali:
  00028	83 7d fc 1e	 cmp	 DWORD PTR _loop$[ebp], 30 ; 0000001eH
  0002c	0f 8d 6a 01 00
	00		 jge	 $LN3@deinitiali

; 652  : 		{
; 653  : 
; 654  : 			for (loop2 = 0; loop2 < MAX_NUMBER_OF_MISSION_TEXTS; loop2 ++)

  00032	c7 45 f8 00 00
	00 00		 mov	 DWORD PTR _loop2$[ebp], 0
  00039	eb 09		 jmp	 SHORT $LN7@deinitiali
$LN5@deinitiali:
  0003b	8b 45 f8	 mov	 eax, DWORD PTR _loop2$[ebp]
  0003e	83 c0 01	 add	 eax, 1
  00041	89 45 f8	 mov	 DWORD PTR _loop2$[ebp], eax
$LN7@deinitiali:
  00044	83 7d f8 1e	 cmp	 DWORD PTR _loop2$[ebp], 30 ; 0000001eH
  00048	0f 8d 49 01 00
	00		 jge	 $LN6@deinitiali

; 655  : 			{
; 656  : 
; 657  : 				// briefing
; 658  : 
; 659  : 				if (task_briefing_database [loop].briefing_text1 [loop2])

  0004e	69 45 fc ec 02
	00 00		 imul	 eax, DWORD PTR _loop$[ebp], 748
  00055	03 05 00 00 00
	00		 add	 eax, DWORD PTR ?task_briefing_database@@3PAUTASK_BRIEFING_TYPE@@A ; task_briefing_database
  0005b	8b 4d f8	 mov	 ecx, DWORD PTR _loop2$[ebp]
  0005e	83 7c 88 1c 00	 cmp	 DWORD PTR [eax+ecx*4+28], 0
  00063	74 1a		 je	 SHORT $LN14@deinitiali

; 660  : 				{
; 661  : 		
; 662  : 					free_mem (task_briefing_database [loop].briefing_text1 [loop2]);

  00065	69 45 fc ec 02
	00 00		 imul	 eax, DWORD PTR _loop$[ebp], 748
  0006c	03 05 00 00 00
	00		 add	 eax, DWORD PTR ?task_briefing_database@@3PAUTASK_BRIEFING_TYPE@@A ; task_briefing_database
  00072	8b 4d f8	 mov	 ecx, DWORD PTR _loop2$[ebp]
  00075	8b 54 88 1c	 mov	 edx, DWORD PTR [eax+ecx*4+28]
  00079	52		 push	 edx
  0007a	e8 00 00 00 00	 call	 ?free_mem@@YGXPAX@Z	; free_mem
$LN14@deinitiali:

; 663  : 				}
; 664  : 		
; 665  : 				if (task_briefing_database [loop].briefing_text2 [loop2])

  0007f	69 45 fc ec 02
	00 00		 imul	 eax, DWORD PTR _loop$[ebp], 748
  00086	03 05 00 00 00
	00		 add	 eax, DWORD PTR ?task_briefing_database@@3PAUTASK_BRIEFING_TYPE@@A ; task_briefing_database
  0008c	8b 4d f8	 mov	 ecx, DWORD PTR _loop2$[ebp]
  0008f	83 bc 88 94 00
	00 00 00	 cmp	 DWORD PTR [eax+ecx*4+148], 0
  00097	74 1d		 je	 SHORT $LN15@deinitiali

; 666  : 				{
; 667  : 		
; 668  : 					free_mem (task_briefing_database [loop].briefing_text2 [loop2]);

  00099	69 45 fc ec 02
	00 00		 imul	 eax, DWORD PTR _loop$[ebp], 748
  000a0	03 05 00 00 00
	00		 add	 eax, DWORD PTR ?task_briefing_database@@3PAUTASK_BRIEFING_TYPE@@A ; task_briefing_database
  000a6	8b 4d f8	 mov	 ecx, DWORD PTR _loop2$[ebp]
  000a9	8b 94 88 94 00
	00 00		 mov	 edx, DWORD PTR [eax+ecx*4+148]
  000b0	52		 push	 edx
  000b1	e8 00 00 00 00	 call	 ?free_mem@@YGXPAX@Z	; free_mem
$LN15@deinitiali:

; 669  : 				}
; 670  : 		
; 671  : 				if (task_briefing_database [loop].briefing_text3 [loop2])

  000b6	69 45 fc ec 02
	00 00		 imul	 eax, DWORD PTR _loop$[ebp], 748
  000bd	03 05 00 00 00
	00		 add	 eax, DWORD PTR ?task_briefing_database@@3PAUTASK_BRIEFING_TYPE@@A ; task_briefing_database
  000c3	8b 4d f8	 mov	 ecx, DWORD PTR _loop2$[ebp]
  000c6	83 bc 88 0c 01
	00 00 00	 cmp	 DWORD PTR [eax+ecx*4+268], 0
  000ce	74 1d		 je	 SHORT $LN16@deinitiali

; 672  : 				{
; 673  : 		
; 674  : 					free_mem (task_briefing_database [loop].briefing_text3 [loop2]);

  000d0	69 45 fc ec 02
	00 00		 imul	 eax, DWORD PTR _loop$[ebp], 748
  000d7	03 05 00 00 00
	00		 add	 eax, DWORD PTR ?task_briefing_database@@3PAUTASK_BRIEFING_TYPE@@A ; task_briefing_database
  000dd	8b 4d f8	 mov	 ecx, DWORD PTR _loop2$[ebp]
  000e0	8b 94 88 0c 01
	00 00		 mov	 edx, DWORD PTR [eax+ecx*4+268]
  000e7	52		 push	 edx
  000e8	e8 00 00 00 00	 call	 ?free_mem@@YGXPAX@Z	; free_mem
$LN16@deinitiali:

; 675  : 				}
; 676  : 
; 677  : 				// debriefing
; 678  : 		
; 679  : 				if (task_briefing_database [loop].debriefing_text_success [loop2])

  000ed	69 45 fc ec 02
	00 00		 imul	 eax, DWORD PTR _loop$[ebp], 748
  000f4	03 05 00 00 00
	00		 add	 eax, DWORD PTR ?task_briefing_database@@3PAUTASK_BRIEFING_TYPE@@A ; task_briefing_database
  000fa	8b 4d f8	 mov	 ecx, DWORD PTR _loop2$[ebp]
  000fd	83 bc 88 84 01
	00 00 00	 cmp	 DWORD PTR [eax+ecx*4+388], 0
  00105	74 1d		 je	 SHORT $LN17@deinitiali

; 680  : 				{
; 681  : 		
; 682  : 					free_mem (task_briefing_database [loop].debriefing_text_success [loop2]);

  00107	69 45 fc ec 02
	00 00		 imul	 eax, DWORD PTR _loop$[ebp], 748
  0010e	03 05 00 00 00
	00		 add	 eax, DWORD PTR ?task_briefing_database@@3PAUTASK_BRIEFING_TYPE@@A ; task_briefing_database
  00114	8b 4d f8	 mov	 ecx, DWORD PTR _loop2$[ebp]
  00117	8b 94 88 84 01
	00 00		 mov	 edx, DWORD PTR [eax+ecx*4+388]
  0011e	52		 push	 edx
  0011f	e8 00 00 00 00	 call	 ?free_mem@@YGXPAX@Z	; free_mem
$LN17@deinitiali:

; 683  : 				}
; 684  : 		
; 685  : 				if (task_briefing_database [loop].debriefing_text_partial [loop2])

  00124	69 45 fc ec 02
	00 00		 imul	 eax, DWORD PTR _loop$[ebp], 748
  0012b	03 05 00 00 00
	00		 add	 eax, DWORD PTR ?task_briefing_database@@3PAUTASK_BRIEFING_TYPE@@A ; task_briefing_database
  00131	8b 4d f8	 mov	 ecx, DWORD PTR _loop2$[ebp]
  00134	83 bc 88 fc 01
	00 00 00	 cmp	 DWORD PTR [eax+ecx*4+508], 0
  0013c	74 1d		 je	 SHORT $LN18@deinitiali

; 686  : 				{
; 687  : 		
; 688  : 					free_mem (task_briefing_database [loop].debriefing_text_partial [loop2]);

  0013e	69 45 fc ec 02
	00 00		 imul	 eax, DWORD PTR _loop$[ebp], 748
  00145	03 05 00 00 00
	00		 add	 eax, DWORD PTR ?task_briefing_database@@3PAUTASK_BRIEFING_TYPE@@A ; task_briefing_database
  0014b	8b 4d f8	 mov	 ecx, DWORD PTR _loop2$[ebp]
  0014e	8b 94 88 fc 01
	00 00		 mov	 edx, DWORD PTR [eax+ecx*4+508]
  00155	52		 push	 edx
  00156	e8 00 00 00 00	 call	 ?free_mem@@YGXPAX@Z	; free_mem
$LN18@deinitiali:

; 689  : 				}
; 690  : 		
; 691  : 				if (task_briefing_database [loop].debriefing_text_failure [loop2])

  0015b	69 45 fc ec 02
	00 00		 imul	 eax, DWORD PTR _loop$[ebp], 748
  00162	03 05 00 00 00
	00		 add	 eax, DWORD PTR ?task_briefing_database@@3PAUTASK_BRIEFING_TYPE@@A ; task_briefing_database
  00168	8b 4d f8	 mov	 ecx, DWORD PTR _loop2$[ebp]
  0016b	83 bc 88 74 02
	00 00 00	 cmp	 DWORD PTR [eax+ecx*4+628], 0
  00173	74 1d		 je	 SHORT $LN19@deinitiali

; 692  : 				{
; 693  : 		
; 694  : 					free_mem (task_briefing_database [loop].debriefing_text_failure [loop2]);

  00175	69 45 fc ec 02
	00 00		 imul	 eax, DWORD PTR _loop$[ebp], 748
  0017c	03 05 00 00 00
	00		 add	 eax, DWORD PTR ?task_briefing_database@@3PAUTASK_BRIEFING_TYPE@@A ; task_briefing_database
  00182	8b 4d f8	 mov	 ecx, DWORD PTR _loop2$[ebp]
  00185	8b 94 88 74 02
	00 00		 mov	 edx, DWORD PTR [eax+ecx*4+628]
  0018c	52		 push	 edx
  0018d	e8 00 00 00 00	 call	 ?free_mem@@YGXPAX@Z	; free_mem
$LN19@deinitiali:

; 695  : 				}
; 696  : 			}

  00192	e9 a4 fe ff ff	 jmp	 $LN5@deinitiali
$LN6@deinitiali:

; 697  : 		}

  00197	e9 83 fe ff ff	 jmp	 $LN2@deinitiali
$LN3@deinitiali:

; 698  : 
; 699  : 		free_mem (task_briefing_database);

  0019c	a1 00 00 00 00	 mov	 eax, DWORD PTR ?task_briefing_database@@3PAUTASK_BRIEFING_TYPE@@A ; task_briefing_database
  001a1	50		 push	 eax
  001a2	e8 00 00 00 00	 call	 ?free_mem@@YGXPAX@Z	; free_mem
$LN8@deinitiali:

; 700  : 	}
; 701  : 
; 702  : 	//
; 703  : 	// Medals
; 704  : 	//
; 705  : 
; 706  : 	while (extra_briefing_database)

  001a7	83 3d 00 00 00
	00 00		 cmp	 DWORD PTR ?extra_briefing_database@@3PAUEXTRA_BRIEFING_TYPE@@A, 0 ; extra_briefing_database
  001ae	74 5b		 je	 SHORT $LN1@deinitiali

; 707  : 	{
; 708  : 
; 709  : 		this_medal = extra_briefing_database;

  001b0	a1 00 00 00 00	 mov	 eax, DWORD PTR ?extra_briefing_database@@3PAUEXTRA_BRIEFING_TYPE@@A ; extra_briefing_database
  001b5	89 45 f4	 mov	 DWORD PTR _this_medal$[ebp], eax

; 710  : 
; 711  : 		extra_briefing_database = extra_briefing_database->next;

  001b8	a1 00 00 00 00	 mov	 eax, DWORD PTR ?extra_briefing_database@@3PAUEXTRA_BRIEFING_TYPE@@A ; extra_briefing_database
  001bd	8b 88 84 00 00
	00		 mov	 ecx, DWORD PTR [eax+132]
  001c3	89 0d 00 00 00
	00		 mov	 DWORD PTR ?extra_briefing_database@@3PAUEXTRA_BRIEFING_TYPE@@A, ecx ; extra_briefing_database

; 712  : 
; 713  : 		// free medal
; 714  : 
; 715  : 		for (loop = 0; loop < MAX_NUMBER_OF_MISSION_TEXTS; loop ++)

  001c9	c7 45 fc 00 00
	00 00		 mov	 DWORD PTR _loop$[ebp], 0
  001d0	eb 09		 jmp	 SHORT $LN12@deinitiali
$LN10@deinitiali:
  001d2	8b 45 fc	 mov	 eax, DWORD PTR _loop$[ebp]
  001d5	83 c0 01	 add	 eax, 1
  001d8	89 45 fc	 mov	 DWORD PTR _loop$[ebp], eax
$LN12@deinitiali:
  001db	83 7d fc 1e	 cmp	 DWORD PTR _loop$[ebp], 30 ; 0000001eH
  001df	7d 1f		 jge	 SHORT $LN11@deinitiali

; 716  : 		{
; 717  : 
; 718  : 			// text
; 719  : 
; 720  : 			if (this_medal->briefing_text [loop])

  001e1	8b 45 fc	 mov	 eax, DWORD PTR _loop$[ebp]
  001e4	8b 4d f4	 mov	 ecx, DWORD PTR _this_medal$[ebp]
  001e7	83 7c 81 0c 00	 cmp	 DWORD PTR [ecx+eax*4+12], 0
  001ec	74 10		 je	 SHORT $LN20@deinitiali

; 721  : 			{
; 722  : 	
; 723  : 				free_mem (this_medal->briefing_text [loop]);

  001ee	8b 45 fc	 mov	 eax, DWORD PTR _loop$[ebp]
  001f1	8b 4d f4	 mov	 ecx, DWORD PTR _this_medal$[ebp]
  001f4	8b 54 81 0c	 mov	 edx, DWORD PTR [ecx+eax*4+12]
  001f8	52		 push	 edx
  001f9	e8 00 00 00 00	 call	 ?free_mem@@YGXPAX@Z	; free_mem
$LN20@deinitiali:

; 724  : 			}
; 725  : 		}

  001fe	eb d2		 jmp	 SHORT $LN10@deinitiali
$LN11@deinitiali:

; 726  : 
; 727  : 		free_mem (this_medal);

  00200	8b 45 f4	 mov	 eax, DWORD PTR _this_medal$[ebp]
  00203	50		 push	 eax
  00204	e8 00 00 00 00	 call	 ?free_mem@@YGXPAX@Z	; free_mem

; 728  : 	}

  00209	eb 9c		 jmp	 SHORT $LN8@deinitiali
$LN1@deinitiali:

; 729  : }

  0020b	5f		 pop	 edi
  0020c	5e		 pop	 esi
  0020d	5b		 pop	 ebx
  0020e	8b e5		 mov	 esp, ebp
  00210	5d		 pop	 ebp
  00211	c3		 ret	 0
?deinitialise_briefing_parser@@YGXXZ ENDP		; deinitialise_briefing_parser
_TEXT	ENDS
; Function compile flags: /Odtp /ZI
; File c:\users\nhv90\projects\eech\aphavoc\source\ai\faction\briefing.c
;	COMDAT ?initialise_briefing_parser@@YGXXZ
_TEXT	SEGMENT
tv342 = -812						; size = 4
tv179 = -812						; size = 4
tv88 = -812						; size = 4
_new_objective_briefing$1 = -680			; size = 4
_new_promotion_briefing$2 = -676			; size = 4
_new_medal_briefing$3 = -672				; size = 4
_current_medal_list$4 = -668				; size = 4
_medal_type$5 = -664					; size = 4
_task_type$6 = -660					; size = 4
_tag$ = -656						; size = 4
_file_ptr$ = -652					; size = 4
_current_session$ = -648				; size = 4
_temp_filename$ = -644					; size = 128
_temp_buffer$ = -516					; size = 512
_result$ = -4						; size = 4
?initialise_briefing_parser@@YGXXZ PROC			; initialise_briefing_parser, COMDAT

; 210  : {

  00000	55		 push	 ebp
  00001	8b ec		 mov	 ebp, esp
  00003	81 ec 2c 03 00
	00		 sub	 esp, 812		; 0000032cH
  00009	53		 push	 ebx
  0000a	56		 push	 esi
  0000b	57		 push	 edi

; 211  : 
; 212  : 	int
; 213  : 		result;
; 214  : 
; 215  : 	char
; 216  : 		temp_buffer [512],
; 217  : 		temp_filename [128];
; 218  : 
; 219  : 	session_list_data_type
; 220  : 		*current_session;
; 221  : 
; 222  : 	FILE
; 223  : 		*file_ptr;
; 224  : 
; 225  : 	file_tags
; 226  : 		tag;
; 227  : 
; 228  : 	extra_briefing_database = NULL;

  0000c	c7 05 00 00 00
	00 00 00 00 00	 mov	 DWORD PTR ?extra_briefing_database@@3PAUEXTRA_BRIEFING_TYPE@@A, 0 ; extra_briefing_database

; 229  : 
; 230  : 	//
; 231  : 	// read in briefing text
; 232  : 	//
; 233  : 
; 234  : 	deinitialise_briefing_parser ();

  00016	e8 00 00 00 00	 call	 ?deinitialise_briefing_parser@@YGXXZ ; deinitialise_briefing_parser

; 235  : 
; 236  : 	ASSERT (get_valid_current_game_session ());

  0001b	83 3d 00 00 00
	00 00		 cmp	 DWORD PTR ?current_game_session@@3PAUSESSION_LIST_DATA_TYPE@@A, 0 ; current_game_session
  00022	75 18		 jne	 SHORT $LN22@initialise
  00024	a1 00 00 00 00	 mov	 eax, DWORD PTR ?__LINE__Var@?0??initialise_briefing_parser@@YGXXZ@4JA
  00029	83 c0 1a	 add	 eax, 26			; 0000001aH
  0002c	50		 push	 eax
  0002d	68 00 00 00 00	 push	 OFFSET ??_C@_0EC@JLKMNKLD@c?3?2users?2nhv90?2projects?2eech?2ap@
  00032	68 00 00 00 00	 push	 OFFSET ??_C@_0CC@EEKIOPJL@get_valid_current_game_session?5@
  00037	e8 00 00 00 00	 call	 ?process_assert@@YGXPBD0H@Z ; process_assert
$LN22@initialise:

; 237  : 
; 238  : 	current_session = get_current_game_session ();

  0003c	a1 00 00 00 00	 mov	 eax, DWORD PTR ?current_game_session@@3PAUSESSION_LIST_DATA_TYPE@@A ; current_game_session
  00041	89 85 78 fd ff
	ff		 mov	 DWORD PTR _current_session$[ebp], eax

; 239  : 
; 240  : 	result = get_global_current_language ();

  00047	a1 04 00 00 00	 mov	 eax, DWORD PTR ?global_options@@3UGLOBAL_OPTIONS_DATA@@A+4
  0004c	89 45 fc	 mov	 DWORD PTR _result$[ebp], eax

; 241  : 
; 242  : 	sprintf (temp_filename, "%s%s", BRIEF_PATH, brief_filenames [result]);

  0004f	8b 45 fc	 mov	 eax, DWORD PTR _result$[ebp]
  00052	8b 0c 85 00 00
	00 00		 mov	 ecx, DWORD PTR ?brief_filenames@@3PAPBDA[eax*4]
  00059	51		 push	 ecx
  0005a	68 00 00 00 00	 push	 OFFSET ??_C@_0BA@DEKILMDL@?4?4?2common?2data?2@
  0005f	68 00 00 00 00	 push	 OFFSET ??_C@_04HDOCAJNK@?$CFs?$CFs@
  00064	8d 95 7c fd ff
	ff		 lea	 edx, DWORD PTR _temp_filename$[ebp]
  0006a	52		 push	 edx
  0006b	e8 00 00 00 00	 call	 _sprintf
  00070	83 c4 10	 add	 esp, 16			; 00000010H

; 243  : 
; 244  : 	file_ptr = safe_fopen (temp_filename, "r");

  00073	68 00 00 00 00	 push	 OFFSET ??_C@_01KDCPPGHE@r@
  00078	8d 85 7c fd ff
	ff		 lea	 eax, DWORD PTR _temp_filename$[ebp]
  0007e	50		 push	 eax
  0007f	e8 00 00 00 00	 call	 ?safe_fopen@@YGPAU_iobuf@@PBD0@Z ; safe_fopen
  00084	89 85 74 fd ff
	ff		 mov	 DWORD PTR _file_ptr$[ebp], eax

; 245  : 
; 246  : 	task_briefing_database = (task_briefing_type *) malloc_heap_mem (sizeof (task_briefing_type) * NUM_ENTITY_SUB_TYPE_TASKS);

  0008a	68 a8 57 00 00	 push	 22440			; 000057a8H
  0008f	e8 00 00 00 00	 call	 ?malloc_heap_memory@@YGPAXI@Z ; malloc_heap_memory
  00094	a3 00 00 00 00	 mov	 DWORD PTR ?task_briefing_database@@3PAUTASK_BRIEFING_TYPE@@A, eax ; task_briefing_database

; 247  : 	memset (task_briefing_database, 0, sizeof (task_briefing_type) * NUM_ENTITY_SUB_TYPE_TASKS);

  00099	68 a8 57 00 00	 push	 22440			; 000057a8H
  0009e	6a 00		 push	 0
  000a0	a1 00 00 00 00	 mov	 eax, DWORD PTR ?task_briefing_database@@3PAUTASK_BRIEFING_TYPE@@A ; task_briefing_database
  000a5	50		 push	 eax
  000a6	e8 00 00 00 00	 call	 _memset
  000ab	83 c4 0c	 add	 esp, 12			; 0000000cH
$LN2@initialise:

; 248  : 
; 249  : 	while (TRUE)

  000ae	b8 01 00 00 00	 mov	 eax, 1
  000b3	85 c0		 test	 eax, eax
  000b5	0f 84 21 0e 00
	00		 je	 $LN1@initialise

; 250  : 	{
; 251  : 
; 252  : 		tag = (file_tags) get_next_file_tag (file_ptr, application_tag_strings, FILE_TAG_APPLICATION_LAST_TAG);

  000bb	68 af 00 00 00	 push	 175			; 000000afH
  000c0	68 00 00 00 00	 push	 OFFSET ?application_tag_strings@@3PAPBDA ; application_tag_strings
  000c5	8b 85 74 fd ff
	ff		 mov	 eax, DWORD PTR _file_ptr$[ebp]
  000cb	50		 push	 eax
  000cc	e8 00 00 00 00	 call	 ?get_next_file_tag@@YGHPAU_iobuf@@QAPBDH@Z ; get_next_file_tag
  000d1	89 85 70 fd ff
	ff		 mov	 DWORD PTR _tag$[ebp], eax

; 253  : 
; 254  : 		switch (tag)

  000d7	8b 85 70 fd ff
	ff		 mov	 eax, DWORD PTR _tag$[ebp]
  000dd	89 85 d4 fc ff
	ff		 mov	 DWORD PTR tv88[ebp], eax
  000e3	8b 8d d4 fc ff
	ff		 mov	 ecx, DWORD PTR tv88[ebp]
  000e9	83 c1 1a	 add	 ecx, 26			; 0000001aH
  000ec	89 8d d4 fc ff
	ff		 mov	 DWORD PTR tv88[ebp], ecx
  000f2	81 bd d4 fc ff
	ff 96 00 00 00	 cmp	 DWORD PTR tv88[ebp], 150 ; 00000096H
  000fc	0f 87 d5 0d 00
	00		 ja	 $LN4@initialise
  00102	8b 95 d4 fc ff
	ff		 mov	 edx, DWORD PTR tv88[ebp]
  00108	0f b6 82 00 00
	00 00		 movzx	 eax, BYTE PTR $LN49@initialise[edx]
  0010f	ff 24 85 00 00
	00 00		 jmp	 DWORD PTR $LN50@initialise[eax*4]

; 255  : 		{
; 256  : 
; 257  : 			case FILE_TAG_START:
; 258  : 			{
; 259  : 
; 260  : 				break;

  00116	e9 bc 0d 00 00	 jmp	 $LN4@initialise
$LN24@initialise:

; 261  : 			}
; 262  : 
; 263  : 			case FILE_TAG_TYPE:
; 264  : 			{
; 265  : 
; 266  : 				entity_sub_types
; 267  : 					task_type;
; 268  : 
; 269  : 				task_type = get_next_file_enum (file_ptr, entity_sub_type_task_names, NUM_ENTITY_SUB_TYPE_TASKS);

  0011b	6a 1e		 push	 30			; 0000001eH
  0011d	68 00 00 00 00	 push	 OFFSET ?entity_sub_type_task_names@@3PAPBDA ; entity_sub_type_task_names
  00122	8b 85 74 fd ff
	ff		 mov	 eax, DWORD PTR _file_ptr$[ebp]
  00128	50		 push	 eax
  00129	e8 00 00 00 00	 call	 ?get_next_file_enum@@YGHPAU_iobuf@@QAPBDH@Z ; get_next_file_enum
  0012e	89 85 6c fd ff
	ff		 mov	 DWORD PTR _task_type$6[ebp], eax

; 270  : 
; 271  : 				task_briefing_database [task_type].task_type = task_type;

  00134	69 85 6c fd ff
	ff ec 02 00 00	 imul	 eax, DWORD PTR _task_type$6[ebp], 748
  0013e	8b 0d 00 00 00
	00		 mov	 ecx, DWORD PTR ?task_briefing_database@@3PAUTASK_BRIEFING_TYPE@@A ; task_briefing_database
  00144	8b 95 6c fd ff
	ff		 mov	 edx, DWORD PTR _task_type$6[ebp]
  0014a	89 14 01	 mov	 DWORD PTR [ecx+eax], edx

; 272  : 					
; 273  : 				task_briefing_database [task_type].briefing_text1_count = 0;

  0014d	69 85 6c fd ff
	ff ec 02 00 00	 imul	 eax, DWORD PTR _task_type$6[ebp], 748
  00157	8b 0d 00 00 00
	00		 mov	 ecx, DWORD PTR ?task_briefing_database@@3PAUTASK_BRIEFING_TYPE@@A ; task_briefing_database
  0015d	c7 44 01 04 00
	00 00 00	 mov	 DWORD PTR [ecx+eax+4], 0

; 274  : 				task_briefing_database [task_type].briefing_text2_count = 0;

  00165	69 85 6c fd ff
	ff ec 02 00 00	 imul	 eax, DWORD PTR _task_type$6[ebp], 748
  0016f	8b 0d 00 00 00
	00		 mov	 ecx, DWORD PTR ?task_briefing_database@@3PAUTASK_BRIEFING_TYPE@@A ; task_briefing_database
  00175	c7 44 01 08 00
	00 00 00	 mov	 DWORD PTR [ecx+eax+8], 0

; 275  : 				task_briefing_database [task_type].briefing_text3_count = 0;

  0017d	69 85 6c fd ff
	ff ec 02 00 00	 imul	 eax, DWORD PTR _task_type$6[ebp], 748
  00187	8b 0d 00 00 00
	00		 mov	 ecx, DWORD PTR ?task_briefing_database@@3PAUTASK_BRIEFING_TYPE@@A ; task_briefing_database
  0018d	c7 44 01 0c 00
	00 00 00	 mov	 DWORD PTR [ecx+eax+12], 0

; 276  : 				task_briefing_database [task_type].debriefing_text_success_count = 0;

  00195	69 85 6c fd ff
	ff ec 02 00 00	 imul	 eax, DWORD PTR _task_type$6[ebp], 748
  0019f	8b 0d 00 00 00
	00		 mov	 ecx, DWORD PTR ?task_briefing_database@@3PAUTASK_BRIEFING_TYPE@@A ; task_briefing_database
  001a5	c7 44 01 10 00
	00 00 00	 mov	 DWORD PTR [ecx+eax+16], 0

; 277  : 				task_briefing_database [task_type].debriefing_text_partial_count = 0;

  001ad	69 85 6c fd ff
	ff ec 02 00 00	 imul	 eax, DWORD PTR _task_type$6[ebp], 748
  001b7	8b 0d 00 00 00
	00		 mov	 ecx, DWORD PTR ?task_briefing_database@@3PAUTASK_BRIEFING_TYPE@@A ; task_briefing_database
  001bd	c7 44 01 14 00
	00 00 00	 mov	 DWORD PTR [ecx+eax+20], 0

; 278  : 				task_briefing_database [task_type].debriefing_text_failure_count = 0;

  001c5	69 85 6c fd ff
	ff ec 02 00 00	 imul	 eax, DWORD PTR _task_type$6[ebp], 748
  001cf	8b 0d 00 00 00
	00		 mov	 ecx, DWORD PTR ?task_briefing_database@@3PAUTASK_BRIEFING_TYPE@@A ; task_briefing_database
  001d5	c7 44 01 18 00
	00 00 00	 mov	 DWORD PTR [ecx+eax+24], 0
$LN6@initialise:

; 279  : 
; 280  : 				#if DEBUG_MODULE
; 281  : 
; 282  : 				debug_log ("BRIEFING: reading in Briefing text for mission %s", entity_sub_type_task_names [task_type]);
; 283  : 
; 284  : 				#endif
; 285  : 
; 286  : 				//
; 287  : 				// Briefing text
; 288  : 				//
; 289  : 
; 290  : 				while (check_next_file_tag (file_ptr, application_tag_strings, FILE_TAG_APPLICATION_LAST_TAG) != FILE_TAG_END)

  001dd	68 af 00 00 00	 push	 175			; 000000afH
  001e2	68 00 00 00 00	 push	 OFFSET ?application_tag_strings@@3PAPBDA ; application_tag_strings
  001e7	8b 85 74 fd ff
	ff		 mov	 eax, DWORD PTR _file_ptr$[ebp]
  001ed	50		 push	 eax
  001ee	e8 00 00 00 00	 call	 ?check_next_file_tag@@YGHPAU_iobuf@@QAPBDH@Z ; check_next_file_tag
  001f3	83 f8 f6	 cmp	 eax, -10		; fffffff6H
  001f6	0f 84 8d 03 00
	00		 je	 $LN7@initialise

; 291  : 				{
; 292  : 
; 293  : 					ASSERT (task_briefing_database [task_type].briefing_text1_count < MAX_NUMBER_OF_MISSION_TEXTS);

  001fc	69 85 6c fd ff
	ff ec 02 00 00	 imul	 eax, DWORD PTR _task_type$6[ebp], 748
  00206	8b 0d 00 00 00
	00		 mov	 ecx, DWORD PTR ?task_briefing_database@@3PAUTASK_BRIEFING_TYPE@@A ; task_briefing_database
  0020c	83 7c 01 04 1e	 cmp	 DWORD PTR [ecx+eax+4], 30 ; 0000001eH
  00211	7c 18		 jl	 SHORT $LN25@initialise
  00213	a1 00 00 00 00	 mov	 eax, DWORD PTR ?__LINE__Var@?0??initialise_briefing_parser@@YGXXZ@4JA
  00218	83 c0 53	 add	 eax, 83			; 00000053H
  0021b	50		 push	 eax
  0021c	68 00 00 00 00	 push	 OFFSET ??_C@_0EC@JLKMNKLD@c?3?2users?2nhv90?2projects?2eech?2ap@
  00221	68 00 00 00 00	 push	 OFFSET ??_C@_0FG@DLGLHDID@task_briefing_database?5?$FLtask_ty@
  00226	e8 00 00 00 00	 call	 ?process_assert@@YGXPBD0H@Z ; process_assert
$LN25@initialise:

; 294  : 					ASSERT (task_briefing_database [task_type].briefing_text2_count < MAX_NUMBER_OF_MISSION_TEXTS);

  0022b	69 85 6c fd ff
	ff ec 02 00 00	 imul	 eax, DWORD PTR _task_type$6[ebp], 748
  00235	8b 0d 00 00 00
	00		 mov	 ecx, DWORD PTR ?task_briefing_database@@3PAUTASK_BRIEFING_TYPE@@A ; task_briefing_database
  0023b	83 7c 01 08 1e	 cmp	 DWORD PTR [ecx+eax+8], 30 ; 0000001eH
  00240	7c 18		 jl	 SHORT $LN26@initialise
  00242	a1 00 00 00 00	 mov	 eax, DWORD PTR ?__LINE__Var@?0??initialise_briefing_parser@@YGXXZ@4JA
  00247	83 c0 54	 add	 eax, 84			; 00000054H
  0024a	50		 push	 eax
  0024b	68 00 00 00 00	 push	 OFFSET ??_C@_0EC@JLKMNKLD@c?3?2users?2nhv90?2projects?2eech?2ap@
  00250	68 00 00 00 00	 push	 OFFSET ??_C@_0FG@HGIDHDOE@task_briefing_database?5?$FLtask_ty@
  00255	e8 00 00 00 00	 call	 ?process_assert@@YGXPBD0H@Z ; process_assert
$LN26@initialise:

; 295  : 					ASSERT (task_briefing_database [task_type].briefing_text3_count < MAX_NUMBER_OF_MISSION_TEXTS);

  0025a	69 85 6c fd ff
	ff ec 02 00 00	 imul	 eax, DWORD PTR _task_type$6[ebp], 748
  00264	8b 0d 00 00 00
	00		 mov	 ecx, DWORD PTR ?task_briefing_database@@3PAUTASK_BRIEFING_TYPE@@A ; task_briefing_database
  0026a	83 7c 01 0c 1e	 cmp	 DWORD PTR [ecx+eax+12], 30 ; 0000001eH
  0026f	7c 18		 jl	 SHORT $LN27@initialise
  00271	a1 00 00 00 00	 mov	 eax, DWORD PTR ?__LINE__Var@?0??initialise_briefing_parser@@YGXXZ@4JA
  00276	83 c0 55	 add	 eax, 85			; 00000055H
  00279	50		 push	 eax
  0027a	68 00 00 00 00	 push	 OFFSET ??_C@_0EC@JLKMNKLD@c?3?2users?2nhv90?2projects?2eech?2ap@
  0027f	68 00 00 00 00	 push	 OFFSET ??_C@_0FG@PLALIOAG@task_briefing_database?5?$FLtask_ty@
  00284	e8 00 00 00 00	 call	 ?process_assert@@YGXPBD0H@Z ; process_assert
$LN27@initialise:

; 296  : 
; 297  : 					result = get_next_file_tag (file_ptr, application_tag_strings, FILE_TAG_APPLICATION_LAST_TAG);

  00289	68 af 00 00 00	 push	 175			; 000000afH
  0028e	68 00 00 00 00	 push	 OFFSET ?application_tag_strings@@3PAPBDA ; application_tag_strings
  00293	8b 85 74 fd ff
	ff		 mov	 eax, DWORD PTR _file_ptr$[ebp]
  00299	50		 push	 eax
  0029a	e8 00 00 00 00	 call	 ?get_next_file_tag@@YGHPAU_iobuf@@QAPBDH@Z ; get_next_file_tag
  0029f	89 45 fc	 mov	 DWORD PTR _result$[ebp], eax

; 298  : 
; 299  : 					switch (result)

  002a2	8b 45 fc	 mov	 eax, DWORD PTR _result$[ebp]
  002a5	89 85 d4 fc ff
	ff		 mov	 DWORD PTR tv179[ebp], eax
  002ab	81 bd d4 fc ff
	ff 9b 00 00 00	 cmp	 DWORD PTR tv179[ebp], 155 ; 0000009bH
  002b5	74 25		 je	 SHORT $LN28@initialise
  002b7	81 bd d4 fc ff
	ff 9c 00 00 00	 cmp	 DWORD PTR tv179[ebp], 156 ; 0000009cH
  002c1	0f 84 ef 00 00
	00		 je	 $LN29@initialise
  002c7	81 bd d4 fc ff
	ff 9d 00 00 00	 cmp	 DWORD PTR tv179[ebp], 157 ; 0000009dH
  002d1	0f 84 bf 01 00
	00		 je	 $LN30@initialise
  002d7	e9 97 02 00 00	 jmp	 $LN31@initialise
$LN28@initialise:

; 300  : 					{
; 301  : 
; 302  : 						case FILE_TAG_TEXT1:
; 303  : 						{
; 304  : 			
; 305  : 							memset (&temp_buffer, 0, sizeof (temp_buffer));

  002dc	68 00 02 00 00	 push	 512			; 00000200H
  002e1	6a 00		 push	 0
  002e3	8d 85 fc fd ff
	ff		 lea	 eax, DWORD PTR _temp_buffer$[ebp]
  002e9	50		 push	 eax
  002ea	e8 00 00 00 00	 call	 _memset
  002ef	83 c4 0c	 add	 esp, 12			; 0000000cH

; 306  : 							get_next_file_paragraph (file_ptr, temp_buffer, sizeof (temp_buffer));

  002f2	68 00 02 00 00	 push	 512			; 00000200H
  002f7	8d 85 fc fd ff
	ff		 lea	 eax, DWORD PTR _temp_buffer$[ebp]
  002fd	50		 push	 eax
  002fe	8b 8d 74 fd ff
	ff		 mov	 ecx, DWORD PTR _file_ptr$[ebp]
  00304	51		 push	 ecx
  00305	e8 00 00 00 00	 call	 ?get_next_file_paragraph@@YGHPAU_iobuf@@PADH@Z ; get_next_file_paragraph

; 307  : 							task_briefing_database [task_type].briefing_text1 [task_briefing_database [task_type].briefing_text1_count] = (char *) malloc_heap_mem (sizeof (char) * (strlen (temp_buffer) + 1));

  0030a	8d 85 fc fd ff
	ff		 lea	 eax, DWORD PTR _temp_buffer$[ebp]
  00310	50		 push	 eax
  00311	e8 00 00 00 00	 call	 _strlen
  00316	83 c4 04	 add	 esp, 4
  00319	83 c0 01	 add	 eax, 1
  0031c	50		 push	 eax
  0031d	e8 00 00 00 00	 call	 ?malloc_heap_memory@@YGPAXI@Z ; malloc_heap_memory
  00322	69 8d 6c fd ff
	ff ec 02 00 00	 imul	 ecx, DWORD PTR _task_type$6[ebp], 748
  0032c	03 0d 00 00 00
	00		 add	 ecx, DWORD PTR ?task_briefing_database@@3PAUTASK_BRIEFING_TYPE@@A ; task_briefing_database
  00332	69 95 6c fd ff
	ff ec 02 00 00	 imul	 edx, DWORD PTR _task_type$6[ebp], 748
  0033c	8b 35 00 00 00
	00		 mov	 esi, DWORD PTR ?task_briefing_database@@3PAUTASK_BRIEFING_TYPE@@A ; task_briefing_database
  00342	8b 54 16 04	 mov	 edx, DWORD PTR [esi+edx+4]
  00346	89 44 91 1c	 mov	 DWORD PTR [ecx+edx*4+28], eax

; 308  : 							sprintf (task_briefing_database [task_type].briefing_text1 [task_briefing_database [task_type].briefing_text1_count], "%s", &temp_buffer);

  0034a	8d 85 fc fd ff
	ff		 lea	 eax, DWORD PTR _temp_buffer$[ebp]
  00350	50		 push	 eax
  00351	68 00 00 00 00	 push	 OFFSET ??_C@_02DKCKIIND@?$CFs@
  00356	69 8d 6c fd ff
	ff ec 02 00 00	 imul	 ecx, DWORD PTR _task_type$6[ebp], 748
  00360	03 0d 00 00 00
	00		 add	 ecx, DWORD PTR ?task_briefing_database@@3PAUTASK_BRIEFING_TYPE@@A ; task_briefing_database
  00366	69 95 6c fd ff
	ff ec 02 00 00	 imul	 edx, DWORD PTR _task_type$6[ebp], 748
  00370	a1 00 00 00 00	 mov	 eax, DWORD PTR ?task_briefing_database@@3PAUTASK_BRIEFING_TYPE@@A ; task_briefing_database
  00375	8b 54 10 04	 mov	 edx, DWORD PTR [eax+edx+4]
  00379	8b 44 91 1c	 mov	 eax, DWORD PTR [ecx+edx*4+28]
  0037d	50		 push	 eax
  0037e	e8 00 00 00 00	 call	 _sprintf
  00383	83 c4 0c	 add	 esp, 12			; 0000000cH

; 309  : 
; 310  : 							#if DEBUG_MODULE
; 311  : 
; 312  : 							debug_log ("BRIEFING: 		text1 (count %d) :- %s", task_briefing_database [task_type].briefing_text1_count, task_briefing_database [task_type].briefing_text1 [task_briefing_database [task_type].briefing_text1_count]);
; 313  : 
; 314  : 							#endif
; 315  : 
; 316  : 							task_briefing_database [task_type].briefing_text1_count ++;

  00386	69 85 6c fd ff
	ff ec 02 00 00	 imul	 eax, DWORD PTR _task_type$6[ebp], 748
  00390	8b 0d 00 00 00
	00		 mov	 ecx, DWORD PTR ?task_briefing_database@@3PAUTASK_BRIEFING_TYPE@@A ; task_briefing_database
  00396	8b 54 01 04	 mov	 edx, DWORD PTR [ecx+eax+4]
  0039a	83 c2 01	 add	 edx, 1
  0039d	69 85 6c fd ff
	ff ec 02 00 00	 imul	 eax, DWORD PTR _task_type$6[ebp], 748
  003a7	8b 0d 00 00 00
	00		 mov	 ecx, DWORD PTR ?task_briefing_database@@3PAUTASK_BRIEFING_TYPE@@A ; task_briefing_database
  003ad	89 54 01 04	 mov	 DWORD PTR [ecx+eax+4], edx

; 317  : 			
; 318  : 							break;

  003b1	e9 ce 01 00 00	 jmp	 $LN8@initialise
$LN29@initialise:

; 319  : 						}
; 320  : 
; 321  : 						case FILE_TAG_TEXT2:
; 322  : 						{
; 323  : 			
; 324  : 							memset (&temp_buffer, 0, sizeof (temp_buffer));

  003b6	68 00 02 00 00	 push	 512			; 00000200H
  003bb	6a 00		 push	 0
  003bd	8d 85 fc fd ff
	ff		 lea	 eax, DWORD PTR _temp_buffer$[ebp]
  003c3	50		 push	 eax
  003c4	e8 00 00 00 00	 call	 _memset
  003c9	83 c4 0c	 add	 esp, 12			; 0000000cH

; 325  : 							get_next_file_paragraph (file_ptr, temp_buffer, sizeof (temp_buffer));

  003cc	68 00 02 00 00	 push	 512			; 00000200H
  003d1	8d 85 fc fd ff
	ff		 lea	 eax, DWORD PTR _temp_buffer$[ebp]
  003d7	50		 push	 eax
  003d8	8b 8d 74 fd ff
	ff		 mov	 ecx, DWORD PTR _file_ptr$[ebp]
  003de	51		 push	 ecx
  003df	e8 00 00 00 00	 call	 ?get_next_file_paragraph@@YGHPAU_iobuf@@PADH@Z ; get_next_file_paragraph

; 326  : 							task_briefing_database [task_type].briefing_text2 [task_briefing_database [task_type].briefing_text2_count] = (char *) malloc_heap_mem (sizeof (char) * (strlen (temp_buffer) + 1));

  003e4	8d 85 fc fd ff
	ff		 lea	 eax, DWORD PTR _temp_buffer$[ebp]
  003ea	50		 push	 eax
  003eb	e8 00 00 00 00	 call	 _strlen
  003f0	83 c4 04	 add	 esp, 4
  003f3	83 c0 01	 add	 eax, 1
  003f6	50		 push	 eax
  003f7	e8 00 00 00 00	 call	 ?malloc_heap_memory@@YGPAXI@Z ; malloc_heap_memory
  003fc	69 8d 6c fd ff
	ff ec 02 00 00	 imul	 ecx, DWORD PTR _task_type$6[ebp], 748
  00406	03 0d 00 00 00
	00		 add	 ecx, DWORD PTR ?task_briefing_database@@3PAUTASK_BRIEFING_TYPE@@A ; task_briefing_database
  0040c	69 95 6c fd ff
	ff ec 02 00 00	 imul	 edx, DWORD PTR _task_type$6[ebp], 748
  00416	8b 35 00 00 00
	00		 mov	 esi, DWORD PTR ?task_briefing_database@@3PAUTASK_BRIEFING_TYPE@@A ; task_briefing_database
  0041c	8b 54 16 08	 mov	 edx, DWORD PTR [esi+edx+8]
  00420	89 84 91 94 00
	00 00		 mov	 DWORD PTR [ecx+edx*4+148], eax

; 327  : 							sprintf (task_briefing_database [task_type].briefing_text2 [task_briefing_database [task_type].briefing_text2_count], "%s", &temp_buffer);

  00427	8d 85 fc fd ff
	ff		 lea	 eax, DWORD PTR _temp_buffer$[ebp]
  0042d	50		 push	 eax
  0042e	68 00 00 00 00	 push	 OFFSET ??_C@_02DKCKIIND@?$CFs@
  00433	69 8d 6c fd ff
	ff ec 02 00 00	 imul	 ecx, DWORD PTR _task_type$6[ebp], 748
  0043d	03 0d 00 00 00
	00		 add	 ecx, DWORD PTR ?task_briefing_database@@3PAUTASK_BRIEFING_TYPE@@A ; task_briefing_database
  00443	69 95 6c fd ff
	ff ec 02 00 00	 imul	 edx, DWORD PTR _task_type$6[ebp], 748
  0044d	a1 00 00 00 00	 mov	 eax, DWORD PTR ?task_briefing_database@@3PAUTASK_BRIEFING_TYPE@@A ; task_briefing_database
  00452	8b 54 10 08	 mov	 edx, DWORD PTR [eax+edx+8]
  00456	8b 84 91 94 00
	00 00		 mov	 eax, DWORD PTR [ecx+edx*4+148]
  0045d	50		 push	 eax
  0045e	e8 00 00 00 00	 call	 _sprintf
  00463	83 c4 0c	 add	 esp, 12			; 0000000cH

; 328  : 
; 329  : 							#if DEBUG_MODULE
; 330  : 
; 331  : 							debug_log ("BRIEFING: 		text2 (count %d) :- %s", task_briefing_database [task_type].briefing_text2_count, task_briefing_database [task_type].briefing_text2 [task_briefing_database [task_type].briefing_text2_count]);
; 332  : 
; 333  : 							#endif
; 334  : 
; 335  : 							task_briefing_database [task_type].briefing_text2_count ++;

  00466	69 85 6c fd ff
	ff ec 02 00 00	 imul	 eax, DWORD PTR _task_type$6[ebp], 748
  00470	8b 0d 00 00 00
	00		 mov	 ecx, DWORD PTR ?task_briefing_database@@3PAUTASK_BRIEFING_TYPE@@A ; task_briefing_database
  00476	8b 54 01 08	 mov	 edx, DWORD PTR [ecx+eax+8]
  0047a	83 c2 01	 add	 edx, 1
  0047d	69 85 6c fd ff
	ff ec 02 00 00	 imul	 eax, DWORD PTR _task_type$6[ebp], 748
  00487	8b 0d 00 00 00
	00		 mov	 ecx, DWORD PTR ?task_briefing_database@@3PAUTASK_BRIEFING_TYPE@@A ; task_briefing_database
  0048d	89 54 01 08	 mov	 DWORD PTR [ecx+eax+8], edx

; 336  : 			
; 337  : 							break;

  00491	e9 ee 00 00 00	 jmp	 $LN8@initialise
$LN30@initialise:

; 338  : 						}
; 339  : 
; 340  : 						case FILE_TAG_TEXT3:
; 341  : 						{
; 342  : 			
; 343  : 							memset (&temp_buffer, 0, sizeof (temp_buffer));

  00496	68 00 02 00 00	 push	 512			; 00000200H
  0049b	6a 00		 push	 0
  0049d	8d 85 fc fd ff
	ff		 lea	 eax, DWORD PTR _temp_buffer$[ebp]
  004a3	50		 push	 eax
  004a4	e8 00 00 00 00	 call	 _memset
  004a9	83 c4 0c	 add	 esp, 12			; 0000000cH

; 344  : 							get_next_file_paragraph (file_ptr, temp_buffer, sizeof (temp_buffer));

  004ac	68 00 02 00 00	 push	 512			; 00000200H
  004b1	8d 85 fc fd ff
	ff		 lea	 eax, DWORD PTR _temp_buffer$[ebp]
  004b7	50		 push	 eax
  004b8	8b 8d 74 fd ff
	ff		 mov	 ecx, DWORD PTR _file_ptr$[ebp]
  004be	51		 push	 ecx
  004bf	e8 00 00 00 00	 call	 ?get_next_file_paragraph@@YGHPAU_iobuf@@PADH@Z ; get_next_file_paragraph

; 345  : 							task_briefing_database [task_type].briefing_text3 [task_briefing_database [task_type].briefing_text3_count] = (char *) malloc_heap_mem (sizeof (char) * (strlen (temp_buffer) + 1));

  004c4	8d 85 fc fd ff
	ff		 lea	 eax, DWORD PTR _temp_buffer$[ebp]
  004ca	50		 push	 eax
  004cb	e8 00 00 00 00	 call	 _strlen
  004d0	83 c4 04	 add	 esp, 4
  004d3	83 c0 01	 add	 eax, 1
  004d6	50		 push	 eax
  004d7	e8 00 00 00 00	 call	 ?malloc_heap_memory@@YGPAXI@Z ; malloc_heap_memory
  004dc	69 8d 6c fd ff
	ff ec 02 00 00	 imul	 ecx, DWORD PTR _task_type$6[ebp], 748
  004e6	03 0d 00 00 00
	00		 add	 ecx, DWORD PTR ?task_briefing_database@@3PAUTASK_BRIEFING_TYPE@@A ; task_briefing_database
  004ec	69 95 6c fd ff
	ff ec 02 00 00	 imul	 edx, DWORD PTR _task_type$6[ebp], 748
  004f6	8b 35 00 00 00
	00		 mov	 esi, DWORD PTR ?task_briefing_database@@3PAUTASK_BRIEFING_TYPE@@A ; task_briefing_database
  004fc	8b 54 16 0c	 mov	 edx, DWORD PTR [esi+edx+12]
  00500	89 84 91 0c 01
	00 00		 mov	 DWORD PTR [ecx+edx*4+268], eax

; 346  : 							sprintf (task_briefing_database [task_type].briefing_text3 [task_briefing_database [task_type].briefing_text3_count], "%s", &temp_buffer);

  00507	8d 85 fc fd ff
	ff		 lea	 eax, DWORD PTR _temp_buffer$[ebp]
  0050d	50		 push	 eax
  0050e	68 00 00 00 00	 push	 OFFSET ??_C@_02DKCKIIND@?$CFs@
  00513	69 8d 6c fd ff
	ff ec 02 00 00	 imul	 ecx, DWORD PTR _task_type$6[ebp], 748
  0051d	03 0d 00 00 00
	00		 add	 ecx, DWORD PTR ?task_briefing_database@@3PAUTASK_BRIEFING_TYPE@@A ; task_briefing_database
  00523	69 95 6c fd ff
	ff ec 02 00 00	 imul	 edx, DWORD PTR _task_type$6[ebp], 748
  0052d	a1 00 00 00 00	 mov	 eax, DWORD PTR ?task_briefing_database@@3PAUTASK_BRIEFING_TYPE@@A ; task_briefing_database
  00532	8b 54 10 0c	 mov	 edx, DWORD PTR [eax+edx+12]
  00536	8b 84 91 0c 01
	00 00		 mov	 eax, DWORD PTR [ecx+edx*4+268]
  0053d	50		 push	 eax
  0053e	e8 00 00 00 00	 call	 _sprintf
  00543	83 c4 0c	 add	 esp, 12			; 0000000cH

; 347  : 
; 348  : 							#if DEBUG_MODULE
; 349  : 
; 350  : 							debug_log ("BRIEFING: 		text3 (count %d) :- %s", task_briefing_database [task_type].briefing_text3_count, task_briefing_database [task_type].briefing_text3 [task_briefing_database [task_type].briefing_text3_count]);
; 351  : 
; 352  : 							#endif
; 353  : 
; 354  : 							task_briefing_database [task_type].briefing_text3_count ++;

  00546	69 85 6c fd ff
	ff ec 02 00 00	 imul	 eax, DWORD PTR _task_type$6[ebp], 748
  00550	8b 0d 00 00 00
	00		 mov	 ecx, DWORD PTR ?task_briefing_database@@3PAUTASK_BRIEFING_TYPE@@A ; task_briefing_database
  00556	8b 54 01 0c	 mov	 edx, DWORD PTR [ecx+eax+12]
  0055a	83 c2 01	 add	 edx, 1
  0055d	69 85 6c fd ff
	ff ec 02 00 00	 imul	 eax, DWORD PTR _task_type$6[ebp], 748
  00567	8b 0d 00 00 00
	00		 mov	 ecx, DWORD PTR ?task_briefing_database@@3PAUTASK_BRIEFING_TYPE@@A ; task_briefing_database
  0056d	89 54 01 0c	 mov	 DWORD PTR [ecx+eax+12], edx

; 355  : 			
; 356  : 							break;

  00571	eb 11		 jmp	 SHORT $LN8@initialise
$LN31@initialise:

; 357  : 						}
; 358  : 						default:
; 359  : 						{
; 360  : 
; 361  : 							debug_fatal ("BRIEFING: unknown tag %d", result);

  00573	8b 45 fc	 mov	 eax, DWORD PTR _result$[ebp]
  00576	50		 push	 eax
  00577	68 00 00 00 00	 push	 OFFSET ??_C@_0BJ@HMINENEM@BRIEFING?3?5unknown?5tag?5?$CFd@
  0057c	e8 00 00 00 00	 call	 ?debug_fatal@@YAXPBDZZ	; debug_fatal
  00581	83 c4 08	 add	 esp, 8
$LN8@initialise:

; 362  : 						}
; 363  : 					}
; 364  : 
; 365  : 				}

  00584	e9 54 fc ff ff	 jmp	 $LN6@initialise
$LN7@initialise:

; 366  : 
; 367  : 				// read in file_tag_end
; 368  : 				result = get_next_file_tag (file_ptr, application_tag_strings, FILE_TAG_APPLICATION_LAST_TAG);

  00589	68 af 00 00 00	 push	 175			; 000000afH
  0058e	68 00 00 00 00	 push	 OFFSET ?application_tag_strings@@3PAPBDA ; application_tag_strings
  00593	8b 85 74 fd ff
	ff		 mov	 eax, DWORD PTR _file_ptr$[ebp]
  00599	50		 push	 eax
  0059a	e8 00 00 00 00	 call	 ?get_next_file_tag@@YGHPAU_iobuf@@QAPBDH@Z ; get_next_file_tag
  0059f	89 45 fc	 mov	 DWORD PTR _result$[ebp], eax
$LN10@initialise:

; 369  : 
; 370  : 				//
; 371  : 				// Debriefing text
; 372  : 				//
; 373  : 
; 374  : 				while (check_next_file_tag (file_ptr, application_tag_strings, FILE_TAG_APPLICATION_LAST_TAG) != FILE_TAG_END)

  005a2	68 af 00 00 00	 push	 175			; 000000afH
  005a7	68 00 00 00 00	 push	 OFFSET ?application_tag_strings@@3PAPBDA ; application_tag_strings
  005ac	8b 85 74 fd ff
	ff		 mov	 eax, DWORD PTR _file_ptr$[ebp]
  005b2	50		 push	 eax
  005b3	e8 00 00 00 00	 call	 ?check_next_file_tag@@YGHPAU_iobuf@@QAPBDH@Z ; check_next_file_tag
  005b8	83 f8 f6	 cmp	 eax, -10		; fffffff6H
  005bb	0f 84 93 03 00
	00		 je	 $LN11@initialise

; 375  : 				{
; 376  : 
; 377  : 					ASSERT (task_briefing_database [task_type].debriefing_text_success_count < MAX_NUMBER_OF_MISSION_TEXTS);

  005c1	69 85 6c fd ff
	ff ec 02 00 00	 imul	 eax, DWORD PTR _task_type$6[ebp], 748
  005cb	8b 0d 00 00 00
	00		 mov	 ecx, DWORD PTR ?task_briefing_database@@3PAUTASK_BRIEFING_TYPE@@A ; task_briefing_database
  005d1	83 7c 01 10 1e	 cmp	 DWORD PTR [ecx+eax+16], 30 ; 0000001eH
  005d6	7c 1a		 jl	 SHORT $LN32@initialise
  005d8	a1 00 00 00 00	 mov	 eax, DWORD PTR ?__LINE__Var@?0??initialise_briefing_parser@@YGXXZ@4JA
  005dd	05 a7 00 00 00	 add	 eax, 167		; 000000a7H
  005e2	50		 push	 eax
  005e3	68 00 00 00 00	 push	 OFFSET ??_C@_0EC@JLKMNKLD@c?3?2users?2nhv90?2projects?2eech?2ap@
  005e8	68 00 00 00 00	 push	 OFFSET ??_C@_0FP@HCJIGHGK@task_briefing_database?5?$FLtask_ty@
  005ed	e8 00 00 00 00	 call	 ?process_assert@@YGXPBD0H@Z ; process_assert
$LN32@initialise:

; 378  : 					ASSERT (task_briefing_database [task_type].debriefing_text_partial_count < MAX_NUMBER_OF_MISSION_TEXTS);

  005f2	69 85 6c fd ff
	ff ec 02 00 00	 imul	 eax, DWORD PTR _task_type$6[ebp], 748
  005fc	8b 0d 00 00 00
	00		 mov	 ecx, DWORD PTR ?task_briefing_database@@3PAUTASK_BRIEFING_TYPE@@A ; task_briefing_database
  00602	83 7c 01 14 1e	 cmp	 DWORD PTR [ecx+eax+20], 30 ; 0000001eH
  00607	7c 1a		 jl	 SHORT $LN33@initialise
  00609	a1 00 00 00 00	 mov	 eax, DWORD PTR ?__LINE__Var@?0??initialise_briefing_parser@@YGXXZ@4JA
  0060e	05 a8 00 00 00	 add	 eax, 168		; 000000a8H
  00613	50		 push	 eax
  00614	68 00 00 00 00	 push	 OFFSET ??_C@_0EC@JLKMNKLD@c?3?2users?2nhv90?2projects?2eech?2ap@
  00619	68 00 00 00 00	 push	 OFFSET ??_C@_0FP@GMBBCKNI@task_briefing_database?5?$FLtask_ty@
  0061e	e8 00 00 00 00	 call	 ?process_assert@@YGXPBD0H@Z ; process_assert
$LN33@initialise:

; 379  : 					ASSERT (task_briefing_database [task_type].debriefing_text_failure_count < MAX_NUMBER_OF_MISSION_TEXTS);

  00623	69 85 6c fd ff
	ff ec 02 00 00	 imul	 eax, DWORD PTR _task_type$6[ebp], 748
  0062d	8b 0d 00 00 00
	00		 mov	 ecx, DWORD PTR ?task_briefing_database@@3PAUTASK_BRIEFING_TYPE@@A ; task_briefing_database
  00633	83 7c 01 18 1e	 cmp	 DWORD PTR [ecx+eax+24], 30 ; 0000001eH
  00638	7c 1a		 jl	 SHORT $LN34@initialise
  0063a	a1 00 00 00 00	 mov	 eax, DWORD PTR ?__LINE__Var@?0??initialise_briefing_parser@@YGXXZ@4JA
  0063f	05 a9 00 00 00	 add	 eax, 169		; 000000a9H
  00644	50		 push	 eax
  00645	68 00 00 00 00	 push	 OFFSET ??_C@_0EC@JLKMNKLD@c?3?2users?2nhv90?2projects?2eech?2ap@
  0064a	68 00 00 00 00	 push	 OFFSET ??_C@_0FP@IODPDAIO@task_briefing_database?5?$FLtask_ty@
  0064f	e8 00 00 00 00	 call	 ?process_assert@@YGXPBD0H@Z ; process_assert
$LN34@initialise:

; 380  : 
; 381  : 					result = get_next_file_tag (file_ptr, application_tag_strings, FILE_TAG_APPLICATION_LAST_TAG);

  00654	68 af 00 00 00	 push	 175			; 000000afH
  00659	68 00 00 00 00	 push	 OFFSET ?application_tag_strings@@3PAPBDA ; application_tag_strings
  0065e	8b 85 74 fd ff
	ff		 mov	 eax, DWORD PTR _file_ptr$[ebp]
  00664	50		 push	 eax
  00665	e8 00 00 00 00	 call	 ?get_next_file_tag@@YGHPAU_iobuf@@QAPBDH@Z ; get_next_file_tag
  0066a	89 45 fc	 mov	 DWORD PTR _result$[ebp], eax

; 382  : 
; 383  : 					switch (result)

  0066d	8b 45 fc	 mov	 eax, DWORD PTR _result$[ebp]
  00670	89 85 d4 fc ff
	ff		 mov	 DWORD PTR tv342[ebp], eax
  00676	83 bd d4 fc ff
	ff 23		 cmp	 DWORD PTR tv342[ebp], 35 ; 00000023H
  0067d	0f 84 de 01 00
	00		 je	 $LN37@initialise
  00683	83 bd d4 fc ff
	ff 70		 cmp	 DWORD PTR tv342[ebp], 112 ; 00000070H
  0068a	0f 84 f1 00 00
	00		 je	 $LN36@initialise
  00690	81 bd d4 fc ff
	ff 97 00 00 00	 cmp	 DWORD PTR tv342[ebp], 151 ; 00000097H
  0069a	74 05		 je	 SHORT $LN35@initialise
  0069c	e9 9d 02 00 00	 jmp	 $LN38@initialise
$LN35@initialise:

; 384  : 					{
; 385  : 
; 386  : 						case FILE_TAG_SUCCESS:
; 387  : 						{
; 388  : 			
; 389  : 							memset (&temp_buffer, 0, sizeof (temp_buffer));

  006a1	68 00 02 00 00	 push	 512			; 00000200H
  006a6	6a 00		 push	 0
  006a8	8d 85 fc fd ff
	ff		 lea	 eax, DWORD PTR _temp_buffer$[ebp]
  006ae	50		 push	 eax
  006af	e8 00 00 00 00	 call	 _memset
  006b4	83 c4 0c	 add	 esp, 12			; 0000000cH

; 390  : 							get_next_file_paragraph (file_ptr, temp_buffer, sizeof (temp_buffer));

  006b7	68 00 02 00 00	 push	 512			; 00000200H
  006bc	8d 85 fc fd ff
	ff		 lea	 eax, DWORD PTR _temp_buffer$[ebp]
  006c2	50		 push	 eax
  006c3	8b 8d 74 fd ff
	ff		 mov	 ecx, DWORD PTR _file_ptr$[ebp]
  006c9	51		 push	 ecx
  006ca	e8 00 00 00 00	 call	 ?get_next_file_paragraph@@YGHPAU_iobuf@@PADH@Z ; get_next_file_paragraph

; 391  : 							task_briefing_database [task_type].debriefing_text_success [task_briefing_database [task_type].debriefing_text_success_count] = (char *) malloc_heap_mem (sizeof (char) * (strlen (temp_buffer) + 1));

  006cf	8d 85 fc fd ff
	ff		 lea	 eax, DWORD PTR _temp_buffer$[ebp]
  006d5	50		 push	 eax
  006d6	e8 00 00 00 00	 call	 _strlen
  006db	83 c4 04	 add	 esp, 4
  006de	83 c0 01	 add	 eax, 1
  006e1	50		 push	 eax
  006e2	e8 00 00 00 00	 call	 ?malloc_heap_memory@@YGPAXI@Z ; malloc_heap_memory
  006e7	69 8d 6c fd ff
	ff ec 02 00 00	 imul	 ecx, DWORD PTR _task_type$6[ebp], 748
  006f1	03 0d 00 00 00
	00		 add	 ecx, DWORD PTR ?task_briefing_database@@3PAUTASK_BRIEFING_TYPE@@A ; task_briefing_database
  006f7	69 95 6c fd ff
	ff ec 02 00 00	 imul	 edx, DWORD PTR _task_type$6[ebp], 748
  00701	8b 35 00 00 00
	00		 mov	 esi, DWORD PTR ?task_briefing_database@@3PAUTASK_BRIEFING_TYPE@@A ; task_briefing_database
  00707	8b 54 16 10	 mov	 edx, DWORD PTR [esi+edx+16]
  0070b	89 84 91 84 01
	00 00		 mov	 DWORD PTR [ecx+edx*4+388], eax

; 392  : 							sprintf (task_briefing_database [task_type].debriefing_text_success [task_briefing_database [task_type].debriefing_text_success_count], "%s", &temp_buffer);

  00712	8d 85 fc fd ff
	ff		 lea	 eax, DWORD PTR _temp_buffer$[ebp]
  00718	50		 push	 eax
  00719	68 00 00 00 00	 push	 OFFSET ??_C@_02DKCKIIND@?$CFs@
  0071e	69 8d 6c fd ff
	ff ec 02 00 00	 imul	 ecx, DWORD PTR _task_type$6[ebp], 748
  00728	03 0d 00 00 00
	00		 add	 ecx, DWORD PTR ?task_briefing_database@@3PAUTASK_BRIEFING_TYPE@@A ; task_briefing_database
  0072e	69 95 6c fd ff
	ff ec 02 00 00	 imul	 edx, DWORD PTR _task_type$6[ebp], 748
  00738	a1 00 00 00 00	 mov	 eax, DWORD PTR ?task_briefing_database@@3PAUTASK_BRIEFING_TYPE@@A ; task_briefing_database
  0073d	8b 54 10 10	 mov	 edx, DWORD PTR [eax+edx+16]
  00741	8b 84 91 84 01
	00 00		 mov	 eax, DWORD PTR [ecx+edx*4+388]
  00748	50		 push	 eax
  00749	e8 00 00 00 00	 call	 _sprintf
  0074e	83 c4 0c	 add	 esp, 12			; 0000000cH

; 393  : 
; 394  : 							#if DEBUG_MODULE
; 395  : 
; 396  : 							debug_log ("BRIEFING: 		text_success (count %d) :- %s", task_briefing_database [task_type].debriefing_text_success_count, task_briefing_database [task_type].debriefing_text_success [task_briefing_database [task_type].debriefing_text_success_count]);
; 397  : 
; 398  : 							#endif
; 399  : 
; 400  : 							task_briefing_database [task_type].debriefing_text_success_count ++;

  00751	69 85 6c fd ff
	ff ec 02 00 00	 imul	 eax, DWORD PTR _task_type$6[ebp], 748
  0075b	8b 0d 00 00 00
	00		 mov	 ecx, DWORD PTR ?task_briefing_database@@3PAUTASK_BRIEFING_TYPE@@A ; task_briefing_database
  00761	8b 54 01 10	 mov	 edx, DWORD PTR [ecx+eax+16]
  00765	83 c2 01	 add	 edx, 1
  00768	69 85 6c fd ff
	ff ec 02 00 00	 imul	 eax, DWORD PTR _task_type$6[ebp], 748
  00772	8b 0d 00 00 00
	00		 mov	 ecx, DWORD PTR ?task_briefing_database@@3PAUTASK_BRIEFING_TYPE@@A ; task_briefing_database
  00778	89 54 01 10	 mov	 DWORD PTR [ecx+eax+16], edx

; 401  : 			
; 402  : 							break;

  0077c	e9 ce 01 00 00	 jmp	 $LN12@initialise
$LN36@initialise:

; 403  : 						}
; 404  : 
; 405  : 						case FILE_TAG_PARTIAL:
; 406  : 						{
; 407  : 			
; 408  : 							memset (&temp_buffer, 0, sizeof (temp_buffer));

  00781	68 00 02 00 00	 push	 512			; 00000200H
  00786	6a 00		 push	 0
  00788	8d 85 fc fd ff
	ff		 lea	 eax, DWORD PTR _temp_buffer$[ebp]
  0078e	50		 push	 eax
  0078f	e8 00 00 00 00	 call	 _memset
  00794	83 c4 0c	 add	 esp, 12			; 0000000cH

; 409  : 							get_next_file_paragraph (file_ptr, temp_buffer, sizeof (temp_buffer));

  00797	68 00 02 00 00	 push	 512			; 00000200H
  0079c	8d 85 fc fd ff
	ff		 lea	 eax, DWORD PTR _temp_buffer$[ebp]
  007a2	50		 push	 eax
  007a3	8b 8d 74 fd ff
	ff		 mov	 ecx, DWORD PTR _file_ptr$[ebp]
  007a9	51		 push	 ecx
  007aa	e8 00 00 00 00	 call	 ?get_next_file_paragraph@@YGHPAU_iobuf@@PADH@Z ; get_next_file_paragraph

; 410  : 							task_briefing_database [task_type].debriefing_text_partial [task_briefing_database [task_type].debriefing_text_partial_count] = (char *) malloc_heap_mem (sizeof (char) * (strlen (temp_buffer) + 1));

  007af	8d 85 fc fd ff
	ff		 lea	 eax, DWORD PTR _temp_buffer$[ebp]
  007b5	50		 push	 eax
  007b6	e8 00 00 00 00	 call	 _strlen
  007bb	83 c4 04	 add	 esp, 4
  007be	83 c0 01	 add	 eax, 1
  007c1	50		 push	 eax
  007c2	e8 00 00 00 00	 call	 ?malloc_heap_memory@@YGPAXI@Z ; malloc_heap_memory
  007c7	69 8d 6c fd ff
	ff ec 02 00 00	 imul	 ecx, DWORD PTR _task_type$6[ebp], 748
  007d1	03 0d 00 00 00
	00		 add	 ecx, DWORD PTR ?task_briefing_database@@3PAUTASK_BRIEFING_TYPE@@A ; task_briefing_database
  007d7	69 95 6c fd ff
	ff ec 02 00 00	 imul	 edx, DWORD PTR _task_type$6[ebp], 748
  007e1	8b 35 00 00 00
	00		 mov	 esi, DWORD PTR ?task_briefing_database@@3PAUTASK_BRIEFING_TYPE@@A ; task_briefing_database
  007e7	8b 54 16 14	 mov	 edx, DWORD PTR [esi+edx+20]
  007eb	89 84 91 fc 01
	00 00		 mov	 DWORD PTR [ecx+edx*4+508], eax

; 411  : 							sprintf (task_briefing_database [task_type].debriefing_text_partial [task_briefing_database [task_type].debriefing_text_partial_count], "%s", &temp_buffer);

  007f2	8d 85 fc fd ff
	ff		 lea	 eax, DWORD PTR _temp_buffer$[ebp]
  007f8	50		 push	 eax
  007f9	68 00 00 00 00	 push	 OFFSET ??_C@_02DKCKIIND@?$CFs@
  007fe	69 8d 6c fd ff
	ff ec 02 00 00	 imul	 ecx, DWORD PTR _task_type$6[ebp], 748
  00808	03 0d 00 00 00
	00		 add	 ecx, DWORD PTR ?task_briefing_database@@3PAUTASK_BRIEFING_TYPE@@A ; task_briefing_database
  0080e	69 95 6c fd ff
	ff ec 02 00 00	 imul	 edx, DWORD PTR _task_type$6[ebp], 748
  00818	a1 00 00 00 00	 mov	 eax, DWORD PTR ?task_briefing_database@@3PAUTASK_BRIEFING_TYPE@@A ; task_briefing_database
  0081d	8b 54 10 14	 mov	 edx, DWORD PTR [eax+edx+20]
  00821	8b 84 91 fc 01
	00 00		 mov	 eax, DWORD PTR [ecx+edx*4+508]
  00828	50		 push	 eax
  00829	e8 00 00 00 00	 call	 _sprintf
  0082e	83 c4 0c	 add	 esp, 12			; 0000000cH

; 412  : 
; 413  : 							#if DEBUG_MODULE
; 414  : 
; 415  : 							debug_log ("BRIEFING: 		text_partial (count %d) :- %s", task_briefing_database [task_type].debriefing_text_partial_count, task_briefing_database [task_type].debriefing_text_partial [task_briefing_database [task_type].debriefing_text_partial_count]);
; 416  : 
; 417  : 							#endif
; 418  : 
; 419  : 							task_briefing_database [task_type].debriefing_text_partial_count ++;

  00831	69 85 6c fd ff
	ff ec 02 00 00	 imul	 eax, DWORD PTR _task_type$6[ebp], 748
  0083b	8b 0d 00 00 00
	00		 mov	 ecx, DWORD PTR ?task_briefing_database@@3PAUTASK_BRIEFING_TYPE@@A ; task_briefing_database
  00841	8b 54 01 14	 mov	 edx, DWORD PTR [ecx+eax+20]
  00845	83 c2 01	 add	 edx, 1
  00848	69 85 6c fd ff
	ff ec 02 00 00	 imul	 eax, DWORD PTR _task_type$6[ebp], 748
  00852	8b 0d 00 00 00
	00		 mov	 ecx, DWORD PTR ?task_briefing_database@@3PAUTASK_BRIEFING_TYPE@@A ; task_briefing_database
  00858	89 54 01 14	 mov	 DWORD PTR [ecx+eax+20], edx

; 420  : 			
; 421  : 							break;

  0085c	e9 ee 00 00 00	 jmp	 $LN12@initialise
$LN37@initialise:

; 422  : 						}
; 423  : 
; 424  : 						case FILE_TAG_FAILURE:
; 425  : 						{
; 426  : 			
; 427  : 							memset (&temp_buffer, 0, sizeof (temp_buffer));

  00861	68 00 02 00 00	 push	 512			; 00000200H
  00866	6a 00		 push	 0
  00868	8d 85 fc fd ff
	ff		 lea	 eax, DWORD PTR _temp_buffer$[ebp]
  0086e	50		 push	 eax
  0086f	e8 00 00 00 00	 call	 _memset
  00874	83 c4 0c	 add	 esp, 12			; 0000000cH

; 428  : 							get_next_file_paragraph (file_ptr, temp_buffer, sizeof (temp_buffer));

  00877	68 00 02 00 00	 push	 512			; 00000200H
  0087c	8d 85 fc fd ff
	ff		 lea	 eax, DWORD PTR _temp_buffer$[ebp]
  00882	50		 push	 eax
  00883	8b 8d 74 fd ff
	ff		 mov	 ecx, DWORD PTR _file_ptr$[ebp]
  00889	51		 push	 ecx
  0088a	e8 00 00 00 00	 call	 ?get_next_file_paragraph@@YGHPAU_iobuf@@PADH@Z ; get_next_file_paragraph

; 429  : 							task_briefing_database [task_type].debriefing_text_failure [task_briefing_database [task_type].debriefing_text_failure_count] = (char *) malloc_heap_mem (sizeof (char) * (strlen (temp_buffer) + 1));

  0088f	8d 85 fc fd ff
	ff		 lea	 eax, DWORD PTR _temp_buffer$[ebp]
  00895	50		 push	 eax
  00896	e8 00 00 00 00	 call	 _strlen
  0089b	83 c4 04	 add	 esp, 4
  0089e	83 c0 01	 add	 eax, 1
  008a1	50		 push	 eax
  008a2	e8 00 00 00 00	 call	 ?malloc_heap_memory@@YGPAXI@Z ; malloc_heap_memory
  008a7	69 8d 6c fd ff
	ff ec 02 00 00	 imul	 ecx, DWORD PTR _task_type$6[ebp], 748
  008b1	03 0d 00 00 00
	00		 add	 ecx, DWORD PTR ?task_briefing_database@@3PAUTASK_BRIEFING_TYPE@@A ; task_briefing_database
  008b7	69 95 6c fd ff
	ff ec 02 00 00	 imul	 edx, DWORD PTR _task_type$6[ebp], 748
  008c1	8b 35 00 00 00
	00		 mov	 esi, DWORD PTR ?task_briefing_database@@3PAUTASK_BRIEFING_TYPE@@A ; task_briefing_database
  008c7	8b 54 16 18	 mov	 edx, DWORD PTR [esi+edx+24]
  008cb	89 84 91 74 02
	00 00		 mov	 DWORD PTR [ecx+edx*4+628], eax

; 430  : 							sprintf (task_briefing_database [task_type].debriefing_text_failure [task_briefing_database [task_type].debriefing_text_failure_count], "%s", &temp_buffer);

  008d2	8d 85 fc fd ff
	ff		 lea	 eax, DWORD PTR _temp_buffer$[ebp]
  008d8	50		 push	 eax
  008d9	68 00 00 00 00	 push	 OFFSET ??_C@_02DKCKIIND@?$CFs@
  008de	69 8d 6c fd ff
	ff ec 02 00 00	 imul	 ecx, DWORD PTR _task_type$6[ebp], 748
  008e8	03 0d 00 00 00
	00		 add	 ecx, DWORD PTR ?task_briefing_database@@3PAUTASK_BRIEFING_TYPE@@A ; task_briefing_database
  008ee	69 95 6c fd ff
	ff ec 02 00 00	 imul	 edx, DWORD PTR _task_type$6[ebp], 748
  008f8	a1 00 00 00 00	 mov	 eax, DWORD PTR ?task_briefing_database@@3PAUTASK_BRIEFING_TYPE@@A ; task_briefing_database
  008fd	8b 54 10 18	 mov	 edx, DWORD PTR [eax+edx+24]
  00901	8b 84 91 74 02
	00 00		 mov	 eax, DWORD PTR [ecx+edx*4+628]
  00908	50		 push	 eax
  00909	e8 00 00 00 00	 call	 _sprintf
  0090e	83 c4 0c	 add	 esp, 12			; 0000000cH

; 431  : 
; 432  : 							#if DEBUG_MODULE
; 433  : 
; 434  : 							debug_log ("BRIEFING: 		text_failure (count %d) :- %s", task_briefing_database [task_type].debriefing_text_failure_count, task_briefing_database [task_type].debriefing_text_failure [task_briefing_database [task_type].debriefing_text_failure_count]);
; 435  : 
; 436  : 							#endif
; 437  : 
; 438  : 							task_briefing_database [task_type].debriefing_text_failure_count ++;

  00911	69 85 6c fd ff
	ff ec 02 00 00	 imul	 eax, DWORD PTR _task_type$6[ebp], 748
  0091b	8b 0d 00 00 00
	00		 mov	 ecx, DWORD PTR ?task_briefing_database@@3PAUTASK_BRIEFING_TYPE@@A ; task_briefing_database
  00921	8b 54 01 18	 mov	 edx, DWORD PTR [ecx+eax+24]
  00925	83 c2 01	 add	 edx, 1
  00928	69 85 6c fd ff
	ff ec 02 00 00	 imul	 eax, DWORD PTR _task_type$6[ebp], 748
  00932	8b 0d 00 00 00
	00		 mov	 ecx, DWORD PTR ?task_briefing_database@@3PAUTASK_BRIEFING_TYPE@@A ; task_briefing_database
  00938	89 54 01 18	 mov	 DWORD PTR [ecx+eax+24], edx

; 439  : 			
; 440  : 							break;

  0093c	eb 11		 jmp	 SHORT $LN12@initialise
$LN38@initialise:

; 441  : 						}
; 442  : 						default:
; 443  : 						{
; 444  : 
; 445  : 							debug_fatal ("BRIEFING: unknown tag %d", result);

  0093e	8b 45 fc	 mov	 eax, DWORD PTR _result$[ebp]
  00941	50		 push	 eax
  00942	68 00 00 00 00	 push	 OFFSET ??_C@_0BJ@HMINENEM@BRIEFING?3?5unknown?5tag?5?$CFd@
  00947	e8 00 00 00 00	 call	 ?debug_fatal@@YAXPBDZZ	; debug_fatal
  0094c	83 c4 08	 add	 esp, 8
$LN12@initialise:

; 446  : 						}
; 447  : 					}
; 448  : 
; 449  : 				}

  0094f	e9 4e fc ff ff	 jmp	 $LN10@initialise
$LN11@initialise:

; 450  : 
; 451  : 				// read in file_tag_end
; 452  : 				result = get_next_file_tag (file_ptr, application_tag_strings, FILE_TAG_APPLICATION_LAST_TAG);

  00954	68 af 00 00 00	 push	 175			; 000000afH
  00959	68 00 00 00 00	 push	 OFFSET ?application_tag_strings@@3PAPBDA ; application_tag_strings
  0095e	8b 85 74 fd ff
	ff		 mov	 eax, DWORD PTR _file_ptr$[ebp]
  00964	50		 push	 eax
  00965	e8 00 00 00 00	 call	 ?get_next_file_tag@@YGHPAU_iobuf@@QAPBDH@Z ; get_next_file_tag
  0096a	89 45 fc	 mov	 DWORD PTR _result$[ebp], eax

; 453  : 
; 454  : 				break;

  0096d	e9 65 05 00 00	 jmp	 $LN4@initialise
$LN39@initialise:

; 455  : 			}
; 456  : 
; 457  : 			case FILE_TAG_MEDAL:
; 458  : 			{
; 459  : 
; 460  : 				medal_types
; 461  : 					medal_type;
; 462  : 
; 463  : 				int
; 464  : 					current_medal_list;
; 465  : 
; 466  : 				extra_briefing_type
; 467  : 					*new_medal_briefing;
; 468  : 
; 469  : 				// create new medal type
; 470  : 
; 471  : 				new_medal_briefing = (extra_briefing_type *) malloc_heap_mem (sizeof (extra_briefing_type));

  00972	68 88 00 00 00	 push	 136			; 00000088H
  00977	e8 00 00 00 00	 call	 ?malloc_heap_memory@@YGPAXI@Z ; malloc_heap_memory
  0097c	89 85 60 fd ff
	ff		 mov	 DWORD PTR _new_medal_briefing$3[ebp], eax

; 472  : 
; 473  : 				memset (new_medal_briefing, 0, sizeof (extra_briefing_type));

  00982	68 88 00 00 00	 push	 136			; 00000088H
  00987	6a 00		 push	 0
  00989	8b 85 60 fd ff
	ff		 mov	 eax, DWORD PTR _new_medal_briefing$3[ebp]
  0098f	50		 push	 eax
  00990	e8 00 00 00 00	 call	 _memset
  00995	83 c4 0c	 add	 esp, 12			; 0000000cH

; 474  : 
; 475  : 				// get all medals these texts apply to
; 476  : 
; 477  : 				current_medal_list = 0;

  00998	c7 85 64 fd ff
	ff 00 00 00 00	 mov	 DWORD PTR _current_medal_list$4[ebp], 0
$LN14@initialise:

; 478  : 
; 479  : 				while (check_next_file_tag (file_ptr, application_tag_strings, FILE_TAG_APPLICATION_LAST_TAG) == FILE_TAG_TYPE)

  009a2	68 af 00 00 00	 push	 175			; 000000afH
  009a7	68 00 00 00 00	 push	 OFFSET ?application_tag_strings@@3PAPBDA ; application_tag_strings
  009ac	8b 85 74 fd ff
	ff		 mov	 eax, DWORD PTR _file_ptr$[ebp]
  009b2	50		 push	 eax
  009b3	e8 00 00 00 00	 call	 ?check_next_file_tag@@YGHPAU_iobuf@@QAPBDH@Z ; check_next_file_tag
  009b8	83 f8 e6	 cmp	 eax, -26		; ffffffe6H
  009bb	75 70		 jne	 SHORT $LN15@initialise

; 480  : 				{
; 481  : 
; 482  : 					result = get_next_file_tag (file_ptr, application_tag_strings, FILE_TAG_APPLICATION_LAST_TAG);

  009bd	68 af 00 00 00	 push	 175			; 000000afH
  009c2	68 00 00 00 00	 push	 OFFSET ?application_tag_strings@@3PAPBDA ; application_tag_strings
  009c7	8b 85 74 fd ff
	ff		 mov	 eax, DWORD PTR _file_ptr$[ebp]
  009cd	50		 push	 eax
  009ce	e8 00 00 00 00	 call	 ?get_next_file_tag@@YGHPAU_iobuf@@QAPBDH@Z ; get_next_file_tag
  009d3	89 45 fc	 mov	 DWORD PTR _result$[ebp], eax

; 483  : 					ASSERT (result == FILE_TAG_TYPE);

  009d6	83 7d fc e6	 cmp	 DWORD PTR _result$[ebp], -26 ; ffffffe6H
  009da	74 1a		 je	 SHORT $LN40@initialise
  009dc	a1 00 00 00 00	 mov	 eax, DWORD PTR ?__LINE__Var@?0??initialise_briefing_parser@@YGXXZ@4JA
  009e1	05 11 01 00 00	 add	 eax, 273		; 00000111H
  009e6	50		 push	 eax
  009e7	68 00 00 00 00	 push	 OFFSET ??_C@_0EC@JLKMNKLD@c?3?2users?2nhv90?2projects?2eech?2ap@
  009ec	68 00 00 00 00	 push	 OFFSET ??_C@_0BI@NHAOLFJJ@result?5?$DN?$DN?5FILE_TAG_TYPE@
  009f1	e8 00 00 00 00	 call	 ?process_assert@@YGXPBD0H@Z ; process_assert
$LN40@initialise:

; 484  : 	
; 485  : 					medal_type = (medal_types)get_next_file_enum (file_ptr, medal_type_names, NUM_MEDAL_TYPES);

  009f6	6a 0d		 push	 13			; 0000000dH
  009f8	68 00 00 00 00	 push	 OFFSET ?medal_type_names@@3PAPBDA ; medal_type_names
  009fd	8b 85 74 fd ff
	ff		 mov	 eax, DWORD PTR _file_ptr$[ebp]
  00a03	50		 push	 eax
  00a04	e8 00 00 00 00	 call	 ?get_next_file_enum@@YGHPAU_iobuf@@QAPBDH@Z ; get_next_file_enum
  00a09	89 85 68 fd ff
	ff		 mov	 DWORD PTR _medal_type$5[ebp], eax

; 486  : 	
; 487  : 					current_medal_list |= (1 << medal_type);

  00a0f	b8 01 00 00 00	 mov	 eax, 1
  00a14	8b 8d 68 fd ff
	ff		 mov	 ecx, DWORD PTR _medal_type$5[ebp]
  00a1a	d3 e0		 shl	 eax, cl
  00a1c	0b 85 64 fd ff
	ff		 or	 eax, DWORD PTR _current_medal_list$4[ebp]
  00a22	89 85 64 fd ff
	ff		 mov	 DWORD PTR _current_medal_list$4[ebp], eax

; 488  : 				}

  00a28	e9 75 ff ff ff	 jmp	 $LN14@initialise
$LN15@initialise:

; 489  : 
; 490  : 				new_medal_briefing->type = EXTRA_BRIEFING_MEDAL;

  00a2d	8b 85 60 fd ff
	ff		 mov	 eax, DWORD PTR _new_medal_briefing$3[ebp]
  00a33	c7 00 00 00 00
	00		 mov	 DWORD PTR [eax], 0

; 491  : 
; 492  : 				new_medal_briefing->sub_type = current_medal_list;

  00a39	8b 85 60 fd ff
	ff		 mov	 eax, DWORD PTR _new_medal_briefing$3[ebp]
  00a3f	8b 8d 64 fd ff
	ff		 mov	 ecx, DWORD PTR _current_medal_list$4[ebp]
  00a45	89 48 04	 mov	 DWORD PTR [eax+4], ecx

; 493  : 
; 494  : 				// read in N medal texts
; 495  : 
; 496  : 				new_medal_briefing->text_count = 0;

  00a48	8b 85 60 fd ff
	ff		 mov	 eax, DWORD PTR _new_medal_briefing$3[ebp]
  00a4e	c7 40 08 00 00
	00 00		 mov	 DWORD PTR [eax+8], 0
$LN16@initialise:

; 497  : 
; 498  : 				while (check_next_file_tag (file_ptr, application_tag_strings, FILE_TAG_APPLICATION_LAST_TAG) != FILE_TAG_END)

  00a55	68 af 00 00 00	 push	 175			; 000000afH
  00a5a	68 00 00 00 00	 push	 OFFSET ?application_tag_strings@@3PAPBDA ; application_tag_strings
  00a5f	8b 85 74 fd ff
	ff		 mov	 eax, DWORD PTR _file_ptr$[ebp]
  00a65	50		 push	 eax
  00a66	e8 00 00 00 00	 call	 ?check_next_file_tag@@YGHPAU_iobuf@@QAPBDH@Z ; check_next_file_tag
  00a6b	83 f8 f6	 cmp	 eax, -10		; fffffff6H
  00a6e	0f 84 d7 00 00
	00		 je	 $LN17@initialise

; 499  : 				{
; 500  : 
; 501  : 					result = get_next_file_tag (file_ptr, application_tag_strings, FILE_TAG_APPLICATION_LAST_TAG);

  00a74	68 af 00 00 00	 push	 175			; 000000afH
  00a79	68 00 00 00 00	 push	 OFFSET ?application_tag_strings@@3PAPBDA ; application_tag_strings
  00a7e	8b 85 74 fd ff
	ff		 mov	 eax, DWORD PTR _file_ptr$[ebp]
  00a84	50		 push	 eax
  00a85	e8 00 00 00 00	 call	 ?get_next_file_tag@@YGHPAU_iobuf@@QAPBDH@Z ; get_next_file_tag
  00a8a	89 45 fc	 mov	 DWORD PTR _result$[ebp], eax

; 502  : 					ASSERT (result == FILE_TAG_TEXT1);

  00a8d	81 7d fc 9b 00
	00 00		 cmp	 DWORD PTR _result$[ebp], 155 ; 0000009bH
  00a94	74 1a		 je	 SHORT $LN41@initialise
  00a96	a1 00 00 00 00	 mov	 eax, DWORD PTR ?__LINE__Var@?0??initialise_briefing_parser@@YGXXZ@4JA
  00a9b	05 24 01 00 00	 add	 eax, 292		; 00000124H
  00aa0	50		 push	 eax
  00aa1	68 00 00 00 00	 push	 OFFSET ??_C@_0EC@JLKMNKLD@c?3?2users?2nhv90?2projects?2eech?2ap@
  00aa6	68 00 00 00 00	 push	 OFFSET ??_C@_0BJ@DCBJLJMM@result?5?$DN?$DN?5FILE_TAG_TEXT1@
  00aab	e8 00 00 00 00	 call	 ?process_assert@@YGXPBD0H@Z ; process_assert
$LN41@initialise:

; 503  : 			
; 504  : 					memset (&temp_buffer, 0, sizeof (temp_buffer));

  00ab0	68 00 02 00 00	 push	 512			; 00000200H
  00ab5	6a 00		 push	 0
  00ab7	8d 85 fc fd ff
	ff		 lea	 eax, DWORD PTR _temp_buffer$[ebp]
  00abd	50		 push	 eax
  00abe	e8 00 00 00 00	 call	 _memset
  00ac3	83 c4 0c	 add	 esp, 12			; 0000000cH

; 505  : 					get_next_file_paragraph (file_ptr, temp_buffer, sizeof (temp_buffer));

  00ac6	68 00 02 00 00	 push	 512			; 00000200H
  00acb	8d 85 fc fd ff
	ff		 lea	 eax, DWORD PTR _temp_buffer$[ebp]
  00ad1	50		 push	 eax
  00ad2	8b 8d 74 fd ff
	ff		 mov	 ecx, DWORD PTR _file_ptr$[ebp]
  00ad8	51		 push	 ecx
  00ad9	e8 00 00 00 00	 call	 ?get_next_file_paragraph@@YGHPAU_iobuf@@PADH@Z ; get_next_file_paragraph

; 506  : 
; 507  : 					new_medal_briefing->briefing_text [new_medal_briefing->text_count] = (char *) malloc_heap_mem (sizeof (char) * (strlen (temp_buffer) + 1));

  00ade	8d 85 fc fd ff
	ff		 lea	 eax, DWORD PTR _temp_buffer$[ebp]
  00ae4	50		 push	 eax
  00ae5	e8 00 00 00 00	 call	 _strlen
  00aea	83 c4 04	 add	 esp, 4
  00aed	83 c0 01	 add	 eax, 1
  00af0	50		 push	 eax
  00af1	e8 00 00 00 00	 call	 ?malloc_heap_memory@@YGPAXI@Z ; malloc_heap_memory
  00af6	8b 8d 60 fd ff
	ff		 mov	 ecx, DWORD PTR _new_medal_briefing$3[ebp]
  00afc	8b 51 08	 mov	 edx, DWORD PTR [ecx+8]
  00aff	8b 8d 60 fd ff
	ff		 mov	 ecx, DWORD PTR _new_medal_briefing$3[ebp]
  00b05	89 44 91 0c	 mov	 DWORD PTR [ecx+edx*4+12], eax

; 508  : 					sprintf (new_medal_briefing->briefing_text [new_medal_briefing->text_count], "%s", &temp_buffer);

  00b09	8d 85 fc fd ff
	ff		 lea	 eax, DWORD PTR _temp_buffer$[ebp]
  00b0f	50		 push	 eax
  00b10	68 00 00 00 00	 push	 OFFSET ??_C@_02DKCKIIND@?$CFs@
  00b15	8b 8d 60 fd ff
	ff		 mov	 ecx, DWORD PTR _new_medal_briefing$3[ebp]
  00b1b	8b 51 08	 mov	 edx, DWORD PTR [ecx+8]
  00b1e	8b 85 60 fd ff
	ff		 mov	 eax, DWORD PTR _new_medal_briefing$3[ebp]
  00b24	8b 4c 90 0c	 mov	 ecx, DWORD PTR [eax+edx*4+12]
  00b28	51		 push	 ecx
  00b29	e8 00 00 00 00	 call	 _sprintf
  00b2e	83 c4 0c	 add	 esp, 12			; 0000000cH

; 509  : 
; 510  : 					new_medal_briefing->text_count ++;

  00b31	8b 85 60 fd ff
	ff		 mov	 eax, DWORD PTR _new_medal_briefing$3[ebp]
  00b37	8b 48 08	 mov	 ecx, DWORD PTR [eax+8]
  00b3a	83 c1 01	 add	 ecx, 1
  00b3d	8b 95 60 fd ff
	ff		 mov	 edx, DWORD PTR _new_medal_briefing$3[ebp]
  00b43	89 4a 08	 mov	 DWORD PTR [edx+8], ecx

; 511  : 				}

  00b46	e9 0a ff ff ff	 jmp	 $LN16@initialise
$LN17@initialise:

; 512  : 
; 513  : 				// read in file_tag_end
; 514  : 				result = get_next_file_tag (file_ptr, application_tag_strings, FILE_TAG_APPLICATION_LAST_TAG);

  00b4b	68 af 00 00 00	 push	 175			; 000000afH
  00b50	68 00 00 00 00	 push	 OFFSET ?application_tag_strings@@3PAPBDA ; application_tag_strings
  00b55	8b 85 74 fd ff
	ff		 mov	 eax, DWORD PTR _file_ptr$[ebp]
  00b5b	50		 push	 eax
  00b5c	e8 00 00 00 00	 call	 ?get_next_file_tag@@YGHPAU_iobuf@@QAPBDH@Z ; get_next_file_tag
  00b61	89 45 fc	 mov	 DWORD PTR _result$[ebp], eax

; 515  : 
; 516  : 				new_medal_briefing->next = extra_briefing_database;

  00b64	8b 85 60 fd ff
	ff		 mov	 eax, DWORD PTR _new_medal_briefing$3[ebp]
  00b6a	8b 0d 00 00 00
	00		 mov	 ecx, DWORD PTR ?extra_briefing_database@@3PAUEXTRA_BRIEFING_TYPE@@A ; extra_briefing_database
  00b70	89 88 84 00 00
	00		 mov	 DWORD PTR [eax+132], ecx

; 517  : 
; 518  : 				extra_briefing_database = new_medal_briefing;

  00b76	8b 85 60 fd ff
	ff		 mov	 eax, DWORD PTR _new_medal_briefing$3[ebp]
  00b7c	a3 00 00 00 00	 mov	 DWORD PTR ?extra_briefing_database@@3PAUEXTRA_BRIEFING_TYPE@@A, eax ; extra_briefing_database

; 519  : 
; 520  : 				break;

  00b81	e9 51 03 00 00	 jmp	 $LN4@initialise
$LN42@initialise:

; 521  : 			}
; 522  : 
; 523  : 			case FILE_TAG_PROMOTION:
; 524  : 			{
; 525  : 
; 526  : 				extra_briefing_type
; 527  : 					*new_promotion_briefing;
; 528  : 
; 529  : 				// create new promotion type
; 530  : 
; 531  : 				new_promotion_briefing = (extra_briefing_type *) malloc_heap_mem (sizeof (extra_briefing_type));

  00b86	68 88 00 00 00	 push	 136			; 00000088H
  00b8b	e8 00 00 00 00	 call	 ?malloc_heap_memory@@YGPAXI@Z ; malloc_heap_memory
  00b90	89 85 5c fd ff
	ff		 mov	 DWORD PTR _new_promotion_briefing$2[ebp], eax

; 532  : 
; 533  : 				memset (new_promotion_briefing, 0, sizeof (extra_briefing_type));

  00b96	68 88 00 00 00	 push	 136			; 00000088H
  00b9b	6a 00		 push	 0
  00b9d	8b 85 5c fd ff
	ff		 mov	 eax, DWORD PTR _new_promotion_briefing$2[ebp]
  00ba3	50		 push	 eax
  00ba4	e8 00 00 00 00	 call	 _memset
  00ba9	83 c4 0c	 add	 esp, 12			; 0000000cH

; 534  : 
; 535  : 				new_promotion_briefing->type = EXTRA_BRIEFING_PROMOTION;

  00bac	8b 85 5c fd ff
	ff		 mov	 eax, DWORD PTR _new_promotion_briefing$2[ebp]
  00bb2	c7 00 01 00 00
	00		 mov	 DWORD PTR [eax], 1

; 536  : 
; 537  : 				new_promotion_briefing->sub_type = 0;

  00bb8	8b 85 5c fd ff
	ff		 mov	 eax, DWORD PTR _new_promotion_briefing$2[ebp]
  00bbe	c7 40 04 00 00
	00 00		 mov	 DWORD PTR [eax+4], 0

; 538  : 
; 539  : 				// read in N promotion texts
; 540  : 
; 541  : 				new_promotion_briefing->text_count = 0;

  00bc5	8b 85 5c fd ff
	ff		 mov	 eax, DWORD PTR _new_promotion_briefing$2[ebp]
  00bcb	c7 40 08 00 00
	00 00		 mov	 DWORD PTR [eax+8], 0
$LN18@initialise:

; 542  : 
; 543  : 				while (check_next_file_tag (file_ptr, application_tag_strings, FILE_TAG_APPLICATION_LAST_TAG) != FILE_TAG_END)

  00bd2	68 af 00 00 00	 push	 175			; 000000afH
  00bd7	68 00 00 00 00	 push	 OFFSET ?application_tag_strings@@3PAPBDA ; application_tag_strings
  00bdc	8b 85 74 fd ff
	ff		 mov	 eax, DWORD PTR _file_ptr$[ebp]
  00be2	50		 push	 eax
  00be3	e8 00 00 00 00	 call	 ?check_next_file_tag@@YGHPAU_iobuf@@QAPBDH@Z ; check_next_file_tag
  00be8	83 f8 f6	 cmp	 eax, -10		; fffffff6H
  00beb	0f 84 d7 00 00
	00		 je	 $LN19@initialise

; 544  : 				{
; 545  : 
; 546  : 					result = get_next_file_tag (file_ptr, application_tag_strings, FILE_TAG_APPLICATION_LAST_TAG);

  00bf1	68 af 00 00 00	 push	 175			; 000000afH
  00bf6	68 00 00 00 00	 push	 OFFSET ?application_tag_strings@@3PAPBDA ; application_tag_strings
  00bfb	8b 85 74 fd ff
	ff		 mov	 eax, DWORD PTR _file_ptr$[ebp]
  00c01	50		 push	 eax
  00c02	e8 00 00 00 00	 call	 ?get_next_file_tag@@YGHPAU_iobuf@@QAPBDH@Z ; get_next_file_tag
  00c07	89 45 fc	 mov	 DWORD PTR _result$[ebp], eax

; 547  : 					ASSERT (result == FILE_TAG_TEXT1);

  00c0a	81 7d fc 9b 00
	00 00		 cmp	 DWORD PTR _result$[ebp], 155 ; 0000009bH
  00c11	74 1a		 je	 SHORT $LN43@initialise
  00c13	a1 00 00 00 00	 mov	 eax, DWORD PTR ?__LINE__Var@?0??initialise_briefing_parser@@YGXXZ@4JA
  00c18	05 51 01 00 00	 add	 eax, 337		; 00000151H
  00c1d	50		 push	 eax
  00c1e	68 00 00 00 00	 push	 OFFSET ??_C@_0EC@JLKMNKLD@c?3?2users?2nhv90?2projects?2eech?2ap@
  00c23	68 00 00 00 00	 push	 OFFSET ??_C@_0BJ@DCBJLJMM@result?5?$DN?$DN?5FILE_TAG_TEXT1@
  00c28	e8 00 00 00 00	 call	 ?process_assert@@YGXPBD0H@Z ; process_assert
$LN43@initialise:

; 548  : 			
; 549  : 					memset (&temp_buffer, 0, sizeof (temp_buffer));

  00c2d	68 00 02 00 00	 push	 512			; 00000200H
  00c32	6a 00		 push	 0
  00c34	8d 85 fc fd ff
	ff		 lea	 eax, DWORD PTR _temp_buffer$[ebp]
  00c3a	50		 push	 eax
  00c3b	e8 00 00 00 00	 call	 _memset
  00c40	83 c4 0c	 add	 esp, 12			; 0000000cH

; 550  : 					get_next_file_paragraph (file_ptr, temp_buffer, sizeof (temp_buffer));

  00c43	68 00 02 00 00	 push	 512			; 00000200H
  00c48	8d 85 fc fd ff
	ff		 lea	 eax, DWORD PTR _temp_buffer$[ebp]
  00c4e	50		 push	 eax
  00c4f	8b 8d 74 fd ff
	ff		 mov	 ecx, DWORD PTR _file_ptr$[ebp]
  00c55	51		 push	 ecx
  00c56	e8 00 00 00 00	 call	 ?get_next_file_paragraph@@YGHPAU_iobuf@@PADH@Z ; get_next_file_paragraph

; 551  : 
; 552  : 					new_promotion_briefing->briefing_text [new_promotion_briefing->text_count] = (char *) malloc_heap_mem (sizeof (char) * (strlen (temp_buffer) + 1));

  00c5b	8d 85 fc fd ff
	ff		 lea	 eax, DWORD PTR _temp_buffer$[ebp]
  00c61	50		 push	 eax
  00c62	e8 00 00 00 00	 call	 _strlen
  00c67	83 c4 04	 add	 esp, 4
  00c6a	83 c0 01	 add	 eax, 1
  00c6d	50		 push	 eax
  00c6e	e8 00 00 00 00	 call	 ?malloc_heap_memory@@YGPAXI@Z ; malloc_heap_memory
  00c73	8b 8d 5c fd ff
	ff		 mov	 ecx, DWORD PTR _new_promotion_briefing$2[ebp]
  00c79	8b 51 08	 mov	 edx, DWORD PTR [ecx+8]
  00c7c	8b 8d 5c fd ff
	ff		 mov	 ecx, DWORD PTR _new_promotion_briefing$2[ebp]
  00c82	89 44 91 0c	 mov	 DWORD PTR [ecx+edx*4+12], eax

; 553  : 					sprintf (new_promotion_briefing->briefing_text [new_promotion_briefing->text_count], "%s", &temp_buffer);

  00c86	8d 85 fc fd ff
	ff		 lea	 eax, DWORD PTR _temp_buffer$[ebp]
  00c8c	50		 push	 eax
  00c8d	68 00 00 00 00	 push	 OFFSET ??_C@_02DKCKIIND@?$CFs@
  00c92	8b 8d 5c fd ff
	ff		 mov	 ecx, DWORD PTR _new_promotion_briefing$2[ebp]
  00c98	8b 51 08	 mov	 edx, DWORD PTR [ecx+8]
  00c9b	8b 85 5c fd ff
	ff		 mov	 eax, DWORD PTR _new_promotion_briefing$2[ebp]
  00ca1	8b 4c 90 0c	 mov	 ecx, DWORD PTR [eax+edx*4+12]
  00ca5	51		 push	 ecx
  00ca6	e8 00 00 00 00	 call	 _sprintf
  00cab	83 c4 0c	 add	 esp, 12			; 0000000cH

; 554  : 
; 555  : 					new_promotion_briefing->text_count ++;

  00cae	8b 85 5c fd ff
	ff		 mov	 eax, DWORD PTR _new_promotion_briefing$2[ebp]
  00cb4	8b 48 08	 mov	 ecx, DWORD PTR [eax+8]
  00cb7	83 c1 01	 add	 ecx, 1
  00cba	8b 95 5c fd ff
	ff		 mov	 edx, DWORD PTR _new_promotion_briefing$2[ebp]
  00cc0	89 4a 08	 mov	 DWORD PTR [edx+8], ecx

; 556  : 				}

  00cc3	e9 0a ff ff ff	 jmp	 $LN18@initialise
$LN19@initialise:

; 557  : 
; 558  : 				// read in file_tag_end
; 559  : 				result = get_next_file_tag (file_ptr, application_tag_strings, FILE_TAG_APPLICATION_LAST_TAG);

  00cc8	68 af 00 00 00	 push	 175			; 000000afH
  00ccd	68 00 00 00 00	 push	 OFFSET ?application_tag_strings@@3PAPBDA ; application_tag_strings
  00cd2	8b 85 74 fd ff
	ff		 mov	 eax, DWORD PTR _file_ptr$[ebp]
  00cd8	50		 push	 eax
  00cd9	e8 00 00 00 00	 call	 ?get_next_file_tag@@YGHPAU_iobuf@@QAPBDH@Z ; get_next_file_tag
  00cde	89 45 fc	 mov	 DWORD PTR _result$[ebp], eax

; 560  : 
; 561  : 				new_promotion_briefing->next = extra_briefing_database;

  00ce1	8b 85 5c fd ff
	ff		 mov	 eax, DWORD PTR _new_promotion_briefing$2[ebp]
  00ce7	8b 0d 00 00 00
	00		 mov	 ecx, DWORD PTR ?extra_briefing_database@@3PAUEXTRA_BRIEFING_TYPE@@A ; extra_briefing_database
  00ced	89 88 84 00 00
	00		 mov	 DWORD PTR [eax+132], ecx

; 562  : 
; 563  : 				extra_briefing_database = new_promotion_briefing;

  00cf3	8b 85 5c fd ff
	ff		 mov	 eax, DWORD PTR _new_promotion_briefing$2[ebp]
  00cf9	a3 00 00 00 00	 mov	 DWORD PTR ?extra_briefing_database@@3PAUEXTRA_BRIEFING_TYPE@@A, eax ; extra_briefing_database

; 564  : 
; 565  : 				break;

  00cfe	e9 d4 01 00 00	 jmp	 $LN4@initialise
$LN44@initialise:

; 566  : 			}
; 567  : 
; 568  : 			case FILE_TAG_OBJECTIVES:
; 569  : 			{
; 570  : 
; 571  : 				extra_briefing_type
; 572  : 					*new_objective_briefing;
; 573  : 
; 574  : 				// create new objective type
; 575  : 
; 576  : 				new_objective_briefing = (extra_briefing_type *) malloc_heap_mem (sizeof (extra_briefing_type));

  00d03	68 88 00 00 00	 push	 136			; 00000088H
  00d08	e8 00 00 00 00	 call	 ?malloc_heap_memory@@YGPAXI@Z ; malloc_heap_memory
  00d0d	89 85 58 fd ff
	ff		 mov	 DWORD PTR _new_objective_briefing$1[ebp], eax

; 577  : 
; 578  : 				memset (new_objective_briefing, 0, sizeof (extra_briefing_type));

  00d13	68 88 00 00 00	 push	 136			; 00000088H
  00d18	6a 00		 push	 0
  00d1a	8b 85 58 fd ff
	ff		 mov	 eax, DWORD PTR _new_objective_briefing$1[ebp]
  00d20	50		 push	 eax
  00d21	e8 00 00 00 00	 call	 _memset
  00d26	83 c4 0c	 add	 esp, 12			; 0000000cH

; 579  : 
; 580  : 				// get all objective these texts apply to
; 581  : 
; 582  : 				result = get_next_file_tag (file_ptr, application_tag_strings, FILE_TAG_APPLICATION_LAST_TAG);

  00d29	68 af 00 00 00	 push	 175			; 000000afH
  00d2e	68 00 00 00 00	 push	 OFFSET ?application_tag_strings@@3PAPBDA ; application_tag_strings
  00d33	8b 85 74 fd ff
	ff		 mov	 eax, DWORD PTR _file_ptr$[ebp]
  00d39	50		 push	 eax
  00d3a	e8 00 00 00 00	 call	 ?get_next_file_tag@@YGHPAU_iobuf@@QAPBDH@Z ; get_next_file_tag
  00d3f	89 45 fc	 mov	 DWORD PTR _result$[ebp], eax

; 583  : 				ASSERT (result == FILE_TAG_TYPE);

  00d42	83 7d fc e6	 cmp	 DWORD PTR _result$[ebp], -26 ; ffffffe6H
  00d46	74 1a		 je	 SHORT $LN45@initialise
  00d48	a1 00 00 00 00	 mov	 eax, DWORD PTR ?__LINE__Var@?0??initialise_briefing_parser@@YGXXZ@4JA
  00d4d	05 75 01 00 00	 add	 eax, 373		; 00000175H
  00d52	50		 push	 eax
  00d53	68 00 00 00 00	 push	 OFFSET ??_C@_0EC@JLKMNKLD@c?3?2users?2nhv90?2projects?2eech?2ap@
  00d58	68 00 00 00 00	 push	 OFFSET ??_C@_0BI@NHAOLFJJ@result?5?$DN?$DN?5FILE_TAG_TYPE@
  00d5d	e8 00 00 00 00	 call	 ?process_assert@@YGXPBD0H@Z ; process_assert
$LN45@initialise:

; 584  : 	
; 585  : 				new_objective_briefing->type = EXTRA_BRIEFING_OBJECTIVES;

  00d62	8b 85 58 fd ff
	ff		 mov	 eax, DWORD PTR _new_objective_briefing$1[ebp]
  00d68	c7 00 02 00 00
	00		 mov	 DWORD PTR [eax], 2

; 586  : 
; 587  : 				new_objective_briefing->sub_type = get_next_file_enum (file_ptr, entity_sub_type_keysite_names, NUM_ENTITY_SUB_TYPE_KEYSITES);

  00d6e	6a 09		 push	 9
  00d70	68 00 00 00 00	 push	 OFFSET ?entity_sub_type_keysite_names@@3PAPBDA ; entity_sub_type_keysite_names
  00d75	8b 85 74 fd ff
	ff		 mov	 eax, DWORD PTR _file_ptr$[ebp]
  00d7b	50		 push	 eax
  00d7c	e8 00 00 00 00	 call	 ?get_next_file_enum@@YGHPAU_iobuf@@QAPBDH@Z ; get_next_file_enum
  00d81	8b 8d 58 fd ff
	ff		 mov	 ecx, DWORD PTR _new_objective_briefing$1[ebp]
  00d87	89 41 04	 mov	 DWORD PTR [ecx+4], eax

; 588  : 
; 589  : 				// read in N objective texts
; 590  : 
; 591  : 				new_objective_briefing->text_count = 0;

  00d8a	8b 85 58 fd ff
	ff		 mov	 eax, DWORD PTR _new_objective_briefing$1[ebp]
  00d90	c7 40 08 00 00
	00 00		 mov	 DWORD PTR [eax+8], 0
$LN20@initialise:

; 592  : 
; 593  : 				while (check_next_file_tag (file_ptr, application_tag_strings, FILE_TAG_APPLICATION_LAST_TAG) != FILE_TAG_END)

  00d97	68 af 00 00 00	 push	 175			; 000000afH
  00d9c	68 00 00 00 00	 push	 OFFSET ?application_tag_strings@@3PAPBDA ; application_tag_strings
  00da1	8b 85 74 fd ff
	ff		 mov	 eax, DWORD PTR _file_ptr$[ebp]
  00da7	50		 push	 eax
  00da8	e8 00 00 00 00	 call	 ?check_next_file_tag@@YGHPAU_iobuf@@QAPBDH@Z ; check_next_file_tag
  00dad	83 f8 f6	 cmp	 eax, -10		; fffffff6H
  00db0	0f 84 d7 00 00
	00		 je	 $LN21@initialise

; 594  : 				{
; 595  : 
; 596  : 					result = get_next_file_tag (file_ptr, application_tag_strings, FILE_TAG_APPLICATION_LAST_TAG);

  00db6	68 af 00 00 00	 push	 175			; 000000afH
  00dbb	68 00 00 00 00	 push	 OFFSET ?application_tag_strings@@3PAPBDA ; application_tag_strings
  00dc0	8b 85 74 fd ff
	ff		 mov	 eax, DWORD PTR _file_ptr$[ebp]
  00dc6	50		 push	 eax
  00dc7	e8 00 00 00 00	 call	 ?get_next_file_tag@@YGHPAU_iobuf@@QAPBDH@Z ; get_next_file_tag
  00dcc	89 45 fc	 mov	 DWORD PTR _result$[ebp], eax

; 597  : 					ASSERT (result == FILE_TAG_TEXT1);

  00dcf	81 7d fc 9b 00
	00 00		 cmp	 DWORD PTR _result$[ebp], 155 ; 0000009bH
  00dd6	74 1a		 je	 SHORT $LN46@initialise
  00dd8	a1 00 00 00 00	 mov	 eax, DWORD PTR ?__LINE__Var@?0??initialise_briefing_parser@@YGXXZ@4JA
  00ddd	05 83 01 00 00	 add	 eax, 387		; 00000183H
  00de2	50		 push	 eax
  00de3	68 00 00 00 00	 push	 OFFSET ??_C@_0EC@JLKMNKLD@c?3?2users?2nhv90?2projects?2eech?2ap@
  00de8	68 00 00 00 00	 push	 OFFSET ??_C@_0BJ@DCBJLJMM@result?5?$DN?$DN?5FILE_TAG_TEXT1@
  00ded	e8 00 00 00 00	 call	 ?process_assert@@YGXPBD0H@Z ; process_assert
$LN46@initialise:

; 598  : 			
; 599  : 					memset (&temp_buffer, 0, sizeof (temp_buffer));

  00df2	68 00 02 00 00	 push	 512			; 00000200H
  00df7	6a 00		 push	 0
  00df9	8d 85 fc fd ff
	ff		 lea	 eax, DWORD PTR _temp_buffer$[ebp]
  00dff	50		 push	 eax
  00e00	e8 00 00 00 00	 call	 _memset
  00e05	83 c4 0c	 add	 esp, 12			; 0000000cH

; 600  : 					get_next_file_paragraph (file_ptr, temp_buffer, sizeof (temp_buffer));

  00e08	68 00 02 00 00	 push	 512			; 00000200H
  00e0d	8d 85 fc fd ff
	ff		 lea	 eax, DWORD PTR _temp_buffer$[ebp]
  00e13	50		 push	 eax
  00e14	8b 8d 74 fd ff
	ff		 mov	 ecx, DWORD PTR _file_ptr$[ebp]
  00e1a	51		 push	 ecx
  00e1b	e8 00 00 00 00	 call	 ?get_next_file_paragraph@@YGHPAU_iobuf@@PADH@Z ; get_next_file_paragraph

; 601  : 
; 602  : 					new_objective_briefing->briefing_text [new_objective_briefing->text_count] = (char *) malloc_heap_mem (sizeof (char) * (strlen (temp_buffer) + 1));

  00e20	8d 85 fc fd ff
	ff		 lea	 eax, DWORD PTR _temp_buffer$[ebp]
  00e26	50		 push	 eax
  00e27	e8 00 00 00 00	 call	 _strlen
  00e2c	83 c4 04	 add	 esp, 4
  00e2f	83 c0 01	 add	 eax, 1
  00e32	50		 push	 eax
  00e33	e8 00 00 00 00	 call	 ?malloc_heap_memory@@YGPAXI@Z ; malloc_heap_memory
  00e38	8b 8d 58 fd ff
	ff		 mov	 ecx, DWORD PTR _new_objective_briefing$1[ebp]
  00e3e	8b 51 08	 mov	 edx, DWORD PTR [ecx+8]
  00e41	8b 8d 58 fd ff
	ff		 mov	 ecx, DWORD PTR _new_objective_briefing$1[ebp]
  00e47	89 44 91 0c	 mov	 DWORD PTR [ecx+edx*4+12], eax

; 603  : 					sprintf (new_objective_briefing->briefing_text [new_objective_briefing->text_count], "%s", &temp_buffer);

  00e4b	8d 85 fc fd ff
	ff		 lea	 eax, DWORD PTR _temp_buffer$[ebp]
  00e51	50		 push	 eax
  00e52	68 00 00 00 00	 push	 OFFSET ??_C@_02DKCKIIND@?$CFs@
  00e57	8b 8d 58 fd ff
	ff		 mov	 ecx, DWORD PTR _new_objective_briefing$1[ebp]
  00e5d	8b 51 08	 mov	 edx, DWORD PTR [ecx+8]
  00e60	8b 85 58 fd ff
	ff		 mov	 eax, DWORD PTR _new_objective_briefing$1[ebp]
  00e66	8b 4c 90 0c	 mov	 ecx, DWORD PTR [eax+edx*4+12]
  00e6a	51		 push	 ecx
  00e6b	e8 00 00 00 00	 call	 _sprintf
  00e70	83 c4 0c	 add	 esp, 12			; 0000000cH

; 604  : 
; 605  : 					new_objective_briefing->text_count ++;

  00e73	8b 85 58 fd ff
	ff		 mov	 eax, DWORD PTR _new_objective_briefing$1[ebp]
  00e79	8b 48 08	 mov	 ecx, DWORD PTR [eax+8]
  00e7c	83 c1 01	 add	 ecx, 1
  00e7f	8b 95 58 fd ff
	ff		 mov	 edx, DWORD PTR _new_objective_briefing$1[ebp]
  00e85	89 4a 08	 mov	 DWORD PTR [edx+8], ecx

; 606  : 				}

  00e88	e9 0a ff ff ff	 jmp	 $LN20@initialise
$LN21@initialise:

; 607  : 
; 608  : 				// read in file_tag_end
; 609  : 				result = get_next_file_tag (file_ptr, application_tag_strings, FILE_TAG_APPLICATION_LAST_TAG);

  00e8d	68 af 00 00 00	 push	 175			; 000000afH
  00e92	68 00 00 00 00	 push	 OFFSET ?application_tag_strings@@3PAPBDA ; application_tag_strings
  00e97	8b 85 74 fd ff
	ff		 mov	 eax, DWORD PTR _file_ptr$[ebp]
  00e9d	50		 push	 eax
  00e9e	e8 00 00 00 00	 call	 ?get_next_file_tag@@YGHPAU_iobuf@@QAPBDH@Z ; get_next_file_tag
  00ea3	89 45 fc	 mov	 DWORD PTR _result$[ebp], eax

; 610  : 
; 611  : 				new_objective_briefing->next = extra_briefing_database;

  00ea6	8b 85 58 fd ff
	ff		 mov	 eax, DWORD PTR _new_objective_briefing$1[ebp]
  00eac	8b 0d 00 00 00
	00		 mov	 ecx, DWORD PTR ?extra_briefing_database@@3PAUEXTRA_BRIEFING_TYPE@@A ; extra_briefing_database
  00eb2	89 88 84 00 00
	00		 mov	 DWORD PTR [eax+132], ecx

; 612  : 
; 613  : 				extra_briefing_database = new_objective_briefing;

  00eb8	8b 85 58 fd ff
	ff		 mov	 eax, DWORD PTR _new_objective_briefing$1[ebp]
  00ebe	a3 00 00 00 00	 mov	 DWORD PTR ?extra_briefing_database@@3PAUEXTRA_BRIEFING_TYPE@@A, eax ; extra_briefing_database

; 614  : 
; 615  : 				break;

  00ec3	eb 12		 jmp	 SHORT $LN4@initialise
$LN47@initialise:

; 616  : 			}
; 617  : 
; 618  : 			//*pilot_rank_names [] =
; 619  : 			case FILE_TAG_END:
; 620  : 			{
; 621  : 
; 622  : 				fclose (file_ptr);

  00ec5	8b 85 74 fd ff
	ff		 mov	 eax, DWORD PTR _file_ptr$[ebp]
  00ecb	50		 push	 eax
  00ecc	ff 15 00 00 00
	00		 call	 DWORD PTR __imp__fclose
  00ed2	83 c4 04	 add	 esp, 4

; 623  : 
; 624  : 				return;

  00ed5	eb 05		 jmp	 SHORT $LN1@initialise
$LN4@initialise:

; 625  : 			}
; 626  : 		}
; 627  : 	}

  00ed7	e9 d2 f1 ff ff	 jmp	 $LN2@initialise
$LN1@initialise:

; 628  : }

  00edc	5f		 pop	 edi
  00edd	5e		 pop	 esi
  00ede	5b		 pop	 ebx
  00edf	8b e5		 mov	 esp, ebp
  00ee1	5d		 pop	 ebp
  00ee2	c3		 ret	 0
  00ee3	90		 npad	 1
$LN50@initialise:
  00ee4	00 00 00 00	 DD	 $LN24@initialise
  00ee8	00 00 00 00	 DD	 $LN47@initialise
  00eec	00 00 00 00	 DD	 $LN39@initialise
  00ef0	00 00 00 00	 DD	 $LN44@initialise
  00ef4	00 00 00 00	 DD	 $LN42@initialise
  00ef8	00 00 00 00	 DD	 $LN4@initialise
$LN49@initialise:
  00efc	00		 DB	 0
  00efd	05		 DB	 5
  00efe	05		 DB	 5
  00eff	05		 DB	 5
  00f00	05		 DB	 5
  00f01	05		 DB	 5
  00f02	05		 DB	 5
  00f03	05		 DB	 5
  00f04	05		 DB	 5
  00f05	05		 DB	 5
  00f06	05		 DB	 5
  00f07	05		 DB	 5
  00f08	05		 DB	 5
  00f09	05		 DB	 5
  00f0a	05		 DB	 5
  00f0b	05		 DB	 5
  00f0c	01		 DB	 1
  00f0d	05		 DB	 5
  00f0e	05		 DB	 5
  00f0f	05		 DB	 5
  00f10	05		 DB	 5
  00f11	05		 DB	 5
  00f12	05		 DB	 5
  00f13	05		 DB	 5
  00f14	05		 DB	 5
  00f15	05		 DB	 5
  00f16	05		 DB	 5
  00f17	05		 DB	 5
  00f18	05		 DB	 5
  00f19	05		 DB	 5
  00f1a	05		 DB	 5
  00f1b	05		 DB	 5
  00f1c	05		 DB	 5
  00f1d	05		 DB	 5
  00f1e	05		 DB	 5
  00f1f	05		 DB	 5
  00f20	05		 DB	 5
  00f21	05		 DB	 5
  00f22	05		 DB	 5
  00f23	05		 DB	 5
  00f24	05		 DB	 5
  00f25	05		 DB	 5
  00f26	05		 DB	 5
  00f27	05		 DB	 5
  00f28	05		 DB	 5
  00f29	05		 DB	 5
  00f2a	05		 DB	 5
  00f2b	05		 DB	 5
  00f2c	05		 DB	 5
  00f2d	05		 DB	 5
  00f2e	05		 DB	 5
  00f2f	05		 DB	 5
  00f30	05		 DB	 5
  00f31	05		 DB	 5
  00f32	05		 DB	 5
  00f33	05		 DB	 5
  00f34	05		 DB	 5
  00f35	05		 DB	 5
  00f36	05		 DB	 5
  00f37	05		 DB	 5
  00f38	05		 DB	 5
  00f39	05		 DB	 5
  00f3a	05		 DB	 5
  00f3b	05		 DB	 5
  00f3c	05		 DB	 5
  00f3d	05		 DB	 5
  00f3e	05		 DB	 5
  00f3f	05		 DB	 5
  00f40	05		 DB	 5
  00f41	05		 DB	 5
  00f42	05		 DB	 5
  00f43	05		 DB	 5
  00f44	05		 DB	 5
  00f45	05		 DB	 5
  00f46	05		 DB	 5
  00f47	05		 DB	 5
  00f48	05		 DB	 5
  00f49	05		 DB	 5
  00f4a	05		 DB	 5
  00f4b	05		 DB	 5
  00f4c	05		 DB	 5
  00f4d	05		 DB	 5
  00f4e	05		 DB	 5
  00f4f	05		 DB	 5
  00f50	05		 DB	 5
  00f51	05		 DB	 5
  00f52	05		 DB	 5
  00f53	05		 DB	 5
  00f54	05		 DB	 5
  00f55	05		 DB	 5
  00f56	05		 DB	 5
  00f57	05		 DB	 5
  00f58	05		 DB	 5
  00f59	05		 DB	 5
  00f5a	05		 DB	 5
  00f5b	05		 DB	 5
  00f5c	05		 DB	 5
  00f5d	05		 DB	 5
  00f5e	05		 DB	 5
  00f5f	05		 DB	 5
  00f60	05		 DB	 5
  00f61	05		 DB	 5
  00f62	05		 DB	 5
  00f63	05		 DB	 5
  00f64	05		 DB	 5
  00f65	05		 DB	 5
  00f66	05		 DB	 5
  00f67	05		 DB	 5
  00f68	05		 DB	 5
  00f69	05		 DB	 5
  00f6a	05		 DB	 5
  00f6b	05		 DB	 5
  00f6c	05		 DB	 5
  00f6d	05		 DB	 5
  00f6e	05		 DB	 5
  00f6f	05		 DB	 5
  00f70	05		 DB	 5
  00f71	05		 DB	 5
  00f72	05		 DB	 5
  00f73	05		 DB	 5
  00f74	05		 DB	 5
  00f75	05		 DB	 5
  00f76	05		 DB	 5
  00f77	02		 DB	 2
  00f78	05		 DB	 5
  00f79	05		 DB	 5
  00f7a	05		 DB	 5
  00f7b	05		 DB	 5
  00f7c	05		 DB	 5
  00f7d	05		 DB	 5
  00f7e	03		 DB	 3
  00f7f	05		 DB	 5
  00f80	05		 DB	 5
  00f81	05		 DB	 5
  00f82	05		 DB	 5
  00f83	05		 DB	 5
  00f84	05		 DB	 5
  00f85	05		 DB	 5
  00f86	05		 DB	 5
  00f87	05		 DB	 5
  00f88	05		 DB	 5
  00f89	05		 DB	 5
  00f8a	05		 DB	 5
  00f8b	05		 DB	 5
  00f8c	05		 DB	 5
  00f8d	05		 DB	 5
  00f8e	05		 DB	 5
  00f8f	05		 DB	 5
  00f90	05		 DB	 5
  00f91	05		 DB	 5
  00f92	04		 DB	 4
?initialise_briefing_parser@@YGXXZ ENDP			; initialise_briefing_parser
_TEXT	ENDS
; Function compile flags: /Odtp /ZI
; File c:\program files (x86)\windows kits\10\include\10.0.18362.0\ucrt\string.h
;	COMDAT ?strstr@@YAPADQADQBD@Z
_TEXT	SEGMENT
__String$ = 8						; size = 4
__SubString$ = 12					; size = 4
?strstr@@YAPADQADQBD@Z PROC				; strstr, COMDAT

; 523  :     {

  00000	55		 push	 ebp
  00001	8b ec		 mov	 ebp, esp
  00003	83 ec 40	 sub	 esp, 64			; 00000040H
  00006	53		 push	 ebx
  00007	56		 push	 esi
  00008	57		 push	 edi

; 524  :         return const_cast<char*>(strstr(static_cast<char const*>(_String), _SubString));

  00009	8b 45 0c	 mov	 eax, DWORD PTR __SubString$[ebp]
  0000c	50		 push	 eax
  0000d	8b 4d 08	 mov	 ecx, DWORD PTR __String$[ebp]
  00010	51		 push	 ecx
  00011	e8 00 00 00 00	 call	 _strstr
  00016	83 c4 08	 add	 esp, 8

; 525  :     }

  00019	5f		 pop	 edi
  0001a	5e		 pop	 esi
  0001b	5b		 pop	 ebx
  0001c	8b e5		 mov	 esp, ebp
  0001e	5d		 pop	 ebp
  0001f	c3		 ret	 0
?strstr@@YAPADQADQBD@Z ENDP				; strstr
_TEXT	ENDS
; Function compile flags: /Odtp /ZI
; File c:\program files (x86)\windows kits\10\include\10.0.18362.0\ucrt\stdio.h
;	COMDAT _sprintf
_TEXT	SEGMENT
__ArgList$ = -8						; size = 4
__Result$ = -4						; size = 4
__Buffer$ = 8						; size = 4
__Format$ = 12						; size = 4
_sprintf PROC						; COMDAT

; 1781 :     {

  00000	55		 push	 ebp
  00001	8b ec		 mov	 ebp, esp
  00003	83 ec 4c	 sub	 esp, 76			; 0000004cH
  00006	53		 push	 ebx
  00007	56		 push	 esi
  00008	57		 push	 edi

; 1782 :         int _Result;
; 1783 :         va_list _ArgList;
; 1784 :         __crt_va_start(_ArgList, _Format);

  00009	8d 45 10	 lea	 eax, DWORD PTR __Format$[ebp+4]
  0000c	89 45 f8	 mov	 DWORD PTR __ArgList$[ebp], eax

; 1785 : 
; 1786 :         #pragma warning(push)
; 1787 :         #pragma warning(disable: 4996) // Deprecation
; 1788 :         _Result = _vsprintf_l(_Buffer, _Format, NULL, _ArgList);

  0000f	8b 45 f8	 mov	 eax, DWORD PTR __ArgList$[ebp]
  00012	50		 push	 eax
  00013	6a 00		 push	 0
  00015	8b 4d 0c	 mov	 ecx, DWORD PTR __Format$[ebp]
  00018	51		 push	 ecx
  00019	8b 55 08	 mov	 edx, DWORD PTR __Buffer$[ebp]
  0001c	52		 push	 edx
  0001d	e8 00 00 00 00	 call	 __vsprintf_l
  00022	83 c4 10	 add	 esp, 16			; 00000010H
  00025	89 45 fc	 mov	 DWORD PTR __Result$[ebp], eax

; 1789 :         #pragma warning(pop)
; 1790 : 
; 1791 :         __crt_va_end(_ArgList);

  00028	c7 45 f8 00 00
	00 00		 mov	 DWORD PTR __ArgList$[ebp], 0

; 1792 :         return _Result;

  0002f	8b 45 fc	 mov	 eax, DWORD PTR __Result$[ebp]

; 1793 :     }

  00032	5f		 pop	 edi
  00033	5e		 pop	 esi
  00034	5b		 pop	 ebx
  00035	8b e5		 mov	 esp, ebp
  00037	5d		 pop	 ebp
  00038	c3		 ret	 0
_sprintf ENDP
_TEXT	ENDS
; Function compile flags: /Odtp /ZI
; File c:\program files (x86)\windows kits\10\include\10.0.18362.0\ucrt\stdio.h
;	COMDAT __vsprintf_l
_TEXT	SEGMENT
__Buffer$ = 8						; size = 4
__Format$ = 12						; size = 4
__Locale$ = 16						; size = 4
__ArgList$ = 20						; size = 4
__vsprintf_l PROC					; COMDAT

; 1459 :     {

  00000	55		 push	 ebp
  00001	8b ec		 mov	 ebp, esp
  00003	83 ec 40	 sub	 esp, 64			; 00000040H
  00006	53		 push	 ebx
  00007	56		 push	 esi
  00008	57		 push	 edi

; 1460 :         #pragma warning(push)
; 1461 :         #pragma warning(disable: 4996) // Deprecation
; 1462 :         return _vsnprintf_l(_Buffer, (size_t)-1, _Format, _Locale, _ArgList);

  00009	8b 45 14	 mov	 eax, DWORD PTR __ArgList$[ebp]
  0000c	50		 push	 eax
  0000d	8b 4d 10	 mov	 ecx, DWORD PTR __Locale$[ebp]
  00010	51		 push	 ecx
  00011	8b 55 0c	 mov	 edx, DWORD PTR __Format$[ebp]
  00014	52		 push	 edx
  00015	6a ff		 push	 -1
  00017	8b 45 08	 mov	 eax, DWORD PTR __Buffer$[ebp]
  0001a	50		 push	 eax
  0001b	e8 00 00 00 00	 call	 __vsnprintf_l
  00020	83 c4 14	 add	 esp, 20			; 00000014H

; 1463 :         #pragma warning(pop)
; 1464 :     }

  00023	5f		 pop	 edi
  00024	5e		 pop	 esi
  00025	5b		 pop	 ebx
  00026	8b e5		 mov	 esp, ebp
  00028	5d		 pop	 ebp
  00029	c3		 ret	 0
__vsprintf_l ENDP
_TEXT	ENDS
; Function compile flags: /Odtp /ZI
; File c:\program files (x86)\windows kits\10\include\10.0.18362.0\ucrt\stdio.h
;	COMDAT __vsnprintf_l
_TEXT	SEGMENT
tv74 = -72						; size = 4
__Result$ = -4						; size = 4
__Buffer$ = 8						; size = 4
__BufferCount$ = 12					; size = 4
__Format$ = 16						; size = 4
__Locale$ = 20						; size = 4
__ArgList$ = 24						; size = 4
__vsnprintf_l PROC					; COMDAT

; 1389 :     {

  00000	55		 push	 ebp
  00001	8b ec		 mov	 ebp, esp
  00003	83 ec 48	 sub	 esp, 72			; 00000048H
  00006	53		 push	 ebx
  00007	56		 push	 esi
  00008	57		 push	 edi

; 1390 :         int const _Result = __stdio_common_vsprintf(

  00009	8b 45 18	 mov	 eax, DWORD PTR __ArgList$[ebp]
  0000c	50		 push	 eax
  0000d	8b 4d 14	 mov	 ecx, DWORD PTR __Locale$[ebp]
  00010	51		 push	 ecx
  00011	8b 55 10	 mov	 edx, DWORD PTR __Format$[ebp]
  00014	52		 push	 edx
  00015	8b 45 0c	 mov	 eax, DWORD PTR __BufferCount$[ebp]
  00018	50		 push	 eax
  00019	8b 4d 08	 mov	 ecx, DWORD PTR __Buffer$[ebp]
  0001c	51		 push	 ecx
  0001d	e8 00 00 00 00	 call	 ___local_stdio_printf_options
  00022	8b 10		 mov	 edx, DWORD PTR [eax]
  00024	83 ca 01	 or	 edx, 1
  00027	8b 40 04	 mov	 eax, DWORD PTR [eax+4]
  0002a	50		 push	 eax
  0002b	52		 push	 edx
  0002c	ff 15 00 00 00
	00		 call	 DWORD PTR __imp____stdio_common_vsprintf
  00032	83 c4 1c	 add	 esp, 28			; 0000001cH
  00035	89 45 fc	 mov	 DWORD PTR __Result$[ebp], eax

; 1391 :             _CRT_INTERNAL_LOCAL_PRINTF_OPTIONS | _CRT_INTERNAL_PRINTF_LEGACY_VSPRINTF_NULL_TERMINATION,
; 1392 :             _Buffer, _BufferCount, _Format, _Locale, _ArgList);
; 1393 : 
; 1394 :         return _Result < 0 ? -1 : _Result;

  00038	83 7d fc 00	 cmp	 DWORD PTR __Result$[ebp], 0
  0003c	7d 09		 jge	 SHORT $LN3@vsnprintf_
  0003e	c7 45 b8 ff ff
	ff ff		 mov	 DWORD PTR tv74[ebp], -1
  00045	eb 06		 jmp	 SHORT $LN4@vsnprintf_
$LN3@vsnprintf_:
  00047	8b 45 fc	 mov	 eax, DWORD PTR __Result$[ebp]
  0004a	89 45 b8	 mov	 DWORD PTR tv74[ebp], eax
$LN4@vsnprintf_:
  0004d	8b 45 b8	 mov	 eax, DWORD PTR tv74[ebp]

; 1395 :     }

  00050	5f		 pop	 edi
  00051	5e		 pop	 esi
  00052	5b		 pop	 ebx
  00053	8b e5		 mov	 esp, ebp
  00055	5d		 pop	 ebp
  00056	c3		 ret	 0
__vsnprintf_l ENDP
_TEXT	ENDS
; Function compile flags: /Odtp /ZI
; File c:\program files (x86)\windows kits\10\include\10.0.18362.0\ucrt\corecrt_stdio_config.h
;	COMDAT ___local_stdio_printf_options
_TEXT	SEGMENT
___local_stdio_printf_options PROC			; COMDAT

; 86   :     {

  00000	55		 push	 ebp
  00001	8b ec		 mov	 ebp, esp
  00003	83 ec 40	 sub	 esp, 64			; 00000040H
  00006	53		 push	 ebx
  00007	56		 push	 esi
  00008	57		 push	 edi

; 87   :         static unsigned __int64 _OptionsStorage;
; 88   :         return &_OptionsStorage;

  00009	b8 00 00 00 00	 mov	 eax, OFFSET ?_OptionsStorage@?1??__local_stdio_printf_options@@9@4_KA ; `__local_stdio_printf_options'::`2'::_OptionsStorage

; 89   :     }

  0000e	5f		 pop	 edi
  0000f	5e		 pop	 esi
  00010	5b		 pop	 ebx
  00011	8b e5		 mov	 esp, ebp
  00013	5d		 pop	 ebp
  00014	c3		 ret	 0
___local_stdio_printf_options ENDP
_TEXT	ENDS
END
