; Listing generated by Microsoft (R) Optimizing Compiler Version 19.16.27045.0 

	TITLE	C:\Users\nhv90\Projects\eech\aphavoc\source\ui_menu\ingame\campaign\ca_3d.c
	.686P
	.XMM
	include listing.inc
	.model	flat

INCLUDELIB MSVCRTD
INCLUDELIB OLDNAMES

PUBLIC	?draw_campaign_screen_3d_scene@@YGXPAUUI_OBJECT@@PAUVIEWPOINT@@@Z ; draw_campaign_screen_3d_scene
PUBLIC	?draw_campaign_screen_3d_scene_to_texture@@YGXPAUSCREEN@@PAUVIEWPOINT@@M@Z ; draw_campaign_screen_3d_scene_to_texture
PUBLIC	?draw_campaign_screen_entity_3d_scene@@YGXPAUUI_OBJECT@@MPAUVEC3D@@@Z ; draw_campaign_screen_entity_3d_scene
PUBLIC	?draw_campaign_screen_texture_to_object@@YGXPAUSCREEN@@PAUUI_OBJECT@@@Z ; draw_campaign_screen_texture_to_object
PUBLIC	?__LINE__Var@?0??draw_campaign_screen_3d_scene@@YGXPAUUI_OBJECT@@PAUVIEWPOINT@@@Z@4JA ; `draw_campaign_screen_3d_scene'::`1'::__LINE__Var
PUBLIC	??_C@_0EM@LHIGKKCE@c?3?2users?2nhv90?2projects?2eech?2ap@ ; `string'
PUBLIC	??_C@_02HPPNELPJ@vp@				; `string'
PUBLIC	??_C@_03GJLPFLNF@obj@				; `string'
PUBLIC	?__LINE__Var@?0??draw_campaign_screen_3d_scene_to_texture@@YGXPAUSCREEN@@PAUVIEWPOINT@@M@Z@4JA ; `draw_campaign_screen_3d_scene_to_texture'::`1'::__LINE__Var
PUBLIC	??_C@_03PAKJEBJM@scr@				; `string'
PUBLIC	??_C@_0BK@EPIBEIKA@d3d_can_render_to_texture@	; `string'
PUBLIC	?__LINE__Var@?0??draw_campaign_screen_entity_3d_scene@@YGXPAUUI_OBJECT@@MPAUVEC3D@@@Z@4JA ; `draw_campaign_screen_entity_3d_scene'::`1'::__LINE__Var
PUBLIC	??_C@_09HPKLLIJF@direction@			; `string'
PUBLIC	??_C@_02LFNMGJAP@en@				; `string'
PUBLIC	??_C@_03PCBNCGFH@pos@				; `string'
PUBLIC	?__LINE__Var@?0??draw_campaign_screen_texture_to_object@@YGXPAUSCREEN@@PAUUI_OBJECT@@@Z@4JA ; `draw_campaign_screen_texture_to_object'::`1'::__LINE__Var
PUBLIC	__real@3f000000
PUBLIC	__real@3f800000
PUBLIC	__xmm@80000000800000008000000080000000
EXTRN	_memcpy:PROC
EXTRN	?process_assert@@YGXPBD0H@Z:PROC		; process_assert
EXTRN	?convert_float_to_int@@YGXMPAH@Z:PROC		; convert_float_to_int
EXTRN	?get_matrix3x3_from_unit_vec3d@@YGXQAY02MPBUVEC3D@@@Z:PROC ; get_matrix3x3_from_unit_vec3d
EXTRN	?set_d3d_flat_shaded_textured_renderstate@@YGXPAUSCREEN@@@Z:PROC ; set_d3d_flat_shaded_textured_renderstate
EXTRN	?draw_wbuffered_flat_shaded_textured_polygon@@YGXPAUVERTEX@@UREAL_COLOUR@@1@Z:PROC ; draw_wbuffered_flat_shaded_textured_polygon
EXTRN	?draw_application_ui_3d_scene@@YGXXZ:PROC	; draw_application_ui_3d_scene
EXTRN	?draw_application_3d_scene_to_texture@@YGXPAUSCREEN@@M@Z:PROC ; draw_application_3d_scene_to_texture
EXTRN	?set_main_3d_params@@YGXW4DISPLAY_3D_TINTS@@W4DISPLAY_3D_LIGHT_LEVELS@@W4DISPLAY_3D_NOISE_LEVELS@@MMMMMM@Z:PROC ; set_main_3d_params
EXTRN	?d3d_can_render_to_texture@@3HA:DWORD		; d3d_can_render_to_texture
EXTRN	?fn_get_ui_object_x@@3PAP6GMPAUUI_OBJECT@@@ZA:BYTE ; fn_get_ui_object_x
EXTRN	?fn_get_ui_object_y@@3PAP6GMPAUUI_OBJECT@@@ZA:BYTE ; fn_get_ui_object_y
EXTRN	?fn_get_ui_object_x_size@@3PAP6GMPAUUI_OBJECT@@@ZA:BYTE ; fn_get_ui_object_x_size
EXTRN	?fn_get_ui_object_y_size@@3PAP6GMPAUUI_OBJECT@@@ZA:BYTE ; fn_get_ui_object_y_size
EXTRN	?fn_get_ui_object_item_number@@3PAP6GHPAUUI_OBJECT@@@ZA:BYTE ; fn_get_ui_object_item_number
EXTRN	?null_entity_pointer_message@@3PBDB:DWORD	; null_entity_pointer_message
EXTRN	?overload_invalid_int_type_message@@3PBDB:DWORD	; overload_invalid_int_type_message
EXTRN	?fn_get_local_entity_int_value@@3PAY0BBH@P6GHPAUENTITY@@W4INT_TYPES@@@ZA:BYTE ; fn_get_local_entity_int_value
EXTRN	?overload_invalid_vec3d_type_message@@3PBDB:DWORD ; overload_invalid_vec3d_type_message
EXTRN	?fn_get_local_entity_vec3d_ptr@@3PAY0BI@P6GPAUVEC3D@@PAUENTITY@@W4VEC3D_TYPES@@@ZA:BYTE ; fn_get_local_entity_vec3d_ptr
EXTRN	?entities@@3PAUENTITY@@A:DWORD			; entities
EXTRN	?session_entity@@3PAUENTITY@@A:DWORD		; session_entity
EXTRN	?full_screen_width_view_angle@@3MA:DWORD	; full_screen_width_view_angle
EXTRN	?full_screen_height_view_angle@@3MA:DWORD	; full_screen_height_view_angle
EXTRN	?main_vp@@3UVIEWPOINT@@A:BYTE			; main_vp
EXTRN	__fltused:DWORD
;	COMDAT __xmm@80000000800000008000000080000000
CONST	SEGMENT
__xmm@80000000800000008000000080000000 DB 00H, 00H, 00H, 080H, 00H, 00H, 00H
	DB	080H, 00H, 00H, 00H, 080H, 00H, 00H, 00H, 080H
CONST	ENDS
;	COMDAT __real@3f800000
CONST	SEGMENT
__real@3f800000 DD 03f800000r			; 1
CONST	ENDS
;	COMDAT __real@3f000000
CONST	SEGMENT
__real@3f000000 DD 03f000000r			; 0.5
CONST	ENDS
;	COMDAT ?__LINE__Var@?0??draw_campaign_screen_texture_to_object@@YGXPAUSCREEN@@PAUUI_OBJECT@@@Z@4JA
_DATA	SEGMENT
?__LINE__Var@?0??draw_campaign_screen_texture_to_object@@YGXPAUSCREEN@@PAUUI_OBJECT@@@Z@4JA DD 0102H ; `draw_campaign_screen_texture_to_object'::`1'::__LINE__Var
_DATA	ENDS
;	COMDAT ??_C@_03PCBNCGFH@pos@
CONST	SEGMENT
??_C@_03PCBNCGFH@pos@ DB 'pos', 00H			; `string'
CONST	ENDS
;	COMDAT ??_C@_02LFNMGJAP@en@
CONST	SEGMENT
??_C@_02LFNMGJAP@en@ DB 'en', 00H			; `string'
CONST	ENDS
;	COMDAT ??_C@_09HPKLLIJF@direction@
CONST	SEGMENT
??_C@_09HPKLLIJF@direction@ DB 'direction', 00H		; `string'
CONST	ENDS
;	COMDAT ?__LINE__Var@?0??draw_campaign_screen_entity_3d_scene@@YGXPAUUI_OBJECT@@MPAUVEC3D@@@Z@4JA
_DATA	SEGMENT
?__LINE__Var@?0??draw_campaign_screen_entity_3d_scene@@YGXPAUUI_OBJECT@@MPAUVEC3D@@@Z@4JA DD 0d1H ; `draw_campaign_screen_entity_3d_scene'::`1'::__LINE__Var
_DATA	ENDS
;	COMDAT ??_C@_0BK@EPIBEIKA@d3d_can_render_to_texture@
CONST	SEGMENT
??_C@_0BK@EPIBEIKA@d3d_can_render_to_texture@ DB 'd3d_can_render_to_textu'
	DB	're', 00H					; `string'
CONST	ENDS
;	COMDAT ??_C@_03PAKJEBJM@scr@
CONST	SEGMENT
??_C@_03PAKJEBJM@scr@ DB 'scr', 00H			; `string'
CONST	ENDS
;	COMDAT ?__LINE__Var@?0??draw_campaign_screen_3d_scene_to_texture@@YGXPAUSCREEN@@PAUVIEWPOINT@@M@Z@4JA
_DATA	SEGMENT
?__LINE__Var@?0??draw_campaign_screen_3d_scene_to_texture@@YGXPAUSCREEN@@PAUVIEWPOINT@@M@Z@4JA DD 094H ; `draw_campaign_screen_3d_scene_to_texture'::`1'::__LINE__Var
_DATA	ENDS
;	COMDAT ??_C@_03GJLPFLNF@obj@
CONST	SEGMENT
??_C@_03GJLPFLNF@obj@ DB 'obj', 00H			; `string'
CONST	ENDS
;	COMDAT ??_C@_02HPPNELPJ@vp@
CONST	SEGMENT
??_C@_02HPPNELPJ@vp@ DB 'vp', 00H			; `string'
CONST	ENDS
;	COMDAT ??_C@_0EM@LHIGKKCE@c?3?2users?2nhv90?2projects?2eech?2ap@
CONST	SEGMENT
??_C@_0EM@LHIGKKCE@c?3?2users?2nhv90?2projects?2eech?2ap@ DB 'c:\users\nh'
	DB	'v90\projects\eech\aphavoc\source\ui_menu\ingame\campaign\ca_3'
	DB	'd.c', 00H					; `string'
CONST	ENDS
;	COMDAT ?__LINE__Var@?0??draw_campaign_screen_3d_scene@@YGXPAUUI_OBJECT@@PAUVIEWPOINT@@@Z@4JA
_DATA	SEGMENT
?__LINE__Var@?0??draw_campaign_screen_3d_scene@@YGXPAUUI_OBJECT@@PAUVIEWPOINT@@@Z@4JA DD 04aH ; `draw_campaign_screen_3d_scene'::`1'::__LINE__Var
_DATA	ENDS
; Function compile flags: /Odtp /ZI
; File c:\users\nhv90\projects\eech\aphavoc\source\ui_menu\ingame\campaign\ca_3d.c
;	COMDAT ?draw_campaign_screen_texture_to_object@@YGXPAUSCREEN@@PAUUI_OBJECT@@@Z
_TEXT	SEGMENT
tv253 = -348						; size = 4
tv245 = -348						; size = 4
_y2$ = -280						; size = 4
_x2$ = -276						; size = 4
_y1$ = -272						; size = 4
_x1$ = -268						; size = 4
_specular$ = -264					; size = 4
_colour$ = -260						; size = 4
_quad$ = -256						; size = 256
_scr$ = 8						; size = 4
_obj$ = 12						; size = 4
?draw_campaign_screen_texture_to_object@@YGXPAUSCREEN@@PAUUI_OBJECT@@@Z PROC ; draw_campaign_screen_texture_to_object, COMDAT

; 258  : {

  00000	55		 push	 ebp
  00001	8b ec		 mov	 ebp, esp
  00003	81 ec 5c 01 00
	00		 sub	 esp, 348		; 0000015cH
  00009	53		 push	 ebx
  0000a	56		 push	 esi
  0000b	57		 push	 edi

; 259  : 	vertex
; 260  : 		quad[4];
; 261  : 
; 262  : 	real_colour
; 263  : 		colour,
; 264  : 		specular;
; 265  : 
; 266  : 	float
; 267  : 		x1,
; 268  : 		y1,
; 269  : 		x2,
; 270  : 		y2;
; 271  : 
; 272  : 	ASSERT (scr);

  0000c	83 7d 08 00	 cmp	 DWORD PTR _scr$[ebp], 0
  00010	75 18		 jne	 SHORT $LN2@draw_campa
  00012	a1 00 00 00 00	 mov	 eax, DWORD PTR ?__LINE__Var@?0??draw_campaign_screen_texture_to_object@@YGXPAUSCREEN@@PAUUI_OBJECT@@@Z@4JA
  00017	83 c0 0e	 add	 eax, 14			; 0000000eH
  0001a	50		 push	 eax
  0001b	68 00 00 00 00	 push	 OFFSET ??_C@_0EM@LHIGKKCE@c?3?2users?2nhv90?2projects?2eech?2ap@
  00020	68 00 00 00 00	 push	 OFFSET ??_C@_03PAKJEBJM@scr@
  00025	e8 00 00 00 00	 call	 ?process_assert@@YGXPBD0H@Z ; process_assert
$LN2@draw_campa:

; 273  : 
; 274  : 	ASSERT (obj);

  0002a	83 7d 0c 00	 cmp	 DWORD PTR _obj$[ebp], 0
  0002e	75 18		 jne	 SHORT $LN3@draw_campa
  00030	a1 00 00 00 00	 mov	 eax, DWORD PTR ?__LINE__Var@?0??draw_campaign_screen_texture_to_object@@YGXPAUSCREEN@@PAUUI_OBJECT@@@Z@4JA
  00035	83 c0 10	 add	 eax, 16			; 00000010H
  00038	50		 push	 eax
  00039	68 00 00 00 00	 push	 OFFSET ??_C@_0EM@LHIGKKCE@c?3?2users?2nhv90?2projects?2eech?2ap@
  0003e	68 00 00 00 00	 push	 OFFSET ??_C@_03GJLPFLNF@obj@
  00043	e8 00 00 00 00	 call	 ?process_assert@@YGXPBD0H@Z ; process_assert
$LN3@draw_campa:

; 275  : 
; 276  : 	x1 = get_ui_object_x (obj);

  00048	8b 45 0c	 mov	 eax, DWORD PTR _obj$[ebp]
  0004b	50		 push	 eax
  0004c	8b 4d 0c	 mov	 ecx, DWORD PTR _obj$[ebp]
  0004f	8b 11		 mov	 edx, DWORD PTR [ecx]
  00051	8b 04 95 00 00
	00 00		 mov	 eax, DWORD PTR ?fn_get_ui_object_x@@3PAP6GMPAUUI_OBJECT@@@ZA[edx*4]
  00058	ff d0		 call	 eax
  0005a	d9 9d f4 fe ff
	ff		 fstp	 DWORD PTR _x1$[ebp]

; 277  : 
; 278  : 	y1 = get_ui_object_y (obj);

  00060	8b 45 0c	 mov	 eax, DWORD PTR _obj$[ebp]
  00063	50		 push	 eax
  00064	8b 4d 0c	 mov	 ecx, DWORD PTR _obj$[ebp]
  00067	8b 11		 mov	 edx, DWORD PTR [ecx]
  00069	8b 04 95 00 00
	00 00		 mov	 eax, DWORD PTR ?fn_get_ui_object_y@@3PAP6GMPAUUI_OBJECT@@@ZA[edx*4]
  00070	ff d0		 call	 eax
  00072	d9 9d f0 fe ff
	ff		 fstp	 DWORD PTR _y1$[ebp]

; 279  : 
; 280  : 	x2 = x1 + get_ui_object_x_size (obj);

  00078	8b 45 0c	 mov	 eax, DWORD PTR _obj$[ebp]
  0007b	50		 push	 eax
  0007c	8b 4d 0c	 mov	 ecx, DWORD PTR _obj$[ebp]
  0007f	8b 11		 mov	 edx, DWORD PTR [ecx]
  00081	8b 04 95 00 00
	00 00		 mov	 eax, DWORD PTR ?fn_get_ui_object_x_size@@3PAP6GMPAUUI_OBJECT@@@ZA[edx*4]
  00088	ff d0		 call	 eax
  0008a	d9 9d a4 fe ff
	ff		 fstp	 DWORD PTR tv245[ebp]
  00090	f3 0f 10 85 a4
	fe ff ff	 movss	 xmm0, DWORD PTR tv245[ebp]
  00098	f3 0f 58 85 f4
	fe ff ff	 addss	 xmm0, DWORD PTR _x1$[ebp]
  000a0	f3 0f 11 85 ec
	fe ff ff	 movss	 DWORD PTR _x2$[ebp], xmm0

; 281  : 
; 282  : 	y2 = y1 + get_ui_object_y_size (obj);

  000a8	8b 45 0c	 mov	 eax, DWORD PTR _obj$[ebp]
  000ab	50		 push	 eax
  000ac	8b 4d 0c	 mov	 ecx, DWORD PTR _obj$[ebp]
  000af	8b 11		 mov	 edx, DWORD PTR [ecx]
  000b1	8b 04 95 00 00
	00 00		 mov	 eax, DWORD PTR ?fn_get_ui_object_y_size@@3PAP6GMPAUUI_OBJECT@@@ZA[edx*4]
  000b8	ff d0		 call	 eax
  000ba	d9 9d a4 fe ff
	ff		 fstp	 DWORD PTR tv253[ebp]
  000c0	f3 0f 10 85 a4
	fe ff ff	 movss	 xmm0, DWORD PTR tv253[ebp]
  000c8	f3 0f 58 85 f0
	fe ff ff	 addss	 xmm0, DWORD PTR _y1$[ebp]
  000d0	f3 0f 11 85 e8
	fe ff ff	 movss	 DWORD PTR _y2$[ebp], xmm0

; 283  : 
; 284  : 	{
; 285  : 		set_d3d_flat_shaded_textured_renderstate (scr);

  000d8	8b 45 08	 mov	 eax, DWORD PTR _scr$[ebp]
  000db	50		 push	 eax
  000dc	e8 00 00 00 00	 call	 ?set_d3d_flat_shaded_textured_renderstate@@YGXPAUSCREEN@@@Z ; set_d3d_flat_shaded_textured_renderstate

; 286  : 
; 287  : 		colour.red = 255;

  000e1	c6 85 fe fe ff
	ff ff		 mov	 BYTE PTR _colour$[ebp+2], 255 ; 000000ffH

; 288  : 		colour.green = 255;

  000e8	c6 85 fd fe ff
	ff ff		 mov	 BYTE PTR _colour$[ebp+1], 255 ; 000000ffH

; 289  : 		colour.blue = 255;

  000ef	c6 85 fc fe ff
	ff ff		 mov	 BYTE PTR _colour$[ebp], 255 ; 000000ffH

; 290  : 		colour.alpha = 255;

  000f6	c6 85 ff fe ff
	ff ff		 mov	 BYTE PTR _colour$[ebp+3], 255 ; 000000ffH

; 291  : 	
; 292  : 		specular.red = 0;

  000fd	c6 85 fa fe ff
	ff 00		 mov	 BYTE PTR _specular$[ebp+2], 0

; 293  : 		specular.green = 0;

  00104	c6 85 f9 fe ff
	ff 00		 mov	 BYTE PTR _specular$[ebp+1], 0

; 294  : 		specular.blue = 0;

  0010b	c6 85 f8 fe ff
	ff 00		 mov	 BYTE PTR _specular$[ebp], 0

; 295  : 		specular.alpha = 255;

  00112	c6 85 fb fe ff
	ff ff		 mov	 BYTE PTR _specular$[ebp+3], 255 ; 000000ffH

; 296  : 	
; 297  : 		quad[0].i = x1;

  00119	b8 40 00 00 00	 mov	 eax, 64			; 00000040H
  0011e	6b c8 00	 imul	 ecx, eax, 0
  00121	f3 0f 10 85 f4
	fe ff ff	 movss	 xmm0, DWORD PTR _x1$[ebp]
  00129	f3 0f 11 84 0d
	10 ff ff ff	 movss	 DWORD PTR _quad$[ebp+ecx+16], xmm0

; 298  : 		quad[0].j = y1;

  00132	b8 40 00 00 00	 mov	 eax, 64			; 00000040H
  00137	6b c8 00	 imul	 ecx, eax, 0
  0013a	f3 0f 10 85 f0
	fe ff ff	 movss	 xmm0, DWORD PTR _y1$[ebp]
  00142	f3 0f 11 84 0d
	14 ff ff ff	 movss	 DWORD PTR _quad$[ebp+ecx+20], xmm0

; 299  : 		quad[0].z = 0.5;

  0014b	b8 40 00 00 00	 mov	 eax, 64			; 00000040H
  00150	6b c8 00	 imul	 ecx, eax, 0
  00153	f3 0f 10 05 00
	00 00 00	 movss	 xmm0, DWORD PTR __real@3f000000
  0015b	f3 0f 11 84 0d
	08 ff ff ff	 movss	 DWORD PTR _quad$[ebp+ecx+8], xmm0

; 300  : 		quad[0].q = 0.5;

  00164	b8 40 00 00 00	 mov	 eax, 64			; 00000040H
  00169	6b c8 00	 imul	 ecx, eax, 0
  0016c	f3 0f 10 05 00
	00 00 00	 movss	 xmm0, DWORD PTR __real@3f000000
  00174	f3 0f 11 84 0d
	0c ff ff ff	 movss	 DWORD PTR _quad$[ebp+ecx+12], xmm0

; 301  : 		quad[0].u = 0;

  0017d	b8 40 00 00 00	 mov	 eax, 64			; 00000040H
  00182	6b c8 00	 imul	 ecx, eax, 0
  00185	0f 57 c0	 xorps	 xmm0, xmm0
  00188	f3 0f 11 84 0d
	18 ff ff ff	 movss	 DWORD PTR _quad$[ebp+ecx+24], xmm0

; 302  : 		quad[0].v = 0;

  00191	b8 40 00 00 00	 mov	 eax, 64			; 00000040H
  00196	6b c8 00	 imul	 ecx, eax, 0
  00199	0f 57 c0	 xorps	 xmm0, xmm0
  0019c	f3 0f 11 84 0d
	1c ff ff ff	 movss	 DWORD PTR _quad$[ebp+ecx+28], xmm0

; 303  : 	
; 304  : 		quad[1].i = x2;

  001a5	b8 40 00 00 00	 mov	 eax, 64			; 00000040H
  001aa	c1 e0 00	 shl	 eax, 0
  001ad	f3 0f 10 85 ec
	fe ff ff	 movss	 xmm0, DWORD PTR _x2$[ebp]
  001b5	f3 0f 11 84 05
	10 ff ff ff	 movss	 DWORD PTR _quad$[ebp+eax+16], xmm0

; 305  : 		quad[1].j = y1;

  001be	b8 40 00 00 00	 mov	 eax, 64			; 00000040H
  001c3	c1 e0 00	 shl	 eax, 0
  001c6	f3 0f 10 85 f0
	fe ff ff	 movss	 xmm0, DWORD PTR _y1$[ebp]
  001ce	f3 0f 11 84 05
	14 ff ff ff	 movss	 DWORD PTR _quad$[ebp+eax+20], xmm0

; 306  : 		quad[1].z = 0.5;

  001d7	b8 40 00 00 00	 mov	 eax, 64			; 00000040H
  001dc	c1 e0 00	 shl	 eax, 0
  001df	f3 0f 10 05 00
	00 00 00	 movss	 xmm0, DWORD PTR __real@3f000000
  001e7	f3 0f 11 84 05
	08 ff ff ff	 movss	 DWORD PTR _quad$[ebp+eax+8], xmm0

; 307  : 		quad[1].q = 0.5;

  001f0	b8 40 00 00 00	 mov	 eax, 64			; 00000040H
  001f5	c1 e0 00	 shl	 eax, 0
  001f8	f3 0f 10 05 00
	00 00 00	 movss	 xmm0, DWORD PTR __real@3f000000
  00200	f3 0f 11 84 05
	0c ff ff ff	 movss	 DWORD PTR _quad$[ebp+eax+12], xmm0

; 308  : 		quad[1].u = 1;

  00209	b8 40 00 00 00	 mov	 eax, 64			; 00000040H
  0020e	c1 e0 00	 shl	 eax, 0
  00211	f3 0f 10 05 00
	00 00 00	 movss	 xmm0, DWORD PTR __real@3f800000
  00219	f3 0f 11 84 05
	18 ff ff ff	 movss	 DWORD PTR _quad$[ebp+eax+24], xmm0

; 309  : 		quad[1].v = 0;

  00222	b8 40 00 00 00	 mov	 eax, 64			; 00000040H
  00227	c1 e0 00	 shl	 eax, 0
  0022a	0f 57 c0	 xorps	 xmm0, xmm0
  0022d	f3 0f 11 84 05
	1c ff ff ff	 movss	 DWORD PTR _quad$[ebp+eax+28], xmm0

; 310  : 	
; 311  : 		quad[2].i = x2;

  00236	b8 40 00 00 00	 mov	 eax, 64			; 00000040H
  0023b	d1 e0		 shl	 eax, 1
  0023d	f3 0f 10 85 ec
	fe ff ff	 movss	 xmm0, DWORD PTR _x2$[ebp]
  00245	f3 0f 11 84 05
	10 ff ff ff	 movss	 DWORD PTR _quad$[ebp+eax+16], xmm0

; 312  : 		quad[2].j = y2;

  0024e	b8 40 00 00 00	 mov	 eax, 64			; 00000040H
  00253	d1 e0		 shl	 eax, 1
  00255	f3 0f 10 85 e8
	fe ff ff	 movss	 xmm0, DWORD PTR _y2$[ebp]
  0025d	f3 0f 11 84 05
	14 ff ff ff	 movss	 DWORD PTR _quad$[ebp+eax+20], xmm0

; 313  : 		quad[2].z = 0.5;

  00266	b8 40 00 00 00	 mov	 eax, 64			; 00000040H
  0026b	d1 e0		 shl	 eax, 1
  0026d	f3 0f 10 05 00
	00 00 00	 movss	 xmm0, DWORD PTR __real@3f000000
  00275	f3 0f 11 84 05
	08 ff ff ff	 movss	 DWORD PTR _quad$[ebp+eax+8], xmm0

; 314  : 		quad[2].q = 0.5;

  0027e	b8 40 00 00 00	 mov	 eax, 64			; 00000040H
  00283	d1 e0		 shl	 eax, 1
  00285	f3 0f 10 05 00
	00 00 00	 movss	 xmm0, DWORD PTR __real@3f000000
  0028d	f3 0f 11 84 05
	0c ff ff ff	 movss	 DWORD PTR _quad$[ebp+eax+12], xmm0

; 315  : 		quad[2].u = 1;

  00296	b8 40 00 00 00	 mov	 eax, 64			; 00000040H
  0029b	d1 e0		 shl	 eax, 1
  0029d	f3 0f 10 05 00
	00 00 00	 movss	 xmm0, DWORD PTR __real@3f800000
  002a5	f3 0f 11 84 05
	18 ff ff ff	 movss	 DWORD PTR _quad$[ebp+eax+24], xmm0

; 316  : 		quad[2].v = 1;

  002ae	b8 40 00 00 00	 mov	 eax, 64			; 00000040H
  002b3	d1 e0		 shl	 eax, 1
  002b5	f3 0f 10 05 00
	00 00 00	 movss	 xmm0, DWORD PTR __real@3f800000
  002bd	f3 0f 11 84 05
	1c ff ff ff	 movss	 DWORD PTR _quad$[ebp+eax+28], xmm0

; 317  : 	
; 318  : 		quad[3].i = x1;

  002c6	b8 40 00 00 00	 mov	 eax, 64			; 00000040H
  002cb	6b c8 03	 imul	 ecx, eax, 3
  002ce	f3 0f 10 85 f4
	fe ff ff	 movss	 xmm0, DWORD PTR _x1$[ebp]
  002d6	f3 0f 11 84 0d
	10 ff ff ff	 movss	 DWORD PTR _quad$[ebp+ecx+16], xmm0

; 319  : 		quad[3].j = y2;

  002df	b8 40 00 00 00	 mov	 eax, 64			; 00000040H
  002e4	6b c8 03	 imul	 ecx, eax, 3
  002e7	f3 0f 10 85 e8
	fe ff ff	 movss	 xmm0, DWORD PTR _y2$[ebp]
  002ef	f3 0f 11 84 0d
	14 ff ff ff	 movss	 DWORD PTR _quad$[ebp+ecx+20], xmm0

; 320  : 		quad[3].z = 0.5;

  002f8	b8 40 00 00 00	 mov	 eax, 64			; 00000040H
  002fd	6b c8 03	 imul	 ecx, eax, 3
  00300	f3 0f 10 05 00
	00 00 00	 movss	 xmm0, DWORD PTR __real@3f000000
  00308	f3 0f 11 84 0d
	08 ff ff ff	 movss	 DWORD PTR _quad$[ebp+ecx+8], xmm0

; 321  : 		quad[3].q = 0.5;

  00311	b8 40 00 00 00	 mov	 eax, 64			; 00000040H
  00316	6b c8 03	 imul	 ecx, eax, 3
  00319	f3 0f 10 05 00
	00 00 00	 movss	 xmm0, DWORD PTR __real@3f000000
  00321	f3 0f 11 84 0d
	0c ff ff ff	 movss	 DWORD PTR _quad$[ebp+ecx+12], xmm0

; 322  : 		quad[3].u = 0;

  0032a	b8 40 00 00 00	 mov	 eax, 64			; 00000040H
  0032f	6b c8 03	 imul	 ecx, eax, 3
  00332	0f 57 c0	 xorps	 xmm0, xmm0
  00335	f3 0f 11 84 0d
	18 ff ff ff	 movss	 DWORD PTR _quad$[ebp+ecx+24], xmm0

; 323  : 		quad[3].v = 1;

  0033e	b8 40 00 00 00	 mov	 eax, 64			; 00000040H
  00343	6b c8 03	 imul	 ecx, eax, 3
  00346	f3 0f 10 05 00
	00 00 00	 movss	 xmm0, DWORD PTR __real@3f800000
  0034e	f3 0f 11 84 0d
	1c ff ff ff	 movss	 DWORD PTR _quad$[ebp+ecx+28], xmm0

; 324  : 	
; 325  : 		quad[0].next_vertex = &quad[1];

  00357	b8 40 00 00 00	 mov	 eax, 64			; 00000040H
  0035c	c1 e0 00	 shl	 eax, 0
  0035f	8d 8c 05 00 ff
	ff ff		 lea	 ecx, DWORD PTR _quad$[ebp+eax]
  00366	ba 40 00 00 00	 mov	 edx, 64			; 00000040H
  0036b	6b c2 00	 imul	 eax, edx, 0
  0036e	89 8c 05 28 ff
	ff ff		 mov	 DWORD PTR _quad$[ebp+eax+40], ecx

; 326  : 		quad[1].next_vertex = &quad[2];

  00375	b8 40 00 00 00	 mov	 eax, 64			; 00000040H
  0037a	d1 e0		 shl	 eax, 1
  0037c	8d 8c 05 00 ff
	ff ff		 lea	 ecx, DWORD PTR _quad$[ebp+eax]
  00383	ba 40 00 00 00	 mov	 edx, 64			; 00000040H
  00388	c1 e2 00	 shl	 edx, 0
  0038b	89 8c 15 28 ff
	ff ff		 mov	 DWORD PTR _quad$[ebp+edx+40], ecx

; 327  : 		quad[2].next_vertex = &quad[3];

  00392	b8 40 00 00 00	 mov	 eax, 64			; 00000040H
  00397	6b c8 03	 imul	 ecx, eax, 3
  0039a	8d 94 0d 00 ff
	ff ff		 lea	 edx, DWORD PTR _quad$[ebp+ecx]
  003a1	b8 40 00 00 00	 mov	 eax, 64			; 00000040H
  003a6	d1 e0		 shl	 eax, 1
  003a8	89 94 05 28 ff
	ff ff		 mov	 DWORD PTR _quad$[ebp+eax+40], edx

; 328  : 		quad[3].next_vertex = NULL;

  003af	b8 40 00 00 00	 mov	 eax, 64			; 00000040H
  003b4	6b c8 03	 imul	 ecx, eax, 3
  003b7	c7 84 0d 28 ff
	ff ff 00 00 00
	00		 mov	 DWORD PTR _quad$[ebp+ecx+40], 0

; 329  : 	
; 330  : 		draw_wbuffered_flat_shaded_textured_polygon ( quad, colour, specular );

  003c2	8b 85 f8 fe ff
	ff		 mov	 eax, DWORD PTR _specular$[ebp]
  003c8	50		 push	 eax
  003c9	8b 8d fc fe ff
	ff		 mov	 ecx, DWORD PTR _colour$[ebp]
  003cf	51		 push	 ecx
  003d0	8d 95 00 ff ff
	ff		 lea	 edx, DWORD PTR _quad$[ebp]
  003d6	52		 push	 edx
  003d7	e8 00 00 00 00	 call	 ?draw_wbuffered_flat_shaded_textured_polygon@@YGXPAUVERTEX@@UREAL_COLOUR@@1@Z ; draw_wbuffered_flat_shaded_textured_polygon

; 331  : 	}
; 332  : }

  003dc	5f		 pop	 edi
  003dd	5e		 pop	 esi
  003de	5b		 pop	 ebx
  003df	8b e5		 mov	 esp, ebp
  003e1	5d		 pop	 ebp
  003e2	c2 08 00	 ret	 8
?draw_campaign_screen_texture_to_object@@YGXPAUSCREEN@@PAUUI_OBJECT@@@Z ENDP ; draw_campaign_screen_texture_to_object
_TEXT	ENDS
; Function compile flags: /Odtp /ZI
; File c:\users\nhv90\projects\eech\aphavoc\source\ui_menu\ingame\campaign\ca_3d.c
;	COMDAT ?draw_campaign_screen_entity_3d_scene@@YGXPAUUI_OBJECT@@MPAUVEC3D@@@Z
_TEXT	SEGMENT
tv139 = -140						; size = 4
tv131 = -136						; size = 4
tv87 = -136						; size = 4
_vp$ = -68						; size = 48
_temp$ = -20						; size = 12
_pos$ = -8						; size = 4
_en$ = -4						; size = 4
_obj$ = 8						; size = 4
_distance$ = 12						; size = 4
_direction$ = 16					; size = 4
?draw_campaign_screen_entity_3d_scene@@YGXPAUUI_OBJECT@@MPAUVEC3D@@@Z PROC ; draw_campaign_screen_entity_3d_scene, COMDAT

; 209  : {

  00000	55		 push	 ebp
  00001	8b ec		 mov	 ebp, esp
  00003	81 ec 8c 00 00
	00		 sub	 esp, 140		; 0000008cH
  00009	53		 push	 ebx
  0000a	56		 push	 esi
  0000b	57		 push	 edi

; 210  : 	entity
; 211  : 		*en;
; 212  : 
; 213  : 	vec3d
; 214  : 		*pos,
; 215  : 		temp;
; 216  : 
; 217  : 	viewpoint
; 218  : 		vp;
; 219  : 
; 220  : 	ASSERT (obj);

  0000c	83 7d 08 00	 cmp	 DWORD PTR _obj$[ebp], 0
  00010	75 18		 jne	 SHORT $LN2@draw_campa
  00012	a1 00 00 00 00	 mov	 eax, DWORD PTR ?__LINE__Var@?0??draw_campaign_screen_entity_3d_scene@@YGXPAUUI_OBJECT@@MPAUVEC3D@@@Z@4JA
  00017	83 c0 0b	 add	 eax, 11			; 0000000bH
  0001a	50		 push	 eax
  0001b	68 00 00 00 00	 push	 OFFSET ??_C@_0EM@LHIGKKCE@c?3?2users?2nhv90?2projects?2eech?2ap@
  00020	68 00 00 00 00	 push	 OFFSET ??_C@_03GJLPFLNF@obj@
  00025	e8 00 00 00 00	 call	 ?process_assert@@YGXPBD0H@Z ; process_assert
$LN2@draw_campa:

; 221  : 
; 222  : 	ASSERT (direction);

  0002a	83 7d 10 00	 cmp	 DWORD PTR _direction$[ebp], 0
  0002e	75 18		 jne	 SHORT $LN3@draw_campa
  00030	a1 00 00 00 00	 mov	 eax, DWORD PTR ?__LINE__Var@?0??draw_campaign_screen_entity_3d_scene@@YGXPAUUI_OBJECT@@MPAUVEC3D@@@Z@4JA
  00035	83 c0 0d	 add	 eax, 13			; 0000000dH
  00038	50		 push	 eax
  00039	68 00 00 00 00	 push	 OFFSET ??_C@_0EM@LHIGKKCE@c?3?2users?2nhv90?2projects?2eech?2ap@
  0003e	68 00 00 00 00	 push	 OFFSET ??_C@_09HPKLLIJF@direction@
  00043	e8 00 00 00 00	 call	 ?process_assert@@YGXPBD0H@Z ; process_assert
$LN3@draw_campa:

; 223  : 
; 224  : 	en = get_local_entity_safe_ptr (get_ui_object_item_number (obj));

  00048	8b 45 08	 mov	 eax, DWORD PTR _obj$[ebp]
  0004b	50		 push	 eax
  0004c	8b 4d 08	 mov	 ecx, DWORD PTR _obj$[ebp]
  0004f	8b 11		 mov	 edx, DWORD PTR [ecx]
  00051	8b 04 95 00 00
	00 00		 mov	 eax, DWORD PTR ?fn_get_ui_object_item_number@@3PAP6GHPAUUI_OBJECT@@@ZA[edx*4]
  00058	ff d0		 call	 eax
  0005a	83 f8 ff	 cmp	 eax, -1
  0005d	74 23		 je	 SHORT $LN7@draw_campa
  0005f	8b 4d 08	 mov	 ecx, DWORD PTR _obj$[ebp]
  00062	51		 push	 ecx
  00063	8b 55 08	 mov	 edx, DWORD PTR _obj$[ebp]
  00066	8b 02		 mov	 eax, DWORD PTR [edx]
  00068	8b 0c 85 00 00
	00 00		 mov	 ecx, DWORD PTR ?fn_get_ui_object_item_number@@3PAP6GHPAUUI_OBJECT@@@ZA[eax*4]
  0006f	ff d1		 call	 ecx
  00071	c1 e0 04	 shl	 eax, 4
  00074	03 05 00 00 00
	00		 add	 eax, DWORD PTR ?entities@@3PAUENTITY@@A ; entities
  0007a	89 85 78 ff ff
	ff		 mov	 DWORD PTR tv87[ebp], eax
  00080	eb 0a		 jmp	 SHORT $LN8@draw_campa
$LN7@draw_campa:
  00082	c7 85 78 ff ff
	ff 00 00 00 00	 mov	 DWORD PTR tv87[ebp], 0
$LN8@draw_campa:
  0008c	8b 95 78 ff ff
	ff		 mov	 edx, DWORD PTR tv87[ebp]
  00092	89 55 fc	 mov	 DWORD PTR _en$[ebp], edx

; 225  : 
; 226  : 	ASSERT (en);

  00095	83 7d fc 00	 cmp	 DWORD PTR _en$[ebp], 0
  00099	75 18		 jne	 SHORT $LN4@draw_campa
  0009b	a1 00 00 00 00	 mov	 eax, DWORD PTR ?__LINE__Var@?0??draw_campaign_screen_entity_3d_scene@@YGXPAUUI_OBJECT@@MPAUVEC3D@@@Z@4JA
  000a0	83 c0 11	 add	 eax, 17			; 00000011H
  000a3	50		 push	 eax
  000a4	68 00 00 00 00	 push	 OFFSET ??_C@_0EM@LHIGKKCE@c?3?2users?2nhv90?2projects?2eech?2ap@
  000a9	68 00 00 00 00	 push	 OFFSET ??_C@_02LFNMGJAP@en@
  000ae	e8 00 00 00 00	 call	 ?process_assert@@YGXPBD0H@Z ; process_assert
$LN4@draw_campa:

; 227  : 
; 228  : 	pos = get_local_entity_vec3d_ptr (en, VEC3D_TYPE_POSITION);

  000b3	83 7d fc 00	 cmp	 DWORD PTR _en$[ebp], 0
  000b7	74 0d		 je	 SHORT $LN9@draw_campa
  000b9	8b 45 fc	 mov	 eax, DWORD PTR _en$[ebp]
  000bc	8b 08		 mov	 ecx, DWORD PTR [eax]
  000be	89 8d 78 ff ff
	ff		 mov	 DWORD PTR tv131[ebp], ecx
  000c4	eb 24		 jmp	 SHORT $LN10@draw_campa
$LN9@draw_campa:
  000c6	8b 15 00 00 00
	00		 mov	 edx, DWORD PTR ?__LINE__Var@?0??draw_campaign_screen_entity_3d_scene@@YGXPAUUI_OBJECT@@MPAUVEC3D@@@Z@4JA
  000cc	83 c2 13	 add	 edx, 19			; 00000013H
  000cf	52		 push	 edx
  000d0	68 00 00 00 00	 push	 OFFSET ??_C@_0EM@LHIGKKCE@c?3?2users?2nhv90?2projects?2eech?2ap@
  000d5	a1 00 00 00 00	 mov	 eax, DWORD PTR ?null_entity_pointer_message@@3PBDB ; null_entity_pointer_message
  000da	50		 push	 eax
  000db	e8 00 00 00 00	 call	 ?process_assert@@YGXPBD0H@Z ; process_assert
  000e0	c7 85 78 ff ff
	ff 00 00 00 00	 mov	 DWORD PTR tv131[ebp], 0
$LN10@draw_campa:
  000ea	b9 01 00 00 00	 mov	 ecx, 1
  000ef	85 c9		 test	 ecx, ecx
  000f1	74 0c		 je	 SHORT $LN11@draw_campa
  000f3	c7 85 74 ff ff
	ff 08 00 00 00	 mov	 DWORD PTR tv139[ebp], 8
  000fd	eb 24		 jmp	 SHORT $LN12@draw_campa
$LN11@draw_campa:
  000ff	8b 15 00 00 00
	00		 mov	 edx, DWORD PTR ?__LINE__Var@?0??draw_campaign_screen_entity_3d_scene@@YGXPAUUI_OBJECT@@MPAUVEC3D@@@Z@4JA
  00105	83 c2 13	 add	 edx, 19			; 00000013H
  00108	52		 push	 edx
  00109	68 00 00 00 00	 push	 OFFSET ??_C@_0EM@LHIGKKCE@c?3?2users?2nhv90?2projects?2eech?2ap@
  0010e	a1 00 00 00 00	 mov	 eax, DWORD PTR ?overload_invalid_vec3d_type_message@@3PBDB ; overload_invalid_vec3d_type_message
  00113	50		 push	 eax
  00114	e8 00 00 00 00	 call	 ?process_assert@@YGXPBD0H@Z ; process_assert
  00119	c7 85 74 ff ff
	ff 00 00 00 00	 mov	 DWORD PTR tv139[ebp], 0
$LN12@draw_campa:
  00123	6a 08		 push	 8
  00125	8b 4d fc	 mov	 ecx, DWORD PTR _en$[ebp]
  00128	51		 push	 ecx
  00129	6b 95 78 ff ff
	ff 60		 imul	 edx, DWORD PTR tv131[ebp], 96
  00130	8b 85 74 ff ff
	ff		 mov	 eax, DWORD PTR tv139[ebp]
  00136	8b 8c 82 00 00
	00 00		 mov	 ecx, DWORD PTR ?fn_get_local_entity_vec3d_ptr@@3PAY0BI@P6GPAUVEC3D@@PAUENTITY@@W4VEC3D_TYPES@@@ZA[edx+eax*4]
  0013d	ff d1		 call	 ecx
  0013f	89 45 f8	 mov	 DWORD PTR _pos$[ebp], eax

; 229  : 
; 230  : 	ASSERT (pos);

  00142	83 7d f8 00	 cmp	 DWORD PTR _pos$[ebp], 0
  00146	75 18		 jne	 SHORT $LN5@draw_campa
  00148	a1 00 00 00 00	 mov	 eax, DWORD PTR ?__LINE__Var@?0??draw_campaign_screen_entity_3d_scene@@YGXPAUUI_OBJECT@@MPAUVEC3D@@@Z@4JA
  0014d	83 c0 15	 add	 eax, 21			; 00000015H
  00150	50		 push	 eax
  00151	68 00 00 00 00	 push	 OFFSET ??_C@_0EM@LHIGKKCE@c?3?2users?2nhv90?2projects?2eech?2ap@
  00156	68 00 00 00 00	 push	 OFFSET ??_C@_03PCBNCGFH@pos@
  0015b	e8 00 00 00 00	 call	 ?process_assert@@YGXPBD0H@Z ; process_assert
$LN5@draw_campa:

; 231  : 
; 232  : 	//
; 233  : 	// set camera position
; 234  : 	//
; 235  : 
; 236  : 	vp.x = pos->x + (direction->x * distance);

  00160	8b 45 10	 mov	 eax, DWORD PTR _direction$[ebp]
  00163	f3 0f 10 00	 movss	 xmm0, DWORD PTR [eax]
  00167	f3 0f 59 45 0c	 mulss	 xmm0, DWORD PTR _distance$[ebp]
  0016c	8b 4d f8	 mov	 ecx, DWORD PTR _pos$[ebp]
  0016f	f3 0f 58 01	 addss	 xmm0, DWORD PTR [ecx]
  00173	f3 0f 11 45 bc	 movss	 DWORD PTR _vp$[ebp], xmm0

; 237  : 	vp.y = pos->y + (direction->y * distance);

  00178	8b 45 10	 mov	 eax, DWORD PTR _direction$[ebp]
  0017b	f3 0f 10 40 04	 movss	 xmm0, DWORD PTR [eax+4]
  00180	f3 0f 59 45 0c	 mulss	 xmm0, DWORD PTR _distance$[ebp]
  00185	8b 4d f8	 mov	 ecx, DWORD PTR _pos$[ebp]
  00188	f3 0f 58 41 04	 addss	 xmm0, DWORD PTR [ecx+4]
  0018d	f3 0f 11 45 c0	 movss	 DWORD PTR _vp$[ebp+4], xmm0

; 238  : 	vp.z = pos->z + (direction->z * distance);

  00192	8b 45 10	 mov	 eax, DWORD PTR _direction$[ebp]
  00195	f3 0f 10 40 08	 movss	 xmm0, DWORD PTR [eax+8]
  0019a	f3 0f 59 45 0c	 mulss	 xmm0, DWORD PTR _distance$[ebp]
  0019f	8b 4d f8	 mov	 ecx, DWORD PTR _pos$[ebp]
  001a2	f3 0f 58 41 08	 addss	 xmm0, DWORD PTR [ecx+8]
  001a7	f3 0f 11 45 c4	 movss	 DWORD PTR _vp$[ebp+8], xmm0

; 239  : 	
; 240  : 	//
; 241  : 	// set camera attitude
; 242  : 	//
; 243  : 
; 244  : 	temp.x = -(direction->x);

  001ac	8b 45 10	 mov	 eax, DWORD PTR _direction$[ebp]
  001af	f3 0f 10 00	 movss	 xmm0, DWORD PTR [eax]
  001b3	0f 57 05 00 00
	00 00		 xorps	 xmm0, DWORD PTR __xmm@80000000800000008000000080000000
  001ba	f3 0f 11 45 ec	 movss	 DWORD PTR _temp$[ebp], xmm0

; 245  : 	temp.y = -(direction->y);

  001bf	8b 45 10	 mov	 eax, DWORD PTR _direction$[ebp]
  001c2	f3 0f 10 40 04	 movss	 xmm0, DWORD PTR [eax+4]
  001c7	0f 57 05 00 00
	00 00		 xorps	 xmm0, DWORD PTR __xmm@80000000800000008000000080000000
  001ce	f3 0f 11 45 f0	 movss	 DWORD PTR _temp$[ebp+4], xmm0

; 246  : 	temp.z = -(direction->z);

  001d3	8b 45 10	 mov	 eax, DWORD PTR _direction$[ebp]
  001d6	f3 0f 10 40 08	 movss	 xmm0, DWORD PTR [eax+8]
  001db	0f 57 05 00 00
	00 00		 xorps	 xmm0, DWORD PTR __xmm@80000000800000008000000080000000
  001e2	f3 0f 11 45 f4	 movss	 DWORD PTR _temp$[ebp+8], xmm0

; 247  : 
; 248  : 	get_matrix3x3_from_unit_vec3d (vp.attitude, &temp);

  001e7	8d 45 ec	 lea	 eax, DWORD PTR _temp$[ebp]
  001ea	50		 push	 eax
  001eb	8d 4d c8	 lea	 ecx, DWORD PTR _vp$[ebp+12]
  001ee	51		 push	 ecx
  001ef	e8 00 00 00 00	 call	 ?get_matrix3x3_from_unit_vec3d@@YGXQAY02MPBUVEC3D@@@Z ; get_matrix3x3_from_unit_vec3d

; 249  : 
; 250  : 	draw_campaign_screen_3d_scene (obj, &vp);

  001f4	8d 45 bc	 lea	 eax, DWORD PTR _vp$[ebp]
  001f7	50		 push	 eax
  001f8	8b 4d 08	 mov	 ecx, DWORD PTR _obj$[ebp]
  001fb	51		 push	 ecx
  001fc	e8 00 00 00 00	 call	 ?draw_campaign_screen_3d_scene@@YGXPAUUI_OBJECT@@PAUVIEWPOINT@@@Z ; draw_campaign_screen_3d_scene

; 251  : }

  00201	5f		 pop	 edi
  00202	5e		 pop	 esi
  00203	5b		 pop	 ebx
  00204	8b e5		 mov	 esp, ebp
  00206	5d		 pop	 ebp
  00207	c2 0c 00	 ret	 12			; 0000000cH
?draw_campaign_screen_entity_3d_scene@@YGXPAUUI_OBJECT@@MPAUVEC3D@@@Z ENDP ; draw_campaign_screen_entity_3d_scene
_TEXT	ENDS
; Function compile flags: /Odtp /ZI
; File c:\users\nhv90\projects\eech\aphavoc\source\ui_menu\ingame\campaign\ca_3d.c
;	COMDAT ?draw_campaign_screen_3d_scene_to_texture@@YGXPAUSCREEN@@PAUVIEWPOINT@@M@Z
_TEXT	SEGMENT
tv128 = -96						; size = 4
tv88 = -92						; size = 4
_day_segment_type$ = -24				; size = 4
_tint$ = -20						; size = 4
_height$ = -16						; size = 4
_width$ = -12						; size = 4
_y1$ = -8						; size = 4
_x1$ = -4						; size = 4
_scr$ = 8						; size = 4
_vp$ = 12						; size = 4
_size$ = 16						; size = 4
?draw_campaign_screen_3d_scene_to_texture@@YGXPAUSCREEN@@PAUVIEWPOINT@@M@Z PROC ; draw_campaign_screen_3d_scene_to_texture, COMDAT

; 148  : {

  00000	55		 push	 ebp
  00001	8b ec		 mov	 ebp, esp
  00003	83 ec 60	 sub	 esp, 96			; 00000060H
  00006	53		 push	 ebx
  00007	56		 push	 esi
  00008	57		 push	 edi

; 149  : 	float
; 150  : 		x1,
; 151  : 		y1,
; 152  : 		width,
; 153  : 		height;
; 154  : 
; 155  : 	display_3d_tints
; 156  : 		tint;
; 157  : 
; 158  : 	day_segment_types
; 159  : 		day_segment_type;
; 160  : 
; 161  : 	ASSERT (vp);

  00009	83 7d 0c 00	 cmp	 DWORD PTR _vp$[ebp], 0
  0000d	75 18		 jne	 SHORT $LN2@draw_campa
  0000f	a1 00 00 00 00	 mov	 eax, DWORD PTR ?__LINE__Var@?0??draw_campaign_screen_3d_scene_to_texture@@YGXPAUSCREEN@@PAUVIEWPOINT@@M@Z@4JA
  00014	83 c0 0d	 add	 eax, 13			; 0000000dH
  00017	50		 push	 eax
  00018	68 00 00 00 00	 push	 OFFSET ??_C@_0EM@LHIGKKCE@c?3?2users?2nhv90?2projects?2eech?2ap@
  0001d	68 00 00 00 00	 push	 OFFSET ??_C@_02HPPNELPJ@vp@
  00022	e8 00 00 00 00	 call	 ?process_assert@@YGXPBD0H@Z ; process_assert
$LN2@draw_campa:

; 162  : 
; 163  : 	ASSERT (scr);

  00027	83 7d 08 00	 cmp	 DWORD PTR _scr$[ebp], 0
  0002b	75 18		 jne	 SHORT $LN3@draw_campa
  0002d	a1 00 00 00 00	 mov	 eax, DWORD PTR ?__LINE__Var@?0??draw_campaign_screen_3d_scene_to_texture@@YGXPAUSCREEN@@PAUVIEWPOINT@@M@Z@4JA
  00032	83 c0 0f	 add	 eax, 15			; 0000000fH
  00035	50		 push	 eax
  00036	68 00 00 00 00	 push	 OFFSET ??_C@_0EM@LHIGKKCE@c?3?2users?2nhv90?2projects?2eech?2ap@
  0003b	68 00 00 00 00	 push	 OFFSET ??_C@_03PAKJEBJM@scr@
  00040	e8 00 00 00 00	 call	 ?process_assert@@YGXPBD0H@Z ; process_assert
$LN3@draw_campa:

; 164  : 
; 165  : 	ASSERT (d3d_can_render_to_texture);

  00045	83 3d 00 00 00
	00 00		 cmp	 DWORD PTR ?d3d_can_render_to_texture@@3HA, 0 ; d3d_can_render_to_texture
  0004c	75 18		 jne	 SHORT $LN4@draw_campa
  0004e	a1 00 00 00 00	 mov	 eax, DWORD PTR ?__LINE__Var@?0??draw_campaign_screen_3d_scene_to_texture@@YGXPAUSCREEN@@PAUVIEWPOINT@@M@Z@4JA
  00053	83 c0 11	 add	 eax, 17			; 00000011H
  00056	50		 push	 eax
  00057	68 00 00 00 00	 push	 OFFSET ??_C@_0EM@LHIGKKCE@c?3?2users?2nhv90?2projects?2eech?2ap@
  0005c	68 00 00 00 00	 push	 OFFSET ??_C@_0BK@EPIBEIKA@d3d_can_render_to_texture@
  00061	e8 00 00 00 00	 call	 ?process_assert@@YGXPBD0H@Z ; process_assert
$LN4@draw_campa:

; 166  : 
; 167  : 	memcpy (&main_vp, vp, sizeof (viewpoint));

  00066	6a 30		 push	 48			; 00000030H
  00068	8b 45 0c	 mov	 eax, DWORD PTR _vp$[ebp]
  0006b	50		 push	 eax
  0006c	68 00 00 00 00	 push	 OFFSET ?main_vp@@3UVIEWPOINT@@A ; main_vp
  00071	e8 00 00 00 00	 call	 _memcpy
  00076	83 c4 0c	 add	 esp, 12			; 0000000cH

; 168  : 
; 169  : 	x1 = 0.0;

  00079	0f 57 c0	 xorps	 xmm0, xmm0
  0007c	f3 0f 11 45 fc	 movss	 DWORD PTR _x1$[ebp], xmm0

; 170  : 
; 171  : 	y1 = 0.0;

  00081	0f 57 c0	 xorps	 xmm0, xmm0
  00084	f3 0f 11 45 f8	 movss	 DWORD PTR _y1$[ebp], xmm0

; 172  : 
; 173  : 	width = size;

  00089	f3 0f 10 45 10	 movss	 xmm0, DWORD PTR _size$[ebp]
  0008e	f3 0f 11 45 f4	 movss	 DWORD PTR _width$[ebp], xmm0

; 174  : 
; 175  : 	height = size;

  00093	f3 0f 10 45 10	 movss	 xmm0, DWORD PTR _size$[ebp]
  00098	f3 0f 11 45 f0	 movss	 DWORD PTR _height$[ebp], xmm0

; 176  : 
; 177  : 	day_segment_type = (day_segment_types) get_local_entity_int_value (get_session_entity (), INT_TYPE_DAY_SEGMENT_TYPE);

  0009d	83 3d 00 00 00
	00 00		 cmp	 DWORD PTR ?session_entity@@3PAUENTITY@@A, 0 ; session_entity
  000a4	74 0c		 je	 SHORT $LN8@draw_campa
  000a6	a1 00 00 00 00	 mov	 eax, DWORD PTR ?session_entity@@3PAUENTITY@@A ; session_entity
  000ab	8b 08		 mov	 ecx, DWORD PTR [eax]
  000ad	89 4d a4	 mov	 DWORD PTR tv88[ebp], ecx
  000b0	eb 21		 jmp	 SHORT $LN9@draw_campa
$LN8@draw_campa:
  000b2	8b 15 00 00 00
	00		 mov	 edx, DWORD PTR ?__LINE__Var@?0??draw_campaign_screen_3d_scene_to_texture@@YGXPAUSCREEN@@PAUVIEWPOINT@@M@Z@4JA
  000b8	83 c2 1d	 add	 edx, 29			; 0000001dH
  000bb	52		 push	 edx
  000bc	68 00 00 00 00	 push	 OFFSET ??_C@_0EM@LHIGKKCE@c?3?2users?2nhv90?2projects?2eech?2ap@
  000c1	a1 00 00 00 00	 mov	 eax, DWORD PTR ?null_entity_pointer_message@@3PBDB ; null_entity_pointer_message
  000c6	50		 push	 eax
  000c7	e8 00 00 00 00	 call	 ?process_assert@@YGXPBD0H@Z ; process_assert
  000cc	c7 45 a4 00 00
	00 00		 mov	 DWORD PTR tv88[ebp], 0
$LN9@draw_campa:
  000d3	b9 01 00 00 00	 mov	 ecx, 1
  000d8	85 c9		 test	 ecx, ecx
  000da	74 09		 je	 SHORT $LN10@draw_campa
  000dc	c7 45 a0 27 00
	00 00		 mov	 DWORD PTR tv128[ebp], 39 ; 00000027H
  000e3	eb 21		 jmp	 SHORT $LN11@draw_campa
$LN10@draw_campa:
  000e5	8b 15 00 00 00
	00		 mov	 edx, DWORD PTR ?__LINE__Var@?0??draw_campaign_screen_3d_scene_to_texture@@YGXPAUSCREEN@@PAUVIEWPOINT@@M@Z@4JA
  000eb	83 c2 1d	 add	 edx, 29			; 0000001dH
  000ee	52		 push	 edx
  000ef	68 00 00 00 00	 push	 OFFSET ??_C@_0EM@LHIGKKCE@c?3?2users?2nhv90?2projects?2eech?2ap@
  000f4	a1 00 00 00 00	 mov	 eax, DWORD PTR ?overload_invalid_int_type_message@@3PBDB ; overload_invalid_int_type_message
  000f9	50		 push	 eax
  000fa	e8 00 00 00 00	 call	 ?process_assert@@YGXPBD0H@Z ; process_assert
  000ff	c7 45 a0 00 00
	00 00		 mov	 DWORD PTR tv128[ebp], 0
$LN11@draw_campa:
  00106	6a 27		 push	 39			; 00000027H
  00108	8b 0d 00 00 00
	00		 mov	 ecx, DWORD PTR ?session_entity@@3PAUENTITY@@A ; session_entity
  0010e	51		 push	 ecx
  0010f	69 55 a4 5c 04
	00 00		 imul	 edx, DWORD PTR tv88[ebp], 1116
  00116	8b 45 a0	 mov	 eax, DWORD PTR tv128[ebp]
  00119	8b 8c 82 00 00
	00 00		 mov	 ecx, DWORD PTR ?fn_get_local_entity_int_value@@3PAY0BBH@P6GHPAUENTITY@@W4INT_TYPES@@@ZA[edx+eax*4]
  00120	ff d1		 call	 ecx
  00122	89 45 e8	 mov	 DWORD PTR _day_segment_type$[ebp], eax

; 178  : 
; 179  : 	if (day_segment_type == DAY_SEGMENT_TYPE_NIGHT)

  00125	83 7d e8 03	 cmp	 DWORD PTR _day_segment_type$[ebp], 3
  00129	75 09		 jne	 SHORT $LN5@draw_campa

; 180  : 	{
; 181  : 		tint = DISPLAY_3D_TINT_GREEN;

  0012b	c7 45 ec 03 00
	00 00		 mov	 DWORD PTR _tint$[ebp], 3

; 182  : 	}
; 183  : 	else

  00132	eb 07		 jmp	 SHORT $LN6@draw_campa
$LN5@draw_campa:

; 184  : 	{
; 185  : 		tint = DISPLAY_3D_TINT_CLEAR;

  00134	c7 45 ec 00 00
	00 00		 mov	 DWORD PTR _tint$[ebp], 0
$LN6@draw_campa:

; 186  : 	}
; 187  : 
; 188  : 	set_main_3d_params

  0013b	51		 push	 ecx
  0013c	f3 0f 10 05 00
	00 00 00	 movss	 xmm0, DWORD PTR ?full_screen_height_view_angle@@3MA
  00144	f3 0f 11 04 24	 movss	 DWORD PTR [esp], xmm0
  00149	51		 push	 ecx
  0014a	f3 0f 10 05 00
	00 00 00	 movss	 xmm0, DWORD PTR ?full_screen_width_view_angle@@3MA
  00152	f3 0f 11 04 24	 movss	 DWORD PTR [esp], xmm0
  00157	51		 push	 ecx
  00158	f3 0f 10 45 f0	 movss	 xmm0, DWORD PTR _height$[ebp]
  0015d	f3 0f 11 04 24	 movss	 DWORD PTR [esp], xmm0
  00162	51		 push	 ecx
  00163	f3 0f 10 45 f4	 movss	 xmm0, DWORD PTR _width$[ebp]
  00168	f3 0f 11 04 24	 movss	 DWORD PTR [esp], xmm0
  0016d	51		 push	 ecx
  0016e	f3 0f 10 45 f8	 movss	 xmm0, DWORD PTR _y1$[ebp]
  00173	f3 0f 11 04 24	 movss	 DWORD PTR [esp], xmm0
  00178	51		 push	 ecx
  00179	f3 0f 10 45 fc	 movss	 xmm0, DWORD PTR _x1$[ebp]
  0017e	f3 0f 11 04 24	 movss	 DWORD PTR [esp], xmm0
  00183	6a 00		 push	 0
  00185	6a 02		 push	 2
  00187	8b 45 ec	 mov	 eax, DWORD PTR _tint$[ebp]
  0018a	50		 push	 eax
  0018b	e8 00 00 00 00	 call	 ?set_main_3d_params@@YGXW4DISPLAY_3D_TINTS@@W4DISPLAY_3D_LIGHT_LEVELS@@W4DISPLAY_3D_NOISE_LEVELS@@MMMMMM@Z ; set_main_3d_params

; 189  : 	(
; 190  : 		tint,
; 191  : 		DISPLAY_3D_LIGHT_LEVEL_HIGH,
; 192  : 		DISPLAY_3D_NOISE_LEVEL_NONE,
; 193  : 		x1,
; 194  : 		y1,
; 195  : 		width,
; 196  : 		height,
; 197  : 		full_screen_width_view_angle,
; 198  : 		full_screen_height_view_angle
; 199  : 	);
; 200  : 
; 201  : 	draw_application_3d_scene_to_texture (scr, size);

  00190	51		 push	 ecx
  00191	f3 0f 10 45 10	 movss	 xmm0, DWORD PTR _size$[ebp]
  00196	f3 0f 11 04 24	 movss	 DWORD PTR [esp], xmm0
  0019b	8b 45 08	 mov	 eax, DWORD PTR _scr$[ebp]
  0019e	50		 push	 eax
  0019f	e8 00 00 00 00	 call	 ?draw_application_3d_scene_to_texture@@YGXPAUSCREEN@@M@Z ; draw_application_3d_scene_to_texture

; 202  : }

  001a4	5f		 pop	 edi
  001a5	5e		 pop	 esi
  001a6	5b		 pop	 ebx
  001a7	8b e5		 mov	 esp, ebp
  001a9	5d		 pop	 ebp
  001aa	c2 0c 00	 ret	 12			; 0000000cH
?draw_campaign_screen_3d_scene_to_texture@@YGXPAUSCREEN@@PAUVIEWPOINT@@M@Z ENDP ; draw_campaign_screen_3d_scene_to_texture
_TEXT	ENDS
; Function compile flags: /Odtp /ZI
; File c:\users\nhv90\projects\eech\aphavoc\source\ui_menu\ingame\campaign\ca_3d.c
;	COMDAT ?draw_campaign_screen_3d_scene@@YGXPAUUI_OBJECT@@PAUVIEWPOINT@@@Z
_TEXT	SEGMENT
tv155 = -112						; size = 4
tv147 = -108						; size = 4
_day_segment_type$ = -40				; size = 4
_tint$ = -36						; size = 4
_iheight$ = -32						; size = 4
_iwidth$ = -28						; size = 4
_iy$ = -24						; size = 4
_ix$ = -20						; size = 4
_height$ = -16						; size = 4
_width$ = -12						; size = 4
_y$ = -8						; size = 4
_x$ = -4						; size = 4
_obj$ = 8						; size = 4
_vp$ = 12						; size = 4
?draw_campaign_screen_3d_scene@@YGXPAUUI_OBJECT@@PAUVIEWPOINT@@@Z PROC ; draw_campaign_screen_3d_scene, COMDAT

; 74   : {

  00000	55		 push	 ebp
  00001	8b ec		 mov	 ebp, esp
  00003	83 ec 70	 sub	 esp, 112		; 00000070H
  00006	53		 push	 ebx
  00007	56		 push	 esi
  00008	57		 push	 edi

; 75   : 	float
; 76   : 		x,
; 77   : 		y,
; 78   : 		width,
; 79   : 		height;
; 80   : 
; 81   : 	int
; 82   : 		ix,
; 83   : 		iy,
; 84   : 		iwidth,
; 85   : 		iheight;
; 86   : 
; 87   : 	display_3d_tints
; 88   : 		tint;
; 89   : 		
; 90   : 	day_segment_types
; 91   : 		day_segment_type;
; 92   : 
; 93   : 	ASSERT (vp);

  00009	83 7d 0c 00	 cmp	 DWORD PTR _vp$[ebp], 0
  0000d	75 18		 jne	 SHORT $LN2@draw_campa
  0000f	a1 00 00 00 00	 mov	 eax, DWORD PTR ?__LINE__Var@?0??draw_campaign_screen_3d_scene@@YGXPAUUI_OBJECT@@PAUVIEWPOINT@@@Z@4JA
  00014	83 c0 13	 add	 eax, 19			; 00000013H
  00017	50		 push	 eax
  00018	68 00 00 00 00	 push	 OFFSET ??_C@_0EM@LHIGKKCE@c?3?2users?2nhv90?2projects?2eech?2ap@
  0001d	68 00 00 00 00	 push	 OFFSET ??_C@_02HPPNELPJ@vp@
  00022	e8 00 00 00 00	 call	 ?process_assert@@YGXPBD0H@Z ; process_assert
$LN2@draw_campa:

; 94   : 
; 95   : 	ASSERT (obj);

  00027	83 7d 08 00	 cmp	 DWORD PTR _obj$[ebp], 0
  0002b	75 18		 jne	 SHORT $LN3@draw_campa
  0002d	a1 00 00 00 00	 mov	 eax, DWORD PTR ?__LINE__Var@?0??draw_campaign_screen_3d_scene@@YGXPAUUI_OBJECT@@PAUVIEWPOINT@@@Z@4JA
  00032	83 c0 15	 add	 eax, 21			; 00000015H
  00035	50		 push	 eax
  00036	68 00 00 00 00	 push	 OFFSET ??_C@_0EM@LHIGKKCE@c?3?2users?2nhv90?2projects?2eech?2ap@
  0003b	68 00 00 00 00	 push	 OFFSET ??_C@_03GJLPFLNF@obj@
  00040	e8 00 00 00 00	 call	 ?process_assert@@YGXPBD0H@Z ; process_assert
$LN3@draw_campa:

; 96   : 
; 97   : 	memcpy (&main_vp, vp, sizeof (viewpoint));

  00045	6a 30		 push	 48			; 00000030H
  00047	8b 45 0c	 mov	 eax, DWORD PTR _vp$[ebp]
  0004a	50		 push	 eax
  0004b	68 00 00 00 00	 push	 OFFSET ?main_vp@@3UVIEWPOINT@@A ; main_vp
  00050	e8 00 00 00 00	 call	 _memcpy
  00055	83 c4 0c	 add	 esp, 12			; 0000000cH

; 98   : 
; 99   : 	x = get_ui_object_x (obj);

  00058	8b 45 08	 mov	 eax, DWORD PTR _obj$[ebp]
  0005b	50		 push	 eax
  0005c	8b 4d 08	 mov	 ecx, DWORD PTR _obj$[ebp]
  0005f	8b 11		 mov	 edx, DWORD PTR [ecx]
  00061	8b 04 95 00 00
	00 00		 mov	 eax, DWORD PTR ?fn_get_ui_object_x@@3PAP6GMPAUUI_OBJECT@@@ZA[edx*4]
  00068	ff d0		 call	 eax
  0006a	d9 5d fc	 fstp	 DWORD PTR _x$[ebp]

; 100  : 	y = get_ui_object_y (obj);

  0006d	8b 45 08	 mov	 eax, DWORD PTR _obj$[ebp]
  00070	50		 push	 eax
  00071	8b 4d 08	 mov	 ecx, DWORD PTR _obj$[ebp]
  00074	8b 11		 mov	 edx, DWORD PTR [ecx]
  00076	8b 04 95 00 00
	00 00		 mov	 eax, DWORD PTR ?fn_get_ui_object_y@@3PAP6GMPAUUI_OBJECT@@@ZA[edx*4]
  0007d	ff d0		 call	 eax
  0007f	d9 5d f8	 fstp	 DWORD PTR _y$[ebp]

; 101  : 
; 102  : 	width = get_ui_object_x_size (obj);

  00082	8b 45 08	 mov	 eax, DWORD PTR _obj$[ebp]
  00085	50		 push	 eax
  00086	8b 4d 08	 mov	 ecx, DWORD PTR _obj$[ebp]
  00089	8b 11		 mov	 edx, DWORD PTR [ecx]
  0008b	8b 04 95 00 00
	00 00		 mov	 eax, DWORD PTR ?fn_get_ui_object_x_size@@3PAP6GMPAUUI_OBJECT@@@ZA[edx*4]
  00092	ff d0		 call	 eax
  00094	d9 5d f4	 fstp	 DWORD PTR _width$[ebp]

; 103  : 	height = get_ui_object_y_size (obj);

  00097	8b 45 08	 mov	 eax, DWORD PTR _obj$[ebp]
  0009a	50		 push	 eax
  0009b	8b 4d 08	 mov	 ecx, DWORD PTR _obj$[ebp]
  0009e	8b 11		 mov	 edx, DWORD PTR [ecx]
  000a0	8b 04 95 00 00
	00 00		 mov	 eax, DWORD PTR ?fn_get_ui_object_y_size@@3PAP6GMPAUUI_OBJECT@@@ZA[edx*4]
  000a7	ff d0		 call	 eax
  000a9	d9 5d f0	 fstp	 DWORD PTR _height$[ebp]

; 104  : 
; 105  : 	convert_float_to_int ( x, &ix );

  000ac	8d 45 ec	 lea	 eax, DWORD PTR _ix$[ebp]
  000af	50		 push	 eax
  000b0	51		 push	 ecx
  000b1	f3 0f 10 45 fc	 movss	 xmm0, DWORD PTR _x$[ebp]
  000b6	f3 0f 11 04 24	 movss	 DWORD PTR [esp], xmm0
  000bb	e8 00 00 00 00	 call	 ?convert_float_to_int@@YGXMPAH@Z ; convert_float_to_int

; 106  : 	convert_float_to_int ( y, &iy );

  000c0	8d 45 e8	 lea	 eax, DWORD PTR _iy$[ebp]
  000c3	50		 push	 eax
  000c4	51		 push	 ecx
  000c5	f3 0f 10 45 f8	 movss	 xmm0, DWORD PTR _y$[ebp]
  000ca	f3 0f 11 04 24	 movss	 DWORD PTR [esp], xmm0
  000cf	e8 00 00 00 00	 call	 ?convert_float_to_int@@YGXMPAH@Z ; convert_float_to_int

; 107  : 
; 108  : 	convert_float_to_int ( width, &iwidth );

  000d4	8d 45 e4	 lea	 eax, DWORD PTR _iwidth$[ebp]
  000d7	50		 push	 eax
  000d8	51		 push	 ecx
  000d9	f3 0f 10 45 f4	 movss	 xmm0, DWORD PTR _width$[ebp]
  000de	f3 0f 11 04 24	 movss	 DWORD PTR [esp], xmm0
  000e3	e8 00 00 00 00	 call	 ?convert_float_to_int@@YGXMPAH@Z ; convert_float_to_int

; 109  : 	convert_float_to_int ( height, &iheight );

  000e8	8d 45 e0	 lea	 eax, DWORD PTR _iheight$[ebp]
  000eb	50		 push	 eax
  000ec	51		 push	 ecx
  000ed	f3 0f 10 45 f0	 movss	 xmm0, DWORD PTR _height$[ebp]
  000f2	f3 0f 11 04 24	 movss	 DWORD PTR [esp], xmm0
  000f7	e8 00 00 00 00	 call	 ?convert_float_to_int@@YGXMPAH@Z ; convert_float_to_int

; 110  : 
; 111  : 	x = ix;

  000fc	f3 0f 2a 45 ec	 cvtsi2ss xmm0, DWORD PTR _ix$[ebp]
  00101	f3 0f 11 45 fc	 movss	 DWORD PTR _x$[ebp], xmm0

; 112  : 	y = iy;

  00106	f3 0f 2a 45 e8	 cvtsi2ss xmm0, DWORD PTR _iy$[ebp]
  0010b	f3 0f 11 45 f8	 movss	 DWORD PTR _y$[ebp], xmm0

; 113  : 	width = iwidth;

  00110	f3 0f 2a 45 e4	 cvtsi2ss xmm0, DWORD PTR _iwidth$[ebp]
  00115	f3 0f 11 45 f4	 movss	 DWORD PTR _width$[ebp], xmm0

; 114  : 	height = iheight;

  0011a	f3 0f 2a 45 e0	 cvtsi2ss xmm0, DWORD PTR _iheight$[ebp]
  0011f	f3 0f 11 45 f0	 movss	 DWORD PTR _height$[ebp], xmm0

; 115  : 
; 116  : 	day_segment_type = (day_segment_types) get_local_entity_int_value (get_session_entity (), INT_TYPE_DAY_SEGMENT_TYPE);

  00124	83 3d 00 00 00
	00 00		 cmp	 DWORD PTR ?session_entity@@3PAUENTITY@@A, 0 ; session_entity
  0012b	74 0c		 je	 SHORT $LN7@draw_campa
  0012d	a1 00 00 00 00	 mov	 eax, DWORD PTR ?session_entity@@3PAUENTITY@@A ; session_entity
  00132	8b 08		 mov	 ecx, DWORD PTR [eax]
  00134	89 4d 94	 mov	 DWORD PTR tv147[ebp], ecx
  00137	eb 21		 jmp	 SHORT $LN8@draw_campa
$LN7@draw_campa:
  00139	8b 15 00 00 00
	00		 mov	 edx, DWORD PTR ?__LINE__Var@?0??draw_campaign_screen_3d_scene@@YGXPAUUI_OBJECT@@PAUVIEWPOINT@@@Z@4JA
  0013f	83 c2 2a	 add	 edx, 42			; 0000002aH
  00142	52		 push	 edx
  00143	68 00 00 00 00	 push	 OFFSET ??_C@_0EM@LHIGKKCE@c?3?2users?2nhv90?2projects?2eech?2ap@
  00148	a1 00 00 00 00	 mov	 eax, DWORD PTR ?null_entity_pointer_message@@3PBDB ; null_entity_pointer_message
  0014d	50		 push	 eax
  0014e	e8 00 00 00 00	 call	 ?process_assert@@YGXPBD0H@Z ; process_assert
  00153	c7 45 94 00 00
	00 00		 mov	 DWORD PTR tv147[ebp], 0
$LN8@draw_campa:
  0015a	b9 01 00 00 00	 mov	 ecx, 1
  0015f	85 c9		 test	 ecx, ecx
  00161	74 09		 je	 SHORT $LN9@draw_campa
  00163	c7 45 90 27 00
	00 00		 mov	 DWORD PTR tv155[ebp], 39 ; 00000027H
  0016a	eb 21		 jmp	 SHORT $LN10@draw_campa
$LN9@draw_campa:
  0016c	8b 15 00 00 00
	00		 mov	 edx, DWORD PTR ?__LINE__Var@?0??draw_campaign_screen_3d_scene@@YGXPAUUI_OBJECT@@PAUVIEWPOINT@@@Z@4JA
  00172	83 c2 2a	 add	 edx, 42			; 0000002aH
  00175	52		 push	 edx
  00176	68 00 00 00 00	 push	 OFFSET ??_C@_0EM@LHIGKKCE@c?3?2users?2nhv90?2projects?2eech?2ap@
  0017b	a1 00 00 00 00	 mov	 eax, DWORD PTR ?overload_invalid_int_type_message@@3PBDB ; overload_invalid_int_type_message
  00180	50		 push	 eax
  00181	e8 00 00 00 00	 call	 ?process_assert@@YGXPBD0H@Z ; process_assert
  00186	c7 45 90 00 00
	00 00		 mov	 DWORD PTR tv155[ebp], 0
$LN10@draw_campa:
  0018d	6a 27		 push	 39			; 00000027H
  0018f	8b 0d 00 00 00
	00		 mov	 ecx, DWORD PTR ?session_entity@@3PAUENTITY@@A ; session_entity
  00195	51		 push	 ecx
  00196	69 55 94 5c 04
	00 00		 imul	 edx, DWORD PTR tv147[ebp], 1116
  0019d	8b 45 90	 mov	 eax, DWORD PTR tv155[ebp]
  001a0	8b 8c 82 00 00
	00 00		 mov	 ecx, DWORD PTR ?fn_get_local_entity_int_value@@3PAY0BBH@P6GHPAUENTITY@@W4INT_TYPES@@@ZA[edx+eax*4]
  001a7	ff d1		 call	 ecx
  001a9	89 45 d8	 mov	 DWORD PTR _day_segment_type$[ebp], eax

; 117  : 
; 118  : 	if (day_segment_type == DAY_SEGMENT_TYPE_NIGHT)

  001ac	83 7d d8 03	 cmp	 DWORD PTR _day_segment_type$[ebp], 3
  001b0	75 09		 jne	 SHORT $LN4@draw_campa

; 119  : 	{
; 120  : 		tint = DISPLAY_3D_TINT_GREEN;

  001b2	c7 45 dc 03 00
	00 00		 mov	 DWORD PTR _tint$[ebp], 3

; 121  : 	}
; 122  : 	else

  001b9	eb 07		 jmp	 SHORT $LN5@draw_campa
$LN4@draw_campa:

; 123  : 	{
; 124  : 		tint = DISPLAY_3D_TINT_CLEAR;

  001bb	c7 45 dc 00 00
	00 00		 mov	 DWORD PTR _tint$[ebp], 0
$LN5@draw_campa:

; 125  : 	}
; 126  : 
; 127  : 	set_main_3d_params

  001c2	51		 push	 ecx
  001c3	f3 0f 10 05 00
	00 00 00	 movss	 xmm0, DWORD PTR ?full_screen_height_view_angle@@3MA
  001cb	f3 0f 11 04 24	 movss	 DWORD PTR [esp], xmm0
  001d0	51		 push	 ecx
  001d1	f3 0f 10 05 00
	00 00 00	 movss	 xmm0, DWORD PTR ?full_screen_width_view_angle@@3MA
  001d9	f3 0f 11 04 24	 movss	 DWORD PTR [esp], xmm0
  001de	51		 push	 ecx
  001df	f3 0f 10 45 f0	 movss	 xmm0, DWORD PTR _height$[ebp]
  001e4	f3 0f 11 04 24	 movss	 DWORD PTR [esp], xmm0
  001e9	51		 push	 ecx
  001ea	f3 0f 10 45 f4	 movss	 xmm0, DWORD PTR _width$[ebp]
  001ef	f3 0f 11 04 24	 movss	 DWORD PTR [esp], xmm0
  001f4	51		 push	 ecx
  001f5	f3 0f 10 45 f8	 movss	 xmm0, DWORD PTR _y$[ebp]
  001fa	f3 0f 11 04 24	 movss	 DWORD PTR [esp], xmm0
  001ff	51		 push	 ecx
  00200	f3 0f 10 45 fc	 movss	 xmm0, DWORD PTR _x$[ebp]
  00205	f3 0f 11 04 24	 movss	 DWORD PTR [esp], xmm0
  0020a	6a 00		 push	 0
  0020c	6a 02		 push	 2
  0020e	8b 45 dc	 mov	 eax, DWORD PTR _tint$[ebp]
  00211	50		 push	 eax
  00212	e8 00 00 00 00	 call	 ?set_main_3d_params@@YGXW4DISPLAY_3D_TINTS@@W4DISPLAY_3D_LIGHT_LEVELS@@W4DISPLAY_3D_NOISE_LEVELS@@MMMMMM@Z ; set_main_3d_params

; 128  : 	(
; 129  : 		tint,
; 130  : 		DISPLAY_3D_LIGHT_LEVEL_HIGH,
; 131  : 		DISPLAY_3D_NOISE_LEVEL_NONE,
; 132  : 		x,
; 133  : 		y,
; 134  : 		width,
; 135  : 		height,
; 136  : 		full_screen_width_view_angle,
; 137  : 		full_screen_height_view_angle
; 138  : 	);
; 139  : 
; 140  : 	draw_application_ui_3d_scene ();

  00217	e8 00 00 00 00	 call	 ?draw_application_ui_3d_scene@@YGXXZ ; draw_application_ui_3d_scene

; 141  : }

  0021c	5f		 pop	 edi
  0021d	5e		 pop	 esi
  0021e	5b		 pop	 ebx
  0021f	8b e5		 mov	 esp, ebp
  00221	5d		 pop	 ebp
  00222	c2 08 00	 ret	 8
?draw_campaign_screen_3d_scene@@YGXPAUUI_OBJECT@@PAUVIEWPOINT@@@Z ENDP ; draw_campaign_screen_3d_scene
_TEXT	ENDS
END
