; Listing generated by Microsoft (R) Optimizing Compiler Version 19.16.27045.0 

	TITLE	C:\Users\nhv90\Projects\eech\aphavoc\source\ui_menu\ingame\campaign\ca_brief.c
	.686P
	.XMM
	include listing.inc
	.model	flat

INCLUDELIB MSVCRTD
INCLUDELIB OLDNAMES

PUBLIC	?mission_accept_button@@3PAUUI_OBJECT@@A	; mission_accept_button
_BSS	SEGMENT
?mission_accept_button@@3PAUUI_OBJECT@@A DD 01H DUP (?)	; mission_accept_button
_BSS	ENDS
PUBLIC	___local_stdio_printf_options
PUBLIC	__vsnprintf_l
PUBLIC	__vsprintf_l
PUBLIC	_sprintf
PUBLIC	_atan2f
PUBLIC	?atan2@@YGMMM@Z					; atan2
PUBLIC	?show_briefing_page@@YGXPAUENTITY@@H@Z		; show_briefing_page
PUBLIC	?initialise_campaign_screen_briefing_page_objects@@YGXXZ ; initialise_campaign_screen_briefing_page_objects
PUBLIC	?initialise_campaign_screen_3d_textures@@YGXXZ	; initialise_campaign_screen_3d_textures
PUBLIC	?deinitialise_campaign_screen_3d_textures@@YGXXZ ; deinitialise_campaign_screen_3d_textures
PUBLIC	?define_campaign_screen_briefing_page_objects@@YGXXZ ; define_campaign_screen_briefing_page_objects
PUBLIC	?add_briefing_text_to_list@@YGXPAUUI_OBJECT@@PBD@Z ; add_briefing_text_to_list
PUBLIC	?resize_briefing_list_size@@YGXPAUUI_OBJECT@@@Z	; resize_briefing_list_size
PUBLIC	?overload_briefing_page_message_responses@@YGXXZ ; overload_briefing_page_message_responses
PUBLIC	??$min@M@std@@YGABMABM0@Z			; std::min<float>
PUBLIC	??$max@M@std@@YGABMABM0@Z			; std::max<float>
PUBLIC	?_OptionsStorage@?1??__local_stdio_printf_options@@9@4_KA ; `__local_stdio_printf_options'::`2'::_OptionsStorage
PUBLIC	??_C@_02DKCKIIND@?$CFs@				; `string'
PUBLIC	?__LINE__Var@?0??show_briefing_page@@YGXPAUENTITY@@H@Z@4JA ; `show_briefing_page'::`1'::__LINE__Var
PUBLIC	??_C@_0EP@NKGPCHE@c?3?2users?2nhv90?2projects?2eech?2ap@ ; `string'
PUBLIC	??_C@_07CACALAH@mission@			; `string'
PUBLIC	??_C@_0DE@LLEGJEGE@get_local_entity_type?5?$CImission?$CJ@ ; `string'
PUBLIC	??_C@_08HJFJOAMM@Briefing@			; `string'
PUBLIC	??_C@_03DKEJHHJP@?$CFs?3@			; `string'
PUBLIC	??_C@_06DOPBEMKJ@?$CFs?5?$CD?$CFd@		; `string'
PUBLIC	??_C@_00CNPNBAHC@@				; `string'
PUBLIC	??_C@_05MGJOOGAJ@group@				; `string'
PUBLIC	??_C@_0DD@GDEINBAL@get_local_entity_type?5?$CIgroup?$CJ?5?$DN@ ; `string'
PUBLIC	??_C@_09FKEDLGBF@objective@			; `string'
PUBLIC	?__LINE__Var@?0??update_briefing_page_objects@@YGXPAUUI_OBJECT@@PAX@Z@4JA ; `update_briefing_page_objects'::`1'::__LINE__Var
PUBLIC	??_C@_0L@HGGFBAAD@Unassigned@			; `string'
PUBLIC	??_C@_07DABPCBEH@Expires@			; `string'
PUBLIC	??_C@_06IBDOBMFG@?$CFs?5?3?5?5@			; `string'
PUBLIC	??_C@_0N@OACKFMDA@Elapsed?5Time@		; `string'
PUBLIC	??_C@_0P@PLMNPDMB@?$CF02d?3?$CF02d?3?$CF02d@	; `string'
PUBLIC	??_C@_0BG@EKGEDOCD@flight_time?5?$DM?5ONE_DAY@	; `string'
PUBLIC	??_C@_07FBNBNOMI@keysite@			; `string'
PUBLIC	??_C@_0EA@FKBAFCKA@?$CIweather?5?$DO?5WEATHERMODE_INVALID?$CJ@ ; `string'
PUBLIC	??_C@_0O@FOJDFJFB@Clear?5and?5dry@		; `string'
PUBLIC	??_C@_0L@PNKPNJKD@Light?5rain@			; `string'
PUBLIC	??_C@_0BH@LGFJCMBN@Stormy?5with?5heavy?5rain@	; `string'
PUBLIC	??_C@_04LOGCFOOF@Snow@				; `string'
PUBLIC	??_C@_05FPOHJMOI@North@				; `string'
PUBLIC	??_C@_09MCIFADKN@Northeast@			; `string'
PUBLIC	??_C@_04DHLACFEG@East@				; `string'
PUBLIC	??_C@_09BKBAAAOM@Southeast@			; `string'
PUBLIC	??_C@_05HNHILFBE@South@				; `string'
PUBLIC	??_C@_09IPFCFDFJ@Southwest@			; `string'
PUBLIC	??_C@_04KCPCHGPD@West@				; `string'
PUBLIC	??_C@_09FHMHFABI@Northwest@			; `string'
PUBLIC	??_C@_05DJAPGADD@Knots@				; `string'
PUBLIC	??_C@_06MFLFNBF@?5?$CFd?5?$CFs@			; `string'
PUBLIC	?__LINE__Var@?0??draw_page_map@@YGXPAUUI_OBJECT@@PAX@Z@4JA ; `draw_page_map'::`1'::__LINE__Var
PUBLIC	??_C@_02LFNMGJAP@en@				; `string'
PUBLIC	?__LINE__Var@?0??notify_mission_accept_button@@YGXPAUUI_OBJECT@@PAX@Z@4JA ; `notify_mission_accept_button'::`1'::__LINE__Var
PUBLIC	??_C@_0CA@IIKEFLNE@index?5?$CB?$DN?5ENTITY_INDEX_DONT_CARE@ ; `string'
PUBLIC	??_C@_05HLIEEKJG@guide@				; `string'
PUBLIC	?__LINE__Var@?0??draw_page_3d_scene@@YGXPAUUI_OBJECT@@PAX@Z@4JA ; `draw_page_3d_scene'::`1'::__LINE__Var
PUBLIC	??_C@_03PCBNCGFH@pos@				; `string'
PUBLIC	??_C@_0CH@BFJGBGEH@CA_MISS?3?5INVALID?5RECON?5DISTANCE@ ; `string'
PUBLIC	?__LINE__Var@?0??render_static_briefing_objective_preview@@YGXPAUENTITY@@@Z@4JA ; `render_static_briefing_objective_preview'::`1'::__LINE__Var
PUBLIC	??_C@_0BH@JCECGJAJ@preview_texture_screen@	; `string'
PUBLIC	??_C@_06PGDKHFME@Status@			; `string'
PUBLIC	??_C@_0O@HNIDPGNE@Est?4?5Duration@		; `string'
PUBLIC	??_C@_0L@NPPEPAHE@Start?5Base@			; `string'
PUBLIC	??_C@_0N@CNGNIIPB@Landing?5Base@		; `string'
PUBLIC	??_C@_05MBDCODDP@Group@				; `string'
PUBLIC	??_C@_09BFBOLFMF@Objective@			; `string'
PUBLIC	??_C@_07HOMNOOKI@Weather@			; `string'
PUBLIC	??_C@_04LGBIOLDJ@Wind@				; `string'
PUBLIC	??_C@_09NFKGPKNO@Locked?5By@			; `string'
PUBLIC	??_C@_0CF@CLPKPOMP@graphics?2ui?2cohokum?2map?2blockpr@ ; `string'
PUBLIC	??_C@_0CE@KCJGKOCO@graphics?2ui?2cohokum?2map?2maptabs@ ; `string'
PUBLIC	??_C@_03NBOPHIOC@Map@				; `string'
PUBLIC	??_C@_04OGMCGMPK@View@				; `string'
PUBLIC	??_C@_0CE@MKDJOFDM@graphics?2ui?2cohokum?2map?2acptbtn@ ; `string'
PUBLIC	??_C@_0P@EKIAOHIC@Accept?5Mission@		; `string'
PUBLIC	?__LINE__Var@?0??response_to_force_update@@YGHW4CAMPAIGN_SCREEN_MESSAGES@@PAUENTITY@@@Z@4JA ; `response_to_force_update'::`1'::__LINE__Var
PUBLIC	??_C@_06CGHJMPBJ@sender@			; `string'
PUBLIC	?__LINE__Var@?0??add_briefing_text_to_list@@YGXPAUUI_OBJECT@@PBD@Z@4JA ; `add_briefing_text_to_list'::`1'::__LINE__Var
PUBLIC	??_C@_0DA@CMBCHMPL@ui_get_string_length?5?$CIword?$CJ?5?$DM?5m@ ; `string'
PUBLIC	??_C@_0BD@FEEMDEPI@invalid?5comparator@		; `string'
PUBLIC	??_C@_0GK@JMBMHIBC@c?3?2program?5files?5?$CIx86?$CJ?2microsof@ ; `string'
PUBLIC	??_C@_1NE@FKBPBJEB@?$AAc?$AA?3?$AA?2?$AAp?$AAr?$AAo?$AAg?$AAr?$AAa?$AAm?$AA?5?$AAf?$AAi?$AAl?$AAe@ ; `string'
PUBLIC	??_C@_1BC@BLAPCBGI@?$AAs?$AAt?$AAd?$AA?3?$AA?3?$AAm?$AAi?$AAn@ ; `string'
PUBLIC	??_C@_1CK@NDNHPKPI@?$AA?$CC?$AAi?$AAn?$AAv?$AAa?$AAl?$AAi?$AAd?$AA?5?$AAc?$AAo?$AAm?$AAp?$AAa?$AAr@ ; `string'
PUBLIC	??_C@_1BC@ICCOKLEG@?$AAs?$AAt?$AAd?$AA?3?$AA?3?$AAm?$AAa?$AAx@ ; `string'
PUBLIC	__real@0000000000000000
PUBLIC	__real@3c23d70a
PUBLIC	__real@3cb43958
PUBLIC	__real@3cc49ba6
PUBLIC	__real@3d23d70a
PUBLIC	__real@3d3851ec
PUBLIC	__real@3d449ba6
PUBLIC	__real@3dae147b
PUBLIC	__real@3dbc6a7f
PUBLIC	__real@3dcccccd
PUBLIC	__real@3e0b4396
PUBLIC	__real@3e0d4fdf
PUBLIC	__real@3e24dd2f
PUBLIC	__real@3e3645a2
PUBLIC	__real@3e6147ae
PUBLIC	__real@3e656042
PUBLIC	__real@3e90e560
PUBLIC	__real@3ea8f5c3
PUBLIC	__real@3ee66666
PUBLIC	__real@3eed9168
PUBLIC	__real@3ef2b021
PUBLIC	__real@3f000000
PUBLIC	__real@3f2624dd
PUBLIC	__real@3f28f5c3
PUBLIC	__real@3f2b851f
PUBLIC	__real@3f2c0831
PUBLIC	__real@3f32f1aa
PUBLIC	__real@3f35c28f
PUBLIC	__real@3f3ef9db
PUBLIC	__real@3f47ae14
PUBLIC	__real@3f490fdb
PUBLIC	__real@3f666666
PUBLIC	__real@3f70a3d7
PUBLIC	__real@3f72f1aa
PUBLIC	__real@3f7d70a4
PUBLIC	__real@3f800000
PUBLIC	__real@3f860a92
PUBLIC	__real@3f91361e
PUBLIC	__real@3fa2f983
PUBLIC	__real@3fe0000000000000
PUBLIC	__real@3ff3333333333333
PUBLIC	__real@4014000000000000
PUBLIC	__real@40490fdb
PUBLIC	__real@43800000
PUBLIC	__real@457a0000
PUBLIC	__real@4728c000
PUBLIC	__real@47a8c000
EXTRN	__imp___invalid_parameter:PROC
EXTRN	__imp____stdio_common_vsprintf:PROC
EXTRN	_memset:PROC
EXTRN	_strcat:PROC
EXTRN	__imp___CrtDbgReport:PROC
EXTRN	_atan2:PROC
EXTRN	?process_assert@@YGXPBD0H@Z:PROC		; process_assert
EXTRN	?debug_log@@YAXPBDZZ:PROC			; debug_log
EXTRN	?get_3d_vector_magnitude@@YGMPBUVEC3D@@@Z:PROC	; get_3d_vector_magnitude
EXTRN	?get_3d_unit_vector_from_heading_and_pitch@@YGXPAUVEC3D@@MM@Z:PROC ; get_3d_unit_vector_from_heading_and_pitch
EXTRN	?invert_3d_vector@@YGXPAUVEC3D@@@Z:PROC		; invert_3d_vector
EXTRN	?get_matrix3x3_from_unit_vec3d@@YGXQAY02MPBUVEC3D@@@Z:PROC ; get_matrix3x3_from_unit_vec3d
EXTRN	?create_user_3dvisual_texture_screen@@YGPAUSCREEN@@HHH@Z:PROC ; create_user_3dvisual_texture_screen
EXTRN	?destroy_screen@@YGHPAUSCREEN@@@Z:PROC		; destroy_screen
EXTRN	?lock_screen@@YGHPAUSCREEN@@@Z:PROC		; lock_screen
EXTRN	?unlock_screen@@YGHPAUSCREEN@@@Z:PROC		; unlock_screen
EXTRN	?set_active_screen@@YGHPAUSCREEN@@@Z:PROC	; set_active_screen
EXTRN	?get_active_screen@@YGPAUSCREEN@@XZ:PROC	; get_active_screen
EXTRN	?set_pixel@@YGXHHUREAL_COLOUR@@@Z:PROC		; set_pixel
EXTRN	?get_pixel@@YGXHHPAUREAL_COLOUR@@@Z:PROC	; get_pixel
EXTRN	?create_texture_graphic@@YGPAUTEXTURE_GRAPHIC@@PBD@Z:PROC ; create_texture_graphic
EXTRN	?ui_get_string_length@@YGMPBD@Z:PROC		; ui_get_string_length
EXTRN	?create_ui_object@@YAPAUUI_OBJECT@@HZZ:PROC	; create_ui_object
EXTRN	?get_next_list_position@@YGMPAUUI_OBJECT@@@Z:PROC ; get_next_list_position
EXTRN	?ui_object_destroy_list_items@@YGXPAUUI_OBJECT@@@Z:PROC ; ui_object_destroy_list_items
EXTRN	?add_to_pop_up_list@@YGPAUUI_OBJECT@@PBDPAU1@1HHUREAL_COLOUR@@@Z:PROC ; add_to_pop_up_list
EXTRN	?add_to_pop_up_list_with_word_wrap@@YGPAUUI_OBJECT@@PBDPAU1@1HHUREAL_COLOUR@@@Z:PROC ; add_to_pop_up_list_with_word_wrap
EXTRN	?recalculate_slider_size@@YGXPAUUI_OBJECT@@@Z:PROC ; recalculate_slider_size
EXTRN	?get_ui_object_vslider@@YGPAUUI_OBJECT@@PAU1@@Z:PROC ; get_ui_object_vslider
EXTRN	?set_ui_object_vslider_virtual_position@@YGXPAUUI_OBJECT@@M@Z:PROC ; set_ui_object_vslider_virtual_position
EXTRN	?set_3d_time_of_day@@YGXPAUENV_3D@@M@Z:PROC	; set_3d_time_of_day
EXTRN	?recalculate_3d_environment_settings@@YGXPAUENV_3D@@@Z:PROC ; recalculate_3d_environment_settings
EXTRN	?get_simple_session_weather_at_point@@YG?AW4WEATHERMODES@@PAUVEC3D@@@Z:PROC ; get_simple_session_weather_at_point
EXTRN	?get_session_wind_velocity_at_point@@YGMPAUVEC3D@@0@Z:PROC ; get_session_wind_velocity_at_point
EXTRN	?get_local_task_list_type@@YG?AW4LIST_TYPES@@PAUENTITY@@@Z:PROC ; get_local_task_list_type
EXTRN	?get_task_estimated_route_duration@@YGMPAUENTITY@@@Z:PROC ; get_task_estimated_route_duration
EXTRN	?get_task_objective_string@@YGPBDPAUENTITY@@@Z:PROC ; get_task_objective_string
EXTRN	?get_digital_countdown_values@@YGXMPAH000@Z:PROC ; get_digital_countdown_values
EXTRN	?get_trans@@YGPBDPBD@Z:PROC			; get_trans
EXTRN	?draw_2d_map@@YGXPAUUI_OBJECT@@PAX@Z:PROC	; draw_2d_map
EXTRN	?clear_map_mouse_over_object@@YGXPAUMAP_DIMENSION_TYPE@@@Z:PROC ; clear_map_mouse_over_object
EXTRN	?define_map_objects@@YGXPAUUI_OBJECT@@PAUMAP_DIMENSION_TYPE@@PAX22PAPAU1@@Z:PROC ; define_map_objects
EXTRN	?map_centralise_function@@YGXPAUUI_OBJECT@@PAX@Z:PROC ; map_centralise_function
EXTRN	?set_ui_mouse_over_entity_function@@YGXPAUUI_OBJECT@@@Z:PROC ; set_ui_mouse_over_entity_function
EXTRN	?get_mission_player_suitability_status@@YGHPAUENTITY@@@Z:PROC ; get_mission_player_suitability_status
EXTRN	?set_common_slider_graphics@@YGXPAUUI_OBJECT@@@Z:PROC ; set_common_slider_graphics
EXTRN	?display_campaign_page@@YGXW4CAMPAIGN_PAGES@@HH@Z:PROC ; display_campaign_page
EXTRN	?show_base_page@@YGXPAUENTITY@@H@Z:PROC		; show_base_page
EXTRN	?show_debriefing_page@@YGXPAUENTITY@@HH@Z:PROC	; show_debriefing_page
EXTRN	?show_group_page@@YGHPAUENTITY@@H@Z:PROC	; show_group_page
EXTRN	?get_campaign_history_valid@@YGHXZ:PROC		; get_campaign_history_valid
EXTRN	?define_campaign_page_back_button@@YGXPAUUI_OBJECT@@PAPAU1@@Z:PROC ; define_campaign_page_back_button
EXTRN	?show_group_list@@YGXPAUUI_OBJECT@@PAX@Z:PROC	; show_group_list
EXTRN	?show_map_page@@YGXXZ:PROC			; show_map_page
EXTRN	?campaign_map_left_click_function@@YGXPAUUI_OBJECT@@PAX@Z:PROC ; campaign_map_left_click_function
EXTRN	?set_currently_selected_mission@@YGXH@Z:PROC	; set_currently_selected_mission
EXTRN	?get_currently_selected_mission@@YGPAUENTITY@@XZ:PROC ; get_currently_selected_mission
EXTRN	?get_currently_selected_member@@YGPAUENTITY@@XZ:PROC ; get_currently_selected_member
EXTRN	?draw_campaign_screen_3d_scene@@YGXPAUUI_OBJECT@@PAUVIEWPOINT@@@Z:PROC ; draw_campaign_screen_3d_scene
EXTRN	?draw_campaign_screen_3d_scene_to_texture@@YGXPAUSCREEN@@PAUVIEWPOINT@@M@Z:PROC ; draw_campaign_screen_3d_scene_to_texture
EXTRN	?draw_campaign_screen_texture_to_object@@YGXPAUSCREEN@@PAUUI_OBJECT@@@Z:PROC ; draw_campaign_screen_texture_to_object
EXTRN	?get_briefing_text@@YGHPAUENTITY@@PAD11@Z:PROC	; get_briefing_text
EXTRN	__ftol2_sse:PROC
EXTRN	?d3d_can_render_to_texture@@3HA:DWORD		; d3d_can_render_to_texture
EXTRN	?fn_get_ui_object_x_size@@3PAP6GMPAUUI_OBJECT@@@ZA:BYTE ; fn_get_ui_object_x_size
EXTRN	?fn_get_ui_object_y_size@@3PAP6GMPAUUI_OBJECT@@@ZA:BYTE ; fn_get_ui_object_y_size
EXTRN	?fn_set_ui_object_virtual_y_size@@3PAP6GXPAUUI_OBJECT@@M@ZA:BYTE ; fn_set_ui_object_virtual_y_size
EXTRN	?fn_set_ui_object_state@@3PAP6GXPAUUI_OBJECT@@H@ZA:BYTE ; fn_set_ui_object_state
EXTRN	?fn_set_ui_object_drawable@@3PAP6GXPAUUI_OBJECT@@H@ZA:BYTE ; fn_set_ui_object_drawable
EXTRN	?fn_get_ui_object_drawable@@3PAP6GHPAUUI_OBJECT@@@ZA:BYTE ; fn_get_ui_object_drawable
EXTRN	?fn_set_ui_object_item_number@@3PAP6GXPAUUI_OBJECT@@H@ZA:BYTE ; fn_set_ui_object_item_number
EXTRN	?fn_get_ui_object_item_number@@3PAP6GHPAUUI_OBJECT@@@ZA:BYTE ; fn_get_ui_object_item_number
EXTRN	?fn_get_ui_object_parent@@3PAP6GPAUUI_OBJECT@@PAU1@@ZA:BYTE ; fn_get_ui_object_parent
EXTRN	?fn_set_ui_object_text@@3PAP6GXPAUUI_OBJECT@@PBD@ZA:BYTE ; fn_set_ui_object_text
EXTRN	?fn_get_ui_object_font_colour@@3PAP6G?AUREAL_COLOUR@@PAUUI_OBJECT@@@ZA:BYTE ; fn_get_ui_object_font_colour
EXTRN	?ui_ingame_live_text_colour@@3UREAL_COLOUR@@A:DWORD ; ui_ingame_live_text_colour
EXTRN	?ui_ingame_dead_text_colour@@3UREAL_COLOUR@@A:DWORD ; ui_ingame_dead_text_colour
EXTRN	?ui_ingame_highlight_text_colour@@3UREAL_COLOUR@@A:DWORD ; ui_ingame_highlight_text_colour
EXTRN	?ui_ingame_selected_text_colour@@3UREAL_COLOUR@@A:DWORD ; ui_ingame_selected_text_colour
EXTRN	?null_entity_pointer_message@@3PBDB:DWORD	; null_entity_pointer_message
EXTRN	?entity_type_database@@3PAUENTITY_TYPE_DATA@@A:BYTE ; entity_type_database
EXTRN	?task_status_names@@3PAPBDA:BYTE		; task_status_names
EXTRN	?world_map@@3UWORLD_MAP_DATA@@A:BYTE		; world_map
EXTRN	?overload_invalid_list_type_message@@3PBDB:DWORD ; overload_invalid_list_type_message
EXTRN	?fn_get_local_entity_first_child@@3PAY0CN@P6GPAUENTITY@@PAU1@W4LIST_TYPES@@@ZA:BYTE ; fn_get_local_entity_first_child
EXTRN	?fn_get_local_entity_parent@@3PAY0CN@P6GPAUENTITY@@PAU1@W4LIST_TYPES@@@ZA:BYTE ; fn_get_local_entity_parent
EXTRN	?fn_get_local_entity_child_succ@@3PAY0CN@P6GPAUENTITY@@PAU1@W4LIST_TYPES@@@ZA:BYTE ; fn_get_local_entity_child_succ
EXTRN	?overload_invalid_float_type_message@@3PBDB:DWORD ; overload_invalid_float_type_message
EXTRN	?fn_get_local_entity_float_value@@3PAY0KP@P6GMPAUENTITY@@W4FLOAT_TYPES@@@ZA:BYTE ; fn_get_local_entity_float_value
EXTRN	?overload_invalid_int_type_message@@3PBDB:DWORD	; overload_invalid_int_type_message
EXTRN	?fn_get_local_entity_int_value@@3PAY0BBH@P6GHPAUENTITY@@W4INT_TYPES@@@ZA:BYTE ; fn_get_local_entity_int_value
EXTRN	?overload_invalid_ptr_type_message@@3PBDB:DWORD	; overload_invalid_ptr_type_message
EXTRN	?fn_get_local_entity_ptr_value@@3PAY0BE@P6GPAXPAUENTITY@@W4PTR_TYPES@@@ZA:BYTE ; fn_get_local_entity_ptr_value
EXTRN	?overload_invalid_string_type_message@@3PBDB:DWORD ; overload_invalid_string_type_message
EXTRN	?fn_get_local_entity_string@@3PAY0N@P6GPBDPAUENTITY@@W4STRING_TYPES@@@ZA:BYTE ; fn_get_local_entity_string
EXTRN	?overload_invalid_vec3d_type_message@@3PBDB:DWORD ; overload_invalid_vec3d_type_message
EXTRN	?fn_get_local_entity_vec3d_ptr@@3PAY0BI@P6GPAUVEC3D@@PAUENTITY@@W4VEC3D_TYPES@@@ZA:BYTE ; fn_get_local_entity_vec3d_ptr
EXTRN	?entities@@3PAUENTITY@@A:DWORD			; entities
EXTRN	?gunship_entity@@3PAUENTITY@@A:DWORD		; gunship_entity
EXTRN	?session_entity@@3PAUENTITY@@A:DWORD		; session_entity
EXTRN	?main_3d_env@@3PAUENV_3D@@A:DWORD		; main_3d_env
EXTRN	?common_divider_graphic@@3PAUTEXTURE_GRAPHIC@@A:DWORD ; common_divider_graphic
EXTRN	?campaign_screen@@3PAUUI_OBJECT@@A:DWORD	; campaign_screen
EXTRN	?campaign_page@@3PAPAUUI_OBJECT@@A:BYTE		; campaign_page
EXTRN	?campaign_screen_full_screen_map@@3PAUUI_OBJECT@@A:DWORD ; campaign_screen_full_screen_map
EXTRN	?campaign_screen_message_responses@@3PAY0O@P6GHW4CAMPAIGN_SCREEN_MESSAGES@@PAUENTITY@@@ZA:BYTE ; campaign_screen_message_responses
EXTRN	__fltused:DWORD
;	COMDAT ?_OptionsStorage@?1??__local_stdio_printf_options@@9@4_KA
_BSS	SEGMENT
?_OptionsStorage@?1??__local_stdio_printf_options@@9@4_KA DQ 01H DUP (?) ; `__local_stdio_printf_options'::`2'::_OptionsStorage
_BSS	ENDS
_BSS	SEGMENT
?briefing_text_area@@3PAUUI_OBJECT@@A DD 01H DUP (?)	; briefing_text_area
?briefing_text_list@@3PAUUI_OBJECT@@A DD 01H DUP (?)	; briefing_text_list
?briefing_page_title@@3PAUUI_OBJECT@@A DD 01H DUP (?)	; briefing_page_title
?briefing_page_type@@3PAUUI_OBJECT@@A DD 01H DUP (?)	; briefing_page_type
?briefing_page_takeoff_base_box@@3PAUUI_OBJECT@@A DD 01H DUP (?) ; briefing_page_takeoff_base_box
?briefing_page_landing_base_box@@3PAUUI_OBJECT@@A DD 01H DUP (?) ; briefing_page_landing_base_box
?briefing_page_group_box@@3PAUUI_OBJECT@@A DD 01H DUP (?) ; briefing_page_group_box
?briefing_page_objective_box@@3PAUUI_OBJECT@@A DD 01H DUP (?) ; briefing_page_objective_box
?briefing_page_status_box@@3PAUUI_OBJECT@@A DD 01H DUP (?) ; briefing_page_status_box
?briefing_page_expire_elapsed_text_box@@3PAUUI_OBJECT@@A DD 01H DUP (?) ; briefing_page_expire_elapsed_text_box
?briefing_page_expire_time_box@@3PAUUI_OBJECT@@A DD 01H DUP (?) ; briefing_page_expire_time_box
?briefing_page_duration_time_box@@3PAUUI_OBJECT@@A DD 01H DUP (?) ; briefing_page_duration_time_box
?briefing_page_weather_box@@3PAUUI_OBJECT@@A DD 01H DUP (?) ; briefing_page_weather_box
?briefing_page_wind_box@@3PAUUI_OBJECT@@A DD 01H DUP (?) ; briefing_page_wind_box
?briefing_page_pilot_lock_box@@3PAUUI_OBJECT@@A DD 01H DUP (?) ; briefing_page_pilot_lock_box
?page_map_area@@3PAUUI_OBJECT@@A DD 01H DUP (?)		; page_map_area
?page_map_view_area@@3PAUUI_OBJECT@@A DD 01H DUP (?)	; page_map_view_area
?page_map_view_mode_area@@3PAUUI_OBJECT@@A DD 01H DUP (?) ; page_map_view_mode_area
?page_map_toggle@@3PAUUI_OBJECT@@A DD 01H DUP (?)	; page_map_toggle
?page_3d_area@@3PAUUI_OBJECT@@A DD 01H DUP (?)		; page_3d_area
?page_3d_toggle@@3PAUUI_OBJECT@@A DD 01H DUP (?)	; page_3d_toggle
?page_back_button@@3PAUUI_OBJECT@@A DD 01H DUP (?)	; page_back_button
?page_map_dimensions@@3UMAP_DIMENSION_TYPE@@A DB 06cH DUP (?) ; page_map_dimensions
?preview_texture_screen@@3PAUSCREEN@@A DD 01H DUP (?)	; preview_texture_screen
?s@?1??show_briefing_page@@YGXPAUENTITY@@H@Z@4PADA DB 080H DUP (?) ; `show_briefing_page'::`2'::s
?text@?1??show_briefing_page@@YGXPAUENTITY@@H@Z@4PADA DB 0c00H DUP (?) ; `show_briefing_page'::`2'::text
?text1@?1??show_briefing_page@@YGXPAUENTITY@@H@Z@4PADA DB 0400H DUP (?) ; `show_briefing_page'::`2'::text1
?text2@?1??show_briefing_page@@YGXPAUENTITY@@H@Z@4PADA DB 0400H DUP (?) ; `show_briefing_page'::`2'::text2
?text3@?1??show_briefing_page@@YGXPAUENTITY@@H@Z@4PADA DB 0400H DUP (?) ; `show_briefing_page'::`2'::text3
?objective_name@?1??show_briefing_page@@YGXPAUENTITY@@H@Z@4PBDB DD 01H DUP (?) ; `show_briefing_page'::`2'::objective_name
_BSS	ENDS
;	COMDAT __real@47a8c000
CONST	SEGMENT
__real@47a8c000 DD 047a8c000r			; 86400
CONST	ENDS
;	COMDAT __real@4728c000
CONST	SEGMENT
__real@4728c000 DD 04728c000r			; 43200
CONST	ENDS
;	COMDAT __real@457a0000
CONST	SEGMENT
__real@457a0000 DD 0457a0000r			; 4000
CONST	ENDS
;	COMDAT __real@43800000
CONST	SEGMENT
__real@43800000 DD 043800000r			; 256
CONST	ENDS
;	COMDAT __real@40490fdb
CONST	SEGMENT
__real@40490fdb DD 040490fdbr			; 3.14159
CONST	ENDS
;	COMDAT __real@4014000000000000
CONST	SEGMENT
__real@4014000000000000 DQ 04014000000000000r	; 5
CONST	ENDS
;	COMDAT __real@3ff3333333333333
CONST	SEGMENT
__real@3ff3333333333333 DQ 03ff3333333333333r	; 1.2
CONST	ENDS
;	COMDAT __real@3fe0000000000000
CONST	SEGMENT
__real@3fe0000000000000 DQ 03fe0000000000000r	; 0.5
CONST	ENDS
;	COMDAT __real@3fa2f983
CONST	SEGMENT
__real@3fa2f983 DD 03fa2f983r			; 1.27324
CONST	ENDS
;	COMDAT __real@3f91361e
CONST	SEGMENT
__real@3f91361e DD 03f91361er			; 1.13446
CONST	ENDS
;	COMDAT __real@3f860a92
CONST	SEGMENT
__real@3f860a92 DD 03f860a92r			; 1.0472
CONST	ENDS
;	COMDAT __real@3f800000
CONST	SEGMENT
__real@3f800000 DD 03f800000r			; 1
CONST	ENDS
;	COMDAT __real@3f7d70a4
CONST	SEGMENT
__real@3f7d70a4 DD 03f7d70a4r			; 0.99
CONST	ENDS
;	COMDAT __real@3f72f1aa
CONST	SEGMENT
__real@3f72f1aa DD 03f72f1aar			; 0.949
CONST	ENDS
;	COMDAT __real@3f70a3d7
CONST	SEGMENT
__real@3f70a3d7 DD 03f70a3d7r			; 0.94
CONST	ENDS
;	COMDAT __real@3f666666
CONST	SEGMENT
__real@3f666666 DD 03f666666r			; 0.9
CONST	ENDS
;	COMDAT __real@3f490fdb
CONST	SEGMENT
__real@3f490fdb DD 03f490fdbr			; 0.785398
CONST	ENDS
;	COMDAT __real@3f47ae14
CONST	SEGMENT
__real@3f47ae14 DD 03f47ae14r			; 0.78
CONST	ENDS
;	COMDAT __real@3f3ef9db
CONST	SEGMENT
__real@3f3ef9db DD 03f3ef9dbr			; 0.746
CONST	ENDS
;	COMDAT __real@3f35c28f
CONST	SEGMENT
__real@3f35c28f DD 03f35c28fr			; 0.71
CONST	ENDS
;	COMDAT __real@3f32f1aa
CONST	SEGMENT
__real@3f32f1aa DD 03f32f1aar			; 0.699
CONST	ENDS
;	COMDAT __real@3f2c0831
CONST	SEGMENT
__real@3f2c0831 DD 03f2c0831r			; 0.672
CONST	ENDS
;	COMDAT __real@3f2b851f
CONST	SEGMENT
__real@3f2b851f DD 03f2b851fr			; 0.67
CONST	ENDS
;	COMDAT __real@3f28f5c3
CONST	SEGMENT
__real@3f28f5c3 DD 03f28f5c3r			; 0.66
CONST	ENDS
;	COMDAT __real@3f2624dd
CONST	SEGMENT
__real@3f2624dd DD 03f2624ddr			; 0.649
CONST	ENDS
;	COMDAT __real@3f000000
CONST	SEGMENT
__real@3f000000 DD 03f000000r			; 0.5
CONST	ENDS
;	COMDAT __real@3ef2b021
CONST	SEGMENT
__real@3ef2b021 DD 03ef2b021r			; 0.474
CONST	ENDS
;	COMDAT __real@3eed9168
CONST	SEGMENT
__real@3eed9168 DD 03eed9168r			; 0.464
CONST	ENDS
;	COMDAT __real@3ee66666
CONST	SEGMENT
__real@3ee66666 DD 03ee66666r			; 0.45
CONST	ENDS
;	COMDAT __real@3ea8f5c3
CONST	SEGMENT
__real@3ea8f5c3 DD 03ea8f5c3r			; 0.33
CONST	ENDS
;	COMDAT __real@3e90e560
CONST	SEGMENT
__real@3e90e560 DD 03e90e560r			; 0.283
CONST	ENDS
;	COMDAT __real@3e656042
CONST	SEGMENT
__real@3e656042 DD 03e656042r			; 0.224
CONST	ENDS
;	COMDAT __real@3e6147ae
CONST	SEGMENT
__real@3e6147ae DD 03e6147aer			; 0.22
CONST	ENDS
;	COMDAT __real@3e3645a2
CONST	SEGMENT
__real@3e3645a2 DD 03e3645a2r			; 0.178
CONST	ENDS
;	COMDAT __real@3e24dd2f
CONST	SEGMENT
__real@3e24dd2f DD 03e24dd2fr			; 0.161
CONST	ENDS
;	COMDAT __real@3e0d4fdf
CONST	SEGMENT
__real@3e0d4fdf DD 03e0d4fdfr			; 0.138
CONST	ENDS
;	COMDAT __real@3e0b4396
CONST	SEGMENT
__real@3e0b4396 DD 03e0b4396r			; 0.136
CONST	ENDS
;	COMDAT __real@3dcccccd
CONST	SEGMENT
__real@3dcccccd DD 03dcccccdr			; 0.1
CONST	ENDS
;	COMDAT __real@3dbc6a7f
CONST	SEGMENT
__real@3dbc6a7f DD 03dbc6a7fr			; 0.092
CONST	ENDS
;	COMDAT __real@3dae147b
CONST	SEGMENT
__real@3dae147b DD 03dae147br			; 0.085
CONST	ENDS
;	COMDAT __real@3d449ba6
CONST	SEGMENT
__real@3d449ba6 DD 03d449ba6r			; 0.048
CONST	ENDS
;	COMDAT __real@3d3851ec
CONST	SEGMENT
__real@3d3851ec DD 03d3851ecr			; 0.045
CONST	ENDS
;	COMDAT __real@3d23d70a
CONST	SEGMENT
__real@3d23d70a DD 03d23d70ar			; 0.04
CONST	ENDS
;	COMDAT __real@3cc49ba6
CONST	SEGMENT
__real@3cc49ba6 DD 03cc49ba6r			; 0.024
CONST	ENDS
;	COMDAT __real@3cb43958
CONST	SEGMENT
__real@3cb43958 DD 03cb43958r			; 0.022
CONST	ENDS
;	COMDAT __real@3c23d70a
CONST	SEGMENT
__real@3c23d70a DD 03c23d70ar			; 0.01
CONST	ENDS
;	COMDAT __real@0000000000000000
CONST	SEGMENT
__real@0000000000000000 DQ 00000000000000000r	; 0
CONST	ENDS
;	COMDAT ??_C@_1BC@ICCOKLEG@?$AAs?$AAt?$AAd?$AA?3?$AA?3?$AAm?$AAa?$AAx@
CONST	SEGMENT
??_C@_1BC@ICCOKLEG@?$AAs?$AAt?$AAd?$AA?3?$AA?3?$AAm?$AAa?$AAx@ DB 's', 00H
	DB	't', 00H, 'd', 00H, ':', 00H, ':', 00H, 'm', 00H, 'a', 00H, 'x'
	DB	00H, 00H, 00H				; `string'
CONST	ENDS
;	COMDAT ??_C@_1CK@NDNHPKPI@?$AA?$CC?$AAi?$AAn?$AAv?$AAa?$AAl?$AAi?$AAd?$AA?5?$AAc?$AAo?$AAm?$AAp?$AAa?$AAr@
CONST	SEGMENT
??_C@_1CK@NDNHPKPI@?$AA?$CC?$AAi?$AAn?$AAv?$AAa?$AAl?$AAi?$AAd?$AA?5?$AAc?$AAo?$AAm?$AAp?$AAa?$AAr@ DB '"'
	DB	00H, 'i', 00H, 'n', 00H, 'v', 00H, 'a', 00H, 'l', 00H, 'i', 00H
	DB	'd', 00H, ' ', 00H, 'c', 00H, 'o', 00H, 'm', 00H, 'p', 00H, 'a'
	DB	00H, 'r', 00H, 'a', 00H, 't', 00H, 'o', 00H, 'r', 00H, '"', 00H
	DB	00H, 00H					; `string'
CONST	ENDS
;	COMDAT ??_C@_1BC@BLAPCBGI@?$AAs?$AAt?$AAd?$AA?3?$AA?3?$AAm?$AAi?$AAn@
CONST	SEGMENT
??_C@_1BC@BLAPCBGI@?$AAs?$AAt?$AAd?$AA?3?$AA?3?$AAm?$AAi?$AAn@ DB 's', 00H
	DB	't', 00H, 'd', 00H, ':', 00H, ':', 00H, 'm', 00H, 'i', 00H, 'n'
	DB	00H, 00H, 00H				; `string'
CONST	ENDS
;	COMDAT ??_C@_1NE@FKBPBJEB@?$AAc?$AA?3?$AA?2?$AAp?$AAr?$AAo?$AAg?$AAr?$AAa?$AAm?$AA?5?$AAf?$AAi?$AAl?$AAe@
CONST	SEGMENT
??_C@_1NE@FKBPBJEB@?$AAc?$AA?3?$AA?2?$AAp?$AAr?$AAo?$AAg?$AAr?$AAa?$AAm?$AA?5?$AAf?$AAi?$AAl?$AAe@ DB 'c'
	DB	00H, ':', 00H, '\', 00H, 'p', 00H, 'r', 00H, 'o', 00H, 'g', 00H
	DB	'r', 00H, 'a', 00H, 'm', 00H, ' ', 00H, 'f', 00H, 'i', 00H, 'l'
	DB	00H, 'e', 00H, 's', 00H, ' ', 00H, '(', 00H, 'x', 00H, '8', 00H
	DB	'6', 00H, ')', 00H, '\', 00H, 'm', 00H, 'i', 00H, 'c', 00H, 'r'
	DB	00H, 'o', 00H, 's', 00H, 'o', 00H, 'f', 00H, 't', 00H, ' ', 00H
	DB	'v', 00H, 'i', 00H, 's', 00H, 'u', 00H, 'a', 00H, 'l', 00H, ' '
	DB	00H, 's', 00H, 't', 00H, 'u', 00H, 'd', 00H, 'i', 00H, 'o', 00H
	DB	'\', 00H, '2', 00H, '0', 00H, '1', 00H, '7', 00H, '\', 00H, 'c'
	DB	00H, 'o', 00H, 'm', 00H, 'm', 00H, 'u', 00H, 'n', 00H, 'i', 00H
	DB	't', 00H, 'y', 00H, '\', 00H, 'v', 00H, 'c', 00H, '\', 00H, 't'
	DB	00H, 'o', 00H, 'o', 00H, 'l', 00H, 's', 00H, '\', 00H, 'm', 00H
	DB	's', 00H, 'v', 00H, 'c', 00H, '\', 00H, '1', 00H, '4', 00H, '.'
	DB	00H, '1', 00H, '6', 00H, '.', 00H, '2', 00H, '7', 00H, '0', 00H
	DB	'2', 00H, '3', 00H, '\', 00H, 'i', 00H, 'n', 00H, 'c', 00H, 'l'
	DB	00H, 'u', 00H, 'd', 00H, 'e', 00H, '\', 00H, 'a', 00H, 'l', 00H
	DB	'g', 00H, 'o', 00H, 'r', 00H, 'i', 00H, 't', 00H, 'h', 00H, 'm'
	DB	00H, 00H, 00H				; `string'
CONST	ENDS
;	COMDAT ??_C@_0GK@JMBMHIBC@c?3?2program?5files?5?$CIx86?$CJ?2microsof@
CONST	SEGMENT
??_C@_0GK@JMBMHIBC@c?3?2program?5files?5?$CIx86?$CJ?2microsof@ DB 'c:\pro'
	DB	'gram files (x86)\microsoft visual studio\2017\community\vc\to'
	DB	'ols\msvc\14.16.27023\include\algorithm', 00H ; `string'
CONST	ENDS
;	COMDAT ??_C@_0BD@FEEMDEPI@invalid?5comparator@
CONST	SEGMENT
??_C@_0BD@FEEMDEPI@invalid?5comparator@ DB 'invalid comparator', 00H ; `string'
CONST	ENDS
;	COMDAT ??_C@_0DA@CMBCHMPL@ui_get_string_length?5?$CIword?$CJ?5?$DM?5m@
CONST	SEGMENT
??_C@_0DA@CMBCHMPL@ui_get_string_length?5?$CIword?$CJ?5?$DM?5m@ DB 'ui_ge'
	DB	't_string_length (word) < max_string_length', 00H ; `string'
CONST	ENDS
;	COMDAT ?__LINE__Var@?0??add_briefing_text_to_list@@YGXPAUUI_OBJECT@@PBD@Z@4JA
_DATA	SEGMENT
?__LINE__Var@?0??add_briefing_text_to_list@@YGXPAUUI_OBJECT@@PBD@Z@4JA DD 0816H ; `add_briefing_text_to_list'::`1'::__LINE__Var
_DATA	ENDS
;	COMDAT ??_C@_06CGHJMPBJ@sender@
CONST	SEGMENT
??_C@_06CGHJMPBJ@sender@ DB 'sender', 00H		; `string'
CONST	ENDS
;	COMDAT ?__LINE__Var@?0??response_to_force_update@@YGHW4CAMPAIGN_SCREEN_MESSAGES@@PAUENTITY@@@Z@4JA
_DATA	SEGMENT
?__LINE__Var@?0??response_to_force_update@@YGHW4CAMPAIGN_SCREEN_MESSAGES@@PAUENTITY@@@Z@4JA DD 07f2H ; `response_to_force_update'::`1'::__LINE__Var
_DATA	ENDS
;	COMDAT ??_C@_0P@EKIAOHIC@Accept?5Mission@
CONST	SEGMENT
??_C@_0P@EKIAOHIC@Accept?5Mission@ DB 'Accept Mission', 00H ; `string'
CONST	ENDS
;	COMDAT ??_C@_0CE@MKDJOFDM@graphics?2ui?2cohokum?2map?2acptbtn@
CONST	SEGMENT
??_C@_0CE@MKDJOFDM@graphics?2ui?2cohokum?2map?2acptbtn@ DB 'graphics\ui\c'
	DB	'ohokum\map\acptbtn.psd', 00H		; `string'
CONST	ENDS
;	COMDAT ??_C@_04OGMCGMPK@View@
CONST	SEGMENT
??_C@_04OGMCGMPK@View@ DB 'View', 00H			; `string'
CONST	ENDS
;	COMDAT ??_C@_03NBOPHIOC@Map@
CONST	SEGMENT
??_C@_03NBOPHIOC@Map@ DB 'Map', 00H			; `string'
CONST	ENDS
;	COMDAT ??_C@_0CE@KCJGKOCO@graphics?2ui?2cohokum?2map?2maptabs@
CONST	SEGMENT
??_C@_0CE@KCJGKOCO@graphics?2ui?2cohokum?2map?2maptabs@ DB 'graphics\ui\c'
	DB	'ohokum\map\maptabs.psd', 00H		; `string'
CONST	ENDS
;	COMDAT ??_C@_0CF@CLPKPOMP@graphics?2ui?2cohokum?2map?2blockpr@
CONST	SEGMENT
??_C@_0CF@CLPKPOMP@graphics?2ui?2cohokum?2map?2blockpr@ DB 'graphics\ui\c'
	DB	'ohokum\map\blockprp.psd', 00H		; `string'
CONST	ENDS
;	COMDAT ??_C@_09NFKGPKNO@Locked?5By@
CONST	SEGMENT
??_C@_09NFKGPKNO@Locked?5By@ DB 'Locked By', 00H	; `string'
CONST	ENDS
;	COMDAT ??_C@_04LGBIOLDJ@Wind@
CONST	SEGMENT
??_C@_04LGBIOLDJ@Wind@ DB 'Wind', 00H			; `string'
CONST	ENDS
;	COMDAT ??_C@_07HOMNOOKI@Weather@
CONST	SEGMENT
??_C@_07HOMNOOKI@Weather@ DB 'Weather', 00H		; `string'
CONST	ENDS
;	COMDAT ??_C@_09BFBOLFMF@Objective@
CONST	SEGMENT
??_C@_09BFBOLFMF@Objective@ DB 'Objective', 00H		; `string'
CONST	ENDS
;	COMDAT ??_C@_05MBDCODDP@Group@
CONST	SEGMENT
??_C@_05MBDCODDP@Group@ DB 'Group', 00H			; `string'
CONST	ENDS
;	COMDAT ??_C@_0N@CNGNIIPB@Landing?5Base@
CONST	SEGMENT
??_C@_0N@CNGNIIPB@Landing?5Base@ DB 'Landing Base', 00H	; `string'
CONST	ENDS
;	COMDAT ??_C@_0L@NPPEPAHE@Start?5Base@
CONST	SEGMENT
??_C@_0L@NPPEPAHE@Start?5Base@ DB 'Start Base', 00H	; `string'
CONST	ENDS
;	COMDAT ??_C@_0O@HNIDPGNE@Est?4?5Duration@
CONST	SEGMENT
??_C@_0O@HNIDPGNE@Est?4?5Duration@ DB 'Est. Duration', 00H ; `string'
CONST	ENDS
;	COMDAT ??_C@_06PGDKHFME@Status@
CONST	SEGMENT
??_C@_06PGDKHFME@Status@ DB 'Status', 00H		; `string'
CONST	ENDS
;	COMDAT ??_C@_0BH@JCECGJAJ@preview_texture_screen@
CONST	SEGMENT
??_C@_0BH@JCECGJAJ@preview_texture_screen@ DB 'preview_texture_screen', 00H ; `string'
CONST	ENDS
;	COMDAT ?__LINE__Var@?0??render_static_briefing_objective_preview@@YGXPAUENTITY@@@Z@4JA
_DATA	SEGMENT
?__LINE__Var@?0??render_static_briefing_objective_preview@@YGXPAUENTITY@@@Z@4JA DD 040dH ; `render_static_briefing_objective_preview'::`1'::__LINE__Var
_DATA	ENDS
;	COMDAT ??_C@_0CH@BFJGBGEH@CA_MISS?3?5INVALID?5RECON?5DISTANCE@
CONST	SEGMENT
??_C@_0CH@BFJGBGEH@CA_MISS?3?5INVALID?5RECON?5DISTANCE@ DB 'CA_MISS: INVA'
	DB	'LID RECON DISTANCE FOR %s', 00H		; `string'
CONST	ENDS
;	COMDAT ??_C@_03PCBNCGFH@pos@
CONST	SEGMENT
??_C@_03PCBNCGFH@pos@ DB 'pos', 00H			; `string'
CONST	ENDS
;	COMDAT ?__LINE__Var@?0??draw_page_3d_scene@@YGXPAUUI_OBJECT@@PAX@Z@4JA
_DATA	SEGMENT
?__LINE__Var@?0??draw_page_3d_scene@@YGXPAUUI_OBJECT@@PAX@Z@4JA DD 03bdH ; `draw_page_3d_scene'::`1'::__LINE__Var
_DATA	ENDS
;	COMDAT ??_C@_05HLIEEKJG@guide@
CONST	SEGMENT
??_C@_05HLIEEKJG@guide@ DB 'guide', 00H			; `string'
CONST	ENDS
;	COMDAT ??_C@_0CA@IIKEFLNE@index?5?$CB?$DN?5ENTITY_INDEX_DONT_CARE@
CONST	SEGMENT
??_C@_0CA@IIKEFLNE@index?5?$CB?$DN?5ENTITY_INDEX_DONT_CARE@ DB 'index != '
	DB	'ENTITY_INDEX_DONT_CARE', 00H		; `string'
CONST	ENDS
;	COMDAT ?__LINE__Var@?0??notify_mission_accept_button@@YGXPAUUI_OBJECT@@PAX@Z@4JA
_DATA	SEGMENT
?__LINE__Var@?0??notify_mission_accept_button@@YGXPAUUI_OBJECT@@PAX@Z@4JA DD 0385H ; `notify_mission_accept_button'::`1'::__LINE__Var
_DATA	ENDS
;	COMDAT ??_C@_02LFNMGJAP@en@
CONST	SEGMENT
??_C@_02LFNMGJAP@en@ DB 'en', 00H			; `string'
CONST	ENDS
;	COMDAT ?__LINE__Var@?0??draw_page_map@@YGXPAUUI_OBJECT@@PAX@Z@4JA
_DATA	SEGMENT
?__LINE__Var@?0??draw_page_map@@YGXPAUUI_OBJECT@@PAX@Z@4JA DD 0375H ; `draw_page_map'::`1'::__LINE__Var
_DATA	ENDS
;	COMDAT ??_C@_06MFLFNBF@?5?$CFd?5?$CFs@
CONST	SEGMENT
??_C@_06MFLFNBF@?5?$CFd?5?$CFs@ DB ' %d %s', 00H	; `string'
CONST	ENDS
;	COMDAT ??_C@_05DJAPGADD@Knots@
CONST	SEGMENT
??_C@_05DJAPGADD@Knots@ DB 'Knots', 00H			; `string'
CONST	ENDS
;	COMDAT ??_C@_09FHMHFABI@Northwest@
CONST	SEGMENT
??_C@_09FHMHFABI@Northwest@ DB 'Northwest', 00H		; `string'
CONST	ENDS
;	COMDAT ??_C@_04KCPCHGPD@West@
CONST	SEGMENT
??_C@_04KCPCHGPD@West@ DB 'West', 00H			; `string'
CONST	ENDS
;	COMDAT ??_C@_09IPFCFDFJ@Southwest@
CONST	SEGMENT
??_C@_09IPFCFDFJ@Southwest@ DB 'Southwest', 00H		; `string'
CONST	ENDS
;	COMDAT ??_C@_05HNHILFBE@South@
CONST	SEGMENT
??_C@_05HNHILFBE@South@ DB 'South', 00H			; `string'
CONST	ENDS
;	COMDAT ??_C@_09BKBAAAOM@Southeast@
CONST	SEGMENT
??_C@_09BKBAAAOM@Southeast@ DB 'Southeast', 00H		; `string'
CONST	ENDS
;	COMDAT ??_C@_04DHLACFEG@East@
CONST	SEGMENT
??_C@_04DHLACFEG@East@ DB 'East', 00H			; `string'
CONST	ENDS
;	COMDAT ??_C@_09MCIFADKN@Northeast@
CONST	SEGMENT
??_C@_09MCIFADKN@Northeast@ DB 'Northeast', 00H		; `string'
CONST	ENDS
;	COMDAT ??_C@_05FPOHJMOI@North@
CONST	SEGMENT
??_C@_05FPOHJMOI@North@ DB 'North', 00H			; `string'
CONST	ENDS
;	COMDAT ??_C@_04LOGCFOOF@Snow@
CONST	SEGMENT
??_C@_04LOGCFOOF@Snow@ DB 'Snow', 00H			; `string'
CONST	ENDS
;	COMDAT ??_C@_0BH@LGFJCMBN@Stormy?5with?5heavy?5rain@
CONST	SEGMENT
??_C@_0BH@LGFJCMBN@Stormy?5with?5heavy?5rain@ DB 'Stormy with heavy rain', 00H ; `string'
CONST	ENDS
;	COMDAT ??_C@_0L@PNKPNJKD@Light?5rain@
CONST	SEGMENT
??_C@_0L@PNKPNJKD@Light?5rain@ DB 'Light rain', 00H	; `string'
CONST	ENDS
;	COMDAT ??_C@_0O@FOJDFJFB@Clear?5and?5dry@
CONST	SEGMENT
??_C@_0O@FOJDFJFB@Clear?5and?5dry@ DB 'Clear and dry', 00H ; `string'
CONST	ENDS
;	COMDAT ??_C@_0EA@FKBAFCKA@?$CIweather?5?$DO?5WEATHERMODE_INVALID?$CJ@
CONST	SEGMENT
??_C@_0EA@FKBAFCKA@?$CIweather?5?$DO?5WEATHERMODE_INVALID?$CJ@ DB '(weath'
	DB	'er > WEATHERMODE_INVALID) && (weather < WEATHERMODE_LAST)', 00H ; `string'
CONST	ENDS
;	COMDAT ??_C@_07FBNBNOMI@keysite@
CONST	SEGMENT
??_C@_07FBNBNOMI@keysite@ DB 'keysite', 00H		; `string'
CONST	ENDS
;	COMDAT ??_C@_0BG@EKGEDOCD@flight_time?5?$DM?5ONE_DAY@
CONST	SEGMENT
??_C@_0BG@EKGEDOCD@flight_time?5?$DM?5ONE_DAY@ DB 'flight_time < ONE_DAY', 00H ; `string'
CONST	ENDS
;	COMDAT ??_C@_0P@PLMNPDMB@?$CF02d?3?$CF02d?3?$CF02d@
CONST	SEGMENT
??_C@_0P@PLMNPDMB@?$CF02d?3?$CF02d?3?$CF02d@ DB '%02d:%02d:%02d', 00H ; `string'
CONST	ENDS
;	COMDAT ??_C@_0N@OACKFMDA@Elapsed?5Time@
CONST	SEGMENT
??_C@_0N@OACKFMDA@Elapsed?5Time@ DB 'Elapsed Time', 00H	; `string'
CONST	ENDS
;	COMDAT ??_C@_06IBDOBMFG@?$CFs?5?3?5?5@
CONST	SEGMENT
??_C@_06IBDOBMFG@?$CFs?5?3?5?5@ DB '%s :  ', 00H	; `string'
CONST	ENDS
;	COMDAT ??_C@_07DABPCBEH@Expires@
CONST	SEGMENT
??_C@_07DABPCBEH@Expires@ DB 'Expires', 00H		; `string'
CONST	ENDS
;	COMDAT ??_C@_0L@HGGFBAAD@Unassigned@
CONST	SEGMENT
??_C@_0L@HGGFBAAD@Unassigned@ DB 'Unassigned', 00H	; `string'
CONST	ENDS
;	COMDAT ?__LINE__Var@?0??update_briefing_page_objects@@YGXPAUUI_OBJECT@@PAX@Z@4JA
_DATA	SEGMENT
?__LINE__Var@?0??update_briefing_page_objects@@YGXPAUUI_OBJECT@@PAX@Z@4JA DD 020aH ; `update_briefing_page_objects'::`1'::__LINE__Var
_DATA	ENDS
;	COMDAT ??_C@_09FKEDLGBF@objective@
CONST	SEGMENT
??_C@_09FKEDLGBF@objective@ DB 'objective', 00H		; `string'
CONST	ENDS
;	COMDAT ??_C@_0DD@GDEINBAL@get_local_entity_type?5?$CIgroup?$CJ?5?$DN@
CONST	SEGMENT
??_C@_0DD@GDEINBAL@get_local_entity_type?5?$CIgroup?$CJ?5?$DN@ DB 'get_lo'
	DB	'cal_entity_type (group) == ENTITY_TYPE_GROUP', 00H ; `string'
CONST	ENDS
;	COMDAT ??_C@_05MGJOOGAJ@group@
CONST	SEGMENT
??_C@_05MGJOOGAJ@group@ DB 'group', 00H			; `string'
CONST	ENDS
;	COMDAT ??_C@_00CNPNBAHC@@
CONST	SEGMENT
??_C@_00CNPNBAHC@@ DB 00H				; `string'
CONST	ENDS
;	COMDAT ??_C@_06DOPBEMKJ@?$CFs?5?$CD?$CFd@
CONST	SEGMENT
??_C@_06DOPBEMKJ@?$CFs?5?$CD?$CFd@ DB '%s #%d', 00H	; `string'
CONST	ENDS
;	COMDAT ??_C@_03DKEJHHJP@?$CFs?3@
CONST	SEGMENT
??_C@_03DKEJHHJP@?$CFs?3@ DB '%s:', 00H			; `string'
CONST	ENDS
;	COMDAT ??_C@_08HJFJOAMM@Briefing@
CONST	SEGMENT
??_C@_08HJFJOAMM@Briefing@ DB 'Briefing', 00H		; `string'
CONST	ENDS
;	COMDAT ??_C@_0DE@LLEGJEGE@get_local_entity_type?5?$CImission?$CJ@
CONST	SEGMENT
??_C@_0DE@LLEGJEGE@get_local_entity_type?5?$CImission?$CJ@ DB 'get_local_'
	DB	'entity_type (mission) == ENTITY_TYPE_TASK', 00H ; `string'
CONST	ENDS
;	COMDAT ??_C@_07CACALAH@mission@
CONST	SEGMENT
??_C@_07CACALAH@mission@ DB 'mission', 00H		; `string'
CONST	ENDS
;	COMDAT ??_C@_0EP@NKGPCHE@c?3?2users?2nhv90?2projects?2eech?2ap@
CONST	SEGMENT
??_C@_0EP@NKGPCHE@c?3?2users?2nhv90?2projects?2eech?2ap@ DB 'c:\users\nhv'
	DB	'90\projects\eech\aphavoc\source\ui_menu\ingame\campaign\ca_br'
	DB	'ief.c', 00H					; `string'
CONST	ENDS
;	COMDAT ?__LINE__Var@?0??show_briefing_page@@YGXPAUENTITY@@H@Z@4JA
_DATA	SEGMENT
?__LINE__Var@?0??show_briefing_page@@YGXPAUENTITY@@H@Z@4JA DD 07eH ; `show_briefing_page'::`1'::__LINE__Var
_DATA	ENDS
;	COMDAT ??_C@_02DKCKIIND@?$CFs@
CONST	SEGMENT
??_C@_02DKCKIIND@?$CFs@ DB '%s', 00H			; `string'
CONST	ENDS
; Function compile flags: /Odtp /ZI
; File c:\users\nhv90\projects\eech\aphavoc\source\ui_menu\ingame\campaign\ca_brief.c
;	COMDAT ?response_to_force_update@@YGHW4CAMPAIGN_SCREEN_MESSAGES@@PAUENTITY@@@Z
_TEXT	SEGMENT
_message$ = 8						; size = 4
_sender$ = 12						; size = 4
?response_to_force_update@@YGHW4CAMPAIGN_SCREEN_MESSAGES@@PAUENTITY@@@Z PROC ; response_to_force_update, COMDAT

; 2034 : {

  00000	55		 push	 ebp
  00001	8b ec		 mov	 ebp, esp
  00003	83 ec 40	 sub	 esp, 64			; 00000040H
  00006	53		 push	 ebx
  00007	56		 push	 esi
  00008	57		 push	 edi

; 2035 : 	if (get_ui_object_drawable (campaign_page [CAMPAIGN_PAGE_BRIEFING]))

  00009	b8 04 00 00 00	 mov	 eax, 4
  0000e	c1 e0 00	 shl	 eax, 0
  00011	8b 88 00 00 00
	00		 mov	 ecx, DWORD PTR ?campaign_page@@3PAPAUUI_OBJECT@@A[eax]
  00017	51		 push	 ecx
  00018	ba 04 00 00 00	 mov	 edx, 4
  0001d	c1 e2 00	 shl	 edx, 0
  00020	8b 82 00 00 00
	00		 mov	 eax, DWORD PTR ?campaign_page@@3PAPAUUI_OBJECT@@A[edx]
  00026	8b 08		 mov	 ecx, DWORD PTR [eax]
  00028	8b 14 8d 00 00
	00 00		 mov	 edx, DWORD PTR ?fn_get_ui_object_drawable@@3PAP6GHPAUUI_OBJECT@@@ZA[ecx*4]
  0002f	ff d2		 call	 edx
  00031	85 c0		 test	 eax, eax
  00033	74 29		 je	 SHORT $LN2@response_t

; 2036 : 	{
; 2037 : 		ASSERT (sender);

  00035	83 7d 0c 00	 cmp	 DWORD PTR _sender$[ebp], 0
  00039	75 18		 jne	 SHORT $LN3@response_t
  0003b	a1 00 00 00 00	 mov	 eax, DWORD PTR ?__LINE__Var@?0??response_to_force_update@@YGHW4CAMPAIGN_SCREEN_MESSAGES@@PAUENTITY@@@Z@4JA
  00040	83 c0 03	 add	 eax, 3
  00043	50		 push	 eax
  00044	68 00 00 00 00	 push	 OFFSET ??_C@_0EP@NKGPCHE@c?3?2users?2nhv90?2projects?2eech?2ap@
  00049	68 00 00 00 00	 push	 OFFSET ??_C@_06CGHJMPBJ@sender@
  0004e	e8 00 00 00 00	 call	 ?process_assert@@YGXPBD0H@Z ; process_assert
$LN3@response_t:

; 2038 : 
; 2039 : 		show_briefing_page (sender, TRUE);

  00053	6a 01		 push	 1
  00055	8b 45 0c	 mov	 eax, DWORD PTR _sender$[ebp]
  00058	50		 push	 eax
  00059	e8 00 00 00 00	 call	 ?show_briefing_page@@YGXPAUENTITY@@H@Z ; show_briefing_page
$LN2@response_t:

; 2040 : 	}
; 2041 : 
; 2042 : 	return TRUE;

  0005e	b8 01 00 00 00	 mov	 eax, 1

; 2043 : }

  00063	5f		 pop	 edi
  00064	5e		 pop	 esi
  00065	5b		 pop	 ebx
  00066	8b e5		 mov	 esp, ebp
  00068	5d		 pop	 ebp
  00069	c2 08 00	 ret	 8
?response_to_force_update@@YGHW4CAMPAIGN_SCREEN_MESSAGES@@PAUENTITY@@@Z ENDP ; response_to_force_update
_TEXT	ENDS
; Function compile flags: /Odtp /ZI
; File c:\users\nhv90\projects\eech\aphavoc\source\ui_menu\ingame\campaign\ca_brief.c
;	COMDAT ?response_to_mission_destroyed@@YGHW4CAMPAIGN_SCREEN_MESSAGES@@PAUENTITY@@@Z
_TEXT	SEGMENT
tv67 = -68						; size = 4
_message$ = 8						; size = 4
_sender$ = 12						; size = 4
?response_to_mission_destroyed@@YGHW4CAMPAIGN_SCREEN_MESSAGES@@PAUENTITY@@@Z PROC ; response_to_mission_destroyed, COMDAT

; 2011 : {

  00000	55		 push	 ebp
  00001	8b ec		 mov	 ebp, esp
  00003	83 ec 44	 sub	 esp, 68			; 00000044H
  00006	53		 push	 ebx
  00007	56		 push	 esi
  00008	57		 push	 edi

; 2012 : 	if (get_local_entity_safe_index (sender) == get_ui_object_item_number (campaign_page [CAMPAIGN_PAGE_BRIEFING]))

  00009	83 7d 0c 00	 cmp	 DWORD PTR _sender$[ebp], 0
  0000d	74 11		 je	 SHORT $LN5@response_t
  0000f	8b 45 0c	 mov	 eax, DWORD PTR _sender$[ebp]
  00012	2b 05 00 00 00
	00		 sub	 eax, DWORD PTR ?entities@@3PAUENTITY@@A ; entities
  00018	c1 f8 04	 sar	 eax, 4
  0001b	89 45 bc	 mov	 DWORD PTR tv67[ebp], eax
  0001e	eb 07		 jmp	 SHORT $LN6@response_t
$LN5@response_t:
  00020	c7 45 bc ff ff
	ff ff		 mov	 DWORD PTR tv67[ebp], -1
$LN6@response_t:
  00027	b9 04 00 00 00	 mov	 ecx, 4
  0002c	c1 e1 00	 shl	 ecx, 0
  0002f	8b 91 00 00 00
	00		 mov	 edx, DWORD PTR ?campaign_page@@3PAPAUUI_OBJECT@@A[ecx]
  00035	52		 push	 edx
  00036	b8 04 00 00 00	 mov	 eax, 4
  0003b	c1 e0 00	 shl	 eax, 0
  0003e	8b 88 00 00 00
	00		 mov	 ecx, DWORD PTR ?campaign_page@@3PAPAUUI_OBJECT@@A[eax]
  00044	8b 11		 mov	 edx, DWORD PTR [ecx]
  00046	8b 04 95 00 00
	00 00		 mov	 eax, DWORD PTR ?fn_get_ui_object_item_number@@3PAP6GHPAUUI_OBJECT@@@ZA[edx*4]
  0004d	ff d0		 call	 eax
  0004f	39 45 bc	 cmp	 DWORD PTR tv67[ebp], eax
  00052	75 5b		 jne	 SHORT $LN2@response_t

; 2013 : 	{
; 2014 : 		if (get_ui_object_drawable (campaign_page [CAMPAIGN_PAGE_BRIEFING]))

  00054	b8 04 00 00 00	 mov	 eax, 4
  00059	c1 e0 00	 shl	 eax, 0
  0005c	8b 88 00 00 00
	00		 mov	 ecx, DWORD PTR ?campaign_page@@3PAPAUUI_OBJECT@@A[eax]
  00062	51		 push	 ecx
  00063	ba 04 00 00 00	 mov	 edx, 4
  00068	c1 e2 00	 shl	 edx, 0
  0006b	8b 82 00 00 00
	00		 mov	 eax, DWORD PTR ?campaign_page@@3PAPAUUI_OBJECT@@A[edx]
  00071	8b 08		 mov	 ecx, DWORD PTR [eax]
  00073	8b 14 8d 00 00
	00 00		 mov	 edx, DWORD PTR ?fn_get_ui_object_drawable@@3PAP6GHPAUUI_OBJECT@@@ZA[ecx*4]
  0007a	ff d2		 call	 edx
  0007c	85 c0		 test	 eax, eax
  0007e	74 05		 je	 SHORT $LN3@response_t

; 2015 : 		{
; 2016 : 			//
; 2017 : 			// Not sure yet.... For now display the map page
; 2018 : 			//
; 2019 : 
; 2020 : 			show_map_page ();

  00080	e8 00 00 00 00	 call	 ?show_map_page@@YGXXZ	; show_map_page
$LN3@response_t:

; 2021 : 		}
; 2022 : 
; 2023 : 		set_ui_object_item_number (campaign_page [CAMPAIGN_PAGE_BRIEFING], ENTITY_INDEX_DONT_CARE);

  00085	6a ff		 push	 -1
  00087	b8 04 00 00 00	 mov	 eax, 4
  0008c	c1 e0 00	 shl	 eax, 0
  0008f	8b 88 00 00 00
	00		 mov	 ecx, DWORD PTR ?campaign_page@@3PAPAUUI_OBJECT@@A[eax]
  00095	51		 push	 ecx
  00096	ba 04 00 00 00	 mov	 edx, 4
  0009b	c1 e2 00	 shl	 edx, 0
  0009e	8b 82 00 00 00
	00		 mov	 eax, DWORD PTR ?campaign_page@@3PAPAUUI_OBJECT@@A[edx]
  000a4	8b 08		 mov	 ecx, DWORD PTR [eax]
  000a6	8b 14 8d 00 00
	00 00		 mov	 edx, DWORD PTR ?fn_set_ui_object_item_number@@3PAP6GXPAUUI_OBJECT@@H@ZA[ecx*4]
  000ad	ff d2		 call	 edx
$LN2@response_t:

; 2024 : 	}
; 2025 : 
; 2026 : 	return TRUE;

  000af	b8 01 00 00 00	 mov	 eax, 1

; 2027 : }

  000b4	5f		 pop	 edi
  000b5	5e		 pop	 esi
  000b6	5b		 pop	 ebx
  000b7	8b e5		 mov	 esp, ebp
  000b9	5d		 pop	 ebp
  000ba	c2 08 00	 ret	 8
?response_to_mission_destroyed@@YGHW4CAMPAIGN_SCREEN_MESSAGES@@PAUENTITY@@@Z ENDP ; response_to_mission_destroyed
_TEXT	ENDS
; Function compile flags: /Odtp /ZI
; File c:\users\nhv90\projects\eech\aphavoc\source\ui_menu\ingame\campaign\ca_brief.c
;	COMDAT ?response_to_mission_completed@@YGHW4CAMPAIGN_SCREEN_MESSAGES@@PAUENTITY@@@Z
_TEXT	SEGMENT
tv67 = -68						; size = 4
_message$ = 8						; size = 4
_sender$ = 12						; size = 4
?response_to_mission_completed@@YGHW4CAMPAIGN_SCREEN_MESSAGES@@PAUENTITY@@@Z PROC ; response_to_mission_completed, COMDAT

; 1994 : {

  00000	55		 push	 ebp
  00001	8b ec		 mov	 ebp, esp
  00003	83 ec 44	 sub	 esp, 68			; 00000044H
  00006	53		 push	 ebx
  00007	56		 push	 esi
  00008	57		 push	 edi

; 1995 : 	if (get_local_entity_safe_index (sender) == get_ui_object_item_number (campaign_page [CAMPAIGN_PAGE_BRIEFING]))

  00009	83 7d 0c 00	 cmp	 DWORD PTR _sender$[ebp], 0
  0000d	74 11		 je	 SHORT $LN5@response_t
  0000f	8b 45 0c	 mov	 eax, DWORD PTR _sender$[ebp]
  00012	2b 05 00 00 00
	00		 sub	 eax, DWORD PTR ?entities@@3PAUENTITY@@A ; entities
  00018	c1 f8 04	 sar	 eax, 4
  0001b	89 45 bc	 mov	 DWORD PTR tv67[ebp], eax
  0001e	eb 07		 jmp	 SHORT $LN6@response_t
$LN5@response_t:
  00020	c7 45 bc ff ff
	ff ff		 mov	 DWORD PTR tv67[ebp], -1
$LN6@response_t:
  00027	b9 04 00 00 00	 mov	 ecx, 4
  0002c	c1 e1 00	 shl	 ecx, 0
  0002f	8b 91 00 00 00
	00		 mov	 edx, DWORD PTR ?campaign_page@@3PAPAUUI_OBJECT@@A[ecx]
  00035	52		 push	 edx
  00036	b8 04 00 00 00	 mov	 eax, 4
  0003b	c1 e0 00	 shl	 eax, 0
  0003e	8b 88 00 00 00
	00		 mov	 ecx, DWORD PTR ?campaign_page@@3PAPAUUI_OBJECT@@A[eax]
  00044	8b 11		 mov	 edx, DWORD PTR [ecx]
  00046	8b 04 95 00 00
	00 00		 mov	 eax, DWORD PTR ?fn_get_ui_object_item_number@@3PAP6GHPAUUI_OBJECT@@@ZA[edx*4]
  0004d	ff d0		 call	 eax
  0004f	39 45 bc	 cmp	 DWORD PTR tv67[ebp], eax
  00052	75 39		 jne	 SHORT $LN2@response_t

; 1996 : 	{
; 1997 : 		if (get_ui_object_drawable (campaign_page [CAMPAIGN_PAGE_BRIEFING]))

  00054	b8 04 00 00 00	 mov	 eax, 4
  00059	c1 e0 00	 shl	 eax, 0
  0005c	8b 88 00 00 00
	00		 mov	 ecx, DWORD PTR ?campaign_page@@3PAPAUUI_OBJECT@@A[eax]
  00062	51		 push	 ecx
  00063	ba 04 00 00 00	 mov	 edx, 4
  00068	c1 e2 00	 shl	 edx, 0
  0006b	8b 82 00 00 00
	00		 mov	 eax, DWORD PTR ?campaign_page@@3PAPAUUI_OBJECT@@A[edx]
  00071	8b 08		 mov	 ecx, DWORD PTR [eax]
  00073	8b 14 8d 00 00
	00 00		 mov	 edx, DWORD PTR ?fn_get_ui_object_drawable@@3PAP6GHPAUUI_OBJECT@@@ZA[ecx*4]
  0007a	ff d2		 call	 edx
  0007c	85 c0		 test	 eax, eax
  0007e	74 0d		 je	 SHORT $LN2@response_t

; 1998 : 		{
; 1999 : 			show_debriefing_page (sender, TRUE, FALSE);

  00080	6a 00		 push	 0
  00082	6a 01		 push	 1
  00084	8b 45 0c	 mov	 eax, DWORD PTR _sender$[ebp]
  00087	50		 push	 eax
  00088	e8 00 00 00 00	 call	 ?show_debriefing_page@@YGXPAUENTITY@@HH@Z ; show_debriefing_page
$LN2@response_t:

; 2000 : 		}
; 2001 : 	}
; 2002 : 
; 2003 : 	return TRUE;

  0008d	b8 01 00 00 00	 mov	 eax, 1

; 2004 : }

  00092	5f		 pop	 edi
  00093	5e		 pop	 esi
  00094	5b		 pop	 ebx
  00095	8b e5		 mov	 esp, ebp
  00097	5d		 pop	 ebp
  00098	c2 08 00	 ret	 8
?response_to_mission_completed@@YGHW4CAMPAIGN_SCREEN_MESSAGES@@PAUENTITY@@@Z ENDP ; response_to_mission_completed
_TEXT	ENDS
; Function compile flags: /Odtp /ZI
; File c:\users\nhv90\projects\eech\aphavoc\source\ui_menu\ingame\campaign\ca_brief.c
;	COMDAT ?response_to_mission_assigned@@YGHW4CAMPAIGN_SCREEN_MESSAGES@@PAUENTITY@@@Z
_TEXT	SEGMENT
tv67 = -68						; size = 4
_message$ = 8						; size = 4
_sender$ = 12						; size = 4
?response_to_mission_assigned@@YGHW4CAMPAIGN_SCREEN_MESSAGES@@PAUENTITY@@@Z PROC ; response_to_mission_assigned, COMDAT

; 1977 : {

  00000	55		 push	 ebp
  00001	8b ec		 mov	 ebp, esp
  00003	83 ec 44	 sub	 esp, 68			; 00000044H
  00006	53		 push	 ebx
  00007	56		 push	 esi
  00008	57		 push	 edi

; 1978 : 	if (get_local_entity_safe_index (sender) == get_ui_object_item_number (campaign_page [CAMPAIGN_PAGE_BRIEFING]))

  00009	83 7d 0c 00	 cmp	 DWORD PTR _sender$[ebp], 0
  0000d	74 11		 je	 SHORT $LN5@response_t
  0000f	8b 45 0c	 mov	 eax, DWORD PTR _sender$[ebp]
  00012	2b 05 00 00 00
	00		 sub	 eax, DWORD PTR ?entities@@3PAUENTITY@@A ; entities
  00018	c1 f8 04	 sar	 eax, 4
  0001b	89 45 bc	 mov	 DWORD PTR tv67[ebp], eax
  0001e	eb 07		 jmp	 SHORT $LN6@response_t
$LN5@response_t:
  00020	c7 45 bc ff ff
	ff ff		 mov	 DWORD PTR tv67[ebp], -1
$LN6@response_t:
  00027	b9 04 00 00 00	 mov	 ecx, 4
  0002c	c1 e1 00	 shl	 ecx, 0
  0002f	8b 91 00 00 00
	00		 mov	 edx, DWORD PTR ?campaign_page@@3PAPAUUI_OBJECT@@A[ecx]
  00035	52		 push	 edx
  00036	b8 04 00 00 00	 mov	 eax, 4
  0003b	c1 e0 00	 shl	 eax, 0
  0003e	8b 88 00 00 00
	00		 mov	 ecx, DWORD PTR ?campaign_page@@3PAPAUUI_OBJECT@@A[eax]
  00044	8b 11		 mov	 edx, DWORD PTR [ecx]
  00046	8b 04 95 00 00
	00 00		 mov	 eax, DWORD PTR ?fn_get_ui_object_item_number@@3PAP6GHPAUUI_OBJECT@@@ZA[edx*4]
  0004d	ff d0		 call	 eax
  0004f	39 45 bc	 cmp	 DWORD PTR tv67[ebp], eax
  00052	75 37		 jne	 SHORT $LN2@response_t

; 1979 : 	{
; 1980 : 		if (get_ui_object_drawable (campaign_page [CAMPAIGN_PAGE_BRIEFING]))

  00054	b8 04 00 00 00	 mov	 eax, 4
  00059	c1 e0 00	 shl	 eax, 0
  0005c	8b 88 00 00 00
	00		 mov	 ecx, DWORD PTR ?campaign_page@@3PAPAUUI_OBJECT@@A[eax]
  00062	51		 push	 ecx
  00063	ba 04 00 00 00	 mov	 edx, 4
  00068	c1 e2 00	 shl	 edx, 0
  0006b	8b 82 00 00 00
	00		 mov	 eax, DWORD PTR ?campaign_page@@3PAPAUUI_OBJECT@@A[edx]
  00071	8b 08		 mov	 ecx, DWORD PTR [eax]
  00073	8b 14 8d 00 00
	00 00		 mov	 edx, DWORD PTR ?fn_get_ui_object_drawable@@3PAP6GHPAUUI_OBJECT@@@ZA[ecx*4]
  0007a	ff d2		 call	 edx
  0007c	85 c0		 test	 eax, eax
  0007e	74 0b		 je	 SHORT $LN2@response_t

; 1981 : 		{
; 1982 : 			show_briefing_page (sender, TRUE);

  00080	6a 01		 push	 1
  00082	8b 45 0c	 mov	 eax, DWORD PTR _sender$[ebp]
  00085	50		 push	 eax
  00086	e8 00 00 00 00	 call	 ?show_briefing_page@@YGXPAUENTITY@@H@Z ; show_briefing_page
$LN2@response_t:

; 1983 : 		}
; 1984 : 	}
; 1985 : 
; 1986 : 	return TRUE;

  0008b	b8 01 00 00 00	 mov	 eax, 1

; 1987 : }

  00090	5f		 pop	 edi
  00091	5e		 pop	 esi
  00092	5b		 pop	 ebx
  00093	8b e5		 mov	 esp, ebp
  00095	5d		 pop	 ebp
  00096	c2 08 00	 ret	 8
?response_to_mission_assigned@@YGHW4CAMPAIGN_SCREEN_MESSAGES@@PAUENTITY@@@Z ENDP ; response_to_mission_assigned
_TEXT	ENDS
; Function compile flags: /Odtp /ZI
; File c:\users\nhv90\projects\eech\aphavoc\source\ui_menu\ingame\campaign\ca_brief.c
;	COMDAT ?draw_page_3d_scene@@YGXPAUUI_OBJECT@@PAX@Z
_TEXT	SEGMENT
tv152 = -160						; size = 4
tv195 = -156						; size = 4
tv170 = -156						; size = 4
tv146 = -156						; size = 4
tv226 = -152						; size = 4
tv187 = -152						; size = 4
tv162 = -152						; size = 4
tv139 = -152						; size = 4
tv131 = -152						; size = 4
tv77 = -152						; size = 4
_distance$1 = -84					; size = 4
_pitch$2 = -80						; size = 4
_heading$3 = -76					; size = 4
_vec$4 = -72						; size = 12
_pos$ = -60						; size = 4
_vp$ = -56						; size = 48
_mission$ = -8						; size = 4
_en$ = -4						; size = 4
_obj$ = 8						; size = 4
_arg$ = 12						; size = 4
?draw_page_3d_scene@@YGXPAUUI_OBJECT@@PAX@Z PROC	; draw_page_3d_scene, COMDAT

; 957  : {

  00000	55		 push	 ebp
  00001	8b ec		 mov	 ebp, esp
  00003	81 ec a0 00 00
	00		 sub	 esp, 160		; 000000a0H
  00009	53		 push	 ebx
  0000a	56		 push	 esi
  0000b	57		 push	 edi

; 958  : 	entity
; 959  : 		*en,
; 960  : 		*mission;
; 961  : 
; 962  : 	viewpoint
; 963  : 		vp;
; 964  : 
; 965  : 	vec3d
; 966  : 		*pos;
; 967  : 
; 968  : 	en = get_local_entity_safe_ptr (get_ui_object_item_number (obj));

  0000c	8b 45 08	 mov	 eax, DWORD PTR _obj$[ebp]
  0000f	50		 push	 eax
  00010	8b 4d 08	 mov	 ecx, DWORD PTR _obj$[ebp]
  00013	8b 11		 mov	 edx, DWORD PTR [ecx]
  00015	8b 04 95 00 00
	00 00		 mov	 eax, DWORD PTR ?fn_get_ui_object_item_number@@3PAP6GHPAUUI_OBJECT@@@ZA[edx*4]
  0001c	ff d0		 call	 eax
  0001e	83 f8 ff	 cmp	 eax, -1
  00021	74 23		 je	 SHORT $LN12@draw_page_
  00023	8b 4d 08	 mov	 ecx, DWORD PTR _obj$[ebp]
  00026	51		 push	 ecx
  00027	8b 55 08	 mov	 edx, DWORD PTR _obj$[ebp]
  0002a	8b 02		 mov	 eax, DWORD PTR [edx]
  0002c	8b 0c 85 00 00
	00 00		 mov	 ecx, DWORD PTR ?fn_get_ui_object_item_number@@3PAP6GHPAUUI_OBJECT@@@ZA[eax*4]
  00033	ff d1		 call	 ecx
  00035	c1 e0 04	 shl	 eax, 4
  00038	03 05 00 00 00
	00		 add	 eax, DWORD PTR ?entities@@3PAUENTITY@@A ; entities
  0003e	89 85 68 ff ff
	ff		 mov	 DWORD PTR tv77[ebp], eax
  00044	eb 0a		 jmp	 SHORT $LN13@draw_page_
$LN12@draw_page_:
  00046	c7 85 68 ff ff
	ff 00 00 00 00	 mov	 DWORD PTR tv77[ebp], 0
$LN13@draw_page_:
  00050	8b 95 68 ff ff
	ff		 mov	 edx, DWORD PTR tv77[ebp]
  00056	89 55 fc	 mov	 DWORD PTR _en$[ebp], edx

; 969  : 
; 970  : 	mission = get_local_entity_safe_ptr (get_ui_object_item_number (campaign_page [CAMPAIGN_PAGE_BRIEFING]));

  00059	b8 04 00 00 00	 mov	 eax, 4
  0005e	c1 e0 00	 shl	 eax, 0
  00061	8b 88 00 00 00
	00		 mov	 ecx, DWORD PTR ?campaign_page@@3PAPAUUI_OBJECT@@A[eax]
  00067	51		 push	 ecx
  00068	ba 04 00 00 00	 mov	 edx, 4
  0006d	c1 e2 00	 shl	 edx, 0
  00070	8b 82 00 00 00
	00		 mov	 eax, DWORD PTR ?campaign_page@@3PAPAUUI_OBJECT@@A[edx]
  00076	8b 08		 mov	 ecx, DWORD PTR [eax]
  00078	8b 14 8d 00 00
	00 00		 mov	 edx, DWORD PTR ?fn_get_ui_object_item_number@@3PAP6GHPAUUI_OBJECT@@@ZA[ecx*4]
  0007f	ff d2		 call	 edx
  00081	83 f8 ff	 cmp	 eax, -1
  00084	74 39		 je	 SHORT $LN14@draw_page_
  00086	b8 04 00 00 00	 mov	 eax, 4
  0008b	c1 e0 00	 shl	 eax, 0
  0008e	8b 88 00 00 00
	00		 mov	 ecx, DWORD PTR ?campaign_page@@3PAPAUUI_OBJECT@@A[eax]
  00094	51		 push	 ecx
  00095	ba 04 00 00 00	 mov	 edx, 4
  0009a	c1 e2 00	 shl	 edx, 0
  0009d	8b 82 00 00 00
	00		 mov	 eax, DWORD PTR ?campaign_page@@3PAPAUUI_OBJECT@@A[edx]
  000a3	8b 08		 mov	 ecx, DWORD PTR [eax]
  000a5	8b 14 8d 00 00
	00 00		 mov	 edx, DWORD PTR ?fn_get_ui_object_item_number@@3PAP6GHPAUUI_OBJECT@@@ZA[ecx*4]
  000ac	ff d2		 call	 edx
  000ae	c1 e0 04	 shl	 eax, 4
  000b1	03 05 00 00 00
	00		 add	 eax, DWORD PTR ?entities@@3PAUENTITY@@A ; entities
  000b7	89 85 68 ff ff
	ff		 mov	 DWORD PTR tv131[ebp], eax
  000bd	eb 0a		 jmp	 SHORT $LN15@draw_page_
$LN14@draw_page_:
  000bf	c7 85 68 ff ff
	ff 00 00 00 00	 mov	 DWORD PTR tv131[ebp], 0
$LN15@draw_page_:
  000c9	8b 85 68 ff ff
	ff		 mov	 eax, DWORD PTR tv131[ebp]
  000cf	89 45 f8	 mov	 DWORD PTR _mission$[ebp], eax

; 971  : 	
; 972  : 	if (en && mission)

  000d2	83 7d fc 00	 cmp	 DWORD PTR _en$[ebp], 0
  000d6	0f 84 15 03 00
	00		 je	 $LN2@draw_page_
  000dc	83 7d f8 00	 cmp	 DWORD PTR _mission$[ebp], 0
  000e0	0f 84 0b 03 00
	00		 je	 $LN2@draw_page_

; 973  : 	{
; 974  : 		switch (get_local_entity_int_value (mission, INT_TYPE_TASK_OBJECTIVE_PREVIEW_TYPE))

  000e6	83 7d f8 00	 cmp	 DWORD PTR _mission$[ebp], 0
  000ea	74 0d		 je	 SHORT $LN16@draw_page_
  000ec	8b 45 f8	 mov	 eax, DWORD PTR _mission$[ebp]
  000ef	8b 08		 mov	 ecx, DWORD PTR [eax]
  000f1	89 8d 68 ff ff
	ff		 mov	 DWORD PTR tv139[ebp], ecx
  000f7	eb 20		 jmp	 SHORT $LN17@draw_page_
$LN16@draw_page_:
  000f9	68 ce 03 00 00	 push	 974			; 000003ceH
  000fe	68 00 00 00 00	 push	 OFFSET ??_C@_0EP@NKGPCHE@c?3?2users?2nhv90?2projects?2eech?2ap@
  00103	8b 15 00 00 00
	00		 mov	 edx, DWORD PTR ?null_entity_pointer_message@@3PBDB ; null_entity_pointer_message
  00109	52		 push	 edx
  0010a	e8 00 00 00 00	 call	 ?process_assert@@YGXPBD0H@Z ; process_assert
  0010f	c7 85 68 ff ff
	ff 00 00 00 00	 mov	 DWORD PTR tv139[ebp], 0
$LN17@draw_page_:
  00119	b8 01 00 00 00	 mov	 eax, 1
  0011e	85 c0		 test	 eax, eax
  00120	74 0c		 je	 SHORT $LN18@draw_page_
  00122	c7 85 64 ff ff
	ff de 00 00 00	 mov	 DWORD PTR tv146[ebp], 222 ; 000000deH
  0012c	eb 20		 jmp	 SHORT $LN19@draw_page_
$LN18@draw_page_:
  0012e	68 ce 03 00 00	 push	 974			; 000003ceH
  00133	68 00 00 00 00	 push	 OFFSET ??_C@_0EP@NKGPCHE@c?3?2users?2nhv90?2projects?2eech?2ap@
  00138	8b 0d 00 00 00
	00		 mov	 ecx, DWORD PTR ?overload_invalid_int_type_message@@3PBDB ; overload_invalid_int_type_message
  0013e	51		 push	 ecx
  0013f	e8 00 00 00 00	 call	 ?process_assert@@YGXPBD0H@Z ; process_assert
  00144	c7 85 64 ff ff
	ff 00 00 00 00	 mov	 DWORD PTR tv146[ebp], 0
$LN19@draw_page_:
  0014e	68 de 00 00 00	 push	 222			; 000000deH
  00153	8b 55 f8	 mov	 edx, DWORD PTR _mission$[ebp]
  00156	52		 push	 edx
  00157	69 85 68 ff ff
	ff 5c 04 00 00	 imul	 eax, DWORD PTR tv139[ebp], 1116
  00161	8b 8d 64 ff ff
	ff		 mov	 ecx, DWORD PTR tv146[ebp]
  00167	8b 94 88 00 00
	00 00		 mov	 edx, DWORD PTR ?fn_get_local_entity_int_value@@3PAY0BBH@P6GHPAUENTITY@@W4INT_TYPES@@@ZA[eax+ecx*4]
  0016e	ff d2		 call	 edx
  00170	89 85 60 ff ff
	ff		 mov	 DWORD PTR tv152[ebp], eax
  00176	83 bd 60 ff ff
	ff 01		 cmp	 DWORD PTR tv152[ebp], 1
  0017d	74 0e		 je	 SHORT $LN5@draw_page_
  0017f	83 bd 60 ff ff
	ff 02		 cmp	 DWORD PTR tv152[ebp], 2
  00186	74 23		 je	 SHORT $LN6@draw_page_
  00188	e9 64 02 00 00	 jmp	 $LN2@draw_page_
$LN5@draw_page_:

; 975  : 		{
; 976  : 			case TASK_OBJECTIVE_PREVIEW_STILL:
; 977  : 			{
; 978  : 				if (RENDER_STILL_PREVIEW)

  0018d	83 3d 00 00 00
	00 00		 cmp	 DWORD PTR ?d3d_can_render_to_texture@@3HA, 0 ; d3d_can_render_to_texture
  00194	74 15		 je	 SHORT $LN6@draw_page_

; 979  : 				{
; 980  : 					draw_campaign_screen_texture_to_object (preview_texture_screen, obj);

  00196	8b 45 08	 mov	 eax, DWORD PTR _obj$[ebp]
  00199	50		 push	 eax
  0019a	8b 0d 00 00 00
	00		 mov	 ecx, DWORD PTR ?preview_texture_screen@@3PAUSCREEN@@A
  001a0	51		 push	 ecx
  001a1	e8 00 00 00 00	 call	 ?draw_campaign_screen_texture_to_object@@YGXPAUSCREEN@@PAUUI_OBJECT@@@Z ; draw_campaign_screen_texture_to_object

; 981  : 
; 982  : 					break;

  001a6	e9 46 02 00 00	 jmp	 $LN2@draw_page_
$LN6@draw_page_:

; 983  : 				}
; 984  : 
; 985  : 				// DELIBERATE FALL-THROUGH
; 986  : 			}
; 987  : 			case TASK_OBJECTIVE_PREVIEW_LIVE:
; 988  : 			{
; 989  : 				vec3d
; 990  : 					vec;
; 991  : 			
; 992  : 				float
; 993  : 					heading,
; 994  : 					pitch,
; 995  : 					distance;
; 996  : 			
; 997  : 				pos = get_local_entity_vec3d_ptr (en, VEC3D_TYPE_POSITION);

  001ab	83 7d fc 00	 cmp	 DWORD PTR _en$[ebp], 0
  001af	74 0d		 je	 SHORT $LN20@draw_page_
  001b1	8b 45 fc	 mov	 eax, DWORD PTR _en$[ebp]
  001b4	8b 08		 mov	 ecx, DWORD PTR [eax]
  001b6	89 8d 68 ff ff
	ff		 mov	 DWORD PTR tv162[ebp], ecx
  001bc	eb 24		 jmp	 SHORT $LN21@draw_page_
$LN20@draw_page_:
  001be	8b 15 00 00 00
	00		 mov	 edx, DWORD PTR ?__LINE__Var@?0??draw_page_3d_scene@@YGXPAUUI_OBJECT@@PAX@Z@4JA
  001c4	83 c2 28	 add	 edx, 40			; 00000028H
  001c7	52		 push	 edx
  001c8	68 00 00 00 00	 push	 OFFSET ??_C@_0EP@NKGPCHE@c?3?2users?2nhv90?2projects?2eech?2ap@
  001cd	a1 00 00 00 00	 mov	 eax, DWORD PTR ?null_entity_pointer_message@@3PBDB ; null_entity_pointer_message
  001d2	50		 push	 eax
  001d3	e8 00 00 00 00	 call	 ?process_assert@@YGXPBD0H@Z ; process_assert
  001d8	c7 85 68 ff ff
	ff 00 00 00 00	 mov	 DWORD PTR tv162[ebp], 0
$LN21@draw_page_:
  001e2	b9 01 00 00 00	 mov	 ecx, 1
  001e7	85 c9		 test	 ecx, ecx
  001e9	74 0c		 je	 SHORT $LN22@draw_page_
  001eb	c7 85 64 ff ff
	ff 08 00 00 00	 mov	 DWORD PTR tv170[ebp], 8
  001f5	eb 24		 jmp	 SHORT $LN23@draw_page_
$LN22@draw_page_:
  001f7	8b 15 00 00 00
	00		 mov	 edx, DWORD PTR ?__LINE__Var@?0??draw_page_3d_scene@@YGXPAUUI_OBJECT@@PAX@Z@4JA
  001fd	83 c2 28	 add	 edx, 40			; 00000028H
  00200	52		 push	 edx
  00201	68 00 00 00 00	 push	 OFFSET ??_C@_0EP@NKGPCHE@c?3?2users?2nhv90?2projects?2eech?2ap@
  00206	a1 00 00 00 00	 mov	 eax, DWORD PTR ?overload_invalid_vec3d_type_message@@3PBDB ; overload_invalid_vec3d_type_message
  0020b	50		 push	 eax
  0020c	e8 00 00 00 00	 call	 ?process_assert@@YGXPBD0H@Z ; process_assert
  00211	c7 85 64 ff ff
	ff 00 00 00 00	 mov	 DWORD PTR tv170[ebp], 0
$LN23@draw_page_:
  0021b	6a 08		 push	 8
  0021d	8b 4d fc	 mov	 ecx, DWORD PTR _en$[ebp]
  00220	51		 push	 ecx
  00221	6b 95 68 ff ff
	ff 60		 imul	 edx, DWORD PTR tv162[ebp], 96
  00228	8b 85 64 ff ff
	ff		 mov	 eax, DWORD PTR tv170[ebp]
  0022e	8b 8c 82 00 00
	00 00		 mov	 ecx, DWORD PTR ?fn_get_local_entity_vec3d_ptr@@3PAY0BI@P6GPAUVEC3D@@PAUENTITY@@W4VEC3D_TYPES@@@ZA[edx+eax*4]
  00235	ff d1		 call	 ecx
  00237	89 45 c4	 mov	 DWORD PTR _pos$[ebp], eax

; 998  : 		
; 999  : 				ASSERT (pos);

  0023a	83 7d c4 00	 cmp	 DWORD PTR _pos$[ebp], 0
  0023e	75 18		 jne	 SHORT $LN8@draw_page_
  00240	a1 00 00 00 00	 mov	 eax, DWORD PTR ?__LINE__Var@?0??draw_page_3d_scene@@YGXPAUUI_OBJECT@@PAX@Z@4JA
  00245	83 c0 2a	 add	 eax, 42			; 0000002aH
  00248	50		 push	 eax
  00249	68 00 00 00 00	 push	 OFFSET ??_C@_0EP@NKGPCHE@c?3?2users?2nhv90?2projects?2eech?2ap@
  0024e	68 00 00 00 00	 push	 OFFSET ??_C@_03PCBNCGFH@pos@
  00253	e8 00 00 00 00	 call	 ?process_assert@@YGXPBD0H@Z ; process_assert
$LN8@draw_page_:

; 1000 : 				
; 1001 : 				distance = get_local_entity_float_value (en, FLOAT_TYPE_RECON_DISTANCE);

  00258	83 7d fc 00	 cmp	 DWORD PTR _en$[ebp], 0
  0025c	74 0d		 je	 SHORT $LN24@draw_page_
  0025e	8b 45 fc	 mov	 eax, DWORD PTR _en$[ebp]
  00261	8b 08		 mov	 ecx, DWORD PTR [eax]
  00263	89 8d 68 ff ff
	ff		 mov	 DWORD PTR tv187[ebp], ecx
  00269	eb 24		 jmp	 SHORT $LN25@draw_page_
$LN24@draw_page_:
  0026b	8b 15 00 00 00
	00		 mov	 edx, DWORD PTR ?__LINE__Var@?0??draw_page_3d_scene@@YGXPAUUI_OBJECT@@PAX@Z@4JA
  00271	83 c2 2c	 add	 edx, 44			; 0000002cH
  00274	52		 push	 edx
  00275	68 00 00 00 00	 push	 OFFSET ??_C@_0EP@NKGPCHE@c?3?2users?2nhv90?2projects?2eech?2ap@
  0027a	a1 00 00 00 00	 mov	 eax, DWORD PTR ?null_entity_pointer_message@@3PBDB ; null_entity_pointer_message
  0027f	50		 push	 eax
  00280	e8 00 00 00 00	 call	 ?process_assert@@YGXPBD0H@Z ; process_assert
  00285	c7 85 68 ff ff
	ff 00 00 00 00	 mov	 DWORD PTR tv187[ebp], 0
$LN25@draw_page_:
  0028f	b9 01 00 00 00	 mov	 ecx, 1
  00294	85 c9		 test	 ecx, ecx
  00296	74 0c		 je	 SHORT $LN26@draw_page_
  00298	c7 85 64 ff ff
	ff 6e 00 00 00	 mov	 DWORD PTR tv195[ebp], 110 ; 0000006eH
  002a2	eb 24		 jmp	 SHORT $LN27@draw_page_
$LN26@draw_page_:
  002a4	8b 15 00 00 00
	00		 mov	 edx, DWORD PTR ?__LINE__Var@?0??draw_page_3d_scene@@YGXPAUUI_OBJECT@@PAX@Z@4JA
  002aa	83 c2 2c	 add	 edx, 44			; 0000002cH
  002ad	52		 push	 edx
  002ae	68 00 00 00 00	 push	 OFFSET ??_C@_0EP@NKGPCHE@c?3?2users?2nhv90?2projects?2eech?2ap@
  002b3	a1 00 00 00 00	 mov	 eax, DWORD PTR ?overload_invalid_float_type_message@@3PBDB ; overload_invalid_float_type_message
  002b8	50		 push	 eax
  002b9	e8 00 00 00 00	 call	 ?process_assert@@YGXPBD0H@Z ; process_assert
  002be	c7 85 64 ff ff
	ff 00 00 00 00	 mov	 DWORD PTR tv195[ebp], 0
$LN27@draw_page_:
  002c8	6a 6e		 push	 110			; 0000006eH
  002ca	8b 4d fc	 mov	 ecx, DWORD PTR _en$[ebp]
  002cd	51		 push	 ecx
  002ce	69 95 68 ff ff
	ff bc 02 00 00	 imul	 edx, DWORD PTR tv187[ebp], 700
  002d8	8b 85 64 ff ff
	ff		 mov	 eax, DWORD PTR tv195[ebp]
  002de	8b 8c 82 00 00
	00 00		 mov	 ecx, DWORD PTR ?fn_get_local_entity_float_value@@3PAY0KP@P6GMPAUENTITY@@W4FLOAT_TYPES@@@ZA[edx+eax*4]
  002e5	ff d1		 call	 ecx
  002e7	d9 5d ac	 fstp	 DWORD PTR _distance$1[ebp]

; 1002 : 
; 1003 : 				if (distance > 0.0)

  002ea	f3 0f 5a 45 ac	 cvtss2sd xmm0, DWORD PTR _distance$1[ebp]
  002ef	66 0f 2f 05 00
	00 00 00	 comisd	 xmm0, QWORD PTR __real@0000000000000000
  002f7	0f 86 a2 00 00
	00		 jbe	 $LN9@draw_page_

; 1004 : 				{
; 1005 : 					heading = PI;

  002fd	f3 0f 10 05 00
	00 00 00	 movss	 xmm0, DWORD PTR __real@40490fdb
  00305	f3 0f 11 45 b4	 movss	 DWORD PTR _heading$3[ebp], xmm0

; 1006 : 	
; 1007 : 					pitch = rad (60.0);

  0030a	f3 0f 10 05 00
	00 00 00	 movss	 xmm0, DWORD PTR __real@3f860a92
  00312	f3 0f 11 45 b0	 movss	 DWORD PTR _pitch$2[ebp], xmm0

; 1008 : 	
; 1009 : 					get_3d_unit_vector_from_heading_and_pitch (&vec, heading, pitch);

  00317	51		 push	 ecx
  00318	f3 0f 10 45 b0	 movss	 xmm0, DWORD PTR _pitch$2[ebp]
  0031d	f3 0f 11 04 24	 movss	 DWORD PTR [esp], xmm0
  00322	51		 push	 ecx
  00323	f3 0f 10 45 b4	 movss	 xmm0, DWORD PTR _heading$3[ebp]
  00328	f3 0f 11 04 24	 movss	 DWORD PTR [esp], xmm0
  0032d	8d 45 b8	 lea	 eax, DWORD PTR _vec$4[ebp]
  00330	50		 push	 eax
  00331	e8 00 00 00 00	 call	 ?get_3d_unit_vector_from_heading_and_pitch@@YGXPAUVEC3D@@MM@Z ; get_3d_unit_vector_from_heading_and_pitch

; 1010 : 	
; 1011 : 					vp.x = pos->x + (distance * vec.x);

  00336	f3 0f 10 45 ac	 movss	 xmm0, DWORD PTR _distance$1[ebp]
  0033b	f3 0f 59 45 b8	 mulss	 xmm0, DWORD PTR _vec$4[ebp]
  00340	8b 45 c4	 mov	 eax, DWORD PTR _pos$[ebp]
  00343	f3 0f 58 00	 addss	 xmm0, DWORD PTR [eax]
  00347	f3 0f 11 45 c8	 movss	 DWORD PTR _vp$[ebp], xmm0

; 1012 : 					vp.y = pos->y + (distance * vec.y);

  0034c	f3 0f 10 45 ac	 movss	 xmm0, DWORD PTR _distance$1[ebp]
  00351	f3 0f 59 45 bc	 mulss	 xmm0, DWORD PTR _vec$4[ebp+4]
  00356	8b 45 c4	 mov	 eax, DWORD PTR _pos$[ebp]
  00359	f3 0f 58 40 04	 addss	 xmm0, DWORD PTR [eax+4]
  0035e	f3 0f 11 45 cc	 movss	 DWORD PTR _vp$[ebp+4], xmm0

; 1013 : 					vp.z = pos->z + (distance * vec.z);

  00363	f3 0f 10 45 ac	 movss	 xmm0, DWORD PTR _distance$1[ebp]
  00368	f3 0f 59 45 c0	 mulss	 xmm0, DWORD PTR _vec$4[ebp+8]
  0036d	8b 45 c4	 mov	 eax, DWORD PTR _pos$[ebp]
  00370	f3 0f 58 40 08	 addss	 xmm0, DWORD PTR [eax+8]
  00375	f3 0f 11 45 d0	 movss	 DWORD PTR _vp$[ebp+8], xmm0

; 1014 : 	
; 1015 : 					invert_3d_vector (&vec);

  0037a	8d 45 b8	 lea	 eax, DWORD PTR _vec$4[ebp]
  0037d	50		 push	 eax
  0037e	e8 00 00 00 00	 call	 ?invert_3d_vector@@YGXPAUVEC3D@@@Z ; invert_3d_vector

; 1016 : 	
; 1017 : 					get_matrix3x3_from_unit_vec3d (vp.attitude, &vec);

  00383	8d 45 b8	 lea	 eax, DWORD PTR _vec$4[ebp]
  00386	50		 push	 eax
  00387	8d 4d d4	 lea	 ecx, DWORD PTR _vp$[ebp+12]
  0038a	51		 push	 ecx
  0038b	e8 00 00 00 00	 call	 ?get_matrix3x3_from_unit_vec3d@@YGXQAY02MPBUVEC3D@@@Z ; get_matrix3x3_from_unit_vec3d

; 1018 : 	
; 1019 : 					draw_campaign_screen_3d_scene (obj, &vp);

  00390	8d 45 c8	 lea	 eax, DWORD PTR _vp$[ebp]
  00393	50		 push	 eax
  00394	8b 4d 08	 mov	 ecx, DWORD PTR _obj$[ebp]
  00397	51		 push	 ecx
  00398	e8 00 00 00 00	 call	 ?draw_campaign_screen_3d_scene@@YGXPAUUI_OBJECT@@PAUVIEWPOINT@@@Z ; draw_campaign_screen_3d_scene

; 1020 : 				}
; 1021 : 				else

  0039d	eb 52		 jmp	 SHORT $LN10@draw_page_
$LN9@draw_page_:

; 1022 : 				{
; 1023 : 					debug_log ("CA_MISS: INVALID RECON DISTANCE FOR %s", get_local_entity_type_name (en));

  0039f	83 7d fc 00	 cmp	 DWORD PTR _en$[ebp], 0
  003a3	74 0d		 je	 SHORT $LN28@draw_page_
  003a5	8b 45 fc	 mov	 eax, DWORD PTR _en$[ebp]
  003a8	8b 08		 mov	 ecx, DWORD PTR [eax]
  003aa	89 8d 68 ff ff
	ff		 mov	 DWORD PTR tv226[ebp], ecx
  003b0	eb 24		 jmp	 SHORT $LN29@draw_page_
$LN28@draw_page_:
  003b2	8b 15 00 00 00
	00		 mov	 edx, DWORD PTR ?__LINE__Var@?0??draw_page_3d_scene@@YGXPAUUI_OBJECT@@PAX@Z@4JA
  003b8	83 c2 42	 add	 edx, 66			; 00000042H
  003bb	52		 push	 edx
  003bc	68 00 00 00 00	 push	 OFFSET ??_C@_0EP@NKGPCHE@c?3?2users?2nhv90?2projects?2eech?2ap@
  003c1	a1 00 00 00 00	 mov	 eax, DWORD PTR ?null_entity_pointer_message@@3PBDB ; null_entity_pointer_message
  003c6	50		 push	 eax
  003c7	e8 00 00 00 00	 call	 ?process_assert@@YGXPBD0H@Z ; process_assert
  003cc	c7 85 68 ff ff
	ff 00 00 00 00	 mov	 DWORD PTR tv226[ebp], 0
$LN29@draw_page_:
  003d6	6b 8d 68 ff ff
	ff 0c		 imul	 ecx, DWORD PTR tv226[ebp], 12
  003dd	8b 91 00 00 00
	00		 mov	 edx, DWORD PTR ?entity_type_database@@3PAUENTITY_TYPE_DATA@@A[ecx]
  003e3	52		 push	 edx
  003e4	68 00 00 00 00	 push	 OFFSET ??_C@_0CH@BFJGBGEH@CA_MISS?3?5INVALID?5RECON?5DISTANCE@
  003e9	e8 00 00 00 00	 call	 ?debug_log@@YAXPBDZZ	; debug_log
  003ee	83 c4 08	 add	 esp, 8
$LN10@draw_page_:
$LN2@draw_page_:

; 1024 : 				}
; 1025 : 							
; 1026 : 				break;
; 1027 : 			}
; 1028 : 		}
; 1029 : 	}
; 1030 : }

  003f1	5f		 pop	 edi
  003f2	5e		 pop	 esi
  003f3	5b		 pop	 ebx
  003f4	8b e5		 mov	 esp, ebp
  003f6	5d		 pop	 ebp
  003f7	c2 08 00	 ret	 8
?draw_page_3d_scene@@YGXPAUUI_OBJECT@@PAX@Z ENDP	; draw_page_3d_scene
_TEXT	ENDS
; Function compile flags: /Odtp /ZI
; File c:\users\nhv90\projects\eech\aphavoc\source\ui_menu\ingame\campaign\ca_brief.c
;	COMDAT ?notify_mission_accept_button@@YGXPAUUI_OBJECT@@PAX@Z
_TEXT	SEGMENT
tv180 = -88						; size = 4
tv155 = -88						; size = 4
tv134 = -88						; size = 4
tv172 = -84						; size = 4
tv147 = -84						; size = 4
tv95 = -84						; size = 4
tv81 = -84						; size = 4
_mission$ = -16						; size = 4
_guide$ = -12						; size = 4
_group$ = -8						; size = 4
_index$ = -4						; size = 4
_obj$ = 8						; size = 4
_arg$ = 12						; size = 4
?notify_mission_accept_button@@YGXPAUUI_OBJECT@@PAX@Z PROC ; notify_mission_accept_button, COMDAT

; 901  : {

  00000	55		 push	 ebp
  00001	8b ec		 mov	 ebp, esp
  00003	83 ec 58	 sub	 esp, 88			; 00000058H
  00006	53		 push	 ebx
  00007	56		 push	 esi
  00008	57		 push	 edi

; 902  : 	int
; 903  : 		index;
; 904  : 
; 905  : 	entity
; 906  : 		*group,
; 907  : 		*guide,
; 908  : 		*mission;
; 909  : 		
; 910  : 	index = get_ui_object_item_number (campaign_page [CAMPAIGN_PAGE_BRIEFING]);

  00009	b8 04 00 00 00	 mov	 eax, 4
  0000e	c1 e0 00	 shl	 eax, 0
  00011	8b 88 00 00 00
	00		 mov	 ecx, DWORD PTR ?campaign_page@@3PAPAUUI_OBJECT@@A[eax]
  00017	51		 push	 ecx
  00018	ba 04 00 00 00	 mov	 edx, 4
  0001d	c1 e2 00	 shl	 edx, 0
  00020	8b 82 00 00 00
	00		 mov	 eax, DWORD PTR ?campaign_page@@3PAPAUUI_OBJECT@@A[edx]
  00026	8b 08		 mov	 ecx, DWORD PTR [eax]
  00028	8b 14 8d 00 00
	00 00		 mov	 edx, DWORD PTR ?fn_get_ui_object_item_number@@3PAP6GHPAUUI_OBJECT@@@ZA[ecx*4]
  0002f	ff d2		 call	 edx
  00031	89 45 fc	 mov	 DWORD PTR _index$[ebp], eax

; 911  : 
; 912  : 	ASSERT (index != ENTITY_INDEX_DONT_CARE);

  00034	83 7d fc ff	 cmp	 DWORD PTR _index$[ebp], -1
  00038	75 18		 jne	 SHORT $LN2@notify_mis
  0003a	a1 00 00 00 00	 mov	 eax, DWORD PTR ?__LINE__Var@?0??notify_mission_accept_button@@YGXPAUUI_OBJECT@@PAX@Z@4JA
  0003f	83 c0 0b	 add	 eax, 11			; 0000000bH
  00042	50		 push	 eax
  00043	68 00 00 00 00	 push	 OFFSET ??_C@_0EP@NKGPCHE@c?3?2users?2nhv90?2projects?2eech?2ap@
  00048	68 00 00 00 00	 push	 OFFSET ??_C@_0CA@IIKEFLNE@index?5?$CB?$DN?5ENTITY_INDEX_DONT_CARE@
  0004d	e8 00 00 00 00	 call	 ?process_assert@@YGXPBD0H@Z ; process_assert
$LN2@notify_mis:

; 913  : 
; 914  : 	mission = get_local_entity_safe_ptr (index);

  00052	83 7d fc ff	 cmp	 DWORD PTR _index$[ebp], -1
  00056	74 11		 je	 SHORT $LN10@notify_mis
  00058	8b 45 fc	 mov	 eax, DWORD PTR _index$[ebp]
  0005b	c1 e0 04	 shl	 eax, 4
  0005e	03 05 00 00 00
	00		 add	 eax, DWORD PTR ?entities@@3PAUENTITY@@A ; entities
  00064	89 45 ac	 mov	 DWORD PTR tv81[ebp], eax
  00067	eb 07		 jmp	 SHORT $LN11@notify_mis
$LN10@notify_mis:
  00069	c7 45 ac 00 00
	00 00		 mov	 DWORD PTR tv81[ebp], 0
$LN11@notify_mis:
  00070	8b 4d ac	 mov	 ecx, DWORD PTR tv81[ebp]
  00073	89 4d f0	 mov	 DWORD PTR _mission$[ebp], ecx

; 915  : 
; 916  : 	if (get_mission_player_suitability_status (mission))

  00076	8b 45 f0	 mov	 eax, DWORD PTR _mission$[ebp]
  00079	50		 push	 eax
  0007a	e8 00 00 00 00	 call	 ?get_mission_player_suitability_status@@YGHPAUENTITY@@@Z ; get_mission_player_suitability_status
  0007f	85 c0		 test	 eax, eax
  00081	0f 84 e9 01 00
	00		 je	 $LN3@notify_mis

; 917  : 	{
; 918  : 		set_currently_selected_mission (index);

  00087	8b 45 fc	 mov	 eax, DWORD PTR _index$[ebp]
  0008a	50		 push	 eax
  0008b	e8 00 00 00 00	 call	 ?set_currently_selected_mission@@YGXH@Z ; set_currently_selected_mission

; 919  : 
; 920  : 		if (!get_currently_selected_member ())

  00090	e8 00 00 00 00	 call	 ?get_currently_selected_member@@YGPAUENTITY@@XZ ; get_currently_selected_member
  00095	85 c0		 test	 eax, eax
  00097	0f 85 d1 01 00
	00		 jne	 $LN5@notify_mis

; 921  : 		{
; 922  : 			//
; 923  : 			// Automatically change list mode to group
; 924  : 			//
; 925  : 			
; 926  : 			show_group_list (NULL, NULL);

  0009d	6a 00		 push	 0
  0009f	6a 00		 push	 0
  000a1	e8 00 00 00 00	 call	 ?show_group_list@@YGXPAUUI_OBJECT@@PAX@Z ; show_group_list

; 927  : 	
; 928  : 			if (get_local_entity_int_value (mission, INT_TYPE_TASK_STATE) == TASK_STATE_ASSIGNED)

  000a6	83 7d f0 00	 cmp	 DWORD PTR _mission$[ebp], 0
  000aa	74 0a		 je	 SHORT $LN12@notify_mis
  000ac	8b 45 f0	 mov	 eax, DWORD PTR _mission$[ebp]
  000af	8b 08		 mov	 ecx, DWORD PTR [eax]
  000b1	89 4d ac	 mov	 DWORD PTR tv95[ebp], ecx
  000b4	eb 1d		 jmp	 SHORT $LN13@notify_mis
$LN12@notify_mis:
  000b6	68 a0 03 00 00	 push	 928			; 000003a0H
  000bb	68 00 00 00 00	 push	 OFFSET ??_C@_0EP@NKGPCHE@c?3?2users?2nhv90?2projects?2eech?2ap@
  000c0	8b 15 00 00 00
	00		 mov	 edx, DWORD PTR ?null_entity_pointer_message@@3PBDB ; null_entity_pointer_message
  000c6	52		 push	 edx
  000c7	e8 00 00 00 00	 call	 ?process_assert@@YGXPBD0H@Z ; process_assert
  000cc	c7 45 ac 00 00
	00 00		 mov	 DWORD PTR tv95[ebp], 0
$LN13@notify_mis:
  000d3	b8 01 00 00 00	 mov	 eax, 1
  000d8	85 c0		 test	 eax, eax
  000da	74 09		 je	 SHORT $LN14@notify_mis
  000dc	c7 45 a8 e3 00
	00 00		 mov	 DWORD PTR tv134[ebp], 227 ; 000000e3H
  000e3	eb 1d		 jmp	 SHORT $LN15@notify_mis
$LN14@notify_mis:
  000e5	68 a0 03 00 00	 push	 928			; 000003a0H
  000ea	68 00 00 00 00	 push	 OFFSET ??_C@_0EP@NKGPCHE@c?3?2users?2nhv90?2projects?2eech?2ap@
  000ef	8b 0d 00 00 00
	00		 mov	 ecx, DWORD PTR ?overload_invalid_int_type_message@@3PBDB ; overload_invalid_int_type_message
  000f5	51		 push	 ecx
  000f6	e8 00 00 00 00	 call	 ?process_assert@@YGXPBD0H@Z ; process_assert
  000fb	c7 45 a8 00 00
	00 00		 mov	 DWORD PTR tv134[ebp], 0
$LN15@notify_mis:
  00102	68 e3 00 00 00	 push	 227			; 000000e3H
  00107	8b 55 f0	 mov	 edx, DWORD PTR _mission$[ebp]
  0010a	52		 push	 edx
  0010b	69 45 ac 5c 04
	00 00		 imul	 eax, DWORD PTR tv95[ebp], 1116
  00112	8b 4d a8	 mov	 ecx, DWORD PTR tv134[ebp]
  00115	8b 94 88 00 00
	00 00		 mov	 edx, DWORD PTR ?fn_get_local_entity_int_value@@3PAY0BBH@P6GHPAUENTITY@@W4INT_TYPES@@@ZA[eax+ecx*4]
  0011c	ff d2		 call	 edx
  0011e	83 f8 01	 cmp	 eax, 1
  00121	0f 85 47 01 00
	00		 jne	 $LN5@notify_mis

; 929  : 			{
; 930  : 				//
; 931  : 				// Automatically Show group page
; 932  : 				//
; 933  : 			
; 934  : 				guide = get_local_entity_first_child (mission, LIST_TYPE_GUIDE);

  00127	83 7d f0 00	 cmp	 DWORD PTR _mission$[ebp], 0
  0012b	74 0a		 je	 SHORT $LN16@notify_mis
  0012d	8b 45 f0	 mov	 eax, DWORD PTR _mission$[ebp]
  00130	8b 08		 mov	 ecx, DWORD PTR [eax]
  00132	89 4d ac	 mov	 DWORD PTR tv147[ebp], ecx
  00135	eb 21		 jmp	 SHORT $LN17@notify_mis
$LN16@notify_mis:
  00137	8b 15 00 00 00
	00		 mov	 edx, DWORD PTR ?__LINE__Var@?0??notify_mission_accept_button@@YGXPAUUI_OBJECT@@PAX@Z@4JA
  0013d	83 c2 21	 add	 edx, 33			; 00000021H
  00140	52		 push	 edx
  00141	68 00 00 00 00	 push	 OFFSET ??_C@_0EP@NKGPCHE@c?3?2users?2nhv90?2projects?2eech?2ap@
  00146	a1 00 00 00 00	 mov	 eax, DWORD PTR ?null_entity_pointer_message@@3PBDB ; null_entity_pointer_message
  0014b	50		 push	 eax
  0014c	e8 00 00 00 00	 call	 ?process_assert@@YGXPBD0H@Z ; process_assert
  00151	c7 45 ac 00 00
	00 00		 mov	 DWORD PTR tv147[ebp], 0
$LN17@notify_mis:
  00158	b9 01 00 00 00	 mov	 ecx, 1
  0015d	85 c9		 test	 ecx, ecx
  0015f	74 09		 je	 SHORT $LN18@notify_mis
  00161	c7 45 a8 10 00
	00 00		 mov	 DWORD PTR tv155[ebp], 16 ; 00000010H
  00168	eb 21		 jmp	 SHORT $LN19@notify_mis
$LN18@notify_mis:
  0016a	8b 15 00 00 00
	00		 mov	 edx, DWORD PTR ?__LINE__Var@?0??notify_mission_accept_button@@YGXPAUUI_OBJECT@@PAX@Z@4JA
  00170	83 c2 21	 add	 edx, 33			; 00000021H
  00173	52		 push	 edx
  00174	68 00 00 00 00	 push	 OFFSET ??_C@_0EP@NKGPCHE@c?3?2users?2nhv90?2projects?2eech?2ap@
  00179	a1 00 00 00 00	 mov	 eax, DWORD PTR ?overload_invalid_list_type_message@@3PBDB ; overload_invalid_list_type_message
  0017e	50		 push	 eax
  0017f	e8 00 00 00 00	 call	 ?process_assert@@YGXPBD0H@Z ; process_assert
  00184	c7 45 a8 00 00
	00 00		 mov	 DWORD PTR tv155[ebp], 0
$LN19@notify_mis:
  0018b	6a 10		 push	 16			; 00000010H
  0018d	8b 4d f0	 mov	 ecx, DWORD PTR _mission$[ebp]
  00190	51		 push	 ecx
  00191	69 55 ac b4 00
	00 00		 imul	 edx, DWORD PTR tv147[ebp], 180
  00198	8b 45 a8	 mov	 eax, DWORD PTR tv155[ebp]
  0019b	8b 8c 82 00 00
	00 00		 mov	 ecx, DWORD PTR ?fn_get_local_entity_first_child@@3PAY0CN@P6GPAUENTITY@@PAU1@W4LIST_TYPES@@@ZA[edx+eax*4]
  001a2	ff d1		 call	 ecx
  001a4	89 45 f4	 mov	 DWORD PTR _guide$[ebp], eax

; 935  : 	
; 936  : 				ASSERT (guide);

  001a7	83 7d f4 00	 cmp	 DWORD PTR _guide$[ebp], 0
  001ab	75 18		 jne	 SHORT $LN7@notify_mis
  001ad	a1 00 00 00 00	 mov	 eax, DWORD PTR ?__LINE__Var@?0??notify_mission_accept_button@@YGXPAUUI_OBJECT@@PAX@Z@4JA
  001b2	83 c0 23	 add	 eax, 35			; 00000023H
  001b5	50		 push	 eax
  001b6	68 00 00 00 00	 push	 OFFSET ??_C@_0EP@NKGPCHE@c?3?2users?2nhv90?2projects?2eech?2ap@
  001bb	68 00 00 00 00	 push	 OFFSET ??_C@_05HLIEEKJG@guide@
  001c0	e8 00 00 00 00	 call	 ?process_assert@@YGXPBD0H@Z ; process_assert
$LN7@notify_mis:

; 937  : 	
; 938  : 				group = get_local_entity_parent (guide, LIST_TYPE_GUIDE_STACK);

  001c5	83 7d f4 00	 cmp	 DWORD PTR _guide$[ebp], 0
  001c9	74 0a		 je	 SHORT $LN20@notify_mis
  001cb	8b 45 f4	 mov	 eax, DWORD PTR _guide$[ebp]
  001ce	8b 08		 mov	 ecx, DWORD PTR [eax]
  001d0	89 4d ac	 mov	 DWORD PTR tv172[ebp], ecx
  001d3	eb 21		 jmp	 SHORT $LN21@notify_mis
$LN20@notify_mis:
  001d5	8b 15 00 00 00
	00		 mov	 edx, DWORD PTR ?__LINE__Var@?0??notify_mission_accept_button@@YGXPAUUI_OBJECT@@PAX@Z@4JA
  001db	83 c2 25	 add	 edx, 37			; 00000025H
  001de	52		 push	 edx
  001df	68 00 00 00 00	 push	 OFFSET ??_C@_0EP@NKGPCHE@c?3?2users?2nhv90?2projects?2eech?2ap@
  001e4	a1 00 00 00 00	 mov	 eax, DWORD PTR ?null_entity_pointer_message@@3PBDB ; null_entity_pointer_message
  001e9	50		 push	 eax
  001ea	e8 00 00 00 00	 call	 ?process_assert@@YGXPBD0H@Z ; process_assert
  001ef	c7 45 ac 00 00
	00 00		 mov	 DWORD PTR tv172[ebp], 0
$LN21@notify_mis:
  001f6	b9 01 00 00 00	 mov	 ecx, 1
  001fb	85 c9		 test	 ecx, ecx
  001fd	74 09		 je	 SHORT $LN22@notify_mis
  001ff	c7 45 a8 11 00
	00 00		 mov	 DWORD PTR tv180[ebp], 17 ; 00000011H
  00206	eb 21		 jmp	 SHORT $LN23@notify_mis
$LN22@notify_mis:
  00208	8b 15 00 00 00
	00		 mov	 edx, DWORD PTR ?__LINE__Var@?0??notify_mission_accept_button@@YGXPAUUI_OBJECT@@PAX@Z@4JA
  0020e	83 c2 25	 add	 edx, 37			; 00000025H
  00211	52		 push	 edx
  00212	68 00 00 00 00	 push	 OFFSET ??_C@_0EP@NKGPCHE@c?3?2users?2nhv90?2projects?2eech?2ap@
  00217	a1 00 00 00 00	 mov	 eax, DWORD PTR ?overload_invalid_list_type_message@@3PBDB ; overload_invalid_list_type_message
  0021c	50		 push	 eax
  0021d	e8 00 00 00 00	 call	 ?process_assert@@YGXPBD0H@Z ; process_assert
  00222	c7 45 a8 00 00
	00 00		 mov	 DWORD PTR tv180[ebp], 0
$LN23@notify_mis:
  00229	6a 11		 push	 17			; 00000011H
  0022b	8b 4d f4	 mov	 ecx, DWORD PTR _guide$[ebp]
  0022e	51		 push	 ecx
  0022f	69 55 ac b4 00
	00 00		 imul	 edx, DWORD PTR tv172[ebp], 180
  00236	8b 45 a8	 mov	 eax, DWORD PTR tv180[ebp]
  00239	8b 8c 82 00 00
	00 00		 mov	 ecx, DWORD PTR ?fn_get_local_entity_parent@@3PAY0CN@P6GPAUENTITY@@PAU1@W4LIST_TYPES@@@ZA[edx+eax*4]
  00240	ff d1		 call	 ecx
  00242	89 45 f8	 mov	 DWORD PTR _group$[ebp], eax

; 939  : 	
; 940  : 				ASSERT (group);

  00245	83 7d f8 00	 cmp	 DWORD PTR _group$[ebp], 0
  00249	75 18		 jne	 SHORT $LN8@notify_mis
  0024b	a1 00 00 00 00	 mov	 eax, DWORD PTR ?__LINE__Var@?0??notify_mission_accept_button@@YGXPAUUI_OBJECT@@PAX@Z@4JA
  00250	83 c0 27	 add	 eax, 39			; 00000027H
  00253	50		 push	 eax
  00254	68 00 00 00 00	 push	 OFFSET ??_C@_0EP@NKGPCHE@c?3?2users?2nhv90?2projects?2eech?2ap@
  00259	68 00 00 00 00	 push	 OFFSET ??_C@_05MGJOOGAJ@group@
  0025e	e8 00 00 00 00	 call	 ?process_assert@@YGXPBD0H@Z ; process_assert
$LN8@notify_mis:

; 941  : 		
; 942  : 				show_group_page (group, FALSE);

  00263	6a 00		 push	 0
  00265	8b 45 f8	 mov	 eax, DWORD PTR _group$[ebp]
  00268	50		 push	 eax
  00269	e8 00 00 00 00	 call	 ?show_group_page@@YGHPAUENTITY@@H@Z ; show_group_page
$LN5@notify_mis:

; 943  : 			}
; 944  : 		}
; 945  : 	}
; 946  : 	else

  0026e	eb 19		 jmp	 SHORT $LN1@notify_mis
$LN3@notify_mis:

; 947  : 	{
; 948  : 		set_ui_object_drawable (mission_accept_button, FALSE);

  00270	6a 00		 push	 0
  00272	a1 00 00 00 00	 mov	 eax, DWORD PTR ?mission_accept_button@@3PAUUI_OBJECT@@A ; mission_accept_button
  00277	50		 push	 eax
  00278	8b 0d 00 00 00
	00		 mov	 ecx, DWORD PTR ?mission_accept_button@@3PAUUI_OBJECT@@A ; mission_accept_button
  0027e	8b 11		 mov	 edx, DWORD PTR [ecx]
  00280	8b 04 95 00 00
	00 00		 mov	 eax, DWORD PTR ?fn_set_ui_object_drawable@@3PAP6GXPAUUI_OBJECT@@H@ZA[edx*4]
  00287	ff d0		 call	 eax
$LN1@notify_mis:

; 949  : 	}
; 950  : }

  00289	5f		 pop	 edi
  0028a	5e		 pop	 esi
  0028b	5b		 pop	 ebx
  0028c	8b e5		 mov	 esp, ebp
  0028e	5d		 pop	 ebp
  0028f	c2 08 00	 ret	 8
?notify_mission_accept_button@@YGXPAUUI_OBJECT@@PAX@Z ENDP ; notify_mission_accept_button
_TEXT	ENDS
; Function compile flags: /Odtp /ZI
; File c:\users\nhv90\projects\eech\aphavoc\source\ui_menu\ingame\campaign\ca_brief.c
;	COMDAT ?draw_page_map@@YGXPAUUI_OBJECT@@PAX@Z
_TEXT	SEGMENT
tv85 = -72						; size = 4
_en$ = -4						; size = 4
_obj$ = 8						; size = 4
_arg$ = 12						; size = 4
?draw_page_map@@YGXPAUUI_OBJECT@@PAX@Z PROC		; draw_page_map, COMDAT

; 885  : {

  00000	55		 push	 ebp
  00001	8b ec		 mov	 ebp, esp
  00003	83 ec 48	 sub	 esp, 72			; 00000048H
  00006	53		 push	 ebx
  00007	56		 push	 esi
  00008	57		 push	 edi

; 886  : 	entity
; 887  : 		*en;
; 888  : 
; 889  : 	en = get_local_entity_safe_ptr (get_ui_object_item_number (campaign_page [CAMPAIGN_PAGE_BRIEFING]));

  00009	b8 04 00 00 00	 mov	 eax, 4
  0000e	c1 e0 00	 shl	 eax, 0
  00011	8b 88 00 00 00
	00		 mov	 ecx, DWORD PTR ?campaign_page@@3PAPAUUI_OBJECT@@A[eax]
  00017	51		 push	 ecx
  00018	ba 04 00 00 00	 mov	 edx, 4
  0001d	c1 e2 00	 shl	 edx, 0
  00020	8b 82 00 00 00
	00		 mov	 eax, DWORD PTR ?campaign_page@@3PAPAUUI_OBJECT@@A[edx]
  00026	8b 08		 mov	 ecx, DWORD PTR [eax]
  00028	8b 14 8d 00 00
	00 00		 mov	 edx, DWORD PTR ?fn_get_ui_object_item_number@@3PAP6GHPAUUI_OBJECT@@@ZA[ecx*4]
  0002f	ff d2		 call	 edx
  00031	83 f8 ff	 cmp	 eax, -1
  00034	74 36		 je	 SHORT $LN4@draw_page_
  00036	b8 04 00 00 00	 mov	 eax, 4
  0003b	c1 e0 00	 shl	 eax, 0
  0003e	8b 88 00 00 00
	00		 mov	 ecx, DWORD PTR ?campaign_page@@3PAPAUUI_OBJECT@@A[eax]
  00044	51		 push	 ecx
  00045	ba 04 00 00 00	 mov	 edx, 4
  0004a	c1 e2 00	 shl	 edx, 0
  0004d	8b 82 00 00 00
	00		 mov	 eax, DWORD PTR ?campaign_page@@3PAPAUUI_OBJECT@@A[edx]
  00053	8b 08		 mov	 ecx, DWORD PTR [eax]
  00055	8b 14 8d 00 00
	00 00		 mov	 edx, DWORD PTR ?fn_get_ui_object_item_number@@3PAP6GHPAUUI_OBJECT@@@ZA[ecx*4]
  0005c	ff d2		 call	 edx
  0005e	c1 e0 04	 shl	 eax, 4
  00061	03 05 00 00 00
	00		 add	 eax, DWORD PTR ?entities@@3PAUENTITY@@A ; entities
  00067	89 45 b8	 mov	 DWORD PTR tv85[ebp], eax
  0006a	eb 07		 jmp	 SHORT $LN5@draw_page_
$LN4@draw_page_:
  0006c	c7 45 b8 00 00
	00 00		 mov	 DWORD PTR tv85[ebp], 0
$LN5@draw_page_:
  00073	8b 45 b8	 mov	 eax, DWORD PTR tv85[ebp]
  00076	89 45 fc	 mov	 DWORD PTR _en$[ebp], eax

; 890  : 
; 891  : 	ASSERT (en);

  00079	83 7d fc 00	 cmp	 DWORD PTR _en$[ebp], 0
  0007d	75 18		 jne	 SHORT $LN2@draw_page_
  0007f	a1 00 00 00 00	 mov	 eax, DWORD PTR ?__LINE__Var@?0??draw_page_map@@YGXPAUUI_OBJECT@@PAX@Z@4JA
  00084	83 c0 06	 add	 eax, 6
  00087	50		 push	 eax
  00088	68 00 00 00 00	 push	 OFFSET ??_C@_0EP@NKGPCHE@c?3?2users?2nhv90?2projects?2eech?2ap@
  0008d	68 00 00 00 00	 push	 OFFSET ??_C@_02LFNMGJAP@en@
  00092	e8 00 00 00 00	 call	 ?process_assert@@YGXPBD0H@Z ; process_assert
$LN2@draw_page_:

; 892  : 	
; 893  : 	draw_2d_map (obj, arg);

  00097	8b 45 0c	 mov	 eax, DWORD PTR _arg$[ebp]
  0009a	50		 push	 eax
  0009b	8b 4d 08	 mov	 ecx, DWORD PTR _obj$[ebp]
  0009e	51		 push	 ecx
  0009f	e8 00 00 00 00	 call	 ?draw_2d_map@@YGXPAUUI_OBJECT@@PAX@Z ; draw_2d_map

; 894  : }

  000a4	5f		 pop	 edi
  000a5	5e		 pop	 esi
  000a6	5b		 pop	 ebx
  000a7	8b e5		 mov	 esp, ebp
  000a9	5d		 pop	 ebp
  000aa	c2 08 00	 ret	 8
?draw_page_map@@YGXPAUUI_OBJECT@@PAX@Z ENDP		; draw_page_map
_TEXT	ENDS
; Function compile flags: /Odtp /ZI
; File c:\users\nhv90\projects\eech\aphavoc\source\ui_menu\ingame\campaign\ca_brief.c
;	COMDAT ?notify_page_show_3d@@YGXPAUUI_OBJECT@@PAX@Z
_TEXT	SEGMENT
_obj$ = 8						; size = 4
_arg$ = 12						; size = 4
?notify_page_show_3d@@YGXPAUUI_OBJECT@@PAX@Z PROC	; notify_page_show_3d, COMDAT

; 874  : {

  00000	55		 push	 ebp
  00001	8b ec		 mov	 ebp, esp
  00003	83 ec 40	 sub	 esp, 64			; 00000040H
  00006	53		 push	 ebx
  00007	56		 push	 esi
  00008	57		 push	 edi

; 875  : 	set_ui_object_drawable (page_3d_area, TRUE);

  00009	6a 01		 push	 1
  0000b	a1 00 00 00 00	 mov	 eax, DWORD PTR ?page_3d_area@@3PAUUI_OBJECT@@A
  00010	50		 push	 eax
  00011	8b 0d 00 00 00
	00		 mov	 ecx, DWORD PTR ?page_3d_area@@3PAUUI_OBJECT@@A
  00017	8b 11		 mov	 edx, DWORD PTR [ecx]
  00019	8b 04 95 00 00
	00 00		 mov	 eax, DWORD PTR ?fn_set_ui_object_drawable@@3PAP6GXPAUUI_OBJECT@@H@ZA[edx*4]
  00020	ff d0		 call	 eax

; 876  : 
; 877  : 	set_ui_object_drawable (page_map_area, FALSE);

  00022	6a 00		 push	 0
  00024	a1 00 00 00 00	 mov	 eax, DWORD PTR ?page_map_area@@3PAUUI_OBJECT@@A
  00029	50		 push	 eax
  0002a	8b 0d 00 00 00
	00		 mov	 ecx, DWORD PTR ?page_map_area@@3PAUUI_OBJECT@@A
  00030	8b 11		 mov	 edx, DWORD PTR [ecx]
  00032	8b 04 95 00 00
	00 00		 mov	 eax, DWORD PTR ?fn_set_ui_object_drawable@@3PAP6GXPAUUI_OBJECT@@H@ZA[edx*4]
  00039	ff d0		 call	 eax

; 878  : }

  0003b	5f		 pop	 edi
  0003c	5e		 pop	 esi
  0003d	5b		 pop	 ebx
  0003e	8b e5		 mov	 esp, ebp
  00040	5d		 pop	 ebp
  00041	c2 08 00	 ret	 8
?notify_page_show_3d@@YGXPAUUI_OBJECT@@PAX@Z ENDP	; notify_page_show_3d
_TEXT	ENDS
; Function compile flags: /Odtp /ZI
; File c:\users\nhv90\projects\eech\aphavoc\source\ui_menu\ingame\campaign\ca_brief.c
;	COMDAT ?notify_page_show_map@@YGXPAUUI_OBJECT@@PAX@Z
_TEXT	SEGMENT
_obj$ = 8						; size = 4
_arg$ = 12						; size = 4
?notify_page_show_map@@YGXPAUUI_OBJECT@@PAX@Z PROC	; notify_page_show_map, COMDAT

; 863  : {

  00000	55		 push	 ebp
  00001	8b ec		 mov	 ebp, esp
  00003	83 ec 40	 sub	 esp, 64			; 00000040H
  00006	53		 push	 ebx
  00007	56		 push	 esi
  00008	57		 push	 edi

; 864  : 	set_ui_object_drawable (page_3d_area, FALSE);

  00009	6a 00		 push	 0
  0000b	a1 00 00 00 00	 mov	 eax, DWORD PTR ?page_3d_area@@3PAUUI_OBJECT@@A
  00010	50		 push	 eax
  00011	8b 0d 00 00 00
	00		 mov	 ecx, DWORD PTR ?page_3d_area@@3PAUUI_OBJECT@@A
  00017	8b 11		 mov	 edx, DWORD PTR [ecx]
  00019	8b 04 95 00 00
	00 00		 mov	 eax, DWORD PTR ?fn_set_ui_object_drawable@@3PAP6GXPAUUI_OBJECT@@H@ZA[edx*4]
  00020	ff d0		 call	 eax

; 865  : 
; 866  : 	set_ui_object_drawable (page_map_area, TRUE);

  00022	6a 01		 push	 1
  00024	a1 00 00 00 00	 mov	 eax, DWORD PTR ?page_map_area@@3PAUUI_OBJECT@@A
  00029	50		 push	 eax
  0002a	8b 0d 00 00 00
	00		 mov	 ecx, DWORD PTR ?page_map_area@@3PAUUI_OBJECT@@A
  00030	8b 11		 mov	 edx, DWORD PTR [ecx]
  00032	8b 04 95 00 00
	00 00		 mov	 eax, DWORD PTR ?fn_set_ui_object_drawable@@3PAP6GXPAUUI_OBJECT@@H@ZA[edx*4]
  00039	ff d0		 call	 eax

; 867  : }

  0003b	5f		 pop	 edi
  0003c	5e		 pop	 esi
  0003d	5b		 pop	 ebx
  0003e	8b e5		 mov	 esp, ebp
  00040	5d		 pop	 ebp
  00041	c2 08 00	 ret	 8
?notify_page_show_map@@YGXPAUUI_OBJECT@@PAX@Z ENDP	; notify_page_show_map
_TEXT	ENDS
; Function compile flags: /Odtp /ZI
; File c:\users\nhv90\projects\eech\aphavoc\source\ui_menu\ingame\campaign\ca_brief.c
;	COMDAT ?notify_group_selected@@YGXPAUUI_OBJECT@@PAX@Z
_TEXT	SEGMENT
_index$ = -4						; size = 4
_obj$ = 8						; size = 4
_arg$ = 12						; size = 4
?notify_group_selected@@YGXPAUUI_OBJECT@@PAX@Z PROC	; notify_group_selected, COMDAT

; 846  : {

  00000	55		 push	 ebp
  00001	8b ec		 mov	 ebp, esp
  00003	83 ec 44	 sub	 esp, 68			; 00000044H
  00006	53		 push	 ebx
  00007	56		 push	 esi
  00008	57		 push	 edi

; 847  : 	int
; 848  : 		index;
; 849  : 		
; 850  : 	index = get_ui_object_item_number (obj);

  00009	8b 45 08	 mov	 eax, DWORD PTR _obj$[ebp]
  0000c	50		 push	 eax
  0000d	8b 4d 08	 mov	 ecx, DWORD PTR _obj$[ebp]
  00010	8b 11		 mov	 edx, DWORD PTR [ecx]
  00012	8b 04 95 00 00
	00 00		 mov	 eax, DWORD PTR ?fn_get_ui_object_item_number@@3PAP6GHPAUUI_OBJECT@@@ZA[edx*4]
  00019	ff d0		 call	 eax
  0001b	89 45 fc	 mov	 DWORD PTR _index$[ebp], eax

; 851  : 
; 852  : 	if (index != ENTITY_INDEX_DONT_CARE)

  0001e	83 7d fc ff	 cmp	 DWORD PTR _index$[ebp], -1
  00022	74 14		 je	 SHORT $LN1@notify_gro

; 853  : 	{
; 854  : 		show_group_page (get_local_entity_ptr (index), FALSE);

  00024	6a 00		 push	 0
  00026	8b 45 fc	 mov	 eax, DWORD PTR _index$[ebp]
  00029	c1 e0 04	 shl	 eax, 4
  0002c	03 05 00 00 00
	00		 add	 eax, DWORD PTR ?entities@@3PAUENTITY@@A ; entities
  00032	50		 push	 eax
  00033	e8 00 00 00 00	 call	 ?show_group_page@@YGHPAUENTITY@@H@Z ; show_group_page
$LN1@notify_gro:

; 855  : 	}
; 856  : }

  00038	5f		 pop	 edi
  00039	5e		 pop	 esi
  0003a	5b		 pop	 ebx
  0003b	8b e5		 mov	 esp, ebp
  0003d	5d		 pop	 ebp
  0003e	c2 08 00	 ret	 8
?notify_group_selected@@YGXPAUUI_OBJECT@@PAX@Z ENDP	; notify_group_selected
_TEXT	ENDS
; Function compile flags: /Odtp /ZI
; File c:\users\nhv90\projects\eech\aphavoc\source\ui_menu\ingame\campaign\ca_brief.c
;	COMDAT ?notify_base_selected@@YGXPAUUI_OBJECT@@PAX@Z
_TEXT	SEGMENT
_index$ = -4						; size = 4
_obj$ = 8						; size = 4
_arg$ = 12						; size = 4
?notify_base_selected@@YGXPAUUI_OBJECT@@PAX@Z PROC	; notify_base_selected, COMDAT

; 829  : {

  00000	55		 push	 ebp
  00001	8b ec		 mov	 ebp, esp
  00003	83 ec 44	 sub	 esp, 68			; 00000044H
  00006	53		 push	 ebx
  00007	56		 push	 esi
  00008	57		 push	 edi

; 830  : 	int
; 831  : 		index;
; 832  : 		
; 833  : 	index = get_ui_object_item_number (obj);

  00009	8b 45 08	 mov	 eax, DWORD PTR _obj$[ebp]
  0000c	50		 push	 eax
  0000d	8b 4d 08	 mov	 ecx, DWORD PTR _obj$[ebp]
  00010	8b 11		 mov	 edx, DWORD PTR [ecx]
  00012	8b 04 95 00 00
	00 00		 mov	 eax, DWORD PTR ?fn_get_ui_object_item_number@@3PAP6GHPAUUI_OBJECT@@@ZA[edx*4]
  00019	ff d0		 call	 eax
  0001b	89 45 fc	 mov	 DWORD PTR _index$[ebp], eax

; 834  : 
; 835  : 	if (index != ENTITY_INDEX_DONT_CARE)

  0001e	83 7d fc ff	 cmp	 DWORD PTR _index$[ebp], -1
  00022	74 14		 je	 SHORT $LN1@notify_bas

; 836  : 	{
; 837  : 		show_base_page (get_local_entity_ptr (index), FALSE);

  00024	6a 00		 push	 0
  00026	8b 45 fc	 mov	 eax, DWORD PTR _index$[ebp]
  00029	c1 e0 04	 shl	 eax, 4
  0002c	03 05 00 00 00
	00		 add	 eax, DWORD PTR ?entities@@3PAUENTITY@@A ; entities
  00032	50		 push	 eax
  00033	e8 00 00 00 00	 call	 ?show_base_page@@YGXPAUENTITY@@H@Z ; show_base_page
$LN1@notify_bas:

; 838  : 	}
; 839  : }

  00038	5f		 pop	 edi
  00039	5e		 pop	 esi
  0003a	5b		 pop	 ebx
  0003b	8b e5		 mov	 esp, ebp
  0003d	5d		 pop	 ebp
  0003e	c2 08 00	 ret	 8
?notify_base_selected@@YGXPAUUI_OBJECT@@PAX@Z ENDP	; notify_base_selected
_TEXT	ENDS
; Function compile flags: /Odtp /ZI
; File c:\users\nhv90\projects\eech\aphavoc\source\ui_menu\ingame\campaign\ca_brief.c
;	COMDAT ?update_briefing_page_objects@@YGXPAUUI_OBJECT@@PAX@Z
_TEXT	SEGMENT
tv534 = -380						; size = 4
tv506 = -380						; size = 4
tv482 = -380						; size = 4
tv325 = -380						; size = 4
tv298 = -380						; size = 4
tv231 = -380						; size = 4
tv201 = -380						; size = 4
tv159 = -380						; size = 4
tv527 = -376						; size = 4
tv498 = -376						; size = 4
tv474 = -376						; size = 4
tv412 = -376						; size = 4
tv339 = -376						; size = 4
tv317 = -376						; size = 4
tv283 = -376						; size = 4
tv223 = -376						; size = 4
tv193 = -376						; size = 4
tv151 = -376						; size = 4
tv129 = -376						; size = 4
tv85 = -376						; size = 4
$T1 = -372						; size = 4
_pilot$2 = -304						; size = 4
_wind_velocity$3 = -300					; size = 12
_pos$4 = -288						; size = 4
_weather$5 = -284					; size = 4
_keysite$6 = -280					; size = 4
_speed$7 = -276						; size = 4
_heading$8 = -272					; size = 4
_int_heading$9 = -268					; size = 4
_seconds$10 = -264					; size = 4
_minutes$11 = -260					; size = 4
_hours$12 = -256					; size = 4
_flight_time$13 = -252					; size = 4
_output$14 = -248					; size = 32
_seconds$15 = -216					; size = 4
_minutes$16 = -212					; size = 4
_hours$17 = -208					; size = 4
_expire_timer$18 = -204					; size = 4
_status$19 = -200					; size = 4
_mission$ = -196					; size = 4
_s$ = -192						; size = 128
_buffer$ = -64						; size = 64
_obj$ = 8						; size = 4
_arg$ = 12						; size = 4
?update_briefing_page_objects@@YGXPAUUI_OBJECT@@PAX@Z PROC ; update_briefing_page_objects, COMDAT

; 522  : {

  00000	55		 push	 ebp
  00001	8b ec		 mov	 ebp, esp
  00003	81 ec 7c 01 00
	00		 sub	 esp, 380		; 0000017cH
  00009	53		 push	 ebx
  0000a	56		 push	 esi
  0000b	57		 push	 edi

; 523  : 	char
; 524  : 		buffer [64],
; 525  : 		s [128];
; 526  : 
; 527  : 	entity
; 528  : 		*mission;
; 529  : 
; 530  : 	mission = get_local_entity_safe_ptr (get_ui_object_item_number (campaign_page [CAMPAIGN_PAGE_BRIEFING]));

  0000c	b8 04 00 00 00	 mov	 eax, 4
  00011	c1 e0 00	 shl	 eax, 0
  00014	8b 88 00 00 00
	00		 mov	 ecx, DWORD PTR ?campaign_page@@3PAPAUUI_OBJECT@@A[eax]
  0001a	51		 push	 ecx
  0001b	ba 04 00 00 00	 mov	 edx, 4
  00020	c1 e2 00	 shl	 edx, 0
  00023	8b 82 00 00 00
	00		 mov	 eax, DWORD PTR ?campaign_page@@3PAPAUUI_OBJECT@@A[edx]
  00029	8b 08		 mov	 ecx, DWORD PTR [eax]
  0002b	8b 14 8d 00 00
	00 00		 mov	 edx, DWORD PTR ?fn_get_ui_object_item_number@@3PAP6GHPAUUI_OBJECT@@@ZA[ecx*4]
  00032	ff d2		 call	 edx
  00034	83 f8 ff	 cmp	 eax, -1
  00037	74 39		 je	 SHORT $LN34@update_bri
  00039	b8 04 00 00 00	 mov	 eax, 4
  0003e	c1 e0 00	 shl	 eax, 0
  00041	8b 88 00 00 00
	00		 mov	 ecx, DWORD PTR ?campaign_page@@3PAPAUUI_OBJECT@@A[eax]
  00047	51		 push	 ecx
  00048	ba 04 00 00 00	 mov	 edx, 4
  0004d	c1 e2 00	 shl	 edx, 0
  00050	8b 82 00 00 00
	00		 mov	 eax, DWORD PTR ?campaign_page@@3PAPAUUI_OBJECT@@A[edx]
  00056	8b 08		 mov	 ecx, DWORD PTR [eax]
  00058	8b 14 8d 00 00
	00 00		 mov	 edx, DWORD PTR ?fn_get_ui_object_item_number@@3PAP6GHPAUUI_OBJECT@@@ZA[ecx*4]
  0005f	ff d2		 call	 edx
  00061	c1 e0 04	 shl	 eax, 4
  00064	03 05 00 00 00
	00		 add	 eax, DWORD PTR ?entities@@3PAUENTITY@@A ; entities
  0006a	89 85 88 fe ff
	ff		 mov	 DWORD PTR tv85[ebp], eax
  00070	eb 0a		 jmp	 SHORT $LN35@update_bri
$LN34@update_bri:
  00072	c7 85 88 fe ff
	ff 00 00 00 00	 mov	 DWORD PTR tv85[ebp], 0
$LN35@update_bri:
  0007c	8b 85 88 fe ff
	ff		 mov	 eax, DWORD PTR tv85[ebp]
  00082	89 85 3c ff ff
	ff		 mov	 DWORD PTR _mission$[ebp], eax

; 531  : 
; 532  : 	ASSERT (mission);

  00088	83 bd 3c ff ff
	ff 00		 cmp	 DWORD PTR _mission$[ebp], 0
  0008f	75 18		 jne	 SHORT $LN6@update_bri
  00091	a1 00 00 00 00	 mov	 eax, DWORD PTR ?__LINE__Var@?0??update_briefing_page_objects@@YGXPAUUI_OBJECT@@PAX@Z@4JA
  00096	83 c0 0a	 add	 eax, 10			; 0000000aH
  00099	50		 push	 eax
  0009a	68 00 00 00 00	 push	 OFFSET ??_C@_0EP@NKGPCHE@c?3?2users?2nhv90?2projects?2eech?2ap@
  0009f	68 00 00 00 00	 push	 OFFSET ??_C@_07CACALAH@mission@
  000a4	e8 00 00 00 00	 call	 ?process_assert@@YGXPBD0H@Z ; process_assert
$LN6@update_bri:

; 533  : 
; 534  : 	ASSERT (get_local_entity_type (mission) == ENTITY_TYPE_TASK);

  000a9	83 bd 3c ff ff
	ff 00		 cmp	 DWORD PTR _mission$[ebp], 0
  000b0	74 10		 je	 SHORT $LN36@update_bri
  000b2	8b 85 3c ff ff
	ff		 mov	 eax, DWORD PTR _mission$[ebp]
  000b8	8b 08		 mov	 ecx, DWORD PTR [eax]
  000ba	89 8d 88 fe ff
	ff		 mov	 DWORD PTR tv129[ebp], ecx
  000c0	eb 24		 jmp	 SHORT $LN37@update_bri
$LN36@update_bri:
  000c2	8b 15 00 00 00
	00		 mov	 edx, DWORD PTR ?__LINE__Var@?0??update_briefing_page_objects@@YGXPAUUI_OBJECT@@PAX@Z@4JA
  000c8	83 c2 0c	 add	 edx, 12			; 0000000cH
  000cb	52		 push	 edx
  000cc	68 00 00 00 00	 push	 OFFSET ??_C@_0EP@NKGPCHE@c?3?2users?2nhv90?2projects?2eech?2ap@
  000d1	a1 00 00 00 00	 mov	 eax, DWORD PTR ?null_entity_pointer_message@@3PBDB ; null_entity_pointer_message
  000d6	50		 push	 eax
  000d7	e8 00 00 00 00	 call	 ?process_assert@@YGXPBD0H@Z ; process_assert
  000dc	c7 85 88 fe ff
	ff 00 00 00 00	 mov	 DWORD PTR tv129[ebp], 0
$LN37@update_bri:
  000e6	83 bd 88 fe ff
	ff 22		 cmp	 DWORD PTR tv129[ebp], 34 ; 00000022H
  000ed	74 18		 je	 SHORT $LN7@update_bri
  000ef	a1 00 00 00 00	 mov	 eax, DWORD PTR ?__LINE__Var@?0??update_briefing_page_objects@@YGXPAUUI_OBJECT@@PAX@Z@4JA
  000f4	83 c0 0c	 add	 eax, 12			; 0000000cH
  000f7	50		 push	 eax
  000f8	68 00 00 00 00	 push	 OFFSET ??_C@_0EP@NKGPCHE@c?3?2users?2nhv90?2projects?2eech?2ap@
  000fd	68 00 00 00 00	 push	 OFFSET ??_C@_0DE@LLEGJEGE@get_local_entity_type?5?$CImission?$CJ@
  00102	e8 00 00 00 00	 call	 ?process_assert@@YGXPBD0H@Z ; process_assert
$LN7@update_bri:

; 535  : 
; 536  : 	//
; 537  : 	// STATUS 
; 538  : 	//
; 539  : 
; 540  : 	if (get_local_task_list_type (mission) == LIST_TYPE_UNASSIGNED_TASK)

  00107	8b 85 3c ff ff
	ff		 mov	 eax, DWORD PTR _mission$[ebp]
  0010d	50		 push	 eax
  0010e	e8 00 00 00 00	 call	 ?get_local_task_list_type@@YG?AW4LIST_TYPES@@PAUENTITY@@@Z ; get_local_task_list_type
  00113	83 f8 28	 cmp	 eax, 40			; 00000028H
  00116	75 27		 jne	 SHORT $LN8@update_bri

; 541  : 	{
; 542  : 		set_ui_object_text (briefing_page_status_box, get_trans ("Unassigned"));

  00118	68 00 00 00 00	 push	 OFFSET ??_C@_0L@HGGFBAAD@Unassigned@
  0011d	e8 00 00 00 00	 call	 ?get_trans@@YGPBDPBD@Z	; get_trans
  00122	50		 push	 eax
  00123	a1 00 00 00 00	 mov	 eax, DWORD PTR ?briefing_page_status_box@@3PAUUI_OBJECT@@A
  00128	50		 push	 eax
  00129	8b 0d 00 00 00
	00		 mov	 ecx, DWORD PTR ?briefing_page_status_box@@3PAUUI_OBJECT@@A
  0012f	8b 11		 mov	 edx, DWORD PTR [ecx]
  00131	8b 04 95 00 00
	00 00		 mov	 eax, DWORD PTR ?fn_set_ui_object_text@@3PAP6GXPAUUI_OBJECT@@PBD@ZA[edx*4]
  00138	ff d0		 call	 eax

; 543  : 	}
; 544  : 	else

  0013a	e9 cc 00 00 00	 jmp	 $LN9@update_bri
$LN8@update_bri:

; 545  : 	{
; 546  : 		int
; 547  : 			status;
; 548  : 
; 549  : 		status = get_local_entity_int_value (mission, INT_TYPE_TASK_COMPLETED);

  0013f	83 bd 3c ff ff
	ff 00		 cmp	 DWORD PTR _mission$[ebp], 0
  00146	74 10		 je	 SHORT $LN38@update_bri
  00148	8b 85 3c ff ff
	ff		 mov	 eax, DWORD PTR _mission$[ebp]
  0014e	8b 08		 mov	 ecx, DWORD PTR [eax]
  00150	89 8d 88 fe ff
	ff		 mov	 DWORD PTR tv151[ebp], ecx
  00156	eb 24		 jmp	 SHORT $LN39@update_bri
$LN38@update_bri:
  00158	8b 15 00 00 00
	00		 mov	 edx, DWORD PTR ?__LINE__Var@?0??update_briefing_page_objects@@YGXPAUUI_OBJECT@@PAX@Z@4JA
  0015e	83 c2 1b	 add	 edx, 27			; 0000001bH
  00161	52		 push	 edx
  00162	68 00 00 00 00	 push	 OFFSET ??_C@_0EP@NKGPCHE@c?3?2users?2nhv90?2projects?2eech?2ap@
  00167	a1 00 00 00 00	 mov	 eax, DWORD PTR ?null_entity_pointer_message@@3PBDB ; null_entity_pointer_message
  0016c	50		 push	 eax
  0016d	e8 00 00 00 00	 call	 ?process_assert@@YGXPBD0H@Z ; process_assert
  00172	c7 85 88 fe ff
	ff 00 00 00 00	 mov	 DWORD PTR tv151[ebp], 0
$LN39@update_bri:
  0017c	b9 01 00 00 00	 mov	 ecx, 1
  00181	85 c9		 test	 ecx, ecx
  00183	74 0c		 je	 SHORT $LN40@update_bri
  00185	c7 85 84 fe ff
	ff d9 00 00 00	 mov	 DWORD PTR tv159[ebp], 217 ; 000000d9H
  0018f	eb 24		 jmp	 SHORT $LN41@update_bri
$LN40@update_bri:
  00191	8b 15 00 00 00
	00		 mov	 edx, DWORD PTR ?__LINE__Var@?0??update_briefing_page_objects@@YGXPAUUI_OBJECT@@PAX@Z@4JA
  00197	83 c2 1b	 add	 edx, 27			; 0000001bH
  0019a	52		 push	 edx
  0019b	68 00 00 00 00	 push	 OFFSET ??_C@_0EP@NKGPCHE@c?3?2users?2nhv90?2projects?2eech?2ap@
  001a0	a1 00 00 00 00	 mov	 eax, DWORD PTR ?overload_invalid_int_type_message@@3PBDB ; overload_invalid_int_type_message
  001a5	50		 push	 eax
  001a6	e8 00 00 00 00	 call	 ?process_assert@@YGXPBD0H@Z ; process_assert
  001ab	c7 85 84 fe ff
	ff 00 00 00 00	 mov	 DWORD PTR tv159[ebp], 0
$LN41@update_bri:
  001b5	68 d9 00 00 00	 push	 217			; 000000d9H
  001ba	8b 8d 3c ff ff
	ff		 mov	 ecx, DWORD PTR _mission$[ebp]
  001c0	51		 push	 ecx
  001c1	69 95 88 fe ff
	ff 5c 04 00 00	 imul	 edx, DWORD PTR tv151[ebp], 1116
  001cb	8b 85 84 fe ff
	ff		 mov	 eax, DWORD PTR tv159[ebp]
  001d1	8b 8c 82 00 00
	00 00		 mov	 ecx, DWORD PTR ?fn_get_local_entity_int_value@@3PAY0BBH@P6GHPAUENTITY@@W4INT_TYPES@@@ZA[edx+eax*4]
  001d8	ff d1		 call	 ecx
  001da	89 85 38 ff ff
	ff		 mov	 DWORD PTR _status$19[ebp], eax

; 550  : 
; 551  : 		set_ui_object_text (briefing_page_status_box, get_trans (task_status_names [status]));

  001e0	8b 85 38 ff ff
	ff		 mov	 eax, DWORD PTR _status$19[ebp]
  001e6	8b 0c 85 00 00
	00 00		 mov	 ecx, DWORD PTR ?task_status_names@@3PAPBDA[eax*4]
  001ed	51		 push	 ecx
  001ee	e8 00 00 00 00	 call	 ?get_trans@@YGPBDPBD@Z	; get_trans
  001f3	50		 push	 eax
  001f4	8b 15 00 00 00
	00		 mov	 edx, DWORD PTR ?briefing_page_status_box@@3PAUUI_OBJECT@@A
  001fa	52		 push	 edx
  001fb	a1 00 00 00 00	 mov	 eax, DWORD PTR ?briefing_page_status_box@@3PAUUI_OBJECT@@A
  00200	8b 08		 mov	 ecx, DWORD PTR [eax]
  00202	8b 14 8d 00 00
	00 00		 mov	 edx, DWORD PTR ?fn_set_ui_object_text@@3PAP6GXPAUUI_OBJECT@@PBD@ZA[ecx*4]
  00209	ff d2		 call	 edx
$LN9@update_bri:

; 552  : 	}
; 553  : 
; 554  : 	//
; 555  : 	// EXPIRE TIME
; 556  : 	//
; 557  : 
; 558  : 	{
; 559  : 		float
; 560  : 			expire_timer;
; 561  : 
; 562  : 		int
; 563  : 			hours,
; 564  : 			minutes,
; 565  : 			seconds;
; 566  : 
; 567  : 		char
; 568  : 			output [32];
; 569  : 
; 570  : 		if (get_local_task_list_type (mission) == LIST_TYPE_UNASSIGNED_TASK)

  0020b	8b 85 3c ff ff
	ff		 mov	 eax, DWORD PTR _mission$[ebp]
  00211	50		 push	 eax
  00212	e8 00 00 00 00	 call	 ?get_local_task_list_type@@YG?AW4LIST_TYPES@@PAUENTITY@@@Z ; get_local_task_list_type
  00217	83 f8 28	 cmp	 eax, 40			; 00000028H
  0021a	0f 85 e1 00 00
	00		 jne	 $LN10@update_bri

; 571  : 		{
; 572  : 			sprintf (output, "%s :  ", get_trans ("Expires"));

  00220	68 00 00 00 00	 push	 OFFSET ??_C@_07DABPCBEH@Expires@
  00225	e8 00 00 00 00	 call	 ?get_trans@@YGPBDPBD@Z	; get_trans
  0022a	50		 push	 eax
  0022b	68 00 00 00 00	 push	 OFFSET ??_C@_06IBDOBMFG@?$CFs?5?3?5?5@
  00230	8d 85 08 ff ff
	ff		 lea	 eax, DWORD PTR _output$14[ebp]
  00236	50		 push	 eax
  00237	e8 00 00 00 00	 call	 _sprintf
  0023c	83 c4 0c	 add	 esp, 12			; 0000000cH

; 573  : 			
; 574  : 			set_ui_object_text (briefing_page_expire_elapsed_text_box, output);

  0023f	8d 85 08 ff ff
	ff		 lea	 eax, DWORD PTR _output$14[ebp]
  00245	50		 push	 eax
  00246	8b 0d 00 00 00
	00		 mov	 ecx, DWORD PTR ?briefing_page_expire_elapsed_text_box@@3PAUUI_OBJECT@@A
  0024c	51		 push	 ecx
  0024d	8b 15 00 00 00
	00		 mov	 edx, DWORD PTR ?briefing_page_expire_elapsed_text_box@@3PAUUI_OBJECT@@A
  00253	8b 02		 mov	 eax, DWORD PTR [edx]
  00255	8b 0c 85 00 00
	00 00		 mov	 ecx, DWORD PTR ?fn_set_ui_object_text@@3PAP6GXPAUUI_OBJECT@@PBD@ZA[eax*4]
  0025c	ff d1		 call	 ecx

; 575  : 
; 576  : 			expire_timer = get_local_entity_float_value (mission, FLOAT_TYPE_EXPIRE_TIMER);

  0025e	83 bd 3c ff ff
	ff 00		 cmp	 DWORD PTR _mission$[ebp], 0
  00265	74 10		 je	 SHORT $LN42@update_bri
  00267	8b 85 3c ff ff
	ff		 mov	 eax, DWORD PTR _mission$[ebp]
  0026d	8b 08		 mov	 ecx, DWORD PTR [eax]
  0026f	89 8d 88 fe ff
	ff		 mov	 DWORD PTR tv193[ebp], ecx
  00275	eb 24		 jmp	 SHORT $LN43@update_bri
$LN42@update_bri:
  00277	8b 15 00 00 00
	00		 mov	 edx, DWORD PTR ?__LINE__Var@?0??update_briefing_page_objects@@YGXPAUUI_OBJECT@@PAX@Z@4JA
  0027d	83 c2 36	 add	 edx, 54			; 00000036H
  00280	52		 push	 edx
  00281	68 00 00 00 00	 push	 OFFSET ??_C@_0EP@NKGPCHE@c?3?2users?2nhv90?2projects?2eech?2ap@
  00286	a1 00 00 00 00	 mov	 eax, DWORD PTR ?null_entity_pointer_message@@3PBDB ; null_entity_pointer_message
  0028b	50		 push	 eax
  0028c	e8 00 00 00 00	 call	 ?process_assert@@YGXPBD0H@Z ; process_assert
  00291	c7 85 88 fe ff
	ff 00 00 00 00	 mov	 DWORD PTR tv193[ebp], 0
$LN43@update_bri:
  0029b	b9 01 00 00 00	 mov	 ecx, 1
  002a0	85 c9		 test	 ecx, ecx
  002a2	74 0c		 je	 SHORT $LN44@update_bri
  002a4	c7 85 84 fe ff
	ff 25 00 00 00	 mov	 DWORD PTR tv201[ebp], 37 ; 00000025H
  002ae	eb 24		 jmp	 SHORT $LN45@update_bri
$LN44@update_bri:
  002b0	8b 15 00 00 00
	00		 mov	 edx, DWORD PTR ?__LINE__Var@?0??update_briefing_page_objects@@YGXPAUUI_OBJECT@@PAX@Z@4JA
  002b6	83 c2 36	 add	 edx, 54			; 00000036H
  002b9	52		 push	 edx
  002ba	68 00 00 00 00	 push	 OFFSET ??_C@_0EP@NKGPCHE@c?3?2users?2nhv90?2projects?2eech?2ap@
  002bf	a1 00 00 00 00	 mov	 eax, DWORD PTR ?overload_invalid_float_type_message@@3PBDB ; overload_invalid_float_type_message
  002c4	50		 push	 eax
  002c5	e8 00 00 00 00	 call	 ?process_assert@@YGXPBD0H@Z ; process_assert
  002ca	c7 85 84 fe ff
	ff 00 00 00 00	 mov	 DWORD PTR tv201[ebp], 0
$LN45@update_bri:
  002d4	6a 25		 push	 37			; 00000025H
  002d6	8b 8d 3c ff ff
	ff		 mov	 ecx, DWORD PTR _mission$[ebp]
  002dc	51		 push	 ecx
  002dd	69 95 88 fe ff
	ff bc 02 00 00	 imul	 edx, DWORD PTR tv193[ebp], 700
  002e7	8b 85 84 fe ff
	ff		 mov	 eax, DWORD PTR tv201[ebp]
  002ed	8b 8c 82 00 00
	00 00		 mov	 ecx, DWORD PTR ?fn_get_local_entity_float_value@@3PAY0KP@P6GMPAUENTITY@@W4FLOAT_TYPES@@@ZA[edx+eax*4]
  002f4	ff d1		 call	 ecx
  002f6	d9 9d 34 ff ff
	ff		 fstp	 DWORD PTR _expire_timer$18[ebp]

; 577  : 		}
; 578  : 		else

  002fc	e9 dc 00 00 00	 jmp	 $LN11@update_bri
$LN10@update_bri:

; 579  : 		{
; 580  : 			sprintf (output, "%s :  ", get_trans ("Elapsed Time"));

  00301	68 00 00 00 00	 push	 OFFSET ??_C@_0N@OACKFMDA@Elapsed?5Time@
  00306	e8 00 00 00 00	 call	 ?get_trans@@YGPBDPBD@Z	; get_trans
  0030b	50		 push	 eax
  0030c	68 00 00 00 00	 push	 OFFSET ??_C@_06IBDOBMFG@?$CFs?5?3?5?5@
  00311	8d 85 08 ff ff
	ff		 lea	 eax, DWORD PTR _output$14[ebp]
  00317	50		 push	 eax
  00318	e8 00 00 00 00	 call	 _sprintf
  0031d	83 c4 0c	 add	 esp, 12			; 0000000cH

; 581  : 			
; 582  : 			set_ui_object_text (briefing_page_expire_elapsed_text_box, output);

  00320	8d 85 08 ff ff
	ff		 lea	 eax, DWORD PTR _output$14[ebp]
  00326	50		 push	 eax
  00327	8b 0d 00 00 00
	00		 mov	 ecx, DWORD PTR ?briefing_page_expire_elapsed_text_box@@3PAUUI_OBJECT@@A
  0032d	51		 push	 ecx
  0032e	8b 15 00 00 00
	00		 mov	 edx, DWORD PTR ?briefing_page_expire_elapsed_text_box@@3PAUUI_OBJECT@@A
  00334	8b 02		 mov	 eax, DWORD PTR [edx]
  00336	8b 0c 85 00 00
	00 00		 mov	 ecx, DWORD PTR ?fn_set_ui_object_text@@3PAP6GXPAUUI_OBJECT@@PBD@ZA[eax*4]
  0033d	ff d1		 call	 ecx

; 583  : 
; 584  : 			expire_timer = get_local_entity_float_value (mission, FLOAT_TYPE_ELAPSED_MISSION_TIME);

  0033f	83 bd 3c ff ff
	ff 00		 cmp	 DWORD PTR _mission$[ebp], 0
  00346	74 10		 je	 SHORT $LN46@update_bri
  00348	8b 85 3c ff ff
	ff		 mov	 eax, DWORD PTR _mission$[ebp]
  0034e	8b 08		 mov	 ecx, DWORD PTR [eax]
  00350	89 8d 88 fe ff
	ff		 mov	 DWORD PTR tv223[ebp], ecx
  00356	eb 24		 jmp	 SHORT $LN47@update_bri
$LN46@update_bri:
  00358	8b 15 00 00 00
	00		 mov	 edx, DWORD PTR ?__LINE__Var@?0??update_briefing_page_objects@@YGXPAUUI_OBJECT@@PAX@Z@4JA
  0035e	83 c2 3e	 add	 edx, 62			; 0000003eH
  00361	52		 push	 edx
  00362	68 00 00 00 00	 push	 OFFSET ??_C@_0EP@NKGPCHE@c?3?2users?2nhv90?2projects?2eech?2ap@
  00367	a1 00 00 00 00	 mov	 eax, DWORD PTR ?null_entity_pointer_message@@3PBDB ; null_entity_pointer_message
  0036c	50		 push	 eax
  0036d	e8 00 00 00 00	 call	 ?process_assert@@YGXPBD0H@Z ; process_assert
  00372	c7 85 88 fe ff
	ff 00 00 00 00	 mov	 DWORD PTR tv223[ebp], 0
$LN47@update_bri:
  0037c	b9 01 00 00 00	 mov	 ecx, 1
  00381	85 c9		 test	 ecx, ecx
  00383	74 0c		 je	 SHORT $LN48@update_bri
  00385	c7 85 84 fe ff
	ff 22 00 00 00	 mov	 DWORD PTR tv231[ebp], 34 ; 00000022H
  0038f	eb 24		 jmp	 SHORT $LN49@update_bri
$LN48@update_bri:
  00391	8b 15 00 00 00
	00		 mov	 edx, DWORD PTR ?__LINE__Var@?0??update_briefing_page_objects@@YGXPAUUI_OBJECT@@PAX@Z@4JA
  00397	83 c2 3e	 add	 edx, 62			; 0000003eH
  0039a	52		 push	 edx
  0039b	68 00 00 00 00	 push	 OFFSET ??_C@_0EP@NKGPCHE@c?3?2users?2nhv90?2projects?2eech?2ap@
  003a0	a1 00 00 00 00	 mov	 eax, DWORD PTR ?overload_invalid_float_type_message@@3PBDB ; overload_invalid_float_type_message
  003a5	50		 push	 eax
  003a6	e8 00 00 00 00	 call	 ?process_assert@@YGXPBD0H@Z ; process_assert
  003ab	c7 85 84 fe ff
	ff 00 00 00 00	 mov	 DWORD PTR tv231[ebp], 0
$LN49@update_bri:
  003b5	6a 22		 push	 34			; 00000022H
  003b7	8b 8d 3c ff ff
	ff		 mov	 ecx, DWORD PTR _mission$[ebp]
  003bd	51		 push	 ecx
  003be	69 95 88 fe ff
	ff bc 02 00 00	 imul	 edx, DWORD PTR tv223[ebp], 700
  003c8	8b 85 84 fe ff
	ff		 mov	 eax, DWORD PTR tv231[ebp]
  003ce	8b 8c 82 00 00
	00 00		 mov	 ecx, DWORD PTR ?fn_get_local_entity_float_value@@3PAY0KP@P6GMPAUENTITY@@W4FLOAT_TYPES@@@ZA[edx+eax*4]
  003d5	ff d1		 call	 ecx
  003d7	d9 9d 34 ff ff
	ff		 fstp	 DWORD PTR _expire_timer$18[ebp]
$LN11@update_bri:

; 585  : 		}
; 586  : 
; 587  : 		expire_timer = min (expire_timer, (float) ONE_DAY);

  003dd	f3 0f 10 05 00
	00 00 00	 movss	 xmm0, DWORD PTR __real@47a8c000
  003e5	f3 0f 11 85 8c
	fe ff ff	 movss	 DWORD PTR $T1[ebp], xmm0
  003ed	8d 85 8c fe ff
	ff		 lea	 eax, DWORD PTR $T1[ebp]
  003f3	50		 push	 eax
  003f4	8d 8d 34 ff ff
	ff		 lea	 ecx, DWORD PTR _expire_timer$18[ebp]
  003fa	51		 push	 ecx
  003fb	e8 00 00 00 00	 call	 ??$min@M@std@@YGABMABM0@Z ; std::min<float>
  00400	f3 0f 10 00	 movss	 xmm0, DWORD PTR [eax]
  00404	f3 0f 11 85 34
	ff ff ff	 movss	 DWORD PTR _expire_timer$18[ebp], xmm0

; 588  : 
; 589  : 		get_digital_countdown_values (expire_timer, NULL, &hours, &minutes, &seconds);

  0040c	8d 85 28 ff ff
	ff		 lea	 eax, DWORD PTR _seconds$15[ebp]
  00412	50		 push	 eax
  00413	8d 8d 2c ff ff
	ff		 lea	 ecx, DWORD PTR _minutes$16[ebp]
  00419	51		 push	 ecx
  0041a	8d 95 30 ff ff
	ff		 lea	 edx, DWORD PTR _hours$17[ebp]
  00420	52		 push	 edx
  00421	6a 00		 push	 0
  00423	51		 push	 ecx
  00424	f3 0f 10 85 34
	ff ff ff	 movss	 xmm0, DWORD PTR _expire_timer$18[ebp]
  0042c	f3 0f 11 04 24	 movss	 DWORD PTR [esp], xmm0
  00431	e8 00 00 00 00	 call	 ?get_digital_countdown_values@@YGXMPAH000@Z ; get_digital_countdown_values

; 590  : 	
; 591  : 		sprintf (s, "%02d:%02d:%02d", hours, minutes, seconds);

  00436	8b 85 28 ff ff
	ff		 mov	 eax, DWORD PTR _seconds$15[ebp]
  0043c	50		 push	 eax
  0043d	8b 8d 2c ff ff
	ff		 mov	 ecx, DWORD PTR _minutes$16[ebp]
  00443	51		 push	 ecx
  00444	8b 95 30 ff ff
	ff		 mov	 edx, DWORD PTR _hours$17[ebp]
  0044a	52		 push	 edx
  0044b	68 00 00 00 00	 push	 OFFSET ??_C@_0P@PLMNPDMB@?$CF02d?3?$CF02d?3?$CF02d@
  00450	8d 85 40 ff ff
	ff		 lea	 eax, DWORD PTR _s$[ebp]
  00456	50		 push	 eax
  00457	e8 00 00 00 00	 call	 _sprintf
  0045c	83 c4 14	 add	 esp, 20			; 00000014H

; 592  : 
; 593  : 		set_ui_object_text (briefing_page_expire_time_box, s);

  0045f	8d 85 40 ff ff
	ff		 lea	 eax, DWORD PTR _s$[ebp]
  00465	50		 push	 eax
  00466	8b 0d 00 00 00
	00		 mov	 ecx, DWORD PTR ?briefing_page_expire_time_box@@3PAUUI_OBJECT@@A
  0046c	51		 push	 ecx
  0046d	8b 15 00 00 00
	00		 mov	 edx, DWORD PTR ?briefing_page_expire_time_box@@3PAUUI_OBJECT@@A
  00473	8b 02		 mov	 eax, DWORD PTR [edx]
  00475	8b 0c 85 00 00
	00 00		 mov	 ecx, DWORD PTR ?fn_set_ui_object_text@@3PAP6GXPAUUI_OBJECT@@PBD@ZA[eax*4]
  0047c	ff d1		 call	 ecx

; 594  : 	}
; 595  : 
; 596  : 	//
; 597  : 	// DURATION TIME
; 598  : 	//
; 599  : 
; 600  : 	{
; 601  : 		float
; 602  : 			flight_time;
; 603  : 
; 604  : 		int
; 605  : 			hours,
; 606  : 			minutes,
; 607  : 			seconds;
; 608  : 
; 609  : 		flight_time = get_task_estimated_route_duration (mission);

  0047e	8b 85 3c ff ff
	ff		 mov	 eax, DWORD PTR _mission$[ebp]
  00484	50		 push	 eax
  00485	e8 00 00 00 00	 call	 ?get_task_estimated_route_duration@@YGMPAUENTITY@@@Z ; get_task_estimated_route_duration
  0048a	d9 9d 04 ff ff
	ff		 fstp	 DWORD PTR _flight_time$13[ebp]

; 610  : 
; 611  : 		ASSERT (flight_time < ONE_DAY);

  00490	f3 0f 10 05 00
	00 00 00	 movss	 xmm0, DWORD PTR __real@47a8c000
  00498	0f 2f 85 04 ff
	ff ff		 comiss	 xmm0, DWORD PTR _flight_time$13[ebp]
  0049f	77 18		 ja	 SHORT $LN12@update_bri
  004a1	a1 00 00 00 00	 mov	 eax, DWORD PTR ?__LINE__Var@?0??update_briefing_page_objects@@YGXPAUUI_OBJECT@@PAX@Z@4JA
  004a6	83 c0 59	 add	 eax, 89			; 00000059H
  004a9	50		 push	 eax
  004aa	68 00 00 00 00	 push	 OFFSET ??_C@_0EP@NKGPCHE@c?3?2users?2nhv90?2projects?2eech?2ap@
  004af	68 00 00 00 00	 push	 OFFSET ??_C@_0BG@EKGEDOCD@flight_time?5?$DM?5ONE_DAY@
  004b4	e8 00 00 00 00	 call	 ?process_assert@@YGXPBD0H@Z ; process_assert
$LN12@update_bri:

; 612  : 
; 613  : 		get_digital_countdown_values (flight_time, NULL, &hours, &minutes, &seconds);

  004b9	8d 85 f8 fe ff
	ff		 lea	 eax, DWORD PTR _seconds$10[ebp]
  004bf	50		 push	 eax
  004c0	8d 8d fc fe ff
	ff		 lea	 ecx, DWORD PTR _minutes$11[ebp]
  004c6	51		 push	 ecx
  004c7	8d 95 00 ff ff
	ff		 lea	 edx, DWORD PTR _hours$12[ebp]
  004cd	52		 push	 edx
  004ce	6a 00		 push	 0
  004d0	51		 push	 ecx
  004d1	f3 0f 10 85 04
	ff ff ff	 movss	 xmm0, DWORD PTR _flight_time$13[ebp]
  004d9	f3 0f 11 04 24	 movss	 DWORD PTR [esp], xmm0
  004de	e8 00 00 00 00	 call	 ?get_digital_countdown_values@@YGXMPAH000@Z ; get_digital_countdown_values

; 614  : 
; 615  : 		seconds = 0;

  004e3	c7 85 f8 fe ff
	ff 00 00 00 00	 mov	 DWORD PTR _seconds$10[ebp], 0

; 616  : 	
; 617  : 		sprintf (s, "%02d:%02d:%02d", hours, minutes, seconds);

  004ed	8b 85 f8 fe ff
	ff		 mov	 eax, DWORD PTR _seconds$10[ebp]
  004f3	50		 push	 eax
  004f4	8b 8d fc fe ff
	ff		 mov	 ecx, DWORD PTR _minutes$11[ebp]
  004fa	51		 push	 ecx
  004fb	8b 95 00 ff ff
	ff		 mov	 edx, DWORD PTR _hours$12[ebp]
  00501	52		 push	 edx
  00502	68 00 00 00 00	 push	 OFFSET ??_C@_0P@PLMNPDMB@?$CF02d?3?$CF02d?3?$CF02d@
  00507	8d 85 40 ff ff
	ff		 lea	 eax, DWORD PTR _s$[ebp]
  0050d	50		 push	 eax
  0050e	e8 00 00 00 00	 call	 _sprintf
  00513	83 c4 14	 add	 esp, 20			; 00000014H

; 618  : 
; 619  : 		set_ui_object_text (briefing_page_duration_time_box, s);

  00516	8d 85 40 ff ff
	ff		 lea	 eax, DWORD PTR _s$[ebp]
  0051c	50		 push	 eax
  0051d	8b 0d 00 00 00
	00		 mov	 ecx, DWORD PTR ?briefing_page_duration_time_box@@3PAUUI_OBJECT@@A
  00523	51		 push	 ecx
  00524	8b 15 00 00 00
	00		 mov	 edx, DWORD PTR ?briefing_page_duration_time_box@@3PAUUI_OBJECT@@A
  0052a	8b 02		 mov	 eax, DWORD PTR [edx]
  0052c	8b 0c 85 00 00
	00 00		 mov	 ecx, DWORD PTR ?fn_set_ui_object_text@@3PAP6GXPAUUI_OBJECT@@PBD@ZA[eax*4]
  00533	ff d1		 call	 ecx

; 620  : 	}
; 621  : 
; 622  : 	//
; 623  : 	// WEATHER
; 624  : 	//
; 625  : 
; 626  : 	{
; 627  : 
; 628  : 		int
; 629  : 			int_heading;
; 630  : 
; 631  : 		float
; 632  : 			heading,
; 633  : 			speed;
; 634  : 
; 635  : 		entity
; 636  : 			*keysite;
; 637  : 
; 638  : 		weathermodes
; 639  : 			weather;
; 640  : 
; 641  : 		vec3d
; 642  : 			*pos,
; 643  : 			wind_velocity;
; 644  : 	
; 645  : 		keysite = get_local_entity_parent (mission, get_local_task_list_type (mission));

  00535	83 bd 3c ff ff
	ff 00		 cmp	 DWORD PTR _mission$[ebp], 0
  0053c	74 10		 je	 SHORT $LN50@update_bri
  0053e	8b 85 3c ff ff
	ff		 mov	 eax, DWORD PTR _mission$[ebp]
  00544	8b 08		 mov	 ecx, DWORD PTR [eax]
  00546	89 8d 88 fe ff
	ff		 mov	 DWORD PTR tv283[ebp], ecx
  0054c	eb 24		 jmp	 SHORT $LN51@update_bri
$LN50@update_bri:
  0054e	8b 15 00 00 00
	00		 mov	 edx, DWORD PTR ?__LINE__Var@?0??update_briefing_page_objects@@YGXPAUUI_OBJECT@@PAX@Z@4JA
  00554	83 c2 7b	 add	 edx, 123		; 0000007bH
  00557	52		 push	 edx
  00558	68 00 00 00 00	 push	 OFFSET ??_C@_0EP@NKGPCHE@c?3?2users?2nhv90?2projects?2eech?2ap@
  0055d	a1 00 00 00 00	 mov	 eax, DWORD PTR ?null_entity_pointer_message@@3PBDB ; null_entity_pointer_message
  00562	50		 push	 eax
  00563	e8 00 00 00 00	 call	 ?process_assert@@YGXPBD0H@Z ; process_assert
  00568	c7 85 88 fe ff
	ff 00 00 00 00	 mov	 DWORD PTR tv283[ebp], 0
$LN51@update_bri:
  00572	8b 8d 3c ff ff
	ff		 mov	 ecx, DWORD PTR _mission$[ebp]
  00578	51		 push	 ecx
  00579	e8 00 00 00 00	 call	 ?get_local_task_list_type@@YG?AW4LIST_TYPES@@PAUENTITY@@@Z ; get_local_task_list_type
  0057e	85 c0		 test	 eax, eax
  00580	7c 25		 jl	 SHORT $LN52@update_bri
  00582	8b 95 3c ff ff
	ff		 mov	 edx, DWORD PTR _mission$[ebp]
  00588	52		 push	 edx
  00589	e8 00 00 00 00	 call	 ?get_local_task_list_type@@YG?AW4LIST_TYPES@@PAUENTITY@@@Z ; get_local_task_list_type
  0058e	83 f8 2d	 cmp	 eax, 45			; 0000002dH
  00591	7d 14		 jge	 SHORT $LN52@update_bri
  00593	8b 85 3c ff ff
	ff		 mov	 eax, DWORD PTR _mission$[ebp]
  00599	50		 push	 eax
  0059a	e8 00 00 00 00	 call	 ?get_local_task_list_type@@YG?AW4LIST_TYPES@@PAUENTITY@@@Z ; get_local_task_list_type
  0059f	89 85 84 fe ff
	ff		 mov	 DWORD PTR tv298[ebp], eax
  005a5	eb 25		 jmp	 SHORT $LN53@update_bri
$LN52@update_bri:
  005a7	8b 0d 00 00 00
	00		 mov	 ecx, DWORD PTR ?__LINE__Var@?0??update_briefing_page_objects@@YGXPAUUI_OBJECT@@PAX@Z@4JA
  005ad	83 c1 7b	 add	 ecx, 123		; 0000007bH
  005b0	51		 push	 ecx
  005b1	68 00 00 00 00	 push	 OFFSET ??_C@_0EP@NKGPCHE@c?3?2users?2nhv90?2projects?2eech?2ap@
  005b6	8b 15 00 00 00
	00		 mov	 edx, DWORD PTR ?overload_invalid_list_type_message@@3PBDB ; overload_invalid_list_type_message
  005bc	52		 push	 edx
  005bd	e8 00 00 00 00	 call	 ?process_assert@@YGXPBD0H@Z ; process_assert
  005c2	c7 85 84 fe ff
	ff 00 00 00 00	 mov	 DWORD PTR tv298[ebp], 0
$LN53@update_bri:
  005cc	8b 85 3c ff ff
	ff		 mov	 eax, DWORD PTR _mission$[ebp]
  005d2	50		 push	 eax
  005d3	e8 00 00 00 00	 call	 ?get_local_task_list_type@@YG?AW4LIST_TYPES@@PAUENTITY@@@Z ; get_local_task_list_type
  005d8	50		 push	 eax
  005d9	8b 8d 3c ff ff
	ff		 mov	 ecx, DWORD PTR _mission$[ebp]
  005df	51		 push	 ecx
  005e0	69 95 88 fe ff
	ff b4 00 00 00	 imul	 edx, DWORD PTR tv283[ebp], 180
  005ea	8b 85 84 fe ff
	ff		 mov	 eax, DWORD PTR tv298[ebp]
  005f0	8b 8c 82 00 00
	00 00		 mov	 ecx, DWORD PTR ?fn_get_local_entity_parent@@3PAY0CN@P6GPAUENTITY@@PAU1@W4LIST_TYPES@@@ZA[edx+eax*4]
  005f7	ff d1		 call	 ecx
  005f9	89 85 e8 fe ff
	ff		 mov	 DWORD PTR _keysite$6[ebp], eax

; 646  : 
; 647  : 		ASSERT (keysite);

  005ff	83 bd e8 fe ff
	ff 00		 cmp	 DWORD PTR _keysite$6[ebp], 0
  00606	75 18		 jne	 SHORT $LN13@update_bri
  00608	a1 00 00 00 00	 mov	 eax, DWORD PTR ?__LINE__Var@?0??update_briefing_page_objects@@YGXPAUUI_OBJECT@@PAX@Z@4JA
  0060d	83 c0 7d	 add	 eax, 125		; 0000007dH
  00610	50		 push	 eax
  00611	68 00 00 00 00	 push	 OFFSET ??_C@_0EP@NKGPCHE@c?3?2users?2nhv90?2projects?2eech?2ap@
  00616	68 00 00 00 00	 push	 OFFSET ??_C@_07FBNBNOMI@keysite@
  0061b	e8 00 00 00 00	 call	 ?process_assert@@YGXPBD0H@Z ; process_assert
$LN13@update_bri:

; 648  : 
; 649  : 		pos = get_local_entity_vec3d_ptr (keysite, VEC3D_TYPE_POSITION);

  00620	83 bd e8 fe ff
	ff 00		 cmp	 DWORD PTR _keysite$6[ebp], 0
  00627	74 10		 je	 SHORT $LN54@update_bri
  00629	8b 85 e8 fe ff
	ff		 mov	 eax, DWORD PTR _keysite$6[ebp]
  0062f	8b 08		 mov	 ecx, DWORD PTR [eax]
  00631	89 8d 88 fe ff
	ff		 mov	 DWORD PTR tv317[ebp], ecx
  00637	eb 24		 jmp	 SHORT $LN55@update_bri
$LN54@update_bri:
  00639	8b 15 00 00 00
	00		 mov	 edx, DWORD PTR ?__LINE__Var@?0??update_briefing_page_objects@@YGXPAUUI_OBJECT@@PAX@Z@4JA
  0063f	83 c2 7f	 add	 edx, 127		; 0000007fH
  00642	52		 push	 edx
  00643	68 00 00 00 00	 push	 OFFSET ??_C@_0EP@NKGPCHE@c?3?2users?2nhv90?2projects?2eech?2ap@
  00648	a1 00 00 00 00	 mov	 eax, DWORD PTR ?null_entity_pointer_message@@3PBDB ; null_entity_pointer_message
  0064d	50		 push	 eax
  0064e	e8 00 00 00 00	 call	 ?process_assert@@YGXPBD0H@Z ; process_assert
  00653	c7 85 88 fe ff
	ff 00 00 00 00	 mov	 DWORD PTR tv317[ebp], 0
$LN55@update_bri:
  0065d	b9 01 00 00 00	 mov	 ecx, 1
  00662	85 c9		 test	 ecx, ecx
  00664	74 0c		 je	 SHORT $LN56@update_bri
  00666	c7 85 84 fe ff
	ff 08 00 00 00	 mov	 DWORD PTR tv325[ebp], 8
  00670	eb 24		 jmp	 SHORT $LN57@update_bri
$LN56@update_bri:
  00672	8b 15 00 00 00
	00		 mov	 edx, DWORD PTR ?__LINE__Var@?0??update_briefing_page_objects@@YGXPAUUI_OBJECT@@PAX@Z@4JA
  00678	83 c2 7f	 add	 edx, 127		; 0000007fH
  0067b	52		 push	 edx
  0067c	68 00 00 00 00	 push	 OFFSET ??_C@_0EP@NKGPCHE@c?3?2users?2nhv90?2projects?2eech?2ap@
  00681	a1 00 00 00 00	 mov	 eax, DWORD PTR ?overload_invalid_vec3d_type_message@@3PBDB ; overload_invalid_vec3d_type_message
  00686	50		 push	 eax
  00687	e8 00 00 00 00	 call	 ?process_assert@@YGXPBD0H@Z ; process_assert
  0068c	c7 85 84 fe ff
	ff 00 00 00 00	 mov	 DWORD PTR tv325[ebp], 0
$LN57@update_bri:
  00696	6a 08		 push	 8
  00698	8b 8d e8 fe ff
	ff		 mov	 ecx, DWORD PTR _keysite$6[ebp]
  0069e	51		 push	 ecx
  0069f	6b 95 88 fe ff
	ff 60		 imul	 edx, DWORD PTR tv317[ebp], 96
  006a6	8b 85 84 fe ff
	ff		 mov	 eax, DWORD PTR tv325[ebp]
  006ac	8b 8c 82 00 00
	00 00		 mov	 ecx, DWORD PTR ?fn_get_local_entity_vec3d_ptr@@3PAY0BI@P6GPAUVEC3D@@PAUENTITY@@W4VEC3D_TYPES@@@ZA[edx+eax*4]
  006b3	ff d1		 call	 ecx
  006b5	89 85 e0 fe ff
	ff		 mov	 DWORD PTR _pos$4[ebp], eax

; 650  : 
; 651  : 		// Weather mode
; 652  : 
; 653  : 		weather = get_simple_session_weather_at_point (pos);

  006bb	8b 85 e0 fe ff
	ff		 mov	 eax, DWORD PTR _pos$4[ebp]
  006c1	50		 push	 eax
  006c2	e8 00 00 00 00	 call	 ?get_simple_session_weather_at_point@@YG?AW4WEATHERMODES@@PAUVEC3D@@@Z ; get_simple_session_weather_at_point
  006c7	89 85 e4 fe ff
	ff		 mov	 DWORD PTR _weather$5[ebp], eax

; 654  : 
; 655  : 		ASSERT ((weather > WEATHERMODE_INVALID) && (weather < WEATHERMODE_LAST));

  006cd	83 bd e4 fe ff
	ff 00		 cmp	 DWORD PTR _weather$5[ebp], 0
  006d4	7e 09		 jle	 SHORT $LN15@update_bri
  006d6	83 bd e4 fe ff
	ff 05		 cmp	 DWORD PTR _weather$5[ebp], 5
  006dd	7c 1a		 jl	 SHORT $LN14@update_bri
$LN15@update_bri:
  006df	a1 00 00 00 00	 mov	 eax, DWORD PTR ?__LINE__Var@?0??update_briefing_page_objects@@YGXPAUUI_OBJECT@@PAX@Z@4JA
  006e4	05 85 00 00 00	 add	 eax, 133		; 00000085H
  006e9	50		 push	 eax
  006ea	68 00 00 00 00	 push	 OFFSET ??_C@_0EP@NKGPCHE@c?3?2users?2nhv90?2projects?2eech?2ap@
  006ef	68 00 00 00 00	 push	 OFFSET ??_C@_0EA@FKBAFCKA@?$CIweather?5?$DO?5WEATHERMODE_INVALID?$CJ@
  006f4	e8 00 00 00 00	 call	 ?process_assert@@YGXPBD0H@Z ; process_assert
$LN14@update_bri:

; 656  : 
; 657  : 		switch (weather)

  006f9	8b 85 e4 fe ff
	ff		 mov	 eax, DWORD PTR _weather$5[ebp]
  006ff	89 85 88 fe ff
	ff		 mov	 DWORD PTR tv339[ebp], eax
  00705	8b 8d 88 fe ff
	ff		 mov	 ecx, DWORD PTR tv339[ebp]
  0070b	83 e9 01	 sub	 ecx, 1
  0070e	89 8d 88 fe ff
	ff		 mov	 DWORD PTR tv339[ebp], ecx
  00714	83 bd 88 fe ff
	ff 03		 cmp	 DWORD PTR tv339[ebp], 3
  0071b	0f 87 91 00 00
	00		 ja	 $LN20@update_bri
  00721	8b 95 88 fe ff
	ff		 mov	 edx, DWORD PTR tv339[ebp]
  00727	ff 24 95 00 00
	00 00		 jmp	 DWORD PTR $LN70@update_bri[edx*4]
$LN16@update_bri:

; 658  : 		{
; 659  : 			case WEATHERMODE_DRY:
; 660  : 			{
; 661  : 				sprintf (s, "%s", get_trans ("Clear and dry"));

  0072e	68 00 00 00 00	 push	 OFFSET ??_C@_0O@FOJDFJFB@Clear?5and?5dry@
  00733	e8 00 00 00 00	 call	 ?get_trans@@YGPBDPBD@Z	; get_trans
  00738	50		 push	 eax
  00739	68 00 00 00 00	 push	 OFFSET ??_C@_02DKCKIIND@?$CFs@
  0073e	8d 85 40 ff ff
	ff		 lea	 eax, DWORD PTR _s$[ebp]
  00744	50		 push	 eax
  00745	e8 00 00 00 00	 call	 _sprintf
  0074a	83 c4 0c	 add	 esp, 12			; 0000000cH

; 662  : 
; 663  : 				break;

  0074d	eb 77		 jmp	 SHORT $LN2@update_bri
$LN17@update_bri:

; 664  : 			}
; 665  : 			case WEATHERMODE_LIGHT_RAIN:
; 666  : 			{
; 667  : 				sprintf (s, "%s", get_trans ("Light rain"));

  0074f	68 00 00 00 00	 push	 OFFSET ??_C@_0L@PNKPNJKD@Light?5rain@
  00754	e8 00 00 00 00	 call	 ?get_trans@@YGPBDPBD@Z	; get_trans
  00759	50		 push	 eax
  0075a	68 00 00 00 00	 push	 OFFSET ??_C@_02DKCKIIND@?$CFs@
  0075f	8d 85 40 ff ff
	ff		 lea	 eax, DWORD PTR _s$[ebp]
  00765	50		 push	 eax
  00766	e8 00 00 00 00	 call	 _sprintf
  0076b	83 c4 0c	 add	 esp, 12			; 0000000cH

; 668  : 
; 669  : 				break;

  0076e	eb 56		 jmp	 SHORT $LN2@update_bri
$LN18@update_bri:

; 670  : 			}
; 671  : 			case WEATHERMODE_HEAVY_RAIN:
; 672  : 			{
; 673  : 				sprintf (s, "%s", get_trans ("Stormy with heavy rain"));

  00770	68 00 00 00 00	 push	 OFFSET ??_C@_0BH@LGFJCMBN@Stormy?5with?5heavy?5rain@
  00775	e8 00 00 00 00	 call	 ?get_trans@@YGPBDPBD@Z	; get_trans
  0077a	50		 push	 eax
  0077b	68 00 00 00 00	 push	 OFFSET ??_C@_02DKCKIIND@?$CFs@
  00780	8d 85 40 ff ff
	ff		 lea	 eax, DWORD PTR _s$[ebp]
  00786	50		 push	 eax
  00787	e8 00 00 00 00	 call	 _sprintf
  0078c	83 c4 0c	 add	 esp, 12			; 0000000cH

; 674  : 
; 675  : 				break;

  0078f	eb 35		 jmp	 SHORT $LN2@update_bri
$LN19@update_bri:

; 676  : 			}
; 677  : 			case WEATHERMODE_SNOW:
; 678  : 			{
; 679  : 				sprintf (s, "%s", get_trans ("Snow"));

  00791	68 00 00 00 00	 push	 OFFSET ??_C@_04LOGCFOOF@Snow@
  00796	e8 00 00 00 00	 call	 ?get_trans@@YGPBDPBD@Z	; get_trans
  0079b	50		 push	 eax
  0079c	68 00 00 00 00	 push	 OFFSET ??_C@_02DKCKIIND@?$CFs@
  007a1	8d 85 40 ff ff
	ff		 lea	 eax, DWORD PTR _s$[ebp]
  007a7	50		 push	 eax
  007a8	e8 00 00 00 00	 call	 _sprintf
  007ad	83 c4 0c	 add	 esp, 12			; 0000000cH

; 680  : 
; 681  : 				break;

  007b0	eb 14		 jmp	 SHORT $LN2@update_bri
$LN20@update_bri:

; 682  : 			}
; 683  : 			default:
; 684  : 			{
; 685  : 				sprintf (s, "");

  007b2	68 00 00 00 00	 push	 OFFSET ??_C@_00CNPNBAHC@@
  007b7	8d 85 40 ff ff
	ff		 lea	 eax, DWORD PTR _s$[ebp]
  007bd	50		 push	 eax
  007be	e8 00 00 00 00	 call	 _sprintf
  007c3	83 c4 08	 add	 esp, 8
$LN2@update_bri:

; 686  : 			}
; 687  : 		}
; 688  : 
; 689  : 		set_ui_object_text (briefing_page_weather_box, s);

  007c6	8d 85 40 ff ff
	ff		 lea	 eax, DWORD PTR _s$[ebp]
  007cc	50		 push	 eax
  007cd	8b 0d 00 00 00
	00		 mov	 ecx, DWORD PTR ?briefing_page_weather_box@@3PAUUI_OBJECT@@A
  007d3	51		 push	 ecx
  007d4	8b 15 00 00 00
	00		 mov	 edx, DWORD PTR ?briefing_page_weather_box@@3PAUUI_OBJECT@@A
  007da	8b 02		 mov	 eax, DWORD PTR [edx]
  007dc	8b 0c 85 00 00
	00 00		 mov	 ecx, DWORD PTR ?fn_set_ui_object_text@@3PAP6GXPAUUI_OBJECT@@PBD@ZA[eax*4]
  007e3	ff d1		 call	 ecx

; 690  : 
; 691  : 		// Wind velocity
; 692  : 
; 693  : 		get_session_wind_velocity_at_point (pos, &wind_velocity);

  007e5	8d 85 d4 fe ff
	ff		 lea	 eax, DWORD PTR _wind_velocity$3[ebp]
  007eb	50		 push	 eax
  007ec	8b 8d e0 fe ff
	ff		 mov	 ecx, DWORD PTR _pos$4[ebp]
  007f2	51		 push	 ecx
  007f3	e8 00 00 00 00	 call	 ?get_session_wind_velocity_at_point@@YGMPAUVEC3D@@0@Z ; get_session_wind_velocity_at_point
  007f8	dd d8		 fstp	 ST(0)

; 694  : 
; 695  : 		speed = get_3d_vector_magnitude (&wind_velocity);

  007fa	8d 85 d4 fe ff
	ff		 lea	 eax, DWORD PTR _wind_velocity$3[ebp]
  00800	50		 push	 eax
  00801	e8 00 00 00 00	 call	 ?get_3d_vector_magnitude@@YGMPBUVEC3D@@@Z ; get_3d_vector_magnitude
  00806	d9 9d ec fe ff
	ff		 fstp	 DWORD PTR _speed$7[ebp]

; 696  : 
; 697  : 		heading = atan2 (wind_velocity.x, wind_velocity.z);

  0080c	51		 push	 ecx
  0080d	f3 0f 10 85 dc
	fe ff ff	 movss	 xmm0, DWORD PTR _wind_velocity$3[ebp+8]
  00815	f3 0f 11 04 24	 movss	 DWORD PTR [esp], xmm0
  0081a	51		 push	 ecx
  0081b	f3 0f 10 85 d4
	fe ff ff	 movss	 xmm0, DWORD PTR _wind_velocity$3[ebp]
  00823	f3 0f 11 04 24	 movss	 DWORD PTR [esp], xmm0
  00828	e8 00 00 00 00	 call	 ?atan2@@YGMMM@Z		; atan2
  0082d	d9 9d f0 fe ff
	ff		 fstp	 DWORD PTR _heading$8[ebp]

; 698  : 
; 699  : 		heading += PI;

  00833	f3 0f 10 85 f0
	fe ff ff	 movss	 xmm0, DWORD PTR _heading$8[ebp]
  0083b	f3 0f 58 05 00
	00 00 00	 addss	 xmm0, DWORD PTR __real@40490fdb
  00843	f3 0f 11 85 f0
	fe ff ff	 movss	 DWORD PTR _heading$8[ebp], xmm0

; 700  : 
; 701  : 		heading *= (8 / PI2);

  0084b	f3 0f 10 85 f0
	fe ff ff	 movss	 xmm0, DWORD PTR _heading$8[ebp]
  00853	f3 0f 59 05 00
	00 00 00	 mulss	 xmm0, DWORD PTR __real@3fa2f983
  0085b	f3 0f 11 85 f0
	fe ff ff	 movss	 DWORD PTR _heading$8[ebp], xmm0

; 702  : 
; 703  : 		heading += PI_OVER_FOUR;

  00863	f3 0f 10 85 f0
	fe ff ff	 movss	 xmm0, DWORD PTR _heading$8[ebp]
  0086b	f3 0f 58 05 00
	00 00 00	 addss	 xmm0, DWORD PTR __real@3f490fdb
  00873	f3 0f 11 85 f0
	fe ff ff	 movss	 DWORD PTR _heading$8[ebp], xmm0

; 704  : 
; 705  : 		int_heading = (int) heading;

  0087b	f3 0f 2c 85 f0
	fe ff ff	 cvttss2si eax, DWORD PTR _heading$8[ebp]
  00883	89 85 f4 fe ff
	ff		 mov	 DWORD PTR _int_heading$9[ebp], eax

; 706  : 
; 707  : 		// int heading = the 8 zones around N, NE, E, SE, S etc...
; 708  : 
; 709  : 		switch (int_heading)

  00889	8b 85 f4 fe ff
	ff		 mov	 eax, DWORD PTR _int_heading$9[ebp]
  0088f	89 85 88 fe ff
	ff		 mov	 DWORD PTR tv412[ebp], eax
  00895	83 bd 88 fe ff
	ff 06		 cmp	 DWORD PTR tv412[ebp], 6
  0089c	0f 87 00 01 00
	00		 ja	 $LN28@update_bri
  008a2	8b 8d 88 fe ff
	ff		 mov	 ecx, DWORD PTR tv412[ebp]
  008a8	ff 24 8d 00 00
	00 00		 jmp	 DWORD PTR $LN71@update_bri[ecx*4]
$LN21@update_bri:

; 710  : 		{
; 711  : 
; 712  : 			case 0:
; 713  : 			{
; 714  : 
; 715  : 				sprintf (s, "%s", get_trans ("North"));

  008af	68 00 00 00 00	 push	 OFFSET ??_C@_05FPOHJMOI@North@
  008b4	e8 00 00 00 00	 call	 ?get_trans@@YGPBDPBD@Z	; get_trans
  008b9	50		 push	 eax
  008ba	68 00 00 00 00	 push	 OFFSET ??_C@_02DKCKIIND@?$CFs@
  008bf	8d 85 40 ff ff
	ff		 lea	 eax, DWORD PTR _s$[ebp]
  008c5	50		 push	 eax
  008c6	e8 00 00 00 00	 call	 _sprintf
  008cb	83 c4 0c	 add	 esp, 12			; 0000000cH

; 716  : 
; 717  : 				break;

  008ce	e9 ee 00 00 00	 jmp	 $LN4@update_bri
$LN22@update_bri:

; 718  : 			}
; 719  : 
; 720  : 			case 1:
; 721  : 			{
; 722  : 
; 723  : 				sprintf (s, "%s", get_trans ("Northeast"));

  008d3	68 00 00 00 00	 push	 OFFSET ??_C@_09MCIFADKN@Northeast@
  008d8	e8 00 00 00 00	 call	 ?get_trans@@YGPBDPBD@Z	; get_trans
  008dd	50		 push	 eax
  008de	68 00 00 00 00	 push	 OFFSET ??_C@_02DKCKIIND@?$CFs@
  008e3	8d 85 40 ff ff
	ff		 lea	 eax, DWORD PTR _s$[ebp]
  008e9	50		 push	 eax
  008ea	e8 00 00 00 00	 call	 _sprintf
  008ef	83 c4 0c	 add	 esp, 12			; 0000000cH

; 724  : 
; 725  : 				break;

  008f2	e9 ca 00 00 00	 jmp	 $LN4@update_bri
$LN23@update_bri:

; 726  : 			}
; 727  : 
; 728  : 			case 2:
; 729  : 			{
; 730  : 
; 731  : 				sprintf (s, "%s", get_trans ("East"));

  008f7	68 00 00 00 00	 push	 OFFSET ??_C@_04DHLACFEG@East@
  008fc	e8 00 00 00 00	 call	 ?get_trans@@YGPBDPBD@Z	; get_trans
  00901	50		 push	 eax
  00902	68 00 00 00 00	 push	 OFFSET ??_C@_02DKCKIIND@?$CFs@
  00907	8d 85 40 ff ff
	ff		 lea	 eax, DWORD PTR _s$[ebp]
  0090d	50		 push	 eax
  0090e	e8 00 00 00 00	 call	 _sprintf
  00913	83 c4 0c	 add	 esp, 12			; 0000000cH

; 732  : 
; 733  : 				break;

  00916	e9 a6 00 00 00	 jmp	 $LN4@update_bri
$LN24@update_bri:

; 734  : 			}
; 735  : 
; 736  : 			case 3:
; 737  : 			{
; 738  : 
; 739  : 				sprintf (s, "%s", get_trans ("Southeast"));

  0091b	68 00 00 00 00	 push	 OFFSET ??_C@_09BKBAAAOM@Southeast@
  00920	e8 00 00 00 00	 call	 ?get_trans@@YGPBDPBD@Z	; get_trans
  00925	50		 push	 eax
  00926	68 00 00 00 00	 push	 OFFSET ??_C@_02DKCKIIND@?$CFs@
  0092b	8d 85 40 ff ff
	ff		 lea	 eax, DWORD PTR _s$[ebp]
  00931	50		 push	 eax
  00932	e8 00 00 00 00	 call	 _sprintf
  00937	83 c4 0c	 add	 esp, 12			; 0000000cH

; 740  : 
; 741  : 				break;

  0093a	e9 82 00 00 00	 jmp	 $LN4@update_bri
$LN25@update_bri:

; 742  : 			}
; 743  : 
; 744  : 			case 4:
; 745  : 			{
; 746  : 
; 747  : 				sprintf (s, "%s", get_trans ("South"));

  0093f	68 00 00 00 00	 push	 OFFSET ??_C@_05HNHILFBE@South@
  00944	e8 00 00 00 00	 call	 ?get_trans@@YGPBDPBD@Z	; get_trans
  00949	50		 push	 eax
  0094a	68 00 00 00 00	 push	 OFFSET ??_C@_02DKCKIIND@?$CFs@
  0094f	8d 85 40 ff ff
	ff		 lea	 eax, DWORD PTR _s$[ebp]
  00955	50		 push	 eax
  00956	e8 00 00 00 00	 call	 _sprintf
  0095b	83 c4 0c	 add	 esp, 12			; 0000000cH

; 748  : 
; 749  : 				break;

  0095e	eb 61		 jmp	 SHORT $LN4@update_bri
$LN26@update_bri:

; 750  : 			}
; 751  : 
; 752  : 			case 5:
; 753  : 			{
; 754  : 
; 755  : 				sprintf (s, "%s", get_trans ("Southwest"));

  00960	68 00 00 00 00	 push	 OFFSET ??_C@_09IPFCFDFJ@Southwest@
  00965	e8 00 00 00 00	 call	 ?get_trans@@YGPBDPBD@Z	; get_trans
  0096a	50		 push	 eax
  0096b	68 00 00 00 00	 push	 OFFSET ??_C@_02DKCKIIND@?$CFs@
  00970	8d 85 40 ff ff
	ff		 lea	 eax, DWORD PTR _s$[ebp]
  00976	50		 push	 eax
  00977	e8 00 00 00 00	 call	 _sprintf
  0097c	83 c4 0c	 add	 esp, 12			; 0000000cH

; 756  : 
; 757  : 				break;

  0097f	eb 40		 jmp	 SHORT $LN4@update_bri
$LN27@update_bri:

; 758  : 			}
; 759  : 
; 760  : 			case 6:
; 761  : 			{
; 762  : 
; 763  : 				sprintf (s, "%s", get_trans ("West"));

  00981	68 00 00 00 00	 push	 OFFSET ??_C@_04KCPCHGPD@West@
  00986	e8 00 00 00 00	 call	 ?get_trans@@YGPBDPBD@Z	; get_trans
  0098b	50		 push	 eax
  0098c	68 00 00 00 00	 push	 OFFSET ??_C@_02DKCKIIND@?$CFs@
  00991	8d 85 40 ff ff
	ff		 lea	 eax, DWORD PTR _s$[ebp]
  00997	50		 push	 eax
  00998	e8 00 00 00 00	 call	 _sprintf
  0099d	83 c4 0c	 add	 esp, 12			; 0000000cH

; 764  : 
; 765  : 				break;

  009a0	eb 1f		 jmp	 SHORT $LN4@update_bri
$LN28@update_bri:

; 766  : 			}
; 767  : 
; 768  : 			default:
; 769  : 			{
; 770  : 
; 771  : 				sprintf (s, "%s", get_trans ("Northwest"));

  009a2	68 00 00 00 00	 push	 OFFSET ??_C@_09FHMHFABI@Northwest@
  009a7	e8 00 00 00 00	 call	 ?get_trans@@YGPBDPBD@Z	; get_trans
  009ac	50		 push	 eax
  009ad	68 00 00 00 00	 push	 OFFSET ??_C@_02DKCKIIND@?$CFs@
  009b2	8d 85 40 ff ff
	ff		 lea	 eax, DWORD PTR _s$[ebp]
  009b8	50		 push	 eax
  009b9	e8 00 00 00 00	 call	 _sprintf
  009be	83 c4 0c	 add	 esp, 12			; 0000000cH
$LN4@update_bri:

; 772  : 
; 773  : 				break;
; 774  : 			}
; 775  : 		}
; 776  : 
; 777  : 		sprintf (buffer, " %d %s", (int) speed, get_trans ("Knots"));

  009c1	68 00 00 00 00	 push	 OFFSET ??_C@_05DJAPGADD@Knots@
  009c6	e8 00 00 00 00	 call	 ?get_trans@@YGPBDPBD@Z	; get_trans
  009cb	50		 push	 eax
  009cc	f3 0f 2c 85 ec
	fe ff ff	 cvttss2si eax, DWORD PTR _speed$7[ebp]
  009d4	50		 push	 eax
  009d5	68 00 00 00 00	 push	 OFFSET ??_C@_06MFLFNBF@?5?$CFd?5?$CFs@
  009da	8d 4d c0	 lea	 ecx, DWORD PTR _buffer$[ebp]
  009dd	51		 push	 ecx
  009de	e8 00 00 00 00	 call	 _sprintf
  009e3	83 c4 10	 add	 esp, 16			; 00000010H

; 778  : 
; 779  : 		strcat (s, buffer);

  009e6	8d 45 c0	 lea	 eax, DWORD PTR _buffer$[ebp]
  009e9	50		 push	 eax
  009ea	8d 8d 40 ff ff
	ff		 lea	 ecx, DWORD PTR _s$[ebp]
  009f0	51		 push	 ecx
  009f1	e8 00 00 00 00	 call	 _strcat
  009f6	83 c4 08	 add	 esp, 8

; 780  : 
; 781  : 		set_ui_object_text (briefing_page_wind_box, s);

  009f9	8d 85 40 ff ff
	ff		 lea	 eax, DWORD PTR _s$[ebp]
  009ff	50		 push	 eax
  00a00	8b 0d 00 00 00
	00		 mov	 ecx, DWORD PTR ?briefing_page_wind_box@@3PAUUI_OBJECT@@A
  00a06	51		 push	 ecx
  00a07	8b 15 00 00 00
	00		 mov	 edx, DWORD PTR ?briefing_page_wind_box@@3PAUUI_OBJECT@@A
  00a0d	8b 02		 mov	 eax, DWORD PTR [edx]
  00a0f	8b 0c 85 00 00
	00 00		 mov	 ecx, DWORD PTR ?fn_set_ui_object_text@@3PAP6GXPAUUI_OBJECT@@PBD@ZA[eax*4]
  00a16	ff d1		 call	 ecx

; 782  : 	}
; 783  : 
; 784  : 	//
; 785  : 	// PLAYER LOCK
; 786  : 	//
; 787  : 
; 788  : 	{
; 789  : 		entity
; 790  : 			*pilot;
; 791  : 			
; 792  : 		pilot = get_local_entity_parent (mission, LIST_TYPE_PILOT_LOCK);

  00a18	83 bd 3c ff ff
	ff 00		 cmp	 DWORD PTR _mission$[ebp], 0
  00a1f	74 10		 je	 SHORT $LN58@update_bri
  00a21	8b 85 3c ff ff
	ff		 mov	 eax, DWORD PTR _mission$[ebp]
  00a27	8b 08		 mov	 ecx, DWORD PTR [eax]
  00a29	89 8d 88 fe ff
	ff		 mov	 DWORD PTR tv474[ebp], ecx
  00a2f	eb 27		 jmp	 SHORT $LN59@update_bri
$LN58@update_bri:
  00a31	8b 15 00 00 00
	00		 mov	 edx, DWORD PTR ?__LINE__Var@?0??update_briefing_page_objects@@YGXPAUUI_OBJECT@@PAX@Z@4JA
  00a37	81 c2 0e 01 00
	00		 add	 edx, 270		; 0000010eH
  00a3d	52		 push	 edx
  00a3e	68 00 00 00 00	 push	 OFFSET ??_C@_0EP@NKGPCHE@c?3?2users?2nhv90?2projects?2eech?2ap@
  00a43	a1 00 00 00 00	 mov	 eax, DWORD PTR ?null_entity_pointer_message@@3PBDB ; null_entity_pointer_message
  00a48	50		 push	 eax
  00a49	e8 00 00 00 00	 call	 ?process_assert@@YGXPBD0H@Z ; process_assert
  00a4e	c7 85 88 fe ff
	ff 00 00 00 00	 mov	 DWORD PTR tv474[ebp], 0
$LN59@update_bri:
  00a58	b9 01 00 00 00	 mov	 ecx, 1
  00a5d	85 c9		 test	 ecx, ecx
  00a5f	74 0c		 je	 SHORT $LN60@update_bri
  00a61	c7 85 84 fe ff
	ff 1d 00 00 00	 mov	 DWORD PTR tv482[ebp], 29 ; 0000001dH
  00a6b	eb 27		 jmp	 SHORT $LN61@update_bri
$LN60@update_bri:
  00a6d	8b 15 00 00 00
	00		 mov	 edx, DWORD PTR ?__LINE__Var@?0??update_briefing_page_objects@@YGXPAUUI_OBJECT@@PAX@Z@4JA
  00a73	81 c2 0e 01 00
	00		 add	 edx, 270		; 0000010eH
  00a79	52		 push	 edx
  00a7a	68 00 00 00 00	 push	 OFFSET ??_C@_0EP@NKGPCHE@c?3?2users?2nhv90?2projects?2eech?2ap@
  00a7f	a1 00 00 00 00	 mov	 eax, DWORD PTR ?overload_invalid_list_type_message@@3PBDB ; overload_invalid_list_type_message
  00a84	50		 push	 eax
  00a85	e8 00 00 00 00	 call	 ?process_assert@@YGXPBD0H@Z ; process_assert
  00a8a	c7 85 84 fe ff
	ff 00 00 00 00	 mov	 DWORD PTR tv482[ebp], 0
$LN61@update_bri:
  00a94	6a 1d		 push	 29			; 0000001dH
  00a96	8b 8d 3c ff ff
	ff		 mov	 ecx, DWORD PTR _mission$[ebp]
  00a9c	51		 push	 ecx
  00a9d	69 95 88 fe ff
	ff b4 00 00 00	 imul	 edx, DWORD PTR tv474[ebp], 180
  00aa7	8b 85 84 fe ff
	ff		 mov	 eax, DWORD PTR tv482[ebp]
  00aad	8b 8c 82 00 00
	00 00		 mov	 ecx, DWORD PTR ?fn_get_local_entity_parent@@3PAY0CN@P6GPAUENTITY@@PAU1@W4LIST_TYPES@@@ZA[edx+eax*4]
  00ab4	ff d1		 call	 ecx
  00ab6	89 85 d0 fe ff
	ff		 mov	 DWORD PTR _pilot$2[ebp], eax

; 793  : 
; 794  : 		if (pilot)

  00abc	83 bd d0 fe ff
	ff 00		 cmp	 DWORD PTR _pilot$2[ebp], 0
  00ac3	0f 84 b5 00 00
	00		 je	 $LN29@update_bri

; 795  : 		{
; 796  : 			set_ui_object_text (briefing_page_pilot_lock_box, get_local_entity_string (pilot, STRING_TYPE_PILOTS_NAME));

  00ac9	83 bd d0 fe ff
	ff 00		 cmp	 DWORD PTR _pilot$2[ebp], 0
  00ad0	74 10		 je	 SHORT $LN62@update_bri
  00ad2	8b 85 d0 fe ff
	ff		 mov	 eax, DWORD PTR _pilot$2[ebp]
  00ad8	8b 08		 mov	 ecx, DWORD PTR [eax]
  00ada	89 8d 88 fe ff
	ff		 mov	 DWORD PTR tv498[ebp], ecx
  00ae0	eb 27		 jmp	 SHORT $LN63@update_bri
$LN62@update_bri:
  00ae2	8b 15 00 00 00
	00		 mov	 edx, DWORD PTR ?__LINE__Var@?0??update_briefing_page_objects@@YGXPAUUI_OBJECT@@PAX@Z@4JA
  00ae8	81 c2 12 01 00
	00		 add	 edx, 274		; 00000112H
  00aee	52		 push	 edx
  00aef	68 00 00 00 00	 push	 OFFSET ??_C@_0EP@NKGPCHE@c?3?2users?2nhv90?2projects?2eech?2ap@
  00af4	a1 00 00 00 00	 mov	 eax, DWORD PTR ?null_entity_pointer_message@@3PBDB ; null_entity_pointer_message
  00af9	50		 push	 eax
  00afa	e8 00 00 00 00	 call	 ?process_assert@@YGXPBD0H@Z ; process_assert
  00aff	c7 85 88 fe ff
	ff 00 00 00 00	 mov	 DWORD PTR tv498[ebp], 0
$LN63@update_bri:
  00b09	b9 01 00 00 00	 mov	 ecx, 1
  00b0e	85 c9		 test	 ecx, ecx
  00b10	74 0c		 je	 SHORT $LN64@update_bri
  00b12	c7 85 84 fe ff
	ff 0a 00 00 00	 mov	 DWORD PTR tv506[ebp], 10 ; 0000000aH
  00b1c	eb 27		 jmp	 SHORT $LN65@update_bri
$LN64@update_bri:
  00b1e	8b 15 00 00 00
	00		 mov	 edx, DWORD PTR ?__LINE__Var@?0??update_briefing_page_objects@@YGXPAUUI_OBJECT@@PAX@Z@4JA
  00b24	81 c2 12 01 00
	00		 add	 edx, 274		; 00000112H
  00b2a	52		 push	 edx
  00b2b	68 00 00 00 00	 push	 OFFSET ??_C@_0EP@NKGPCHE@c?3?2users?2nhv90?2projects?2eech?2ap@
  00b30	a1 00 00 00 00	 mov	 eax, DWORD PTR ?overload_invalid_string_type_message@@3PBDB ; overload_invalid_string_type_message
  00b35	50		 push	 eax
  00b36	e8 00 00 00 00	 call	 ?process_assert@@YGXPBD0H@Z ; process_assert
  00b3b	c7 85 84 fe ff
	ff 00 00 00 00	 mov	 DWORD PTR tv506[ebp], 0
$LN65@update_bri:
  00b45	6a 0a		 push	 10			; 0000000aH
  00b47	8b 8d d0 fe ff
	ff		 mov	 ecx, DWORD PTR _pilot$2[ebp]
  00b4d	51		 push	 ecx
  00b4e	6b 95 88 fe ff
	ff 34		 imul	 edx, DWORD PTR tv498[ebp], 52
  00b55	8b 85 84 fe ff
	ff		 mov	 eax, DWORD PTR tv506[ebp]
  00b5b	8b 8c 82 00 00
	00 00		 mov	 ecx, DWORD PTR ?fn_get_local_entity_string@@3PAY0N@P6GPBDPAUENTITY@@W4STRING_TYPES@@@ZA[edx+eax*4]
  00b62	ff d1		 call	 ecx
  00b64	50		 push	 eax
  00b65	8b 15 00 00 00
	00		 mov	 edx, DWORD PTR ?briefing_page_pilot_lock_box@@3PAUUI_OBJECT@@A
  00b6b	52		 push	 edx
  00b6c	a1 00 00 00 00	 mov	 eax, DWORD PTR ?briefing_page_pilot_lock_box@@3PAUUI_OBJECT@@A
  00b71	8b 08		 mov	 ecx, DWORD PTR [eax]
  00b73	8b 14 8d 00 00
	00 00		 mov	 edx, DWORD PTR ?fn_set_ui_object_text@@3PAP6GXPAUUI_OBJECT@@PBD@ZA[ecx*4]
  00b7a	ff d2		 call	 edx

; 797  : 		}
; 798  : 		else

  00b7c	eb 1c		 jmp	 SHORT $LN30@update_bri
$LN29@update_bri:

; 799  : 		{
; 800  : 			set_ui_object_text (briefing_page_pilot_lock_box, "");

  00b7e	68 00 00 00 00	 push	 OFFSET ??_C@_00CNPNBAHC@@
  00b83	a1 00 00 00 00	 mov	 eax, DWORD PTR ?briefing_page_pilot_lock_box@@3PAUUI_OBJECT@@A
  00b88	50		 push	 eax
  00b89	8b 0d 00 00 00
	00		 mov	 ecx, DWORD PTR ?briefing_page_pilot_lock_box@@3PAUUI_OBJECT@@A
  00b8f	8b 11		 mov	 edx, DWORD PTR [ecx]
  00b91	8b 04 95 00 00
	00 00		 mov	 eax, DWORD PTR ?fn_set_ui_object_text@@3PAP6GXPAUUI_OBJECT@@PBD@ZA[edx*4]
  00b98	ff d0		 call	 eax
$LN30@update_bri:

; 801  : 		}
; 802  : 	}
; 803  : 
; 804  : 	//
; 805  : 	// Accept Button
; 806  : 	//
; 807  : 
; 808  : 	if ((!get_gunship_entity ()) && (mission != get_currently_selected_mission ()) && (!get_local_entity_int_value (get_session_entity (), INT_TYPE_SESSION_COMPLETE)))

  00b9a	83 3d 00 00 00
	00 00		 cmp	 DWORD PTR ?gunship_entity@@3PAUENTITY@@A, 0 ; gunship_entity
  00ba1	0f 85 ce 00 00
	00		 jne	 $LN31@update_bri
  00ba7	e8 00 00 00 00	 call	 ?get_currently_selected_mission@@YGPAUENTITY@@XZ ; get_currently_selected_mission
  00bac	39 85 3c ff ff
	ff		 cmp	 DWORD PTR _mission$[ebp], eax
  00bb2	0f 84 bd 00 00
	00		 je	 $LN31@update_bri
  00bb8	83 3d 00 00 00
	00 00		 cmp	 DWORD PTR ?session_entity@@3PAUENTITY@@A, 0 ; session_entity
  00bbf	74 0f		 je	 SHORT $LN66@update_bri
  00bc1	a1 00 00 00 00	 mov	 eax, DWORD PTR ?session_entity@@3PAUENTITY@@A ; session_entity
  00bc6	8b 08		 mov	 ecx, DWORD PTR [eax]
  00bc8	89 8d 88 fe ff
	ff		 mov	 DWORD PTR tv527[ebp], ecx
  00bce	eb 20		 jmp	 SHORT $LN67@update_bri
$LN66@update_bri:
  00bd0	68 28 03 00 00	 push	 808			; 00000328H
  00bd5	68 00 00 00 00	 push	 OFFSET ??_C@_0EP@NKGPCHE@c?3?2users?2nhv90?2projects?2eech?2ap@
  00bda	8b 15 00 00 00
	00		 mov	 edx, DWORD PTR ?null_entity_pointer_message@@3PBDB ; null_entity_pointer_message
  00be0	52		 push	 edx
  00be1	e8 00 00 00 00	 call	 ?process_assert@@YGXPBD0H@Z ; process_assert
  00be6	c7 85 88 fe ff
	ff 00 00 00 00	 mov	 DWORD PTR tv527[ebp], 0
$LN67@update_bri:
  00bf0	b8 01 00 00 00	 mov	 eax, 1
  00bf5	85 c0		 test	 eax, eax
  00bf7	74 0c		 je	 SHORT $LN68@update_bri
  00bf9	c7 85 84 fe ff
	ff ba 00 00 00	 mov	 DWORD PTR tv534[ebp], 186 ; 000000baH
  00c03	eb 20		 jmp	 SHORT $LN69@update_bri
$LN68@update_bri:
  00c05	68 28 03 00 00	 push	 808			; 00000328H
  00c0a	68 00 00 00 00	 push	 OFFSET ??_C@_0EP@NKGPCHE@c?3?2users?2nhv90?2projects?2eech?2ap@
  00c0f	8b 0d 00 00 00
	00		 mov	 ecx, DWORD PTR ?overload_invalid_int_type_message@@3PBDB ; overload_invalid_int_type_message
  00c15	51		 push	 ecx
  00c16	e8 00 00 00 00	 call	 ?process_assert@@YGXPBD0H@Z ; process_assert
  00c1b	c7 85 84 fe ff
	ff 00 00 00 00	 mov	 DWORD PTR tv534[ebp], 0
$LN69@update_bri:
  00c25	68 ba 00 00 00	 push	 186			; 000000baH
  00c2a	8b 15 00 00 00
	00		 mov	 edx, DWORD PTR ?session_entity@@3PAUENTITY@@A ; session_entity
  00c30	52		 push	 edx
  00c31	69 85 88 fe ff
	ff 5c 04 00 00	 imul	 eax, DWORD PTR tv527[ebp], 1116
  00c3b	8b 8d 84 fe ff
	ff		 mov	 ecx, DWORD PTR tv534[ebp]
  00c41	8b 94 88 00 00
	00 00		 mov	 edx, DWORD PTR ?fn_get_local_entity_int_value@@3PAY0BBH@P6GHPAUENTITY@@W4INT_TYPES@@@ZA[eax+ecx*4]
  00c48	ff d2		 call	 edx
  00c4a	85 c0		 test	 eax, eax
  00c4c	75 27		 jne	 SHORT $LN31@update_bri

; 809  : 	{
; 810  : 		set_ui_object_drawable (mission_accept_button, get_mission_player_suitability_status (mission));

  00c4e	8b 85 3c ff ff
	ff		 mov	 eax, DWORD PTR _mission$[ebp]
  00c54	50		 push	 eax
  00c55	e8 00 00 00 00	 call	 ?get_mission_player_suitability_status@@YGHPAUENTITY@@@Z ; get_mission_player_suitability_status
  00c5a	50		 push	 eax
  00c5b	8b 0d 00 00 00
	00		 mov	 ecx, DWORD PTR ?mission_accept_button@@3PAUUI_OBJECT@@A ; mission_accept_button
  00c61	51		 push	 ecx
  00c62	8b 15 00 00 00
	00		 mov	 edx, DWORD PTR ?mission_accept_button@@3PAUUI_OBJECT@@A ; mission_accept_button
  00c68	8b 02		 mov	 eax, DWORD PTR [edx]
  00c6a	8b 0c 85 00 00
	00 00		 mov	 ecx, DWORD PTR ?fn_set_ui_object_drawable@@3PAP6GXPAUUI_OBJECT@@H@ZA[eax*4]
  00c71	ff d1		 call	 ecx

; 811  : 	}
; 812  : 	else

  00c73	eb 19		 jmp	 SHORT $LN32@update_bri
$LN31@update_bri:

; 813  : 	{
; 814  : 		set_ui_object_drawable (mission_accept_button, FALSE);

  00c75	6a 00		 push	 0
  00c77	a1 00 00 00 00	 mov	 eax, DWORD PTR ?mission_accept_button@@3PAUUI_OBJECT@@A ; mission_accept_button
  00c7c	50		 push	 eax
  00c7d	8b 0d 00 00 00
	00		 mov	 ecx, DWORD PTR ?mission_accept_button@@3PAUUI_OBJECT@@A ; mission_accept_button
  00c83	8b 11		 mov	 edx, DWORD PTR [ecx]
  00c85	8b 04 95 00 00
	00 00		 mov	 eax, DWORD PTR ?fn_set_ui_object_drawable@@3PAP6GXPAUUI_OBJECT@@H@ZA[edx*4]
  00c8c	ff d0		 call	 eax
$LN32@update_bri:

; 815  : 	}
; 816  : 
; 817  : 	//
; 818  : 	// Back Button
; 819  : 	//
; 820  : 
; 821  : 	set_ui_object_drawable (page_back_button, get_campaign_history_valid ());

  00c8e	e8 00 00 00 00	 call	 ?get_campaign_history_valid@@YGHXZ ; get_campaign_history_valid
  00c93	50		 push	 eax
  00c94	a1 00 00 00 00	 mov	 eax, DWORD PTR ?page_back_button@@3PAUUI_OBJECT@@A
  00c99	50		 push	 eax
  00c9a	8b 0d 00 00 00
	00		 mov	 ecx, DWORD PTR ?page_back_button@@3PAUUI_OBJECT@@A
  00ca0	8b 11		 mov	 edx, DWORD PTR [ecx]
  00ca2	8b 04 95 00 00
	00 00		 mov	 eax, DWORD PTR ?fn_set_ui_object_drawable@@3PAP6GXPAUUI_OBJECT@@H@ZA[edx*4]
  00ca9	ff d0		 call	 eax

; 822  : }

  00cab	5f		 pop	 edi
  00cac	5e		 pop	 esi
  00cad	5b		 pop	 ebx
  00cae	8b e5		 mov	 esp, ebp
  00cb0	5d		 pop	 ebp
  00cb1	c2 08 00	 ret	 8
$LN70@update_bri:
  00cb4	00 00 00 00	 DD	 $LN16@update_bri
  00cb8	00 00 00 00	 DD	 $LN17@update_bri
  00cbc	00 00 00 00	 DD	 $LN18@update_bri
  00cc0	00 00 00 00	 DD	 $LN19@update_bri
$LN71@update_bri:
  00cc4	00 00 00 00	 DD	 $LN21@update_bri
  00cc8	00 00 00 00	 DD	 $LN22@update_bri
  00ccc	00 00 00 00	 DD	 $LN23@update_bri
  00cd0	00 00 00 00	 DD	 $LN24@update_bri
  00cd4	00 00 00 00	 DD	 $LN25@update_bri
  00cd8	00 00 00 00	 DD	 $LN26@update_bri
  00cdc	00 00 00 00	 DD	 $LN27@update_bri
?update_briefing_page_objects@@YGXPAUUI_OBJECT@@PAX@Z ENDP ; update_briefing_page_objects
_TEXT	ENDS
; Function compile flags: /Odtp /ZI
; File c:\program files (x86)\microsoft visual studio\2017\community\vc\tools\msvc\14.16.27023\include\algorithm
;	COMDAT ??$max@M@std@@YGABMABM0@Z
_TEXT	SEGMENT
__Left$ = 8						; size = 4
__Right$ = 12						; size = 4
??$max@M@std@@YGABMABM0@Z PROC				; std::max<float>, COMDAT

; 5387 : 	{	// return larger of _Left and _Right

  00000	55		 push	 ebp
  00001	8b ec		 mov	 ebp, esp
  00003	83 ec 40	 sub	 esp, 64			; 00000040H
  00006	53		 push	 ebx
  00007	56		 push	 esi
  00008	57		 push	 edi

; 5388 : 	if (_Left < _Right)

  00009	8b 45 0c	 mov	 eax, DWORD PTR __Right$[ebp]
  0000c	8b 4d 08	 mov	 ecx, DWORD PTR __Left$[ebp]
  0000f	f3 0f 10 00	 movss	 xmm0, DWORD PTR [eax]
  00013	0f 2f 01	 comiss	 xmm0, DWORD PTR [ecx]
  00016	76 64		 jbe	 SHORT $LN8@max
$LN4@max:

; 5389 : 		{
; 5390 : 		_STL_ASSERT(!(_Right < _Left), "invalid comparator");

  00018	8b 45 08	 mov	 eax, DWORD PTR __Left$[ebp]
  0001b	8b 4d 0c	 mov	 ecx, DWORD PTR __Right$[ebp]
  0001e	f3 0f 10 00	 movss	 xmm0, DWORD PTR [eax]
  00022	0f 2f 01	 comiss	 xmm0, DWORD PTR [ecx]
  00025	77 02		 ja	 SHORT $LN9@max
  00027	eb 4a		 jmp	 SHORT $LN6@max
$LN9@max:
  00029	68 00 00 00 00	 push	 OFFSET ??_C@_0BD@FEEMDEPI@invalid?5comparator@
  0002e	68 00 00 00 00	 push	 OFFSET ??_C@_02DKCKIIND@?$CFs@
  00033	6a 00		 push	 0
  00035	68 0e 15 00 00	 push	 5390			; 0000150eH
  0003a	68 00 00 00 00	 push	 OFFSET ??_C@_0GK@JMBMHIBC@c?3?2program?5files?5?$CIx86?$CJ?2microsof@
  0003f	6a 02		 push	 2
  00041	ff 15 00 00 00
	00		 call	 DWORD PTR __imp___CrtDbgReport
  00047	83 c4 18	 add	 esp, 24			; 00000018H
  0004a	83 f8 01	 cmp	 eax, 1
  0004d	75 01		 jne	 SHORT $LN12@max
  0004f	cc		 int	 3
$LN12@max:
  00050	6a 00		 push	 0
  00052	68 0e 15 00 00	 push	 5390			; 0000150eH
  00057	68 00 00 00 00	 push	 OFFSET ??_C@_1NE@FKBPBJEB@?$AAc?$AA?3?$AA?2?$AAp?$AAr?$AAo?$AAg?$AAr?$AAa?$AAm?$AA?5?$AAf?$AAi?$AAl?$AAe@
  0005c	68 00 00 00 00	 push	 OFFSET ??_C@_1BC@ICCOKLEG@?$AAs?$AAt?$AAd?$AA?3?$AA?3?$AAm?$AAa?$AAx@
  00061	68 00 00 00 00	 push	 OFFSET ??_C@_1CK@NDNHPKPI@?$AA?$CC?$AAi?$AAn?$AAv?$AAa?$AAl?$AAi?$AAd?$AA?5?$AAc?$AAo?$AAm?$AAp?$AAa?$AAr@
  00066	ff 15 00 00 00
	00		 call	 DWORD PTR __imp___invalid_parameter
  0006c	83 c4 14	 add	 esp, 20			; 00000014H
  0006f	33 c0		 xor	 eax, eax
  00071	75 b6		 jne	 SHORT $LN9@max
$LN6@max:
  00073	33 c0		 xor	 eax, eax
  00075	75 a1		 jne	 SHORT $LN4@max

; 5391 : 		return (_Right);

  00077	8b 45 0c	 mov	 eax, DWORD PTR __Right$[ebp]
  0007a	eb 03		 jmp	 SHORT $LN1@max
$LN8@max:

; 5392 : 		}
; 5393 : 
; 5394 : 	return (_Left);

  0007c	8b 45 08	 mov	 eax, DWORD PTR __Left$[ebp]
$LN1@max:

; 5395 : 	}

  0007f	5f		 pop	 edi
  00080	5e		 pop	 esi
  00081	5b		 pop	 ebx
  00082	8b e5		 mov	 esp, ebp
  00084	5d		 pop	 ebp
  00085	c2 08 00	 ret	 8
??$max@M@std@@YGABMABM0@Z ENDP				; std::max<float>
_TEXT	ENDS
; Function compile flags: /Odtp /ZI
; File c:\program files (x86)\microsoft visual studio\2017\community\vc\tools\msvc\14.16.27023\include\algorithm
;	COMDAT ??$min@M@std@@YGABMABM0@Z
_TEXT	SEGMENT
__Left$ = 8						; size = 4
__Right$ = 12						; size = 4
??$min@M@std@@YGABMABM0@Z PROC				; std::min<float>, COMDAT

; 5427 : 	{	// return smaller of _Left and _Right

  00000	55		 push	 ebp
  00001	8b ec		 mov	 ebp, esp
  00003	83 ec 40	 sub	 esp, 64			; 00000040H
  00006	53		 push	 ebx
  00007	56		 push	 esi
  00008	57		 push	 edi

; 5428 : 	if (_Right < _Left)

  00009	8b 45 08	 mov	 eax, DWORD PTR __Left$[ebp]
  0000c	8b 4d 0c	 mov	 ecx, DWORD PTR __Right$[ebp]
  0000f	f3 0f 10 00	 movss	 xmm0, DWORD PTR [eax]
  00013	0f 2f 01	 comiss	 xmm0, DWORD PTR [ecx]
  00016	76 64		 jbe	 SHORT $LN8@min
$LN4@min:

; 5429 : 		{
; 5430 : 		_STL_ASSERT(!(_Left < _Right), "invalid comparator");

  00018	8b 45 0c	 mov	 eax, DWORD PTR __Right$[ebp]
  0001b	8b 4d 08	 mov	 ecx, DWORD PTR __Left$[ebp]
  0001e	f3 0f 10 00	 movss	 xmm0, DWORD PTR [eax]
  00022	0f 2f 01	 comiss	 xmm0, DWORD PTR [ecx]
  00025	77 02		 ja	 SHORT $LN9@min
  00027	eb 4a		 jmp	 SHORT $LN6@min
$LN9@min:
  00029	68 00 00 00 00	 push	 OFFSET ??_C@_0BD@FEEMDEPI@invalid?5comparator@
  0002e	68 00 00 00 00	 push	 OFFSET ??_C@_02DKCKIIND@?$CFs@
  00033	6a 00		 push	 0
  00035	68 36 15 00 00	 push	 5430			; 00001536H
  0003a	68 00 00 00 00	 push	 OFFSET ??_C@_0GK@JMBMHIBC@c?3?2program?5files?5?$CIx86?$CJ?2microsof@
  0003f	6a 02		 push	 2
  00041	ff 15 00 00 00
	00		 call	 DWORD PTR __imp___CrtDbgReport
  00047	83 c4 18	 add	 esp, 24			; 00000018H
  0004a	83 f8 01	 cmp	 eax, 1
  0004d	75 01		 jne	 SHORT $LN12@min
  0004f	cc		 int	 3
$LN12@min:
  00050	6a 00		 push	 0
  00052	68 36 15 00 00	 push	 5430			; 00001536H
  00057	68 00 00 00 00	 push	 OFFSET ??_C@_1NE@FKBPBJEB@?$AAc?$AA?3?$AA?2?$AAp?$AAr?$AAo?$AAg?$AAr?$AAa?$AAm?$AA?5?$AAf?$AAi?$AAl?$AAe@
  0005c	68 00 00 00 00	 push	 OFFSET ??_C@_1BC@BLAPCBGI@?$AAs?$AAt?$AAd?$AA?3?$AA?3?$AAm?$AAi?$AAn@
  00061	68 00 00 00 00	 push	 OFFSET ??_C@_1CK@NDNHPKPI@?$AA?$CC?$AAi?$AAn?$AAv?$AAa?$AAl?$AAi?$AAd?$AA?5?$AAc?$AAo?$AAm?$AAp?$AAa?$AAr@
  00066	ff 15 00 00 00
	00		 call	 DWORD PTR __imp___invalid_parameter
  0006c	83 c4 14	 add	 esp, 20			; 00000014H
  0006f	33 c0		 xor	 eax, eax
  00071	75 b6		 jne	 SHORT $LN9@min
$LN6@min:
  00073	33 c0		 xor	 eax, eax
  00075	75 a1		 jne	 SHORT $LN4@min

; 5431 : 		return (_Right);

  00077	8b 45 0c	 mov	 eax, DWORD PTR __Right$[ebp]
  0007a	eb 03		 jmp	 SHORT $LN1@min
$LN8@min:

; 5432 : 		}
; 5433 : 
; 5434 : 	return (_Left);

  0007c	8b 45 08	 mov	 eax, DWORD PTR __Left$[ebp]
$LN1@min:

; 5435 : 	}

  0007f	5f		 pop	 edi
  00080	5e		 pop	 esi
  00081	5b		 pop	 ebx
  00082	8b e5		 mov	 esp, ebp
  00084	5d		 pop	 ebp
  00085	c2 08 00	 ret	 8
??$min@M@std@@YGABMABM0@Z ENDP				; std::min<float>
_TEXT	ENDS
; Function compile flags: /Odtp /ZI
; File c:\users\nhv90\projects\eech\aphavoc\source\ui_menu\ingame\campaign\ca_brief.c
;	COMDAT ?render_static_briefing_objective_preview@@YGXPAUENTITY@@@Z
_TEXT	SEGMENT
tv146 = -168						; size = 4
tv89 = -168						; size = 4
tv160 = -164						; size = 4
tv138 = -164						; size = 4
tv81 = -164						; size = 4
_old_screen$1 = -96					; size = 4
_col$2 = -92						; size = 4
_greyscale$3 = -88					; size = 4
_y$4 = -84						; size = 4
_x$5 = -80						; size = 4
_distance$ = -76					; size = 4
_pitch$ = -72						; size = 4
_heading$ = -68						; size = 4
_vec$ = -64						; size = 12
_pos$ = -52						; size = 4
_vp$ = -48						; size = 48
_en$ = 8						; size = 4
?render_static_briefing_objective_preview@@YGXPAUENTITY@@@Z PROC ; render_static_briefing_objective_preview, COMDAT

; 1037 : {

  00000	55		 push	 ebp
  00001	8b ec		 mov	 ebp, esp
  00003	81 ec a8 00 00
	00		 sub	 esp, 168		; 000000a8H
  00009	53		 push	 ebx
  0000a	56		 push	 esi
  0000b	57		 push	 edi

; 1038 : 	viewpoint
; 1039 : 		vp;
; 1040 : 
; 1041 : 	vec3d
; 1042 : 		*pos,
; 1043 : 		vec;
; 1044 : 
; 1045 : 	float
; 1046 : 		heading,
; 1047 : 		pitch,
; 1048 : 		distance;
; 1049 : 
; 1050 : 	if (!RENDER_STILL_PREVIEW)

  0000c	83 3d 00 00 00
	00 00		 cmp	 DWORD PTR ?d3d_can_render_to_texture@@3HA, 0 ; d3d_can_render_to_texture
  00013	75 05		 jne	 SHORT $LN8@render_sta

; 1051 : 	{
; 1052 : 		return;

  00015	e9 78 03 00 00	 jmp	 $LN1@render_sta
$LN8@render_sta:

; 1053 : 	}
; 1054 : 
; 1055 : 	ASSERT (en);

  0001a	83 7d 08 00	 cmp	 DWORD PTR _en$[ebp], 0
  0001e	75 18		 jne	 SHORT $LN9@render_sta
  00020	a1 00 00 00 00	 mov	 eax, DWORD PTR ?__LINE__Var@?0??render_static_briefing_objective_preview@@YGXPAUENTITY@@@Z@4JA
  00025	83 c0 12	 add	 eax, 18			; 00000012H
  00028	50		 push	 eax
  00029	68 00 00 00 00	 push	 OFFSET ??_C@_0EP@NKGPCHE@c?3?2users?2nhv90?2projects?2eech?2ap@
  0002e	68 00 00 00 00	 push	 OFFSET ??_C@_02LFNMGJAP@en@
  00033	e8 00 00 00 00	 call	 ?process_assert@@YGXPBD0H@Z ; process_assert
$LN9@render_sta:

; 1056 : 
; 1057 : 	ASSERT (preview_texture_screen);

  00038	83 3d 00 00 00
	00 00		 cmp	 DWORD PTR ?preview_texture_screen@@3PAUSCREEN@@A, 0
  0003f	75 18		 jne	 SHORT $LN10@render_sta
  00041	a1 00 00 00 00	 mov	 eax, DWORD PTR ?__LINE__Var@?0??render_static_briefing_objective_preview@@YGXPAUENTITY@@@Z@4JA
  00046	83 c0 14	 add	 eax, 20			; 00000014H
  00049	50		 push	 eax
  0004a	68 00 00 00 00	 push	 OFFSET ??_C@_0EP@NKGPCHE@c?3?2users?2nhv90?2projects?2eech?2ap@
  0004f	68 00 00 00 00	 push	 OFFSET ??_C@_0BH@JCECGJAJ@preview_texture_screen@
  00054	e8 00 00 00 00	 call	 ?process_assert@@YGXPBD0H@Z ; process_assert
$LN10@render_sta:

; 1058 : 
; 1059 : 	pos = get_local_entity_vec3d_ptr (en, VEC3D_TYPE_POSITION);

  00059	83 7d 08 00	 cmp	 DWORD PTR _en$[ebp], 0
  0005d	74 0d		 je	 SHORT $LN14@render_sta
  0005f	8b 45 08	 mov	 eax, DWORD PTR _en$[ebp]
  00062	8b 08		 mov	 ecx, DWORD PTR [eax]
  00064	89 8d 5c ff ff
	ff		 mov	 DWORD PTR tv81[ebp], ecx
  0006a	eb 24		 jmp	 SHORT $LN15@render_sta
$LN14@render_sta:
  0006c	8b 15 00 00 00
	00		 mov	 edx, DWORD PTR ?__LINE__Var@?0??render_static_briefing_objective_preview@@YGXPAUENTITY@@@Z@4JA
  00072	83 c2 16	 add	 edx, 22			; 00000016H
  00075	52		 push	 edx
  00076	68 00 00 00 00	 push	 OFFSET ??_C@_0EP@NKGPCHE@c?3?2users?2nhv90?2projects?2eech?2ap@
  0007b	a1 00 00 00 00	 mov	 eax, DWORD PTR ?null_entity_pointer_message@@3PBDB ; null_entity_pointer_message
  00080	50		 push	 eax
  00081	e8 00 00 00 00	 call	 ?process_assert@@YGXPBD0H@Z ; process_assert
  00086	c7 85 5c ff ff
	ff 00 00 00 00	 mov	 DWORD PTR tv81[ebp], 0
$LN15@render_sta:
  00090	b9 01 00 00 00	 mov	 ecx, 1
  00095	85 c9		 test	 ecx, ecx
  00097	74 0c		 je	 SHORT $LN16@render_sta
  00099	c7 85 58 ff ff
	ff 08 00 00 00	 mov	 DWORD PTR tv89[ebp], 8
  000a3	eb 24		 jmp	 SHORT $LN17@render_sta
$LN16@render_sta:
  000a5	8b 15 00 00 00
	00		 mov	 edx, DWORD PTR ?__LINE__Var@?0??render_static_briefing_objective_preview@@YGXPAUENTITY@@@Z@4JA
  000ab	83 c2 16	 add	 edx, 22			; 00000016H
  000ae	52		 push	 edx
  000af	68 00 00 00 00	 push	 OFFSET ??_C@_0EP@NKGPCHE@c?3?2users?2nhv90?2projects?2eech?2ap@
  000b4	a1 00 00 00 00	 mov	 eax, DWORD PTR ?overload_invalid_vec3d_type_message@@3PBDB ; overload_invalid_vec3d_type_message
  000b9	50		 push	 eax
  000ba	e8 00 00 00 00	 call	 ?process_assert@@YGXPBD0H@Z ; process_assert
  000bf	c7 85 58 ff ff
	ff 00 00 00 00	 mov	 DWORD PTR tv89[ebp], 0
$LN17@render_sta:
  000c9	6a 08		 push	 8
  000cb	8b 4d 08	 mov	 ecx, DWORD PTR _en$[ebp]
  000ce	51		 push	 ecx
  000cf	6b 95 5c ff ff
	ff 60		 imul	 edx, DWORD PTR tv81[ebp], 96
  000d6	8b 85 58 ff ff
	ff		 mov	 eax, DWORD PTR tv89[ebp]
  000dc	8b 8c 82 00 00
	00 00		 mov	 ecx, DWORD PTR ?fn_get_local_entity_vec3d_ptr@@3PAY0BI@P6GPAUVEC3D@@PAUENTITY@@W4VEC3D_TYPES@@@ZA[edx+eax*4]
  000e3	ff d1		 call	 ecx
  000e5	89 45 cc	 mov	 DWORD PTR _pos$[ebp], eax

; 1060 : 
; 1061 : 	ASSERT (pos);

  000e8	83 7d cc 00	 cmp	 DWORD PTR _pos$[ebp], 0
  000ec	75 18		 jne	 SHORT $LN11@render_sta
  000ee	a1 00 00 00 00	 mov	 eax, DWORD PTR ?__LINE__Var@?0??render_static_briefing_objective_preview@@YGXPAUENTITY@@@Z@4JA
  000f3	83 c0 18	 add	 eax, 24			; 00000018H
  000f6	50		 push	 eax
  000f7	68 00 00 00 00	 push	 OFFSET ??_C@_0EP@NKGPCHE@c?3?2users?2nhv90?2projects?2eech?2ap@
  000fc	68 00 00 00 00	 push	 OFFSET ??_C@_03PCBNCGFH@pos@
  00101	e8 00 00 00 00	 call	 ?process_assert@@YGXPBD0H@Z ; process_assert
$LN11@render_sta:

; 1062 : 
; 1063 : 	distance = get_local_entity_float_value (en, FLOAT_TYPE_RECON_DISTANCE);

  00106	83 7d 08 00	 cmp	 DWORD PTR _en$[ebp], 0
  0010a	74 0d		 je	 SHORT $LN18@render_sta
  0010c	8b 45 08	 mov	 eax, DWORD PTR _en$[ebp]
  0010f	8b 08		 mov	 ecx, DWORD PTR [eax]
  00111	89 8d 5c ff ff
	ff		 mov	 DWORD PTR tv138[ebp], ecx
  00117	eb 24		 jmp	 SHORT $LN19@render_sta
$LN18@render_sta:
  00119	8b 15 00 00 00
	00		 mov	 edx, DWORD PTR ?__LINE__Var@?0??render_static_briefing_objective_preview@@YGXPAUENTITY@@@Z@4JA
  0011f	83 c2 1a	 add	 edx, 26			; 0000001aH
  00122	52		 push	 edx
  00123	68 00 00 00 00	 push	 OFFSET ??_C@_0EP@NKGPCHE@c?3?2users?2nhv90?2projects?2eech?2ap@
  00128	a1 00 00 00 00	 mov	 eax, DWORD PTR ?null_entity_pointer_message@@3PBDB ; null_entity_pointer_message
  0012d	50		 push	 eax
  0012e	e8 00 00 00 00	 call	 ?process_assert@@YGXPBD0H@Z ; process_assert
  00133	c7 85 5c ff ff
	ff 00 00 00 00	 mov	 DWORD PTR tv138[ebp], 0
$LN19@render_sta:
  0013d	b9 01 00 00 00	 mov	 ecx, 1
  00142	85 c9		 test	 ecx, ecx
  00144	74 0c		 je	 SHORT $LN20@render_sta
  00146	c7 85 58 ff ff
	ff 6e 00 00 00	 mov	 DWORD PTR tv146[ebp], 110 ; 0000006eH
  00150	eb 24		 jmp	 SHORT $LN21@render_sta
$LN20@render_sta:
  00152	8b 15 00 00 00
	00		 mov	 edx, DWORD PTR ?__LINE__Var@?0??render_static_briefing_objective_preview@@YGXPAUENTITY@@@Z@4JA
  00158	83 c2 1a	 add	 edx, 26			; 0000001aH
  0015b	52		 push	 edx
  0015c	68 00 00 00 00	 push	 OFFSET ??_C@_0EP@NKGPCHE@c?3?2users?2nhv90?2projects?2eech?2ap@
  00161	a1 00 00 00 00	 mov	 eax, DWORD PTR ?overload_invalid_float_type_message@@3PBDB ; overload_invalid_float_type_message
  00166	50		 push	 eax
  00167	e8 00 00 00 00	 call	 ?process_assert@@YGXPBD0H@Z ; process_assert
  0016c	c7 85 58 ff ff
	ff 00 00 00 00	 mov	 DWORD PTR tv146[ebp], 0
$LN21@render_sta:
  00176	6a 6e		 push	 110			; 0000006eH
  00178	8b 4d 08	 mov	 ecx, DWORD PTR _en$[ebp]
  0017b	51		 push	 ecx
  0017c	69 95 5c ff ff
	ff bc 02 00 00	 imul	 edx, DWORD PTR tv138[ebp], 700
  00186	8b 85 58 ff ff
	ff		 mov	 eax, DWORD PTR tv146[ebp]
  0018c	8b 8c 82 00 00
	00 00		 mov	 ecx, DWORD PTR ?fn_get_local_entity_float_value@@3PAY0KP@P6GMPAUENTITY@@W4FLOAT_TYPES@@@ZA[edx+eax*4]
  00193	ff d1		 call	 ecx
  00195	d9 5d b4	 fstp	 DWORD PTR _distance$[ebp]

; 1064 : 
; 1065 : 	if (distance == 0.0)

  00198	f3 0f 5a 45 b4	 cvtss2sd xmm0, DWORD PTR _distance$[ebp]
  0019d	66 0f 2e 05 00
	00 00 00	 ucomisd xmm0, QWORD PTR __real@0000000000000000
  001a5	9f		 lahf
  001a6	f6 c4 44	 test	 ah, 68			; 00000044H
  001a9	7a 57		 jp	 SHORT $LN12@render_sta

; 1066 : 	{
; 1067 : 		debug_log ("CA_MISS: INVALID RECON DISTANCE FOR %s", get_local_entity_type_name (en));

  001ab	83 7d 08 00	 cmp	 DWORD PTR _en$[ebp], 0
  001af	74 0d		 je	 SHORT $LN22@render_sta
  001b1	8b 45 08	 mov	 eax, DWORD PTR _en$[ebp]
  001b4	8b 08		 mov	 ecx, DWORD PTR [eax]
  001b6	89 8d 5c ff ff
	ff		 mov	 DWORD PTR tv160[ebp], ecx
  001bc	eb 24		 jmp	 SHORT $LN23@render_sta
$LN22@render_sta:
  001be	8b 15 00 00 00
	00		 mov	 edx, DWORD PTR ?__LINE__Var@?0??render_static_briefing_objective_preview@@YGXPAUENTITY@@@Z@4JA
  001c4	83 c2 1e	 add	 edx, 30			; 0000001eH
  001c7	52		 push	 edx
  001c8	68 00 00 00 00	 push	 OFFSET ??_C@_0EP@NKGPCHE@c?3?2users?2nhv90?2projects?2eech?2ap@
  001cd	a1 00 00 00 00	 mov	 eax, DWORD PTR ?null_entity_pointer_message@@3PBDB ; null_entity_pointer_message
  001d2	50		 push	 eax
  001d3	e8 00 00 00 00	 call	 ?process_assert@@YGXPBD0H@Z ; process_assert
  001d8	c7 85 5c ff ff
	ff 00 00 00 00	 mov	 DWORD PTR tv160[ebp], 0
$LN23@render_sta:
  001e2	6b 8d 5c ff ff
	ff 0c		 imul	 ecx, DWORD PTR tv160[ebp], 12
  001e9	8b 91 00 00 00
	00		 mov	 edx, DWORD PTR ?entity_type_database@@3PAUENTITY_TYPE_DATA@@A[ecx]
  001ef	52		 push	 edx
  001f0	68 00 00 00 00	 push	 OFFSET ??_C@_0CH@BFJGBGEH@CA_MISS?3?5INVALID?5RECON?5DISTANCE@
  001f5	e8 00 00 00 00	 call	 ?debug_log@@YAXPBDZZ	; debug_log
  001fa	83 c4 08	 add	 esp, 8

; 1068 : 
; 1069 : 		return;

  001fd	e9 90 01 00 00	 jmp	 $LN1@render_sta
$LN12@render_sta:

; 1070 : 	}
; 1071 : 
; 1072 : 	heading = PI;

  00202	f3 0f 10 05 00
	00 00 00	 movss	 xmm0, DWORD PTR __real@40490fdb
  0020a	f3 0f 11 45 bc	 movss	 DWORD PTR _heading$[ebp], xmm0

; 1073 : 
; 1074 : 	pitch = rad (65.0);

  0020f	f3 0f 10 05 00
	00 00 00	 movss	 xmm0, DWORD PTR __real@3f91361e
  00217	f3 0f 11 45 b8	 movss	 DWORD PTR _pitch$[ebp], xmm0

; 1075 : 
; 1076 : 	get_3d_unit_vector_from_heading_and_pitch (&vec, heading, pitch);

  0021c	51		 push	 ecx
  0021d	f3 0f 10 45 b8	 movss	 xmm0, DWORD PTR _pitch$[ebp]
  00222	f3 0f 11 04 24	 movss	 DWORD PTR [esp], xmm0
  00227	51		 push	 ecx
  00228	f3 0f 10 45 bc	 movss	 xmm0, DWORD PTR _heading$[ebp]
  0022d	f3 0f 11 04 24	 movss	 DWORD PTR [esp], xmm0
  00232	8d 45 c0	 lea	 eax, DWORD PTR _vec$[ebp]
  00235	50		 push	 eax
  00236	e8 00 00 00 00	 call	 ?get_3d_unit_vector_from_heading_and_pitch@@YGXPAUVEC3D@@MM@Z ; get_3d_unit_vector_from_heading_and_pitch

; 1077 : 
; 1078 : 	vp.x = pos->x + (distance * vec.x);

  0023b	f3 0f 10 45 b4	 movss	 xmm0, DWORD PTR _distance$[ebp]
  00240	f3 0f 59 45 c0	 mulss	 xmm0, DWORD PTR _vec$[ebp]
  00245	8b 45 cc	 mov	 eax, DWORD PTR _pos$[ebp]
  00248	f3 0f 58 00	 addss	 xmm0, DWORD PTR [eax]
  0024c	f3 0f 11 45 d0	 movss	 DWORD PTR _vp$[ebp], xmm0

; 1079 : 	vp.y = pos->y + (distance * vec.y);

  00251	f3 0f 10 45 b4	 movss	 xmm0, DWORD PTR _distance$[ebp]
  00256	f3 0f 59 45 c4	 mulss	 xmm0, DWORD PTR _vec$[ebp+4]
  0025b	8b 45 cc	 mov	 eax, DWORD PTR _pos$[ebp]
  0025e	f3 0f 58 40 04	 addss	 xmm0, DWORD PTR [eax+4]
  00263	f3 0f 11 45 d4	 movss	 DWORD PTR _vp$[ebp+4], xmm0

; 1080 : 	vp.z = pos->z + (distance * vec.z);

  00268	f3 0f 10 45 b4	 movss	 xmm0, DWORD PTR _distance$[ebp]
  0026d	f3 0f 59 45 c8	 mulss	 xmm0, DWORD PTR _vec$[ebp+8]
  00272	8b 45 cc	 mov	 eax, DWORD PTR _pos$[ebp]
  00275	f3 0f 58 40 08	 addss	 xmm0, DWORD PTR [eax+8]
  0027a	f3 0f 11 45 d8	 movss	 DWORD PTR _vp$[ebp+8], xmm0

; 1081 : 
; 1082 : 	invert_3d_vector (&vec);

  0027f	8d 45 c0	 lea	 eax, DWORD PTR _vec$[ebp]
  00282	50		 push	 eax
  00283	e8 00 00 00 00	 call	 ?invert_3d_vector@@YGXPAUVEC3D@@@Z ; invert_3d_vector

; 1083 : 
; 1084 : 	get_matrix3x3_from_unit_vec3d (vp.attitude, &vec);

  00288	8d 45 c0	 lea	 eax, DWORD PTR _vec$[ebp]
  0028b	50		 push	 eax
  0028c	8d 4d dc	 lea	 ecx, DWORD PTR _vp$[ebp+12]
  0028f	51		 push	 ecx
  00290	e8 00 00 00 00	 call	 ?get_matrix3x3_from_unit_vec3d@@YGXQAY02MPBUVEC3D@@@Z ; get_matrix3x3_from_unit_vec3d

; 1085 : 
; 1086 : 	//
; 1087 : 	// Hack time of day to mid-day (i.e. light scene from above)
; 1088 : 	//
; 1089 : 	
; 1090 : 	set_3d_time_of_day (main_3d_env, 12.0 * ONE_HOUR);

  00295	51		 push	 ecx
  00296	f3 0f 10 05 00
	00 00 00	 movss	 xmm0, DWORD PTR __real@4728c000
  0029e	f3 0f 11 04 24	 movss	 DWORD PTR [esp], xmm0
  002a3	a1 00 00 00 00	 mov	 eax, DWORD PTR ?main_3d_env@@3PAUENV_3D@@A ; main_3d_env
  002a8	50		 push	 eax
  002a9	e8 00 00 00 00	 call	 ?set_3d_time_of_day@@YGXPAUENV_3D@@M@Z ; set_3d_time_of_day

; 1091 : 
; 1092 : 	recalculate_3d_environment_settings (main_3d_env);

  002ae	a1 00 00 00 00	 mov	 eax, DWORD PTR ?main_3d_env@@3PAUENV_3D@@A ; main_3d_env
  002b3	50		 push	 eax
  002b4	e8 00 00 00 00	 call	 ?recalculate_3d_environment_settings@@YGXPAUENV_3D@@@Z ; recalculate_3d_environment_settings

; 1093 : 
; 1094 : 	//
; 1095 : 	// Draw scene
; 1096 : 	//
; 1097 : 	
; 1098 : 	draw_campaign_screen_3d_scene_to_texture (preview_texture_screen, &vp, PREVIEW_TEXTURE_SIZE);

  002b9	51		 push	 ecx
  002ba	f3 0f 10 05 00
	00 00 00	 movss	 xmm0, DWORD PTR __real@43800000
  002c2	f3 0f 11 04 24	 movss	 DWORD PTR [esp], xmm0
  002c7	8d 45 d0	 lea	 eax, DWORD PTR _vp$[ebp]
  002ca	50		 push	 eax
  002cb	8b 0d 00 00 00
	00		 mov	 ecx, DWORD PTR ?preview_texture_screen@@3PAUSCREEN@@A
  002d1	51		 push	 ecx
  002d2	e8 00 00 00 00	 call	 ?draw_campaign_screen_3d_scene_to_texture@@YGXPAUSCREEN@@PAUVIEWPOINT@@M@Z ; draw_campaign_screen_3d_scene_to_texture

; 1099 : 
; 1100 : 	//
; 1101 : 	// Add greyscale effect (test)
; 1102 : 	//
; 1103 : 	{
; 1104 : 		int
; 1105 : 			x,
; 1106 : 			y,
; 1107 : 			greyscale;
; 1108 : 
; 1109 : 		rgb_colour
; 1110 : 			col;
; 1111 : 
; 1112 : 		screen
; 1113 : 			*old_screen;
; 1114 : 
; 1115 : 		old_screen = get_active_screen ();

  002d7	e8 00 00 00 00	 call	 ?get_active_screen@@YGPAUSCREEN@@XZ ; get_active_screen
  002dc	89 45 a0	 mov	 DWORD PTR _old_screen$1[ebp], eax

; 1116 : 
; 1117 : 		lock_screen (preview_texture_screen);

  002df	a1 00 00 00 00	 mov	 eax, DWORD PTR ?preview_texture_screen@@3PAUSCREEN@@A
  002e4	50		 push	 eax
  002e5	e8 00 00 00 00	 call	 ?lock_screen@@YGHPAUSCREEN@@@Z ; lock_screen

; 1118 : 
; 1119 : 		set_active_screen (preview_texture_screen);

  002ea	a1 00 00 00 00	 mov	 eax, DWORD PTR ?preview_texture_screen@@3PAUSCREEN@@A
  002ef	50		 push	 eax
  002f0	e8 00 00 00 00	 call	 ?set_active_screen@@YGHPAUSCREEN@@@Z ; set_active_screen

; 1120 : 	
; 1121 : 		for (y = 0; y < PREVIEW_TEXTURE_SIZE; y ++)

  002f5	c7 45 ac 00 00
	00 00		 mov	 DWORD PTR _y$4[ebp], 0
  002fc	eb 09		 jmp	 SHORT $LN4@render_sta
$LN2@render_sta:
  002fe	8b 45 ac	 mov	 eax, DWORD PTR _y$4[ebp]
  00301	83 c0 01	 add	 eax, 1
  00304	89 45 ac	 mov	 DWORD PTR _y$4[ebp], eax
$LN4@render_sta:
  00307	81 7d ac 00 01
	00 00		 cmp	 DWORD PTR _y$4[ebp], 256 ; 00000100H
  0030e	7d 6e		 jge	 SHORT $LN3@render_sta

; 1122 : 		{
; 1123 : 			for (x = 0; x < PREVIEW_TEXTURE_SIZE; x ++)

  00310	c7 45 b0 00 00
	00 00		 mov	 DWORD PTR _x$5[ebp], 0
  00317	eb 09		 jmp	 SHORT $LN7@render_sta
$LN5@render_sta:
  00319	8b 45 b0	 mov	 eax, DWORD PTR _x$5[ebp]
  0031c	83 c0 01	 add	 eax, 1
  0031f	89 45 b0	 mov	 DWORD PTR _x$5[ebp], eax
$LN7@render_sta:
  00322	81 7d b0 00 01
	00 00		 cmp	 DWORD PTR _x$5[ebp], 256 ; 00000100H
  00329	7d 51		 jge	 SHORT $LN6@render_sta

; 1124 : 			{
; 1125 : 				get_pixel (x, y, &col);

  0032b	8d 45 a4	 lea	 eax, DWORD PTR _col$2[ebp]
  0032e	50		 push	 eax
  0032f	8b 4d ac	 mov	 ecx, DWORD PTR _y$4[ebp]
  00332	51		 push	 ecx
  00333	8b 55 b0	 mov	 edx, DWORD PTR _x$5[ebp]
  00336	52		 push	 edx
  00337	e8 00 00 00 00	 call	 ?get_pixel@@YGXHHPAUREAL_COLOUR@@@Z ; get_pixel

; 1126 : 
; 1127 : 				greyscale = (col.r + col.g + col.b) / 3;

  0033c	0f b6 45 a6	 movzx	 eax, BYTE PTR _col$2[ebp+2]
  00340	0f b6 4d a5	 movzx	 ecx, BYTE PTR _col$2[ebp+1]
  00344	03 c1		 add	 eax, ecx
  00346	0f b6 55 a4	 movzx	 edx, BYTE PTR _col$2[ebp]
  0034a	03 c2		 add	 eax, edx
  0034c	99		 cdq
  0034d	b9 03 00 00 00	 mov	 ecx, 3
  00352	f7 f9		 idiv	 ecx
  00354	89 45 a8	 mov	 DWORD PTR _greyscale$3[ebp], eax

; 1128 : 	
; 1129 : 				col.r = greyscale;

  00357	8a 45 a8	 mov	 al, BYTE PTR _greyscale$3[ebp]
  0035a	88 45 a6	 mov	 BYTE PTR _col$2[ebp+2], al

; 1130 : 				col.g = greyscale;

  0035d	8a 45 a8	 mov	 al, BYTE PTR _greyscale$3[ebp]
  00360	88 45 a5	 mov	 BYTE PTR _col$2[ebp+1], al

; 1131 : 				col.b = greyscale;

  00363	8a 45 a8	 mov	 al, BYTE PTR _greyscale$3[ebp]
  00366	88 45 a4	 mov	 BYTE PTR _col$2[ebp], al

; 1132 : 
; 1133 : 				set_pixel (x, y, col);

  00369	8b 45 a4	 mov	 eax, DWORD PTR _col$2[ebp]
  0036c	50		 push	 eax
  0036d	8b 4d ac	 mov	 ecx, DWORD PTR _y$4[ebp]
  00370	51		 push	 ecx
  00371	8b 55 b0	 mov	 edx, DWORD PTR _x$5[ebp]
  00374	52		 push	 edx
  00375	e8 00 00 00 00	 call	 ?set_pixel@@YGXHHUREAL_COLOUR@@@Z ; set_pixel

; 1134 : 			}

  0037a	eb 9d		 jmp	 SHORT $LN5@render_sta
$LN6@render_sta:

; 1135 : 		}

  0037c	eb 80		 jmp	 SHORT $LN2@render_sta
$LN3@render_sta:

; 1136 : 
; 1137 : 		unlock_screen (preview_texture_screen);

  0037e	a1 00 00 00 00	 mov	 eax, DWORD PTR ?preview_texture_screen@@3PAUSCREEN@@A
  00383	50		 push	 eax
  00384	e8 00 00 00 00	 call	 ?unlock_screen@@YGHPAUSCREEN@@@Z ; unlock_screen

; 1138 : 
; 1139 : 		set_active_screen (old_screen);

  00389	8b 45 a0	 mov	 eax, DWORD PTR _old_screen$1[ebp]
  0038c	50		 push	 eax
  0038d	e8 00 00 00 00	 call	 ?set_active_screen@@YGHPAUSCREEN@@@Z ; set_active_screen
$LN1@render_sta:

; 1140 : 	}
; 1141 : }

  00392	5f		 pop	 edi
  00393	5e		 pop	 esi
  00394	5b		 pop	 ebx
  00395	8b e5		 mov	 esp, ebp
  00397	5d		 pop	 ebp
  00398	c2 04 00	 ret	 4
?render_static_briefing_objective_preview@@YGXPAUENTITY@@@Z ENDP ; render_static_briefing_objective_preview
_TEXT	ENDS
; Function compile flags: /Odtp /ZI
; File c:\users\nhv90\projects\eech\aphavoc\source\ui_menu\ingame\campaign\ca_brief.c
;	COMDAT ?overload_briefing_page_message_responses@@YGXXZ
_TEXT	SEGMENT
_target$ = -4						; size = 4
?overload_briefing_page_message_responses@@YGXXZ PROC	; overload_briefing_page_message_responses, COMDAT

; 2050 : {

  00000	55		 push	 ebp
  00001	8b ec		 mov	 ebp, esp
  00003	83 ec 44	 sub	 esp, 68			; 00000044H
  00006	53		 push	 ebx
  00007	56		 push	 esi
  00008	57		 push	 edi

; 2051 : 	campaign_screen_message_targets
; 2052 : 		target;
; 2053 : 
; 2054 : 	target = CAMPAIGN_SCREEN_TARGET_BRIEFING_PAGE;

  00009	c7 45 fc 04 00
	00 00		 mov	 DWORD PTR _target$[ebp], 4

; 2055 : 
; 2056 : 	campaign_screen_message_responses [target][CAMPAIGN_SCREEN_MISSION_ASSIGNED]	=	response_to_mission_assigned;

  00010	6b 45 fc 38	 imul	 eax, DWORD PTR _target$[ebp], 56
  00014	b9 04 00 00 00	 mov	 ecx, 4
  00019	c1 e1 00	 shl	 ecx, 0
  0001c	c7 84 08 00 00
	00 00 00 00 00
	00		 mov	 DWORD PTR ?campaign_screen_message_responses@@3PAY0O@P6GHW4CAMPAIGN_SCREEN_MESSAGES@@PAUENTITY@@@ZA[eax+ecx], OFFSET ?response_to_mission_assigned@@YGHW4CAMPAIGN_SCREEN_MESSAGES@@PAUENTITY@@@Z ; response_to_mission_assigned

; 2057 : 
; 2058 : 	campaign_screen_message_responses [target][CAMPAIGN_SCREEN_MISSION_COMPLETED]	=	response_to_mission_completed;

  00027	6b 45 fc 38	 imul	 eax, DWORD PTR _target$[ebp], 56
  0002b	b9 04 00 00 00	 mov	 ecx, 4
  00030	d1 e1		 shl	 ecx, 1
  00032	c7 84 08 00 00
	00 00 00 00 00
	00		 mov	 DWORD PTR ?campaign_screen_message_responses@@3PAY0O@P6GHW4CAMPAIGN_SCREEN_MESSAGES@@PAUENTITY@@@ZA[eax+ecx], OFFSET ?response_to_mission_completed@@YGHW4CAMPAIGN_SCREEN_MESSAGES@@PAUENTITY@@@Z ; response_to_mission_completed

; 2059 : 
; 2060 : 	campaign_screen_message_responses [target][CAMPAIGN_SCREEN_MISSION_DESTROYED]	=	response_to_mission_destroyed;

  0003d	6b 45 fc 38	 imul	 eax, DWORD PTR _target$[ebp], 56
  00041	b9 04 00 00 00	 mov	 ecx, 4
  00046	6b d1 03	 imul	 edx, ecx, 3
  00049	c7 84 10 00 00
	00 00 00 00 00
	00		 mov	 DWORD PTR ?campaign_screen_message_responses@@3PAY0O@P6GHW4CAMPAIGN_SCREEN_MESSAGES@@PAUENTITY@@@ZA[eax+edx], OFFSET ?response_to_mission_destroyed@@YGHW4CAMPAIGN_SCREEN_MESSAGES@@PAUENTITY@@@Z ; response_to_mission_destroyed

; 2061 : 
; 2062 : 	campaign_screen_message_responses [target][CAMPAIGN_SCREEN_FORCE_UPDATE]		=	response_to_force_update;

  00054	6b 45 fc 38	 imul	 eax, DWORD PTR _target$[ebp], 56
  00058	b9 04 00 00 00	 mov	 ecx, 4
  0005d	6b d1 0d	 imul	 edx, ecx, 13
  00060	c7 84 10 00 00
	00 00 00 00 00
	00		 mov	 DWORD PTR ?campaign_screen_message_responses@@3PAY0O@P6GHW4CAMPAIGN_SCREEN_MESSAGES@@PAUENTITY@@@ZA[eax+edx], OFFSET ?response_to_force_update@@YGHW4CAMPAIGN_SCREEN_MESSAGES@@PAUENTITY@@@Z ; response_to_force_update

; 2063 : }

  0006b	5f		 pop	 edi
  0006c	5e		 pop	 esi
  0006d	5b		 pop	 ebx
  0006e	8b e5		 mov	 esp, ebp
  00070	5d		 pop	 ebp
  00071	c3		 ret	 0
?overload_briefing_page_message_responses@@YGXXZ ENDP	; overload_briefing_page_message_responses
_TEXT	ENDS
; Function compile flags: /Odtp /ZI
; File c:\users\nhv90\projects\eech\aphavoc\source\ui_menu\ingame\campaign\ca_brief.c
;	COMDAT ?resize_briefing_list_size@@YGXPAUUI_OBJECT@@@Z
_TEXT	SEGMENT
tv141 = -96						; size = 4
tv159 = -92						; size = 4
tv134 = -88						; size = 4
$T1 = -84						; size = 4
$T2 = -80						; size = 4
_y$ = -12						; size = 4
_slider$ = -8						; size = 4
_parent$ = -4						; size = 4
_list$ = 8						; size = 4
?resize_briefing_list_size@@YGXPAUUI_OBJECT@@@Z PROC	; resize_briefing_list_size, COMDAT

; 2145 : {

  00000	55		 push	 ebp
  00001	8b ec		 mov	 ebp, esp
  00003	83 ec 60	 sub	 esp, 96			; 00000060H
  00006	53		 push	 ebx
  00007	56		 push	 esi
  00008	57		 push	 edi

; 2146 : 	ui_object
; 2147 : 		*parent,
; 2148 : 		*slider;
; 2149 : 
; 2150 : 	float
; 2151 : 		y;
; 2152 : 
; 2153 : 	parent = get_ui_object_parent (list);

  00009	8b 45 08	 mov	 eax, DWORD PTR _list$[ebp]
  0000c	50		 push	 eax
  0000d	8b 4d 08	 mov	 ecx, DWORD PTR _list$[ebp]
  00010	8b 11		 mov	 edx, DWORD PTR [ecx]
  00012	8b 04 95 00 00
	00 00		 mov	 eax, DWORD PTR ?fn_get_ui_object_parent@@3PAP6GPAUUI_OBJECT@@PAU1@@ZA[edx*4]
  00019	ff d0		 call	 eax
  0001b	89 45 fc	 mov	 DWORD PTR _parent$[ebp], eax

; 2154 : 
; 2155 : 	// re-size the list objects when items are added
; 2156 : 
; 2157 : 	y = max (1.0f, get_next_list_position (list) / get_ui_object_y_size (parent));

  0001e	8b 45 08	 mov	 eax, DWORD PTR _list$[ebp]
  00021	50		 push	 eax
  00022	e8 00 00 00 00	 call	 ?get_next_list_position@@YGMPAUUI_OBJECT@@@Z ; get_next_list_position
  00027	d9 5d a8	 fstp	 DWORD PTR tv134[ebp]
  0002a	f3 0f 10 45 a8	 movss	 xmm0, DWORD PTR tv134[ebp]
  0002f	8b 4d fc	 mov	 ecx, DWORD PTR _parent$[ebp]
  00032	51		 push	 ecx
  00033	8b 55 fc	 mov	 edx, DWORD PTR _parent$[ebp]
  00036	8b 02		 mov	 eax, DWORD PTR [edx]
  00038	8b 0c 85 00 00
	00 00		 mov	 ecx, DWORD PTR ?fn_get_ui_object_y_size@@3PAP6GMPAUUI_OBJECT@@@ZA[eax*4]
  0003f	f3 0f 11 45 a4	 movss	 DWORD PTR tv159[ebp], xmm0
  00044	ff d1		 call	 ecx
  00046	d9 5d a0	 fstp	 DWORD PTR tv141[ebp]
  00049	f3 0f 10 45 a4	 movss	 xmm0, DWORD PTR tv159[ebp]
  0004e	f3 0f 5e 45 a0	 divss	 xmm0, DWORD PTR tv141[ebp]
  00053	f3 0f 11 45 b0	 movss	 DWORD PTR $T2[ebp], xmm0
  00058	f3 0f 10 05 00
	00 00 00	 movss	 xmm0, DWORD PTR __real@3f800000
  00060	f3 0f 11 45 ac	 movss	 DWORD PTR $T1[ebp], xmm0
  00065	8d 55 b0	 lea	 edx, DWORD PTR $T2[ebp]
  00068	52		 push	 edx
  00069	8d 45 ac	 lea	 eax, DWORD PTR $T1[ebp]
  0006c	50		 push	 eax
  0006d	e8 00 00 00 00	 call	 ??$max@M@std@@YGABMABM0@Z ; std::max<float>
  00072	f3 0f 10 00	 movss	 xmm0, DWORD PTR [eax]
  00076	f3 0f 11 45 f4	 movss	 DWORD PTR _y$[ebp], xmm0

; 2158 : 
; 2159 : 	//set_ui_object_virtual_y_size (list, y);
; 2160 : 	set_ui_object_virtual_y_size (list, 1.0);

  0007b	51		 push	 ecx
  0007c	f3 0f 10 05 00
	00 00 00	 movss	 xmm0, DWORD PTR __real@3f800000
  00084	f3 0f 11 04 24	 movss	 DWORD PTR [esp], xmm0
  00089	8b 45 08	 mov	 eax, DWORD PTR _list$[ebp]
  0008c	50		 push	 eax
  0008d	8b 4d 08	 mov	 ecx, DWORD PTR _list$[ebp]
  00090	8b 11		 mov	 edx, DWORD PTR [ecx]
  00092	8b 04 95 00 00
	00 00		 mov	 eax, DWORD PTR ?fn_set_ui_object_virtual_y_size@@3PAP6GXPAUUI_OBJECT@@M@ZA[edx*4]
  00099	ff d0		 call	 eax

; 2161 : 
; 2162 : 	// resize the slider on the player list
; 2163 : 
; 2164 : 	slider = get_ui_object_vslider (parent);

  0009b	8b 45 fc	 mov	 eax, DWORD PTR _parent$[ebp]
  0009e	50		 push	 eax
  0009f	e8 00 00 00 00	 call	 ?get_ui_object_vslider@@YGPAUUI_OBJECT@@PAU1@@Z ; get_ui_object_vslider
  000a4	89 45 f8	 mov	 DWORD PTR _slider$[ebp], eax

; 2165 : 
; 2166 : 	recalculate_slider_size (slider);

  000a7	8b 45 f8	 mov	 eax, DWORD PTR _slider$[ebp]
  000aa	50		 push	 eax
  000ab	e8 00 00 00 00	 call	 ?recalculate_slider_size@@YGXPAUUI_OBJECT@@@Z ; recalculate_slider_size

; 2167 : 
; 2168 : 	set_ui_object_vslider_virtual_position (slider, 0.0);

  000b0	51		 push	 ecx
  000b1	0f 57 c0	 xorps	 xmm0, xmm0
  000b4	f3 0f 11 04 24	 movss	 DWORD PTR [esp], xmm0
  000b9	8b 45 f8	 mov	 eax, DWORD PTR _slider$[ebp]
  000bc	50		 push	 eax
  000bd	e8 00 00 00 00	 call	 ?set_ui_object_vslider_virtual_position@@YGXPAUUI_OBJECT@@M@Z ; set_ui_object_vslider_virtual_position

; 2169 : }

  000c2	5f		 pop	 edi
  000c3	5e		 pop	 esi
  000c4	5b		 pop	 ebx
  000c5	8b e5		 mov	 esp, ebp
  000c7	5d		 pop	 ebp
  000c8	c2 04 00	 ret	 4
?resize_briefing_list_size@@YGXPAUUI_OBJECT@@@Z ENDP	; resize_briefing_list_size
_TEXT	ENDS
; Function compile flags: /Odtp /ZI
; File c:\users\nhv90\projects\eech\aphavoc\source\ui_menu\ingame\campaign\ca_brief.c
;	COMDAT ?add_briefing_text_to_list@@YGXPAUUI_OBJECT@@PBD@Z
_TEXT	SEGMENT
tv201 = -480						; size = 4
tv213 = -476						; size = 4
tv196 = -472						; size = 4
tv190 = -472						; size = 4
$T1 = -468						; size = 4
_max_string_length$ = -400				; size = 4
_text_ptr$ = -396					; size = 4
_word_ptr$ = -392					; size = 4
_word$ = -388						; size = 128
_temp_text$ = -260					; size = 256
_col$ = -4						; size = 4
_list$ = 8						; size = 4
_text1$ = 12						; size = 4
?add_briefing_text_to_list@@YGXPAUUI_OBJECT@@PBD@Z PROC	; add_briefing_text_to_list, COMDAT

; 2070 : {

  00000	55		 push	 ebp
  00001	8b ec		 mov	 ebp, esp
  00003	81 ec e0 01 00
	00		 sub	 esp, 480		; 000001e0H
  00009	53		 push	 ebx
  0000a	56		 push	 esi
  0000b	57		 push	 edi

; 2071 : 
; 2072 : 	rgb_colour
; 2073 : 		col;
; 2074 : 
; 2075 : 	char
; 2076 : 		temp_text [256],
; 2077 : 		word [128],
; 2078 : 		*word_ptr;
; 2079 : 	const char
; 2080 : 		*text_ptr;
; 2081 : 
; 2082 : 	int
; 2083 : 		max_string_length;
; 2084 : 
; 2085 : 	col = get_ui_object_font_colour (list);

  0000c	8b 45 08	 mov	 eax, DWORD PTR _list$[ebp]
  0000f	50		 push	 eax
  00010	8b 4d 08	 mov	 ecx, DWORD PTR _list$[ebp]
  00013	8b 11		 mov	 edx, DWORD PTR [ecx]
  00015	8b 04 95 00 00
	00 00		 mov	 eax, DWORD PTR ?fn_get_ui_object_font_colour@@3PAP6G?AUREAL_COLOUR@@PAUUI_OBJECT@@@ZA[edx*4]
  0001c	ff d0		 call	 eax
  0001e	89 85 2c fe ff
	ff		 mov	 DWORD PTR $T1[ebp], eax
  00024	8b 8d 2c fe ff
	ff		 mov	 ecx, DWORD PTR $T1[ebp]
  0002a	89 4d fc	 mov	 DWORD PTR _col$[ebp], ecx

; 2086 : 
; 2087 : 	memset (temp_text, 0, sizeof (temp_text));

  0002d	68 00 01 00 00	 push	 256			; 00000100H
  00032	6a 00		 push	 0
  00034	8d 85 fc fe ff
	ff		 lea	 eax, DWORD PTR _temp_text$[ebp]
  0003a	50		 push	 eax
  0003b	e8 00 00 00 00	 call	 _memset
  00040	83 c4 0c	 add	 esp, 12			; 0000000cH

; 2088 : 	memset (word, 0, sizeof (word));

  00043	68 80 00 00 00	 push	 128			; 00000080H
  00048	6a 00		 push	 0
  0004a	8d 85 7c fe ff
	ff		 lea	 eax, DWORD PTR _word$[ebp]
  00050	50		 push	 eax
  00051	e8 00 00 00 00	 call	 _memset
  00056	83 c4 0c	 add	 esp, 12			; 0000000cH

; 2089 : 
; 2090 : 	max_string_length = get_ui_object_x_size (list);

  00059	8b 45 08	 mov	 eax, DWORD PTR _list$[ebp]
  0005c	50		 push	 eax
  0005d	8b 4d 08	 mov	 ecx, DWORD PTR _list$[ebp]
  00060	8b 11		 mov	 edx, DWORD PTR [ecx]
  00062	8b 04 95 00 00
	00 00		 mov	 eax, DWORD PTR ?fn_get_ui_object_x_size@@3PAP6GMPAUUI_OBJECT@@@ZA[edx*4]
  00069	ff d0		 call	 eax
  0006b	e8 00 00 00 00	 call	 __ftol2_sse
  00070	89 85 70 fe ff
	ff		 mov	 DWORD PTR _max_string_length$[ebp], eax

; 2091 : 
; 2092 : 	text_ptr = text1;

  00076	8b 45 0c	 mov	 eax, DWORD PTR _text1$[ebp]
  00079	89 85 74 fe ff
	ff		 mov	 DWORD PTR _text_ptr$[ebp], eax
$LN2@add_briefi:

; 2093 : 
; 2094 : 	while ((*text_ptr != '\0'))

  0007f	8b 85 74 fe ff
	ff		 mov	 eax, DWORD PTR _text_ptr$[ebp]
  00085	0f b6 08	 movzx	 ecx, BYTE PTR [eax]
  00088	85 c9		 test	 ecx, ecx
  0008a	0f 84 46 01 00
	00		 je	 $LN3@add_briefi

; 2095 : 	{
; 2096 : 
; 2097 : 		// get next word
; 2098 : 
; 2099 : 		word_ptr = word;

  00090	8d 85 7c fe ff
	ff		 lea	 eax, DWORD PTR _word$[ebp]
  00096	89 85 78 fe ff
	ff		 mov	 DWORD PTR _word_ptr$[ebp], eax
$LN4@add_briefi:

; 2100 : 
; 2101 : 		while (*text_ptr != '\0')

  0009c	8b 85 74 fe ff
	ff		 mov	 eax, DWORD PTR _text_ptr$[ebp]
  000a2	0f b6 08	 movzx	 ecx, BYTE PTR [eax]
  000a5	85 c9		 test	 ecx, ecx
  000a7	74 40		 je	 SHORT $LN5@add_briefi

; 2102 : 		{
; 2103 : 
; 2104 : 			*word_ptr = *text_ptr;

  000a9	8b 85 78 fe ff
	ff		 mov	 eax, DWORD PTR _word_ptr$[ebp]
  000af	8b 8d 74 fe ff
	ff		 mov	 ecx, DWORD PTR _text_ptr$[ebp]
  000b5	8a 11		 mov	 dl, BYTE PTR [ecx]
  000b7	88 10		 mov	 BYTE PTR [eax], dl

; 2105 : 
; 2106 : 			text_ptr ++;

  000b9	8b 85 74 fe ff
	ff		 mov	 eax, DWORD PTR _text_ptr$[ebp]
  000bf	83 c0 01	 add	 eax, 1
  000c2	89 85 74 fe ff
	ff		 mov	 DWORD PTR _text_ptr$[ebp], eax

; 2107 : 
; 2108 : 			if (*word_ptr == ' ')

  000c8	8b 85 78 fe ff
	ff		 mov	 eax, DWORD PTR _word_ptr$[ebp]
  000ce	0f b6 08	 movzx	 ecx, BYTE PTR [eax]
  000d1	83 f9 20	 cmp	 ecx, 32			; 00000020H
  000d4	75 02		 jne	 SHORT $LN6@add_briefi

; 2109 : 			{
; 2110 : 
; 2111 : 				break;

  000d6	eb 11		 jmp	 SHORT $LN5@add_briefi
$LN6@add_briefi:

; 2112 : 			}
; 2113 : 
; 2114 : 			word_ptr ++;

  000d8	8b 85 78 fe ff
	ff		 mov	 eax, DWORD PTR _word_ptr$[ebp]
  000de	83 c0 01	 add	 eax, 1
  000e1	89 85 78 fe ff
	ff		 mov	 DWORD PTR _word_ptr$[ebp], eax

; 2115 : 		}

  000e7	eb b3		 jmp	 SHORT $LN4@add_briefi
$LN5@add_briefi:

; 2116 : 
; 2117 : 		// check word isn't longer than allowed space (causes an error if so...)
; 2118 : 		ASSERT (ui_get_string_length (word) < max_string_length);

  000e9	8d 85 7c fe ff
	ff		 lea	 eax, DWORD PTR _word$[ebp]
  000ef	50		 push	 eax
  000f0	e8 00 00 00 00	 call	 ?ui_get_string_length@@YGMPBD@Z ; ui_get_string_length
  000f5	d9 9d 28 fe ff
	ff		 fstp	 DWORD PTR tv190[ebp]
  000fb	f3 0f 2a 85 70
	fe ff ff	 cvtsi2ss xmm0, DWORD PTR _max_string_length$[ebp]
  00103	0f 2f 85 28 fe
	ff ff		 comiss	 xmm0, DWORD PTR tv190[ebp]
  0010a	77 18		 ja	 SHORT $LN7@add_briefi
  0010c	a1 00 00 00 00	 mov	 eax, DWORD PTR ?__LINE__Var@?0??add_briefing_text_to_list@@YGXPAUUI_OBJECT@@PBD@Z@4JA
  00111	83 c0 30	 add	 eax, 48			; 00000030H
  00114	50		 push	 eax
  00115	68 00 00 00 00	 push	 OFFSET ??_C@_0EP@NKGPCHE@c?3?2users?2nhv90?2projects?2eech?2ap@
  0011a	68 00 00 00 00	 push	 OFFSET ??_C@_0DA@CMBCHMPL@ui_get_string_length?5?$CIword?$CJ?5?$DM?5m@
  0011f	e8 00 00 00 00	 call	 ?process_assert@@YGXPBD0H@Z ; process_assert
$LN7@add_briefi:

; 2119 : 
; 2120 : 		// check that current string + word fits on line
; 2121 : 		if ((ui_get_string_length (temp_text) + ui_get_string_length (word)) > max_string_length)

  00124	8d 85 fc fe ff
	ff		 lea	 eax, DWORD PTR _temp_text$[ebp]
  0012a	50		 push	 eax
  0012b	e8 00 00 00 00	 call	 ?ui_get_string_length@@YGMPBD@Z ; ui_get_string_length
  00130	d9 9d 28 fe ff
	ff		 fstp	 DWORD PTR tv196[ebp]
  00136	f3 0f 10 85 28
	fe ff ff	 movss	 xmm0, DWORD PTR tv196[ebp]
  0013e	8d 8d 7c fe ff
	ff		 lea	 ecx, DWORD PTR _word$[ebp]
  00144	51		 push	 ecx
  00145	f3 0f 11 85 24
	fe ff ff	 movss	 DWORD PTR tv213[ebp], xmm0
  0014d	e8 00 00 00 00	 call	 ?ui_get_string_length@@YGMPBD@Z ; ui_get_string_length
  00152	d9 9d 20 fe ff
	ff		 fstp	 DWORD PTR tv201[ebp]
  00158	f3 0f 10 85 24
	fe ff ff	 movss	 xmm0, DWORD PTR tv213[ebp]
  00160	f3 0f 58 85 20
	fe ff ff	 addss	 xmm0, DWORD PTR tv201[ebp]
  00168	f3 0f 2a 8d 70
	fe ff ff	 cvtsi2ss xmm1, DWORD PTR _max_string_length$[ebp]
  00170	0f 2f c1	 comiss	 xmm0, xmm1
  00173	76 30		 jbe	 SHORT $LN8@add_briefi

; 2122 : 		{
; 2123 : 
; 2124 : 			// if not display string
; 2125 : 			add_to_pop_up_list (temp_text, list, NULL, 0, -1, col);

  00175	8b 45 fc	 mov	 eax, DWORD PTR _col$[ebp]
  00178	50		 push	 eax
  00179	6a ff		 push	 -1
  0017b	6a 00		 push	 0
  0017d	6a 00		 push	 0
  0017f	8b 4d 08	 mov	 ecx, DWORD PTR _list$[ebp]
  00182	51		 push	 ecx
  00183	8d 95 fc fe ff
	ff		 lea	 edx, DWORD PTR _temp_text$[ebp]
  00189	52		 push	 edx
  0018a	e8 00 00 00 00	 call	 ?add_to_pop_up_list@@YGPAUUI_OBJECT@@PBDPAU1@1HHUREAL_COLOUR@@@Z ; add_to_pop_up_list

; 2126 : 
; 2127 : 			// clear string
; 2128 : 			memset (temp_text, 0, sizeof (temp_text));

  0018f	68 00 01 00 00	 push	 256			; 00000100H
  00194	6a 00		 push	 0
  00196	8d 85 fc fe ff
	ff		 lea	 eax, DWORD PTR _temp_text$[ebp]
  0019c	50		 push	 eax
  0019d	e8 00 00 00 00	 call	 _memset
  001a2	83 c4 0c	 add	 esp, 12			; 0000000cH
$LN8@add_briefi:

; 2129 : 		}
; 2130 : 
; 2131 : 		// add word to string
; 2132 : 		strcat (temp_text, word);

  001a5	8d 85 7c fe ff
	ff		 lea	 eax, DWORD PTR _word$[ebp]
  001ab	50		 push	 eax
  001ac	8d 8d fc fe ff
	ff		 lea	 ecx, DWORD PTR _temp_text$[ebp]
  001b2	51		 push	 ecx
  001b3	e8 00 00 00 00	 call	 _strcat
  001b8	83 c4 08	 add	 esp, 8

; 2133 : 
; 2134 : 		memset (word, 0, sizeof (word));

  001bb	68 80 00 00 00	 push	 128			; 00000080H
  001c0	6a 00		 push	 0
  001c2	8d 85 7c fe ff
	ff		 lea	 eax, DWORD PTR _word$[ebp]
  001c8	50		 push	 eax
  001c9	e8 00 00 00 00	 call	 _memset
  001ce	83 c4 0c	 add	 esp, 12			; 0000000cH

; 2135 : 	}

  001d1	e9 a9 fe ff ff	 jmp	 $LN2@add_briefi
$LN3@add_briefi:

; 2136 : 
; 2137 : 	add_to_pop_up_list (temp_text, list, NULL, 0, -1, col);

  001d6	8b 45 fc	 mov	 eax, DWORD PTR _col$[ebp]
  001d9	50		 push	 eax
  001da	6a ff		 push	 -1
  001dc	6a 00		 push	 0
  001de	6a 00		 push	 0
  001e0	8b 4d 08	 mov	 ecx, DWORD PTR _list$[ebp]
  001e3	51		 push	 ecx
  001e4	8d 95 fc fe ff
	ff		 lea	 edx, DWORD PTR _temp_text$[ebp]
  001ea	52		 push	 edx
  001eb	e8 00 00 00 00	 call	 ?add_to_pop_up_list@@YGPAUUI_OBJECT@@PBDPAU1@1HHUREAL_COLOUR@@@Z ; add_to_pop_up_list

; 2138 : }

  001f0	5f		 pop	 edi
  001f1	5e		 pop	 esi
  001f2	5b		 pop	 ebx
  001f3	8b e5		 mov	 esp, ebp
  001f5	5d		 pop	 ebp
  001f6	c2 08 00	 ret	 8
?add_briefing_text_to_list@@YGXPAUUI_OBJECT@@PBD@Z ENDP	; add_briefing_text_to_list
_TEXT	ENDS
; Function compile flags: /Odtp /ZI
; File c:\users\nhv90\projects\eech\aphavoc\source\ui_menu\ingame\campaign\ca_brief.c
;	COMDAT ?define_campaign_screen_briefing_page_objects@@YGXXZ
_TEXT	SEGMENT
_output$ = -104						; size = 64
_page$ = -40						; size = 4
_yinc$ = -36						; size = 4
_ysize$ = -32						; size = 4
_x_end$ = -28						; size = 4
_x_mid$ = -24						; size = 4
_x_start$ = -20						; size = 4
_y2$ = -16						; size = 4
_x2$ = -12						; size = 4
_y1$ = -8						; size = 4
_x1$ = -4						; size = 4
?define_campaign_screen_briefing_page_objects@@YGXXZ PROC ; define_campaign_screen_briefing_page_objects, COMDAT

; 1176 : {

  00000	55		 push	 ebp
  00001	8b ec		 mov	 ebp, esp
  00003	81 ec a8 00 00
	00		 sub	 esp, 168		; 000000a8H
  00009	53		 push	 ebx
  0000a	56		 push	 esi
  0000b	57		 push	 edi

; 1177 : 	float
; 1178 : 		x1,
; 1179 : 		y1,
; 1180 : 		x2,
; 1181 : 		y2,
; 1182 : 		x_start,
; 1183 : 		x_mid,
; 1184 : 		x_end,
; 1185 : 		ysize,
; 1186 : 		yinc;
; 1187 : 
; 1188 : 	ui_object
; 1189 : 		*page;
; 1190 : 
; 1191 : 	char
; 1192 : 		output [64];
; 1193 : 
; 1194 : 	/////////////////////////////////////////////////////////////////
; 1195 : 	// Main Page Area
; 1196 : 	/////////////////////////////////////////////////////////////////
; 1197 : 
; 1198 : 	x1 = CAMPAIGN_INSET_PAGE_X1;

  0000c	f3 0f 10 05 00
	00 00 00	 movss	 xmm0, DWORD PTR __real@3e6147ae
  00014	f3 0f 11 45 fc	 movss	 DWORD PTR _x1$[ebp], xmm0

; 1199 : 	y1 = CAMPAIGN_INSET_PAGE_Y1;

  00019	f3 0f 10 05 00
	00 00 00	 movss	 xmm0, DWORD PTR __real@3d449ba6
  00021	f3 0f 11 45 f8	 movss	 DWORD PTR _y1$[ebp], xmm0

; 1200 : 	x2 = CAMPAIGN_INSET_PAGE_X2;

  00026	f3 0f 10 05 00
	00 00 00	 movss	 xmm0, DWORD PTR __real@3f800000
  0002e	f3 0f 11 45 f4	 movss	 DWORD PTR _x2$[ebp], xmm0

; 1201 : 	y2 = CAMPAIGN_INSET_PAGE_Y2;

  00033	f3 0f 10 05 00
	00 00 00	 movss	 xmm0, DWORD PTR __real@3f47ae14
  0003b	f3 0f 11 45 f0	 movss	 DWORD PTR _y2$[ebp], xmm0

; 1202 : 
; 1203 : 	campaign_page [CAMPAIGN_PAGE_BRIEFING] = create_ui_object

  00040	6a 11		 push	 17			; 00000011H
  00042	6a 01		 push	 1
  00044	6a 07		 push	 7
  00046	68 00 00 00 00	 push	 OFFSET ?update_briefing_page_objects@@YGXPAUUI_OBJECT@@PAX@Z ; update_briefing_page_objects
  0004b	6a 0f		 push	 15			; 0000000fH
  0004d	6a 00		 push	 0
  0004f	6a 10		 push	 16			; 00000010H
  00051	f3 0f 10 45 f0	 movss	 xmm0, DWORD PTR _y2$[ebp]
  00056	f3 0f 5c 45 f8	 subss	 xmm0, DWORD PTR _y1$[ebp]
  0005b	f3 0f 5a c0	 cvtss2sd xmm0, xmm0
  0005f	83 ec 08	 sub	 esp, 8
  00062	f2 0f 11 04 24	 movsd	 QWORD PTR [esp], xmm0
  00067	f3 0f 10 45 f4	 movss	 xmm0, DWORD PTR _x2$[ebp]
  0006c	f3 0f 5c 45 fc	 subss	 xmm0, DWORD PTR _x1$[ebp]
  00071	f3 0f 5a c0	 cvtss2sd xmm0, xmm0
  00075	83 ec 08	 sub	 esp, 8
  00078	f2 0f 11 04 24	 movsd	 QWORD PTR [esp], xmm0
  0007d	6a 59		 push	 89			; 00000059H
  0007f	f3 0f 5a 45 f8	 cvtss2sd xmm0, DWORD PTR _y1$[ebp]
  00084	83 ec 08	 sub	 esp, 8
  00087	f2 0f 11 04 24	 movsd	 QWORD PTR [esp], xmm0
  0008c	f3 0f 5a 45 fc	 cvtss2sd xmm0, DWORD PTR _x1$[ebp]
  00091	83 ec 08	 sub	 esp, 8
  00094	f2 0f 11 04 24	 movsd	 QWORD PTR [esp], xmm0
  00099	6a 58		 push	 88			; 00000058H
  0009b	6a 03		 push	 3
  0009d	6a 4b		 push	 75			; 0000004bH
  0009f	a1 00 00 00 00	 mov	 eax, DWORD PTR ?campaign_screen@@3PAUUI_OBJECT@@A ; campaign_screen
  000a4	50		 push	 eax
  000a5	6a 32		 push	 50			; 00000032H
  000a7	6a 01		 push	 1
  000a9	e8 00 00 00 00	 call	 ?create_ui_object@@YAPAUUI_OBJECT@@HZZ ; create_ui_object
  000ae	83 c4 58	 add	 esp, 88			; 00000058H
  000b1	b9 04 00 00 00	 mov	 ecx, 4
  000b6	c1 e1 00	 shl	 ecx, 0
  000b9	89 81 00 00 00
	00		 mov	 DWORD PTR ?campaign_page@@3PAPAUUI_OBJECT@@A[ecx], eax

; 1204 : 		(
; 1205 : 			UI_TYPE_AREA,
; 1206 : 			UI_ATTR_PARENT (campaign_screen),
; 1207 : 			UI_ATTR_TEXT_JUSTIFY (TEXT_JUSTIFY_CENTRE_TOP),
; 1208 : 			UI_ATTR_VIRTUAL_POSITION (x1, y1),
; 1209 : 			UI_ATTR_VIRTUAL_SIZE (x2 - x1, y2 - y1),
; 1210 : 			UI_ATTR_DRAWABLE (FALSE),
; 1211 : 			UI_ATTR_DRAW_FUNCTION (update_briefing_page_objects),
; 1212 : 			UI_ATTR_CLEAR (TRUE),
; 1213 : 			UI_ATTR_END
; 1214 : 		);
; 1215 : 
; 1216 : 	page = campaign_page [CAMPAIGN_PAGE_BRIEFING];

  000bf	b8 04 00 00 00	 mov	 eax, 4
  000c4	c1 e0 00	 shl	 eax, 0
  000c7	8b 88 00 00 00
	00		 mov	 ecx, DWORD PTR ?campaign_page@@3PAPAUUI_OBJECT@@A[eax]
  000cd	89 4d d8	 mov	 DWORD PTR _page$[ebp], ecx

; 1217 : 
; 1218 : 	/////////////////////////////////////////////////////////////////
; 1219 : 	// Title
; 1220 : 			
; 1221 : 	x1 = 0.045;

  000d0	f3 0f 10 05 00
	00 00 00	 movss	 xmm0, DWORD PTR __real@3d3851ec
  000d8	f3 0f 11 45 fc	 movss	 DWORD PTR _x1$[ebp], xmm0

; 1222 : 	y1 = 0.045;

  000dd	f3 0f 10 05 00
	00 00 00	 movss	 xmm0, DWORD PTR __real@3d3851ec
  000e5	f3 0f 11 45 f8	 movss	 DWORD PTR _y1$[ebp], xmm0

; 1223 : 	x2 = 0.45;

  000ea	f3 0f 10 05 00
	00 00 00	 movss	 xmm0, DWORD PTR __real@3ee66666
  000f2	f3 0f 11 45 f4	 movss	 DWORD PTR _x2$[ebp], xmm0

; 1224 : 	y2 = 0.085;

  000f7	f3 0f 10 05 00
	00 00 00	 movss	 xmm0, DWORD PTR __real@3dae147b
  000ff	f3 0f 11 45 f0	 movss	 DWORD PTR _y2$[ebp], xmm0

; 1225 : 
; 1226 : 	briefing_page_title = create_ui_object

  00104	6a 11		 push	 17			; 00000011H
  00106	6a 01		 push	 1
  00108	6a 07		 push	 7
  0010a	0f b6 05 03 00
	00 00		 movzx	 eax, BYTE PTR ?ui_ingame_dead_text_colour@@3UREAL_COLOUR@@A+3
  00111	50		 push	 eax
  00112	0f b6 0d 00 00
	00 00		 movzx	 ecx, BYTE PTR ?ui_ingame_dead_text_colour@@3UREAL_COLOUR@@A
  00119	51		 push	 ecx
  0011a	0f b6 15 01 00
	00 00		 movzx	 edx, BYTE PTR ?ui_ingame_dead_text_colour@@3UREAL_COLOUR@@A+1
  00121	52		 push	 edx
  00122	0f b6 05 02 00
	00 00		 movzx	 eax, BYTE PTR ?ui_ingame_dead_text_colour@@3UREAL_COLOUR@@A+2
  00129	50		 push	 eax
  0012a	6a 13		 push	 19			; 00000013H
  0012c	6a 05		 push	 5
  0012e	6a 12		 push	 18			; 00000012H
  00130	6a 01		 push	 1
  00132	6a 4b		 push	 75			; 0000004bH
  00134	f3 0f 10 45 f0	 movss	 xmm0, DWORD PTR _y2$[ebp]
  00139	f3 0f 5c 45 f8	 subss	 xmm0, DWORD PTR _y1$[ebp]
  0013e	f3 0f 5a c0	 cvtss2sd xmm0, xmm0
  00142	83 ec 08	 sub	 esp, 8
  00145	f2 0f 11 04 24	 movsd	 QWORD PTR [esp], xmm0
  0014a	f3 0f 10 45 f4	 movss	 xmm0, DWORD PTR _x2$[ebp]
  0014f	f3 0f 5c 45 fc	 subss	 xmm0, DWORD PTR _x1$[ebp]
  00154	f3 0f 5a c0	 cvtss2sd xmm0, xmm0
  00158	83 ec 08	 sub	 esp, 8
  0015b	f2 0f 11 04 24	 movsd	 QWORD PTR [esp], xmm0
  00160	6a 59		 push	 89			; 00000059H
  00162	f3 0f 5a 45 f8	 cvtss2sd xmm0, DWORD PTR _y1$[ebp]
  00167	83 ec 08	 sub	 esp, 8
  0016a	f2 0f 11 04 24	 movsd	 QWORD PTR [esp], xmm0
  0016f	f3 0f 5a 45 fc	 cvtss2sd xmm0, DWORD PTR _x1$[ebp]
  00174	83 ec 08	 sub	 esp, 8
  00177	f2 0f 11 04 24	 movsd	 QWORD PTR [esp], xmm0
  0017c	6a 58		 push	 88			; 00000058H
  0017e	8b 4d d8	 mov	 ecx, DWORD PTR _page$[ebp]
  00181	51		 push	 ecx
  00182	6a 32		 push	 50			; 00000032H
  00184	6a 01		 push	 1
  00186	e8 00 00 00 00	 call	 ?create_ui_object@@YAPAUUI_OBJECT@@HZZ ; create_ui_object
  0018b	83 c4 64	 add	 esp, 100		; 00000064H
  0018e	a3 00 00 00 00	 mov	 DWORD PTR ?briefing_page_title@@3PAUUI_OBJECT@@A, eax

; 1227 : 		(
; 1228 : 			UI_TYPE_AREA,
; 1229 : 			UI_ATTR_PARENT (page),
; 1230 : 			UI_ATTR_VIRTUAL_POSITION (x1, y1),
; 1231 : 			UI_ATTR_VIRTUAL_SIZE (x2 - x1, y2 - y1),
; 1232 : 			UI_ATTR_TEXT_JUSTIFY (TEXT_JUSTIFY_LEFT_CENTRE),
; 1233 : 			UI_ATTR_FONT_TYPE (UI_FONT_ARIAL_18),
; 1234 : 			UI_ATTR_FONT_COLOUR (ui_ingame_dead_text_colour.r, ui_ingame_dead_text_colour.g, ui_ingame_dead_text_colour.b, ui_ingame_dead_text_colour.a),
; 1235 : 			UI_ATTR_CLEAR (TRUE),
; 1236 : 			UI_ATTR_END
; 1237 : 		);
; 1238 : 
; 1239 : 	x1 = 0.045;

  00193	f3 0f 10 05 00
	00 00 00	 movss	 xmm0, DWORD PTR __real@3d3851ec
  0019b	f3 0f 11 45 fc	 movss	 DWORD PTR _x1$[ebp], xmm0

; 1240 : 	y1 = 0.092;

  001a0	f3 0f 10 05 00
	00 00 00	 movss	 xmm0, DWORD PTR __real@3dbc6a7f
  001a8	f3 0f 11 45 f8	 movss	 DWORD PTR _y1$[ebp], xmm0

; 1241 : 	x2 = 0.45;

  001ad	f3 0f 10 05 00
	00 00 00	 movss	 xmm0, DWORD PTR __real@3ee66666
  001b5	f3 0f 11 45 f4	 movss	 DWORD PTR _x2$[ebp], xmm0

; 1242 : 	y2 = 0.136;

  001ba	f3 0f 10 05 00
	00 00 00	 movss	 xmm0, DWORD PTR __real@3e0b4396
  001c2	f3 0f 11 45 f0	 movss	 DWORD PTR _y2$[ebp], xmm0

; 1243 : 
; 1244 : 	briefing_page_type = create_ui_object

  001c7	6a 11		 push	 17			; 00000011H
  001c9	6a 01		 push	 1
  001cb	6a 07		 push	 7
  001cd	0f b6 05 03 00
	00 00		 movzx	 eax, BYTE PTR ?ui_ingame_dead_text_colour@@3UREAL_COLOUR@@A+3
  001d4	50		 push	 eax
  001d5	0f b6 0d 00 00
	00 00		 movzx	 ecx, BYTE PTR ?ui_ingame_dead_text_colour@@3UREAL_COLOUR@@A
  001dc	51		 push	 ecx
  001dd	0f b6 15 01 00
	00 00		 movzx	 edx, BYTE PTR ?ui_ingame_dead_text_colour@@3UREAL_COLOUR@@A+1
  001e4	52		 push	 edx
  001e5	0f b6 05 02 00
	00 00		 movzx	 eax, BYTE PTR ?ui_ingame_dead_text_colour@@3UREAL_COLOUR@@A+2
  001ec	50		 push	 eax
  001ed	6a 13		 push	 19			; 00000013H
  001ef	6a 03		 push	 3
  001f1	6a 12		 push	 18			; 00000012H
  001f3	6a 01		 push	 1
  001f5	6a 4b		 push	 75			; 0000004bH
  001f7	f3 0f 10 45 f0	 movss	 xmm0, DWORD PTR _y2$[ebp]
  001fc	f3 0f 5c 45 f8	 subss	 xmm0, DWORD PTR _y1$[ebp]
  00201	f3 0f 5a c0	 cvtss2sd xmm0, xmm0
  00205	83 ec 08	 sub	 esp, 8
  00208	f2 0f 11 04 24	 movsd	 QWORD PTR [esp], xmm0
  0020d	f3 0f 10 45 f4	 movss	 xmm0, DWORD PTR _x2$[ebp]
  00212	f3 0f 5c 45 fc	 subss	 xmm0, DWORD PTR _x1$[ebp]
  00217	f3 0f 5a c0	 cvtss2sd xmm0, xmm0
  0021b	83 ec 08	 sub	 esp, 8
  0021e	f2 0f 11 04 24	 movsd	 QWORD PTR [esp], xmm0
  00223	6a 59		 push	 89			; 00000059H
  00225	f3 0f 5a 45 f8	 cvtss2sd xmm0, DWORD PTR _y1$[ebp]
  0022a	83 ec 08	 sub	 esp, 8
  0022d	f2 0f 11 04 24	 movsd	 QWORD PTR [esp], xmm0
  00232	f3 0f 5a 45 fc	 cvtss2sd xmm0, DWORD PTR _x1$[ebp]
  00237	83 ec 08	 sub	 esp, 8
  0023a	f2 0f 11 04 24	 movsd	 QWORD PTR [esp], xmm0
  0023f	6a 58		 push	 88			; 00000058H
  00241	8b 4d d8	 mov	 ecx, DWORD PTR _page$[ebp]
  00244	51		 push	 ecx
  00245	6a 32		 push	 50			; 00000032H
  00247	6a 01		 push	 1
  00249	e8 00 00 00 00	 call	 ?create_ui_object@@YAPAUUI_OBJECT@@HZZ ; create_ui_object
  0024e	83 c4 64	 add	 esp, 100		; 00000064H
  00251	a3 00 00 00 00	 mov	 DWORD PTR ?briefing_page_type@@3PAUUI_OBJECT@@A, eax

; 1245 : 		(
; 1246 : 			UI_TYPE_AREA,
; 1247 : 			UI_ATTR_PARENT (page),
; 1248 : 			UI_ATTR_VIRTUAL_POSITION (x1, y1),
; 1249 : 			UI_ATTR_VIRTUAL_SIZE (x2 - x1, y2 - y1),
; 1250 : 			UI_ATTR_TEXT_JUSTIFY (TEXT_JUSTIFY_LEFT_CENTRE),
; 1251 : 			UI_ATTR_FONT_TYPE (UI_FONT_ARIAL_16),
; 1252 : 			UI_ATTR_FONT_COLOUR (ui_ingame_dead_text_colour.r, ui_ingame_dead_text_colour.g, ui_ingame_dead_text_colour.b, ui_ingame_dead_text_colour.a),
; 1253 : 			UI_ATTR_CLEAR (TRUE),
; 1254 : 			UI_ATTR_END
; 1255 : 		);
; 1256 : 
; 1257 : 	/////////////////////////////////////////////////////////////////
; 1258 : 
; 1259 : 	x_start = 0.024;

  00256	f3 0f 10 05 00
	00 00 00	 movss	 xmm0, DWORD PTR __real@3cc49ba6
  0025e	f3 0f 11 45 ec	 movss	 DWORD PTR _x_start$[ebp], xmm0

; 1260 : 
; 1261 : 	x_mid = 0.224;

  00263	f3 0f 10 05 00
	00 00 00	 movss	 xmm0, DWORD PTR __real@3e656042
  0026b	f3 0f 11 45 e8	 movss	 DWORD PTR _x_mid$[ebp], xmm0

; 1262 : 
; 1263 : 	x_end = 0.464;

  00270	f3 0f 10 05 00
	00 00 00	 movss	 xmm0, DWORD PTR __real@3eed9168
  00278	f3 0f 11 45 e4	 movss	 DWORD PTR _x_end$[ebp], xmm0

; 1264 : 	
; 1265 : 	ysize = 0.04;

  0027d	f3 0f 10 05 00
	00 00 00	 movss	 xmm0, DWORD PTR __real@3d23d70a
  00285	f3 0f 11 45 e0	 movss	 DWORD PTR _ysize$[ebp], xmm0

; 1266 : 
; 1267 : 	yinc = 0.045;

  0028a	f3 0f 10 05 00
	00 00 00	 movss	 xmm0, DWORD PTR __real@3d3851ec
  00292	f3 0f 11 45 dc	 movss	 DWORD PTR _yinc$[ebp], xmm0

; 1268 : 
; 1269 : 	/////////////////////////////////////////////////////////////////
; 1270 : 	// Task Status Box 
; 1271 : 
; 1272 : 	x1 = x_start;

  00297	f3 0f 10 45 ec	 movss	 xmm0, DWORD PTR _x_start$[ebp]
  0029c	f3 0f 11 45 fc	 movss	 DWORD PTR _x1$[ebp], xmm0

; 1273 : 	y1 = 0.178;

  002a1	f3 0f 10 05 00
	00 00 00	 movss	 xmm0, DWORD PTR __real@3e3645a2
  002a9	f3 0f 11 45 f8	 movss	 DWORD PTR _y1$[ebp], xmm0

; 1274 : 	x2 = x_mid;

  002ae	f3 0f 10 45 e8	 movss	 xmm0, DWORD PTR _x_mid$[ebp]
  002b3	f3 0f 11 45 f4	 movss	 DWORD PTR _x2$[ebp], xmm0

; 1275 : 	y2 = y1 + ysize;

  002b8	f3 0f 10 45 f8	 movss	 xmm0, DWORD PTR _y1$[ebp]
  002bd	f3 0f 58 45 e0	 addss	 xmm0, DWORD PTR _ysize$[ebp]
  002c2	f3 0f 11 45 f0	 movss	 DWORD PTR _y2$[ebp], xmm0

; 1276 : 
; 1277 : 	sprintf (output, "%s :  ", get_trans ("Status"));

  002c7	68 00 00 00 00	 push	 OFFSET ??_C@_06PGDKHFME@Status@
  002cc	e8 00 00 00 00	 call	 ?get_trans@@YGPBDPBD@Z	; get_trans
  002d1	50		 push	 eax
  002d2	68 00 00 00 00	 push	 OFFSET ??_C@_06IBDOBMFG@?$CFs?5?3?5?5@
  002d7	8d 45 98	 lea	 eax, DWORD PTR _output$[ebp]
  002da	50		 push	 eax
  002db	e8 00 00 00 00	 call	 _sprintf
  002e0	83 c4 0c	 add	 esp, 12			; 0000000cH

; 1278 : 			
; 1279 : 	create_ui_object

  002e3	6a 11		 push	 17			; 00000011H
  002e5	6a 01		 push	 1
  002e7	6a 07		 push	 7
  002e9	0f b6 05 03 00
	00 00		 movzx	 eax, BYTE PTR ?ui_ingame_dead_text_colour@@3UREAL_COLOUR@@A+3
  002f0	50		 push	 eax
  002f1	0f b6 0d 00 00
	00 00		 movzx	 ecx, BYTE PTR ?ui_ingame_dead_text_colour@@3UREAL_COLOUR@@A
  002f8	51		 push	 ecx
  002f9	0f b6 15 01 00
	00 00		 movzx	 edx, BYTE PTR ?ui_ingame_dead_text_colour@@3UREAL_COLOUR@@A+1
  00300	52		 push	 edx
  00301	0f b6 05 02 00
	00 00		 movzx	 eax, BYTE PTR ?ui_ingame_dead_text_colour@@3UREAL_COLOUR@@A+2
  00308	50		 push	 eax
  00309	6a 13		 push	 19			; 00000013H
  0030b	6a 00		 push	 0
  0030d	6a 12		 push	 18			; 00000012H
  0030f	6a 02		 push	 2
  00311	6a 4b		 push	 75			; 0000004bH
  00313	8d 4d 98	 lea	 ecx, DWORD PTR _output$[ebp]
  00316	51		 push	 ecx
  00317	6a 4a		 push	 74			; 0000004aH
  00319	f3 0f 10 45 f0	 movss	 xmm0, DWORD PTR _y2$[ebp]
  0031e	f3 0f 5c 45 f8	 subss	 xmm0, DWORD PTR _y1$[ebp]
  00323	f3 0f 5a c0	 cvtss2sd xmm0, xmm0
  00327	83 ec 08	 sub	 esp, 8
  0032a	f2 0f 11 04 24	 movsd	 QWORD PTR [esp], xmm0
  0032f	f3 0f 10 45 f4	 movss	 xmm0, DWORD PTR _x2$[ebp]
  00334	f3 0f 5c 45 fc	 subss	 xmm0, DWORD PTR _x1$[ebp]
  00339	f3 0f 5a c0	 cvtss2sd xmm0, xmm0
  0033d	83 ec 08	 sub	 esp, 8
  00340	f2 0f 11 04 24	 movsd	 QWORD PTR [esp], xmm0
  00345	6a 59		 push	 89			; 00000059H
  00347	f3 0f 5a 45 f8	 cvtss2sd xmm0, DWORD PTR _y1$[ebp]
  0034c	83 ec 08	 sub	 esp, 8
  0034f	f2 0f 11 04 24	 movsd	 QWORD PTR [esp], xmm0
  00354	f3 0f 5a 45 fc	 cvtss2sd xmm0, DWORD PTR _x1$[ebp]
  00359	83 ec 08	 sub	 esp, 8
  0035c	f2 0f 11 04 24	 movsd	 QWORD PTR [esp], xmm0
  00361	6a 58		 push	 88			; 00000058H
  00363	8b 55 d8	 mov	 edx, DWORD PTR _page$[ebp]
  00366	52		 push	 edx
  00367	6a 32		 push	 50			; 00000032H
  00369	6a 01		 push	 1
  0036b	e8 00 00 00 00	 call	 ?create_ui_object@@YAPAUUI_OBJECT@@HZZ ; create_ui_object
  00370	83 c4 6c	 add	 esp, 108		; 0000006cH

; 1280 : 			(
; 1281 : 				UI_TYPE_AREA,
; 1282 : 				UI_ATTR_PARENT (page),
; 1283 : 				UI_ATTR_VIRTUAL_POSITION (x1, y1),
; 1284 : 				UI_ATTR_VIRTUAL_SIZE (x2 - x1, y2 - y1),
; 1285 : 				UI_ATTR_TEXT (output),
; 1286 : 				UI_ATTR_TEXT_JUSTIFY (TEXT_JUSTIFY_RIGHT_CENTRE),
; 1287 : 				UI_ATTR_FONT_TYPE (UI_FONT_ARIAL_10),
; 1288 : 				UI_ATTR_FONT_COLOUR (ui_ingame_dead_text_colour.r, ui_ingame_dead_text_colour.g, ui_ingame_dead_text_colour.b, ui_ingame_dead_text_colour.a),
; 1289 : 				UI_ATTR_CLEAR (TRUE),
; 1290 : 				UI_ATTR_END
; 1291 : 			);
; 1292 : 
; 1293 : 	x1 = x_mid;

  00373	f3 0f 10 45 e8	 movss	 xmm0, DWORD PTR _x_mid$[ebp]
  00378	f3 0f 11 45 fc	 movss	 DWORD PTR _x1$[ebp], xmm0

; 1294 : 	x2 = x_end;

  0037d	f3 0f 10 45 e4	 movss	 xmm0, DWORD PTR _x_end$[ebp]
  00382	f3 0f 11 45 f4	 movss	 DWORD PTR _x2$[ebp], xmm0

; 1295 : 
; 1296 : 	briefing_page_status_box = create_ui_object

  00387	6a 11		 push	 17			; 00000011H
  00389	6a 01		 push	 1
  0038b	6a 07		 push	 7
  0038d	0f b6 05 03 00
	00 00		 movzx	 eax, BYTE PTR ?ui_ingame_dead_text_colour@@3UREAL_COLOUR@@A+3
  00394	50		 push	 eax
  00395	0f b6 0d 00 00
	00 00		 movzx	 ecx, BYTE PTR ?ui_ingame_dead_text_colour@@3UREAL_COLOUR@@A
  0039c	51		 push	 ecx
  0039d	0f b6 15 01 00
	00 00		 movzx	 edx, BYTE PTR ?ui_ingame_dead_text_colour@@3UREAL_COLOUR@@A+1
  003a4	52		 push	 edx
  003a5	0f b6 05 02 00
	00 00		 movzx	 eax, BYTE PTR ?ui_ingame_dead_text_colour@@3UREAL_COLOUR@@A+2
  003ac	50		 push	 eax
  003ad	6a 13		 push	 19			; 00000013H
  003af	6a 00		 push	 0
  003b1	6a 12		 push	 18			; 00000012H
  003b3	6a 01		 push	 1
  003b5	6a 4b		 push	 75			; 0000004bH
  003b7	68 00 00 00 00	 push	 OFFSET ??_C@_00CNPNBAHC@@
  003bc	6a 4a		 push	 74			; 0000004aH
  003be	f3 0f 10 45 f0	 movss	 xmm0, DWORD PTR _y2$[ebp]
  003c3	f3 0f 5c 45 f8	 subss	 xmm0, DWORD PTR _y1$[ebp]
  003c8	f3 0f 5a c0	 cvtss2sd xmm0, xmm0
  003cc	83 ec 08	 sub	 esp, 8
  003cf	f2 0f 11 04 24	 movsd	 QWORD PTR [esp], xmm0
  003d4	f3 0f 10 45 f4	 movss	 xmm0, DWORD PTR _x2$[ebp]
  003d9	f3 0f 5c 45 fc	 subss	 xmm0, DWORD PTR _x1$[ebp]
  003de	f3 0f 5a c0	 cvtss2sd xmm0, xmm0
  003e2	83 ec 08	 sub	 esp, 8
  003e5	f2 0f 11 04 24	 movsd	 QWORD PTR [esp], xmm0
  003ea	6a 59		 push	 89			; 00000059H
  003ec	f3 0f 5a 45 f8	 cvtss2sd xmm0, DWORD PTR _y1$[ebp]
  003f1	83 ec 08	 sub	 esp, 8
  003f4	f2 0f 11 04 24	 movsd	 QWORD PTR [esp], xmm0
  003f9	f3 0f 5a 45 fc	 cvtss2sd xmm0, DWORD PTR _x1$[ebp]
  003fe	83 ec 08	 sub	 esp, 8
  00401	f2 0f 11 04 24	 movsd	 QWORD PTR [esp], xmm0
  00406	6a 58		 push	 88			; 00000058H
  00408	8b 4d d8	 mov	 ecx, DWORD PTR _page$[ebp]
  0040b	51		 push	 ecx
  0040c	6a 32		 push	 50			; 00000032H
  0040e	6a 01		 push	 1
  00410	e8 00 00 00 00	 call	 ?create_ui_object@@YAPAUUI_OBJECT@@HZZ ; create_ui_object
  00415	83 c4 6c	 add	 esp, 108		; 0000006cH
  00418	a3 00 00 00 00	 mov	 DWORD PTR ?briefing_page_status_box@@3PAUUI_OBJECT@@A, eax

; 1297 : 			(
; 1298 : 				UI_TYPE_AREA,
; 1299 : 				UI_ATTR_PARENT (page),
; 1300 : 				UI_ATTR_VIRTUAL_POSITION (x1, y1),
; 1301 : 				UI_ATTR_VIRTUAL_SIZE (x2 - x1, y2 - y1),
; 1302 : 				UI_ATTR_TEXT (""),
; 1303 : 				UI_ATTR_TEXT_JUSTIFY (TEXT_JUSTIFY_LEFT_CENTRE),
; 1304 : 				UI_ATTR_FONT_TYPE (UI_FONT_ARIAL_10),
; 1305 : 				UI_ATTR_FONT_COLOUR (ui_ingame_dead_text_colour.r, ui_ingame_dead_text_colour.g, ui_ingame_dead_text_colour.b, ui_ingame_dead_text_colour.a),
; 1306 : 				UI_ATTR_CLEAR (TRUE),
; 1307 : 				UI_ATTR_END
; 1308 : 			);
; 1309 : 
; 1310 : 	/////////////////////////////////////////////////////////////////
; 1311 : 	// Expire Time Box
; 1312 : 
; 1313 : 	x1 = x_start;

  0041d	f3 0f 10 45 ec	 movss	 xmm0, DWORD PTR _x_start$[ebp]
  00422	f3 0f 11 45 fc	 movss	 DWORD PTR _x1$[ebp], xmm0

; 1314 : 	x2 = x_mid;

  00427	f3 0f 10 45 e8	 movss	 xmm0, DWORD PTR _x_mid$[ebp]
  0042c	f3 0f 11 45 f4	 movss	 DWORD PTR _x2$[ebp], xmm0

; 1315 : 
; 1316 : 	y1 += yinc;

  00431	f3 0f 10 45 f8	 movss	 xmm0, DWORD PTR _y1$[ebp]
  00436	f3 0f 58 45 dc	 addss	 xmm0, DWORD PTR _yinc$[ebp]
  0043b	f3 0f 11 45 f8	 movss	 DWORD PTR _y1$[ebp], xmm0

; 1317 : 	y2 = y1 + ysize;

  00440	f3 0f 10 45 f8	 movss	 xmm0, DWORD PTR _y1$[ebp]
  00445	f3 0f 58 45 e0	 addss	 xmm0, DWORD PTR _ysize$[ebp]
  0044a	f3 0f 11 45 f0	 movss	 DWORD PTR _y2$[ebp], xmm0

; 1318 : 
; 1319 : 	sprintf (output, "%s :  ", get_trans ("Expires"));

  0044f	68 00 00 00 00	 push	 OFFSET ??_C@_07DABPCBEH@Expires@
  00454	e8 00 00 00 00	 call	 ?get_trans@@YGPBDPBD@Z	; get_trans
  00459	50		 push	 eax
  0045a	68 00 00 00 00	 push	 OFFSET ??_C@_06IBDOBMFG@?$CFs?5?3?5?5@
  0045f	8d 45 98	 lea	 eax, DWORD PTR _output$[ebp]
  00462	50		 push	 eax
  00463	e8 00 00 00 00	 call	 _sprintf
  00468	83 c4 0c	 add	 esp, 12			; 0000000cH

; 1320 : 			
; 1321 : 	briefing_page_expire_elapsed_text_box = create_ui_object

  0046b	6a 11		 push	 17			; 00000011H
  0046d	6a 01		 push	 1
  0046f	6a 07		 push	 7
  00471	0f b6 05 03 00
	00 00		 movzx	 eax, BYTE PTR ?ui_ingame_dead_text_colour@@3UREAL_COLOUR@@A+3
  00478	50		 push	 eax
  00479	0f b6 0d 00 00
	00 00		 movzx	 ecx, BYTE PTR ?ui_ingame_dead_text_colour@@3UREAL_COLOUR@@A
  00480	51		 push	 ecx
  00481	0f b6 15 01 00
	00 00		 movzx	 edx, BYTE PTR ?ui_ingame_dead_text_colour@@3UREAL_COLOUR@@A+1
  00488	52		 push	 edx
  00489	0f b6 05 02 00
	00 00		 movzx	 eax, BYTE PTR ?ui_ingame_dead_text_colour@@3UREAL_COLOUR@@A+2
  00490	50		 push	 eax
  00491	6a 13		 push	 19			; 00000013H
  00493	6a 00		 push	 0
  00495	6a 12		 push	 18			; 00000012H
  00497	6a 02		 push	 2
  00499	6a 4b		 push	 75			; 0000004bH
  0049b	8d 4d 98	 lea	 ecx, DWORD PTR _output$[ebp]
  0049e	51		 push	 ecx
  0049f	6a 4a		 push	 74			; 0000004aH
  004a1	f3 0f 10 45 f0	 movss	 xmm0, DWORD PTR _y2$[ebp]
  004a6	f3 0f 5c 45 f8	 subss	 xmm0, DWORD PTR _y1$[ebp]
  004ab	f3 0f 5a c0	 cvtss2sd xmm0, xmm0
  004af	83 ec 08	 sub	 esp, 8
  004b2	f2 0f 11 04 24	 movsd	 QWORD PTR [esp], xmm0
  004b7	f3 0f 10 45 f4	 movss	 xmm0, DWORD PTR _x2$[ebp]
  004bc	f3 0f 5c 45 fc	 subss	 xmm0, DWORD PTR _x1$[ebp]
  004c1	f3 0f 5a c0	 cvtss2sd xmm0, xmm0
  004c5	83 ec 08	 sub	 esp, 8
  004c8	f2 0f 11 04 24	 movsd	 QWORD PTR [esp], xmm0
  004cd	6a 59		 push	 89			; 00000059H
  004cf	f3 0f 5a 45 f8	 cvtss2sd xmm0, DWORD PTR _y1$[ebp]
  004d4	83 ec 08	 sub	 esp, 8
  004d7	f2 0f 11 04 24	 movsd	 QWORD PTR [esp], xmm0
  004dc	f3 0f 5a 45 fc	 cvtss2sd xmm0, DWORD PTR _x1$[ebp]
  004e1	83 ec 08	 sub	 esp, 8
  004e4	f2 0f 11 04 24	 movsd	 QWORD PTR [esp], xmm0
  004e9	6a 58		 push	 88			; 00000058H
  004eb	8b 55 d8	 mov	 edx, DWORD PTR _page$[ebp]
  004ee	52		 push	 edx
  004ef	6a 32		 push	 50			; 00000032H
  004f1	6a 01		 push	 1
  004f3	e8 00 00 00 00	 call	 ?create_ui_object@@YAPAUUI_OBJECT@@HZZ ; create_ui_object
  004f8	83 c4 6c	 add	 esp, 108		; 0000006cH
  004fb	a3 00 00 00 00	 mov	 DWORD PTR ?briefing_page_expire_elapsed_text_box@@3PAUUI_OBJECT@@A, eax

; 1322 : 			(
; 1323 : 				UI_TYPE_AREA,
; 1324 : 				UI_ATTR_PARENT (page),
; 1325 : 				UI_ATTR_VIRTUAL_POSITION (x1, y1),
; 1326 : 				UI_ATTR_VIRTUAL_SIZE (x2 - x1, y2 - y1),
; 1327 : 				UI_ATTR_TEXT (output),
; 1328 : 				UI_ATTR_TEXT_JUSTIFY (TEXT_JUSTIFY_RIGHT_CENTRE),
; 1329 : 				UI_ATTR_FONT_TYPE (UI_FONT_ARIAL_10),
; 1330 : 				UI_ATTR_FONT_COLOUR (ui_ingame_dead_text_colour.r, ui_ingame_dead_text_colour.g, ui_ingame_dead_text_colour.b, ui_ingame_dead_text_colour.a),
; 1331 : 				UI_ATTR_CLEAR (TRUE),
; 1332 : 				UI_ATTR_END
; 1333 : 			);
; 1334 : 
; 1335 : 	x1 = x_mid;

  00500	f3 0f 10 45 e8	 movss	 xmm0, DWORD PTR _x_mid$[ebp]
  00505	f3 0f 11 45 fc	 movss	 DWORD PTR _x1$[ebp], xmm0

; 1336 : 	x2 = x_end;

  0050a	f3 0f 10 45 e4	 movss	 xmm0, DWORD PTR _x_end$[ebp]
  0050f	f3 0f 11 45 f4	 movss	 DWORD PTR _x2$[ebp], xmm0

; 1337 : 
; 1338 : 	briefing_page_expire_time_box = create_ui_object

  00514	6a 11		 push	 17			; 00000011H
  00516	6a 01		 push	 1
  00518	6a 07		 push	 7
  0051a	0f b6 05 03 00
	00 00		 movzx	 eax, BYTE PTR ?ui_ingame_dead_text_colour@@3UREAL_COLOUR@@A+3
  00521	50		 push	 eax
  00522	0f b6 0d 00 00
	00 00		 movzx	 ecx, BYTE PTR ?ui_ingame_dead_text_colour@@3UREAL_COLOUR@@A
  00529	51		 push	 ecx
  0052a	0f b6 15 01 00
	00 00		 movzx	 edx, BYTE PTR ?ui_ingame_dead_text_colour@@3UREAL_COLOUR@@A+1
  00531	52		 push	 edx
  00532	0f b6 05 02 00
	00 00		 movzx	 eax, BYTE PTR ?ui_ingame_dead_text_colour@@3UREAL_COLOUR@@A+2
  00539	50		 push	 eax
  0053a	6a 13		 push	 19			; 00000013H
  0053c	6a 00		 push	 0
  0053e	6a 12		 push	 18			; 00000012H
  00540	6a 01		 push	 1
  00542	6a 4b		 push	 75			; 0000004bH
  00544	68 00 00 00 00	 push	 OFFSET ??_C@_00CNPNBAHC@@
  00549	6a 4a		 push	 74			; 0000004aH
  0054b	f3 0f 10 45 f0	 movss	 xmm0, DWORD PTR _y2$[ebp]
  00550	f3 0f 5c 45 f8	 subss	 xmm0, DWORD PTR _y1$[ebp]
  00555	f3 0f 5a c0	 cvtss2sd xmm0, xmm0
  00559	83 ec 08	 sub	 esp, 8
  0055c	f2 0f 11 04 24	 movsd	 QWORD PTR [esp], xmm0
  00561	f3 0f 10 45 f4	 movss	 xmm0, DWORD PTR _x2$[ebp]
  00566	f3 0f 5c 45 fc	 subss	 xmm0, DWORD PTR _x1$[ebp]
  0056b	f3 0f 5a c0	 cvtss2sd xmm0, xmm0
  0056f	83 ec 08	 sub	 esp, 8
  00572	f2 0f 11 04 24	 movsd	 QWORD PTR [esp], xmm0
  00577	6a 59		 push	 89			; 00000059H
  00579	f3 0f 5a 45 f8	 cvtss2sd xmm0, DWORD PTR _y1$[ebp]
  0057e	83 ec 08	 sub	 esp, 8
  00581	f2 0f 11 04 24	 movsd	 QWORD PTR [esp], xmm0
  00586	f3 0f 5a 45 fc	 cvtss2sd xmm0, DWORD PTR _x1$[ebp]
  0058b	83 ec 08	 sub	 esp, 8
  0058e	f2 0f 11 04 24	 movsd	 QWORD PTR [esp], xmm0
  00593	6a 58		 push	 88			; 00000058H
  00595	8b 4d d8	 mov	 ecx, DWORD PTR _page$[ebp]
  00598	51		 push	 ecx
  00599	6a 32		 push	 50			; 00000032H
  0059b	6a 01		 push	 1
  0059d	e8 00 00 00 00	 call	 ?create_ui_object@@YAPAUUI_OBJECT@@HZZ ; create_ui_object
  005a2	83 c4 6c	 add	 esp, 108		; 0000006cH
  005a5	a3 00 00 00 00	 mov	 DWORD PTR ?briefing_page_expire_time_box@@3PAUUI_OBJECT@@A, eax

; 1339 : 			(
; 1340 : 				UI_TYPE_AREA,
; 1341 : 				UI_ATTR_PARENT (page),
; 1342 : 				UI_ATTR_VIRTUAL_POSITION (x1, y1),
; 1343 : 				UI_ATTR_VIRTUAL_SIZE (x2 - x1, y2 - y1),
; 1344 : 				UI_ATTR_TEXT (""),
; 1345 : 				UI_ATTR_TEXT_JUSTIFY (TEXT_JUSTIFY_LEFT_CENTRE),
; 1346 : 				UI_ATTR_FONT_TYPE (UI_FONT_ARIAL_10),
; 1347 : 				UI_ATTR_FONT_COLOUR (ui_ingame_dead_text_colour.r, ui_ingame_dead_text_colour.g, ui_ingame_dead_text_colour.b, ui_ingame_dead_text_colour.a),
; 1348 : 				UI_ATTR_CLEAR (TRUE),
; 1349 : 				UI_ATTR_END
; 1350 : 			);
; 1351 : 
; 1352 : 	/////////////////////////////////////////////////////////////////
; 1353 : 	// Duration Time 
; 1354 : 
; 1355 : 	x1 = x_start;

  005aa	f3 0f 10 45 ec	 movss	 xmm0, DWORD PTR _x_start$[ebp]
  005af	f3 0f 11 45 fc	 movss	 DWORD PTR _x1$[ebp], xmm0

; 1356 : 	x2 = x_mid;

  005b4	f3 0f 10 45 e8	 movss	 xmm0, DWORD PTR _x_mid$[ebp]
  005b9	f3 0f 11 45 f4	 movss	 DWORD PTR _x2$[ebp], xmm0

; 1357 : 
; 1358 : 	y1 += yinc;

  005be	f3 0f 10 45 f8	 movss	 xmm0, DWORD PTR _y1$[ebp]
  005c3	f3 0f 58 45 dc	 addss	 xmm0, DWORD PTR _yinc$[ebp]
  005c8	f3 0f 11 45 f8	 movss	 DWORD PTR _y1$[ebp], xmm0

; 1359 : 	y2 = y1 + ysize;

  005cd	f3 0f 10 45 f8	 movss	 xmm0, DWORD PTR _y1$[ebp]
  005d2	f3 0f 58 45 e0	 addss	 xmm0, DWORD PTR _ysize$[ebp]
  005d7	f3 0f 11 45 f0	 movss	 DWORD PTR _y2$[ebp], xmm0

; 1360 : 
; 1361 : 	sprintf (output, "%s :  ", get_trans ("Est. Duration"));

  005dc	68 00 00 00 00	 push	 OFFSET ??_C@_0O@HNIDPGNE@Est?4?5Duration@
  005e1	e8 00 00 00 00	 call	 ?get_trans@@YGPBDPBD@Z	; get_trans
  005e6	50		 push	 eax
  005e7	68 00 00 00 00	 push	 OFFSET ??_C@_06IBDOBMFG@?$CFs?5?3?5?5@
  005ec	8d 45 98	 lea	 eax, DWORD PTR _output$[ebp]
  005ef	50		 push	 eax
  005f0	e8 00 00 00 00	 call	 _sprintf
  005f5	83 c4 0c	 add	 esp, 12			; 0000000cH

; 1362 : 			
; 1363 : 	create_ui_object

  005f8	6a 11		 push	 17			; 00000011H
  005fa	6a 01		 push	 1
  005fc	6a 07		 push	 7
  005fe	0f b6 05 03 00
	00 00		 movzx	 eax, BYTE PTR ?ui_ingame_dead_text_colour@@3UREAL_COLOUR@@A+3
  00605	50		 push	 eax
  00606	0f b6 0d 00 00
	00 00		 movzx	 ecx, BYTE PTR ?ui_ingame_dead_text_colour@@3UREAL_COLOUR@@A
  0060d	51		 push	 ecx
  0060e	0f b6 15 01 00
	00 00		 movzx	 edx, BYTE PTR ?ui_ingame_dead_text_colour@@3UREAL_COLOUR@@A+1
  00615	52		 push	 edx
  00616	0f b6 05 02 00
	00 00		 movzx	 eax, BYTE PTR ?ui_ingame_dead_text_colour@@3UREAL_COLOUR@@A+2
  0061d	50		 push	 eax
  0061e	6a 13		 push	 19			; 00000013H
  00620	6a 00		 push	 0
  00622	6a 12		 push	 18			; 00000012H
  00624	6a 02		 push	 2
  00626	6a 4b		 push	 75			; 0000004bH
  00628	8d 4d 98	 lea	 ecx, DWORD PTR _output$[ebp]
  0062b	51		 push	 ecx
  0062c	6a 4a		 push	 74			; 0000004aH
  0062e	f3 0f 10 45 f0	 movss	 xmm0, DWORD PTR _y2$[ebp]
  00633	f3 0f 5c 45 f8	 subss	 xmm0, DWORD PTR _y1$[ebp]
  00638	f3 0f 5a c0	 cvtss2sd xmm0, xmm0
  0063c	83 ec 08	 sub	 esp, 8
  0063f	f2 0f 11 04 24	 movsd	 QWORD PTR [esp], xmm0
  00644	f3 0f 10 45 f4	 movss	 xmm0, DWORD PTR _x2$[ebp]
  00649	f3 0f 5c 45 fc	 subss	 xmm0, DWORD PTR _x1$[ebp]
  0064e	f3 0f 5a c0	 cvtss2sd xmm0, xmm0
  00652	83 ec 08	 sub	 esp, 8
  00655	f2 0f 11 04 24	 movsd	 QWORD PTR [esp], xmm0
  0065a	6a 59		 push	 89			; 00000059H
  0065c	f3 0f 5a 45 f8	 cvtss2sd xmm0, DWORD PTR _y1$[ebp]
  00661	83 ec 08	 sub	 esp, 8
  00664	f2 0f 11 04 24	 movsd	 QWORD PTR [esp], xmm0
  00669	f3 0f 5a 45 fc	 cvtss2sd xmm0, DWORD PTR _x1$[ebp]
  0066e	83 ec 08	 sub	 esp, 8
  00671	f2 0f 11 04 24	 movsd	 QWORD PTR [esp], xmm0
  00676	6a 58		 push	 88			; 00000058H
  00678	8b 55 d8	 mov	 edx, DWORD PTR _page$[ebp]
  0067b	52		 push	 edx
  0067c	6a 32		 push	 50			; 00000032H
  0067e	6a 01		 push	 1
  00680	e8 00 00 00 00	 call	 ?create_ui_object@@YAPAUUI_OBJECT@@HZZ ; create_ui_object
  00685	83 c4 6c	 add	 esp, 108		; 0000006cH

; 1364 : 			(
; 1365 : 				UI_TYPE_AREA,
; 1366 : 				UI_ATTR_PARENT (page),
; 1367 : 				UI_ATTR_VIRTUAL_POSITION (x1, y1),
; 1368 : 				UI_ATTR_VIRTUAL_SIZE (x2 - x1, y2 - y1),
; 1369 : 				UI_ATTR_TEXT (output),
; 1370 : 				UI_ATTR_TEXT_JUSTIFY (TEXT_JUSTIFY_RIGHT_CENTRE),
; 1371 : 				UI_ATTR_FONT_TYPE (UI_FONT_ARIAL_10),
; 1372 : 				UI_ATTR_FONT_COLOUR (ui_ingame_dead_text_colour.r, ui_ingame_dead_text_colour.g, ui_ingame_dead_text_colour.b, ui_ingame_dead_text_colour.a),
; 1373 : 				UI_ATTR_CLEAR (TRUE),
; 1374 : 				UI_ATTR_END
; 1375 : 			);
; 1376 : 
; 1377 : 	x1 = x_mid;

  00688	f3 0f 10 45 e8	 movss	 xmm0, DWORD PTR _x_mid$[ebp]
  0068d	f3 0f 11 45 fc	 movss	 DWORD PTR _x1$[ebp], xmm0

; 1378 : 	x2 = x_end;

  00692	f3 0f 10 45 e4	 movss	 xmm0, DWORD PTR _x_end$[ebp]
  00697	f3 0f 11 45 f4	 movss	 DWORD PTR _x2$[ebp], xmm0

; 1379 : 
; 1380 : 	briefing_page_duration_time_box = create_ui_object

  0069c	6a 11		 push	 17			; 00000011H
  0069e	6a 01		 push	 1
  006a0	6a 07		 push	 7
  006a2	0f b6 05 03 00
	00 00		 movzx	 eax, BYTE PTR ?ui_ingame_dead_text_colour@@3UREAL_COLOUR@@A+3
  006a9	50		 push	 eax
  006aa	0f b6 0d 00 00
	00 00		 movzx	 ecx, BYTE PTR ?ui_ingame_dead_text_colour@@3UREAL_COLOUR@@A
  006b1	51		 push	 ecx
  006b2	0f b6 15 01 00
	00 00		 movzx	 edx, BYTE PTR ?ui_ingame_dead_text_colour@@3UREAL_COLOUR@@A+1
  006b9	52		 push	 edx
  006ba	0f b6 05 02 00
	00 00		 movzx	 eax, BYTE PTR ?ui_ingame_dead_text_colour@@3UREAL_COLOUR@@A+2
  006c1	50		 push	 eax
  006c2	6a 13		 push	 19			; 00000013H
  006c4	6a 00		 push	 0
  006c6	6a 12		 push	 18			; 00000012H
  006c8	6a 01		 push	 1
  006ca	6a 4b		 push	 75			; 0000004bH
  006cc	68 00 00 00 00	 push	 OFFSET ??_C@_00CNPNBAHC@@
  006d1	6a 4a		 push	 74			; 0000004aH
  006d3	f3 0f 10 45 f0	 movss	 xmm0, DWORD PTR _y2$[ebp]
  006d8	f3 0f 5c 45 f8	 subss	 xmm0, DWORD PTR _y1$[ebp]
  006dd	f3 0f 5a c0	 cvtss2sd xmm0, xmm0
  006e1	83 ec 08	 sub	 esp, 8
  006e4	f2 0f 11 04 24	 movsd	 QWORD PTR [esp], xmm0
  006e9	f3 0f 10 45 f4	 movss	 xmm0, DWORD PTR _x2$[ebp]
  006ee	f3 0f 5c 45 fc	 subss	 xmm0, DWORD PTR _x1$[ebp]
  006f3	f3 0f 5a c0	 cvtss2sd xmm0, xmm0
  006f7	83 ec 08	 sub	 esp, 8
  006fa	f2 0f 11 04 24	 movsd	 QWORD PTR [esp], xmm0
  006ff	6a 59		 push	 89			; 00000059H
  00701	f3 0f 5a 45 f8	 cvtss2sd xmm0, DWORD PTR _y1$[ebp]
  00706	83 ec 08	 sub	 esp, 8
  00709	f2 0f 11 04 24	 movsd	 QWORD PTR [esp], xmm0
  0070e	f3 0f 5a 45 fc	 cvtss2sd xmm0, DWORD PTR _x1$[ebp]
  00713	83 ec 08	 sub	 esp, 8
  00716	f2 0f 11 04 24	 movsd	 QWORD PTR [esp], xmm0
  0071b	6a 58		 push	 88			; 00000058H
  0071d	8b 4d d8	 mov	 ecx, DWORD PTR _page$[ebp]
  00720	51		 push	 ecx
  00721	6a 32		 push	 50			; 00000032H
  00723	6a 01		 push	 1
  00725	e8 00 00 00 00	 call	 ?create_ui_object@@YAPAUUI_OBJECT@@HZZ ; create_ui_object
  0072a	83 c4 6c	 add	 esp, 108		; 0000006cH
  0072d	a3 00 00 00 00	 mov	 DWORD PTR ?briefing_page_duration_time_box@@3PAUUI_OBJECT@@A, eax

; 1381 : 			(
; 1382 : 				UI_TYPE_AREA,
; 1383 : 				UI_ATTR_PARENT (page),
; 1384 : 				UI_ATTR_VIRTUAL_POSITION (x1, y1),
; 1385 : 				UI_ATTR_VIRTUAL_SIZE (x2 - x1, y2 - y1),
; 1386 : 				UI_ATTR_TEXT (""),
; 1387 : 				UI_ATTR_TEXT_JUSTIFY (TEXT_JUSTIFY_LEFT_CENTRE),
; 1388 : 				UI_ATTR_FONT_TYPE (UI_FONT_ARIAL_10),
; 1389 : 				UI_ATTR_FONT_COLOUR (ui_ingame_dead_text_colour.r, ui_ingame_dead_text_colour.g, ui_ingame_dead_text_colour.b, ui_ingame_dead_text_colour.a),
; 1390 : 				UI_ATTR_CLEAR (TRUE),
; 1391 : 				UI_ATTR_END
; 1392 : 			);
; 1393 : 
; 1394 : 	/////////////////////////////////////////////////////////////////
; 1395 : 	// Priority
; 1396 : 
; 1397 : 	#if 0
; 1398 : 
; 1399 : 	x1 = x_start;
; 1400 : 	x2 = x_mid;
; 1401 : 
; 1402 : 	y1 += yinc;
; 1403 : 	y2 = y1 + ysize;
; 1404 : 
; 1405 : 	sprintf (output, "%s :  ", get_trans ("Priority"));
; 1406 : 			
; 1407 : 	create_ui_object
; 1408 : 			(
; 1409 : 				UI_TYPE_AREA,
; 1410 : 				UI_ATTR_PARENT (page),
; 1411 : 				UI_ATTR_VIRTUAL_POSITION (x1, y1),
; 1412 : 				UI_ATTR_VIRTUAL_SIZE (x2 - x1, y2 - y1),
; 1413 : 				UI_ATTR_TEXT (output),
; 1414 : 				UI_ATTR_TEXT_JUSTIFY (TEXT_JUSTIFY_RIGHT_CENTRE),
; 1415 : 				UI_ATTR_FONT_TYPE (UI_FONT_ARIAL_10),
; 1416 : 				UI_ATTR_FONT_COLOUR (ui_ingame_dead_text_colour.r, ui_ingame_dead_text_colour.g, ui_ingame_dead_text_colour.b, ui_ingame_dead_text_colour.a),
; 1417 : 				UI_ATTR_CLEAR (TRUE),
; 1418 : 				UI_ATTR_END
; 1419 : 			);
; 1420 : 
; 1421 : 	x1 = x_mid;
; 1422 : 	x2 = x_end;
; 1423 : 
; 1424 : 	briefing_page_priority_box = create_ui_object
; 1425 : 			(
; 1426 : 				UI_TYPE_AREA,
; 1427 : 				UI_ATTR_PARENT (page),
; 1428 : 				UI_ATTR_VIRTUAL_POSITION (x1, y1),
; 1429 : 				UI_ATTR_VIRTUAL_SIZE (x2 - x1, y2 - y1),
; 1430 : 				UI_ATTR_TEXT (""),
; 1431 : 				UI_ATTR_TEXT_JUSTIFY (TEXT_JUSTIFY_LEFT_CENTRE),
; 1432 : 				UI_ATTR_FONT_TYPE (UI_FONT_ARIAL_10),
; 1433 : 				UI_ATTR_FONT_COLOUR (ui_ingame_dead_text_colour.r, ui_ingame_dead_text_colour.g, ui_ingame_dead_text_colour.b, ui_ingame_dead_text_colour.a),
; 1434 : 				UI_ATTR_CLEAR (TRUE),
; 1435 : 				UI_ATTR_END
; 1436 : 			);
; 1437 : 
; 1438 : 	#endif
; 1439 : 
; 1440 : 	/////////////////////////////////////////////////////////////////
; 1441 : 	// Mission Takeoff Base Box
; 1442 : 
; 1443 : 	x1 = x_start;

  00732	f3 0f 10 45 ec	 movss	 xmm0, DWORD PTR _x_start$[ebp]
  00737	f3 0f 11 45 fc	 movss	 DWORD PTR _x1$[ebp], xmm0

; 1444 : 	x2 = x_mid;

  0073c	f3 0f 10 45 e8	 movss	 xmm0, DWORD PTR _x_mid$[ebp]
  00741	f3 0f 11 45 f4	 movss	 DWORD PTR _x2$[ebp], xmm0

; 1445 : 
; 1446 : 	y1 += yinc;

  00746	f3 0f 10 45 f8	 movss	 xmm0, DWORD PTR _y1$[ebp]
  0074b	f3 0f 58 45 dc	 addss	 xmm0, DWORD PTR _yinc$[ebp]
  00750	f3 0f 11 45 f8	 movss	 DWORD PTR _y1$[ebp], xmm0

; 1447 : 	y2 = y1 + ysize;

  00755	f3 0f 10 45 f8	 movss	 xmm0, DWORD PTR _y1$[ebp]
  0075a	f3 0f 58 45 e0	 addss	 xmm0, DWORD PTR _ysize$[ebp]
  0075f	f3 0f 11 45 f0	 movss	 DWORD PTR _y2$[ebp], xmm0

; 1448 : 
; 1449 : 	sprintf (output, "%s :  ", get_trans ("Start Base"));

  00764	68 00 00 00 00	 push	 OFFSET ??_C@_0L@NPPEPAHE@Start?5Base@
  00769	e8 00 00 00 00	 call	 ?get_trans@@YGPBDPBD@Z	; get_trans
  0076e	50		 push	 eax
  0076f	68 00 00 00 00	 push	 OFFSET ??_C@_06IBDOBMFG@?$CFs?5?3?5?5@
  00774	8d 45 98	 lea	 eax, DWORD PTR _output$[ebp]
  00777	50		 push	 eax
  00778	e8 00 00 00 00	 call	 _sprintf
  0077d	83 c4 0c	 add	 esp, 12			; 0000000cH

; 1450 : 			
; 1451 : 	create_ui_object

  00780	6a 11		 push	 17			; 00000011H
  00782	6a 01		 push	 1
  00784	6a 07		 push	 7
  00786	0f b6 05 03 00
	00 00		 movzx	 eax, BYTE PTR ?ui_ingame_dead_text_colour@@3UREAL_COLOUR@@A+3
  0078d	50		 push	 eax
  0078e	0f b6 0d 00 00
	00 00		 movzx	 ecx, BYTE PTR ?ui_ingame_dead_text_colour@@3UREAL_COLOUR@@A
  00795	51		 push	 ecx
  00796	0f b6 15 01 00
	00 00		 movzx	 edx, BYTE PTR ?ui_ingame_dead_text_colour@@3UREAL_COLOUR@@A+1
  0079d	52		 push	 edx
  0079e	0f b6 05 02 00
	00 00		 movzx	 eax, BYTE PTR ?ui_ingame_dead_text_colour@@3UREAL_COLOUR@@A+2
  007a5	50		 push	 eax
  007a6	6a 13		 push	 19			; 00000013H
  007a8	6a 00		 push	 0
  007aa	6a 12		 push	 18			; 00000012H
  007ac	6a 02		 push	 2
  007ae	6a 4b		 push	 75			; 0000004bH
  007b0	8d 4d 98	 lea	 ecx, DWORD PTR _output$[ebp]
  007b3	51		 push	 ecx
  007b4	6a 4a		 push	 74			; 0000004aH
  007b6	f3 0f 10 45 f0	 movss	 xmm0, DWORD PTR _y2$[ebp]
  007bb	f3 0f 5c 45 f8	 subss	 xmm0, DWORD PTR _y1$[ebp]
  007c0	f3 0f 5a c0	 cvtss2sd xmm0, xmm0
  007c4	83 ec 08	 sub	 esp, 8
  007c7	f2 0f 11 04 24	 movsd	 QWORD PTR [esp], xmm0
  007cc	f3 0f 10 45 f4	 movss	 xmm0, DWORD PTR _x2$[ebp]
  007d1	f3 0f 5c 45 fc	 subss	 xmm0, DWORD PTR _x1$[ebp]
  007d6	f3 0f 5a c0	 cvtss2sd xmm0, xmm0
  007da	83 ec 08	 sub	 esp, 8
  007dd	f2 0f 11 04 24	 movsd	 QWORD PTR [esp], xmm0
  007e2	6a 59		 push	 89			; 00000059H
  007e4	f3 0f 5a 45 f8	 cvtss2sd xmm0, DWORD PTR _y1$[ebp]
  007e9	83 ec 08	 sub	 esp, 8
  007ec	f2 0f 11 04 24	 movsd	 QWORD PTR [esp], xmm0
  007f1	f3 0f 5a 45 fc	 cvtss2sd xmm0, DWORD PTR _x1$[ebp]
  007f6	83 ec 08	 sub	 esp, 8
  007f9	f2 0f 11 04 24	 movsd	 QWORD PTR [esp], xmm0
  007fe	6a 58		 push	 88			; 00000058H
  00800	8b 55 d8	 mov	 edx, DWORD PTR _page$[ebp]
  00803	52		 push	 edx
  00804	6a 32		 push	 50			; 00000032H
  00806	6a 01		 push	 1
  00808	e8 00 00 00 00	 call	 ?create_ui_object@@YAPAUUI_OBJECT@@HZZ ; create_ui_object
  0080d	83 c4 6c	 add	 esp, 108		; 0000006cH

; 1452 : 			(
; 1453 : 				UI_TYPE_AREA,
; 1454 : 				UI_ATTR_PARENT (page),
; 1455 : 				UI_ATTR_VIRTUAL_POSITION (x1, y1),
; 1456 : 				UI_ATTR_VIRTUAL_SIZE (x2 - x1, y2 - y1),
; 1457 : 				UI_ATTR_TEXT (output),
; 1458 : 				UI_ATTR_TEXT_JUSTIFY (TEXT_JUSTIFY_RIGHT_CENTRE),
; 1459 : 				UI_ATTR_FONT_TYPE (UI_FONT_ARIAL_10),
; 1460 : 				UI_ATTR_FONT_COLOUR (ui_ingame_dead_text_colour.r, ui_ingame_dead_text_colour.g, ui_ingame_dead_text_colour.b, ui_ingame_dead_text_colour.a),
; 1461 : 				UI_ATTR_CLEAR (TRUE),
; 1462 : 				UI_ATTR_END
; 1463 : 			);
; 1464 : 
; 1465 : 	x1 = x_mid;

  00810	f3 0f 10 45 e8	 movss	 xmm0, DWORD PTR _x_mid$[ebp]
  00815	f3 0f 11 45 fc	 movss	 DWORD PTR _x1$[ebp], xmm0

; 1466 : 	x2 = x_end;

  0081a	f3 0f 10 45 e4	 movss	 xmm0, DWORD PTR _x_end$[ebp]
  0081f	f3 0f 11 45 f4	 movss	 DWORD PTR _x2$[ebp], xmm0

; 1467 : 
; 1468 : 	briefing_page_takeoff_base_box = create_ui_object

  00824	6a 11		 push	 17			; 00000011H
  00826	6a 01		 push	 1
  00828	6a 07		 push	 7
  0082a	68 00 00 00 00	 push	 OFFSET ?notify_base_selected@@YGXPAUUI_OBJECT@@PAX@Z ; notify_base_selected
  0082f	6a 16		 push	 22			; 00000016H
  00831	6a 00		 push	 0
  00833	6a 12		 push	 18			; 00000012H
  00835	6a 01		 push	 1
  00837	6a 4b		 push	 75			; 0000004bH
  00839	68 00 00 00 00	 push	 OFFSET ??_C@_00CNPNBAHC@@
  0083e	6a 4a		 push	 74			; 0000004aH
  00840	f3 0f 10 45 f0	 movss	 xmm0, DWORD PTR _y2$[ebp]
  00845	f3 0f 5c 45 f8	 subss	 xmm0, DWORD PTR _y1$[ebp]
  0084a	f3 0f 5a c0	 cvtss2sd xmm0, xmm0
  0084e	83 ec 08	 sub	 esp, 8
  00851	f2 0f 11 04 24	 movsd	 QWORD PTR [esp], xmm0
  00856	f3 0f 10 45 f4	 movss	 xmm0, DWORD PTR _x2$[ebp]
  0085b	f3 0f 5c 45 fc	 subss	 xmm0, DWORD PTR _x1$[ebp]
  00860	f3 0f 5a c0	 cvtss2sd xmm0, xmm0
  00864	83 ec 08	 sub	 esp, 8
  00867	f2 0f 11 04 24	 movsd	 QWORD PTR [esp], xmm0
  0086c	6a 59		 push	 89			; 00000059H
  0086e	f3 0f 5a 45 f8	 cvtss2sd xmm0, DWORD PTR _y1$[ebp]
  00873	83 ec 08	 sub	 esp, 8
  00876	f2 0f 11 04 24	 movsd	 QWORD PTR [esp], xmm0
  0087b	f3 0f 5a 45 fc	 cvtss2sd xmm0, DWORD PTR _x1$[ebp]
  00880	83 ec 08	 sub	 esp, 8
  00883	f2 0f 11 04 24	 movsd	 QWORD PTR [esp], xmm0
  00888	6a 58		 push	 88			; 00000058H
  0088a	8b 45 d8	 mov	 eax, DWORD PTR _page$[ebp]
  0088d	50		 push	 eax
  0088e	6a 32		 push	 50			; 00000032H
  00890	6a 02		 push	 2
  00892	e8 00 00 00 00	 call	 ?create_ui_object@@YAPAUUI_OBJECT@@HZZ ; create_ui_object
  00897	83 c4 60	 add	 esp, 96			; 00000060H
  0089a	a3 00 00 00 00	 mov	 DWORD PTR ?briefing_page_takeoff_base_box@@3PAUUI_OBJECT@@A, eax

; 1469 : 			(
; 1470 : 				UI_TYPE_BUTTON,
; 1471 : 				UI_ATTR_PARENT (page),
; 1472 : 				UI_ATTR_VIRTUAL_POSITION (x1, y1),
; 1473 : 				UI_ATTR_VIRTUAL_SIZE (x2 - x1, y2 - y1),
; 1474 : 				UI_ATTR_TEXT (""),
; 1475 : 				UI_ATTR_TEXT_JUSTIFY (TEXT_JUSTIFY_LEFT_CENTRE),
; 1476 : 				UI_ATTR_FONT_TYPE (UI_FONT_ARIAL_10),
; 1477 : 				UI_ATTR_FUNCTION (notify_base_selected),
; 1478 : 				UI_ATTR_CLEAR (TRUE),
; 1479 : 				UI_ATTR_END
; 1480 : 			);
; 1481 : 
; 1482 : 	set_ui_mouse_over_entity_function (briefing_page_takeoff_base_box);

  0089f	a1 00 00 00 00	 mov	 eax, DWORD PTR ?briefing_page_takeoff_base_box@@3PAUUI_OBJECT@@A
  008a4	50		 push	 eax
  008a5	e8 00 00 00 00	 call	 ?set_ui_mouse_over_entity_function@@YGXPAUUI_OBJECT@@@Z ; set_ui_mouse_over_entity_function

; 1483 : 
; 1484 : 	/////////////////////////////////////////////////////////////////
; 1485 : 	// Mission Landing Base Box
; 1486 : 
; 1487 : 	x1 = x_start;

  008aa	f3 0f 10 45 ec	 movss	 xmm0, DWORD PTR _x_start$[ebp]
  008af	f3 0f 11 45 fc	 movss	 DWORD PTR _x1$[ebp], xmm0

; 1488 : 	x2 = x_mid;

  008b4	f3 0f 10 45 e8	 movss	 xmm0, DWORD PTR _x_mid$[ebp]
  008b9	f3 0f 11 45 f4	 movss	 DWORD PTR _x2$[ebp], xmm0

; 1489 : 
; 1490 : 	y1 += yinc;

  008be	f3 0f 10 45 f8	 movss	 xmm0, DWORD PTR _y1$[ebp]
  008c3	f3 0f 58 45 dc	 addss	 xmm0, DWORD PTR _yinc$[ebp]
  008c8	f3 0f 11 45 f8	 movss	 DWORD PTR _y1$[ebp], xmm0

; 1491 : 	y2 = y1 + ysize;

  008cd	f3 0f 10 45 f8	 movss	 xmm0, DWORD PTR _y1$[ebp]
  008d2	f3 0f 58 45 e0	 addss	 xmm0, DWORD PTR _ysize$[ebp]
  008d7	f3 0f 11 45 f0	 movss	 DWORD PTR _y2$[ebp], xmm0

; 1492 : 
; 1493 : 	sprintf (output, "%s :  ", get_trans ("Landing Base"));

  008dc	68 00 00 00 00	 push	 OFFSET ??_C@_0N@CNGNIIPB@Landing?5Base@
  008e1	e8 00 00 00 00	 call	 ?get_trans@@YGPBDPBD@Z	; get_trans
  008e6	50		 push	 eax
  008e7	68 00 00 00 00	 push	 OFFSET ??_C@_06IBDOBMFG@?$CFs?5?3?5?5@
  008ec	8d 45 98	 lea	 eax, DWORD PTR _output$[ebp]
  008ef	50		 push	 eax
  008f0	e8 00 00 00 00	 call	 _sprintf
  008f5	83 c4 0c	 add	 esp, 12			; 0000000cH

; 1494 : 			
; 1495 : 	create_ui_object

  008f8	6a 11		 push	 17			; 00000011H
  008fa	6a 01		 push	 1
  008fc	6a 07		 push	 7
  008fe	0f b6 05 03 00
	00 00		 movzx	 eax, BYTE PTR ?ui_ingame_dead_text_colour@@3UREAL_COLOUR@@A+3
  00905	50		 push	 eax
  00906	0f b6 0d 00 00
	00 00		 movzx	 ecx, BYTE PTR ?ui_ingame_dead_text_colour@@3UREAL_COLOUR@@A
  0090d	51		 push	 ecx
  0090e	0f b6 15 01 00
	00 00		 movzx	 edx, BYTE PTR ?ui_ingame_dead_text_colour@@3UREAL_COLOUR@@A+1
  00915	52		 push	 edx
  00916	0f b6 05 02 00
	00 00		 movzx	 eax, BYTE PTR ?ui_ingame_dead_text_colour@@3UREAL_COLOUR@@A+2
  0091d	50		 push	 eax
  0091e	6a 13		 push	 19			; 00000013H
  00920	6a 00		 push	 0
  00922	6a 12		 push	 18			; 00000012H
  00924	6a 02		 push	 2
  00926	6a 4b		 push	 75			; 0000004bH
  00928	8d 4d 98	 lea	 ecx, DWORD PTR _output$[ebp]
  0092b	51		 push	 ecx
  0092c	6a 4a		 push	 74			; 0000004aH
  0092e	f3 0f 10 45 f0	 movss	 xmm0, DWORD PTR _y2$[ebp]
  00933	f3 0f 5c 45 f8	 subss	 xmm0, DWORD PTR _y1$[ebp]
  00938	f3 0f 5a c0	 cvtss2sd xmm0, xmm0
  0093c	83 ec 08	 sub	 esp, 8
  0093f	f2 0f 11 04 24	 movsd	 QWORD PTR [esp], xmm0
  00944	f3 0f 10 45 f4	 movss	 xmm0, DWORD PTR _x2$[ebp]
  00949	f3 0f 5c 45 fc	 subss	 xmm0, DWORD PTR _x1$[ebp]
  0094e	f3 0f 5a c0	 cvtss2sd xmm0, xmm0
  00952	83 ec 08	 sub	 esp, 8
  00955	f2 0f 11 04 24	 movsd	 QWORD PTR [esp], xmm0
  0095a	6a 59		 push	 89			; 00000059H
  0095c	f3 0f 5a 45 f8	 cvtss2sd xmm0, DWORD PTR _y1$[ebp]
  00961	83 ec 08	 sub	 esp, 8
  00964	f2 0f 11 04 24	 movsd	 QWORD PTR [esp], xmm0
  00969	f3 0f 5a 45 fc	 cvtss2sd xmm0, DWORD PTR _x1$[ebp]
  0096e	83 ec 08	 sub	 esp, 8
  00971	f2 0f 11 04 24	 movsd	 QWORD PTR [esp], xmm0
  00976	6a 58		 push	 88			; 00000058H
  00978	8b 55 d8	 mov	 edx, DWORD PTR _page$[ebp]
  0097b	52		 push	 edx
  0097c	6a 32		 push	 50			; 00000032H
  0097e	6a 01		 push	 1
  00980	e8 00 00 00 00	 call	 ?create_ui_object@@YAPAUUI_OBJECT@@HZZ ; create_ui_object
  00985	83 c4 6c	 add	 esp, 108		; 0000006cH

; 1496 : 			(
; 1497 : 				UI_TYPE_AREA,
; 1498 : 				UI_ATTR_PARENT (page),
; 1499 : 				UI_ATTR_VIRTUAL_POSITION (x1, y1),
; 1500 : 				UI_ATTR_VIRTUAL_SIZE (x2 - x1, y2 - y1),
; 1501 : 				UI_ATTR_TEXT (output),
; 1502 : 				UI_ATTR_TEXT_JUSTIFY (TEXT_JUSTIFY_RIGHT_CENTRE),
; 1503 : 				UI_ATTR_FONT_TYPE (UI_FONT_ARIAL_10),
; 1504 : 				UI_ATTR_FONT_COLOUR (ui_ingame_dead_text_colour.r, ui_ingame_dead_text_colour.g, ui_ingame_dead_text_colour.b, ui_ingame_dead_text_colour.a),
; 1505 : 				UI_ATTR_CLEAR (TRUE),
; 1506 : 				UI_ATTR_END
; 1507 : 			);
; 1508 : 
; 1509 : 	x1 = x_mid;

  00988	f3 0f 10 45 e8	 movss	 xmm0, DWORD PTR _x_mid$[ebp]
  0098d	f3 0f 11 45 fc	 movss	 DWORD PTR _x1$[ebp], xmm0

; 1510 : 	x2 = x_end;

  00992	f3 0f 10 45 e4	 movss	 xmm0, DWORD PTR _x_end$[ebp]
  00997	f3 0f 11 45 f4	 movss	 DWORD PTR _x2$[ebp], xmm0

; 1511 : 
; 1512 : 	briefing_page_landing_base_box = create_ui_object

  0099c	6a 11		 push	 17			; 00000011H
  0099e	6a 01		 push	 1
  009a0	6a 07		 push	 7
  009a2	68 00 00 00 00	 push	 OFFSET ?notify_base_selected@@YGXPAUUI_OBJECT@@PAX@Z ; notify_base_selected
  009a7	6a 16		 push	 22			; 00000016H
  009a9	6a 00		 push	 0
  009ab	6a 12		 push	 18			; 00000012H
  009ad	6a 01		 push	 1
  009af	6a 4b		 push	 75			; 0000004bH
  009b1	68 00 00 00 00	 push	 OFFSET ??_C@_00CNPNBAHC@@
  009b6	6a 4a		 push	 74			; 0000004aH
  009b8	f3 0f 10 45 f0	 movss	 xmm0, DWORD PTR _y2$[ebp]
  009bd	f3 0f 5c 45 f8	 subss	 xmm0, DWORD PTR _y1$[ebp]
  009c2	f3 0f 5a c0	 cvtss2sd xmm0, xmm0
  009c6	83 ec 08	 sub	 esp, 8
  009c9	f2 0f 11 04 24	 movsd	 QWORD PTR [esp], xmm0
  009ce	f3 0f 10 45 f4	 movss	 xmm0, DWORD PTR _x2$[ebp]
  009d3	f3 0f 5c 45 fc	 subss	 xmm0, DWORD PTR _x1$[ebp]
  009d8	f3 0f 5a c0	 cvtss2sd xmm0, xmm0
  009dc	83 ec 08	 sub	 esp, 8
  009df	f2 0f 11 04 24	 movsd	 QWORD PTR [esp], xmm0
  009e4	6a 59		 push	 89			; 00000059H
  009e6	f3 0f 5a 45 f8	 cvtss2sd xmm0, DWORD PTR _y1$[ebp]
  009eb	83 ec 08	 sub	 esp, 8
  009ee	f2 0f 11 04 24	 movsd	 QWORD PTR [esp], xmm0
  009f3	f3 0f 5a 45 fc	 cvtss2sd xmm0, DWORD PTR _x1$[ebp]
  009f8	83 ec 08	 sub	 esp, 8
  009fb	f2 0f 11 04 24	 movsd	 QWORD PTR [esp], xmm0
  00a00	6a 58		 push	 88			; 00000058H
  00a02	8b 45 d8	 mov	 eax, DWORD PTR _page$[ebp]
  00a05	50		 push	 eax
  00a06	6a 32		 push	 50			; 00000032H
  00a08	6a 02		 push	 2
  00a0a	e8 00 00 00 00	 call	 ?create_ui_object@@YAPAUUI_OBJECT@@HZZ ; create_ui_object
  00a0f	83 c4 60	 add	 esp, 96			; 00000060H
  00a12	a3 00 00 00 00	 mov	 DWORD PTR ?briefing_page_landing_base_box@@3PAUUI_OBJECT@@A, eax

; 1513 : 			(
; 1514 : 				UI_TYPE_BUTTON,
; 1515 : 				UI_ATTR_PARENT (page),
; 1516 : 				UI_ATTR_VIRTUAL_POSITION (x1, y1),
; 1517 : 				UI_ATTR_VIRTUAL_SIZE (x2 - x1, y2 - y1),
; 1518 : 				UI_ATTR_TEXT (""),
; 1519 : 				UI_ATTR_TEXT_JUSTIFY (TEXT_JUSTIFY_LEFT_CENTRE),
; 1520 : 				UI_ATTR_FONT_TYPE (UI_FONT_ARIAL_10),
; 1521 : 				UI_ATTR_FUNCTION (notify_base_selected),
; 1522 : 				UI_ATTR_CLEAR (TRUE),
; 1523 : 				UI_ATTR_END
; 1524 : 			);
; 1525 : 
; 1526 : 	set_ui_mouse_over_entity_function (briefing_page_landing_base_box);

  00a17	a1 00 00 00 00	 mov	 eax, DWORD PTR ?briefing_page_landing_base_box@@3PAUUI_OBJECT@@A
  00a1c	50		 push	 eax
  00a1d	e8 00 00 00 00	 call	 ?set_ui_mouse_over_entity_function@@YGXPAUUI_OBJECT@@@Z ; set_ui_mouse_over_entity_function

; 1527 : 
; 1528 : 	/////////////////////////////////////////////////////////////////
; 1529 : 	// Mission Group Box
; 1530 : 
; 1531 : 	x1 = x_start;

  00a22	f3 0f 10 45 ec	 movss	 xmm0, DWORD PTR _x_start$[ebp]
  00a27	f3 0f 11 45 fc	 movss	 DWORD PTR _x1$[ebp], xmm0

; 1532 : 	x2 = x_mid;

  00a2c	f3 0f 10 45 e8	 movss	 xmm0, DWORD PTR _x_mid$[ebp]
  00a31	f3 0f 11 45 f4	 movss	 DWORD PTR _x2$[ebp], xmm0

; 1533 : 
; 1534 : 	y1 += yinc;

  00a36	f3 0f 10 45 f8	 movss	 xmm0, DWORD PTR _y1$[ebp]
  00a3b	f3 0f 58 45 dc	 addss	 xmm0, DWORD PTR _yinc$[ebp]
  00a40	f3 0f 11 45 f8	 movss	 DWORD PTR _y1$[ebp], xmm0

; 1535 : 	y2 = y1 + ysize;

  00a45	f3 0f 10 45 f8	 movss	 xmm0, DWORD PTR _y1$[ebp]
  00a4a	f3 0f 58 45 e0	 addss	 xmm0, DWORD PTR _ysize$[ebp]
  00a4f	f3 0f 11 45 f0	 movss	 DWORD PTR _y2$[ebp], xmm0

; 1536 : 
; 1537 : 	sprintf (output, "%s :  ", get_trans ("Group"));

  00a54	68 00 00 00 00	 push	 OFFSET ??_C@_05MBDCODDP@Group@
  00a59	e8 00 00 00 00	 call	 ?get_trans@@YGPBDPBD@Z	; get_trans
  00a5e	50		 push	 eax
  00a5f	68 00 00 00 00	 push	 OFFSET ??_C@_06IBDOBMFG@?$CFs?5?3?5?5@
  00a64	8d 45 98	 lea	 eax, DWORD PTR _output$[ebp]
  00a67	50		 push	 eax
  00a68	e8 00 00 00 00	 call	 _sprintf
  00a6d	83 c4 0c	 add	 esp, 12			; 0000000cH

; 1538 : 			
; 1539 : 	create_ui_object

  00a70	6a 11		 push	 17			; 00000011H
  00a72	6a 01		 push	 1
  00a74	6a 07		 push	 7
  00a76	0f b6 05 03 00
	00 00		 movzx	 eax, BYTE PTR ?ui_ingame_dead_text_colour@@3UREAL_COLOUR@@A+3
  00a7d	50		 push	 eax
  00a7e	0f b6 0d 00 00
	00 00		 movzx	 ecx, BYTE PTR ?ui_ingame_dead_text_colour@@3UREAL_COLOUR@@A
  00a85	51		 push	 ecx
  00a86	0f b6 15 01 00
	00 00		 movzx	 edx, BYTE PTR ?ui_ingame_dead_text_colour@@3UREAL_COLOUR@@A+1
  00a8d	52		 push	 edx
  00a8e	0f b6 05 02 00
	00 00		 movzx	 eax, BYTE PTR ?ui_ingame_dead_text_colour@@3UREAL_COLOUR@@A+2
  00a95	50		 push	 eax
  00a96	6a 13		 push	 19			; 00000013H
  00a98	6a 00		 push	 0
  00a9a	6a 12		 push	 18			; 00000012H
  00a9c	6a 02		 push	 2
  00a9e	6a 4b		 push	 75			; 0000004bH
  00aa0	8d 4d 98	 lea	 ecx, DWORD PTR _output$[ebp]
  00aa3	51		 push	 ecx
  00aa4	6a 4a		 push	 74			; 0000004aH
  00aa6	f3 0f 10 45 f0	 movss	 xmm0, DWORD PTR _y2$[ebp]
  00aab	f3 0f 5c 45 f8	 subss	 xmm0, DWORD PTR _y1$[ebp]
  00ab0	f3 0f 5a c0	 cvtss2sd xmm0, xmm0
  00ab4	83 ec 08	 sub	 esp, 8
  00ab7	f2 0f 11 04 24	 movsd	 QWORD PTR [esp], xmm0
  00abc	f3 0f 10 45 f4	 movss	 xmm0, DWORD PTR _x2$[ebp]
  00ac1	f3 0f 5c 45 fc	 subss	 xmm0, DWORD PTR _x1$[ebp]
  00ac6	f3 0f 5a c0	 cvtss2sd xmm0, xmm0
  00aca	83 ec 08	 sub	 esp, 8
  00acd	f2 0f 11 04 24	 movsd	 QWORD PTR [esp], xmm0
  00ad2	6a 59		 push	 89			; 00000059H
  00ad4	f3 0f 5a 45 f8	 cvtss2sd xmm0, DWORD PTR _y1$[ebp]
  00ad9	83 ec 08	 sub	 esp, 8
  00adc	f2 0f 11 04 24	 movsd	 QWORD PTR [esp], xmm0
  00ae1	f3 0f 5a 45 fc	 cvtss2sd xmm0, DWORD PTR _x1$[ebp]
  00ae6	83 ec 08	 sub	 esp, 8
  00ae9	f2 0f 11 04 24	 movsd	 QWORD PTR [esp], xmm0
  00aee	6a 58		 push	 88			; 00000058H
  00af0	8b 55 d8	 mov	 edx, DWORD PTR _page$[ebp]
  00af3	52		 push	 edx
  00af4	6a 32		 push	 50			; 00000032H
  00af6	6a 01		 push	 1
  00af8	e8 00 00 00 00	 call	 ?create_ui_object@@YAPAUUI_OBJECT@@HZZ ; create_ui_object
  00afd	83 c4 6c	 add	 esp, 108		; 0000006cH

; 1540 : 			(
; 1541 : 				UI_TYPE_AREA,
; 1542 : 				UI_ATTR_PARENT (page),
; 1543 : 				UI_ATTR_VIRTUAL_POSITION (x1, y1),
; 1544 : 				UI_ATTR_VIRTUAL_SIZE (x2 - x1, y2 - y1),
; 1545 : 				UI_ATTR_TEXT (output),
; 1546 : 				UI_ATTR_TEXT_JUSTIFY (TEXT_JUSTIFY_RIGHT_CENTRE),
; 1547 : 				UI_ATTR_FONT_TYPE (UI_FONT_ARIAL_10),
; 1548 : 				UI_ATTR_FONT_COLOUR (ui_ingame_dead_text_colour.r, ui_ingame_dead_text_colour.g, ui_ingame_dead_text_colour.b, ui_ingame_dead_text_colour.a),
; 1549 : 				UI_ATTR_CLEAR (TRUE),
; 1550 : 				UI_ATTR_END
; 1551 : 			);
; 1552 : 
; 1553 : 	x1 = x_mid;

  00b00	f3 0f 10 45 e8	 movss	 xmm0, DWORD PTR _x_mid$[ebp]
  00b05	f3 0f 11 45 fc	 movss	 DWORD PTR _x1$[ebp], xmm0

; 1554 : 	x2 = x_end;

  00b0a	f3 0f 10 45 e4	 movss	 xmm0, DWORD PTR _x_end$[ebp]
  00b0f	f3 0f 11 45 f4	 movss	 DWORD PTR _x2$[ebp], xmm0

; 1555 : 
; 1556 : 	briefing_page_group_box = create_ui_object

  00b14	6a 11		 push	 17			; 00000011H
  00b16	6a 01		 push	 1
  00b18	6a 07		 push	 7
  00b1a	68 00 00 00 00	 push	 OFFSET ?notify_group_selected@@YGXPAUUI_OBJECT@@PAX@Z ; notify_group_selected
  00b1f	6a 16		 push	 22			; 00000016H
  00b21	6a 00		 push	 0
  00b23	6a 12		 push	 18			; 00000012H
  00b25	6a 01		 push	 1
  00b27	6a 4b		 push	 75			; 0000004bH
  00b29	68 00 00 00 00	 push	 OFFSET ??_C@_00CNPNBAHC@@
  00b2e	6a 4a		 push	 74			; 0000004aH
  00b30	f3 0f 10 45 f0	 movss	 xmm0, DWORD PTR _y2$[ebp]
  00b35	f3 0f 5c 45 f8	 subss	 xmm0, DWORD PTR _y1$[ebp]
  00b3a	f3 0f 5a c0	 cvtss2sd xmm0, xmm0
  00b3e	83 ec 08	 sub	 esp, 8
  00b41	f2 0f 11 04 24	 movsd	 QWORD PTR [esp], xmm0
  00b46	f3 0f 10 45 f4	 movss	 xmm0, DWORD PTR _x2$[ebp]
  00b4b	f3 0f 5c 45 fc	 subss	 xmm0, DWORD PTR _x1$[ebp]
  00b50	f3 0f 5a c0	 cvtss2sd xmm0, xmm0
  00b54	83 ec 08	 sub	 esp, 8
  00b57	f2 0f 11 04 24	 movsd	 QWORD PTR [esp], xmm0
  00b5c	6a 59		 push	 89			; 00000059H
  00b5e	f3 0f 5a 45 f8	 cvtss2sd xmm0, DWORD PTR _y1$[ebp]
  00b63	83 ec 08	 sub	 esp, 8
  00b66	f2 0f 11 04 24	 movsd	 QWORD PTR [esp], xmm0
  00b6b	f3 0f 5a 45 fc	 cvtss2sd xmm0, DWORD PTR _x1$[ebp]
  00b70	83 ec 08	 sub	 esp, 8
  00b73	f2 0f 11 04 24	 movsd	 QWORD PTR [esp], xmm0
  00b78	6a 58		 push	 88			; 00000058H
  00b7a	8b 45 d8	 mov	 eax, DWORD PTR _page$[ebp]
  00b7d	50		 push	 eax
  00b7e	6a 32		 push	 50			; 00000032H
  00b80	6a 02		 push	 2
  00b82	e8 00 00 00 00	 call	 ?create_ui_object@@YAPAUUI_OBJECT@@HZZ ; create_ui_object
  00b87	83 c4 60	 add	 esp, 96			; 00000060H
  00b8a	a3 00 00 00 00	 mov	 DWORD PTR ?briefing_page_group_box@@3PAUUI_OBJECT@@A, eax

; 1557 : 			(
; 1558 : 				UI_TYPE_BUTTON,
; 1559 : 				UI_ATTR_PARENT (page),
; 1560 : 				UI_ATTR_VIRTUAL_POSITION (x1, y1),
; 1561 : 				UI_ATTR_VIRTUAL_SIZE (x2 - x1, y2 - y1),
; 1562 : 				UI_ATTR_TEXT (""),
; 1563 : 				UI_ATTR_TEXT_JUSTIFY (TEXT_JUSTIFY_LEFT_CENTRE),
; 1564 : 				UI_ATTR_FONT_TYPE (UI_FONT_ARIAL_10),
; 1565 : 				UI_ATTR_FUNCTION (notify_group_selected),
; 1566 : 				UI_ATTR_CLEAR (TRUE),
; 1567 : 				UI_ATTR_END
; 1568 : 			);
; 1569 : 
; 1570 : 	set_ui_mouse_over_entity_function (briefing_page_group_box);

  00b8f	a1 00 00 00 00	 mov	 eax, DWORD PTR ?briefing_page_group_box@@3PAUUI_OBJECT@@A
  00b94	50		 push	 eax
  00b95	e8 00 00 00 00	 call	 ?set_ui_mouse_over_entity_function@@YGXPAUUI_OBJECT@@@Z ; set_ui_mouse_over_entity_function

; 1571 : 
; 1572 : 	/////////////////////////////////////////////////////////////////
; 1573 : 	// Mission Objective Box
; 1574 : 
; 1575 : 	x1 = x_start;

  00b9a	f3 0f 10 45 ec	 movss	 xmm0, DWORD PTR _x_start$[ebp]
  00b9f	f3 0f 11 45 fc	 movss	 DWORD PTR _x1$[ebp], xmm0

; 1576 : 	x2 = x_mid;

  00ba4	f3 0f 10 45 e8	 movss	 xmm0, DWORD PTR _x_mid$[ebp]
  00ba9	f3 0f 11 45 f4	 movss	 DWORD PTR _x2$[ebp], xmm0

; 1577 : 
; 1578 : 	y1 += yinc;

  00bae	f3 0f 10 45 f8	 movss	 xmm0, DWORD PTR _y1$[ebp]
  00bb3	f3 0f 58 45 dc	 addss	 xmm0, DWORD PTR _yinc$[ebp]
  00bb8	f3 0f 11 45 f8	 movss	 DWORD PTR _y1$[ebp], xmm0

; 1579 : 	y2 = y1 + ysize;

  00bbd	f3 0f 10 45 f8	 movss	 xmm0, DWORD PTR _y1$[ebp]
  00bc2	f3 0f 58 45 e0	 addss	 xmm0, DWORD PTR _ysize$[ebp]
  00bc7	f3 0f 11 45 f0	 movss	 DWORD PTR _y2$[ebp], xmm0

; 1580 : 
; 1581 : 	sprintf (output, "%s :  ", get_trans ("Objective"));

  00bcc	68 00 00 00 00	 push	 OFFSET ??_C@_09BFBOLFMF@Objective@
  00bd1	e8 00 00 00 00	 call	 ?get_trans@@YGPBDPBD@Z	; get_trans
  00bd6	50		 push	 eax
  00bd7	68 00 00 00 00	 push	 OFFSET ??_C@_06IBDOBMFG@?$CFs?5?3?5?5@
  00bdc	8d 45 98	 lea	 eax, DWORD PTR _output$[ebp]
  00bdf	50		 push	 eax
  00be0	e8 00 00 00 00	 call	 _sprintf
  00be5	83 c4 0c	 add	 esp, 12			; 0000000cH

; 1582 : 			
; 1583 : 	create_ui_object

  00be8	6a 11		 push	 17			; 00000011H
  00bea	6a 01		 push	 1
  00bec	6a 07		 push	 7
  00bee	0f b6 05 03 00
	00 00		 movzx	 eax, BYTE PTR ?ui_ingame_dead_text_colour@@3UREAL_COLOUR@@A+3
  00bf5	50		 push	 eax
  00bf6	0f b6 0d 00 00
	00 00		 movzx	 ecx, BYTE PTR ?ui_ingame_dead_text_colour@@3UREAL_COLOUR@@A
  00bfd	51		 push	 ecx
  00bfe	0f b6 15 01 00
	00 00		 movzx	 edx, BYTE PTR ?ui_ingame_dead_text_colour@@3UREAL_COLOUR@@A+1
  00c05	52		 push	 edx
  00c06	0f b6 05 02 00
	00 00		 movzx	 eax, BYTE PTR ?ui_ingame_dead_text_colour@@3UREAL_COLOUR@@A+2
  00c0d	50		 push	 eax
  00c0e	6a 13		 push	 19			; 00000013H
  00c10	6a 00		 push	 0
  00c12	6a 12		 push	 18			; 00000012H
  00c14	6a 02		 push	 2
  00c16	6a 4b		 push	 75			; 0000004bH
  00c18	8d 4d 98	 lea	 ecx, DWORD PTR _output$[ebp]
  00c1b	51		 push	 ecx
  00c1c	6a 4a		 push	 74			; 0000004aH
  00c1e	f3 0f 10 45 f0	 movss	 xmm0, DWORD PTR _y2$[ebp]
  00c23	f3 0f 5c 45 f8	 subss	 xmm0, DWORD PTR _y1$[ebp]
  00c28	f3 0f 5a c0	 cvtss2sd xmm0, xmm0
  00c2c	83 ec 08	 sub	 esp, 8
  00c2f	f2 0f 11 04 24	 movsd	 QWORD PTR [esp], xmm0
  00c34	f3 0f 10 45 f4	 movss	 xmm0, DWORD PTR _x2$[ebp]
  00c39	f3 0f 5c 45 fc	 subss	 xmm0, DWORD PTR _x1$[ebp]
  00c3e	f3 0f 5a c0	 cvtss2sd xmm0, xmm0
  00c42	83 ec 08	 sub	 esp, 8
  00c45	f2 0f 11 04 24	 movsd	 QWORD PTR [esp], xmm0
  00c4a	6a 59		 push	 89			; 00000059H
  00c4c	f3 0f 5a 45 f8	 cvtss2sd xmm0, DWORD PTR _y1$[ebp]
  00c51	83 ec 08	 sub	 esp, 8
  00c54	f2 0f 11 04 24	 movsd	 QWORD PTR [esp], xmm0
  00c59	f3 0f 5a 45 fc	 cvtss2sd xmm0, DWORD PTR _x1$[ebp]
  00c5e	83 ec 08	 sub	 esp, 8
  00c61	f2 0f 11 04 24	 movsd	 QWORD PTR [esp], xmm0
  00c66	6a 58		 push	 88			; 00000058H
  00c68	8b 55 d8	 mov	 edx, DWORD PTR _page$[ebp]
  00c6b	52		 push	 edx
  00c6c	6a 32		 push	 50			; 00000032H
  00c6e	6a 01		 push	 1
  00c70	e8 00 00 00 00	 call	 ?create_ui_object@@YAPAUUI_OBJECT@@HZZ ; create_ui_object
  00c75	83 c4 6c	 add	 esp, 108		; 0000006cH

; 1584 : 			(
; 1585 : 				UI_TYPE_AREA,
; 1586 : 				UI_ATTR_PARENT (page),
; 1587 : 				UI_ATTR_VIRTUAL_POSITION (x1, y1),
; 1588 : 				UI_ATTR_VIRTUAL_SIZE (x2 - x1, y2 - y1),
; 1589 : 				UI_ATTR_TEXT (output),
; 1590 : 				UI_ATTR_TEXT_JUSTIFY (TEXT_JUSTIFY_RIGHT_CENTRE),
; 1591 : 				UI_ATTR_FONT_TYPE (UI_FONT_ARIAL_10),
; 1592 : 				UI_ATTR_FONT_COLOUR (ui_ingame_dead_text_colour.r, ui_ingame_dead_text_colour.g, ui_ingame_dead_text_colour.b, ui_ingame_dead_text_colour.a),
; 1593 : 				UI_ATTR_CLEAR (TRUE),
; 1594 : 				UI_ATTR_END
; 1595 : 			);
; 1596 : 
; 1597 : 	x1 = x_mid;

  00c78	f3 0f 10 45 e8	 movss	 xmm0, DWORD PTR _x_mid$[ebp]
  00c7d	f3 0f 11 45 fc	 movss	 DWORD PTR _x1$[ebp], xmm0

; 1598 : 	x2 = x_end;

  00c82	f3 0f 10 45 e4	 movss	 xmm0, DWORD PTR _x_end$[ebp]
  00c87	f3 0f 11 45 f4	 movss	 DWORD PTR _x2$[ebp], xmm0

; 1599 : 
; 1600 : 	briefing_page_objective_box = create_ui_object

  00c8c	6a 11		 push	 17			; 00000011H
  00c8e	6a 01		 push	 1
  00c90	6a 07		 push	 7
  00c92	0f b6 05 03 00
	00 00		 movzx	 eax, BYTE PTR ?ui_ingame_dead_text_colour@@3UREAL_COLOUR@@A+3
  00c99	50		 push	 eax
  00c9a	0f b6 0d 00 00
	00 00		 movzx	 ecx, BYTE PTR ?ui_ingame_dead_text_colour@@3UREAL_COLOUR@@A
  00ca1	51		 push	 ecx
  00ca2	0f b6 15 01 00
	00 00		 movzx	 edx, BYTE PTR ?ui_ingame_dead_text_colour@@3UREAL_COLOUR@@A+1
  00ca9	52		 push	 edx
  00caa	0f b6 05 02 00
	00 00		 movzx	 eax, BYTE PTR ?ui_ingame_dead_text_colour@@3UREAL_COLOUR@@A+2
  00cb1	50		 push	 eax
  00cb2	6a 13		 push	 19			; 00000013H
  00cb4	6a 00		 push	 0
  00cb6	6a 12		 push	 18			; 00000012H
  00cb8	6a 01		 push	 1
  00cba	6a 4b		 push	 75			; 0000004bH
  00cbc	68 00 00 00 00	 push	 OFFSET ??_C@_00CNPNBAHC@@
  00cc1	6a 4a		 push	 74			; 0000004aH
  00cc3	f3 0f 10 45 f0	 movss	 xmm0, DWORD PTR _y2$[ebp]
  00cc8	f3 0f 5c 45 f8	 subss	 xmm0, DWORD PTR _y1$[ebp]
  00ccd	f3 0f 5a c0	 cvtss2sd xmm0, xmm0
  00cd1	83 ec 08	 sub	 esp, 8
  00cd4	f2 0f 11 04 24	 movsd	 QWORD PTR [esp], xmm0
  00cd9	f3 0f 10 45 f4	 movss	 xmm0, DWORD PTR _x2$[ebp]
  00cde	f3 0f 5c 45 fc	 subss	 xmm0, DWORD PTR _x1$[ebp]
  00ce3	f3 0f 5a c0	 cvtss2sd xmm0, xmm0
  00ce7	83 ec 08	 sub	 esp, 8
  00cea	f2 0f 11 04 24	 movsd	 QWORD PTR [esp], xmm0
  00cef	6a 59		 push	 89			; 00000059H
  00cf1	f3 0f 5a 45 f8	 cvtss2sd xmm0, DWORD PTR _y1$[ebp]
  00cf6	83 ec 08	 sub	 esp, 8
  00cf9	f2 0f 11 04 24	 movsd	 QWORD PTR [esp], xmm0
  00cfe	f3 0f 5a 45 fc	 cvtss2sd xmm0, DWORD PTR _x1$[ebp]
  00d03	83 ec 08	 sub	 esp, 8
  00d06	f2 0f 11 04 24	 movsd	 QWORD PTR [esp], xmm0
  00d0b	6a 58		 push	 88			; 00000058H
  00d0d	8b 4d d8	 mov	 ecx, DWORD PTR _page$[ebp]
  00d10	51		 push	 ecx
  00d11	6a 32		 push	 50			; 00000032H
  00d13	6a 01		 push	 1
  00d15	e8 00 00 00 00	 call	 ?create_ui_object@@YAPAUUI_OBJECT@@HZZ ; create_ui_object
  00d1a	83 c4 6c	 add	 esp, 108		; 0000006cH
  00d1d	a3 00 00 00 00	 mov	 DWORD PTR ?briefing_page_objective_box@@3PAUUI_OBJECT@@A, eax

; 1601 : 			(
; 1602 : 				UI_TYPE_AREA,
; 1603 : 				UI_ATTR_PARENT (page),
; 1604 : 				UI_ATTR_VIRTUAL_POSITION (x1, y1),
; 1605 : 				UI_ATTR_VIRTUAL_SIZE (x2 - x1, y2 - y1),
; 1606 : 				UI_ATTR_TEXT (""),
; 1607 : 				UI_ATTR_TEXT_JUSTIFY (TEXT_JUSTIFY_LEFT_CENTRE),
; 1608 : 				UI_ATTR_FONT_TYPE (UI_FONT_ARIAL_10),
; 1609 : 				UI_ATTR_FONT_COLOUR (ui_ingame_dead_text_colour.r, ui_ingame_dead_text_colour.g, ui_ingame_dead_text_colour.b, ui_ingame_dead_text_colour.a),
; 1610 : 				UI_ATTR_CLEAR (TRUE),
; 1611 : 				UI_ATTR_END
; 1612 : 			);
; 1613 : 
; 1614 : 	/////////////////////////////////////////////////////////////////
; 1615 : 	// Weather box
; 1616 : 
; 1617 : 	x1 = x_start;

  00d22	f3 0f 10 45 ec	 movss	 xmm0, DWORD PTR _x_start$[ebp]
  00d27	f3 0f 11 45 fc	 movss	 DWORD PTR _x1$[ebp], xmm0

; 1618 : 	x2 = x_mid;

  00d2c	f3 0f 10 45 e8	 movss	 xmm0, DWORD PTR _x_mid$[ebp]
  00d31	f3 0f 11 45 f4	 movss	 DWORD PTR _x2$[ebp], xmm0

; 1619 : 
; 1620 : 	y1 += yinc;

  00d36	f3 0f 10 45 f8	 movss	 xmm0, DWORD PTR _y1$[ebp]
  00d3b	f3 0f 58 45 dc	 addss	 xmm0, DWORD PTR _yinc$[ebp]
  00d40	f3 0f 11 45 f8	 movss	 DWORD PTR _y1$[ebp], xmm0

; 1621 : 	y2 = y1 + ysize;

  00d45	f3 0f 10 45 f8	 movss	 xmm0, DWORD PTR _y1$[ebp]
  00d4a	f3 0f 58 45 e0	 addss	 xmm0, DWORD PTR _ysize$[ebp]
  00d4f	f3 0f 11 45 f0	 movss	 DWORD PTR _y2$[ebp], xmm0

; 1622 : 
; 1623 : 	sprintf (output, "%s :  ", get_trans ("Weather"));

  00d54	68 00 00 00 00	 push	 OFFSET ??_C@_07HOMNOOKI@Weather@
  00d59	e8 00 00 00 00	 call	 ?get_trans@@YGPBDPBD@Z	; get_trans
  00d5e	50		 push	 eax
  00d5f	68 00 00 00 00	 push	 OFFSET ??_C@_06IBDOBMFG@?$CFs?5?3?5?5@
  00d64	8d 45 98	 lea	 eax, DWORD PTR _output$[ebp]
  00d67	50		 push	 eax
  00d68	e8 00 00 00 00	 call	 _sprintf
  00d6d	83 c4 0c	 add	 esp, 12			; 0000000cH

; 1624 : 			
; 1625 : 	create_ui_object

  00d70	6a 11		 push	 17			; 00000011H
  00d72	6a 01		 push	 1
  00d74	6a 07		 push	 7
  00d76	0f b6 05 03 00
	00 00		 movzx	 eax, BYTE PTR ?ui_ingame_dead_text_colour@@3UREAL_COLOUR@@A+3
  00d7d	50		 push	 eax
  00d7e	0f b6 0d 00 00
	00 00		 movzx	 ecx, BYTE PTR ?ui_ingame_dead_text_colour@@3UREAL_COLOUR@@A
  00d85	51		 push	 ecx
  00d86	0f b6 15 01 00
	00 00		 movzx	 edx, BYTE PTR ?ui_ingame_dead_text_colour@@3UREAL_COLOUR@@A+1
  00d8d	52		 push	 edx
  00d8e	0f b6 05 02 00
	00 00		 movzx	 eax, BYTE PTR ?ui_ingame_dead_text_colour@@3UREAL_COLOUR@@A+2
  00d95	50		 push	 eax
  00d96	6a 13		 push	 19			; 00000013H
  00d98	6a 00		 push	 0
  00d9a	6a 12		 push	 18			; 00000012H
  00d9c	6a 02		 push	 2
  00d9e	6a 4b		 push	 75			; 0000004bH
  00da0	8d 4d 98	 lea	 ecx, DWORD PTR _output$[ebp]
  00da3	51		 push	 ecx
  00da4	6a 4a		 push	 74			; 0000004aH
  00da6	f3 0f 10 45 f0	 movss	 xmm0, DWORD PTR _y2$[ebp]
  00dab	f3 0f 5c 45 f8	 subss	 xmm0, DWORD PTR _y1$[ebp]
  00db0	f3 0f 5a c0	 cvtss2sd xmm0, xmm0
  00db4	83 ec 08	 sub	 esp, 8
  00db7	f2 0f 11 04 24	 movsd	 QWORD PTR [esp], xmm0
  00dbc	f3 0f 10 45 f4	 movss	 xmm0, DWORD PTR _x2$[ebp]
  00dc1	f3 0f 5c 45 fc	 subss	 xmm0, DWORD PTR _x1$[ebp]
  00dc6	f3 0f 5a c0	 cvtss2sd xmm0, xmm0
  00dca	83 ec 08	 sub	 esp, 8
  00dcd	f2 0f 11 04 24	 movsd	 QWORD PTR [esp], xmm0
  00dd2	6a 59		 push	 89			; 00000059H
  00dd4	f3 0f 5a 45 f8	 cvtss2sd xmm0, DWORD PTR _y1$[ebp]
  00dd9	83 ec 08	 sub	 esp, 8
  00ddc	f2 0f 11 04 24	 movsd	 QWORD PTR [esp], xmm0
  00de1	f3 0f 5a 45 fc	 cvtss2sd xmm0, DWORD PTR _x1$[ebp]
  00de6	83 ec 08	 sub	 esp, 8
  00de9	f2 0f 11 04 24	 movsd	 QWORD PTR [esp], xmm0
  00dee	6a 58		 push	 88			; 00000058H
  00df0	8b 55 d8	 mov	 edx, DWORD PTR _page$[ebp]
  00df3	52		 push	 edx
  00df4	6a 32		 push	 50			; 00000032H
  00df6	6a 01		 push	 1
  00df8	e8 00 00 00 00	 call	 ?create_ui_object@@YAPAUUI_OBJECT@@HZZ ; create_ui_object
  00dfd	83 c4 6c	 add	 esp, 108		; 0000006cH

; 1626 : 			(
; 1627 : 				UI_TYPE_AREA,
; 1628 : 				UI_ATTR_PARENT (page),
; 1629 : 				UI_ATTR_VIRTUAL_POSITION (x1, y1),
; 1630 : 				UI_ATTR_VIRTUAL_SIZE (x2 - x1, y2 - y1),
; 1631 : 				UI_ATTR_TEXT (output),
; 1632 : 				UI_ATTR_TEXT_JUSTIFY (TEXT_JUSTIFY_RIGHT_CENTRE),
; 1633 : 				UI_ATTR_FONT_TYPE (UI_FONT_ARIAL_10),
; 1634 : 				UI_ATTR_FONT_COLOUR (ui_ingame_dead_text_colour.r, ui_ingame_dead_text_colour.g, ui_ingame_dead_text_colour.b, ui_ingame_dead_text_colour.a),
; 1635 : 				UI_ATTR_CLEAR (TRUE),
; 1636 : 				UI_ATTR_END
; 1637 : 			);
; 1638 : 
; 1639 : 	x1 = x_mid;

  00e00	f3 0f 10 45 e8	 movss	 xmm0, DWORD PTR _x_mid$[ebp]
  00e05	f3 0f 11 45 fc	 movss	 DWORD PTR _x1$[ebp], xmm0

; 1640 : 	x2 = x_end;

  00e0a	f3 0f 10 45 e4	 movss	 xmm0, DWORD PTR _x_end$[ebp]
  00e0f	f3 0f 11 45 f4	 movss	 DWORD PTR _x2$[ebp], xmm0

; 1641 : 
; 1642 : 	briefing_page_weather_box = create_ui_object

  00e14	6a 11		 push	 17			; 00000011H
  00e16	6a 01		 push	 1
  00e18	6a 07		 push	 7
  00e1a	0f b6 05 03 00
	00 00		 movzx	 eax, BYTE PTR ?ui_ingame_dead_text_colour@@3UREAL_COLOUR@@A+3
  00e21	50		 push	 eax
  00e22	0f b6 0d 00 00
	00 00		 movzx	 ecx, BYTE PTR ?ui_ingame_dead_text_colour@@3UREAL_COLOUR@@A
  00e29	51		 push	 ecx
  00e2a	0f b6 15 01 00
	00 00		 movzx	 edx, BYTE PTR ?ui_ingame_dead_text_colour@@3UREAL_COLOUR@@A+1
  00e31	52		 push	 edx
  00e32	0f b6 05 02 00
	00 00		 movzx	 eax, BYTE PTR ?ui_ingame_dead_text_colour@@3UREAL_COLOUR@@A+2
  00e39	50		 push	 eax
  00e3a	6a 13		 push	 19			; 00000013H
  00e3c	6a 00		 push	 0
  00e3e	6a 12		 push	 18			; 00000012H
  00e40	6a 01		 push	 1
  00e42	6a 4b		 push	 75			; 0000004bH
  00e44	68 00 00 00 00	 push	 OFFSET ??_C@_00CNPNBAHC@@
  00e49	6a 4a		 push	 74			; 0000004aH
  00e4b	f3 0f 10 45 f0	 movss	 xmm0, DWORD PTR _y2$[ebp]
  00e50	f3 0f 5c 45 f8	 subss	 xmm0, DWORD PTR _y1$[ebp]
  00e55	f3 0f 5a c0	 cvtss2sd xmm0, xmm0
  00e59	83 ec 08	 sub	 esp, 8
  00e5c	f2 0f 11 04 24	 movsd	 QWORD PTR [esp], xmm0
  00e61	f3 0f 10 45 f4	 movss	 xmm0, DWORD PTR _x2$[ebp]
  00e66	f3 0f 5c 45 fc	 subss	 xmm0, DWORD PTR _x1$[ebp]
  00e6b	f3 0f 5a c0	 cvtss2sd xmm0, xmm0
  00e6f	83 ec 08	 sub	 esp, 8
  00e72	f2 0f 11 04 24	 movsd	 QWORD PTR [esp], xmm0
  00e77	6a 59		 push	 89			; 00000059H
  00e79	f3 0f 5a 45 f8	 cvtss2sd xmm0, DWORD PTR _y1$[ebp]
  00e7e	83 ec 08	 sub	 esp, 8
  00e81	f2 0f 11 04 24	 movsd	 QWORD PTR [esp], xmm0
  00e86	f3 0f 5a 45 fc	 cvtss2sd xmm0, DWORD PTR _x1$[ebp]
  00e8b	83 ec 08	 sub	 esp, 8
  00e8e	f2 0f 11 04 24	 movsd	 QWORD PTR [esp], xmm0
  00e93	6a 58		 push	 88			; 00000058H
  00e95	8b 4d d8	 mov	 ecx, DWORD PTR _page$[ebp]
  00e98	51		 push	 ecx
  00e99	6a 32		 push	 50			; 00000032H
  00e9b	6a 01		 push	 1
  00e9d	e8 00 00 00 00	 call	 ?create_ui_object@@YAPAUUI_OBJECT@@HZZ ; create_ui_object
  00ea2	83 c4 6c	 add	 esp, 108		; 0000006cH
  00ea5	a3 00 00 00 00	 mov	 DWORD PTR ?briefing_page_weather_box@@3PAUUI_OBJECT@@A, eax

; 1643 : 			(
; 1644 : 				UI_TYPE_AREA,
; 1645 : 				UI_ATTR_PARENT (page),
; 1646 : 				UI_ATTR_VIRTUAL_POSITION (x1, y1),
; 1647 : 				UI_ATTR_VIRTUAL_SIZE (x2 - x1, y2 - y1),
; 1648 : 				UI_ATTR_TEXT (""),
; 1649 : 				UI_ATTR_TEXT_JUSTIFY (TEXT_JUSTIFY_LEFT_CENTRE),
; 1650 : 				UI_ATTR_FONT_TYPE (UI_FONT_ARIAL_10),
; 1651 : 				UI_ATTR_FONT_COLOUR (ui_ingame_dead_text_colour.r, ui_ingame_dead_text_colour.g, ui_ingame_dead_text_colour.b, ui_ingame_dead_text_colour.a),
; 1652 : 				UI_ATTR_CLEAR (TRUE),
; 1653 : 				UI_ATTR_END
; 1654 : 			);
; 1655 : 
; 1656 : 	/////////////////////////////////////////////////////////////////
; 1657 : 	// Wind box
; 1658 : 
; 1659 : 	x1 = x_start;

  00eaa	f3 0f 10 45 ec	 movss	 xmm0, DWORD PTR _x_start$[ebp]
  00eaf	f3 0f 11 45 fc	 movss	 DWORD PTR _x1$[ebp], xmm0

; 1660 : 	x2 = x_mid;

  00eb4	f3 0f 10 45 e8	 movss	 xmm0, DWORD PTR _x_mid$[ebp]
  00eb9	f3 0f 11 45 f4	 movss	 DWORD PTR _x2$[ebp], xmm0

; 1661 : 
; 1662 : 	y1 += yinc;

  00ebe	f3 0f 10 45 f8	 movss	 xmm0, DWORD PTR _y1$[ebp]
  00ec3	f3 0f 58 45 dc	 addss	 xmm0, DWORD PTR _yinc$[ebp]
  00ec8	f3 0f 11 45 f8	 movss	 DWORD PTR _y1$[ebp], xmm0

; 1663 : 	y2 = y1 + ysize;

  00ecd	f3 0f 10 45 f8	 movss	 xmm0, DWORD PTR _y1$[ebp]
  00ed2	f3 0f 58 45 e0	 addss	 xmm0, DWORD PTR _ysize$[ebp]
  00ed7	f3 0f 11 45 f0	 movss	 DWORD PTR _y2$[ebp], xmm0

; 1664 : 
; 1665 : 	sprintf (output, "%s :  ", get_trans ("Wind"));

  00edc	68 00 00 00 00	 push	 OFFSET ??_C@_04LGBIOLDJ@Wind@
  00ee1	e8 00 00 00 00	 call	 ?get_trans@@YGPBDPBD@Z	; get_trans
  00ee6	50		 push	 eax
  00ee7	68 00 00 00 00	 push	 OFFSET ??_C@_06IBDOBMFG@?$CFs?5?3?5?5@
  00eec	8d 45 98	 lea	 eax, DWORD PTR _output$[ebp]
  00eef	50		 push	 eax
  00ef0	e8 00 00 00 00	 call	 _sprintf
  00ef5	83 c4 0c	 add	 esp, 12			; 0000000cH

; 1666 : 			
; 1667 : 	create_ui_object

  00ef8	6a 11		 push	 17			; 00000011H
  00efa	6a 01		 push	 1
  00efc	6a 07		 push	 7
  00efe	0f b6 05 03 00
	00 00		 movzx	 eax, BYTE PTR ?ui_ingame_dead_text_colour@@3UREAL_COLOUR@@A+3
  00f05	50		 push	 eax
  00f06	0f b6 0d 00 00
	00 00		 movzx	 ecx, BYTE PTR ?ui_ingame_dead_text_colour@@3UREAL_COLOUR@@A
  00f0d	51		 push	 ecx
  00f0e	0f b6 15 01 00
	00 00		 movzx	 edx, BYTE PTR ?ui_ingame_dead_text_colour@@3UREAL_COLOUR@@A+1
  00f15	52		 push	 edx
  00f16	0f b6 05 02 00
	00 00		 movzx	 eax, BYTE PTR ?ui_ingame_dead_text_colour@@3UREAL_COLOUR@@A+2
  00f1d	50		 push	 eax
  00f1e	6a 13		 push	 19			; 00000013H
  00f20	6a 00		 push	 0
  00f22	6a 12		 push	 18			; 00000012H
  00f24	6a 02		 push	 2
  00f26	6a 4b		 push	 75			; 0000004bH
  00f28	8d 4d 98	 lea	 ecx, DWORD PTR _output$[ebp]
  00f2b	51		 push	 ecx
  00f2c	6a 4a		 push	 74			; 0000004aH
  00f2e	f3 0f 10 45 f0	 movss	 xmm0, DWORD PTR _y2$[ebp]
  00f33	f3 0f 5c 45 f8	 subss	 xmm0, DWORD PTR _y1$[ebp]
  00f38	f3 0f 5a c0	 cvtss2sd xmm0, xmm0
  00f3c	83 ec 08	 sub	 esp, 8
  00f3f	f2 0f 11 04 24	 movsd	 QWORD PTR [esp], xmm0
  00f44	f3 0f 10 45 f4	 movss	 xmm0, DWORD PTR _x2$[ebp]
  00f49	f3 0f 5c 45 fc	 subss	 xmm0, DWORD PTR _x1$[ebp]
  00f4e	f3 0f 5a c0	 cvtss2sd xmm0, xmm0
  00f52	83 ec 08	 sub	 esp, 8
  00f55	f2 0f 11 04 24	 movsd	 QWORD PTR [esp], xmm0
  00f5a	6a 59		 push	 89			; 00000059H
  00f5c	f3 0f 5a 45 f8	 cvtss2sd xmm0, DWORD PTR _y1$[ebp]
  00f61	83 ec 08	 sub	 esp, 8
  00f64	f2 0f 11 04 24	 movsd	 QWORD PTR [esp], xmm0
  00f69	f3 0f 5a 45 fc	 cvtss2sd xmm0, DWORD PTR _x1$[ebp]
  00f6e	83 ec 08	 sub	 esp, 8
  00f71	f2 0f 11 04 24	 movsd	 QWORD PTR [esp], xmm0
  00f76	6a 58		 push	 88			; 00000058H
  00f78	8b 55 d8	 mov	 edx, DWORD PTR _page$[ebp]
  00f7b	52		 push	 edx
  00f7c	6a 32		 push	 50			; 00000032H
  00f7e	6a 01		 push	 1
  00f80	e8 00 00 00 00	 call	 ?create_ui_object@@YAPAUUI_OBJECT@@HZZ ; create_ui_object
  00f85	83 c4 6c	 add	 esp, 108		; 0000006cH

; 1668 : 			(
; 1669 : 				UI_TYPE_AREA,
; 1670 : 				UI_ATTR_PARENT (page),
; 1671 : 				UI_ATTR_VIRTUAL_POSITION (x1, y1),
; 1672 : 				UI_ATTR_VIRTUAL_SIZE (x2 - x1, y2 - y1),
; 1673 : 				UI_ATTR_TEXT (output),
; 1674 : 				UI_ATTR_TEXT_JUSTIFY (TEXT_JUSTIFY_RIGHT_CENTRE),
; 1675 : 				UI_ATTR_FONT_TYPE (UI_FONT_ARIAL_10),
; 1676 : 				UI_ATTR_FONT_COLOUR (ui_ingame_dead_text_colour.r, ui_ingame_dead_text_colour.g, ui_ingame_dead_text_colour.b, ui_ingame_dead_text_colour.a),
; 1677 : 				UI_ATTR_CLEAR (TRUE),
; 1678 : 				UI_ATTR_END
; 1679 : 			);
; 1680 : 
; 1681 : 	x1 = x_mid;

  00f88	f3 0f 10 45 e8	 movss	 xmm0, DWORD PTR _x_mid$[ebp]
  00f8d	f3 0f 11 45 fc	 movss	 DWORD PTR _x1$[ebp], xmm0

; 1682 : 	x2 = x_end;

  00f92	f3 0f 10 45 e4	 movss	 xmm0, DWORD PTR _x_end$[ebp]
  00f97	f3 0f 11 45 f4	 movss	 DWORD PTR _x2$[ebp], xmm0

; 1683 : 
; 1684 : 	briefing_page_wind_box = create_ui_object

  00f9c	6a 11		 push	 17			; 00000011H
  00f9e	6a 01		 push	 1
  00fa0	6a 07		 push	 7
  00fa2	0f b6 05 03 00
	00 00		 movzx	 eax, BYTE PTR ?ui_ingame_dead_text_colour@@3UREAL_COLOUR@@A+3
  00fa9	50		 push	 eax
  00faa	0f b6 0d 00 00
	00 00		 movzx	 ecx, BYTE PTR ?ui_ingame_dead_text_colour@@3UREAL_COLOUR@@A
  00fb1	51		 push	 ecx
  00fb2	0f b6 15 01 00
	00 00		 movzx	 edx, BYTE PTR ?ui_ingame_dead_text_colour@@3UREAL_COLOUR@@A+1
  00fb9	52		 push	 edx
  00fba	0f b6 05 02 00
	00 00		 movzx	 eax, BYTE PTR ?ui_ingame_dead_text_colour@@3UREAL_COLOUR@@A+2
  00fc1	50		 push	 eax
  00fc2	6a 13		 push	 19			; 00000013H
  00fc4	6a 00		 push	 0
  00fc6	6a 12		 push	 18			; 00000012H
  00fc8	6a 01		 push	 1
  00fca	6a 4b		 push	 75			; 0000004bH
  00fcc	68 00 00 00 00	 push	 OFFSET ??_C@_00CNPNBAHC@@
  00fd1	6a 4a		 push	 74			; 0000004aH
  00fd3	f3 0f 10 45 f0	 movss	 xmm0, DWORD PTR _y2$[ebp]
  00fd8	f3 0f 5c 45 f8	 subss	 xmm0, DWORD PTR _y1$[ebp]
  00fdd	f3 0f 5a c0	 cvtss2sd xmm0, xmm0
  00fe1	83 ec 08	 sub	 esp, 8
  00fe4	f2 0f 11 04 24	 movsd	 QWORD PTR [esp], xmm0
  00fe9	f3 0f 10 45 f4	 movss	 xmm0, DWORD PTR _x2$[ebp]
  00fee	f3 0f 5c 45 fc	 subss	 xmm0, DWORD PTR _x1$[ebp]
  00ff3	f3 0f 5a c0	 cvtss2sd xmm0, xmm0
  00ff7	83 ec 08	 sub	 esp, 8
  00ffa	f2 0f 11 04 24	 movsd	 QWORD PTR [esp], xmm0
  00fff	6a 59		 push	 89			; 00000059H
  01001	f3 0f 5a 45 f8	 cvtss2sd xmm0, DWORD PTR _y1$[ebp]
  01006	83 ec 08	 sub	 esp, 8
  01009	f2 0f 11 04 24	 movsd	 QWORD PTR [esp], xmm0
  0100e	f3 0f 5a 45 fc	 cvtss2sd xmm0, DWORD PTR _x1$[ebp]
  01013	83 ec 08	 sub	 esp, 8
  01016	f2 0f 11 04 24	 movsd	 QWORD PTR [esp], xmm0
  0101b	6a 58		 push	 88			; 00000058H
  0101d	8b 4d d8	 mov	 ecx, DWORD PTR _page$[ebp]
  01020	51		 push	 ecx
  01021	6a 32		 push	 50			; 00000032H
  01023	6a 01		 push	 1
  01025	e8 00 00 00 00	 call	 ?create_ui_object@@YAPAUUI_OBJECT@@HZZ ; create_ui_object
  0102a	83 c4 6c	 add	 esp, 108		; 0000006cH
  0102d	a3 00 00 00 00	 mov	 DWORD PTR ?briefing_page_wind_box@@3PAUUI_OBJECT@@A, eax

; 1685 : 			(
; 1686 : 				UI_TYPE_AREA,
; 1687 : 				UI_ATTR_PARENT (page),
; 1688 : 				UI_ATTR_VIRTUAL_POSITION (x1, y1),
; 1689 : 				UI_ATTR_VIRTUAL_SIZE (x2 - x1, y2 - y1),
; 1690 : 				UI_ATTR_TEXT (""),
; 1691 : 				UI_ATTR_TEXT_JUSTIFY (TEXT_JUSTIFY_LEFT_CENTRE),
; 1692 : 				UI_ATTR_FONT_TYPE (UI_FONT_ARIAL_10),
; 1693 : 				UI_ATTR_FONT_COLOUR (ui_ingame_dead_text_colour.r, ui_ingame_dead_text_colour.g, ui_ingame_dead_text_colour.b, ui_ingame_dead_text_colour.a),
; 1694 : 				UI_ATTR_CLEAR (TRUE),
; 1695 : 				UI_ATTR_END
; 1696 : 			);
; 1697 : 
; 1698 : 	/////////////////////////////////////////////////////////////////
; 1699 : 	// Mission Pilot Lock Box
; 1700 : 
; 1701 : 	x1 = x_start;

  01032	f3 0f 10 45 ec	 movss	 xmm0, DWORD PTR _x_start$[ebp]
  01037	f3 0f 11 45 fc	 movss	 DWORD PTR _x1$[ebp], xmm0

; 1702 : 	x2 = x_mid;

  0103c	f3 0f 10 45 e8	 movss	 xmm0, DWORD PTR _x_mid$[ebp]
  01041	f3 0f 11 45 f4	 movss	 DWORD PTR _x2$[ebp], xmm0

; 1703 : 
; 1704 : 	y1 += yinc;

  01046	f3 0f 10 45 f8	 movss	 xmm0, DWORD PTR _y1$[ebp]
  0104b	f3 0f 58 45 dc	 addss	 xmm0, DWORD PTR _yinc$[ebp]
  01050	f3 0f 11 45 f8	 movss	 DWORD PTR _y1$[ebp], xmm0

; 1705 : 	y2 = y1 + ysize;

  01055	f3 0f 10 45 f8	 movss	 xmm0, DWORD PTR _y1$[ebp]
  0105a	f3 0f 58 45 e0	 addss	 xmm0, DWORD PTR _ysize$[ebp]
  0105f	f3 0f 11 45 f0	 movss	 DWORD PTR _y2$[ebp], xmm0

; 1706 : 
; 1707 : 	sprintf (output, "%s :  ", get_trans ("Locked By"));

  01064	68 00 00 00 00	 push	 OFFSET ??_C@_09NFKGPKNO@Locked?5By@
  01069	e8 00 00 00 00	 call	 ?get_trans@@YGPBDPBD@Z	; get_trans
  0106e	50		 push	 eax
  0106f	68 00 00 00 00	 push	 OFFSET ??_C@_06IBDOBMFG@?$CFs?5?3?5?5@
  01074	8d 45 98	 lea	 eax, DWORD PTR _output$[ebp]
  01077	50		 push	 eax
  01078	e8 00 00 00 00	 call	 _sprintf
  0107d	83 c4 0c	 add	 esp, 12			; 0000000cH

; 1708 : 			
; 1709 : 	create_ui_object

  01080	6a 11		 push	 17			; 00000011H
  01082	6a 01		 push	 1
  01084	6a 07		 push	 7
  01086	0f b6 05 03 00
	00 00		 movzx	 eax, BYTE PTR ?ui_ingame_dead_text_colour@@3UREAL_COLOUR@@A+3
  0108d	50		 push	 eax
  0108e	0f b6 0d 00 00
	00 00		 movzx	 ecx, BYTE PTR ?ui_ingame_dead_text_colour@@3UREAL_COLOUR@@A
  01095	51		 push	 ecx
  01096	0f b6 15 01 00
	00 00		 movzx	 edx, BYTE PTR ?ui_ingame_dead_text_colour@@3UREAL_COLOUR@@A+1
  0109d	52		 push	 edx
  0109e	0f b6 05 02 00
	00 00		 movzx	 eax, BYTE PTR ?ui_ingame_dead_text_colour@@3UREAL_COLOUR@@A+2
  010a5	50		 push	 eax
  010a6	6a 13		 push	 19			; 00000013H
  010a8	6a 00		 push	 0
  010aa	6a 12		 push	 18			; 00000012H
  010ac	6a 02		 push	 2
  010ae	6a 4b		 push	 75			; 0000004bH
  010b0	8d 4d 98	 lea	 ecx, DWORD PTR _output$[ebp]
  010b3	51		 push	 ecx
  010b4	6a 4a		 push	 74			; 0000004aH
  010b6	f3 0f 10 45 f0	 movss	 xmm0, DWORD PTR _y2$[ebp]
  010bb	f3 0f 5c 45 f8	 subss	 xmm0, DWORD PTR _y1$[ebp]
  010c0	f3 0f 5a c0	 cvtss2sd xmm0, xmm0
  010c4	83 ec 08	 sub	 esp, 8
  010c7	f2 0f 11 04 24	 movsd	 QWORD PTR [esp], xmm0
  010cc	f3 0f 10 45 f4	 movss	 xmm0, DWORD PTR _x2$[ebp]
  010d1	f3 0f 5c 45 fc	 subss	 xmm0, DWORD PTR _x1$[ebp]
  010d6	f3 0f 5a c0	 cvtss2sd xmm0, xmm0
  010da	83 ec 08	 sub	 esp, 8
  010dd	f2 0f 11 04 24	 movsd	 QWORD PTR [esp], xmm0
  010e2	6a 59		 push	 89			; 00000059H
  010e4	f3 0f 5a 45 f8	 cvtss2sd xmm0, DWORD PTR _y1$[ebp]
  010e9	83 ec 08	 sub	 esp, 8
  010ec	f2 0f 11 04 24	 movsd	 QWORD PTR [esp], xmm0
  010f1	f3 0f 5a 45 fc	 cvtss2sd xmm0, DWORD PTR _x1$[ebp]
  010f6	83 ec 08	 sub	 esp, 8
  010f9	f2 0f 11 04 24	 movsd	 QWORD PTR [esp], xmm0
  010fe	6a 58		 push	 88			; 00000058H
  01100	8b 55 d8	 mov	 edx, DWORD PTR _page$[ebp]
  01103	52		 push	 edx
  01104	6a 32		 push	 50			; 00000032H
  01106	6a 01		 push	 1
  01108	e8 00 00 00 00	 call	 ?create_ui_object@@YAPAUUI_OBJECT@@HZZ ; create_ui_object
  0110d	83 c4 6c	 add	 esp, 108		; 0000006cH

; 1710 : 			(
; 1711 : 				UI_TYPE_AREA,
; 1712 : 				UI_ATTR_PARENT (page),
; 1713 : 				UI_ATTR_VIRTUAL_POSITION (x1, y1),
; 1714 : 				UI_ATTR_VIRTUAL_SIZE (x2 - x1, y2 - y1),
; 1715 : 				UI_ATTR_TEXT (output),
; 1716 : 				UI_ATTR_TEXT_JUSTIFY (TEXT_JUSTIFY_RIGHT_CENTRE),
; 1717 : 				UI_ATTR_FONT_TYPE (UI_FONT_ARIAL_10),
; 1718 : 				UI_ATTR_FONT_COLOUR (ui_ingame_dead_text_colour.r, ui_ingame_dead_text_colour.g, ui_ingame_dead_text_colour.b, ui_ingame_dead_text_colour.a),
; 1719 : 				UI_ATTR_CLEAR (TRUE),
; 1720 : 				UI_ATTR_END
; 1721 : 			);
; 1722 : 
; 1723 : 	x1 = x_mid;

  01110	f3 0f 10 45 e8	 movss	 xmm0, DWORD PTR _x_mid$[ebp]
  01115	f3 0f 11 45 fc	 movss	 DWORD PTR _x1$[ebp], xmm0

; 1724 : 	x2 = x_end;

  0111a	f3 0f 10 45 e4	 movss	 xmm0, DWORD PTR _x_end$[ebp]
  0111f	f3 0f 11 45 f4	 movss	 DWORD PTR _x2$[ebp], xmm0

; 1725 : 
; 1726 : 	briefing_page_pilot_lock_box = create_ui_object

  01124	6a 11		 push	 17			; 00000011H
  01126	6a 01		 push	 1
  01128	6a 07		 push	 7
  0112a	6a 00		 push	 0
  0112c	6a 12		 push	 18			; 00000012H
  0112e	0f b6 05 03 00
	00 00		 movzx	 eax, BYTE PTR ?ui_ingame_selected_text_colour@@3UREAL_COLOUR@@A+3
  01135	50		 push	 eax
  01136	0f b6 0d 00 00
	00 00		 movzx	 ecx, BYTE PTR ?ui_ingame_selected_text_colour@@3UREAL_COLOUR@@A
  0113d	51		 push	 ecx
  0113e	0f b6 15 01 00
	00 00		 movzx	 edx, BYTE PTR ?ui_ingame_selected_text_colour@@3UREAL_COLOUR@@A+1
  01145	52		 push	 edx
  01146	0f b6 05 02 00
	00 00		 movzx	 eax, BYTE PTR ?ui_ingame_selected_text_colour@@3UREAL_COLOUR@@A+2
  0114d	50		 push	 eax
  0114e	6a 13		 push	 19			; 00000013H
  01150	6a 01		 push	 1
  01152	6a 4b		 push	 75			; 0000004bH
  01154	68 00 00 00 00	 push	 OFFSET ??_C@_00CNPNBAHC@@
  01159	6a 4a		 push	 74			; 0000004aH
  0115b	f3 0f 10 45 f0	 movss	 xmm0, DWORD PTR _y2$[ebp]
  01160	f3 0f 5c 45 f8	 subss	 xmm0, DWORD PTR _y1$[ebp]
  01165	f3 0f 5a c0	 cvtss2sd xmm0, xmm0
  01169	83 ec 08	 sub	 esp, 8
  0116c	f2 0f 11 04 24	 movsd	 QWORD PTR [esp], xmm0
  01171	f3 0f 10 45 f4	 movss	 xmm0, DWORD PTR _x2$[ebp]
  01176	f3 0f 5c 45 fc	 subss	 xmm0, DWORD PTR _x1$[ebp]
  0117b	f3 0f 5a c0	 cvtss2sd xmm0, xmm0
  0117f	83 ec 08	 sub	 esp, 8
  01182	f2 0f 11 04 24	 movsd	 QWORD PTR [esp], xmm0
  01187	6a 59		 push	 89			; 00000059H
  01189	f3 0f 5a 45 f8	 cvtss2sd xmm0, DWORD PTR _y1$[ebp]
  0118e	83 ec 08	 sub	 esp, 8
  01191	f2 0f 11 04 24	 movsd	 QWORD PTR [esp], xmm0
  01196	f3 0f 5a 45 fc	 cvtss2sd xmm0, DWORD PTR _x1$[ebp]
  0119b	83 ec 08	 sub	 esp, 8
  0119e	f2 0f 11 04 24	 movsd	 QWORD PTR [esp], xmm0
  011a3	6a 58		 push	 88			; 00000058H
  011a5	8b 4d d8	 mov	 ecx, DWORD PTR _page$[ebp]
  011a8	51		 push	 ecx
  011a9	6a 32		 push	 50			; 00000032H
  011ab	6a 01		 push	 1
  011ad	e8 00 00 00 00	 call	 ?create_ui_object@@YAPAUUI_OBJECT@@HZZ ; create_ui_object
  011b2	83 c4 6c	 add	 esp, 108		; 0000006cH
  011b5	a3 00 00 00 00	 mov	 DWORD PTR ?briefing_page_pilot_lock_box@@3PAUUI_OBJECT@@A, eax

; 1727 : 			(
; 1728 : 				UI_TYPE_AREA,
; 1729 : 				UI_ATTR_PARENT (page),
; 1730 : 				UI_ATTR_VIRTUAL_POSITION (x1, y1),
; 1731 : 				UI_ATTR_VIRTUAL_SIZE (x2 - x1, y2 - y1),
; 1732 : 				UI_ATTR_TEXT (""),
; 1733 : 				UI_ATTR_TEXT_JUSTIFY (TEXT_JUSTIFY_LEFT_CENTRE),
; 1734 : 				UI_ATTR_FONT_COLOUR (ui_ingame_selected_text_colour.r, ui_ingame_selected_text_colour.g, ui_ingame_selected_text_colour.b, ui_ingame_selected_text_colour.a),
; 1735 : 				UI_ATTR_FONT_TYPE (UI_FONT_ARIAL_10),
; 1736 : 				UI_ATTR_CLEAR (TRUE),
; 1737 : 				UI_ATTR_END
; 1738 : 			);
; 1739 : 
; 1740 : 	/////////////////////////////////////////////////////////////////
; 1741 : 	// 2D MAP / 3D VIEW area
; 1742 : 
; 1743 : 	x1 = 0.5;

  011ba	f3 0f 10 05 00
	00 00 00	 movss	 xmm0, DWORD PTR __real@3f000000
  011c2	f3 0f 11 45 fc	 movss	 DWORD PTR _x1$[ebp], xmm0

; 1744 : 	y1 = 0.0;

  011c7	0f 57 c0	 xorps	 xmm0, xmm0
  011ca	f3 0f 11 45 f8	 movss	 DWORD PTR _y1$[ebp], xmm0

; 1745 : 	x2 = 1.0;

  011cf	f3 0f 10 05 00
	00 00 00	 movss	 xmm0, DWORD PTR __real@3f800000
  011d7	f3 0f 11 45 f4	 movss	 DWORD PTR _x2$[ebp], xmm0

; 1746 : 	y2 = 0.67;

  011dc	f3 0f 10 05 00
	00 00 00	 movss	 xmm0, DWORD PTR __real@3f2b851f
  011e4	f3 0f 11 45 f0	 movss	 DWORD PTR _y2$[ebp], xmm0

; 1747 : 
; 1748 : 	page_map_view_area = create_ui_object

  011e9	6a 11		 push	 17			; 00000011H
  011eb	68 00 00 00 00	 push	 OFFSET ??_C@_0CF@CLPKPOMP@graphics?2ui?2cohokum?2map?2blockpr@
  011f0	e8 00 00 00 00	 call	 ?create_texture_graphic@@YGPAUTEXTURE_GRAPHIC@@PBD@Z ; create_texture_graphic
  011f5	50		 push	 eax
  011f6	6a 4c		 push	 76			; 0000004cH
  011f8	f3 0f 10 45 f0	 movss	 xmm0, DWORD PTR _y2$[ebp]
  011fd	f3 0f 5c 45 f8	 subss	 xmm0, DWORD PTR _y1$[ebp]
  01202	f3 0f 5a c0	 cvtss2sd xmm0, xmm0
  01206	83 ec 08	 sub	 esp, 8
  01209	f2 0f 11 04 24	 movsd	 QWORD PTR [esp], xmm0
  0120e	f3 0f 10 45 f4	 movss	 xmm0, DWORD PTR _x2$[ebp]
  01213	f3 0f 5c 45 fc	 subss	 xmm0, DWORD PTR _x1$[ebp]
  01218	f3 0f 5a c0	 cvtss2sd xmm0, xmm0
  0121c	83 ec 08	 sub	 esp, 8
  0121f	f2 0f 11 04 24	 movsd	 QWORD PTR [esp], xmm0
  01224	6a 59		 push	 89			; 00000059H
  01226	f3 0f 5a 45 f8	 cvtss2sd xmm0, DWORD PTR _y1$[ebp]
  0122b	83 ec 08	 sub	 esp, 8
  0122e	f2 0f 11 04 24	 movsd	 QWORD PTR [esp], xmm0
  01233	f3 0f 5a 45 fc	 cvtss2sd xmm0, DWORD PTR _x1$[ebp]
  01238	83 ec 08	 sub	 esp, 8
  0123b	f2 0f 11 04 24	 movsd	 QWORD PTR [esp], xmm0
  01240	6a 58		 push	 88			; 00000058H
  01242	8b 45 d8	 mov	 eax, DWORD PTR _page$[ebp]
  01245	50		 push	 eax
  01246	6a 32		 push	 50			; 00000032H
  01248	6a 01		 push	 1
  0124a	e8 00 00 00 00	 call	 ?create_ui_object@@YAPAUUI_OBJECT@@HZZ ; create_ui_object
  0124f	83 c4 40	 add	 esp, 64			; 00000040H
  01252	a3 00 00 00 00	 mov	 DWORD PTR ?page_map_view_area@@3PAUUI_OBJECT@@A, eax

; 1749 : 			(
; 1750 : 				UI_TYPE_AREA,
; 1751 : 				UI_ATTR_PARENT (page),
; 1752 : 				UI_ATTR_VIRTUAL_POSITION (x1, y1),
; 1753 : 				UI_ATTR_VIRTUAL_SIZE (x2 - x1, y2 - y1),
; 1754 : 				UI_ATTR_TEXTURE_GRAPHIC (create_texture_graphic ("graphics\\ui\\cohokum\\map\\blockprp.psd")),
; 1755 : 				UI_ATTR_END
; 1756 : 			);
; 1757 : 
; 1758 : 	/////////////////////////////////////////////////////////////////
; 1759 : 	// 2D MAP / 3D VIEW toggles
; 1760 : 
; 1761 : 	x1 = 0.5;

  01257	f3 0f 10 05 00
	00 00 00	 movss	 xmm0, DWORD PTR __real@3f000000
  0125f	f3 0f 11 45 fc	 movss	 DWORD PTR _x1$[ebp], xmm0

; 1762 : 	y1 = 0.67;

  01264	f3 0f 10 05 00
	00 00 00	 movss	 xmm0, DWORD PTR __real@3f2b851f
  0126c	f3 0f 11 45 f8	 movss	 DWORD PTR _y1$[ebp], xmm0

; 1763 : 	x2 = 1.0;

  01271	f3 0f 10 05 00
	00 00 00	 movss	 xmm0, DWORD PTR __real@3f800000
  01279	f3 0f 11 45 f4	 movss	 DWORD PTR _x2$[ebp], xmm0

; 1764 : 	y2 = 0.71;

  0127e	f3 0f 10 05 00
	00 00 00	 movss	 xmm0, DWORD PTR __real@3f35c28f
  01286	f3 0f 11 45 f0	 movss	 DWORD PTR _y2$[ebp], xmm0

; 1765 : 
; 1766 : 	page_map_view_mode_area = create_ui_object

  0128b	6a 11		 push	 17			; 00000011H
  0128d	68 00 00 00 00	 push	 OFFSET ??_C@_0CE@KCJGKOCO@graphics?2ui?2cohokum?2map?2maptabs@
  01292	e8 00 00 00 00	 call	 ?create_texture_graphic@@YGPAUTEXTURE_GRAPHIC@@PBD@Z ; create_texture_graphic
  01297	50		 push	 eax
  01298	6a 4c		 push	 76			; 0000004cH
  0129a	f3 0f 10 45 f0	 movss	 xmm0, DWORD PTR _y2$[ebp]
  0129f	f3 0f 5c 45 f8	 subss	 xmm0, DWORD PTR _y1$[ebp]
  012a4	f3 0f 5a c0	 cvtss2sd xmm0, xmm0
  012a8	83 ec 08	 sub	 esp, 8
  012ab	f2 0f 11 04 24	 movsd	 QWORD PTR [esp], xmm0
  012b0	f3 0f 10 45 f4	 movss	 xmm0, DWORD PTR _x2$[ebp]
  012b5	f3 0f 5c 45 fc	 subss	 xmm0, DWORD PTR _x1$[ebp]
  012ba	f3 0f 5a c0	 cvtss2sd xmm0, xmm0
  012be	83 ec 08	 sub	 esp, 8
  012c1	f2 0f 11 04 24	 movsd	 QWORD PTR [esp], xmm0
  012c6	6a 59		 push	 89			; 00000059H
  012c8	f3 0f 5a 45 f8	 cvtss2sd xmm0, DWORD PTR _y1$[ebp]
  012cd	83 ec 08	 sub	 esp, 8
  012d0	f2 0f 11 04 24	 movsd	 QWORD PTR [esp], xmm0
  012d5	f3 0f 5a 45 fc	 cvtss2sd xmm0, DWORD PTR _x1$[ebp]
  012da	83 ec 08	 sub	 esp, 8
  012dd	f2 0f 11 04 24	 movsd	 QWORD PTR [esp], xmm0
  012e2	6a 58		 push	 88			; 00000058H
  012e4	8b 45 d8	 mov	 eax, DWORD PTR _page$[ebp]
  012e7	50		 push	 eax
  012e8	6a 32		 push	 50			; 00000032H
  012ea	6a 01		 push	 1
  012ec	e8 00 00 00 00	 call	 ?create_ui_object@@YAPAUUI_OBJECT@@HZZ ; create_ui_object
  012f1	83 c4 40	 add	 esp, 64			; 00000040H
  012f4	a3 00 00 00 00	 mov	 DWORD PTR ?page_map_view_mode_area@@3PAUUI_OBJECT@@A, eax

; 1767 : 			(
; 1768 : 				UI_TYPE_AREA,
; 1769 : 				UI_ATTR_PARENT (page),
; 1770 : 				UI_ATTR_VIRTUAL_POSITION (x1, y1),
; 1771 : 				UI_ATTR_VIRTUAL_SIZE (x2 - x1, y2 - y1),
; 1772 : 				UI_ATTR_TEXTURE_GRAPHIC (create_texture_graphic ("graphics\\ui\\cohokum\\map\\maptabs.psd")),
; 1773 : 				UI_ATTR_END
; 1774 : 			);
; 1775 : 
; 1776 : 	// 2d map toggle
; 1777 : 
; 1778 : 	x1 = 0.0;

  012f9	0f 57 c0	 xorps	 xmm0, xmm0
  012fc	f3 0f 11 45 fc	 movss	 DWORD PTR _x1$[ebp], xmm0

; 1779 : 	y1 = 0.0;

  01301	0f 57 c0	 xorps	 xmm0, xmm0
  01304	f3 0f 11 45 f8	 movss	 DWORD PTR _y1$[ebp], xmm0

; 1780 : 	x2 = 0.33;

  01309	f3 0f 10 05 00
	00 00 00	 movss	 xmm0, DWORD PTR __real@3ea8f5c3
  01311	f3 0f 11 45 f4	 movss	 DWORD PTR _x2$[ebp], xmm0

; 1781 : 	y2 = 1.0;

  01316	f3 0f 10 05 00
	00 00 00	 movss	 xmm0, DWORD PTR __real@3f800000
  0131e	f3 0f 11 45 f0	 movss	 DWORD PTR _y2$[ebp], xmm0

; 1782 : 
; 1783 : 	page_map_toggle = create_ui_object

  01323	6a 11		 push	 17			; 00000011H
  01325	6a 01		 push	 1
  01327	6a 07		 push	 7
  01329	6a 01		 push	 1
  0132b	6a 1b		 push	 27			; 0000001bH
  0132d	0f b6 05 03 00
	00 00		 movzx	 eax, BYTE PTR ?ui_ingame_selected_text_colour@@3UREAL_COLOUR@@A+3
  01334	50		 push	 eax
  01335	0f b6 0d 00 00
	00 00		 movzx	 ecx, BYTE PTR ?ui_ingame_selected_text_colour@@3UREAL_COLOUR@@A
  0133c	51		 push	 ecx
  0133d	0f b6 15 01 00
	00 00		 movzx	 edx, BYTE PTR ?ui_ingame_selected_text_colour@@3UREAL_COLOUR@@A+1
  01344	52		 push	 edx
  01345	0f b6 05 02 00
	00 00		 movzx	 eax, BYTE PTR ?ui_ingame_selected_text_colour@@3UREAL_COLOUR@@A+2
  0134c	50		 push	 eax
  0134d	6a 3d		 push	 61			; 0000003dH
  0134f	0f b6 0d 03 00
	00 00		 movzx	 ecx, BYTE PTR ?ui_ingame_highlight_text_colour@@3UREAL_COLOUR@@A+3
  01356	51		 push	 ecx
  01357	0f b6 15 00 00
	00 00		 movzx	 edx, BYTE PTR ?ui_ingame_highlight_text_colour@@3UREAL_COLOUR@@A
  0135e	52		 push	 edx
  0135f	0f b6 05 01 00
	00 00		 movzx	 eax, BYTE PTR ?ui_ingame_highlight_text_colour@@3UREAL_COLOUR@@A+1
  01366	50		 push	 eax
  01367	0f b6 0d 02 00
	00 00		 movzx	 ecx, BYTE PTR ?ui_ingame_highlight_text_colour@@3UREAL_COLOUR@@A+2
  0136e	51		 push	 ecx
  0136f	6a 21		 push	 33			; 00000021H
  01371	0f b6 15 03 00
	00 00		 movzx	 edx, BYTE PTR ?ui_ingame_live_text_colour@@3UREAL_COLOUR@@A+3
  01378	52		 push	 edx
  01379	0f b6 05 00 00
	00 00		 movzx	 eax, BYTE PTR ?ui_ingame_live_text_colour@@3UREAL_COLOUR@@A
  01380	50		 push	 eax
  01381	0f b6 0d 01 00
	00 00		 movzx	 ecx, BYTE PTR ?ui_ingame_live_text_colour@@3UREAL_COLOUR@@A+1
  01388	51		 push	 ecx
  01389	0f b6 15 02 00
	00 00		 movzx	 edx, BYTE PTR ?ui_ingame_live_text_colour@@3UREAL_COLOUR@@A+2
  01390	52		 push	 edx
  01391	6a 13		 push	 19			; 00000013H
  01393	6a 00		 push	 0
  01395	6a 12		 push	 18			; 00000012H
  01397	68 00 00 00 00	 push	 OFFSET ?notify_page_show_map@@YGXPAUUI_OBJECT@@PAX@Z ; notify_page_show_map
  0139c	6a 16		 push	 22			; 00000016H
  0139e	68 00 00 00 00	 push	 OFFSET ??_C@_03NBOPHIOC@Map@
  013a3	e8 00 00 00 00	 call	 ?get_trans@@YGPBDPBD@Z	; get_trans
  013a8	50		 push	 eax
  013a9	6a 4a		 push	 74			; 0000004aH
  013ab	f3 0f 10 45 f0	 movss	 xmm0, DWORD PTR _y2$[ebp]
  013b0	f3 0f 5c 45 f8	 subss	 xmm0, DWORD PTR _y1$[ebp]
  013b5	f3 0f 5a c0	 cvtss2sd xmm0, xmm0
  013b9	83 ec 08	 sub	 esp, 8
  013bc	f2 0f 11 04 24	 movsd	 QWORD PTR [esp], xmm0
  013c1	f3 0f 10 45 f4	 movss	 xmm0, DWORD PTR _x2$[ebp]
  013c6	f3 0f 5c 45 fc	 subss	 xmm0, DWORD PTR _x1$[ebp]
  013cb	f3 0f 5a c0	 cvtss2sd xmm0, xmm0
  013cf	83 ec 08	 sub	 esp, 8
  013d2	f2 0f 11 04 24	 movsd	 QWORD PTR [esp], xmm0
  013d7	6a 59		 push	 89			; 00000059H
  013d9	f3 0f 5a 45 f8	 cvtss2sd xmm0, DWORD PTR _y1$[ebp]
  013de	83 ec 08	 sub	 esp, 8
  013e1	f2 0f 11 04 24	 movsd	 QWORD PTR [esp], xmm0
  013e6	f3 0f 5a 45 fc	 cvtss2sd xmm0, DWORD PTR _x1$[ebp]
  013eb	83 ec 08	 sub	 esp, 8
  013ee	f2 0f 11 04 24	 movsd	 QWORD PTR [esp], xmm0
  013f3	6a 58		 push	 88			; 00000058H
  013f5	a1 00 00 00 00	 mov	 eax, DWORD PTR ?page_map_view_mode_area@@3PAUUI_OBJECT@@A
  013fa	50		 push	 eax
  013fb	6a 32		 push	 50			; 00000032H
  013fd	6a 03		 push	 3
  013ff	e8 00 00 00 00	 call	 ?create_ui_object@@YAPAUUI_OBJECT@@HZZ ; create_ui_object
  01404	81 c4 9c 00 00
	00		 add	 esp, 156		; 0000009cH
  0140a	a3 00 00 00 00	 mov	 DWORD PTR ?page_map_toggle@@3PAUUI_OBJECT@@A, eax

; 1784 : 			(
; 1785 : 				UI_TYPE_RADIO,
; 1786 : 				UI_ATTR_PARENT (page_map_view_mode_area),
; 1787 : 				UI_ATTR_VIRTUAL_POSITION (x1, y1),
; 1788 : 				UI_ATTR_VIRTUAL_SIZE (x2 - x1, y2 - y1),
; 1789 : 				UI_ATTR_TEXT (get_trans ("Map")),
; 1790 : 				UI_ATTR_FUNCTION (notify_page_show_map),
; 1791 : 				UI_ATTR_FONT_TYPE (UI_FONT_ARIAL_10),
; 1792 : 				UI_ATTR_FONT_COLOUR (ui_ingame_live_text_colour.r, ui_ingame_live_text_colour.g, ui_ingame_live_text_colour.b, ui_ingame_live_text_colour.a),
; 1793 : 				UI_ATTR_HIGHLIGHTED_FONT_COLOUR (ui_ingame_highlight_text_colour.r, ui_ingame_highlight_text_colour.g, ui_ingame_highlight_text_colour.b, ui_ingame_highlight_text_colour.a),
; 1794 : 				UI_ATTR_SELECTED_FONT_COLOUR (ui_ingame_selected_text_colour.r, ui_ingame_selected_text_colour.g, ui_ingame_selected_text_colour.b, ui_ingame_selected_text_colour.a),
; 1795 : 				UI_ATTR_HIGHLIGHTABLE (TRUE),
; 1796 : 				UI_ATTR_CLEAR (TRUE),
; 1797 : 				UI_ATTR_END
; 1798 : 			);
; 1799 : 
; 1800 : 	// 3d view toggle
; 1801 : 
; 1802 : 	x1 = 0.33;

  0140f	f3 0f 10 05 00
	00 00 00	 movss	 xmm0, DWORD PTR __real@3ea8f5c3
  01417	f3 0f 11 45 fc	 movss	 DWORD PTR _x1$[ebp], xmm0

; 1803 : 	y1 = 0.0;

  0141c	0f 57 c0	 xorps	 xmm0, xmm0
  0141f	f3 0f 11 45 f8	 movss	 DWORD PTR _y1$[ebp], xmm0

; 1804 : 	x2 = 0.66;

  01424	f3 0f 10 05 00
	00 00 00	 movss	 xmm0, DWORD PTR __real@3f28f5c3
  0142c	f3 0f 11 45 f4	 movss	 DWORD PTR _x2$[ebp], xmm0

; 1805 : 	y2 = 1.0;

  01431	f3 0f 10 05 00
	00 00 00	 movss	 xmm0, DWORD PTR __real@3f800000
  01439	f3 0f 11 45 f0	 movss	 DWORD PTR _y2$[ebp], xmm0

; 1806 : 
; 1807 : 	page_3d_toggle = create_ui_object

  0143e	6a 11		 push	 17			; 00000011H
  01440	6a 01		 push	 1
  01442	6a 07		 push	 7
  01444	6a 01		 push	 1
  01446	6a 1b		 push	 27			; 0000001bH
  01448	0f b6 05 03 00
	00 00		 movzx	 eax, BYTE PTR ?ui_ingame_selected_text_colour@@3UREAL_COLOUR@@A+3
  0144f	50		 push	 eax
  01450	0f b6 0d 00 00
	00 00		 movzx	 ecx, BYTE PTR ?ui_ingame_selected_text_colour@@3UREAL_COLOUR@@A
  01457	51		 push	 ecx
  01458	0f b6 15 01 00
	00 00		 movzx	 edx, BYTE PTR ?ui_ingame_selected_text_colour@@3UREAL_COLOUR@@A+1
  0145f	52		 push	 edx
  01460	0f b6 05 02 00
	00 00		 movzx	 eax, BYTE PTR ?ui_ingame_selected_text_colour@@3UREAL_COLOUR@@A+2
  01467	50		 push	 eax
  01468	6a 3d		 push	 61			; 0000003dH
  0146a	0f b6 0d 03 00
	00 00		 movzx	 ecx, BYTE PTR ?ui_ingame_highlight_text_colour@@3UREAL_COLOUR@@A+3
  01471	51		 push	 ecx
  01472	0f b6 15 00 00
	00 00		 movzx	 edx, BYTE PTR ?ui_ingame_highlight_text_colour@@3UREAL_COLOUR@@A
  01479	52		 push	 edx
  0147a	0f b6 05 01 00
	00 00		 movzx	 eax, BYTE PTR ?ui_ingame_highlight_text_colour@@3UREAL_COLOUR@@A+1
  01481	50		 push	 eax
  01482	0f b6 0d 02 00
	00 00		 movzx	 ecx, BYTE PTR ?ui_ingame_highlight_text_colour@@3UREAL_COLOUR@@A+2
  01489	51		 push	 ecx
  0148a	6a 21		 push	 33			; 00000021H
  0148c	0f b6 15 03 00
	00 00		 movzx	 edx, BYTE PTR ?ui_ingame_live_text_colour@@3UREAL_COLOUR@@A+3
  01493	52		 push	 edx
  01494	0f b6 05 00 00
	00 00		 movzx	 eax, BYTE PTR ?ui_ingame_live_text_colour@@3UREAL_COLOUR@@A
  0149b	50		 push	 eax
  0149c	0f b6 0d 01 00
	00 00		 movzx	 ecx, BYTE PTR ?ui_ingame_live_text_colour@@3UREAL_COLOUR@@A+1
  014a3	51		 push	 ecx
  014a4	0f b6 15 02 00
	00 00		 movzx	 edx, BYTE PTR ?ui_ingame_live_text_colour@@3UREAL_COLOUR@@A+2
  014ab	52		 push	 edx
  014ac	6a 13		 push	 19			; 00000013H
  014ae	6a 00		 push	 0
  014b0	6a 12		 push	 18			; 00000012H
  014b2	68 00 00 00 00	 push	 OFFSET ?notify_page_show_3d@@YGXPAUUI_OBJECT@@PAX@Z ; notify_page_show_3d
  014b7	6a 16		 push	 22			; 00000016H
  014b9	68 00 00 00 00	 push	 OFFSET ??_C@_04OGMCGMPK@View@
  014be	e8 00 00 00 00	 call	 ?get_trans@@YGPBDPBD@Z	; get_trans
  014c3	50		 push	 eax
  014c4	6a 4a		 push	 74			; 0000004aH
  014c6	f3 0f 10 45 f0	 movss	 xmm0, DWORD PTR _y2$[ebp]
  014cb	f3 0f 5c 45 f8	 subss	 xmm0, DWORD PTR _y1$[ebp]
  014d0	f3 0f 5a c0	 cvtss2sd xmm0, xmm0
  014d4	83 ec 08	 sub	 esp, 8
  014d7	f2 0f 11 04 24	 movsd	 QWORD PTR [esp], xmm0
  014dc	f3 0f 10 45 f4	 movss	 xmm0, DWORD PTR _x2$[ebp]
  014e1	f3 0f 5c 45 fc	 subss	 xmm0, DWORD PTR _x1$[ebp]
  014e6	f3 0f 5a c0	 cvtss2sd xmm0, xmm0
  014ea	83 ec 08	 sub	 esp, 8
  014ed	f2 0f 11 04 24	 movsd	 QWORD PTR [esp], xmm0
  014f2	6a 59		 push	 89			; 00000059H
  014f4	f3 0f 5a 45 f8	 cvtss2sd xmm0, DWORD PTR _y1$[ebp]
  014f9	83 ec 08	 sub	 esp, 8
  014fc	f2 0f 11 04 24	 movsd	 QWORD PTR [esp], xmm0
  01501	f3 0f 5a 45 fc	 cvtss2sd xmm0, DWORD PTR _x1$[ebp]
  01506	83 ec 08	 sub	 esp, 8
  01509	f2 0f 11 04 24	 movsd	 QWORD PTR [esp], xmm0
  0150e	6a 58		 push	 88			; 00000058H
  01510	a1 00 00 00 00	 mov	 eax, DWORD PTR ?page_map_view_mode_area@@3PAUUI_OBJECT@@A
  01515	50		 push	 eax
  01516	6a 32		 push	 50			; 00000032H
  01518	6a 03		 push	 3
  0151a	e8 00 00 00 00	 call	 ?create_ui_object@@YAPAUUI_OBJECT@@HZZ ; create_ui_object
  0151f	81 c4 9c 00 00
	00		 add	 esp, 156		; 0000009cH
  01525	a3 00 00 00 00	 mov	 DWORD PTR ?page_3d_toggle@@3PAUUI_OBJECT@@A, eax

; 1808 : 			(
; 1809 : 				UI_TYPE_RADIO,
; 1810 : 				UI_ATTR_PARENT (page_map_view_mode_area),
; 1811 : 				UI_ATTR_VIRTUAL_POSITION (x1, y1),
; 1812 : 				UI_ATTR_VIRTUAL_SIZE (x2 - x1, y2 - y1),
; 1813 : 				UI_ATTR_TEXT (get_trans ("View")),
; 1814 : 				UI_ATTR_FUNCTION (notify_page_show_3d),
; 1815 : 				UI_ATTR_FONT_TYPE (UI_FONT_ARIAL_10),
; 1816 : 				UI_ATTR_FONT_COLOUR (ui_ingame_live_text_colour.r, ui_ingame_live_text_colour.g, ui_ingame_live_text_colour.b, ui_ingame_live_text_colour.a),
; 1817 : 				UI_ATTR_HIGHLIGHTED_FONT_COLOUR (ui_ingame_highlight_text_colour.r, ui_ingame_highlight_text_colour.g, ui_ingame_highlight_text_colour.b, ui_ingame_highlight_text_colour.a),
; 1818 : 				UI_ATTR_SELECTED_FONT_COLOUR (ui_ingame_selected_text_colour.r, ui_ingame_selected_text_colour.g, ui_ingame_selected_text_colour.b, ui_ingame_selected_text_colour.a),
; 1819 : 				UI_ATTR_HIGHLIGHTABLE (TRUE),
; 1820 : 				UI_ATTR_CLEAR (TRUE),
; 1821 : 				UI_ATTR_END
; 1822 : 			);
; 1823 : 
; 1824 : 	/////////////////////////////////////////////////////////////////
; 1825 : 	// 3d Preview Area
; 1826 : 		
; 1827 : 	x1 = 0.01;

  0152a	f3 0f 10 05 00
	00 00 00	 movss	 xmm0, DWORD PTR __real@3c23d70a
  01532	f3 0f 11 45 fc	 movss	 DWORD PTR _x1$[ebp], xmm0

; 1828 : 	y1 = 0.0;

  01537	0f 57 c0	 xorps	 xmm0, xmm0
  0153a	f3 0f 11 45 f8	 movss	 DWORD PTR _y1$[ebp], xmm0

; 1829 : 	x2 = 1.0;

  0153f	f3 0f 10 05 00
	00 00 00	 movss	 xmm0, DWORD PTR __real@3f800000
  01547	f3 0f 11 45 f4	 movss	 DWORD PTR _x2$[ebp], xmm0

; 1830 : 	y2 = 0.99;

  0154c	f3 0f 10 05 00
	00 00 00	 movss	 xmm0, DWORD PTR __real@3f7d70a4
  01554	f3 0f 11 45 f0	 movss	 DWORD PTR _y2$[ebp], xmm0

; 1831 : 
; 1832 : 	page_3d_area = create_ui_object

  01559	6a 11		 push	 17			; 00000011H
  0155b	6a 01		 push	 1
  0155d	6a 07		 push	 7
  0155f	68 00 00 00 00	 push	 OFFSET ?draw_page_3d_scene@@YGXPAUUI_OBJECT@@PAX@Z ; draw_page_3d_scene
  01564	6a 0f		 push	 15			; 0000000fH
  01566	f3 0f 10 45 f0	 movss	 xmm0, DWORD PTR _y2$[ebp]
  0156b	f3 0f 5c 45 f8	 subss	 xmm0, DWORD PTR _y1$[ebp]
  01570	f3 0f 5a c0	 cvtss2sd xmm0, xmm0
  01574	83 ec 08	 sub	 esp, 8
  01577	f2 0f 11 04 24	 movsd	 QWORD PTR [esp], xmm0
  0157c	f3 0f 10 45 f4	 movss	 xmm0, DWORD PTR _x2$[ebp]
  01581	f3 0f 5c 45 fc	 subss	 xmm0, DWORD PTR _x1$[ebp]
  01586	f3 0f 5a c0	 cvtss2sd xmm0, xmm0
  0158a	83 ec 08	 sub	 esp, 8
  0158d	f2 0f 11 04 24	 movsd	 QWORD PTR [esp], xmm0
  01592	6a 59		 push	 89			; 00000059H
  01594	f3 0f 5a 45 f8	 cvtss2sd xmm0, DWORD PTR _y1$[ebp]
  01599	83 ec 08	 sub	 esp, 8
  0159c	f2 0f 11 04 24	 movsd	 QWORD PTR [esp], xmm0
  015a1	f3 0f 5a 45 fc	 cvtss2sd xmm0, DWORD PTR _x1$[ebp]
  015a6	83 ec 08	 sub	 esp, 8
  015a9	f2 0f 11 04 24	 movsd	 QWORD PTR [esp], xmm0
  015ae	6a 58		 push	 88			; 00000058H
  015b0	a1 00 00 00 00	 mov	 eax, DWORD PTR ?page_map_view_area@@3PAUUI_OBJECT@@A
  015b5	50		 push	 eax
  015b6	6a 32		 push	 50			; 00000032H
  015b8	6a 01		 push	 1
  015ba	e8 00 00 00 00	 call	 ?create_ui_object@@YAPAUUI_OBJECT@@HZZ ; create_ui_object
  015bf	83 c4 48	 add	 esp, 72			; 00000048H
  015c2	a3 00 00 00 00	 mov	 DWORD PTR ?page_3d_area@@3PAUUI_OBJECT@@A, eax

; 1833 : 		(
; 1834 : 			UI_TYPE_AREA,
; 1835 : 			UI_ATTR_PARENT (page_map_view_area),
; 1836 : 			UI_ATTR_VIRTUAL_POSITION (x1, y1),
; 1837 : 			UI_ATTR_VIRTUAL_SIZE (x2 - x1, y2 - y1),
; 1838 : 			UI_ATTR_DRAW_FUNCTION (draw_page_3d_scene),
; 1839 : 			UI_ATTR_CLEAR (TRUE),
; 1840 : 			UI_ATTR_END
; 1841 : 		);
; 1842 : 
; 1843 : 	/////////////////////////////////////////////////////////////////
; 1844 : 	// Map Area
; 1845 : 			
; 1846 : 	x1 = 0.01;

  015c7	f3 0f 10 05 00
	00 00 00	 movss	 xmm0, DWORD PTR __real@3c23d70a
  015cf	f3 0f 11 45 fc	 movss	 DWORD PTR _x1$[ebp], xmm0

; 1847 : 	y1 = 0.0;

  015d4	0f 57 c0	 xorps	 xmm0, xmm0
  015d7	f3 0f 11 45 f8	 movss	 DWORD PTR _y1$[ebp], xmm0

; 1848 : 	x2 = 1.0;

  015dc	f3 0f 10 05 00
	00 00 00	 movss	 xmm0, DWORD PTR __real@3f800000
  015e4	f3 0f 11 45 f4	 movss	 DWORD PTR _x2$[ebp], xmm0

; 1849 : 	y2 = 0.99;

  015e9	f3 0f 10 05 00
	00 00 00	 movss	 xmm0, DWORD PTR __real@3f7d70a4
  015f1	f3 0f 11 45 f0	 movss	 DWORD PTR _y2$[ebp], xmm0

; 1850 : 
; 1851 : 	page_map_area = create_ui_object

  015f6	6a 11		 push	 17			; 00000011H
  015f8	f3 0f 10 45 f0	 movss	 xmm0, DWORD PTR _y2$[ebp]
  015fd	f3 0f 5c 45 f8	 subss	 xmm0, DWORD PTR _y1$[ebp]
  01602	f3 0f 5a c0	 cvtss2sd xmm0, xmm0
  01606	83 ec 08	 sub	 esp, 8
  01609	f2 0f 11 04 24	 movsd	 QWORD PTR [esp], xmm0
  0160e	f3 0f 10 45 f4	 movss	 xmm0, DWORD PTR _x2$[ebp]
  01613	f3 0f 5c 45 fc	 subss	 xmm0, DWORD PTR _x1$[ebp]
  01618	f3 0f 5a c0	 cvtss2sd xmm0, xmm0
  0161c	83 ec 08	 sub	 esp, 8
  0161f	f2 0f 11 04 24	 movsd	 QWORD PTR [esp], xmm0
  01624	6a 59		 push	 89			; 00000059H
  01626	f3 0f 5a 45 f8	 cvtss2sd xmm0, DWORD PTR _y1$[ebp]
  0162b	83 ec 08	 sub	 esp, 8
  0162e	f2 0f 11 04 24	 movsd	 QWORD PTR [esp], xmm0
  01633	f3 0f 5a 45 fc	 cvtss2sd xmm0, DWORD PTR _x1$[ebp]
  01638	83 ec 08	 sub	 esp, 8
  0163b	f2 0f 11 04 24	 movsd	 QWORD PTR [esp], xmm0
  01640	6a 58		 push	 88			; 00000058H
  01642	a1 00 00 00 00	 mov	 eax, DWORD PTR ?page_map_view_area@@3PAUUI_OBJECT@@A
  01647	50		 push	 eax
  01648	6a 32		 push	 50			; 00000032H
  0164a	6a 01		 push	 1
  0164c	e8 00 00 00 00	 call	 ?create_ui_object@@YAPAUUI_OBJECT@@HZZ ; create_ui_object
  01651	83 c4 38	 add	 esp, 56			; 00000038H
  01654	a3 00 00 00 00	 mov	 DWORD PTR ?page_map_area@@3PAUUI_OBJECT@@A, eax

; 1852 : 		(
; 1853 : 			UI_TYPE_AREA,
; 1854 : 			UI_ATTR_PARENT (page_map_view_area),
; 1855 : 			UI_ATTR_VIRTUAL_POSITION (x1, y1),
; 1856 : 			UI_ATTR_VIRTUAL_SIZE (x2 - x1, y2 - y1),
; 1857 : 			UI_ATTR_END
; 1858 : 		);
; 1859 : 
; 1860 : 	define_map_objects (page_map_area, &page_map_dimensions, draw_page_map, campaign_map_left_click_function, map_centralise_function, &campaign_screen_full_screen_map);

  01659	68 00 00 00 00	 push	 OFFSET ?campaign_screen_full_screen_map@@3PAUUI_OBJECT@@A ; campaign_screen_full_screen_map
  0165e	68 00 00 00 00	 push	 OFFSET ?map_centralise_function@@YGXPAUUI_OBJECT@@PAX@Z ; map_centralise_function
  01663	68 00 00 00 00	 push	 OFFSET ?campaign_map_left_click_function@@YGXPAUUI_OBJECT@@PAX@Z ; campaign_map_left_click_function
  01668	68 00 00 00 00	 push	 OFFSET ?draw_page_map@@YGXPAUUI_OBJECT@@PAX@Z ; draw_page_map
  0166d	68 00 00 00 00	 push	 OFFSET ?page_map_dimensions@@3UMAP_DIMENSION_TYPE@@A
  01672	a1 00 00 00 00	 mov	 eax, DWORD PTR ?page_map_area@@3PAUUI_OBJECT@@A
  01677	50		 push	 eax
  01678	e8 00 00 00 00	 call	 ?define_map_objects@@YGXPAUUI_OBJECT@@PAUMAP_DIMENSION_TYPE@@PAX22PAPAU1@@Z ; define_map_objects

; 1861 : 
; 1862 : 	/////////////////////////////////////////////////////////////////
; 1863 : 	// briefing text
; 1864 : 
; 1865 : 	x1 = 0.1;

  0167d	f3 0f 10 05 00
	00 00 00	 movss	 xmm0, DWORD PTR __real@3dcccccd
  01685	f3 0f 11 45 fc	 movss	 DWORD PTR _x1$[ebp], xmm0

; 1866 : 	y1 = 0.746;

  0168a	f3 0f 10 05 00
	00 00 00	 movss	 xmm0, DWORD PTR __real@3f3ef9db
  01692	f3 0f 11 45 f8	 movss	 DWORD PTR _y1$[ebp], xmm0

; 1867 : 	x2 = 0.99;

  01697	f3 0f 10 05 00
	00 00 00	 movss	 xmm0, DWORD PTR __real@3f7d70a4
  0169f	f3 0f 11 45 f4	 movss	 DWORD PTR _x2$[ebp], xmm0

; 1868 : 	y2 = 0.94;

  016a4	f3 0f 10 05 00
	00 00 00	 movss	 xmm0, DWORD PTR __real@3f70a3d7
  016ac	f3 0f 11 45 f0	 movss	 DWORD PTR _y2$[ebp], xmm0

; 1869 : 
; 1870 : 	briefing_text_area = create_ui_object

  016b1	6a 11		 push	 17			; 00000011H
  016b3	6a 01		 push	 1
  016b5	6a 07		 push	 7
  016b7	83 ec 08	 sub	 esp, 8
  016ba	f2 0f 10 05 00
	00 00 00	 movsd	 xmm0, QWORD PTR __real@4014000000000000
  016c2	f2 0f 11 04 24	 movsd	 QWORD PTR [esp], xmm0
  016c7	83 ec 08	 sub	 esp, 8
  016ca	0f 57 c0	 xorps	 xmm0, xmm0
  016cd	f2 0f 11 04 24	 movsd	 QWORD PTR [esp], xmm0
  016d2	83 ec 08	 sub	 esp, 8
  016d5	0f 57 c0	 xorps	 xmm0, xmm0
  016d8	f2 0f 11 04 24	 movsd	 QWORD PTR [esp], xmm0
  016dd	6a 5a		 push	 90			; 0000005aH
  016df	0f b6 05 03 00
	00 00		 movzx	 eax, BYTE PTR ?ui_ingame_dead_text_colour@@3UREAL_COLOUR@@A+3
  016e6	50		 push	 eax
  016e7	0f b6 0d 00 00
	00 00		 movzx	 ecx, BYTE PTR ?ui_ingame_dead_text_colour@@3UREAL_COLOUR@@A
  016ee	51		 push	 ecx
  016ef	0f b6 15 01 00
	00 00		 movzx	 edx, BYTE PTR ?ui_ingame_dead_text_colour@@3UREAL_COLOUR@@A+1
  016f6	52		 push	 edx
  016f7	0f b6 05 02 00
	00 00		 movzx	 eax, BYTE PTR ?ui_ingame_dead_text_colour@@3UREAL_COLOUR@@A+2
  016fe	50		 push	 eax
  016ff	6a 13		 push	 19			; 00000013H
  01701	6a 00		 push	 0
  01703	6a 12		 push	 18			; 00000012H
  01705	f3 0f 10 45 f0	 movss	 xmm0, DWORD PTR _y2$[ebp]
  0170a	f3 0f 5c 45 f8	 subss	 xmm0, DWORD PTR _y1$[ebp]
  0170f	f3 0f 5a c0	 cvtss2sd xmm0, xmm0
  01713	83 ec 08	 sub	 esp, 8
  01716	f2 0f 11 04 24	 movsd	 QWORD PTR [esp], xmm0
  0171b	f3 0f 10 45 f4	 movss	 xmm0, DWORD PTR _x2$[ebp]
  01720	f3 0f 5c 45 fc	 subss	 xmm0, DWORD PTR _x1$[ebp]
  01725	f3 0f 5a c0	 cvtss2sd xmm0, xmm0
  01729	83 ec 08	 sub	 esp, 8
  0172c	f2 0f 11 04 24	 movsd	 QWORD PTR [esp], xmm0
  01731	6a 59		 push	 89			; 00000059H
  01733	f3 0f 5a 45 f8	 cvtss2sd xmm0, DWORD PTR _y1$[ebp]
  01738	83 ec 08	 sub	 esp, 8
  0173b	f2 0f 11 04 24	 movsd	 QWORD PTR [esp], xmm0
  01740	f3 0f 5a 45 fc	 cvtss2sd xmm0, DWORD PTR _x1$[ebp]
  01745	83 ec 08	 sub	 esp, 8
  01748	f2 0f 11 04 24	 movsd	 QWORD PTR [esp], xmm0
  0174d	6a 58		 push	 88			; 00000058H
  0174f	8b 4d d8	 mov	 ecx, DWORD PTR _page$[ebp]
  01752	51		 push	 ecx
  01753	6a 32		 push	 50			; 00000032H
  01755	6a 01		 push	 1
  01757	e8 00 00 00 00	 call	 ?create_ui_object@@YAPAUUI_OBJECT@@HZZ ; create_ui_object
  0175c	83 c4 78	 add	 esp, 120		; 00000078H
  0175f	a3 00 00 00 00	 mov	 DWORD PTR ?briefing_text_area@@3PAUUI_OBJECT@@A, eax

; 1871 : 			(
; 1872 : 				UI_TYPE_AREA,
; 1873 : 				UI_ATTR_PARENT (page),
; 1874 : 				UI_ATTR_VIRTUAL_POSITION (x1, y1),
; 1875 : 				UI_ATTR_VIRTUAL_SIZE (x2 - x1, y2 - y1),
; 1876 : 				UI_ATTR_FONT_TYPE (UI_FONT_ARIAL_10),
; 1877 : 				UI_ATTR_FONT_COLOUR (ui_ingame_dead_text_colour.r, ui_ingame_dead_text_colour.g, ui_ingame_dead_text_colour.b, ui_ingame_dead_text_colour.a),
; 1878 : 				UI_ATTR_VSLIDER (0.0, 0.0, 5),
; 1879 : 				UI_ATTR_CLEAR (TRUE),
; 1880 : 				UI_ATTR_END
; 1881 : 			);
; 1882 : 
; 1883 : 	set_common_slider_graphics (briefing_text_area);

  01764	a1 00 00 00 00	 mov	 eax, DWORD PTR ?briefing_text_area@@3PAUUI_OBJECT@@A
  01769	50		 push	 eax
  0176a	e8 00 00 00 00	 call	 ?set_common_slider_graphics@@YGXPAUUI_OBJECT@@@Z ; set_common_slider_graphics

; 1884 : 
; 1885 : 	x1 = 0.0;

  0176f	0f 57 c0	 xorps	 xmm0, xmm0
  01772	f3 0f 11 45 fc	 movss	 DWORD PTR _x1$[ebp], xmm0

; 1886 : 	x2 = 0.9;

  01777	f3 0f 10 05 00
	00 00 00	 movss	 xmm0, DWORD PTR __real@3f666666
  0177f	f3 0f 11 45 f4	 movss	 DWORD PTR _x2$[ebp], xmm0

; 1887 : 	y1 = 0.0;

  01784	0f 57 c0	 xorps	 xmm0, xmm0
  01787	f3 0f 11 45 f8	 movss	 DWORD PTR _y1$[ebp], xmm0

; 1888 : 	y2 = 1.0;

  0178c	f3 0f 10 05 00
	00 00 00	 movss	 xmm0, DWORD PTR __real@3f800000
  01794	f3 0f 11 45 f0	 movss	 DWORD PTR _y2$[ebp], xmm0

; 1889 : 
; 1890 : 	briefing_text_list = create_ui_object

  01799	6a 11		 push	 17			; 00000011H
  0179b	6a 01		 push	 1
  0179d	6a 07		 push	 7
  0179f	6a 00		 push	 0
  017a1	6a 2f		 push	 47			; 0000002fH
  017a3	0f b6 05 03 00
	00 00		 movzx	 eax, BYTE PTR ?ui_ingame_dead_text_colour@@3UREAL_COLOUR@@A+3
  017aa	50		 push	 eax
  017ab	0f b6 0d 00 00
	00 00		 movzx	 ecx, BYTE PTR ?ui_ingame_dead_text_colour@@3UREAL_COLOUR@@A
  017b2	51		 push	 ecx
  017b3	0f b6 15 01 00
	00 00		 movzx	 edx, BYTE PTR ?ui_ingame_dead_text_colour@@3UREAL_COLOUR@@A+1
  017ba	52		 push	 edx
  017bb	0f b6 05 02 00
	00 00		 movzx	 eax, BYTE PTR ?ui_ingame_dead_text_colour@@3UREAL_COLOUR@@A+2
  017c2	50		 push	 eax
  017c3	6a 13		 push	 19			; 00000013H
  017c5	6a 00		 push	 0
  017c7	6a 12		 push	 18			; 00000012H
  017c9	6a 01		 push	 1
  017cb	6a 4b		 push	 75			; 0000004bH
  017cd	f3 0f 10 45 f0	 movss	 xmm0, DWORD PTR _y2$[ebp]
  017d2	f3 0f 5c 45 f8	 subss	 xmm0, DWORD PTR _y1$[ebp]
  017d7	f3 0f 5a c0	 cvtss2sd xmm0, xmm0
  017db	83 ec 08	 sub	 esp, 8
  017de	f2 0f 11 04 24	 movsd	 QWORD PTR [esp], xmm0
  017e3	f3 0f 10 45 f4	 movss	 xmm0, DWORD PTR _x2$[ebp]
  017e8	f3 0f 5c 45 fc	 subss	 xmm0, DWORD PTR _x1$[ebp]
  017ed	f3 0f 5a c0	 cvtss2sd xmm0, xmm0
  017f1	83 ec 08	 sub	 esp, 8
  017f4	f2 0f 11 04 24	 movsd	 QWORD PTR [esp], xmm0
  017f9	6a 59		 push	 89			; 00000059H
  017fb	f3 0f 5a 45 f8	 cvtss2sd xmm0, DWORD PTR _y1$[ebp]
  01800	83 ec 08	 sub	 esp, 8
  01803	f2 0f 11 04 24	 movsd	 QWORD PTR [esp], xmm0
  01808	f3 0f 5a 45 fc	 cvtss2sd xmm0, DWORD PTR _x1$[ebp]
  0180d	83 ec 08	 sub	 esp, 8
  01810	f2 0f 11 04 24	 movsd	 QWORD PTR [esp], xmm0
  01815	6a 58		 push	 88			; 00000058H
  01817	8b 0d 00 00 00
	00		 mov	 ecx, DWORD PTR ?briefing_text_area@@3PAUUI_OBJECT@@A
  0181d	51		 push	 ecx
  0181e	6a 32		 push	 50			; 00000032H
  01820	6a 0d		 push	 13			; 0000000dH
  01822	e8 00 00 00 00	 call	 ?create_ui_object@@YAPAUUI_OBJECT@@HZZ ; create_ui_object
  01827	83 c4 6c	 add	 esp, 108		; 0000006cH
  0182a	a3 00 00 00 00	 mov	 DWORD PTR ?briefing_text_list@@3PAUUI_OBJECT@@A, eax

; 1891 : 			(
; 1892 : 				UI_TYPE_LIST_BOX,
; 1893 : 				UI_ATTR_PARENT (briefing_text_area),
; 1894 : 				UI_ATTR_VIRTUAL_POSITION (x1, y1),
; 1895 : 				UI_ATTR_VIRTUAL_SIZE (x2 - x1, y2 - y1),
; 1896 : 				UI_ATTR_TEXT_JUSTIFY (TEXT_JUSTIFY_LEFT_CENTRE),
; 1897 : 				UI_ATTR_FONT_TYPE (UI_FONT_ARIAL_10),
; 1898 : 				UI_ATTR_FONT_COLOUR (ui_ingame_dead_text_colour.r, ui_ingame_dead_text_colour.g, ui_ingame_dead_text_colour.b, ui_ingame_dead_text_colour.a),
; 1899 : 				UI_ATTR_NOTIFY_ON (NOTIFY_TYPE_NONE),
; 1900 : 				UI_ATTR_CLEAR (TRUE),
; 1901 : 				UI_ATTR_END
; 1902 : 			);
; 1903 : 
; 1904 : 	///////////////////////////////////////////////////
; 1905 : 	// Accept Button
; 1906 : 	///////////////////////////////////////////////////
; 1907 : 		
; 1908 : 	x1 = 0.283;

  0182f	f3 0f 10 05 00
	00 00 00	 movss	 xmm0, DWORD PTR __real@3e90e560
  01837	f3 0f 11 45 fc	 movss	 DWORD PTR _x1$[ebp], xmm0

; 1909 : 	y1 = 0.949;

  0183c	f3 0f 10 05 00
	00 00 00	 movss	 xmm0, DWORD PTR __real@3f72f1aa
  01844	f3 0f 11 45 f8	 movss	 DWORD PTR _y1$[ebp], xmm0

; 1910 : 	x2 = 0.699;

  01849	f3 0f 10 05 00
	00 00 00	 movss	 xmm0, DWORD PTR __real@3f32f1aa
  01851	f3 0f 11 45 f4	 movss	 DWORD PTR _x2$[ebp], xmm0

; 1911 : 	y2 = 1.0;

  01856	f3 0f 10 05 00
	00 00 00	 movss	 xmm0, DWORD PTR __real@3f800000
  0185e	f3 0f 11 45 f0	 movss	 DWORD PTR _y2$[ebp], xmm0

; 1912 : 
; 1913 : 	mission_accept_button = create_ui_object

  01863	6a 11		 push	 17			; 00000011H
  01865	68 00 00 00 00	 push	 OFFSET ??_C@_0CE@MKDJOFDM@graphics?2ui?2cohokum?2map?2acptbtn@
  0186a	e8 00 00 00 00	 call	 ?create_texture_graphic@@YGPAUTEXTURE_GRAPHIC@@PBD@Z ; create_texture_graphic
  0186f	50		 push	 eax
  01870	6a 4c		 push	 76			; 0000004cH
  01872	68 00 00 00 00	 push	 OFFSET ?notify_mission_accept_button@@YGXPAUUI_OBJECT@@PAX@Z ; notify_mission_accept_button
  01877	6a 16		 push	 22			; 00000016H
  01879	6a 01		 push	 1
  0187b	6a 1b		 push	 27			; 0000001bH
  0187d	0f b6 05 03 00
	00 00		 movzx	 eax, BYTE PTR ?ui_ingame_selected_text_colour@@3UREAL_COLOUR@@A+3
  01884	50		 push	 eax
  01885	0f b6 0d 00 00
	00 00		 movzx	 ecx, BYTE PTR ?ui_ingame_selected_text_colour@@3UREAL_COLOUR@@A
  0188c	51		 push	 ecx
  0188d	0f b6 15 01 00
	00 00		 movzx	 edx, BYTE PTR ?ui_ingame_selected_text_colour@@3UREAL_COLOUR@@A+1
  01894	52		 push	 edx
  01895	0f b6 05 02 00
	00 00		 movzx	 eax, BYTE PTR ?ui_ingame_selected_text_colour@@3UREAL_COLOUR@@A+2
  0189c	50		 push	 eax
  0189d	6a 3d		 push	 61			; 0000003dH
  0189f	0f b6 0d 03 00
	00 00		 movzx	 ecx, BYTE PTR ?ui_ingame_highlight_text_colour@@3UREAL_COLOUR@@A+3
  018a6	51		 push	 ecx
  018a7	0f b6 15 00 00
	00 00		 movzx	 edx, BYTE PTR ?ui_ingame_highlight_text_colour@@3UREAL_COLOUR@@A
  018ae	52		 push	 edx
  018af	0f b6 05 01 00
	00 00		 movzx	 eax, BYTE PTR ?ui_ingame_highlight_text_colour@@3UREAL_COLOUR@@A+1
  018b6	50		 push	 eax
  018b7	0f b6 0d 02 00
	00 00		 movzx	 ecx, BYTE PTR ?ui_ingame_highlight_text_colour@@3UREAL_COLOUR@@A+2
  018be	51		 push	 ecx
  018bf	6a 21		 push	 33			; 00000021H
  018c1	0f b6 15 03 00
	00 00		 movzx	 edx, BYTE PTR ?ui_ingame_live_text_colour@@3UREAL_COLOUR@@A+3
  018c8	52		 push	 edx
  018c9	0f b6 05 00 00
	00 00		 movzx	 eax, BYTE PTR ?ui_ingame_live_text_colour@@3UREAL_COLOUR@@A
  018d0	50		 push	 eax
  018d1	0f b6 0d 01 00
	00 00		 movzx	 ecx, BYTE PTR ?ui_ingame_live_text_colour@@3UREAL_COLOUR@@A+1
  018d8	51		 push	 ecx
  018d9	0f b6 15 02 00
	00 00		 movzx	 edx, BYTE PTR ?ui_ingame_live_text_colour@@3UREAL_COLOUR@@A+2
  018e0	52		 push	 edx
  018e1	6a 13		 push	 19			; 00000013H
  018e3	6a 03		 push	 3
  018e5	6a 12		 push	 18			; 00000012H
  018e7	68 00 00 00 00	 push	 OFFSET ??_C@_0P@EKIAOHIC@Accept?5Mission@
  018ec	e8 00 00 00 00	 call	 ?get_trans@@YGPBDPBD@Z	; get_trans
  018f1	50		 push	 eax
  018f2	6a 4a		 push	 74			; 0000004aH
  018f4	f3 0f 10 45 f0	 movss	 xmm0, DWORD PTR _y2$[ebp]
  018f9	f3 0f 5c 45 f8	 subss	 xmm0, DWORD PTR _y1$[ebp]
  018fe	f3 0f 5a c0	 cvtss2sd xmm0, xmm0
  01902	83 ec 08	 sub	 esp, 8
  01905	f2 0f 11 04 24	 movsd	 QWORD PTR [esp], xmm0
  0190a	f3 0f 10 45 f4	 movss	 xmm0, DWORD PTR _x2$[ebp]
  0190f	f3 0f 5c 45 fc	 subss	 xmm0, DWORD PTR _x1$[ebp]
  01914	f3 0f 5a c0	 cvtss2sd xmm0, xmm0
  01918	83 ec 08	 sub	 esp, 8
  0191b	f2 0f 11 04 24	 movsd	 QWORD PTR [esp], xmm0
  01920	6a 59		 push	 89			; 00000059H
  01922	f3 0f 5a 45 f8	 cvtss2sd xmm0, DWORD PTR _y1$[ebp]
  01927	83 ec 08	 sub	 esp, 8
  0192a	f2 0f 11 04 24	 movsd	 QWORD PTR [esp], xmm0
  0192f	f3 0f 5a 45 fc	 cvtss2sd xmm0, DWORD PTR _x1$[ebp]
  01934	83 ec 08	 sub	 esp, 8
  01937	f2 0f 11 04 24	 movsd	 QWORD PTR [esp], xmm0
  0193c	6a 58		 push	 88			; 00000058H
  0193e	8b 45 d8	 mov	 eax, DWORD PTR _page$[ebp]
  01941	50		 push	 eax
  01942	6a 32		 push	 50			; 00000032H
  01944	6a 02		 push	 2
  01946	e8 00 00 00 00	 call	 ?create_ui_object@@YAPAUUI_OBJECT@@HZZ ; create_ui_object
  0194b	81 c4 9c 00 00
	00		 add	 esp, 156		; 0000009cH
  01951	a3 00 00 00 00	 mov	 DWORD PTR ?mission_accept_button@@3PAUUI_OBJECT@@A, eax ; mission_accept_button

; 1914 : 		(
; 1915 : 			UI_TYPE_BUTTON,
; 1916 : 			UI_ATTR_PARENT (page),
; 1917 : 			UI_ATTR_VIRTUAL_POSITION (x1, y1),
; 1918 : 			UI_ATTR_VIRTUAL_SIZE (x2 - x1, y2 - y1),
; 1919 : 			UI_ATTR_TEXT (get_trans ("Accept Mission")),
; 1920 : 			UI_ATTR_FONT_TYPE (UI_FONT_ARIAL_16),
; 1921 : 			UI_ATTR_FONT_COLOUR (ui_ingame_live_text_colour.r, ui_ingame_live_text_colour.g, ui_ingame_live_text_colour.b, ui_ingame_live_text_colour.a),
; 1922 : 			UI_ATTR_HIGHLIGHTED_FONT_COLOUR (ui_ingame_highlight_text_colour.r, ui_ingame_highlight_text_colour.g, ui_ingame_highlight_text_colour.b, ui_ingame_highlight_text_colour.a),
; 1923 : 			UI_ATTR_SELECTED_FONT_COLOUR (ui_ingame_selected_text_colour.r, ui_ingame_selected_text_colour.g, ui_ingame_selected_text_colour.b, ui_ingame_selected_text_colour.a),
; 1924 : 			UI_ATTR_HIGHLIGHTABLE (TRUE),
; 1925 : 			UI_ATTR_FUNCTION (notify_mission_accept_button),
; 1926 : 			UI_ATTR_TEXTURE_GRAPHIC (create_texture_graphic ("graphics\\ui\\cohokum\\map\\acptbtn.psd")),
; 1927 : 			UI_ATTR_END
; 1928 : 		);
; 1929 : 
; 1930 : 	/////////////////////////////////////////////////////////////////
; 1931 : 	// "Divider" graphics
; 1932 : 
; 1933 : 	x1 = 0.022;

  01956	f3 0f 10 05 00
	00 00 00	 movss	 xmm0, DWORD PTR __real@3cb43958
  0195e	f3 0f 11 45 fc	 movss	 DWORD PTR _x1$[ebp], xmm0

; 1934 : 	y1 = 0.138;

  01963	f3 0f 10 05 00
	00 00 00	 movss	 xmm0, DWORD PTR __real@3e0d4fdf
  0196b	f3 0f 11 45 f8	 movss	 DWORD PTR _y1$[ebp], xmm0

; 1935 : 	x2 = 0.474;

  01970	f3 0f 10 05 00
	00 00 00	 movss	 xmm0, DWORD PTR __real@3ef2b021
  01978	f3 0f 11 45 f4	 movss	 DWORD PTR _x2$[ebp], xmm0

; 1936 : 	y2 = 0.161;

  0197d	f3 0f 10 05 00
	00 00 00	 movss	 xmm0, DWORD PTR __real@3e24dd2f
  01985	f3 0f 11 45 f0	 movss	 DWORD PTR _y2$[ebp], xmm0

; 1937 : 
; 1938 : 	create_ui_object

  0198a	6a 11		 push	 17			; 00000011H
  0198c	a1 00 00 00 00	 mov	 eax, DWORD PTR ?common_divider_graphic@@3PAUTEXTURE_GRAPHIC@@A ; common_divider_graphic
  01991	50		 push	 eax
  01992	6a 4c		 push	 76			; 0000004cH
  01994	f3 0f 10 45 f0	 movss	 xmm0, DWORD PTR _y2$[ebp]
  01999	f3 0f 5c 45 f8	 subss	 xmm0, DWORD PTR _y1$[ebp]
  0199e	f3 0f 5a c0	 cvtss2sd xmm0, xmm0
  019a2	83 ec 08	 sub	 esp, 8
  019a5	f2 0f 11 04 24	 movsd	 QWORD PTR [esp], xmm0
  019aa	f3 0f 10 45 f4	 movss	 xmm0, DWORD PTR _x2$[ebp]
  019af	f3 0f 5c 45 fc	 subss	 xmm0, DWORD PTR _x1$[ebp]
  019b4	f3 0f 5a c0	 cvtss2sd xmm0, xmm0
  019b8	83 ec 08	 sub	 esp, 8
  019bb	f2 0f 11 04 24	 movsd	 QWORD PTR [esp], xmm0
  019c0	6a 59		 push	 89			; 00000059H
  019c2	f3 0f 5a 45 f8	 cvtss2sd xmm0, DWORD PTR _y1$[ebp]
  019c7	83 ec 08	 sub	 esp, 8
  019ca	f2 0f 11 04 24	 movsd	 QWORD PTR [esp], xmm0
  019cf	f3 0f 5a 45 fc	 cvtss2sd xmm0, DWORD PTR _x1$[ebp]
  019d4	83 ec 08	 sub	 esp, 8
  019d7	f2 0f 11 04 24	 movsd	 QWORD PTR [esp], xmm0
  019dc	6a 58		 push	 88			; 00000058H
  019de	8b 4d d8	 mov	 ecx, DWORD PTR _page$[ebp]
  019e1	51		 push	 ecx
  019e2	6a 32		 push	 50			; 00000032H
  019e4	6a 01		 push	 1
  019e6	e8 00 00 00 00	 call	 ?create_ui_object@@YAPAUUI_OBJECT@@HZZ ; create_ui_object
  019eb	83 c4 40	 add	 esp, 64			; 00000040H

; 1939 : 			(
; 1940 : 				UI_TYPE_AREA,
; 1941 : 				UI_ATTR_PARENT (page),
; 1942 : 				UI_ATTR_VIRTUAL_POSITION (x1, y1),
; 1943 : 				UI_ATTR_VIRTUAL_SIZE (x2 - x1, y2 - y1),
; 1944 : 				UI_ATTR_TEXTURE_GRAPHIC (common_divider_graphic),
; 1945 : 				UI_ATTR_END
; 1946 : 			);
; 1947 : 
; 1948 : 	////////////////////////////////////
; 1949 : 
; 1950 : 	x1 = 0.022;

  019ee	f3 0f 10 05 00
	00 00 00	 movss	 xmm0, DWORD PTR __real@3cb43958
  019f6	f3 0f 11 45 fc	 movss	 DWORD PTR _x1$[ebp], xmm0

; 1951 : 	y1 = 0.649;

  019fb	f3 0f 10 05 00
	00 00 00	 movss	 xmm0, DWORD PTR __real@3f2624dd
  01a03	f3 0f 11 45 f8	 movss	 DWORD PTR _y1$[ebp], xmm0

; 1952 : 	x2 = 0.474;

  01a08	f3 0f 10 05 00
	00 00 00	 movss	 xmm0, DWORD PTR __real@3ef2b021
  01a10	f3 0f 11 45 f4	 movss	 DWORD PTR _x2$[ebp], xmm0

; 1953 : 	y2 = 0.672;

  01a15	f3 0f 10 05 00
	00 00 00	 movss	 xmm0, DWORD PTR __real@3f2c0831
  01a1d	f3 0f 11 45 f0	 movss	 DWORD PTR _y2$[ebp], xmm0

; 1954 : 
; 1955 : 	create_ui_object

  01a22	6a 11		 push	 17			; 00000011H
  01a24	a1 00 00 00 00	 mov	 eax, DWORD PTR ?common_divider_graphic@@3PAUTEXTURE_GRAPHIC@@A ; common_divider_graphic
  01a29	50		 push	 eax
  01a2a	6a 4c		 push	 76			; 0000004cH
  01a2c	f3 0f 10 45 f0	 movss	 xmm0, DWORD PTR _y2$[ebp]
  01a31	f3 0f 5c 45 f8	 subss	 xmm0, DWORD PTR _y1$[ebp]
  01a36	f3 0f 5a c0	 cvtss2sd xmm0, xmm0
  01a3a	83 ec 08	 sub	 esp, 8
  01a3d	f2 0f 11 04 24	 movsd	 QWORD PTR [esp], xmm0
  01a42	f3 0f 10 45 f4	 movss	 xmm0, DWORD PTR _x2$[ebp]
  01a47	f3 0f 5c 45 fc	 subss	 xmm0, DWORD PTR _x1$[ebp]
  01a4c	f3 0f 5a c0	 cvtss2sd xmm0, xmm0
  01a50	83 ec 08	 sub	 esp, 8
  01a53	f2 0f 11 04 24	 movsd	 QWORD PTR [esp], xmm0
  01a58	6a 59		 push	 89			; 00000059H
  01a5a	f3 0f 5a 45 f8	 cvtss2sd xmm0, DWORD PTR _y1$[ebp]
  01a5f	83 ec 08	 sub	 esp, 8
  01a62	f2 0f 11 04 24	 movsd	 QWORD PTR [esp], xmm0
  01a67	f3 0f 5a 45 fc	 cvtss2sd xmm0, DWORD PTR _x1$[ebp]
  01a6c	83 ec 08	 sub	 esp, 8
  01a6f	f2 0f 11 04 24	 movsd	 QWORD PTR [esp], xmm0
  01a74	6a 58		 push	 88			; 00000058H
  01a76	8b 4d d8	 mov	 ecx, DWORD PTR _page$[ebp]
  01a79	51		 push	 ecx
  01a7a	6a 32		 push	 50			; 00000032H
  01a7c	6a 01		 push	 1
  01a7e	e8 00 00 00 00	 call	 ?create_ui_object@@YAPAUUI_OBJECT@@HZZ ; create_ui_object
  01a83	83 c4 40	 add	 esp, 64			; 00000040H

; 1956 : 			(
; 1957 : 				UI_TYPE_AREA,
; 1958 : 				UI_ATTR_PARENT (page),
; 1959 : 				UI_ATTR_VIRTUAL_POSITION (x1, y1),
; 1960 : 				UI_ATTR_VIRTUAL_SIZE (x2 - x1, y2 - y1),
; 1961 : 				UI_ATTR_TEXTURE_GRAPHIC (common_divider_graphic),
; 1962 : 				UI_ATTR_END
; 1963 : 			);
; 1964 : 
; 1965 : 	/////////////////////////////////////////////////////////////////
; 1966 : 	// BACK button
; 1967 : 	/////////////////////////////////////////////////////////////////
; 1968 : 
; 1969 : 	define_campaign_page_back_button (page, &page_back_button);

  01a86	68 00 00 00 00	 push	 OFFSET ?page_back_button@@3PAUUI_OBJECT@@A
  01a8b	8b 45 d8	 mov	 eax, DWORD PTR _page$[ebp]
  01a8e	50		 push	 eax
  01a8f	e8 00 00 00 00	 call	 ?define_campaign_page_back_button@@YGXPAUUI_OBJECT@@PAPAU1@@Z ; define_campaign_page_back_button

; 1970 : }

  01a94	5f		 pop	 edi
  01a95	5e		 pop	 esi
  01a96	5b		 pop	 ebx
  01a97	8b e5		 mov	 esp, ebp
  01a99	5d		 pop	 ebp
  01a9a	c3		 ret	 0
?define_campaign_screen_briefing_page_objects@@YGXXZ ENDP ; define_campaign_screen_briefing_page_objects
_TEXT	ENDS
; Function compile flags: /Odtp /ZI
; File c:\users\nhv90\projects\eech\aphavoc\source\ui_menu\ingame\campaign\ca_brief.c
;	COMDAT ?deinitialise_campaign_screen_3d_textures@@YGXXZ
_TEXT	SEGMENT
?deinitialise_campaign_screen_3d_textures@@YGXXZ PROC	; deinitialise_campaign_screen_3d_textures, COMDAT

; 1164 : {

  00000	55		 push	 ebp
  00001	8b ec		 mov	 ebp, esp
  00003	83 ec 40	 sub	 esp, 64			; 00000040H
  00006	53		 push	 ebx
  00007	56		 push	 esi
  00008	57		 push	 edi

; 1165 : 	if (RENDER_STILL_PREVIEW)

  00009	83 3d 00 00 00
	00 00		 cmp	 DWORD PTR ?d3d_can_render_to_texture@@3HA, 0 ; d3d_can_render_to_texture
  00010	74 0b		 je	 SHORT $LN1@deinitiali

; 1166 : 	{
; 1167 : 		destroy_screen (preview_texture_screen);

  00012	a1 00 00 00 00	 mov	 eax, DWORD PTR ?preview_texture_screen@@3PAUSCREEN@@A
  00017	50		 push	 eax
  00018	e8 00 00 00 00	 call	 ?destroy_screen@@YGHPAUSCREEN@@@Z ; destroy_screen
$LN1@deinitiali:

; 1168 : 	}
; 1169 : }

  0001d	5f		 pop	 edi
  0001e	5e		 pop	 esi
  0001f	5b		 pop	 ebx
  00020	8b e5		 mov	 esp, ebp
  00022	5d		 pop	 ebp
  00023	c3		 ret	 0
?deinitialise_campaign_screen_3d_textures@@YGXXZ ENDP	; deinitialise_campaign_screen_3d_textures
_TEXT	ENDS
; Function compile flags: /Odtp /ZI
; File c:\users\nhv90\projects\eech\aphavoc\source\ui_menu\ingame\campaign\ca_brief.c
;	COMDAT ?initialise_campaign_screen_3d_textures@@YGXXZ
_TEXT	SEGMENT
?initialise_campaign_screen_3d_textures@@YGXXZ PROC	; initialise_campaign_screen_3d_textures, COMDAT

; 1148 : {

  00000	55		 push	 ebp
  00001	8b ec		 mov	 ebp, esp
  00003	83 ec 40	 sub	 esp, 64			; 00000040H
  00006	53		 push	 ebx
  00007	56		 push	 esi
  00008	57		 push	 edi

; 1149 : 	if (RENDER_STILL_PREVIEW)

  00009	83 3d 00 00 00
	00 00		 cmp	 DWORD PTR ?d3d_can_render_to_texture@@3HA, 0 ; d3d_can_render_to_texture
  00010	74 18		 je	 SHORT $LN2@initialise

; 1150 : 	{
; 1151 : 		preview_texture_screen = create_user_3dvisual_texture_screen (PREVIEW_TEXTURE_SIZE, PREVIEW_TEXTURE_SIZE, TEXTURE_TYPE_SCREEN);

  00012	6a 04		 push	 4
  00014	68 00 01 00 00	 push	 256			; 00000100H
  00019	68 00 01 00 00	 push	 256			; 00000100H
  0001e	e8 00 00 00 00	 call	 ?create_user_3dvisual_texture_screen@@YGPAUSCREEN@@HHH@Z ; create_user_3dvisual_texture_screen
  00023	a3 00 00 00 00	 mov	 DWORD PTR ?preview_texture_screen@@3PAUSCREEN@@A, eax

; 1152 : 	}
; 1153 : 	else

  00028	eb 0a		 jmp	 SHORT $LN1@initialise
$LN2@initialise:

; 1154 : 	{
; 1155 : 		preview_texture_screen = NULL;

  0002a	c7 05 00 00 00
	00 00 00 00 00	 mov	 DWORD PTR ?preview_texture_screen@@3PAUSCREEN@@A, 0
$LN1@initialise:

; 1156 : 	}
; 1157 : }

  00034	5f		 pop	 edi
  00035	5e		 pop	 esi
  00036	5b		 pop	 ebx
  00037	8b e5		 mov	 esp, ebp
  00039	5d		 pop	 ebp
  0003a	c3		 ret	 0
?initialise_campaign_screen_3d_textures@@YGXXZ ENDP	; initialise_campaign_screen_3d_textures
_TEXT	ENDS
; Function compile flags: /Odtp /ZI
; File c:\users\nhv90\projects\eech\aphavoc\source\ui_menu\ingame\campaign\ca_brief.c
;	COMDAT ?initialise_campaign_screen_briefing_page_objects@@YGXXZ
_TEXT	SEGMENT
?initialise_campaign_screen_briefing_page_objects@@YGXXZ PROC ; initialise_campaign_screen_briefing_page_objects, COMDAT

; 496  : {

  00000	55		 push	 ebp
  00001	8b ec		 mov	 ebp, esp
  00003	83 ec 40	 sub	 esp, 64			; 00000040H
  00006	53		 push	 ebx
  00007	56		 push	 esi
  00008	57		 push	 edi

; 497  : 	page_map_dimensions.x = MID_MAP_X;

  00009	f3 0f 10 05 30
	00 00 00	 movss	 xmm0, DWORD PTR ?world_map@@3UWORLD_MAP_DATA@@A+48
  00011	f3 0f 11 05 00
	00 00 00	 movss	 DWORD PTR ?page_map_dimensions@@3UMAP_DIMENSION_TYPE@@A, xmm0

; 498  : 	page_map_dimensions.z = MID_MAP_Z;

  00019	f3 0f 10 05 38
	00 00 00	 movss	 xmm0, DWORD PTR ?world_map@@3UWORLD_MAP_DATA@@A+56
  00021	f3 0f 11 05 04
	00 00 00	 movss	 DWORD PTR ?page_map_dimensions@@3UMAP_DIMENSION_TYPE@@A+4, xmm0

; 499  : 	page_map_dimensions.size = 4.0 * KILOMETRE;

  00029	f3 0f 10 05 00
	00 00 00	 movss	 xmm0, DWORD PTR __real@457a0000
  00031	f3 0f 11 05 08
	00 00 00	 movss	 DWORD PTR ?page_map_dimensions@@3UMAP_DIMENSION_TYPE@@A+8, xmm0

; 500  : 
; 501  : 	page_map_dimensions.subject_entity = NULL;

  00039	c7 05 44 00 00
	00 00 00 00 00	 mov	 DWORD PTR ?page_map_dimensions@@3UMAP_DIMENSION_TYPE@@A+68, 0

; 502  : 	page_map_dimensions.selected_entity = NULL;

  00043	c7 05 48 00 00
	00 00 00 00 00	 mov	 DWORD PTR ?page_map_dimensions@@3UMAP_DIMENSION_TYPE@@A+72, 0

; 503  : 
; 504  : 	clear_map_mouse_over_object (&page_map_dimensions);

  0004d	68 00 00 00 00	 push	 OFFSET ?page_map_dimensions@@3UMAP_DIMENSION_TYPE@@A
  00052	e8 00 00 00 00	 call	 ?clear_map_mouse_over_object@@YGXPAUMAP_DIMENSION_TYPE@@@Z ; clear_map_mouse_over_object

; 505  : 
; 506  : 	set_ui_object_drawable (page_3d_area, FALSE);

  00057	6a 00		 push	 0
  00059	a1 00 00 00 00	 mov	 eax, DWORD PTR ?page_3d_area@@3PAUUI_OBJECT@@A
  0005e	50		 push	 eax
  0005f	8b 0d 00 00 00
	00		 mov	 ecx, DWORD PTR ?page_3d_area@@3PAUUI_OBJECT@@A
  00065	8b 11		 mov	 edx, DWORD PTR [ecx]
  00067	8b 04 95 00 00
	00 00		 mov	 eax, DWORD PTR ?fn_set_ui_object_drawable@@3PAP6GXPAUUI_OBJECT@@H@ZA[edx*4]
  0006e	ff d0		 call	 eax

; 507  : 	set_ui_object_item_number (page_3d_area, ENTITY_INDEX_DONT_CARE);

  00070	6a ff		 push	 -1
  00072	a1 00 00 00 00	 mov	 eax, DWORD PTR ?page_3d_area@@3PAUUI_OBJECT@@A
  00077	50		 push	 eax
  00078	8b 0d 00 00 00
	00		 mov	 ecx, DWORD PTR ?page_3d_area@@3PAUUI_OBJECT@@A
  0007e	8b 11		 mov	 edx, DWORD PTR [ecx]
  00080	8b 04 95 00 00
	00 00		 mov	 eax, DWORD PTR ?fn_set_ui_object_item_number@@3PAP6GXPAUUI_OBJECT@@H@ZA[edx*4]
  00087	ff d0		 call	 eax

; 508  : 
; 509  : 	set_ui_object_drawable (page_map_area, TRUE);

  00089	6a 01		 push	 1
  0008b	a1 00 00 00 00	 mov	 eax, DWORD PTR ?page_map_area@@3PAUUI_OBJECT@@A
  00090	50		 push	 eax
  00091	8b 0d 00 00 00
	00		 mov	 ecx, DWORD PTR ?page_map_area@@3PAUUI_OBJECT@@A
  00097	8b 11		 mov	 edx, DWORD PTR [ecx]
  00099	8b 04 95 00 00
	00 00		 mov	 eax, DWORD PTR ?fn_set_ui_object_drawable@@3PAP6GXPAUUI_OBJECT@@H@ZA[edx*4]
  000a0	ff d0		 call	 eax

; 510  : 	set_ui_object_item_number (page_map_area, ENTITY_INDEX_DONT_CARE);

  000a2	6a ff		 push	 -1
  000a4	a1 00 00 00 00	 mov	 eax, DWORD PTR ?page_map_area@@3PAUUI_OBJECT@@A
  000a9	50		 push	 eax
  000aa	8b 0d 00 00 00
	00		 mov	 ecx, DWORD PTR ?page_map_area@@3PAUUI_OBJECT@@A
  000b0	8b 11		 mov	 edx, DWORD PTR [ecx]
  000b2	8b 04 95 00 00
	00 00		 mov	 eax, DWORD PTR ?fn_set_ui_object_item_number@@3PAP6GXPAUUI_OBJECT@@H@ZA[edx*4]
  000b9	ff d0		 call	 eax

; 511  : 
; 512  : 	set_ui_object_drawable (page_map_area, TRUE);

  000bb	6a 01		 push	 1
  000bd	a1 00 00 00 00	 mov	 eax, DWORD PTR ?page_map_area@@3PAUUI_OBJECT@@A
  000c2	50		 push	 eax
  000c3	8b 0d 00 00 00
	00		 mov	 ecx, DWORD PTR ?page_map_area@@3PAUUI_OBJECT@@A
  000c9	8b 11		 mov	 edx, DWORD PTR [ecx]
  000cb	8b 04 95 00 00
	00 00		 mov	 eax, DWORD PTR ?fn_set_ui_object_drawable@@3PAP6GXPAUUI_OBJECT@@H@ZA[edx*4]
  000d2	ff d0		 call	 eax

; 513  : 
; 514  : 	set_ui_object_state (page_map_toggle, UI_OBJECT_STATE_ON);

  000d4	6a 01		 push	 1
  000d6	a1 00 00 00 00	 mov	 eax, DWORD PTR ?page_map_toggle@@3PAUUI_OBJECT@@A
  000db	50		 push	 eax
  000dc	8b 0d 00 00 00
	00		 mov	 ecx, DWORD PTR ?page_map_toggle@@3PAUUI_OBJECT@@A
  000e2	8b 11		 mov	 edx, DWORD PTR [ecx]
  000e4	8b 04 95 00 00
	00 00		 mov	 eax, DWORD PTR ?fn_set_ui_object_state@@3PAP6GXPAUUI_OBJECT@@H@ZA[edx*4]
  000eb	ff d0		 call	 eax

; 515  : }

  000ed	5f		 pop	 edi
  000ee	5e		 pop	 esi
  000ef	5b		 pop	 ebx
  000f0	8b e5		 mov	 esp, ebp
  000f2	5d		 pop	 ebp
  000f3	c3		 ret	 0
?initialise_campaign_screen_briefing_page_objects@@YGXXZ ENDP ; initialise_campaign_screen_briefing_page_objects
_TEXT	ENDS
; Function compile flags: /Odtp /ZI
; File c:\users\nhv90\projects\eech\aphavoc\source\ui_menu\ingame\campaign\ca_brief.c
;	COMDAT ?show_briefing_page@@YGXPAUENTITY@@H@Z
_TEXT	SEGMENT
tv229 = -168						; size = 4
tv629 = -164						; size = 4
tv221 = -164						; size = 4
tv923 = -160						; size = 4
tv863 = -160						; size = 4
tv843 = -160						; size = 4
tv823 = -160						; size = 4
tv787 = -160						; size = 4
tv766 = -160						; size = 4
tv745 = -160						; size = 4
tv725 = -160						; size = 4
tv703 = -160						; size = 4
tv623 = -160						; size = 4
tv588 = -160						; size = 4
tv544 = -160						; size = 4
tv518 = -160						; size = 4
tv494 = -160						; size = 4
tv459 = -160						; size = 4
tv438 = -160						; size = 4
tv399 = -160						; size = 4
tv336 = -160						; size = 4
tv297 = -160						; size = 4
tv264 = -160						; size = 4
tv207 = -160						; size = 4
tv916 = -156						; size = 4
tv855 = -156						; size = 4
tv835 = -156						; size = 4
tv815 = -156						; size = 4
tv779 = -156						; size = 4
tv758 = -156						; size = 4
tv738 = -156						; size = 4
tv717 = -156						; size = 4
tv688 = -156						; size = 4
tv616 = -156						; size = 4
tv580 = -156						; size = 4
tv536 = -156						; size = 4
tv510 = -156						; size = 4
tv487 = -156						; size = 4
tv476 = -156						; size = 4
tv451 = -156						; size = 4
tv430 = -156						; size = 4
tv391 = -156						; size = 4
tv348 = -156						; size = 4
tv328 = -156						; size = 4
tv289 = -156						; size = 4
tv278 = -156						; size = 4
tv249 = -156						; size = 4
tv199 = -156						; size = 4
tv181 = -156						; size = 4
tv75 = -156						; size = 4
$T1 = -152						; size = 4
$T2 = -148						; size = 4
$T3 = -144						; size = 4
_route_length$4 = -76					; size = 4
_loop$5 = -72						; size = 4
_route_nodes$6 = -68					; size = 4
_wp$7 = -64						; size = 4
_base_pos$8 = -60					; size = 4
_pos$9 = -56						; size = 4
_max_pos$10 = -52					; size = 12
_min_pos$11 = -40					; size = 12
_dest_text_ptr$ = -28					; size = 4
_text_ptr$ = -24					; size = 4
_group$ = -20						; size = 4
_objective$ = -16					; size = 4
_guide$ = -12						; size = 4
_previous$ = -8						; size = 4
_base$ = -4						; size = 4
_mission$ = 8						; size = 4
_force_update$ = 12					; size = 4
?show_briefing_page@@YGXPAUENTITY@@H@Z PROC		; show_briefing_page, COMDAT

; 126  : {

  00000	55		 push	 ebp
  00001	8b ec		 mov	 ebp, esp
  00003	81 ec a8 00 00
	00		 sub	 esp, 168		; 000000a8H
  00009	53		 push	 ebx
  0000a	56		 push	 esi
  0000b	57		 push	 edi

; 127  : 	entity
; 128  : 		*base,
; 129  : 		*previous,
; 130  : 		*guide,
; 131  : 		*objective,
; 132  : 		*group;
; 133  : 
; 134  : 	static char
; 135  : 		s [128],
; 136  : 		text [3072],
; 137  : 		text1 [1024],
; 138  : 		text2 [1024],
; 139  : 		text3 [1024];
; 140  : 	static const char
; 141  : 		*objective_name;
; 142  : 
; 143  : 	char
; 144  : 		*text_ptr,
; 145  : 		*dest_text_ptr;
; 146  : 
; 147  : 	ASSERT (mission);

  0000c	83 7d 08 00	 cmp	 DWORD PTR _mission$[ebp], 0
  00010	75 18		 jne	 SHORT $LN13@show_brief
  00012	a1 00 00 00 00	 mov	 eax, DWORD PTR ?__LINE__Var@?0??show_briefing_page@@YGXPAUENTITY@@H@Z@4JA
  00017	83 c0 15	 add	 eax, 21			; 00000015H
  0001a	50		 push	 eax
  0001b	68 00 00 00 00	 push	 OFFSET ??_C@_0EP@NKGPCHE@c?3?2users?2nhv90?2projects?2eech?2ap@
  00020	68 00 00 00 00	 push	 OFFSET ??_C@_07CACALAH@mission@
  00025	e8 00 00 00 00	 call	 ?process_assert@@YGXPBD0H@Z ; process_assert
$LN13@show_brief:

; 148  : 
; 149  : 	ASSERT (get_local_entity_type (mission) == ENTITY_TYPE_TASK);

  0002a	83 7d 08 00	 cmp	 DWORD PTR _mission$[ebp], 0
  0002e	74 0d		 je	 SHORT $LN44@show_brief
  00030	8b 45 08	 mov	 eax, DWORD PTR _mission$[ebp]
  00033	8b 08		 mov	 ecx, DWORD PTR [eax]
  00035	89 8d 64 ff ff
	ff		 mov	 DWORD PTR tv75[ebp], ecx
  0003b	eb 24		 jmp	 SHORT $LN45@show_brief
$LN44@show_brief:
  0003d	8b 15 00 00 00
	00		 mov	 edx, DWORD PTR ?__LINE__Var@?0??show_briefing_page@@YGXPAUENTITY@@H@Z@4JA
  00043	83 c2 17	 add	 edx, 23			; 00000017H
  00046	52		 push	 edx
  00047	68 00 00 00 00	 push	 OFFSET ??_C@_0EP@NKGPCHE@c?3?2users?2nhv90?2projects?2eech?2ap@
  0004c	a1 00 00 00 00	 mov	 eax, DWORD PTR ?null_entity_pointer_message@@3PBDB ; null_entity_pointer_message
  00051	50		 push	 eax
  00052	e8 00 00 00 00	 call	 ?process_assert@@YGXPBD0H@Z ; process_assert
  00057	c7 85 64 ff ff
	ff 00 00 00 00	 mov	 DWORD PTR tv75[ebp], 0
$LN45@show_brief:
  00061	83 bd 64 ff ff
	ff 22		 cmp	 DWORD PTR tv75[ebp], 34	; 00000022H
  00068	74 18		 je	 SHORT $LN14@show_brief
  0006a	a1 00 00 00 00	 mov	 eax, DWORD PTR ?__LINE__Var@?0??show_briefing_page@@YGXPAUENTITY@@H@Z@4JA
  0006f	83 c0 17	 add	 eax, 23			; 00000017H
  00072	50		 push	 eax
  00073	68 00 00 00 00	 push	 OFFSET ??_C@_0EP@NKGPCHE@c?3?2users?2nhv90?2projects?2eech?2ap@
  00078	68 00 00 00 00	 push	 OFFSET ??_C@_0DE@LLEGJEGE@get_local_entity_type?5?$CImission?$CJ@
  0007d	e8 00 00 00 00	 call	 ?process_assert@@YGXPBD0H@Z ; process_assert
$LN14@show_brief:

; 150  : 
; 151  : 	//
; 152  : 	// Get Briefing_text
; 153  : 	//
; 154  : 
; 155  : 	ui_object_destroy_list_items (briefing_text_list);

  00082	a1 00 00 00 00	 mov	 eax, DWORD PTR ?briefing_text_list@@3PAUUI_OBJECT@@A
  00087	50		 push	 eax
  00088	e8 00 00 00 00	 call	 ?ui_object_destroy_list_items@@YGXPAUUI_OBJECT@@@Z ; ui_object_destroy_list_items

; 156  : 
; 157  : 	set_ui_object_virtual_y_size (briefing_text_list, 1.0);

  0008d	51		 push	 ecx
  0008e	f3 0f 10 05 00
	00 00 00	 movss	 xmm0, DWORD PTR __real@3f800000
  00096	f3 0f 11 04 24	 movss	 DWORD PTR [esp], xmm0
  0009b	a1 00 00 00 00	 mov	 eax, DWORD PTR ?briefing_text_list@@3PAUUI_OBJECT@@A
  000a0	50		 push	 eax
  000a1	8b 0d 00 00 00
	00		 mov	 ecx, DWORD PTR ?briefing_text_list@@3PAUUI_OBJECT@@A
  000a7	8b 11		 mov	 edx, DWORD PTR [ecx]
  000a9	8b 04 95 00 00
	00 00		 mov	 eax, DWORD PTR ?fn_set_ui_object_virtual_y_size@@3PAP6GXPAUUI_OBJECT@@M@ZA[edx*4]
  000b0	ff d0		 call	 eax

; 158  : 
; 159  : 	if (get_briefing_text (mission, text1, text2, text3))

  000b2	68 00 00 00 00	 push	 OFFSET ?text3@?1??show_briefing_page@@YGXPAUENTITY@@H@Z@4PADA
  000b7	68 00 00 00 00	 push	 OFFSET ?text2@?1??show_briefing_page@@YGXPAUENTITY@@H@Z@4PADA
  000bc	68 00 00 00 00	 push	 OFFSET ?text1@?1??show_briefing_page@@YGXPAUENTITY@@H@Z@4PADA
  000c1	8b 45 08	 mov	 eax, DWORD PTR _mission$[ebp]
  000c4	50		 push	 eax
  000c5	e8 00 00 00 00	 call	 ?get_briefing_text@@YGHPAUENTITY@@PAD11@Z ; get_briefing_text
  000ca	85 c0		 test	 eax, eax
  000cc	0f 84 06 01 00
	00		 je	 $LN15@show_brief

; 160  : 	{
; 161  : 
; 162  : 		memset (text, 0, sizeof (text));

  000d2	68 00 0c 00 00	 push	 3072			; 00000c00H
  000d7	6a 00		 push	 0
  000d9	68 00 00 00 00	 push	 OFFSET ?text@?1??show_briefing_page@@YGXPAUENTITY@@H@Z@4PADA
  000de	e8 00 00 00 00	 call	 _memset
  000e3	83 c4 0c	 add	 esp, 12			; 0000000cH

; 163  : 
; 164  : 		// manually copy the first string
; 165  : 
; 166  : 		dest_text_ptr = text;

  000e6	c7 45 e4 00 00
	00 00		 mov	 DWORD PTR _dest_text_ptr$[ebp], OFFSET ?text@?1??show_briefing_page@@YGXPAUENTITY@@H@Z@4PADA

; 167  : 
; 168  : 		text_ptr = text1;

  000ed	c7 45 e8 00 00
	00 00		 mov	 DWORD PTR _text_ptr$[ebp], OFFSET ?text1@?1??show_briefing_page@@YGXPAUENTITY@@H@Z@4PADA

; 169  : 
; 170  : 		if ((*text_ptr != '\0') && (*text_ptr != '\n'))

  000f4	8b 45 e8	 mov	 eax, DWORD PTR _text_ptr$[ebp]
  000f7	0f b6 08	 movzx	 ecx, BYTE PTR [eax]
  000fa	85 c9		 test	 ecx, ecx
  000fc	74 4d		 je	 SHORT $LN16@show_brief
  000fe	8b 45 e8	 mov	 eax, DWORD PTR _text_ptr$[ebp]
  00101	0f b6 08	 movzx	 ecx, BYTE PTR [eax]
  00104	83 f9 0a	 cmp	 ecx, 10			; 0000000aH
  00107	74 42		 je	 SHORT $LN16@show_brief
$LN2@show_brief:

; 171  : 		{
; 172  : 	
; 173  : 			while ((*text_ptr != '\0') && (*text_ptr != '\n'))

  00109	8b 45 e8	 mov	 eax, DWORD PTR _text_ptr$[ebp]
  0010c	0f b6 08	 movzx	 ecx, BYTE PTR [eax]
  0010f	85 c9		 test	 ecx, ecx
  00111	74 29		 je	 SHORT $LN3@show_brief
  00113	8b 45 e8	 mov	 eax, DWORD PTR _text_ptr$[ebp]
  00116	0f b6 08	 movzx	 ecx, BYTE PTR [eax]
  00119	83 f9 0a	 cmp	 ecx, 10			; 0000000aH
  0011c	74 1e		 je	 SHORT $LN3@show_brief

; 174  : 			{
; 175  : 	
; 176  : 				*dest_text_ptr = *text_ptr;

  0011e	8b 45 e4	 mov	 eax, DWORD PTR _dest_text_ptr$[ebp]
  00121	8b 4d e8	 mov	 ecx, DWORD PTR _text_ptr$[ebp]
  00124	8a 11		 mov	 dl, BYTE PTR [ecx]
  00126	88 10		 mov	 BYTE PTR [eax], dl

; 177  : 	
; 178  : 				dest_text_ptr ++;

  00128	8b 45 e4	 mov	 eax, DWORD PTR _dest_text_ptr$[ebp]
  0012b	83 c0 01	 add	 eax, 1
  0012e	89 45 e4	 mov	 DWORD PTR _dest_text_ptr$[ebp], eax

; 179  : 				text_ptr ++;

  00131	8b 45 e8	 mov	 eax, DWORD PTR _text_ptr$[ebp]
  00134	83 c0 01	 add	 eax, 1
  00137	89 45 e8	 mov	 DWORD PTR _text_ptr$[ebp], eax

; 180  : 			}

  0013a	eb cd		 jmp	 SHORT $LN2@show_brief
$LN3@show_brief:

; 181  : 	
; 182  : 			*dest_text_ptr = ' ';

  0013c	8b 45 e4	 mov	 eax, DWORD PTR _dest_text_ptr$[ebp]
  0013f	c6 00 20	 mov	 BYTE PTR [eax], 32	; 00000020H

; 183  : 			dest_text_ptr ++;

  00142	8b 45 e4	 mov	 eax, DWORD PTR _dest_text_ptr$[ebp]
  00145	83 c0 01	 add	 eax, 1
  00148	89 45 e4	 mov	 DWORD PTR _dest_text_ptr$[ebp], eax
$LN16@show_brief:

; 184  : 		}
; 185  : 
; 186  : 		// manually copy the first string
; 187  : 
; 188  : 		text_ptr = text2;

  0014b	c7 45 e8 00 00
	00 00		 mov	 DWORD PTR _text_ptr$[ebp], OFFSET ?text2@?1??show_briefing_page@@YGXPAUENTITY@@H@Z@4PADA

; 189  : 
; 190  : 		if ((*text_ptr != '\0') && (*text_ptr != '\n'))

  00152	8b 45 e8	 mov	 eax, DWORD PTR _text_ptr$[ebp]
  00155	0f b6 08	 movzx	 ecx, BYTE PTR [eax]
  00158	85 c9		 test	 ecx, ecx
  0015a	74 4d		 je	 SHORT $LN17@show_brief
  0015c	8b 45 e8	 mov	 eax, DWORD PTR _text_ptr$[ebp]
  0015f	0f b6 08	 movzx	 ecx, BYTE PTR [eax]
  00162	83 f9 0a	 cmp	 ecx, 10			; 0000000aH
  00165	74 42		 je	 SHORT $LN17@show_brief
$LN4@show_brief:

; 191  : 		{
; 192  : 	
; 193  : 			while ((*text_ptr != '\0') && (*text_ptr != '\n'))

  00167	8b 45 e8	 mov	 eax, DWORD PTR _text_ptr$[ebp]
  0016a	0f b6 08	 movzx	 ecx, BYTE PTR [eax]
  0016d	85 c9		 test	 ecx, ecx
  0016f	74 29		 je	 SHORT $LN5@show_brief
  00171	8b 45 e8	 mov	 eax, DWORD PTR _text_ptr$[ebp]
  00174	0f b6 08	 movzx	 ecx, BYTE PTR [eax]
  00177	83 f9 0a	 cmp	 ecx, 10			; 0000000aH
  0017a	74 1e		 je	 SHORT $LN5@show_brief

; 194  : 			{
; 195  : 	
; 196  : 				*dest_text_ptr = *text_ptr;

  0017c	8b 45 e4	 mov	 eax, DWORD PTR _dest_text_ptr$[ebp]
  0017f	8b 4d e8	 mov	 ecx, DWORD PTR _text_ptr$[ebp]
  00182	8a 11		 mov	 dl, BYTE PTR [ecx]
  00184	88 10		 mov	 BYTE PTR [eax], dl

; 197  : 	
; 198  : 				dest_text_ptr ++;

  00186	8b 45 e4	 mov	 eax, DWORD PTR _dest_text_ptr$[ebp]
  00189	83 c0 01	 add	 eax, 1
  0018c	89 45 e4	 mov	 DWORD PTR _dest_text_ptr$[ebp], eax

; 199  : 				text_ptr ++;

  0018f	8b 45 e8	 mov	 eax, DWORD PTR _text_ptr$[ebp]
  00192	83 c0 01	 add	 eax, 1
  00195	89 45 e8	 mov	 DWORD PTR _text_ptr$[ebp], eax

; 200  : 			}

  00198	eb cd		 jmp	 SHORT $LN4@show_brief
$LN5@show_brief:

; 201  : 	
; 202  : 			*dest_text_ptr = ' ';

  0019a	8b 45 e4	 mov	 eax, DWORD PTR _dest_text_ptr$[ebp]
  0019d	c6 00 20	 mov	 BYTE PTR [eax], 32	; 00000020H

; 203  : 			dest_text_ptr ++;

  001a0	8b 45 e4	 mov	 eax, DWORD PTR _dest_text_ptr$[ebp]
  001a3	83 c0 01	 add	 eax, 1
  001a6	89 45 e4	 mov	 DWORD PTR _dest_text_ptr$[ebp], eax
$LN17@show_brief:

; 204  : 		}
; 205  : 
; 206  : 		// strcat the last to include the eof
; 207  : 
; 208  : 		strcat (text, text3);

  001a9	68 00 00 00 00	 push	 OFFSET ?text3@?1??show_briefing_page@@YGXPAUENTITY@@H@Z@4PADA
  001ae	68 00 00 00 00	 push	 OFFSET ?text@?1??show_briefing_page@@YGXPAUENTITY@@H@Z@4PADA
  001b3	e8 00 00 00 00	 call	 _strcat
  001b8	83 c4 08	 add	 esp, 8

; 209  : 
; 210  : 		add_to_pop_up_list_with_word_wrap (text, briefing_text_list, NULL, 0, UI_FONT_ARIAL_10, ui_ingame_dead_text_colour);

  001bb	a1 00 00 00 00	 mov	 eax, DWORD PTR ?ui_ingame_dead_text_colour@@3UREAL_COLOUR@@A ; ui_ingame_dead_text_colour
  001c0	50		 push	 eax
  001c1	6a 00		 push	 0
  001c3	6a 00		 push	 0
  001c5	6a 00		 push	 0
  001c7	8b 0d 00 00 00
	00		 mov	 ecx, DWORD PTR ?briefing_text_list@@3PAUUI_OBJECT@@A
  001cd	51		 push	 ecx
  001ce	68 00 00 00 00	 push	 OFFSET ?text@?1??show_briefing_page@@YGXPAUENTITY@@H@Z@4PADA
  001d3	e8 00 00 00 00	 call	 ?add_to_pop_up_list_with_word_wrap@@YGPAUUI_OBJECT@@PBDPAU1@1HHUREAL_COLOUR@@@Z ; add_to_pop_up_list_with_word_wrap
$LN15@show_brief:

; 211  : 	}
; 212  : 
; 213  : 	resize_briefing_list_size (briefing_text_list);

  001d8	a1 00 00 00 00	 mov	 eax, DWORD PTR ?briefing_text_list@@3PAUUI_OBJECT@@A
  001dd	50		 push	 eax
  001de	e8 00 00 00 00	 call	 ?resize_briefing_list_size@@YGXPAUUI_OBJECT@@@Z ; resize_briefing_list_size

; 214  : 
; 215  : 	//
; 216  : 	// 
; 217  : 	//
; 218  : 
; 219  : 	if (force_update)

  001e3	83 7d 0c 00	 cmp	 DWORD PTR _force_update$[ebp], 0
  001e7	74 09		 je	 SHORT $LN18@show_brief

; 220  : 	{
; 221  : 		previous = NULL;

  001e9	c7 45 f8 00 00
	00 00		 mov	 DWORD PTR _previous$[ebp], 0

; 222  : 	}
; 223  : 	else

  001f0	eb 79		 jmp	 SHORT $LN19@show_brief
$LN18@show_brief:

; 224  : 	{
; 225  : 		previous = get_local_entity_safe_ptr (get_ui_object_item_number (campaign_page [CAMPAIGN_PAGE_BRIEFING]));

  001f2	b8 04 00 00 00	 mov	 eax, 4
  001f7	c1 e0 00	 shl	 eax, 0
  001fa	8b 88 00 00 00
	00		 mov	 ecx, DWORD PTR ?campaign_page@@3PAPAUUI_OBJECT@@A[eax]
  00200	51		 push	 ecx
  00201	ba 04 00 00 00	 mov	 edx, 4
  00206	c1 e2 00	 shl	 edx, 0
  00209	8b 82 00 00 00
	00		 mov	 eax, DWORD PTR ?campaign_page@@3PAPAUUI_OBJECT@@A[edx]
  0020f	8b 08		 mov	 ecx, DWORD PTR [eax]
  00211	8b 14 8d 00 00
	00 00		 mov	 edx, DWORD PTR ?fn_get_ui_object_item_number@@3PAP6GHPAUUI_OBJECT@@@ZA[ecx*4]
  00218	ff d2		 call	 edx
  0021a	83 f8 ff	 cmp	 eax, -1
  0021d	74 39		 je	 SHORT $LN46@show_brief
  0021f	b8 04 00 00 00	 mov	 eax, 4
  00224	c1 e0 00	 shl	 eax, 0
  00227	8b 88 00 00 00
	00		 mov	 ecx, DWORD PTR ?campaign_page@@3PAPAUUI_OBJECT@@A[eax]
  0022d	51		 push	 ecx
  0022e	ba 04 00 00 00	 mov	 edx, 4
  00233	c1 e2 00	 shl	 edx, 0
  00236	8b 82 00 00 00
	00		 mov	 eax, DWORD PTR ?campaign_page@@3PAPAUUI_OBJECT@@A[edx]
  0023c	8b 08		 mov	 ecx, DWORD PTR [eax]
  0023e	8b 14 8d 00 00
	00 00		 mov	 edx, DWORD PTR ?fn_get_ui_object_item_number@@3PAP6GHPAUUI_OBJECT@@@ZA[ecx*4]
  00245	ff d2		 call	 edx
  00247	c1 e0 04	 shl	 eax, 4
  0024a	03 05 00 00 00
	00		 add	 eax, DWORD PTR ?entities@@3PAUENTITY@@A ; entities
  00250	89 85 64 ff ff
	ff		 mov	 DWORD PTR tv181[ebp], eax
  00256	eb 0a		 jmp	 SHORT $LN47@show_brief
$LN46@show_brief:
  00258	c7 85 64 ff ff
	ff 00 00 00 00	 mov	 DWORD PTR tv181[ebp], 0
$LN47@show_brief:
  00262	8b 85 64 ff ff
	ff		 mov	 eax, DWORD PTR tv181[ebp]
  00268	89 45 f8	 mov	 DWORD PTR _previous$[ebp], eax
$LN19@show_brief:

; 226  : 	}
; 227  : 
; 228  : 	sprintf (s, "%s:", get_trans ("Briefing"));

  0026b	68 00 00 00 00	 push	 OFFSET ??_C@_08HJFJOAMM@Briefing@
  00270	e8 00 00 00 00	 call	 ?get_trans@@YGPBDPBD@Z	; get_trans
  00275	50		 push	 eax
  00276	68 00 00 00 00	 push	 OFFSET ??_C@_03DKEJHHJP@?$CFs?3@
  0027b	68 00 00 00 00	 push	 OFFSET ?s@?1??show_briefing_page@@YGXPAUENTITY@@H@Z@4PADA
  00280	e8 00 00 00 00	 call	 _sprintf
  00285	83 c4 0c	 add	 esp, 12			; 0000000cH

; 229  : 
; 230  : 	set_ui_object_text (briefing_page_title, s);

  00288	68 00 00 00 00	 push	 OFFSET ?s@?1??show_briefing_page@@YGXPAUENTITY@@H@Z@4PADA
  0028d	a1 00 00 00 00	 mov	 eax, DWORD PTR ?briefing_page_title@@3PAUUI_OBJECT@@A
  00292	50		 push	 eax
  00293	8b 0d 00 00 00
	00		 mov	 ecx, DWORD PTR ?briefing_page_title@@3PAUUI_OBJECT@@A
  00299	8b 11		 mov	 edx, DWORD PTR [ecx]
  0029b	8b 04 95 00 00
	00 00		 mov	 eax, DWORD PTR ?fn_set_ui_object_text@@3PAP6GXPAUUI_OBJECT@@PBD@ZA[edx*4]
  002a2	ff d0		 call	 eax

; 231  : 
; 232  : 	sprintf (s, "%s #%d", get_trans (get_local_entity_string (mission, STRING_TYPE_FULL_NAME)), get_local_entity_int_value (mission, INT_TYPE_TASK_ID));

  002a4	83 7d 08 00	 cmp	 DWORD PTR _mission$[ebp], 0
  002a8	74 0d		 je	 SHORT $LN48@show_brief
  002aa	8b 45 08	 mov	 eax, DWORD PTR _mission$[ebp]
  002ad	8b 08		 mov	 ecx, DWORD PTR [eax]
  002af	89 8d 64 ff ff
	ff		 mov	 DWORD PTR tv199[ebp], ecx
  002b5	eb 24		 jmp	 SHORT $LN49@show_brief
$LN48@show_brief:
  002b7	8b 15 00 00 00
	00		 mov	 edx, DWORD PTR ?__LINE__Var@?0??show_briefing_page@@YGXPAUENTITY@@H@Z@4JA
  002bd	83 c2 6a	 add	 edx, 106		; 0000006aH
  002c0	52		 push	 edx
  002c1	68 00 00 00 00	 push	 OFFSET ??_C@_0EP@NKGPCHE@c?3?2users?2nhv90?2projects?2eech?2ap@
  002c6	a1 00 00 00 00	 mov	 eax, DWORD PTR ?null_entity_pointer_message@@3PBDB ; null_entity_pointer_message
  002cb	50		 push	 eax
  002cc	e8 00 00 00 00	 call	 ?process_assert@@YGXPBD0H@Z ; process_assert
  002d1	c7 85 64 ff ff
	ff 00 00 00 00	 mov	 DWORD PTR tv199[ebp], 0
$LN49@show_brief:
  002db	b9 01 00 00 00	 mov	 ecx, 1
  002e0	85 c9		 test	 ecx, ecx
  002e2	74 0c		 je	 SHORT $LN50@show_brief
  002e4	c7 85 60 ff ff
	ff dc 00 00 00	 mov	 DWORD PTR tv207[ebp], 220 ; 000000dcH
  002ee	eb 24		 jmp	 SHORT $LN51@show_brief
$LN50@show_brief:
  002f0	8b 15 00 00 00
	00		 mov	 edx, DWORD PTR ?__LINE__Var@?0??show_briefing_page@@YGXPAUENTITY@@H@Z@4JA
  002f6	83 c2 6a	 add	 edx, 106		; 0000006aH
  002f9	52		 push	 edx
  002fa	68 00 00 00 00	 push	 OFFSET ??_C@_0EP@NKGPCHE@c?3?2users?2nhv90?2projects?2eech?2ap@
  002ff	a1 00 00 00 00	 mov	 eax, DWORD PTR ?overload_invalid_int_type_message@@3PBDB ; overload_invalid_int_type_message
  00304	50		 push	 eax
  00305	e8 00 00 00 00	 call	 ?process_assert@@YGXPBD0H@Z ; process_assert
  0030a	c7 85 60 ff ff
	ff 00 00 00 00	 mov	 DWORD PTR tv207[ebp], 0
$LN51@show_brief:
  00314	83 7d 08 00	 cmp	 DWORD PTR _mission$[ebp], 0
  00318	74 0d		 je	 SHORT $LN52@show_brief
  0031a	8b 4d 08	 mov	 ecx, DWORD PTR _mission$[ebp]
  0031d	8b 11		 mov	 edx, DWORD PTR [ecx]
  0031f	89 95 5c ff ff
	ff		 mov	 DWORD PTR tv221[ebp], edx
  00325	eb 24		 jmp	 SHORT $LN53@show_brief
$LN52@show_brief:
  00327	a1 00 00 00 00	 mov	 eax, DWORD PTR ?__LINE__Var@?0??show_briefing_page@@YGXPAUENTITY@@H@Z@4JA
  0032c	83 c0 6a	 add	 eax, 106		; 0000006aH
  0032f	50		 push	 eax
  00330	68 00 00 00 00	 push	 OFFSET ??_C@_0EP@NKGPCHE@c?3?2users?2nhv90?2projects?2eech?2ap@
  00335	8b 0d 00 00 00
	00		 mov	 ecx, DWORD PTR ?null_entity_pointer_message@@3PBDB ; null_entity_pointer_message
  0033b	51		 push	 ecx
  0033c	e8 00 00 00 00	 call	 ?process_assert@@YGXPBD0H@Z ; process_assert
  00341	c7 85 5c ff ff
	ff 00 00 00 00	 mov	 DWORD PTR tv221[ebp], 0
$LN53@show_brief:
  0034b	ba 01 00 00 00	 mov	 edx, 1
  00350	85 d2		 test	 edx, edx
  00352	74 0c		 je	 SHORT $LN54@show_brief
  00354	c7 85 58 ff ff
	ff 03 00 00 00	 mov	 DWORD PTR tv229[ebp], 3
  0035e	eb 24		 jmp	 SHORT $LN55@show_brief
$LN54@show_brief:
  00360	a1 00 00 00 00	 mov	 eax, DWORD PTR ?__LINE__Var@?0??show_briefing_page@@YGXPAUENTITY@@H@Z@4JA
  00365	83 c0 6a	 add	 eax, 106		; 0000006aH
  00368	50		 push	 eax
  00369	68 00 00 00 00	 push	 OFFSET ??_C@_0EP@NKGPCHE@c?3?2users?2nhv90?2projects?2eech?2ap@
  0036e	8b 0d 00 00 00
	00		 mov	 ecx, DWORD PTR ?overload_invalid_string_type_message@@3PBDB ; overload_invalid_string_type_message
  00374	51		 push	 ecx
  00375	e8 00 00 00 00	 call	 ?process_assert@@YGXPBD0H@Z ; process_assert
  0037a	c7 85 58 ff ff
	ff 00 00 00 00	 mov	 DWORD PTR tv229[ebp], 0
$LN55@show_brief:
  00384	68 dc 00 00 00	 push	 220			; 000000dcH
  00389	8b 55 08	 mov	 edx, DWORD PTR _mission$[ebp]
  0038c	52		 push	 edx
  0038d	69 85 64 ff ff
	ff 5c 04 00 00	 imul	 eax, DWORD PTR tv199[ebp], 1116
  00397	8b 8d 60 ff ff
	ff		 mov	 ecx, DWORD PTR tv207[ebp]
  0039d	8b 94 88 00 00
	00 00		 mov	 edx, DWORD PTR ?fn_get_local_entity_int_value@@3PAY0BBH@P6GHPAUENTITY@@W4INT_TYPES@@@ZA[eax+ecx*4]
  003a4	ff d2		 call	 edx
  003a6	50		 push	 eax
  003a7	6a 03		 push	 3
  003a9	8b 45 08	 mov	 eax, DWORD PTR _mission$[ebp]
  003ac	50		 push	 eax
  003ad	6b 8d 5c ff ff
	ff 34		 imul	 ecx, DWORD PTR tv221[ebp], 52
  003b4	8b 95 58 ff ff
	ff		 mov	 edx, DWORD PTR tv229[ebp]
  003ba	8b 84 91 00 00
	00 00		 mov	 eax, DWORD PTR ?fn_get_local_entity_string@@3PAY0N@P6GPBDPAUENTITY@@W4STRING_TYPES@@@ZA[ecx+edx*4]
  003c1	ff d0		 call	 eax
  003c3	50		 push	 eax
  003c4	e8 00 00 00 00	 call	 ?get_trans@@YGPBDPBD@Z	; get_trans
  003c9	50		 push	 eax
  003ca	68 00 00 00 00	 push	 OFFSET ??_C@_06DOPBEMKJ@?$CFs?5?$CD?$CFd@
  003cf	68 00 00 00 00	 push	 OFFSET ?s@?1??show_briefing_page@@YGXPAUENTITY@@H@Z@4PADA
  003d4	e8 00 00 00 00	 call	 _sprintf
  003d9	83 c4 10	 add	 esp, 16			; 00000010H

; 233  : 
; 234  : 	set_ui_object_text (briefing_page_type, s);

  003dc	68 00 00 00 00	 push	 OFFSET ?s@?1??show_briefing_page@@YGXPAUENTITY@@H@Z@4PADA
  003e1	a1 00 00 00 00	 mov	 eax, DWORD PTR ?briefing_page_type@@3PAUUI_OBJECT@@A
  003e6	50		 push	 eax
  003e7	8b 0d 00 00 00
	00		 mov	 ecx, DWORD PTR ?briefing_page_type@@3PAUUI_OBJECT@@A
  003ed	8b 11		 mov	 edx, DWORD PTR [ecx]
  003ef	8b 04 95 00 00
	00 00		 mov	 eax, DWORD PTR ?fn_set_ui_object_text@@3PAP6GXPAUUI_OBJECT@@PBD@ZA[edx*4]
  003f6	ff d0		 call	 eax

; 235  : 
; 236  : 	//
; 237  : 	// TAKEOFF BASE
; 238  : 	//
; 239  : 
; 240  : 	base = get_local_entity_parent (mission, get_local_task_list_type (mission));

  003f8	83 7d 08 00	 cmp	 DWORD PTR _mission$[ebp], 0
  003fc	74 0d		 je	 SHORT $LN56@show_brief
  003fe	8b 45 08	 mov	 eax, DWORD PTR _mission$[ebp]
  00401	8b 08		 mov	 ecx, DWORD PTR [eax]
  00403	89 8d 64 ff ff
	ff		 mov	 DWORD PTR tv249[ebp], ecx
  00409	eb 24		 jmp	 SHORT $LN57@show_brief
$LN56@show_brief:
  0040b	8b 15 00 00 00
	00		 mov	 edx, DWORD PTR ?__LINE__Var@?0??show_briefing_page@@YGXPAUENTITY@@H@Z@4JA
  00411	83 c2 72	 add	 edx, 114		; 00000072H
  00414	52		 push	 edx
  00415	68 00 00 00 00	 push	 OFFSET ??_C@_0EP@NKGPCHE@c?3?2users?2nhv90?2projects?2eech?2ap@
  0041a	a1 00 00 00 00	 mov	 eax, DWORD PTR ?null_entity_pointer_message@@3PBDB ; null_entity_pointer_message
  0041f	50		 push	 eax
  00420	e8 00 00 00 00	 call	 ?process_assert@@YGXPBD0H@Z ; process_assert
  00425	c7 85 64 ff ff
	ff 00 00 00 00	 mov	 DWORD PTR tv249[ebp], 0
$LN57@show_brief:
  0042f	8b 4d 08	 mov	 ecx, DWORD PTR _mission$[ebp]
  00432	51		 push	 ecx
  00433	e8 00 00 00 00	 call	 ?get_local_task_list_type@@YG?AW4LIST_TYPES@@PAUENTITY@@@Z ; get_local_task_list_type
  00438	85 c0		 test	 eax, eax
  0043a	7c 1f		 jl	 SHORT $LN58@show_brief
  0043c	8b 55 08	 mov	 edx, DWORD PTR _mission$[ebp]
  0043f	52		 push	 edx
  00440	e8 00 00 00 00	 call	 ?get_local_task_list_type@@YG?AW4LIST_TYPES@@PAUENTITY@@@Z ; get_local_task_list_type
  00445	83 f8 2d	 cmp	 eax, 45			; 0000002dH
  00448	7d 11		 jge	 SHORT $LN58@show_brief
  0044a	8b 45 08	 mov	 eax, DWORD PTR _mission$[ebp]
  0044d	50		 push	 eax
  0044e	e8 00 00 00 00	 call	 ?get_local_task_list_type@@YG?AW4LIST_TYPES@@PAUENTITY@@@Z ; get_local_task_list_type
  00453	89 85 60 ff ff
	ff		 mov	 DWORD PTR tv264[ebp], eax
  00459	eb 25		 jmp	 SHORT $LN59@show_brief
$LN58@show_brief:
  0045b	8b 0d 00 00 00
	00		 mov	 ecx, DWORD PTR ?__LINE__Var@?0??show_briefing_page@@YGXPAUENTITY@@H@Z@4JA
  00461	83 c1 72	 add	 ecx, 114		; 00000072H
  00464	51		 push	 ecx
  00465	68 00 00 00 00	 push	 OFFSET ??_C@_0EP@NKGPCHE@c?3?2users?2nhv90?2projects?2eech?2ap@
  0046a	8b 15 00 00 00
	00		 mov	 edx, DWORD PTR ?overload_invalid_list_type_message@@3PBDB ; overload_invalid_list_type_message
  00470	52		 push	 edx
  00471	e8 00 00 00 00	 call	 ?process_assert@@YGXPBD0H@Z ; process_assert
  00476	c7 85 60 ff ff
	ff 00 00 00 00	 mov	 DWORD PTR tv264[ebp], 0
$LN59@show_brief:
  00480	8b 45 08	 mov	 eax, DWORD PTR _mission$[ebp]
  00483	50		 push	 eax
  00484	e8 00 00 00 00	 call	 ?get_local_task_list_type@@YG?AW4LIST_TYPES@@PAUENTITY@@@Z ; get_local_task_list_type
  00489	50		 push	 eax
  0048a	8b 4d 08	 mov	 ecx, DWORD PTR _mission$[ebp]
  0048d	51		 push	 ecx
  0048e	69 95 64 ff ff
	ff b4 00 00 00	 imul	 edx, DWORD PTR tv249[ebp], 180
  00498	8b 85 60 ff ff
	ff		 mov	 eax, DWORD PTR tv264[ebp]
  0049e	8b 8c 82 00 00
	00 00		 mov	 ecx, DWORD PTR ?fn_get_local_entity_parent@@3PAY0CN@P6GPAUENTITY@@PAU1@W4LIST_TYPES@@@ZA[edx+eax*4]
  004a5	ff d1		 call	 ecx
  004a7	89 45 fc	 mov	 DWORD PTR _base$[ebp], eax

; 241  : 
; 242  : 	if ((base) && (get_local_entity_type (base) == ENTITY_TYPE_KEYSITE))

  004aa	83 7d fc 00	 cmp	 DWORD PTR _base$[ebp], 0
  004ae	0f 84 0b 01 00
	00		 je	 $LN20@show_brief
  004b4	83 7d fc 00	 cmp	 DWORD PTR _base$[ebp], 0
  004b8	74 0d		 je	 SHORT $LN60@show_brief
  004ba	8b 45 fc	 mov	 eax, DWORD PTR _base$[ebp]
  004bd	8b 08		 mov	 ecx, DWORD PTR [eax]
  004bf	89 8d 64 ff ff
	ff		 mov	 DWORD PTR tv278[ebp], ecx
  004c5	eb 20		 jmp	 SHORT $LN61@show_brief
$LN60@show_brief:
  004c7	68 f2 00 00 00	 push	 242			; 000000f2H
  004cc	68 00 00 00 00	 push	 OFFSET ??_C@_0EP@NKGPCHE@c?3?2users?2nhv90?2projects?2eech?2ap@
  004d1	8b 15 00 00 00
	00		 mov	 edx, DWORD PTR ?null_entity_pointer_message@@3PBDB ; null_entity_pointer_message
  004d7	52		 push	 edx
  004d8	e8 00 00 00 00	 call	 ?process_assert@@YGXPBD0H@Z ; process_assert
  004dd	c7 85 64 ff ff
	ff 00 00 00 00	 mov	 DWORD PTR tv278[ebp], 0
$LN61@show_brief:
  004e7	83 bd 64 ff ff
	ff 0f		 cmp	 DWORD PTR tv278[ebp], 15 ; 0000000fH
  004ee	0f 85 cb 00 00
	00		 jne	 $LN20@show_brief

; 243  : 	{
; 244  : 		set_ui_object_text (briefing_page_takeoff_base_box, get_local_entity_string (base, STRING_TYPE_KEYSITE_NAME));

  004f4	83 7d fc 00	 cmp	 DWORD PTR _base$[ebp], 0
  004f8	74 0d		 je	 SHORT $LN62@show_brief
  004fa	8b 45 fc	 mov	 eax, DWORD PTR _base$[ebp]
  004fd	8b 08		 mov	 ecx, DWORD PTR [eax]
  004ff	89 8d 64 ff ff
	ff		 mov	 DWORD PTR tv289[ebp], ecx
  00505	eb 24		 jmp	 SHORT $LN63@show_brief
$LN62@show_brief:
  00507	8b 15 00 00 00
	00		 mov	 edx, DWORD PTR ?__LINE__Var@?0??show_briefing_page@@YGXPAUENTITY@@H@Z@4JA
  0050d	83 c2 76	 add	 edx, 118		; 00000076H
  00510	52		 push	 edx
  00511	68 00 00 00 00	 push	 OFFSET ??_C@_0EP@NKGPCHE@c?3?2users?2nhv90?2projects?2eech?2ap@
  00516	a1 00 00 00 00	 mov	 eax, DWORD PTR ?null_entity_pointer_message@@3PBDB ; null_entity_pointer_message
  0051b	50		 push	 eax
  0051c	e8 00 00 00 00	 call	 ?process_assert@@YGXPBD0H@Z ; process_assert
  00521	c7 85 64 ff ff
	ff 00 00 00 00	 mov	 DWORD PTR tv289[ebp], 0
$LN63@show_brief:
  0052b	b9 01 00 00 00	 mov	 ecx, 1
  00530	85 c9		 test	 ecx, ecx
  00532	74 0c		 je	 SHORT $LN64@show_brief
  00534	c7 85 60 ff ff
	ff 07 00 00 00	 mov	 DWORD PTR tv297[ebp], 7
  0053e	eb 24		 jmp	 SHORT $LN65@show_brief
$LN64@show_brief:
  00540	8b 15 00 00 00
	00		 mov	 edx, DWORD PTR ?__LINE__Var@?0??show_briefing_page@@YGXPAUENTITY@@H@Z@4JA
  00546	83 c2 76	 add	 edx, 118		; 00000076H
  00549	52		 push	 edx
  0054a	68 00 00 00 00	 push	 OFFSET ??_C@_0EP@NKGPCHE@c?3?2users?2nhv90?2projects?2eech?2ap@
  0054f	a1 00 00 00 00	 mov	 eax, DWORD PTR ?overload_invalid_string_type_message@@3PBDB ; overload_invalid_string_type_message
  00554	50		 push	 eax
  00555	e8 00 00 00 00	 call	 ?process_assert@@YGXPBD0H@Z ; process_assert
  0055a	c7 85 60 ff ff
	ff 00 00 00 00	 mov	 DWORD PTR tv297[ebp], 0
$LN65@show_brief:
  00564	6a 07		 push	 7
  00566	8b 4d fc	 mov	 ecx, DWORD PTR _base$[ebp]
  00569	51		 push	 ecx
  0056a	6b 95 64 ff ff
	ff 34		 imul	 edx, DWORD PTR tv289[ebp], 52
  00571	8b 85 60 ff ff
	ff		 mov	 eax, DWORD PTR tv297[ebp]
  00577	8b 8c 82 00 00
	00 00		 mov	 ecx, DWORD PTR ?fn_get_local_entity_string@@3PAY0N@P6GPBDPAUENTITY@@W4STRING_TYPES@@@ZA[edx+eax*4]
  0057e	ff d1		 call	 ecx
  00580	50		 push	 eax
  00581	8b 15 00 00 00
	00		 mov	 edx, DWORD PTR ?briefing_page_takeoff_base_box@@3PAUUI_OBJECT@@A
  00587	52		 push	 edx
  00588	a1 00 00 00 00	 mov	 eax, DWORD PTR ?briefing_page_takeoff_base_box@@3PAUUI_OBJECT@@A
  0058d	8b 08		 mov	 ecx, DWORD PTR [eax]
  0058f	8b 14 8d 00 00
	00 00		 mov	 edx, DWORD PTR ?fn_set_ui_object_text@@3PAP6GXPAUUI_OBJECT@@PBD@ZA[ecx*4]
  00596	ff d2		 call	 edx

; 245  : 
; 246  : 		set_ui_object_item_number (briefing_page_takeoff_base_box, get_local_entity_index (base));

  00598	8b 45 fc	 mov	 eax, DWORD PTR _base$[ebp]
  0059b	2b 05 00 00 00
	00		 sub	 eax, DWORD PTR ?entities@@3PAUENTITY@@A ; entities
  005a1	c1 f8 04	 sar	 eax, 4
  005a4	50		 push	 eax
  005a5	8b 0d 00 00 00
	00		 mov	 ecx, DWORD PTR ?briefing_page_takeoff_base_box@@3PAUUI_OBJECT@@A
  005ab	51		 push	 ecx
  005ac	8b 15 00 00 00
	00		 mov	 edx, DWORD PTR ?briefing_page_takeoff_base_box@@3PAUUI_OBJECT@@A
  005b2	8b 02		 mov	 eax, DWORD PTR [edx]
  005b4	8b 0c 85 00 00
	00 00		 mov	 ecx, DWORD PTR ?fn_set_ui_object_item_number@@3PAP6GXPAUUI_OBJECT@@H@ZA[eax*4]
  005bb	ff d1		 call	 ecx

; 247  : 	}
; 248  : 	else

  005bd	eb 35		 jmp	 SHORT $LN21@show_brief
$LN20@show_brief:

; 249  : 	{
; 250  : 		set_ui_object_text (briefing_page_takeoff_base_box, "");

  005bf	68 00 00 00 00	 push	 OFFSET ??_C@_00CNPNBAHC@@
  005c4	a1 00 00 00 00	 mov	 eax, DWORD PTR ?briefing_page_takeoff_base_box@@3PAUUI_OBJECT@@A
  005c9	50		 push	 eax
  005ca	8b 0d 00 00 00
	00		 mov	 ecx, DWORD PTR ?briefing_page_takeoff_base_box@@3PAUUI_OBJECT@@A
  005d0	8b 11		 mov	 edx, DWORD PTR [ecx]
  005d2	8b 04 95 00 00
	00 00		 mov	 eax, DWORD PTR ?fn_set_ui_object_text@@3PAP6GXPAUUI_OBJECT@@PBD@ZA[edx*4]
  005d9	ff d0		 call	 eax

; 251  : 
; 252  : 		set_ui_object_item_number (briefing_page_takeoff_base_box, ENTITY_INDEX_DONT_CARE);

  005db	6a ff		 push	 -1
  005dd	a1 00 00 00 00	 mov	 eax, DWORD PTR ?briefing_page_takeoff_base_box@@3PAUUI_OBJECT@@A
  005e2	50		 push	 eax
  005e3	8b 0d 00 00 00
	00		 mov	 ecx, DWORD PTR ?briefing_page_takeoff_base_box@@3PAUUI_OBJECT@@A
  005e9	8b 11		 mov	 edx, DWORD PTR [ecx]
  005eb	8b 04 95 00 00
	00 00		 mov	 eax, DWORD PTR ?fn_set_ui_object_item_number@@3PAP6GXPAUUI_OBJECT@@H@ZA[edx*4]
  005f2	ff d0		 call	 eax
$LN21@show_brief:

; 253  : 	}
; 254  : 
; 255  : 	//
; 256  : 	// LANDING BASE 
; 257  : 	//
; 258  : 
; 259  : 	base = (entity *) get_local_entity_ptr_value (mission, PTR_TYPE_RETURN_KEYSITE);

  005f4	83 7d 08 00	 cmp	 DWORD PTR _mission$[ebp], 0
  005f8	74 0d		 je	 SHORT $LN66@show_brief
  005fa	8b 45 08	 mov	 eax, DWORD PTR _mission$[ebp]
  005fd	8b 08		 mov	 ecx, DWORD PTR [eax]
  005ff	89 8d 64 ff ff
	ff		 mov	 DWORD PTR tv328[ebp], ecx
  00605	eb 27		 jmp	 SHORT $LN67@show_brief
$LN66@show_brief:
  00607	8b 15 00 00 00
	00		 mov	 edx, DWORD PTR ?__LINE__Var@?0??show_briefing_page@@YGXPAUENTITY@@H@Z@4JA
  0060d	81 c2 85 00 00
	00		 add	 edx, 133		; 00000085H
  00613	52		 push	 edx
  00614	68 00 00 00 00	 push	 OFFSET ??_C@_0EP@NKGPCHE@c?3?2users?2nhv90?2projects?2eech?2ap@
  00619	a1 00 00 00 00	 mov	 eax, DWORD PTR ?null_entity_pointer_message@@3PBDB ; null_entity_pointer_message
  0061e	50		 push	 eax
  0061f	e8 00 00 00 00	 call	 ?process_assert@@YGXPBD0H@Z ; process_assert
  00624	c7 85 64 ff ff
	ff 00 00 00 00	 mov	 DWORD PTR tv328[ebp], 0
$LN67@show_brief:
  0062e	b9 01 00 00 00	 mov	 ecx, 1
  00633	85 c9		 test	 ecx, ecx
  00635	74 0c		 je	 SHORT $LN68@show_brief
  00637	c7 85 60 ff ff
	ff 08 00 00 00	 mov	 DWORD PTR tv336[ebp], 8
  00641	eb 27		 jmp	 SHORT $LN69@show_brief
$LN68@show_brief:
  00643	8b 15 00 00 00
	00		 mov	 edx, DWORD PTR ?__LINE__Var@?0??show_briefing_page@@YGXPAUENTITY@@H@Z@4JA
  00649	81 c2 85 00 00
	00		 add	 edx, 133		; 00000085H
  0064f	52		 push	 edx
  00650	68 00 00 00 00	 push	 OFFSET ??_C@_0EP@NKGPCHE@c?3?2users?2nhv90?2projects?2eech?2ap@
  00655	a1 00 00 00 00	 mov	 eax, DWORD PTR ?overload_invalid_ptr_type_message@@3PBDB ; overload_invalid_ptr_type_message
  0065a	50		 push	 eax
  0065b	e8 00 00 00 00	 call	 ?process_assert@@YGXPBD0H@Z ; process_assert
  00660	c7 85 60 ff ff
	ff 00 00 00 00	 mov	 DWORD PTR tv336[ebp], 0
$LN69@show_brief:
  0066a	6a 08		 push	 8
  0066c	8b 4d 08	 mov	 ecx, DWORD PTR _mission$[ebp]
  0066f	51		 push	 ecx
  00670	6b 95 64 ff ff
	ff 50		 imul	 edx, DWORD PTR tv328[ebp], 80
  00677	8b 85 60 ff ff
	ff		 mov	 eax, DWORD PTR tv336[ebp]
  0067d	8b 8c 82 00 00
	00 00		 mov	 ecx, DWORD PTR ?fn_get_local_entity_ptr_value@@3PAY0BE@P6GPAXPAUENTITY@@W4PTR_TYPES@@@ZA[edx+eax*4]
  00684	ff d1		 call	 ecx
  00686	89 45 fc	 mov	 DWORD PTR _base$[ebp], eax

; 260  : 
; 261  : 	if ((base) && (get_local_entity_type (base) == ENTITY_TYPE_KEYSITE))

  00689	83 7d fc 00	 cmp	 DWORD PTR _base$[ebp], 0
  0068d	0f 84 11 01 00
	00		 je	 $LN22@show_brief
  00693	83 7d fc 00	 cmp	 DWORD PTR _base$[ebp], 0
  00697	74 0d		 je	 SHORT $LN70@show_brief
  00699	8b 45 fc	 mov	 eax, DWORD PTR _base$[ebp]
  0069c	8b 08		 mov	 ecx, DWORD PTR [eax]
  0069e	89 8d 64 ff ff
	ff		 mov	 DWORD PTR tv348[ebp], ecx
  006a4	eb 20		 jmp	 SHORT $LN71@show_brief
$LN70@show_brief:
  006a6	68 05 01 00 00	 push	 261			; 00000105H
  006ab	68 00 00 00 00	 push	 OFFSET ??_C@_0EP@NKGPCHE@c?3?2users?2nhv90?2projects?2eech?2ap@
  006b0	8b 15 00 00 00
	00		 mov	 edx, DWORD PTR ?null_entity_pointer_message@@3PBDB ; null_entity_pointer_message
  006b6	52		 push	 edx
  006b7	e8 00 00 00 00	 call	 ?process_assert@@YGXPBD0H@Z ; process_assert
  006bc	c7 85 64 ff ff
	ff 00 00 00 00	 mov	 DWORD PTR tv348[ebp], 0
$LN71@show_brief:
  006c6	83 bd 64 ff ff
	ff 0f		 cmp	 DWORD PTR tv348[ebp], 15 ; 0000000fH
  006cd	0f 85 d1 00 00
	00		 jne	 $LN22@show_brief

; 262  : 	{
; 263  : 		set_ui_object_text (briefing_page_landing_base_box, get_local_entity_string (base, STRING_TYPE_KEYSITE_NAME));

  006d3	83 7d fc 00	 cmp	 DWORD PTR _base$[ebp], 0
  006d7	74 0d		 je	 SHORT $LN72@show_brief
  006d9	8b 45 fc	 mov	 eax, DWORD PTR _base$[ebp]
  006dc	8b 08		 mov	 ecx, DWORD PTR [eax]
  006de	89 8d 64 ff ff
	ff		 mov	 DWORD PTR tv391[ebp], ecx
  006e4	eb 27		 jmp	 SHORT $LN73@show_brief
$LN72@show_brief:
  006e6	8b 15 00 00 00
	00		 mov	 edx, DWORD PTR ?__LINE__Var@?0??show_briefing_page@@YGXPAUENTITY@@H@Z@4JA
  006ec	81 c2 89 00 00
	00		 add	 edx, 137		; 00000089H
  006f2	52		 push	 edx
  006f3	68 00 00 00 00	 push	 OFFSET ??_C@_0EP@NKGPCHE@c?3?2users?2nhv90?2projects?2eech?2ap@
  006f8	a1 00 00 00 00	 mov	 eax, DWORD PTR ?null_entity_pointer_message@@3PBDB ; null_entity_pointer_message
  006fd	50		 push	 eax
  006fe	e8 00 00 00 00	 call	 ?process_assert@@YGXPBD0H@Z ; process_assert
  00703	c7 85 64 ff ff
	ff 00 00 00 00	 mov	 DWORD PTR tv391[ebp], 0
$LN73@show_brief:
  0070d	b9 01 00 00 00	 mov	 ecx, 1
  00712	85 c9		 test	 ecx, ecx
  00714	74 0c		 je	 SHORT $LN74@show_brief
  00716	c7 85 60 ff ff
	ff 07 00 00 00	 mov	 DWORD PTR tv399[ebp], 7
  00720	eb 27		 jmp	 SHORT $LN75@show_brief
$LN74@show_brief:
  00722	8b 15 00 00 00
	00		 mov	 edx, DWORD PTR ?__LINE__Var@?0??show_briefing_page@@YGXPAUENTITY@@H@Z@4JA
  00728	81 c2 89 00 00
	00		 add	 edx, 137		; 00000089H
  0072e	52		 push	 edx
  0072f	68 00 00 00 00	 push	 OFFSET ??_C@_0EP@NKGPCHE@c?3?2users?2nhv90?2projects?2eech?2ap@
  00734	a1 00 00 00 00	 mov	 eax, DWORD PTR ?overload_invalid_string_type_message@@3PBDB ; overload_invalid_string_type_message
  00739	50		 push	 eax
  0073a	e8 00 00 00 00	 call	 ?process_assert@@YGXPBD0H@Z ; process_assert
  0073f	c7 85 60 ff ff
	ff 00 00 00 00	 mov	 DWORD PTR tv399[ebp], 0
$LN75@show_brief:
  00749	6a 07		 push	 7
  0074b	8b 4d fc	 mov	 ecx, DWORD PTR _base$[ebp]
  0074e	51		 push	 ecx
  0074f	6b 95 64 ff ff
	ff 34		 imul	 edx, DWORD PTR tv391[ebp], 52
  00756	8b 85 60 ff ff
	ff		 mov	 eax, DWORD PTR tv399[ebp]
  0075c	8b 8c 82 00 00
	00 00		 mov	 ecx, DWORD PTR ?fn_get_local_entity_string@@3PAY0N@P6GPBDPAUENTITY@@W4STRING_TYPES@@@ZA[edx+eax*4]
  00763	ff d1		 call	 ecx
  00765	50		 push	 eax
  00766	8b 15 00 00 00
	00		 mov	 edx, DWORD PTR ?briefing_page_landing_base_box@@3PAUUI_OBJECT@@A
  0076c	52		 push	 edx
  0076d	a1 00 00 00 00	 mov	 eax, DWORD PTR ?briefing_page_landing_base_box@@3PAUUI_OBJECT@@A
  00772	8b 08		 mov	 ecx, DWORD PTR [eax]
  00774	8b 14 8d 00 00
	00 00		 mov	 edx, DWORD PTR ?fn_set_ui_object_text@@3PAP6GXPAUUI_OBJECT@@PBD@ZA[ecx*4]
  0077b	ff d2		 call	 edx

; 264  : 
; 265  : 		set_ui_object_item_number (briefing_page_landing_base_box, get_local_entity_index (base));

  0077d	8b 45 fc	 mov	 eax, DWORD PTR _base$[ebp]
  00780	2b 05 00 00 00
	00		 sub	 eax, DWORD PTR ?entities@@3PAUENTITY@@A ; entities
  00786	c1 f8 04	 sar	 eax, 4
  00789	50		 push	 eax
  0078a	8b 0d 00 00 00
	00		 mov	 ecx, DWORD PTR ?briefing_page_landing_base_box@@3PAUUI_OBJECT@@A
  00790	51		 push	 ecx
  00791	8b 15 00 00 00
	00		 mov	 edx, DWORD PTR ?briefing_page_landing_base_box@@3PAUUI_OBJECT@@A
  00797	8b 02		 mov	 eax, DWORD PTR [edx]
  00799	8b 0c 85 00 00
	00 00		 mov	 ecx, DWORD PTR ?fn_set_ui_object_item_number@@3PAP6GXPAUUI_OBJECT@@H@ZA[eax*4]
  007a0	ff d1		 call	 ecx

; 266  : 	}
; 267  : 	else

  007a2	eb 35		 jmp	 SHORT $LN23@show_brief
$LN22@show_brief:

; 268  : 	{
; 269  : 		set_ui_object_text (briefing_page_landing_base_box, "");

  007a4	68 00 00 00 00	 push	 OFFSET ??_C@_00CNPNBAHC@@
  007a9	a1 00 00 00 00	 mov	 eax, DWORD PTR ?briefing_page_landing_base_box@@3PAUUI_OBJECT@@A
  007ae	50		 push	 eax
  007af	8b 0d 00 00 00
	00		 mov	 ecx, DWORD PTR ?briefing_page_landing_base_box@@3PAUUI_OBJECT@@A
  007b5	8b 11		 mov	 edx, DWORD PTR [ecx]
  007b7	8b 04 95 00 00
	00 00		 mov	 eax, DWORD PTR ?fn_set_ui_object_text@@3PAP6GXPAUUI_OBJECT@@PBD@ZA[edx*4]
  007be	ff d0		 call	 eax

; 270  : 
; 271  : 		set_ui_object_item_number (briefing_page_landing_base_box, ENTITY_INDEX_DONT_CARE);

  007c0	6a ff		 push	 -1
  007c2	a1 00 00 00 00	 mov	 eax, DWORD PTR ?briefing_page_landing_base_box@@3PAUUI_OBJECT@@A
  007c7	50		 push	 eax
  007c8	8b 0d 00 00 00
	00		 mov	 ecx, DWORD PTR ?briefing_page_landing_base_box@@3PAUUI_OBJECT@@A
  007ce	8b 11		 mov	 edx, DWORD PTR [ecx]
  007d0	8b 04 95 00 00
	00 00		 mov	 eax, DWORD PTR ?fn_set_ui_object_item_number@@3PAP6GXPAUUI_OBJECT@@H@ZA[edx*4]
  007d7	ff d0		 call	 eax
$LN23@show_brief:

; 272  : 	}
; 273  : 
; 274  : 	//
; 275  : 	// GROUP DOING MISSION
; 276  : 	//
; 277  : 	
; 278  : 	guide = get_local_entity_first_child (mission, LIST_TYPE_GUIDE);

  007d9	83 7d 08 00	 cmp	 DWORD PTR _mission$[ebp], 0
  007dd	74 0d		 je	 SHORT $LN76@show_brief
  007df	8b 45 08	 mov	 eax, DWORD PTR _mission$[ebp]
  007e2	8b 08		 mov	 ecx, DWORD PTR [eax]
  007e4	89 8d 64 ff ff
	ff		 mov	 DWORD PTR tv430[ebp], ecx
  007ea	eb 27		 jmp	 SHORT $LN77@show_brief
$LN76@show_brief:
  007ec	8b 15 00 00 00
	00		 mov	 edx, DWORD PTR ?__LINE__Var@?0??show_briefing_page@@YGXPAUENTITY@@H@Z@4JA
  007f2	81 c2 98 00 00
	00		 add	 edx, 152		; 00000098H
  007f8	52		 push	 edx
  007f9	68 00 00 00 00	 push	 OFFSET ??_C@_0EP@NKGPCHE@c?3?2users?2nhv90?2projects?2eech?2ap@
  007fe	a1 00 00 00 00	 mov	 eax, DWORD PTR ?null_entity_pointer_message@@3PBDB ; null_entity_pointer_message
  00803	50		 push	 eax
  00804	e8 00 00 00 00	 call	 ?process_assert@@YGXPBD0H@Z ; process_assert
  00809	c7 85 64 ff ff
	ff 00 00 00 00	 mov	 DWORD PTR tv430[ebp], 0
$LN77@show_brief:
  00813	b9 01 00 00 00	 mov	 ecx, 1
  00818	85 c9		 test	 ecx, ecx
  0081a	74 0c		 je	 SHORT $LN78@show_brief
  0081c	c7 85 60 ff ff
	ff 10 00 00 00	 mov	 DWORD PTR tv438[ebp], 16 ; 00000010H
  00826	eb 27		 jmp	 SHORT $LN79@show_brief
$LN78@show_brief:
  00828	8b 15 00 00 00
	00		 mov	 edx, DWORD PTR ?__LINE__Var@?0??show_briefing_page@@YGXPAUENTITY@@H@Z@4JA
  0082e	81 c2 98 00 00
	00		 add	 edx, 152		; 00000098H
  00834	52		 push	 edx
  00835	68 00 00 00 00	 push	 OFFSET ??_C@_0EP@NKGPCHE@c?3?2users?2nhv90?2projects?2eech?2ap@
  0083a	a1 00 00 00 00	 mov	 eax, DWORD PTR ?overload_invalid_list_type_message@@3PBDB ; overload_invalid_list_type_message
  0083f	50		 push	 eax
  00840	e8 00 00 00 00	 call	 ?process_assert@@YGXPBD0H@Z ; process_assert
  00845	c7 85 60 ff ff
	ff 00 00 00 00	 mov	 DWORD PTR tv438[ebp], 0
$LN79@show_brief:
  0084f	6a 10		 push	 16			; 00000010H
  00851	8b 4d 08	 mov	 ecx, DWORD PTR _mission$[ebp]
  00854	51		 push	 ecx
  00855	69 95 64 ff ff
	ff b4 00 00 00	 imul	 edx, DWORD PTR tv430[ebp], 180
  0085f	8b 85 60 ff ff
	ff		 mov	 eax, DWORD PTR tv438[ebp]
  00865	8b 8c 82 00 00
	00 00		 mov	 ecx, DWORD PTR ?fn_get_local_entity_first_child@@3PAY0CN@P6GPAUENTITY@@PAU1@W4LIST_TYPES@@@ZA[edx+eax*4]
  0086c	ff d1		 call	 ecx
  0086e	89 45 f4	 mov	 DWORD PTR _guide$[ebp], eax

; 279  : 
; 280  : 	if (guide)

  00871	83 7d f4 00	 cmp	 DWORD PTR _guide$[ebp], 0
  00875	0f 84 2a 03 00
	00		 je	 $LN24@show_brief

; 281  : 	{
; 282  : 		group = get_local_entity_parent (guide, LIST_TYPE_GUIDE_STACK);

  0087b	83 7d f4 00	 cmp	 DWORD PTR _guide$[ebp], 0
  0087f	74 0d		 je	 SHORT $LN80@show_brief
  00881	8b 45 f4	 mov	 eax, DWORD PTR _guide$[ebp]
  00884	8b 08		 mov	 ecx, DWORD PTR [eax]
  00886	89 8d 64 ff ff
	ff		 mov	 DWORD PTR tv451[ebp], ecx
  0088c	eb 27		 jmp	 SHORT $LN81@show_brief
$LN80@show_brief:
  0088e	8b 15 00 00 00
	00		 mov	 edx, DWORD PTR ?__LINE__Var@?0??show_briefing_page@@YGXPAUENTITY@@H@Z@4JA
  00894	81 c2 9c 00 00
	00		 add	 edx, 156		; 0000009cH
  0089a	52		 push	 edx
  0089b	68 00 00 00 00	 push	 OFFSET ??_C@_0EP@NKGPCHE@c?3?2users?2nhv90?2projects?2eech?2ap@
  008a0	a1 00 00 00 00	 mov	 eax, DWORD PTR ?null_entity_pointer_message@@3PBDB ; null_entity_pointer_message
  008a5	50		 push	 eax
  008a6	e8 00 00 00 00	 call	 ?process_assert@@YGXPBD0H@Z ; process_assert
  008ab	c7 85 64 ff ff
	ff 00 00 00 00	 mov	 DWORD PTR tv451[ebp], 0
$LN81@show_brief:
  008b5	b9 01 00 00 00	 mov	 ecx, 1
  008ba	85 c9		 test	 ecx, ecx
  008bc	74 0c		 je	 SHORT $LN82@show_brief
  008be	c7 85 60 ff ff
	ff 11 00 00 00	 mov	 DWORD PTR tv459[ebp], 17 ; 00000011H
  008c8	eb 27		 jmp	 SHORT $LN83@show_brief
$LN82@show_brief:
  008ca	8b 15 00 00 00
	00		 mov	 edx, DWORD PTR ?__LINE__Var@?0??show_briefing_page@@YGXPAUENTITY@@H@Z@4JA
  008d0	81 c2 9c 00 00
	00		 add	 edx, 156		; 0000009cH
  008d6	52		 push	 edx
  008d7	68 00 00 00 00	 push	 OFFSET ??_C@_0EP@NKGPCHE@c?3?2users?2nhv90?2projects?2eech?2ap@
  008dc	a1 00 00 00 00	 mov	 eax, DWORD PTR ?overload_invalid_list_type_message@@3PBDB ; overload_invalid_list_type_message
  008e1	50		 push	 eax
  008e2	e8 00 00 00 00	 call	 ?process_assert@@YGXPBD0H@Z ; process_assert
  008e7	c7 85 60 ff ff
	ff 00 00 00 00	 mov	 DWORD PTR tv459[ebp], 0
$LN83@show_brief:
  008f1	6a 11		 push	 17			; 00000011H
  008f3	8b 4d f4	 mov	 ecx, DWORD PTR _guide$[ebp]
  008f6	51		 push	 ecx
  008f7	69 95 64 ff ff
	ff b4 00 00 00	 imul	 edx, DWORD PTR tv451[ebp], 180
  00901	8b 85 60 ff ff
	ff		 mov	 eax, DWORD PTR tv459[ebp]
  00907	8b 8c 82 00 00
	00 00		 mov	 ecx, DWORD PTR ?fn_get_local_entity_parent@@3PAY0CN@P6GPAUENTITY@@PAU1@W4LIST_TYPES@@@ZA[edx+eax*4]
  0090e	ff d1		 call	 ecx
  00910	89 45 ec	 mov	 DWORD PTR _group$[ebp], eax

; 283  : 
; 284  : 		ASSERT (group);

  00913	83 7d ec 00	 cmp	 DWORD PTR _group$[ebp], 0
  00917	75 1a		 jne	 SHORT $LN26@show_brief
  00919	a1 00 00 00 00	 mov	 eax, DWORD PTR ?__LINE__Var@?0??show_briefing_page@@YGXPAUENTITY@@H@Z@4JA
  0091e	05 9e 00 00 00	 add	 eax, 158		; 0000009eH
  00923	50		 push	 eax
  00924	68 00 00 00 00	 push	 OFFSET ??_C@_0EP@NKGPCHE@c?3?2users?2nhv90?2projects?2eech?2ap@
  00929	68 00 00 00 00	 push	 OFFSET ??_C@_05MGJOOGAJ@group@
  0092e	e8 00 00 00 00	 call	 ?process_assert@@YGXPBD0H@Z ; process_assert
$LN26@show_brief:

; 285  : 		
; 286  : 		ASSERT (get_local_entity_type (group) == ENTITY_TYPE_GROUP);

  00933	83 7d ec 00	 cmp	 DWORD PTR _group$[ebp], 0
  00937	74 0d		 je	 SHORT $LN84@show_brief
  00939	8b 45 ec	 mov	 eax, DWORD PTR _group$[ebp]
  0093c	8b 08		 mov	 ecx, DWORD PTR [eax]
  0093e	89 8d 64 ff ff
	ff		 mov	 DWORD PTR tv476[ebp], ecx
  00944	eb 27		 jmp	 SHORT $LN85@show_brief
$LN84@show_brief:
  00946	8b 15 00 00 00
	00		 mov	 edx, DWORD PTR ?__LINE__Var@?0??show_briefing_page@@YGXPAUENTITY@@H@Z@4JA
  0094c	81 c2 a0 00 00
	00		 add	 edx, 160		; 000000a0H
  00952	52		 push	 edx
  00953	68 00 00 00 00	 push	 OFFSET ??_C@_0EP@NKGPCHE@c?3?2users?2nhv90?2projects?2eech?2ap@
  00958	a1 00 00 00 00	 mov	 eax, DWORD PTR ?null_entity_pointer_message@@3PBDB ; null_entity_pointer_message
  0095d	50		 push	 eax
  0095e	e8 00 00 00 00	 call	 ?process_assert@@YGXPBD0H@Z ; process_assert
  00963	c7 85 64 ff ff
	ff 00 00 00 00	 mov	 DWORD PTR tv476[ebp], 0
$LN85@show_brief:
  0096d	83 bd 64 ff ff
	ff 0c		 cmp	 DWORD PTR tv476[ebp], 12 ; 0000000cH
  00974	74 1a		 je	 SHORT $LN27@show_brief
  00976	a1 00 00 00 00	 mov	 eax, DWORD PTR ?__LINE__Var@?0??show_briefing_page@@YGXPAUENTITY@@H@Z@4JA
  0097b	05 a0 00 00 00	 add	 eax, 160		; 000000a0H
  00980	50		 push	 eax
  00981	68 00 00 00 00	 push	 OFFSET ??_C@_0EP@NKGPCHE@c?3?2users?2nhv90?2projects?2eech?2ap@
  00986	68 00 00 00 00	 push	 OFFSET ??_C@_0DD@GDEINBAL@get_local_entity_type?5?$CIgroup?$CJ?5?$DN@
  0098b	e8 00 00 00 00	 call	 ?process_assert@@YGXPBD0H@Z ; process_assert
$LN27@show_brief:

; 287  : 		
; 288  : 		if (get_local_entity_int_value (group, INT_TYPE_AIRCRAFT_GROUP))

  00990	83 7d ec 00	 cmp	 DWORD PTR _group$[ebp], 0
  00994	74 0d		 je	 SHORT $LN86@show_brief
  00996	8b 45 ec	 mov	 eax, DWORD PTR _group$[ebp]
  00999	8b 08		 mov	 ecx, DWORD PTR [eax]
  0099b	89 8d 64 ff ff
	ff		 mov	 DWORD PTR tv487[ebp], ecx
  009a1	eb 20		 jmp	 SHORT $LN87@show_brief
$LN86@show_brief:
  009a3	68 20 01 00 00	 push	 288			; 00000120H
  009a8	68 00 00 00 00	 push	 OFFSET ??_C@_0EP@NKGPCHE@c?3?2users?2nhv90?2projects?2eech?2ap@
  009ad	8b 15 00 00 00
	00		 mov	 edx, DWORD PTR ?null_entity_pointer_message@@3PBDB ; null_entity_pointer_message
  009b3	52		 push	 edx
  009b4	e8 00 00 00 00	 call	 ?process_assert@@YGXPBD0H@Z ; process_assert
  009b9	c7 85 64 ff ff
	ff 00 00 00 00	 mov	 DWORD PTR tv487[ebp], 0
$LN87@show_brief:
  009c3	b8 01 00 00 00	 mov	 eax, 1
  009c8	85 c0		 test	 eax, eax
  009ca	74 0c		 je	 SHORT $LN88@show_brief
  009cc	c7 85 60 ff ff
	ff 05 00 00 00	 mov	 DWORD PTR tv494[ebp], 5
  009d6	eb 20		 jmp	 SHORT $LN89@show_brief
$LN88@show_brief:
  009d8	68 20 01 00 00	 push	 288			; 00000120H
  009dd	68 00 00 00 00	 push	 OFFSET ??_C@_0EP@NKGPCHE@c?3?2users?2nhv90?2projects?2eech?2ap@
  009e2	8b 0d 00 00 00
	00		 mov	 ecx, DWORD PTR ?overload_invalid_int_type_message@@3PBDB ; overload_invalid_int_type_message
  009e8	51		 push	 ecx
  009e9	e8 00 00 00 00	 call	 ?process_assert@@YGXPBD0H@Z ; process_assert
  009ee	c7 85 60 ff ff
	ff 00 00 00 00	 mov	 DWORD PTR tv494[ebp], 0
$LN89@show_brief:
  009f8	6a 05		 push	 5
  009fa	8b 55 ec	 mov	 edx, DWORD PTR _group$[ebp]
  009fd	52		 push	 edx
  009fe	69 85 64 ff ff
	ff 5c 04 00 00	 imul	 eax, DWORD PTR tv487[ebp], 1116
  00a08	8b 8d 60 ff ff
	ff		 mov	 ecx, DWORD PTR tv494[ebp]
  00a0e	8b 94 88 00 00
	00 00		 mov	 edx, DWORD PTR ?fn_get_local_entity_int_value@@3PAY0BBH@P6GHPAUENTITY@@W4INT_TYPES@@@ZA[eax+ecx*4]
  00a15	ff d2		 call	 edx
  00a17	85 c0		 test	 eax, eax
  00a19	0f 84 af 00 00
	00		 je	 $LN28@show_brief

; 289  : 		{
; 290  : 			set_ui_object_text (briefing_page_group_box, get_local_entity_string (group, STRING_TYPE_DIVISION_NAME));

  00a1f	83 7d ec 00	 cmp	 DWORD PTR _group$[ebp], 0
  00a23	74 0d		 je	 SHORT $LN90@show_brief
  00a25	8b 45 ec	 mov	 eax, DWORD PTR _group$[ebp]
  00a28	8b 08		 mov	 ecx, DWORD PTR [eax]
  00a2a	89 8d 64 ff ff
	ff		 mov	 DWORD PTR tv510[ebp], ecx
  00a30	eb 27		 jmp	 SHORT $LN91@show_brief
$LN90@show_brief:
  00a32	8b 15 00 00 00
	00		 mov	 edx, DWORD PTR ?__LINE__Var@?0??show_briefing_page@@YGXPAUENTITY@@H@Z@4JA
  00a38	81 c2 a4 00 00
	00		 add	 edx, 164		; 000000a4H
  00a3e	52		 push	 edx
  00a3f	68 00 00 00 00	 push	 OFFSET ??_C@_0EP@NKGPCHE@c?3?2users?2nhv90?2projects?2eech?2ap@
  00a44	a1 00 00 00 00	 mov	 eax, DWORD PTR ?null_entity_pointer_message@@3PBDB ; null_entity_pointer_message
  00a49	50		 push	 eax
  00a4a	e8 00 00 00 00	 call	 ?process_assert@@YGXPBD0H@Z ; process_assert
  00a4f	c7 85 64 ff ff
	ff 00 00 00 00	 mov	 DWORD PTR tv510[ebp], 0
$LN91@show_brief:
  00a59	b9 01 00 00 00	 mov	 ecx, 1
  00a5e	85 c9		 test	 ecx, ecx
  00a60	74 0c		 je	 SHORT $LN92@show_brief
  00a62	c7 85 60 ff ff
	ff 00 00 00 00	 mov	 DWORD PTR tv518[ebp], 0
  00a6c	eb 27		 jmp	 SHORT $LN93@show_brief
$LN92@show_brief:
  00a6e	8b 15 00 00 00
	00		 mov	 edx, DWORD PTR ?__LINE__Var@?0??show_briefing_page@@YGXPAUENTITY@@H@Z@4JA
  00a74	81 c2 a4 00 00
	00		 add	 edx, 164		; 000000a4H
  00a7a	52		 push	 edx
  00a7b	68 00 00 00 00	 push	 OFFSET ??_C@_0EP@NKGPCHE@c?3?2users?2nhv90?2projects?2eech?2ap@
  00a80	a1 00 00 00 00	 mov	 eax, DWORD PTR ?overload_invalid_string_type_message@@3PBDB ; overload_invalid_string_type_message
  00a85	50		 push	 eax
  00a86	e8 00 00 00 00	 call	 ?process_assert@@YGXPBD0H@Z ; process_assert
  00a8b	c7 85 60 ff ff
	ff 00 00 00 00	 mov	 DWORD PTR tv518[ebp], 0
$LN93@show_brief:
  00a95	6a 00		 push	 0
  00a97	8b 4d ec	 mov	 ecx, DWORD PTR _group$[ebp]
  00a9a	51		 push	 ecx
  00a9b	6b 95 64 ff ff
	ff 34		 imul	 edx, DWORD PTR tv510[ebp], 52
  00aa2	8b 85 60 ff ff
	ff		 mov	 eax, DWORD PTR tv518[ebp]
  00aa8	8b 8c 82 00 00
	00 00		 mov	 ecx, DWORD PTR ?fn_get_local_entity_string@@3PAY0N@P6GPBDPAUENTITY@@W4STRING_TYPES@@@ZA[edx+eax*4]
  00aaf	ff d1		 call	 ecx
  00ab1	50		 push	 eax
  00ab2	8b 15 00 00 00
	00		 mov	 edx, DWORD PTR ?briefing_page_group_box@@3PAUUI_OBJECT@@A
  00ab8	52		 push	 edx
  00ab9	a1 00 00 00 00	 mov	 eax, DWORD PTR ?briefing_page_group_box@@3PAUUI_OBJECT@@A
  00abe	8b 08		 mov	 ecx, DWORD PTR [eax]
  00ac0	8b 14 8d 00 00
	00 00		 mov	 edx, DWORD PTR ?fn_set_ui_object_text@@3PAP6GXPAUUI_OBJECT@@PBD@ZA[ecx*4]
  00ac7	ff d2		 call	 edx

; 291  : 		}
; 292  : 		else

  00ac9	e9 b0 00 00 00	 jmp	 $LN29@show_brief
$LN28@show_brief:

; 293  : 		{
; 294  : 			set_ui_object_text (briefing_page_group_box, get_trans (get_local_entity_string (group, STRING_TYPE_FULL_NAME)));

  00ace	83 7d ec 00	 cmp	 DWORD PTR _group$[ebp], 0
  00ad2	74 0d		 je	 SHORT $LN94@show_brief
  00ad4	8b 45 ec	 mov	 eax, DWORD PTR _group$[ebp]
  00ad7	8b 08		 mov	 ecx, DWORD PTR [eax]
  00ad9	89 8d 64 ff ff
	ff		 mov	 DWORD PTR tv536[ebp], ecx
  00adf	eb 27		 jmp	 SHORT $LN95@show_brief
$LN94@show_brief:
  00ae1	8b 15 00 00 00
	00		 mov	 edx, DWORD PTR ?__LINE__Var@?0??show_briefing_page@@YGXPAUENTITY@@H@Z@4JA
  00ae7	81 c2 a8 00 00
	00		 add	 edx, 168		; 000000a8H
  00aed	52		 push	 edx
  00aee	68 00 00 00 00	 push	 OFFSET ??_C@_0EP@NKGPCHE@c?3?2users?2nhv90?2projects?2eech?2ap@
  00af3	a1 00 00 00 00	 mov	 eax, DWORD PTR ?null_entity_pointer_message@@3PBDB ; null_entity_pointer_message
  00af8	50		 push	 eax
  00af9	e8 00 00 00 00	 call	 ?process_assert@@YGXPBD0H@Z ; process_assert
  00afe	c7 85 64 ff ff
	ff 00 00 00 00	 mov	 DWORD PTR tv536[ebp], 0
$LN95@show_brief:
  00b08	b9 01 00 00 00	 mov	 ecx, 1
  00b0d	85 c9		 test	 ecx, ecx
  00b0f	74 0c		 je	 SHORT $LN96@show_brief
  00b11	c7 85 60 ff ff
	ff 03 00 00 00	 mov	 DWORD PTR tv544[ebp], 3
  00b1b	eb 27		 jmp	 SHORT $LN97@show_brief
$LN96@show_brief:
  00b1d	8b 15 00 00 00
	00		 mov	 edx, DWORD PTR ?__LINE__Var@?0??show_briefing_page@@YGXPAUENTITY@@H@Z@4JA
  00b23	81 c2 a8 00 00
	00		 add	 edx, 168		; 000000a8H
  00b29	52		 push	 edx
  00b2a	68 00 00 00 00	 push	 OFFSET ??_C@_0EP@NKGPCHE@c?3?2users?2nhv90?2projects?2eech?2ap@
  00b2f	a1 00 00 00 00	 mov	 eax, DWORD PTR ?overload_invalid_string_type_message@@3PBDB ; overload_invalid_string_type_message
  00b34	50		 push	 eax
  00b35	e8 00 00 00 00	 call	 ?process_assert@@YGXPBD0H@Z ; process_assert
  00b3a	c7 85 60 ff ff
	ff 00 00 00 00	 mov	 DWORD PTR tv544[ebp], 0
$LN97@show_brief:
  00b44	6a 03		 push	 3
  00b46	8b 4d ec	 mov	 ecx, DWORD PTR _group$[ebp]
  00b49	51		 push	 ecx
  00b4a	6b 95 64 ff ff
	ff 34		 imul	 edx, DWORD PTR tv536[ebp], 52
  00b51	8b 85 60 ff ff
	ff		 mov	 eax, DWORD PTR tv544[ebp]
  00b57	8b 8c 82 00 00
	00 00		 mov	 ecx, DWORD PTR ?fn_get_local_entity_string@@3PAY0N@P6GPBDPAUENTITY@@W4STRING_TYPES@@@ZA[edx+eax*4]
  00b5e	ff d1		 call	 ecx
  00b60	50		 push	 eax
  00b61	e8 00 00 00 00	 call	 ?get_trans@@YGPBDPBD@Z	; get_trans
  00b66	50		 push	 eax
  00b67	8b 15 00 00 00
	00		 mov	 edx, DWORD PTR ?briefing_page_group_box@@3PAUUI_OBJECT@@A
  00b6d	52		 push	 edx
  00b6e	a1 00 00 00 00	 mov	 eax, DWORD PTR ?briefing_page_group_box@@3PAUUI_OBJECT@@A
  00b73	8b 08		 mov	 ecx, DWORD PTR [eax]
  00b75	8b 14 8d 00 00
	00 00		 mov	 edx, DWORD PTR ?fn_set_ui_object_text@@3PAP6GXPAUUI_OBJECT@@PBD@ZA[ecx*4]
  00b7c	ff d2		 call	 edx
$LN29@show_brief:

; 295  : 		}
; 296  : 
; 297  : 		set_ui_object_item_number (briefing_page_group_box, get_local_entity_index (group));

  00b7e	8b 45 ec	 mov	 eax, DWORD PTR _group$[ebp]
  00b81	2b 05 00 00 00
	00		 sub	 eax, DWORD PTR ?entities@@3PAUENTITY@@A ; entities
  00b87	c1 f8 04	 sar	 eax, 4
  00b8a	50		 push	 eax
  00b8b	8b 0d 00 00 00
	00		 mov	 ecx, DWORD PTR ?briefing_page_group_box@@3PAUUI_OBJECT@@A
  00b91	51		 push	 ecx
  00b92	8b 15 00 00 00
	00		 mov	 edx, DWORD PTR ?briefing_page_group_box@@3PAUUI_OBJECT@@A
  00b98	8b 02		 mov	 eax, DWORD PTR [edx]
  00b9a	8b 0c 85 00 00
	00 00		 mov	 ecx, DWORD PTR ?fn_set_ui_object_item_number@@3PAP6GXPAUUI_OBJECT@@H@ZA[eax*4]
  00ba1	ff d1		 call	 ecx

; 298  : 	}
; 299  : 	else

  00ba3	eb 35		 jmp	 SHORT $LN25@show_brief
$LN24@show_brief:

; 300  : 	{
; 301  : 		set_ui_object_text (briefing_page_group_box, "");

  00ba5	68 00 00 00 00	 push	 OFFSET ??_C@_00CNPNBAHC@@
  00baa	a1 00 00 00 00	 mov	 eax, DWORD PTR ?briefing_page_group_box@@3PAUUI_OBJECT@@A
  00baf	50		 push	 eax
  00bb0	8b 0d 00 00 00
	00		 mov	 ecx, DWORD PTR ?briefing_page_group_box@@3PAUUI_OBJECT@@A
  00bb6	8b 11		 mov	 edx, DWORD PTR [ecx]
  00bb8	8b 04 95 00 00
	00 00		 mov	 eax, DWORD PTR ?fn_set_ui_object_text@@3PAP6GXPAUUI_OBJECT@@PBD@ZA[edx*4]
  00bbf	ff d0		 call	 eax

; 302  : 
; 303  : 		set_ui_object_item_number (briefing_page_group_box, ENTITY_INDEX_DONT_CARE);

  00bc1	6a ff		 push	 -1
  00bc3	a1 00 00 00 00	 mov	 eax, DWORD PTR ?briefing_page_group_box@@3PAUUI_OBJECT@@A
  00bc8	50		 push	 eax
  00bc9	8b 0d 00 00 00
	00		 mov	 ecx, DWORD PTR ?briefing_page_group_box@@3PAUUI_OBJECT@@A
  00bcf	8b 11		 mov	 edx, DWORD PTR [ecx]
  00bd1	8b 04 95 00 00
	00 00		 mov	 eax, DWORD PTR ?fn_set_ui_object_item_number@@3PAP6GXPAUUI_OBJECT@@H@ZA[edx*4]
  00bd8	ff d0		 call	 eax
$LN25@show_brief:

; 304  : 	}
; 305  : 
; 306  : 	//
; 307  : 	// MISSION OBJECTIVE
; 308  : 	//
; 309  : 
; 310  : 	if (mission != previous)

  00bda	8b 45 08	 mov	 eax, DWORD PTR _mission$[ebp]
  00bdd	3b 45 f8	 cmp	 eax, DWORD PTR _previous$[ebp]
  00be0	0f 84 a4 02 00
	00		 je	 $LN32@show_brief

; 311  : 	{	
; 312  : 		objective_name = get_task_objective_string (mission);

  00be6	8b 45 08	 mov	 eax, DWORD PTR _mission$[ebp]
  00be9	50		 push	 eax
  00bea	e8 00 00 00 00	 call	 ?get_task_objective_string@@YGPBDPAUENTITY@@@Z ; get_task_objective_string
  00bef	a3 00 00 00 00	 mov	 DWORD PTR ?objective_name@?1??show_briefing_page@@YGXPAUENTITY@@H@Z@4PBDB, eax

; 313  : 
; 314  : 		if (objective_name)

  00bf4	83 3d 00 00 00
	00 00		 cmp	 DWORD PTR ?objective_name@?1??show_briefing_page@@YGXPAUENTITY@@H@Z@4PBDB, 0
  00bfb	0f 84 54 02 00
	00		 je	 $LN31@show_brief

; 315  : 		{
; 316  : 			objective = get_local_entity_parent (mission, LIST_TYPE_TASK_DEPENDENT);

  00c01	83 7d 08 00	 cmp	 DWORD PTR _mission$[ebp], 0
  00c05	74 0d		 je	 SHORT $LN98@show_brief
  00c07	8b 45 08	 mov	 eax, DWORD PTR _mission$[ebp]
  00c0a	8b 08		 mov	 ecx, DWORD PTR [eax]
  00c0c	89 8d 64 ff ff
	ff		 mov	 DWORD PTR tv580[ebp], ecx
  00c12	eb 27		 jmp	 SHORT $LN99@show_brief
$LN98@show_brief:
  00c14	8b 15 00 00 00
	00		 mov	 edx, DWORD PTR ?__LINE__Var@?0??show_briefing_page@@YGXPAUENTITY@@H@Z@4JA
  00c1a	81 c2 be 00 00
	00		 add	 edx, 190		; 000000beH
  00c20	52		 push	 edx
  00c21	68 00 00 00 00	 push	 OFFSET ??_C@_0EP@NKGPCHE@c?3?2users?2nhv90?2projects?2eech?2ap@
  00c26	a1 00 00 00 00	 mov	 eax, DWORD PTR ?null_entity_pointer_message@@3PBDB ; null_entity_pointer_message
  00c2b	50		 push	 eax
  00c2c	e8 00 00 00 00	 call	 ?process_assert@@YGXPBD0H@Z ; process_assert
  00c31	c7 85 64 ff ff
	ff 00 00 00 00	 mov	 DWORD PTR tv580[ebp], 0
$LN99@show_brief:
  00c3b	b9 01 00 00 00	 mov	 ecx, 1
  00c40	85 c9		 test	 ecx, ecx
  00c42	74 0c		 je	 SHORT $LN100@show_brief
  00c44	c7 85 60 ff ff
	ff 27 00 00 00	 mov	 DWORD PTR tv588[ebp], 39 ; 00000027H
  00c4e	eb 27		 jmp	 SHORT $LN101@show_brief
$LN100@show_brief:
  00c50	8b 15 00 00 00
	00		 mov	 edx, DWORD PTR ?__LINE__Var@?0??show_briefing_page@@YGXPAUENTITY@@H@Z@4JA
  00c56	81 c2 be 00 00
	00		 add	 edx, 190		; 000000beH
  00c5c	52		 push	 edx
  00c5d	68 00 00 00 00	 push	 OFFSET ??_C@_0EP@NKGPCHE@c?3?2users?2nhv90?2projects?2eech?2ap@
  00c62	a1 00 00 00 00	 mov	 eax, DWORD PTR ?overload_invalid_list_type_message@@3PBDB ; overload_invalid_list_type_message
  00c67	50		 push	 eax
  00c68	e8 00 00 00 00	 call	 ?process_assert@@YGXPBD0H@Z ; process_assert
  00c6d	c7 85 60 ff ff
	ff 00 00 00 00	 mov	 DWORD PTR tv588[ebp], 0
$LN101@show_brief:
  00c77	6a 27		 push	 39			; 00000027H
  00c79	8b 4d 08	 mov	 ecx, DWORD PTR _mission$[ebp]
  00c7c	51		 push	 ecx
  00c7d	69 95 64 ff ff
	ff b4 00 00 00	 imul	 edx, DWORD PTR tv580[ebp], 180
  00c87	8b 85 60 ff ff
	ff		 mov	 eax, DWORD PTR tv588[ebp]
  00c8d	8b 8c 82 00 00
	00 00		 mov	 ecx, DWORD PTR ?fn_get_local_entity_parent@@3PAY0CN@P6GPAUENTITY@@PAU1@W4LIST_TYPES@@@ZA[edx+eax*4]
  00c94	ff d1		 call	 ecx
  00c96	89 45 f0	 mov	 DWORD PTR _objective$[ebp], eax

; 317  : 
; 318  : 			ASSERT (objective);

  00c99	83 7d f0 00	 cmp	 DWORD PTR _objective$[ebp], 0
  00c9d	75 1a		 jne	 SHORT $LN33@show_brief
  00c9f	a1 00 00 00 00	 mov	 eax, DWORD PTR ?__LINE__Var@?0??show_briefing_page@@YGXPAUENTITY@@H@Z@4JA
  00ca4	05 c0 00 00 00	 add	 eax, 192		; 000000c0H
  00ca9	50		 push	 eax
  00caa	68 00 00 00 00	 push	 OFFSET ??_C@_0EP@NKGPCHE@c?3?2users?2nhv90?2projects?2eech?2ap@
  00caf	68 00 00 00 00	 push	 OFFSET ??_C@_09FKEDLGBF@objective@
  00cb4	e8 00 00 00 00	 call	 ?process_assert@@YGXPBD0H@Z ; process_assert
$LN33@show_brief:

; 319  : 
; 320  : 			set_ui_object_text (briefing_page_objective_box, objective_name);

  00cb9	a1 00 00 00 00	 mov	 eax, DWORD PTR ?objective_name@?1??show_briefing_page@@YGXPAUENTITY@@H@Z@4PBDB
  00cbe	50		 push	 eax
  00cbf	8b 0d 00 00 00
	00		 mov	 ecx, DWORD PTR ?briefing_page_objective_box@@3PAUUI_OBJECT@@A
  00cc5	51		 push	 ecx
  00cc6	8b 15 00 00 00
	00		 mov	 edx, DWORD PTR ?briefing_page_objective_box@@3PAUUI_OBJECT@@A
  00ccc	8b 02		 mov	 eax, DWORD PTR [edx]
  00cce	8b 0c 85 00 00
	00 00		 mov	 ecx, DWORD PTR ?fn_set_ui_object_text@@3PAP6GXPAUUI_OBJECT@@PBD@ZA[eax*4]
  00cd5	ff d1		 call	 ecx

; 321  : 
; 322  : 			set_ui_object_item_number (page_3d_area, get_local_entity_index (objective));

  00cd7	8b 45 f0	 mov	 eax, DWORD PTR _objective$[ebp]
  00cda	2b 05 00 00 00
	00		 sub	 eax, DWORD PTR ?entities@@3PAUENTITY@@A ; entities
  00ce0	c1 f8 04	 sar	 eax, 4
  00ce3	50		 push	 eax
  00ce4	8b 0d 00 00 00
	00		 mov	 ecx, DWORD PTR ?page_3d_area@@3PAUUI_OBJECT@@A
  00cea	51		 push	 ecx
  00ceb	8b 15 00 00 00
	00		 mov	 edx, DWORD PTR ?page_3d_area@@3PAUUI_OBJECT@@A
  00cf1	8b 02		 mov	 eax, DWORD PTR [edx]
  00cf3	8b 0c 85 00 00
	00 00		 mov	 ecx, DWORD PTR ?fn_set_ui_object_item_number@@3PAP6GXPAUUI_OBJECT@@H@ZA[eax*4]
  00cfa	ff d1		 call	 ecx

; 323  : 
; 324  : 			//
; 325  : 			// Set 3D preview box state
; 326  : 			//
; 327  : 
; 328  : 			switch (get_local_entity_int_value (mission, INT_TYPE_TASK_OBJECTIVE_PREVIEW_TYPE))

  00cfc	83 7d 08 00	 cmp	 DWORD PTR _mission$[ebp], 0
  00d00	74 0d		 je	 SHORT $LN102@show_brief
  00d02	8b 45 08	 mov	 eax, DWORD PTR _mission$[ebp]
  00d05	8b 08		 mov	 ecx, DWORD PTR [eax]
  00d07	89 8d 64 ff ff
	ff		 mov	 DWORD PTR tv616[ebp], ecx
  00d0d	eb 20		 jmp	 SHORT $LN103@show_brief
$LN102@show_brief:
  00d0f	68 48 01 00 00	 push	 328			; 00000148H
  00d14	68 00 00 00 00	 push	 OFFSET ??_C@_0EP@NKGPCHE@c?3?2users?2nhv90?2projects?2eech?2ap@
  00d19	8b 15 00 00 00
	00		 mov	 edx, DWORD PTR ?null_entity_pointer_message@@3PBDB ; null_entity_pointer_message
  00d1f	52		 push	 edx
  00d20	e8 00 00 00 00	 call	 ?process_assert@@YGXPBD0H@Z ; process_assert
  00d25	c7 85 64 ff ff
	ff 00 00 00 00	 mov	 DWORD PTR tv616[ebp], 0
$LN103@show_brief:
  00d2f	b8 01 00 00 00	 mov	 eax, 1
  00d34	85 c0		 test	 eax, eax
  00d36	74 0c		 je	 SHORT $LN104@show_brief
  00d38	c7 85 60 ff ff
	ff de 00 00 00	 mov	 DWORD PTR tv623[ebp], 222 ; 000000deH
  00d42	eb 20		 jmp	 SHORT $LN105@show_brief
$LN104@show_brief:
  00d44	68 48 01 00 00	 push	 328			; 00000148H
  00d49	68 00 00 00 00	 push	 OFFSET ??_C@_0EP@NKGPCHE@c?3?2users?2nhv90?2projects?2eech?2ap@
  00d4e	8b 0d 00 00 00
	00		 mov	 ecx, DWORD PTR ?overload_invalid_int_type_message@@3PBDB ; overload_invalid_int_type_message
  00d54	51		 push	 ecx
  00d55	e8 00 00 00 00	 call	 ?process_assert@@YGXPBD0H@Z ; process_assert
  00d5a	c7 85 60 ff ff
	ff 00 00 00 00	 mov	 DWORD PTR tv623[ebp], 0
$LN105@show_brief:
  00d64	68 de 00 00 00	 push	 222			; 000000deH
  00d69	8b 55 08	 mov	 edx, DWORD PTR _mission$[ebp]
  00d6c	52		 push	 edx
  00d6d	69 85 64 ff ff
	ff 5c 04 00 00	 imul	 eax, DWORD PTR tv616[ebp], 1116
  00d77	8b 8d 60 ff ff
	ff		 mov	 ecx, DWORD PTR tv623[ebp]
  00d7d	8b 94 88 00 00
	00 00		 mov	 edx, DWORD PTR ?fn_get_local_entity_int_value@@3PAY0BBH@P6GHPAUENTITY@@W4INT_TYPES@@@ZA[eax+ecx*4]
  00d84	ff d2		 call	 edx
  00d86	89 85 5c ff ff
	ff		 mov	 DWORD PTR tv629[ebp], eax
  00d8c	83 bd 5c ff ff
	ff 00		 cmp	 DWORD PTR tv629[ebp], 0
  00d93	74 1b		 je	 SHORT $LN34@show_brief
  00d95	83 bd 5c ff ff
	ff 01		 cmp	 DWORD PTR tv629[ebp], 1
  00d9c	74 78		 je	 SHORT $LN35@show_brief
  00d9e	83 bd 5c ff ff
	ff 02		 cmp	 DWORD PTR tv629[ebp], 2
  00da5	0f 84 8f 00 00
	00		 je	 $LN36@show_brief
  00dab	e9 a3 00 00 00	 jmp	 $LN6@show_brief
$LN34@show_brief:

; 329  : 			{
; 330  : 				case TASK_OBJECTIVE_PREVIEW_NONE:
; 331  : 				{
; 332  : 					//
; 333  : 					// No 3D preview available for this mission
; 334  : 					//
; 335  : 					
; 336  : 					set_ui_object_drawable (page_3d_toggle, FALSE);

  00db0	6a 00		 push	 0
  00db2	a1 00 00 00 00	 mov	 eax, DWORD PTR ?page_3d_toggle@@3PAUUI_OBJECT@@A
  00db7	50		 push	 eax
  00db8	8b 0d 00 00 00
	00		 mov	 ecx, DWORD PTR ?page_3d_toggle@@3PAUUI_OBJECT@@A
  00dbe	8b 11		 mov	 edx, DWORD PTR [ecx]
  00dc0	8b 04 95 00 00
	00 00		 mov	 eax, DWORD PTR ?fn_set_ui_object_drawable@@3PAP6GXPAUUI_OBJECT@@H@ZA[edx*4]
  00dc7	ff d0		 call	 eax

; 337  : 
; 338  : 					set_ui_object_drawable (page_3d_area, FALSE);

  00dc9	6a 00		 push	 0
  00dcb	a1 00 00 00 00	 mov	 eax, DWORD PTR ?page_3d_area@@3PAUUI_OBJECT@@A
  00dd0	50		 push	 eax
  00dd1	8b 0d 00 00 00
	00		 mov	 ecx, DWORD PTR ?page_3d_area@@3PAUUI_OBJECT@@A
  00dd7	8b 11		 mov	 edx, DWORD PTR [ecx]
  00dd9	8b 04 95 00 00
	00 00		 mov	 eax, DWORD PTR ?fn_set_ui_object_drawable@@3PAP6GXPAUUI_OBJECT@@H@ZA[edx*4]
  00de0	ff d0		 call	 eax

; 339  : 				
; 340  : 					set_ui_object_drawable (page_map_area, TRUE);

  00de2	6a 01		 push	 1
  00de4	a1 00 00 00 00	 mov	 eax, DWORD PTR ?page_map_area@@3PAUUI_OBJECT@@A
  00de9	50		 push	 eax
  00dea	8b 0d 00 00 00
	00		 mov	 ecx, DWORD PTR ?page_map_area@@3PAUUI_OBJECT@@A
  00df0	8b 11		 mov	 edx, DWORD PTR [ecx]
  00df2	8b 04 95 00 00
	00 00		 mov	 eax, DWORD PTR ?fn_set_ui_object_drawable@@3PAP6GXPAUUI_OBJECT@@H@ZA[edx*4]
  00df9	ff d0		 call	 eax

; 341  : 				
; 342  : 					set_ui_object_state (page_map_toggle, UI_OBJECT_STATE_ON);

  00dfb	6a 01		 push	 1
  00dfd	a1 00 00 00 00	 mov	 eax, DWORD PTR ?page_map_toggle@@3PAUUI_OBJECT@@A
  00e02	50		 push	 eax
  00e03	8b 0d 00 00 00
	00		 mov	 ecx, DWORD PTR ?page_map_toggle@@3PAUUI_OBJECT@@A
  00e09	8b 11		 mov	 edx, DWORD PTR [ecx]
  00e0b	8b 04 95 00 00
	00 00		 mov	 eax, DWORD PTR ?fn_set_ui_object_state@@3PAP6GXPAUUI_OBJECT@@H@ZA[edx*4]
  00e12	ff d0		 call	 eax

; 343  : 
; 344  : 					break;

  00e14	eb 3d		 jmp	 SHORT $LN6@show_brief
$LN35@show_brief:

; 345  : 				}
; 346  : 				case TASK_OBJECTIVE_PREVIEW_STILL:
; 347  : 				{
; 348  : 					//
; 349  : 					// Still 3D preview available for this mission
; 350  : 					//
; 351  : 
; 352  : 					set_ui_object_drawable (page_3d_toggle, TRUE);

  00e16	6a 01		 push	 1
  00e18	a1 00 00 00 00	 mov	 eax, DWORD PTR ?page_3d_toggle@@3PAUUI_OBJECT@@A
  00e1d	50		 push	 eax
  00e1e	8b 0d 00 00 00
	00		 mov	 ecx, DWORD PTR ?page_3d_toggle@@3PAUUI_OBJECT@@A
  00e24	8b 11		 mov	 edx, DWORD PTR [ecx]
  00e26	8b 04 95 00 00
	00 00		 mov	 eax, DWORD PTR ?fn_set_ui_object_drawable@@3PAP6GXPAUUI_OBJECT@@H@ZA[edx*4]
  00e2d	ff d0		 call	 eax

; 353  : 
; 354  : 					//
; 355  : 					// Render scene
; 356  : 					//
; 357  : 					
; 358  : 					render_static_briefing_objective_preview (objective);

  00e2f	8b 45 f0	 mov	 eax, DWORD PTR _objective$[ebp]
  00e32	50		 push	 eax
  00e33	e8 00 00 00 00	 call	 ?render_static_briefing_objective_preview@@YGXPAUENTITY@@@Z ; render_static_briefing_objective_preview

; 359  : 
; 360  : 					break;

  00e38	eb 19		 jmp	 SHORT $LN6@show_brief
$LN36@show_brief:

; 361  : 				}
; 362  : 				case TASK_OBJECTIVE_PREVIEW_LIVE:
; 363  : 				{
; 364  : 					//
; 365  : 					// Live 3D preview available for this mission
; 366  : 					//
; 367  : 					
; 368  : 					set_ui_object_drawable (page_3d_toggle, TRUE);

  00e3a	6a 01		 push	 1
  00e3c	a1 00 00 00 00	 mov	 eax, DWORD PTR ?page_3d_toggle@@3PAUUI_OBJECT@@A
  00e41	50		 push	 eax
  00e42	8b 0d 00 00 00
	00		 mov	 ecx, DWORD PTR ?page_3d_toggle@@3PAUUI_OBJECT@@A
  00e48	8b 11		 mov	 edx, DWORD PTR [ecx]
  00e4a	8b 04 95 00 00
	00 00		 mov	 eax, DWORD PTR ?fn_set_ui_object_drawable@@3PAP6GXPAUUI_OBJECT@@H@ZA[edx*4]
  00e51	ff d0		 call	 eax
$LN6@show_brief:

; 369  : 
; 370  : 					break;
; 371  : 				}
; 372  : 			}
; 373  : 		}
; 374  : 		else

  00e53	eb 35		 jmp	 SHORT $LN32@show_brief
$LN31@show_brief:

; 375  : 		{
; 376  : 			set_ui_object_text (briefing_page_objective_box, "");

  00e55	68 00 00 00 00	 push	 OFFSET ??_C@_00CNPNBAHC@@
  00e5a	a1 00 00 00 00	 mov	 eax, DWORD PTR ?briefing_page_objective_box@@3PAUUI_OBJECT@@A
  00e5f	50		 push	 eax
  00e60	8b 0d 00 00 00
	00		 mov	 ecx, DWORD PTR ?briefing_page_objective_box@@3PAUUI_OBJECT@@A
  00e66	8b 11		 mov	 edx, DWORD PTR [ecx]
  00e68	8b 04 95 00 00
	00 00		 mov	 eax, DWORD PTR ?fn_set_ui_object_text@@3PAP6GXPAUUI_OBJECT@@PBD@ZA[edx*4]
  00e6f	ff d0		 call	 eax

; 377  : 
; 378  : 			set_ui_object_item_number (page_3d_area, ENTITY_INDEX_DONT_CARE);

  00e71	6a ff		 push	 -1
  00e73	a1 00 00 00 00	 mov	 eax, DWORD PTR ?page_3d_area@@3PAUUI_OBJECT@@A
  00e78	50		 push	 eax
  00e79	8b 0d 00 00 00
	00		 mov	 ecx, DWORD PTR ?page_3d_area@@3PAUUI_OBJECT@@A
  00e7f	8b 11		 mov	 edx, DWORD PTR [ecx]
  00e81	8b 04 95 00 00
	00 00		 mov	 eax, DWORD PTR ?fn_set_ui_object_item_number@@3PAP6GXPAUUI_OBJECT@@H@ZA[edx*4]
  00e88	ff d0		 call	 eax
$LN32@show_brief:

; 379  : 		}
; 380  : 	}
; 381  : 
; 382  : 	//
; 383  : 	// 2D MAP
; 384  : 	//
; 385  : 
; 386  : 	set_ui_object_item_number (page_map_area, get_local_entity_index (mission));

  00e8a	8b 45 08	 mov	 eax, DWORD PTR _mission$[ebp]
  00e8d	2b 05 00 00 00
	00		 sub	 eax, DWORD PTR ?entities@@3PAUENTITY@@A ; entities
  00e93	c1 f8 04	 sar	 eax, 4
  00e96	50		 push	 eax
  00e97	8b 0d 00 00 00
	00		 mov	 ecx, DWORD PTR ?page_map_area@@3PAUUI_OBJECT@@A
  00e9d	51		 push	 ecx
  00e9e	8b 15 00 00 00
	00		 mov	 edx, DWORD PTR ?page_map_area@@3PAUUI_OBJECT@@A
  00ea4	8b 02		 mov	 eax, DWORD PTR [edx]
  00ea6	8b 0c 85 00 00
	00 00		 mov	 ecx, DWORD PTR ?fn_set_ui_object_item_number@@3PAP6GXPAUUI_OBJECT@@H@ZA[eax*4]
  00ead	ff d1		 call	 ecx

; 387  : 
; 388  : 	if (mission != previous)

  00eaf	8b 45 08	 mov	 eax, DWORD PTR _mission$[ebp]
  00eb2	3b 45 f8	 cmp	 eax, DWORD PTR _previous$[ebp]
  00eb5	0f 84 d5 06 00
	00		 je	 $LN37@show_brief

; 389  : 	{
; 390  : 		//
; 391  : 		// Autofit map to mission route
; 392  : 		//
; 393  : 
; 394  : 		vec3d
; 395  : 			min_pos,
; 396  : 			max_pos,
; 397  : 			*pos,
; 398  : 			*base_pos;
; 399  : 
; 400  : 		base = get_local_entity_parent (mission, get_local_task_list_type (mission));

  00ebb	83 7d 08 00	 cmp	 DWORD PTR _mission$[ebp], 0
  00ebf	74 0d		 je	 SHORT $LN106@show_brief
  00ec1	8b 45 08	 mov	 eax, DWORD PTR _mission$[ebp]
  00ec4	8b 08		 mov	 ecx, DWORD PTR [eax]
  00ec6	89 8d 64 ff ff
	ff		 mov	 DWORD PTR tv688[ebp], ecx
  00ecc	eb 27		 jmp	 SHORT $LN107@show_brief
$LN106@show_brief:
  00ece	8b 15 00 00 00
	00		 mov	 edx, DWORD PTR ?__LINE__Var@?0??show_briefing_page@@YGXPAUENTITY@@H@Z@4JA
  00ed4	81 c2 12 01 00
	00		 add	 edx, 274		; 00000112H
  00eda	52		 push	 edx
  00edb	68 00 00 00 00	 push	 OFFSET ??_C@_0EP@NKGPCHE@c?3?2users?2nhv90?2projects?2eech?2ap@
  00ee0	a1 00 00 00 00	 mov	 eax, DWORD PTR ?null_entity_pointer_message@@3PBDB ; null_entity_pointer_message
  00ee5	50		 push	 eax
  00ee6	e8 00 00 00 00	 call	 ?process_assert@@YGXPBD0H@Z ; process_assert
  00eeb	c7 85 64 ff ff
	ff 00 00 00 00	 mov	 DWORD PTR tv688[ebp], 0
$LN107@show_brief:
  00ef5	8b 4d 08	 mov	 ecx, DWORD PTR _mission$[ebp]
  00ef8	51		 push	 ecx
  00ef9	e8 00 00 00 00	 call	 ?get_local_task_list_type@@YG?AW4LIST_TYPES@@PAUENTITY@@@Z ; get_local_task_list_type
  00efe	85 c0		 test	 eax, eax
  00f00	7c 1f		 jl	 SHORT $LN108@show_brief
  00f02	8b 55 08	 mov	 edx, DWORD PTR _mission$[ebp]
  00f05	52		 push	 edx
  00f06	e8 00 00 00 00	 call	 ?get_local_task_list_type@@YG?AW4LIST_TYPES@@PAUENTITY@@@Z ; get_local_task_list_type
  00f0b	83 f8 2d	 cmp	 eax, 45			; 0000002dH
  00f0e	7d 11		 jge	 SHORT $LN108@show_brief
  00f10	8b 45 08	 mov	 eax, DWORD PTR _mission$[ebp]
  00f13	50		 push	 eax
  00f14	e8 00 00 00 00	 call	 ?get_local_task_list_type@@YG?AW4LIST_TYPES@@PAUENTITY@@@Z ; get_local_task_list_type
  00f19	89 85 60 ff ff
	ff		 mov	 DWORD PTR tv703[ebp], eax
  00f1f	eb 28		 jmp	 SHORT $LN109@show_brief
$LN108@show_brief:
  00f21	8b 0d 00 00 00
	00		 mov	 ecx, DWORD PTR ?__LINE__Var@?0??show_briefing_page@@YGXPAUENTITY@@H@Z@4JA
  00f27	81 c1 12 01 00
	00		 add	 ecx, 274		; 00000112H
  00f2d	51		 push	 ecx
  00f2e	68 00 00 00 00	 push	 OFFSET ??_C@_0EP@NKGPCHE@c?3?2users?2nhv90?2projects?2eech?2ap@
  00f33	8b 15 00 00 00
	00		 mov	 edx, DWORD PTR ?overload_invalid_list_type_message@@3PBDB ; overload_invalid_list_type_message
  00f39	52		 push	 edx
  00f3a	e8 00 00 00 00	 call	 ?process_assert@@YGXPBD0H@Z ; process_assert
  00f3f	c7 85 60 ff ff
	ff 00 00 00 00	 mov	 DWORD PTR tv703[ebp], 0
$LN109@show_brief:
  00f49	8b 45 08	 mov	 eax, DWORD PTR _mission$[ebp]
  00f4c	50		 push	 eax
  00f4d	e8 00 00 00 00	 call	 ?get_local_task_list_type@@YG?AW4LIST_TYPES@@PAUENTITY@@@Z ; get_local_task_list_type
  00f52	50		 push	 eax
  00f53	8b 4d 08	 mov	 ecx, DWORD PTR _mission$[ebp]
  00f56	51		 push	 ecx
  00f57	69 95 64 ff ff
	ff b4 00 00 00	 imul	 edx, DWORD PTR tv688[ebp], 180
  00f61	8b 85 60 ff ff
	ff		 mov	 eax, DWORD PTR tv703[ebp]
  00f67	8b 8c 82 00 00
	00 00		 mov	 ecx, DWORD PTR ?fn_get_local_entity_parent@@3PAY0CN@P6GPAUENTITY@@PAU1@W4LIST_TYPES@@@ZA[edx+eax*4]
  00f6e	ff d1		 call	 ecx
  00f70	89 45 fc	 mov	 DWORD PTR _base$[ebp], eax

; 401  : 			
; 402  : 		base_pos = get_local_entity_vec3d_ptr (base, VEC3D_TYPE_POSITION);

  00f73	83 7d fc 00	 cmp	 DWORD PTR _base$[ebp], 0
  00f77	74 0d		 je	 SHORT $LN110@show_brief
  00f79	8b 45 fc	 mov	 eax, DWORD PTR _base$[ebp]
  00f7c	8b 08		 mov	 ecx, DWORD PTR [eax]
  00f7e	89 8d 64 ff ff
	ff		 mov	 DWORD PTR tv717[ebp], ecx
  00f84	eb 27		 jmp	 SHORT $LN111@show_brief
$LN110@show_brief:
  00f86	8b 15 00 00 00
	00		 mov	 edx, DWORD PTR ?__LINE__Var@?0??show_briefing_page@@YGXPAUENTITY@@H@Z@4JA
  00f8c	81 c2 14 01 00
	00		 add	 edx, 276		; 00000114H
  00f92	52		 push	 edx
  00f93	68 00 00 00 00	 push	 OFFSET ??_C@_0EP@NKGPCHE@c?3?2users?2nhv90?2projects?2eech?2ap@
  00f98	a1 00 00 00 00	 mov	 eax, DWORD PTR ?null_entity_pointer_message@@3PBDB ; null_entity_pointer_message
  00f9d	50		 push	 eax
  00f9e	e8 00 00 00 00	 call	 ?process_assert@@YGXPBD0H@Z ; process_assert
  00fa3	c7 85 64 ff ff
	ff 00 00 00 00	 mov	 DWORD PTR tv717[ebp], 0
$LN111@show_brief:
  00fad	b9 01 00 00 00	 mov	 ecx, 1
  00fb2	85 c9		 test	 ecx, ecx
  00fb4	74 0c		 je	 SHORT $LN112@show_brief
  00fb6	c7 85 60 ff ff
	ff 08 00 00 00	 mov	 DWORD PTR tv725[ebp], 8
  00fc0	eb 27		 jmp	 SHORT $LN113@show_brief
$LN112@show_brief:
  00fc2	8b 15 00 00 00
	00		 mov	 edx, DWORD PTR ?__LINE__Var@?0??show_briefing_page@@YGXPAUENTITY@@H@Z@4JA
  00fc8	81 c2 14 01 00
	00		 add	 edx, 276		; 00000114H
  00fce	52		 push	 edx
  00fcf	68 00 00 00 00	 push	 OFFSET ??_C@_0EP@NKGPCHE@c?3?2users?2nhv90?2projects?2eech?2ap@
  00fd4	a1 00 00 00 00	 mov	 eax, DWORD PTR ?overload_invalid_vec3d_type_message@@3PBDB ; overload_invalid_vec3d_type_message
  00fd9	50		 push	 eax
  00fda	e8 00 00 00 00	 call	 ?process_assert@@YGXPBD0H@Z ; process_assert
  00fdf	c7 85 60 ff ff
	ff 00 00 00 00	 mov	 DWORD PTR tv725[ebp], 0
$LN113@show_brief:
  00fe9	6a 08		 push	 8
  00feb	8b 4d fc	 mov	 ecx, DWORD PTR _base$[ebp]
  00fee	51		 push	 ecx
  00fef	6b 95 64 ff ff
	ff 60		 imul	 edx, DWORD PTR tv717[ebp], 96
  00ff6	8b 85 60 ff ff
	ff		 mov	 eax, DWORD PTR tv725[ebp]
  00ffc	8b 8c 82 00 00
	00 00		 mov	 ecx, DWORD PTR ?fn_get_local_entity_vec3d_ptr@@3PAY0BI@P6GPAUVEC3D@@PAUENTITY@@W4VEC3D_TYPES@@@ZA[edx+eax*4]
  01003	ff d1		 call	 ecx
  01005	89 45 c4	 mov	 DWORD PTR _base_pos$8[ebp], eax

; 403  : 
; 404  : 		min_pos = *base_pos;

  01008	8b 45 c4	 mov	 eax, DWORD PTR _base_pos$8[ebp]
  0100b	8b 08		 mov	 ecx, DWORD PTR [eax]
  0100d	89 4d d8	 mov	 DWORD PTR _min_pos$11[ebp], ecx
  01010	8b 50 04	 mov	 edx, DWORD PTR [eax+4]
  01013	89 55 dc	 mov	 DWORD PTR _min_pos$11[ebp+4], edx
  01016	8b 40 08	 mov	 eax, DWORD PTR [eax+8]
  01019	89 45 e0	 mov	 DWORD PTR _min_pos$11[ebp+8], eax

; 405  : 		max_pos = *base_pos;

  0101c	8b 45 c4	 mov	 eax, DWORD PTR _base_pos$8[ebp]
  0101f	8b 08		 mov	 ecx, DWORD PTR [eax]
  01021	89 4d cc	 mov	 DWORD PTR _max_pos$10[ebp], ecx
  01024	8b 50 04	 mov	 edx, DWORD PTR [eax+4]
  01027	89 55 d0	 mov	 DWORD PTR _max_pos$10[ebp+4], edx
  0102a	8b 40 08	 mov	 eax, DWORD PTR [eax+8]
  0102d	89 45 d4	 mov	 DWORD PTR _max_pos$10[ebp+8], eax

; 406  : 
; 407  : 		if (get_local_entity_int_value (mission, INT_TYPE_TASK_STATE) == TASK_STATE_ASSIGNED)

  01030	83 7d 08 00	 cmp	 DWORD PTR _mission$[ebp], 0
  01034	74 0d		 je	 SHORT $LN114@show_brief
  01036	8b 45 08	 mov	 eax, DWORD PTR _mission$[ebp]
  01039	8b 08		 mov	 ecx, DWORD PTR [eax]
  0103b	89 8d 64 ff ff
	ff		 mov	 DWORD PTR tv738[ebp], ecx
  01041	eb 20		 jmp	 SHORT $LN115@show_brief
$LN114@show_brief:
  01043	68 97 01 00 00	 push	 407			; 00000197H
  01048	68 00 00 00 00	 push	 OFFSET ??_C@_0EP@NKGPCHE@c?3?2users?2nhv90?2projects?2eech?2ap@
  0104d	8b 15 00 00 00
	00		 mov	 edx, DWORD PTR ?null_entity_pointer_message@@3PBDB ; null_entity_pointer_message
  01053	52		 push	 edx
  01054	e8 00 00 00 00	 call	 ?process_assert@@YGXPBD0H@Z ; process_assert
  01059	c7 85 64 ff ff
	ff 00 00 00 00	 mov	 DWORD PTR tv738[ebp], 0
$LN115@show_brief:
  01063	b8 01 00 00 00	 mov	 eax, 1
  01068	85 c0		 test	 eax, eax
  0106a	74 0c		 je	 SHORT $LN116@show_brief
  0106c	c7 85 60 ff ff
	ff e3 00 00 00	 mov	 DWORD PTR tv745[ebp], 227 ; 000000e3H
  01076	eb 20		 jmp	 SHORT $LN117@show_brief
$LN116@show_brief:
  01078	68 97 01 00 00	 push	 407			; 00000197H
  0107d	68 00 00 00 00	 push	 OFFSET ??_C@_0EP@NKGPCHE@c?3?2users?2nhv90?2projects?2eech?2ap@
  01082	8b 0d 00 00 00
	00		 mov	 ecx, DWORD PTR ?overload_invalid_int_type_message@@3PBDB ; overload_invalid_int_type_message
  01088	51		 push	 ecx
  01089	e8 00 00 00 00	 call	 ?process_assert@@YGXPBD0H@Z ; process_assert
  0108e	c7 85 60 ff ff
	ff 00 00 00 00	 mov	 DWORD PTR tv745[ebp], 0
$LN117@show_brief:
  01098	68 e3 00 00 00	 push	 227			; 000000e3H
  0109d	8b 55 08	 mov	 edx, DWORD PTR _mission$[ebp]
  010a0	52		 push	 edx
  010a1	69 85 64 ff ff
	ff 5c 04 00 00	 imul	 eax, DWORD PTR tv738[ebp], 1116
  010ab	8b 8d 60 ff ff
	ff		 mov	 ecx, DWORD PTR tv745[ebp]
  010b1	8b 94 88 00 00
	00 00		 mov	 edx, DWORD PTR ?fn_get_local_entity_int_value@@3PAY0BBH@P6GHPAUENTITY@@W4INT_TYPES@@@ZA[eax+ecx*4]
  010b8	ff d2		 call	 edx
  010ba	83 f8 01	 cmp	 eax, 1
  010bd	0f 85 37 02 00
	00		 jne	 $LN38@show_brief

; 408  : 		{
; 409  : 			//
; 410  : 			// ASSIGNED TASK
; 411  : 			//
; 412  : 
; 413  : 			entity
; 414  : 				*wp;
; 415  : 
; 416  : 			wp = get_local_entity_first_child (mission, LIST_TYPE_WAYPOINT);

  010c3	83 7d 08 00	 cmp	 DWORD PTR _mission$[ebp], 0
  010c7	74 0d		 je	 SHORT $LN118@show_brief
  010c9	8b 45 08	 mov	 eax, DWORD PTR _mission$[ebp]
  010cc	8b 08		 mov	 ecx, DWORD PTR [eax]
  010ce	89 8d 64 ff ff
	ff		 mov	 DWORD PTR tv758[ebp], ecx
  010d4	eb 27		 jmp	 SHORT $LN119@show_brief
$LN118@show_brief:
  010d6	8b 15 00 00 00
	00		 mov	 edx, DWORD PTR ?__LINE__Var@?0??show_briefing_page@@YGXPAUENTITY@@H@Z@4JA
  010dc	81 c2 22 01 00
	00		 add	 edx, 290		; 00000122H
  010e2	52		 push	 edx
  010e3	68 00 00 00 00	 push	 OFFSET ??_C@_0EP@NKGPCHE@c?3?2users?2nhv90?2projects?2eech?2ap@
  010e8	a1 00 00 00 00	 mov	 eax, DWORD PTR ?null_entity_pointer_message@@3PBDB ; null_entity_pointer_message
  010ed	50		 push	 eax
  010ee	e8 00 00 00 00	 call	 ?process_assert@@YGXPBD0H@Z ; process_assert
  010f3	c7 85 64 ff ff
	ff 00 00 00 00	 mov	 DWORD PTR tv758[ebp], 0
$LN119@show_brief:
  010fd	b9 01 00 00 00	 mov	 ecx, 1
  01102	85 c9		 test	 ecx, ecx
  01104	74 0c		 je	 SHORT $LN120@show_brief
  01106	c7 85 60 ff ff
	ff 2c 00 00 00	 mov	 DWORD PTR tv766[ebp], 44 ; 0000002cH
  01110	eb 27		 jmp	 SHORT $LN121@show_brief
$LN120@show_brief:
  01112	8b 15 00 00 00
	00		 mov	 edx, DWORD PTR ?__LINE__Var@?0??show_briefing_page@@YGXPAUENTITY@@H@Z@4JA
  01118	81 c2 22 01 00
	00		 add	 edx, 290		; 00000122H
  0111e	52		 push	 edx
  0111f	68 00 00 00 00	 push	 OFFSET ??_C@_0EP@NKGPCHE@c?3?2users?2nhv90?2projects?2eech?2ap@
  01124	a1 00 00 00 00	 mov	 eax, DWORD PTR ?overload_invalid_list_type_message@@3PBDB ; overload_invalid_list_type_message
  01129	50		 push	 eax
  0112a	e8 00 00 00 00	 call	 ?process_assert@@YGXPBD0H@Z ; process_assert
  0112f	c7 85 60 ff ff
	ff 00 00 00 00	 mov	 DWORD PTR tv766[ebp], 0
$LN121@show_brief:
  01139	6a 2c		 push	 44			; 0000002cH
  0113b	8b 4d 08	 mov	 ecx, DWORD PTR _mission$[ebp]
  0113e	51		 push	 ecx
  0113f	69 95 64 ff ff
	ff b4 00 00 00	 imul	 edx, DWORD PTR tv758[ebp], 180
  01149	8b 85 60 ff ff
	ff		 mov	 eax, DWORD PTR tv766[ebp]
  0114f	8b 8c 82 00 00
	00 00		 mov	 ecx, DWORD PTR ?fn_get_local_entity_first_child@@3PAY0CN@P6GPAUENTITY@@PAU1@W4LIST_TYPES@@@ZA[edx+eax*4]
  01156	ff d1		 call	 ecx
  01158	89 45 c0	 mov	 DWORD PTR _wp$7[ebp], eax
$LN8@show_brief:

; 417  : 
; 418  : 			while (wp)

  0115b	83 7d c0 00	 cmp	 DWORD PTR _wp$7[ebp], 0
  0115f	0f 84 90 01 00
	00		 je	 $LN9@show_brief

; 419  : 			{
; 420  : 				pos = get_local_entity_vec3d_ptr (wp, VEC3D_TYPE_POSITION);

  01165	83 7d c0 00	 cmp	 DWORD PTR _wp$7[ebp], 0
  01169	74 0d		 je	 SHORT $LN122@show_brief
  0116b	8b 45 c0	 mov	 eax, DWORD PTR _wp$7[ebp]
  0116e	8b 08		 mov	 ecx, DWORD PTR [eax]
  01170	89 8d 64 ff ff
	ff		 mov	 DWORD PTR tv779[ebp], ecx
  01176	eb 27		 jmp	 SHORT $LN123@show_brief
$LN122@show_brief:
  01178	8b 15 00 00 00
	00		 mov	 edx, DWORD PTR ?__LINE__Var@?0??show_briefing_page@@YGXPAUENTITY@@H@Z@4JA
  0117e	81 c2 26 01 00
	00		 add	 edx, 294		; 00000126H
  01184	52		 push	 edx
  01185	68 00 00 00 00	 push	 OFFSET ??_C@_0EP@NKGPCHE@c?3?2users?2nhv90?2projects?2eech?2ap@
  0118a	a1 00 00 00 00	 mov	 eax, DWORD PTR ?null_entity_pointer_message@@3PBDB ; null_entity_pointer_message
  0118f	50		 push	 eax
  01190	e8 00 00 00 00	 call	 ?process_assert@@YGXPBD0H@Z ; process_assert
  01195	c7 85 64 ff ff
	ff 00 00 00 00	 mov	 DWORD PTR tv779[ebp], 0
$LN123@show_brief:
  0119f	b9 01 00 00 00	 mov	 ecx, 1
  011a4	85 c9		 test	 ecx, ecx
  011a6	74 0c		 je	 SHORT $LN124@show_brief
  011a8	c7 85 60 ff ff
	ff 08 00 00 00	 mov	 DWORD PTR tv787[ebp], 8
  011b2	eb 27		 jmp	 SHORT $LN125@show_brief
$LN124@show_brief:
  011b4	8b 15 00 00 00
	00		 mov	 edx, DWORD PTR ?__LINE__Var@?0??show_briefing_page@@YGXPAUENTITY@@H@Z@4JA
  011ba	81 c2 26 01 00
	00		 add	 edx, 294		; 00000126H
  011c0	52		 push	 edx
  011c1	68 00 00 00 00	 push	 OFFSET ??_C@_0EP@NKGPCHE@c?3?2users?2nhv90?2projects?2eech?2ap@
  011c6	a1 00 00 00 00	 mov	 eax, DWORD PTR ?overload_invalid_vec3d_type_message@@3PBDB ; overload_invalid_vec3d_type_message
  011cb	50		 push	 eax
  011cc	e8 00 00 00 00	 call	 ?process_assert@@YGXPBD0H@Z ; process_assert
  011d1	c7 85 60 ff ff
	ff 00 00 00 00	 mov	 DWORD PTR tv787[ebp], 0
$LN125@show_brief:
  011db	6a 08		 push	 8
  011dd	8b 4d c0	 mov	 ecx, DWORD PTR _wp$7[ebp]
  011e0	51		 push	 ecx
  011e1	6b 95 64 ff ff
	ff 60		 imul	 edx, DWORD PTR tv779[ebp], 96
  011e8	8b 85 60 ff ff
	ff		 mov	 eax, DWORD PTR tv787[ebp]
  011ee	8b 8c 82 00 00
	00 00		 mov	 ecx, DWORD PTR ?fn_get_local_entity_vec3d_ptr@@3PAY0BI@P6GPAUVEC3D@@PAUENTITY@@W4VEC3D_TYPES@@@ZA[edx+eax*4]
  011f5	ff d1		 call	 ecx
  011f7	89 45 c8	 mov	 DWORD PTR _pos$9[ebp], eax

; 421  : 
; 422  : 				min_pos.x = min (min_pos.x, pos->x);

  011fa	8b 45 c8	 mov	 eax, DWORD PTR _pos$9[ebp]
  011fd	50		 push	 eax
  011fe	8d 4d d8	 lea	 ecx, DWORD PTR _min_pos$11[ebp]
  01201	51		 push	 ecx
  01202	e8 00 00 00 00	 call	 ??$min@M@std@@YGABMABM0@Z ; std::min<float>
  01207	f3 0f 10 00	 movss	 xmm0, DWORD PTR [eax]
  0120b	f3 0f 11 45 d8	 movss	 DWORD PTR _min_pos$11[ebp], xmm0

; 423  : 				min_pos.z = min (min_pos.z, pos->z);

  01210	8b 45 c8	 mov	 eax, DWORD PTR _pos$9[ebp]
  01213	83 c0 08	 add	 eax, 8
  01216	50		 push	 eax
  01217	8d 4d e0	 lea	 ecx, DWORD PTR _min_pos$11[ebp+8]
  0121a	51		 push	 ecx
  0121b	e8 00 00 00 00	 call	 ??$min@M@std@@YGABMABM0@Z ; std::min<float>
  01220	f3 0f 10 00	 movss	 xmm0, DWORD PTR [eax]
  01224	f3 0f 11 45 e0	 movss	 DWORD PTR _min_pos$11[ebp+8], xmm0

; 424  : 
; 425  : 				max_pos.x = max (max_pos.x, pos->x);

  01229	8b 45 c8	 mov	 eax, DWORD PTR _pos$9[ebp]
  0122c	50		 push	 eax
  0122d	8d 4d cc	 lea	 ecx, DWORD PTR _max_pos$10[ebp]
  01230	51		 push	 ecx
  01231	e8 00 00 00 00	 call	 ??$max@M@std@@YGABMABM0@Z ; std::max<float>
  01236	f3 0f 10 00	 movss	 xmm0, DWORD PTR [eax]
  0123a	f3 0f 11 45 cc	 movss	 DWORD PTR _max_pos$10[ebp], xmm0

; 426  : 				max_pos.z = max (max_pos.z, pos->z);

  0123f	8b 45 c8	 mov	 eax, DWORD PTR _pos$9[ebp]
  01242	83 c0 08	 add	 eax, 8
  01245	50		 push	 eax
  01246	8d 4d d4	 lea	 ecx, DWORD PTR _max_pos$10[ebp+8]
  01249	51		 push	 ecx
  0124a	e8 00 00 00 00	 call	 ??$max@M@std@@YGABMABM0@Z ; std::max<float>
  0124f	f3 0f 10 00	 movss	 xmm0, DWORD PTR [eax]
  01253	f3 0f 11 45 d4	 movss	 DWORD PTR _max_pos$10[ebp+8], xmm0

; 427  : 
; 428  : 				wp = get_local_entity_child_succ (wp, LIST_TYPE_WAYPOINT);

  01258	83 7d c0 00	 cmp	 DWORD PTR _wp$7[ebp], 0
  0125c	74 0d		 je	 SHORT $LN126@show_brief
  0125e	8b 45 c0	 mov	 eax, DWORD PTR _wp$7[ebp]
  01261	8b 08		 mov	 ecx, DWORD PTR [eax]
  01263	89 8d 64 ff ff
	ff		 mov	 DWORD PTR tv815[ebp], ecx
  01269	eb 27		 jmp	 SHORT $LN127@show_brief
$LN126@show_brief:
  0126b	8b 15 00 00 00
	00		 mov	 edx, DWORD PTR ?__LINE__Var@?0??show_briefing_page@@YGXPAUENTITY@@H@Z@4JA
  01271	81 c2 2e 01 00
	00		 add	 edx, 302		; 0000012eH
  01277	52		 push	 edx
  01278	68 00 00 00 00	 push	 OFFSET ??_C@_0EP@NKGPCHE@c?3?2users?2nhv90?2projects?2eech?2ap@
  0127d	a1 00 00 00 00	 mov	 eax, DWORD PTR ?null_entity_pointer_message@@3PBDB ; null_entity_pointer_message
  01282	50		 push	 eax
  01283	e8 00 00 00 00	 call	 ?process_assert@@YGXPBD0H@Z ; process_assert
  01288	c7 85 64 ff ff
	ff 00 00 00 00	 mov	 DWORD PTR tv815[ebp], 0
$LN127@show_brief:
  01292	b9 01 00 00 00	 mov	 ecx, 1
  01297	85 c9		 test	 ecx, ecx
  01299	74 0c		 je	 SHORT $LN128@show_brief
  0129b	c7 85 60 ff ff
	ff 2c 00 00 00	 mov	 DWORD PTR tv823[ebp], 44 ; 0000002cH
  012a5	eb 27		 jmp	 SHORT $LN129@show_brief
$LN128@show_brief:
  012a7	8b 15 00 00 00
	00		 mov	 edx, DWORD PTR ?__LINE__Var@?0??show_briefing_page@@YGXPAUENTITY@@H@Z@4JA
  012ad	81 c2 2e 01 00
	00		 add	 edx, 302		; 0000012eH
  012b3	52		 push	 edx
  012b4	68 00 00 00 00	 push	 OFFSET ??_C@_0EP@NKGPCHE@c?3?2users?2nhv90?2projects?2eech?2ap@
  012b9	a1 00 00 00 00	 mov	 eax, DWORD PTR ?overload_invalid_list_type_message@@3PBDB ; overload_invalid_list_type_message
  012be	50		 push	 eax
  012bf	e8 00 00 00 00	 call	 ?process_assert@@YGXPBD0H@Z ; process_assert
  012c4	c7 85 60 ff ff
	ff 00 00 00 00	 mov	 DWORD PTR tv823[ebp], 0
$LN129@show_brief:
  012ce	6a 2c		 push	 44			; 0000002cH
  012d0	8b 4d c0	 mov	 ecx, DWORD PTR _wp$7[ebp]
  012d3	51		 push	 ecx
  012d4	69 95 64 ff ff
	ff b4 00 00 00	 imul	 edx, DWORD PTR tv815[ebp], 180
  012de	8b 85 60 ff ff
	ff		 mov	 eax, DWORD PTR tv823[ebp]
  012e4	8b 8c 82 00 00
	00 00		 mov	 ecx, DWORD PTR ?fn_get_local_entity_child_succ@@3PAY0CN@P6GPAUENTITY@@PAU1@W4LIST_TYPES@@@ZA[edx+eax*4]
  012eb	ff d1		 call	 ecx
  012ed	89 45 c0	 mov	 DWORD PTR _wp$7[ebp], eax

; 429  : 			}

  012f0	e9 66 fe ff ff	 jmp	 $LN8@show_brief
$LN9@show_brief:

; 430  : 		}
; 431  : 		else

  012f5	e9 be 01 00 00	 jmp	 $LN11@show_brief
$LN38@show_brief:

; 432  : 		{
; 433  : 			//
; 434  : 			// UNASSIGNED TASK
; 435  : 			//
; 436  : 
; 437  : 			vec3d
; 438  : 				*route_nodes;
; 439  : 
; 440  : 			int
; 441  : 				loop,
; 442  : 				route_length;
; 443  : 
; 444  : 			route_nodes = (vec3d *) get_local_entity_ptr_value (mission, PTR_TYPE_ROUTE_NODE);

  012fa	83 7d 08 00	 cmp	 DWORD PTR _mission$[ebp], 0
  012fe	74 0d		 je	 SHORT $LN130@show_brief
  01300	8b 45 08	 mov	 eax, DWORD PTR _mission$[ebp]
  01303	8b 08		 mov	 ecx, DWORD PTR [eax]
  01305	89 8d 64 ff ff
	ff		 mov	 DWORD PTR tv835[ebp], ecx
  0130b	eb 27		 jmp	 SHORT $LN131@show_brief
$LN130@show_brief:
  0130d	8b 15 00 00 00
	00		 mov	 edx, DWORD PTR ?__LINE__Var@?0??show_briefing_page@@YGXPAUENTITY@@H@Z@4JA
  01313	81 c2 3e 01 00
	00		 add	 edx, 318		; 0000013eH
  01319	52		 push	 edx
  0131a	68 00 00 00 00	 push	 OFFSET ??_C@_0EP@NKGPCHE@c?3?2users?2nhv90?2projects?2eech?2ap@
  0131f	a1 00 00 00 00	 mov	 eax, DWORD PTR ?null_entity_pointer_message@@3PBDB ; null_entity_pointer_message
  01324	50		 push	 eax
  01325	e8 00 00 00 00	 call	 ?process_assert@@YGXPBD0H@Z ; process_assert
  0132a	c7 85 64 ff ff
	ff 00 00 00 00	 mov	 DWORD PTR tv835[ebp], 0
$LN131@show_brief:
  01334	b9 01 00 00 00	 mov	 ecx, 1
  01339	85 c9		 test	 ecx, ecx
  0133b	74 0c		 je	 SHORT $LN132@show_brief
  0133d	c7 85 60 ff ff
	ff 0b 00 00 00	 mov	 DWORD PTR tv843[ebp], 11 ; 0000000bH
  01347	eb 27		 jmp	 SHORT $LN133@show_brief
$LN132@show_brief:
  01349	8b 15 00 00 00
	00		 mov	 edx, DWORD PTR ?__LINE__Var@?0??show_briefing_page@@YGXPAUENTITY@@H@Z@4JA
  0134f	81 c2 3e 01 00
	00		 add	 edx, 318		; 0000013eH
  01355	52		 push	 edx
  01356	68 00 00 00 00	 push	 OFFSET ??_C@_0EP@NKGPCHE@c?3?2users?2nhv90?2projects?2eech?2ap@
  0135b	a1 00 00 00 00	 mov	 eax, DWORD PTR ?overload_invalid_ptr_type_message@@3PBDB ; overload_invalid_ptr_type_message
  01360	50		 push	 eax
  01361	e8 00 00 00 00	 call	 ?process_assert@@YGXPBD0H@Z ; process_assert
  01366	c7 85 60 ff ff
	ff 00 00 00 00	 mov	 DWORD PTR tv843[ebp], 0
$LN133@show_brief:
  01370	6a 0b		 push	 11			; 0000000bH
  01372	8b 4d 08	 mov	 ecx, DWORD PTR _mission$[ebp]
  01375	51		 push	 ecx
  01376	6b 95 64 ff ff
	ff 50		 imul	 edx, DWORD PTR tv835[ebp], 80
  0137d	8b 85 60 ff ff
	ff		 mov	 eax, DWORD PTR tv843[ebp]
  01383	8b 8c 82 00 00
	00 00		 mov	 ecx, DWORD PTR ?fn_get_local_entity_ptr_value@@3PAY0BE@P6GPAXPAUENTITY@@W4PTR_TYPES@@@ZA[edx+eax*4]
  0138a	ff d1		 call	 ecx
  0138c	89 45 bc	 mov	 DWORD PTR _route_nodes$6[ebp], eax

; 445  : 
; 446  : 			route_length = get_local_entity_int_value (mission, INT_TYPE_ROUTE_LENGTH);

  0138f	83 7d 08 00	 cmp	 DWORD PTR _mission$[ebp], 0
  01393	74 0d		 je	 SHORT $LN134@show_brief
  01395	8b 45 08	 mov	 eax, DWORD PTR _mission$[ebp]
  01398	8b 08		 mov	 ecx, DWORD PTR [eax]
  0139a	89 8d 64 ff ff
	ff		 mov	 DWORD PTR tv855[ebp], ecx
  013a0	eb 27		 jmp	 SHORT $LN135@show_brief
$LN134@show_brief:
  013a2	8b 15 00 00 00
	00		 mov	 edx, DWORD PTR ?__LINE__Var@?0??show_briefing_page@@YGXPAUENTITY@@H@Z@4JA
  013a8	81 c2 40 01 00
	00		 add	 edx, 320		; 00000140H
  013ae	52		 push	 edx
  013af	68 00 00 00 00	 push	 OFFSET ??_C@_0EP@NKGPCHE@c?3?2users?2nhv90?2projects?2eech?2ap@
  013b4	a1 00 00 00 00	 mov	 eax, DWORD PTR ?null_entity_pointer_message@@3PBDB ; null_entity_pointer_message
  013b9	50		 push	 eax
  013ba	e8 00 00 00 00	 call	 ?process_assert@@YGXPBD0H@Z ; process_assert
  013bf	c7 85 64 ff ff
	ff 00 00 00 00	 mov	 DWORD PTR tv855[ebp], 0
$LN135@show_brief:
  013c9	b9 01 00 00 00	 mov	 ecx, 1
  013ce	85 c9		 test	 ecx, ecx
  013d0	74 0c		 je	 SHORT $LN136@show_brief
  013d2	c7 85 60 ff ff
	ff b3 00 00 00	 mov	 DWORD PTR tv863[ebp], 179 ; 000000b3H
  013dc	eb 27		 jmp	 SHORT $LN137@show_brief
$LN136@show_brief:
  013de	8b 15 00 00 00
	00		 mov	 edx, DWORD PTR ?__LINE__Var@?0??show_briefing_page@@YGXPAUENTITY@@H@Z@4JA
  013e4	81 c2 40 01 00
	00		 add	 edx, 320		; 00000140H
  013ea	52		 push	 edx
  013eb	68 00 00 00 00	 push	 OFFSET ??_C@_0EP@NKGPCHE@c?3?2users?2nhv90?2projects?2eech?2ap@
  013f0	a1 00 00 00 00	 mov	 eax, DWORD PTR ?overload_invalid_int_type_message@@3PBDB ; overload_invalid_int_type_message
  013f5	50		 push	 eax
  013f6	e8 00 00 00 00	 call	 ?process_assert@@YGXPBD0H@Z ; process_assert
  013fb	c7 85 60 ff ff
	ff 00 00 00 00	 mov	 DWORD PTR tv863[ebp], 0
$LN137@show_brief:
  01405	68 b3 00 00 00	 push	 179			; 000000b3H
  0140a	8b 4d 08	 mov	 ecx, DWORD PTR _mission$[ebp]
  0140d	51		 push	 ecx
  0140e	69 95 64 ff ff
	ff 5c 04 00 00	 imul	 edx, DWORD PTR tv855[ebp], 1116
  01418	8b 85 60 ff ff
	ff		 mov	 eax, DWORD PTR tv863[ebp]
  0141e	8b 8c 82 00 00
	00 00		 mov	 ecx, DWORD PTR ?fn_get_local_entity_int_value@@3PAY0BBH@P6GHPAUENTITY@@W4INT_TYPES@@@ZA[edx+eax*4]
  01425	ff d1		 call	 ecx
  01427	89 45 b4	 mov	 DWORD PTR _route_length$4[ebp], eax

; 447  : 
; 448  : 			if (route_nodes)

  0142a	83 7d bc 00	 cmp	 DWORD PTR _route_nodes$6[ebp], 0
  0142e	0f 84 84 00 00
	00		 je	 $LN11@show_brief

; 449  : 			{
; 450  : 				for (loop = 0; loop < route_length; loop ++)

  01434	c7 45 b8 00 00
	00 00		 mov	 DWORD PTR _loop$5[ebp], 0
  0143b	eb 09		 jmp	 SHORT $LN12@show_brief
$LN10@show_brief:
  0143d	8b 45 b8	 mov	 eax, DWORD PTR _loop$5[ebp]
  01440	83 c0 01	 add	 eax, 1
  01443	89 45 b8	 mov	 DWORD PTR _loop$5[ebp], eax
$LN12@show_brief:
  01446	8b 45 b8	 mov	 eax, DWORD PTR _loop$5[ebp]
  01449	3b 45 b4	 cmp	 eax, DWORD PTR _route_length$4[ebp]
  0144c	7d 6a		 jge	 SHORT $LN11@show_brief

; 451  : 				{
; 452  : 					pos = &route_nodes [loop];

  0144e	6b 45 b8 0c	 imul	 eax, DWORD PTR _loop$5[ebp], 12
  01452	03 45 bc	 add	 eax, DWORD PTR _route_nodes$6[ebp]
  01455	89 45 c8	 mov	 DWORD PTR _pos$9[ebp], eax

; 453  : 
; 454  : 					min_pos.x = min (min_pos.x, pos->x);

  01458	8b 45 c8	 mov	 eax, DWORD PTR _pos$9[ebp]
  0145b	50		 push	 eax
  0145c	8d 4d d8	 lea	 ecx, DWORD PTR _min_pos$11[ebp]
  0145f	51		 push	 ecx
  01460	e8 00 00 00 00	 call	 ??$min@M@std@@YGABMABM0@Z ; std::min<float>
  01465	f3 0f 10 00	 movss	 xmm0, DWORD PTR [eax]
  01469	f3 0f 11 45 d8	 movss	 DWORD PTR _min_pos$11[ebp], xmm0

; 455  : 					min_pos.z = min (min_pos.z, pos->z);

  0146e	8b 45 c8	 mov	 eax, DWORD PTR _pos$9[ebp]
  01471	83 c0 08	 add	 eax, 8
  01474	50		 push	 eax
  01475	8d 4d e0	 lea	 ecx, DWORD PTR _min_pos$11[ebp+8]
  01478	51		 push	 ecx
  01479	e8 00 00 00 00	 call	 ??$min@M@std@@YGABMABM0@Z ; std::min<float>
  0147e	f3 0f 10 00	 movss	 xmm0, DWORD PTR [eax]
  01482	f3 0f 11 45 e0	 movss	 DWORD PTR _min_pos$11[ebp+8], xmm0

; 456  : 
; 457  : 					max_pos.x = max (max_pos.x, pos->x);

  01487	8b 45 c8	 mov	 eax, DWORD PTR _pos$9[ebp]
  0148a	50		 push	 eax
  0148b	8d 4d cc	 lea	 ecx, DWORD PTR _max_pos$10[ebp]
  0148e	51		 push	 ecx
  0148f	e8 00 00 00 00	 call	 ??$max@M@std@@YGABMABM0@Z ; std::max<float>
  01494	f3 0f 10 00	 movss	 xmm0, DWORD PTR [eax]
  01498	f3 0f 11 45 cc	 movss	 DWORD PTR _max_pos$10[ebp], xmm0

; 458  : 					max_pos.z = max (max_pos.z, pos->z);

  0149d	8b 45 c8	 mov	 eax, DWORD PTR _pos$9[ebp]
  014a0	83 c0 08	 add	 eax, 8
  014a3	50		 push	 eax
  014a4	8d 4d d4	 lea	 ecx, DWORD PTR _max_pos$10[ebp+8]
  014a7	51		 push	 ecx
  014a8	e8 00 00 00 00	 call	 ??$max@M@std@@YGABMABM0@Z ; std::max<float>
  014ad	f3 0f 10 00	 movss	 xmm0, DWORD PTR [eax]
  014b1	f3 0f 11 45 d4	 movss	 DWORD PTR _max_pos$10[ebp+8], xmm0

; 459  : 				}

  014b6	eb 85		 jmp	 SHORT $LN10@show_brief
$LN11@show_brief:

; 460  : 			}				
; 461  : 		}
; 462  : 
; 463  : 		page_map_dimensions.x = (min_pos.x + max_pos.x) * 0.5;

  014b8	f3 0f 10 45 d8	 movss	 xmm0, DWORD PTR _min_pos$11[ebp]
  014bd	f3 0f 58 45 cc	 addss	 xmm0, DWORD PTR _max_pos$10[ebp]
  014c2	f3 0f 5a c0	 cvtss2sd xmm0, xmm0
  014c6	f2 0f 59 05 00
	00 00 00	 mulsd	 xmm0, QWORD PTR __real@3fe0000000000000
  014ce	f2 0f 5a c0	 cvtsd2ss xmm0, xmm0
  014d2	f3 0f 11 05 00
	00 00 00	 movss	 DWORD PTR ?page_map_dimensions@@3UMAP_DIMENSION_TYPE@@A, xmm0

; 464  : 		page_map_dimensions.z = (min_pos.z + max_pos.z) * 0.5;

  014da	f3 0f 10 45 e0	 movss	 xmm0, DWORD PTR _min_pos$11[ebp+8]
  014df	f3 0f 58 45 d4	 addss	 xmm0, DWORD PTR _max_pos$10[ebp+8]
  014e4	f3 0f 5a c0	 cvtss2sd xmm0, xmm0
  014e8	f2 0f 59 05 00
	00 00 00	 mulsd	 xmm0, QWORD PTR __real@3fe0000000000000
  014f0	f2 0f 5a c0	 cvtsd2ss xmm0, xmm0
  014f4	f3 0f 11 05 04
	00 00 00	 movss	 DWORD PTR ?page_map_dimensions@@3UMAP_DIMENSION_TYPE@@A+4, xmm0

; 465  : 
; 466  : 		page_map_dimensions.size = max ((max_pos.x - min_pos.x), (max_pos.z - min_pos.z));

  014fc	f3 0f 10 45 d4	 movss	 xmm0, DWORD PTR _max_pos$10[ebp+8]
  01501	f3 0f 5c 45 e0	 subss	 xmm0, DWORD PTR _min_pos$11[ebp+8]
  01506	f3 0f 11 85 70
	ff ff ff	 movss	 DWORD PTR $T3[ebp], xmm0
  0150e	f3 0f 10 45 cc	 movss	 xmm0, DWORD PTR _max_pos$10[ebp]
  01513	f3 0f 5c 45 d8	 subss	 xmm0, DWORD PTR _min_pos$11[ebp]
  01518	f3 0f 11 85 6c
	ff ff ff	 movss	 DWORD PTR $T2[ebp], xmm0
  01520	8d 85 70 ff ff
	ff		 lea	 eax, DWORD PTR $T3[ebp]
  01526	50		 push	 eax
  01527	8d 8d 6c ff ff
	ff		 lea	 ecx, DWORD PTR $T2[ebp]
  0152d	51		 push	 ecx
  0152e	e8 00 00 00 00	 call	 ??$max@M@std@@YGABMABM0@Z ; std::max<float>
  01533	f3 0f 10 00	 movss	 xmm0, DWORD PTR [eax]
  01537	f3 0f 11 05 08
	00 00 00	 movss	 DWORD PTR ?page_map_dimensions@@3UMAP_DIMENSION_TYPE@@A+8, xmm0

; 467  : 
; 468  : 		page_map_dimensions.size *= 1.2;

  0153f	f3 0f 5a 05 08
	00 00 00	 cvtss2sd xmm0, DWORD PTR ?page_map_dimensions@@3UMAP_DIMENSION_TYPE@@A+8
  01547	f2 0f 59 05 00
	00 00 00	 mulsd	 xmm0, QWORD PTR __real@3ff3333333333333
  0154f	f2 0f 5a c0	 cvtsd2ss xmm0, xmm0
  01553	f3 0f 11 05 08
	00 00 00	 movss	 DWORD PTR ?page_map_dimensions@@3UMAP_DIMENSION_TYPE@@A+8, xmm0

; 469  : 
; 470  : 		page_map_dimensions.size = max (page_map_dimensions.size, 4.0f * KILOMETRE);

  0155b	f3 0f 10 05 00
	00 00 00	 movss	 xmm0, DWORD PTR __real@457a0000
  01563	f3 0f 11 85 68
	ff ff ff	 movss	 DWORD PTR $T1[ebp], xmm0
  0156b	8d 85 68 ff ff
	ff		 lea	 eax, DWORD PTR $T1[ebp]
  01571	50		 push	 eax
  01572	68 08 00 00 00	 push	 OFFSET ?page_map_dimensions@@3UMAP_DIMENSION_TYPE@@A+8
  01577	e8 00 00 00 00	 call	 ??$max@M@std@@YGABMABM0@Z ; std::max<float>
  0157c	f3 0f 10 00	 movss	 xmm0, DWORD PTR [eax]
  01580	f3 0f 11 05 08
	00 00 00	 movss	 DWORD PTR ?page_map_dimensions@@3UMAP_DIMENSION_TYPE@@A+8, xmm0

; 471  : 
; 472  : 		page_map_dimensions.subject_entity = mission;

  01588	8b 45 08	 mov	 eax, DWORD PTR _mission$[ebp]
  0158b	a3 44 00 00 00	 mov	 DWORD PTR ?page_map_dimensions@@3UMAP_DIMENSION_TYPE@@A+68, eax
$LN37@show_brief:

; 473  : 	}
; 474  : 	
; 475  : 	//
; 476  : 	// Accept Button
; 477  : 	//
; 478  : 
; 479  : 	if (get_local_entity_int_value (get_session_entity (), INT_TYPE_SESSION_COMPLETE))

  01590	83 3d 00 00 00
	00 00		 cmp	 DWORD PTR ?session_entity@@3PAUENTITY@@A, 0 ; session_entity
  01597	74 0f		 je	 SHORT $LN138@show_brief
  01599	a1 00 00 00 00	 mov	 eax, DWORD PTR ?session_entity@@3PAUENTITY@@A ; session_entity
  0159e	8b 08		 mov	 ecx, DWORD PTR [eax]
  015a0	89 8d 64 ff ff
	ff		 mov	 DWORD PTR tv916[ebp], ecx
  015a6	eb 20		 jmp	 SHORT $LN139@show_brief
$LN138@show_brief:
  015a8	68 df 01 00 00	 push	 479			; 000001dfH
  015ad	68 00 00 00 00	 push	 OFFSET ??_C@_0EP@NKGPCHE@c?3?2users?2nhv90?2projects?2eech?2ap@
  015b2	8b 15 00 00 00
	00		 mov	 edx, DWORD PTR ?null_entity_pointer_message@@3PBDB ; null_entity_pointer_message
  015b8	52		 push	 edx
  015b9	e8 00 00 00 00	 call	 ?process_assert@@YGXPBD0H@Z ; process_assert
  015be	c7 85 64 ff ff
	ff 00 00 00 00	 mov	 DWORD PTR tv916[ebp], 0
$LN139@show_brief:
  015c8	b8 01 00 00 00	 mov	 eax, 1
  015cd	85 c0		 test	 eax, eax
  015cf	74 0c		 je	 SHORT $LN140@show_brief
  015d1	c7 85 60 ff ff
	ff ba 00 00 00	 mov	 DWORD PTR tv923[ebp], 186 ; 000000baH
  015db	eb 20		 jmp	 SHORT $LN141@show_brief
$LN140@show_brief:
  015dd	68 df 01 00 00	 push	 479			; 000001dfH
  015e2	68 00 00 00 00	 push	 OFFSET ??_C@_0EP@NKGPCHE@c?3?2users?2nhv90?2projects?2eech?2ap@
  015e7	8b 0d 00 00 00
	00		 mov	 ecx, DWORD PTR ?overload_invalid_int_type_message@@3PBDB ; overload_invalid_int_type_message
  015ed	51		 push	 ecx
  015ee	e8 00 00 00 00	 call	 ?process_assert@@YGXPBD0H@Z ; process_assert
  015f3	c7 85 60 ff ff
	ff 00 00 00 00	 mov	 DWORD PTR tv923[ebp], 0
$LN141@show_brief:
  015fd	68 ba 00 00 00	 push	 186			; 000000baH
  01602	8b 15 00 00 00
	00		 mov	 edx, DWORD PTR ?session_entity@@3PAUENTITY@@A ; session_entity
  01608	52		 push	 edx
  01609	69 85 64 ff ff
	ff 5c 04 00 00	 imul	 eax, DWORD PTR tv916[ebp], 1116
  01613	8b 8d 60 ff ff
	ff		 mov	 ecx, DWORD PTR tv923[ebp]
  01619	8b 94 88 00 00
	00 00		 mov	 edx, DWORD PTR ?fn_get_local_entity_int_value@@3PAY0BBH@P6GHPAUENTITY@@W4INT_TYPES@@@ZA[eax+ecx*4]
  01620	ff d2		 call	 edx
  01622	85 c0		 test	 eax, eax
  01624	74 1b		 je	 SHORT $LN41@show_brief

; 480  : 	{
; 481  : 		set_ui_object_drawable (mission_accept_button, FALSE); 

  01626	6a 00		 push	 0
  01628	a1 00 00 00 00	 mov	 eax, DWORD PTR ?mission_accept_button@@3PAUUI_OBJECT@@A ; mission_accept_button
  0162d	50		 push	 eax
  0162e	8b 0d 00 00 00
	00		 mov	 ecx, DWORD PTR ?mission_accept_button@@3PAUUI_OBJECT@@A ; mission_accept_button
  01634	8b 11		 mov	 edx, DWORD PTR [ecx]
  01636	8b 04 95 00 00
	00 00		 mov	 eax, DWORD PTR ?fn_set_ui_object_drawable@@3PAP6GXPAUUI_OBJECT@@H@ZA[edx*4]
  0163d	ff d0		 call	 eax

; 482  : 	}
; 483  : 	else

  0163f	eb 22		 jmp	 SHORT $LN42@show_brief
$LN41@show_brief:

; 484  : 	{
; 485  : 		set_ui_object_drawable (mission_accept_button, get_mission_player_suitability_status (mission));

  01641	8b 45 08	 mov	 eax, DWORD PTR _mission$[ebp]
  01644	50		 push	 eax
  01645	e8 00 00 00 00	 call	 ?get_mission_player_suitability_status@@YGHPAUENTITY@@@Z ; get_mission_player_suitability_status
  0164a	50		 push	 eax
  0164b	8b 0d 00 00 00
	00		 mov	 ecx, DWORD PTR ?mission_accept_button@@3PAUUI_OBJECT@@A ; mission_accept_button
  01651	51		 push	 ecx
  01652	8b 15 00 00 00
	00		 mov	 edx, DWORD PTR ?mission_accept_button@@3PAUUI_OBJECT@@A ; mission_accept_button
  01658	8b 02		 mov	 eax, DWORD PTR [edx]
  0165a	8b 0c 85 00 00
	00 00		 mov	 ecx, DWORD PTR ?fn_set_ui_object_drawable@@3PAP6GXPAUUI_OBJECT@@H@ZA[eax*4]
  01661	ff d1		 call	 ecx
$LN42@show_brief:

; 486  : 	}
; 487  : 
; 488  : 	display_campaign_page (CAMPAIGN_PAGE_BRIEFING, get_local_entity_index (mission), TRUE);

  01663	6a 01		 push	 1
  01665	8b 45 08	 mov	 eax, DWORD PTR _mission$[ebp]
  01668	2b 05 00 00 00
	00		 sub	 eax, DWORD PTR ?entities@@3PAUENTITY@@A ; entities
  0166e	c1 f8 04	 sar	 eax, 4
  01671	50		 push	 eax
  01672	6a 01		 push	 1
  01674	e8 00 00 00 00	 call	 ?display_campaign_page@@YGXW4CAMPAIGN_PAGES@@HH@Z ; display_campaign_page

; 489  : }

  01679	5f		 pop	 edi
  0167a	5e		 pop	 esi
  0167b	5b		 pop	 ebx
  0167c	8b e5		 mov	 esp, ebp
  0167e	5d		 pop	 ebp
  0167f	c2 08 00	 ret	 8
?show_briefing_page@@YGXPAUENTITY@@H@Z ENDP		; show_briefing_page
_TEXT	ENDS
; Function compile flags: /Odtp /ZI
; File c:\program files (x86)\microsoft visual studio\2017\community\vc\tools\msvc\14.16.27023\include\cmath
;	COMDAT ?atan2@@YGMMM@Z
_TEXT	SEGMENT
__Yx$ = 8						; size = 4
__Xx$ = 12						; size = 4
?atan2@@YGMMM@Z PROC					; atan2, COMDAT

; 56   : 	{

  00000	55		 push	 ebp
  00001	8b ec		 mov	 ebp, esp
  00003	83 ec 40	 sub	 esp, 64			; 00000040H
  00006	53		 push	 ebx
  00007	56		 push	 esi
  00008	57		 push	 edi

; 57   : 	return (_CSTD atan2f(_Yx, _Xx));

  00009	51		 push	 ecx
  0000a	f3 0f 10 45 0c	 movss	 xmm0, DWORD PTR __Xx$[ebp]
  0000f	f3 0f 11 04 24	 movss	 DWORD PTR [esp], xmm0
  00014	51		 push	 ecx
  00015	f3 0f 10 45 08	 movss	 xmm0, DWORD PTR __Yx$[ebp]
  0001a	f3 0f 11 04 24	 movss	 DWORD PTR [esp], xmm0
  0001f	e8 00 00 00 00	 call	 _atan2f
  00024	83 c4 08	 add	 esp, 8

; 58   : 	}

  00027	5f		 pop	 edi
  00028	5e		 pop	 esi
  00029	5b		 pop	 ebx
  0002a	8b e5		 mov	 esp, ebp
  0002c	5d		 pop	 ebp
  0002d	c2 08 00	 ret	 8
?atan2@@YGMMM@Z ENDP					; atan2
_TEXT	ENDS
; Function compile flags: /Odtp /ZI
; File c:\program files (x86)\windows kits\10\include\10.0.18362.0\ucrt\corecrt_math.h
;	COMDAT _atan2f
_TEXT	SEGMENT
tv74 = -68						; size = 4
__Y$ = 8						; size = 4
__X$ = 12						; size = 4
_atan2f	PROC						; COMDAT

; 633  :         {

  00000	55		 push	 ebp
  00001	8b ec		 mov	 ebp, esp
  00003	83 ec 44	 sub	 esp, 68			; 00000044H
  00006	53		 push	 ebx
  00007	56		 push	 esi
  00008	57		 push	 edi

; 634  :             return (float)atan2(_Y, _X);

  00009	f3 0f 5a 45 0c	 cvtss2sd xmm0, DWORD PTR __X$[ebp]
  0000e	83 ec 08	 sub	 esp, 8
  00011	f2 0f 11 04 24	 movsd	 QWORD PTR [esp], xmm0
  00016	f3 0f 5a 45 08	 cvtss2sd xmm0, DWORD PTR __Y$[ebp]
  0001b	83 ec 08	 sub	 esp, 8
  0001e	f2 0f 11 04 24	 movsd	 QWORD PTR [esp], xmm0
  00023	e8 00 00 00 00	 call	 _atan2
  00028	83 c4 10	 add	 esp, 16			; 00000010H
  0002b	d9 5d bc	 fstp	 DWORD PTR tv74[ebp]
  0002e	d9 45 bc	 fld	 DWORD PTR tv74[ebp]

; 635  :         }

  00031	5f		 pop	 edi
  00032	5e		 pop	 esi
  00033	5b		 pop	 ebx
  00034	8b e5		 mov	 esp, ebp
  00036	5d		 pop	 ebp
  00037	c3		 ret	 0
_atan2f	ENDP
_TEXT	ENDS
; Function compile flags: /Odtp /ZI
; File c:\program files (x86)\windows kits\10\include\10.0.18362.0\ucrt\stdio.h
;	COMDAT _sprintf
_TEXT	SEGMENT
__ArgList$ = -8						; size = 4
__Result$ = -4						; size = 4
__Buffer$ = 8						; size = 4
__Format$ = 12						; size = 4
_sprintf PROC						; COMDAT

; 1781 :     {

  00000	55		 push	 ebp
  00001	8b ec		 mov	 ebp, esp
  00003	83 ec 4c	 sub	 esp, 76			; 0000004cH
  00006	53		 push	 ebx
  00007	56		 push	 esi
  00008	57		 push	 edi

; 1782 :         int _Result;
; 1783 :         va_list _ArgList;
; 1784 :         __crt_va_start(_ArgList, _Format);

  00009	8d 45 10	 lea	 eax, DWORD PTR __Format$[ebp+4]
  0000c	89 45 f8	 mov	 DWORD PTR __ArgList$[ebp], eax

; 1785 : 
; 1786 :         #pragma warning(push)
; 1787 :         #pragma warning(disable: 4996) // Deprecation
; 1788 :         _Result = _vsprintf_l(_Buffer, _Format, NULL, _ArgList);

  0000f	8b 45 f8	 mov	 eax, DWORD PTR __ArgList$[ebp]
  00012	50		 push	 eax
  00013	6a 00		 push	 0
  00015	8b 4d 0c	 mov	 ecx, DWORD PTR __Format$[ebp]
  00018	51		 push	 ecx
  00019	8b 55 08	 mov	 edx, DWORD PTR __Buffer$[ebp]
  0001c	52		 push	 edx
  0001d	e8 00 00 00 00	 call	 __vsprintf_l
  00022	83 c4 10	 add	 esp, 16			; 00000010H
  00025	89 45 fc	 mov	 DWORD PTR __Result$[ebp], eax

; 1789 :         #pragma warning(pop)
; 1790 : 
; 1791 :         __crt_va_end(_ArgList);

  00028	c7 45 f8 00 00
	00 00		 mov	 DWORD PTR __ArgList$[ebp], 0

; 1792 :         return _Result;

  0002f	8b 45 fc	 mov	 eax, DWORD PTR __Result$[ebp]

; 1793 :     }

  00032	5f		 pop	 edi
  00033	5e		 pop	 esi
  00034	5b		 pop	 ebx
  00035	8b e5		 mov	 esp, ebp
  00037	5d		 pop	 ebp
  00038	c3		 ret	 0
_sprintf ENDP
_TEXT	ENDS
; Function compile flags: /Odtp /ZI
; File c:\program files (x86)\windows kits\10\include\10.0.18362.0\ucrt\stdio.h
;	COMDAT __vsprintf_l
_TEXT	SEGMENT
__Buffer$ = 8						; size = 4
__Format$ = 12						; size = 4
__Locale$ = 16						; size = 4
__ArgList$ = 20						; size = 4
__vsprintf_l PROC					; COMDAT

; 1459 :     {

  00000	55		 push	 ebp
  00001	8b ec		 mov	 ebp, esp
  00003	83 ec 40	 sub	 esp, 64			; 00000040H
  00006	53		 push	 ebx
  00007	56		 push	 esi
  00008	57		 push	 edi

; 1460 :         #pragma warning(push)
; 1461 :         #pragma warning(disable: 4996) // Deprecation
; 1462 :         return _vsnprintf_l(_Buffer, (size_t)-1, _Format, _Locale, _ArgList);

  00009	8b 45 14	 mov	 eax, DWORD PTR __ArgList$[ebp]
  0000c	50		 push	 eax
  0000d	8b 4d 10	 mov	 ecx, DWORD PTR __Locale$[ebp]
  00010	51		 push	 ecx
  00011	8b 55 0c	 mov	 edx, DWORD PTR __Format$[ebp]
  00014	52		 push	 edx
  00015	6a ff		 push	 -1
  00017	8b 45 08	 mov	 eax, DWORD PTR __Buffer$[ebp]
  0001a	50		 push	 eax
  0001b	e8 00 00 00 00	 call	 __vsnprintf_l
  00020	83 c4 14	 add	 esp, 20			; 00000014H

; 1463 :         #pragma warning(pop)
; 1464 :     }

  00023	5f		 pop	 edi
  00024	5e		 pop	 esi
  00025	5b		 pop	 ebx
  00026	8b e5		 mov	 esp, ebp
  00028	5d		 pop	 ebp
  00029	c3		 ret	 0
__vsprintf_l ENDP
_TEXT	ENDS
; Function compile flags: /Odtp /ZI
; File c:\program files (x86)\windows kits\10\include\10.0.18362.0\ucrt\stdio.h
;	COMDAT __vsnprintf_l
_TEXT	SEGMENT
tv74 = -72						; size = 4
__Result$ = -4						; size = 4
__Buffer$ = 8						; size = 4
__BufferCount$ = 12					; size = 4
__Format$ = 16						; size = 4
__Locale$ = 20						; size = 4
__ArgList$ = 24						; size = 4
__vsnprintf_l PROC					; COMDAT

; 1389 :     {

  00000	55		 push	 ebp
  00001	8b ec		 mov	 ebp, esp
  00003	83 ec 48	 sub	 esp, 72			; 00000048H
  00006	53		 push	 ebx
  00007	56		 push	 esi
  00008	57		 push	 edi

; 1390 :         int const _Result = __stdio_common_vsprintf(

  00009	8b 45 18	 mov	 eax, DWORD PTR __ArgList$[ebp]
  0000c	50		 push	 eax
  0000d	8b 4d 14	 mov	 ecx, DWORD PTR __Locale$[ebp]
  00010	51		 push	 ecx
  00011	8b 55 10	 mov	 edx, DWORD PTR __Format$[ebp]
  00014	52		 push	 edx
  00015	8b 45 0c	 mov	 eax, DWORD PTR __BufferCount$[ebp]
  00018	50		 push	 eax
  00019	8b 4d 08	 mov	 ecx, DWORD PTR __Buffer$[ebp]
  0001c	51		 push	 ecx
  0001d	e8 00 00 00 00	 call	 ___local_stdio_printf_options
  00022	8b 10		 mov	 edx, DWORD PTR [eax]
  00024	83 ca 01	 or	 edx, 1
  00027	8b 40 04	 mov	 eax, DWORD PTR [eax+4]
  0002a	50		 push	 eax
  0002b	52		 push	 edx
  0002c	ff 15 00 00 00
	00		 call	 DWORD PTR __imp____stdio_common_vsprintf
  00032	83 c4 1c	 add	 esp, 28			; 0000001cH
  00035	89 45 fc	 mov	 DWORD PTR __Result$[ebp], eax

; 1391 :             _CRT_INTERNAL_LOCAL_PRINTF_OPTIONS | _CRT_INTERNAL_PRINTF_LEGACY_VSPRINTF_NULL_TERMINATION,
; 1392 :             _Buffer, _BufferCount, _Format, _Locale, _ArgList);
; 1393 : 
; 1394 :         return _Result < 0 ? -1 : _Result;

  00038	83 7d fc 00	 cmp	 DWORD PTR __Result$[ebp], 0
  0003c	7d 09		 jge	 SHORT $LN3@vsnprintf_
  0003e	c7 45 b8 ff ff
	ff ff		 mov	 DWORD PTR tv74[ebp], -1
  00045	eb 06		 jmp	 SHORT $LN4@vsnprintf_
$LN3@vsnprintf_:
  00047	8b 45 fc	 mov	 eax, DWORD PTR __Result$[ebp]
  0004a	89 45 b8	 mov	 DWORD PTR tv74[ebp], eax
$LN4@vsnprintf_:
  0004d	8b 45 b8	 mov	 eax, DWORD PTR tv74[ebp]

; 1395 :     }

  00050	5f		 pop	 edi
  00051	5e		 pop	 esi
  00052	5b		 pop	 ebx
  00053	8b e5		 mov	 esp, ebp
  00055	5d		 pop	 ebp
  00056	c3		 ret	 0
__vsnprintf_l ENDP
_TEXT	ENDS
; Function compile flags: /Odtp /ZI
; File c:\program files (x86)\windows kits\10\include\10.0.18362.0\ucrt\corecrt_stdio_config.h
;	COMDAT ___local_stdio_printf_options
_TEXT	SEGMENT
___local_stdio_printf_options PROC			; COMDAT

; 86   :     {

  00000	55		 push	 ebp
  00001	8b ec		 mov	 ebp, esp
  00003	83 ec 40	 sub	 esp, 64			; 00000040H
  00006	53		 push	 ebx
  00007	56		 push	 esi
  00008	57		 push	 edi

; 87   :         static unsigned __int64 _OptionsStorage;
; 88   :         return &_OptionsStorage;

  00009	b8 00 00 00 00	 mov	 eax, OFFSET ?_OptionsStorage@?1??__local_stdio_printf_options@@9@4_KA ; `__local_stdio_printf_options'::`2'::_OptionsStorage

; 89   :     }

  0000e	5f		 pop	 edi
  0000f	5e		 pop	 esi
  00010	5b		 pop	 ebx
  00011	8b e5		 mov	 esp, ebp
  00013	5d		 pop	 ebp
  00014	c3		 ret	 0
___local_stdio_printf_options ENDP
_TEXT	ENDS
END
