; Listing generated by Microsoft (R) Optimizing Compiler Version 19.16.27045.0 

	TITLE	C:\Users\nhv90\Projects\eech\aphavoc\source\ui_menu\ingame\campaign\ca_chat.c
	.686P
	.XMM
	include listing.inc
	.model	flat

INCLUDELIB MSVCRTD
INCLUDELIB OLDNAMES

PUBLIC	___local_stdio_printf_options
PUBLIC	__vsnprintf_l
PUBLIC	__vsprintf_l
PUBLIC	_sprintf
PUBLIC	?show_chat_page@@YGXPAUUI_OBJECT@@@Z		; show_chat_page
PUBLIC	?initialise_campaign_screen_chat_page_objects@@YGXXZ ; initialise_campaign_screen_chat_page_objects
PUBLIC	?campaign_screen_update_chat_page_pilot@@YGXPAUENTITY@@@Z ; campaign_screen_update_chat_page_pilot
PUBLIC	?define_campaign_screen_chat_page_objects@@YGXXZ ; define_campaign_screen_chat_page_objects
PUBLIC	?overload_chat_page_message_responses@@YGXXZ	; overload_chat_page_message_responses
PUBLIC	?chat_enter_message_function@@YGXPAUUI_OBJECT@@PAX@Z ; chat_enter_message_function
PUBLIC	?notify_target_list@@YGXPAUUI_OBJECT@@PAX@Z	; notify_target_list
PUBLIC	?_OptionsStorage@?1??__local_stdio_printf_options@@9@4_KA ; `__local_stdio_printf_options'::`2'::_OptionsStorage
PUBLIC	??_C@_02DKCKIIND@?$CFs@				; `string'
PUBLIC	??_C@_00CNPNBAHC@@				; `string'
PUBLIC	?__LINE__Var@?0??build_chat_target_list@@YGXXZ@4JA ; `build_chat_target_list'::`1'::__LINE__Var
PUBLIC	??_C@_04FHBEPJGO@Side@				; `string'
PUBLIC	??_C@_0EO@PIJCMGCK@c?3?2users?2nhv90?2projects?2eech?2ap@ ; `string'
PUBLIC	??_C@_0BG@EFCJJKAA@get_session_entity?5?$CI?$CJ@ ; `string'
PUBLIC	??_C@_0BA@LBICKMKJ@CHAT_TARGET_ALL@		; `string'
PUBLIC	??_C@_09BCKKEJHI@UI_PILOTS@			; `string'
PUBLIC	?__LINE__Var@?0??draw_chat_send_button@@YGXPAUUI_OBJECT@@PAX@Z@4JA ; `draw_chat_send_button'::`1'::__LINE__Var
PUBLIC	??_C@_07HDAAGBGA@SEND?5TO@			; `string'
PUBLIC	??_C@_04PFAOODAA@?$CFs?3?5@			; `string'
PUBLIC	?__LINE__Var@?0??add_message_to_campaign_log@@YGHH@Z@4JA ; `add_message_to_campaign_log'::`1'::__LINE__Var
PUBLIC	??_C@_07ONPBMBOP@message@			; `string'
PUBLIC	??_C@_0P@OKCGHNEC@?$FL?$CF02d?3?$CF02d?$FN?5?$CFs@ ; `string'
PUBLIC	??_C@_03HNOLNALI@col@				; `string'
PUBLIC	??_C@_0CF@EAEMPPNH@graphics?2ui?2cohokum?2map?2chattab@ ; `string'
PUBLIC	??_C@_0M@DPBEHEC@Destination@			; `string'
PUBLIC	??_C@_08LGLLKGLO@Messages@			; `string'
PUBLIC	??_C@_0O@OHJDBNJC@Enter?5Message@		; `string'
PUBLIC	??_C@_03DKEJHHJP@?$CFs?3@			; `string'
PUBLIC	??_C@_0CD@FGMPEBM@graphics?2ui?2cohokum?2map?2msgbar?4@ ; `string'
PUBLIC	??_C@_0CE@FHAIKPDG@graphics?2ui?2cohokum?2map?2sendbtn@ ; `string'
PUBLIC	??_C@_07JGDIGAGD@UI_SEND@			; `string'
PUBLIC	__real@3cb43958
PUBLIC	__real@3d23d70a
PUBLIC	__real@3d449ba6
PUBLIC	__real@3d6978d5
PUBLIC	__real@3d8b4396
PUBLIC	__real@3dcccccd
PUBLIC	__real@3ddf3b64
PUBLIC	__real@3dfbe76d
PUBLIC	__real@3e083127
PUBLIC	__real@3e1ba5e3
PUBLIC	__real@3e23d70a
PUBLIC	__real@3e6147ae
PUBLIC	__real@3e70a3d7
PUBLIC	__real@3e800000
PUBLIC	__real@3f000000
PUBLIC	__real@3f008312
PUBLIC	__real@3f200000
PUBLIC	__real@3f24dd2f
PUBLIC	__real@3f2ac083
PUBLIC	__real@3f3851ec
PUBLIC	__real@3f418937
PUBLIC	__real@3f43126f
PUBLIC	__real@3f4353f8
PUBLIC	__real@3f47ae14
PUBLIC	__real@3f558106
PUBLIC	__real@3f604189
PUBLIC	__real@3f624dd3
PUBLIC	__real@3f6e5604
PUBLIC	__real@3f733333
PUBLIC	__real@3f789375
PUBLIC	__real@3f800000
PUBLIC	__real@4028000000000000
PUBLIC	__real@4072c00000000000
EXTRN	__imp____stdio_common_vsprintf:PROC
EXTRN	_strcat:PROC
EXTRN	_strlen:PROC
EXTRN	?process_assert@@YGXPBD0H@Z:PROC		; process_assert
EXTRN	?malloc_fast_memory@@YGPAXI@Z:PROC		; malloc_fast_memory
EXTRN	?free_mem@@YGXPAX@Z:PROC			; free_mem
EXTRN	?create_texture_graphic@@YGPAUTEXTURE_GRAPHIC@@PBD@Z:PROC ; create_texture_graphic
EXTRN	?create_ui_object@@YAPAUUI_OBJECT@@HZZ:PROC	; create_ui_object
EXTRN	?ui_object_destroy_list_items@@YGXPAUUI_OBJECT@@@Z:PROC ; ui_object_destroy_list_items
EXTRN	?add_to_pop_up_list@@YGPAUUI_OBJECT@@PBDPAU1@1HHUREAL_COLOUR@@@Z:PROC ; add_to_pop_up_list
EXTRN	?resize_pop_up_list@@YGXPAUUI_OBJECT@@@Z:PROC	; resize_pop_up_list
EXTRN	?get_message_log@@YGPAUMESSAGE_LOG_TYPE@@H@Z:PROC ; get_message_log
EXTRN	?get_message_log_number_of_messages@@YGHXZ:PROC	; get_message_log_number_of_messages
EXTRN	?send_text_message@@YGXPAUENTITY@@0W4MESSAGE_TEXT_TYPES@@PBD@Z:PROC ; send_text_message
EXTRN	?get_digital_clock_int_values@@YGXMPAH00@Z:PROC	; get_digital_clock_int_values
EXTRN	?get_trans@@YGPBDPBD@Z:PROC			; get_trans
EXTRN	?set_ingame_ui_object_mouse_over_properties@@YGXPAUUI_OBJECT@@@Z:PROC ; set_ingame_ui_object_mouse_over_properties
EXTRN	?set_common_slider_graphics@@YGXPAUUI_OBJECT@@@Z:PROC ; set_common_slider_graphics
EXTRN	?display_campaign_page@@YGXW4CAMPAIGN_PAGES@@HH@Z:PROC ; display_campaign_page
EXTRN	?get_campaign_history_valid@@YGHXZ:PROC		; get_campaign_history_valid
EXTRN	?define_campaign_page_back_button@@YGXPAUUI_OBJECT@@PAPAU1@@Z:PROC ; define_campaign_page_back_button
EXTRN	?fn_set_ui_object_state@@3PAP6GXPAUUI_OBJECT@@H@ZA:BYTE ; fn_set_ui_object_state
EXTRN	?fn_set_ui_object_drawable@@3PAP6GXPAUUI_OBJECT@@H@ZA:BYTE ; fn_set_ui_object_drawable
EXTRN	?fn_set_ui_object_item_number@@3PAP6GXPAUUI_OBJECT@@H@ZA:BYTE ; fn_set_ui_object_item_number
EXTRN	?fn_get_ui_object_item_number@@3PAP6GHPAUUI_OBJECT@@@ZA:BYTE ; fn_get_ui_object_item_number
EXTRN	?fn_set_ui_object_highlightable@@3PAP6GXPAUUI_OBJECT@@H@ZA:BYTE ; fn_set_ui_object_highlightable
EXTRN	?fn_set_ui_object_notify_on@@3PAP6GXPAUUI_OBJECT@@W4NOTIFY_TYPES@@@ZA:BYTE ; fn_set_ui_object_notify_on
EXTRN	?fn_set_ui_object_text@@3PAP6GXPAUUI_OBJECT@@PBD@ZA:BYTE ; fn_set_ui_object_text
EXTRN	?fn_get_ui_object_text@@3PAP6GPBDPAUUI_OBJECT@@@ZA:BYTE ; fn_get_ui_object_text
EXTRN	?fn_set_ui_object_font_colour@@3PAP6GXPAUUI_OBJECT@@DDDD@ZA:BYTE ; fn_set_ui_object_font_colour
EXTRN	?ui_ingame_live_text_colour@@3UREAL_COLOUR@@A:DWORD ; ui_ingame_live_text_colour
EXTRN	?ui_ingame_dead_text_colour@@3UREAL_COLOUR@@A:DWORD ; ui_ingame_dead_text_colour
EXTRN	?ui_ingame_selected_text_colour@@3UREAL_COLOUR@@A:DWORD ; ui_ingame_selected_text_colour
EXTRN	?null_entity_pointer_message@@3PBDB:DWORD	; null_entity_pointer_message
EXTRN	?overload_invalid_list_type_message@@3PBDB:DWORD ; overload_invalid_list_type_message
EXTRN	?fn_get_local_entity_first_child@@3PAY0CN@P6GPAUENTITY@@PAU1@W4LIST_TYPES@@@ZA:BYTE ; fn_get_local_entity_first_child
EXTRN	?fn_get_local_entity_child_succ@@3PAY0CN@P6GPAUENTITY@@PAU1@W4LIST_TYPES@@@ZA:BYTE ; fn_get_local_entity_child_succ
EXTRN	?overload_invalid_string_type_message@@3PBDB:DWORD ; overload_invalid_string_type_message
EXTRN	?fn_get_local_entity_string@@3PAY0N@P6GPBDPAUENTITY@@W4STRING_TYPES@@@ZA:BYTE ; fn_get_local_entity_string
EXTRN	?entities@@3PAUENTITY@@A:DWORD			; entities
EXTRN	?pilot_entity@@3PAUENTITY@@A:DWORD		; pilot_entity
EXTRN	?session_entity@@3PAUENTITY@@A:DWORD		; session_entity
EXTRN	?common_divider_graphic@@3PAUTEXTURE_GRAPHIC@@A:DWORD ; common_divider_graphic
EXTRN	?campaign_screen@@3PAUUI_OBJECT@@A:DWORD	; campaign_screen
EXTRN	?campaign_page@@3PAPAUUI_OBJECT@@A:BYTE		; campaign_page
EXTRN	?campaign_screen_message_responses@@3PAY0O@P6GHW4CAMPAIGN_SCREEN_MESSAGES@@PAUENTITY@@@ZA:BYTE ; campaign_screen_message_responses
EXTRN	__fltused:DWORD
;	COMDAT ?_OptionsStorage@?1??__local_stdio_printf_options@@9@4_KA
_BSS	SEGMENT
?_OptionsStorage@?1??__local_stdio_printf_options@@9@4_KA DQ 01H DUP (?) ; `__local_stdio_printf_options'::`2'::_OptionsStorage
_BSS	ENDS
_BSS	SEGMENT
?chat_window_mode_area@@3PAUUI_OBJECT@@A DD 01H DUP (?)	; chat_window_mode_area
?chat_window_area@@3PAUUI_OBJECT@@A DD 01H DUP (?)	; chat_window_area
?chat_window_destination_button@@3PAUUI_OBJECT@@A DD 01H DUP (?) ; chat_window_destination_button
?chat_window_message_button@@3PAUUI_OBJECT@@A DD 01H DUP (?) ; chat_window_message_button
?chat_text_area@@3PAUUI_OBJECT@@A DD 01H DUP (?)	; chat_text_area
?chat_input@@3PAUUI_OBJECT@@A DD 01H DUP (?)		; chat_input
?chat_current_text@@3PAUUI_OBJECT@@A DD 01H DUP (?)	; chat_current_text
?chat_send_button@@3PAUUI_OBJECT@@A DD 01H DUP (?)	; chat_send_button
?chat_target_list_area@@3PAUUI_OBJECT@@A DD 01H DUP (?)	; chat_target_list_area
?chat_target_list@@3PAUUI_OBJECT@@A DD 01H DUP (?)	; chat_target_list
?chat_message_list_area@@3PAUUI_OBJECT@@A DD 01H DUP (?) ; chat_message_list_area
?chat_message_list@@3PAUUI_OBJECT@@A DD 01H DUP (?)	; chat_message_list
?page_back_button@@3PAUUI_OBJECT@@A DD 01H DUP (?)	; page_back_button
?s@?1??build_chat_target_list@@YGXXZ@4PADA DB 080H DUP (?) ; `build_chat_target_list'::`2'::s
?text@?1??draw_chat_send_button@@YGXPAUUI_OBJECT@@PAX@Z@4PBDB DD 01H DUP (?) ; `draw_chat_send_button'::`2'::text
?s@?1??draw_chat_send_button@@YGXPAUUI_OBJECT@@PAX@Z@4PADA DB 0100H DUP (?) ; `draw_chat_send_button'::`2'::s
_BSS	ENDS
;	COMDAT __real@4072c00000000000
CONST	SEGMENT
__real@4072c00000000000 DQ 04072c00000000000r	; 300
CONST	ENDS
;	COMDAT __real@4028000000000000
CONST	SEGMENT
__real@4028000000000000 DQ 04028000000000000r	; 12
CONST	ENDS
;	COMDAT __real@3f800000
CONST	SEGMENT
__real@3f800000 DD 03f800000r			; 1
CONST	ENDS
;	COMDAT __real@3f789375
CONST	SEGMENT
__real@3f789375 DD 03f789375r			; 0.971
CONST	ENDS
;	COMDAT __real@3f733333
CONST	SEGMENT
__real@3f733333 DD 03f733333r			; 0.95
CONST	ENDS
;	COMDAT __real@3f6e5604
CONST	SEGMENT
__real@3f6e5604 DD 03f6e5604r			; 0.931
CONST	ENDS
;	COMDAT __real@3f624dd3
CONST	SEGMENT
__real@3f624dd3 DD 03f624dd3r			; 0.884
CONST	ENDS
;	COMDAT __real@3f604189
CONST	SEGMENT
__real@3f604189 DD 03f604189r			; 0.876
CONST	ENDS
;	COMDAT __real@3f558106
CONST	SEGMENT
__real@3f558106 DD 03f558106r			; 0.834
CONST	ENDS
;	COMDAT __real@3f47ae14
CONST	SEGMENT
__real@3f47ae14 DD 03f47ae14r			; 0.78
CONST	ENDS
;	COMDAT __real@3f4353f8
CONST	SEGMENT
__real@3f4353f8 DD 03f4353f8r			; 0.763
CONST	ENDS
;	COMDAT __real@3f43126f
CONST	SEGMENT
__real@3f43126f DD 03f43126fr			; 0.762
CONST	ENDS
;	COMDAT __real@3f418937
CONST	SEGMENT
__real@3f418937 DD 03f418937r			; 0.756
CONST	ENDS
;	COMDAT __real@3f3851ec
CONST	SEGMENT
__real@3f3851ec DD 03f3851ecr			; 0.72
CONST	ENDS
;	COMDAT __real@3f2ac083
CONST	SEGMENT
__real@3f2ac083 DD 03f2ac083r			; 0.667
CONST	ENDS
;	COMDAT __real@3f24dd2f
CONST	SEGMENT
__real@3f24dd2f DD 03f24dd2fr			; 0.644
CONST	ENDS
;	COMDAT __real@3f200000
CONST	SEGMENT
__real@3f200000 DD 03f200000r			; 0.625
CONST	ENDS
;	COMDAT __real@3f008312
CONST	SEGMENT
__real@3f008312 DD 03f008312r			; 0.502
CONST	ENDS
;	COMDAT __real@3f000000
CONST	SEGMENT
__real@3f000000 DD 03f000000r			; 0.5
CONST	ENDS
;	COMDAT __real@3e800000
CONST	SEGMENT
__real@3e800000 DD 03e800000r			; 0.25
CONST	ENDS
;	COMDAT __real@3e70a3d7
CONST	SEGMENT
__real@3e70a3d7 DD 03e70a3d7r			; 0.235
CONST	ENDS
;	COMDAT __real@3e6147ae
CONST	SEGMENT
__real@3e6147ae DD 03e6147aer			; 0.22
CONST	ENDS
;	COMDAT __real@3e23d70a
CONST	SEGMENT
__real@3e23d70a DD 03e23d70ar			; 0.16
CONST	ENDS
;	COMDAT __real@3e1ba5e3
CONST	SEGMENT
__real@3e1ba5e3 DD 03e1ba5e3r			; 0.152
CONST	ENDS
;	COMDAT __real@3e083127
CONST	SEGMENT
__real@3e083127 DD 03e083127r			; 0.133
CONST	ENDS
;	COMDAT __real@3dfbe76d
CONST	SEGMENT
__real@3dfbe76d DD 03dfbe76dr			; 0.123
CONST	ENDS
;	COMDAT __real@3ddf3b64
CONST	SEGMENT
__real@3ddf3b64 DD 03ddf3b64r			; 0.109
CONST	ENDS
;	COMDAT __real@3dcccccd
CONST	SEGMENT
__real@3dcccccd DD 03dcccccdr			; 0.1
CONST	ENDS
;	COMDAT __real@3d8b4396
CONST	SEGMENT
__real@3d8b4396 DD 03d8b4396r			; 0.068
CONST	ENDS
;	COMDAT __real@3d6978d5
CONST	SEGMENT
__real@3d6978d5 DD 03d6978d5r			; 0.057
CONST	ENDS
;	COMDAT __real@3d449ba6
CONST	SEGMENT
__real@3d449ba6 DD 03d449ba6r			; 0.048
CONST	ENDS
;	COMDAT __real@3d23d70a
CONST	SEGMENT
__real@3d23d70a DD 03d23d70ar			; 0.04
CONST	ENDS
;	COMDAT __real@3cb43958
CONST	SEGMENT
__real@3cb43958 DD 03cb43958r			; 0.022
CONST	ENDS
;	COMDAT ??_C@_07JGDIGAGD@UI_SEND@
CONST	SEGMENT
??_C@_07JGDIGAGD@UI_SEND@ DB 'UI_SEND', 00H		; `string'
CONST	ENDS
;	COMDAT ??_C@_0CE@FHAIKPDG@graphics?2ui?2cohokum?2map?2sendbtn@
CONST	SEGMENT
??_C@_0CE@FHAIKPDG@graphics?2ui?2cohokum?2map?2sendbtn@ DB 'graphics\ui\c'
	DB	'ohokum\map\sendbtn.psd', 00H		; `string'
CONST	ENDS
;	COMDAT ??_C@_0CD@FGMPEBM@graphics?2ui?2cohokum?2map?2msgbar?4@
CONST	SEGMENT
??_C@_0CD@FGMPEBM@graphics?2ui?2cohokum?2map?2msgbar?4@ DB 'graphics\ui\c'
	DB	'ohokum\map\msgbar.psd', 00H			; `string'
CONST	ENDS
;	COMDAT ??_C@_03DKEJHHJP@?$CFs?3@
CONST	SEGMENT
??_C@_03DKEJHHJP@?$CFs?3@ DB '%s:', 00H			; `string'
CONST	ENDS
;	COMDAT ??_C@_0O@OHJDBNJC@Enter?5Message@
CONST	SEGMENT
??_C@_0O@OHJDBNJC@Enter?5Message@ DB 'Enter Message', 00H ; `string'
CONST	ENDS
;	COMDAT ??_C@_08LGLLKGLO@Messages@
CONST	SEGMENT
??_C@_08LGLLKGLO@Messages@ DB 'Messages', 00H		; `string'
CONST	ENDS
;	COMDAT ??_C@_0M@DPBEHEC@Destination@
CONST	SEGMENT
??_C@_0M@DPBEHEC@Destination@ DB 'Destination', 00H	; `string'
CONST	ENDS
;	COMDAT ??_C@_0CF@EAEMPPNH@graphics?2ui?2cohokum?2map?2chattab@
CONST	SEGMENT
??_C@_0CF@EAEMPPNH@graphics?2ui?2cohokum?2map?2chattab@ DB 'graphics\ui\c'
	DB	'ohokum\map\chattabs.psd', 00H		; `string'
CONST	ENDS
;	COMDAT ??_C@_03HNOLNALI@col@
CONST	SEGMENT
??_C@_03HNOLNALI@col@ DB 'col', 00H			; `string'
CONST	ENDS
;	COMDAT ??_C@_0P@OKCGHNEC@?$FL?$CF02d?3?$CF02d?$FN?5?$CFs@
CONST	SEGMENT
??_C@_0P@OKCGHNEC@?$FL?$CF02d?3?$CF02d?$FN?5?$CFs@ DB '[%02d:%02d] %s', 00H ; `string'
CONST	ENDS
;	COMDAT ??_C@_07ONPBMBOP@message@
CONST	SEGMENT
??_C@_07ONPBMBOP@message@ DB 'message', 00H		; `string'
CONST	ENDS
;	COMDAT ?__LINE__Var@?0??add_message_to_campaign_log@@YGHH@Z@4JA
_DATA	SEGMENT
?__LINE__Var@?0??add_message_to_campaign_log@@YGHH@Z@4JA DD 020aH ; `add_message_to_campaign_log'::`1'::__LINE__Var
_DATA	ENDS
;	COMDAT ??_C@_04PFAOODAA@?$CFs?3?5@
CONST	SEGMENT
??_C@_04PFAOODAA@?$CFs?3?5@ DB '%s: ', 00H		; `string'
CONST	ENDS
;	COMDAT ??_C@_07HDAAGBGA@SEND?5TO@
CONST	SEGMENT
??_C@_07HDAAGBGA@SEND?5TO@ DB 'SEND TO', 00H		; `string'
CONST	ENDS
;	COMDAT ?__LINE__Var@?0??draw_chat_send_button@@YGXPAUUI_OBJECT@@PAX@Z@4JA
_DATA	SEGMENT
?__LINE__Var@?0??draw_chat_send_button@@YGXPAUUI_OBJECT@@PAX@Z@4JA DD 01b8H ; `draw_chat_send_button'::`1'::__LINE__Var
_DATA	ENDS
;	COMDAT ??_C@_09BCKKEJHI@UI_PILOTS@
CONST	SEGMENT
??_C@_09BCKKEJHI@UI_PILOTS@ DB 'UI_PILOTS', 00H		; `string'
CONST	ENDS
;	COMDAT ??_C@_0BA@LBICKMKJ@CHAT_TARGET_ALL@
CONST	SEGMENT
??_C@_0BA@LBICKMKJ@CHAT_TARGET_ALL@ DB 'CHAT_TARGET_ALL', 00H ; `string'
CONST	ENDS
;	COMDAT ??_C@_0BG@EFCJJKAA@get_session_entity?5?$CI?$CJ@
CONST	SEGMENT
??_C@_0BG@EFCJJKAA@get_session_entity?5?$CI?$CJ@ DB 'get_session_entity ('
	DB	')', 00H					; `string'
CONST	ENDS
;	COMDAT ??_C@_0EO@PIJCMGCK@c?3?2users?2nhv90?2projects?2eech?2ap@
CONST	SEGMENT
??_C@_0EO@PIJCMGCK@c?3?2users?2nhv90?2projects?2eech?2ap@ DB 'c:\users\nh'
	DB	'v90\projects\eech\aphavoc\source\ui_menu\ingame\campaign\ca_c'
	DB	'hat.c', 00H					; `string'
CONST	ENDS
;	COMDAT ??_C@_04FHBEPJGO@Side@
CONST	SEGMENT
??_C@_04FHBEPJGO@Side@ DB 'Side', 00H			; `string'
CONST	ENDS
;	COMDAT ?__LINE__Var@?0??build_chat_target_list@@YGXXZ@4JA
_DATA	SEGMENT
?__LINE__Var@?0??build_chat_target_list@@YGXXZ@4JA DD 0125H ; `build_chat_target_list'::`1'::__LINE__Var
_DATA	ENDS
;	COMDAT ??_C@_00CNPNBAHC@@
CONST	SEGMENT
??_C@_00CNPNBAHC@@ DB 00H				; `string'
CONST	ENDS
;	COMDAT ??_C@_02DKCKIIND@?$CFs@
CONST	SEGMENT
??_C@_02DKCKIIND@?$CFs@ DB '%s', 00H			; `string'
CONST	ENDS
; Function compile flags: /Odtp /ZI
; File c:\users\nhv90\projects\eech\aphavoc\source\ui_menu\ingame\campaign\ca_chat.c
;	COMDAT ?response_to_new_message@@YGHW4CAMPAIGN_SCREEN_MESSAGES@@PAUENTITY@@@Z
_TEXT	SEGMENT
_message$ = 8						; size = 4
_sender$ = 12						; size = 4
?response_to_new_message@@YGHW4CAMPAIGN_SCREEN_MESSAGES@@PAUENTITY@@@Z PROC ; response_to_new_message, COMDAT

; 930  : {

  00000	55		 push	 ebp
  00001	8b ec		 mov	 ebp, esp
  00003	83 ec 40	 sub	 esp, 64			; 00000040H
  00006	53		 push	 ebx
  00007	56		 push	 esi
  00008	57		 push	 edi

; 931  : 	build_chat_message_list ();

  00009	e8 00 00 00 00	 call	 ?build_chat_message_list@@YGXXZ ; build_chat_message_list

; 932  : 
; 933  : 	return TRUE;

  0000e	b8 01 00 00 00	 mov	 eax, 1

; 934  : }

  00013	5f		 pop	 edi
  00014	5e		 pop	 esi
  00015	5b		 pop	 ebx
  00016	8b e5		 mov	 esp, ebp
  00018	5d		 pop	 ebp
  00019	c2 08 00	 ret	 8
?response_to_new_message@@YGHW4CAMPAIGN_SCREEN_MESSAGES@@PAUENTITY@@@Z ENDP ; response_to_new_message
_TEXT	ENDS
; Function compile flags: /Odtp /ZI
; File c:\users\nhv90\projects\eech\aphavoc\source\ui_menu\ingame\campaign\ca_chat.c
;	COMDAT ?draw_chat_send_button@@YGXPAUUI_OBJECT@@PAX@Z
_TEXT	SEGMENT
tv164 = -80						; size = 4
tv142 = -80						; size = 4
tv90 = -80						; size = 4
tv156 = -76						; size = 4
tv134 = -76						; size = 4
tv89 = -76						; size = 4
tv82 = -76						; size = 4
_col$ = -8						; size = 4
_current_target$ = -4					; size = 4
_obj$ = 8						; size = 4
_arg$ = 12						; size = 4
?draw_chat_send_button@@YGXPAUUI_OBJECT@@PAX@Z PROC	; draw_chat_send_button, COMDAT

; 440  : {

  00000	55		 push	 ebp
  00001	8b ec		 mov	 ebp, esp
  00003	83 ec 50	 sub	 esp, 80			; 00000050H
  00006	53		 push	 ebx
  00007	56		 push	 esi
  00008	57		 push	 edi

; 441  : 	entity
; 442  : 		*current_target;
; 443  : 
; 444  : 	rgb_colour
; 445  : 		*col;
; 446  : 		
; 447  : 	static const char
; 448  : 		*text;
; 449  : 	static char
; 450  : 		s [256];
; 451  : 
; 452  : 	sprintf (s, "%s: ", get_trans ("SEND TO"));

  00009	68 00 00 00 00	 push	 OFFSET ??_C@_07HDAAGBGA@SEND?5TO@
  0000e	e8 00 00 00 00	 call	 ?get_trans@@YGPBDPBD@Z	; get_trans
  00013	50		 push	 eax
  00014	68 00 00 00 00	 push	 OFFSET ??_C@_04PFAOODAA@?$CFs?3?5@
  00019	68 00 00 00 00	 push	 OFFSET ?s@?1??draw_chat_send_button@@YGXPAUUI_OBJECT@@PAX@Z@4PADA
  0001e	e8 00 00 00 00	 call	 _sprintf
  00023	83 c4 0c	 add	 esp, 12			; 0000000cH

; 453  : 
; 454  : 	current_target = get_local_entity_safe_ptr (get_ui_object_item_number (obj));

  00026	8b 45 08	 mov	 eax, DWORD PTR _obj$[ebp]
  00029	50		 push	 eax
  0002a	8b 4d 08	 mov	 ecx, DWORD PTR _obj$[ebp]
  0002d	8b 11		 mov	 edx, DWORD PTR [ecx]
  0002f	8b 04 95 00 00
	00 00		 mov	 eax, DWORD PTR ?fn_get_ui_object_item_number@@3PAP6GHPAUUI_OBJECT@@@ZA[edx*4]
  00036	ff d0		 call	 eax
  00038	83 f8 ff	 cmp	 eax, -1
  0003b	74 20		 je	 SHORT $LN13@draw_chat_
  0003d	8b 4d 08	 mov	 ecx, DWORD PTR _obj$[ebp]
  00040	51		 push	 ecx
  00041	8b 55 08	 mov	 edx, DWORD PTR _obj$[ebp]
  00044	8b 02		 mov	 eax, DWORD PTR [edx]
  00046	8b 0c 85 00 00
	00 00		 mov	 ecx, DWORD PTR ?fn_get_ui_object_item_number@@3PAP6GHPAUUI_OBJECT@@@ZA[eax*4]
  0004d	ff d1		 call	 ecx
  0004f	c1 e0 04	 shl	 eax, 4
  00052	03 05 00 00 00
	00		 add	 eax, DWORD PTR ?entities@@3PAUENTITY@@A ; entities
  00058	89 45 b4	 mov	 DWORD PTR tv82[ebp], eax
  0005b	eb 07		 jmp	 SHORT $LN14@draw_chat_
$LN13@draw_chat_:
  0005d	c7 45 b4 00 00
	00 00		 mov	 DWORD PTR tv82[ebp], 0
$LN14@draw_chat_:
  00064	8b 55 b4	 mov	 edx, DWORD PTR tv82[ebp]
  00067	89 55 fc	 mov	 DWORD PTR _current_target$[ebp], edx

; 455  : 
; 456  : 	if (current_target)

  0006a	83 7d fc 00	 cmp	 DWORD PTR _current_target$[ebp], 0
  0006e	0f 84 8e 01 00
	00		 je	 $LN4@draw_chat_

; 457  : 	{
; 458  : 		switch (get_local_entity_type (current_target))

  00074	83 7d fc 00	 cmp	 DWORD PTR _current_target$[ebp], 0
  00078	74 0a		 je	 SHORT $LN15@draw_chat_
  0007a	8b 45 fc	 mov	 eax, DWORD PTR _current_target$[ebp]
  0007d	8b 08		 mov	 ecx, DWORD PTR [eax]
  0007f	89 4d b4	 mov	 DWORD PTR tv89[ebp], ecx
  00082	eb 1d		 jmp	 SHORT $LN16@draw_chat_
$LN15@draw_chat_:
  00084	68 ca 01 00 00	 push	 458			; 000001caH
  00089	68 00 00 00 00	 push	 OFFSET ??_C@_0EO@PIJCMGCK@c?3?2users?2nhv90?2projects?2eech?2ap@
  0008e	8b 15 00 00 00
	00		 mov	 edx, DWORD PTR ?null_entity_pointer_message@@3PBDB ; null_entity_pointer_message
  00094	52		 push	 edx
  00095	e8 00 00 00 00	 call	 ?process_assert@@YGXPBD0H@Z ; process_assert
  0009a	c7 45 b4 00 00
	00 00		 mov	 DWORD PTR tv89[ebp], 0
$LN16@draw_chat_:
  000a1	8b 45 b4	 mov	 eax, DWORD PTR tv89[ebp]
  000a4	89 45 b0	 mov	 DWORD PTR tv90[ebp], eax
  000a7	83 7d b0 0b	 cmp	 DWORD PTR tv90[ebp], 11	; 0000000bH
  000ab	74 32		 je	 SHORT $LN6@draw_chat_
  000ad	83 7d b0 14	 cmp	 DWORD PTR tv90[ebp], 20	; 00000014H
  000b1	0f 84 b5 00 00
	00		 je	 $LN7@draw_chat_
  000b7	83 7d b0 1b	 cmp	 DWORD PTR tv90[ebp], 27	; 0000001bH
  000bb	74 05		 je	 SHORT $LN5@draw_chat_
  000bd	e9 34 01 00 00	 jmp	 $LN8@draw_chat_
$LN5@draw_chat_:

; 459  : 		{
; 460  : 			case ENTITY_TYPE_SESSION:
; 461  : 			{
; 462  : 				strcat (s, get_trans ("CHAT_TARGET_ALL"));

  000c2	68 00 00 00 00	 push	 OFFSET ??_C@_0BA@LBICKMKJ@CHAT_TARGET_ALL@
  000c7	e8 00 00 00 00	 call	 ?get_trans@@YGPBDPBD@Z	; get_trans
  000cc	50		 push	 eax
  000cd	68 00 00 00 00	 push	 OFFSET ?s@?1??draw_chat_send_button@@YGXPAUUI_OBJECT@@PAX@Z@4PADA
  000d2	e8 00 00 00 00	 call	 _strcat
  000d7	83 c4 08	 add	 esp, 8

; 463  : 
; 464  : 				break;

  000da	e9 23 01 00 00	 jmp	 $LN4@draw_chat_
$LN6@draw_chat_:

; 465  : 			}
; 466  : 			case ENTITY_TYPE_FORCE:
; 467  : 			{
; 468  : 				strcat (s, get_local_entity_string (current_target, STRING_TYPE_FORCE_NAME));

  000df	83 7d fc 00	 cmp	 DWORD PTR _current_target$[ebp], 0
  000e3	74 0a		 je	 SHORT $LN17@draw_chat_
  000e5	8b 45 fc	 mov	 eax, DWORD PTR _current_target$[ebp]
  000e8	8b 08		 mov	 ecx, DWORD PTR [eax]
  000ea	89 4d b4	 mov	 DWORD PTR tv134[ebp], ecx
  000ed	eb 21		 jmp	 SHORT $LN18@draw_chat_
$LN17@draw_chat_:
  000ef	8b 15 00 00 00
	00		 mov	 edx, DWORD PTR ?__LINE__Var@?0??draw_chat_send_button@@YGXPAUUI_OBJECT@@PAX@Z@4JA
  000f5	83 c2 1c	 add	 edx, 28			; 0000001cH
  000f8	52		 push	 edx
  000f9	68 00 00 00 00	 push	 OFFSET ??_C@_0EO@PIJCMGCK@c?3?2users?2nhv90?2projects?2eech?2ap@
  000fe	a1 00 00 00 00	 mov	 eax, DWORD PTR ?null_entity_pointer_message@@3PBDB ; null_entity_pointer_message
  00103	50		 push	 eax
  00104	e8 00 00 00 00	 call	 ?process_assert@@YGXPBD0H@Z ; process_assert
  00109	c7 45 b4 00 00
	00 00		 mov	 DWORD PTR tv134[ebp], 0
$LN18@draw_chat_:
  00110	b9 01 00 00 00	 mov	 ecx, 1
  00115	85 c9		 test	 ecx, ecx
  00117	74 09		 je	 SHORT $LN19@draw_chat_
  00119	c7 45 b0 02 00
	00 00		 mov	 DWORD PTR tv142[ebp], 2
  00120	eb 21		 jmp	 SHORT $LN20@draw_chat_
$LN19@draw_chat_:
  00122	8b 15 00 00 00
	00		 mov	 edx, DWORD PTR ?__LINE__Var@?0??draw_chat_send_button@@YGXPAUUI_OBJECT@@PAX@Z@4JA
  00128	83 c2 1c	 add	 edx, 28			; 0000001cH
  0012b	52		 push	 edx
  0012c	68 00 00 00 00	 push	 OFFSET ??_C@_0EO@PIJCMGCK@c?3?2users?2nhv90?2projects?2eech?2ap@
  00131	a1 00 00 00 00	 mov	 eax, DWORD PTR ?overload_invalid_string_type_message@@3PBDB ; overload_invalid_string_type_message
  00136	50		 push	 eax
  00137	e8 00 00 00 00	 call	 ?process_assert@@YGXPBD0H@Z ; process_assert
  0013c	c7 45 b0 00 00
	00 00		 mov	 DWORD PTR tv142[ebp], 0
$LN20@draw_chat_:
  00143	6a 02		 push	 2
  00145	8b 4d fc	 mov	 ecx, DWORD PTR _current_target$[ebp]
  00148	51		 push	 ecx
  00149	6b 55 b4 34	 imul	 edx, DWORD PTR tv134[ebp], 52
  0014d	8b 45 b0	 mov	 eax, DWORD PTR tv142[ebp]
  00150	8b 8c 82 00 00
	00 00		 mov	 ecx, DWORD PTR ?fn_get_local_entity_string@@3PAY0N@P6GPBDPAUENTITY@@W4STRING_TYPES@@@ZA[edx+eax*4]
  00157	ff d1		 call	 ecx
  00159	50		 push	 eax
  0015a	68 00 00 00 00	 push	 OFFSET ?s@?1??draw_chat_send_button@@YGXPAUUI_OBJECT@@PAX@Z@4PADA
  0015f	e8 00 00 00 00	 call	 _strcat
  00164	83 c4 08	 add	 esp, 8

; 469  : 
; 470  : 				break;

  00167	e9 96 00 00 00	 jmp	 $LN4@draw_chat_
$LN7@draw_chat_:

; 471  : 			}
; 472  : 			case ENTITY_TYPE_PILOT:
; 473  : 			{
; 474  : 				strcat (s, get_local_entity_string (current_target, STRING_TYPE_PILOTS_NAME));

  0016c	83 7d fc 00	 cmp	 DWORD PTR _current_target$[ebp], 0
  00170	74 0a		 je	 SHORT $LN21@draw_chat_
  00172	8b 45 fc	 mov	 eax, DWORD PTR _current_target$[ebp]
  00175	8b 08		 mov	 ecx, DWORD PTR [eax]
  00177	89 4d b4	 mov	 DWORD PTR tv156[ebp], ecx
  0017a	eb 21		 jmp	 SHORT $LN22@draw_chat_
$LN21@draw_chat_:
  0017c	8b 15 00 00 00
	00		 mov	 edx, DWORD PTR ?__LINE__Var@?0??draw_chat_send_button@@YGXPAUUI_OBJECT@@PAX@Z@4JA
  00182	83 c2 22	 add	 edx, 34			; 00000022H
  00185	52		 push	 edx
  00186	68 00 00 00 00	 push	 OFFSET ??_C@_0EO@PIJCMGCK@c?3?2users?2nhv90?2projects?2eech?2ap@
  0018b	a1 00 00 00 00	 mov	 eax, DWORD PTR ?null_entity_pointer_message@@3PBDB ; null_entity_pointer_message
  00190	50		 push	 eax
  00191	e8 00 00 00 00	 call	 ?process_assert@@YGXPBD0H@Z ; process_assert
  00196	c7 45 b4 00 00
	00 00		 mov	 DWORD PTR tv156[ebp], 0
$LN22@draw_chat_:
  0019d	b9 01 00 00 00	 mov	 ecx, 1
  001a2	85 c9		 test	 ecx, ecx
  001a4	74 09		 je	 SHORT $LN23@draw_chat_
  001a6	c7 45 b0 0a 00
	00 00		 mov	 DWORD PTR tv164[ebp], 10 ; 0000000aH
  001ad	eb 21		 jmp	 SHORT $LN24@draw_chat_
$LN23@draw_chat_:
  001af	8b 15 00 00 00
	00		 mov	 edx, DWORD PTR ?__LINE__Var@?0??draw_chat_send_button@@YGXPAUUI_OBJECT@@PAX@Z@4JA
  001b5	83 c2 22	 add	 edx, 34			; 00000022H
  001b8	52		 push	 edx
  001b9	68 00 00 00 00	 push	 OFFSET ??_C@_0EO@PIJCMGCK@c?3?2users?2nhv90?2projects?2eech?2ap@
  001be	a1 00 00 00 00	 mov	 eax, DWORD PTR ?overload_invalid_string_type_message@@3PBDB ; overload_invalid_string_type_message
  001c3	50		 push	 eax
  001c4	e8 00 00 00 00	 call	 ?process_assert@@YGXPBD0H@Z ; process_assert
  001c9	c7 45 b0 00 00
	00 00		 mov	 DWORD PTR tv164[ebp], 0
$LN24@draw_chat_:
  001d0	6a 0a		 push	 10			; 0000000aH
  001d2	8b 4d fc	 mov	 ecx, DWORD PTR _current_target$[ebp]
  001d5	51		 push	 ecx
  001d6	6b 55 b4 34	 imul	 edx, DWORD PTR tv156[ebp], 52
  001da	8b 45 b0	 mov	 eax, DWORD PTR tv164[ebp]
  001dd	8b 8c 82 00 00
	00 00		 mov	 ecx, DWORD PTR ?fn_get_local_entity_string@@3PAY0N@P6GPBDPAUENTITY@@W4STRING_TYPES@@@ZA[edx+eax*4]
  001e4	ff d1		 call	 ecx
  001e6	50		 push	 eax
  001e7	68 00 00 00 00	 push	 OFFSET ?s@?1??draw_chat_send_button@@YGXPAUUI_OBJECT@@PAX@Z@4PADA
  001ec	e8 00 00 00 00	 call	 _strcat
  001f1	83 c4 08	 add	 esp, 8

; 475  : 
; 476  : 				break;

  001f4	eb 0c		 jmp	 SHORT $LN4@draw_chat_
$LN8@draw_chat_:

; 477  : 			}
; 478  : 			default:
; 479  : 			{
; 480  : 				current_target = NULL;

  001f6	c7 45 fc 00 00
	00 00		 mov	 DWORD PTR _current_target$[ebp], 0

; 481  : 			
; 482  : 				build_chat_target_list ();

  001fd	e8 00 00 00 00	 call	 ?build_chat_target_list@@YGXXZ ; build_chat_target_list
$LN4@draw_chat_:

; 483  : 
; 484  : 				break;
; 485  : 			}
; 486  : 		}
; 487  : 	}
; 488  : 
; 489  : 	set_ui_object_text (obj, s);

  00202	68 00 00 00 00	 push	 OFFSET ?s@?1??draw_chat_send_button@@YGXPAUUI_OBJECT@@PAX@Z@4PADA
  00207	8b 45 08	 mov	 eax, DWORD PTR _obj$[ebp]
  0020a	50		 push	 eax
  0020b	8b 4d 08	 mov	 ecx, DWORD PTR _obj$[ebp]
  0020e	8b 11		 mov	 edx, DWORD PTR [ecx]
  00210	8b 04 95 00 00
	00 00		 mov	 eax, DWORD PTR ?fn_set_ui_object_text@@3PAP6GXPAUUI_OBJECT@@PBD@ZA[edx*4]
  00217	ff d0		 call	 eax

; 490  : 
; 491  : 	if (current_target)

  00219	83 7d fc 00	 cmp	 DWORD PTR _current_target$[ebp], 0
  0021d	74 56		 je	 SHORT $LN9@draw_chat_

; 492  : 	{
; 493  : 		text = get_ui_object_text (chat_current_text);

  0021f	a1 00 00 00 00	 mov	 eax, DWORD PTR ?chat_current_text@@3PAUUI_OBJECT@@A
  00224	50		 push	 eax
  00225	8b 0d 00 00 00
	00		 mov	 ecx, DWORD PTR ?chat_current_text@@3PAUUI_OBJECT@@A
  0022b	8b 11		 mov	 edx, DWORD PTR [ecx]
  0022d	8b 04 95 00 00
	00 00		 mov	 eax, DWORD PTR ?fn_get_ui_object_text@@3PAP6GPBDPAUUI_OBJECT@@@ZA[edx*4]
  00234	ff d0		 call	 eax
  00236	a3 00 00 00 00	 mov	 DWORD PTR ?text@?1??draw_chat_send_button@@YGXPAUUI_OBJECT@@PAX@Z@4PBDB, eax

; 494  : 
; 495  : 		if (text)

  0023b	83 3d 00 00 00
	00 00		 cmp	 DWORD PTR ?text@?1??draw_chat_send_button@@YGXPAUUI_OBJECT@@PAX@Z@4PBDB, 0
  00242	74 31		 je	 SHORT $LN9@draw_chat_

; 496  : 		{
; 497  : 			if (strlen (text) > 0)

  00244	a1 00 00 00 00	 mov	 eax, DWORD PTR ?text@?1??draw_chat_send_button@@YGXPAUUI_OBJECT@@PAX@Z@4PBDB
  00249	50		 push	 eax
  0024a	e8 00 00 00 00	 call	 _strlen
  0024f	83 c4 04	 add	 esp, 4
  00252	85 c0		 test	 eax, eax
  00254	76 1f		 jbe	 SHORT $LN9@draw_chat_

; 498  : 			{
; 499  : 				set_ingame_ui_object_mouse_over_properties (obj);

  00256	8b 45 08	 mov	 eax, DWORD PTR _obj$[ebp]
  00259	50		 push	 eax
  0025a	e8 00 00 00 00	 call	 ?set_ingame_ui_object_mouse_over_properties@@YGXPAUUI_OBJECT@@@Z ; set_ingame_ui_object_mouse_over_properties

; 500  : 
; 501  : 				set_ui_object_notify_on (obj, NOTIFY_TYPE_BUTTON_DOWN);

  0025f	6a 02		 push	 2
  00261	8b 45 08	 mov	 eax, DWORD PTR _obj$[ebp]
  00264	50		 push	 eax
  00265	8b 4d 08	 mov	 ecx, DWORD PTR _obj$[ebp]
  00268	8b 11		 mov	 edx, DWORD PTR [ecx]
  0026a	8b 04 95 00 00
	00 00		 mov	 eax, DWORD PTR ?fn_set_ui_object_notify_on@@3PAP6GXPAUUI_OBJECT@@W4NOTIFY_TYPES@@@ZA[edx*4]
  00271	ff d0		 call	 eax

; 502  : 
; 503  : 				return;

  00273	eb 60		 jmp	 SHORT $LN1@draw_chat_
$LN9@draw_chat_:

; 504  : 			}
; 505  : 		}
; 506  : 	}
; 507  : 
; 508  : 	set_ui_object_notify_on (obj, NOTIFY_TYPE_NONE);

  00275	6a 00		 push	 0
  00277	8b 45 08	 mov	 eax, DWORD PTR _obj$[ebp]
  0027a	50		 push	 eax
  0027b	8b 4d 08	 mov	 ecx, DWORD PTR _obj$[ebp]
  0027e	8b 11		 mov	 edx, DWORD PTR [ecx]
  00280	8b 04 95 00 00
	00 00		 mov	 eax, DWORD PTR ?fn_set_ui_object_notify_on@@3PAP6GXPAUUI_OBJECT@@W4NOTIFY_TYPES@@@ZA[edx*4]
  00287	ff d0		 call	 eax

; 509  : 
; 510  : 	set_ui_object_highlightable (obj, FALSE);

  00289	6a 00		 push	 0
  0028b	8b 45 08	 mov	 eax, DWORD PTR _obj$[ebp]
  0028e	50		 push	 eax
  0028f	8b 4d 08	 mov	 ecx, DWORD PTR _obj$[ebp]
  00292	8b 11		 mov	 edx, DWORD PTR [ecx]
  00294	8b 04 95 00 00
	00 00		 mov	 eax, DWORD PTR ?fn_set_ui_object_highlightable@@3PAP6GXPAUUI_OBJECT@@H@ZA[edx*4]
  0029b	ff d0		 call	 eax

; 511  : 
; 512  : 	col = &ui_ingame_dead_text_colour;

  0029d	c7 45 f8 00 00
	00 00		 mov	 DWORD PTR _col$[ebp], OFFSET ?ui_ingame_dead_text_colour@@3UREAL_COLOUR@@A ; ui_ingame_dead_text_colour

; 513  : 
; 514  : 	set_ui_object_font_colour (obj, col->r, col->g, col->b, col->a);

  002a4	8b 45 f8	 mov	 eax, DWORD PTR _col$[ebp]
  002a7	0f b6 48 03	 movzx	 ecx, BYTE PTR [eax+3]
  002ab	51		 push	 ecx
  002ac	8b 55 f8	 mov	 edx, DWORD PTR _col$[ebp]
  002af	0f b6 02	 movzx	 eax, BYTE PTR [edx]
  002b2	50		 push	 eax
  002b3	8b 4d f8	 mov	 ecx, DWORD PTR _col$[ebp]
  002b6	0f b6 51 01	 movzx	 edx, BYTE PTR [ecx+1]
  002ba	52		 push	 edx
  002bb	8b 45 f8	 mov	 eax, DWORD PTR _col$[ebp]
  002be	0f b6 48 02	 movzx	 ecx, BYTE PTR [eax+2]
  002c2	51		 push	 ecx
  002c3	8b 55 08	 mov	 edx, DWORD PTR _obj$[ebp]
  002c6	52		 push	 edx
  002c7	8b 45 08	 mov	 eax, DWORD PTR _obj$[ebp]
  002ca	8b 08		 mov	 ecx, DWORD PTR [eax]
  002cc	8b 14 8d 00 00
	00 00		 mov	 edx, DWORD PTR ?fn_set_ui_object_font_colour@@3PAP6GXPAUUI_OBJECT@@DDDD@ZA[ecx*4]
  002d3	ff d2		 call	 edx
$LN1@draw_chat_:

; 515  : }

  002d5	5f		 pop	 edi
  002d6	5e		 pop	 esi
  002d7	5b		 pop	 ebx
  002d8	8b e5		 mov	 esp, ebp
  002da	5d		 pop	 ebp
  002db	c2 08 00	 ret	 8
?draw_chat_send_button@@YGXPAUUI_OBJECT@@PAX@Z ENDP	; draw_chat_send_button
_TEXT	ENDS
; Function compile flags: /Odtp /ZI
; File c:\users\nhv90\projects\eech\aphavoc\source\ui_menu\ingame\campaign\ca_chat.c
;	COMDAT ?update_chat_page_objects@@YGXPAUUI_OBJECT@@PAX@Z
_TEXT	SEGMENT
_obj$ = 8						; size = 4
_arg$ = 12						; size = 4
?update_chat_page_objects@@YGXPAUUI_OBJECT@@PAX@Z PROC	; update_chat_page_objects, COMDAT

; 431  : {

  00000	55		 push	 ebp
  00001	8b ec		 mov	 ebp, esp
  00003	83 ec 40	 sub	 esp, 64			; 00000040H
  00006	53		 push	 ebx
  00007	56		 push	 esi
  00008	57		 push	 edi

; 432  : 	set_ui_object_drawable (page_back_button, get_campaign_history_valid ());

  00009	e8 00 00 00 00	 call	 ?get_campaign_history_valid@@YGHXZ ; get_campaign_history_valid
  0000e	50		 push	 eax
  0000f	a1 00 00 00 00	 mov	 eax, DWORD PTR ?page_back_button@@3PAUUI_OBJECT@@A
  00014	50		 push	 eax
  00015	8b 0d 00 00 00
	00		 mov	 ecx, DWORD PTR ?page_back_button@@3PAUUI_OBJECT@@A
  0001b	8b 11		 mov	 edx, DWORD PTR [ecx]
  0001d	8b 04 95 00 00
	00 00		 mov	 eax, DWORD PTR ?fn_set_ui_object_drawable@@3PAP6GXPAUUI_OBJECT@@H@ZA[edx*4]
  00024	ff d0		 call	 eax

; 433  : }

  00026	5f		 pop	 edi
  00027	5e		 pop	 esi
  00028	5b		 pop	 ebx
  00029	8b e5		 mov	 esp, ebp
  0002b	5d		 pop	 ebp
  0002c	c2 08 00	 ret	 8
?update_chat_page_objects@@YGXPAUUI_OBJECT@@PAX@Z ENDP	; update_chat_page_objects
_TEXT	ENDS
; Function compile flags: /Odtp /ZI
; File c:\users\nhv90\projects\eech\aphavoc\source\ui_menu\ingame\campaign\ca_chat.c
;	COMDAT ?notify_show_messages@@YGXPAUUI_OBJECT@@PAX@Z
_TEXT	SEGMENT
_obj$ = 8						; size = 4
_arg$ = 12						; size = 4
?notify_show_messages@@YGXPAUUI_OBJECT@@PAX@Z PROC	; notify_show_messages, COMDAT

; 280  : {

  00000	55		 push	 ebp
  00001	8b ec		 mov	 ebp, esp
  00003	83 ec 40	 sub	 esp, 64			; 00000040H
  00006	53		 push	 ebx
  00007	56		 push	 esi
  00008	57		 push	 edi

; 281  : 	build_chat_message_list ();

  00009	e8 00 00 00 00	 call	 ?build_chat_message_list@@YGXXZ ; build_chat_message_list

; 282  : 	
; 283  : 	set_ui_object_drawable (chat_target_list_area, FALSE);

  0000e	6a 00		 push	 0
  00010	a1 00 00 00 00	 mov	 eax, DWORD PTR ?chat_target_list_area@@3PAUUI_OBJECT@@A
  00015	50		 push	 eax
  00016	8b 0d 00 00 00
	00		 mov	 ecx, DWORD PTR ?chat_target_list_area@@3PAUUI_OBJECT@@A
  0001c	8b 11		 mov	 edx, DWORD PTR [ecx]
  0001e	8b 04 95 00 00
	00 00		 mov	 eax, DWORD PTR ?fn_set_ui_object_drawable@@3PAP6GXPAUUI_OBJECT@@H@ZA[edx*4]
  00025	ff d0		 call	 eax

; 284  : 
; 285  : 	set_ui_object_drawable (chat_message_list_area, TRUE);

  00027	6a 01		 push	 1
  00029	a1 00 00 00 00	 mov	 eax, DWORD PTR ?chat_message_list_area@@3PAUUI_OBJECT@@A
  0002e	50		 push	 eax
  0002f	8b 0d 00 00 00
	00		 mov	 ecx, DWORD PTR ?chat_message_list_area@@3PAUUI_OBJECT@@A
  00035	8b 11		 mov	 edx, DWORD PTR [ecx]
  00037	8b 04 95 00 00
	00 00		 mov	 eax, DWORD PTR ?fn_set_ui_object_drawable@@3PAP6GXPAUUI_OBJECT@@H@ZA[edx*4]
  0003e	ff d0		 call	 eax

; 286  : }

  00040	5f		 pop	 edi
  00041	5e		 pop	 esi
  00042	5b		 pop	 ebx
  00043	8b e5		 mov	 esp, ebp
  00045	5d		 pop	 ebp
  00046	c2 08 00	 ret	 8
?notify_show_messages@@YGXPAUUI_OBJECT@@PAX@Z ENDP	; notify_show_messages
_TEXT	ENDS
; Function compile flags: /Odtp /ZI
; File c:\users\nhv90\projects\eech\aphavoc\source\ui_menu\ingame\campaign\ca_chat.c
;	COMDAT ?notify_show_destinations@@YGXPAUUI_OBJECT@@PAX@Z
_TEXT	SEGMENT
_obj$ = 8						; size = 4
_arg$ = 12						; size = 4
?notify_show_destinations@@YGXPAUUI_OBJECT@@PAX@Z PROC	; notify_show_destinations, COMDAT

; 267  : {

  00000	55		 push	 ebp
  00001	8b ec		 mov	 ebp, esp
  00003	83 ec 40	 sub	 esp, 64			; 00000040H
  00006	53		 push	 ebx
  00007	56		 push	 esi
  00008	57		 push	 edi

; 268  : 	build_chat_target_list ();

  00009	e8 00 00 00 00	 call	 ?build_chat_target_list@@YGXXZ ; build_chat_target_list

; 269  : 
; 270  : 	set_ui_object_drawable (chat_target_list_area, TRUE);

  0000e	6a 01		 push	 1
  00010	a1 00 00 00 00	 mov	 eax, DWORD PTR ?chat_target_list_area@@3PAUUI_OBJECT@@A
  00015	50		 push	 eax
  00016	8b 0d 00 00 00
	00		 mov	 ecx, DWORD PTR ?chat_target_list_area@@3PAUUI_OBJECT@@A
  0001c	8b 11		 mov	 edx, DWORD PTR [ecx]
  0001e	8b 04 95 00 00
	00 00		 mov	 eax, DWORD PTR ?fn_set_ui_object_drawable@@3PAP6GXPAUUI_OBJECT@@H@ZA[edx*4]
  00025	ff d0		 call	 eax

; 271  : 
; 272  : 	set_ui_object_drawable (chat_message_list_area, FALSE);

  00027	6a 00		 push	 0
  00029	a1 00 00 00 00	 mov	 eax, DWORD PTR ?chat_message_list_area@@3PAUUI_OBJECT@@A
  0002e	50		 push	 eax
  0002f	8b 0d 00 00 00
	00		 mov	 ecx, DWORD PTR ?chat_message_list_area@@3PAUUI_OBJECT@@A
  00035	8b 11		 mov	 edx, DWORD PTR [ecx]
  00037	8b 04 95 00 00
	00 00		 mov	 eax, DWORD PTR ?fn_set_ui_object_drawable@@3PAP6GXPAUUI_OBJECT@@H@ZA[edx*4]
  0003e	ff d0		 call	 eax

; 273  : }

  00040	5f		 pop	 edi
  00041	5e		 pop	 esi
  00042	5b		 pop	 ebx
  00043	8b e5		 mov	 esp, ebp
  00045	5d		 pop	 ebp
  00046	c2 08 00	 ret	 8
?notify_show_destinations@@YGXPAUUI_OBJECT@@PAX@Z ENDP	; notify_show_destinations
_TEXT	ENDS
; Function compile flags: /Odtp /ZI
; File c:\users\nhv90\projects\eech\aphavoc\source\ui_menu\ingame\campaign\ca_chat.c
;	COMDAT ?notify_target_list@@YGXPAUUI_OBJECT@@PAX@Z
_TEXT	SEGMENT
_index$ = -4						; size = 4
_obj$ = 8						; size = 4
_arg$ = 12						; size = 4
?notify_target_list@@YGXPAUUI_OBJECT@@PAX@Z PROC	; notify_target_list, COMDAT

; 248  : {

  00000	55		 push	 ebp
  00001	8b ec		 mov	 ebp, esp
  00003	83 ec 44	 sub	 esp, 68			; 00000044H
  00006	53		 push	 ebx
  00007	56		 push	 esi
  00008	57		 push	 edi

; 249  : 	int
; 250  : 		index;
; 251  : 		
; 252  : 	index = get_ui_object_item_number (obj);

  00009	8b 45 08	 mov	 eax, DWORD PTR _obj$[ebp]
  0000c	50		 push	 eax
  0000d	8b 4d 08	 mov	 ecx, DWORD PTR _obj$[ebp]
  00010	8b 11		 mov	 edx, DWORD PTR [ecx]
  00012	8b 04 95 00 00
	00 00		 mov	 eax, DWORD PTR ?fn_get_ui_object_item_number@@3PAP6GHPAUUI_OBJECT@@@ZA[edx*4]
  00019	ff d0		 call	 eax
  0001b	89 45 fc	 mov	 DWORD PTR _index$[ebp], eax

; 253  : 
; 254  : 	if (index != ENTITY_INDEX_DONT_CARE)

  0001e	83 7d fc ff	 cmp	 DWORD PTR _index$[ebp], -1
  00022	74 21		 je	 SHORT $LN1@notify_tar

; 255  : 	{
; 256  : 		set_ui_object_item_number (chat_send_button, index);

  00024	8b 45 fc	 mov	 eax, DWORD PTR _index$[ebp]
  00027	50		 push	 eax
  00028	8b 0d 00 00 00
	00		 mov	 ecx, DWORD PTR ?chat_send_button@@3PAUUI_OBJECT@@A
  0002e	51		 push	 ecx
  0002f	8b 15 00 00 00
	00		 mov	 edx, DWORD PTR ?chat_send_button@@3PAUUI_OBJECT@@A
  00035	8b 02		 mov	 eax, DWORD PTR [edx]
  00037	8b 0c 85 00 00
	00 00		 mov	 ecx, DWORD PTR ?fn_set_ui_object_item_number@@3PAP6GXPAUUI_OBJECT@@H@ZA[eax*4]
  0003e	ff d1		 call	 ecx

; 257  : 
; 258  : 		build_chat_target_list ();

  00040	e8 00 00 00 00	 call	 ?build_chat_target_list@@YGXXZ ; build_chat_target_list
$LN1@notify_tar:

; 259  : 	}
; 260  : }

  00045	5f		 pop	 edi
  00046	5e		 pop	 esi
  00047	5b		 pop	 ebx
  00048	8b e5		 mov	 esp, ebp
  0004a	5d		 pop	 ebp
  0004b	c2 08 00	 ret	 8
?notify_target_list@@YGXPAUUI_OBJECT@@PAX@Z ENDP	; notify_target_list
_TEXT	ENDS
; Function compile flags: /Odtp /ZI
; File c:\users\nhv90\projects\eech\aphavoc\source\ui_menu\ingame\campaign\ca_chat.c
;	COMDAT ?notify_send_message@@YGXPAUUI_OBJECT@@PAX@Z
_TEXT	SEGMENT
tv77 = -76						; size = 4
_text$ = -8						; size = 4
_target$ = -4						; size = 4
_obj$ = 8						; size = 4
_arg$ = 12						; size = 4
?notify_send_message@@YGXPAUUI_OBJECT@@PAX@Z PROC	; notify_send_message, COMDAT

; 218  : {

  00000	55		 push	 ebp
  00001	8b ec		 mov	 ebp, esp
  00003	83 ec 4c	 sub	 esp, 76			; 0000004cH
  00006	53		 push	 ebx
  00007	56		 push	 esi
  00008	57		 push	 edi

; 219  : 	entity
; 220  : 		*target;
; 221  : 		
; 222  : 	const char
; 223  : 		*text;
; 224  : 		
; 225  : 	target = get_local_entity_safe_ptr (get_ui_object_item_number (chat_send_button));

  00009	a1 00 00 00 00	 mov	 eax, DWORD PTR ?chat_send_button@@3PAUUI_OBJECT@@A
  0000e	50		 push	 eax
  0000f	8b 0d 00 00 00
	00		 mov	 ecx, DWORD PTR ?chat_send_button@@3PAUUI_OBJECT@@A
  00015	8b 11		 mov	 edx, DWORD PTR [ecx]
  00017	8b 04 95 00 00
	00 00		 mov	 eax, DWORD PTR ?fn_get_ui_object_item_number@@3PAP6GHPAUUI_OBJECT@@@ZA[edx*4]
  0001e	ff d0		 call	 eax
  00020	83 f8 ff	 cmp	 eax, -1
  00023	74 26		 je	 SHORT $LN6@notify_sen
  00025	8b 0d 00 00 00
	00		 mov	 ecx, DWORD PTR ?chat_send_button@@3PAUUI_OBJECT@@A
  0002b	51		 push	 ecx
  0002c	8b 15 00 00 00
	00		 mov	 edx, DWORD PTR ?chat_send_button@@3PAUUI_OBJECT@@A
  00032	8b 02		 mov	 eax, DWORD PTR [edx]
  00034	8b 0c 85 00 00
	00 00		 mov	 ecx, DWORD PTR ?fn_get_ui_object_item_number@@3PAP6GHPAUUI_OBJECT@@@ZA[eax*4]
  0003b	ff d1		 call	 ecx
  0003d	c1 e0 04	 shl	 eax, 4
  00040	03 05 00 00 00
	00		 add	 eax, DWORD PTR ?entities@@3PAUENTITY@@A ; entities
  00046	89 45 b4	 mov	 DWORD PTR tv77[ebp], eax
  00049	eb 07		 jmp	 SHORT $LN7@notify_sen
$LN6@notify_sen:
  0004b	c7 45 b4 00 00
	00 00		 mov	 DWORD PTR tv77[ebp], 0
$LN7@notify_sen:
  00052	8b 55 b4	 mov	 edx, DWORD PTR tv77[ebp]
  00055	89 55 fc	 mov	 DWORD PTR _target$[ebp], edx

; 226  : 
; 227  : 	if (target)

  00058	83 7d fc 00	 cmp	 DWORD PTR _target$[ebp], 0
  0005c	74 46		 je	 SHORT $LN1@notify_sen

; 228  : 	{
; 229  : 		text = get_ui_object_text (chat_current_text);

  0005e	a1 00 00 00 00	 mov	 eax, DWORD PTR ?chat_current_text@@3PAUUI_OBJECT@@A
  00063	50		 push	 eax
  00064	8b 0d 00 00 00
	00		 mov	 ecx, DWORD PTR ?chat_current_text@@3PAUUI_OBJECT@@A
  0006a	8b 11		 mov	 edx, DWORD PTR [ecx]
  0006c	8b 04 95 00 00
	00 00		 mov	 eax, DWORD PTR ?fn_get_ui_object_text@@3PAP6GPBDPAUUI_OBJECT@@@ZA[edx*4]
  00073	ff d0		 call	 eax
  00075	89 45 f8	 mov	 DWORD PTR _text$[ebp], eax

; 230  : 
; 231  : 		if (text)

  00078	83 7d f8 00	 cmp	 DWORD PTR _text$[ebp], 0
  0007c	74 26		 je	 SHORT $LN1@notify_sen

; 232  : 		{
; 233  : 			if (strlen (text) > 0)

  0007e	8b 45 f8	 mov	 eax, DWORD PTR _text$[ebp]
  00081	50		 push	 eax
  00082	e8 00 00 00 00	 call	 _strlen
  00087	83 c4 04	 add	 esp, 4
  0008a	85 c0		 test	 eax, eax
  0008c	76 16		 jbe	 SHORT $LN1@notify_sen

; 234  : 			{
; 235  : 				send_text_message (get_pilot_entity (), target, MESSAGE_TEXT_PILOT_STRING, text);

  0008e	8b 45 f8	 mov	 eax, DWORD PTR _text$[ebp]
  00091	50		 push	 eax
  00092	6a 08		 push	 8
  00094	8b 4d fc	 mov	 ecx, DWORD PTR _target$[ebp]
  00097	51		 push	 ecx
  00098	8b 15 00 00 00
	00		 mov	 edx, DWORD PTR ?pilot_entity@@3PAUENTITY@@A ; pilot_entity
  0009e	52		 push	 edx
  0009f	e8 00 00 00 00	 call	 ?send_text_message@@YGXPAUENTITY@@0W4MESSAGE_TEXT_TYPES@@PBD@Z ; send_text_message
$LN1@notify_sen:

; 236  : 
; 237  : 				return;
; 238  : 			}
; 239  : 		}
; 240  : 	}
; 241  : }

  000a4	5f		 pop	 edi
  000a5	5e		 pop	 esi
  000a6	5b		 pop	 ebx
  000a7	8b e5		 mov	 esp, ebp
  000a9	5d		 pop	 ebp
  000aa	c2 08 00	 ret	 8
?notify_send_message@@YGXPAUUI_OBJECT@@PAX@Z ENDP	; notify_send_message
_TEXT	ENDS
; Function compile flags: /Odtp /ZI
; File c:\users\nhv90\projects\eech\aphavoc\source\ui_menu\ingame\campaign\ca_chat.c
;	COMDAT ?chat_input_function@@YGXPAUUI_OBJECT@@PAX@Z
_TEXT	SEGMENT
tv128 = -76						; size = 4
_text$ = -8						; size = 4
_target$ = -4						; size = 4
_obj$ = 8						; size = 4
_arg$ = 12						; size = 4
?chat_input_function@@YGXPAUUI_OBJECT@@PAX@Z PROC	; chat_input_function, COMDAT

; 182  : {

  00000	55		 push	 ebp
  00001	8b ec		 mov	 ebp, esp
  00003	83 ec 4c	 sub	 esp, 76			; 0000004cH
  00006	53		 push	 ebx
  00007	56		 push	 esi
  00008	57		 push	 edi

; 183  : 	entity 	// Jabberwock 040213 Chat send after Enter
; 184  : 		*target;
; 185  : 		
; 186  : 	const char
; 187  : 		*text;
; 188  : 		
; 189  : 	text = get_ui_object_text (chat_input);

  00009	a1 00 00 00 00	 mov	 eax, DWORD PTR ?chat_input@@3PAUUI_OBJECT@@A
  0000e	50		 push	 eax
  0000f	8b 0d 00 00 00
	00		 mov	 ecx, DWORD PTR ?chat_input@@3PAUUI_OBJECT@@A
  00015	8b 11		 mov	 edx, DWORD PTR [ecx]
  00017	8b 04 95 00 00
	00 00		 mov	 eax, DWORD PTR ?fn_get_ui_object_text@@3PAP6GPBDPAUUI_OBJECT@@@ZA[edx*4]
  0001e	ff d0		 call	 eax
  00020	89 45 f8	 mov	 DWORD PTR _text$[ebp], eax

; 190  : 
; 191  : 	if (text)

  00023	83 7d f8 00	 cmp	 DWORD PTR _text$[ebp], 0
  00027	0f 84 af 00 00
	00		 je	 $LN2@chat_input

; 192  : 	{
; 193  : 		if (strlen (text) > 0)

  0002d	8b 45 f8	 mov	 eax, DWORD PTR _text$[ebp]
  00030	50		 push	 eax
  00031	e8 00 00 00 00	 call	 _strlen
  00036	83 c4 04	 add	 esp, 4
  00039	85 c0		 test	 eax, eax
  0003b	0f 86 9b 00 00
	00		 jbe	 $LN2@chat_input

; 194  : 		{
; 195  : 			set_ui_object_text (chat_current_text, get_ui_object_text (chat_input));

  00041	a1 00 00 00 00	 mov	 eax, DWORD PTR ?chat_input@@3PAUUI_OBJECT@@A
  00046	50		 push	 eax
  00047	8b 0d 00 00 00
	00		 mov	 ecx, DWORD PTR ?chat_input@@3PAUUI_OBJECT@@A
  0004d	8b 11		 mov	 edx, DWORD PTR [ecx]
  0004f	8b 04 95 00 00
	00 00		 mov	 eax, DWORD PTR ?fn_get_ui_object_text@@3PAP6GPBDPAUUI_OBJECT@@@ZA[edx*4]
  00056	ff d0		 call	 eax
  00058	50		 push	 eax
  00059	8b 0d 00 00 00
	00		 mov	 ecx, DWORD PTR ?chat_current_text@@3PAUUI_OBJECT@@A
  0005f	51		 push	 ecx
  00060	8b 15 00 00 00
	00		 mov	 edx, DWORD PTR ?chat_current_text@@3PAUUI_OBJECT@@A
  00066	8b 02		 mov	 eax, DWORD PTR [edx]
  00068	8b 0c 85 00 00
	00 00		 mov	 ecx, DWORD PTR ?fn_set_ui_object_text@@3PAP6GXPAUUI_OBJECT@@PBD@ZA[eax*4]
  0006f	ff d1		 call	 ecx

; 196  : 
; 197  : 			// Jabberwock 040213 Chat send after Enter
; 198  : 			target = get_local_entity_safe_ptr (get_ui_object_item_number (chat_send_button));

  00071	a1 00 00 00 00	 mov	 eax, DWORD PTR ?chat_send_button@@3PAUUI_OBJECT@@A
  00076	50		 push	 eax
  00077	8b 0d 00 00 00
	00		 mov	 ecx, DWORD PTR ?chat_send_button@@3PAUUI_OBJECT@@A
  0007d	8b 11		 mov	 edx, DWORD PTR [ecx]
  0007f	8b 04 95 00 00
	00 00		 mov	 eax, DWORD PTR ?fn_get_ui_object_item_number@@3PAP6GHPAUUI_OBJECT@@@ZA[edx*4]
  00086	ff d0		 call	 eax
  00088	83 f8 ff	 cmp	 eax, -1
  0008b	74 26		 je	 SHORT $LN6@chat_input
  0008d	8b 0d 00 00 00
	00		 mov	 ecx, DWORD PTR ?chat_send_button@@3PAUUI_OBJECT@@A
  00093	51		 push	 ecx
  00094	8b 15 00 00 00
	00		 mov	 edx, DWORD PTR ?chat_send_button@@3PAUUI_OBJECT@@A
  0009a	8b 02		 mov	 eax, DWORD PTR [edx]
  0009c	8b 0c 85 00 00
	00 00		 mov	 ecx, DWORD PTR ?fn_get_ui_object_item_number@@3PAP6GHPAUUI_OBJECT@@@ZA[eax*4]
  000a3	ff d1		 call	 ecx
  000a5	c1 e0 04	 shl	 eax, 4
  000a8	03 05 00 00 00
	00		 add	 eax, DWORD PTR ?entities@@3PAUENTITY@@A ; entities
  000ae	89 45 b4	 mov	 DWORD PTR tv128[ebp], eax
  000b1	eb 07		 jmp	 SHORT $LN7@chat_input
$LN6@chat_input:
  000b3	c7 45 b4 00 00
	00 00		 mov	 DWORD PTR tv128[ebp], 0
$LN7@chat_input:
  000ba	8b 55 b4	 mov	 edx, DWORD PTR tv128[ebp]
  000bd	89 55 fc	 mov	 DWORD PTR _target$[ebp], edx

; 199  : 		
; 200  : 			if (target)

  000c0	83 7d fc 00	 cmp	 DWORD PTR _target$[ebp], 0
  000c4	74 16		 je	 SHORT $LN2@chat_input

; 201  : 			{
; 202  : 				send_text_message (get_pilot_entity (), target, MESSAGE_TEXT_PILOT_STRING, text);

  000c6	8b 45 f8	 mov	 eax, DWORD PTR _text$[ebp]
  000c9	50		 push	 eax
  000ca	6a 08		 push	 8
  000cc	8b 4d fc	 mov	 ecx, DWORD PTR _target$[ebp]
  000cf	51		 push	 ecx
  000d0	8b 15 00 00 00
	00		 mov	 edx, DWORD PTR ?pilot_entity@@3PAUENTITY@@A ; pilot_entity
  000d6	52		 push	 edx
  000d7	e8 00 00 00 00	 call	 ?send_text_message@@YGXPAUENTITY@@0W4MESSAGE_TEXT_TYPES@@PBD@Z ; send_text_message
$LN2@chat_input:

; 203  : 			}
; 204  : 			// Jabberwock 040202 ends
; 205  : 		}
; 206  : 	}
; 207  : 
; 208  : 	set_ui_object_drawable (chat_current_text, TRUE);

  000dc	6a 01		 push	 1
  000de	a1 00 00 00 00	 mov	 eax, DWORD PTR ?chat_current_text@@3PAUUI_OBJECT@@A
  000e3	50		 push	 eax
  000e4	8b 0d 00 00 00
	00		 mov	 ecx, DWORD PTR ?chat_current_text@@3PAUUI_OBJECT@@A
  000ea	8b 11		 mov	 edx, DWORD PTR [ecx]
  000ec	8b 04 95 00 00
	00 00		 mov	 eax, DWORD PTR ?fn_set_ui_object_drawable@@3PAP6GXPAUUI_OBJECT@@H@ZA[edx*4]
  000f3	ff d0		 call	 eax

; 209  : 
; 210  : 	set_ui_object_drawable (chat_input, FALSE);

  000f5	6a 00		 push	 0
  000f7	a1 00 00 00 00	 mov	 eax, DWORD PTR ?chat_input@@3PAUUI_OBJECT@@A
  000fc	50		 push	 eax
  000fd	8b 0d 00 00 00
	00		 mov	 ecx, DWORD PTR ?chat_input@@3PAUUI_OBJECT@@A
  00103	8b 11		 mov	 edx, DWORD PTR [ecx]
  00105	8b 04 95 00 00
	00 00		 mov	 eax, DWORD PTR ?fn_set_ui_object_drawable@@3PAP6GXPAUUI_OBJECT@@H@ZA[edx*4]
  0010c	ff d0		 call	 eax

; 211  : }

  0010e	5f		 pop	 edi
  0010f	5e		 pop	 esi
  00110	5b		 pop	 ebx
  00111	8b e5		 mov	 esp, ebp
  00113	5d		 pop	 ebp
  00114	c2 08 00	 ret	 8
?chat_input_function@@YGXPAUUI_OBJECT@@PAX@Z ENDP	; chat_input_function
_TEXT	ENDS
; Function compile flags: /Odtp /ZI
; File c:\users\nhv90\projects\eech\aphavoc\source\ui_menu\ingame\campaign\ca_chat.c
;	COMDAT ?chat_enter_message_function@@YGXPAUUI_OBJECT@@PAX@Z
_TEXT	SEGMENT
_obj$ = 8						; size = 4
_arg$ = 12						; size = 4
?chat_enter_message_function@@YGXPAUUI_OBJECT@@PAX@Z PROC ; chat_enter_message_function, COMDAT

; 171  : {

  00000	55		 push	 ebp
  00001	8b ec		 mov	 ebp, esp
  00003	83 ec 40	 sub	 esp, 64			; 00000040H
  00006	53		 push	 ebx
  00007	56		 push	 esi
  00008	57		 push	 edi

; 172  : 	set_ui_object_state (chat_input, UI_OBJECT_STATE_ON);

  00009	6a 01		 push	 1
  0000b	a1 00 00 00 00	 mov	 eax, DWORD PTR ?chat_input@@3PAUUI_OBJECT@@A
  00010	50		 push	 eax
  00011	8b 0d 00 00 00
	00		 mov	 ecx, DWORD PTR ?chat_input@@3PAUUI_OBJECT@@A
  00017	8b 11		 mov	 edx, DWORD PTR [ecx]
  00019	8b 04 95 00 00
	00 00		 mov	 eax, DWORD PTR ?fn_set_ui_object_state@@3PAP6GXPAUUI_OBJECT@@H@ZA[edx*4]
  00020	ff d0		 call	 eax

; 173  : 
; 174  : 	set_ui_object_drawable (chat_current_text, FALSE);

  00022	6a 00		 push	 0
  00024	a1 00 00 00 00	 mov	 eax, DWORD PTR ?chat_current_text@@3PAUUI_OBJECT@@A
  00029	50		 push	 eax
  0002a	8b 0d 00 00 00
	00		 mov	 ecx, DWORD PTR ?chat_current_text@@3PAUUI_OBJECT@@A
  00030	8b 11		 mov	 edx, DWORD PTR [ecx]
  00032	8b 04 95 00 00
	00 00		 mov	 eax, DWORD PTR ?fn_set_ui_object_drawable@@3PAP6GXPAUUI_OBJECT@@H@ZA[edx*4]
  00039	ff d0		 call	 eax

; 175  : }

  0003b	5f		 pop	 edi
  0003c	5e		 pop	 esi
  0003d	5b		 pop	 ebx
  0003e	8b e5		 mov	 esp, ebp
  00040	5d		 pop	 ebp
  00041	c2 08 00	 ret	 8
?chat_enter_message_function@@YGXPAUUI_OBJECT@@PAX@Z ENDP ; chat_enter_message_function
_TEXT	ENDS
; Function compile flags: /Odtp /ZI
; File c:\users\nhv90\projects\eech\aphavoc\source\ui_menu\ingame\campaign\ca_chat.c
;	COMDAT ?add_message_to_campaign_log@@YGHH@Z
_TEXT	SEGMENT
_col$ = -24						; size = 4
_message$ = -20						; size = 4
_s$ = -16						; size = 4
_seconds$ = -12						; size = 4
_minutes$ = -8						; size = 4
_hours$ = -4						; size = 4
_index$ = 8						; size = 4
?add_message_to_campaign_log@@YGHH@Z PROC		; add_message_to_campaign_log, COMDAT

; 522  : {

  00000	55		 push	 ebp
  00001	8b ec		 mov	 ebp, esp
  00003	83 ec 58	 sub	 esp, 88			; 00000058H
  00006	53		 push	 ebx
  00007	56		 push	 esi
  00008	57		 push	 edi

; 523  : 	int
; 524  : 		hours,
; 525  : 		minutes,
; 526  : 		seconds;
; 527  : 
; 528  : 	char
; 529  : 		*s;
; 530  : 
; 531  : 	message_log_type
; 532  : 		*message;
; 533  : 
; 534  : 	rgb_colour
; 535  : 		*col = NULL;

  00009	c7 45 e8 00 00
	00 00		 mov	 DWORD PTR _col$[ebp], 0

; 536  : 
; 537  : 	message = get_message_log (index);

  00010	8b 45 08	 mov	 eax, DWORD PTR _index$[ebp]
  00013	50		 push	 eax
  00014	e8 00 00 00 00	 call	 ?get_message_log@@YGPAUMESSAGE_LOG_TYPE@@H@Z ; get_message_log
  00019	89 45 ec	 mov	 DWORD PTR _message$[ebp], eax

; 538  : 
; 539  : 	ASSERT (message);

  0001c	83 7d ec 00	 cmp	 DWORD PTR _message$[ebp], 0
  00020	75 18		 jne	 SHORT $LN2@add_messag
  00022	a1 00 00 00 00	 mov	 eax, DWORD PTR ?__LINE__Var@?0??add_message_to_campaign_log@@YGHH@Z@4JA
  00027	83 c0 11	 add	 eax, 17			; 00000011H
  0002a	50		 push	 eax
  0002b	68 00 00 00 00	 push	 OFFSET ??_C@_0EO@PIJCMGCK@c?3?2users?2nhv90?2projects?2eech?2ap@
  00030	68 00 00 00 00	 push	 OFFSET ??_C@_07ONPBMBOP@message@
  00035	e8 00 00 00 00	 call	 ?process_assert@@YGXPBD0H@Z ; process_assert
$LN2@add_messag:

; 540  : 
; 541  : 	if (message->type == MESSAGE_TEXT_PILOT_STRING)

  0003a	8b 45 ec	 mov	 eax, DWORD PTR _message$[ebp]
  0003d	83 38 08	 cmp	 DWORD PTR [eax], 8
  00040	0f 85 ac 00 00
	00		 jne	 $LN3@add_messag

; 542  : 	{
; 543  : 		get_digital_clock_int_values (message->time_of_day, &hours, &minutes, &seconds);

  00046	8d 45 f4	 lea	 eax, DWORD PTR _seconds$[ebp]
  00049	50		 push	 eax
  0004a	8d 4d f8	 lea	 ecx, DWORD PTR _minutes$[ebp]
  0004d	51		 push	 ecx
  0004e	8d 55 fc	 lea	 edx, DWORD PTR _hours$[ebp]
  00051	52		 push	 edx
  00052	8b 45 ec	 mov	 eax, DWORD PTR _message$[ebp]
  00055	51		 push	 ecx
  00056	f3 0f 10 40 08	 movss	 xmm0, DWORD PTR [eax+8]
  0005b	f3 0f 11 04 24	 movss	 DWORD PTR [esp], xmm0
  00060	e8 00 00 00 00	 call	 ?get_digital_clock_int_values@@YGXMPAH00@Z ; get_digital_clock_int_values

; 544  : 	
; 545  : 		s = (char *) malloc_fast_mem (strlen (message->string) + 20);

  00065	8b 45 ec	 mov	 eax, DWORD PTR _message$[ebp]
  00068	8b 48 1c	 mov	 ecx, DWORD PTR [eax+28]
  0006b	51		 push	 ecx
  0006c	e8 00 00 00 00	 call	 _strlen
  00071	83 c4 04	 add	 esp, 4
  00074	83 c0 14	 add	 eax, 20			; 00000014H
  00077	50		 push	 eax
  00078	e8 00 00 00 00	 call	 ?malloc_fast_memory@@YGPAXI@Z ; malloc_fast_memory
  0007d	89 45 f0	 mov	 DWORD PTR _s$[ebp], eax

; 546  : 	
; 547  : 		sprintf (s, "[%02d:%02d] %s", hours, minutes, message->string);

  00080	8b 45 ec	 mov	 eax, DWORD PTR _message$[ebp]
  00083	8b 48 1c	 mov	 ecx, DWORD PTR [eax+28]
  00086	51		 push	 ecx
  00087	8b 55 f8	 mov	 edx, DWORD PTR _minutes$[ebp]
  0008a	52		 push	 edx
  0008b	8b 45 fc	 mov	 eax, DWORD PTR _hours$[ebp]
  0008e	50		 push	 eax
  0008f	68 00 00 00 00	 push	 OFFSET ??_C@_0P@OKCGHNEC@?$FL?$CF02d?3?$CF02d?$FN?5?$CFs@
  00094	8b 4d f0	 mov	 ecx, DWORD PTR _s$[ebp]
  00097	51		 push	 ecx
  00098	e8 00 00 00 00	 call	 _sprintf
  0009d	83 c4 14	 add	 esp, 20			; 00000014H

; 548  : 	
; 549  : 		col = &(message->colour);

  000a0	8b 45 ec	 mov	 eax, DWORD PTR _message$[ebp]
  000a3	83 c0 18	 add	 eax, 24			; 00000018H
  000a6	89 45 e8	 mov	 DWORD PTR _col$[ebp], eax

; 550  : 	
; 551  : 		ASSERT (col);

  000a9	75 18		 jne	 SHORT $LN5@add_messag
  000ab	a1 00 00 00 00	 mov	 eax, DWORD PTR ?__LINE__Var@?0??add_message_to_campaign_log@@YGHH@Z@4JA
  000b0	83 c0 1d	 add	 eax, 29			; 0000001dH
  000b3	50		 push	 eax
  000b4	68 00 00 00 00	 push	 OFFSET ??_C@_0EO@PIJCMGCK@c?3?2users?2nhv90?2projects?2eech?2ap@
  000b9	68 00 00 00 00	 push	 OFFSET ??_C@_03HNOLNALI@col@
  000be	e8 00 00 00 00	 call	 ?process_assert@@YGXPBD0H@Z ; process_assert
$LN5@add_messag:

; 552  : 	
; 553  : 		add_to_pop_up_list (s, chat_message_list, NULL, index, -1, *col);

  000c3	8b 45 e8	 mov	 eax, DWORD PTR _col$[ebp]
  000c6	8b 08		 mov	 ecx, DWORD PTR [eax]
  000c8	51		 push	 ecx
  000c9	6a ff		 push	 -1
  000cb	8b 55 08	 mov	 edx, DWORD PTR _index$[ebp]
  000ce	52		 push	 edx
  000cf	6a 00		 push	 0
  000d1	a1 00 00 00 00	 mov	 eax, DWORD PTR ?chat_message_list@@3PAUUI_OBJECT@@A
  000d6	50		 push	 eax
  000d7	8b 4d f0	 mov	 ecx, DWORD PTR _s$[ebp]
  000da	51		 push	 ecx
  000db	e8 00 00 00 00	 call	 ?add_to_pop_up_list@@YGPAUUI_OBJECT@@PBDPAU1@1HHUREAL_COLOUR@@@Z ; add_to_pop_up_list

; 554  : 	
; 555  : 		free_mem (s);

  000e0	8b 45 f0	 mov	 eax, DWORD PTR _s$[ebp]
  000e3	50		 push	 eax
  000e4	e8 00 00 00 00	 call	 ?free_mem@@YGXPAX@Z	; free_mem

; 556  : 	
; 557  : 		return TRUE;

  000e9	b8 01 00 00 00	 mov	 eax, 1
  000ee	eb 04		 jmp	 SHORT $LN4@add_messag

; 558  : 	}
; 559  : 	else

  000f0	eb 02		 jmp	 SHORT $LN4@add_messag
$LN3@add_messag:

; 560  : 	{
; 561  : 		return FALSE;

  000f2	33 c0		 xor	 eax, eax
$LN4@add_messag:

; 562  : 	}
; 563  : }

  000f4	5f		 pop	 edi
  000f5	5e		 pop	 esi
  000f6	5b		 pop	 ebx
  000f7	8b e5		 mov	 esp, ebp
  000f9	5d		 pop	 ebp
  000fa	c2 04 00	 ret	 4
?add_message_to_campaign_log@@YGHH@Z ENDP		; add_message_to_campaign_log
_TEXT	ENDS
; Function compile flags: /Odtp /ZI
; File c:\users\nhv90\projects\eech\aphavoc\source\ui_menu\ingame\campaign\ca_chat.c
;	COMDAT ?build_chat_message_list@@YGXXZ
_TEXT	SEGMENT
_count$ = -12						; size = 4
_start$ = -8						; size = 4
_loop$ = -4						; size = 4
?build_chat_message_list@@YGXXZ PROC			; build_chat_message_list, COMDAT

; 394  : {

  00000	55		 push	 ebp
  00001	8b ec		 mov	 ebp, esp
  00003	83 ec 4c	 sub	 esp, 76			; 0000004cH
  00006	53		 push	 ebx
  00007	56		 push	 esi
  00008	57		 push	 edi

; 395  : 	int
; 396  : 		loop,
; 397  : 		start,
; 398  : 		count;
; 399  : 
; 400  : 	//
; 401  : 	// Show Previous Messages
; 402  : 	//
; 403  : 	
; 404  : 	ui_object_destroy_list_items (chat_message_list);

  00009	a1 00 00 00 00	 mov	 eax, DWORD PTR ?chat_message_list@@3PAUUI_OBJECT@@A
  0000e	50		 push	 eax
  0000f	e8 00 00 00 00	 call	 ?ui_object_destroy_list_items@@YGXPAUUI_OBJECT@@@Z ; ui_object_destroy_list_items

; 405  : 
; 406  : 	start = get_message_log_number_of_messages () - 1;

  00014	e8 00 00 00 00	 call	 ?get_message_log_number_of_messages@@YGHXZ ; get_message_log_number_of_messages
  00019	83 e8 01	 sub	 eax, 1
  0001c	89 45 f8	 mov	 DWORD PTR _start$[ebp], eax

; 407  : 
; 408  : 	count = 0;

  0001f	c7 45 f4 00 00
	00 00		 mov	 DWORD PTR _count$[ebp], 0

; 409  : 
; 410  : 	for (loop = start; loop >= 0; loop --)

  00026	8b 45 f8	 mov	 eax, DWORD PTR _start$[ebp]
  00029	89 45 fc	 mov	 DWORD PTR _loop$[ebp], eax
  0002c	eb 09		 jmp	 SHORT $LN4@build_chat
$LN2@build_chat:
  0002e	8b 45 fc	 mov	 eax, DWORD PTR _loop$[ebp]
  00031	83 e8 01	 sub	 eax, 1
  00034	89 45 fc	 mov	 DWORD PTR _loop$[ebp], eax
$LN4@build_chat:
  00037	83 7d fc 00	 cmp	 DWORD PTR _loop$[ebp], 0
  0003b	7c 20		 jl	 SHORT $LN3@build_chat

; 411  : 	{
; 412  : 		if (add_message_to_campaign_log (loop))

  0003d	8b 45 fc	 mov	 eax, DWORD PTR _loop$[ebp]
  00040	50		 push	 eax
  00041	e8 00 00 00 00	 call	 ?add_message_to_campaign_log@@YGHH@Z ; add_message_to_campaign_log
  00046	85 c0		 test	 eax, eax
  00048	74 11		 je	 SHORT $LN5@build_chat

; 413  : 		{
; 414  : 			count ++;

  0004a	8b 45 f4	 mov	 eax, DWORD PTR _count$[ebp]
  0004d	83 c0 01	 add	 eax, 1
  00050	89 45 f4	 mov	 DWORD PTR _count$[ebp], eax

; 415  : 
; 416  : 			if (count > 50)

  00053	83 7d f4 32	 cmp	 DWORD PTR _count$[ebp], 50 ; 00000032H
  00057	7e 02		 jle	 SHORT $LN5@build_chat

; 417  : 			{
; 418  : 				break;

  00059	eb 02		 jmp	 SHORT $LN3@build_chat
$LN5@build_chat:

; 419  : 			}
; 420  : 		}
; 421  : 	}

  0005b	eb d1		 jmp	 SHORT $LN2@build_chat
$LN3@build_chat:

; 422  : 
; 423  : 	resize_pop_up_list (chat_message_list);

  0005d	a1 00 00 00 00	 mov	 eax, DWORD PTR ?chat_message_list@@3PAUUI_OBJECT@@A
  00062	50		 push	 eax
  00063	e8 00 00 00 00	 call	 ?resize_pop_up_list@@YGXPAUUI_OBJECT@@@Z ; resize_pop_up_list

; 424  : }

  00068	5f		 pop	 edi
  00069	5e		 pop	 esi
  0006a	5b		 pop	 ebx
  0006b	8b e5		 mov	 esp, ebp
  0006d	5d		 pop	 ebp
  0006e	c3		 ret	 0
?build_chat_message_list@@YGXXZ ENDP			; build_chat_message_list
_TEXT	ENDS
; Function compile flags: /Odtp /ZI
; File c:\users\nhv90\projects\eech\aphavoc\source\ui_menu\ingame\campaign\ca_chat.c
;	COMDAT ?build_chat_target_list@@YGXXZ
_TEXT	SEGMENT
tv363 = -88						; size = 4
tv343 = -88						; size = 4
tv303 = -88						; size = 4
tv280 = -88						; size = 4
tv259 = -88						; size = 4
tv227 = -88						; size = 4
tv187 = -88						; size = 4
tv165 = -88						; size = 4
tv355 = -84						; size = 4
tv335 = -84						; size = 4
tv317 = -84						; size = 4
tv295 = -84						; size = 4
tv272 = -84						; size = 4
tv251 = -84						; size = 4
tv219 = -84						; size = 4
tv201 = -84						; size = 4
tv179 = -84						; size = 4
tv157 = -84						; size = 4
tv139 = -84						; size = 4
tv77 = -84						; size = 4
_current_target$ = -16					; size = 4
_pilot$ = -12						; size = 4
_force$ = -8						; size = 4
_new_item$ = -4						; size = 4
?build_chat_target_list@@YGXXZ PROC			; build_chat_target_list, COMDAT

; 293  : {

  00000	55		 push	 ebp
  00001	8b ec		 mov	 ebp, esp
  00003	83 ec 58	 sub	 esp, 88			; 00000058H
  00006	53		 push	 ebx
  00007	56		 push	 esi
  00008	57		 push	 edi

; 294  : 	ui_object
; 295  : 		*new_item;
; 296  : 
; 297  : 	entity
; 298  : 		*force,
; 299  : 		*pilot,
; 300  : 		*current_target;
; 301  : 
; 302  : 	static char
; 303  : 		s [128];
; 304  : 
; 305  : 	current_target = get_local_entity_safe_ptr (get_ui_object_item_number (chat_send_button));

  00009	a1 00 00 00 00	 mov	 eax, DWORD PTR ?chat_send_button@@3PAUUI_OBJECT@@A
  0000e	50		 push	 eax
  0000f	8b 0d 00 00 00
	00		 mov	 ecx, DWORD PTR ?chat_send_button@@3PAUUI_OBJECT@@A
  00015	8b 11		 mov	 edx, DWORD PTR [ecx]
  00017	8b 04 95 00 00
	00 00		 mov	 eax, DWORD PTR ?fn_get_ui_object_item_number@@3PAP6GHPAUUI_OBJECT@@@ZA[edx*4]
  0001e	ff d0		 call	 eax
  00020	83 f8 ff	 cmp	 eax, -1
  00023	74 26		 je	 SHORT $LN14@build_chat
  00025	8b 0d 00 00 00
	00		 mov	 ecx, DWORD PTR ?chat_send_button@@3PAUUI_OBJECT@@A
  0002b	51		 push	 ecx
  0002c	8b 15 00 00 00
	00		 mov	 edx, DWORD PTR ?chat_send_button@@3PAUUI_OBJECT@@A
  00032	8b 02		 mov	 eax, DWORD PTR [edx]
  00034	8b 0c 85 00 00
	00 00		 mov	 ecx, DWORD PTR ?fn_get_ui_object_item_number@@3PAP6GHPAUUI_OBJECT@@@ZA[eax*4]
  0003b	ff d1		 call	 ecx
  0003d	c1 e0 04	 shl	 eax, 4
  00040	03 05 00 00 00
	00		 add	 eax, DWORD PTR ?entities@@3PAUENTITY@@A ; entities
  00046	89 45 ac	 mov	 DWORD PTR tv77[ebp], eax
  00049	eb 07		 jmp	 SHORT $LN15@build_chat
$LN14@build_chat:
  0004b	c7 45 ac 00 00
	00 00		 mov	 DWORD PTR tv77[ebp], 0
$LN15@build_chat:
  00052	8b 55 ac	 mov	 edx, DWORD PTR tv77[ebp]
  00055	89 55 f0	 mov	 DWORD PTR _current_target$[ebp], edx

; 306  : 
; 307  : 	ui_object_destroy_list_items (chat_target_list);

  00058	a1 00 00 00 00	 mov	 eax, DWORD PTR ?chat_target_list@@3PAUUI_OBJECT@@A
  0005d	50		 push	 eax
  0005e	e8 00 00 00 00	 call	 ?ui_object_destroy_list_items@@YGXPAUUI_OBJECT@@@Z ; ui_object_destroy_list_items

; 308  : 
; 309  : 	sprintf (s, "%s", get_trans ("Side"));

  00063	68 00 00 00 00	 push	 OFFSET ??_C@_04FHBEPJGO@Side@
  00068	e8 00 00 00 00	 call	 ?get_trans@@YGPBDPBD@Z	; get_trans
  0006d	50		 push	 eax
  0006e	68 00 00 00 00	 push	 OFFSET ??_C@_02DKCKIIND@?$CFs@
  00073	68 00 00 00 00	 push	 OFFSET ?s@?1??build_chat_target_list@@YGXXZ@4PADA
  00078	e8 00 00 00 00	 call	 _sprintf
  0007d	83 c4 0c	 add	 esp, 12			; 0000000cH

; 310  : 
; 311  : 	new_item = add_to_pop_up_list (s, chat_target_list, NULL, ENTITY_INDEX_DONT_CARE, UI_FONT_ARIAL_16, ui_ingame_dead_text_colour);

  00080	a1 00 00 00 00	 mov	 eax, DWORD PTR ?ui_ingame_dead_text_colour@@3UREAL_COLOUR@@A ; ui_ingame_dead_text_colour
  00085	50		 push	 eax
  00086	6a 03		 push	 3
  00088	6a ff		 push	 -1
  0008a	6a 00		 push	 0
  0008c	8b 0d 00 00 00
	00		 mov	 ecx, DWORD PTR ?chat_target_list@@3PAUUI_OBJECT@@A
  00092	51		 push	 ecx
  00093	68 00 00 00 00	 push	 OFFSET ?s@?1??build_chat_target_list@@YGXXZ@4PADA
  00098	e8 00 00 00 00	 call	 ?add_to_pop_up_list@@YGPAUUI_OBJECT@@PBDPAU1@1HHUREAL_COLOUR@@@Z ; add_to_pop_up_list
  0009d	89 45 fc	 mov	 DWORD PTR _new_item$[ebp], eax

; 312  : 
; 313  : 	//
; 314  : 	// All 
; 315  : 	//
; 316  : 
; 317  : 	ASSERT (get_session_entity ());

  000a0	83 3d 00 00 00
	00 00		 cmp	 DWORD PTR ?session_entity@@3PAUENTITY@@A, 0 ; session_entity
  000a7	75 18		 jne	 SHORT $LN8@build_chat
  000a9	a1 00 00 00 00	 mov	 eax, DWORD PTR ?__LINE__Var@?0??build_chat_target_list@@YGXXZ@4JA
  000ae	83 c0 18	 add	 eax, 24			; 00000018H
  000b1	50		 push	 eax
  000b2	68 00 00 00 00	 push	 OFFSET ??_C@_0EO@PIJCMGCK@c?3?2users?2nhv90?2projects?2eech?2ap@
  000b7	68 00 00 00 00	 push	 OFFSET ??_C@_0BG@EFCJJKAA@get_session_entity?5?$CI?$CJ@
  000bc	e8 00 00 00 00	 call	 ?process_assert@@YGXPBD0H@Z ; process_assert
$LN8@build_chat:

; 318  : 
; 319  : 	sprintf (s, "%s", get_trans ("CHAT_TARGET_ALL"));

  000c1	68 00 00 00 00	 push	 OFFSET ??_C@_0BA@LBICKMKJ@CHAT_TARGET_ALL@
  000c6	e8 00 00 00 00	 call	 ?get_trans@@YGPBDPBD@Z	; get_trans
  000cb	50		 push	 eax
  000cc	68 00 00 00 00	 push	 OFFSET ??_C@_02DKCKIIND@?$CFs@
  000d1	68 00 00 00 00	 push	 OFFSET ?s@?1??build_chat_target_list@@YGXXZ@4PADA
  000d6	e8 00 00 00 00	 call	 _sprintf
  000db	83 c4 0c	 add	 esp, 12			; 0000000cH

; 320  : 
; 321  : 	new_item = add_to_pop_up_list (s, chat_target_list, NULL, get_local_entity_safe_index (get_session_entity ()), UI_FONT_ARIAL_16, ui_ingame_live_text_colour);

  000de	83 3d 00 00 00
	00 00		 cmp	 DWORD PTR ?session_entity@@3PAUENTITY@@A, 0 ; session_entity
  000e5	74 13		 je	 SHORT $LN16@build_chat
  000e7	a1 00 00 00 00	 mov	 eax, DWORD PTR ?session_entity@@3PAUENTITY@@A ; session_entity
  000ec	2b 05 00 00 00
	00		 sub	 eax, DWORD PTR ?entities@@3PAUENTITY@@A ; entities
  000f2	c1 f8 04	 sar	 eax, 4
  000f5	89 45 ac	 mov	 DWORD PTR tv139[ebp], eax
  000f8	eb 07		 jmp	 SHORT $LN17@build_chat
$LN16@build_chat:
  000fa	c7 45 ac ff ff
	ff ff		 mov	 DWORD PTR tv139[ebp], -1
$LN17@build_chat:
  00101	8b 0d 00 00 00
	00		 mov	 ecx, DWORD PTR ?ui_ingame_live_text_colour@@3UREAL_COLOUR@@A ; ui_ingame_live_text_colour
  00107	51		 push	 ecx
  00108	6a 03		 push	 3
  0010a	8b 55 ac	 mov	 edx, DWORD PTR tv139[ebp]
  0010d	52		 push	 edx
  0010e	6a 00		 push	 0
  00110	a1 00 00 00 00	 mov	 eax, DWORD PTR ?chat_target_list@@3PAUUI_OBJECT@@A
  00115	50		 push	 eax
  00116	68 00 00 00 00	 push	 OFFSET ?s@?1??build_chat_target_list@@YGXXZ@4PADA
  0011b	e8 00 00 00 00	 call	 ?add_to_pop_up_list@@YGPAUUI_OBJECT@@PBDPAU1@1HHUREAL_COLOUR@@@Z ; add_to_pop_up_list
  00120	89 45 fc	 mov	 DWORD PTR _new_item$[ebp], eax

; 322  : 
; 323  : 	set_ingame_ui_object_mouse_over_properties (new_item);

  00123	8b 45 fc	 mov	 eax, DWORD PTR _new_item$[ebp]
  00126	50		 push	 eax
  00127	e8 00 00 00 00	 call	 ?set_ingame_ui_object_mouse_over_properties@@YGXPAUUI_OBJECT@@@Z ; set_ingame_ui_object_mouse_over_properties

; 324  : 
; 325  : 	if (get_session_entity () == current_target)

  0012c	a1 00 00 00 00	 mov	 eax, DWORD PTR ?session_entity@@3PAUENTITY@@A ; session_entity
  00131	3b 45 f0	 cmp	 eax, DWORD PTR _current_target$[ebp]
  00134	75 14		 jne	 SHORT $LN9@build_chat

; 326  : 	{
; 327  : 		set_ui_object_state (new_item, UI_OBJECT_STATE_ON);

  00136	6a 01		 push	 1
  00138	8b 45 fc	 mov	 eax, DWORD PTR _new_item$[ebp]
  0013b	50		 push	 eax
  0013c	8b 4d fc	 mov	 ecx, DWORD PTR _new_item$[ebp]
  0013f	8b 11		 mov	 edx, DWORD PTR [ecx]
  00141	8b 04 95 00 00
	00 00		 mov	 eax, DWORD PTR ?fn_set_ui_object_state@@3PAP6GXPAUUI_OBJECT@@H@ZA[edx*4]
  00148	ff d0		 call	 eax
$LN9@build_chat:

; 328  : 	}
; 329  : 
; 330  : 	//
; 331  : 	// Sides
; 332  : 	//
; 333  : 
; 334  : 	force = get_local_entity_first_child (get_session_entity (), LIST_TYPE_FORCE);

  0014a	83 3d 00 00 00
	00 00		 cmp	 DWORD PTR ?session_entity@@3PAUENTITY@@A, 0 ; session_entity
  00151	74 0c		 je	 SHORT $LN18@build_chat
  00153	a1 00 00 00 00	 mov	 eax, DWORD PTR ?session_entity@@3PAUENTITY@@A ; session_entity
  00158	8b 08		 mov	 ecx, DWORD PTR [eax]
  0015a	89 4d ac	 mov	 DWORD PTR tv157[ebp], ecx
  0015d	eb 21		 jmp	 SHORT $LN19@build_chat
$LN18@build_chat:
  0015f	8b 15 00 00 00
	00		 mov	 edx, DWORD PTR ?__LINE__Var@?0??build_chat_target_list@@YGXXZ@4JA
  00165	83 c2 29	 add	 edx, 41			; 00000029H
  00168	52		 push	 edx
  00169	68 00 00 00 00	 push	 OFFSET ??_C@_0EO@PIJCMGCK@c?3?2users?2nhv90?2projects?2eech?2ap@
  0016e	a1 00 00 00 00	 mov	 eax, DWORD PTR ?null_entity_pointer_message@@3PBDB ; null_entity_pointer_message
  00173	50		 push	 eax
  00174	e8 00 00 00 00	 call	 ?process_assert@@YGXPBD0H@Z ; process_assert
  00179	c7 45 ac 00 00
	00 00		 mov	 DWORD PTR tv157[ebp], 0
$LN19@build_chat:
  00180	b9 01 00 00 00	 mov	 ecx, 1
  00185	85 c9		 test	 ecx, ecx
  00187	74 09		 je	 SHORT $LN20@build_chat
  00189	c7 45 a8 0e 00
	00 00		 mov	 DWORD PTR tv165[ebp], 14 ; 0000000eH
  00190	eb 21		 jmp	 SHORT $LN21@build_chat
$LN20@build_chat:
  00192	8b 15 00 00 00
	00		 mov	 edx, DWORD PTR ?__LINE__Var@?0??build_chat_target_list@@YGXXZ@4JA
  00198	83 c2 29	 add	 edx, 41			; 00000029H
  0019b	52		 push	 edx
  0019c	68 00 00 00 00	 push	 OFFSET ??_C@_0EO@PIJCMGCK@c?3?2users?2nhv90?2projects?2eech?2ap@
  001a1	a1 00 00 00 00	 mov	 eax, DWORD PTR ?overload_invalid_list_type_message@@3PBDB ; overload_invalid_list_type_message
  001a6	50		 push	 eax
  001a7	e8 00 00 00 00	 call	 ?process_assert@@YGXPBD0H@Z ; process_assert
  001ac	c7 45 a8 00 00
	00 00		 mov	 DWORD PTR tv165[ebp], 0
$LN21@build_chat:
  001b3	6a 0e		 push	 14			; 0000000eH
  001b5	8b 0d 00 00 00
	00		 mov	 ecx, DWORD PTR ?session_entity@@3PAUENTITY@@A ; session_entity
  001bb	51		 push	 ecx
  001bc	69 55 ac b4 00
	00 00		 imul	 edx, DWORD PTR tv157[ebp], 180
  001c3	8b 45 a8	 mov	 eax, DWORD PTR tv165[ebp]
  001c6	8b 8c 82 00 00
	00 00		 mov	 ecx, DWORD PTR ?fn_get_local_entity_first_child@@3PAY0CN@P6GPAUENTITY@@PAU1@W4LIST_TYPES@@@ZA[edx+eax*4]
  001cd	ff d1		 call	 ecx
  001cf	89 45 f8	 mov	 DWORD PTR _force$[ebp], eax
$LN2@build_chat:

; 335  : 
; 336  : 	while (force)

  001d2	83 7d f8 00	 cmp	 DWORD PTR _force$[ebp], 0
  001d6	0f 84 77 01 00
	00		 je	 $LN3@build_chat

; 337  : 	{
; 338  : 		sprintf (s, "%s", get_local_entity_string (force, STRING_TYPE_FORCE_NAME));

  001dc	83 7d f8 00	 cmp	 DWORD PTR _force$[ebp], 0
  001e0	74 0a		 je	 SHORT $LN22@build_chat
  001e2	8b 45 f8	 mov	 eax, DWORD PTR _force$[ebp]
  001e5	8b 08		 mov	 ecx, DWORD PTR [eax]
  001e7	89 4d ac	 mov	 DWORD PTR tv179[ebp], ecx
  001ea	eb 21		 jmp	 SHORT $LN23@build_chat
$LN22@build_chat:
  001ec	8b 15 00 00 00
	00		 mov	 edx, DWORD PTR ?__LINE__Var@?0??build_chat_target_list@@YGXXZ@4JA
  001f2	83 c2 2d	 add	 edx, 45			; 0000002dH
  001f5	52		 push	 edx
  001f6	68 00 00 00 00	 push	 OFFSET ??_C@_0EO@PIJCMGCK@c?3?2users?2nhv90?2projects?2eech?2ap@
  001fb	a1 00 00 00 00	 mov	 eax, DWORD PTR ?null_entity_pointer_message@@3PBDB ; null_entity_pointer_message
  00200	50		 push	 eax
  00201	e8 00 00 00 00	 call	 ?process_assert@@YGXPBD0H@Z ; process_assert
  00206	c7 45 ac 00 00
	00 00		 mov	 DWORD PTR tv179[ebp], 0
$LN23@build_chat:
  0020d	b9 01 00 00 00	 mov	 ecx, 1
  00212	85 c9		 test	 ecx, ecx
  00214	74 09		 je	 SHORT $LN24@build_chat
  00216	c7 45 a8 02 00
	00 00		 mov	 DWORD PTR tv187[ebp], 2
  0021d	eb 21		 jmp	 SHORT $LN25@build_chat
$LN24@build_chat:
  0021f	8b 15 00 00 00
	00		 mov	 edx, DWORD PTR ?__LINE__Var@?0??build_chat_target_list@@YGXXZ@4JA
  00225	83 c2 2d	 add	 edx, 45			; 0000002dH
  00228	52		 push	 edx
  00229	68 00 00 00 00	 push	 OFFSET ??_C@_0EO@PIJCMGCK@c?3?2users?2nhv90?2projects?2eech?2ap@
  0022e	a1 00 00 00 00	 mov	 eax, DWORD PTR ?overload_invalid_string_type_message@@3PBDB ; overload_invalid_string_type_message
  00233	50		 push	 eax
  00234	e8 00 00 00 00	 call	 ?process_assert@@YGXPBD0H@Z ; process_assert
  00239	c7 45 a8 00 00
	00 00		 mov	 DWORD PTR tv187[ebp], 0
$LN25@build_chat:
  00240	6a 02		 push	 2
  00242	8b 4d f8	 mov	 ecx, DWORD PTR _force$[ebp]
  00245	51		 push	 ecx
  00246	6b 55 ac 34	 imul	 edx, DWORD PTR tv179[ebp], 52
  0024a	8b 45 a8	 mov	 eax, DWORD PTR tv187[ebp]
  0024d	8b 8c 82 00 00
	00 00		 mov	 ecx, DWORD PTR ?fn_get_local_entity_string@@3PAY0N@P6GPBDPAUENTITY@@W4STRING_TYPES@@@ZA[edx+eax*4]
  00254	ff d1		 call	 ecx
  00256	50		 push	 eax
  00257	68 00 00 00 00	 push	 OFFSET ??_C@_02DKCKIIND@?$CFs@
  0025c	68 00 00 00 00	 push	 OFFSET ?s@?1??build_chat_target_list@@YGXXZ@4PADA
  00261	e8 00 00 00 00	 call	 _sprintf
  00266	83 c4 0c	 add	 esp, 12			; 0000000cH

; 339  : 
; 340  : 		new_item = add_to_pop_up_list (s, chat_target_list, NULL, get_local_entity_safe_index (force), UI_FONT_ARIAL_16, ui_ingame_live_text_colour);

  00269	83 7d f8 00	 cmp	 DWORD PTR _force$[ebp], 0
  0026d	74 11		 je	 SHORT $LN26@build_chat
  0026f	8b 45 f8	 mov	 eax, DWORD PTR _force$[ebp]
  00272	2b 05 00 00 00
	00		 sub	 eax, DWORD PTR ?entities@@3PAUENTITY@@A ; entities
  00278	c1 f8 04	 sar	 eax, 4
  0027b	89 45 ac	 mov	 DWORD PTR tv201[ebp], eax
  0027e	eb 07		 jmp	 SHORT $LN27@build_chat
$LN26@build_chat:
  00280	c7 45 ac ff ff
	ff ff		 mov	 DWORD PTR tv201[ebp], -1
$LN27@build_chat:
  00287	8b 0d 00 00 00
	00		 mov	 ecx, DWORD PTR ?ui_ingame_live_text_colour@@3UREAL_COLOUR@@A ; ui_ingame_live_text_colour
  0028d	51		 push	 ecx
  0028e	6a 03		 push	 3
  00290	8b 55 ac	 mov	 edx, DWORD PTR tv201[ebp]
  00293	52		 push	 edx
  00294	6a 00		 push	 0
  00296	a1 00 00 00 00	 mov	 eax, DWORD PTR ?chat_target_list@@3PAUUI_OBJECT@@A
  0029b	50		 push	 eax
  0029c	68 00 00 00 00	 push	 OFFSET ?s@?1??build_chat_target_list@@YGXXZ@4PADA
  002a1	e8 00 00 00 00	 call	 ?add_to_pop_up_list@@YGPAUUI_OBJECT@@PBDPAU1@1HHUREAL_COLOUR@@@Z ; add_to_pop_up_list
  002a6	89 45 fc	 mov	 DWORD PTR _new_item$[ebp], eax

; 341  : 
; 342  : 		set_ingame_ui_object_mouse_over_properties (new_item);

  002a9	8b 45 fc	 mov	 eax, DWORD PTR _new_item$[ebp]
  002ac	50		 push	 eax
  002ad	e8 00 00 00 00	 call	 ?set_ingame_ui_object_mouse_over_properties@@YGXPAUUI_OBJECT@@@Z ; set_ingame_ui_object_mouse_over_properties

; 343  : 
; 344  : 		if (force == current_target)

  002b2	8b 45 f8	 mov	 eax, DWORD PTR _force$[ebp]
  002b5	3b 45 f0	 cmp	 eax, DWORD PTR _current_target$[ebp]
  002b8	75 14		 jne	 SHORT $LN10@build_chat

; 345  : 		{
; 346  : 			set_ui_object_state (new_item, UI_OBJECT_STATE_ON);

  002ba	6a 01		 push	 1
  002bc	8b 45 fc	 mov	 eax, DWORD PTR _new_item$[ebp]
  002bf	50		 push	 eax
  002c0	8b 4d fc	 mov	 ecx, DWORD PTR _new_item$[ebp]
  002c3	8b 11		 mov	 edx, DWORD PTR [ecx]
  002c5	8b 04 95 00 00
	00 00		 mov	 eax, DWORD PTR ?fn_set_ui_object_state@@3PAP6GXPAUUI_OBJECT@@H@ZA[edx*4]
  002cc	ff d0		 call	 eax
$LN10@build_chat:

; 347  : 		}
; 348  : 
; 349  : 		force = get_local_entity_child_succ (force, LIST_TYPE_FORCE);

  002ce	83 7d f8 00	 cmp	 DWORD PTR _force$[ebp], 0
  002d2	74 0a		 je	 SHORT $LN28@build_chat
  002d4	8b 45 f8	 mov	 eax, DWORD PTR _force$[ebp]
  002d7	8b 08		 mov	 ecx, DWORD PTR [eax]
  002d9	89 4d ac	 mov	 DWORD PTR tv219[ebp], ecx
  002dc	eb 21		 jmp	 SHORT $LN29@build_chat
$LN28@build_chat:
  002de	8b 15 00 00 00
	00		 mov	 edx, DWORD PTR ?__LINE__Var@?0??build_chat_target_list@@YGXXZ@4JA
  002e4	83 c2 38	 add	 edx, 56			; 00000038H
  002e7	52		 push	 edx
  002e8	68 00 00 00 00	 push	 OFFSET ??_C@_0EO@PIJCMGCK@c?3?2users?2nhv90?2projects?2eech?2ap@
  002ed	a1 00 00 00 00	 mov	 eax, DWORD PTR ?null_entity_pointer_message@@3PBDB ; null_entity_pointer_message
  002f2	50		 push	 eax
  002f3	e8 00 00 00 00	 call	 ?process_assert@@YGXPBD0H@Z ; process_assert
  002f8	c7 45 ac 00 00
	00 00		 mov	 DWORD PTR tv219[ebp], 0
$LN29@build_chat:
  002ff	b9 01 00 00 00	 mov	 ecx, 1
  00304	85 c9		 test	 ecx, ecx
  00306	74 09		 je	 SHORT $LN30@build_chat
  00308	c7 45 a8 0e 00
	00 00		 mov	 DWORD PTR tv227[ebp], 14 ; 0000000eH
  0030f	eb 21		 jmp	 SHORT $LN31@build_chat
$LN30@build_chat:
  00311	8b 15 00 00 00
	00		 mov	 edx, DWORD PTR ?__LINE__Var@?0??build_chat_target_list@@YGXXZ@4JA
  00317	83 c2 38	 add	 edx, 56			; 00000038H
  0031a	52		 push	 edx
  0031b	68 00 00 00 00	 push	 OFFSET ??_C@_0EO@PIJCMGCK@c?3?2users?2nhv90?2projects?2eech?2ap@
  00320	a1 00 00 00 00	 mov	 eax, DWORD PTR ?overload_invalid_list_type_message@@3PBDB ; overload_invalid_list_type_message
  00325	50		 push	 eax
  00326	e8 00 00 00 00	 call	 ?process_assert@@YGXPBD0H@Z ; process_assert
  0032b	c7 45 a8 00 00
	00 00		 mov	 DWORD PTR tv227[ebp], 0
$LN31@build_chat:
  00332	6a 0e		 push	 14			; 0000000eH
  00334	8b 4d f8	 mov	 ecx, DWORD PTR _force$[ebp]
  00337	51		 push	 ecx
  00338	69 55 ac b4 00
	00 00		 imul	 edx, DWORD PTR tv219[ebp], 180
  0033f	8b 45 a8	 mov	 eax, DWORD PTR tv227[ebp]
  00342	8b 8c 82 00 00
	00 00		 mov	 ecx, DWORD PTR ?fn_get_local_entity_child_succ@@3PAY0CN@P6GPAUENTITY@@PAU1@W4LIST_TYPES@@@ZA[edx+eax*4]
  00349	ff d1		 call	 ecx
  0034b	89 45 f8	 mov	 DWORD PTR _force$[ebp], eax

; 350  : 	}

  0034e	e9 7f fe ff ff	 jmp	 $LN2@build_chat
$LN3@build_chat:

; 351  : 
; 352  : 	//
; 353  : 	// Sides
; 354  : 	//
; 355  : 
; 356  : 	sprintf (s, "%s", get_trans ("UI_PILOTS"));

  00353	68 00 00 00 00	 push	 OFFSET ??_C@_09BCKKEJHI@UI_PILOTS@
  00358	e8 00 00 00 00	 call	 ?get_trans@@YGPBDPBD@Z	; get_trans
  0035d	50		 push	 eax
  0035e	68 00 00 00 00	 push	 OFFSET ??_C@_02DKCKIIND@?$CFs@
  00363	68 00 00 00 00	 push	 OFFSET ?s@?1??build_chat_target_list@@YGXXZ@4PADA
  00368	e8 00 00 00 00	 call	 _sprintf
  0036d	83 c4 0c	 add	 esp, 12			; 0000000cH

; 357  : 
; 358  : 	new_item = add_to_pop_up_list (s, chat_target_list, NULL, ENTITY_INDEX_DONT_CARE, UI_FONT_ARIAL_16, ui_ingame_dead_text_colour);

  00370	a1 00 00 00 00	 mov	 eax, DWORD PTR ?ui_ingame_dead_text_colour@@3UREAL_COLOUR@@A ; ui_ingame_dead_text_colour
  00375	50		 push	 eax
  00376	6a 03		 push	 3
  00378	6a ff		 push	 -1
  0037a	6a 00		 push	 0
  0037c	8b 0d 00 00 00
	00		 mov	 ecx, DWORD PTR ?chat_target_list@@3PAUUI_OBJECT@@A
  00382	51		 push	 ecx
  00383	68 00 00 00 00	 push	 OFFSET ?s@?1??build_chat_target_list@@YGXXZ@4PADA
  00388	e8 00 00 00 00	 call	 ?add_to_pop_up_list@@YGPAUUI_OBJECT@@PBDPAU1@1HHUREAL_COLOUR@@@Z ; add_to_pop_up_list
  0038d	89 45 fc	 mov	 DWORD PTR _new_item$[ebp], eax

; 359  : 
; 360  : 	force = get_local_entity_first_child (get_session_entity (), LIST_TYPE_FORCE);

  00390	83 3d 00 00 00
	00 00		 cmp	 DWORD PTR ?session_entity@@3PAUENTITY@@A, 0 ; session_entity
  00397	74 0c		 je	 SHORT $LN32@build_chat
  00399	a1 00 00 00 00	 mov	 eax, DWORD PTR ?session_entity@@3PAUENTITY@@A ; session_entity
  0039e	8b 08		 mov	 ecx, DWORD PTR [eax]
  003a0	89 4d ac	 mov	 DWORD PTR tv251[ebp], ecx
  003a3	eb 21		 jmp	 SHORT $LN33@build_chat
$LN32@build_chat:
  003a5	8b 15 00 00 00
	00		 mov	 edx, DWORD PTR ?__LINE__Var@?0??build_chat_target_list@@YGXXZ@4JA
  003ab	83 c2 43	 add	 edx, 67			; 00000043H
  003ae	52		 push	 edx
  003af	68 00 00 00 00	 push	 OFFSET ??_C@_0EO@PIJCMGCK@c?3?2users?2nhv90?2projects?2eech?2ap@
  003b4	a1 00 00 00 00	 mov	 eax, DWORD PTR ?null_entity_pointer_message@@3PBDB ; null_entity_pointer_message
  003b9	50		 push	 eax
  003ba	e8 00 00 00 00	 call	 ?process_assert@@YGXPBD0H@Z ; process_assert
  003bf	c7 45 ac 00 00
	00 00		 mov	 DWORD PTR tv251[ebp], 0
$LN33@build_chat:
  003c6	b9 01 00 00 00	 mov	 ecx, 1
  003cb	85 c9		 test	 ecx, ecx
  003cd	74 09		 je	 SHORT $LN34@build_chat
  003cf	c7 45 a8 0e 00
	00 00		 mov	 DWORD PTR tv259[ebp], 14 ; 0000000eH
  003d6	eb 21		 jmp	 SHORT $LN35@build_chat
$LN34@build_chat:
  003d8	8b 15 00 00 00
	00		 mov	 edx, DWORD PTR ?__LINE__Var@?0??build_chat_target_list@@YGXXZ@4JA
  003de	83 c2 43	 add	 edx, 67			; 00000043H
  003e1	52		 push	 edx
  003e2	68 00 00 00 00	 push	 OFFSET ??_C@_0EO@PIJCMGCK@c?3?2users?2nhv90?2projects?2eech?2ap@
  003e7	a1 00 00 00 00	 mov	 eax, DWORD PTR ?overload_invalid_list_type_message@@3PBDB ; overload_invalid_list_type_message
  003ec	50		 push	 eax
  003ed	e8 00 00 00 00	 call	 ?process_assert@@YGXPBD0H@Z ; process_assert
  003f2	c7 45 a8 00 00
	00 00		 mov	 DWORD PTR tv259[ebp], 0
$LN35@build_chat:
  003f9	6a 0e		 push	 14			; 0000000eH
  003fb	8b 0d 00 00 00
	00		 mov	 ecx, DWORD PTR ?session_entity@@3PAUENTITY@@A ; session_entity
  00401	51		 push	 ecx
  00402	69 55 ac b4 00
	00 00		 imul	 edx, DWORD PTR tv251[ebp], 180
  00409	8b 45 a8	 mov	 eax, DWORD PTR tv259[ebp]
  0040c	8b 8c 82 00 00
	00 00		 mov	 ecx, DWORD PTR ?fn_get_local_entity_first_child@@3PAY0CN@P6GPAUENTITY@@PAU1@W4LIST_TYPES@@@ZA[edx+eax*4]
  00413	ff d1		 call	 ecx
  00415	89 45 f8	 mov	 DWORD PTR _force$[ebp], eax
$LN4@build_chat:

; 361  : 
; 362  : 	while (force)

  00418	83 7d f8 00	 cmp	 DWORD PTR _force$[ebp], 0
  0041c	0f 84 95 02 00
	00		 je	 $LN1@build_chat

; 363  : 	{
; 364  : 		pilot = get_local_entity_first_child (force, LIST_TYPE_PILOT);

  00422	83 7d f8 00	 cmp	 DWORD PTR _force$[ebp], 0
  00426	74 0a		 je	 SHORT $LN36@build_chat
  00428	8b 45 f8	 mov	 eax, DWORD PTR _force$[ebp]
  0042b	8b 08		 mov	 ecx, DWORD PTR [eax]
  0042d	89 4d ac	 mov	 DWORD PTR tv272[ebp], ecx
  00430	eb 21		 jmp	 SHORT $LN37@build_chat
$LN36@build_chat:
  00432	8b 15 00 00 00
	00		 mov	 edx, DWORD PTR ?__LINE__Var@?0??build_chat_target_list@@YGXXZ@4JA
  00438	83 c2 47	 add	 edx, 71			; 00000047H
  0043b	52		 push	 edx
  0043c	68 00 00 00 00	 push	 OFFSET ??_C@_0EO@PIJCMGCK@c?3?2users?2nhv90?2projects?2eech?2ap@
  00441	a1 00 00 00 00	 mov	 eax, DWORD PTR ?null_entity_pointer_message@@3PBDB ; null_entity_pointer_message
  00446	50		 push	 eax
  00447	e8 00 00 00 00	 call	 ?process_assert@@YGXPBD0H@Z ; process_assert
  0044c	c7 45 ac 00 00
	00 00		 mov	 DWORD PTR tv272[ebp], 0
$LN37@build_chat:
  00453	b9 01 00 00 00	 mov	 ecx, 1
  00458	85 c9		 test	 ecx, ecx
  0045a	74 09		 je	 SHORT $LN38@build_chat
  0045c	c7 45 a8 1c 00
	00 00		 mov	 DWORD PTR tv280[ebp], 28 ; 0000001cH
  00463	eb 21		 jmp	 SHORT $LN39@build_chat
$LN38@build_chat:
  00465	8b 15 00 00 00
	00		 mov	 edx, DWORD PTR ?__LINE__Var@?0??build_chat_target_list@@YGXXZ@4JA
  0046b	83 c2 47	 add	 edx, 71			; 00000047H
  0046e	52		 push	 edx
  0046f	68 00 00 00 00	 push	 OFFSET ??_C@_0EO@PIJCMGCK@c?3?2users?2nhv90?2projects?2eech?2ap@
  00474	a1 00 00 00 00	 mov	 eax, DWORD PTR ?overload_invalid_list_type_message@@3PBDB ; overload_invalid_list_type_message
  00479	50		 push	 eax
  0047a	e8 00 00 00 00	 call	 ?process_assert@@YGXPBD0H@Z ; process_assert
  0047f	c7 45 a8 00 00
	00 00		 mov	 DWORD PTR tv280[ebp], 0
$LN39@build_chat:
  00486	6a 1c		 push	 28			; 0000001cH
  00488	8b 4d f8	 mov	 ecx, DWORD PTR _force$[ebp]
  0048b	51		 push	 ecx
  0048c	69 55 ac b4 00
	00 00		 imul	 edx, DWORD PTR tv272[ebp], 180
  00493	8b 45 a8	 mov	 eax, DWORD PTR tv280[ebp]
  00496	8b 8c 82 00 00
	00 00		 mov	 ecx, DWORD PTR ?fn_get_local_entity_first_child@@3PAY0CN@P6GPAUENTITY@@PAU1@W4LIST_TYPES@@@ZA[edx+eax*4]
  0049d	ff d1		 call	 ecx
  0049f	89 45 f4	 mov	 DWORD PTR _pilot$[ebp], eax
$LN6@build_chat:

; 365  : 
; 366  : 		while (pilot)

  004a2	83 7d f4 00	 cmp	 DWORD PTR _pilot$[ebp], 0
  004a6	0f 84 86 01 00
	00		 je	 $LN7@build_chat

; 367  : 		{
; 368  : 			if (pilot != get_pilot_entity ())

  004ac	8b 45 f4	 mov	 eax, DWORD PTR _pilot$[ebp]
  004af	3b 05 00 00 00
	00		 cmp	 eax, DWORD PTR ?pilot_entity@@3PAUENTITY@@A ; pilot_entity
  004b5	0f 84 f2 00 00
	00		 je	 $LN11@build_chat

; 369  : 			{
; 370  : 				sprintf (s, "%s", get_local_entity_string (pilot, STRING_TYPE_PILOTS_NAME));

  004bb	83 7d f4 00	 cmp	 DWORD PTR _pilot$[ebp], 0
  004bf	74 0a		 je	 SHORT $LN40@build_chat
  004c1	8b 45 f4	 mov	 eax, DWORD PTR _pilot$[ebp]
  004c4	8b 08		 mov	 ecx, DWORD PTR [eax]
  004c6	89 4d ac	 mov	 DWORD PTR tv295[ebp], ecx
  004c9	eb 21		 jmp	 SHORT $LN41@build_chat
$LN40@build_chat:
  004cb	8b 15 00 00 00
	00		 mov	 edx, DWORD PTR ?__LINE__Var@?0??build_chat_target_list@@YGXXZ@4JA
  004d1	83 c2 4d	 add	 edx, 77			; 0000004dH
  004d4	52		 push	 edx
  004d5	68 00 00 00 00	 push	 OFFSET ??_C@_0EO@PIJCMGCK@c?3?2users?2nhv90?2projects?2eech?2ap@
  004da	a1 00 00 00 00	 mov	 eax, DWORD PTR ?null_entity_pointer_message@@3PBDB ; null_entity_pointer_message
  004df	50		 push	 eax
  004e0	e8 00 00 00 00	 call	 ?process_assert@@YGXPBD0H@Z ; process_assert
  004e5	c7 45 ac 00 00
	00 00		 mov	 DWORD PTR tv295[ebp], 0
$LN41@build_chat:
  004ec	b9 01 00 00 00	 mov	 ecx, 1
  004f1	85 c9		 test	 ecx, ecx
  004f3	74 09		 je	 SHORT $LN42@build_chat
  004f5	c7 45 a8 0a 00
	00 00		 mov	 DWORD PTR tv303[ebp], 10 ; 0000000aH
  004fc	eb 21		 jmp	 SHORT $LN43@build_chat
$LN42@build_chat:
  004fe	8b 15 00 00 00
	00		 mov	 edx, DWORD PTR ?__LINE__Var@?0??build_chat_target_list@@YGXXZ@4JA
  00504	83 c2 4d	 add	 edx, 77			; 0000004dH
  00507	52		 push	 edx
  00508	68 00 00 00 00	 push	 OFFSET ??_C@_0EO@PIJCMGCK@c?3?2users?2nhv90?2projects?2eech?2ap@
  0050d	a1 00 00 00 00	 mov	 eax, DWORD PTR ?overload_invalid_string_type_message@@3PBDB ; overload_invalid_string_type_message
  00512	50		 push	 eax
  00513	e8 00 00 00 00	 call	 ?process_assert@@YGXPBD0H@Z ; process_assert
  00518	c7 45 a8 00 00
	00 00		 mov	 DWORD PTR tv303[ebp], 0
$LN43@build_chat:
  0051f	6a 0a		 push	 10			; 0000000aH
  00521	8b 4d f4	 mov	 ecx, DWORD PTR _pilot$[ebp]
  00524	51		 push	 ecx
  00525	6b 55 ac 34	 imul	 edx, DWORD PTR tv295[ebp], 52
  00529	8b 45 a8	 mov	 eax, DWORD PTR tv303[ebp]
  0052c	8b 8c 82 00 00
	00 00		 mov	 ecx, DWORD PTR ?fn_get_local_entity_string@@3PAY0N@P6GPBDPAUENTITY@@W4STRING_TYPES@@@ZA[edx+eax*4]
  00533	ff d1		 call	 ecx
  00535	50		 push	 eax
  00536	68 00 00 00 00	 push	 OFFSET ??_C@_02DKCKIIND@?$CFs@
  0053b	68 00 00 00 00	 push	 OFFSET ?s@?1??build_chat_target_list@@YGXXZ@4PADA
  00540	e8 00 00 00 00	 call	 _sprintf
  00545	83 c4 0c	 add	 esp, 12			; 0000000cH

; 371  : 	
; 372  : 				new_item = add_to_pop_up_list (s, chat_target_list, NULL, get_local_entity_safe_index (pilot), UI_FONT_ARIAL_16, ui_ingame_live_text_colour);

  00548	83 7d f4 00	 cmp	 DWORD PTR _pilot$[ebp], 0
  0054c	74 11		 je	 SHORT $LN44@build_chat
  0054e	8b 45 f4	 mov	 eax, DWORD PTR _pilot$[ebp]
  00551	2b 05 00 00 00
	00		 sub	 eax, DWORD PTR ?entities@@3PAUENTITY@@A ; entities
  00557	c1 f8 04	 sar	 eax, 4
  0055a	89 45 ac	 mov	 DWORD PTR tv317[ebp], eax
  0055d	eb 07		 jmp	 SHORT $LN45@build_chat
$LN44@build_chat:
  0055f	c7 45 ac ff ff
	ff ff		 mov	 DWORD PTR tv317[ebp], -1
$LN45@build_chat:
  00566	8b 0d 00 00 00
	00		 mov	 ecx, DWORD PTR ?ui_ingame_live_text_colour@@3UREAL_COLOUR@@A ; ui_ingame_live_text_colour
  0056c	51		 push	 ecx
  0056d	6a 03		 push	 3
  0056f	8b 55 ac	 mov	 edx, DWORD PTR tv317[ebp]
  00572	52		 push	 edx
  00573	6a 00		 push	 0
  00575	a1 00 00 00 00	 mov	 eax, DWORD PTR ?chat_target_list@@3PAUUI_OBJECT@@A
  0057a	50		 push	 eax
  0057b	68 00 00 00 00	 push	 OFFSET ?s@?1??build_chat_target_list@@YGXXZ@4PADA
  00580	e8 00 00 00 00	 call	 ?add_to_pop_up_list@@YGPAUUI_OBJECT@@PBDPAU1@1HHUREAL_COLOUR@@@Z ; add_to_pop_up_list
  00585	89 45 fc	 mov	 DWORD PTR _new_item$[ebp], eax

; 373  : 	
; 374  : 				set_ingame_ui_object_mouse_over_properties (new_item);

  00588	8b 45 fc	 mov	 eax, DWORD PTR _new_item$[ebp]
  0058b	50		 push	 eax
  0058c	e8 00 00 00 00	 call	 ?set_ingame_ui_object_mouse_over_properties@@YGXPAUUI_OBJECT@@@Z ; set_ingame_ui_object_mouse_over_properties

; 375  : 	
; 376  : 				if (pilot == current_target)

  00591	8b 45 f4	 mov	 eax, DWORD PTR _pilot$[ebp]
  00594	3b 45 f0	 cmp	 eax, DWORD PTR _current_target$[ebp]
  00597	75 14		 jne	 SHORT $LN11@build_chat

; 377  : 				{
; 378  : 					set_ui_object_state (new_item, UI_OBJECT_STATE_ON);

  00599	6a 01		 push	 1
  0059b	8b 45 fc	 mov	 eax, DWORD PTR _new_item$[ebp]
  0059e	50		 push	 eax
  0059f	8b 4d fc	 mov	 ecx, DWORD PTR _new_item$[ebp]
  005a2	8b 11		 mov	 edx, DWORD PTR [ecx]
  005a4	8b 04 95 00 00
	00 00		 mov	 eax, DWORD PTR ?fn_set_ui_object_state@@3PAP6GXPAUUI_OBJECT@@H@ZA[edx*4]
  005ab	ff d0		 call	 eax
$LN11@build_chat:

; 379  : 				}
; 380  : 			}
; 381  : 			
; 382  : 			pilot = get_local_entity_child_succ (pilot, LIST_TYPE_PILOT);

  005ad	83 7d f4 00	 cmp	 DWORD PTR _pilot$[ebp], 0
  005b1	74 0a		 je	 SHORT $LN46@build_chat
  005b3	8b 45 f4	 mov	 eax, DWORD PTR _pilot$[ebp]
  005b6	8b 08		 mov	 ecx, DWORD PTR [eax]
  005b8	89 4d ac	 mov	 DWORD PTR tv335[ebp], ecx
  005bb	eb 21		 jmp	 SHORT $LN47@build_chat
$LN46@build_chat:
  005bd	8b 15 00 00 00
	00		 mov	 edx, DWORD PTR ?__LINE__Var@?0??build_chat_target_list@@YGXXZ@4JA
  005c3	83 c2 59	 add	 edx, 89			; 00000059H
  005c6	52		 push	 edx
  005c7	68 00 00 00 00	 push	 OFFSET ??_C@_0EO@PIJCMGCK@c?3?2users?2nhv90?2projects?2eech?2ap@
  005cc	a1 00 00 00 00	 mov	 eax, DWORD PTR ?null_entity_pointer_message@@3PBDB ; null_entity_pointer_message
  005d1	50		 push	 eax
  005d2	e8 00 00 00 00	 call	 ?process_assert@@YGXPBD0H@Z ; process_assert
  005d7	c7 45 ac 00 00
	00 00		 mov	 DWORD PTR tv335[ebp], 0
$LN47@build_chat:
  005de	b9 01 00 00 00	 mov	 ecx, 1
  005e3	85 c9		 test	 ecx, ecx
  005e5	74 09		 je	 SHORT $LN48@build_chat
  005e7	c7 45 a8 1c 00
	00 00		 mov	 DWORD PTR tv343[ebp], 28 ; 0000001cH
  005ee	eb 21		 jmp	 SHORT $LN49@build_chat
$LN48@build_chat:
  005f0	8b 15 00 00 00
	00		 mov	 edx, DWORD PTR ?__LINE__Var@?0??build_chat_target_list@@YGXXZ@4JA
  005f6	83 c2 59	 add	 edx, 89			; 00000059H
  005f9	52		 push	 edx
  005fa	68 00 00 00 00	 push	 OFFSET ??_C@_0EO@PIJCMGCK@c?3?2users?2nhv90?2projects?2eech?2ap@
  005ff	a1 00 00 00 00	 mov	 eax, DWORD PTR ?overload_invalid_list_type_message@@3PBDB ; overload_invalid_list_type_message
  00604	50		 push	 eax
  00605	e8 00 00 00 00	 call	 ?process_assert@@YGXPBD0H@Z ; process_assert
  0060a	c7 45 a8 00 00
	00 00		 mov	 DWORD PTR tv343[ebp], 0
$LN49@build_chat:
  00611	6a 1c		 push	 28			; 0000001cH
  00613	8b 4d f4	 mov	 ecx, DWORD PTR _pilot$[ebp]
  00616	51		 push	 ecx
  00617	69 55 ac b4 00
	00 00		 imul	 edx, DWORD PTR tv335[ebp], 180
  0061e	8b 45 a8	 mov	 eax, DWORD PTR tv343[ebp]
  00621	8b 8c 82 00 00
	00 00		 mov	 ecx, DWORD PTR ?fn_get_local_entity_child_succ@@3PAY0CN@P6GPAUENTITY@@PAU1@W4LIST_TYPES@@@ZA[edx+eax*4]
  00628	ff d1		 call	 ecx
  0062a	89 45 f4	 mov	 DWORD PTR _pilot$[ebp], eax

; 383  : 		}

  0062d	e9 70 fe ff ff	 jmp	 $LN6@build_chat
$LN7@build_chat:

; 384  : 
; 385  : 		force = get_local_entity_child_succ (force, LIST_TYPE_FORCE);

  00632	83 7d f8 00	 cmp	 DWORD PTR _force$[ebp], 0
  00636	74 0a		 je	 SHORT $LN50@build_chat
  00638	8b 45 f8	 mov	 eax, DWORD PTR _force$[ebp]
  0063b	8b 08		 mov	 ecx, DWORD PTR [eax]
  0063d	89 4d ac	 mov	 DWORD PTR tv355[ebp], ecx
  00640	eb 21		 jmp	 SHORT $LN51@build_chat
$LN50@build_chat:
  00642	8b 15 00 00 00
	00		 mov	 edx, DWORD PTR ?__LINE__Var@?0??build_chat_target_list@@YGXXZ@4JA
  00648	83 c2 5c	 add	 edx, 92			; 0000005cH
  0064b	52		 push	 edx
  0064c	68 00 00 00 00	 push	 OFFSET ??_C@_0EO@PIJCMGCK@c?3?2users?2nhv90?2projects?2eech?2ap@
  00651	a1 00 00 00 00	 mov	 eax, DWORD PTR ?null_entity_pointer_message@@3PBDB ; null_entity_pointer_message
  00656	50		 push	 eax
  00657	e8 00 00 00 00	 call	 ?process_assert@@YGXPBD0H@Z ; process_assert
  0065c	c7 45 ac 00 00
	00 00		 mov	 DWORD PTR tv355[ebp], 0
$LN51@build_chat:
  00663	b9 01 00 00 00	 mov	 ecx, 1
  00668	85 c9		 test	 ecx, ecx
  0066a	74 09		 je	 SHORT $LN52@build_chat
  0066c	c7 45 a8 0e 00
	00 00		 mov	 DWORD PTR tv363[ebp], 14 ; 0000000eH
  00673	eb 21		 jmp	 SHORT $LN53@build_chat
$LN52@build_chat:
  00675	8b 15 00 00 00
	00		 mov	 edx, DWORD PTR ?__LINE__Var@?0??build_chat_target_list@@YGXXZ@4JA
  0067b	83 c2 5c	 add	 edx, 92			; 0000005cH
  0067e	52		 push	 edx
  0067f	68 00 00 00 00	 push	 OFFSET ??_C@_0EO@PIJCMGCK@c?3?2users?2nhv90?2projects?2eech?2ap@
  00684	a1 00 00 00 00	 mov	 eax, DWORD PTR ?overload_invalid_list_type_message@@3PBDB ; overload_invalid_list_type_message
  00689	50		 push	 eax
  0068a	e8 00 00 00 00	 call	 ?process_assert@@YGXPBD0H@Z ; process_assert
  0068f	c7 45 a8 00 00
	00 00		 mov	 DWORD PTR tv363[ebp], 0
$LN53@build_chat:
  00696	6a 0e		 push	 14			; 0000000eH
  00698	8b 4d f8	 mov	 ecx, DWORD PTR _force$[ebp]
  0069b	51		 push	 ecx
  0069c	69 55 ac b4 00
	00 00		 imul	 edx, DWORD PTR tv355[ebp], 180
  006a3	8b 45 a8	 mov	 eax, DWORD PTR tv363[ebp]
  006a6	8b 8c 82 00 00
	00 00		 mov	 ecx, DWORD PTR ?fn_get_local_entity_child_succ@@3PAY0CN@P6GPAUENTITY@@PAU1@W4LIST_TYPES@@@ZA[edx+eax*4]
  006ad	ff d1		 call	 ecx
  006af	89 45 f8	 mov	 DWORD PTR _force$[ebp], eax

; 386  : 	}

  006b2	e9 61 fd ff ff	 jmp	 $LN4@build_chat
$LN1@build_chat:

; 387  : }

  006b7	5f		 pop	 edi
  006b8	5e		 pop	 esi
  006b9	5b		 pop	 ebx
  006ba	8b e5		 mov	 esp, ebp
  006bc	5d		 pop	 ebp
  006bd	c3		 ret	 0
?build_chat_target_list@@YGXXZ ENDP			; build_chat_target_list
_TEXT	ENDS
; Function compile flags: /Odtp /ZI
; File c:\users\nhv90\projects\eech\aphavoc\source\ui_menu\ingame\campaign\ca_chat.c
;	COMDAT ?overload_chat_page_message_responses@@YGXXZ
_TEXT	SEGMENT
_target$ = -4						; size = 4
?overload_chat_page_message_responses@@YGXXZ PROC	; overload_chat_page_message_responses, COMDAT

; 941  : {

  00000	55		 push	 ebp
  00001	8b ec		 mov	 ebp, esp
  00003	83 ec 44	 sub	 esp, 68			; 00000044H
  00006	53		 push	 ebx
  00007	56		 push	 esi
  00008	57		 push	 edi

; 942  : 	campaign_screen_message_targets
; 943  : 		target;
; 944  : 
; 945  : 	target = CAMPAIGN_SCREEN_TARGET_CHAT_PAGE;

  00009	c7 45 fc 08 00
	00 00		 mov	 DWORD PTR _target$[ebp], 8

; 946  : 
; 947  : 	campaign_screen_message_responses [target][CAMPAIGN_SCREEN_NEW_MESSAGE]		=	response_to_new_message;

  00010	6b 45 fc 38	 imul	 eax, DWORD PTR _target$[ebp], 56
  00014	b9 04 00 00 00	 mov	 ecx, 4
  00019	6b d1 0c	 imul	 edx, ecx, 12
  0001c	c7 84 10 00 00
	00 00 00 00 00
	00		 mov	 DWORD PTR ?campaign_screen_message_responses@@3PAY0O@P6GHW4CAMPAIGN_SCREEN_MESSAGES@@PAUENTITY@@@ZA[eax+edx], OFFSET ?response_to_new_message@@YGHW4CAMPAIGN_SCREEN_MESSAGES@@PAUENTITY@@@Z ; response_to_new_message

; 948  : }

  00027	5f		 pop	 edi
  00028	5e		 pop	 esi
  00029	5b		 pop	 ebx
  0002a	8b e5		 mov	 esp, ebp
  0002c	5d		 pop	 ebp
  0002d	c3		 ret	 0
?overload_chat_page_message_responses@@YGXXZ ENDP	; overload_chat_page_message_responses
_TEXT	ENDS
; Function compile flags: /Odtp /ZI
; File c:\users\nhv90\projects\eech\aphavoc\source\ui_menu\ingame\campaign\ca_chat.c
;	COMDAT ?define_campaign_screen_chat_page_objects@@YGXXZ
_TEXT	SEGMENT
_string$ = -276						; size = 256
_page$ = -20						; size = 4
_y2$ = -16						; size = 4
_x2$ = -12						; size = 4
_y1$ = -8						; size = 4
_x1$ = -4						; size = 4
?define_campaign_screen_chat_page_objects@@YGXXZ PROC	; define_campaign_screen_chat_page_objects, COMDAT

; 589  : {

  00000	55		 push	 ebp
  00001	8b ec		 mov	 ebp, esp
  00003	81 ec 54 01 00
	00		 sub	 esp, 340		; 00000154H
  00009	53		 push	 ebx
  0000a	56		 push	 esi
  0000b	57		 push	 edi

; 590  : 	float
; 591  : 		x1,
; 592  : 		y1,
; 593  : 		x2,
; 594  : 		y2;
; 595  : 
; 596  : 	ui_object
; 597  : 		*page;
; 598  : 
; 599  : 	char
; 600  : 		string [256];
; 601  : 
; 602  : 	/////////////////////////////////////////////////////////////////
; 603  : 	// Main Page Area
; 604  : 	/////////////////////////////////////////////////////////////////
; 605  : 
; 606  : 	x1 = CAMPAIGN_INSET_PAGE_X1;

  0000c	f3 0f 10 05 00
	00 00 00	 movss	 xmm0, DWORD PTR __real@3e6147ae
  00014	f3 0f 11 45 fc	 movss	 DWORD PTR _x1$[ebp], xmm0

; 607  : 	y1 = CAMPAIGN_INSET_PAGE_Y1;

  00019	f3 0f 10 05 00
	00 00 00	 movss	 xmm0, DWORD PTR __real@3d449ba6
  00021	f3 0f 11 45 f8	 movss	 DWORD PTR _y1$[ebp], xmm0

; 608  : 	x2 = CAMPAIGN_INSET_PAGE_X2;

  00026	f3 0f 10 05 00
	00 00 00	 movss	 xmm0, DWORD PTR __real@3f800000
  0002e	f3 0f 11 45 f4	 movss	 DWORD PTR _x2$[ebp], xmm0

; 609  : 	y2 = CAMPAIGN_INSET_PAGE_Y2;

  00033	f3 0f 10 05 00
	00 00 00	 movss	 xmm0, DWORD PTR __real@3f47ae14
  0003b	f3 0f 11 45 f0	 movss	 DWORD PTR _y2$[ebp], xmm0

; 610  : 
; 611  : 	campaign_page [CAMPAIGN_PAGE_CHAT] = create_ui_object

  00040	6a 11		 push	 17			; 00000011H
  00042	6a 01		 push	 1
  00044	6a 07		 push	 7
  00046	68 00 00 00 00	 push	 OFFSET ?update_chat_page_objects@@YGXPAUUI_OBJECT@@PAX@Z ; update_chat_page_objects
  0004b	6a 0f		 push	 15			; 0000000fH
  0004d	6a 00		 push	 0
  0004f	6a 10		 push	 16			; 00000010H
  00051	f3 0f 10 45 f0	 movss	 xmm0, DWORD PTR _y2$[ebp]
  00056	f3 0f 5c 45 f8	 subss	 xmm0, DWORD PTR _y1$[ebp]
  0005b	f3 0f 5a c0	 cvtss2sd xmm0, xmm0
  0005f	83 ec 08	 sub	 esp, 8
  00062	f2 0f 11 04 24	 movsd	 QWORD PTR [esp], xmm0
  00067	f3 0f 10 45 f4	 movss	 xmm0, DWORD PTR _x2$[ebp]
  0006c	f3 0f 5c 45 fc	 subss	 xmm0, DWORD PTR _x1$[ebp]
  00071	f3 0f 5a c0	 cvtss2sd xmm0, xmm0
  00075	83 ec 08	 sub	 esp, 8
  00078	f2 0f 11 04 24	 movsd	 QWORD PTR [esp], xmm0
  0007d	6a 59		 push	 89			; 00000059H
  0007f	f3 0f 5a 45 f8	 cvtss2sd xmm0, DWORD PTR _y1$[ebp]
  00084	83 ec 08	 sub	 esp, 8
  00087	f2 0f 11 04 24	 movsd	 QWORD PTR [esp], xmm0
  0008c	f3 0f 5a 45 fc	 cvtss2sd xmm0, DWORD PTR _x1$[ebp]
  00091	83 ec 08	 sub	 esp, 8
  00094	f2 0f 11 04 24	 movsd	 QWORD PTR [esp], xmm0
  00099	6a 58		 push	 88			; 00000058H
  0009b	6a 01		 push	 1
  0009d	6a 12		 push	 18			; 00000012H
  0009f	6a 03		 push	 3
  000a1	6a 4b		 push	 75			; 0000004bH
  000a3	a1 00 00 00 00	 mov	 eax, DWORD PTR ?campaign_screen@@3PAUUI_OBJECT@@A ; campaign_screen
  000a8	50		 push	 eax
  000a9	6a 32		 push	 50			; 00000032H
  000ab	6a 01		 push	 1
  000ad	e8 00 00 00 00	 call	 ?create_ui_object@@YAPAUUI_OBJECT@@HZZ ; create_ui_object
  000b2	83 c4 60	 add	 esp, 96			; 00000060H
  000b5	b9 04 00 00 00	 mov	 ecx, 4
  000ba	6b d1 07	 imul	 edx, ecx, 7
  000bd	89 82 00 00 00
	00		 mov	 DWORD PTR ?campaign_page@@3PAPAUUI_OBJECT@@A[edx], eax

; 612  : 		(
; 613  : 			UI_TYPE_AREA,
; 614  : 			UI_ATTR_PARENT (campaign_screen),
; 615  : 			UI_ATTR_TEXT_JUSTIFY (TEXT_JUSTIFY_CENTRE_TOP),
; 616  : 			UI_ATTR_FONT_TYPE (UI_FONT_ARIAL_14),
; 617  : 			UI_ATTR_VIRTUAL_POSITION (x1, y1),
; 618  : 			UI_ATTR_VIRTUAL_SIZE (x2 - x1, y2 - y1),
; 619  : 			UI_ATTR_DRAWABLE (FALSE),
; 620  : 			UI_ATTR_DRAW_FUNCTION (update_chat_page_objects),
; 621  : 			UI_ATTR_CLEAR (TRUE),
; 622  : 			UI_ATTR_END
; 623  : 		);
; 624  : 
; 625  : 	page = campaign_page [CAMPAIGN_PAGE_CHAT];

  000c3	b8 04 00 00 00	 mov	 eax, 4
  000c8	6b c8 07	 imul	 ecx, eax, 7
  000cb	8b 91 00 00 00
	00		 mov	 edx, DWORD PTR ?campaign_page@@3PAPAUUI_OBJECT@@A[ecx]
  000d1	89 55 ec	 mov	 DWORD PTR _page$[ebp], edx

; 626  : 
; 627  : 	/////////////////////////////////////////////////////////////////
; 628  : 	// Chat Target/Message Window
; 629  : 
; 630  : 	x1 = 0.0;

  000d4	0f 57 c0	 xorps	 xmm0, xmm0
  000d7	f3 0f 11 45 fc	 movss	 DWORD PTR _x1$[ebp], xmm0

; 631  : 	y1 = 0.068;

  000dc	f3 0f 10 05 00
	00 00 00	 movss	 xmm0, DWORD PTR __real@3d8b4396
  000e4	f3 0f 11 45 f8	 movss	 DWORD PTR _y1$[ebp], xmm0

; 632  : 	x2 = 0.502;

  000e9	f3 0f 10 05 00
	00 00 00	 movss	 xmm0, DWORD PTR __real@3f008312
  000f1	f3 0f 11 45 f4	 movss	 DWORD PTR _x2$[ebp], xmm0

; 633  : 	y2 = 0.109;

  000f6	f3 0f 10 05 00
	00 00 00	 movss	 xmm0, DWORD PTR __real@3ddf3b64
  000fe	f3 0f 11 45 f0	 movss	 DWORD PTR _y2$[ebp], xmm0

; 634  : 
; 635  : 	chat_window_mode_area = create_ui_object

  00103	6a 11		 push	 17			; 00000011H
  00105	68 00 00 00 00	 push	 OFFSET ??_C@_0CF@EAEMPPNH@graphics?2ui?2cohokum?2map?2chattab@
  0010a	e8 00 00 00 00	 call	 ?create_texture_graphic@@YGPAUTEXTURE_GRAPHIC@@PBD@Z ; create_texture_graphic
  0010f	50		 push	 eax
  00110	6a 4c		 push	 76			; 0000004cH
  00112	f3 0f 10 45 f0	 movss	 xmm0, DWORD PTR _y2$[ebp]
  00117	f3 0f 5c 45 f8	 subss	 xmm0, DWORD PTR _y1$[ebp]
  0011c	f3 0f 5a c0	 cvtss2sd xmm0, xmm0
  00120	83 ec 08	 sub	 esp, 8
  00123	f2 0f 11 04 24	 movsd	 QWORD PTR [esp], xmm0
  00128	f3 0f 10 45 f4	 movss	 xmm0, DWORD PTR _x2$[ebp]
  0012d	f3 0f 5c 45 fc	 subss	 xmm0, DWORD PTR _x1$[ebp]
  00132	f3 0f 5a c0	 cvtss2sd xmm0, xmm0
  00136	83 ec 08	 sub	 esp, 8
  00139	f2 0f 11 04 24	 movsd	 QWORD PTR [esp], xmm0
  0013e	6a 59		 push	 89			; 00000059H
  00140	f3 0f 5a 45 f8	 cvtss2sd xmm0, DWORD PTR _y1$[ebp]
  00145	83 ec 08	 sub	 esp, 8
  00148	f2 0f 11 04 24	 movsd	 QWORD PTR [esp], xmm0
  0014d	f3 0f 5a 45 fc	 cvtss2sd xmm0, DWORD PTR _x1$[ebp]
  00152	83 ec 08	 sub	 esp, 8
  00155	f2 0f 11 04 24	 movsd	 QWORD PTR [esp], xmm0
  0015a	6a 58		 push	 88			; 00000058H
  0015c	8b 45 ec	 mov	 eax, DWORD PTR _page$[ebp]
  0015f	50		 push	 eax
  00160	6a 32		 push	 50			; 00000032H
  00162	6a 01		 push	 1
  00164	e8 00 00 00 00	 call	 ?create_ui_object@@YAPAUUI_OBJECT@@HZZ ; create_ui_object
  00169	83 c4 40	 add	 esp, 64			; 00000040H
  0016c	a3 00 00 00 00	 mov	 DWORD PTR ?chat_window_mode_area@@3PAUUI_OBJECT@@A, eax

; 636  : 			(
; 637  : 				UI_TYPE_AREA,
; 638  : 				UI_ATTR_PARENT (page),
; 639  : 				UI_ATTR_VIRTUAL_POSITION (x1, y1),
; 640  : 				UI_ATTR_VIRTUAL_SIZE (x2 - x1, y2 - y1),
; 641  : 				UI_ATTR_TEXTURE_GRAPHIC (create_texture_graphic ("graphics\\ui\\cohokum\\map\\chattabs.psd")),
; 642  : 				UI_ATTR_END
; 643  : 			);
; 644  : 
; 645  : 	x1 = 0.0;

  00171	0f 57 c0	 xorps	 xmm0, xmm0
  00174	f3 0f 11 45 fc	 movss	 DWORD PTR _x1$[ebp], xmm0

; 646  : 	y1 = 0.0;

  00179	0f 57 c0	 xorps	 xmm0, xmm0
  0017c	f3 0f 11 45 f8	 movss	 DWORD PTR _y1$[ebp], xmm0

; 647  : 	x2 = 0.5;

  00181	f3 0f 10 05 00
	00 00 00	 movss	 xmm0, DWORD PTR __real@3f000000
  00189	f3 0f 11 45 f4	 movss	 DWORD PTR _x2$[ebp], xmm0

; 648  : 	y2 = 1.0;

  0018e	f3 0f 10 05 00
	00 00 00	 movss	 xmm0, DWORD PTR __real@3f800000
  00196	f3 0f 11 45 f0	 movss	 DWORD PTR _y2$[ebp], xmm0

; 649  : 
; 650  : 	chat_window_destination_button = create_ui_object

  0019b	6a 11		 push	 17			; 00000011H
  0019d	6a 01		 push	 1
  0019f	6a 07		 push	 7
  001a1	68 00 00 00 00	 push	 OFFSET ?notify_show_destinations@@YGXPAUUI_OBJECT@@PAX@Z ; notify_show_destinations
  001a6	6a 16		 push	 22			; 00000016H
  001a8	68 00 00 00 00	 push	 OFFSET ??_C@_0M@DPBEHEC@Destination@
  001ad	e8 00 00 00 00	 call	 ?get_trans@@YGPBDPBD@Z	; get_trans
  001b2	50		 push	 eax
  001b3	6a 4a		 push	 74			; 0000004aH
  001b5	6a 03		 push	 3
  001b7	6a 12		 push	 18			; 00000012H
  001b9	f3 0f 10 45 f0	 movss	 xmm0, DWORD PTR _y2$[ebp]
  001be	f3 0f 5c 45 f8	 subss	 xmm0, DWORD PTR _y1$[ebp]
  001c3	f3 0f 5a c0	 cvtss2sd xmm0, xmm0
  001c7	83 ec 08	 sub	 esp, 8
  001ca	f2 0f 11 04 24	 movsd	 QWORD PTR [esp], xmm0
  001cf	f3 0f 10 45 f4	 movss	 xmm0, DWORD PTR _x2$[ebp]
  001d4	f3 0f 5c 45 fc	 subss	 xmm0, DWORD PTR _x1$[ebp]
  001d9	f3 0f 5a c0	 cvtss2sd xmm0, xmm0
  001dd	83 ec 08	 sub	 esp, 8
  001e0	f2 0f 11 04 24	 movsd	 QWORD PTR [esp], xmm0
  001e5	6a 59		 push	 89			; 00000059H
  001e7	f3 0f 5a 45 f8	 cvtss2sd xmm0, DWORD PTR _y1$[ebp]
  001ec	83 ec 08	 sub	 esp, 8
  001ef	f2 0f 11 04 24	 movsd	 QWORD PTR [esp], xmm0
  001f4	f3 0f 5a 45 fc	 cvtss2sd xmm0, DWORD PTR _x1$[ebp]
  001f9	83 ec 08	 sub	 esp, 8
  001fc	f2 0f 11 04 24	 movsd	 QWORD PTR [esp], xmm0
  00201	6a 58		 push	 88			; 00000058H
  00203	a1 00 00 00 00	 mov	 eax, DWORD PTR ?chat_window_mode_area@@3PAUUI_OBJECT@@A
  00208	50		 push	 eax
  00209	6a 32		 push	 50			; 00000032H
  0020b	6a 03		 push	 3
  0020d	e8 00 00 00 00	 call	 ?create_ui_object@@YAPAUUI_OBJECT@@HZZ ; create_ui_object
  00212	83 c4 58	 add	 esp, 88			; 00000058H
  00215	a3 00 00 00 00	 mov	 DWORD PTR ?chat_window_destination_button@@3PAUUI_OBJECT@@A, eax

; 651  : 			(
; 652  : 				UI_TYPE_RADIO,
; 653  : 				UI_ATTR_PARENT (chat_window_mode_area),
; 654  : 				UI_ATTR_VIRTUAL_POSITION (x1, y1),
; 655  : 				UI_ATTR_VIRTUAL_SIZE (x2 - x1, y2 - y1),
; 656  : 				UI_ATTR_FONT_TYPE (UI_FONT_ARIAL_16),
; 657  : 				UI_ATTR_TEXT (get_trans ("Destination")),
; 658  : 				UI_ATTR_FUNCTION (notify_show_destinations),
; 659  : 				UI_ATTR_CLEAR (TRUE),
; 660  : 				UI_ATTR_END
; 661  : 			);
; 662  : 
; 663  : 	set_ingame_ui_object_mouse_over_properties (chat_window_destination_button);

  0021a	a1 00 00 00 00	 mov	 eax, DWORD PTR ?chat_window_destination_button@@3PAUUI_OBJECT@@A
  0021f	50		 push	 eax
  00220	e8 00 00 00 00	 call	 ?set_ingame_ui_object_mouse_over_properties@@YGXPAUUI_OBJECT@@@Z ; set_ingame_ui_object_mouse_over_properties

; 664  : 
; 665  : 	x1 = 0.5;

  00225	f3 0f 10 05 00
	00 00 00	 movss	 xmm0, DWORD PTR __real@3f000000
  0022d	f3 0f 11 45 fc	 movss	 DWORD PTR _x1$[ebp], xmm0

; 666  : 	y1 = 0.0;

  00232	0f 57 c0	 xorps	 xmm0, xmm0
  00235	f3 0f 11 45 f8	 movss	 DWORD PTR _y1$[ebp], xmm0

; 667  : 	x2 = 1.0;

  0023a	f3 0f 10 05 00
	00 00 00	 movss	 xmm0, DWORD PTR __real@3f800000
  00242	f3 0f 11 45 f4	 movss	 DWORD PTR _x2$[ebp], xmm0

; 668  : 	y2 = 1.0;

  00247	f3 0f 10 05 00
	00 00 00	 movss	 xmm0, DWORD PTR __real@3f800000
  0024f	f3 0f 11 45 f0	 movss	 DWORD PTR _y2$[ebp], xmm0

; 669  : 
; 670  : 	chat_window_message_button = create_ui_object

  00254	6a 11		 push	 17			; 00000011H
  00256	6a 01		 push	 1
  00258	6a 07		 push	 7
  0025a	68 00 00 00 00	 push	 OFFSET ?notify_show_messages@@YGXPAUUI_OBJECT@@PAX@Z ; notify_show_messages
  0025f	6a 16		 push	 22			; 00000016H
  00261	68 00 00 00 00	 push	 OFFSET ??_C@_08LGLLKGLO@Messages@
  00266	e8 00 00 00 00	 call	 ?get_trans@@YGPBDPBD@Z	; get_trans
  0026b	50		 push	 eax
  0026c	6a 4a		 push	 74			; 0000004aH
  0026e	6a 03		 push	 3
  00270	6a 12		 push	 18			; 00000012H
  00272	f3 0f 10 45 f0	 movss	 xmm0, DWORD PTR _y2$[ebp]
  00277	f3 0f 5c 45 f8	 subss	 xmm0, DWORD PTR _y1$[ebp]
  0027c	f3 0f 5a c0	 cvtss2sd xmm0, xmm0
  00280	83 ec 08	 sub	 esp, 8
  00283	f2 0f 11 04 24	 movsd	 QWORD PTR [esp], xmm0
  00288	f3 0f 10 45 f4	 movss	 xmm0, DWORD PTR _x2$[ebp]
  0028d	f3 0f 5c 45 fc	 subss	 xmm0, DWORD PTR _x1$[ebp]
  00292	f3 0f 5a c0	 cvtss2sd xmm0, xmm0
  00296	83 ec 08	 sub	 esp, 8
  00299	f2 0f 11 04 24	 movsd	 QWORD PTR [esp], xmm0
  0029e	6a 59		 push	 89			; 00000059H
  002a0	f3 0f 5a 45 f8	 cvtss2sd xmm0, DWORD PTR _y1$[ebp]
  002a5	83 ec 08	 sub	 esp, 8
  002a8	f2 0f 11 04 24	 movsd	 QWORD PTR [esp], xmm0
  002ad	f3 0f 5a 45 fc	 cvtss2sd xmm0, DWORD PTR _x1$[ebp]
  002b2	83 ec 08	 sub	 esp, 8
  002b5	f2 0f 11 04 24	 movsd	 QWORD PTR [esp], xmm0
  002ba	6a 58		 push	 88			; 00000058H
  002bc	a1 00 00 00 00	 mov	 eax, DWORD PTR ?chat_window_mode_area@@3PAUUI_OBJECT@@A
  002c1	50		 push	 eax
  002c2	6a 32		 push	 50			; 00000032H
  002c4	6a 03		 push	 3
  002c6	e8 00 00 00 00	 call	 ?create_ui_object@@YAPAUUI_OBJECT@@HZZ ; create_ui_object
  002cb	83 c4 58	 add	 esp, 88			; 00000058H
  002ce	a3 00 00 00 00	 mov	 DWORD PTR ?chat_window_message_button@@3PAUUI_OBJECT@@A, eax

; 671  : 			(
; 672  : 				UI_TYPE_RADIO,
; 673  : 				UI_ATTR_PARENT (chat_window_mode_area),
; 674  : 				UI_ATTR_VIRTUAL_POSITION (x1, y1),
; 675  : 				UI_ATTR_VIRTUAL_SIZE (x2 - x1, y2 - y1),
; 676  : 				UI_ATTR_FONT_TYPE (UI_FONT_ARIAL_16),
; 677  : 				UI_ATTR_TEXT (get_trans ("Messages")),
; 678  : 				UI_ATTR_FUNCTION (notify_show_messages),
; 679  : 				UI_ATTR_CLEAR (TRUE),
; 680  : 				UI_ATTR_END
; 681  : 			);
; 682  : 
; 683  : 	set_ingame_ui_object_mouse_over_properties (chat_window_message_button);

  002d3	a1 00 00 00 00	 mov	 eax, DWORD PTR ?chat_window_message_button@@3PAUUI_OBJECT@@A
  002d8	50		 push	 eax
  002d9	e8 00 00 00 00	 call	 ?set_ingame_ui_object_mouse_over_properties@@YGXPAUUI_OBJECT@@@Z ; set_ingame_ui_object_mouse_over_properties

; 684  : 
; 685  : 	x1 = 0.057;

  002de	f3 0f 10 05 00
	00 00 00	 movss	 xmm0, DWORD PTR __real@3d6978d5
  002e6	f3 0f 11 45 fc	 movss	 DWORD PTR _x1$[ebp], xmm0

; 686  : 	y1 = 0.152;

  002eb	f3 0f 10 05 00
	00 00 00	 movss	 xmm0, DWORD PTR __real@3e1ba5e3
  002f3	f3 0f 11 45 f8	 movss	 DWORD PTR _y1$[ebp], xmm0

; 687  : 	x2 = 0.931;

  002f8	f3 0f 10 05 00
	00 00 00	 movss	 xmm0, DWORD PTR __real@3f6e5604
  00300	f3 0f 11 45 f4	 movss	 DWORD PTR _x2$[ebp], xmm0

; 688  : 	y2 = 0.625;

  00305	f3 0f 10 05 00
	00 00 00	 movss	 xmm0, DWORD PTR __real@3f200000
  0030d	f3 0f 11 45 f0	 movss	 DWORD PTR _y2$[ebp], xmm0

; 689  : 
; 690  : 	chat_window_area = create_ui_object

  00312	6a 11		 push	 17			; 00000011H
  00314	6a 01		 push	 1
  00316	6a 07		 push	 7
  00318	f3 0f 10 45 f0	 movss	 xmm0, DWORD PTR _y2$[ebp]
  0031d	f3 0f 5c 45 f8	 subss	 xmm0, DWORD PTR _y1$[ebp]
  00322	f3 0f 5a c0	 cvtss2sd xmm0, xmm0
  00326	83 ec 08	 sub	 esp, 8
  00329	f2 0f 11 04 24	 movsd	 QWORD PTR [esp], xmm0
  0032e	f3 0f 10 45 f4	 movss	 xmm0, DWORD PTR _x2$[ebp]
  00333	f3 0f 5c 45 fc	 subss	 xmm0, DWORD PTR _x1$[ebp]
  00338	f3 0f 5a c0	 cvtss2sd xmm0, xmm0
  0033c	83 ec 08	 sub	 esp, 8
  0033f	f2 0f 11 04 24	 movsd	 QWORD PTR [esp], xmm0
  00344	6a 59		 push	 89			; 00000059H
  00346	f3 0f 5a 45 f8	 cvtss2sd xmm0, DWORD PTR _y1$[ebp]
  0034b	83 ec 08	 sub	 esp, 8
  0034e	f2 0f 11 04 24	 movsd	 QWORD PTR [esp], xmm0
  00353	f3 0f 5a 45 fc	 cvtss2sd xmm0, DWORD PTR _x1$[ebp]
  00358	83 ec 08	 sub	 esp, 8
  0035b	f2 0f 11 04 24	 movsd	 QWORD PTR [esp], xmm0
  00360	6a 58		 push	 88			; 00000058H
  00362	8b 45 ec	 mov	 eax, DWORD PTR _page$[ebp]
  00365	50		 push	 eax
  00366	6a 32		 push	 50			; 00000032H
  00368	6a 01		 push	 1
  0036a	e8 00 00 00 00	 call	 ?create_ui_object@@YAPAUUI_OBJECT@@HZZ ; create_ui_object
  0036f	83 c4 40	 add	 esp, 64			; 00000040H
  00372	a3 00 00 00 00	 mov	 DWORD PTR ?chat_window_area@@3PAUUI_OBJECT@@A, eax

; 691  : 			(
; 692  : 				UI_TYPE_AREA,
; 693  : 				UI_ATTR_PARENT (page),
; 694  : 				UI_ATTR_VIRTUAL_POSITION (x1, y1),
; 695  : 				UI_ATTR_VIRTUAL_SIZE (x2 - x1, y2 - y1),
; 696  : 				UI_ATTR_CLEAR (TRUE),
; 697  : 				UI_ATTR_END
; 698  : 			);
; 699  : 
; 700  : 	/////////////////////////////////////////////////////////////////
; 701  : 	// Target List Area
; 702  : 
; 703  : 	x1 = 0.0;

  00377	0f 57 c0	 xorps	 xmm0, xmm0
  0037a	f3 0f 11 45 fc	 movss	 DWORD PTR _x1$[ebp], xmm0

; 704  : 	y1 = 0.0;

  0037f	0f 57 c0	 xorps	 xmm0, xmm0
  00382	f3 0f 11 45 f8	 movss	 DWORD PTR _y1$[ebp], xmm0

; 705  : 	x2 = 1.0;

  00387	f3 0f 10 05 00
	00 00 00	 movss	 xmm0, DWORD PTR __real@3f800000
  0038f	f3 0f 11 45 f4	 movss	 DWORD PTR _x2$[ebp], xmm0

; 706  : 	y2 = 1.0;

  00394	f3 0f 10 05 00
	00 00 00	 movss	 xmm0, DWORD PTR __real@3f800000
  0039c	f3 0f 11 45 f0	 movss	 DWORD PTR _y2$[ebp], xmm0

; 707  : 
; 708  : 	chat_target_list_area = create_ui_object

  003a1	6a 11		 push	 17			; 00000011H
  003a3	6a 01		 push	 1
  003a5	6a 07		 push	 7
  003a7	83 ec 08	 sub	 esp, 8
  003aa	f2 0f 10 05 00
	00 00 00	 movsd	 xmm0, QWORD PTR __real@4028000000000000
  003b2	f2 0f 11 04 24	 movsd	 QWORD PTR [esp], xmm0
  003b7	83 ec 08	 sub	 esp, 8
  003ba	f2 0f 10 05 00
	00 00 00	 movsd	 xmm0, QWORD PTR __real@4072c00000000000
  003c2	f2 0f 11 04 24	 movsd	 QWORD PTR [esp], xmm0
  003c7	83 ec 08	 sub	 esp, 8
  003ca	0f 57 c0	 xorps	 xmm0, xmm0
  003cd	f2 0f 11 04 24	 movsd	 QWORD PTR [esp], xmm0
  003d2	6a 5a		 push	 90			; 0000005aH
  003d4	f3 0f 10 45 f0	 movss	 xmm0, DWORD PTR _y2$[ebp]
  003d9	f3 0f 5c 45 f8	 subss	 xmm0, DWORD PTR _y1$[ebp]
  003de	f3 0f 5a c0	 cvtss2sd xmm0, xmm0
  003e2	83 ec 08	 sub	 esp, 8
  003e5	f2 0f 11 04 24	 movsd	 QWORD PTR [esp], xmm0
  003ea	f3 0f 10 45 f4	 movss	 xmm0, DWORD PTR _x2$[ebp]
  003ef	f3 0f 5c 45 fc	 subss	 xmm0, DWORD PTR _x1$[ebp]
  003f4	f3 0f 5a c0	 cvtss2sd xmm0, xmm0
  003f8	83 ec 08	 sub	 esp, 8
  003fb	f2 0f 11 04 24	 movsd	 QWORD PTR [esp], xmm0
  00400	6a 59		 push	 89			; 00000059H
  00402	f3 0f 5a 45 f8	 cvtss2sd xmm0, DWORD PTR _y1$[ebp]
  00407	83 ec 08	 sub	 esp, 8
  0040a	f2 0f 11 04 24	 movsd	 QWORD PTR [esp], xmm0
  0040f	f3 0f 5a 45 fc	 cvtss2sd xmm0, DWORD PTR _x1$[ebp]
  00414	83 ec 08	 sub	 esp, 8
  00417	f2 0f 11 04 24	 movsd	 QWORD PTR [esp], xmm0
  0041c	6a 58		 push	 88			; 00000058H
  0041e	a1 00 00 00 00	 mov	 eax, DWORD PTR ?chat_window_area@@3PAUUI_OBJECT@@A
  00423	50		 push	 eax
  00424	6a 32		 push	 50			; 00000032H
  00426	6a 01		 push	 1
  00428	e8 00 00 00 00	 call	 ?create_ui_object@@YAPAUUI_OBJECT@@HZZ ; create_ui_object
  0042d	83 c4 5c	 add	 esp, 92			; 0000005cH
  00430	a3 00 00 00 00	 mov	 DWORD PTR ?chat_target_list_area@@3PAUUI_OBJECT@@A, eax

; 709  : 			(
; 710  : 				UI_TYPE_AREA,
; 711  : 				UI_ATTR_PARENT (chat_window_area),
; 712  : 				UI_ATTR_VIRTUAL_POSITION (x1, y1),
; 713  : 				UI_ATTR_VIRTUAL_SIZE (x2 - x1, y2 - y1),
; 714  : 				UI_ATTR_VSLIDER (0, 300, 12),
; 715  : 				UI_ATTR_CLEAR (TRUE),
; 716  : 				UI_ATTR_END
; 717  : 			);
; 718  : 
; 719  : 	set_common_slider_graphics (chat_target_list_area);

  00435	a1 00 00 00 00	 mov	 eax, DWORD PTR ?chat_target_list_area@@3PAUUI_OBJECT@@A
  0043a	50		 push	 eax
  0043b	e8 00 00 00 00	 call	 ?set_common_slider_graphics@@YGXPAUUI_OBJECT@@@Z ; set_common_slider_graphics

; 720  : 
; 721  : 	// List Box
; 722  : 
; 723  : 	x1 = 0.0;

  00440	0f 57 c0	 xorps	 xmm0, xmm0
  00443	f3 0f 11 45 fc	 movss	 DWORD PTR _x1$[ebp], xmm0

; 724  : 	y1 = 0.0;

  00448	0f 57 c0	 xorps	 xmm0, xmm0
  0044b	f3 0f 11 45 f8	 movss	 DWORD PTR _y1$[ebp], xmm0

; 725  : 	x2 = 0.95;

  00450	f3 0f 10 05 00
	00 00 00	 movss	 xmm0, DWORD PTR __real@3f733333
  00458	f3 0f 11 45 f4	 movss	 DWORD PTR _x2$[ebp], xmm0

; 726  : 	y2 = 1.0;

  0045d	f3 0f 10 05 00
	00 00 00	 movss	 xmm0, DWORD PTR __real@3f800000
  00465	f3 0f 11 45 f0	 movss	 DWORD PTR _y2$[ebp], xmm0

; 727  : 
; 728  : 	chat_target_list = create_ui_object

  0046a	6a 11		 push	 17			; 00000011H
  0046c	6a ff		 push	 -1
  0046e	6a 29		 push	 41			; 00000029H
  00470	6a 03		 push	 3
  00472	6a 12		 push	 18			; 00000012H
  00474	68 00 00 00 00	 push	 OFFSET ?notify_target_list@@YGXPAUUI_OBJECT@@PAX@Z ; notify_target_list
  00479	6a 16		 push	 22			; 00000016H
  0047b	6a 01		 push	 1
  0047d	6a 07		 push	 7
  0047f	f3 0f 10 45 f0	 movss	 xmm0, DWORD PTR _y2$[ebp]
  00484	f3 0f 5c 45 f8	 subss	 xmm0, DWORD PTR _y1$[ebp]
  00489	f3 0f 5a c0	 cvtss2sd xmm0, xmm0
  0048d	83 ec 08	 sub	 esp, 8
  00490	f2 0f 11 04 24	 movsd	 QWORD PTR [esp], xmm0
  00495	f3 0f 10 45 f4	 movss	 xmm0, DWORD PTR _x2$[ebp]
  0049a	f3 0f 5c 45 fc	 subss	 xmm0, DWORD PTR _x1$[ebp]
  0049f	f3 0f 5a c0	 cvtss2sd xmm0, xmm0
  004a3	83 ec 08	 sub	 esp, 8
  004a6	f2 0f 11 04 24	 movsd	 QWORD PTR [esp], xmm0
  004ab	6a 59		 push	 89			; 00000059H
  004ad	f3 0f 5a 45 f8	 cvtss2sd xmm0, DWORD PTR _y1$[ebp]
  004b2	83 ec 08	 sub	 esp, 8
  004b5	f2 0f 11 04 24	 movsd	 QWORD PTR [esp], xmm0
  004ba	f3 0f 5a 45 fc	 cvtss2sd xmm0, DWORD PTR _x1$[ebp]
  004bf	83 ec 08	 sub	 esp, 8
  004c2	f2 0f 11 04 24	 movsd	 QWORD PTR [esp], xmm0
  004c7	6a 58		 push	 88			; 00000058H
  004c9	a1 00 00 00 00	 mov	 eax, DWORD PTR ?chat_target_list_area@@3PAUUI_OBJECT@@A
  004ce	50		 push	 eax
  004cf	6a 32		 push	 50			; 00000032H
  004d1	6a 0d		 push	 13			; 0000000dH
  004d3	e8 00 00 00 00	 call	 ?create_ui_object@@YAPAUUI_OBJECT@@HZZ ; create_ui_object
  004d8	83 c4 58	 add	 esp, 88			; 00000058H
  004db	a3 00 00 00 00	 mov	 DWORD PTR ?chat_target_list@@3PAUUI_OBJECT@@A, eax

; 729  : 				(
; 730  : 					UI_TYPE_LIST_BOX,
; 731  : 					UI_ATTR_PARENT (chat_target_list_area),
; 732  : 					UI_ATTR_VIRTUAL_POSITION (x1, y1),
; 733  : 					UI_ATTR_VIRTUAL_SIZE (x2 - x1, y2 - y1),
; 734  : 					UI_ATTR_CLEAR (TRUE),
; 735  : 					UI_ATTR_FUNCTION (notify_target_list),
; 736  : 					UI_ATTR_FONT_TYPE (UI_FONT_ARIAL_16),
; 737  : 					UI_ATTR_ITEM_NUMBER (ENTITY_INDEX_DONT_CARE),
; 738  : 					UI_ATTR_END
; 739  : 				);
; 740  : 
; 741  : 	/////////////////////////////////////////////////////////////////
; 742  : 	// Message list
; 743  : 
; 744  : 	x1 = 0.0;

  004e0	0f 57 c0	 xorps	 xmm0, xmm0
  004e3	f3 0f 11 45 fc	 movss	 DWORD PTR _x1$[ebp], xmm0

; 745  : 	y1 = 0.0;

  004e8	0f 57 c0	 xorps	 xmm0, xmm0
  004eb	f3 0f 11 45 f8	 movss	 DWORD PTR _y1$[ebp], xmm0

; 746  : 	x2 = 1.0;

  004f0	f3 0f 10 05 00
	00 00 00	 movss	 xmm0, DWORD PTR __real@3f800000
  004f8	f3 0f 11 45 f4	 movss	 DWORD PTR _x2$[ebp], xmm0

; 747  : 	y2 = 1.0;

  004fd	f3 0f 10 05 00
	00 00 00	 movss	 xmm0, DWORD PTR __real@3f800000
  00505	f3 0f 11 45 f0	 movss	 DWORD PTR _y2$[ebp], xmm0

; 748  : 
; 749  : 	chat_message_list_area = create_ui_object

  0050a	6a 11		 push	 17			; 00000011H
  0050c	83 ec 08	 sub	 esp, 8
  0050f	f2 0f 10 05 00
	00 00 00	 movsd	 xmm0, QWORD PTR __real@4028000000000000
  00517	f2 0f 11 04 24	 movsd	 QWORD PTR [esp], xmm0
  0051c	83 ec 08	 sub	 esp, 8
  0051f	f2 0f 10 05 00
	00 00 00	 movsd	 xmm0, QWORD PTR __real@4072c00000000000
  00527	f2 0f 11 04 24	 movsd	 QWORD PTR [esp], xmm0
  0052c	83 ec 08	 sub	 esp, 8
  0052f	0f 57 c0	 xorps	 xmm0, xmm0
  00532	f2 0f 11 04 24	 movsd	 QWORD PTR [esp], xmm0
  00537	6a 5a		 push	 90			; 0000005aH
  00539	6a 01		 push	 1
  0053b	6a 07		 push	 7
  0053d	f3 0f 10 45 f0	 movss	 xmm0, DWORD PTR _y2$[ebp]
  00542	f3 0f 5c 45 f8	 subss	 xmm0, DWORD PTR _y1$[ebp]
  00547	f3 0f 5a c0	 cvtss2sd xmm0, xmm0
  0054b	83 ec 08	 sub	 esp, 8
  0054e	f2 0f 11 04 24	 movsd	 QWORD PTR [esp], xmm0
  00553	f3 0f 10 45 f4	 movss	 xmm0, DWORD PTR _x2$[ebp]
  00558	f3 0f 5c 45 fc	 subss	 xmm0, DWORD PTR _x1$[ebp]
  0055d	f3 0f 5a c0	 cvtss2sd xmm0, xmm0
  00561	83 ec 08	 sub	 esp, 8
  00564	f2 0f 11 04 24	 movsd	 QWORD PTR [esp], xmm0
  00569	6a 59		 push	 89			; 00000059H
  0056b	f3 0f 5a 45 f8	 cvtss2sd xmm0, DWORD PTR _y1$[ebp]
  00570	83 ec 08	 sub	 esp, 8
  00573	f2 0f 11 04 24	 movsd	 QWORD PTR [esp], xmm0
  00578	f3 0f 5a 45 fc	 cvtss2sd xmm0, DWORD PTR _x1$[ebp]
  0057d	83 ec 08	 sub	 esp, 8
  00580	f2 0f 11 04 24	 movsd	 QWORD PTR [esp], xmm0
  00585	6a 58		 push	 88			; 00000058H
  00587	a1 00 00 00 00	 mov	 eax, DWORD PTR ?chat_window_area@@3PAUUI_OBJECT@@A
  0058c	50		 push	 eax
  0058d	6a 32		 push	 50			; 00000032H
  0058f	6a 01		 push	 1
  00591	e8 00 00 00 00	 call	 ?create_ui_object@@YAPAUUI_OBJECT@@HZZ ; create_ui_object
  00596	83 c4 5c	 add	 esp, 92			; 0000005cH
  00599	a3 00 00 00 00	 mov	 DWORD PTR ?chat_message_list_area@@3PAUUI_OBJECT@@A, eax

; 750  : 		(
; 751  : 			UI_TYPE_AREA,
; 752  : 			UI_ATTR_PARENT (chat_window_area),
; 753  : 			UI_ATTR_VIRTUAL_POSITION (x1, y1),
; 754  : 			UI_ATTR_VIRTUAL_SIZE (x2 - x1, y2 - y1),
; 755  : 			UI_ATTR_CLEAR (TRUE),
; 756  : 			UI_ATTR_VSLIDER (0, 300, 12),
; 757  : 			UI_ATTR_END
; 758  : 		);
; 759  : 
; 760  : 	set_common_slider_graphics (chat_message_list_area);

  0059e	a1 00 00 00 00	 mov	 eax, DWORD PTR ?chat_message_list_area@@3PAUUI_OBJECT@@A
  005a3	50		 push	 eax
  005a4	e8 00 00 00 00	 call	 ?set_common_slider_graphics@@YGXPAUUI_OBJECT@@@Z ; set_common_slider_graphics

; 761  : 
; 762  : 	x1 = 0.0;

  005a9	0f 57 c0	 xorps	 xmm0, xmm0
  005ac	f3 0f 11 45 fc	 movss	 DWORD PTR _x1$[ebp], xmm0

; 763  : 	y1 = 0.0;

  005b1	0f 57 c0	 xorps	 xmm0, xmm0
  005b4	f3 0f 11 45 f8	 movss	 DWORD PTR _y1$[ebp], xmm0

; 764  : 	x2 = 0.95;

  005b9	f3 0f 10 05 00
	00 00 00	 movss	 xmm0, DWORD PTR __real@3f733333
  005c1	f3 0f 11 45 f4	 movss	 DWORD PTR _x2$[ebp], xmm0

; 765  : 	y2 = 1.0;

  005c6	f3 0f 10 05 00
	00 00 00	 movss	 xmm0, DWORD PTR __real@3f800000
  005ce	f3 0f 11 45 f0	 movss	 DWORD PTR _y2$[ebp], xmm0

; 766  : 
; 767  : 	chat_message_list = create_ui_object

  005d3	6a 11		 push	 17			; 00000011H
  005d5	6a 01		 push	 1
  005d7	6a 07		 push	 7
  005d9	6a 00		 push	 0
  005db	6a 2f		 push	 47			; 0000002fH
  005dd	f3 0f 10 45 f0	 movss	 xmm0, DWORD PTR _y2$[ebp]
  005e2	f3 0f 5c 45 f8	 subss	 xmm0, DWORD PTR _y1$[ebp]
  005e7	f3 0f 5a c0	 cvtss2sd xmm0, xmm0
  005eb	83 ec 08	 sub	 esp, 8
  005ee	f2 0f 11 04 24	 movsd	 QWORD PTR [esp], xmm0
  005f3	f3 0f 10 45 f4	 movss	 xmm0, DWORD PTR _x2$[ebp]
  005f8	f3 0f 5c 45 fc	 subss	 xmm0, DWORD PTR _x1$[ebp]
  005fd	f3 0f 5a c0	 cvtss2sd xmm0, xmm0
  00601	83 ec 08	 sub	 esp, 8
  00604	f2 0f 11 04 24	 movsd	 QWORD PTR [esp], xmm0
  00609	6a 59		 push	 89			; 00000059H
  0060b	f3 0f 5a 45 f8	 cvtss2sd xmm0, DWORD PTR _y1$[ebp]
  00610	83 ec 08	 sub	 esp, 8
  00613	f2 0f 11 04 24	 movsd	 QWORD PTR [esp], xmm0
  00618	f3 0f 5a 45 fc	 cvtss2sd xmm0, DWORD PTR _x1$[ebp]
  0061d	83 ec 08	 sub	 esp, 8
  00620	f2 0f 11 04 24	 movsd	 QWORD PTR [esp], xmm0
  00625	6a 58		 push	 88			; 00000058H
  00627	a1 00 00 00 00	 mov	 eax, DWORD PTR ?chat_message_list_area@@3PAUUI_OBJECT@@A
  0062c	50		 push	 eax
  0062d	6a 32		 push	 50			; 00000032H
  0062f	6a 0d		 push	 13			; 0000000dH
  00631	e8 00 00 00 00	 call	 ?create_ui_object@@YAPAUUI_OBJECT@@HZZ ; create_ui_object
  00636	83 c4 48	 add	 esp, 72			; 00000048H
  00639	a3 00 00 00 00	 mov	 DWORD PTR ?chat_message_list@@3PAUUI_OBJECT@@A, eax

; 768  : 			(
; 769  : 				UI_TYPE_LIST_BOX,
; 770  : 				UI_ATTR_PARENT (chat_message_list_area),
; 771  : 				UI_ATTR_VIRTUAL_POSITION (x1, y1),
; 772  : 				UI_ATTR_VIRTUAL_SIZE (x2 - x1, y2 - y1),
; 773  : 				UI_ATTR_NOTIFY_ON (NOTIFY_TYPE_NONE),
; 774  : 				UI_ATTR_CLEAR (TRUE),
; 775  : 				UI_ATTR_END
; 776  : 			);
; 777  : 
; 778  : 	/////////////////////////////////////////////////////////////////
; 779  : 	// Chat Text area
; 780  : 
; 781  : 	x1 = 0.100;

  0063e	f3 0f 10 05 00
	00 00 00	 movss	 xmm0, DWORD PTR __real@3dcccccd
  00646	f3 0f 11 45 fc	 movss	 DWORD PTR _x1$[ebp], xmm0

; 782  : 	y1 = 0.720;

  0064b	f3 0f 10 05 00
	00 00 00	 movss	 xmm0, DWORD PTR __real@3f3851ec
  00653	f3 0f 11 45 f8	 movss	 DWORD PTR _y1$[ebp], xmm0

; 783  : 	x2 = 0.876;

  00658	f3 0f 10 05 00
	00 00 00	 movss	 xmm0, DWORD PTR __real@3f604189
  00660	f3 0f 11 45 f4	 movss	 DWORD PTR _x2$[ebp], xmm0

; 784  : 	y2 = 0.756;

  00665	f3 0f 10 05 00
	00 00 00	 movss	 xmm0, DWORD PTR __real@3f418937
  0066d	f3 0f 11 45 f0	 movss	 DWORD PTR _y2$[ebp], xmm0

; 785  : 
; 786  : 	sprintf (string, "%s:", get_trans ("Enter Message"));

  00672	68 00 00 00 00	 push	 OFFSET ??_C@_0O@OHJDBNJC@Enter?5Message@
  00677	e8 00 00 00 00	 call	 ?get_trans@@YGPBDPBD@Z	; get_trans
  0067c	50		 push	 eax
  0067d	68 00 00 00 00	 push	 OFFSET ??_C@_03DKEJHHJP@?$CFs?3@
  00682	8d 85 ec fe ff
	ff		 lea	 eax, DWORD PTR _string$[ebp]
  00688	50		 push	 eax
  00689	e8 00 00 00 00	 call	 _sprintf
  0068e	83 c4 0c	 add	 esp, 12			; 0000000cH

; 787  : 
; 788  : 	create_ui_object

  00691	6a 11		 push	 17			; 00000011H
  00693	6a 01		 push	 1
  00695	6a 07		 push	 7
  00697	8d 85 ec fe ff
	ff		 lea	 eax, DWORD PTR _string$[ebp]
  0069d	50		 push	 eax
  0069e	6a 4a		 push	 74			; 0000004aH
  006a0	6a 01		 push	 1
  006a2	6a 4b		 push	 75			; 0000004bH
  006a4	0f b6 0d 03 00
	00 00		 movzx	 ecx, BYTE PTR ?ui_ingame_dead_text_colour@@3UREAL_COLOUR@@A+3
  006ab	51		 push	 ecx
  006ac	0f b6 15 00 00
	00 00		 movzx	 edx, BYTE PTR ?ui_ingame_dead_text_colour@@3UREAL_COLOUR@@A
  006b3	52		 push	 edx
  006b4	0f b6 05 01 00
	00 00		 movzx	 eax, BYTE PTR ?ui_ingame_dead_text_colour@@3UREAL_COLOUR@@A+1
  006bb	50		 push	 eax
  006bc	0f b6 0d 02 00
	00 00		 movzx	 ecx, BYTE PTR ?ui_ingame_dead_text_colour@@3UREAL_COLOUR@@A+2
  006c3	51		 push	 ecx
  006c4	6a 13		 push	 19			; 00000013H
  006c6	6a 03		 push	 3
  006c8	6a 12		 push	 18			; 00000012H
  006ca	f3 0f 10 45 f0	 movss	 xmm0, DWORD PTR _y2$[ebp]
  006cf	f3 0f 5c 45 f8	 subss	 xmm0, DWORD PTR _y1$[ebp]
  006d4	f3 0f 5a c0	 cvtss2sd xmm0, xmm0
  006d8	83 ec 08	 sub	 esp, 8
  006db	f2 0f 11 04 24	 movsd	 QWORD PTR [esp], xmm0
  006e0	f3 0f 10 45 f4	 movss	 xmm0, DWORD PTR _x2$[ebp]
  006e5	f3 0f 5c 45 fc	 subss	 xmm0, DWORD PTR _x1$[ebp]
  006ea	f3 0f 5a c0	 cvtss2sd xmm0, xmm0
  006ee	83 ec 08	 sub	 esp, 8
  006f1	f2 0f 11 04 24	 movsd	 QWORD PTR [esp], xmm0
  006f6	6a 59		 push	 89			; 00000059H
  006f8	f3 0f 5a 45 f8	 cvtss2sd xmm0, DWORD PTR _y1$[ebp]
  006fd	83 ec 08	 sub	 esp, 8
  00700	f2 0f 11 04 24	 movsd	 QWORD PTR [esp], xmm0
  00705	f3 0f 5a 45 fc	 cvtss2sd xmm0, DWORD PTR _x1$[ebp]
  0070a	83 ec 08	 sub	 esp, 8
  0070d	f2 0f 11 04 24	 movsd	 QWORD PTR [esp], xmm0
  00712	6a 58		 push	 88			; 00000058H
  00714	8b 55 ec	 mov	 edx, DWORD PTR _page$[ebp]
  00717	52		 push	 edx
  00718	6a 32		 push	 50			; 00000032H
  0071a	6a 01		 push	 1
  0071c	e8 00 00 00 00	 call	 ?create_ui_object@@YAPAUUI_OBJECT@@HZZ ; create_ui_object
  00721	83 c4 6c	 add	 esp, 108		; 0000006cH

; 789  : 			(
; 790  : 				UI_TYPE_AREA,
; 791  : 				UI_ATTR_PARENT (page),
; 792  : 				UI_ATTR_VIRTUAL_POSITION (x1, y1),
; 793  : 				UI_ATTR_VIRTUAL_SIZE (x2 - x1, y2 - y1),
; 794  : 				UI_ATTR_FONT_TYPE (UI_FONT_ARIAL_16),
; 795  : 				UI_ATTR_FONT_COLOUR (ui_ingame_dead_text_colour.r, ui_ingame_dead_text_colour.g, ui_ingame_dead_text_colour.b, ui_ingame_dead_text_colour.a),
; 796  : 				UI_ATTR_TEXT_JUSTIFY (TEXT_JUSTIFY_LEFT_CENTRE),
; 797  : 				UI_ATTR_TEXT (string),
; 798  : 				UI_ATTR_CLEAR (TRUE),
; 799  : 				UI_ATTR_END
; 800  : 			);
; 801  : 
; 802  : 	x1 = 0.123;

  00724	f3 0f 10 05 00
	00 00 00	 movss	 xmm0, DWORD PTR __real@3dfbe76d
  0072c	f3 0f 11 45 fc	 movss	 DWORD PTR _x1$[ebp], xmm0

; 803  : 	y1 = 0.762;

  00731	f3 0f 10 05 00
	00 00 00	 movss	 xmm0, DWORD PTR __real@3f43126f
  00739	f3 0f 11 45 f8	 movss	 DWORD PTR _y1$[ebp], xmm0

; 804  : 	x2 = 0.876;

  0073e	f3 0f 10 05 00
	00 00 00	 movss	 xmm0, DWORD PTR __real@3f604189
  00746	f3 0f 11 45 f4	 movss	 DWORD PTR _x2$[ebp], xmm0

; 805  : 	y2 = 0.834;

  0074b	f3 0f 10 05 00
	00 00 00	 movss	 xmm0, DWORD PTR __real@3f558106
  00753	f3 0f 11 45 f0	 movss	 DWORD PTR _y2$[ebp], xmm0

; 806  : 
; 807  : 	chat_text_area = create_ui_object

  00758	6a 11		 push	 17			; 00000011H
  0075a	68 00 00 00 00	 push	 OFFSET ?chat_enter_message_function@@YGXPAUUI_OBJECT@@PAX@Z ; chat_enter_message_function
  0075f	6a 16		 push	 22			; 00000016H
  00761	68 00 00 00 00	 push	 OFFSET ??_C@_0CD@FGMPEBM@graphics?2ui?2cohokum?2map?2msgbar?4@
  00766	e8 00 00 00 00	 call	 ?create_texture_graphic@@YGPAUTEXTURE_GRAPHIC@@PBD@Z ; create_texture_graphic
  0076b	50		 push	 eax
  0076c	6a 4c		 push	 76			; 0000004cH
  0076e	f3 0f 10 45 f0	 movss	 xmm0, DWORD PTR _y2$[ebp]
  00773	f3 0f 5c 45 f8	 subss	 xmm0, DWORD PTR _y1$[ebp]
  00778	f3 0f 5a c0	 cvtss2sd xmm0, xmm0
  0077c	83 ec 08	 sub	 esp, 8
  0077f	f2 0f 11 04 24	 movsd	 QWORD PTR [esp], xmm0
  00784	f3 0f 10 45 f4	 movss	 xmm0, DWORD PTR _x2$[ebp]
  00789	f3 0f 5c 45 fc	 subss	 xmm0, DWORD PTR _x1$[ebp]
  0078e	f3 0f 5a c0	 cvtss2sd xmm0, xmm0
  00792	83 ec 08	 sub	 esp, 8
  00795	f2 0f 11 04 24	 movsd	 QWORD PTR [esp], xmm0
  0079a	6a 59		 push	 89			; 00000059H
  0079c	f3 0f 5a 45 f8	 cvtss2sd xmm0, DWORD PTR _y1$[ebp]
  007a1	83 ec 08	 sub	 esp, 8
  007a4	f2 0f 11 04 24	 movsd	 QWORD PTR [esp], xmm0
  007a9	f3 0f 5a 45 fc	 cvtss2sd xmm0, DWORD PTR _x1$[ebp]
  007ae	83 ec 08	 sub	 esp, 8
  007b1	f2 0f 11 04 24	 movsd	 QWORD PTR [esp], xmm0
  007b6	6a 58		 push	 88			; 00000058H
  007b8	8b 45 ec	 mov	 eax, DWORD PTR _page$[ebp]
  007bb	50		 push	 eax
  007bc	6a 32		 push	 50			; 00000032H
  007be	6a 01		 push	 1
  007c0	e8 00 00 00 00	 call	 ?create_ui_object@@YAPAUUI_OBJECT@@HZZ ; create_ui_object
  007c5	83 c4 48	 add	 esp, 72			; 00000048H
  007c8	a3 00 00 00 00	 mov	 DWORD PTR ?chat_text_area@@3PAUUI_OBJECT@@A, eax

; 808  : 			(
; 809  : 				UI_TYPE_AREA,
; 810  : 				UI_ATTR_PARENT (page),
; 811  : 				UI_ATTR_VIRTUAL_POSITION (x1, y1),
; 812  : 				UI_ATTR_VIRTUAL_SIZE (x2 - x1, y2 - y1),
; 813  : 				UI_ATTR_TEXTURE_GRAPHIC (create_texture_graphic ("graphics\\ui\\cohokum\\map\\msgbar.psd")),
; 814  : 				UI_ATTR_FUNCTION (chat_enter_message_function),
; 815  : 				UI_ATTR_END
; 816  : 			);
; 817  : 
; 818  : 	// Chat Input
; 819  : 
; 820  : 	x1 = 0.04;

  007cd	f3 0f 10 05 00
	00 00 00	 movss	 xmm0, DWORD PTR __real@3d23d70a
  007d5	f3 0f 11 45 fc	 movss	 DWORD PTR _x1$[ebp], xmm0

; 821  : 	y1 = 0.25;

  007da	f3 0f 10 05 00
	00 00 00	 movss	 xmm0, DWORD PTR __real@3e800000
  007e2	f3 0f 11 45 f8	 movss	 DWORD PTR _y1$[ebp], xmm0

; 822  : 	x2 = 1.0;

  007e7	f3 0f 10 05 00
	00 00 00	 movss	 xmm0, DWORD PTR __real@3f800000
  007ef	f3 0f 11 45 f4	 movss	 DWORD PTR _x2$[ebp], xmm0

; 823  : 	y2 = 1.0;

  007f4	f3 0f 10 05 00
	00 00 00	 movss	 xmm0, DWORD PTR __real@3f800000
  007fc	f3 0f 11 45 f0	 movss	 DWORD PTR _y2$[ebp], xmm0

; 824  : 
; 825  :    chat_input = create_ui_object

  00801	6a 11		 push	 17			; 00000011H
  00803	6a 01		 push	 1
  00805	6a 07		 push	 7
  00807	68 00 00 00 00	 push	 OFFSET ??_C@_00CNPNBAHC@@
  0080c	6a 4a		 push	 74			; 0000004aH
  0080e	6a 01		 push	 1
  00810	6a 4b		 push	 75			; 0000004bH
  00812	68 00 00 00 00	 push	 OFFSET ?chat_input_function@@YGXPAUUI_OBJECT@@PAX@Z ; chat_input_function
  00817	6a 16		 push	 22			; 00000016H
  00819	0f b6 05 03 00
	00 00		 movzx	 eax, BYTE PTR ?ui_ingame_selected_text_colour@@3UREAL_COLOUR@@A+3
  00820	50		 push	 eax
  00821	0f b6 0d 00 00
	00 00		 movzx	 ecx, BYTE PTR ?ui_ingame_selected_text_colour@@3UREAL_COLOUR@@A
  00828	51		 push	 ecx
  00829	0f b6 15 01 00
	00 00		 movzx	 edx, BYTE PTR ?ui_ingame_selected_text_colour@@3UREAL_COLOUR@@A+1
  00830	52		 push	 edx
  00831	0f b6 05 02 00
	00 00		 movzx	 eax, BYTE PTR ?ui_ingame_selected_text_colour@@3UREAL_COLOUR@@A+2
  00838	50		 push	 eax
  00839	6a 13		 push	 19			; 00000013H
  0083b	6a 03		 push	 3
  0083d	6a 12		 push	 18			; 00000012H
  0083f	f3 0f 10 45 f0	 movss	 xmm0, DWORD PTR _y2$[ebp]
  00844	f3 0f 5c 45 f8	 subss	 xmm0, DWORD PTR _y1$[ebp]
  00849	f3 0f 5a c0	 cvtss2sd xmm0, xmm0
  0084d	83 ec 08	 sub	 esp, 8
  00850	f2 0f 11 04 24	 movsd	 QWORD PTR [esp], xmm0
  00855	f3 0f 10 45 f4	 movss	 xmm0, DWORD PTR _x2$[ebp]
  0085a	f3 0f 5c 45 fc	 subss	 xmm0, DWORD PTR _x1$[ebp]
  0085f	f3 0f 5a c0	 cvtss2sd xmm0, xmm0
  00863	83 ec 08	 sub	 esp, 8
  00866	f2 0f 11 04 24	 movsd	 QWORD PTR [esp], xmm0
  0086b	6a 59		 push	 89			; 00000059H
  0086d	f3 0f 5a 45 f8	 cvtss2sd xmm0, DWORD PTR _y1$[ebp]
  00872	83 ec 08	 sub	 esp, 8
  00875	f2 0f 11 04 24	 movsd	 QWORD PTR [esp], xmm0
  0087a	f3 0f 5a 45 fc	 cvtss2sd xmm0, DWORD PTR _x1$[ebp]
  0087f	83 ec 08	 sub	 esp, 8
  00882	f2 0f 11 04 24	 movsd	 QWORD PTR [esp], xmm0
  00887	6a 58		 push	 88			; 00000058H
  00889	8b 0d 00 00 00
	00		 mov	 ecx, DWORD PTR ?chat_text_area@@3PAUUI_OBJECT@@A
  0088f	51		 push	 ecx
  00890	6a 32		 push	 50			; 00000032H
  00892	6a 10		 push	 16			; 00000010H
  00894	e8 00 00 00 00	 call	 ?create_ui_object@@YAPAUUI_OBJECT@@HZZ ; create_ui_object
  00899	83 c4 74	 add	 esp, 116		; 00000074H
  0089c	a3 00 00 00 00	 mov	 DWORD PTR ?chat_input@@3PAUUI_OBJECT@@A, eax

; 826  :             (
; 827  :                UI_TYPE_INPUT,
; 828  :                UI_ATTR_PARENT (chat_text_area),
; 829  : 					UI_ATTR_VIRTUAL_POSITION (x1, y1),
; 830  : 					UI_ATTR_VIRTUAL_SIZE (x2 - x1, y2 - y1),
; 831  : 					UI_ATTR_FONT_TYPE (UI_FONT_ARIAL_16),
; 832  : 					UI_ATTR_FONT_COLOUR (ui_ingame_selected_text_colour.r, ui_ingame_selected_text_colour.g, ui_ingame_selected_text_colour.b, ui_ingame_selected_text_colour.a),
; 833  : 					UI_ATTR_FUNCTION (chat_input_function),
; 834  : 					UI_ATTR_TEXT_JUSTIFY (TEXT_JUSTIFY_LEFT_CENTRE),
; 835  : 					UI_ATTR_TEXT (""),
; 836  : 					UI_ATTR_CLEAR (TRUE),
; 837  :                UI_ATTR_END
; 838  :             );
; 839  : 
; 840  : 	// Chat Output
; 841  : 
; 842  : 	x1 = 0.04;

  008a1	f3 0f 10 05 00
	00 00 00	 movss	 xmm0, DWORD PTR __real@3d23d70a
  008a9	f3 0f 11 45 fc	 movss	 DWORD PTR _x1$[ebp], xmm0

; 843  : 	y1 = 0.16;

  008ae	f3 0f 10 05 00
	00 00 00	 movss	 xmm0, DWORD PTR __real@3e23d70a
  008b6	f3 0f 11 45 f8	 movss	 DWORD PTR _y1$[ebp], xmm0

; 844  : 	x2 = 1.0;

  008bb	f3 0f 10 05 00
	00 00 00	 movss	 xmm0, DWORD PTR __real@3f800000
  008c3	f3 0f 11 45 f4	 movss	 DWORD PTR _x2$[ebp], xmm0

; 845  : 	y2 = 1.0;

  008c8	f3 0f 10 05 00
	00 00 00	 movss	 xmm0, DWORD PTR __real@3f800000
  008d0	f3 0f 11 45 f0	 movss	 DWORD PTR _y2$[ebp], xmm0

; 846  : 
; 847  :    chat_current_text = create_ui_object

  008d5	6a 11		 push	 17			; 00000011H
  008d7	6a 01		 push	 1
  008d9	6a 07		 push	 7
  008db	68 00 00 00 00	 push	 OFFSET ?chat_enter_message_function@@YGXPAUUI_OBJECT@@PAX@Z ; chat_enter_message_function
  008e0	6a 16		 push	 22			; 00000016H
  008e2	68 00 00 00 00	 push	 OFFSET ??_C@_00CNPNBAHC@@
  008e7	6a 4a		 push	 74			; 0000004aH
  008e9	6a 01		 push	 1
  008eb	6a 4b		 push	 75			; 0000004bH
  008ed	0f b6 05 03 00
	00 00		 movzx	 eax, BYTE PTR ?ui_ingame_dead_text_colour@@3UREAL_COLOUR@@A+3
  008f4	50		 push	 eax
  008f5	0f b6 0d 00 00
	00 00		 movzx	 ecx, BYTE PTR ?ui_ingame_dead_text_colour@@3UREAL_COLOUR@@A
  008fc	51		 push	 ecx
  008fd	0f b6 15 01 00
	00 00		 movzx	 edx, BYTE PTR ?ui_ingame_dead_text_colour@@3UREAL_COLOUR@@A+1
  00904	52		 push	 edx
  00905	0f b6 05 02 00
	00 00		 movzx	 eax, BYTE PTR ?ui_ingame_dead_text_colour@@3UREAL_COLOUR@@A+2
  0090c	50		 push	 eax
  0090d	6a 13		 push	 19			; 00000013H
  0090f	6a 03		 push	 3
  00911	6a 12		 push	 18			; 00000012H
  00913	f3 0f 10 45 f0	 movss	 xmm0, DWORD PTR _y2$[ebp]
  00918	f3 0f 5c 45 f8	 subss	 xmm0, DWORD PTR _y1$[ebp]
  0091d	f3 0f 5a c0	 cvtss2sd xmm0, xmm0
  00921	83 ec 08	 sub	 esp, 8
  00924	f2 0f 11 04 24	 movsd	 QWORD PTR [esp], xmm0
  00929	f3 0f 10 45 f4	 movss	 xmm0, DWORD PTR _x2$[ebp]
  0092e	f3 0f 5c 45 fc	 subss	 xmm0, DWORD PTR _x1$[ebp]
  00933	f3 0f 5a c0	 cvtss2sd xmm0, xmm0
  00937	83 ec 08	 sub	 esp, 8
  0093a	f2 0f 11 04 24	 movsd	 QWORD PTR [esp], xmm0
  0093f	6a 59		 push	 89			; 00000059H
  00941	f3 0f 5a 45 f8	 cvtss2sd xmm0, DWORD PTR _y1$[ebp]
  00946	83 ec 08	 sub	 esp, 8
  00949	f2 0f 11 04 24	 movsd	 QWORD PTR [esp], xmm0
  0094e	f3 0f 5a 45 fc	 cvtss2sd xmm0, DWORD PTR _x1$[ebp]
  00953	83 ec 08	 sub	 esp, 8
  00956	f2 0f 11 04 24	 movsd	 QWORD PTR [esp], xmm0
  0095b	6a 58		 push	 88			; 00000058H
  0095d	8b 0d 00 00 00
	00		 mov	 ecx, DWORD PTR ?chat_text_area@@3PAUUI_OBJECT@@A
  00963	51		 push	 ecx
  00964	6a 32		 push	 50			; 00000032H
  00966	6a 01		 push	 1
  00968	e8 00 00 00 00	 call	 ?create_ui_object@@YAPAUUI_OBJECT@@HZZ ; create_ui_object
  0096d	83 c4 74	 add	 esp, 116		; 00000074H
  00970	a3 00 00 00 00	 mov	 DWORD PTR ?chat_current_text@@3PAUUI_OBJECT@@A, eax

; 848  :             (
; 849  :                UI_TYPE_AREA,
; 850  :                UI_ATTR_PARENT (chat_text_area),
; 851  : 					UI_ATTR_VIRTUAL_POSITION (x1, y1),
; 852  : 					UI_ATTR_VIRTUAL_SIZE (x2 - x1, y2 - y1),
; 853  : 					UI_ATTR_FONT_TYPE (UI_FONT_ARIAL_16),
; 854  : 					UI_ATTR_FONT_COLOUR (ui_ingame_dead_text_colour.r, ui_ingame_dead_text_colour.g, ui_ingame_dead_text_colour.b, ui_ingame_dead_text_colour.a),
; 855  : 					UI_ATTR_TEXT_JUSTIFY (TEXT_JUSTIFY_LEFT_CENTRE),
; 856  : 					UI_ATTR_TEXT (""),
; 857  : 					UI_ATTR_FUNCTION (chat_enter_message_function),
; 858  : 					UI_ATTR_CLEAR (TRUE),
; 859  :                UI_ATTR_END
; 860  :             );
; 861  : 
; 862  : 	/////////////////////////////////////////////////////////////////
; 863  : 	// Send Button
; 864  : 
; 865  : 	x1 = 0.235;

  00975	f3 0f 10 05 00
	00 00 00	 movss	 xmm0, DWORD PTR __real@3e70a3d7
  0097d	f3 0f 11 45 fc	 movss	 DWORD PTR _x1$[ebp], xmm0

; 866  : 	y1 = 0.834;

  00982	f3 0f 10 05 00
	00 00 00	 movss	 xmm0, DWORD PTR __real@3f558106
  0098a	f3 0f 11 45 f8	 movss	 DWORD PTR _y1$[ebp], xmm0

; 867  : 	x2 = 0.763;

  0098f	f3 0f 10 05 00
	00 00 00	 movss	 xmm0, DWORD PTR __real@3f4353f8
  00997	f3 0f 11 45 f4	 movss	 DWORD PTR _x2$[ebp], xmm0

; 868  : 	y2 = 0.884;

  0099c	f3 0f 10 05 00
	00 00 00	 movss	 xmm0, DWORD PTR __real@3f624dd3
  009a4	f3 0f 11 45 f0	 movss	 DWORD PTR _y2$[ebp], xmm0

; 869  : 
; 870  : 	chat_send_button = create_ui_object

  009a9	6a 11		 push	 17			; 00000011H
  009ab	68 00 00 00 00	 push	 OFFSET ??_C@_0CE@FHAIKPDG@graphics?2ui?2cohokum?2map?2sendbtn@
  009b0	e8 00 00 00 00	 call	 ?create_texture_graphic@@YGPAUTEXTURE_GRAPHIC@@PBD@Z ; create_texture_graphic
  009b5	50		 push	 eax
  009b6	6a 4c		 push	 76			; 0000004cH
  009b8	68 00 00 00 00	 push	 OFFSET ?draw_chat_send_button@@YGXPAUUI_OBJECT@@PAX@Z ; draw_chat_send_button
  009bd	6a 0f		 push	 15			; 0000000fH
  009bf	68 00 00 00 00	 push	 OFFSET ?notify_send_message@@YGXPAUUI_OBJECT@@PAX@Z ; notify_send_message
  009c4	6a 16		 push	 22			; 00000016H
  009c6	68 00 00 00 00	 push	 OFFSET ??_C@_07JGDIGAGD@UI_SEND@
  009cb	e8 00 00 00 00	 call	 ?get_trans@@YGPBDPBD@Z	; get_trans
  009d0	50		 push	 eax
  009d1	6a 4a		 push	 74			; 0000004aH
  009d3	6a 03		 push	 3
  009d5	6a 12		 push	 18			; 00000012H
  009d7	f3 0f 10 45 f0	 movss	 xmm0, DWORD PTR _y2$[ebp]
  009dc	f3 0f 5c 45 f8	 subss	 xmm0, DWORD PTR _y1$[ebp]
  009e1	f3 0f 5a c0	 cvtss2sd xmm0, xmm0
  009e5	83 ec 08	 sub	 esp, 8
  009e8	f2 0f 11 04 24	 movsd	 QWORD PTR [esp], xmm0
  009ed	f3 0f 10 45 f4	 movss	 xmm0, DWORD PTR _x2$[ebp]
  009f2	f3 0f 5c 45 fc	 subss	 xmm0, DWORD PTR _x1$[ebp]
  009f7	f3 0f 5a c0	 cvtss2sd xmm0, xmm0
  009fb	83 ec 08	 sub	 esp, 8
  009fe	f2 0f 11 04 24	 movsd	 QWORD PTR [esp], xmm0
  00a03	6a 59		 push	 89			; 00000059H
  00a05	f3 0f 5a 45 f8	 cvtss2sd xmm0, DWORD PTR _y1$[ebp]
  00a0a	83 ec 08	 sub	 esp, 8
  00a0d	f2 0f 11 04 24	 movsd	 QWORD PTR [esp], xmm0
  00a12	f3 0f 5a 45 fc	 cvtss2sd xmm0, DWORD PTR _x1$[ebp]
  00a17	83 ec 08	 sub	 esp, 8
  00a1a	f2 0f 11 04 24	 movsd	 QWORD PTR [esp], xmm0
  00a1f	6a 58		 push	 88			; 00000058H
  00a21	8b 45 ec	 mov	 eax, DWORD PTR _page$[ebp]
  00a24	50		 push	 eax
  00a25	6a 32		 push	 50			; 00000032H
  00a27	6a 02		 push	 2
  00a29	e8 00 00 00 00	 call	 ?create_ui_object@@YAPAUUI_OBJECT@@HZZ ; create_ui_object
  00a2e	83 c4 60	 add	 esp, 96			; 00000060H
  00a31	a3 00 00 00 00	 mov	 DWORD PTR ?chat_send_button@@3PAUUI_OBJECT@@A, eax

; 871  : 			(
; 872  : 				UI_TYPE_BUTTON,
; 873  :             UI_ATTR_PARENT (page),
; 874  : 				UI_ATTR_VIRTUAL_POSITION (x1, y1),
; 875  : 				UI_ATTR_VIRTUAL_SIZE (x2 - x1, y2 - y1),
; 876  : 				UI_ATTR_FONT_TYPE (UI_FONT_ARIAL_16),
; 877  : 				UI_ATTR_TEXT (get_trans ("UI_SEND")),
; 878  : 				UI_ATTR_FUNCTION (notify_send_message),
; 879  : 				UI_ATTR_DRAW_FUNCTION (draw_chat_send_button),
; 880  : 				UI_ATTR_TEXTURE_GRAPHIC (create_texture_graphic ("graphics\\ui\\cohokum\\map\\sendbtn.psd")),
; 881  : 				UI_ATTR_END
; 882  : 			);
; 883  : 
; 884  : 	set_ingame_ui_object_mouse_over_properties (chat_send_button);

  00a36	a1 00 00 00 00	 mov	 eax, DWORD PTR ?chat_send_button@@3PAUUI_OBJECT@@A
  00a3b	50		 push	 eax
  00a3c	e8 00 00 00 00	 call	 ?set_ingame_ui_object_mouse_over_properties@@YGXPAUUI_OBJECT@@@Z ; set_ingame_ui_object_mouse_over_properties

; 885  : 
; 886  : 	/////////////////////////////////////////////////////////////////
; 887  : 	// "Divider" graphics
; 888  : 
; 889  : 	x1 = 0.022;

  00a41	f3 0f 10 05 00
	00 00 00	 movss	 xmm0, DWORD PTR __real@3cb43958
  00a49	f3 0f 11 45 fc	 movss	 DWORD PTR _x1$[ebp], xmm0

; 890  : 	y1 = 0.109;

  00a4e	f3 0f 10 05 00
	00 00 00	 movss	 xmm0, DWORD PTR __real@3ddf3b64
  00a56	f3 0f 11 45 f8	 movss	 DWORD PTR _y1$[ebp], xmm0

; 891  : 	x2 = 0.971;

  00a5b	f3 0f 10 05 00
	00 00 00	 movss	 xmm0, DWORD PTR __real@3f789375
  00a63	f3 0f 11 45 f4	 movss	 DWORD PTR _x2$[ebp], xmm0

; 892  : 	y2 = 0.133;

  00a68	f3 0f 10 05 00
	00 00 00	 movss	 xmm0, DWORD PTR __real@3e083127
  00a70	f3 0f 11 45 f0	 movss	 DWORD PTR _y2$[ebp], xmm0

; 893  : 
; 894  : 	create_ui_object

  00a75	6a 11		 push	 17			; 00000011H
  00a77	a1 00 00 00 00	 mov	 eax, DWORD PTR ?common_divider_graphic@@3PAUTEXTURE_GRAPHIC@@A ; common_divider_graphic
  00a7c	50		 push	 eax
  00a7d	6a 4c		 push	 76			; 0000004cH
  00a7f	f3 0f 10 45 f0	 movss	 xmm0, DWORD PTR _y2$[ebp]
  00a84	f3 0f 5c 45 f8	 subss	 xmm0, DWORD PTR _y1$[ebp]
  00a89	f3 0f 5a c0	 cvtss2sd xmm0, xmm0
  00a8d	83 ec 08	 sub	 esp, 8
  00a90	f2 0f 11 04 24	 movsd	 QWORD PTR [esp], xmm0
  00a95	f3 0f 10 45 f4	 movss	 xmm0, DWORD PTR _x2$[ebp]
  00a9a	f3 0f 5c 45 fc	 subss	 xmm0, DWORD PTR _x1$[ebp]
  00a9f	f3 0f 5a c0	 cvtss2sd xmm0, xmm0
  00aa3	83 ec 08	 sub	 esp, 8
  00aa6	f2 0f 11 04 24	 movsd	 QWORD PTR [esp], xmm0
  00aab	6a 59		 push	 89			; 00000059H
  00aad	f3 0f 5a 45 f8	 cvtss2sd xmm0, DWORD PTR _y1$[ebp]
  00ab2	83 ec 08	 sub	 esp, 8
  00ab5	f2 0f 11 04 24	 movsd	 QWORD PTR [esp], xmm0
  00aba	f3 0f 5a 45 fc	 cvtss2sd xmm0, DWORD PTR _x1$[ebp]
  00abf	83 ec 08	 sub	 esp, 8
  00ac2	f2 0f 11 04 24	 movsd	 QWORD PTR [esp], xmm0
  00ac7	6a 58		 push	 88			; 00000058H
  00ac9	8b 4d ec	 mov	 ecx, DWORD PTR _page$[ebp]
  00acc	51		 push	 ecx
  00acd	6a 32		 push	 50			; 00000032H
  00acf	6a 01		 push	 1
  00ad1	e8 00 00 00 00	 call	 ?create_ui_object@@YAPAUUI_OBJECT@@HZZ ; create_ui_object
  00ad6	83 c4 40	 add	 esp, 64			; 00000040H

; 895  : 			(
; 896  : 				UI_TYPE_AREA,
; 897  : 				UI_ATTR_PARENT (page),
; 898  : 				UI_ATTR_VIRTUAL_POSITION (x1, y1),
; 899  : 				UI_ATTR_VIRTUAL_SIZE (x2 - x1, y2 - y1),
; 900  : 				UI_ATTR_TEXTURE_GRAPHIC (common_divider_graphic),
; 901  : 				UI_ATTR_END
; 902  : 			);
; 903  : 
; 904  : 	x1 = 0.022;

  00ad9	f3 0f 10 05 00
	00 00 00	 movss	 xmm0, DWORD PTR __real@3cb43958
  00ae1	f3 0f 11 45 fc	 movss	 DWORD PTR _x1$[ebp], xmm0

; 905  : 	y1 = 0.644;

  00ae6	f3 0f 10 05 00
	00 00 00	 movss	 xmm0, DWORD PTR __real@3f24dd2f
  00aee	f3 0f 11 45 f8	 movss	 DWORD PTR _y1$[ebp], xmm0

; 906  : 	x2 = 0.971;

  00af3	f3 0f 10 05 00
	00 00 00	 movss	 xmm0, DWORD PTR __real@3f789375
  00afb	f3 0f 11 45 f4	 movss	 DWORD PTR _x2$[ebp], xmm0

; 907  : 	y2 = 0.667;

  00b00	f3 0f 10 05 00
	00 00 00	 movss	 xmm0, DWORD PTR __real@3f2ac083
  00b08	f3 0f 11 45 f0	 movss	 DWORD PTR _y2$[ebp], xmm0

; 908  : 
; 909  : 	create_ui_object

  00b0d	6a 11		 push	 17			; 00000011H
  00b0f	a1 00 00 00 00	 mov	 eax, DWORD PTR ?common_divider_graphic@@3PAUTEXTURE_GRAPHIC@@A ; common_divider_graphic
  00b14	50		 push	 eax
  00b15	6a 4c		 push	 76			; 0000004cH
  00b17	f3 0f 10 45 f0	 movss	 xmm0, DWORD PTR _y2$[ebp]
  00b1c	f3 0f 5c 45 f8	 subss	 xmm0, DWORD PTR _y1$[ebp]
  00b21	f3 0f 5a c0	 cvtss2sd xmm0, xmm0
  00b25	83 ec 08	 sub	 esp, 8
  00b28	f2 0f 11 04 24	 movsd	 QWORD PTR [esp], xmm0
  00b2d	f3 0f 10 45 f4	 movss	 xmm0, DWORD PTR _x2$[ebp]
  00b32	f3 0f 5c 45 fc	 subss	 xmm0, DWORD PTR _x1$[ebp]
  00b37	f3 0f 5a c0	 cvtss2sd xmm0, xmm0
  00b3b	83 ec 08	 sub	 esp, 8
  00b3e	f2 0f 11 04 24	 movsd	 QWORD PTR [esp], xmm0
  00b43	6a 59		 push	 89			; 00000059H
  00b45	f3 0f 5a 45 f8	 cvtss2sd xmm0, DWORD PTR _y1$[ebp]
  00b4a	83 ec 08	 sub	 esp, 8
  00b4d	f2 0f 11 04 24	 movsd	 QWORD PTR [esp], xmm0
  00b52	f3 0f 5a 45 fc	 cvtss2sd xmm0, DWORD PTR _x1$[ebp]
  00b57	83 ec 08	 sub	 esp, 8
  00b5a	f2 0f 11 04 24	 movsd	 QWORD PTR [esp], xmm0
  00b5f	6a 58		 push	 88			; 00000058H
  00b61	8b 4d ec	 mov	 ecx, DWORD PTR _page$[ebp]
  00b64	51		 push	 ecx
  00b65	6a 32		 push	 50			; 00000032H
  00b67	6a 01		 push	 1
  00b69	e8 00 00 00 00	 call	 ?create_ui_object@@YAPAUUI_OBJECT@@HZZ ; create_ui_object
  00b6e	83 c4 40	 add	 esp, 64			; 00000040H

; 910  : 			(
; 911  : 				UI_TYPE_AREA,
; 912  : 				UI_ATTR_PARENT (page),
; 913  : 				UI_ATTR_VIRTUAL_POSITION (x1, y1),
; 914  : 				UI_ATTR_VIRTUAL_SIZE (x2 - x1, y2 - y1),
; 915  : 				UI_ATTR_TEXTURE_GRAPHIC (common_divider_graphic),
; 916  : 				UI_ATTR_END
; 917  : 			);
; 918  : 
; 919  : 	/////////////////////////////////////////////////////////////////
; 920  : 	// BACK button
; 921  : 
; 922  : 	define_campaign_page_back_button (page, &page_back_button);

  00b71	68 00 00 00 00	 push	 OFFSET ?page_back_button@@3PAUUI_OBJECT@@A
  00b76	8b 45 ec	 mov	 eax, DWORD PTR _page$[ebp]
  00b79	50		 push	 eax
  00b7a	e8 00 00 00 00	 call	 ?define_campaign_page_back_button@@YGXPAUUI_OBJECT@@PAPAU1@@Z ; define_campaign_page_back_button

; 923  : }

  00b7f	5f		 pop	 edi
  00b80	5e		 pop	 esi
  00b81	5b		 pop	 ebx
  00b82	8b e5		 mov	 esp, ebp
  00b84	5d		 pop	 ebp
  00b85	c3		 ret	 0
?define_campaign_screen_chat_page_objects@@YGXXZ ENDP	; define_campaign_screen_chat_page_objects
_TEXT	ENDS
; Function compile flags: /Odtp /ZI
; File c:\users\nhv90\projects\eech\aphavoc\source\ui_menu\ingame\campaign\ca_chat.c
;	COMDAT ?campaign_screen_update_chat_page_pilot@@YGXPAUENTITY@@@Z
_TEXT	SEGMENT
tv85 = -72						; size = 4
tv77 = -72						; size = 4
_current_target$ = -4					; size = 4
_en$ = 8						; size = 4
?campaign_screen_update_chat_page_pilot@@YGXPAUENTITY@@@Z PROC ; campaign_screen_update_chat_page_pilot, COMDAT

; 570  : {

  00000	55		 push	 ebp
  00001	8b ec		 mov	 ebp, esp
  00003	83 ec 48	 sub	 esp, 72			; 00000048H
  00006	53		 push	 ebx
  00007	56		 push	 esi
  00008	57		 push	 edi

; 571  : 	entity
; 572  : 		*current_target;
; 573  : 		
; 574  : 	current_target = get_local_entity_safe_ptr (get_ui_object_item_number (chat_send_button));

  00009	a1 00 00 00 00	 mov	 eax, DWORD PTR ?chat_send_button@@3PAUUI_OBJECT@@A
  0000e	50		 push	 eax
  0000f	8b 0d 00 00 00
	00		 mov	 ecx, DWORD PTR ?chat_send_button@@3PAUUI_OBJECT@@A
  00015	8b 11		 mov	 edx, DWORD PTR [ecx]
  00017	8b 04 95 00 00
	00 00		 mov	 eax, DWORD PTR ?fn_get_ui_object_item_number@@3PAP6GHPAUUI_OBJECT@@@ZA[edx*4]
  0001e	ff d0		 call	 eax
  00020	83 f8 ff	 cmp	 eax, -1
  00023	74 26		 je	 SHORT $LN4@campaign_s
  00025	8b 0d 00 00 00
	00		 mov	 ecx, DWORD PTR ?chat_send_button@@3PAUUI_OBJECT@@A
  0002b	51		 push	 ecx
  0002c	8b 15 00 00 00
	00		 mov	 edx, DWORD PTR ?chat_send_button@@3PAUUI_OBJECT@@A
  00032	8b 02		 mov	 eax, DWORD PTR [edx]
  00034	8b 0c 85 00 00
	00 00		 mov	 ecx, DWORD PTR ?fn_get_ui_object_item_number@@3PAP6GHPAUUI_OBJECT@@@ZA[eax*4]
  0003b	ff d1		 call	 ecx
  0003d	c1 e0 04	 shl	 eax, 4
  00040	03 05 00 00 00
	00		 add	 eax, DWORD PTR ?entities@@3PAUENTITY@@A ; entities
  00046	89 45 b8	 mov	 DWORD PTR tv77[ebp], eax
  00049	eb 07		 jmp	 SHORT $LN5@campaign_s
$LN4@campaign_s:
  0004b	c7 45 b8 00 00
	00 00		 mov	 DWORD PTR tv77[ebp], 0
$LN5@campaign_s:
  00052	8b 55 b8	 mov	 edx, DWORD PTR tv77[ebp]
  00055	89 55 fc	 mov	 DWORD PTR _current_target$[ebp], edx

; 575  : 	
; 576  : 	if (current_target == en)

  00058	8b 45 fc	 mov	 eax, DWORD PTR _current_target$[ebp]
  0005b	3b 45 08	 cmp	 eax, DWORD PTR _en$[ebp]
  0005e	75 3e		 jne	 SHORT $LN2@campaign_s

; 577  : 	{
; 578  : 		set_ui_object_item_number (chat_send_button, get_local_entity_safe_index (get_session_entity ()));

  00060	83 3d 00 00 00
	00 00		 cmp	 DWORD PTR ?session_entity@@3PAUENTITY@@A, 0 ; session_entity
  00067	74 13		 je	 SHORT $LN6@campaign_s
  00069	a1 00 00 00 00	 mov	 eax, DWORD PTR ?session_entity@@3PAUENTITY@@A ; session_entity
  0006e	2b 05 00 00 00
	00		 sub	 eax, DWORD PTR ?entities@@3PAUENTITY@@A ; entities
  00074	c1 f8 04	 sar	 eax, 4
  00077	89 45 b8	 mov	 DWORD PTR tv85[ebp], eax
  0007a	eb 07		 jmp	 SHORT $LN7@campaign_s
$LN6@campaign_s:
  0007c	c7 45 b8 ff ff
	ff ff		 mov	 DWORD PTR tv85[ebp], -1
$LN7@campaign_s:
  00083	8b 4d b8	 mov	 ecx, DWORD PTR tv85[ebp]
  00086	51		 push	 ecx
  00087	8b 15 00 00 00
	00		 mov	 edx, DWORD PTR ?chat_send_button@@3PAUUI_OBJECT@@A
  0008d	52		 push	 edx
  0008e	a1 00 00 00 00	 mov	 eax, DWORD PTR ?chat_send_button@@3PAUUI_OBJECT@@A
  00093	8b 08		 mov	 ecx, DWORD PTR [eax]
  00095	8b 14 8d 00 00
	00 00		 mov	 edx, DWORD PTR ?fn_set_ui_object_item_number@@3PAP6GXPAUUI_OBJECT@@H@ZA[ecx*4]
  0009c	ff d2		 call	 edx
$LN2@campaign_s:

; 579  : 	}
; 580  : 
; 581  : 	build_chat_target_list ();

  0009e	e8 00 00 00 00	 call	 ?build_chat_target_list@@YGXXZ ; build_chat_target_list

; 582  : }

  000a3	5f		 pop	 edi
  000a4	5e		 pop	 esi
  000a5	5b		 pop	 ebx
  000a6	8b e5		 mov	 esp, ebp
  000a8	5d		 pop	 ebp
  000a9	c2 04 00	 ret	 4
?campaign_screen_update_chat_page_pilot@@YGXPAUENTITY@@@Z ENDP ; campaign_screen_update_chat_page_pilot
_TEXT	ENDS
; Function compile flags: /Odtp /ZI
; File c:\users\nhv90\projects\eech\aphavoc\source\ui_menu\ingame\campaign\ca_chat.c
;	COMDAT ?initialise_campaign_screen_chat_page_objects@@YGXXZ
_TEXT	SEGMENT
tv85 = -68						; size = 4
?initialise_campaign_screen_chat_page_objects@@YGXXZ PROC ; initialise_campaign_screen_chat_page_objects, COMDAT

; 130  : {

  00000	55		 push	 ebp
  00001	8b ec		 mov	 ebp, esp
  00003	83 ec 44	 sub	 esp, 68			; 00000044H
  00006	53		 push	 ebx
  00007	56		 push	 esi
  00008	57		 push	 edi

; 131  : 	//
; 132  : 	// Set Window Mode
; 133  : 	//
; 134  : 	
; 135  : 	set_ui_object_drawable (chat_target_list_area, TRUE);

  00009	6a 01		 push	 1
  0000b	a1 00 00 00 00	 mov	 eax, DWORD PTR ?chat_target_list_area@@3PAUUI_OBJECT@@A
  00010	50		 push	 eax
  00011	8b 0d 00 00 00
	00		 mov	 ecx, DWORD PTR ?chat_target_list_area@@3PAUUI_OBJECT@@A
  00017	8b 11		 mov	 edx, DWORD PTR [ecx]
  00019	8b 04 95 00 00
	00 00		 mov	 eax, DWORD PTR ?fn_set_ui_object_drawable@@3PAP6GXPAUUI_OBJECT@@H@ZA[edx*4]
  00020	ff d0		 call	 eax

; 136  : 
; 137  : 	set_ui_object_drawable (chat_message_list_area, FALSE);

  00022	6a 00		 push	 0
  00024	a1 00 00 00 00	 mov	 eax, DWORD PTR ?chat_message_list_area@@3PAUUI_OBJECT@@A
  00029	50		 push	 eax
  0002a	8b 0d 00 00 00
	00		 mov	 ecx, DWORD PTR ?chat_message_list_area@@3PAUUI_OBJECT@@A
  00030	8b 11		 mov	 edx, DWORD PTR [ecx]
  00032	8b 04 95 00 00
	00 00		 mov	 eax, DWORD PTR ?fn_set_ui_object_drawable@@3PAP6GXPAUUI_OBJECT@@H@ZA[edx*4]
  00039	ff d0		 call	 eax

; 138  : 
; 139  : 	set_ui_object_state (chat_window_destination_button, UI_OBJECT_STATE_ON);

  0003b	6a 01		 push	 1
  0003d	a1 00 00 00 00	 mov	 eax, DWORD PTR ?chat_window_destination_button@@3PAUUI_OBJECT@@A
  00042	50		 push	 eax
  00043	8b 0d 00 00 00
	00		 mov	 ecx, DWORD PTR ?chat_window_destination_button@@3PAUUI_OBJECT@@A
  00049	8b 11		 mov	 edx, DWORD PTR [ecx]
  0004b	8b 04 95 00 00
	00 00		 mov	 eax, DWORD PTR ?fn_set_ui_object_state@@3PAP6GXPAUUI_OBJECT@@H@ZA[edx*4]
  00052	ff d0		 call	 eax

; 140  : 
; 141  : 	//
; 142  : 	// Set Target to ALL
; 143  : 	//
; 144  : 	
; 145  : 	set_ui_object_item_number (chat_send_button, get_local_entity_safe_index (get_session_entity ()));

  00054	83 3d 00 00 00
	00 00		 cmp	 DWORD PTR ?session_entity@@3PAUENTITY@@A, 0 ; session_entity
  0005b	74 13		 je	 SHORT $LN3@initialise
  0005d	a1 00 00 00 00	 mov	 eax, DWORD PTR ?session_entity@@3PAUENTITY@@A ; session_entity
  00062	2b 05 00 00 00
	00		 sub	 eax, DWORD PTR ?entities@@3PAUENTITY@@A ; entities
  00068	c1 f8 04	 sar	 eax, 4
  0006b	89 45 bc	 mov	 DWORD PTR tv85[ebp], eax
  0006e	eb 07		 jmp	 SHORT $LN4@initialise
$LN3@initialise:
  00070	c7 45 bc ff ff
	ff ff		 mov	 DWORD PTR tv85[ebp], -1
$LN4@initialise:
  00077	8b 4d bc	 mov	 ecx, DWORD PTR tv85[ebp]
  0007a	51		 push	 ecx
  0007b	8b 15 00 00 00
	00		 mov	 edx, DWORD PTR ?chat_send_button@@3PAUUI_OBJECT@@A
  00081	52		 push	 edx
  00082	a1 00 00 00 00	 mov	 eax, DWORD PTR ?chat_send_button@@3PAUUI_OBJECT@@A
  00087	8b 08		 mov	 ecx, DWORD PTR [eax]
  00089	8b 14 8d 00 00
	00 00		 mov	 edx, DWORD PTR ?fn_set_ui_object_item_number@@3PAP6GXPAUUI_OBJECT@@H@ZA[ecx*4]
  00090	ff d2		 call	 edx

; 146  : 
; 147  : 	//
; 148  : 	// Clear Text Input Area
; 149  : 	//
; 150  : 	
; 151  : 	set_ui_object_drawable (chat_input, FALSE);

  00092	6a 00		 push	 0
  00094	a1 00 00 00 00	 mov	 eax, DWORD PTR ?chat_input@@3PAUUI_OBJECT@@A
  00099	50		 push	 eax
  0009a	8b 0d 00 00 00
	00		 mov	 ecx, DWORD PTR ?chat_input@@3PAUUI_OBJECT@@A
  000a0	8b 11		 mov	 edx, DWORD PTR [ecx]
  000a2	8b 04 95 00 00
	00 00		 mov	 eax, DWORD PTR ?fn_set_ui_object_drawable@@3PAP6GXPAUUI_OBJECT@@H@ZA[edx*4]
  000a9	ff d0		 call	 eax

; 152  : 
; 153  : 	set_ui_object_text (chat_input, "");

  000ab	68 00 00 00 00	 push	 OFFSET ??_C@_00CNPNBAHC@@
  000b0	a1 00 00 00 00	 mov	 eax, DWORD PTR ?chat_input@@3PAUUI_OBJECT@@A
  000b5	50		 push	 eax
  000b6	8b 0d 00 00 00
	00		 mov	 ecx, DWORD PTR ?chat_input@@3PAUUI_OBJECT@@A
  000bc	8b 11		 mov	 edx, DWORD PTR [ecx]
  000be	8b 04 95 00 00
	00 00		 mov	 eax, DWORD PTR ?fn_set_ui_object_text@@3PAP6GXPAUUI_OBJECT@@PBD@ZA[edx*4]
  000c5	ff d0		 call	 eax

; 154  : 
; 155  : 	set_ui_object_state (chat_input, UI_OBJECT_STATE_OFF);

  000c7	6a 00		 push	 0
  000c9	a1 00 00 00 00	 mov	 eax, DWORD PTR ?chat_input@@3PAUUI_OBJECT@@A
  000ce	50		 push	 eax
  000cf	8b 0d 00 00 00
	00		 mov	 ecx, DWORD PTR ?chat_input@@3PAUUI_OBJECT@@A
  000d5	8b 11		 mov	 edx, DWORD PTR [ecx]
  000d7	8b 04 95 00 00
	00 00		 mov	 eax, DWORD PTR ?fn_set_ui_object_state@@3PAP6GXPAUUI_OBJECT@@H@ZA[edx*4]
  000de	ff d0		 call	 eax

; 156  : 
; 157  : 	//
; 158  : 	// Clear Current Text Area
; 159  : 	//
; 160  : 	
; 161  : 	set_ui_object_text (chat_current_text, "");

  000e0	68 00 00 00 00	 push	 OFFSET ??_C@_00CNPNBAHC@@
  000e5	a1 00 00 00 00	 mov	 eax, DWORD PTR ?chat_current_text@@3PAUUI_OBJECT@@A
  000ea	50		 push	 eax
  000eb	8b 0d 00 00 00
	00		 mov	 ecx, DWORD PTR ?chat_current_text@@3PAUUI_OBJECT@@A
  000f1	8b 11		 mov	 edx, DWORD PTR [ecx]
  000f3	8b 04 95 00 00
	00 00		 mov	 eax, DWORD PTR ?fn_set_ui_object_text@@3PAP6GXPAUUI_OBJECT@@PBD@ZA[edx*4]
  000fa	ff d0		 call	 eax

; 162  : 
; 163  : 	set_ui_object_drawable (chat_current_text, TRUE);

  000fc	6a 01		 push	 1
  000fe	a1 00 00 00 00	 mov	 eax, DWORD PTR ?chat_current_text@@3PAUUI_OBJECT@@A
  00103	50		 push	 eax
  00104	8b 0d 00 00 00
	00		 mov	 ecx, DWORD PTR ?chat_current_text@@3PAUUI_OBJECT@@A
  0010a	8b 11		 mov	 edx, DWORD PTR [ecx]
  0010c	8b 04 95 00 00
	00 00		 mov	 eax, DWORD PTR ?fn_set_ui_object_drawable@@3PAP6GXPAUUI_OBJECT@@H@ZA[edx*4]
  00113	ff d0		 call	 eax

; 164  : }

  00115	5f		 pop	 edi
  00116	5e		 pop	 esi
  00117	5b		 pop	 ebx
  00118	8b e5		 mov	 esp, ebp
  0011a	5d		 pop	 ebp
  0011b	c3		 ret	 0
?initialise_campaign_screen_chat_page_objects@@YGXXZ ENDP ; initialise_campaign_screen_chat_page_objects
_TEXT	ENDS
; Function compile flags: /Odtp /ZI
; File c:\users\nhv90\projects\eech\aphavoc\source\ui_menu\ingame\campaign\ca_chat.c
;	COMDAT ?show_chat_page@@YGXPAUUI_OBJECT@@@Z
_TEXT	SEGMENT
_obj$ = 8						; size = 4
?show_chat_page@@YGXPAUUI_OBJECT@@@Z PROC		; show_chat_page, COMDAT

; 109  : {

  00000	55		 push	 ebp
  00001	8b ec		 mov	 ebp, esp
  00003	83 ec 40	 sub	 esp, 64			; 00000040H
  00006	53		 push	 ebx
  00007	56		 push	 esi
  00008	57		 push	 edi

; 110  : 	//
; 111  : 	// Build Target List
; 112  : 	//
; 113  : 	
; 114  : 	build_chat_target_list ();

  00009	e8 00 00 00 00	 call	 ?build_chat_target_list@@YGXXZ ; build_chat_target_list

; 115  : 
; 116  : 	//
; 117  : 	// Show Previous Messages
; 118  : 	//
; 119  : 	
; 120  : 	build_chat_message_list ();

  0000e	e8 00 00 00 00	 call	 ?build_chat_message_list@@YGXXZ ; build_chat_message_list

; 121  : 	
; 122  : 	display_campaign_page (CAMPAIGN_PAGE_CHAT, ENTITY_INDEX_DONT_CARE, TRUE);

  00013	6a 01		 push	 1
  00015	6a ff		 push	 -1
  00017	6a 07		 push	 7
  00019	e8 00 00 00 00	 call	 ?display_campaign_page@@YGXW4CAMPAIGN_PAGES@@HH@Z ; display_campaign_page

; 123  : }

  0001e	5f		 pop	 edi
  0001f	5e		 pop	 esi
  00020	5b		 pop	 ebx
  00021	8b e5		 mov	 esp, ebp
  00023	5d		 pop	 ebp
  00024	c2 04 00	 ret	 4
?show_chat_page@@YGXPAUUI_OBJECT@@@Z ENDP		; show_chat_page
_TEXT	ENDS
; Function compile flags: /Odtp /ZI
; File c:\program files (x86)\windows kits\10\include\10.0.18362.0\ucrt\stdio.h
;	COMDAT _sprintf
_TEXT	SEGMENT
__ArgList$ = -8						; size = 4
__Result$ = -4						; size = 4
__Buffer$ = 8						; size = 4
__Format$ = 12						; size = 4
_sprintf PROC						; COMDAT

; 1781 :     {

  00000	55		 push	 ebp
  00001	8b ec		 mov	 ebp, esp
  00003	83 ec 4c	 sub	 esp, 76			; 0000004cH
  00006	53		 push	 ebx
  00007	56		 push	 esi
  00008	57		 push	 edi

; 1782 :         int _Result;
; 1783 :         va_list _ArgList;
; 1784 :         __crt_va_start(_ArgList, _Format);

  00009	8d 45 10	 lea	 eax, DWORD PTR __Format$[ebp+4]
  0000c	89 45 f8	 mov	 DWORD PTR __ArgList$[ebp], eax

; 1785 : 
; 1786 :         #pragma warning(push)
; 1787 :         #pragma warning(disable: 4996) // Deprecation
; 1788 :         _Result = _vsprintf_l(_Buffer, _Format, NULL, _ArgList);

  0000f	8b 45 f8	 mov	 eax, DWORD PTR __ArgList$[ebp]
  00012	50		 push	 eax
  00013	6a 00		 push	 0
  00015	8b 4d 0c	 mov	 ecx, DWORD PTR __Format$[ebp]
  00018	51		 push	 ecx
  00019	8b 55 08	 mov	 edx, DWORD PTR __Buffer$[ebp]
  0001c	52		 push	 edx
  0001d	e8 00 00 00 00	 call	 __vsprintf_l
  00022	83 c4 10	 add	 esp, 16			; 00000010H
  00025	89 45 fc	 mov	 DWORD PTR __Result$[ebp], eax

; 1789 :         #pragma warning(pop)
; 1790 : 
; 1791 :         __crt_va_end(_ArgList);

  00028	c7 45 f8 00 00
	00 00		 mov	 DWORD PTR __ArgList$[ebp], 0

; 1792 :         return _Result;

  0002f	8b 45 fc	 mov	 eax, DWORD PTR __Result$[ebp]

; 1793 :     }

  00032	5f		 pop	 edi
  00033	5e		 pop	 esi
  00034	5b		 pop	 ebx
  00035	8b e5		 mov	 esp, ebp
  00037	5d		 pop	 ebp
  00038	c3		 ret	 0
_sprintf ENDP
_TEXT	ENDS
; Function compile flags: /Odtp /ZI
; File c:\program files (x86)\windows kits\10\include\10.0.18362.0\ucrt\stdio.h
;	COMDAT __vsprintf_l
_TEXT	SEGMENT
__Buffer$ = 8						; size = 4
__Format$ = 12						; size = 4
__Locale$ = 16						; size = 4
__ArgList$ = 20						; size = 4
__vsprintf_l PROC					; COMDAT

; 1459 :     {

  00000	55		 push	 ebp
  00001	8b ec		 mov	 ebp, esp
  00003	83 ec 40	 sub	 esp, 64			; 00000040H
  00006	53		 push	 ebx
  00007	56		 push	 esi
  00008	57		 push	 edi

; 1460 :         #pragma warning(push)
; 1461 :         #pragma warning(disable: 4996) // Deprecation
; 1462 :         return _vsnprintf_l(_Buffer, (size_t)-1, _Format, _Locale, _ArgList);

  00009	8b 45 14	 mov	 eax, DWORD PTR __ArgList$[ebp]
  0000c	50		 push	 eax
  0000d	8b 4d 10	 mov	 ecx, DWORD PTR __Locale$[ebp]
  00010	51		 push	 ecx
  00011	8b 55 0c	 mov	 edx, DWORD PTR __Format$[ebp]
  00014	52		 push	 edx
  00015	6a ff		 push	 -1
  00017	8b 45 08	 mov	 eax, DWORD PTR __Buffer$[ebp]
  0001a	50		 push	 eax
  0001b	e8 00 00 00 00	 call	 __vsnprintf_l
  00020	83 c4 14	 add	 esp, 20			; 00000014H

; 1463 :         #pragma warning(pop)
; 1464 :     }

  00023	5f		 pop	 edi
  00024	5e		 pop	 esi
  00025	5b		 pop	 ebx
  00026	8b e5		 mov	 esp, ebp
  00028	5d		 pop	 ebp
  00029	c3		 ret	 0
__vsprintf_l ENDP
_TEXT	ENDS
; Function compile flags: /Odtp /ZI
; File c:\program files (x86)\windows kits\10\include\10.0.18362.0\ucrt\stdio.h
;	COMDAT __vsnprintf_l
_TEXT	SEGMENT
tv74 = -72						; size = 4
__Result$ = -4						; size = 4
__Buffer$ = 8						; size = 4
__BufferCount$ = 12					; size = 4
__Format$ = 16						; size = 4
__Locale$ = 20						; size = 4
__ArgList$ = 24						; size = 4
__vsnprintf_l PROC					; COMDAT

; 1389 :     {

  00000	55		 push	 ebp
  00001	8b ec		 mov	 ebp, esp
  00003	83 ec 48	 sub	 esp, 72			; 00000048H
  00006	53		 push	 ebx
  00007	56		 push	 esi
  00008	57		 push	 edi

; 1390 :         int const _Result = __stdio_common_vsprintf(

  00009	8b 45 18	 mov	 eax, DWORD PTR __ArgList$[ebp]
  0000c	50		 push	 eax
  0000d	8b 4d 14	 mov	 ecx, DWORD PTR __Locale$[ebp]
  00010	51		 push	 ecx
  00011	8b 55 10	 mov	 edx, DWORD PTR __Format$[ebp]
  00014	52		 push	 edx
  00015	8b 45 0c	 mov	 eax, DWORD PTR __BufferCount$[ebp]
  00018	50		 push	 eax
  00019	8b 4d 08	 mov	 ecx, DWORD PTR __Buffer$[ebp]
  0001c	51		 push	 ecx
  0001d	e8 00 00 00 00	 call	 ___local_stdio_printf_options
  00022	8b 10		 mov	 edx, DWORD PTR [eax]
  00024	83 ca 01	 or	 edx, 1
  00027	8b 40 04	 mov	 eax, DWORD PTR [eax+4]
  0002a	50		 push	 eax
  0002b	52		 push	 edx
  0002c	ff 15 00 00 00
	00		 call	 DWORD PTR __imp____stdio_common_vsprintf
  00032	83 c4 1c	 add	 esp, 28			; 0000001cH
  00035	89 45 fc	 mov	 DWORD PTR __Result$[ebp], eax

; 1391 :             _CRT_INTERNAL_LOCAL_PRINTF_OPTIONS | _CRT_INTERNAL_PRINTF_LEGACY_VSPRINTF_NULL_TERMINATION,
; 1392 :             _Buffer, _BufferCount, _Format, _Locale, _ArgList);
; 1393 : 
; 1394 :         return _Result < 0 ? -1 : _Result;

  00038	83 7d fc 00	 cmp	 DWORD PTR __Result$[ebp], 0
  0003c	7d 09		 jge	 SHORT $LN3@vsnprintf_
  0003e	c7 45 b8 ff ff
	ff ff		 mov	 DWORD PTR tv74[ebp], -1
  00045	eb 06		 jmp	 SHORT $LN4@vsnprintf_
$LN3@vsnprintf_:
  00047	8b 45 fc	 mov	 eax, DWORD PTR __Result$[ebp]
  0004a	89 45 b8	 mov	 DWORD PTR tv74[ebp], eax
$LN4@vsnprintf_:
  0004d	8b 45 b8	 mov	 eax, DWORD PTR tv74[ebp]

; 1395 :     }

  00050	5f		 pop	 edi
  00051	5e		 pop	 esi
  00052	5b		 pop	 ebx
  00053	8b e5		 mov	 esp, ebp
  00055	5d		 pop	 ebp
  00056	c3		 ret	 0
__vsnprintf_l ENDP
_TEXT	ENDS
; Function compile flags: /Odtp /ZI
; File c:\program files (x86)\windows kits\10\include\10.0.18362.0\ucrt\corecrt_stdio_config.h
;	COMDAT ___local_stdio_printf_options
_TEXT	SEGMENT
___local_stdio_printf_options PROC			; COMDAT

; 86   :     {

  00000	55		 push	 ebp
  00001	8b ec		 mov	 ebp, esp
  00003	83 ec 40	 sub	 esp, 64			; 00000040H
  00006	53		 push	 ebx
  00007	56		 push	 esi
  00008	57		 push	 edi

; 87   :         static unsigned __int64 _OptionsStorage;
; 88   :         return &_OptionsStorage;

  00009	b8 00 00 00 00	 mov	 eax, OFFSET ?_OptionsStorage@?1??__local_stdio_printf_options@@9@4_KA ; `__local_stdio_printf_options'::`2'::_OptionsStorage

; 89   :     }

  0000e	5f		 pop	 edi
  0000f	5e		 pop	 esi
  00010	5b		 pop	 ebx
  00011	8b e5		 mov	 esp, ebp
  00013	5d		 pop	 ebp
  00014	c3		 ret	 0
___local_stdio_printf_options ENDP
_TEXT	ENDS
END
