; Listing generated by Microsoft (R) Optimizing Compiler Version 19.16.27045.0 

	TITLE	C:\Users\nhv90\Projects\eech\aphavoc\source\ui_menu\ingame\campaign\ca_dbf.c
	.686P
	.XMM
	include listing.inc
	.model	flat

INCLUDELIB MSVCRTD
INCLUDELIB OLDNAMES

PUBLIC	___local_stdio_printf_options
PUBLIC	__vsnprintf_l
PUBLIC	__vsprintf_l
PUBLIC	_sprintf
PUBLIC	?show_debriefing_page@@YGXPAUENTITY@@HH@Z	; show_debriefing_page
PUBLIC	?autoselect_debriefing_page@@YGXPAUENTITY@@H@Z	; autoselect_debriefing_page
PUBLIC	?initialise_campaign_screen_debriefing_page_objects@@YGXXZ ; initialise_campaign_screen_debriefing_page_objects
PUBLIC	?define_campaign_screen_debriefing_page_objects@@YGXXZ ; define_campaign_screen_debriefing_page_objects
PUBLIC	?overload_debriefing_page_message_responses@@YGXXZ ; overload_debriefing_page_message_responses
PUBLIC	??$min@M@std@@YGABMABM0@Z			; std::min<float>
PUBLIC	??$max@M@std@@YGABMABM0@Z			; std::max<float>
PUBLIC	?_OptionsStorage@?1??__local_stdio_printf_options@@9@4_KA ; `__local_stdio_printf_options'::`2'::_OptionsStorage
PUBLIC	??_C@_02DKCKIIND@?$CFs@				; `string'
PUBLIC	?__LINE__Var@?0??show_debriefing_page@@YGXPAUENTITY@@HH@Z@4JA ; `show_debriefing_page'::`1'::__LINE__Var
PUBLIC	??_C@_0EN@MKENPJLB@c?3?2users?2nhv90?2projects?2eech?2ap@ ; `string'
PUBLIC	??_C@_07CACALAH@mission@			; `string'
PUBLIC	??_C@_0DE@LLEGJEGE@get_local_entity_type?5?$CImission?$CJ@ ; `string'
PUBLIC	??_C@_0BF@LNDABBDG@NO_DEBRIEF_AVAILABLE@	; `string'
PUBLIC	??_C@_0CL@HAAKHKGP@CA_DBF?3?5Awarding?5Medal?5?$CFs?5for?5t@ ; `string'
PUBLIC	??_C@_0CF@CNIJACBI@CA_DBF?3?5no?5text?5for?5medal?5award@ ; `string'
PUBLIC	??_C@_0CP@JGOBOLFL@CA_DBF?3?5Awarding?5Promotion?5?$CFs?5f@ ; `string'
PUBLIC	??_C@_0CJ@JLGEDIIK@CA_DBF?3?5no?5text?5for?5promotion?5a@ ; `string'
PUBLIC	??_C@_0L@CHHJGCHE@Debriefing@			; `string'
PUBLIC	??_C@_06DOPBEMKJ@?$CFs?5?$CD?$CFd@		; `string'
PUBLIC	?__LINE__Var@?0??update_debriefing_page_objects@@YGXPAUUI_OBJECT@@PAX@Z@4JA ; `update_debriefing_page_objects'::`1'::__LINE__Var
PUBLIC	??_C@_06GGONACPB@Result@			; `string'
PUBLIC	??_C@_08MCHEIJJN@?$CFs?5?3?5?5?$CFs@		; `string'
PUBLIC	??_C@_02DPKJAMEF@?$CFd@				; `string'
PUBLIC	??_C@_05ILKPOBAF@Kills@				; `string'
PUBLIC	??_C@_0L@HLNKNDJI@?5?5?5?5?$CFdx?5?$CFs@	; `string'
PUBLIC	??_C@_06JFGMDEJA@Losses@			; `string'
PUBLIC	?__LINE__Var@?0??draw_page_map@@YGXPAUUI_OBJECT@@PAX@Z@4JA ; `draw_page_map'::`1'::__LINE__Var
PUBLIC	??_C@_02LFNMGJAP@en@				; `string'
PUBLIC	??_C@_04FEJCDPHN@?$CFs?5?3@			; `string'
PUBLIC	??_C@_05DGAPONBB@Score@				; `string'
PUBLIC	??_C@_00CNPNBAHC@@				; `string'
PUBLIC	??_C@_0CF@CLPKPOMP@graphics?2ui?2cohokum?2map?2blockpr@ ; `string'
PUBLIC	?__LINE__Var@?0??response_to_force_update@@YGHW4CAMPAIGN_SCREEN_MESSAGES@@PAUENTITY@@@Z@4JA ; `response_to_force_update'::`1'::__LINE__Var
PUBLIC	??_C@_06CGHJMPBJ@sender@			; `string'
PUBLIC	??_C@_0BD@FEEMDEPI@invalid?5comparator@		; `string'
PUBLIC	??_C@_0GK@JMBMHIBC@c?3?2program?5files?5?$CIx86?$CJ?2microsof@ ; `string'
PUBLIC	??_C@_1NE@FKBPBJEB@?$AAc?$AA?3?$AA?2?$AAp?$AAr?$AAo?$AAg?$AAr?$AAa?$AAm?$AA?5?$AAf?$AAi?$AAl?$AAe@ ; `string'
PUBLIC	??_C@_1BC@BLAPCBGI@?$AAs?$AAt?$AAd?$AA?3?$AA?3?$AAm?$AAi?$AAn@ ; `string'
PUBLIC	??_C@_1CK@NDNHPKPI@?$AA?$CC?$AAi?$AAn?$AAv?$AAa?$AAl?$AAi?$AAd?$AA?5?$AAc?$AAo?$AAm?$AAp?$AAa?$AAr@ ; `string'
PUBLIC	??_C@_1BC@ICCOKLEG@?$AAs?$AAt?$AAd?$AA?3?$AA?3?$AAm?$AAa?$AAx@ ; `string'
PUBLIC	__real@3c23d70a
PUBLIC	__real@3cb43958
PUBLIC	__real@3d23d70a
PUBLIC	__real@3d3851ec
PUBLIC	__real@3d449ba6
PUBLIC	__real@3d4ccccd
PUBLIC	__real@3d591687
PUBLIC	__real@3dae147b
PUBLIC	__real@3dbc6a7f
PUBLIC	__real@3dcccccd
PUBLIC	__real@3e0b4396
PUBLIC	__real@3e0d4fdf
PUBLIC	__real@3e21cac1
PUBLIC	__real@3e24dd2f
PUBLIC	__real@3e52f1aa
PUBLIC	__real@3e6147ae
PUBLIC	__real@3e656042
PUBLIC	__real@3ee66666
PUBLIC	__real@3eed9168
PUBLIC	__real@3ef2b021
PUBLIC	__real@3f000000
PUBLIC	__real@3f1eb852
PUBLIC	__real@3f2624dd
PUBLIC	__real@3f2b851f
PUBLIC	__real@3f2c0831
PUBLIC	__real@3f3ef9db
PUBLIC	__real@3f47ae14
PUBLIC	__real@3f666666
PUBLIC	__real@3f70a3d7
PUBLIC	__real@3f7d70a4
PUBLIC	__real@3f800000
PUBLIC	__real@3fe0000000000000
PUBLIC	__real@3ff0000000000000
PUBLIC	__real@3ff3333333333333
PUBLIC	__real@4024000000000000
PUBLIC	__real@457a0000
EXTRN	__imp___invalid_parameter:PROC
EXTRN	__imp____stdio_common_vsprintf:PROC
EXTRN	_memset:PROC
EXTRN	__imp___CrtDbgReport:PROC
EXTRN	?process_assert@@YGXPBD0H@Z:PROC		; process_assert
EXTRN	?debug_log@@YAXPBDZZ:PROC			; debug_log
EXTRN	?create_texture_graphic@@YGPAUTEXTURE_GRAPHIC@@PBD@Z:PROC ; create_texture_graphic
EXTRN	?create_ui_object@@YAPAUUI_OBJECT@@HZZ:PROC	; create_ui_object
EXTRN	?ui_object_destroy_list_items@@YGXPAUUI_OBJECT@@@Z:PROC ; ui_object_destroy_list_items
EXTRN	?add_to_pop_up_list@@YGPAUUI_OBJECT@@PBDPAU1@1HHUREAL_COLOUR@@@Z:PROC ; add_to_pop_up_list
EXTRN	?add_to_pop_up_list_with_word_wrap@@YGPAUUI_OBJECT@@PBDPAU1@1HHUREAL_COLOUR@@@Z:PROC ; add_to_pop_up_list_with_word_wrap
EXTRN	?get_player_task@@YGPAUENTITY@@PAU1@@Z:PROC	; get_player_task
EXTRN	?get_local_task_list_type@@YG?AW4LIST_TYPES@@PAUENTITY@@@Z:PROC ; get_local_task_list_type
EXTRN	?get_trans@@YGPBDPBD@Z:PROC			; get_trans
EXTRN	?draw_2d_map@@YGXPAUUI_OBJECT@@PAX@Z:PROC	; draw_2d_map
EXTRN	?clear_map_mouse_over_object@@YGXPAUMAP_DIMENSION_TYPE@@@Z:PROC ; clear_map_mouse_over_object
EXTRN	?define_map_objects@@YGXPAUUI_OBJECT@@PAUMAP_DIMENSION_TYPE@@PAX22PAPAU1@@Z:PROC ; define_map_objects
EXTRN	?map_centralise_function@@YGXPAUUI_OBJECT@@PAX@Z:PROC ; map_centralise_function
EXTRN	?set_common_slider_graphics@@YGXPAUUI_OBJECT@@@Z:PROC ; set_common_slider_graphics
EXTRN	?display_campaign_page@@YGXW4CAMPAIGN_PAGES@@HH@Z:PROC ; display_campaign_page
EXTRN	?get_current_campaign_page@@YG?AW4CAMPAIGN_PAGES@@XZ:PROC ; get_current_campaign_page
EXTRN	?add_briefing_text_to_list@@YGXPAUUI_OBJECT@@PBD@Z:PROC ; add_briefing_text_to_list
EXTRN	?resize_briefing_list_size@@YGXPAUUI_OBJECT@@@Z:PROC ; resize_briefing_list_size
EXTRN	?get_campaign_history_valid@@YGHXZ:PROC		; get_campaign_history_valid
EXTRN	?define_campaign_page_back_button@@YGXPAUUI_OBJECT@@PAPAU1@@Z:PROC ; define_campaign_page_back_button
EXTRN	?show_map_page@@YGXXZ:PROC			; show_map_page
EXTRN	?campaign_map_left_click_function@@YGXPAUUI_OBJECT@@PAX@Z:PROC ; campaign_map_left_click_function
EXTRN	?get_debriefing_text@@YGHPAUENTITY@@PAPAD1@Z:PROC ; get_debriefing_text
EXTRN	?get_medal_briefing_text@@YGHPAUENTITY@@HPAD@Z:PROC ; get_medal_briefing_text
EXTRN	?get_promotion_briefing_text@@YGHPAUENTITY@@HPAD@Z:PROC ; get_promotion_briefing_text
EXTRN	?fn_set_ui_object_virtual_y_size@@3PAP6GXPAUUI_OBJECT@@M@ZA:BYTE ; fn_set_ui_object_virtual_y_size
EXTRN	?fn_set_ui_object_drawable@@3PAP6GXPAUUI_OBJECT@@H@ZA:BYTE ; fn_set_ui_object_drawable
EXTRN	?fn_get_ui_object_drawable@@3PAP6GHPAUUI_OBJECT@@@ZA:BYTE ; fn_get_ui_object_drawable
EXTRN	?fn_set_ui_object_item_number@@3PAP6GXPAUUI_OBJECT@@H@ZA:BYTE ; fn_set_ui_object_item_number
EXTRN	?fn_get_ui_object_item_number@@3PAP6GHPAUUI_OBJECT@@@ZA:BYTE ; fn_get_ui_object_item_number
EXTRN	?fn_set_ui_object_text@@3PAP6GXPAUUI_OBJECT@@PBD@ZA:BYTE ; fn_set_ui_object_text
EXTRN	?fn_get_ui_object_font_type@@3PAP6G?AW4FONT_TYPES@@PAUUI_OBJECT@@@ZA:BYTE ; fn_get_ui_object_font_type
EXTRN	?fn_get_ui_object_font_colour@@3PAP6G?AUREAL_COLOUR@@PAUUI_OBJECT@@@ZA:BYTE ; fn_get_ui_object_font_colour
EXTRN	?ui_ingame_dead_text_colour@@3UREAL_COLOUR@@A:DWORD ; ui_ingame_dead_text_colour
EXTRN	?null_entity_pointer_message@@3PBDB:DWORD	; null_entity_pointer_message
EXTRN	?task_debrief_result_names@@3PAPBDA:BYTE	; task_debrief_result_names
EXTRN	?world_map@@3UWORLD_MAP_DATA@@A:BYTE		; world_map
EXTRN	?overload_invalid_list_type_message@@3PBDB:DWORD ; overload_invalid_list_type_message
EXTRN	?fn_get_local_entity_parent@@3PAY0CN@P6GPAUENTITY@@PAU1@W4LIST_TYPES@@@ZA:BYTE ; fn_get_local_entity_parent
EXTRN	?overload_invalid_int_type_message@@3PBDB:DWORD	; overload_invalid_int_type_message
EXTRN	?fn_get_local_entity_int_value@@3PAY0BBH@P6GHPAUENTITY@@W4INT_TYPES@@@ZA:BYTE ; fn_get_local_entity_int_value
EXTRN	?overload_invalid_ptr_type_message@@3PBDB:DWORD	; overload_invalid_ptr_type_message
EXTRN	?fn_get_local_entity_ptr_value@@3PAY0BE@P6GPAXPAUENTITY@@W4PTR_TYPES@@@ZA:BYTE ; fn_get_local_entity_ptr_value
EXTRN	?overload_invalid_string_type_message@@3PBDB:DWORD ; overload_invalid_string_type_message
EXTRN	?fn_get_local_entity_string@@3PAY0N@P6GPBDPAUENTITY@@W4STRING_TYPES@@@ZA:BYTE ; fn_get_local_entity_string
EXTRN	?overload_invalid_vec3d_type_message@@3PBDB:DWORD ; overload_invalid_vec3d_type_message
EXTRN	?fn_get_local_entity_vec3d_ptr@@3PAY0BI@P6GPAUVEC3D@@PAUENTITY@@W4VEC3D_TYPES@@@ZA:BYTE ; fn_get_local_entity_vec3d_ptr
EXTRN	?entities@@3PAUENTITY@@A:DWORD			; entities
EXTRN	?aircraft_database@@3PAUAIRCRAFT_DATA@@A:BYTE	; aircraft_database
EXTRN	?gunship_entity@@3PAUENTITY@@A:DWORD		; gunship_entity
EXTRN	?vehicle_database@@3PAUVEHICLE_DATA@@A:BYTE	; vehicle_database
EXTRN	?pilot_rank_names@@3PAPBDA:BYTE			; pilot_rank_names
EXTRN	?medal_type_names@@3PAPBDA:BYTE			; medal_type_names
EXTRN	?common_divider_graphic@@3PAUTEXTURE_GRAPHIC@@A:DWORD ; common_divider_graphic
EXTRN	?campaign_screen@@3PAUUI_OBJECT@@A:DWORD	; campaign_screen
EXTRN	?campaign_page@@3PAPAUUI_OBJECT@@A:BYTE		; campaign_page
EXTRN	?campaign_screen_full_screen_map@@3PAUUI_OBJECT@@A:DWORD ; campaign_screen_full_screen_map
EXTRN	?campaign_screen_message_responses@@3PAY0O@P6GHW4CAMPAIGN_SCREEN_MESSAGES@@PAUENTITY@@@ZA:BYTE ; campaign_screen_message_responses
EXTRN	__fltused:DWORD
;	COMDAT ?_OptionsStorage@?1??__local_stdio_printf_options@@9@4_KA
_BSS	SEGMENT
?_OptionsStorage@?1??__local_stdio_printf_options@@9@4_KA DQ 01H DUP (?) ; `__local_stdio_printf_options'::`2'::_OptionsStorage
_BSS	ENDS
_BSS	SEGMENT
?debriefing_text_area@@3PAUUI_OBJECT@@A DD 01H DUP (?)	; debriefing_text_area
?debriefing_text_list@@3PAUUI_OBJECT@@A DD 01H DUP (?)	; debriefing_text_list
?debriefing_page_title@@3PAUUI_OBJECT@@A DD 01H DUP (?)	; debriefing_page_title
?debriefing_page_type@@3PAUUI_OBJECT@@A DD 01H DUP (?)	; debriefing_page_type
?debriefing_page_result_box@@3PAUUI_OBJECT@@A DD 01H DUP (?) ; debriefing_page_result_box
?debriefing_page_points_box@@3PAUUI_OBJECT@@A DD 01H DUP (?) ; debriefing_page_points_box
?debriefing_page_kills_area@@3PAUUI_OBJECT@@A DD 01H DUP (?) ; debriefing_page_kills_area
?debriefing_page_kills_box@@3PAUUI_OBJECT@@A DD 01H DUP (?) ; debriefing_page_kills_box
?page_map_view_area@@3PAUUI_OBJECT@@A DD 01H DUP (?)	; page_map_view_area
?page_map_area@@3PAUUI_OBJECT@@A DD 01H DUP (?)		; page_map_area
?page_back_button@@3PAUUI_OBJECT@@A DD 01H DUP (?)	; page_back_button
?page_map_dimensions@@3UMAP_DIMENSION_TYPE@@A DB 06cH DUP (?) ; page_map_dimensions
?s@?1??show_debriefing_page@@YGXPAUENTITY@@HH@Z@4PADA DB 080H DUP (?) ; `show_debriefing_page'::`2'::s
?aircraft_count@?6??update_debriefing_page_objects@@YGXPAUUI_OBJECT@@PAX@Z@4PAHA DD 020H DUP (?) ; `update_debriefing_page_objects'::`7'::aircraft_count
?vehicle_count@?6??update_debriefing_page_objects@@YGXPAUUI_OBJECT@@PAX@Z@4PAHA DD 026H DUP (?) ; `update_debriefing_page_objects'::`7'::vehicle_count
_BSS	ENDS
;	COMDAT __real@457a0000
CONST	SEGMENT
__real@457a0000 DD 0457a0000r			; 4000
CONST	ENDS
;	COMDAT __real@4024000000000000
CONST	SEGMENT
__real@4024000000000000 DQ 04024000000000000r	; 10
CONST	ENDS
;	COMDAT __real@3ff3333333333333
CONST	SEGMENT
__real@3ff3333333333333 DQ 03ff3333333333333r	; 1.2
CONST	ENDS
;	COMDAT __real@3ff0000000000000
CONST	SEGMENT
__real@3ff0000000000000 DQ 03ff0000000000000r	; 1
CONST	ENDS
;	COMDAT __real@3fe0000000000000
CONST	SEGMENT
__real@3fe0000000000000 DQ 03fe0000000000000r	; 0.5
CONST	ENDS
;	COMDAT __real@3f800000
CONST	SEGMENT
__real@3f800000 DD 03f800000r			; 1
CONST	ENDS
;	COMDAT __real@3f7d70a4
CONST	SEGMENT
__real@3f7d70a4 DD 03f7d70a4r			; 0.99
CONST	ENDS
;	COMDAT __real@3f70a3d7
CONST	SEGMENT
__real@3f70a3d7 DD 03f70a3d7r			; 0.94
CONST	ENDS
;	COMDAT __real@3f666666
CONST	SEGMENT
__real@3f666666 DD 03f666666r			; 0.9
CONST	ENDS
;	COMDAT __real@3f47ae14
CONST	SEGMENT
__real@3f47ae14 DD 03f47ae14r			; 0.78
CONST	ENDS
;	COMDAT __real@3f3ef9db
CONST	SEGMENT
__real@3f3ef9db DD 03f3ef9dbr			; 0.746
CONST	ENDS
;	COMDAT __real@3f2c0831
CONST	SEGMENT
__real@3f2c0831 DD 03f2c0831r			; 0.672
CONST	ENDS
;	COMDAT __real@3f2b851f
CONST	SEGMENT
__real@3f2b851f DD 03f2b851fr			; 0.67
CONST	ENDS
;	COMDAT __real@3f2624dd
CONST	SEGMENT
__real@3f2624dd DD 03f2624ddr			; 0.649
CONST	ENDS
;	COMDAT __real@3f1eb852
CONST	SEGMENT
__real@3f1eb852 DD 03f1eb852r			; 0.62
CONST	ENDS
;	COMDAT __real@3f000000
CONST	SEGMENT
__real@3f000000 DD 03f000000r			; 0.5
CONST	ENDS
;	COMDAT __real@3ef2b021
CONST	SEGMENT
__real@3ef2b021 DD 03ef2b021r			; 0.474
CONST	ENDS
;	COMDAT __real@3eed9168
CONST	SEGMENT
__real@3eed9168 DD 03eed9168r			; 0.464
CONST	ENDS
;	COMDAT __real@3ee66666
CONST	SEGMENT
__real@3ee66666 DD 03ee66666r			; 0.45
CONST	ENDS
;	COMDAT __real@3e656042
CONST	SEGMENT
__real@3e656042 DD 03e656042r			; 0.224
CONST	ENDS
;	COMDAT __real@3e6147ae
CONST	SEGMENT
__real@3e6147ae DD 03e6147aer			; 0.22
CONST	ENDS
;	COMDAT __real@3e52f1aa
CONST	SEGMENT
__real@3e52f1aa DD 03e52f1aar			; 0.206
CONST	ENDS
;	COMDAT __real@3e24dd2f
CONST	SEGMENT
__real@3e24dd2f DD 03e24dd2fr			; 0.161
CONST	ENDS
;	COMDAT __real@3e21cac1
CONST	SEGMENT
__real@3e21cac1 DD 03e21cac1r			; 0.158
CONST	ENDS
;	COMDAT __real@3e0d4fdf
CONST	SEGMENT
__real@3e0d4fdf DD 03e0d4fdfr			; 0.138
CONST	ENDS
;	COMDAT __real@3e0b4396
CONST	SEGMENT
__real@3e0b4396 DD 03e0b4396r			; 0.136
CONST	ENDS
;	COMDAT __real@3dcccccd
CONST	SEGMENT
__real@3dcccccd DD 03dcccccdr			; 0.1
CONST	ENDS
;	COMDAT __real@3dbc6a7f
CONST	SEGMENT
__real@3dbc6a7f DD 03dbc6a7fr			; 0.092
CONST	ENDS
;	COMDAT __real@3dae147b
CONST	SEGMENT
__real@3dae147b DD 03dae147br			; 0.085
CONST	ENDS
;	COMDAT __real@3d591687
CONST	SEGMENT
__real@3d591687 DD 03d591687r			; 0.053
CONST	ENDS
;	COMDAT __real@3d4ccccd
CONST	SEGMENT
__real@3d4ccccd DD 03d4ccccdr			; 0.05
CONST	ENDS
;	COMDAT __real@3d449ba6
CONST	SEGMENT
__real@3d449ba6 DD 03d449ba6r			; 0.048
CONST	ENDS
;	COMDAT __real@3d3851ec
CONST	SEGMENT
__real@3d3851ec DD 03d3851ecr			; 0.045
CONST	ENDS
;	COMDAT __real@3d23d70a
CONST	SEGMENT
__real@3d23d70a DD 03d23d70ar			; 0.04
CONST	ENDS
;	COMDAT __real@3cb43958
CONST	SEGMENT
__real@3cb43958 DD 03cb43958r			; 0.022
CONST	ENDS
;	COMDAT __real@3c23d70a
CONST	SEGMENT
__real@3c23d70a DD 03c23d70ar			; 0.01
CONST	ENDS
;	COMDAT ??_C@_1BC@ICCOKLEG@?$AAs?$AAt?$AAd?$AA?3?$AA?3?$AAm?$AAa?$AAx@
CONST	SEGMENT
??_C@_1BC@ICCOKLEG@?$AAs?$AAt?$AAd?$AA?3?$AA?3?$AAm?$AAa?$AAx@ DB 's', 00H
	DB	't', 00H, 'd', 00H, ':', 00H, ':', 00H, 'm', 00H, 'a', 00H, 'x'
	DB	00H, 00H, 00H				; `string'
CONST	ENDS
;	COMDAT ??_C@_1CK@NDNHPKPI@?$AA?$CC?$AAi?$AAn?$AAv?$AAa?$AAl?$AAi?$AAd?$AA?5?$AAc?$AAo?$AAm?$AAp?$AAa?$AAr@
CONST	SEGMENT
??_C@_1CK@NDNHPKPI@?$AA?$CC?$AAi?$AAn?$AAv?$AAa?$AAl?$AAi?$AAd?$AA?5?$AAc?$AAo?$AAm?$AAp?$AAa?$AAr@ DB '"'
	DB	00H, 'i', 00H, 'n', 00H, 'v', 00H, 'a', 00H, 'l', 00H, 'i', 00H
	DB	'd', 00H, ' ', 00H, 'c', 00H, 'o', 00H, 'm', 00H, 'p', 00H, 'a'
	DB	00H, 'r', 00H, 'a', 00H, 't', 00H, 'o', 00H, 'r', 00H, '"', 00H
	DB	00H, 00H					; `string'
CONST	ENDS
;	COMDAT ??_C@_1BC@BLAPCBGI@?$AAs?$AAt?$AAd?$AA?3?$AA?3?$AAm?$AAi?$AAn@
CONST	SEGMENT
??_C@_1BC@BLAPCBGI@?$AAs?$AAt?$AAd?$AA?3?$AA?3?$AAm?$AAi?$AAn@ DB 's', 00H
	DB	't', 00H, 'd', 00H, ':', 00H, ':', 00H, 'm', 00H, 'i', 00H, 'n'
	DB	00H, 00H, 00H				; `string'
CONST	ENDS
;	COMDAT ??_C@_1NE@FKBPBJEB@?$AAc?$AA?3?$AA?2?$AAp?$AAr?$AAo?$AAg?$AAr?$AAa?$AAm?$AA?5?$AAf?$AAi?$AAl?$AAe@
CONST	SEGMENT
??_C@_1NE@FKBPBJEB@?$AAc?$AA?3?$AA?2?$AAp?$AAr?$AAo?$AAg?$AAr?$AAa?$AAm?$AA?5?$AAf?$AAi?$AAl?$AAe@ DB 'c'
	DB	00H, ':', 00H, '\', 00H, 'p', 00H, 'r', 00H, 'o', 00H, 'g', 00H
	DB	'r', 00H, 'a', 00H, 'm', 00H, ' ', 00H, 'f', 00H, 'i', 00H, 'l'
	DB	00H, 'e', 00H, 's', 00H, ' ', 00H, '(', 00H, 'x', 00H, '8', 00H
	DB	'6', 00H, ')', 00H, '\', 00H, 'm', 00H, 'i', 00H, 'c', 00H, 'r'
	DB	00H, 'o', 00H, 's', 00H, 'o', 00H, 'f', 00H, 't', 00H, ' ', 00H
	DB	'v', 00H, 'i', 00H, 's', 00H, 'u', 00H, 'a', 00H, 'l', 00H, ' '
	DB	00H, 's', 00H, 't', 00H, 'u', 00H, 'd', 00H, 'i', 00H, 'o', 00H
	DB	'\', 00H, '2', 00H, '0', 00H, '1', 00H, '7', 00H, '\', 00H, 'c'
	DB	00H, 'o', 00H, 'm', 00H, 'm', 00H, 'u', 00H, 'n', 00H, 'i', 00H
	DB	't', 00H, 'y', 00H, '\', 00H, 'v', 00H, 'c', 00H, '\', 00H, 't'
	DB	00H, 'o', 00H, 'o', 00H, 'l', 00H, 's', 00H, '\', 00H, 'm', 00H
	DB	's', 00H, 'v', 00H, 'c', 00H, '\', 00H, '1', 00H, '4', 00H, '.'
	DB	00H, '1', 00H, '6', 00H, '.', 00H, '2', 00H, '7', 00H, '0', 00H
	DB	'2', 00H, '3', 00H, '\', 00H, 'i', 00H, 'n', 00H, 'c', 00H, 'l'
	DB	00H, 'u', 00H, 'd', 00H, 'e', 00H, '\', 00H, 'a', 00H, 'l', 00H
	DB	'g', 00H, 'o', 00H, 'r', 00H, 'i', 00H, 't', 00H, 'h', 00H, 'm'
	DB	00H, 00H, 00H				; `string'
CONST	ENDS
;	COMDAT ??_C@_0GK@JMBMHIBC@c?3?2program?5files?5?$CIx86?$CJ?2microsof@
CONST	SEGMENT
??_C@_0GK@JMBMHIBC@c?3?2program?5files?5?$CIx86?$CJ?2microsof@ DB 'c:\pro'
	DB	'gram files (x86)\microsoft visual studio\2017\community\vc\to'
	DB	'ols\msvc\14.16.27023\include\algorithm', 00H ; `string'
CONST	ENDS
;	COMDAT ??_C@_0BD@FEEMDEPI@invalid?5comparator@
CONST	SEGMENT
??_C@_0BD@FEEMDEPI@invalid?5comparator@ DB 'invalid comparator', 00H ; `string'
CONST	ENDS
;	COMDAT ??_C@_06CGHJMPBJ@sender@
CONST	SEGMENT
??_C@_06CGHJMPBJ@sender@ DB 'sender', 00H		; `string'
CONST	ENDS
;	COMDAT ?__LINE__Var@?0??response_to_force_update@@YGHW4CAMPAIGN_SCREEN_MESSAGES@@PAUENTITY@@@Z@4JA
_DATA	SEGMENT
?__LINE__Var@?0??response_to_force_update@@YGHW4CAMPAIGN_SCREEN_MESSAGES@@PAUENTITY@@@Z@4JA DD 0394H ; `response_to_force_update'::`1'::__LINE__Var
_DATA	ENDS
;	COMDAT ??_C@_0CF@CLPKPOMP@graphics?2ui?2cohokum?2map?2blockpr@
CONST	SEGMENT
??_C@_0CF@CLPKPOMP@graphics?2ui?2cohokum?2map?2blockpr@ DB 'graphics\ui\c'
	DB	'ohokum\map\blockprp.psd', 00H		; `string'
CONST	ENDS
;	COMDAT ??_C@_00CNPNBAHC@@
CONST	SEGMENT
??_C@_00CNPNBAHC@@ DB 00H				; `string'
CONST	ENDS
;	COMDAT ??_C@_05DGAPONBB@Score@
CONST	SEGMENT
??_C@_05DGAPONBB@Score@ DB 'Score', 00H			; `string'
CONST	ENDS
;	COMDAT ??_C@_04FEJCDPHN@?$CFs?5?3@
CONST	SEGMENT
??_C@_04FEJCDPHN@?$CFs?5?3@ DB '%s :', 00H		; `string'
CONST	ENDS
;	COMDAT ??_C@_02LFNMGJAP@en@
CONST	SEGMENT
??_C@_02LFNMGJAP@en@ DB 'en', 00H			; `string'
CONST	ENDS
;	COMDAT ?__LINE__Var@?0??draw_page_map@@YGXPAUUI_OBJECT@@PAX@Z@4JA
_DATA	SEGMENT
?__LINE__Var@?0??draw_page_map@@YGXPAUUI_OBJECT@@PAX@Z@4JA DD 021dH ; `draw_page_map'::`1'::__LINE__Var
_DATA	ENDS
;	COMDAT ??_C@_06JFGMDEJA@Losses@
CONST	SEGMENT
??_C@_06JFGMDEJA@Losses@ DB 'Losses', 00H		; `string'
CONST	ENDS
;	COMDAT ??_C@_0L@HLNKNDJI@?5?5?5?5?$CFdx?5?$CFs@
CONST	SEGMENT
??_C@_0L@HLNKNDJI@?5?5?5?5?$CFdx?5?$CFs@ DB '    %dx %s', 00H ; `string'
CONST	ENDS
;	COMDAT ??_C@_05ILKPOBAF@Kills@
CONST	SEGMENT
??_C@_05ILKPOBAF@Kills@ DB 'Kills', 00H			; `string'
CONST	ENDS
;	COMDAT ??_C@_02DPKJAMEF@?$CFd@
CONST	SEGMENT
??_C@_02DPKJAMEF@?$CFd@ DB '%d', 00H			; `string'
CONST	ENDS
;	COMDAT ??_C@_08MCHEIJJN@?$CFs?5?3?5?5?$CFs@
CONST	SEGMENT
??_C@_08MCHEIJJN@?$CFs?5?3?5?5?$CFs@ DB '%s :  %s', 00H	; `string'
CONST	ENDS
;	COMDAT ??_C@_06GGONACPB@Result@
CONST	SEGMENT
??_C@_06GGONACPB@Result@ DB 'Result', 00H		; `string'
CONST	ENDS
;	COMDAT ?__LINE__Var@?0??update_debriefing_page_objects@@YGXPAUUI_OBJECT@@PAX@Z@4JA
_DATA	SEGMENT
?__LINE__Var@?0??update_debriefing_page_objects@@YGXPAUUI_OBJECT@@PAX@Z@4JA DD 015dH ; `update_debriefing_page_objects'::`1'::__LINE__Var
_DATA	ENDS
;	COMDAT ??_C@_06DOPBEMKJ@?$CFs?5?$CD?$CFd@
CONST	SEGMENT
??_C@_06DOPBEMKJ@?$CFs?5?$CD?$CFd@ DB '%s #%d', 00H	; `string'
CONST	ENDS
;	COMDAT ??_C@_0L@CHHJGCHE@Debriefing@
CONST	SEGMENT
??_C@_0L@CHHJGCHE@Debriefing@ DB 'Debriefing', 00H	; `string'
CONST	ENDS
;	COMDAT ??_C@_0CJ@JLGEDIIK@CA_DBF?3?5no?5text?5for?5promotion?5a@
CONST	SEGMENT
??_C@_0CJ@JLGEDIIK@CA_DBF?3?5no?5text?5for?5promotion?5a@ DB 'CA_DBF: no '
	DB	'text for promotion award : %s', 00H		; `string'
CONST	ENDS
;	COMDAT ??_C@_0CP@JGOBOLFL@CA_DBF?3?5Awarding?5Promotion?5?$CFs?5f@
CONST	SEGMENT
??_C@_0CP@JGOBOLFL@CA_DBF?3?5Awarding?5Promotion?5?$CFs?5f@ DB 'CA_DBF: A'
	DB	'warding Promotion %s for task %s (%d)', 00H	; `string'
CONST	ENDS
;	COMDAT ??_C@_0CF@CNIJACBI@CA_DBF?3?5no?5text?5for?5medal?5award@
CONST	SEGMENT
??_C@_0CF@CNIJACBI@CA_DBF?3?5no?5text?5for?5medal?5award@ DB 'CA_DBF: no '
	DB	'text for medal award : %s', 00H		; `string'
CONST	ENDS
;	COMDAT ??_C@_0CL@HAAKHKGP@CA_DBF?3?5Awarding?5Medal?5?$CFs?5for?5t@
CONST	SEGMENT
??_C@_0CL@HAAKHKGP@CA_DBF?3?5Awarding?5Medal?5?$CFs?5for?5t@ DB 'CA_DBF: '
	DB	'Awarding Medal %s for task %s (%d)', 00H	; `string'
CONST	ENDS
;	COMDAT ??_C@_0BF@LNDABBDG@NO_DEBRIEF_AVAILABLE@
CONST	SEGMENT
??_C@_0BF@LNDABBDG@NO_DEBRIEF_AVAILABLE@ DB 'NO_DEBRIEF_AVAILABLE', 00H ; `string'
CONST	ENDS
;	COMDAT ??_C@_0DE@LLEGJEGE@get_local_entity_type?5?$CImission?$CJ@
CONST	SEGMENT
??_C@_0DE@LLEGJEGE@get_local_entity_type?5?$CImission?$CJ@ DB 'get_local_'
	DB	'entity_type (mission) == ENTITY_TYPE_TASK', 00H ; `string'
CONST	ENDS
;	COMDAT ??_C@_07CACALAH@mission@
CONST	SEGMENT
??_C@_07CACALAH@mission@ DB 'mission', 00H		; `string'
CONST	ENDS
;	COMDAT ??_C@_0EN@MKENPJLB@c?3?2users?2nhv90?2projects?2eech?2ap@
CONST	SEGMENT
??_C@_0EN@MKENPJLB@c?3?2users?2nhv90?2projects?2eech?2ap@ DB 'c:\users\nh'
	DB	'v90\projects\eech\aphavoc\source\ui_menu\ingame\campaign\ca_d'
	DB	'bf.c', 00H					; `string'
CONST	ENDS
;	COMDAT ?__LINE__Var@?0??show_debriefing_page@@YGXPAUENTITY@@HH@Z@4JA
_DATA	SEGMENT
?__LINE__Var@?0??show_debriefing_page@@YGXPAUENTITY@@HH@Z@4JA DD 064H ; `show_debriefing_page'::`1'::__LINE__Var
_DATA	ENDS
;	COMDAT ??_C@_02DKCKIIND@?$CFs@
CONST	SEGMENT
??_C@_02DKCKIIND@?$CFs@ DB '%s', 00H			; `string'
CONST	ENDS
; Function compile flags: /Odtp /ZI
; File c:\users\nhv90\projects\eech\aphavoc\source\ui_menu\ingame\campaign\ca_dbf.c
;	COMDAT ?response_to_force_update@@YGHW4CAMPAIGN_SCREEN_MESSAGES@@PAUENTITY@@@Z
_TEXT	SEGMENT
_message$ = 8						; size = 4
_sender$ = 12						; size = 4
?response_to_force_update@@YGHW4CAMPAIGN_SCREEN_MESSAGES@@PAUENTITY@@@Z PROC ; response_to_force_update, COMDAT

; 916  : {

  00000	55		 push	 ebp
  00001	8b ec		 mov	 ebp, esp
  00003	83 ec 40	 sub	 esp, 64			; 00000040H
  00006	53		 push	 ebx
  00007	56		 push	 esi
  00008	57		 push	 edi

; 917  : 	if (get_ui_object_drawable (campaign_page [CAMPAIGN_PAGE_DEBRIEFING]))

  00009	b8 04 00 00 00	 mov	 eax, 4
  0000e	d1 e0		 shl	 eax, 1
  00010	8b 88 00 00 00
	00		 mov	 ecx, DWORD PTR ?campaign_page@@3PAPAUUI_OBJECT@@A[eax]
  00016	51		 push	 ecx
  00017	ba 04 00 00 00	 mov	 edx, 4
  0001c	d1 e2		 shl	 edx, 1
  0001e	8b 82 00 00 00
	00		 mov	 eax, DWORD PTR ?campaign_page@@3PAPAUUI_OBJECT@@A[edx]
  00024	8b 08		 mov	 ecx, DWORD PTR [eax]
  00026	8b 14 8d 00 00
	00 00		 mov	 edx, DWORD PTR ?fn_get_ui_object_drawable@@3PAP6GHPAUUI_OBJECT@@@ZA[ecx*4]
  0002d	ff d2		 call	 edx
  0002f	85 c0		 test	 eax, eax
  00031	74 2b		 je	 SHORT $LN2@response_t

; 918  : 	{
; 919  : 		ASSERT (sender);

  00033	83 7d 0c 00	 cmp	 DWORD PTR _sender$[ebp], 0
  00037	75 18		 jne	 SHORT $LN3@response_t
  00039	a1 00 00 00 00	 mov	 eax, DWORD PTR ?__LINE__Var@?0??response_to_force_update@@YGHW4CAMPAIGN_SCREEN_MESSAGES@@PAUENTITY@@@Z@4JA
  0003e	83 c0 03	 add	 eax, 3
  00041	50		 push	 eax
  00042	68 00 00 00 00	 push	 OFFSET ??_C@_0EN@MKENPJLB@c?3?2users?2nhv90?2projects?2eech?2ap@
  00047	68 00 00 00 00	 push	 OFFSET ??_C@_06CGHJMPBJ@sender@
  0004c	e8 00 00 00 00	 call	 ?process_assert@@YGXPBD0H@Z ; process_assert
$LN3@response_t:

; 920  : 
; 921  : 		show_debriefing_page (sender, TRUE, FALSE);

  00051	6a 00		 push	 0
  00053	6a 01		 push	 1
  00055	8b 45 0c	 mov	 eax, DWORD PTR _sender$[ebp]
  00058	50		 push	 eax
  00059	e8 00 00 00 00	 call	 ?show_debriefing_page@@YGXPAUENTITY@@HH@Z ; show_debriefing_page
$LN2@response_t:

; 922  : 	}
; 923  : 
; 924  : 	return TRUE;

  0005e	b8 01 00 00 00	 mov	 eax, 1

; 925  : }

  00063	5f		 pop	 edi
  00064	5e		 pop	 esi
  00065	5b		 pop	 ebx
  00066	8b e5		 mov	 esp, ebp
  00068	5d		 pop	 ebp
  00069	c2 08 00	 ret	 8
?response_to_force_update@@YGHW4CAMPAIGN_SCREEN_MESSAGES@@PAUENTITY@@@Z ENDP ; response_to_force_update
_TEXT	ENDS
; Function compile flags: /Odtp /ZI
; File c:\users\nhv90\projects\eech\aphavoc\source\ui_menu\ingame\campaign\ca_dbf.c
;	COMDAT ?response_to_mission_destroyed@@YGHW4CAMPAIGN_SCREEN_MESSAGES@@PAUENTITY@@@Z
_TEXT	SEGMENT
tv67 = -68						; size = 4
_message$ = 8						; size = 4
_sender$ = 12						; size = 4
?response_to_mission_destroyed@@YGHW4CAMPAIGN_SCREEN_MESSAGES@@PAUENTITY@@@Z PROC ; response_to_mission_destroyed, COMDAT

; 893  : {

  00000	55		 push	 ebp
  00001	8b ec		 mov	 ebp, esp
  00003	83 ec 44	 sub	 esp, 68			; 00000044H
  00006	53		 push	 ebx
  00007	56		 push	 esi
  00008	57		 push	 edi

; 894  : 	if (get_local_entity_safe_index (sender) == get_ui_object_item_number (campaign_page [CAMPAIGN_PAGE_DEBRIEFING]))

  00009	83 7d 0c 00	 cmp	 DWORD PTR _sender$[ebp], 0
  0000d	74 11		 je	 SHORT $LN5@response_t
  0000f	8b 45 0c	 mov	 eax, DWORD PTR _sender$[ebp]
  00012	2b 05 00 00 00
	00		 sub	 eax, DWORD PTR ?entities@@3PAUENTITY@@A ; entities
  00018	c1 f8 04	 sar	 eax, 4
  0001b	89 45 bc	 mov	 DWORD PTR tv67[ebp], eax
  0001e	eb 07		 jmp	 SHORT $LN6@response_t
$LN5@response_t:
  00020	c7 45 bc ff ff
	ff ff		 mov	 DWORD PTR tv67[ebp], -1
$LN6@response_t:
  00027	b9 04 00 00 00	 mov	 ecx, 4
  0002c	d1 e1		 shl	 ecx, 1
  0002e	8b 91 00 00 00
	00		 mov	 edx, DWORD PTR ?campaign_page@@3PAPAUUI_OBJECT@@A[ecx]
  00034	52		 push	 edx
  00035	b8 04 00 00 00	 mov	 eax, 4
  0003a	d1 e0		 shl	 eax, 1
  0003c	8b 88 00 00 00
	00		 mov	 ecx, DWORD PTR ?campaign_page@@3PAPAUUI_OBJECT@@A[eax]
  00042	8b 11		 mov	 edx, DWORD PTR [ecx]
  00044	8b 04 95 00 00
	00 00		 mov	 eax, DWORD PTR ?fn_get_ui_object_item_number@@3PAP6GHPAUUI_OBJECT@@@ZA[edx*4]
  0004b	ff d0		 call	 eax
  0004d	39 45 bc	 cmp	 DWORD PTR tv67[ebp], eax
  00050	75 57		 jne	 SHORT $LN2@response_t

; 895  : 	{
; 896  : 		if (get_ui_object_drawable (campaign_page [CAMPAIGN_PAGE_DEBRIEFING]))

  00052	b8 04 00 00 00	 mov	 eax, 4
  00057	d1 e0		 shl	 eax, 1
  00059	8b 88 00 00 00
	00		 mov	 ecx, DWORD PTR ?campaign_page@@3PAPAUUI_OBJECT@@A[eax]
  0005f	51		 push	 ecx
  00060	ba 04 00 00 00	 mov	 edx, 4
  00065	d1 e2		 shl	 edx, 1
  00067	8b 82 00 00 00
	00		 mov	 eax, DWORD PTR ?campaign_page@@3PAPAUUI_OBJECT@@A[edx]
  0006d	8b 08		 mov	 ecx, DWORD PTR [eax]
  0006f	8b 14 8d 00 00
	00 00		 mov	 edx, DWORD PTR ?fn_get_ui_object_drawable@@3PAP6GHPAUUI_OBJECT@@@ZA[ecx*4]
  00076	ff d2		 call	 edx
  00078	85 c0		 test	 eax, eax
  0007a	74 05		 je	 SHORT $LN3@response_t

; 897  : 		{
; 898  : 			//
; 899  : 			// Not sure yet.... For now display the map page
; 900  : 			//
; 901  : 
; 902  : 			show_map_page ();

  0007c	e8 00 00 00 00	 call	 ?show_map_page@@YGXXZ	; show_map_page
$LN3@response_t:

; 903  : 		}
; 904  : 
; 905  : 		set_ui_object_item_number (campaign_page [CAMPAIGN_PAGE_DEBRIEFING], ENTITY_INDEX_DONT_CARE);

  00081	6a ff		 push	 -1
  00083	b8 04 00 00 00	 mov	 eax, 4
  00088	d1 e0		 shl	 eax, 1
  0008a	8b 88 00 00 00
	00		 mov	 ecx, DWORD PTR ?campaign_page@@3PAPAUUI_OBJECT@@A[eax]
  00090	51		 push	 ecx
  00091	ba 04 00 00 00	 mov	 edx, 4
  00096	d1 e2		 shl	 edx, 1
  00098	8b 82 00 00 00
	00		 mov	 eax, DWORD PTR ?campaign_page@@3PAPAUUI_OBJECT@@A[edx]
  0009e	8b 08		 mov	 ecx, DWORD PTR [eax]
  000a0	8b 14 8d 00 00
	00 00		 mov	 edx, DWORD PTR ?fn_set_ui_object_item_number@@3PAP6GXPAUUI_OBJECT@@H@ZA[ecx*4]
  000a7	ff d2		 call	 edx
$LN2@response_t:

; 906  : 	}
; 907  : 
; 908  : 	return TRUE;

  000a9	b8 01 00 00 00	 mov	 eax, 1

; 909  : }

  000ae	5f		 pop	 edi
  000af	5e		 pop	 esi
  000b0	5b		 pop	 ebx
  000b1	8b e5		 mov	 esp, ebp
  000b3	5d		 pop	 ebp
  000b4	c2 08 00	 ret	 8
?response_to_mission_destroyed@@YGHW4CAMPAIGN_SCREEN_MESSAGES@@PAUENTITY@@@Z ENDP ; response_to_mission_destroyed
_TEXT	ENDS
; Function compile flags: /Odtp /ZI
; File c:\users\nhv90\projects\eech\aphavoc\source\ui_menu\ingame\campaign\ca_dbf.c
;	COMDAT ?draw_page_map@@YGXPAUUI_OBJECT@@PAX@Z
_TEXT	SEGMENT
tv85 = -72						; size = 4
_en$ = -4						; size = 4
_obj$ = 8						; size = 4
_arg$ = 12						; size = 4
?draw_page_map@@YGXPAUUI_OBJECT@@PAX@Z PROC		; draw_page_map, COMDAT

; 541  : {

  00000	55		 push	 ebp
  00001	8b ec		 mov	 ebp, esp
  00003	83 ec 48	 sub	 esp, 72			; 00000048H
  00006	53		 push	 ebx
  00007	56		 push	 esi
  00008	57		 push	 edi

; 542  : 	entity
; 543  : 		*en;
; 544  : 
; 545  : 	en = get_local_entity_safe_ptr (get_ui_object_item_number (campaign_page [CAMPAIGN_PAGE_DEBRIEFING]));

  00009	b8 04 00 00 00	 mov	 eax, 4
  0000e	d1 e0		 shl	 eax, 1
  00010	8b 88 00 00 00
	00		 mov	 ecx, DWORD PTR ?campaign_page@@3PAPAUUI_OBJECT@@A[eax]
  00016	51		 push	 ecx
  00017	ba 04 00 00 00	 mov	 edx, 4
  0001c	d1 e2		 shl	 edx, 1
  0001e	8b 82 00 00 00
	00		 mov	 eax, DWORD PTR ?campaign_page@@3PAPAUUI_OBJECT@@A[edx]
  00024	8b 08		 mov	 ecx, DWORD PTR [eax]
  00026	8b 14 8d 00 00
	00 00		 mov	 edx, DWORD PTR ?fn_get_ui_object_item_number@@3PAP6GHPAUUI_OBJECT@@@ZA[ecx*4]
  0002d	ff d2		 call	 edx
  0002f	83 f8 ff	 cmp	 eax, -1
  00032	74 34		 je	 SHORT $LN4@draw_page_
  00034	b8 04 00 00 00	 mov	 eax, 4
  00039	d1 e0		 shl	 eax, 1
  0003b	8b 88 00 00 00
	00		 mov	 ecx, DWORD PTR ?campaign_page@@3PAPAUUI_OBJECT@@A[eax]
  00041	51		 push	 ecx
  00042	ba 04 00 00 00	 mov	 edx, 4
  00047	d1 e2		 shl	 edx, 1
  00049	8b 82 00 00 00
	00		 mov	 eax, DWORD PTR ?campaign_page@@3PAPAUUI_OBJECT@@A[edx]
  0004f	8b 08		 mov	 ecx, DWORD PTR [eax]
  00051	8b 14 8d 00 00
	00 00		 mov	 edx, DWORD PTR ?fn_get_ui_object_item_number@@3PAP6GHPAUUI_OBJECT@@@ZA[ecx*4]
  00058	ff d2		 call	 edx
  0005a	c1 e0 04	 shl	 eax, 4
  0005d	03 05 00 00 00
	00		 add	 eax, DWORD PTR ?entities@@3PAUENTITY@@A ; entities
  00063	89 45 b8	 mov	 DWORD PTR tv85[ebp], eax
  00066	eb 07		 jmp	 SHORT $LN5@draw_page_
$LN4@draw_page_:
  00068	c7 45 b8 00 00
	00 00		 mov	 DWORD PTR tv85[ebp], 0
$LN5@draw_page_:
  0006f	8b 45 b8	 mov	 eax, DWORD PTR tv85[ebp]
  00072	89 45 fc	 mov	 DWORD PTR _en$[ebp], eax

; 546  : 
; 547  : 	ASSERT (en);

  00075	83 7d fc 00	 cmp	 DWORD PTR _en$[ebp], 0
  00079	75 18		 jne	 SHORT $LN2@draw_page_
  0007b	a1 00 00 00 00	 mov	 eax, DWORD PTR ?__LINE__Var@?0??draw_page_map@@YGXPAUUI_OBJECT@@PAX@Z@4JA
  00080	83 c0 06	 add	 eax, 6
  00083	50		 push	 eax
  00084	68 00 00 00 00	 push	 OFFSET ??_C@_0EN@MKENPJLB@c?3?2users?2nhv90?2projects?2eech?2ap@
  00089	68 00 00 00 00	 push	 OFFSET ??_C@_02LFNMGJAP@en@
  0008e	e8 00 00 00 00	 call	 ?process_assert@@YGXPBD0H@Z ; process_assert
$LN2@draw_page_:

; 548  : 	
; 549  : 	draw_2d_map (obj, arg);

  00093	8b 45 0c	 mov	 eax, DWORD PTR _arg$[ebp]
  00096	50		 push	 eax
  00097	8b 4d 08	 mov	 ecx, DWORD PTR _obj$[ebp]
  0009a	51		 push	 ecx
  0009b	e8 00 00 00 00	 call	 ?draw_2d_map@@YGXPAUUI_OBJECT@@PAX@Z ; draw_2d_map

; 550  : }

  000a0	5f		 pop	 edi
  000a1	5e		 pop	 esi
  000a2	5b		 pop	 ebx
  000a3	8b e5		 mov	 esp, ebp
  000a5	5d		 pop	 ebp
  000a6	c2 08 00	 ret	 8
?draw_page_map@@YGXPAUUI_OBJECT@@PAX@Z ENDP		; draw_page_map
_TEXT	ENDS
; Function compile flags: /Odtp /ZI
; File c:\users\nhv90\projects\eech\aphavoc\source\ui_menu\ingame\campaign\ca_dbf.c
;	COMDAT ?update_debriefing_page_objects@@YGXPAUUI_OBJECT@@PAX@Z
_TEXT	SEGMENT
tv172 = -504						; size = 4
tv137 = -504						; size = 4
tv164 = -500						; size = 4
tv129 = -500						; size = 4
tv85 = -500						; size = 4
$T1 = -496						; size = 4
$T2 = -492						; size = 4
$T3 = -488						; size = 4
$T4 = -484						; size = 4
$T5 = -480						; size = 4
$T6 = -476						; size = 4
_loop$7 = -408						; size = 4
_kill$8 = -404						; size = 4
_task_raw$9 = -400					; size = 4
_points$10 = -396					; size = 4
_output$11 = -392					; size = 256
_result$12 = -136					; size = 4
_mission$ = -132					; size = 4
_s$ = -128						; size = 128
_obj$ = 8						; size = 4
_arg$ = 12						; size = 4
?update_debriefing_page_objects@@YGXPAUUI_OBJECT@@PAX@Z PROC ; update_debriefing_page_objects, COMDAT

; 349  : {

  00000	55		 push	 ebp
  00001	8b ec		 mov	 ebp, esp
  00003	81 ec f8 01 00
	00		 sub	 esp, 504		; 000001f8H
  00009	53		 push	 ebx
  0000a	56		 push	 esi
  0000b	57		 push	 edi

; 350  : 	char
; 351  : 		s [128];
; 352  : 
; 353  : 	entity
; 354  : 		*mission;
; 355  : 	
; 356  : 	//
; 357  : 	// N.B. Some of this stuff could be moved into "show_debriefing_page" as it doesn't need to be updated EVERY frame....
; 358  : 	//
; 359  : 
; 360  : 	mission = get_local_entity_safe_ptr (get_ui_object_item_number (campaign_page [CAMPAIGN_PAGE_DEBRIEFING]));

  0000c	b8 04 00 00 00	 mov	 eax, 4
  00011	d1 e0		 shl	 eax, 1
  00013	8b 88 00 00 00
	00		 mov	 ecx, DWORD PTR ?campaign_page@@3PAPAUUI_OBJECT@@A[eax]
  00019	51		 push	 ecx
  0001a	ba 04 00 00 00	 mov	 edx, 4
  0001f	d1 e2		 shl	 edx, 1
  00021	8b 82 00 00 00
	00		 mov	 eax, DWORD PTR ?campaign_page@@3PAPAUUI_OBJECT@@A[edx]
  00027	8b 08		 mov	 ecx, DWORD PTR [eax]
  00029	8b 14 8d 00 00
	00 00		 mov	 edx, DWORD PTR ?fn_get_ui_object_item_number@@3PAP6GHPAUUI_OBJECT@@@ZA[ecx*4]
  00030	ff d2		 call	 edx
  00032	83 f8 ff	 cmp	 eax, -1
  00035	74 37		 je	 SHORT $LN32@update_deb
  00037	b8 04 00 00 00	 mov	 eax, 4
  0003c	d1 e0		 shl	 eax, 1
  0003e	8b 88 00 00 00
	00		 mov	 ecx, DWORD PTR ?campaign_page@@3PAPAUUI_OBJECT@@A[eax]
  00044	51		 push	 ecx
  00045	ba 04 00 00 00	 mov	 edx, 4
  0004a	d1 e2		 shl	 edx, 1
  0004c	8b 82 00 00 00
	00		 mov	 eax, DWORD PTR ?campaign_page@@3PAPAUUI_OBJECT@@A[edx]
  00052	8b 08		 mov	 ecx, DWORD PTR [eax]
  00054	8b 14 8d 00 00
	00 00		 mov	 edx, DWORD PTR ?fn_get_ui_object_item_number@@3PAP6GHPAUUI_OBJECT@@@ZA[ecx*4]
  0005b	ff d2		 call	 edx
  0005d	c1 e0 04	 shl	 eax, 4
  00060	03 05 00 00 00
	00		 add	 eax, DWORD PTR ?entities@@3PAUENTITY@@A ; entities
  00066	89 85 0c fe ff
	ff		 mov	 DWORD PTR tv85[ebp], eax
  0006c	eb 0a		 jmp	 SHORT $LN33@update_deb
$LN32@update_deb:
  0006e	c7 85 0c fe ff
	ff 00 00 00 00	 mov	 DWORD PTR tv85[ebp], 0
$LN33@update_deb:
  00078	8b 85 0c fe ff
	ff		 mov	 eax, DWORD PTR tv85[ebp]
  0007e	89 85 7c ff ff
	ff		 mov	 DWORD PTR _mission$[ebp], eax

; 361  : 
; 362  : 	ASSERT (mission);

  00084	83 bd 7c ff ff
	ff 00		 cmp	 DWORD PTR _mission$[ebp], 0
  0008b	75 18		 jne	 SHORT $LN18@update_deb
  0008d	a1 00 00 00 00	 mov	 eax, DWORD PTR ?__LINE__Var@?0??update_debriefing_page_objects@@YGXPAUUI_OBJECT@@PAX@Z@4JA
  00092	83 c0 0d	 add	 eax, 13			; 0000000dH
  00095	50		 push	 eax
  00096	68 00 00 00 00	 push	 OFFSET ??_C@_0EN@MKENPJLB@c?3?2users?2nhv90?2projects?2eech?2ap@
  0009b	68 00 00 00 00	 push	 OFFSET ??_C@_07CACALAH@mission@
  000a0	e8 00 00 00 00	 call	 ?process_assert@@YGXPBD0H@Z ; process_assert
$LN18@update_deb:

; 363  : 
; 364  : 	//
; 365  : 	// RESULT
; 366  : 	//
; 367  : 
; 368  : 	{
; 369  : 		int
; 370  : 			result;
; 371  : 
; 372  : 		char
; 373  : 			output [256];
; 374  : 
; 375  : 		result = get_local_entity_int_value (mission, INT_TYPE_TASK_COMPLETED);

  000a5	83 bd 7c ff ff
	ff 00		 cmp	 DWORD PTR _mission$[ebp], 0
  000ac	74 10		 je	 SHORT $LN34@update_deb
  000ae	8b 85 7c ff ff
	ff		 mov	 eax, DWORD PTR _mission$[ebp]
  000b4	8b 08		 mov	 ecx, DWORD PTR [eax]
  000b6	89 8d 0c fe ff
	ff		 mov	 DWORD PTR tv129[ebp], ecx
  000bc	eb 24		 jmp	 SHORT $LN35@update_deb
$LN34@update_deb:
  000be	8b 15 00 00 00
	00		 mov	 edx, DWORD PTR ?__LINE__Var@?0??update_debriefing_page_objects@@YGXPAUUI_OBJECT@@PAX@Z@4JA
  000c4	83 c2 1a	 add	 edx, 26			; 0000001aH
  000c7	52		 push	 edx
  000c8	68 00 00 00 00	 push	 OFFSET ??_C@_0EN@MKENPJLB@c?3?2users?2nhv90?2projects?2eech?2ap@
  000cd	a1 00 00 00 00	 mov	 eax, DWORD PTR ?null_entity_pointer_message@@3PBDB ; null_entity_pointer_message
  000d2	50		 push	 eax
  000d3	e8 00 00 00 00	 call	 ?process_assert@@YGXPBD0H@Z ; process_assert
  000d8	c7 85 0c fe ff
	ff 00 00 00 00	 mov	 DWORD PTR tv129[ebp], 0
$LN35@update_deb:
  000e2	b9 01 00 00 00	 mov	 ecx, 1
  000e7	85 c9		 test	 ecx, ecx
  000e9	74 0c		 je	 SHORT $LN36@update_deb
  000eb	c7 85 08 fe ff
	ff d9 00 00 00	 mov	 DWORD PTR tv137[ebp], 217 ; 000000d9H
  000f5	eb 24		 jmp	 SHORT $LN37@update_deb
$LN36@update_deb:
  000f7	8b 15 00 00 00
	00		 mov	 edx, DWORD PTR ?__LINE__Var@?0??update_debriefing_page_objects@@YGXPAUUI_OBJECT@@PAX@Z@4JA
  000fd	83 c2 1a	 add	 edx, 26			; 0000001aH
  00100	52		 push	 edx
  00101	68 00 00 00 00	 push	 OFFSET ??_C@_0EN@MKENPJLB@c?3?2users?2nhv90?2projects?2eech?2ap@
  00106	a1 00 00 00 00	 mov	 eax, DWORD PTR ?overload_invalid_int_type_message@@3PBDB ; overload_invalid_int_type_message
  0010b	50		 push	 eax
  0010c	e8 00 00 00 00	 call	 ?process_assert@@YGXPBD0H@Z ; process_assert
  00111	c7 85 08 fe ff
	ff 00 00 00 00	 mov	 DWORD PTR tv137[ebp], 0
$LN37@update_deb:
  0011b	68 d9 00 00 00	 push	 217			; 000000d9H
  00120	8b 8d 7c ff ff
	ff		 mov	 ecx, DWORD PTR _mission$[ebp]
  00126	51		 push	 ecx
  00127	69 95 0c fe ff
	ff 5c 04 00 00	 imul	 edx, DWORD PTR tv129[ebp], 1116
  00131	8b 85 08 fe ff
	ff		 mov	 eax, DWORD PTR tv137[ebp]
  00137	8b 8c 82 00 00
	00 00		 mov	 ecx, DWORD PTR ?fn_get_local_entity_int_value@@3PAY0BBH@P6GHPAUENTITY@@W4INT_TYPES@@@ZA[edx+eax*4]
  0013e	ff d1		 call	 ecx
  00140	89 85 78 ff ff
	ff		 mov	 DWORD PTR _result$12[ebp], eax

; 376  : 
; 377  : 		sprintf (output, "%s :  %s", get_trans ("Result"), get_trans (task_debrief_result_names [result]));

  00146	8b 85 78 ff ff
	ff		 mov	 eax, DWORD PTR _result$12[ebp]
  0014c	8b 0c 85 00 00
	00 00		 mov	 ecx, DWORD PTR ?task_debrief_result_names@@3PAPBDA[eax*4]
  00153	51		 push	 ecx
  00154	e8 00 00 00 00	 call	 ?get_trans@@YGPBDPBD@Z	; get_trans
  00159	50		 push	 eax
  0015a	68 00 00 00 00	 push	 OFFSET ??_C@_06GGONACPB@Result@
  0015f	e8 00 00 00 00	 call	 ?get_trans@@YGPBDPBD@Z	; get_trans
  00164	50		 push	 eax
  00165	68 00 00 00 00	 push	 OFFSET ??_C@_08MCHEIJJN@?$CFs?5?3?5?5?$CFs@
  0016a	8d 95 78 fe ff
	ff		 lea	 edx, DWORD PTR _output$11[ebp]
  00170	52		 push	 edx
  00171	e8 00 00 00 00	 call	 _sprintf
  00176	83 c4 10	 add	 esp, 16			; 00000010H

; 378  : 
; 379  : 		set_ui_object_text (debriefing_page_result_box, output);

  00179	8d 85 78 fe ff
	ff		 lea	 eax, DWORD PTR _output$11[ebp]
  0017f	50		 push	 eax
  00180	8b 0d 00 00 00
	00		 mov	 ecx, DWORD PTR ?debriefing_page_result_box@@3PAUUI_OBJECT@@A
  00186	51		 push	 ecx
  00187	8b 15 00 00 00
	00		 mov	 edx, DWORD PTR ?debriefing_page_result_box@@3PAUUI_OBJECT@@A
  0018d	8b 02		 mov	 eax, DWORD PTR [edx]
  0018f	8b 0c 85 00 00
	00 00		 mov	 ecx, DWORD PTR ?fn_set_ui_object_text@@3PAP6GXPAUUI_OBJECT@@PBD@ZA[eax*4]
  00196	ff d1		 call	 ecx

; 380  : 	}
; 381  : 
; 382  : 	//
; 383  : 	// POINTS
; 384  : 	//
; 385  : 
; 386  : 	#ifdef DEBUG
; 387  : 
; 388  : 	{
; 389  : 		int
; 390  : 			points;
; 391  : 
; 392  : 		points = get_local_entity_int_value (mission, INT_TYPE_TASK_SCORE);

  00198	83 bd 7c ff ff
	ff 00		 cmp	 DWORD PTR _mission$[ebp], 0
  0019f	74 10		 je	 SHORT $LN38@update_deb
  001a1	8b 85 7c ff ff
	ff		 mov	 eax, DWORD PTR _mission$[ebp]
  001a7	8b 08		 mov	 ecx, DWORD PTR [eax]
  001a9	89 8d 0c fe ff
	ff		 mov	 DWORD PTR tv164[ebp], ecx
  001af	eb 24		 jmp	 SHORT $LN39@update_deb
$LN38@update_deb:
  001b1	8b 15 00 00 00
	00		 mov	 edx, DWORD PTR ?__LINE__Var@?0??update_debriefing_page_objects@@YGXPAUUI_OBJECT@@PAX@Z@4JA
  001b7	83 c2 2b	 add	 edx, 43			; 0000002bH
  001ba	52		 push	 edx
  001bb	68 00 00 00 00	 push	 OFFSET ??_C@_0EN@MKENPJLB@c?3?2users?2nhv90?2projects?2eech?2ap@
  001c0	a1 00 00 00 00	 mov	 eax, DWORD PTR ?null_entity_pointer_message@@3PBDB ; null_entity_pointer_message
  001c5	50		 push	 eax
  001c6	e8 00 00 00 00	 call	 ?process_assert@@YGXPBD0H@Z ; process_assert
  001cb	c7 85 0c fe ff
	ff 00 00 00 00	 mov	 DWORD PTR tv164[ebp], 0
$LN39@update_deb:
  001d5	b9 01 00 00 00	 mov	 ecx, 1
  001da	85 c9		 test	 ecx, ecx
  001dc	74 0c		 je	 SHORT $LN40@update_deb
  001de	c7 85 08 fe ff
	ff e2 00 00 00	 mov	 DWORD PTR tv172[ebp], 226 ; 000000e2H
  001e8	eb 24		 jmp	 SHORT $LN41@update_deb
$LN40@update_deb:
  001ea	8b 15 00 00 00
	00		 mov	 edx, DWORD PTR ?__LINE__Var@?0??update_debriefing_page_objects@@YGXPAUUI_OBJECT@@PAX@Z@4JA
  001f0	83 c2 2b	 add	 edx, 43			; 0000002bH
  001f3	52		 push	 edx
  001f4	68 00 00 00 00	 push	 OFFSET ??_C@_0EN@MKENPJLB@c?3?2users?2nhv90?2projects?2eech?2ap@
  001f9	a1 00 00 00 00	 mov	 eax, DWORD PTR ?overload_invalid_int_type_message@@3PBDB ; overload_invalid_int_type_message
  001fe	50		 push	 eax
  001ff	e8 00 00 00 00	 call	 ?process_assert@@YGXPBD0H@Z ; process_assert
  00204	c7 85 08 fe ff
	ff 00 00 00 00	 mov	 DWORD PTR tv172[ebp], 0
$LN41@update_deb:
  0020e	68 e2 00 00 00	 push	 226			; 000000e2H
  00213	8b 8d 7c ff ff
	ff		 mov	 ecx, DWORD PTR _mission$[ebp]
  00219	51		 push	 ecx
  0021a	69 95 0c fe ff
	ff 5c 04 00 00	 imul	 edx, DWORD PTR tv164[ebp], 1116
  00224	8b 85 08 fe ff
	ff		 mov	 eax, DWORD PTR tv172[ebp]
  0022a	8b 8c 82 00 00
	00 00		 mov	 ecx, DWORD PTR ?fn_get_local_entity_int_value@@3PAY0BBH@P6GHPAUENTITY@@W4INT_TYPES@@@ZA[edx+eax*4]
  00231	ff d1		 call	 ecx
  00233	89 85 74 fe ff
	ff		 mov	 DWORD PTR _points$10[ebp], eax

; 393  : 
; 394  : 		sprintf (s, "%d", points);

  00239	8b 85 74 fe ff
	ff		 mov	 eax, DWORD PTR _points$10[ebp]
  0023f	50		 push	 eax
  00240	68 00 00 00 00	 push	 OFFSET ??_C@_02DPKJAMEF@?$CFd@
  00245	8d 4d 80	 lea	 ecx, DWORD PTR _s$[ebp]
  00248	51		 push	 ecx
  00249	e8 00 00 00 00	 call	 _sprintf
  0024e	83 c4 0c	 add	 esp, 12			; 0000000cH

; 395  : 
; 396  : 		set_ui_object_text (debriefing_page_points_box, s);

  00251	8d 45 80	 lea	 eax, DWORD PTR _s$[ebp]
  00254	50		 push	 eax
  00255	8b 0d 00 00 00
	00		 mov	 ecx, DWORD PTR ?debriefing_page_points_box@@3PAUUI_OBJECT@@A
  0025b	51		 push	 ecx
  0025c	8b 15 00 00 00
	00		 mov	 edx, DWORD PTR ?debriefing_page_points_box@@3PAUUI_OBJECT@@A
  00262	8b 02		 mov	 eax, DWORD PTR [edx]
  00264	8b 0c 85 00 00
	00 00		 mov	 ecx, DWORD PTR ?fn_set_ui_object_text@@3PAP6GXPAUUI_OBJECT@@PBD@ZA[eax*4]
  0026b	ff d1		 call	 ecx

; 397  : 	}
; 398  : 
; 399  : 	#endif
; 400  : 
; 401  : 	//
; 402  : 	// KILLS / LOSSES
; 403  : 	//
; 404  : 
; 405  : 	ui_object_destroy_list_items (debriefing_page_kills_box);

  0026d	a1 00 00 00 00	 mov	 eax, DWORD PTR ?debriefing_page_kills_box@@3PAUUI_OBJECT@@A
  00272	50		 push	 eax
  00273	e8 00 00 00 00	 call	 ?ui_object_destroy_list_items@@YGXPAUUI_OBJECT@@@Z ; ui_object_destroy_list_items

; 406  : 	
; 407  :   	{
; 408  : 
; 409  : 		task
; 410  : 			*task_raw;
; 411  : 
; 412  : 		task_kill_loss_data
; 413  : 			*kill;
; 414  : 
; 415  : 		int
; 416  : 			loop;
; 417  : 
; 418  : 		static int
; 419  : 			aircraft_count [NUM_ENTITY_SUB_TYPE_AIRCRAFT],
; 420  : 			vehicle_count [NUM_ENTITY_SUB_TYPE_VEHICLES];
; 421  : 
; 422  : 		task_raw = (task *) get_local_entity_data (mission);

  00278	8b 85 7c ff ff
	ff		 mov	 eax, DWORD PTR _mission$[ebp]
  0027e	8b 48 04	 mov	 ecx, DWORD PTR [eax+4]
  00281	89 8d 70 fe ff
	ff		 mov	 DWORD PTR _task_raw$9[ebp], ecx

; 423  : 
; 424  : 		//
; 425  : 		// Kills
; 426  : 		//
; 427  : 
; 428  : 		kill = task_raw->task_kills;

  00287	8b 85 70 fe ff
	ff		 mov	 eax, DWORD PTR _task_raw$9[ebp]
  0028d	8b 88 90 00 00
	00		 mov	 ecx, DWORD PTR [eax+144]
  00293	89 8d 6c fe ff
	ff		 mov	 DWORD PTR _kill$8[ebp], ecx

; 429  : 
; 430  : 		if (kill)

  00299	83 bd 6c fe ff
	ff 00		 cmp	 DWORD PTR _kill$8[ebp], 0
  002a0	0f 84 6e 02 00
	00		 je	 $LN19@update_deb

; 431  : 		{
; 432  : 			memset (aircraft_count, 0, sizeof (int) * NUM_ENTITY_SUB_TYPE_AIRCRAFT);

  002a6	68 80 00 00 00	 push	 128			; 00000080H
  002ab	6a 00		 push	 0
  002ad	68 00 00 00 00	 push	 OFFSET ?aircraft_count@?6??update_debriefing_page_objects@@YGXPAUUI_OBJECT@@PAX@Z@4PAHA
  002b2	e8 00 00 00 00	 call	 _memset
  002b7	83 c4 0c	 add	 esp, 12			; 0000000cH

; 433  : 			memset (vehicle_count, 0, sizeof (int) * NUM_ENTITY_SUB_TYPE_VEHICLES);

  002ba	68 98 00 00 00	 push	 152			; 00000098H
  002bf	6a 00		 push	 0
  002c1	68 00 00 00 00	 push	 OFFSET ?vehicle_count@?6??update_debriefing_page_objects@@YGXPAUUI_OBJECT@@PAX@Z@4PAHA
  002c6	e8 00 00 00 00	 call	 _memset
  002cb	83 c4 0c	 add	 esp, 12			; 0000000cH

; 434  : 
; 435  : 			add_to_pop_up_list (get_trans ("Kills"), debriefing_page_kills_box, NULL, 1.0, get_ui_object_font_type (debriefing_page_kills_box), get_ui_object_font_colour (debriefing_page_kills_box));

  002ce	a1 00 00 00 00	 mov	 eax, DWORD PTR ?debriefing_page_kills_box@@3PAUUI_OBJECT@@A
  002d3	50		 push	 eax
  002d4	8b 0d 00 00 00
	00		 mov	 ecx, DWORD PTR ?debriefing_page_kills_box@@3PAUUI_OBJECT@@A
  002da	8b 11		 mov	 edx, DWORD PTR [ecx]
  002dc	8b 04 95 00 00
	00 00		 mov	 eax, DWORD PTR ?fn_get_ui_object_font_colour@@3PAP6G?AUREAL_COLOUR@@PAUUI_OBJECT@@@ZA[edx*4]
  002e3	ff d0		 call	 eax
  002e5	89 85 24 fe ff
	ff		 mov	 DWORD PTR $T6[ebp], eax
  002eb	8b 8d 24 fe ff
	ff		 mov	 ecx, DWORD PTR $T6[ebp]
  002f1	51		 push	 ecx
  002f2	8b 15 00 00 00
	00		 mov	 edx, DWORD PTR ?debriefing_page_kills_box@@3PAUUI_OBJECT@@A
  002f8	52		 push	 edx
  002f9	a1 00 00 00 00	 mov	 eax, DWORD PTR ?debriefing_page_kills_box@@3PAUUI_OBJECT@@A
  002fe	8b 08		 mov	 ecx, DWORD PTR [eax]
  00300	8b 14 8d 00 00
	00 00		 mov	 edx, DWORD PTR ?fn_get_ui_object_font_type@@3PAP6G?AW4FONT_TYPES@@PAUUI_OBJECT@@@ZA[ecx*4]
  00307	ff d2		 call	 edx
  00309	50		 push	 eax
  0030a	6a 01		 push	 1
  0030c	6a 00		 push	 0
  0030e	a1 00 00 00 00	 mov	 eax, DWORD PTR ?debriefing_page_kills_box@@3PAUUI_OBJECT@@A
  00313	50		 push	 eax
  00314	68 00 00 00 00	 push	 OFFSET ??_C@_05ILKPOBAF@Kills@
  00319	e8 00 00 00 00	 call	 ?get_trans@@YGPBDPBD@Z	; get_trans
  0031e	50		 push	 eax
  0031f	e8 00 00 00 00	 call	 ?add_to_pop_up_list@@YGPAUUI_OBJECT@@PBDPAU1@1HHUREAL_COLOUR@@@Z ; add_to_pop_up_list
$LN2@update_deb:

; 436  : 
; 437  : 			// construct list
; 438  : 
; 439  : 			while (kill)

  00324	83 bd 6c fe ff
	ff 00		 cmp	 DWORD PTR _kill$8[ebp], 0
  0032b	74 6f		 je	 SHORT $LN3@update_deb

; 440  : 			{
; 441  : 				if ((kill->victim_type == ENTITY_TYPE_FIXED_WING) || (kill->victim_type == ENTITY_TYPE_HELICOPTER))

  0032d	8b 85 6c fe ff
	ff		 mov	 eax, DWORD PTR _kill$8[ebp]
  00333	83 38 0a	 cmp	 DWORD PTR [eax], 10	; 0000000aH
  00336	74 0b		 je	 SHORT $LN22@update_deb
  00338	8b 85 6c fe ff
	ff		 mov	 eax, DWORD PTR _kill$8[ebp]
  0033e	83 38 0e	 cmp	 DWORD PTR [eax], 14	; 0000000eH
  00341	75 25		 jne	 SHORT $LN20@update_deb
$LN22@update_deb:

; 442  : 				{
; 443  : 					aircraft_count [kill->victim_sub_type] ++;

  00343	8b 85 6c fe ff
	ff		 mov	 eax, DWORD PTR _kill$8[ebp]
  00349	8b 48 10	 mov	 ecx, DWORD PTR [eax+16]
  0034c	8b 14 8d 00 00
	00 00		 mov	 edx, DWORD PTR ?aircraft_count@?6??update_debriefing_page_objects@@YGXPAUUI_OBJECT@@PAX@Z@4PAHA[ecx*4]
  00353	83 c2 01	 add	 edx, 1
  00356	8b 85 6c fe ff
	ff		 mov	 eax, DWORD PTR _kill$8[ebp]
  0035c	8b 48 10	 mov	 ecx, DWORD PTR [eax+16]
  0035f	89 14 8d 00 00
	00 00		 mov	 DWORD PTR ?aircraft_count@?6??update_debriefing_page_objects@@YGXPAUUI_OBJECT@@PAX@Z@4PAHA[ecx*4], edx

; 444  : 				}
; 445  : 				else

  00366	eb 23		 jmp	 SHORT $LN21@update_deb
$LN20@update_deb:

; 446  : 				{
; 447  : 					vehicle_count [kill->victim_sub_type] ++;

  00368	8b 85 6c fe ff
	ff		 mov	 eax, DWORD PTR _kill$8[ebp]
  0036e	8b 48 10	 mov	 ecx, DWORD PTR [eax+16]
  00371	8b 14 8d 00 00
	00 00		 mov	 edx, DWORD PTR ?vehicle_count@?6??update_debriefing_page_objects@@YGXPAUUI_OBJECT@@PAX@Z@4PAHA[ecx*4]
  00378	83 c2 01	 add	 edx, 1
  0037b	8b 85 6c fe ff
	ff		 mov	 eax, DWORD PTR _kill$8[ebp]
  00381	8b 48 10	 mov	 ecx, DWORD PTR [eax+16]
  00384	89 14 8d 00 00
	00 00		 mov	 DWORD PTR ?vehicle_count@?6??update_debriefing_page_objects@@YGXPAUUI_OBJECT@@PAX@Z@4PAHA[ecx*4], edx
$LN21@update_deb:

; 448  : 				}
; 449  : 	
; 450  : 				kill = kill->next;

  0038b	8b 85 6c fe ff
	ff		 mov	 eax, DWORD PTR _kill$8[ebp]
  00391	8b 48 28	 mov	 ecx, DWORD PTR [eax+40]
  00394	89 8d 6c fe ff
	ff		 mov	 DWORD PTR _kill$8[ebp], ecx

; 451  : 			}

  0039a	eb 88		 jmp	 SHORT $LN2@update_deb
$LN3@update_deb:

; 452  : 
; 453  : 			// Aircraft
; 454  : 
; 455  : 			for (loop = 0; loop < NUM_ENTITY_SUB_TYPE_AIRCRAFT; loop ++)

  0039c	c7 85 68 fe ff
	ff 00 00 00 00	 mov	 DWORD PTR _loop$7[ebp], 0
  003a6	eb 0f		 jmp	 SHORT $LN6@update_deb
$LN4@update_deb:
  003a8	8b 85 68 fe ff
	ff		 mov	 eax, DWORD PTR _loop$7[ebp]
  003ae	83 c0 01	 add	 eax, 1
  003b1	89 85 68 fe ff
	ff		 mov	 DWORD PTR _loop$7[ebp], eax
$LN6@update_deb:
  003b7	83 bd 68 fe ff
	ff 20		 cmp	 DWORD PTR _loop$7[ebp], 32 ; 00000020H
  003be	0f 8d 94 00 00
	00		 jge	 $LN5@update_deb

; 456  : 			{
; 457  : 				if (aircraft_count [loop] > 0)

  003c4	8b 85 68 fe ff
	ff		 mov	 eax, DWORD PTR _loop$7[ebp]
  003ca	83 3c 85 00 00
	00 00 00	 cmp	 DWORD PTR ?aircraft_count@?6??update_debriefing_page_objects@@YGXPAUUI_OBJECT@@PAX@Z@4PAHA[eax*4], 0
  003d2	7e 7f		 jle	 SHORT $LN23@update_deb

; 458  : 				{
; 459  : 					sprintf (s, "    %dx %s", aircraft_count [loop], aircraft_database [loop].full_name);

  003d4	69 85 68 fe ff
	ff f4 00 00 00	 imul	 eax, DWORD PTR _loop$7[ebp], 244
  003de	8b 88 00 00 00
	00		 mov	 ecx, DWORD PTR ?aircraft_database@@3PAUAIRCRAFT_DATA@@A[eax]
  003e4	51		 push	 ecx
  003e5	8b 95 68 fe ff
	ff		 mov	 edx, DWORD PTR _loop$7[ebp]
  003eb	8b 04 95 00 00
	00 00		 mov	 eax, DWORD PTR ?aircraft_count@?6??update_debriefing_page_objects@@YGXPAUUI_OBJECT@@PAX@Z@4PAHA[edx*4]
  003f2	50		 push	 eax
  003f3	68 00 00 00 00	 push	 OFFSET ??_C@_0L@HLNKNDJI@?5?5?5?5?$CFdx?5?$CFs@
  003f8	8d 4d 80	 lea	 ecx, DWORD PTR _s$[ebp]
  003fb	51		 push	 ecx
  003fc	e8 00 00 00 00	 call	 _sprintf
  00401	83 c4 10	 add	 esp, 16			; 00000010H

; 460  : 	
; 461  : 					add_to_pop_up_list (s, debriefing_page_kills_box, NULL, 1.0, get_ui_object_font_type (debriefing_page_kills_box), get_ui_object_font_colour (debriefing_page_kills_box));

  00404	a1 00 00 00 00	 mov	 eax, DWORD PTR ?debriefing_page_kills_box@@3PAUUI_OBJECT@@A
  00409	50		 push	 eax
  0040a	8b 0d 00 00 00
	00		 mov	 ecx, DWORD PTR ?debriefing_page_kills_box@@3PAUUI_OBJECT@@A
  00410	8b 11		 mov	 edx, DWORD PTR [ecx]
  00412	8b 04 95 00 00
	00 00		 mov	 eax, DWORD PTR ?fn_get_ui_object_font_colour@@3PAP6G?AUREAL_COLOUR@@PAUUI_OBJECT@@@ZA[edx*4]
  00419	ff d0		 call	 eax
  0041b	89 85 20 fe ff
	ff		 mov	 DWORD PTR $T5[ebp], eax
  00421	8b 8d 20 fe ff
	ff		 mov	 ecx, DWORD PTR $T5[ebp]
  00427	51		 push	 ecx
  00428	8b 15 00 00 00
	00		 mov	 edx, DWORD PTR ?debriefing_page_kills_box@@3PAUUI_OBJECT@@A
  0042e	52		 push	 edx
  0042f	a1 00 00 00 00	 mov	 eax, DWORD PTR ?debriefing_page_kills_box@@3PAUUI_OBJECT@@A
  00434	8b 08		 mov	 ecx, DWORD PTR [eax]
  00436	8b 14 8d 00 00
	00 00		 mov	 edx, DWORD PTR ?fn_get_ui_object_font_type@@3PAP6G?AW4FONT_TYPES@@PAUUI_OBJECT@@@ZA[ecx*4]
  0043d	ff d2		 call	 edx
  0043f	50		 push	 eax
  00440	6a 01		 push	 1
  00442	6a 00		 push	 0
  00444	a1 00 00 00 00	 mov	 eax, DWORD PTR ?debriefing_page_kills_box@@3PAUUI_OBJECT@@A
  00449	50		 push	 eax
  0044a	8d 4d 80	 lea	 ecx, DWORD PTR _s$[ebp]
  0044d	51		 push	 ecx
  0044e	e8 00 00 00 00	 call	 ?add_to_pop_up_list@@YGPAUUI_OBJECT@@PBDPAU1@1HHUREAL_COLOUR@@@Z ; add_to_pop_up_list
$LN23@update_deb:

; 462  : 				}
; 463  : 			}

  00453	e9 50 ff ff ff	 jmp	 $LN4@update_deb
$LN5@update_deb:

; 464  : 
; 465  : 			// Vehicles
; 466  : 
; 467  : 			for (loop = 0; loop < NUM_ENTITY_SUB_TYPE_VEHICLES; loop ++)

  00458	c7 85 68 fe ff
	ff 00 00 00 00	 mov	 DWORD PTR _loop$7[ebp], 0
  00462	eb 0f		 jmp	 SHORT $LN9@update_deb
$LN7@update_deb:
  00464	8b 85 68 fe ff
	ff		 mov	 eax, DWORD PTR _loop$7[ebp]
  0046a	83 c0 01	 add	 eax, 1
  0046d	89 85 68 fe ff
	ff		 mov	 DWORD PTR _loop$7[ebp], eax
$LN9@update_deb:
  00473	83 bd 68 fe ff
	ff 26		 cmp	 DWORD PTR _loop$7[ebp], 38 ; 00000026H
  0047a	0f 8d 94 00 00
	00		 jge	 $LN19@update_deb

; 468  : 			{
; 469  : 				if (vehicle_count [loop] > 0)

  00480	8b 85 68 fe ff
	ff		 mov	 eax, DWORD PTR _loop$7[ebp]
  00486	83 3c 85 00 00
	00 00 00	 cmp	 DWORD PTR ?vehicle_count@?6??update_debriefing_page_objects@@YGXPAUUI_OBJECT@@PAX@Z@4PAHA[eax*4], 0
  0048e	7e 7f		 jle	 SHORT $LN24@update_deb

; 470  : 				{
; 471  : 					sprintf (s, "    %dx %s", vehicle_count [loop], vehicle_database [loop].full_name);

  00490	69 85 68 fe ff
	ff bc 00 00 00	 imul	 eax, DWORD PTR _loop$7[ebp], 188
  0049a	8b 88 00 00 00
	00		 mov	 ecx, DWORD PTR ?vehicle_database@@3PAUVEHICLE_DATA@@A[eax]
  004a0	51		 push	 ecx
  004a1	8b 95 68 fe ff
	ff		 mov	 edx, DWORD PTR _loop$7[ebp]
  004a7	8b 04 95 00 00
	00 00		 mov	 eax, DWORD PTR ?vehicle_count@?6??update_debriefing_page_objects@@YGXPAUUI_OBJECT@@PAX@Z@4PAHA[edx*4]
  004ae	50		 push	 eax
  004af	68 00 00 00 00	 push	 OFFSET ??_C@_0L@HLNKNDJI@?5?5?5?5?$CFdx?5?$CFs@
  004b4	8d 4d 80	 lea	 ecx, DWORD PTR _s$[ebp]
  004b7	51		 push	 ecx
  004b8	e8 00 00 00 00	 call	 _sprintf
  004bd	83 c4 10	 add	 esp, 16			; 00000010H

; 472  : 	
; 473  : 					add_to_pop_up_list (s, debriefing_page_kills_box, NULL, 1.0, get_ui_object_font_type (debriefing_page_kills_box), get_ui_object_font_colour (debriefing_page_kills_box));

  004c0	a1 00 00 00 00	 mov	 eax, DWORD PTR ?debriefing_page_kills_box@@3PAUUI_OBJECT@@A
  004c5	50		 push	 eax
  004c6	8b 0d 00 00 00
	00		 mov	 ecx, DWORD PTR ?debriefing_page_kills_box@@3PAUUI_OBJECT@@A
  004cc	8b 11		 mov	 edx, DWORD PTR [ecx]
  004ce	8b 04 95 00 00
	00 00		 mov	 eax, DWORD PTR ?fn_get_ui_object_font_colour@@3PAP6G?AUREAL_COLOUR@@PAUUI_OBJECT@@@ZA[edx*4]
  004d5	ff d0		 call	 eax
  004d7	89 85 1c fe ff
	ff		 mov	 DWORD PTR $T4[ebp], eax
  004dd	8b 8d 1c fe ff
	ff		 mov	 ecx, DWORD PTR $T4[ebp]
  004e3	51		 push	 ecx
  004e4	8b 15 00 00 00
	00		 mov	 edx, DWORD PTR ?debriefing_page_kills_box@@3PAUUI_OBJECT@@A
  004ea	52		 push	 edx
  004eb	a1 00 00 00 00	 mov	 eax, DWORD PTR ?debriefing_page_kills_box@@3PAUUI_OBJECT@@A
  004f0	8b 08		 mov	 ecx, DWORD PTR [eax]
  004f2	8b 14 8d 00 00
	00 00		 mov	 edx, DWORD PTR ?fn_get_ui_object_font_type@@3PAP6G?AW4FONT_TYPES@@PAUUI_OBJECT@@@ZA[ecx*4]
  004f9	ff d2		 call	 edx
  004fb	50		 push	 eax
  004fc	6a 01		 push	 1
  004fe	6a 00		 push	 0
  00500	a1 00 00 00 00	 mov	 eax, DWORD PTR ?debriefing_page_kills_box@@3PAUUI_OBJECT@@A
  00505	50		 push	 eax
  00506	8d 4d 80	 lea	 ecx, DWORD PTR _s$[ebp]
  00509	51		 push	 ecx
  0050a	e8 00 00 00 00	 call	 ?add_to_pop_up_list@@YGPAUUI_OBJECT@@PBDPAU1@1HHUREAL_COLOUR@@@Z ; add_to_pop_up_list
$LN24@update_deb:

; 474  : 				}
; 475  : 			}

  0050f	e9 50 ff ff ff	 jmp	 $LN7@update_deb
$LN19@update_deb:

; 476  : 		}
; 477  : 
; 478  : 		//
; 479  : 		// Losses
; 480  : 		//
; 481  : 
; 482  : 		kill = task_raw->task_losses;

  00514	8b 85 70 fe ff
	ff		 mov	 eax, DWORD PTR _task_raw$9[ebp]
  0051a	8b 88 94 00 00
	00		 mov	 ecx, DWORD PTR [eax+148]
  00520	89 8d 6c fe ff
	ff		 mov	 DWORD PTR _kill$8[ebp], ecx

; 483  : 
; 484  : 		if (kill)

  00526	83 bd 6c fe ff
	ff 00		 cmp	 DWORD PTR _kill$8[ebp], 0
  0052d	0f 84 6e 02 00
	00		 je	 $LN25@update_deb

; 485  : 		{
; 486  : 			memset (aircraft_count, 0, sizeof (int) * NUM_ENTITY_SUB_TYPE_AIRCRAFT);

  00533	68 80 00 00 00	 push	 128			; 00000080H
  00538	6a 00		 push	 0
  0053a	68 00 00 00 00	 push	 OFFSET ?aircraft_count@?6??update_debriefing_page_objects@@YGXPAUUI_OBJECT@@PAX@Z@4PAHA
  0053f	e8 00 00 00 00	 call	 _memset
  00544	83 c4 0c	 add	 esp, 12			; 0000000cH

; 487  : 			memset (vehicle_count, 0, sizeof (int) * NUM_ENTITY_SUB_TYPE_VEHICLES);

  00547	68 98 00 00 00	 push	 152			; 00000098H
  0054c	6a 00		 push	 0
  0054e	68 00 00 00 00	 push	 OFFSET ?vehicle_count@?6??update_debriefing_page_objects@@YGXPAUUI_OBJECT@@PAX@Z@4PAHA
  00553	e8 00 00 00 00	 call	 _memset
  00558	83 c4 0c	 add	 esp, 12			; 0000000cH

; 488  : 
; 489  : 			add_to_pop_up_list (get_trans ("Losses"), debriefing_page_kills_box, NULL, 1.0, get_ui_object_font_type (debriefing_page_kills_box), get_ui_object_font_colour (debriefing_page_kills_box));

  0055b	a1 00 00 00 00	 mov	 eax, DWORD PTR ?debriefing_page_kills_box@@3PAUUI_OBJECT@@A
  00560	50		 push	 eax
  00561	8b 0d 00 00 00
	00		 mov	 ecx, DWORD PTR ?debriefing_page_kills_box@@3PAUUI_OBJECT@@A
  00567	8b 11		 mov	 edx, DWORD PTR [ecx]
  00569	8b 04 95 00 00
	00 00		 mov	 eax, DWORD PTR ?fn_get_ui_object_font_colour@@3PAP6G?AUREAL_COLOUR@@PAUUI_OBJECT@@@ZA[edx*4]
  00570	ff d0		 call	 eax
  00572	89 85 18 fe ff
	ff		 mov	 DWORD PTR $T3[ebp], eax
  00578	8b 8d 18 fe ff
	ff		 mov	 ecx, DWORD PTR $T3[ebp]
  0057e	51		 push	 ecx
  0057f	8b 15 00 00 00
	00		 mov	 edx, DWORD PTR ?debriefing_page_kills_box@@3PAUUI_OBJECT@@A
  00585	52		 push	 edx
  00586	a1 00 00 00 00	 mov	 eax, DWORD PTR ?debriefing_page_kills_box@@3PAUUI_OBJECT@@A
  0058b	8b 08		 mov	 ecx, DWORD PTR [eax]
  0058d	8b 14 8d 00 00
	00 00		 mov	 edx, DWORD PTR ?fn_get_ui_object_font_type@@3PAP6G?AW4FONT_TYPES@@PAUUI_OBJECT@@@ZA[ecx*4]
  00594	ff d2		 call	 edx
  00596	50		 push	 eax
  00597	6a 01		 push	 1
  00599	6a 00		 push	 0
  0059b	a1 00 00 00 00	 mov	 eax, DWORD PTR ?debriefing_page_kills_box@@3PAUUI_OBJECT@@A
  005a0	50		 push	 eax
  005a1	68 00 00 00 00	 push	 OFFSET ??_C@_06JFGMDEJA@Losses@
  005a6	e8 00 00 00 00	 call	 ?get_trans@@YGPBDPBD@Z	; get_trans
  005ab	50		 push	 eax
  005ac	e8 00 00 00 00	 call	 ?add_to_pop_up_list@@YGPAUUI_OBJECT@@PBDPAU1@1HHUREAL_COLOUR@@@Z ; add_to_pop_up_list
$LN10@update_deb:

; 490  : 	
; 491  : 			// construct list
; 492  : 
; 493  : 			while (kill)

  005b1	83 bd 6c fe ff
	ff 00		 cmp	 DWORD PTR _kill$8[ebp], 0
  005b8	74 6f		 je	 SHORT $LN11@update_deb

; 494  : 			{
; 495  : 				if ((kill->victim_type == ENTITY_TYPE_FIXED_WING) || (kill->victim_type == ENTITY_TYPE_HELICOPTER))

  005ba	8b 85 6c fe ff
	ff		 mov	 eax, DWORD PTR _kill$8[ebp]
  005c0	83 38 0a	 cmp	 DWORD PTR [eax], 10	; 0000000aH
  005c3	74 0b		 je	 SHORT $LN28@update_deb
  005c5	8b 85 6c fe ff
	ff		 mov	 eax, DWORD PTR _kill$8[ebp]
  005cb	83 38 0e	 cmp	 DWORD PTR [eax], 14	; 0000000eH
  005ce	75 25		 jne	 SHORT $LN26@update_deb
$LN28@update_deb:

; 496  : 				{
; 497  : 					aircraft_count [kill->victim_sub_type] ++;

  005d0	8b 85 6c fe ff
	ff		 mov	 eax, DWORD PTR _kill$8[ebp]
  005d6	8b 48 10	 mov	 ecx, DWORD PTR [eax+16]
  005d9	8b 14 8d 00 00
	00 00		 mov	 edx, DWORD PTR ?aircraft_count@?6??update_debriefing_page_objects@@YGXPAUUI_OBJECT@@PAX@Z@4PAHA[ecx*4]
  005e0	83 c2 01	 add	 edx, 1
  005e3	8b 85 6c fe ff
	ff		 mov	 eax, DWORD PTR _kill$8[ebp]
  005e9	8b 48 10	 mov	 ecx, DWORD PTR [eax+16]
  005ec	89 14 8d 00 00
	00 00		 mov	 DWORD PTR ?aircraft_count@?6??update_debriefing_page_objects@@YGXPAUUI_OBJECT@@PAX@Z@4PAHA[ecx*4], edx

; 498  : 				}
; 499  : 				else

  005f3	eb 23		 jmp	 SHORT $LN27@update_deb
$LN26@update_deb:

; 500  : 				{
; 501  : 					vehicle_count [kill->victim_sub_type] ++;

  005f5	8b 85 6c fe ff
	ff		 mov	 eax, DWORD PTR _kill$8[ebp]
  005fb	8b 48 10	 mov	 ecx, DWORD PTR [eax+16]
  005fe	8b 14 8d 00 00
	00 00		 mov	 edx, DWORD PTR ?vehicle_count@?6??update_debriefing_page_objects@@YGXPAUUI_OBJECT@@PAX@Z@4PAHA[ecx*4]
  00605	83 c2 01	 add	 edx, 1
  00608	8b 85 6c fe ff
	ff		 mov	 eax, DWORD PTR _kill$8[ebp]
  0060e	8b 48 10	 mov	 ecx, DWORD PTR [eax+16]
  00611	89 14 8d 00 00
	00 00		 mov	 DWORD PTR ?vehicle_count@?6??update_debriefing_page_objects@@YGXPAUUI_OBJECT@@PAX@Z@4PAHA[ecx*4], edx
$LN27@update_deb:

; 502  : 				}
; 503  : 	
; 504  : 				kill = kill->next;

  00618	8b 85 6c fe ff
	ff		 mov	 eax, DWORD PTR _kill$8[ebp]
  0061e	8b 48 28	 mov	 ecx, DWORD PTR [eax+40]
  00621	89 8d 6c fe ff
	ff		 mov	 DWORD PTR _kill$8[ebp], ecx

; 505  : 			}

  00627	eb 88		 jmp	 SHORT $LN10@update_deb
$LN11@update_deb:

; 506  : 
; 507  : 			// Aircraft
; 508  : 
; 509  : 			for (loop = 0; loop < NUM_ENTITY_SUB_TYPE_AIRCRAFT; loop ++)

  00629	c7 85 68 fe ff
	ff 00 00 00 00	 mov	 DWORD PTR _loop$7[ebp], 0
  00633	eb 0f		 jmp	 SHORT $LN14@update_deb
$LN12@update_deb:
  00635	8b 85 68 fe ff
	ff		 mov	 eax, DWORD PTR _loop$7[ebp]
  0063b	83 c0 01	 add	 eax, 1
  0063e	89 85 68 fe ff
	ff		 mov	 DWORD PTR _loop$7[ebp], eax
$LN14@update_deb:
  00644	83 bd 68 fe ff
	ff 20		 cmp	 DWORD PTR _loop$7[ebp], 32 ; 00000020H
  0064b	0f 8d 94 00 00
	00		 jge	 $LN13@update_deb

; 510  : 			{
; 511  : 				if (aircraft_count [loop] > 0)

  00651	8b 85 68 fe ff
	ff		 mov	 eax, DWORD PTR _loop$7[ebp]
  00657	83 3c 85 00 00
	00 00 00	 cmp	 DWORD PTR ?aircraft_count@?6??update_debriefing_page_objects@@YGXPAUUI_OBJECT@@PAX@Z@4PAHA[eax*4], 0
  0065f	7e 7f		 jle	 SHORT $LN29@update_deb

; 512  : 				{
; 513  : 					sprintf (s, "    %dx %s", aircraft_count [loop], aircraft_database [loop].full_name);

  00661	69 85 68 fe ff
	ff f4 00 00 00	 imul	 eax, DWORD PTR _loop$7[ebp], 244
  0066b	8b 88 00 00 00
	00		 mov	 ecx, DWORD PTR ?aircraft_database@@3PAUAIRCRAFT_DATA@@A[eax]
  00671	51		 push	 ecx
  00672	8b 95 68 fe ff
	ff		 mov	 edx, DWORD PTR _loop$7[ebp]
  00678	8b 04 95 00 00
	00 00		 mov	 eax, DWORD PTR ?aircraft_count@?6??update_debriefing_page_objects@@YGXPAUUI_OBJECT@@PAX@Z@4PAHA[edx*4]
  0067f	50		 push	 eax
  00680	68 00 00 00 00	 push	 OFFSET ??_C@_0L@HLNKNDJI@?5?5?5?5?$CFdx?5?$CFs@
  00685	8d 4d 80	 lea	 ecx, DWORD PTR _s$[ebp]
  00688	51		 push	 ecx
  00689	e8 00 00 00 00	 call	 _sprintf
  0068e	83 c4 10	 add	 esp, 16			; 00000010H

; 514  : 	
; 515  : 					add_to_pop_up_list (s, debriefing_page_kills_box, NULL, 1.0, get_ui_object_font_type (debriefing_page_kills_box), get_ui_object_font_colour (debriefing_page_kills_box));

  00691	a1 00 00 00 00	 mov	 eax, DWORD PTR ?debriefing_page_kills_box@@3PAUUI_OBJECT@@A
  00696	50		 push	 eax
  00697	8b 0d 00 00 00
	00		 mov	 ecx, DWORD PTR ?debriefing_page_kills_box@@3PAUUI_OBJECT@@A
  0069d	8b 11		 mov	 edx, DWORD PTR [ecx]
  0069f	8b 04 95 00 00
	00 00		 mov	 eax, DWORD PTR ?fn_get_ui_object_font_colour@@3PAP6G?AUREAL_COLOUR@@PAUUI_OBJECT@@@ZA[edx*4]
  006a6	ff d0		 call	 eax
  006a8	89 85 14 fe ff
	ff		 mov	 DWORD PTR $T2[ebp], eax
  006ae	8b 8d 14 fe ff
	ff		 mov	 ecx, DWORD PTR $T2[ebp]
  006b4	51		 push	 ecx
  006b5	8b 15 00 00 00
	00		 mov	 edx, DWORD PTR ?debriefing_page_kills_box@@3PAUUI_OBJECT@@A
  006bb	52		 push	 edx
  006bc	a1 00 00 00 00	 mov	 eax, DWORD PTR ?debriefing_page_kills_box@@3PAUUI_OBJECT@@A
  006c1	8b 08		 mov	 ecx, DWORD PTR [eax]
  006c3	8b 14 8d 00 00
	00 00		 mov	 edx, DWORD PTR ?fn_get_ui_object_font_type@@3PAP6G?AW4FONT_TYPES@@PAUUI_OBJECT@@@ZA[ecx*4]
  006ca	ff d2		 call	 edx
  006cc	50		 push	 eax
  006cd	6a 01		 push	 1
  006cf	6a 00		 push	 0
  006d1	a1 00 00 00 00	 mov	 eax, DWORD PTR ?debriefing_page_kills_box@@3PAUUI_OBJECT@@A
  006d6	50		 push	 eax
  006d7	8d 4d 80	 lea	 ecx, DWORD PTR _s$[ebp]
  006da	51		 push	 ecx
  006db	e8 00 00 00 00	 call	 ?add_to_pop_up_list@@YGPAUUI_OBJECT@@PBDPAU1@1HHUREAL_COLOUR@@@Z ; add_to_pop_up_list
$LN29@update_deb:

; 516  : 				}
; 517  : 			}

  006e0	e9 50 ff ff ff	 jmp	 $LN12@update_deb
$LN13@update_deb:

; 518  : 
; 519  : 			// Vehicles
; 520  : 
; 521  : 			for (loop = 0; loop < NUM_ENTITY_SUB_TYPE_VEHICLES; loop ++)

  006e5	c7 85 68 fe ff
	ff 00 00 00 00	 mov	 DWORD PTR _loop$7[ebp], 0
  006ef	eb 0f		 jmp	 SHORT $LN17@update_deb
$LN15@update_deb:
  006f1	8b 85 68 fe ff
	ff		 mov	 eax, DWORD PTR _loop$7[ebp]
  006f7	83 c0 01	 add	 eax, 1
  006fa	89 85 68 fe ff
	ff		 mov	 DWORD PTR _loop$7[ebp], eax
$LN17@update_deb:
  00700	83 bd 68 fe ff
	ff 26		 cmp	 DWORD PTR _loop$7[ebp], 38 ; 00000026H
  00707	0f 8d 94 00 00
	00		 jge	 $LN25@update_deb

; 522  : 			{
; 523  : 				if (vehicle_count [loop] > 0)

  0070d	8b 85 68 fe ff
	ff		 mov	 eax, DWORD PTR _loop$7[ebp]
  00713	83 3c 85 00 00
	00 00 00	 cmp	 DWORD PTR ?vehicle_count@?6??update_debriefing_page_objects@@YGXPAUUI_OBJECT@@PAX@Z@4PAHA[eax*4], 0
  0071b	7e 7f		 jle	 SHORT $LN30@update_deb

; 524  : 				{
; 525  : 					sprintf (s, "    %dx %s", vehicle_count [loop], vehicle_database [loop].full_name);

  0071d	69 85 68 fe ff
	ff bc 00 00 00	 imul	 eax, DWORD PTR _loop$7[ebp], 188
  00727	8b 88 00 00 00
	00		 mov	 ecx, DWORD PTR ?vehicle_database@@3PAUVEHICLE_DATA@@A[eax]
  0072d	51		 push	 ecx
  0072e	8b 95 68 fe ff
	ff		 mov	 edx, DWORD PTR _loop$7[ebp]
  00734	8b 04 95 00 00
	00 00		 mov	 eax, DWORD PTR ?vehicle_count@?6??update_debriefing_page_objects@@YGXPAUUI_OBJECT@@PAX@Z@4PAHA[edx*4]
  0073b	50		 push	 eax
  0073c	68 00 00 00 00	 push	 OFFSET ??_C@_0L@HLNKNDJI@?5?5?5?5?$CFdx?5?$CFs@
  00741	8d 4d 80	 lea	 ecx, DWORD PTR _s$[ebp]
  00744	51		 push	 ecx
  00745	e8 00 00 00 00	 call	 _sprintf
  0074a	83 c4 10	 add	 esp, 16			; 00000010H

; 526  : 	
; 527  : 					add_to_pop_up_list (s, debriefing_page_kills_box, NULL, 1.0, get_ui_object_font_type (debriefing_page_kills_box), get_ui_object_font_colour (debriefing_page_kills_box));

  0074d	a1 00 00 00 00	 mov	 eax, DWORD PTR ?debriefing_page_kills_box@@3PAUUI_OBJECT@@A
  00752	50		 push	 eax
  00753	8b 0d 00 00 00
	00		 mov	 ecx, DWORD PTR ?debriefing_page_kills_box@@3PAUUI_OBJECT@@A
  00759	8b 11		 mov	 edx, DWORD PTR [ecx]
  0075b	8b 04 95 00 00
	00 00		 mov	 eax, DWORD PTR ?fn_get_ui_object_font_colour@@3PAP6G?AUREAL_COLOUR@@PAUUI_OBJECT@@@ZA[edx*4]
  00762	ff d0		 call	 eax
  00764	89 85 10 fe ff
	ff		 mov	 DWORD PTR $T1[ebp], eax
  0076a	8b 8d 10 fe ff
	ff		 mov	 ecx, DWORD PTR $T1[ebp]
  00770	51		 push	 ecx
  00771	8b 15 00 00 00
	00		 mov	 edx, DWORD PTR ?debriefing_page_kills_box@@3PAUUI_OBJECT@@A
  00777	52		 push	 edx
  00778	a1 00 00 00 00	 mov	 eax, DWORD PTR ?debriefing_page_kills_box@@3PAUUI_OBJECT@@A
  0077d	8b 08		 mov	 ecx, DWORD PTR [eax]
  0077f	8b 14 8d 00 00
	00 00		 mov	 edx, DWORD PTR ?fn_get_ui_object_font_type@@3PAP6G?AW4FONT_TYPES@@PAUUI_OBJECT@@@ZA[ecx*4]
  00786	ff d2		 call	 edx
  00788	50		 push	 eax
  00789	6a 01		 push	 1
  0078b	6a 00		 push	 0
  0078d	a1 00 00 00 00	 mov	 eax, DWORD PTR ?debriefing_page_kills_box@@3PAUUI_OBJECT@@A
  00792	50		 push	 eax
  00793	8d 4d 80	 lea	 ecx, DWORD PTR _s$[ebp]
  00796	51		 push	 ecx
  00797	e8 00 00 00 00	 call	 ?add_to_pop_up_list@@YGPAUUI_OBJECT@@PBDPAU1@1HHUREAL_COLOUR@@@Z ; add_to_pop_up_list
$LN30@update_deb:

; 528  : 				}
; 529  : 			}

  0079c	e9 50 ff ff ff	 jmp	 $LN15@update_deb
$LN25@update_deb:

; 530  : 		}
; 531  : 	}
; 532  : 
; 533  : 	set_ui_object_drawable (page_back_button, get_campaign_history_valid ());

  007a1	e8 00 00 00 00	 call	 ?get_campaign_history_valid@@YGHXZ ; get_campaign_history_valid
  007a6	50		 push	 eax
  007a7	a1 00 00 00 00	 mov	 eax, DWORD PTR ?page_back_button@@3PAUUI_OBJECT@@A
  007ac	50		 push	 eax
  007ad	8b 0d 00 00 00
	00		 mov	 ecx, DWORD PTR ?page_back_button@@3PAUUI_OBJECT@@A
  007b3	8b 11		 mov	 edx, DWORD PTR [ecx]
  007b5	8b 04 95 00 00
	00 00		 mov	 eax, DWORD PTR ?fn_set_ui_object_drawable@@3PAP6GXPAUUI_OBJECT@@H@ZA[edx*4]
  007bc	ff d0		 call	 eax

; 534  : }

  007be	5f		 pop	 edi
  007bf	5e		 pop	 esi
  007c0	5b		 pop	 ebx
  007c1	8b e5		 mov	 esp, ebp
  007c3	5d		 pop	 ebp
  007c4	c2 08 00	 ret	 8
?update_debriefing_page_objects@@YGXPAUUI_OBJECT@@PAX@Z ENDP ; update_debriefing_page_objects
_TEXT	ENDS
; Function compile flags: /Odtp /ZI
; File c:\program files (x86)\microsoft visual studio\2017\community\vc\tools\msvc\14.16.27023\include\algorithm
;	COMDAT ??$max@M@std@@YGABMABM0@Z
_TEXT	SEGMENT
__Left$ = 8						; size = 4
__Right$ = 12						; size = 4
??$max@M@std@@YGABMABM0@Z PROC				; std::max<float>, COMDAT

; 5387 : 	{	// return larger of _Left and _Right

  00000	55		 push	 ebp
  00001	8b ec		 mov	 ebp, esp
  00003	83 ec 40	 sub	 esp, 64			; 00000040H
  00006	53		 push	 ebx
  00007	56		 push	 esi
  00008	57		 push	 edi

; 5388 : 	if (_Left < _Right)

  00009	8b 45 0c	 mov	 eax, DWORD PTR __Right$[ebp]
  0000c	8b 4d 08	 mov	 ecx, DWORD PTR __Left$[ebp]
  0000f	f3 0f 10 00	 movss	 xmm0, DWORD PTR [eax]
  00013	0f 2f 01	 comiss	 xmm0, DWORD PTR [ecx]
  00016	76 64		 jbe	 SHORT $LN8@max
$LN4@max:

; 5389 : 		{
; 5390 : 		_STL_ASSERT(!(_Right < _Left), "invalid comparator");

  00018	8b 45 08	 mov	 eax, DWORD PTR __Left$[ebp]
  0001b	8b 4d 0c	 mov	 ecx, DWORD PTR __Right$[ebp]
  0001e	f3 0f 10 00	 movss	 xmm0, DWORD PTR [eax]
  00022	0f 2f 01	 comiss	 xmm0, DWORD PTR [ecx]
  00025	77 02		 ja	 SHORT $LN9@max
  00027	eb 4a		 jmp	 SHORT $LN6@max
$LN9@max:
  00029	68 00 00 00 00	 push	 OFFSET ??_C@_0BD@FEEMDEPI@invalid?5comparator@
  0002e	68 00 00 00 00	 push	 OFFSET ??_C@_02DKCKIIND@?$CFs@
  00033	6a 00		 push	 0
  00035	68 0e 15 00 00	 push	 5390			; 0000150eH
  0003a	68 00 00 00 00	 push	 OFFSET ??_C@_0GK@JMBMHIBC@c?3?2program?5files?5?$CIx86?$CJ?2microsof@
  0003f	6a 02		 push	 2
  00041	ff 15 00 00 00
	00		 call	 DWORD PTR __imp___CrtDbgReport
  00047	83 c4 18	 add	 esp, 24			; 00000018H
  0004a	83 f8 01	 cmp	 eax, 1
  0004d	75 01		 jne	 SHORT $LN12@max
  0004f	cc		 int	 3
$LN12@max:
  00050	6a 00		 push	 0
  00052	68 0e 15 00 00	 push	 5390			; 0000150eH
  00057	68 00 00 00 00	 push	 OFFSET ??_C@_1NE@FKBPBJEB@?$AAc?$AA?3?$AA?2?$AAp?$AAr?$AAo?$AAg?$AAr?$AAa?$AAm?$AA?5?$AAf?$AAi?$AAl?$AAe@
  0005c	68 00 00 00 00	 push	 OFFSET ??_C@_1BC@ICCOKLEG@?$AAs?$AAt?$AAd?$AA?3?$AA?3?$AAm?$AAa?$AAx@
  00061	68 00 00 00 00	 push	 OFFSET ??_C@_1CK@NDNHPKPI@?$AA?$CC?$AAi?$AAn?$AAv?$AAa?$AAl?$AAi?$AAd?$AA?5?$AAc?$AAo?$AAm?$AAp?$AAa?$AAr@
  00066	ff 15 00 00 00
	00		 call	 DWORD PTR __imp___invalid_parameter
  0006c	83 c4 14	 add	 esp, 20			; 00000014H
  0006f	33 c0		 xor	 eax, eax
  00071	75 b6		 jne	 SHORT $LN9@max
$LN6@max:
  00073	33 c0		 xor	 eax, eax
  00075	75 a1		 jne	 SHORT $LN4@max

; 5391 : 		return (_Right);

  00077	8b 45 0c	 mov	 eax, DWORD PTR __Right$[ebp]
  0007a	eb 03		 jmp	 SHORT $LN1@max
$LN8@max:

; 5392 : 		}
; 5393 : 
; 5394 : 	return (_Left);

  0007c	8b 45 08	 mov	 eax, DWORD PTR __Left$[ebp]
$LN1@max:

; 5395 : 	}

  0007f	5f		 pop	 edi
  00080	5e		 pop	 esi
  00081	5b		 pop	 ebx
  00082	8b e5		 mov	 esp, ebp
  00084	5d		 pop	 ebp
  00085	c2 08 00	 ret	 8
??$max@M@std@@YGABMABM0@Z ENDP				; std::max<float>
_TEXT	ENDS
; Function compile flags: /Odtp /ZI
; File c:\program files (x86)\microsoft visual studio\2017\community\vc\tools\msvc\14.16.27023\include\algorithm
;	COMDAT ??$min@M@std@@YGABMABM0@Z
_TEXT	SEGMENT
__Left$ = 8						; size = 4
__Right$ = 12						; size = 4
??$min@M@std@@YGABMABM0@Z PROC				; std::min<float>, COMDAT

; 5427 : 	{	// return smaller of _Left and _Right

  00000	55		 push	 ebp
  00001	8b ec		 mov	 ebp, esp
  00003	83 ec 40	 sub	 esp, 64			; 00000040H
  00006	53		 push	 ebx
  00007	56		 push	 esi
  00008	57		 push	 edi

; 5428 : 	if (_Right < _Left)

  00009	8b 45 08	 mov	 eax, DWORD PTR __Left$[ebp]
  0000c	8b 4d 0c	 mov	 ecx, DWORD PTR __Right$[ebp]
  0000f	f3 0f 10 00	 movss	 xmm0, DWORD PTR [eax]
  00013	0f 2f 01	 comiss	 xmm0, DWORD PTR [ecx]
  00016	76 64		 jbe	 SHORT $LN8@min
$LN4@min:

; 5429 : 		{
; 5430 : 		_STL_ASSERT(!(_Left < _Right), "invalid comparator");

  00018	8b 45 0c	 mov	 eax, DWORD PTR __Right$[ebp]
  0001b	8b 4d 08	 mov	 ecx, DWORD PTR __Left$[ebp]
  0001e	f3 0f 10 00	 movss	 xmm0, DWORD PTR [eax]
  00022	0f 2f 01	 comiss	 xmm0, DWORD PTR [ecx]
  00025	77 02		 ja	 SHORT $LN9@min
  00027	eb 4a		 jmp	 SHORT $LN6@min
$LN9@min:
  00029	68 00 00 00 00	 push	 OFFSET ??_C@_0BD@FEEMDEPI@invalid?5comparator@
  0002e	68 00 00 00 00	 push	 OFFSET ??_C@_02DKCKIIND@?$CFs@
  00033	6a 00		 push	 0
  00035	68 36 15 00 00	 push	 5430			; 00001536H
  0003a	68 00 00 00 00	 push	 OFFSET ??_C@_0GK@JMBMHIBC@c?3?2program?5files?5?$CIx86?$CJ?2microsof@
  0003f	6a 02		 push	 2
  00041	ff 15 00 00 00
	00		 call	 DWORD PTR __imp___CrtDbgReport
  00047	83 c4 18	 add	 esp, 24			; 00000018H
  0004a	83 f8 01	 cmp	 eax, 1
  0004d	75 01		 jne	 SHORT $LN12@min
  0004f	cc		 int	 3
$LN12@min:
  00050	6a 00		 push	 0
  00052	68 36 15 00 00	 push	 5430			; 00001536H
  00057	68 00 00 00 00	 push	 OFFSET ??_C@_1NE@FKBPBJEB@?$AAc?$AA?3?$AA?2?$AAp?$AAr?$AAo?$AAg?$AAr?$AAa?$AAm?$AA?5?$AAf?$AAi?$AAl?$AAe@
  0005c	68 00 00 00 00	 push	 OFFSET ??_C@_1BC@BLAPCBGI@?$AAs?$AAt?$AAd?$AA?3?$AA?3?$AAm?$AAi?$AAn@
  00061	68 00 00 00 00	 push	 OFFSET ??_C@_1CK@NDNHPKPI@?$AA?$CC?$AAi?$AAn?$AAv?$AAa?$AAl?$AAi?$AAd?$AA?5?$AAc?$AAo?$AAm?$AAp?$AAa?$AAr@
  00066	ff 15 00 00 00
	00		 call	 DWORD PTR __imp___invalid_parameter
  0006c	83 c4 14	 add	 esp, 20			; 00000014H
  0006f	33 c0		 xor	 eax, eax
  00071	75 b6		 jne	 SHORT $LN9@min
$LN6@min:
  00073	33 c0		 xor	 eax, eax
  00075	75 a1		 jne	 SHORT $LN4@min

; 5431 : 		return (_Right);

  00077	8b 45 0c	 mov	 eax, DWORD PTR __Right$[ebp]
  0007a	eb 03		 jmp	 SHORT $LN1@min
$LN8@min:

; 5432 : 		}
; 5433 : 
; 5434 : 	return (_Left);

  0007c	8b 45 08	 mov	 eax, DWORD PTR __Left$[ebp]
$LN1@min:

; 5435 : 	}

  0007f	5f		 pop	 edi
  00080	5e		 pop	 esi
  00081	5b		 pop	 ebx
  00082	8b e5		 mov	 esp, ebp
  00084	5d		 pop	 ebp
  00085	c2 08 00	 ret	 8
??$min@M@std@@YGABMABM0@Z ENDP				; std::min<float>
_TEXT	ENDS
; Function compile flags: /Odtp /ZI
; File c:\users\nhv90\projects\eech\aphavoc\source\ui_menu\ingame\campaign\ca_dbf.c
;	COMDAT ?overload_debriefing_page_message_responses@@YGXXZ
_TEXT	SEGMENT
_target$ = -4						; size = 4
?overload_debriefing_page_message_responses@@YGXXZ PROC	; overload_debriefing_page_message_responses, COMDAT

; 932  : {

  00000	55		 push	 ebp
  00001	8b ec		 mov	 ebp, esp
  00003	83 ec 44	 sub	 esp, 68			; 00000044H
  00006	53		 push	 ebx
  00007	56		 push	 esi
  00008	57		 push	 edi

; 933  : 	campaign_screen_message_targets
; 934  : 		target;
; 935  : 
; 936  : 	target = CAMPAIGN_SCREEN_TARGET_DEBRIEFING_PAGE;

  00009	c7 45 fc 05 00
	00 00		 mov	 DWORD PTR _target$[ebp], 5

; 937  : 
; 938  : 	campaign_screen_message_responses [target][CAMPAIGN_SCREEN_MISSION_DESTROYED]	=	response_to_mission_destroyed;

  00010	6b 45 fc 38	 imul	 eax, DWORD PTR _target$[ebp], 56
  00014	b9 04 00 00 00	 mov	 ecx, 4
  00019	6b d1 03	 imul	 edx, ecx, 3
  0001c	c7 84 10 00 00
	00 00 00 00 00
	00		 mov	 DWORD PTR ?campaign_screen_message_responses@@3PAY0O@P6GHW4CAMPAIGN_SCREEN_MESSAGES@@PAUENTITY@@@ZA[eax+edx], OFFSET ?response_to_mission_destroyed@@YGHW4CAMPAIGN_SCREEN_MESSAGES@@PAUENTITY@@@Z ; response_to_mission_destroyed

; 939  : 
; 940  : 	campaign_screen_message_responses [target][CAMPAIGN_SCREEN_FORCE_UPDATE]		=	response_to_force_update;

  00027	6b 45 fc 38	 imul	 eax, DWORD PTR _target$[ebp], 56
  0002b	b9 04 00 00 00	 mov	 ecx, 4
  00030	6b d1 0d	 imul	 edx, ecx, 13
  00033	c7 84 10 00 00
	00 00 00 00 00
	00		 mov	 DWORD PTR ?campaign_screen_message_responses@@3PAY0O@P6GHW4CAMPAIGN_SCREEN_MESSAGES@@PAUENTITY@@@ZA[eax+edx], OFFSET ?response_to_force_update@@YGHW4CAMPAIGN_SCREEN_MESSAGES@@PAUENTITY@@@Z ; response_to_force_update

; 941  : }

  0003e	5f		 pop	 edi
  0003f	5e		 pop	 esi
  00040	5b		 pop	 ebx
  00041	8b e5		 mov	 esp, ebp
  00043	5d		 pop	 ebp
  00044	c3		 ret	 0
?overload_debriefing_page_message_responses@@YGXXZ ENDP	; overload_debriefing_page_message_responses
_TEXT	ENDS
; Function compile flags: /Odtp /ZI
; File c:\users\nhv90\projects\eech\aphavoc\source\ui_menu\ingame\campaign\ca_dbf.c
;	COMDAT ?define_campaign_screen_debriefing_page_objects@@YGXXZ
_TEXT	SEGMENT
_output$ = -168						; size = 128
_page$ = -40						; size = 4
_yinc$ = -36						; size = 4
_ysize$ = -32						; size = 4
_x_end$ = -28						; size = 4
_x_mid$ = -24						; size = 4
_x_start$ = -20						; size = 4
_y2$ = -16						; size = 4
_x2$ = -12						; size = 4
_y1$ = -8						; size = 4
_x1$ = -4						; size = 4
?define_campaign_screen_debriefing_page_objects@@YGXXZ PROC ; define_campaign_screen_debriefing_page_objects, COMDAT

; 557  : {

  00000	55		 push	 ebp
  00001	8b ec		 mov	 ebp, esp
  00003	81 ec e8 00 00
	00		 sub	 esp, 232		; 000000e8H
  00009	53		 push	 ebx
  0000a	56		 push	 esi
  0000b	57		 push	 edi

; 558  : 	float
; 559  : 		x1,
; 560  : 		y1,
; 561  : 		x2,
; 562  : 		y2,
; 563  : 		x_start,
; 564  : 		x_mid,
; 565  : 		x_end,
; 566  : 		ysize,
; 567  : 		yinc;
; 568  : 
; 569  : 	ui_object
; 570  : 		*page;
; 571  : 
; 572  : 	char
; 573  : 		output [128];
; 574  : 		
; 575  : 	/////////////////////////////////////////////////////////////////
; 576  : 	// Main Page Area
; 577  : 	/////////////////////////////////////////////////////////////////
; 578  : 
; 579  : 	x1 = CAMPAIGN_INSET_PAGE_X1;

  0000c	f3 0f 10 05 00
	00 00 00	 movss	 xmm0, DWORD PTR __real@3e6147ae
  00014	f3 0f 11 45 fc	 movss	 DWORD PTR _x1$[ebp], xmm0

; 580  : 	y1 = CAMPAIGN_INSET_PAGE_Y1;

  00019	f3 0f 10 05 00
	00 00 00	 movss	 xmm0, DWORD PTR __real@3d449ba6
  00021	f3 0f 11 45 f8	 movss	 DWORD PTR _y1$[ebp], xmm0

; 581  : 	x2 = CAMPAIGN_INSET_PAGE_X2;

  00026	f3 0f 10 05 00
	00 00 00	 movss	 xmm0, DWORD PTR __real@3f800000
  0002e	f3 0f 11 45 f4	 movss	 DWORD PTR _x2$[ebp], xmm0

; 582  : 	y2 = CAMPAIGN_INSET_PAGE_Y2;

  00033	f3 0f 10 05 00
	00 00 00	 movss	 xmm0, DWORD PTR __real@3f47ae14
  0003b	f3 0f 11 45 f0	 movss	 DWORD PTR _y2$[ebp], xmm0

; 583  : 
; 584  : 	campaign_page [CAMPAIGN_PAGE_DEBRIEFING] = create_ui_object

  00040	6a 11		 push	 17			; 00000011H
  00042	6a 01		 push	 1
  00044	6a 07		 push	 7
  00046	68 00 00 00 00	 push	 OFFSET ?update_debriefing_page_objects@@YGXPAUUI_OBJECT@@PAX@Z ; update_debriefing_page_objects
  0004b	6a 0f		 push	 15			; 0000000fH
  0004d	6a 00		 push	 0
  0004f	6a 10		 push	 16			; 00000010H
  00051	f3 0f 10 45 f0	 movss	 xmm0, DWORD PTR _y2$[ebp]
  00056	f3 0f 5c 45 f8	 subss	 xmm0, DWORD PTR _y1$[ebp]
  0005b	f3 0f 5a c0	 cvtss2sd xmm0, xmm0
  0005f	83 ec 08	 sub	 esp, 8
  00062	f2 0f 11 04 24	 movsd	 QWORD PTR [esp], xmm0
  00067	f3 0f 10 45 f4	 movss	 xmm0, DWORD PTR _x2$[ebp]
  0006c	f3 0f 5c 45 fc	 subss	 xmm0, DWORD PTR _x1$[ebp]
  00071	f3 0f 5a c0	 cvtss2sd xmm0, xmm0
  00075	83 ec 08	 sub	 esp, 8
  00078	f2 0f 11 04 24	 movsd	 QWORD PTR [esp], xmm0
  0007d	6a 59		 push	 89			; 00000059H
  0007f	f3 0f 5a 45 f8	 cvtss2sd xmm0, DWORD PTR _y1$[ebp]
  00084	83 ec 08	 sub	 esp, 8
  00087	f2 0f 11 04 24	 movsd	 QWORD PTR [esp], xmm0
  0008c	f3 0f 5a 45 fc	 cvtss2sd xmm0, DWORD PTR _x1$[ebp]
  00091	83 ec 08	 sub	 esp, 8
  00094	f2 0f 11 04 24	 movsd	 QWORD PTR [esp], xmm0
  00099	6a 58		 push	 88			; 00000058H
  0009b	6a 01		 push	 1
  0009d	6a 12		 push	 18			; 00000012H
  0009f	6a 03		 push	 3
  000a1	6a 4b		 push	 75			; 0000004bH
  000a3	a1 00 00 00 00	 mov	 eax, DWORD PTR ?campaign_screen@@3PAUUI_OBJECT@@A ; campaign_screen
  000a8	50		 push	 eax
  000a9	6a 32		 push	 50			; 00000032H
  000ab	6a 01		 push	 1
  000ad	e8 00 00 00 00	 call	 ?create_ui_object@@YAPAUUI_OBJECT@@HZZ ; create_ui_object
  000b2	83 c4 60	 add	 esp, 96			; 00000060H
  000b5	b9 04 00 00 00	 mov	 ecx, 4
  000ba	d1 e1		 shl	 ecx, 1
  000bc	89 81 00 00 00
	00		 mov	 DWORD PTR ?campaign_page@@3PAPAUUI_OBJECT@@A[ecx], eax

; 585  : 		(
; 586  : 			UI_TYPE_AREA,
; 587  : 			UI_ATTR_PARENT (campaign_screen),
; 588  : 			UI_ATTR_TEXT_JUSTIFY (TEXT_JUSTIFY_CENTRE_TOP),
; 589  : 			UI_ATTR_FONT_TYPE (UI_FONT_ARIAL_14),
; 590  : 			UI_ATTR_VIRTUAL_POSITION (x1, y1),
; 591  : 			UI_ATTR_VIRTUAL_SIZE (x2 - x1, y2 - y1),
; 592  : 			UI_ATTR_DRAWABLE (FALSE),
; 593  : 			UI_ATTR_DRAW_FUNCTION (update_debriefing_page_objects),
; 594  : 			UI_ATTR_CLEAR (TRUE),
; 595  : 			UI_ATTR_END
; 596  : 		);
; 597  : 
; 598  : 	page = campaign_page [CAMPAIGN_PAGE_DEBRIEFING];

  000c2	b8 04 00 00 00	 mov	 eax, 4
  000c7	d1 e0		 shl	 eax, 1
  000c9	8b 88 00 00 00
	00		 mov	 ecx, DWORD PTR ?campaign_page@@3PAPAUUI_OBJECT@@A[eax]
  000cf	89 4d d8	 mov	 DWORD PTR _page$[ebp], ecx

; 599  : 
; 600  : 	/////////////////////////////////////////////////////////////////
; 601  : 	// Title
; 602  : 			
; 603  : 	x1 = 0.045;

  000d2	f3 0f 10 05 00
	00 00 00	 movss	 xmm0, DWORD PTR __real@3d3851ec
  000da	f3 0f 11 45 fc	 movss	 DWORD PTR _x1$[ebp], xmm0

; 604  : 	y1 = 0.053;

  000df	f3 0f 10 05 00
	00 00 00	 movss	 xmm0, DWORD PTR __real@3d591687
  000e7	f3 0f 11 45 f8	 movss	 DWORD PTR _y1$[ebp], xmm0

; 605  : 
; 606  : 	x2 = 0.45;

  000ec	f3 0f 10 05 00
	00 00 00	 movss	 xmm0, DWORD PTR __real@3ee66666
  000f4	f3 0f 11 45 f4	 movss	 DWORD PTR _x2$[ebp], xmm0

; 607  : 	y2 = 0.085;

  000f9	f3 0f 10 05 00
	00 00 00	 movss	 xmm0, DWORD PTR __real@3dae147b
  00101	f3 0f 11 45 f0	 movss	 DWORD PTR _y2$[ebp], xmm0

; 608  : 
; 609  : 	debriefing_page_title = create_ui_object

  00106	6a 11		 push	 17			; 00000011H
  00108	6a 01		 push	 1
  0010a	6a 07		 push	 7
  0010c	0f b6 05 03 00
	00 00		 movzx	 eax, BYTE PTR ?ui_ingame_dead_text_colour@@3UREAL_COLOUR@@A+3
  00113	50		 push	 eax
  00114	0f b6 0d 00 00
	00 00		 movzx	 ecx, BYTE PTR ?ui_ingame_dead_text_colour@@3UREAL_COLOUR@@A
  0011b	51		 push	 ecx
  0011c	0f b6 15 01 00
	00 00		 movzx	 edx, BYTE PTR ?ui_ingame_dead_text_colour@@3UREAL_COLOUR@@A+1
  00123	52		 push	 edx
  00124	0f b6 05 02 00
	00 00		 movzx	 eax, BYTE PTR ?ui_ingame_dead_text_colour@@3UREAL_COLOUR@@A+2
  0012b	50		 push	 eax
  0012c	6a 13		 push	 19			; 00000013H
  0012e	6a 05		 push	 5
  00130	6a 12		 push	 18			; 00000012H
  00132	6a 01		 push	 1
  00134	6a 4b		 push	 75			; 0000004bH
  00136	f3 0f 10 45 f0	 movss	 xmm0, DWORD PTR _y2$[ebp]
  0013b	f3 0f 5c 45 f8	 subss	 xmm0, DWORD PTR _y1$[ebp]
  00140	f3 0f 5a c0	 cvtss2sd xmm0, xmm0
  00144	83 ec 08	 sub	 esp, 8
  00147	f2 0f 11 04 24	 movsd	 QWORD PTR [esp], xmm0
  0014c	f3 0f 10 45 f4	 movss	 xmm0, DWORD PTR _x2$[ebp]
  00151	f3 0f 5c 45 fc	 subss	 xmm0, DWORD PTR _x1$[ebp]
  00156	f3 0f 5a c0	 cvtss2sd xmm0, xmm0
  0015a	83 ec 08	 sub	 esp, 8
  0015d	f2 0f 11 04 24	 movsd	 QWORD PTR [esp], xmm0
  00162	6a 59		 push	 89			; 00000059H
  00164	f3 0f 5a 45 f8	 cvtss2sd xmm0, DWORD PTR _y1$[ebp]
  00169	83 ec 08	 sub	 esp, 8
  0016c	f2 0f 11 04 24	 movsd	 QWORD PTR [esp], xmm0
  00171	f3 0f 5a 45 fc	 cvtss2sd xmm0, DWORD PTR _x1$[ebp]
  00176	83 ec 08	 sub	 esp, 8
  00179	f2 0f 11 04 24	 movsd	 QWORD PTR [esp], xmm0
  0017e	6a 58		 push	 88			; 00000058H
  00180	8b 4d d8	 mov	 ecx, DWORD PTR _page$[ebp]
  00183	51		 push	 ecx
  00184	6a 32		 push	 50			; 00000032H
  00186	6a 01		 push	 1
  00188	e8 00 00 00 00	 call	 ?create_ui_object@@YAPAUUI_OBJECT@@HZZ ; create_ui_object
  0018d	83 c4 64	 add	 esp, 100		; 00000064H
  00190	a3 00 00 00 00	 mov	 DWORD PTR ?debriefing_page_title@@3PAUUI_OBJECT@@A, eax

; 610  : 		(
; 611  : 			UI_TYPE_AREA,
; 612  : 			UI_ATTR_PARENT (page),
; 613  : 			UI_ATTR_VIRTUAL_POSITION (x1, y1),
; 614  : 			UI_ATTR_VIRTUAL_SIZE (x2 - x1, y2 - y1),
; 615  : 			UI_ATTR_TEXT_JUSTIFY (TEXT_JUSTIFY_LEFT_CENTRE),
; 616  : 			UI_ATTR_FONT_TYPE (UI_FONT_ARIAL_18),
; 617  : 			UI_ATTR_FONT_COLOUR (ui_ingame_dead_text_colour.r, ui_ingame_dead_text_colour.g, ui_ingame_dead_text_colour.b, ui_ingame_dead_text_colour.a),
; 618  : 			UI_ATTR_CLEAR (TRUE),
; 619  : 			UI_ATTR_END
; 620  : 		);
; 621  : 
; 622  : 	x1 = 0.045;

  00195	f3 0f 10 05 00
	00 00 00	 movss	 xmm0, DWORD PTR __real@3d3851ec
  0019d	f3 0f 11 45 fc	 movss	 DWORD PTR _x1$[ebp], xmm0

; 623  : 	y1 = 0.092;

  001a2	f3 0f 10 05 00
	00 00 00	 movss	 xmm0, DWORD PTR __real@3dbc6a7f
  001aa	f3 0f 11 45 f8	 movss	 DWORD PTR _y1$[ebp], xmm0

; 624  : 	x2 = 0.45;

  001af	f3 0f 10 05 00
	00 00 00	 movss	 xmm0, DWORD PTR __real@3ee66666
  001b7	f3 0f 11 45 f4	 movss	 DWORD PTR _x2$[ebp], xmm0

; 625  : 	y2 = 0.136;

  001bc	f3 0f 10 05 00
	00 00 00	 movss	 xmm0, DWORD PTR __real@3e0b4396
  001c4	f3 0f 11 45 f0	 movss	 DWORD PTR _y2$[ebp], xmm0

; 626  : 
; 627  : 	debriefing_page_type = create_ui_object

  001c9	6a 11		 push	 17			; 00000011H
  001cb	6a 01		 push	 1
  001cd	6a 07		 push	 7
  001cf	0f b6 05 03 00
	00 00		 movzx	 eax, BYTE PTR ?ui_ingame_dead_text_colour@@3UREAL_COLOUR@@A+3
  001d6	50		 push	 eax
  001d7	0f b6 0d 00 00
	00 00		 movzx	 ecx, BYTE PTR ?ui_ingame_dead_text_colour@@3UREAL_COLOUR@@A
  001de	51		 push	 ecx
  001df	0f b6 15 01 00
	00 00		 movzx	 edx, BYTE PTR ?ui_ingame_dead_text_colour@@3UREAL_COLOUR@@A+1
  001e6	52		 push	 edx
  001e7	0f b6 05 02 00
	00 00		 movzx	 eax, BYTE PTR ?ui_ingame_dead_text_colour@@3UREAL_COLOUR@@A+2
  001ee	50		 push	 eax
  001ef	6a 13		 push	 19			; 00000013H
  001f1	6a 03		 push	 3
  001f3	6a 12		 push	 18			; 00000012H
  001f5	6a 01		 push	 1
  001f7	6a 4b		 push	 75			; 0000004bH
  001f9	f3 0f 10 45 f0	 movss	 xmm0, DWORD PTR _y2$[ebp]
  001fe	f3 0f 5c 45 f8	 subss	 xmm0, DWORD PTR _y1$[ebp]
  00203	f3 0f 5a c0	 cvtss2sd xmm0, xmm0
  00207	83 ec 08	 sub	 esp, 8
  0020a	f2 0f 11 04 24	 movsd	 QWORD PTR [esp], xmm0
  0020f	f3 0f 10 45 f4	 movss	 xmm0, DWORD PTR _x2$[ebp]
  00214	f3 0f 5c 45 fc	 subss	 xmm0, DWORD PTR _x1$[ebp]
  00219	f3 0f 5a c0	 cvtss2sd xmm0, xmm0
  0021d	83 ec 08	 sub	 esp, 8
  00220	f2 0f 11 04 24	 movsd	 QWORD PTR [esp], xmm0
  00225	6a 59		 push	 89			; 00000059H
  00227	f3 0f 5a 45 f8	 cvtss2sd xmm0, DWORD PTR _y1$[ebp]
  0022c	83 ec 08	 sub	 esp, 8
  0022f	f2 0f 11 04 24	 movsd	 QWORD PTR [esp], xmm0
  00234	f3 0f 5a 45 fc	 cvtss2sd xmm0, DWORD PTR _x1$[ebp]
  00239	83 ec 08	 sub	 esp, 8
  0023c	f2 0f 11 04 24	 movsd	 QWORD PTR [esp], xmm0
  00241	6a 58		 push	 88			; 00000058H
  00243	8b 4d d8	 mov	 ecx, DWORD PTR _page$[ebp]
  00246	51		 push	 ecx
  00247	6a 32		 push	 50			; 00000032H
  00249	6a 01		 push	 1
  0024b	e8 00 00 00 00	 call	 ?create_ui_object@@YAPAUUI_OBJECT@@HZZ ; create_ui_object
  00250	83 c4 64	 add	 esp, 100		; 00000064H
  00253	a3 00 00 00 00	 mov	 DWORD PTR ?debriefing_page_type@@3PAUUI_OBJECT@@A, eax

; 628  : 		(
; 629  : 			UI_TYPE_AREA,
; 630  : 			UI_ATTR_PARENT (page),
; 631  : 			UI_ATTR_VIRTUAL_POSITION (x1, y1),
; 632  : 			UI_ATTR_VIRTUAL_SIZE (x2 - x1, y2 - y1),
; 633  : 			UI_ATTR_TEXT_JUSTIFY (TEXT_JUSTIFY_LEFT_CENTRE),
; 634  : 			UI_ATTR_FONT_TYPE (UI_FONT_ARIAL_16),
; 635  : 			UI_ATTR_FONT_COLOUR (ui_ingame_dead_text_colour.r, ui_ingame_dead_text_colour.g, ui_ingame_dead_text_colour.b, ui_ingame_dead_text_colour.a),
; 636  : 			UI_ATTR_CLEAR (TRUE),
; 637  : 			UI_ATTR_END
; 638  : 		);
; 639  : 
; 640  : 	/////////////////////////////////////////////////////////////////
; 641  : 
; 642  : 	x_start = 0.045;

  00258	f3 0f 10 05 00
	00 00 00	 movss	 xmm0, DWORD PTR __real@3d3851ec
  00260	f3 0f 11 45 ec	 movss	 DWORD PTR _x_start$[ebp], xmm0

; 643  : 
; 644  : 	x_mid = 0.224;

  00265	f3 0f 10 05 00
	00 00 00	 movss	 xmm0, DWORD PTR __real@3e656042
  0026d	f3 0f 11 45 e8	 movss	 DWORD PTR _x_mid$[ebp], xmm0

; 645  : 
; 646  : 	x_end = 0.464;

  00272	f3 0f 10 05 00
	00 00 00	 movss	 xmm0, DWORD PTR __real@3eed9168
  0027a	f3 0f 11 45 e4	 movss	 DWORD PTR _x_end$[ebp], xmm0

; 647  : 	
; 648  : 	ysize = 0.04;

  0027f	f3 0f 10 05 00
	00 00 00	 movss	 xmm0, DWORD PTR __real@3d23d70a
  00287	f3 0f 11 45 e0	 movss	 DWORD PTR _ysize$[ebp], xmm0

; 649  : 
; 650  : 	yinc = 0.05;

  0028c	f3 0f 10 05 00
	00 00 00	 movss	 xmm0, DWORD PTR __real@3d4ccccd
  00294	f3 0f 11 45 dc	 movss	 DWORD PTR _yinc$[ebp], xmm0

; 651  : 
; 652  : 	/////////////////////////////////////////////////////////////////
; 653  : 	// Task Result Box
; 654  : 
; 655  : 	x1 = x_start;

  00299	f3 0f 10 45 ec	 movss	 xmm0, DWORD PTR _x_start$[ebp]
  0029e	f3 0f 11 45 fc	 movss	 DWORD PTR _x1$[ebp], xmm0

; 656  : 	y1 = 0.158;

  002a3	f3 0f 10 05 00
	00 00 00	 movss	 xmm0, DWORD PTR __real@3e21cac1
  002ab	f3 0f 11 45 f8	 movss	 DWORD PTR _y1$[ebp], xmm0

; 657  : 	x2 = x_mid;

  002b0	f3 0f 10 45 e8	 movss	 xmm0, DWORD PTR _x_mid$[ebp]
  002b5	f3 0f 11 45 f4	 movss	 DWORD PTR _x2$[ebp], xmm0

; 658  : 	y2 = y1 + ysize;

  002ba	f3 0f 10 45 f8	 movss	 xmm0, DWORD PTR _y1$[ebp]
  002bf	f3 0f 58 45 e0	 addss	 xmm0, DWORD PTR _ysize$[ebp]
  002c4	f3 0f 11 45 f0	 movss	 DWORD PTR _y2$[ebp], xmm0

; 659  : 
; 660  : 	sprintf (output, "%s :", get_trans ("Result"));

  002c9	68 00 00 00 00	 push	 OFFSET ??_C@_06GGONACPB@Result@
  002ce	e8 00 00 00 00	 call	 ?get_trans@@YGPBDPBD@Z	; get_trans
  002d3	50		 push	 eax
  002d4	68 00 00 00 00	 push	 OFFSET ??_C@_04FEJCDPHN@?$CFs?5?3@
  002d9	8d 85 58 ff ff
	ff		 lea	 eax, DWORD PTR _output$[ebp]
  002df	50		 push	 eax
  002e0	e8 00 00 00 00	 call	 _sprintf
  002e5	83 c4 0c	 add	 esp, 12			; 0000000cH

; 661  : 			
; 662  : 	debriefing_page_result_box = create_ui_object

  002e8	6a 11		 push	 17			; 00000011H
  002ea	6a 01		 push	 1
  002ec	6a 07		 push	 7
  002ee	0f b6 05 03 00
	00 00		 movzx	 eax, BYTE PTR ?ui_ingame_dead_text_colour@@3UREAL_COLOUR@@A+3
  002f5	50		 push	 eax
  002f6	0f b6 0d 00 00
	00 00		 movzx	 ecx, BYTE PTR ?ui_ingame_dead_text_colour@@3UREAL_COLOUR@@A
  002fd	51		 push	 ecx
  002fe	0f b6 15 01 00
	00 00		 movzx	 edx, BYTE PTR ?ui_ingame_dead_text_colour@@3UREAL_COLOUR@@A+1
  00305	52		 push	 edx
  00306	0f b6 05 02 00
	00 00		 movzx	 eax, BYTE PTR ?ui_ingame_dead_text_colour@@3UREAL_COLOUR@@A+2
  0030d	50		 push	 eax
  0030e	6a 13		 push	 19			; 00000013H
  00310	6a 01		 push	 1
  00312	6a 12		 push	 18			; 00000012H
  00314	6a 01		 push	 1
  00316	6a 4b		 push	 75			; 0000004bH
  00318	8d 8d 58 ff ff
	ff		 lea	 ecx, DWORD PTR _output$[ebp]
  0031e	51		 push	 ecx
  0031f	6a 4a		 push	 74			; 0000004aH
  00321	f3 0f 10 45 f0	 movss	 xmm0, DWORD PTR _y2$[ebp]
  00326	f3 0f 5c 45 f8	 subss	 xmm0, DWORD PTR _y1$[ebp]
  0032b	f3 0f 5a c0	 cvtss2sd xmm0, xmm0
  0032f	83 ec 08	 sub	 esp, 8
  00332	f2 0f 11 04 24	 movsd	 QWORD PTR [esp], xmm0
  00337	f3 0f 10 45 f4	 movss	 xmm0, DWORD PTR _x2$[ebp]
  0033c	f3 0f 5c 45 fc	 subss	 xmm0, DWORD PTR _x1$[ebp]
  00341	f3 0f 5a c0	 cvtss2sd xmm0, xmm0
  00345	83 ec 08	 sub	 esp, 8
  00348	f2 0f 11 04 24	 movsd	 QWORD PTR [esp], xmm0
  0034d	6a 59		 push	 89			; 00000059H
  0034f	f3 0f 5a 45 f8	 cvtss2sd xmm0, DWORD PTR _y1$[ebp]
  00354	83 ec 08	 sub	 esp, 8
  00357	f2 0f 11 04 24	 movsd	 QWORD PTR [esp], xmm0
  0035c	f3 0f 5a 45 fc	 cvtss2sd xmm0, DWORD PTR _x1$[ebp]
  00361	83 ec 08	 sub	 esp, 8
  00364	f2 0f 11 04 24	 movsd	 QWORD PTR [esp], xmm0
  00369	6a 58		 push	 88			; 00000058H
  0036b	8b 55 d8	 mov	 edx, DWORD PTR _page$[ebp]
  0036e	52		 push	 edx
  0036f	6a 32		 push	 50			; 00000032H
  00371	6a 01		 push	 1
  00373	e8 00 00 00 00	 call	 ?create_ui_object@@YAPAUUI_OBJECT@@HZZ ; create_ui_object
  00378	83 c4 6c	 add	 esp, 108		; 0000006cH
  0037b	a3 00 00 00 00	 mov	 DWORD PTR ?debriefing_page_result_box@@3PAUUI_OBJECT@@A, eax

; 663  : 			(
; 664  : 				UI_TYPE_AREA,
; 665  : 				UI_ATTR_PARENT (page),
; 666  : 				UI_ATTR_VIRTUAL_POSITION (x1, y1),
; 667  : 				UI_ATTR_VIRTUAL_SIZE (x2 - x1, y2 - y1),
; 668  : 				UI_ATTR_TEXT (output),
; 669  : 				UI_ATTR_TEXT_JUSTIFY (TEXT_JUSTIFY_LEFT_CENTRE),
; 670  : 				UI_ATTR_FONT_TYPE (UI_FONT_ARIAL_14),
; 671  : 				UI_ATTR_FONT_COLOUR (ui_ingame_dead_text_colour.r, ui_ingame_dead_text_colour.g, ui_ingame_dead_text_colour.b, ui_ingame_dead_text_colour.a),
; 672  : 				UI_ATTR_CLEAR (TRUE),
; 673  : 				UI_ATTR_END
; 674  : 			);
; 675  : 
; 676  : 	/////////////////////////////////////////////////////////////////
; 677  : 	// Task Points Awarded Box
; 678  : 
; 679  : 	#ifdef DEBUG
; 680  : 	
; 681  : 	x1 = x_start;

  00380	f3 0f 10 45 ec	 movss	 xmm0, DWORD PTR _x_start$[ebp]
  00385	f3 0f 11 45 fc	 movss	 DWORD PTR _x1$[ebp], xmm0

; 682  : 	x2 = x_mid;

  0038a	f3 0f 10 45 e8	 movss	 xmm0, DWORD PTR _x_mid$[ebp]
  0038f	f3 0f 11 45 f4	 movss	 DWORD PTR _x2$[ebp], xmm0

; 683  : 
; 684  : 	y1 += yinc;

  00394	f3 0f 10 45 f8	 movss	 xmm0, DWORD PTR _y1$[ebp]
  00399	f3 0f 58 45 dc	 addss	 xmm0, DWORD PTR _yinc$[ebp]
  0039e	f3 0f 11 45 f8	 movss	 DWORD PTR _y1$[ebp], xmm0

; 685  : 	y2 = y1 + ysize;

  003a3	f3 0f 10 45 f8	 movss	 xmm0, DWORD PTR _y1$[ebp]
  003a8	f3 0f 58 45 e0	 addss	 xmm0, DWORD PTR _ysize$[ebp]
  003ad	f3 0f 11 45 f0	 movss	 DWORD PTR _y2$[ebp], xmm0

; 686  : 
; 687  : 	sprintf (output, "%s :", get_trans ("Score"));

  003b2	68 00 00 00 00	 push	 OFFSET ??_C@_05DGAPONBB@Score@
  003b7	e8 00 00 00 00	 call	 ?get_trans@@YGPBDPBD@Z	; get_trans
  003bc	50		 push	 eax
  003bd	68 00 00 00 00	 push	 OFFSET ??_C@_04FEJCDPHN@?$CFs?5?3@
  003c2	8d 85 58 ff ff
	ff		 lea	 eax, DWORD PTR _output$[ebp]
  003c8	50		 push	 eax
  003c9	e8 00 00 00 00	 call	 _sprintf
  003ce	83 c4 0c	 add	 esp, 12			; 0000000cH

; 688  : 			
; 689  : 	create_ui_object

  003d1	6a 11		 push	 17			; 00000011H
  003d3	6a 01		 push	 1
  003d5	6a 07		 push	 7
  003d7	0f b6 05 03 00
	00 00		 movzx	 eax, BYTE PTR ?ui_ingame_dead_text_colour@@3UREAL_COLOUR@@A+3
  003de	50		 push	 eax
  003df	0f b6 0d 00 00
	00 00		 movzx	 ecx, BYTE PTR ?ui_ingame_dead_text_colour@@3UREAL_COLOUR@@A
  003e6	51		 push	 ecx
  003e7	0f b6 15 01 00
	00 00		 movzx	 edx, BYTE PTR ?ui_ingame_dead_text_colour@@3UREAL_COLOUR@@A+1
  003ee	52		 push	 edx
  003ef	0f b6 05 02 00
	00 00		 movzx	 eax, BYTE PTR ?ui_ingame_dead_text_colour@@3UREAL_COLOUR@@A+2
  003f6	50		 push	 eax
  003f7	6a 13		 push	 19			; 00000013H
  003f9	6a 01		 push	 1
  003fb	6a 12		 push	 18			; 00000012H
  003fd	6a 02		 push	 2
  003ff	6a 4b		 push	 75			; 0000004bH
  00401	8d 8d 58 ff ff
	ff		 lea	 ecx, DWORD PTR _output$[ebp]
  00407	51		 push	 ecx
  00408	6a 4a		 push	 74			; 0000004aH
  0040a	f3 0f 10 45 f0	 movss	 xmm0, DWORD PTR _y2$[ebp]
  0040f	f3 0f 5c 45 f8	 subss	 xmm0, DWORD PTR _y1$[ebp]
  00414	f3 0f 5a c0	 cvtss2sd xmm0, xmm0
  00418	83 ec 08	 sub	 esp, 8
  0041b	f2 0f 11 04 24	 movsd	 QWORD PTR [esp], xmm0
  00420	f3 0f 10 45 f4	 movss	 xmm0, DWORD PTR _x2$[ebp]
  00425	f3 0f 5c 45 fc	 subss	 xmm0, DWORD PTR _x1$[ebp]
  0042a	f3 0f 5a c0	 cvtss2sd xmm0, xmm0
  0042e	83 ec 08	 sub	 esp, 8
  00431	f2 0f 11 04 24	 movsd	 QWORD PTR [esp], xmm0
  00436	6a 59		 push	 89			; 00000059H
  00438	f3 0f 5a 45 f8	 cvtss2sd xmm0, DWORD PTR _y1$[ebp]
  0043d	83 ec 08	 sub	 esp, 8
  00440	f2 0f 11 04 24	 movsd	 QWORD PTR [esp], xmm0
  00445	f3 0f 5a 45 fc	 cvtss2sd xmm0, DWORD PTR _x1$[ebp]
  0044a	83 ec 08	 sub	 esp, 8
  0044d	f2 0f 11 04 24	 movsd	 QWORD PTR [esp], xmm0
  00452	6a 58		 push	 88			; 00000058H
  00454	8b 55 d8	 mov	 edx, DWORD PTR _page$[ebp]
  00457	52		 push	 edx
  00458	6a 32		 push	 50			; 00000032H
  0045a	6a 01		 push	 1
  0045c	e8 00 00 00 00	 call	 ?create_ui_object@@YAPAUUI_OBJECT@@HZZ ; create_ui_object
  00461	83 c4 6c	 add	 esp, 108		; 0000006cH

; 690  : 			(
; 691  : 				UI_TYPE_AREA,
; 692  : 				UI_ATTR_PARENT (page),
; 693  : 				UI_ATTR_VIRTUAL_POSITION (x1, y1),
; 694  : 				UI_ATTR_VIRTUAL_SIZE (x2 - x1, y2 - y1),
; 695  : 				UI_ATTR_TEXT (output),
; 696  : 				UI_ATTR_TEXT_JUSTIFY (TEXT_JUSTIFY_RIGHT_CENTRE),
; 697  : 				UI_ATTR_FONT_TYPE (UI_FONT_ARIAL_14),
; 698  : 				UI_ATTR_FONT_COLOUR (ui_ingame_dead_text_colour.r, ui_ingame_dead_text_colour.g, ui_ingame_dead_text_colour.b, ui_ingame_dead_text_colour.a),
; 699  : 				UI_ATTR_CLEAR (TRUE),
; 700  : 				UI_ATTR_END
; 701  : 			);
; 702  : 
; 703  : 	x1 = x_mid;

  00464	f3 0f 10 45 e8	 movss	 xmm0, DWORD PTR _x_mid$[ebp]
  00469	f3 0f 11 45 fc	 movss	 DWORD PTR _x1$[ebp], xmm0

; 704  : 	x2 = x_end;

  0046e	f3 0f 10 45 e4	 movss	 xmm0, DWORD PTR _x_end$[ebp]
  00473	f3 0f 11 45 f4	 movss	 DWORD PTR _x2$[ebp], xmm0

; 705  : 
; 706  : 	debriefing_page_points_box = create_ui_object

  00478	6a 11		 push	 17			; 00000011H
  0047a	6a 01		 push	 1
  0047c	6a 07		 push	 7
  0047e	0f b6 05 03 00
	00 00		 movzx	 eax, BYTE PTR ?ui_ingame_dead_text_colour@@3UREAL_COLOUR@@A+3
  00485	50		 push	 eax
  00486	0f b6 0d 00 00
	00 00		 movzx	 ecx, BYTE PTR ?ui_ingame_dead_text_colour@@3UREAL_COLOUR@@A
  0048d	51		 push	 ecx
  0048e	0f b6 15 01 00
	00 00		 movzx	 edx, BYTE PTR ?ui_ingame_dead_text_colour@@3UREAL_COLOUR@@A+1
  00495	52		 push	 edx
  00496	0f b6 05 02 00
	00 00		 movzx	 eax, BYTE PTR ?ui_ingame_dead_text_colour@@3UREAL_COLOUR@@A+2
  0049d	50		 push	 eax
  0049e	6a 13		 push	 19			; 00000013H
  004a0	6a 00		 push	 0
  004a2	6a 12		 push	 18			; 00000012H
  004a4	6a 01		 push	 1
  004a6	6a 4b		 push	 75			; 0000004bH
  004a8	68 00 00 00 00	 push	 OFFSET ??_C@_00CNPNBAHC@@
  004ad	6a 4a		 push	 74			; 0000004aH
  004af	f3 0f 10 45 f0	 movss	 xmm0, DWORD PTR _y2$[ebp]
  004b4	f3 0f 5c 45 f8	 subss	 xmm0, DWORD PTR _y1$[ebp]
  004b9	f3 0f 5a c0	 cvtss2sd xmm0, xmm0
  004bd	83 ec 08	 sub	 esp, 8
  004c0	f2 0f 11 04 24	 movsd	 QWORD PTR [esp], xmm0
  004c5	f3 0f 10 45 f4	 movss	 xmm0, DWORD PTR _x2$[ebp]
  004ca	f3 0f 5c 45 fc	 subss	 xmm0, DWORD PTR _x1$[ebp]
  004cf	f3 0f 5a c0	 cvtss2sd xmm0, xmm0
  004d3	83 ec 08	 sub	 esp, 8
  004d6	f2 0f 11 04 24	 movsd	 QWORD PTR [esp], xmm0
  004db	6a 59		 push	 89			; 00000059H
  004dd	f3 0f 5a 45 f8	 cvtss2sd xmm0, DWORD PTR _y1$[ebp]
  004e2	83 ec 08	 sub	 esp, 8
  004e5	f2 0f 11 04 24	 movsd	 QWORD PTR [esp], xmm0
  004ea	f3 0f 5a 45 fc	 cvtss2sd xmm0, DWORD PTR _x1$[ebp]
  004ef	83 ec 08	 sub	 esp, 8
  004f2	f2 0f 11 04 24	 movsd	 QWORD PTR [esp], xmm0
  004f7	6a 58		 push	 88			; 00000058H
  004f9	8b 4d d8	 mov	 ecx, DWORD PTR _page$[ebp]
  004fc	51		 push	 ecx
  004fd	6a 32		 push	 50			; 00000032H
  004ff	6a 01		 push	 1
  00501	e8 00 00 00 00	 call	 ?create_ui_object@@YAPAUUI_OBJECT@@HZZ ; create_ui_object
  00506	83 c4 6c	 add	 esp, 108		; 0000006cH
  00509	a3 00 00 00 00	 mov	 DWORD PTR ?debriefing_page_points_box@@3PAUUI_OBJECT@@A, eax

; 707  : 			(
; 708  : 				UI_TYPE_AREA,
; 709  : 				UI_ATTR_PARENT (page),
; 710  : 				UI_ATTR_VIRTUAL_POSITION (x1, y1),
; 711  : 				UI_ATTR_VIRTUAL_SIZE (x2 - x1, y2 - y1),
; 712  : 				UI_ATTR_TEXT (""),
; 713  : 				UI_ATTR_TEXT_JUSTIFY (TEXT_JUSTIFY_LEFT_CENTRE),
; 714  : 				UI_ATTR_FONT_TYPE (UI_FONT_ARIAL_10),
; 715  : 				UI_ATTR_FONT_COLOUR (ui_ingame_dead_text_colour.r, ui_ingame_dead_text_colour.g, ui_ingame_dead_text_colour.b, ui_ingame_dead_text_colour.a),
; 716  : 				UI_ATTR_CLEAR (TRUE),
; 717  : 				UI_ATTR_END
; 718  : 			);
; 719  : 
; 720  : 	#endif
; 721  : 
; 722  : 	/////////////////////////////////////////////////////////////////
; 723  : 	// Task Kills box
; 724  : 
; 725  : 	x1 = 0.050;

  0050e	f3 0f 10 05 00
	00 00 00	 movss	 xmm0, DWORD PTR __real@3d4ccccd
  00516	f3 0f 11 45 fc	 movss	 DWORD PTR _x1$[ebp], xmm0

; 726  : 	x2 = 0.474;

  0051b	f3 0f 10 05 00
	00 00 00	 movss	 xmm0, DWORD PTR __real@3ef2b021
  00523	f3 0f 11 45 f4	 movss	 DWORD PTR _x2$[ebp], xmm0

; 727  : 
; 728  : 	y1 = 0.206;

  00528	f3 0f 10 05 00
	00 00 00	 movss	 xmm0, DWORD PTR __real@3e52f1aa
  00530	f3 0f 11 45 f8	 movss	 DWORD PTR _y1$[ebp], xmm0

; 729  : 	y2 = 0.620;

  00535	f3 0f 10 05 00
	00 00 00	 movss	 xmm0, DWORD PTR __real@3f1eb852
  0053d	f3 0f 11 45 f0	 movss	 DWORD PTR _y2$[ebp], xmm0

; 730  : 
; 731  : 	debriefing_page_kills_area = create_ui_object

  00542	6a 11		 push	 17			; 00000011H
  00544	6a 01		 push	 1
  00546	6a 07		 push	 7
  00548	83 ec 08	 sub	 esp, 8
  0054b	f2 0f 10 05 00
	00 00 00	 movsd	 xmm0, QWORD PTR __real@4024000000000000
  00553	f2 0f 11 04 24	 movsd	 QWORD PTR [esp], xmm0
  00558	83 ec 08	 sub	 esp, 8
  0055b	0f 57 c0	 xorps	 xmm0, xmm0
  0055e	f2 0f 11 04 24	 movsd	 QWORD PTR [esp], xmm0
  00563	83 ec 08	 sub	 esp, 8
  00566	0f 57 c0	 xorps	 xmm0, xmm0
  00569	f2 0f 11 04 24	 movsd	 QWORD PTR [esp], xmm0
  0056e	6a 5a		 push	 90			; 0000005aH
  00570	0f b6 05 03 00
	00 00		 movzx	 eax, BYTE PTR ?ui_ingame_dead_text_colour@@3UREAL_COLOUR@@A+3
  00577	50		 push	 eax
  00578	0f b6 0d 00 00
	00 00		 movzx	 ecx, BYTE PTR ?ui_ingame_dead_text_colour@@3UREAL_COLOUR@@A
  0057f	51		 push	 ecx
  00580	0f b6 15 01 00
	00 00		 movzx	 edx, BYTE PTR ?ui_ingame_dead_text_colour@@3UREAL_COLOUR@@A+1
  00587	52		 push	 edx
  00588	0f b6 05 02 00
	00 00		 movzx	 eax, BYTE PTR ?ui_ingame_dead_text_colour@@3UREAL_COLOUR@@A+2
  0058f	50		 push	 eax
  00590	6a 13		 push	 19			; 00000013H
  00592	6a 01		 push	 1
  00594	6a 12		 push	 18			; 00000012H
  00596	6a 01		 push	 1
  00598	6a 4b		 push	 75			; 0000004bH
  0059a	f3 0f 10 45 f0	 movss	 xmm0, DWORD PTR _y2$[ebp]
  0059f	f3 0f 5c 45 f8	 subss	 xmm0, DWORD PTR _y1$[ebp]
  005a4	f3 0f 5a c0	 cvtss2sd xmm0, xmm0
  005a8	83 ec 08	 sub	 esp, 8
  005ab	f2 0f 11 04 24	 movsd	 QWORD PTR [esp], xmm0
  005b0	f3 0f 10 45 f4	 movss	 xmm0, DWORD PTR _x2$[ebp]
  005b5	f3 0f 5c 45 fc	 subss	 xmm0, DWORD PTR _x1$[ebp]
  005ba	f3 0f 5a c0	 cvtss2sd xmm0, xmm0
  005be	83 ec 08	 sub	 esp, 8
  005c1	f2 0f 11 04 24	 movsd	 QWORD PTR [esp], xmm0
  005c6	6a 59		 push	 89			; 00000059H
  005c8	f3 0f 5a 45 f8	 cvtss2sd xmm0, DWORD PTR _y1$[ebp]
  005cd	83 ec 08	 sub	 esp, 8
  005d0	f2 0f 11 04 24	 movsd	 QWORD PTR [esp], xmm0
  005d5	f3 0f 5a 45 fc	 cvtss2sd xmm0, DWORD PTR _x1$[ebp]
  005da	83 ec 08	 sub	 esp, 8
  005dd	f2 0f 11 04 24	 movsd	 QWORD PTR [esp], xmm0
  005e2	6a 58		 push	 88			; 00000058H
  005e4	8b 4d d8	 mov	 ecx, DWORD PTR _page$[ebp]
  005e7	51		 push	 ecx
  005e8	6a 32		 push	 50			; 00000032H
  005ea	6a 01		 push	 1
  005ec	e8 00 00 00 00	 call	 ?create_ui_object@@YAPAUUI_OBJECT@@HZZ ; create_ui_object
  005f1	81 c4 80 00 00
	00		 add	 esp, 128		; 00000080H
  005f7	a3 00 00 00 00	 mov	 DWORD PTR ?debriefing_page_kills_area@@3PAUUI_OBJECT@@A, eax

; 732  : 			(
; 733  : 				UI_TYPE_AREA,
; 734  : 				UI_ATTR_PARENT (page),
; 735  : 				UI_ATTR_VIRTUAL_POSITION (x1, y1),
; 736  : 				UI_ATTR_VIRTUAL_SIZE (x2 - x1, y2 - y1),
; 737  : 				UI_ATTR_TEXT_JUSTIFY (TEXT_JUSTIFY_LEFT_CENTRE),
; 738  : 				UI_ATTR_FONT_TYPE (UI_FONT_ARIAL_14),
; 739  : 				UI_ATTR_FONT_COLOUR (ui_ingame_dead_text_colour.r, ui_ingame_dead_text_colour.g, ui_ingame_dead_text_colour.b, ui_ingame_dead_text_colour.a),
; 740  : 				UI_ATTR_VSLIDER (0, 0, 10),
; 741  : 				UI_ATTR_CLEAR (TRUE),
; 742  : 				UI_ATTR_END
; 743  : 			);
; 744  : 
; 745  : 	set_common_slider_graphics (debriefing_page_kills_area);

  005fc	a1 00 00 00 00	 mov	 eax, DWORD PTR ?debriefing_page_kills_area@@3PAUUI_OBJECT@@A
  00601	50		 push	 eax
  00602	e8 00 00 00 00	 call	 ?set_common_slider_graphics@@YGXPAUUI_OBJECT@@@Z ; set_common_slider_graphics

; 746  : 
; 747  : 	x1 = 0.0;

  00607	0f 57 c0	 xorps	 xmm0, xmm0
  0060a	f3 0f 11 45 fc	 movss	 DWORD PTR _x1$[ebp], xmm0

; 748  : 	x2 = 0.9;

  0060f	f3 0f 10 05 00
	00 00 00	 movss	 xmm0, DWORD PTR __real@3f666666
  00617	f3 0f 11 45 f4	 movss	 DWORD PTR _x2$[ebp], xmm0

; 749  : 
; 750  : 	y1 = 0.0;

  0061c	0f 57 c0	 xorps	 xmm0, xmm0
  0061f	f3 0f 11 45 f8	 movss	 DWORD PTR _y1$[ebp], xmm0

; 751  : 	y2 = 1.0;

  00624	f3 0f 10 05 00
	00 00 00	 movss	 xmm0, DWORD PTR __real@3f800000
  0062c	f3 0f 11 45 f0	 movss	 DWORD PTR _y2$[ebp], xmm0

; 752  : 
; 753  : 	debriefing_page_kills_box = create_ui_object

  00631	6a 11		 push	 17			; 00000011H
  00633	6a 01		 push	 1
  00635	6a 07		 push	 7
  00637	6a 00		 push	 0
  00639	6a 2f		 push	 47			; 0000002fH
  0063b	0f b6 05 03 00
	00 00		 movzx	 eax, BYTE PTR ?ui_ingame_dead_text_colour@@3UREAL_COLOUR@@A+3
  00642	50		 push	 eax
  00643	0f b6 0d 00 00
	00 00		 movzx	 ecx, BYTE PTR ?ui_ingame_dead_text_colour@@3UREAL_COLOUR@@A
  0064a	51		 push	 ecx
  0064b	0f b6 15 01 00
	00 00		 movzx	 edx, BYTE PTR ?ui_ingame_dead_text_colour@@3UREAL_COLOUR@@A+1
  00652	52		 push	 edx
  00653	0f b6 05 02 00
	00 00		 movzx	 eax, BYTE PTR ?ui_ingame_dead_text_colour@@3UREAL_COLOUR@@A+2
  0065a	50		 push	 eax
  0065b	6a 13		 push	 19			; 00000013H
  0065d	6a 01		 push	 1
  0065f	6a 12		 push	 18			; 00000012H
  00661	6a 01		 push	 1
  00663	6a 4b		 push	 75			; 0000004bH
  00665	f3 0f 10 45 f0	 movss	 xmm0, DWORD PTR _y2$[ebp]
  0066a	f3 0f 5c 45 f8	 subss	 xmm0, DWORD PTR _y1$[ebp]
  0066f	f3 0f 5a c0	 cvtss2sd xmm0, xmm0
  00673	83 ec 08	 sub	 esp, 8
  00676	f2 0f 11 04 24	 movsd	 QWORD PTR [esp], xmm0
  0067b	f3 0f 10 45 f4	 movss	 xmm0, DWORD PTR _x2$[ebp]
  00680	f3 0f 5c 45 fc	 subss	 xmm0, DWORD PTR _x1$[ebp]
  00685	f3 0f 5a c0	 cvtss2sd xmm0, xmm0
  00689	83 ec 08	 sub	 esp, 8
  0068c	f2 0f 11 04 24	 movsd	 QWORD PTR [esp], xmm0
  00691	6a 59		 push	 89			; 00000059H
  00693	f3 0f 5a 45 f8	 cvtss2sd xmm0, DWORD PTR _y1$[ebp]
  00698	83 ec 08	 sub	 esp, 8
  0069b	f2 0f 11 04 24	 movsd	 QWORD PTR [esp], xmm0
  006a0	f3 0f 5a 45 fc	 cvtss2sd xmm0, DWORD PTR _x1$[ebp]
  006a5	83 ec 08	 sub	 esp, 8
  006a8	f2 0f 11 04 24	 movsd	 QWORD PTR [esp], xmm0
  006ad	6a 58		 push	 88			; 00000058H
  006af	8b 0d 00 00 00
	00		 mov	 ecx, DWORD PTR ?debriefing_page_kills_area@@3PAUUI_OBJECT@@A
  006b5	51		 push	 ecx
  006b6	6a 32		 push	 50			; 00000032H
  006b8	6a 0d		 push	 13			; 0000000dH
  006ba	e8 00 00 00 00	 call	 ?create_ui_object@@YAPAUUI_OBJECT@@HZZ ; create_ui_object
  006bf	83 c4 6c	 add	 esp, 108		; 0000006cH
  006c2	a3 00 00 00 00	 mov	 DWORD PTR ?debriefing_page_kills_box@@3PAUUI_OBJECT@@A, eax

; 754  : 			(
; 755  : 				UI_TYPE_LIST_BOX,
; 756  : 				UI_ATTR_PARENT (debriefing_page_kills_area),
; 757  : 				UI_ATTR_VIRTUAL_POSITION (x1, y1),
; 758  : 				UI_ATTR_VIRTUAL_SIZE (x2 - x1, y2 - y1),
; 759  : 				UI_ATTR_TEXT_JUSTIFY (TEXT_JUSTIFY_LEFT_CENTRE),
; 760  : 				UI_ATTR_FONT_TYPE (UI_FONT_ARIAL_14),
; 761  : 				UI_ATTR_FONT_COLOUR (ui_ingame_dead_text_colour.r, ui_ingame_dead_text_colour.g, ui_ingame_dead_text_colour.b, ui_ingame_dead_text_colour.a),
; 762  : 				UI_ATTR_NOTIFY_ON (NOTIFY_TYPE_NONE),
; 763  : 				UI_ATTR_CLEAR (TRUE),
; 764  : 				UI_ATTR_END
; 765  : 			);
; 766  : 
; 767  : 	/////////////////////////////////////////////////////////////////
; 768  : 	// debriefing text
; 769  : 
; 770  : 	x1 = 0.1;

  006c7	f3 0f 10 05 00
	00 00 00	 movss	 xmm0, DWORD PTR __real@3dcccccd
  006cf	f3 0f 11 45 fc	 movss	 DWORD PTR _x1$[ebp], xmm0

; 771  : 	y1 = 0.746;

  006d4	f3 0f 10 05 00
	00 00 00	 movss	 xmm0, DWORD PTR __real@3f3ef9db
  006dc	f3 0f 11 45 f8	 movss	 DWORD PTR _y1$[ebp], xmm0

; 772  : 	x2 = 0.99;

  006e1	f3 0f 10 05 00
	00 00 00	 movss	 xmm0, DWORD PTR __real@3f7d70a4
  006e9	f3 0f 11 45 f4	 movss	 DWORD PTR _x2$[ebp], xmm0

; 773  : 	y2 = 0.94;

  006ee	f3 0f 10 05 00
	00 00 00	 movss	 xmm0, DWORD PTR __real@3f70a3d7
  006f6	f3 0f 11 45 f0	 movss	 DWORD PTR _y2$[ebp], xmm0

; 774  : 
; 775  : 	debriefing_text_area = create_ui_object

  006fb	6a 11		 push	 17			; 00000011H
  006fd	6a 01		 push	 1
  006ff	6a 07		 push	 7
  00701	83 ec 08	 sub	 esp, 8
  00704	f2 0f 10 05 00
	00 00 00	 movsd	 xmm0, QWORD PTR __real@3ff0000000000000
  0070c	f2 0f 11 04 24	 movsd	 QWORD PTR [esp], xmm0
  00711	83 ec 08	 sub	 esp, 8
  00714	0f 57 c0	 xorps	 xmm0, xmm0
  00717	f2 0f 11 04 24	 movsd	 QWORD PTR [esp], xmm0
  0071c	83 ec 08	 sub	 esp, 8
  0071f	0f 57 c0	 xorps	 xmm0, xmm0
  00722	f2 0f 11 04 24	 movsd	 QWORD PTR [esp], xmm0
  00727	6a 5a		 push	 90			; 0000005aH
  00729	0f b6 05 03 00
	00 00		 movzx	 eax, BYTE PTR ?ui_ingame_dead_text_colour@@3UREAL_COLOUR@@A+3
  00730	50		 push	 eax
  00731	0f b6 0d 00 00
	00 00		 movzx	 ecx, BYTE PTR ?ui_ingame_dead_text_colour@@3UREAL_COLOUR@@A
  00738	51		 push	 ecx
  00739	0f b6 15 01 00
	00 00		 movzx	 edx, BYTE PTR ?ui_ingame_dead_text_colour@@3UREAL_COLOUR@@A+1
  00740	52		 push	 edx
  00741	0f b6 05 02 00
	00 00		 movzx	 eax, BYTE PTR ?ui_ingame_dead_text_colour@@3UREAL_COLOUR@@A+2
  00748	50		 push	 eax
  00749	6a 13		 push	 19			; 00000013H
  0074b	6a 00		 push	 0
  0074d	6a 12		 push	 18			; 00000012H
  0074f	f3 0f 10 45 f0	 movss	 xmm0, DWORD PTR _y2$[ebp]
  00754	f3 0f 5c 45 f8	 subss	 xmm0, DWORD PTR _y1$[ebp]
  00759	f3 0f 5a c0	 cvtss2sd xmm0, xmm0
  0075d	83 ec 08	 sub	 esp, 8
  00760	f2 0f 11 04 24	 movsd	 QWORD PTR [esp], xmm0
  00765	f3 0f 10 45 f4	 movss	 xmm0, DWORD PTR _x2$[ebp]
  0076a	f3 0f 5c 45 fc	 subss	 xmm0, DWORD PTR _x1$[ebp]
  0076f	f3 0f 5a c0	 cvtss2sd xmm0, xmm0
  00773	83 ec 08	 sub	 esp, 8
  00776	f2 0f 11 04 24	 movsd	 QWORD PTR [esp], xmm0
  0077b	6a 59		 push	 89			; 00000059H
  0077d	f3 0f 5a 45 f8	 cvtss2sd xmm0, DWORD PTR _y1$[ebp]
  00782	83 ec 08	 sub	 esp, 8
  00785	f2 0f 11 04 24	 movsd	 QWORD PTR [esp], xmm0
  0078a	f3 0f 5a 45 fc	 cvtss2sd xmm0, DWORD PTR _x1$[ebp]
  0078f	83 ec 08	 sub	 esp, 8
  00792	f2 0f 11 04 24	 movsd	 QWORD PTR [esp], xmm0
  00797	6a 58		 push	 88			; 00000058H
  00799	8b 4d d8	 mov	 ecx, DWORD PTR _page$[ebp]
  0079c	51		 push	 ecx
  0079d	6a 32		 push	 50			; 00000032H
  0079f	6a 01		 push	 1
  007a1	e8 00 00 00 00	 call	 ?create_ui_object@@YAPAUUI_OBJECT@@HZZ ; create_ui_object
  007a6	83 c4 78	 add	 esp, 120		; 00000078H
  007a9	a3 00 00 00 00	 mov	 DWORD PTR ?debriefing_text_area@@3PAUUI_OBJECT@@A, eax

; 776  : 			(
; 777  : 				UI_TYPE_AREA,
; 778  : 				UI_ATTR_PARENT (page),
; 779  : 				UI_ATTR_VIRTUAL_POSITION (x1, y1),
; 780  : 				UI_ATTR_VIRTUAL_SIZE (x2 - x1, y2 - y1),
; 781  : 				UI_ATTR_FONT_TYPE (UI_FONT_ARIAL_10),
; 782  : 				UI_ATTR_FONT_COLOUR (ui_ingame_dead_text_colour.r, ui_ingame_dead_text_colour.g, ui_ingame_dead_text_colour.b, ui_ingame_dead_text_colour.a),
; 783  : 				UI_ATTR_VSLIDER (0.0, 0.0, 1.0),
; 784  : 				UI_ATTR_CLEAR (TRUE),
; 785  : 				UI_ATTR_END
; 786  : 			);
; 787  : 
; 788  : 	set_common_slider_graphics (debriefing_text_area);

  007ae	a1 00 00 00 00	 mov	 eax, DWORD PTR ?debriefing_text_area@@3PAUUI_OBJECT@@A
  007b3	50		 push	 eax
  007b4	e8 00 00 00 00	 call	 ?set_common_slider_graphics@@YGXPAUUI_OBJECT@@@Z ; set_common_slider_graphics

; 789  : 
; 790  : 	x1 = 0.0;

  007b9	0f 57 c0	 xorps	 xmm0, xmm0
  007bc	f3 0f 11 45 fc	 movss	 DWORD PTR _x1$[ebp], xmm0

; 791  : 	x2 = 0.9;

  007c1	f3 0f 10 05 00
	00 00 00	 movss	 xmm0, DWORD PTR __real@3f666666
  007c9	f3 0f 11 45 f4	 movss	 DWORD PTR _x2$[ebp], xmm0

; 792  : 	y1 = 0.0;

  007ce	0f 57 c0	 xorps	 xmm0, xmm0
  007d1	f3 0f 11 45 f8	 movss	 DWORD PTR _y1$[ebp], xmm0

; 793  : 	y2 = 1.0;

  007d6	f3 0f 10 05 00
	00 00 00	 movss	 xmm0, DWORD PTR __real@3f800000
  007de	f3 0f 11 45 f0	 movss	 DWORD PTR _y2$[ebp], xmm0

; 794  : 
; 795  : 	debriefing_text_list = create_ui_object

  007e3	6a 11		 push	 17			; 00000011H
  007e5	6a 01		 push	 1
  007e7	6a 07		 push	 7
  007e9	6a 00		 push	 0
  007eb	6a 2f		 push	 47			; 0000002fH
  007ed	0f b6 05 03 00
	00 00		 movzx	 eax, BYTE PTR ?ui_ingame_dead_text_colour@@3UREAL_COLOUR@@A+3
  007f4	50		 push	 eax
  007f5	0f b6 0d 00 00
	00 00		 movzx	 ecx, BYTE PTR ?ui_ingame_dead_text_colour@@3UREAL_COLOUR@@A
  007fc	51		 push	 ecx
  007fd	0f b6 15 01 00
	00 00		 movzx	 edx, BYTE PTR ?ui_ingame_dead_text_colour@@3UREAL_COLOUR@@A+1
  00804	52		 push	 edx
  00805	0f b6 05 02 00
	00 00		 movzx	 eax, BYTE PTR ?ui_ingame_dead_text_colour@@3UREAL_COLOUR@@A+2
  0080c	50		 push	 eax
  0080d	6a 13		 push	 19			; 00000013H
  0080f	6a 00		 push	 0
  00811	6a 12		 push	 18			; 00000012H
  00813	6a 01		 push	 1
  00815	6a 4b		 push	 75			; 0000004bH
  00817	f3 0f 10 45 f0	 movss	 xmm0, DWORD PTR _y2$[ebp]
  0081c	f3 0f 5c 45 f8	 subss	 xmm0, DWORD PTR _y1$[ebp]
  00821	f3 0f 5a c0	 cvtss2sd xmm0, xmm0
  00825	83 ec 08	 sub	 esp, 8
  00828	f2 0f 11 04 24	 movsd	 QWORD PTR [esp], xmm0
  0082d	f3 0f 10 45 f4	 movss	 xmm0, DWORD PTR _x2$[ebp]
  00832	f3 0f 5c 45 fc	 subss	 xmm0, DWORD PTR _x1$[ebp]
  00837	f3 0f 5a c0	 cvtss2sd xmm0, xmm0
  0083b	83 ec 08	 sub	 esp, 8
  0083e	f2 0f 11 04 24	 movsd	 QWORD PTR [esp], xmm0
  00843	6a 59		 push	 89			; 00000059H
  00845	f3 0f 5a 45 f8	 cvtss2sd xmm0, DWORD PTR _y1$[ebp]
  0084a	83 ec 08	 sub	 esp, 8
  0084d	f2 0f 11 04 24	 movsd	 QWORD PTR [esp], xmm0
  00852	f3 0f 5a 45 fc	 cvtss2sd xmm0, DWORD PTR _x1$[ebp]
  00857	83 ec 08	 sub	 esp, 8
  0085a	f2 0f 11 04 24	 movsd	 QWORD PTR [esp], xmm0
  0085f	6a 58		 push	 88			; 00000058H
  00861	8b 0d 00 00 00
	00		 mov	 ecx, DWORD PTR ?debriefing_text_area@@3PAUUI_OBJECT@@A
  00867	51		 push	 ecx
  00868	6a 32		 push	 50			; 00000032H
  0086a	6a 0d		 push	 13			; 0000000dH
  0086c	e8 00 00 00 00	 call	 ?create_ui_object@@YAPAUUI_OBJECT@@HZZ ; create_ui_object
  00871	83 c4 6c	 add	 esp, 108		; 0000006cH
  00874	a3 00 00 00 00	 mov	 DWORD PTR ?debriefing_text_list@@3PAUUI_OBJECT@@A, eax

; 796  : 			(
; 797  : 				UI_TYPE_LIST_BOX,
; 798  : 				UI_ATTR_PARENT (debriefing_text_area),
; 799  : 				UI_ATTR_VIRTUAL_POSITION (x1, y1),
; 800  : 				UI_ATTR_VIRTUAL_SIZE (x2 - x1, y2 - y1),
; 801  : 				UI_ATTR_TEXT_JUSTIFY (TEXT_JUSTIFY_LEFT_CENTRE),
; 802  : 				UI_ATTR_FONT_TYPE (UI_FONT_ARIAL_10),
; 803  : 				UI_ATTR_FONT_COLOUR (ui_ingame_dead_text_colour.r, ui_ingame_dead_text_colour.g, ui_ingame_dead_text_colour.b, ui_ingame_dead_text_colour.a),
; 804  : 				UI_ATTR_NOTIFY_ON (NOTIFY_TYPE_NONE),
; 805  : 				UI_ATTR_CLEAR (TRUE),
; 806  : 				UI_ATTR_END
; 807  : 			);
; 808  : 
; 809  : 	/////////////////////////////////////////////////////////////////
; 810  : 	// Map Area
; 811  : 			
; 812  : 	x1 = 0.5;

  00879	f3 0f 10 05 00
	00 00 00	 movss	 xmm0, DWORD PTR __real@3f000000
  00881	f3 0f 11 45 fc	 movss	 DWORD PTR _x1$[ebp], xmm0

; 813  : 	y1 = 0.0;

  00886	0f 57 c0	 xorps	 xmm0, xmm0
  00889	f3 0f 11 45 f8	 movss	 DWORD PTR _y1$[ebp], xmm0

; 814  : 	x2 = 1.0;

  0088e	f3 0f 10 05 00
	00 00 00	 movss	 xmm0, DWORD PTR __real@3f800000
  00896	f3 0f 11 45 f4	 movss	 DWORD PTR _x2$[ebp], xmm0

; 815  : 	y2 = 0.67;

  0089b	f3 0f 10 05 00
	00 00 00	 movss	 xmm0, DWORD PTR __real@3f2b851f
  008a3	f3 0f 11 45 f0	 movss	 DWORD PTR _y2$[ebp], xmm0

; 816  : 
; 817  : 	page_map_view_area = create_ui_object

  008a8	6a 11		 push	 17			; 00000011H
  008aa	68 00 00 00 00	 push	 OFFSET ??_C@_0CF@CLPKPOMP@graphics?2ui?2cohokum?2map?2blockpr@
  008af	e8 00 00 00 00	 call	 ?create_texture_graphic@@YGPAUTEXTURE_GRAPHIC@@PBD@Z ; create_texture_graphic
  008b4	50		 push	 eax
  008b5	6a 4c		 push	 76			; 0000004cH
  008b7	f3 0f 10 45 f0	 movss	 xmm0, DWORD PTR _y2$[ebp]
  008bc	f3 0f 5c 45 f8	 subss	 xmm0, DWORD PTR _y1$[ebp]
  008c1	f3 0f 5a c0	 cvtss2sd xmm0, xmm0
  008c5	83 ec 08	 sub	 esp, 8
  008c8	f2 0f 11 04 24	 movsd	 QWORD PTR [esp], xmm0
  008cd	f3 0f 10 45 f4	 movss	 xmm0, DWORD PTR _x2$[ebp]
  008d2	f3 0f 5c 45 fc	 subss	 xmm0, DWORD PTR _x1$[ebp]
  008d7	f3 0f 5a c0	 cvtss2sd xmm0, xmm0
  008db	83 ec 08	 sub	 esp, 8
  008de	f2 0f 11 04 24	 movsd	 QWORD PTR [esp], xmm0
  008e3	6a 59		 push	 89			; 00000059H
  008e5	f3 0f 5a 45 f8	 cvtss2sd xmm0, DWORD PTR _y1$[ebp]
  008ea	83 ec 08	 sub	 esp, 8
  008ed	f2 0f 11 04 24	 movsd	 QWORD PTR [esp], xmm0
  008f2	f3 0f 5a 45 fc	 cvtss2sd xmm0, DWORD PTR _x1$[ebp]
  008f7	83 ec 08	 sub	 esp, 8
  008fa	f2 0f 11 04 24	 movsd	 QWORD PTR [esp], xmm0
  008ff	6a 58		 push	 88			; 00000058H
  00901	8b 45 d8	 mov	 eax, DWORD PTR _page$[ebp]
  00904	50		 push	 eax
  00905	6a 32		 push	 50			; 00000032H
  00907	6a 01		 push	 1
  00909	e8 00 00 00 00	 call	 ?create_ui_object@@YAPAUUI_OBJECT@@HZZ ; create_ui_object
  0090e	83 c4 40	 add	 esp, 64			; 00000040H
  00911	a3 00 00 00 00	 mov	 DWORD PTR ?page_map_view_area@@3PAUUI_OBJECT@@A, eax

; 818  : 			(
; 819  : 				UI_TYPE_AREA,
; 820  : 				UI_ATTR_PARENT (page),
; 821  : 				UI_ATTR_VIRTUAL_POSITION (x1, y1),
; 822  : 				UI_ATTR_VIRTUAL_SIZE (x2 - x1, y2 - y1),
; 823  : 				UI_ATTR_TEXTURE_GRAPHIC (create_texture_graphic ("graphics\\ui\\cohokum\\map\\blockprp.psd")),
; 824  : 				UI_ATTR_END
; 825  : 			);
; 826  : 
; 827  : 	x1 = 0.01;

  00916	f3 0f 10 05 00
	00 00 00	 movss	 xmm0, DWORD PTR __real@3c23d70a
  0091e	f3 0f 11 45 fc	 movss	 DWORD PTR _x1$[ebp], xmm0

; 828  : 	y1 = 0.0;

  00923	0f 57 c0	 xorps	 xmm0, xmm0
  00926	f3 0f 11 45 f8	 movss	 DWORD PTR _y1$[ebp], xmm0

; 829  : 	x2 = 1.0;

  0092b	f3 0f 10 05 00
	00 00 00	 movss	 xmm0, DWORD PTR __real@3f800000
  00933	f3 0f 11 45 f4	 movss	 DWORD PTR _x2$[ebp], xmm0

; 830  : 	y2 = 0.99;

  00938	f3 0f 10 05 00
	00 00 00	 movss	 xmm0, DWORD PTR __real@3f7d70a4
  00940	f3 0f 11 45 f0	 movss	 DWORD PTR _y2$[ebp], xmm0

; 831  : 
; 832  : 	page_map_area = create_ui_object

  00945	6a 11		 push	 17			; 00000011H
  00947	f3 0f 10 45 f0	 movss	 xmm0, DWORD PTR _y2$[ebp]
  0094c	f3 0f 5c 45 f8	 subss	 xmm0, DWORD PTR _y1$[ebp]
  00951	f3 0f 5a c0	 cvtss2sd xmm0, xmm0
  00955	83 ec 08	 sub	 esp, 8
  00958	f2 0f 11 04 24	 movsd	 QWORD PTR [esp], xmm0
  0095d	f3 0f 10 45 f4	 movss	 xmm0, DWORD PTR _x2$[ebp]
  00962	f3 0f 5c 45 fc	 subss	 xmm0, DWORD PTR _x1$[ebp]
  00967	f3 0f 5a c0	 cvtss2sd xmm0, xmm0
  0096b	83 ec 08	 sub	 esp, 8
  0096e	f2 0f 11 04 24	 movsd	 QWORD PTR [esp], xmm0
  00973	6a 59		 push	 89			; 00000059H
  00975	f3 0f 5a 45 f8	 cvtss2sd xmm0, DWORD PTR _y1$[ebp]
  0097a	83 ec 08	 sub	 esp, 8
  0097d	f2 0f 11 04 24	 movsd	 QWORD PTR [esp], xmm0
  00982	f3 0f 5a 45 fc	 cvtss2sd xmm0, DWORD PTR _x1$[ebp]
  00987	83 ec 08	 sub	 esp, 8
  0098a	f2 0f 11 04 24	 movsd	 QWORD PTR [esp], xmm0
  0098f	6a 58		 push	 88			; 00000058H
  00991	a1 00 00 00 00	 mov	 eax, DWORD PTR ?page_map_view_area@@3PAUUI_OBJECT@@A
  00996	50		 push	 eax
  00997	6a 32		 push	 50			; 00000032H
  00999	6a 01		 push	 1
  0099b	e8 00 00 00 00	 call	 ?create_ui_object@@YAPAUUI_OBJECT@@HZZ ; create_ui_object
  009a0	83 c4 38	 add	 esp, 56			; 00000038H
  009a3	a3 00 00 00 00	 mov	 DWORD PTR ?page_map_area@@3PAUUI_OBJECT@@A, eax

; 833  : 		(
; 834  : 			UI_TYPE_AREA,
; 835  : 			UI_ATTR_PARENT (page_map_view_area),
; 836  : 			UI_ATTR_VIRTUAL_POSITION (x1, y1),
; 837  : 			UI_ATTR_VIRTUAL_SIZE (x2 - x1, y2 - y1),
; 838  : 			UI_ATTR_END
; 839  : 		);
; 840  : 
; 841  : 	/////////////////////////////////////////////////////////////////
; 842  : 	// Map Objects
; 843  : 
; 844  : 	define_map_objects (page_map_area, &page_map_dimensions, draw_page_map, campaign_map_left_click_function, map_centralise_function, &campaign_screen_full_screen_map);

  009a8	68 00 00 00 00	 push	 OFFSET ?campaign_screen_full_screen_map@@3PAUUI_OBJECT@@A ; campaign_screen_full_screen_map
  009ad	68 00 00 00 00	 push	 OFFSET ?map_centralise_function@@YGXPAUUI_OBJECT@@PAX@Z ; map_centralise_function
  009b2	68 00 00 00 00	 push	 OFFSET ?campaign_map_left_click_function@@YGXPAUUI_OBJECT@@PAX@Z ; campaign_map_left_click_function
  009b7	68 00 00 00 00	 push	 OFFSET ?draw_page_map@@YGXPAUUI_OBJECT@@PAX@Z ; draw_page_map
  009bc	68 00 00 00 00	 push	 OFFSET ?page_map_dimensions@@3UMAP_DIMENSION_TYPE@@A
  009c1	a1 00 00 00 00	 mov	 eax, DWORD PTR ?page_map_area@@3PAUUI_OBJECT@@A
  009c6	50		 push	 eax
  009c7	e8 00 00 00 00	 call	 ?define_map_objects@@YGXPAUUI_OBJECT@@PAUMAP_DIMENSION_TYPE@@PAX22PAPAU1@@Z ; define_map_objects

; 845  : 
; 846  : 
; 847  : 	/////////////////////////////////////////////////////////////////
; 848  : 	// "Divider" graphics
; 849  : 
; 850  : 	x1 = 0.022;

  009cc	f3 0f 10 05 00
	00 00 00	 movss	 xmm0, DWORD PTR __real@3cb43958
  009d4	f3 0f 11 45 fc	 movss	 DWORD PTR _x1$[ebp], xmm0

; 851  : 	y1 = 0.138;

  009d9	f3 0f 10 05 00
	00 00 00	 movss	 xmm0, DWORD PTR __real@3e0d4fdf
  009e1	f3 0f 11 45 f8	 movss	 DWORD PTR _y1$[ebp], xmm0

; 852  : 	x2 = 0.474;

  009e6	f3 0f 10 05 00
	00 00 00	 movss	 xmm0, DWORD PTR __real@3ef2b021
  009ee	f3 0f 11 45 f4	 movss	 DWORD PTR _x2$[ebp], xmm0

; 853  : 	y2 = 0.161;

  009f3	f3 0f 10 05 00
	00 00 00	 movss	 xmm0, DWORD PTR __real@3e24dd2f
  009fb	f3 0f 11 45 f0	 movss	 DWORD PTR _y2$[ebp], xmm0

; 854  : 
; 855  : 	create_ui_object

  00a00	6a 11		 push	 17			; 00000011H
  00a02	a1 00 00 00 00	 mov	 eax, DWORD PTR ?common_divider_graphic@@3PAUTEXTURE_GRAPHIC@@A ; common_divider_graphic
  00a07	50		 push	 eax
  00a08	6a 4c		 push	 76			; 0000004cH
  00a0a	f3 0f 10 45 f0	 movss	 xmm0, DWORD PTR _y2$[ebp]
  00a0f	f3 0f 5c 45 f8	 subss	 xmm0, DWORD PTR _y1$[ebp]
  00a14	f3 0f 5a c0	 cvtss2sd xmm0, xmm0
  00a18	83 ec 08	 sub	 esp, 8
  00a1b	f2 0f 11 04 24	 movsd	 QWORD PTR [esp], xmm0
  00a20	f3 0f 10 45 f4	 movss	 xmm0, DWORD PTR _x2$[ebp]
  00a25	f3 0f 5c 45 fc	 subss	 xmm0, DWORD PTR _x1$[ebp]
  00a2a	f3 0f 5a c0	 cvtss2sd xmm0, xmm0
  00a2e	83 ec 08	 sub	 esp, 8
  00a31	f2 0f 11 04 24	 movsd	 QWORD PTR [esp], xmm0
  00a36	6a 59		 push	 89			; 00000059H
  00a38	f3 0f 5a 45 f8	 cvtss2sd xmm0, DWORD PTR _y1$[ebp]
  00a3d	83 ec 08	 sub	 esp, 8
  00a40	f2 0f 11 04 24	 movsd	 QWORD PTR [esp], xmm0
  00a45	f3 0f 5a 45 fc	 cvtss2sd xmm0, DWORD PTR _x1$[ebp]
  00a4a	83 ec 08	 sub	 esp, 8
  00a4d	f2 0f 11 04 24	 movsd	 QWORD PTR [esp], xmm0
  00a52	6a 58		 push	 88			; 00000058H
  00a54	8b 4d d8	 mov	 ecx, DWORD PTR _page$[ebp]
  00a57	51		 push	 ecx
  00a58	6a 32		 push	 50			; 00000032H
  00a5a	6a 01		 push	 1
  00a5c	e8 00 00 00 00	 call	 ?create_ui_object@@YAPAUUI_OBJECT@@HZZ ; create_ui_object
  00a61	83 c4 40	 add	 esp, 64			; 00000040H

; 856  : 			(
; 857  : 				UI_TYPE_AREA,
; 858  : 				UI_ATTR_PARENT (page),
; 859  : 				UI_ATTR_VIRTUAL_POSITION (x1, y1),
; 860  : 				UI_ATTR_VIRTUAL_SIZE (x2 - x1, y2 - y1),
; 861  : 				UI_ATTR_TEXTURE_GRAPHIC (common_divider_graphic),
; 862  : 				UI_ATTR_END
; 863  : 			);
; 864  : 
; 865  : 	////////////////////////////////////
; 866  : 
; 867  : 	x1 = 0.022;

  00a64	f3 0f 10 05 00
	00 00 00	 movss	 xmm0, DWORD PTR __real@3cb43958
  00a6c	f3 0f 11 45 fc	 movss	 DWORD PTR _x1$[ebp], xmm0

; 868  : 	y1 = 0.649;

  00a71	f3 0f 10 05 00
	00 00 00	 movss	 xmm0, DWORD PTR __real@3f2624dd
  00a79	f3 0f 11 45 f8	 movss	 DWORD PTR _y1$[ebp], xmm0

; 869  : 	x2 = 0.474;

  00a7e	f3 0f 10 05 00
	00 00 00	 movss	 xmm0, DWORD PTR __real@3ef2b021
  00a86	f3 0f 11 45 f4	 movss	 DWORD PTR _x2$[ebp], xmm0

; 870  : 	y2 = 0.672;

  00a8b	f3 0f 10 05 00
	00 00 00	 movss	 xmm0, DWORD PTR __real@3f2c0831
  00a93	f3 0f 11 45 f0	 movss	 DWORD PTR _y2$[ebp], xmm0

; 871  : 
; 872  : 	create_ui_object

  00a98	6a 11		 push	 17			; 00000011H
  00a9a	a1 00 00 00 00	 mov	 eax, DWORD PTR ?common_divider_graphic@@3PAUTEXTURE_GRAPHIC@@A ; common_divider_graphic
  00a9f	50		 push	 eax
  00aa0	6a 4c		 push	 76			; 0000004cH
  00aa2	f3 0f 10 45 f0	 movss	 xmm0, DWORD PTR _y2$[ebp]
  00aa7	f3 0f 5c 45 f8	 subss	 xmm0, DWORD PTR _y1$[ebp]
  00aac	f3 0f 5a c0	 cvtss2sd xmm0, xmm0
  00ab0	83 ec 08	 sub	 esp, 8
  00ab3	f2 0f 11 04 24	 movsd	 QWORD PTR [esp], xmm0
  00ab8	f3 0f 10 45 f4	 movss	 xmm0, DWORD PTR _x2$[ebp]
  00abd	f3 0f 5c 45 fc	 subss	 xmm0, DWORD PTR _x1$[ebp]
  00ac2	f3 0f 5a c0	 cvtss2sd xmm0, xmm0
  00ac6	83 ec 08	 sub	 esp, 8
  00ac9	f2 0f 11 04 24	 movsd	 QWORD PTR [esp], xmm0
  00ace	6a 59		 push	 89			; 00000059H
  00ad0	f3 0f 5a 45 f8	 cvtss2sd xmm0, DWORD PTR _y1$[ebp]
  00ad5	83 ec 08	 sub	 esp, 8
  00ad8	f2 0f 11 04 24	 movsd	 QWORD PTR [esp], xmm0
  00add	f3 0f 5a 45 fc	 cvtss2sd xmm0, DWORD PTR _x1$[ebp]
  00ae2	83 ec 08	 sub	 esp, 8
  00ae5	f2 0f 11 04 24	 movsd	 QWORD PTR [esp], xmm0
  00aea	6a 58		 push	 88			; 00000058H
  00aec	8b 4d d8	 mov	 ecx, DWORD PTR _page$[ebp]
  00aef	51		 push	 ecx
  00af0	6a 32		 push	 50			; 00000032H
  00af2	6a 01		 push	 1
  00af4	e8 00 00 00 00	 call	 ?create_ui_object@@YAPAUUI_OBJECT@@HZZ ; create_ui_object
  00af9	83 c4 40	 add	 esp, 64			; 00000040H

; 873  : 			(
; 874  : 				UI_TYPE_AREA,
; 875  : 				UI_ATTR_PARENT (page),
; 876  : 				UI_ATTR_VIRTUAL_POSITION (x1, y1),
; 877  : 				UI_ATTR_VIRTUAL_SIZE (x2 - x1, y2 - y1),
; 878  : 				UI_ATTR_TEXTURE_GRAPHIC (common_divider_graphic),
; 879  : 				UI_ATTR_END
; 880  : 			);
; 881  : 
; 882  : 	/////////////////////////////////////////////////////////////////
; 883  : 	// BACK button
; 884  : 
; 885  : 	define_campaign_page_back_button (page, &page_back_button);

  00afc	68 00 00 00 00	 push	 OFFSET ?page_back_button@@3PAUUI_OBJECT@@A
  00b01	8b 45 d8	 mov	 eax, DWORD PTR _page$[ebp]
  00b04	50		 push	 eax
  00b05	e8 00 00 00 00	 call	 ?define_campaign_page_back_button@@YGXPAUUI_OBJECT@@PAPAU1@@Z ; define_campaign_page_back_button

; 886  : }

  00b0a	5f		 pop	 edi
  00b0b	5e		 pop	 esi
  00b0c	5b		 pop	 ebx
  00b0d	8b e5		 mov	 esp, ebp
  00b0f	5d		 pop	 ebp
  00b10	c3		 ret	 0
?define_campaign_screen_debriefing_page_objects@@YGXXZ ENDP ; define_campaign_screen_debriefing_page_objects
_TEXT	ENDS
; Function compile flags: /Odtp /ZI
; File c:\users\nhv90\projects\eech\aphavoc\source\ui_menu\ingame\campaign\ca_dbf.c
;	COMDAT ?initialise_campaign_screen_debriefing_page_objects@@YGXXZ
_TEXT	SEGMENT
?initialise_campaign_screen_debriefing_page_objects@@YGXXZ PROC ; initialise_campaign_screen_debriefing_page_objects, COMDAT

; 331  : {

  00000	55		 push	 ebp
  00001	8b ec		 mov	 ebp, esp
  00003	83 ec 40	 sub	 esp, 64			; 00000040H
  00006	53		 push	 ebx
  00007	56		 push	 esi
  00008	57		 push	 edi

; 332  : 	page_map_dimensions.x = MID_MAP_X;

  00009	f3 0f 10 05 30
	00 00 00	 movss	 xmm0, DWORD PTR ?world_map@@3UWORLD_MAP_DATA@@A+48
  00011	f3 0f 11 05 00
	00 00 00	 movss	 DWORD PTR ?page_map_dimensions@@3UMAP_DIMENSION_TYPE@@A, xmm0

; 333  : 	page_map_dimensions.z = MID_MAP_Z;

  00019	f3 0f 10 05 38
	00 00 00	 movss	 xmm0, DWORD PTR ?world_map@@3UWORLD_MAP_DATA@@A+56
  00021	f3 0f 11 05 04
	00 00 00	 movss	 DWORD PTR ?page_map_dimensions@@3UMAP_DIMENSION_TYPE@@A+4, xmm0

; 334  : 	page_map_dimensions.size = 4.0 * KILOMETRE;

  00029	f3 0f 10 05 00
	00 00 00	 movss	 xmm0, DWORD PTR __real@457a0000
  00031	f3 0f 11 05 08
	00 00 00	 movss	 DWORD PTR ?page_map_dimensions@@3UMAP_DIMENSION_TYPE@@A+8, xmm0

; 335  : 
; 336  : 	page_map_dimensions.subject_entity = NULL;

  00039	c7 05 44 00 00
	00 00 00 00 00	 mov	 DWORD PTR ?page_map_dimensions@@3UMAP_DIMENSION_TYPE@@A+68, 0

; 337  : 	page_map_dimensions.selected_entity = NULL;

  00043	c7 05 48 00 00
	00 00 00 00 00	 mov	 DWORD PTR ?page_map_dimensions@@3UMAP_DIMENSION_TYPE@@A+72, 0

; 338  : 
; 339  : 	clear_map_mouse_over_object (&page_map_dimensions);

  0004d	68 00 00 00 00	 push	 OFFSET ?page_map_dimensions@@3UMAP_DIMENSION_TYPE@@A
  00052	e8 00 00 00 00	 call	 ?clear_map_mouse_over_object@@YGXPAUMAP_DIMENSION_TYPE@@@Z ; clear_map_mouse_over_object

; 340  : 
; 341  : 	set_ui_object_item_number (page_map_area, ENTITY_INDEX_DONT_CARE);

  00057	6a ff		 push	 -1
  00059	a1 00 00 00 00	 mov	 eax, DWORD PTR ?page_map_area@@3PAUUI_OBJECT@@A
  0005e	50		 push	 eax
  0005f	8b 0d 00 00 00
	00		 mov	 ecx, DWORD PTR ?page_map_area@@3PAUUI_OBJECT@@A
  00065	8b 11		 mov	 edx, DWORD PTR [ecx]
  00067	8b 04 95 00 00
	00 00		 mov	 eax, DWORD PTR ?fn_set_ui_object_item_number@@3PAP6GXPAUUI_OBJECT@@H@ZA[edx*4]
  0006e	ff d0		 call	 eax

; 342  : }

  00070	5f		 pop	 edi
  00071	5e		 pop	 esi
  00072	5b		 pop	 ebx
  00073	8b e5		 mov	 esp, ebp
  00075	5d		 pop	 ebp
  00076	c3		 ret	 0
?initialise_campaign_screen_debriefing_page_objects@@YGXXZ ENDP ; initialise_campaign_screen_debriefing_page_objects
_TEXT	ENDS
; Function compile flags: /Odtp /ZI
; File c:\users\nhv90\projects\eech\aphavoc\source\ui_menu\ingame\campaign\ca_dbf.c
;	COMDAT ?autoselect_debriefing_page@@YGXPAUENTITY@@H@Z
_TEXT	SEGMENT
_current_page$ = -4					; size = 4
_mission$ = 8						; size = 4
_force_final_debrief$ = 12				; size = 4
?autoselect_debriefing_page@@YGXPAUENTITY@@H@Z PROC	; autoselect_debriefing_page, COMDAT

; 314  : {

  00000	55		 push	 ebp
  00001	8b ec		 mov	 ebp, esp
  00003	83 ec 44	 sub	 esp, 68			; 00000044H
  00006	53		 push	 ebx
  00007	56		 push	 esi
  00008	57		 push	 edi

; 315  : 	campaign_pages
; 316  : 		current_page;
; 317  : 		
; 318  : 	current_page = get_current_campaign_page ();

  00009	e8 00 00 00 00	 call	 ?get_current_campaign_page@@YG?AW4CAMPAIGN_PAGES@@XZ ; get_current_campaign_page
  0000e	89 45 fc	 mov	 DWORD PTR _current_page$[ebp], eax

; 319  : 
; 320  : 	if ((current_page != CAMPAIGN_PAGE_CHAT) && (current_page != CAMPAIGN_PAGE_SAVE))

  00011	83 7d fc 07	 cmp	 DWORD PTR _current_page$[ebp], 7
  00015	74 15		 je	 SHORT $LN1@autoselect
  00017	83 7d fc 08	 cmp	 DWORD PTR _current_page$[ebp], 8
  0001b	74 0f		 je	 SHORT $LN1@autoselect

; 321  : 	{
; 322  : 		show_debriefing_page (mission, TRUE, force_final_debrief);

  0001d	8b 45 0c	 mov	 eax, DWORD PTR _force_final_debrief$[ebp]
  00020	50		 push	 eax
  00021	6a 01		 push	 1
  00023	8b 4d 08	 mov	 ecx, DWORD PTR _mission$[ebp]
  00026	51		 push	 ecx
  00027	e8 00 00 00 00	 call	 ?show_debriefing_page@@YGXPAUENTITY@@HH@Z ; show_debriefing_page
$LN1@autoselect:

; 323  : 	}
; 324  : }

  0002c	5f		 pop	 edi
  0002d	5e		 pop	 esi
  0002e	5b		 pop	 ebx
  0002f	8b e5		 mov	 esp, ebp
  00031	5d		 pop	 ebp
  00032	c2 08 00	 ret	 8
?autoselect_debriefing_page@@YGXPAUENTITY@@H@Z ENDP	; autoselect_debriefing_page
_TEXT	ENDS
; Function compile flags: /Odtp /ZI
; File c:\users\nhv90\projects\eech\aphavoc\source\ui_menu\ingame\campaign\ca_dbf.c
;	COMDAT ?show_debriefing_page@@YGXPAUENTITY@@HH@Z
_TEXT	SEGMENT
tv373 = -1316						; size = 4
tv365 = -1312						; size = 4
tv512 = -1308						; size = 4
tv492 = -1308						; size = 4
tv470 = -1308						; size = 4
tv448 = -1308						; size = 4
tv351 = -1308						; size = 4
tv301 = -1308						; size = 4
tv277 = -1308						; size = 4
tv241 = -1308						; size = 4
tv213 = -1308						; size = 4
tv159 = -1308						; size = 4
tv504 = -1304						; size = 4
tv484 = -1304						; size = 4
tv462 = -1304						; size = 4
tv401 = -1304						; size = 4
tv343 = -1304						; size = 4
tv293 = -1304						; size = 4
tv269 = -1304						; size = 4
tv233 = -1304						; size = 4
tv205 = -1304						; size = 4
tv152 = -1304						; size = 4
tv135 = -1304						; size = 4
tv75 = -1304						; size = 4
$T1 = -1300						; size = 4
$T2 = -1296						; size = 4
$T3 = -1292						; size = 4
_route_length$4 = -1096					; size = 4
_loop$5 = -1092						; size = 4
_route_nodes$6 = -1088					; size = 4
_base_pos$7 = -1084					; size = 4
_pos$8 = -1080						; size = 4
_max_pos$9 = -1076					; size = 12
_min_pos$10 = -1064					; size = 12
_ff_debrief$ = -1052					; size = 4
_debrief$ = -1048					; size = 4
_medal_text$ = -1044					; size = 1024
_previous$ = -20					; size = 4
_base$ = -16						; size = 4
_awarded_promotion$ = -12				; size = 4
_awarded_medals$ = -8					; size = 4
_medal$ = -4						; size = 4
_mission$ = 8						; size = 4
_force_update$ = 12					; size = 4
_force_final_debrief$ = 16				; size = 4
?show_debriefing_page@@YGXPAUENTITY@@HH@Z PROC		; show_debriefing_page, COMDAT

; 100  : {

  00000	55		 push	 ebp
  00001	8b ec		 mov	 ebp, esp
  00003	81 ec 24 05 00
	00		 sub	 esp, 1316		; 00000524H
  00009	53		 push	 ebx
  0000a	56		 push	 esi
  0000b	57		 push	 edi

; 101  : 
; 102  : 	int
; 103  : 		medal;
; 104  : 
; 105  : 	int
; 106  : 		awarded_medals,
; 107  : 		awarded_promotion;
; 108  : 
; 109  : 	entity
; 110  : 		*base,
; 111  : 		*previous;
; 112  : 
; 113  : 	static char
; 114  : 		s [128];
; 115  : 
; 116  : 	char
; 117  : 		medal_text [1024],
; 118  : 		*debrief,
; 119  : 		*ff_debrief;
; 120  : 
; 121  : 	ASSERT (mission);

  0000c	83 7d 08 00	 cmp	 DWORD PTR _mission$[ebp], 0
  00010	75 18		 jne	 SHORT $LN8@show_debri
  00012	a1 00 00 00 00	 mov	 eax, DWORD PTR ?__LINE__Var@?0??show_debriefing_page@@YGXPAUENTITY@@HH@Z@4JA
  00017	83 c0 15	 add	 eax, 21			; 00000015H
  0001a	50		 push	 eax
  0001b	68 00 00 00 00	 push	 OFFSET ??_C@_0EN@MKENPJLB@c?3?2users?2nhv90?2projects?2eech?2ap@
  00020	68 00 00 00 00	 push	 OFFSET ??_C@_07CACALAH@mission@
  00025	e8 00 00 00 00	 call	 ?process_assert@@YGXPBD0H@Z ; process_assert
$LN8@show_debri:

; 122  : 
; 123  : 	ASSERT (get_local_entity_type (mission) == ENTITY_TYPE_TASK);

  0002a	83 7d 08 00	 cmp	 DWORD PTR _mission$[ebp], 0
  0002e	74 0d		 je	 SHORT $LN26@show_debri
  00030	8b 45 08	 mov	 eax, DWORD PTR _mission$[ebp]
  00033	8b 08		 mov	 ecx, DWORD PTR [eax]
  00035	89 8d e8 fa ff
	ff		 mov	 DWORD PTR tv75[ebp], ecx
  0003b	eb 24		 jmp	 SHORT $LN27@show_debri
$LN26@show_debri:
  0003d	8b 15 00 00 00
	00		 mov	 edx, DWORD PTR ?__LINE__Var@?0??show_debriefing_page@@YGXPAUENTITY@@HH@Z@4JA
  00043	83 c2 17	 add	 edx, 23			; 00000017H
  00046	52		 push	 edx
  00047	68 00 00 00 00	 push	 OFFSET ??_C@_0EN@MKENPJLB@c?3?2users?2nhv90?2projects?2eech?2ap@
  0004c	a1 00 00 00 00	 mov	 eax, DWORD PTR ?null_entity_pointer_message@@3PBDB ; null_entity_pointer_message
  00051	50		 push	 eax
  00052	e8 00 00 00 00	 call	 ?process_assert@@YGXPBD0H@Z ; process_assert
  00057	c7 85 e8 fa ff
	ff 00 00 00 00	 mov	 DWORD PTR tv75[ebp], 0
$LN27@show_debri:
  00061	83 bd e8 fa ff
	ff 22		 cmp	 DWORD PTR tv75[ebp], 34	; 00000022H
  00068	74 18		 je	 SHORT $LN9@show_debri
  0006a	a1 00 00 00 00	 mov	 eax, DWORD PTR ?__LINE__Var@?0??show_debriefing_page@@YGXPAUENTITY@@HH@Z@4JA
  0006f	83 c0 17	 add	 eax, 23			; 00000017H
  00072	50		 push	 eax
  00073	68 00 00 00 00	 push	 OFFSET ??_C@_0EN@MKENPJLB@c?3?2users?2nhv90?2projects?2eech?2ap@
  00078	68 00 00 00 00	 push	 OFFSET ??_C@_0DE@LLEGJEGE@get_local_entity_type?5?$CImission?$CJ@
  0007d	e8 00 00 00 00	 call	 ?process_assert@@YGXPBD0H@Z ; process_assert
$LN9@show_debri:

; 124  : 
; 125  : 	if (force_update)

  00082	83 7d 0c 00	 cmp	 DWORD PTR _force_update$[ebp], 0
  00086	74 09		 je	 SHORT $LN10@show_debri

; 126  : 	{
; 127  : 		previous = NULL;

  00088	c7 45 ec 00 00
	00 00		 mov	 DWORD PTR _previous$[ebp], 0

; 128  : 	}
; 129  : 	else

  0008f	eb 75		 jmp	 SHORT $LN11@show_debri
$LN10@show_debri:

; 130  : 	{
; 131  : 		previous = get_local_entity_safe_ptr (get_ui_object_item_number (campaign_page [CAMPAIGN_PAGE_DEBRIEFING]));

  00091	b8 04 00 00 00	 mov	 eax, 4
  00096	d1 e0		 shl	 eax, 1
  00098	8b 88 00 00 00
	00		 mov	 ecx, DWORD PTR ?campaign_page@@3PAPAUUI_OBJECT@@A[eax]
  0009e	51		 push	 ecx
  0009f	ba 04 00 00 00	 mov	 edx, 4
  000a4	d1 e2		 shl	 edx, 1
  000a6	8b 82 00 00 00
	00		 mov	 eax, DWORD PTR ?campaign_page@@3PAPAUUI_OBJECT@@A[edx]
  000ac	8b 08		 mov	 ecx, DWORD PTR [eax]
  000ae	8b 14 8d 00 00
	00 00		 mov	 edx, DWORD PTR ?fn_get_ui_object_item_number@@3PAP6GHPAUUI_OBJECT@@@ZA[ecx*4]
  000b5	ff d2		 call	 edx
  000b7	83 f8 ff	 cmp	 eax, -1
  000ba	74 37		 je	 SHORT $LN28@show_debri
  000bc	b8 04 00 00 00	 mov	 eax, 4
  000c1	d1 e0		 shl	 eax, 1
  000c3	8b 88 00 00 00
	00		 mov	 ecx, DWORD PTR ?campaign_page@@3PAPAUUI_OBJECT@@A[eax]
  000c9	51		 push	 ecx
  000ca	ba 04 00 00 00	 mov	 edx, 4
  000cf	d1 e2		 shl	 edx, 1
  000d1	8b 82 00 00 00
	00		 mov	 eax, DWORD PTR ?campaign_page@@3PAPAUUI_OBJECT@@A[edx]
  000d7	8b 08		 mov	 ecx, DWORD PTR [eax]
  000d9	8b 14 8d 00 00
	00 00		 mov	 edx, DWORD PTR ?fn_get_ui_object_item_number@@3PAP6GHPAUUI_OBJECT@@@ZA[ecx*4]
  000e0	ff d2		 call	 edx
  000e2	c1 e0 04	 shl	 eax, 4
  000e5	03 05 00 00 00
	00		 add	 eax, DWORD PTR ?entities@@3PAUENTITY@@A ; entities
  000eb	89 85 e8 fa ff
	ff		 mov	 DWORD PTR tv135[ebp], eax
  000f1	eb 0a		 jmp	 SHORT $LN29@show_debri
$LN28@show_debri:
  000f3	c7 85 e8 fa ff
	ff 00 00 00 00	 mov	 DWORD PTR tv135[ebp], 0
$LN29@show_debri:
  000fd	8b 85 e8 fa ff
	ff		 mov	 eax, DWORD PTR tv135[ebp]
  00103	89 45 ec	 mov	 DWORD PTR _previous$[ebp], eax
$LN11@show_debri:

; 132  : 	}
; 133  : 
; 134  : 	//
; 135  : 	// Get debriefing text
; 136  : 	//
; 137  : 
; 138  : 	ui_object_destroy_list_items (debriefing_text_list);

  00106	a1 00 00 00 00	 mov	 eax, DWORD PTR ?debriefing_text_list@@3PAUUI_OBJECT@@A
  0010b	50		 push	 eax
  0010c	e8 00 00 00 00	 call	 ?ui_object_destroy_list_items@@YGXPAUUI_OBJECT@@@Z ; ui_object_destroy_list_items

; 139  : 
; 140  : 	set_ui_object_virtual_y_size (debriefing_text_list, 1.0);

  00111	51		 push	 ecx
  00112	f3 0f 10 05 00
	00 00 00	 movss	 xmm0, DWORD PTR __real@3f800000
  0011a	f3 0f 11 04 24	 movss	 DWORD PTR [esp], xmm0
  0011f	a1 00 00 00 00	 mov	 eax, DWORD PTR ?debriefing_text_list@@3PAUUI_OBJECT@@A
  00124	50		 push	 eax
  00125	8b 0d 00 00 00
	00		 mov	 ecx, DWORD PTR ?debriefing_text_list@@3PAUUI_OBJECT@@A
  0012b	8b 11		 mov	 edx, DWORD PTR [ecx]
  0012d	8b 04 95 00 00
	00 00		 mov	 eax, DWORD PTR ?fn_set_ui_object_virtual_y_size@@3PAP6GXPAUUI_OBJECT@@M@ZA[edx*4]
  00134	ff d0		 call	 eax

; 141  : 
; 142  : 	if ((!force_final_debrief) && (get_gunship_entity ()) && (get_player_task (NULL) == mission) && (get_local_entity_int_value (mission, INT_TYPE_TASK_TERMINATED) == TASK_TERMINATED_IN_PROGRESS))

  00136	83 7d 10 00	 cmp	 DWORD PTR _force_final_debrief$[ebp], 0
  0013a	0f 85 d3 00 00
	00		 jne	 $LN12@show_debri
  00140	83 3d 00 00 00
	00 00		 cmp	 DWORD PTR ?gunship_entity@@3PAUENTITY@@A, 0 ; gunship_entity
  00147	0f 84 c6 00 00
	00		 je	 $LN12@show_debri
  0014d	6a 00		 push	 0
  0014f	e8 00 00 00 00	 call	 ?get_player_task@@YGPAUENTITY@@PAU1@@Z ; get_player_task
  00154	3b 45 08	 cmp	 eax, DWORD PTR _mission$[ebp]
  00157	0f 85 b6 00 00
	00		 jne	 $LN12@show_debri
  0015d	83 7d 08 00	 cmp	 DWORD PTR _mission$[ebp], 0
  00161	74 0d		 je	 SHORT $LN30@show_debri
  00163	8b 45 08	 mov	 eax, DWORD PTR _mission$[ebp]
  00166	8b 08		 mov	 ecx, DWORD PTR [eax]
  00168	89 8d e8 fa ff
	ff		 mov	 DWORD PTR tv152[ebp], ecx
  0016e	eb 20		 jmp	 SHORT $LN31@show_debri
$LN30@show_debri:
  00170	68 8e 00 00 00	 push	 142			; 0000008eH
  00175	68 00 00 00 00	 push	 OFFSET ??_C@_0EN@MKENPJLB@c?3?2users?2nhv90?2projects?2eech?2ap@
  0017a	8b 15 00 00 00
	00		 mov	 edx, DWORD PTR ?null_entity_pointer_message@@3PBDB ; null_entity_pointer_message
  00180	52		 push	 edx
  00181	e8 00 00 00 00	 call	 ?process_assert@@YGXPBD0H@Z ; process_assert
  00186	c7 85 e8 fa ff
	ff 00 00 00 00	 mov	 DWORD PTR tv152[ebp], 0
$LN31@show_debri:
  00190	b8 01 00 00 00	 mov	 eax, 1
  00195	85 c0		 test	 eax, eax
  00197	74 0c		 je	 SHORT $LN32@show_debri
  00199	c7 85 e4 fa ff
	ff e7 00 00 00	 mov	 DWORD PTR tv159[ebp], 231 ; 000000e7H
  001a3	eb 20		 jmp	 SHORT $LN33@show_debri
$LN32@show_debri:
  001a5	68 8e 00 00 00	 push	 142			; 0000008eH
  001aa	68 00 00 00 00	 push	 OFFSET ??_C@_0EN@MKENPJLB@c?3?2users?2nhv90?2projects?2eech?2ap@
  001af	8b 0d 00 00 00
	00		 mov	 ecx, DWORD PTR ?overload_invalid_int_type_message@@3PBDB ; overload_invalid_int_type_message
  001b5	51		 push	 ecx
  001b6	e8 00 00 00 00	 call	 ?process_assert@@YGXPBD0H@Z ; process_assert
  001bb	c7 85 e4 fa ff
	ff 00 00 00 00	 mov	 DWORD PTR tv159[ebp], 0
$LN33@show_debri:
  001c5	68 e7 00 00 00	 push	 231			; 000000e7H
  001ca	8b 55 08	 mov	 edx, DWORD PTR _mission$[ebp]
  001cd	52		 push	 edx
  001ce	69 85 e8 fa ff
	ff 5c 04 00 00	 imul	 eax, DWORD PTR tv152[ebp], 1116
  001d8	8b 8d e4 fa ff
	ff		 mov	 ecx, DWORD PTR tv159[ebp]
  001de	8b 94 88 00 00
	00 00		 mov	 edx, DWORD PTR ?fn_get_local_entity_int_value@@3PAY0BBH@P6GHPAUENTITY@@W4INT_TYPES@@@ZA[eax+ecx*4]
  001e5	ff d2		 call	 edx
  001e7	85 c0		 test	 eax, eax
  001e9	75 28		 jne	 SHORT $LN12@show_debri

; 143  : 	{
; 144  : 		//
; 145  : 		// Awaiting Final Debrief
; 146  : 		//
; 147  : 
; 148  : 		add_to_pop_up_list_with_word_wrap (get_trans ("NO_DEBRIEF_AVAILABLE"), debriefing_text_list, NULL, 0, UI_FONT_ARIAL_10, ui_ingame_dead_text_colour);

  001eb	a1 00 00 00 00	 mov	 eax, DWORD PTR ?ui_ingame_dead_text_colour@@3UREAL_COLOUR@@A ; ui_ingame_dead_text_colour
  001f0	50		 push	 eax
  001f1	6a 00		 push	 0
  001f3	6a 00		 push	 0
  001f5	6a 00		 push	 0
  001f7	8b 0d 00 00 00
	00		 mov	 ecx, DWORD PTR ?debriefing_text_list@@3PAUUI_OBJECT@@A
  001fd	51		 push	 ecx
  001fe	68 00 00 00 00	 push	 OFFSET ??_C@_0BF@LNDABBDG@NO_DEBRIEF_AVAILABLE@
  00203	e8 00 00 00 00	 call	 ?get_trans@@YGPBDPBD@Z	; get_trans
  00208	50		 push	 eax
  00209	e8 00 00 00 00	 call	 ?add_to_pop_up_list_with_word_wrap@@YGPAUUI_OBJECT@@PBDPAU1@1HHUREAL_COLOUR@@@Z ; add_to_pop_up_list_with_word_wrap

; 149  : 	}
; 150  : 	else

  0020e	e9 e4 03 00 00	 jmp	 $LN22@show_debri
$LN12@show_debri:

; 151  : 	{
; 152  : 		//
; 153  : 		// Final Debriefing
; 154  : 		//
; 155  : 		
; 156  : 		get_debriefing_text (mission, &debrief, &ff_debrief);

  00213	8d 85 e4 fb ff
	ff		 lea	 eax, DWORD PTR _ff_debrief$[ebp]
  00219	50		 push	 eax
  0021a	8d 8d e8 fb ff
	ff		 lea	 ecx, DWORD PTR _debrief$[ebp]
  00220	51		 push	 ecx
  00221	8b 55 08	 mov	 edx, DWORD PTR _mission$[ebp]
  00224	52		 push	 edx
  00225	e8 00 00 00 00	 call	 ?get_debriefing_text@@YGHPAUENTITY@@PAPAD1@Z ; get_debriefing_text

; 157  : 	
; 158  : 		if (debrief)

  0022a	83 bd e8 fb ff
	ff 00		 cmp	 DWORD PTR _debrief$[ebp], 0
  00231	74 21		 je	 SHORT $LN14@show_debri

; 159  : 		{
; 160  : 		
; 161  : 			add_to_pop_up_list_with_word_wrap (debrief, debriefing_text_list, NULL, 0, UI_FONT_ARIAL_10, ui_ingame_dead_text_colour);

  00233	a1 00 00 00 00	 mov	 eax, DWORD PTR ?ui_ingame_dead_text_colour@@3UREAL_COLOUR@@A ; ui_ingame_dead_text_colour
  00238	50		 push	 eax
  00239	6a 00		 push	 0
  0023b	6a 00		 push	 0
  0023d	6a 00		 push	 0
  0023f	8b 0d 00 00 00
	00		 mov	 ecx, DWORD PTR ?debriefing_text_list@@3PAUUI_OBJECT@@A
  00245	51		 push	 ecx
  00246	8b 95 e8 fb ff
	ff		 mov	 edx, DWORD PTR _debrief$[ebp]
  0024c	52		 push	 edx
  0024d	e8 00 00 00 00	 call	 ?add_to_pop_up_list_with_word_wrap@@YGPAUUI_OBJECT@@PBDPAU1@1HHUREAL_COLOUR@@@Z ; add_to_pop_up_list_with_word_wrap

; 162  : 		}
; 163  : 		else

  00252	eb 23		 jmp	 SHORT $LN15@show_debri
$LN14@show_debri:

; 164  : 		{
; 165  : 	
; 166  : 			add_to_pop_up_list_with_word_wrap (get_trans ("NO_DEBRIEF_AVAILABLE"), debriefing_text_list, NULL, 0, UI_FONT_ARIAL_10, ui_ingame_dead_text_colour);

  00254	a1 00 00 00 00	 mov	 eax, DWORD PTR ?ui_ingame_dead_text_colour@@3UREAL_COLOUR@@A ; ui_ingame_dead_text_colour
  00259	50		 push	 eax
  0025a	6a 00		 push	 0
  0025c	6a 00		 push	 0
  0025e	6a 00		 push	 0
  00260	8b 0d 00 00 00
	00		 mov	 ecx, DWORD PTR ?debriefing_text_list@@3PAUUI_OBJECT@@A
  00266	51		 push	 ecx
  00267	68 00 00 00 00	 push	 OFFSET ??_C@_0BF@LNDABBDG@NO_DEBRIEF_AVAILABLE@
  0026c	e8 00 00 00 00	 call	 ?get_trans@@YGPBDPBD@Z	; get_trans
  00271	50		 push	 eax
  00272	e8 00 00 00 00	 call	 ?add_to_pop_up_list_with_word_wrap@@YGPAUUI_OBJECT@@PBDPAU1@1HHUREAL_COLOUR@@@Z ; add_to_pop_up_list_with_word_wrap
$LN15@show_debri:

; 167  : 		}
; 168  : 	
; 169  : 		//
; 170  : 		// check for friendly fire
; 171  : 		//
; 172  : 	
; 173  : 		if (ff_debrief)

  00277	83 bd e4 fb ff
	ff 00		 cmp	 DWORD PTR _ff_debrief$[ebp], 0
  0027e	74 1f		 je	 SHORT $LN16@show_debri

; 174  : 		{
; 175  : 	
; 176  : 			add_to_pop_up_list_with_word_wrap (ff_debrief, debriefing_text_list, NULL, 0, UI_FONT_ARIAL_10, ui_ingame_dead_text_colour);

  00280	a1 00 00 00 00	 mov	 eax, DWORD PTR ?ui_ingame_dead_text_colour@@3UREAL_COLOUR@@A ; ui_ingame_dead_text_colour
  00285	50		 push	 eax
  00286	6a 00		 push	 0
  00288	6a 00		 push	 0
  0028a	6a 00		 push	 0
  0028c	8b 0d 00 00 00
	00		 mov	 ecx, DWORD PTR ?debriefing_text_list@@3PAUUI_OBJECT@@A
  00292	51		 push	 ecx
  00293	8b 95 e4 fb ff
	ff		 mov	 edx, DWORD PTR _ff_debrief$[ebp]
  00299	52		 push	 edx
  0029a	e8 00 00 00 00	 call	 ?add_to_pop_up_list_with_word_wrap@@YGPAUUI_OBJECT@@PBDPAU1@1HHUREAL_COLOUR@@@Z ; add_to_pop_up_list_with_word_wrap
$LN16@show_debri:

; 177  : 		}
; 178  : 	
; 179  : 		//
; 180  : 		// check for medals
; 181  : 		//
; 182  : 	
; 183  : 		awarded_medals = get_local_entity_int_value (mission, INT_TYPE_AWARDED_MEDALS);

  0029f	83 7d 08 00	 cmp	 DWORD PTR _mission$[ebp], 0
  002a3	74 0d		 je	 SHORT $LN34@show_debri
  002a5	8b 45 08	 mov	 eax, DWORD PTR _mission$[ebp]
  002a8	8b 08		 mov	 ecx, DWORD PTR [eax]
  002aa	89 8d e8 fa ff
	ff		 mov	 DWORD PTR tv205[ebp], ecx
  002b0	eb 24		 jmp	 SHORT $LN35@show_debri
$LN34@show_debri:
  002b2	8b 15 00 00 00
	00		 mov	 edx, DWORD PTR ?__LINE__Var@?0??show_debriefing_page@@YGXPAUENTITY@@HH@Z@4JA
  002b8	83 c2 53	 add	 edx, 83			; 00000053H
  002bb	52		 push	 edx
  002bc	68 00 00 00 00	 push	 OFFSET ??_C@_0EN@MKENPJLB@c?3?2users?2nhv90?2projects?2eech?2ap@
  002c1	a1 00 00 00 00	 mov	 eax, DWORD PTR ?null_entity_pointer_message@@3PBDB ; null_entity_pointer_message
  002c6	50		 push	 eax
  002c7	e8 00 00 00 00	 call	 ?process_assert@@YGXPBD0H@Z ; process_assert
  002cc	c7 85 e8 fa ff
	ff 00 00 00 00	 mov	 DWORD PTR tv205[ebp], 0
$LN35@show_debri:
  002d6	b9 01 00 00 00	 mov	 ecx, 1
  002db	85 c9		 test	 ecx, ecx
  002dd	74 0c		 je	 SHORT $LN36@show_debri
  002df	c7 85 e4 fa ff
	ff 0d 00 00 00	 mov	 DWORD PTR tv213[ebp], 13 ; 0000000dH
  002e9	eb 24		 jmp	 SHORT $LN37@show_debri
$LN36@show_debri:
  002eb	8b 15 00 00 00
	00		 mov	 edx, DWORD PTR ?__LINE__Var@?0??show_debriefing_page@@YGXPAUENTITY@@HH@Z@4JA
  002f1	83 c2 53	 add	 edx, 83			; 00000053H
  002f4	52		 push	 edx
  002f5	68 00 00 00 00	 push	 OFFSET ??_C@_0EN@MKENPJLB@c?3?2users?2nhv90?2projects?2eech?2ap@
  002fa	a1 00 00 00 00	 mov	 eax, DWORD PTR ?overload_invalid_int_type_message@@3PBDB ; overload_invalid_int_type_message
  002ff	50		 push	 eax
  00300	e8 00 00 00 00	 call	 ?process_assert@@YGXPBD0H@Z ; process_assert
  00305	c7 85 e4 fa ff
	ff 00 00 00 00	 mov	 DWORD PTR tv213[ebp], 0
$LN37@show_debri:
  0030f	6a 0d		 push	 13			; 0000000dH
  00311	8b 4d 08	 mov	 ecx, DWORD PTR _mission$[ebp]
  00314	51		 push	 ecx
  00315	69 95 e8 fa ff
	ff 5c 04 00 00	 imul	 edx, DWORD PTR tv205[ebp], 1116
  0031f	8b 85 e4 fa ff
	ff		 mov	 eax, DWORD PTR tv213[ebp]
  00325	8b 8c 82 00 00
	00 00		 mov	 ecx, DWORD PTR ?fn_get_local_entity_int_value@@3PAY0BBH@P6GHPAUENTITY@@W4INT_TYPES@@@ZA[edx+eax*4]
  0032c	ff d1		 call	 ecx
  0032e	89 45 f8	 mov	 DWORD PTR _awarded_medals$[ebp], eax

; 184  : 	
; 185  : 		for (medal = MEDAL_TYPE_NONE; medal < NUM_MEDAL_TYPES; medal ++)

  00331	c7 45 fc 00 00
	00 00		 mov	 DWORD PTR _medal$[ebp], 0
  00338	eb 09		 jmp	 SHORT $LN4@show_debri
$LN2@show_debri:
  0033a	8b 45 fc	 mov	 eax, DWORD PTR _medal$[ebp]
  0033d	83 c0 01	 add	 eax, 1
  00340	89 45 fc	 mov	 DWORD PTR _medal$[ebp], eax
$LN4@show_debri:
  00343	83 7d fc 0d	 cmp	 DWORD PTR _medal$[ebp], 13 ; 0000000dH
  00347	0f 8d 0f 01 00
	00		 jge	 $LN3@show_debri

; 186  : 		{
; 187  : 	
; 188  : 			if (awarded_medals & (1 << medal))

  0034d	b8 01 00 00 00	 mov	 eax, 1
  00352	8b 4d fc	 mov	 ecx, DWORD PTR _medal$[ebp]
  00355	d3 e0		 shl	 eax, cl
  00357	23 45 f8	 and	 eax, DWORD PTR _awarded_medals$[ebp]
  0035a	0f 84 f7 00 00
	00		 je	 $LN19@show_debri

; 189  : 			{
; 190  : 
; 191  : 				debug_log ("CA_DBF: Awarding Medal %s for task %s (%d)", medal_type_names [medal], get_local_entity_string (mission, STRING_TYPE_FULL_NAME), get_local_entity_index (mission));

  00360	83 7d 08 00	 cmp	 DWORD PTR _mission$[ebp], 0
  00364	74 0d		 je	 SHORT $LN38@show_debri
  00366	8b 45 08	 mov	 eax, DWORD PTR _mission$[ebp]
  00369	8b 08		 mov	 ecx, DWORD PTR [eax]
  0036b	89 8d e8 fa ff
	ff		 mov	 DWORD PTR tv233[ebp], ecx
  00371	eb 24		 jmp	 SHORT $LN39@show_debri
$LN38@show_debri:
  00373	8b 15 00 00 00
	00		 mov	 edx, DWORD PTR ?__LINE__Var@?0??show_debriefing_page@@YGXPAUENTITY@@HH@Z@4JA
  00379	83 c2 5b	 add	 edx, 91			; 0000005bH
  0037c	52		 push	 edx
  0037d	68 00 00 00 00	 push	 OFFSET ??_C@_0EN@MKENPJLB@c?3?2users?2nhv90?2projects?2eech?2ap@
  00382	a1 00 00 00 00	 mov	 eax, DWORD PTR ?null_entity_pointer_message@@3PBDB ; null_entity_pointer_message
  00387	50		 push	 eax
  00388	e8 00 00 00 00	 call	 ?process_assert@@YGXPBD0H@Z ; process_assert
  0038d	c7 85 e8 fa ff
	ff 00 00 00 00	 mov	 DWORD PTR tv233[ebp], 0
$LN39@show_debri:
  00397	b9 01 00 00 00	 mov	 ecx, 1
  0039c	85 c9		 test	 ecx, ecx
  0039e	74 0c		 je	 SHORT $LN40@show_debri
  003a0	c7 85 e4 fa ff
	ff 03 00 00 00	 mov	 DWORD PTR tv241[ebp], 3
  003aa	eb 24		 jmp	 SHORT $LN41@show_debri
$LN40@show_debri:
  003ac	8b 15 00 00 00
	00		 mov	 edx, DWORD PTR ?__LINE__Var@?0??show_debriefing_page@@YGXPAUENTITY@@HH@Z@4JA
  003b2	83 c2 5b	 add	 edx, 91			; 0000005bH
  003b5	52		 push	 edx
  003b6	68 00 00 00 00	 push	 OFFSET ??_C@_0EN@MKENPJLB@c?3?2users?2nhv90?2projects?2eech?2ap@
  003bb	a1 00 00 00 00	 mov	 eax, DWORD PTR ?overload_invalid_string_type_message@@3PBDB ; overload_invalid_string_type_message
  003c0	50		 push	 eax
  003c1	e8 00 00 00 00	 call	 ?process_assert@@YGXPBD0H@Z ; process_assert
  003c6	c7 85 e4 fa ff
	ff 00 00 00 00	 mov	 DWORD PTR tv241[ebp], 0
$LN41@show_debri:
  003d0	8b 4d 08	 mov	 ecx, DWORD PTR _mission$[ebp]
  003d3	2b 0d 00 00 00
	00		 sub	 ecx, DWORD PTR ?entities@@3PAUENTITY@@A ; entities
  003d9	c1 f9 04	 sar	 ecx, 4
  003dc	51		 push	 ecx
  003dd	6a 03		 push	 3
  003df	8b 55 08	 mov	 edx, DWORD PTR _mission$[ebp]
  003e2	52		 push	 edx
  003e3	6b 85 e8 fa ff
	ff 34		 imul	 eax, DWORD PTR tv233[ebp], 52
  003ea	8b 8d e4 fa ff
	ff		 mov	 ecx, DWORD PTR tv241[ebp]
  003f0	8b 94 88 00 00
	00 00		 mov	 edx, DWORD PTR ?fn_get_local_entity_string@@3PAY0N@P6GPBDPAUENTITY@@W4STRING_TYPES@@@ZA[eax+ecx*4]
  003f7	ff d2		 call	 edx
  003f9	50		 push	 eax
  003fa	8b 45 fc	 mov	 eax, DWORD PTR _medal$[ebp]
  003fd	8b 0c 85 00 00
	00 00		 mov	 ecx, DWORD PTR ?medal_type_names@@3PAPBDA[eax*4]
  00404	51		 push	 ecx
  00405	68 00 00 00 00	 push	 OFFSET ??_C@_0CL@HAAKHKGP@CA_DBF?3?5Awarding?5Medal?5?$CFs?5for?5t@
  0040a	e8 00 00 00 00	 call	 ?debug_log@@YAXPBDZZ	; debug_log
  0040f	83 c4 10	 add	 esp, 16			; 00000010H

; 192  : 			
; 193  : 				if (get_medal_briefing_text (mission, medal, medal_text))

  00412	8d 85 ec fb ff
	ff		 lea	 eax, DWORD PTR _medal_text$[ebp]
  00418	50		 push	 eax
  00419	8b 4d fc	 mov	 ecx, DWORD PTR _medal$[ebp]
  0041c	51		 push	 ecx
  0041d	8b 55 08	 mov	 edx, DWORD PTR _mission$[ebp]
  00420	52		 push	 edx
  00421	e8 00 00 00 00	 call	 ?get_medal_briefing_text@@YGHPAUENTITY@@HPAD@Z ; get_medal_briefing_text
  00426	85 c0		 test	 eax, eax
  00428	74 15		 je	 SHORT $LN18@show_debri

; 194  : 				{
; 195  : 			
; 196  : 					add_briefing_text_to_list (debriefing_text_list, medal_text);

  0042a	8d 85 ec fb ff
	ff		 lea	 eax, DWORD PTR _medal_text$[ebp]
  00430	50		 push	 eax
  00431	8b 0d 00 00 00
	00		 mov	 ecx, DWORD PTR ?debriefing_text_list@@3PAUUI_OBJECT@@A
  00437	51		 push	 ecx
  00438	e8 00 00 00 00	 call	 ?add_briefing_text_to_list@@YGXPAUUI_OBJECT@@PBD@Z ; add_briefing_text_to_list

; 197  : 				}
; 198  : 				else

  0043d	eb 18		 jmp	 SHORT $LN19@show_debri
$LN18@show_debri:

; 199  : 				{
; 200  : 	
; 201  : 					debug_log ("CA_DBF: no text for medal award : %s", medal_type_names [medal]);

  0043f	8b 45 fc	 mov	 eax, DWORD PTR _medal$[ebp]
  00442	8b 0c 85 00 00
	00 00		 mov	 ecx, DWORD PTR ?medal_type_names@@3PAPBDA[eax*4]
  00449	51		 push	 ecx
  0044a	68 00 00 00 00	 push	 OFFSET ??_C@_0CF@CNIJACBI@CA_DBF?3?5no?5text?5for?5medal?5award@
  0044f	e8 00 00 00 00	 call	 ?debug_log@@YAXPBDZZ	; debug_log
  00454	83 c4 08	 add	 esp, 8
$LN19@show_debri:

; 202  : 				}
; 203  : 			}
; 204  : 		}

  00457	e9 de fe ff ff	 jmp	 $LN2@show_debri
$LN3@show_debri:

; 205  : 	
; 206  : 		//
; 207  : 		// check for promotion
; 208  : 		//
; 209  : 	
; 210  : 		awarded_promotion = get_local_entity_int_value (mission, INT_TYPE_AWARDED_PROMOTION);

  0045c	83 7d 08 00	 cmp	 DWORD PTR _mission$[ebp], 0
  00460	74 0d		 je	 SHORT $LN42@show_debri
  00462	8b 45 08	 mov	 eax, DWORD PTR _mission$[ebp]
  00465	8b 08		 mov	 ecx, DWORD PTR [eax]
  00467	89 8d e8 fa ff
	ff		 mov	 DWORD PTR tv269[ebp], ecx
  0046d	eb 24		 jmp	 SHORT $LN43@show_debri
$LN42@show_debri:
  0046f	8b 15 00 00 00
	00		 mov	 edx, DWORD PTR ?__LINE__Var@?0??show_debriefing_page@@YGXPAUENTITY@@HH@Z@4JA
  00475	83 c2 6e	 add	 edx, 110		; 0000006eH
  00478	52		 push	 edx
  00479	68 00 00 00 00	 push	 OFFSET ??_C@_0EN@MKENPJLB@c?3?2users?2nhv90?2projects?2eech?2ap@
  0047e	a1 00 00 00 00	 mov	 eax, DWORD PTR ?null_entity_pointer_message@@3PBDB ; null_entity_pointer_message
  00483	50		 push	 eax
  00484	e8 00 00 00 00	 call	 ?process_assert@@YGXPBD0H@Z ; process_assert
  00489	c7 85 e8 fa ff
	ff 00 00 00 00	 mov	 DWORD PTR tv269[ebp], 0
$LN43@show_debri:
  00493	b9 01 00 00 00	 mov	 ecx, 1
  00498	85 c9		 test	 ecx, ecx
  0049a	74 0c		 je	 SHORT $LN44@show_debri
  0049c	c7 85 e4 fa ff
	ff 0e 00 00 00	 mov	 DWORD PTR tv277[ebp], 14 ; 0000000eH
  004a6	eb 24		 jmp	 SHORT $LN45@show_debri
$LN44@show_debri:
  004a8	8b 15 00 00 00
	00		 mov	 edx, DWORD PTR ?__LINE__Var@?0??show_debriefing_page@@YGXPAUENTITY@@HH@Z@4JA
  004ae	83 c2 6e	 add	 edx, 110		; 0000006eH
  004b1	52		 push	 edx
  004b2	68 00 00 00 00	 push	 OFFSET ??_C@_0EN@MKENPJLB@c?3?2users?2nhv90?2projects?2eech?2ap@
  004b7	a1 00 00 00 00	 mov	 eax, DWORD PTR ?overload_invalid_int_type_message@@3PBDB ; overload_invalid_int_type_message
  004bc	50		 push	 eax
  004bd	e8 00 00 00 00	 call	 ?process_assert@@YGXPBD0H@Z ; process_assert
  004c2	c7 85 e4 fa ff
	ff 00 00 00 00	 mov	 DWORD PTR tv277[ebp], 0
$LN45@show_debri:
  004cc	6a 0e		 push	 14			; 0000000eH
  004ce	8b 4d 08	 mov	 ecx, DWORD PTR _mission$[ebp]
  004d1	51		 push	 ecx
  004d2	69 95 e8 fa ff
	ff 5c 04 00 00	 imul	 edx, DWORD PTR tv269[ebp], 1116
  004dc	8b 85 e4 fa ff
	ff		 mov	 eax, DWORD PTR tv277[ebp]
  004e2	8b 8c 82 00 00
	00 00		 mov	 ecx, DWORD PTR ?fn_get_local_entity_int_value@@3PAY0BBH@P6GHPAUENTITY@@W4INT_TYPES@@@ZA[edx+eax*4]
  004e9	ff d1		 call	 ecx
  004eb	89 45 f4	 mov	 DWORD PTR _awarded_promotion$[ebp], eax

; 211  : 	
; 212  : 		if (awarded_promotion != PILOT_RANK_NONE)

  004ee	83 7d f4 00	 cmp	 DWORD PTR _awarded_promotion$[ebp], 0
  004f2	0f 84 ff 00 00
	00		 je	 $LN22@show_debri

; 213  : 		{
; 214  : 
; 215  : 			debug_log ("CA_DBF: Awarding Promotion %s for task %s (%d)", pilot_rank_names [awarded_promotion], get_local_entity_string (mission, STRING_TYPE_FULL_NAME), get_local_entity_index (mission));

  004f8	83 7d 08 00	 cmp	 DWORD PTR _mission$[ebp], 0
  004fc	74 0d		 je	 SHORT $LN46@show_debri
  004fe	8b 45 08	 mov	 eax, DWORD PTR _mission$[ebp]
  00501	8b 08		 mov	 ecx, DWORD PTR [eax]
  00503	89 8d e8 fa ff
	ff		 mov	 DWORD PTR tv293[ebp], ecx
  00509	eb 24		 jmp	 SHORT $LN47@show_debri
$LN46@show_debri:
  0050b	8b 15 00 00 00
	00		 mov	 edx, DWORD PTR ?__LINE__Var@?0??show_debriefing_page@@YGXPAUENTITY@@HH@Z@4JA
  00511	83 c2 73	 add	 edx, 115		; 00000073H
  00514	52		 push	 edx
  00515	68 00 00 00 00	 push	 OFFSET ??_C@_0EN@MKENPJLB@c?3?2users?2nhv90?2projects?2eech?2ap@
  0051a	a1 00 00 00 00	 mov	 eax, DWORD PTR ?null_entity_pointer_message@@3PBDB ; null_entity_pointer_message
  0051f	50		 push	 eax
  00520	e8 00 00 00 00	 call	 ?process_assert@@YGXPBD0H@Z ; process_assert
  00525	c7 85 e8 fa ff
	ff 00 00 00 00	 mov	 DWORD PTR tv293[ebp], 0
$LN47@show_debri:
  0052f	b9 01 00 00 00	 mov	 ecx, 1
  00534	85 c9		 test	 ecx, ecx
  00536	74 0c		 je	 SHORT $LN48@show_debri
  00538	c7 85 e4 fa ff
	ff 03 00 00 00	 mov	 DWORD PTR tv301[ebp], 3
  00542	eb 24		 jmp	 SHORT $LN49@show_debri
$LN48@show_debri:
  00544	8b 15 00 00 00
	00		 mov	 edx, DWORD PTR ?__LINE__Var@?0??show_debriefing_page@@YGXPAUENTITY@@HH@Z@4JA
  0054a	83 c2 73	 add	 edx, 115		; 00000073H
  0054d	52		 push	 edx
  0054e	68 00 00 00 00	 push	 OFFSET ??_C@_0EN@MKENPJLB@c?3?2users?2nhv90?2projects?2eech?2ap@
  00553	a1 00 00 00 00	 mov	 eax, DWORD PTR ?overload_invalid_string_type_message@@3PBDB ; overload_invalid_string_type_message
  00558	50		 push	 eax
  00559	e8 00 00 00 00	 call	 ?process_assert@@YGXPBD0H@Z ; process_assert
  0055e	c7 85 e4 fa ff
	ff 00 00 00 00	 mov	 DWORD PTR tv301[ebp], 0
$LN49@show_debri:
  00568	8b 4d 08	 mov	 ecx, DWORD PTR _mission$[ebp]
  0056b	2b 0d 00 00 00
	00		 sub	 ecx, DWORD PTR ?entities@@3PAUENTITY@@A ; entities
  00571	c1 f9 04	 sar	 ecx, 4
  00574	51		 push	 ecx
  00575	6a 03		 push	 3
  00577	8b 55 08	 mov	 edx, DWORD PTR _mission$[ebp]
  0057a	52		 push	 edx
  0057b	6b 85 e8 fa ff
	ff 34		 imul	 eax, DWORD PTR tv293[ebp], 52
  00582	8b 8d e4 fa ff
	ff		 mov	 ecx, DWORD PTR tv301[ebp]
  00588	8b 94 88 00 00
	00 00		 mov	 edx, DWORD PTR ?fn_get_local_entity_string@@3PAY0N@P6GPBDPAUENTITY@@W4STRING_TYPES@@@ZA[eax+ecx*4]
  0058f	ff d2		 call	 edx
  00591	50		 push	 eax
  00592	8b 45 f4	 mov	 eax, DWORD PTR _awarded_promotion$[ebp]
  00595	8b 0c 85 00 00
	00 00		 mov	 ecx, DWORD PTR ?pilot_rank_names@@3PAPBDA[eax*4]
  0059c	51		 push	 ecx
  0059d	68 00 00 00 00	 push	 OFFSET ??_C@_0CP@JGOBOLFL@CA_DBF?3?5Awarding?5Promotion?5?$CFs?5f@
  005a2	e8 00 00 00 00	 call	 ?debug_log@@YAXPBDZZ	; debug_log
  005a7	83 c4 10	 add	 esp, 16			; 00000010H

; 216  : 		
; 217  : 			if (get_promotion_briefing_text (mission, awarded_promotion, medal_text))

  005aa	8d 85 ec fb ff
	ff		 lea	 eax, DWORD PTR _medal_text$[ebp]
  005b0	50		 push	 eax
  005b1	8b 4d f4	 mov	 ecx, DWORD PTR _awarded_promotion$[ebp]
  005b4	51		 push	 ecx
  005b5	8b 55 08	 mov	 edx, DWORD PTR _mission$[ebp]
  005b8	52		 push	 edx
  005b9	e8 00 00 00 00	 call	 ?get_promotion_briefing_text@@YGHPAUENTITY@@HPAD@Z ; get_promotion_briefing_text
  005be	85 c0		 test	 eax, eax
  005c0	74 1d		 je	 SHORT $LN21@show_debri

; 218  : 			{
; 219  : 		
; 220  : 				add_briefing_text_to_list (debriefing_text_list, &medal_text[0]);

  005c2	b8 01 00 00 00	 mov	 eax, 1
  005c7	6b c8 00	 imul	 ecx, eax, 0
  005ca	8d 94 0d ec fb
	ff ff		 lea	 edx, DWORD PTR _medal_text$[ebp+ecx]
  005d1	52		 push	 edx
  005d2	a1 00 00 00 00	 mov	 eax, DWORD PTR ?debriefing_text_list@@3PAUUI_OBJECT@@A
  005d7	50		 push	 eax
  005d8	e8 00 00 00 00	 call	 ?add_briefing_text_to_list@@YGXPAUUI_OBJECT@@PBD@Z ; add_briefing_text_to_list

; 221  : 			}
; 222  : 			else

  005dd	eb 18		 jmp	 SHORT $LN22@show_debri
$LN21@show_debri:

; 223  : 			{
; 224  : 
; 225  : 				debug_log ("CA_DBF: no text for promotion award : %s", pilot_rank_names [awarded_promotion]);

  005df	8b 45 f4	 mov	 eax, DWORD PTR _awarded_promotion$[ebp]
  005e2	8b 0c 85 00 00
	00 00		 mov	 ecx, DWORD PTR ?pilot_rank_names@@3PAPBDA[eax*4]
  005e9	51		 push	 ecx
  005ea	68 00 00 00 00	 push	 OFFSET ??_C@_0CJ@JLGEDIIK@CA_DBF?3?5no?5text?5for?5promotion?5a@
  005ef	e8 00 00 00 00	 call	 ?debug_log@@YAXPBDZZ	; debug_log
  005f4	83 c4 08	 add	 esp, 8
$LN22@show_debri:

; 226  : 			}
; 227  : 		}
; 228  : 	}
; 229  : 		
; 230  : 	resize_briefing_list_size (debriefing_text_list);

  005f7	a1 00 00 00 00	 mov	 eax, DWORD PTR ?debriefing_text_list@@3PAUUI_OBJECT@@A
  005fc	50		 push	 eax
  005fd	e8 00 00 00 00	 call	 ?resize_briefing_list_size@@YGXPAUUI_OBJECT@@@Z ; resize_briefing_list_size

; 231  : 	
; 232  : 	//
; 233  : 	// 
; 234  : 	//
; 235  : 
; 236  : 	sprintf (s, "%s", get_trans ("Debriefing"));

  00602	68 00 00 00 00	 push	 OFFSET ??_C@_0L@CHHJGCHE@Debriefing@
  00607	e8 00 00 00 00	 call	 ?get_trans@@YGPBDPBD@Z	; get_trans
  0060c	50		 push	 eax
  0060d	68 00 00 00 00	 push	 OFFSET ??_C@_02DKCKIIND@?$CFs@
  00612	68 00 00 00 00	 push	 OFFSET ?s@?1??show_debriefing_page@@YGXPAUENTITY@@HH@Z@4PADA
  00617	e8 00 00 00 00	 call	 _sprintf
  0061c	83 c4 0c	 add	 esp, 12			; 0000000cH

; 237  : 
; 238  : 	set_ui_object_text (debriefing_page_title, s);

  0061f	68 00 00 00 00	 push	 OFFSET ?s@?1??show_debriefing_page@@YGXPAUENTITY@@HH@Z@4PADA
  00624	a1 00 00 00 00	 mov	 eax, DWORD PTR ?debriefing_page_title@@3PAUUI_OBJECT@@A
  00629	50		 push	 eax
  0062a	8b 0d 00 00 00
	00		 mov	 ecx, DWORD PTR ?debriefing_page_title@@3PAUUI_OBJECT@@A
  00630	8b 11		 mov	 edx, DWORD PTR [ecx]
  00632	8b 04 95 00 00
	00 00		 mov	 eax, DWORD PTR ?fn_set_ui_object_text@@3PAP6GXPAUUI_OBJECT@@PBD@ZA[edx*4]
  00639	ff d0		 call	 eax

; 239  : 
; 240  : 	sprintf (s, "%s #%d", get_trans (get_local_entity_string (mission, STRING_TYPE_FULL_NAME)), get_local_entity_int_value (mission, INT_TYPE_TASK_ID));

  0063b	83 7d 08 00	 cmp	 DWORD PTR _mission$[ebp], 0
  0063f	74 0d		 je	 SHORT $LN50@show_debri
  00641	8b 45 08	 mov	 eax, DWORD PTR _mission$[ebp]
  00644	8b 08		 mov	 ecx, DWORD PTR [eax]
  00646	89 8d e8 fa ff
	ff		 mov	 DWORD PTR tv343[ebp], ecx
  0064c	eb 27		 jmp	 SHORT $LN51@show_debri
$LN50@show_debri:
  0064e	8b 15 00 00 00
	00		 mov	 edx, DWORD PTR ?__LINE__Var@?0??show_debriefing_page@@YGXPAUENTITY@@HH@Z@4JA
  00654	81 c2 8c 00 00
	00		 add	 edx, 140		; 0000008cH
  0065a	52		 push	 edx
  0065b	68 00 00 00 00	 push	 OFFSET ??_C@_0EN@MKENPJLB@c?3?2users?2nhv90?2projects?2eech?2ap@
  00660	a1 00 00 00 00	 mov	 eax, DWORD PTR ?null_entity_pointer_message@@3PBDB ; null_entity_pointer_message
  00665	50		 push	 eax
  00666	e8 00 00 00 00	 call	 ?process_assert@@YGXPBD0H@Z ; process_assert
  0066b	c7 85 e8 fa ff
	ff 00 00 00 00	 mov	 DWORD PTR tv343[ebp], 0
$LN51@show_debri:
  00675	b9 01 00 00 00	 mov	 ecx, 1
  0067a	85 c9		 test	 ecx, ecx
  0067c	74 0c		 je	 SHORT $LN52@show_debri
  0067e	c7 85 e4 fa ff
	ff dc 00 00 00	 mov	 DWORD PTR tv351[ebp], 220 ; 000000dcH
  00688	eb 27		 jmp	 SHORT $LN53@show_debri
$LN52@show_debri:
  0068a	8b 15 00 00 00
	00		 mov	 edx, DWORD PTR ?__LINE__Var@?0??show_debriefing_page@@YGXPAUENTITY@@HH@Z@4JA
  00690	81 c2 8c 00 00
	00		 add	 edx, 140		; 0000008cH
  00696	52		 push	 edx
  00697	68 00 00 00 00	 push	 OFFSET ??_C@_0EN@MKENPJLB@c?3?2users?2nhv90?2projects?2eech?2ap@
  0069c	a1 00 00 00 00	 mov	 eax, DWORD PTR ?overload_invalid_int_type_message@@3PBDB ; overload_invalid_int_type_message
  006a1	50		 push	 eax
  006a2	e8 00 00 00 00	 call	 ?process_assert@@YGXPBD0H@Z ; process_assert
  006a7	c7 85 e4 fa ff
	ff 00 00 00 00	 mov	 DWORD PTR tv351[ebp], 0
$LN53@show_debri:
  006b1	83 7d 08 00	 cmp	 DWORD PTR _mission$[ebp], 0
  006b5	74 0d		 je	 SHORT $LN54@show_debri
  006b7	8b 4d 08	 mov	 ecx, DWORD PTR _mission$[ebp]
  006ba	8b 11		 mov	 edx, DWORD PTR [ecx]
  006bc	89 95 e0 fa ff
	ff		 mov	 DWORD PTR tv365[ebp], edx
  006c2	eb 26		 jmp	 SHORT $LN55@show_debri
$LN54@show_debri:
  006c4	a1 00 00 00 00	 mov	 eax, DWORD PTR ?__LINE__Var@?0??show_debriefing_page@@YGXPAUENTITY@@HH@Z@4JA
  006c9	05 8c 00 00 00	 add	 eax, 140		; 0000008cH
  006ce	50		 push	 eax
  006cf	68 00 00 00 00	 push	 OFFSET ??_C@_0EN@MKENPJLB@c?3?2users?2nhv90?2projects?2eech?2ap@
  006d4	8b 0d 00 00 00
	00		 mov	 ecx, DWORD PTR ?null_entity_pointer_message@@3PBDB ; null_entity_pointer_message
  006da	51		 push	 ecx
  006db	e8 00 00 00 00	 call	 ?process_assert@@YGXPBD0H@Z ; process_assert
  006e0	c7 85 e0 fa ff
	ff 00 00 00 00	 mov	 DWORD PTR tv365[ebp], 0
$LN55@show_debri:
  006ea	ba 01 00 00 00	 mov	 edx, 1
  006ef	85 d2		 test	 edx, edx
  006f1	74 0c		 je	 SHORT $LN56@show_debri
  006f3	c7 85 dc fa ff
	ff 03 00 00 00	 mov	 DWORD PTR tv373[ebp], 3
  006fd	eb 26		 jmp	 SHORT $LN57@show_debri
$LN56@show_debri:
  006ff	a1 00 00 00 00	 mov	 eax, DWORD PTR ?__LINE__Var@?0??show_debriefing_page@@YGXPAUENTITY@@HH@Z@4JA
  00704	05 8c 00 00 00	 add	 eax, 140		; 0000008cH
  00709	50		 push	 eax
  0070a	68 00 00 00 00	 push	 OFFSET ??_C@_0EN@MKENPJLB@c?3?2users?2nhv90?2projects?2eech?2ap@
  0070f	8b 0d 00 00 00
	00		 mov	 ecx, DWORD PTR ?overload_invalid_string_type_message@@3PBDB ; overload_invalid_string_type_message
  00715	51		 push	 ecx
  00716	e8 00 00 00 00	 call	 ?process_assert@@YGXPBD0H@Z ; process_assert
  0071b	c7 85 dc fa ff
	ff 00 00 00 00	 mov	 DWORD PTR tv373[ebp], 0
$LN57@show_debri:
  00725	68 dc 00 00 00	 push	 220			; 000000dcH
  0072a	8b 55 08	 mov	 edx, DWORD PTR _mission$[ebp]
  0072d	52		 push	 edx
  0072e	69 85 e8 fa ff
	ff 5c 04 00 00	 imul	 eax, DWORD PTR tv343[ebp], 1116
  00738	8b 8d e4 fa ff
	ff		 mov	 ecx, DWORD PTR tv351[ebp]
  0073e	8b 94 88 00 00
	00 00		 mov	 edx, DWORD PTR ?fn_get_local_entity_int_value@@3PAY0BBH@P6GHPAUENTITY@@W4INT_TYPES@@@ZA[eax+ecx*4]
  00745	ff d2		 call	 edx
  00747	50		 push	 eax
  00748	6a 03		 push	 3
  0074a	8b 45 08	 mov	 eax, DWORD PTR _mission$[ebp]
  0074d	50		 push	 eax
  0074e	6b 8d e0 fa ff
	ff 34		 imul	 ecx, DWORD PTR tv365[ebp], 52
  00755	8b 95 dc fa ff
	ff		 mov	 edx, DWORD PTR tv373[ebp]
  0075b	8b 84 91 00 00
	00 00		 mov	 eax, DWORD PTR ?fn_get_local_entity_string@@3PAY0N@P6GPBDPAUENTITY@@W4STRING_TYPES@@@ZA[ecx+edx*4]
  00762	ff d0		 call	 eax
  00764	50		 push	 eax
  00765	e8 00 00 00 00	 call	 ?get_trans@@YGPBDPBD@Z	; get_trans
  0076a	50		 push	 eax
  0076b	68 00 00 00 00	 push	 OFFSET ??_C@_06DOPBEMKJ@?$CFs?5?$CD?$CFd@
  00770	68 00 00 00 00	 push	 OFFSET ?s@?1??show_debriefing_page@@YGXPAUENTITY@@HH@Z@4PADA
  00775	e8 00 00 00 00	 call	 _sprintf
  0077a	83 c4 10	 add	 esp, 16			; 00000010H

; 241  : 
; 242  : 	set_ui_object_text (debriefing_page_type, s);

  0077d	68 00 00 00 00	 push	 OFFSET ?s@?1??show_debriefing_page@@YGXPAUENTITY@@HH@Z@4PADA
  00782	a1 00 00 00 00	 mov	 eax, DWORD PTR ?debriefing_page_type@@3PAUUI_OBJECT@@A
  00787	50		 push	 eax
  00788	8b 0d 00 00 00
	00		 mov	 ecx, DWORD PTR ?debriefing_page_type@@3PAUUI_OBJECT@@A
  0078e	8b 11		 mov	 edx, DWORD PTR [ecx]
  00790	8b 04 95 00 00
	00 00		 mov	 eax, DWORD PTR ?fn_set_ui_object_text@@3PAP6GXPAUUI_OBJECT@@PBD@ZA[edx*4]
  00797	ff d0		 call	 eax

; 243  : 
; 244  : 	//
; 245  : 	// 2D MAP
; 246  : 	//
; 247  : 
; 248  : 	set_ui_object_item_number (page_map_area, get_local_entity_index (mission));

  00799	8b 45 08	 mov	 eax, DWORD PTR _mission$[ebp]
  0079c	2b 05 00 00 00
	00		 sub	 eax, DWORD PTR ?entities@@3PAUENTITY@@A ; entities
  007a2	c1 f8 04	 sar	 eax, 4
  007a5	50		 push	 eax
  007a6	8b 0d 00 00 00
	00		 mov	 ecx, DWORD PTR ?page_map_area@@3PAUUI_OBJECT@@A
  007ac	51		 push	 ecx
  007ad	8b 15 00 00 00
	00		 mov	 edx, DWORD PTR ?page_map_area@@3PAUUI_OBJECT@@A
  007b3	8b 02		 mov	 eax, DWORD PTR [edx]
  007b5	8b 0c 85 00 00
	00 00		 mov	 ecx, DWORD PTR ?fn_set_ui_object_item_number@@3PAP6GXPAUUI_OBJECT@@H@ZA[eax*4]
  007bc	ff d1		 call	 ecx

; 249  : 
; 250  : 	if (mission != previous)

  007be	8b 45 08	 mov	 eax, DWORD PTR _mission$[ebp]
  007c1	3b 45 ec	 cmp	 eax, DWORD PTR _previous$[ebp]
  007c4	0f 84 8a 04 00
	00		 je	 $LN23@show_debri

; 251  : 	{
; 252  : 		//
; 253  : 		// Autofit map to mission route
; 254  : 		//
; 255  : 
; 256  : 		vec3d
; 257  : 			min_pos,
; 258  : 			max_pos,
; 259  : 			*pos,
; 260  : 			*base_pos,
; 261  : 			*route_nodes;
; 262  : 
; 263  : 		int
; 264  : 			loop,
; 265  : 			route_length;
; 266  : 
; 267  : 		base = get_local_entity_parent (mission, get_local_task_list_type (mission));

  007ca	83 7d 08 00	 cmp	 DWORD PTR _mission$[ebp], 0
  007ce	74 0d		 je	 SHORT $LN58@show_debri
  007d0	8b 45 08	 mov	 eax, DWORD PTR _mission$[ebp]
  007d3	8b 08		 mov	 ecx, DWORD PTR [eax]
  007d5	89 8d e8 fa ff
	ff		 mov	 DWORD PTR tv401[ebp], ecx
  007db	eb 27		 jmp	 SHORT $LN59@show_debri
$LN58@show_debri:
  007dd	8b 15 00 00 00
	00		 mov	 edx, DWORD PTR ?__LINE__Var@?0??show_debriefing_page@@YGXPAUENTITY@@HH@Z@4JA
  007e3	81 c2 a7 00 00
	00		 add	 edx, 167		; 000000a7H
  007e9	52		 push	 edx
  007ea	68 00 00 00 00	 push	 OFFSET ??_C@_0EN@MKENPJLB@c?3?2users?2nhv90?2projects?2eech?2ap@
  007ef	a1 00 00 00 00	 mov	 eax, DWORD PTR ?null_entity_pointer_message@@3PBDB ; null_entity_pointer_message
  007f4	50		 push	 eax
  007f5	e8 00 00 00 00	 call	 ?process_assert@@YGXPBD0H@Z ; process_assert
  007fa	c7 85 e8 fa ff
	ff 00 00 00 00	 mov	 DWORD PTR tv401[ebp], 0
$LN59@show_debri:
  00804	8b 4d 08	 mov	 ecx, DWORD PTR _mission$[ebp]
  00807	51		 push	 ecx
  00808	e8 00 00 00 00	 call	 ?get_local_task_list_type@@YG?AW4LIST_TYPES@@PAUENTITY@@@Z ; get_local_task_list_type
  0080d	85 c0		 test	 eax, eax
  0080f	7c 1f		 jl	 SHORT $LN60@show_debri
  00811	8b 55 08	 mov	 edx, DWORD PTR _mission$[ebp]
  00814	52		 push	 edx
  00815	e8 00 00 00 00	 call	 ?get_local_task_list_type@@YG?AW4LIST_TYPES@@PAUENTITY@@@Z ; get_local_task_list_type
  0081a	83 f8 2d	 cmp	 eax, 45			; 0000002dH
  0081d	7d 11		 jge	 SHORT $LN60@show_debri
  0081f	8b 45 08	 mov	 eax, DWORD PTR _mission$[ebp]
  00822	50		 push	 eax
  00823	e8 00 00 00 00	 call	 ?get_local_task_list_type@@YG?AW4LIST_TYPES@@PAUENTITY@@@Z ; get_local_task_list_type
  00828	89 85 e4 fa ff
	ff		 mov	 DWORD PTR tv448[ebp], eax
  0082e	eb 28		 jmp	 SHORT $LN61@show_debri
$LN60@show_debri:
  00830	8b 0d 00 00 00
	00		 mov	 ecx, DWORD PTR ?__LINE__Var@?0??show_debriefing_page@@YGXPAUENTITY@@HH@Z@4JA
  00836	81 c1 a7 00 00
	00		 add	 ecx, 167		; 000000a7H
  0083c	51		 push	 ecx
  0083d	68 00 00 00 00	 push	 OFFSET ??_C@_0EN@MKENPJLB@c?3?2users?2nhv90?2projects?2eech?2ap@
  00842	8b 15 00 00 00
	00		 mov	 edx, DWORD PTR ?overload_invalid_list_type_message@@3PBDB ; overload_invalid_list_type_message
  00848	52		 push	 edx
  00849	e8 00 00 00 00	 call	 ?process_assert@@YGXPBD0H@Z ; process_assert
  0084e	c7 85 e4 fa ff
	ff 00 00 00 00	 mov	 DWORD PTR tv448[ebp], 0
$LN61@show_debri:
  00858	8b 45 08	 mov	 eax, DWORD PTR _mission$[ebp]
  0085b	50		 push	 eax
  0085c	e8 00 00 00 00	 call	 ?get_local_task_list_type@@YG?AW4LIST_TYPES@@PAUENTITY@@@Z ; get_local_task_list_type
  00861	50		 push	 eax
  00862	8b 4d 08	 mov	 ecx, DWORD PTR _mission$[ebp]
  00865	51		 push	 ecx
  00866	69 95 e8 fa ff
	ff b4 00 00 00	 imul	 edx, DWORD PTR tv401[ebp], 180
  00870	8b 85 e4 fa ff
	ff		 mov	 eax, DWORD PTR tv448[ebp]
  00876	8b 8c 82 00 00
	00 00		 mov	 ecx, DWORD PTR ?fn_get_local_entity_parent@@3PAY0CN@P6GPAUENTITY@@PAU1@W4LIST_TYPES@@@ZA[edx+eax*4]
  0087d	ff d1		 call	 ecx
  0087f	89 45 f0	 mov	 DWORD PTR _base$[ebp], eax

; 268  : 
; 269  : 		base_pos = get_local_entity_vec3d_ptr (base, VEC3D_TYPE_POSITION);

  00882	83 7d f0 00	 cmp	 DWORD PTR _base$[ebp], 0
  00886	74 0d		 je	 SHORT $LN62@show_debri
  00888	8b 45 f0	 mov	 eax, DWORD PTR _base$[ebp]
  0088b	8b 08		 mov	 ecx, DWORD PTR [eax]
  0088d	89 8d e8 fa ff
	ff		 mov	 DWORD PTR tv462[ebp], ecx
  00893	eb 27		 jmp	 SHORT $LN63@show_debri
$LN62@show_debri:
  00895	8b 15 00 00 00
	00		 mov	 edx, DWORD PTR ?__LINE__Var@?0??show_debriefing_page@@YGXPAUENTITY@@HH@Z@4JA
  0089b	81 c2 a9 00 00
	00		 add	 edx, 169		; 000000a9H
  008a1	52		 push	 edx
  008a2	68 00 00 00 00	 push	 OFFSET ??_C@_0EN@MKENPJLB@c?3?2users?2nhv90?2projects?2eech?2ap@
  008a7	a1 00 00 00 00	 mov	 eax, DWORD PTR ?null_entity_pointer_message@@3PBDB ; null_entity_pointer_message
  008ac	50		 push	 eax
  008ad	e8 00 00 00 00	 call	 ?process_assert@@YGXPBD0H@Z ; process_assert
  008b2	c7 85 e8 fa ff
	ff 00 00 00 00	 mov	 DWORD PTR tv462[ebp], 0
$LN63@show_debri:
  008bc	b9 01 00 00 00	 mov	 ecx, 1
  008c1	85 c9		 test	 ecx, ecx
  008c3	74 0c		 je	 SHORT $LN64@show_debri
  008c5	c7 85 e4 fa ff
	ff 08 00 00 00	 mov	 DWORD PTR tv470[ebp], 8
  008cf	eb 27		 jmp	 SHORT $LN65@show_debri
$LN64@show_debri:
  008d1	8b 15 00 00 00
	00		 mov	 edx, DWORD PTR ?__LINE__Var@?0??show_debriefing_page@@YGXPAUENTITY@@HH@Z@4JA
  008d7	81 c2 a9 00 00
	00		 add	 edx, 169		; 000000a9H
  008dd	52		 push	 edx
  008de	68 00 00 00 00	 push	 OFFSET ??_C@_0EN@MKENPJLB@c?3?2users?2nhv90?2projects?2eech?2ap@
  008e3	a1 00 00 00 00	 mov	 eax, DWORD PTR ?overload_invalid_vec3d_type_message@@3PBDB ; overload_invalid_vec3d_type_message
  008e8	50		 push	 eax
  008e9	e8 00 00 00 00	 call	 ?process_assert@@YGXPBD0H@Z ; process_assert
  008ee	c7 85 e4 fa ff
	ff 00 00 00 00	 mov	 DWORD PTR tv470[ebp], 0
$LN65@show_debri:
  008f8	6a 08		 push	 8
  008fa	8b 4d f0	 mov	 ecx, DWORD PTR _base$[ebp]
  008fd	51		 push	 ecx
  008fe	6b 95 e8 fa ff
	ff 60		 imul	 edx, DWORD PTR tv462[ebp], 96
  00905	8b 85 e4 fa ff
	ff		 mov	 eax, DWORD PTR tv470[ebp]
  0090b	8b 8c 82 00 00
	00 00		 mov	 ecx, DWORD PTR ?fn_get_local_entity_vec3d_ptr@@3PAY0BI@P6GPAUVEC3D@@PAUENTITY@@W4VEC3D_TYPES@@@ZA[edx+eax*4]
  00912	ff d1		 call	 ecx
  00914	89 85 c4 fb ff
	ff		 mov	 DWORD PTR _base_pos$7[ebp], eax

; 270  : 
; 271  : 		min_pos = *base_pos;

  0091a	8b 85 c4 fb ff
	ff		 mov	 eax, DWORD PTR _base_pos$7[ebp]
  00920	8b 08		 mov	 ecx, DWORD PTR [eax]
  00922	89 8d d8 fb ff
	ff		 mov	 DWORD PTR _min_pos$10[ebp], ecx
  00928	8b 50 04	 mov	 edx, DWORD PTR [eax+4]
  0092b	89 95 dc fb ff
	ff		 mov	 DWORD PTR _min_pos$10[ebp+4], edx
  00931	8b 40 08	 mov	 eax, DWORD PTR [eax+8]
  00934	89 85 e0 fb ff
	ff		 mov	 DWORD PTR _min_pos$10[ebp+8], eax

; 272  : 		max_pos = *base_pos;

  0093a	8b 85 c4 fb ff
	ff		 mov	 eax, DWORD PTR _base_pos$7[ebp]
  00940	8b 08		 mov	 ecx, DWORD PTR [eax]
  00942	89 8d cc fb ff
	ff		 mov	 DWORD PTR _max_pos$9[ebp], ecx
  00948	8b 50 04	 mov	 edx, DWORD PTR [eax+4]
  0094b	89 95 d0 fb ff
	ff		 mov	 DWORD PTR _max_pos$9[ebp+4], edx
  00951	8b 40 08	 mov	 eax, DWORD PTR [eax+8]
  00954	89 85 d4 fb ff
	ff		 mov	 DWORD PTR _max_pos$9[ebp+8], eax

; 273  : 
; 274  : 		route_nodes = (vec3d *) get_local_entity_ptr_value (mission, PTR_TYPE_ROUTE_NODE);

  0095a	83 7d 08 00	 cmp	 DWORD PTR _mission$[ebp], 0
  0095e	74 0d		 je	 SHORT $LN66@show_debri
  00960	8b 45 08	 mov	 eax, DWORD PTR _mission$[ebp]
  00963	8b 08		 mov	 ecx, DWORD PTR [eax]
  00965	89 8d e8 fa ff
	ff		 mov	 DWORD PTR tv484[ebp], ecx
  0096b	eb 27		 jmp	 SHORT $LN67@show_debri
$LN66@show_debri:
  0096d	8b 15 00 00 00
	00		 mov	 edx, DWORD PTR ?__LINE__Var@?0??show_debriefing_page@@YGXPAUENTITY@@HH@Z@4JA
  00973	81 c2 ae 00 00
	00		 add	 edx, 174		; 000000aeH
  00979	52		 push	 edx
  0097a	68 00 00 00 00	 push	 OFFSET ??_C@_0EN@MKENPJLB@c?3?2users?2nhv90?2projects?2eech?2ap@
  0097f	a1 00 00 00 00	 mov	 eax, DWORD PTR ?null_entity_pointer_message@@3PBDB ; null_entity_pointer_message
  00984	50		 push	 eax
  00985	e8 00 00 00 00	 call	 ?process_assert@@YGXPBD0H@Z ; process_assert
  0098a	c7 85 e8 fa ff
	ff 00 00 00 00	 mov	 DWORD PTR tv484[ebp], 0
$LN67@show_debri:
  00994	b9 01 00 00 00	 mov	 ecx, 1
  00999	85 c9		 test	 ecx, ecx
  0099b	74 0c		 je	 SHORT $LN68@show_debri
  0099d	c7 85 e4 fa ff
	ff 0b 00 00 00	 mov	 DWORD PTR tv492[ebp], 11 ; 0000000bH
  009a7	eb 27		 jmp	 SHORT $LN69@show_debri
$LN68@show_debri:
  009a9	8b 15 00 00 00
	00		 mov	 edx, DWORD PTR ?__LINE__Var@?0??show_debriefing_page@@YGXPAUENTITY@@HH@Z@4JA
  009af	81 c2 ae 00 00
	00		 add	 edx, 174		; 000000aeH
  009b5	52		 push	 edx
  009b6	68 00 00 00 00	 push	 OFFSET ??_C@_0EN@MKENPJLB@c?3?2users?2nhv90?2projects?2eech?2ap@
  009bb	a1 00 00 00 00	 mov	 eax, DWORD PTR ?overload_invalid_ptr_type_message@@3PBDB ; overload_invalid_ptr_type_message
  009c0	50		 push	 eax
  009c1	e8 00 00 00 00	 call	 ?process_assert@@YGXPBD0H@Z ; process_assert
  009c6	c7 85 e4 fa ff
	ff 00 00 00 00	 mov	 DWORD PTR tv492[ebp], 0
$LN69@show_debri:
  009d0	6a 0b		 push	 11			; 0000000bH
  009d2	8b 4d 08	 mov	 ecx, DWORD PTR _mission$[ebp]
  009d5	51		 push	 ecx
  009d6	6b 95 e8 fa ff
	ff 50		 imul	 edx, DWORD PTR tv484[ebp], 80
  009dd	8b 85 e4 fa ff
	ff		 mov	 eax, DWORD PTR tv492[ebp]
  009e3	8b 8c 82 00 00
	00 00		 mov	 ecx, DWORD PTR ?fn_get_local_entity_ptr_value@@3PAY0BE@P6GPAXPAUENTITY@@W4PTR_TYPES@@@ZA[edx+eax*4]
  009ea	ff d1		 call	 ecx
  009ec	89 85 c0 fb ff
	ff		 mov	 DWORD PTR _route_nodes$6[ebp], eax

; 275  : 
; 276  : 		route_length = get_local_entity_int_value (mission, INT_TYPE_ROUTE_LENGTH);

  009f2	83 7d 08 00	 cmp	 DWORD PTR _mission$[ebp], 0
  009f6	74 0d		 je	 SHORT $LN70@show_debri
  009f8	8b 45 08	 mov	 eax, DWORD PTR _mission$[ebp]
  009fb	8b 08		 mov	 ecx, DWORD PTR [eax]
  009fd	89 8d e8 fa ff
	ff		 mov	 DWORD PTR tv504[ebp], ecx
  00a03	eb 27		 jmp	 SHORT $LN71@show_debri
$LN70@show_debri:
  00a05	8b 15 00 00 00
	00		 mov	 edx, DWORD PTR ?__LINE__Var@?0??show_debriefing_page@@YGXPAUENTITY@@HH@Z@4JA
  00a0b	81 c2 b0 00 00
	00		 add	 edx, 176		; 000000b0H
  00a11	52		 push	 edx
  00a12	68 00 00 00 00	 push	 OFFSET ??_C@_0EN@MKENPJLB@c?3?2users?2nhv90?2projects?2eech?2ap@
  00a17	a1 00 00 00 00	 mov	 eax, DWORD PTR ?null_entity_pointer_message@@3PBDB ; null_entity_pointer_message
  00a1c	50		 push	 eax
  00a1d	e8 00 00 00 00	 call	 ?process_assert@@YGXPBD0H@Z ; process_assert
  00a22	c7 85 e8 fa ff
	ff 00 00 00 00	 mov	 DWORD PTR tv504[ebp], 0
$LN71@show_debri:
  00a2c	b9 01 00 00 00	 mov	 ecx, 1
  00a31	85 c9		 test	 ecx, ecx
  00a33	74 0c		 je	 SHORT $LN72@show_debri
  00a35	c7 85 e4 fa ff
	ff b3 00 00 00	 mov	 DWORD PTR tv512[ebp], 179 ; 000000b3H
  00a3f	eb 27		 jmp	 SHORT $LN73@show_debri
$LN72@show_debri:
  00a41	8b 15 00 00 00
	00		 mov	 edx, DWORD PTR ?__LINE__Var@?0??show_debriefing_page@@YGXPAUENTITY@@HH@Z@4JA
  00a47	81 c2 b0 00 00
	00		 add	 edx, 176		; 000000b0H
  00a4d	52		 push	 edx
  00a4e	68 00 00 00 00	 push	 OFFSET ??_C@_0EN@MKENPJLB@c?3?2users?2nhv90?2projects?2eech?2ap@
  00a53	a1 00 00 00 00	 mov	 eax, DWORD PTR ?overload_invalid_int_type_message@@3PBDB ; overload_invalid_int_type_message
  00a58	50		 push	 eax
  00a59	e8 00 00 00 00	 call	 ?process_assert@@YGXPBD0H@Z ; process_assert
  00a5e	c7 85 e4 fa ff
	ff 00 00 00 00	 mov	 DWORD PTR tv512[ebp], 0
$LN73@show_debri:
  00a68	68 b3 00 00 00	 push	 179			; 000000b3H
  00a6d	8b 4d 08	 mov	 ecx, DWORD PTR _mission$[ebp]
  00a70	51		 push	 ecx
  00a71	69 95 e8 fa ff
	ff 5c 04 00 00	 imul	 edx, DWORD PTR tv504[ebp], 1116
  00a7b	8b 85 e4 fa ff
	ff		 mov	 eax, DWORD PTR tv512[ebp]
  00a81	8b 8c 82 00 00
	00 00		 mov	 ecx, DWORD PTR ?fn_get_local_entity_int_value@@3PAY0BBH@P6GHPAUENTITY@@W4INT_TYPES@@@ZA[edx+eax*4]
  00a88	ff d1		 call	 ecx
  00a8a	89 85 b8 fb ff
	ff		 mov	 DWORD PTR _route_length$4[ebp], eax

; 277  : 
; 278  : 		if (route_nodes)

  00a90	83 bd c0 fb ff
	ff 00		 cmp	 DWORD PTR _route_nodes$6[ebp], 0
  00a97	0f 84 c7 00 00
	00		 je	 $LN6@show_debri

; 279  : 		{
; 280  : 			for (loop = 0; loop < route_length; loop ++)

  00a9d	c7 85 bc fb ff
	ff 00 00 00 00	 mov	 DWORD PTR _loop$5[ebp], 0
  00aa7	eb 0f		 jmp	 SHORT $LN7@show_debri
$LN5@show_debri:
  00aa9	8b 85 bc fb ff
	ff		 mov	 eax, DWORD PTR _loop$5[ebp]
  00aaf	83 c0 01	 add	 eax, 1
  00ab2	89 85 bc fb ff
	ff		 mov	 DWORD PTR _loop$5[ebp], eax
$LN7@show_debri:
  00ab8	8b 85 bc fb ff
	ff		 mov	 eax, DWORD PTR _loop$5[ebp]
  00abe	3b 85 b8 fb ff
	ff		 cmp	 eax, DWORD PTR _route_length$4[ebp]
  00ac4	0f 8d 9a 00 00
	00		 jge	 $LN6@show_debri

; 281  : 			{
; 282  : 				pos = &route_nodes [loop];

  00aca	6b 85 bc fb ff
	ff 0c		 imul	 eax, DWORD PTR _loop$5[ebp], 12
  00ad1	03 85 c0 fb ff
	ff		 add	 eax, DWORD PTR _route_nodes$6[ebp]
  00ad7	89 85 c8 fb ff
	ff		 mov	 DWORD PTR _pos$8[ebp], eax

; 283  : 
; 284  : 				min_pos.x = min (min_pos.x, pos->x);

  00add	8b 85 c8 fb ff
	ff		 mov	 eax, DWORD PTR _pos$8[ebp]
  00ae3	50		 push	 eax
  00ae4	8d 8d d8 fb ff
	ff		 lea	 ecx, DWORD PTR _min_pos$10[ebp]
  00aea	51		 push	 ecx
  00aeb	e8 00 00 00 00	 call	 ??$min@M@std@@YGABMABM0@Z ; std::min<float>
  00af0	f3 0f 10 00	 movss	 xmm0, DWORD PTR [eax]
  00af4	f3 0f 11 85 d8
	fb ff ff	 movss	 DWORD PTR _min_pos$10[ebp], xmm0

; 285  : 				min_pos.z = min (min_pos.z, pos->z);

  00afc	8b 85 c8 fb ff
	ff		 mov	 eax, DWORD PTR _pos$8[ebp]
  00b02	83 c0 08	 add	 eax, 8
  00b05	50		 push	 eax
  00b06	8d 8d e0 fb ff
	ff		 lea	 ecx, DWORD PTR _min_pos$10[ebp+8]
  00b0c	51		 push	 ecx
  00b0d	e8 00 00 00 00	 call	 ??$min@M@std@@YGABMABM0@Z ; std::min<float>
  00b12	f3 0f 10 00	 movss	 xmm0, DWORD PTR [eax]
  00b16	f3 0f 11 85 e0
	fb ff ff	 movss	 DWORD PTR _min_pos$10[ebp+8], xmm0

; 286  : 
; 287  : 				max_pos.x = max (max_pos.x, pos->x);

  00b1e	8b 85 c8 fb ff
	ff		 mov	 eax, DWORD PTR _pos$8[ebp]
  00b24	50		 push	 eax
  00b25	8d 8d cc fb ff
	ff		 lea	 ecx, DWORD PTR _max_pos$9[ebp]
  00b2b	51		 push	 ecx
  00b2c	e8 00 00 00 00	 call	 ??$max@M@std@@YGABMABM0@Z ; std::max<float>
  00b31	f3 0f 10 00	 movss	 xmm0, DWORD PTR [eax]
  00b35	f3 0f 11 85 cc
	fb ff ff	 movss	 DWORD PTR _max_pos$9[ebp], xmm0

; 288  : 				max_pos.z = max (max_pos.z, pos->z);

  00b3d	8b 85 c8 fb ff
	ff		 mov	 eax, DWORD PTR _pos$8[ebp]
  00b43	83 c0 08	 add	 eax, 8
  00b46	50		 push	 eax
  00b47	8d 8d d4 fb ff
	ff		 lea	 ecx, DWORD PTR _max_pos$9[ebp+8]
  00b4d	51		 push	 ecx
  00b4e	e8 00 00 00 00	 call	 ??$max@M@std@@YGABMABM0@Z ; std::max<float>
  00b53	f3 0f 10 00	 movss	 xmm0, DWORD PTR [eax]
  00b57	f3 0f 11 85 d4
	fb ff ff	 movss	 DWORD PTR _max_pos$9[ebp+8], xmm0

; 289  : 			}

  00b5f	e9 45 ff ff ff	 jmp	 $LN5@show_debri
$LN6@show_debri:

; 290  : 		}
; 291  : 
; 292  : 		page_map_dimensions.x = (min_pos.x + max_pos.x) * 0.5;

  00b64	f3 0f 10 85 d8
	fb ff ff	 movss	 xmm0, DWORD PTR _min_pos$10[ebp]
  00b6c	f3 0f 58 85 cc
	fb ff ff	 addss	 xmm0, DWORD PTR _max_pos$9[ebp]
  00b74	f3 0f 5a c0	 cvtss2sd xmm0, xmm0
  00b78	f2 0f 59 05 00
	00 00 00	 mulsd	 xmm0, QWORD PTR __real@3fe0000000000000
  00b80	f2 0f 5a c0	 cvtsd2ss xmm0, xmm0
  00b84	f3 0f 11 05 00
	00 00 00	 movss	 DWORD PTR ?page_map_dimensions@@3UMAP_DIMENSION_TYPE@@A, xmm0

; 293  : 		page_map_dimensions.z = (min_pos.z + max_pos.z) * 0.5;

  00b8c	f3 0f 10 85 e0
	fb ff ff	 movss	 xmm0, DWORD PTR _min_pos$10[ebp+8]
  00b94	f3 0f 58 85 d4
	fb ff ff	 addss	 xmm0, DWORD PTR _max_pos$9[ebp+8]
  00b9c	f3 0f 5a c0	 cvtss2sd xmm0, xmm0
  00ba0	f2 0f 59 05 00
	00 00 00	 mulsd	 xmm0, QWORD PTR __real@3fe0000000000000
  00ba8	f2 0f 5a c0	 cvtsd2ss xmm0, xmm0
  00bac	f3 0f 11 05 04
	00 00 00	 movss	 DWORD PTR ?page_map_dimensions@@3UMAP_DIMENSION_TYPE@@A+4, xmm0

; 294  : 
; 295  : 		page_map_dimensions.size = max ((max_pos.x - min_pos.x), (max_pos.z - min_pos.z));

  00bb4	f3 0f 10 85 d4
	fb ff ff	 movss	 xmm0, DWORD PTR _max_pos$9[ebp+8]
  00bbc	f3 0f 5c 85 e0
	fb ff ff	 subss	 xmm0, DWORD PTR _min_pos$10[ebp+8]
  00bc4	f3 0f 11 85 f4
	fa ff ff	 movss	 DWORD PTR $T3[ebp], xmm0
  00bcc	f3 0f 10 85 cc
	fb ff ff	 movss	 xmm0, DWORD PTR _max_pos$9[ebp]
  00bd4	f3 0f 5c 85 d8
	fb ff ff	 subss	 xmm0, DWORD PTR _min_pos$10[ebp]
  00bdc	f3 0f 11 85 f0
	fa ff ff	 movss	 DWORD PTR $T2[ebp], xmm0
  00be4	8d 85 f4 fa ff
	ff		 lea	 eax, DWORD PTR $T3[ebp]
  00bea	50		 push	 eax
  00beb	8d 8d f0 fa ff
	ff		 lea	 ecx, DWORD PTR $T2[ebp]
  00bf1	51		 push	 ecx
  00bf2	e8 00 00 00 00	 call	 ??$max@M@std@@YGABMABM0@Z ; std::max<float>
  00bf7	f3 0f 10 00	 movss	 xmm0, DWORD PTR [eax]
  00bfb	f3 0f 11 05 08
	00 00 00	 movss	 DWORD PTR ?page_map_dimensions@@3UMAP_DIMENSION_TYPE@@A+8, xmm0

; 296  : 
; 297  : 		page_map_dimensions.size *= 1.2;

  00c03	f3 0f 5a 05 08
	00 00 00	 cvtss2sd xmm0, DWORD PTR ?page_map_dimensions@@3UMAP_DIMENSION_TYPE@@A+8
  00c0b	f2 0f 59 05 00
	00 00 00	 mulsd	 xmm0, QWORD PTR __real@3ff3333333333333
  00c13	f2 0f 5a c0	 cvtsd2ss xmm0, xmm0
  00c17	f3 0f 11 05 08
	00 00 00	 movss	 DWORD PTR ?page_map_dimensions@@3UMAP_DIMENSION_TYPE@@A+8, xmm0

; 298  : 
; 299  : 		page_map_dimensions.size = max (page_map_dimensions.size, 4.0f * KILOMETRE);

  00c1f	f3 0f 10 05 00
	00 00 00	 movss	 xmm0, DWORD PTR __real@457a0000
  00c27	f3 0f 11 85 ec
	fa ff ff	 movss	 DWORD PTR $T1[ebp], xmm0
  00c2f	8d 85 ec fa ff
	ff		 lea	 eax, DWORD PTR $T1[ebp]
  00c35	50		 push	 eax
  00c36	68 08 00 00 00	 push	 OFFSET ?page_map_dimensions@@3UMAP_DIMENSION_TYPE@@A+8
  00c3b	e8 00 00 00 00	 call	 ??$max@M@std@@YGABMABM0@Z ; std::max<float>
  00c40	f3 0f 10 00	 movss	 xmm0, DWORD PTR [eax]
  00c44	f3 0f 11 05 08
	00 00 00	 movss	 DWORD PTR ?page_map_dimensions@@3UMAP_DIMENSION_TYPE@@A+8, xmm0

; 300  : 
; 301  : 		page_map_dimensions.subject_entity = mission;

  00c4c	8b 45 08	 mov	 eax, DWORD PTR _mission$[ebp]
  00c4f	a3 44 00 00 00	 mov	 DWORD PTR ?page_map_dimensions@@3UMAP_DIMENSION_TYPE@@A+68, eax
$LN23@show_debri:

; 302  : 	}
; 303  : 
; 304  : 	//
; 305  : 
; 306  : 	display_campaign_page (CAMPAIGN_PAGE_DEBRIEFING, get_local_entity_index (mission), TRUE);

  00c54	6a 01		 push	 1
  00c56	8b 45 08	 mov	 eax, DWORD PTR _mission$[ebp]
  00c59	2b 05 00 00 00
	00		 sub	 eax, DWORD PTR ?entities@@3PAUENTITY@@A ; entities
  00c5f	c1 f8 04	 sar	 eax, 4
  00c62	50		 push	 eax
  00c63	6a 02		 push	 2
  00c65	e8 00 00 00 00	 call	 ?display_campaign_page@@YGXW4CAMPAIGN_PAGES@@HH@Z ; display_campaign_page

; 307  : }

  00c6a	5f		 pop	 edi
  00c6b	5e		 pop	 esi
  00c6c	5b		 pop	 ebx
  00c6d	8b e5		 mov	 esp, ebp
  00c6f	5d		 pop	 ebp
  00c70	c2 0c 00	 ret	 12			; 0000000cH
?show_debriefing_page@@YGXPAUENTITY@@HH@Z ENDP		; show_debriefing_page
_TEXT	ENDS
; Function compile flags: /Odtp /ZI
; File c:\program files (x86)\windows kits\10\include\10.0.18362.0\ucrt\stdio.h
;	COMDAT _sprintf
_TEXT	SEGMENT
__ArgList$ = -8						; size = 4
__Result$ = -4						; size = 4
__Buffer$ = 8						; size = 4
__Format$ = 12						; size = 4
_sprintf PROC						; COMDAT

; 1781 :     {

  00000	55		 push	 ebp
  00001	8b ec		 mov	 ebp, esp
  00003	83 ec 4c	 sub	 esp, 76			; 0000004cH
  00006	53		 push	 ebx
  00007	56		 push	 esi
  00008	57		 push	 edi

; 1782 :         int _Result;
; 1783 :         va_list _ArgList;
; 1784 :         __crt_va_start(_ArgList, _Format);

  00009	8d 45 10	 lea	 eax, DWORD PTR __Format$[ebp+4]
  0000c	89 45 f8	 mov	 DWORD PTR __ArgList$[ebp], eax

; 1785 : 
; 1786 :         #pragma warning(push)
; 1787 :         #pragma warning(disable: 4996) // Deprecation
; 1788 :         _Result = _vsprintf_l(_Buffer, _Format, NULL, _ArgList);

  0000f	8b 45 f8	 mov	 eax, DWORD PTR __ArgList$[ebp]
  00012	50		 push	 eax
  00013	6a 00		 push	 0
  00015	8b 4d 0c	 mov	 ecx, DWORD PTR __Format$[ebp]
  00018	51		 push	 ecx
  00019	8b 55 08	 mov	 edx, DWORD PTR __Buffer$[ebp]
  0001c	52		 push	 edx
  0001d	e8 00 00 00 00	 call	 __vsprintf_l
  00022	83 c4 10	 add	 esp, 16			; 00000010H
  00025	89 45 fc	 mov	 DWORD PTR __Result$[ebp], eax

; 1789 :         #pragma warning(pop)
; 1790 : 
; 1791 :         __crt_va_end(_ArgList);

  00028	c7 45 f8 00 00
	00 00		 mov	 DWORD PTR __ArgList$[ebp], 0

; 1792 :         return _Result;

  0002f	8b 45 fc	 mov	 eax, DWORD PTR __Result$[ebp]

; 1793 :     }

  00032	5f		 pop	 edi
  00033	5e		 pop	 esi
  00034	5b		 pop	 ebx
  00035	8b e5		 mov	 esp, ebp
  00037	5d		 pop	 ebp
  00038	c3		 ret	 0
_sprintf ENDP
_TEXT	ENDS
; Function compile flags: /Odtp /ZI
; File c:\program files (x86)\windows kits\10\include\10.0.18362.0\ucrt\stdio.h
;	COMDAT __vsprintf_l
_TEXT	SEGMENT
__Buffer$ = 8						; size = 4
__Format$ = 12						; size = 4
__Locale$ = 16						; size = 4
__ArgList$ = 20						; size = 4
__vsprintf_l PROC					; COMDAT

; 1459 :     {

  00000	55		 push	 ebp
  00001	8b ec		 mov	 ebp, esp
  00003	83 ec 40	 sub	 esp, 64			; 00000040H
  00006	53		 push	 ebx
  00007	56		 push	 esi
  00008	57		 push	 edi

; 1460 :         #pragma warning(push)
; 1461 :         #pragma warning(disable: 4996) // Deprecation
; 1462 :         return _vsnprintf_l(_Buffer, (size_t)-1, _Format, _Locale, _ArgList);

  00009	8b 45 14	 mov	 eax, DWORD PTR __ArgList$[ebp]
  0000c	50		 push	 eax
  0000d	8b 4d 10	 mov	 ecx, DWORD PTR __Locale$[ebp]
  00010	51		 push	 ecx
  00011	8b 55 0c	 mov	 edx, DWORD PTR __Format$[ebp]
  00014	52		 push	 edx
  00015	6a ff		 push	 -1
  00017	8b 45 08	 mov	 eax, DWORD PTR __Buffer$[ebp]
  0001a	50		 push	 eax
  0001b	e8 00 00 00 00	 call	 __vsnprintf_l
  00020	83 c4 14	 add	 esp, 20			; 00000014H

; 1463 :         #pragma warning(pop)
; 1464 :     }

  00023	5f		 pop	 edi
  00024	5e		 pop	 esi
  00025	5b		 pop	 ebx
  00026	8b e5		 mov	 esp, ebp
  00028	5d		 pop	 ebp
  00029	c3		 ret	 0
__vsprintf_l ENDP
_TEXT	ENDS
; Function compile flags: /Odtp /ZI
; File c:\program files (x86)\windows kits\10\include\10.0.18362.0\ucrt\stdio.h
;	COMDAT __vsnprintf_l
_TEXT	SEGMENT
tv74 = -72						; size = 4
__Result$ = -4						; size = 4
__Buffer$ = 8						; size = 4
__BufferCount$ = 12					; size = 4
__Format$ = 16						; size = 4
__Locale$ = 20						; size = 4
__ArgList$ = 24						; size = 4
__vsnprintf_l PROC					; COMDAT

; 1389 :     {

  00000	55		 push	 ebp
  00001	8b ec		 mov	 ebp, esp
  00003	83 ec 48	 sub	 esp, 72			; 00000048H
  00006	53		 push	 ebx
  00007	56		 push	 esi
  00008	57		 push	 edi

; 1390 :         int const _Result = __stdio_common_vsprintf(

  00009	8b 45 18	 mov	 eax, DWORD PTR __ArgList$[ebp]
  0000c	50		 push	 eax
  0000d	8b 4d 14	 mov	 ecx, DWORD PTR __Locale$[ebp]
  00010	51		 push	 ecx
  00011	8b 55 10	 mov	 edx, DWORD PTR __Format$[ebp]
  00014	52		 push	 edx
  00015	8b 45 0c	 mov	 eax, DWORD PTR __BufferCount$[ebp]
  00018	50		 push	 eax
  00019	8b 4d 08	 mov	 ecx, DWORD PTR __Buffer$[ebp]
  0001c	51		 push	 ecx
  0001d	e8 00 00 00 00	 call	 ___local_stdio_printf_options
  00022	8b 10		 mov	 edx, DWORD PTR [eax]
  00024	83 ca 01	 or	 edx, 1
  00027	8b 40 04	 mov	 eax, DWORD PTR [eax+4]
  0002a	50		 push	 eax
  0002b	52		 push	 edx
  0002c	ff 15 00 00 00
	00		 call	 DWORD PTR __imp____stdio_common_vsprintf
  00032	83 c4 1c	 add	 esp, 28			; 0000001cH
  00035	89 45 fc	 mov	 DWORD PTR __Result$[ebp], eax

; 1391 :             _CRT_INTERNAL_LOCAL_PRINTF_OPTIONS | _CRT_INTERNAL_PRINTF_LEGACY_VSPRINTF_NULL_TERMINATION,
; 1392 :             _Buffer, _BufferCount, _Format, _Locale, _ArgList);
; 1393 : 
; 1394 :         return _Result < 0 ? -1 : _Result;

  00038	83 7d fc 00	 cmp	 DWORD PTR __Result$[ebp], 0
  0003c	7d 09		 jge	 SHORT $LN3@vsnprintf_
  0003e	c7 45 b8 ff ff
	ff ff		 mov	 DWORD PTR tv74[ebp], -1
  00045	eb 06		 jmp	 SHORT $LN4@vsnprintf_
$LN3@vsnprintf_:
  00047	8b 45 fc	 mov	 eax, DWORD PTR __Result$[ebp]
  0004a	89 45 b8	 mov	 DWORD PTR tv74[ebp], eax
$LN4@vsnprintf_:
  0004d	8b 45 b8	 mov	 eax, DWORD PTR tv74[ebp]

; 1395 :     }

  00050	5f		 pop	 edi
  00051	5e		 pop	 esi
  00052	5b		 pop	 ebx
  00053	8b e5		 mov	 esp, ebp
  00055	5d		 pop	 ebp
  00056	c3		 ret	 0
__vsnprintf_l ENDP
_TEXT	ENDS
; Function compile flags: /Odtp /ZI
; File c:\program files (x86)\windows kits\10\include\10.0.18362.0\ucrt\corecrt_stdio_config.h
;	COMDAT ___local_stdio_printf_options
_TEXT	SEGMENT
___local_stdio_printf_options PROC			; COMDAT

; 86   :     {

  00000	55		 push	 ebp
  00001	8b ec		 mov	 ebp, esp
  00003	83 ec 40	 sub	 esp, 64			; 00000040H
  00006	53		 push	 ebx
  00007	56		 push	 esi
  00008	57		 push	 edi

; 87   :         static unsigned __int64 _OptionsStorage;
; 88   :         return &_OptionsStorage;

  00009	b8 00 00 00 00	 mov	 eax, OFFSET ?_OptionsStorage@?1??__local_stdio_printf_options@@9@4_KA ; `__local_stdio_printf_options'::`2'::_OptionsStorage

; 89   :     }

  0000e	5f		 pop	 edi
  0000f	5e		 pop	 esi
  00010	5b		 pop	 ebx
  00011	8b e5		 mov	 esp, ebp
  00013	5d		 pop	 ebp
  00014	c3		 ret	 0
___local_stdio_printf_options ENDP
_TEXT	ENDS
END
