; Listing generated by Microsoft (R) Optimizing Compiler Version 19.16.27045.0 

	TITLE	C:\Users\nhv90\Projects\eech\aphavoc\source\ui_menu\ingame\campaign\ca_fsmap.c
	.686P
	.XMM
	include listing.inc
	.model	flat

INCLUDELIB MSVCRTD
INCLUDELIB OLDNAMES

PUBLIC	?campaign_screen_full_screen_map@@3PAUUI_OBJECT@@A ; campaign_screen_full_screen_map
_BSS	SEGMENT
?campaign_screen_full_screen_map@@3PAUUI_OBJECT@@A DD 01H DUP (?) ; campaign_screen_full_screen_map
_BSS	ENDS
PUBLIC	?initialise_campaign_screen_full_screen_map_objects@@YGXXZ ; initialise_campaign_screen_full_screen_map_objects
PUBLIC	?define_campaign_screen_full_screen_map_objects@@YGXXZ ; define_campaign_screen_full_screen_map_objects
PUBLIC	??_C@_0CF@BJBNEKIB@graphics?2ui?2cohokum?2map?2exlogba@ ; `string'
PUBLIC	__real@3f70624e
PUBLIC	__real@3f800000
EXTRN	?create_texture_graphic@@YGPAUTEXTURE_GRAPHIC@@PBD@Z:PROC ; create_texture_graphic
EXTRN	?create_ui_object@@YAPAUUI_OBJECT@@HZZ:PROC	; create_ui_object
EXTRN	?define_info_bar_objects@@YGXPAUUI_OBJECT@@@Z:PROC ; define_info_bar_objects
EXTRN	?minimize_all_map_objects@@YGXXZ:PROC		; minimize_all_map_objects
EXTRN	?fn_set_ui_object_drawable@@3PAP6GXPAUUI_OBJECT@@H@ZA:BYTE ; fn_set_ui_object_drawable
EXTRN	?fn_set_ui_object_user_ptr@@3PAP6GXPAUUI_OBJECT@@PAX@ZA:BYTE ; fn_set_ui_object_user_ptr
EXTRN	?campaign_screen@@3PAUUI_OBJECT@@A:DWORD	; campaign_screen
EXTRN	__fltused:DWORD
_BSS	SEGMENT
?info_area@@3PAUUI_OBJECT@@A DD 01H DUP (?)		; info_area
_BSS	ENDS
;	COMDAT __real@3f800000
CONST	SEGMENT
__real@3f800000 DD 03f800000r			; 1
CONST	ENDS
;	COMDAT __real@3f70624e
CONST	SEGMENT
__real@3f70624e DD 03f70624er			; 0.939
CONST	ENDS
;	COMDAT ??_C@_0CF@BJBNEKIB@graphics?2ui?2cohokum?2map?2exlogba@
CONST	SEGMENT
??_C@_0CF@BJBNEKIB@graphics?2ui?2cohokum?2map?2exlogba@ DB 'graphics\ui\c'
	DB	'ohokum\map\exlogbar.psd', 00H		; `string'
CONST	ENDS
; Function compile flags: /Odtp /ZI
; File c:\users\nhv90\projects\eech\aphavoc\source\ui_menu\ingame\campaign\ca_fsmap.c
;	COMDAT ?define_campaign_screen_full_screen_map_objects@@YGXXZ
_TEXT	SEGMENT
_y2$ = -16						; size = 4
_x2$ = -12						; size = 4
_y1$ = -8						; size = 4
_x1$ = -4						; size = 4
?define_campaign_screen_full_screen_map_objects@@YGXXZ PROC ; define_campaign_screen_full_screen_map_objects, COMDAT

; 101  : {

  00000	55		 push	 ebp
  00001	8b ec		 mov	 ebp, esp
  00003	83 ec 50	 sub	 esp, 80			; 00000050H
  00006	53		 push	 ebx
  00007	56		 push	 esi
  00008	57		 push	 edi

; 102  : 	float
; 103  : 		x1,
; 104  : 		y1,
; 105  : 		x2,
; 106  : 		y2;
; 107  : 
; 108  : 	x1 = 0.0;

  00009	0f 57 c0	 xorps	 xmm0, xmm0
  0000c	f3 0f 11 45 fc	 movss	 DWORD PTR _x1$[ebp], xmm0

; 109  : 	y1 = 0.0;

  00011	0f 57 c0	 xorps	 xmm0, xmm0
  00014	f3 0f 11 45 f8	 movss	 DWORD PTR _y1$[ebp], xmm0

; 110  : 	x2 = 1.0;

  00019	f3 0f 10 05 00
	00 00 00	 movss	 xmm0, DWORD PTR __real@3f800000
  00021	f3 0f 11 45 f4	 movss	 DWORD PTR _x2$[ebp], xmm0

; 111  : 	y2 = 0.939;

  00026	f3 0f 10 05 00
	00 00 00	 movss	 xmm0, DWORD PTR __real@3f70624e
  0002e	f3 0f 11 45 f0	 movss	 DWORD PTR _y2$[ebp], xmm0

; 112  : 
; 113  : 	campaign_screen_full_screen_map = create_ui_object

  00033	6a 11		 push	 17			; 00000011H
  00035	6a 01		 push	 1
  00037	6a 07		 push	 7
  00039	6a 00		 push	 0
  0003b	6a 10		 push	 16			; 00000010H
  0003d	f3 0f 10 45 f0	 movss	 xmm0, DWORD PTR _y2$[ebp]
  00042	f3 0f 5c 45 f8	 subss	 xmm0, DWORD PTR _y1$[ebp]
  00047	f3 0f 5a c0	 cvtss2sd xmm0, xmm0
  0004b	83 ec 08	 sub	 esp, 8
  0004e	f2 0f 11 04 24	 movsd	 QWORD PTR [esp], xmm0
  00053	f3 0f 10 45 f4	 movss	 xmm0, DWORD PTR _x2$[ebp]
  00058	f3 0f 5c 45 fc	 subss	 xmm0, DWORD PTR _x1$[ebp]
  0005d	f3 0f 5a c0	 cvtss2sd xmm0, xmm0
  00061	83 ec 08	 sub	 esp, 8
  00064	f2 0f 11 04 24	 movsd	 QWORD PTR [esp], xmm0
  00069	6a 59		 push	 89			; 00000059H
  0006b	f3 0f 5a 45 f8	 cvtss2sd xmm0, DWORD PTR _y1$[ebp]
  00070	83 ec 08	 sub	 esp, 8
  00073	f2 0f 11 04 24	 movsd	 QWORD PTR [esp], xmm0
  00078	f3 0f 5a 45 fc	 cvtss2sd xmm0, DWORD PTR _x1$[ebp]
  0007d	83 ec 08	 sub	 esp, 8
  00080	f2 0f 11 04 24	 movsd	 QWORD PTR [esp], xmm0
  00085	6a 58		 push	 88			; 00000058H
  00087	a1 00 00 00 00	 mov	 eax, DWORD PTR ?campaign_screen@@3PAUUI_OBJECT@@A ; campaign_screen
  0008c	50		 push	 eax
  0008d	6a 32		 push	 50			; 00000032H
  0008f	6a 01		 push	 1
  00091	e8 00 00 00 00	 call	 ?create_ui_object@@YAPAUUI_OBJECT@@HZZ ; create_ui_object
  00096	83 c4 48	 add	 esp, 72			; 00000048H
  00099	a3 00 00 00 00	 mov	 DWORD PTR ?campaign_screen_full_screen_map@@3PAUUI_OBJECT@@A, eax ; campaign_screen_full_screen_map

; 114  : 		(
; 115  : 			UI_TYPE_AREA,
; 116  : 			UI_ATTR_PARENT (campaign_screen),
; 117  : 			UI_ATTR_VIRTUAL_POSITION (x1, y1),
; 118  : 			UI_ATTR_VIRTUAL_SIZE (x2 - x1, y2 - y1),
; 119  : 			UI_ATTR_DRAWABLE (FALSE),
; 120  : 			UI_ATTR_CLEAR (TRUE),
; 121  : 			UI_ATTR_END
; 122  : 		);
; 123  : 
; 124  : 	x1 = 0.0;

  0009e	0f 57 c0	 xorps	 xmm0, xmm0
  000a1	f3 0f 11 45 fc	 movss	 DWORD PTR _x1$[ebp], xmm0

; 125  : 	y1 = 0.939;

  000a6	f3 0f 10 05 00
	00 00 00	 movss	 xmm0, DWORD PTR __real@3f70624e
  000ae	f3 0f 11 45 f8	 movss	 DWORD PTR _y1$[ebp], xmm0

; 126  : 	x2 = 1.0;

  000b3	f3 0f 10 05 00
	00 00 00	 movss	 xmm0, DWORD PTR __real@3f800000
  000bb	f3 0f 11 45 f4	 movss	 DWORD PTR _x2$[ebp], xmm0

; 127  : 	y2 = 1.0;

  000c0	f3 0f 10 05 00
	00 00 00	 movss	 xmm0, DWORD PTR __real@3f800000
  000c8	f3 0f 11 45 f0	 movss	 DWORD PTR _y2$[ebp], xmm0

; 128  : 
; 129  : 	info_area = create_ui_object

  000cd	6a 11		 push	 17			; 00000011H
  000cf	68 00 00 00 00	 push	 OFFSET ??_C@_0CF@BJBNEKIB@graphics?2ui?2cohokum?2map?2exlogba@
  000d4	e8 00 00 00 00	 call	 ?create_texture_graphic@@YGPAUTEXTURE_GRAPHIC@@PBD@Z ; create_texture_graphic
  000d9	50		 push	 eax
  000da	6a 4c		 push	 76			; 0000004cH
  000dc	f3 0f 10 45 f0	 movss	 xmm0, DWORD PTR _y2$[ebp]
  000e1	f3 0f 5c 45 f8	 subss	 xmm0, DWORD PTR _y1$[ebp]
  000e6	f3 0f 5a c0	 cvtss2sd xmm0, xmm0
  000ea	83 ec 08	 sub	 esp, 8
  000ed	f2 0f 11 04 24	 movsd	 QWORD PTR [esp], xmm0
  000f2	f3 0f 10 45 f4	 movss	 xmm0, DWORD PTR _x2$[ebp]
  000f7	f3 0f 5c 45 fc	 subss	 xmm0, DWORD PTR _x1$[ebp]
  000fc	f3 0f 5a c0	 cvtss2sd xmm0, xmm0
  00100	83 ec 08	 sub	 esp, 8
  00103	f2 0f 11 04 24	 movsd	 QWORD PTR [esp], xmm0
  00108	6a 59		 push	 89			; 00000059H
  0010a	f3 0f 5a 45 f8	 cvtss2sd xmm0, DWORD PTR _y1$[ebp]
  0010f	83 ec 08	 sub	 esp, 8
  00112	f2 0f 11 04 24	 movsd	 QWORD PTR [esp], xmm0
  00117	f3 0f 5a 45 fc	 cvtss2sd xmm0, DWORD PTR _x1$[ebp]
  0011c	83 ec 08	 sub	 esp, 8
  0011f	f2 0f 11 04 24	 movsd	 QWORD PTR [esp], xmm0
  00124	6a 58		 push	 88			; 00000058H
  00126	a1 00 00 00 00	 mov	 eax, DWORD PTR ?campaign_screen@@3PAUUI_OBJECT@@A ; campaign_screen
  0012b	50		 push	 eax
  0012c	6a 32		 push	 50			; 00000032H
  0012e	6a 01		 push	 1
  00130	e8 00 00 00 00	 call	 ?create_ui_object@@YAPAUUI_OBJECT@@HZZ ; create_ui_object
  00135	83 c4 40	 add	 esp, 64			; 00000040H
  00138	a3 00 00 00 00	 mov	 DWORD PTR ?info_area@@3PAUUI_OBJECT@@A, eax

; 130  : 		(
; 131  : 			UI_TYPE_AREA,
; 132  : 			UI_ATTR_PARENT (campaign_screen),
; 133  : 			UI_ATTR_VIRTUAL_POSITION (x1, y1),
; 134  : 			UI_ATTR_VIRTUAL_SIZE (x2 - x1, y2 - y1),
; 135  : 			UI_ATTR_TEXTURE_GRAPHIC (create_texture_graphic ("graphics\\ui\\cohokum\\map\\exlogbar.psd")),
; 136  : 			UI_ATTR_END
; 137  : 		);
; 138  : 
; 139  : 	set_ui_object_user_ptr (campaign_screen_full_screen_map, info_area);

  0013d	a1 00 00 00 00	 mov	 eax, DWORD PTR ?info_area@@3PAUUI_OBJECT@@A
  00142	50		 push	 eax
  00143	8b 0d 00 00 00
	00		 mov	 ecx, DWORD PTR ?campaign_screen_full_screen_map@@3PAUUI_OBJECT@@A ; campaign_screen_full_screen_map
  00149	51		 push	 ecx
  0014a	8b 15 00 00 00
	00		 mov	 edx, DWORD PTR ?campaign_screen_full_screen_map@@3PAUUI_OBJECT@@A ; campaign_screen_full_screen_map
  00150	8b 02		 mov	 eax, DWORD PTR [edx]
  00152	8b 0c 85 00 00
	00 00		 mov	 ecx, DWORD PTR ?fn_set_ui_object_user_ptr@@3PAP6GXPAUUI_OBJECT@@PAX@ZA[eax*4]
  00159	ff d1		 call	 ecx

; 140  : 
; 141  : 	define_info_bar_objects (info_area);

  0015b	a1 00 00 00 00	 mov	 eax, DWORD PTR ?info_area@@3PAUUI_OBJECT@@A
  00160	50		 push	 eax
  00161	e8 00 00 00 00	 call	 ?define_info_bar_objects@@YGXPAUUI_OBJECT@@@Z ; define_info_bar_objects

; 142  : }

  00166	5f		 pop	 edi
  00167	5e		 pop	 esi
  00168	5b		 pop	 ebx
  00169	8b e5		 mov	 esp, ebp
  0016b	5d		 pop	 ebp
  0016c	c3		 ret	 0
?define_campaign_screen_full_screen_map_objects@@YGXXZ ENDP ; define_campaign_screen_full_screen_map_objects
_TEXT	ENDS
; Function compile flags: /Odtp /ZI
; File c:\users\nhv90\projects\eech\aphavoc\source\ui_menu\ingame\campaign\ca_fsmap.c
;	COMDAT ?initialise_campaign_screen_full_screen_map_objects@@YGXXZ
_TEXT	SEGMENT
?initialise_campaign_screen_full_screen_map_objects@@YGXXZ PROC ; initialise_campaign_screen_full_screen_map_objects, COMDAT

; 90   : {

  00000	55		 push	 ebp
  00001	8b ec		 mov	 ebp, esp
  00003	83 ec 40	 sub	 esp, 64			; 00000040H
  00006	53		 push	 ebx
  00007	56		 push	 esi
  00008	57		 push	 edi

; 91   : 	minimize_all_map_objects ();

  00009	e8 00 00 00 00	 call	 ?minimize_all_map_objects@@YGXXZ ; minimize_all_map_objects

; 92   : 
; 93   : 	set_ui_object_drawable (info_area, FALSE);

  0000e	6a 00		 push	 0
  00010	a1 00 00 00 00	 mov	 eax, DWORD PTR ?info_area@@3PAUUI_OBJECT@@A
  00015	50		 push	 eax
  00016	8b 0d 00 00 00
	00		 mov	 ecx, DWORD PTR ?info_area@@3PAUUI_OBJECT@@A
  0001c	8b 11		 mov	 edx, DWORD PTR [ecx]
  0001e	8b 04 95 00 00
	00 00		 mov	 eax, DWORD PTR ?fn_set_ui_object_drawable@@3PAP6GXPAUUI_OBJECT@@H@ZA[edx*4]
  00025	ff d0		 call	 eax

; 94   : }

  00027	5f		 pop	 edi
  00028	5e		 pop	 esi
  00029	5b		 pop	 ebx
  0002a	8b e5		 mov	 esp, ebp
  0002c	5d		 pop	 ebp
  0002d	c3		 ret	 0
?initialise_campaign_screen_full_screen_map_objects@@YGXXZ ENDP ; initialise_campaign_screen_full_screen_map_objects
_TEXT	ENDS
END
