; Listing generated by Microsoft (R) Optimizing Compiler Version 19.16.27045.0 

	TITLE	C:\Users\nhv90\Projects\eech\aphavoc\source\ui_menu\ingame\campaign\ca_msgs.c
	.686P
	.XMM
	include listing.inc
	.model	flat

INCLUDELIB MSVCRTD
INCLUDELIB OLDNAMES

PUBLIC	?campaign_screen_message_responses@@3PAY0O@P6GHW4CAMPAIGN_SCREEN_MESSAGES@@PAUENTITY@@@ZA ; campaign_screen_message_responses
_BSS	SEGMENT
?campaign_screen_message_responses@@3PAY0O@P6GHW4CAMPAIGN_SCREEN_MESSAGES@@PAUENTITY@@@ZA DD 0b6H DUP (?) ; campaign_screen_message_responses
_BSS	ENDS
PUBLIC	?notify_campaign_screen@@YGHW4CAMPAIGN_SCREEN_MESSAGES@@PAUENTITY@@@Z ; notify_campaign_screen
PUBLIC	?initialise_campaign_screen_message_responses@@YGXXZ ; initialise_campaign_screen_message_responses
PUBLIC	?__LINE__Var@?0??notify_campaign_screen@@YGHW4CAMPAIGN_SCREEN_MESSAGES@@PAUENTITY@@@Z@4JA ; `notify_campaign_screen'::`1'::__LINE__Var
PUBLIC	??_C@_0EO@NDCLICDG@c?3?2users?2nhv90?2projects?2eech?2ap@ ; `string'
PUBLIC	??_C@_0DL@BIFJDKBE@?$CImessage?5?$DO?$DN?50?$CJ?5?$CG?$CG?5?$CImessage?5?$DM?5NU@ ; `string'
EXTRN	?process_assert@@YGXPBD0H@Z:PROC		; process_assert
EXTRN	?overload_base_page_message_responses@@YGXXZ:PROC ; overload_base_page_message_responses
EXTRN	?overload_briefing_page_message_responses@@YGXXZ:PROC ; overload_briefing_page_message_responses
EXTRN	?overload_chat_page_message_responses@@YGXXZ:PROC ; overload_chat_page_message_responses
EXTRN	?overload_debriefing_page_message_responses@@YGXXZ:PROC ; overload_debriefing_page_message_responses
EXTRN	?overload_group_page_message_responses@@YGXXZ:PROC ; overload_group_page_message_responses
EXTRN	?overload_campaign_history_message_responses@@YGXXZ:PROC ; overload_campaign_history_message_responses
EXTRN	?overload_mission_list_message_responses@@YGXXZ:PROC ; overload_mission_list_message_responses
EXTRN	?overload_group_list_message_responses@@YGXXZ:PROC ; overload_group_list_message_responses
EXTRN	?overload_base_list_message_responses@@YGXXZ:PROC ; overload_base_list_message_responses
EXTRN	?overload_log_page_message_responses@@YGXXZ:PROC ; overload_log_page_message_responses
EXTRN	?overload_campaign_selection_message_responses@@YGXXZ:PROC ; overload_campaign_selection_message_responses
EXTRN	?overload_stats_page_message_responses@@YGXXZ:PROC ; overload_stats_page_message_responses
EXTRN	?overload_weapon_loading_page_message_responses@@YGXXZ:PROC ; overload_weapon_loading_page_message_responses
EXTRN	?game_status@@3W4GAME_STATUS_TYPES@@A:DWORD	; game_status
EXTRN	?game_type@@3W4GAME_TYPES@@A:DWORD		; game_type
;	COMDAT ??_C@_0DL@BIFJDKBE@?$CImessage?5?$DO?$DN?50?$CJ?5?$CG?$CG?5?$CImessage?5?$DM?5NU@
CONST	SEGMENT
??_C@_0DL@BIFJDKBE@?$CImessage?5?$DO?$DN?50?$CJ?5?$CG?$CG?5?$CImessage?5?$DM?5NU@ DB '('
	DB	'message >= 0) && (message < NUM_CAMPAIGN_SCREEN_MESSAGES)', 00H ; `string'
CONST	ENDS
;	COMDAT ??_C@_0EO@NDCLICDG@c?3?2users?2nhv90?2projects?2eech?2ap@
CONST	SEGMENT
??_C@_0EO@NDCLICDG@c?3?2users?2nhv90?2projects?2eech?2ap@ DB 'c:\users\nh'
	DB	'v90\projects\eech\aphavoc\source\ui_menu\ingame\campaign\ca_m'
	DB	'sgs.c', 00H					; `string'
CONST	ENDS
;	COMDAT ?__LINE__Var@?0??notify_campaign_screen@@YGHW4CAMPAIGN_SCREEN_MESSAGES@@PAUENTITY@@@Z@4JA
_DATA	SEGMENT
?__LINE__Var@?0??notify_campaign_screen@@YGHW4CAMPAIGN_SCREEN_MESSAGES@@PAUENTITY@@@Z@4JA DD 050H ; `notify_campaign_screen'::`1'::__LINE__Var
_DATA	ENDS
; Function compile flags: /Odtp /ZI
; File c:\users\nhv90\projects\eech\aphavoc\source\ui_menu\ingame\campaign\ca_msgs.c
;	COMDAT ?default_message_response@@YGHW4CAMPAIGN_SCREEN_MESSAGES@@PAUENTITY@@@Z
_TEXT	SEGMENT
_message$ = 8						; size = 4
_sender$ = 12						; size = 4
?default_message_response@@YGHW4CAMPAIGN_SCREEN_MESSAGES@@PAUENTITY@@@Z PROC ; default_message_response, COMDAT

; 122  : {

  00000	55		 push	 ebp
  00001	8b ec		 mov	 ebp, esp
  00003	83 ec 40	 sub	 esp, 64			; 00000040H
  00006	53		 push	 ebx
  00007	56		 push	 esi
  00008	57		 push	 edi

; 123  : 	return (FALSE);

  00009	33 c0		 xor	 eax, eax

; 124  : }

  0000b	5f		 pop	 edi
  0000c	5e		 pop	 esi
  0000d	5b		 pop	 ebx
  0000e	8b e5		 mov	 esp, ebp
  00010	5d		 pop	 ebp
  00011	c2 08 00	 ret	 8
?default_message_response@@YGHW4CAMPAIGN_SCREEN_MESSAGES@@PAUENTITY@@@Z ENDP ; default_message_response
_TEXT	ENDS
; Function compile flags: /Odtp /ZI
; File c:\users\nhv90\projects\eech\aphavoc\source\ui_menu\ingame\campaign\ca_msgs.c
;	COMDAT ?initialise_campaign_screen_message_responses@@YGXXZ
_TEXT	SEGMENT
_j$ = -8						; size = 4
_i$ = -4						; size = 4
?initialise_campaign_screen_message_responses@@YGXXZ PROC ; initialise_campaign_screen_message_responses, COMDAT

; 131  : {

  00000	55		 push	 ebp
  00001	8b ec		 mov	 ebp, esp
  00003	83 ec 48	 sub	 esp, 72			; 00000048H
  00006	53		 push	 ebx
  00007	56		 push	 esi
  00008	57		 push	 edi

; 132  : 	int
; 133  : 		i,
; 134  : 		j;
; 135  : 
; 136  : 	//
; 137  : 	// set default message responses
; 138  : 	//
; 139  : 
; 140  : 	for (i = 0; i < NUM_CAMPAIGN_SCREEN_MESSAGE_TARGETS; i ++)

  00009	c7 45 fc 00 00
	00 00		 mov	 DWORD PTR _i$[ebp], 0
  00010	eb 09		 jmp	 SHORT $LN4@initialise
$LN2@initialise:
  00012	8b 45 fc	 mov	 eax, DWORD PTR _i$[ebp]
  00015	83 c0 01	 add	 eax, 1
  00018	89 45 fc	 mov	 DWORD PTR _i$[ebp], eax
$LN4@initialise:
  0001b	83 7d fc 0d	 cmp	 DWORD PTR _i$[ebp], 13	; 0000000dH
  0001f	7d 2e		 jge	 SHORT $LN3@initialise

; 141  : 	{
; 142  : 		for (j = 0; j < NUM_CAMPAIGN_SCREEN_MESSAGES; j ++)

  00021	c7 45 f8 00 00
	00 00		 mov	 DWORD PTR _j$[ebp], 0
  00028	eb 09		 jmp	 SHORT $LN7@initialise
$LN5@initialise:
  0002a	8b 45 f8	 mov	 eax, DWORD PTR _j$[ebp]
  0002d	83 c0 01	 add	 eax, 1
  00030	89 45 f8	 mov	 DWORD PTR _j$[ebp], eax
$LN7@initialise:
  00033	83 7d f8 0e	 cmp	 DWORD PTR _j$[ebp], 14	; 0000000eH
  00037	7d 14		 jge	 SHORT $LN6@initialise

; 143  : 		{
; 144  : 			campaign_screen_message_responses[i][j] = default_message_response;

  00039	6b 45 fc 38	 imul	 eax, DWORD PTR _i$[ebp], 56
  0003d	8b 4d f8	 mov	 ecx, DWORD PTR _j$[ebp]
  00040	c7 84 88 00 00
	00 00 00 00 00
	00		 mov	 DWORD PTR ?campaign_screen_message_responses@@3PAY0O@P6GHW4CAMPAIGN_SCREEN_MESSAGES@@PAUENTITY@@@ZA[eax+ecx*4], OFFSET ?default_message_response@@YGHW4CAMPAIGN_SCREEN_MESSAGES@@PAUENTITY@@@Z ; default_message_response

; 145  : 		}

  0004b	eb dd		 jmp	 SHORT $LN5@initialise
$LN6@initialise:

; 146  : 	}

  0004d	eb c3		 jmp	 SHORT $LN2@initialise
$LN3@initialise:

; 147  : 
; 148  : 	//
; 149  : 	// overload default message responses
; 150  : 	//
; 151  : 
; 152  : 	overload_mission_list_message_responses ();

  0004f	e8 00 00 00 00	 call	 ?overload_mission_list_message_responses@@YGXXZ ; overload_mission_list_message_responses

; 153  : 
; 154  : 	overload_group_list_message_responses ();

  00054	e8 00 00 00 00	 call	 ?overload_group_list_message_responses@@YGXXZ ; overload_group_list_message_responses

; 155  : 
; 156  : 	overload_base_list_message_responses ();

  00059	e8 00 00 00 00	 call	 ?overload_base_list_message_responses@@YGXXZ ; overload_base_list_message_responses

; 157  : 
; 158  : 
; 159  : 	overload_base_page_message_responses ();

  0005e	e8 00 00 00 00	 call	 ?overload_base_page_message_responses@@YGXXZ ; overload_base_page_message_responses

; 160  : 
; 161  : 	overload_briefing_page_message_responses (); 

  00063	e8 00 00 00 00	 call	 ?overload_briefing_page_message_responses@@YGXXZ ; overload_briefing_page_message_responses

; 162  : 
; 163  : 	overload_debriefing_page_message_responses ();

  00068	e8 00 00 00 00	 call	 ?overload_debriefing_page_message_responses@@YGXXZ ; overload_debriefing_page_message_responses

; 164  : 
; 165  : 	overload_group_page_message_responses ();

  0006d	e8 00 00 00 00	 call	 ?overload_group_page_message_responses@@YGXXZ ; overload_group_page_message_responses

; 166  : 
; 167  : 	overload_log_page_message_responses ();

  00072	e8 00 00 00 00	 call	 ?overload_log_page_message_responses@@YGXXZ ; overload_log_page_message_responses

; 168  : 
; 169  : 	overload_chat_page_message_responses ();

  00077	e8 00 00 00 00	 call	 ?overload_chat_page_message_responses@@YGXXZ ; overload_chat_page_message_responses

; 170  : 
; 171  : 	overload_stats_page_message_responses ();

  0007c	e8 00 00 00 00	 call	 ?overload_stats_page_message_responses@@YGXXZ ; overload_stats_page_message_responses

; 172  : 
; 173  : 	overload_weapon_loading_page_message_responses ();

  00081	e8 00 00 00 00	 call	 ?overload_weapon_loading_page_message_responses@@YGXXZ ; overload_weapon_loading_page_message_responses

; 174  : 
; 175  : 
; 176  : 	overload_campaign_selection_message_responses ();

  00086	e8 00 00 00 00	 call	 ?overload_campaign_selection_message_responses@@YGXXZ ; overload_campaign_selection_message_responses

; 177  : 
; 178  : 	overload_campaign_history_message_responses ();

  0008b	e8 00 00 00 00	 call	 ?overload_campaign_history_message_responses@@YGXXZ ; overload_campaign_history_message_responses

; 179  : }

  00090	5f		 pop	 edi
  00091	5e		 pop	 esi
  00092	5b		 pop	 ebx
  00093	8b e5		 mov	 esp, ebp
  00095	5d		 pop	 ebp
  00096	c3		 ret	 0
?initialise_campaign_screen_message_responses@@YGXXZ ENDP ; initialise_campaign_screen_message_responses
_TEXT	ENDS
; Function compile flags: /Odtp /ZI
; File c:\users\nhv90\projects\eech\aphavoc\source\ui_menu\ingame\campaign\ca_msgs.c
;	COMDAT ?notify_campaign_screen@@YGHW4CAMPAIGN_SCREEN_MESSAGES@@PAUENTITY@@@Z
_TEXT	SEGMENT
_loop$ = -4						; size = 4
_message$ = 8						; size = 4
_sender$ = 12						; size = 4
?notify_campaign_screen@@YGHW4CAMPAIGN_SCREEN_MESSAGES@@PAUENTITY@@@Z PROC ; notify_campaign_screen, COMDAT

; 80   : {

  00000	55		 push	 ebp
  00001	8b ec		 mov	 ebp, esp
  00003	83 ec 44	 sub	 esp, 68			; 00000044H
  00006	53		 push	 ebx
  00007	56		 push	 esi
  00008	57		 push	 edi

; 81   : 	#if !DEMO_VERSION
; 82   : 
; 83   : 	int
; 84   : 		loop;
; 85   : 
; 86   : 	ASSERT ((message >= 0) && (message < NUM_CAMPAIGN_SCREEN_MESSAGES));

  00009	83 7d 08 00	 cmp	 DWORD PTR _message$[ebp], 0
  0000d	7c 06		 jl	 SHORT $LN6@notify_cam
  0000f	83 7d 08 0e	 cmp	 DWORD PTR _message$[ebp], 14 ; 0000000eH
  00013	7c 18		 jl	 SHORT $LN5@notify_cam
$LN6@notify_cam:
  00015	a1 00 00 00 00	 mov	 eax, DWORD PTR ?__LINE__Var@?0??notify_campaign_screen@@YGHW4CAMPAIGN_SCREEN_MESSAGES@@PAUENTITY@@@Z@4JA
  0001a	83 c0 06	 add	 eax, 6
  0001d	50		 push	 eax
  0001e	68 00 00 00 00	 push	 OFFSET ??_C@_0EO@NDCLICDG@c?3?2users?2nhv90?2projects?2eech?2ap@
  00023	68 00 00 00 00	 push	 OFFSET ??_C@_0DL@BIFJDKBE@?$CImessage?5?$DO?$DN?50?$CJ?5?$CG?$CG?5?$CImessage?5?$DM?5NU@
  00028	e8 00 00 00 00	 call	 ?process_assert@@YGXPBD0H@Z ; process_assert
$LN5@notify_cam:

; 87   : 
; 88   : 	if (get_game_status () != GAME_STATUS_INITIALISED)

  0002d	83 3d 00 00 00
	00 03		 cmp	 DWORD PTR ?game_status@@3W4GAME_STATUS_TYPES@@A, 3 ; game_status
  00034	74 04		 je	 SHORT $LN7@notify_cam

; 89   : 	{
; 90   : 		return FALSE;

  00036	33 c0		 xor	 eax, eax
  00038	eb 4d		 jmp	 SHORT $LN1@notify_cam
$LN7@notify_cam:

; 91   : 	}
; 92   : 
; 93   : 	if (
; 94   : 			(get_game_type () != GAME_TYPE_CAMPAIGN) &&

  0003a	83 3d 00 00 00
	00 02		 cmp	 DWORD PTR ?game_type@@3W4GAME_TYPES@@A, 2 ; game_type
  00041	74 0d		 je	 SHORT $LN8@notify_cam
  00043	83 3d 00 00 00
	00 03		 cmp	 DWORD PTR ?game_type@@3W4GAME_TYPES@@A, 3 ; game_type
  0004a	74 04		 je	 SHORT $LN8@notify_cam

; 95   : 			(get_game_type () != GAME_TYPE_SKIRMISH)
; 96   : 		)
; 97   : 	{
; 98   : 		return FALSE;

  0004c	33 c0		 xor	 eax, eax
  0004e	eb 37		 jmp	 SHORT $LN1@notify_cam
$LN8@notify_cam:

; 99   : 	}
; 100  : 
; 101  : 	for (loop = 0; loop < NUM_CAMPAIGN_SCREEN_MESSAGE_TARGETS; loop ++)

  00050	c7 45 fc 00 00
	00 00		 mov	 DWORD PTR _loop$[ebp], 0
  00057	eb 09		 jmp	 SHORT $LN4@notify_cam
$LN2@notify_cam:
  00059	8b 45 fc	 mov	 eax, DWORD PTR _loop$[ebp]
  0005c	83 c0 01	 add	 eax, 1
  0005f	89 45 fc	 mov	 DWORD PTR _loop$[ebp], eax
$LN4@notify_cam:
  00062	83 7d fc 0d	 cmp	 DWORD PTR _loop$[ebp], 13 ; 0000000dH
  00066	7d 1a		 jge	 SHORT $LN3@notify_cam

; 102  : 	{
; 103  : 		campaign_screen_message_responses[loop][message] (message, sender);

  00068	8b 45 0c	 mov	 eax, DWORD PTR _sender$[ebp]
  0006b	50		 push	 eax
  0006c	8b 4d 08	 mov	 ecx, DWORD PTR _message$[ebp]
  0006f	51		 push	 ecx
  00070	6b 55 fc 38	 imul	 edx, DWORD PTR _loop$[ebp], 56
  00074	8b 45 08	 mov	 eax, DWORD PTR _message$[ebp]
  00077	8b 8c 82 00 00
	00 00		 mov	 ecx, DWORD PTR ?campaign_screen_message_responses@@3PAY0O@P6GHW4CAMPAIGN_SCREEN_MESSAGES@@PAUENTITY@@@ZA[edx+eax*4]
  0007e	ff d1		 call	 ecx

; 104  : 	}

  00080	eb d7		 jmp	 SHORT $LN2@notify_cam
$LN3@notify_cam:

; 105  : 
; 106  : 	#endif
; 107  : 
; 108  : 	return TRUE;

  00082	b8 01 00 00 00	 mov	 eax, 1
$LN1@notify_cam:

; 109  : }

  00087	5f		 pop	 edi
  00088	5e		 pop	 esi
  00089	5b		 pop	 ebx
  0008a	8b e5		 mov	 esp, ebp
  0008c	5d		 pop	 ebp
  0008d	c2 08 00	 ret	 8
?notify_campaign_screen@@YGHW4CAMPAIGN_SCREEN_MESSAGES@@PAUENTITY@@@Z ENDP ; notify_campaign_screen
_TEXT	ENDS
END
