; Listing generated by Microsoft (R) Optimizing Compiler Version 19.16.27045.0 

	TITLE	C:\Users\nhv90\Projects\eech\aphavoc\source\ui_menu\ingame\campaign\ca_menu.c
	.686P
	.XMM
	include listing.inc
	.model	flat

INCLUDELIB MSVCRTD
INCLUDELIB OLDNAMES

PUBLIC	?initialise_campaign_screen_menu_objects@@YGXXZ	; initialise_campaign_screen_menu_objects
PUBLIC	?define_campaign_screen_menu_objects@@YGXXZ	; define_campaign_screen_menu_objects
PUBLIC	?__LINE__Var@?0??update_top_menu_area@@YGXPAUUI_OBJECT@@PAX@Z@4JA ; `update_top_menu_area'::`1'::__LINE__Var
PUBLIC	??_C@_0EO@CONPFOBN@c?3?2users?2nhv90?2projects?2eech?2ap@ ; `string'
PUBLIC	??_C@_0BG@EFCJJKAA@get_session_entity?5?$CI?$CJ@ ; `string'
PUBLIC	??_C@_0L@CHHJGCHE@Debriefing@			; `string'
PUBLIC	??_C@_08HJFJOAMM@Briefing@			; `string'
PUBLIC	??_C@_00CNPNBAHC@@				; `string'
PUBLIC	??_C@_0M@MHNBPGKN@this_object@			; `string'
PUBLIC	??_C@_0CL@MFMLNAAJ@?$CIpage?5?$DO?$DN?50?$CJ?5?$CG?$CG?5?$CIpage?5?$DM?5NUM_CAMP@ ; `string'
PUBLIC	?__LINE__Var@?0??notify_weapon_loading_button@@YGXPAUUI_OBJECT@@PAX@Z@4JA ; `notify_weapon_loading_button'::`1'::__LINE__Var
PUBLIC	??_C@_0BG@EANNPEON@get_gunship_entity?5?$CI?$CJ@ ; `string'
PUBLIC	??_C@_05MGJOOGAJ@group@				; `string'
PUBLIC	?__LINE__Var@?0??define_campaign_screen_menu_objects@@YGXXZ@4JA ; `define_campaign_screen_menu_objects'::`1'::__LINE__Var
PUBLIC	??_C@_0CB@PCLJFLPG@graphics?2ui?2cohokum?2map?2tabs?4ps@ ; `string'
PUBLIC	??_C@_03NBOPHIOC@Map@				; `string'
PUBLIC	??_C@_09BPHPLPEG@Sit?4?5Rep?4@			; `string'
PUBLIC	??_C@_03GGEOLGBL@Log@				; `string'
PUBLIC	??_C@_07LJBELKKF@Payload@			; `string'
PUBLIC	??_C@_04NKFKOIHC@Chat@				; `string'
PUBLIC	??_C@_07KHIHFBFN@Options@			; `string'
PUBLIC	??_C@_04INACKGJP@Save@				; `string'
PUBLIC	??_C@_0CF@FIIMNOGI@menu_button_count?5?$DM?5MAX_MENU_BU@ ; `string'
PUBLIC	__real@3d449ba6
PUBLIC	__real@3e000000
PUBLIC	__real@3e6147ae
PUBLIC	__real@3e800000
PUBLIC	__real@3ec00000
PUBLIC	__real@3f000000
PUBLIC	__real@3f200000
PUBLIC	__real@3f400000
PUBLIC	__real@3f600000
PUBLIC	__real@3f800000
EXTRN	?process_assert@@YGXPBD0H@Z:PROC		; process_assert
EXTRN	?create_texture_graphic@@YGPAUTEXTURE_GRAPHIC@@PBD@Z:PROC ; create_texture_graphic
EXTRN	?create_ui_object@@YAPAUUI_OBJECT@@HZZ:PROC	; create_ui_object
EXTRN	?get_player_task@@YGPAUENTITY@@PAU1@@Z:PROC	; get_player_task
EXTRN	?set_pause_time_acceleration@@YGXPAUEVENT@@@Z:PROC ; set_pause_time_acceleration
EXTRN	?get_trans@@YGPBDPBD@Z:PROC			; get_trans
EXTRN	?show_briefing_page@@YGXPAUENTITY@@H@Z:PROC	; show_briefing_page
EXTRN	?show_chat_page@@YGXPAUUI_OBJECT@@@Z:PROC	; show_chat_page
EXTRN	?show_debriefing_page@@YGXPAUENTITY@@HH@Z:PROC	; show_debriefing_page
EXTRN	?show_log_page@@YGXXZ:PROC			; show_log_page
EXTRN	?show_map_page@@YGXXZ:PROC			; show_map_page
EXTRN	?show_save_page@@YGXPAUUI_OBJECT@@@Z:PROC	; show_save_page
EXTRN	?show_stats_page@@YGXXZ:PROC			; show_stats_page
EXTRN	?show_weapon_loading_page@@YGXPAUENTITY@@H@Z:PROC ; show_weapon_loading_page
EXTRN	?show_options_page@@YGXXZ:PROC			; show_options_page
EXTRN	?fn_set_ui_object_state@@3PAP6GXPAUUI_OBJECT@@H@ZA:BYTE ; fn_set_ui_object_state
EXTRN	?fn_set_ui_object_drawable@@3PAP6GXPAUUI_OBJECT@@H@ZA:BYTE ; fn_set_ui_object_drawable
EXTRN	?fn_get_ui_object_drawable@@3PAP6GHPAUUI_OBJECT@@@ZA:BYTE ; fn_get_ui_object_drawable
EXTRN	?fn_get_ui_object_item_number@@3PAP6GHPAUUI_OBJECT@@@ZA:BYTE ; fn_get_ui_object_item_number
EXTRN	?fn_set_ui_object_text@@3PAP6GXPAUUI_OBJECT@@PBD@ZA:BYTE ; fn_set_ui_object_text
EXTRN	?ui_ingame_live_text_colour@@3UREAL_COLOUR@@A:DWORD ; ui_ingame_live_text_colour
EXTRN	?ui_ingame_highlight_text_colour@@3UREAL_COLOUR@@A:DWORD ; ui_ingame_highlight_text_colour
EXTRN	?ui_ingame_selected_text_colour@@3UREAL_COLOUR@@A:DWORD ; ui_ingame_selected_text_colour
EXTRN	?null_entity_pointer_message@@3PBDB:DWORD	; null_entity_pointer_message
EXTRN	?system_comms_model@@3W4COMMS_MODEL_TYPES@@A:DWORD ; system_comms_model
EXTRN	?overload_invalid_list_type_message@@3PBDB:DWORD ; overload_invalid_list_type_message
EXTRN	?fn_get_local_entity_parent@@3PAY0CN@P6GPAUENTITY@@PAU1@W4LIST_TYPES@@@ZA:BYTE ; fn_get_local_entity_parent
EXTRN	?overload_invalid_int_type_message@@3PBDB:DWORD	; overload_invalid_int_type_message
EXTRN	?fn_get_local_entity_int_value@@3PAY0BBH@P6GHPAUENTITY@@W4INT_TYPES@@@ZA:BYTE ; fn_get_local_entity_int_value
EXTRN	?gunship_entity@@3PAUENTITY@@A:DWORD		; gunship_entity
EXTRN	?session_entity@@3PAUENTITY@@A:DWORD		; session_entity
EXTRN	?campaign_screen@@3PAUUI_OBJECT@@A:DWORD	; campaign_screen
EXTRN	?campaign_page@@3PAPAUUI_OBJECT@@A:BYTE		; campaign_page
EXTRN	__fltused:DWORD
_BSS	SEGMENT
?top_menu_area@@3PAUUI_OBJECT@@A DD 01H DUP (?)		; top_menu_area
?campaign_chat_button@@3PAUUI_OBJECT@@A DD 01H DUP (?)	; campaign_chat_button
?campaign_save_button@@3PAUUI_OBJECT@@A DD 01H DUP (?)	; campaign_save_button
?campaign_briefing_button@@3PAUUI_OBJECT@@A DD 01H DUP (?) ; campaign_briefing_button
?campaign_weapon_loading_button@@3PAUUI_OBJECT@@A DD 01H DUP (?) ; campaign_weapon_loading_button
?button_list@@3PAPAUUI_OBJECT@@A DD 010H DUP (?)	; button_list
?menu_button_count@@3HA DD 01H DUP (?)			; menu_button_count
_BSS	ENDS
;	COMDAT __real@3f800000
CONST	SEGMENT
__real@3f800000 DD 03f800000r			; 1
CONST	ENDS
;	COMDAT __real@3f600000
CONST	SEGMENT
__real@3f600000 DD 03f600000r			; 0.875
CONST	ENDS
;	COMDAT __real@3f400000
CONST	SEGMENT
__real@3f400000 DD 03f400000r			; 0.75
CONST	ENDS
;	COMDAT __real@3f200000
CONST	SEGMENT
__real@3f200000 DD 03f200000r			; 0.625
CONST	ENDS
;	COMDAT __real@3f000000
CONST	SEGMENT
__real@3f000000 DD 03f000000r			; 0.5
CONST	ENDS
;	COMDAT __real@3ec00000
CONST	SEGMENT
__real@3ec00000 DD 03ec00000r			; 0.375
CONST	ENDS
;	COMDAT __real@3e800000
CONST	SEGMENT
__real@3e800000 DD 03e800000r			; 0.25
CONST	ENDS
;	COMDAT __real@3e6147ae
CONST	SEGMENT
__real@3e6147ae DD 03e6147aer			; 0.22
CONST	ENDS
;	COMDAT __real@3e000000
CONST	SEGMENT
__real@3e000000 DD 03e000000r			; 0.125
CONST	ENDS
;	COMDAT __real@3d449ba6
CONST	SEGMENT
__real@3d449ba6 DD 03d449ba6r			; 0.048
CONST	ENDS
;	COMDAT ??_C@_0CF@FIIMNOGI@menu_button_count?5?$DM?5MAX_MENU_BU@
CONST	SEGMENT
??_C@_0CF@FIIMNOGI@menu_button_count?5?$DM?5MAX_MENU_BU@ DB 'menu_button_'
	DB	'count < MAX_MENU_BUTTONS', 00H		; `string'
CONST	ENDS
;	COMDAT ??_C@_04INACKGJP@Save@
CONST	SEGMENT
??_C@_04INACKGJP@Save@ DB 'Save', 00H			; `string'
CONST	ENDS
;	COMDAT ??_C@_07KHIHFBFN@Options@
CONST	SEGMENT
??_C@_07KHIHFBFN@Options@ DB 'Options', 00H		; `string'
CONST	ENDS
;	COMDAT ??_C@_04NKFKOIHC@Chat@
CONST	SEGMENT
??_C@_04NKFKOIHC@Chat@ DB 'Chat', 00H			; `string'
CONST	ENDS
;	COMDAT ??_C@_07LJBELKKF@Payload@
CONST	SEGMENT
??_C@_07LJBELKKF@Payload@ DB 'Payload', 00H		; `string'
CONST	ENDS
;	COMDAT ??_C@_03GGEOLGBL@Log@
CONST	SEGMENT
??_C@_03GGEOLGBL@Log@ DB 'Log', 00H			; `string'
CONST	ENDS
;	COMDAT ??_C@_09BPHPLPEG@Sit?4?5Rep?4@
CONST	SEGMENT
??_C@_09BPHPLPEG@Sit?4?5Rep?4@ DB 'Sit. Rep.', 00H	; `string'
CONST	ENDS
;	COMDAT ??_C@_03NBOPHIOC@Map@
CONST	SEGMENT
??_C@_03NBOPHIOC@Map@ DB 'Map', 00H			; `string'
CONST	ENDS
;	COMDAT ??_C@_0CB@PCLJFLPG@graphics?2ui?2cohokum?2map?2tabs?4ps@
CONST	SEGMENT
??_C@_0CB@PCLJFLPG@graphics?2ui?2cohokum?2map?2tabs?4ps@ DB 'graphics\ui\'
	DB	'cohokum\map\tabs.psd', 00H			; `string'
CONST	ENDS
;	COMDAT ?__LINE__Var@?0??define_campaign_screen_menu_objects@@YGXXZ@4JA
_DATA	SEGMENT
?__LINE__Var@?0??define_campaign_screen_menu_objects@@YGXXZ@4JA DD 0135H ; `define_campaign_screen_menu_objects'::`1'::__LINE__Var
_DATA	ENDS
;	COMDAT ??_C@_05MGJOOGAJ@group@
CONST	SEGMENT
??_C@_05MGJOOGAJ@group@ DB 'group', 00H			; `string'
CONST	ENDS
;	COMDAT ??_C@_0BG@EANNPEON@get_gunship_entity?5?$CI?$CJ@
CONST	SEGMENT
??_C@_0BG@EANNPEON@get_gunship_entity?5?$CI?$CJ@ DB 'get_gunship_entity ('
	DB	')', 00H					; `string'
CONST	ENDS
;	COMDAT ?__LINE__Var@?0??notify_weapon_loading_button@@YGXPAUUI_OBJECT@@PAX@Z@4JA
_DATA	SEGMENT
?__LINE__Var@?0??notify_weapon_loading_button@@YGXPAUUI_OBJECT@@PAX@Z@4JA DD 0123H ; `notify_weapon_loading_button'::`1'::__LINE__Var
_DATA	ENDS
;	COMDAT ??_C@_0CL@MFMLNAAJ@?$CIpage?5?$DO?$DN?50?$CJ?5?$CG?$CG?5?$CIpage?5?$DM?5NUM_CAMP@
CONST	SEGMENT
??_C@_0CL@MFMLNAAJ@?$CIpage?5?$DO?$DN?50?$CJ?5?$CG?$CG?5?$CIpage?5?$DM?5NUM_CAMP@ DB '('
	DB	'page >= 0) && (page < NUM_CAMPAIGN_PAGES)', 00H ; `string'
CONST	ENDS
;	COMDAT ??_C@_0M@MHNBPGKN@this_object@
CONST	SEGMENT
??_C@_0M@MHNBPGKN@this_object@ DB 'this_object', 00H	; `string'
CONST	ENDS
;	COMDAT ??_C@_00CNPNBAHC@@
CONST	SEGMENT
??_C@_00CNPNBAHC@@ DB 00H				; `string'
CONST	ENDS
;	COMDAT ??_C@_08HJFJOAMM@Briefing@
CONST	SEGMENT
??_C@_08HJFJOAMM@Briefing@ DB 'Briefing', 00H		; `string'
CONST	ENDS
;	COMDAT ??_C@_0L@CHHJGCHE@Debriefing@
CONST	SEGMENT
??_C@_0L@CHHJGCHE@Debriefing@ DB 'Debriefing', 00H	; `string'
CONST	ENDS
;	COMDAT ??_C@_0BG@EFCJJKAA@get_session_entity?5?$CI?$CJ@
CONST	SEGMENT
??_C@_0BG@EFCJJKAA@get_session_entity?5?$CI?$CJ@ DB 'get_session_entity ('
	DB	')', 00H					; `string'
CONST	ENDS
;	COMDAT ??_C@_0EO@CONPFOBN@c?3?2users?2nhv90?2projects?2eech?2ap@
CONST	SEGMENT
??_C@_0EO@CONPFOBN@c?3?2users?2nhv90?2projects?2eech?2ap@ DB 'c:\users\nh'
	DB	'v90\projects\eech\aphavoc\source\ui_menu\ingame\campaign\ca_m'
	DB	'enu.c', 00H					; `string'
CONST	ENDS
;	COMDAT ?__LINE__Var@?0??update_top_menu_area@@YGXPAUUI_OBJECT@@PAX@Z@4JA
_DATA	SEGMENT
?__LINE__Var@?0??update_top_menu_area@@YGXPAUUI_OBJECT@@PAX@Z@4JA DD 069H ; `update_top_menu_area'::`1'::__LINE__Var
_DATA	ENDS
; Function compile flags: /Odtp /ZI
; File c:\users\nhv90\projects\eech\aphavoc\source\ui_menu\ingame\campaign\ca_menu.c
;	COMDAT ?notify_weapon_loading_button@@YGXPAUUI_OBJECT@@PAX@Z
_TEXT	SEGMENT
tv83 = -76						; size = 4
tv75 = -72						; size = 4
_group$ = -4						; size = 4
_obj$ = 8						; size = 4
_arg$ = 12						; size = 4
?notify_weapon_loading_button@@YGXPAUUI_OBJECT@@PAX@Z PROC ; notify_weapon_loading_button, COMDAT

; 291  : {

  00000	55		 push	 ebp
  00001	8b ec		 mov	 ebp, esp
  00003	83 ec 4c	 sub	 esp, 76			; 0000004cH
  00006	53		 push	 ebx
  00007	56		 push	 esi
  00008	57		 push	 edi

; 292  : 	entity
; 293  : 		*group;
; 294  : 		
; 295  : 	ASSERT (get_gunship_entity ());

  00009	83 3d 00 00 00
	00 00		 cmp	 DWORD PTR ?gunship_entity@@3PAUENTITY@@A, 0 ; gunship_entity
  00010	75 18		 jne	 SHORT $LN2@notify_wea
  00012	a1 00 00 00 00	 mov	 eax, DWORD PTR ?__LINE__Var@?0??notify_weapon_loading_button@@YGXPAUUI_OBJECT@@PAX@Z@4JA
  00017	83 c0 04	 add	 eax, 4
  0001a	50		 push	 eax
  0001b	68 00 00 00 00	 push	 OFFSET ??_C@_0EO@CONPFOBN@c?3?2users?2nhv90?2projects?2eech?2ap@
  00020	68 00 00 00 00	 push	 OFFSET ??_C@_0BG@EANNPEON@get_gunship_entity?5?$CI?$CJ@
  00025	e8 00 00 00 00	 call	 ?process_assert@@YGXPBD0H@Z ; process_assert
$LN2@notify_wea:

; 296  : 
; 297  : 	group = get_local_entity_parent (get_gunship_entity (), LIST_TYPE_MEMBER);

  0002a	83 3d 00 00 00
	00 00		 cmp	 DWORD PTR ?gunship_entity@@3PAUENTITY@@A, 0 ; gunship_entity
  00031	74 0c		 je	 SHORT $LN5@notify_wea
  00033	a1 00 00 00 00	 mov	 eax, DWORD PTR ?gunship_entity@@3PAUENTITY@@A ; gunship_entity
  00038	8b 08		 mov	 ecx, DWORD PTR [eax]
  0003a	89 4d b8	 mov	 DWORD PTR tv75[ebp], ecx
  0003d	eb 21		 jmp	 SHORT $LN6@notify_wea
$LN5@notify_wea:
  0003f	8b 15 00 00 00
	00		 mov	 edx, DWORD PTR ?__LINE__Var@?0??notify_weapon_loading_button@@YGXPAUUI_OBJECT@@PAX@Z@4JA
  00045	83 c2 06	 add	 edx, 6
  00048	52		 push	 edx
  00049	68 00 00 00 00	 push	 OFFSET ??_C@_0EO@CONPFOBN@c?3?2users?2nhv90?2projects?2eech?2ap@
  0004e	a1 00 00 00 00	 mov	 eax, DWORD PTR ?null_entity_pointer_message@@3PBDB ; null_entity_pointer_message
  00053	50		 push	 eax
  00054	e8 00 00 00 00	 call	 ?process_assert@@YGXPBD0H@Z ; process_assert
  00059	c7 45 b8 00 00
	00 00		 mov	 DWORD PTR tv75[ebp], 0
$LN6@notify_wea:
  00060	b9 01 00 00 00	 mov	 ecx, 1
  00065	85 c9		 test	 ecx, ecx
  00067	74 09		 je	 SHORT $LN7@notify_wea
  00069	c7 45 b4 19 00
	00 00		 mov	 DWORD PTR tv83[ebp], 25	; 00000019H
  00070	eb 21		 jmp	 SHORT $LN8@notify_wea
$LN7@notify_wea:
  00072	8b 15 00 00 00
	00		 mov	 edx, DWORD PTR ?__LINE__Var@?0??notify_weapon_loading_button@@YGXPAUUI_OBJECT@@PAX@Z@4JA
  00078	83 c2 06	 add	 edx, 6
  0007b	52		 push	 edx
  0007c	68 00 00 00 00	 push	 OFFSET ??_C@_0EO@CONPFOBN@c?3?2users?2nhv90?2projects?2eech?2ap@
  00081	a1 00 00 00 00	 mov	 eax, DWORD PTR ?overload_invalid_list_type_message@@3PBDB ; overload_invalid_list_type_message
  00086	50		 push	 eax
  00087	e8 00 00 00 00	 call	 ?process_assert@@YGXPBD0H@Z ; process_assert
  0008c	c7 45 b4 00 00
	00 00		 mov	 DWORD PTR tv83[ebp], 0
$LN8@notify_wea:
  00093	6a 19		 push	 25			; 00000019H
  00095	8b 0d 00 00 00
	00		 mov	 ecx, DWORD PTR ?gunship_entity@@3PAUENTITY@@A ; gunship_entity
  0009b	51		 push	 ecx
  0009c	69 55 b8 b4 00
	00 00		 imul	 edx, DWORD PTR tv75[ebp], 180
  000a3	8b 45 b4	 mov	 eax, DWORD PTR tv83[ebp]
  000a6	8b 8c 82 00 00
	00 00		 mov	 ecx, DWORD PTR ?fn_get_local_entity_parent@@3PAY0CN@P6GPAUENTITY@@PAU1@W4LIST_TYPES@@@ZA[edx+eax*4]
  000ad	ff d1		 call	 ecx
  000af	89 45 fc	 mov	 DWORD PTR _group$[ebp], eax

; 298  : 
; 299  : 	ASSERT (group);

  000b2	83 7d fc 00	 cmp	 DWORD PTR _group$[ebp], 0
  000b6	75 18		 jne	 SHORT $LN3@notify_wea
  000b8	a1 00 00 00 00	 mov	 eax, DWORD PTR ?__LINE__Var@?0??notify_weapon_loading_button@@YGXPAUUI_OBJECT@@PAX@Z@4JA
  000bd	83 c0 08	 add	 eax, 8
  000c0	50		 push	 eax
  000c1	68 00 00 00 00	 push	 OFFSET ??_C@_0EO@CONPFOBN@c?3?2users?2nhv90?2projects?2eech?2ap@
  000c6	68 00 00 00 00	 push	 OFFSET ??_C@_05MGJOOGAJ@group@
  000cb	e8 00 00 00 00	 call	 ?process_assert@@YGXPBD0H@Z ; process_assert
$LN3@notify_wea:

; 300  : 
; 301  : 	show_weapon_loading_page (group, TRUE);

  000d0	6a 01		 push	 1
  000d2	8b 45 fc	 mov	 eax, DWORD PTR _group$[ebp]
  000d5	50		 push	 eax
  000d6	e8 00 00 00 00	 call	 ?show_weapon_loading_page@@YGXPAUENTITY@@H@Z ; show_weapon_loading_page

; 302  : }

  000db	5f		 pop	 edi
  000dc	5e		 pop	 esi
  000dd	5b		 pop	 ebx
  000de	8b e5		 mov	 esp, ebp
  000e0	5d		 pop	 ebp
  000e1	c2 08 00	 ret	 8
?notify_weapon_loading_button@@YGXPAUUI_OBJECT@@PAX@Z ENDP ; notify_weapon_loading_button
_TEXT	ENDS
; Function compile flags: /Odtp /ZI
; File c:\users\nhv90\projects\eech\aphavoc\source\ui_menu\ingame\campaign\ca_menu.c
;	COMDAT ?notify_briefing_button@@YGXPAUUI_OBJECT@@PAX@Z
_TEXT	SEGMENT
tv79 = -76						; size = 4
tv72 = -72						; size = 4
_task$ = -4						; size = 4
_obj$ = 8						; size = 4
_arg$ = 12						; size = 4
?notify_briefing_button@@YGXPAUUI_OBJECT@@PAX@Z PROC	; notify_briefing_button, COMDAT

; 267  : {

  00000	55		 push	 ebp
  00001	8b ec		 mov	 ebp, esp
  00003	83 ec 4c	 sub	 esp, 76			; 0000004cH
  00006	53		 push	 ebx
  00007	56		 push	 esi
  00008	57		 push	 edi

; 268  : 	entity
; 269  : 		*task;
; 270  : 
; 271  : 	task = get_player_task (NULL);

  00009	6a 00		 push	 0
  0000b	e8 00 00 00 00	 call	 ?get_player_task@@YGPAUENTITY@@PAU1@@Z ; get_player_task
  00010	89 45 fc	 mov	 DWORD PTR _task$[ebp], eax

; 272  : 
; 273  : 	if (task)

  00013	83 7d fc 00	 cmp	 DWORD PTR _task$[ebp], 0
  00017	0f 84 97 00 00
	00		 je	 $LN1@notify_bri

; 274  : 	{
; 275  : 		if (get_local_entity_int_value (task, INT_TYPE_TASK_STATE) == TASK_STATE_COMPLETED)

  0001d	83 7d fc 00	 cmp	 DWORD PTR _task$[ebp], 0
  00021	74 0a		 je	 SHORT $LN6@notify_bri
  00023	8b 45 fc	 mov	 eax, DWORD PTR _task$[ebp]
  00026	8b 08		 mov	 ecx, DWORD PTR [eax]
  00028	89 4d b8	 mov	 DWORD PTR tv72[ebp], ecx
  0002b	eb 1d		 jmp	 SHORT $LN7@notify_bri
$LN6@notify_bri:
  0002d	68 13 01 00 00	 push	 275			; 00000113H
  00032	68 00 00 00 00	 push	 OFFSET ??_C@_0EO@CONPFOBN@c?3?2users?2nhv90?2projects?2eech?2ap@
  00037	8b 15 00 00 00
	00		 mov	 edx, DWORD PTR ?null_entity_pointer_message@@3PBDB ; null_entity_pointer_message
  0003d	52		 push	 edx
  0003e	e8 00 00 00 00	 call	 ?process_assert@@YGXPBD0H@Z ; process_assert
  00043	c7 45 b8 00 00
	00 00		 mov	 DWORD PTR tv72[ebp], 0
$LN7@notify_bri:
  0004a	b8 01 00 00 00	 mov	 eax, 1
  0004f	85 c0		 test	 eax, eax
  00051	74 09		 je	 SHORT $LN8@notify_bri
  00053	c7 45 b4 e3 00
	00 00		 mov	 DWORD PTR tv79[ebp], 227 ; 000000e3H
  0005a	eb 1d		 jmp	 SHORT $LN9@notify_bri
$LN8@notify_bri:
  0005c	68 13 01 00 00	 push	 275			; 00000113H
  00061	68 00 00 00 00	 push	 OFFSET ??_C@_0EO@CONPFOBN@c?3?2users?2nhv90?2projects?2eech?2ap@
  00066	8b 0d 00 00 00
	00		 mov	 ecx, DWORD PTR ?overload_invalid_int_type_message@@3PBDB ; overload_invalid_int_type_message
  0006c	51		 push	 ecx
  0006d	e8 00 00 00 00	 call	 ?process_assert@@YGXPBD0H@Z ; process_assert
  00072	c7 45 b4 00 00
	00 00		 mov	 DWORD PTR tv79[ebp], 0
$LN9@notify_bri:
  00079	68 e3 00 00 00	 push	 227			; 000000e3H
  0007e	8b 55 fc	 mov	 edx, DWORD PTR _task$[ebp]
  00081	52		 push	 edx
  00082	69 45 b8 5c 04
	00 00		 imul	 eax, DWORD PTR tv72[ebp], 1116
  00089	8b 4d b4	 mov	 ecx, DWORD PTR tv79[ebp]
  0008c	8b 94 88 00 00
	00 00		 mov	 edx, DWORD PTR ?fn_get_local_entity_int_value@@3PAY0BBH@P6GHPAUENTITY@@W4INT_TYPES@@@ZA[eax+ecx*4]
  00093	ff d2		 call	 edx
  00095	83 f8 02	 cmp	 eax, 2
  00098	75 0f		 jne	 SHORT $LN3@notify_bri

; 276  : 		{
; 277  : 			show_debriefing_page (task, FALSE, FALSE);

  0009a	6a 00		 push	 0
  0009c	6a 00		 push	 0
  0009e	8b 45 fc	 mov	 eax, DWORD PTR _task$[ebp]
  000a1	50		 push	 eax
  000a2	e8 00 00 00 00	 call	 ?show_debriefing_page@@YGXPAUENTITY@@HH@Z ; show_debriefing_page

; 278  : 		}
; 279  : 		else

  000a7	eb 0b		 jmp	 SHORT $LN1@notify_bri
$LN3@notify_bri:

; 280  : 		{
; 281  : 			show_briefing_page (task, FALSE);

  000a9	6a 00		 push	 0
  000ab	8b 45 fc	 mov	 eax, DWORD PTR _task$[ebp]
  000ae	50		 push	 eax
  000af	e8 00 00 00 00	 call	 ?show_briefing_page@@YGXPAUENTITY@@H@Z ; show_briefing_page
$LN1@notify_bri:

; 282  : 		}
; 283  : 	}
; 284  : }

  000b4	5f		 pop	 edi
  000b5	5e		 pop	 esi
  000b6	5b		 pop	 ebx
  000b7	8b e5		 mov	 esp, ebp
  000b9	5d		 pop	 ebp
  000ba	c2 08 00	 ret	 8
?notify_briefing_button@@YGXPAUUI_OBJECT@@PAX@Z ENDP	; notify_briefing_button
_TEXT	ENDS
; Function compile flags: /Odtp /ZI
; File c:\users\nhv90\projects\eech\aphavoc\source\ui_menu\ingame\campaign\ca_menu.c
;	COMDAT ?notify_log_button@@YGXPAUUI_OBJECT@@PAX@Z
_TEXT	SEGMENT
_obj$ = 8						; size = 4
_arg$ = 12						; size = 4
?notify_log_button@@YGXPAUUI_OBJECT@@PAX@Z PROC		; notify_log_button, COMDAT

; 258  : {

  00000	55		 push	 ebp
  00001	8b ec		 mov	 ebp, esp
  00003	83 ec 40	 sub	 esp, 64			; 00000040H
  00006	53		 push	 ebx
  00007	56		 push	 esi
  00008	57		 push	 edi

; 259  : 	show_log_page ();

  00009	e8 00 00 00 00	 call	 ?show_log_page@@YGXXZ	; show_log_page

; 260  : }

  0000e	5f		 pop	 edi
  0000f	5e		 pop	 esi
  00010	5b		 pop	 ebx
  00011	8b e5		 mov	 esp, ebp
  00013	5d		 pop	 ebp
  00014	c2 08 00	 ret	 8
?notify_log_button@@YGXPAUUI_OBJECT@@PAX@Z ENDP		; notify_log_button
_TEXT	ENDS
; Function compile flags: /Odtp /ZI
; File c:\users\nhv90\projects\eech\aphavoc\source\ui_menu\ingame\campaign\ca_menu.c
;	COMDAT ?notify_chat_button@@YGXPAUUI_OBJECT@@PAX@Z
_TEXT	SEGMENT
_obj$ = 8						; size = 4
_arg$ = 12						; size = 4
?notify_chat_button@@YGXPAUUI_OBJECT@@PAX@Z PROC	; notify_chat_button, COMDAT

; 249  : {

  00000	55		 push	 ebp
  00001	8b ec		 mov	 ebp, esp
  00003	83 ec 40	 sub	 esp, 64			; 00000040H
  00006	53		 push	 ebx
  00007	56		 push	 esi
  00008	57		 push	 edi

; 250  : 	show_chat_page (NULL);

  00009	6a 00		 push	 0
  0000b	e8 00 00 00 00	 call	 ?show_chat_page@@YGXPAUUI_OBJECT@@@Z ; show_chat_page

; 251  : }

  00010	5f		 pop	 edi
  00011	5e		 pop	 esi
  00012	5b		 pop	 ebx
  00013	8b e5		 mov	 esp, ebp
  00015	5d		 pop	 ebp
  00016	c2 08 00	 ret	 8
?notify_chat_button@@YGXPAUUI_OBJECT@@PAX@Z ENDP	; notify_chat_button
_TEXT	ENDS
; Function compile flags: /Odtp /ZI
; File c:\users\nhv90\projects\eech\aphavoc\source\ui_menu\ingame\campaign\ca_menu.c
;	COMDAT ?notify_save_button@@YGXPAUUI_OBJECT@@PAX@Z
_TEXT	SEGMENT
_obj$ = 8						; size = 4
_arg$ = 12						; size = 4
?notify_save_button@@YGXPAUUI_OBJECT@@PAX@Z PROC	; notify_save_button, COMDAT

; 240  : {

  00000	55		 push	 ebp
  00001	8b ec		 mov	 ebp, esp
  00003	83 ec 40	 sub	 esp, 64			; 00000040H
  00006	53		 push	 ebx
  00007	56		 push	 esi
  00008	57		 push	 edi

; 241  : 	show_save_page (NULL);

  00009	6a 00		 push	 0
  0000b	e8 00 00 00 00	 call	 ?show_save_page@@YGXPAUUI_OBJECT@@@Z ; show_save_page

; 242  : }

  00010	5f		 pop	 edi
  00011	5e		 pop	 esi
  00012	5b		 pop	 ebx
  00013	8b e5		 mov	 esp, ebp
  00015	5d		 pop	 ebp
  00016	c2 08 00	 ret	 8
?notify_save_button@@YGXPAUUI_OBJECT@@PAX@Z ENDP	; notify_save_button
_TEXT	ENDS
; Function compile flags: /Odtp /ZI
; File c:\users\nhv90\projects\eech\aphavoc\source\ui_menu\ingame\campaign\ca_menu.c
;	COMDAT ?notify_main_options_button@@YGXPAUUI_OBJECT@@PAX@Z
_TEXT	SEGMENT
_obj$ = 8						; size = 4
_arg$ = 12						; size = 4
?notify_main_options_button@@YGXPAUUI_OBJECT@@PAX@Z PROC ; notify_main_options_button, COMDAT

; 229  : {

  00000	55		 push	 ebp
  00001	8b ec		 mov	 ebp, esp
  00003	83 ec 40	 sub	 esp, 64			; 00000040H
  00006	53		 push	 ebx
  00007	56		 push	 esi
  00008	57		 push	 edi

; 230  : 	set_pause_time_acceleration (NULL);

  00009	6a 00		 push	 0
  0000b	e8 00 00 00 00	 call	 ?set_pause_time_acceleration@@YGXPAUEVENT@@@Z ; set_pause_time_acceleration

; 231  : 
; 232  : 	show_options_page ();

  00010	e8 00 00 00 00	 call	 ?show_options_page@@YGXXZ ; show_options_page

; 233  : }

  00015	5f		 pop	 edi
  00016	5e		 pop	 esi
  00017	5b		 pop	 ebx
  00018	8b e5		 mov	 esp, ebp
  0001a	5d		 pop	 ebp
  0001b	c2 08 00	 ret	 8
?notify_main_options_button@@YGXPAUUI_OBJECT@@PAX@Z ENDP ; notify_main_options_button
_TEXT	ENDS
; Function compile flags: /Odtp /ZI
; File c:\users\nhv90\projects\eech\aphavoc\source\ui_menu\ingame\campaign\ca_menu.c
;	COMDAT ?notify_stats_button@@YGXPAUUI_OBJECT@@PAX@Z
_TEXT	SEGMENT
_obj$ = 8						; size = 4
_arg$ = 12						; size = 4
?notify_stats_button@@YGXPAUUI_OBJECT@@PAX@Z PROC	; notify_stats_button, COMDAT

; 220  : {

  00000	55		 push	 ebp
  00001	8b ec		 mov	 ebp, esp
  00003	83 ec 40	 sub	 esp, 64			; 00000040H
  00006	53		 push	 ebx
  00007	56		 push	 esi
  00008	57		 push	 edi

; 221  : 	show_stats_page ();

  00009	e8 00 00 00 00	 call	 ?show_stats_page@@YGXXZ	; show_stats_page

; 222  : }

  0000e	5f		 pop	 edi
  0000f	5e		 pop	 esi
  00010	5b		 pop	 ebx
  00011	8b e5		 mov	 esp, ebp
  00013	5d		 pop	 ebp
  00014	c2 08 00	 ret	 8
?notify_stats_button@@YGXPAUUI_OBJECT@@PAX@Z ENDP	; notify_stats_button
_TEXT	ENDS
; Function compile flags: /Odtp /ZI
; File c:\users\nhv90\projects\eech\aphavoc\source\ui_menu\ingame\campaign\ca_menu.c
;	COMDAT ?notify_main_map_button@@YGXPAUUI_OBJECT@@PAX@Z
_TEXT	SEGMENT
_obj$ = 8						; size = 4
_arg$ = 12						; size = 4
?notify_main_map_button@@YGXPAUUI_OBJECT@@PAX@Z PROC	; notify_main_map_button, COMDAT

; 211  : {

  00000	55		 push	 ebp
  00001	8b ec		 mov	 ebp, esp
  00003	83 ec 40	 sub	 esp, 64			; 00000040H
  00006	53		 push	 ebx
  00007	56		 push	 esi
  00008	57		 push	 edi

; 212  : 	show_map_page ();

  00009	e8 00 00 00 00	 call	 ?show_map_page@@YGXXZ	; show_map_page

; 213  : }

  0000e	5f		 pop	 edi
  0000f	5e		 pop	 esi
  00010	5b		 pop	 ebx
  00011	8b e5		 mov	 esp, ebp
  00013	5d		 pop	 ebp
  00014	c2 08 00	 ret	 8
?notify_main_map_button@@YGXPAUUI_OBJECT@@PAX@Z ENDP	; notify_main_map_button
_TEXT	ENDS
; Function compile flags: /Odtp /ZI
; File c:\users\nhv90\projects\eech\aphavoc\source\ui_menu\ingame\campaign\ca_menu.c
;	COMDAT ?update_top_menu_area@@YGXPAUUI_OBJECT@@PAX@Z
_TEXT	SEGMENT
tv94 = -92						; size = 4
tv154 = -88						; size = 4
tv87 = -88						; size = 4
tv147 = -84						; size = 4
tv79 = -84						; size = 4
_task$ = -16						; size = 4
_this_object$ = -12					; size = 4
_page$ = -8						; size = 4
_loop$ = -4						; size = 4
_obj$ = 8						; size = 4
_arg$ = 12						; size = 4
?update_top_menu_area@@YGXPAUUI_OBJECT@@PAX@Z PROC	; update_top_menu_area, COMDAT

; 105  : {

  00000	55		 push	 ebp
  00001	8b ec		 mov	 ebp, esp
  00003	83 ec 5c	 sub	 esp, 92			; 0000005cH
  00006	53		 push	 ebx
  00007	56		 push	 esi
  00008	57		 push	 edi

; 106  : 	int
; 107  : 		loop,
; 108  : 		page;
; 109  : 
; 110  : 	ui_object
; 111  : 		*this_object;
; 112  : 
; 113  : 	entity
; 114  : 		*task;
; 115  : 
; 116  : 	ASSERT (get_session_entity ());

  00009	83 3d 00 00 00
	00 00		 cmp	 DWORD PTR ?session_entity@@3PAUENTITY@@A, 0 ; session_entity
  00010	75 18		 jne	 SHORT $LN5@update_top
  00012	a1 00 00 00 00	 mov	 eax, DWORD PTR ?__LINE__Var@?0??update_top_menu_area@@YGXPAUUI_OBJECT@@PAX@Z@4JA
  00017	83 c0 0b	 add	 eax, 11			; 0000000bH
  0001a	50		 push	 eax
  0001b	68 00 00 00 00	 push	 OFFSET ??_C@_0EO@CONPFOBN@c?3?2users?2nhv90?2projects?2eech?2ap@
  00020	68 00 00 00 00	 push	 OFFSET ??_C@_0BG@EFCJJKAA@get_session_entity?5?$CI?$CJ@
  00025	e8 00 00 00 00	 call	 ?process_assert@@YGXPBD0H@Z ; process_assert
$LN5@update_top:

; 117  : 
; 118  : 	//
; 119  : 	// Set save button drawable state
; 120  : 	//
; 121  : 	
; 122  : 	set_ui_object_drawable

  0002a	83 3d 00 00 00
	00 00		 cmp	 DWORD PTR ?system_comms_model@@3W4COMMS_MODEL_TYPES@@A, 0 ; system_comms_model
  00031	0f 85 95 00 00
	00		 jne	 $LN22@update_top
  00037	83 3d 00 00 00
	00 00		 cmp	 DWORD PTR ?session_entity@@3PAUENTITY@@A, 0 ; session_entity
  0003e	74 0c		 je	 SHORT $LN18@update_top
  00040	a1 00 00 00 00	 mov	 eax, DWORD PTR ?session_entity@@3PAUENTITY@@A ; session_entity
  00045	8b 08		 mov	 ecx, DWORD PTR [eax]
  00047	89 4d ac	 mov	 DWORD PTR tv79[ebp], ecx
  0004a	eb 21		 jmp	 SHORT $LN19@update_top
$LN18@update_top:
  0004c	8b 15 00 00 00
	00		 mov	 edx, DWORD PTR ?__LINE__Var@?0??update_top_menu_area@@YGXPAUUI_OBJECT@@PAX@Z@4JA
  00052	83 c2 15	 add	 edx, 21			; 00000015H
  00055	52		 push	 edx
  00056	68 00 00 00 00	 push	 OFFSET ??_C@_0EO@CONPFOBN@c?3?2users?2nhv90?2projects?2eech?2ap@
  0005b	a1 00 00 00 00	 mov	 eax, DWORD PTR ?null_entity_pointer_message@@3PBDB ; null_entity_pointer_message
  00060	50		 push	 eax
  00061	e8 00 00 00 00	 call	 ?process_assert@@YGXPBD0H@Z ; process_assert
  00066	c7 45 ac 00 00
	00 00		 mov	 DWORD PTR tv79[ebp], 0
$LN19@update_top:
  0006d	b9 01 00 00 00	 mov	 ecx, 1
  00072	85 c9		 test	 ecx, ecx
  00074	74 09		 je	 SHORT $LN20@update_top
  00076	c7 45 a8 ba 00
	00 00		 mov	 DWORD PTR tv87[ebp], 186 ; 000000baH
  0007d	eb 21		 jmp	 SHORT $LN21@update_top
$LN20@update_top:
  0007f	8b 15 00 00 00
	00		 mov	 edx, DWORD PTR ?__LINE__Var@?0??update_top_menu_area@@YGXPAUUI_OBJECT@@PAX@Z@4JA
  00085	83 c2 15	 add	 edx, 21			; 00000015H
  00088	52		 push	 edx
  00089	68 00 00 00 00	 push	 OFFSET ??_C@_0EO@CONPFOBN@c?3?2users?2nhv90?2projects?2eech?2ap@
  0008e	a1 00 00 00 00	 mov	 eax, DWORD PTR ?overload_invalid_int_type_message@@3PBDB ; overload_invalid_int_type_message
  00093	50		 push	 eax
  00094	e8 00 00 00 00	 call	 ?process_assert@@YGXPBD0H@Z ; process_assert
  00099	c7 45 a8 00 00
	00 00		 mov	 DWORD PTR tv87[ebp], 0
$LN21@update_top:
  000a0	68 ba 00 00 00	 push	 186			; 000000baH
  000a5	8b 0d 00 00 00
	00		 mov	 ecx, DWORD PTR ?session_entity@@3PAUENTITY@@A ; session_entity
  000ab	51		 push	 ecx
  000ac	69 55 ac 5c 04
	00 00		 imul	 edx, DWORD PTR tv79[ebp], 1116
  000b3	8b 45 a8	 mov	 eax, DWORD PTR tv87[ebp]
  000b6	8b 8c 82 00 00
	00 00		 mov	 ecx, DWORD PTR ?fn_get_local_entity_int_value@@3PAY0BBH@P6GHPAUENTITY@@W4INT_TYPES@@@ZA[edx+eax*4]
  000bd	ff d1		 call	 ecx
  000bf	85 c0		 test	 eax, eax
  000c1	75 09		 jne	 SHORT $LN22@update_top
  000c3	c7 45 a4 01 00
	00 00		 mov	 DWORD PTR tv94[ebp], 1
  000ca	eb 07		 jmp	 SHORT $LN23@update_top
$LN22@update_top:
  000cc	c7 45 a4 00 00
	00 00		 mov	 DWORD PTR tv94[ebp], 0
$LN23@update_top:
  000d3	8b 55 a4	 mov	 edx, DWORD PTR tv94[ebp]
  000d6	52		 push	 edx
  000d7	a1 00 00 00 00	 mov	 eax, DWORD PTR ?campaign_save_button@@3PAUUI_OBJECT@@A
  000dc	50		 push	 eax
  000dd	8b 0d 00 00 00
	00		 mov	 ecx, DWORD PTR ?campaign_save_button@@3PAUUI_OBJECT@@A
  000e3	8b 11		 mov	 edx, DWORD PTR [ecx]
  000e5	8b 04 95 00 00
	00 00		 mov	 eax, DWORD PTR ?fn_set_ui_object_drawable@@3PAP6GXPAUUI_OBJECT@@H@ZA[edx*4]
  000ec	ff d0		 call	 eax

; 123  : 	(
; 124  : 		campaign_save_button,
; 125  : 		((get_comms_model () == COMMS_MODEL_SERVER) && (get_local_entity_int_value (get_session_entity (), INT_TYPE_SESSION_COMPLETE) == CAMPAIGN_COMPLETED_FALSE))
; 126  : 	);
; 127  : 
; 128  : 	//
; 129  : 	// Set chat button drawable state
; 130  : 	//
; 131  : 	
; 132  : 	#ifdef DEBUG
; 133  : 
; 134  : 	set_ui_object_drawable (campaign_chat_button, TRUE);

  000ee	6a 01		 push	 1
  000f0	a1 00 00 00 00	 mov	 eax, DWORD PTR ?campaign_chat_button@@3PAUUI_OBJECT@@A
  000f5	50		 push	 eax
  000f6	8b 0d 00 00 00
	00		 mov	 ecx, DWORD PTR ?campaign_chat_button@@3PAUUI_OBJECT@@A
  000fc	8b 11		 mov	 edx, DWORD PTR [ecx]
  000fe	8b 04 95 00 00
	00 00		 mov	 eax, DWORD PTR ?fn_set_ui_object_drawable@@3PAP6GXPAUUI_OBJECT@@H@ZA[edx*4]
  00105	ff d0		 call	 eax

; 135  : 
; 136  : 	#else
; 137  : 
; 138  : 	set_ui_object_drawable (campaign_chat_button, (get_connection_list_head () != NULL));
; 139  : 
; 140  : 	#endif
; 141  : 
; 142  : 	//
; 143  : 	// Set briefing button drawable state
; 144  : 	//
; 145  : 
; 146  : 	task = get_player_task (NULL);

  00107	6a 00		 push	 0
  00109	e8 00 00 00 00	 call	 ?get_player_task@@YGPAUENTITY@@PAU1@@Z ; get_player_task
  0010e	89 45 f0	 mov	 DWORD PTR _task$[ebp], eax

; 147  : 
; 148  : 	if (task)

  00111	83 7d f0 00	 cmp	 DWORD PTR _task$[ebp], 0
  00115	0f 84 de 00 00
	00		 je	 $LN6@update_top

; 149  : 	{
; 150  : 		set_ui_object_drawable (campaign_briefing_button, TRUE);

  0011b	6a 01		 push	 1
  0011d	a1 00 00 00 00	 mov	 eax, DWORD PTR ?campaign_briefing_button@@3PAUUI_OBJECT@@A
  00122	50		 push	 eax
  00123	8b 0d 00 00 00
	00		 mov	 ecx, DWORD PTR ?campaign_briefing_button@@3PAUUI_OBJECT@@A
  00129	8b 11		 mov	 edx, DWORD PTR [ecx]
  0012b	8b 04 95 00 00
	00 00		 mov	 eax, DWORD PTR ?fn_set_ui_object_drawable@@3PAP6GXPAUUI_OBJECT@@H@ZA[edx*4]
  00132	ff d0		 call	 eax

; 151  : 
; 152  : 		if (get_local_entity_int_value (task, INT_TYPE_TASK_STATE) == TASK_STATE_COMPLETED)

  00134	83 7d f0 00	 cmp	 DWORD PTR _task$[ebp], 0
  00138	74 0a		 je	 SHORT $LN24@update_top
  0013a	8b 45 f0	 mov	 eax, DWORD PTR _task$[ebp]
  0013d	8b 08		 mov	 ecx, DWORD PTR [eax]
  0013f	89 4d ac	 mov	 DWORD PTR tv147[ebp], ecx
  00142	eb 1d		 jmp	 SHORT $LN25@update_top
$LN24@update_top:
  00144	68 98 00 00 00	 push	 152			; 00000098H
  00149	68 00 00 00 00	 push	 OFFSET ??_C@_0EO@CONPFOBN@c?3?2users?2nhv90?2projects?2eech?2ap@
  0014e	8b 15 00 00 00
	00		 mov	 edx, DWORD PTR ?null_entity_pointer_message@@3PBDB ; null_entity_pointer_message
  00154	52		 push	 edx
  00155	e8 00 00 00 00	 call	 ?process_assert@@YGXPBD0H@Z ; process_assert
  0015a	c7 45 ac 00 00
	00 00		 mov	 DWORD PTR tv147[ebp], 0
$LN25@update_top:
  00161	b8 01 00 00 00	 mov	 eax, 1
  00166	85 c0		 test	 eax, eax
  00168	74 09		 je	 SHORT $LN26@update_top
  0016a	c7 45 a8 e3 00
	00 00		 mov	 DWORD PTR tv154[ebp], 227 ; 000000e3H
  00171	eb 1d		 jmp	 SHORT $LN27@update_top
$LN26@update_top:
  00173	68 98 00 00 00	 push	 152			; 00000098H
  00178	68 00 00 00 00	 push	 OFFSET ??_C@_0EO@CONPFOBN@c?3?2users?2nhv90?2projects?2eech?2ap@
  0017d	8b 0d 00 00 00
	00		 mov	 ecx, DWORD PTR ?overload_invalid_int_type_message@@3PBDB ; overload_invalid_int_type_message
  00183	51		 push	 ecx
  00184	e8 00 00 00 00	 call	 ?process_assert@@YGXPBD0H@Z ; process_assert
  00189	c7 45 a8 00 00
	00 00		 mov	 DWORD PTR tv154[ebp], 0
$LN27@update_top:
  00190	68 e3 00 00 00	 push	 227			; 000000e3H
  00195	8b 55 f0	 mov	 edx, DWORD PTR _task$[ebp]
  00198	52		 push	 edx
  00199	69 45 ac 5c 04
	00 00		 imul	 eax, DWORD PTR tv147[ebp], 1116
  001a0	8b 4d a8	 mov	 ecx, DWORD PTR tv154[ebp]
  001a3	8b 94 88 00 00
	00 00		 mov	 edx, DWORD PTR ?fn_get_local_entity_int_value@@3PAY0BBH@P6GHPAUENTITY@@W4INT_TYPES@@@ZA[eax+ecx*4]
  001aa	ff d2		 call	 edx
  001ac	83 f8 02	 cmp	 eax, 2
  001af	75 24		 jne	 SHORT $LN8@update_top

; 153  : 		{
; 154  : 			set_ui_object_text (campaign_briefing_button, get_trans ("Debriefing"));

  001b1	68 00 00 00 00	 push	 OFFSET ??_C@_0L@CHHJGCHE@Debriefing@
  001b6	e8 00 00 00 00	 call	 ?get_trans@@YGPBDPBD@Z	; get_trans
  001bb	50		 push	 eax
  001bc	a1 00 00 00 00	 mov	 eax, DWORD PTR ?campaign_briefing_button@@3PAUUI_OBJECT@@A
  001c1	50		 push	 eax
  001c2	8b 0d 00 00 00
	00		 mov	 ecx, DWORD PTR ?campaign_briefing_button@@3PAUUI_OBJECT@@A
  001c8	8b 11		 mov	 edx, DWORD PTR [ecx]
  001ca	8b 04 95 00 00
	00 00		 mov	 eax, DWORD PTR ?fn_set_ui_object_text@@3PAP6GXPAUUI_OBJECT@@PBD@ZA[edx*4]
  001d1	ff d0		 call	 eax

; 155  : 		}
; 156  : 		else

  001d3	eb 22		 jmp	 SHORT $LN9@update_top
$LN8@update_top:

; 157  : 		{
; 158  : 			set_ui_object_text (campaign_briefing_button, get_trans ("Briefing"));

  001d5	68 00 00 00 00	 push	 OFFSET ??_C@_08HJFJOAMM@Briefing@
  001da	e8 00 00 00 00	 call	 ?get_trans@@YGPBDPBD@Z	; get_trans
  001df	50		 push	 eax
  001e0	a1 00 00 00 00	 mov	 eax, DWORD PTR ?campaign_briefing_button@@3PAUUI_OBJECT@@A
  001e5	50		 push	 eax
  001e6	8b 0d 00 00 00
	00		 mov	 ecx, DWORD PTR ?campaign_briefing_button@@3PAUUI_OBJECT@@A
  001ec	8b 11		 mov	 edx, DWORD PTR [ecx]
  001ee	8b 04 95 00 00
	00 00		 mov	 eax, DWORD PTR ?fn_set_ui_object_text@@3PAP6GXPAUUI_OBJECT@@PBD@ZA[edx*4]
  001f5	ff d0		 call	 eax
$LN9@update_top:

; 159  : 		}
; 160  : 	}
; 161  : 	else

  001f7	eb 35		 jmp	 SHORT $LN7@update_top
$LN6@update_top:

; 162  : 	{
; 163  : 		set_ui_object_text (campaign_briefing_button, "");

  001f9	68 00 00 00 00	 push	 OFFSET ??_C@_00CNPNBAHC@@
  001fe	a1 00 00 00 00	 mov	 eax, DWORD PTR ?campaign_briefing_button@@3PAUUI_OBJECT@@A
  00203	50		 push	 eax
  00204	8b 0d 00 00 00
	00		 mov	 ecx, DWORD PTR ?campaign_briefing_button@@3PAUUI_OBJECT@@A
  0020a	8b 11		 mov	 edx, DWORD PTR [ecx]
  0020c	8b 04 95 00 00
	00 00		 mov	 eax, DWORD PTR ?fn_set_ui_object_text@@3PAP6GXPAUUI_OBJECT@@PBD@ZA[edx*4]
  00213	ff d0		 call	 eax

; 164  : 
; 165  : 		set_ui_object_drawable (campaign_briefing_button, FALSE);

  00215	6a 00		 push	 0
  00217	a1 00 00 00 00	 mov	 eax, DWORD PTR ?campaign_briefing_button@@3PAUUI_OBJECT@@A
  0021c	50		 push	 eax
  0021d	8b 0d 00 00 00
	00		 mov	 ecx, DWORD PTR ?campaign_briefing_button@@3PAUUI_OBJECT@@A
  00223	8b 11		 mov	 edx, DWORD PTR [ecx]
  00225	8b 04 95 00 00
	00 00		 mov	 eax, DWORD PTR ?fn_set_ui_object_drawable@@3PAP6GXPAUUI_OBJECT@@H@ZA[edx*4]
  0022c	ff d0		 call	 eax
$LN7@update_top:

; 166  : 	}
; 167  : 
; 168  : 	//
; 169  : 	// Set weapon loading button drawable state
; 170  : 	//
; 171  : 
; 172  : 	if (get_gunship_entity ())

  0022e	83 3d 00 00 00
	00 00		 cmp	 DWORD PTR ?gunship_entity@@3PAUENTITY@@A, 0 ; gunship_entity
  00235	74 1b		 je	 SHORT $LN10@update_top

; 173  : 	{	
; 174  : 		set_ui_object_drawable (campaign_weapon_loading_button, TRUE);

  00237	6a 01		 push	 1
  00239	a1 00 00 00 00	 mov	 eax, DWORD PTR ?campaign_weapon_loading_button@@3PAUUI_OBJECT@@A
  0023e	50		 push	 eax
  0023f	8b 0d 00 00 00
	00		 mov	 ecx, DWORD PTR ?campaign_weapon_loading_button@@3PAUUI_OBJECT@@A
  00245	8b 11		 mov	 edx, DWORD PTR [ecx]
  00247	8b 04 95 00 00
	00 00		 mov	 eax, DWORD PTR ?fn_set_ui_object_drawable@@3PAP6GXPAUUI_OBJECT@@H@ZA[edx*4]
  0024e	ff d0		 call	 eax

; 175  : 	}
; 176  : 	else

  00250	eb 19		 jmp	 SHORT $LN11@update_top
$LN10@update_top:

; 177  : 	{
; 178  : 		set_ui_object_drawable (campaign_weapon_loading_button, FALSE);

  00252	6a 00		 push	 0
  00254	a1 00 00 00 00	 mov	 eax, DWORD PTR ?campaign_weapon_loading_button@@3PAUUI_OBJECT@@A
  00259	50		 push	 eax
  0025a	8b 0d 00 00 00
	00		 mov	 ecx, DWORD PTR ?campaign_weapon_loading_button@@3PAUUI_OBJECT@@A
  00260	8b 11		 mov	 edx, DWORD PTR [ecx]
  00262	8b 04 95 00 00
	00 00		 mov	 eax, DWORD PTR ?fn_set_ui_object_drawable@@3PAP6GXPAUUI_OBJECT@@H@ZA[edx*4]
  00269	ff d0		 call	 eax
$LN11@update_top:

; 179  : 	}
; 180  : 
; 181  : 	//
; 182  : 	// Set on/off states for all buttons
; 183  : 	//
; 184  : 	
; 185  : 	for (loop = 0; loop < menu_button_count; loop ++)

  0026b	c7 45 fc 00 00
	00 00		 mov	 DWORD PTR _loop$[ebp], 0
  00272	eb 09		 jmp	 SHORT $LN4@update_top
$LN2@update_top:
  00274	8b 45 fc	 mov	 eax, DWORD PTR _loop$[ebp]
  00277	83 c0 01	 add	 eax, 1
  0027a	89 45 fc	 mov	 DWORD PTR _loop$[ebp], eax
$LN4@update_top:
  0027d	8b 45 fc	 mov	 eax, DWORD PTR _loop$[ebp]
  00280	3b 05 00 00 00
	00		 cmp	 eax, DWORD PTR ?menu_button_count@@3HA
  00286	0f 8d b7 00 00
	00		 jge	 $LN1@update_top

; 186  : 	{
; 187  : 		this_object = button_list [loop];

  0028c	8b 45 fc	 mov	 eax, DWORD PTR _loop$[ebp]
  0028f	8b 0c 85 00 00
	00 00		 mov	 ecx, DWORD PTR ?button_list@@3PAPAUUI_OBJECT@@A[eax*4]
  00296	89 4d f4	 mov	 DWORD PTR _this_object$[ebp], ecx

; 188  : 
; 189  : 		ASSERT (this_object);

  00299	83 7d f4 00	 cmp	 DWORD PTR _this_object$[ebp], 0
  0029d	75 18		 jne	 SHORT $LN12@update_top
  0029f	a1 00 00 00 00	 mov	 eax, DWORD PTR ?__LINE__Var@?0??update_top_menu_area@@YGXPAUUI_OBJECT@@PAX@Z@4JA
  002a4	83 c0 54	 add	 eax, 84			; 00000054H
  002a7	50		 push	 eax
  002a8	68 00 00 00 00	 push	 OFFSET ??_C@_0EO@CONPFOBN@c?3?2users?2nhv90?2projects?2eech?2ap@
  002ad	68 00 00 00 00	 push	 OFFSET ??_C@_0M@MHNBPGKN@this_object@
  002b2	e8 00 00 00 00	 call	 ?process_assert@@YGXPBD0H@Z ; process_assert
$LN12@update_top:

; 190  : 		
; 191  : 		page = get_ui_object_item_number (this_object);

  002b7	8b 45 f4	 mov	 eax, DWORD PTR _this_object$[ebp]
  002ba	50		 push	 eax
  002bb	8b 4d f4	 mov	 ecx, DWORD PTR _this_object$[ebp]
  002be	8b 11		 mov	 edx, DWORD PTR [ecx]
  002c0	8b 04 95 00 00
	00 00		 mov	 eax, DWORD PTR ?fn_get_ui_object_item_number@@3PAP6GHPAUUI_OBJECT@@@ZA[edx*4]
  002c7	ff d0		 call	 eax
  002c9	89 45 f8	 mov	 DWORD PTR _page$[ebp], eax

; 192  : 
; 193  : 		ASSERT ((page >= 0) && (page < NUM_CAMPAIGN_PAGES));

  002cc	83 7d f8 00	 cmp	 DWORD PTR _page$[ebp], 0
  002d0	7c 06		 jl	 SHORT $LN14@update_top
  002d2	83 7d f8 0a	 cmp	 DWORD PTR _page$[ebp], 10 ; 0000000aH
  002d6	7c 18		 jl	 SHORT $LN13@update_top
$LN14@update_top:
  002d8	a1 00 00 00 00	 mov	 eax, DWORD PTR ?__LINE__Var@?0??update_top_menu_area@@YGXPAUUI_OBJECT@@PAX@Z@4JA
  002dd	83 c0 58	 add	 eax, 88			; 00000058H
  002e0	50		 push	 eax
  002e1	68 00 00 00 00	 push	 OFFSET ??_C@_0EO@CONPFOBN@c?3?2users?2nhv90?2projects?2eech?2ap@
  002e6	68 00 00 00 00	 push	 OFFSET ??_C@_0CL@MFMLNAAJ@?$CIpage?5?$DO?$DN?50?$CJ?5?$CG?$CG?5?$CIpage?5?$DM?5NUM_CAMP@
  002eb	e8 00 00 00 00	 call	 ?process_assert@@YGXPBD0H@Z ; process_assert
$LN13@update_top:

; 194  : 
; 195  : 		if (get_ui_object_drawable (campaign_page [page]))

  002f0	8b 45 f8	 mov	 eax, DWORD PTR _page$[ebp]
  002f3	8b 0c 85 00 00
	00 00		 mov	 ecx, DWORD PTR ?campaign_page@@3PAPAUUI_OBJECT@@A[eax*4]
  002fa	51		 push	 ecx
  002fb	8b 55 f8	 mov	 edx, DWORD PTR _page$[ebp]
  002fe	8b 04 95 00 00
	00 00		 mov	 eax, DWORD PTR ?campaign_page@@3PAPAUUI_OBJECT@@A[edx*4]
  00305	8b 08		 mov	 ecx, DWORD PTR [eax]
  00307	8b 14 8d 00 00
	00 00		 mov	 edx, DWORD PTR ?fn_get_ui_object_drawable@@3PAP6GHPAUUI_OBJECT@@@ZA[ecx*4]
  0030e	ff d2		 call	 edx
  00310	85 c0		 test	 eax, eax
  00312	74 16		 je	 SHORT $LN15@update_top

; 196  : 		{
; 197  : 			set_ui_object_state (this_object, UI_OBJECT_STATE_ON);

  00314	6a 01		 push	 1
  00316	8b 45 f4	 mov	 eax, DWORD PTR _this_object$[ebp]
  00319	50		 push	 eax
  0031a	8b 4d f4	 mov	 ecx, DWORD PTR _this_object$[ebp]
  0031d	8b 11		 mov	 edx, DWORD PTR [ecx]
  0031f	8b 04 95 00 00
	00 00		 mov	 eax, DWORD PTR ?fn_set_ui_object_state@@3PAP6GXPAUUI_OBJECT@@H@ZA[edx*4]
  00326	ff d0		 call	 eax

; 198  : 		}
; 199  : 		else

  00328	eb 14		 jmp	 SHORT $LN16@update_top
$LN15@update_top:

; 200  : 		{
; 201  : 			set_ui_object_state (this_object, UI_OBJECT_STATE_OFF);

  0032a	6a 00		 push	 0
  0032c	8b 45 f4	 mov	 eax, DWORD PTR _this_object$[ebp]
  0032f	50		 push	 eax
  00330	8b 4d f4	 mov	 ecx, DWORD PTR _this_object$[ebp]
  00333	8b 11		 mov	 edx, DWORD PTR [ecx]
  00335	8b 04 95 00 00
	00 00		 mov	 eax, DWORD PTR ?fn_set_ui_object_state@@3PAP6GXPAUUI_OBJECT@@H@ZA[edx*4]
  0033c	ff d0		 call	 eax
$LN16@update_top:

; 202  : 		}
; 203  : 	}

  0033e	e9 31 ff ff ff	 jmp	 $LN2@update_top
$LN1@update_top:

; 204  : }

  00343	5f		 pop	 edi
  00344	5e		 pop	 esi
  00345	5b		 pop	 ebx
  00346	8b e5		 mov	 esp, ebp
  00348	5d		 pop	 ebp
  00349	c2 08 00	 ret	 8
?update_top_menu_area@@YGXPAUUI_OBJECT@@PAX@Z ENDP	; update_top_menu_area
_TEXT	ENDS
; Function compile flags: /Odtp /ZI
; File c:\users\nhv90\projects\eech\aphavoc\source\ui_menu\ingame\campaign\ca_menu.c
;	COMDAT ?define_campaign_screen_menu_objects@@YGXXZ
_TEXT	SEGMENT
_y2$ = -16						; size = 4
_x2$ = -12						; size = 4
_y1$ = -8						; size = 4
_x1$ = -4						; size = 4
?define_campaign_screen_menu_objects@@YGXXZ PROC	; define_campaign_screen_menu_objects, COMDAT

; 309  : {

  00000	55		 push	 ebp
  00001	8b ec		 mov	 ebp, esp
  00003	83 ec 50	 sub	 esp, 80			; 00000050H
  00006	53		 push	 ebx
  00007	56		 push	 esi
  00008	57		 push	 edi

; 310  : 	float
; 311  : 		x1,
; 312  : 		y1,
; 313  : 		x2,
; 314  : 		y2;
; 315  : 
; 316  : 	menu_button_count = 0;

  00009	c7 05 00 00 00
	00 00 00 00 00	 mov	 DWORD PTR ?menu_button_count@@3HA, 0

; 317  : 
; 318  : 	/////////////////////////////////////////////////////////////////
; 319  : 	// Map / Stats / Options etc. 
; 320  : 	/////////////////////////////////////////////////////////////////
; 321  : 
; 322  : 	x1 = CAMPAIGN_INSET_PAGE_X1;

  00013	f3 0f 10 05 00
	00 00 00	 movss	 xmm0, DWORD PTR __real@3e6147ae
  0001b	f3 0f 11 45 fc	 movss	 DWORD PTR _x1$[ebp], xmm0

; 323  : 	y1 = 0.0;

  00020	0f 57 c0	 xorps	 xmm0, xmm0
  00023	f3 0f 11 45 f8	 movss	 DWORD PTR _y1$[ebp], xmm0

; 324  : 	x2 = 1.0;

  00028	f3 0f 10 05 00
	00 00 00	 movss	 xmm0, DWORD PTR __real@3f800000
  00030	f3 0f 11 45 f4	 movss	 DWORD PTR _x2$[ebp], xmm0

; 325  : 	y2 = CAMPAIGN_INSET_PAGE_Y1;

  00035	f3 0f 10 05 00
	00 00 00	 movss	 xmm0, DWORD PTR __real@3d449ba6
  0003d	f3 0f 11 45 f0	 movss	 DWORD PTR _y2$[ebp], xmm0

; 326  : 
; 327  : 	top_menu_area = create_ui_object

  00042	6a 11		 push	 17			; 00000011H
  00044	68 00 00 00 00	 push	 OFFSET ?update_top_menu_area@@YGXPAUUI_OBJECT@@PAX@Z ; update_top_menu_area
  00049	6a 0f		 push	 15			; 0000000fH
  0004b	68 00 00 00 00	 push	 OFFSET ??_C@_0CB@PCLJFLPG@graphics?2ui?2cohokum?2map?2tabs?4ps@
  00050	e8 00 00 00 00	 call	 ?create_texture_graphic@@YGPAUTEXTURE_GRAPHIC@@PBD@Z ; create_texture_graphic
  00055	50		 push	 eax
  00056	6a 4c		 push	 76			; 0000004cH
  00058	f3 0f 10 45 f0	 movss	 xmm0, DWORD PTR _y2$[ebp]
  0005d	f3 0f 5c 45 f8	 subss	 xmm0, DWORD PTR _y1$[ebp]
  00062	f3 0f 5a c0	 cvtss2sd xmm0, xmm0
  00066	83 ec 08	 sub	 esp, 8
  00069	f2 0f 11 04 24	 movsd	 QWORD PTR [esp], xmm0
  0006e	f3 0f 10 45 f4	 movss	 xmm0, DWORD PTR _x2$[ebp]
  00073	f3 0f 5c 45 fc	 subss	 xmm0, DWORD PTR _x1$[ebp]
  00078	f3 0f 5a c0	 cvtss2sd xmm0, xmm0
  0007c	83 ec 08	 sub	 esp, 8
  0007f	f2 0f 11 04 24	 movsd	 QWORD PTR [esp], xmm0
  00084	6a 59		 push	 89			; 00000059H
  00086	f3 0f 5a 45 f8	 cvtss2sd xmm0, DWORD PTR _y1$[ebp]
  0008b	83 ec 08	 sub	 esp, 8
  0008e	f2 0f 11 04 24	 movsd	 QWORD PTR [esp], xmm0
  00093	f3 0f 5a 45 fc	 cvtss2sd xmm0, DWORD PTR _x1$[ebp]
  00098	83 ec 08	 sub	 esp, 8
  0009b	f2 0f 11 04 24	 movsd	 QWORD PTR [esp], xmm0
  000a0	6a 58		 push	 88			; 00000058H
  000a2	a1 00 00 00 00	 mov	 eax, DWORD PTR ?campaign_screen@@3PAUUI_OBJECT@@A ; campaign_screen
  000a7	50		 push	 eax
  000a8	6a 32		 push	 50			; 00000032H
  000aa	6a 01		 push	 1
  000ac	e8 00 00 00 00	 call	 ?create_ui_object@@YAPAUUI_OBJECT@@HZZ ; create_ui_object
  000b1	83 c4 48	 add	 esp, 72			; 00000048H
  000b4	a3 00 00 00 00	 mov	 DWORD PTR ?top_menu_area@@3PAUUI_OBJECT@@A, eax

; 328  : 		(
; 329  : 			UI_TYPE_AREA,
; 330  : 			UI_ATTR_PARENT (campaign_screen),
; 331  : 			UI_ATTR_VIRTUAL_POSITION (x1, y1),
; 332  : 			UI_ATTR_VIRTUAL_SIZE (x2 - x1, y2 - y1),
; 333  : 			UI_ATTR_TEXTURE_GRAPHIC (create_texture_graphic ("graphics\\ui\\cohokum\\map\\tabs.psd")),
; 334  : 			UI_ATTR_DRAW_FUNCTION (update_top_menu_area),
; 335  : 			UI_ATTR_END
; 336  : 		);
; 337  : 
; 338  : 	/////////////////////////////////////////////////////////////////
; 339  : 	// Map Button
; 340  : 
; 341  : 	x1 = 0.0;

  000b9	0f 57 c0	 xorps	 xmm0, xmm0
  000bc	f3 0f 11 45 fc	 movss	 DWORD PTR _x1$[ebp], xmm0

; 342  : 	y1 = 0.0;

  000c1	0f 57 c0	 xorps	 xmm0, xmm0
  000c4	f3 0f 11 45 f8	 movss	 DWORD PTR _y1$[ebp], xmm0

; 343  : 	x2 = 0.125;

  000c9	f3 0f 10 05 00
	00 00 00	 movss	 xmm0, DWORD PTR __real@3e000000
  000d1	f3 0f 11 45 f4	 movss	 DWORD PTR _x2$[ebp], xmm0

; 344  : 	y2 = 1.0;

  000d6	f3 0f 10 05 00
	00 00 00	 movss	 xmm0, DWORD PTR __real@3f800000
  000de	f3 0f 11 45 f0	 movss	 DWORD PTR _y2$[ebp], xmm0

; 345  : 
; 346  : 	button_list [menu_button_count++] = create_ui_object

  000e3	6a 11		 push	 17			; 00000011H
  000e5	6a 05		 push	 5
  000e7	6a 29		 push	 41			; 00000029H
  000e9	6a 01		 push	 1
  000eb	6a 1b		 push	 27			; 0000001bH
  000ed	6a 01		 push	 1
  000ef	6a 07		 push	 7
  000f1	68 00 00 00 00	 push	 OFFSET ?notify_main_map_button@@YGXPAUUI_OBJECT@@PAX@Z ; notify_main_map_button
  000f6	6a 16		 push	 22			; 00000016H
  000f8	6a 02		 push	 2
  000fa	6a 2f		 push	 47			; 0000002fH
  000fc	0f b6 05 03 00
	00 00		 movzx	 eax, BYTE PTR ?ui_ingame_selected_text_colour@@3UREAL_COLOUR@@A+3
  00103	50		 push	 eax
  00104	0f b6 0d 00 00
	00 00		 movzx	 ecx, BYTE PTR ?ui_ingame_selected_text_colour@@3UREAL_COLOUR@@A
  0010b	51		 push	 ecx
  0010c	0f b6 15 01 00
	00 00		 movzx	 edx, BYTE PTR ?ui_ingame_selected_text_colour@@3UREAL_COLOUR@@A+1
  00113	52		 push	 edx
  00114	0f b6 05 02 00
	00 00		 movzx	 eax, BYTE PTR ?ui_ingame_selected_text_colour@@3UREAL_COLOUR@@A+2
  0011b	50		 push	 eax
  0011c	6a 3d		 push	 61			; 0000003dH
  0011e	0f b6 0d 03 00
	00 00		 movzx	 ecx, BYTE PTR ?ui_ingame_highlight_text_colour@@3UREAL_COLOUR@@A+3
  00125	51		 push	 ecx
  00126	0f b6 15 00 00
	00 00		 movzx	 edx, BYTE PTR ?ui_ingame_highlight_text_colour@@3UREAL_COLOUR@@A
  0012d	52		 push	 edx
  0012e	0f b6 05 01 00
	00 00		 movzx	 eax, BYTE PTR ?ui_ingame_highlight_text_colour@@3UREAL_COLOUR@@A+1
  00135	50		 push	 eax
  00136	0f b6 0d 02 00
	00 00		 movzx	 ecx, BYTE PTR ?ui_ingame_highlight_text_colour@@3UREAL_COLOUR@@A+2
  0013d	51		 push	 ecx
  0013e	6a 21		 push	 33			; 00000021H
  00140	0f b6 15 03 00
	00 00		 movzx	 edx, BYTE PTR ?ui_ingame_live_text_colour@@3UREAL_COLOUR@@A+3
  00147	52		 push	 edx
  00148	0f b6 05 00 00
	00 00		 movzx	 eax, BYTE PTR ?ui_ingame_live_text_colour@@3UREAL_COLOUR@@A
  0014f	50		 push	 eax
  00150	0f b6 0d 01 00
	00 00		 movzx	 ecx, BYTE PTR ?ui_ingame_live_text_colour@@3UREAL_COLOUR@@A+1
  00157	51		 push	 ecx
  00158	0f b6 15 02 00
	00 00		 movzx	 edx, BYTE PTR ?ui_ingame_live_text_colour@@3UREAL_COLOUR@@A+2
  0015f	52		 push	 edx
  00160	6a 13		 push	 19			; 00000013H
  00162	6a 03		 push	 3
  00164	6a 12		 push	 18			; 00000012H
  00166	68 00 00 00 00	 push	 OFFSET ??_C@_03NBOPHIOC@Map@
  0016b	e8 00 00 00 00	 call	 ?get_trans@@YGPBDPBD@Z	; get_trans
  00170	50		 push	 eax
  00171	6a 4a		 push	 74			; 0000004aH
  00173	f3 0f 10 45 f0	 movss	 xmm0, DWORD PTR _y2$[ebp]
  00178	f3 0f 5c 45 f8	 subss	 xmm0, DWORD PTR _y1$[ebp]
  0017d	f3 0f 5a c0	 cvtss2sd xmm0, xmm0
  00181	83 ec 08	 sub	 esp, 8
  00184	f2 0f 11 04 24	 movsd	 QWORD PTR [esp], xmm0
  00189	f3 0f 10 45 f4	 movss	 xmm0, DWORD PTR _x2$[ebp]
  0018e	f3 0f 5c 45 fc	 subss	 xmm0, DWORD PTR _x1$[ebp]
  00193	f3 0f 5a c0	 cvtss2sd xmm0, xmm0
  00197	83 ec 08	 sub	 esp, 8
  0019a	f2 0f 11 04 24	 movsd	 QWORD PTR [esp], xmm0
  0019f	6a 59		 push	 89			; 00000059H
  001a1	f3 0f 5a 45 f8	 cvtss2sd xmm0, DWORD PTR _y1$[ebp]
  001a6	83 ec 08	 sub	 esp, 8
  001a9	f2 0f 11 04 24	 movsd	 QWORD PTR [esp], xmm0
  001ae	f3 0f 5a 45 fc	 cvtss2sd xmm0, DWORD PTR _x1$[ebp]
  001b3	83 ec 08	 sub	 esp, 8
  001b6	f2 0f 11 04 24	 movsd	 QWORD PTR [esp], xmm0
  001bb	6a 58		 push	 88			; 00000058H
  001bd	a1 00 00 00 00	 mov	 eax, DWORD PTR ?top_menu_area@@3PAUUI_OBJECT@@A
  001c2	50		 push	 eax
  001c3	6a 32		 push	 50			; 00000032H
  001c5	6a 03		 push	 3
  001c7	e8 00 00 00 00	 call	 ?create_ui_object@@YAPAUUI_OBJECT@@HZZ ; create_ui_object
  001cc	81 c4 ac 00 00
	00		 add	 esp, 172		; 000000acH
  001d2	8b 0d 00 00 00
	00		 mov	 ecx, DWORD PTR ?menu_button_count@@3HA
  001d8	89 04 8d 00 00
	00 00		 mov	 DWORD PTR ?button_list@@3PAPAUUI_OBJECT@@A[ecx*4], eax
  001df	8b 15 00 00 00
	00		 mov	 edx, DWORD PTR ?menu_button_count@@3HA
  001e5	83 c2 01	 add	 edx, 1
  001e8	89 15 00 00 00
	00		 mov	 DWORD PTR ?menu_button_count@@3HA, edx

; 347  : 			(
; 348  : 				UI_TYPE_RADIO,
; 349  : 				UI_ATTR_PARENT (top_menu_area),
; 350  : 				UI_ATTR_VIRTUAL_POSITION (x1, y1),
; 351  : 				UI_ATTR_VIRTUAL_SIZE (x2 - x1, y2 - y1),
; 352  : 				UI_ATTR_TEXT (get_trans ("Map")),
; 353  : 				UI_ATTR_FONT_TYPE (CAMPAIGN_MENU_ITEM_FONT),
; 354  : 				UI_ATTR_FONT_COLOUR (ui_ingame_live_text_colour.r, ui_ingame_live_text_colour.g, ui_ingame_live_text_colour.b, ui_ingame_live_text_colour.a),
; 355  : 				UI_ATTR_HIGHLIGHTED_FONT_COLOUR (ui_ingame_highlight_text_colour.r, ui_ingame_highlight_text_colour.g, ui_ingame_highlight_text_colour.b, ui_ingame_highlight_text_colour.a),
; 356  : 				UI_ATTR_SELECTED_FONT_COLOUR (ui_ingame_selected_text_colour.r, ui_ingame_selected_text_colour.g, ui_ingame_selected_text_colour.b, ui_ingame_selected_text_colour.a),
; 357  : 				UI_ATTR_NOTIFY_ON (NOTIFY_TYPE_BUTTON_DOWN),
; 358  : 				UI_ATTR_FUNCTION (notify_main_map_button),
; 359  : 				UI_ATTR_CLEAR ( TRUE ),
; 360  : 				UI_ATTR_HIGHLIGHTABLE (TRUE),
; 361  : 				UI_ATTR_ITEM_NUMBER (CAMPAIGN_PAGE_MAP),
; 362  : 				UI_ATTR_END
; 363  : 			);
; 364  : 
; 365  : 	/////////////////////////////////////////////////////////////////
; 366  : 	// Stats Button
; 367  : 
; 368  : 	x1 = 0.125;

  001ee	f3 0f 10 05 00
	00 00 00	 movss	 xmm0, DWORD PTR __real@3e000000
  001f6	f3 0f 11 45 fc	 movss	 DWORD PTR _x1$[ebp], xmm0

; 369  : 	y1 = 0.0;

  001fb	0f 57 c0	 xorps	 xmm0, xmm0
  001fe	f3 0f 11 45 f8	 movss	 DWORD PTR _y1$[ebp], xmm0

; 370  : 	x2 = 0.250;

  00203	f3 0f 10 05 00
	00 00 00	 movss	 xmm0, DWORD PTR __real@3e800000
  0020b	f3 0f 11 45 f4	 movss	 DWORD PTR _x2$[ebp], xmm0

; 371  : 	y2 = 1.0;

  00210	f3 0f 10 05 00
	00 00 00	 movss	 xmm0, DWORD PTR __real@3f800000
  00218	f3 0f 11 45 f0	 movss	 DWORD PTR _y2$[ebp], xmm0

; 372  : 
; 373  : 	button_list [menu_button_count++] = create_ui_object

  0021d	6a 11		 push	 17			; 00000011H
  0021f	6a 06		 push	 6
  00221	6a 29		 push	 41			; 00000029H
  00223	6a 01		 push	 1
  00225	6a 1b		 push	 27			; 0000001bH
  00227	6a 01		 push	 1
  00229	6a 07		 push	 7
  0022b	68 00 00 00 00	 push	 OFFSET ?notify_stats_button@@YGXPAUUI_OBJECT@@PAX@Z ; notify_stats_button
  00230	6a 16		 push	 22			; 00000016H
  00232	6a 02		 push	 2
  00234	6a 2f		 push	 47			; 0000002fH
  00236	0f b6 05 03 00
	00 00		 movzx	 eax, BYTE PTR ?ui_ingame_selected_text_colour@@3UREAL_COLOUR@@A+3
  0023d	50		 push	 eax
  0023e	0f b6 0d 00 00
	00 00		 movzx	 ecx, BYTE PTR ?ui_ingame_selected_text_colour@@3UREAL_COLOUR@@A
  00245	51		 push	 ecx
  00246	0f b6 15 01 00
	00 00		 movzx	 edx, BYTE PTR ?ui_ingame_selected_text_colour@@3UREAL_COLOUR@@A+1
  0024d	52		 push	 edx
  0024e	0f b6 05 02 00
	00 00		 movzx	 eax, BYTE PTR ?ui_ingame_selected_text_colour@@3UREAL_COLOUR@@A+2
  00255	50		 push	 eax
  00256	6a 3d		 push	 61			; 0000003dH
  00258	0f b6 0d 03 00
	00 00		 movzx	 ecx, BYTE PTR ?ui_ingame_highlight_text_colour@@3UREAL_COLOUR@@A+3
  0025f	51		 push	 ecx
  00260	0f b6 15 00 00
	00 00		 movzx	 edx, BYTE PTR ?ui_ingame_highlight_text_colour@@3UREAL_COLOUR@@A
  00267	52		 push	 edx
  00268	0f b6 05 01 00
	00 00		 movzx	 eax, BYTE PTR ?ui_ingame_highlight_text_colour@@3UREAL_COLOUR@@A+1
  0026f	50		 push	 eax
  00270	0f b6 0d 02 00
	00 00		 movzx	 ecx, BYTE PTR ?ui_ingame_highlight_text_colour@@3UREAL_COLOUR@@A+2
  00277	51		 push	 ecx
  00278	6a 21		 push	 33			; 00000021H
  0027a	0f b6 15 03 00
	00 00		 movzx	 edx, BYTE PTR ?ui_ingame_live_text_colour@@3UREAL_COLOUR@@A+3
  00281	52		 push	 edx
  00282	0f b6 05 00 00
	00 00		 movzx	 eax, BYTE PTR ?ui_ingame_live_text_colour@@3UREAL_COLOUR@@A
  00289	50		 push	 eax
  0028a	0f b6 0d 01 00
	00 00		 movzx	 ecx, BYTE PTR ?ui_ingame_live_text_colour@@3UREAL_COLOUR@@A+1
  00291	51		 push	 ecx
  00292	0f b6 15 02 00
	00 00		 movzx	 edx, BYTE PTR ?ui_ingame_live_text_colour@@3UREAL_COLOUR@@A+2
  00299	52		 push	 edx
  0029a	6a 13		 push	 19			; 00000013H
  0029c	6a 03		 push	 3
  0029e	6a 12		 push	 18			; 00000012H
  002a0	68 00 00 00 00	 push	 OFFSET ??_C@_09BPHPLPEG@Sit?4?5Rep?4@
  002a5	e8 00 00 00 00	 call	 ?get_trans@@YGPBDPBD@Z	; get_trans
  002aa	50		 push	 eax
  002ab	6a 4a		 push	 74			; 0000004aH
  002ad	f3 0f 10 45 f0	 movss	 xmm0, DWORD PTR _y2$[ebp]
  002b2	f3 0f 5c 45 f8	 subss	 xmm0, DWORD PTR _y1$[ebp]
  002b7	f3 0f 5a c0	 cvtss2sd xmm0, xmm0
  002bb	83 ec 08	 sub	 esp, 8
  002be	f2 0f 11 04 24	 movsd	 QWORD PTR [esp], xmm0
  002c3	f3 0f 10 45 f4	 movss	 xmm0, DWORD PTR _x2$[ebp]
  002c8	f3 0f 5c 45 fc	 subss	 xmm0, DWORD PTR _x1$[ebp]
  002cd	f3 0f 5a c0	 cvtss2sd xmm0, xmm0
  002d1	83 ec 08	 sub	 esp, 8
  002d4	f2 0f 11 04 24	 movsd	 QWORD PTR [esp], xmm0
  002d9	6a 59		 push	 89			; 00000059H
  002db	f3 0f 5a 45 f8	 cvtss2sd xmm0, DWORD PTR _y1$[ebp]
  002e0	83 ec 08	 sub	 esp, 8
  002e3	f2 0f 11 04 24	 movsd	 QWORD PTR [esp], xmm0
  002e8	f3 0f 5a 45 fc	 cvtss2sd xmm0, DWORD PTR _x1$[ebp]
  002ed	83 ec 08	 sub	 esp, 8
  002f0	f2 0f 11 04 24	 movsd	 QWORD PTR [esp], xmm0
  002f5	6a 58		 push	 88			; 00000058H
  002f7	a1 00 00 00 00	 mov	 eax, DWORD PTR ?top_menu_area@@3PAUUI_OBJECT@@A
  002fc	50		 push	 eax
  002fd	6a 32		 push	 50			; 00000032H
  002ff	6a 03		 push	 3
  00301	e8 00 00 00 00	 call	 ?create_ui_object@@YAPAUUI_OBJECT@@HZZ ; create_ui_object
  00306	81 c4 ac 00 00
	00		 add	 esp, 172		; 000000acH
  0030c	8b 0d 00 00 00
	00		 mov	 ecx, DWORD PTR ?menu_button_count@@3HA
  00312	89 04 8d 00 00
	00 00		 mov	 DWORD PTR ?button_list@@3PAPAUUI_OBJECT@@A[ecx*4], eax
  00319	8b 15 00 00 00
	00		 mov	 edx, DWORD PTR ?menu_button_count@@3HA
  0031f	83 c2 01	 add	 edx, 1
  00322	89 15 00 00 00
	00		 mov	 DWORD PTR ?menu_button_count@@3HA, edx

; 374  : 			(
; 375  : 				UI_TYPE_RADIO,
; 376  : 				UI_ATTR_PARENT (top_menu_area),
; 377  : 				UI_ATTR_VIRTUAL_POSITION (x1, y1),
; 378  : 				UI_ATTR_VIRTUAL_SIZE (x2 - x1, y2 - y1),
; 379  : 				UI_ATTR_TEXT (get_trans ("Sit. Rep.")),
; 380  : 				UI_ATTR_FONT_TYPE (CAMPAIGN_MENU_ITEM_FONT),
; 381  : 				UI_ATTR_FONT_COLOUR (ui_ingame_live_text_colour.r, ui_ingame_live_text_colour.g, ui_ingame_live_text_colour.b, ui_ingame_live_text_colour.a),
; 382  : 				UI_ATTR_HIGHLIGHTED_FONT_COLOUR (ui_ingame_highlight_text_colour.r, ui_ingame_highlight_text_colour.g, ui_ingame_highlight_text_colour.b, ui_ingame_highlight_text_colour.a),
; 383  : 				UI_ATTR_SELECTED_FONT_COLOUR (ui_ingame_selected_text_colour.r, ui_ingame_selected_text_colour.g, ui_ingame_selected_text_colour.b, ui_ingame_selected_text_colour.a),
; 384  : 				UI_ATTR_NOTIFY_ON (NOTIFY_TYPE_BUTTON_DOWN),
; 385  : 				UI_ATTR_FUNCTION (notify_stats_button),
; 386  : 				UI_ATTR_CLEAR ( TRUE ),
; 387  : 				UI_ATTR_HIGHLIGHTABLE (TRUE),
; 388  : 				UI_ATTR_ITEM_NUMBER (CAMPAIGN_PAGE_STATS),
; 389  : 				UI_ATTR_END
; 390  : 			);
; 391  : 
; 392  : 	/////////////////////////////////////////////////////////////////
; 393  : 	// Message Log Button
; 394  : 
; 395  : 	x1 = 0.250;

  00328	f3 0f 10 05 00
	00 00 00	 movss	 xmm0, DWORD PTR __real@3e800000
  00330	f3 0f 11 45 fc	 movss	 DWORD PTR _x1$[ebp], xmm0

; 396  : 	y1 = 0.0;

  00335	0f 57 c0	 xorps	 xmm0, xmm0
  00338	f3 0f 11 45 f8	 movss	 DWORD PTR _y1$[ebp], xmm0

; 397  : 	x2 = 0.375;

  0033d	f3 0f 10 05 00
	00 00 00	 movss	 xmm0, DWORD PTR __real@3ec00000
  00345	f3 0f 11 45 f4	 movss	 DWORD PTR _x2$[ebp], xmm0

; 398  : 	y2 = 1.0;

  0034a	f3 0f 10 05 00
	00 00 00	 movss	 xmm0, DWORD PTR __real@3f800000
  00352	f3 0f 11 45 f0	 movss	 DWORD PTR _y2$[ebp], xmm0

; 399  : 
; 400  : 	button_list [menu_button_count++] = create_ui_object

  00357	6a 11		 push	 17			; 00000011H
  00359	6a 04		 push	 4
  0035b	6a 29		 push	 41			; 00000029H
  0035d	6a 01		 push	 1
  0035f	6a 1b		 push	 27			; 0000001bH
  00361	6a 01		 push	 1
  00363	6a 07		 push	 7
  00365	68 00 00 00 00	 push	 OFFSET ?notify_log_button@@YGXPAUUI_OBJECT@@PAX@Z ; notify_log_button
  0036a	6a 16		 push	 22			; 00000016H
  0036c	6a 02		 push	 2
  0036e	6a 2f		 push	 47			; 0000002fH
  00370	0f b6 05 03 00
	00 00		 movzx	 eax, BYTE PTR ?ui_ingame_selected_text_colour@@3UREAL_COLOUR@@A+3
  00377	50		 push	 eax
  00378	0f b6 0d 00 00
	00 00		 movzx	 ecx, BYTE PTR ?ui_ingame_selected_text_colour@@3UREAL_COLOUR@@A
  0037f	51		 push	 ecx
  00380	0f b6 15 01 00
	00 00		 movzx	 edx, BYTE PTR ?ui_ingame_selected_text_colour@@3UREAL_COLOUR@@A+1
  00387	52		 push	 edx
  00388	0f b6 05 02 00
	00 00		 movzx	 eax, BYTE PTR ?ui_ingame_selected_text_colour@@3UREAL_COLOUR@@A+2
  0038f	50		 push	 eax
  00390	6a 3d		 push	 61			; 0000003dH
  00392	0f b6 0d 03 00
	00 00		 movzx	 ecx, BYTE PTR ?ui_ingame_highlight_text_colour@@3UREAL_COLOUR@@A+3
  00399	51		 push	 ecx
  0039a	0f b6 15 00 00
	00 00		 movzx	 edx, BYTE PTR ?ui_ingame_highlight_text_colour@@3UREAL_COLOUR@@A
  003a1	52		 push	 edx
  003a2	0f b6 05 01 00
	00 00		 movzx	 eax, BYTE PTR ?ui_ingame_highlight_text_colour@@3UREAL_COLOUR@@A+1
  003a9	50		 push	 eax
  003aa	0f b6 0d 02 00
	00 00		 movzx	 ecx, BYTE PTR ?ui_ingame_highlight_text_colour@@3UREAL_COLOUR@@A+2
  003b1	51		 push	 ecx
  003b2	6a 21		 push	 33			; 00000021H
  003b4	0f b6 15 03 00
	00 00		 movzx	 edx, BYTE PTR ?ui_ingame_live_text_colour@@3UREAL_COLOUR@@A+3
  003bb	52		 push	 edx
  003bc	0f b6 05 00 00
	00 00		 movzx	 eax, BYTE PTR ?ui_ingame_live_text_colour@@3UREAL_COLOUR@@A
  003c3	50		 push	 eax
  003c4	0f b6 0d 01 00
	00 00		 movzx	 ecx, BYTE PTR ?ui_ingame_live_text_colour@@3UREAL_COLOUR@@A+1
  003cb	51		 push	 ecx
  003cc	0f b6 15 02 00
	00 00		 movzx	 edx, BYTE PTR ?ui_ingame_live_text_colour@@3UREAL_COLOUR@@A+2
  003d3	52		 push	 edx
  003d4	6a 13		 push	 19			; 00000013H
  003d6	6a 03		 push	 3
  003d8	6a 12		 push	 18			; 00000012H
  003da	68 00 00 00 00	 push	 OFFSET ??_C@_03GGEOLGBL@Log@
  003df	e8 00 00 00 00	 call	 ?get_trans@@YGPBDPBD@Z	; get_trans
  003e4	50		 push	 eax
  003e5	6a 4a		 push	 74			; 0000004aH
  003e7	f3 0f 10 45 f0	 movss	 xmm0, DWORD PTR _y2$[ebp]
  003ec	f3 0f 5c 45 f8	 subss	 xmm0, DWORD PTR _y1$[ebp]
  003f1	f3 0f 5a c0	 cvtss2sd xmm0, xmm0
  003f5	83 ec 08	 sub	 esp, 8
  003f8	f2 0f 11 04 24	 movsd	 QWORD PTR [esp], xmm0
  003fd	f3 0f 10 45 f4	 movss	 xmm0, DWORD PTR _x2$[ebp]
  00402	f3 0f 5c 45 fc	 subss	 xmm0, DWORD PTR _x1$[ebp]
  00407	f3 0f 5a c0	 cvtss2sd xmm0, xmm0
  0040b	83 ec 08	 sub	 esp, 8
  0040e	f2 0f 11 04 24	 movsd	 QWORD PTR [esp], xmm0
  00413	6a 59		 push	 89			; 00000059H
  00415	f3 0f 5a 45 f8	 cvtss2sd xmm0, DWORD PTR _y1$[ebp]
  0041a	83 ec 08	 sub	 esp, 8
  0041d	f2 0f 11 04 24	 movsd	 QWORD PTR [esp], xmm0
  00422	f3 0f 5a 45 fc	 cvtss2sd xmm0, DWORD PTR _x1$[ebp]
  00427	83 ec 08	 sub	 esp, 8
  0042a	f2 0f 11 04 24	 movsd	 QWORD PTR [esp], xmm0
  0042f	6a 58		 push	 88			; 00000058H
  00431	a1 00 00 00 00	 mov	 eax, DWORD PTR ?top_menu_area@@3PAUUI_OBJECT@@A
  00436	50		 push	 eax
  00437	6a 32		 push	 50			; 00000032H
  00439	6a 03		 push	 3
  0043b	e8 00 00 00 00	 call	 ?create_ui_object@@YAPAUUI_OBJECT@@HZZ ; create_ui_object
  00440	81 c4 ac 00 00
	00		 add	 esp, 172		; 000000acH
  00446	8b 0d 00 00 00
	00		 mov	 ecx, DWORD PTR ?menu_button_count@@3HA
  0044c	89 04 8d 00 00
	00 00		 mov	 DWORD PTR ?button_list@@3PAPAUUI_OBJECT@@A[ecx*4], eax
  00453	8b 15 00 00 00
	00		 mov	 edx, DWORD PTR ?menu_button_count@@3HA
  00459	83 c2 01	 add	 edx, 1
  0045c	89 15 00 00 00
	00		 mov	 DWORD PTR ?menu_button_count@@3HA, edx

; 401  : 			(
; 402  : 				UI_TYPE_RADIO,
; 403  : 				UI_ATTR_PARENT (top_menu_area),
; 404  : 				UI_ATTR_VIRTUAL_POSITION (x1, y1),
; 405  : 				UI_ATTR_VIRTUAL_SIZE (x2 - x1, y2 - y1),
; 406  : 				UI_ATTR_TEXT (get_trans ("Log")),
; 407  : 				UI_ATTR_FONT_TYPE (CAMPAIGN_MENU_ITEM_FONT),
; 408  : 				UI_ATTR_FONT_COLOUR (ui_ingame_live_text_colour.r, ui_ingame_live_text_colour.g, ui_ingame_live_text_colour.b, ui_ingame_live_text_colour.a),
; 409  : 				UI_ATTR_HIGHLIGHTED_FONT_COLOUR (ui_ingame_highlight_text_colour.r, ui_ingame_highlight_text_colour.g, ui_ingame_highlight_text_colour.b, ui_ingame_highlight_text_colour.a),
; 410  : 				UI_ATTR_SELECTED_FONT_COLOUR (ui_ingame_selected_text_colour.r, ui_ingame_selected_text_colour.g, ui_ingame_selected_text_colour.b, ui_ingame_selected_text_colour.a),
; 411  : 				UI_ATTR_NOTIFY_ON (NOTIFY_TYPE_BUTTON_DOWN),
; 412  : 				UI_ATTR_FUNCTION (notify_log_button),
; 413  : 				UI_ATTR_CLEAR ( TRUE ),
; 414  : 				UI_ATTR_HIGHLIGHTABLE (TRUE),
; 415  : 				UI_ATTR_ITEM_NUMBER (CAMPAIGN_PAGE_LOG),
; 416  : 				UI_ATTR_END
; 417  : 			);
; 418  : 
; 419  : 	/////////////////////////////////////////////////////////////////
; 420  : 	// Weapon Loading Button
; 421  : 
; 422  : 	x1 = 0.375;

  00462	f3 0f 10 05 00
	00 00 00	 movss	 xmm0, DWORD PTR __real@3ec00000
  0046a	f3 0f 11 45 fc	 movss	 DWORD PTR _x1$[ebp], xmm0

; 423  : 	y1 = 0.0;

  0046f	0f 57 c0	 xorps	 xmm0, xmm0
  00472	f3 0f 11 45 f8	 movss	 DWORD PTR _y1$[ebp], xmm0

; 424  : 	x2 = 0.500;

  00477	f3 0f 10 05 00
	00 00 00	 movss	 xmm0, DWORD PTR __real@3f000000
  0047f	f3 0f 11 45 f4	 movss	 DWORD PTR _x2$[ebp], xmm0

; 425  : 	y2 = 1.0;

  00484	f3 0f 10 05 00
	00 00 00	 movss	 xmm0, DWORD PTR __real@3f800000
  0048c	f3 0f 11 45 f0	 movss	 DWORD PTR _y2$[ebp], xmm0

; 426  : 
; 427  : 	campaign_weapon_loading_button = create_ui_object

  00491	6a 11		 push	 17			; 00000011H
  00493	6a 09		 push	 9
  00495	6a 29		 push	 41			; 00000029H
  00497	6a 01		 push	 1
  00499	6a 1b		 push	 27			; 0000001bH
  0049b	6a 01		 push	 1
  0049d	6a 07		 push	 7
  0049f	68 00 00 00 00	 push	 OFFSET ?notify_weapon_loading_button@@YGXPAUUI_OBJECT@@PAX@Z ; notify_weapon_loading_button
  004a4	6a 16		 push	 22			; 00000016H
  004a6	6a 02		 push	 2
  004a8	6a 2f		 push	 47			; 0000002fH
  004aa	0f b6 05 03 00
	00 00		 movzx	 eax, BYTE PTR ?ui_ingame_selected_text_colour@@3UREAL_COLOUR@@A+3
  004b1	50		 push	 eax
  004b2	0f b6 0d 00 00
	00 00		 movzx	 ecx, BYTE PTR ?ui_ingame_selected_text_colour@@3UREAL_COLOUR@@A
  004b9	51		 push	 ecx
  004ba	0f b6 15 01 00
	00 00		 movzx	 edx, BYTE PTR ?ui_ingame_selected_text_colour@@3UREAL_COLOUR@@A+1
  004c1	52		 push	 edx
  004c2	0f b6 05 02 00
	00 00		 movzx	 eax, BYTE PTR ?ui_ingame_selected_text_colour@@3UREAL_COLOUR@@A+2
  004c9	50		 push	 eax
  004ca	6a 3d		 push	 61			; 0000003dH
  004cc	0f b6 0d 03 00
	00 00		 movzx	 ecx, BYTE PTR ?ui_ingame_highlight_text_colour@@3UREAL_COLOUR@@A+3
  004d3	51		 push	 ecx
  004d4	0f b6 15 00 00
	00 00		 movzx	 edx, BYTE PTR ?ui_ingame_highlight_text_colour@@3UREAL_COLOUR@@A
  004db	52		 push	 edx
  004dc	0f b6 05 01 00
	00 00		 movzx	 eax, BYTE PTR ?ui_ingame_highlight_text_colour@@3UREAL_COLOUR@@A+1
  004e3	50		 push	 eax
  004e4	0f b6 0d 02 00
	00 00		 movzx	 ecx, BYTE PTR ?ui_ingame_highlight_text_colour@@3UREAL_COLOUR@@A+2
  004eb	51		 push	 ecx
  004ec	6a 21		 push	 33			; 00000021H
  004ee	0f b6 15 03 00
	00 00		 movzx	 edx, BYTE PTR ?ui_ingame_live_text_colour@@3UREAL_COLOUR@@A+3
  004f5	52		 push	 edx
  004f6	0f b6 05 00 00
	00 00		 movzx	 eax, BYTE PTR ?ui_ingame_live_text_colour@@3UREAL_COLOUR@@A
  004fd	50		 push	 eax
  004fe	0f b6 0d 01 00
	00 00		 movzx	 ecx, BYTE PTR ?ui_ingame_live_text_colour@@3UREAL_COLOUR@@A+1
  00505	51		 push	 ecx
  00506	0f b6 15 02 00
	00 00		 movzx	 edx, BYTE PTR ?ui_ingame_live_text_colour@@3UREAL_COLOUR@@A+2
  0050d	52		 push	 edx
  0050e	6a 13		 push	 19			; 00000013H
  00510	6a 03		 push	 3
  00512	6a 12		 push	 18			; 00000012H
  00514	68 00 00 00 00	 push	 OFFSET ??_C@_07LJBELKKF@Payload@
  00519	e8 00 00 00 00	 call	 ?get_trans@@YGPBDPBD@Z	; get_trans
  0051e	50		 push	 eax
  0051f	6a 4a		 push	 74			; 0000004aH
  00521	f3 0f 10 45 f0	 movss	 xmm0, DWORD PTR _y2$[ebp]
  00526	f3 0f 5c 45 f8	 subss	 xmm0, DWORD PTR _y1$[ebp]
  0052b	f3 0f 5a c0	 cvtss2sd xmm0, xmm0
  0052f	83 ec 08	 sub	 esp, 8
  00532	f2 0f 11 04 24	 movsd	 QWORD PTR [esp], xmm0
  00537	f3 0f 10 45 f4	 movss	 xmm0, DWORD PTR _x2$[ebp]
  0053c	f3 0f 5c 45 fc	 subss	 xmm0, DWORD PTR _x1$[ebp]
  00541	f3 0f 5a c0	 cvtss2sd xmm0, xmm0
  00545	83 ec 08	 sub	 esp, 8
  00548	f2 0f 11 04 24	 movsd	 QWORD PTR [esp], xmm0
  0054d	6a 59		 push	 89			; 00000059H
  0054f	f3 0f 5a 45 f8	 cvtss2sd xmm0, DWORD PTR _y1$[ebp]
  00554	83 ec 08	 sub	 esp, 8
  00557	f2 0f 11 04 24	 movsd	 QWORD PTR [esp], xmm0
  0055c	f3 0f 5a 45 fc	 cvtss2sd xmm0, DWORD PTR _x1$[ebp]
  00561	83 ec 08	 sub	 esp, 8
  00564	f2 0f 11 04 24	 movsd	 QWORD PTR [esp], xmm0
  00569	6a 58		 push	 88			; 00000058H
  0056b	a1 00 00 00 00	 mov	 eax, DWORD PTR ?top_menu_area@@3PAUUI_OBJECT@@A
  00570	50		 push	 eax
  00571	6a 32		 push	 50			; 00000032H
  00573	6a 03		 push	 3
  00575	e8 00 00 00 00	 call	 ?create_ui_object@@YAPAUUI_OBJECT@@HZZ ; create_ui_object
  0057a	81 c4 ac 00 00
	00		 add	 esp, 172		; 000000acH
  00580	a3 00 00 00 00	 mov	 DWORD PTR ?campaign_weapon_loading_button@@3PAUUI_OBJECT@@A, eax

; 428  : 			(
; 429  : 				UI_TYPE_RADIO,
; 430  : 				UI_ATTR_PARENT (top_menu_area),
; 431  : 				UI_ATTR_VIRTUAL_POSITION (x1, y1),
; 432  : 				UI_ATTR_VIRTUAL_SIZE (x2 - x1, y2 - y1),
; 433  : 				UI_ATTR_TEXT (get_trans ("Payload")),
; 434  : 				UI_ATTR_FONT_TYPE (CAMPAIGN_MENU_ITEM_FONT),
; 435  : 				UI_ATTR_FONT_COLOUR (ui_ingame_live_text_colour.r, ui_ingame_live_text_colour.g, ui_ingame_live_text_colour.b, ui_ingame_live_text_colour.a),
; 436  : 				UI_ATTR_HIGHLIGHTED_FONT_COLOUR (ui_ingame_highlight_text_colour.r, ui_ingame_highlight_text_colour.g, ui_ingame_highlight_text_colour.b, ui_ingame_highlight_text_colour.a),
; 437  : 				UI_ATTR_SELECTED_FONT_COLOUR (ui_ingame_selected_text_colour.r, ui_ingame_selected_text_colour.g, ui_ingame_selected_text_colour.b, ui_ingame_selected_text_colour.a),
; 438  : 				UI_ATTR_NOTIFY_ON (NOTIFY_TYPE_BUTTON_DOWN),
; 439  : 				UI_ATTR_FUNCTION (notify_weapon_loading_button),
; 440  : 				UI_ATTR_CLEAR ( TRUE ),
; 441  : 				UI_ATTR_HIGHLIGHTABLE (TRUE),
; 442  : 				UI_ATTR_ITEM_NUMBER (CAMPAIGN_PAGE_WEAPON_LOADING),
; 443  : 				UI_ATTR_END
; 444  : 			);
; 445  : 
; 446  : 	button_list [menu_button_count++] = campaign_weapon_loading_button;

  00585	a1 00 00 00 00	 mov	 eax, DWORD PTR ?menu_button_count@@3HA
  0058a	8b 0d 00 00 00
	00		 mov	 ecx, DWORD PTR ?campaign_weapon_loading_button@@3PAUUI_OBJECT@@A
  00590	89 0c 85 00 00
	00 00		 mov	 DWORD PTR ?button_list@@3PAPAUUI_OBJECT@@A[eax*4], ecx
  00597	8b 15 00 00 00
	00		 mov	 edx, DWORD PTR ?menu_button_count@@3HA
  0059d	83 c2 01	 add	 edx, 1
  005a0	89 15 00 00 00
	00		 mov	 DWORD PTR ?menu_button_count@@3HA, edx

; 447  : 
; 448  : 	/////////////////////////////////////////////////////////////////
; 449  : 	// Briefing Button
; 450  : 
; 451  : 	x1 = 0.500;

  005a6	f3 0f 10 05 00
	00 00 00	 movss	 xmm0, DWORD PTR __real@3f000000
  005ae	f3 0f 11 45 fc	 movss	 DWORD PTR _x1$[ebp], xmm0

; 452  : 	y1 = 0.0;

  005b3	0f 57 c0	 xorps	 xmm0, xmm0
  005b6	f3 0f 11 45 f8	 movss	 DWORD PTR _y1$[ebp], xmm0

; 453  : 	x2 = 0.625;

  005bb	f3 0f 10 05 00
	00 00 00	 movss	 xmm0, DWORD PTR __real@3f200000
  005c3	f3 0f 11 45 f4	 movss	 DWORD PTR _x2$[ebp], xmm0

; 454  : 	y2 = 1.0;

  005c8	f3 0f 10 05 00
	00 00 00	 movss	 xmm0, DWORD PTR __real@3f800000
  005d0	f3 0f 11 45 f0	 movss	 DWORD PTR _y2$[ebp], xmm0

; 455  : 
; 456  : 	campaign_briefing_button = create_ui_object

  005d5	6a 11		 push	 17			; 00000011H
  005d7	6a 01		 push	 1
  005d9	6a 1b		 push	 27			; 0000001bH
  005db	6a 01		 push	 1
  005dd	6a 07		 push	 7
  005df	68 00 00 00 00	 push	 OFFSET ?notify_briefing_button@@YGXPAUUI_OBJECT@@PAX@Z ; notify_briefing_button
  005e4	6a 16		 push	 22			; 00000016H
  005e6	6a 02		 push	 2
  005e8	6a 2f		 push	 47			; 0000002fH
  005ea	0f b6 05 03 00
	00 00		 movzx	 eax, BYTE PTR ?ui_ingame_selected_text_colour@@3UREAL_COLOUR@@A+3
  005f1	50		 push	 eax
  005f2	0f b6 0d 00 00
	00 00		 movzx	 ecx, BYTE PTR ?ui_ingame_selected_text_colour@@3UREAL_COLOUR@@A
  005f9	51		 push	 ecx
  005fa	0f b6 15 01 00
	00 00		 movzx	 edx, BYTE PTR ?ui_ingame_selected_text_colour@@3UREAL_COLOUR@@A+1
  00601	52		 push	 edx
  00602	0f b6 05 02 00
	00 00		 movzx	 eax, BYTE PTR ?ui_ingame_selected_text_colour@@3UREAL_COLOUR@@A+2
  00609	50		 push	 eax
  0060a	6a 3d		 push	 61			; 0000003dH
  0060c	0f b6 0d 03 00
	00 00		 movzx	 ecx, BYTE PTR ?ui_ingame_highlight_text_colour@@3UREAL_COLOUR@@A+3
  00613	51		 push	 ecx
  00614	0f b6 15 00 00
	00 00		 movzx	 edx, BYTE PTR ?ui_ingame_highlight_text_colour@@3UREAL_COLOUR@@A
  0061b	52		 push	 edx
  0061c	0f b6 05 01 00
	00 00		 movzx	 eax, BYTE PTR ?ui_ingame_highlight_text_colour@@3UREAL_COLOUR@@A+1
  00623	50		 push	 eax
  00624	0f b6 0d 02 00
	00 00		 movzx	 ecx, BYTE PTR ?ui_ingame_highlight_text_colour@@3UREAL_COLOUR@@A+2
  0062b	51		 push	 ecx
  0062c	6a 21		 push	 33			; 00000021H
  0062e	0f b6 15 03 00
	00 00		 movzx	 edx, BYTE PTR ?ui_ingame_live_text_colour@@3UREAL_COLOUR@@A+3
  00635	52		 push	 edx
  00636	0f b6 05 00 00
	00 00		 movzx	 eax, BYTE PTR ?ui_ingame_live_text_colour@@3UREAL_COLOUR@@A
  0063d	50		 push	 eax
  0063e	0f b6 0d 01 00
	00 00		 movzx	 ecx, BYTE PTR ?ui_ingame_live_text_colour@@3UREAL_COLOUR@@A+1
  00645	51		 push	 ecx
  00646	0f b6 15 02 00
	00 00		 movzx	 edx, BYTE PTR ?ui_ingame_live_text_colour@@3UREAL_COLOUR@@A+2
  0064d	52		 push	 edx
  0064e	6a 13		 push	 19			; 00000013H
  00650	6a 03		 push	 3
  00652	6a 12		 push	 18			; 00000012H
  00654	f3 0f 10 45 f0	 movss	 xmm0, DWORD PTR _y2$[ebp]
  00659	f3 0f 5c 45 f8	 subss	 xmm0, DWORD PTR _y1$[ebp]
  0065e	f3 0f 5a c0	 cvtss2sd xmm0, xmm0
  00662	83 ec 08	 sub	 esp, 8
  00665	f2 0f 11 04 24	 movsd	 QWORD PTR [esp], xmm0
  0066a	f3 0f 10 45 f4	 movss	 xmm0, DWORD PTR _x2$[ebp]
  0066f	f3 0f 5c 45 fc	 subss	 xmm0, DWORD PTR _x1$[ebp]
  00674	f3 0f 5a c0	 cvtss2sd xmm0, xmm0
  00678	83 ec 08	 sub	 esp, 8
  0067b	f2 0f 11 04 24	 movsd	 QWORD PTR [esp], xmm0
  00680	6a 59		 push	 89			; 00000059H
  00682	f3 0f 5a 45 f8	 cvtss2sd xmm0, DWORD PTR _y1$[ebp]
  00687	83 ec 08	 sub	 esp, 8
  0068a	f2 0f 11 04 24	 movsd	 QWORD PTR [esp], xmm0
  0068f	f3 0f 5a 45 fc	 cvtss2sd xmm0, DWORD PTR _x1$[ebp]
  00694	83 ec 08	 sub	 esp, 8
  00697	f2 0f 11 04 24	 movsd	 QWORD PTR [esp], xmm0
  0069c	6a 58		 push	 88			; 00000058H
  0069e	a1 00 00 00 00	 mov	 eax, DWORD PTR ?top_menu_area@@3PAUUI_OBJECT@@A
  006a3	50		 push	 eax
  006a4	6a 32		 push	 50			; 00000032H
  006a6	6a 02		 push	 2
  006a8	e8 00 00 00 00	 call	 ?create_ui_object@@YAPAUUI_OBJECT@@HZZ ; create_ui_object
  006ad	81 c4 9c 00 00
	00		 add	 esp, 156		; 0000009cH
  006b3	a3 00 00 00 00	 mov	 DWORD PTR ?campaign_briefing_button@@3PAUUI_OBJECT@@A, eax

; 457  : 			(
; 458  : 				UI_TYPE_BUTTON,
; 459  : 				UI_ATTR_PARENT (top_menu_area),
; 460  : 				UI_ATTR_VIRTUAL_POSITION (x1, y1),
; 461  : 				UI_ATTR_VIRTUAL_SIZE (x2 - x1, y2 - y1),
; 462  : 				UI_ATTR_FONT_TYPE (CAMPAIGN_MENU_ITEM_FONT),
; 463  : 				UI_ATTR_FONT_COLOUR (ui_ingame_live_text_colour.r, ui_ingame_live_text_colour.g, ui_ingame_live_text_colour.b, ui_ingame_live_text_colour.a),
; 464  : 				UI_ATTR_HIGHLIGHTED_FONT_COLOUR (ui_ingame_highlight_text_colour.r, ui_ingame_highlight_text_colour.g, ui_ingame_highlight_text_colour.b, ui_ingame_highlight_text_colour.a),
; 465  : 				UI_ATTR_SELECTED_FONT_COLOUR (ui_ingame_selected_text_colour.r, ui_ingame_selected_text_colour.g, ui_ingame_selected_text_colour.b, ui_ingame_selected_text_colour.a),
; 466  : 				UI_ATTR_NOTIFY_ON (NOTIFY_TYPE_BUTTON_DOWN),
; 467  : 				UI_ATTR_FUNCTION (notify_briefing_button),
; 468  : 				UI_ATTR_CLEAR (TRUE),
; 469  : 				UI_ATTR_HIGHLIGHTABLE (TRUE),
; 470  : 				UI_ATTR_END
; 471  : 			);
; 472  : 
; 473  : 	/////////////////////////////////////////////////////////////////
; 474  : 	// Chat Button
; 475  : 
; 476  : 	x1 = 0.625;

  006b8	f3 0f 10 05 00
	00 00 00	 movss	 xmm0, DWORD PTR __real@3f200000
  006c0	f3 0f 11 45 fc	 movss	 DWORD PTR _x1$[ebp], xmm0

; 477  : 	y1 = 0.0;

  006c5	0f 57 c0	 xorps	 xmm0, xmm0
  006c8	f3 0f 11 45 f8	 movss	 DWORD PTR _y1$[ebp], xmm0

; 478  : 	x2 = 0.750;

  006cd	f3 0f 10 05 00
	00 00 00	 movss	 xmm0, DWORD PTR __real@3f400000
  006d5	f3 0f 11 45 f4	 movss	 DWORD PTR _x2$[ebp], xmm0

; 479  : 	y2 = 1.0;

  006da	f3 0f 10 05 00
	00 00 00	 movss	 xmm0, DWORD PTR __real@3f800000
  006e2	f3 0f 11 45 f0	 movss	 DWORD PTR _y2$[ebp], xmm0

; 480  : 
; 481  : 	campaign_chat_button = create_ui_object

  006e7	6a 11		 push	 17			; 00000011H
  006e9	6a 07		 push	 7
  006eb	6a 29		 push	 41			; 00000029H
  006ed	6a 01		 push	 1
  006ef	6a 1b		 push	 27			; 0000001bH
  006f1	6a 01		 push	 1
  006f3	6a 07		 push	 7
  006f5	68 00 00 00 00	 push	 OFFSET ?notify_chat_button@@YGXPAUUI_OBJECT@@PAX@Z ; notify_chat_button
  006fa	6a 16		 push	 22			; 00000016H
  006fc	6a 02		 push	 2
  006fe	6a 2f		 push	 47			; 0000002fH
  00700	0f b6 05 03 00
	00 00		 movzx	 eax, BYTE PTR ?ui_ingame_selected_text_colour@@3UREAL_COLOUR@@A+3
  00707	50		 push	 eax
  00708	0f b6 0d 00 00
	00 00		 movzx	 ecx, BYTE PTR ?ui_ingame_selected_text_colour@@3UREAL_COLOUR@@A
  0070f	51		 push	 ecx
  00710	0f b6 15 01 00
	00 00		 movzx	 edx, BYTE PTR ?ui_ingame_selected_text_colour@@3UREAL_COLOUR@@A+1
  00717	52		 push	 edx
  00718	0f b6 05 02 00
	00 00		 movzx	 eax, BYTE PTR ?ui_ingame_selected_text_colour@@3UREAL_COLOUR@@A+2
  0071f	50		 push	 eax
  00720	6a 3d		 push	 61			; 0000003dH
  00722	0f b6 0d 03 00
	00 00		 movzx	 ecx, BYTE PTR ?ui_ingame_highlight_text_colour@@3UREAL_COLOUR@@A+3
  00729	51		 push	 ecx
  0072a	0f b6 15 00 00
	00 00		 movzx	 edx, BYTE PTR ?ui_ingame_highlight_text_colour@@3UREAL_COLOUR@@A
  00731	52		 push	 edx
  00732	0f b6 05 01 00
	00 00		 movzx	 eax, BYTE PTR ?ui_ingame_highlight_text_colour@@3UREAL_COLOUR@@A+1
  00739	50		 push	 eax
  0073a	0f b6 0d 02 00
	00 00		 movzx	 ecx, BYTE PTR ?ui_ingame_highlight_text_colour@@3UREAL_COLOUR@@A+2
  00741	51		 push	 ecx
  00742	6a 21		 push	 33			; 00000021H
  00744	0f b6 15 03 00
	00 00		 movzx	 edx, BYTE PTR ?ui_ingame_live_text_colour@@3UREAL_COLOUR@@A+3
  0074b	52		 push	 edx
  0074c	0f b6 05 00 00
	00 00		 movzx	 eax, BYTE PTR ?ui_ingame_live_text_colour@@3UREAL_COLOUR@@A
  00753	50		 push	 eax
  00754	0f b6 0d 01 00
	00 00		 movzx	 ecx, BYTE PTR ?ui_ingame_live_text_colour@@3UREAL_COLOUR@@A+1
  0075b	51		 push	 ecx
  0075c	0f b6 15 02 00
	00 00		 movzx	 edx, BYTE PTR ?ui_ingame_live_text_colour@@3UREAL_COLOUR@@A+2
  00763	52		 push	 edx
  00764	6a 13		 push	 19			; 00000013H
  00766	6a 03		 push	 3
  00768	6a 12		 push	 18			; 00000012H
  0076a	68 00 00 00 00	 push	 OFFSET ??_C@_04NKFKOIHC@Chat@
  0076f	e8 00 00 00 00	 call	 ?get_trans@@YGPBDPBD@Z	; get_trans
  00774	50		 push	 eax
  00775	6a 4a		 push	 74			; 0000004aH
  00777	f3 0f 10 45 f0	 movss	 xmm0, DWORD PTR _y2$[ebp]
  0077c	f3 0f 5c 45 f8	 subss	 xmm0, DWORD PTR _y1$[ebp]
  00781	f3 0f 5a c0	 cvtss2sd xmm0, xmm0
  00785	83 ec 08	 sub	 esp, 8
  00788	f2 0f 11 04 24	 movsd	 QWORD PTR [esp], xmm0
  0078d	f3 0f 10 45 f4	 movss	 xmm0, DWORD PTR _x2$[ebp]
  00792	f3 0f 5c 45 fc	 subss	 xmm0, DWORD PTR _x1$[ebp]
  00797	f3 0f 5a c0	 cvtss2sd xmm0, xmm0
  0079b	83 ec 08	 sub	 esp, 8
  0079e	f2 0f 11 04 24	 movsd	 QWORD PTR [esp], xmm0
  007a3	6a 59		 push	 89			; 00000059H
  007a5	f3 0f 5a 45 f8	 cvtss2sd xmm0, DWORD PTR _y1$[ebp]
  007aa	83 ec 08	 sub	 esp, 8
  007ad	f2 0f 11 04 24	 movsd	 QWORD PTR [esp], xmm0
  007b2	f3 0f 5a 45 fc	 cvtss2sd xmm0, DWORD PTR _x1$[ebp]
  007b7	83 ec 08	 sub	 esp, 8
  007ba	f2 0f 11 04 24	 movsd	 QWORD PTR [esp], xmm0
  007bf	6a 58		 push	 88			; 00000058H
  007c1	a1 00 00 00 00	 mov	 eax, DWORD PTR ?top_menu_area@@3PAUUI_OBJECT@@A
  007c6	50		 push	 eax
  007c7	6a 32		 push	 50			; 00000032H
  007c9	6a 03		 push	 3
  007cb	e8 00 00 00 00	 call	 ?create_ui_object@@YAPAUUI_OBJECT@@HZZ ; create_ui_object
  007d0	81 c4 ac 00 00
	00		 add	 esp, 172		; 000000acH
  007d6	a3 00 00 00 00	 mov	 DWORD PTR ?campaign_chat_button@@3PAUUI_OBJECT@@A, eax

; 482  : 			(
; 483  : 				UI_TYPE_RADIO,
; 484  : 				UI_ATTR_PARENT (top_menu_area),
; 485  : 				UI_ATTR_VIRTUAL_POSITION (x1, y1),
; 486  : 				UI_ATTR_VIRTUAL_SIZE (x2 - x1, y2 - y1),
; 487  : 				UI_ATTR_TEXT (get_trans ("Chat")),
; 488  : 				UI_ATTR_FONT_TYPE (CAMPAIGN_MENU_ITEM_FONT),
; 489  : 				UI_ATTR_FONT_COLOUR (ui_ingame_live_text_colour.r, ui_ingame_live_text_colour.g, ui_ingame_live_text_colour.b, ui_ingame_live_text_colour.a),
; 490  : 				UI_ATTR_HIGHLIGHTED_FONT_COLOUR (ui_ingame_highlight_text_colour.r, ui_ingame_highlight_text_colour.g, ui_ingame_highlight_text_colour.b, ui_ingame_highlight_text_colour.a),
; 491  : 				UI_ATTR_SELECTED_FONT_COLOUR (ui_ingame_selected_text_colour.r, ui_ingame_selected_text_colour.g, ui_ingame_selected_text_colour.b, ui_ingame_selected_text_colour.a),
; 492  : 				UI_ATTR_NOTIFY_ON (NOTIFY_TYPE_BUTTON_DOWN),
; 493  : 				UI_ATTR_FUNCTION (notify_chat_button),
; 494  : 				UI_ATTR_CLEAR ( TRUE ),
; 495  : 				UI_ATTR_HIGHLIGHTABLE (TRUE),
; 496  : 				UI_ATTR_ITEM_NUMBER (CAMPAIGN_PAGE_CHAT),
; 497  : 				UI_ATTR_END
; 498  : 			);
; 499  : 
; 500  : 	button_list [menu_button_count++] = campaign_chat_button;

  007db	a1 00 00 00 00	 mov	 eax, DWORD PTR ?menu_button_count@@3HA
  007e0	8b 0d 00 00 00
	00		 mov	 ecx, DWORD PTR ?campaign_chat_button@@3PAUUI_OBJECT@@A
  007e6	89 0c 85 00 00
	00 00		 mov	 DWORD PTR ?button_list@@3PAPAUUI_OBJECT@@A[eax*4], ecx
  007ed	8b 15 00 00 00
	00		 mov	 edx, DWORD PTR ?menu_button_count@@3HA
  007f3	83 c2 01	 add	 edx, 1
  007f6	89 15 00 00 00
	00		 mov	 DWORD PTR ?menu_button_count@@3HA, edx

; 501  : 
; 502  : 	/////////////////////////////////////////////////////////////////
; 503  : 	// Options Button
; 504  : 
; 505  : 	x1 = 0.750;

  007fc	f3 0f 10 05 00
	00 00 00	 movss	 xmm0, DWORD PTR __real@3f400000
  00804	f3 0f 11 45 fc	 movss	 DWORD PTR _x1$[ebp], xmm0

; 506  : 	y1 = 0.0;

  00809	0f 57 c0	 xorps	 xmm0, xmm0
  0080c	f3 0f 11 45 f8	 movss	 DWORD PTR _y1$[ebp], xmm0

; 507  : 	x2 = 0.875;

  00811	f3 0f 10 05 00
	00 00 00	 movss	 xmm0, DWORD PTR __real@3f600000
  00819	f3 0f 11 45 f4	 movss	 DWORD PTR _x2$[ebp], xmm0

; 508  : 	y2 = 1.0;

  0081e	f3 0f 10 05 00
	00 00 00	 movss	 xmm0, DWORD PTR __real@3f800000
  00826	f3 0f 11 45 f0	 movss	 DWORD PTR _y2$[ebp], xmm0

; 509  : 
; 510  : 	create_ui_object

  0082b	6a 11		 push	 17			; 00000011H
  0082d	6a 01		 push	 1
  0082f	6a 1b		 push	 27			; 0000001bH
  00831	6a 01		 push	 1
  00833	6a 07		 push	 7
  00835	68 00 00 00 00	 push	 OFFSET ?notify_main_options_button@@YGXPAUUI_OBJECT@@PAX@Z ; notify_main_options_button
  0083a	6a 16		 push	 22			; 00000016H
  0083c	6a 02		 push	 2
  0083e	6a 2f		 push	 47			; 0000002fH
  00840	0f b6 05 03 00
	00 00		 movzx	 eax, BYTE PTR ?ui_ingame_selected_text_colour@@3UREAL_COLOUR@@A+3
  00847	50		 push	 eax
  00848	0f b6 0d 00 00
	00 00		 movzx	 ecx, BYTE PTR ?ui_ingame_selected_text_colour@@3UREAL_COLOUR@@A
  0084f	51		 push	 ecx
  00850	0f b6 15 01 00
	00 00		 movzx	 edx, BYTE PTR ?ui_ingame_selected_text_colour@@3UREAL_COLOUR@@A+1
  00857	52		 push	 edx
  00858	0f b6 05 02 00
	00 00		 movzx	 eax, BYTE PTR ?ui_ingame_selected_text_colour@@3UREAL_COLOUR@@A+2
  0085f	50		 push	 eax
  00860	6a 3d		 push	 61			; 0000003dH
  00862	0f b6 0d 03 00
	00 00		 movzx	 ecx, BYTE PTR ?ui_ingame_highlight_text_colour@@3UREAL_COLOUR@@A+3
  00869	51		 push	 ecx
  0086a	0f b6 15 00 00
	00 00		 movzx	 edx, BYTE PTR ?ui_ingame_highlight_text_colour@@3UREAL_COLOUR@@A
  00871	52		 push	 edx
  00872	0f b6 05 01 00
	00 00		 movzx	 eax, BYTE PTR ?ui_ingame_highlight_text_colour@@3UREAL_COLOUR@@A+1
  00879	50		 push	 eax
  0087a	0f b6 0d 02 00
	00 00		 movzx	 ecx, BYTE PTR ?ui_ingame_highlight_text_colour@@3UREAL_COLOUR@@A+2
  00881	51		 push	 ecx
  00882	6a 21		 push	 33			; 00000021H
  00884	0f b6 15 03 00
	00 00		 movzx	 edx, BYTE PTR ?ui_ingame_live_text_colour@@3UREAL_COLOUR@@A+3
  0088b	52		 push	 edx
  0088c	0f b6 05 00 00
	00 00		 movzx	 eax, BYTE PTR ?ui_ingame_live_text_colour@@3UREAL_COLOUR@@A
  00893	50		 push	 eax
  00894	0f b6 0d 01 00
	00 00		 movzx	 ecx, BYTE PTR ?ui_ingame_live_text_colour@@3UREAL_COLOUR@@A+1
  0089b	51		 push	 ecx
  0089c	0f b6 15 02 00
	00 00		 movzx	 edx, BYTE PTR ?ui_ingame_live_text_colour@@3UREAL_COLOUR@@A+2
  008a3	52		 push	 edx
  008a4	6a 13		 push	 19			; 00000013H
  008a6	6a 03		 push	 3
  008a8	6a 12		 push	 18			; 00000012H
  008aa	68 00 00 00 00	 push	 OFFSET ??_C@_07KHIHFBFN@Options@
  008af	e8 00 00 00 00	 call	 ?get_trans@@YGPBDPBD@Z	; get_trans
  008b4	50		 push	 eax
  008b5	6a 4a		 push	 74			; 0000004aH
  008b7	f3 0f 10 45 f0	 movss	 xmm0, DWORD PTR _y2$[ebp]
  008bc	f3 0f 5c 45 f8	 subss	 xmm0, DWORD PTR _y1$[ebp]
  008c1	f3 0f 5a c0	 cvtss2sd xmm0, xmm0
  008c5	83 ec 08	 sub	 esp, 8
  008c8	f2 0f 11 04 24	 movsd	 QWORD PTR [esp], xmm0
  008cd	f3 0f 10 45 f4	 movss	 xmm0, DWORD PTR _x2$[ebp]
  008d2	f3 0f 5c 45 fc	 subss	 xmm0, DWORD PTR _x1$[ebp]
  008d7	f3 0f 5a c0	 cvtss2sd xmm0, xmm0
  008db	83 ec 08	 sub	 esp, 8
  008de	f2 0f 11 04 24	 movsd	 QWORD PTR [esp], xmm0
  008e3	6a 59		 push	 89			; 00000059H
  008e5	f3 0f 5a 45 f8	 cvtss2sd xmm0, DWORD PTR _y1$[ebp]
  008ea	83 ec 08	 sub	 esp, 8
  008ed	f2 0f 11 04 24	 movsd	 QWORD PTR [esp], xmm0
  008f2	f3 0f 5a 45 fc	 cvtss2sd xmm0, DWORD PTR _x1$[ebp]
  008f7	83 ec 08	 sub	 esp, 8
  008fa	f2 0f 11 04 24	 movsd	 QWORD PTR [esp], xmm0
  008ff	6a 58		 push	 88			; 00000058H
  00901	a1 00 00 00 00	 mov	 eax, DWORD PTR ?top_menu_area@@3PAUUI_OBJECT@@A
  00906	50		 push	 eax
  00907	6a 32		 push	 50			; 00000032H
  00909	6a 02		 push	 2
  0090b	e8 00 00 00 00	 call	 ?create_ui_object@@YAPAUUI_OBJECT@@HZZ ; create_ui_object
  00910	81 c4 a4 00 00
	00		 add	 esp, 164		; 000000a4H

; 511  : 			(
; 512  : 				UI_TYPE_BUTTON,
; 513  : 				UI_ATTR_PARENT (top_menu_area),
; 514  : 				UI_ATTR_VIRTUAL_POSITION (x1, y1),
; 515  : 				UI_ATTR_VIRTUAL_SIZE (x2 - x1, y2 - y1),
; 516  : 				UI_ATTR_TEXT (get_trans ("Options")),
; 517  : 				UI_ATTR_FONT_TYPE (CAMPAIGN_MENU_ITEM_FONT),
; 518  : 				UI_ATTR_FONT_COLOUR (ui_ingame_live_text_colour.r, ui_ingame_live_text_colour.g, ui_ingame_live_text_colour.b, ui_ingame_live_text_colour.a),
; 519  : 				UI_ATTR_HIGHLIGHTED_FONT_COLOUR (ui_ingame_highlight_text_colour.r, ui_ingame_highlight_text_colour.g, ui_ingame_highlight_text_colour.b, ui_ingame_highlight_text_colour.a),
; 520  : 				UI_ATTR_SELECTED_FONT_COLOUR (ui_ingame_selected_text_colour.r, ui_ingame_selected_text_colour.g, ui_ingame_selected_text_colour.b, ui_ingame_selected_text_colour.a),
; 521  : 				UI_ATTR_NOTIFY_ON (NOTIFY_TYPE_BUTTON_DOWN),
; 522  : 				UI_ATTR_FUNCTION (notify_main_options_button),
; 523  : 				UI_ATTR_CLEAR ( TRUE ),
; 524  : 				UI_ATTR_HIGHLIGHTABLE (TRUE),
; 525  : 				UI_ATTR_END
; 526  : 			);
; 527  : 
; 528  : 	/////////////////////////////////////////////////////////////////
; 529  : 	// Save Button
; 530  : 
; 531  : 	x1 = 0.875;

  00916	f3 0f 10 05 00
	00 00 00	 movss	 xmm0, DWORD PTR __real@3f600000
  0091e	f3 0f 11 45 fc	 movss	 DWORD PTR _x1$[ebp], xmm0

; 532  : 	y1 = 0.0;

  00923	0f 57 c0	 xorps	 xmm0, xmm0
  00926	f3 0f 11 45 f8	 movss	 DWORD PTR _y1$[ebp], xmm0

; 533  : 	x2 = 1.0;

  0092b	f3 0f 10 05 00
	00 00 00	 movss	 xmm0, DWORD PTR __real@3f800000
  00933	f3 0f 11 45 f4	 movss	 DWORD PTR _x2$[ebp], xmm0

; 534  : 	y2 = 1.0;

  00938	f3 0f 10 05 00
	00 00 00	 movss	 xmm0, DWORD PTR __real@3f800000
  00940	f3 0f 11 45 f0	 movss	 DWORD PTR _y2$[ebp], xmm0

; 535  : 
; 536  : 	campaign_save_button = create_ui_object

  00945	6a 11		 push	 17			; 00000011H
  00947	6a 08		 push	 8
  00949	6a 29		 push	 41			; 00000029H
  0094b	6a 01		 push	 1
  0094d	6a 1b		 push	 27			; 0000001bH
  0094f	6a 01		 push	 1
  00951	6a 07		 push	 7
  00953	68 00 00 00 00	 push	 OFFSET ?notify_save_button@@YGXPAUUI_OBJECT@@PAX@Z ; notify_save_button
  00958	6a 16		 push	 22			; 00000016H
  0095a	6a 02		 push	 2
  0095c	6a 2f		 push	 47			; 0000002fH
  0095e	0f b6 05 03 00
	00 00		 movzx	 eax, BYTE PTR ?ui_ingame_selected_text_colour@@3UREAL_COLOUR@@A+3
  00965	50		 push	 eax
  00966	0f b6 0d 00 00
	00 00		 movzx	 ecx, BYTE PTR ?ui_ingame_selected_text_colour@@3UREAL_COLOUR@@A
  0096d	51		 push	 ecx
  0096e	0f b6 15 01 00
	00 00		 movzx	 edx, BYTE PTR ?ui_ingame_selected_text_colour@@3UREAL_COLOUR@@A+1
  00975	52		 push	 edx
  00976	0f b6 05 02 00
	00 00		 movzx	 eax, BYTE PTR ?ui_ingame_selected_text_colour@@3UREAL_COLOUR@@A+2
  0097d	50		 push	 eax
  0097e	6a 3d		 push	 61			; 0000003dH
  00980	0f b6 0d 03 00
	00 00		 movzx	 ecx, BYTE PTR ?ui_ingame_highlight_text_colour@@3UREAL_COLOUR@@A+3
  00987	51		 push	 ecx
  00988	0f b6 15 00 00
	00 00		 movzx	 edx, BYTE PTR ?ui_ingame_highlight_text_colour@@3UREAL_COLOUR@@A
  0098f	52		 push	 edx
  00990	0f b6 05 01 00
	00 00		 movzx	 eax, BYTE PTR ?ui_ingame_highlight_text_colour@@3UREAL_COLOUR@@A+1
  00997	50		 push	 eax
  00998	0f b6 0d 02 00
	00 00		 movzx	 ecx, BYTE PTR ?ui_ingame_highlight_text_colour@@3UREAL_COLOUR@@A+2
  0099f	51		 push	 ecx
  009a0	6a 21		 push	 33			; 00000021H
  009a2	0f b6 15 03 00
	00 00		 movzx	 edx, BYTE PTR ?ui_ingame_live_text_colour@@3UREAL_COLOUR@@A+3
  009a9	52		 push	 edx
  009aa	0f b6 05 00 00
	00 00		 movzx	 eax, BYTE PTR ?ui_ingame_live_text_colour@@3UREAL_COLOUR@@A
  009b1	50		 push	 eax
  009b2	0f b6 0d 01 00
	00 00		 movzx	 ecx, BYTE PTR ?ui_ingame_live_text_colour@@3UREAL_COLOUR@@A+1
  009b9	51		 push	 ecx
  009ba	0f b6 15 02 00
	00 00		 movzx	 edx, BYTE PTR ?ui_ingame_live_text_colour@@3UREAL_COLOUR@@A+2
  009c1	52		 push	 edx
  009c2	6a 13		 push	 19			; 00000013H
  009c4	6a 03		 push	 3
  009c6	6a 12		 push	 18			; 00000012H
  009c8	68 00 00 00 00	 push	 OFFSET ??_C@_04INACKGJP@Save@
  009cd	e8 00 00 00 00	 call	 ?get_trans@@YGPBDPBD@Z	; get_trans
  009d2	50		 push	 eax
  009d3	6a 4a		 push	 74			; 0000004aH
  009d5	f3 0f 10 45 f0	 movss	 xmm0, DWORD PTR _y2$[ebp]
  009da	f3 0f 5c 45 f8	 subss	 xmm0, DWORD PTR _y1$[ebp]
  009df	f3 0f 5a c0	 cvtss2sd xmm0, xmm0
  009e3	83 ec 08	 sub	 esp, 8
  009e6	f2 0f 11 04 24	 movsd	 QWORD PTR [esp], xmm0
  009eb	f3 0f 10 45 f4	 movss	 xmm0, DWORD PTR _x2$[ebp]
  009f0	f3 0f 5c 45 fc	 subss	 xmm0, DWORD PTR _x1$[ebp]
  009f5	f3 0f 5a c0	 cvtss2sd xmm0, xmm0
  009f9	83 ec 08	 sub	 esp, 8
  009fc	f2 0f 11 04 24	 movsd	 QWORD PTR [esp], xmm0
  00a01	6a 59		 push	 89			; 00000059H
  00a03	f3 0f 5a 45 f8	 cvtss2sd xmm0, DWORD PTR _y1$[ebp]
  00a08	83 ec 08	 sub	 esp, 8
  00a0b	f2 0f 11 04 24	 movsd	 QWORD PTR [esp], xmm0
  00a10	f3 0f 5a 45 fc	 cvtss2sd xmm0, DWORD PTR _x1$[ebp]
  00a15	83 ec 08	 sub	 esp, 8
  00a18	f2 0f 11 04 24	 movsd	 QWORD PTR [esp], xmm0
  00a1d	6a 58		 push	 88			; 00000058H
  00a1f	a1 00 00 00 00	 mov	 eax, DWORD PTR ?top_menu_area@@3PAUUI_OBJECT@@A
  00a24	50		 push	 eax
  00a25	6a 32		 push	 50			; 00000032H
  00a27	6a 03		 push	 3
  00a29	e8 00 00 00 00	 call	 ?create_ui_object@@YAPAUUI_OBJECT@@HZZ ; create_ui_object
  00a2e	81 c4 ac 00 00
	00		 add	 esp, 172		; 000000acH
  00a34	a3 00 00 00 00	 mov	 DWORD PTR ?campaign_save_button@@3PAUUI_OBJECT@@A, eax

; 537  : 			(
; 538  : 				UI_TYPE_RADIO,
; 539  : 				UI_ATTR_PARENT (top_menu_area),
; 540  : 				UI_ATTR_VIRTUAL_POSITION (x1, y1),
; 541  : 				UI_ATTR_VIRTUAL_SIZE (x2 - x1, y2 - y1),
; 542  : 				UI_ATTR_TEXT (get_trans ("Save")),
; 543  : 				UI_ATTR_FONT_TYPE (CAMPAIGN_MENU_ITEM_FONT),
; 544  : 				UI_ATTR_FONT_COLOUR (ui_ingame_live_text_colour.r, ui_ingame_live_text_colour.g, ui_ingame_live_text_colour.b, ui_ingame_live_text_colour.a),
; 545  : 				UI_ATTR_HIGHLIGHTED_FONT_COLOUR (ui_ingame_highlight_text_colour.r, ui_ingame_highlight_text_colour.g, ui_ingame_highlight_text_colour.b, ui_ingame_highlight_text_colour.a),
; 546  : 				UI_ATTR_SELECTED_FONT_COLOUR (ui_ingame_selected_text_colour.r, ui_ingame_selected_text_colour.g, ui_ingame_selected_text_colour.b, ui_ingame_selected_text_colour.a),
; 547  : 				UI_ATTR_NOTIFY_ON (NOTIFY_TYPE_BUTTON_DOWN),
; 548  : 				UI_ATTR_FUNCTION (notify_save_button),
; 549  : 				UI_ATTR_CLEAR ( TRUE ),
; 550  : 				UI_ATTR_HIGHLIGHTABLE (TRUE),
; 551  : 				UI_ATTR_ITEM_NUMBER (CAMPAIGN_PAGE_SAVE),
; 552  : 				UI_ATTR_END
; 553  : 			);
; 554  : 
; 555  : 	button_list [menu_button_count++] = campaign_save_button; 

  00a39	a1 00 00 00 00	 mov	 eax, DWORD PTR ?menu_button_count@@3HA
  00a3e	8b 0d 00 00 00
	00		 mov	 ecx, DWORD PTR ?campaign_save_button@@3PAUUI_OBJECT@@A
  00a44	89 0c 85 00 00
	00 00		 mov	 DWORD PTR ?button_list@@3PAPAUUI_OBJECT@@A[eax*4], ecx
  00a4b	8b 15 00 00 00
	00		 mov	 edx, DWORD PTR ?menu_button_count@@3HA
  00a51	83 c2 01	 add	 edx, 1
  00a54	89 15 00 00 00
	00		 mov	 DWORD PTR ?menu_button_count@@3HA, edx

; 556  : 
; 557  : 	/////////////////////////////////////////////////////////////////
; 558  : 
; 559  : 	ASSERT (menu_button_count < MAX_MENU_BUTTONS);

  00a5a	83 3d 00 00 00
	00 10		 cmp	 DWORD PTR ?menu_button_count@@3HA, 16 ; 00000010H
  00a61	7c 1a		 jl	 SHORT $LN2@define_cam
  00a63	a1 00 00 00 00	 mov	 eax, DWORD PTR ?__LINE__Var@?0??define_campaign_screen_menu_objects@@YGXXZ@4JA
  00a68	05 fa 00 00 00	 add	 eax, 250		; 000000faH
  00a6d	50		 push	 eax
  00a6e	68 00 00 00 00	 push	 OFFSET ??_C@_0EO@CONPFOBN@c?3?2users?2nhv90?2projects?2eech?2ap@
  00a73	68 00 00 00 00	 push	 OFFSET ??_C@_0CF@FIIMNOGI@menu_button_count?5?$DM?5MAX_MENU_BU@
  00a78	e8 00 00 00 00	 call	 ?process_assert@@YGXPBD0H@Z ; process_assert
$LN2@define_cam:

; 560  : }

  00a7d	5f		 pop	 edi
  00a7e	5e		 pop	 esi
  00a7f	5b		 pop	 ebx
  00a80	8b e5		 mov	 esp, ebp
  00a82	5d		 pop	 ebp
  00a83	c3		 ret	 0
?define_campaign_screen_menu_objects@@YGXXZ ENDP	; define_campaign_screen_menu_objects
_TEXT	ENDS
; Function compile flags: /Odtp /ZI
; File c:\users\nhv90\projects\eech\aphavoc\source\ui_menu\ingame\campaign\ca_menu.c
;	COMDAT ?initialise_campaign_screen_menu_objects@@YGXXZ
_TEXT	SEGMENT
?initialise_campaign_screen_menu_objects@@YGXXZ PROC	; initialise_campaign_screen_menu_objects, COMDAT

; 97   : {

  00000	55		 push	 ebp
  00001	8b ec		 mov	 ebp, esp
  00003	83 ec 40	 sub	 esp, 64			; 00000040H
  00006	53		 push	 ebx
  00007	56		 push	 esi
  00008	57		 push	 edi

; 98   : }

  00009	5f		 pop	 edi
  0000a	5e		 pop	 esi
  0000b	5b		 pop	 ebx
  0000c	8b e5		 mov	 esp, ebp
  0000e	5d		 pop	 ebp
  0000f	c3		 ret	 0
?initialise_campaign_screen_menu_objects@@YGXXZ ENDP	; initialise_campaign_screen_menu_objects
_TEXT	ENDS
END
