; Listing generated by Microsoft (R) Optimizing Compiler Version 19.16.27045.0 

	TITLE	C:\Users\nhv90\Projects\eech\aphavoc\source\ui_menu\ingame\campaign\ca_stat.c
	.686P
	.XMM
	include listing.inc
	.model	flat

INCLUDELIB MSVCRTD
INCLUDELIB OLDNAMES

PUBLIC	___local_stdio_printf_options
PUBLIC	__vsnprintf_l
PUBLIC	__vsprintf_l
PUBLIC	_sprintf
PUBLIC	?show_stats_page@@YGXXZ				; show_stats_page
PUBLIC	?initialise_campaign_screen_stats_page_objects@@YGXXZ ; initialise_campaign_screen_stats_page_objects
PUBLIC	?define_campaign_screen_stats_page_objects@@YGXXZ ; define_campaign_screen_stats_page_objects
PUBLIC	?overload_stats_page_message_responses@@YGXXZ	; overload_stats_page_message_responses
PUBLIC	?_OptionsStorage@?1??__local_stdio_printf_options@@9@4_KA ; `__local_stdio_printf_options'::`2'::_OptionsStorage
PUBLIC	??_C@_02DKCKIIND@?$CFs@				; `string'
PUBLIC	?__LINE__Var@?0??show_stats_objectives_page@@YGXXZ@4JA ; `show_stats_objectives_page'::`1'::__LINE__Var
PUBLIC	??_C@_0EO@OLFIJIAE@c?3?2users?2nhv90?2projects?2eech?2ap@ ; `string'
PUBLIC	??_C@_02LFNMGJAP@en@				; `string'
PUBLIC	??_C@_0DJ@PNBAHEDI@get_local_entity_type?5?$CIobjectiv@ ; `string'
PUBLIC	??_C@_0L@GAHNLADL@Incomplete@			; `string'
PUBLIC	??_C@_08NCJIEHD@Complete@			; `string'
PUBLIC	?__LINE__Var@?0??draw_stats_page_colour_bar@@YGXPAUUI_OBJECT@@PAUTEXTURE_GRAPHIC@@MMMMM@Z@4JA ; `draw_stats_page_colour_bar'::`1'::__LINE__Var
PUBLIC	??_C@_03GJLPFLNF@obj@				; `string'
PUBLIC	??_C@_07PGDKGDCB@graphic@			; `string'
PUBLIC	??_C@_0BO@KHBEEGFH@active_screen?5?$DN?$DN?5video_screen@ ; `string'
PUBLIC	?__LINE__Var@?0??draw_stats_page_solid_bar@@YGXPAUUI_OBJECT@@PAUTEXTURE_GRAPHIC@@MMMMM@Z@4JA ; `draw_stats_page_solid_bar'::`1'::__LINE__Var
PUBLIC	?__LINE__Var@?0??draw_stats_page_unit_balance_of_power@@YGXPAUUI_OBJECT@@HW4ENTITY_SIDES@@HH@Z@4JA ; `draw_stats_page_unit_balance_of_power'::`1'::__LINE__Var
PUBLIC	??_C@_0DC@HLLNLKND@CA_STAT?3?5Invalid?5side?5?$CFd?5for?5ba@ ; `string'
PUBLIC	??_C@_0L@MKDLGBOI@index?5?$DO?$DN?50@		; `string'
PUBLIC	??_C@_06KLKJBGEJ@?$CF?40f?$CF?$CF@		; `string'
PUBLIC	??_C@_00CNPNBAHC@@				; `string'
PUBLIC	?__LINE__Var@?0??draw_stats_page_sector_side_balance_of_power@@YGXPAUUI_OBJECT@@W4ENTITY_SIDES@@HH@Z@4JA ; `draw_stats_page_sector_side_balance_of_power'::`1'::__LINE__Var
PUBLIC	?__LINE__Var@?0??update_stats_page_balance_of_power_objects@@YGXPAUUI_OBJECT@@PAX@Z@4JA ; `update_stats_page_balance_of_power_objects'::`1'::__LINE__Var
PUBLIC	??_C@_0L@EJNDJNGD@this_force@			; `string'
PUBLIC	??_C@_0M@JMPLKLMD@enemy_force@			; `string'
PUBLIC	?__LINE__Var@?0??notify_page_objective_highlight_function@@YGXPAUUI_OBJECT@@PAX@Z@4JA ; `notify_page_objective_highlight_function'::`1'::__LINE__Var
PUBLIC	??_C@_0EA@CBFHEJJH@CA_STAT?3?5WARNING?3?5trying?5to?5sho@ ; `string'
PUBLIC	?__LINE__Var@?0??notify_page_objective_select_function@@YGXPAUUI_OBJECT@@PAX@Z@4JA ; `notify_page_objective_select_function'::`1'::__LINE__Var
PUBLIC	??_C@_0CF@CLPKPOMP@graphics?2ui?2cohokum?2map?2blockpr@ ; `string'
PUBLIC	??_C@_0CD@CLFPAJHL@graphics?2ui?2cohokum?2map?2redbar?4@ ; `string'
PUBLIC	??_C@_0CE@DCDPCPPF@graphics?2ui?2cohokum?2map?2bluebar@ ; `string'
PUBLIC	??_C@_0CF@CHIDFBHG@graphics?2ui?2cohokum?2map?2baltitl@ ; `string'
PUBLIC	??_C@_0BB@BDKPIIKH@Balance?5of?5Power@		; `string'
PUBLIC	??_C@_04BMOOHAJK@?5?$CFs?3@			; `string'
PUBLIC	??_C@_0CD@GGPACJN@graphics?2ui?2cohokum?2map?2bpower?4@ ; `string'
PUBLIC	??_C@_0L@OPAJACLP@Objectives@			; `string'
PUBLIC	??_C@_03DKEJHHJP@?$CFs?3@			; `string'
PUBLIC	__real@00000000
PUBLIC	__real@3d1ba5e3
PUBLIC	__real@3d23d70a
PUBLIC	__real@3d343958
PUBLIC	__real@3d449ba6
PUBLIC	__real@3d71a9fc
PUBLIC	__real@3d7df3b6
PUBLIC	__real@3df28aae
PUBLIC	__real@3dfbe76d
PUBLIC	__real@3e0b4396
PUBLIC	__real@3e178d50
PUBLIC	__real@3e19999a
PUBLIC	__real@3e23d70a
PUBLIC	__real@3e2f1aa0
PUBLIC	__real@3e3020c5
PUBLIC	__real@3e6147ae
PUBLIC	__real@3e90624e
PUBLIC	__real@3e9cac08
PUBLIC	__real@3eab020c
PUBLIC	__real@3eae147b
PUBLIC	__real@3ebbe76d
PUBLIC	__real@3ee24dd3
PUBLIC	__real@3ee353f8
PUBLIC	__real@3ee5e354
PUBLIC	__real@3ee8f5c3
PUBLIC	__real@3efae148
PUBLIC	__real@3f000000
PUBLIC	__real@3f1126e9
PUBLIC	__real@3f1cac08
PUBLIC	__real@3f1d2f1b
PUBLIC	__real@3f224dd3
PUBLIC	__real@3f30a3d7
PUBLIC	__real@3f35c28f
PUBLIC	__real@3f47ae14
PUBLIC	__real@3f666666
PUBLIC	__real@3f68f5c3
PUBLIC	__real@3f795810
PUBLIC	__real@3f7d70a4
PUBLIC	__real@3f800000
PUBLIC	__real@3fc5e353f7ced917
PUBLIC	__real@4014000000000000
PUBLIC	__real@4059000000000000
PUBLIC	__real@be4ccccd
PUBLIC	__xmm@80000000800000008000000080000000
EXTRN	__imp____stdio_common_vsprintf:PROC
EXTRN	?process_assert@@YGXPBD0H@Z:PROC		; process_assert
EXTRN	?debug_fatal@@YAXPBDZZ:PROC			; debug_fatal
EXTRN	?debug_log@@YAXPBDZZ:PROC			; debug_log
EXTRN	?create_texture_graphic@@YGPAUTEXTURE_GRAPHIC@@PBD@Z:PROC ; create_texture_graphic
EXTRN	?create_ui_object@@YAPAUUI_OBJECT@@HZZ:PROC	; create_ui_object
EXTRN	?ui_object_destroy_list_items@@YGXPAUUI_OBJECT@@@Z:PROC ; ui_object_destroy_list_items
EXTRN	?add_to_pop_up_list@@YGPAUUI_OBJECT@@PBDPAU1@1HHUREAL_COLOUR@@@Z:PROC ; add_to_pop_up_list
EXTRN	?add_to_pop_up_list_with_word_wrap@@YGPAUUI_OBJECT@@PBDPAU1@1HHUREAL_COLOUR@@@Z:PROC ; add_to_pop_up_list_with_word_wrap
EXTRN	?ui_draw_texture_graphic@@YGXMMMMPAUTEXTURE_GRAPHIC@@UREAL_COLOUR@@@Z:PROC ; ui_draw_texture_graphic
EXTRN	?get_local_force_entity@@YGPAUENTITY@@W4ENTITY_SIDES@@@Z:PROC ; get_local_force_entity
EXTRN	?get_local_force_entity_group_count@@YGHPAUENTITY@@H@Z:PROC ; get_local_force_entity_group_count
EXTRN	?get_trans@@YGPBDPBD@Z:PROC			; get_trans
EXTRN	?set_ui_list_spacing_proportional_to_font@@YGXPAUUI_OBJECT@@M@Z:PROC ; set_ui_list_spacing_proportional_to_font
EXTRN	?force_map_layer_control_object@@YGXW4MAP_LAYER_CONTROL_TYPES@@H@Z:PROC ; force_map_layer_control_object
EXTRN	?set_ingame_ui_object_mouse_over_properties@@YGXPAUUI_OBJECT@@@Z:PROC ; set_ingame_ui_object_mouse_over_properties
EXTRN	?set_common_slider_graphics@@YGXPAUUI_OBJECT@@@Z:PROC ; set_common_slider_graphics
EXTRN	?display_campaign_page@@YGXW4CAMPAIGN_PAGES@@HH@Z:PROC ; display_campaign_page
EXTRN	?get_campaign_history_valid@@YGHXZ:PROC		; get_campaign_history_valid
EXTRN	?define_campaign_page_back_button@@YGXPAUUI_OBJECT@@PAPAU1@@Z:PROC ; define_campaign_page_back_button
EXTRN	?show_map_page@@YGXXZ:PROC			; show_map_page
EXTRN	?set_campaign_map_origin@@YGXPAUENTITY@@@Z:PROC	; set_campaign_map_origin
EXTRN	?get_objective_briefing_text@@YGHPAUENTITY@@HPAD@Z:PROC ; get_objective_briefing_text
EXTRN	?video_screen@@3PAUSCREEN@@A:DWORD		; video_screen
EXTRN	?active_screen@@3PAUSCREEN@@A:DWORD		; active_screen
EXTRN	?fn_get_ui_object_x@@3PAP6GMPAUUI_OBJECT@@@ZA:BYTE ; fn_get_ui_object_x
EXTRN	?fn_get_ui_object_y@@3PAP6GMPAUUI_OBJECT@@@ZA:BYTE ; fn_get_ui_object_y
EXTRN	?fn_get_ui_object_x_size@@3PAP6GMPAUUI_OBJECT@@@ZA:BYTE ; fn_get_ui_object_x_size
EXTRN	?fn_get_ui_object_y_size@@3PAP6GMPAUUI_OBJECT@@@ZA:BYTE ; fn_get_ui_object_y_size
EXTRN	?fn_set_ui_object_drawable@@3PAP6GXPAUUI_OBJECT@@H@ZA:BYTE ; fn_set_ui_object_drawable
EXTRN	?fn_get_ui_object_drawable@@3PAP6GHPAUUI_OBJECT@@@ZA:BYTE ; fn_get_ui_object_drawable
EXTRN	?fn_get_ui_object_item_number@@3PAP6GHPAUUI_OBJECT@@@ZA:BYTE ; fn_get_ui_object_item_number
EXTRN	?fn_set_ui_object_highlighted_function@@3PAP6GXPAUUI_OBJECT@@P6GX0PAX@Z@ZA:BYTE ; fn_set_ui_object_highlighted_function
EXTRN	?fn_set_ui_object_text@@3PAP6GXPAUUI_OBJECT@@PBD@ZA:BYTE ; fn_set_ui_object_text
EXTRN	?fn_set_ui_object_text_justify@@3PAP6GXPAUUI_OBJECT@@W4TEXT_JUSTIFY_TYPES@@@ZA:BYTE ; fn_set_ui_object_text_justify
EXTRN	?ui_ingame_dead_text_colour@@3UREAL_COLOUR@@A:DWORD ; ui_ingame_dead_text_colour
EXTRN	?ui_ingame_highlight_text_colour@@3UREAL_COLOUR@@A:DWORD ; ui_ingame_highlight_text_colour
EXTRN	?ui_ingame_selected_text_colour@@3UREAL_COLOUR@@A:DWORD ; ui_ingame_selected_text_colour
EXTRN	?null_entity_pointer_message@@3PBDB:DWORD	; null_entity_pointer_message
EXTRN	?entity_type_database@@3PAUENTITY_TYPE_DATA@@A:BYTE ; entity_type_database
EXTRN	?global_options@@3UGLOBAL_OPTIONS_DATA@@A:BYTE	; global_options
EXTRN	?overload_invalid_list_type_message@@3PBDB:DWORD ; overload_invalid_list_type_message
EXTRN	?fn_get_local_entity_first_child@@3PAY0CN@P6GPAUENTITY@@PAU1@W4LIST_TYPES@@@ZA:BYTE ; fn_get_local_entity_first_child
EXTRN	?fn_get_local_entity_child_succ@@3PAY0CN@P6GPAUENTITY@@PAU1@W4LIST_TYPES@@@ZA:BYTE ; fn_get_local_entity_child_succ
EXTRN	?overload_invalid_int_type_message@@3PBDB:DWORD	; overload_invalid_int_type_message
EXTRN	?fn_get_local_entity_int_value@@3PAY0BBH@P6GHPAUENTITY@@W4INT_TYPES@@@ZA:BYTE ; fn_get_local_entity_int_value
EXTRN	?overload_invalid_string_type_message@@3PBDB:DWORD ; overload_invalid_string_type_message
EXTRN	?fn_get_local_entity_string@@3PAY0N@P6GPBDPAUENTITY@@W4STRING_TYPES@@@ZA:BYTE ; fn_get_local_entity_string
EXTRN	?entities@@3PAUENTITY@@A:DWORD			; entities
EXTRN	?keysite_database@@3PAUKEYSITE_DATA@@A:BYTE	; keysite_database
EXTRN	?pilot_entity@@3PAUENTITY@@A:DWORD		; pilot_entity
EXTRN	?common_divider_graphic@@3PAUTEXTURE_GRAPHIC@@A:DWORD ; common_divider_graphic
EXTRN	?campaign_screen@@3PAUUI_OBJECT@@A:DWORD	; campaign_screen
EXTRN	?campaign_page@@3PAPAUUI_OBJECT@@A:BYTE		; campaign_page
EXTRN	?campaign_screen_message_responses@@3PAY0O@P6GHW4CAMPAIGN_SCREEN_MESSAGES@@PAUENTITY@@@ZA:BYTE ; campaign_screen_message_responses
EXTRN	__fltused:DWORD
;	COMDAT ?_OptionsStorage@?1??__local_stdio_printf_options@@9@4_KA
_BSS	SEGMENT
?_OptionsStorage@?1??__local_stdio_printf_options@@9@4_KA DQ 01H DUP (?) ; `__local_stdio_printf_options'::`2'::_OptionsStorage
_BSS	ENDS
_BSS	SEGMENT
?page_balance_area@@3PAUUI_OBJECT@@A DD 01H DUP (?)	; page_balance_area
?page_balance_overlay@@3PAUUI_OBJECT@@A DD 01H DUP (?)	; page_balance_overlay
?page_balance_sector_side_text_object@@3PAPAUUI_OBJECT@@A DD 02H DUP (?) ; page_balance_sector_side_text_object
?page_balance_text_object@@3PAY06PAUUI_OBJECT@@A DD 0eH DUP (?) ; page_balance_text_object
?page_objective_area@@3PAUUI_OBJECT@@A DD 01H DUP (?)	; page_objective_area
?page_objective_name_list@@3PAUUI_OBJECT@@A DD 01H DUP (?) ; page_objective_name_list
?page_objective_status_list@@3PAUUI_OBJECT@@A DD 01H DUP (?) ; page_objective_status_list
?page_objective_description_area@@3PAUUI_OBJECT@@A DD 01H DUP (?) ; page_objective_description_area
?page_objective_description_list@@3PAUUI_OBJECT@@A DD 01H DUP (?) ; page_objective_description_list
?page_back_button@@3PAUUI_OBJECT@@A DD 01H DUP (?)	; page_back_button
?solid_bar_graphic@@3PAUTEXTURE_GRAPHIC@@A DD 01H DUP (?) ; solid_bar_graphic
?red_bar_graphic@@3PAUTEXTURE_GRAPHIC@@A DD 01H DUP (?)	; red_bar_graphic
?blue_bar_graphic@@3PAUTEXTURE_GRAPHIC@@A DD 01H DUP (?) ; blue_bar_graphic
?text@?1??notify_page_objective_highlight_function@@YGXPAUUI_OBJECT@@PAX@Z@4PADA DB 0800H DUP (?) ; `notify_page_objective_highlight_function'::`2'::text
_BSS	ENDS
;	COMDAT __xmm@80000000800000008000000080000000
CONST	SEGMENT
__xmm@80000000800000008000000080000000 DB 00H, 00H, 00H, 080H, 00H, 00H, 00H
	DB	080H, 00H, 00H, 00H, 080H, 00H, 00H, 00H, 080H
CONST	ENDS
;	COMDAT __real@be4ccccd
CONST	SEGMENT
__real@be4ccccd DD 0be4ccccdr			; -0.2
CONST	ENDS
;	COMDAT __real@4059000000000000
CONST	SEGMENT
__real@4059000000000000 DQ 04059000000000000r	; 100
CONST	ENDS
;	COMDAT __real@4014000000000000
CONST	SEGMENT
__real@4014000000000000 DQ 04014000000000000r	; 5
CONST	ENDS
;	COMDAT __real@3fc5e353f7ced917
CONST	SEGMENT
__real@3fc5e353f7ced917 DQ 03fc5e353f7ced917r	; 0.171
CONST	ENDS
;	COMDAT __real@3f800000
CONST	SEGMENT
__real@3f800000 DD 03f800000r			; 1
CONST	ENDS
;	COMDAT __real@3f7d70a4
CONST	SEGMENT
__real@3f7d70a4 DD 03f7d70a4r			; 0.99
CONST	ENDS
;	COMDAT __real@3f795810
CONST	SEGMENT
__real@3f795810 DD 03f795810r			; 0.974
CONST	ENDS
;	COMDAT __real@3f68f5c3
CONST	SEGMENT
__real@3f68f5c3 DD 03f68f5c3r			; 0.91
CONST	ENDS
;	COMDAT __real@3f666666
CONST	SEGMENT
__real@3f666666 DD 03f666666r			; 0.9
CONST	ENDS
;	COMDAT __real@3f47ae14
CONST	SEGMENT
__real@3f47ae14 DD 03f47ae14r			; 0.78
CONST	ENDS
;	COMDAT __real@3f35c28f
CONST	SEGMENT
__real@3f35c28f DD 03f35c28fr			; 0.71
CONST	ENDS
;	COMDAT __real@3f30a3d7
CONST	SEGMENT
__real@3f30a3d7 DD 03f30a3d7r			; 0.69
CONST	ENDS
;	COMDAT __real@3f224dd3
CONST	SEGMENT
__real@3f224dd3 DD 03f224dd3r			; 0.634
CONST	ENDS
;	COMDAT __real@3f1d2f1b
CONST	SEGMENT
__real@3f1d2f1b DD 03f1d2f1br			; 0.614
CONST	ENDS
;	COMDAT __real@3f1cac08
CONST	SEGMENT
__real@3f1cac08 DD 03f1cac08r			; 0.612
CONST	ENDS
;	COMDAT __real@3f1126e9
CONST	SEGMENT
__real@3f1126e9 DD 03f1126e9r			; 0.567
CONST	ENDS
;	COMDAT __real@3f000000
CONST	SEGMENT
__real@3f000000 DD 03f000000r			; 0.5
CONST	ENDS
;	COMDAT __real@3efae148
CONST	SEGMENT
__real@3efae148 DD 03efae148r			; 0.49
CONST	ENDS
;	COMDAT __real@3ee8f5c3
CONST	SEGMENT
__real@3ee8f5c3 DD 03ee8f5c3r			; 0.455
CONST	ENDS
;	COMDAT __real@3ee5e354
CONST	SEGMENT
__real@3ee5e354 DD 03ee5e354r			; 0.449
CONST	ENDS
;	COMDAT __real@3ee353f8
CONST	SEGMENT
__real@3ee353f8 DD 03ee353f8r			; 0.444
CONST	ENDS
;	COMDAT __real@3ee24dd3
CONST	SEGMENT
__real@3ee24dd3 DD 03ee24dd3r			; 0.442
CONST	ENDS
;	COMDAT __real@3ebbe76d
CONST	SEGMENT
__real@3ebbe76d DD 03ebbe76dr			; 0.367
CONST	ENDS
;	COMDAT __real@3eae147b
CONST	SEGMENT
__real@3eae147b DD 03eae147br			; 0.34
CONST	ENDS
;	COMDAT __real@3eab020c
CONST	SEGMENT
__real@3eab020c DD 03eab020cr			; 0.334
CONST	ENDS
;	COMDAT __real@3e9cac08
CONST	SEGMENT
__real@3e9cac08 DD 03e9cac08r			; 0.306
CONST	ENDS
;	COMDAT __real@3e90624e
CONST	SEGMENT
__real@3e90624e DD 03e90624er			; 0.282
CONST	ENDS
;	COMDAT __real@3e6147ae
CONST	SEGMENT
__real@3e6147ae DD 03e6147aer			; 0.22
CONST	ENDS
;	COMDAT __real@3e3020c5
CONST	SEGMENT
__real@3e3020c5 DD 03e3020c5r			; 0.172
CONST	ENDS
;	COMDAT __real@3e2f1aa0
CONST	SEGMENT
__real@3e2f1aa0 DD 03e2f1aa0r			; 0.171
CONST	ENDS
;	COMDAT __real@3e23d70a
CONST	SEGMENT
__real@3e23d70a DD 03e23d70ar			; 0.16
CONST	ENDS
;	COMDAT __real@3e19999a
CONST	SEGMENT
__real@3e19999a DD 03e19999ar			; 0.15
CONST	ENDS
;	COMDAT __real@3e178d50
CONST	SEGMENT
__real@3e178d50 DD 03e178d50r			; 0.148
CONST	ENDS
;	COMDAT __real@3e0b4396
CONST	SEGMENT
__real@3e0b4396 DD 03e0b4396r			; 0.136
CONST	ENDS
;	COMDAT __real@3dfbe76d
CONST	SEGMENT
__real@3dfbe76d DD 03dfbe76dr			; 0.123
CONST	ENDS
;	COMDAT __real@3df28aae
CONST	SEGMENT
__real@3df28aae DD 03df28aaer			; 0.118429
CONST	ENDS
;	COMDAT __real@3d7df3b6
CONST	SEGMENT
__real@3d7df3b6 DD 03d7df3b6r			; 0.062
CONST	ENDS
;	COMDAT __real@3d71a9fc
CONST	SEGMENT
__real@3d71a9fc DD 03d71a9fcr			; 0.059
CONST	ENDS
;	COMDAT __real@3d449ba6
CONST	SEGMENT
__real@3d449ba6 DD 03d449ba6r			; 0.048
CONST	ENDS
;	COMDAT __real@3d343958
CONST	SEGMENT
__real@3d343958 DD 03d343958r			; 0.044
CONST	ENDS
;	COMDAT __real@3d23d70a
CONST	SEGMENT
__real@3d23d70a DD 03d23d70ar			; 0.04
CONST	ENDS
;	COMDAT __real@3d1ba5e3
CONST	SEGMENT
__real@3d1ba5e3 DD 03d1ba5e3r			; 0.038
CONST	ENDS
;	COMDAT __real@00000000
CONST	SEGMENT
__real@00000000 DD 000000000r			; 0
CONST	ENDS
;	COMDAT ??_C@_03DKEJHHJP@?$CFs?3@
CONST	SEGMENT
??_C@_03DKEJHHJP@?$CFs?3@ DB '%s:', 00H			; `string'
CONST	ENDS
;	COMDAT ??_C@_0L@OPAJACLP@Objectives@
CONST	SEGMENT
??_C@_0L@OPAJACLP@Objectives@ DB 'Objectives', 00H	; `string'
CONST	ENDS
;	COMDAT ??_C@_0CD@GGPACJN@graphics?2ui?2cohokum?2map?2bpower?4@
CONST	SEGMENT
??_C@_0CD@GGPACJN@graphics?2ui?2cohokum?2map?2bpower?4@ DB 'graphics\ui\c'
	DB	'ohokum\map\bpower.psd', 00H			; `string'
CONST	ENDS
;	COMDAT ??_C@_04BMOOHAJK@?5?$CFs?3@
CONST	SEGMENT
??_C@_04BMOOHAJK@?5?$CFs?3@ DB ' %s:', 00H		; `string'
CONST	ENDS
;	COMDAT ??_C@_0BB@BDKPIIKH@Balance?5of?5Power@
CONST	SEGMENT
??_C@_0BB@BDKPIIKH@Balance?5of?5Power@ DB 'Balance of Power', 00H ; `string'
CONST	ENDS
;	COMDAT ??_C@_0CF@CHIDFBHG@graphics?2ui?2cohokum?2map?2baltitl@
CONST	SEGMENT
??_C@_0CF@CHIDFBHG@graphics?2ui?2cohokum?2map?2baltitl@ DB 'graphics\ui\c'
	DB	'ohokum\map\baltitle.psd', 00H		; `string'
CONST	ENDS
;	COMDAT ??_C@_0CE@DCDPCPPF@graphics?2ui?2cohokum?2map?2bluebar@
CONST	SEGMENT
??_C@_0CE@DCDPCPPF@graphics?2ui?2cohokum?2map?2bluebar@ DB 'graphics\ui\c'
	DB	'ohokum\map\bluebar.psd', 00H		; `string'
CONST	ENDS
;	COMDAT ??_C@_0CD@CLFPAJHL@graphics?2ui?2cohokum?2map?2redbar?4@
CONST	SEGMENT
??_C@_0CD@CLFPAJHL@graphics?2ui?2cohokum?2map?2redbar?4@ DB 'graphics\ui\'
	DB	'cohokum\map\redbar.psd', 00H		; `string'
CONST	ENDS
;	COMDAT ??_C@_0CF@CLPKPOMP@graphics?2ui?2cohokum?2map?2blockpr@
CONST	SEGMENT
??_C@_0CF@CLPKPOMP@graphics?2ui?2cohokum?2map?2blockpr@ DB 'graphics\ui\c'
	DB	'ohokum\map\blockprp.psd', 00H		; `string'
CONST	ENDS
;	COMDAT ?__LINE__Var@?0??notify_page_objective_select_function@@YGXPAUUI_OBJECT@@PAX@Z@4JA
_DATA	SEGMENT
?__LINE__Var@?0??notify_page_objective_select_function@@YGXPAUUI_OBJECT@@PAX@Z@4JA DD 030cH ; `notify_page_objective_select_function'::`1'::__LINE__Var
_DATA	ENDS
;	COMDAT ??_C@_0EA@CBFHEJJH@CA_STAT?3?5WARNING?3?5trying?5to?5sho@
CONST	SEGMENT
??_C@_0EA@CBFHEJJH@CA_STAT?3?5WARNING?3?5trying?5to?5sho@ DB 'CA_STAT: WA'
	DB	'RNING: trying to show objective briefing for %s (%d)', 00H ; `string'
CONST	ENDS
;	COMDAT ?__LINE__Var@?0??notify_page_objective_highlight_function@@YGXPAUUI_OBJECT@@PAX@Z@4JA
_DATA	SEGMENT
?__LINE__Var@?0??notify_page_objective_highlight_function@@YGXPAUUI_OBJECT@@PAX@Z@4JA DD 02dfH ; `notify_page_objective_highlight_function'::`1'::__LINE__Var
_DATA	ENDS
;	COMDAT ??_C@_0M@JMPLKLMD@enemy_force@
CONST	SEGMENT
??_C@_0M@JMPLKLMD@enemy_force@ DB 'enemy_force', 00H	; `string'
CONST	ENDS
;	COMDAT ??_C@_0L@EJNDJNGD@this_force@
CONST	SEGMENT
??_C@_0L@EJNDJNGD@this_force@ DB 'this_force', 00H	; `string'
CONST	ENDS
;	COMDAT ?__LINE__Var@?0??update_stats_page_balance_of_power_objects@@YGXPAUUI_OBJECT@@PAX@Z@4JA
_DATA	SEGMENT
?__LINE__Var@?0??update_stats_page_balance_of_power_objects@@YGXPAUUI_OBJECT@@PAX@Z@4JA DD 021fH ; `update_stats_page_balance_of_power_objects'::`1'::__LINE__Var
_DATA	ENDS
;	COMDAT ?__LINE__Var@?0??draw_stats_page_sector_side_balance_of_power@@YGXPAUUI_OBJECT@@W4ENTITY_SIDES@@HH@Z@4JA
_DATA	SEGMENT
?__LINE__Var@?0??draw_stats_page_sector_side_balance_of_power@@YGXPAUUI_OBJECT@@W4ENTITY_SIDES@@HH@Z@4JA DD 01c2H ; `draw_stats_page_sector_side_balance_of_power'::`1'::__LINE__Var
_DATA	ENDS
;	COMDAT ??_C@_00CNPNBAHC@@
CONST	SEGMENT
??_C@_00CNPNBAHC@@ DB 00H				; `string'
CONST	ENDS
;	COMDAT ??_C@_06KLKJBGEJ@?$CF?40f?$CF?$CF@
CONST	SEGMENT
??_C@_06KLKJBGEJ@?$CF?40f?$CF?$CF@ DB '%.0f%%', 00H	; `string'
CONST	ENDS
;	COMDAT ??_C@_0L@MKDLGBOI@index?5?$DO?$DN?50@
CONST	SEGMENT
??_C@_0L@MKDLGBOI@index?5?$DO?$DN?50@ DB 'index >= 0', 00H ; `string'
CONST	ENDS
;	COMDAT ??_C@_0DC@HLLNLKND@CA_STAT?3?5Invalid?5side?5?$CFd?5for?5ba@
CONST	SEGMENT
??_C@_0DC@HLLNLKND@CA_STAT?3?5Invalid?5side?5?$CFd?5for?5ba@ DB 'CA_STAT:'
	DB	' Invalid side %d for balance of power bar', 00H ; `string'
CONST	ENDS
;	COMDAT ?__LINE__Var@?0??draw_stats_page_unit_balance_of_power@@YGXPAUUI_OBJECT@@HW4ENTITY_SIDES@@HH@Z@4JA
_DATA	SEGMENT
?__LINE__Var@?0??draw_stats_page_unit_balance_of_power@@YGXPAUUI_OBJECT@@HW4ENTITY_SIDES@@HH@Z@4JA DD 0162H ; `draw_stats_page_unit_balance_of_power'::`1'::__LINE__Var
_DATA	ENDS
;	COMDAT ?__LINE__Var@?0??draw_stats_page_solid_bar@@YGXPAUUI_OBJECT@@PAUTEXTURE_GRAPHIC@@MMMMM@Z@4JA
_DATA	SEGMENT
?__LINE__Var@?0??draw_stats_page_solid_bar@@YGXPAUUI_OBJECT@@PAUTEXTURE_GRAPHIC@@MMMMM@Z@4JA DD 0135H ; `draw_stats_page_solid_bar'::`1'::__LINE__Var
_DATA	ENDS
;	COMDAT ??_C@_0BO@KHBEEGFH@active_screen?5?$DN?$DN?5video_screen@
CONST	SEGMENT
??_C@_0BO@KHBEEGFH@active_screen?5?$DN?$DN?5video_screen@ DB 'active_scre'
	DB	'en == video_screen', 00H			; `string'
CONST	ENDS
;	COMDAT ??_C@_07PGDKGDCB@graphic@
CONST	SEGMENT
??_C@_07PGDKGDCB@graphic@ DB 'graphic', 00H		; `string'
CONST	ENDS
;	COMDAT ??_C@_03GJLPFLNF@obj@
CONST	SEGMENT
??_C@_03GJLPFLNF@obj@ DB 'obj', 00H			; `string'
CONST	ENDS
;	COMDAT ?__LINE__Var@?0??draw_stats_page_colour_bar@@YGXPAUUI_OBJECT@@PAUTEXTURE_GRAPHIC@@MMMMM@Z@4JA
_DATA	SEGMENT
?__LINE__Var@?0??draw_stats_page_colour_bar@@YGXPAUUI_OBJECT@@PAUTEXTURE_GRAPHIC@@MMMMM@Z@4JA DD 0fcH ; `draw_stats_page_colour_bar'::`1'::__LINE__Var
_DATA	ENDS
;	COMDAT ??_C@_08NCJIEHD@Complete@
CONST	SEGMENT
??_C@_08NCJIEHD@Complete@ DB 'Complete', 00H		; `string'
CONST	ENDS
;	COMDAT ??_C@_0L@GAHNLADL@Incomplete@
CONST	SEGMENT
??_C@_0L@GAHNLADL@Incomplete@ DB 'Incomplete', 00H	; `string'
CONST	ENDS
;	COMDAT ??_C@_0DJ@PNBAHEDI@get_local_entity_type?5?$CIobjectiv@
CONST	SEGMENT
??_C@_0DJ@PNBAHEDI@get_local_entity_type?5?$CIobjectiv@ DB 'get_local_ent'
	DB	'ity_type (objective) == ENTITY_TYPE_KEYSITE', 00H ; `string'
CONST	ENDS
;	COMDAT ??_C@_02LFNMGJAP@en@
CONST	SEGMENT
??_C@_02LFNMGJAP@en@ DB 'en', 00H			; `string'
CONST	ENDS
;	COMDAT ??_C@_0EO@OLFIJIAE@c?3?2users?2nhv90?2projects?2eech?2ap@
CONST	SEGMENT
??_C@_0EO@OLFIJIAE@c?3?2users?2nhv90?2projects?2eech?2ap@ DB 'c:\users\nh'
	DB	'v90\projects\eech\aphavoc\source\ui_menu\ingame\campaign\ca_s'
	DB	'tat.c', 00H					; `string'
CONST	ENDS
;	COMDAT ?__LINE__Var@?0??show_stats_objectives_page@@YGXXZ@4JA
_DATA	SEGMENT
?__LINE__Var@?0??show_stats_objectives_page@@YGXXZ@4JA DD 07aH ; `show_stats_objectives_page'::`1'::__LINE__Var
_DATA	ENDS
;	COMDAT ??_C@_02DKCKIIND@?$CFs@
CONST	SEGMENT
??_C@_02DKCKIIND@?$CFs@ DB '%s', 00H			; `string'
CONST	ENDS
; Function compile flags: /Odtp /ZI
; File c:\users\nhv90\projects\eech\aphavoc\source\ui_menu\ingame\campaign\ca_stat.c
;	COMDAT ?response_to_group_remove_member@@YGHW4CAMPAIGN_SCREEN_MESSAGES@@PAUENTITY@@@Z
_TEXT	SEGMENT
_message$ = 8						; size = 4
_sender$ = 12						; size = 4
?response_to_group_remove_member@@YGHW4CAMPAIGN_SCREEN_MESSAGES@@PAUENTITY@@@Z PROC ; response_to_group_remove_member, COMDAT

; 1166 : {

  00000	55		 push	 ebp
  00001	8b ec		 mov	 ebp, esp
  00003	83 ec 40	 sub	 esp, 64			; 00000040H
  00006	53		 push	 ebx
  00007	56		 push	 esi
  00008	57		 push	 edi

; 1167 : 	if (get_ui_object_drawable (campaign_page [CAMPAIGN_PAGE_STATS]))

  00009	b8 04 00 00 00	 mov	 eax, 4
  0000e	6b c8 06	 imul	 ecx, eax, 6
  00011	8b 91 00 00 00
	00		 mov	 edx, DWORD PTR ?campaign_page@@3PAPAUUI_OBJECT@@A[ecx]
  00017	52		 push	 edx
  00018	b8 04 00 00 00	 mov	 eax, 4
  0001d	6b c8 06	 imul	 ecx, eax, 6
  00020	8b 91 00 00 00
	00		 mov	 edx, DWORD PTR ?campaign_page@@3PAPAUUI_OBJECT@@A[ecx]
  00026	8b 02		 mov	 eax, DWORD PTR [edx]
  00028	8b 0c 85 00 00
	00 00		 mov	 ecx, DWORD PTR ?fn_get_ui_object_drawable@@3PAP6GHPAUUI_OBJECT@@@ZA[eax*4]
  0002f	ff d1		 call	 ecx
  00031	85 c0		 test	 eax, eax
  00033	74 05		 je	 SHORT $LN2@response_t

; 1168 : 	{
; 1169 : 		show_stats_page ();

  00035	e8 00 00 00 00	 call	 ?show_stats_page@@YGXXZ	; show_stats_page
$LN2@response_t:

; 1170 : 	}
; 1171 : 
; 1172 : 	return TRUE;

  0003a	b8 01 00 00 00	 mov	 eax, 1

; 1173 : }

  0003f	5f		 pop	 edi
  00040	5e		 pop	 esi
  00041	5b		 pop	 ebx
  00042	8b e5		 mov	 esp, ebp
  00044	5d		 pop	 ebp
  00045	c2 08 00	 ret	 8
?response_to_group_remove_member@@YGHW4CAMPAIGN_SCREEN_MESSAGES@@PAUENTITY@@@Z ENDP ; response_to_group_remove_member
_TEXT	ENDS
; Function compile flags: /Odtp /ZI
; File c:\users\nhv90\projects\eech\aphavoc\source\ui_menu\ingame\campaign\ca_stat.c
;	COMDAT ?notify_page_objective_select_function@@YGXPAUUI_OBJECT@@PAX@Z
_TEXT	SEGMENT
tv137 = -80						; size = 4
tv129 = -76						; size = 4
tv85 = -76						; size = 4
tv77 = -76						; size = 4
_sub_type$ = -8						; size = 4
_objective$ = -4					; size = 4
_obj$ = 8						; size = 4
_arg$ = 12						; size = 4
?notify_page_objective_select_function@@YGXPAUUI_OBJECT@@PAX@Z PROC ; notify_page_objective_select_function, COMDAT

; 780  : {

  00000	55		 push	 ebp
  00001	8b ec		 mov	 ebp, esp
  00003	83 ec 50	 sub	 esp, 80			; 00000050H
  00006	53		 push	 ebx
  00007	56		 push	 esi
  00008	57		 push	 edi

; 781  : 	entity
; 782  : 		*objective;
; 783  : 
; 784  : 	entity_sub_types
; 785  : 		sub_type;
; 786  : 
; 787  : 	objective = get_local_entity_safe_ptr (get_ui_object_item_number (obj));

  00009	8b 45 08	 mov	 eax, DWORD PTR _obj$[ebp]
  0000c	50		 push	 eax
  0000d	8b 4d 08	 mov	 ecx, DWORD PTR _obj$[ebp]
  00010	8b 11		 mov	 edx, DWORD PTR [ecx]
  00012	8b 04 95 00 00
	00 00		 mov	 eax, DWORD PTR ?fn_get_ui_object_item_number@@3PAP6GHPAUUI_OBJECT@@@ZA[edx*4]
  00019	ff d0		 call	 eax
  0001b	83 f8 ff	 cmp	 eax, -1
  0001e	74 20		 je	 SHORT $LN5@notify_pag
  00020	8b 4d 08	 mov	 ecx, DWORD PTR _obj$[ebp]
  00023	51		 push	 ecx
  00024	8b 55 08	 mov	 edx, DWORD PTR _obj$[ebp]
  00027	8b 02		 mov	 eax, DWORD PTR [edx]
  00029	8b 0c 85 00 00
	00 00		 mov	 ecx, DWORD PTR ?fn_get_ui_object_item_number@@3PAP6GHPAUUI_OBJECT@@@ZA[eax*4]
  00030	ff d1		 call	 ecx
  00032	c1 e0 04	 shl	 eax, 4
  00035	03 05 00 00 00
	00		 add	 eax, DWORD PTR ?entities@@3PAUENTITY@@A ; entities
  0003b	89 45 b4	 mov	 DWORD PTR tv77[ebp], eax
  0003e	eb 07		 jmp	 SHORT $LN6@notify_pag
$LN5@notify_pag:
  00040	c7 45 b4 00 00
	00 00		 mov	 DWORD PTR tv77[ebp], 0
$LN6@notify_pag:
  00047	8b 55 b4	 mov	 edx, DWORD PTR tv77[ebp]
  0004a	89 55 fc	 mov	 DWORD PTR _objective$[ebp], edx

; 788  : 
; 789  : 	if (objective)

  0004d	83 7d fc 00	 cmp	 DWORD PTR _objective$[ebp], 0
  00051	0f 84 f2 00 00
	00		 je	 $LN1@notify_pag

; 790  : 	{
; 791  : 		ASSERT (get_local_entity_type (objective) == ENTITY_TYPE_KEYSITE);

  00057	83 7d fc 00	 cmp	 DWORD PTR _objective$[ebp], 0
  0005b	74 0a		 je	 SHORT $LN7@notify_pag
  0005d	8b 45 fc	 mov	 eax, DWORD PTR _objective$[ebp]
  00060	8b 08		 mov	 ecx, DWORD PTR [eax]
  00062	89 4d b4	 mov	 DWORD PTR tv85[ebp], ecx
  00065	eb 21		 jmp	 SHORT $LN8@notify_pag
$LN7@notify_pag:
  00067	8b 15 00 00 00
	00		 mov	 edx, DWORD PTR ?__LINE__Var@?0??notify_page_objective_select_function@@YGXPAUUI_OBJECT@@PAX@Z@4JA
  0006d	83 c2 0b	 add	 edx, 11			; 0000000bH
  00070	52		 push	 edx
  00071	68 00 00 00 00	 push	 OFFSET ??_C@_0EO@OLFIJIAE@c?3?2users?2nhv90?2projects?2eech?2ap@
  00076	a1 00 00 00 00	 mov	 eax, DWORD PTR ?null_entity_pointer_message@@3PBDB ; null_entity_pointer_message
  0007b	50		 push	 eax
  0007c	e8 00 00 00 00	 call	 ?process_assert@@YGXPBD0H@Z ; process_assert
  00081	c7 45 b4 00 00
	00 00		 mov	 DWORD PTR tv85[ebp], 0
$LN8@notify_pag:
  00088	83 7d b4 0f	 cmp	 DWORD PTR tv85[ebp], 15	; 0000000fH
  0008c	74 18		 je	 SHORT $LN3@notify_pag
  0008e	a1 00 00 00 00	 mov	 eax, DWORD PTR ?__LINE__Var@?0??notify_page_objective_select_function@@YGXPAUUI_OBJECT@@PAX@Z@4JA
  00093	83 c0 0b	 add	 eax, 11			; 0000000bH
  00096	50		 push	 eax
  00097	68 00 00 00 00	 push	 OFFSET ??_C@_0EO@OLFIJIAE@c?3?2users?2nhv90?2projects?2eech?2ap@
  0009c	68 00 00 00 00	 push	 OFFSET ??_C@_0DJ@PNBAHEDI@get_local_entity_type?5?$CIobjectiv@
  000a1	e8 00 00 00 00	 call	 ?process_assert@@YGXPBD0H@Z ; process_assert
$LN3@notify_pag:

; 792  : 
; 793  : 		sub_type = get_local_entity_int_value (objective, INT_TYPE_ENTITY_SUB_TYPE);

  000a6	83 7d fc 00	 cmp	 DWORD PTR _objective$[ebp], 0
  000aa	74 0a		 je	 SHORT $LN9@notify_pag
  000ac	8b 45 fc	 mov	 eax, DWORD PTR _objective$[ebp]
  000af	8b 08		 mov	 ecx, DWORD PTR [eax]
  000b1	89 4d b4	 mov	 DWORD PTR tv129[ebp], ecx
  000b4	eb 21		 jmp	 SHORT $LN10@notify_pag
$LN9@notify_pag:
  000b6	8b 15 00 00 00
	00		 mov	 edx, DWORD PTR ?__LINE__Var@?0??notify_page_objective_select_function@@YGXPAUUI_OBJECT@@PAX@Z@4JA
  000bc	83 c2 0d	 add	 edx, 13			; 0000000dH
  000bf	52		 push	 edx
  000c0	68 00 00 00 00	 push	 OFFSET ??_C@_0EO@OLFIJIAE@c?3?2users?2nhv90?2projects?2eech?2ap@
  000c5	a1 00 00 00 00	 mov	 eax, DWORD PTR ?null_entity_pointer_message@@3PBDB ; null_entity_pointer_message
  000ca	50		 push	 eax
  000cb	e8 00 00 00 00	 call	 ?process_assert@@YGXPBD0H@Z ; process_assert
  000d0	c7 45 b4 00 00
	00 00		 mov	 DWORD PTR tv129[ebp], 0
$LN10@notify_pag:
  000d7	b9 01 00 00 00	 mov	 ecx, 1
  000dc	85 c9		 test	 ecx, ecx
  000de	74 09		 je	 SHORT $LN11@notify_pag
  000e0	c7 45 b0 34 00
	00 00		 mov	 DWORD PTR tv137[ebp], 52 ; 00000034H
  000e7	eb 21		 jmp	 SHORT $LN12@notify_pag
$LN11@notify_pag:
  000e9	8b 15 00 00 00
	00		 mov	 edx, DWORD PTR ?__LINE__Var@?0??notify_page_objective_select_function@@YGXPAUUI_OBJECT@@PAX@Z@4JA
  000ef	83 c2 0d	 add	 edx, 13			; 0000000dH
  000f2	52		 push	 edx
  000f3	68 00 00 00 00	 push	 OFFSET ??_C@_0EO@OLFIJIAE@c?3?2users?2nhv90?2projects?2eech?2ap@
  000f8	a1 00 00 00 00	 mov	 eax, DWORD PTR ?overload_invalid_int_type_message@@3PBDB ; overload_invalid_int_type_message
  000fd	50		 push	 eax
  000fe	e8 00 00 00 00	 call	 ?process_assert@@YGXPBD0H@Z ; process_assert
  00103	c7 45 b0 00 00
	00 00		 mov	 DWORD PTR tv137[ebp], 0
$LN12@notify_pag:
  0010a	6a 34		 push	 52			; 00000034H
  0010c	8b 4d fc	 mov	 ecx, DWORD PTR _objective$[ebp]
  0010f	51		 push	 ecx
  00110	69 55 b4 5c 04
	00 00		 imul	 edx, DWORD PTR tv129[ebp], 1116
  00117	8b 45 b0	 mov	 eax, DWORD PTR tv137[ebp]
  0011a	8b 8c 82 00 00
	00 00		 mov	 ecx, DWORD PTR ?fn_get_local_entity_int_value@@3PAY0BBH@P6GHPAUENTITY@@W4INT_TYPES@@@ZA[edx+eax*4]
  00121	ff d1		 call	 ecx
  00123	89 45 f8	 mov	 DWORD PTR _sub_type$[ebp], eax

; 794  : 	
; 795  : 		force_map_layer_control_object ((map_layer_control_types) keysite_database [sub_type].map_layer_type, TRUE);

  00126	6a 01		 push	 1
  00128	6b 45 f8 44	 imul	 eax, DWORD PTR _sub_type$[ebp], 68
  0012c	8b 88 30 00 00
	00		 mov	 ecx, DWORD PTR ?keysite_database@@3PAUKEYSITE_DATA@@A[eax+48]
  00132	83 e1 3f	 and	 ecx, 63			; 0000003fH
  00135	51		 push	 ecx
  00136	e8 00 00 00 00	 call	 ?force_map_layer_control_object@@YGXW4MAP_LAYER_CONTROL_TYPES@@H@Z ; force_map_layer_control_object

; 796  : 
; 797  : 		set_campaign_map_origin (objective);

  0013b	8b 45 fc	 mov	 eax, DWORD PTR _objective$[ebp]
  0013e	50		 push	 eax
  0013f	e8 00 00 00 00	 call	 ?set_campaign_map_origin@@YGXPAUENTITY@@@Z ; set_campaign_map_origin

; 798  : 
; 799  : 		show_map_page ();

  00144	e8 00 00 00 00	 call	 ?show_map_page@@YGXXZ	; show_map_page
$LN1@notify_pag:

; 800  : 	}
; 801  : }

  00149	5f		 pop	 edi
  0014a	5e		 pop	 esi
  0014b	5b		 pop	 ebx
  0014c	8b e5		 mov	 esp, ebp
  0014e	5d		 pop	 ebp
  0014f	c2 08 00	 ret	 8
?notify_page_objective_select_function@@YGXPAUUI_OBJECT@@PAX@Z ENDP ; notify_page_objective_select_function
_TEXT	ENDS
; Function compile flags: /Odtp /ZI
; File c:\users\nhv90\projects\eech\aphavoc\source\ui_menu\ingame\campaign\ca_stat.c
;	COMDAT ?update_stats_page_balance_of_power_objects@@YGXPAUUI_OBJECT@@PAX@Z
_TEXT	SEGMENT
tv418 = -112						; size = 4
tv398 = -112						; size = 4
tv78 = -112						; size = 4
tv410 = -108						; size = 4
tv390 = -108						; size = 4
tv92 = -108						; size = 4
tv70 = -108						; size = 4
_dy$ = -40						; size = 4
_y2$ = -36						; size = 4
_y1$ = -32						; size = 4
_enemy_count$ = -28					; size = 4
_this_count$ = -24					; size = 4
_total$ = -20						; size = 4
_enemy_side$ = -16					; size = 4
_this_side$ = -12					; size = 4
_enemy_force$ = -8					; size = 4
_this_force$ = -4					; size = 4
_obj$ = 8						; size = 4
_arg$ = 12						; size = 4
?update_stats_page_balance_of_power_objects@@YGXPAUUI_OBJECT@@PAX@Z PROC ; update_stats_page_balance_of_power_objects, COMDAT

; 543  : {

  00000	55		 push	 ebp
  00001	8b ec		 mov	 ebp, esp
  00003	83 ec 70	 sub	 esp, 112		; 00000070H
  00006	53		 push	 ebx
  00007	56		 push	 esi
  00008	57		 push	 edi

; 544  : 	entity
; 545  : 		*this_force,
; 546  : 		*enemy_force;
; 547  : 
; 548  : 	entity_sides
; 549  : 		this_side,
; 550  : 		enemy_side;
; 551  : 
; 552  : 	int
; 553  : 		total,
; 554  : 		this_count,
; 555  : 		enemy_count;
; 556  : 
; 557  : 	float
; 558  : 		y1, y2, dy;
; 559  : 		
; 560  : 	this_side = (entity_sides) get_local_entity_int_value (get_pilot_entity (), INT_TYPE_SIDE);

  00009	83 3d 00 00 00
	00 00		 cmp	 DWORD PTR ?pilot_entity@@3PAUENTITY@@A, 0 ; pilot_entity
  00010	74 0c		 je	 SHORT $LN5@update_sta
  00012	a1 00 00 00 00	 mov	 eax, DWORD PTR ?pilot_entity@@3PAUENTITY@@A ; pilot_entity
  00017	8b 08		 mov	 ecx, DWORD PTR [eax]
  00019	89 4d 94	 mov	 DWORD PTR tv70[ebp], ecx
  0001c	eb 21		 jmp	 SHORT $LN6@update_sta
$LN5@update_sta:
  0001e	8b 15 00 00 00
	00		 mov	 edx, DWORD PTR ?__LINE__Var@?0??update_stats_page_balance_of_power_objects@@YGXPAUUI_OBJECT@@PAX@Z@4JA
  00024	83 c2 11	 add	 edx, 17			; 00000011H
  00027	52		 push	 edx
  00028	68 00 00 00 00	 push	 OFFSET ??_C@_0EO@OLFIJIAE@c?3?2users?2nhv90?2projects?2eech?2ap@
  0002d	a1 00 00 00 00	 mov	 eax, DWORD PTR ?null_entity_pointer_message@@3PBDB ; null_entity_pointer_message
  00032	50		 push	 eax
  00033	e8 00 00 00 00	 call	 ?process_assert@@YGXPBD0H@Z ; process_assert
  00038	c7 45 94 00 00
	00 00		 mov	 DWORD PTR tv70[ebp], 0
$LN6@update_sta:
  0003f	b9 01 00 00 00	 mov	 ecx, 1
  00044	85 c9		 test	 ecx, ecx
  00046	74 09		 je	 SHORT $LN7@update_sta
  00048	c7 45 90 bb 00
	00 00		 mov	 DWORD PTR tv78[ebp], 187 ; 000000bbH
  0004f	eb 21		 jmp	 SHORT $LN8@update_sta
$LN7@update_sta:
  00051	8b 15 00 00 00
	00		 mov	 edx, DWORD PTR ?__LINE__Var@?0??update_stats_page_balance_of_power_objects@@YGXPAUUI_OBJECT@@PAX@Z@4JA
  00057	83 c2 11	 add	 edx, 17			; 00000011H
  0005a	52		 push	 edx
  0005b	68 00 00 00 00	 push	 OFFSET ??_C@_0EO@OLFIJIAE@c?3?2users?2nhv90?2projects?2eech?2ap@
  00060	a1 00 00 00 00	 mov	 eax, DWORD PTR ?overload_invalid_int_type_message@@3PBDB ; overload_invalid_int_type_message
  00065	50		 push	 eax
  00066	e8 00 00 00 00	 call	 ?process_assert@@YGXPBD0H@Z ; process_assert
  0006b	c7 45 90 00 00
	00 00		 mov	 DWORD PTR tv78[ebp], 0
$LN8@update_sta:
  00072	68 bb 00 00 00	 push	 187			; 000000bbH
  00077	8b 0d 00 00 00
	00		 mov	 ecx, DWORD PTR ?pilot_entity@@3PAUENTITY@@A ; pilot_entity
  0007d	51		 push	 ecx
  0007e	69 55 94 5c 04
	00 00		 imul	 edx, DWORD PTR tv70[ebp], 1116
  00085	8b 45 90	 mov	 eax, DWORD PTR tv78[ebp]
  00088	8b 8c 82 00 00
	00 00		 mov	 ecx, DWORD PTR ?fn_get_local_entity_int_value@@3PAY0BBH@P6GHPAUENTITY@@W4INT_TYPES@@@ZA[edx+eax*4]
  0008f	ff d1		 call	 ecx
  00091	89 45 f4	 mov	 DWORD PTR _this_side$[ebp], eax

; 561  : 
; 562  : 	this_force = get_local_force_entity (this_side);

  00094	8b 45 f4	 mov	 eax, DWORD PTR _this_side$[ebp]
  00097	50		 push	 eax
  00098	e8 00 00 00 00	 call	 ?get_local_force_entity@@YGPAUENTITY@@W4ENTITY_SIDES@@@Z ; get_local_force_entity
  0009d	89 45 fc	 mov	 DWORD PTR _this_force$[ebp], eax

; 563  : 
; 564  : 	ASSERT (this_force);

  000a0	83 7d fc 00	 cmp	 DWORD PTR _this_force$[ebp], 0
  000a4	75 18		 jne	 SHORT $LN2@update_sta
  000a6	a1 00 00 00 00	 mov	 eax, DWORD PTR ?__LINE__Var@?0??update_stats_page_balance_of_power_objects@@YGXPAUUI_OBJECT@@PAX@Z@4JA
  000ab	83 c0 15	 add	 eax, 21			; 00000015H
  000ae	50		 push	 eax
  000af	68 00 00 00 00	 push	 OFFSET ??_C@_0EO@OLFIJIAE@c?3?2users?2nhv90?2projects?2eech?2ap@
  000b4	68 00 00 00 00	 push	 OFFSET ??_C@_0L@EJNDJNGD@this_force@
  000b9	e8 00 00 00 00	 call	 ?process_assert@@YGXPBD0H@Z ; process_assert
$LN2@update_sta:

; 565  : 
; 566  : 	enemy_side = get_enemy_side (this_side);

  000be	83 7d f4 01	 cmp	 DWORD PTR _this_side$[ebp], 1
  000c2	75 09		 jne	 SHORT $LN9@update_sta
  000c4	c7 45 94 02 00
	00 00		 mov	 DWORD PTR tv92[ebp], 2
  000cb	eb 07		 jmp	 SHORT $LN10@update_sta
$LN9@update_sta:
  000cd	c7 45 94 01 00
	00 00		 mov	 DWORD PTR tv92[ebp], 1
$LN10@update_sta:
  000d4	8b 45 94	 mov	 eax, DWORD PTR tv92[ebp]
  000d7	89 45 f0	 mov	 DWORD PTR _enemy_side$[ebp], eax

; 567  : 
; 568  : 	enemy_force = get_local_force_entity (enemy_side);

  000da	8b 45 f0	 mov	 eax, DWORD PTR _enemy_side$[ebp]
  000dd	50		 push	 eax
  000de	e8 00 00 00 00	 call	 ?get_local_force_entity@@YGPAUENTITY@@W4ENTITY_SIDES@@@Z ; get_local_force_entity
  000e3	89 45 f8	 mov	 DWORD PTR _enemy_force$[ebp], eax

; 569  : 
; 570  : 	ASSERT (enemy_force);

  000e6	83 7d f8 00	 cmp	 DWORD PTR _enemy_force$[ebp], 0
  000ea	75 18		 jne	 SHORT $LN3@update_sta
  000ec	a1 00 00 00 00	 mov	 eax, DWORD PTR ?__LINE__Var@?0??update_stats_page_balance_of_power_objects@@YGXPAUUI_OBJECT@@PAX@Z@4JA
  000f1	83 c0 1b	 add	 eax, 27			; 0000001bH
  000f4	50		 push	 eax
  000f5	68 00 00 00 00	 push	 OFFSET ??_C@_0EO@OLFIJIAE@c?3?2users?2nhv90?2projects?2eech?2ap@
  000fa	68 00 00 00 00	 push	 OFFSET ??_C@_0M@JMPLKLMD@enemy_force@
  000ff	e8 00 00 00 00	 call	 ?process_assert@@YGXPBD0H@Z ; process_assert
$LN3@update_sta:

; 571  : 
; 572  : 	dy = (BPOWER_MAIN_AREA_YMAX - BPOWER_MAIN_AREA_YMIN) / BPOWER_MAIN_AREA_ITEM_COUNT;

  00104	f3 0f 10 05 00
	00 00 00	 movss	 xmm0, DWORD PTR __real@3df28aae
  0010c	f3 0f 11 45 d8	 movss	 DWORD PTR _dy$[ebp], xmm0

; 573  : 
; 574  : 	y1 = BPOWER_MAIN_AREA_YMIN;

  00111	f3 0f 10 05 00
	00 00 00	 movss	 xmm0, DWORD PTR __real@3e2f1aa0
  00119	f3 0f 11 45 e0	 movss	 DWORD PTR _y1$[ebp], xmm0

; 575  : 	y2 = y1 + dy;

  0011e	f3 0f 10 45 e0	 movss	 xmm0, DWORD PTR _y1$[ebp]
  00123	f3 0f 58 45 d8	 addss	 xmm0, DWORD PTR _dy$[ebp]
  00128	f3 0f 11 45 dc	 movss	 DWORD PTR _y2$[ebp], xmm0

; 576  : 
; 577  : 	//
; 578  : 	// Attack Helicopters
; 579  : 	//
; 580  : 
; 581  : 	this_count = get_local_force_entity_group_count (this_force, ENTITY_SUB_TYPE_GROUP_ATTACK_HELICOPTER);

  0012d	6a 00		 push	 0
  0012f	8b 45 fc	 mov	 eax, DWORD PTR _this_force$[ebp]
  00132	50		 push	 eax
  00133	e8 00 00 00 00	 call	 ?get_local_force_entity_group_count@@YGHPAUENTITY@@H@Z ; get_local_force_entity_group_count
  00138	89 45 e8	 mov	 DWORD PTR _this_count$[ebp], eax

; 582  : 	this_count += get_local_force_entity_group_count (this_force, ENTITY_SUB_TYPE_GROUP_MARINE_ATTACK_HELICOPTER);

  0013b	6a 01		 push	 1
  0013d	8b 45 fc	 mov	 eax, DWORD PTR _this_force$[ebp]
  00140	50		 push	 eax
  00141	e8 00 00 00 00	 call	 ?get_local_force_entity_group_count@@YGHPAUENTITY@@H@Z ; get_local_force_entity_group_count
  00146	03 45 e8	 add	 eax, DWORD PTR _this_count$[ebp]
  00149	89 45 e8	 mov	 DWORD PTR _this_count$[ebp], eax

; 583  : 	this_count += get_local_force_entity_group_count (this_force, ENTITY_SUB_TYPE_GROUP_ASSAULT_HELICOPTER);

  0014c	6a 02		 push	 2
  0014e	8b 45 fc	 mov	 eax, DWORD PTR _this_force$[ebp]
  00151	50		 push	 eax
  00152	e8 00 00 00 00	 call	 ?get_local_force_entity_group_count@@YGHPAUENTITY@@H@Z ; get_local_force_entity_group_count
  00157	03 45 e8	 add	 eax, DWORD PTR _this_count$[ebp]
  0015a	89 45 e8	 mov	 DWORD PTR _this_count$[ebp], eax

; 584  : 	this_count += get_local_force_entity_group_count (this_force, ENTITY_SUB_TYPE_GROUP_MARINE_ASSAULT_HELICOPTER);

  0015d	6a 03		 push	 3
  0015f	8b 45 fc	 mov	 eax, DWORD PTR _this_force$[ebp]
  00162	50		 push	 eax
  00163	e8 00 00 00 00	 call	 ?get_local_force_entity_group_count@@YGHPAUENTITY@@H@Z ; get_local_force_entity_group_count
  00168	03 45 e8	 add	 eax, DWORD PTR _this_count$[ebp]
  0016b	89 45 e8	 mov	 DWORD PTR _this_count$[ebp], eax

; 585  : 	this_count += get_local_force_entity_group_count (this_force, ENTITY_SUB_TYPE_GROUP_RECON_HELICOPTER);

  0016e	6a 04		 push	 4
  00170	8b 45 fc	 mov	 eax, DWORD PTR _this_force$[ebp]
  00173	50		 push	 eax
  00174	e8 00 00 00 00	 call	 ?get_local_force_entity_group_count@@YGHPAUENTITY@@H@Z ; get_local_force_entity_group_count
  00179	03 45 e8	 add	 eax, DWORD PTR _this_count$[ebp]
  0017c	89 45 e8	 mov	 DWORD PTR _this_count$[ebp], eax

; 586  : 	this_count += get_local_force_entity_group_count (this_force, ENTITY_SUB_TYPE_GROUP_RECON_ATTACK_HELICOPTER);

  0017f	6a 05		 push	 5
  00181	8b 45 fc	 mov	 eax, DWORD PTR _this_force$[ebp]
  00184	50		 push	 eax
  00185	e8 00 00 00 00	 call	 ?get_local_force_entity_group_count@@YGHPAUENTITY@@H@Z ; get_local_force_entity_group_count
  0018a	03 45 e8	 add	 eax, DWORD PTR _this_count$[ebp]
  0018d	89 45 e8	 mov	 DWORD PTR _this_count$[ebp], eax

; 587  : 
; 588  : 	enemy_count = get_local_force_entity_group_count (enemy_force, ENTITY_SUB_TYPE_GROUP_ATTACK_HELICOPTER);

  00190	6a 00		 push	 0
  00192	8b 45 f8	 mov	 eax, DWORD PTR _enemy_force$[ebp]
  00195	50		 push	 eax
  00196	e8 00 00 00 00	 call	 ?get_local_force_entity_group_count@@YGHPAUENTITY@@H@Z ; get_local_force_entity_group_count
  0019b	89 45 e4	 mov	 DWORD PTR _enemy_count$[ebp], eax

; 589  : 	enemy_count += get_local_force_entity_group_count (enemy_force, ENTITY_SUB_TYPE_GROUP_MARINE_ATTACK_HELICOPTER);

  0019e	6a 01		 push	 1
  001a0	8b 45 f8	 mov	 eax, DWORD PTR _enemy_force$[ebp]
  001a3	50		 push	 eax
  001a4	e8 00 00 00 00	 call	 ?get_local_force_entity_group_count@@YGHPAUENTITY@@H@Z ; get_local_force_entity_group_count
  001a9	03 45 e4	 add	 eax, DWORD PTR _enemy_count$[ebp]
  001ac	89 45 e4	 mov	 DWORD PTR _enemy_count$[ebp], eax

; 590  : 	enemy_count += get_local_force_entity_group_count (enemy_force, ENTITY_SUB_TYPE_GROUP_ASSAULT_HELICOPTER);

  001af	6a 02		 push	 2
  001b1	8b 45 f8	 mov	 eax, DWORD PTR _enemy_force$[ebp]
  001b4	50		 push	 eax
  001b5	e8 00 00 00 00	 call	 ?get_local_force_entity_group_count@@YGHPAUENTITY@@H@Z ; get_local_force_entity_group_count
  001ba	03 45 e4	 add	 eax, DWORD PTR _enemy_count$[ebp]
  001bd	89 45 e4	 mov	 DWORD PTR _enemy_count$[ebp], eax

; 591  : 	enemy_count += get_local_force_entity_group_count (enemy_force, ENTITY_SUB_TYPE_GROUP_MARINE_ASSAULT_HELICOPTER);

  001c0	6a 03		 push	 3
  001c2	8b 45 f8	 mov	 eax, DWORD PTR _enemy_force$[ebp]
  001c5	50		 push	 eax
  001c6	e8 00 00 00 00	 call	 ?get_local_force_entity_group_count@@YGHPAUENTITY@@H@Z ; get_local_force_entity_group_count
  001cb	03 45 e4	 add	 eax, DWORD PTR _enemy_count$[ebp]
  001ce	89 45 e4	 mov	 DWORD PTR _enemy_count$[ebp], eax

; 592  : 	enemy_count += get_local_force_entity_group_count (enemy_force, ENTITY_SUB_TYPE_GROUP_RECON_HELICOPTER);

  001d1	6a 04		 push	 4
  001d3	8b 45 f8	 mov	 eax, DWORD PTR _enemy_force$[ebp]
  001d6	50		 push	 eax
  001d7	e8 00 00 00 00	 call	 ?get_local_force_entity_group_count@@YGHPAUENTITY@@H@Z ; get_local_force_entity_group_count
  001dc	03 45 e4	 add	 eax, DWORD PTR _enemy_count$[ebp]
  001df	89 45 e4	 mov	 DWORD PTR _enemy_count$[ebp], eax

; 593  : 	enemy_count += get_local_force_entity_group_count (enemy_force, ENTITY_SUB_TYPE_GROUP_RECON_ATTACK_HELICOPTER);

  001e2	6a 05		 push	 5
  001e4	8b 45 f8	 mov	 eax, DWORD PTR _enemy_force$[ebp]
  001e7	50		 push	 eax
  001e8	e8 00 00 00 00	 call	 ?get_local_force_entity_group_count@@YGHPAUENTITY@@H@Z ; get_local_force_entity_group_count
  001ed	03 45 e4	 add	 eax, DWORD PTR _enemy_count$[ebp]
  001f0	89 45 e4	 mov	 DWORD PTR _enemy_count$[ebp], eax

; 594  : 
; 595  : 	total = this_count + enemy_count;

  001f3	8b 45 e8	 mov	 eax, DWORD PTR _this_count$[ebp]
  001f6	03 45 e4	 add	 eax, DWORD PTR _enemy_count$[ebp]
  001f9	89 45 ec	 mov	 DWORD PTR _total$[ebp], eax

; 596  : 
; 597  : 	draw_stats_page_unit_balance_of_power (obj, 0, this_side, this_count, total);

  001fc	8b 45 ec	 mov	 eax, DWORD PTR _total$[ebp]
  001ff	50		 push	 eax
  00200	8b 4d e8	 mov	 ecx, DWORD PTR _this_count$[ebp]
  00203	51		 push	 ecx
  00204	8b 55 f4	 mov	 edx, DWORD PTR _this_side$[ebp]
  00207	52		 push	 edx
  00208	6a 00		 push	 0
  0020a	8b 45 08	 mov	 eax, DWORD PTR _obj$[ebp]
  0020d	50		 push	 eax
  0020e	e8 00 00 00 00	 call	 ?draw_stats_page_unit_balance_of_power@@YGXPAUUI_OBJECT@@HW4ENTITY_SIDES@@HH@Z ; draw_stats_page_unit_balance_of_power

; 598  : 	draw_stats_page_unit_balance_of_power (obj, 0, enemy_side, enemy_count, total);

  00213	8b 45 ec	 mov	 eax, DWORD PTR _total$[ebp]
  00216	50		 push	 eax
  00217	8b 4d e4	 mov	 ecx, DWORD PTR _enemy_count$[ebp]
  0021a	51		 push	 ecx
  0021b	8b 55 f0	 mov	 edx, DWORD PTR _enemy_side$[ebp]
  0021e	52		 push	 edx
  0021f	6a 00		 push	 0
  00221	8b 45 08	 mov	 eax, DWORD PTR _obj$[ebp]
  00224	50		 push	 eax
  00225	e8 00 00 00 00	 call	 ?draw_stats_page_unit_balance_of_power@@YGXPAUUI_OBJECT@@HW4ENTITY_SIDES@@HH@Z ; draw_stats_page_unit_balance_of_power

; 599  : 
; 600  : 	//
; 601  : 	// Transport Helicopters
; 602  : 	//
; 603  : 
; 604  : 	y1 += dy;

  0022a	f3 0f 10 45 e0	 movss	 xmm0, DWORD PTR _y1$[ebp]
  0022f	f3 0f 58 45 d8	 addss	 xmm0, DWORD PTR _dy$[ebp]
  00234	f3 0f 11 45 e0	 movss	 DWORD PTR _y1$[ebp], xmm0

; 605  : 	y2 += dy;

  00239	f3 0f 10 45 dc	 movss	 xmm0, DWORD PTR _y2$[ebp]
  0023e	f3 0f 58 45 d8	 addss	 xmm0, DWORD PTR _dy$[ebp]
  00243	f3 0f 11 45 dc	 movss	 DWORD PTR _y2$[ebp], xmm0

; 606  : 
; 607  : 	this_count = get_local_force_entity_group_count (this_force, ENTITY_SUB_TYPE_GROUP_MEDIUM_LIFT_TRANSPORT_HELICOPTER);

  00248	6a 06		 push	 6
  0024a	8b 45 fc	 mov	 eax, DWORD PTR _this_force$[ebp]
  0024d	50		 push	 eax
  0024e	e8 00 00 00 00	 call	 ?get_local_force_entity_group_count@@YGHPAUENTITY@@H@Z ; get_local_force_entity_group_count
  00253	89 45 e8	 mov	 DWORD PTR _this_count$[ebp], eax

; 608  : 	this_count += get_local_force_entity_group_count (this_force, ENTITY_SUB_TYPE_GROUP_HEAVY_LIFT_TRANSPORT_HELICOPTER);

  00256	6a 07		 push	 7
  00258	8b 45 fc	 mov	 eax, DWORD PTR _this_force$[ebp]
  0025b	50		 push	 eax
  0025c	e8 00 00 00 00	 call	 ?get_local_force_entity_group_count@@YGHPAUENTITY@@H@Z ; get_local_force_entity_group_count
  00261	03 45 e8	 add	 eax, DWORD PTR _this_count$[ebp]
  00264	89 45 e8	 mov	 DWORD PTR _this_count$[ebp], eax

; 609  : 
; 610  : 	enemy_count = get_local_force_entity_group_count (enemy_force, ENTITY_SUB_TYPE_GROUP_MEDIUM_LIFT_TRANSPORT_HELICOPTER);

  00267	6a 06		 push	 6
  00269	8b 45 f8	 mov	 eax, DWORD PTR _enemy_force$[ebp]
  0026c	50		 push	 eax
  0026d	e8 00 00 00 00	 call	 ?get_local_force_entity_group_count@@YGHPAUENTITY@@H@Z ; get_local_force_entity_group_count
  00272	89 45 e4	 mov	 DWORD PTR _enemy_count$[ebp], eax

; 611  : 	enemy_count += get_local_force_entity_group_count (enemy_force, ENTITY_SUB_TYPE_GROUP_HEAVY_LIFT_TRANSPORT_HELICOPTER);

  00275	6a 07		 push	 7
  00277	8b 45 f8	 mov	 eax, DWORD PTR _enemy_force$[ebp]
  0027a	50		 push	 eax
  0027b	e8 00 00 00 00	 call	 ?get_local_force_entity_group_count@@YGHPAUENTITY@@H@Z ; get_local_force_entity_group_count
  00280	03 45 e4	 add	 eax, DWORD PTR _enemy_count$[ebp]
  00283	89 45 e4	 mov	 DWORD PTR _enemy_count$[ebp], eax

; 612  : 
; 613  : 	total = this_count + enemy_count;

  00286	8b 45 e8	 mov	 eax, DWORD PTR _this_count$[ebp]
  00289	03 45 e4	 add	 eax, DWORD PTR _enemy_count$[ebp]
  0028c	89 45 ec	 mov	 DWORD PTR _total$[ebp], eax

; 614  : 
; 615  : 	draw_stats_page_unit_balance_of_power (obj, 1, this_side, this_count, total);

  0028f	8b 45 ec	 mov	 eax, DWORD PTR _total$[ebp]
  00292	50		 push	 eax
  00293	8b 4d e8	 mov	 ecx, DWORD PTR _this_count$[ebp]
  00296	51		 push	 ecx
  00297	8b 55 f4	 mov	 edx, DWORD PTR _this_side$[ebp]
  0029a	52		 push	 edx
  0029b	6a 01		 push	 1
  0029d	8b 45 08	 mov	 eax, DWORD PTR _obj$[ebp]
  002a0	50		 push	 eax
  002a1	e8 00 00 00 00	 call	 ?draw_stats_page_unit_balance_of_power@@YGXPAUUI_OBJECT@@HW4ENTITY_SIDES@@HH@Z ; draw_stats_page_unit_balance_of_power

; 616  : 	draw_stats_page_unit_balance_of_power (obj, 1, enemy_side, enemy_count, total);

  002a6	8b 45 ec	 mov	 eax, DWORD PTR _total$[ebp]
  002a9	50		 push	 eax
  002aa	8b 4d e4	 mov	 ecx, DWORD PTR _enemy_count$[ebp]
  002ad	51		 push	 ecx
  002ae	8b 55 f0	 mov	 edx, DWORD PTR _enemy_side$[ebp]
  002b1	52		 push	 edx
  002b2	6a 01		 push	 1
  002b4	8b 45 08	 mov	 eax, DWORD PTR _obj$[ebp]
  002b7	50		 push	 eax
  002b8	e8 00 00 00 00	 call	 ?draw_stats_page_unit_balance_of_power@@YGXPAUUI_OBJECT@@HW4ENTITY_SIDES@@HH@Z ; draw_stats_page_unit_balance_of_power

; 617  : 
; 618  : 	//
; 619  : 	// Attack Aircraft
; 620  : 	//
; 621  : 
; 622  : 	y1 += dy;

  002bd	f3 0f 10 45 e0	 movss	 xmm0, DWORD PTR _y1$[ebp]
  002c2	f3 0f 58 45 d8	 addss	 xmm0, DWORD PTR _dy$[ebp]
  002c7	f3 0f 11 45 e0	 movss	 DWORD PTR _y1$[ebp], xmm0

; 623  : 	y2 += dy;

  002cc	f3 0f 10 45 dc	 movss	 xmm0, DWORD PTR _y2$[ebp]
  002d1	f3 0f 58 45 d8	 addss	 xmm0, DWORD PTR _dy$[ebp]
  002d6	f3 0f 11 45 dc	 movss	 DWORD PTR _y2$[ebp], xmm0

; 624  : 
; 625  : 	this_count = get_local_force_entity_group_count (this_force, ENTITY_SUB_TYPE_GROUP_MULTI_ROLE_FIGHTER);

  002db	6a 08		 push	 8
  002dd	8b 45 fc	 mov	 eax, DWORD PTR _this_force$[ebp]
  002e0	50		 push	 eax
  002e1	e8 00 00 00 00	 call	 ?get_local_force_entity_group_count@@YGHPAUENTITY@@H@Z ; get_local_force_entity_group_count
  002e6	89 45 e8	 mov	 DWORD PTR _this_count$[ebp], eax

; 626  : 	this_count += get_local_force_entity_group_count (this_force, ENTITY_SUB_TYPE_GROUP_CARRIER_BORNE_ATTACK_AIRCRAFT);

  002e9	6a 09		 push	 9
  002eb	8b 45 fc	 mov	 eax, DWORD PTR _this_force$[ebp]
  002ee	50		 push	 eax
  002ef	e8 00 00 00 00	 call	 ?get_local_force_entity_group_count@@YGHPAUENTITY@@H@Z ; get_local_force_entity_group_count
  002f4	03 45 e8	 add	 eax, DWORD PTR _this_count$[ebp]
  002f7	89 45 e8	 mov	 DWORD PTR _this_count$[ebp], eax

; 627  : 	this_count += get_local_force_entity_group_count (this_force, ENTITY_SUB_TYPE_GROUP_CARRIER_BORNE_INTERCEPTOR);

  002fa	6a 0a		 push	 10			; 0000000aH
  002fc	8b 45 fc	 mov	 eax, DWORD PTR _this_force$[ebp]
  002ff	50		 push	 eax
  00300	e8 00 00 00 00	 call	 ?get_local_force_entity_group_count@@YGHPAUENTITY@@H@Z ; get_local_force_entity_group_count
  00305	03 45 e8	 add	 eax, DWORD PTR _this_count$[ebp]
  00308	89 45 e8	 mov	 DWORD PTR _this_count$[ebp], eax

; 628  : 	this_count += get_local_force_entity_group_count (this_force, ENTITY_SUB_TYPE_GROUP_CLOSE_AIR_SUPPORT_AIRCRAFT);

  0030b	6a 0b		 push	 11			; 0000000bH
  0030d	8b 45 fc	 mov	 eax, DWORD PTR _this_force$[ebp]
  00310	50		 push	 eax
  00311	e8 00 00 00 00	 call	 ?get_local_force_entity_group_count@@YGHPAUENTITY@@H@Z ; get_local_force_entity_group_count
  00316	03 45 e8	 add	 eax, DWORD PTR _this_count$[ebp]
  00319	89 45 e8	 mov	 DWORD PTR _this_count$[ebp], eax

; 629  : 
; 630  : 	enemy_count = get_local_force_entity_group_count (enemy_force, ENTITY_SUB_TYPE_GROUP_MULTI_ROLE_FIGHTER);

  0031c	6a 08		 push	 8
  0031e	8b 45 f8	 mov	 eax, DWORD PTR _enemy_force$[ebp]
  00321	50		 push	 eax
  00322	e8 00 00 00 00	 call	 ?get_local_force_entity_group_count@@YGHPAUENTITY@@H@Z ; get_local_force_entity_group_count
  00327	89 45 e4	 mov	 DWORD PTR _enemy_count$[ebp], eax

; 631  : 	enemy_count += get_local_force_entity_group_count (enemy_force, ENTITY_SUB_TYPE_GROUP_CARRIER_BORNE_ATTACK_AIRCRAFT);

  0032a	6a 09		 push	 9
  0032c	8b 45 f8	 mov	 eax, DWORD PTR _enemy_force$[ebp]
  0032f	50		 push	 eax
  00330	e8 00 00 00 00	 call	 ?get_local_force_entity_group_count@@YGHPAUENTITY@@H@Z ; get_local_force_entity_group_count
  00335	03 45 e4	 add	 eax, DWORD PTR _enemy_count$[ebp]
  00338	89 45 e4	 mov	 DWORD PTR _enemy_count$[ebp], eax

; 632  : 	enemy_count += get_local_force_entity_group_count (enemy_force, ENTITY_SUB_TYPE_GROUP_CARRIER_BORNE_INTERCEPTOR);

  0033b	6a 0a		 push	 10			; 0000000aH
  0033d	8b 45 f8	 mov	 eax, DWORD PTR _enemy_force$[ebp]
  00340	50		 push	 eax
  00341	e8 00 00 00 00	 call	 ?get_local_force_entity_group_count@@YGHPAUENTITY@@H@Z ; get_local_force_entity_group_count
  00346	03 45 e4	 add	 eax, DWORD PTR _enemy_count$[ebp]
  00349	89 45 e4	 mov	 DWORD PTR _enemy_count$[ebp], eax

; 633  : 	enemy_count += get_local_force_entity_group_count (enemy_force, ENTITY_SUB_TYPE_GROUP_CLOSE_AIR_SUPPORT_AIRCRAFT);

  0034c	6a 0b		 push	 11			; 0000000bH
  0034e	8b 45 f8	 mov	 eax, DWORD PTR _enemy_force$[ebp]
  00351	50		 push	 eax
  00352	e8 00 00 00 00	 call	 ?get_local_force_entity_group_count@@YGHPAUENTITY@@H@Z ; get_local_force_entity_group_count
  00357	03 45 e4	 add	 eax, DWORD PTR _enemy_count$[ebp]
  0035a	89 45 e4	 mov	 DWORD PTR _enemy_count$[ebp], eax

; 634  : 
; 635  : 	total = this_count + enemy_count;

  0035d	8b 45 e8	 mov	 eax, DWORD PTR _this_count$[ebp]
  00360	03 45 e4	 add	 eax, DWORD PTR _enemy_count$[ebp]
  00363	89 45 ec	 mov	 DWORD PTR _total$[ebp], eax

; 636  : 
; 637  : 	draw_stats_page_unit_balance_of_power (obj, 2, this_side, this_count, total);

  00366	8b 45 ec	 mov	 eax, DWORD PTR _total$[ebp]
  00369	50		 push	 eax
  0036a	8b 4d e8	 mov	 ecx, DWORD PTR _this_count$[ebp]
  0036d	51		 push	 ecx
  0036e	8b 55 f4	 mov	 edx, DWORD PTR _this_side$[ebp]
  00371	52		 push	 edx
  00372	6a 02		 push	 2
  00374	8b 45 08	 mov	 eax, DWORD PTR _obj$[ebp]
  00377	50		 push	 eax
  00378	e8 00 00 00 00	 call	 ?draw_stats_page_unit_balance_of_power@@YGXPAUUI_OBJECT@@HW4ENTITY_SIDES@@HH@Z ; draw_stats_page_unit_balance_of_power

; 638  : 	draw_stats_page_unit_balance_of_power (obj, 2, enemy_side, enemy_count, total);

  0037d	8b 45 ec	 mov	 eax, DWORD PTR _total$[ebp]
  00380	50		 push	 eax
  00381	8b 4d e4	 mov	 ecx, DWORD PTR _enemy_count$[ebp]
  00384	51		 push	 ecx
  00385	8b 55 f0	 mov	 edx, DWORD PTR _enemy_side$[ebp]
  00388	52		 push	 edx
  00389	6a 02		 push	 2
  0038b	8b 45 08	 mov	 eax, DWORD PTR _obj$[ebp]
  0038e	50		 push	 eax
  0038f	e8 00 00 00 00	 call	 ?draw_stats_page_unit_balance_of_power@@YGXPAUUI_OBJECT@@HW4ENTITY_SIDES@@HH@Z ; draw_stats_page_unit_balance_of_power

; 639  : 
; 640  : 	//
; 641  : 	// Transport Aircraft
; 642  : 	//
; 643  : 
; 644  : 	y1 += dy;

  00394	f3 0f 10 45 e0	 movss	 xmm0, DWORD PTR _y1$[ebp]
  00399	f3 0f 58 45 d8	 addss	 xmm0, DWORD PTR _dy$[ebp]
  0039e	f3 0f 11 45 e0	 movss	 DWORD PTR _y1$[ebp], xmm0

; 645  : 	y2 += dy;

  003a3	f3 0f 10 45 dc	 movss	 xmm0, DWORD PTR _y2$[ebp]
  003a8	f3 0f 58 45 d8	 addss	 xmm0, DWORD PTR _dy$[ebp]
  003ad	f3 0f 11 45 dc	 movss	 DWORD PTR _y2$[ebp], xmm0

; 646  : 
; 647  : 	this_count = get_local_force_entity_group_count (this_force, ENTITY_SUB_TYPE_GROUP_MEDIUM_LIFT_TRANSPORT_AIRCRAFT);

  003b2	6a 0c		 push	 12			; 0000000cH
  003b4	8b 45 fc	 mov	 eax, DWORD PTR _this_force$[ebp]
  003b7	50		 push	 eax
  003b8	e8 00 00 00 00	 call	 ?get_local_force_entity_group_count@@YGHPAUENTITY@@H@Z ; get_local_force_entity_group_count
  003bd	89 45 e8	 mov	 DWORD PTR _this_count$[ebp], eax

; 648  : 	this_count += get_local_force_entity_group_count (this_force, ENTITY_SUB_TYPE_GROUP_HEAVY_LIFT_TRANSPORT_AIRCRAFT);

  003c0	6a 0d		 push	 13			; 0000000dH
  003c2	8b 45 fc	 mov	 eax, DWORD PTR _this_force$[ebp]
  003c5	50		 push	 eax
  003c6	e8 00 00 00 00	 call	 ?get_local_force_entity_group_count@@YGHPAUENTITY@@H@Z ; get_local_force_entity_group_count
  003cb	03 45 e8	 add	 eax, DWORD PTR _this_count$[ebp]
  003ce	89 45 e8	 mov	 DWORD PTR _this_count$[ebp], eax

; 649  : 
; 650  : 	enemy_count = get_local_force_entity_group_count (enemy_force, ENTITY_SUB_TYPE_GROUP_MEDIUM_LIFT_TRANSPORT_AIRCRAFT);

  003d1	6a 0c		 push	 12			; 0000000cH
  003d3	8b 45 f8	 mov	 eax, DWORD PTR _enemy_force$[ebp]
  003d6	50		 push	 eax
  003d7	e8 00 00 00 00	 call	 ?get_local_force_entity_group_count@@YGHPAUENTITY@@H@Z ; get_local_force_entity_group_count
  003dc	89 45 e4	 mov	 DWORD PTR _enemy_count$[ebp], eax

; 651  : 	enemy_count += get_local_force_entity_group_count (enemy_force, ENTITY_SUB_TYPE_GROUP_HEAVY_LIFT_TRANSPORT_AIRCRAFT);

  003df	6a 0d		 push	 13			; 0000000dH
  003e1	8b 45 f8	 mov	 eax, DWORD PTR _enemy_force$[ebp]
  003e4	50		 push	 eax
  003e5	e8 00 00 00 00	 call	 ?get_local_force_entity_group_count@@YGHPAUENTITY@@H@Z ; get_local_force_entity_group_count
  003ea	03 45 e4	 add	 eax, DWORD PTR _enemy_count$[ebp]
  003ed	89 45 e4	 mov	 DWORD PTR _enemy_count$[ebp], eax

; 652  : 
; 653  : 	total = this_count + enemy_count;

  003f0	8b 45 e8	 mov	 eax, DWORD PTR _this_count$[ebp]
  003f3	03 45 e4	 add	 eax, DWORD PTR _enemy_count$[ebp]
  003f6	89 45 ec	 mov	 DWORD PTR _total$[ebp], eax

; 654  : 
; 655  : 	draw_stats_page_unit_balance_of_power (obj, 3, this_side, this_count, total);

  003f9	8b 45 ec	 mov	 eax, DWORD PTR _total$[ebp]
  003fc	50		 push	 eax
  003fd	8b 4d e8	 mov	 ecx, DWORD PTR _this_count$[ebp]
  00400	51		 push	 ecx
  00401	8b 55 f4	 mov	 edx, DWORD PTR _this_side$[ebp]
  00404	52		 push	 edx
  00405	6a 03		 push	 3
  00407	8b 45 08	 mov	 eax, DWORD PTR _obj$[ebp]
  0040a	50		 push	 eax
  0040b	e8 00 00 00 00	 call	 ?draw_stats_page_unit_balance_of_power@@YGXPAUUI_OBJECT@@HW4ENTITY_SIDES@@HH@Z ; draw_stats_page_unit_balance_of_power

; 656  : 	draw_stats_page_unit_balance_of_power (obj, 3, enemy_side, enemy_count, total);

  00410	8b 45 ec	 mov	 eax, DWORD PTR _total$[ebp]
  00413	50		 push	 eax
  00414	8b 4d e4	 mov	 ecx, DWORD PTR _enemy_count$[ebp]
  00417	51		 push	 ecx
  00418	8b 55 f0	 mov	 edx, DWORD PTR _enemy_side$[ebp]
  0041b	52		 push	 edx
  0041c	6a 03		 push	 3
  0041e	8b 45 08	 mov	 eax, DWORD PTR _obj$[ebp]
  00421	50		 push	 eax
  00422	e8 00 00 00 00	 call	 ?draw_stats_page_unit_balance_of_power@@YGXPAUUI_OBJECT@@HW4ENTITY_SIDES@@HH@Z ; draw_stats_page_unit_balance_of_power

; 657  : 
; 658  : 	//
; 659  : 	// Ships
; 660  : 	//
; 661  : 
; 662  : 	y1 += dy;

  00427	f3 0f 10 45 e0	 movss	 xmm0, DWORD PTR _y1$[ebp]
  0042c	f3 0f 58 45 d8	 addss	 xmm0, DWORD PTR _dy$[ebp]
  00431	f3 0f 11 45 e0	 movss	 DWORD PTR _y1$[ebp], xmm0

; 663  : 	y2 += dy;

  00436	f3 0f 10 45 dc	 movss	 xmm0, DWORD PTR _y2$[ebp]
  0043b	f3 0f 58 45 d8	 addss	 xmm0, DWORD PTR _dy$[ebp]
  00440	f3 0f 11 45 dc	 movss	 DWORD PTR _y2$[ebp], xmm0

; 664  : 
; 665  : 	this_count = get_local_force_entity_group_count (this_force, ENTITY_SUB_TYPE_GROUP_ASSAULT_SHIP);

  00445	6a 16		 push	 22			; 00000016H
  00447	8b 45 fc	 mov	 eax, DWORD PTR _this_force$[ebp]
  0044a	50		 push	 eax
  0044b	e8 00 00 00 00	 call	 ?get_local_force_entity_group_count@@YGHPAUENTITY@@H@Z ; get_local_force_entity_group_count
  00450	89 45 e8	 mov	 DWORD PTR _this_count$[ebp], eax

; 666  : 	this_count += get_local_force_entity_group_count (this_force, ENTITY_SUB_TYPE_GROUP_FRIGATE);

  00453	6a 17		 push	 23			; 00000017H
  00455	8b 45 fc	 mov	 eax, DWORD PTR _this_force$[ebp]
  00458	50		 push	 eax
  00459	e8 00 00 00 00	 call	 ?get_local_force_entity_group_count@@YGHPAUENTITY@@H@Z ; get_local_force_entity_group_count
  0045e	03 45 e8	 add	 eax, DWORD PTR _this_count$[ebp]
  00461	89 45 e8	 mov	 DWORD PTR _this_count$[ebp], eax

; 667  : 	this_count += get_local_force_entity_group_count (this_force, ENTITY_SUB_TYPE_GROUP_LANDING_CRAFT);

  00464	6a 18		 push	 24			; 00000018H
  00466	8b 45 fc	 mov	 eax, DWORD PTR _this_force$[ebp]
  00469	50		 push	 eax
  0046a	e8 00 00 00 00	 call	 ?get_local_force_entity_group_count@@YGHPAUENTITY@@H@Z ; get_local_force_entity_group_count
  0046f	03 45 e8	 add	 eax, DWORD PTR _this_count$[ebp]
  00472	89 45 e8	 mov	 DWORD PTR _this_count$[ebp], eax

; 668  : 
; 669  : 	enemy_count = get_local_force_entity_group_count (enemy_force, ENTITY_SUB_TYPE_GROUP_ASSAULT_SHIP);

  00475	6a 16		 push	 22			; 00000016H
  00477	8b 45 f8	 mov	 eax, DWORD PTR _enemy_force$[ebp]
  0047a	50		 push	 eax
  0047b	e8 00 00 00 00	 call	 ?get_local_force_entity_group_count@@YGHPAUENTITY@@H@Z ; get_local_force_entity_group_count
  00480	89 45 e4	 mov	 DWORD PTR _enemy_count$[ebp], eax

; 670  : 	enemy_count += get_local_force_entity_group_count (enemy_force, ENTITY_SUB_TYPE_GROUP_FRIGATE);

  00483	6a 17		 push	 23			; 00000017H
  00485	8b 45 f8	 mov	 eax, DWORD PTR _enemy_force$[ebp]
  00488	50		 push	 eax
  00489	e8 00 00 00 00	 call	 ?get_local_force_entity_group_count@@YGHPAUENTITY@@H@Z ; get_local_force_entity_group_count
  0048e	03 45 e4	 add	 eax, DWORD PTR _enemy_count$[ebp]
  00491	89 45 e4	 mov	 DWORD PTR _enemy_count$[ebp], eax

; 671  : 	enemy_count += get_local_force_entity_group_count (enemy_force, ENTITY_SUB_TYPE_GROUP_LANDING_CRAFT);

  00494	6a 18		 push	 24			; 00000018H
  00496	8b 45 f8	 mov	 eax, DWORD PTR _enemy_force$[ebp]
  00499	50		 push	 eax
  0049a	e8 00 00 00 00	 call	 ?get_local_force_entity_group_count@@YGHPAUENTITY@@H@Z ; get_local_force_entity_group_count
  0049f	03 45 e4	 add	 eax, DWORD PTR _enemy_count$[ebp]
  004a2	89 45 e4	 mov	 DWORD PTR _enemy_count$[ebp], eax

; 672  : 
; 673  : 	total = this_count + enemy_count;

  004a5	8b 45 e8	 mov	 eax, DWORD PTR _this_count$[ebp]
  004a8	03 45 e4	 add	 eax, DWORD PTR _enemy_count$[ebp]
  004ab	89 45 ec	 mov	 DWORD PTR _total$[ebp], eax

; 674  : 
; 675  : 	draw_stats_page_unit_balance_of_power (obj, 4, this_side, this_count, total);

  004ae	8b 45 ec	 mov	 eax, DWORD PTR _total$[ebp]
  004b1	50		 push	 eax
  004b2	8b 4d e8	 mov	 ecx, DWORD PTR _this_count$[ebp]
  004b5	51		 push	 ecx
  004b6	8b 55 f4	 mov	 edx, DWORD PTR _this_side$[ebp]
  004b9	52		 push	 edx
  004ba	6a 04		 push	 4
  004bc	8b 45 08	 mov	 eax, DWORD PTR _obj$[ebp]
  004bf	50		 push	 eax
  004c0	e8 00 00 00 00	 call	 ?draw_stats_page_unit_balance_of_power@@YGXPAUUI_OBJECT@@HW4ENTITY_SIDES@@HH@Z ; draw_stats_page_unit_balance_of_power

; 676  : 	draw_stats_page_unit_balance_of_power (obj, 4, enemy_side, enemy_count, total);

  004c5	8b 45 ec	 mov	 eax, DWORD PTR _total$[ebp]
  004c8	50		 push	 eax
  004c9	8b 4d e4	 mov	 ecx, DWORD PTR _enemy_count$[ebp]
  004cc	51		 push	 ecx
  004cd	8b 55 f0	 mov	 edx, DWORD PTR _enemy_side$[ebp]
  004d0	52		 push	 edx
  004d1	6a 04		 push	 4
  004d3	8b 45 08	 mov	 eax, DWORD PTR _obj$[ebp]
  004d6	50		 push	 eax
  004d7	e8 00 00 00 00	 call	 ?draw_stats_page_unit_balance_of_power@@YGXPAUUI_OBJECT@@HW4ENTITY_SIDES@@HH@Z ; draw_stats_page_unit_balance_of_power

; 677  : 
; 678  : 	//
; 679  : 	// Air Defences
; 680  : 	//
; 681  : 
; 682  : 	y1 += dy;

  004dc	f3 0f 10 45 e0	 movss	 xmm0, DWORD PTR _y1$[ebp]
  004e1	f3 0f 58 45 d8	 addss	 xmm0, DWORD PTR _dy$[ebp]
  004e6	f3 0f 11 45 e0	 movss	 DWORD PTR _y1$[ebp], xmm0

; 683  : 	y2 += dy;

  004eb	f3 0f 10 45 dc	 movss	 xmm0, DWORD PTR _y2$[ebp]
  004f0	f3 0f 58 45 d8	 addss	 xmm0, DWORD PTR _dy$[ebp]
  004f5	f3 0f 11 45 dc	 movss	 DWORD PTR _y2$[ebp], xmm0

; 684  : 
; 685  : 	this_count = get_local_force_entity_group_count (this_force, ENTITY_SUB_TYPE_GROUP_ANTI_AIRCRAFT);

  004fa	6a 0e		 push	 14			; 0000000eH
  004fc	8b 45 fc	 mov	 eax, DWORD PTR _this_force$[ebp]
  004ff	50		 push	 eax
  00500	e8 00 00 00 00	 call	 ?get_local_force_entity_group_count@@YGHPAUENTITY@@H@Z ; get_local_force_entity_group_count
  00505	89 45 e8	 mov	 DWORD PTR _this_count$[ebp], eax

; 686  : 
; 687  : 	enemy_count = get_local_force_entity_group_count (enemy_force, ENTITY_SUB_TYPE_GROUP_ANTI_AIRCRAFT);

  00508	6a 0e		 push	 14			; 0000000eH
  0050a	8b 45 f8	 mov	 eax, DWORD PTR _enemy_force$[ebp]
  0050d	50		 push	 eax
  0050e	e8 00 00 00 00	 call	 ?get_local_force_entity_group_count@@YGHPAUENTITY@@H@Z ; get_local_force_entity_group_count
  00513	89 45 e4	 mov	 DWORD PTR _enemy_count$[ebp], eax

; 688  : 
; 689  : 	total = this_count + enemy_count;

  00516	8b 45 e8	 mov	 eax, DWORD PTR _this_count$[ebp]
  00519	03 45 e4	 add	 eax, DWORD PTR _enemy_count$[ebp]
  0051c	89 45 ec	 mov	 DWORD PTR _total$[ebp], eax

; 690  : 
; 691  : 	draw_stats_page_unit_balance_of_power (obj, 5, this_side, this_count, total);

  0051f	8b 45 ec	 mov	 eax, DWORD PTR _total$[ebp]
  00522	50		 push	 eax
  00523	8b 4d e8	 mov	 ecx, DWORD PTR _this_count$[ebp]
  00526	51		 push	 ecx
  00527	8b 55 f4	 mov	 edx, DWORD PTR _this_side$[ebp]
  0052a	52		 push	 edx
  0052b	6a 05		 push	 5
  0052d	8b 45 08	 mov	 eax, DWORD PTR _obj$[ebp]
  00530	50		 push	 eax
  00531	e8 00 00 00 00	 call	 ?draw_stats_page_unit_balance_of_power@@YGXPAUUI_OBJECT@@HW4ENTITY_SIDES@@HH@Z ; draw_stats_page_unit_balance_of_power

; 692  : 	draw_stats_page_unit_balance_of_power (obj, 5, enemy_side, enemy_count, total);

  00536	8b 45 ec	 mov	 eax, DWORD PTR _total$[ebp]
  00539	50		 push	 eax
  0053a	8b 4d e4	 mov	 ecx, DWORD PTR _enemy_count$[ebp]
  0053d	51		 push	 ecx
  0053e	8b 55 f0	 mov	 edx, DWORD PTR _enemy_side$[ebp]
  00541	52		 push	 edx
  00542	6a 05		 push	 5
  00544	8b 45 08	 mov	 eax, DWORD PTR _obj$[ebp]
  00547	50		 push	 eax
  00548	e8 00 00 00 00	 call	 ?draw_stats_page_unit_balance_of_power@@YGXPAUUI_OBJECT@@HW4ENTITY_SIDES@@HH@Z ; draw_stats_page_unit_balance_of_power

; 693  : 
; 694  : 	//
; 695  : 	// Armour
; 696  : 	//
; 697  : 
; 698  : 	y1 += dy;

  0054d	f3 0f 10 45 e0	 movss	 xmm0, DWORD PTR _y1$[ebp]
  00552	f3 0f 58 45 d8	 addss	 xmm0, DWORD PTR _dy$[ebp]
  00557	f3 0f 11 45 e0	 movss	 DWORD PTR _y1$[ebp], xmm0

; 699  : 	y2 += dy;

  0055c	f3 0f 10 45 dc	 movss	 xmm0, DWORD PTR _y2$[ebp]
  00561	f3 0f 58 45 d8	 addss	 xmm0, DWORD PTR _dy$[ebp]
  00566	f3 0f 11 45 dc	 movss	 DWORD PTR _y2$[ebp], xmm0

; 700  : 
; 701  : 	this_count = get_local_force_entity_group_count (this_force, ENTITY_SUB_TYPE_GROUP_PRIMARY_FRONTLINE);

  0056b	6a 0f		 push	 15			; 0000000fH
  0056d	8b 45 fc	 mov	 eax, DWORD PTR _this_force$[ebp]
  00570	50		 push	 eax
  00571	e8 00 00 00 00	 call	 ?get_local_force_entity_group_count@@YGHPAUENTITY@@H@Z ; get_local_force_entity_group_count
  00576	89 45 e8	 mov	 DWORD PTR _this_count$[ebp], eax

; 702  : 	this_count += get_local_force_entity_group_count (this_force, ENTITY_SUB_TYPE_GROUP_SECONDARY_FRONTLINE);

  00579	6a 10		 push	 16			; 00000010H
  0057b	8b 45 fc	 mov	 eax, DWORD PTR _this_force$[ebp]
  0057e	50		 push	 eax
  0057f	e8 00 00 00 00	 call	 ?get_local_force_entity_group_count@@YGHPAUENTITY@@H@Z ; get_local_force_entity_group_count
  00584	03 45 e8	 add	 eax, DWORD PTR _this_count$[ebp]
  00587	89 45 e8	 mov	 DWORD PTR _this_count$[ebp], eax

; 703  : 	this_count += get_local_force_entity_group_count (this_force, ENTITY_SUB_TYPE_GROUP_SELF_PROPELLED_ARTILLERY);

  0058a	6a 11		 push	 17			; 00000011H
  0058c	8b 45 fc	 mov	 eax, DWORD PTR _this_force$[ebp]
  0058f	50		 push	 eax
  00590	e8 00 00 00 00	 call	 ?get_local_force_entity_group_count@@YGHPAUENTITY@@H@Z ; get_local_force_entity_group_count
  00595	03 45 e8	 add	 eax, DWORD PTR _this_count$[ebp]
  00598	89 45 e8	 mov	 DWORD PTR _this_count$[ebp], eax

; 704  : 	this_count += get_local_force_entity_group_count (this_force, ENTITY_SUB_TYPE_GROUP_SELF_PROPELLED_MLRS);

  0059b	6a 12		 push	 18			; 00000012H
  0059d	8b 45 fc	 mov	 eax, DWORD PTR _this_force$[ebp]
  005a0	50		 push	 eax
  005a1	e8 00 00 00 00	 call	 ?get_local_force_entity_group_count@@YGHPAUENTITY@@H@Z ; get_local_force_entity_group_count
  005a6	03 45 e8	 add	 eax, DWORD PTR _this_count$[ebp]
  005a9	89 45 e8	 mov	 DWORD PTR _this_count$[ebp], eax

; 705  : 
; 706  : 	enemy_count = get_local_force_entity_group_count (enemy_force, ENTITY_SUB_TYPE_GROUP_PRIMARY_FRONTLINE);

  005ac	6a 0f		 push	 15			; 0000000fH
  005ae	8b 45 f8	 mov	 eax, DWORD PTR _enemy_force$[ebp]
  005b1	50		 push	 eax
  005b2	e8 00 00 00 00	 call	 ?get_local_force_entity_group_count@@YGHPAUENTITY@@H@Z ; get_local_force_entity_group_count
  005b7	89 45 e4	 mov	 DWORD PTR _enemy_count$[ebp], eax

; 707  : 	enemy_count += get_local_force_entity_group_count (enemy_force, ENTITY_SUB_TYPE_GROUP_SECONDARY_FRONTLINE);

  005ba	6a 10		 push	 16			; 00000010H
  005bc	8b 45 f8	 mov	 eax, DWORD PTR _enemy_force$[ebp]
  005bf	50		 push	 eax
  005c0	e8 00 00 00 00	 call	 ?get_local_force_entity_group_count@@YGHPAUENTITY@@H@Z ; get_local_force_entity_group_count
  005c5	03 45 e4	 add	 eax, DWORD PTR _enemy_count$[ebp]
  005c8	89 45 e4	 mov	 DWORD PTR _enemy_count$[ebp], eax

; 708  : 	enemy_count += get_local_force_entity_group_count (enemy_force, ENTITY_SUB_TYPE_GROUP_SELF_PROPELLED_ARTILLERY);

  005cb	6a 11		 push	 17			; 00000011H
  005cd	8b 45 f8	 mov	 eax, DWORD PTR _enemy_force$[ebp]
  005d0	50		 push	 eax
  005d1	e8 00 00 00 00	 call	 ?get_local_force_entity_group_count@@YGHPAUENTITY@@H@Z ; get_local_force_entity_group_count
  005d6	03 45 e4	 add	 eax, DWORD PTR _enemy_count$[ebp]
  005d9	89 45 e4	 mov	 DWORD PTR _enemy_count$[ebp], eax

; 709  : 	enemy_count += get_local_force_entity_group_count (enemy_force, ENTITY_SUB_TYPE_GROUP_SELF_PROPELLED_MLRS);

  005dc	6a 12		 push	 18			; 00000012H
  005de	8b 45 f8	 mov	 eax, DWORD PTR _enemy_force$[ebp]
  005e1	50		 push	 eax
  005e2	e8 00 00 00 00	 call	 ?get_local_force_entity_group_count@@YGHPAUENTITY@@H@Z ; get_local_force_entity_group_count
  005e7	03 45 e4	 add	 eax, DWORD PTR _enemy_count$[ebp]
  005ea	89 45 e4	 mov	 DWORD PTR _enemy_count$[ebp], eax

; 710  : 
; 711  : 	total = this_count + enemy_count;

  005ed	8b 45 e8	 mov	 eax, DWORD PTR _this_count$[ebp]
  005f0	03 45 e4	 add	 eax, DWORD PTR _enemy_count$[ebp]
  005f3	89 45 ec	 mov	 DWORD PTR _total$[ebp], eax

; 712  : 
; 713  : 	draw_stats_page_unit_balance_of_power (obj, 6, this_side, this_count, total);

  005f6	8b 45 ec	 mov	 eax, DWORD PTR _total$[ebp]
  005f9	50		 push	 eax
  005fa	8b 4d e8	 mov	 ecx, DWORD PTR _this_count$[ebp]
  005fd	51		 push	 ecx
  005fe	8b 55 f4	 mov	 edx, DWORD PTR _this_side$[ebp]
  00601	52		 push	 edx
  00602	6a 06		 push	 6
  00604	8b 45 08	 mov	 eax, DWORD PTR _obj$[ebp]
  00607	50		 push	 eax
  00608	e8 00 00 00 00	 call	 ?draw_stats_page_unit_balance_of_power@@YGXPAUUI_OBJECT@@HW4ENTITY_SIDES@@HH@Z ; draw_stats_page_unit_balance_of_power

; 714  : 	draw_stats_page_unit_balance_of_power (obj, 6, enemy_side, enemy_count, total);

  0060d	8b 45 ec	 mov	 eax, DWORD PTR _total$[ebp]
  00610	50		 push	 eax
  00611	8b 4d e4	 mov	 ecx, DWORD PTR _enemy_count$[ebp]
  00614	51		 push	 ecx
  00615	8b 55 f0	 mov	 edx, DWORD PTR _enemy_side$[ebp]
  00618	52		 push	 edx
  00619	6a 06		 push	 6
  0061b	8b 45 08	 mov	 eax, DWORD PTR _obj$[ebp]
  0061e	50		 push	 eax
  0061f	e8 00 00 00 00	 call	 ?draw_stats_page_unit_balance_of_power@@YGXPAUUI_OBJECT@@HW4ENTITY_SIDES@@HH@Z ; draw_stats_page_unit_balance_of_power

; 715  : 
; 716  : 	//
; 717  : 	// Sector Sides
; 718  : 	//
; 719  : 
; 720  : 	this_count = get_local_entity_int_value (this_force, INT_TYPE_FORCE_SECTOR_COUNT);

  00624	83 7d fc 00	 cmp	 DWORD PTR _this_force$[ebp], 0
  00628	74 0a		 je	 SHORT $LN11@update_sta
  0062a	8b 45 fc	 mov	 eax, DWORD PTR _this_force$[ebp]
  0062d	8b 08		 mov	 ecx, DWORD PTR [eax]
  0062f	89 4d 94	 mov	 DWORD PTR tv390[ebp], ecx
  00632	eb 24		 jmp	 SHORT $LN12@update_sta
$LN11@update_sta:
  00634	8b 15 00 00 00
	00		 mov	 edx, DWORD PTR ?__LINE__Var@?0??update_stats_page_balance_of_power_objects@@YGXPAUUI_OBJECT@@PAX@Z@4JA
  0063a	81 c2 b1 00 00
	00		 add	 edx, 177		; 000000b1H
  00640	52		 push	 edx
  00641	68 00 00 00 00	 push	 OFFSET ??_C@_0EO@OLFIJIAE@c?3?2users?2nhv90?2projects?2eech?2ap@
  00646	a1 00 00 00 00	 mov	 eax, DWORD PTR ?null_entity_pointer_message@@3PBDB ; null_entity_pointer_message
  0064b	50		 push	 eax
  0064c	e8 00 00 00 00	 call	 ?process_assert@@YGXPBD0H@Z ; process_assert
  00651	c7 45 94 00 00
	00 00		 mov	 DWORD PTR tv390[ebp], 0
$LN12@update_sta:
  00658	b9 01 00 00 00	 mov	 ecx, 1
  0065d	85 c9		 test	 ecx, ecx
  0065f	74 09		 je	 SHORT $LN13@update_sta
  00661	c7 45 90 3d 00
	00 00		 mov	 DWORD PTR tv398[ebp], 61 ; 0000003dH
  00668	eb 24		 jmp	 SHORT $LN14@update_sta
$LN13@update_sta:
  0066a	8b 15 00 00 00
	00		 mov	 edx, DWORD PTR ?__LINE__Var@?0??update_stats_page_balance_of_power_objects@@YGXPAUUI_OBJECT@@PAX@Z@4JA
  00670	81 c2 b1 00 00
	00		 add	 edx, 177		; 000000b1H
  00676	52		 push	 edx
  00677	68 00 00 00 00	 push	 OFFSET ??_C@_0EO@OLFIJIAE@c?3?2users?2nhv90?2projects?2eech?2ap@
  0067c	a1 00 00 00 00	 mov	 eax, DWORD PTR ?overload_invalid_int_type_message@@3PBDB ; overload_invalid_int_type_message
  00681	50		 push	 eax
  00682	e8 00 00 00 00	 call	 ?process_assert@@YGXPBD0H@Z ; process_assert
  00687	c7 45 90 00 00
	00 00		 mov	 DWORD PTR tv398[ebp], 0
$LN14@update_sta:
  0068e	6a 3d		 push	 61			; 0000003dH
  00690	8b 4d fc	 mov	 ecx, DWORD PTR _this_force$[ebp]
  00693	51		 push	 ecx
  00694	69 55 94 5c 04
	00 00		 imul	 edx, DWORD PTR tv390[ebp], 1116
  0069b	8b 45 90	 mov	 eax, DWORD PTR tv398[ebp]
  0069e	8b 8c 82 00 00
	00 00		 mov	 ecx, DWORD PTR ?fn_get_local_entity_int_value@@3PAY0BBH@P6GHPAUENTITY@@W4INT_TYPES@@@ZA[edx+eax*4]
  006a5	ff d1		 call	 ecx
  006a7	89 45 e8	 mov	 DWORD PTR _this_count$[ebp], eax

; 721  : 
; 722  : 	enemy_count = get_local_entity_int_value (enemy_force, INT_TYPE_FORCE_SECTOR_COUNT);

  006aa	83 7d f8 00	 cmp	 DWORD PTR _enemy_force$[ebp], 0
  006ae	74 0a		 je	 SHORT $LN15@update_sta
  006b0	8b 45 f8	 mov	 eax, DWORD PTR _enemy_force$[ebp]
  006b3	8b 08		 mov	 ecx, DWORD PTR [eax]
  006b5	89 4d 94	 mov	 DWORD PTR tv410[ebp], ecx
  006b8	eb 24		 jmp	 SHORT $LN16@update_sta
$LN15@update_sta:
  006ba	8b 15 00 00 00
	00		 mov	 edx, DWORD PTR ?__LINE__Var@?0??update_stats_page_balance_of_power_objects@@YGXPAUUI_OBJECT@@PAX@Z@4JA
  006c0	81 c2 b3 00 00
	00		 add	 edx, 179		; 000000b3H
  006c6	52		 push	 edx
  006c7	68 00 00 00 00	 push	 OFFSET ??_C@_0EO@OLFIJIAE@c?3?2users?2nhv90?2projects?2eech?2ap@
  006cc	a1 00 00 00 00	 mov	 eax, DWORD PTR ?null_entity_pointer_message@@3PBDB ; null_entity_pointer_message
  006d1	50		 push	 eax
  006d2	e8 00 00 00 00	 call	 ?process_assert@@YGXPBD0H@Z ; process_assert
  006d7	c7 45 94 00 00
	00 00		 mov	 DWORD PTR tv410[ebp], 0
$LN16@update_sta:
  006de	b9 01 00 00 00	 mov	 ecx, 1
  006e3	85 c9		 test	 ecx, ecx
  006e5	74 09		 je	 SHORT $LN17@update_sta
  006e7	c7 45 90 3d 00
	00 00		 mov	 DWORD PTR tv418[ebp], 61 ; 0000003dH
  006ee	eb 24		 jmp	 SHORT $LN18@update_sta
$LN17@update_sta:
  006f0	8b 15 00 00 00
	00		 mov	 edx, DWORD PTR ?__LINE__Var@?0??update_stats_page_balance_of_power_objects@@YGXPAUUI_OBJECT@@PAX@Z@4JA
  006f6	81 c2 b3 00 00
	00		 add	 edx, 179		; 000000b3H
  006fc	52		 push	 edx
  006fd	68 00 00 00 00	 push	 OFFSET ??_C@_0EO@OLFIJIAE@c?3?2users?2nhv90?2projects?2eech?2ap@
  00702	a1 00 00 00 00	 mov	 eax, DWORD PTR ?overload_invalid_int_type_message@@3PBDB ; overload_invalid_int_type_message
  00707	50		 push	 eax
  00708	e8 00 00 00 00	 call	 ?process_assert@@YGXPBD0H@Z ; process_assert
  0070d	c7 45 90 00 00
	00 00		 mov	 DWORD PTR tv418[ebp], 0
$LN18@update_sta:
  00714	6a 3d		 push	 61			; 0000003dH
  00716	8b 4d f8	 mov	 ecx, DWORD PTR _enemy_force$[ebp]
  00719	51		 push	 ecx
  0071a	69 55 94 5c 04
	00 00		 imul	 edx, DWORD PTR tv410[ebp], 1116
  00721	8b 45 90	 mov	 eax, DWORD PTR tv418[ebp]
  00724	8b 8c 82 00 00
	00 00		 mov	 ecx, DWORD PTR ?fn_get_local_entity_int_value@@3PAY0BBH@P6GHPAUENTITY@@W4INT_TYPES@@@ZA[edx+eax*4]
  0072b	ff d1		 call	 ecx
  0072d	89 45 e4	 mov	 DWORD PTR _enemy_count$[ebp], eax

; 723  : 
; 724  : 	total = this_count + enemy_count;

  00730	8b 45 e8	 mov	 eax, DWORD PTR _this_count$[ebp]
  00733	03 45 e4	 add	 eax, DWORD PTR _enemy_count$[ebp]
  00736	89 45 ec	 mov	 DWORD PTR _total$[ebp], eax

; 725  : 
; 726  : 	draw_stats_page_sector_side_balance_of_power (obj, this_side, this_count, total);

  00739	8b 45 ec	 mov	 eax, DWORD PTR _total$[ebp]
  0073c	50		 push	 eax
  0073d	8b 4d e8	 mov	 ecx, DWORD PTR _this_count$[ebp]
  00740	51		 push	 ecx
  00741	8b 55 f4	 mov	 edx, DWORD PTR _this_side$[ebp]
  00744	52		 push	 edx
  00745	8b 45 08	 mov	 eax, DWORD PTR _obj$[ebp]
  00748	50		 push	 eax
  00749	e8 00 00 00 00	 call	 ?draw_stats_page_sector_side_balance_of_power@@YGXPAUUI_OBJECT@@W4ENTITY_SIDES@@HH@Z ; draw_stats_page_sector_side_balance_of_power

; 727  : 	draw_stats_page_sector_side_balance_of_power (obj, enemy_side, enemy_count, total);

  0074e	8b 45 ec	 mov	 eax, DWORD PTR _total$[ebp]
  00751	50		 push	 eax
  00752	8b 4d e4	 mov	 ecx, DWORD PTR _enemy_count$[ebp]
  00755	51		 push	 ecx
  00756	8b 55 f0	 mov	 edx, DWORD PTR _enemy_side$[ebp]
  00759	52		 push	 edx
  0075a	8b 45 08	 mov	 eax, DWORD PTR _obj$[ebp]
  0075d	50		 push	 eax
  0075e	e8 00 00 00 00	 call	 ?draw_stats_page_sector_side_balance_of_power@@YGXPAUUI_OBJECT@@W4ENTITY_SIDES@@HH@Z ; draw_stats_page_sector_side_balance_of_power

; 728  : }

  00763	5f		 pop	 edi
  00764	5e		 pop	 esi
  00765	5b		 pop	 ebx
  00766	8b e5		 mov	 esp, ebp
  00768	5d		 pop	 ebp
  00769	c2 08 00	 ret	 8
?update_stats_page_balance_of_power_objects@@YGXPAUUI_OBJECT@@PAX@Z ENDP ; update_stats_page_balance_of_power_objects
_TEXT	ENDS
; Function compile flags: /Odtp /ZI
; File c:\users\nhv90\projects\eech\aphavoc\source\ui_menu\ingame\campaign\ca_stat.c
;	COMDAT ?update_stats_page_objects@@YGXPAUUI_OBJECT@@PAX@Z
_TEXT	SEGMENT
_obj$ = 8						; size = 4
_arg$ = 12						; size = 4
?update_stats_page_objects@@YGXPAUUI_OBJECT@@PAX@Z PROC	; update_stats_page_objects, COMDAT

; 534  : {

  00000	55		 push	 ebp
  00001	8b ec		 mov	 ebp, esp
  00003	83 ec 40	 sub	 esp, 64			; 00000040H
  00006	53		 push	 ebx
  00007	56		 push	 esi
  00008	57		 push	 edi

; 535  : 	set_ui_object_drawable (page_back_button, get_campaign_history_valid ());

  00009	e8 00 00 00 00	 call	 ?get_campaign_history_valid@@YGHXZ ; get_campaign_history_valid
  0000e	50		 push	 eax
  0000f	a1 00 00 00 00	 mov	 eax, DWORD PTR ?page_back_button@@3PAUUI_OBJECT@@A
  00014	50		 push	 eax
  00015	8b 0d 00 00 00
	00		 mov	 ecx, DWORD PTR ?page_back_button@@3PAUUI_OBJECT@@A
  0001b	8b 11		 mov	 edx, DWORD PTR [ecx]
  0001d	8b 04 95 00 00
	00 00		 mov	 eax, DWORD PTR ?fn_set_ui_object_drawable@@3PAP6GXPAUUI_OBJECT@@H@ZA[edx*4]
  00024	ff d0		 call	 eax

; 536  : }

  00026	5f		 pop	 edi
  00027	5e		 pop	 esi
  00028	5b		 pop	 ebx
  00029	8b e5		 mov	 esp, ebp
  0002b	5d		 pop	 ebp
  0002c	c2 08 00	 ret	 8
?update_stats_page_objects@@YGXPAUUI_OBJECT@@PAX@Z ENDP	; update_stats_page_objects
_TEXT	ENDS
; Function compile flags: /Odtp /ZI
; File c:\users\nhv90\projects\eech\aphavoc\source\ui_menu\ingame\campaign\ca_stat.c
;	COMDAT ?draw_stats_page_sector_side_balance_of_power@@YGXPAUUI_OBJECT@@W4ENTITY_SIDES@@HH@Z
_TEXT	SEGMENT
tv83 = -124						; size = 4
tv95 = -120						; size = 4
tv75 = -120						; size = 4
_graphic$ = -52						; size = 4
_s$ = -48						; size = 16
_w$ = -32						; size = 4
_t$ = -28						; size = 4
_c$ = -24						; size = 4
_y2$ = -20						; size = 4
_x2$ = -16						; size = 4
_y1$ = -12						; size = 4
_x1$ = -8						; size = 4
_this_side$ = -4					; size = 4
_obj$ = 8						; size = 4
_side$ = 12						; size = 4
_count$ = 16						; size = 4
_total$ = 20						; size = 4
?draw_stats_page_sector_side_balance_of_power@@YGXPAUUI_OBJECT@@W4ENTITY_SIDES@@HH@Z PROC ; draw_stats_page_sector_side_balance_of_power, COMDAT

; 450  : {

  00000	55		 push	 ebp
  00001	8b ec		 mov	 ebp, esp
  00003	83 ec 7c	 sub	 esp, 124		; 0000007cH
  00006	53		 push	 ebx
  00007	56		 push	 esi
  00008	57		 push	 edi

; 451  : 	entity_sides
; 452  : 		this_side;
; 453  : 
; 454  : 	float
; 455  : 		x1, y1,
; 456  : 		x2, y2,
; 457  : 		c, t, w;
; 458  : 
; 459  : 	char
; 460  : 		s [16];
; 461  : 
; 462  : 	texture_graphic
; 463  : 		*graphic;
; 464  : 		
; 465  : 	ASSERT (obj);

  00009	83 7d 08 00	 cmp	 DWORD PTR _obj$[ebp], 0
  0000d	75 18		 jne	 SHORT $LN4@draw_stats
  0000f	a1 00 00 00 00	 mov	 eax, DWORD PTR ?__LINE__Var@?0??draw_stats_page_sector_side_balance_of_power@@YGXPAUUI_OBJECT@@W4ENTITY_SIDES@@HH@Z@4JA
  00014	83 c0 0f	 add	 eax, 15			; 0000000fH
  00017	50		 push	 eax
  00018	68 00 00 00 00	 push	 OFFSET ??_C@_0EO@OLFIJIAE@c?3?2users?2nhv90?2projects?2eech?2ap@
  0001d	68 00 00 00 00	 push	 OFFSET ??_C@_03GJLPFLNF@obj@
  00022	e8 00 00 00 00	 call	 ?process_assert@@YGXPBD0H@Z ; process_assert
$LN4@draw_stats:

; 466  : 	
; 467  : 	x1 = BPOWER_MAIN_AREA_XMIN;

  00027	f3 0f 10 05 00
	00 00 00	 movss	 xmm0, DWORD PTR __real@3e0b4396
  0002f	f3 0f 11 45 f8	 movss	 DWORD PTR _x1$[ebp], xmm0

; 468  : 	x2 = BPOWER_MAIN_AREA_XMAX;

  00034	f3 0f 10 05 00
	00 00 00	 movss	 xmm0, DWORD PTR __real@3f800000
  0003c	f3 0f 11 45 f0	 movss	 DWORD PTR _x2$[ebp], xmm0

; 469  : 
; 470  : 	y1 = BPOWER_SIDE_AREA_YMIN;

  00041	0f 57 c0	 xorps	 xmm0, xmm0
  00044	f3 0f 11 45 f4	 movss	 DWORD PTR _y1$[ebp], xmm0

; 471  : 	y2 = BPOWER_SIDE_AREA_YMAX;

  00049	f3 0f 10 05 00
	00 00 00	 movss	 xmm0, DWORD PTR __real@3dfbe76d
  00051	f3 0f 11 45 ec	 movss	 DWORD PTR _y2$[ebp], xmm0

; 472  : 
; 473  : 	this_side = (entity_sides) get_local_entity_int_value (get_pilot_entity (), INT_TYPE_SIDE);

  00056	83 3d 00 00 00
	00 00		 cmp	 DWORD PTR ?pilot_entity@@3PAUENTITY@@A, 0 ; pilot_entity
  0005d	74 0c		 je	 SHORT $LN15@draw_stats
  0005f	a1 00 00 00 00	 mov	 eax, DWORD PTR ?pilot_entity@@3PAUENTITY@@A ; pilot_entity
  00064	8b 08		 mov	 ecx, DWORD PTR [eax]
  00066	89 4d 88	 mov	 DWORD PTR tv75[ebp], ecx
  00069	eb 21		 jmp	 SHORT $LN16@draw_stats
$LN15@draw_stats:
  0006b	8b 15 00 00 00
	00		 mov	 edx, DWORD PTR ?__LINE__Var@?0??draw_stats_page_sector_side_balance_of_power@@YGXPAUUI_OBJECT@@W4ENTITY_SIDES@@HH@Z@4JA
  00071	83 c2 17	 add	 edx, 23			; 00000017H
  00074	52		 push	 edx
  00075	68 00 00 00 00	 push	 OFFSET ??_C@_0EO@OLFIJIAE@c?3?2users?2nhv90?2projects?2eech?2ap@
  0007a	a1 00 00 00 00	 mov	 eax, DWORD PTR ?null_entity_pointer_message@@3PBDB ; null_entity_pointer_message
  0007f	50		 push	 eax
  00080	e8 00 00 00 00	 call	 ?process_assert@@YGXPBD0H@Z ; process_assert
  00085	c7 45 88 00 00
	00 00		 mov	 DWORD PTR tv75[ebp], 0
$LN16@draw_stats:
  0008c	b9 01 00 00 00	 mov	 ecx, 1
  00091	85 c9		 test	 ecx, ecx
  00093	74 09		 je	 SHORT $LN17@draw_stats
  00095	c7 45 84 bb 00
	00 00		 mov	 DWORD PTR tv83[ebp], 187 ; 000000bbH
  0009c	eb 21		 jmp	 SHORT $LN18@draw_stats
$LN17@draw_stats:
  0009e	8b 15 00 00 00
	00		 mov	 edx, DWORD PTR ?__LINE__Var@?0??draw_stats_page_sector_side_balance_of_power@@YGXPAUUI_OBJECT@@W4ENTITY_SIDES@@HH@Z@4JA
  000a4	83 c2 17	 add	 edx, 23			; 00000017H
  000a7	52		 push	 edx
  000a8	68 00 00 00 00	 push	 OFFSET ??_C@_0EO@OLFIJIAE@c?3?2users?2nhv90?2projects?2eech?2ap@
  000ad	a1 00 00 00 00	 mov	 eax, DWORD PTR ?overload_invalid_int_type_message@@3PBDB ; overload_invalid_int_type_message
  000b2	50		 push	 eax
  000b3	e8 00 00 00 00	 call	 ?process_assert@@YGXPBD0H@Z ; process_assert
  000b8	c7 45 84 00 00
	00 00		 mov	 DWORD PTR tv83[ebp], 0
$LN18@draw_stats:
  000bf	68 bb 00 00 00	 push	 187			; 000000bbH
  000c4	8b 0d 00 00 00
	00		 mov	 ecx, DWORD PTR ?pilot_entity@@3PAUENTITY@@A ; pilot_entity
  000ca	51		 push	 ecx
  000cb	69 55 88 5c 04
	00 00		 imul	 edx, DWORD PTR tv75[ebp], 1116
  000d2	8b 45 84	 mov	 eax, DWORD PTR tv83[ebp]
  000d5	8b 8c 82 00 00
	00 00		 mov	 ecx, DWORD PTR ?fn_get_local_entity_int_value@@3PAY0BBH@P6GHPAUENTITY@@W4INT_TYPES@@@ZA[edx+eax*4]
  000dc	ff d1		 call	 ecx
  000de	89 45 fc	 mov	 DWORD PTR _this_side$[ebp], eax

; 474  : 
; 475  : 	c = (float)count;

  000e1	f3 0f 2a 45 10	 cvtsi2ss xmm0, DWORD PTR _count$[ebp]
  000e6	f3 0f 11 45 e8	 movss	 DWORD PTR _c$[ebp], xmm0

; 476  : 	t = (float)total;

  000eb	f3 0f 2a 45 14	 cvtsi2ss xmm0, DWORD PTR _total$[ebp]
  000f0	f3 0f 11 45 e4	 movss	 DWORD PTR _t$[ebp], xmm0

; 477  : 
; 478  : 	if (total > 0)

  000f5	83 7d 14 00	 cmp	 DWORD PTR _total$[ebp], 0
  000f9	0f 8e a5 00 00
	00		 jle	 $LN5@draw_stats

; 479  : 	{
; 480  : 		w = c / t;

  000ff	f3 0f 10 45 e8	 movss	 xmm0, DWORD PTR _c$[ebp]
  00104	f3 0f 5e 45 e4	 divss	 xmm0, DWORD PTR _t$[ebp]
  00109	f3 0f 11 45 e0	 movss	 DWORD PTR _w$[ebp], xmm0

; 481  : 	
; 482  : 		if (side != this_side)

  0010e	8b 45 0c	 mov	 eax, DWORD PTR _side$[ebp]
  00111	3b 45 fc	 cmp	 eax, DWORD PTR _this_side$[ebp]
  00114	74 11		 je	 SHORT $LN6@draw_stats

; 483  : 		{
; 484  : 			w = -w;

  00116	f3 0f 10 45 e0	 movss	 xmm0, DWORD PTR _w$[ebp]
  0011b	0f 57 05 00 00
	00 00		 xorps	 xmm0, DWORD PTR __xmm@80000000800000008000000080000000
  00122	f3 0f 11 45 e0	 movss	 DWORD PTR _w$[ebp], xmm0
$LN6@draw_stats:

; 485  : 		}
; 486  : 	
; 487  : 		switch (side)

  00127	8b 45 0c	 mov	 eax, DWORD PTR _side$[ebp]
  0012a	89 45 88	 mov	 DWORD PTR tv95[ebp], eax
  0012d	83 7d 88 01	 cmp	 DWORD PTR tv95[ebp], 1
  00131	74 08		 je	 SHORT $LN7@draw_stats
  00133	83 7d 88 02	 cmp	 DWORD PTR tv95[ebp], 2
  00137	74 0c		 je	 SHORT $LN8@draw_stats
  00139	eb 14		 jmp	 SHORT $LN9@draw_stats
$LN7@draw_stats:

; 488  : 		{
; 489  : 			case ENTITY_SIDE_BLUE_FORCE:
; 490  : 			{
; 491  : 				graphic = blue_bar_graphic;

  0013b	a1 00 00 00 00	 mov	 eax, DWORD PTR ?blue_bar_graphic@@3PAUTEXTURE_GRAPHIC@@A
  00140	89 45 cc	 mov	 DWORD PTR _graphic$[ebp], eax

; 492  : 	
; 493  : 				break;

  00143	eb 1b		 jmp	 SHORT $LN2@draw_stats
$LN8@draw_stats:

; 494  : 			}
; 495  : 			case ENTITY_SIDE_RED_FORCE:
; 496  : 			{
; 497  : 				graphic = red_bar_graphic;

  00145	a1 00 00 00 00	 mov	 eax, DWORD PTR ?red_bar_graphic@@3PAUTEXTURE_GRAPHIC@@A
  0014a	89 45 cc	 mov	 DWORD PTR _graphic$[ebp], eax

; 498  : 	
; 499  : 				break;

  0014d	eb 11		 jmp	 SHORT $LN2@draw_stats
$LN9@draw_stats:

; 500  : 			}
; 501  : 			default:
; 502  : 			{
; 503  : 				debug_fatal ("CA_STAT: Invalid side %d for balance of power bar", side);

  0014f	8b 45 0c	 mov	 eax, DWORD PTR _side$[ebp]
  00152	50		 push	 eax
  00153	68 00 00 00 00	 push	 OFFSET ??_C@_0DC@HLLNLKND@CA_STAT?3?5Invalid?5side?5?$CFd?5for?5ba@
  00158	e8 00 00 00 00	 call	 ?debug_fatal@@YAXPBDZZ	; debug_fatal
  0015d	83 c4 08	 add	 esp, 8
$LN2@draw_stats:

; 504  : 			}
; 505  : 		}
; 506  : 	
; 507  : 		draw_stats_page_colour_bar (obj, graphic, x1, y1, x2, y2, w);

  00160	51		 push	 ecx
  00161	f3 0f 10 45 e0	 movss	 xmm0, DWORD PTR _w$[ebp]
  00166	f3 0f 11 04 24	 movss	 DWORD PTR [esp], xmm0
  0016b	51		 push	 ecx
  0016c	f3 0f 10 45 ec	 movss	 xmm0, DWORD PTR _y2$[ebp]
  00171	f3 0f 11 04 24	 movss	 DWORD PTR [esp], xmm0
  00176	51		 push	 ecx
  00177	f3 0f 10 45 f0	 movss	 xmm0, DWORD PTR _x2$[ebp]
  0017c	f3 0f 11 04 24	 movss	 DWORD PTR [esp], xmm0
  00181	51		 push	 ecx
  00182	f3 0f 10 45 f4	 movss	 xmm0, DWORD PTR _y1$[ebp]
  00187	f3 0f 11 04 24	 movss	 DWORD PTR [esp], xmm0
  0018c	51		 push	 ecx
  0018d	f3 0f 10 45 f8	 movss	 xmm0, DWORD PTR _x1$[ebp]
  00192	f3 0f 11 04 24	 movss	 DWORD PTR [esp], xmm0
  00197	8b 45 cc	 mov	 eax, DWORD PTR _graphic$[ebp]
  0019a	50		 push	 eax
  0019b	8b 4d 08	 mov	 ecx, DWORD PTR _obj$[ebp]
  0019e	51		 push	 ecx
  0019f	e8 00 00 00 00	 call	 ?draw_stats_page_colour_bar@@YGXPAUUI_OBJECT@@PAUTEXTURE_GRAPHIC@@MMMMM@Z ; draw_stats_page_colour_bar
$LN5@draw_stats:

; 508  : 	}
; 509  : 	
; 510  : 	if (total > 0)

  001a4	83 7d 14 00	 cmp	 DWORD PTR _total$[ebp], 0
  001a8	7e 31		 jle	 SHORT $LN10@draw_stats

; 511  : 	{	
; 512  : 		sprintf (s, "%.0f%%", (100.0 * c / t));

  001aa	f3 0f 5a 45 e8	 cvtss2sd xmm0, DWORD PTR _c$[ebp]
  001af	f2 0f 59 05 00
	00 00 00	 mulsd	 xmm0, QWORD PTR __real@4059000000000000
  001b7	f3 0f 5a 4d e4	 cvtss2sd xmm1, DWORD PTR _t$[ebp]
  001bc	f2 0f 5e c1	 divsd	 xmm0, xmm1
  001c0	83 ec 08	 sub	 esp, 8
  001c3	f2 0f 11 04 24	 movsd	 QWORD PTR [esp], xmm0
  001c8	68 00 00 00 00	 push	 OFFSET ??_C@_06KLKJBGEJ@?$CF?40f?$CF?$CF@
  001cd	8d 45 d0	 lea	 eax, DWORD PTR _s$[ebp]
  001d0	50		 push	 eax
  001d1	e8 00 00 00 00	 call	 _sprintf
  001d6	83 c4 10	 add	 esp, 16			; 00000010H

; 513  : 	}
; 514  : 	else

  001d9	eb 11		 jmp	 SHORT $LN11@draw_stats
$LN10@draw_stats:

; 515  : 	{
; 516  : 		sprintf (s, "");

  001db	68 00 00 00 00	 push	 OFFSET ??_C@_00CNPNBAHC@@
  001e0	8d 45 d0	 lea	 eax, DWORD PTR _s$[ebp]
  001e3	50		 push	 eax
  001e4	e8 00 00 00 00	 call	 _sprintf
  001e9	83 c4 08	 add	 esp, 8
$LN11@draw_stats:

; 517  : 	}
; 518  : 
; 519  : 	if (side == this_side)

  001ec	8b 45 0c	 mov	 eax, DWORD PTR _side$[ebp]
  001ef	3b 45 fc	 cmp	 eax, DWORD PTR _this_side$[ebp]
  001f2	75 2e		 jne	 SHORT $LN12@draw_stats

; 520  : 	{
; 521  : 		set_ui_object_text (page_balance_sector_side_text_object [0], s);

  001f4	8d 45 d0	 lea	 eax, DWORD PTR _s$[ebp]
  001f7	50		 push	 eax
  001f8	b9 04 00 00 00	 mov	 ecx, 4
  001fd	6b d1 00	 imul	 edx, ecx, 0
  00200	8b 82 00 00 00
	00		 mov	 eax, DWORD PTR ?page_balance_sector_side_text_object@@3PAPAUUI_OBJECT@@A[edx]
  00206	50		 push	 eax
  00207	b9 04 00 00 00	 mov	 ecx, 4
  0020c	6b d1 00	 imul	 edx, ecx, 0
  0020f	8b 82 00 00 00
	00		 mov	 eax, DWORD PTR ?page_balance_sector_side_text_object@@3PAPAUUI_OBJECT@@A[edx]
  00215	8b 08		 mov	 ecx, DWORD PTR [eax]
  00217	8b 14 8d 00 00
	00 00		 mov	 edx, DWORD PTR ?fn_set_ui_object_text@@3PAP6GXPAUUI_OBJECT@@PBD@ZA[ecx*4]
  0021e	ff d2		 call	 edx

; 522  : 	}
; 523  : 	else

  00220	eb 2c		 jmp	 SHORT $LN13@draw_stats
$LN12@draw_stats:

; 524  : 	{
; 525  : 		set_ui_object_text (page_balance_sector_side_text_object [1], s);

  00222	8d 45 d0	 lea	 eax, DWORD PTR _s$[ebp]
  00225	50		 push	 eax
  00226	b9 04 00 00 00	 mov	 ecx, 4
  0022b	c1 e1 00	 shl	 ecx, 0
  0022e	8b 91 00 00 00
	00		 mov	 edx, DWORD PTR ?page_balance_sector_side_text_object@@3PAPAUUI_OBJECT@@A[ecx]
  00234	52		 push	 edx
  00235	b8 04 00 00 00	 mov	 eax, 4
  0023a	c1 e0 00	 shl	 eax, 0
  0023d	8b 88 00 00 00
	00		 mov	 ecx, DWORD PTR ?page_balance_sector_side_text_object@@3PAPAUUI_OBJECT@@A[eax]
  00243	8b 11		 mov	 edx, DWORD PTR [ecx]
  00245	8b 04 95 00 00
	00 00		 mov	 eax, DWORD PTR ?fn_set_ui_object_text@@3PAP6GXPAUUI_OBJECT@@PBD@ZA[edx*4]
  0024c	ff d0		 call	 eax
$LN13@draw_stats:

; 526  : 	}
; 527  : }

  0024e	5f		 pop	 edi
  0024f	5e		 pop	 esi
  00250	5b		 pop	 ebx
  00251	8b e5		 mov	 esp, ebp
  00253	5d		 pop	 ebp
  00254	c2 10 00	 ret	 16			; 00000010H
?draw_stats_page_sector_side_balance_of_power@@YGXPAUUI_OBJECT@@W4ENTITY_SIDES@@HH@Z ENDP ; draw_stats_page_sector_side_balance_of_power
_TEXT	ENDS
; Function compile flags: /Odtp /ZI
; File c:\users\nhv90\projects\eech\aphavoc\source\ui_menu\ingame\campaign\ca_stat.c
;	COMDAT ?draw_stats_page_unit_balance_of_power@@YGXPAUUI_OBJECT@@HW4ENTITY_SIDES@@HH@Z
_TEXT	SEGMENT
tv89 = -128						; size = 4
tv133 = -124						; size = 4
tv81 = -124						; size = 4
_graphic$ = -56						; size = 4
_s$ = -52						; size = 16
_w$ = -36						; size = 4
_t$ = -32						; size = 4
_c$ = -28						; size = 4
_y2$ = -24						; size = 4
_x2$ = -20						; size = 4
_y1$ = -16						; size = 4
_x1$ = -12						; size = 4
_dy$ = -8						; size = 4
_this_side$ = -4					; size = 4
_obj$ = 8						; size = 4
_index$ = 12						; size = 4
_side$ = 16						; size = 4
_count$ = 20						; size = 4
_total$ = 24						; size = 4
?draw_stats_page_unit_balance_of_power@@YGXPAUUI_OBJECT@@HW4ENTITY_SIDES@@HH@Z PROC ; draw_stats_page_unit_balance_of_power, COMDAT

; 354  : {

  00000	55		 push	 ebp
  00001	8b ec		 mov	 ebp, esp
  00003	81 ec 80 00 00
	00		 sub	 esp, 128		; 00000080H
  00009	53		 push	 ebx
  0000a	56		 push	 esi
  0000b	57		 push	 edi

; 355  : 	entity_sides
; 356  : 		this_side;
; 357  : 
; 358  : 	float
; 359  : 		dy,
; 360  : 		x1, y1,
; 361  : 		x2, y2,
; 362  : 		c, t, w;
; 363  : 
; 364  : 	char
; 365  : 		s [16];
; 366  : 
; 367  : 	texture_graphic
; 368  : 		*graphic;
; 369  : 		
; 370  : 	ASSERT (obj);

  0000c	83 7d 08 00	 cmp	 DWORD PTR _obj$[ebp], 0
  00010	75 18		 jne	 SHORT $LN4@draw_stats
  00012	a1 00 00 00 00	 mov	 eax, DWORD PTR ?__LINE__Var@?0??draw_stats_page_unit_balance_of_power@@YGXPAUUI_OBJECT@@HW4ENTITY_SIDES@@HH@Z@4JA
  00017	83 c0 10	 add	 eax, 16			; 00000010H
  0001a	50		 push	 eax
  0001b	68 00 00 00 00	 push	 OFFSET ??_C@_0EO@OLFIJIAE@c?3?2users?2nhv90?2projects?2eech?2ap@
  00020	68 00 00 00 00	 push	 OFFSET ??_C@_03GJLPFLNF@obj@
  00025	e8 00 00 00 00	 call	 ?process_assert@@YGXPBD0H@Z ; process_assert
$LN4@draw_stats:

; 371  : 	
; 372  : 	x1 = BPOWER_MAIN_AREA_XMIN;

  0002a	f3 0f 10 05 00
	00 00 00	 movss	 xmm0, DWORD PTR __real@3e0b4396
  00032	f3 0f 11 45 f4	 movss	 DWORD PTR _x1$[ebp], xmm0

; 373  : 	x2 = BPOWER_MAIN_AREA_XMAX;

  00037	f3 0f 10 05 00
	00 00 00	 movss	 xmm0, DWORD PTR __real@3f800000
  0003f	f3 0f 11 45 ec	 movss	 DWORD PTR _x2$[ebp], xmm0

; 374  : 
; 375  : 	dy = (BPOWER_MAIN_AREA_YMAX - BPOWER_MAIN_AREA_YMIN) / BPOWER_MAIN_AREA_ITEM_COUNT;

  00044	f3 0f 10 05 00
	00 00 00	 movss	 xmm0, DWORD PTR __real@3df28aae
  0004c	f3 0f 11 45 f8	 movss	 DWORD PTR _dy$[ebp], xmm0

; 376  : 
; 377  : 	y1 = BPOWER_MAIN_AREA_YMIN + ((float)index * dy);

  00051	f3 0f 2a 45 0c	 cvtsi2ss xmm0, DWORD PTR _index$[ebp]
  00056	f3 0f 59 45 f8	 mulss	 xmm0, DWORD PTR _dy$[ebp]
  0005b	f3 0f 5a c0	 cvtss2sd xmm0, xmm0
  0005f	f2 0f 58 05 00
	00 00 00	 addsd	 xmm0, QWORD PTR __real@3fc5e353f7ced917
  00067	f2 0f 5a c0	 cvtsd2ss xmm0, xmm0
  0006b	f3 0f 11 45 f0	 movss	 DWORD PTR _y1$[ebp], xmm0

; 378  : 	y2 = y1 + dy;

  00070	f3 0f 10 45 f0	 movss	 xmm0, DWORD PTR _y1$[ebp]
  00075	f3 0f 58 45 f8	 addss	 xmm0, DWORD PTR _dy$[ebp]
  0007a	f3 0f 11 45 e8	 movss	 DWORD PTR _y2$[ebp], xmm0

; 379  : 
; 380  : 	this_side = (entity_sides) get_local_entity_int_value (get_pilot_entity (), INT_TYPE_SIDE);

  0007f	83 3d 00 00 00
	00 00		 cmp	 DWORD PTR ?pilot_entity@@3PAUENTITY@@A, 0 ; pilot_entity
  00086	74 0c		 je	 SHORT $LN18@draw_stats
  00088	a1 00 00 00 00	 mov	 eax, DWORD PTR ?pilot_entity@@3PAUENTITY@@A ; pilot_entity
  0008d	8b 08		 mov	 ecx, DWORD PTR [eax]
  0008f	89 4d 84	 mov	 DWORD PTR tv81[ebp], ecx
  00092	eb 21		 jmp	 SHORT $LN19@draw_stats
$LN18@draw_stats:
  00094	8b 15 00 00 00
	00		 mov	 edx, DWORD PTR ?__LINE__Var@?0??draw_stats_page_unit_balance_of_power@@YGXPAUUI_OBJECT@@HW4ENTITY_SIDES@@HH@Z@4JA
  0009a	83 c2 1a	 add	 edx, 26			; 0000001aH
  0009d	52		 push	 edx
  0009e	68 00 00 00 00	 push	 OFFSET ??_C@_0EO@OLFIJIAE@c?3?2users?2nhv90?2projects?2eech?2ap@
  000a3	a1 00 00 00 00	 mov	 eax, DWORD PTR ?null_entity_pointer_message@@3PBDB ; null_entity_pointer_message
  000a8	50		 push	 eax
  000a9	e8 00 00 00 00	 call	 ?process_assert@@YGXPBD0H@Z ; process_assert
  000ae	c7 45 84 00 00
	00 00		 mov	 DWORD PTR tv81[ebp], 0
$LN19@draw_stats:
  000b5	b9 01 00 00 00	 mov	 ecx, 1
  000ba	85 c9		 test	 ecx, ecx
  000bc	74 09		 je	 SHORT $LN20@draw_stats
  000be	c7 45 80 bb 00
	00 00		 mov	 DWORD PTR tv89[ebp], 187 ; 000000bbH
  000c5	eb 21		 jmp	 SHORT $LN21@draw_stats
$LN20@draw_stats:
  000c7	8b 15 00 00 00
	00		 mov	 edx, DWORD PTR ?__LINE__Var@?0??draw_stats_page_unit_balance_of_power@@YGXPAUUI_OBJECT@@HW4ENTITY_SIDES@@HH@Z@4JA
  000cd	83 c2 1a	 add	 edx, 26			; 0000001aH
  000d0	52		 push	 edx
  000d1	68 00 00 00 00	 push	 OFFSET ??_C@_0EO@OLFIJIAE@c?3?2users?2nhv90?2projects?2eech?2ap@
  000d6	a1 00 00 00 00	 mov	 eax, DWORD PTR ?overload_invalid_int_type_message@@3PBDB ; overload_invalid_int_type_message
  000db	50		 push	 eax
  000dc	e8 00 00 00 00	 call	 ?process_assert@@YGXPBD0H@Z ; process_assert
  000e1	c7 45 80 00 00
	00 00		 mov	 DWORD PTR tv89[ebp], 0
$LN21@draw_stats:
  000e8	68 bb 00 00 00	 push	 187			; 000000bbH
  000ed	8b 0d 00 00 00
	00		 mov	 ecx, DWORD PTR ?pilot_entity@@3PAUENTITY@@A ; pilot_entity
  000f3	51		 push	 ecx
  000f4	69 55 84 5c 04
	00 00		 imul	 edx, DWORD PTR tv81[ebp], 1116
  000fb	8b 45 80	 mov	 eax, DWORD PTR tv89[ebp]
  000fe	8b 8c 82 00 00
	00 00		 mov	 ecx, DWORD PTR ?fn_get_local_entity_int_value@@3PAY0BBH@P6GHPAUENTITY@@W4INT_TYPES@@@ZA[edx+eax*4]
  00105	ff d1		 call	 ecx
  00107	89 45 fc	 mov	 DWORD PTR _this_side$[ebp], eax

; 381  : 
; 382  : 	c = (float)count;

  0010a	f3 0f 2a 45 14	 cvtsi2ss xmm0, DWORD PTR _count$[ebp]
  0010f	f3 0f 11 45 e4	 movss	 DWORD PTR _c$[ebp], xmm0

; 383  : 	t = (float)total;

  00114	f3 0f 2a 45 18	 cvtsi2ss xmm0, DWORD PTR _total$[ebp]
  00119	f3 0f 11 45 e0	 movss	 DWORD PTR _t$[ebp], xmm0

; 384  : 
; 385  : 	if (total > 0)

  0011e	83 7d 18 00	 cmp	 DWORD PTR _total$[ebp], 0
  00122	0f 8e a7 00 00
	00		 jle	 $LN5@draw_stats

; 386  : 	{
; 387  : 		w = c / t;

  00128	f3 0f 10 45 e4	 movss	 xmm0, DWORD PTR _c$[ebp]
  0012d	f3 0f 5e 45 e0	 divss	 xmm0, DWORD PTR _t$[ebp]
  00132	f3 0f 11 45 dc	 movss	 DWORD PTR _w$[ebp], xmm0

; 388  : 	
; 389  : 		if (side != this_side)

  00137	8b 45 10	 mov	 eax, DWORD PTR _side$[ebp]
  0013a	3b 45 fc	 cmp	 eax, DWORD PTR _this_side$[ebp]
  0013d	74 11		 je	 SHORT $LN7@draw_stats

; 390  : 		{
; 391  : 			w = -w;

  0013f	f3 0f 10 45 dc	 movss	 xmm0, DWORD PTR _w$[ebp]
  00144	0f 57 05 00 00
	00 00		 xorps	 xmm0, DWORD PTR __xmm@80000000800000008000000080000000
  0014b	f3 0f 11 45 dc	 movss	 DWORD PTR _w$[ebp], xmm0
$LN7@draw_stats:

; 392  : 		}
; 393  : 	
; 394  : 		switch (side)

  00150	8b 45 10	 mov	 eax, DWORD PTR _side$[ebp]
  00153	89 45 84	 mov	 DWORD PTR tv133[ebp], eax
  00156	83 7d 84 01	 cmp	 DWORD PTR tv133[ebp], 1
  0015a	74 08		 je	 SHORT $LN8@draw_stats
  0015c	83 7d 84 02	 cmp	 DWORD PTR tv133[ebp], 2
  00160	74 0c		 je	 SHORT $LN9@draw_stats
  00162	eb 14		 jmp	 SHORT $LN10@draw_stats
$LN8@draw_stats:

; 395  : 		{
; 396  : 			case ENTITY_SIDE_BLUE_FORCE:
; 397  : 			{
; 398  : 				graphic = blue_bar_graphic;

  00164	a1 00 00 00 00	 mov	 eax, DWORD PTR ?blue_bar_graphic@@3PAUTEXTURE_GRAPHIC@@A
  00169	89 45 c8	 mov	 DWORD PTR _graphic$[ebp], eax

; 399  : 	
; 400  : 				break;

  0016c	eb 1b		 jmp	 SHORT $LN2@draw_stats
$LN9@draw_stats:

; 401  : 			}
; 402  : 			case ENTITY_SIDE_RED_FORCE:
; 403  : 			{
; 404  : 				graphic = red_bar_graphic;

  0016e	a1 00 00 00 00	 mov	 eax, DWORD PTR ?red_bar_graphic@@3PAUTEXTURE_GRAPHIC@@A
  00173	89 45 c8	 mov	 DWORD PTR _graphic$[ebp], eax

; 405  : 	
; 406  : 				break;

  00176	eb 11		 jmp	 SHORT $LN2@draw_stats
$LN10@draw_stats:

; 407  : 			}
; 408  : 			default:
; 409  : 			{
; 410  : 				debug_fatal ("CA_STAT: Invalid side %d for balance of power bar", side);

  00178	8b 45 10	 mov	 eax, DWORD PTR _side$[ebp]
  0017b	50		 push	 eax
  0017c	68 00 00 00 00	 push	 OFFSET ??_C@_0DC@HLLNLKND@CA_STAT?3?5Invalid?5side?5?$CFd?5for?5ba@
  00181	e8 00 00 00 00	 call	 ?debug_fatal@@YAXPBDZZ	; debug_fatal
  00186	83 c4 08	 add	 esp, 8
$LN2@draw_stats:

; 411  : 			}
; 412  : 		}
; 413  : 	
; 414  : 		draw_stats_page_colour_bar (obj, graphic, x1, y1, x2, y2, w);

  00189	51		 push	 ecx
  0018a	f3 0f 10 45 dc	 movss	 xmm0, DWORD PTR _w$[ebp]
  0018f	f3 0f 11 04 24	 movss	 DWORD PTR [esp], xmm0
  00194	51		 push	 ecx
  00195	f3 0f 10 45 e8	 movss	 xmm0, DWORD PTR _y2$[ebp]
  0019a	f3 0f 11 04 24	 movss	 DWORD PTR [esp], xmm0
  0019f	51		 push	 ecx
  001a0	f3 0f 10 45 ec	 movss	 xmm0, DWORD PTR _x2$[ebp]
  001a5	f3 0f 11 04 24	 movss	 DWORD PTR [esp], xmm0
  001aa	51		 push	 ecx
  001ab	f3 0f 10 45 f0	 movss	 xmm0, DWORD PTR _y1$[ebp]
  001b0	f3 0f 11 04 24	 movss	 DWORD PTR [esp], xmm0
  001b5	51		 push	 ecx
  001b6	f3 0f 10 45 f4	 movss	 xmm0, DWORD PTR _x1$[ebp]
  001bb	f3 0f 11 04 24	 movss	 DWORD PTR [esp], xmm0
  001c0	8b 45 c8	 mov	 eax, DWORD PTR _graphic$[ebp]
  001c3	50		 push	 eax
  001c4	8b 4d 08	 mov	 ecx, DWORD PTR _obj$[ebp]
  001c7	51		 push	 ecx
  001c8	e8 00 00 00 00	 call	 ?draw_stats_page_colour_bar@@YGXPAUUI_OBJECT@@PAUTEXTURE_GRAPHIC@@MMMMM@Z ; draw_stats_page_colour_bar

; 415  : 	}
; 416  : 	else

  001cd	eb 51		 jmp	 SHORT $LN11@draw_stats
$LN5@draw_stats:

; 417  : 	{
; 418  : 		if (side == this_side)

  001cf	8b 45 10	 mov	 eax, DWORD PTR _side$[ebp]
  001d2	3b 45 fc	 cmp	 eax, DWORD PTR _this_side$[ebp]
  001d5	75 49		 jne	 SHORT $LN11@draw_stats

; 419  : 		{
; 420  : 			draw_stats_page_solid_bar (obj, solid_bar_graphic, x1, y1, x2, y2, 1.0);

  001d7	51		 push	 ecx
  001d8	f3 0f 10 05 00
	00 00 00	 movss	 xmm0, DWORD PTR __real@3f800000
  001e0	f3 0f 11 04 24	 movss	 DWORD PTR [esp], xmm0
  001e5	51		 push	 ecx
  001e6	f3 0f 10 45 e8	 movss	 xmm0, DWORD PTR _y2$[ebp]
  001eb	f3 0f 11 04 24	 movss	 DWORD PTR [esp], xmm0
  001f0	51		 push	 ecx
  001f1	f3 0f 10 45 ec	 movss	 xmm0, DWORD PTR _x2$[ebp]
  001f6	f3 0f 11 04 24	 movss	 DWORD PTR [esp], xmm0
  001fb	51		 push	 ecx
  001fc	f3 0f 10 45 f0	 movss	 xmm0, DWORD PTR _y1$[ebp]
  00201	f3 0f 11 04 24	 movss	 DWORD PTR [esp], xmm0
  00206	51		 push	 ecx
  00207	f3 0f 10 45 f4	 movss	 xmm0, DWORD PTR _x1$[ebp]
  0020c	f3 0f 11 04 24	 movss	 DWORD PTR [esp], xmm0
  00211	a1 00 00 00 00	 mov	 eax, DWORD PTR ?solid_bar_graphic@@3PAUTEXTURE_GRAPHIC@@A
  00216	50		 push	 eax
  00217	8b 4d 08	 mov	 ecx, DWORD PTR _obj$[ebp]
  0021a	51		 push	 ecx
  0021b	e8 00 00 00 00	 call	 ?draw_stats_page_solid_bar@@YGXPAUUI_OBJECT@@PAUTEXTURE_GRAPHIC@@MMMMM@Z ; draw_stats_page_solid_bar
$LN11@draw_stats:

; 421  : 		}
; 422  : 	}
; 423  : 
; 424  : 	ASSERT (index >= 0);

  00220	83 7d 0c 00	 cmp	 DWORD PTR _index$[ebp], 0
  00224	7d 18		 jge	 SHORT $LN12@draw_stats
  00226	a1 00 00 00 00	 mov	 eax, DWORD PTR ?__LINE__Var@?0??draw_stats_page_unit_balance_of_power@@YGXPAUUI_OBJECT@@HW4ENTITY_SIDES@@HH@Z@4JA
  0022b	83 c0 46	 add	 eax, 70			; 00000046H
  0022e	50		 push	 eax
  0022f	68 00 00 00 00	 push	 OFFSET ??_C@_0EO@OLFIJIAE@c?3?2users?2nhv90?2projects?2eech?2ap@
  00234	68 00 00 00 00	 push	 OFFSET ??_C@_0L@MKDLGBOI@index?5?$DO?$DN?50@
  00239	e8 00 00 00 00	 call	 ?process_assert@@YGXPBD0H@Z ; process_assert
$LN12@draw_stats:

; 425  : 
; 426  : 	if (total > 0)

  0023e	83 7d 18 00	 cmp	 DWORD PTR _total$[ebp], 0
  00242	7e 31		 jle	 SHORT $LN13@draw_stats

; 427  : 	{	
; 428  : 		sprintf (s, "%.0f%%", (100.0 * c / t));

  00244	f3 0f 5a 45 e4	 cvtss2sd xmm0, DWORD PTR _c$[ebp]
  00249	f2 0f 59 05 00
	00 00 00	 mulsd	 xmm0, QWORD PTR __real@4059000000000000
  00251	f3 0f 5a 4d e0	 cvtss2sd xmm1, DWORD PTR _t$[ebp]
  00256	f2 0f 5e c1	 divsd	 xmm0, xmm1
  0025a	83 ec 08	 sub	 esp, 8
  0025d	f2 0f 11 04 24	 movsd	 QWORD PTR [esp], xmm0
  00262	68 00 00 00 00	 push	 OFFSET ??_C@_06KLKJBGEJ@?$CF?40f?$CF?$CF@
  00267	8d 45 cc	 lea	 eax, DWORD PTR _s$[ebp]
  0026a	50		 push	 eax
  0026b	e8 00 00 00 00	 call	 _sprintf
  00270	83 c4 10	 add	 esp, 16			; 00000010H

; 429  : 	}
; 430  : 	else

  00273	eb 11		 jmp	 SHORT $LN14@draw_stats
$LN13@draw_stats:

; 431  : 	{
; 432  : 		sprintf (s, "");

  00275	68 00 00 00 00	 push	 OFFSET ??_C@_00CNPNBAHC@@
  0027a	8d 45 cc	 lea	 eax, DWORD PTR _s$[ebp]
  0027d	50		 push	 eax
  0027e	e8 00 00 00 00	 call	 _sprintf
  00283	83 c4 08	 add	 esp, 8
$LN14@draw_stats:

; 433  : 	}
; 434  : 
; 435  : 	if (side == this_side)

  00286	8b 45 10	 mov	 eax, DWORD PTR _side$[ebp]
  00289	3b 45 fc	 cmp	 eax, DWORD PTR _this_side$[ebp]
  0028c	75 36		 jne	 SHORT $LN15@draw_stats

; 436  : 	{
; 437  : 		set_ui_object_text (page_balance_text_object [0][index], s);

  0028e	8d 45 cc	 lea	 eax, DWORD PTR _s$[ebp]
  00291	50		 push	 eax
  00292	b9 1c 00 00 00	 mov	 ecx, 28			; 0000001cH
  00297	6b d1 00	 imul	 edx, ecx, 0
  0029a	8b 45 0c	 mov	 eax, DWORD PTR _index$[ebp]
  0029d	8b 8c 82 00 00
	00 00		 mov	 ecx, DWORD PTR ?page_balance_text_object@@3PAY06PAUUI_OBJECT@@A[edx+eax*4]
  002a4	51		 push	 ecx
  002a5	ba 1c 00 00 00	 mov	 edx, 28			; 0000001cH
  002aa	6b c2 00	 imul	 eax, edx, 0
  002ad	8b 4d 0c	 mov	 ecx, DWORD PTR _index$[ebp]
  002b0	8b 94 88 00 00
	00 00		 mov	 edx, DWORD PTR ?page_balance_text_object@@3PAY06PAUUI_OBJECT@@A[eax+ecx*4]
  002b7	8b 02		 mov	 eax, DWORD PTR [edx]
  002b9	8b 0c 85 00 00
	00 00		 mov	 ecx, DWORD PTR ?fn_set_ui_object_text@@3PAP6GXPAUUI_OBJECT@@PBD@ZA[eax*4]
  002c0	ff d1		 call	 ecx

; 438  : 	}
; 439  : 	else

  002c2	eb 34		 jmp	 SHORT $LN16@draw_stats
$LN15@draw_stats:

; 440  : 	{
; 441  : 		set_ui_object_text (page_balance_text_object [1][index], s);

  002c4	8d 45 cc	 lea	 eax, DWORD PTR _s$[ebp]
  002c7	50		 push	 eax
  002c8	b9 1c 00 00 00	 mov	 ecx, 28			; 0000001cH
  002cd	c1 e1 00	 shl	 ecx, 0
  002d0	8b 55 0c	 mov	 edx, DWORD PTR _index$[ebp]
  002d3	8b 84 91 00 00
	00 00		 mov	 eax, DWORD PTR ?page_balance_text_object@@3PAY06PAUUI_OBJECT@@A[ecx+edx*4]
  002da	50		 push	 eax
  002db	b9 1c 00 00 00	 mov	 ecx, 28			; 0000001cH
  002e0	c1 e1 00	 shl	 ecx, 0
  002e3	8b 55 0c	 mov	 edx, DWORD PTR _index$[ebp]
  002e6	8b 84 91 00 00
	00 00		 mov	 eax, DWORD PTR ?page_balance_text_object@@3PAY06PAUUI_OBJECT@@A[ecx+edx*4]
  002ed	8b 08		 mov	 ecx, DWORD PTR [eax]
  002ef	8b 14 8d 00 00
	00 00		 mov	 edx, DWORD PTR ?fn_set_ui_object_text@@3PAP6GXPAUUI_OBJECT@@PBD@ZA[ecx*4]
  002f6	ff d2		 call	 edx
$LN16@draw_stats:

; 442  : 	}
; 443  : }

  002f8	5f		 pop	 edi
  002f9	5e		 pop	 esi
  002fa	5b		 pop	 ebx
  002fb	8b e5		 mov	 esp, ebp
  002fd	5d		 pop	 ebp
  002fe	c2 14 00	 ret	 20			; 00000014H
?draw_stats_page_unit_balance_of_power@@YGXPAUUI_OBJECT@@HW4ENTITY_SIDES@@HH@Z ENDP ; draw_stats_page_unit_balance_of_power
_TEXT	ENDS
; Function compile flags: /Odtp /ZI
; File c:\users\nhv90\projects\eech\aphavoc\source\ui_menu\ingame\campaign\ca_stat.c
;	COMDAT ?draw_stats_page_solid_bar@@YGXPAUUI_OBJECT@@PAUTEXTURE_GRAPHIC@@MMMMM@Z
_TEXT	SEGMENT
tv212 = -104						; size = 4
tv204 = -104						; size = 4
_ymax$ = -36						; size = 4
_ymin$ = -32						; size = 4
_xmax$ = -28						; size = 4
_xmin$ = -24						; size = 4
_sy2$ = -20						; size = 4
_sy1$ = -16						; size = 4
_sx2$ = -12						; size = 4
_sx1$ = -8						; size = 4
_colour$ = -4						; size = 4
_obj$ = 8						; size = 4
_graphic$ = 12						; size = 4
_x1$ = 16						; size = 4
_y1$ = 20						; size = 4
_x2$ = 24						; size = 4
_y2$ = 28						; size = 4
_w$ = 32						; size = 4
?draw_stats_page_solid_bar@@YGXPAUUI_OBJECT@@PAUTEXTURE_GRAPHIC@@MMMMM@Z PROC ; draw_stats_page_solid_bar, COMDAT

; 309  : {

  00000	55		 push	 ebp
  00001	8b ec		 mov	 ebp, esp
  00003	83 ec 68	 sub	 esp, 104		; 00000068H
  00006	53		 push	 ebx
  00007	56		 push	 esi
  00008	57		 push	 edi

; 310  : 	real_colour
; 311  : 		colour;
; 312  : 
; 313  : 	float
; 314  : 		sx1, sx2,
; 315  : 		sy1, sy2,
; 316  : 		xmin, xmax,
; 317  : 		ymin, ymax;
; 318  : 
; 319  : 	ASSERT (obj);

  00009	83 7d 08 00	 cmp	 DWORD PTR _obj$[ebp], 0
  0000d	75 18		 jne	 SHORT $LN2@draw_stats
  0000f	a1 00 00 00 00	 mov	 eax, DWORD PTR ?__LINE__Var@?0??draw_stats_page_solid_bar@@YGXPAUUI_OBJECT@@PAUTEXTURE_GRAPHIC@@MMMMM@Z@4JA
  00014	83 c0 0a	 add	 eax, 10			; 0000000aH
  00017	50		 push	 eax
  00018	68 00 00 00 00	 push	 OFFSET ??_C@_0EO@OLFIJIAE@c?3?2users?2nhv90?2projects?2eech?2ap@
  0001d	68 00 00 00 00	 push	 OFFSET ??_C@_03GJLPFLNF@obj@
  00022	e8 00 00 00 00	 call	 ?process_assert@@YGXPBD0H@Z ; process_assert
$LN2@draw_stats:

; 320  : 
; 321  : 	ASSERT (graphic);

  00027	83 7d 0c 00	 cmp	 DWORD PTR _graphic$[ebp], 0
  0002b	75 18		 jne	 SHORT $LN3@draw_stats
  0002d	a1 00 00 00 00	 mov	 eax, DWORD PTR ?__LINE__Var@?0??draw_stats_page_solid_bar@@YGXPAUUI_OBJECT@@PAUTEXTURE_GRAPHIC@@MMMMM@Z@4JA
  00032	83 c0 0c	 add	 eax, 12			; 0000000cH
  00035	50		 push	 eax
  00036	68 00 00 00 00	 push	 OFFSET ??_C@_0EO@OLFIJIAE@c?3?2users?2nhv90?2projects?2eech?2ap@
  0003b	68 00 00 00 00	 push	 OFFSET ??_C@_07PGDKGDCB@graphic@
  00040	e8 00 00 00 00	 call	 ?process_assert@@YGXPBD0H@Z ; process_assert
$LN3@draw_stats:

; 322  : 
; 323  : 	xmin = get_ui_object_x (obj);

  00045	8b 45 08	 mov	 eax, DWORD PTR _obj$[ebp]
  00048	50		 push	 eax
  00049	8b 4d 08	 mov	 ecx, DWORD PTR _obj$[ebp]
  0004c	8b 11		 mov	 edx, DWORD PTR [ecx]
  0004e	8b 04 95 00 00
	00 00		 mov	 eax, DWORD PTR ?fn_get_ui_object_x@@3PAP6GMPAUUI_OBJECT@@@ZA[edx*4]
  00055	ff d0		 call	 eax
  00057	d9 5d e8	 fstp	 DWORD PTR _xmin$[ebp]

; 324  : 	ymin = get_ui_object_y (obj);

  0005a	8b 45 08	 mov	 eax, DWORD PTR _obj$[ebp]
  0005d	50		 push	 eax
  0005e	8b 4d 08	 mov	 ecx, DWORD PTR _obj$[ebp]
  00061	8b 11		 mov	 edx, DWORD PTR [ecx]
  00063	8b 04 95 00 00
	00 00		 mov	 eax, DWORD PTR ?fn_get_ui_object_y@@3PAP6GMPAUUI_OBJECT@@@ZA[edx*4]
  0006a	ff d0		 call	 eax
  0006c	d9 5d e0	 fstp	 DWORD PTR _ymin$[ebp]

; 325  : 
; 326  : 	xmax = xmin + get_ui_object_x_size (obj);

  0006f	8b 45 08	 mov	 eax, DWORD PTR _obj$[ebp]
  00072	50		 push	 eax
  00073	8b 4d 08	 mov	 ecx, DWORD PTR _obj$[ebp]
  00076	8b 11		 mov	 edx, DWORD PTR [ecx]
  00078	8b 04 95 00 00
	00 00		 mov	 eax, DWORD PTR ?fn_get_ui_object_x_size@@3PAP6GMPAUUI_OBJECT@@@ZA[edx*4]
  0007f	ff d0		 call	 eax
  00081	d9 5d 98	 fstp	 DWORD PTR tv204[ebp]
  00084	f3 0f 10 45 98	 movss	 xmm0, DWORD PTR tv204[ebp]
  00089	f3 0f 58 45 e8	 addss	 xmm0, DWORD PTR _xmin$[ebp]
  0008e	f3 0f 11 45 e4	 movss	 DWORD PTR _xmax$[ebp], xmm0

; 327  : 	ymax = ymin + get_ui_object_y_size (obj);

  00093	8b 45 08	 mov	 eax, DWORD PTR _obj$[ebp]
  00096	50		 push	 eax
  00097	8b 4d 08	 mov	 ecx, DWORD PTR _obj$[ebp]
  0009a	8b 11		 mov	 edx, DWORD PTR [ecx]
  0009c	8b 04 95 00 00
	00 00		 mov	 eax, DWORD PTR ?fn_get_ui_object_y_size@@3PAP6GMPAUUI_OBJECT@@@ZA[edx*4]
  000a3	ff d0		 call	 eax
  000a5	d9 5d 98	 fstp	 DWORD PTR tv212[ebp]
  000a8	f3 0f 10 45 98	 movss	 xmm0, DWORD PTR tv212[ebp]
  000ad	f3 0f 58 45 e0	 addss	 xmm0, DWORD PTR _ymin$[ebp]
  000b2	f3 0f 11 45 dc	 movss	 DWORD PTR _ymax$[ebp], xmm0

; 328  : 
; 329  : 	//
; 330  : 	// Always have to render to the video screen
; 331  : 	//
; 332  : 		
; 333  : 	ASSERT ( active_screen == video_screen );

  000b7	a1 00 00 00 00	 mov	 eax, DWORD PTR ?active_screen@@3PAUSCREEN@@A ; active_screen
  000bc	3b 05 00 00 00
	00		 cmp	 eax, DWORD PTR ?video_screen@@3PAUSCREEN@@A ; video_screen
  000c2	74 18		 je	 SHORT $LN4@draw_stats
  000c4	a1 00 00 00 00	 mov	 eax, DWORD PTR ?__LINE__Var@?0??draw_stats_page_solid_bar@@YGXPAUUI_OBJECT@@PAUTEXTURE_GRAPHIC@@MMMMM@Z@4JA
  000c9	83 c0 18	 add	 eax, 24			; 00000018H
  000cc	50		 push	 eax
  000cd	68 00 00 00 00	 push	 OFFSET ??_C@_0EO@OLFIJIAE@c?3?2users?2nhv90?2projects?2eech?2ap@
  000d2	68 00 00 00 00	 push	 OFFSET ??_C@_0BO@KHBEEGFH@active_screen?5?$DN?$DN?5video_screen@
  000d7	e8 00 00 00 00	 call	 ?process_assert@@YGXPBD0H@Z ; process_assert
$LN4@draw_stats:

; 334  : 	
; 335  : 	colour.red = 255;

  000dc	c6 45 fe ff	 mov	 BYTE PTR _colour$[ebp+2], 255 ; 000000ffH

; 336  : 	colour.green = 255;

  000e0	c6 45 fd ff	 mov	 BYTE PTR _colour$[ebp+1], 255 ; 000000ffH

; 337  : 	colour.blue = 255;

  000e4	c6 45 fc ff	 mov	 BYTE PTR _colour$[ebp], 255 ; 000000ffH

; 338  : 	colour.alpha = 255;

  000e8	c6 45 ff ff	 mov	 BYTE PTR _colour$[ebp+3], 255 ; 000000ffH

; 339  : 
; 340  : 	sx1 = xmin + 1;

  000ec	f3 0f 10 45 e8	 movss	 xmm0, DWORD PTR _xmin$[ebp]
  000f1	f3 0f 58 05 00
	00 00 00	 addss	 xmm0, DWORD PTR __real@3f800000
  000f9	f3 0f 11 45 f8	 movss	 DWORD PTR _sx1$[ebp], xmm0

; 341  : 	sx2 = xmax - 1;

  000fe	f3 0f 10 45 e4	 movss	 xmm0, DWORD PTR _xmax$[ebp]
  00103	f3 0f 5c 05 00
	00 00 00	 subss	 xmm0, DWORD PTR __real@3f800000
  0010b	f3 0f 11 45 f4	 movss	 DWORD PTR _sx2$[ebp], xmm0

; 342  : 	
; 343  : 	sy1 = (ymin + (y1 * (ymax - ymin))) + 1;

  00110	f3 0f 10 45 dc	 movss	 xmm0, DWORD PTR _ymax$[ebp]
  00115	f3 0f 5c 45 e0	 subss	 xmm0, DWORD PTR _ymin$[ebp]
  0011a	f3 0f 59 45 14	 mulss	 xmm0, DWORD PTR _y1$[ebp]
  0011f	f3 0f 58 45 e0	 addss	 xmm0, DWORD PTR _ymin$[ebp]
  00124	f3 0f 58 05 00
	00 00 00	 addss	 xmm0, DWORD PTR __real@3f800000
  0012c	f3 0f 11 45 f0	 movss	 DWORD PTR _sy1$[ebp], xmm0

; 344  : 	sy2 = (ymin + (y2 * (ymax - ymin))) - 1;

  00131	f3 0f 10 45 dc	 movss	 xmm0, DWORD PTR _ymax$[ebp]
  00136	f3 0f 5c 45 e0	 subss	 xmm0, DWORD PTR _ymin$[ebp]
  0013b	f3 0f 59 45 1c	 mulss	 xmm0, DWORD PTR _y2$[ebp]
  00140	f3 0f 58 45 e0	 addss	 xmm0, DWORD PTR _ymin$[ebp]
  00145	f3 0f 5c 05 00
	00 00 00	 subss	 xmm0, DWORD PTR __real@3f800000
  0014d	f3 0f 11 45 ec	 movss	 DWORD PTR _sy2$[ebp], xmm0

; 345  : 
; 346  : 	ui_draw_texture_graphic (sx1, sy1, sx2, sy2, graphic, colour);

  00152	8b 45 fc	 mov	 eax, DWORD PTR _colour$[ebp]
  00155	50		 push	 eax
  00156	8b 4d 0c	 mov	 ecx, DWORD PTR _graphic$[ebp]
  00159	51		 push	 ecx
  0015a	51		 push	 ecx
  0015b	f3 0f 10 45 ec	 movss	 xmm0, DWORD PTR _sy2$[ebp]
  00160	f3 0f 11 04 24	 movss	 DWORD PTR [esp], xmm0
  00165	51		 push	 ecx
  00166	f3 0f 10 45 f4	 movss	 xmm0, DWORD PTR _sx2$[ebp]
  0016b	f3 0f 11 04 24	 movss	 DWORD PTR [esp], xmm0
  00170	51		 push	 ecx
  00171	f3 0f 10 45 f0	 movss	 xmm0, DWORD PTR _sy1$[ebp]
  00176	f3 0f 11 04 24	 movss	 DWORD PTR [esp], xmm0
  0017b	51		 push	 ecx
  0017c	f3 0f 10 45 f8	 movss	 xmm0, DWORD PTR _sx1$[ebp]
  00181	f3 0f 11 04 24	 movss	 DWORD PTR [esp], xmm0
  00186	e8 00 00 00 00	 call	 ?ui_draw_texture_graphic@@YGXMMMMPAUTEXTURE_GRAPHIC@@UREAL_COLOUR@@@Z ; ui_draw_texture_graphic

; 347  : }

  0018b	5f		 pop	 edi
  0018c	5e		 pop	 esi
  0018d	5b		 pop	 ebx
  0018e	8b e5		 mov	 esp, ebp
  00190	5d		 pop	 ebp
  00191	c2 1c 00	 ret	 28			; 0000001cH
?draw_stats_page_solid_bar@@YGXPAUUI_OBJECT@@PAUTEXTURE_GRAPHIC@@MMMMM@Z ENDP ; draw_stats_page_solid_bar
_TEXT	ENDS
; Function compile flags: /Odtp /ZI
; File c:\users\nhv90\projects\eech\aphavoc\source\ui_menu\ingame\campaign\ca_stat.c
;	COMDAT ?draw_stats_page_colour_bar@@YGXPAUUI_OBJECT@@PAUTEXTURE_GRAPHIC@@MMMMM@Z
_TEXT	SEGMENT
tv225 = -112						; size = 4
tv185 = -112						; size = 4
_ymax$ = -44						; size = 4
_ymin$ = -40						; size = 4
_xmax$ = -36						; size = 4
_xmin$ = -32						; size = 4
_sy2$ = -28						; size = 4
_sy1$ = -24						; size = 4
_sx2$ = -20						; size = 4
_sx1$ = -16						; size = 4
_tx2$ = -12						; size = 4
_tx1$ = -8						; size = 4
_colour$ = -4						; size = 4
_obj$ = 8						; size = 4
_graphic$ = 12						; size = 4
_x1$ = 16						; size = 4
_y1$ = 20						; size = 4
_x2$ = 24						; size = 4
_y2$ = 28						; size = 4
_w$ = 32						; size = 4
?draw_stats_page_colour_bar@@YGXPAUUI_OBJECT@@PAUTEXTURE_GRAPHIC@@MMMMM@Z PROC ; draw_stats_page_colour_bar, COMDAT

; 252  : {

  00000	55		 push	 ebp
  00001	8b ec		 mov	 ebp, esp
  00003	83 ec 70	 sub	 esp, 112		; 00000070H
  00006	53		 push	 ebx
  00007	56		 push	 esi
  00008	57		 push	 edi

; 253  : 	real_colour
; 254  : 		colour;
; 255  : 
; 256  : 	float
; 257  : 		tx1, tx2,
; 258  : 		sx1, sx2,
; 259  : 		sy1, sy2,
; 260  : 		xmin, xmax,
; 261  : 		ymin, ymax;
; 262  : 
; 263  : 	ASSERT (obj);

  00009	83 7d 08 00	 cmp	 DWORD PTR _obj$[ebp], 0
  0000d	75 18		 jne	 SHORT $LN2@draw_stats
  0000f	a1 00 00 00 00	 mov	 eax, DWORD PTR ?__LINE__Var@?0??draw_stats_page_colour_bar@@YGXPAUUI_OBJECT@@PAUTEXTURE_GRAPHIC@@MMMMM@Z@4JA
  00014	83 c0 0b	 add	 eax, 11			; 0000000bH
  00017	50		 push	 eax
  00018	68 00 00 00 00	 push	 OFFSET ??_C@_0EO@OLFIJIAE@c?3?2users?2nhv90?2projects?2eech?2ap@
  0001d	68 00 00 00 00	 push	 OFFSET ??_C@_03GJLPFLNF@obj@
  00022	e8 00 00 00 00	 call	 ?process_assert@@YGXPBD0H@Z ; process_assert
$LN2@draw_stats:

; 264  : 
; 265  : 	ASSERT (graphic);

  00027	83 7d 0c 00	 cmp	 DWORD PTR _graphic$[ebp], 0
  0002b	75 18		 jne	 SHORT $LN3@draw_stats
  0002d	a1 00 00 00 00	 mov	 eax, DWORD PTR ?__LINE__Var@?0??draw_stats_page_colour_bar@@YGXPAUUI_OBJECT@@PAUTEXTURE_GRAPHIC@@MMMMM@Z@4JA
  00032	83 c0 0d	 add	 eax, 13			; 0000000dH
  00035	50		 push	 eax
  00036	68 00 00 00 00	 push	 OFFSET ??_C@_0EO@OLFIJIAE@c?3?2users?2nhv90?2projects?2eech?2ap@
  0003b	68 00 00 00 00	 push	 OFFSET ??_C@_07PGDKGDCB@graphic@
  00040	e8 00 00 00 00	 call	 ?process_assert@@YGXPBD0H@Z ; process_assert
$LN3@draw_stats:

; 266  : 
; 267  : 	xmin = get_ui_object_x (obj);

  00045	8b 45 08	 mov	 eax, DWORD PTR _obj$[ebp]
  00048	50		 push	 eax
  00049	8b 4d 08	 mov	 ecx, DWORD PTR _obj$[ebp]
  0004c	8b 11		 mov	 edx, DWORD PTR [ecx]
  0004e	8b 04 95 00 00
	00 00		 mov	 eax, DWORD PTR ?fn_get_ui_object_x@@3PAP6GMPAUUI_OBJECT@@@ZA[edx*4]
  00055	ff d0		 call	 eax
  00057	d9 5d e0	 fstp	 DWORD PTR _xmin$[ebp]

; 268  : 	ymin = get_ui_object_y (obj);

  0005a	8b 45 08	 mov	 eax, DWORD PTR _obj$[ebp]
  0005d	50		 push	 eax
  0005e	8b 4d 08	 mov	 ecx, DWORD PTR _obj$[ebp]
  00061	8b 11		 mov	 edx, DWORD PTR [ecx]
  00063	8b 04 95 00 00
	00 00		 mov	 eax, DWORD PTR ?fn_get_ui_object_y@@3PAP6GMPAUUI_OBJECT@@@ZA[edx*4]
  0006a	ff d0		 call	 eax
  0006c	d9 5d d8	 fstp	 DWORD PTR _ymin$[ebp]

; 269  : 
; 270  : 	xmax = xmin + get_ui_object_x_size (obj);

  0006f	8b 45 08	 mov	 eax, DWORD PTR _obj$[ebp]
  00072	50		 push	 eax
  00073	8b 4d 08	 mov	 ecx, DWORD PTR _obj$[ebp]
  00076	8b 11		 mov	 edx, DWORD PTR [ecx]
  00078	8b 04 95 00 00
	00 00		 mov	 eax, DWORD PTR ?fn_get_ui_object_x_size@@3PAP6GMPAUUI_OBJECT@@@ZA[edx*4]
  0007f	ff d0		 call	 eax
  00081	d9 5d 90	 fstp	 DWORD PTR tv185[ebp]
  00084	f3 0f 10 45 90	 movss	 xmm0, DWORD PTR tv185[ebp]
  00089	f3 0f 58 45 e0	 addss	 xmm0, DWORD PTR _xmin$[ebp]
  0008e	f3 0f 11 45 dc	 movss	 DWORD PTR _xmax$[ebp], xmm0

; 271  : 	ymax = ymin + get_ui_object_y_size (obj);

  00093	8b 45 08	 mov	 eax, DWORD PTR _obj$[ebp]
  00096	50		 push	 eax
  00097	8b 4d 08	 mov	 ecx, DWORD PTR _obj$[ebp]
  0009a	8b 11		 mov	 edx, DWORD PTR [ecx]
  0009c	8b 04 95 00 00
	00 00		 mov	 eax, DWORD PTR ?fn_get_ui_object_y_size@@3PAP6GMPAUUI_OBJECT@@@ZA[edx*4]
  000a3	ff d0		 call	 eax
  000a5	d9 5d 90	 fstp	 DWORD PTR tv225[ebp]
  000a8	f3 0f 10 45 90	 movss	 xmm0, DWORD PTR tv225[ebp]
  000ad	f3 0f 58 45 d8	 addss	 xmm0, DWORD PTR _ymin$[ebp]
  000b2	f3 0f 11 45 d4	 movss	 DWORD PTR _ymax$[ebp], xmm0

; 272  : 
; 273  : 	//
; 274  : 	// Always have to render to the video screen
; 275  : 	//
; 276  : 		
; 277  : 	ASSERT ( active_screen == video_screen );

  000b7	a1 00 00 00 00	 mov	 eax, DWORD PTR ?active_screen@@3PAUSCREEN@@A ; active_screen
  000bc	3b 05 00 00 00
	00		 cmp	 eax, DWORD PTR ?video_screen@@3PAUSCREEN@@A ; video_screen
  000c2	74 18		 je	 SHORT $LN4@draw_stats
  000c4	a1 00 00 00 00	 mov	 eax, DWORD PTR ?__LINE__Var@?0??draw_stats_page_colour_bar@@YGXPAUUI_OBJECT@@PAUTEXTURE_GRAPHIC@@MMMMM@Z@4JA
  000c9	83 c0 19	 add	 eax, 25			; 00000019H
  000cc	50		 push	 eax
  000cd	68 00 00 00 00	 push	 OFFSET ??_C@_0EO@OLFIJIAE@c?3?2users?2nhv90?2projects?2eech?2ap@
  000d2	68 00 00 00 00	 push	 OFFSET ??_C@_0BO@KHBEEGFH@active_screen?5?$DN?$DN?5video_screen@
  000d7	e8 00 00 00 00	 call	 ?process_assert@@YGXPBD0H@Z ; process_assert
$LN4@draw_stats:

; 278  : 	
; 279  : 	if (w >= 0)

  000dc	f3 0f 10 45 20	 movss	 xmm0, DWORD PTR _w$[ebp]
  000e1	0f 2f 05 00 00
	00 00		 comiss	 xmm0, DWORD PTR __real@00000000
  000e8	72 25		 jb	 SHORT $LN5@draw_stats

; 280  : 	{
; 281  : 		tx1 = x1;

  000ea	f3 0f 10 45 10	 movss	 xmm0, DWORD PTR _x1$[ebp]
  000ef	f3 0f 11 45 f8	 movss	 DWORD PTR _tx1$[ebp], xmm0

; 282  : 		tx2 = x1 + (w * (x2 - x1));

  000f4	f3 0f 10 45 18	 movss	 xmm0, DWORD PTR _x2$[ebp]
  000f9	f3 0f 5c 45 10	 subss	 xmm0, DWORD PTR _x1$[ebp]
  000fe	f3 0f 59 45 20	 mulss	 xmm0, DWORD PTR _w$[ebp]
  00103	f3 0f 58 45 10	 addss	 xmm0, DWORD PTR _x1$[ebp]
  00108	f3 0f 11 45 f4	 movss	 DWORD PTR _tx2$[ebp], xmm0

; 283  : 	}
; 284  : 	else

  0010d	eb 23		 jmp	 SHORT $LN6@draw_stats
$LN5@draw_stats:

; 285  : 	{
; 286  : 		tx2 = x2;

  0010f	f3 0f 10 45 18	 movss	 xmm0, DWORD PTR _x2$[ebp]
  00114	f3 0f 11 45 f4	 movss	 DWORD PTR _tx2$[ebp], xmm0

; 287  : 		tx1 = x2 + (w * (x2 - x1));

  00119	f3 0f 10 45 18	 movss	 xmm0, DWORD PTR _x2$[ebp]
  0011e	f3 0f 5c 45 10	 subss	 xmm0, DWORD PTR _x1$[ebp]
  00123	f3 0f 59 45 20	 mulss	 xmm0, DWORD PTR _w$[ebp]
  00128	f3 0f 58 45 18	 addss	 xmm0, DWORD PTR _x2$[ebp]
  0012d	f3 0f 11 45 f8	 movss	 DWORD PTR _tx1$[ebp], xmm0
$LN6@draw_stats:

; 288  : 	}
; 289  : 
; 290  : 	sx1 = (xmin + (tx1 * (xmax - xmin))) + 1;

  00132	f3 0f 10 45 dc	 movss	 xmm0, DWORD PTR _xmax$[ebp]
  00137	f3 0f 5c 45 e0	 subss	 xmm0, DWORD PTR _xmin$[ebp]
  0013c	f3 0f 59 45 f8	 mulss	 xmm0, DWORD PTR _tx1$[ebp]
  00141	f3 0f 58 45 e0	 addss	 xmm0, DWORD PTR _xmin$[ebp]
  00146	f3 0f 58 05 00
	00 00 00	 addss	 xmm0, DWORD PTR __real@3f800000
  0014e	f3 0f 11 45 f0	 movss	 DWORD PTR _sx1$[ebp], xmm0

; 291  : 	sx2 = (xmin + (tx2 * (xmax - xmin))) - 1;

  00153	f3 0f 10 45 dc	 movss	 xmm0, DWORD PTR _xmax$[ebp]
  00158	f3 0f 5c 45 e0	 subss	 xmm0, DWORD PTR _xmin$[ebp]
  0015d	f3 0f 59 45 f4	 mulss	 xmm0, DWORD PTR _tx2$[ebp]
  00162	f3 0f 58 45 e0	 addss	 xmm0, DWORD PTR _xmin$[ebp]
  00167	f3 0f 5c 05 00
	00 00 00	 subss	 xmm0, DWORD PTR __real@3f800000
  0016f	f3 0f 11 45 ec	 movss	 DWORD PTR _sx2$[ebp], xmm0

; 292  : 
; 293  : 	sy1 = (ymin + (y1 * (ymax - ymin))) + 1;

  00174	f3 0f 10 45 d4	 movss	 xmm0, DWORD PTR _ymax$[ebp]
  00179	f3 0f 5c 45 d8	 subss	 xmm0, DWORD PTR _ymin$[ebp]
  0017e	f3 0f 59 45 14	 mulss	 xmm0, DWORD PTR _y1$[ebp]
  00183	f3 0f 58 45 d8	 addss	 xmm0, DWORD PTR _ymin$[ebp]
  00188	f3 0f 58 05 00
	00 00 00	 addss	 xmm0, DWORD PTR __real@3f800000
  00190	f3 0f 11 45 e8	 movss	 DWORD PTR _sy1$[ebp], xmm0

; 294  : 	sy2 = (ymin + (y2 * (ymax - ymin))) - 1;

  00195	f3 0f 10 45 d4	 movss	 xmm0, DWORD PTR _ymax$[ebp]
  0019a	f3 0f 5c 45 d8	 subss	 xmm0, DWORD PTR _ymin$[ebp]
  0019f	f3 0f 59 45 1c	 mulss	 xmm0, DWORD PTR _y2$[ebp]
  001a4	f3 0f 58 45 d8	 addss	 xmm0, DWORD PTR _ymin$[ebp]
  001a9	f3 0f 5c 05 00
	00 00 00	 subss	 xmm0, DWORD PTR __real@3f800000
  001b1	f3 0f 11 45 e4	 movss	 DWORD PTR _sy2$[ebp], xmm0

; 295  : 
; 296  : 	colour.red = 255;

  001b6	c6 45 fe ff	 mov	 BYTE PTR _colour$[ebp+2], 255 ; 000000ffH

; 297  : 	colour.green = 255;

  001ba	c6 45 fd ff	 mov	 BYTE PTR _colour$[ebp+1], 255 ; 000000ffH

; 298  : 	colour.blue = 255;

  001be	c6 45 fc ff	 mov	 BYTE PTR _colour$[ebp], 255 ; 000000ffH

; 299  : 	colour.alpha = 255;

  001c2	c6 45 ff ff	 mov	 BYTE PTR _colour$[ebp+3], 255 ; 000000ffH

; 300  : 	
; 301  : 	ui_draw_texture_graphic (sx1, sy1, sx2, sy2, graphic, colour);

  001c6	8b 45 fc	 mov	 eax, DWORD PTR _colour$[ebp]
  001c9	50		 push	 eax
  001ca	8b 4d 0c	 mov	 ecx, DWORD PTR _graphic$[ebp]
  001cd	51		 push	 ecx
  001ce	51		 push	 ecx
  001cf	f3 0f 10 45 e4	 movss	 xmm0, DWORD PTR _sy2$[ebp]
  001d4	f3 0f 11 04 24	 movss	 DWORD PTR [esp], xmm0
  001d9	51		 push	 ecx
  001da	f3 0f 10 45 ec	 movss	 xmm0, DWORD PTR _sx2$[ebp]
  001df	f3 0f 11 04 24	 movss	 DWORD PTR [esp], xmm0
  001e4	51		 push	 ecx
  001e5	f3 0f 10 45 e8	 movss	 xmm0, DWORD PTR _sy1$[ebp]
  001ea	f3 0f 11 04 24	 movss	 DWORD PTR [esp], xmm0
  001ef	51		 push	 ecx
  001f0	f3 0f 10 45 f0	 movss	 xmm0, DWORD PTR _sx1$[ebp]
  001f5	f3 0f 11 04 24	 movss	 DWORD PTR [esp], xmm0
  001fa	e8 00 00 00 00	 call	 ?ui_draw_texture_graphic@@YGXMMMMPAUTEXTURE_GRAPHIC@@UREAL_COLOUR@@@Z ; ui_draw_texture_graphic

; 302  : }

  001ff	5f		 pop	 edi
  00200	5e		 pop	 esi
  00201	5b		 pop	 ebx
  00202	8b e5		 mov	 esp, ebp
  00204	5d		 pop	 ebp
  00205	c2 1c 00	 ret	 28			; 0000001cH
?draw_stats_page_colour_bar@@YGXPAUUI_OBJECT@@PAUTEXTURE_GRAPHIC@@MMMMM@Z ENDP ; draw_stats_page_colour_bar
_TEXT	ENDS
; Function compile flags: /Odtp /ZI
; File c:\users\nhv90\projects\eech\aphavoc\source\ui_menu\ingame\campaign\ca_stat.c
;	COMDAT ?show_stats_objectives_page@@YGXXZ
_TEXT	SEGMENT
tv360 = -224						; size = 4
tv313 = -224						; size = 4
tv270 = -224						; size = 4
tv223 = -224						; size = 4
tv180 = -224						; size = 4
tv152 = -224						; size = 4
tv87 = -224						; size = 4
tv352 = -220						; size = 4
tv336 = -220						; size = 4
tv306 = -220						; size = 4
tv285 = -220						; size = 4
tv262 = -220						; size = 4
tv244 = -220						; size = 4
tv216 = -220						; size = 4
tv195 = -220						; size = 4
tv172 = -220						; size = 4
tv144 = -220						; size = 4
tv132 = -220						; size = 4
tv79 = -220						; size = 4
_s$ = -152						; size = 128
_new_item$ = -24					; size = 4
_col$ = -20						; size = 4
_sub_type$ = -16					; size = 4
_side$ = -12						; size = 4
_objective$ = -8					; size = 4
_en$ = -4						; size = 4
?show_stats_objectives_page@@YGXXZ PROC			; show_stats_objectives_page, COMDAT

; 122  : {

  00000	55		 push	 ebp
  00001	8b ec		 mov	 ebp, esp
  00003	81 ec e0 00 00
	00		 sub	 esp, 224		; 000000e0H
  00009	53		 push	 ebx
  0000a	56		 push	 esi
  0000b	57		 push	 edi

; 123  : 	entity
; 124  : 		*en,
; 125  : 		*objective;
; 126  : 
; 127  : 	int
; 128  : 		side,
; 129  : 		sub_type;
; 130  : 
; 131  : 	rgb_colour
; 132  : 		*col;
; 133  : 
; 134  : 	ui_object
; 135  : 		*new_item;
; 136  : 
; 137  : 	char
; 138  : 		s [128];
; 139  : 
; 140  : 	side = get_global_gunship_side (); 

  0000c	a1 08 00 00 00	 mov	 eax, DWORD PTR ?global_options@@3UGLOBAL_OPTIONS_DATA@@A+8
  00011	89 45 f4	 mov	 DWORD PTR _side$[ebp], eax

; 141  : 
; 142  : 	en = get_local_force_entity ((entity_sides) side);

  00014	8b 45 f4	 mov	 eax, DWORD PTR _side$[ebp]
  00017	50		 push	 eax
  00018	e8 00 00 00 00	 call	 ?get_local_force_entity@@YGPAUENTITY@@W4ENTITY_SIDES@@@Z ; get_local_force_entity
  0001d	89 45 fc	 mov	 DWORD PTR _en$[ebp], eax

; 143  : 
; 144  : 	ASSERT (en);

  00020	83 7d fc 00	 cmp	 DWORD PTR _en$[ebp], 0
  00024	75 18		 jne	 SHORT $LN4@show_stats
  00026	a1 00 00 00 00	 mov	 eax, DWORD PTR ?__LINE__Var@?0??show_stats_objectives_page@@YGXXZ@4JA
  0002b	83 c0 16	 add	 eax, 22			; 00000016H
  0002e	50		 push	 eax
  0002f	68 00 00 00 00	 push	 OFFSET ??_C@_0EO@OLFIJIAE@c?3?2users?2nhv90?2projects?2eech?2ap@
  00034	68 00 00 00 00	 push	 OFFSET ??_C@_02LFNMGJAP@en@
  00039	e8 00 00 00 00	 call	 ?process_assert@@YGXPBD0H@Z ; process_assert
$LN4@show_stats:

; 145  : 
; 146  : 	//
; 147  : 	// OBJECTIVES
; 148  : 	//
; 149  : 
; 150  : 	ui_object_destroy_list_items (page_objective_name_list);

  0003e	a1 00 00 00 00	 mov	 eax, DWORD PTR ?page_objective_name_list@@3PAUUI_OBJECT@@A
  00043	50		 push	 eax
  00044	e8 00 00 00 00	 call	 ?ui_object_destroy_list_items@@YGXPAUUI_OBJECT@@@Z ; ui_object_destroy_list_items

; 151  : 	ui_object_destroy_list_items (page_objective_status_list);

  00049	a1 00 00 00 00	 mov	 eax, DWORD PTR ?page_objective_status_list@@3PAUUI_OBJECT@@A
  0004e	50		 push	 eax
  0004f	e8 00 00 00 00	 call	 ?ui_object_destroy_list_items@@YGXPAUUI_OBJECT@@@Z ; ui_object_destroy_list_items

; 152  : 
; 153  : 	objective = get_local_entity_first_child (en, LIST_TYPE_CAMPAIGN_OBJECTIVE);

  00054	83 7d fc 00	 cmp	 DWORD PTR _en$[ebp], 0
  00058	74 0d		 je	 SHORT $LN13@show_stats
  0005a	8b 45 fc	 mov	 eax, DWORD PTR _en$[ebp]
  0005d	8b 08		 mov	 ecx, DWORD PTR [eax]
  0005f	89 8d 24 ff ff
	ff		 mov	 DWORD PTR tv79[ebp], ecx
  00065	eb 24		 jmp	 SHORT $LN14@show_stats
$LN13@show_stats:
  00067	8b 15 00 00 00
	00		 mov	 edx, DWORD PTR ?__LINE__Var@?0??show_stats_objectives_page@@YGXXZ@4JA
  0006d	83 c2 1f	 add	 edx, 31			; 0000001fH
  00070	52		 push	 edx
  00071	68 00 00 00 00	 push	 OFFSET ??_C@_0EO@OLFIJIAE@c?3?2users?2nhv90?2projects?2eech?2ap@
  00076	a1 00 00 00 00	 mov	 eax, DWORD PTR ?null_entity_pointer_message@@3PBDB ; null_entity_pointer_message
  0007b	50		 push	 eax
  0007c	e8 00 00 00 00	 call	 ?process_assert@@YGXPBD0H@Z ; process_assert
  00081	c7 85 24 ff ff
	ff 00 00 00 00	 mov	 DWORD PTR tv79[ebp], 0
$LN14@show_stats:
  0008b	b9 01 00 00 00	 mov	 ecx, 1
  00090	85 c9		 test	 ecx, ecx
  00092	74 0c		 je	 SHORT $LN15@show_stats
  00094	c7 85 20 ff ff
	ff 05 00 00 00	 mov	 DWORD PTR tv87[ebp], 5
  0009e	eb 24		 jmp	 SHORT $LN16@show_stats
$LN15@show_stats:
  000a0	8b 15 00 00 00
	00		 mov	 edx, DWORD PTR ?__LINE__Var@?0??show_stats_objectives_page@@YGXXZ@4JA
  000a6	83 c2 1f	 add	 edx, 31			; 0000001fH
  000a9	52		 push	 edx
  000aa	68 00 00 00 00	 push	 OFFSET ??_C@_0EO@OLFIJIAE@c?3?2users?2nhv90?2projects?2eech?2ap@
  000af	a1 00 00 00 00	 mov	 eax, DWORD PTR ?overload_invalid_list_type_message@@3PBDB ; overload_invalid_list_type_message
  000b4	50		 push	 eax
  000b5	e8 00 00 00 00	 call	 ?process_assert@@YGXPBD0H@Z ; process_assert
  000ba	c7 85 20 ff ff
	ff 00 00 00 00	 mov	 DWORD PTR tv87[ebp], 0
$LN16@show_stats:
  000c4	6a 05		 push	 5
  000c6	8b 4d fc	 mov	 ecx, DWORD PTR _en$[ebp]
  000c9	51		 push	 ecx
  000ca	69 95 24 ff ff
	ff b4 00 00 00	 imul	 edx, DWORD PTR tv79[ebp], 180
  000d4	8b 85 20 ff ff
	ff		 mov	 eax, DWORD PTR tv87[ebp]
  000da	8b 8c 82 00 00
	00 00		 mov	 ecx, DWORD PTR ?fn_get_local_entity_first_child@@3PAY0CN@P6GPAUENTITY@@PAU1@W4LIST_TYPES@@@ZA[edx+eax*4]
  000e1	ff d1		 call	 ecx
  000e3	89 45 f8	 mov	 DWORD PTR _objective$[ebp], eax
$LN2@show_stats:

; 154  : 
; 155  : 	while (objective)

  000e6	83 7d f8 00	 cmp	 DWORD PTR _objective$[ebp], 0
  000ea	0f 84 52 06 00
	00		 je	 $LN1@show_stats

; 156  : 	{
; 157  : 		ASSERT (get_local_entity_type (objective) == ENTITY_TYPE_KEYSITE);

  000f0	83 7d f8 00	 cmp	 DWORD PTR _objective$[ebp], 0
  000f4	74 0d		 je	 SHORT $LN17@show_stats
  000f6	8b 45 f8	 mov	 eax, DWORD PTR _objective$[ebp]
  000f9	8b 08		 mov	 ecx, DWORD PTR [eax]
  000fb	89 8d 24 ff ff
	ff		 mov	 DWORD PTR tv132[ebp], ecx
  00101	eb 24		 jmp	 SHORT $LN18@show_stats
$LN17@show_stats:
  00103	8b 15 00 00 00
	00		 mov	 edx, DWORD PTR ?__LINE__Var@?0??show_stats_objectives_page@@YGXXZ@4JA
  00109	83 c2 23	 add	 edx, 35			; 00000023H
  0010c	52		 push	 edx
  0010d	68 00 00 00 00	 push	 OFFSET ??_C@_0EO@OLFIJIAE@c?3?2users?2nhv90?2projects?2eech?2ap@
  00112	a1 00 00 00 00	 mov	 eax, DWORD PTR ?null_entity_pointer_message@@3PBDB ; null_entity_pointer_message
  00117	50		 push	 eax
  00118	e8 00 00 00 00	 call	 ?process_assert@@YGXPBD0H@Z ; process_assert
  0011d	c7 85 24 ff ff
	ff 00 00 00 00	 mov	 DWORD PTR tv132[ebp], 0
$LN18@show_stats:
  00127	83 bd 24 ff ff
	ff 0f		 cmp	 DWORD PTR tv132[ebp], 15 ; 0000000fH
  0012e	74 18		 je	 SHORT $LN5@show_stats
  00130	a1 00 00 00 00	 mov	 eax, DWORD PTR ?__LINE__Var@?0??show_stats_objectives_page@@YGXXZ@4JA
  00135	83 c0 23	 add	 eax, 35			; 00000023H
  00138	50		 push	 eax
  00139	68 00 00 00 00	 push	 OFFSET ??_C@_0EO@OLFIJIAE@c?3?2users?2nhv90?2projects?2eech?2ap@
  0013e	68 00 00 00 00	 push	 OFFSET ??_C@_0DJ@PNBAHEDI@get_local_entity_type?5?$CIobjectiv@
  00143	e8 00 00 00 00	 call	 ?process_assert@@YGXPBD0H@Z ; process_assert
$LN5@show_stats:

; 158  : 		
; 159  : 		sub_type = get_local_entity_int_value (objective, INT_TYPE_ENTITY_SUB_TYPE);

  00148	83 7d f8 00	 cmp	 DWORD PTR _objective$[ebp], 0
  0014c	74 0d		 je	 SHORT $LN19@show_stats
  0014e	8b 45 f8	 mov	 eax, DWORD PTR _objective$[ebp]
  00151	8b 08		 mov	 ecx, DWORD PTR [eax]
  00153	89 8d 24 ff ff
	ff		 mov	 DWORD PTR tv144[ebp], ecx
  00159	eb 24		 jmp	 SHORT $LN20@show_stats
$LN19@show_stats:
  0015b	8b 15 00 00 00
	00		 mov	 edx, DWORD PTR ?__LINE__Var@?0??show_stats_objectives_page@@YGXXZ@4JA
  00161	83 c2 25	 add	 edx, 37			; 00000025H
  00164	52		 push	 edx
  00165	68 00 00 00 00	 push	 OFFSET ??_C@_0EO@OLFIJIAE@c?3?2users?2nhv90?2projects?2eech?2ap@
  0016a	a1 00 00 00 00	 mov	 eax, DWORD PTR ?null_entity_pointer_message@@3PBDB ; null_entity_pointer_message
  0016f	50		 push	 eax
  00170	e8 00 00 00 00	 call	 ?process_assert@@YGXPBD0H@Z ; process_assert
  00175	c7 85 24 ff ff
	ff 00 00 00 00	 mov	 DWORD PTR tv144[ebp], 0
$LN20@show_stats:
  0017f	b9 01 00 00 00	 mov	 ecx, 1
  00184	85 c9		 test	 ecx, ecx
  00186	74 0c		 je	 SHORT $LN21@show_stats
  00188	c7 85 20 ff ff
	ff 34 00 00 00	 mov	 DWORD PTR tv152[ebp], 52 ; 00000034H
  00192	eb 24		 jmp	 SHORT $LN22@show_stats
$LN21@show_stats:
  00194	8b 15 00 00 00
	00		 mov	 edx, DWORD PTR ?__LINE__Var@?0??show_stats_objectives_page@@YGXXZ@4JA
  0019a	83 c2 25	 add	 edx, 37			; 00000025H
  0019d	52		 push	 edx
  0019e	68 00 00 00 00	 push	 OFFSET ??_C@_0EO@OLFIJIAE@c?3?2users?2nhv90?2projects?2eech?2ap@
  001a3	a1 00 00 00 00	 mov	 eax, DWORD PTR ?overload_invalid_int_type_message@@3PBDB ; overload_invalid_int_type_message
  001a8	50		 push	 eax
  001a9	e8 00 00 00 00	 call	 ?process_assert@@YGXPBD0H@Z ; process_assert
  001ae	c7 85 20 ff ff
	ff 00 00 00 00	 mov	 DWORD PTR tv152[ebp], 0
$LN22@show_stats:
  001b8	6a 34		 push	 52			; 00000034H
  001ba	8b 4d f8	 mov	 ecx, DWORD PTR _objective$[ebp]
  001bd	51		 push	 ecx
  001be	69 95 24 ff ff
	ff 5c 04 00 00	 imul	 edx, DWORD PTR tv144[ebp], 1116
  001c8	8b 85 20 ff ff
	ff		 mov	 eax, DWORD PTR tv152[ebp]
  001ce	8b 8c 82 00 00
	00 00		 mov	 ecx, DWORD PTR ?fn_get_local_entity_int_value@@3PAY0BBH@P6GHPAUENTITY@@W4INT_TYPES@@@ZA[edx+eax*4]
  001d5	ff d1		 call	 ecx
  001d7	89 45 f0	 mov	 DWORD PTR _sub_type$[ebp], eax

; 160  : 
; 161  : 		if (keysite_database [sub_type].troop_insertion_target)

  001da	6b 45 f0 44	 imul	 eax, DWORD PTR _sub_type$[ebp], 68
  001de	8b 88 40 00 00
	00		 mov	 ecx, DWORD PTR ?keysite_database@@3PAUKEYSITE_DATA@@A[eax+64]
  001e4	c1 e9 0c	 shr	 ecx, 12			; 0000000cH
  001e7	83 e1 01	 and	 ecx, 1
  001ea	0f 84 5d 02 00
	00		 je	 $LN6@show_stats

; 162  : 		{
; 163  : //			sprintf (s, "%s %s", get_trans ("Capture"), get_trans (get_local_entity_string (objective, STRING_TYPE_FULL_NAME)));
; 164  : 
; 165  : 			sprintf (s, "%s", get_trans (get_local_entity_string (objective, STRING_TYPE_FULL_NAME)));

  001f0	83 7d f8 00	 cmp	 DWORD PTR _objective$[ebp], 0
  001f4	74 0d		 je	 SHORT $LN23@show_stats
  001f6	8b 45 f8	 mov	 eax, DWORD PTR _objective$[ebp]
  001f9	8b 08		 mov	 ecx, DWORD PTR [eax]
  001fb	89 8d 24 ff ff
	ff		 mov	 DWORD PTR tv172[ebp], ecx
  00201	eb 24		 jmp	 SHORT $LN24@show_stats
$LN23@show_stats:
  00203	8b 15 00 00 00
	00		 mov	 edx, DWORD PTR ?__LINE__Var@?0??show_stats_objectives_page@@YGXXZ@4JA
  00209	83 c2 2b	 add	 edx, 43			; 0000002bH
  0020c	52		 push	 edx
  0020d	68 00 00 00 00	 push	 OFFSET ??_C@_0EO@OLFIJIAE@c?3?2users?2nhv90?2projects?2eech?2ap@
  00212	a1 00 00 00 00	 mov	 eax, DWORD PTR ?null_entity_pointer_message@@3PBDB ; null_entity_pointer_message
  00217	50		 push	 eax
  00218	e8 00 00 00 00	 call	 ?process_assert@@YGXPBD0H@Z ; process_assert
  0021d	c7 85 24 ff ff
	ff 00 00 00 00	 mov	 DWORD PTR tv172[ebp], 0
$LN24@show_stats:
  00227	b9 01 00 00 00	 mov	 ecx, 1
  0022c	85 c9		 test	 ecx, ecx
  0022e	74 0c		 je	 SHORT $LN25@show_stats
  00230	c7 85 20 ff ff
	ff 03 00 00 00	 mov	 DWORD PTR tv180[ebp], 3
  0023a	eb 24		 jmp	 SHORT $LN26@show_stats
$LN25@show_stats:
  0023c	8b 15 00 00 00
	00		 mov	 edx, DWORD PTR ?__LINE__Var@?0??show_stats_objectives_page@@YGXXZ@4JA
  00242	83 c2 2b	 add	 edx, 43			; 0000002bH
  00245	52		 push	 edx
  00246	68 00 00 00 00	 push	 OFFSET ??_C@_0EO@OLFIJIAE@c?3?2users?2nhv90?2projects?2eech?2ap@
  0024b	a1 00 00 00 00	 mov	 eax, DWORD PTR ?overload_invalid_string_type_message@@3PBDB ; overload_invalid_string_type_message
  00250	50		 push	 eax
  00251	e8 00 00 00 00	 call	 ?process_assert@@YGXPBD0H@Z ; process_assert
  00256	c7 85 20 ff ff
	ff 00 00 00 00	 mov	 DWORD PTR tv180[ebp], 0
$LN26@show_stats:
  00260	6a 03		 push	 3
  00262	8b 4d f8	 mov	 ecx, DWORD PTR _objective$[ebp]
  00265	51		 push	 ecx
  00266	6b 95 24 ff ff
	ff 34		 imul	 edx, DWORD PTR tv172[ebp], 52
  0026d	8b 85 20 ff ff
	ff		 mov	 eax, DWORD PTR tv180[ebp]
  00273	8b 8c 82 00 00
	00 00		 mov	 ecx, DWORD PTR ?fn_get_local_entity_string@@3PAY0N@P6GPBDPAUENTITY@@W4STRING_TYPES@@@ZA[edx+eax*4]
  0027a	ff d1		 call	 ecx
  0027c	50		 push	 eax
  0027d	e8 00 00 00 00	 call	 ?get_trans@@YGPBDPBD@Z	; get_trans
  00282	50		 push	 eax
  00283	68 00 00 00 00	 push	 OFFSET ??_C@_02DKCKIIND@?$CFs@
  00288	8d 95 68 ff ff
	ff		 lea	 edx, DWORD PTR _s$[ebp]
  0028e	52		 push	 edx
  0028f	e8 00 00 00 00	 call	 _sprintf
  00294	83 c4 0c	 add	 esp, 12			; 0000000cH

; 166  : 
; 167  : 			new_item = add_to_pop_up_list (s, page_objective_name_list, NULL, get_local_entity_safe_index (objective), UI_FONT_ARIAL_14, ui_ingame_dead_text_colour);

  00297	83 7d f8 00	 cmp	 DWORD PTR _objective$[ebp], 0
  0029b	74 14		 je	 SHORT $LN27@show_stats
  0029d	8b 45 f8	 mov	 eax, DWORD PTR _objective$[ebp]
  002a0	2b 05 00 00 00
	00		 sub	 eax, DWORD PTR ?entities@@3PAUENTITY@@A ; entities
  002a6	c1 f8 04	 sar	 eax, 4
  002a9	89 85 24 ff ff
	ff		 mov	 DWORD PTR tv195[ebp], eax
  002af	eb 0a		 jmp	 SHORT $LN28@show_stats
$LN27@show_stats:
  002b1	c7 85 24 ff ff
	ff ff ff ff ff	 mov	 DWORD PTR tv195[ebp], -1
$LN28@show_stats:
  002bb	8b 0d 00 00 00
	00		 mov	 ecx, DWORD PTR ?ui_ingame_dead_text_colour@@3UREAL_COLOUR@@A ; ui_ingame_dead_text_colour
  002c1	51		 push	 ecx
  002c2	6a 01		 push	 1
  002c4	8b 95 24 ff ff
	ff		 mov	 edx, DWORD PTR tv195[ebp]
  002ca	52		 push	 edx
  002cb	6a 00		 push	 0
  002cd	a1 00 00 00 00	 mov	 eax, DWORD PTR ?page_objective_name_list@@3PAUUI_OBJECT@@A
  002d2	50		 push	 eax
  002d3	8d 8d 68 ff ff
	ff		 lea	 ecx, DWORD PTR _s$[ebp]
  002d9	51		 push	 ecx
  002da	e8 00 00 00 00	 call	 ?add_to_pop_up_list@@YGPAUUI_OBJECT@@PBDPAU1@1HHUREAL_COLOUR@@@Z ; add_to_pop_up_list
  002df	89 45 e8	 mov	 DWORD PTR _new_item$[ebp], eax

; 168  : 
; 169  : 			set_ui_object_text_justify (new_item, TEXT_JUSTIFY_LEFT_CENTRE);

  002e2	6a 01		 push	 1
  002e4	8b 45 e8	 mov	 eax, DWORD PTR _new_item$[ebp]
  002e7	50		 push	 eax
  002e8	8b 4d e8	 mov	 ecx, DWORD PTR _new_item$[ebp]
  002eb	8b 11		 mov	 edx, DWORD PTR [ecx]
  002ed	8b 04 95 00 00
	00 00		 mov	 eax, DWORD PTR ?fn_set_ui_object_text_justify@@3PAP6GXPAUUI_OBJECT@@W4TEXT_JUSTIFY_TYPES@@@ZA[edx*4]
  002f4	ff d0		 call	 eax

; 170  : 
; 171  : 			set_ingame_ui_object_mouse_over_properties (new_item);

  002f6	8b 45 e8	 mov	 eax, DWORD PTR _new_item$[ebp]
  002f9	50		 push	 eax
  002fa	e8 00 00 00 00	 call	 ?set_ingame_ui_object_mouse_over_properties@@YGXPAUUI_OBJECT@@@Z ; set_ingame_ui_object_mouse_over_properties

; 172  : 
; 173  : 			set_ui_object_highlighted_function (new_item, notify_page_objective_highlight_function);

  002ff	68 00 00 00 00	 push	 OFFSET ?notify_page_objective_highlight_function@@YGXPAUUI_OBJECT@@PAX@Z ; notify_page_objective_highlight_function
  00304	8b 45 e8	 mov	 eax, DWORD PTR _new_item$[ebp]
  00307	50		 push	 eax
  00308	8b 4d e8	 mov	 ecx, DWORD PTR _new_item$[ebp]
  0030b	8b 11		 mov	 edx, DWORD PTR [ecx]
  0030d	8b 04 95 00 00
	00 00		 mov	 eax, DWORD PTR ?fn_set_ui_object_highlighted_function@@3PAP6GXPAUUI_OBJECT@@P6GX0PAX@Z@ZA[edx*4]
  00314	ff d0		 call	 eax

; 174  : 
; 175  : 			if (get_local_entity_int_value (objective, INT_TYPE_SIDE) != side)

  00316	83 7d f8 00	 cmp	 DWORD PTR _objective$[ebp], 0
  0031a	74 0d		 je	 SHORT $LN29@show_stats
  0031c	8b 45 f8	 mov	 eax, DWORD PTR _objective$[ebp]
  0031f	8b 08		 mov	 ecx, DWORD PTR [eax]
  00321	89 8d 24 ff ff
	ff		 mov	 DWORD PTR tv216[ebp], ecx
  00327	eb 20		 jmp	 SHORT $LN30@show_stats
$LN29@show_stats:
  00329	68 af 00 00 00	 push	 175			; 000000afH
  0032e	68 00 00 00 00	 push	 OFFSET ??_C@_0EO@OLFIJIAE@c?3?2users?2nhv90?2projects?2eech?2ap@
  00333	8b 15 00 00 00
	00		 mov	 edx, DWORD PTR ?null_entity_pointer_message@@3PBDB ; null_entity_pointer_message
  00339	52		 push	 edx
  0033a	e8 00 00 00 00	 call	 ?process_assert@@YGXPBD0H@Z ; process_assert
  0033f	c7 85 24 ff ff
	ff 00 00 00 00	 mov	 DWORD PTR tv216[ebp], 0
$LN30@show_stats:
  00349	b8 01 00 00 00	 mov	 eax, 1
  0034e	85 c0		 test	 eax, eax
  00350	74 0c		 je	 SHORT $LN31@show_stats
  00352	c7 85 20 ff ff
	ff bb 00 00 00	 mov	 DWORD PTR tv223[ebp], 187 ; 000000bbH
  0035c	eb 20		 jmp	 SHORT $LN32@show_stats
$LN31@show_stats:
  0035e	68 af 00 00 00	 push	 175			; 000000afH
  00363	68 00 00 00 00	 push	 OFFSET ??_C@_0EO@OLFIJIAE@c?3?2users?2nhv90?2projects?2eech?2ap@
  00368	8b 0d 00 00 00
	00		 mov	 ecx, DWORD PTR ?overload_invalid_int_type_message@@3PBDB ; overload_invalid_int_type_message
  0036e	51		 push	 ecx
  0036f	e8 00 00 00 00	 call	 ?process_assert@@YGXPBD0H@Z ; process_assert
  00374	c7 85 20 ff ff
	ff 00 00 00 00	 mov	 DWORD PTR tv223[ebp], 0
$LN32@show_stats:
  0037e	68 bb 00 00 00	 push	 187			; 000000bbH
  00383	8b 55 f8	 mov	 edx, DWORD PTR _objective$[ebp]
  00386	52		 push	 edx
  00387	69 85 24 ff ff
	ff 5c 04 00 00	 imul	 eax, DWORD PTR tv216[ebp], 1116
  00391	8b 8d 20 ff ff
	ff		 mov	 ecx, DWORD PTR tv223[ebp]
  00397	8b 94 88 00 00
	00 00		 mov	 edx, DWORD PTR ?fn_get_local_entity_int_value@@3PAY0BBH@P6GHPAUENTITY@@W4INT_TYPES@@@ZA[eax+ecx*4]
  0039e	ff d2		 call	 edx
  003a0	3b 45 f4	 cmp	 eax, DWORD PTR _side$[ebp]
  003a3	74 23		 je	 SHORT $LN8@show_stats

; 176  : 			{
; 177  : 				sprintf (s, get_trans ("Incomplete"));

  003a5	68 00 00 00 00	 push	 OFFSET ??_C@_0L@GAHNLADL@Incomplete@
  003aa	e8 00 00 00 00	 call	 ?get_trans@@YGPBDPBD@Z	; get_trans
  003af	50		 push	 eax
  003b0	8d 85 68 ff ff
	ff		 lea	 eax, DWORD PTR _s$[ebp]
  003b6	50		 push	 eax
  003b7	e8 00 00 00 00	 call	 _sprintf
  003bc	83 c4 08	 add	 esp, 8

; 178  : 
; 179  : 				col = &ui_ingame_dead_text_colour;

  003bf	c7 45 ec 00 00
	00 00		 mov	 DWORD PTR _col$[ebp], OFFSET ?ui_ingame_dead_text_colour@@3UREAL_COLOUR@@A ; ui_ingame_dead_text_colour

; 180  : 			}
; 181  : 			else

  003c6	eb 21		 jmp	 SHORT $LN9@show_stats
$LN8@show_stats:

; 182  : 			{
; 183  : 				sprintf (s, get_trans ("Complete"));

  003c8	68 00 00 00 00	 push	 OFFSET ??_C@_08NCJIEHD@Complete@
  003cd	e8 00 00 00 00	 call	 ?get_trans@@YGPBDPBD@Z	; get_trans
  003d2	50		 push	 eax
  003d3	8d 85 68 ff ff
	ff		 lea	 eax, DWORD PTR _s$[ebp]
  003d9	50		 push	 eax
  003da	e8 00 00 00 00	 call	 _sprintf
  003df	83 c4 08	 add	 esp, 8

; 184  : 
; 185  : 				col = &ui_ingame_selected_text_colour;

  003e2	c7 45 ec 00 00
	00 00		 mov	 DWORD PTR _col$[ebp], OFFSET ?ui_ingame_selected_text_colour@@3UREAL_COLOUR@@A ; ui_ingame_selected_text_colour
$LN9@show_stats:

; 186  : 			}
; 187  : 
; 188  : 			new_item = add_to_pop_up_list (s, page_objective_status_list, NULL, get_local_entity_safe_index (objective), UI_FONT_ARIAL_14, *col);

  003e9	83 7d f8 00	 cmp	 DWORD PTR _objective$[ebp], 0
  003ed	74 14		 je	 SHORT $LN33@show_stats
  003ef	8b 45 f8	 mov	 eax, DWORD PTR _objective$[ebp]
  003f2	2b 05 00 00 00
	00		 sub	 eax, DWORD PTR ?entities@@3PAUENTITY@@A ; entities
  003f8	c1 f8 04	 sar	 eax, 4
  003fb	89 85 24 ff ff
	ff		 mov	 DWORD PTR tv244[ebp], eax
  00401	eb 0a		 jmp	 SHORT $LN34@show_stats
$LN33@show_stats:
  00403	c7 85 24 ff ff
	ff ff ff ff ff	 mov	 DWORD PTR tv244[ebp], -1
$LN34@show_stats:
  0040d	8b 4d ec	 mov	 ecx, DWORD PTR _col$[ebp]
  00410	8b 11		 mov	 edx, DWORD PTR [ecx]
  00412	52		 push	 edx
  00413	6a 01		 push	 1
  00415	8b 85 24 ff ff
	ff		 mov	 eax, DWORD PTR tv244[ebp]
  0041b	50		 push	 eax
  0041c	6a 00		 push	 0
  0041e	8b 0d 00 00 00
	00		 mov	 ecx, DWORD PTR ?page_objective_status_list@@3PAUUI_OBJECT@@A
  00424	51		 push	 ecx
  00425	8d 95 68 ff ff
	ff		 lea	 edx, DWORD PTR _s$[ebp]
  0042b	52		 push	 edx
  0042c	e8 00 00 00 00	 call	 ?add_to_pop_up_list@@YGPAUUI_OBJECT@@PBDPAU1@1HHUREAL_COLOUR@@@Z ; add_to_pop_up_list
  00431	89 45 e8	 mov	 DWORD PTR _new_item$[ebp], eax

; 189  : 
; 190  : 			set_ui_object_text_justify (new_item, TEXT_JUSTIFY_LEFT_CENTRE);

  00434	6a 01		 push	 1
  00436	8b 45 e8	 mov	 eax, DWORD PTR _new_item$[ebp]
  00439	50		 push	 eax
  0043a	8b 4d e8	 mov	 ecx, DWORD PTR _new_item$[ebp]
  0043d	8b 11		 mov	 edx, DWORD PTR [ecx]
  0043f	8b 04 95 00 00
	00 00		 mov	 eax, DWORD PTR ?fn_set_ui_object_text_justify@@3PAP6GXPAUUI_OBJECT@@W4TEXT_JUSTIFY_TYPES@@@ZA[edx*4]
  00446	ff d0		 call	 eax

; 191  : 		}
; 192  : 		else

  00448	e9 5e 02 00 00	 jmp	 $LN7@show_stats
$LN6@show_stats:

; 193  : 		{
; 194  : //			sprintf (s, "%s %s", get_trans ("Destroy"), get_trans (get_local_entity_string (objective, STRING_TYPE_FULL_NAME)));
; 195  : 
; 196  : 			sprintf (s, "%s", get_trans (get_local_entity_string (objective, STRING_TYPE_FULL_NAME)));

  0044d	83 7d f8 00	 cmp	 DWORD PTR _objective$[ebp], 0
  00451	74 0d		 je	 SHORT $LN35@show_stats
  00453	8b 45 f8	 mov	 eax, DWORD PTR _objective$[ebp]
  00456	8b 08		 mov	 ecx, DWORD PTR [eax]
  00458	89 8d 24 ff ff
	ff		 mov	 DWORD PTR tv262[ebp], ecx
  0045e	eb 24		 jmp	 SHORT $LN36@show_stats
$LN35@show_stats:
  00460	8b 15 00 00 00
	00		 mov	 edx, DWORD PTR ?__LINE__Var@?0??show_stats_objectives_page@@YGXXZ@4JA
  00466	83 c2 4a	 add	 edx, 74			; 0000004aH
  00469	52		 push	 edx
  0046a	68 00 00 00 00	 push	 OFFSET ??_C@_0EO@OLFIJIAE@c?3?2users?2nhv90?2projects?2eech?2ap@
  0046f	a1 00 00 00 00	 mov	 eax, DWORD PTR ?null_entity_pointer_message@@3PBDB ; null_entity_pointer_message
  00474	50		 push	 eax
  00475	e8 00 00 00 00	 call	 ?process_assert@@YGXPBD0H@Z ; process_assert
  0047a	c7 85 24 ff ff
	ff 00 00 00 00	 mov	 DWORD PTR tv262[ebp], 0
$LN36@show_stats:
  00484	b9 01 00 00 00	 mov	 ecx, 1
  00489	85 c9		 test	 ecx, ecx
  0048b	74 0c		 je	 SHORT $LN37@show_stats
  0048d	c7 85 20 ff ff
	ff 03 00 00 00	 mov	 DWORD PTR tv270[ebp], 3
  00497	eb 24		 jmp	 SHORT $LN38@show_stats
$LN37@show_stats:
  00499	8b 15 00 00 00
	00		 mov	 edx, DWORD PTR ?__LINE__Var@?0??show_stats_objectives_page@@YGXXZ@4JA
  0049f	83 c2 4a	 add	 edx, 74			; 0000004aH
  004a2	52		 push	 edx
  004a3	68 00 00 00 00	 push	 OFFSET ??_C@_0EO@OLFIJIAE@c?3?2users?2nhv90?2projects?2eech?2ap@
  004a8	a1 00 00 00 00	 mov	 eax, DWORD PTR ?overload_invalid_string_type_message@@3PBDB ; overload_invalid_string_type_message
  004ad	50		 push	 eax
  004ae	e8 00 00 00 00	 call	 ?process_assert@@YGXPBD0H@Z ; process_assert
  004b3	c7 85 20 ff ff
	ff 00 00 00 00	 mov	 DWORD PTR tv270[ebp], 0
$LN38@show_stats:
  004bd	6a 03		 push	 3
  004bf	8b 4d f8	 mov	 ecx, DWORD PTR _objective$[ebp]
  004c2	51		 push	 ecx
  004c3	6b 95 24 ff ff
	ff 34		 imul	 edx, DWORD PTR tv262[ebp], 52
  004ca	8b 85 20 ff ff
	ff		 mov	 eax, DWORD PTR tv270[ebp]
  004d0	8b 8c 82 00 00
	00 00		 mov	 ecx, DWORD PTR ?fn_get_local_entity_string@@3PAY0N@P6GPBDPAUENTITY@@W4STRING_TYPES@@@ZA[edx+eax*4]
  004d7	ff d1		 call	 ecx
  004d9	50		 push	 eax
  004da	e8 00 00 00 00	 call	 ?get_trans@@YGPBDPBD@Z	; get_trans
  004df	50		 push	 eax
  004e0	68 00 00 00 00	 push	 OFFSET ??_C@_02DKCKIIND@?$CFs@
  004e5	8d 95 68 ff ff
	ff		 lea	 edx, DWORD PTR _s$[ebp]
  004eb	52		 push	 edx
  004ec	e8 00 00 00 00	 call	 _sprintf
  004f1	83 c4 0c	 add	 esp, 12			; 0000000cH

; 197  : 
; 198  : 			new_item = add_to_pop_up_list (s, page_objective_name_list, NULL, get_local_entity_safe_index (objective), UI_FONT_ARIAL_14, ui_ingame_dead_text_colour);

  004f4	83 7d f8 00	 cmp	 DWORD PTR _objective$[ebp], 0
  004f8	74 14		 je	 SHORT $LN39@show_stats
  004fa	8b 45 f8	 mov	 eax, DWORD PTR _objective$[ebp]
  004fd	2b 05 00 00 00
	00		 sub	 eax, DWORD PTR ?entities@@3PAUENTITY@@A ; entities
  00503	c1 f8 04	 sar	 eax, 4
  00506	89 85 24 ff ff
	ff		 mov	 DWORD PTR tv285[ebp], eax
  0050c	eb 0a		 jmp	 SHORT $LN40@show_stats
$LN39@show_stats:
  0050e	c7 85 24 ff ff
	ff ff ff ff ff	 mov	 DWORD PTR tv285[ebp], -1
$LN40@show_stats:
  00518	8b 0d 00 00 00
	00		 mov	 ecx, DWORD PTR ?ui_ingame_dead_text_colour@@3UREAL_COLOUR@@A ; ui_ingame_dead_text_colour
  0051e	51		 push	 ecx
  0051f	6a 01		 push	 1
  00521	8b 95 24 ff ff
	ff		 mov	 edx, DWORD PTR tv285[ebp]
  00527	52		 push	 edx
  00528	6a 00		 push	 0
  0052a	a1 00 00 00 00	 mov	 eax, DWORD PTR ?page_objective_name_list@@3PAUUI_OBJECT@@A
  0052f	50		 push	 eax
  00530	8d 8d 68 ff ff
	ff		 lea	 ecx, DWORD PTR _s$[ebp]
  00536	51		 push	 ecx
  00537	e8 00 00 00 00	 call	 ?add_to_pop_up_list@@YGPAUUI_OBJECT@@PBDPAU1@1HHUREAL_COLOUR@@@Z ; add_to_pop_up_list
  0053c	89 45 e8	 mov	 DWORD PTR _new_item$[ebp], eax

; 199  : 
; 200  : 			set_ui_object_text_justify (new_item, TEXT_JUSTIFY_LEFT_CENTRE);

  0053f	6a 01		 push	 1
  00541	8b 45 e8	 mov	 eax, DWORD PTR _new_item$[ebp]
  00544	50		 push	 eax
  00545	8b 4d e8	 mov	 ecx, DWORD PTR _new_item$[ebp]
  00548	8b 11		 mov	 edx, DWORD PTR [ecx]
  0054a	8b 04 95 00 00
	00 00		 mov	 eax, DWORD PTR ?fn_set_ui_object_text_justify@@3PAP6GXPAUUI_OBJECT@@W4TEXT_JUSTIFY_TYPES@@@ZA[edx*4]
  00551	ff d0		 call	 eax

; 201  : 
; 202  : 			set_ingame_ui_object_mouse_over_properties (new_item);

  00553	8b 45 e8	 mov	 eax, DWORD PTR _new_item$[ebp]
  00556	50		 push	 eax
  00557	e8 00 00 00 00	 call	 ?set_ingame_ui_object_mouse_over_properties@@YGXPAUUI_OBJECT@@@Z ; set_ingame_ui_object_mouse_over_properties

; 203  : 
; 204  : 			set_ui_object_highlighted_function (new_item, notify_page_objective_highlight_function);

  0055c	68 00 00 00 00	 push	 OFFSET ?notify_page_objective_highlight_function@@YGXPAUUI_OBJECT@@PAX@Z ; notify_page_objective_highlight_function
  00561	8b 45 e8	 mov	 eax, DWORD PTR _new_item$[ebp]
  00564	50		 push	 eax
  00565	8b 4d e8	 mov	 ecx, DWORD PTR _new_item$[ebp]
  00568	8b 11		 mov	 edx, DWORD PTR [ecx]
  0056a	8b 04 95 00 00
	00 00		 mov	 eax, DWORD PTR ?fn_set_ui_object_highlighted_function@@3PAP6GXPAUUI_OBJECT@@P6GX0PAX@Z@ZA[edx*4]
  00571	ff d0		 call	 eax

; 205  : 
; 206  : 			if (get_local_entity_int_value (objective, INT_TYPE_ALIVE))

  00573	83 7d f8 00	 cmp	 DWORD PTR _objective$[ebp], 0
  00577	74 0d		 je	 SHORT $LN41@show_stats
  00579	8b 45 f8	 mov	 eax, DWORD PTR _objective$[ebp]
  0057c	8b 08		 mov	 ecx, DWORD PTR [eax]
  0057e	89 8d 24 ff ff
	ff		 mov	 DWORD PTR tv306[ebp], ecx
  00584	eb 20		 jmp	 SHORT $LN42@show_stats
$LN41@show_stats:
  00586	68 ce 00 00 00	 push	 206			; 000000ceH
  0058b	68 00 00 00 00	 push	 OFFSET ??_C@_0EO@OLFIJIAE@c?3?2users?2nhv90?2projects?2eech?2ap@
  00590	8b 15 00 00 00
	00		 mov	 edx, DWORD PTR ?null_entity_pointer_message@@3PBDB ; null_entity_pointer_message
  00596	52		 push	 edx
  00597	e8 00 00 00 00	 call	 ?process_assert@@YGXPBD0H@Z ; process_assert
  0059c	c7 85 24 ff ff
	ff 00 00 00 00	 mov	 DWORD PTR tv306[ebp], 0
$LN42@show_stats:
  005a6	b8 01 00 00 00	 mov	 eax, 1
  005ab	85 c0		 test	 eax, eax
  005ad	74 0c		 je	 SHORT $LN43@show_stats
  005af	c7 85 20 ff ff
	ff 07 00 00 00	 mov	 DWORD PTR tv313[ebp], 7
  005b9	eb 20		 jmp	 SHORT $LN44@show_stats
$LN43@show_stats:
  005bb	68 ce 00 00 00	 push	 206			; 000000ceH
  005c0	68 00 00 00 00	 push	 OFFSET ??_C@_0EO@OLFIJIAE@c?3?2users?2nhv90?2projects?2eech?2ap@
  005c5	8b 0d 00 00 00
	00		 mov	 ecx, DWORD PTR ?overload_invalid_int_type_message@@3PBDB ; overload_invalid_int_type_message
  005cb	51		 push	 ecx
  005cc	e8 00 00 00 00	 call	 ?process_assert@@YGXPBD0H@Z ; process_assert
  005d1	c7 85 20 ff ff
	ff 00 00 00 00	 mov	 DWORD PTR tv313[ebp], 0
$LN44@show_stats:
  005db	6a 07		 push	 7
  005dd	8b 55 f8	 mov	 edx, DWORD PTR _objective$[ebp]
  005e0	52		 push	 edx
  005e1	69 85 24 ff ff
	ff 5c 04 00 00	 imul	 eax, DWORD PTR tv306[ebp], 1116
  005eb	8b 8d 20 ff ff
	ff		 mov	 ecx, DWORD PTR tv313[ebp]
  005f1	8b 94 88 00 00
	00 00		 mov	 edx, DWORD PTR ?fn_get_local_entity_int_value@@3PAY0BBH@P6GHPAUENTITY@@W4INT_TYPES@@@ZA[eax+ecx*4]
  005f8	ff d2		 call	 edx
  005fa	85 c0		 test	 eax, eax
  005fc	74 28		 je	 SHORT $LN10@show_stats

; 207  : 			{
; 208  : 				sprintf (s, "%s", get_trans ("Incomplete"));

  005fe	68 00 00 00 00	 push	 OFFSET ??_C@_0L@GAHNLADL@Incomplete@
  00603	e8 00 00 00 00	 call	 ?get_trans@@YGPBDPBD@Z	; get_trans
  00608	50		 push	 eax
  00609	68 00 00 00 00	 push	 OFFSET ??_C@_02DKCKIIND@?$CFs@
  0060e	8d 85 68 ff ff
	ff		 lea	 eax, DWORD PTR _s$[ebp]
  00614	50		 push	 eax
  00615	e8 00 00 00 00	 call	 _sprintf
  0061a	83 c4 0c	 add	 esp, 12			; 0000000cH

; 209  : 
; 210  : 				col = &ui_ingame_dead_text_colour;

  0061d	c7 45 ec 00 00
	00 00		 mov	 DWORD PTR _col$[ebp], OFFSET ?ui_ingame_dead_text_colour@@3UREAL_COLOUR@@A ; ui_ingame_dead_text_colour

; 211  : 			}
; 212  : 			else

  00624	eb 26		 jmp	 SHORT $LN11@show_stats
$LN10@show_stats:

; 213  : 			{
; 214  : 				sprintf (s, "%s", get_trans ("Complete"));

  00626	68 00 00 00 00	 push	 OFFSET ??_C@_08NCJIEHD@Complete@
  0062b	e8 00 00 00 00	 call	 ?get_trans@@YGPBDPBD@Z	; get_trans
  00630	50		 push	 eax
  00631	68 00 00 00 00	 push	 OFFSET ??_C@_02DKCKIIND@?$CFs@
  00636	8d 85 68 ff ff
	ff		 lea	 eax, DWORD PTR _s$[ebp]
  0063c	50		 push	 eax
  0063d	e8 00 00 00 00	 call	 _sprintf
  00642	83 c4 0c	 add	 esp, 12			; 0000000cH

; 215  : 
; 216  : 				col = &ui_ingame_selected_text_colour;

  00645	c7 45 ec 00 00
	00 00		 mov	 DWORD PTR _col$[ebp], OFFSET ?ui_ingame_selected_text_colour@@3UREAL_COLOUR@@A ; ui_ingame_selected_text_colour
$LN11@show_stats:

; 217  : 			}
; 218  : 
; 219  : 			new_item = add_to_pop_up_list (s, page_objective_status_list, NULL, get_local_entity_safe_index (objective), UI_FONT_ARIAL_14, *col);

  0064c	83 7d f8 00	 cmp	 DWORD PTR _objective$[ebp], 0
  00650	74 14		 je	 SHORT $LN45@show_stats
  00652	8b 45 f8	 mov	 eax, DWORD PTR _objective$[ebp]
  00655	2b 05 00 00 00
	00		 sub	 eax, DWORD PTR ?entities@@3PAUENTITY@@A ; entities
  0065b	c1 f8 04	 sar	 eax, 4
  0065e	89 85 24 ff ff
	ff		 mov	 DWORD PTR tv336[ebp], eax
  00664	eb 0a		 jmp	 SHORT $LN46@show_stats
$LN45@show_stats:
  00666	c7 85 24 ff ff
	ff ff ff ff ff	 mov	 DWORD PTR tv336[ebp], -1
$LN46@show_stats:
  00670	8b 4d ec	 mov	 ecx, DWORD PTR _col$[ebp]
  00673	8b 11		 mov	 edx, DWORD PTR [ecx]
  00675	52		 push	 edx
  00676	6a 01		 push	 1
  00678	8b 85 24 ff ff
	ff		 mov	 eax, DWORD PTR tv336[ebp]
  0067e	50		 push	 eax
  0067f	6a 00		 push	 0
  00681	8b 0d 00 00 00
	00		 mov	 ecx, DWORD PTR ?page_objective_status_list@@3PAUUI_OBJECT@@A
  00687	51		 push	 ecx
  00688	8d 95 68 ff ff
	ff		 lea	 edx, DWORD PTR _s$[ebp]
  0068e	52		 push	 edx
  0068f	e8 00 00 00 00	 call	 ?add_to_pop_up_list@@YGPAUUI_OBJECT@@PBDPAU1@1HHUREAL_COLOUR@@@Z ; add_to_pop_up_list
  00694	89 45 e8	 mov	 DWORD PTR _new_item$[ebp], eax

; 220  : 
; 221  : 			set_ui_object_text_justify (new_item, TEXT_JUSTIFY_LEFT_CENTRE);

  00697	6a 01		 push	 1
  00699	8b 45 e8	 mov	 eax, DWORD PTR _new_item$[ebp]
  0069c	50		 push	 eax
  0069d	8b 4d e8	 mov	 ecx, DWORD PTR _new_item$[ebp]
  006a0	8b 11		 mov	 edx, DWORD PTR [ecx]
  006a2	8b 04 95 00 00
	00 00		 mov	 eax, DWORD PTR ?fn_set_ui_object_text_justify@@3PAP6GXPAUUI_OBJECT@@W4TEXT_JUSTIFY_TYPES@@@ZA[edx*4]
  006a9	ff d0		 call	 eax
$LN7@show_stats:

; 222  : 		}
; 223  : 		
; 224  : 		objective = get_local_entity_child_succ (objective, LIST_TYPE_CAMPAIGN_OBJECTIVE);

  006ab	83 7d f8 00	 cmp	 DWORD PTR _objective$[ebp], 0
  006af	74 0d		 je	 SHORT $LN47@show_stats
  006b1	8b 45 f8	 mov	 eax, DWORD PTR _objective$[ebp]
  006b4	8b 08		 mov	 ecx, DWORD PTR [eax]
  006b6	89 8d 24 ff ff
	ff		 mov	 DWORD PTR tv352[ebp], ecx
  006bc	eb 24		 jmp	 SHORT $LN48@show_stats
$LN47@show_stats:
  006be	8b 15 00 00 00
	00		 mov	 edx, DWORD PTR ?__LINE__Var@?0??show_stats_objectives_page@@YGXXZ@4JA
  006c4	83 c2 66	 add	 edx, 102		; 00000066H
  006c7	52		 push	 edx
  006c8	68 00 00 00 00	 push	 OFFSET ??_C@_0EO@OLFIJIAE@c?3?2users?2nhv90?2projects?2eech?2ap@
  006cd	a1 00 00 00 00	 mov	 eax, DWORD PTR ?null_entity_pointer_message@@3PBDB ; null_entity_pointer_message
  006d2	50		 push	 eax
  006d3	e8 00 00 00 00	 call	 ?process_assert@@YGXPBD0H@Z ; process_assert
  006d8	c7 85 24 ff ff
	ff 00 00 00 00	 mov	 DWORD PTR tv352[ebp], 0
$LN48@show_stats:
  006e2	b9 01 00 00 00	 mov	 ecx, 1
  006e7	85 c9		 test	 ecx, ecx
  006e9	74 0c		 je	 SHORT $LN49@show_stats
  006eb	c7 85 20 ff ff
	ff 05 00 00 00	 mov	 DWORD PTR tv360[ebp], 5
  006f5	eb 24		 jmp	 SHORT $LN50@show_stats
$LN49@show_stats:
  006f7	8b 15 00 00 00
	00		 mov	 edx, DWORD PTR ?__LINE__Var@?0??show_stats_objectives_page@@YGXXZ@4JA
  006fd	83 c2 66	 add	 edx, 102		; 00000066H
  00700	52		 push	 edx
  00701	68 00 00 00 00	 push	 OFFSET ??_C@_0EO@OLFIJIAE@c?3?2users?2nhv90?2projects?2eech?2ap@
  00706	a1 00 00 00 00	 mov	 eax, DWORD PTR ?overload_invalid_list_type_message@@3PBDB ; overload_invalid_list_type_message
  0070b	50		 push	 eax
  0070c	e8 00 00 00 00	 call	 ?process_assert@@YGXPBD0H@Z ; process_assert
  00711	c7 85 20 ff ff
	ff 00 00 00 00	 mov	 DWORD PTR tv360[ebp], 0
$LN50@show_stats:
  0071b	6a 05		 push	 5
  0071d	8b 4d f8	 mov	 ecx, DWORD PTR _objective$[ebp]
  00720	51		 push	 ecx
  00721	69 95 24 ff ff
	ff b4 00 00 00	 imul	 edx, DWORD PTR tv352[ebp], 180
  0072b	8b 85 20 ff ff
	ff		 mov	 eax, DWORD PTR tv360[ebp]
  00731	8b 8c 82 00 00
	00 00		 mov	 ecx, DWORD PTR ?fn_get_local_entity_child_succ@@3PAY0CN@P6GPAUENTITY@@PAU1@W4LIST_TYPES@@@ZA[edx+eax*4]
  00738	ff d1		 call	 ecx
  0073a	89 45 f8	 mov	 DWORD PTR _objective$[ebp], eax

; 225  : 	}

  0073d	e9 a4 f9 ff ff	 jmp	 $LN2@show_stats
$LN1@show_stats:

; 226  : }

  00742	5f		 pop	 edi
  00743	5e		 pop	 esi
  00744	5b		 pop	 ebx
  00745	8b e5		 mov	 esp, ebp
  00747	5d		 pop	 ebp
  00748	c3		 ret	 0
?show_stats_objectives_page@@YGXXZ ENDP			; show_stats_objectives_page
_TEXT	ENDS
; Function compile flags: /Odtp /ZI
; File c:\users\nhv90\projects\eech\aphavoc\source\ui_menu\ingame\campaign\ca_stat.c
;	COMDAT ?notify_page_objective_highlight_function@@YGXPAUUI_OBJECT@@PAX@Z
_TEXT	SEGMENT
tv138 = -80						; size = 4
tv165 = -76						; size = 4
tv130 = -76						; size = 4
tv86 = -76						; size = 4
tv78 = -76						; size = 4
_keysite_type$ = -8					; size = 4
_objective$ = -4					; size = 4
_obj$ = 8						; size = 4
_arg$ = 12						; size = 4
?notify_page_objective_highlight_function@@YGXPAUUI_OBJECT@@PAX@Z PROC ; notify_page_objective_highlight_function, COMDAT

; 735  : {

  00000	55		 push	 ebp
  00001	8b ec		 mov	 ebp, esp
  00003	83 ec 50	 sub	 esp, 80			; 00000050H
  00006	53		 push	 ebx
  00007	56		 push	 esi
  00008	57		 push	 edi

; 736  : 	entity
; 737  : 		*objective;
; 738  : 
; 739  : 	entity_sub_types
; 740  : 		keysite_type;
; 741  : 
; 742  : 	static char
; 743  : 		text [2048];
; 744  : 
; 745  : 	if ((int) arg == BUTTON_STATE_DOWN)

  00009	83 7d 0c 02	 cmp	 DWORD PTR _arg$[ebp], 2
  0000d	0f 85 b3 01 00
	00		 jne	 $LN1@notify_pag

; 746  : 	{
; 747  : 	
; 748  : 		objective = get_local_entity_safe_ptr (get_ui_object_item_number (obj));

  00013	8b 45 08	 mov	 eax, DWORD PTR _obj$[ebp]
  00016	50		 push	 eax
  00017	8b 4d 08	 mov	 ecx, DWORD PTR _obj$[ebp]
  0001a	8b 11		 mov	 edx, DWORD PTR [ecx]
  0001c	8b 04 95 00 00
	00 00		 mov	 eax, DWORD PTR ?fn_get_ui_object_item_number@@3PAP6GHPAUUI_OBJECT@@@ZA[edx*4]
  00023	ff d0		 call	 eax
  00025	83 f8 ff	 cmp	 eax, -1
  00028	74 20		 je	 SHORT $LN9@notify_pag
  0002a	8b 4d 08	 mov	 ecx, DWORD PTR _obj$[ebp]
  0002d	51		 push	 ecx
  0002e	8b 55 08	 mov	 edx, DWORD PTR _obj$[ebp]
  00031	8b 02		 mov	 eax, DWORD PTR [edx]
  00033	8b 0c 85 00 00
	00 00		 mov	 ecx, DWORD PTR ?fn_get_ui_object_item_number@@3PAP6GHPAUUI_OBJECT@@@ZA[eax*4]
  0003a	ff d1		 call	 ecx
  0003c	c1 e0 04	 shl	 eax, 4
  0003f	03 05 00 00 00
	00		 add	 eax, DWORD PTR ?entities@@3PAUENTITY@@A ; entities
  00045	89 45 b4	 mov	 DWORD PTR tv78[ebp], eax
  00048	eb 07		 jmp	 SHORT $LN10@notify_pag
$LN9@notify_pag:
  0004a	c7 45 b4 00 00
	00 00		 mov	 DWORD PTR tv78[ebp], 0
$LN10@notify_pag:
  00051	8b 55 b4	 mov	 edx, DWORD PTR tv78[ebp]
  00054	89 55 fc	 mov	 DWORD PTR _objective$[ebp], edx

; 749  : 	
; 750  : 		if (objective)

  00057	83 7d fc 00	 cmp	 DWORD PTR _objective$[ebp], 0
  0005b	0f 84 65 01 00
	00		 je	 $LN1@notify_pag

; 751  : 		{
; 752  : 			ASSERT (get_local_entity_type (objective) == ENTITY_TYPE_KEYSITE);

  00061	83 7d fc 00	 cmp	 DWORD PTR _objective$[ebp], 0
  00065	74 0a		 je	 SHORT $LN11@notify_pag
  00067	8b 45 fc	 mov	 eax, DWORD PTR _objective$[ebp]
  0006a	8b 08		 mov	 ecx, DWORD PTR [eax]
  0006c	89 4d b4	 mov	 DWORD PTR tv86[ebp], ecx
  0006f	eb 21		 jmp	 SHORT $LN12@notify_pag
$LN11@notify_pag:
  00071	8b 15 00 00 00
	00		 mov	 edx, DWORD PTR ?__LINE__Var@?0??notify_page_objective_highlight_function@@YGXPAUUI_OBJECT@@PAX@Z@4JA
  00077	83 c2 11	 add	 edx, 17			; 00000011H
  0007a	52		 push	 edx
  0007b	68 00 00 00 00	 push	 OFFSET ??_C@_0EO@OLFIJIAE@c?3?2users?2nhv90?2projects?2eech?2ap@
  00080	a1 00 00 00 00	 mov	 eax, DWORD PTR ?null_entity_pointer_message@@3PBDB ; null_entity_pointer_message
  00085	50		 push	 eax
  00086	e8 00 00 00 00	 call	 ?process_assert@@YGXPBD0H@Z ; process_assert
  0008b	c7 45 b4 00 00
	00 00		 mov	 DWORD PTR tv86[ebp], 0
$LN12@notify_pag:
  00092	83 7d b4 0f	 cmp	 DWORD PTR tv86[ebp], 15	; 0000000fH
  00096	74 18		 je	 SHORT $LN5@notify_pag
  00098	a1 00 00 00 00	 mov	 eax, DWORD PTR ?__LINE__Var@?0??notify_page_objective_highlight_function@@YGXPAUUI_OBJECT@@PAX@Z@4JA
  0009d	83 c0 11	 add	 eax, 17			; 00000011H
  000a0	50		 push	 eax
  000a1	68 00 00 00 00	 push	 OFFSET ??_C@_0EO@OLFIJIAE@c?3?2users?2nhv90?2projects?2eech?2ap@
  000a6	68 00 00 00 00	 push	 OFFSET ??_C@_0DJ@PNBAHEDI@get_local_entity_type?5?$CIobjectiv@
  000ab	e8 00 00 00 00	 call	 ?process_assert@@YGXPBD0H@Z ; process_assert
$LN5@notify_pag:

; 753  : 		
; 754  : 			keysite_type = get_local_entity_int_value (objective, INT_TYPE_ENTITY_SUB_TYPE);

  000b0	83 7d fc 00	 cmp	 DWORD PTR _objective$[ebp], 0
  000b4	74 0a		 je	 SHORT $LN13@notify_pag
  000b6	8b 45 fc	 mov	 eax, DWORD PTR _objective$[ebp]
  000b9	8b 08		 mov	 ecx, DWORD PTR [eax]
  000bb	89 4d b4	 mov	 DWORD PTR tv130[ebp], ecx
  000be	eb 21		 jmp	 SHORT $LN14@notify_pag
$LN13@notify_pag:
  000c0	8b 15 00 00 00
	00		 mov	 edx, DWORD PTR ?__LINE__Var@?0??notify_page_objective_highlight_function@@YGXPAUUI_OBJECT@@PAX@Z@4JA
  000c6	83 c2 13	 add	 edx, 19			; 00000013H
  000c9	52		 push	 edx
  000ca	68 00 00 00 00	 push	 OFFSET ??_C@_0EO@OLFIJIAE@c?3?2users?2nhv90?2projects?2eech?2ap@
  000cf	a1 00 00 00 00	 mov	 eax, DWORD PTR ?null_entity_pointer_message@@3PBDB ; null_entity_pointer_message
  000d4	50		 push	 eax
  000d5	e8 00 00 00 00	 call	 ?process_assert@@YGXPBD0H@Z ; process_assert
  000da	c7 45 b4 00 00
	00 00		 mov	 DWORD PTR tv130[ebp], 0
$LN14@notify_pag:
  000e1	b9 01 00 00 00	 mov	 ecx, 1
  000e6	85 c9		 test	 ecx, ecx
  000e8	74 09		 je	 SHORT $LN15@notify_pag
  000ea	c7 45 b0 34 00
	00 00		 mov	 DWORD PTR tv138[ebp], 52 ; 00000034H
  000f1	eb 21		 jmp	 SHORT $LN16@notify_pag
$LN15@notify_pag:
  000f3	8b 15 00 00 00
	00		 mov	 edx, DWORD PTR ?__LINE__Var@?0??notify_page_objective_highlight_function@@YGXPAUUI_OBJECT@@PAX@Z@4JA
  000f9	83 c2 13	 add	 edx, 19			; 00000013H
  000fc	52		 push	 edx
  000fd	68 00 00 00 00	 push	 OFFSET ??_C@_0EO@OLFIJIAE@c?3?2users?2nhv90?2projects?2eech?2ap@
  00102	a1 00 00 00 00	 mov	 eax, DWORD PTR ?overload_invalid_int_type_message@@3PBDB ; overload_invalid_int_type_message
  00107	50		 push	 eax
  00108	e8 00 00 00 00	 call	 ?process_assert@@YGXPBD0H@Z ; process_assert
  0010d	c7 45 b0 00 00
	00 00		 mov	 DWORD PTR tv138[ebp], 0
$LN16@notify_pag:
  00114	6a 34		 push	 52			; 00000034H
  00116	8b 4d fc	 mov	 ecx, DWORD PTR _objective$[ebp]
  00119	51		 push	 ecx
  0011a	69 55 b4 5c 04
	00 00		 imul	 edx, DWORD PTR tv130[ebp], 1116
  00121	8b 45 b0	 mov	 eax, DWORD PTR tv138[ebp]
  00124	8b 8c 82 00 00
	00 00		 mov	 ecx, DWORD PTR ?fn_get_local_entity_int_value@@3PAY0BBH@P6GHPAUENTITY@@W4INT_TYPES@@@ZA[edx+eax*4]
  0012b	ff d1		 call	 ecx
  0012d	89 45 f8	 mov	 DWORD PTR _keysite_type$[ebp], eax

; 755  : 		
; 756  : 			if (get_objective_briefing_text (objective, keysite_type, text))

  00130	68 00 00 00 00	 push	 OFFSET ?text@?1??notify_page_objective_highlight_function@@YGXPAUUI_OBJECT@@PAX@Z@4PADA
  00135	8b 45 f8	 mov	 eax, DWORD PTR _keysite_type$[ebp]
  00138	50		 push	 eax
  00139	8b 4d fc	 mov	 ecx, DWORD PTR _objective$[ebp]
  0013c	51		 push	 ecx
  0013d	e8 00 00 00 00	 call	 ?get_objective_briefing_text@@YGHPAUENTITY@@HPAD@Z ; get_objective_briefing_text
  00142	85 c0		 test	 eax, eax
  00144	74 2a		 je	 SHORT $LN6@notify_pag

; 757  : 			{
; 758  : 				ui_object_destroy_list_items (page_objective_description_list);

  00146	a1 00 00 00 00	 mov	 eax, DWORD PTR ?page_objective_description_list@@3PAUUI_OBJECT@@A
  0014b	50		 push	 eax
  0014c	e8 00 00 00 00	 call	 ?ui_object_destroy_list_items@@YGXPAUUI_OBJECT@@@Z ; ui_object_destroy_list_items

; 759  : 		
; 760  : 				add_to_pop_up_list_with_word_wrap (text, page_objective_description_list, NULL, 0, UI_FONT_ARIAL_10, ui_ingame_dead_text_colour);

  00151	a1 00 00 00 00	 mov	 eax, DWORD PTR ?ui_ingame_dead_text_colour@@3UREAL_COLOUR@@A ; ui_ingame_dead_text_colour
  00156	50		 push	 eax
  00157	6a 00		 push	 0
  00159	6a 00		 push	 0
  0015b	6a 00		 push	 0
  0015d	8b 0d 00 00 00
	00		 mov	 ecx, DWORD PTR ?page_objective_description_list@@3PAUUI_OBJECT@@A
  00163	51		 push	 ecx
  00164	68 00 00 00 00	 push	 OFFSET ?text@?1??notify_page_objective_highlight_function@@YGXPAUUI_OBJECT@@PAX@Z@4PADA
  00169	e8 00 00 00 00	 call	 ?add_to_pop_up_list_with_word_wrap@@YGPAUUI_OBJECT@@PBDPAU1@1HHUREAL_COLOUR@@@Z ; add_to_pop_up_list_with_word_wrap

; 761  : 			}
; 762  : 			else

  0016e	eb 56		 jmp	 SHORT $LN1@notify_pag
$LN6@notify_pag:

; 763  : 			{
; 764  : 				debug_log ("CA_STAT: WARNING: trying to show objective briefing for %s (%d)", get_local_entity_type_name (objective), get_local_entity_index (objective));

  00170	83 7d fc 00	 cmp	 DWORD PTR _objective$[ebp], 0
  00174	74 0a		 je	 SHORT $LN17@notify_pag
  00176	8b 45 fc	 mov	 eax, DWORD PTR _objective$[ebp]
  00179	8b 08		 mov	 ecx, DWORD PTR [eax]
  0017b	89 4d b4	 mov	 DWORD PTR tv165[ebp], ecx
  0017e	eb 21		 jmp	 SHORT $LN18@notify_pag
$LN17@notify_pag:
  00180	8b 15 00 00 00
	00		 mov	 edx, DWORD PTR ?__LINE__Var@?0??notify_page_objective_highlight_function@@YGXPAUUI_OBJECT@@PAX@Z@4JA
  00186	83 c2 1d	 add	 edx, 29			; 0000001dH
  00189	52		 push	 edx
  0018a	68 00 00 00 00	 push	 OFFSET ??_C@_0EO@OLFIJIAE@c?3?2users?2nhv90?2projects?2eech?2ap@
  0018f	a1 00 00 00 00	 mov	 eax, DWORD PTR ?null_entity_pointer_message@@3PBDB ; null_entity_pointer_message
  00194	50		 push	 eax
  00195	e8 00 00 00 00	 call	 ?process_assert@@YGXPBD0H@Z ; process_assert
  0019a	c7 45 b4 00 00
	00 00		 mov	 DWORD PTR tv165[ebp], 0
$LN18@notify_pag:
  001a1	8b 4d fc	 mov	 ecx, DWORD PTR _objective$[ebp]
  001a4	2b 0d 00 00 00
	00		 sub	 ecx, DWORD PTR ?entities@@3PAUENTITY@@A ; entities
  001aa	c1 f9 04	 sar	 ecx, 4
  001ad	51		 push	 ecx
  001ae	6b 55 b4 0c	 imul	 edx, DWORD PTR tv165[ebp], 12
  001b2	8b 82 00 00 00
	00		 mov	 eax, DWORD PTR ?entity_type_database@@3PAUENTITY_TYPE_DATA@@A[edx]
  001b8	50		 push	 eax
  001b9	68 00 00 00 00	 push	 OFFSET ??_C@_0EA@CBFHEJJH@CA_STAT?3?5WARNING?3?5trying?5to?5sho@
  001be	e8 00 00 00 00	 call	 ?debug_log@@YAXPBDZZ	; debug_log
  001c3	83 c4 0c	 add	 esp, 12			; 0000000cH
$LN1@notify_pag:

; 765  : 			}
; 766  : 		}
; 767  : 	}
; 768  : 	else
; 769  : 	{
; 770  : 		// used to remove the list when item not highlighted
; 771  : 		//ui_object_destroy_list_items (page_objective_description_list);
; 772  : 	}
; 773  : }

  001c6	5f		 pop	 edi
  001c7	5e		 pop	 esi
  001c8	5b		 pop	 ebx
  001c9	8b e5		 mov	 esp, ebp
  001cb	5d		 pop	 ebp
  001cc	c2 08 00	 ret	 8
?notify_page_objective_highlight_function@@YGXPAUUI_OBJECT@@PAX@Z ENDP ; notify_page_objective_highlight_function
_TEXT	ENDS
; Function compile flags: /Odtp /ZI
; File c:\users\nhv90\projects\eech\aphavoc\source\ui_menu\ingame\campaign\ca_stat.c
;	COMDAT ?overload_stats_page_message_responses@@YGXXZ
_TEXT	SEGMENT
_target$ = -4						; size = 4
?overload_stats_page_message_responses@@YGXXZ PROC	; overload_stats_page_message_responses, COMDAT

; 1180 : {

  00000	55		 push	 ebp
  00001	8b ec		 mov	 ebp, esp
  00003	83 ec 44	 sub	 esp, 68			; 00000044H
  00006	53		 push	 ebx
  00007	56		 push	 esi
  00008	57		 push	 edi

; 1181 : 	campaign_screen_message_targets
; 1182 : 		target;
; 1183 : 
; 1184 : 	target = CAMPAIGN_SCREEN_TARGET_STATS_PAGE;

  00009	c7 45 fc 09 00
	00 00		 mov	 DWORD PTR _target$[ebp], 9

; 1185 : 
; 1186 : 	campaign_screen_message_responses [target][CAMPAIGN_SCREEN_GROUP_REMOVE_MEMBER]	=	response_to_group_remove_member;

  00010	6b 45 fc 38	 imul	 eax, DWORD PTR _target$[ebp], 56
  00014	b9 04 00 00 00	 mov	 ecx, 4
  00019	c1 e1 03	 shl	 ecx, 3
  0001c	c7 84 08 00 00
	00 00 00 00 00
	00		 mov	 DWORD PTR ?campaign_screen_message_responses@@3PAY0O@P6GHW4CAMPAIGN_SCREEN_MESSAGES@@PAUENTITY@@@ZA[eax+ecx], OFFSET ?response_to_group_remove_member@@YGHW4CAMPAIGN_SCREEN_MESSAGES@@PAUENTITY@@@Z ; response_to_group_remove_member

; 1187 : }

  00027	5f		 pop	 edi
  00028	5e		 pop	 esi
  00029	5b		 pop	 ebx
  0002a	8b e5		 mov	 esp, ebp
  0002c	5d		 pop	 ebp
  0002d	c3		 ret	 0
?overload_stats_page_message_responses@@YGXXZ ENDP	; overload_stats_page_message_responses
_TEXT	ENDS
; Function compile flags: /Odtp /ZI
; File c:\users\nhv90\projects\eech\aphavoc\source\ui_menu\ingame\campaign\ca_stat.c
;	COMDAT ?define_campaign_screen_stats_page_objects@@YGXXZ
_TEXT	SEGMENT
_loop$ = -284						; size = 4
_string$ = -280						; size = 256
_page$ = -24						; size = 4
_dy$ = -20						; size = 4
_y2$ = -16						; size = 4
_x2$ = -12						; size = 4
_y1$ = -8						; size = 4
_x1$ = -4						; size = 4
?define_campaign_screen_stats_page_objects@@YGXXZ PROC	; define_campaign_screen_stats_page_objects, COMDAT

; 808  : {

  00000	55		 push	 ebp
  00001	8b ec		 mov	 ebp, esp
  00003	81 ec 5c 01 00
	00		 sub	 esp, 348		; 0000015cH
  00009	53		 push	 ebx
  0000a	56		 push	 esi
  0000b	57		 push	 edi

; 809  : 	float
; 810  : 		x1,
; 811  : 		y1,
; 812  : 		x2,
; 813  : 		y2,
; 814  : 		dy;
; 815  : 
; 816  : 	ui_object
; 817  : 		*page;
; 818  : 
; 819  : 	char
; 820  : 		string [256];
; 821  : 
; 822  : 	int
; 823  : 		loop;
; 824  : 
; 825  : 	solid_bar_graphic = create_texture_graphic ("graphics\\ui\\cohokum\\map\\blockprp.psd");

  0000c	68 00 00 00 00	 push	 OFFSET ??_C@_0CF@CLPKPOMP@graphics?2ui?2cohokum?2map?2blockpr@
  00011	e8 00 00 00 00	 call	 ?create_texture_graphic@@YGPAUTEXTURE_GRAPHIC@@PBD@Z ; create_texture_graphic
  00016	a3 00 00 00 00	 mov	 DWORD PTR ?solid_bar_graphic@@3PAUTEXTURE_GRAPHIC@@A, eax

; 826  : 	red_bar_graphic = create_texture_graphic ("graphics\\ui\\cohokum\\map\\redbar.psd");

  0001b	68 00 00 00 00	 push	 OFFSET ??_C@_0CD@CLFPAJHL@graphics?2ui?2cohokum?2map?2redbar?4@
  00020	e8 00 00 00 00	 call	 ?create_texture_graphic@@YGPAUTEXTURE_GRAPHIC@@PBD@Z ; create_texture_graphic
  00025	a3 00 00 00 00	 mov	 DWORD PTR ?red_bar_graphic@@3PAUTEXTURE_GRAPHIC@@A, eax

; 827  : 	blue_bar_graphic = create_texture_graphic ("graphics\\ui\\cohokum\\map\\bluebar.psd");

  0002a	68 00 00 00 00	 push	 OFFSET ??_C@_0CE@DCDPCPPF@graphics?2ui?2cohokum?2map?2bluebar@
  0002f	e8 00 00 00 00	 call	 ?create_texture_graphic@@YGPAUTEXTURE_GRAPHIC@@PBD@Z ; create_texture_graphic
  00034	a3 00 00 00 00	 mov	 DWORD PTR ?blue_bar_graphic@@3PAUTEXTURE_GRAPHIC@@A, eax

; 828  : 
; 829  : 	/////////////////////////////////////////////////////////////////
; 830  : 	// Main Page Area
; 831  : 	/////////////////////////////////////////////////////////////////
; 832  : 
; 833  : 	x1 = CAMPAIGN_INSET_PAGE_X1;

  00039	f3 0f 10 05 00
	00 00 00	 movss	 xmm0, DWORD PTR __real@3e6147ae
  00041	f3 0f 11 45 fc	 movss	 DWORD PTR _x1$[ebp], xmm0

; 834  : 	y1 = CAMPAIGN_INSET_PAGE_Y1;

  00046	f3 0f 10 05 00
	00 00 00	 movss	 xmm0, DWORD PTR __real@3d449ba6
  0004e	f3 0f 11 45 f8	 movss	 DWORD PTR _y1$[ebp], xmm0

; 835  : 	x2 = CAMPAIGN_INSET_PAGE_X2;

  00053	f3 0f 10 05 00
	00 00 00	 movss	 xmm0, DWORD PTR __real@3f800000
  0005b	f3 0f 11 45 f4	 movss	 DWORD PTR _x2$[ebp], xmm0

; 836  : 	y2 = CAMPAIGN_INSET_PAGE_Y2;

  00060	f3 0f 10 05 00
	00 00 00	 movss	 xmm0, DWORD PTR __real@3f47ae14
  00068	f3 0f 11 45 f0	 movss	 DWORD PTR _y2$[ebp], xmm0

; 837  : 
; 838  : 	campaign_page [CAMPAIGN_PAGE_STATS] = create_ui_object

  0006d	6a 11		 push	 17			; 00000011H
  0006f	6a 01		 push	 1
  00071	6a 07		 push	 7
  00073	68 00 00 00 00	 push	 OFFSET ?update_stats_page_objects@@YGXPAUUI_OBJECT@@PAX@Z ; update_stats_page_objects
  00078	6a 0f		 push	 15			; 0000000fH
  0007a	6a 00		 push	 0
  0007c	6a 10		 push	 16			; 00000010H
  0007e	f3 0f 10 45 f0	 movss	 xmm0, DWORD PTR _y2$[ebp]
  00083	f3 0f 5c 45 f8	 subss	 xmm0, DWORD PTR _y1$[ebp]
  00088	f3 0f 5a c0	 cvtss2sd xmm0, xmm0
  0008c	83 ec 08	 sub	 esp, 8
  0008f	f2 0f 11 04 24	 movsd	 QWORD PTR [esp], xmm0
  00094	f3 0f 10 45 f4	 movss	 xmm0, DWORD PTR _x2$[ebp]
  00099	f3 0f 5c 45 fc	 subss	 xmm0, DWORD PTR _x1$[ebp]
  0009e	f3 0f 5a c0	 cvtss2sd xmm0, xmm0
  000a2	83 ec 08	 sub	 esp, 8
  000a5	f2 0f 11 04 24	 movsd	 QWORD PTR [esp], xmm0
  000aa	6a 59		 push	 89			; 00000059H
  000ac	f3 0f 5a 45 f8	 cvtss2sd xmm0, DWORD PTR _y1$[ebp]
  000b1	83 ec 08	 sub	 esp, 8
  000b4	f2 0f 11 04 24	 movsd	 QWORD PTR [esp], xmm0
  000b9	f3 0f 5a 45 fc	 cvtss2sd xmm0, DWORD PTR _x1$[ebp]
  000be	83 ec 08	 sub	 esp, 8
  000c1	f2 0f 11 04 24	 movsd	 QWORD PTR [esp], xmm0
  000c6	6a 58		 push	 88			; 00000058H
  000c8	a1 00 00 00 00	 mov	 eax, DWORD PTR ?campaign_screen@@3PAUUI_OBJECT@@A ; campaign_screen
  000cd	50		 push	 eax
  000ce	6a 32		 push	 50			; 00000032H
  000d0	6a 01		 push	 1
  000d2	e8 00 00 00 00	 call	 ?create_ui_object@@YAPAUUI_OBJECT@@HZZ ; create_ui_object
  000d7	83 c4 50	 add	 esp, 80			; 00000050H
  000da	b9 04 00 00 00	 mov	 ecx, 4
  000df	6b d1 06	 imul	 edx, ecx, 6
  000e2	89 82 00 00 00
	00		 mov	 DWORD PTR ?campaign_page@@3PAPAUUI_OBJECT@@A[edx], eax

; 839  : 		(
; 840  : 			UI_TYPE_AREA,
; 841  : 			UI_ATTR_PARENT (campaign_screen),
; 842  : 			UI_ATTR_VIRTUAL_POSITION (x1, y1),
; 843  : 			UI_ATTR_VIRTUAL_SIZE (x2 - x1, y2 - y1),
; 844  : 			UI_ATTR_DRAWABLE (FALSE),
; 845  : 			UI_ATTR_DRAW_FUNCTION (update_stats_page_objects),
; 846  : 			UI_ATTR_CLEAR (TRUE),
; 847  : 			UI_ATTR_END
; 848  : 		);
; 849  : 
; 850  : 	page = campaign_page [CAMPAIGN_PAGE_STATS];

  000e8	b8 04 00 00 00	 mov	 eax, 4
  000ed	6b c8 06	 imul	 ecx, eax, 6
  000f0	8b 91 00 00 00
	00		 mov	 edx, DWORD PTR ?campaign_page@@3PAPAUUI_OBJECT@@A[ecx]
  000f6	89 55 e8	 mov	 DWORD PTR _page$[ebp], edx

; 851  : 
; 852  : 	x1 = 0.044;

  000f9	f3 0f 10 05 00
	00 00 00	 movss	 xmm0, DWORD PTR __real@3d343958
  00101	f3 0f 11 45 fc	 movss	 DWORD PTR _x1$[ebp], xmm0

; 853  : 	y1 = 0.148;

  00106	f3 0f 10 05 00
	00 00 00	 movss	 xmm0, DWORD PTR __real@3e178d50
  0010e	f3 0f 11 45 f8	 movss	 DWORD PTR _y1$[ebp], xmm0

; 854  : 	x2 = 0.449;

  00113	f3 0f 10 05 00
	00 00 00	 movss	 xmm0, DWORD PTR __real@3ee5e354
  0011b	f3 0f 11 45 f4	 movss	 DWORD PTR _x2$[ebp], xmm0

; 855  : 	y2 = 0.220;

  00120	f3 0f 10 05 00
	00 00 00	 movss	 xmm0, DWORD PTR __real@3e6147ae
  00128	f3 0f 11 45 f0	 movss	 DWORD PTR _y2$[ebp], xmm0

; 856  : 
; 857  : 	create_ui_object

  0012d	6a 11		 push	 17			; 00000011H
  0012f	68 00 00 00 00	 push	 OFFSET ??_C@_0CF@CHIDFBHG@graphics?2ui?2cohokum?2map?2baltitl@
  00134	e8 00 00 00 00	 call	 ?create_texture_graphic@@YGPAUTEXTURE_GRAPHIC@@PBD@Z ; create_texture_graphic
  00139	50		 push	 eax
  0013a	6a 4c		 push	 76			; 0000004cH
  0013c	f3 0f 10 45 f0	 movss	 xmm0, DWORD PTR _y2$[ebp]
  00141	f3 0f 5c 45 f8	 subss	 xmm0, DWORD PTR _y1$[ebp]
  00146	f3 0f 5a c0	 cvtss2sd xmm0, xmm0
  0014a	83 ec 08	 sub	 esp, 8
  0014d	f2 0f 11 04 24	 movsd	 QWORD PTR [esp], xmm0
  00152	f3 0f 10 45 f4	 movss	 xmm0, DWORD PTR _x2$[ebp]
  00157	f3 0f 5c 45 fc	 subss	 xmm0, DWORD PTR _x1$[ebp]
  0015c	f3 0f 5a c0	 cvtss2sd xmm0, xmm0
  00160	83 ec 08	 sub	 esp, 8
  00163	f2 0f 11 04 24	 movsd	 QWORD PTR [esp], xmm0
  00168	6a 59		 push	 89			; 00000059H
  0016a	f3 0f 5a 45 f8	 cvtss2sd xmm0, DWORD PTR _y1$[ebp]
  0016f	83 ec 08	 sub	 esp, 8
  00172	f2 0f 11 04 24	 movsd	 QWORD PTR [esp], xmm0
  00177	f3 0f 5a 45 fc	 cvtss2sd xmm0, DWORD PTR _x1$[ebp]
  0017c	83 ec 08	 sub	 esp, 8
  0017f	f2 0f 11 04 24	 movsd	 QWORD PTR [esp], xmm0
  00184	6a 58		 push	 88			; 00000058H
  00186	8b 45 e8	 mov	 eax, DWORD PTR _page$[ebp]
  00189	50		 push	 eax
  0018a	6a 32		 push	 50			; 00000032H
  0018c	6a 01		 push	 1
  0018e	e8 00 00 00 00	 call	 ?create_ui_object@@YAPAUUI_OBJECT@@HZZ ; create_ui_object
  00193	83 c4 40	 add	 esp, 64			; 00000040H

; 858  : 		(
; 859  : 			UI_TYPE_AREA,
; 860  : 			UI_ATTR_PARENT (page),
; 861  : 			UI_ATTR_VIRTUAL_POSITION (x1, y1),
; 862  : 			UI_ATTR_VIRTUAL_SIZE (x2 - x1, y2 - y1),
; 863  : 			UI_ATTR_TEXTURE_GRAPHIC (create_texture_graphic ("graphics\\ui\\cohokum\\map\\baltitle.psd")),
; 864  : 			UI_ATTR_END
; 865  : 		);
; 866  : 
; 867  : 	sprintf (string, " %s:", get_trans ("Balance of Power"));

  00196	68 00 00 00 00	 push	 OFFSET ??_C@_0BB@BDKPIIKH@Balance?5of?5Power@
  0019b	e8 00 00 00 00	 call	 ?get_trans@@YGPBDPBD@Z	; get_trans
  001a0	50		 push	 eax
  001a1	68 00 00 00 00	 push	 OFFSET ??_C@_04BMOOHAJK@?5?$CFs?3@
  001a6	8d 85 e8 fe ff
	ff		 lea	 eax, DWORD PTR _string$[ebp]
  001ac	50		 push	 eax
  001ad	e8 00 00 00 00	 call	 _sprintf
  001b2	83 c4 0c	 add	 esp, 12			; 0000000cH

; 868  : 	
; 869  : 	x1 = 0.000;

  001b5	0f 57 c0	 xorps	 xmm0, xmm0
  001b8	f3 0f 11 45 fc	 movss	 DWORD PTR _x1$[ebp], xmm0

; 870  : 	y1 = 0.172;

  001bd	f3 0f 10 05 00
	00 00 00	 movss	 xmm0, DWORD PTR __real@3e3020c5
  001c5	f3 0f 11 45 f8	 movss	 DWORD PTR _y1$[ebp], xmm0

; 871  : 	x2 = 0.442;

  001ca	f3 0f 10 05 00
	00 00 00	 movss	 xmm0, DWORD PTR __real@3ee24dd3
  001d2	f3 0f 11 45 f4	 movss	 DWORD PTR _x2$[ebp], xmm0

; 872  : 	y2 = 0.220;

  001d7	f3 0f 10 05 00
	00 00 00	 movss	 xmm0, DWORD PTR __real@3e6147ae
  001df	f3 0f 11 45 f0	 movss	 DWORD PTR _y2$[ebp], xmm0

; 873  : 
; 874  : 	create_ui_object

  001e4	6a 11		 push	 17			; 00000011H
  001e6	8d 85 e8 fe ff
	ff		 lea	 eax, DWORD PTR _string$[ebp]
  001ec	50		 push	 eax
  001ed	6a 4a		 push	 74			; 0000004aH
  001ef	6a 01		 push	 1
  001f1	6a 07		 push	 7
  001f3	6a 02		 push	 2
  001f5	6a 4b		 push	 75			; 0000004bH
  001f7	0f b6 0d 03 00
	00 00		 movzx	 ecx, BYTE PTR ?ui_ingame_dead_text_colour@@3UREAL_COLOUR@@A+3
  001fe	51		 push	 ecx
  001ff	0f b6 15 00 00
	00 00		 movzx	 edx, BYTE PTR ?ui_ingame_dead_text_colour@@3UREAL_COLOUR@@A
  00206	52		 push	 edx
  00207	0f b6 05 01 00
	00 00		 movzx	 eax, BYTE PTR ?ui_ingame_dead_text_colour@@3UREAL_COLOUR@@A+1
  0020e	50		 push	 eax
  0020f	0f b6 0d 02 00
	00 00		 movzx	 ecx, BYTE PTR ?ui_ingame_dead_text_colour@@3UREAL_COLOUR@@A+2
  00216	51		 push	 ecx
  00217	6a 13		 push	 19			; 00000013H
  00219	6a 0a		 push	 10			; 0000000aH
  0021b	6a 12		 push	 18			; 00000012H
  0021d	f3 0f 10 45 f0	 movss	 xmm0, DWORD PTR _y2$[ebp]
  00222	f3 0f 5c 45 f8	 subss	 xmm0, DWORD PTR _y1$[ebp]
  00227	f3 0f 5a c0	 cvtss2sd xmm0, xmm0
  0022b	83 ec 08	 sub	 esp, 8
  0022e	f2 0f 11 04 24	 movsd	 QWORD PTR [esp], xmm0
  00233	f3 0f 10 45 f4	 movss	 xmm0, DWORD PTR _x2$[ebp]
  00238	f3 0f 5c 45 fc	 subss	 xmm0, DWORD PTR _x1$[ebp]
  0023d	f3 0f 5a c0	 cvtss2sd xmm0, xmm0
  00241	83 ec 08	 sub	 esp, 8
  00244	f2 0f 11 04 24	 movsd	 QWORD PTR [esp], xmm0
  00249	6a 59		 push	 89			; 00000059H
  0024b	f3 0f 5a 45 f8	 cvtss2sd xmm0, DWORD PTR _y1$[ebp]
  00250	83 ec 08	 sub	 esp, 8
  00253	f2 0f 11 04 24	 movsd	 QWORD PTR [esp], xmm0
  00258	f3 0f 5a 45 fc	 cvtss2sd xmm0, DWORD PTR _x1$[ebp]
  0025d	83 ec 08	 sub	 esp, 8
  00260	f2 0f 11 04 24	 movsd	 QWORD PTR [esp], xmm0
  00265	6a 58		 push	 88			; 00000058H
  00267	8b 55 e8	 mov	 edx, DWORD PTR _page$[ebp]
  0026a	52		 push	 edx
  0026b	6a 32		 push	 50			; 00000032H
  0026d	6a 01		 push	 1
  0026f	e8 00 00 00 00	 call	 ?create_ui_object@@YAPAUUI_OBJECT@@HZZ ; create_ui_object
  00274	83 c4 6c	 add	 esp, 108		; 0000006cH

; 875  : 		(
; 876  : 			UI_TYPE_AREA,
; 877  : 			UI_ATTR_PARENT (page),
; 878  : 			UI_ATTR_VIRTUAL_POSITION (x1, y1),
; 879  : 			UI_ATTR_VIRTUAL_SIZE (x2 - x1, y2 - y1),
; 880  : 			UI_ATTR_FONT_TYPE (UI_FONT_ARIAL_22),
; 881  : 			UI_ATTR_FONT_COLOUR (ui_ingame_dead_text_colour.r, ui_ingame_dead_text_colour.g, ui_ingame_dead_text_colour.b, ui_ingame_dead_text_colour.a),
; 882  : 			UI_ATTR_TEXT_JUSTIFY (TEXT_JUSTIFY_RIGHT_CENTRE),
; 883  : 			UI_ATTR_CLEAR (TRUE),
; 884  : 			UI_ATTR_TEXT (string),
; 885  : 			UI_ATTR_END
; 886  : 		);
; 887  : 
; 888  : 	/////////////////////////////////////////////////////////////////
; 889  : 	// Balance Of Power
; 890  : 
; 891  : 	x1 = 0.5;

  00277	f3 0f 10 05 00
	00 00 00	 movss	 xmm0, DWORD PTR __real@3f000000
  0027f	f3 0f 11 45 fc	 movss	 DWORD PTR _x1$[ebp], xmm0

; 892  : 	y1 = 0.15;

  00284	f3 0f 10 05 00
	00 00 00	 movss	 xmm0, DWORD PTR __real@3e19999a
  0028c	f3 0f 11 45 f8	 movss	 DWORD PTR _y1$[ebp], xmm0

; 893  : 	x2 = 0.99;

  00291	f3 0f 10 05 00
	00 00 00	 movss	 xmm0, DWORD PTR __real@3f7d70a4
  00299	f3 0f 11 45 f4	 movss	 DWORD PTR _x2$[ebp], xmm0

; 894  : 	y2 = 0.69;

  0029e	f3 0f 10 05 00
	00 00 00	 movss	 xmm0, DWORD PTR __real@3f30a3d7
  002a6	f3 0f 11 45 f0	 movss	 DWORD PTR _y2$[ebp], xmm0

; 895  : 
; 896  : 	page_balance_area = create_ui_object

  002ab	6a 11		 push	 17			; 00000011H
  002ad	6a 01		 push	 1
  002af	6a 07		 push	 7
  002b1	68 00 00 00 00	 push	 OFFSET ?update_stats_page_balance_of_power_objects@@YGXPAUUI_OBJECT@@PAX@Z ; update_stats_page_balance_of_power_objects
  002b6	6a 0f		 push	 15			; 0000000fH
  002b8	f3 0f 10 45 f0	 movss	 xmm0, DWORD PTR _y2$[ebp]
  002bd	f3 0f 5c 45 f8	 subss	 xmm0, DWORD PTR _y1$[ebp]
  002c2	f3 0f 5a c0	 cvtss2sd xmm0, xmm0
  002c6	83 ec 08	 sub	 esp, 8
  002c9	f2 0f 11 04 24	 movsd	 QWORD PTR [esp], xmm0
  002ce	f3 0f 10 45 f4	 movss	 xmm0, DWORD PTR _x2$[ebp]
  002d3	f3 0f 5c 45 fc	 subss	 xmm0, DWORD PTR _x1$[ebp]
  002d8	f3 0f 5a c0	 cvtss2sd xmm0, xmm0
  002dc	83 ec 08	 sub	 esp, 8
  002df	f2 0f 11 04 24	 movsd	 QWORD PTR [esp], xmm0
  002e4	6a 59		 push	 89			; 00000059H
  002e6	f3 0f 5a 45 f8	 cvtss2sd xmm0, DWORD PTR _y1$[ebp]
  002eb	83 ec 08	 sub	 esp, 8
  002ee	f2 0f 11 04 24	 movsd	 QWORD PTR [esp], xmm0
  002f3	f3 0f 5a 45 fc	 cvtss2sd xmm0, DWORD PTR _x1$[ebp]
  002f8	83 ec 08	 sub	 esp, 8
  002fb	f2 0f 11 04 24	 movsd	 QWORD PTR [esp], xmm0
  00300	6a 58		 push	 88			; 00000058H
  00302	8b 45 e8	 mov	 eax, DWORD PTR _page$[ebp]
  00305	50		 push	 eax
  00306	6a 32		 push	 50			; 00000032H
  00308	6a 01		 push	 1
  0030a	e8 00 00 00 00	 call	 ?create_ui_object@@YAPAUUI_OBJECT@@HZZ ; create_ui_object
  0030f	83 c4 48	 add	 esp, 72			; 00000048H
  00312	a3 00 00 00 00	 mov	 DWORD PTR ?page_balance_area@@3PAUUI_OBJECT@@A, eax

; 897  : 		(
; 898  : 			UI_TYPE_AREA,
; 899  : 			UI_ATTR_PARENT (page),
; 900  : 			UI_ATTR_VIRTUAL_POSITION (x1, y1),
; 901  : 			UI_ATTR_VIRTUAL_SIZE (x2 - x1, y2 - y1),
; 902  : 			UI_ATTR_DRAW_FUNCTION (update_stats_page_balance_of_power_objects),
; 903  : 			UI_ATTR_CLEAR (TRUE),
; 904  : 			UI_ATTR_END
; 905  : 		);
; 906  : 
; 907  : 	x1 = 0.0;

  00317	0f 57 c0	 xorps	 xmm0, xmm0
  0031a	f3 0f 11 45 fc	 movss	 DWORD PTR _x1$[ebp], xmm0

; 908  : 	y1 = 0.0;

  0031f	0f 57 c0	 xorps	 xmm0, xmm0
  00322	f3 0f 11 45 f8	 movss	 DWORD PTR _y1$[ebp], xmm0

; 909  : 	x2 = 1.0;

  00327	f3 0f 10 05 00
	00 00 00	 movss	 xmm0, DWORD PTR __real@3f800000
  0032f	f3 0f 11 45 f4	 movss	 DWORD PTR _x2$[ebp], xmm0

; 910  : 	y2 = 1.0;

  00334	f3 0f 10 05 00
	00 00 00	 movss	 xmm0, DWORD PTR __real@3f800000
  0033c	f3 0f 11 45 f0	 movss	 DWORD PTR _y2$[ebp], xmm0

; 911  : 
; 912  : 	page_balance_overlay = create_ui_object

  00341	6a 11		 push	 17			; 00000011H
  00343	68 00 00 00 00	 push	 OFFSET ??_C@_0CD@GGPACJN@graphics?2ui?2cohokum?2map?2bpower?4@
  00348	e8 00 00 00 00	 call	 ?create_texture_graphic@@YGPAUTEXTURE_GRAPHIC@@PBD@Z ; create_texture_graphic
  0034d	50		 push	 eax
  0034e	6a 4c		 push	 76			; 0000004cH
  00350	f3 0f 10 45 f0	 movss	 xmm0, DWORD PTR _y2$[ebp]
  00355	f3 0f 5c 45 f8	 subss	 xmm0, DWORD PTR _y1$[ebp]
  0035a	f3 0f 5a c0	 cvtss2sd xmm0, xmm0
  0035e	83 ec 08	 sub	 esp, 8
  00361	f2 0f 11 04 24	 movsd	 QWORD PTR [esp], xmm0
  00366	f3 0f 10 45 f4	 movss	 xmm0, DWORD PTR _x2$[ebp]
  0036b	f3 0f 5c 45 fc	 subss	 xmm0, DWORD PTR _x1$[ebp]
  00370	f3 0f 5a c0	 cvtss2sd xmm0, xmm0
  00374	83 ec 08	 sub	 esp, 8
  00377	f2 0f 11 04 24	 movsd	 QWORD PTR [esp], xmm0
  0037c	6a 59		 push	 89			; 00000059H
  0037e	f3 0f 5a 45 f8	 cvtss2sd xmm0, DWORD PTR _y1$[ebp]
  00383	83 ec 08	 sub	 esp, 8
  00386	f2 0f 11 04 24	 movsd	 QWORD PTR [esp], xmm0
  0038b	f3 0f 5a 45 fc	 cvtss2sd xmm0, DWORD PTR _x1$[ebp]
  00390	83 ec 08	 sub	 esp, 8
  00393	f2 0f 11 04 24	 movsd	 QWORD PTR [esp], xmm0
  00398	6a 58		 push	 88			; 00000058H
  0039a	a1 00 00 00 00	 mov	 eax, DWORD PTR ?page_balance_area@@3PAUUI_OBJECT@@A
  0039f	50		 push	 eax
  003a0	6a 32		 push	 50			; 00000032H
  003a2	6a 01		 push	 1
  003a4	e8 00 00 00 00	 call	 ?create_ui_object@@YAPAUUI_OBJECT@@HZZ ; create_ui_object
  003a9	83 c4 40	 add	 esp, 64			; 00000040H
  003ac	a3 00 00 00 00	 mov	 DWORD PTR ?page_balance_overlay@@3PAUUI_OBJECT@@A, eax

; 913  : 		(
; 914  : 			UI_TYPE_AREA,
; 915  : 			UI_ATTR_PARENT (page_balance_area),
; 916  : 			UI_ATTR_VIRTUAL_POSITION (x1, y1),
; 917  : 			UI_ATTR_VIRTUAL_SIZE (x2 - x1, y2 - y1),
; 918  : 			UI_ATTR_TEXTURE_GRAPHIC (create_texture_graphic ("graphics\\ui\\cohokum\\map\\bpower.psd")),
; 919  : 			UI_ATTR_END
; 920  : 		);
; 921  : 
; 922  : 	//
; 923  : 	// Sector sides
; 924  : 	//
; 925  : 	
; 926  : 	y1 = BPOWER_SIDE_AREA_YMIN;

  003b1	0f 57 c0	 xorps	 xmm0, xmm0
  003b4	f3 0f 11 45 f8	 movss	 DWORD PTR _y1$[ebp], xmm0

; 927  : 	y2 = BPOWER_SIDE_AREA_YMAX;

  003b9	f3 0f 10 05 00
	00 00 00	 movss	 xmm0, DWORD PTR __real@3dfbe76d
  003c1	f3 0f 11 45 f0	 movss	 DWORD PTR _y2$[ebp], xmm0

; 928  : 
; 929  : 	x1 = BPOWER_MAIN_AREA_TEXT_XMIN;

  003c6	f3 0f 10 05 00
	00 00 00	 movss	 xmm0, DWORD PTR __real@3e23d70a
  003ce	f3 0f 11 45 fc	 movss	 DWORD PTR _x1$[ebp], xmm0

; 930  : 	x2 = (BPOWER_MAIN_AREA_TEXT_XMIN + BPOWER_MAIN_AREA_TEXT_XMAX) * 0.5;

  003d3	f3 0f 10 05 00
	00 00 00	 movss	 xmm0, DWORD PTR __real@3f1126e9
  003db	f3 0f 11 45 f4	 movss	 DWORD PTR _x2$[ebp], xmm0

; 931  : 
; 932  : 	page_balance_sector_side_text_object [0] = create_ui_object

  003e0	6a 11		 push	 17			; 00000011H
  003e2	6a 01		 push	 1
  003e4	6a 07		 push	 7
  003e6	6a 01		 push	 1
  003e8	6a 4b		 push	 75			; 0000004bH
  003ea	f3 0f 10 45 f0	 movss	 xmm0, DWORD PTR _y2$[ebp]
  003ef	f3 0f 5c 45 f8	 subss	 xmm0, DWORD PTR _y1$[ebp]
  003f4	f3 0f 5a c0	 cvtss2sd xmm0, xmm0
  003f8	83 ec 08	 sub	 esp, 8
  003fb	f2 0f 11 04 24	 movsd	 QWORD PTR [esp], xmm0
  00400	f3 0f 10 45 f4	 movss	 xmm0, DWORD PTR _x2$[ebp]
  00405	f3 0f 5c 45 fc	 subss	 xmm0, DWORD PTR _x1$[ebp]
  0040a	f3 0f 5a c0	 cvtss2sd xmm0, xmm0
  0040e	83 ec 08	 sub	 esp, 8
  00411	f2 0f 11 04 24	 movsd	 QWORD PTR [esp], xmm0
  00416	6a 59		 push	 89			; 00000059H
  00418	f3 0f 5a 45 f8	 cvtss2sd xmm0, DWORD PTR _y1$[ebp]
  0041d	83 ec 08	 sub	 esp, 8
  00420	f2 0f 11 04 24	 movsd	 QWORD PTR [esp], xmm0
  00425	f3 0f 5a 45 fc	 cvtss2sd xmm0, DWORD PTR _x1$[ebp]
  0042a	83 ec 08	 sub	 esp, 8
  0042d	f2 0f 11 04 24	 movsd	 QWORD PTR [esp], xmm0
  00432	6a 58		 push	 88			; 00000058H
  00434	a1 00 00 00 00	 mov	 eax, DWORD PTR ?page_balance_overlay@@3PAUUI_OBJECT@@A
  00439	50		 push	 eax
  0043a	6a 32		 push	 50			; 00000032H
  0043c	6a 01		 push	 1
  0043e	e8 00 00 00 00	 call	 ?create_ui_object@@YAPAUUI_OBJECT@@HZZ ; create_ui_object
  00443	83 c4 48	 add	 esp, 72			; 00000048H
  00446	b9 04 00 00 00	 mov	 ecx, 4
  0044b	6b d1 00	 imul	 edx, ecx, 0
  0044e	89 82 00 00 00
	00		 mov	 DWORD PTR ?page_balance_sector_side_text_object@@3PAPAUUI_OBJECT@@A[edx], eax

; 933  : 	(
; 934  : 			UI_TYPE_AREA,
; 935  : 			UI_ATTR_PARENT (page_balance_overlay),
; 936  : 			UI_ATTR_VIRTUAL_POSITION (x1, y1),
; 937  : 			UI_ATTR_VIRTUAL_SIZE (x2 - x1, y2 - y1),
; 938  : 			UI_ATTR_TEXT_JUSTIFY (TEXT_JUSTIFY_LEFT_CENTRE),
; 939  : 			UI_ATTR_CLEAR (TRUE),
; 940  : 			UI_ATTR_END
; 941  : 	);
; 942  : 
; 943  : 	x1 = (BPOWER_MAIN_AREA_TEXT_XMIN + BPOWER_MAIN_AREA_TEXT_XMAX) * 0.5;

  00454	f3 0f 10 05 00
	00 00 00	 movss	 xmm0, DWORD PTR __real@3f1126e9
  0045c	f3 0f 11 45 fc	 movss	 DWORD PTR _x1$[ebp], xmm0

; 944  : 	x2 = BPOWER_MAIN_AREA_TEXT_XMAX;

  00461	f3 0f 10 05 00
	00 00 00	 movss	 xmm0, DWORD PTR __real@3f795810
  00469	f3 0f 11 45 f4	 movss	 DWORD PTR _x2$[ebp], xmm0

; 945  : 
; 946  : 	page_balance_sector_side_text_object [1] = create_ui_object

  0046e	6a 11		 push	 17			; 00000011H
  00470	6a 01		 push	 1
  00472	6a 07		 push	 7
  00474	6a 02		 push	 2
  00476	6a 4b		 push	 75			; 0000004bH
  00478	f3 0f 10 45 f0	 movss	 xmm0, DWORD PTR _y2$[ebp]
  0047d	f3 0f 5c 45 f8	 subss	 xmm0, DWORD PTR _y1$[ebp]
  00482	f3 0f 5a c0	 cvtss2sd xmm0, xmm0
  00486	83 ec 08	 sub	 esp, 8
  00489	f2 0f 11 04 24	 movsd	 QWORD PTR [esp], xmm0
  0048e	f3 0f 10 45 f4	 movss	 xmm0, DWORD PTR _x2$[ebp]
  00493	f3 0f 5c 45 fc	 subss	 xmm0, DWORD PTR _x1$[ebp]
  00498	f3 0f 5a c0	 cvtss2sd xmm0, xmm0
  0049c	83 ec 08	 sub	 esp, 8
  0049f	f2 0f 11 04 24	 movsd	 QWORD PTR [esp], xmm0
  004a4	6a 59		 push	 89			; 00000059H
  004a6	f3 0f 5a 45 f8	 cvtss2sd xmm0, DWORD PTR _y1$[ebp]
  004ab	83 ec 08	 sub	 esp, 8
  004ae	f2 0f 11 04 24	 movsd	 QWORD PTR [esp], xmm0
  004b3	f3 0f 5a 45 fc	 cvtss2sd xmm0, DWORD PTR _x1$[ebp]
  004b8	83 ec 08	 sub	 esp, 8
  004bb	f2 0f 11 04 24	 movsd	 QWORD PTR [esp], xmm0
  004c0	6a 58		 push	 88			; 00000058H
  004c2	a1 00 00 00 00	 mov	 eax, DWORD PTR ?page_balance_overlay@@3PAUUI_OBJECT@@A
  004c7	50		 push	 eax
  004c8	6a 32		 push	 50			; 00000032H
  004ca	6a 01		 push	 1
  004cc	e8 00 00 00 00	 call	 ?create_ui_object@@YAPAUUI_OBJECT@@HZZ ; create_ui_object
  004d1	83 c4 48	 add	 esp, 72			; 00000048H
  004d4	b9 04 00 00 00	 mov	 ecx, 4
  004d9	c1 e1 00	 shl	 ecx, 0
  004dc	89 81 00 00 00
	00		 mov	 DWORD PTR ?page_balance_sector_side_text_object@@3PAPAUUI_OBJECT@@A[ecx], eax

; 947  : 	(
; 948  : 			UI_TYPE_AREA,
; 949  : 			UI_ATTR_PARENT (page_balance_overlay),
; 950  : 			UI_ATTR_VIRTUAL_POSITION (x1, y1),
; 951  : 			UI_ATTR_VIRTUAL_SIZE (x2 - x1, y2 - y1),
; 952  : 			UI_ATTR_TEXT_JUSTIFY (TEXT_JUSTIFY_RIGHT_CENTRE),
; 953  : 			UI_ATTR_CLEAR (TRUE),
; 954  : 			UI_ATTR_END
; 955  : 	);
; 956  : 
; 957  : 	//
; 958  : 	// Unit balance of power
; 959  : 	//
; 960  : 
; 961  : 	dy = (BPOWER_MAIN_AREA_YMAX - BPOWER_MAIN_AREA_YMIN) / BPOWER_MAIN_AREA_ITEM_COUNT;

  004e2	f3 0f 10 05 00
	00 00 00	 movss	 xmm0, DWORD PTR __real@3df28aae
  004ea	f3 0f 11 45 ec	 movss	 DWORD PTR _dy$[ebp], xmm0

; 962  : 
; 963  : 	y1 = BPOWER_MAIN_AREA_YMIN;

  004ef	f3 0f 10 05 00
	00 00 00	 movss	 xmm0, DWORD PTR __real@3e2f1aa0
  004f7	f3 0f 11 45 f8	 movss	 DWORD PTR _y1$[ebp], xmm0

; 964  : 
; 965  : 	for (loop = 0; loop < BPOWER_MAIN_AREA_ITEM_COUNT; loop ++)

  004fc	c7 85 e4 fe ff
	ff 00 00 00 00	 mov	 DWORD PTR _loop$[ebp], 0
  00506	eb 0f		 jmp	 SHORT $LN4@define_cam
$LN2@define_cam:
  00508	8b 85 e4 fe ff
	ff		 mov	 eax, DWORD PTR _loop$[ebp]
  0050e	83 c0 01	 add	 eax, 1
  00511	89 85 e4 fe ff
	ff		 mov	 DWORD PTR _loop$[ebp], eax
$LN4@define_cam:
  00517	83 bd e4 fe ff
	ff 07		 cmp	 DWORD PTR _loop$[ebp], 7
  0051e	0f 8d 4d 01 00
	00		 jge	 $LN3@define_cam

; 966  : 	{
; 967  : 		y2 = y1 + dy;

  00524	f3 0f 10 45 f8	 movss	 xmm0, DWORD PTR _y1$[ebp]
  00529	f3 0f 58 45 ec	 addss	 xmm0, DWORD PTR _dy$[ebp]
  0052e	f3 0f 11 45 f0	 movss	 DWORD PTR _y2$[ebp], xmm0

; 968  : 
; 969  : 		x1 = BPOWER_MAIN_AREA_TEXT_XMIN;

  00533	f3 0f 10 05 00
	00 00 00	 movss	 xmm0, DWORD PTR __real@3e23d70a
  0053b	f3 0f 11 45 fc	 movss	 DWORD PTR _x1$[ebp], xmm0

; 970  : 		x2 = (BPOWER_MAIN_AREA_TEXT_XMIN + BPOWER_MAIN_AREA_TEXT_XMAX) * 0.5;

  00540	f3 0f 10 05 00
	00 00 00	 movss	 xmm0, DWORD PTR __real@3f1126e9
  00548	f3 0f 11 45 f4	 movss	 DWORD PTR _x2$[ebp], xmm0

; 971  : 
; 972  : 		page_balance_text_object [0][loop] = create_ui_object

  0054d	6a 11		 push	 17			; 00000011H
  0054f	6a 01		 push	 1
  00551	6a 07		 push	 7
  00553	6a 01		 push	 1
  00555	6a 4b		 push	 75			; 0000004bH
  00557	f3 0f 10 45 f0	 movss	 xmm0, DWORD PTR _y2$[ebp]
  0055c	f3 0f 5c 45 f8	 subss	 xmm0, DWORD PTR _y1$[ebp]
  00561	f3 0f 5a c0	 cvtss2sd xmm0, xmm0
  00565	83 ec 08	 sub	 esp, 8
  00568	f2 0f 11 04 24	 movsd	 QWORD PTR [esp], xmm0
  0056d	f3 0f 10 45 f4	 movss	 xmm0, DWORD PTR _x2$[ebp]
  00572	f3 0f 5c 45 fc	 subss	 xmm0, DWORD PTR _x1$[ebp]
  00577	f3 0f 5a c0	 cvtss2sd xmm0, xmm0
  0057b	83 ec 08	 sub	 esp, 8
  0057e	f2 0f 11 04 24	 movsd	 QWORD PTR [esp], xmm0
  00583	6a 59		 push	 89			; 00000059H
  00585	f3 0f 5a 45 f8	 cvtss2sd xmm0, DWORD PTR _y1$[ebp]
  0058a	83 ec 08	 sub	 esp, 8
  0058d	f2 0f 11 04 24	 movsd	 QWORD PTR [esp], xmm0
  00592	f3 0f 5a 45 fc	 cvtss2sd xmm0, DWORD PTR _x1$[ebp]
  00597	83 ec 08	 sub	 esp, 8
  0059a	f2 0f 11 04 24	 movsd	 QWORD PTR [esp], xmm0
  0059f	6a 58		 push	 88			; 00000058H
  005a1	a1 00 00 00 00	 mov	 eax, DWORD PTR ?page_balance_overlay@@3PAUUI_OBJECT@@A
  005a6	50		 push	 eax
  005a7	6a 32		 push	 50			; 00000032H
  005a9	6a 01		 push	 1
  005ab	e8 00 00 00 00	 call	 ?create_ui_object@@YAPAUUI_OBJECT@@HZZ ; create_ui_object
  005b0	83 c4 48	 add	 esp, 72			; 00000048H
  005b3	b9 1c 00 00 00	 mov	 ecx, 28			; 0000001cH
  005b8	6b d1 00	 imul	 edx, ecx, 0
  005bb	8b 8d e4 fe ff
	ff		 mov	 ecx, DWORD PTR _loop$[ebp]
  005c1	89 84 8a 00 00
	00 00		 mov	 DWORD PTR ?page_balance_text_object@@3PAY06PAUUI_OBJECT@@A[edx+ecx*4], eax

; 973  : 		(
; 974  : 			UI_TYPE_AREA,
; 975  : 			UI_ATTR_PARENT (page_balance_overlay),
; 976  : 			UI_ATTR_VIRTUAL_POSITION (x1, y1),
; 977  : 			UI_ATTR_VIRTUAL_SIZE (x2 - x1, y2 - y1),
; 978  : 			UI_ATTR_TEXT_JUSTIFY (TEXT_JUSTIFY_LEFT_CENTRE),
; 979  : 			UI_ATTR_CLEAR (TRUE),
; 980  : 			UI_ATTR_END
; 981  : 		);
; 982  : 
; 983  : 		x1 = (BPOWER_MAIN_AREA_TEXT_XMIN + BPOWER_MAIN_AREA_TEXT_XMAX) * 0.5;

  005c8	f3 0f 10 05 00
	00 00 00	 movss	 xmm0, DWORD PTR __real@3f1126e9
  005d0	f3 0f 11 45 fc	 movss	 DWORD PTR _x1$[ebp], xmm0

; 984  : 		x2 = BPOWER_MAIN_AREA_TEXT_XMAX;

  005d5	f3 0f 10 05 00
	00 00 00	 movss	 xmm0, DWORD PTR __real@3f795810
  005dd	f3 0f 11 45 f4	 movss	 DWORD PTR _x2$[ebp], xmm0

; 985  : 
; 986  : 		page_balance_text_object [1][loop] = create_ui_object

  005e2	6a 11		 push	 17			; 00000011H
  005e4	6a 01		 push	 1
  005e6	6a 07		 push	 7
  005e8	6a 02		 push	 2
  005ea	6a 4b		 push	 75			; 0000004bH
  005ec	f3 0f 10 45 f0	 movss	 xmm0, DWORD PTR _y2$[ebp]
  005f1	f3 0f 5c 45 f8	 subss	 xmm0, DWORD PTR _y1$[ebp]
  005f6	f3 0f 5a c0	 cvtss2sd xmm0, xmm0
  005fa	83 ec 08	 sub	 esp, 8
  005fd	f2 0f 11 04 24	 movsd	 QWORD PTR [esp], xmm0
  00602	f3 0f 10 45 f4	 movss	 xmm0, DWORD PTR _x2$[ebp]
  00607	f3 0f 5c 45 fc	 subss	 xmm0, DWORD PTR _x1$[ebp]
  0060c	f3 0f 5a c0	 cvtss2sd xmm0, xmm0
  00610	83 ec 08	 sub	 esp, 8
  00613	f2 0f 11 04 24	 movsd	 QWORD PTR [esp], xmm0
  00618	6a 59		 push	 89			; 00000059H
  0061a	f3 0f 5a 45 f8	 cvtss2sd xmm0, DWORD PTR _y1$[ebp]
  0061f	83 ec 08	 sub	 esp, 8
  00622	f2 0f 11 04 24	 movsd	 QWORD PTR [esp], xmm0
  00627	f3 0f 5a 45 fc	 cvtss2sd xmm0, DWORD PTR _x1$[ebp]
  0062c	83 ec 08	 sub	 esp, 8
  0062f	f2 0f 11 04 24	 movsd	 QWORD PTR [esp], xmm0
  00634	6a 58		 push	 88			; 00000058H
  00636	a1 00 00 00 00	 mov	 eax, DWORD PTR ?page_balance_overlay@@3PAUUI_OBJECT@@A
  0063b	50		 push	 eax
  0063c	6a 32		 push	 50			; 00000032H
  0063e	6a 01		 push	 1
  00640	e8 00 00 00 00	 call	 ?create_ui_object@@YAPAUUI_OBJECT@@HZZ ; create_ui_object
  00645	83 c4 48	 add	 esp, 72			; 00000048H
  00648	b9 1c 00 00 00	 mov	 ecx, 28			; 0000001cH
  0064d	c1 e1 00	 shl	 ecx, 0
  00650	8b 95 e4 fe ff
	ff		 mov	 edx, DWORD PTR _loop$[ebp]
  00656	89 84 91 00 00
	00 00		 mov	 DWORD PTR ?page_balance_text_object@@3PAY06PAUUI_OBJECT@@A[ecx+edx*4], eax

; 987  : 		(
; 988  : 			UI_TYPE_AREA,
; 989  : 			UI_ATTR_PARENT (page_balance_overlay),
; 990  : 			UI_ATTR_VIRTUAL_POSITION (x1, y1),
; 991  : 			UI_ATTR_VIRTUAL_SIZE (x2 - x1, y2 - y1),
; 992  : 			UI_ATTR_TEXT_JUSTIFY (TEXT_JUSTIFY_RIGHT_CENTRE),
; 993  : 			UI_ATTR_CLEAR (TRUE),
; 994  : 			UI_ATTR_END
; 995  : 		);
; 996  : 
; 997  : 		y1 += dy;

  0065d	f3 0f 10 45 f8	 movss	 xmm0, DWORD PTR _y1$[ebp]
  00662	f3 0f 58 45 ec	 addss	 xmm0, DWORD PTR _dy$[ebp]
  00667	f3 0f 11 45 f8	 movss	 DWORD PTR _y1$[ebp], xmm0

; 998  : 	}

  0066c	e9 97 fe ff ff	 jmp	 $LN2@define_cam
$LN3@define_cam:

; 999  : 
; 1000 : 	/////////////////////////////////////////////////////////////////
; 1001 : 	// Objectives
; 1002 : 	
; 1003 : 	x1 = 0.040;

  00671	f3 0f 10 05 00
	00 00 00	 movss	 xmm0, DWORD PTR __real@3d23d70a
  00679	f3 0f 11 45 fc	 movss	 DWORD PTR _x1$[ebp], xmm0

; 1004 : 	y1 = 0.340;

  0067e	f3 0f 10 05 00
	00 00 00	 movss	 xmm0, DWORD PTR __real@3eae147b
  00686	f3 0f 11 45 f8	 movss	 DWORD PTR _y1$[ebp], xmm0

; 1005 : 	x2 = 0.49;

  0068b	f3 0f 10 05 00
	00 00 00	 movss	 xmm0, DWORD PTR __real@3efae148
  00693	f3 0f 11 45 f4	 movss	 DWORD PTR _x2$[ebp], xmm0

; 1006 : 	y2 = 0.334;

  00698	f3 0f 10 05 00
	00 00 00	 movss	 xmm0, DWORD PTR __real@3eab020c
  006a0	f3 0f 11 45 f0	 movss	 DWORD PTR _y2$[ebp], xmm0

; 1007 : 
; 1008 : 	sprintf (string, "%s:", get_trans ("Objectives"));

  006a5	68 00 00 00 00	 push	 OFFSET ??_C@_0L@OPAJACLP@Objectives@
  006aa	e8 00 00 00 00	 call	 ?get_trans@@YGPBDPBD@Z	; get_trans
  006af	50		 push	 eax
  006b0	68 00 00 00 00	 push	 OFFSET ??_C@_03DKEJHHJP@?$CFs?3@
  006b5	8d 85 e8 fe ff
	ff		 lea	 eax, DWORD PTR _string$[ebp]
  006bb	50		 push	 eax
  006bc	e8 00 00 00 00	 call	 _sprintf
  006c1	83 c4 0c	 add	 esp, 12			; 0000000cH

; 1009 : 	
; 1010 : 	create_ui_object

  006c4	6a 11		 push	 17			; 00000011H
  006c6	6a 01		 push	 1
  006c8	6a 07		 push	 7
  006ca	8d 85 e8 fe ff
	ff		 lea	 eax, DWORD PTR _string$[ebp]
  006d0	50		 push	 eax
  006d1	6a 4a		 push	 74			; 0000004aH
  006d3	6a 01		 push	 1
  006d5	6a 4b		 push	 75			; 0000004bH
  006d7	0f b6 0d 03 00
	00 00		 movzx	 ecx, BYTE PTR ?ui_ingame_dead_text_colour@@3UREAL_COLOUR@@A+3
  006de	51		 push	 ecx
  006df	0f b6 15 00 00
	00 00		 movzx	 edx, BYTE PTR ?ui_ingame_dead_text_colour@@3UREAL_COLOUR@@A
  006e6	52		 push	 edx
  006e7	0f b6 05 01 00
	00 00		 movzx	 eax, BYTE PTR ?ui_ingame_dead_text_colour@@3UREAL_COLOUR@@A+1
  006ee	50		 push	 eax
  006ef	0f b6 0d 02 00
	00 00		 movzx	 ecx, BYTE PTR ?ui_ingame_dead_text_colour@@3UREAL_COLOUR@@A+2
  006f6	51		 push	 ecx
  006f7	6a 13		 push	 19			; 00000013H
  006f9	6a 03		 push	 3
  006fb	6a 12		 push	 18			; 00000012H
  006fd	f3 0f 10 45 f0	 movss	 xmm0, DWORD PTR _y2$[ebp]
  00702	f3 0f 5c 45 f8	 subss	 xmm0, DWORD PTR _y1$[ebp]
  00707	f3 0f 5a c0	 cvtss2sd xmm0, xmm0
  0070b	83 ec 08	 sub	 esp, 8
  0070e	f2 0f 11 04 24	 movsd	 QWORD PTR [esp], xmm0
  00713	f3 0f 10 45 f4	 movss	 xmm0, DWORD PTR _x2$[ebp]
  00718	f3 0f 5c 45 fc	 subss	 xmm0, DWORD PTR _x1$[ebp]
  0071d	f3 0f 5a c0	 cvtss2sd xmm0, xmm0
  00721	83 ec 08	 sub	 esp, 8
  00724	f2 0f 11 04 24	 movsd	 QWORD PTR [esp], xmm0
  00729	6a 59		 push	 89			; 00000059H
  0072b	f3 0f 5a 45 f8	 cvtss2sd xmm0, DWORD PTR _y1$[ebp]
  00730	83 ec 08	 sub	 esp, 8
  00733	f2 0f 11 04 24	 movsd	 QWORD PTR [esp], xmm0
  00738	f3 0f 5a 45 fc	 cvtss2sd xmm0, DWORD PTR _x1$[ebp]
  0073d	83 ec 08	 sub	 esp, 8
  00740	f2 0f 11 04 24	 movsd	 QWORD PTR [esp], xmm0
  00745	6a 58		 push	 88			; 00000058H
  00747	8b 55 e8	 mov	 edx, DWORD PTR _page$[ebp]
  0074a	52		 push	 edx
  0074b	6a 32		 push	 50			; 00000032H
  0074d	6a 01		 push	 1
  0074f	e8 00 00 00 00	 call	 ?create_ui_object@@YAPAUUI_OBJECT@@HZZ ; create_ui_object
  00754	83 c4 6c	 add	 esp, 108		; 0000006cH

; 1011 : 		(
; 1012 : 			UI_TYPE_AREA,
; 1013 : 			UI_ATTR_PARENT (page),
; 1014 : 			UI_ATTR_VIRTUAL_POSITION (x1, y1),
; 1015 : 			UI_ATTR_VIRTUAL_SIZE (x2 - x1, y2 - y1),
; 1016 : 			UI_ATTR_FONT_TYPE (UI_FONT_ARIAL_16),
; 1017 : 			UI_ATTR_FONT_COLOUR (ui_ingame_dead_text_colour.r, ui_ingame_dead_text_colour.g, ui_ingame_dead_text_colour.b, ui_ingame_dead_text_colour.a),
; 1018 : 			UI_ATTR_TEXT_JUSTIFY (TEXT_JUSTIFY_LEFT_CENTRE),
; 1019 : 			UI_ATTR_TEXT (string),
; 1020 : 			UI_ATTR_CLEAR (TRUE),
; 1021 : 			UI_ATTR_END
; 1022 : 		);
; 1023 : 
; 1024 : 	x1 = 0.059;

  00757	f3 0f 10 05 00
	00 00 00	 movss	 xmm0, DWORD PTR __real@3d71a9fc
  0075f	f3 0f 11 45 fc	 movss	 DWORD PTR _x1$[ebp], xmm0

; 1025 : 	y1 = 0.367;

  00764	f3 0f 10 05 00
	00 00 00	 movss	 xmm0, DWORD PTR __real@3ebbe76d
  0076c	f3 0f 11 45 f8	 movss	 DWORD PTR _y1$[ebp], xmm0

; 1026 : 	x2 = 0.444;

  00771	f3 0f 10 05 00
	00 00 00	 movss	 xmm0, DWORD PTR __real@3ee353f8
  00779	f3 0f 11 45 f4	 movss	 DWORD PTR _x2$[ebp], xmm0

; 1027 : 	y2 = 0.614;

  0077e	f3 0f 10 05 00
	00 00 00	 movss	 xmm0, DWORD PTR __real@3f1d2f1b
  00786	f3 0f 11 45 f0	 movss	 DWORD PTR _y2$[ebp], xmm0

; 1028 : 
; 1029 : 	page_objective_area = create_ui_object

  0078b	6a 11		 push	 17			; 00000011H
  0078d	6a 01		 push	 1
  0078f	6a 07		 push	 7
  00791	f3 0f 10 45 f0	 movss	 xmm0, DWORD PTR _y2$[ebp]
  00796	f3 0f 5c 45 f8	 subss	 xmm0, DWORD PTR _y1$[ebp]
  0079b	f3 0f 5a c0	 cvtss2sd xmm0, xmm0
  0079f	83 ec 08	 sub	 esp, 8
  007a2	f2 0f 11 04 24	 movsd	 QWORD PTR [esp], xmm0
  007a7	f3 0f 10 45 f4	 movss	 xmm0, DWORD PTR _x2$[ebp]
  007ac	f3 0f 5c 45 fc	 subss	 xmm0, DWORD PTR _x1$[ebp]
  007b1	f3 0f 5a c0	 cvtss2sd xmm0, xmm0
  007b5	83 ec 08	 sub	 esp, 8
  007b8	f2 0f 11 04 24	 movsd	 QWORD PTR [esp], xmm0
  007bd	6a 59		 push	 89			; 00000059H
  007bf	f3 0f 5a 45 f8	 cvtss2sd xmm0, DWORD PTR _y1$[ebp]
  007c4	83 ec 08	 sub	 esp, 8
  007c7	f2 0f 11 04 24	 movsd	 QWORD PTR [esp], xmm0
  007cc	f3 0f 5a 45 fc	 cvtss2sd xmm0, DWORD PTR _x1$[ebp]
  007d1	83 ec 08	 sub	 esp, 8
  007d4	f2 0f 11 04 24	 movsd	 QWORD PTR [esp], xmm0
  007d9	6a 58		 push	 88			; 00000058H
  007db	8b 45 e8	 mov	 eax, DWORD PTR _page$[ebp]
  007de	50		 push	 eax
  007df	6a 32		 push	 50			; 00000032H
  007e1	6a 01		 push	 1
  007e3	e8 00 00 00 00	 call	 ?create_ui_object@@YAPAUUI_OBJECT@@HZZ ; create_ui_object
  007e8	83 c4 40	 add	 esp, 64			; 00000040H
  007eb	a3 00 00 00 00	 mov	 DWORD PTR ?page_objective_area@@3PAUUI_OBJECT@@A, eax

; 1030 : 		(
; 1031 : 			UI_TYPE_AREA,
; 1032 : 			UI_ATTR_PARENT (page),
; 1033 : 			UI_ATTR_VIRTUAL_POSITION (x1, y1),
; 1034 : 			UI_ATTR_VIRTUAL_SIZE (x2 - x1, y2 - y1),
; 1035 : 			UI_ATTR_CLEAR (TRUE),
; 1036 : 			UI_ATTR_END
; 1037 : 		);
; 1038 : 
; 1039 : 	x1 = 0.0;

  007f0	0f 57 c0	 xorps	 xmm0, xmm0
  007f3	f3 0f 11 45 fc	 movss	 DWORD PTR _x1$[ebp], xmm0

; 1040 : 	y1 = 0.0;

  007f8	0f 57 c0	 xorps	 xmm0, xmm0
  007fb	f3 0f 11 45 f8	 movss	 DWORD PTR _y1$[ebp], xmm0

; 1041 : 	x2 = 0.5;

  00800	f3 0f 10 05 00
	00 00 00	 movss	 xmm0, DWORD PTR __real@3f000000
  00808	f3 0f 11 45 f4	 movss	 DWORD PTR _x2$[ebp], xmm0

; 1042 : 	y2 = 1.0;

  0080d	f3 0f 10 05 00
	00 00 00	 movss	 xmm0, DWORD PTR __real@3f800000
  00815	f3 0f 11 45 f0	 movss	 DWORD PTR _y2$[ebp], xmm0

; 1043 : 
; 1044 : 	page_objective_name_list = create_ui_object

  0081a	6a 11		 push	 17			; 00000011H
  0081c	6a 01		 push	 1
  0081e	6a 07		 push	 7
  00820	68 00 00 00 00	 push	 OFFSET ?notify_page_objective_select_function@@YGXPAUUI_OBJECT@@PAX@Z ; notify_page_objective_select_function
  00825	6a 16		 push	 22			; 00000016H
  00827	0f b6 05 03 00
	00 00		 movzx	 eax, BYTE PTR ?ui_ingame_highlight_text_colour@@3UREAL_COLOUR@@A+3
  0082e	50		 push	 eax
  0082f	0f b6 0d 00 00
	00 00		 movzx	 ecx, BYTE PTR ?ui_ingame_highlight_text_colour@@3UREAL_COLOUR@@A
  00836	51		 push	 ecx
  00837	0f b6 15 01 00
	00 00		 movzx	 edx, BYTE PTR ?ui_ingame_highlight_text_colour@@3UREAL_COLOUR@@A+1
  0083e	52		 push	 edx
  0083f	0f b6 05 02 00
	00 00		 movzx	 eax, BYTE PTR ?ui_ingame_highlight_text_colour@@3UREAL_COLOUR@@A+2
  00846	50		 push	 eax
  00847	6a 21		 push	 33			; 00000021H
  00849	6a 01		 push	 1
  0084b	6a 20		 push	 32			; 00000020H
  0084d	6a 03		 push	 3
  0084f	6a 25		 push	 37			; 00000025H
  00851	68 00 00 00 00	 push	 OFFSET ?notify_page_objective_highlight_function@@YGXPAUUI_OBJECT@@PAX@Z ; notify_page_objective_highlight_function
  00856	6a 24		 push	 36			; 00000024H
  00858	6a ff		 push	 -1
  0085a	6a 29		 push	 41			; 00000029H
  0085c	f3 0f 10 45 f0	 movss	 xmm0, DWORD PTR _y2$[ebp]
  00861	f3 0f 5c 45 f8	 subss	 xmm0, DWORD PTR _y1$[ebp]
  00866	f3 0f 5a c0	 cvtss2sd xmm0, xmm0
  0086a	83 ec 08	 sub	 esp, 8
  0086d	f2 0f 11 04 24	 movsd	 QWORD PTR [esp], xmm0
  00872	f3 0f 10 45 f4	 movss	 xmm0, DWORD PTR _x2$[ebp]
  00877	f3 0f 5c 45 fc	 subss	 xmm0, DWORD PTR _x1$[ebp]
  0087c	f3 0f 5a c0	 cvtss2sd xmm0, xmm0
  00880	83 ec 08	 sub	 esp, 8
  00883	f2 0f 11 04 24	 movsd	 QWORD PTR [esp], xmm0
  00888	6a 59		 push	 89			; 00000059H
  0088a	f3 0f 5a 45 f8	 cvtss2sd xmm0, DWORD PTR _y1$[ebp]
  0088f	83 ec 08	 sub	 esp, 8
  00892	f2 0f 11 04 24	 movsd	 QWORD PTR [esp], xmm0
  00897	f3 0f 5a 45 fc	 cvtss2sd xmm0, DWORD PTR _x1$[ebp]
  0089c	83 ec 08	 sub	 esp, 8
  0089f	f2 0f 11 04 24	 movsd	 QWORD PTR [esp], xmm0
  008a4	6a 58		 push	 88			; 00000058H
  008a6	8b 0d 00 00 00
	00		 mov	 ecx, DWORD PTR ?page_objective_area@@3PAUUI_OBJECT@@A
  008ac	51		 push	 ecx
  008ad	6a 32		 push	 50			; 00000032H
  008af	6a 0d		 push	 13			; 0000000dH
  008b1	e8 00 00 00 00	 call	 ?create_ui_object@@YAPAUUI_OBJECT@@HZZ ; create_ui_object
  008b6	83 c4 7c	 add	 esp, 124		; 0000007cH
  008b9	a3 00 00 00 00	 mov	 DWORD PTR ?page_objective_name_list@@3PAUUI_OBJECT@@A, eax

; 1045 : 		(
; 1046 : 			UI_TYPE_LIST_BOX,
; 1047 : 			UI_ATTR_PARENT (page_objective_area),
; 1048 : 			UI_ATTR_VIRTUAL_POSITION (x1, y1),
; 1049 : 			UI_ATTR_VIRTUAL_SIZE (x2 - x1, y2 - y1),
; 1050 : 			UI_ATTR_ITEM_NUMBER (ENTITY_INDEX_DONT_CARE),
; 1051 : 			UI_ATTR_HIGHLIGHTED_FUNCTION (notify_page_objective_highlight_function),
; 1052 : 			UI_ATTR_HIGHLIGHTED_NOTIFY_ON (NOTIFY_TYPE_BUTTON_EITHER),
; 1053 : 			UI_ATTR_HIGHLIGHTED_FONT_TYPE (UI_FONT_ARIAL_14),
; 1054 : 			UI_ATTR_HIGHLIGHTED_FONT_COLOUR (ui_ingame_highlight_text_colour.r, ui_ingame_highlight_text_colour.g, ui_ingame_highlight_text_colour.b, ui_ingame_highlight_text_colour.a),
; 1055 : 			UI_ATTR_FUNCTION (notify_page_objective_select_function), 
; 1056 : 			UI_ATTR_CLEAR (TRUE),
; 1057 : 			UI_ATTR_END
; 1058 : 		);
; 1059 : 
; 1060 : 	set_ui_list_spacing_proportional_to_font (page_objective_name_list, -0.2);

  008be	51		 push	 ecx
  008bf	f3 0f 10 05 00
	00 00 00	 movss	 xmm0, DWORD PTR __real@be4ccccd
  008c7	f3 0f 11 04 24	 movss	 DWORD PTR [esp], xmm0
  008cc	a1 00 00 00 00	 mov	 eax, DWORD PTR ?page_objective_name_list@@3PAUUI_OBJECT@@A
  008d1	50		 push	 eax
  008d2	e8 00 00 00 00	 call	 ?set_ui_list_spacing_proportional_to_font@@YGXPAUUI_OBJECT@@M@Z ; set_ui_list_spacing_proportional_to_font

; 1061 : 
; 1062 : 	x1 = 0.5;

  008d7	f3 0f 10 05 00
	00 00 00	 movss	 xmm0, DWORD PTR __real@3f000000
  008df	f3 0f 11 45 fc	 movss	 DWORD PTR _x1$[ebp], xmm0

; 1063 : 	y1 = 0.0;

  008e4	0f 57 c0	 xorps	 xmm0, xmm0
  008e7	f3 0f 11 45 f8	 movss	 DWORD PTR _y1$[ebp], xmm0

; 1064 : 	x2 = 1.0;

  008ec	f3 0f 10 05 00
	00 00 00	 movss	 xmm0, DWORD PTR __real@3f800000
  008f4	f3 0f 11 45 f4	 movss	 DWORD PTR _x2$[ebp], xmm0

; 1065 : 	y2 = 1.0;

  008f9	f3 0f 10 05 00
	00 00 00	 movss	 xmm0, DWORD PTR __real@3f800000
  00901	f3 0f 11 45 f0	 movss	 DWORD PTR _y2$[ebp], xmm0

; 1066 : 
; 1067 : 	page_objective_status_list = create_ui_object

  00906	6a 11		 push	 17			; 00000011H
  00908	6a 01		 push	 1
  0090a	6a 07		 push	 7
  0090c	6a 00		 push	 0
  0090e	6a 2f		 push	 47			; 0000002fH
  00910	6a ff		 push	 -1
  00912	6a 29		 push	 41			; 00000029H
  00914	f3 0f 10 45 f0	 movss	 xmm0, DWORD PTR _y2$[ebp]
  00919	f3 0f 5c 45 f8	 subss	 xmm0, DWORD PTR _y1$[ebp]
  0091e	f3 0f 5a c0	 cvtss2sd xmm0, xmm0
  00922	83 ec 08	 sub	 esp, 8
  00925	f2 0f 11 04 24	 movsd	 QWORD PTR [esp], xmm0
  0092a	f3 0f 10 45 f4	 movss	 xmm0, DWORD PTR _x2$[ebp]
  0092f	f3 0f 5c 45 fc	 subss	 xmm0, DWORD PTR _x1$[ebp]
  00934	f3 0f 5a c0	 cvtss2sd xmm0, xmm0
  00938	83 ec 08	 sub	 esp, 8
  0093b	f2 0f 11 04 24	 movsd	 QWORD PTR [esp], xmm0
  00940	6a 59		 push	 89			; 00000059H
  00942	f3 0f 5a 45 f8	 cvtss2sd xmm0, DWORD PTR _y1$[ebp]
  00947	83 ec 08	 sub	 esp, 8
  0094a	f2 0f 11 04 24	 movsd	 QWORD PTR [esp], xmm0
  0094f	f3 0f 5a 45 fc	 cvtss2sd xmm0, DWORD PTR _x1$[ebp]
  00954	83 ec 08	 sub	 esp, 8
  00957	f2 0f 11 04 24	 movsd	 QWORD PTR [esp], xmm0
  0095c	6a 58		 push	 88			; 00000058H
  0095e	a1 00 00 00 00	 mov	 eax, DWORD PTR ?page_objective_area@@3PAUUI_OBJECT@@A
  00963	50		 push	 eax
  00964	6a 32		 push	 50			; 00000032H
  00966	6a 0d		 push	 13			; 0000000dH
  00968	e8 00 00 00 00	 call	 ?create_ui_object@@YAPAUUI_OBJECT@@HZZ ; create_ui_object
  0096d	83 c4 50	 add	 esp, 80			; 00000050H
  00970	a3 00 00 00 00	 mov	 DWORD PTR ?page_objective_status_list@@3PAUUI_OBJECT@@A, eax

; 1068 : 		(
; 1069 : 			UI_TYPE_LIST_BOX,
; 1070 : 			UI_ATTR_PARENT (page_objective_area),
; 1071 : 			UI_ATTR_VIRTUAL_POSITION (x1, y1),
; 1072 : 			UI_ATTR_VIRTUAL_SIZE (x2 - x1, y2 - y1),
; 1073 : 			UI_ATTR_ITEM_NUMBER (ENTITY_INDEX_DONT_CARE),
; 1074 : 			UI_ATTR_NOTIFY_ON (NOTIFY_TYPE_NONE),
; 1075 : 			UI_ATTR_CLEAR (TRUE),
; 1076 : 			UI_ATTR_END
; 1077 : 		);
; 1078 : 
; 1079 : 	set_ui_list_spacing_proportional_to_font (page_objective_status_list, -0.2);

  00975	51		 push	 ecx
  00976	f3 0f 10 05 00
	00 00 00	 movss	 xmm0, DWORD PTR __real@be4ccccd
  0097e	f3 0f 11 04 24	 movss	 DWORD PTR [esp], xmm0
  00983	a1 00 00 00 00	 mov	 eax, DWORD PTR ?page_objective_status_list@@3PAUUI_OBJECT@@A
  00988	50		 push	 eax
  00989	e8 00 00 00 00	 call	 ?set_ui_list_spacing_proportional_to_font@@YGXPAUUI_OBJECT@@M@Z ; set_ui_list_spacing_proportional_to_font

; 1080 : 
; 1081 : 	x1 = 0.062;

  0098e	f3 0f 10 05 00
	00 00 00	 movss	 xmm0, DWORD PTR __real@3d7df3b6
  00996	f3 0f 11 45 fc	 movss	 DWORD PTR _x1$[ebp], xmm0

; 1082 : 	y1 = 0.710;

  0099b	f3 0f 10 05 00
	00 00 00	 movss	 xmm0, DWORD PTR __real@3f35c28f
  009a3	f3 0f 11 45 f8	 movss	 DWORD PTR _y1$[ebp], xmm0

; 1083 : 	x2 = 0.900;

  009a8	f3 0f 10 05 00
	00 00 00	 movss	 xmm0, DWORD PTR __real@3f666666
  009b0	f3 0f 11 45 f4	 movss	 DWORD PTR _x2$[ebp], xmm0

; 1084 : 	y2 = 0.910;

  009b5	f3 0f 10 05 00
	00 00 00	 movss	 xmm0, DWORD PTR __real@3f68f5c3
  009bd	f3 0f 11 45 f0	 movss	 DWORD PTR _y2$[ebp], xmm0

; 1085 : 
; 1086 : 	page_objective_description_area = create_ui_object

  009c2	6a 11		 push	 17			; 00000011H
  009c4	6a 01		 push	 1
  009c6	6a 07		 push	 7
  009c8	83 ec 08	 sub	 esp, 8
  009cb	f2 0f 10 05 00
	00 00 00	 movsd	 xmm0, QWORD PTR __real@4014000000000000
  009d3	f2 0f 11 04 24	 movsd	 QWORD PTR [esp], xmm0
  009d8	83 ec 08	 sub	 esp, 8
  009db	0f 57 c0	 xorps	 xmm0, xmm0
  009de	f2 0f 11 04 24	 movsd	 QWORD PTR [esp], xmm0
  009e3	83 ec 08	 sub	 esp, 8
  009e6	0f 57 c0	 xorps	 xmm0, xmm0
  009e9	f2 0f 11 04 24	 movsd	 QWORD PTR [esp], xmm0
  009ee	6a 5a		 push	 90			; 0000005aH
  009f0	0f b6 05 03 00
	00 00		 movzx	 eax, BYTE PTR ?ui_ingame_dead_text_colour@@3UREAL_COLOUR@@A+3
  009f7	50		 push	 eax
  009f8	0f b6 0d 00 00
	00 00		 movzx	 ecx, BYTE PTR ?ui_ingame_dead_text_colour@@3UREAL_COLOUR@@A
  009ff	51		 push	 ecx
  00a00	0f b6 15 01 00
	00 00		 movzx	 edx, BYTE PTR ?ui_ingame_dead_text_colour@@3UREAL_COLOUR@@A+1
  00a07	52		 push	 edx
  00a08	0f b6 05 02 00
	00 00		 movzx	 eax, BYTE PTR ?ui_ingame_dead_text_colour@@3UREAL_COLOUR@@A+2
  00a0f	50		 push	 eax
  00a10	6a 13		 push	 19			; 00000013H
  00a12	6a 00		 push	 0
  00a14	6a 12		 push	 18			; 00000012H
  00a16	f3 0f 10 45 f0	 movss	 xmm0, DWORD PTR _y2$[ebp]
  00a1b	f3 0f 5c 45 f8	 subss	 xmm0, DWORD PTR _y1$[ebp]
  00a20	f3 0f 5a c0	 cvtss2sd xmm0, xmm0
  00a24	83 ec 08	 sub	 esp, 8
  00a27	f2 0f 11 04 24	 movsd	 QWORD PTR [esp], xmm0
  00a2c	f3 0f 10 45 f4	 movss	 xmm0, DWORD PTR _x2$[ebp]
  00a31	f3 0f 5c 45 fc	 subss	 xmm0, DWORD PTR _x1$[ebp]
  00a36	f3 0f 5a c0	 cvtss2sd xmm0, xmm0
  00a3a	83 ec 08	 sub	 esp, 8
  00a3d	f2 0f 11 04 24	 movsd	 QWORD PTR [esp], xmm0
  00a42	6a 59		 push	 89			; 00000059H
  00a44	f3 0f 5a 45 f8	 cvtss2sd xmm0, DWORD PTR _y1$[ebp]
  00a49	83 ec 08	 sub	 esp, 8
  00a4c	f2 0f 11 04 24	 movsd	 QWORD PTR [esp], xmm0
  00a51	f3 0f 5a 45 fc	 cvtss2sd xmm0, DWORD PTR _x1$[ebp]
  00a56	83 ec 08	 sub	 esp, 8
  00a59	f2 0f 11 04 24	 movsd	 QWORD PTR [esp], xmm0
  00a5e	6a 58		 push	 88			; 00000058H
  00a60	8b 4d e8	 mov	 ecx, DWORD PTR _page$[ebp]
  00a63	51		 push	 ecx
  00a64	6a 32		 push	 50			; 00000032H
  00a66	6a 01		 push	 1
  00a68	e8 00 00 00 00	 call	 ?create_ui_object@@YAPAUUI_OBJECT@@HZZ ; create_ui_object
  00a6d	83 c4 78	 add	 esp, 120		; 00000078H
  00a70	a3 00 00 00 00	 mov	 DWORD PTR ?page_objective_description_area@@3PAUUI_OBJECT@@A, eax

; 1087 : 			(
; 1088 : 				UI_TYPE_AREA,
; 1089 : 				UI_ATTR_PARENT (page),
; 1090 : 				UI_ATTR_VIRTUAL_POSITION (x1, y1),
; 1091 : 				UI_ATTR_VIRTUAL_SIZE (x2 - x1, y2 - y1),
; 1092 : 				UI_ATTR_FONT_TYPE (UI_FONT_ARIAL_10),
; 1093 : 				UI_ATTR_FONT_COLOUR (ui_ingame_dead_text_colour.r, ui_ingame_dead_text_colour.g, ui_ingame_dead_text_colour.b, ui_ingame_dead_text_colour.a),
; 1094 : 				UI_ATTR_VSLIDER (0.0, 0.0, 5),
; 1095 : 				UI_ATTR_CLEAR (TRUE),
; 1096 : 				UI_ATTR_END
; 1097 : 			);
; 1098 : 
; 1099 : 	set_common_slider_graphics (page_objective_description_area);

  00a75	a1 00 00 00 00	 mov	 eax, DWORD PTR ?page_objective_description_area@@3PAUUI_OBJECT@@A
  00a7a	50		 push	 eax
  00a7b	e8 00 00 00 00	 call	 ?set_common_slider_graphics@@YGXPAUUI_OBJECT@@@Z ; set_common_slider_graphics

; 1100 : 
; 1101 : 	x1 = 0.0;

  00a80	0f 57 c0	 xorps	 xmm0, xmm0
  00a83	f3 0f 11 45 fc	 movss	 DWORD PTR _x1$[ebp], xmm0

; 1102 : 	x2 = 0.9;

  00a88	f3 0f 10 05 00
	00 00 00	 movss	 xmm0, DWORD PTR __real@3f666666
  00a90	f3 0f 11 45 f4	 movss	 DWORD PTR _x2$[ebp], xmm0

; 1103 : 	y1 = 0.0;

  00a95	0f 57 c0	 xorps	 xmm0, xmm0
  00a98	f3 0f 11 45 f8	 movss	 DWORD PTR _y1$[ebp], xmm0

; 1104 : 	y2 = 1.0;

  00a9d	f3 0f 10 05 00
	00 00 00	 movss	 xmm0, DWORD PTR __real@3f800000
  00aa5	f3 0f 11 45 f0	 movss	 DWORD PTR _y2$[ebp], xmm0

; 1105 : 
; 1106 : 	page_objective_description_list = create_ui_object

  00aaa	6a 11		 push	 17			; 00000011H
  00aac	6a 01		 push	 1
  00aae	6a 07		 push	 7
  00ab0	6a 00		 push	 0
  00ab2	6a 2f		 push	 47			; 0000002fH
  00ab4	0f b6 05 03 00
	00 00		 movzx	 eax, BYTE PTR ?ui_ingame_dead_text_colour@@3UREAL_COLOUR@@A+3
  00abb	50		 push	 eax
  00abc	0f b6 0d 00 00
	00 00		 movzx	 ecx, BYTE PTR ?ui_ingame_dead_text_colour@@3UREAL_COLOUR@@A
  00ac3	51		 push	 ecx
  00ac4	0f b6 15 01 00
	00 00		 movzx	 edx, BYTE PTR ?ui_ingame_dead_text_colour@@3UREAL_COLOUR@@A+1
  00acb	52		 push	 edx
  00acc	0f b6 05 02 00
	00 00		 movzx	 eax, BYTE PTR ?ui_ingame_dead_text_colour@@3UREAL_COLOUR@@A+2
  00ad3	50		 push	 eax
  00ad4	6a 13		 push	 19			; 00000013H
  00ad6	6a 00		 push	 0
  00ad8	6a 12		 push	 18			; 00000012H
  00ada	6a 01		 push	 1
  00adc	6a 4b		 push	 75			; 0000004bH
  00ade	f3 0f 10 45 f0	 movss	 xmm0, DWORD PTR _y2$[ebp]
  00ae3	f3 0f 5c 45 f8	 subss	 xmm0, DWORD PTR _y1$[ebp]
  00ae8	f3 0f 5a c0	 cvtss2sd xmm0, xmm0
  00aec	83 ec 08	 sub	 esp, 8
  00aef	f2 0f 11 04 24	 movsd	 QWORD PTR [esp], xmm0
  00af4	f3 0f 10 45 f4	 movss	 xmm0, DWORD PTR _x2$[ebp]
  00af9	f3 0f 5c 45 fc	 subss	 xmm0, DWORD PTR _x1$[ebp]
  00afe	f3 0f 5a c0	 cvtss2sd xmm0, xmm0
  00b02	83 ec 08	 sub	 esp, 8
  00b05	f2 0f 11 04 24	 movsd	 QWORD PTR [esp], xmm0
  00b0a	6a 59		 push	 89			; 00000059H
  00b0c	f3 0f 5a 45 f8	 cvtss2sd xmm0, DWORD PTR _y1$[ebp]
  00b11	83 ec 08	 sub	 esp, 8
  00b14	f2 0f 11 04 24	 movsd	 QWORD PTR [esp], xmm0
  00b19	f3 0f 5a 45 fc	 cvtss2sd xmm0, DWORD PTR _x1$[ebp]
  00b1e	83 ec 08	 sub	 esp, 8
  00b21	f2 0f 11 04 24	 movsd	 QWORD PTR [esp], xmm0
  00b26	6a 58		 push	 88			; 00000058H
  00b28	8b 0d 00 00 00
	00		 mov	 ecx, DWORD PTR ?page_objective_description_area@@3PAUUI_OBJECT@@A
  00b2e	51		 push	 ecx
  00b2f	6a 32		 push	 50			; 00000032H
  00b31	6a 0d		 push	 13			; 0000000dH
  00b33	e8 00 00 00 00	 call	 ?create_ui_object@@YAPAUUI_OBJECT@@HZZ ; create_ui_object
  00b38	83 c4 6c	 add	 esp, 108		; 0000006cH
  00b3b	a3 00 00 00 00	 mov	 DWORD PTR ?page_objective_description_list@@3PAUUI_OBJECT@@A, eax

; 1107 : 			(
; 1108 : 				UI_TYPE_LIST_BOX,
; 1109 : 				UI_ATTR_PARENT (page_objective_description_area),
; 1110 : 				UI_ATTR_VIRTUAL_POSITION (x1, y1),
; 1111 : 				UI_ATTR_VIRTUAL_SIZE (x2 - x1, y2 - y1),
; 1112 : 				UI_ATTR_TEXT_JUSTIFY (TEXT_JUSTIFY_LEFT_CENTRE),
; 1113 : 				UI_ATTR_FONT_TYPE (UI_FONT_ARIAL_10),
; 1114 : 				UI_ATTR_FONT_COLOUR (ui_ingame_dead_text_colour.r, ui_ingame_dead_text_colour.g, ui_ingame_dead_text_colour.b, ui_ingame_dead_text_colour.a),
; 1115 : 				UI_ATTR_NOTIFY_ON (NOTIFY_TYPE_NONE),
; 1116 : 				UI_ATTR_CLEAR (TRUE),
; 1117 : 				UI_ATTR_END
; 1118 : 			);
; 1119 : 
; 1120 : 	/////////////////////////////////////////////////////////////////
; 1121 : 	// "Divider" graphics
; 1122 : 
; 1123 : 	x1 = 0.038;

  00b40	f3 0f 10 05 00
	00 00 00	 movss	 xmm0, DWORD PTR __real@3d1ba5e3
  00b48	f3 0f 11 45 fc	 movss	 DWORD PTR _x1$[ebp], xmm0

; 1124 : 	y1 = 0.282;

  00b4d	f3 0f 10 05 00
	00 00 00	 movss	 xmm0, DWORD PTR __real@3e90624e
  00b55	f3 0f 11 45 f8	 movss	 DWORD PTR _y1$[ebp], xmm0

; 1125 : 	x2 = 0.455;

  00b5a	f3 0f 10 05 00
	00 00 00	 movss	 xmm0, DWORD PTR __real@3ee8f5c3
  00b62	f3 0f 11 45 f4	 movss	 DWORD PTR _x2$[ebp], xmm0

; 1126 : 	y2 = 0.306;

  00b67	f3 0f 10 05 00
	00 00 00	 movss	 xmm0, DWORD PTR __real@3e9cac08
  00b6f	f3 0f 11 45 f0	 movss	 DWORD PTR _y2$[ebp], xmm0

; 1127 : 
; 1128 : 	create_ui_object

  00b74	6a 11		 push	 17			; 00000011H
  00b76	a1 00 00 00 00	 mov	 eax, DWORD PTR ?common_divider_graphic@@3PAUTEXTURE_GRAPHIC@@A ; common_divider_graphic
  00b7b	50		 push	 eax
  00b7c	6a 4c		 push	 76			; 0000004cH
  00b7e	f3 0f 10 45 f0	 movss	 xmm0, DWORD PTR _y2$[ebp]
  00b83	f3 0f 5c 45 f8	 subss	 xmm0, DWORD PTR _y1$[ebp]
  00b88	f3 0f 5a c0	 cvtss2sd xmm0, xmm0
  00b8c	83 ec 08	 sub	 esp, 8
  00b8f	f2 0f 11 04 24	 movsd	 QWORD PTR [esp], xmm0
  00b94	f3 0f 10 45 f4	 movss	 xmm0, DWORD PTR _x2$[ebp]
  00b99	f3 0f 5c 45 fc	 subss	 xmm0, DWORD PTR _x1$[ebp]
  00b9e	f3 0f 5a c0	 cvtss2sd xmm0, xmm0
  00ba2	83 ec 08	 sub	 esp, 8
  00ba5	f2 0f 11 04 24	 movsd	 QWORD PTR [esp], xmm0
  00baa	6a 59		 push	 89			; 00000059H
  00bac	f3 0f 5a 45 f8	 cvtss2sd xmm0, DWORD PTR _y1$[ebp]
  00bb1	83 ec 08	 sub	 esp, 8
  00bb4	f2 0f 11 04 24	 movsd	 QWORD PTR [esp], xmm0
  00bb9	f3 0f 5a 45 fc	 cvtss2sd xmm0, DWORD PTR _x1$[ebp]
  00bbe	83 ec 08	 sub	 esp, 8
  00bc1	f2 0f 11 04 24	 movsd	 QWORD PTR [esp], xmm0
  00bc6	6a 58		 push	 88			; 00000058H
  00bc8	8b 4d e8	 mov	 ecx, DWORD PTR _page$[ebp]
  00bcb	51		 push	 ecx
  00bcc	6a 32		 push	 50			; 00000032H
  00bce	6a 01		 push	 1
  00bd0	e8 00 00 00 00	 call	 ?create_ui_object@@YAPAUUI_OBJECT@@HZZ ; create_ui_object
  00bd5	83 c4 40	 add	 esp, 64			; 00000040H

; 1129 : 			(
; 1130 : 				UI_TYPE_AREA,
; 1131 : 				UI_ATTR_PARENT (page),
; 1132 : 				UI_ATTR_VIRTUAL_POSITION (x1, y1),
; 1133 : 				UI_ATTR_VIRTUAL_SIZE (x2 - x1, y2 - y1),
; 1134 : 				UI_ATTR_TEXTURE_GRAPHIC (common_divider_graphic),
; 1135 : 				UI_ATTR_END
; 1136 : 			);
; 1137 : 
; 1138 : 	////////////////////////////////////
; 1139 : 
; 1140 : 	x1 = 0.038;

  00bd8	f3 0f 10 05 00
	00 00 00	 movss	 xmm0, DWORD PTR __real@3d1ba5e3
  00be0	f3 0f 11 45 fc	 movss	 DWORD PTR _x1$[ebp], xmm0

; 1141 : 	y1 = 0.612;

  00be5	f3 0f 10 05 00
	00 00 00	 movss	 xmm0, DWORD PTR __real@3f1cac08
  00bed	f3 0f 11 45 f8	 movss	 DWORD PTR _y1$[ebp], xmm0

; 1142 : 	x2 = 0.455;

  00bf2	f3 0f 10 05 00
	00 00 00	 movss	 xmm0, DWORD PTR __real@3ee8f5c3
  00bfa	f3 0f 11 45 f4	 movss	 DWORD PTR _x2$[ebp], xmm0

; 1143 : 	y2 = 0.634;

  00bff	f3 0f 10 05 00
	00 00 00	 movss	 xmm0, DWORD PTR __real@3f224dd3
  00c07	f3 0f 11 45 f0	 movss	 DWORD PTR _y2$[ebp], xmm0

; 1144 : 
; 1145 : 	create_ui_object

  00c0c	6a 11		 push	 17			; 00000011H
  00c0e	a1 00 00 00 00	 mov	 eax, DWORD PTR ?common_divider_graphic@@3PAUTEXTURE_GRAPHIC@@A ; common_divider_graphic
  00c13	50		 push	 eax
  00c14	6a 4c		 push	 76			; 0000004cH
  00c16	f3 0f 10 45 f0	 movss	 xmm0, DWORD PTR _y2$[ebp]
  00c1b	f3 0f 5c 45 f8	 subss	 xmm0, DWORD PTR _y1$[ebp]
  00c20	f3 0f 5a c0	 cvtss2sd xmm0, xmm0
  00c24	83 ec 08	 sub	 esp, 8
  00c27	f2 0f 11 04 24	 movsd	 QWORD PTR [esp], xmm0
  00c2c	f3 0f 10 45 f4	 movss	 xmm0, DWORD PTR _x2$[ebp]
  00c31	f3 0f 5c 45 fc	 subss	 xmm0, DWORD PTR _x1$[ebp]
  00c36	f3 0f 5a c0	 cvtss2sd xmm0, xmm0
  00c3a	83 ec 08	 sub	 esp, 8
  00c3d	f2 0f 11 04 24	 movsd	 QWORD PTR [esp], xmm0
  00c42	6a 59		 push	 89			; 00000059H
  00c44	f3 0f 5a 45 f8	 cvtss2sd xmm0, DWORD PTR _y1$[ebp]
  00c49	83 ec 08	 sub	 esp, 8
  00c4c	f2 0f 11 04 24	 movsd	 QWORD PTR [esp], xmm0
  00c51	f3 0f 5a 45 fc	 cvtss2sd xmm0, DWORD PTR _x1$[ebp]
  00c56	83 ec 08	 sub	 esp, 8
  00c59	f2 0f 11 04 24	 movsd	 QWORD PTR [esp], xmm0
  00c5e	6a 58		 push	 88			; 00000058H
  00c60	8b 4d e8	 mov	 ecx, DWORD PTR _page$[ebp]
  00c63	51		 push	 ecx
  00c64	6a 32		 push	 50			; 00000032H
  00c66	6a 01		 push	 1
  00c68	e8 00 00 00 00	 call	 ?create_ui_object@@YAPAUUI_OBJECT@@HZZ ; create_ui_object
  00c6d	83 c4 40	 add	 esp, 64			; 00000040H

; 1146 : 			(
; 1147 : 				UI_TYPE_AREA,
; 1148 : 				UI_ATTR_PARENT (page),
; 1149 : 				UI_ATTR_VIRTUAL_POSITION (x1, y1),
; 1150 : 				UI_ATTR_VIRTUAL_SIZE (x2 - x1, y2 - y1),
; 1151 : 				UI_ATTR_TEXTURE_GRAPHIC (common_divider_graphic),
; 1152 : 				UI_ATTR_END
; 1153 : 			);
; 1154 : 
; 1155 : 	/////////////////////////////////////////////////////////////////
; 1156 : 	// BACK button
; 1157 : 
; 1158 : 	define_campaign_page_back_button (page, &page_back_button);

  00c70	68 00 00 00 00	 push	 OFFSET ?page_back_button@@3PAUUI_OBJECT@@A
  00c75	8b 45 e8	 mov	 eax, DWORD PTR _page$[ebp]
  00c78	50		 push	 eax
  00c79	e8 00 00 00 00	 call	 ?define_campaign_page_back_button@@YGXPAUUI_OBJECT@@PAPAU1@@Z ; define_campaign_page_back_button

; 1159 : }

  00c7e	5f		 pop	 edi
  00c7f	5e		 pop	 esi
  00c80	5b		 pop	 ebx
  00c81	8b e5		 mov	 esp, ebp
  00c83	5d		 pop	 ebp
  00c84	c3		 ret	 0
?define_campaign_screen_stats_page_objects@@YGXXZ ENDP	; define_campaign_screen_stats_page_objects
_TEXT	ENDS
; Function compile flags: /Odtp /ZI
; File c:\users\nhv90\projects\eech\aphavoc\source\ui_menu\ingame\campaign\ca_stat.c
;	COMDAT ?initialise_campaign_screen_stats_page_objects@@YGXXZ
_TEXT	SEGMENT
?initialise_campaign_screen_stats_page_objects@@YGXXZ PROC ; initialise_campaign_screen_stats_page_objects, COMDAT

; 244  : {

  00000	55		 push	 ebp
  00001	8b ec		 mov	 ebp, esp
  00003	83 ec 40	 sub	 esp, 64			; 00000040H
  00006	53		 push	 ebx
  00007	56		 push	 esi
  00008	57		 push	 edi

; 245  : }

  00009	5f		 pop	 edi
  0000a	5e		 pop	 esi
  0000b	5b		 pop	 ebx
  0000c	8b e5		 mov	 esp, ebp
  0000e	5d		 pop	 ebp
  0000f	c3		 ret	 0
?initialise_campaign_screen_stats_page_objects@@YGXXZ ENDP ; initialise_campaign_screen_stats_page_objects
_TEXT	ENDS
; Function compile flags: /Odtp /ZI
; File c:\users\nhv90\projects\eech\aphavoc\source\ui_menu\ingame\campaign\ca_stat.c
;	COMDAT ?show_stats_page@@YGXXZ
_TEXT	SEGMENT
?show_stats_page@@YGXXZ PROC				; show_stats_page, COMDAT

; 233  : {

  00000	55		 push	 ebp
  00001	8b ec		 mov	 ebp, esp
  00003	83 ec 40	 sub	 esp, 64			; 00000040H
  00006	53		 push	 ebx
  00007	56		 push	 esi
  00008	57		 push	 edi

; 234  : 	show_stats_objectives_page ();

  00009	e8 00 00 00 00	 call	 ?show_stats_objectives_page@@YGXXZ ; show_stats_objectives_page

; 235  : 
; 236  : 	display_campaign_page (CAMPAIGN_PAGE_STATS, ENTITY_INDEX_DONT_CARE, TRUE);

  0000e	6a 01		 push	 1
  00010	6a ff		 push	 -1
  00012	6a 06		 push	 6
  00014	e8 00 00 00 00	 call	 ?display_campaign_page@@YGXW4CAMPAIGN_PAGES@@HH@Z ; display_campaign_page

; 237  : }

  00019	5f		 pop	 edi
  0001a	5e		 pop	 esi
  0001b	5b		 pop	 ebx
  0001c	8b e5		 mov	 esp, ebp
  0001e	5d		 pop	 ebp
  0001f	c3		 ret	 0
?show_stats_page@@YGXXZ ENDP				; show_stats_page
_TEXT	ENDS
; Function compile flags: /Odtp /ZI
; File c:\program files (x86)\windows kits\10\include\10.0.18362.0\ucrt\stdio.h
;	COMDAT _sprintf
_TEXT	SEGMENT
__ArgList$ = -8						; size = 4
__Result$ = -4						; size = 4
__Buffer$ = 8						; size = 4
__Format$ = 12						; size = 4
_sprintf PROC						; COMDAT

; 1781 :     {

  00000	55		 push	 ebp
  00001	8b ec		 mov	 ebp, esp
  00003	83 ec 4c	 sub	 esp, 76			; 0000004cH
  00006	53		 push	 ebx
  00007	56		 push	 esi
  00008	57		 push	 edi

; 1782 :         int _Result;
; 1783 :         va_list _ArgList;
; 1784 :         __crt_va_start(_ArgList, _Format);

  00009	8d 45 10	 lea	 eax, DWORD PTR __Format$[ebp+4]
  0000c	89 45 f8	 mov	 DWORD PTR __ArgList$[ebp], eax

; 1785 : 
; 1786 :         #pragma warning(push)
; 1787 :         #pragma warning(disable: 4996) // Deprecation
; 1788 :         _Result = _vsprintf_l(_Buffer, _Format, NULL, _ArgList);

  0000f	8b 45 f8	 mov	 eax, DWORD PTR __ArgList$[ebp]
  00012	50		 push	 eax
  00013	6a 00		 push	 0
  00015	8b 4d 0c	 mov	 ecx, DWORD PTR __Format$[ebp]
  00018	51		 push	 ecx
  00019	8b 55 08	 mov	 edx, DWORD PTR __Buffer$[ebp]
  0001c	52		 push	 edx
  0001d	e8 00 00 00 00	 call	 __vsprintf_l
  00022	83 c4 10	 add	 esp, 16			; 00000010H
  00025	89 45 fc	 mov	 DWORD PTR __Result$[ebp], eax

; 1789 :         #pragma warning(pop)
; 1790 : 
; 1791 :         __crt_va_end(_ArgList);

  00028	c7 45 f8 00 00
	00 00		 mov	 DWORD PTR __ArgList$[ebp], 0

; 1792 :         return _Result;

  0002f	8b 45 fc	 mov	 eax, DWORD PTR __Result$[ebp]

; 1793 :     }

  00032	5f		 pop	 edi
  00033	5e		 pop	 esi
  00034	5b		 pop	 ebx
  00035	8b e5		 mov	 esp, ebp
  00037	5d		 pop	 ebp
  00038	c3		 ret	 0
_sprintf ENDP
_TEXT	ENDS
; Function compile flags: /Odtp /ZI
; File c:\program files (x86)\windows kits\10\include\10.0.18362.0\ucrt\stdio.h
;	COMDAT __vsprintf_l
_TEXT	SEGMENT
__Buffer$ = 8						; size = 4
__Format$ = 12						; size = 4
__Locale$ = 16						; size = 4
__ArgList$ = 20						; size = 4
__vsprintf_l PROC					; COMDAT

; 1459 :     {

  00000	55		 push	 ebp
  00001	8b ec		 mov	 ebp, esp
  00003	83 ec 40	 sub	 esp, 64			; 00000040H
  00006	53		 push	 ebx
  00007	56		 push	 esi
  00008	57		 push	 edi

; 1460 :         #pragma warning(push)
; 1461 :         #pragma warning(disable: 4996) // Deprecation
; 1462 :         return _vsnprintf_l(_Buffer, (size_t)-1, _Format, _Locale, _ArgList);

  00009	8b 45 14	 mov	 eax, DWORD PTR __ArgList$[ebp]
  0000c	50		 push	 eax
  0000d	8b 4d 10	 mov	 ecx, DWORD PTR __Locale$[ebp]
  00010	51		 push	 ecx
  00011	8b 55 0c	 mov	 edx, DWORD PTR __Format$[ebp]
  00014	52		 push	 edx
  00015	6a ff		 push	 -1
  00017	8b 45 08	 mov	 eax, DWORD PTR __Buffer$[ebp]
  0001a	50		 push	 eax
  0001b	e8 00 00 00 00	 call	 __vsnprintf_l
  00020	83 c4 14	 add	 esp, 20			; 00000014H

; 1463 :         #pragma warning(pop)
; 1464 :     }

  00023	5f		 pop	 edi
  00024	5e		 pop	 esi
  00025	5b		 pop	 ebx
  00026	8b e5		 mov	 esp, ebp
  00028	5d		 pop	 ebp
  00029	c3		 ret	 0
__vsprintf_l ENDP
_TEXT	ENDS
; Function compile flags: /Odtp /ZI
; File c:\program files (x86)\windows kits\10\include\10.0.18362.0\ucrt\stdio.h
;	COMDAT __vsnprintf_l
_TEXT	SEGMENT
tv74 = -72						; size = 4
__Result$ = -4						; size = 4
__Buffer$ = 8						; size = 4
__BufferCount$ = 12					; size = 4
__Format$ = 16						; size = 4
__Locale$ = 20						; size = 4
__ArgList$ = 24						; size = 4
__vsnprintf_l PROC					; COMDAT

; 1389 :     {

  00000	55		 push	 ebp
  00001	8b ec		 mov	 ebp, esp
  00003	83 ec 48	 sub	 esp, 72			; 00000048H
  00006	53		 push	 ebx
  00007	56		 push	 esi
  00008	57		 push	 edi

; 1390 :         int const _Result = __stdio_common_vsprintf(

  00009	8b 45 18	 mov	 eax, DWORD PTR __ArgList$[ebp]
  0000c	50		 push	 eax
  0000d	8b 4d 14	 mov	 ecx, DWORD PTR __Locale$[ebp]
  00010	51		 push	 ecx
  00011	8b 55 10	 mov	 edx, DWORD PTR __Format$[ebp]
  00014	52		 push	 edx
  00015	8b 45 0c	 mov	 eax, DWORD PTR __BufferCount$[ebp]
  00018	50		 push	 eax
  00019	8b 4d 08	 mov	 ecx, DWORD PTR __Buffer$[ebp]
  0001c	51		 push	 ecx
  0001d	e8 00 00 00 00	 call	 ___local_stdio_printf_options
  00022	8b 10		 mov	 edx, DWORD PTR [eax]
  00024	83 ca 01	 or	 edx, 1
  00027	8b 40 04	 mov	 eax, DWORD PTR [eax+4]
  0002a	50		 push	 eax
  0002b	52		 push	 edx
  0002c	ff 15 00 00 00
	00		 call	 DWORD PTR __imp____stdio_common_vsprintf
  00032	83 c4 1c	 add	 esp, 28			; 0000001cH
  00035	89 45 fc	 mov	 DWORD PTR __Result$[ebp], eax

; 1391 :             _CRT_INTERNAL_LOCAL_PRINTF_OPTIONS | _CRT_INTERNAL_PRINTF_LEGACY_VSPRINTF_NULL_TERMINATION,
; 1392 :             _Buffer, _BufferCount, _Format, _Locale, _ArgList);
; 1393 : 
; 1394 :         return _Result < 0 ? -1 : _Result;

  00038	83 7d fc 00	 cmp	 DWORD PTR __Result$[ebp], 0
  0003c	7d 09		 jge	 SHORT $LN3@vsnprintf_
  0003e	c7 45 b8 ff ff
	ff ff		 mov	 DWORD PTR tv74[ebp], -1
  00045	eb 06		 jmp	 SHORT $LN4@vsnprintf_
$LN3@vsnprintf_:
  00047	8b 45 fc	 mov	 eax, DWORD PTR __Result$[ebp]
  0004a	89 45 b8	 mov	 DWORD PTR tv74[ebp], eax
$LN4@vsnprintf_:
  0004d	8b 45 b8	 mov	 eax, DWORD PTR tv74[ebp]

; 1395 :     }

  00050	5f		 pop	 edi
  00051	5e		 pop	 esi
  00052	5b		 pop	 ebx
  00053	8b e5		 mov	 esp, ebp
  00055	5d		 pop	 ebp
  00056	c3		 ret	 0
__vsnprintf_l ENDP
_TEXT	ENDS
; Function compile flags: /Odtp /ZI
; File c:\program files (x86)\windows kits\10\include\10.0.18362.0\ucrt\corecrt_stdio_config.h
;	COMDAT ___local_stdio_printf_options
_TEXT	SEGMENT
___local_stdio_printf_options PROC			; COMDAT

; 86   :     {

  00000	55		 push	 ebp
  00001	8b ec		 mov	 ebp, esp
  00003	83 ec 40	 sub	 esp, 64			; 00000040H
  00006	53		 push	 ebx
  00007	56		 push	 esi
  00008	57		 push	 edi

; 87   :         static unsigned __int64 _OptionsStorage;
; 88   :         return &_OptionsStorage;

  00009	b8 00 00 00 00	 mov	 eax, OFFSET ?_OptionsStorage@?1??__local_stdio_printf_options@@9@4_KA ; `__local_stdio_printf_options'::`2'::_OptionsStorage

; 89   :     }

  0000e	5f		 pop	 edi
  0000f	5e		 pop	 esi
  00010	5b		 pop	 ebx
  00011	8b e5		 mov	 esp, ebp
  00013	5d		 pop	 ebp
  00014	c3		 ret	 0
___local_stdio_printf_options ENDP
_TEXT	ENDS
END
