; Listing generated by Microsoft (R) Optimizing Compiler Version 19.16.27045.0 

	TITLE	C:\Users\nhv90\Projects\eech\aphavoc\source\ui_menu\ingame\campaign\campaign.c
	.686P
	.XMM
	include listing.inc
	.model	flat

INCLUDELIB MSVCRTD
INCLUDELIB OLDNAMES

PUBLIC	?campaign_screen@@3PAUUI_OBJECT@@A		; campaign_screen
PUBLIC	?campaign_page@@3PAPAUUI_OBJECT@@A		; campaign_page
_BSS	SEGMENT
?campaign_screen@@3PAUUI_OBJECT@@A DD 01H DUP (?)	; campaign_screen
?campaign_page@@3PAPAUUI_OBJECT@@A DD 0aH DUP (?)	; campaign_page
_BSS	ENDS
PUBLIC	___local_stdio_printf_options
PUBLIC	__vsnprintf_l
PUBLIC	__vsprintf_l
PUBLIC	_sprintf
PUBLIC	?initialise_main_campaign_screen@@YGXXZ		; initialise_main_campaign_screen
PUBLIC	?display_campaign_page@@YGXW4CAMPAIGN_PAGES@@HH@Z ; display_campaign_page
PUBLIC	?get_current_campaign_page@@YG?AW4CAMPAIGN_PAGES@@XZ ; get_current_campaign_page
PUBLIC	?initialise_campaign_screen@@YGXXZ		; initialise_campaign_screen
PUBLIC	?setup_campaign_quit_mission_dialog@@YGXXZ	; setup_campaign_quit_mission_dialog
PUBLIC	?setup_campaign_quit_campaign_dialog@@YGXXZ	; setup_campaign_quit_campaign_dialog
PUBLIC	?setup_campaign_completed_dialog@@YGXW4ENTITY_SIDES@@W4CAMPAIGN_COMPLETED_TYPES@@@Z ; setup_campaign_completed_dialog
PUBLIC	?campaign_completed@@YGXW4ENTITY_SIDES@@W4CAMPAIGN_COMPLETED_TYPES@@@Z ; campaign_completed
PUBLIC	?campaign_screen_show_external_view_entity@@YGXPAUEVENT@@@Z ; campaign_screen_show_external_view_entity
PUBLIC	?_OptionsStorage@?1??__local_stdio_printf_options@@9@4_KA ; `__local_stdio_printf_options'::`2'::_OptionsStorage
PUBLIC	??_C@_0BF@JNEDHLHL@ingame?5screen?5events@	; `string'
PUBLIC	??_C@_0EP@NKLNNBKK@c?3?2users?2nhv90?2projects?2eech?2ap@ ; `string'
PUBLIC	??_C@_0BE@HEEHLODO@quit?5mission?5events@	; `string'
PUBLIC	??_C@_0BF@MBCBKKEM@quit?5campaign?5events@	; `string'
PUBLIC	??_C@_0CF@NEINMOPO@graphics?2ui?2cohokum?2map?2bvictor@ ; `string'
PUBLIC	??_C@_0CF@GAIKGICE@graphics?2ui?2cohokum?2map?2rvictor@ ; `string'
PUBLIC	??_C@_0O@IHCKIJCG@Campaign?5Over@		; `string'
PUBLIC	??_C@_0CE@KAOINKOG@graphics?2ui?2cohokum?2map?2okaybtn@ ; `string'
PUBLIC	??_C@_05LMLILOOH@UI_OK@				; `string'
PUBLIC	??_C@_0CF@BBAEIILB@graphics?2ui?2cohokum?2map?2quitmis@ ; `string'
PUBLIC	??_C@_0N@HKMGGOHL@QUIT?5MISSION@		; `string'
PUBLIC	??_C@_03EHDOIDNK@?$CFs?$DP@			; `string'
PUBLIC	??_C@_02JINPPBEP@No@				; `string'
PUBLIC	??_C@_03CCLAEDDF@Yes@				; `string'
PUBLIC	??_C@_0CF@EBOMMOO@graphics?2ui?2cohokum?2map?2quitcam@ ; `string'
PUBLIC	??_C@_0O@MJEBNFIH@Quit?5Campaign@		; `string'
PUBLIC	?__LINE__Var@?0??setup_campaign_completed_dialog@@YGXW4ENTITY_SIDES@@W4CAMPAIGN_COMPLETED_TYPES@@@Z@4JA ; `setup_campaign_completed_dialog'::`1'::__LINE__Var
PUBLIC	??_C@_0DC@OBDAOMBE@CAMPAIGN?3?5Invalid?5Side?5for?5camp@ ; `string'
PUBLIC	??_C@_0P@GCFADKDO@Allied?5Victory@		; `string'
PUBLIC	??_C@_0BI@PGFFFHEA@Key?5Objectives?5Achieved@	; `string'
PUBLIC	??_C@_0CE@MJGCFIIK@Enemy?5Air?5Forces?5Seriously?5Depl@ ; `string'
PUBLIC	??_C@_00CNPNBAHC@@				; `string'
PUBLIC	??_C@_0O@HJMPHEME@Enemy?5Victory@		; `string'
PUBLIC	??_C@_0BO@KKOAEJDB@Key?5Allied?5Installations?5Lost@ ; `string'
PUBLIC	??_C@_0CJ@NFBDDHEB@Insufficient?5Resources?5Left?5For@ ; `string'
PUBLIC	?__LINE__Var@?0??campaign_completed@@YGXW4ENTITY_SIDES@@W4CAMPAIGN_COMPLETED_TYPES@@@Z@4JA ; `campaign_completed'::`1'::__LINE__Var
PUBLIC	??_C@_0DA@JCGIPLLO@?$CD?$CD?$CD?$CD?$CD?$CD?$CD?$CD?$CD?$CD?$CD?$CD?$CD?$CD?$CD?$CD?$CD?$CD?$CD?$CD?$CD?$CD?$CD?$CD?$CD?$CD?$CD?$CD?$CD?$CD?$CD@ ; `string'
PUBLIC	??_C@_0BI@LEFNLAID@CAMPAIGN?5WON?5BY?5?$CFs?5SIDE@ ; `string'
PUBLIC	??_C@_03MGHMBJCF@log@				; `string'
PUBLIC	??_C@_0BG@EFCJJKAA@get_session_entity?5?$CI?$CJ@ ; `string'
PUBLIC	?__LINE__Var@?0??campaign_screen_show_external_view_entity@@YGXPAUEVENT@@@Z@4JA ; `campaign_screen_show_external_view_entity'::`1'::__LINE__Var
PUBLIC	??_C@_0BE@KOLCCDEB@get_pilot_entity?5?$CI?$CJ@	; `string'
PUBLIC	__real@3d449ba6
PUBLIC	__real@3dcccccd
PUBLIC	__real@3e6147ae
PUBLIC	__real@3e839581
PUBLIC	__real@3e9b22d1
PUBLIC	__real@3ea56042
PUBLIC	__real@3eda9fbe
PUBLIC	__real@3efef9db
PUBLIC	__real@3f170a3d
PUBLIC	__real@3f19999a
PUBLIC	__real@3f1cac08
PUBLIC	__real@3f266666
PUBLIC	__real@3f28f5c3
PUBLIC	__real@3f2a3d71
PUBLIC	__real@3f2c8b44
PUBLIC	__real@3f39db23
PUBLIC	__real@3f3d70a4
PUBLIC	__real@3f428f5c
PUBLIC	__real@3f47ae14
PUBLIC	__real@3f51eb85
PUBLIC	__real@3f5e76c9
PUBLIC	__real@3f666666
PUBLIC	__real@3f70e560
PUBLIC	__real@3f733333
PUBLIC	__real@3f800000
PUBLIC	__real@3fa999999999999a
EXTRN	__imp____stdio_common_vsprintf:PROC
EXTRN	?process_assert@@YGXPBD0H@Z:PROC		; process_assert
EXTRN	?debug_fatal@@YAXPBDZZ:PROC			; debug_fatal
EXTRN	?breakout@@YGXPAUEVENT@@@Z:PROC			; breakout
EXTRN	?set_mouse_graphic_on@@YGXXZ:PROC		; set_mouse_graphic_on
EXTRN	?set_event@@YGXHHHP6GXPAUEVENT@@@Z@Z:PROC	; set_event
EXTRN	?push_event@@YGXP6GXXZPBD@Z:PROC		; push_event
EXTRN	?pop_event@@YGXP6GXXZ@Z:PROC			; pop_event
EXTRN	?create_texture_graphic@@YGPAUTEXTURE_GRAPHIC@@PBD@Z:PROC ; create_texture_graphic
EXTRN	?ui_left_mouse_button@@YGXPAUEVENT@@@Z:PROC	; ui_left_mouse_button
EXTRN	?ui_right_mouse_button@@YGXPAUEVENT@@@Z:PROC	; ui_right_mouse_button
EXTRN	?create_ui_object@@YAPAUUI_OBJECT@@HZZ:PROC	; create_ui_object
EXTRN	?ui_set_origin@@YGXMM@Z:PROC			; ui_set_origin
EXTRN	?set_in_flight_game_mode@@YGXH@Z:PROC		; set_in_flight_game_mode
EXTRN	?transmit_entity_comms_message@@YAXW4ENTITY_COMMS_MESSAGES@@PAUENTITY@@ZZ:PROC ; transmit_entity_comms_message
EXTRN	?set_gunship_entity@@YGXPAUENTITY@@@Z:PROC	; set_gunship_entity
EXTRN	?get_external_view_entity@@YGPAUENTITY@@XZ:PROC	; get_external_view_entity
EXTRN	?get_player_task@@YGPAUENTITY@@PAU1@@Z:PROC	; get_player_task
EXTRN	?exit_apache_havoc@@YGXPAUEVENT@@@Z:PROC	; exit_apache_havoc
EXTRN	?get_trans@@YGPBDPBD@Z:PROC			; get_trans
EXTRN	?award_campaign_medal@@YGXHH@Z:PROC		; award_campaign_medal
EXTRN	?get_current_player_log@@YGPAUPLAYER_LOG_TYPE@@XZ:PROC ; get_current_player_log
EXTRN	?inc_player_log_failed_tours@@YGXHPAUPLAYER_LOG_TYPE@@@Z:PROC ; inc_player_log_failed_tours
EXTRN	?inc_player_log_successful_tours@@YGXHPAUPLAYER_LOG_TYPE@@@Z:PROC ; inc_player_log_successful_tours
EXTRN	?initialise_map_data@@YGXXZ:PROC		; initialise_map_data
EXTRN	?set_last_drawn_map_object@@YGXPAUUI_OBJECT@@@Z:PROC ; set_last_drawn_map_object
EXTRN	?minimize_all_map_objects@@YGXXZ:PROC		; minimize_all_map_objects
EXTRN	?ingame_screen_draw_function@@YGXPAUUI_OBJECT@@PAX@Z:PROC ; ingame_screen_draw_function
EXTRN	?set_ui_mouse_over_entity@@YGXPAUENTITY@@@Z:PROC ; set_ui_mouse_over_entity
EXTRN	?player_quit_session@@YGXPAUEVENT@@@Z:PROC	; player_quit_session
EXTRN	?ingame_screen_set_events@@YGXXZ:PROC		; ingame_screen_set_events
EXTRN	?initialise_campaign_screen_base_page_objects@@YGXXZ:PROC ; initialise_campaign_screen_base_page_objects
EXTRN	?define_campaign_screen_base_page_objects@@YGXXZ:PROC ; define_campaign_screen_base_page_objects
EXTRN	?initialise_campaign_screen_briefing_page_objects@@YGXXZ:PROC ; initialise_campaign_screen_briefing_page_objects
EXTRN	?define_campaign_screen_briefing_page_objects@@YGXXZ:PROC ; define_campaign_screen_briefing_page_objects
EXTRN	?initialise_campaign_screen_chat_page_objects@@YGXXZ:PROC ; initialise_campaign_screen_chat_page_objects
EXTRN	?define_campaign_screen_chat_page_objects@@YGXXZ:PROC ; define_campaign_screen_chat_page_objects
EXTRN	?show_debriefing_page@@YGXPAUENTITY@@HH@Z:PROC	; show_debriefing_page
EXTRN	?initialise_campaign_screen_debriefing_page_objects@@YGXXZ:PROC ; initialise_campaign_screen_debriefing_page_objects
EXTRN	?define_campaign_screen_debriefing_page_objects@@YGXXZ:PROC ; define_campaign_screen_debriefing_page_objects
EXTRN	?initialise_campaign_screen_full_screen_map_objects@@YGXXZ:PROC ; initialise_campaign_screen_full_screen_map_objects
EXTRN	?define_campaign_screen_full_screen_map_objects@@YGXXZ:PROC ; define_campaign_screen_full_screen_map_objects
EXTRN	?show_group_page@@YGHPAUENTITY@@H@Z:PROC	; show_group_page
EXTRN	?initialise_campaign_screen_group_page_objects@@YGXXZ:PROC ; initialise_campaign_screen_group_page_objects
EXTRN	?define_campaign_screen_group_page_objects@@YGXXZ:PROC ; define_campaign_screen_group_page_objects
EXTRN	?initialise_campaign_history@@YGXXZ:PROC	; initialise_campaign_history
EXTRN	?push_campaign_history@@YGXW4CAMPAIGN_PAGES@@H@Z:PROC ; push_campaign_history
EXTRN	?initialise_campaign_screen_info_objects@@YGXXZ:PROC ; initialise_campaign_screen_info_objects
EXTRN	?define_campaign_screen_info_objects@@YGXXZ:PROC ; define_campaign_screen_info_objects
EXTRN	?initialise_campaign_screen_list_objects@@YGXXZ:PROC ; initialise_campaign_screen_list_objects
EXTRN	?update_campaign_screen_list_objects@@YGXXZ:PROC ; update_campaign_screen_list_objects
EXTRN	?define_campaign_screen_list_objects@@YGXXZ:PROC ; define_campaign_screen_list_objects
EXTRN	?initialise_campaign_screen_log_page_objects@@YGXXZ:PROC ; initialise_campaign_screen_log_page_objects
EXTRN	?define_campaign_screen_log_page_objects@@YGXXZ:PROC ; define_campaign_screen_log_page_objects
EXTRN	?show_map_page@@YGXXZ:PROC			; show_map_page
EXTRN	?initialise_campaign_screen_map_page_objects@@YGXXZ:PROC ; initialise_campaign_screen_map_page_objects
EXTRN	?define_campaign_screen_map_page_objects@@YGXXZ:PROC ; define_campaign_screen_map_page_objects
EXTRN	?initialise_campaign_screen_menu_objects@@YGXXZ:PROC ; initialise_campaign_screen_menu_objects
EXTRN	?define_campaign_screen_menu_objects@@YGXXZ:PROC ; define_campaign_screen_menu_objects
EXTRN	?initialise_campaign_screen_message_responses@@YGXXZ:PROC ; initialise_campaign_screen_message_responses
EXTRN	?initialise_campaign_screen_save_page_objects@@YGXXZ:PROC ; initialise_campaign_screen_save_page_objects
EXTRN	?define_campaign_screen_save_page_objects@@YGXXZ:PROC ; define_campaign_screen_save_page_objects
EXTRN	?initialise_campaign_screen_selection_objects@@YGXXZ:PROC ; initialise_campaign_screen_selection_objects
EXTRN	?define_campaign_screen_selection_objects@@YGXXZ:PROC ; define_campaign_screen_selection_objects
EXTRN	?initialise_campaign_screen_sort_objects@@YGXXZ:PROC ; initialise_campaign_screen_sort_objects
EXTRN	?initialise_campaign_screen_stats_page_objects@@YGXXZ:PROC ; initialise_campaign_screen_stats_page_objects
EXTRN	?define_campaign_screen_stats_page_objects@@YGXXZ:PROC ; define_campaign_screen_stats_page_objects
EXTRN	?initialise_campaign_screen_weapon_loading_page_objects@@YGXXZ:PROC ; initialise_campaign_screen_weapon_loading_page_objects
EXTRN	?define_campaign_screen_weapon_loading_page_objects@@YGXXZ:PROC ; define_campaign_screen_weapon_loading_page_objects
EXTRN	?process_ingame_text_object_size@@YGXPAUUI_OBJECT@@0PAPBDHW4RESIZE_UI_OBJECT_TYPES@@@Z:PROC ; process_ingame_text_object_size
EXTRN	?ai_log@@YAXPBDZZ:PROC				; ai_log
EXTRN	?fn_get_ui_object_x_end@@3PAP6GMPAUUI_OBJECT@@@ZA:BYTE ; fn_get_ui_object_x_end
EXTRN	?fn_set_ui_object_drawable@@3PAP6GXPAUUI_OBJECT@@H@ZA:BYTE ; fn_set_ui_object_drawable
EXTRN	?fn_get_ui_object_drawable@@3PAP6GHPAUUI_OBJECT@@@ZA:BYTE ; fn_get_ui_object_drawable
EXTRN	?fn_set_ui_object_item_number@@3PAP6GXPAUUI_OBJECT@@H@ZA:BYTE ; fn_set_ui_object_item_number
EXTRN	?fn_get_ui_object_item_number@@3PAP6GHPAUUI_OBJECT@@@ZA:BYTE ; fn_get_ui_object_item_number
EXTRN	?fn_set_ui_object_text@@3PAP6GXPAUUI_OBJECT@@PBD@ZA:BYTE ; fn_set_ui_object_text
EXTRN	?fn_set_ui_object_texture_graphic@@3PAP6GXPAUUI_OBJECT@@PAUTEXTURE_GRAPHIC@@@ZA:BYTE ; fn_set_ui_object_texture_graphic
EXTRN	?ui_ingame_live_text_colour@@3UREAL_COLOUR@@A:DWORD ; ui_ingame_live_text_colour
EXTRN	?ui_ingame_dead_text_colour@@3UREAL_COLOUR@@A:DWORD ; ui_ingame_dead_text_colour
EXTRN	?ui_ingame_highlight_text_colour@@3UREAL_COLOUR@@A:DWORD ; ui_ingame_highlight_text_colour
EXTRN	?ui_ingame_selected_text_colour@@3UREAL_COLOUR@@A:DWORD ; ui_ingame_selected_text_colour
EXTRN	?command_line_ui_sounds_muted@@3HA:DWORD	; command_line_ui_sounds_muted
EXTRN	?in_flight_game_mode@@3W4IN_FLIGHT_GAME_MODES@@A:DWORD ; in_flight_game_mode
EXTRN	?null_entity_pointer_message@@3PBDB:DWORD	; null_entity_pointer_message
EXTRN	?entity_side_short_names@@3PAPBDA:BYTE		; entity_side_short_names
EXTRN	?system_comms_model@@3W4COMMS_MODEL_TYPES@@A:DWORD ; system_comms_model
EXTRN	?overload_invalid_list_type_message@@3PBDB:DWORD ; overload_invalid_list_type_message
EXTRN	?fn_get_local_entity_parent@@3PAY0CN@P6GPAUENTITY@@PAU1@W4LIST_TYPES@@@ZA:BYTE ; fn_get_local_entity_parent
EXTRN	?overload_invalid_int_type_message@@3PBDB:DWORD	; overload_invalid_int_type_message
EXTRN	?fn_set_local_entity_int_value@@3PAY0BBH@P6GXPAUENTITY@@W4INT_TYPES@@H@ZA:BYTE ; fn_set_local_entity_int_value
EXTRN	?fn_get_local_entity_int_value@@3PAY0BBH@P6GHPAUENTITY@@W4INT_TYPES@@@ZA:BYTE ; fn_get_local_entity_int_value
EXTRN	?gunship_entity@@3PAUENTITY@@A:DWORD		; gunship_entity
EXTRN	?ui_sounds_muted@@3HA:DWORD			; ui_sounds_muted
EXTRN	?pilot_entity@@3PAUENTITY@@A:DWORD		; pilot_entity
EXTRN	?session_entity@@3PAUENTITY@@A:DWORD		; session_entity
EXTRN	?game_type@@3W4GAME_TYPES@@A:DWORD		; game_type
EXTRN	?common_grey_alpha_mask@@3PAUTEXTURE_GRAPHIC@@A:DWORD ; common_grey_alpha_mask
EXTRN	?common_black_alpha_mask@@3PAUTEXTURE_GRAPHIC@@A:DWORD ; common_black_alpha_mask
EXTRN	__fltused:DWORD
;	COMDAT ?_OptionsStorage@?1??__local_stdio_printf_options@@9@4_KA
_BSS	SEGMENT
?_OptionsStorage@?1??__local_stdio_printf_options@@9@4_KA DQ 01H DUP (?) ; `__local_stdio_printf_options'::`2'::_OptionsStorage
_BSS	ENDS
_BSS	SEGMENT
?campaign_full_screen_mask_area@@3PAUUI_OBJECT@@A DD 01H DUP (?) ; campaign_full_screen_mask_area
?campaign_dialog_area@@3PAUUI_OBJECT@@A DD 01H DUP (?)	; campaign_dialog_area
?campaign_complete_area@@3PAUUI_OBJECT@@A DD 01H DUP (?) ; campaign_complete_area
?campaign_complete_side@@3PAUUI_OBJECT@@A DD 01H DUP (?) ; campaign_complete_side
?campaign_complete_reason@@3PAUUI_OBJECT@@A DD 01H DUP (?) ; campaign_complete_reason
?campaign_quit_mission_area@@3PAUUI_OBJECT@@A DD 01H DUP (?) ; campaign_quit_mission_area
?campaign_quit_campaign_area@@3PAUUI_OBJECT@@A DD 01H DUP (?) ; campaign_quit_campaign_area
?blue_campaign_complete_graphic@@3PAUTEXTURE_GRAPHIC@@A DD 01H DUP (?) ; blue_campaign_complete_graphic
?red_campaign_complete_graphic@@3PAUTEXTURE_GRAPHIC@@A DD 01H DUP (?) ; red_campaign_complete_graphic
_BSS	ENDS
;	COMDAT __real@3fa999999999999a
CONST	SEGMENT
__real@3fa999999999999a DQ 03fa999999999999ar	; 0.05
CONST	ENDS
;	COMDAT __real@3f800000
CONST	SEGMENT
__real@3f800000 DD 03f800000r			; 1
CONST	ENDS
;	COMDAT __real@3f733333
CONST	SEGMENT
__real@3f733333 DD 03f733333r			; 0.95
CONST	ENDS
;	COMDAT __real@3f70e560
CONST	SEGMENT
__real@3f70e560 DD 03f70e560r			; 0.941
CONST	ENDS
;	COMDAT __real@3f666666
CONST	SEGMENT
__real@3f666666 DD 03f666666r			; 0.9
CONST	ENDS
;	COMDAT __real@3f5e76c9
CONST	SEGMENT
__real@3f5e76c9 DD 03f5e76c9r			; 0.869
CONST	ENDS
;	COMDAT __real@3f51eb85
CONST	SEGMENT
__real@3f51eb85 DD 03f51eb85r			; 0.82
CONST	ENDS
;	COMDAT __real@3f47ae14
CONST	SEGMENT
__real@3f47ae14 DD 03f47ae14r			; 0.78
CONST	ENDS
;	COMDAT __real@3f428f5c
CONST	SEGMENT
__real@3f428f5c DD 03f428f5cr			; 0.76
CONST	ENDS
;	COMDAT __real@3f3d70a4
CONST	SEGMENT
__real@3f3d70a4 DD 03f3d70a4r			; 0.74
CONST	ENDS
;	COMDAT __real@3f39db23
CONST	SEGMENT
__real@3f39db23 DD 03f39db23r			; 0.726
CONST	ENDS
;	COMDAT __real@3f2c8b44
CONST	SEGMENT
__real@3f2c8b44 DD 03f2c8b44r			; 0.674
CONST	ENDS
;	COMDAT __real@3f2a3d71
CONST	SEGMENT
__real@3f2a3d71 DD 03f2a3d71r			; 0.665
CONST	ENDS
;	COMDAT __real@3f28f5c3
CONST	SEGMENT
__real@3f28f5c3 DD 03f28f5c3r			; 0.66
CONST	ENDS
;	COMDAT __real@3f266666
CONST	SEGMENT
__real@3f266666 DD 03f266666r			; 0.65
CONST	ENDS
;	COMDAT __real@3f1cac08
CONST	SEGMENT
__real@3f1cac08 DD 03f1cac08r			; 0.612
CONST	ENDS
;	COMDAT __real@3f19999a
CONST	SEGMENT
__real@3f19999a DD 03f19999ar			; 0.6
CONST	ENDS
;	COMDAT __real@3f170a3d
CONST	SEGMENT
__real@3f170a3d DD 03f170a3dr			; 0.59
CONST	ENDS
;	COMDAT __real@3efef9db
CONST	SEGMENT
__real@3efef9db DD 03efef9dbr			; 0.498
CONST	ENDS
;	COMDAT __real@3eda9fbe
CONST	SEGMENT
__real@3eda9fbe DD 03eda9fber			; 0.427
CONST	ENDS
;	COMDAT __real@3ea56042
CONST	SEGMENT
__real@3ea56042 DD 03ea56042r			; 0.323
CONST	ENDS
;	COMDAT __real@3e9b22d1
CONST	SEGMENT
__real@3e9b22d1 DD 03e9b22d1r			; 0.303
CONST	ENDS
;	COMDAT __real@3e839581
CONST	SEGMENT
__real@3e839581 DD 03e839581r			; 0.257
CONST	ENDS
;	COMDAT __real@3e6147ae
CONST	SEGMENT
__real@3e6147ae DD 03e6147aer			; 0.22
CONST	ENDS
;	COMDAT __real@3dcccccd
CONST	SEGMENT
__real@3dcccccd DD 03dcccccdr			; 0.1
CONST	ENDS
;	COMDAT __real@3d449ba6
CONST	SEGMENT
__real@3d449ba6 DD 03d449ba6r			; 0.048
CONST	ENDS
;	COMDAT ??_C@_0BE@KOLCCDEB@get_pilot_entity?5?$CI?$CJ@
CONST	SEGMENT
??_C@_0BE@KOLCCDEB@get_pilot_entity?5?$CI?$CJ@ DB 'get_pilot_entity ()', 00H ; `string'
CONST	ENDS
;	COMDAT ?__LINE__Var@?0??campaign_screen_show_external_view_entity@@YGXPAUEVENT@@@Z@4JA
_DATA	SEGMENT
?__LINE__Var@?0??campaign_screen_show_external_view_entity@@YGXPAUEVENT@@@Z@4JA DD 0461H ; `campaign_screen_show_external_view_entity'::`1'::__LINE__Var
_DATA	ENDS
;	COMDAT ??_C@_0BG@EFCJJKAA@get_session_entity?5?$CI?$CJ@
CONST	SEGMENT
??_C@_0BG@EFCJJKAA@get_session_entity?5?$CI?$CJ@ DB 'get_session_entity ('
	DB	')', 00H					; `string'
CONST	ENDS
;	COMDAT ??_C@_03MGHMBJCF@log@
CONST	SEGMENT
??_C@_03MGHMBJCF@log@ DB 'log', 00H			; `string'
CONST	ENDS
;	COMDAT ??_C@_0BI@LEFNLAID@CAMPAIGN?5WON?5BY?5?$CFs?5SIDE@
CONST	SEGMENT
??_C@_0BI@LEFNLAID@CAMPAIGN?5WON?5BY?5?$CFs?5SIDE@ DB 'CAMPAIGN WON BY %s'
	DB	' SIDE', 00H					; `string'
CONST	ENDS
;	COMDAT ??_C@_0DA@JCGIPLLO@?$CD?$CD?$CD?$CD?$CD?$CD?$CD?$CD?$CD?$CD?$CD?$CD?$CD?$CD?$CD?$CD?$CD?$CD?$CD?$CD?$CD?$CD?$CD?$CD?$CD?$CD?$CD?$CD?$CD?$CD?$CD@
CONST	SEGMENT
??_C@_0DA@JCGIPLLO@?$CD?$CD?$CD?$CD?$CD?$CD?$CD?$CD?$CD?$CD?$CD?$CD?$CD?$CD?$CD?$CD?$CD?$CD?$CD?$CD?$CD?$CD?$CD?$CD?$CD?$CD?$CD?$CD?$CD?$CD?$CD@ DB '#'
	DB	'##############################################', 00H ; `string'
CONST	ENDS
;	COMDAT ?__LINE__Var@?0??campaign_completed@@YGXW4ENTITY_SIDES@@W4CAMPAIGN_COMPLETED_TYPES@@@Z@4JA
_DATA	SEGMENT
?__LINE__Var@?0??campaign_completed@@YGXW4ENTITY_SIDES@@W4CAMPAIGN_COMPLETED_TYPES@@@Z@4JA DD 0427H ; `campaign_completed'::`1'::__LINE__Var
_DATA	ENDS
;	COMDAT ??_C@_0CJ@NFBDDHEB@Insufficient?5Resources?5Left?5For@
CONST	SEGMENT
??_C@_0CJ@NFBDDHEB@Insufficient?5Resources?5Left?5For@ DB 'Insufficient R'
	DB	'esources Left For Conflict', 00H		; `string'
CONST	ENDS
;	COMDAT ??_C@_0BO@KKOAEJDB@Key?5Allied?5Installations?5Lost@
CONST	SEGMENT
??_C@_0BO@KKOAEJDB@Key?5Allied?5Installations?5Lost@ DB 'Key Allied Insta'
	DB	'llations Lost', 00H				; `string'
CONST	ENDS
;	COMDAT ??_C@_0O@HJMPHEME@Enemy?5Victory@
CONST	SEGMENT
??_C@_0O@HJMPHEME@Enemy?5Victory@ DB 'Enemy Victory', 00H ; `string'
CONST	ENDS
;	COMDAT ??_C@_00CNPNBAHC@@
CONST	SEGMENT
??_C@_00CNPNBAHC@@ DB 00H				; `string'
CONST	ENDS
;	COMDAT ??_C@_0CE@MJGCFIIK@Enemy?5Air?5Forces?5Seriously?5Depl@
CONST	SEGMENT
??_C@_0CE@MJGCFIIK@Enemy?5Air?5Forces?5Seriously?5Depl@ DB 'Enemy Air For'
	DB	'ces Seriously Depleted', 00H		; `string'
CONST	ENDS
;	COMDAT ??_C@_0BI@PGFFFHEA@Key?5Objectives?5Achieved@
CONST	SEGMENT
??_C@_0BI@PGFFFHEA@Key?5Objectives?5Achieved@ DB 'Key Objectives Achieved'
	DB	00H						; `string'
CONST	ENDS
;	COMDAT ??_C@_0P@GCFADKDO@Allied?5Victory@
CONST	SEGMENT
??_C@_0P@GCFADKDO@Allied?5Victory@ DB 'Allied Victory', 00H ; `string'
CONST	ENDS
;	COMDAT ??_C@_0DC@OBDAOMBE@CAMPAIGN?3?5Invalid?5Side?5for?5camp@
CONST	SEGMENT
??_C@_0DC@OBDAOMBE@CAMPAIGN?3?5Invalid?5Side?5for?5camp@ DB 'CAMPAIGN: In'
	DB	'valid Side for campaign complete (%d)', 00H	; `string'
CONST	ENDS
;	COMDAT ?__LINE__Var@?0??setup_campaign_completed_dialog@@YGXW4ENTITY_SIDES@@W4CAMPAIGN_COMPLETED_TYPES@@@Z@4JA
_DATA	SEGMENT
?__LINE__Var@?0??setup_campaign_completed_dialog@@YGXW4ENTITY_SIDES@@W4CAMPAIGN_COMPLETED_TYPES@@@Z@4JA DD 03c4H ; `setup_campaign_completed_dialog'::`1'::__LINE__Var
_DATA	ENDS
;	COMDAT ??_C@_0O@MJEBNFIH@Quit?5Campaign@
CONST	SEGMENT
??_C@_0O@MJEBNFIH@Quit?5Campaign@ DB 'Quit Campaign', 00H ; `string'
CONST	ENDS
;	COMDAT ??_C@_0CF@EBOMMOO@graphics?2ui?2cohokum?2map?2quitcam@
CONST	SEGMENT
??_C@_0CF@EBOMMOO@graphics?2ui?2cohokum?2map?2quitcam@ DB 'graphics\ui\co'
	DB	'hokum\map\quitcamp.psd', 00H		; `string'
CONST	ENDS
;	COMDAT ??_C@_03CCLAEDDF@Yes@
CONST	SEGMENT
??_C@_03CCLAEDDF@Yes@ DB 'Yes', 00H			; `string'
CONST	ENDS
;	COMDAT ??_C@_02JINPPBEP@No@
CONST	SEGMENT
??_C@_02JINPPBEP@No@ DB 'No', 00H			; `string'
CONST	ENDS
;	COMDAT ??_C@_03EHDOIDNK@?$CFs?$DP@
CONST	SEGMENT
??_C@_03EHDOIDNK@?$CFs?$DP@ DB '%s?', 00H		; `string'
CONST	ENDS
;	COMDAT ??_C@_0N@HKMGGOHL@QUIT?5MISSION@
CONST	SEGMENT
??_C@_0N@HKMGGOHL@QUIT?5MISSION@ DB 'QUIT MISSION', 00H	; `string'
CONST	ENDS
;	COMDAT ??_C@_0CF@BBAEIILB@graphics?2ui?2cohokum?2map?2quitmis@
CONST	SEGMENT
??_C@_0CF@BBAEIILB@graphics?2ui?2cohokum?2map?2quitmis@ DB 'graphics\ui\c'
	DB	'ohokum\map\quitmisn.psd', 00H		; `string'
CONST	ENDS
;	COMDAT ??_C@_05LMLILOOH@UI_OK@
CONST	SEGMENT
??_C@_05LMLILOOH@UI_OK@ DB 'UI_OK', 00H			; `string'
CONST	ENDS
;	COMDAT ??_C@_0CE@KAOINKOG@graphics?2ui?2cohokum?2map?2okaybtn@
CONST	SEGMENT
??_C@_0CE@KAOINKOG@graphics?2ui?2cohokum?2map?2okaybtn@ DB 'graphics\ui\c'
	DB	'ohokum\map\okaybtn.psd', 00H		; `string'
CONST	ENDS
;	COMDAT ??_C@_0O@IHCKIJCG@Campaign?5Over@
CONST	SEGMENT
??_C@_0O@IHCKIJCG@Campaign?5Over@ DB 'Campaign Over', 00H ; `string'
CONST	ENDS
;	COMDAT ??_C@_0CF@GAIKGICE@graphics?2ui?2cohokum?2map?2rvictor@
CONST	SEGMENT
??_C@_0CF@GAIKGICE@graphics?2ui?2cohokum?2map?2rvictor@ DB 'graphics\ui\c'
	DB	'ohokum\map\rvictory.psd', 00H		; `string'
CONST	ENDS
;	COMDAT ??_C@_0CF@NEINMOPO@graphics?2ui?2cohokum?2map?2bvictor@
CONST	SEGMENT
??_C@_0CF@NEINMOPO@graphics?2ui?2cohokum?2map?2bvictor@ DB 'graphics\ui\c'
	DB	'ohokum\map\bvictory.psd', 00H		; `string'
CONST	ENDS
;	COMDAT ??_C@_0BF@MBCBKKEM@quit?5campaign?5events@
CONST	SEGMENT
??_C@_0BF@MBCBKKEM@quit?5campaign?5events@ DB 'quit campaign events', 00H ; `string'
CONST	ENDS
;	COMDAT ??_C@_0BE@HEEHLODO@quit?5mission?5events@
CONST	SEGMENT
??_C@_0BE@HEEHLODO@quit?5mission?5events@ DB 'quit mission events', 00H ; `string'
CONST	ENDS
;	COMDAT ??_C@_0EP@NKLNNBKK@c?3?2users?2nhv90?2projects?2eech?2ap@
CONST	SEGMENT
??_C@_0EP@NKLNNBKK@c?3?2users?2nhv90?2projects?2eech?2ap@ DB 'c:\users\nh'
	DB	'v90\projects\eech\aphavoc\source\ui_menu\ingame\campaign\camp'
	DB	'aign.c', 00H				; `string'
CONST	ENDS
;	COMDAT ??_C@_0BF@JNEDHLHL@ingame?5screen?5events@
CONST	SEGMENT
??_C@_0BF@JNEDHLHL@ingame?5screen?5events@ DB 'ingame screen events', 00H ; `string'
CONST	ENDS
; Function compile flags: /Odtp /ZI
; File c:\users\nhv90\projects\eech\aphavoc\source\ui_menu\ingame\campaign\campaign.c
;	COMDAT ?notify_campaign_accept_quit_campaign_button@@YGXPAUUI_OBJECT@@PAX@Z
_TEXT	SEGMENT
_obj$ = 8						; size = 4
_arg$ = 12						; size = 4
?notify_campaign_accept_quit_campaign_button@@YGXPAUUI_OBJECT@@PAX@Z PROC ; notify_campaign_accept_quit_campaign_button, COMDAT

; 499  : {

  00000	55		 push	 ebp
  00001	8b ec		 mov	 ebp, esp
  00003	83 ec 40	 sub	 esp, 64			; 00000040H
  00006	53		 push	 ebx
  00007	56		 push	 esi
  00008	57		 push	 edi

; 500  : 	campaign_accept_quit_campaign (NULL);

  00009	6a 00		 push	 0
  0000b	e8 00 00 00 00	 call	 ?campaign_accept_quit_campaign@@YGXPAUEVENT@@@Z ; campaign_accept_quit_campaign

; 501  : }

  00010	5f		 pop	 edi
  00011	5e		 pop	 esi
  00012	5b		 pop	 ebx
  00013	8b e5		 mov	 esp, ebp
  00015	5d		 pop	 ebp
  00016	c2 08 00	 ret	 8
?notify_campaign_accept_quit_campaign_button@@YGXPAUUI_OBJECT@@PAX@Z ENDP ; notify_campaign_accept_quit_campaign_button
_TEXT	ENDS
; Function compile flags: /Odtp /ZI
; File c:\users\nhv90\projects\eech\aphavoc\source\ui_menu\ingame\campaign\campaign.c
;	COMDAT ?campaign_accept_quit_campaign@@YGXPAUEVENT@@@Z
_TEXT	SEGMENT
_ev$ = 8						; size = 4
?campaign_accept_quit_campaign@@YGXPAUEVENT@@@Z PROC	; campaign_accept_quit_campaign, COMDAT

; 475  : {

  00000	55		 push	 ebp
  00001	8b ec		 mov	 ebp, esp
  00003	83 ec 40	 sub	 esp, 64			; 00000040H
  00006	53		 push	 ebx
  00007	56		 push	 esi
  00008	57		 push	 edi

; 476  :   	if (command_line_ui_sounds_muted)

  00009	83 3d 00 00 00
	00 00		 cmp	 DWORD PTR ?command_line_ui_sounds_muted@@3HA, 0 ; command_line_ui_sounds_muted
  00010	74 0a		 je	 SHORT $LN2@campaign_a

; 477  :   		ui_sounds_muted = FALSE; //ataribaby 29/12/2008 for muted UI sounds 

  00012	c7 05 00 00 00
	00 00 00 00 00	 mov	 DWORD PTR ?ui_sounds_muted@@3HA, 0 ; ui_sounds_muted
$LN2@campaign_a:

; 478  :   
; 479  : 	campaign_cancel_quit_campaign (ev);

  0001c	8b 45 08	 mov	 eax, DWORD PTR _ev$[ebp]
  0001f	50		 push	 eax
  00020	e8 00 00 00 00	 call	 ?campaign_cancel_quit_campaign@@YGXPAUEVENT@@@Z ; campaign_cancel_quit_campaign

; 480  : 
; 481  : 	//
; 482  : 	// Make all pages not drawable, otherwise last page will be added to history next time a game is started.
; 483  : 	//
; 484  : 	
; 485  : 	display_campaign_page ((campaign_pages) -1, ENTITY_INDEX_DONT_CARE, FALSE);

  00025	6a 00		 push	 0
  00027	6a ff		 push	 -1
  00029	6a ff		 push	 -1
  0002b	e8 00 00 00 00	 call	 ?display_campaign_page@@YGXW4CAMPAIGN_PAGES@@HH@Z ; display_campaign_page

; 486  : 
; 487  : 	//
; 488  : 	// Quit
; 489  : 	//
; 490  : 	
; 491  : 	player_quit_session (NULL);

  00030	6a 00		 push	 0
  00032	e8 00 00 00 00	 call	 ?player_quit_session@@YGXPAUEVENT@@@Z ; player_quit_session

; 492  : }

  00037	5f		 pop	 edi
  00038	5e		 pop	 esi
  00039	5b		 pop	 ebx
  0003a	8b e5		 mov	 esp, ebp
  0003c	5d		 pop	 ebp
  0003d	c2 04 00	 ret	 4
?campaign_accept_quit_campaign@@YGXPAUEVENT@@@Z ENDP	; campaign_accept_quit_campaign
_TEXT	ENDS
; Function compile flags: /Odtp /ZI
; File c:\users\nhv90\projects\eech\aphavoc\source\ui_menu\ingame\campaign\campaign.c
;	COMDAT ?notify_campaign_cancel_quit_campaign_button@@YGXPAUUI_OBJECT@@PAX@Z
_TEXT	SEGMENT
_obj$ = 8						; size = 4
_arg$ = 12						; size = 4
?notify_campaign_cancel_quit_campaign_button@@YGXPAUUI_OBJECT@@PAX@Z PROC ; notify_campaign_cancel_quit_campaign_button, COMDAT

; 466  : {

  00000	55		 push	 ebp
  00001	8b ec		 mov	 ebp, esp
  00003	83 ec 40	 sub	 esp, 64			; 00000040H
  00006	53		 push	 ebx
  00007	56		 push	 esi
  00008	57		 push	 edi

; 467  : 	campaign_cancel_quit_campaign (NULL);

  00009	6a 00		 push	 0
  0000b	e8 00 00 00 00	 call	 ?campaign_cancel_quit_campaign@@YGXPAUEVENT@@@Z ; campaign_cancel_quit_campaign

; 468  : }

  00010	5f		 pop	 edi
  00011	5e		 pop	 esi
  00012	5b		 pop	 ebx
  00013	8b e5		 mov	 esp, ebp
  00015	5d		 pop	 ebp
  00016	c2 08 00	 ret	 8
?notify_campaign_cancel_quit_campaign_button@@YGXPAUUI_OBJECT@@PAX@Z ENDP ; notify_campaign_cancel_quit_campaign_button
_TEXT	ENDS
; Function compile flags: /Odtp /ZI
; File c:\users\nhv90\projects\eech\aphavoc\source\ui_menu\ingame\campaign\campaign.c
;	COMDAT ?campaign_cancel_quit_campaign@@YGXPAUEVENT@@@Z
_TEXT	SEGMENT
_ev$ = 8						; size = 4
?campaign_cancel_quit_campaign@@YGXPAUEVENT@@@Z PROC	; campaign_cancel_quit_campaign, COMDAT

; 451  : {

  00000	55		 push	 ebp
  00001	8b ec		 mov	 ebp, esp
  00003	83 ec 40	 sub	 esp, 64			; 00000040H
  00006	53		 push	 ebx
  00007	56		 push	 esi
  00008	57		 push	 edi

; 452  : 	set_ui_object_drawable (campaign_full_screen_mask_area, FALSE);

  00009	6a 00		 push	 0
  0000b	a1 00 00 00 00	 mov	 eax, DWORD PTR ?campaign_full_screen_mask_area@@3PAUUI_OBJECT@@A
  00010	50		 push	 eax
  00011	8b 0d 00 00 00
	00		 mov	 ecx, DWORD PTR ?campaign_full_screen_mask_area@@3PAUUI_OBJECT@@A
  00017	8b 11		 mov	 edx, DWORD PTR [ecx]
  00019	8b 04 95 00 00
	00 00		 mov	 eax, DWORD PTR ?fn_set_ui_object_drawable@@3PAP6GXPAUUI_OBJECT@@H@ZA[edx*4]
  00020	ff d0		 call	 eax

; 453  : 
; 454  : 	set_ui_object_drawable (campaign_dialog_area, FALSE);

  00022	6a 00		 push	 0
  00024	a1 00 00 00 00	 mov	 eax, DWORD PTR ?campaign_dialog_area@@3PAUUI_OBJECT@@A
  00029	50		 push	 eax
  0002a	8b 0d 00 00 00
	00		 mov	 ecx, DWORD PTR ?campaign_dialog_area@@3PAUUI_OBJECT@@A
  00030	8b 11		 mov	 edx, DWORD PTR [ecx]
  00032	8b 04 95 00 00
	00 00		 mov	 eax, DWORD PTR ?fn_set_ui_object_drawable@@3PAP6GXPAUUI_OBJECT@@H@ZA[edx*4]
  00039	ff d0		 call	 eax

; 455  : 
; 456  : 	set_ui_object_drawable (campaign_quit_campaign_area, FALSE);

  0003b	6a 00		 push	 0
  0003d	a1 00 00 00 00	 mov	 eax, DWORD PTR ?campaign_quit_campaign_area@@3PAUUI_OBJECT@@A
  00042	50		 push	 eax
  00043	8b 0d 00 00 00
	00		 mov	 ecx, DWORD PTR ?campaign_quit_campaign_area@@3PAUUI_OBJECT@@A
  00049	8b 11		 mov	 edx, DWORD PTR [ecx]
  0004b	8b 04 95 00 00
	00 00		 mov	 eax, DWORD PTR ?fn_set_ui_object_drawable@@3PAP6GXPAUUI_OBJECT@@H@ZA[edx*4]
  00052	ff d0		 call	 eax

; 457  : 
; 458  : 	pop_event (quit_campaign_set_events);

  00054	68 00 00 00 00	 push	 OFFSET ?quit_campaign_set_events@@YGXXZ ; quit_campaign_set_events
  00059	e8 00 00 00 00	 call	 ?pop_event@@YGXP6GXXZ@Z	; pop_event

; 459  : }

  0005e	5f		 pop	 edi
  0005f	5e		 pop	 esi
  00060	5b		 pop	 ebx
  00061	8b e5		 mov	 esp, ebp
  00063	5d		 pop	 ebp
  00064	c2 04 00	 ret	 4
?campaign_cancel_quit_campaign@@YGXPAUEVENT@@@Z ENDP	; campaign_cancel_quit_campaign
_TEXT	ENDS
; Function compile flags: /Odtp /ZI
; File c:\users\nhv90\projects\eech\aphavoc\source\ui_menu\ingame\campaign\campaign.c
;	COMDAT ?notify_campaign_accept_quit_mission_button@@YGXPAUUI_OBJECT@@PAX@Z
_TEXT	SEGMENT
_obj$ = 8						; size = 4
_arg$ = 12						; size = 4
?notify_campaign_accept_quit_mission_button@@YGXPAUUI_OBJECT@@PAX@Z PROC ; notify_campaign_accept_quit_mission_button, COMDAT

; 396  : {

  00000	55		 push	 ebp
  00001	8b ec		 mov	 ebp, esp
  00003	83 ec 40	 sub	 esp, 64			; 00000040H
  00006	53		 push	 ebx
  00007	56		 push	 esi
  00008	57		 push	 edi

; 397  : 	campaign_accept_quit_mission (NULL);

  00009	6a 00		 push	 0
  0000b	e8 00 00 00 00	 call	 ?campaign_accept_quit_mission@@YGXPAUEVENT@@@Z ; campaign_accept_quit_mission

; 398  : }

  00010	5f		 pop	 edi
  00011	5e		 pop	 esi
  00012	5b		 pop	 ebx
  00013	8b e5		 mov	 esp, ebp
  00015	5d		 pop	 ebp
  00016	c2 08 00	 ret	 8
?notify_campaign_accept_quit_mission_button@@YGXPAUUI_OBJECT@@PAX@Z ENDP ; notify_campaign_accept_quit_mission_button
_TEXT	ENDS
; Function compile flags: /Odtp /ZI
; File c:\users\nhv90\projects\eech\aphavoc\source\ui_menu\ingame\campaign\campaign.c
;	COMDAT ?campaign_accept_quit_mission@@YGXPAUEVENT@@@Z
_TEXT	SEGMENT
tv85 = -76						; size = 4
tv78 = -72						; size = 4
_task$ = -4						; size = 4
_ev$ = 8						; size = 4
?campaign_accept_quit_mission@@YGXPAUEVENT@@@Z PROC	; campaign_accept_quit_mission, COMDAT

; 361  : {

  00000	55		 push	 ebp
  00001	8b ec		 mov	 ebp, esp
  00003	83 ec 4c	 sub	 esp, 76			; 0000004cH
  00006	53		 push	 ebx
  00007	56		 push	 esi
  00008	57		 push	 edi

; 362  : 	entity
; 363  : 		*task;
; 364  : 
; 365  : 	campaign_cancel_quit_mission (ev);

  00009	8b 45 08	 mov	 eax, DWORD PTR _ev$[ebp]
  0000c	50		 push	 eax
  0000d	e8 00 00 00 00	 call	 ?campaign_cancel_quit_mission@@YGXPAUEVENT@@@Z ; campaign_cancel_quit_mission

; 366  : 
; 367  : 	if (get_gunship_entity ())

  00012	83 3d 00 00 00
	00 00		 cmp	 DWORD PTR ?gunship_entity@@3PAUENTITY@@A, 0 ; gunship_entity
  00019	0f 84 be 00 00
	00		 je	 $LN1@campaign_a

; 368  : 	{
; 369  : 		pop_event (ingame_screen_set_events);

  0001f	68 00 00 00 00	 push	 OFFSET ?ingame_screen_set_events@@YGXXZ ; ingame_screen_set_events
  00024	e8 00 00 00 00	 call	 ?pop_event@@YGXP6GXXZ@Z	; pop_event

; 370  : 	
; 371  : 		set_gunship_entity (NULL);

  00029	6a 00		 push	 0
  0002b	e8 00 00 00 00	 call	 ?set_gunship_entity@@YGXPAUENTITY@@@Z ; set_gunship_entity

; 372  : 	
; 373  : 		push_event (ingame_screen_set_events, "ingame screen events");

  00030	68 00 00 00 00	 push	 OFFSET ??_C@_0BF@JNEDHLHL@ingame?5screen?5events@
  00035	68 00 00 00 00	 push	 OFFSET ?ingame_screen_set_events@@YGXXZ ; ingame_screen_set_events
  0003a	e8 00 00 00 00	 call	 ?push_event@@YGXP6GXXZPBD@Z ; push_event

; 374  : 
; 375  : 		//
; 376  : 		// Force Debrief Page
; 377  : 		//
; 378  : 		
; 379  : 		task = get_player_task (NULL);

  0003f	6a 00		 push	 0
  00041	e8 00 00 00 00	 call	 ?get_player_task@@YGPAUENTITY@@PAU1@@Z ; get_player_task
  00046	89 45 fc	 mov	 DWORD PTR _task$[ebp], eax

; 380  : 
; 381  : 		if (task)

  00049	83 7d fc 00	 cmp	 DWORD PTR _task$[ebp], 0
  0004d	0f 84 8a 00 00
	00		 je	 $LN1@campaign_a

; 382  : 		{
; 383  : 			if (get_local_entity_int_value (task, INT_TYPE_TASK_STATE) == TASK_STATE_COMPLETED)

  00053	83 7d fc 00	 cmp	 DWORD PTR _task$[ebp], 0
  00057	74 0a		 je	 SHORT $LN6@campaign_a
  00059	8b 45 fc	 mov	 eax, DWORD PTR _task$[ebp]
  0005c	8b 08		 mov	 ecx, DWORD PTR [eax]
  0005e	89 4d b8	 mov	 DWORD PTR tv78[ebp], ecx
  00061	eb 1d		 jmp	 SHORT $LN7@campaign_a
$LN6@campaign_a:
  00063	68 7f 01 00 00	 push	 383			; 0000017fH
  00068	68 00 00 00 00	 push	 OFFSET ??_C@_0EP@NKLNNBKK@c?3?2users?2nhv90?2projects?2eech?2ap@
  0006d	8b 15 00 00 00
	00		 mov	 edx, DWORD PTR ?null_entity_pointer_message@@3PBDB ; null_entity_pointer_message
  00073	52		 push	 edx
  00074	e8 00 00 00 00	 call	 ?process_assert@@YGXPBD0H@Z ; process_assert
  00079	c7 45 b8 00 00
	00 00		 mov	 DWORD PTR tv78[ebp], 0
$LN7@campaign_a:
  00080	b8 01 00 00 00	 mov	 eax, 1
  00085	85 c0		 test	 eax, eax
  00087	74 09		 je	 SHORT $LN8@campaign_a
  00089	c7 45 b4 e3 00
	00 00		 mov	 DWORD PTR tv85[ebp], 227 ; 000000e3H
  00090	eb 1d		 jmp	 SHORT $LN9@campaign_a
$LN8@campaign_a:
  00092	68 7f 01 00 00	 push	 383			; 0000017fH
  00097	68 00 00 00 00	 push	 OFFSET ??_C@_0EP@NKLNNBKK@c?3?2users?2nhv90?2projects?2eech?2ap@
  0009c	8b 0d 00 00 00
	00		 mov	 ecx, DWORD PTR ?overload_invalid_int_type_message@@3PBDB ; overload_invalid_int_type_message
  000a2	51		 push	 ecx
  000a3	e8 00 00 00 00	 call	 ?process_assert@@YGXPBD0H@Z ; process_assert
  000a8	c7 45 b4 00 00
	00 00		 mov	 DWORD PTR tv85[ebp], 0
$LN9@campaign_a:
  000af	68 e3 00 00 00	 push	 227			; 000000e3H
  000b4	8b 55 fc	 mov	 edx, DWORD PTR _task$[ebp]
  000b7	52		 push	 edx
  000b8	69 45 b8 5c 04
	00 00		 imul	 eax, DWORD PTR tv78[ebp], 1116
  000bf	8b 4d b4	 mov	 ecx, DWORD PTR tv85[ebp]
  000c2	8b 94 88 00 00
	00 00		 mov	 edx, DWORD PTR ?fn_get_local_entity_int_value@@3PAY0BBH@P6GHPAUENTITY@@W4INT_TYPES@@@ZA[eax+ecx*4]
  000c9	ff d2		 call	 edx
  000cb	83 f8 02	 cmp	 eax, 2
  000ce	75 0d		 jne	 SHORT $LN1@campaign_a

; 384  : 			{
; 385  : 				show_debriefing_page (task, TRUE, FALSE);

  000d0	6a 00		 push	 0
  000d2	6a 01		 push	 1
  000d4	8b 45 fc	 mov	 eax, DWORD PTR _task$[ebp]
  000d7	50		 push	 eax
  000d8	e8 00 00 00 00	 call	 ?show_debriefing_page@@YGXPAUENTITY@@HH@Z ; show_debriefing_page
$LN1@campaign_a:

; 386  : 			}
; 387  : 		}
; 388  : 	}
; 389  : }

  000dd	5f		 pop	 edi
  000de	5e		 pop	 esi
  000df	5b		 pop	 ebx
  000e0	8b e5		 mov	 esp, ebp
  000e2	5d		 pop	 ebp
  000e3	c2 04 00	 ret	 4
?campaign_accept_quit_mission@@YGXPAUEVENT@@@Z ENDP	; campaign_accept_quit_mission
_TEXT	ENDS
; Function compile flags: /Odtp /ZI
; File c:\users\nhv90\projects\eech\aphavoc\source\ui_menu\ingame\campaign\campaign.c
;	COMDAT ?notify_campaign_cancel_quit_mission_button@@YGXPAUUI_OBJECT@@PAX@Z
_TEXT	SEGMENT
_obj$ = 8						; size = 4
_arg$ = 12						; size = 4
?notify_campaign_cancel_quit_mission_button@@YGXPAUUI_OBJECT@@PAX@Z PROC ; notify_campaign_cancel_quit_mission_button, COMDAT

; 352  : {

  00000	55		 push	 ebp
  00001	8b ec		 mov	 ebp, esp
  00003	83 ec 40	 sub	 esp, 64			; 00000040H
  00006	53		 push	 ebx
  00007	56		 push	 esi
  00008	57		 push	 edi

; 353  : 	campaign_cancel_quit_mission (NULL);

  00009	6a 00		 push	 0
  0000b	e8 00 00 00 00	 call	 ?campaign_cancel_quit_mission@@YGXPAUEVENT@@@Z ; campaign_cancel_quit_mission

; 354  : }

  00010	5f		 pop	 edi
  00011	5e		 pop	 esi
  00012	5b		 pop	 ebx
  00013	8b e5		 mov	 esp, ebp
  00015	5d		 pop	 ebp
  00016	c2 08 00	 ret	 8
?notify_campaign_cancel_quit_mission_button@@YGXPAUUI_OBJECT@@PAX@Z ENDP ; notify_campaign_cancel_quit_mission_button
_TEXT	ENDS
; Function compile flags: /Odtp /ZI
; File c:\users\nhv90\projects\eech\aphavoc\source\ui_menu\ingame\campaign\campaign.c
;	COMDAT ?campaign_cancel_quit_mission@@YGXPAUEVENT@@@Z
_TEXT	SEGMENT
_ev$ = 8						; size = 4
?campaign_cancel_quit_mission@@YGXPAUEVENT@@@Z PROC	; campaign_cancel_quit_mission, COMDAT

; 337  : {

  00000	55		 push	 ebp
  00001	8b ec		 mov	 ebp, esp
  00003	83 ec 40	 sub	 esp, 64			; 00000040H
  00006	53		 push	 ebx
  00007	56		 push	 esi
  00008	57		 push	 edi

; 338  : 	set_ui_object_drawable (campaign_full_screen_mask_area, FALSE);

  00009	6a 00		 push	 0
  0000b	a1 00 00 00 00	 mov	 eax, DWORD PTR ?campaign_full_screen_mask_area@@3PAUUI_OBJECT@@A
  00010	50		 push	 eax
  00011	8b 0d 00 00 00
	00		 mov	 ecx, DWORD PTR ?campaign_full_screen_mask_area@@3PAUUI_OBJECT@@A
  00017	8b 11		 mov	 edx, DWORD PTR [ecx]
  00019	8b 04 95 00 00
	00 00		 mov	 eax, DWORD PTR ?fn_set_ui_object_drawable@@3PAP6GXPAUUI_OBJECT@@H@ZA[edx*4]
  00020	ff d0		 call	 eax

; 339  : 
; 340  : 	set_ui_object_drawable (campaign_dialog_area, FALSE);

  00022	6a 00		 push	 0
  00024	a1 00 00 00 00	 mov	 eax, DWORD PTR ?campaign_dialog_area@@3PAUUI_OBJECT@@A
  00029	50		 push	 eax
  0002a	8b 0d 00 00 00
	00		 mov	 ecx, DWORD PTR ?campaign_dialog_area@@3PAUUI_OBJECT@@A
  00030	8b 11		 mov	 edx, DWORD PTR [ecx]
  00032	8b 04 95 00 00
	00 00		 mov	 eax, DWORD PTR ?fn_set_ui_object_drawable@@3PAP6GXPAUUI_OBJECT@@H@ZA[edx*4]
  00039	ff d0		 call	 eax

; 341  : 
; 342  : 	set_ui_object_drawable (campaign_quit_mission_area, FALSE);

  0003b	6a 00		 push	 0
  0003d	a1 00 00 00 00	 mov	 eax, DWORD PTR ?campaign_quit_mission_area@@3PAUUI_OBJECT@@A
  00042	50		 push	 eax
  00043	8b 0d 00 00 00
	00		 mov	 ecx, DWORD PTR ?campaign_quit_mission_area@@3PAUUI_OBJECT@@A
  00049	8b 11		 mov	 edx, DWORD PTR [ecx]
  0004b	8b 04 95 00 00
	00 00		 mov	 eax, DWORD PTR ?fn_set_ui_object_drawable@@3PAP6GXPAUUI_OBJECT@@H@ZA[edx*4]
  00052	ff d0		 call	 eax

; 343  : 
; 344  : 	pop_event (quit_mission_set_events);

  00054	68 00 00 00 00	 push	 OFFSET ?quit_mission_set_events@@YGXXZ ; quit_mission_set_events
  00059	e8 00 00 00 00	 call	 ?pop_event@@YGXP6GXXZ@Z	; pop_event

; 345  : }

  0005e	5f		 pop	 edi
  0005f	5e		 pop	 esi
  00060	5b		 pop	 ebx
  00061	8b e5		 mov	 esp, ebp
  00063	5d		 pop	 ebp
  00064	c2 04 00	 ret	 4
?campaign_cancel_quit_mission@@YGXPAUEVENT@@@Z ENDP	; campaign_cancel_quit_mission
_TEXT	ENDS
; Function compile flags: /Odtp /ZI
; File c:\users\nhv90\projects\eech\aphavoc\source\ui_menu\ingame\campaign\campaign.c
;	COMDAT ?notify_campaign_complete_button@@YGXPAUUI_OBJECT@@PAX@Z
_TEXT	SEGMENT
_obj$ = 8						; size = 4
_arg$ = 12						; size = 4
?notify_campaign_complete_button@@YGXPAUUI_OBJECT@@PAX@Z PROC ; notify_campaign_complete_button, COMDAT

; 318  : {

  00000	55		 push	 ebp
  00001	8b ec		 mov	 ebp, esp
  00003	83 ec 40	 sub	 esp, 64			; 00000040H
  00006	53		 push	 ebx
  00007	56		 push	 esi
  00008	57		 push	 edi

; 319  : 	set_ui_object_drawable (campaign_full_screen_mask_area, FALSE);

  00009	6a 00		 push	 0
  0000b	a1 00 00 00 00	 mov	 eax, DWORD PTR ?campaign_full_screen_mask_area@@3PAUUI_OBJECT@@A
  00010	50		 push	 eax
  00011	8b 0d 00 00 00
	00		 mov	 ecx, DWORD PTR ?campaign_full_screen_mask_area@@3PAUUI_OBJECT@@A
  00017	8b 11		 mov	 edx, DWORD PTR [ecx]
  00019	8b 04 95 00 00
	00 00		 mov	 eax, DWORD PTR ?fn_set_ui_object_drawable@@3PAP6GXPAUUI_OBJECT@@H@ZA[edx*4]
  00020	ff d0		 call	 eax

; 320  : 
; 321  : 	set_ui_object_drawable (campaign_dialog_area, FALSE);

  00022	6a 00		 push	 0
  00024	a1 00 00 00 00	 mov	 eax, DWORD PTR ?campaign_dialog_area@@3PAUUI_OBJECT@@A
  00029	50		 push	 eax
  0002a	8b 0d 00 00 00
	00		 mov	 ecx, DWORD PTR ?campaign_dialog_area@@3PAUUI_OBJECT@@A
  00030	8b 11		 mov	 edx, DWORD PTR [ecx]
  00032	8b 04 95 00 00
	00 00		 mov	 eax, DWORD PTR ?fn_set_ui_object_drawable@@3PAP6GXPAUUI_OBJECT@@H@ZA[edx*4]
  00039	ff d0		 call	 eax

; 322  : 
; 323  : 	set_ui_object_drawable (campaign_complete_area, FALSE);

  0003b	6a 00		 push	 0
  0003d	a1 00 00 00 00	 mov	 eax, DWORD PTR ?campaign_complete_area@@3PAUUI_OBJECT@@A
  00042	50		 push	 eax
  00043	8b 0d 00 00 00
	00		 mov	 ecx, DWORD PTR ?campaign_complete_area@@3PAUUI_OBJECT@@A
  00049	8b 11		 mov	 edx, DWORD PTR [ecx]
  0004b	8b 04 95 00 00
	00 00		 mov	 eax, DWORD PTR ?fn_set_ui_object_drawable@@3PAP6GXPAUUI_OBJECT@@H@ZA[edx*4]
  00052	ff d0		 call	 eax

; 324  : }

  00054	5f		 pop	 edi
  00055	5e		 pop	 esi
  00056	5b		 pop	 ebx
  00057	8b e5		 mov	 esp, ebp
  00059	5d		 pop	 ebp
  0005a	c2 08 00	 ret	 8
?notify_campaign_complete_button@@YGXPAUUI_OBJECT@@PAX@Z ENDP ; notify_campaign_complete_button
_TEXT	ENDS
; Function compile flags: /Odtp /ZI
; File c:\users\nhv90\projects\eech\aphavoc\source\ui_menu\ingame\campaign\campaign.c
;	COMDAT ?campaign_screen_draw_function@@YGXPAUUI_OBJECT@@PAX@Z
_TEXT	SEGMENT
_obj$ = 8						; size = 4
_arg$ = 12						; size = 4
?campaign_screen_draw_function@@YGXPAUUI_OBJECT@@PAX@Z PROC ; campaign_screen_draw_function, COMDAT

; 198  : {

  00000	55		 push	 ebp
  00001	8b ec		 mov	 ebp, esp
  00003	83 ec 40	 sub	 esp, 64			; 00000040H
  00006	53		 push	 ebx
  00007	56		 push	 esi
  00008	57		 push	 edi

; 199  : 	//
; 200  : 	// Initialise
; 201  : 	//
; 202  : 
; 203  : 	set_last_drawn_map_object (NULL);

  00009	6a 00		 push	 0
  0000b	e8 00 00 00 00	 call	 ?set_last_drawn_map_object@@YGXPAUUI_OBJECT@@@Z ; set_last_drawn_map_object

; 204  : 
; 205  : 	//
; 206  : 	// General
; 207  : 	//
; 208  : 	
; 209  : 	ingame_screen_draw_function (obj, arg);

  00010	8b 45 0c	 mov	 eax, DWORD PTR _arg$[ebp]
  00013	50		 push	 eax
  00014	8b 4d 08	 mov	 ecx, DWORD PTR _obj$[ebp]
  00017	51		 push	 ecx
  00018	e8 00 00 00 00	 call	 ?ingame_screen_draw_function@@YGXPAUUI_OBJECT@@PAX@Z ; ingame_screen_draw_function

; 210  : }

  0001d	5f		 pop	 edi
  0001e	5e		 pop	 esi
  0001f	5b		 pop	 ebx
  00020	8b e5		 mov	 esp, ebp
  00022	5d		 pop	 ebp
  00023	c2 08 00	 ret	 8
?campaign_screen_draw_function@@YGXPAUUI_OBJECT@@PAX@Z ENDP ; campaign_screen_draw_function
_TEXT	ENDS
; Function compile flags: /Odtp /ZI
; File c:\users\nhv90\projects\eech\aphavoc\source\ui_menu\ingame\campaign\campaign.c
;	COMDAT ?notify_campaign_screen_entered@@YGXPAUUI_OBJECT@@PAX@Z
_TEXT	SEGMENT
_obj$ = 8						; size = 4
_arg$ = 12						; size = 4
?notify_campaign_screen_entered@@YGXPAUUI_OBJECT@@PAX@Z PROC ; notify_campaign_screen_entered, COMDAT

; 175  : {

  00000	55		 push	 ebp
  00001	8b ec		 mov	 ebp, esp
  00003	83 ec 40	 sub	 esp, 64			; 00000040H
  00006	53		 push	 ebx
  00007	56		 push	 esi
  00008	57		 push	 edi

; 176  :   	if (command_line_ui_sounds_muted)

  00009	83 3d 00 00 00
	00 00		 cmp	 DWORD PTR ?command_line_ui_sounds_muted@@3HA, 0 ; command_line_ui_sounds_muted
  00010	74 0a		 je	 SHORT $LN2@notify_cam

; 177  :   		ui_sounds_muted = TRUE; //ataribaby 29/12/2008 for muted UI sounds

  00012	c7 05 00 00 00
	00 01 00 00 00	 mov	 DWORD PTR ?ui_sounds_muted@@3HA, 1 ; ui_sounds_muted
$LN2@notify_cam:

; 178  :      
; 179  : 	if (get_ui_object_drawable (obj))

  0001c	8b 45 08	 mov	 eax, DWORD PTR _obj$[ebp]
  0001f	50		 push	 eax
  00020	8b 4d 08	 mov	 ecx, DWORD PTR _obj$[ebp]
  00023	8b 11		 mov	 edx, DWORD PTR [ecx]
  00025	8b 04 95 00 00
	00 00		 mov	 eax, DWORD PTR ?fn_get_ui_object_drawable@@3PAP6GHPAUUI_OBJECT@@@ZA[edx*4]
  0002c	ff d0		 call	 eax
  0002e	85 c0		 test	 eax, eax
  00030	74 07		 je	 SHORT $LN3@notify_cam

; 180  : 	{
; 181  : 		//
; 182  : 		// Screen has just been pushed
; 183  : 		//
; 184  : 
; 185  : 		set_ui_mouse_over_entity (NULL);

  00032	6a 00		 push	 0
  00034	e8 00 00 00 00	 call	 ?set_ui_mouse_over_entity@@YGXPAUENTITY@@@Z ; set_ui_mouse_over_entity
$LN3@notify_cam:

; 186  : 	}
; 187  : 
; 188  : 	update_campaign_screen ();

  00039	e8 00 00 00 00	 call	 ?update_campaign_screen@@YGXXZ ; update_campaign_screen

; 189  : 
; 190  : 	set_mouse_graphic_on ();

  0003e	e8 00 00 00 00	 call	 ?set_mouse_graphic_on@@YGXXZ ; set_mouse_graphic_on

; 191  : }

  00043	5f		 pop	 edi
  00044	5e		 pop	 esi
  00045	5b		 pop	 ebx
  00046	8b e5		 mov	 esp, ebp
  00048	5d		 pop	 ebp
  00049	c2 08 00	 ret	 8
?notify_campaign_screen_entered@@YGXPAUUI_OBJECT@@PAX@Z ENDP ; notify_campaign_screen_entered
_TEXT	ENDS
; Function compile flags: /Odtp /ZI
; File c:\users\nhv90\projects\eech\aphavoc\source\ui_menu\ingame\campaign\campaign.c
;	COMDAT ?quit_campaign_set_events@@YGXXZ
_TEXT	SEGMENT
?quit_campaign_set_events@@YGXXZ PROC			; quit_campaign_set_events, COMDAT

; 508  : {

  00000	55		 push	 ebp
  00001	8b ec		 mov	 ebp, esp
  00003	83 ec 40	 sub	 esp, 64			; 00000040H
  00006	53		 push	 ebx
  00007	56		 push	 esi
  00008	57		 push	 edi

; 509  : 	set_event (DIK_S, MODIFIER_NONE, KEY_STATE_DOWN, campaign_accept_quit_campaign);

  00009	68 00 00 00 00	 push	 OFFSET ?campaign_accept_quit_campaign@@YGXPAUEVENT@@@Z ; campaign_accept_quit_campaign
  0000e	6a 02		 push	 2
  00010	6a 00		 push	 0
  00012	6a 1f		 push	 31			; 0000001fH
  00014	e8 00 00 00 00	 call	 ?set_event@@YGXHHHP6GXPAUEVENT@@@Z@Z ; set_event

; 510  : 	set_event (DIK_Y, MODIFIER_NONE, KEY_STATE_DOWN, campaign_accept_quit_campaign);

  00019	68 00 00 00 00	 push	 OFFSET ?campaign_accept_quit_campaign@@YGXPAUEVENT@@@Z ; campaign_accept_quit_campaign
  0001e	6a 02		 push	 2
  00020	6a 00		 push	 0
  00022	6a 15		 push	 21			; 00000015H
  00024	e8 00 00 00 00	 call	 ?set_event@@YGXHHHP6GXPAUEVENT@@@Z@Z ; set_event

; 511  : 	set_event (DIK_J, MODIFIER_NONE, KEY_STATE_DOWN, campaign_accept_quit_campaign);

  00029	68 00 00 00 00	 push	 OFFSET ?campaign_accept_quit_campaign@@YGXPAUEVENT@@@Z ; campaign_accept_quit_campaign
  0002e	6a 02		 push	 2
  00030	6a 00		 push	 0
  00032	6a 24		 push	 36			; 00000024H
  00034	e8 00 00 00 00	 call	 ?set_event@@YGXHHHP6GXPAUEVENT@@@Z@Z ; set_event

; 512  : 	set_event (DIK_O, MODIFIER_NONE, KEY_STATE_DOWN, campaign_accept_quit_campaign);

  00039	68 00 00 00 00	 push	 OFFSET ?campaign_accept_quit_campaign@@YGXPAUEVENT@@@Z ; campaign_accept_quit_campaign
  0003e	6a 02		 push	 2
  00040	6a 00		 push	 0
  00042	6a 18		 push	 24			; 00000018H
  00044	e8 00 00 00 00	 call	 ?set_event@@YGXHHHP6GXPAUEVENT@@@Z@Z ; set_event

; 513  : 	set_event (DIK_T, MODIFIER_NONE, KEY_STATE_DOWN, campaign_accept_quit_campaign);

  00049	68 00 00 00 00	 push	 OFFSET ?campaign_accept_quit_campaign@@YGXPAUEVENT@@@Z ; campaign_accept_quit_campaign
  0004e	6a 02		 push	 2
  00050	6a 00		 push	 0
  00052	6a 14		 push	 20			; 00000014H
  00054	e8 00 00 00 00	 call	 ?set_event@@YGXHHHP6GXPAUEVENT@@@Z@Z ; set_event

; 514  : 
; 515  : 	set_event (DIK_N, MODIFIER_NONE, KEY_STATE_DOWN, campaign_cancel_quit_campaign);

  00059	68 00 00 00 00	 push	 OFFSET ?campaign_cancel_quit_campaign@@YGXPAUEVENT@@@Z ; campaign_cancel_quit_campaign
  0005e	6a 02		 push	 2
  00060	6a 00		 push	 0
  00062	6a 31		 push	 49			; 00000031H
  00064	e8 00 00 00 00	 call	 ?set_event@@YGXHHHP6GXPAUEVENT@@@Z@Z ; set_event

; 516  : 
; 517  : 	set_event (DIK_X, MODIFIER_LEFT_CONTROL, KEY_STATE_UP, exit_apache_havoc);

  00069	68 00 00 00 00	 push	 OFFSET ?exit_apache_havoc@@YGXPAUEVENT@@@Z ; exit_apache_havoc
  0006e	6a 01		 push	 1
  00070	6a 02		 push	 2
  00072	6a 2d		 push	 45			; 0000002dH
  00074	e8 00 00 00 00	 call	 ?set_event@@YGXHHHP6GXPAUEVENT@@@Z@Z ; set_event

; 518  : 
; 519  : 	set_event (MOUSE_LEFT_BUTTON, MODIFIER_NONE, BUTTON_STATE_EITHER, ui_left_mouse_button);

  00079	68 00 00 00 00	 push	 OFFSET ?ui_left_mouse_button@@YGXPAUEVENT@@@Z ; ui_left_mouse_button
  0007e	6a 03		 push	 3
  00080	6a 00		 push	 0
  00082	68 00 01 00 00	 push	 256			; 00000100H
  00087	e8 00 00 00 00	 call	 ?set_event@@YGXHHHP6GXPAUEVENT@@@Z@Z ; set_event

; 520  : 	set_event (MOUSE_LEFT_BUTTON, MODIFIER_LEFT_SHIFT, BUTTON_STATE_EITHER, ui_left_mouse_button);

  0008c	68 00 00 00 00	 push	 OFFSET ?ui_left_mouse_button@@YGXPAUEVENT@@@Z ; ui_left_mouse_button
  00091	6a 03		 push	 3
  00093	6a 01		 push	 1
  00095	68 00 01 00 00	 push	 256			; 00000100H
  0009a	e8 00 00 00 00	 call	 ?set_event@@YGXHHHP6GXPAUEVENT@@@Z@Z ; set_event

; 521  : 
; 522  : 	set_event (MOUSE_RIGHT_BUTTON, MODIFIER_NONE, BUTTON_STATE_EITHER, ui_right_mouse_button);

  0009f	68 00 00 00 00	 push	 OFFSET ?ui_right_mouse_button@@YGXPAUEVENT@@@Z ; ui_right_mouse_button
  000a4	6a 03		 push	 3
  000a6	6a 00		 push	 0
  000a8	68 01 01 00 00	 push	 257			; 00000101H
  000ad	e8 00 00 00 00	 call	 ?set_event@@YGXHHHP6GXPAUEVENT@@@Z@Z ; set_event

; 523  : 	set_event (MOUSE_RIGHT_BUTTON, MODIFIER_LEFT_SHIFT, BUTTON_STATE_EITHER, ui_right_mouse_button);

  000b2	68 00 00 00 00	 push	 OFFSET ?ui_right_mouse_button@@YGXPAUEVENT@@@Z ; ui_right_mouse_button
  000b7	6a 03		 push	 3
  000b9	6a 01		 push	 1
  000bb	68 01 01 00 00	 push	 257			; 00000101H
  000c0	e8 00 00 00 00	 call	 ?set_event@@YGXHHHP6GXPAUEVENT@@@Z@Z ; set_event

; 524  : }

  000c5	5f		 pop	 edi
  000c6	5e		 pop	 esi
  000c7	5b		 pop	 ebx
  000c8	8b e5		 mov	 esp, ebp
  000ca	5d		 pop	 ebp
  000cb	c3		 ret	 0
?quit_campaign_set_events@@YGXXZ ENDP			; quit_campaign_set_events
_TEXT	ENDS
; Function compile flags: /Odtp /ZI
; File c:\users\nhv90\projects\eech\aphavoc\source\ui_menu\ingame\campaign\campaign.c
;	COMDAT ?quit_mission_set_events@@YGXXZ
_TEXT	SEGMENT
?quit_mission_set_events@@YGXXZ PROC			; quit_mission_set_events, COMDAT

; 405  : {

  00000	55		 push	 ebp
  00001	8b ec		 mov	 ebp, esp
  00003	83 ec 40	 sub	 esp, 64			; 00000040H
  00006	53		 push	 ebx
  00007	56		 push	 esi
  00008	57		 push	 edi

; 406  : 	set_event (DIK_S, MODIFIER_NONE, KEY_STATE_DOWN, campaign_accept_quit_mission);

  00009	68 00 00 00 00	 push	 OFFSET ?campaign_accept_quit_mission@@YGXPAUEVENT@@@Z ; campaign_accept_quit_mission
  0000e	6a 02		 push	 2
  00010	6a 00		 push	 0
  00012	6a 1f		 push	 31			; 0000001fH
  00014	e8 00 00 00 00	 call	 ?set_event@@YGXHHHP6GXPAUEVENT@@@Z@Z ; set_event

; 407  : 	set_event (DIK_Y, MODIFIER_NONE, KEY_STATE_DOWN, campaign_accept_quit_mission);

  00019	68 00 00 00 00	 push	 OFFSET ?campaign_accept_quit_mission@@YGXPAUEVENT@@@Z ; campaign_accept_quit_mission
  0001e	6a 02		 push	 2
  00020	6a 00		 push	 0
  00022	6a 15		 push	 21			; 00000015H
  00024	e8 00 00 00 00	 call	 ?set_event@@YGXHHHP6GXPAUEVENT@@@Z@Z ; set_event

; 408  : 	set_event (DIK_J, MODIFIER_NONE, KEY_STATE_DOWN, campaign_accept_quit_mission);

  00029	68 00 00 00 00	 push	 OFFSET ?campaign_accept_quit_mission@@YGXPAUEVENT@@@Z ; campaign_accept_quit_mission
  0002e	6a 02		 push	 2
  00030	6a 00		 push	 0
  00032	6a 24		 push	 36			; 00000024H
  00034	e8 00 00 00 00	 call	 ?set_event@@YGXHHHP6GXPAUEVENT@@@Z@Z ; set_event

; 409  : 	set_event (DIK_O, MODIFIER_NONE, KEY_STATE_DOWN, campaign_accept_quit_mission);

  00039	68 00 00 00 00	 push	 OFFSET ?campaign_accept_quit_mission@@YGXPAUEVENT@@@Z ; campaign_accept_quit_mission
  0003e	6a 02		 push	 2
  00040	6a 00		 push	 0
  00042	6a 18		 push	 24			; 00000018H
  00044	e8 00 00 00 00	 call	 ?set_event@@YGXHHHP6GXPAUEVENT@@@Z@Z ; set_event

; 410  : 	set_event (DIK_T, MODIFIER_NONE, KEY_STATE_DOWN, campaign_accept_quit_mission);

  00049	68 00 00 00 00	 push	 OFFSET ?campaign_accept_quit_mission@@YGXPAUEVENT@@@Z ; campaign_accept_quit_mission
  0004e	6a 02		 push	 2
  00050	6a 00		 push	 0
  00052	6a 14		 push	 20			; 00000014H
  00054	e8 00 00 00 00	 call	 ?set_event@@YGXHHHP6GXPAUEVENT@@@Z@Z ; set_event

; 411  : 
; 412  : 	set_event (DIK_N, MODIFIER_NONE, KEY_STATE_DOWN, campaign_cancel_quit_mission);

  00059	68 00 00 00 00	 push	 OFFSET ?campaign_cancel_quit_mission@@YGXPAUEVENT@@@Z ; campaign_cancel_quit_mission
  0005e	6a 02		 push	 2
  00060	6a 00		 push	 0
  00062	6a 31		 push	 49			; 00000031H
  00064	e8 00 00 00 00	 call	 ?set_event@@YGXHHHP6GXPAUEVENT@@@Z@Z ; set_event

; 413  : 
; 414  : 	set_event (DIK_X, MODIFIER_LEFT_CONTROL, KEY_STATE_UP, exit_apache_havoc);

  00069	68 00 00 00 00	 push	 OFFSET ?exit_apache_havoc@@YGXPAUEVENT@@@Z ; exit_apache_havoc
  0006e	6a 01		 push	 1
  00070	6a 02		 push	 2
  00072	6a 2d		 push	 45			; 0000002dH
  00074	e8 00 00 00 00	 call	 ?set_event@@YGXHHHP6GXPAUEVENT@@@Z@Z ; set_event

; 415  : 
; 416  : 	set_event (MOUSE_LEFT_BUTTON, MODIFIER_NONE, BUTTON_STATE_EITHER, ui_left_mouse_button);

  00079	68 00 00 00 00	 push	 OFFSET ?ui_left_mouse_button@@YGXPAUEVENT@@@Z ; ui_left_mouse_button
  0007e	6a 03		 push	 3
  00080	6a 00		 push	 0
  00082	68 00 01 00 00	 push	 256			; 00000100H
  00087	e8 00 00 00 00	 call	 ?set_event@@YGXHHHP6GXPAUEVENT@@@Z@Z ; set_event

; 417  : 	set_event (MOUSE_LEFT_BUTTON, MODIFIER_LEFT_SHIFT, BUTTON_STATE_EITHER, ui_left_mouse_button);

  0008c	68 00 00 00 00	 push	 OFFSET ?ui_left_mouse_button@@YGXPAUEVENT@@@Z ; ui_left_mouse_button
  00091	6a 03		 push	 3
  00093	6a 01		 push	 1
  00095	68 00 01 00 00	 push	 256			; 00000100H
  0009a	e8 00 00 00 00	 call	 ?set_event@@YGXHHHP6GXPAUEVENT@@@Z@Z ; set_event

; 418  : 
; 419  : 	set_event (MOUSE_RIGHT_BUTTON, MODIFIER_NONE, BUTTON_STATE_EITHER, ui_right_mouse_button);

  0009f	68 00 00 00 00	 push	 OFFSET ?ui_right_mouse_button@@YGXPAUEVENT@@@Z ; ui_right_mouse_button
  000a4	6a 03		 push	 3
  000a6	6a 00		 push	 0
  000a8	68 01 01 00 00	 push	 257			; 00000101H
  000ad	e8 00 00 00 00	 call	 ?set_event@@YGXHHHP6GXPAUEVENT@@@Z@Z ; set_event

; 420  : 	set_event (MOUSE_RIGHT_BUTTON, MODIFIER_LEFT_SHIFT, BUTTON_STATE_EITHER, ui_right_mouse_button);

  000b2	68 00 00 00 00	 push	 OFFSET ?ui_right_mouse_button@@YGXPAUEVENT@@@Z ; ui_right_mouse_button
  000b7	6a 03		 push	 3
  000b9	6a 01		 push	 1
  000bb	68 01 01 00 00	 push	 257			; 00000101H
  000c0	e8 00 00 00 00	 call	 ?set_event@@YGXHHHP6GXPAUEVENT@@@Z@Z ; set_event

; 421  : }

  000c5	5f		 pop	 edi
  000c6	5e		 pop	 esi
  000c7	5b		 pop	 ebx
  000c8	8b e5		 mov	 esp, ebp
  000ca	5d		 pop	 ebp
  000cb	c3		 ret	 0
?quit_mission_set_events@@YGXXZ ENDP			; quit_mission_set_events
_TEXT	ENDS
; Function compile flags: /Odtp /ZI
; File c:\users\nhv90\projects\eech\aphavoc\source\ui_menu\ingame\campaign\campaign.c
;	COMDAT ?update_campaign_screen@@YGXXZ
_TEXT	SEGMENT
?update_campaign_screen@@YGXXZ PROC			; update_campaign_screen, COMDAT

; 166  : {

  00000	55		 push	 ebp
  00001	8b ec		 mov	 ebp, esp
  00003	83 ec 40	 sub	 esp, 64			; 00000040H
  00006	53		 push	 ebx
  00007	56		 push	 esi
  00008	57		 push	 edi

; 167  : 	update_campaign_screen_list_objects ();

  00009	e8 00 00 00 00	 call	 ?update_campaign_screen_list_objects@@YGXXZ ; update_campaign_screen_list_objects

; 168  : }

  0000e	5f		 pop	 edi
  0000f	5e		 pop	 esi
  00010	5b		 pop	 ebx
  00011	8b e5		 mov	 esp, ebp
  00013	5d		 pop	 ebp
  00014	c3		 ret	 0
?update_campaign_screen@@YGXXZ ENDP			; update_campaign_screen
_TEXT	ENDS
; Function compile flags: /Odtp /ZI
; File c:\users\nhv90\projects\eech\aphavoc\source\ui_menu\ingame\campaign\campaign.c
;	COMDAT ?campaign_screen_show_external_view_entity@@YGXPAUEVENT@@@Z
_TEXT	SEGMENT
tv158 = -88						; size = 4
tv151 = -84						; size = 4
tv140 = -80						; size = 4
tv84 = -80						; size = 4
tv133 = -76						; size = 4
tv76 = -76						; size = 4
_group$ = -8						; size = 4
_en$ = -4						; size = 4
_ev$ = 8						; size = 4
?campaign_screen_show_external_view_entity@@YGXPAUEVENT@@@Z PROC ; campaign_screen_show_external_view_entity, COMDAT

; 1121 : {

  00000	55		 push	 ebp
  00001	8b ec		 mov	 ebp, esp
  00003	83 ec 58	 sub	 esp, 88			; 00000058H
  00006	53		 push	 ebx
  00007	56		 push	 esi
  00008	57		 push	 edi

; 1122 : 	entity
; 1123 : 		*en,
; 1124 : 		*group;
; 1125 : 
; 1126 : 	//
; 1127 : 	// Switch back to campaign screen
; 1128 : 	//
; 1129 : 			
; 1130 : 	if (get_in_flight_game_mode () == IN_FLIGHT_GAME_MODE_SIMULATOR)

  00009	83 3d 00 00 00
	00 00		 cmp	 DWORD PTR ?in_flight_game_mode@@3W4IN_FLIGHT_GAME_MODES@@A, 0 ; in_flight_game_mode
  00010	75 07		 jne	 SHORT $LN2@campaign_s

; 1131 : 	{
; 1132 : 		set_in_flight_game_mode (IN_FLIGHT_GAME_MODE_PLANNER);

  00012	6a 01		 push	 1
  00014	e8 00 00 00 00	 call	 ?set_in_flight_game_mode@@YGXH@Z ; set_in_flight_game_mode
$LN2@campaign_s:

; 1133 : 	}
; 1134 : 
; 1135 : 	if (
; 1136 : 			(get_game_type () != GAME_TYPE_CAMPAIGN) &&

  00019	83 3d 00 00 00
	00 02		 cmp	 DWORD PTR ?game_type@@3W4GAME_TYPES@@A, 2 ; game_type
  00020	74 0e		 je	 SHORT $LN3@campaign_s
  00022	83 3d 00 00 00
	00 03		 cmp	 DWORD PTR ?game_type@@3W4GAME_TYPES@@A, 3 ; game_type
  00029	74 05		 je	 SHORT $LN3@campaign_s

; 1137 : 			(get_game_type () != GAME_TYPE_SKIRMISH)
; 1138 : 		)
; 1139 : 	{
; 1140 : 		return;

  0002b	e9 c8 01 00 00	 jmp	 $LN1@campaign_s
$LN3@campaign_s:

; 1141 : 	}
; 1142 : 
; 1143 : 	en = get_external_view_entity ();

  00030	e8 00 00 00 00	 call	 ?get_external_view_entity@@YGPAUENTITY@@XZ ; get_external_view_entity
  00035	89 45 fc	 mov	 DWORD PTR _en$[ebp], eax

; 1144 : 
; 1145 : 	if (!en)

  00038	83 7d fc 00	 cmp	 DWORD PTR _en$[ebp], 0
  0003c	75 05		 jne	 SHORT $LN4@campaign_s

; 1146 : 	{
; 1147 : 		return;

  0003e	e9 b5 01 00 00	 jmp	 $LN1@campaign_s
$LN4@campaign_s:

; 1148 : 	}
; 1149 : 
; 1150 : 	group = get_local_entity_parent (en, LIST_TYPE_MEMBER);

  00043	83 7d fc 00	 cmp	 DWORD PTR _en$[ebp], 0
  00047	74 0a		 je	 SHORT $LN9@campaign_s
  00049	8b 45 fc	 mov	 eax, DWORD PTR _en$[ebp]
  0004c	8b 08		 mov	 ecx, DWORD PTR [eax]
  0004e	89 4d b4	 mov	 DWORD PTR tv76[ebp], ecx
  00051	eb 21		 jmp	 SHORT $LN10@campaign_s
$LN9@campaign_s:
  00053	8b 15 00 00 00
	00		 mov	 edx, DWORD PTR ?__LINE__Var@?0??campaign_screen_show_external_view_entity@@YGXPAUEVENT@@@Z@4JA
  00059	83 c2 1d	 add	 edx, 29			; 0000001dH
  0005c	52		 push	 edx
  0005d	68 00 00 00 00	 push	 OFFSET ??_C@_0EP@NKLNNBKK@c?3?2users?2nhv90?2projects?2eech?2ap@
  00062	a1 00 00 00 00	 mov	 eax, DWORD PTR ?null_entity_pointer_message@@3PBDB ; null_entity_pointer_message
  00067	50		 push	 eax
  00068	e8 00 00 00 00	 call	 ?process_assert@@YGXPBD0H@Z ; process_assert
  0006d	c7 45 b4 00 00
	00 00		 mov	 DWORD PTR tv76[ebp], 0
$LN10@campaign_s:
  00074	b9 01 00 00 00	 mov	 ecx, 1
  00079	85 c9		 test	 ecx, ecx
  0007b	74 09		 je	 SHORT $LN11@campaign_s
  0007d	c7 45 b0 19 00
	00 00		 mov	 DWORD PTR tv84[ebp], 25	; 00000019H
  00084	eb 21		 jmp	 SHORT $LN12@campaign_s
$LN11@campaign_s:
  00086	8b 15 00 00 00
	00		 mov	 edx, DWORD PTR ?__LINE__Var@?0??campaign_screen_show_external_view_entity@@YGXPAUEVENT@@@Z@4JA
  0008c	83 c2 1d	 add	 edx, 29			; 0000001dH
  0008f	52		 push	 edx
  00090	68 00 00 00 00	 push	 OFFSET ??_C@_0EP@NKLNNBKK@c?3?2users?2nhv90?2projects?2eech?2ap@
  00095	a1 00 00 00 00	 mov	 eax, DWORD PTR ?overload_invalid_list_type_message@@3PBDB ; overload_invalid_list_type_message
  0009a	50		 push	 eax
  0009b	e8 00 00 00 00	 call	 ?process_assert@@YGXPBD0H@Z ; process_assert
  000a0	c7 45 b0 00 00
	00 00		 mov	 DWORD PTR tv84[ebp], 0
$LN12@campaign_s:
  000a7	6a 19		 push	 25			; 00000019H
  000a9	8b 4d fc	 mov	 ecx, DWORD PTR _en$[ebp]
  000ac	51		 push	 ecx
  000ad	69 55 b4 b4 00
	00 00		 imul	 edx, DWORD PTR tv76[ebp], 180
  000b4	8b 45 b0	 mov	 eax, DWORD PTR tv84[ebp]
  000b7	8b 8c 82 00 00
	00 00		 mov	 ecx, DWORD PTR ?fn_get_local_entity_parent@@3PAY0CN@P6GPAUENTITY@@PAU1@W4LIST_TYPES@@@ZA[edx+eax*4]
  000be	ff d1		 call	 ecx
  000c0	89 45 f8	 mov	 DWORD PTR _group$[ebp], eax

; 1151 : 
; 1152 : 	if (!group)

  000c3	83 7d f8 00	 cmp	 DWORD PTR _group$[ebp], 0
  000c7	75 05		 jne	 SHORT $LN5@campaign_s

; 1153 : 	{
; 1154 : 		return;

  000c9	e9 2a 01 00 00	 jmp	 $LN1@campaign_s
$LN5@campaign_s:

; 1155 : 	}
; 1156 : 
; 1157 : 	ASSERT (get_pilot_entity ());

  000ce	83 3d 00 00 00
	00 00		 cmp	 DWORD PTR ?pilot_entity@@3PAUENTITY@@A, 0 ; pilot_entity
  000d5	75 18		 jne	 SHORT $LN6@campaign_s
  000d7	a1 00 00 00 00	 mov	 eax, DWORD PTR ?__LINE__Var@?0??campaign_screen_show_external_view_entity@@YGXPAUEVENT@@@Z@4JA
  000dc	83 c0 24	 add	 eax, 36			; 00000024H
  000df	50		 push	 eax
  000e0	68 00 00 00 00	 push	 OFFSET ??_C@_0EP@NKLNNBKK@c?3?2users?2nhv90?2projects?2eech?2ap@
  000e5	68 00 00 00 00	 push	 OFFSET ??_C@_0BE@KOLCCDEB@get_pilot_entity?5?$CI?$CJ@
  000ea	e8 00 00 00 00	 call	 ?process_assert@@YGXPBD0H@Z ; process_assert
$LN6@campaign_s:

; 1158 : 
; 1159 : 	if (get_local_entity_int_value (en, INT_TYPE_SIDE) == get_local_entity_int_value (get_pilot_entity (), INT_TYPE_SIDE))

  000ef	83 7d fc 00	 cmp	 DWORD PTR _en$[ebp], 0
  000f3	74 0a		 je	 SHORT $LN13@campaign_s
  000f5	8b 45 fc	 mov	 eax, DWORD PTR _en$[ebp]
  000f8	8b 08		 mov	 ecx, DWORD PTR [eax]
  000fa	89 4d b4	 mov	 DWORD PTR tv133[ebp], ecx
  000fd	eb 1d		 jmp	 SHORT $LN14@campaign_s
$LN13@campaign_s:
  000ff	68 87 04 00 00	 push	 1159			; 00000487H
  00104	68 00 00 00 00	 push	 OFFSET ??_C@_0EP@NKLNNBKK@c?3?2users?2nhv90?2projects?2eech?2ap@
  00109	8b 15 00 00 00
	00		 mov	 edx, DWORD PTR ?null_entity_pointer_message@@3PBDB ; null_entity_pointer_message
  0010f	52		 push	 edx
  00110	e8 00 00 00 00	 call	 ?process_assert@@YGXPBD0H@Z ; process_assert
  00115	c7 45 b4 00 00
	00 00		 mov	 DWORD PTR tv133[ebp], 0
$LN14@campaign_s:
  0011c	b8 01 00 00 00	 mov	 eax, 1
  00121	85 c0		 test	 eax, eax
  00123	74 09		 je	 SHORT $LN15@campaign_s
  00125	c7 45 b0 bb 00
	00 00		 mov	 DWORD PTR tv140[ebp], 187 ; 000000bbH
  0012c	eb 1d		 jmp	 SHORT $LN16@campaign_s
$LN15@campaign_s:
  0012e	68 87 04 00 00	 push	 1159			; 00000487H
  00133	68 00 00 00 00	 push	 OFFSET ??_C@_0EP@NKLNNBKK@c?3?2users?2nhv90?2projects?2eech?2ap@
  00138	8b 0d 00 00 00
	00		 mov	 ecx, DWORD PTR ?overload_invalid_int_type_message@@3PBDB ; overload_invalid_int_type_message
  0013e	51		 push	 ecx
  0013f	e8 00 00 00 00	 call	 ?process_assert@@YGXPBD0H@Z ; process_assert
  00144	c7 45 b0 00 00
	00 00		 mov	 DWORD PTR tv140[ebp], 0
$LN16@campaign_s:
  0014b	83 3d 00 00 00
	00 00		 cmp	 DWORD PTR ?pilot_entity@@3PAUENTITY@@A, 0 ; pilot_entity
  00152	74 0d		 je	 SHORT $LN17@campaign_s
  00154	8b 15 00 00 00
	00		 mov	 edx, DWORD PTR ?pilot_entity@@3PAUENTITY@@A ; pilot_entity
  0015a	8b 02		 mov	 eax, DWORD PTR [edx]
  0015c	89 45 ac	 mov	 DWORD PTR tv151[ebp], eax
  0015f	eb 1d		 jmp	 SHORT $LN18@campaign_s
$LN17@campaign_s:
  00161	68 87 04 00 00	 push	 1159			; 00000487H
  00166	68 00 00 00 00	 push	 OFFSET ??_C@_0EP@NKLNNBKK@c?3?2users?2nhv90?2projects?2eech?2ap@
  0016b	8b 0d 00 00 00
	00		 mov	 ecx, DWORD PTR ?null_entity_pointer_message@@3PBDB ; null_entity_pointer_message
  00171	51		 push	 ecx
  00172	e8 00 00 00 00	 call	 ?process_assert@@YGXPBD0H@Z ; process_assert
  00177	c7 45 ac 00 00
	00 00		 mov	 DWORD PTR tv151[ebp], 0
$LN18@campaign_s:
  0017e	ba 01 00 00 00	 mov	 edx, 1
  00183	85 d2		 test	 edx, edx
  00185	74 09		 je	 SHORT $LN19@campaign_s
  00187	c7 45 a8 bb 00
	00 00		 mov	 DWORD PTR tv158[ebp], 187 ; 000000bbH
  0018e	eb 1c		 jmp	 SHORT $LN20@campaign_s
$LN19@campaign_s:
  00190	68 87 04 00 00	 push	 1159			; 00000487H
  00195	68 00 00 00 00	 push	 OFFSET ??_C@_0EP@NKLNNBKK@c?3?2users?2nhv90?2projects?2eech?2ap@
  0019a	a1 00 00 00 00	 mov	 eax, DWORD PTR ?overload_invalid_int_type_message@@3PBDB ; overload_invalid_int_type_message
  0019f	50		 push	 eax
  001a0	e8 00 00 00 00	 call	 ?process_assert@@YGXPBD0H@Z ; process_assert
  001a5	c7 45 a8 00 00
	00 00		 mov	 DWORD PTR tv158[ebp], 0
$LN20@campaign_s:
  001ac	68 bb 00 00 00	 push	 187			; 000000bbH
  001b1	8b 4d fc	 mov	 ecx, DWORD PTR _en$[ebp]
  001b4	51		 push	 ecx
  001b5	69 55 b4 5c 04
	00 00		 imul	 edx, DWORD PTR tv133[ebp], 1116
  001bc	8b 45 b0	 mov	 eax, DWORD PTR tv140[ebp]
  001bf	8b 8c 82 00 00
	00 00		 mov	 ecx, DWORD PTR ?fn_get_local_entity_int_value@@3PAY0BBH@P6GHPAUENTITY@@W4INT_TYPES@@@ZA[edx+eax*4]
  001c6	ff d1		 call	 ecx
  001c8	8b f0		 mov	 esi, eax
  001ca	68 bb 00 00 00	 push	 187			; 000000bbH
  001cf	8b 15 00 00 00
	00		 mov	 edx, DWORD PTR ?pilot_entity@@3PAUENTITY@@A ; pilot_entity
  001d5	52		 push	 edx
  001d6	69 45 ac 5c 04
	00 00		 imul	 eax, DWORD PTR tv151[ebp], 1116
  001dd	8b 4d a8	 mov	 ecx, DWORD PTR tv158[ebp]
  001e0	8b 94 88 00 00
	00 00		 mov	 edx, DWORD PTR ?fn_get_local_entity_int_value@@3PAY0BBH@P6GHPAUENTITY@@W4INT_TYPES@@@ZA[eax+ecx*4]
  001e7	ff d2		 call	 edx
  001e9	3b f0		 cmp	 esi, eax
  001eb	75 0b		 jne	 SHORT $LN1@campaign_s

; 1160 : 	{
; 1161 : 		//
; 1162 : 		// Show group page
; 1163 : 		//
; 1164 : 
; 1165 : 		show_group_page (group, FALSE);

  001ed	6a 00		 push	 0
  001ef	8b 45 f8	 mov	 eax, DWORD PTR _group$[ebp]
  001f2	50		 push	 eax
  001f3	e8 00 00 00 00	 call	 ?show_group_page@@YGHPAUENTITY@@H@Z ; show_group_page
$LN1@campaign_s:

; 1166 : 	}
; 1167 : }

  001f8	5f		 pop	 edi
  001f9	5e		 pop	 esi
  001fa	5b		 pop	 ebx
  001fb	8b e5		 mov	 esp, ebp
  001fd	5d		 pop	 ebp
  001fe	c2 04 00	 ret	 4
?campaign_screen_show_external_view_entity@@YGXPAUEVENT@@@Z ENDP ; campaign_screen_show_external_view_entity
_TEXT	ENDS
; Function compile flags: /Odtp /ZI
; File c:\users\nhv90\projects\eech\aphavoc\source\ui_menu\ingame\campaign\campaign.c
;	COMDAT ?campaign_completed@@YGXW4ENTITY_SIDES@@W4CAMPAIGN_COMPLETED_TYPES@@@Z
_TEXT	SEGMENT
tv180 = -76						; size = 4
tv149 = -76						; size = 4
tv128 = -76						; size = 4
tv172 = -72						; size = 4
tv141 = -72						; size = 4
tv89 = -72						; size = 4
_log$ = -4						; size = 4
_side$ = 8						; size = 4
_complete$ = 12						; size = 4
?campaign_completed@@YGXW4ENTITY_SIDES@@W4CAMPAIGN_COMPLETED_TYPES@@@Z PROC ; campaign_completed, COMDAT

; 1063 : {

  00000	55		 push	 ebp
  00001	8b ec		 mov	 ebp, esp
  00003	83 ec 4c	 sub	 esp, 76			; 0000004cH
  00006	53		 push	 ebx
  00007	56		 push	 esi
  00008	57		 push	 edi

; 1064 : 
; 1065 : 	player_log_type
; 1066 : 		*log;
; 1067 : 
; 1068 : 	if (get_comms_model () == COMMS_MODEL_SERVER)

  00009	83 3d 00 00 00
	00 00		 cmp	 DWORD PTR ?system_comms_model@@3W4COMMS_MODEL_TYPES@@A, 0 ; system_comms_model
  00010	0f 85 cc 01 00
	00		 jne	 $LN2@campaign_c

; 1069 : 	{
; 1070 : 		ai_log ("###############################################");

  00016	68 00 00 00 00	 push	 OFFSET ??_C@_0DA@JCGIPLLO@?$CD?$CD?$CD?$CD?$CD?$CD?$CD?$CD?$CD?$CD?$CD?$CD?$CD?$CD?$CD?$CD?$CD?$CD?$CD?$CD?$CD?$CD?$CD?$CD?$CD?$CD?$CD?$CD?$CD?$CD?$CD@
  0001b	e8 00 00 00 00	 call	 ?ai_log@@YAXPBDZZ	; ai_log
  00020	83 c4 04	 add	 esp, 4

; 1071 : 		ai_log ("###############################################");

  00023	68 00 00 00 00	 push	 OFFSET ??_C@_0DA@JCGIPLLO@?$CD?$CD?$CD?$CD?$CD?$CD?$CD?$CD?$CD?$CD?$CD?$CD?$CD?$CD?$CD?$CD?$CD?$CD?$CD?$CD?$CD?$CD?$CD?$CD?$CD?$CD?$CD?$CD?$CD?$CD?$CD@
  00028	e8 00 00 00 00	 call	 ?ai_log@@YAXPBDZZ	; ai_log
  0002d	83 c4 04	 add	 esp, 4

; 1072 : 		ai_log ("CAMPAIGN WON BY %s SIDE", entity_side_short_names [side]);

  00030	8b 45 08	 mov	 eax, DWORD PTR _side$[ebp]
  00033	8b 0c 85 00 00
	00 00		 mov	 ecx, DWORD PTR ?entity_side_short_names@@3PAPBDA[eax*4]
  0003a	51		 push	 ecx
  0003b	68 00 00 00 00	 push	 OFFSET ??_C@_0BI@LEFNLAID@CAMPAIGN?5WON?5BY?5?$CFs?5SIDE@
  00040	e8 00 00 00 00	 call	 ?ai_log@@YAXPBDZZ	; ai_log
  00045	83 c4 08	 add	 esp, 8

; 1073 : 		ai_log ("###############################################");

  00048	68 00 00 00 00	 push	 OFFSET ??_C@_0DA@JCGIPLLO@?$CD?$CD?$CD?$CD?$CD?$CD?$CD?$CD?$CD?$CD?$CD?$CD?$CD?$CD?$CD?$CD?$CD?$CD?$CD?$CD?$CD?$CD?$CD?$CD?$CD?$CD?$CD?$CD?$CD?$CD?$CD@
  0004d	e8 00 00 00 00	 call	 ?ai_log@@YAXPBDZZ	; ai_log
  00052	83 c4 04	 add	 esp, 4

; 1074 : 		ai_log ("###############################################");

  00055	68 00 00 00 00	 push	 OFFSET ??_C@_0DA@JCGIPLLO@?$CD?$CD?$CD?$CD?$CD?$CD?$CD?$CD?$CD?$CD?$CD?$CD?$CD?$CD?$CD?$CD?$CD?$CD?$CD?$CD?$CD?$CD?$CD?$CD?$CD?$CD?$CD?$CD?$CD?$CD?$CD@
  0005a	e8 00 00 00 00	 call	 ?ai_log@@YAXPBDZZ	; ai_log
  0005f	83 c4 04	 add	 esp, 4

; 1075 : 	
; 1076 : 		//
; 1077 : 		// Transmit message to clients
; 1078 : 		//
; 1079 : 
; 1080 : 		transmit_entity_comms_message (ENTITY_COMMS_CAMPAIGN_COMPLETED, get_session_entity (), side, complete);

  00062	8b 45 0c	 mov	 eax, DWORD PTR _complete$[ebp]
  00065	50		 push	 eax
  00066	8b 4d 08	 mov	 ecx, DWORD PTR _side$[ebp]
  00069	51		 push	 ecx
  0006a	8b 15 00 00 00
	00		 mov	 edx, DWORD PTR ?session_entity@@3PAUENTITY@@A ; session_entity
  00070	52		 push	 edx
  00071	6a 05		 push	 5
  00073	e8 00 00 00 00	 call	 ?transmit_entity_comms_message@@YAXW4ENTITY_COMMS_MESSAGES@@PAUENTITY@@ZZ ; transmit_entity_comms_message
  00078	83 c4 10	 add	 esp, 16			; 00000010H

; 1081 : 
; 1082 : 		//
; 1083 : 		// AWARD CAMPAIGN COMPLETED MEDAL
; 1084 : 		//
; 1085 : 
; 1086 : 		log = get_current_player_log ();

  0007b	e8 00 00 00 00	 call	 ?get_current_player_log@@YGPAUPLAYER_LOG_TYPE@@XZ ; get_current_player_log
  00080	89 45 fc	 mov	 DWORD PTR _log$[ebp], eax

; 1087 : 
; 1088 : 		ASSERT (log);

  00083	83 7d fc 00	 cmp	 DWORD PTR _log$[ebp], 0
  00087	75 18		 jne	 SHORT $LN3@campaign_c
  00089	a1 00 00 00 00	 mov	 eax, DWORD PTR ?__LINE__Var@?0??campaign_completed@@YGXW4ENTITY_SIDES@@W4CAMPAIGN_COMPLETED_TYPES@@@Z@4JA
  0008e	83 c0 19	 add	 eax, 25			; 00000019H
  00091	50		 push	 eax
  00092	68 00 00 00 00	 push	 OFFSET ??_C@_0EP@NKLNNBKK@c?3?2users?2nhv90?2projects?2eech?2ap@
  00097	68 00 00 00 00	 push	 OFFSET ??_C@_03MGHMBJCF@log@
  0009c	e8 00 00 00 00	 call	 ?process_assert@@YGXPBD0H@Z ; process_assert
$LN3@campaign_c:

; 1089 : 
; 1090 : 		if (get_game_type () == GAME_TYPE_CAMPAIGN)

  000a1	83 3d 00 00 00
	00 02		 cmp	 DWORD PTR ?game_type@@3W4GAME_TYPES@@A, 2 ; game_type
  000a8	0f 85 34 01 00
	00		 jne	 $LN2@campaign_c

; 1091 : 		{
; 1092 : 			if (side == get_local_entity_int_value (get_pilot_entity (), INT_TYPE_SIDE))

  000ae	83 3d 00 00 00
	00 00		 cmp	 DWORD PTR ?pilot_entity@@3PAUENTITY@@A, 0 ; pilot_entity
  000b5	74 0c		 je	 SHORT $LN9@campaign_c
  000b7	a1 00 00 00 00	 mov	 eax, DWORD PTR ?pilot_entity@@3PAUENTITY@@A ; pilot_entity
  000bc	8b 08		 mov	 ecx, DWORD PTR [eax]
  000be	89 4d b8	 mov	 DWORD PTR tv89[ebp], ecx
  000c1	eb 1d		 jmp	 SHORT $LN10@campaign_c
$LN9@campaign_c:
  000c3	68 44 04 00 00	 push	 1092			; 00000444H
  000c8	68 00 00 00 00	 push	 OFFSET ??_C@_0EP@NKLNNBKK@c?3?2users?2nhv90?2projects?2eech?2ap@
  000cd	8b 15 00 00 00
	00		 mov	 edx, DWORD PTR ?null_entity_pointer_message@@3PBDB ; null_entity_pointer_message
  000d3	52		 push	 edx
  000d4	e8 00 00 00 00	 call	 ?process_assert@@YGXPBD0H@Z ; process_assert
  000d9	c7 45 b8 00 00
	00 00		 mov	 DWORD PTR tv89[ebp], 0
$LN10@campaign_c:
  000e0	b8 01 00 00 00	 mov	 eax, 1
  000e5	85 c0		 test	 eax, eax
  000e7	74 09		 je	 SHORT $LN11@campaign_c
  000e9	c7 45 b4 bb 00
	00 00		 mov	 DWORD PTR tv128[ebp], 187 ; 000000bbH
  000f0	eb 1d		 jmp	 SHORT $LN12@campaign_c
$LN11@campaign_c:
  000f2	68 44 04 00 00	 push	 1092			; 00000444H
  000f7	68 00 00 00 00	 push	 OFFSET ??_C@_0EP@NKLNNBKK@c?3?2users?2nhv90?2projects?2eech?2ap@
  000fc	8b 0d 00 00 00
	00		 mov	 ecx, DWORD PTR ?overload_invalid_int_type_message@@3PBDB ; overload_invalid_int_type_message
  00102	51		 push	 ecx
  00103	e8 00 00 00 00	 call	 ?process_assert@@YGXPBD0H@Z ; process_assert
  00108	c7 45 b4 00 00
	00 00		 mov	 DWORD PTR tv128[ebp], 0
$LN12@campaign_c:
  0010f	68 bb 00 00 00	 push	 187			; 000000bbH
  00114	8b 15 00 00 00
	00		 mov	 edx, DWORD PTR ?pilot_entity@@3PAUENTITY@@A ; pilot_entity
  0011a	52		 push	 edx
  0011b	69 45 b8 5c 04
	00 00		 imul	 eax, DWORD PTR tv89[ebp], 1116
  00122	8b 4d b4	 mov	 ecx, DWORD PTR tv128[ebp]
  00125	8b 94 88 00 00
	00 00		 mov	 edx, DWORD PTR ?fn_get_local_entity_int_value@@3PAY0BBH@P6GHPAUENTITY@@W4INT_TYPES@@@ZA[eax+ecx*4]
  0012c	ff d2		 call	 edx
  0012e	39 45 08	 cmp	 DWORD PTR _side$[ebp], eax
  00131	0f 85 9e 00 00
	00		 jne	 $LN5@campaign_c

; 1093 : 			{
; 1094 : 				award_campaign_medal (side, get_local_entity_int_value (get_session_entity (), INT_TYPE_CAMPAIGN_MEDAL));

  00137	83 3d 00 00 00
	00 00		 cmp	 DWORD PTR ?session_entity@@3PAUENTITY@@A, 0 ; session_entity
  0013e	74 0c		 je	 SHORT $LN13@campaign_c
  00140	a1 00 00 00 00	 mov	 eax, DWORD PTR ?session_entity@@3PAUENTITY@@A ; session_entity
  00145	8b 08		 mov	 ecx, DWORD PTR [eax]
  00147	89 4d b8	 mov	 DWORD PTR tv141[ebp], ecx
  0014a	eb 21		 jmp	 SHORT $LN14@campaign_c
$LN13@campaign_c:
  0014c	8b 15 00 00 00
	00		 mov	 edx, DWORD PTR ?__LINE__Var@?0??campaign_completed@@YGXW4ENTITY_SIDES@@W4CAMPAIGN_COMPLETED_TYPES@@@Z@4JA
  00152	83 c2 1f	 add	 edx, 31			; 0000001fH
  00155	52		 push	 edx
  00156	68 00 00 00 00	 push	 OFFSET ??_C@_0EP@NKLNNBKK@c?3?2users?2nhv90?2projects?2eech?2ap@
  0015b	a1 00 00 00 00	 mov	 eax, DWORD PTR ?null_entity_pointer_message@@3PBDB ; null_entity_pointer_message
  00160	50		 push	 eax
  00161	e8 00 00 00 00	 call	 ?process_assert@@YGXPBD0H@Z ; process_assert
  00166	c7 45 b8 00 00
	00 00		 mov	 DWORD PTR tv141[ebp], 0
$LN14@campaign_c:
  0016d	b9 01 00 00 00	 mov	 ecx, 1
  00172	85 c9		 test	 ecx, ecx
  00174	74 09		 je	 SHORT $LN15@campaign_c
  00176	c7 45 b4 15 00
	00 00		 mov	 DWORD PTR tv149[ebp], 21 ; 00000015H
  0017d	eb 21		 jmp	 SHORT $LN16@campaign_c
$LN15@campaign_c:
  0017f	8b 15 00 00 00
	00		 mov	 edx, DWORD PTR ?__LINE__Var@?0??campaign_completed@@YGXW4ENTITY_SIDES@@W4CAMPAIGN_COMPLETED_TYPES@@@Z@4JA
  00185	83 c2 1f	 add	 edx, 31			; 0000001fH
  00188	52		 push	 edx
  00189	68 00 00 00 00	 push	 OFFSET ??_C@_0EP@NKLNNBKK@c?3?2users?2nhv90?2projects?2eech?2ap@
  0018e	a1 00 00 00 00	 mov	 eax, DWORD PTR ?overload_invalid_int_type_message@@3PBDB ; overload_invalid_int_type_message
  00193	50		 push	 eax
  00194	e8 00 00 00 00	 call	 ?process_assert@@YGXPBD0H@Z ; process_assert
  00199	c7 45 b4 00 00
	00 00		 mov	 DWORD PTR tv149[ebp], 0
$LN16@campaign_c:
  001a0	6a 15		 push	 21			; 00000015H
  001a2	8b 0d 00 00 00
	00		 mov	 ecx, DWORD PTR ?session_entity@@3PAUENTITY@@A ; session_entity
  001a8	51		 push	 ecx
  001a9	69 55 b8 5c 04
	00 00		 imul	 edx, DWORD PTR tv141[ebp], 1116
  001b0	8b 45 b4	 mov	 eax, DWORD PTR tv149[ebp]
  001b3	8b 8c 82 00 00
	00 00		 mov	 ecx, DWORD PTR ?fn_get_local_entity_int_value@@3PAY0BBH@P6GHPAUENTITY@@W4INT_TYPES@@@ZA[edx+eax*4]
  001ba	ff d1		 call	 ecx
  001bc	50		 push	 eax
  001bd	8b 55 08	 mov	 edx, DWORD PTR _side$[ebp]
  001c0	52		 push	 edx
  001c1	e8 00 00 00 00	 call	 ?award_campaign_medal@@YGXHH@Z ; award_campaign_medal

; 1095 : 	
; 1096 : 				inc_player_log_successful_tours (side, log);

  001c6	8b 45 fc	 mov	 eax, DWORD PTR _log$[ebp]
  001c9	50		 push	 eax
  001ca	8b 4d 08	 mov	 ecx, DWORD PTR _side$[ebp]
  001cd	51		 push	 ecx
  001ce	e8 00 00 00 00	 call	 ?inc_player_log_successful_tours@@YGXHPAUPLAYER_LOG_TYPE@@@Z ; inc_player_log_successful_tours

; 1097 : 			}
; 1098 : 			else

  001d3	eb 0d		 jmp	 SHORT $LN2@campaign_c
$LN5@campaign_c:

; 1099 : 			{
; 1100 : 				inc_player_log_failed_tours (side, log);

  001d5	8b 45 fc	 mov	 eax, DWORD PTR _log$[ebp]
  001d8	50		 push	 eax
  001d9	8b 4d 08	 mov	 ecx, DWORD PTR _side$[ebp]
  001dc	51		 push	 ecx
  001dd	e8 00 00 00 00	 call	 ?inc_player_log_failed_tours@@YGXHPAUPLAYER_LOG_TYPE@@@Z ; inc_player_log_failed_tours
$LN2@campaign_c:

; 1101 : 			}
; 1102 : 		}
; 1103 : 	}
; 1104 : 	
; 1105 : 	//
; 1106 : 	// Set session state to complete
; 1107 : 	//
; 1108 : 
; 1109 : 	ASSERT (get_session_entity ());

  001e2	83 3d 00 00 00
	00 00		 cmp	 DWORD PTR ?session_entity@@3PAUENTITY@@A, 0 ; session_entity
  001e9	75 18		 jne	 SHORT $LN7@campaign_c
  001eb	a1 00 00 00 00	 mov	 eax, DWORD PTR ?__LINE__Var@?0??campaign_completed@@YGXW4ENTITY_SIDES@@W4CAMPAIGN_COMPLETED_TYPES@@@Z@4JA
  001f0	83 c0 2e	 add	 eax, 46			; 0000002eH
  001f3	50		 push	 eax
  001f4	68 00 00 00 00	 push	 OFFSET ??_C@_0EP@NKLNNBKK@c?3?2users?2nhv90?2projects?2eech?2ap@
  001f9	68 00 00 00 00	 push	 OFFSET ??_C@_0BG@EFCJJKAA@get_session_entity?5?$CI?$CJ@
  001fe	e8 00 00 00 00	 call	 ?process_assert@@YGXPBD0H@Z ; process_assert
$LN7@campaign_c:

; 1110 : 
; 1111 : 	set_local_entity_int_value (get_session_entity (), INT_TYPE_SESSION_COMPLETE, complete);

  00203	83 3d 00 00 00
	00 00		 cmp	 DWORD PTR ?session_entity@@3PAUENTITY@@A, 0 ; session_entity
  0020a	74 0c		 je	 SHORT $LN17@campaign_c
  0020c	a1 00 00 00 00	 mov	 eax, DWORD PTR ?session_entity@@3PAUENTITY@@A ; session_entity
  00211	8b 08		 mov	 ecx, DWORD PTR [eax]
  00213	89 4d b8	 mov	 DWORD PTR tv172[ebp], ecx
  00216	eb 21		 jmp	 SHORT $LN18@campaign_c
$LN17@campaign_c:
  00218	8b 15 00 00 00
	00		 mov	 edx, DWORD PTR ?__LINE__Var@?0??campaign_completed@@YGXW4ENTITY_SIDES@@W4CAMPAIGN_COMPLETED_TYPES@@@Z@4JA
  0021e	83 c2 30	 add	 edx, 48			; 00000030H
  00221	52		 push	 edx
  00222	68 00 00 00 00	 push	 OFFSET ??_C@_0EP@NKLNNBKK@c?3?2users?2nhv90?2projects?2eech?2ap@
  00227	a1 00 00 00 00	 mov	 eax, DWORD PTR ?null_entity_pointer_message@@3PBDB ; null_entity_pointer_message
  0022c	50		 push	 eax
  0022d	e8 00 00 00 00	 call	 ?process_assert@@YGXPBD0H@Z ; process_assert
  00232	c7 45 b8 00 00
	00 00		 mov	 DWORD PTR tv172[ebp], 0
$LN18@campaign_c:
  00239	b9 01 00 00 00	 mov	 ecx, 1
  0023e	85 c9		 test	 ecx, ecx
  00240	74 09		 je	 SHORT $LN19@campaign_c
  00242	c7 45 b4 ba 00
	00 00		 mov	 DWORD PTR tv180[ebp], 186 ; 000000baH
  00249	eb 21		 jmp	 SHORT $LN20@campaign_c
$LN19@campaign_c:
  0024b	8b 15 00 00 00
	00		 mov	 edx, DWORD PTR ?__LINE__Var@?0??campaign_completed@@YGXW4ENTITY_SIDES@@W4CAMPAIGN_COMPLETED_TYPES@@@Z@4JA
  00251	83 c2 30	 add	 edx, 48			; 00000030H
  00254	52		 push	 edx
  00255	68 00 00 00 00	 push	 OFFSET ??_C@_0EP@NKLNNBKK@c?3?2users?2nhv90?2projects?2eech?2ap@
  0025a	a1 00 00 00 00	 mov	 eax, DWORD PTR ?overload_invalid_int_type_message@@3PBDB ; overload_invalid_int_type_message
  0025f	50		 push	 eax
  00260	e8 00 00 00 00	 call	 ?process_assert@@YGXPBD0H@Z ; process_assert
  00265	c7 45 b4 00 00
	00 00		 mov	 DWORD PTR tv180[ebp], 0
$LN20@campaign_c:
  0026c	8b 4d 0c	 mov	 ecx, DWORD PTR _complete$[ebp]
  0026f	51		 push	 ecx
  00270	68 ba 00 00 00	 push	 186			; 000000baH
  00275	8b 15 00 00 00
	00		 mov	 edx, DWORD PTR ?session_entity@@3PAUENTITY@@A ; session_entity
  0027b	52		 push	 edx
  0027c	69 45 b8 5c 04
	00 00		 imul	 eax, DWORD PTR tv172[ebp], 1116
  00283	8b 4d b4	 mov	 ecx, DWORD PTR tv180[ebp]
  00286	8b 94 88 00 00
	00 00		 mov	 edx, DWORD PTR ?fn_set_local_entity_int_value@@3PAY0BBH@P6GXPAUENTITY@@W4INT_TYPES@@H@ZA[eax+ecx*4]
  0028d	ff d2		 call	 edx

; 1112 : 
; 1113 : 	setup_campaign_completed_dialog (side, complete);

  0028f	8b 45 0c	 mov	 eax, DWORD PTR _complete$[ebp]
  00292	50		 push	 eax
  00293	8b 4d 08	 mov	 ecx, DWORD PTR _side$[ebp]
  00296	51		 push	 ecx
  00297	e8 00 00 00 00	 call	 ?setup_campaign_completed_dialog@@YGXW4ENTITY_SIDES@@W4CAMPAIGN_COMPLETED_TYPES@@@Z ; setup_campaign_completed_dialog

; 1114 : }

  0029c	5f		 pop	 edi
  0029d	5e		 pop	 esi
  0029e	5b		 pop	 ebx
  0029f	8b e5		 mov	 esp, ebp
  002a1	5d		 pop	 ebp
  002a2	c2 08 00	 ret	 8
?campaign_completed@@YGXW4ENTITY_SIDES@@W4CAMPAIGN_COMPLETED_TYPES@@@Z ENDP ; campaign_completed
_TEXT	ENDS
; Function compile flags: /Odtp /ZI
; File c:\users\nhv90\projects\eech\aphavoc\source\ui_menu\ingame\campaign\campaign.c
;	COMDAT ?setup_campaign_completed_dialog@@YGXW4ENTITY_SIDES@@W4CAMPAIGN_COMPLETED_TYPES@@@Z
_TEXT	SEGMENT
tv135 = -76						; size = 4
tv178 = -72						; size = 4
tv149 = -72						; size = 4
tv95 = -72						; size = 4
tv74 = -72						; size = 4
_this_side$ = -4					; size = 4
_side$ = 8						; size = 4
_complete$ = 12						; size = 4
?setup_campaign_completed_dialog@@YGXW4ENTITY_SIDES@@W4CAMPAIGN_COMPLETED_TYPES@@@Z PROC ; setup_campaign_completed_dialog, COMDAT

; 964  : {

  00000	55		 push	 ebp
  00001	8b ec		 mov	 ebp, esp
  00003	83 ec 4c	 sub	 esp, 76			; 0000004cH
  00006	53		 push	 ebx
  00007	56		 push	 esi
  00008	57		 push	 edi

; 965  : 	entity_sides
; 966  : 		this_side;
; 967  : 
; 968  : 	//
; 969  : 	// Display campaign over message
; 970  : 	//
; 971  : 
; 972  : 	set_ui_object_drawable (campaign_full_screen_mask_area, TRUE);

  00009	6a 01		 push	 1
  0000b	a1 00 00 00 00	 mov	 eax, DWORD PTR ?campaign_full_screen_mask_area@@3PAUUI_OBJECT@@A
  00010	50		 push	 eax
  00011	8b 0d 00 00 00
	00		 mov	 ecx, DWORD PTR ?campaign_full_screen_mask_area@@3PAUUI_OBJECT@@A
  00017	8b 11		 mov	 edx, DWORD PTR [ecx]
  00019	8b 04 95 00 00
	00 00		 mov	 eax, DWORD PTR ?fn_set_ui_object_drawable@@3PAP6GXPAUUI_OBJECT@@H@ZA[edx*4]
  00020	ff d0		 call	 eax

; 973  : 
; 974  : 	set_ui_object_drawable (campaign_dialog_area, TRUE);

  00022	6a 01		 push	 1
  00024	a1 00 00 00 00	 mov	 eax, DWORD PTR ?campaign_dialog_area@@3PAUUI_OBJECT@@A
  00029	50		 push	 eax
  0002a	8b 0d 00 00 00
	00		 mov	 ecx, DWORD PTR ?campaign_dialog_area@@3PAUUI_OBJECT@@A
  00030	8b 11		 mov	 edx, DWORD PTR [ecx]
  00032	8b 04 95 00 00
	00 00		 mov	 eax, DWORD PTR ?fn_set_ui_object_drawable@@3PAP6GXPAUUI_OBJECT@@H@ZA[edx*4]
  00039	ff d0		 call	 eax

; 975  : 
; 976  : 	switch (side)

  0003b	8b 45 08	 mov	 eax, DWORD PTR _side$[ebp]
  0003e	89 45 b8	 mov	 DWORD PTR tv74[ebp], eax
  00041	83 7d b8 01	 cmp	 DWORD PTR tv74[ebp], 1
  00045	74 08		 je	 SHORT $LN8@setup_camp
  00047	83 7d b8 02	 cmp	 DWORD PTR tv74[ebp], 2
  0004b	74 22		 je	 SHORT $LN9@setup_camp
  0004d	eb 40		 jmp	 SHORT $LN10@setup_camp
$LN8@setup_camp:

; 977  : 	{
; 978  : 		case ENTITY_SIDE_BLUE_FORCE:
; 979  : 		{
; 980  : 			set_ui_object_texture_graphic (campaign_complete_area, blue_campaign_complete_graphic);

  0004f	a1 00 00 00 00	 mov	 eax, DWORD PTR ?blue_campaign_complete_graphic@@3PAUTEXTURE_GRAPHIC@@A
  00054	50		 push	 eax
  00055	8b 0d 00 00 00
	00		 mov	 ecx, DWORD PTR ?campaign_complete_area@@3PAUUI_OBJECT@@A
  0005b	51		 push	 ecx
  0005c	8b 15 00 00 00
	00		 mov	 edx, DWORD PTR ?campaign_complete_area@@3PAUUI_OBJECT@@A
  00062	8b 02		 mov	 eax, DWORD PTR [edx]
  00064	8b 0c 85 00 00
	00 00		 mov	 ecx, DWORD PTR ?fn_set_ui_object_texture_graphic@@3PAP6GXPAUUI_OBJECT@@PAUTEXTURE_GRAPHIC@@@ZA[eax*4]
  0006b	ff d1		 call	 ecx

; 981  : 
; 982  : 			break;

  0006d	eb 31		 jmp	 SHORT $LN2@setup_camp
$LN9@setup_camp:

; 983  : 		}
; 984  : 		case ENTITY_SIDE_RED_FORCE:
; 985  : 		{
; 986  : 			set_ui_object_texture_graphic (campaign_complete_area, red_campaign_complete_graphic);

  0006f	a1 00 00 00 00	 mov	 eax, DWORD PTR ?red_campaign_complete_graphic@@3PAUTEXTURE_GRAPHIC@@A
  00074	50		 push	 eax
  00075	8b 0d 00 00 00
	00		 mov	 ecx, DWORD PTR ?campaign_complete_area@@3PAUUI_OBJECT@@A
  0007b	51		 push	 ecx
  0007c	8b 15 00 00 00
	00		 mov	 edx, DWORD PTR ?campaign_complete_area@@3PAUUI_OBJECT@@A
  00082	8b 02		 mov	 eax, DWORD PTR [edx]
  00084	8b 0c 85 00 00
	00 00		 mov	 ecx, DWORD PTR ?fn_set_ui_object_texture_graphic@@3PAP6GXPAUUI_OBJECT@@PAUTEXTURE_GRAPHIC@@@ZA[eax*4]
  0008b	ff d1		 call	 ecx

; 987  : 
; 988  : 			break;

  0008d	eb 11		 jmp	 SHORT $LN2@setup_camp
$LN10@setup_camp:

; 989  : 		}
; 990  : 		default:
; 991  : 		{
; 992  : 			debug_fatal ("CAMPAIGN: Invalid Side for campaign complete (%d)", side);

  0008f	8b 45 08	 mov	 eax, DWORD PTR _side$[ebp]
  00092	50		 push	 eax
  00093	68 00 00 00 00	 push	 OFFSET ??_C@_0DC@OBDAOMBE@CAMPAIGN?3?5Invalid?5Side?5for?5camp@
  00098	e8 00 00 00 00	 call	 ?debug_fatal@@YAXPBDZZ	; debug_fatal
  0009d	83 c4 08	 add	 esp, 8
$LN2@setup_camp:

; 993  : 		}
; 994  : 	}
; 995  : 
; 996  : 	this_side = (entity_sides) get_local_entity_int_value (get_pilot_entity (), INT_TYPE_SIDE);

  000a0	83 3d 00 00 00
	00 00		 cmp	 DWORD PTR ?pilot_entity@@3PAUENTITY@@A, 0 ; pilot_entity
  000a7	74 0c		 je	 SHORT $LN20@setup_camp
  000a9	a1 00 00 00 00	 mov	 eax, DWORD PTR ?pilot_entity@@3PAUENTITY@@A ; pilot_entity
  000ae	8b 08		 mov	 ecx, DWORD PTR [eax]
  000b0	89 4d b8	 mov	 DWORD PTR tv95[ebp], ecx
  000b3	eb 21		 jmp	 SHORT $LN21@setup_camp
$LN20@setup_camp:
  000b5	8b 15 00 00 00
	00		 mov	 edx, DWORD PTR ?__LINE__Var@?0??setup_campaign_completed_dialog@@YGXW4ENTITY_SIDES@@W4CAMPAIGN_COMPLETED_TYPES@@@Z@4JA
  000bb	83 c2 20	 add	 edx, 32			; 00000020H
  000be	52		 push	 edx
  000bf	68 00 00 00 00	 push	 OFFSET ??_C@_0EP@NKLNNBKK@c?3?2users?2nhv90?2projects?2eech?2ap@
  000c4	a1 00 00 00 00	 mov	 eax, DWORD PTR ?null_entity_pointer_message@@3PBDB ; null_entity_pointer_message
  000c9	50		 push	 eax
  000ca	e8 00 00 00 00	 call	 ?process_assert@@YGXPBD0H@Z ; process_assert
  000cf	c7 45 b8 00 00
	00 00		 mov	 DWORD PTR tv95[ebp], 0
$LN21@setup_camp:
  000d6	b9 01 00 00 00	 mov	 ecx, 1
  000db	85 c9		 test	 ecx, ecx
  000dd	74 09		 je	 SHORT $LN22@setup_camp
  000df	c7 45 b4 bb 00
	00 00		 mov	 DWORD PTR tv135[ebp], 187 ; 000000bbH
  000e6	eb 21		 jmp	 SHORT $LN23@setup_camp
$LN22@setup_camp:
  000e8	8b 15 00 00 00
	00		 mov	 edx, DWORD PTR ?__LINE__Var@?0??setup_campaign_completed_dialog@@YGXW4ENTITY_SIDES@@W4CAMPAIGN_COMPLETED_TYPES@@@Z@4JA
  000ee	83 c2 20	 add	 edx, 32			; 00000020H
  000f1	52		 push	 edx
  000f2	68 00 00 00 00	 push	 OFFSET ??_C@_0EP@NKLNNBKK@c?3?2users?2nhv90?2projects?2eech?2ap@
  000f7	a1 00 00 00 00	 mov	 eax, DWORD PTR ?overload_invalid_int_type_message@@3PBDB ; overload_invalid_int_type_message
  000fc	50		 push	 eax
  000fd	e8 00 00 00 00	 call	 ?process_assert@@YGXPBD0H@Z ; process_assert
  00102	c7 45 b4 00 00
	00 00		 mov	 DWORD PTR tv135[ebp], 0
$LN23@setup_camp:
  00109	68 bb 00 00 00	 push	 187			; 000000bbH
  0010e	8b 0d 00 00 00
	00		 mov	 ecx, DWORD PTR ?pilot_entity@@3PAUENTITY@@A ; pilot_entity
  00114	51		 push	 ecx
  00115	69 55 b8 5c 04
	00 00		 imul	 edx, DWORD PTR tv95[ebp], 1116
  0011c	8b 45 b4	 mov	 eax, DWORD PTR tv135[ebp]
  0011f	8b 8c 82 00 00
	00 00		 mov	 ecx, DWORD PTR ?fn_get_local_entity_int_value@@3PAY0BBH@P6GHPAUENTITY@@W4INT_TYPES@@@ZA[edx+eax*4]
  00126	ff d1		 call	 ecx
  00128	89 45 fc	 mov	 DWORD PTR _this_side$[ebp], eax

; 997  : 
; 998  : 	if (side == this_side)

  0012b	8b 45 08	 mov	 eax, DWORD PTR _side$[ebp]
  0012e	3b 45 fc	 cmp	 eax, DWORD PTR _this_side$[ebp]
  00131	0f 85 9f 00 00
	00		 jne	 $LN11@setup_camp

; 999  : 	{
; 1000 : 		set_ui_object_text (campaign_complete_side, get_trans ("Allied Victory"));

  00137	68 00 00 00 00	 push	 OFFSET ??_C@_0P@GCFADKDO@Allied?5Victory@
  0013c	e8 00 00 00 00	 call	 ?get_trans@@YGPBDPBD@Z	; get_trans
  00141	50		 push	 eax
  00142	a1 00 00 00 00	 mov	 eax, DWORD PTR ?campaign_complete_side@@3PAUUI_OBJECT@@A
  00147	50		 push	 eax
  00148	8b 0d 00 00 00
	00		 mov	 ecx, DWORD PTR ?campaign_complete_side@@3PAUUI_OBJECT@@A
  0014e	8b 11		 mov	 edx, DWORD PTR [ecx]
  00150	8b 04 95 00 00
	00 00		 mov	 eax, DWORD PTR ?fn_set_ui_object_text@@3PAP6GXPAUUI_OBJECT@@PBD@ZA[edx*4]
  00157	ff d0		 call	 eax

; 1001 : 
; 1002 : 		switch (complete)

  00159	8b 45 0c	 mov	 eax, DWORD PTR _complete$[ebp]
  0015c	89 45 b8	 mov	 DWORD PTR tv149[ebp], eax
  0015f	83 7d b8 01	 cmp	 DWORD PTR tv149[ebp], 1
  00163	74 08		 je	 SHORT $LN13@setup_camp
  00165	83 7d b8 02	 cmp	 DWORD PTR tv149[ebp], 2
  00169	74 26		 je	 SHORT $LN14@setup_camp
  0016b	eb 48		 jmp	 SHORT $LN15@setup_camp
$LN13@setup_camp:

; 1003 : 		{
; 1004 : 			case CAMPAIGN_COMPLETED_OBJECTIVES:
; 1005 : 			{
; 1006 : 				set_ui_object_text (campaign_complete_reason, get_trans ("Key Objectives Achieved"));

  0016d	68 00 00 00 00	 push	 OFFSET ??_C@_0BI@PGFFFHEA@Key?5Objectives?5Achieved@
  00172	e8 00 00 00 00	 call	 ?get_trans@@YGPBDPBD@Z	; get_trans
  00177	50		 push	 eax
  00178	a1 00 00 00 00	 mov	 eax, DWORD PTR ?campaign_complete_reason@@3PAUUI_OBJECT@@A
  0017d	50		 push	 eax
  0017e	8b 0d 00 00 00
	00		 mov	 ecx, DWORD PTR ?campaign_complete_reason@@3PAUUI_OBJECT@@A
  00184	8b 11		 mov	 edx, DWORD PTR [ecx]
  00186	8b 04 95 00 00
	00 00		 mov	 eax, DWORD PTR ?fn_set_ui_object_text@@3PAP6GXPAUUI_OBJECT@@PBD@ZA[edx*4]
  0018d	ff d0		 call	 eax

; 1007 : 
; 1008 : 				break;

  0018f	eb 40		 jmp	 SHORT $LN4@setup_camp
$LN14@setup_camp:

; 1009 : 			}
; 1010 : 			case CAMPAIGN_COMPLETED_VALID_GUNSHIPS:
; 1011 : 			{
; 1012 : 				set_ui_object_text (campaign_complete_reason, get_trans ("Enemy Air Forces Seriously Depleted"));

  00191	68 00 00 00 00	 push	 OFFSET ??_C@_0CE@MJGCFIIK@Enemy?5Air?5Forces?5Seriously?5Depl@
  00196	e8 00 00 00 00	 call	 ?get_trans@@YGPBDPBD@Z	; get_trans
  0019b	50		 push	 eax
  0019c	a1 00 00 00 00	 mov	 eax, DWORD PTR ?campaign_complete_reason@@3PAUUI_OBJECT@@A
  001a1	50		 push	 eax
  001a2	8b 0d 00 00 00
	00		 mov	 ecx, DWORD PTR ?campaign_complete_reason@@3PAUUI_OBJECT@@A
  001a8	8b 11		 mov	 edx, DWORD PTR [ecx]
  001aa	8b 04 95 00 00
	00 00		 mov	 eax, DWORD PTR ?fn_set_ui_object_text@@3PAP6GXPAUUI_OBJECT@@PBD@ZA[edx*4]
  001b1	ff d0		 call	 eax

; 1013 : 
; 1014 : 				break;

  001b3	eb 1c		 jmp	 SHORT $LN4@setup_camp
$LN15@setup_camp:

; 1015 : 			}
; 1016 : 			default:
; 1017 : 			{
; 1018 : 				set_ui_object_text (campaign_complete_reason, "");

  001b5	68 00 00 00 00	 push	 OFFSET ??_C@_00CNPNBAHC@@
  001ba	a1 00 00 00 00	 mov	 eax, DWORD PTR ?campaign_complete_reason@@3PAUUI_OBJECT@@A
  001bf	50		 push	 eax
  001c0	8b 0d 00 00 00
	00		 mov	 ecx, DWORD PTR ?campaign_complete_reason@@3PAUUI_OBJECT@@A
  001c6	8b 11		 mov	 edx, DWORD PTR [ecx]
  001c8	8b 04 95 00 00
	00 00		 mov	 eax, DWORD PTR ?fn_set_ui_object_text@@3PAP6GXPAUUI_OBJECT@@PBD@ZA[edx*4]
  001cf	ff d0		 call	 eax
$LN4@setup_camp:

; 1019 : 
; 1020 : 				break;
; 1021 : 			}
; 1022 : 		}
; 1023 : 	}
; 1024 : 	else

  001d1	e9 9a 00 00 00	 jmp	 $LN6@setup_camp
$LN11@setup_camp:

; 1025 : 	{
; 1026 : 		set_ui_object_text (campaign_complete_side, get_trans ("Enemy Victory"));

  001d6	68 00 00 00 00	 push	 OFFSET ??_C@_0O@HJMPHEME@Enemy?5Victory@
  001db	e8 00 00 00 00	 call	 ?get_trans@@YGPBDPBD@Z	; get_trans
  001e0	50		 push	 eax
  001e1	a1 00 00 00 00	 mov	 eax, DWORD PTR ?campaign_complete_side@@3PAUUI_OBJECT@@A
  001e6	50		 push	 eax
  001e7	8b 0d 00 00 00
	00		 mov	 ecx, DWORD PTR ?campaign_complete_side@@3PAUUI_OBJECT@@A
  001ed	8b 11		 mov	 edx, DWORD PTR [ecx]
  001ef	8b 04 95 00 00
	00 00		 mov	 eax, DWORD PTR ?fn_set_ui_object_text@@3PAP6GXPAUUI_OBJECT@@PBD@ZA[edx*4]
  001f6	ff d0		 call	 eax

; 1027 : 
; 1028 : 		switch (complete)

  001f8	8b 45 0c	 mov	 eax, DWORD PTR _complete$[ebp]
  001fb	89 45 b8	 mov	 DWORD PTR tv178[ebp], eax
  001fe	83 7d b8 01	 cmp	 DWORD PTR tv178[ebp], 1
  00202	74 08		 je	 SHORT $LN16@setup_camp
  00204	83 7d b8 02	 cmp	 DWORD PTR tv178[ebp], 2
  00208	74 26		 je	 SHORT $LN17@setup_camp
  0020a	eb 48		 jmp	 SHORT $LN18@setup_camp
$LN16@setup_camp:

; 1029 : 		{
; 1030 : 			case CAMPAIGN_COMPLETED_OBJECTIVES:
; 1031 : 			{
; 1032 : 				set_ui_object_text (campaign_complete_reason, get_trans ("Key Allied Installations Lost"));

  0020c	68 00 00 00 00	 push	 OFFSET ??_C@_0BO@KKOAEJDB@Key?5Allied?5Installations?5Lost@
  00211	e8 00 00 00 00	 call	 ?get_trans@@YGPBDPBD@Z	; get_trans
  00216	50		 push	 eax
  00217	a1 00 00 00 00	 mov	 eax, DWORD PTR ?campaign_complete_reason@@3PAUUI_OBJECT@@A
  0021c	50		 push	 eax
  0021d	8b 0d 00 00 00
	00		 mov	 ecx, DWORD PTR ?campaign_complete_reason@@3PAUUI_OBJECT@@A
  00223	8b 11		 mov	 edx, DWORD PTR [ecx]
  00225	8b 04 95 00 00
	00 00		 mov	 eax, DWORD PTR ?fn_set_ui_object_text@@3PAP6GXPAUUI_OBJECT@@PBD@ZA[edx*4]
  0022c	ff d0		 call	 eax

; 1033 : 
; 1034 : 				break;

  0022e	eb 40		 jmp	 SHORT $LN6@setup_camp
$LN17@setup_camp:

; 1035 : 			}
; 1036 : 			case CAMPAIGN_COMPLETED_VALID_GUNSHIPS:
; 1037 : 			{
; 1038 : 				set_ui_object_text (campaign_complete_reason, get_trans ("Insufficient Resources Left For Conflict"));

  00230	68 00 00 00 00	 push	 OFFSET ??_C@_0CJ@NFBDDHEB@Insufficient?5Resources?5Left?5For@
  00235	e8 00 00 00 00	 call	 ?get_trans@@YGPBDPBD@Z	; get_trans
  0023a	50		 push	 eax
  0023b	a1 00 00 00 00	 mov	 eax, DWORD PTR ?campaign_complete_reason@@3PAUUI_OBJECT@@A
  00240	50		 push	 eax
  00241	8b 0d 00 00 00
	00		 mov	 ecx, DWORD PTR ?campaign_complete_reason@@3PAUUI_OBJECT@@A
  00247	8b 11		 mov	 edx, DWORD PTR [ecx]
  00249	8b 04 95 00 00
	00 00		 mov	 eax, DWORD PTR ?fn_set_ui_object_text@@3PAP6GXPAUUI_OBJECT@@PBD@ZA[edx*4]
  00250	ff d0		 call	 eax

; 1039 : 
; 1040 : 				break;

  00252	eb 1c		 jmp	 SHORT $LN6@setup_camp
$LN18@setup_camp:

; 1041 : 			}
; 1042 : 			default:
; 1043 : 			{
; 1044 : 				set_ui_object_text (campaign_complete_reason, "");

  00254	68 00 00 00 00	 push	 OFFSET ??_C@_00CNPNBAHC@@
  00259	a1 00 00 00 00	 mov	 eax, DWORD PTR ?campaign_complete_reason@@3PAUUI_OBJECT@@A
  0025e	50		 push	 eax
  0025f	8b 0d 00 00 00
	00		 mov	 ecx, DWORD PTR ?campaign_complete_reason@@3PAUUI_OBJECT@@A
  00265	8b 11		 mov	 edx, DWORD PTR [ecx]
  00267	8b 04 95 00 00
	00 00		 mov	 eax, DWORD PTR ?fn_set_ui_object_text@@3PAP6GXPAUUI_OBJECT@@PBD@ZA[edx*4]
  0026e	ff d0		 call	 eax
$LN6@setup_camp:

; 1045 : 
; 1046 : 				break;
; 1047 : 			}
; 1048 : 		}
; 1049 : 	}
; 1050 : 
; 1051 : 	minimize_all_map_objects ();

  00270	e8 00 00 00 00	 call	 ?minimize_all_map_objects@@YGXXZ ; minimize_all_map_objects

; 1052 : 
; 1053 : 	set_ui_object_drawable (campaign_complete_area, TRUE);

  00275	6a 01		 push	 1
  00277	a1 00 00 00 00	 mov	 eax, DWORD PTR ?campaign_complete_area@@3PAUUI_OBJECT@@A
  0027c	50		 push	 eax
  0027d	8b 0d 00 00 00
	00		 mov	 ecx, DWORD PTR ?campaign_complete_area@@3PAUUI_OBJECT@@A
  00283	8b 11		 mov	 edx, DWORD PTR [ecx]
  00285	8b 04 95 00 00
	00 00		 mov	 eax, DWORD PTR ?fn_set_ui_object_drawable@@3PAP6GXPAUUI_OBJECT@@H@ZA[edx*4]
  0028c	ff d0		 call	 eax

; 1054 : 
; 1055 : 	ui_set_origin (0.0, 0.0);

  0028e	51		 push	 ecx
  0028f	0f 57 c0	 xorps	 xmm0, xmm0
  00292	f3 0f 11 04 24	 movss	 DWORD PTR [esp], xmm0
  00297	51		 push	 ecx
  00298	0f 57 c0	 xorps	 xmm0, xmm0
  0029b	f3 0f 11 04 24	 movss	 DWORD PTR [esp], xmm0
  002a0	e8 00 00 00 00	 call	 ?ui_set_origin@@YGXMM@Z	; ui_set_origin

; 1056 : }

  002a5	5f		 pop	 edi
  002a6	5e		 pop	 esi
  002a7	5b		 pop	 ebx
  002a8	8b e5		 mov	 esp, ebp
  002aa	5d		 pop	 ebp
  002ab	c2 08 00	 ret	 8
?setup_campaign_completed_dialog@@YGXW4ENTITY_SIDES@@W4CAMPAIGN_COMPLETED_TYPES@@@Z ENDP ; setup_campaign_completed_dialog
_TEXT	ENDS
; Function compile flags: /Odtp /ZI
; File c:\users\nhv90\projects\eech\aphavoc\source\ui_menu\ingame\campaign\campaign.c
;	COMDAT ?setup_campaign_quit_campaign_dialog@@YGXXZ
_TEXT	SEGMENT
?setup_campaign_quit_campaign_dialog@@YGXXZ PROC	; setup_campaign_quit_campaign_dialog, COMDAT

; 531  : {

  00000	55		 push	 ebp
  00001	8b ec		 mov	 ebp, esp
  00003	83 ec 40	 sub	 esp, 64			; 00000040H
  00006	53		 push	 ebx
  00007	56		 push	 esi
  00008	57		 push	 edi

; 532  : 	minimize_all_map_objects ();

  00009	e8 00 00 00 00	 call	 ?minimize_all_map_objects@@YGXXZ ; minimize_all_map_objects

; 533  : 
; 534  : 	set_ui_object_drawable (campaign_full_screen_mask_area, TRUE);

  0000e	6a 01		 push	 1
  00010	a1 00 00 00 00	 mov	 eax, DWORD PTR ?campaign_full_screen_mask_area@@3PAUUI_OBJECT@@A
  00015	50		 push	 eax
  00016	8b 0d 00 00 00
	00		 mov	 ecx, DWORD PTR ?campaign_full_screen_mask_area@@3PAUUI_OBJECT@@A
  0001c	8b 11		 mov	 edx, DWORD PTR [ecx]
  0001e	8b 04 95 00 00
	00 00		 mov	 eax, DWORD PTR ?fn_set_ui_object_drawable@@3PAP6GXPAUUI_OBJECT@@H@ZA[edx*4]
  00025	ff d0		 call	 eax

; 535  : 
; 536  : 	set_ui_object_drawable (campaign_dialog_area, TRUE);

  00027	6a 01		 push	 1
  00029	a1 00 00 00 00	 mov	 eax, DWORD PTR ?campaign_dialog_area@@3PAUUI_OBJECT@@A
  0002e	50		 push	 eax
  0002f	8b 0d 00 00 00
	00		 mov	 ecx, DWORD PTR ?campaign_dialog_area@@3PAUUI_OBJECT@@A
  00035	8b 11		 mov	 edx, DWORD PTR [ecx]
  00037	8b 04 95 00 00
	00 00		 mov	 eax, DWORD PTR ?fn_set_ui_object_drawable@@3PAP6GXPAUUI_OBJECT@@H@ZA[edx*4]
  0003e	ff d0		 call	 eax

; 537  : 
; 538  : 	set_ui_object_drawable (campaign_quit_campaign_area, TRUE);

  00040	6a 01		 push	 1
  00042	a1 00 00 00 00	 mov	 eax, DWORD PTR ?campaign_quit_campaign_area@@3PAUUI_OBJECT@@A
  00047	50		 push	 eax
  00048	8b 0d 00 00 00
	00		 mov	 ecx, DWORD PTR ?campaign_quit_campaign_area@@3PAUUI_OBJECT@@A
  0004e	8b 11		 mov	 edx, DWORD PTR [ecx]
  00050	8b 04 95 00 00
	00 00		 mov	 eax, DWORD PTR ?fn_set_ui_object_drawable@@3PAP6GXPAUUI_OBJECT@@H@ZA[edx*4]
  00057	ff d0		 call	 eax

; 539  : 
; 540  : 	push_event (quit_campaign_set_events, "quit campaign events");

  00059	68 00 00 00 00	 push	 OFFSET ??_C@_0BF@MBCBKKEM@quit?5campaign?5events@
  0005e	68 00 00 00 00	 push	 OFFSET ?quit_campaign_set_events@@YGXXZ ; quit_campaign_set_events
  00063	e8 00 00 00 00	 call	 ?push_event@@YGXP6GXXZPBD@Z ; push_event

; 541  : }

  00068	5f		 pop	 edi
  00069	5e		 pop	 esi
  0006a	5b		 pop	 ebx
  0006b	8b e5		 mov	 esp, ebp
  0006d	5d		 pop	 ebp
  0006e	c3		 ret	 0
?setup_campaign_quit_campaign_dialog@@YGXXZ ENDP	; setup_campaign_quit_campaign_dialog
_TEXT	ENDS
; Function compile flags: /Odtp /ZI
; File c:\users\nhv90\projects\eech\aphavoc\source\ui_menu\ingame\campaign\campaign.c
;	COMDAT ?setup_campaign_quit_mission_dialog@@YGXXZ
_TEXT	SEGMENT
?setup_campaign_quit_mission_dialog@@YGXXZ PROC		; setup_campaign_quit_mission_dialog, COMDAT

; 428  : {

  00000	55		 push	 ebp
  00001	8b ec		 mov	 ebp, esp
  00003	83 ec 40	 sub	 esp, 64			; 00000040H
  00006	53		 push	 ebx
  00007	56		 push	 esi
  00008	57		 push	 edi

; 429  : 	minimize_all_map_objects ();

  00009	e8 00 00 00 00	 call	 ?minimize_all_map_objects@@YGXXZ ; minimize_all_map_objects

; 430  : 
; 431  : 	set_ui_object_drawable (campaign_full_screen_mask_area, TRUE);

  0000e	6a 01		 push	 1
  00010	a1 00 00 00 00	 mov	 eax, DWORD PTR ?campaign_full_screen_mask_area@@3PAUUI_OBJECT@@A
  00015	50		 push	 eax
  00016	8b 0d 00 00 00
	00		 mov	 ecx, DWORD PTR ?campaign_full_screen_mask_area@@3PAUUI_OBJECT@@A
  0001c	8b 11		 mov	 edx, DWORD PTR [ecx]
  0001e	8b 04 95 00 00
	00 00		 mov	 eax, DWORD PTR ?fn_set_ui_object_drawable@@3PAP6GXPAUUI_OBJECT@@H@ZA[edx*4]
  00025	ff d0		 call	 eax

; 432  : 
; 433  : 	set_ui_object_drawable (campaign_dialog_area, TRUE);

  00027	6a 01		 push	 1
  00029	a1 00 00 00 00	 mov	 eax, DWORD PTR ?campaign_dialog_area@@3PAUUI_OBJECT@@A
  0002e	50		 push	 eax
  0002f	8b 0d 00 00 00
	00		 mov	 ecx, DWORD PTR ?campaign_dialog_area@@3PAUUI_OBJECT@@A
  00035	8b 11		 mov	 edx, DWORD PTR [ecx]
  00037	8b 04 95 00 00
	00 00		 mov	 eax, DWORD PTR ?fn_set_ui_object_drawable@@3PAP6GXPAUUI_OBJECT@@H@ZA[edx*4]
  0003e	ff d0		 call	 eax

; 434  : 
; 435  : 	set_ui_object_drawable (campaign_quit_mission_area, TRUE);

  00040	6a 01		 push	 1
  00042	a1 00 00 00 00	 mov	 eax, DWORD PTR ?campaign_quit_mission_area@@3PAUUI_OBJECT@@A
  00047	50		 push	 eax
  00048	8b 0d 00 00 00
	00		 mov	 ecx, DWORD PTR ?campaign_quit_mission_area@@3PAUUI_OBJECT@@A
  0004e	8b 11		 mov	 edx, DWORD PTR [ecx]
  00050	8b 04 95 00 00
	00 00		 mov	 eax, DWORD PTR ?fn_set_ui_object_drawable@@3PAP6GXPAUUI_OBJECT@@H@ZA[edx*4]
  00057	ff d0		 call	 eax

; 436  : 
; 437  : 	push_event (quit_mission_set_events, "quit mission events");

  00059	68 00 00 00 00	 push	 OFFSET ??_C@_0BE@HEEHLODO@quit?5mission?5events@
  0005e	68 00 00 00 00	 push	 OFFSET ?quit_mission_set_events@@YGXXZ ; quit_mission_set_events
  00063	e8 00 00 00 00	 call	 ?push_event@@YGXP6GXXZPBD@Z ; push_event

; 438  : }

  00068	5f		 pop	 edi
  00069	5e		 pop	 esi
  0006a	5b		 pop	 ebx
  0006b	8b e5		 mov	 esp, ebp
  0006d	5d		 pop	 ebp
  0006e	c3		 ret	 0
?setup_campaign_quit_mission_dialog@@YGXXZ ENDP		; setup_campaign_quit_mission_dialog
_TEXT	ENDS
; Function compile flags: /Odtp /ZI
; File c:\users\nhv90\projects\eech\aphavoc\source\ui_menu\ingame\campaign\campaign.c
;	COMDAT ?initialise_campaign_screen@@YGXXZ
_TEXT	SEGMENT
tv1037 = -356						; size = 8
tv971 = -356						; size = 8
_string$ = -284						; size = 256
_y_size$ = -28						; size = 4
_x_size$ = -24						; size = 4
_y2$ = -20						; size = 4
_x2$ = -16						; size = 4
_y1$ = -12						; size = 4
_x1$ = -8						; size = 4
_temp$ = -4						; size = 4
?initialise_campaign_screen@@YGXXZ PROC			; initialise_campaign_screen, COMDAT

; 552  : {

  00000	55		 push	 ebp
  00001	8b ec		 mov	 ebp, esp
  00003	81 ec 64 01 00
	00		 sub	 esp, 356		; 00000164H
  00009	53		 push	 ebx
  0000a	56		 push	 esi
  0000b	57		 push	 edi

; 553  : 	ui_object
; 554  : 		*temp;
; 555  : 
; 556  : 	float
; 557  : 		x1,
; 558  : 		y1,
; 559  : 		x2,
; 560  : 		y2,
; 561  : 		x_size,
; 562  : 		y_size;
; 563  : 
; 564  : 	char
; 565  : 		string [256];
; 566  : 
; 567  : 	blue_campaign_complete_graphic = create_texture_graphic ( "graphics\\ui\\cohokum\\map\\bvictory.psd" );

  0000c	68 00 00 00 00	 push	 OFFSET ??_C@_0CF@NEINMOPO@graphics?2ui?2cohokum?2map?2bvictor@
  00011	e8 00 00 00 00	 call	 ?create_texture_graphic@@YGPAUTEXTURE_GRAPHIC@@PBD@Z ; create_texture_graphic
  00016	a3 00 00 00 00	 mov	 DWORD PTR ?blue_campaign_complete_graphic@@3PAUTEXTURE_GRAPHIC@@A, eax

; 568  : 	red_campaign_complete_graphic = create_texture_graphic ( "graphics\\ui\\cohokum\\map\\rvictory.psd" );

  0001b	68 00 00 00 00	 push	 OFFSET ??_C@_0CF@GAIKGICE@graphics?2ui?2cohokum?2map?2rvictor@
  00020	e8 00 00 00 00	 call	 ?create_texture_graphic@@YGPAUTEXTURE_GRAPHIC@@PBD@Z ; create_texture_graphic
  00025	a3 00 00 00 00	 mov	 DWORD PTR ?red_campaign_complete_graphic@@3PAUTEXTURE_GRAPHIC@@A, eax

; 569  : 
; 570  : 	initialise_campaign_screen_message_responses ();

  0002a	e8 00 00 00 00	 call	 ?initialise_campaign_screen_message_responses@@YGXXZ ; initialise_campaign_screen_message_responses

; 571  : 
; 572  : 	x_size = 1.0;

  0002f	f3 0f 10 05 00
	00 00 00	 movss	 xmm0, DWORD PTR __real@3f800000
  00037	f3 0f 11 45 e8	 movss	 DWORD PTR _x_size$[ebp], xmm0

; 573  : 	y_size = 1.0;

  0003c	f3 0f 10 05 00
	00 00 00	 movss	 xmm0, DWORD PTR __real@3f800000
  00044	f3 0f 11 45 e4	 movss	 DWORD PTR _y_size$[ebp], xmm0

; 574  : 
; 575  : 	/////////////////////////////////////////////////////////////////
; 576  : 
; 577  :    campaign_screen = create_ui_object

  00049	6a 11		 push	 17			; 00000011H
  0004b	6a 01		 push	 1
  0004d	6a 07		 push	 7
  0004f	68 00 00 00 00	 push	 OFFSET ?campaign_screen_draw_function@@YGXPAUUI_OBJECT@@PAX@Z ; campaign_screen_draw_function
  00054	6a 0f		 push	 15			; 0000000fH
  00056	68 00 00 00 00	 push	 OFFSET ?notify_campaign_screen_entered@@YGXPAUUI_OBJECT@@PAX@Z ; notify_campaign_screen_entered
  0005b	6a 16		 push	 22			; 00000016H
  0005d	f3 0f 5a 45 e4	 cvtss2sd xmm0, DWORD PTR _y_size$[ebp]
  00062	83 ec 08	 sub	 esp, 8
  00065	f2 0f 11 04 24	 movsd	 QWORD PTR [esp], xmm0
  0006a	f3 0f 5a 45 e8	 cvtss2sd xmm0, DWORD PTR _x_size$[ebp]
  0006f	83 ec 08	 sub	 esp, 8
  00072	f2 0f 11 04 24	 movsd	 QWORD PTR [esp], xmm0
  00077	6a 59		 push	 89			; 00000059H
  00079	83 ec 08	 sub	 esp, 8
  0007c	0f 57 c0	 xorps	 xmm0, xmm0
  0007f	f2 0f 11 04 24	 movsd	 QWORD PTR [esp], xmm0
  00084	83 ec 08	 sub	 esp, 8
  00087	0f 57 c0	 xorps	 xmm0, xmm0
  0008a	f2 0f 11 04 24	 movsd	 QWORD PTR [esp], xmm0
  0008f	6a 58		 push	 88			; 00000058H
  00091	6a 06		 push	 6
  00093	e8 00 00 00 00	 call	 ?create_ui_object@@YAPAUUI_OBJECT@@HZZ ; create_ui_object
  00098	83 c4 48	 add	 esp, 72			; 00000048H
  0009b	a3 00 00 00 00	 mov	 DWORD PTR ?campaign_screen@@3PAUUI_OBJECT@@A, eax ; campaign_screen

; 578  :             (
; 579  :                UI_TYPE_SCREEN,
; 580  :                UI_ATTR_VIRTUAL_POSITION (0, 0),
; 581  :                UI_ATTR_VIRTUAL_SIZE (x_size, y_size),
; 582  : 					UI_ATTR_FUNCTION (notify_campaign_screen_entered),
; 583  : 					UI_ATTR_DRAW_FUNCTION (campaign_screen_draw_function),
; 584  : 					UI_ATTR_CLEAR (TRUE),
; 585  :                UI_ATTR_END
; 586  :             );
; 587  : 
; 588  : 	/////////////////////////////////////////////////////////////////
; 589  : 	// ORDER IS CRITICAL.....
; 590  : 
; 591  : 	define_campaign_screen_briefing_page_objects ();

  000a0	e8 00 00 00 00	 call	 ?define_campaign_screen_briefing_page_objects@@YGXXZ ; define_campaign_screen_briefing_page_objects

; 592  : 
; 593  : 	define_campaign_screen_debriefing_page_objects ();

  000a5	e8 00 00 00 00	 call	 ?define_campaign_screen_debriefing_page_objects@@YGXXZ ; define_campaign_screen_debriefing_page_objects

; 594  : 
; 595  : 	/////////////////////////////////////////////////////////////////
; 596  : 
; 597  : 	define_campaign_screen_group_page_objects ();

  000aa	e8 00 00 00 00	 call	 ?define_campaign_screen_group_page_objects@@YGXXZ ; define_campaign_screen_group_page_objects

; 598  : 
; 599  : 	/////////////////////////////////////////////////////////////////
; 600  : 
; 601  : 	define_campaign_screen_base_page_objects ();

  000af	e8 00 00 00 00	 call	 ?define_campaign_screen_base_page_objects@@YGXXZ ; define_campaign_screen_base_page_objects

; 602  : 
; 603  : 	/////////////////////////////////////////////////////////////////
; 604  : 
; 605  : 	define_campaign_screen_list_objects ();

  000b4	e8 00 00 00 00	 call	 ?define_campaign_screen_list_objects@@YGXXZ ; define_campaign_screen_list_objects

; 606  : 
; 607  : 	/////////////////////////////////////////////////////////////////
; 608  : 
; 609  : 	define_campaign_screen_map_page_objects ();

  000b9	e8 00 00 00 00	 call	 ?define_campaign_screen_map_page_objects@@YGXXZ ; define_campaign_screen_map_page_objects

; 610  : 
; 611  : 	/////////////////////////////////////////////////////////////////
; 612  : 
; 613  : 	define_campaign_screen_stats_page_objects ();

  000be	e8 00 00 00 00	 call	 ?define_campaign_screen_stats_page_objects@@YGXXZ ; define_campaign_screen_stats_page_objects

; 614  : 
; 615  : 	/////////////////////////////////////////////////////////////////
; 616  : 
; 617  : 	define_campaign_screen_save_page_objects ();

  000c3	e8 00 00 00 00	 call	 ?define_campaign_screen_save_page_objects@@YGXXZ ; define_campaign_screen_save_page_objects

; 618  : 
; 619  : 	/////////////////////////////////////////////////////////////////
; 620  : 
; 621  : 	define_campaign_screen_chat_page_objects ();

  000c8	e8 00 00 00 00	 call	 ?define_campaign_screen_chat_page_objects@@YGXXZ ; define_campaign_screen_chat_page_objects

; 622  : 
; 623  : 	/////////////////////////////////////////////////////////////////
; 624  : 
; 625  : 	define_campaign_screen_log_page_objects ();

  000cd	e8 00 00 00 00	 call	 ?define_campaign_screen_log_page_objects@@YGXXZ ; define_campaign_screen_log_page_objects

; 626  : 
; 627  : 	/////////////////////////////////////////////////////////////////
; 628  : 
; 629  : 	define_campaign_screen_weapon_loading_page_objects ();

  000d2	e8 00 00 00 00	 call	 ?define_campaign_screen_weapon_loading_page_objects@@YGXXZ ; define_campaign_screen_weapon_loading_page_objects

; 630  : 
; 631  : 	/////////////////////////////////////////////////////////////////
; 632  : 
; 633  : 	define_campaign_screen_menu_objects ();

  000d7	e8 00 00 00 00	 call	 ?define_campaign_screen_menu_objects@@YGXXZ ; define_campaign_screen_menu_objects

; 634  : 
; 635  : 	define_campaign_screen_selection_objects ();

  000dc	e8 00 00 00 00	 call	 ?define_campaign_screen_selection_objects@@YGXXZ ; define_campaign_screen_selection_objects

; 636  : 
; 637  : 	define_campaign_screen_info_objects ();

  000e1	e8 00 00 00 00	 call	 ?define_campaign_screen_info_objects@@YGXXZ ; define_campaign_screen_info_objects

; 638  : 
; 639  : 	define_campaign_screen_full_screen_map_objects ();

  000e6	e8 00 00 00 00	 call	 ?define_campaign_screen_full_screen_map_objects@@YGXXZ ; define_campaign_screen_full_screen_map_objects

; 640  : 
; 641  : 	/////////////////////////////////////////////////////////////////
; 642  : 
; 643  : 	x1 = 0.0;

  000eb	0f 57 c0	 xorps	 xmm0, xmm0
  000ee	f3 0f 11 45 f8	 movss	 DWORD PTR _x1$[ebp], xmm0

; 644  : 	y1 = 0.0;

  000f3	0f 57 c0	 xorps	 xmm0, xmm0
  000f6	f3 0f 11 45 f4	 movss	 DWORD PTR _y1$[ebp], xmm0

; 645  : 	x2 = 1.0;

  000fb	f3 0f 10 05 00
	00 00 00	 movss	 xmm0, DWORD PTR __real@3f800000
  00103	f3 0f 11 45 f0	 movss	 DWORD PTR _x2$[ebp], xmm0

; 646  : 	y2 = 1.0;

  00108	f3 0f 10 05 00
	00 00 00	 movss	 xmm0, DWORD PTR __real@3f800000
  00110	f3 0f 11 45 ec	 movss	 DWORD PTR _y2$[ebp], xmm0

; 647  : 
; 648  : 	campaign_full_screen_mask_area = create_ui_object

  00115	6a 11		 push	 17			; 00000011H
  00117	a1 00 00 00 00	 mov	 eax, DWORD PTR ?common_grey_alpha_mask@@3PAUTEXTURE_GRAPHIC@@A ; common_grey_alpha_mask
  0011c	50		 push	 eax
  0011d	6a 4c		 push	 76			; 0000004cH
  0011f	f3 0f 10 45 ec	 movss	 xmm0, DWORD PTR _y2$[ebp]
  00124	f3 0f 5c 45 f4	 subss	 xmm0, DWORD PTR _y1$[ebp]
  00129	f3 0f 5a c0	 cvtss2sd xmm0, xmm0
  0012d	83 ec 08	 sub	 esp, 8
  00130	f2 0f 11 04 24	 movsd	 QWORD PTR [esp], xmm0
  00135	f3 0f 10 45 f0	 movss	 xmm0, DWORD PTR _x2$[ebp]
  0013a	f3 0f 5c 45 f8	 subss	 xmm0, DWORD PTR _x1$[ebp]
  0013f	f3 0f 5a c0	 cvtss2sd xmm0, xmm0
  00143	83 ec 08	 sub	 esp, 8
  00146	f2 0f 11 04 24	 movsd	 QWORD PTR [esp], xmm0
  0014b	6a 59		 push	 89			; 00000059H
  0014d	f3 0f 5a 45 f4	 cvtss2sd xmm0, DWORD PTR _y1$[ebp]
  00152	83 ec 08	 sub	 esp, 8
  00155	f2 0f 11 04 24	 movsd	 QWORD PTR [esp], xmm0
  0015a	f3 0f 5a 45 f8	 cvtss2sd xmm0, DWORD PTR _x1$[ebp]
  0015f	83 ec 08	 sub	 esp, 8
  00162	f2 0f 11 04 24	 movsd	 QWORD PTR [esp], xmm0
  00167	6a 58		 push	 88			; 00000058H
  00169	8b 0d 00 00 00
	00		 mov	 ecx, DWORD PTR ?campaign_screen@@3PAUUI_OBJECT@@A ; campaign_screen
  0016f	51		 push	 ecx
  00170	6a 32		 push	 50			; 00000032H
  00172	6a 01		 push	 1
  00174	e8 00 00 00 00	 call	 ?create_ui_object@@YAPAUUI_OBJECT@@HZZ ; create_ui_object
  00179	83 c4 40	 add	 esp, 64			; 00000040H
  0017c	a3 00 00 00 00	 mov	 DWORD PTR ?campaign_full_screen_mask_area@@3PAUUI_OBJECT@@A, eax

; 649  : 		(
; 650  : 			UI_TYPE_AREA,
; 651  : 			UI_ATTR_PARENT (campaign_screen),
; 652  : 			UI_ATTR_VIRTUAL_POSITION (x1, y1),
; 653  : 			UI_ATTR_VIRTUAL_SIZE (x2 - x1, y2 - y1),
; 654  : 			UI_ATTR_TEXTURE_GRAPHIC (common_grey_alpha_mask),
; 655  : 			UI_ATTR_END
; 656  : 		);
; 657  : 
; 658  : 	x1 = CAMPAIGN_INSET_PAGE_X1;

  00181	f3 0f 10 05 00
	00 00 00	 movss	 xmm0, DWORD PTR __real@3e6147ae
  00189	f3 0f 11 45 f8	 movss	 DWORD PTR _x1$[ebp], xmm0

; 659  : 	y1 = CAMPAIGN_INSET_PAGE_Y1;

  0018e	f3 0f 10 05 00
	00 00 00	 movss	 xmm0, DWORD PTR __real@3d449ba6
  00196	f3 0f 11 45 f4	 movss	 DWORD PTR _y1$[ebp], xmm0

; 660  : 	x2 = CAMPAIGN_INSET_PAGE_X2;

  0019b	f3 0f 10 05 00
	00 00 00	 movss	 xmm0, DWORD PTR __real@3f800000
  001a3	f3 0f 11 45 f0	 movss	 DWORD PTR _x2$[ebp], xmm0

; 661  : 	y2 = CAMPAIGN_INSET_PAGE_Y2;

  001a8	f3 0f 10 05 00
	00 00 00	 movss	 xmm0, DWORD PTR __real@3f47ae14
  001b0	f3 0f 11 45 ec	 movss	 DWORD PTR _y2$[ebp], xmm0

; 662  : 
; 663  : 	campaign_dialog_area = create_ui_object

  001b5	6a 11		 push	 17			; 00000011H
  001b7	a1 00 00 00 00	 mov	 eax, DWORD PTR ?common_black_alpha_mask@@3PAUTEXTURE_GRAPHIC@@A ; common_black_alpha_mask
  001bc	50		 push	 eax
  001bd	6a 4c		 push	 76			; 0000004cH
  001bf	f3 0f 10 45 ec	 movss	 xmm0, DWORD PTR _y2$[ebp]
  001c4	f3 0f 5c 45 f4	 subss	 xmm0, DWORD PTR _y1$[ebp]
  001c9	f3 0f 5a c0	 cvtss2sd xmm0, xmm0
  001cd	83 ec 08	 sub	 esp, 8
  001d0	f2 0f 11 04 24	 movsd	 QWORD PTR [esp], xmm0
  001d5	f3 0f 10 45 f0	 movss	 xmm0, DWORD PTR _x2$[ebp]
  001da	f3 0f 5c 45 f8	 subss	 xmm0, DWORD PTR _x1$[ebp]
  001df	f3 0f 5a c0	 cvtss2sd xmm0, xmm0
  001e3	83 ec 08	 sub	 esp, 8
  001e6	f2 0f 11 04 24	 movsd	 QWORD PTR [esp], xmm0
  001eb	6a 59		 push	 89			; 00000059H
  001ed	f3 0f 5a 45 f4	 cvtss2sd xmm0, DWORD PTR _y1$[ebp]
  001f2	83 ec 08	 sub	 esp, 8
  001f5	f2 0f 11 04 24	 movsd	 QWORD PTR [esp], xmm0
  001fa	f3 0f 5a 45 f8	 cvtss2sd xmm0, DWORD PTR _x1$[ebp]
  001ff	83 ec 08	 sub	 esp, 8
  00202	f2 0f 11 04 24	 movsd	 QWORD PTR [esp], xmm0
  00207	6a 58		 push	 88			; 00000058H
  00209	8b 0d 00 00 00
	00		 mov	 ecx, DWORD PTR ?campaign_full_screen_mask_area@@3PAUUI_OBJECT@@A
  0020f	51		 push	 ecx
  00210	6a 32		 push	 50			; 00000032H
  00212	6a 01		 push	 1
  00214	e8 00 00 00 00	 call	 ?create_ui_object@@YAPAUUI_OBJECT@@HZZ ; create_ui_object
  00219	83 c4 40	 add	 esp, 64			; 00000040H
  0021c	a3 00 00 00 00	 mov	 DWORD PTR ?campaign_dialog_area@@3PAUUI_OBJECT@@A, eax

; 664  : 		(
; 665  : 			UI_TYPE_AREA,
; 666  : 			UI_ATTR_PARENT (campaign_full_screen_mask_area),
; 667  : 			UI_ATTR_VIRTUAL_POSITION (x1, y1),
; 668  : 			UI_ATTR_VIRTUAL_SIZE (x2 - x1, y2 - y1),
; 669  : 			UI_ATTR_TEXTURE_GRAPHIC (common_black_alpha_mask),
; 670  : 			UI_ATTR_END
; 671  : 		);
; 672  : 
; 673  : 	/////////////////////////////////////////////////////////////////
; 674  : 	//
; 675  : 	// Campaign Complete
; 676  : 	//
; 677  : 	/////////////////////////////////////////////////////////////////
; 678  : 
; 679  : 	x1 = 0.0;

  00221	0f 57 c0	 xorps	 xmm0, xmm0
  00224	f3 0f 11 45 f8	 movss	 DWORD PTR _x1$[ebp], xmm0

; 680  : 	y1 = 0.0;

  00229	0f 57 c0	 xorps	 xmm0, xmm0
  0022c	f3 0f 11 45 f4	 movss	 DWORD PTR _y1$[ebp], xmm0

; 681  : 	x2 = 1.0;

  00231	f3 0f 10 05 00
	00 00 00	 movss	 xmm0, DWORD PTR __real@3f800000
  00239	f3 0f 11 45 f0	 movss	 DWORD PTR _x2$[ebp], xmm0

; 682  : 	y2 = 1.0;

  0023e	f3 0f 10 05 00
	00 00 00	 movss	 xmm0, DWORD PTR __real@3f800000
  00246	f3 0f 11 45 ec	 movss	 DWORD PTR _y2$[ebp], xmm0

; 683  : 
; 684  : 	campaign_complete_area = create_ui_object

  0024b	6a 11		 push	 17			; 00000011H
  0024d	f3 0f 10 45 ec	 movss	 xmm0, DWORD PTR _y2$[ebp]
  00252	f3 0f 5c 45 f4	 subss	 xmm0, DWORD PTR _y1$[ebp]
  00257	f3 0f 5a c0	 cvtss2sd xmm0, xmm0
  0025b	83 ec 08	 sub	 esp, 8
  0025e	f2 0f 11 04 24	 movsd	 QWORD PTR [esp], xmm0
  00263	f3 0f 10 45 f0	 movss	 xmm0, DWORD PTR _x2$[ebp]
  00268	f3 0f 5c 45 f8	 subss	 xmm0, DWORD PTR _x1$[ebp]
  0026d	f3 0f 5a c0	 cvtss2sd xmm0, xmm0
  00271	83 ec 08	 sub	 esp, 8
  00274	f2 0f 11 04 24	 movsd	 QWORD PTR [esp], xmm0
  00279	6a 59		 push	 89			; 00000059H
  0027b	f3 0f 5a 45 f4	 cvtss2sd xmm0, DWORD PTR _y1$[ebp]
  00280	83 ec 08	 sub	 esp, 8
  00283	f2 0f 11 04 24	 movsd	 QWORD PTR [esp], xmm0
  00288	f3 0f 5a 45 f8	 cvtss2sd xmm0, DWORD PTR _x1$[ebp]
  0028d	83 ec 08	 sub	 esp, 8
  00290	f2 0f 11 04 24	 movsd	 QWORD PTR [esp], xmm0
  00295	6a 58		 push	 88			; 00000058H
  00297	a1 00 00 00 00	 mov	 eax, DWORD PTR ?campaign_dialog_area@@3PAUUI_OBJECT@@A
  0029c	50		 push	 eax
  0029d	6a 32		 push	 50			; 00000032H
  0029f	6a 01		 push	 1
  002a1	e8 00 00 00 00	 call	 ?create_ui_object@@YAPAUUI_OBJECT@@HZZ ; create_ui_object
  002a6	83 c4 38	 add	 esp, 56			; 00000038H
  002a9	a3 00 00 00 00	 mov	 DWORD PTR ?campaign_complete_area@@3PAUUI_OBJECT@@A, eax

; 685  : 		(
; 686  : 			UI_TYPE_AREA,
; 687  : 			UI_ATTR_PARENT (campaign_dialog_area),
; 688  : 			UI_ATTR_VIRTUAL_POSITION (x1, y1),
; 689  : 			UI_ATTR_VIRTUAL_SIZE (x2 - x1, y2 - y1),
; 690  : 			UI_ATTR_END
; 691  : 		);
; 692  : 
; 693  : 	x1 = 0.0;

  002ae	0f 57 c0	 xorps	 xmm0, xmm0
  002b1	f3 0f 11 45 f8	 movss	 DWORD PTR _x1$[ebp], xmm0

; 694  : 	y1 = 0.59;

  002b6	f3 0f 10 05 00
	00 00 00	 movss	 xmm0, DWORD PTR __real@3f170a3d
  002be	f3 0f 11 45 f4	 movss	 DWORD PTR _y1$[ebp], xmm0

; 695  : 	x2 = 1.0;

  002c3	f3 0f 10 05 00
	00 00 00	 movss	 xmm0, DWORD PTR __real@3f800000
  002cb	f3 0f 11 45 f0	 movss	 DWORD PTR _x2$[ebp], xmm0

; 696  : 	y2 = 0.66;

  002d0	f3 0f 10 05 00
	00 00 00	 movss	 xmm0, DWORD PTR __real@3f28f5c3
  002d8	f3 0f 11 45 ec	 movss	 DWORD PTR _y2$[ebp], xmm0

; 697  : 
; 698  : 	create_ui_object

  002dd	6a 11		 push	 17			; 00000011H
  002df	6a 01		 push	 1
  002e1	6a 07		 push	 7
  002e3	6a 0a		 push	 10			; 0000000aH
  002e5	6a 12		 push	 18			; 00000012H
  002e7	68 00 00 00 00	 push	 OFFSET ??_C@_0O@IHCKIJCG@Campaign?5Over@
  002ec	e8 00 00 00 00	 call	 ?get_trans@@YGPBDPBD@Z	; get_trans
  002f1	50		 push	 eax
  002f2	6a 4a		 push	 74			; 0000004aH
  002f4	f3 0f 10 45 ec	 movss	 xmm0, DWORD PTR _y2$[ebp]
  002f9	f3 0f 5c 45 f4	 subss	 xmm0, DWORD PTR _y1$[ebp]
  002fe	f3 0f 5a c0	 cvtss2sd xmm0, xmm0
  00302	83 ec 08	 sub	 esp, 8
  00305	f2 0f 11 04 24	 movsd	 QWORD PTR [esp], xmm0
  0030a	f3 0f 10 45 f0	 movss	 xmm0, DWORD PTR _x2$[ebp]
  0030f	f3 0f 5c 45 f8	 subss	 xmm0, DWORD PTR _x1$[ebp]
  00314	f3 0f 5a c0	 cvtss2sd xmm0, xmm0
  00318	83 ec 08	 sub	 esp, 8
  0031b	f2 0f 11 04 24	 movsd	 QWORD PTR [esp], xmm0
  00320	6a 59		 push	 89			; 00000059H
  00322	f3 0f 5a 45 f4	 cvtss2sd xmm0, DWORD PTR _y1$[ebp]
  00327	83 ec 08	 sub	 esp, 8
  0032a	f2 0f 11 04 24	 movsd	 QWORD PTR [esp], xmm0
  0032f	f3 0f 5a 45 f8	 cvtss2sd xmm0, DWORD PTR _x1$[ebp]
  00334	83 ec 08	 sub	 esp, 8
  00337	f2 0f 11 04 24	 movsd	 QWORD PTR [esp], xmm0
  0033c	6a 58		 push	 88			; 00000058H
  0033e	a1 00 00 00 00	 mov	 eax, DWORD PTR ?campaign_complete_area@@3PAUUI_OBJECT@@A
  00343	50		 push	 eax
  00344	6a 32		 push	 50			; 00000032H
  00346	6a 01		 push	 1
  00348	e8 00 00 00 00	 call	 ?create_ui_object@@YAPAUUI_OBJECT@@HZZ ; create_ui_object
  0034d	83 c4 50	 add	 esp, 80			; 00000050H

; 699  : 		(
; 700  : 			UI_TYPE_AREA,
; 701  : 			UI_ATTR_PARENT (campaign_complete_area),
; 702  : 			UI_ATTR_VIRTUAL_POSITION (x1, y1),
; 703  : 			UI_ATTR_VIRTUAL_SIZE (x2 - x1, y2 - y1),
; 704  : 			UI_ATTR_TEXT (get_trans ("Campaign Over")),
; 705  : 			UI_ATTR_FONT_TYPE (UI_FONT_ARIAL_22),
; 706  : 			UI_ATTR_CLEAR (TRUE),
; 707  : 			UI_ATTR_END
; 708  : 		);
; 709  : 
; 710  : 	x1 = 0.0;

  00350	0f 57 c0	 xorps	 xmm0, xmm0
  00353	f3 0f 11 45 f8	 movss	 DWORD PTR _x1$[ebp], xmm0

; 711  : 	y1 = 0.665;

  00358	f3 0f 10 05 00
	00 00 00	 movss	 xmm0, DWORD PTR __real@3f2a3d71
  00360	f3 0f 11 45 f4	 movss	 DWORD PTR _y1$[ebp], xmm0

; 712  : 	x2 = 1.0;

  00365	f3 0f 10 05 00
	00 00 00	 movss	 xmm0, DWORD PTR __real@3f800000
  0036d	f3 0f 11 45 f0	 movss	 DWORD PTR _x2$[ebp], xmm0

; 713  : 	y2 = 0.726;

  00372	f3 0f 10 05 00
	00 00 00	 movss	 xmm0, DWORD PTR __real@3f39db23
  0037a	f3 0f 11 45 ec	 movss	 DWORD PTR _y2$[ebp], xmm0

; 714  : 
; 715  : 	campaign_complete_side = create_ui_object

  0037f	6a 11		 push	 17			; 00000011H
  00381	6a 01		 push	 1
  00383	6a 07		 push	 7
  00385	6a 0a		 push	 10			; 0000000aH
  00387	6a 12		 push	 18			; 00000012H
  00389	f3 0f 10 45 ec	 movss	 xmm0, DWORD PTR _y2$[ebp]
  0038e	f3 0f 5c 45 f4	 subss	 xmm0, DWORD PTR _y1$[ebp]
  00393	f3 0f 5a c0	 cvtss2sd xmm0, xmm0
  00397	83 ec 08	 sub	 esp, 8
  0039a	f2 0f 11 04 24	 movsd	 QWORD PTR [esp], xmm0
  0039f	f3 0f 10 45 f0	 movss	 xmm0, DWORD PTR _x2$[ebp]
  003a4	f3 0f 5c 45 f8	 subss	 xmm0, DWORD PTR _x1$[ebp]
  003a9	f3 0f 5a c0	 cvtss2sd xmm0, xmm0
  003ad	83 ec 08	 sub	 esp, 8
  003b0	f2 0f 11 04 24	 movsd	 QWORD PTR [esp], xmm0
  003b5	6a 59		 push	 89			; 00000059H
  003b7	f3 0f 5a 45 f4	 cvtss2sd xmm0, DWORD PTR _y1$[ebp]
  003bc	83 ec 08	 sub	 esp, 8
  003bf	f2 0f 11 04 24	 movsd	 QWORD PTR [esp], xmm0
  003c4	f3 0f 5a 45 f8	 cvtss2sd xmm0, DWORD PTR _x1$[ebp]
  003c9	83 ec 08	 sub	 esp, 8
  003cc	f2 0f 11 04 24	 movsd	 QWORD PTR [esp], xmm0
  003d1	6a 58		 push	 88			; 00000058H
  003d3	a1 00 00 00 00	 mov	 eax, DWORD PTR ?campaign_complete_area@@3PAUUI_OBJECT@@A
  003d8	50		 push	 eax
  003d9	6a 32		 push	 50			; 00000032H
  003db	6a 01		 push	 1
  003dd	e8 00 00 00 00	 call	 ?create_ui_object@@YAPAUUI_OBJECT@@HZZ ; create_ui_object
  003e2	83 c4 48	 add	 esp, 72			; 00000048H
  003e5	a3 00 00 00 00	 mov	 DWORD PTR ?campaign_complete_side@@3PAUUI_OBJECT@@A, eax

; 716  : 		(
; 717  : 			UI_TYPE_AREA,
; 718  : 			UI_ATTR_PARENT (campaign_complete_area),
; 719  : 			UI_ATTR_VIRTUAL_POSITION (x1, y1),
; 720  : 			UI_ATTR_VIRTUAL_SIZE (x2 - x1, y2 - y1),
; 721  : 			UI_ATTR_FONT_TYPE (UI_FONT_ARIAL_22),
; 722  : 			UI_ATTR_CLEAR (TRUE),
; 723  : 			UI_ATTR_END
; 724  : 		);
; 725  : 
; 726  : 	x1 = 0.0;

  003ea	0f 57 c0	 xorps	 xmm0, xmm0
  003ed	f3 0f 11 45 f8	 movss	 DWORD PTR _x1$[ebp], xmm0

; 727  : 	y1 = 0.760;

  003f2	f3 0f 10 05 00
	00 00 00	 movss	 xmm0, DWORD PTR __real@3f428f5c
  003fa	f3 0f 11 45 f4	 movss	 DWORD PTR _y1$[ebp], xmm0

; 728  : 	x2 = 1.0;

  003ff	f3 0f 10 05 00
	00 00 00	 movss	 xmm0, DWORD PTR __real@3f800000
  00407	f3 0f 11 45 f0	 movss	 DWORD PTR _x2$[ebp], xmm0

; 729  : 	y2 = 0.820;

  0040c	f3 0f 10 05 00
	00 00 00	 movss	 xmm0, DWORD PTR __real@3f51eb85
  00414	f3 0f 11 45 ec	 movss	 DWORD PTR _y2$[ebp], xmm0

; 730  : 
; 731  : 	campaign_complete_reason = create_ui_object

  00419	6a 11		 push	 17			; 00000011H
  0041b	6a 01		 push	 1
  0041d	6a 07		 push	 7
  0041f	6a 03		 push	 3
  00421	6a 12		 push	 18			; 00000012H
  00423	f3 0f 10 45 ec	 movss	 xmm0, DWORD PTR _y2$[ebp]
  00428	f3 0f 5c 45 f4	 subss	 xmm0, DWORD PTR _y1$[ebp]
  0042d	f3 0f 5a c0	 cvtss2sd xmm0, xmm0
  00431	83 ec 08	 sub	 esp, 8
  00434	f2 0f 11 04 24	 movsd	 QWORD PTR [esp], xmm0
  00439	f3 0f 10 45 f0	 movss	 xmm0, DWORD PTR _x2$[ebp]
  0043e	f3 0f 5c 45 f8	 subss	 xmm0, DWORD PTR _x1$[ebp]
  00443	f3 0f 5a c0	 cvtss2sd xmm0, xmm0
  00447	83 ec 08	 sub	 esp, 8
  0044a	f2 0f 11 04 24	 movsd	 QWORD PTR [esp], xmm0
  0044f	6a 59		 push	 89			; 00000059H
  00451	f3 0f 5a 45 f4	 cvtss2sd xmm0, DWORD PTR _y1$[ebp]
  00456	83 ec 08	 sub	 esp, 8
  00459	f2 0f 11 04 24	 movsd	 QWORD PTR [esp], xmm0
  0045e	f3 0f 5a 45 f8	 cvtss2sd xmm0, DWORD PTR _x1$[ebp]
  00463	83 ec 08	 sub	 esp, 8
  00466	f2 0f 11 04 24	 movsd	 QWORD PTR [esp], xmm0
  0046b	6a 58		 push	 88			; 00000058H
  0046d	a1 00 00 00 00	 mov	 eax, DWORD PTR ?campaign_complete_area@@3PAUUI_OBJECT@@A
  00472	50		 push	 eax
  00473	6a 32		 push	 50			; 00000032H
  00475	6a 01		 push	 1
  00477	e8 00 00 00 00	 call	 ?create_ui_object@@YAPAUUI_OBJECT@@HZZ ; create_ui_object
  0047c	83 c4 48	 add	 esp, 72			; 00000048H
  0047f	a3 00 00 00 00	 mov	 DWORD PTR ?campaign_complete_reason@@3PAUUI_OBJECT@@A, eax

; 732  : 		(
; 733  : 			UI_TYPE_AREA,
; 734  : 			UI_ATTR_PARENT (campaign_complete_area),
; 735  : 			UI_ATTR_VIRTUAL_POSITION (x1, y1),
; 736  : 			UI_ATTR_VIRTUAL_SIZE (x2 - x1, y2 - y1),
; 737  : 			UI_ATTR_FONT_TYPE (UI_FONT_ARIAL_16),
; 738  : 			UI_ATTR_CLEAR (TRUE),
; 739  : 			UI_ATTR_END
; 740  : 		);
; 741  : 
; 742  : 	x1 = 0.323;

  00484	f3 0f 10 05 00
	00 00 00	 movss	 xmm0, DWORD PTR __real@3ea56042
  0048c	f3 0f 11 45 f8	 movss	 DWORD PTR _x1$[ebp], xmm0

; 743  : 	y1 = 0.869;

  00491	f3 0f 10 05 00
	00 00 00	 movss	 xmm0, DWORD PTR __real@3f5e76c9
  00499	f3 0f 11 45 f4	 movss	 DWORD PTR _y1$[ebp], xmm0

; 744  : 	x2 = 0.674;

  0049e	f3 0f 10 05 00
	00 00 00	 movss	 xmm0, DWORD PTR __real@3f2c8b44
  004a6	f3 0f 11 45 f0	 movss	 DWORD PTR _x2$[ebp], xmm0

; 745  : 	y2 = 0.941;

  004ab	f3 0f 10 05 00
	00 00 00	 movss	 xmm0, DWORD PTR __real@3f70e560
  004b3	f3 0f 11 45 ec	 movss	 DWORD PTR _y2$[ebp], xmm0

; 746  : 
; 747  : 	create_ui_object

  004b8	6a 11		 push	 17			; 00000011H
  004ba	68 00 00 00 00	 push	 OFFSET ??_C@_0CE@KAOINKOG@graphics?2ui?2cohokum?2map?2okaybtn@
  004bf	e8 00 00 00 00	 call	 ?create_texture_graphic@@YGPAUTEXTURE_GRAPHIC@@PBD@Z ; create_texture_graphic
  004c4	50		 push	 eax
  004c5	6a 4c		 push	 76			; 0000004cH
  004c7	6a 01		 push	 1
  004c9	6a 1b		 push	 27			; 0000001bH
  004cb	0f b6 05 03 00
	00 00		 movzx	 eax, BYTE PTR ?ui_ingame_selected_text_colour@@3UREAL_COLOUR@@A+3
  004d2	50		 push	 eax
  004d3	0f b6 0d 00 00
	00 00		 movzx	 ecx, BYTE PTR ?ui_ingame_selected_text_colour@@3UREAL_COLOUR@@A
  004da	51		 push	 ecx
  004db	0f b6 15 01 00
	00 00		 movzx	 edx, BYTE PTR ?ui_ingame_selected_text_colour@@3UREAL_COLOUR@@A+1
  004e2	52		 push	 edx
  004e3	0f b6 05 02 00
	00 00		 movzx	 eax, BYTE PTR ?ui_ingame_selected_text_colour@@3UREAL_COLOUR@@A+2
  004ea	50		 push	 eax
  004eb	6a 3d		 push	 61			; 0000003dH
  004ed	0f b6 0d 03 00
	00 00		 movzx	 ecx, BYTE PTR ?ui_ingame_highlight_text_colour@@3UREAL_COLOUR@@A+3
  004f4	51		 push	 ecx
  004f5	0f b6 15 00 00
	00 00		 movzx	 edx, BYTE PTR ?ui_ingame_highlight_text_colour@@3UREAL_COLOUR@@A
  004fc	52		 push	 edx
  004fd	0f b6 05 01 00
	00 00		 movzx	 eax, BYTE PTR ?ui_ingame_highlight_text_colour@@3UREAL_COLOUR@@A+1
  00504	50		 push	 eax
  00505	0f b6 0d 02 00
	00 00		 movzx	 ecx, BYTE PTR ?ui_ingame_highlight_text_colour@@3UREAL_COLOUR@@A+2
  0050c	51		 push	 ecx
  0050d	6a 21		 push	 33			; 00000021H
  0050f	0f b6 15 03 00
	00 00		 movzx	 edx, BYTE PTR ?ui_ingame_live_text_colour@@3UREAL_COLOUR@@A+3
  00516	52		 push	 edx
  00517	0f b6 05 00 00
	00 00		 movzx	 eax, BYTE PTR ?ui_ingame_live_text_colour@@3UREAL_COLOUR@@A
  0051e	50		 push	 eax
  0051f	0f b6 0d 01 00
	00 00		 movzx	 ecx, BYTE PTR ?ui_ingame_live_text_colour@@3UREAL_COLOUR@@A+1
  00526	51		 push	 ecx
  00527	0f b6 15 02 00
	00 00		 movzx	 edx, BYTE PTR ?ui_ingame_live_text_colour@@3UREAL_COLOUR@@A+2
  0052e	52		 push	 edx
  0052f	6a 13		 push	 19			; 00000013H
  00531	6a 05		 push	 5
  00533	6a 12		 push	 18			; 00000012H
  00535	68 00 00 00 00	 push	 OFFSET ?notify_campaign_complete_button@@YGXPAUUI_OBJECT@@PAX@Z ; notify_campaign_complete_button
  0053a	6a 16		 push	 22			; 00000016H
  0053c	68 00 00 00 00	 push	 OFFSET ??_C@_05LMLILOOH@UI_OK@
  00541	e8 00 00 00 00	 call	 ?get_trans@@YGPBDPBD@Z	; get_trans
  00546	50		 push	 eax
  00547	6a 4a		 push	 74			; 0000004aH
  00549	f3 0f 10 45 ec	 movss	 xmm0, DWORD PTR _y2$[ebp]
  0054e	f3 0f 5c 45 f4	 subss	 xmm0, DWORD PTR _y1$[ebp]
  00553	f3 0f 5a c0	 cvtss2sd xmm0, xmm0
  00557	83 ec 08	 sub	 esp, 8
  0055a	f2 0f 11 04 24	 movsd	 QWORD PTR [esp], xmm0
  0055f	f3 0f 10 45 f0	 movss	 xmm0, DWORD PTR _x2$[ebp]
  00564	f3 0f 5c 45 f8	 subss	 xmm0, DWORD PTR _x1$[ebp]
  00569	f3 0f 5a c0	 cvtss2sd xmm0, xmm0
  0056d	83 ec 08	 sub	 esp, 8
  00570	f2 0f 11 04 24	 movsd	 QWORD PTR [esp], xmm0
  00575	6a 59		 push	 89			; 00000059H
  00577	f3 0f 5a 45 f4	 cvtss2sd xmm0, DWORD PTR _y1$[ebp]
  0057c	83 ec 08	 sub	 esp, 8
  0057f	f2 0f 11 04 24	 movsd	 QWORD PTR [esp], xmm0
  00584	f3 0f 5a 45 f8	 cvtss2sd xmm0, DWORD PTR _x1$[ebp]
  00589	83 ec 08	 sub	 esp, 8
  0058c	f2 0f 11 04 24	 movsd	 QWORD PTR [esp], xmm0
  00591	6a 58		 push	 88			; 00000058H
  00593	a1 00 00 00 00	 mov	 eax, DWORD PTR ?campaign_complete_area@@3PAUUI_OBJECT@@A
  00598	50		 push	 eax
  00599	6a 32		 push	 50			; 00000032H
  0059b	6a 02		 push	 2
  0059d	e8 00 00 00 00	 call	 ?create_ui_object@@YAPAUUI_OBJECT@@HZZ ; create_ui_object
  005a2	81 c4 9c 00 00
	00		 add	 esp, 156		; 0000009cH

; 748  : 		(
; 749  : 			UI_TYPE_BUTTON,
; 750  : 			UI_ATTR_PARENT (campaign_complete_area),
; 751  : 			UI_ATTR_VIRTUAL_POSITION (x1, y1),
; 752  : 			UI_ATTR_VIRTUAL_SIZE (x2 - x1, y2 - y1),
; 753  : 			UI_ATTR_TEXT (get_trans ("UI_OK")),
; 754  : 			UI_ATTR_FUNCTION (notify_campaign_complete_button),
; 755  : 			UI_ATTR_FONT_TYPE (UI_FONT_ARIAL_18),
; 756  : 			UI_ATTR_FONT_COLOUR (ui_ingame_live_text_colour.r, ui_ingame_live_text_colour.g, ui_ingame_live_text_colour.b, ui_ingame_live_text_colour.a),
; 757  : 			UI_ATTR_HIGHLIGHTED_FONT_COLOUR (ui_ingame_highlight_text_colour.r, ui_ingame_highlight_text_colour.g, ui_ingame_highlight_text_colour.b, ui_ingame_highlight_text_colour.a),
; 758  : 			UI_ATTR_SELECTED_FONT_COLOUR (ui_ingame_selected_text_colour.r, ui_ingame_selected_text_colour.g, ui_ingame_selected_text_colour.b, ui_ingame_selected_text_colour.a),
; 759  : 			UI_ATTR_HIGHLIGHTABLE (TRUE),
; 760  : 			UI_ATTR_TEXTURE_GRAPHIC (create_texture_graphic ("graphics\\ui\\cohokum\\map\\okaybtn.psd")),
; 761  : 			UI_ATTR_END
; 762  : 		);
; 763  : 
; 764  : 	/////////////////////////////////////////////////////////////////
; 765  : 	//
; 766  : 	// Campaign Quit Mission
; 767  : 	//
; 768  : 	/////////////////////////////////////////////////////////////////
; 769  : 
; 770  : 	x1 = 0.257;

  005a8	f3 0f 10 05 00
	00 00 00	 movss	 xmm0, DWORD PTR __real@3e839581
  005b0	f3 0f 11 45 f8	 movss	 DWORD PTR _x1$[ebp], xmm0

; 771  : 	y1 = 0.427;

  005b5	f3 0f 10 05 00
	00 00 00	 movss	 xmm0, DWORD PTR __real@3eda9fbe
  005bd	f3 0f 11 45 f4	 movss	 DWORD PTR _y1$[ebp], xmm0

; 772  : 	x2 = 0.74;

  005c2	f3 0f 10 05 00
	00 00 00	 movss	 xmm0, DWORD PTR __real@3f3d70a4
  005ca	f3 0f 11 45 f0	 movss	 DWORD PTR _x2$[ebp], xmm0

; 773  : 	y2 = 0.498;

  005cf	f3 0f 10 05 00
	00 00 00	 movss	 xmm0, DWORD PTR __real@3efef9db
  005d7	f3 0f 11 45 ec	 movss	 DWORD PTR _y2$[ebp], xmm0

; 774  : 
; 775  : 	campaign_quit_mission_area = create_ui_object

  005dc	6a 11		 push	 17			; 00000011H
  005de	68 00 00 00 00	 push	 OFFSET ??_C@_0CF@BBAEIILB@graphics?2ui?2cohokum?2map?2quitmis@
  005e3	e8 00 00 00 00	 call	 ?create_texture_graphic@@YGPAUTEXTURE_GRAPHIC@@PBD@Z ; create_texture_graphic
  005e8	50		 push	 eax
  005e9	6a 4c		 push	 76			; 0000004cH
  005eb	f3 0f 10 45 ec	 movss	 xmm0, DWORD PTR _y2$[ebp]
  005f0	f3 0f 5c 45 f4	 subss	 xmm0, DWORD PTR _y1$[ebp]
  005f5	f3 0f 5a c0	 cvtss2sd xmm0, xmm0
  005f9	83 ec 08	 sub	 esp, 8
  005fc	f2 0f 11 04 24	 movsd	 QWORD PTR [esp], xmm0
  00601	f3 0f 10 45 f0	 movss	 xmm0, DWORD PTR _x2$[ebp]
  00606	f3 0f 5c 45 f8	 subss	 xmm0, DWORD PTR _x1$[ebp]
  0060b	f3 0f 5a c0	 cvtss2sd xmm0, xmm0
  0060f	83 ec 08	 sub	 esp, 8
  00612	f2 0f 11 04 24	 movsd	 QWORD PTR [esp], xmm0
  00617	6a 59		 push	 89			; 00000059H
  00619	f3 0f 5a 45 f4	 cvtss2sd xmm0, DWORD PTR _y1$[ebp]
  0061e	83 ec 08	 sub	 esp, 8
  00621	f2 0f 11 04 24	 movsd	 QWORD PTR [esp], xmm0
  00626	f3 0f 5a 45 f8	 cvtss2sd xmm0, DWORD PTR _x1$[ebp]
  0062b	83 ec 08	 sub	 esp, 8
  0062e	f2 0f 11 04 24	 movsd	 QWORD PTR [esp], xmm0
  00633	6a 58		 push	 88			; 00000058H
  00635	a1 00 00 00 00	 mov	 eax, DWORD PTR ?campaign_dialog_area@@3PAUUI_OBJECT@@A
  0063a	50		 push	 eax
  0063b	6a 32		 push	 50			; 00000032H
  0063d	6a 01		 push	 1
  0063f	e8 00 00 00 00	 call	 ?create_ui_object@@YAPAUUI_OBJECT@@HZZ ; create_ui_object
  00644	83 c4 40	 add	 esp, 64			; 00000040H
  00647	a3 00 00 00 00	 mov	 DWORD PTR ?campaign_quit_mission_area@@3PAUUI_OBJECT@@A, eax

; 776  : 		(
; 777  : 			UI_TYPE_AREA,
; 778  : 			UI_ATTR_PARENT (campaign_dialog_area),
; 779  : 			UI_ATTR_VIRTUAL_POSITION (x1, y1),
; 780  : 			UI_ATTR_VIRTUAL_SIZE (x2 - x1, y2 - y1),
; 781  : 			UI_ATTR_TEXTURE_GRAPHIC (create_texture_graphic ("graphics\\ui\\cohokum\\map\\quitmisn.psd")),
; 782  : 			UI_ATTR_END
; 783  : 		);
; 784  : 
; 785  : 	x1 = 0.1;

  0064c	f3 0f 10 05 00
	00 00 00	 movss	 xmm0, DWORD PTR __real@3dcccccd
  00654	f3 0f 11 45 f8	 movss	 DWORD PTR _x1$[ebp], xmm0

; 786  : 	y1 = 0.0;

  00659	0f 57 c0	 xorps	 xmm0, xmm0
  0065c	f3 0f 11 45 f4	 movss	 DWORD PTR _y1$[ebp], xmm0

; 787  : 	x2 = 0.6;

  00661	f3 0f 10 05 00
	00 00 00	 movss	 xmm0, DWORD PTR __real@3f19999a
  00669	f3 0f 11 45 f0	 movss	 DWORD PTR _x2$[ebp], xmm0

; 788  : 	y2 = 1.0;

  0066e	f3 0f 10 05 00
	00 00 00	 movss	 xmm0, DWORD PTR __real@3f800000
  00676	f3 0f 11 45 ec	 movss	 DWORD PTR _y2$[ebp], xmm0

; 789  : 
; 790  : 	sprintf (string, "%s?", get_trans ("QUIT MISSION"));

  0067b	68 00 00 00 00	 push	 OFFSET ??_C@_0N@HKMGGOHL@QUIT?5MISSION@
  00680	e8 00 00 00 00	 call	 ?get_trans@@YGPBDPBD@Z	; get_trans
  00685	50		 push	 eax
  00686	68 00 00 00 00	 push	 OFFSET ??_C@_03EHDOIDNK@?$CFs?$DP@
  0068b	8d 85 e4 fe ff
	ff		 lea	 eax, DWORD PTR _string$[ebp]
  00691	50		 push	 eax
  00692	e8 00 00 00 00	 call	 _sprintf
  00697	83 c4 0c	 add	 esp, 12			; 0000000cH

; 791  : 	
; 792  : 	create_ui_object

  0069a	6a 11		 push	 17			; 00000011H
  0069c	6a 01		 push	 1
  0069e	6a 07		 push	 7
  006a0	0f b6 05 03 00
	00 00		 movzx	 eax, BYTE PTR ?ui_ingame_dead_text_colour@@3UREAL_COLOUR@@A+3
  006a7	50		 push	 eax
  006a8	0f b6 0d 00 00
	00 00		 movzx	 ecx, BYTE PTR ?ui_ingame_dead_text_colour@@3UREAL_COLOUR@@A
  006af	51		 push	 ecx
  006b0	0f b6 15 01 00
	00 00		 movzx	 edx, BYTE PTR ?ui_ingame_dead_text_colour@@3UREAL_COLOUR@@A+1
  006b7	52		 push	 edx
  006b8	0f b6 05 02 00
	00 00		 movzx	 eax, BYTE PTR ?ui_ingame_dead_text_colour@@3UREAL_COLOUR@@A+2
  006bf	50		 push	 eax
  006c0	6a 13		 push	 19			; 00000013H
  006c2	6a 03		 push	 3
  006c4	6a 12		 push	 18			; 00000012H
  006c6	6a 01		 push	 1
  006c8	6a 4b		 push	 75			; 0000004bH
  006ca	8d 8d e4 fe ff
	ff		 lea	 ecx, DWORD PTR _string$[ebp]
  006d0	51		 push	 ecx
  006d1	6a 4a		 push	 74			; 0000004aH
  006d3	f3 0f 10 45 ec	 movss	 xmm0, DWORD PTR _y2$[ebp]
  006d8	f3 0f 5c 45 f4	 subss	 xmm0, DWORD PTR _y1$[ebp]
  006dd	f3 0f 5a c0	 cvtss2sd xmm0, xmm0
  006e1	83 ec 08	 sub	 esp, 8
  006e4	f2 0f 11 04 24	 movsd	 QWORD PTR [esp], xmm0
  006e9	f3 0f 10 45 f0	 movss	 xmm0, DWORD PTR _x2$[ebp]
  006ee	f3 0f 5c 45 f8	 subss	 xmm0, DWORD PTR _x1$[ebp]
  006f3	f3 0f 5a c0	 cvtss2sd xmm0, xmm0
  006f7	83 ec 08	 sub	 esp, 8
  006fa	f2 0f 11 04 24	 movsd	 QWORD PTR [esp], xmm0
  006ff	6a 59		 push	 89			; 00000059H
  00701	f3 0f 5a 45 f4	 cvtss2sd xmm0, DWORD PTR _y1$[ebp]
  00706	83 ec 08	 sub	 esp, 8
  00709	f2 0f 11 04 24	 movsd	 QWORD PTR [esp], xmm0
  0070e	f3 0f 5a 45 f8	 cvtss2sd xmm0, DWORD PTR _x1$[ebp]
  00713	83 ec 08	 sub	 esp, 8
  00716	f2 0f 11 04 24	 movsd	 QWORD PTR [esp], xmm0
  0071b	6a 58		 push	 88			; 00000058H
  0071d	8b 15 00 00 00
	00		 mov	 edx, DWORD PTR ?campaign_quit_mission_area@@3PAUUI_OBJECT@@A
  00723	52		 push	 edx
  00724	6a 32		 push	 50			; 00000032H
  00726	6a 01		 push	 1
  00728	e8 00 00 00 00	 call	 ?create_ui_object@@YAPAUUI_OBJECT@@HZZ ; create_ui_object
  0072d	83 c4 6c	 add	 esp, 108		; 0000006cH

; 793  : 		(
; 794  : 			UI_TYPE_AREA,
; 795  : 			UI_ATTR_PARENT (campaign_quit_mission_area),
; 796  : 			UI_ATTR_VIRTUAL_POSITION (x1, y1),
; 797  : 			UI_ATTR_VIRTUAL_SIZE (x2 - x1, y2 - y1),
; 798  : 			UI_ATTR_TEXT (string),
; 799  : 			UI_ATTR_TEXT_JUSTIFY (TEXT_JUSTIFY_LEFT_CENTRE),
; 800  : 			UI_ATTR_FONT_TYPE (UI_FONT_ARIAL_16),
; 801  : 			UI_ATTR_FONT_COLOUR (ui_ingame_dead_text_colour.r, ui_ingame_dead_text_colour.g, ui_ingame_dead_text_colour.b, ui_ingame_dead_text_colour.a),
; 802  : 			UI_ATTR_CLEAR (TRUE),
; 803  : 			UI_ATTR_END
; 804  : 		);
; 805  : 
; 806  : 	x1 = 0.9;

  00730	f3 0f 10 05 00
	00 00 00	 movss	 xmm0, DWORD PTR __real@3f666666
  00738	f3 0f 11 45 f8	 movss	 DWORD PTR _x1$[ebp], xmm0

; 807  : 	y1 = 0.0;

  0073d	0f 57 c0	 xorps	 xmm0, xmm0
  00740	f3 0f 11 45 f4	 movss	 DWORD PTR _y1$[ebp], xmm0

; 808  : 	x2 = 0.95;

  00745	f3 0f 10 05 00
	00 00 00	 movss	 xmm0, DWORD PTR __real@3f733333
  0074d	f3 0f 11 45 f0	 movss	 DWORD PTR _x2$[ebp], xmm0

; 809  : 	y2 = 1.0;

  00752	f3 0f 10 05 00
	00 00 00	 movss	 xmm0, DWORD PTR __real@3f800000
  0075a	f3 0f 11 45 ec	 movss	 DWORD PTR _y2$[ebp], xmm0

; 810  : 
; 811  : 	temp = create_ui_object

  0075f	6a 11		 push	 17			; 00000011H
  00761	68 00 00 00 00	 push	 OFFSET ?notify_campaign_cancel_quit_mission_button@@YGXPAUUI_OBJECT@@PAX@Z ; notify_campaign_cancel_quit_mission_button
  00766	6a 16		 push	 22			; 00000016H
  00768	6a 01		 push	 1
  0076a	6a 07		 push	 7
  0076c	6a 01		 push	 1
  0076e	6a 1b		 push	 27			; 0000001bH
  00770	0f b6 05 03 00
	00 00		 movzx	 eax, BYTE PTR ?ui_ingame_selected_text_colour@@3UREAL_COLOUR@@A+3
  00777	50		 push	 eax
  00778	0f b6 0d 00 00
	00 00		 movzx	 ecx, BYTE PTR ?ui_ingame_selected_text_colour@@3UREAL_COLOUR@@A
  0077f	51		 push	 ecx
  00780	0f b6 15 01 00
	00 00		 movzx	 edx, BYTE PTR ?ui_ingame_selected_text_colour@@3UREAL_COLOUR@@A+1
  00787	52		 push	 edx
  00788	0f b6 05 02 00
	00 00		 movzx	 eax, BYTE PTR ?ui_ingame_selected_text_colour@@3UREAL_COLOUR@@A+2
  0078f	50		 push	 eax
  00790	6a 3d		 push	 61			; 0000003dH
  00792	0f b6 0d 03 00
	00 00		 movzx	 ecx, BYTE PTR ?ui_ingame_highlight_text_colour@@3UREAL_COLOUR@@A+3
  00799	51		 push	 ecx
  0079a	0f b6 15 00 00
	00 00		 movzx	 edx, BYTE PTR ?ui_ingame_highlight_text_colour@@3UREAL_COLOUR@@A
  007a1	52		 push	 edx
  007a2	0f b6 05 01 00
	00 00		 movzx	 eax, BYTE PTR ?ui_ingame_highlight_text_colour@@3UREAL_COLOUR@@A+1
  007a9	50		 push	 eax
  007aa	0f b6 0d 02 00
	00 00		 movzx	 ecx, BYTE PTR ?ui_ingame_highlight_text_colour@@3UREAL_COLOUR@@A+2
  007b1	51		 push	 ecx
  007b2	6a 21		 push	 33			; 00000021H
  007b4	0f b6 15 03 00
	00 00		 movzx	 edx, BYTE PTR ?ui_ingame_live_text_colour@@3UREAL_COLOUR@@A+3
  007bb	52		 push	 edx
  007bc	0f b6 05 00 00
	00 00		 movzx	 eax, BYTE PTR ?ui_ingame_live_text_colour@@3UREAL_COLOUR@@A
  007c3	50		 push	 eax
  007c4	0f b6 0d 01 00
	00 00		 movzx	 ecx, BYTE PTR ?ui_ingame_live_text_colour@@3UREAL_COLOUR@@A+1
  007cb	51		 push	 ecx
  007cc	0f b6 15 02 00
	00 00		 movzx	 edx, BYTE PTR ?ui_ingame_live_text_colour@@3UREAL_COLOUR@@A+2
  007d3	52		 push	 edx
  007d4	6a 13		 push	 19			; 00000013H
  007d6	6a 02		 push	 2
  007d8	6a 4b		 push	 75			; 0000004bH
  007da	6a 03		 push	 3
  007dc	6a 12		 push	 18			; 00000012H
  007de	68 00 00 00 00	 push	 OFFSET ??_C@_02JINPPBEP@No@
  007e3	e8 00 00 00 00	 call	 ?get_trans@@YGPBDPBD@Z	; get_trans
  007e8	50		 push	 eax
  007e9	6a 4a		 push	 74			; 0000004aH
  007eb	f3 0f 10 45 ec	 movss	 xmm0, DWORD PTR _y2$[ebp]
  007f0	f3 0f 5c 45 f4	 subss	 xmm0, DWORD PTR _y1$[ebp]
  007f5	f3 0f 5a c0	 cvtss2sd xmm0, xmm0
  007f9	83 ec 08	 sub	 esp, 8
  007fc	f2 0f 11 04 24	 movsd	 QWORD PTR [esp], xmm0
  00801	f3 0f 10 45 f0	 movss	 xmm0, DWORD PTR _x2$[ebp]
  00806	f3 0f 5c 45 f8	 subss	 xmm0, DWORD PTR _x1$[ebp]
  0080b	f3 0f 5a c0	 cvtss2sd xmm0, xmm0
  0080f	83 ec 08	 sub	 esp, 8
  00812	f2 0f 11 04 24	 movsd	 QWORD PTR [esp], xmm0
  00817	6a 59		 push	 89			; 00000059H
  00819	f3 0f 5a 45 f4	 cvtss2sd xmm0, DWORD PTR _y1$[ebp]
  0081e	83 ec 08	 sub	 esp, 8
  00821	f2 0f 11 04 24	 movsd	 QWORD PTR [esp], xmm0
  00826	f3 0f 5a 45 f8	 cvtss2sd xmm0, DWORD PTR _x1$[ebp]
  0082b	83 ec 08	 sub	 esp, 8
  0082e	f2 0f 11 04 24	 movsd	 QWORD PTR [esp], xmm0
  00833	6a 58		 push	 88			; 00000058H
  00835	a1 00 00 00 00	 mov	 eax, DWORD PTR ?campaign_quit_mission_area@@3PAUUI_OBJECT@@A
  0083a	50		 push	 eax
  0083b	6a 32		 push	 50			; 00000032H
  0083d	6a 02		 push	 2
  0083f	e8 00 00 00 00	 call	 ?create_ui_object@@YAPAUUI_OBJECT@@HZZ ; create_ui_object
  00844	81 c4 a4 00 00
	00		 add	 esp, 164		; 000000a4H
  0084a	89 45 fc	 mov	 DWORD PTR _temp$[ebp], eax

; 812  : 		(
; 813  : 			UI_TYPE_BUTTON,
; 814  : 			UI_ATTR_PARENT (campaign_quit_mission_area),
; 815  : 			UI_ATTR_VIRTUAL_POSITION (x1, y1),
; 816  : 			UI_ATTR_VIRTUAL_SIZE (x2 - x1, y2 - y1),
; 817  : 			UI_ATTR_TEXT (get_trans ("No")),
; 818  : 			UI_ATTR_FONT_TYPE (UI_FONT_ARIAL_16),
; 819  : 			UI_ATTR_TEXT_JUSTIFY (TEXT_JUSTIFY_RIGHT_CENTRE),
; 820  : 			UI_ATTR_FONT_COLOUR (ui_ingame_live_text_colour.r, ui_ingame_live_text_colour.g, ui_ingame_live_text_colour.b, ui_ingame_live_text_colour.a),
; 821  : 			UI_ATTR_HIGHLIGHTED_FONT_COLOUR (ui_ingame_highlight_text_colour.r, ui_ingame_highlight_text_colour.g, ui_ingame_highlight_text_colour.b, ui_ingame_highlight_text_colour.a),
; 822  : 			UI_ATTR_SELECTED_FONT_COLOUR (ui_ingame_selected_text_colour.r, ui_ingame_selected_text_colour.g, ui_ingame_selected_text_colour.b, ui_ingame_selected_text_colour.a),
; 823  : 			UI_ATTR_HIGHLIGHTABLE (TRUE),
; 824  : 			UI_ATTR_CLEAR (TRUE),
; 825  : 			UI_ATTR_FUNCTION (notify_campaign_cancel_quit_mission_button),
; 826  : 			UI_ATTR_END
; 827  : 		);
; 828  : 
; 829  : 	process_ingame_text_object_size (temp, NULL, NULL, 0, RESIZE_OPTION_FIXED_BUTTON);

  0084d	6a 02		 push	 2
  0084f	6a 00		 push	 0
  00851	6a 00		 push	 0
  00853	6a 00		 push	 0
  00855	8b 45 fc	 mov	 eax, DWORD PTR _temp$[ebp]
  00858	50		 push	 eax
  00859	e8 00 00 00 00	 call	 ?process_ingame_text_object_size@@YGXPAUUI_OBJECT@@0PAPBDHW4RESIZE_UI_OBJECT_TYPES@@@Z ; process_ingame_text_object_size

; 830  : 
; 831  : 
; 832  : 	x1 = get_ui_object_x_end (temp);

  0085e	8b 45 fc	 mov	 eax, DWORD PTR _temp$[ebp]
  00861	50		 push	 eax
  00862	8b 4d fc	 mov	 ecx, DWORD PTR _temp$[ebp]
  00865	8b 11		 mov	 edx, DWORD PTR [ecx]
  00867	8b 04 95 00 00
	00 00		 mov	 eax, DWORD PTR ?fn_get_ui_object_x_end@@3PAP6GMPAUUI_OBJECT@@@ZA[edx*4]
  0086e	ff d0		 call	 eax
  00870	d9 5d f8	 fstp	 DWORD PTR _x1$[ebp]

; 833  : 
; 834  : 	x2 = get_ui_object_x_end (temp) - 0.05;

  00873	8b 45 fc	 mov	 eax, DWORD PTR _temp$[ebp]
  00876	50		 push	 eax
  00877	8b 4d fc	 mov	 ecx, DWORD PTR _temp$[ebp]
  0087a	8b 11		 mov	 edx, DWORD PTR [ecx]
  0087c	8b 04 95 00 00
	00 00		 mov	 eax, DWORD PTR ?fn_get_ui_object_x_end@@3PAP6GMPAUUI_OBJECT@@@ZA[edx*4]
  00883	ff d0		 call	 eax
  00885	dd 9d 9c fe ff
	ff		 fstp	 QWORD PTR tv971[ebp]
  0088b	f2 0f 10 85 9c
	fe ff ff	 movsd	 xmm0, QWORD PTR tv971[ebp]
  00893	f2 0f 5c 05 00
	00 00 00	 subsd	 xmm0, QWORD PTR __real@3fa999999999999a
  0089b	f2 0f 5a c0	 cvtsd2ss xmm0, xmm0
  0089f	f3 0f 11 45 f0	 movss	 DWORD PTR _x2$[ebp], xmm0

; 835  : 
; 836  : //	x1 = 0.6;
; 837  : 	y1 = 0.0;

  008a4	0f 57 c0	 xorps	 xmm0, xmm0
  008a7	f3 0f 11 45 f4	 movss	 DWORD PTR _y1$[ebp], xmm0

; 838  : //	x2 = 0.88;
; 839  : 	y2 = 1.0;

  008ac	f3 0f 10 05 00
	00 00 00	 movss	 xmm0, DWORD PTR __real@3f800000
  008b4	f3 0f 11 45 ec	 movss	 DWORD PTR _y2$[ebp], xmm0

; 840  : 
; 841  : 	temp = create_ui_object

  008b9	6a 11		 push	 17			; 00000011H
  008bb	68 00 00 00 00	 push	 OFFSET ?notify_campaign_accept_quit_mission_button@@YGXPAUUI_OBJECT@@PAX@Z ; notify_campaign_accept_quit_mission_button
  008c0	6a 16		 push	 22			; 00000016H
  008c2	6a 01		 push	 1
  008c4	6a 07		 push	 7
  008c6	6a 01		 push	 1
  008c8	6a 1b		 push	 27			; 0000001bH
  008ca	0f b6 05 03 00
	00 00		 movzx	 eax, BYTE PTR ?ui_ingame_selected_text_colour@@3UREAL_COLOUR@@A+3
  008d1	50		 push	 eax
  008d2	0f b6 0d 00 00
	00 00		 movzx	 ecx, BYTE PTR ?ui_ingame_selected_text_colour@@3UREAL_COLOUR@@A
  008d9	51		 push	 ecx
  008da	0f b6 15 01 00
	00 00		 movzx	 edx, BYTE PTR ?ui_ingame_selected_text_colour@@3UREAL_COLOUR@@A+1
  008e1	52		 push	 edx
  008e2	0f b6 05 02 00
	00 00		 movzx	 eax, BYTE PTR ?ui_ingame_selected_text_colour@@3UREAL_COLOUR@@A+2
  008e9	50		 push	 eax
  008ea	6a 3d		 push	 61			; 0000003dH
  008ec	0f b6 0d 03 00
	00 00		 movzx	 ecx, BYTE PTR ?ui_ingame_highlight_text_colour@@3UREAL_COLOUR@@A+3
  008f3	51		 push	 ecx
  008f4	0f b6 15 00 00
	00 00		 movzx	 edx, BYTE PTR ?ui_ingame_highlight_text_colour@@3UREAL_COLOUR@@A
  008fb	52		 push	 edx
  008fc	0f b6 05 01 00
	00 00		 movzx	 eax, BYTE PTR ?ui_ingame_highlight_text_colour@@3UREAL_COLOUR@@A+1
  00903	50		 push	 eax
  00904	0f b6 0d 02 00
	00 00		 movzx	 ecx, BYTE PTR ?ui_ingame_highlight_text_colour@@3UREAL_COLOUR@@A+2
  0090b	51		 push	 ecx
  0090c	6a 21		 push	 33			; 00000021H
  0090e	0f b6 15 03 00
	00 00		 movzx	 edx, BYTE PTR ?ui_ingame_live_text_colour@@3UREAL_COLOUR@@A+3
  00915	52		 push	 edx
  00916	0f b6 05 00 00
	00 00		 movzx	 eax, BYTE PTR ?ui_ingame_live_text_colour@@3UREAL_COLOUR@@A
  0091d	50		 push	 eax
  0091e	0f b6 0d 01 00
	00 00		 movzx	 ecx, BYTE PTR ?ui_ingame_live_text_colour@@3UREAL_COLOUR@@A+1
  00925	51		 push	 ecx
  00926	0f b6 15 02 00
	00 00		 movzx	 edx, BYTE PTR ?ui_ingame_live_text_colour@@3UREAL_COLOUR@@A+2
  0092d	52		 push	 edx
  0092e	6a 13		 push	 19			; 00000013H
  00930	6a 02		 push	 2
  00932	6a 4b		 push	 75			; 0000004bH
  00934	6a 03		 push	 3
  00936	6a 12		 push	 18			; 00000012H
  00938	68 00 00 00 00	 push	 OFFSET ??_C@_03CCLAEDDF@Yes@
  0093d	e8 00 00 00 00	 call	 ?get_trans@@YGPBDPBD@Z	; get_trans
  00942	50		 push	 eax
  00943	6a 4a		 push	 74			; 0000004aH
  00945	f3 0f 10 45 ec	 movss	 xmm0, DWORD PTR _y2$[ebp]
  0094a	f3 0f 5c 45 f4	 subss	 xmm0, DWORD PTR _y1$[ebp]
  0094f	f3 0f 5a c0	 cvtss2sd xmm0, xmm0
  00953	83 ec 08	 sub	 esp, 8
  00956	f2 0f 11 04 24	 movsd	 QWORD PTR [esp], xmm0
  0095b	f3 0f 10 45 f0	 movss	 xmm0, DWORD PTR _x2$[ebp]
  00960	f3 0f 5c 45 f8	 subss	 xmm0, DWORD PTR _x1$[ebp]
  00965	f3 0f 5a c0	 cvtss2sd xmm0, xmm0
  00969	83 ec 08	 sub	 esp, 8
  0096c	f2 0f 11 04 24	 movsd	 QWORD PTR [esp], xmm0
  00971	6a 59		 push	 89			; 00000059H
  00973	f3 0f 5a 45 f4	 cvtss2sd xmm0, DWORD PTR _y1$[ebp]
  00978	83 ec 08	 sub	 esp, 8
  0097b	f2 0f 11 04 24	 movsd	 QWORD PTR [esp], xmm0
  00980	f3 0f 5a 45 f8	 cvtss2sd xmm0, DWORD PTR _x1$[ebp]
  00985	83 ec 08	 sub	 esp, 8
  00988	f2 0f 11 04 24	 movsd	 QWORD PTR [esp], xmm0
  0098d	6a 58		 push	 88			; 00000058H
  0098f	a1 00 00 00 00	 mov	 eax, DWORD PTR ?campaign_quit_mission_area@@3PAUUI_OBJECT@@A
  00994	50		 push	 eax
  00995	6a 32		 push	 50			; 00000032H
  00997	6a 02		 push	 2
  00999	e8 00 00 00 00	 call	 ?create_ui_object@@YAPAUUI_OBJECT@@HZZ ; create_ui_object
  0099e	81 c4 a4 00 00
	00		 add	 esp, 164		; 000000a4H
  009a4	89 45 fc	 mov	 DWORD PTR _temp$[ebp], eax

; 842  : 		(
; 843  : 			UI_TYPE_BUTTON,
; 844  : 			UI_ATTR_PARENT (campaign_quit_mission_area),
; 845  : 			UI_ATTR_VIRTUAL_POSITION (x1, y1),
; 846  : 			UI_ATTR_VIRTUAL_SIZE (x2 - x1, y2 - y1),
; 847  : 			UI_ATTR_TEXT (get_trans ("Yes")),
; 848  : 			UI_ATTR_FONT_TYPE (UI_FONT_ARIAL_16),
; 849  : 			UI_ATTR_TEXT_JUSTIFY (TEXT_JUSTIFY_RIGHT_CENTRE),
; 850  : 			UI_ATTR_FONT_COLOUR (ui_ingame_live_text_colour.r, ui_ingame_live_text_colour.g, ui_ingame_live_text_colour.b, ui_ingame_live_text_colour.a),
; 851  : 			UI_ATTR_HIGHLIGHTED_FONT_COLOUR (ui_ingame_highlight_text_colour.r, ui_ingame_highlight_text_colour.g, ui_ingame_highlight_text_colour.b, ui_ingame_highlight_text_colour.a),
; 852  : 			UI_ATTR_SELECTED_FONT_COLOUR (ui_ingame_selected_text_colour.r, ui_ingame_selected_text_colour.g, ui_ingame_selected_text_colour.b, ui_ingame_selected_text_colour.a),
; 853  : 			UI_ATTR_HIGHLIGHTABLE (TRUE),
; 854  : 			UI_ATTR_CLEAR (TRUE),
; 855  : 			UI_ATTR_FUNCTION (notify_campaign_accept_quit_mission_button),
; 856  : 			UI_ATTR_END
; 857  : 		);
; 858  : 
; 859  : 	process_ingame_text_object_size (temp, NULL, NULL, 0, RESIZE_OPTION_FIXED_BUTTON);

  009a7	6a 02		 push	 2
  009a9	6a 00		 push	 0
  009ab	6a 00		 push	 0
  009ad	6a 00		 push	 0
  009af	8b 45 fc	 mov	 eax, DWORD PTR _temp$[ebp]
  009b2	50		 push	 eax
  009b3	e8 00 00 00 00	 call	 ?process_ingame_text_object_size@@YGXPAUUI_OBJECT@@0PAPBDHW4RESIZE_UI_OBJECT_TYPES@@@Z ; process_ingame_text_object_size

; 860  : 
; 861  : 	/////////////////////////////////////////////////////////////////
; 862  : 	//
; 863  : 	// Campaign Quit Campaign
; 864  : 	//
; 865  : 	/////////////////////////////////////////////////////////////////
; 866  : 
; 867  : 	x1 = 0.257;

  009b8	f3 0f 10 05 00
	00 00 00	 movss	 xmm0, DWORD PTR __real@3e839581
  009c0	f3 0f 11 45 f8	 movss	 DWORD PTR _x1$[ebp], xmm0

; 868  : 	y1 = 0.303;

  009c5	f3 0f 10 05 00
	00 00 00	 movss	 xmm0, DWORD PTR __real@3e9b22d1
  009cd	f3 0f 11 45 f4	 movss	 DWORD PTR _y1$[ebp], xmm0

; 869  : 	x2 = 0.74;

  009d2	f3 0f 10 05 00
	00 00 00	 movss	 xmm0, DWORD PTR __real@3f3d70a4
  009da	f3 0f 11 45 f0	 movss	 DWORD PTR _x2$[ebp], xmm0

; 870  : 	y2 = 0.612;

  009df	f3 0f 10 05 00
	00 00 00	 movss	 xmm0, DWORD PTR __real@3f1cac08
  009e7	f3 0f 11 45 ec	 movss	 DWORD PTR _y2$[ebp], xmm0

; 871  : 
; 872  : 	campaign_quit_campaign_area = create_ui_object

  009ec	6a 11		 push	 17			; 00000011H
  009ee	68 00 00 00 00	 push	 OFFSET ??_C@_0CF@EBOMMOO@graphics?2ui?2cohokum?2map?2quitcam@
  009f3	e8 00 00 00 00	 call	 ?create_texture_graphic@@YGPAUTEXTURE_GRAPHIC@@PBD@Z ; create_texture_graphic
  009f8	50		 push	 eax
  009f9	6a 4c		 push	 76			; 0000004cH
  009fb	f3 0f 10 45 ec	 movss	 xmm0, DWORD PTR _y2$[ebp]
  00a00	f3 0f 5c 45 f4	 subss	 xmm0, DWORD PTR _y1$[ebp]
  00a05	f3 0f 5a c0	 cvtss2sd xmm0, xmm0
  00a09	83 ec 08	 sub	 esp, 8
  00a0c	f2 0f 11 04 24	 movsd	 QWORD PTR [esp], xmm0
  00a11	f3 0f 10 45 f0	 movss	 xmm0, DWORD PTR _x2$[ebp]
  00a16	f3 0f 5c 45 f8	 subss	 xmm0, DWORD PTR _x1$[ebp]
  00a1b	f3 0f 5a c0	 cvtss2sd xmm0, xmm0
  00a1f	83 ec 08	 sub	 esp, 8
  00a22	f2 0f 11 04 24	 movsd	 QWORD PTR [esp], xmm0
  00a27	6a 59		 push	 89			; 00000059H
  00a29	f3 0f 5a 45 f4	 cvtss2sd xmm0, DWORD PTR _y1$[ebp]
  00a2e	83 ec 08	 sub	 esp, 8
  00a31	f2 0f 11 04 24	 movsd	 QWORD PTR [esp], xmm0
  00a36	f3 0f 5a 45 f8	 cvtss2sd xmm0, DWORD PTR _x1$[ebp]
  00a3b	83 ec 08	 sub	 esp, 8
  00a3e	f2 0f 11 04 24	 movsd	 QWORD PTR [esp], xmm0
  00a43	6a 58		 push	 88			; 00000058H
  00a45	a1 00 00 00 00	 mov	 eax, DWORD PTR ?campaign_dialog_area@@3PAUUI_OBJECT@@A
  00a4a	50		 push	 eax
  00a4b	6a 32		 push	 50			; 00000032H
  00a4d	6a 01		 push	 1
  00a4f	e8 00 00 00 00	 call	 ?create_ui_object@@YAPAUUI_OBJECT@@HZZ ; create_ui_object
  00a54	83 c4 40	 add	 esp, 64			; 00000040H
  00a57	a3 00 00 00 00	 mov	 DWORD PTR ?campaign_quit_campaign_area@@3PAUUI_OBJECT@@A, eax

; 873  : 		(
; 874  : 			UI_TYPE_AREA,
; 875  : 			UI_ATTR_PARENT (campaign_dialog_area),
; 876  : 			UI_ATTR_VIRTUAL_POSITION (x1, y1),
; 877  : 			UI_ATTR_VIRTUAL_SIZE (x2 - x1, y2 - y1),
; 878  : 			UI_ATTR_TEXTURE_GRAPHIC (create_texture_graphic ("graphics\\ui\\cohokum\\map\\quitcamp.psd")),
; 879  : 			UI_ATTR_END
; 880  : 		);
; 881  : 
; 882  : 	x1 = 0.1;

  00a5c	f3 0f 10 05 00
	00 00 00	 movss	 xmm0, DWORD PTR __real@3dcccccd
  00a64	f3 0f 11 45 f8	 movss	 DWORD PTR _x1$[ebp], xmm0

; 883  : 	y1 = 0.65;

  00a69	f3 0f 10 05 00
	00 00 00	 movss	 xmm0, DWORD PTR __real@3f266666
  00a71	f3 0f 11 45 f4	 movss	 DWORD PTR _y1$[ebp], xmm0

; 884  : 	x2 = 0.6;

  00a76	f3 0f 10 05 00
	00 00 00	 movss	 xmm0, DWORD PTR __real@3f19999a
  00a7e	f3 0f 11 45 f0	 movss	 DWORD PTR _x2$[ebp], xmm0

; 885  : 	y2 = 1.0;

  00a83	f3 0f 10 05 00
	00 00 00	 movss	 xmm0, DWORD PTR __real@3f800000
  00a8b	f3 0f 11 45 ec	 movss	 DWORD PTR _y2$[ebp], xmm0

; 886  : 
; 887  : 	sprintf (string, "%s?", get_trans ("Quit Campaign"));

  00a90	68 00 00 00 00	 push	 OFFSET ??_C@_0O@MJEBNFIH@Quit?5Campaign@
  00a95	e8 00 00 00 00	 call	 ?get_trans@@YGPBDPBD@Z	; get_trans
  00a9a	50		 push	 eax
  00a9b	68 00 00 00 00	 push	 OFFSET ??_C@_03EHDOIDNK@?$CFs?$DP@
  00aa0	8d 85 e4 fe ff
	ff		 lea	 eax, DWORD PTR _string$[ebp]
  00aa6	50		 push	 eax
  00aa7	e8 00 00 00 00	 call	 _sprintf
  00aac	83 c4 0c	 add	 esp, 12			; 0000000cH

; 888  : 	
; 889  : 	create_ui_object

  00aaf	6a 11		 push	 17			; 00000011H
  00ab1	6a 01		 push	 1
  00ab3	6a 07		 push	 7
  00ab5	0f b6 05 03 00
	00 00		 movzx	 eax, BYTE PTR ?ui_ingame_dead_text_colour@@3UREAL_COLOUR@@A+3
  00abc	50		 push	 eax
  00abd	0f b6 0d 00 00
	00 00		 movzx	 ecx, BYTE PTR ?ui_ingame_dead_text_colour@@3UREAL_COLOUR@@A
  00ac4	51		 push	 ecx
  00ac5	0f b6 15 01 00
	00 00		 movzx	 edx, BYTE PTR ?ui_ingame_dead_text_colour@@3UREAL_COLOUR@@A+1
  00acc	52		 push	 edx
  00acd	0f b6 05 02 00
	00 00		 movzx	 eax, BYTE PTR ?ui_ingame_dead_text_colour@@3UREAL_COLOUR@@A+2
  00ad4	50		 push	 eax
  00ad5	6a 13		 push	 19			; 00000013H
  00ad7	6a 03		 push	 3
  00ad9	6a 12		 push	 18			; 00000012H
  00adb	6a 01		 push	 1
  00add	6a 4b		 push	 75			; 0000004bH
  00adf	8d 8d e4 fe ff
	ff		 lea	 ecx, DWORD PTR _string$[ebp]
  00ae5	51		 push	 ecx
  00ae6	6a 4a		 push	 74			; 0000004aH
  00ae8	f3 0f 10 45 ec	 movss	 xmm0, DWORD PTR _y2$[ebp]
  00aed	f3 0f 5c 45 f4	 subss	 xmm0, DWORD PTR _y1$[ebp]
  00af2	f3 0f 5a c0	 cvtss2sd xmm0, xmm0
  00af6	83 ec 08	 sub	 esp, 8
  00af9	f2 0f 11 04 24	 movsd	 QWORD PTR [esp], xmm0
  00afe	f3 0f 10 45 f0	 movss	 xmm0, DWORD PTR _x2$[ebp]
  00b03	f3 0f 5c 45 f8	 subss	 xmm0, DWORD PTR _x1$[ebp]
  00b08	f3 0f 5a c0	 cvtss2sd xmm0, xmm0
  00b0c	83 ec 08	 sub	 esp, 8
  00b0f	f2 0f 11 04 24	 movsd	 QWORD PTR [esp], xmm0
  00b14	6a 59		 push	 89			; 00000059H
  00b16	f3 0f 5a 45 f4	 cvtss2sd xmm0, DWORD PTR _y1$[ebp]
  00b1b	83 ec 08	 sub	 esp, 8
  00b1e	f2 0f 11 04 24	 movsd	 QWORD PTR [esp], xmm0
  00b23	f3 0f 5a 45 f8	 cvtss2sd xmm0, DWORD PTR _x1$[ebp]
  00b28	83 ec 08	 sub	 esp, 8
  00b2b	f2 0f 11 04 24	 movsd	 QWORD PTR [esp], xmm0
  00b30	6a 58		 push	 88			; 00000058H
  00b32	8b 15 00 00 00
	00		 mov	 edx, DWORD PTR ?campaign_quit_campaign_area@@3PAUUI_OBJECT@@A
  00b38	52		 push	 edx
  00b39	6a 32		 push	 50			; 00000032H
  00b3b	6a 01		 push	 1
  00b3d	e8 00 00 00 00	 call	 ?create_ui_object@@YAPAUUI_OBJECT@@HZZ ; create_ui_object
  00b42	83 c4 6c	 add	 esp, 108		; 0000006cH

; 890  : 		(
; 891  : 			UI_TYPE_AREA,
; 892  : 			UI_ATTR_PARENT (campaign_quit_campaign_area),
; 893  : 			UI_ATTR_VIRTUAL_POSITION (x1, y1),
; 894  : 			UI_ATTR_VIRTUAL_SIZE (x2 - x1, y2 - y1),
; 895  : 			UI_ATTR_TEXT (string),
; 896  : 			UI_ATTR_TEXT_JUSTIFY (TEXT_JUSTIFY_LEFT_CENTRE),
; 897  : 			UI_ATTR_FONT_TYPE (UI_FONT_ARIAL_16),
; 898  : 			UI_ATTR_FONT_COLOUR (ui_ingame_dead_text_colour.r, ui_ingame_dead_text_colour.g, ui_ingame_dead_text_colour.b, ui_ingame_dead_text_colour.a),
; 899  : 			UI_ATTR_CLEAR (TRUE),
; 900  : 			UI_ATTR_END
; 901  : 		);
; 902  : 
; 903  : 	x1 = 0.9;

  00b45	f3 0f 10 05 00
	00 00 00	 movss	 xmm0, DWORD PTR __real@3f666666
  00b4d	f3 0f 11 45 f8	 movss	 DWORD PTR _x1$[ebp], xmm0

; 904  : 	y1 = 0.65;

  00b52	f3 0f 10 05 00
	00 00 00	 movss	 xmm0, DWORD PTR __real@3f266666
  00b5a	f3 0f 11 45 f4	 movss	 DWORD PTR _y1$[ebp], xmm0

; 905  : 	x2 = 0.95;

  00b5f	f3 0f 10 05 00
	00 00 00	 movss	 xmm0, DWORD PTR __real@3f733333
  00b67	f3 0f 11 45 f0	 movss	 DWORD PTR _x2$[ebp], xmm0

; 906  : 	y2 = 1.0;

  00b6c	f3 0f 10 05 00
	00 00 00	 movss	 xmm0, DWORD PTR __real@3f800000
  00b74	f3 0f 11 45 ec	 movss	 DWORD PTR _y2$[ebp], xmm0

; 907  : 
; 908  : 	temp = create_ui_object

  00b79	6a 11		 push	 17			; 00000011H
  00b7b	68 00 00 00 00	 push	 OFFSET ?notify_campaign_cancel_quit_campaign_button@@YGXPAUUI_OBJECT@@PAX@Z ; notify_campaign_cancel_quit_campaign_button
  00b80	6a 16		 push	 22			; 00000016H
  00b82	6a 01		 push	 1
  00b84	6a 07		 push	 7
  00b86	6a 01		 push	 1
  00b88	6a 1b		 push	 27			; 0000001bH
  00b8a	0f b6 05 03 00
	00 00		 movzx	 eax, BYTE PTR ?ui_ingame_selected_text_colour@@3UREAL_COLOUR@@A+3
  00b91	50		 push	 eax
  00b92	0f b6 0d 00 00
	00 00		 movzx	 ecx, BYTE PTR ?ui_ingame_selected_text_colour@@3UREAL_COLOUR@@A
  00b99	51		 push	 ecx
  00b9a	0f b6 15 01 00
	00 00		 movzx	 edx, BYTE PTR ?ui_ingame_selected_text_colour@@3UREAL_COLOUR@@A+1
  00ba1	52		 push	 edx
  00ba2	0f b6 05 02 00
	00 00		 movzx	 eax, BYTE PTR ?ui_ingame_selected_text_colour@@3UREAL_COLOUR@@A+2
  00ba9	50		 push	 eax
  00baa	6a 3d		 push	 61			; 0000003dH
  00bac	0f b6 0d 03 00
	00 00		 movzx	 ecx, BYTE PTR ?ui_ingame_highlight_text_colour@@3UREAL_COLOUR@@A+3
  00bb3	51		 push	 ecx
  00bb4	0f b6 15 00 00
	00 00		 movzx	 edx, BYTE PTR ?ui_ingame_highlight_text_colour@@3UREAL_COLOUR@@A
  00bbb	52		 push	 edx
  00bbc	0f b6 05 01 00
	00 00		 movzx	 eax, BYTE PTR ?ui_ingame_highlight_text_colour@@3UREAL_COLOUR@@A+1
  00bc3	50		 push	 eax
  00bc4	0f b6 0d 02 00
	00 00		 movzx	 ecx, BYTE PTR ?ui_ingame_highlight_text_colour@@3UREAL_COLOUR@@A+2
  00bcb	51		 push	 ecx
  00bcc	6a 21		 push	 33			; 00000021H
  00bce	0f b6 15 03 00
	00 00		 movzx	 edx, BYTE PTR ?ui_ingame_live_text_colour@@3UREAL_COLOUR@@A+3
  00bd5	52		 push	 edx
  00bd6	0f b6 05 00 00
	00 00		 movzx	 eax, BYTE PTR ?ui_ingame_live_text_colour@@3UREAL_COLOUR@@A
  00bdd	50		 push	 eax
  00bde	0f b6 0d 01 00
	00 00		 movzx	 ecx, BYTE PTR ?ui_ingame_live_text_colour@@3UREAL_COLOUR@@A+1
  00be5	51		 push	 ecx
  00be6	0f b6 15 02 00
	00 00		 movzx	 edx, BYTE PTR ?ui_ingame_live_text_colour@@3UREAL_COLOUR@@A+2
  00bed	52		 push	 edx
  00bee	6a 13		 push	 19			; 00000013H
  00bf0	6a 02		 push	 2
  00bf2	6a 4b		 push	 75			; 0000004bH
  00bf4	6a 03		 push	 3
  00bf6	6a 12		 push	 18			; 00000012H
  00bf8	68 00 00 00 00	 push	 OFFSET ??_C@_02JINPPBEP@No@
  00bfd	e8 00 00 00 00	 call	 ?get_trans@@YGPBDPBD@Z	; get_trans
  00c02	50		 push	 eax
  00c03	6a 4a		 push	 74			; 0000004aH
  00c05	f3 0f 10 45 ec	 movss	 xmm0, DWORD PTR _y2$[ebp]
  00c0a	f3 0f 5c 45 f4	 subss	 xmm0, DWORD PTR _y1$[ebp]
  00c0f	f3 0f 5a c0	 cvtss2sd xmm0, xmm0
  00c13	83 ec 08	 sub	 esp, 8
  00c16	f2 0f 11 04 24	 movsd	 QWORD PTR [esp], xmm0
  00c1b	f3 0f 10 45 f0	 movss	 xmm0, DWORD PTR _x2$[ebp]
  00c20	f3 0f 5c 45 f8	 subss	 xmm0, DWORD PTR _x1$[ebp]
  00c25	f3 0f 5a c0	 cvtss2sd xmm0, xmm0
  00c29	83 ec 08	 sub	 esp, 8
  00c2c	f2 0f 11 04 24	 movsd	 QWORD PTR [esp], xmm0
  00c31	6a 59		 push	 89			; 00000059H
  00c33	f3 0f 5a 45 f4	 cvtss2sd xmm0, DWORD PTR _y1$[ebp]
  00c38	83 ec 08	 sub	 esp, 8
  00c3b	f2 0f 11 04 24	 movsd	 QWORD PTR [esp], xmm0
  00c40	f3 0f 5a 45 f8	 cvtss2sd xmm0, DWORD PTR _x1$[ebp]
  00c45	83 ec 08	 sub	 esp, 8
  00c48	f2 0f 11 04 24	 movsd	 QWORD PTR [esp], xmm0
  00c4d	6a 58		 push	 88			; 00000058H
  00c4f	a1 00 00 00 00	 mov	 eax, DWORD PTR ?campaign_quit_campaign_area@@3PAUUI_OBJECT@@A
  00c54	50		 push	 eax
  00c55	6a 32		 push	 50			; 00000032H
  00c57	6a 02		 push	 2
  00c59	e8 00 00 00 00	 call	 ?create_ui_object@@YAPAUUI_OBJECT@@HZZ ; create_ui_object
  00c5e	81 c4 a4 00 00
	00		 add	 esp, 164		; 000000a4H
  00c64	89 45 fc	 mov	 DWORD PTR _temp$[ebp], eax

; 909  : 		(
; 910  : 			UI_TYPE_BUTTON,
; 911  : 			UI_ATTR_PARENT (campaign_quit_campaign_area),
; 912  : 			UI_ATTR_VIRTUAL_POSITION (x1, y1),
; 913  : 			UI_ATTR_VIRTUAL_SIZE (x2 - x1, y2 - y1),
; 914  : 			UI_ATTR_TEXT (get_trans ("No")),
; 915  : 			UI_ATTR_FONT_TYPE (UI_FONT_ARIAL_16),
; 916  : 			UI_ATTR_TEXT_JUSTIFY (TEXT_JUSTIFY_RIGHT_CENTRE),
; 917  : 			UI_ATTR_FONT_COLOUR (ui_ingame_live_text_colour.r, ui_ingame_live_text_colour.g, ui_ingame_live_text_colour.b, ui_ingame_live_text_colour.a),
; 918  : 			UI_ATTR_HIGHLIGHTED_FONT_COLOUR (ui_ingame_highlight_text_colour.r, ui_ingame_highlight_text_colour.g, ui_ingame_highlight_text_colour.b, ui_ingame_highlight_text_colour.a),
; 919  : 			UI_ATTR_SELECTED_FONT_COLOUR (ui_ingame_selected_text_colour.r, ui_ingame_selected_text_colour.g, ui_ingame_selected_text_colour.b, ui_ingame_selected_text_colour.a),
; 920  : 			UI_ATTR_HIGHLIGHTABLE (TRUE),
; 921  : 			UI_ATTR_CLEAR (TRUE),
; 922  : 			UI_ATTR_FUNCTION (notify_campaign_cancel_quit_campaign_button),
; 923  : 			UI_ATTR_END
; 924  : 		);
; 925  : 
; 926  : 	process_ingame_text_object_size (temp, NULL, NULL, 0, RESIZE_OPTION_FIXED_BUTTON);

  00c67	6a 02		 push	 2
  00c69	6a 00		 push	 0
  00c6b	6a 00		 push	 0
  00c6d	6a 00		 push	 0
  00c6f	8b 45 fc	 mov	 eax, DWORD PTR _temp$[ebp]
  00c72	50		 push	 eax
  00c73	e8 00 00 00 00	 call	 ?process_ingame_text_object_size@@YGXPAUUI_OBJECT@@0PAPBDHW4RESIZE_UI_OBJECT_TYPES@@@Z ; process_ingame_text_object_size

; 927  : 
; 928  : 
; 929  : 	x1 = get_ui_object_x_end (temp);

  00c78	8b 45 fc	 mov	 eax, DWORD PTR _temp$[ebp]
  00c7b	50		 push	 eax
  00c7c	8b 4d fc	 mov	 ecx, DWORD PTR _temp$[ebp]
  00c7f	8b 11		 mov	 edx, DWORD PTR [ecx]
  00c81	8b 04 95 00 00
	00 00		 mov	 eax, DWORD PTR ?fn_get_ui_object_x_end@@3PAP6GMPAUUI_OBJECT@@@ZA[edx*4]
  00c88	ff d0		 call	 eax
  00c8a	d9 5d f8	 fstp	 DWORD PTR _x1$[ebp]

; 930  : 
; 931  : 	x2 = get_ui_object_x_end (temp) - 0.05;

  00c8d	8b 45 fc	 mov	 eax, DWORD PTR _temp$[ebp]
  00c90	50		 push	 eax
  00c91	8b 4d fc	 mov	 ecx, DWORD PTR _temp$[ebp]
  00c94	8b 11		 mov	 edx, DWORD PTR [ecx]
  00c96	8b 04 95 00 00
	00 00		 mov	 eax, DWORD PTR ?fn_get_ui_object_x_end@@3PAP6GMPAUUI_OBJECT@@@ZA[edx*4]
  00c9d	ff d0		 call	 eax
  00c9f	dd 9d 9c fe ff
	ff		 fstp	 QWORD PTR tv1037[ebp]
  00ca5	f2 0f 10 85 9c
	fe ff ff	 movsd	 xmm0, QWORD PTR tv1037[ebp]
  00cad	f2 0f 5c 05 00
	00 00 00	 subsd	 xmm0, QWORD PTR __real@3fa999999999999a
  00cb5	f2 0f 5a c0	 cvtsd2ss xmm0, xmm0
  00cb9	f3 0f 11 45 f0	 movss	 DWORD PTR _x2$[ebp], xmm0

; 932  : 
; 933  : //	x1 = 0.6;
; 934  : 	y1 = 0.65;

  00cbe	f3 0f 10 05 00
	00 00 00	 movss	 xmm0, DWORD PTR __real@3f266666
  00cc6	f3 0f 11 45 f4	 movss	 DWORD PTR _y1$[ebp], xmm0

; 935  : //	x2 = 0.88;
; 936  : 	y2 = 1.0;

  00ccb	f3 0f 10 05 00
	00 00 00	 movss	 xmm0, DWORD PTR __real@3f800000
  00cd3	f3 0f 11 45 ec	 movss	 DWORD PTR _y2$[ebp], xmm0

; 937  : 
; 938  : 	temp = create_ui_object

  00cd8	6a 11		 push	 17			; 00000011H
  00cda	68 00 00 00 00	 push	 OFFSET ?notify_campaign_accept_quit_campaign_button@@YGXPAUUI_OBJECT@@PAX@Z ; notify_campaign_accept_quit_campaign_button
  00cdf	6a 16		 push	 22			; 00000016H
  00ce1	6a 01		 push	 1
  00ce3	6a 07		 push	 7
  00ce5	6a 01		 push	 1
  00ce7	6a 1b		 push	 27			; 0000001bH
  00ce9	0f b6 05 03 00
	00 00		 movzx	 eax, BYTE PTR ?ui_ingame_selected_text_colour@@3UREAL_COLOUR@@A+3
  00cf0	50		 push	 eax
  00cf1	0f b6 0d 00 00
	00 00		 movzx	 ecx, BYTE PTR ?ui_ingame_selected_text_colour@@3UREAL_COLOUR@@A
  00cf8	51		 push	 ecx
  00cf9	0f b6 15 01 00
	00 00		 movzx	 edx, BYTE PTR ?ui_ingame_selected_text_colour@@3UREAL_COLOUR@@A+1
  00d00	52		 push	 edx
  00d01	0f b6 05 02 00
	00 00		 movzx	 eax, BYTE PTR ?ui_ingame_selected_text_colour@@3UREAL_COLOUR@@A+2
  00d08	50		 push	 eax
  00d09	6a 3d		 push	 61			; 0000003dH
  00d0b	0f b6 0d 03 00
	00 00		 movzx	 ecx, BYTE PTR ?ui_ingame_highlight_text_colour@@3UREAL_COLOUR@@A+3
  00d12	51		 push	 ecx
  00d13	0f b6 15 00 00
	00 00		 movzx	 edx, BYTE PTR ?ui_ingame_highlight_text_colour@@3UREAL_COLOUR@@A
  00d1a	52		 push	 edx
  00d1b	0f b6 05 01 00
	00 00		 movzx	 eax, BYTE PTR ?ui_ingame_highlight_text_colour@@3UREAL_COLOUR@@A+1
  00d22	50		 push	 eax
  00d23	0f b6 0d 02 00
	00 00		 movzx	 ecx, BYTE PTR ?ui_ingame_highlight_text_colour@@3UREAL_COLOUR@@A+2
  00d2a	51		 push	 ecx
  00d2b	6a 21		 push	 33			; 00000021H
  00d2d	0f b6 15 03 00
	00 00		 movzx	 edx, BYTE PTR ?ui_ingame_live_text_colour@@3UREAL_COLOUR@@A+3
  00d34	52		 push	 edx
  00d35	0f b6 05 00 00
	00 00		 movzx	 eax, BYTE PTR ?ui_ingame_live_text_colour@@3UREAL_COLOUR@@A
  00d3c	50		 push	 eax
  00d3d	0f b6 0d 01 00
	00 00		 movzx	 ecx, BYTE PTR ?ui_ingame_live_text_colour@@3UREAL_COLOUR@@A+1
  00d44	51		 push	 ecx
  00d45	0f b6 15 02 00
	00 00		 movzx	 edx, BYTE PTR ?ui_ingame_live_text_colour@@3UREAL_COLOUR@@A+2
  00d4c	52		 push	 edx
  00d4d	6a 13		 push	 19			; 00000013H
  00d4f	6a 02		 push	 2
  00d51	6a 4b		 push	 75			; 0000004bH
  00d53	6a 03		 push	 3
  00d55	6a 12		 push	 18			; 00000012H
  00d57	68 00 00 00 00	 push	 OFFSET ??_C@_03CCLAEDDF@Yes@
  00d5c	e8 00 00 00 00	 call	 ?get_trans@@YGPBDPBD@Z	; get_trans
  00d61	50		 push	 eax
  00d62	6a 4a		 push	 74			; 0000004aH
  00d64	f3 0f 10 45 ec	 movss	 xmm0, DWORD PTR _y2$[ebp]
  00d69	f3 0f 5c 45 f4	 subss	 xmm0, DWORD PTR _y1$[ebp]
  00d6e	f3 0f 5a c0	 cvtss2sd xmm0, xmm0
  00d72	83 ec 08	 sub	 esp, 8
  00d75	f2 0f 11 04 24	 movsd	 QWORD PTR [esp], xmm0
  00d7a	f3 0f 10 45 f0	 movss	 xmm0, DWORD PTR _x2$[ebp]
  00d7f	f3 0f 5c 45 f8	 subss	 xmm0, DWORD PTR _x1$[ebp]
  00d84	f3 0f 5a c0	 cvtss2sd xmm0, xmm0
  00d88	83 ec 08	 sub	 esp, 8
  00d8b	f2 0f 11 04 24	 movsd	 QWORD PTR [esp], xmm0
  00d90	6a 59		 push	 89			; 00000059H
  00d92	f3 0f 5a 45 f4	 cvtss2sd xmm0, DWORD PTR _y1$[ebp]
  00d97	83 ec 08	 sub	 esp, 8
  00d9a	f2 0f 11 04 24	 movsd	 QWORD PTR [esp], xmm0
  00d9f	f3 0f 5a 45 f8	 cvtss2sd xmm0, DWORD PTR _x1$[ebp]
  00da4	83 ec 08	 sub	 esp, 8
  00da7	f2 0f 11 04 24	 movsd	 QWORD PTR [esp], xmm0
  00dac	6a 58		 push	 88			; 00000058H
  00dae	a1 00 00 00 00	 mov	 eax, DWORD PTR ?campaign_quit_campaign_area@@3PAUUI_OBJECT@@A
  00db3	50		 push	 eax
  00db4	6a 32		 push	 50			; 00000032H
  00db6	6a 02		 push	 2
  00db8	e8 00 00 00 00	 call	 ?create_ui_object@@YAPAUUI_OBJECT@@HZZ ; create_ui_object
  00dbd	81 c4 a4 00 00
	00		 add	 esp, 164		; 000000a4H
  00dc3	89 45 fc	 mov	 DWORD PTR _temp$[ebp], eax

; 939  : 		(
; 940  : 			UI_TYPE_BUTTON,
; 941  : 			UI_ATTR_PARENT (campaign_quit_campaign_area),
; 942  : 			UI_ATTR_VIRTUAL_POSITION (x1, y1),
; 943  : 			UI_ATTR_VIRTUAL_SIZE (x2 - x1, y2 - y1),
; 944  : 			UI_ATTR_TEXT (get_trans ("Yes")),
; 945  : 			UI_ATTR_FONT_TYPE (UI_FONT_ARIAL_16),
; 946  : 			UI_ATTR_TEXT_JUSTIFY (TEXT_JUSTIFY_RIGHT_CENTRE),
; 947  : 			UI_ATTR_FONT_COLOUR (ui_ingame_live_text_colour.r, ui_ingame_live_text_colour.g, ui_ingame_live_text_colour.b, ui_ingame_live_text_colour.a),
; 948  : 			UI_ATTR_HIGHLIGHTED_FONT_COLOUR (ui_ingame_highlight_text_colour.r, ui_ingame_highlight_text_colour.g, ui_ingame_highlight_text_colour.b, ui_ingame_highlight_text_colour.a),
; 949  : 			UI_ATTR_SELECTED_FONT_COLOUR (ui_ingame_selected_text_colour.r, ui_ingame_selected_text_colour.g, ui_ingame_selected_text_colour.b, ui_ingame_selected_text_colour.a),
; 950  : 			UI_ATTR_HIGHLIGHTABLE (TRUE),
; 951  : 			UI_ATTR_CLEAR (TRUE),
; 952  : 			UI_ATTR_FUNCTION (notify_campaign_accept_quit_campaign_button),
; 953  : 			UI_ATTR_END
; 954  : 		);
; 955  : 
; 956  : 	process_ingame_text_object_size (temp, NULL, NULL, 0, RESIZE_OPTION_FIXED_BUTTON);

  00dc6	6a 02		 push	 2
  00dc8	6a 00		 push	 0
  00dca	6a 00		 push	 0
  00dcc	6a 00		 push	 0
  00dce	8b 45 fc	 mov	 eax, DWORD PTR _temp$[ebp]
  00dd1	50		 push	 eax
  00dd2	e8 00 00 00 00	 call	 ?process_ingame_text_object_size@@YGXPAUUI_OBJECT@@0PAPBDHW4RESIZE_UI_OBJECT_TYPES@@@Z ; process_ingame_text_object_size

; 957  : }

  00dd7	5f		 pop	 edi
  00dd8	5e		 pop	 esi
  00dd9	5b		 pop	 ebx
  00dda	8b e5		 mov	 esp, ebp
  00ddc	5d		 pop	 ebp
  00ddd	c3		 ret	 0
?initialise_campaign_screen@@YGXXZ ENDP			; initialise_campaign_screen
_TEXT	ENDS
; Function compile flags: /Odtp /ZI
; File c:\users\nhv90\projects\eech\aphavoc\source\ui_menu\ingame\campaign\campaign.c
;	COMDAT ?get_current_campaign_page@@YG?AW4CAMPAIGN_PAGES@@XZ
_TEXT	SEGMENT
_current_page$ = -8					; size = 4
_loop$ = -4						; size = 4
?get_current_campaign_page@@YG?AW4CAMPAIGN_PAGES@@XZ PROC ; get_current_campaign_page, COMDAT

; 293  : {

  00000	55		 push	 ebp
  00001	8b ec		 mov	 ebp, esp
  00003	83 ec 48	 sub	 esp, 72			; 00000048H
  00006	53		 push	 ebx
  00007	56		 push	 esi
  00008	57		 push	 edi

; 294  : 	int
; 295  : 		loop,
; 296  : 		current_page;
; 297  : 
; 298  : 	current_page = -1;

  00009	c7 45 f8 ff ff
	ff ff		 mov	 DWORD PTR _current_page$[ebp], -1

; 299  : 			
; 300  : 	for (loop = 0; loop < NUM_CAMPAIGN_PAGES; loop ++)

  00010	c7 45 fc 00 00
	00 00		 mov	 DWORD PTR _loop$[ebp], 0
  00017	eb 09		 jmp	 SHORT $LN4@get_curren
$LN2@get_curren:
  00019	8b 45 fc	 mov	 eax, DWORD PTR _loop$[ebp]
  0001c	83 c0 01	 add	 eax, 1
  0001f	89 45 fc	 mov	 DWORD PTR _loop$[ebp], eax
$LN4@get_curren:
  00022	83 7d fc 0a	 cmp	 DWORD PTR _loop$[ebp], 10 ; 0000000aH
  00026	7d 2e		 jge	 SHORT $LN3@get_curren

; 301  : 	{
; 302  : 		if (get_ui_object_drawable (campaign_page [loop]))

  00028	8b 45 fc	 mov	 eax, DWORD PTR _loop$[ebp]
  0002b	8b 0c 85 00 00
	00 00		 mov	 ecx, DWORD PTR ?campaign_page@@3PAPAUUI_OBJECT@@A[eax*4]
  00032	51		 push	 ecx
  00033	8b 55 fc	 mov	 edx, DWORD PTR _loop$[ebp]
  00036	8b 04 95 00 00
	00 00		 mov	 eax, DWORD PTR ?campaign_page@@3PAPAUUI_OBJECT@@A[edx*4]
  0003d	8b 08		 mov	 ecx, DWORD PTR [eax]
  0003f	8b 14 8d 00 00
	00 00		 mov	 edx, DWORD PTR ?fn_get_ui_object_drawable@@3PAP6GHPAUUI_OBJECT@@@ZA[ecx*4]
  00046	ff d2		 call	 edx
  00048	85 c0		 test	 eax, eax
  0004a	74 08		 je	 SHORT $LN5@get_curren

; 303  : 		{
; 304  : 			current_page = loop;

  0004c	8b 45 fc	 mov	 eax, DWORD PTR _loop$[ebp]
  0004f	89 45 f8	 mov	 DWORD PTR _current_page$[ebp], eax

; 305  : 	
; 306  : 			break;

  00052	eb 02		 jmp	 SHORT $LN3@get_curren
$LN5@get_curren:

; 307  : 		}
; 308  : 	}

  00054	eb c3		 jmp	 SHORT $LN2@get_curren
$LN3@get_curren:

; 309  : 
; 310  : 	return (campaign_pages) current_page;

  00056	8b 45 f8	 mov	 eax, DWORD PTR _current_page$[ebp]

; 311  : }

  00059	5f		 pop	 edi
  0005a	5e		 pop	 esi
  0005b	5b		 pop	 ebx
  0005c	8b e5		 mov	 esp, ebp
  0005e	5d		 pop	 ebp
  0005f	c3		 ret	 0
?get_current_campaign_page@@YG?AW4CAMPAIGN_PAGES@@XZ ENDP ; get_current_campaign_page
_TEXT	ENDS
; Function compile flags: /Odtp /ZI
; File c:\users\nhv90\projects\eech\aphavoc\source\ui_menu\ingame\campaign\campaign.c
;	COMDAT ?display_campaign_page@@YGXW4CAMPAIGN_PAGES@@HH@Z
_TEXT	SEGMENT
_current_index$ = -12					; size = 4
_current_page$ = -8					; size = 4
_loop$ = -4						; size = 4
_page$ = 8						; size = 4
_index$ = 12						; size = 4
_add_to_history$ = 16					; size = 4
?display_campaign_page@@YGXW4CAMPAIGN_PAGES@@HH@Z PROC	; display_campaign_page, COMDAT

; 217  : {

  00000	55		 push	 ebp
  00001	8b ec		 mov	 ebp, esp
  00003	83 ec 4c	 sub	 esp, 76			; 0000004cH
  00006	53		 push	 ebx
  00007	56		 push	 esi
  00008	57		 push	 edi

; 218  : 	#if !DEMO_VERSION
; 219  : 
; 220  : 	int
; 221  : 		loop,
; 222  : 		current_page,
; 223  : 		current_index;
; 224  : 
; 225  : 	//
; 226  : 	// Store history
; 227  : 	//
; 228  : 	
; 229  : 	if (add_to_history)

  00009	83 7d 10 00	 cmp	 DWORD PTR _add_to_history$[ebp], 0
  0000d	0f 84 93 00 00
	00		 je	 $LN8@display_ca

; 230  : 	{
; 231  : 		current_page = -1;

  00013	c7 45 f8 ff ff
	ff ff		 mov	 DWORD PTR _current_page$[ebp], -1

; 232  : 			
; 233  : 		for (loop = 0; loop < NUM_CAMPAIGN_PAGES; loop ++)

  0001a	c7 45 fc 00 00
	00 00		 mov	 DWORD PTR _loop$[ebp], 0
  00021	eb 09		 jmp	 SHORT $LN4@display_ca
$LN2@display_ca:
  00023	8b 45 fc	 mov	 eax, DWORD PTR _loop$[ebp]
  00026	83 c0 01	 add	 eax, 1
  00029	89 45 fc	 mov	 DWORD PTR _loop$[ebp], eax
$LN4@display_ca:
  0002c	83 7d fc 0a	 cmp	 DWORD PTR _loop$[ebp], 10 ; 0000000aH
  00030	7d 2e		 jge	 SHORT $LN3@display_ca

; 234  : 		{
; 235  : 			if (get_ui_object_drawable (campaign_page [loop]))

  00032	8b 45 fc	 mov	 eax, DWORD PTR _loop$[ebp]
  00035	8b 0c 85 00 00
	00 00		 mov	 ecx, DWORD PTR ?campaign_page@@3PAPAUUI_OBJECT@@A[eax*4]
  0003c	51		 push	 ecx
  0003d	8b 55 fc	 mov	 edx, DWORD PTR _loop$[ebp]
  00040	8b 04 95 00 00
	00 00		 mov	 eax, DWORD PTR ?campaign_page@@3PAPAUUI_OBJECT@@A[edx*4]
  00047	8b 08		 mov	 ecx, DWORD PTR [eax]
  00049	8b 14 8d 00 00
	00 00		 mov	 edx, DWORD PTR ?fn_get_ui_object_drawable@@3PAP6GHPAUUI_OBJECT@@@ZA[ecx*4]
  00050	ff d2		 call	 edx
  00052	85 c0		 test	 eax, eax
  00054	74 08		 je	 SHORT $LN9@display_ca

; 236  : 			{
; 237  : 				current_page = loop;

  00056	8b 45 fc	 mov	 eax, DWORD PTR _loop$[ebp]
  00059	89 45 f8	 mov	 DWORD PTR _current_page$[ebp], eax

; 238  : 	
; 239  : 				break;

  0005c	eb 02		 jmp	 SHORT $LN3@display_ca
$LN9@display_ca:

; 240  : 			}
; 241  : 		}

  0005e	eb c3		 jmp	 SHORT $LN2@display_ca
$LN3@display_ca:

; 242  : 	
; 243  : 		if (current_page != -1)

  00060	83 7d f8 ff	 cmp	 DWORD PTR _current_page$[ebp], -1
  00064	74 40		 je	 SHORT $LN8@display_ca

; 244  : 		{
; 245  : 			current_index = get_ui_object_item_number (campaign_page [current_page]);

  00066	8b 45 f8	 mov	 eax, DWORD PTR _current_page$[ebp]
  00069	8b 0c 85 00 00
	00 00		 mov	 ecx, DWORD PTR ?campaign_page@@3PAPAUUI_OBJECT@@A[eax*4]
  00070	51		 push	 ecx
  00071	8b 55 f8	 mov	 edx, DWORD PTR _current_page$[ebp]
  00074	8b 04 95 00 00
	00 00		 mov	 eax, DWORD PTR ?campaign_page@@3PAPAUUI_OBJECT@@A[edx*4]
  0007b	8b 08		 mov	 ecx, DWORD PTR [eax]
  0007d	8b 14 8d 00 00
	00 00		 mov	 edx, DWORD PTR ?fn_get_ui_object_item_number@@3PAP6GHPAUUI_OBJECT@@@ZA[ecx*4]
  00084	ff d2		 call	 edx
  00086	89 45 f4	 mov	 DWORD PTR _current_index$[ebp], eax

; 246  : 			
; 247  : 			if ((page != current_page) || (index != current_index))

  00089	8b 45 08	 mov	 eax, DWORD PTR _page$[ebp]
  0008c	3b 45 f8	 cmp	 eax, DWORD PTR _current_page$[ebp]
  0008f	75 08		 jne	 SHORT $LN12@display_ca
  00091	8b 45 0c	 mov	 eax, DWORD PTR _index$[ebp]
  00094	3b 45 f4	 cmp	 eax, DWORD PTR _current_index$[ebp]
  00097	74 0d		 je	 SHORT $LN8@display_ca
$LN12@display_ca:

; 248  : 			{
; 249  : 				push_campaign_history ((campaign_pages) current_page, current_index);

  00099	8b 45 f4	 mov	 eax, DWORD PTR _current_index$[ebp]
  0009c	50		 push	 eax
  0009d	8b 4d f8	 mov	 ecx, DWORD PTR _current_page$[ebp]
  000a0	51		 push	 ecx
  000a1	e8 00 00 00 00	 call	 ?push_campaign_history@@YGXW4CAMPAIGN_PAGES@@H@Z ; push_campaign_history
$LN8@display_ca:

; 250  : 			}
; 251  : 		}
; 252  : 	}
; 253  : 
; 254  : 	//
; 255  : 	// Display new page
; 256  : 	//
; 257  : 
; 258  : 	for (loop = 0; loop < NUM_CAMPAIGN_PAGES; loop ++)

  000a6	c7 45 fc 00 00
	00 00		 mov	 DWORD PTR _loop$[ebp], 0
  000ad	eb 09		 jmp	 SHORT $LN7@display_ca
$LN5@display_ca:
  000af	8b 45 fc	 mov	 eax, DWORD PTR _loop$[ebp]
  000b2	83 c0 01	 add	 eax, 1
  000b5	89 45 fc	 mov	 DWORD PTR _loop$[ebp], eax
$LN7@display_ca:
  000b8	83 7d fc 0a	 cmp	 DWORD PTR _loop$[ebp], 10 ; 0000000aH
  000bc	0f 8d 8a 00 00
	00		 jge	 $LN1@display_ca

; 259  : 	{
; 260  : 		if (page == loop)

  000c2	8b 45 08	 mov	 eax, DWORD PTR _page$[ebp]
  000c5	3b 45 fc	 cmp	 eax, DWORD PTR _loop$[ebp]
  000c8	75 5b		 jne	 SHORT $LN13@display_ca

; 261  : 		{
; 262  : 			//TEMP - DEBUG
; 263  : 			#ifdef DEBUG
; 264  : 			if ((page == CAMPAIGN_PAGE_GROUP) && (index == ENTITY_INDEX_DONT_CARE))

  000ca	83 7d 08 03	 cmp	 DWORD PTR _page$[ebp], 3
  000ce	75 0d		 jne	 SHORT $LN15@display_ca
  000d0	83 7d 0c ff	 cmp	 DWORD PTR _index$[ebp], -1
  000d4	75 07		 jne	 SHORT $LN15@display_ca

; 265  : 			{
; 266  : 				//
; 267  : 				// IF THIS HAPPENS - TELL ME (DAVE L)
; 268  : 				//
; 269  : 				
; 270  : 				breakout (NULL);

  000d6	6a 00		 push	 0
  000d8	e8 00 00 00 00	 call	 ?breakout@@YGXPAUEVENT@@@Z ; breakout
$LN15@display_ca:

; 271  : 			}				
; 272  : 			#endif
; 273  : 			//
; 274  : 
; 275  : 			set_ui_object_drawable (campaign_page [loop], TRUE);

  000dd	6a 01		 push	 1
  000df	8b 45 fc	 mov	 eax, DWORD PTR _loop$[ebp]
  000e2	8b 0c 85 00 00
	00 00		 mov	 ecx, DWORD PTR ?campaign_page@@3PAPAUUI_OBJECT@@A[eax*4]
  000e9	51		 push	 ecx
  000ea	8b 55 fc	 mov	 edx, DWORD PTR _loop$[ebp]
  000ed	8b 04 95 00 00
	00 00		 mov	 eax, DWORD PTR ?campaign_page@@3PAPAUUI_OBJECT@@A[edx*4]
  000f4	8b 08		 mov	 ecx, DWORD PTR [eax]
  000f6	8b 14 8d 00 00
	00 00		 mov	 edx, DWORD PTR ?fn_set_ui_object_drawable@@3PAP6GXPAUUI_OBJECT@@H@ZA[ecx*4]
  000fd	ff d2		 call	 edx

; 276  : 
; 277  : 			set_ui_object_item_number (campaign_page [loop], index);

  000ff	8b 45 0c	 mov	 eax, DWORD PTR _index$[ebp]
  00102	50		 push	 eax
  00103	8b 4d fc	 mov	 ecx, DWORD PTR _loop$[ebp]
  00106	8b 14 8d 00 00
	00 00		 mov	 edx, DWORD PTR ?campaign_page@@3PAPAUUI_OBJECT@@A[ecx*4]
  0010d	52		 push	 edx
  0010e	8b 45 fc	 mov	 eax, DWORD PTR _loop$[ebp]
  00111	8b 0c 85 00 00
	00 00		 mov	 ecx, DWORD PTR ?campaign_page@@3PAPAUUI_OBJECT@@A[eax*4]
  00118	8b 11		 mov	 edx, DWORD PTR [ecx]
  0011a	8b 04 95 00 00
	00 00		 mov	 eax, DWORD PTR ?fn_set_ui_object_item_number@@3PAP6GXPAUUI_OBJECT@@H@ZA[edx*4]
  00121	ff d0		 call	 eax

; 278  : 		}
; 279  : 		else

  00123	eb 22		 jmp	 SHORT $LN14@display_ca
$LN13@display_ca:

; 280  : 		{
; 281  : 			set_ui_object_drawable (campaign_page [loop], FALSE);

  00125	6a 00		 push	 0
  00127	8b 45 fc	 mov	 eax, DWORD PTR _loop$[ebp]
  0012a	8b 0c 85 00 00
	00 00		 mov	 ecx, DWORD PTR ?campaign_page@@3PAPAUUI_OBJECT@@A[eax*4]
  00131	51		 push	 ecx
  00132	8b 55 fc	 mov	 edx, DWORD PTR _loop$[ebp]
  00135	8b 04 95 00 00
	00 00		 mov	 eax, DWORD PTR ?campaign_page@@3PAPAUUI_OBJECT@@A[edx*4]
  0013c	8b 08		 mov	 ecx, DWORD PTR [eax]
  0013e	8b 14 8d 00 00
	00 00		 mov	 edx, DWORD PTR ?fn_set_ui_object_drawable@@3PAP6GXPAUUI_OBJECT@@H@ZA[ecx*4]
  00145	ff d2		 call	 edx
$LN14@display_ca:

; 282  : 		}
; 283  : 	}

  00147	e9 63 ff ff ff	 jmp	 $LN5@display_ca
$LN1@display_ca:

; 284  : 
; 285  : 	#endif
; 286  : }

  0014c	5f		 pop	 edi
  0014d	5e		 pop	 esi
  0014e	5b		 pop	 ebx
  0014f	8b e5		 mov	 esp, ebp
  00151	5d		 pop	 ebp
  00152	c2 0c 00	 ret	 12			; 0000000cH
?display_campaign_page@@YGXW4CAMPAIGN_PAGES@@HH@Z ENDP	; display_campaign_page
_TEXT	ENDS
; Function compile flags: /Odtp /ZI
; File c:\users\nhv90\projects\eech\aphavoc\source\ui_menu\ingame\campaign\campaign.c
;	COMDAT ?initialise_main_campaign_screen@@YGXXZ
_TEXT	SEGMENT
?initialise_main_campaign_screen@@YGXXZ PROC		; initialise_main_campaign_screen, COMDAT

; 107  : {

  00000	55		 push	 ebp
  00001	8b ec		 mov	 ebp, esp
  00003	83 ec 40	 sub	 esp, 64			; 00000040H
  00006	53		 push	 ebx
  00007	56		 push	 esi
  00008	57		 push	 edi

; 108  : 	#if !DEMO_VERSION
; 109  : 
; 110  : 	initialise_map_data ();

  00009	e8 00 00 00 00	 call	 ?initialise_map_data@@YGXXZ ; initialise_map_data

; 111  : 
; 112  : 	initialise_campaign_screen_sort_objects ();

  0000e	e8 00 00 00 00	 call	 ?initialise_campaign_screen_sort_objects@@YGXXZ ; initialise_campaign_screen_sort_objects

; 113  : 
; 114  : 	initialise_campaign_screen_menu_objects ();

  00013	e8 00 00 00 00	 call	 ?initialise_campaign_screen_menu_objects@@YGXXZ ; initialise_campaign_screen_menu_objects

; 115  : 
; 116  : 	initialise_campaign_screen_list_objects ();

  00018	e8 00 00 00 00	 call	 ?initialise_campaign_screen_list_objects@@YGXXZ ; initialise_campaign_screen_list_objects

; 117  : 
; 118  : 	initialise_campaign_screen_info_objects ();

  0001d	e8 00 00 00 00	 call	 ?initialise_campaign_screen_info_objects@@YGXXZ ; initialise_campaign_screen_info_objects

; 119  : 
; 120  : 	initialise_campaign_screen_selection_objects ();

  00022	e8 00 00 00 00	 call	 ?initialise_campaign_screen_selection_objects@@YGXXZ ; initialise_campaign_screen_selection_objects

; 121  : 
; 122  : 	initialise_campaign_screen_base_page_objects ();

  00027	e8 00 00 00 00	 call	 ?initialise_campaign_screen_base_page_objects@@YGXXZ ; initialise_campaign_screen_base_page_objects

; 123  : 
; 124  : 	initialise_campaign_screen_briefing_page_objects ();

  0002c	e8 00 00 00 00	 call	 ?initialise_campaign_screen_briefing_page_objects@@YGXXZ ; initialise_campaign_screen_briefing_page_objects

; 125  : 
; 126  : 	initialise_campaign_screen_debriefing_page_objects ();

  00031	e8 00 00 00 00	 call	 ?initialise_campaign_screen_debriefing_page_objects@@YGXXZ ; initialise_campaign_screen_debriefing_page_objects

; 127  : 
; 128  : 	initialise_campaign_screen_group_page_objects ();

  00036	e8 00 00 00 00	 call	 ?initialise_campaign_screen_group_page_objects@@YGXXZ ; initialise_campaign_screen_group_page_objects

; 129  : 
; 130  : 	initialise_campaign_screen_map_page_objects ();

  0003b	e8 00 00 00 00	 call	 ?initialise_campaign_screen_map_page_objects@@YGXXZ ; initialise_campaign_screen_map_page_objects

; 131  : 
; 132  : 	initialise_campaign_screen_stats_page_objects ();

  00040	e8 00 00 00 00	 call	 ?initialise_campaign_screen_stats_page_objects@@YGXXZ ; initialise_campaign_screen_stats_page_objects

; 133  : 
; 134  : 	initialise_campaign_screen_log_page_objects ();

  00045	e8 00 00 00 00	 call	 ?initialise_campaign_screen_log_page_objects@@YGXXZ ; initialise_campaign_screen_log_page_objects

; 135  : 
; 136  : 	initialise_campaign_screen_chat_page_objects ();

  0004a	e8 00 00 00 00	 call	 ?initialise_campaign_screen_chat_page_objects@@YGXXZ ; initialise_campaign_screen_chat_page_objects

; 137  : 
; 138  : 	initialise_campaign_screen_save_page_objects ();

  0004f	e8 00 00 00 00	 call	 ?initialise_campaign_screen_save_page_objects@@YGXXZ ; initialise_campaign_screen_save_page_objects

; 139  : 
; 140  : 	initialise_campaign_screen_weapon_loading_page_objects ();

  00054	e8 00 00 00 00	 call	 ?initialise_campaign_screen_weapon_loading_page_objects@@YGXXZ ; initialise_campaign_screen_weapon_loading_page_objects

; 141  : 
; 142  : 	initialise_campaign_screen_full_screen_map_objects ();

  00059	e8 00 00 00 00	 call	 ?initialise_campaign_screen_full_screen_map_objects@@YGXXZ ; initialise_campaign_screen_full_screen_map_objects

; 143  : 
; 144  : 	initialise_campaign_history ();

  0005e	e8 00 00 00 00	 call	 ?initialise_campaign_history@@YGXXZ ; initialise_campaign_history

; 145  : 
; 146  : 	set_ui_object_drawable (campaign_full_screen_mask_area, FALSE);

  00063	6a 00		 push	 0
  00065	a1 00 00 00 00	 mov	 eax, DWORD PTR ?campaign_full_screen_mask_area@@3PAUUI_OBJECT@@A
  0006a	50		 push	 eax
  0006b	8b 0d 00 00 00
	00		 mov	 ecx, DWORD PTR ?campaign_full_screen_mask_area@@3PAUUI_OBJECT@@A
  00071	8b 11		 mov	 edx, DWORD PTR [ecx]
  00073	8b 04 95 00 00
	00 00		 mov	 eax, DWORD PTR ?fn_set_ui_object_drawable@@3PAP6GXPAUUI_OBJECT@@H@ZA[edx*4]
  0007a	ff d0		 call	 eax

; 147  : 
; 148  : 	set_ui_object_drawable (campaign_dialog_area, FALSE);

  0007c	6a 00		 push	 0
  0007e	a1 00 00 00 00	 mov	 eax, DWORD PTR ?campaign_dialog_area@@3PAUUI_OBJECT@@A
  00083	50		 push	 eax
  00084	8b 0d 00 00 00
	00		 mov	 ecx, DWORD PTR ?campaign_dialog_area@@3PAUUI_OBJECT@@A
  0008a	8b 11		 mov	 edx, DWORD PTR [ecx]
  0008c	8b 04 95 00 00
	00 00		 mov	 eax, DWORD PTR ?fn_set_ui_object_drawable@@3PAP6GXPAUUI_OBJECT@@H@ZA[edx*4]
  00093	ff d0		 call	 eax

; 149  : 
; 150  : 	set_ui_object_drawable (campaign_complete_area, FALSE);

  00095	6a 00		 push	 0
  00097	a1 00 00 00 00	 mov	 eax, DWORD PTR ?campaign_complete_area@@3PAUUI_OBJECT@@A
  0009c	50		 push	 eax
  0009d	8b 0d 00 00 00
	00		 mov	 ecx, DWORD PTR ?campaign_complete_area@@3PAUUI_OBJECT@@A
  000a3	8b 11		 mov	 edx, DWORD PTR [ecx]
  000a5	8b 04 95 00 00
	00 00		 mov	 eax, DWORD PTR ?fn_set_ui_object_drawable@@3PAP6GXPAUUI_OBJECT@@H@ZA[edx*4]
  000ac	ff d0		 call	 eax

; 151  : 
; 152  : 	set_ui_object_drawable (campaign_quit_mission_area, FALSE);

  000ae	6a 00		 push	 0
  000b0	a1 00 00 00 00	 mov	 eax, DWORD PTR ?campaign_quit_mission_area@@3PAUUI_OBJECT@@A
  000b5	50		 push	 eax
  000b6	8b 0d 00 00 00
	00		 mov	 ecx, DWORD PTR ?campaign_quit_mission_area@@3PAUUI_OBJECT@@A
  000bc	8b 11		 mov	 edx, DWORD PTR [ecx]
  000be	8b 04 95 00 00
	00 00		 mov	 eax, DWORD PTR ?fn_set_ui_object_drawable@@3PAP6GXPAUUI_OBJECT@@H@ZA[edx*4]
  000c5	ff d0		 call	 eax

; 153  : 
; 154  : 	set_ui_object_drawable (campaign_quit_campaign_area, FALSE);

  000c7	6a 00		 push	 0
  000c9	a1 00 00 00 00	 mov	 eax, DWORD PTR ?campaign_quit_campaign_area@@3PAUUI_OBJECT@@A
  000ce	50		 push	 eax
  000cf	8b 0d 00 00 00
	00		 mov	 ecx, DWORD PTR ?campaign_quit_campaign_area@@3PAUUI_OBJECT@@A
  000d5	8b 11		 mov	 edx, DWORD PTR [ecx]
  000d7	8b 04 95 00 00
	00 00		 mov	 eax, DWORD PTR ?fn_set_ui_object_drawable@@3PAP6GXPAUUI_OBJECT@@H@ZA[edx*4]
  000de	ff d0		 call	 eax

; 155  : 
; 156  : 	show_map_page ();

  000e0	e8 00 00 00 00	 call	 ?show_map_page@@YGXXZ	; show_map_page

; 157  : 
; 158  : 	#endif
; 159  : }

  000e5	5f		 pop	 edi
  000e6	5e		 pop	 esi
  000e7	5b		 pop	 ebx
  000e8	8b e5		 mov	 esp, ebp
  000ea	5d		 pop	 ebp
  000eb	c3		 ret	 0
?initialise_main_campaign_screen@@YGXXZ ENDP		; initialise_main_campaign_screen
_TEXT	ENDS
; Function compile flags: /Odtp /ZI
; File c:\program files (x86)\windows kits\10\include\10.0.18362.0\ucrt\stdio.h
;	COMDAT _sprintf
_TEXT	SEGMENT
__ArgList$ = -8						; size = 4
__Result$ = -4						; size = 4
__Buffer$ = 8						; size = 4
__Format$ = 12						; size = 4
_sprintf PROC						; COMDAT

; 1781 :     {

  00000	55		 push	 ebp
  00001	8b ec		 mov	 ebp, esp
  00003	83 ec 4c	 sub	 esp, 76			; 0000004cH
  00006	53		 push	 ebx
  00007	56		 push	 esi
  00008	57		 push	 edi

; 1782 :         int _Result;
; 1783 :         va_list _ArgList;
; 1784 :         __crt_va_start(_ArgList, _Format);

  00009	8d 45 10	 lea	 eax, DWORD PTR __Format$[ebp+4]
  0000c	89 45 f8	 mov	 DWORD PTR __ArgList$[ebp], eax

; 1785 : 
; 1786 :         #pragma warning(push)
; 1787 :         #pragma warning(disable: 4996) // Deprecation
; 1788 :         _Result = _vsprintf_l(_Buffer, _Format, NULL, _ArgList);

  0000f	8b 45 f8	 mov	 eax, DWORD PTR __ArgList$[ebp]
  00012	50		 push	 eax
  00013	6a 00		 push	 0
  00015	8b 4d 0c	 mov	 ecx, DWORD PTR __Format$[ebp]
  00018	51		 push	 ecx
  00019	8b 55 08	 mov	 edx, DWORD PTR __Buffer$[ebp]
  0001c	52		 push	 edx
  0001d	e8 00 00 00 00	 call	 __vsprintf_l
  00022	83 c4 10	 add	 esp, 16			; 00000010H
  00025	89 45 fc	 mov	 DWORD PTR __Result$[ebp], eax

; 1789 :         #pragma warning(pop)
; 1790 : 
; 1791 :         __crt_va_end(_ArgList);

  00028	c7 45 f8 00 00
	00 00		 mov	 DWORD PTR __ArgList$[ebp], 0

; 1792 :         return _Result;

  0002f	8b 45 fc	 mov	 eax, DWORD PTR __Result$[ebp]

; 1793 :     }

  00032	5f		 pop	 edi
  00033	5e		 pop	 esi
  00034	5b		 pop	 ebx
  00035	8b e5		 mov	 esp, ebp
  00037	5d		 pop	 ebp
  00038	c3		 ret	 0
_sprintf ENDP
_TEXT	ENDS
; Function compile flags: /Odtp /ZI
; File c:\program files (x86)\windows kits\10\include\10.0.18362.0\ucrt\stdio.h
;	COMDAT __vsprintf_l
_TEXT	SEGMENT
__Buffer$ = 8						; size = 4
__Format$ = 12						; size = 4
__Locale$ = 16						; size = 4
__ArgList$ = 20						; size = 4
__vsprintf_l PROC					; COMDAT

; 1459 :     {

  00000	55		 push	 ebp
  00001	8b ec		 mov	 ebp, esp
  00003	83 ec 40	 sub	 esp, 64			; 00000040H
  00006	53		 push	 ebx
  00007	56		 push	 esi
  00008	57		 push	 edi

; 1460 :         #pragma warning(push)
; 1461 :         #pragma warning(disable: 4996) // Deprecation
; 1462 :         return _vsnprintf_l(_Buffer, (size_t)-1, _Format, _Locale, _ArgList);

  00009	8b 45 14	 mov	 eax, DWORD PTR __ArgList$[ebp]
  0000c	50		 push	 eax
  0000d	8b 4d 10	 mov	 ecx, DWORD PTR __Locale$[ebp]
  00010	51		 push	 ecx
  00011	8b 55 0c	 mov	 edx, DWORD PTR __Format$[ebp]
  00014	52		 push	 edx
  00015	6a ff		 push	 -1
  00017	8b 45 08	 mov	 eax, DWORD PTR __Buffer$[ebp]
  0001a	50		 push	 eax
  0001b	e8 00 00 00 00	 call	 __vsnprintf_l
  00020	83 c4 14	 add	 esp, 20			; 00000014H

; 1463 :         #pragma warning(pop)
; 1464 :     }

  00023	5f		 pop	 edi
  00024	5e		 pop	 esi
  00025	5b		 pop	 ebx
  00026	8b e5		 mov	 esp, ebp
  00028	5d		 pop	 ebp
  00029	c3		 ret	 0
__vsprintf_l ENDP
_TEXT	ENDS
; Function compile flags: /Odtp /ZI
; File c:\program files (x86)\windows kits\10\include\10.0.18362.0\ucrt\stdio.h
;	COMDAT __vsnprintf_l
_TEXT	SEGMENT
tv74 = -72						; size = 4
__Result$ = -4						; size = 4
__Buffer$ = 8						; size = 4
__BufferCount$ = 12					; size = 4
__Format$ = 16						; size = 4
__Locale$ = 20						; size = 4
__ArgList$ = 24						; size = 4
__vsnprintf_l PROC					; COMDAT

; 1389 :     {

  00000	55		 push	 ebp
  00001	8b ec		 mov	 ebp, esp
  00003	83 ec 48	 sub	 esp, 72			; 00000048H
  00006	53		 push	 ebx
  00007	56		 push	 esi
  00008	57		 push	 edi

; 1390 :         int const _Result = __stdio_common_vsprintf(

  00009	8b 45 18	 mov	 eax, DWORD PTR __ArgList$[ebp]
  0000c	50		 push	 eax
  0000d	8b 4d 14	 mov	 ecx, DWORD PTR __Locale$[ebp]
  00010	51		 push	 ecx
  00011	8b 55 10	 mov	 edx, DWORD PTR __Format$[ebp]
  00014	52		 push	 edx
  00015	8b 45 0c	 mov	 eax, DWORD PTR __BufferCount$[ebp]
  00018	50		 push	 eax
  00019	8b 4d 08	 mov	 ecx, DWORD PTR __Buffer$[ebp]
  0001c	51		 push	 ecx
  0001d	e8 00 00 00 00	 call	 ___local_stdio_printf_options
  00022	8b 10		 mov	 edx, DWORD PTR [eax]
  00024	83 ca 01	 or	 edx, 1
  00027	8b 40 04	 mov	 eax, DWORD PTR [eax+4]
  0002a	50		 push	 eax
  0002b	52		 push	 edx
  0002c	ff 15 00 00 00
	00		 call	 DWORD PTR __imp____stdio_common_vsprintf
  00032	83 c4 1c	 add	 esp, 28			; 0000001cH
  00035	89 45 fc	 mov	 DWORD PTR __Result$[ebp], eax

; 1391 :             _CRT_INTERNAL_LOCAL_PRINTF_OPTIONS | _CRT_INTERNAL_PRINTF_LEGACY_VSPRINTF_NULL_TERMINATION,
; 1392 :             _Buffer, _BufferCount, _Format, _Locale, _ArgList);
; 1393 : 
; 1394 :         return _Result < 0 ? -1 : _Result;

  00038	83 7d fc 00	 cmp	 DWORD PTR __Result$[ebp], 0
  0003c	7d 09		 jge	 SHORT $LN3@vsnprintf_
  0003e	c7 45 b8 ff ff
	ff ff		 mov	 DWORD PTR tv74[ebp], -1
  00045	eb 06		 jmp	 SHORT $LN4@vsnprintf_
$LN3@vsnprintf_:
  00047	8b 45 fc	 mov	 eax, DWORD PTR __Result$[ebp]
  0004a	89 45 b8	 mov	 DWORD PTR tv74[ebp], eax
$LN4@vsnprintf_:
  0004d	8b 45 b8	 mov	 eax, DWORD PTR tv74[ebp]

; 1395 :     }

  00050	5f		 pop	 edi
  00051	5e		 pop	 esi
  00052	5b		 pop	 ebx
  00053	8b e5		 mov	 esp, ebp
  00055	5d		 pop	 ebp
  00056	c3		 ret	 0
__vsnprintf_l ENDP
_TEXT	ENDS
; Function compile flags: /Odtp /ZI
; File c:\program files (x86)\windows kits\10\include\10.0.18362.0\ucrt\corecrt_stdio_config.h
;	COMDAT ___local_stdio_printf_options
_TEXT	SEGMENT
___local_stdio_printf_options PROC			; COMDAT

; 86   :     {

  00000	55		 push	 ebp
  00001	8b ec		 mov	 ebp, esp
  00003	83 ec 40	 sub	 esp, 64			; 00000040H
  00006	53		 push	 ebx
  00007	56		 push	 esi
  00008	57		 push	 edi

; 87   :         static unsigned __int64 _OptionsStorage;
; 88   :         return &_OptionsStorage;

  00009	b8 00 00 00 00	 mov	 eax, OFFSET ?_OptionsStorage@?1??__local_stdio_printf_options@@9@4_KA ; `__local_stdio_printf_options'::`2'::_OptionsStorage

; 89   :     }

  0000e	5f		 pop	 edi
  0000f	5e		 pop	 esi
  00010	5b		 pop	 ebx
  00011	8b e5		 mov	 esp, ebp
  00013	5d		 pop	 ebp
  00014	c3		 ret	 0
___local_stdio_printf_options ENDP
_TEXT	ENDS
END
