; Listing generated by Microsoft (R) Optimizing Compiler Version 19.16.27045.0 

	TITLE	C:\Users\nhv90\Projects\eech\aphavoc\source\entity\fixed\cbuild\cb_draw.c
	.686P
	.XMM
	include listing.inc
	.model	flat

INCLUDELIB MSVCRTD
INCLUDELIB OLDNAMES

PUBLIC	?draw_local_city_building_object@@YGXPAUENTITY@@M@Z ; draw_local_city_building_object
PUBLIC	?overload_city_building_draw_functions@@YGXXZ	; overload_city_building_draw_functions
PUBLIC	__real@407f400000000000
EXTRN	_memcpy:PROC
EXTRN	?get_3d_transformation_heading_matrix@@YGXQAY02MM@Z:PROC ; get_3d_transformation_heading_matrix
EXTRN	?get_3d_transformation_matrix_from_face_normal_and_heading@@YGXQAY02MPBUVEC3D@@M@Z:PROC ; get_3d_transformation_matrix_from_face_normal_and_heading
EXTRN	?insert_zbiased_object_into_3d_scene@@YGXW4OBJECT_3D_DRAWING_TYPES@@PAXM@Z:PROC ; insert_zbiased_object_into_3d_scene
EXTRN	?construct_temporary_3d_object@@YGPAUOBJECT_3D_INSTANCE@@HH@Z:PROC ; construct_temporary_3d_object
EXTRN	?get_3d_terrain_face_normal@@YGXPAUVEC3D@@MM@Z:PROC ; get_3d_terrain_face_normal
EXTRN	?object_3d_information_database@@3PAUOBJECT_3D_INFORMATION@@A:DWORD ; object_3d_information_database
EXTRN	?command_line_city_block_approximation_range@@3MA:DWORD ; command_line_city_block_approximation_range
EXTRN	?fixed_database@@3QBUFIXED_DATA@@B:BYTE		; fixed_database
EXTRN	__fltused:DWORD
;	COMDAT __real@407f400000000000
CONST	SEGMENT
__real@407f400000000000 DQ 0407f400000000000r	; 500
CONST	ENDS
; Function compile flags: /Odtp /ZI
; File c:\users\nhv90\projects\eech\aphavoc\source\entity\fixed\cbuild\cb_draw.c
;	COMDAT ?overload_city_building_draw_functions@@YGXXZ
_TEXT	SEGMENT
?overload_city_building_draw_functions@@YGXXZ PROC	; overload_city_building_draw_functions, COMDAT

; 217  : {

  00000	55		 push	 ebp
  00001	8b ec		 mov	 ebp, esp
  00003	83 ec 40	 sub	 esp, 64			; 00000040H
  00006	53		 push	 ebx
  00007	56		 push	 esi
  00008	57		 push	 edi

; 218  : 	//fn_draw_local_entity_3d_object[ENTITY_TYPE_CITY_BUILDING]	= draw_local_3d_object;
; 219  : 
; 220  : 	//fn_draw_local_entity_2d_symbol[ENTITY_TYPE_CITY_BUILDING]	= draw_local_2d_symbol;
; 221  : }

  00009	5f		 pop	 edi
  0000a	5e		 pop	 esi
  0000b	5b		 pop	 ebx
  0000c	8b e5		 mov	 esp, ebp
  0000e	5d		 pop	 ebp
  0000f	c3		 ret	 0
?overload_city_building_draw_functions@@YGXXZ ENDP	; overload_city_building_draw_functions
_TEXT	ENDS
; Function compile flags: /Odtp /ZI
; File c:\users\nhv90\projects\eech\aphavoc\source\entity\fixed\cbuild\cb_draw.c
;	COMDAT ?draw_local_city_building_object@@YGXPAUENTITY@@M@Z
_TEXT	SEGMENT
_rangefactor$ = -24					; size = 4
_face_normal$ = -20					; size = 12
_inst3d$ = -8						; size = 4
_raw$ = -4						; size = 4
_en$ = 8						; size = 4
_range$ = 12						; size = 4
?draw_local_city_building_object@@YGXPAUENTITY@@M@Z PROC ; draw_local_city_building_object, COMDAT

; 80   : {

  00000	55		 push	 ebp
  00001	8b ec		 mov	 ebp, esp
  00003	83 ec 58	 sub	 esp, 88			; 00000058H
  00006	53		 push	 ebx
  00007	56		 push	 esi
  00008	57		 push	 edi

; 81   : 
; 82   : 	city_building
; 83   : 		*raw;
; 84   : 
; 85   : 	object_3d_instance
; 86   : 		*inst3d;
; 87   : 
; 88   : 	vec3d
; 89   : 		face_normal;
; 90   : 
; 91   : 	float rangefactor; //Werewolf 16Apr03
; 92   : 
; 93   : 	raw = (city_building *) get_local_entity_data (en);

  00009	8b 45 08	 mov	 eax, DWORD PTR _en$[ebp]
  0000c	8b 48 04	 mov	 ecx, DWORD PTR [eax+4]
  0000f	89 4d fc	 mov	 DWORD PTR _raw$[ebp], ecx

; 94   : 
; 95   : 	//Werewolf 16Apr03
; 96   : 	//rangefactor is 1 for default cbar value
; 97   : 	rangefactor = (command_line_city_block_approximation_range / 500.0);

  00012	f3 0f 5a 05 00
	00 00 00	 cvtss2sd xmm0, DWORD PTR ?command_line_city_block_approximation_range@@3MA
  0001a	f2 0f 5e 05 00
	00 00 00	 divsd	 xmm0, QWORD PTR __real@407f400000000000
  00022	f2 0f 5a c0	 cvtsd2ss xmm0, xmm0
  00026	f3 0f 11 45 e8	 movss	 DWORD PTR _rangefactor$[ebp], xmm0

; 98   : 
; 99   : 	if ( range < object_3d_information_database[raw->fix.object_3d_shape].maximum_distance*rangefactor )

  0002b	8b 45 fc	 mov	 eax, DWORD PTR _raw$[ebp]
  0002e	8b 48 38	 mov	 ecx, DWORD PTR [eax+56]
  00031	c1 e9 08	 shr	 ecx, 8
  00034	81 e1 ff 0f 00
	00		 and	 ecx, 4095		; 00000fffH
  0003a	8b 15 00 00 00
	00		 mov	 edx, DWORD PTR ?object_3d_information_database@@3PAUOBJECT_3D_INFORMATION@@A ; object_3d_information_database
  00040	f3 0f 10 44 ca
	04		 movss	 xmm0, DWORD PTR [edx+ecx*8+4]
  00046	f3 0f 59 45 e8	 mulss	 xmm0, DWORD PTR _rangefactor$[ebp]
  0004b	0f 2f 45 0c	 comiss	 xmm0, DWORD PTR _range$[ebp]
  0004f	0f 86 d2 00 00
	00		 jbe	 $LN3@draw_local

; 100  : 	{
; 101  : 
; 102  : 		inst3d = construct_temporary_3d_object (raw->fix.object_3d_shape, FALSE);

  00055	6a 00		 push	 0
  00057	8b 45 fc	 mov	 eax, DWORD PTR _raw$[ebp]
  0005a	8b 48 38	 mov	 ecx, DWORD PTR [eax+56]
  0005d	c1 e9 08	 shr	 ecx, 8
  00060	81 e1 ff 0f 00
	00		 and	 ecx, 4095		; 00000fffH
  00066	51		 push	 ecx
  00067	e8 00 00 00 00	 call	 ?construct_temporary_3d_object@@YGPAUOBJECT_3D_INSTANCE@@HH@Z ; construct_temporary_3d_object
  0006c	89 45 f8	 mov	 DWORD PTR _inst3d$[ebp], eax

; 103  : 
; 104  : 		if (inst3d)

  0006f	83 7d f8 00	 cmp	 DWORD PTR _inst3d$[ebp], 0
  00073	0f 84 ae 00 00
	00		 je	 $LN3@draw_local

; 105  : 		{
; 106  : 			memcpy (&inst3d->vp.position, &raw->fix.position, sizeof (vec3d));

  00079	6a 0c		 push	 12			; 0000000cH
  0007b	8b 45 fc	 mov	 eax, DWORD PTR _raw$[ebp]
  0007e	50		 push	 eax
  0007f	8b 4d f8	 mov	 ecx, DWORD PTR _inst3d$[ebp]
  00082	83 c1 08	 add	 ecx, 8
  00085	51		 push	 ecx
  00086	e8 00 00 00 00	 call	 _memcpy
  0008b	83 c4 0c	 add	 esp, 12			; 0000000cH

; 107  : 
; 108  : 			if (fixed_database[raw->fix.sub_type].align_with_terrain)

  0008e	8b 45 fc	 mov	 eax, DWORD PTR _raw$[ebp]
  00091	8b 48 38	 mov	 ecx, DWORD PTR [eax+56]
  00094	81 e1 ff 00 00
	00		 and	 ecx, 255		; 000000ffH
  0009a	c1 e1 04	 shl	 ecx, 4
  0009d	83 b9 04 00 00
	00 00		 cmp	 DWORD PTR ?fixed_database@@3QBUFIXED_DATA@@B[ecx+4], 0
  000a4	74 44		 je	 SHORT $LN4@draw_local

; 109  : 			{
; 110  : 				get_3d_terrain_face_normal (&face_normal, raw->fix.position.x, raw->fix.position.z);

  000a6	8b 45 fc	 mov	 eax, DWORD PTR _raw$[ebp]
  000a9	51		 push	 ecx
  000aa	f3 0f 10 40 08	 movss	 xmm0, DWORD PTR [eax+8]
  000af	f3 0f 11 04 24	 movss	 DWORD PTR [esp], xmm0
  000b4	8b 4d fc	 mov	 ecx, DWORD PTR _raw$[ebp]
  000b7	51		 push	 ecx
  000b8	f3 0f 10 01	 movss	 xmm0, DWORD PTR [ecx]
  000bc	f3 0f 11 04 24	 movss	 DWORD PTR [esp], xmm0
  000c1	8d 55 ec	 lea	 edx, DWORD PTR _face_normal$[ebp]
  000c4	52		 push	 edx
  000c5	e8 00 00 00 00	 call	 ?get_3d_terrain_face_normal@@YGXPAUVEC3D@@MM@Z ; get_3d_terrain_face_normal

; 111  : 
; 112  : 				get_3d_transformation_matrix_from_face_normal_and_heading (inst3d->vp.attitude, &face_normal, raw->fix.heading);

  000ca	8b 45 fc	 mov	 eax, DWORD PTR _raw$[ebp]
  000cd	51		 push	 ecx
  000ce	f3 0f 10 40 3c	 movss	 xmm0, DWORD PTR [eax+60]
  000d3	f3 0f 11 04 24	 movss	 DWORD PTR [esp], xmm0
  000d8	8d 4d ec	 lea	 ecx, DWORD PTR _face_normal$[ebp]
  000db	51		 push	 ecx
  000dc	8b 55 f8	 mov	 edx, DWORD PTR _inst3d$[ebp]
  000df	83 c2 14	 add	 edx, 20			; 00000014H
  000e2	52		 push	 edx
  000e3	e8 00 00 00 00	 call	 ?get_3d_transformation_matrix_from_face_normal_and_heading@@YGXQAY02MPBUVEC3D@@M@Z ; get_3d_transformation_matrix_from_face_normal_and_heading

; 113  : 			}
; 114  : 			else

  000e8	eb 1a		 jmp	 SHORT $LN5@draw_local
$LN4@draw_local:

; 115  : 			{
; 116  : 				get_3d_transformation_heading_matrix (inst3d->vp.attitude, raw->fix.heading);

  000ea	8b 45 fc	 mov	 eax, DWORD PTR _raw$[ebp]
  000ed	51		 push	 ecx
  000ee	f3 0f 10 40 3c	 movss	 xmm0, DWORD PTR [eax+60]
  000f3	f3 0f 11 04 24	 movss	 DWORD PTR [esp], xmm0
  000f8	8b 4d f8	 mov	 ecx, DWORD PTR _inst3d$[ebp]
  000fb	83 c1 14	 add	 ecx, 20			; 00000014H
  000fe	51		 push	 ecx
  000ff	e8 00 00 00 00	 call	 ?get_3d_transformation_heading_matrix@@YGXQAY02MM@Z ; get_3d_transformation_heading_matrix
$LN5@draw_local:

; 117  : 			}
; 118  : 	
; 119  : 			inst3d->object_has_shadow = FALSE;

  00104	8b 45 f8	 mov	 eax, DWORD PTR _inst3d$[ebp]
  00107	8b 48 50	 mov	 ecx, DWORD PTR [eax+80]
  0010a	83 e1 fb	 and	 ecx, -5			; fffffffbH
  0010d	8b 55 f8	 mov	 edx, DWORD PTR _inst3d$[ebp]
  00110	89 4a 50	 mov	 DWORD PTR [edx+80], ecx

; 120  : 	
; 121  : 			insert_object_into_3d_scene (OBJECT_3D_DRAW_TYPE_OBJECT, inst3d);

  00113	51		 push	 ecx
  00114	0f 57 c0	 xorps	 xmm0, xmm0
  00117	f3 0f 11 04 24	 movss	 DWORD PTR [esp], xmm0
  0011c	8b 45 f8	 mov	 eax, DWORD PTR _inst3d$[ebp]
  0011f	50		 push	 eax
  00120	6a 01		 push	 1
  00122	e8 00 00 00 00	 call	 ?insert_zbiased_object_into_3d_scene@@YGXW4OBJECT_3D_DRAWING_TYPES@@PAXM@Z ; insert_zbiased_object_into_3d_scene
$LN3@draw_local:

; 122  : 		}
; 123  : 	}
; 124  : }

  00127	5f		 pop	 edi
  00128	5e		 pop	 esi
  00129	5b		 pop	 ebx
  0012a	8b e5		 mov	 esp, ebp
  0012c	5d		 pop	 ebp
  0012d	c2 08 00	 ret	 8
?draw_local_city_building_object@@YGXPAUENTITY@@M@Z ENDP ; draw_local_city_building_object
_TEXT	ENDS
END
