; Listing generated by Microsoft (R) Optimizing Compiler Version 19.16.27045.0 

	TITLE	C:\Users\nhv90\Projects\eech\aphavoc\source\entity\fixed\cbuild\cb_float.c
	.686P
	.XMM
	include listing.inc
	.model	flat

INCLUDELIB MSVCRTD
INCLUDELIB OLDNAMES

PUBLIC	?overload_city_building_float_value_functions@@YGXXZ ; overload_city_building_float_value_functions
PUBLIC	??$max@N@std@@YGABNABN0@Z			; std::max<double>
PUBLIC	??_C@_02DKCKIIND@?$CFs@				; `string'
PUBLIC	?__LINE__Var@?0??get_local_float_value@@YGMPAUENTITY@@W4FLOAT_TYPES@@@Z@4JA ; `get_local_float_value'::`1'::__LINE__Var
PUBLIC	??_C@_0EL@MCPLMFIA@c?3?2users?2nhv90?2projects?2eech?2ap@ ; `string'
PUBLIC	??_C@_0BD@FEEMDEPI@invalid?5comparator@		; `string'
PUBLIC	??_C@_0GK@JMBMHIBC@c?3?2program?5files?5?$CIx86?$CJ?2microsof@ ; `string'
PUBLIC	??_C@_1NE@FKBPBJEB@?$AAc?$AA?3?$AA?2?$AAp?$AAr?$AAo?$AAg?$AAr?$AAa?$AAm?$AA?5?$AAf?$AAi?$AAl?$AAe@ ; `string'
PUBLIC	??_C@_1BC@ICCOKLEG@?$AAs?$AAt?$AAd?$AA?3?$AA?3?$AAm?$AAa?$AAx@ ; `string'
PUBLIC	??_C@_1CK@NDNHPKPI@?$AA?$CC?$AAi?$AAn?$AAv?$AAa?$AAl?$AAi?$AAd?$AA?5?$AAc?$AAo?$AAm?$AAp?$AAa?$AAr@ ; `string'
PUBLIC	__real@4000000000000000
PUBLIC	__real@4049000000000000
EXTRN	__imp___invalid_parameter:PROC
EXTRN	__imp___CrtDbgReport:PROC
EXTRN	?process_assert@@YGXPBD0H@Z:PROC		; process_assert
EXTRN	?debug_fatal@@YAXPBDZZ:PROC			; debug_fatal
EXTRN	?get_object_3d_bounding_box_without_lines@@YGPAUOBJECT_3D_BOUNDS@@H@Z:PROC ; get_object_3d_bounding_box_without_lines
EXTRN	?null_entity_pointer_message@@3PBDB:DWORD	; null_entity_pointer_message
EXTRN	?entity_type_database@@3PAUENTITY_TYPE_DATA@@A:BYTE ; entity_type_database
EXTRN	?float_type_database@@3PAUFLOAT_TYPE_DATA@@A:BYTE ; float_type_database
EXTRN	?debug_fatal_invalid_float_type_message@@3PBDB:DWORD ; debug_fatal_invalid_float_type_message
EXTRN	?fn_get_local_entity_float_value@@3PAY0KP@P6GMPAUENTITY@@W4FLOAT_TYPES@@@ZA:BYTE ; fn_get_local_entity_float_value
EXTRN	?entities@@3PAUENTITY@@A:DWORD			; entities
EXTRN	__fltused:DWORD
;	COMDAT __real@4049000000000000
CONST	SEGMENT
__real@4049000000000000 DQ 04049000000000000r	; 50
CONST	ENDS
;	COMDAT __real@4000000000000000
CONST	SEGMENT
__real@4000000000000000 DQ 04000000000000000r	; 2
CONST	ENDS
;	COMDAT ??_C@_1CK@NDNHPKPI@?$AA?$CC?$AAi?$AAn?$AAv?$AAa?$AAl?$AAi?$AAd?$AA?5?$AAc?$AAo?$AAm?$AAp?$AAa?$AAr@
CONST	SEGMENT
??_C@_1CK@NDNHPKPI@?$AA?$CC?$AAi?$AAn?$AAv?$AAa?$AAl?$AAi?$AAd?$AA?5?$AAc?$AAo?$AAm?$AAp?$AAa?$AAr@ DB '"'
	DB	00H, 'i', 00H, 'n', 00H, 'v', 00H, 'a', 00H, 'l', 00H, 'i', 00H
	DB	'd', 00H, ' ', 00H, 'c', 00H, 'o', 00H, 'm', 00H, 'p', 00H, 'a'
	DB	00H, 'r', 00H, 'a', 00H, 't', 00H, 'o', 00H, 'r', 00H, '"', 00H
	DB	00H, 00H					; `string'
CONST	ENDS
;	COMDAT ??_C@_1BC@ICCOKLEG@?$AAs?$AAt?$AAd?$AA?3?$AA?3?$AAm?$AAa?$AAx@
CONST	SEGMENT
??_C@_1BC@ICCOKLEG@?$AAs?$AAt?$AAd?$AA?3?$AA?3?$AAm?$AAa?$AAx@ DB 's', 00H
	DB	't', 00H, 'd', 00H, ':', 00H, ':', 00H, 'm', 00H, 'a', 00H, 'x'
	DB	00H, 00H, 00H				; `string'
CONST	ENDS
;	COMDAT ??_C@_1NE@FKBPBJEB@?$AAc?$AA?3?$AA?2?$AAp?$AAr?$AAo?$AAg?$AAr?$AAa?$AAm?$AA?5?$AAf?$AAi?$AAl?$AAe@
CONST	SEGMENT
??_C@_1NE@FKBPBJEB@?$AAc?$AA?3?$AA?2?$AAp?$AAr?$AAo?$AAg?$AAr?$AAa?$AAm?$AA?5?$AAf?$AAi?$AAl?$AAe@ DB 'c'
	DB	00H, ':', 00H, '\', 00H, 'p', 00H, 'r', 00H, 'o', 00H, 'g', 00H
	DB	'r', 00H, 'a', 00H, 'm', 00H, ' ', 00H, 'f', 00H, 'i', 00H, 'l'
	DB	00H, 'e', 00H, 's', 00H, ' ', 00H, '(', 00H, 'x', 00H, '8', 00H
	DB	'6', 00H, ')', 00H, '\', 00H, 'm', 00H, 'i', 00H, 'c', 00H, 'r'
	DB	00H, 'o', 00H, 's', 00H, 'o', 00H, 'f', 00H, 't', 00H, ' ', 00H
	DB	'v', 00H, 'i', 00H, 's', 00H, 'u', 00H, 'a', 00H, 'l', 00H, ' '
	DB	00H, 's', 00H, 't', 00H, 'u', 00H, 'd', 00H, 'i', 00H, 'o', 00H
	DB	'\', 00H, '2', 00H, '0', 00H, '1', 00H, '7', 00H, '\', 00H, 'c'
	DB	00H, 'o', 00H, 'm', 00H, 'm', 00H, 'u', 00H, 'n', 00H, 'i', 00H
	DB	't', 00H, 'y', 00H, '\', 00H, 'v', 00H, 'c', 00H, '\', 00H, 't'
	DB	00H, 'o', 00H, 'o', 00H, 'l', 00H, 's', 00H, '\', 00H, 'm', 00H
	DB	's', 00H, 'v', 00H, 'c', 00H, '\', 00H, '1', 00H, '4', 00H, '.'
	DB	00H, '1', 00H, '6', 00H, '.', 00H, '2', 00H, '7', 00H, '0', 00H
	DB	'2', 00H, '3', 00H, '\', 00H, 'i', 00H, 'n', 00H, 'c', 00H, 'l'
	DB	00H, 'u', 00H, 'd', 00H, 'e', 00H, '\', 00H, 'a', 00H, 'l', 00H
	DB	'g', 00H, 'o', 00H, 'r', 00H, 'i', 00H, 't', 00H, 'h', 00H, 'm'
	DB	00H, 00H, 00H				; `string'
CONST	ENDS
;	COMDAT ??_C@_0GK@JMBMHIBC@c?3?2program?5files?5?$CIx86?$CJ?2microsof@
CONST	SEGMENT
??_C@_0GK@JMBMHIBC@c?3?2program?5files?5?$CIx86?$CJ?2microsof@ DB 'c:\pro'
	DB	'gram files (x86)\microsoft visual studio\2017\community\vc\to'
	DB	'ols\msvc\14.16.27023\include\algorithm', 00H ; `string'
CONST	ENDS
;	COMDAT ??_C@_0BD@FEEMDEPI@invalid?5comparator@
CONST	SEGMENT
??_C@_0BD@FEEMDEPI@invalid?5comparator@ DB 'invalid comparator', 00H ; `string'
CONST	ENDS
;	COMDAT ??_C@_0EL@MCPLMFIA@c?3?2users?2nhv90?2projects?2eech?2ap@
CONST	SEGMENT
??_C@_0EL@MCPLMFIA@c?3?2users?2nhv90?2projects?2eech?2ap@ DB 'c:\users\nh'
	DB	'v90\projects\eech\aphavoc\source\entity\fixed\cbuild\cb_float'
	DB	'.c', 00H					; `string'
CONST	ENDS
;	COMDAT ?__LINE__Var@?0??get_local_float_value@@YGMPAUENTITY@@W4FLOAT_TYPES@@@Z@4JA
_DATA	SEGMENT
?__LINE__Var@?0??get_local_float_value@@YGMPAUENTITY@@W4FLOAT_TYPES@@@Z@4JA DD 050H ; `get_local_float_value'::`1'::__LINE__Var
_DATA	ENDS
;	COMDAT ??_C@_02DKCKIIND@?$CFs@
CONST	SEGMENT
??_C@_02DKCKIIND@?$CFs@ DB '%s', 00H			; `string'
CONST	ENDS
; Function compile flags: /Odtp /ZI
; File c:\program files (x86)\microsoft visual studio\2017\community\vc\tools\msvc\14.16.27023\include\algorithm
;	COMDAT ??$max@N@std@@YGABNABN0@Z
_TEXT	SEGMENT
__Left$ = 8						; size = 4
__Right$ = 12						; size = 4
??$max@N@std@@YGABNABN0@Z PROC				; std::max<double>, COMDAT

; 5387 : 	{	// return larger of _Left and _Right

  00000	55		 push	 ebp
  00001	8b ec		 mov	 ebp, esp
  00003	83 ec 40	 sub	 esp, 64			; 00000040H
  00006	53		 push	 ebx
  00007	56		 push	 esi
  00008	57		 push	 edi

; 5388 : 	if (_Left < _Right)

  00009	8b 45 0c	 mov	 eax, DWORD PTR __Right$[ebp]
  0000c	8b 4d 08	 mov	 ecx, DWORD PTR __Left$[ebp]
  0000f	f2 0f 10 00	 movsd	 xmm0, QWORD PTR [eax]
  00013	66 0f 2f 01	 comisd	 xmm0, QWORD PTR [ecx]
  00017	76 65		 jbe	 SHORT $LN8@max
$LN4@max:

; 5389 : 		{
; 5390 : 		_STL_ASSERT(!(_Right < _Left), "invalid comparator");

  00019	8b 45 08	 mov	 eax, DWORD PTR __Left$[ebp]
  0001c	8b 4d 0c	 mov	 ecx, DWORD PTR __Right$[ebp]
  0001f	f2 0f 10 00	 movsd	 xmm0, QWORD PTR [eax]
  00023	66 0f 2f 01	 comisd	 xmm0, QWORD PTR [ecx]
  00027	77 02		 ja	 SHORT $LN9@max
  00029	eb 4a		 jmp	 SHORT $LN6@max
$LN9@max:
  0002b	68 00 00 00 00	 push	 OFFSET ??_C@_0BD@FEEMDEPI@invalid?5comparator@
  00030	68 00 00 00 00	 push	 OFFSET ??_C@_02DKCKIIND@?$CFs@
  00035	6a 00		 push	 0
  00037	68 0e 15 00 00	 push	 5390			; 0000150eH
  0003c	68 00 00 00 00	 push	 OFFSET ??_C@_0GK@JMBMHIBC@c?3?2program?5files?5?$CIx86?$CJ?2microsof@
  00041	6a 02		 push	 2
  00043	ff 15 00 00 00
	00		 call	 DWORD PTR __imp___CrtDbgReport
  00049	83 c4 18	 add	 esp, 24			; 00000018H
  0004c	83 f8 01	 cmp	 eax, 1
  0004f	75 01		 jne	 SHORT $LN12@max
  00051	cc		 int	 3
$LN12@max:
  00052	6a 00		 push	 0
  00054	68 0e 15 00 00	 push	 5390			; 0000150eH
  00059	68 00 00 00 00	 push	 OFFSET ??_C@_1NE@FKBPBJEB@?$AAc?$AA?3?$AA?2?$AAp?$AAr?$AAo?$AAg?$AAr?$AAa?$AAm?$AA?5?$AAf?$AAi?$AAl?$AAe@
  0005e	68 00 00 00 00	 push	 OFFSET ??_C@_1BC@ICCOKLEG@?$AAs?$AAt?$AAd?$AA?3?$AA?3?$AAm?$AAa?$AAx@
  00063	68 00 00 00 00	 push	 OFFSET ??_C@_1CK@NDNHPKPI@?$AA?$CC?$AAi?$AAn?$AAv?$AAa?$AAl?$AAi?$AAd?$AA?5?$AAc?$AAo?$AAm?$AAp?$AAa?$AAr@
  00068	ff 15 00 00 00
	00		 call	 DWORD PTR __imp___invalid_parameter
  0006e	83 c4 14	 add	 esp, 20			; 00000014H
  00071	33 c0		 xor	 eax, eax
  00073	75 b6		 jne	 SHORT $LN9@max
$LN6@max:
  00075	33 c0		 xor	 eax, eax
  00077	75 a0		 jne	 SHORT $LN4@max

; 5391 : 		return (_Right);

  00079	8b 45 0c	 mov	 eax, DWORD PTR __Right$[ebp]
  0007c	eb 03		 jmp	 SHORT $LN1@max
$LN8@max:

; 5392 : 		}
; 5393 : 
; 5394 : 	return (_Left);

  0007e	8b 45 08	 mov	 eax, DWORD PTR __Left$[ebp]
$LN1@max:

; 5395 : 	}

  00081	5f		 pop	 edi
  00082	5e		 pop	 esi
  00083	5b		 pop	 ebx
  00084	8b e5		 mov	 esp, ebp
  00086	5d		 pop	 ebp
  00087	c2 08 00	 ret	 8
??$max@N@std@@YGABNABN0@Z ENDP				; std::max<double>
_TEXT	ENDS
; Function compile flags: /Odtp /ZI
; File c:\users\nhv90\projects\eech\aphavoc\source\entity\fixed\cbuild\cb_float.c
;	COMDAT ?get_local_float_value@@YGMPAUENTITY@@W4FLOAT_TYPES@@@Z
_TEXT	SEGMENT
tv128 = -96						; size = 4
tv65 = -96						; size = 4
$T1 = -92						; size = 8
$T2 = -84						; size = 8
_bounding_box$3 = -12					; size = 4
_value$ = -8						; size = 4
_raw$ = -4						; size = 4
_en$ = 8						; size = 4
_type$ = 12						; size = 4
?get_local_float_value@@YGMPAUENTITY@@W4FLOAT_TYPES@@@Z PROC ; get_local_float_value, COMDAT

; 80   : {

  00000	55		 push	 ebp
  00001	8b ec		 mov	 ebp, esp
  00003	83 ec 60	 sub	 esp, 96			; 00000060H
  00006	53		 push	 ebx
  00007	56		 push	 esi
  00008	57		 push	 edi

; 81   : 	city_building
; 82   : 		*raw;
; 83   : 
; 84   : 	float
; 85   : 		value;
; 86   : 
; 87   : 	raw = (city_building *) get_local_entity_data (en);

  00009	8b 45 08	 mov	 eax, DWORD PTR _en$[ebp]
  0000c	8b 48 04	 mov	 ecx, DWORD PTR [eax+4]
  0000f	89 4d fc	 mov	 DWORD PTR _raw$[ebp], ecx

; 88   : 
; 89   : 	switch (type)

  00012	8b 45 0c	 mov	 eax, DWORD PTR _type$[ebp]
  00015	89 45 a0	 mov	 DWORD PTR tv65[ebp], eax
  00018	83 7d a0 0f	 cmp	 DWORD PTR tv65[ebp], 15	; 0000000fH
  0001c	74 02		 je	 SHORT $LN4@get_local_
  0001e	eb 52		 jmp	 SHORT $LN5@get_local_
$LN4@get_local_:

; 90   : 	{
; 91   : 		////////////////////////////////////////
; 92   : 		case FLOAT_TYPE_AVOIDANCE_RADIUS:
; 93   : 		////////////////////////////////////////
; 94   : 		{
; 95   : 			object_3d_bounds
; 96   : 				*bounding_box;
; 97   : 
; 98   : 			bounding_box = get_object_3d_bounding_box_without_lines (raw->fix.object_3d_shape);

  00020	8b 45 fc	 mov	 eax, DWORD PTR _raw$[ebp]
  00023	8b 48 38	 mov	 ecx, DWORD PTR [eax+56]
  00026	c1 e9 08	 shr	 ecx, 8
  00029	81 e1 ff 0f 00
	00		 and	 ecx, 4095		; 00000fffH
  0002f	51		 push	 ecx
  00030	e8 00 00 00 00	 call	 ?get_object_3d_bounding_box_without_lines@@YGPAUOBJECT_3D_BOUNDS@@H@Z ; get_object_3d_bounding_box_without_lines
  00035	89 45 f4	 mov	 DWORD PTR _bounding_box$3[ebp], eax

; 99   : 
; 100  : 			value = max (50.0, (2.0 * bounding_box->ymax));

  00038	8b 45 f4	 mov	 eax, DWORD PTR _bounding_box$3[ebp]
  0003b	f3 0f 5a 40 0c	 cvtss2sd xmm0, DWORD PTR [eax+12]
  00040	f2 0f 59 05 00
	00 00 00	 mulsd	 xmm0, QWORD PTR __real@4000000000000000
  00048	f2 0f 11 45 ac	 movsd	 QWORD PTR $T2[ebp], xmm0
  0004d	f2 0f 10 05 00
	00 00 00	 movsd	 xmm0, QWORD PTR __real@4049000000000000
  00055	f2 0f 11 45 a4	 movsd	 QWORD PTR $T1[ebp], xmm0
  0005a	8d 4d ac	 lea	 ecx, DWORD PTR $T2[ebp]
  0005d	51		 push	 ecx
  0005e	8d 55 a4	 lea	 edx, DWORD PTR $T1[ebp]
  00061	52		 push	 edx
  00062	e8 00 00 00 00	 call	 ??$max@N@std@@YGABNABN0@Z ; std::max<double>
  00067	f2 0f 5a 00	 cvtsd2ss xmm0, QWORD PTR [eax]
  0006b	f3 0f 11 45 f8	 movss	 DWORD PTR _value$[ebp], xmm0

; 101  : 
; 102  : 			break;

  00070	eb 72		 jmp	 SHORT $LN2@get_local_
$LN5@get_local_:

; 103  : 		}
; 104  : 		////////////////////////////////////////
; 105  : 		default:
; 106  : 		////////////////////////////////////////
; 107  : 		{
; 108  : 			debug_fatal_invalid_float_type (en, type);

  00072	83 7d 08 00	 cmp	 DWORD PTR _en$[ebp], 0
  00076	74 0a		 je	 SHORT $LN7@get_local_
  00078	8b 45 08	 mov	 eax, DWORD PTR _en$[ebp]
  0007b	8b 08		 mov	 ecx, DWORD PTR [eax]
  0007d	89 4d a0	 mov	 DWORD PTR tv128[ebp], ecx
  00080	eb 21		 jmp	 SHORT $LN8@get_local_
$LN7@get_local_:
  00082	8b 15 00 00 00
	00		 mov	 edx, DWORD PTR ?__LINE__Var@?0??get_local_float_value@@YGMPAUENTITY@@W4FLOAT_TYPES@@@Z@4JA
  00088	83 c2 1c	 add	 edx, 28			; 0000001cH
  0008b	52		 push	 edx
  0008c	68 00 00 00 00	 push	 OFFSET ??_C@_0EL@MCPLMFIA@c?3?2users?2nhv90?2projects?2eech?2ap@
  00091	a1 00 00 00 00	 mov	 eax, DWORD PTR ?null_entity_pointer_message@@3PBDB ; null_entity_pointer_message
  00096	50		 push	 eax
  00097	e8 00 00 00 00	 call	 ?process_assert@@YGXPBD0H@Z ; process_assert
  0009c	c7 45 a0 00 00
	00 00		 mov	 DWORD PTR tv128[ebp], 0
$LN8@get_local_:
  000a3	8b 0d 00 00 00
	00		 mov	 ecx, DWORD PTR ?__LINE__Var@?0??get_local_float_value@@YGMPAUENTITY@@W4FLOAT_TYPES@@@Z@4JA
  000a9	83 c1 1c	 add	 ecx, 28			; 0000001cH
  000ac	51		 push	 ecx
  000ad	68 00 00 00 00	 push	 OFFSET ??_C@_0EL@MCPLMFIA@c?3?2users?2nhv90?2projects?2eech?2ap@
  000b2	6b 55 0c 18	 imul	 edx, DWORD PTR _type$[ebp], 24
  000b6	8b 82 00 00 00
	00		 mov	 eax, DWORD PTR ?float_type_database@@3PAUFLOAT_TYPE_DATA@@A[edx]
  000bc	50		 push	 eax
  000bd	8b 4d 08	 mov	 ecx, DWORD PTR _en$[ebp]
  000c0	2b 0d 00 00 00
	00		 sub	 ecx, DWORD PTR ?entities@@3PAUENTITY@@A ; entities
  000c6	c1 f9 04	 sar	 ecx, 4
  000c9	51		 push	 ecx
  000ca	6b 55 a0 0c	 imul	 edx, DWORD PTR tv128[ebp], 12
  000ce	8b 82 00 00 00
	00		 mov	 eax, DWORD PTR ?entity_type_database@@3PAUENTITY_TYPE_DATA@@A[edx]
  000d4	50		 push	 eax
  000d5	8b 0d 00 00 00
	00		 mov	 ecx, DWORD PTR ?debug_fatal_invalid_float_type_message@@3PBDB ; debug_fatal_invalid_float_type_message
  000db	51		 push	 ecx
  000dc	e8 00 00 00 00	 call	 ?debug_fatal@@YAXPBDZZ	; debug_fatal
  000e1	83 c4 18	 add	 esp, 24			; 00000018H
$LN2@get_local_:

; 109  : 
; 110  : 			break;
; 111  : 		}
; 112  : 	}
; 113  : 
; 114  : 	return (value);

  000e4	d9 45 f8	 fld	 DWORD PTR _value$[ebp]

; 115  : }

  000e7	5f		 pop	 edi
  000e8	5e		 pop	 esi
  000e9	5b		 pop	 ebx
  000ea	8b e5		 mov	 esp, ebp
  000ec	5d		 pop	 ebp
  000ed	c2 08 00	 ret	 8
?get_local_float_value@@YGMPAUENTITY@@W4FLOAT_TYPES@@@Z ENDP ; get_local_float_value
_TEXT	ENDS
; Function compile flags: /Odtp /ZI
; File c:\users\nhv90\projects\eech\aphavoc\source\entity\fixed\cbuild\cb_float.c
;	COMDAT ?overload_city_building_float_value_functions@@YGXXZ
_TEXT	SEGMENT
?overload_city_building_float_value_functions@@YGXXZ PROC ; overload_city_building_float_value_functions, COMDAT

; 122  : {

  00000	55		 push	 ebp
  00001	8b ec		 mov	 ebp, esp
  00003	83 ec 40	 sub	 esp, 64			; 00000040H
  00006	53		 push	 ebx
  00007	56		 push	 esi
  00008	57		 push	 edi

; 123  : 	fn_get_local_entity_float_value		[ENTITY_TYPE_CITY_BUILDING][FLOAT_TYPE_AVOIDANCE_RADIUS]	= get_local_float_value;

  00009	b8 bc 02 00 00	 mov	 eax, 700		; 000002bcH
  0000e	6b c8 06	 imul	 ecx, eax, 6
  00011	ba 04 00 00 00	 mov	 edx, 4
  00016	6b c2 0f	 imul	 eax, edx, 15
  00019	c7 84 01 00 00
	00 00 00 00 00
	00		 mov	 DWORD PTR ?fn_get_local_entity_float_value@@3PAY0KP@P6GMPAUENTITY@@W4FLOAT_TYPES@@@ZA[ecx+eax], OFFSET ?get_local_float_value@@YGMPAUENTITY@@W4FLOAT_TYPES@@@Z ; get_local_float_value

; 124  : }

  00024	5f		 pop	 edi
  00025	5e		 pop	 esi
  00026	5b		 pop	 ebx
  00027	8b e5		 mov	 esp, ebp
  00029	5d		 pop	 ebp
  0002a	c3		 ret	 0
?overload_city_building_float_value_functions@@YGXXZ ENDP ; overload_city_building_float_value_functions
_TEXT	ENDS
END
