; Listing generated by Microsoft (R) Optimizing Compiler Version 19.16.27045.0 

	TITLE	C:\Users\nhv90\Projects\eech\aphavoc\source\entity\fixed\cbuild\cb_msgs.c
	.686P
	.XMM
	include listing.inc
	.model	flat

INCLUDELIB MSVCRTD
INCLUDELIB OLDNAMES

PUBLIC	?overload_city_building_message_responses@@YGXXZ ; overload_city_building_message_responses
PUBLIC	?__LINE__Var@?0??response_to_collision@@YGHW4ENTITY_MESSAGES@@PAUENTITY@@1PAD@Z@4JA ; `response_to_collision'::`1'::__LINE__Var
PUBLIC	??_C@_0EK@OGJKLNBB@c?3?2users?2nhv90?2projects?2eech?2ap@ ; `string'
EXTRN	?process_assert@@YGXPBD0H@Z:PROC		; process_assert
EXTRN	?play_building_destroyed_speech@@YGXPAUENTITY@@0@Z:PROC ; play_building_destroyed_speech
EXTRN	?overload_fixed_message_responses@@YGXW4ENTITY_TYPES@@@Z:PROC ; overload_fixed_message_responses
EXTRN	?damage_client_server_entity@@YGHPAUENTITY@@0M@Z:PROC ; damage_client_server_entity
EXTRN	?null_entity_pointer_message@@3PBDB:DWORD	; null_entity_pointer_message
EXTRN	?system_comms_model@@3W4COMMS_MODEL_TYPES@@A:DWORD ; system_comms_model
EXTRN	?message_responses@@3PAY0GB@P6GHW4ENTITY_MESSAGES@@PAUENTITY@@1PAD@ZA:BYTE ; message_responses
EXTRN	?overload_invalid_list_type_message@@3PBDB:DWORD ; overload_invalid_list_type_message
EXTRN	?fn_get_local_entity_parent@@3PAY0CN@P6GPAUENTITY@@PAU1@W4LIST_TYPES@@@ZA:BYTE ; fn_get_local_entity_parent
EXTRN	?fn_kill_client_server_entity@@3PAY01P6GXPAUENTITY@@@ZA:BYTE ; fn_kill_client_server_entity
EXTRN	?overload_invalid_int_type_message@@3PBDB:DWORD	; overload_invalid_int_type_message
EXTRN	?fn_get_local_entity_int_value@@3PAY0BBH@P6GHPAUENTITY@@W4INT_TYPES@@@ZA:BYTE ; fn_get_local_entity_int_value
EXTRN	__fltused:DWORD
;	COMDAT ??_C@_0EK@OGJKLNBB@c?3?2users?2nhv90?2projects?2eech?2ap@
CONST	SEGMENT
??_C@_0EK@OGJKLNBB@c?3?2users?2nhv90?2projects?2eech?2ap@ DB 'c:\users\nh'
	DB	'v90\projects\eech\aphavoc\source\entity\fixed\cbuild\cb_msgs.'
	DB	'c', 00H					; `string'
CONST	ENDS
;	COMDAT ?__LINE__Var@?0??response_to_collision@@YGHW4ENTITY_MESSAGES@@PAUENTITY@@1PAD@Z@4JA
_DATA	SEGMENT
?__LINE__Var@?0??response_to_collision@@YGHW4ENTITY_MESSAGES@@PAUENTITY@@1PAD@Z@4JA DD 050H ; `response_to_collision'::`1'::__LINE__Var
_DATA	ENDS
; Function compile flags: /Odtp /ZI
; File c:\users\nhv90\projects\eech\aphavoc\source\entity\fixed\cbuild\cb_msgs.c
;	COMDAT ?response_to_collision@@YGHW4ENTITY_MESSAGES@@PAUENTITY@@1PAD@Z
_TEXT	SEGMENT
tv145 = -84						; size = 4
tv84 = -84						; size = 4
tv160 = -80						; size = 4
tv137 = -80						; size = 4
tv129 = -80						; size = 4
tv76 = -80						; size = 4
_aggressor$ = -12					; size = 4
_damage_modifier$ = -8					; size = 4
_total_damage_level$ = -4				; size = 4
_message$ = 8						; size = 4
_receiver$ = 12						; size = 4
_sender$ = 16						; size = 4
_pargs$ = 20						; size = 4
?response_to_collision@@YGHW4ENTITY_MESSAGES@@PAUENTITY@@1PAD@Z PROC ; response_to_collision, COMDAT

; 80   : {

  00000	55		 push	 ebp
  00001	8b ec		 mov	 ebp, esp
  00003	83 ec 54	 sub	 esp, 84			; 00000054H
  00006	53		 push	 ebx
  00007	56		 push	 esi
  00008	57		 push	 edi

; 81   : 	int
; 82   : 		total_damage_level;
; 83   : 
; 84   : 	float
; 85   : 		damage_modifier;
; 86   : 
; 87   : 	entity
; 88   : 		*aggressor;
; 89   : 
; 90   : 	#if DEBUG_MODULE
; 91   : 
; 92   : 	debug_log_entity_message (message, receiver, sender, pargs);
; 93   : 
; 94   : 	#endif
; 95   : 
; 96   : 	damage_modifier = va_arg (pargs, double);

  00009	8b 45 14	 mov	 eax, DWORD PTR _pargs$[ebp]
  0000c	83 c0 08	 add	 eax, 8
  0000f	89 45 14	 mov	 DWORD PTR _pargs$[ebp], eax
  00012	8b 4d 14	 mov	 ecx, DWORD PTR _pargs$[ebp]
  00015	f2 0f 5a 41 f8	 cvtsd2ss xmm0, QWORD PTR [ecx-8]
  0001a	f3 0f 11 45 f8	 movss	 DWORD PTR _damage_modifier$[ebp], xmm0

; 97   : 
; 98   : 	damage_client_server_entity (receiver, sender, damage_modifier);

  0001f	51		 push	 ecx
  00020	f3 0f 10 45 f8	 movss	 xmm0, DWORD PTR _damage_modifier$[ebp]
  00025	f3 0f 11 04 24	 movss	 DWORD PTR [esp], xmm0
  0002a	8b 45 10	 mov	 eax, DWORD PTR _sender$[ebp]
  0002d	50		 push	 eax
  0002e	8b 4d 0c	 mov	 ecx, DWORD PTR _receiver$[ebp]
  00031	51		 push	 ecx
  00032	e8 00 00 00 00	 call	 ?damage_client_server_entity@@YGHPAUENTITY@@0M@Z ; damage_client_server_entity

; 99   : 
; 100  : 	total_damage_level = get_local_entity_int_value (receiver, INT_TYPE_DAMAGE_LEVEL);

  00037	83 7d 0c 00	 cmp	 DWORD PTR _receiver$[ebp], 0
  0003b	74 0a		 je	 SHORT $LN6@response_t
  0003d	8b 45 0c	 mov	 eax, DWORD PTR _receiver$[ebp]
  00040	8b 08		 mov	 ecx, DWORD PTR [eax]
  00042	89 4d b0	 mov	 DWORD PTR tv76[ebp], ecx
  00045	eb 21		 jmp	 SHORT $LN7@response_t
$LN6@response_t:
  00047	8b 15 00 00 00
	00		 mov	 edx, DWORD PTR ?__LINE__Var@?0??response_to_collision@@YGHW4ENTITY_MESSAGES@@PAUENTITY@@1PAD@Z@4JA
  0004d	83 c2 14	 add	 edx, 20			; 00000014H
  00050	52		 push	 edx
  00051	68 00 00 00 00	 push	 OFFSET ??_C@_0EK@OGJKLNBB@c?3?2users?2nhv90?2projects?2eech?2ap@
  00056	a1 00 00 00 00	 mov	 eax, DWORD PTR ?null_entity_pointer_message@@3PBDB ; null_entity_pointer_message
  0005b	50		 push	 eax
  0005c	e8 00 00 00 00	 call	 ?process_assert@@YGXPBD0H@Z ; process_assert
  00061	c7 45 b0 00 00
	00 00		 mov	 DWORD PTR tv76[ebp], 0
$LN7@response_t:
  00068	b9 01 00 00 00	 mov	 ecx, 1
  0006d	85 c9		 test	 ecx, ecx
  0006f	74 09		 je	 SHORT $LN8@response_t
  00071	c7 45 ac 25 00
	00 00		 mov	 DWORD PTR tv84[ebp], 37	; 00000025H
  00078	eb 21		 jmp	 SHORT $LN9@response_t
$LN8@response_t:
  0007a	8b 15 00 00 00
	00		 mov	 edx, DWORD PTR ?__LINE__Var@?0??response_to_collision@@YGHW4ENTITY_MESSAGES@@PAUENTITY@@1PAD@Z@4JA
  00080	83 c2 14	 add	 edx, 20			; 00000014H
  00083	52		 push	 edx
  00084	68 00 00 00 00	 push	 OFFSET ??_C@_0EK@OGJKLNBB@c?3?2users?2nhv90?2projects?2eech?2ap@
  00089	a1 00 00 00 00	 mov	 eax, DWORD PTR ?overload_invalid_int_type_message@@3PBDB ; overload_invalid_int_type_message
  0008e	50		 push	 eax
  0008f	e8 00 00 00 00	 call	 ?process_assert@@YGXPBD0H@Z ; process_assert
  00094	c7 45 ac 00 00
	00 00		 mov	 DWORD PTR tv84[ebp], 0
$LN9@response_t:
  0009b	6a 25		 push	 37			; 00000025H
  0009d	8b 4d 0c	 mov	 ecx, DWORD PTR _receiver$[ebp]
  000a0	51		 push	 ecx
  000a1	69 55 b0 5c 04
	00 00		 imul	 edx, DWORD PTR tv76[ebp], 1116
  000a8	8b 45 ac	 mov	 eax, DWORD PTR tv84[ebp]
  000ab	8b 8c 82 00 00
	00 00		 mov	 ecx, DWORD PTR ?fn_get_local_entity_int_value@@3PAY0BBH@P6GHPAUENTITY@@W4INT_TYPES@@@ZA[edx+eax*4]
  000b2	ff d1		 call	 ecx
  000b4	89 45 fc	 mov	 DWORD PTR _total_damage_level$[ebp], eax

; 101  : 
; 102  : 	if (total_damage_level <= 0)

  000b7	83 7d fc 00	 cmp	 DWORD PTR _total_damage_level$[ebp], 0
  000bb	0f 8f 1b 01 00
	00		 jg	 $LN2@response_t

; 103  : 	{
; 104  : 		if ((sender) && (get_local_entity_type (sender) == ENTITY_TYPE_WEAPON))

  000c1	83 7d 10 00	 cmp	 DWORD PTR _sender$[ebp], 0
  000c5	0f 84 c7 00 00
	00		 je	 $LN4@response_t
  000cb	83 7d 10 00	 cmp	 DWORD PTR _sender$[ebp], 0
  000cf	74 0a		 je	 SHORT $LN10@response_t
  000d1	8b 45 10	 mov	 eax, DWORD PTR _sender$[ebp]
  000d4	8b 08		 mov	 ecx, DWORD PTR [eax]
  000d6	89 4d b0	 mov	 DWORD PTR tv129[ebp], ecx
  000d9	eb 1a		 jmp	 SHORT $LN11@response_t
$LN10@response_t:
  000db	6a 68		 push	 104			; 00000068H
  000dd	68 00 00 00 00	 push	 OFFSET ??_C@_0EK@OGJKLNBB@c?3?2users?2nhv90?2projects?2eech?2ap@
  000e2	8b 15 00 00 00
	00		 mov	 edx, DWORD PTR ?null_entity_pointer_message@@3PBDB ; null_entity_pointer_message
  000e8	52		 push	 edx
  000e9	e8 00 00 00 00	 call	 ?process_assert@@YGXPBD0H@Z ; process_assert
  000ee	c7 45 b0 00 00
	00 00		 mov	 DWORD PTR tv129[ebp], 0
$LN11@response_t:
  000f5	83 7d b0 25	 cmp	 DWORD PTR tv129[ebp], 37 ; 00000025H
  000f9	0f 85 93 00 00
	00		 jne	 $LN4@response_t

; 105  : 		{
; 106  : 			aggressor = get_local_entity_parent (sender, LIST_TYPE_LAUNCHED_WEAPON);

  000ff	83 7d 10 00	 cmp	 DWORD PTR _sender$[ebp], 0
  00103	74 0a		 je	 SHORT $LN12@response_t
  00105	8b 45 10	 mov	 eax, DWORD PTR _sender$[ebp]
  00108	8b 08		 mov	 ecx, DWORD PTR [eax]
  0010a	89 4d b0	 mov	 DWORD PTR tv137[ebp], ecx
  0010d	eb 21		 jmp	 SHORT $LN13@response_t
$LN12@response_t:
  0010f	8b 15 00 00 00
	00		 mov	 edx, DWORD PTR ?__LINE__Var@?0??response_to_collision@@YGHW4ENTITY_MESSAGES@@PAUENTITY@@1PAD@Z@4JA
  00115	83 c2 1a	 add	 edx, 26			; 0000001aH
  00118	52		 push	 edx
  00119	68 00 00 00 00	 push	 OFFSET ??_C@_0EK@OGJKLNBB@c?3?2users?2nhv90?2projects?2eech?2ap@
  0011e	a1 00 00 00 00	 mov	 eax, DWORD PTR ?null_entity_pointer_message@@3PBDB ; null_entity_pointer_message
  00123	50		 push	 eax
  00124	e8 00 00 00 00	 call	 ?process_assert@@YGXPBD0H@Z ; process_assert
  00129	c7 45 b0 00 00
	00 00		 mov	 DWORD PTR tv137[ebp], 0
$LN13@response_t:
  00130	b9 01 00 00 00	 mov	 ecx, 1
  00135	85 c9		 test	 ecx, ecx
  00137	74 09		 je	 SHORT $LN14@response_t
  00139	c7 45 ac 18 00
	00 00		 mov	 DWORD PTR tv145[ebp], 24 ; 00000018H
  00140	eb 21		 jmp	 SHORT $LN15@response_t
$LN14@response_t:
  00142	8b 15 00 00 00
	00		 mov	 edx, DWORD PTR ?__LINE__Var@?0??response_to_collision@@YGHW4ENTITY_MESSAGES@@PAUENTITY@@1PAD@Z@4JA
  00148	83 c2 1a	 add	 edx, 26			; 0000001aH
  0014b	52		 push	 edx
  0014c	68 00 00 00 00	 push	 OFFSET ??_C@_0EK@OGJKLNBB@c?3?2users?2nhv90?2projects?2eech?2ap@
  00151	a1 00 00 00 00	 mov	 eax, DWORD PTR ?overload_invalid_list_type_message@@3PBDB ; overload_invalid_list_type_message
  00156	50		 push	 eax
  00157	e8 00 00 00 00	 call	 ?process_assert@@YGXPBD0H@Z ; process_assert
  0015c	c7 45 ac 00 00
	00 00		 mov	 DWORD PTR tv145[ebp], 0
$LN15@response_t:
  00163	6a 18		 push	 24			; 00000018H
  00165	8b 4d 10	 mov	 ecx, DWORD PTR _sender$[ebp]
  00168	51		 push	 ecx
  00169	69 55 b0 b4 00
	00 00		 imul	 edx, DWORD PTR tv137[ebp], 180
  00170	8b 45 ac	 mov	 eax, DWORD PTR tv145[ebp]
  00173	8b 8c 82 00 00
	00 00		 mov	 ecx, DWORD PTR ?fn_get_local_entity_parent@@3PAY0CN@P6GPAUENTITY@@PAU1@W4LIST_TYPES@@@ZA[edx+eax*4]
  0017a	ff d1		 call	 ecx
  0017c	89 45 f4	 mov	 DWORD PTR _aggressor$[ebp], eax

; 107  : 
; 108  : 			if (aggressor)

  0017f	83 7d f4 00	 cmp	 DWORD PTR _aggressor$[ebp], 0
  00183	74 0d		 je	 SHORT $LN4@response_t

; 109  : 			{
; 110  : 				play_building_destroyed_speech (receiver, aggressor);

  00185	8b 45 f4	 mov	 eax, DWORD PTR _aggressor$[ebp]
  00188	50		 push	 eax
  00189	8b 4d 0c	 mov	 ecx, DWORD PTR _receiver$[ebp]
  0018c	51		 push	 ecx
  0018d	e8 00 00 00 00	 call	 ?play_building_destroyed_speech@@YGXPAUENTITY@@0@Z ; play_building_destroyed_speech
$LN4@response_t:

; 111  : 			}
; 112  : 		}
; 113  : 
; 114  : 		kill_client_server_entity (receiver);

  00192	83 7d 0c 00	 cmp	 DWORD PTR _receiver$[ebp], 0
  00196	74 0a		 je	 SHORT $LN16@response_t
  00198	8b 45 0c	 mov	 eax, DWORD PTR _receiver$[ebp]
  0019b	8b 08		 mov	 ecx, DWORD PTR [eax]
  0019d	89 4d b0	 mov	 DWORD PTR tv160[ebp], ecx
  001a0	eb 21		 jmp	 SHORT $LN17@response_t
$LN16@response_t:
  001a2	8b 15 00 00 00
	00		 mov	 edx, DWORD PTR ?__LINE__Var@?0??response_to_collision@@YGHW4ENTITY_MESSAGES@@PAUENTITY@@1PAD@Z@4JA
  001a8	83 c2 22	 add	 edx, 34			; 00000022H
  001ab	52		 push	 edx
  001ac	68 00 00 00 00	 push	 OFFSET ??_C@_0EK@OGJKLNBB@c?3?2users?2nhv90?2projects?2eech?2ap@
  001b1	a1 00 00 00 00	 mov	 eax, DWORD PTR ?null_entity_pointer_message@@3PBDB ; null_entity_pointer_message
  001b6	50		 push	 eax
  001b7	e8 00 00 00 00	 call	 ?process_assert@@YGXPBD0H@Z ; process_assert
  001bc	c7 45 b0 00 00
	00 00		 mov	 DWORD PTR tv160[ebp], 0
$LN17@response_t:
  001c3	8b 4d 0c	 mov	 ecx, DWORD PTR _receiver$[ebp]
  001c6	51		 push	 ecx
  001c7	8b 15 00 00 00
	00		 mov	 edx, DWORD PTR ?system_comms_model@@3W4COMMS_MODEL_TYPES@@A ; system_comms_model
  001cd	c1 e2 02	 shl	 edx, 2
  001d0	8b 45 b0	 mov	 eax, DWORD PTR tv160[ebp]
  001d3	8b 8c c2 00 00
	00 00		 mov	 ecx, DWORD PTR ?fn_kill_client_server_entity@@3PAY01P6GXPAUENTITY@@@ZA[edx+eax*8]
  001da	ff d1		 call	 ecx
$LN2@response_t:

; 115  : 	}
; 116  : 
; 117  : 	return (TRUE);

  001dc	b8 01 00 00 00	 mov	 eax, 1

; 118  : }

  001e1	5f		 pop	 edi
  001e2	5e		 pop	 esi
  001e3	5b		 pop	 ebx
  001e4	8b e5		 mov	 esp, ebp
  001e6	5d		 pop	 ebp
  001e7	c2 10 00	 ret	 16			; 00000010H
?response_to_collision@@YGHW4ENTITY_MESSAGES@@PAUENTITY@@1PAD@Z ENDP ; response_to_collision
_TEXT	ENDS
; Function compile flags: /Odtp /ZI
; File c:\users\nhv90\projects\eech\aphavoc\source\entity\fixed\cbuild\cb_msgs.c
;	COMDAT ?overload_city_building_message_responses@@YGXXZ
_TEXT	SEGMENT
?overload_city_building_message_responses@@YGXXZ PROC	; overload_city_building_message_responses, COMDAT

; 185  : {

  00000	55		 push	 ebp
  00001	8b ec		 mov	 ebp, esp
  00003	83 ec 40	 sub	 esp, 64			; 00000040H
  00006	53		 push	 ebx
  00007	56		 push	 esi
  00008	57		 push	 edi

; 186  : 	overload_fixed_message_responses (ENTITY_TYPE_CITY_BUILDING);

  00009	6a 06		 push	 6
  0000b	e8 00 00 00 00	 call	 ?overload_fixed_message_responses@@YGXW4ENTITY_TYPES@@@Z ; overload_fixed_message_responses

; 187  : 
; 188  : 	message_responses[ENTITY_TYPE_CITY_BUILDING][ENTITY_MESSAGE_COLLISION]		= response_to_collision;

  00010	b8 84 01 00 00	 mov	 eax, 388		; 00000184H
  00015	6b c8 06	 imul	 ecx, eax, 6
  00018	ba 04 00 00 00	 mov	 edx, 4
  0001d	6b c2 07	 imul	 eax, edx, 7
  00020	c7 84 01 00 00
	00 00 00 00 00
	00		 mov	 DWORD PTR ?message_responses@@3PAY0GB@P6GHW4ENTITY_MESSAGES@@PAUENTITY@@1PAD@ZA[ecx+eax], OFFSET ?response_to_collision@@YGHW4ENTITY_MESSAGES@@PAUENTITY@@1PAD@Z ; response_to_collision

; 189  : 
; 190  : 	#if DEBUG_MODULE
; 191  : 
; 192  : 	message_responses[ENTITY_TYPE_CITY_BUILDING][ENTITY_MESSAGE_LINK_CHILD]		= response_to_link_child;
; 193  : 
; 194  : 	message_responses[ENTITY_TYPE_CITY_BUILDING][ENTITY_MESSAGE_UNLINK_CHILD]	= response_to_unlink_child;
; 195  : 
; 196  : 	message_responses[ENTITY_TYPE_CITY_BUILDING][ENTITY_MESSAGE_LINK_PARENT]	= response_to_link_parent;
; 197  : 
; 198  : 	message_responses[ENTITY_TYPE_CITY_BUILDING][ENTITY_MESSAGE_UNLINK_PARENT]	= response_to_unlink_parent;
; 199  : 
; 200  : 	#endif
; 201  : }

  0002b	5f		 pop	 edi
  0002c	5e		 pop	 esi
  0002d	5b		 pop	 ebx
  0002e	8b e5		 mov	 esp, ebp
  00030	5d		 pop	 ebp
  00031	c3		 ret	 0
?overload_city_building_message_responses@@YGXXZ ENDP	; overload_city_building_message_responses
_TEXT	ENDS
END
