; Listing generated by Microsoft (R) Optimizing Compiler Version 19.16.27045.0 

	TITLE	C:\Users\nhv90\Projects\eech\aphavoc\source\entity\mobile\cargo\cg_dstry.c
	.686P
	.XMM
	include listing.inc
	.model	flat

INCLUDELIB MSVCRTD
INCLUDELIB OLDNAMES

PUBLIC	?overload_cargo_destroy_functions@@YGXXZ	; overload_cargo_destroy_functions
PUBLIC	?__LINE__Var@?0??destroy_server@@YGXPAUENTITY@@@Z@4JA ; `destroy_server'::`1'::__LINE__Var
PUBLIC	??_C@_0EL@FBHPCPDN@c?3?2users?2nhv90?2projects?2eech?2ap@ ; `string'
PUBLIC	??_C@_0CC@BNNNEGEG@assert_client_server_remote_fn?5@ ; `string'
PUBLIC	??_C@_0CB@CFOCLFOK@assert_client_server_local_fn?5?$CI@ ; `string'
PUBLIC	?__LINE__Var@?0??destroy_client@@YGXPAUENTITY@@@Z@4JA ; `destroy_client'::`1'::__LINE__Var
PUBLIC	?__LINE__Var@?0??destroy_server_family@@YGXPAUENTITY@@@Z@4JA ; `destroy_server_family'::`1'::__LINE__Var
PUBLIC	?__LINE__Var@?0??kill_local@@YGXPAUENTITY@@@Z@4JA ; `kill_local'::`1'::__LINE__Var
PUBLIC	?__LINE__Var@?0??kill_server@@YGXPAUENTITY@@@Z@4JA ; `kill_server'::`1'::__LINE__Var
PUBLIC	?__LINE__Var@?0??kill_client@@YGXPAUENTITY@@@Z@4JA ; `kill_client'::`1'::__LINE__Var
EXTRN	?process_assert@@YGXPBD0H@Z:PROC		; process_assert
EXTRN	?free_mem@@YGXPAX@Z:PROC			; free_mem
EXTRN	?notify_local_entity@@YAHW4ENTITY_MESSAGES@@PAUENTITY@@1ZZ:PROC ; notify_local_entity
EXTRN	?delete_local_entity_from_parents_child_list@@YGXPAUENTITY@@W4LIST_TYPES@@@Z:PROC ; delete_local_entity_from_parents_child_list
EXTRN	?unlink_local_entity_children@@YGXPAUENTITY@@W4LIST_TYPES@@@Z:PROC ; unlink_local_entity_children
EXTRN	?destroy_local_entity@@YGXPAUENTITY@@@Z:PROC	; destroy_local_entity
EXTRN	?transmit_entity_comms_message@@YAXW4ENTITY_COMMS_MESSAGES@@PAUENTITY@@ZZ:PROC ; transmit_entity_comms_message
EXTRN	?assert_client_server_local_fn@@YGHXZ:PROC	; assert_client_server_local_fn
EXTRN	?assert_client_server_remote_fn@@YGHXZ:PROC	; assert_client_server_remote_fn
EXTRN	?set_free_entity@@YGXPAUENTITY@@@Z:PROC		; set_free_entity
EXTRN	?destroy_local_sound_effects@@YGXPAUENTITY@@@Z:PROC ; destroy_local_sound_effects
EXTRN	?destroy_client_server_sound_effects@@YGXPAUENTITY@@@Z:PROC ; destroy_client_server_sound_effects
EXTRN	?null_entity_pointer_message@@3PBDB:DWORD	; null_entity_pointer_message
EXTRN	?system_comms_model@@3W4COMMS_MODEL_TYPES@@A:DWORD ; system_comms_model
EXTRN	?system_comms_data_flow@@3W4COMMS_DATA_FLOW_TYPES@@A:DWORD ; system_comms_data_flow
EXTRN	?overload_invalid_list_type_message@@3PBDB:DWORD ; overload_invalid_list_type_message
EXTRN	?fn_get_local_entity_first_child@@3PAY0CN@P6GPAUENTITY@@PAU1@W4LIST_TYPES@@@ZA:BYTE ; fn_get_local_entity_first_child
EXTRN	?fn_get_local_entity_child_succ@@3PAY0CN@P6GPAUENTITY@@PAU1@W4LIST_TYPES@@@ZA:BYTE ; fn_get_local_entity_child_succ
EXTRN	?fn_destroy_local_entity@@3PAP6GXPAUENTITY@@@ZA:BYTE ; fn_destroy_local_entity
EXTRN	?fn_destroy_client_server_entity@@3PAY01P6GXPAUENTITY@@@ZA:BYTE ; fn_destroy_client_server_entity
EXTRN	?fn_destroy_local_entity_family@@3PAP6GXPAUENTITY@@@ZA:BYTE ; fn_destroy_local_entity_family
EXTRN	?fn_destroy_client_server_entity_family@@3PAY01P6GXPAUENTITY@@@ZA:BYTE ; fn_destroy_client_server_entity_family
EXTRN	?fn_kill_local_entity@@3PAP6GXPAUENTITY@@@ZA:BYTE ; fn_kill_local_entity
EXTRN	?fn_kill_client_server_entity@@3PAY01P6GXPAUENTITY@@@ZA:BYTE ; fn_kill_client_server_entity
EXTRN	?overload_invalid_int_type_message@@3PBDB:DWORD	; overload_invalid_int_type_message
EXTRN	?fn_set_local_entity_int_value@@3PAY0BBH@P6GXPAUENTITY@@W4INT_TYPES@@H@ZA:BYTE ; fn_set_local_entity_int_value
;	COMDAT ?__LINE__Var@?0??kill_client@@YGXPAUENTITY@@@Z@4JA
_DATA	SEGMENT
?__LINE__Var@?0??kill_client@@YGXPAUENTITY@@@Z@4JA DD 01a1H ; `kill_client'::`1'::__LINE__Var
_DATA	ENDS
;	COMDAT ?__LINE__Var@?0??kill_server@@YGXPAUENTITY@@@Z@4JA
_DATA	SEGMENT
?__LINE__Var@?0??kill_server@@YGXPAUENTITY@@@Z@4JA DD 018aH ; `kill_server'::`1'::__LINE__Var
_DATA	ENDS
;	COMDAT ?__LINE__Var@?0??kill_local@@YGXPAUENTITY@@@Z@4JA
_DATA	SEGMENT
?__LINE__Var@?0??kill_local@@YGXPAUENTITY@@@Z@4JA DD 0102H ; `kill_local'::`1'::__LINE__Var
_DATA	ENDS
;	COMDAT ?__LINE__Var@?0??destroy_server_family@@YGXPAUENTITY@@@Z@4JA
_DATA	SEGMENT
?__LINE__Var@?0??destroy_server_family@@YGXPAUENTITY@@@Z@4JA DD 0e8H ; `destroy_server_family'::`1'::__LINE__Var
_DATA	ENDS
;	COMDAT ?__LINE__Var@?0??destroy_client@@YGXPAUENTITY@@@Z@4JA
_DATA	SEGMENT
?__LINE__Var@?0??destroy_client@@YGXPAUENTITY@@@Z@4JA DD 0c5H ; `destroy_client'::`1'::__LINE__Var
_DATA	ENDS
;	COMDAT ??_C@_0CB@CFOCLFOK@assert_client_server_local_fn?5?$CI@
CONST	SEGMENT
??_C@_0CB@CFOCLFOK@assert_client_server_local_fn?5?$CI@ DB 'assert_client'
	DB	'_server_local_fn ()', 00H			; `string'
CONST	ENDS
;	COMDAT ??_C@_0CC@BNNNEGEG@assert_client_server_remote_fn?5@
CONST	SEGMENT
??_C@_0CC@BNNNEGEG@assert_client_server_remote_fn?5@ DB 'assert_client_se'
	DB	'rver_remote_fn ()', 00H			; `string'
CONST	ENDS
;	COMDAT ??_C@_0EL@FBHPCPDN@c?3?2users?2nhv90?2projects?2eech?2ap@
CONST	SEGMENT
??_C@_0EL@FBHPCPDN@c?3?2users?2nhv90?2projects?2eech?2ap@ DB 'c:\users\nh'
	DB	'v90\projects\eech\aphavoc\source\entity\mobile\cargo\cg_dstry'
	DB	'.c', 00H					; `string'
CONST	ENDS
;	COMDAT ?__LINE__Var@?0??destroy_server@@YGXPAUENTITY@@@Z@4JA
_DATA	SEGMENT
?__LINE__Var@?0??destroy_server@@YGXPAUENTITY@@@Z@4JA DD 0aeH ; `destroy_server'::`1'::__LINE__Var
_DATA	ENDS
; Function compile flags: /Odtp /ZI
; File c:\users\nhv90\projects\eech\aphavoc\source\entity\mobile\cargo\cg_dstry.c
;	COMDAT ?kill_client@@YGXPAUENTITY@@@Z
_TEXT	SEGMENT
tv84 = -68						; size = 4
_en$ = 8						; size = 4
?kill_client@@YGXPAUENTITY@@@Z PROC			; kill_client, COMDAT

; 417  : {

  00000	55		 push	 ebp
  00001	8b ec		 mov	 ebp, esp
  00003	83 ec 44	 sub	 esp, 68			; 00000044H
  00006	53		 push	 ebx
  00007	56		 push	 esi
  00008	57		 push	 edi

; 418  : 	if (get_comms_data_flow () == COMMS_DATA_FLOW_TX)

  00009	83 3d 00 00 00
	00 00		 cmp	 DWORD PTR ?system_comms_data_flow@@3W4COMMS_DATA_FLOW_TYPES@@A, 0 ; system_comms_data_flow
  00010	75 2c		 jne	 SHORT $LN2@kill_clien

; 419  : 	{
; 420  : 		validate_client_server_remote_fn ();

  00012	e8 00 00 00 00	 call	 ?assert_client_server_remote_fn@@YGHXZ ; assert_client_server_remote_fn
  00017	85 c0		 test	 eax, eax
  00019	75 18		 jne	 SHORT $LN4@kill_clien
  0001b	a1 00 00 00 00	 mov	 eax, DWORD PTR ?__LINE__Var@?0??kill_client@@YGXPAUENTITY@@@Z@4JA
  00020	83 c0 03	 add	 eax, 3
  00023	50		 push	 eax
  00024	68 00 00 00 00	 push	 OFFSET ??_C@_0EL@FBHPCPDN@c?3?2users?2nhv90?2projects?2eech?2ap@
  00029	68 00 00 00 00	 push	 OFFSET ??_C@_0CC@BNNNEGEG@assert_client_server_remote_fn?5@
  0002e	e8 00 00 00 00	 call	 ?process_assert@@YGXPBD0H@Z ; process_assert
$LN4@kill_clien:

; 421  : 
; 422  : 		kill_remote (en);

  00033	8b 45 08	 mov	 eax, DWORD PTR _en$[ebp]
  00036	50		 push	 eax
  00037	e8 00 00 00 00	 call	 ?kill_remote@@YGXPAUENTITY@@@Z ; kill_remote

; 423  : 	}
; 424  : 	else

  0003c	eb 62		 jmp	 SHORT $LN1@kill_clien
$LN2@kill_clien:

; 425  : 	{
; 426  : 		validate_client_server_local_fn ();

  0003e	e8 00 00 00 00	 call	 ?assert_client_server_local_fn@@YGHXZ ; assert_client_server_local_fn
  00043	85 c0		 test	 eax, eax
  00045	75 18		 jne	 SHORT $LN5@kill_clien
  00047	a1 00 00 00 00	 mov	 eax, DWORD PTR ?__LINE__Var@?0??kill_client@@YGXPAUENTITY@@@Z@4JA
  0004c	83 c0 09	 add	 eax, 9
  0004f	50		 push	 eax
  00050	68 00 00 00 00	 push	 OFFSET ??_C@_0EL@FBHPCPDN@c?3?2users?2nhv90?2projects?2eech?2ap@
  00055	68 00 00 00 00	 push	 OFFSET ??_C@_0CB@CFOCLFOK@assert_client_server_local_fn?5?$CI@
  0005a	e8 00 00 00 00	 call	 ?process_assert@@YGXPBD0H@Z ; process_assert
$LN5@kill_clien:

; 427  : 
; 428  : 		//
; 429  : 		// kill local using 'full' function
; 430  : 		//
; 431  : 
; 432  : 		kill_local_entity (en);

  0005f	83 7d 08 00	 cmp	 DWORD PTR _en$[ebp], 0
  00063	74 0a		 je	 SHORT $LN7@kill_clien
  00065	8b 45 08	 mov	 eax, DWORD PTR _en$[ebp]
  00068	8b 08		 mov	 ecx, DWORD PTR [eax]
  0006a	89 4d bc	 mov	 DWORD PTR tv84[ebp], ecx
  0006d	eb 21		 jmp	 SHORT $LN8@kill_clien
$LN7@kill_clien:
  0006f	8b 15 00 00 00
	00		 mov	 edx, DWORD PTR ?__LINE__Var@?0??kill_client@@YGXPAUENTITY@@@Z@4JA
  00075	83 c2 0f	 add	 edx, 15			; 0000000fH
  00078	52		 push	 edx
  00079	68 00 00 00 00	 push	 OFFSET ??_C@_0EL@FBHPCPDN@c?3?2users?2nhv90?2projects?2eech?2ap@
  0007e	a1 00 00 00 00	 mov	 eax, DWORD PTR ?null_entity_pointer_message@@3PBDB ; null_entity_pointer_message
  00083	50		 push	 eax
  00084	e8 00 00 00 00	 call	 ?process_assert@@YGXPBD0H@Z ; process_assert
  00089	c7 45 bc 00 00
	00 00		 mov	 DWORD PTR tv84[ebp], 0
$LN8@kill_clien:
  00090	8b 4d 08	 mov	 ecx, DWORD PTR _en$[ebp]
  00093	51		 push	 ecx
  00094	8b 55 bc	 mov	 edx, DWORD PTR tv84[ebp]
  00097	8b 04 95 00 00
	00 00		 mov	 eax, DWORD PTR ?fn_kill_local_entity@@3PAP6GXPAUENTITY@@@ZA[edx*4]
  0009e	ff d0		 call	 eax
$LN1@kill_clien:

; 433  : 	}
; 434  : }

  000a0	5f		 pop	 edi
  000a1	5e		 pop	 esi
  000a2	5b		 pop	 ebx
  000a3	8b e5		 mov	 esp, ebp
  000a5	5d		 pop	 ebp
  000a6	c2 04 00	 ret	 4
?kill_client@@YGXPAUENTITY@@@Z ENDP			; kill_client
_TEXT	ENDS
; Function compile flags: /Odtp /ZI
; File c:\users\nhv90\projects\eech\aphavoc\source\entity\mobile\cargo\cg_dstry.c
;	COMDAT ?kill_server@@YGXPAUENTITY@@@Z
_TEXT	SEGMENT
tv83 = -68						; size = 4
_en$ = 8						; size = 4
?kill_server@@YGXPAUENTITY@@@Z PROC			; kill_server, COMDAT

; 394  : {

  00000	55		 push	 ebp
  00001	8b ec		 mov	 ebp, esp
  00003	83 ec 44	 sub	 esp, 68			; 00000044H
  00006	53		 push	 ebx
  00007	56		 push	 esi
  00008	57		 push	 edi

; 395  : 	//
; 396  : 	// kill remote entity first (keeping local entity valid)
; 397  : 	//
; 398  : 
; 399  : 	validate_client_server_remote_fn ();

  00009	e8 00 00 00 00	 call	 ?assert_client_server_remote_fn@@YGHXZ ; assert_client_server_remote_fn
  0000e	85 c0		 test	 eax, eax
  00010	75 18		 jne	 SHORT $LN2@kill_serve
  00012	a1 00 00 00 00	 mov	 eax, DWORD PTR ?__LINE__Var@?0??kill_server@@YGXPAUENTITY@@@Z@4JA
  00017	83 c0 05	 add	 eax, 5
  0001a	50		 push	 eax
  0001b	68 00 00 00 00	 push	 OFFSET ??_C@_0EL@FBHPCPDN@c?3?2users?2nhv90?2projects?2eech?2ap@
  00020	68 00 00 00 00	 push	 OFFSET ??_C@_0CC@BNNNEGEG@assert_client_server_remote_fn?5@
  00025	e8 00 00 00 00	 call	 ?process_assert@@YGXPBD0H@Z ; process_assert
$LN2@kill_serve:

; 400  : 
; 401  : 	kill_remote (en);

  0002a	8b 45 08	 mov	 eax, DWORD PTR _en$[ebp]
  0002d	50		 push	 eax
  0002e	e8 00 00 00 00	 call	 ?kill_remote@@YGXPAUENTITY@@@Z ; kill_remote

; 402  : 
; 403  : 	validate_client_server_local_fn ();

  00033	e8 00 00 00 00	 call	 ?assert_client_server_local_fn@@YGHXZ ; assert_client_server_local_fn
  00038	85 c0		 test	 eax, eax
  0003a	75 18		 jne	 SHORT $LN3@kill_serve
  0003c	a1 00 00 00 00	 mov	 eax, DWORD PTR ?__LINE__Var@?0??kill_server@@YGXPAUENTITY@@@Z@4JA
  00041	83 c0 09	 add	 eax, 9
  00044	50		 push	 eax
  00045	68 00 00 00 00	 push	 OFFSET ??_C@_0EL@FBHPCPDN@c?3?2users?2nhv90?2projects?2eech?2ap@
  0004a	68 00 00 00 00	 push	 OFFSET ??_C@_0CB@CFOCLFOK@assert_client_server_local_fn?5?$CI@
  0004f	e8 00 00 00 00	 call	 ?process_assert@@YGXPBD0H@Z ; process_assert
$LN3@kill_serve:

; 404  : 
; 405  : 	//
; 406  : 	// kill local using 'full' function
; 407  : 	//
; 408  : 
; 409  : 	kill_local_entity (en);

  00054	83 7d 08 00	 cmp	 DWORD PTR _en$[ebp], 0
  00058	74 0a		 je	 SHORT $LN5@kill_serve
  0005a	8b 45 08	 mov	 eax, DWORD PTR _en$[ebp]
  0005d	8b 08		 mov	 ecx, DWORD PTR [eax]
  0005f	89 4d bc	 mov	 DWORD PTR tv83[ebp], ecx
  00062	eb 21		 jmp	 SHORT $LN6@kill_serve
$LN5@kill_serve:
  00064	8b 15 00 00 00
	00		 mov	 edx, DWORD PTR ?__LINE__Var@?0??kill_server@@YGXPAUENTITY@@@Z@4JA
  0006a	83 c2 0f	 add	 edx, 15			; 0000000fH
  0006d	52		 push	 edx
  0006e	68 00 00 00 00	 push	 OFFSET ??_C@_0EL@FBHPCPDN@c?3?2users?2nhv90?2projects?2eech?2ap@
  00073	a1 00 00 00 00	 mov	 eax, DWORD PTR ?null_entity_pointer_message@@3PBDB ; null_entity_pointer_message
  00078	50		 push	 eax
  00079	e8 00 00 00 00	 call	 ?process_assert@@YGXPBD0H@Z ; process_assert
  0007e	c7 45 bc 00 00
	00 00		 mov	 DWORD PTR tv83[ebp], 0
$LN6@kill_serve:
  00085	8b 4d 08	 mov	 ecx, DWORD PTR _en$[ebp]
  00088	51		 push	 ecx
  00089	8b 55 bc	 mov	 edx, DWORD PTR tv83[ebp]
  0008c	8b 04 95 00 00
	00 00		 mov	 eax, DWORD PTR ?fn_kill_local_entity@@3PAP6GXPAUENTITY@@@ZA[edx*4]
  00093	ff d0		 call	 eax

; 410  : }

  00095	5f		 pop	 edi
  00096	5e		 pop	 esi
  00097	5b		 pop	 ebx
  00098	8b e5		 mov	 esp, ebp
  0009a	5d		 pop	 ebp
  0009b	c2 04 00	 ret	 4
?kill_server@@YGXPAUENTITY@@@Z ENDP			; kill_server
_TEXT	ENDS
; Function compile flags: /Odtp /ZI
; File c:\users\nhv90\projects\eech\aphavoc\source\entity\mobile\cargo\cg_dstry.c
;	COMDAT ?kill_remote@@YGXPAUENTITY@@@Z
_TEXT	SEGMENT
_en$ = 8						; size = 4
?kill_remote@@YGXPAUENTITY@@@Z PROC			; kill_remote, COMDAT

; 379  : {

  00000	55		 push	 ebp
  00001	8b ec		 mov	 ebp, esp
  00003	83 ec 40	 sub	 esp, 64			; 00000040H
  00006	53		 push	 ebx
  00007	56		 push	 esi
  00008	57		 push	 edi

; 380  : 	#if DEBUG_MODULE >= 2
; 381  : 
; 382  : 	debug_log_entity_args (ENTITY_DEBUG_REMOTE, ENTITY_DEBUG_KILL, en);
; 383  : 
; 384  : 	#endif
; 385  : 
; 386  : 	transmit_entity_comms_message (ENTITY_COMMS_KILL, en);

  00009	8b 45 08	 mov	 eax, DWORD PTR _en$[ebp]
  0000c	50		 push	 eax
  0000d	6a 18		 push	 24			; 00000018H
  0000f	e8 00 00 00 00	 call	 ?transmit_entity_comms_message@@YAXW4ENTITY_COMMS_MESSAGES@@PAUENTITY@@ZZ ; transmit_entity_comms_message
  00014	83 c4 08	 add	 esp, 8

; 387  : }

  00017	5f		 pop	 edi
  00018	5e		 pop	 esi
  00019	5b		 pop	 ebx
  0001a	8b e5		 mov	 esp, ebp
  0001c	5d		 pop	 ebp
  0001d	c2 04 00	 ret	 4
?kill_remote@@YGXPAUENTITY@@@Z ENDP			; kill_remote
_TEXT	ENDS
; Function compile flags: /Odtp /ZI
; File c:\users\nhv90\projects\eech\aphavoc\source\entity\mobile\cargo\cg_dstry.c
;	COMDAT ?kill_local@@YGXPAUENTITY@@@Z
_TEXT	SEGMENT
tv153 = -84						; size = 4
tv132 = -84						; size = 4
tv79 = -84						; size = 4
tv145 = -80						; size = 4
tv92 = -80						; size = 4
tv71 = -80						; size = 4
_raw$ = -12						; size = 4
_destroy_task$ = -8					; size = 4
_task$ = -4						; size = 4
_en$ = 8						; size = 4
?kill_local@@YGXPAUENTITY@@@Z PROC			; kill_local, COMDAT

; 258  : {

  00000	55		 push	 ebp
  00001	8b ec		 mov	 ebp, esp
  00003	83 ec 54	 sub	 esp, 84			; 00000054H
  00006	53		 push	 ebx
  00007	56		 push	 esi
  00008	57		 push	 edi

; 259  : 
; 260  : 	entity
; 261  : 		*task,
; 262  : 		*destroy_task;
; 263  : 
; 264  : 	cargo
; 265  : 		*raw;
; 266  : 
; 267  : 	////////////////////////////////////////
; 268  : 	//
; 269  : 	// PRE-AMBLE
; 270  : 	//
; 271  : 	////////////////////////////////////////
; 272  : 
; 273  : 	#if DEBUG_MODULE >= 2
; 274  : 
; 275  : 	debug_log_entity_args (ENTITY_DEBUG_LOCAL, ENTITY_DEBUG_KILL, en);
; 276  : 
; 277  : 	#endif
; 278  : 
; 279  : 	raw = (cargo *) get_local_entity_data (en);

  00009	8b 45 08	 mov	 eax, DWORD PTR _en$[ebp]
  0000c	8b 48 04	 mov	 ecx, DWORD PTR [eax+4]
  0000f	89 4d f4	 mov	 DWORD PTR _raw$[ebp], ecx

; 280  : 
; 281  : 	////////////////////////////////////////
; 282  : 	//
; 283  : 	// VALIDATE
; 284  : 	//
; 285  : 	////////////////////////////////////////
; 286  : 
; 287  : 	////////////////////////////////////////
; 288  : 	//
; 289  : 	// KILL
; 290  : 	//
; 291  : 	////////////////////////////////////////
; 292  : 
; 293  : 	set_local_entity_int_value (en, INT_TYPE_ALIVE, FALSE);

  00012	83 7d 08 00	 cmp	 DWORD PTR _en$[ebp], 0
  00016	74 0a		 je	 SHORT $LN7@kill_local
  00018	8b 45 08	 mov	 eax, DWORD PTR _en$[ebp]
  0001b	8b 08		 mov	 ecx, DWORD PTR [eax]
  0001d	89 4d b0	 mov	 DWORD PTR tv71[ebp], ecx
  00020	eb 21		 jmp	 SHORT $LN8@kill_local
$LN7@kill_local:
  00022	8b 15 00 00 00
	00		 mov	 edx, DWORD PTR ?__LINE__Var@?0??kill_local@@YGXPAUENTITY@@@Z@4JA
  00028	83 c2 23	 add	 edx, 35			; 00000023H
  0002b	52		 push	 edx
  0002c	68 00 00 00 00	 push	 OFFSET ??_C@_0EL@FBHPCPDN@c?3?2users?2nhv90?2projects?2eech?2ap@
  00031	a1 00 00 00 00	 mov	 eax, DWORD PTR ?null_entity_pointer_message@@3PBDB ; null_entity_pointer_message
  00036	50		 push	 eax
  00037	e8 00 00 00 00	 call	 ?process_assert@@YGXPBD0H@Z ; process_assert
  0003c	c7 45 b0 00 00
	00 00		 mov	 DWORD PTR tv71[ebp], 0
$LN8@kill_local:
  00043	b9 01 00 00 00	 mov	 ecx, 1
  00048	85 c9		 test	 ecx, ecx
  0004a	74 09		 je	 SHORT $LN9@kill_local
  0004c	c7 45 ac 07 00
	00 00		 mov	 DWORD PTR tv79[ebp], 7
  00053	eb 21		 jmp	 SHORT $LN10@kill_local
$LN9@kill_local:
  00055	8b 15 00 00 00
	00		 mov	 edx, DWORD PTR ?__LINE__Var@?0??kill_local@@YGXPAUENTITY@@@Z@4JA
  0005b	83 c2 23	 add	 edx, 35			; 00000023H
  0005e	52		 push	 edx
  0005f	68 00 00 00 00	 push	 OFFSET ??_C@_0EL@FBHPCPDN@c?3?2users?2nhv90?2projects?2eech?2ap@
  00064	a1 00 00 00 00	 mov	 eax, DWORD PTR ?overload_invalid_int_type_message@@3PBDB ; overload_invalid_int_type_message
  00069	50		 push	 eax
  0006a	e8 00 00 00 00	 call	 ?process_assert@@YGXPBD0H@Z ; process_assert
  0006f	c7 45 ac 00 00
	00 00		 mov	 DWORD PTR tv79[ebp], 0
$LN10@kill_local:
  00076	6a 00		 push	 0
  00078	6a 07		 push	 7
  0007a	8b 4d 08	 mov	 ecx, DWORD PTR _en$[ebp]
  0007d	51		 push	 ecx
  0007e	69 55 b0 5c 04
	00 00		 imul	 edx, DWORD PTR tv71[ebp], 1116
  00085	8b 45 ac	 mov	 eax, DWORD PTR tv79[ebp]
  00088	8b 8c 82 00 00
	00 00		 mov	 ecx, DWORD PTR ?fn_set_local_entity_int_value@@3PAY0BBH@P6GXPAUENTITY@@W4INT_TYPES@@H@ZA[edx+eax*4]
  0008f	ff d1		 call	 ecx

; 294  : 
; 295  : 	////////////////////////////////////////
; 296  : 	//
; 297  : 	// SEND NOTIFY MESSAGES
; 298  : 	//
; 299  : 	////////////////////////////////////////
; 300  : 
; 301  : 	if (get_comms_model () == COMMS_MODEL_SERVER)

  00091	83 3d 00 00 00
	00 00		 cmp	 DWORD PTR ?system_comms_model@@3W4COMMS_MODEL_TYPES@@A, 0 ; system_comms_model
  00098	0f 85 31 01 00
	00		 jne	 $LN4@kill_local

; 302  : 	{
; 303  : 
; 304  : 		task = get_local_entity_first_child (en, LIST_TYPE_TASK_DEPENDENT);

  0009e	83 7d 08 00	 cmp	 DWORD PTR _en$[ebp], 0
  000a2	74 0a		 je	 SHORT $LN11@kill_local
  000a4	8b 45 08	 mov	 eax, DWORD PTR _en$[ebp]
  000a7	8b 08		 mov	 ecx, DWORD PTR [eax]
  000a9	89 4d b0	 mov	 DWORD PTR tv92[ebp], ecx
  000ac	eb 21		 jmp	 SHORT $LN12@kill_local
$LN11@kill_local:
  000ae	8b 15 00 00 00
	00		 mov	 edx, DWORD PTR ?__LINE__Var@?0??kill_local@@YGXPAUENTITY@@@Z@4JA
  000b4	83 c2 2e	 add	 edx, 46			; 0000002eH
  000b7	52		 push	 edx
  000b8	68 00 00 00 00	 push	 OFFSET ??_C@_0EL@FBHPCPDN@c?3?2users?2nhv90?2projects?2eech?2ap@
  000bd	a1 00 00 00 00	 mov	 eax, DWORD PTR ?null_entity_pointer_message@@3PBDB ; null_entity_pointer_message
  000c2	50		 push	 eax
  000c3	e8 00 00 00 00	 call	 ?process_assert@@YGXPBD0H@Z ; process_assert
  000c8	c7 45 b0 00 00
	00 00		 mov	 DWORD PTR tv92[ebp], 0
$LN12@kill_local:
  000cf	b9 01 00 00 00	 mov	 ecx, 1
  000d4	85 c9		 test	 ecx, ecx
  000d6	74 09		 je	 SHORT $LN13@kill_local
  000d8	c7 45 ac 27 00
	00 00		 mov	 DWORD PTR tv132[ebp], 39 ; 00000027H
  000df	eb 21		 jmp	 SHORT $LN14@kill_local
$LN13@kill_local:
  000e1	8b 15 00 00 00
	00		 mov	 edx, DWORD PTR ?__LINE__Var@?0??kill_local@@YGXPAUENTITY@@@Z@4JA
  000e7	83 c2 2e	 add	 edx, 46			; 0000002eH
  000ea	52		 push	 edx
  000eb	68 00 00 00 00	 push	 OFFSET ??_C@_0EL@FBHPCPDN@c?3?2users?2nhv90?2projects?2eech?2ap@
  000f0	a1 00 00 00 00	 mov	 eax, DWORD PTR ?overload_invalid_list_type_message@@3PBDB ; overload_invalid_list_type_message
  000f5	50		 push	 eax
  000f6	e8 00 00 00 00	 call	 ?process_assert@@YGXPBD0H@Z ; process_assert
  000fb	c7 45 ac 00 00
	00 00		 mov	 DWORD PTR tv132[ebp], 0
$LN14@kill_local:
  00102	6a 27		 push	 39			; 00000027H
  00104	8b 4d 08	 mov	 ecx, DWORD PTR _en$[ebp]
  00107	51		 push	 ecx
  00108	69 55 b0 b4 00
	00 00		 imul	 edx, DWORD PTR tv92[ebp], 180
  0010f	8b 45 ac	 mov	 eax, DWORD PTR tv132[ebp]
  00112	8b 8c 82 00 00
	00 00		 mov	 ecx, DWORD PTR ?fn_get_local_entity_first_child@@3PAY0CN@P6GPAUENTITY@@PAU1@W4LIST_TYPES@@@ZA[edx+eax*4]
  00119	ff d1		 call	 ecx
  0011b	89 45 fc	 mov	 DWORD PTR _task$[ebp], eax
$LN2@kill_local:

; 305  : 
; 306  : 		while (task)

  0011e	83 7d fc 00	 cmp	 DWORD PTR _task$[ebp], 0
  00122	0f 84 a7 00 00
	00		 je	 $LN4@kill_local

; 307  : 		{
; 308  : 
; 309  : 			destroy_task = task;

  00128	8b 45 fc	 mov	 eax, DWORD PTR _task$[ebp]
  0012b	89 45 f8	 mov	 DWORD PTR _destroy_task$[ebp], eax

; 310  : 
; 311  : 			task = get_local_entity_child_succ (task, LIST_TYPE_TASK_DEPENDENT);

  0012e	83 7d fc 00	 cmp	 DWORD PTR _task$[ebp], 0
  00132	74 0a		 je	 SHORT $LN15@kill_local
  00134	8b 45 fc	 mov	 eax, DWORD PTR _task$[ebp]
  00137	8b 08		 mov	 ecx, DWORD PTR [eax]
  00139	89 4d b0	 mov	 DWORD PTR tv145[ebp], ecx
  0013c	eb 21		 jmp	 SHORT $LN16@kill_local
$LN15@kill_local:
  0013e	8b 15 00 00 00
	00		 mov	 edx, DWORD PTR ?__LINE__Var@?0??kill_local@@YGXPAUENTITY@@@Z@4JA
  00144	83 c2 35	 add	 edx, 53			; 00000035H
  00147	52		 push	 edx
  00148	68 00 00 00 00	 push	 OFFSET ??_C@_0EL@FBHPCPDN@c?3?2users?2nhv90?2projects?2eech?2ap@
  0014d	a1 00 00 00 00	 mov	 eax, DWORD PTR ?null_entity_pointer_message@@3PBDB ; null_entity_pointer_message
  00152	50		 push	 eax
  00153	e8 00 00 00 00	 call	 ?process_assert@@YGXPBD0H@Z ; process_assert
  00158	c7 45 b0 00 00
	00 00		 mov	 DWORD PTR tv145[ebp], 0
$LN16@kill_local:
  0015f	b9 01 00 00 00	 mov	 ecx, 1
  00164	85 c9		 test	 ecx, ecx
  00166	74 09		 je	 SHORT $LN17@kill_local
  00168	c7 45 ac 27 00
	00 00		 mov	 DWORD PTR tv153[ebp], 39 ; 00000027H
  0016f	eb 21		 jmp	 SHORT $LN18@kill_local
$LN17@kill_local:
  00171	8b 15 00 00 00
	00		 mov	 edx, DWORD PTR ?__LINE__Var@?0??kill_local@@YGXPAUENTITY@@@Z@4JA
  00177	83 c2 35	 add	 edx, 53			; 00000035H
  0017a	52		 push	 edx
  0017b	68 00 00 00 00	 push	 OFFSET ??_C@_0EL@FBHPCPDN@c?3?2users?2nhv90?2projects?2eech?2ap@
  00180	a1 00 00 00 00	 mov	 eax, DWORD PTR ?overload_invalid_list_type_message@@3PBDB ; overload_invalid_list_type_message
  00185	50		 push	 eax
  00186	e8 00 00 00 00	 call	 ?process_assert@@YGXPBD0H@Z ; process_assert
  0018b	c7 45 ac 00 00
	00 00		 mov	 DWORD PTR tv153[ebp], 0
$LN18@kill_local:
  00192	6a 27		 push	 39			; 00000027H
  00194	8b 4d fc	 mov	 ecx, DWORD PTR _task$[ebp]
  00197	51		 push	 ecx
  00198	69 55 b0 b4 00
	00 00		 imul	 edx, DWORD PTR tv145[ebp], 180
  0019f	8b 45 ac	 mov	 eax, DWORD PTR tv153[ebp]
  001a2	8b 8c 82 00 00
	00 00		 mov	 ecx, DWORD PTR ?fn_get_local_entity_child_succ@@3PAY0CN@P6GPAUENTITY@@PAU1@W4LIST_TYPES@@@ZA[edx+eax*4]
  001a9	ff d1		 call	 ecx
  001ab	89 45 fc	 mov	 DWORD PTR _task$[ebp], eax

; 312  : 
; 313  : 			if (destroy_task->type == ENTITY_TYPE_TASK)

  001ae	8b 45 f8	 mov	 eax, DWORD PTR _destroy_task$[ebp]
  001b1	83 38 22	 cmp	 DWORD PTR [eax], 34	; 00000022H
  001b4	75 14		 jne	 SHORT $LN5@kill_local

; 314  : 			{
; 315  : 
; 316  : 				#if DEBUG_MODULE
; 317  : 
; 318  : 				debug_log ("FW_DSTRY: killing cargo, notifying task %s complete", entity_sub_type_task_names [get_local_entity_int_value (destroy_task, INT_TYPE_ENTITY_SUB_TYPE)]);
; 319  : 
; 320  : 				#endif
; 321  : 
; 322  : 				notify_local_entity (ENTITY_MESSAGE_TASK_COMPLETED, destroy_task, en, TASK_TERMINATED_OBJECTIVE_MESSAGE);

  001b6	6a 04		 push	 4
  001b8	8b 45 08	 mov	 eax, DWORD PTR _en$[ebp]
  001bb	50		 push	 eax
  001bc	8b 4d f8	 mov	 ecx, DWORD PTR _destroy_task$[ebp]
  001bf	51		 push	 ecx
  001c0	6a 32		 push	 50			; 00000032H
  001c2	e8 00 00 00 00	 call	 ?notify_local_entity@@YAHW4ENTITY_MESSAGES@@PAUENTITY@@1ZZ ; notify_local_entity
  001c7	83 c4 10	 add	 esp, 16			; 00000010H
$LN5@kill_local:

; 323  : 			}
; 324  : 		}

  001ca	e9 4f ff ff ff	 jmp	 $LN2@kill_local
$LN4@kill_local:

; 325  : 
; 326  : 		////////////////////////////////////////
; 327  : 		//
; 328  : 		// SEND NOTIFY MESSAGES
; 329  : 		//
; 330  : 		////////////////////////////////////////
; 331  : 	}
; 332  : 
; 333  : 	////////////////////////////////////////
; 334  : 	//
; 335  : 	// UNLINK FROM SYSTEM
; 336  : 	//
; 337  : 	////////////////////////////////////////
; 338  : 
; 339  : 	//
; 340  : 	// cargo
; 341  : 	//
; 342  : 
; 343  : 	unlink_local_entity_children (en, LIST_TYPE_TASK_DEPENDENT);

  001cf	6a 27		 push	 39			; 00000027H
  001d1	8b 45 08	 mov	 eax, DWORD PTR _en$[ebp]
  001d4	50		 push	 eax
  001d5	e8 00 00 00 00	 call	 ?unlink_local_entity_children@@YGXPAUENTITY@@W4LIST_TYPES@@@Z ; unlink_local_entity_children

; 344  : 
; 345  : 	delete_local_entity_from_parents_child_list (en, LIST_TYPE_CARGO);

  001da	6a 06		 push	 6
  001dc	8b 45 08	 mov	 eax, DWORD PTR _en$[ebp]
  001df	50		 push	 eax
  001e0	e8 00 00 00 00	 call	 ?delete_local_entity_from_parents_child_list@@YGXPAUENTITY@@W4LIST_TYPES@@@Z ; delete_local_entity_from_parents_child_list

; 346  : 
; 347  : 	delete_local_entity_from_parents_child_list (en, LIST_TYPE_MOVEMENT_DEPENDENT);

  001e5	6a 1a		 push	 26			; 0000001aH
  001e7	8b 45 08	 mov	 eax, DWORD PTR _en$[ebp]
  001ea	50		 push	 eax
  001eb	e8 00 00 00 00	 call	 ?delete_local_entity_from_parents_child_list@@YGXPAUENTITY@@W4LIST_TYPES@@@Z ; delete_local_entity_from_parents_child_list

; 348  : 
; 349  : 	// view_link
; 350  : 
; 351  : 	//
; 352  : 	// mobile
; 353  : 	//
; 354  : 
; 355  : 	unlink_local_entity_children (en, LIST_TYPE_SPECIAL_EFFECT);

  001f0	6a 24		 push	 36			; 00000024H
  001f2	8b 45 08	 mov	 eax, DWORD PTR _en$[ebp]
  001f5	50		 push	 eax
  001f6	e8 00 00 00 00	 call	 ?unlink_local_entity_children@@YGXPAUENTITY@@W4LIST_TYPES@@@Z ; unlink_local_entity_children

; 356  : 
; 357  : 	unlink_local_entity_children (en, LIST_TYPE_TARGET);

  001fb	6a 26		 push	 38			; 00000026H
  001fd	8b 45 08	 mov	 eax, DWORD PTR _en$[ebp]
  00200	50		 push	 eax
  00201	e8 00 00 00 00	 call	 ?unlink_local_entity_children@@YGXPAUENTITY@@W4LIST_TYPES@@@Z ; unlink_local_entity_children

; 358  : 
; 359  : 	delete_local_entity_from_parents_child_list (en, LIST_TYPE_PADLOCK);

  00206	6a 1b		 push	 27			; 0000001bH
  00208	8b 45 08	 mov	 eax, DWORD PTR _en$[ebp]
  0020b	50		 push	 eax
  0020c	e8 00 00 00 00	 call	 ?delete_local_entity_from_parents_child_list@@YGXPAUENTITY@@W4LIST_TYPES@@@Z ; delete_local_entity_from_parents_child_list

; 360  : 
; 361  : 	// sector_link
; 362  : 
; 363  : 	delete_local_entity_from_parents_child_list (en, LIST_TYPE_TARGET);

  00211	6a 26		 push	 38			; 00000026H
  00213	8b 45 08	 mov	 eax, DWORD PTR _en$[ebp]
  00216	50		 push	 eax
  00217	e8 00 00 00 00	 call	 ?delete_local_entity_from_parents_child_list@@YGXPAUENTITY@@W4LIST_TYPES@@@Z ; delete_local_entity_from_parents_child_list

; 364  : 
; 365  : 	// update_link
; 366  : 
; 367  : 	////////////////////////////////////////
; 368  : 	//
; 369  : 	// SPECIAL EFFECTS
; 370  : 	//
; 371  : 	////////////////////////////////////////
; 372  : }

  0021c	5f		 pop	 edi
  0021d	5e		 pop	 esi
  0021e	5b		 pop	 ebx
  0021f	8b e5		 mov	 esp, ebp
  00221	5d		 pop	 ebp
  00222	c2 04 00	 ret	 4
?kill_local@@YGXPAUENTITY@@@Z ENDP			; kill_local
_TEXT	ENDS
; Function compile flags: /Odtp /ZI
; File c:\users\nhv90\projects\eech\aphavoc\source\entity\mobile\cargo\cg_dstry.c
;	COMDAT ?destroy_client_family@@YGXPAUENTITY@@@Z
_TEXT	SEGMENT
_en$ = 8						; size = 4
?destroy_client_family@@YGXPAUENTITY@@@Z PROC		; destroy_client_family, COMDAT

; 243  : {

  00000	55		 push	 ebp
  00001	8b ec		 mov	 ebp, esp
  00003	83 ec 40	 sub	 esp, 64			; 00000040H
  00006	53		 push	 ebx
  00007	56		 push	 esi
  00008	57		 push	 edi

; 244  : 	#if DEBUG_MODULE >= 2
; 245  : 
; 246  : 	debug_log_entity_args (ENTITY_DEBUG_REMOTE, ENTITY_DEBUG_DESTROY_FAMILY, en);
; 247  : 
; 248  : 	#endif
; 249  : 
; 250  : 	transmit_entity_comms_message (ENTITY_COMMS_DESTROY_FAMILY, en);

  00009	8b 45 08	 mov	 eax, DWORD PTR _en$[ebp]
  0000c	50		 push	 eax
  0000d	6a 13		 push	 19			; 00000013H
  0000f	e8 00 00 00 00	 call	 ?transmit_entity_comms_message@@YAXW4ENTITY_COMMS_MESSAGES@@PAUENTITY@@ZZ ; transmit_entity_comms_message
  00014	83 c4 08	 add	 esp, 8

; 251  : }

  00017	5f		 pop	 edi
  00018	5e		 pop	 esi
  00019	5b		 pop	 ebx
  0001a	8b e5		 mov	 esp, ebp
  0001c	5d		 pop	 ebp
  0001d	c2 04 00	 ret	 4
?destroy_client_family@@YGXPAUENTITY@@@Z ENDP		; destroy_client_family
_TEXT	ENDS
; Function compile flags: /Odtp /ZI
; File c:\users\nhv90\projects\eech\aphavoc\source\entity\mobile\cargo\cg_dstry.c
;	COMDAT ?destroy_server_family@@YGXPAUENTITY@@@Z
_TEXT	SEGMENT
tv71 = -68						; size = 4
_en$ = 8						; size = 4
?destroy_server_family@@YGXPAUENTITY@@@Z PROC		; destroy_server_family, COMDAT

; 232  : {

  00000	55		 push	 ebp
  00001	8b ec		 mov	 ebp, esp
  00003	83 ec 44	 sub	 esp, 68			; 00000044H
  00006	53		 push	 ebx
  00007	56		 push	 esi
  00008	57		 push	 edi

; 233  : 	destroy_client_server_sound_effects (en);

  00009	8b 45 08	 mov	 eax, DWORD PTR _en$[ebp]
  0000c	50		 push	 eax
  0000d	e8 00 00 00 00	 call	 ?destroy_client_server_sound_effects@@YGXPAUENTITY@@@Z ; destroy_client_server_sound_effects

; 234  : 
; 235  : 	destroy_client_server_entity (en);

  00012	83 7d 08 00	 cmp	 DWORD PTR _en$[ebp], 0
  00016	74 0a		 je	 SHORT $LN3@destroy_se
  00018	8b 45 08	 mov	 eax, DWORD PTR _en$[ebp]
  0001b	8b 08		 mov	 ecx, DWORD PTR [eax]
  0001d	89 4d bc	 mov	 DWORD PTR tv71[ebp], ecx
  00020	eb 21		 jmp	 SHORT $LN4@destroy_se
$LN3@destroy_se:
  00022	8b 15 00 00 00
	00		 mov	 edx, DWORD PTR ?__LINE__Var@?0??destroy_server_family@@YGXPAUENTITY@@@Z@4JA
  00028	83 c2 03	 add	 edx, 3
  0002b	52		 push	 edx
  0002c	68 00 00 00 00	 push	 OFFSET ??_C@_0EL@FBHPCPDN@c?3?2users?2nhv90?2projects?2eech?2ap@
  00031	a1 00 00 00 00	 mov	 eax, DWORD PTR ?null_entity_pointer_message@@3PBDB ; null_entity_pointer_message
  00036	50		 push	 eax
  00037	e8 00 00 00 00	 call	 ?process_assert@@YGXPBD0H@Z ; process_assert
  0003c	c7 45 bc 00 00
	00 00		 mov	 DWORD PTR tv71[ebp], 0
$LN4@destroy_se:
  00043	8b 4d 08	 mov	 ecx, DWORD PTR _en$[ebp]
  00046	51		 push	 ecx
  00047	8b 15 00 00 00
	00		 mov	 edx, DWORD PTR ?system_comms_model@@3W4COMMS_MODEL_TYPES@@A ; system_comms_model
  0004d	c1 e2 02	 shl	 edx, 2
  00050	8b 45 bc	 mov	 eax, DWORD PTR tv71[ebp]
  00053	8b 8c c2 00 00
	00 00		 mov	 ecx, DWORD PTR ?fn_destroy_client_server_entity@@3PAY01P6GXPAUENTITY@@@ZA[edx+eax*8]
  0005a	ff d1		 call	 ecx

; 236  : }

  0005c	5f		 pop	 edi
  0005d	5e		 pop	 esi
  0005e	5b		 pop	 ebx
  0005f	8b e5		 mov	 esp, ebp
  00061	5d		 pop	 ebp
  00062	c2 04 00	 ret	 4
?destroy_server_family@@YGXPAUENTITY@@@Z ENDP		; destroy_server_family
_TEXT	ENDS
; Function compile flags: /Odtp /ZI
; File c:\users\nhv90\projects\eech\aphavoc\source\entity\mobile\cargo\cg_dstry.c
;	COMDAT ?destroy_local_family@@YGXPAUENTITY@@@Z
_TEXT	SEGMENT
_en$ = 8						; size = 4
?destroy_local_family@@YGXPAUENTITY@@@Z PROC		; destroy_local_family, COMDAT

; 221  : {

  00000	55		 push	 ebp
  00001	8b ec		 mov	 ebp, esp
  00003	83 ec 40	 sub	 esp, 64			; 00000040H
  00006	53		 push	 ebx
  00007	56		 push	 esi
  00008	57		 push	 edi

; 222  : 	destroy_local_sound_effects (en);

  00009	8b 45 08	 mov	 eax, DWORD PTR _en$[ebp]
  0000c	50		 push	 eax
  0000d	e8 00 00 00 00	 call	 ?destroy_local_sound_effects@@YGXPAUENTITY@@@Z ; destroy_local_sound_effects

; 223  : 
; 224  : 	destroy_local_entity (en);

  00012	8b 45 08	 mov	 eax, DWORD PTR _en$[ebp]
  00015	50		 push	 eax
  00016	e8 00 00 00 00	 call	 ?destroy_local_entity@@YGXPAUENTITY@@@Z ; destroy_local_entity

; 225  : }

  0001b	5f		 pop	 edi
  0001c	5e		 pop	 esi
  0001d	5b		 pop	 ebx
  0001e	8b e5		 mov	 esp, ebp
  00020	5d		 pop	 ebp
  00021	c2 04 00	 ret	 4
?destroy_local_family@@YGXPAUENTITY@@@Z ENDP		; destroy_local_family
_TEXT	ENDS
; Function compile flags: /Odtp /ZI
; File c:\users\nhv90\projects\eech\aphavoc\source\entity\mobile\cargo\cg_dstry.c
;	COMDAT ?destroy_client@@YGXPAUENTITY@@@Z
_TEXT	SEGMENT
_en$ = 8						; size = 4
?destroy_client@@YGXPAUENTITY@@@Z PROC			; destroy_client, COMDAT

; 197  : {

  00000	55		 push	 ebp
  00001	8b ec		 mov	 ebp, esp
  00003	83 ec 40	 sub	 esp, 64			; 00000040H
  00006	53		 push	 ebx
  00007	56		 push	 esi
  00008	57		 push	 edi

; 198  : 	if (get_comms_data_flow () == COMMS_DATA_FLOW_TX)

  00009	83 3d 00 00 00
	00 00		 cmp	 DWORD PTR ?system_comms_data_flow@@3W4COMMS_DATA_FLOW_TYPES@@A, 0 ; system_comms_data_flow
  00010	75 2c		 jne	 SHORT $LN2@destroy_cl

; 199  : 	{
; 200  : 		validate_client_server_remote_fn ();

  00012	e8 00 00 00 00	 call	 ?assert_client_server_remote_fn@@YGHXZ ; assert_client_server_remote_fn
  00017	85 c0		 test	 eax, eax
  00019	75 18		 jne	 SHORT $LN4@destroy_cl
  0001b	a1 00 00 00 00	 mov	 eax, DWORD PTR ?__LINE__Var@?0??destroy_client@@YGXPAUENTITY@@@Z@4JA
  00020	83 c0 03	 add	 eax, 3
  00023	50		 push	 eax
  00024	68 00 00 00 00	 push	 OFFSET ??_C@_0EL@FBHPCPDN@c?3?2users?2nhv90?2projects?2eech?2ap@
  00029	68 00 00 00 00	 push	 OFFSET ??_C@_0CC@BNNNEGEG@assert_client_server_remote_fn?5@
  0002e	e8 00 00 00 00	 call	 ?process_assert@@YGXPBD0H@Z ; process_assert
$LN4@destroy_cl:

; 201  : 
; 202  : 		destroy_remote (en);

  00033	8b 45 08	 mov	 eax, DWORD PTR _en$[ebp]
  00036	50		 push	 eax
  00037	e8 00 00 00 00	 call	 ?destroy_remote@@YGXPAUENTITY@@@Z ; destroy_remote

; 203  : 	}
; 204  : 	else

  0003c	eb 2a		 jmp	 SHORT $LN1@destroy_cl
$LN2@destroy_cl:

; 205  : 	{
; 206  : 		validate_client_server_local_fn ();

  0003e	e8 00 00 00 00	 call	 ?assert_client_server_local_fn@@YGHXZ ; assert_client_server_local_fn
  00043	85 c0		 test	 eax, eax
  00045	75 18		 jne	 SHORT $LN5@destroy_cl
  00047	a1 00 00 00 00	 mov	 eax, DWORD PTR ?__LINE__Var@?0??destroy_client@@YGXPAUENTITY@@@Z@4JA
  0004c	83 c0 09	 add	 eax, 9
  0004f	50		 push	 eax
  00050	68 00 00 00 00	 push	 OFFSET ??_C@_0EL@FBHPCPDN@c?3?2users?2nhv90?2projects?2eech?2ap@
  00055	68 00 00 00 00	 push	 OFFSET ??_C@_0CB@CFOCLFOK@assert_client_server_local_fn?5?$CI@
  0005a	e8 00 00 00 00	 call	 ?process_assert@@YGXPBD0H@Z ; process_assert
$LN5@destroy_cl:

; 207  : 
; 208  : 		//
; 209  : 		// destroy local using 'full' function
; 210  : 		//
; 211  : 
; 212  : 		destroy_local_entity (en);

  0005f	8b 45 08	 mov	 eax, DWORD PTR _en$[ebp]
  00062	50		 push	 eax
  00063	e8 00 00 00 00	 call	 ?destroy_local_entity@@YGXPAUENTITY@@@Z ; destroy_local_entity
$LN1@destroy_cl:

; 213  : 	}
; 214  : }

  00068	5f		 pop	 edi
  00069	5e		 pop	 esi
  0006a	5b		 pop	 ebx
  0006b	8b e5		 mov	 esp, ebp
  0006d	5d		 pop	 ebp
  0006e	c2 04 00	 ret	 4
?destroy_client@@YGXPAUENTITY@@@Z ENDP			; destroy_client
_TEXT	ENDS
; Function compile flags: /Odtp /ZI
; File c:\users\nhv90\projects\eech\aphavoc\source\entity\mobile\cargo\cg_dstry.c
;	COMDAT ?destroy_server@@YGXPAUENTITY@@@Z
_TEXT	SEGMENT
_en$ = 8						; size = 4
?destroy_server@@YGXPAUENTITY@@@Z PROC			; destroy_server, COMDAT

; 174  : {

  00000	55		 push	 ebp
  00001	8b ec		 mov	 ebp, esp
  00003	83 ec 40	 sub	 esp, 64			; 00000040H
  00006	53		 push	 ebx
  00007	56		 push	 esi
  00008	57		 push	 edi

; 175  : 	//
; 176  : 	// destroy remote entity first (keeping local entity valid)
; 177  : 	//
; 178  : 
; 179  : 	validate_client_server_remote_fn ();

  00009	e8 00 00 00 00	 call	 ?assert_client_server_remote_fn@@YGHXZ ; assert_client_server_remote_fn
  0000e	85 c0		 test	 eax, eax
  00010	75 18		 jne	 SHORT $LN2@destroy_se
  00012	a1 00 00 00 00	 mov	 eax, DWORD PTR ?__LINE__Var@?0??destroy_server@@YGXPAUENTITY@@@Z@4JA
  00017	83 c0 05	 add	 eax, 5
  0001a	50		 push	 eax
  0001b	68 00 00 00 00	 push	 OFFSET ??_C@_0EL@FBHPCPDN@c?3?2users?2nhv90?2projects?2eech?2ap@
  00020	68 00 00 00 00	 push	 OFFSET ??_C@_0CC@BNNNEGEG@assert_client_server_remote_fn?5@
  00025	e8 00 00 00 00	 call	 ?process_assert@@YGXPBD0H@Z ; process_assert
$LN2@destroy_se:

; 180  : 
; 181  : 	destroy_remote (en);

  0002a	8b 45 08	 mov	 eax, DWORD PTR _en$[ebp]
  0002d	50		 push	 eax
  0002e	e8 00 00 00 00	 call	 ?destroy_remote@@YGXPAUENTITY@@@Z ; destroy_remote

; 182  : 
; 183  : 	validate_client_server_local_fn ();

  00033	e8 00 00 00 00	 call	 ?assert_client_server_local_fn@@YGHXZ ; assert_client_server_local_fn
  00038	85 c0		 test	 eax, eax
  0003a	75 18		 jne	 SHORT $LN3@destroy_se
  0003c	a1 00 00 00 00	 mov	 eax, DWORD PTR ?__LINE__Var@?0??destroy_server@@YGXPAUENTITY@@@Z@4JA
  00041	83 c0 09	 add	 eax, 9
  00044	50		 push	 eax
  00045	68 00 00 00 00	 push	 OFFSET ??_C@_0EL@FBHPCPDN@c?3?2users?2nhv90?2projects?2eech?2ap@
  0004a	68 00 00 00 00	 push	 OFFSET ??_C@_0CB@CFOCLFOK@assert_client_server_local_fn?5?$CI@
  0004f	e8 00 00 00 00	 call	 ?process_assert@@YGXPBD0H@Z ; process_assert
$LN3@destroy_se:

; 184  : 
; 185  : 	//
; 186  : 	// destroy local using 'full' function
; 187  : 	//
; 188  : 
; 189  : 	destroy_local_entity (en);

  00054	8b 45 08	 mov	 eax, DWORD PTR _en$[ebp]
  00057	50		 push	 eax
  00058	e8 00 00 00 00	 call	 ?destroy_local_entity@@YGXPAUENTITY@@@Z ; destroy_local_entity

; 190  : }

  0005d	5f		 pop	 edi
  0005e	5e		 pop	 esi
  0005f	5b		 pop	 ebx
  00060	8b e5		 mov	 esp, ebp
  00062	5d		 pop	 ebp
  00063	c2 04 00	 ret	 4
?destroy_server@@YGXPAUENTITY@@@Z ENDP			; destroy_server
_TEXT	ENDS
; Function compile flags: /Odtp /ZI
; File c:\users\nhv90\projects\eech\aphavoc\source\entity\mobile\cargo\cg_dstry.c
;	COMDAT ?destroy_remote@@YGXPAUENTITY@@@Z
_TEXT	SEGMENT
_en$ = 8						; size = 4
?destroy_remote@@YGXPAUENTITY@@@Z PROC			; destroy_remote, COMDAT

; 159  : {

  00000	55		 push	 ebp
  00001	8b ec		 mov	 ebp, esp
  00003	83 ec 40	 sub	 esp, 64			; 00000040H
  00006	53		 push	 ebx
  00007	56		 push	 esi
  00008	57		 push	 edi

; 160  : 	#if DEBUG_MODULE >= 2
; 161  : 
; 162  : 	debug_log_entity_args (ENTITY_DEBUG_REMOTE, ENTITY_DEBUG_DESTROY, en);
; 163  : 
; 164  : 	#endif
; 165  : 
; 166  : 	transmit_entity_comms_message (ENTITY_COMMS_DESTROY, en);

  00009	8b 45 08	 mov	 eax, DWORD PTR _en$[ebp]
  0000c	50		 push	 eax
  0000d	6a 12		 push	 18			; 00000012H
  0000f	e8 00 00 00 00	 call	 ?transmit_entity_comms_message@@YAXW4ENTITY_COMMS_MESSAGES@@PAUENTITY@@ZZ ; transmit_entity_comms_message
  00014	83 c4 08	 add	 esp, 8

; 167  : }

  00017	5f		 pop	 edi
  00018	5e		 pop	 esi
  00019	5b		 pop	 ebx
  0001a	8b e5		 mov	 esp, ebp
  0001c	5d		 pop	 ebp
  0001d	c2 04 00	 ret	 4
?destroy_remote@@YGXPAUENTITY@@@Z ENDP			; destroy_remote
_TEXT	ENDS
; Function compile flags: /Odtp /ZI
; File c:\users\nhv90\projects\eech\aphavoc\source\entity\mobile\cargo\cg_dstry.c
;	COMDAT ?destroy_local@@YGXPAUENTITY@@@Z
_TEXT	SEGMENT
_raw$ = -4						; size = 4
_en$ = 8						; size = 4
?destroy_local@@YGXPAUENTITY@@@Z PROC			; destroy_local, COMDAT

; 82   : {

  00000	55		 push	 ebp
  00001	8b ec		 mov	 ebp, esp
  00003	83 ec 44	 sub	 esp, 68			; 00000044H
  00006	53		 push	 ebx
  00007	56		 push	 esi
  00008	57		 push	 edi

; 83   : 
; 84   : 	cargo
; 85   : 		*raw;
; 86   : 
; 87   : 	////////////////////////////////////////
; 88   : 	//
; 89   : 	// PRE-AMBLE
; 90   : 	//
; 91   : 	////////////////////////////////////////
; 92   : 
; 93   : 	#if DEBUG_MODULE >= 2
; 94   : 
; 95   : 	debug_log_entity_args (ENTITY_DEBUG_LOCAL, ENTITY_DEBUG_DESTROY, en);
; 96   : 
; 97   : 	#endif
; 98   : 
; 99   : 	raw = (cargo *) get_local_entity_data (en);

  00009	8b 45 08	 mov	 eax, DWORD PTR _en$[ebp]
  0000c	8b 48 04	 mov	 ecx, DWORD PTR [eax+4]
  0000f	89 4d fc	 mov	 DWORD PTR _raw$[ebp], ecx

; 100  : 
; 101  : 	////////////////////////////////////////
; 102  : 	//
; 103  : 	// VALIDATE
; 104  : 	//
; 105  : 	////////////////////////////////////////
; 106  : 
; 107  : 	////////////////////////////////////////
; 108  : 	//
; 109  : 	// DESTROY COMPONENTS
; 110  : 	//
; 111  : 	////////////////////////////////////////
; 112  : 
; 113  : 	////////////////////////////////////////
; 114  : 	//
; 115  : 	// UNLINK FROM SYSTEM
; 116  : 	//
; 117  : 	////////////////////////////////////////
; 118  : 
; 119  : 	//
; 120  : 	// cargo
; 121  : 	//
; 122  : 
; 123  : 	unlink_local_entity_children (en, LIST_TYPE_TASK_DEPENDENT);

  00012	6a 27		 push	 39			; 00000027H
  00014	8b 45 08	 mov	 eax, DWORD PTR _en$[ebp]
  00017	50		 push	 eax
  00018	e8 00 00 00 00	 call	 ?unlink_local_entity_children@@YGXPAUENTITY@@W4LIST_TYPES@@@Z ; unlink_local_entity_children

; 124  : 
; 125  : 	delete_local_entity_from_parents_child_list (en, LIST_TYPE_CARGO);

  0001d	6a 06		 push	 6
  0001f	8b 45 08	 mov	 eax, DWORD PTR _en$[ebp]
  00022	50		 push	 eax
  00023	e8 00 00 00 00	 call	 ?delete_local_entity_from_parents_child_list@@YGXPAUENTITY@@W4LIST_TYPES@@@Z ; delete_local_entity_from_parents_child_list

; 126  : 
; 127  : 	delete_local_entity_from_parents_child_list (en, LIST_TYPE_MOVEMENT_DEPENDENT);

  00028	6a 1a		 push	 26			; 0000001aH
  0002a	8b 45 08	 mov	 eax, DWORD PTR _en$[ebp]
  0002d	50		 push	 eax
  0002e	e8 00 00 00 00	 call	 ?delete_local_entity_from_parents_child_list@@YGXPAUENTITY@@W4LIST_TYPES@@@Z ; delete_local_entity_from_parents_child_list

; 128  : 
; 129  : 	//
; 130  : 	// mobile
; 131  : 	//
; 132  : 
; 133  : 	unlink_local_entity_children (en, LIST_TYPE_SPECIAL_EFFECT);

  00033	6a 24		 push	 36			; 00000024H
  00035	8b 45 08	 mov	 eax, DWORD PTR _en$[ebp]
  00038	50		 push	 eax
  00039	e8 00 00 00 00	 call	 ?unlink_local_entity_children@@YGXPAUENTITY@@W4LIST_TYPES@@@Z ; unlink_local_entity_children

; 134  : 
; 135  : 	unlink_local_entity_children (en, LIST_TYPE_TARGET);

  0003e	6a 26		 push	 38			; 00000026H
  00040	8b 45 08	 mov	 eax, DWORD PTR _en$[ebp]
  00043	50		 push	 eax
  00044	e8 00 00 00 00	 call	 ?unlink_local_entity_children@@YGXPAUENTITY@@W4LIST_TYPES@@@Z ; unlink_local_entity_children

; 136  : 
; 137  : 	delete_local_entity_from_parents_child_list (en, LIST_TYPE_PADLOCK);

  00049	6a 1b		 push	 27			; 0000001bH
  0004b	8b 45 08	 mov	 eax, DWORD PTR _en$[ebp]
  0004e	50		 push	 eax
  0004f	e8 00 00 00 00	 call	 ?delete_local_entity_from_parents_child_list@@YGXPAUENTITY@@W4LIST_TYPES@@@Z ; delete_local_entity_from_parents_child_list

; 138  : 
; 139  : 	delete_local_entity_from_parents_child_list (en, LIST_TYPE_SECTOR);

  00054	6a 21		 push	 33			; 00000021H
  00056	8b 45 08	 mov	 eax, DWORD PTR _en$[ebp]
  00059	50		 push	 eax
  0005a	e8 00 00 00 00	 call	 ?delete_local_entity_from_parents_child_list@@YGXPAUENTITY@@W4LIST_TYPES@@@Z ; delete_local_entity_from_parents_child_list

; 140  : 
; 141  : 	delete_local_entity_from_parents_child_list (en, LIST_TYPE_UPDATE);

  0005f	6a 29		 push	 41			; 00000029H
  00061	8b 45 08	 mov	 eax, DWORD PTR _en$[ebp]
  00064	50		 push	 eax
  00065	e8 00 00 00 00	 call	 ?delete_local_entity_from_parents_child_list@@YGXPAUENTITY@@W4LIST_TYPES@@@Z ; delete_local_entity_from_parents_child_list

; 142  : 
; 143  : 	////////////////////////////////////////
; 144  : 	//
; 145  : 	// FREE ENTITY DATA
; 146  : 	//
; 147  : 	////////////////////////////////////////
; 148  : 
; 149  : 	free_mem (raw);

  0006a	8b 45 fc	 mov	 eax, DWORD PTR _raw$[ebp]
  0006d	50		 push	 eax
  0006e	e8 00 00 00 00	 call	 ?free_mem@@YGXPAX@Z	; free_mem

; 150  : 
; 151  : 	set_free_entity (en);

  00073	8b 45 08	 mov	 eax, DWORD PTR _en$[ebp]
  00076	50		 push	 eax
  00077	e8 00 00 00 00	 call	 ?set_free_entity@@YGXPAUENTITY@@@Z ; set_free_entity

; 152  : }

  0007c	5f		 pop	 edi
  0007d	5e		 pop	 esi
  0007e	5b		 pop	 ebx
  0007f	8b e5		 mov	 esp, ebp
  00081	5d		 pop	 ebp
  00082	c2 04 00	 ret	 4
?destroy_local@@YGXPAUENTITY@@@Z ENDP			; destroy_local
_TEXT	ENDS
; Function compile flags: /Odtp /ZI
; File c:\users\nhv90\projects\eech\aphavoc\source\entity\mobile\cargo\cg_dstry.c
;	COMDAT ?overload_cargo_destroy_functions@@YGXXZ
_TEXT	SEGMENT
?overload_cargo_destroy_functions@@YGXXZ PROC		; overload_cargo_destroy_functions, COMDAT

; 441  : {

  00000	55		 push	 ebp
  00001	8b ec		 mov	 ebp, esp
  00003	83 ec 40	 sub	 esp, 64			; 00000040H
  00006	53		 push	 ebx
  00007	56		 push	 esi
  00008	57		 push	 edi

; 442  : 	fn_destroy_local_entity						[ENTITY_TYPE_CARGO]		  					= destroy_local;

  00009	b8 04 00 00 00	 mov	 eax, 4
  0000e	c1 e0 02	 shl	 eax, 2
  00011	c7 80 00 00 00
	00 00 00 00 00	 mov	 DWORD PTR ?fn_destroy_local_entity@@3PAP6GXPAUENTITY@@@ZA[eax], OFFSET ?destroy_local@@YGXPAUENTITY@@@Z ; destroy_local

; 443  : 	fn_destroy_client_server_entity			[ENTITY_TYPE_CARGO][COMMS_MODEL_SERVER]	= destroy_server;

  0001b	b8 08 00 00 00	 mov	 eax, 8
  00020	c1 e0 02	 shl	 eax, 2
  00023	b9 04 00 00 00	 mov	 ecx, 4
  00028	6b d1 00	 imul	 edx, ecx, 0
  0002b	c7 84 10 00 00
	00 00 00 00 00
	00		 mov	 DWORD PTR ?fn_destroy_client_server_entity@@3PAY01P6GXPAUENTITY@@@ZA[eax+edx], OFFSET ?destroy_server@@YGXPAUENTITY@@@Z ; destroy_server

; 444  : 	fn_destroy_client_server_entity			[ENTITY_TYPE_CARGO][COMMS_MODEL_CLIENT]	= destroy_client;

  00036	b8 08 00 00 00	 mov	 eax, 8
  0003b	c1 e0 02	 shl	 eax, 2
  0003e	b9 04 00 00 00	 mov	 ecx, 4
  00043	c1 e1 00	 shl	 ecx, 0
  00046	c7 84 08 00 00
	00 00 00 00 00
	00		 mov	 DWORD PTR ?fn_destroy_client_server_entity@@3PAY01P6GXPAUENTITY@@@ZA[eax+ecx], OFFSET ?destroy_client@@YGXPAUENTITY@@@Z ; destroy_client

; 445  : 
; 446  : 	fn_destroy_local_entity_family			[ENTITY_TYPE_CARGO]		  	  			  	= destroy_local_family;

  00051	b8 04 00 00 00	 mov	 eax, 4
  00056	c1 e0 02	 shl	 eax, 2
  00059	c7 80 00 00 00
	00 00 00 00 00	 mov	 DWORD PTR ?fn_destroy_local_entity_family@@3PAP6GXPAUENTITY@@@ZA[eax], OFFSET ?destroy_local_family@@YGXPAUENTITY@@@Z ; destroy_local_family

; 447  : 	fn_destroy_client_server_entity_family	[ENTITY_TYPE_CARGO][COMMS_MODEL_SERVER]	= destroy_server_family;

  00063	b8 08 00 00 00	 mov	 eax, 8
  00068	c1 e0 02	 shl	 eax, 2
  0006b	b9 04 00 00 00	 mov	 ecx, 4
  00070	6b d1 00	 imul	 edx, ecx, 0
  00073	c7 84 10 00 00
	00 00 00 00 00
	00		 mov	 DWORD PTR ?fn_destroy_client_server_entity_family@@3PAY01P6GXPAUENTITY@@@ZA[eax+edx], OFFSET ?destroy_server_family@@YGXPAUENTITY@@@Z ; destroy_server_family

; 448  : 	fn_destroy_client_server_entity_family	[ENTITY_TYPE_CARGO][COMMS_MODEL_CLIENT]	= destroy_client_family;

  0007e	b8 08 00 00 00	 mov	 eax, 8
  00083	c1 e0 02	 shl	 eax, 2
  00086	b9 04 00 00 00	 mov	 ecx, 4
  0008b	c1 e1 00	 shl	 ecx, 0
  0008e	c7 84 08 00 00
	00 00 00 00 00
	00		 mov	 DWORD PTR ?fn_destroy_client_server_entity_family@@3PAY01P6GXPAUENTITY@@@ZA[eax+ecx], OFFSET ?destroy_client_family@@YGXPAUENTITY@@@Z ; destroy_client_family

; 449  : 
; 450  : 	fn_kill_local_entity							[ENTITY_TYPE_CARGO]		  	  			  	= kill_local;

  00099	b8 04 00 00 00	 mov	 eax, 4
  0009e	c1 e0 02	 shl	 eax, 2
  000a1	c7 80 00 00 00
	00 00 00 00 00	 mov	 DWORD PTR ?fn_kill_local_entity@@3PAP6GXPAUENTITY@@@ZA[eax], OFFSET ?kill_local@@YGXPAUENTITY@@@Z ; kill_local

; 451  : 	fn_kill_client_server_entity				[ENTITY_TYPE_CARGO][COMMS_MODEL_SERVER]	= kill_server;

  000ab	b8 08 00 00 00	 mov	 eax, 8
  000b0	c1 e0 02	 shl	 eax, 2
  000b3	b9 04 00 00 00	 mov	 ecx, 4
  000b8	6b d1 00	 imul	 edx, ecx, 0
  000bb	c7 84 10 00 00
	00 00 00 00 00
	00		 mov	 DWORD PTR ?fn_kill_client_server_entity@@3PAY01P6GXPAUENTITY@@@ZA[eax+edx], OFFSET ?kill_server@@YGXPAUENTITY@@@Z ; kill_server

; 452  : 	fn_kill_client_server_entity				[ENTITY_TYPE_CARGO][COMMS_MODEL_CLIENT]	= kill_client;

  000c6	b8 08 00 00 00	 mov	 eax, 8
  000cb	c1 e0 02	 shl	 eax, 2
  000ce	b9 04 00 00 00	 mov	 ecx, 4
  000d3	c1 e1 00	 shl	 ecx, 0
  000d6	c7 84 08 00 00
	00 00 00 00 00
	00		 mov	 DWORD PTR ?fn_kill_client_server_entity@@3PAY01P6GXPAUENTITY@@@ZA[eax+ecx], OFFSET ?kill_client@@YGXPAUENTITY@@@Z ; kill_client

; 453  : }

  000e1	5f		 pop	 edi
  000e2	5e		 pop	 esi
  000e3	5b		 pop	 ebx
  000e4	8b e5		 mov	 esp, ebp
  000e6	5d		 pop	 ebp
  000e7	c3		 ret	 0
?overload_cargo_destroy_functions@@YGXXZ ENDP		; overload_cargo_destroy_functions
_TEXT	ENDS
END
