; Listing generated by Microsoft (R) Optimizing Compiler Version 19.16.27045.0 

	TITLE	C:\Users\nhv90\Projects\eech\aphavoc\source\entity\mobile\cargo\cg_int.c
	.686P
	.XMM
	include listing.inc
	.model	flat

INCLUDELIB MSVCRTD
INCLUDELIB OLDNAMES

PUBLIC	?overload_cargo_int_value_functions@@YGXXZ	; overload_cargo_int_value_functions
PUBLIC	?__LINE__Var@?0??set_local_int_value@@YGXPAUENTITY@@W4INT_TYPES@@H@Z@4JA ; `set_local_int_value'::`1'::__LINE__Var
PUBLIC	??_C@_0EJ@NDCHCPOP@c?3?2users?2nhv90?2projects?2eech?2ap@ ; `string'
PUBLIC	?__LINE__Var@?0??set_server_int_value@@YGXPAUENTITY@@W4INT_TYPES@@H@Z@4JA ; `set_server_int_value'::`1'::__LINE__Var
PUBLIC	??_C@_0CB@CFOCLFOK@assert_client_server_local_fn?5?$CI@ ; `string'
PUBLIC	??_C@_0CC@BNNNEGEG@assert_client_server_remote_fn?5@ ; `string'
PUBLIC	?__LINE__Var@?0??set_client_int_value@@YGXPAUENTITY@@W4INT_TYPES@@H@Z@4JA ; `set_client_int_value'::`1'::__LINE__Var
PUBLIC	?__LINE__Var@?0??get_local_int_value@@YGHPAUENTITY@@W4INT_TYPES@@@Z@4JA ; `get_local_int_value'::`1'::__LINE__Var
EXTRN	?process_assert@@YGXPBD0H@Z:PROC		; process_assert
EXTRN	?debug_fatal@@YAXPBDZZ:PROC			; debug_fatal
EXTRN	?transmit_entity_comms_message@@YAXW4ENTITY_COMMS_MESSAGES@@PAUENTITY@@ZZ:PROC ; transmit_entity_comms_message
EXTRN	?assert_client_server_local_fn@@YGHXZ:PROC	; assert_client_server_local_fn
EXTRN	?assert_client_server_remote_fn@@YGHXZ:PROC	; assert_client_server_remote_fn
EXTRN	?null_entity_pointer_message@@3PBDB:DWORD	; null_entity_pointer_message
EXTRN	?entity_type_database@@3PAUENTITY_TYPE_DATA@@A:BYTE ; entity_type_database
EXTRN	?system_comms_data_flow@@3W4COMMS_DATA_FLOW_TYPES@@A:DWORD ; system_comms_data_flow
EXTRN	?int_type_database@@3PAUINT_TYPE_DATA@@A:BYTE	; int_type_database
EXTRN	?debug_fatal_invalid_int_type_message@@3PBDB:DWORD ; debug_fatal_invalid_int_type_message
EXTRN	?fn_set_local_entity_raw_int_value@@3PAY0BBH@P6GXPAUENTITY@@W4INT_TYPES@@H@ZA:BYTE ; fn_set_local_entity_raw_int_value
EXTRN	?fn_set_local_entity_int_value@@3PAY0BBH@P6GXPAUENTITY@@W4INT_TYPES@@H@ZA:BYTE ; fn_set_local_entity_int_value
EXTRN	?fn_set_client_server_entity_int_value@@3PAY1BBH@1P6GXPAUENTITY@@W4INT_TYPES@@H@ZA:BYTE ; fn_set_client_server_entity_int_value
EXTRN	?fn_get_local_entity_int_value@@3PAY0BBH@P6GHPAUENTITY@@W4INT_TYPES@@@ZA:BYTE ; fn_get_local_entity_int_value
EXTRN	?entities@@3PAUENTITY@@A:DWORD			; entities
;	COMDAT ?__LINE__Var@?0??get_local_int_value@@YGHPAUENTITY@@W4INT_TYPES@@@Z@4JA
_DATA	SEGMENT
?__LINE__Var@?0??get_local_int_value@@YGHPAUENTITY@@W4INT_TYPES@@@Z@4JA DD 0a0H ; `get_local_int_value'::`1'::__LINE__Var
_DATA	ENDS
;	COMDAT ?__LINE__Var@?0??set_client_int_value@@YGXPAUENTITY@@W4INT_TYPES@@H@Z@4JA
_DATA	SEGMENT
?__LINE__Var@?0??set_client_int_value@@YGXPAUENTITY@@W4INT_TYPES@@H@Z@4JA DD 08cH ; `set_client_int_value'::`1'::__LINE__Var
_DATA	ENDS
;	COMDAT ??_C@_0CC@BNNNEGEG@assert_client_server_remote_fn?5@
CONST	SEGMENT
??_C@_0CC@BNNNEGEG@assert_client_server_remote_fn?5@ DB 'assert_client_se'
	DB	'rver_remote_fn ()', 00H			; `string'
CONST	ENDS
;	COMDAT ??_C@_0CB@CFOCLFOK@assert_client_server_local_fn?5?$CI@
CONST	SEGMENT
??_C@_0CB@CFOCLFOK@assert_client_server_local_fn?5?$CI@ DB 'assert_client'
	DB	'_server_local_fn ()', 00H			; `string'
CONST	ENDS
;	COMDAT ?__LINE__Var@?0??set_server_int_value@@YGXPAUENTITY@@W4INT_TYPES@@H@Z@4JA
_DATA	SEGMENT
?__LINE__Var@?0??set_server_int_value@@YGXPAUENTITY@@W4INT_TYPES@@H@Z@4JA DD 07dH ; `set_server_int_value'::`1'::__LINE__Var
_DATA	ENDS
;	COMDAT ??_C@_0EJ@NDCHCPOP@c?3?2users?2nhv90?2projects?2eech?2ap@
CONST	SEGMENT
??_C@_0EJ@NDCHCPOP@c?3?2users?2nhv90?2projects?2eech?2ap@ DB 'c:\users\nh'
	DB	'v90\projects\eech\aphavoc\source\entity\mobile\cargo\cg_int.c'
	DB	00H						; `string'
CONST	ENDS
;	COMDAT ?__LINE__Var@?0??set_local_int_value@@YGXPAUENTITY@@W4INT_TYPES@@H@Z@4JA
_DATA	SEGMENT
?__LINE__Var@?0??set_local_int_value@@YGXPAUENTITY@@W4INT_TYPES@@H@Z@4JA DD 050H ; `set_local_int_value'::`1'::__LINE__Var
_DATA	ENDS
; Function compile flags: /Odtp /ZI
; File c:\users\nhv90\projects\eech\aphavoc\source\entity\mobile\cargo\cg_int.c
;	COMDAT ?get_local_int_value@@YGHPAUENTITY@@W4INT_TYPES@@@Z
_TEXT	SEGMENT
tv82 = -76						; size = 4
tv65 = -76						; size = 4
_value$ = -8						; size = 4
_raw$ = -4						; size = 4
_en$ = 8						; size = 4
_type$ = 12						; size = 4
?get_local_int_value@@YGHPAUENTITY@@W4INT_TYPES@@@Z PROC ; get_local_int_value, COMDAT

; 160  : {

  00000	55		 push	 ebp
  00001	8b ec		 mov	 ebp, esp
  00003	83 ec 4c	 sub	 esp, 76			; 0000004cH
  00006	53		 push	 ebx
  00007	56		 push	 esi
  00008	57		 push	 edi

; 161  : 	cargo
; 162  : 		*raw;
; 163  : 
; 164  : 	int
; 165  : 		value;
; 166  : 
; 167  : 	raw = (cargo *) get_local_entity_data (en);

  00009	8b 45 08	 mov	 eax, DWORD PTR _en$[ebp]
  0000c	8b 48 04	 mov	 ecx, DWORD PTR [eax+4]
  0000f	89 4d fc	 mov	 DWORD PTR _raw$[ebp], ecx

; 168  : 
; 169  : 	switch (type)

  00012	8b 45 0c	 mov	 eax, DWORD PTR _type$[ebp]
  00015	89 45 b4	 mov	 DWORD PTR tv65[ebp], eax
  00018	83 7d b4 59	 cmp	 DWORD PTR tv65[ebp], 89	; 00000059H
  0001c	74 0b		 je	 SHORT $LN4@get_local_
  0001e	81 7d b4 e6 00
	00 00		 cmp	 DWORD PTR tv65[ebp], 230 ; 000000e6H
  00025	74 0b		 je	 SHORT $LN5@get_local_
  00027	eb 12		 jmp	 SHORT $LN6@get_local_
$LN4@get_local_:

; 170  : 	{
; 171  : 		////////////////////////////////////////
; 172  : 		case INT_TYPE_IDENTIFY_CARGO:
; 173  : 		////////////////////////////////////////
; 174  : 		{
; 175  : 			value = 1;

  00029	c7 45 f8 01 00
	00 00		 mov	 DWORD PTR _value$[ebp], 1

; 176  : 
; 177  : 			break;

  00030	eb 7b		 jmp	 SHORT $LN2@get_local_
$LN5@get_local_:

; 178  : 		}
; 179  : 		////////////////////////////////////////
; 180  : 		case INT_TYPE_TASK_TARGET_TYPE:
; 181  : 		////////////////////////////////////////
; 182  : 		{
; 183  : 			value = (TASK_TARGET_TYPE_ANY | TASK_TARGET_TYPE_MOBILE | TASK_TARGET_TYPE_CARGO);

  00032	c7 45 f8 24 08
	00 00		 mov	 DWORD PTR _value$[ebp], 2084 ; 00000824H

; 184  : 
; 185  : 			break;

  00039	eb 72		 jmp	 SHORT $LN2@get_local_
$LN6@get_local_:

; 186  : 		}
; 187  : 		////////////////////////////////////////
; 188  : 		default:
; 189  : 		////////////////////////////////////////
; 190  : 		{
; 191  : 			debug_fatal_invalid_int_type (en, type);

  0003b	83 7d 08 00	 cmp	 DWORD PTR _en$[ebp], 0
  0003f	74 0a		 je	 SHORT $LN8@get_local_
  00041	8b 45 08	 mov	 eax, DWORD PTR _en$[ebp]
  00044	8b 08		 mov	 ecx, DWORD PTR [eax]
  00046	89 4d b4	 mov	 DWORD PTR tv82[ebp], ecx
  00049	eb 21		 jmp	 SHORT $LN9@get_local_
$LN8@get_local_:
  0004b	8b 15 00 00 00
	00		 mov	 edx, DWORD PTR ?__LINE__Var@?0??get_local_int_value@@YGHPAUENTITY@@W4INT_TYPES@@@Z@4JA
  00051	83 c2 1f	 add	 edx, 31			; 0000001fH
  00054	52		 push	 edx
  00055	68 00 00 00 00	 push	 OFFSET ??_C@_0EJ@NDCHCPOP@c?3?2users?2nhv90?2projects?2eech?2ap@
  0005a	a1 00 00 00 00	 mov	 eax, DWORD PTR ?null_entity_pointer_message@@3PBDB ; null_entity_pointer_message
  0005f	50		 push	 eax
  00060	e8 00 00 00 00	 call	 ?process_assert@@YGXPBD0H@Z ; process_assert
  00065	c7 45 b4 00 00
	00 00		 mov	 DWORD PTR tv82[ebp], 0
$LN9@get_local_:
  0006c	8b 0d 00 00 00
	00		 mov	 ecx, DWORD PTR ?__LINE__Var@?0??get_local_int_value@@YGHPAUENTITY@@W4INT_TYPES@@@Z@4JA
  00072	83 c1 1f	 add	 ecx, 31			; 0000001fH
  00075	51		 push	 ecx
  00076	68 00 00 00 00	 push	 OFFSET ??_C@_0EJ@NDCHCPOP@c?3?2users?2nhv90?2projects?2eech?2ap@
  0007b	6b 55 0c 14	 imul	 edx, DWORD PTR _type$[ebp], 20
  0007f	8b 82 00 00 00
	00		 mov	 eax, DWORD PTR ?int_type_database@@3PAUINT_TYPE_DATA@@A[edx]
  00085	50		 push	 eax
  00086	8b 4d 08	 mov	 ecx, DWORD PTR _en$[ebp]
  00089	2b 0d 00 00 00
	00		 sub	 ecx, DWORD PTR ?entities@@3PAUENTITY@@A ; entities
  0008f	c1 f9 04	 sar	 ecx, 4
  00092	51		 push	 ecx
  00093	6b 55 b4 0c	 imul	 edx, DWORD PTR tv82[ebp], 12
  00097	8b 82 00 00 00
	00		 mov	 eax, DWORD PTR ?entity_type_database@@3PAUENTITY_TYPE_DATA@@A[edx]
  0009d	50		 push	 eax
  0009e	8b 0d 00 00 00
	00		 mov	 ecx, DWORD PTR ?debug_fatal_invalid_int_type_message@@3PBDB ; debug_fatal_invalid_int_type_message
  000a4	51		 push	 ecx
  000a5	e8 00 00 00 00	 call	 ?debug_fatal@@YAXPBDZZ	; debug_fatal
  000aa	83 c4 18	 add	 esp, 24			; 00000018H
$LN2@get_local_:

; 192  : 
; 193  : 			break;
; 194  : 		}
; 195  : 	}
; 196  : 
; 197  : 	return (value);

  000ad	8b 45 f8	 mov	 eax, DWORD PTR _value$[ebp]

; 198  : }

  000b0	5f		 pop	 edi
  000b1	5e		 pop	 esi
  000b2	5b		 pop	 ebx
  000b3	8b e5		 mov	 esp, ebp
  000b5	5d		 pop	 ebp
  000b6	c2 08 00	 ret	 8
?get_local_int_value@@YGHPAUENTITY@@W4INT_TYPES@@@Z ENDP ; get_local_int_value
_TEXT	ENDS
; Function compile flags: /Odtp /ZI
; File c:\users\nhv90\projects\eech\aphavoc\source\entity\mobile\cargo\cg_int.c
;	COMDAT ?set_client_int_value@@YGXPAUENTITY@@W4INT_TYPES@@H@Z
_TEXT	SEGMENT
_en$ = 8						; size = 4
_type$ = 12						; size = 4
_value$ = 16						; size = 4
?set_client_int_value@@YGXPAUENTITY@@W4INT_TYPES@@H@Z PROC ; set_client_int_value, COMDAT

; 140  : {

  00000	55		 push	 ebp
  00001	8b ec		 mov	 ebp, esp
  00003	83 ec 40	 sub	 esp, 64			; 00000040H
  00006	53		 push	 ebx
  00007	56		 push	 esi
  00008	57		 push	 edi

; 141  : 	if (get_comms_data_flow () == COMMS_DATA_FLOW_TX)

  00009	83 3d 00 00 00
	00 00		 cmp	 DWORD PTR ?system_comms_data_flow@@3W4COMMS_DATA_FLOW_TYPES@@A, 0 ; system_comms_data_flow
  00010	75 34		 jne	 SHORT $LN2@set_client

; 142  : 	{
; 143  : 		validate_client_server_remote_fn ();

  00012	e8 00 00 00 00	 call	 ?assert_client_server_remote_fn@@YGHXZ ; assert_client_server_remote_fn
  00017	85 c0		 test	 eax, eax
  00019	75 18		 jne	 SHORT $LN4@set_client
  0001b	a1 00 00 00 00	 mov	 eax, DWORD PTR ?__LINE__Var@?0??set_client_int_value@@YGXPAUENTITY@@W4INT_TYPES@@H@Z@4JA
  00020	83 c0 03	 add	 eax, 3
  00023	50		 push	 eax
  00024	68 00 00 00 00	 push	 OFFSET ??_C@_0EJ@NDCHCPOP@c?3?2users?2nhv90?2projects?2eech?2ap@
  00029	68 00 00 00 00	 push	 OFFSET ??_C@_0CC@BNNNEGEG@assert_client_server_remote_fn?5@
  0002e	e8 00 00 00 00	 call	 ?process_assert@@YGXPBD0H@Z ; process_assert
$LN4@set_client:

; 144  : 
; 145  : 		set_remote_int_value (en, type, value);

  00033	8b 45 10	 mov	 eax, DWORD PTR _value$[ebp]
  00036	50		 push	 eax
  00037	8b 4d 0c	 mov	 ecx, DWORD PTR _type$[ebp]
  0003a	51		 push	 ecx
  0003b	8b 55 08	 mov	 edx, DWORD PTR _en$[ebp]
  0003e	52		 push	 edx
  0003f	e8 00 00 00 00	 call	 ?set_remote_int_value@@YGXPAUENTITY@@W4INT_TYPES@@H@Z ; set_remote_int_value

; 146  : 	}
; 147  : 	else

  00044	eb 32		 jmp	 SHORT $LN1@set_client
$LN2@set_client:

; 148  : 	{
; 149  : 		validate_client_server_local_fn ();

  00046	e8 00 00 00 00	 call	 ?assert_client_server_local_fn@@YGHXZ ; assert_client_server_local_fn
  0004b	85 c0		 test	 eax, eax
  0004d	75 18		 jne	 SHORT $LN5@set_client
  0004f	a1 00 00 00 00	 mov	 eax, DWORD PTR ?__LINE__Var@?0??set_client_int_value@@YGXPAUENTITY@@W4INT_TYPES@@H@Z@4JA
  00054	83 c0 09	 add	 eax, 9
  00057	50		 push	 eax
  00058	68 00 00 00 00	 push	 OFFSET ??_C@_0EJ@NDCHCPOP@c?3?2users?2nhv90?2projects?2eech?2ap@
  0005d	68 00 00 00 00	 push	 OFFSET ??_C@_0CB@CFOCLFOK@assert_client_server_local_fn?5?$CI@
  00062	e8 00 00 00 00	 call	 ?process_assert@@YGXPBD0H@Z ; process_assert
$LN5@set_client:

; 150  : 
; 151  : 		set_local_int_value (en, type, value);

  00067	8b 45 10	 mov	 eax, DWORD PTR _value$[ebp]
  0006a	50		 push	 eax
  0006b	8b 4d 0c	 mov	 ecx, DWORD PTR _type$[ebp]
  0006e	51		 push	 ecx
  0006f	8b 55 08	 mov	 edx, DWORD PTR _en$[ebp]
  00072	52		 push	 edx
  00073	e8 00 00 00 00	 call	 ?set_local_int_value@@YGXPAUENTITY@@W4INT_TYPES@@H@Z ; set_local_int_value
$LN1@set_client:

; 152  : 	}
; 153  : }

  00078	5f		 pop	 edi
  00079	5e		 pop	 esi
  0007a	5b		 pop	 ebx
  0007b	8b e5		 mov	 esp, ebp
  0007d	5d		 pop	 ebp
  0007e	c2 0c 00	 ret	 12			; 0000000cH
?set_client_int_value@@YGXPAUENTITY@@W4INT_TYPES@@H@Z ENDP ; set_client_int_value
_TEXT	ENDS
; Function compile flags: /Odtp /ZI
; File c:\users\nhv90\projects\eech\aphavoc\source\entity\mobile\cargo\cg_int.c
;	COMDAT ?set_server_int_value@@YGXPAUENTITY@@W4INT_TYPES@@H@Z
_TEXT	SEGMENT
_en$ = 8						; size = 4
_type$ = 12						; size = 4
_value$ = 16						; size = 4
?set_server_int_value@@YGXPAUENTITY@@W4INT_TYPES@@H@Z PROC ; set_server_int_value, COMDAT

; 125  : {

  00000	55		 push	 ebp
  00001	8b ec		 mov	 ebp, esp
  00003	83 ec 40	 sub	 esp, 64			; 00000040H
  00006	53		 push	 ebx
  00007	56		 push	 esi
  00008	57		 push	 edi

; 126  : 	validate_client_server_local_fn ();

  00009	e8 00 00 00 00	 call	 ?assert_client_server_local_fn@@YGHXZ ; assert_client_server_local_fn
  0000e	85 c0		 test	 eax, eax
  00010	75 18		 jne	 SHORT $LN2@set_server
  00012	a1 00 00 00 00	 mov	 eax, DWORD PTR ?__LINE__Var@?0??set_server_int_value@@YGXPAUENTITY@@W4INT_TYPES@@H@Z@4JA
  00017	83 c0 01	 add	 eax, 1
  0001a	50		 push	 eax
  0001b	68 00 00 00 00	 push	 OFFSET ??_C@_0EJ@NDCHCPOP@c?3?2users?2nhv90?2projects?2eech?2ap@
  00020	68 00 00 00 00	 push	 OFFSET ??_C@_0CB@CFOCLFOK@assert_client_server_local_fn?5?$CI@
  00025	e8 00 00 00 00	 call	 ?process_assert@@YGXPBD0H@Z ; process_assert
$LN2@set_server:

; 127  : 
; 128  : 	set_local_int_value (en, type, value);

  0002a	8b 45 10	 mov	 eax, DWORD PTR _value$[ebp]
  0002d	50		 push	 eax
  0002e	8b 4d 0c	 mov	 ecx, DWORD PTR _type$[ebp]
  00031	51		 push	 ecx
  00032	8b 55 08	 mov	 edx, DWORD PTR _en$[ebp]
  00035	52		 push	 edx
  00036	e8 00 00 00 00	 call	 ?set_local_int_value@@YGXPAUENTITY@@W4INT_TYPES@@H@Z ; set_local_int_value

; 129  : 
; 130  : 	validate_client_server_remote_fn ();

  0003b	e8 00 00 00 00	 call	 ?assert_client_server_remote_fn@@YGHXZ ; assert_client_server_remote_fn
  00040	85 c0		 test	 eax, eax
  00042	75 18		 jne	 SHORT $LN3@set_server
  00044	a1 00 00 00 00	 mov	 eax, DWORD PTR ?__LINE__Var@?0??set_server_int_value@@YGXPAUENTITY@@W4INT_TYPES@@H@Z@4JA
  00049	83 c0 05	 add	 eax, 5
  0004c	50		 push	 eax
  0004d	68 00 00 00 00	 push	 OFFSET ??_C@_0EJ@NDCHCPOP@c?3?2users?2nhv90?2projects?2eech?2ap@
  00052	68 00 00 00 00	 push	 OFFSET ??_C@_0CC@BNNNEGEG@assert_client_server_remote_fn?5@
  00057	e8 00 00 00 00	 call	 ?process_assert@@YGXPBD0H@Z ; process_assert
$LN3@set_server:

; 131  : 
; 132  : 	set_remote_int_value (en, type, value);

  0005c	8b 45 10	 mov	 eax, DWORD PTR _value$[ebp]
  0005f	50		 push	 eax
  00060	8b 4d 0c	 mov	 ecx, DWORD PTR _type$[ebp]
  00063	51		 push	 ecx
  00064	8b 55 08	 mov	 edx, DWORD PTR _en$[ebp]
  00067	52		 push	 edx
  00068	e8 00 00 00 00	 call	 ?set_remote_int_value@@YGXPAUENTITY@@W4INT_TYPES@@H@Z ; set_remote_int_value

; 133  : }

  0006d	5f		 pop	 edi
  0006e	5e		 pop	 esi
  0006f	5b		 pop	 ebx
  00070	8b e5		 mov	 esp, ebp
  00072	5d		 pop	 ebp
  00073	c2 0c 00	 ret	 12			; 0000000cH
?set_server_int_value@@YGXPAUENTITY@@W4INT_TYPES@@H@Z ENDP ; set_server_int_value
_TEXT	ENDS
; Function compile flags: /Odtp /ZI
; File c:\users\nhv90\projects\eech\aphavoc\source\entity\mobile\cargo\cg_int.c
;	COMDAT ?set_remote_int_value@@YGXPAUENTITY@@W4INT_TYPES@@H@Z
_TEXT	SEGMENT
_en$ = 8						; size = 4
_type$ = 12						; size = 4
_value$ = 16						; size = 4
?set_remote_int_value@@YGXPAUENTITY@@W4INT_TYPES@@H@Z PROC ; set_remote_int_value, COMDAT

; 110  : {

  00000	55		 push	 ebp
  00001	8b ec		 mov	 ebp, esp
  00003	83 ec 40	 sub	 esp, 64			; 00000040H
  00006	53		 push	 ebx
  00007	56		 push	 esi
  00008	57		 push	 edi

; 111  : 	#if DEBUG_MODULE
; 112  : 
; 113  : 	debug_log_entity_args (ENTITY_DEBUG_REMOTE, ENTITY_DEBUG_INT_VALUE, en, type, value);
; 114  : 
; 115  : 	#endif
; 116  : 
; 117  : 	transmit_entity_comms_message (ENTITY_COMMS_INT_VALUE, en, type, value);

  00009	8b 45 10	 mov	 eax, DWORD PTR _value$[ebp]
  0000c	50		 push	 eax
  0000d	8b 4d 0c	 mov	 ecx, DWORD PTR _type$[ebp]
  00010	51		 push	 ecx
  00011	8b 55 08	 mov	 edx, DWORD PTR _en$[ebp]
  00014	52		 push	 edx
  00015	6a 17		 push	 23			; 00000017H
  00017	e8 00 00 00 00	 call	 ?transmit_entity_comms_message@@YAXW4ENTITY_COMMS_MESSAGES@@PAUENTITY@@ZZ ; transmit_entity_comms_message
  0001c	83 c4 10	 add	 esp, 16			; 00000010H

; 118  : }

  0001f	5f		 pop	 edi
  00020	5e		 pop	 esi
  00021	5b		 pop	 ebx
  00022	8b e5		 mov	 esp, ebp
  00024	5d		 pop	 ebp
  00025	c2 0c 00	 ret	 12			; 0000000cH
?set_remote_int_value@@YGXPAUENTITY@@W4INT_TYPES@@H@Z ENDP ; set_remote_int_value
_TEXT	ENDS
; Function compile flags: /Odtp /ZI
; File c:\users\nhv90\projects\eech\aphavoc\source\entity\mobile\cargo\cg_int.c
;	COMDAT ?set_local_int_value@@YGXPAUENTITY@@W4INT_TYPES@@H@Z
_TEXT	SEGMENT
tv82 = -72						; size = 4
tv65 = -72						; size = 4
_raw$ = -4						; size = 4
_en$ = 8						; size = 4
_type$ = 12						; size = 4
_value$ = 16						; size = 4
?set_local_int_value@@YGXPAUENTITY@@W4INT_TYPES@@H@Z PROC ; set_local_int_value, COMDAT

; 80   : {

  00000	55		 push	 ebp
  00001	8b ec		 mov	 ebp, esp
  00003	83 ec 48	 sub	 esp, 72			; 00000048H
  00006	53		 push	 ebx
  00007	56		 push	 esi
  00008	57		 push	 edi

; 81   : 	cargo
; 82   : 		*raw;
; 83   : 
; 84   : 	#if DEBUG_MODULE
; 85   : 
; 86   : 	debug_log_entity_args (ENTITY_DEBUG_LOCAL, ENTITY_DEBUG_INT_VALUE, en, type, value);
; 87   : 
; 88   : 	#endif
; 89   : 
; 90   : 	raw = (cargo *) get_local_entity_data (en);

  00009	8b 45 08	 mov	 eax, DWORD PTR _en$[ebp]
  0000c	8b 48 04	 mov	 ecx, DWORD PTR [eax+4]
  0000f	89 4d fc	 mov	 DWORD PTR _raw$[ebp], ecx

; 91   : 
; 92   : 	switch (type)

  00012	8b 45 0c	 mov	 eax, DWORD PTR _type$[ebp]
  00015	89 45 b8	 mov	 DWORD PTR tv65[ebp], eax

; 93   : 	{
; 94   : 		////////////////////////////////////////
; 95   : 		default:
; 96   : 		////////////////////////////////////////
; 97   : 		{
; 98   : 			debug_fatal_invalid_int_type (en, type);

  00018	83 7d 08 00	 cmp	 DWORD PTR _en$[ebp], 0
  0001c	74 0a		 je	 SHORT $LN6@set_local_
  0001e	8b 45 08	 mov	 eax, DWORD PTR _en$[ebp]
  00021	8b 08		 mov	 ecx, DWORD PTR [eax]
  00023	89 4d b8	 mov	 DWORD PTR tv82[ebp], ecx
  00026	eb 21		 jmp	 SHORT $LN7@set_local_
$LN6@set_local_:
  00028	8b 15 00 00 00
	00		 mov	 edx, DWORD PTR ?__LINE__Var@?0??set_local_int_value@@YGXPAUENTITY@@W4INT_TYPES@@H@Z@4JA
  0002e	83 c2 12	 add	 edx, 18			; 00000012H
  00031	52		 push	 edx
  00032	68 00 00 00 00	 push	 OFFSET ??_C@_0EJ@NDCHCPOP@c?3?2users?2nhv90?2projects?2eech?2ap@
  00037	a1 00 00 00 00	 mov	 eax, DWORD PTR ?null_entity_pointer_message@@3PBDB ; null_entity_pointer_message
  0003c	50		 push	 eax
  0003d	e8 00 00 00 00	 call	 ?process_assert@@YGXPBD0H@Z ; process_assert
  00042	c7 45 b8 00 00
	00 00		 mov	 DWORD PTR tv82[ebp], 0
$LN7@set_local_:
  00049	8b 0d 00 00 00
	00		 mov	 ecx, DWORD PTR ?__LINE__Var@?0??set_local_int_value@@YGXPAUENTITY@@W4INT_TYPES@@H@Z@4JA
  0004f	83 c1 12	 add	 ecx, 18			; 00000012H
  00052	51		 push	 ecx
  00053	68 00 00 00 00	 push	 OFFSET ??_C@_0EJ@NDCHCPOP@c?3?2users?2nhv90?2projects?2eech?2ap@
  00058	6b 55 0c 14	 imul	 edx, DWORD PTR _type$[ebp], 20
  0005c	8b 82 00 00 00
	00		 mov	 eax, DWORD PTR ?int_type_database@@3PAUINT_TYPE_DATA@@A[edx]
  00062	50		 push	 eax
  00063	8b 4d 08	 mov	 ecx, DWORD PTR _en$[ebp]
  00066	2b 0d 00 00 00
	00		 sub	 ecx, DWORD PTR ?entities@@3PAUENTITY@@A ; entities
  0006c	c1 f9 04	 sar	 ecx, 4
  0006f	51		 push	 ecx
  00070	6b 55 b8 0c	 imul	 edx, DWORD PTR tv82[ebp], 12
  00074	8b 82 00 00 00
	00		 mov	 eax, DWORD PTR ?entity_type_database@@3PAUENTITY_TYPE_DATA@@A[edx]
  0007a	50		 push	 eax
  0007b	8b 0d 00 00 00
	00		 mov	 ecx, DWORD PTR ?debug_fatal_invalid_int_type_message@@3PBDB ; debug_fatal_invalid_int_type_message
  00081	51		 push	 ecx
  00082	e8 00 00 00 00	 call	 ?debug_fatal@@YAXPBDZZ	; debug_fatal
  00087	83 c4 18	 add	 esp, 24			; 00000018H

; 99   : 
; 100  : 			break;
; 101  : 		}
; 102  : 	}
; 103  : }

  0008a	5f		 pop	 edi
  0008b	5e		 pop	 esi
  0008c	5b		 pop	 ebx
  0008d	8b e5		 mov	 esp, ebp
  0008f	5d		 pop	 ebp
  00090	c2 0c 00	 ret	 12			; 0000000cH
?set_local_int_value@@YGXPAUENTITY@@W4INT_TYPES@@H@Z ENDP ; set_local_int_value
_TEXT	ENDS
; Function compile flags: /Odtp /ZI
; File c:\users\nhv90\projects\eech\aphavoc\source\entity\mobile\cargo\cg_int.c
;	COMDAT ?overload_cargo_int_value_functions@@YGXXZ
_TEXT	SEGMENT
?overload_cargo_int_value_functions@@YGXXZ PROC		; overload_cargo_int_value_functions, COMDAT

; 205  : {

  00000	55		 push	 ebp
  00001	8b ec		 mov	 ebp, esp
  00003	83 ec 40	 sub	 esp, 64			; 00000040H
  00006	53		 push	 ebx
  00007	56		 push	 esi
  00008	57		 push	 edi

; 206  : 
; 207  : 	fn_set_local_entity_raw_int_value  		[ENTITY_TYPE_CARGO][INT_TYPE_IDENTIFY_CARGO]												= set_local_int_value;

  00009	b8 5c 04 00 00	 mov	 eax, 1116		; 0000045cH
  0000e	c1 e0 02	 shl	 eax, 2
  00011	b9 04 00 00 00	 mov	 ecx, 4
  00016	6b d1 59	 imul	 edx, ecx, 89
  00019	c7 84 10 00 00
	00 00 00 00 00
	00		 mov	 DWORD PTR ?fn_set_local_entity_raw_int_value@@3PAY0BBH@P6GXPAUENTITY@@W4INT_TYPES@@H@ZA[eax+edx], OFFSET ?set_local_int_value@@YGXPAUENTITY@@W4INT_TYPES@@H@Z ; set_local_int_value

; 208  : 	fn_set_local_entity_int_value				[ENTITY_TYPE_CARGO][INT_TYPE_IDENTIFY_CARGO]												= set_local_int_value;

  00024	b8 5c 04 00 00	 mov	 eax, 1116		; 0000045cH
  00029	c1 e0 02	 shl	 eax, 2
  0002c	b9 04 00 00 00	 mov	 ecx, 4
  00031	6b d1 59	 imul	 edx, ecx, 89
  00034	c7 84 10 00 00
	00 00 00 00 00
	00		 mov	 DWORD PTR ?fn_set_local_entity_int_value@@3PAY0BBH@P6GXPAUENTITY@@W4INT_TYPES@@H@ZA[eax+edx], OFFSET ?set_local_int_value@@YGXPAUENTITY@@W4INT_TYPES@@H@Z ; set_local_int_value

; 209  : 	fn_set_client_server_entity_int_value	[ENTITY_TYPE_CARGO][INT_TYPE_IDENTIFY_CARGO][COMMS_MODEL_SERVER]					= set_server_int_value;

  0003f	b8 b8 08 00 00	 mov	 eax, 2232		; 000008b8H
  00044	c1 e0 02	 shl	 eax, 2
  00047	b9 08 00 00 00	 mov	 ecx, 8
  0004c	6b d1 59	 imul	 edx, ecx, 89
  0004f	8d 84 10 00 00
	00 00		 lea	 eax, DWORD PTR ?fn_set_client_server_entity_int_value@@3PAY1BBH@1P6GXPAUENTITY@@W4INT_TYPES@@H@ZA[eax+edx]
  00056	b9 04 00 00 00	 mov	 ecx, 4
  0005b	6b d1 00	 imul	 edx, ecx, 0
  0005e	c7 04 10 00 00
	00 00		 mov	 DWORD PTR [eax+edx], OFFSET ?set_server_int_value@@YGXPAUENTITY@@W4INT_TYPES@@H@Z ; set_server_int_value

; 210  : 	fn_set_client_server_entity_int_value	[ENTITY_TYPE_CARGO][INT_TYPE_IDENTIFY_CARGO][COMMS_MODEL_CLIENT]					= set_client_int_value;

  00065	b8 b8 08 00 00	 mov	 eax, 2232		; 000008b8H
  0006a	c1 e0 02	 shl	 eax, 2
  0006d	b9 08 00 00 00	 mov	 ecx, 8
  00072	6b d1 59	 imul	 edx, ecx, 89
  00075	8d 84 10 00 00
	00 00		 lea	 eax, DWORD PTR ?fn_set_client_server_entity_int_value@@3PAY1BBH@1P6GXPAUENTITY@@W4INT_TYPES@@H@ZA[eax+edx]
  0007c	b9 04 00 00 00	 mov	 ecx, 4
  00081	c1 e1 00	 shl	 ecx, 0
  00084	c7 04 08 00 00
	00 00		 mov	 DWORD PTR [eax+ecx], OFFSET ?set_client_int_value@@YGXPAUENTITY@@W4INT_TYPES@@H@Z ; set_client_int_value

; 211  : 	fn_get_local_entity_int_value				[ENTITY_TYPE_CARGO][INT_TYPE_IDENTIFY_CARGO]												= get_local_int_value;

  0008b	b8 5c 04 00 00	 mov	 eax, 1116		; 0000045cH
  00090	c1 e0 02	 shl	 eax, 2
  00093	b9 04 00 00 00	 mov	 ecx, 4
  00098	6b d1 59	 imul	 edx, ecx, 89
  0009b	c7 84 10 00 00
	00 00 00 00 00
	00		 mov	 DWORD PTR ?fn_get_local_entity_int_value@@3PAY0BBH@P6GHPAUENTITY@@W4INT_TYPES@@@ZA[eax+edx], OFFSET ?get_local_int_value@@YGHPAUENTITY@@W4INT_TYPES@@@Z ; get_local_int_value

; 212  : 
; 213  : 	fn_get_local_entity_int_value				[ENTITY_TYPE_CARGO][INT_TYPE_TASK_TARGET_TYPE]												= get_local_int_value;

  000a6	b8 5c 04 00 00	 mov	 eax, 1116		; 0000045cH
  000ab	c1 e0 02	 shl	 eax, 2
  000ae	b9 04 00 00 00	 mov	 ecx, 4
  000b3	69 d1 e6 00 00
	00		 imul	 edx, ecx, 230
  000b9	c7 84 10 00 00
	00 00 00 00 00
	00		 mov	 DWORD PTR ?fn_get_local_entity_int_value@@3PAY0BBH@P6GHPAUENTITY@@W4INT_TYPES@@@ZA[eax+edx], OFFSET ?get_local_int_value@@YGHPAUENTITY@@W4INT_TYPES@@@Z ; get_local_int_value

; 214  : }

  000c4	5f		 pop	 edi
  000c5	5e		 pop	 esi
  000c6	5b		 pop	 ebx
  000c7	8b e5		 mov	 esp, ebp
  000c9	5d		 pop	 ebp
  000ca	c3		 ret	 0
?overload_cargo_int_value_functions@@YGXXZ ENDP		; overload_cargo_int_value_functions
_TEXT	ENDS
END
