; Listing generated by Microsoft (R) Optimizing Compiler Version 19.16.27045.0 

	TITLE	C:\Users\nhv90\Projects\eech\aphavoc\source\entity\mobile\cargo\cg_pack.c
	.686P
	.XMM
	include listing.inc
	.model	flat

INCLUDELIB MSVCRTD
INCLUDELIB OLDNAMES

PUBLIC	?overload_cargo_pack_functions@@YGXXZ		; overload_cargo_pack_functions
PUBLIC	?__LINE__Var@?0??pack_local_data@@YGXPAUENTITY@@W4PACK_MODES@@@Z@4JA ; `pack_local_data'::`1'::__LINE__Var
PUBLIC	??_C@_0EK@HLOOHGGE@c?3?2users?2nhv90?2projects?2eech?2ap@ ; `string'
PUBLIC	??_C@_0CH@MMFDPOBJ@?$CImode?5?$DO?$DN?50?$CJ?5?$CG?$CG?5?$CImode?5?$DM?5NUM_PACK@ ; `string'
PUBLIC	?__LINE__Var@?0??unpack_local_data@@YGXPAUENTITY@@W4ENTITY_TYPES@@W4PACK_MODES@@@Z@4JA ; `unpack_local_data'::`1'::__LINE__Var
EXTRN	_memset:PROC
EXTRN	?process_assert@@YGXPBD0H@Z:PROC		; process_assert
EXTRN	?malloc_fast_memory@@YGPAXI@Z:PROC		; malloc_fast_memory
EXTRN	?pack_entity_type@@YGXW4ENTITY_TYPES@@@Z:PROC	; pack_entity_type
EXTRN	?insert_local_entity_into_parents_child_list@@YGXPAUENTITY@@W4LIST_TYPES@@00@Z:PROC ; insert_local_entity_into_parents_child_list
EXTRN	?pack_list_root@@YGXPAUENTITY@@W4LIST_TYPES@@PAULIST_ROOT@@@Z:PROC ; pack_list_root
EXTRN	?unpack_list_root@@YGXPAUENTITY@@W4LIST_TYPES@@PAULIST_ROOT@@@Z:PROC ; unpack_list_root
EXTRN	?pack_list_link@@YGXPAUENTITY@@W4LIST_TYPES@@PAULIST_LINK@@@Z:PROC ; pack_list_link
EXTRN	?unpack_list_link@@YGXPAUENTITY@@W4LIST_TYPES@@PAULIST_LINK@@@Z:PROC ; unpack_list_link
EXTRN	?pack_int_value@@YGXPAUENTITY@@W4INT_TYPES@@H@Z:PROC ; pack_int_value
EXTRN	?unpack_int_value@@YGHPAUENTITY@@W4INT_TYPES@@@Z:PROC ; unpack_int_value
EXTRN	?get_free_entity@@YGPAUENTITY@@H@Z:PROC		; get_free_entity
EXTRN	?unpack_entity_safe_index@@YGHXZ:PROC		; unpack_entity_safe_index
EXTRN	?pack_entity_safe_ptr@@YGXPAUENTITY@@@Z:PROC	; pack_entity_safe_ptr
EXTRN	?pack_mobile_data@@YGXPAUENTITY@@PAUMOBILE@@W4PACK_MODES@@@Z:PROC ; pack_mobile_data
EXTRN	?unpack_mobile_data@@YGXPAUENTITY@@PAUMOBILE@@W4PACK_MODES@@@Z:PROC ; unpack_mobile_data
EXTRN	?get_local_sector_entity@@YGPAUENTITY@@PAUVEC3D@@@Z:PROC ; get_local_sector_entity
EXTRN	?null_entity_pointer_message@@3PBDB:DWORD	; null_entity_pointer_message
EXTRN	?fn_pack_local_entity_data@@3PAP6GXPAUENTITY@@W4PACK_MODES@@@ZA:BYTE ; fn_pack_local_entity_data
EXTRN	?fn_unpack_local_entity_data@@3PAP6GXPAUENTITY@@W4ENTITY_TYPES@@W4PACK_MODES@@@ZA:BYTE ; fn_unpack_local_entity_data
;	COMDAT ?__LINE__Var@?0??unpack_local_data@@YGXPAUENTITY@@W4ENTITY_TYPES@@W4PACK_MODES@@@Z@4JA
_DATA	SEGMENT
?__LINE__Var@?0??unpack_local_data@@YGXPAUENTITY@@W4ENTITY_TYPES@@W4PACK_MODES@@@Z@4JA DD 0a8H ; `unpack_local_data'::`1'::__LINE__Var
_DATA	ENDS
;	COMDAT ??_C@_0CH@MMFDPOBJ@?$CImode?5?$DO?$DN?50?$CJ?5?$CG?$CG?5?$CImode?5?$DM?5NUM_PACK@
CONST	SEGMENT
??_C@_0CH@MMFDPOBJ@?$CImode?5?$DO?$DN?50?$CJ?5?$CG?$CG?5?$CImode?5?$DM?5NUM_PACK@ DB '('
	DB	'mode >= 0) && (mode < NUM_PACK_MODES)', 00H	; `string'
CONST	ENDS
;	COMDAT ??_C@_0EK@HLOOHGGE@c?3?2users?2nhv90?2projects?2eech?2ap@
CONST	SEGMENT
??_C@_0EK@HLOOHGGE@c?3?2users?2nhv90?2projects?2eech?2ap@ DB 'c:\users\nh'
	DB	'v90\projects\eech\aphavoc\source\entity\mobile\cargo\cg_pack.'
	DB	'c', 00H					; `string'
CONST	ENDS
;	COMDAT ?__LINE__Var@?0??pack_local_data@@YGXPAUENTITY@@W4PACK_MODES@@@Z@4JA
_DATA	SEGMENT
?__LINE__Var@?0??pack_local_data@@YGXPAUENTITY@@W4PACK_MODES@@@Z@4JA DD 050H ; `pack_local_data'::`1'::__LINE__Var
_DATA	ENDS
; Function compile flags: /Odtp /ZI
; File c:\users\nhv90\projects\eech\aphavoc\source\entity\mobile\cargo\cg_pack.c
;	COMDAT ?unpack_local_data@@YGXPAUENTITY@@W4ENTITY_TYPES@@W4PACK_MODES@@@Z
_TEXT	SEGMENT
tv70 = -76						; size = 4
_raw$1 = -8						; size = 4
_index$2 = -4						; size = 4
_en$ = 8						; size = 4
_type$ = 12						; size = 4
_mode$ = 16						; size = 4
?unpack_local_data@@YGXPAUENTITY@@W4ENTITY_TYPES@@W4PACK_MODES@@@Z PROC ; unpack_local_data, COMDAT

; 168  : {

  00000	55		 push	 ebp
  00001	8b ec		 mov	 ebp, esp
  00003	83 ec 4c	 sub	 esp, 76			; 0000004cH
  00006	53		 push	 ebx
  00007	56		 push	 esi
  00008	57		 push	 edi

; 169  : 	ASSERT ((mode >= 0) && (mode < NUM_PACK_MODES));

  00009	83 7d 10 00	 cmp	 DWORD PTR _mode$[ebp], 0
  0000d	7c 06		 jl	 SHORT $LN5@unpack_loc
  0000f	83 7d 10 04	 cmp	 DWORD PTR _mode$[ebp], 4
  00013	7c 18		 jl	 SHORT $LN4@unpack_loc
$LN5@unpack_loc:
  00015	a1 00 00 00 00	 mov	 eax, DWORD PTR ?__LINE__Var@?0??unpack_local_data@@YGXPAUENTITY@@W4ENTITY_TYPES@@W4PACK_MODES@@@Z@4JA
  0001a	83 c0 01	 add	 eax, 1
  0001d	50		 push	 eax
  0001e	68 00 00 00 00	 push	 OFFSET ??_C@_0EK@HLOOHGGE@c?3?2users?2nhv90?2projects?2eech?2ap@
  00023	68 00 00 00 00	 push	 OFFSET ??_C@_0CH@MMFDPOBJ@?$CImode?5?$DO?$DN?50?$CJ?5?$CG?$CG?5?$CImode?5?$DM?5NUM_PACK@
  00028	e8 00 00 00 00	 call	 ?process_assert@@YGXPBD0H@Z ; process_assert
$LN4@unpack_loc:

; 170  : 
; 171  : 	switch (mode)

  0002d	8b 45 10	 mov	 eax, DWORD PTR _mode$[ebp]
  00030	89 45 b4	 mov	 DWORD PTR tv70[ebp], eax
  00033	83 7d b4 00	 cmp	 DWORD PTR tv70[ebp], 0
  00037	0f 8c e1 00 00
	00		 jl	 $LN1@unpack_loc
  0003d	83 7d b4 01	 cmp	 DWORD PTR tv70[ebp], 1
  00041	7e 05		 jle	 SHORT $LN6@unpack_loc
  00043	e9 d6 00 00 00	 jmp	 $LN1@unpack_loc
$LN6@unpack_loc:

; 172  : 	{
; 173  : 		////////////////////////////////////////
; 174  : 		case PACK_MODE_SERVER_SESSION:
; 175  : 		case PACK_MODE_CLIENT_SESSION:
; 176  : 		////////////////////////////////////////
; 177  : 		{
; 178  : 			int
; 179  : 				index;
; 180  : 
; 181  : 			cargo
; 182  : 				*raw;
; 183  : 
; 184  : 			//
; 185  : 			// create entity
; 186  : 			//
; 187  : 
; 188  : 			index = unpack_entity_safe_index ();

  00048	e8 00 00 00 00	 call	 ?unpack_entity_safe_index@@YGHXZ ; unpack_entity_safe_index
  0004d	89 45 fc	 mov	 DWORD PTR _index$2[ebp], eax

; 189  : 
; 190  : 			en = get_free_entity (index);

  00050	8b 45 fc	 mov	 eax, DWORD PTR _index$2[ebp]
  00053	50		 push	 eax
  00054	e8 00 00 00 00	 call	 ?get_free_entity@@YGPAUENTITY@@H@Z ; get_free_entity
  00059	89 45 08	 mov	 DWORD PTR _en$[ebp], eax

; 191  : 
; 192  : 			set_local_entity_type (en, type);

  0005c	8b 45 08	 mov	 eax, DWORD PTR _en$[ebp]
  0005f	8b 4d 0c	 mov	 ecx, DWORD PTR _type$[ebp]
  00062	89 08		 mov	 DWORD PTR [eax], ecx

; 193  : 
; 194  : 			raw = (cargo *) malloc_fast_mem (sizeof (cargo));

  00064	68 c8 00 00 00	 push	 200			; 000000c8H
  00069	e8 00 00 00 00	 call	 ?malloc_fast_memory@@YGPAXI@Z ; malloc_fast_memory
  0006e	89 45 f8	 mov	 DWORD PTR _raw$1[ebp], eax

; 195  : 
; 196  : 			set_local_entity_data (en, raw);

  00071	8b 45 08	 mov	 eax, DWORD PTR _en$[ebp]
  00074	8b 4d f8	 mov	 ecx, DWORD PTR _raw$1[ebp]
  00077	89 48 04	 mov	 DWORD PTR [eax+4], ecx

; 197  : 
; 198  : 			memset (raw, 0, sizeof (cargo));

  0007a	68 c8 00 00 00	 push	 200			; 000000c8H
  0007f	6a 00		 push	 0
  00081	8b 45 f8	 mov	 eax, DWORD PTR _raw$1[ebp]
  00084	50		 push	 eax
  00085	e8 00 00 00 00	 call	 _memset
  0008a	83 c4 0c	 add	 esp, 12			; 0000000cH

; 199  : 
; 200  : 			//
; 201  : 			// unpack data (in exactly the same order as the data was packed)
; 202  : 			//
; 203  : 
; 204  : 			unpack_mobile_data (en, &raw->mob, mode);

  0008d	8b 45 10	 mov	 eax, DWORD PTR _mode$[ebp]
  00090	50		 push	 eax
  00091	8b 4d f8	 mov	 ecx, DWORD PTR _raw$1[ebp]
  00094	51		 push	 ecx
  00095	8b 55 08	 mov	 edx, DWORD PTR _en$[ebp]
  00098	52		 push	 edx
  00099	e8 00 00 00 00	 call	 ?unpack_mobile_data@@YGXPAUENTITY@@PAUMOBILE@@W4PACK_MODES@@@Z ; unpack_mobile_data

; 205  : 
; 206  : 			//
; 207  : 			// cargo
; 208  : 			//
; 209  : 
; 210  : 			if (mode == PACK_MODE_SERVER_SESSION)

  0009e	83 7d 10 00	 cmp	 DWORD PTR _mode$[ebp], 0
  000a2	75 14		 jne	 SHORT $LN7@unpack_loc

; 211  : 			{
; 212  : 
; 213  : 				unpack_list_root (en, LIST_TYPE_TASK_DEPENDENT, &raw->task_dependent_root);

  000a4	8b 45 f8	 mov	 eax, DWORD PTR _raw$1[ebp]
  000a7	05 80 00 00 00	 add	 eax, 128		; 00000080H
  000ac	50		 push	 eax
  000ad	6a 27		 push	 39			; 00000027H
  000af	8b 4d 08	 mov	 ecx, DWORD PTR _en$[ebp]
  000b2	51		 push	 ecx
  000b3	e8 00 00 00 00	 call	 ?unpack_list_root@@YGXPAUENTITY@@W4LIST_TYPES@@PAULIST_ROOT@@@Z ; unpack_list_root
$LN7@unpack_loc:

; 214  : 			}
; 215  : 
; 216  : 			/////////////////////////////////////////////////////////////////
; 217  : 			if (unpack_int_value (en, INT_TYPE_VALID))

  000b8	68 ef 00 00 00	 push	 239			; 000000efH
  000bd	8b 45 08	 mov	 eax, DWORD PTR _en$[ebp]
  000c0	50		 push	 eax
  000c1	e8 00 00 00 00	 call	 ?unpack_int_value@@YGHPAUENTITY@@W4INT_TYPES@@@Z ; unpack_int_value
  000c6	85 c0		 test	 eax, eax
  000c8	74 14		 je	 SHORT $LN8@unpack_loc

; 218  : 			{
; 219  : 
; 220  : 				unpack_list_link (en, LIST_TYPE_CARGO, &raw->cargo_link);

  000ca	8b 45 f8	 mov	 eax, DWORD PTR _raw$1[ebp]
  000cd	05 84 00 00 00	 add	 eax, 132		; 00000084H
  000d2	50		 push	 eax
  000d3	6a 06		 push	 6
  000d5	8b 4d 08	 mov	 ecx, DWORD PTR _en$[ebp]
  000d8	51		 push	 ecx
  000d9	e8 00 00 00 00	 call	 ?unpack_list_link@@YGXPAUENTITY@@W4LIST_TYPES@@PAULIST_LINK@@@Z ; unpack_list_link
$LN8@unpack_loc:

; 221  : 			}
; 222  : 
; 223  : 			/////////////////////////////////////////////////////////////////
; 224  : 			if (unpack_int_value (en, INT_TYPE_VALID))

  000de	68 ef 00 00 00	 push	 239			; 000000efH
  000e3	8b 45 08	 mov	 eax, DWORD PTR _en$[ebp]
  000e6	50		 push	 eax
  000e7	e8 00 00 00 00	 call	 ?unpack_int_value@@YGHPAUENTITY@@W4INT_TYPES@@@Z ; unpack_int_value
  000ec	85 c0		 test	 eax, eax
  000ee	74 14		 je	 SHORT $LN9@unpack_loc

; 225  : 			{
; 226  : 
; 227  : 				unpack_list_link (en, LIST_TYPE_MOVEMENT_DEPENDENT, &raw->movement_dependent_link);

  000f0	8b 45 f8	 mov	 eax, DWORD PTR _raw$1[ebp]
  000f3	05 90 00 00 00	 add	 eax, 144		; 00000090H
  000f8	50		 push	 eax
  000f9	6a 1a		 push	 26			; 0000001aH
  000fb	8b 4d 08	 mov	 ecx, DWORD PTR _en$[ebp]
  000fe	51		 push	 ecx
  000ff	e8 00 00 00 00	 call	 ?unpack_list_link@@YGXPAUENTITY@@W4LIST_TYPES@@PAULIST_LINK@@@Z ; unpack_list_link
$LN9@unpack_loc:

; 228  : 			}
; 229  : 			/////////////////////////////////////////////////////////////////
; 230  : 
; 231  : 			// terrain_info
; 232  : 
; 233  : 			//
; 234  : 			// link into system
; 235  : 			//
; 236  : 
; 237  : 			insert_local_entity_into_parents_child_list (en, LIST_TYPE_SECTOR, get_local_sector_entity (&raw->mob.position), NULL);

  00104	6a 00		 push	 0
  00106	8b 45 f8	 mov	 eax, DWORD PTR _raw$1[ebp]
  00109	83 c0 04	 add	 eax, 4
  0010c	50		 push	 eax
  0010d	e8 00 00 00 00	 call	 ?get_local_sector_entity@@YGPAUENTITY@@PAUVEC3D@@@Z ; get_local_sector_entity
  00112	50		 push	 eax
  00113	6a 21		 push	 33			; 00000021H
  00115	8b 4d 08	 mov	 ecx, DWORD PTR _en$[ebp]
  00118	51		 push	 ecx
  00119	e8 00 00 00 00	 call	 ?insert_local_entity_into_parents_child_list@@YGXPAUENTITY@@W4LIST_TYPES@@00@Z ; insert_local_entity_into_parents_child_list
$LN1@unpack_loc:

; 238  : 
; 239  : 			//insert_local_entity_into_parents_child_list (en, LIST_TYPE_UPDATE, get_update_entity (), NULL);
; 240  : 
; 241  : 			break;
; 242  : 		}
; 243  : 		////////////////////////////////////////
; 244  : 		case PACK_MODE_BROWSE_SESSION:
; 245  : 		////////////////////////////////////////
; 246  : 		{
; 247  : 			break;
; 248  : 		}
; 249  : 		////////////////////////////////////////
; 250  : 		case PACK_MODE_UPDATE_ENTITY:
; 251  : 		////////////////////////////////////////
; 252  : 		{
; 253  : 			//
; 254  : 			// always use access functions to set the data
; 255  : 			//
; 256  : 
; 257  : 			break;
; 258  : 		}
; 259  : 	}
; 260  : }

  0011e	5f		 pop	 edi
  0011f	5e		 pop	 esi
  00120	5b		 pop	 ebx
  00121	8b e5		 mov	 esp, ebp
  00123	5d		 pop	 ebp
  00124	c2 0c 00	 ret	 12			; 0000000cH
?unpack_local_data@@YGXPAUENTITY@@W4ENTITY_TYPES@@W4PACK_MODES@@@Z ENDP ; unpack_local_data
_TEXT	ENDS
; Function compile flags: /Odtp /ZI
; File c:\users\nhv90\projects\eech\aphavoc\source\entity\mobile\cargo\cg_pack.c
;	COMDAT ?pack_local_data@@YGXPAUENTITY@@W4PACK_MODES@@@Z
_TEXT	SEGMENT
tv78 = -72						; size = 4
tv70 = -72						; size = 4
_raw$1 = -4						; size = 4
_en$ = 8						; size = 4
_mode$ = 12						; size = 4
?pack_local_data@@YGXPAUENTITY@@W4PACK_MODES@@@Z PROC	; pack_local_data, COMDAT

; 80   : {

  00000	55		 push	 ebp
  00001	8b ec		 mov	 ebp, esp
  00003	83 ec 48	 sub	 esp, 72			; 00000048H
  00006	53		 push	 ebx
  00007	56		 push	 esi
  00008	57		 push	 edi

; 81   : 	ASSERT ((mode >= 0) && (mode < NUM_PACK_MODES));

  00009	83 7d 0c 00	 cmp	 DWORD PTR _mode$[ebp], 0
  0000d	7c 06		 jl	 SHORT $LN5@pack_local
  0000f	83 7d 0c 04	 cmp	 DWORD PTR _mode$[ebp], 4
  00013	7c 18		 jl	 SHORT $LN4@pack_local
$LN5@pack_local:
  00015	a1 00 00 00 00	 mov	 eax, DWORD PTR ?__LINE__Var@?0??pack_local_data@@YGXPAUENTITY@@W4PACK_MODES@@@Z@4JA
  0001a	83 c0 01	 add	 eax, 1
  0001d	50		 push	 eax
  0001e	68 00 00 00 00	 push	 OFFSET ??_C@_0EK@HLOOHGGE@c?3?2users?2nhv90?2projects?2eech?2ap@
  00023	68 00 00 00 00	 push	 OFFSET ??_C@_0CH@MMFDPOBJ@?$CImode?5?$DO?$DN?50?$CJ?5?$CG?$CG?5?$CImode?5?$DM?5NUM_PACK@
  00028	e8 00 00 00 00	 call	 ?process_assert@@YGXPBD0H@Z ; process_assert
$LN4@pack_local:

; 82   : 
; 83   : 	switch (mode)

  0002d	8b 45 0c	 mov	 eax, DWORD PTR _mode$[ebp]
  00030	89 45 b8	 mov	 DWORD PTR tv70[ebp], eax
  00033	83 7d b8 00	 cmp	 DWORD PTR tv70[ebp], 0
  00037	0f 8c 06 01 00
	00		 jl	 $LN1@pack_local
  0003d	83 7d b8 01	 cmp	 DWORD PTR tv70[ebp], 1
  00041	7e 05		 jle	 SHORT $LN6@pack_local
  00043	e9 fb 00 00 00	 jmp	 $LN1@pack_local
$LN6@pack_local:

; 84   : 	{
; 85   : 		////////////////////////////////////////
; 86   : 		case PACK_MODE_SERVER_SESSION:
; 87   : 		case PACK_MODE_CLIENT_SESSION:
; 88   : 		////////////////////////////////////////
; 89   : 		{
; 90   : 			cargo
; 91   : 				*raw;
; 92   : 
; 93   : 			raw = (cargo *) get_local_entity_data (en);

  00048	8b 45 08	 mov	 eax, DWORD PTR _en$[ebp]
  0004b	8b 48 04	 mov	 ecx, DWORD PTR [eax+4]
  0004e	89 4d fc	 mov	 DWORD PTR _raw$1[ebp], ecx

; 94   : 
; 95   : 			pack_entity_type (get_local_entity_type (en));

  00051	83 7d 08 00	 cmp	 DWORD PTR _en$[ebp], 0
  00055	74 0a		 je	 SHORT $LN15@pack_local
  00057	8b 45 08	 mov	 eax, DWORD PTR _en$[ebp]
  0005a	8b 08		 mov	 ecx, DWORD PTR [eax]
  0005c	89 4d b8	 mov	 DWORD PTR tv78[ebp], ecx
  0005f	eb 21		 jmp	 SHORT $LN16@pack_local
$LN15@pack_local:
  00061	8b 15 00 00 00
	00		 mov	 edx, DWORD PTR ?__LINE__Var@?0??pack_local_data@@YGXPAUENTITY@@W4PACK_MODES@@@Z@4JA
  00067	83 c2 0f	 add	 edx, 15			; 0000000fH
  0006a	52		 push	 edx
  0006b	68 00 00 00 00	 push	 OFFSET ??_C@_0EK@HLOOHGGE@c?3?2users?2nhv90?2projects?2eech?2ap@
  00070	a1 00 00 00 00	 mov	 eax, DWORD PTR ?null_entity_pointer_message@@3PBDB ; null_entity_pointer_message
  00075	50		 push	 eax
  00076	e8 00 00 00 00	 call	 ?process_assert@@YGXPBD0H@Z ; process_assert
  0007b	c7 45 b8 00 00
	00 00		 mov	 DWORD PTR tv78[ebp], 0
$LN16@pack_local:
  00082	8b 4d b8	 mov	 ecx, DWORD PTR tv78[ebp]
  00085	51		 push	 ecx
  00086	e8 00 00 00 00	 call	 ?pack_entity_type@@YGXW4ENTITY_TYPES@@@Z ; pack_entity_type

; 96   : 
; 97   : 			pack_entity_safe_ptr (en);

  0008b	8b 45 08	 mov	 eax, DWORD PTR _en$[ebp]
  0008e	50		 push	 eax
  0008f	e8 00 00 00 00	 call	 ?pack_entity_safe_ptr@@YGXPAUENTITY@@@Z ; pack_entity_safe_ptr

; 98   : 
; 99   : 			//
; 100  : 			// pack aircraft data
; 101  : 			//
; 102  : 
; 103  : 			pack_mobile_data (en, &raw->mob, mode);

  00094	8b 45 0c	 mov	 eax, DWORD PTR _mode$[ebp]
  00097	50		 push	 eax
  00098	8b 4d fc	 mov	 ecx, DWORD PTR _raw$1[ebp]
  0009b	51		 push	 ecx
  0009c	8b 55 08	 mov	 edx, DWORD PTR _en$[ebp]
  0009f	52		 push	 edx
  000a0	e8 00 00 00 00	 call	 ?pack_mobile_data@@YGXPAUENTITY@@PAUMOBILE@@W4PACK_MODES@@@Z ; pack_mobile_data

; 104  : 
; 105  : 			//
; 106  : 			// pack cargo data
; 107  : 			//
; 108  : 
; 109  : 			if (mode == PACK_MODE_SERVER_SESSION)

  000a5	83 7d 0c 00	 cmp	 DWORD PTR _mode$[ebp], 0
  000a9	75 14		 jne	 SHORT $LN7@pack_local

; 110  : 			{
; 111  : 
; 112  : 				pack_list_root (en, LIST_TYPE_TASK_DEPENDENT, &raw->task_dependent_root);

  000ab	8b 45 fc	 mov	 eax, DWORD PTR _raw$1[ebp]
  000ae	05 80 00 00 00	 add	 eax, 128		; 00000080H
  000b3	50		 push	 eax
  000b4	6a 27		 push	 39			; 00000027H
  000b6	8b 4d 08	 mov	 ecx, DWORD PTR _en$[ebp]
  000b9	51		 push	 ecx
  000ba	e8 00 00 00 00	 call	 ?pack_list_root@@YGXPAUENTITY@@W4LIST_TYPES@@PAULIST_ROOT@@@Z ; pack_list_root
$LN7@pack_local:

; 113  : 			}
; 114  : 
; 115  : 			/////////////////////////////////////////////////////////////////
; 116  : 			if (raw->cargo_link.parent)

  000bf	8b 45 fc	 mov	 eax, DWORD PTR _raw$1[ebp]
  000c2	83 b8 84 00 00
	00 00		 cmp	 DWORD PTR [eax+132], 0
  000c9	74 26		 je	 SHORT $LN8@pack_local

; 117  : 			{
; 118  : 
; 119  : 				pack_int_value (en, INT_TYPE_VALID, TRUE);

  000cb	6a 01		 push	 1
  000cd	68 ef 00 00 00	 push	 239			; 000000efH
  000d2	8b 45 08	 mov	 eax, DWORD PTR _en$[ebp]
  000d5	50		 push	 eax
  000d6	e8 00 00 00 00	 call	 ?pack_int_value@@YGXPAUENTITY@@W4INT_TYPES@@H@Z ; pack_int_value

; 120  : 
; 121  : 				pack_list_link (en, LIST_TYPE_CARGO, &raw->cargo_link);

  000db	8b 45 fc	 mov	 eax, DWORD PTR _raw$1[ebp]
  000de	05 84 00 00 00	 add	 eax, 132		; 00000084H
  000e3	50		 push	 eax
  000e4	6a 06		 push	 6
  000e6	8b 4d 08	 mov	 ecx, DWORD PTR _en$[ebp]
  000e9	51		 push	 ecx
  000ea	e8 00 00 00 00	 call	 ?pack_list_link@@YGXPAUENTITY@@W4LIST_TYPES@@PAULIST_LINK@@@Z ; pack_list_link

; 122  : 			}
; 123  : 			else

  000ef	eb 10		 jmp	 SHORT $LN9@pack_local
$LN8@pack_local:

; 124  : 			{
; 125  : 
; 126  : 				pack_int_value (en, INT_TYPE_VALID, FALSE);

  000f1	6a 00		 push	 0
  000f3	68 ef 00 00 00	 push	 239			; 000000efH
  000f8	8b 45 08	 mov	 eax, DWORD PTR _en$[ebp]
  000fb	50		 push	 eax
  000fc	e8 00 00 00 00	 call	 ?pack_int_value@@YGXPAUENTITY@@W4INT_TYPES@@H@Z ; pack_int_value
$LN9@pack_local:

; 127  : 			}
; 128  : 
; 129  : 			/////////////////////////////////////////////////////////////////
; 130  : 			if (raw->movement_dependent_link.parent)

  00101	8b 45 fc	 mov	 eax, DWORD PTR _raw$1[ebp]
  00104	83 b8 90 00 00
	00 00		 cmp	 DWORD PTR [eax+144], 0
  0010b	74 26		 je	 SHORT $LN10@pack_local

; 131  : 			{
; 132  : 
; 133  : 				pack_int_value (en, INT_TYPE_VALID, TRUE);

  0010d	6a 01		 push	 1
  0010f	68 ef 00 00 00	 push	 239			; 000000efH
  00114	8b 45 08	 mov	 eax, DWORD PTR _en$[ebp]
  00117	50		 push	 eax
  00118	e8 00 00 00 00	 call	 ?pack_int_value@@YGXPAUENTITY@@W4INT_TYPES@@H@Z ; pack_int_value

; 134  : 
; 135  : 				pack_list_link (en, LIST_TYPE_MOVEMENT_DEPENDENT, &raw->movement_dependent_link);

  0011d	8b 45 fc	 mov	 eax, DWORD PTR _raw$1[ebp]
  00120	05 90 00 00 00	 add	 eax, 144		; 00000090H
  00125	50		 push	 eax
  00126	6a 1a		 push	 26			; 0000001aH
  00128	8b 4d 08	 mov	 ecx, DWORD PTR _en$[ebp]
  0012b	51		 push	 ecx
  0012c	e8 00 00 00 00	 call	 ?pack_list_link@@YGXPAUENTITY@@W4LIST_TYPES@@PAULIST_LINK@@@Z ; pack_list_link

; 136  : 			}
; 137  : 			else

  00131	eb 10		 jmp	 SHORT $LN1@pack_local
$LN10@pack_local:

; 138  : 			{
; 139  : 
; 140  : 				pack_int_value (en, INT_TYPE_VALID, FALSE);

  00133	6a 00		 push	 0
  00135	68 ef 00 00 00	 push	 239			; 000000efH
  0013a	8b 45 08	 mov	 eax, DWORD PTR _en$[ebp]
  0013d	50		 push	 eax
  0013e	e8 00 00 00 00	 call	 ?pack_int_value@@YGXPAUENTITY@@W4INT_TYPES@@H@Z ; pack_int_value
$LN1@pack_local:

; 141  : 			}
; 142  : 			/////////////////////////////////////////////////////////////////
; 143  : 
; 144  : 			// terrain_info
; 145  : 
; 146  : 			break;
; 147  : 		}
; 148  : 		////////////////////////////////////////
; 149  : 		case PACK_MODE_BROWSE_SESSION:
; 150  : 		////////////////////////////////////////
; 151  : 		{
; 152  : 			break;
; 153  : 		}
; 154  : 		////////////////////////////////////////
; 155  : 		case PACK_MODE_UPDATE_ENTITY:
; 156  : 		////////////////////////////////////////
; 157  : 		{
; 158  : 			break;
; 159  : 		}
; 160  : 	}
; 161  : }

  00143	5f		 pop	 edi
  00144	5e		 pop	 esi
  00145	5b		 pop	 ebx
  00146	8b e5		 mov	 esp, ebp
  00148	5d		 pop	 ebp
  00149	c2 08 00	 ret	 8
?pack_local_data@@YGXPAUENTITY@@W4PACK_MODES@@@Z ENDP	; pack_local_data
_TEXT	ENDS
; Function compile flags: /Odtp /ZI
; File c:\users\nhv90\projects\eech\aphavoc\source\entity\mobile\cargo\cg_pack.c
;	COMDAT ?overload_cargo_pack_functions@@YGXXZ
_TEXT	SEGMENT
?overload_cargo_pack_functions@@YGXXZ PROC		; overload_cargo_pack_functions, COMDAT

; 267  : {

  00000	55		 push	 ebp
  00001	8b ec		 mov	 ebp, esp
  00003	83 ec 40	 sub	 esp, 64			; 00000040H
  00006	53		 push	 ebx
  00007	56		 push	 esi
  00008	57		 push	 edi

; 268  : 	fn_pack_local_entity_data[ENTITY_TYPE_CARGO]		= pack_local_data;

  00009	b8 04 00 00 00	 mov	 eax, 4
  0000e	c1 e0 02	 shl	 eax, 2
  00011	c7 80 00 00 00
	00 00 00 00 00	 mov	 DWORD PTR ?fn_pack_local_entity_data@@3PAP6GXPAUENTITY@@W4PACK_MODES@@@ZA[eax], OFFSET ?pack_local_data@@YGXPAUENTITY@@W4PACK_MODES@@@Z ; pack_local_data

; 269  : 
; 270  : 	fn_unpack_local_entity_data[ENTITY_TYPE_CARGO]	= unpack_local_data;

  0001b	b8 04 00 00 00	 mov	 eax, 4
  00020	c1 e0 02	 shl	 eax, 2
  00023	c7 80 00 00 00
	00 00 00 00 00	 mov	 DWORD PTR ?fn_unpack_local_entity_data@@3PAP6GXPAUENTITY@@W4ENTITY_TYPES@@W4PACK_MODES@@@ZA[eax], OFFSET ?unpack_local_data@@YGXPAUENTITY@@W4ENTITY_TYPES@@W4PACK_MODES@@@Z ; unpack_local_data

; 271  : }

  0002d	5f		 pop	 edi
  0002e	5e		 pop	 esi
  0002f	5b		 pop	 ebx
  00030	8b e5		 mov	 esp, ebp
  00032	5d		 pop	 ebp
  00033	c3		 ret	 0
?overload_cargo_pack_functions@@YGXXZ ENDP		; overload_cargo_pack_functions
_TEXT	ENDS
END
