; Listing generated by Microsoft (R) Optimizing Compiler Version 19.16.27045.0 

	TITLE	C:\Users\nhv90\Projects\eech\aphavoc\source\entity\special\camera\cm_att.c
	.686P
	.XMM
	include listing.inc
	.model	flat

INCLUDELIB MSVCRTD
INCLUDELIB OLDNAMES

PUBLIC	_asinf
PUBLIC	_atan2f
PUBLIC	?asin@@YGMM@Z					; asin
PUBLIC	?atan2@@YGMMM@Z					; atan2
PUBLIC	?overload_camera_attitude_functions@@YGXXZ	; overload_camera_attitude_functions
PUBLIC	?__LINE__Var@?0??set_local_attitude_matrix@@YGXPAUENTITY@@QAY02M@Z@4JA ; `set_local_attitude_matrix'::`1'::__LINE__Var
PUBLIC	??_C@_0EL@CDAAJFLG@c?3?2users?2nhv90?2projects?2eech?2ap@ ; `string'
PUBLIC	??_C@_08EKMPKBMJ@attitude@			; `string'
PUBLIC	?__LINE__Var@?0??get_local_attitude_matrix@@YGXPAUENTITY@@QAY02M@Z@4JA ; `get_local_attitude_matrix'::`1'::__LINE__Var
PUBLIC	?__LINE__Var@?0??get_local_attitude_angles@@YGXPAUENTITY@@PAM11@Z@4JA ; `get_local_attitude_angles'::`1'::__LINE__Var
PUBLIC	??_C@_07MBJMFGGL@heading@			; `string'
PUBLIC	??_C@_05NCNFOFLM@pitch@				; `string'
PUBLIC	??_C@_04FBAPEKPH@roll@				; `string'
PUBLIC	?__LINE__Var@?0??get_local_float_value@@YGMPAUENTITY@@W4FLOAT_TYPES@@@Z@4JA ; `get_local_float_value'::`1'::__LINE__Var
PUBLIC	__xmm@80000000800000008000000080000000
EXTRN	_memcpy:PROC
EXTRN	_asin:PROC
EXTRN	_atan2:PROC
EXTRN	?process_assert@@YGXPBD0H@Z:PROC		; process_assert
EXTRN	?debug_fatal@@YAXPBDZZ:PROC			; debug_fatal
EXTRN	?get_3d_transformation_matrix@@YGXQAY02MMMM@Z:PROC ; get_3d_transformation_matrix
EXTRN	?null_entity_pointer_message@@3PBDB:DWORD	; null_entity_pointer_message
EXTRN	?entity_type_database@@3PAUENTITY_TYPE_DATA@@A:BYTE ; entity_type_database
EXTRN	?fn_set_local_entity_raw_attitude_matrix@@3PAP6GXPAUENTITY@@QAY02M@ZA:BYTE ; fn_set_local_entity_raw_attitude_matrix
EXTRN	?fn_set_local_entity_attitude_matrix@@3PAP6GXPAUENTITY@@QAY02M@ZA:BYTE ; fn_set_local_entity_attitude_matrix
EXTRN	?fn_get_local_entity_attitude_matrix@@3PAP6GXPAUENTITY@@QAY02M@ZA:BYTE ; fn_get_local_entity_attitude_matrix
EXTRN	?fn_get_local_entity_attitude_matrix_ptr@@3PAP6GPAY122MPAUENTITY@@@ZA:BYTE ; fn_get_local_entity_attitude_matrix_ptr
EXTRN	?fn_set_local_entity_raw_attitude_angles@@3PAP6GXPAUENTITY@@MMM@ZA:BYTE ; fn_set_local_entity_raw_attitude_angles
EXTRN	?fn_set_local_entity_attitude_angles@@3PAP6GXPAUENTITY@@MMM@ZA:BYTE ; fn_set_local_entity_attitude_angles
EXTRN	?fn_get_local_entity_attitude_angles@@3PAP6GXPAUENTITY@@PAM11@ZA:BYTE ; fn_get_local_entity_attitude_angles
EXTRN	?float_type_database@@3PAUFLOAT_TYPE_DATA@@A:BYTE ; float_type_database
EXTRN	?debug_fatal_invalid_float_type_message@@3PBDB:DWORD ; debug_fatal_invalid_float_type_message
EXTRN	?fn_get_local_entity_float_value@@3PAY0KP@P6GMPAUENTITY@@W4FLOAT_TYPES@@@ZA:BYTE ; fn_get_local_entity_float_value
EXTRN	?entities@@3PAUENTITY@@A:DWORD			; entities
EXTRN	__fltused:DWORD
;	COMDAT __xmm@80000000800000008000000080000000
CONST	SEGMENT
__xmm@80000000800000008000000080000000 DB 00H, 00H, 00H, 080H, 00H, 00H, 00H
	DB	080H, 00H, 00H, 00H, 080H, 00H, 00H, 00H, 080H
CONST	ENDS
;	COMDAT ?__LINE__Var@?0??get_local_float_value@@YGMPAUENTITY@@W4FLOAT_TYPES@@@Z@4JA
_DATA	SEGMENT
?__LINE__Var@?0??get_local_float_value@@YGMPAUENTITY@@W4FLOAT_TYPES@@@Z@4JA DD 0b0H ; `get_local_float_value'::`1'::__LINE__Var
_DATA	ENDS
;	COMDAT ??_C@_04FBAPEKPH@roll@
CONST	SEGMENT
??_C@_04FBAPEKPH@roll@ DB 'roll', 00H			; `string'
CONST	ENDS
;	COMDAT ??_C@_05NCNFOFLM@pitch@
CONST	SEGMENT
??_C@_05NCNFOFLM@pitch@ DB 'pitch', 00H			; `string'
CONST	ENDS
;	COMDAT ??_C@_07MBJMFGGL@heading@
CONST	SEGMENT
??_C@_07MBJMFGGL@heading@ DB 'heading', 00H		; `string'
CONST	ENDS
;	COMDAT ?__LINE__Var@?0??get_local_attitude_angles@@YGXPAUENTITY@@PAM11@Z@4JA
_DATA	SEGMENT
?__LINE__Var@?0??get_local_attitude_angles@@YGXPAUENTITY@@PAM11@Z@4JA DD 098H ; `get_local_attitude_angles'::`1'::__LINE__Var
_DATA	ENDS
;	COMDAT ?__LINE__Var@?0??get_local_attitude_matrix@@YGXPAUENTITY@@QAY02M@Z@4JA
_DATA	SEGMENT
?__LINE__Var@?0??get_local_attitude_matrix@@YGXPAUENTITY@@QAY02M@Z@4JA DD 066H ; `get_local_attitude_matrix'::`1'::__LINE__Var
_DATA	ENDS
;	COMDAT ??_C@_08EKMPKBMJ@attitude@
CONST	SEGMENT
??_C@_08EKMPKBMJ@attitude@ DB 'attitude', 00H		; `string'
CONST	ENDS
;	COMDAT ??_C@_0EL@CDAAJFLG@c?3?2users?2nhv90?2projects?2eech?2ap@
CONST	SEGMENT
??_C@_0EL@CDAAJFLG@c?3?2users?2nhv90?2projects?2eech?2ap@ DB 'c:\users\nh'
	DB	'v90\projects\eech\aphavoc\source\entity\special\camera\cm_att'
	DB	'.c', 00H					; `string'
CONST	ENDS
;	COMDAT ?__LINE__Var@?0??set_local_attitude_matrix@@YGXPAUENTITY@@QAY02M@Z@4JA
_DATA	SEGMENT
?__LINE__Var@?0??set_local_attitude_matrix@@YGXPAUENTITY@@QAY02M@Z@4JA DD 050H ; `set_local_attitude_matrix'::`1'::__LINE__Var
_DATA	ENDS
; Function compile flags: /Odtp /ZI
; File c:\users\nhv90\projects\eech\aphavoc\source\entity\special\camera\cm_att.c
;	COMDAT ?get_local_float_value@@YGMPAUENTITY@@W4FLOAT_TYPES@@@Z
_TEXT	SEGMENT
tv148 = -76						; size = 4
tv65 = -76						; size = 4
_value$ = -8						; size = 4
_raw$ = -4						; size = 4
_en$ = 8						; size = 4
_type$ = 12						; size = 4
?get_local_float_value@@YGMPAUENTITY@@W4FLOAT_TYPES@@@Z PROC ; get_local_float_value, COMDAT

; 176  : {

  00000	55		 push	 ebp
  00001	8b ec		 mov	 ebp, esp
  00003	83 ec 4c	 sub	 esp, 76			; 0000004cH
  00006	53		 push	 ebx
  00007	56		 push	 esi
  00008	57		 push	 edi

; 177  : 	camera
; 178  : 		*raw;
; 179  : 
; 180  : 	float
; 181  : 		value;
; 182  : 
; 183  : 	raw = (camera *) get_local_entity_data (en);

  00009	8b 45 08	 mov	 eax, DWORD PTR _en$[ebp]
  0000c	8b 48 04	 mov	 ecx, DWORD PTR [eax+4]
  0000f	89 4d fc	 mov	 DWORD PTR _raw$[ebp], ecx

; 184  : 
; 185  : 	switch (type)

  00012	8b 45 0c	 mov	 eax, DWORD PTR _type$[ebp]
  00015	89 45 b4	 mov	 DWORD PTR tv65[ebp], eax
  00018	83 7d b4 34	 cmp	 DWORD PTR tv65[ebp], 52	; 00000034H
  0001c	74 15		 je	 SHORT $LN4@get_local_
  0001e	83 7d b4 54	 cmp	 DWORD PTR tv65[ebp], 84	; 00000054H
  00022	74 5d		 je	 SHORT $LN5@get_local_
  00024	83 7d b4 71	 cmp	 DWORD PTR tv65[ebp], 113 ; 00000071H
  00028	0f 84 81 00 00
	00		 je	 $LN6@get_local_
  0002e	e9 d1 00 00 00	 jmp	 $LN7@get_local_
$LN4@get_local_:

; 186  : 	{
; 187  : 		////////////////////////////////////////
; 188  : 		case FLOAT_TYPE_HEADING:
; 189  : 		////////////////////////////////////////
; 190  : 		{
; 191  : 			value = get_heading_from_attitude_matrix (raw->attitude);

  00033	b8 0c 00 00 00	 mov	 eax, 12			; 0000000cH
  00038	d1 e0		 shl	 eax, 1
  0003a	8b 4d fc	 mov	 ecx, DWORD PTR _raw$[ebp]
  0003d	8d 54 01 18	 lea	 edx, DWORD PTR [ecx+eax+24]
  00041	b8 04 00 00 00	 mov	 eax, 4
  00046	d1 e0		 shl	 eax, 1
  00048	51		 push	 ecx
  00049	f3 0f 10 04 02	 movss	 xmm0, DWORD PTR [edx+eax]
  0004e	f3 0f 11 04 24	 movss	 DWORD PTR [esp], xmm0
  00053	b9 0c 00 00 00	 mov	 ecx, 12			; 0000000cH
  00058	d1 e1		 shl	 ecx, 1
  0005a	8b 55 fc	 mov	 edx, DWORD PTR _raw$[ebp]
  0005d	8d 44 0a 18	 lea	 eax, DWORD PTR [edx+ecx+24]
  00061	b9 04 00 00 00	 mov	 ecx, 4
  00066	6b d1 00	 imul	 edx, ecx, 0
  00069	51		 push	 ecx
  0006a	f3 0f 10 04 10	 movss	 xmm0, DWORD PTR [eax+edx]
  0006f	f3 0f 11 04 24	 movss	 DWORD PTR [esp], xmm0
  00074	e8 00 00 00 00	 call	 ?atan2@@YGMMM@Z		; atan2
  00079	d9 5d f8	 fstp	 DWORD PTR _value$[ebp]

; 192  : 
; 193  : 			break;

  0007c	e9 f5 00 00 00	 jmp	 $LN2@get_local_
$LN5@get_local_:

; 194  : 		}
; 195  : 		////////////////////////////////////////
; 196  : 		case FLOAT_TYPE_PITCH:
; 197  : 		////////////////////////////////////////
; 198  : 		{
; 199  : 			value = get_pitch_from_attitude_matrix (raw->attitude);

  00081	b8 0c 00 00 00	 mov	 eax, 12			; 0000000cH
  00086	d1 e0		 shl	 eax, 1
  00088	8b 4d fc	 mov	 ecx, DWORD PTR _raw$[ebp]
  0008b	8d 54 01 18	 lea	 edx, DWORD PTR [ecx+eax+24]
  0008f	b8 04 00 00 00	 mov	 eax, 4
  00094	c1 e0 00	 shl	 eax, 0
  00097	51		 push	 ecx
  00098	f3 0f 10 04 02	 movss	 xmm0, DWORD PTR [edx+eax]
  0009d	f3 0f 11 04 24	 movss	 DWORD PTR [esp], xmm0
  000a2	e8 00 00 00 00	 call	 ?asin@@YGMM@Z		; asin
  000a7	d9 5d f8	 fstp	 DWORD PTR _value$[ebp]

; 200  : 
; 201  : 			break;

  000aa	e9 c7 00 00 00	 jmp	 $LN2@get_local_
$LN6@get_local_:

; 202  : 		}
; 203  : 		////////////////////////////////////////
; 204  : 		case FLOAT_TYPE_ROLL:
; 205  : 		////////////////////////////////////////
; 206  : 		{
; 207  : 			value = get_roll_from_attitude_matrix (raw->attitude);

  000af	b8 0c 00 00 00	 mov	 eax, 12			; 0000000cH
  000b4	c1 e0 00	 shl	 eax, 0
  000b7	8b 4d fc	 mov	 ecx, DWORD PTR _raw$[ebp]
  000ba	8d 54 01 18	 lea	 edx, DWORD PTR [ecx+eax+24]
  000be	b8 04 00 00 00	 mov	 eax, 4
  000c3	c1 e0 00	 shl	 eax, 0
  000c6	51		 push	 ecx
  000c7	f3 0f 10 04 02	 movss	 xmm0, DWORD PTR [edx+eax]
  000cc	f3 0f 11 04 24	 movss	 DWORD PTR [esp], xmm0
  000d1	b9 0c 00 00 00	 mov	 ecx, 12			; 0000000cH
  000d6	6b d1 00	 imul	 edx, ecx, 0
  000d9	8b 45 fc	 mov	 eax, DWORD PTR _raw$[ebp]
  000dc	8d 4c 10 18	 lea	 ecx, DWORD PTR [eax+edx+24]
  000e0	ba 04 00 00 00	 mov	 edx, 4
  000e5	c1 e2 00	 shl	 edx, 0
  000e8	f3 0f 10 04 11	 movss	 xmm0, DWORD PTR [ecx+edx]
  000ed	0f 57 05 00 00
	00 00		 xorps	 xmm0, DWORD PTR __xmm@80000000800000008000000080000000
  000f4	51		 push	 ecx
  000f5	f3 0f 11 04 24	 movss	 DWORD PTR [esp], xmm0
  000fa	e8 00 00 00 00	 call	 ?atan2@@YGMMM@Z		; atan2
  000ff	d9 5d f8	 fstp	 DWORD PTR _value$[ebp]

; 208  : 
; 209  : 			break;

  00102	eb 72		 jmp	 SHORT $LN2@get_local_
$LN7@get_local_:

; 210  : 		}
; 211  : 		////////////////////////////////////////
; 212  : 		default:
; 213  : 		////////////////////////////////////////
; 214  : 		{
; 215  : 			debug_fatal_invalid_float_type (en, type);

  00104	83 7d 08 00	 cmp	 DWORD PTR _en$[ebp], 0
  00108	74 0a		 je	 SHORT $LN9@get_local_
  0010a	8b 45 08	 mov	 eax, DWORD PTR _en$[ebp]
  0010d	8b 08		 mov	 ecx, DWORD PTR [eax]
  0010f	89 4d b4	 mov	 DWORD PTR tv148[ebp], ecx
  00112	eb 21		 jmp	 SHORT $LN10@get_local_
$LN9@get_local_:
  00114	8b 15 00 00 00
	00		 mov	 edx, DWORD PTR ?__LINE__Var@?0??get_local_float_value@@YGMPAUENTITY@@W4FLOAT_TYPES@@@Z@4JA
  0011a	83 c2 27	 add	 edx, 39			; 00000027H
  0011d	52		 push	 edx
  0011e	68 00 00 00 00	 push	 OFFSET ??_C@_0EL@CDAAJFLG@c?3?2users?2nhv90?2projects?2eech?2ap@
  00123	a1 00 00 00 00	 mov	 eax, DWORD PTR ?null_entity_pointer_message@@3PBDB ; null_entity_pointer_message
  00128	50		 push	 eax
  00129	e8 00 00 00 00	 call	 ?process_assert@@YGXPBD0H@Z ; process_assert
  0012e	c7 45 b4 00 00
	00 00		 mov	 DWORD PTR tv148[ebp], 0
$LN10@get_local_:
  00135	8b 0d 00 00 00
	00		 mov	 ecx, DWORD PTR ?__LINE__Var@?0??get_local_float_value@@YGMPAUENTITY@@W4FLOAT_TYPES@@@Z@4JA
  0013b	83 c1 27	 add	 ecx, 39			; 00000027H
  0013e	51		 push	 ecx
  0013f	68 00 00 00 00	 push	 OFFSET ??_C@_0EL@CDAAJFLG@c?3?2users?2nhv90?2projects?2eech?2ap@
  00144	6b 55 0c 18	 imul	 edx, DWORD PTR _type$[ebp], 24
  00148	8b 82 00 00 00
	00		 mov	 eax, DWORD PTR ?float_type_database@@3PAUFLOAT_TYPE_DATA@@A[edx]
  0014e	50		 push	 eax
  0014f	8b 4d 08	 mov	 ecx, DWORD PTR _en$[ebp]
  00152	2b 0d 00 00 00
	00		 sub	 ecx, DWORD PTR ?entities@@3PAUENTITY@@A ; entities
  00158	c1 f9 04	 sar	 ecx, 4
  0015b	51		 push	 ecx
  0015c	6b 55 b4 0c	 imul	 edx, DWORD PTR tv148[ebp], 12
  00160	8b 82 00 00 00
	00		 mov	 eax, DWORD PTR ?entity_type_database@@3PAUENTITY_TYPE_DATA@@A[edx]
  00166	50		 push	 eax
  00167	8b 0d 00 00 00
	00		 mov	 ecx, DWORD PTR ?debug_fatal_invalid_float_type_message@@3PBDB ; debug_fatal_invalid_float_type_message
  0016d	51		 push	 ecx
  0016e	e8 00 00 00 00	 call	 ?debug_fatal@@YAXPBDZZ	; debug_fatal
  00173	83 c4 18	 add	 esp, 24			; 00000018H
$LN2@get_local_:

; 216  : 
; 217  : 			break;
; 218  : 		}
; 219  : 	}
; 220  : 
; 221  : 	return (value);

  00176	d9 45 f8	 fld	 DWORD PTR _value$[ebp]

; 222  : }

  00179	5f		 pop	 edi
  0017a	5e		 pop	 esi
  0017b	5b		 pop	 ebx
  0017c	8b e5		 mov	 esp, ebp
  0017e	5d		 pop	 ebp
  0017f	c2 08 00	 ret	 8
?get_local_float_value@@YGMPAUENTITY@@W4FLOAT_TYPES@@@Z ENDP ; get_local_float_value
_TEXT	ENDS
; Function compile flags: /Odtp /ZI
; File c:\users\nhv90\projects\eech\aphavoc\source\entity\special\camera\cm_att.c
;	COMDAT ?get_local_attitude_angles@@YGXPAUENTITY@@PAM11@Z
_TEXT	SEGMENT
_raw$ = -4						; size = 4
_en$ = 8						; size = 4
_heading$ = 12						; size = 4
_pitch$ = 16						; size = 4
_roll$ = 20						; size = 4
?get_local_attitude_angles@@YGXPAUENTITY@@PAM11@Z PROC	; get_local_attitude_angles, COMDAT

; 152  : {

  00000	55		 push	 ebp
  00001	8b ec		 mov	 ebp, esp
  00003	83 ec 44	 sub	 esp, 68			; 00000044H
  00006	53		 push	 ebx
  00007	56		 push	 esi
  00008	57		 push	 edi

; 153  : 	camera
; 154  : 		*raw;
; 155  : 
; 156  : 	ASSERT (heading);

  00009	83 7d 0c 00	 cmp	 DWORD PTR _heading$[ebp], 0
  0000d	75 18		 jne	 SHORT $LN2@get_local_
  0000f	a1 00 00 00 00	 mov	 eax, DWORD PTR ?__LINE__Var@?0??get_local_attitude_angles@@YGXPAUENTITY@@PAM11@Z@4JA
  00014	83 c0 04	 add	 eax, 4
  00017	50		 push	 eax
  00018	68 00 00 00 00	 push	 OFFSET ??_C@_0EL@CDAAJFLG@c?3?2users?2nhv90?2projects?2eech?2ap@
  0001d	68 00 00 00 00	 push	 OFFSET ??_C@_07MBJMFGGL@heading@
  00022	e8 00 00 00 00	 call	 ?process_assert@@YGXPBD0H@Z ; process_assert
$LN2@get_local_:

; 157  : 
; 158  : 	ASSERT (pitch);

  00027	83 7d 10 00	 cmp	 DWORD PTR _pitch$[ebp], 0
  0002b	75 18		 jne	 SHORT $LN3@get_local_
  0002d	a1 00 00 00 00	 mov	 eax, DWORD PTR ?__LINE__Var@?0??get_local_attitude_angles@@YGXPAUENTITY@@PAM11@Z@4JA
  00032	83 c0 06	 add	 eax, 6
  00035	50		 push	 eax
  00036	68 00 00 00 00	 push	 OFFSET ??_C@_0EL@CDAAJFLG@c?3?2users?2nhv90?2projects?2eech?2ap@
  0003b	68 00 00 00 00	 push	 OFFSET ??_C@_05NCNFOFLM@pitch@
  00040	e8 00 00 00 00	 call	 ?process_assert@@YGXPBD0H@Z ; process_assert
$LN3@get_local_:

; 159  : 
; 160  : 	ASSERT (roll);

  00045	83 7d 14 00	 cmp	 DWORD PTR _roll$[ebp], 0
  00049	75 18		 jne	 SHORT $LN4@get_local_
  0004b	a1 00 00 00 00	 mov	 eax, DWORD PTR ?__LINE__Var@?0??get_local_attitude_angles@@YGXPAUENTITY@@PAM11@Z@4JA
  00050	83 c0 08	 add	 eax, 8
  00053	50		 push	 eax
  00054	68 00 00 00 00	 push	 OFFSET ??_C@_0EL@CDAAJFLG@c?3?2users?2nhv90?2projects?2eech?2ap@
  00059	68 00 00 00 00	 push	 OFFSET ??_C@_04FBAPEKPH@roll@
  0005e	e8 00 00 00 00	 call	 ?process_assert@@YGXPBD0H@Z ; process_assert
$LN4@get_local_:

; 161  : 
; 162  : 	raw = (camera *) get_local_entity_data (en);

  00063	8b 45 08	 mov	 eax, DWORD PTR _en$[ebp]
  00066	8b 48 04	 mov	 ecx, DWORD PTR [eax+4]
  00069	89 4d fc	 mov	 DWORD PTR _raw$[ebp], ecx

; 163  : 
; 164  : 	*heading = get_heading_from_attitude_matrix (raw->attitude);

  0006c	b8 0c 00 00 00	 mov	 eax, 12			; 0000000cH
  00071	d1 e0		 shl	 eax, 1
  00073	8b 4d fc	 mov	 ecx, DWORD PTR _raw$[ebp]
  00076	8d 54 01 18	 lea	 edx, DWORD PTR [ecx+eax+24]
  0007a	b8 04 00 00 00	 mov	 eax, 4
  0007f	d1 e0		 shl	 eax, 1
  00081	51		 push	 ecx
  00082	f3 0f 10 04 02	 movss	 xmm0, DWORD PTR [edx+eax]
  00087	f3 0f 11 04 24	 movss	 DWORD PTR [esp], xmm0
  0008c	b9 0c 00 00 00	 mov	 ecx, 12			; 0000000cH
  00091	d1 e1		 shl	 ecx, 1
  00093	8b 55 fc	 mov	 edx, DWORD PTR _raw$[ebp]
  00096	8d 44 0a 18	 lea	 eax, DWORD PTR [edx+ecx+24]
  0009a	b9 04 00 00 00	 mov	 ecx, 4
  0009f	6b d1 00	 imul	 edx, ecx, 0
  000a2	51		 push	 ecx
  000a3	f3 0f 10 04 10	 movss	 xmm0, DWORD PTR [eax+edx]
  000a8	f3 0f 11 04 24	 movss	 DWORD PTR [esp], xmm0
  000ad	e8 00 00 00 00	 call	 ?atan2@@YGMMM@Z		; atan2
  000b2	8b 45 0c	 mov	 eax, DWORD PTR _heading$[ebp]
  000b5	d9 18		 fstp	 DWORD PTR [eax]

; 165  : 
; 166  : 	*pitch = get_pitch_from_attitude_matrix (raw->attitude);

  000b7	b8 0c 00 00 00	 mov	 eax, 12			; 0000000cH
  000bc	d1 e0		 shl	 eax, 1
  000be	8b 4d fc	 mov	 ecx, DWORD PTR _raw$[ebp]
  000c1	8d 54 01 18	 lea	 edx, DWORD PTR [ecx+eax+24]
  000c5	b8 04 00 00 00	 mov	 eax, 4
  000ca	c1 e0 00	 shl	 eax, 0
  000cd	51		 push	 ecx
  000ce	f3 0f 10 04 02	 movss	 xmm0, DWORD PTR [edx+eax]
  000d3	f3 0f 11 04 24	 movss	 DWORD PTR [esp], xmm0
  000d8	e8 00 00 00 00	 call	 ?asin@@YGMM@Z		; asin
  000dd	8b 4d 10	 mov	 ecx, DWORD PTR _pitch$[ebp]
  000e0	d9 19		 fstp	 DWORD PTR [ecx]

; 167  : 
; 168  : 	*roll = get_roll_from_attitude_matrix (raw->attitude);

  000e2	b8 0c 00 00 00	 mov	 eax, 12			; 0000000cH
  000e7	c1 e0 00	 shl	 eax, 0
  000ea	8b 4d fc	 mov	 ecx, DWORD PTR _raw$[ebp]
  000ed	8d 54 01 18	 lea	 edx, DWORD PTR [ecx+eax+24]
  000f1	b8 04 00 00 00	 mov	 eax, 4
  000f6	c1 e0 00	 shl	 eax, 0
  000f9	51		 push	 ecx
  000fa	f3 0f 10 04 02	 movss	 xmm0, DWORD PTR [edx+eax]
  000ff	f3 0f 11 04 24	 movss	 DWORD PTR [esp], xmm0
  00104	b9 0c 00 00 00	 mov	 ecx, 12			; 0000000cH
  00109	6b d1 00	 imul	 edx, ecx, 0
  0010c	8b 45 fc	 mov	 eax, DWORD PTR _raw$[ebp]
  0010f	8d 4c 10 18	 lea	 ecx, DWORD PTR [eax+edx+24]
  00113	ba 04 00 00 00	 mov	 edx, 4
  00118	c1 e2 00	 shl	 edx, 0
  0011b	f3 0f 10 04 11	 movss	 xmm0, DWORD PTR [ecx+edx]
  00120	0f 57 05 00 00
	00 00		 xorps	 xmm0, DWORD PTR __xmm@80000000800000008000000080000000
  00127	51		 push	 ecx
  00128	f3 0f 11 04 24	 movss	 DWORD PTR [esp], xmm0
  0012d	e8 00 00 00 00	 call	 ?atan2@@YGMMM@Z		; atan2
  00132	8b 45 14	 mov	 eax, DWORD PTR _roll$[ebp]
  00135	d9 18		 fstp	 DWORD PTR [eax]

; 169  : }

  00137	5f		 pop	 edi
  00138	5e		 pop	 esi
  00139	5b		 pop	 ebx
  0013a	8b e5		 mov	 esp, ebp
  0013c	5d		 pop	 ebp
  0013d	c2 10 00	 ret	 16			; 00000010H
?get_local_attitude_angles@@YGXPAUENTITY@@PAM11@Z ENDP	; get_local_attitude_angles
_TEXT	ENDS
; Function compile flags: /Odtp /ZI
; File c:\users\nhv90\projects\eech\aphavoc\source\entity\special\camera\cm_att.c
;	COMDAT ?set_local_attitude_angles@@YGXPAUENTITY@@MMM@Z
_TEXT	SEGMENT
_raw$ = -4						; size = 4
_en$ = 8						; size = 4
_heading$ = 12						; size = 4
_pitch$ = 16						; size = 4
_roll$ = 20						; size = 4
?set_local_attitude_angles@@YGXPAUENTITY@@MMM@Z PROC	; set_local_attitude_angles, COMDAT

; 132  : {

  00000	55		 push	 ebp
  00001	8b ec		 mov	 ebp, esp
  00003	83 ec 44	 sub	 esp, 68			; 00000044H
  00006	53		 push	 ebx
  00007	56		 push	 esi
  00008	57		 push	 edi

; 133  : 	camera
; 134  : 		*raw;
; 135  : 
; 136  : 	#if DEBUG_MODULE
; 137  : 
; 138  : 	debug_log_entity_args (ENTITY_DEBUG_LOCAL, ENTITY_DEBUG_ATTITUDE_ANGLES, en, heading, pitch, roll);
; 139  : 
; 140  : 	#endif
; 141  : 
; 142  : 	raw = (camera *) get_local_entity_data (en);

  00009	8b 45 08	 mov	 eax, DWORD PTR _en$[ebp]
  0000c	8b 48 04	 mov	 ecx, DWORD PTR [eax+4]
  0000f	89 4d fc	 mov	 DWORD PTR _raw$[ebp], ecx

; 143  : 
; 144  : 	get_3d_transformation_matrix (raw->attitude, heading, pitch, roll);

  00012	51		 push	 ecx
  00013	f3 0f 10 45 14	 movss	 xmm0, DWORD PTR _roll$[ebp]
  00018	f3 0f 11 04 24	 movss	 DWORD PTR [esp], xmm0
  0001d	51		 push	 ecx
  0001e	f3 0f 10 45 10	 movss	 xmm0, DWORD PTR _pitch$[ebp]
  00023	f3 0f 11 04 24	 movss	 DWORD PTR [esp], xmm0
  00028	51		 push	 ecx
  00029	f3 0f 10 45 0c	 movss	 xmm0, DWORD PTR _heading$[ebp]
  0002e	f3 0f 11 04 24	 movss	 DWORD PTR [esp], xmm0
  00033	8b 45 fc	 mov	 eax, DWORD PTR _raw$[ebp]
  00036	83 c0 18	 add	 eax, 24			; 00000018H
  00039	50		 push	 eax
  0003a	e8 00 00 00 00	 call	 ?get_3d_transformation_matrix@@YGXQAY02MMMM@Z ; get_3d_transformation_matrix

; 145  : }

  0003f	5f		 pop	 edi
  00040	5e		 pop	 esi
  00041	5b		 pop	 ebx
  00042	8b e5		 mov	 esp, ebp
  00044	5d		 pop	 ebp
  00045	c2 10 00	 ret	 16			; 00000010H
?set_local_attitude_angles@@YGXPAUENTITY@@MMM@Z ENDP	; set_local_attitude_angles
_TEXT	ENDS
; Function compile flags: /Odtp /ZI
; File c:\users\nhv90\projects\eech\aphavoc\source\entity\special\camera\cm_att.c
;	COMDAT ?get_local_attitude_matrix_ptr@@YGPAY122MPAUENTITY@@@Z
_TEXT	SEGMENT
_raw$ = -4						; size = 4
_en$ = 8						; size = 4
?get_local_attitude_matrix_ptr@@YGPAY122MPAUENTITY@@@Z PROC ; get_local_attitude_matrix_ptr, COMDAT

; 118  : {

  00000	55		 push	 ebp
  00001	8b ec		 mov	 ebp, esp
  00003	83 ec 44	 sub	 esp, 68			; 00000044H
  00006	53		 push	 ebx
  00007	56		 push	 esi
  00008	57		 push	 edi

; 119  : 	camera
; 120  : 		*raw;
; 121  : 
; 122  : 	raw = (camera *) get_local_entity_data (en);

  00009	8b 45 08	 mov	 eax, DWORD PTR _en$[ebp]
  0000c	8b 48 04	 mov	 ecx, DWORD PTR [eax+4]
  0000f	89 4d fc	 mov	 DWORD PTR _raw$[ebp], ecx

; 123  : 
; 124  : 	return (&raw->attitude);

  00012	8b 45 fc	 mov	 eax, DWORD PTR _raw$[ebp]
  00015	83 c0 18	 add	 eax, 24			; 00000018H

; 125  : }

  00018	5f		 pop	 edi
  00019	5e		 pop	 esi
  0001a	5b		 pop	 ebx
  0001b	8b e5		 mov	 esp, ebp
  0001d	5d		 pop	 ebp
  0001e	c2 04 00	 ret	 4
?get_local_attitude_matrix_ptr@@YGPAY122MPAUENTITY@@@Z ENDP ; get_local_attitude_matrix_ptr
_TEXT	ENDS
; Function compile flags: /Odtp /ZI
; File c:\users\nhv90\projects\eech\aphavoc\source\entity\special\camera\cm_att.c
;	COMDAT ?get_local_attitude_matrix@@YGXPAUENTITY@@QAY02M@Z
_TEXT	SEGMENT
_raw$ = -4						; size = 4
_en$ = 8						; size = 4
_attitude$ = 12						; size = 4
?get_local_attitude_matrix@@YGXPAUENTITY@@QAY02M@Z PROC	; get_local_attitude_matrix, COMDAT

; 102  : {

  00000	55		 push	 ebp
  00001	8b ec		 mov	 ebp, esp
  00003	83 ec 44	 sub	 esp, 68			; 00000044H
  00006	53		 push	 ebx
  00007	56		 push	 esi
  00008	57		 push	 edi

; 103  : 	camera
; 104  : 		*raw;
; 105  : 
; 106  : 	ASSERT (attitude);

  00009	83 7d 0c 00	 cmp	 DWORD PTR _attitude$[ebp], 0
  0000d	75 18		 jne	 SHORT $LN2@get_local_
  0000f	a1 00 00 00 00	 mov	 eax, DWORD PTR ?__LINE__Var@?0??get_local_attitude_matrix@@YGXPAUENTITY@@QAY02M@Z@4JA
  00014	83 c0 04	 add	 eax, 4
  00017	50		 push	 eax
  00018	68 00 00 00 00	 push	 OFFSET ??_C@_0EL@CDAAJFLG@c?3?2users?2nhv90?2projects?2eech?2ap@
  0001d	68 00 00 00 00	 push	 OFFSET ??_C@_08EKMPKBMJ@attitude@
  00022	e8 00 00 00 00	 call	 ?process_assert@@YGXPBD0H@Z ; process_assert
$LN2@get_local_:

; 107  : 
; 108  : 	raw = (camera *) get_local_entity_data (en);

  00027	8b 45 08	 mov	 eax, DWORD PTR _en$[ebp]
  0002a	8b 48 04	 mov	 ecx, DWORD PTR [eax+4]
  0002d	89 4d fc	 mov	 DWORD PTR _raw$[ebp], ecx

; 109  : 
; 110  : 	memcpy (attitude, raw->attitude, sizeof (matrix3x3));

  00030	6a 24		 push	 36			; 00000024H
  00032	8b 45 fc	 mov	 eax, DWORD PTR _raw$[ebp]
  00035	83 c0 18	 add	 eax, 24			; 00000018H
  00038	50		 push	 eax
  00039	8b 4d 0c	 mov	 ecx, DWORD PTR _attitude$[ebp]
  0003c	51		 push	 ecx
  0003d	e8 00 00 00 00	 call	 _memcpy
  00042	83 c4 0c	 add	 esp, 12			; 0000000cH

; 111  : }

  00045	5f		 pop	 edi
  00046	5e		 pop	 esi
  00047	5b		 pop	 ebx
  00048	8b e5		 mov	 esp, ebp
  0004a	5d		 pop	 ebp
  0004b	c2 08 00	 ret	 8
?get_local_attitude_matrix@@YGXPAUENTITY@@QAY02M@Z ENDP	; get_local_attitude_matrix
_TEXT	ENDS
; Function compile flags: /Odtp /ZI
; File c:\users\nhv90\projects\eech\aphavoc\source\entity\special\camera\cm_att.c
;	COMDAT ?set_local_attitude_matrix@@YGXPAUENTITY@@QAY02M@Z
_TEXT	SEGMENT
_raw$ = -4						; size = 4
_en$ = 8						; size = 4
_attitude$ = 12						; size = 4
?set_local_attitude_matrix@@YGXPAUENTITY@@QAY02M@Z PROC	; set_local_attitude_matrix, COMDAT

; 80   : {

  00000	55		 push	 ebp
  00001	8b ec		 mov	 ebp, esp
  00003	83 ec 44	 sub	 esp, 68			; 00000044H
  00006	53		 push	 ebx
  00007	56		 push	 esi
  00008	57		 push	 edi

; 81   : 	camera
; 82   : 		*raw;
; 83   : 
; 84   : 	ASSERT (attitude);

  00009	83 7d 0c 00	 cmp	 DWORD PTR _attitude$[ebp], 0
  0000d	75 18		 jne	 SHORT $LN2@set_local_
  0000f	a1 00 00 00 00	 mov	 eax, DWORD PTR ?__LINE__Var@?0??set_local_attitude_matrix@@YGXPAUENTITY@@QAY02M@Z@4JA
  00014	83 c0 04	 add	 eax, 4
  00017	50		 push	 eax
  00018	68 00 00 00 00	 push	 OFFSET ??_C@_0EL@CDAAJFLG@c?3?2users?2nhv90?2projects?2eech?2ap@
  0001d	68 00 00 00 00	 push	 OFFSET ??_C@_08EKMPKBMJ@attitude@
  00022	e8 00 00 00 00	 call	 ?process_assert@@YGXPBD0H@Z ; process_assert
$LN2@set_local_:

; 85   : 
; 86   : 	#if DEBUG_MODULE
; 87   : 
; 88   : 	debug_log_entity_args (ENTITY_DEBUG_LOCAL, ENTITY_DEBUG_ATTITUDE_MATRIX, en, attitude);
; 89   : 
; 90   : 	#endif
; 91   : 
; 92   : 	raw = (camera *) get_local_entity_data (en);

  00027	8b 45 08	 mov	 eax, DWORD PTR _en$[ebp]
  0002a	8b 48 04	 mov	 ecx, DWORD PTR [eax+4]
  0002d	89 4d fc	 mov	 DWORD PTR _raw$[ebp], ecx

; 93   : 
; 94   : 	memcpy (raw->attitude, attitude, sizeof (matrix3x3));

  00030	6a 24		 push	 36			; 00000024H
  00032	8b 45 0c	 mov	 eax, DWORD PTR _attitude$[ebp]
  00035	50		 push	 eax
  00036	8b 4d fc	 mov	 ecx, DWORD PTR _raw$[ebp]
  00039	83 c1 18	 add	 ecx, 24			; 00000018H
  0003c	51		 push	 ecx
  0003d	e8 00 00 00 00	 call	 _memcpy
  00042	83 c4 0c	 add	 esp, 12			; 0000000cH

; 95   : }

  00045	5f		 pop	 edi
  00046	5e		 pop	 esi
  00047	5b		 pop	 ebx
  00048	8b e5		 mov	 esp, ebp
  0004a	5d		 pop	 ebp
  0004b	c2 08 00	 ret	 8
?set_local_attitude_matrix@@YGXPAUENTITY@@QAY02M@Z ENDP	; set_local_attitude_matrix
_TEXT	ENDS
; Function compile flags: /Odtp /ZI
; File c:\users\nhv90\projects\eech\aphavoc\source\entity\special\camera\cm_att.c
;	COMDAT ?overload_camera_attitude_functions@@YGXXZ
_TEXT	SEGMENT
?overload_camera_attitude_functions@@YGXXZ PROC		; overload_camera_attitude_functions, COMDAT

; 229  : {

  00000	55		 push	 ebp
  00001	8b ec		 mov	 ebp, esp
  00003	83 ec 40	 sub	 esp, 64			; 00000040H
  00006	53		 push	 ebx
  00007	56		 push	 esi
  00008	57		 push	 edi

; 230  : 	fn_set_local_entity_raw_attitude_matrix	[ENTITY_TYPE_CAMERA]								= set_local_attitude_matrix;

  00009	b8 04 00 00 00	 mov	 eax, 4
  0000e	6b c8 03	 imul	 ecx, eax, 3
  00011	c7 81 00 00 00
	00 00 00 00 00	 mov	 DWORD PTR ?fn_set_local_entity_raw_attitude_matrix@@3PAP6GXPAUENTITY@@QAY02M@ZA[ecx], OFFSET ?set_local_attitude_matrix@@YGXPAUENTITY@@QAY02M@Z ; set_local_attitude_matrix

; 231  : 	fn_set_local_entity_attitude_matrix			[ENTITY_TYPE_CAMERA]								= set_local_attitude_matrix;

  0001b	b8 04 00 00 00	 mov	 eax, 4
  00020	6b c8 03	 imul	 ecx, eax, 3
  00023	c7 81 00 00 00
	00 00 00 00 00	 mov	 DWORD PTR ?fn_set_local_entity_attitude_matrix@@3PAP6GXPAUENTITY@@QAY02M@ZA[ecx], OFFSET ?set_local_attitude_matrix@@YGXPAUENTITY@@QAY02M@Z ; set_local_attitude_matrix

; 232  : 	fn_get_local_entity_attitude_matrix			[ENTITY_TYPE_CAMERA]								= get_local_attitude_matrix;

  0002d	b8 04 00 00 00	 mov	 eax, 4
  00032	6b c8 03	 imul	 ecx, eax, 3
  00035	c7 81 00 00 00
	00 00 00 00 00	 mov	 DWORD PTR ?fn_get_local_entity_attitude_matrix@@3PAP6GXPAUENTITY@@QAY02M@ZA[ecx], OFFSET ?get_local_attitude_matrix@@YGXPAUENTITY@@QAY02M@Z ; get_local_attitude_matrix

; 233  : 	fn_get_local_entity_attitude_matrix_ptr	[ENTITY_TYPE_CAMERA]								= get_local_attitude_matrix_ptr;

  0003f	b8 04 00 00 00	 mov	 eax, 4
  00044	6b c8 03	 imul	 ecx, eax, 3
  00047	c7 81 00 00 00
	00 00 00 00 00	 mov	 DWORD PTR ?fn_get_local_entity_attitude_matrix_ptr@@3PAP6GPAY122MPAUENTITY@@@ZA[ecx], OFFSET ?get_local_attitude_matrix_ptr@@YGPAY122MPAUENTITY@@@Z ; get_local_attitude_matrix_ptr

; 234  : 
; 235  : 	fn_set_local_entity_raw_attitude_angles	[ENTITY_TYPE_CAMERA]	  			  		  		= set_local_attitude_angles;

  00051	b8 04 00 00 00	 mov	 eax, 4
  00056	6b c8 03	 imul	 ecx, eax, 3
  00059	c7 81 00 00 00
	00 00 00 00 00	 mov	 DWORD PTR ?fn_set_local_entity_raw_attitude_angles@@3PAP6GXPAUENTITY@@MMM@ZA[ecx], OFFSET ?set_local_attitude_angles@@YGXPAUENTITY@@MMM@Z ; set_local_attitude_angles

; 236  : 	fn_set_local_entity_attitude_angles			[ENTITY_TYPE_CAMERA]		  				  		= set_local_attitude_angles;

  00063	b8 04 00 00 00	 mov	 eax, 4
  00068	6b c8 03	 imul	 ecx, eax, 3
  0006b	c7 81 00 00 00
	00 00 00 00 00	 mov	 DWORD PTR ?fn_set_local_entity_attitude_angles@@3PAP6GXPAUENTITY@@MMM@ZA[ecx], OFFSET ?set_local_attitude_angles@@YGXPAUENTITY@@MMM@Z ; set_local_attitude_angles

; 237  : 	fn_get_local_entity_attitude_angles			[ENTITY_TYPE_CAMERA]							 	= get_local_attitude_angles;

  00075	b8 04 00 00 00	 mov	 eax, 4
  0007a	6b c8 03	 imul	 ecx, eax, 3
  0007d	c7 81 00 00 00
	00 00 00 00 00	 mov	 DWORD PTR ?fn_get_local_entity_attitude_angles@@3PAP6GXPAUENTITY@@PAM11@ZA[ecx], OFFSET ?get_local_attitude_angles@@YGXPAUENTITY@@PAM11@Z ; get_local_attitude_angles

; 238  : 	fn_get_local_entity_float_value				[ENTITY_TYPE_CAMERA][FLOAT_TYPE_HEADING]	= get_local_float_value;

  00087	b8 bc 02 00 00	 mov	 eax, 700		; 000002bcH
  0008c	6b c8 03	 imul	 ecx, eax, 3
  0008f	ba 04 00 00 00	 mov	 edx, 4
  00094	6b c2 34	 imul	 eax, edx, 52
  00097	c7 84 01 00 00
	00 00 00 00 00
	00		 mov	 DWORD PTR ?fn_get_local_entity_float_value@@3PAY0KP@P6GMPAUENTITY@@W4FLOAT_TYPES@@@ZA[ecx+eax], OFFSET ?get_local_float_value@@YGMPAUENTITY@@W4FLOAT_TYPES@@@Z ; get_local_float_value

; 239  : 	fn_get_local_entity_float_value				[ENTITY_TYPE_CAMERA][FLOAT_TYPE_PITCH]		= get_local_float_value;

  000a2	b8 bc 02 00 00	 mov	 eax, 700		; 000002bcH
  000a7	6b c8 03	 imul	 ecx, eax, 3
  000aa	ba 04 00 00 00	 mov	 edx, 4
  000af	6b c2 54	 imul	 eax, edx, 84
  000b2	c7 84 01 00 00
	00 00 00 00 00
	00		 mov	 DWORD PTR ?fn_get_local_entity_float_value@@3PAY0KP@P6GMPAUENTITY@@W4FLOAT_TYPES@@@ZA[ecx+eax], OFFSET ?get_local_float_value@@YGMPAUENTITY@@W4FLOAT_TYPES@@@Z ; get_local_float_value

; 240  : 	fn_get_local_entity_float_value				[ENTITY_TYPE_CAMERA][FLOAT_TYPE_ROLL]		= get_local_float_value;

  000bd	b8 bc 02 00 00	 mov	 eax, 700		; 000002bcH
  000c2	6b c8 03	 imul	 ecx, eax, 3
  000c5	ba 04 00 00 00	 mov	 edx, 4
  000ca	6b c2 71	 imul	 eax, edx, 113
  000cd	c7 84 01 00 00
	00 00 00 00 00
	00		 mov	 DWORD PTR ?fn_get_local_entity_float_value@@3PAY0KP@P6GMPAUENTITY@@W4FLOAT_TYPES@@@ZA[ecx+eax], OFFSET ?get_local_float_value@@YGMPAUENTITY@@W4FLOAT_TYPES@@@Z ; get_local_float_value

; 241  : }

  000d8	5f		 pop	 edi
  000d9	5e		 pop	 esi
  000da	5b		 pop	 ebx
  000db	8b e5		 mov	 esp, ebp
  000dd	5d		 pop	 ebp
  000de	c3		 ret	 0
?overload_camera_attitude_functions@@YGXXZ ENDP		; overload_camera_attitude_functions
_TEXT	ENDS
; Function compile flags: /Odtp /ZI
; File c:\program files (x86)\microsoft visual studio\2017\community\vc\tools\msvc\14.16.27023\include\cmath
;	COMDAT ?atan2@@YGMMM@Z
_TEXT	SEGMENT
__Yx$ = 8						; size = 4
__Xx$ = 12						; size = 4
?atan2@@YGMMM@Z PROC					; atan2, COMDAT

; 56   : 	{

  00000	55		 push	 ebp
  00001	8b ec		 mov	 ebp, esp
  00003	83 ec 40	 sub	 esp, 64			; 00000040H
  00006	53		 push	 ebx
  00007	56		 push	 esi
  00008	57		 push	 edi

; 57   : 	return (_CSTD atan2f(_Yx, _Xx));

  00009	51		 push	 ecx
  0000a	f3 0f 10 45 0c	 movss	 xmm0, DWORD PTR __Xx$[ebp]
  0000f	f3 0f 11 04 24	 movss	 DWORD PTR [esp], xmm0
  00014	51		 push	 ecx
  00015	f3 0f 10 45 08	 movss	 xmm0, DWORD PTR __Yx$[ebp]
  0001a	f3 0f 11 04 24	 movss	 DWORD PTR [esp], xmm0
  0001f	e8 00 00 00 00	 call	 _atan2f
  00024	83 c4 08	 add	 esp, 8

; 58   : 	}

  00027	5f		 pop	 edi
  00028	5e		 pop	 esi
  00029	5b		 pop	 ebx
  0002a	8b e5		 mov	 esp, ebp
  0002c	5d		 pop	 ebp
  0002d	c2 08 00	 ret	 8
?atan2@@YGMMM@Z ENDP					; atan2
_TEXT	ENDS
; Function compile flags: /Odtp /ZI
; File c:\program files (x86)\microsoft visual studio\2017\community\vc\tools\msvc\14.16.27023\include\cmath
;	COMDAT ?asin@@YGMM@Z
_TEXT	SEGMENT
__Xx$ = 8						; size = 4
?asin@@YGMM@Z PROC					; asin, COMDAT

; 36   : 	{

  00000	55		 push	 ebp
  00001	8b ec		 mov	 ebp, esp
  00003	83 ec 40	 sub	 esp, 64			; 00000040H
  00006	53		 push	 ebx
  00007	56		 push	 esi
  00008	57		 push	 edi

; 37   : 	return (_CSTD asinf(_Xx));

  00009	51		 push	 ecx
  0000a	f3 0f 10 45 08	 movss	 xmm0, DWORD PTR __Xx$[ebp]
  0000f	f3 0f 11 04 24	 movss	 DWORD PTR [esp], xmm0
  00014	e8 00 00 00 00	 call	 _asinf
  00019	83 c4 04	 add	 esp, 4

; 38   : 	}

  0001c	5f		 pop	 edi
  0001d	5e		 pop	 esi
  0001e	5b		 pop	 ebx
  0001f	8b e5		 mov	 esp, ebp
  00021	5d		 pop	 ebp
  00022	c2 04 00	 ret	 4
?asin@@YGMM@Z ENDP					; asin
_TEXT	ENDS
; Function compile flags: /Odtp /ZI
; File c:\program files (x86)\windows kits\10\include\10.0.18362.0\ucrt\corecrt_math.h
;	COMDAT _atan2f
_TEXT	SEGMENT
tv74 = -68						; size = 4
__Y$ = 8						; size = 4
__X$ = 12						; size = 4
_atan2f	PROC						; COMDAT

; 633  :         {

  00000	55		 push	 ebp
  00001	8b ec		 mov	 ebp, esp
  00003	83 ec 44	 sub	 esp, 68			; 00000044H
  00006	53		 push	 ebx
  00007	56		 push	 esi
  00008	57		 push	 edi

; 634  :             return (float)atan2(_Y, _X);

  00009	f3 0f 5a 45 0c	 cvtss2sd xmm0, DWORD PTR __X$[ebp]
  0000e	83 ec 08	 sub	 esp, 8
  00011	f2 0f 11 04 24	 movsd	 QWORD PTR [esp], xmm0
  00016	f3 0f 5a 45 08	 cvtss2sd xmm0, DWORD PTR __Y$[ebp]
  0001b	83 ec 08	 sub	 esp, 8
  0001e	f2 0f 11 04 24	 movsd	 QWORD PTR [esp], xmm0
  00023	e8 00 00 00 00	 call	 _atan2
  00028	83 c4 10	 add	 esp, 16			; 00000010H
  0002b	d9 5d bc	 fstp	 DWORD PTR tv74[ebp]
  0002e	d9 45 bc	 fld	 DWORD PTR tv74[ebp]

; 635  :         }

  00031	5f		 pop	 edi
  00032	5e		 pop	 esi
  00033	5b		 pop	 ebx
  00034	8b e5		 mov	 esp, ebp
  00036	5d		 pop	 ebp
  00037	c3		 ret	 0
_atan2f	ENDP
_TEXT	ENDS
; Function compile flags: /Odtp /ZI
; File c:\program files (x86)\windows kits\10\include\10.0.18362.0\ucrt\corecrt_math.h
;	COMDAT _asinf
_TEXT	SEGMENT
tv71 = -68						; size = 4
__X$ = 8						; size = 4
_asinf	PROC						; COMDAT

; 628  :         {

  00000	55		 push	 ebp
  00001	8b ec		 mov	 ebp, esp
  00003	83 ec 44	 sub	 esp, 68			; 00000044H
  00006	53		 push	 ebx
  00007	56		 push	 esi
  00008	57		 push	 edi

; 629  :             return (float)asin(_X);

  00009	f3 0f 5a 45 08	 cvtss2sd xmm0, DWORD PTR __X$[ebp]
  0000e	83 ec 08	 sub	 esp, 8
  00011	f2 0f 11 04 24	 movsd	 QWORD PTR [esp], xmm0
  00016	e8 00 00 00 00	 call	 _asin
  0001b	83 c4 08	 add	 esp, 8
  0001e	d9 5d bc	 fstp	 DWORD PTR tv71[ebp]
  00021	d9 45 bc	 fld	 DWORD PTR tv71[ebp]

; 630  :         }

  00024	5f		 pop	 edi
  00025	5e		 pop	 esi
  00026	5b		 pop	 ebx
  00027	8b e5		 mov	 esp, ebp
  00029	5d		 pop	 ebp
  0002a	c3		 ret	 0
_asinf	ENDP
_TEXT	ENDS
END
