; Listing generated by Microsoft (R) Optimizing Compiler Version 19.16.27045.0 

	TITLE	C:\Users\nhv90\Projects\eech\aphavoc\source\entity\special\camera\cm_creat.c
	.686P
	.XMM
	include listing.inc
	.model	flat

INCLUDELIB MSVCRTD
INCLUDELIB OLDNAMES

PUBLIC	?create_local_camera_entity@@YGXXZ		; create_local_camera_entity
PUBLIC	?overload_camera_create_functions@@YGXXZ	; overload_camera_create_functions
PUBLIC	?__LINE__Var@?0??create_local@@YGPAUENTITY@@W4ENTITY_TYPES@@HPAD@Z@4JA ; `create_local'::`1'::__LINE__Var
PUBLIC	??_C@_0EN@LAOLFNLM@c?3?2users?2nhv90?2projects?2eech?2ap@ ; `string'
PUBLIC	??_C@_0CL@OOPHFNJI@assert_local_create_entity_inde@ ; `string'
PUBLIC	??_C@_0BG@JFNHLNGM@?$CBget_camera_entity?5?$CI?$CJ@ ; `string'
EXTRN	_memset:PROC
EXTRN	?process_assert@@YGXPBD0H@Z:PROC		; process_assert
EXTRN	?malloc_fast_memory@@YGPAXI@Z:PROC		; malloc_fast_memory
EXTRN	?get_identity_matrix3x3@@YGXQAY02M@Z:PROC	; get_identity_matrix3x3
EXTRN	?set_local_entity_attributes@@YGXPAUENTITY@@PAD@Z:PROC ; set_local_entity_attributes
EXTRN	?insert_local_entity_into_parents_child_list@@YGXPAUENTITY@@W4LIST_TYPES@@00@Z:PROC ; insert_local_entity_into_parents_child_list
EXTRN	?create_local_entity@@YAPAUENTITY@@W4ENTITY_TYPES@@HZZ:PROC ; create_local_entity
EXTRN	?assert_local_create_entity_index@@YGHH@Z:PROC	; assert_local_create_entity_index
EXTRN	?get_free_entity@@YGPAUENTITY@@H@Z:PROC		; get_free_entity
EXTRN	?set_camera_entity@@YGXPAUENTITY@@@Z:PROC	; set_camera_entity
EXTRN	?reset_chase_camera_position@@YGXPAUCAMERA@@@Z:PROC ; reset_chase_camera_position
EXTRN	?reset_cinematic_camera_for_new_view_entity@@YGXPAUCAMERA@@@Z:PROC ; reset_cinematic_camera_for_new_view_entity
EXTRN	?world_map@@3UWORLD_MAP_DATA@@A:BYTE		; world_map
EXTRN	?fn_create_local_entity@@3PAP6GPAUENTITY@@W4ENTITY_TYPES@@HPAD@ZA:BYTE ; fn_create_local_entity
EXTRN	?camera_entity@@3PAUENTITY@@A:DWORD		; camera_entity
EXTRN	?update_entity@@3PAUENTITY@@A:DWORD		; update_entity
EXTRN	__fltused:DWORD
;	COMDAT ??_C@_0BG@JFNHLNGM@?$CBget_camera_entity?5?$CI?$CJ@
CONST	SEGMENT
??_C@_0BG@JFNHLNGM@?$CBget_camera_entity?5?$CI?$CJ@ DB '!get_camera_entit'
	DB	'y ()', 00H					; `string'
CONST	ENDS
;	COMDAT ??_C@_0CL@OOPHFNJI@assert_local_create_entity_inde@
CONST	SEGMENT
??_C@_0CL@OOPHFNJI@assert_local_create_entity_inde@ DB 'assert_local_crea'
	DB	'te_entity_index ((index))', 00H		; `string'
CONST	ENDS
;	COMDAT ??_C@_0EN@LAOLFNLM@c?3?2users?2nhv90?2projects?2eech?2ap@
CONST	SEGMENT
??_C@_0EN@LAOLFNLM@c?3?2users?2nhv90?2projects?2eech?2ap@ DB 'c:\users\nh'
	DB	'v90\projects\eech\aphavoc\source\entity\special\camera\cm_cre'
	DB	'at.c', 00H					; `string'
CONST	ENDS
;	COMDAT ?__LINE__Var@?0??create_local@@YGPAUENTITY@@W4ENTITY_TYPES@@HPAD@Z@4JA
_DATA	SEGMENT
?__LINE__Var@?0??create_local@@YGPAUENTITY@@W4ENTITY_TYPES@@HPAD@Z@4JA DD 061H ; `create_local'::`1'::__LINE__Var
_DATA	ENDS
; Function compile flags: /Odtp /ZI
; File c:\users\nhv90\projects\eech\aphavoc\source\entity\special\camera\cm_creat.c
;	COMDAT ?create_local@@YGPAUENTITY@@W4ENTITY_TYPES@@HPAD@Z
_TEXT	SEGMENT
_raw$ = -8						; size = 4
_en$ = -4						; size = 4
_type$ = 8						; size = 4
_index$ = 12						; size = 4
_pargs$ = 16						; size = 4
?create_local@@YGPAUENTITY@@W4ENTITY_TYPES@@HPAD@Z PROC	; create_local, COMDAT

; 97   : {

  00000	55		 push	 ebp
  00001	8b ec		 mov	 ebp, esp
  00003	83 ec 48	 sub	 esp, 72			; 00000048H
  00006	53		 push	 ebx
  00007	56		 push	 esi
  00008	57		 push	 edi

; 98   : 	entity
; 99   : 		*en;
; 100  : 
; 101  : 	camera
; 102  : 		*raw;
; 103  : 
; 104  : 	////////////////////////////////////////
; 105  :   	//
; 106  :   	// VALIDATE
; 107  :   	//
; 108  : 	////////////////////////////////////////
; 109  : 
; 110  : 	validate_local_create_entity_index (index);

  00009	8b 45 0c	 mov	 eax, DWORD PTR _index$[ebp]
  0000c	50		 push	 eax
  0000d	e8 00 00 00 00	 call	 ?assert_local_create_entity_index@@YGHH@Z ; assert_local_create_entity_index
  00012	85 c0		 test	 eax, eax
  00014	75 18		 jne	 SHORT $LN2@create_loc
  00016	a1 00 00 00 00	 mov	 eax, DWORD PTR ?__LINE__Var@?0??create_local@@YGPAUENTITY@@W4ENTITY_TYPES@@HPAD@Z@4JA
  0001b	83 c0 0d	 add	 eax, 13			; 0000000dH
  0001e	50		 push	 eax
  0001f	68 00 00 00 00	 push	 OFFSET ??_C@_0EN@LAOLFNLM@c?3?2users?2nhv90?2projects?2eech?2ap@
  00024	68 00 00 00 00	 push	 OFFSET ??_C@_0CL@OOPHFNJI@assert_local_create_entity_inde@
  00029	e8 00 00 00 00	 call	 ?process_assert@@YGXPBD0H@Z ; process_assert
$LN2@create_loc:

; 111  : 
; 112  : 	#if DEBUG_MODULE
; 113  : 
; 114  : 	debug_log_entity_args (ENTITY_DEBUG_LOCAL, ENTITY_DEBUG_CREATE, NULL, type, index);
; 115  : 
; 116  : 	#endif
; 117  : 
; 118  : 	en = get_free_entity (index);

  0002e	8b 45 0c	 mov	 eax, DWORD PTR _index$[ebp]
  00031	50		 push	 eax
  00032	e8 00 00 00 00	 call	 ?get_free_entity@@YGPAUENTITY@@H@Z ; get_free_entity
  00037	89 45 fc	 mov	 DWORD PTR _en$[ebp], eax

; 119  : 
; 120  : 	ASSERT (!get_camera_entity ());

  0003a	83 3d 00 00 00
	00 00		 cmp	 DWORD PTR ?camera_entity@@3PAUENTITY@@A, 0 ; camera_entity
  00041	74 18		 je	 SHORT $LN3@create_loc
  00043	a1 00 00 00 00	 mov	 eax, DWORD PTR ?__LINE__Var@?0??create_local@@YGPAUENTITY@@W4ENTITY_TYPES@@HPAD@Z@4JA
  00048	83 c0 17	 add	 eax, 23			; 00000017H
  0004b	50		 push	 eax
  0004c	68 00 00 00 00	 push	 OFFSET ??_C@_0EN@LAOLFNLM@c?3?2users?2nhv90?2projects?2eech?2ap@
  00051	68 00 00 00 00	 push	 OFFSET ??_C@_0BG@JFNHLNGM@?$CBget_camera_entity?5?$CI?$CJ@
  00056	e8 00 00 00 00	 call	 ?process_assert@@YGXPBD0H@Z ; process_assert
$LN3@create_loc:

; 121  : 
; 122  : 	if (en)

  0005b	83 7d fc 00	 cmp	 DWORD PTR _en$[ebp], 0
  0005f	0f 84 63 01 00
	00		 je	 $LN4@create_loc

; 123  : 	{
; 124  : 		////////////////////////////////////////
; 125  :    	//
; 126  :    	// MALLOC ENTITY DATA
; 127  :    	//
; 128  : 		////////////////////////////////////////
; 129  : 
; 130  : 		set_local_entity_type (en, type);

  00065	8b 45 fc	 mov	 eax, DWORD PTR _en$[ebp]
  00068	8b 4d 08	 mov	 ecx, DWORD PTR _type$[ebp]
  0006b	89 08		 mov	 DWORD PTR [eax], ecx

; 131  : 
; 132  : 		raw = (camera *) malloc_fast_mem (sizeof (camera));

  0006d	68 64 01 00 00	 push	 356			; 00000164H
  00072	e8 00 00 00 00	 call	 ?malloc_fast_memory@@YGPAXI@Z ; malloc_fast_memory
  00077	89 45 f8	 mov	 DWORD PTR _raw$[ebp], eax

; 133  : 
; 134  : 		set_local_entity_data (en, raw);

  0007a	8b 45 fc	 mov	 eax, DWORD PTR _en$[ebp]
  0007d	8b 4d f8	 mov	 ecx, DWORD PTR _raw$[ebp]
  00080	89 48 04	 mov	 DWORD PTR [eax+4], ecx

; 135  : 
; 136  : 		////////////////////////////////////////
; 137  :    	//
; 138  :    	// INITIALISE ALL ENTITY DATA TO 'WORKING' DEFAULT VALUES
; 139  : 		//
; 140  : 		// DO NOT USE ACCESS FUNCTIONS
; 141  : 		//
; 142  : 		// DO NOT USE RANDOM VALUES
; 143  : 		//
; 144  : 		////////////////////////////////////////
; 145  : 
; 146  : 		memset (raw, 0, sizeof (camera));

  00083	68 64 01 00 00	 push	 356			; 00000164H
  00088	6a 00		 push	 0
  0008a	8b 45 f8	 mov	 eax, DWORD PTR _raw$[ebp]
  0008d	50		 push	 eax
  0008e	e8 00 00 00 00	 call	 _memset
  00093	83 c4 0c	 add	 esp, 12			; 0000000cH

; 147  : 
; 148  : 		raw->position.x = MID_MAP_X;

  00096	8b 45 f8	 mov	 eax, DWORD PTR _raw$[ebp]
  00099	f3 0f 10 05 30
	00 00 00	 movss	 xmm0, DWORD PTR ?world_map@@3UWORLD_MAP_DATA@@A+48
  000a1	f3 0f 11 00	 movss	 DWORD PTR [eax], xmm0

; 149  : 		raw->position.y = MID_MAP_Y;

  000a5	8b 45 f8	 mov	 eax, DWORD PTR _raw$[ebp]
  000a8	f3 0f 10 05 34
	00 00 00	 movss	 xmm0, DWORD PTR ?world_map@@3UWORLD_MAP_DATA@@A+52
  000b0	f3 0f 11 40 04	 movss	 DWORD PTR [eax+4], xmm0

; 150  : 		raw->position.z = MID_MAP_Z;

  000b5	8b 45 f8	 mov	 eax, DWORD PTR _raw$[ebp]
  000b8	f3 0f 10 05 38
	00 00 00	 movss	 xmm0, DWORD PTR ?world_map@@3UWORLD_MAP_DATA@@A+56
  000c0	f3 0f 11 40 08	 movss	 DWORD PTR [eax+8], xmm0

; 151  : 
; 152  : 		raw->offset.x = 0;

  000c5	8b 45 f8	 mov	 eax, DWORD PTR _raw$[ebp]
  000c8	0f 57 c0	 xorps	 xmm0, xmm0
  000cb	f3 0f 11 80 34
	01 00 00	 movss	 DWORD PTR [eax+308], xmm0

; 153  : 		raw->offset.y = 0;

  000d3	8b 45 f8	 mov	 eax, DWORD PTR _raw$[ebp]
  000d6	0f 57 c0	 xorps	 xmm0, xmm0
  000d9	f3 0f 11 80 38
	01 00 00	 movss	 DWORD PTR [eax+312], xmm0

; 154  : 		raw->offset.z = 0;

  000e1	8b 45 f8	 mov	 eax, DWORD PTR _raw$[ebp]
  000e4	0f 57 c0	 xorps	 xmm0, xmm0
  000e7	f3 0f 11 80 3c
	01 00 00	 movss	 DWORD PTR [eax+316], xmm0

; 155  : 
; 156  : 		raw->offset_movement.x = 0;

  000ef	8b 45 f8	 mov	 eax, DWORD PTR _raw$[ebp]
  000f2	0f 57 c0	 xorps	 xmm0, xmm0
  000f5	f3 0f 11 80 40
	01 00 00	 movss	 DWORD PTR [eax+320], xmm0

; 157  : 		raw->offset_movement.y = 0;

  000fd	8b 45 f8	 mov	 eax, DWORD PTR _raw$[ebp]
  00100	0f 57 c0	 xorps	 xmm0, xmm0
  00103	f3 0f 11 80 44
	01 00 00	 movss	 DWORD PTR [eax+324], xmm0

; 158  : 		raw->offset_movement.z = 0;

  0010b	8b 45 f8	 mov	 eax, DWORD PTR _raw$[ebp]
  0010e	0f 57 c0	 xorps	 xmm0, xmm0
  00111	f3 0f 11 80 48
	01 00 00	 movss	 DWORD PTR [eax+328], xmm0

; 159  : 
; 160  : 	
; 161  : 		raw->turbulence_offset.x = 0.0;

  00119	8b 45 f8	 mov	 eax, DWORD PTR _raw$[ebp]
  0011c	0f 57 c0	 xorps	 xmm0, xmm0
  0011f	f3 0f 11 80 4c
	01 00 00	 movss	 DWORD PTR [eax+332], xmm0

; 162  : 		raw->turbulence_offset.y = 0.0;

  00127	8b 45 f8	 mov	 eax, DWORD PTR _raw$[ebp]
  0012a	0f 57 c0	 xorps	 xmm0, xmm0
  0012d	f3 0f 11 80 50
	01 00 00	 movss	 DWORD PTR [eax+336], xmm0

; 163  : 		raw->turbulence_offset.z = 0.0;

  00135	8b 45 f8	 mov	 eax, DWORD PTR _raw$[ebp]
  00138	0f 57 c0	 xorps	 xmm0, xmm0
  0013b	f3 0f 11 80 54
	01 00 00	 movss	 DWORD PTR [eax+340], xmm0

; 164  : 	
; 165  : 		raw->turbulence_movement.x = 0.0;

  00143	8b 45 f8	 mov	 eax, DWORD PTR _raw$[ebp]
  00146	0f 57 c0	 xorps	 xmm0, xmm0
  00149	f3 0f 11 80 58
	01 00 00	 movss	 DWORD PTR [eax+344], xmm0

; 166  : 		raw->turbulence_movement.y = 0.0;

  00151	8b 45 f8	 mov	 eax, DWORD PTR _raw$[ebp]
  00154	0f 57 c0	 xorps	 xmm0, xmm0
  00157	f3 0f 11 80 5c
	01 00 00	 movss	 DWORD PTR [eax+348], xmm0

; 167  : 		raw->turbulence_movement.z = 0.0;

  0015f	8b 45 f8	 mov	 eax, DWORD PTR _raw$[ebp]
  00162	0f 57 c0	 xorps	 xmm0, xmm0
  00165	f3 0f 11 80 60
	01 00 00	 movss	 DWORD PTR [eax+352], xmm0

; 168  : 	
; 169  : 		get_identity_matrix3x3 (raw->attitude);

  0016d	8b 45 f8	 mov	 eax, DWORD PTR _raw$[ebp]
  00170	83 c0 18	 add	 eax, 24			; 00000018H
  00173	50		 push	 eax
  00174	e8 00 00 00 00	 call	 ?get_identity_matrix3x3@@YGXQAY02M@Z ; get_identity_matrix3x3

; 170  : 
; 171  : 		raw->camera_mode = CAMERA_MODE_CHASE;

  00179	8b 45 f8	 mov	 eax, DWORD PTR _raw$[ebp]
  0017c	c7 40 3c 00 00
	00 00		 mov	 DWORD PTR [eax+60], 0

; 172  : 
; 173  : 		raw->chase_camera_lock_rotate = TRUE;

  00183	8b 45 f8	 mov	 eax, DWORD PTR _raw$[ebp]
  00186	c7 40 7c 01 00
	00 00		 mov	 DWORD PTR [eax+124], 1

; 174  : 
; 175  : 		reset_chase_camera_position (raw);

  0018d	8b 45 f8	 mov	 eax, DWORD PTR _raw$[ebp]
  00190	50		 push	 eax
  00191	e8 00 00 00 00	 call	 ?reset_chase_camera_position@@YGXPAUCAMERA@@@Z ; reset_chase_camera_position

; 176  : 
; 177  : 		reset_cinematic_camera_for_new_view_entity (raw);

  00196	8b 45 f8	 mov	 eax, DWORD PTR _raw$[ebp]
  00199	50		 push	 eax
  0019a	e8 00 00 00 00	 call	 ?reset_cinematic_camera_for_new_view_entity@@YGXPAUCAMERA@@@Z ; reset_cinematic_camera_for_new_view_entity

; 178  : 
; 179  : 		////////////////////////////////////////
; 180  : 		//
; 181  : 		// OVERWRITE DEFAULT VALUES WITH GIVEN ATTRIBUTES
; 182  : 		//
; 183  : 		////////////////////////////////////////
; 184  : 
; 185  : 		set_local_entity_attributes (en, pargs);

  0019f	8b 45 10	 mov	 eax, DWORD PTR _pargs$[ebp]
  001a2	50		 push	 eax
  001a3	8b 4d fc	 mov	 ecx, DWORD PTR _en$[ebp]
  001a6	51		 push	 ecx
  001a7	e8 00 00 00 00	 call	 ?set_local_entity_attributes@@YGXPAUENTITY@@PAD@Z ; set_local_entity_attributes

; 186  : 
; 187  : 		////////////////////////////////////////
; 188  : 		//
; 189  : 		// CHECK MANDATORY ATTRIBUTES HAVE BEEN GIVEN
; 190  : 		//
; 191  : 		////////////////////////////////////////
; 192  : 
; 193  : 		////////////////////////////////////////
; 194  : 		//
; 195  : 		// RESOLVE DEFAULT VALUES
; 196  : 		//
; 197  : 		////////////////////////////////////////
; 198  : 
; 199  : 		////////////////////////////////////////
; 200  : 		//
; 201  : 		// LINK INTO SYSTEM
; 202  : 		//
; 203  : 		////////////////////////////////////////
; 204  : 
; 205  : 		insert_local_entity_into_parents_child_list (en, LIST_TYPE_UPDATE, get_update_entity (), NULL);

  001ac	6a 00		 push	 0
  001ae	a1 00 00 00 00	 mov	 eax, DWORD PTR ?update_entity@@3PAUENTITY@@A ; update_entity
  001b3	50		 push	 eax
  001b4	6a 29		 push	 41			; 00000029H
  001b6	8b 4d fc	 mov	 ecx, DWORD PTR _en$[ebp]
  001b9	51		 push	 ecx
  001ba	e8 00 00 00 00	 call	 ?insert_local_entity_into_parents_child_list@@YGXPAUENTITY@@W4LIST_TYPES@@00@Z ; insert_local_entity_into_parents_child_list

; 206  : 
; 207  : 		set_camera_entity (en);

  001bf	8b 45 fc	 mov	 eax, DWORD PTR _en$[ebp]
  001c2	50		 push	 eax
  001c3	e8 00 00 00 00	 call	 ?set_camera_entity@@YGXPAUENTITY@@@Z ; set_camera_entity
$LN4@create_loc:

; 208  : 	}
; 209  : 
; 210  : 	return (en);

  001c8	8b 45 fc	 mov	 eax, DWORD PTR _en$[ebp]

; 211  : }

  001cb	5f		 pop	 edi
  001cc	5e		 pop	 esi
  001cd	5b		 pop	 ebx
  001ce	8b e5		 mov	 esp, ebp
  001d0	5d		 pop	 ebp
  001d1	c2 0c 00	 ret	 12			; 0000000cH
?create_local@@YGPAUENTITY@@W4ENTITY_TYPES@@HPAD@Z ENDP	; create_local
_TEXT	ENDS
; Function compile flags: /Odtp /ZI
; File c:\users\nhv90\projects\eech\aphavoc\source\entity\special\camera\cm_creat.c
;	COMDAT ?overload_camera_create_functions@@YGXXZ
_TEXT	SEGMENT
?overload_camera_create_functions@@YGXXZ PROC		; overload_camera_create_functions, COMDAT

; 218  : {

  00000	55		 push	 ebp
  00001	8b ec		 mov	 ebp, esp
  00003	83 ec 40	 sub	 esp, 64			; 00000040H
  00006	53		 push	 ebx
  00007	56		 push	 esi
  00008	57		 push	 edi

; 219  : 	fn_create_local_entity[ENTITY_TYPE_CAMERA] = create_local;

  00009	b8 04 00 00 00	 mov	 eax, 4
  0000e	6b c8 03	 imul	 ecx, eax, 3
  00011	c7 81 00 00 00
	00 00 00 00 00	 mov	 DWORD PTR ?fn_create_local_entity@@3PAP6GPAUENTITY@@W4ENTITY_TYPES@@HPAD@ZA[ecx], OFFSET ?create_local@@YGPAUENTITY@@W4ENTITY_TYPES@@HPAD@Z ; create_local

; 220  : }

  0001b	5f		 pop	 edi
  0001c	5e		 pop	 esi
  0001d	5b		 pop	 ebx
  0001e	8b e5		 mov	 esp, ebp
  00020	5d		 pop	 ebp
  00021	c3		 ret	 0
?overload_camera_create_functions@@YGXXZ ENDP		; overload_camera_create_functions
_TEXT	ENDS
; Function compile flags: /Odtp /ZI
; File c:\users\nhv90\projects\eech\aphavoc\source\entity\special\camera\cm_creat.c
;	COMDAT ?create_local_camera_entity@@YGXXZ
_TEXT	SEGMENT
?create_local_camera_entity@@YGXXZ PROC			; create_local_camera_entity, COMDAT

; 88   : {

  00000	55		 push	 ebp
  00001	8b ec		 mov	 ebp, esp
  00003	83 ec 40	 sub	 esp, 64			; 00000040H
  00006	53		 push	 ebx
  00007	56		 push	 esi
  00008	57		 push	 edi

; 89   : 	create_local_entity (ENTITY_TYPE_CAMERA, ENTITY_INDEX_DONT_CARE, ENTITY_ATTR_END);

  00009	6a 00		 push	 0
  0000b	6a ff		 push	 -1
  0000d	6a 03		 push	 3
  0000f	e8 00 00 00 00	 call	 ?create_local_entity@@YAPAUENTITY@@W4ENTITY_TYPES@@HZZ ; create_local_entity
  00014	83 c4 0c	 add	 esp, 12			; 0000000cH

; 90   : }

  00017	5f		 pop	 edi
  00018	5e		 pop	 esi
  00019	5b		 pop	 ebx
  0001a	8b e5		 mov	 esp, ebp
  0001c	5d		 pop	 ebp
  0001d	c3		 ret	 0
?create_local_camera_entity@@YGXXZ ENDP			; create_local_camera_entity
_TEXT	ENDS
END
