; Listing generated by Microsoft (R) Optimizing Compiler Version 19.16.27045.0 

	TITLE	C:\Users\nhv90\Projects\eech\aphavoc\source\entity\special\camera\cm_dbrf.c
	.686P
	.XMM
	include listing.inc
	.model	flat

INCLUDELIB MSVCRTD
INCLUDELIB OLDNAMES

PUBLIC	?debriefing_camera_valid@@YGHPAUCAMERA@@@Z	; debriefing_camera_valid
PUBLIC	?reset_debriefing_camera@@YGXPAUCAMERA@@@Z	; reset_debriefing_camera
PUBLIC	?update_debriefing_camera@@YGXPAUCAMERA@@@Z	; update_debriefing_camera
PUBLIC	??$max@M@std@@YGABMABM0@Z			; std::max<float>
PUBLIC	??_C@_02DKCKIIND@?$CFs@				; `string'
PUBLIC	?__LINE__Var@?0??debriefing_camera_valid@@YGHPAUCAMERA@@@Z@4JA ; `debriefing_camera_valid'::`1'::__LINE__Var
PUBLIC	??_C@_0EM@ECOEHLII@c?3?2users?2nhv90?2projects?2eech?2ap@ ; `string'
PUBLIC	??_C@_03DGOGAGNC@raw@				; `string'
PUBLIC	?__LINE__Var@?0??reset_debriefing_camera@@YGXPAUCAMERA@@@Z@4JA ; `reset_debriefing_camera'::`1'::__LINE__Var
PUBLIC	??_C@_0BK@NIGJPCBN@raw?9?$DOexternal_view_entity@ ; `string'
PUBLIC	?__LINE__Var@?0??update_debriefing_camera@@YGXPAUCAMERA@@@Z@4JA ; `update_debriefing_camera'::`1'::__LINE__Var
PUBLIC	??_C@_0BD@FEEMDEPI@invalid?5comparator@		; `string'
PUBLIC	??_C@_0GK@JMBMHIBC@c?3?2program?5files?5?$CIx86?$CJ?2microsof@ ; `string'
PUBLIC	??_C@_1NE@FKBPBJEB@?$AAc?$AA?3?$AA?2?$AAp?$AAr?$AAo?$AAg?$AAr?$AAa?$AAm?$AA?5?$AAf?$AAi?$AAl?$AAe@ ; `string'
PUBLIC	??_C@_1BC@ICCOKLEG@?$AAs?$AAt?$AAd?$AA?3?$AA?3?$AAm?$AAa?$AAx@ ; `string'
PUBLIC	??_C@_1CK@NDNHPKPI@?$AA?$CC?$AAi?$AAn?$AAv?$AAa?$AAl?$AAi?$AAd?$AA?5?$AAc?$AAo?$AAm?$AAp?$AAa?$AAr@ ; `string'
PUBLIC	__real@3f000000
PUBLIC	__real@400921fb51000000
PUBLIC	__real@be860a92
PUBLIC	__xmm@80000000800000008000000080000000
EXTRN	__imp___invalid_parameter:PROC
EXTRN	__imp___CrtDbgReport:PROC
EXTRN	?process_assert@@YGXPBD0H@Z:PROC		; process_assert
EXTRN	?get_3d_transformation_matrix@@YGXQAY02MMMM@Z:PROC ; get_3d_transformation_matrix
EXTRN	?multiply_matrix3x3_vec3d@@YGXPAUVEC3D@@QAY02$$CBMPBU1@@Z:PROC ; multiply_matrix3x3_vec3d
EXTRN	?get_3d_terrain_point_data@@YGMMMPAUTERRAIN_3D_POINT_DATA@@@Z:PROC ; get_3d_terrain_point_data
EXTRN	?get_local_entity_target_point@@YGXPAUENTITY@@PAUVEC3D@@@Z:PROC ; get_local_entity_target_point
EXTRN	?null_entity_pointer_message@@3PBDB:DWORD	; null_entity_pointer_message
EXTRN	?world_map@@3UWORLD_MAP_DATA@@A:BYTE		; world_map
EXTRN	?overload_invalid_float_type_message@@3PBDB:DWORD ; overload_invalid_float_type_message
EXTRN	?fn_get_local_entity_float_value@@3PAY0KP@P6GMPAUENTITY@@W4FLOAT_TYPES@@@ZA:BYTE ; fn_get_local_entity_float_value
EXTRN	?overload_invalid_vec3d_type_message@@3PBDB:DWORD ; overload_invalid_vec3d_type_message
EXTRN	?fn_get_local_entity_vec3d@@3PAY0BI@P6GXPAUENTITY@@W4VEC3D_TYPES@@PAUVEC3D@@@ZA:BYTE ; fn_get_local_entity_vec3d
EXTRN	?gunship_entity@@3PAUENTITY@@A:DWORD		; gunship_entity
EXTRN	__fltused:DWORD
;	COMDAT __xmm@80000000800000008000000080000000
CONST	SEGMENT
__xmm@80000000800000008000000080000000 DB 00H, 00H, 00H, 080H, 00H, 00H, 00H
	DB	080H, 00H, 00H, 00H, 080H, 00H, 00H, 00H, 080H
CONST	ENDS
;	COMDAT __real@be860a92
CONST	SEGMENT
__real@be860a92 DD 0be860a92r			; -0.261799
CONST	ENDS
;	COMDAT __real@400921fb51000000
CONST	SEGMENT
__real@400921fb51000000 DQ 0400921fb51000000r	; 3.14159
CONST	ENDS
;	COMDAT __real@3f000000
CONST	SEGMENT
__real@3f000000 DD 03f000000r			; 0.5
CONST	ENDS
;	COMDAT ??_C@_1CK@NDNHPKPI@?$AA?$CC?$AAi?$AAn?$AAv?$AAa?$AAl?$AAi?$AAd?$AA?5?$AAc?$AAo?$AAm?$AAp?$AAa?$AAr@
CONST	SEGMENT
??_C@_1CK@NDNHPKPI@?$AA?$CC?$AAi?$AAn?$AAv?$AAa?$AAl?$AAi?$AAd?$AA?5?$AAc?$AAo?$AAm?$AAp?$AAa?$AAr@ DB '"'
	DB	00H, 'i', 00H, 'n', 00H, 'v', 00H, 'a', 00H, 'l', 00H, 'i', 00H
	DB	'd', 00H, ' ', 00H, 'c', 00H, 'o', 00H, 'm', 00H, 'p', 00H, 'a'
	DB	00H, 'r', 00H, 'a', 00H, 't', 00H, 'o', 00H, 'r', 00H, '"', 00H
	DB	00H, 00H					; `string'
CONST	ENDS
;	COMDAT ??_C@_1BC@ICCOKLEG@?$AAs?$AAt?$AAd?$AA?3?$AA?3?$AAm?$AAa?$AAx@
CONST	SEGMENT
??_C@_1BC@ICCOKLEG@?$AAs?$AAt?$AAd?$AA?3?$AA?3?$AAm?$AAa?$AAx@ DB 's', 00H
	DB	't', 00H, 'd', 00H, ':', 00H, ':', 00H, 'm', 00H, 'a', 00H, 'x'
	DB	00H, 00H, 00H				; `string'
CONST	ENDS
;	COMDAT ??_C@_1NE@FKBPBJEB@?$AAc?$AA?3?$AA?2?$AAp?$AAr?$AAo?$AAg?$AAr?$AAa?$AAm?$AA?5?$AAf?$AAi?$AAl?$AAe@
CONST	SEGMENT
??_C@_1NE@FKBPBJEB@?$AAc?$AA?3?$AA?2?$AAp?$AAr?$AAo?$AAg?$AAr?$AAa?$AAm?$AA?5?$AAf?$AAi?$AAl?$AAe@ DB 'c'
	DB	00H, ':', 00H, '\', 00H, 'p', 00H, 'r', 00H, 'o', 00H, 'g', 00H
	DB	'r', 00H, 'a', 00H, 'm', 00H, ' ', 00H, 'f', 00H, 'i', 00H, 'l'
	DB	00H, 'e', 00H, 's', 00H, ' ', 00H, '(', 00H, 'x', 00H, '8', 00H
	DB	'6', 00H, ')', 00H, '\', 00H, 'm', 00H, 'i', 00H, 'c', 00H, 'r'
	DB	00H, 'o', 00H, 's', 00H, 'o', 00H, 'f', 00H, 't', 00H, ' ', 00H
	DB	'v', 00H, 'i', 00H, 's', 00H, 'u', 00H, 'a', 00H, 'l', 00H, ' '
	DB	00H, 's', 00H, 't', 00H, 'u', 00H, 'd', 00H, 'i', 00H, 'o', 00H
	DB	'\', 00H, '2', 00H, '0', 00H, '1', 00H, '7', 00H, '\', 00H, 'c'
	DB	00H, 'o', 00H, 'm', 00H, 'm', 00H, 'u', 00H, 'n', 00H, 'i', 00H
	DB	't', 00H, 'y', 00H, '\', 00H, 'v', 00H, 'c', 00H, '\', 00H, 't'
	DB	00H, 'o', 00H, 'o', 00H, 'l', 00H, 's', 00H, '\', 00H, 'm', 00H
	DB	's', 00H, 'v', 00H, 'c', 00H, '\', 00H, '1', 00H, '4', 00H, '.'
	DB	00H, '1', 00H, '6', 00H, '.', 00H, '2', 00H, '7', 00H, '0', 00H
	DB	'2', 00H, '3', 00H, '\', 00H, 'i', 00H, 'n', 00H, 'c', 00H, 'l'
	DB	00H, 'u', 00H, 'd', 00H, 'e', 00H, '\', 00H, 'a', 00H, 'l', 00H
	DB	'g', 00H, 'o', 00H, 'r', 00H, 'i', 00H, 't', 00H, 'h', 00H, 'm'
	DB	00H, 00H, 00H				; `string'
CONST	ENDS
;	COMDAT ??_C@_0GK@JMBMHIBC@c?3?2program?5files?5?$CIx86?$CJ?2microsof@
CONST	SEGMENT
??_C@_0GK@JMBMHIBC@c?3?2program?5files?5?$CIx86?$CJ?2microsof@ DB 'c:\pro'
	DB	'gram files (x86)\microsoft visual studio\2017\community\vc\to'
	DB	'ols\msvc\14.16.27023\include\algorithm', 00H ; `string'
CONST	ENDS
;	COMDAT ??_C@_0BD@FEEMDEPI@invalid?5comparator@
CONST	SEGMENT
??_C@_0BD@FEEMDEPI@invalid?5comparator@ DB 'invalid comparator', 00H ; `string'
CONST	ENDS
;	COMDAT ?__LINE__Var@?0??update_debriefing_camera@@YGXPAUCAMERA@@@Z@4JA
_DATA	SEGMENT
?__LINE__Var@?0??update_debriefing_camera@@YGXPAUCAMERA@@@Z@4JA DD 076H ; `update_debriefing_camera'::`1'::__LINE__Var
_DATA	ENDS
;	COMDAT ??_C@_0BK@NIGJPCBN@raw?9?$DOexternal_view_entity@
CONST	SEGMENT
??_C@_0BK@NIGJPCBN@raw?9?$DOexternal_view_entity@ DB 'raw->external_view_'
	DB	'entity', 00H				; `string'
CONST	ENDS
;	COMDAT ?__LINE__Var@?0??reset_debriefing_camera@@YGXPAUCAMERA@@@Z@4JA
_DATA	SEGMENT
?__LINE__Var@?0??reset_debriefing_camera@@YGXPAUCAMERA@@@Z@4JA DD 063H ; `reset_debriefing_camera'::`1'::__LINE__Var
_DATA	ENDS
;	COMDAT ??_C@_03DGOGAGNC@raw@
CONST	SEGMENT
??_C@_03DGOGAGNC@raw@ DB 'raw', 00H			; `string'
CONST	ENDS
;	COMDAT ??_C@_0EM@ECOEHLII@c?3?2users?2nhv90?2projects?2eech?2ap@
CONST	SEGMENT
??_C@_0EM@ECOEHLII@c?3?2users?2nhv90?2projects?2eech?2ap@ DB 'c:\users\nh'
	DB	'v90\projects\eech\aphavoc\source\entity\special\camera\cm_dbr'
	DB	'f.c', 00H					; `string'
CONST	ENDS
;	COMDAT ?__LINE__Var@?0??debriefing_camera_valid@@YGHPAUCAMERA@@@Z@4JA
_DATA	SEGMENT
?__LINE__Var@?0??debriefing_camera_valid@@YGHPAUCAMERA@@@Z@4JA DD 050H ; `debriefing_camera_valid'::`1'::__LINE__Var
_DATA	ENDS
;	COMDAT ??_C@_02DKCKIIND@?$CFs@
CONST	SEGMENT
??_C@_02DKCKIIND@?$CFs@ DB '%s', 00H			; `string'
CONST	ENDS
; Function compile flags: /Odtp /ZI
; File c:\program files (x86)\microsoft visual studio\2017\community\vc\tools\msvc\14.16.27023\include\algorithm
;	COMDAT ??$max@M@std@@YGABMABM0@Z
_TEXT	SEGMENT
__Left$ = 8						; size = 4
__Right$ = 12						; size = 4
??$max@M@std@@YGABMABM0@Z PROC				; std::max<float>, COMDAT

; 5387 : 	{	// return larger of _Left and _Right

  00000	55		 push	 ebp
  00001	8b ec		 mov	 ebp, esp
  00003	83 ec 40	 sub	 esp, 64			; 00000040H
  00006	53		 push	 ebx
  00007	56		 push	 esi
  00008	57		 push	 edi

; 5388 : 	if (_Left < _Right)

  00009	8b 45 0c	 mov	 eax, DWORD PTR __Right$[ebp]
  0000c	8b 4d 08	 mov	 ecx, DWORD PTR __Left$[ebp]
  0000f	f3 0f 10 00	 movss	 xmm0, DWORD PTR [eax]
  00013	0f 2f 01	 comiss	 xmm0, DWORD PTR [ecx]
  00016	76 64		 jbe	 SHORT $LN8@max
$LN4@max:

; 5389 : 		{
; 5390 : 		_STL_ASSERT(!(_Right < _Left), "invalid comparator");

  00018	8b 45 08	 mov	 eax, DWORD PTR __Left$[ebp]
  0001b	8b 4d 0c	 mov	 ecx, DWORD PTR __Right$[ebp]
  0001e	f3 0f 10 00	 movss	 xmm0, DWORD PTR [eax]
  00022	0f 2f 01	 comiss	 xmm0, DWORD PTR [ecx]
  00025	77 02		 ja	 SHORT $LN9@max
  00027	eb 4a		 jmp	 SHORT $LN6@max
$LN9@max:
  00029	68 00 00 00 00	 push	 OFFSET ??_C@_0BD@FEEMDEPI@invalid?5comparator@
  0002e	68 00 00 00 00	 push	 OFFSET ??_C@_02DKCKIIND@?$CFs@
  00033	6a 00		 push	 0
  00035	68 0e 15 00 00	 push	 5390			; 0000150eH
  0003a	68 00 00 00 00	 push	 OFFSET ??_C@_0GK@JMBMHIBC@c?3?2program?5files?5?$CIx86?$CJ?2microsof@
  0003f	6a 02		 push	 2
  00041	ff 15 00 00 00
	00		 call	 DWORD PTR __imp___CrtDbgReport
  00047	83 c4 18	 add	 esp, 24			; 00000018H
  0004a	83 f8 01	 cmp	 eax, 1
  0004d	75 01		 jne	 SHORT $LN12@max
  0004f	cc		 int	 3
$LN12@max:
  00050	6a 00		 push	 0
  00052	68 0e 15 00 00	 push	 5390			; 0000150eH
  00057	68 00 00 00 00	 push	 OFFSET ??_C@_1NE@FKBPBJEB@?$AAc?$AA?3?$AA?2?$AAp?$AAr?$AAo?$AAg?$AAr?$AAa?$AAm?$AA?5?$AAf?$AAi?$AAl?$AAe@
  0005c	68 00 00 00 00	 push	 OFFSET ??_C@_1BC@ICCOKLEG@?$AAs?$AAt?$AAd?$AA?3?$AA?3?$AAm?$AAa?$AAx@
  00061	68 00 00 00 00	 push	 OFFSET ??_C@_1CK@NDNHPKPI@?$AA?$CC?$AAi?$AAn?$AAv?$AAa?$AAl?$AAi?$AAd?$AA?5?$AAc?$AAo?$AAm?$AAp?$AAa?$AAr@
  00066	ff 15 00 00 00
	00		 call	 DWORD PTR __imp___invalid_parameter
  0006c	83 c4 14	 add	 esp, 20			; 00000014H
  0006f	33 c0		 xor	 eax, eax
  00071	75 b6		 jne	 SHORT $LN9@max
$LN6@max:
  00073	33 c0		 xor	 eax, eax
  00075	75 a1		 jne	 SHORT $LN4@max

; 5391 : 		return (_Right);

  00077	8b 45 0c	 mov	 eax, DWORD PTR __Right$[ebp]
  0007a	eb 03		 jmp	 SHORT $LN1@max
$LN8@max:

; 5392 : 		}
; 5393 : 
; 5394 : 	return (_Left);

  0007c	8b 45 08	 mov	 eax, DWORD PTR __Left$[ebp]
$LN1@max:

; 5395 : 	}

  0007f	5f		 pop	 edi
  00080	5e		 pop	 esi
  00081	5b		 pop	 ebx
  00082	8b e5		 mov	 esp, ebp
  00084	5d		 pop	 ebp
  00085	c2 08 00	 ret	 8
??$max@M@std@@YGABMABM0@Z ENDP				; std::max<float>
_TEXT	ENDS
; Function compile flags: /Odtp /ZI
; File c:\users\nhv90\projects\eech\aphavoc\source\entity\special\camera\cm_dbrf.c
;	COMDAT ?update_debriefing_camera@@YGXPAUCAMERA@@@Z
_TEXT	SEGMENT
tv251 = -100						; size = 8
tv274 = -96						; size = 4
tv223 = -92						; size = 4
tv150 = -92						; size = 4
tv92 = -92						; size = 4
tv306 = -88						; size = 4
tv215 = -88						; size = 4
tv142 = -88						; size = 4
tv84 = -88						; size = 4
$T1 = -84						; size = 4
_rel_camera_position$ = -16				; size = 12
_en$ = -4						; size = 4
_raw$ = 8						; size = 4
?update_debriefing_camera@@YGXPAUCAMERA@@@Z PROC	; update_debriefing_camera, COMDAT

; 118  : {

  00000	55		 push	 ebp
  00001	8b ec		 mov	 ebp, esp
  00003	83 ec 64	 sub	 esp, 100		; 00000064H
  00006	53		 push	 ebx
  00007	56		 push	 esi
  00008	57		 push	 edi

; 119  : 	entity
; 120  : 		*en;
; 121  : 
; 122  : 	vec3d
; 123  : 		rel_camera_position;
; 124  : 
; 125  : 	//
; 126  : 	// pre-amble
; 127  : 	//
; 128  : 
; 129  : 	ASSERT (raw);

  00009	83 7d 08 00	 cmp	 DWORD PTR _raw$[ebp], 0
  0000d	75 18		 jne	 SHORT $LN2@update_deb
  0000f	a1 00 00 00 00	 mov	 eax, DWORD PTR ?__LINE__Var@?0??update_debriefing_camera@@YGXPAUCAMERA@@@Z@4JA
  00014	83 c0 0b	 add	 eax, 11			; 0000000bH
  00017	50		 push	 eax
  00018	68 00 00 00 00	 push	 OFFSET ??_C@_0EM@ECOEHLII@c?3?2users?2nhv90?2projects?2eech?2ap@
  0001d	68 00 00 00 00	 push	 OFFSET ??_C@_03DGOGAGNC@raw@
  00022	e8 00 00 00 00	 call	 ?process_assert@@YGXPBD0H@Z ; process_assert
$LN2@update_deb:

; 130  : 
; 131  : 	ASSERT (raw->external_view_entity);

  00027	8b 45 08	 mov	 eax, DWORD PTR _raw$[ebp]
  0002a	83 b8 24 01 00
	00 00		 cmp	 DWORD PTR [eax+292], 0
  00031	75 18		 jne	 SHORT $LN3@update_deb
  00033	a1 00 00 00 00	 mov	 eax, DWORD PTR ?__LINE__Var@?0??update_debriefing_camera@@YGXPAUCAMERA@@@Z@4JA
  00038	83 c0 0d	 add	 eax, 13			; 0000000dH
  0003b	50		 push	 eax
  0003c	68 00 00 00 00	 push	 OFFSET ??_C@_0EM@ECOEHLII@c?3?2users?2nhv90?2projects?2eech?2ap@
  00041	68 00 00 00 00	 push	 OFFSET ??_C@_0BK@NIGJPCBN@raw?9?$DOexternal_view_entity@
  00046	e8 00 00 00 00	 call	 ?process_assert@@YGXPBD0H@Z ; process_assert
$LN3@update_deb:

; 132  : 
; 133  : 	en = raw->external_view_entity;

  0004b	8b 45 08	 mov	 eax, DWORD PTR _raw$[ebp]
  0004e	8b 88 24 01 00
	00		 mov	 ecx, DWORD PTR [eax+292]
  00054	89 4d fc	 mov	 DWORD PTR _en$[ebp], ecx

; 134  : 
; 135  : 	//
; 136  : 	// get camera attitude
; 137  : 	//
; 138  : 
; 139  : 	get_3d_transformation_matrix (raw->attitude, get_local_entity_float_value (en, FLOAT_TYPE_HEADING) + rad (180.0), rad (-15.0), 0.0);

  00057	83 7d fc 00	 cmp	 DWORD PTR _en$[ebp], 0
  0005b	74 0a		 je	 SHORT $LN6@update_deb
  0005d	8b 45 fc	 mov	 eax, DWORD PTR _en$[ebp]
  00060	8b 08		 mov	 ecx, DWORD PTR [eax]
  00062	89 4d a8	 mov	 DWORD PTR tv84[ebp], ecx
  00065	eb 21		 jmp	 SHORT $LN7@update_deb
$LN6@update_deb:
  00067	8b 15 00 00 00
	00		 mov	 edx, DWORD PTR ?__LINE__Var@?0??update_debriefing_camera@@YGXPAUCAMERA@@@Z@4JA
  0006d	83 c2 15	 add	 edx, 21			; 00000015H
  00070	52		 push	 edx
  00071	68 00 00 00 00	 push	 OFFSET ??_C@_0EM@ECOEHLII@c?3?2users?2nhv90?2projects?2eech?2ap@
  00076	a1 00 00 00 00	 mov	 eax, DWORD PTR ?null_entity_pointer_message@@3PBDB ; null_entity_pointer_message
  0007b	50		 push	 eax
  0007c	e8 00 00 00 00	 call	 ?process_assert@@YGXPBD0H@Z ; process_assert
  00081	c7 45 a8 00 00
	00 00		 mov	 DWORD PTR tv84[ebp], 0
$LN7@update_deb:
  00088	b9 01 00 00 00	 mov	 ecx, 1
  0008d	85 c9		 test	 ecx, ecx
  0008f	74 09		 je	 SHORT $LN8@update_deb
  00091	c7 45 a4 34 00
	00 00		 mov	 DWORD PTR tv92[ebp], 52	; 00000034H
  00098	eb 21		 jmp	 SHORT $LN9@update_deb
$LN8@update_deb:
  0009a	8b 15 00 00 00
	00		 mov	 edx, DWORD PTR ?__LINE__Var@?0??update_debriefing_camera@@YGXPAUCAMERA@@@Z@4JA
  000a0	83 c2 15	 add	 edx, 21			; 00000015H
  000a3	52		 push	 edx
  000a4	68 00 00 00 00	 push	 OFFSET ??_C@_0EM@ECOEHLII@c?3?2users?2nhv90?2projects?2eech?2ap@
  000a9	a1 00 00 00 00	 mov	 eax, DWORD PTR ?overload_invalid_float_type_message@@3PBDB ; overload_invalid_float_type_message
  000ae	50		 push	 eax
  000af	e8 00 00 00 00	 call	 ?process_assert@@YGXPBD0H@Z ; process_assert
  000b4	c7 45 a4 00 00
	00 00		 mov	 DWORD PTR tv92[ebp], 0
$LN9@update_deb:
  000bb	51		 push	 ecx
  000bc	0f 57 c0	 xorps	 xmm0, xmm0
  000bf	f3 0f 11 04 24	 movss	 DWORD PTR [esp], xmm0
  000c4	51		 push	 ecx
  000c5	f3 0f 10 05 00
	00 00 00	 movss	 xmm0, DWORD PTR __real@be860a92
  000cd	f3 0f 11 04 24	 movss	 DWORD PTR [esp], xmm0
  000d2	6a 34		 push	 52			; 00000034H
  000d4	8b 4d fc	 mov	 ecx, DWORD PTR _en$[ebp]
  000d7	51		 push	 ecx
  000d8	69 55 a8 bc 02
	00 00		 imul	 edx, DWORD PTR tv84[ebp], 700
  000df	8b 45 a4	 mov	 eax, DWORD PTR tv92[ebp]
  000e2	8b 8c 82 00 00
	00 00		 mov	 ecx, DWORD PTR ?fn_get_local_entity_float_value@@3PAY0KP@P6GMPAUENTITY@@W4FLOAT_TYPES@@@ZA[edx+eax*4]
  000e9	ff d1		 call	 ecx
  000eb	dd 5d 9c	 fstp	 QWORD PTR tv251[ebp]
  000ee	f2 0f 10 45 9c	 movsd	 xmm0, QWORD PTR tv251[ebp]
  000f3	f2 0f 58 05 00
	00 00 00	 addsd	 xmm0, QWORD PTR __real@400921fb51000000
  000fb	f2 0f 5a c0	 cvtsd2ss xmm0, xmm0
  000ff	51		 push	 ecx
  00100	f3 0f 11 04 24	 movss	 DWORD PTR [esp], xmm0
  00105	8b 55 08	 mov	 edx, DWORD PTR _raw$[ebp]
  00108	83 c2 18	 add	 edx, 24			; 00000018H
  0010b	52		 push	 edx
  0010c	e8 00 00 00 00	 call	 ?get_3d_transformation_matrix@@YGXQAY02MMMM@Z ; get_3d_transformation_matrix

; 140  : 
; 141  : 	//
; 142  : 	// get camera position
; 143  : 	//
; 144  : 
; 145  : 	rel_camera_position.x = 0.0;

  00111	0f 57 c0	 xorps	 xmm0, xmm0
  00114	f3 0f 11 45 f0	 movss	 DWORD PTR _rel_camera_position$[ebp], xmm0

; 146  : 	rel_camera_position.y = 0.0;

  00119	0f 57 c0	 xorps	 xmm0, xmm0
  0011c	f3 0f 11 45 f4	 movss	 DWORD PTR _rel_camera_position$[ebp+4], xmm0

; 147  : 	rel_camera_position.z = -get_local_entity_float_value (en, FLOAT_TYPE_CHASE_VIEW_MIN_DISTANCE);

  00121	83 7d fc 00	 cmp	 DWORD PTR _en$[ebp], 0
  00125	74 0a		 je	 SHORT $LN10@update_deb
  00127	8b 45 fc	 mov	 eax, DWORD PTR _en$[ebp]
  0012a	8b 08		 mov	 ecx, DWORD PTR [eax]
  0012c	89 4d a8	 mov	 DWORD PTR tv142[ebp], ecx
  0012f	eb 21		 jmp	 SHORT $LN11@update_deb
$LN10@update_deb:
  00131	8b 15 00 00 00
	00		 mov	 edx, DWORD PTR ?__LINE__Var@?0??update_debriefing_camera@@YGXPAUCAMERA@@@Z@4JA
  00137	83 c2 1d	 add	 edx, 29			; 0000001dH
  0013a	52		 push	 edx
  0013b	68 00 00 00 00	 push	 OFFSET ??_C@_0EM@ECOEHLII@c?3?2users?2nhv90?2projects?2eech?2ap@
  00140	a1 00 00 00 00	 mov	 eax, DWORD PTR ?null_entity_pointer_message@@3PBDB ; null_entity_pointer_message
  00145	50		 push	 eax
  00146	e8 00 00 00 00	 call	 ?process_assert@@YGXPBD0H@Z ; process_assert
  0014b	c7 45 a8 00 00
	00 00		 mov	 DWORD PTR tv142[ebp], 0
$LN11@update_deb:
  00152	b9 01 00 00 00	 mov	 ecx, 1
  00157	85 c9		 test	 ecx, ecx
  00159	74 09		 je	 SHORT $LN12@update_deb
  0015b	c7 45 a4 15 00
	00 00		 mov	 DWORD PTR tv150[ebp], 21 ; 00000015H
  00162	eb 21		 jmp	 SHORT $LN13@update_deb
$LN12@update_deb:
  00164	8b 15 00 00 00
	00		 mov	 edx, DWORD PTR ?__LINE__Var@?0??update_debriefing_camera@@YGXPAUCAMERA@@@Z@4JA
  0016a	83 c2 1d	 add	 edx, 29			; 0000001dH
  0016d	52		 push	 edx
  0016e	68 00 00 00 00	 push	 OFFSET ??_C@_0EM@ECOEHLII@c?3?2users?2nhv90?2projects?2eech?2ap@
  00173	a1 00 00 00 00	 mov	 eax, DWORD PTR ?overload_invalid_float_type_message@@3PBDB ; overload_invalid_float_type_message
  00178	50		 push	 eax
  00179	e8 00 00 00 00	 call	 ?process_assert@@YGXPBD0H@Z ; process_assert
  0017e	c7 45 a4 00 00
	00 00		 mov	 DWORD PTR tv150[ebp], 0
$LN13@update_deb:
  00185	6a 15		 push	 21			; 00000015H
  00187	8b 4d fc	 mov	 ecx, DWORD PTR _en$[ebp]
  0018a	51		 push	 ecx
  0018b	69 55 a8 bc 02
	00 00		 imul	 edx, DWORD PTR tv142[ebp], 700
  00192	8b 45 a4	 mov	 eax, DWORD PTR tv150[ebp]
  00195	8b 8c 82 00 00
	00 00		 mov	 ecx, DWORD PTR ?fn_get_local_entity_float_value@@3PAY0KP@P6GMPAUENTITY@@W4FLOAT_TYPES@@@ZA[edx+eax*4]
  0019c	ff d1		 call	 ecx
  0019e	d9 5d a0	 fstp	 DWORD PTR tv274[ebp]
  001a1	f3 0f 10 45 a0	 movss	 xmm0, DWORD PTR tv274[ebp]
  001a6	0f 57 05 00 00
	00 00		 xorps	 xmm0, DWORD PTR __xmm@80000000800000008000000080000000
  001ad	f3 0f 11 45 f8	 movss	 DWORD PTR _rel_camera_position$[ebp+8], xmm0

; 148  : 
; 149  : 	multiply_matrix3x3_vec3d (&rel_camera_position, raw->attitude, &rel_camera_position);

  001b2	8d 45 f0	 lea	 eax, DWORD PTR _rel_camera_position$[ebp]
  001b5	50		 push	 eax
  001b6	8b 4d 08	 mov	 ecx, DWORD PTR _raw$[ebp]
  001b9	83 c1 18	 add	 ecx, 24			; 00000018H
  001bc	51		 push	 ecx
  001bd	8d 55 f0	 lea	 edx, DWORD PTR _rel_camera_position$[ebp]
  001c0	52		 push	 edx
  001c1	e8 00 00 00 00	 call	 ?multiply_matrix3x3_vec3d@@YGXPAUVEC3D@@QAY02$$CBMPBU1@@Z ; multiply_matrix3x3_vec3d

; 150  : 
; 151  : 	get_local_entity_target_point (en, &raw->position);

  001c6	8b 45 08	 mov	 eax, DWORD PTR _raw$[ebp]
  001c9	50		 push	 eax
  001ca	8b 4d fc	 mov	 ecx, DWORD PTR _en$[ebp]
  001cd	51		 push	 ecx
  001ce	e8 00 00 00 00	 call	 ?get_local_entity_target_point@@YGXPAUENTITY@@PAUVEC3D@@@Z ; get_local_entity_target_point

; 152  : 
; 153  : 	raw->position.x += rel_camera_position.x;

  001d3	8b 45 08	 mov	 eax, DWORD PTR _raw$[ebp]
  001d6	f3 0f 10 00	 movss	 xmm0, DWORD PTR [eax]
  001da	f3 0f 58 45 f0	 addss	 xmm0, DWORD PTR _rel_camera_position$[ebp]
  001df	8b 4d 08	 mov	 ecx, DWORD PTR _raw$[ebp]
  001e2	f3 0f 11 01	 movss	 DWORD PTR [ecx], xmm0

; 154  : 	raw->position.y += rel_camera_position.y;

  001e6	8b 45 08	 mov	 eax, DWORD PTR _raw$[ebp]
  001e9	f3 0f 10 40 04	 movss	 xmm0, DWORD PTR [eax+4]
  001ee	f3 0f 58 45 f4	 addss	 xmm0, DWORD PTR _rel_camera_position$[ebp+4]
  001f3	8b 4d 08	 mov	 ecx, DWORD PTR _raw$[ebp]
  001f6	f3 0f 11 41 04	 movss	 DWORD PTR [ecx+4], xmm0

; 155  : 	raw->position.z += rel_camera_position.z;

  001fb	8b 45 08	 mov	 eax, DWORD PTR _raw$[ebp]
  001fe	f3 0f 10 40 08	 movss	 xmm0, DWORD PTR [eax+8]
  00203	f3 0f 58 45 f8	 addss	 xmm0, DWORD PTR _rel_camera_position$[ebp+8]
  00208	8b 4d 08	 mov	 ecx, DWORD PTR _raw$[ebp]
  0020b	f3 0f 11 41 08	 movss	 DWORD PTR [ecx+8], xmm0

; 156  : 
; 157  : 	//
; 158  : 	// keep point above ground (unless point off map)
; 159  : 	//
; 160  : 
; 161  : 	if (point_inside_map_area (&raw->position))

  00210	8b 45 08	 mov	 eax, DWORD PTR _raw$[ebp]
  00213	f3 0f 10 00	 movss	 xmm0, DWORD PTR [eax]
  00217	0f 2f 05 24 00
	00 00		 comiss	 xmm0, DWORD PTR ?world_map@@3UWORLD_MAP_DATA@@A+36
  0021e	0f 82 86 00 00
	00		 jb	 $LN4@update_deb
  00224	8b 45 08	 mov	 eax, DWORD PTR _raw$[ebp]
  00227	f3 0f 10 05 3c
	00 00 00	 movss	 xmm0, DWORD PTR ?world_map@@3UWORLD_MAP_DATA@@A+60
  0022f	0f 2f 00	 comiss	 xmm0, DWORD PTR [eax]
  00232	72 76		 jb	 SHORT $LN4@update_deb
  00234	8b 45 08	 mov	 eax, DWORD PTR _raw$[ebp]
  00237	f3 0f 10 40 08	 movss	 xmm0, DWORD PTR [eax+8]
  0023c	0f 2f 05 2c 00
	00 00		 comiss	 xmm0, DWORD PTR ?world_map@@3UWORLD_MAP_DATA@@A+44
  00243	72 65		 jb	 SHORT $LN4@update_deb
  00245	8b 45 08	 mov	 eax, DWORD PTR _raw$[ebp]
  00248	f3 0f 10 05 44
	00 00 00	 movss	 xmm0, DWORD PTR ?world_map@@3UWORLD_MAP_DATA@@A+68
  00250	0f 2f 40 08	 comiss	 xmm0, DWORD PTR [eax+8]
  00254	72 54		 jb	 SHORT $LN4@update_deb

; 162  : 	{
; 163  : 		raw->position.y = max (raw->position.y, get_3d_terrain_point_data (raw->position.x, raw->position.z, &raw->terrain_info) + 0.5f);

  00256	8b 45 08	 mov	 eax, DWORD PTR _raw$[ebp]
  00259	83 c0 50	 add	 eax, 80			; 00000050H
  0025c	50		 push	 eax
  0025d	8b 4d 08	 mov	 ecx, DWORD PTR _raw$[ebp]
  00260	51		 push	 ecx
  00261	f3 0f 10 41 08	 movss	 xmm0, DWORD PTR [ecx+8]
  00266	f3 0f 11 04 24	 movss	 DWORD PTR [esp], xmm0
  0026b	8b 55 08	 mov	 edx, DWORD PTR _raw$[ebp]
  0026e	51		 push	 ecx
  0026f	f3 0f 10 02	 movss	 xmm0, DWORD PTR [edx]
  00273	f3 0f 11 04 24	 movss	 DWORD PTR [esp], xmm0
  00278	e8 00 00 00 00	 call	 ?get_3d_terrain_point_data@@YGMMMPAUTERRAIN_3D_POINT_DATA@@@Z ; get_3d_terrain_point_data
  0027d	d9 5d a8	 fstp	 DWORD PTR tv306[ebp]
  00280	f3 0f 10 45 a8	 movss	 xmm0, DWORD PTR tv306[ebp]
  00285	f3 0f 58 05 00
	00 00 00	 addss	 xmm0, DWORD PTR __real@3f000000
  0028d	f3 0f 11 45 ac	 movss	 DWORD PTR $T1[ebp], xmm0
  00292	8d 45 ac	 lea	 eax, DWORD PTR $T1[ebp]
  00295	50		 push	 eax
  00296	8b 4d 08	 mov	 ecx, DWORD PTR _raw$[ebp]
  00299	83 c1 04	 add	 ecx, 4
  0029c	51		 push	 ecx
  0029d	e8 00 00 00 00	 call	 ??$max@M@std@@YGABMABM0@Z ; std::max<float>
  002a2	8b 55 08	 mov	 edx, DWORD PTR _raw$[ebp]
  002a5	8b 00		 mov	 eax, DWORD PTR [eax]
  002a7	89 42 04	 mov	 DWORD PTR [edx+4], eax
$LN4@update_deb:

; 164  : 	}
; 165  : 
; 166  : 	//
; 167  : 	// motion vector
; 168  : 	//
; 169  : 
; 170  : 	get_local_entity_vec3d (en, VEC3D_TYPE_MOTION_VECTOR, &raw->motion_vector);

  002aa	83 7d fc 00	 cmp	 DWORD PTR _en$[ebp], 0
  002ae	74 0a		 je	 SHORT $LN14@update_deb
  002b0	8b 45 fc	 mov	 eax, DWORD PTR _en$[ebp]
  002b3	8b 08		 mov	 ecx, DWORD PTR [eax]
  002b5	89 4d a8	 mov	 DWORD PTR tv215[ebp], ecx
  002b8	eb 21		 jmp	 SHORT $LN15@update_deb
$LN14@update_deb:
  002ba	8b 15 00 00 00
	00		 mov	 edx, DWORD PTR ?__LINE__Var@?0??update_debriefing_camera@@YGXPAUCAMERA@@@Z@4JA
  002c0	83 c2 34	 add	 edx, 52			; 00000034H
  002c3	52		 push	 edx
  002c4	68 00 00 00 00	 push	 OFFSET ??_C@_0EM@ECOEHLII@c?3?2users?2nhv90?2projects?2eech?2ap@
  002c9	a1 00 00 00 00	 mov	 eax, DWORD PTR ?null_entity_pointer_message@@3PBDB ; null_entity_pointer_message
  002ce	50		 push	 eax
  002cf	e8 00 00 00 00	 call	 ?process_assert@@YGXPBD0H@Z ; process_assert
  002d4	c7 45 a8 00 00
	00 00		 mov	 DWORD PTR tv215[ebp], 0
$LN15@update_deb:
  002db	b9 01 00 00 00	 mov	 ecx, 1
  002e0	85 c9		 test	 ecx, ecx
  002e2	74 09		 je	 SHORT $LN16@update_deb
  002e4	c7 45 a4 06 00
	00 00		 mov	 DWORD PTR tv223[ebp], 6
  002eb	eb 21		 jmp	 SHORT $LN17@update_deb
$LN16@update_deb:
  002ed	8b 15 00 00 00
	00		 mov	 edx, DWORD PTR ?__LINE__Var@?0??update_debriefing_camera@@YGXPAUCAMERA@@@Z@4JA
  002f3	83 c2 34	 add	 edx, 52			; 00000034H
  002f6	52		 push	 edx
  002f7	68 00 00 00 00	 push	 OFFSET ??_C@_0EM@ECOEHLII@c?3?2users?2nhv90?2projects?2eech?2ap@
  002fc	a1 00 00 00 00	 mov	 eax, DWORD PTR ?overload_invalid_vec3d_type_message@@3PBDB ; overload_invalid_vec3d_type_message
  00301	50		 push	 eax
  00302	e8 00 00 00 00	 call	 ?process_assert@@YGXPBD0H@Z ; process_assert
  00307	c7 45 a4 00 00
	00 00		 mov	 DWORD PTR tv223[ebp], 0
$LN17@update_deb:
  0030e	8b 4d 08	 mov	 ecx, DWORD PTR _raw$[ebp]
  00311	83 c1 0c	 add	 ecx, 12			; 0000000cH
  00314	51		 push	 ecx
  00315	6a 06		 push	 6
  00317	8b 55 fc	 mov	 edx, DWORD PTR _en$[ebp]
  0031a	52		 push	 edx
  0031b	6b 45 a8 60	 imul	 eax, DWORD PTR tv215[ebp], 96
  0031f	8b 4d a4	 mov	 ecx, DWORD PTR tv223[ebp]
  00322	8b 94 88 00 00
	00 00		 mov	 edx, DWORD PTR ?fn_get_local_entity_vec3d@@3PAY0BI@P6GXPAUENTITY@@W4VEC3D_TYPES@@PAUVEC3D@@@ZA[eax+ecx*4]
  00329	ff d2		 call	 edx

; 171  : }

  0032b	5f		 pop	 edi
  0032c	5e		 pop	 esi
  0032d	5b		 pop	 ebx
  0032e	8b e5		 mov	 esp, ebp
  00330	5d		 pop	 ebp
  00331	c2 04 00	 ret	 4
?update_debriefing_camera@@YGXPAUCAMERA@@@Z ENDP	; update_debriefing_camera
_TEXT	ENDS
; Function compile flags: /Odtp /ZI
; File c:\users\nhv90\projects\eech\aphavoc\source\entity\special\camera\cm_dbrf.c
;	COMDAT ?reset_debriefing_camera@@YGXPAUCAMERA@@@Z
_TEXT	SEGMENT
tv91 = -72						; size = 4
tv83 = -68						; size = 4
_raw$ = 8						; size = 4
?reset_debriefing_camera@@YGXPAUCAMERA@@@Z PROC		; reset_debriefing_camera, COMDAT

; 99   : {

  00000	55		 push	 ebp
  00001	8b ec		 mov	 ebp, esp
  00003	83 ec 48	 sub	 esp, 72			; 00000048H
  00006	53		 push	 ebx
  00007	56		 push	 esi
  00008	57		 push	 edi

; 100  : 	ASSERT (raw);

  00009	83 7d 08 00	 cmp	 DWORD PTR _raw$[ebp], 0
  0000d	75 18		 jne	 SHORT $LN2@reset_debr
  0000f	a1 00 00 00 00	 mov	 eax, DWORD PTR ?__LINE__Var@?0??reset_debriefing_camera@@YGXPAUCAMERA@@@Z@4JA
  00014	83 c0 01	 add	 eax, 1
  00017	50		 push	 eax
  00018	68 00 00 00 00	 push	 OFFSET ??_C@_0EM@ECOEHLII@c?3?2users?2nhv90?2projects?2eech?2ap@
  0001d	68 00 00 00 00	 push	 OFFSET ??_C@_03DGOGAGNC@raw@
  00022	e8 00 00 00 00	 call	 ?process_assert@@YGXPBD0H@Z ; process_assert
$LN2@reset_debr:

; 101  : 
; 102  : 	ASSERT (raw->external_view_entity);

  00027	8b 45 08	 mov	 eax, DWORD PTR _raw$[ebp]
  0002a	83 b8 24 01 00
	00 00		 cmp	 DWORD PTR [eax+292], 0
  00031	75 18		 jne	 SHORT $LN3@reset_debr
  00033	a1 00 00 00 00	 mov	 eax, DWORD PTR ?__LINE__Var@?0??reset_debriefing_camera@@YGXPAUCAMERA@@@Z@4JA
  00038	83 c0 03	 add	 eax, 3
  0003b	50		 push	 eax
  0003c	68 00 00 00 00	 push	 OFFSET ??_C@_0EM@ECOEHLII@c?3?2users?2nhv90?2projects?2eech?2ap@
  00041	68 00 00 00 00	 push	 OFFSET ??_C@_0BK@NIGJPCBN@raw?9?$DOexternal_view_entity@
  00046	e8 00 00 00 00	 call	 ?process_assert@@YGXPBD0H@Z ; process_assert
$LN3@reset_debr:

; 103  : 
; 104  : 	//
; 105  : 	// motion vector
; 106  : 	//
; 107  : 
; 108  : 	get_local_entity_vec3d (raw->external_view_entity, VEC3D_TYPE_MOTION_VECTOR, &raw->motion_vector);

  0004b	8b 45 08	 mov	 eax, DWORD PTR _raw$[ebp]
  0004e	83 b8 24 01 00
	00 00		 cmp	 DWORD PTR [eax+292], 0
  00055	74 10		 je	 SHORT $LN5@reset_debr
  00057	8b 4d 08	 mov	 ecx, DWORD PTR _raw$[ebp]
  0005a	8b 91 24 01 00
	00		 mov	 edx, DWORD PTR [ecx+292]
  00060	8b 02		 mov	 eax, DWORD PTR [edx]
  00062	89 45 bc	 mov	 DWORD PTR tv83[ebp], eax
  00065	eb 22		 jmp	 SHORT $LN6@reset_debr
$LN5@reset_debr:
  00067	8b 0d 00 00 00
	00		 mov	 ecx, DWORD PTR ?__LINE__Var@?0??reset_debriefing_camera@@YGXPAUCAMERA@@@Z@4JA
  0006d	83 c1 09	 add	 ecx, 9
  00070	51		 push	 ecx
  00071	68 00 00 00 00	 push	 OFFSET ??_C@_0EM@ECOEHLII@c?3?2users?2nhv90?2projects?2eech?2ap@
  00076	8b 15 00 00 00
	00		 mov	 edx, DWORD PTR ?null_entity_pointer_message@@3PBDB ; null_entity_pointer_message
  0007c	52		 push	 edx
  0007d	e8 00 00 00 00	 call	 ?process_assert@@YGXPBD0H@Z ; process_assert
  00082	c7 45 bc 00 00
	00 00		 mov	 DWORD PTR tv83[ebp], 0
$LN6@reset_debr:
  00089	b8 01 00 00 00	 mov	 eax, 1
  0008e	85 c0		 test	 eax, eax
  00090	74 09		 je	 SHORT $LN7@reset_debr
  00092	c7 45 b8 06 00
	00 00		 mov	 DWORD PTR tv91[ebp], 6
  00099	eb 22		 jmp	 SHORT $LN8@reset_debr
$LN7@reset_debr:
  0009b	8b 0d 00 00 00
	00		 mov	 ecx, DWORD PTR ?__LINE__Var@?0??reset_debriefing_camera@@YGXPAUCAMERA@@@Z@4JA
  000a1	83 c1 09	 add	 ecx, 9
  000a4	51		 push	 ecx
  000a5	68 00 00 00 00	 push	 OFFSET ??_C@_0EM@ECOEHLII@c?3?2users?2nhv90?2projects?2eech?2ap@
  000aa	8b 15 00 00 00
	00		 mov	 edx, DWORD PTR ?overload_invalid_vec3d_type_message@@3PBDB ; overload_invalid_vec3d_type_message
  000b0	52		 push	 edx
  000b1	e8 00 00 00 00	 call	 ?process_assert@@YGXPBD0H@Z ; process_assert
  000b6	c7 45 b8 00 00
	00 00		 mov	 DWORD PTR tv91[ebp], 0
$LN8@reset_debr:
  000bd	8b 45 08	 mov	 eax, DWORD PTR _raw$[ebp]
  000c0	83 c0 0c	 add	 eax, 12			; 0000000cH
  000c3	50		 push	 eax
  000c4	6a 06		 push	 6
  000c6	8b 4d 08	 mov	 ecx, DWORD PTR _raw$[ebp]
  000c9	8b 91 24 01 00
	00		 mov	 edx, DWORD PTR [ecx+292]
  000cf	52		 push	 edx
  000d0	6b 45 bc 60	 imul	 eax, DWORD PTR tv83[ebp], 96
  000d4	8b 4d b8	 mov	 ecx, DWORD PTR tv91[ebp]
  000d7	8b 94 88 00 00
	00 00		 mov	 edx, DWORD PTR ?fn_get_local_entity_vec3d@@3PAY0BI@P6GXPAUENTITY@@W4VEC3D_TYPES@@PAUVEC3D@@@ZA[eax+ecx*4]
  000de	ff d2		 call	 edx

; 109  : 
; 110  : //	set_assess_debriefing (TRUE);
; 111  : }

  000e0	5f		 pop	 edi
  000e1	5e		 pop	 esi
  000e2	5b		 pop	 ebx
  000e3	8b e5		 mov	 esp, ebp
  000e5	5d		 pop	 ebp
  000e6	c2 04 00	 ret	 4
?reset_debriefing_camera@@YGXPAUCAMERA@@@Z ENDP		; reset_debriefing_camera
_TEXT	ENDS
; Function compile flags: /Odtp /ZI
; File c:\users\nhv90\projects\eech\aphavoc\source\entity\special\camera\cm_dbrf.c
;	COMDAT ?debriefing_camera_valid@@YGHPAUCAMERA@@@Z
_TEXT	SEGMENT
_raw$ = 8						; size = 4
?debriefing_camera_valid@@YGHPAUCAMERA@@@Z PROC		; debriefing_camera_valid, COMDAT

; 80   : {

  00000	55		 push	 ebp
  00001	8b ec		 mov	 ebp, esp
  00003	83 ec 40	 sub	 esp, 64			; 00000040H
  00006	53		 push	 ebx
  00007	56		 push	 esi
  00008	57		 push	 edi

; 81   : 	ASSERT (raw);

  00009	83 7d 08 00	 cmp	 DWORD PTR _raw$[ebp], 0
  0000d	75 18		 jne	 SHORT $LN2@debriefing
  0000f	a1 00 00 00 00	 mov	 eax, DWORD PTR ?__LINE__Var@?0??debriefing_camera_valid@@YGHPAUCAMERA@@@Z@4JA
  00014	83 c0 01	 add	 eax, 1
  00017	50		 push	 eax
  00018	68 00 00 00 00	 push	 OFFSET ??_C@_0EM@ECOEHLII@c?3?2users?2nhv90?2projects?2eech?2ap@
  0001d	68 00 00 00 00	 push	 OFFSET ??_C@_03DGOGAGNC@raw@
  00022	e8 00 00 00 00	 call	 ?process_assert@@YGXPBD0H@Z ; process_assert
$LN2@debriefing:

; 82   : 
; 83   : 	if (get_gunship_entity ())

  00027	83 3d 00 00 00
	00 00		 cmp	 DWORD PTR ?gunship_entity@@3PAUENTITY@@A, 0 ; gunship_entity
  0002e	74 18		 je	 SHORT $LN3@debriefing

; 84   : 	{
; 85   : 		if (raw->external_view_entity == get_gunship_entity ())

  00030	8b 45 08	 mov	 eax, DWORD PTR _raw$[ebp]
  00033	8b 88 24 01 00
	00		 mov	 ecx, DWORD PTR [eax+292]
  00039	3b 0d 00 00 00
	00		 cmp	 ecx, DWORD PTR ?gunship_entity@@3PAUENTITY@@A ; gunship_entity
  0003f	75 07		 jne	 SHORT $LN3@debriefing

; 86   : 		{
; 87   : 			return (TRUE);

  00041	b8 01 00 00 00	 mov	 eax, 1
  00046	eb 02		 jmp	 SHORT $LN1@debriefing
$LN3@debriefing:

; 88   : 		}
; 89   : 	}
; 90   : 
; 91   : 	return (FALSE);

  00048	33 c0		 xor	 eax, eax
$LN1@debriefing:

; 92   : }

  0004a	5f		 pop	 edi
  0004b	5e		 pop	 esi
  0004c	5b		 pop	 ebx
  0004d	8b e5		 mov	 esp, ebp
  0004f	5d		 pop	 ebp
  00050	c2 04 00	 ret	 4
?debriefing_camera_valid@@YGHPAUCAMERA@@@Z ENDP		; debriefing_camera_valid
_TEXT	ENDS
END
