; Listing generated by Microsoft (R) Optimizing Compiler Version 19.16.27045.0 

	TITLE	C:\Users\nhv90\Projects\eech\aphavoc\source\gunships\dynamics\comanche\cm_dyn.c
	.686P
	.XMM
	include listing.inc
	.model	flat

INCLUDELIB MSVCRTD
INCLUDELIB OLDNAMES

PUBLIC	___local_stdio_printf_options
PUBLIC	__vsnprintf_l
PUBLIC	__vsprintf_l
PUBLIC	_sprintf
PUBLIC	_asinf
PUBLIC	_fabsf
PUBLIC	_powf
PUBLIC	_sinf
PUBLIC	?pow@@YGNNH@Z					; pow
PUBLIC	?asin@@YGMM@Z					; asin
PUBLIC	?fabs@@YGMM@Z					; fabs
PUBLIC	?pow@@YGMMM@Z					; pow
PUBLIC	?pow@@YGMMH@Z					; pow
PUBLIC	?sin@@YGMM@Z					; sin
PUBLIC	?initialise_comanche_advanced_dynamics@@YGXPAUENTITY@@@Z ; initialise_comanche_advanced_dynamics
PUBLIC	?update_comanche_advanced_dynamics@@YGXXZ	; update_comanche_advanced_dynamics
PUBLIC	??$max@M@std@@YGABMABM0@Z			; std::max<float>
PUBLIC	??$max@N@std@@YGABNABN0@Z			; std::max<double>
PUBLIC	??$min@N@std@@YGABNABN0@Z			; std::min<double>
PUBLIC	??$min@M@std@@YGABMABM0@Z			; std::min<float>
PUBLIC	?comanche_restore_damage_values@@YGXXZ		; comanche_restore_damage_values
PUBLIC	?_OptionsStorage@?1??__local_stdio_printf_options@@9@4_KA ; `__local_stdio_printf_options'::`2'::_OptionsStorage
PUBLIC	??_C@_02DKCKIIND@?$CFs@				; `string'
PUBLIC	??_C@_0BM@PFKMNBOP@?4?4?2common?2data?2comanche?4dyn@ ; `string'
PUBLIC	?__LINE__Var@?0??set_dynamics_defaults@@YGXPAUENTITY@@@Z@4JA ; `set_dynamics_defaults'::`1'::__LINE__Var
PUBLIC	??_C@_0FA@IFJNMDIM@c?3?2users?2nhv90?2projects?2eech?2ap@ ; `string'
PUBLIC	?__LINE__Var@?0??update_attitude_dynamics@@YGXXZ@4JA ; `update_attitude_dynamics'::`1'::__LINE__Var
PUBLIC	??_C@_0BD@EHBODOFB@DYNAMICS?3?5UNSTABLE@	; `string'
PUBLIC	??_C@_0O@DAHLPFDH@Taxiing?5force@		; `string'
PUBLIC	??_C@_0BD@BBEFFKGJ@Middle?5rotor?5force@	; `string'
PUBLIC	??_C@_0BC@MEMJFFEH@Front?5rotor?5force@		; `string'
PUBLIC	??_C@_0BB@LJEAAOI@Back?5rotor?5force@		; `string'
PUBLIC	??_C@_0BB@JNCAICOI@Left?5rotor?5force@		; `string'
PUBLIC	??_C@_0BC@BCPABIID@Right?5rotor?5force@		; `string'
PUBLIC	??_C@_0BJ@INGIGFJO@Angular?5tail?5rotor?5force@	; `string'
PUBLIC	??_C@_07JMGDFJEK@Gravity@			; `string'
PUBLIC	??_C@_0BC@GCGACPAK@Transitional?5lift@		; `string'
PUBLIC	??_C@_0BH@HFGLNDFM@Retreating?5blade?5stall@	; `string'
PUBLIC	??_C@_0BG@LPCPLOKH@Advancing?5blade?5stall@	; `string'
PUBLIC	??_C@_0O@JIJAGCOD@Sonic?5buildup@		; `string'
PUBLIC	??_C@_0BK@DILBAPLM@Main?5rotor?5angular?5torque@ ; `string'
PUBLIC	??_C@_0BB@FPOJGHNF@Pitch?5resistance@		; `string'
PUBLIC	??_C@_0BA@JHNCKIDL@Roll?5resistance@		; `string'
PUBLIC	??_C@_0P@OJCKBBIP@Yaw?5resistance@		; `string'
PUBLIC	??_C@_0BH@EICDHFJI@Realign?5force?5?$CIY?5axis?$CJ@ ; `string'
PUBLIC	??_C@_0BH@IEIJHFAG@Realign?5force?5?$CIX?5axis?$CJ@ ; `string'
PUBLIC	??_C@_0BO@BHAFBPMJ@Forward?5motion?5Yaw?5input?5drag@ ; `string'
PUBLIC	??_C@_0BE@JPPEFMCN@Forward?5motion?5drag@	; `string'
PUBLIC	??_C@_0BE@DICEDONG@Lateral?5motion?5drag@	; `string'
PUBLIC	??_C@_0BF@LAMOPNAJ@Vertical?5motion?5drag@	; `string'
PUBLIC	??_C@_0BL@CBNCBPEP@Middle?5rotor?5Ground?5effect@ ; `string'
PUBLIC	??_C@_0BK@BDABDLEI@Front?5rotor?5Ground?5effect@ ; `string'
PUBLIC	??_C@_0BJ@MKNEGMFL@Back?5rotor?5Ground?5effect@	; `string'
PUBLIC	??_C@_0BJ@KEABEFD@Left?5rotor?5Ground?5effect@	; `string'
PUBLIC	??_C@_0BK@ONPBLKKA@Right?5rotor?5Ground?5effect@ ; `string'
PUBLIC	??_C@_0BC@MPODPIKD@Vortex?5ring?5force@		; `string'
PUBLIC	??_C@_04LGBIOLDJ@Wind@				; `string'
PUBLIC	??_C@_0BG@EBOEKGCA@Ground?5Friction?5force@	; `string'
PUBLIC	?__LINE__Var@?0??update_acceleration_dynamics@@YGXXZ@4JA ; `update_acceleration_dynamics'::`1'::__LINE__Var
PUBLIC	??_C@_0BD@FEEMDEPI@invalid?5comparator@		; `string'
PUBLIC	??_C@_0GK@JMBMHIBC@c?3?2program?5files?5?$CIx86?$CJ?2microsof@ ; `string'
PUBLIC	??_C@_1NE@FKBPBJEB@?$AAc?$AA?3?$AA?2?$AAp?$AAr?$AAo?$AAg?$AAr?$AAa?$AAm?$AA?5?$AAf?$AAi?$AAl?$AAe@ ; `string'
PUBLIC	??_C@_1BC@ICCOKLEG@?$AAs?$AAt?$AAd?$AA?3?$AA?3?$AAm?$AAa?$AAx@ ; `string'
PUBLIC	??_C@_1CK@NDNHPKPI@?$AA?$CC?$AAi?$AAn?$AAv?$AAa?$AAl?$AAi?$AAd?$AA?5?$AAc?$AAo?$AAm?$AAp?$AAa?$AAr@ ; `string'
PUBLIC	??_C@_1BC@BLAPCBGI@?$AAs?$AAt?$AAd?$AA?3?$AA?3?$AAm?$AAi?$AAn@ ; `string'
PUBLIC	__real@00000000
PUBLIC	__real@0000000000000000
PUBLIC	__real@3aa3d70a
PUBLIC	__real@3b23d70a
PUBLIC	__real@3c23d70a
PUBLIC	__real@3c8efa35
PUBLIC	__real@3d0efa35
PUBLIC	__real@3d567750
PUBLIC	__real@3da88ce7
PUBLIC	__real@3dc28f5c
PUBLIC	__real@3dc49809
PUBLIC	__real@3dcccccd
PUBLIC	__real@3e060a92
PUBLIC	__real@3e99999a
PUBLIC	__real@3ecccccd
PUBLIC	__real@3ecda922
PUBLIC	__real@3f000000
PUBLIC	__real@3f00002000400080
PUBLIC	__real@3f10000000000000
PUBLIC	__real@3f19999a
PUBLIC	__real@3f1a36e2eb1c432d
PUBLIC	__real@3f364840e1719f80
PUBLIC	__real@3f50624dd2f1a9fc
PUBLIC	__real@3f647ae147ae147b
PUBLIC	__real@3f666666
PUBLIC	__real@3f800000
PUBLIC	__real@3f8b4cc25072085c
PUBLIC	__real@3f99999a
PUBLIC	__real@3fa16872b020c49c
PUBLIC	__real@3fa999999999999a
PUBLIC	__real@3fb6571848000000
PUBLIC	__real@3fb999999999999a
PUBLIC	__real@3fc00000
PUBLIC	__real@3fc999999999999a
PUBLIC	__real@3fcccccd
PUBLIC	__real@3fd0000000000000
PUBLIC	__real@3fd3333333333333
PUBLIC	__real@3fd999999999999a
PUBLIC	__real@3fe0000000000000
PUBLIC	__real@3fe3333333333333
PUBLIC	__real@3fe4cccccccccccd
PUBLIC	__real@3fe8000000000000
PUBLIC	__real@3fe999999999999a
PUBLIC	__real@3feccccccccccccd
PUBLIC	__real@3ff0000000000000
PUBLIC	__real@3ff8000000000000
PUBLIC	__real@40000000
PUBLIC	__real@4000000000000000
PUBLIC	__real@4008000000000000
PUBLIC	__real@400921fb60000000
PUBLIC	__real@4010000000000000
PUBLIC	__real@4012000000000000
PUBLIC	__real@4014000000000000
PUBLIC	__real@4020000000000000
PUBLIC	__real@4024000000000000
PUBLIC	__real@402e000000000000
PUBLIC	__real@4030000000000000
PUBLIC	__real@40328f5c
PUBLIC	__real@4033e66666666666
PUBLIC	__real@4034000000000000
PUBLIC	__real@403e000000000000
PUBLIC	__real@403eec14e0000000
PUBLIC	__real@40400000
PUBLIC	__real@4041800000000000
PUBLIC	__real@4046800000000000
PUBLIC	__real@404b800000000000
PUBLIC	__real@404e000000000000
PUBLIC	__real@4059000000000000
PUBLIC	__real@405e000000000000
PUBLIC	__real@405f400000000000
PUBLIC	__real@40900000
PUBLIC	__real@4099c40000000000
PUBLIC	__real@40a00000
PUBLIC	__real@40a4eb1a
PUBLIC	__real@40c00000
PUBLIC	__real@40c90fdb
PUBLIC	__real@40e99168
PUBLIC	__real@41000000
PUBLIC	__real@411cf5c3
PUBLIC	__real@41200000
PUBLIC	__real@412970a4
PUBLIC	__real@4131999a
PUBLIC	__real@416a147b
PUBLIC	__real@41700000
PUBLIC	__real@417b3333
PUBLIC	__real@41900000
PUBLIC	__real@41a00000
PUBLIC	__real@41d00000
PUBLIC	__real@41f00000
PUBLIC	__real@41f760a7
PUBLIC	__real@42200000
PUBLIC	__real@42480000
PUBLIC	__real@42652ee0
PUBLIC	__real@42c80000
PUBLIC	__real@42cb0e45
PUBLIC	__real@42ce25e0
PUBLIC	__real@42f00000
PUBLIC	__real@441d1463
PUBLIC	__real@44480000
PUBLIC	__real@444d8000
PUBLIC	__real@447a0000
PUBLIC	__real@44bf4000
PUBLIC	__real@44ce2000
PUBLIC	__real@4583d000
PUBLIC	__real@461c4000
PUBLIC	__real@469c4000
PUBLIC	__real@bc03126f
PUBLIC	__real@bc449ba6
PUBLIC	__real@bd0efa35
PUBLIC	__real@bd567750
PUBLIC	__real@bda44a62
PUBLIC	__real@bdc49809
PUBLIC	__real@be4ccccd
PUBLIC	__real@bf400000
PUBLIC	__real@bf800000
PUBLIC	__real@bfd999999999999a
PUBLIC	__real@bff0000000000000
PUBLIC	__real@c000000000000000
PUBLIC	__real@c0200000
PUBLIC	__real@c024000000000000
PUBLIC	__real@c059000000000000
PUBLIC	__real@c0a00000
PUBLIC	__real@c0c00000
PUBLIC	__real@c0c90fdb
PUBLIC	__real@c0e99168
PUBLIC	__real@c10547ae
PUBLIC	__real@c1100000
PUBLIC	__real@c1200000
PUBLIC	__real@c131999a
PUBLIC	__real@c1a00000
PUBLIC	__real@c1c80000
PUBLIC	__real@c2200000
PUBLIC	__real@c2c80000
PUBLIC	__real@c47a0000
PUBLIC	__xmm@80000000000000008000000000000000
PUBLIC	__xmm@80000000800000008000000080000000
EXTRN	__imp___invalid_parameter:PROC
EXTRN	__imp____stdio_common_vsprintf:PROC
EXTRN	_memset:PROC
EXTRN	__imp___CrtDbgReport:PROC
EXTRN	_asin:PROC
EXTRN	_exp:PROC
EXTRN	_fabs:PROC
EXTRN	_pow:PROC
EXTRN	_sin:PROC
EXTRN	?process_assert@@YGXPBD0H@Z:PROC		; process_assert
EXTRN	?debug_log@@YAXPBDZZ:PROC			; debug_log
EXTRN	?normalise_any_3d_vector@@YGMPAUVEC3D@@@Z:PROC	; normalise_any_3d_vector
EXTRN	?get_3d_vector_magnitude@@YGMPBUVEC3D@@@Z:PROC	; get_3d_vector_magnitude
EXTRN	?invert_3d_vector@@YGXPAUVEC3D@@@Z:PROC		; invert_3d_vector
EXTRN	?get_3d_transformation_heading_pitch_matrix@@YGXQAY02MMM@Z:PROC ; get_3d_transformation_heading_pitch_matrix
EXTRN	?multiply_matrix3x3_vec3d@@YGXPAUVEC3D@@QAY02$$CBMPBU1@@Z:PROC ; multiply_matrix3x3_vec3d
EXTRN	?multiply_transpose_matrix3x3_vec3d@@YGXPAUVEC3D@@QAY02$$CBMPBU1@@Z:PROC ; multiply_transpose_matrix3x3_vec3d
EXTRN	?get_identity_matrix3x3@@YGXQAY02M@Z:PROC	; get_identity_matrix3x3
EXTRN	?get_3d_terrain_point_data@@YGMMMPAUTERRAIN_3D_POINT_DATA@@@Z:PROC ; get_3d_terrain_point_data
EXTRN	?get_3d_terrain_point_data_elevation@@YGMPAUTERRAIN_3D_POINT_DATA@@@Z:PROC ; get_3d_terrain_point_data_elevation
EXTRN	?get_3d_terrain_point_data_type@@YGHPAUTERRAIN_3D_POINT_DATA@@@Z:PROC ; get_3d_terrain_point_data_type
EXTRN	?bound_position_to_adjusted_map_volume@@YGHPAUVEC3D@@@Z:PROC ; bound_position_to_adjusted_map_volume
EXTRN	?bound_double_position_to_adjusted_map_volume@@YGHPAUDOUBLE_VEC3D@@@Z:PROC ; bound_double_position_to_adjusted_map_volume
EXTRN	?helicopter_within_keysite_area@@YGHPAUENTITY@@@Z:PROC ; helicopter_within_keysite_area
EXTRN	?play_client_server_cpg_message@@YGHPAUENTITY@@MMHMH@Z:PROC ; play_client_server_cpg_message
EXTRN	?play_client_server_warning_message@@YGHPAUENTITY@@H@Z:PROC ; play_client_server_warning_message
EXTRN	?get_session_wind_velocity_at_point@@YGMPAUVEC3D@@0@Z:PROC ; get_session_wind_velocity_at_point
EXTRN	?dynamics_damage_model@@YGXIH@Z:PROC		; dynamics_damage_model
EXTRN	?set_current_dynamics_options@@YGXW4DYNAMICS_OPTIONS_TYPES@@H@Z:PROC ; set_current_dynamics_options
EXTRN	?add_dynamic_force@@YGXPBDMMPAUVEC3D@@1H@Z:PROC	; add_dynamic_force
EXTRN	?update_dynamic_forces@@YGXXZ:PROC		; update_dynamic_forces
EXTRN	?resolve_dynamic_forces@@YGXXZ:PROC		; resolve_dynamic_forces
EXTRN	?update_apu_rpm_dynamics@@YGXXZ:PROC		; update_apu_rpm_dynamics
EXTRN	?update_engine_rpm_dynamics@@YGXH@Z:PROC	; update_engine_rpm_dynamics
EXTRN	?update_engine_temperature_dynamics@@YGXH@Z:PROC ; update_engine_temperature_dynamics
EXTRN	?update_dynamics_external_values@@YGXXZ:PROC	; update_dynamics_external_values
EXTRN	?get_current_dynamics_options@@YGHW4DYNAMICS_OPTIONS_TYPES@@@Z:PROC ; get_current_dynamics_options
EXTRN	?set_flight_dynamics_mass@@YGMXZ:PROC		; set_flight_dynamics_mass
EXTRN	?create_rotor_vibration@@YGXM@Z:PROC		; create_rotor_vibration
EXTRN	?get_terrain_type_class@@YG?AW4TERRAIN_CLASSES@@H@Z:PROC ; get_terrain_type_class
EXTRN	?update_undercarriage_dynamics@@YGXXZ:PROC	; update_undercarriage_dynamics
EXTRN	?random_number_seed@@3HA:DWORD			; random_number_seed
EXTRN	?command_line_dynamics_advanced_engine_model@@3HA:DWORD ; command_line_dynamics_advanced_engine_model
EXTRN	?command_line_dynamics_flight_model@@3HA:DWORD	; command_line_dynamics_flight_model
EXTRN	?command_line_dynamics_retreating_blade_stall_effect@@3MA:DWORD ; command_line_dynamics_retreating_blade_stall_effect
EXTRN	?command_line_dynamics_main_rotor_drag@@3MA:DWORD ; command_line_dynamics_main_rotor_drag
EXTRN	?command_line_dynamics_main_rotor_lift@@3MA:DWORD ; command_line_dynamics_main_rotor_lift
EXTRN	?command_line_dynamics_tail_rotor_drag@@3MA:DWORD ; command_line_dynamics_tail_rotor_drag
EXTRN	?command_line_dynamics_yaw_altitude_loss@@3MA:DWORD ; command_line_dynamics_yaw_altitude_loss
EXTRN	?null_entity_pointer_message@@3PBDB:DWORD	; null_entity_pointer_message
EXTRN	?global_options@@3UGLOBAL_OPTIONS_DATA@@A:BYTE	; global_options
EXTRN	?system_comms_model@@3W4COMMS_MODEL_TYPES@@A:DWORD ; system_comms_model
EXTRN	?world_map@@3UWORLD_MAP_DATA@@A:BYTE		; world_map
EXTRN	?overload_invalid_list_type_message@@3PBDB:DWORD ; overload_invalid_list_type_message
EXTRN	?fn_get_local_entity_parent@@3PAY0CN@P6GPAUENTITY@@PAU1@W4LIST_TYPES@@@ZA:BYTE ; fn_get_local_entity_parent
EXTRN	?fn_get_local_entity_attitude_matrix@@3PAP6GXPAUENTITY@@QAY02M@ZA:BYTE ; fn_get_local_entity_attitude_matrix
EXTRN	?fn_kill_client_server_entity@@3PAY01P6GXPAUENTITY@@@ZA:BYTE ; fn_kill_client_server_entity
EXTRN	?overload_invalid_float_type_message@@3PBDB:DWORD ; overload_invalid_float_type_message
EXTRN	?fn_set_client_server_entity_float_value@@3PAY1KP@1P6GXPAUENTITY@@W4FLOAT_TYPES@@M@ZA:BYTE ; fn_set_client_server_entity_float_value
EXTRN	?fn_get_local_entity_float_value@@3PAY0KP@P6GMPAUENTITY@@W4FLOAT_TYPES@@@ZA:BYTE ; fn_get_local_entity_float_value
EXTRN	?overload_invalid_int_type_message@@3PBDB:DWORD	; overload_invalid_int_type_message
EXTRN	?fn_set_client_server_entity_int_value@@3PAY1BBH@1P6GXPAUENTITY@@W4INT_TYPES@@H@ZA:BYTE ; fn_set_client_server_entity_int_value
EXTRN	?fn_get_local_entity_int_value@@3PAY0BBH@P6GHPAUENTITY@@W4INT_TYPES@@@ZA:BYTE ; fn_get_local_entity_int_value
EXTRN	?overload_invalid_vec3d_type_message@@3PBDB:DWORD ; overload_invalid_vec3d_type_message
EXTRN	?fn_set_client_server_entity_vec3d@@3PAY1BI@1P6GXPAUENTITY@@W4VEC3D_TYPES@@PAUVEC3D@@@ZA:BYTE ; fn_set_client_server_entity_vec3d
EXTRN	?fn_get_local_entity_vec3d@@3PAY0BI@P6GXPAUENTITY@@W4VEC3D_TYPES@@PAUVEC3D@@@ZA:BYTE ; fn_get_local_entity_vec3d
EXTRN	?aircraft_database@@3PAUAIRCRAFT_DATA@@A:BYTE	; aircraft_database
EXTRN	?gunship_entity@@3PAUENTITY@@A:DWORD		; gunship_entity
EXTRN	?fixed_collision_count@@3HA:DWORD		; fixed_collision_count
EXTRN	?moving_collision_count@@3HA:DWORD		; moving_collision_count
EXTRN	?current_flight_dynamics_landed_at_keysite@@3PAUENTITY@@A:DWORD ; current_flight_dynamics_landed_at_keysite
EXTRN	?current_flight_dynamics@@3PAUDYNAMICS_TYPE@@A:DWORD ; current_flight_dynamics
EXTRN	?parser_flight_dynamics_options@@3HA:DWORD	; parser_flight_dynamics_options
EXTRN	__fltused:DWORD
;	COMDAT ?_OptionsStorage@?1??__local_stdio_printf_options@@9@4_KA
_BSS	SEGMENT
?_OptionsStorage@?1??__local_stdio_printf_options@@9@4_KA DQ 01H DUP (?) ; `__local_stdio_printf_options'::`2'::_OptionsStorage
_BSS	ENDS
_BSS	SEGMENT
?advanced_flight_dynamics@@3UDYNAMICS_TYPE@@A DB 02540H DUP (?) ; advanced_flight_dynamics
?right_g_e_force@@3MA DD 01H DUP (?)			; right_g_e_force
?left_g_e_force@@3MA DD 01H DUP (?)			; left_g_e_force
?back_g_e_force@@3MA DD 01H DUP (?)			; back_g_e_force
?front_g_e_force@@3MA DD 01H DUP (?)			; front_g_e_force
?this_reaction_force@@3MA DD 01H DUP (?)		; this_reaction_force
?time@?BM@??update_main_rotor_rpm_dynamics@@YGXXZ@4MA DD 01H DUP (?) ; `update_main_rotor_rpm_dynamics'::`28'::time
?time@?FB@??update_attitude_dynamics@@YGXXZ@4MA DD 01H DUP (?) ; `update_attitude_dynamics'::`81'::time
?v@?FK@??update_attitude_dynamics@@YGXXZ@4MA DD 01H DUP (?) ; `update_attitude_dynamics'::`90'::v
?relative_air_flow_angle@?FK@??update_attitude_dynamics@@YGXXZ@4MA DD 01H DUP (?) ; `update_attitude_dynamics'::`90'::relative_air_flow_angle
?torque@?FK@??update_attitude_dynamics@@YGXXZ@4MA DD 01H DUP (?) ; `update_attitude_dynamics'::`90'::torque
?force@?NB@??update_attitude_dynamics@@YGXXZ@4MA DD 01H DUP (?) ; `update_attitude_dynamics'::`209'::force
?desired_force@?NB@??update_attitude_dynamics@@YGXXZ@4MA DD 01H DUP (?) ; `update_attitude_dynamics'::`209'::desired_force
_BSS	ENDS
;	COMDAT __xmm@80000000800000008000000080000000
CONST	SEGMENT
__xmm@80000000800000008000000080000000 DB 00H, 00H, 00H, 080H, 00H, 00H, 00H
	DB	080H, 00H, 00H, 00H, 080H, 00H, 00H, 00H, 080H
CONST	ENDS
;	COMDAT __xmm@80000000000000008000000000000000
CONST	SEGMENT
__xmm@80000000000000008000000000000000 DB 00H, 00H, 00H, 00H, 00H, 00H, 00H
	DB	080H, 00H, 00H, 00H, 00H, 00H, 00H, 00H, 080H
CONST	ENDS
;	COMDAT __real@c47a0000
CONST	SEGMENT
__real@c47a0000 DD 0c47a0000r			; -1000
CONST	ENDS
;	COMDAT __real@c2c80000
CONST	SEGMENT
__real@c2c80000 DD 0c2c80000r			; -100
CONST	ENDS
;	COMDAT __real@c2200000
CONST	SEGMENT
__real@c2200000 DD 0c2200000r			; -40
CONST	ENDS
;	COMDAT __real@c1c80000
CONST	SEGMENT
__real@c1c80000 DD 0c1c80000r			; -25
CONST	ENDS
;	COMDAT __real@c1a00000
CONST	SEGMENT
__real@c1a00000 DD 0c1a00000r			; -20
CONST	ENDS
;	COMDAT __real@c131999a
CONST	SEGMENT
__real@c131999a DD 0c131999ar			; -11.1
CONST	ENDS
;	COMDAT __real@c1200000
CONST	SEGMENT
__real@c1200000 DD 0c1200000r			; -10
CONST	ENDS
;	COMDAT __real@c1100000
CONST	SEGMENT
__real@c1100000 DD 0c1100000r			; -9
CONST	ENDS
;	COMDAT __real@c10547ae
CONST	SEGMENT
__real@c10547ae DD 0c10547aer			; -8.33
CONST	ENDS
;	COMDAT __real@c0e99168
CONST	SEGMENT
__real@c0e99168 DD 0c0e99168r			; -7.299
CONST	ENDS
;	COMDAT __real@c0c90fdb
CONST	SEGMENT
__real@c0c90fdb DD 0c0c90fdbr			; -6.28319
CONST	ENDS
;	COMDAT __real@c0c00000
CONST	SEGMENT
__real@c0c00000 DD 0c0c00000r			; -6
CONST	ENDS
;	COMDAT __real@c0a00000
CONST	SEGMENT
__real@c0a00000 DD 0c0a00000r			; -5
CONST	ENDS
;	COMDAT __real@c059000000000000
CONST	SEGMENT
__real@c059000000000000 DQ 0c059000000000000r	; -100
CONST	ENDS
;	COMDAT __real@c024000000000000
CONST	SEGMENT
__real@c024000000000000 DQ 0c024000000000000r	; -10
CONST	ENDS
;	COMDAT __real@c0200000
CONST	SEGMENT
__real@c0200000 DD 0c0200000r			; -2.5
CONST	ENDS
;	COMDAT __real@c000000000000000
CONST	SEGMENT
__real@c000000000000000 DQ 0c000000000000000r	; -2
CONST	ENDS
;	COMDAT __real@bff0000000000000
CONST	SEGMENT
__real@bff0000000000000 DQ 0bff0000000000000r	; -1
CONST	ENDS
;	COMDAT __real@bfd999999999999a
CONST	SEGMENT
__real@bfd999999999999a DQ 0bfd999999999999ar	; -0.4
CONST	ENDS
;	COMDAT __real@bf800000
CONST	SEGMENT
__real@bf800000 DD 0bf800000r			; -1
CONST	ENDS
;	COMDAT __real@bf400000
CONST	SEGMENT
__real@bf400000 DD 0bf400000r			; -0.75
CONST	ENDS
;	COMDAT __real@be4ccccd
CONST	SEGMENT
__real@be4ccccd DD 0be4ccccdr			; -0.2
CONST	ENDS
;	COMDAT __real@bdc49809
CONST	SEGMENT
__real@bdc49809 DD 0bdc49809r			; -0.0959931
CONST	ENDS
;	COMDAT __real@bda44a62
CONST	SEGMENT
__real@bda44a62 DD 0bda44a62r			; -0.08022
CONST	ENDS
;	COMDAT __real@bd567750
CONST	SEGMENT
__real@bd567750 DD 0bd567750r			; -0.0523599
CONST	ENDS
;	COMDAT __real@bd0efa35
CONST	SEGMENT
__real@bd0efa35 DD 0bd0efa35r			; -0.0349066
CONST	ENDS
;	COMDAT __real@bc449ba6
CONST	SEGMENT
__real@bc449ba6 DD 0bc449ba6r			; -0.012
CONST	ENDS
;	COMDAT __real@bc03126f
CONST	SEGMENT
__real@bc03126f DD 0bc03126fr			; -0.008
CONST	ENDS
;	COMDAT __real@469c4000
CONST	SEGMENT
__real@469c4000 DD 0469c4000r			; 20000
CONST	ENDS
;	COMDAT __real@461c4000
CONST	SEGMENT
__real@461c4000 DD 0461c4000r			; 10000
CONST	ENDS
;	COMDAT __real@4583d000
CONST	SEGMENT
__real@4583d000 DD 04583d000r			; 4218
CONST	ENDS
;	COMDAT __real@44ce2000
CONST	SEGMENT
__real@44ce2000 DD 044ce2000r			; 1649
CONST	ENDS
;	COMDAT __real@44bf4000
CONST	SEGMENT
__real@44bf4000 DD 044bf4000r			; 1530
CONST	ENDS
;	COMDAT __real@447a0000
CONST	SEGMENT
__real@447a0000 DD 0447a0000r			; 1000
CONST	ENDS
;	COMDAT __real@444d8000
CONST	SEGMENT
__real@444d8000 DD 0444d8000r			; 822
CONST	ENDS
;	COMDAT __real@44480000
CONST	SEGMENT
__real@44480000 DD 044480000r			; 800
CONST	ENDS
;	COMDAT __real@441d1463
CONST	SEGMENT
__real@441d1463 DD 0441d1463r			; 628.319
CONST	ENDS
;	COMDAT __real@42f00000
CONST	SEGMENT
__real@42f00000 DD 042f00000r			; 120
CONST	ENDS
;	COMDAT __real@42ce25e0
CONST	SEGMENT
__real@42ce25e0 DD 042ce25e0r			; 103.074
CONST	ENDS
;	COMDAT __real@42cb0e45
CONST	SEGMENT
__real@42cb0e45 DD 042cb0e45r			; 101.528
CONST	ENDS
;	COMDAT __real@42c80000
CONST	SEGMENT
__real@42c80000 DD 042c80000r			; 100
CONST	ENDS
;	COMDAT __real@42652ee0
CONST	SEGMENT
__real@42652ee0 DD 042652ee0r			; 57.2958
CONST	ENDS
;	COMDAT __real@42480000
CONST	SEGMENT
__real@42480000 DD 042480000r			; 50
CONST	ENDS
;	COMDAT __real@42200000
CONST	SEGMENT
__real@42200000 DD 042200000r			; 40
CONST	ENDS
;	COMDAT __real@41f760a7
CONST	SEGMENT
__real@41f760a7 DD 041f760a7r			; 30.9222
CONST	ENDS
;	COMDAT __real@41f00000
CONST	SEGMENT
__real@41f00000 DD 041f00000r			; 30
CONST	ENDS
;	COMDAT __real@41d00000
CONST	SEGMENT
__real@41d00000 DD 041d00000r			; 26
CONST	ENDS
;	COMDAT __real@41a00000
CONST	SEGMENT
__real@41a00000 DD 041a00000r			; 20
CONST	ENDS
;	COMDAT __real@41900000
CONST	SEGMENT
__real@41900000 DD 041900000r			; 18
CONST	ENDS
;	COMDAT __real@417b3333
CONST	SEGMENT
__real@417b3333 DD 0417b3333r			; 15.7
CONST	ENDS
;	COMDAT __real@41700000
CONST	SEGMENT
__real@41700000 DD 041700000r			; 15
CONST	ENDS
;	COMDAT __real@416a147b
CONST	SEGMENT
__real@416a147b DD 0416a147br			; 14.63
CONST	ENDS
;	COMDAT __real@4131999a
CONST	SEGMENT
__real@4131999a DD 04131999ar			; 11.1
CONST	ENDS
;	COMDAT __real@412970a4
CONST	SEGMENT
__real@412970a4 DD 0412970a4r			; 10.59
CONST	ENDS
;	COMDAT __real@41200000
CONST	SEGMENT
__real@41200000 DD 041200000r			; 10
CONST	ENDS
;	COMDAT __real@411cf5c3
CONST	SEGMENT
__real@411cf5c3 DD 0411cf5c3r			; 9.81
CONST	ENDS
;	COMDAT __real@41000000
CONST	SEGMENT
__real@41000000 DD 041000000r			; 8
CONST	ENDS
;	COMDAT __real@40e99168
CONST	SEGMENT
__real@40e99168 DD 040e99168r			; 7.299
CONST	ENDS
;	COMDAT __real@40c90fdb
CONST	SEGMENT
__real@40c90fdb DD 040c90fdbr			; 6.28319
CONST	ENDS
;	COMDAT __real@40c00000
CONST	SEGMENT
__real@40c00000 DD 040c00000r			; 6
CONST	ENDS
;	COMDAT __real@40a4eb1a
CONST	SEGMENT
__real@40a4eb1a DD 040a4eb1ar			; 5.1537
CONST	ENDS
;	COMDAT __real@40a00000
CONST	SEGMENT
__real@40a00000 DD 040a00000r			; 5
CONST	ENDS
;	COMDAT __real@4099c40000000000
CONST	SEGMENT
__real@4099c40000000000 DQ 04099c40000000000r	; 1649
CONST	ENDS
;	COMDAT __real@40900000
CONST	SEGMENT
__real@40900000 DD 040900000r			; 4.5
CONST	ENDS
;	COMDAT __real@405f400000000000
CONST	SEGMENT
__real@405f400000000000 DQ 0405f400000000000r	; 125
CONST	ENDS
;	COMDAT __real@405e000000000000
CONST	SEGMENT
__real@405e000000000000 DQ 0405e000000000000r	; 120
CONST	ENDS
;	COMDAT __real@4059000000000000
CONST	SEGMENT
__real@4059000000000000 DQ 04059000000000000r	; 100
CONST	ENDS
;	COMDAT __real@404e000000000000
CONST	SEGMENT
__real@404e000000000000 DQ 0404e000000000000r	; 60
CONST	ENDS
;	COMDAT __real@404b800000000000
CONST	SEGMENT
__real@404b800000000000 DQ 0404b800000000000r	; 55
CONST	ENDS
;	COMDAT __real@4046800000000000
CONST	SEGMENT
__real@4046800000000000 DQ 04046800000000000r	; 45
CONST	ENDS
;	COMDAT __real@4041800000000000
CONST	SEGMENT
__real@4041800000000000 DQ 04041800000000000r	; 35
CONST	ENDS
;	COMDAT __real@40400000
CONST	SEGMENT
__real@40400000 DD 040400000r			; 3
CONST	ENDS
;	COMDAT __real@403eec14e0000000
CONST	SEGMENT
__real@403eec14e0000000 DQ 0403eec14e0000000r	; 30.9222
CONST	ENDS
;	COMDAT __real@403e000000000000
CONST	SEGMENT
__real@403e000000000000 DQ 0403e000000000000r	; 30
CONST	ENDS
;	COMDAT __real@4034000000000000
CONST	SEGMENT
__real@4034000000000000 DQ 04034000000000000r	; 20
CONST	ENDS
;	COMDAT __real@4033e66666666666
CONST	SEGMENT
__real@4033e66666666666 DQ 04033e66666666666r	; 19.9
CONST	ENDS
;	COMDAT __real@40328f5c
CONST	SEGMENT
__real@40328f5c DD 040328f5cr			; 2.79
CONST	ENDS
;	COMDAT __real@4030000000000000
CONST	SEGMENT
__real@4030000000000000 DQ 04030000000000000r	; 16
CONST	ENDS
;	COMDAT __real@402e000000000000
CONST	SEGMENT
__real@402e000000000000 DQ 0402e000000000000r	; 15
CONST	ENDS
;	COMDAT __real@4024000000000000
CONST	SEGMENT
__real@4024000000000000 DQ 04024000000000000r	; 10
CONST	ENDS
;	COMDAT __real@4020000000000000
CONST	SEGMENT
__real@4020000000000000 DQ 04020000000000000r	; 8
CONST	ENDS
;	COMDAT __real@4014000000000000
CONST	SEGMENT
__real@4014000000000000 DQ 04014000000000000r	; 5
CONST	ENDS
;	COMDAT __real@4012000000000000
CONST	SEGMENT
__real@4012000000000000 DQ 04012000000000000r	; 4.5
CONST	ENDS
;	COMDAT __real@4010000000000000
CONST	SEGMENT
__real@4010000000000000 DQ 04010000000000000r	; 4
CONST	ENDS
;	COMDAT __real@400921fb60000000
CONST	SEGMENT
__real@400921fb60000000 DQ 0400921fb60000000r	; 3.14159
CONST	ENDS
;	COMDAT __real@4008000000000000
CONST	SEGMENT
__real@4008000000000000 DQ 04008000000000000r	; 3
CONST	ENDS
;	COMDAT __real@4000000000000000
CONST	SEGMENT
__real@4000000000000000 DQ 04000000000000000r	; 2
CONST	ENDS
;	COMDAT __real@40000000
CONST	SEGMENT
__real@40000000 DD 040000000r			; 2
CONST	ENDS
;	COMDAT __real@3ff8000000000000
CONST	SEGMENT
__real@3ff8000000000000 DQ 03ff8000000000000r	; 1.5
CONST	ENDS
;	COMDAT __real@3ff0000000000000
CONST	SEGMENT
__real@3ff0000000000000 DQ 03ff0000000000000r	; 1
CONST	ENDS
;	COMDAT __real@3feccccccccccccd
CONST	SEGMENT
__real@3feccccccccccccd DQ 03feccccccccccccdr	; 0.9
CONST	ENDS
;	COMDAT __real@3fe999999999999a
CONST	SEGMENT
__real@3fe999999999999a DQ 03fe999999999999ar	; 0.8
CONST	ENDS
;	COMDAT __real@3fe8000000000000
CONST	SEGMENT
__real@3fe8000000000000 DQ 03fe8000000000000r	; 0.75
CONST	ENDS
;	COMDAT __real@3fe4cccccccccccd
CONST	SEGMENT
__real@3fe4cccccccccccd DQ 03fe4cccccccccccdr	; 0.65
CONST	ENDS
;	COMDAT __real@3fe3333333333333
CONST	SEGMENT
__real@3fe3333333333333 DQ 03fe3333333333333r	; 0.6
CONST	ENDS
;	COMDAT __real@3fe0000000000000
CONST	SEGMENT
__real@3fe0000000000000 DQ 03fe0000000000000r	; 0.5
CONST	ENDS
;	COMDAT __real@3fd999999999999a
CONST	SEGMENT
__real@3fd999999999999a DQ 03fd999999999999ar	; 0.4
CONST	ENDS
;	COMDAT __real@3fd3333333333333
CONST	SEGMENT
__real@3fd3333333333333 DQ 03fd3333333333333r	; 0.3
CONST	ENDS
;	COMDAT __real@3fd0000000000000
CONST	SEGMENT
__real@3fd0000000000000 DQ 03fd0000000000000r	; 0.25
CONST	ENDS
;	COMDAT __real@3fcccccd
CONST	SEGMENT
__real@3fcccccd DD 03fcccccdr			; 1.6
CONST	ENDS
;	COMDAT __real@3fc999999999999a
CONST	SEGMENT
__real@3fc999999999999a DQ 03fc999999999999ar	; 0.2
CONST	ENDS
;	COMDAT __real@3fc00000
CONST	SEGMENT
__real@3fc00000 DD 03fc00000r			; 1.5
CONST	ENDS
;	COMDAT __real@3fb999999999999a
CONST	SEGMENT
__real@3fb999999999999a DQ 03fb999999999999ar	; 0.1
CONST	ENDS
;	COMDAT __real@3fb6571848000000
CONST	SEGMENT
__real@3fb6571848000000 DQ 03fb6571848000000r	; 0.0872665
CONST	ENDS
;	COMDAT __real@3fa999999999999a
CONST	SEGMENT
__real@3fa999999999999a DQ 03fa999999999999ar	; 0.05
CONST	ENDS
;	COMDAT __real@3fa16872b020c49c
CONST	SEGMENT
__real@3fa16872b020c49c DQ 03fa16872b020c49cr	; 0.034
CONST	ENDS
;	COMDAT __real@3f99999a
CONST	SEGMENT
__real@3f99999a DD 03f99999ar			; 1.2
CONST	ENDS
;	COMDAT __real@3f8b4cc25072085c
CONST	SEGMENT
__real@3f8b4cc25072085c DQ 03f8b4cc25072085cr	; 0.01333
CONST	ENDS
;	COMDAT __real@3f800000
CONST	SEGMENT
__real@3f800000 DD 03f800000r			; 1
CONST	ENDS
;	COMDAT __real@3f666666
CONST	SEGMENT
__real@3f666666 DD 03f666666r			; 0.9
CONST	ENDS
;	COMDAT __real@3f647ae147ae147b
CONST	SEGMENT
__real@3f647ae147ae147b DQ 03f647ae147ae147br	; 0.0025
CONST	ENDS
;	COMDAT __real@3f50624dd2f1a9fc
CONST	SEGMENT
__real@3f50624dd2f1a9fc DQ 03f50624dd2f1a9fcr	; 0.001
CONST	ENDS
;	COMDAT __real@3f364840e1719f80
CONST	SEGMENT
__real@3f364840e1719f80 DQ 03f364840e1719f80r	; 0.00034
CONST	ENDS
;	COMDAT __real@3f1a36e2eb1c432d
CONST	SEGMENT
__real@3f1a36e2eb1c432d DQ 03f1a36e2eb1c432dr	; 0.0001
CONST	ENDS
;	COMDAT __real@3f19999a
CONST	SEGMENT
__real@3f19999a DD 03f19999ar			; 0.6
CONST	ENDS
;	COMDAT __real@3f10000000000000
CONST	SEGMENT
__real@3f10000000000000 DQ 03f10000000000000r	; 6.10352e-05
CONST	ENDS
;	COMDAT __real@3f00002000400080
CONST	SEGMENT
__real@3f00002000400080 DQ 03f00002000400080r	; 3.05185e-05
CONST	ENDS
;	COMDAT __real@3f000000
CONST	SEGMENT
__real@3f000000 DD 03f000000r			; 0.5
CONST	ENDS
;	COMDAT __real@3ecda922
CONST	SEGMENT
__real@3ecda922 DD 03ecda922r			; 0.401681
CONST	ENDS
;	COMDAT __real@3ecccccd
CONST	SEGMENT
__real@3ecccccd DD 03ecccccdr			; 0.4
CONST	ENDS
;	COMDAT __real@3e99999a
CONST	SEGMENT
__real@3e99999a DD 03e99999ar			; 0.3
CONST	ENDS
;	COMDAT __real@3e060a92
CONST	SEGMENT
__real@3e060a92 DD 03e060a92r			; 0.1309
CONST	ENDS
;	COMDAT __real@3dcccccd
CONST	SEGMENT
__real@3dcccccd DD 03dcccccdr			; 0.1
CONST	ENDS
;	COMDAT __real@3dc49809
CONST	SEGMENT
__real@3dc49809 DD 03dc49809r			; 0.0959931
CONST	ENDS
;	COMDAT __real@3dc28f5c
CONST	SEGMENT
__real@3dc28f5c DD 03dc28f5cr			; 0.095
CONST	ENDS
;	COMDAT __real@3da88ce7
CONST	SEGMENT
__real@3da88ce7 DD 03da88ce7r			; 0.0823
CONST	ENDS
;	COMDAT __real@3d567750
CONST	SEGMENT
__real@3d567750 DD 03d567750r			; 0.0523599
CONST	ENDS
;	COMDAT __real@3d0efa35
CONST	SEGMENT
__real@3d0efa35 DD 03d0efa35r			; 0.0349066
CONST	ENDS
;	COMDAT __real@3c8efa35
CONST	SEGMENT
__real@3c8efa35 DD 03c8efa35r			; 0.0174533
CONST	ENDS
;	COMDAT __real@3c23d70a
CONST	SEGMENT
__real@3c23d70a DD 03c23d70ar			; 0.01
CONST	ENDS
;	COMDAT __real@3b23d70a
CONST	SEGMENT
__real@3b23d70a DD 03b23d70ar			; 0.0025
CONST	ENDS
;	COMDAT __real@3aa3d70a
CONST	SEGMENT
__real@3aa3d70a DD 03aa3d70ar			; 0.00125
CONST	ENDS
;	COMDAT __real@0000000000000000
CONST	SEGMENT
__real@0000000000000000 DQ 00000000000000000r	; 0
CONST	ENDS
;	COMDAT __real@00000000
CONST	SEGMENT
__real@00000000 DD 000000000r			; 0
CONST	ENDS
;	COMDAT ??_C@_1BC@BLAPCBGI@?$AAs?$AAt?$AAd?$AA?3?$AA?3?$AAm?$AAi?$AAn@
CONST	SEGMENT
??_C@_1BC@BLAPCBGI@?$AAs?$AAt?$AAd?$AA?3?$AA?3?$AAm?$AAi?$AAn@ DB 's', 00H
	DB	't', 00H, 'd', 00H, ':', 00H, ':', 00H, 'm', 00H, 'i', 00H, 'n'
	DB	00H, 00H, 00H				; `string'
CONST	ENDS
;	COMDAT ??_C@_1CK@NDNHPKPI@?$AA?$CC?$AAi?$AAn?$AAv?$AAa?$AAl?$AAi?$AAd?$AA?5?$AAc?$AAo?$AAm?$AAp?$AAa?$AAr@
CONST	SEGMENT
??_C@_1CK@NDNHPKPI@?$AA?$CC?$AAi?$AAn?$AAv?$AAa?$AAl?$AAi?$AAd?$AA?5?$AAc?$AAo?$AAm?$AAp?$AAa?$AAr@ DB '"'
	DB	00H, 'i', 00H, 'n', 00H, 'v', 00H, 'a', 00H, 'l', 00H, 'i', 00H
	DB	'd', 00H, ' ', 00H, 'c', 00H, 'o', 00H, 'm', 00H, 'p', 00H, 'a'
	DB	00H, 'r', 00H, 'a', 00H, 't', 00H, 'o', 00H, 'r', 00H, '"', 00H
	DB	00H, 00H					; `string'
CONST	ENDS
;	COMDAT ??_C@_1BC@ICCOKLEG@?$AAs?$AAt?$AAd?$AA?3?$AA?3?$AAm?$AAa?$AAx@
CONST	SEGMENT
??_C@_1BC@ICCOKLEG@?$AAs?$AAt?$AAd?$AA?3?$AA?3?$AAm?$AAa?$AAx@ DB 's', 00H
	DB	't', 00H, 'd', 00H, ':', 00H, ':', 00H, 'm', 00H, 'a', 00H, 'x'
	DB	00H, 00H, 00H				; `string'
CONST	ENDS
;	COMDAT ??_C@_1NE@FKBPBJEB@?$AAc?$AA?3?$AA?2?$AAp?$AAr?$AAo?$AAg?$AAr?$AAa?$AAm?$AA?5?$AAf?$AAi?$AAl?$AAe@
CONST	SEGMENT
??_C@_1NE@FKBPBJEB@?$AAc?$AA?3?$AA?2?$AAp?$AAr?$AAo?$AAg?$AAr?$AAa?$AAm?$AA?5?$AAf?$AAi?$AAl?$AAe@ DB 'c'
	DB	00H, ':', 00H, '\', 00H, 'p', 00H, 'r', 00H, 'o', 00H, 'g', 00H
	DB	'r', 00H, 'a', 00H, 'm', 00H, ' ', 00H, 'f', 00H, 'i', 00H, 'l'
	DB	00H, 'e', 00H, 's', 00H, ' ', 00H, '(', 00H, 'x', 00H, '8', 00H
	DB	'6', 00H, ')', 00H, '\', 00H, 'm', 00H, 'i', 00H, 'c', 00H, 'r'
	DB	00H, 'o', 00H, 's', 00H, 'o', 00H, 'f', 00H, 't', 00H, ' ', 00H
	DB	'v', 00H, 'i', 00H, 's', 00H, 'u', 00H, 'a', 00H, 'l', 00H, ' '
	DB	00H, 's', 00H, 't', 00H, 'u', 00H, 'd', 00H, 'i', 00H, 'o', 00H
	DB	'\', 00H, '2', 00H, '0', 00H, '1', 00H, '7', 00H, '\', 00H, 'c'
	DB	00H, 'o', 00H, 'm', 00H, 'm', 00H, 'u', 00H, 'n', 00H, 'i', 00H
	DB	't', 00H, 'y', 00H, '\', 00H, 'v', 00H, 'c', 00H, '\', 00H, 't'
	DB	00H, 'o', 00H, 'o', 00H, 'l', 00H, 's', 00H, '\', 00H, 'm', 00H
	DB	's', 00H, 'v', 00H, 'c', 00H, '\', 00H, '1', 00H, '4', 00H, '.'
	DB	00H, '1', 00H, '6', 00H, '.', 00H, '2', 00H, '7', 00H, '0', 00H
	DB	'2', 00H, '3', 00H, '\', 00H, 'i', 00H, 'n', 00H, 'c', 00H, 'l'
	DB	00H, 'u', 00H, 'd', 00H, 'e', 00H, '\', 00H, 'a', 00H, 'l', 00H
	DB	'g', 00H, 'o', 00H, 'r', 00H, 'i', 00H, 't', 00H, 'h', 00H, 'm'
	DB	00H, 00H, 00H				; `string'
CONST	ENDS
;	COMDAT ??_C@_0GK@JMBMHIBC@c?3?2program?5files?5?$CIx86?$CJ?2microsof@
CONST	SEGMENT
??_C@_0GK@JMBMHIBC@c?3?2program?5files?5?$CIx86?$CJ?2microsof@ DB 'c:\pro'
	DB	'gram files (x86)\microsoft visual studio\2017\community\vc\to'
	DB	'ols\msvc\14.16.27023\include\algorithm', 00H ; `string'
CONST	ENDS
;	COMDAT ??_C@_0BD@FEEMDEPI@invalid?5comparator@
CONST	SEGMENT
??_C@_0BD@FEEMDEPI@invalid?5comparator@ DB 'invalid comparator', 00H ; `string'
CONST	ENDS
;	COMDAT ?__LINE__Var@?0??update_acceleration_dynamics@@YGXXZ@4JA
_DATA	SEGMENT
?__LINE__Var@?0??update_acceleration_dynamics@@YGXXZ@4JA DD 0af8H ; `update_acceleration_dynamics'::`1'::__LINE__Var
_DATA	ENDS
;	COMDAT ??_C@_0BG@EBOEKGCA@Ground?5Friction?5force@
CONST	SEGMENT
??_C@_0BG@EBOEKGCA@Ground?5Friction?5force@ DB 'Ground Friction force', 00H ; `string'
CONST	ENDS
;	COMDAT ??_C@_04LGBIOLDJ@Wind@
CONST	SEGMENT
??_C@_04LGBIOLDJ@Wind@ DB 'Wind', 00H			; `string'
CONST	ENDS
;	COMDAT ??_C@_0BC@MPODPIKD@Vortex?5ring?5force@
CONST	SEGMENT
??_C@_0BC@MPODPIKD@Vortex?5ring?5force@ DB 'Vortex ring force', 00H ; `string'
CONST	ENDS
;	COMDAT ??_C@_0BK@ONPBLKKA@Right?5rotor?5Ground?5effect@
CONST	SEGMENT
??_C@_0BK@ONPBLKKA@Right?5rotor?5Ground?5effect@ DB 'Right rotor Ground e'
	DB	'ffect', 00H					; `string'
CONST	ENDS
;	COMDAT ??_C@_0BJ@KEABEFD@Left?5rotor?5Ground?5effect@
CONST	SEGMENT
??_C@_0BJ@KEABEFD@Left?5rotor?5Ground?5effect@ DB 'Left rotor Ground effe'
	DB	'ct', 00H					; `string'
CONST	ENDS
;	COMDAT ??_C@_0BJ@MKNEGMFL@Back?5rotor?5Ground?5effect@
CONST	SEGMENT
??_C@_0BJ@MKNEGMFL@Back?5rotor?5Ground?5effect@ DB 'Back rotor Ground eff'
	DB	'ect', 00H					; `string'
CONST	ENDS
;	COMDAT ??_C@_0BK@BDABDLEI@Front?5rotor?5Ground?5effect@
CONST	SEGMENT
??_C@_0BK@BDABDLEI@Front?5rotor?5Ground?5effect@ DB 'Front rotor Ground e'
	DB	'ffect', 00H					; `string'
CONST	ENDS
;	COMDAT ??_C@_0BL@CBNCBPEP@Middle?5rotor?5Ground?5effect@
CONST	SEGMENT
??_C@_0BL@CBNCBPEP@Middle?5rotor?5Ground?5effect@ DB 'Middle rotor Ground'
	DB	' effect', 00H				; `string'
CONST	ENDS
;	COMDAT ??_C@_0BF@LAMOPNAJ@Vertical?5motion?5drag@
CONST	SEGMENT
??_C@_0BF@LAMOPNAJ@Vertical?5motion?5drag@ DB 'Vertical motion drag', 00H ; `string'
CONST	ENDS
;	COMDAT ??_C@_0BE@DICEDONG@Lateral?5motion?5drag@
CONST	SEGMENT
??_C@_0BE@DICEDONG@Lateral?5motion?5drag@ DB 'Lateral motion drag', 00H ; `string'
CONST	ENDS
;	COMDAT ??_C@_0BE@JPPEFMCN@Forward?5motion?5drag@
CONST	SEGMENT
??_C@_0BE@JPPEFMCN@Forward?5motion?5drag@ DB 'Forward motion drag', 00H ; `string'
CONST	ENDS
;	COMDAT ??_C@_0BO@BHAFBPMJ@Forward?5motion?5Yaw?5input?5drag@
CONST	SEGMENT
??_C@_0BO@BHAFBPMJ@Forward?5motion?5Yaw?5input?5drag@ DB 'Forward motion '
	DB	'Yaw input drag', 00H			; `string'
CONST	ENDS
;	COMDAT ??_C@_0BH@IEIJHFAG@Realign?5force?5?$CIX?5axis?$CJ@
CONST	SEGMENT
??_C@_0BH@IEIJHFAG@Realign?5force?5?$CIX?5axis?$CJ@ DB 'Realign force (X '
	DB	'axis)', 00H					; `string'
CONST	ENDS
;	COMDAT ??_C@_0BH@EICDHFJI@Realign?5force?5?$CIY?5axis?$CJ@
CONST	SEGMENT
??_C@_0BH@EICDHFJI@Realign?5force?5?$CIY?5axis?$CJ@ DB 'Realign force (Y '
	DB	'axis)', 00H					; `string'
CONST	ENDS
;	COMDAT ??_C@_0P@OJCKBBIP@Yaw?5resistance@
CONST	SEGMENT
??_C@_0P@OJCKBBIP@Yaw?5resistance@ DB 'Yaw resistance', 00H ; `string'
CONST	ENDS
;	COMDAT ??_C@_0BA@JHNCKIDL@Roll?5resistance@
CONST	SEGMENT
??_C@_0BA@JHNCKIDL@Roll?5resistance@ DB 'Roll resistance', 00H ; `string'
CONST	ENDS
;	COMDAT ??_C@_0BB@FPOJGHNF@Pitch?5resistance@
CONST	SEGMENT
??_C@_0BB@FPOJGHNF@Pitch?5resistance@ DB 'Pitch resistance', 00H ; `string'
CONST	ENDS
;	COMDAT ??_C@_0BK@DILBAPLM@Main?5rotor?5angular?5torque@
CONST	SEGMENT
??_C@_0BK@DILBAPLM@Main?5rotor?5angular?5torque@ DB 'Main rotor angular t'
	DB	'orque', 00H					; `string'
CONST	ENDS
;	COMDAT ??_C@_0O@JIJAGCOD@Sonic?5buildup@
CONST	SEGMENT
??_C@_0O@JIJAGCOD@Sonic?5buildup@ DB 'Sonic buildup', 00H ; `string'
CONST	ENDS
;	COMDAT ??_C@_0BG@LPCPLOKH@Advancing?5blade?5stall@
CONST	SEGMENT
??_C@_0BG@LPCPLOKH@Advancing?5blade?5stall@ DB 'Advancing blade stall', 00H ; `string'
CONST	ENDS
;	COMDAT ??_C@_0BH@HFGLNDFM@Retreating?5blade?5stall@
CONST	SEGMENT
??_C@_0BH@HFGLNDFM@Retreating?5blade?5stall@ DB 'Retreating blade stall', 00H ; `string'
CONST	ENDS
;	COMDAT ??_C@_0BC@GCGACPAK@Transitional?5lift@
CONST	SEGMENT
??_C@_0BC@GCGACPAK@Transitional?5lift@ DB 'Transitional lift', 00H ; `string'
CONST	ENDS
;	COMDAT ??_C@_07JMGDFJEK@Gravity@
CONST	SEGMENT
??_C@_07JMGDFJEK@Gravity@ DB 'Gravity', 00H		; `string'
CONST	ENDS
;	COMDAT ??_C@_0BJ@INGIGFJO@Angular?5tail?5rotor?5force@
CONST	SEGMENT
??_C@_0BJ@INGIGFJO@Angular?5tail?5rotor?5force@ DB 'Angular tail rotor fo'
	DB	'rce', 00H					; `string'
CONST	ENDS
;	COMDAT ??_C@_0BC@BCPABIID@Right?5rotor?5force@
CONST	SEGMENT
??_C@_0BC@BCPABIID@Right?5rotor?5force@ DB 'Right rotor force', 00H ; `string'
CONST	ENDS
;	COMDAT ??_C@_0BB@JNCAICOI@Left?5rotor?5force@
CONST	SEGMENT
??_C@_0BB@JNCAICOI@Left?5rotor?5force@ DB 'Left rotor force', 00H ; `string'
CONST	ENDS
;	COMDAT ??_C@_0BB@LJEAAOI@Back?5rotor?5force@
CONST	SEGMENT
??_C@_0BB@LJEAAOI@Back?5rotor?5force@ DB 'Back rotor force', 00H ; `string'
CONST	ENDS
;	COMDAT ??_C@_0BC@MEMJFFEH@Front?5rotor?5force@
CONST	SEGMENT
??_C@_0BC@MEMJFFEH@Front?5rotor?5force@ DB 'Front rotor force', 00H ; `string'
CONST	ENDS
;	COMDAT ??_C@_0BD@BBEFFKGJ@Middle?5rotor?5force@
CONST	SEGMENT
??_C@_0BD@BBEFFKGJ@Middle?5rotor?5force@ DB 'Middle rotor force', 00H ; `string'
CONST	ENDS
;	COMDAT ??_C@_0O@DAHLPFDH@Taxiing?5force@
CONST	SEGMENT
??_C@_0O@DAHLPFDH@Taxiing?5force@ DB 'Taxiing force', 00H ; `string'
CONST	ENDS
;	COMDAT ??_C@_0BD@EHBODOFB@DYNAMICS?3?5UNSTABLE@
CONST	SEGMENT
??_C@_0BD@EHBODOFB@DYNAMICS?3?5UNSTABLE@ DB 'DYNAMICS: UNSTABLE', 00H ; `string'
CONST	ENDS
_DATA	SEGMENT
?res@?FK@??update_attitude_dynamics@@YGXXZ@4MA DD 040c00000r ; 6 ; `update_attitude_dynamics'::`90'::res
?mass@?FK@??update_attitude_dynamics@@YGXXZ@4MA DD 042200000r ; 40 ; `update_attitude_dynamics'::`90'::mass
_DATA	ENDS
;	COMDAT ?__LINE__Var@?0??update_attitude_dynamics@@YGXXZ@4JA
_DATA	SEGMENT
?__LINE__Var@?0??update_attitude_dynamics@@YGXXZ@4JA DD 04deH ; `update_attitude_dynamics'::`1'::__LINE__Var
_DATA	ENDS
;	COMDAT ??_C@_0FA@IFJNMDIM@c?3?2users?2nhv90?2projects?2eech?2ap@
CONST	SEGMENT
??_C@_0FA@IFJNMDIM@c?3?2users?2nhv90?2projects?2eech?2ap@ DB 'c:\users\nh'
	DB	'v90\projects\eech\aphavoc\source\gunships\dynamics\comanche\c'
	DB	'm_dyn.c', 00H				; `string'
CONST	ENDS
;	COMDAT ?__LINE__Var@?0??set_dynamics_defaults@@YGXPAUENTITY@@@Z@4JA
_DATA	SEGMENT
?__LINE__Var@?0??set_dynamics_defaults@@YGXPAUENTITY@@@Z@4JA DD 090H ; `set_dynamics_defaults'::`1'::__LINE__Var
_DATA	ENDS
;	COMDAT ??_C@_0BM@PFKMNBOP@?4?4?2common?2data?2comanche?4dyn@
CONST	SEGMENT
??_C@_0BM@PFKMNBOP@?4?4?2common?2data?2comanche?4dyn@ DB '..\common\data\'
	DB	'comanche.dyn', 00H				; `string'
CONST	ENDS
;	COMDAT ??_C@_02DKCKIIND@?$CFs@
CONST	SEGMENT
??_C@_02DKCKIIND@?$CFs@ DB '%s', 00H			; `string'
CONST	ENDS
; Function compile flags: /Odtp /ZI
; File c:\users\nhv90\projects\eech\aphavoc\source\gunships\dynamics\comanche\cm_dyn.c
;	COMDAT ?comanche_restore_damage_values@@YGXXZ
_TEXT	SEGMENT
?comanche_restore_damage_values@@YGXXZ PROC		; comanche_restore_damage_values, COMDAT

; 2943 : {

  00000	55		 push	 ebp
  00001	8b ec		 mov	 ebp, esp
  00003	83 ec 40	 sub	 esp, 64			; 00000040H
  00006	53		 push	 ebx
  00007	56		 push	 esi
  00008	57		 push	 edi

; 2944 : 
; 2945 : 	current_flight_dynamics->centre_of_gravity.x = 0.00;

  00009	a1 00 00 00 00	 mov	 eax, DWORD PTR ?current_flight_dynamics@@3PAUDYNAMICS_TYPE@@A ; current_flight_dynamics
  0000e	0f 57 c0	 xorps	 xmm0, xmm0
  00011	f3 0f 11 80 24
	1c 00 00	 movss	 DWORD PTR [eax+7204], xmm0

; 2946 : 	current_flight_dynamics->centre_of_gravity.y = -0.2;

  00019	a1 00 00 00 00	 mov	 eax, DWORD PTR ?current_flight_dynamics@@3PAUDYNAMICS_TYPE@@A ; current_flight_dynamics
  0001e	f3 0f 10 05 00
	00 00 00	 movss	 xmm0, DWORD PTR __real@be4ccccd
  00026	f3 0f 11 80 28
	1c 00 00	 movss	 DWORD PTR [eax+7208], xmm0

; 2947 : 	current_flight_dynamics->centre_of_gravity.z = -0.008;

  0002e	a1 00 00 00 00	 mov	 eax, DWORD PTR ?current_flight_dynamics@@3PAUDYNAMICS_TYPE@@A ; current_flight_dynamics
  00033	f3 0f 10 05 00
	00 00 00	 movss	 xmm0, DWORD PTR __real@bc03126f
  0003b	f3 0f 11 80 2c
	1c 00 00	 movss	 DWORD PTR [eax+7212], xmm0

; 2948 : }

  00043	5f		 pop	 edi
  00044	5e		 pop	 esi
  00045	5b		 pop	 ebx
  00046	8b e5		 mov	 esp, ebp
  00048	5d		 pop	 ebp
  00049	c3		 ret	 0
?comanche_restore_damage_values@@YGXXZ ENDP		; comanche_restore_damage_values
_TEXT	ENDS
; Function compile flags: /Odtp /ZI
; File c:\program files (x86)\microsoft visual studio\2017\community\vc\tools\msvc\14.16.27023\include\algorithm
;	COMDAT ??$min@M@std@@YGABMABM0@Z
_TEXT	SEGMENT
__Left$ = 8						; size = 4
__Right$ = 12						; size = 4
??$min@M@std@@YGABMABM0@Z PROC				; std::min<float>, COMDAT

; 5427 : 	{	// return smaller of _Left and _Right

  00000	55		 push	 ebp
  00001	8b ec		 mov	 ebp, esp
  00003	83 ec 40	 sub	 esp, 64			; 00000040H
  00006	53		 push	 ebx
  00007	56		 push	 esi
  00008	57		 push	 edi

; 5428 : 	if (_Right < _Left)

  00009	8b 45 08	 mov	 eax, DWORD PTR __Left$[ebp]
  0000c	8b 4d 0c	 mov	 ecx, DWORD PTR __Right$[ebp]
  0000f	f3 0f 10 00	 movss	 xmm0, DWORD PTR [eax]
  00013	0f 2f 01	 comiss	 xmm0, DWORD PTR [ecx]
  00016	76 64		 jbe	 SHORT $LN8@min
$LN4@min:

; 5429 : 		{
; 5430 : 		_STL_ASSERT(!(_Left < _Right), "invalid comparator");

  00018	8b 45 0c	 mov	 eax, DWORD PTR __Right$[ebp]
  0001b	8b 4d 08	 mov	 ecx, DWORD PTR __Left$[ebp]
  0001e	f3 0f 10 00	 movss	 xmm0, DWORD PTR [eax]
  00022	0f 2f 01	 comiss	 xmm0, DWORD PTR [ecx]
  00025	77 02		 ja	 SHORT $LN9@min
  00027	eb 4a		 jmp	 SHORT $LN6@min
$LN9@min:
  00029	68 00 00 00 00	 push	 OFFSET ??_C@_0BD@FEEMDEPI@invalid?5comparator@
  0002e	68 00 00 00 00	 push	 OFFSET ??_C@_02DKCKIIND@?$CFs@
  00033	6a 00		 push	 0
  00035	68 36 15 00 00	 push	 5430			; 00001536H
  0003a	68 00 00 00 00	 push	 OFFSET ??_C@_0GK@JMBMHIBC@c?3?2program?5files?5?$CIx86?$CJ?2microsof@
  0003f	6a 02		 push	 2
  00041	ff 15 00 00 00
	00		 call	 DWORD PTR __imp___CrtDbgReport
  00047	83 c4 18	 add	 esp, 24			; 00000018H
  0004a	83 f8 01	 cmp	 eax, 1
  0004d	75 01		 jne	 SHORT $LN12@min
  0004f	cc		 int	 3
$LN12@min:
  00050	6a 00		 push	 0
  00052	68 36 15 00 00	 push	 5430			; 00001536H
  00057	68 00 00 00 00	 push	 OFFSET ??_C@_1NE@FKBPBJEB@?$AAc?$AA?3?$AA?2?$AAp?$AAr?$AAo?$AAg?$AAr?$AAa?$AAm?$AA?5?$AAf?$AAi?$AAl?$AAe@
  0005c	68 00 00 00 00	 push	 OFFSET ??_C@_1BC@BLAPCBGI@?$AAs?$AAt?$AAd?$AA?3?$AA?3?$AAm?$AAi?$AAn@
  00061	68 00 00 00 00	 push	 OFFSET ??_C@_1CK@NDNHPKPI@?$AA?$CC?$AAi?$AAn?$AAv?$AAa?$AAl?$AAi?$AAd?$AA?5?$AAc?$AAo?$AAm?$AAp?$AAa?$AAr@
  00066	ff 15 00 00 00
	00		 call	 DWORD PTR __imp___invalid_parameter
  0006c	83 c4 14	 add	 esp, 20			; 00000014H
  0006f	33 c0		 xor	 eax, eax
  00071	75 b6		 jne	 SHORT $LN9@min
$LN6@min:
  00073	33 c0		 xor	 eax, eax
  00075	75 a1		 jne	 SHORT $LN4@min

; 5431 : 		return (_Right);

  00077	8b 45 0c	 mov	 eax, DWORD PTR __Right$[ebp]
  0007a	eb 03		 jmp	 SHORT $LN1@min
$LN8@min:

; 5432 : 		}
; 5433 : 
; 5434 : 	return (_Left);

  0007c	8b 45 08	 mov	 eax, DWORD PTR __Left$[ebp]
$LN1@min:

; 5435 : 	}

  0007f	5f		 pop	 edi
  00080	5e		 pop	 esi
  00081	5b		 pop	 ebx
  00082	8b e5		 mov	 esp, ebp
  00084	5d		 pop	 ebp
  00085	c2 08 00	 ret	 8
??$min@M@std@@YGABMABM0@Z ENDP				; std::min<float>
_TEXT	ENDS
; Function compile flags: /Odtp /ZI
; File c:\program files (x86)\microsoft visual studio\2017\community\vc\tools\msvc\14.16.27023\include\algorithm
;	COMDAT ??$min@N@std@@YGABNABN0@Z
_TEXT	SEGMENT
__Left$ = 8						; size = 4
__Right$ = 12						; size = 4
??$min@N@std@@YGABNABN0@Z PROC				; std::min<double>, COMDAT

; 5427 : 	{	// return smaller of _Left and _Right

  00000	55		 push	 ebp
  00001	8b ec		 mov	 ebp, esp
  00003	83 ec 40	 sub	 esp, 64			; 00000040H
  00006	53		 push	 ebx
  00007	56		 push	 esi
  00008	57		 push	 edi

; 5428 : 	if (_Right < _Left)

  00009	8b 45 08	 mov	 eax, DWORD PTR __Left$[ebp]
  0000c	8b 4d 0c	 mov	 ecx, DWORD PTR __Right$[ebp]
  0000f	f2 0f 10 00	 movsd	 xmm0, QWORD PTR [eax]
  00013	66 0f 2f 01	 comisd	 xmm0, QWORD PTR [ecx]
  00017	76 65		 jbe	 SHORT $LN8@min
$LN4@min:

; 5429 : 		{
; 5430 : 		_STL_ASSERT(!(_Left < _Right), "invalid comparator");

  00019	8b 45 0c	 mov	 eax, DWORD PTR __Right$[ebp]
  0001c	8b 4d 08	 mov	 ecx, DWORD PTR __Left$[ebp]
  0001f	f2 0f 10 00	 movsd	 xmm0, QWORD PTR [eax]
  00023	66 0f 2f 01	 comisd	 xmm0, QWORD PTR [ecx]
  00027	77 02		 ja	 SHORT $LN9@min
  00029	eb 4a		 jmp	 SHORT $LN6@min
$LN9@min:
  0002b	68 00 00 00 00	 push	 OFFSET ??_C@_0BD@FEEMDEPI@invalid?5comparator@
  00030	68 00 00 00 00	 push	 OFFSET ??_C@_02DKCKIIND@?$CFs@
  00035	6a 00		 push	 0
  00037	68 36 15 00 00	 push	 5430			; 00001536H
  0003c	68 00 00 00 00	 push	 OFFSET ??_C@_0GK@JMBMHIBC@c?3?2program?5files?5?$CIx86?$CJ?2microsof@
  00041	6a 02		 push	 2
  00043	ff 15 00 00 00
	00		 call	 DWORD PTR __imp___CrtDbgReport
  00049	83 c4 18	 add	 esp, 24			; 00000018H
  0004c	83 f8 01	 cmp	 eax, 1
  0004f	75 01		 jne	 SHORT $LN12@min
  00051	cc		 int	 3
$LN12@min:
  00052	6a 00		 push	 0
  00054	68 36 15 00 00	 push	 5430			; 00001536H
  00059	68 00 00 00 00	 push	 OFFSET ??_C@_1NE@FKBPBJEB@?$AAc?$AA?3?$AA?2?$AAp?$AAr?$AAo?$AAg?$AAr?$AAa?$AAm?$AA?5?$AAf?$AAi?$AAl?$AAe@
  0005e	68 00 00 00 00	 push	 OFFSET ??_C@_1BC@BLAPCBGI@?$AAs?$AAt?$AAd?$AA?3?$AA?3?$AAm?$AAi?$AAn@
  00063	68 00 00 00 00	 push	 OFFSET ??_C@_1CK@NDNHPKPI@?$AA?$CC?$AAi?$AAn?$AAv?$AAa?$AAl?$AAi?$AAd?$AA?5?$AAc?$AAo?$AAm?$AAp?$AAa?$AAr@
  00068	ff 15 00 00 00
	00		 call	 DWORD PTR __imp___invalid_parameter
  0006e	83 c4 14	 add	 esp, 20			; 00000014H
  00071	33 c0		 xor	 eax, eax
  00073	75 b6		 jne	 SHORT $LN9@min
$LN6@min:
  00075	33 c0		 xor	 eax, eax
  00077	75 a0		 jne	 SHORT $LN4@min

; 5431 : 		return (_Right);

  00079	8b 45 0c	 mov	 eax, DWORD PTR __Right$[ebp]
  0007c	eb 03		 jmp	 SHORT $LN1@min
$LN8@min:

; 5432 : 		}
; 5433 : 
; 5434 : 	return (_Left);

  0007e	8b 45 08	 mov	 eax, DWORD PTR __Left$[ebp]
$LN1@min:

; 5435 : 	}

  00081	5f		 pop	 edi
  00082	5e		 pop	 esi
  00083	5b		 pop	 ebx
  00084	8b e5		 mov	 esp, ebp
  00086	5d		 pop	 ebp
  00087	c2 08 00	 ret	 8
??$min@N@std@@YGABNABN0@Z ENDP				; std::min<double>
_TEXT	ENDS
; Function compile flags: /Odtp /ZI
; File c:\program files (x86)\microsoft visual studio\2017\community\vc\tools\msvc\14.16.27023\include\algorithm
;	COMDAT ??$max@N@std@@YGABNABN0@Z
_TEXT	SEGMENT
__Left$ = 8						; size = 4
__Right$ = 12						; size = 4
??$max@N@std@@YGABNABN0@Z PROC				; std::max<double>, COMDAT

; 5387 : 	{	// return larger of _Left and _Right

  00000	55		 push	 ebp
  00001	8b ec		 mov	 ebp, esp
  00003	83 ec 40	 sub	 esp, 64			; 00000040H
  00006	53		 push	 ebx
  00007	56		 push	 esi
  00008	57		 push	 edi

; 5388 : 	if (_Left < _Right)

  00009	8b 45 0c	 mov	 eax, DWORD PTR __Right$[ebp]
  0000c	8b 4d 08	 mov	 ecx, DWORD PTR __Left$[ebp]
  0000f	f2 0f 10 00	 movsd	 xmm0, QWORD PTR [eax]
  00013	66 0f 2f 01	 comisd	 xmm0, QWORD PTR [ecx]
  00017	76 65		 jbe	 SHORT $LN8@max
$LN4@max:

; 5389 : 		{
; 5390 : 		_STL_ASSERT(!(_Right < _Left), "invalid comparator");

  00019	8b 45 08	 mov	 eax, DWORD PTR __Left$[ebp]
  0001c	8b 4d 0c	 mov	 ecx, DWORD PTR __Right$[ebp]
  0001f	f2 0f 10 00	 movsd	 xmm0, QWORD PTR [eax]
  00023	66 0f 2f 01	 comisd	 xmm0, QWORD PTR [ecx]
  00027	77 02		 ja	 SHORT $LN9@max
  00029	eb 4a		 jmp	 SHORT $LN6@max
$LN9@max:
  0002b	68 00 00 00 00	 push	 OFFSET ??_C@_0BD@FEEMDEPI@invalid?5comparator@
  00030	68 00 00 00 00	 push	 OFFSET ??_C@_02DKCKIIND@?$CFs@
  00035	6a 00		 push	 0
  00037	68 0e 15 00 00	 push	 5390			; 0000150eH
  0003c	68 00 00 00 00	 push	 OFFSET ??_C@_0GK@JMBMHIBC@c?3?2program?5files?5?$CIx86?$CJ?2microsof@
  00041	6a 02		 push	 2
  00043	ff 15 00 00 00
	00		 call	 DWORD PTR __imp___CrtDbgReport
  00049	83 c4 18	 add	 esp, 24			; 00000018H
  0004c	83 f8 01	 cmp	 eax, 1
  0004f	75 01		 jne	 SHORT $LN12@max
  00051	cc		 int	 3
$LN12@max:
  00052	6a 00		 push	 0
  00054	68 0e 15 00 00	 push	 5390			; 0000150eH
  00059	68 00 00 00 00	 push	 OFFSET ??_C@_1NE@FKBPBJEB@?$AAc?$AA?3?$AA?2?$AAp?$AAr?$AAo?$AAg?$AAr?$AAa?$AAm?$AA?5?$AAf?$AAi?$AAl?$AAe@
  0005e	68 00 00 00 00	 push	 OFFSET ??_C@_1BC@ICCOKLEG@?$AAs?$AAt?$AAd?$AA?3?$AA?3?$AAm?$AAa?$AAx@
  00063	68 00 00 00 00	 push	 OFFSET ??_C@_1CK@NDNHPKPI@?$AA?$CC?$AAi?$AAn?$AAv?$AAa?$AAl?$AAi?$AAd?$AA?5?$AAc?$AAo?$AAm?$AAp?$AAa?$AAr@
  00068	ff 15 00 00 00
	00		 call	 DWORD PTR __imp___invalid_parameter
  0006e	83 c4 14	 add	 esp, 20			; 00000014H
  00071	33 c0		 xor	 eax, eax
  00073	75 b6		 jne	 SHORT $LN9@max
$LN6@max:
  00075	33 c0		 xor	 eax, eax
  00077	75 a0		 jne	 SHORT $LN4@max

; 5391 : 		return (_Right);

  00079	8b 45 0c	 mov	 eax, DWORD PTR __Right$[ebp]
  0007c	eb 03		 jmp	 SHORT $LN1@max
$LN8@max:

; 5392 : 		}
; 5393 : 
; 5394 : 	return (_Left);

  0007e	8b 45 08	 mov	 eax, DWORD PTR __Left$[ebp]
$LN1@max:

; 5395 : 	}

  00081	5f		 pop	 edi
  00082	5e		 pop	 esi
  00083	5b		 pop	 ebx
  00084	8b e5		 mov	 esp, ebp
  00086	5d		 pop	 ebp
  00087	c2 08 00	 ret	 8
??$max@N@std@@YGABNABN0@Z ENDP				; std::max<double>
_TEXT	ENDS
; Function compile flags: /Odtp /ZI
; File c:\program files (x86)\microsoft visual studio\2017\community\vc\tools\msvc\14.16.27023\include\algorithm
;	COMDAT ??$max@M@std@@YGABMABM0@Z
_TEXT	SEGMENT
__Left$ = 8						; size = 4
__Right$ = 12						; size = 4
??$max@M@std@@YGABMABM0@Z PROC				; std::max<float>, COMDAT

; 5387 : 	{	// return larger of _Left and _Right

  00000	55		 push	 ebp
  00001	8b ec		 mov	 ebp, esp
  00003	83 ec 40	 sub	 esp, 64			; 00000040H
  00006	53		 push	 ebx
  00007	56		 push	 esi
  00008	57		 push	 edi

; 5388 : 	if (_Left < _Right)

  00009	8b 45 0c	 mov	 eax, DWORD PTR __Right$[ebp]
  0000c	8b 4d 08	 mov	 ecx, DWORD PTR __Left$[ebp]
  0000f	f3 0f 10 00	 movss	 xmm0, DWORD PTR [eax]
  00013	0f 2f 01	 comiss	 xmm0, DWORD PTR [ecx]
  00016	76 64		 jbe	 SHORT $LN8@max
$LN4@max:

; 5389 : 		{
; 5390 : 		_STL_ASSERT(!(_Right < _Left), "invalid comparator");

  00018	8b 45 08	 mov	 eax, DWORD PTR __Left$[ebp]
  0001b	8b 4d 0c	 mov	 ecx, DWORD PTR __Right$[ebp]
  0001e	f3 0f 10 00	 movss	 xmm0, DWORD PTR [eax]
  00022	0f 2f 01	 comiss	 xmm0, DWORD PTR [ecx]
  00025	77 02		 ja	 SHORT $LN9@max
  00027	eb 4a		 jmp	 SHORT $LN6@max
$LN9@max:
  00029	68 00 00 00 00	 push	 OFFSET ??_C@_0BD@FEEMDEPI@invalid?5comparator@
  0002e	68 00 00 00 00	 push	 OFFSET ??_C@_02DKCKIIND@?$CFs@
  00033	6a 00		 push	 0
  00035	68 0e 15 00 00	 push	 5390			; 0000150eH
  0003a	68 00 00 00 00	 push	 OFFSET ??_C@_0GK@JMBMHIBC@c?3?2program?5files?5?$CIx86?$CJ?2microsof@
  0003f	6a 02		 push	 2
  00041	ff 15 00 00 00
	00		 call	 DWORD PTR __imp___CrtDbgReport
  00047	83 c4 18	 add	 esp, 24			; 00000018H
  0004a	83 f8 01	 cmp	 eax, 1
  0004d	75 01		 jne	 SHORT $LN12@max
  0004f	cc		 int	 3
$LN12@max:
  00050	6a 00		 push	 0
  00052	68 0e 15 00 00	 push	 5390			; 0000150eH
  00057	68 00 00 00 00	 push	 OFFSET ??_C@_1NE@FKBPBJEB@?$AAc?$AA?3?$AA?2?$AAp?$AAr?$AAo?$AAg?$AAr?$AAa?$AAm?$AA?5?$AAf?$AAi?$AAl?$AAe@
  0005c	68 00 00 00 00	 push	 OFFSET ??_C@_1BC@ICCOKLEG@?$AAs?$AAt?$AAd?$AA?3?$AA?3?$AAm?$AAa?$AAx@
  00061	68 00 00 00 00	 push	 OFFSET ??_C@_1CK@NDNHPKPI@?$AA?$CC?$AAi?$AAn?$AAv?$AAa?$AAl?$AAi?$AAd?$AA?5?$AAc?$AAo?$AAm?$AAp?$AAa?$AAr@
  00066	ff 15 00 00 00
	00		 call	 DWORD PTR __imp___invalid_parameter
  0006c	83 c4 14	 add	 esp, 20			; 00000014H
  0006f	33 c0		 xor	 eax, eax
  00071	75 b6		 jne	 SHORT $LN9@max
$LN6@max:
  00073	33 c0		 xor	 eax, eax
  00075	75 a1		 jne	 SHORT $LN4@max

; 5391 : 		return (_Right);

  00077	8b 45 0c	 mov	 eax, DWORD PTR __Right$[ebp]
  0007a	eb 03		 jmp	 SHORT $LN1@max
$LN8@max:

; 5392 : 		}
; 5393 : 
; 5394 : 	return (_Left);

  0007c	8b 45 08	 mov	 eax, DWORD PTR __Left$[ebp]
$LN1@max:

; 5395 : 	}

  0007f	5f		 pop	 edi
  00080	5e		 pop	 esi
  00081	5b		 pop	 ebx
  00082	8b e5		 mov	 esp, ebp
  00084	5d		 pop	 ebp
  00085	c2 08 00	 ret	 8
??$max@M@std@@YGABMABM0@Z ENDP				; std::max<float>
_TEXT	ENDS
; Function compile flags: /Odtp /ZI
; File c:\users\nhv90\projects\eech\aphavoc\source\gunships\dynamics\comanche\cm_dyn.c
;	COMDAT ?update_comanche_advanced_dynamics@@YGXXZ
_TEXT	SEGMENT
tv157 = -120						; size = 8
tv158 = -112						; size = 8
tv296 = -104						; size = 8
tv215 = -104						; size = 8
tv177 = -104						; size = 8
tv141 = -104						; size = 8
tv92 = -104						; size = 8
tv372 = -100						; size = 4
tv471 = -96						; size = 4
tv297 = -96						; size = 8
tv216 = -96						; size = 8
tv178 = -96						; size = 8
tv142 = -96						; size = 8
tv93 = -96						; size = 8
tv365 = -92						; size = 4
_rotor_rpm_diff$1 = -24					; size = 4
_rotor_rpm_diff$2 = -20					; size = 4
_left_power_ratio$ = -16				; size = 4
_total_rpm$ = -12					; size = 4
_workload$ = -8						; size = 4
_rpm$ = -4						; size = 4
?update_comanche_advanced_dynamics@@YGXXZ PROC		; update_comanche_advanced_dynamics, COMDAT

; 599  : {

  00000	55		 push	 ebp
  00001	8b ec		 mov	 ebp, esp
  00003	83 ec 78	 sub	 esp, 120		; 00000078H
  00006	53		 push	 ebx
  00007	56		 push	 esi
  00008	57		 push	 edi

; 600  : 
; 601  : 	float
; 602  : 		rpm, workload=0.0, total_rpm, left_power_ratio;

  00009	0f 57 c0	 xorps	 xmm0, xmm0
  0000c	f3 0f 11 45 f8	 movss	 DWORD PTR _workload$[ebp], xmm0

; 603  : 
; 604  : 	update_power_dynamics ();

  00011	e8 00 00 00 00	 call	 ?update_power_dynamics@@YGXXZ ; update_power_dynamics

; 605  : 
; 606  : 	update_apu_rpm_dynamics();

  00016	e8 00 00 00 00	 call	 ?update_apu_rpm_dynamics@@YGXXZ ; update_apu_rpm_dynamics

; 607  : 	update_engine_rpm_dynamics(1);

  0001b	6a 01		 push	 1
  0001d	e8 00 00 00 00	 call	 ?update_engine_rpm_dynamics@@YGXH@Z ; update_engine_rpm_dynamics

; 608  : 	update_engine_rpm_dynamics(2);

  00022	6a 02		 push	 2
  00024	e8 00 00 00 00	 call	 ?update_engine_rpm_dynamics@@YGXH@Z ; update_engine_rpm_dynamics

; 609  : 
; 610  : 	update_engine_temperature_dynamics (1);

  00029	6a 01		 push	 1
  0002b	e8 00 00 00 00	 call	 ?update_engine_temperature_dynamics@@YGXH@Z ; update_engine_temperature_dynamics

; 611  : 	update_engine_temperature_dynamics (2);

  00030	6a 02		 push	 2
  00032	e8 00 00 00 00	 call	 ?update_engine_temperature_dynamics@@YGXH@Z ; update_engine_temperature_dynamics

; 612  : 
; 613  : 	update_main_rotor_dynamics ();

  00037	e8 00 00 00 00	 call	 ?update_main_rotor_dynamics@@YGXXZ ; update_main_rotor_dynamics

; 614  : 	update_tail_rotor_dynamics ();

  0003c	e8 00 00 00 00	 call	 ?update_tail_rotor_dynamics@@YGXXZ ; update_tail_rotor_dynamics

; 615  : 
; 616  : 	update_main_rotor_rpm_dynamics ();

  00041	e8 00 00 00 00	 call	 ?update_main_rotor_rpm_dynamics@@YGXXZ ; update_main_rotor_rpm_dynamics

; 617  : 	update_tail_rotor_rpm_dynamics ();

  00046	e8 00 00 00 00	 call	 ?update_tail_rotor_rpm_dynamics@@YGXXZ ; update_tail_rotor_rpm_dynamics

; 618  : 
; 619  : 	update_main_rotor_coning_angle ();

  0004b	e8 00 00 00 00	 call	 ?update_main_rotor_coning_angle@@YGXXZ ; update_main_rotor_coning_angle

; 620  : 
; 621  : 	update_main_rotor_thrust_dynamics ();

  00050	e8 00 00 00 00	 call	 ?update_main_rotor_thrust_dynamics@@YGXXZ ; update_main_rotor_thrust_dynamics

; 622  : 	update_tail_rotor_thrust_dynamics ();

  00055	e8 00 00 00 00	 call	 ?update_tail_rotor_thrust_dynamics@@YGXXZ ; update_tail_rotor_thrust_dynamics

; 623  : 
; 624  : 	update_power_dynamics ();

  0005a	e8 00 00 00 00	 call	 ?update_power_dynamics@@YGXXZ ; update_power_dynamics

; 625  : 
; 626  : 	update_air_density_dynamics ();

  0005f	e8 00 00 00 00	 call	 ?update_air_density_dynamics@@YGXXZ ; update_air_density_dynamics

; 627  : 
; 628  : 	update_acceleration_dynamics ();

  00064	e8 00 00 00 00	 call	 ?update_acceleration_dynamics@@YGXXZ ; update_acceleration_dynamics

; 629  : 
; 630  : 	update_attitude_dynamics ();

  00069	e8 00 00 00 00	 call	 ?update_attitude_dynamics@@YGXXZ ; update_attitude_dynamics

; 631  : 
; 632  : 	if (command_line_dynamics_flight_model >= 2)

  0006e	83 3d 00 00 00
	00 02		 cmp	 DWORD PTR ?command_line_dynamics_flight_model@@3HA, 2 ; command_line_dynamics_flight_model
  00075	7c 05		 jl	 SHORT $LN2@update_com

; 633  : 		update_undercarriage_dynamics();

  00077	e8 00 00 00 00	 call	 ?update_undercarriage_dynamics@@YGXXZ ; update_undercarriage_dynamics
$LN2@update_com:

; 634  : 
; 635  : 	resolve_dynamic_forces ();

  0007c	e8 00 00 00 00	 call	 ?resolve_dynamic_forces@@YGXXZ ; resolve_dynamic_forces

; 636  : 
; 637  : 	update_dynamics_external_values ();

  00081	e8 00 00 00 00	 call	 ?update_dynamics_external_values@@YGXXZ ; update_dynamics_external_values

; 638  : 
; 639  : 	// Leave the last iteration of forces to allow the draw function to work.
; 640  : 	if (get_current_dynamics_options (DYNAMICS_OPTIONS_DRAW_FLIGHT_PATH))

  00086	6a 02		 push	 2
  00088	e8 00 00 00 00	 call	 ?get_current_dynamics_options@@YGHW4DYNAMICS_OPTIONS_TYPES@@@Z ; get_current_dynamics_options
  0008d	85 c0		 test	 eax, eax
  0008f	74 15		 je	 SHORT $LN3@update_com

; 641  : 	{
; 642  : 
; 643  : 		if (current_flight_dynamics->model_iterations > 0)

  00091	a1 00 00 00 00	 mov	 eax, DWORD PTR ?current_flight_dynamics@@3PAUDYNAMICS_TYPE@@A ; current_flight_dynamics
  00096	83 b8 8c 00 00
	00 00		 cmp	 DWORD PTR [eax+140], 0
  0009d	7e 05		 jle	 SHORT $LN5@update_com

; 644  : 		{
; 645  : 
; 646  : 			update_dynamic_forces ();

  0009f	e8 00 00 00 00	 call	 ?update_dynamic_forces@@YGXXZ ; update_dynamic_forces
$LN5@update_com:

; 647  : 		}
; 648  : 	}
; 649  : 	else

  000a4	eb 05		 jmp	 SHORT $LN4@update_com
$LN3@update_com:

; 650  : 	{
; 651  : 
; 652  : 		update_dynamic_forces ();

  000a6	e8 00 00 00 00	 call	 ?update_dynamic_forces@@YGXXZ ; update_dynamic_forces
$LN4@update_com:

; 653  : 	}
; 654  : 
; 655  : 	//debug
; 656  : 
; 657  : 	//Werewolf engine torque management
; 658  : 	//Rotor RPM is reduced by workload, so we have to have twice as much workload on the engine to circumvent the whacky way EECH mixes RPM into the engine torque
; 659  : 	if (command_line_dynamics_advanced_engine_model == TRUE)

  000ab	83 3d 00 00 00
	00 01		 cmp	 DWORD PTR ?command_line_dynamics_advanced_engine_model@@3HA, 1 ; command_line_dynamics_advanced_engine_model
  000b2	0f 85 b4 00 00
	00		 jne	 $LN6@update_com

; 660  : 	{
; 661  : 	  workload = ((float) fabs (current_flight_dynamics->main_rotor_pitch_angle.value) + (float) fabs (current_flight_dynamics->main_rotor_roll_angle.value))

  000b8	a1 00 00 00 00	 mov	 eax, DWORD PTR ?current_flight_dynamics@@3PAUDYNAMICS_TYPE@@A ; current_flight_dynamics
  000bd	51		 push	 ecx
  000be	f3 0f 10 80 fc
	1d 00 00	 movss	 xmm0, DWORD PTR [eax+7676]
  000c6	f3 0f 11 04 24	 movss	 DWORD PTR [esp], xmm0
  000cb	e8 00 00 00 00	 call	 ?fabs@@YGMM@Z		; fabs
  000d0	d9 5d a4	 fstp	 DWORD PTR tv365[ebp]
  000d3	f3 0f 10 45 a4	 movss	 xmm0, DWORD PTR tv365[ebp]
  000d8	8b 0d 00 00 00
	00		 mov	 ecx, DWORD PTR ?current_flight_dynamics@@3PAUDYNAMICS_TYPE@@A ; current_flight_dynamics
  000de	51		 push	 ecx
  000df	f3 0f 10 89 e4
	1d 00 00	 movss	 xmm1, DWORD PTR [ecx+7652]
  000e7	f3 0f 11 0c 24	 movss	 DWORD PTR [esp], xmm1
  000ec	f3 0f 11 45 a0	 movss	 DWORD PTR tv471[ebp], xmm0
  000f1	e8 00 00 00 00	 call	 ?fabs@@YGMM@Z		; fabs
  000f6	d9 5d 9c	 fstp	 DWORD PTR tv372[ebp]
  000f9	f3 0f 10 45 a0	 movss	 xmm0, DWORD PTR tv471[ebp]
  000fe	f3 0f 58 45 9c	 addss	 xmm0, DWORD PTR tv372[ebp]
  00103	f3 0f 5a c0	 cvtss2sd xmm0, xmm0
  00107	f2 0f 59 05 00
	00 00 00	 mulsd	 xmm0, QWORD PTR __real@4059000000000000
  0010f	f2 0f 5a c0	 cvtsd2ss xmm0, xmm0
  00113	f3 0f 11 45 f8	 movss	 DWORD PTR _workload$[ebp], xmm0

; 662  : 		  * 100.0;
; 663  : 	  workload = bound (workload, 0.0, 100.0);

  00118	f3 0f 5a 45 f8	 cvtss2sd xmm0, DWORD PTR _workload$[ebp]
  0011d	0f 57 c9	 xorps	 xmm1, xmm1
  00120	66 0f 2f c8	 comisd	 xmm1, xmm0
  00124	76 0a		 jbe	 SHORT $LN22@update_com
  00126	0f 57 c0	 xorps	 xmm0, xmm0
  00129	f2 0f 11 45 a0	 movsd	 QWORD PTR tv93[ebp], xmm0
  0012e	eb 32		 jmp	 SHORT $LN23@update_com
$LN22@update_com:
  00130	f3 0f 5a 45 f8	 cvtss2sd xmm0, DWORD PTR _workload$[ebp]
  00135	66 0f 2f 05 00
	00 00 00	 comisd	 xmm0, QWORD PTR __real@4059000000000000
  0013d	76 0f		 jbe	 SHORT $LN20@update_com
  0013f	f2 0f 10 05 00
	00 00 00	 movsd	 xmm0, QWORD PTR __real@4059000000000000
  00147	f2 0f 11 45 98	 movsd	 QWORD PTR tv92[ebp], xmm0
  0014c	eb 0a		 jmp	 SHORT $LN21@update_com
$LN20@update_com:
  0014e	f3 0f 5a 45 f8	 cvtss2sd xmm0, DWORD PTR _workload$[ebp]
  00153	f2 0f 11 45 98	 movsd	 QWORD PTR tv92[ebp], xmm0
$LN21@update_com:
  00158	f2 0f 10 45 98	 movsd	 xmm0, QWORD PTR tv92[ebp]
  0015d	f2 0f 11 45 a0	 movsd	 QWORD PTR tv93[ebp], xmm0
$LN23@update_com:
  00162	f2 0f 5a 45 a0	 cvtsd2ss xmm0, QWORD PTR tv93[ebp]
  00167	f3 0f 11 45 f8	 movss	 DWORD PTR _workload$[ebp], xmm0
$LN6@update_com:

; 664  : 	}
; 665  : 
; 666  : 	// arneh - distribute torque among engines depending on the N1 RPM of each engine
; 667  : 	total_rpm = bound(current_flight_dynamics->left_engine_n1_rpm.value - 55.0, 0.0, 100.0) +

  0016c	a1 00 00 00 00	 mov	 eax, DWORD PTR ?current_flight_dynamics@@3PAUDYNAMICS_TYPE@@A ; current_flight_dynamics
  00171	f3 0f 5a 80 94
	1c 00 00	 cvtss2sd xmm0, DWORD PTR [eax+7316]
  00179	f2 0f 5c 05 00
	00 00 00	 subsd	 xmm0, QWORD PTR __real@404b800000000000
  00181	0f 57 c9	 xorps	 xmm1, xmm1
  00184	66 0f 2f c8	 comisd	 xmm1, xmm0
  00188	76 0a		 jbe	 SHORT $LN26@update_com
  0018a	0f 57 c0	 xorps	 xmm0, xmm0
  0018d	f2 0f 11 45 a0	 movsd	 QWORD PTR tv142[ebp], xmm0
  00192	eb 54		 jmp	 SHORT $LN27@update_com
$LN26@update_com:
  00194	8b 0d 00 00 00
	00		 mov	 ecx, DWORD PTR ?current_flight_dynamics@@3PAUDYNAMICS_TYPE@@A ; current_flight_dynamics
  0019a	f3 0f 5a 81 94
	1c 00 00	 cvtss2sd xmm0, DWORD PTR [ecx+7316]
  001a2	f2 0f 5c 05 00
	00 00 00	 subsd	 xmm0, QWORD PTR __real@404b800000000000
  001aa	66 0f 2f 05 00
	00 00 00	 comisd	 xmm0, QWORD PTR __real@4059000000000000
  001b2	76 0f		 jbe	 SHORT $LN24@update_com
  001b4	f2 0f 10 05 00
	00 00 00	 movsd	 xmm0, QWORD PTR __real@4059000000000000
  001bc	f2 0f 11 45 98	 movsd	 QWORD PTR tv141[ebp], xmm0
  001c1	eb 1b		 jmp	 SHORT $LN25@update_com
$LN24@update_com:
  001c3	8b 15 00 00 00
	00		 mov	 edx, DWORD PTR ?current_flight_dynamics@@3PAUDYNAMICS_TYPE@@A ; current_flight_dynamics
  001c9	f3 0f 5a 82 94
	1c 00 00	 cvtss2sd xmm0, DWORD PTR [edx+7316]
  001d1	f2 0f 5c 05 00
	00 00 00	 subsd	 xmm0, QWORD PTR __real@404b800000000000
  001d9	f2 0f 11 45 98	 movsd	 QWORD PTR tv141[ebp], xmm0
$LN25@update_com:
  001de	f2 0f 10 45 98	 movsd	 xmm0, QWORD PTR tv141[ebp]
  001e3	f2 0f 11 45 a0	 movsd	 QWORD PTR tv142[ebp], xmm0
$LN27@update_com:
  001e8	a1 00 00 00 00	 mov	 eax, DWORD PTR ?current_flight_dynamics@@3PAUDYNAMICS_TYPE@@A ; current_flight_dynamics
  001ed	f3 0f 5a 80 f4
	1c 00 00	 cvtss2sd xmm0, DWORD PTR [eax+7412]
  001f5	f2 0f 5c 05 00
	00 00 00	 subsd	 xmm0, QWORD PTR __real@404b800000000000
  001fd	0f 57 c9	 xorps	 xmm1, xmm1
  00200	66 0f 2f c8	 comisd	 xmm1, xmm0
  00204	76 0a		 jbe	 SHORT $LN30@update_com
  00206	0f 57 c0	 xorps	 xmm0, xmm0
  00209	f2 0f 11 45 90	 movsd	 QWORD PTR tv158[ebp], xmm0
  0020e	eb 54		 jmp	 SHORT $LN31@update_com
$LN30@update_com:
  00210	8b 0d 00 00 00
	00		 mov	 ecx, DWORD PTR ?current_flight_dynamics@@3PAUDYNAMICS_TYPE@@A ; current_flight_dynamics
  00216	f3 0f 5a 81 f4
	1c 00 00	 cvtss2sd xmm0, DWORD PTR [ecx+7412]
  0021e	f2 0f 5c 05 00
	00 00 00	 subsd	 xmm0, QWORD PTR __real@404b800000000000
  00226	66 0f 2f 05 00
	00 00 00	 comisd	 xmm0, QWORD PTR __real@4059000000000000
  0022e	76 0f		 jbe	 SHORT $LN28@update_com
  00230	f2 0f 10 05 00
	00 00 00	 movsd	 xmm0, QWORD PTR __real@4059000000000000
  00238	f2 0f 11 45 88	 movsd	 QWORD PTR tv157[ebp], xmm0
  0023d	eb 1b		 jmp	 SHORT $LN29@update_com
$LN28@update_com:
  0023f	8b 15 00 00 00
	00		 mov	 edx, DWORD PTR ?current_flight_dynamics@@3PAUDYNAMICS_TYPE@@A ; current_flight_dynamics
  00245	f3 0f 5a 82 f4
	1c 00 00	 cvtss2sd xmm0, DWORD PTR [edx+7412]
  0024d	f2 0f 5c 05 00
	00 00 00	 subsd	 xmm0, QWORD PTR __real@404b800000000000
  00255	f2 0f 11 45 88	 movsd	 QWORD PTR tv157[ebp], xmm0
$LN29@update_com:
  0025a	f2 0f 10 45 88	 movsd	 xmm0, QWORD PTR tv157[ebp]
  0025f	f2 0f 11 45 90	 movsd	 QWORD PTR tv158[ebp], xmm0
$LN31@update_com:
  00264	f2 0f 10 45 a0	 movsd	 xmm0, QWORD PTR tv142[ebp]
  00269	f2 0f 58 45 90	 addsd	 xmm0, QWORD PTR tv158[ebp]
  0026e	f2 0f 5a c0	 cvtsd2ss xmm0, xmm0
  00272	f3 0f 11 45 f4	 movss	 DWORD PTR _total_rpm$[ebp], xmm0

; 668  : 		bound(current_flight_dynamics->right_engine_n1_rpm.value - 55.0, 0.0, 100.0);
; 669  : 	if (total_rpm > 0.0)

  00277	f3 0f 5a 45 f4	 cvtss2sd xmm0, DWORD PTR _total_rpm$[ebp]
  0027c	66 0f 2f 05 00
	00 00 00	 comisd	 xmm0, QWORD PTR __real@0000000000000000
  00284	0f 86 95 00 00
	00		 jbe	 $LN7@update_com

; 670  : 		left_power_ratio = bound(current_flight_dynamics->left_engine_n1_rpm.value -55.0, 0.0, 100.0) / total_rpm;

  0028a	a1 00 00 00 00	 mov	 eax, DWORD PTR ?current_flight_dynamics@@3PAUDYNAMICS_TYPE@@A ; current_flight_dynamics
  0028f	f3 0f 5a 80 94
	1c 00 00	 cvtss2sd xmm0, DWORD PTR [eax+7316]
  00297	f2 0f 5c 05 00
	00 00 00	 subsd	 xmm0, QWORD PTR __real@404b800000000000
  0029f	0f 57 c9	 xorps	 xmm1, xmm1
  002a2	66 0f 2f c8	 comisd	 xmm1, xmm0
  002a6	76 0a		 jbe	 SHORT $LN34@update_com
  002a8	0f 57 c0	 xorps	 xmm0, xmm0
  002ab	f2 0f 11 45 a0	 movsd	 QWORD PTR tv178[ebp], xmm0
  002b0	eb 54		 jmp	 SHORT $LN35@update_com
$LN34@update_com:
  002b2	8b 0d 00 00 00
	00		 mov	 ecx, DWORD PTR ?current_flight_dynamics@@3PAUDYNAMICS_TYPE@@A ; current_flight_dynamics
  002b8	f3 0f 5a 81 94
	1c 00 00	 cvtss2sd xmm0, DWORD PTR [ecx+7316]
  002c0	f2 0f 5c 05 00
	00 00 00	 subsd	 xmm0, QWORD PTR __real@404b800000000000
  002c8	66 0f 2f 05 00
	00 00 00	 comisd	 xmm0, QWORD PTR __real@4059000000000000
  002d0	76 0f		 jbe	 SHORT $LN32@update_com
  002d2	f2 0f 10 05 00
	00 00 00	 movsd	 xmm0, QWORD PTR __real@4059000000000000
  002da	f2 0f 11 45 98	 movsd	 QWORD PTR tv177[ebp], xmm0
  002df	eb 1b		 jmp	 SHORT $LN33@update_com
$LN32@update_com:
  002e1	8b 15 00 00 00
	00		 mov	 edx, DWORD PTR ?current_flight_dynamics@@3PAUDYNAMICS_TYPE@@A ; current_flight_dynamics
  002e7	f3 0f 5a 82 94
	1c 00 00	 cvtss2sd xmm0, DWORD PTR [edx+7316]
  002ef	f2 0f 5c 05 00
	00 00 00	 subsd	 xmm0, QWORD PTR __real@404b800000000000
  002f7	f2 0f 11 45 98	 movsd	 QWORD PTR tv177[ebp], xmm0
$LN33@update_com:
  002fc	f2 0f 10 45 98	 movsd	 xmm0, QWORD PTR tv177[ebp]
  00301	f2 0f 11 45 a0	 movsd	 QWORD PTR tv178[ebp], xmm0
$LN35@update_com:
  00306	f3 0f 5a 45 f4	 cvtss2sd xmm0, DWORD PTR _total_rpm$[ebp]
  0030b	f2 0f 10 4d a0	 movsd	 xmm1, QWORD PTR tv178[ebp]
  00310	f2 0f 5e c8	 divsd	 xmm1, xmm0
  00314	f2 0f 5a c1	 cvtsd2ss xmm0, xmm1
  00318	f3 0f 11 45 f0	 movss	 DWORD PTR _left_power_ratio$[ebp], xmm0

; 671  : 	else

  0031d	eb 0d		 jmp	 SHORT $LN8@update_com
$LN7@update_com:

; 672  : 		left_power_ratio = 0.5;

  0031f	f3 0f 10 05 00
	00 00 00	 movss	 xmm0, DWORD PTR __real@3f000000
  00327	f3 0f 11 45 f0	 movss	 DWORD PTR _left_power_ratio$[ebp], xmm0
$LN8@update_com:

; 673  : 
; 674  : 	if (!current_flight_dynamics->left_engine_torque.damaged)

  0032c	a1 00 00 00 00	 mov	 eax, DWORD PTR ?current_flight_dynamics@@3PAUDYNAMICS_TYPE@@A ; current_flight_dynamics
  00331	0f b7 88 bc 1c
	00 00		 movzx	 ecx, WORD PTR [eax+7356]
  00338	85 c9		 test	 ecx, ecx
  0033a	0f 85 c8 01 00
	00		 jne	 $LN9@update_com

; 675  : 	{
; 676  : 		rpm = 0.0;

  00340	0f 57 c0	 xorps	 xmm0, xmm0
  00343	f3 0f 11 45 fc	 movss	 DWORD PTR _rpm$[ebp], xmm0

; 677  : 
; 678  : 		if (current_flight_dynamics->main_rotor_rpm.max != 0.0)

  00348	a1 00 00 00 00	 mov	 eax, DWORD PTR ?current_flight_dynamics@@3PAUDYNAMICS_TYPE@@A ; current_flight_dynamics
  0034d	f3 0f 5a 80 20
	1e 00 00	 cvtss2sd xmm0, DWORD PTR [eax+7712]
  00355	66 0f 2e 05 00
	00 00 00	 ucomisd xmm0, QWORD PTR __real@0000000000000000
  0035d	9f		 lahf
  0035e	f6 c4 44	 test	 ah, 68			; 00000044H
  00361	0f 8b f3 00 00
	00		 jnp	 $LN12@update_com

; 679  : 		{
; 680  : 			float rotor_rpm_diff = current_flight_dynamics->main_rotor_rpm.value - current_flight_dynamics->left_engine_rpm.value;

  00367	a1 00 00 00 00	 mov	 eax, DWORD PTR ?current_flight_dynamics@@3PAUDYNAMICS_TYPE@@A ; current_flight_dynamics
  0036c	8b 0d 00 00 00
	00		 mov	 ecx, DWORD PTR ?current_flight_dynamics@@3PAUDYNAMICS_TYPE@@A ; current_flight_dynamics
  00372	f3 0f 10 80 14
	1e 00 00	 movss	 xmm0, DWORD PTR [eax+7700]
  0037a	f3 0f 5c 81 7c
	1c 00 00	 subss	 xmm0, DWORD PTR [ecx+7292]
  00382	f3 0f 11 45 ec	 movss	 DWORD PTR _rotor_rpm_diff$2[ebp], xmm0

; 681  : 
; 682  : 			rpm = current_flight_dynamics->main_rotor_rpm.value / current_flight_dynamics->main_rotor_rpm.max;

  00387	a1 00 00 00 00	 mov	 eax, DWORD PTR ?current_flight_dynamics@@3PAUDYNAMICS_TYPE@@A ; current_flight_dynamics
  0038c	8b 0d 00 00 00
	00		 mov	 ecx, DWORD PTR ?current_flight_dynamics@@3PAUDYNAMICS_TYPE@@A ; current_flight_dynamics
  00392	f3 0f 10 80 14
	1e 00 00	 movss	 xmm0, DWORD PTR [eax+7700]
  0039a	f3 0f 5e 81 20
	1e 00 00	 divss	 xmm0, DWORD PTR [ecx+7712]
  003a2	f3 0f 11 45 fc	 movss	 DWORD PTR _rpm$[ebp], xmm0

; 683  : 			rpm *= 0.5 + left_power_ratio;

  003a7	f3 0f 5a 45 f0	 cvtss2sd xmm0, DWORD PTR _left_power_ratio$[ebp]
  003ac	f2 0f 58 05 00
	00 00 00	 addsd	 xmm0, QWORD PTR __real@3fe0000000000000
  003b4	f3 0f 5a 4d fc	 cvtss2sd xmm1, DWORD PTR _rpm$[ebp]
  003b9	f2 0f 59 c8	 mulsd	 xmm1, xmm0
  003bd	f2 0f 5a c1	 cvtsd2ss xmm0, xmm1
  003c1	f3 0f 11 45 fc	 movss	 DWORD PTR _rpm$[ebp], xmm0

; 684  : 			if (rotor_rpm_diff > 0.0)

  003c6	f3 0f 5a 45 ec	 cvtss2sd xmm0, DWORD PTR _rotor_rpm_diff$2[ebp]
  003cb	66 0f 2f 05 00
	00 00 00	 comisd	 xmm0, QWORD PTR __real@0000000000000000
  003d3	0f 86 81 00 00
	00		 jbe	 $LN12@update_com

; 685  : 				rpm *= 1.0 - bound(rotor_rpm_diff * 0.75, 0.0, 1.0);

  003d9	f3 0f 5a 45 ec	 cvtss2sd xmm0, DWORD PTR _rotor_rpm_diff$2[ebp]
  003de	f2 0f 59 05 00
	00 00 00	 mulsd	 xmm0, QWORD PTR __real@3fe8000000000000
  003e6	0f 57 c9	 xorps	 xmm1, xmm1
  003e9	66 0f 2f c8	 comisd	 xmm1, xmm0
  003ed	76 0a		 jbe	 SHORT $LN38@update_com
  003ef	0f 57 c0	 xorps	 xmm0, xmm0
  003f2	f2 0f 11 45 a0	 movsd	 QWORD PTR tv216[ebp], xmm0
  003f7	eb 42		 jmp	 SHORT $LN39@update_com
$LN38@update_com:
  003f9	f3 0f 5a 45 ec	 cvtss2sd xmm0, DWORD PTR _rotor_rpm_diff$2[ebp]
  003fe	f2 0f 59 05 00
	00 00 00	 mulsd	 xmm0, QWORD PTR __real@3fe8000000000000
  00406	66 0f 2f 05 00
	00 00 00	 comisd	 xmm0, QWORD PTR __real@3ff0000000000000
  0040e	76 0f		 jbe	 SHORT $LN36@update_com
  00410	f2 0f 10 05 00
	00 00 00	 movsd	 xmm0, QWORD PTR __real@3ff0000000000000
  00418	f2 0f 11 45 98	 movsd	 QWORD PTR tv215[ebp], xmm0
  0041d	eb 12		 jmp	 SHORT $LN37@update_com
$LN36@update_com:
  0041f	f3 0f 5a 45 ec	 cvtss2sd xmm0, DWORD PTR _rotor_rpm_diff$2[ebp]
  00424	f2 0f 59 05 00
	00 00 00	 mulsd	 xmm0, QWORD PTR __real@3fe8000000000000
  0042c	f2 0f 11 45 98	 movsd	 QWORD PTR tv215[ebp], xmm0
$LN37@update_com:
  00431	f2 0f 10 45 98	 movsd	 xmm0, QWORD PTR tv215[ebp]
  00436	f2 0f 11 45 a0	 movsd	 QWORD PTR tv216[ebp], xmm0
$LN39@update_com:
  0043b	f2 0f 10 05 00
	00 00 00	 movsd	 xmm0, QWORD PTR __real@3ff0000000000000
  00443	f2 0f 5c 45 a0	 subsd	 xmm0, QWORD PTR tv216[ebp]
  00448	f3 0f 5a 4d fc	 cvtss2sd xmm1, DWORD PTR _rpm$[ebp]
  0044d	f2 0f 59 c8	 mulsd	 xmm1, xmm0
  00451	f2 0f 5a c1	 cvtsd2ss xmm0, xmm1
  00455	f3 0f 11 45 fc	 movss	 DWORD PTR _rpm$[ebp], xmm0
$LN12@update_com:

; 686  : 		}
; 687  : 
; 688  : //Werewolf: engine torque should INCREASE when the aircraft works harder
; 689  : //Rotor RPM drops under workload, so we use twice as much workload here to make the torque sum increase under workload
; 690  : 		current_flight_dynamics->left_engine_torque.value += ((current_flight_dynamics->input_data.collective.value * rpm) - current_flight_dynamics->left_engine_torque.value) * (4.0 * get_model_delta_time ());

  0045a	a1 00 00 00 00	 mov	 eax, DWORD PTR ?current_flight_dynamics@@3PAUDYNAMICS_TYPE@@A ; current_flight_dynamics
  0045f	f3 0f 10 80 a8
	1b 00 00	 movss	 xmm0, DWORD PTR [eax+7080]
  00467	f3 0f 59 45 fc	 mulss	 xmm0, DWORD PTR _rpm$[ebp]
  0046c	8b 0d 00 00 00
	00		 mov	 ecx, DWORD PTR ?current_flight_dynamics@@3PAUDYNAMICS_TYPE@@A ; current_flight_dynamics
  00472	f3 0f 5c 81 ac
	1c 00 00	 subss	 xmm0, DWORD PTR [ecx+7340]
  0047a	f3 0f 5a c0	 cvtss2sd xmm0, xmm0
  0047e	8b 15 00 00 00
	00		 mov	 edx, DWORD PTR ?current_flight_dynamics@@3PAUDYNAMICS_TYPE@@A ; current_flight_dynamics
  00484	f3 0f 5a 8a 90
	00 00 00	 cvtss2sd xmm1, DWORD PTR [edx+144]
  0048c	f2 0f 59 0d 00
	00 00 00	 mulsd	 xmm1, QWORD PTR __real@4010000000000000
  00494	f2 0f 59 c1	 mulsd	 xmm0, xmm1
  00498	a1 00 00 00 00	 mov	 eax, DWORD PTR ?current_flight_dynamics@@3PAUDYNAMICS_TYPE@@A ; current_flight_dynamics
  0049d	f3 0f 5a 88 ac
	1c 00 00	 cvtss2sd xmm1, DWORD PTR [eax+7340]
  004a5	f2 0f 58 c8	 addsd	 xmm1, xmm0
  004a9	f2 0f 5a c1	 cvtsd2ss xmm0, xmm1
  004ad	8b 0d 00 00 00
	00		 mov	 ecx, DWORD PTR ?current_flight_dynamics@@3PAUDYNAMICS_TYPE@@A ; current_flight_dynamics
  004b3	f3 0f 11 81 ac
	1c 00 00	 movss	 DWORD PTR [ecx+7340], xmm0

; 691  : 		if (command_line_dynamics_advanced_engine_model == TRUE)

  004bb	83 3d 00 00 00
	00 01		 cmp	 DWORD PTR ?command_line_dynamics_advanced_engine_model@@3HA, 1 ; command_line_dynamics_advanced_engine_model
  004c2	75 42		 jne	 SHORT $LN13@update_com

; 692  : 		  current_flight_dynamics->left_engine_torque.value += (workload) * (4.0 * get_model_delta_time ());

  004c4	f3 0f 5a 45 f8	 cvtss2sd xmm0, DWORD PTR _workload$[ebp]
  004c9	a1 00 00 00 00	 mov	 eax, DWORD PTR ?current_flight_dynamics@@3PAUDYNAMICS_TYPE@@A ; current_flight_dynamics
  004ce	f3 0f 5a 88 90
	00 00 00	 cvtss2sd xmm1, DWORD PTR [eax+144]
  004d6	f2 0f 59 0d 00
	00 00 00	 mulsd	 xmm1, QWORD PTR __real@4010000000000000
  004de	f2 0f 59 c1	 mulsd	 xmm0, xmm1
  004e2	8b 0d 00 00 00
	00		 mov	 ecx, DWORD PTR ?current_flight_dynamics@@3PAUDYNAMICS_TYPE@@A ; current_flight_dynamics
  004e8	f3 0f 5a 89 ac
	1c 00 00	 cvtss2sd xmm1, DWORD PTR [ecx+7340]
  004f0	f2 0f 58 c8	 addsd	 xmm1, xmm0
  004f4	f2 0f 5a c1	 cvtsd2ss xmm0, xmm1
  004f8	8b 15 00 00 00
	00		 mov	 edx, DWORD PTR ?current_flight_dynamics@@3PAUDYNAMICS_TYPE@@A ; current_flight_dynamics
  004fe	f3 0f 11 82 ac
	1c 00 00	 movss	 DWORD PTR [edx+7340], xmm0
$LN13@update_com:

; 693  : 	}
; 694  : 	else

  00506	eb 3a		 jmp	 SHORT $LN10@update_com
$LN9@update_com:

; 695  : 	{
; 696  : 
; 697  : 		current_flight_dynamics->left_engine_torque.value -= current_flight_dynamics->left_engine_torque.value * get_model_delta_time ();

  00508	a1 00 00 00 00	 mov	 eax, DWORD PTR ?current_flight_dynamics@@3PAUDYNAMICS_TYPE@@A ; current_flight_dynamics
  0050d	8b 0d 00 00 00
	00		 mov	 ecx, DWORD PTR ?current_flight_dynamics@@3PAUDYNAMICS_TYPE@@A ; current_flight_dynamics
  00513	f3 0f 10 80 ac
	1c 00 00	 movss	 xmm0, DWORD PTR [eax+7340]
  0051b	f3 0f 59 81 90
	00 00 00	 mulss	 xmm0, DWORD PTR [ecx+144]
  00523	8b 15 00 00 00
	00		 mov	 edx, DWORD PTR ?current_flight_dynamics@@3PAUDYNAMICS_TYPE@@A ; current_flight_dynamics
  00529	f3 0f 10 8a ac
	1c 00 00	 movss	 xmm1, DWORD PTR [edx+7340]
  00531	f3 0f 5c c8	 subss	 xmm1, xmm0
  00535	a1 00 00 00 00	 mov	 eax, DWORD PTR ?current_flight_dynamics@@3PAUDYNAMICS_TYPE@@A ; current_flight_dynamics
  0053a	f3 0f 11 88 ac
	1c 00 00	 movss	 DWORD PTR [eax+7340], xmm1
$LN10@update_com:

; 698  : 	}
; 699  : 
; 700  : 	if (!current_flight_dynamics->right_engine_torque.damaged)

  00542	a1 00 00 00 00	 mov	 eax, DWORD PTR ?current_flight_dynamics@@3PAUDYNAMICS_TYPE@@A ; current_flight_dynamics
  00547	0f b7 88 1c 1d
	00 00		 movzx	 ecx, WORD PTR [eax+7452]
  0054e	85 c9		 test	 ecx, ecx
  00550	0f 85 d4 01 00
	00		 jne	 $LN14@update_com

; 701  : 	{
; 702  : 		rpm = 0.0;

  00556	0f 57 c0	 xorps	 xmm0, xmm0
  00559	f3 0f 11 45 fc	 movss	 DWORD PTR _rpm$[ebp], xmm0

; 703  : 
; 704  : 		if (current_flight_dynamics->main_rotor_rpm.max != 0.0)

  0055e	a1 00 00 00 00	 mov	 eax, DWORD PTR ?current_flight_dynamics@@3PAUDYNAMICS_TYPE@@A ; current_flight_dynamics
  00563	f3 0f 5a 80 20
	1e 00 00	 cvtss2sd xmm0, DWORD PTR [eax+7712]
  0056b	66 0f 2e 05 00
	00 00 00	 ucomisd xmm0, QWORD PTR __real@0000000000000000
  00573	9f		 lahf
  00574	f6 c4 44	 test	 ah, 68			; 00000044H
  00577	0f 8b ff 00 00
	00		 jnp	 $LN17@update_com

; 705  : 		{
; 706  : 			float rotor_rpm_diff = current_flight_dynamics->main_rotor_rpm.value - current_flight_dynamics->right_engine_rpm.value;

  0057d	a1 00 00 00 00	 mov	 eax, DWORD PTR ?current_flight_dynamics@@3PAUDYNAMICS_TYPE@@A ; current_flight_dynamics
  00582	8b 0d 00 00 00
	00		 mov	 ecx, DWORD PTR ?current_flight_dynamics@@3PAUDYNAMICS_TYPE@@A ; current_flight_dynamics
  00588	f3 0f 10 80 14
	1e 00 00	 movss	 xmm0, DWORD PTR [eax+7700]
  00590	f3 0f 5c 81 dc
	1c 00 00	 subss	 xmm0, DWORD PTR [ecx+7388]
  00598	f3 0f 11 45 e8	 movss	 DWORD PTR _rotor_rpm_diff$1[ebp], xmm0

; 707  : 
; 708  : 			rpm = current_flight_dynamics->main_rotor_rpm.value / current_flight_dynamics->main_rotor_rpm.max;

  0059d	a1 00 00 00 00	 mov	 eax, DWORD PTR ?current_flight_dynamics@@3PAUDYNAMICS_TYPE@@A ; current_flight_dynamics
  005a2	8b 0d 00 00 00
	00		 mov	 ecx, DWORD PTR ?current_flight_dynamics@@3PAUDYNAMICS_TYPE@@A ; current_flight_dynamics
  005a8	f3 0f 10 80 14
	1e 00 00	 movss	 xmm0, DWORD PTR [eax+7700]
  005b0	f3 0f 5e 81 20
	1e 00 00	 divss	 xmm0, DWORD PTR [ecx+7712]
  005b8	f3 0f 11 45 fc	 movss	 DWORD PTR _rpm$[ebp], xmm0

; 709  : 			rpm *= 0.5 + (1.0 - left_power_ratio);

  005bd	f3 0f 5a 45 f0	 cvtss2sd xmm0, DWORD PTR _left_power_ratio$[ebp]
  005c2	f2 0f 10 0d 00
	00 00 00	 movsd	 xmm1, QWORD PTR __real@3ff0000000000000
  005ca	f2 0f 5c c8	 subsd	 xmm1, xmm0
  005ce	f2 0f 58 0d 00
	00 00 00	 addsd	 xmm1, QWORD PTR __real@3fe0000000000000
  005d6	f3 0f 5a 45 fc	 cvtss2sd xmm0, DWORD PTR _rpm$[ebp]
  005db	f2 0f 59 c1	 mulsd	 xmm0, xmm1
  005df	f2 0f 5a c0	 cvtsd2ss xmm0, xmm0
  005e3	f3 0f 11 45 fc	 movss	 DWORD PTR _rpm$[ebp], xmm0

; 710  : 			if (rotor_rpm_diff > 0.0)

  005e8	f3 0f 5a 45 e8	 cvtss2sd xmm0, DWORD PTR _rotor_rpm_diff$1[ebp]
  005ed	66 0f 2f 05 00
	00 00 00	 comisd	 xmm0, QWORD PTR __real@0000000000000000
  005f5	0f 86 81 00 00
	00		 jbe	 $LN17@update_com

; 711  : 				rpm *= 1.0 - bound(rotor_rpm_diff * 0.75, 0.0, 1.0);

  005fb	f3 0f 5a 45 e8	 cvtss2sd xmm0, DWORD PTR _rotor_rpm_diff$1[ebp]
  00600	f2 0f 59 05 00
	00 00 00	 mulsd	 xmm0, QWORD PTR __real@3fe8000000000000
  00608	0f 57 c9	 xorps	 xmm1, xmm1
  0060b	66 0f 2f c8	 comisd	 xmm1, xmm0
  0060f	76 0a		 jbe	 SHORT $LN42@update_com
  00611	0f 57 c0	 xorps	 xmm0, xmm0
  00614	f2 0f 11 45 a0	 movsd	 QWORD PTR tv297[ebp], xmm0
  00619	eb 42		 jmp	 SHORT $LN43@update_com
$LN42@update_com:
  0061b	f3 0f 5a 45 e8	 cvtss2sd xmm0, DWORD PTR _rotor_rpm_diff$1[ebp]
  00620	f2 0f 59 05 00
	00 00 00	 mulsd	 xmm0, QWORD PTR __real@3fe8000000000000
  00628	66 0f 2f 05 00
	00 00 00	 comisd	 xmm0, QWORD PTR __real@3ff0000000000000
  00630	76 0f		 jbe	 SHORT $LN40@update_com
  00632	f2 0f 10 05 00
	00 00 00	 movsd	 xmm0, QWORD PTR __real@3ff0000000000000
  0063a	f2 0f 11 45 98	 movsd	 QWORD PTR tv296[ebp], xmm0
  0063f	eb 12		 jmp	 SHORT $LN41@update_com
$LN40@update_com:
  00641	f3 0f 5a 45 e8	 cvtss2sd xmm0, DWORD PTR _rotor_rpm_diff$1[ebp]
  00646	f2 0f 59 05 00
	00 00 00	 mulsd	 xmm0, QWORD PTR __real@3fe8000000000000
  0064e	f2 0f 11 45 98	 movsd	 QWORD PTR tv296[ebp], xmm0
$LN41@update_com:
  00653	f2 0f 10 45 98	 movsd	 xmm0, QWORD PTR tv296[ebp]
  00658	f2 0f 11 45 a0	 movsd	 QWORD PTR tv297[ebp], xmm0
$LN43@update_com:
  0065d	f2 0f 10 05 00
	00 00 00	 movsd	 xmm0, QWORD PTR __real@3ff0000000000000
  00665	f2 0f 5c 45 a0	 subsd	 xmm0, QWORD PTR tv297[ebp]
  0066a	f3 0f 5a 4d fc	 cvtss2sd xmm1, DWORD PTR _rpm$[ebp]
  0066f	f2 0f 59 c8	 mulsd	 xmm1, xmm0
  00673	f2 0f 5a c1	 cvtsd2ss xmm0, xmm1
  00677	f3 0f 11 45 fc	 movss	 DWORD PTR _rpm$[ebp], xmm0
$LN17@update_com:

; 712  : 		}
; 713  : 
; 714  : //Werewolf
; 715  : 		current_flight_dynamics->right_engine_torque.value += ((current_flight_dynamics->input_data.collective.value * rpm) - current_flight_dynamics->right_engine_torque.value) * (4.0 * get_model_delta_time ());

  0067c	a1 00 00 00 00	 mov	 eax, DWORD PTR ?current_flight_dynamics@@3PAUDYNAMICS_TYPE@@A ; current_flight_dynamics
  00681	f3 0f 10 80 a8
	1b 00 00	 movss	 xmm0, DWORD PTR [eax+7080]
  00689	f3 0f 59 45 fc	 mulss	 xmm0, DWORD PTR _rpm$[ebp]
  0068e	8b 0d 00 00 00
	00		 mov	 ecx, DWORD PTR ?current_flight_dynamics@@3PAUDYNAMICS_TYPE@@A ; current_flight_dynamics
  00694	f3 0f 5c 81 0c
	1d 00 00	 subss	 xmm0, DWORD PTR [ecx+7436]
  0069c	f3 0f 5a c0	 cvtss2sd xmm0, xmm0
  006a0	8b 15 00 00 00
	00		 mov	 edx, DWORD PTR ?current_flight_dynamics@@3PAUDYNAMICS_TYPE@@A ; current_flight_dynamics
  006a6	f3 0f 5a 8a 90
	00 00 00	 cvtss2sd xmm1, DWORD PTR [edx+144]
  006ae	f2 0f 59 0d 00
	00 00 00	 mulsd	 xmm1, QWORD PTR __real@4010000000000000
  006b6	f2 0f 59 c1	 mulsd	 xmm0, xmm1
  006ba	a1 00 00 00 00	 mov	 eax, DWORD PTR ?current_flight_dynamics@@3PAUDYNAMICS_TYPE@@A ; current_flight_dynamics
  006bf	f3 0f 5a 88 0c
	1d 00 00	 cvtss2sd xmm1, DWORD PTR [eax+7436]
  006c7	f2 0f 58 c8	 addsd	 xmm1, xmm0
  006cb	f2 0f 5a c1	 cvtsd2ss xmm0, xmm1
  006cf	8b 0d 00 00 00
	00		 mov	 ecx, DWORD PTR ?current_flight_dynamics@@3PAUDYNAMICS_TYPE@@A ; current_flight_dynamics
  006d5	f3 0f 11 81 0c
	1d 00 00	 movss	 DWORD PTR [ecx+7436], xmm0

; 716  : 		if (command_line_dynamics_advanced_engine_model == TRUE)

  006dd	83 3d 00 00 00
	00 01		 cmp	 DWORD PTR ?command_line_dynamics_advanced_engine_model@@3HA, 1 ; command_line_dynamics_advanced_engine_model
  006e4	75 42		 jne	 SHORT $LN18@update_com

; 717  : 			current_flight_dynamics->right_engine_torque.value += (workload) * (4.0 * get_model_delta_time ());

  006e6	f3 0f 5a 45 f8	 cvtss2sd xmm0, DWORD PTR _workload$[ebp]
  006eb	a1 00 00 00 00	 mov	 eax, DWORD PTR ?current_flight_dynamics@@3PAUDYNAMICS_TYPE@@A ; current_flight_dynamics
  006f0	f3 0f 5a 88 90
	00 00 00	 cvtss2sd xmm1, DWORD PTR [eax+144]
  006f8	f2 0f 59 0d 00
	00 00 00	 mulsd	 xmm1, QWORD PTR __real@4010000000000000
  00700	f2 0f 59 c1	 mulsd	 xmm0, xmm1
  00704	8b 0d 00 00 00
	00		 mov	 ecx, DWORD PTR ?current_flight_dynamics@@3PAUDYNAMICS_TYPE@@A ; current_flight_dynamics
  0070a	f3 0f 5a 89 0c
	1d 00 00	 cvtss2sd xmm1, DWORD PTR [ecx+7436]
  00712	f2 0f 58 c8	 addsd	 xmm1, xmm0
  00716	f2 0f 5a c1	 cvtsd2ss xmm0, xmm1
  0071a	8b 15 00 00 00
	00		 mov	 edx, DWORD PTR ?current_flight_dynamics@@3PAUDYNAMICS_TYPE@@A ; current_flight_dynamics
  00720	f3 0f 11 82 0c
	1d 00 00	 movss	 DWORD PTR [edx+7436], xmm0
$LN18@update_com:

; 718  : 	}
; 719  : 	else

  00728	eb 3a		 jmp	 SHORT $LN15@update_com
$LN14@update_com:

; 720  : 	{
; 721  : 
; 722  : 		current_flight_dynamics->right_engine_torque.value -= current_flight_dynamics->right_engine_torque.value * get_model_delta_time ();

  0072a	a1 00 00 00 00	 mov	 eax, DWORD PTR ?current_flight_dynamics@@3PAUDYNAMICS_TYPE@@A ; current_flight_dynamics
  0072f	8b 0d 00 00 00
	00		 mov	 ecx, DWORD PTR ?current_flight_dynamics@@3PAUDYNAMICS_TYPE@@A ; current_flight_dynamics
  00735	f3 0f 10 80 0c
	1d 00 00	 movss	 xmm0, DWORD PTR [eax+7436]
  0073d	f3 0f 59 81 90
	00 00 00	 mulss	 xmm0, DWORD PTR [ecx+144]
  00745	8b 15 00 00 00
	00		 mov	 edx, DWORD PTR ?current_flight_dynamics@@3PAUDYNAMICS_TYPE@@A ; current_flight_dynamics
  0074b	f3 0f 10 8a 0c
	1d 00 00	 movss	 xmm1, DWORD PTR [edx+7436]
  00753	f3 0f 5c c8	 subss	 xmm1, xmm0
  00757	a1 00 00 00 00	 mov	 eax, DWORD PTR ?current_flight_dynamics@@3PAUDYNAMICS_TYPE@@A ; current_flight_dynamics
  0075c	f3 0f 11 88 0c
	1d 00 00	 movss	 DWORD PTR [eax+7436], xmm1
$LN15@update_com:

; 723  : 	}
; 724  : }

  00764	5f		 pop	 edi
  00765	5e		 pop	 esi
  00766	5b		 pop	 ebx
  00767	8b e5		 mov	 esp, ebp
  00769	5d		 pop	 ebp
  0076a	c3		 ret	 0
?update_comanche_advanced_dynamics@@YGXXZ ENDP		; update_comanche_advanced_dynamics
_TEXT	ENDS
; Function compile flags: /Odtp /ZI
; File c:\users\nhv90\projects\eech\aphavoc\source\gunships\dynamics\comanche\cm_dyn.c
;	COMDAT ?initialise_comanche_advanced_dynamics@@YGXPAUENTITY@@@Z
_TEXT	SEGMENT
_en$ = 8						; size = 4
?initialise_comanche_advanced_dynamics@@YGXPAUENTITY@@@Z PROC ; initialise_comanche_advanced_dynamics, COMDAT

; 127  : {

  00000	55		 push	 ebp
  00001	8b ec		 mov	 ebp, esp
  00003	83 ec 40	 sub	 esp, 64			; 00000040H
  00006	53		 push	 ebx
  00007	56		 push	 esi
  00008	57		 push	 edi

; 128  : 	current_flight_dynamics = &advanced_flight_dynamics;

  00009	c7 05 00 00 00
	00 00 00 00 00	 mov	 DWORD PTR ?current_flight_dynamics@@3PAUDYNAMICS_TYPE@@A, OFFSET ?advanced_flight_dynamics@@3UDYNAMICS_TYPE@@A ; current_flight_dynamics

; 129  : 
; 130  : 	memset (current_flight_dynamics, 0, sizeof (dynamics_type));

  00013	68 40 25 00 00	 push	 9536			; 00002540H
  00018	6a 00		 push	 0
  0001a	a1 00 00 00 00	 mov	 eax, DWORD PTR ?current_flight_dynamics@@3PAUDYNAMICS_TYPE@@A ; current_flight_dynamics
  0001f	50		 push	 eax
  00020	e8 00 00 00 00	 call	 _memset
  00025	83 c4 0c	 add	 esp, 12			; 0000000cH

; 131  : 
; 132  : 	set_dynamics_defaults (en);

  00028	8b 45 08	 mov	 eax, DWORD PTR _en$[ebp]
  0002b	50		 push	 eax
  0002c	e8 00 00 00 00	 call	 ?set_dynamics_defaults@@YGXPAUENTITY@@@Z ; set_dynamics_defaults

; 133  : 
; 134  : 	current_flight_dynamics->sub_type = ENTITY_SUB_TYPE_AIRCRAFT_RAH66_COMANCHE;

  00031	a1 00 00 00 00	 mov	 eax, DWORD PTR ?current_flight_dynamics@@3PAUDYNAMICS_TYPE@@A ; current_flight_dynamics
  00036	c7 40 04 02 00
	00 00		 mov	 DWORD PTR [eax+4], 2

; 135  : 
; 136  : 	sprintf (current_flight_dynamics->filename, "..\\common\\data\\comanche.dyn");

  0003d	68 00 00 00 00	 push	 OFFSET ??_C@_0BM@PFKMNBOP@?4?4?2common?2data?2comanche?4dyn@
  00042	a1 00 00 00 00	 mov	 eax, DWORD PTR ?current_flight_dynamics@@3PAUDYNAMICS_TYPE@@A ; current_flight_dynamics
  00047	83 c0 08	 add	 eax, 8
  0004a	50		 push	 eax
  0004b	e8 00 00 00 00	 call	 _sprintf
  00050	83 c4 08	 add	 esp, 8

; 137  : }

  00053	5f		 pop	 edi
  00054	5e		 pop	 esi
  00055	5b		 pop	 ebx
  00056	8b e5		 mov	 esp, ebp
  00058	5d		 pop	 ebp
  00059	c2 04 00	 ret	 4
?initialise_comanche_advanced_dynamics@@YGXPAUENTITY@@@Z ENDP ; initialise_comanche_advanced_dynamics
_TEXT	ENDS
; Function compile flags: /Odtp /ZI
; File c:\users\nhv90\projects\eech\aphavoc\source\gunships\dynamics\comanche\cm_dyn.c
;	COMDAT ?update_acceleration_dynamics@@YGXXZ
_TEXT	SEGMENT
tv586 = -152						; size = 8
tv587 = -144						; size = 8
tv918 = -136						; size = 8
tv417 = -136						; size = 4
tv409 = -132						; size = 4
tv571 = -128						; size = 4
tv397 = -128						; size = 4
tv563 = -124						; size = 4
tv389 = -124						; size = 4
tv901 = -120						; size = 8
tv864 = -120						; size = 8
tv377 = -120						; size = 4
tv255 = -120						; size = 8
tv241 = -120						; size = 8
tv369 = -116						; size = 4
tv609 = -112						; size = 4
tv548 = -112						; size = 4
tv522 = -112						; size = 4
tv501 = -112						; size = 4
tv480 = -112						; size = 4
tv456 = -112						; size = 4
tv436 = -112						; size = 4
tv270 = -112						; size = 4
tv256 = -112						; size = 8
tv242 = -112						; size = 8
tv601 = -108						; size = 4
tv540 = -108						; size = 4
tv514 = -108						; size = 4
tv494 = -108						; size = 4
tv473 = -108						; size = 4
tv449 = -108						; size = 4
tv428 = -108						; size = 4
tv263 = -108						; size = 4
$T1 = -104						; size = 4
$T2 = -100						; size = 4
$T3 = -96						; size = 4
$T4 = -92						; size = 4
$T5 = -88						; size = 4
$T6 = -84						; size = 4
$T7 = -80						; size = 4
$T8 = -76						; size = 4
_keysite$9 = -8						; size = 4
_raw$ = -4						; size = 4
?update_acceleration_dynamics@@YGXXZ PROC		; update_acceleration_dynamics, COMDAT

; 2808 : {

  00000	55		 push	 ebp
  00001	8b ec		 mov	 ebp, esp
  00003	81 ec 98 00 00
	00		 sub	 esp, 152		; 00000098H
  00009	53		 push	 ebx
  0000a	56		 push	 esi
  0000b	57		 push	 edi

; 2809 : 
; 2810 : 	helicopter
; 2811 : 		*raw;
; 2812 : 
; 2813 : 	raw = (helicopter *) get_local_entity_data (get_gunship_entity ());

  0000c	a1 00 00 00 00	 mov	 eax, DWORD PTR ?gunship_entity@@3PAUENTITY@@A ; gunship_entity
  00011	8b 48 04	 mov	 ecx, DWORD PTR [eax+4]
  00014	89 4d fc	 mov	 DWORD PTR _raw$[ebp], ecx

; 2814 : 
; 2815 : 	// calculate total lift provided by main rotor
; 2816 : 
; 2817 : 	current_flight_dynamics->lift.value = current_flight_dynamics->power_surplus.value * 50;

  00017	a1 00 00 00 00	 mov	 eax, DWORD PTR ?current_flight_dynamics@@3PAUDYNAMICS_TYPE@@A ; current_flight_dynamics
  0001c	f3 0f 10 80 54
	20 00 00	 movss	 xmm0, DWORD PTR [eax+8276]
  00024	f3 0f 59 05 00
	00 00 00	 mulss	 xmm0, DWORD PTR __real@42480000
  0002c	8b 0d 00 00 00
	00		 mov	 ecx, DWORD PTR ?current_flight_dynamics@@3PAUDYNAMICS_TYPE@@A ; current_flight_dynamics
  00032	f3 0f 11 81 a4
	21 00 00	 movss	 DWORD PTR [ecx+8612], xmm0

; 2818 : 
; 2819 : 	current_flight_dynamics->lift.value /= current_flight_dynamics->mass.value;

  0003a	a1 00 00 00 00	 mov	 eax, DWORD PTR ?current_flight_dynamics@@3PAUDYNAMICS_TYPE@@A ; current_flight_dynamics
  0003f	8b 0d 00 00 00
	00		 mov	 ecx, DWORD PTR ?current_flight_dynamics@@3PAUDYNAMICS_TYPE@@A ; current_flight_dynamics
  00045	f3 0f 10 80 a4
	21 00 00	 movss	 xmm0, DWORD PTR [eax+8612]
  0004d	f3 0f 5e 81 b4
	23 00 00	 divss	 xmm0, DWORD PTR [ecx+9140]
  00055	8b 15 00 00 00
	00		 mov	 edx, DWORD PTR ?current_flight_dynamics@@3PAUDYNAMICS_TYPE@@A ; current_flight_dynamics
  0005b	f3 0f 11 82 a4
	21 00 00	 movss	 DWORD PTR [edx+8612], xmm0

; 2820 : 
; 2821 : 	// transform model acceleration into world acceleration
; 2822 : 
; 2823 : 	multiply_matrix3x3_vec3d (&current_flight_dynamics->world_acceleration_vector, current_flight_dynamics->attitude, &current_flight_dynamics->model_acceleration_vector);

  00063	a1 00 00 00 00	 mov	 eax, DWORD PTR ?current_flight_dynamics@@3PAUDYNAMICS_TYPE@@A ; current_flight_dynamics
  00068	05 48 1c 00 00	 add	 eax, 7240		; 00001c48H
  0006d	50		 push	 eax
  0006e	8b 0d 00 00 00
	00		 mov	 ecx, DWORD PTR ?current_flight_dynamics@@3PAUDYNAMICS_TYPE@@A ; current_flight_dynamics
  00074	81 c1 d0 00 00
	00		 add	 ecx, 208		; 000000d0H
  0007a	51		 push	 ecx
  0007b	8b 15 00 00 00
	00		 mov	 edx, DWORD PTR ?current_flight_dynamics@@3PAUDYNAMICS_TYPE@@A ; current_flight_dynamics
  00081	81 c2 54 1c 00
	00		 add	 edx, 7252		; 00001c54H
  00087	52		 push	 edx
  00088	e8 00 00 00 00	 call	 ?multiply_matrix3x3_vec3d@@YGXPAUVEC3D@@QAY02$$CBMPBU1@@Z ; multiply_matrix3x3_vec3d

; 2824 : 
; 2825 : 	// calculate the motion vector, in world coords
; 2826 : 
; 2827 : 	current_flight_dynamics->world_motion_vector.x += current_flight_dynamics->world_acceleration_vector.x * get_model_delta_time ();

  0008d	a1 00 00 00 00	 mov	 eax, DWORD PTR ?current_flight_dynamics@@3PAUDYNAMICS_TYPE@@A ; current_flight_dynamics
  00092	8b 0d 00 00 00
	00		 mov	 ecx, DWORD PTR ?current_flight_dynamics@@3PAUDYNAMICS_TYPE@@A ; current_flight_dynamics
  00098	f3 0f 10 80 54
	1c 00 00	 movss	 xmm0, DWORD PTR [eax+7252]
  000a0	f3 0f 59 81 90
	00 00 00	 mulss	 xmm0, DWORD PTR [ecx+144]
  000a8	8b 15 00 00 00
	00		 mov	 edx, DWORD PTR ?current_flight_dynamics@@3PAUDYNAMICS_TYPE@@A ; current_flight_dynamics
  000ae	f3 0f 58 82 3c
	1c 00 00	 addss	 xmm0, DWORD PTR [edx+7228]
  000b6	a1 00 00 00 00	 mov	 eax, DWORD PTR ?current_flight_dynamics@@3PAUDYNAMICS_TYPE@@A ; current_flight_dynamics
  000bb	f3 0f 11 80 3c
	1c 00 00	 movss	 DWORD PTR [eax+7228], xmm0

; 2828 : 	current_flight_dynamics->world_motion_vector.y += current_flight_dynamics->world_acceleration_vector.y * get_model_delta_time ();

  000c3	a1 00 00 00 00	 mov	 eax, DWORD PTR ?current_flight_dynamics@@3PAUDYNAMICS_TYPE@@A ; current_flight_dynamics
  000c8	8b 0d 00 00 00
	00		 mov	 ecx, DWORD PTR ?current_flight_dynamics@@3PAUDYNAMICS_TYPE@@A ; current_flight_dynamics
  000ce	f3 0f 10 80 58
	1c 00 00	 movss	 xmm0, DWORD PTR [eax+7256]
  000d6	f3 0f 59 81 90
	00 00 00	 mulss	 xmm0, DWORD PTR [ecx+144]
  000de	8b 15 00 00 00
	00		 mov	 edx, DWORD PTR ?current_flight_dynamics@@3PAUDYNAMICS_TYPE@@A ; current_flight_dynamics
  000e4	f3 0f 58 82 40
	1c 00 00	 addss	 xmm0, DWORD PTR [edx+7232]
  000ec	a1 00 00 00 00	 mov	 eax, DWORD PTR ?current_flight_dynamics@@3PAUDYNAMICS_TYPE@@A ; current_flight_dynamics
  000f1	f3 0f 11 80 40
	1c 00 00	 movss	 DWORD PTR [eax+7232], xmm0

; 2829 : 	current_flight_dynamics->world_motion_vector.z += current_flight_dynamics->world_acceleration_vector.z * get_model_delta_time ();

  000f9	a1 00 00 00 00	 mov	 eax, DWORD PTR ?current_flight_dynamics@@3PAUDYNAMICS_TYPE@@A ; current_flight_dynamics
  000fe	8b 0d 00 00 00
	00		 mov	 ecx, DWORD PTR ?current_flight_dynamics@@3PAUDYNAMICS_TYPE@@A ; current_flight_dynamics
  00104	f3 0f 10 80 5c
	1c 00 00	 movss	 xmm0, DWORD PTR [eax+7260]
  0010c	f3 0f 59 81 90
	00 00 00	 mulss	 xmm0, DWORD PTR [ecx+144]
  00114	8b 15 00 00 00
	00		 mov	 edx, DWORD PTR ?current_flight_dynamics@@3PAUDYNAMICS_TYPE@@A ; current_flight_dynamics
  0011a	f3 0f 58 82 44
	1c 00 00	 addss	 xmm0, DWORD PTR [edx+7236]
  00122	a1 00 00 00 00	 mov	 eax, DWORD PTR ?current_flight_dynamics@@3PAUDYNAMICS_TYPE@@A ; current_flight_dynamics
  00127	f3 0f 11 80 44
	1c 00 00	 movss	 DWORD PTR [eax+7236], xmm0

; 2830 : 
; 2831 : 	current_flight_dynamics->world_velocity_x.value = current_flight_dynamics->world_motion_vector.x;

  0012f	a1 00 00 00 00	 mov	 eax, DWORD PTR ?current_flight_dynamics@@3PAUDYNAMICS_TYPE@@A ; current_flight_dynamics
  00134	8b 0d 00 00 00
	00		 mov	 ecx, DWORD PTR ?current_flight_dynamics@@3PAUDYNAMICS_TYPE@@A ; current_flight_dynamics
  0013a	8b 91 3c 1c 00
	00		 mov	 edx, DWORD PTR [ecx+7228]
  00140	89 90 fc 20 00
	00		 mov	 DWORD PTR [eax+8444], edx

; 2832 : 	current_flight_dynamics->world_velocity_y.value = current_flight_dynamics->world_motion_vector.y;

  00146	a1 00 00 00 00	 mov	 eax, DWORD PTR ?current_flight_dynamics@@3PAUDYNAMICS_TYPE@@A ; current_flight_dynamics
  0014b	8b 0d 00 00 00
	00		 mov	 ecx, DWORD PTR ?current_flight_dynamics@@3PAUDYNAMICS_TYPE@@A ; current_flight_dynamics
  00151	8b 91 40 1c 00
	00		 mov	 edx, DWORD PTR [ecx+7232]
  00157	89 90 14 21 00
	00		 mov	 DWORD PTR [eax+8468], edx

; 2833 : 	current_flight_dynamics->world_velocity_z.value = current_flight_dynamics->world_motion_vector.z;

  0015d	a1 00 00 00 00	 mov	 eax, DWORD PTR ?current_flight_dynamics@@3PAUDYNAMICS_TYPE@@A ; current_flight_dynamics
  00162	8b 0d 00 00 00
	00		 mov	 ecx, DWORD PTR ?current_flight_dynamics@@3PAUDYNAMICS_TYPE@@A ; current_flight_dynamics
  00168	8b 91 44 1c 00
	00		 mov	 edx, DWORD PTR [ecx+7236]
  0016e	89 90 2c 21 00
	00		 mov	 DWORD PTR [eax+8492], edx

; 2834 : 
; 2835 : 	// transform the motion vector back into model coords ready for read-out and bounding
; 2836 : 
; 2837 : 	multiply_transpose_matrix3x3_vec3d (&current_flight_dynamics->model_motion_vector, current_flight_dynamics->attitude, &current_flight_dynamics->world_motion_vector);

  00174	a1 00 00 00 00	 mov	 eax, DWORD PTR ?current_flight_dynamics@@3PAUDYNAMICS_TYPE@@A ; current_flight_dynamics
  00179	05 3c 1c 00 00	 add	 eax, 7228		; 00001c3cH
  0017e	50		 push	 eax
  0017f	8b 0d 00 00 00
	00		 mov	 ecx, DWORD PTR ?current_flight_dynamics@@3PAUDYNAMICS_TYPE@@A ; current_flight_dynamics
  00185	81 c1 d0 00 00
	00		 add	 ecx, 208		; 000000d0H
  0018b	51		 push	 ecx
  0018c	8b 15 00 00 00
	00		 mov	 edx, DWORD PTR ?current_flight_dynamics@@3PAUDYNAMICS_TYPE@@A ; current_flight_dynamics
  00192	81 c2 30 1c 00
	00		 add	 edx, 7216		; 00001c30H
  00198	52		 push	 edx
  00199	e8 00 00 00 00	 call	 ?multiply_transpose_matrix3x3_vec3d@@YGXPAUVEC3D@@QAY02$$CBMPBU1@@Z ; multiply_transpose_matrix3x3_vec3d

; 2838 : 
; 2839 : 	// output values for HUD etc..
; 2840 : 
; 2841 : 	current_flight_dynamics->velocity_x.delta = current_flight_dynamics->world_acceleration_vector.x * get_model_delta_time ();

  0019e	a1 00 00 00 00	 mov	 eax, DWORD PTR ?current_flight_dynamics@@3PAUDYNAMICS_TYPE@@A ; current_flight_dynamics
  001a3	8b 0d 00 00 00
	00		 mov	 ecx, DWORD PTR ?current_flight_dynamics@@3PAUDYNAMICS_TYPE@@A ; current_flight_dynamics
  001a9	f3 0f 10 80 54
	1c 00 00	 movss	 xmm0, DWORD PTR [eax+7252]
  001b1	f3 0f 59 81 90
	00 00 00	 mulss	 xmm0, DWORD PTR [ecx+144]
  001b9	8b 15 00 00 00
	00		 mov	 edx, DWORD PTR ?current_flight_dynamics@@3PAUDYNAMICS_TYPE@@A ; current_flight_dynamics
  001bf	f3 0f 11 82 70
	20 00 00	 movss	 DWORD PTR [edx+8304], xmm0

; 2842 : 	current_flight_dynamics->velocity_y.delta = current_flight_dynamics->world_acceleration_vector.y * get_model_delta_time ();

  001c7	a1 00 00 00 00	 mov	 eax, DWORD PTR ?current_flight_dynamics@@3PAUDYNAMICS_TYPE@@A ; current_flight_dynamics
  001cc	8b 0d 00 00 00
	00		 mov	 ecx, DWORD PTR ?current_flight_dynamics@@3PAUDYNAMICS_TYPE@@A ; current_flight_dynamics
  001d2	f3 0f 10 80 58
	1c 00 00	 movss	 xmm0, DWORD PTR [eax+7256]
  001da	f3 0f 59 81 90
	00 00 00	 mulss	 xmm0, DWORD PTR [ecx+144]
  001e2	8b 15 00 00 00
	00		 mov	 edx, DWORD PTR ?current_flight_dynamics@@3PAUDYNAMICS_TYPE@@A ; current_flight_dynamics
  001e8	f3 0f 11 82 88
	20 00 00	 movss	 DWORD PTR [edx+8328], xmm0

; 2843 : 	current_flight_dynamics->velocity_z.delta = current_flight_dynamics->world_acceleration_vector.z * get_model_delta_time ();

  001f0	a1 00 00 00 00	 mov	 eax, DWORD PTR ?current_flight_dynamics@@3PAUDYNAMICS_TYPE@@A ; current_flight_dynamics
  001f5	8b 0d 00 00 00
	00		 mov	 ecx, DWORD PTR ?current_flight_dynamics@@3PAUDYNAMICS_TYPE@@A ; current_flight_dynamics
  001fb	f3 0f 10 80 5c
	1c 00 00	 movss	 xmm0, DWORD PTR [eax+7260]
  00203	f3 0f 59 81 90
	00 00 00	 mulss	 xmm0, DWORD PTR [ecx+144]
  0020b	8b 15 00 00 00
	00		 mov	 edx, DWORD PTR ?current_flight_dynamics@@3PAUDYNAMICS_TYPE@@A ; current_flight_dynamics
  00211	f3 0f 11 82 a0
	20 00 00	 movss	 DWORD PTR [edx+8352], xmm0

; 2844 : 
; 2845 : 	current_flight_dynamics->velocity_x.value = current_flight_dynamics->model_motion_vector.x;

  00219	a1 00 00 00 00	 mov	 eax, DWORD PTR ?current_flight_dynamics@@3PAUDYNAMICS_TYPE@@A ; current_flight_dynamics
  0021e	8b 0d 00 00 00
	00		 mov	 ecx, DWORD PTR ?current_flight_dynamics@@3PAUDYNAMICS_TYPE@@A ; current_flight_dynamics
  00224	8b 91 30 1c 00
	00		 mov	 edx, DWORD PTR [ecx+7216]
  0022a	89 90 6c 20 00
	00		 mov	 DWORD PTR [eax+8300], edx

; 2846 : 	current_flight_dynamics->velocity_y.value = current_flight_dynamics->model_motion_vector.y;

  00230	a1 00 00 00 00	 mov	 eax, DWORD PTR ?current_flight_dynamics@@3PAUDYNAMICS_TYPE@@A ; current_flight_dynamics
  00235	8b 0d 00 00 00
	00		 mov	 ecx, DWORD PTR ?current_flight_dynamics@@3PAUDYNAMICS_TYPE@@A ; current_flight_dynamics
  0023b	8b 91 34 1c 00
	00		 mov	 edx, DWORD PTR [ecx+7220]
  00241	89 90 84 20 00
	00		 mov	 DWORD PTR [eax+8324], edx

; 2847 : 	current_flight_dynamics->velocity_z.value = current_flight_dynamics->model_motion_vector.z;

  00247	a1 00 00 00 00	 mov	 eax, DWORD PTR ?current_flight_dynamics@@3PAUDYNAMICS_TYPE@@A ; current_flight_dynamics
  0024c	8b 0d 00 00 00
	00		 mov	 ecx, DWORD PTR ?current_flight_dynamics@@3PAUDYNAMICS_TYPE@@A ; current_flight_dynamics
  00252	8b 91 38 1c 00
	00		 mov	 edx, DWORD PTR [ecx+7224]
  00258	89 90 9c 20 00
	00		 mov	 DWORD PTR [eax+8348], edx

; 2848 : 
; 2849 : 	// move position
; 2850 : 
; 2851 : 	current_flight_dynamics->position.x += current_flight_dynamics->world_motion_vector.x * get_model_delta_time ();

  0025e	a1 00 00 00 00	 mov	 eax, DWORD PTR ?current_flight_dynamics@@3PAUDYNAMICS_TYPE@@A ; current_flight_dynamics
  00263	8b 0d 00 00 00
	00		 mov	 ecx, DWORD PTR ?current_flight_dynamics@@3PAUDYNAMICS_TYPE@@A ; current_flight_dynamics
  00269	f3 0f 10 80 3c
	1c 00 00	 movss	 xmm0, DWORD PTR [eax+7228]
  00271	f3 0f 59 81 90
	00 00 00	 mulss	 xmm0, DWORD PTR [ecx+144]
  00279	f3 0f 5a c0	 cvtss2sd xmm0, xmm0
  0027d	8b 15 00 00 00
	00		 mov	 edx, DWORD PTR ?current_flight_dynamics@@3PAUDYNAMICS_TYPE@@A ; current_flight_dynamics
  00283	f2 0f 58 82 ac
	00 00 00	 addsd	 xmm0, QWORD PTR [edx+172]
  0028b	a1 00 00 00 00	 mov	 eax, DWORD PTR ?current_flight_dynamics@@3PAUDYNAMICS_TYPE@@A ; current_flight_dynamics
  00290	f2 0f 11 80 ac
	00 00 00	 movsd	 QWORD PTR [eax+172], xmm0

; 2852 : 	current_flight_dynamics->position.y += current_flight_dynamics->world_motion_vector.y * get_model_delta_time ();

  00298	a1 00 00 00 00	 mov	 eax, DWORD PTR ?current_flight_dynamics@@3PAUDYNAMICS_TYPE@@A ; current_flight_dynamics
  0029d	8b 0d 00 00 00
	00		 mov	 ecx, DWORD PTR ?current_flight_dynamics@@3PAUDYNAMICS_TYPE@@A ; current_flight_dynamics
  002a3	f3 0f 10 80 40
	1c 00 00	 movss	 xmm0, DWORD PTR [eax+7232]
  002ab	f3 0f 59 81 90
	00 00 00	 mulss	 xmm0, DWORD PTR [ecx+144]
  002b3	f3 0f 5a c0	 cvtss2sd xmm0, xmm0
  002b7	8b 15 00 00 00
	00		 mov	 edx, DWORD PTR ?current_flight_dynamics@@3PAUDYNAMICS_TYPE@@A ; current_flight_dynamics
  002bd	f2 0f 58 82 b4
	00 00 00	 addsd	 xmm0, QWORD PTR [edx+180]
  002c5	a1 00 00 00 00	 mov	 eax, DWORD PTR ?current_flight_dynamics@@3PAUDYNAMICS_TYPE@@A ; current_flight_dynamics
  002ca	f2 0f 11 80 b4
	00 00 00	 movsd	 QWORD PTR [eax+180], xmm0

; 2853 : 	current_flight_dynamics->position.z += current_flight_dynamics->world_motion_vector.z * get_model_delta_time ();

  002d2	a1 00 00 00 00	 mov	 eax, DWORD PTR ?current_flight_dynamics@@3PAUDYNAMICS_TYPE@@A ; current_flight_dynamics
  002d7	8b 0d 00 00 00
	00		 mov	 ecx, DWORD PTR ?current_flight_dynamics@@3PAUDYNAMICS_TYPE@@A ; current_flight_dynamics
  002dd	f3 0f 10 80 44
	1c 00 00	 movss	 xmm0, DWORD PTR [eax+7236]
  002e5	f3 0f 59 81 90
	00 00 00	 mulss	 xmm0, DWORD PTR [ecx+144]
  002ed	f3 0f 5a c0	 cvtss2sd xmm0, xmm0
  002f1	8b 15 00 00 00
	00		 mov	 edx, DWORD PTR ?current_flight_dynamics@@3PAUDYNAMICS_TYPE@@A ; current_flight_dynamics
  002f7	f2 0f 58 82 bc
	00 00 00	 addsd	 xmm0, QWORD PTR [edx+188]
  002ff	a1 00 00 00 00	 mov	 eax, DWORD PTR ?current_flight_dynamics@@3PAUDYNAMICS_TYPE@@A ; current_flight_dynamics
  00304	f2 0f 11 80 bc
	00 00 00	 movsd	 QWORD PTR [eax+188], xmm0

; 2854 : 
; 2855 : 	// bound to the world
; 2856 : 
; 2857 : 	bound_double_position_to_adjusted_map_volume (&current_flight_dynamics->position);

  0030c	a1 00 00 00 00	 mov	 eax, DWORD PTR ?current_flight_dynamics@@3PAUDYNAMICS_TYPE@@A ; current_flight_dynamics
  00311	05 ac 00 00 00	 add	 eax, 172		; 000000acH
  00316	50		 push	 eax
  00317	e8 00 00 00 00	 call	 ?bound_double_position_to_adjusted_map_volume@@YGHPAUDOUBLE_VEC3D@@@Z ; bound_double_position_to_adjusted_map_volume

; 2858 : 	//current_flight_dynamics->position.x = bound (current_flight_dynamics->position.x, MIN_MAP_X, MAX_MAP_X);
; 2859 : 	//current_flight_dynamics->position.z = bound (current_flight_dynamics->position.z, MIN_MAP_Z, MAX_MAP_Z);
; 2860 : 
; 2861 : 	if (get_terrain_type_class (get_3d_terrain_point_data_type (&raw->ac.terrain_info)) == TERRAIN_CLASS_LAND)

  0031c	8b 45 fc	 mov	 eax, DWORD PTR _raw$[ebp]
  0031f	05 54 01 00 00	 add	 eax, 340		; 00000154H
  00324	50		 push	 eax
  00325	e8 00 00 00 00	 call	 ?get_3d_terrain_point_data_type@@YGHPAUTERRAIN_3D_POINT_DATA@@@Z ; get_3d_terrain_point_data_type
  0032a	50		 push	 eax
  0032b	e8 00 00 00 00	 call	 ?get_terrain_type_class@@YG?AW4TERRAIN_CLASSES@@H@Z ; get_terrain_type_class
  00330	83 f8 03	 cmp	 eax, 3
  00333	75 7b		 jne	 SHORT $LN2@update_acc

; 2862 : 	{
; 2863 : 
; 2864 : 		current_flight_dynamics->position.y = bound (current_flight_dynamics->position.y, 0.0, MAX_MAP_Y);

  00335	a1 00 00 00 00	 mov	 eax, DWORD PTR ?current_flight_dynamics@@3PAUDYNAMICS_TYPE@@A ; current_flight_dynamics
  0033a	0f 57 c0	 xorps	 xmm0, xmm0
  0033d	66 0f 2f 80 b4
	00 00 00	 comisd	 xmm0, QWORD PTR [eax+180]
  00345	76 0a		 jbe	 SHORT $LN18@update_acc
  00347	0f 57 c0	 xorps	 xmm0, xmm0
  0034a	f2 0f 11 45 90	 movsd	 QWORD PTR tv242[ebp], xmm0
  0034f	eb 48		 jmp	 SHORT $LN19@update_acc
$LN18@update_acc:
  00351	f3 0f 5a 05 40
	00 00 00	 cvtss2sd xmm0, DWORD PTR ?world_map@@3UWORLD_MAP_DATA@@A+64
  00359	8b 0d 00 00 00
	00		 mov	 ecx, DWORD PTR ?current_flight_dynamics@@3PAUDYNAMICS_TYPE@@A ; current_flight_dynamics
  0035f	f2 0f 10 89 b4
	00 00 00	 movsd	 xmm1, QWORD PTR [ecx+180]
  00367	66 0f 2f c8	 comisd	 xmm1, xmm0
  0036b	76 0f		 jbe	 SHORT $LN16@update_acc
  0036d	f3 0f 5a 05 40
	00 00 00	 cvtss2sd xmm0, DWORD PTR ?world_map@@3UWORLD_MAP_DATA@@A+64
  00375	f2 0f 11 45 88	 movsd	 QWORD PTR tv241[ebp], xmm0
  0037a	eb 13		 jmp	 SHORT $LN17@update_acc
$LN16@update_acc:
  0037c	8b 15 00 00 00
	00		 mov	 edx, DWORD PTR ?current_flight_dynamics@@3PAUDYNAMICS_TYPE@@A ; current_flight_dynamics
  00382	f2 0f 10 82 b4
	00 00 00	 movsd	 xmm0, QWORD PTR [edx+180]
  0038a	f2 0f 11 45 88	 movsd	 QWORD PTR tv241[ebp], xmm0
$LN17@update_acc:
  0038f	f2 0f 10 45 88	 movsd	 xmm0, QWORD PTR tv241[ebp]
  00394	f2 0f 11 45 90	 movsd	 QWORD PTR tv242[ebp], xmm0
$LN19@update_acc:
  00399	a1 00 00 00 00	 mov	 eax, DWORD PTR ?current_flight_dynamics@@3PAUDYNAMICS_TYPE@@A ; current_flight_dynamics
  0039e	f2 0f 10 45 90	 movsd	 xmm0, QWORD PTR tv242[ebp]
  003a3	f2 0f 11 80 b4
	00 00 00	 movsd	 QWORD PTR [eax+180], xmm0

; 2865 : 	}
; 2866 : 	else

  003ab	e9 80 00 00 00	 jmp	 $LN3@update_acc
$LN2@update_acc:

; 2867 : 	{
; 2868 : 
; 2869 : 		//
; 2870 : 		// allow model to go 1m into water/forest and then blow up
; 2871 : 		//
; 2872 : 
; 2873 : 		current_flight_dynamics->position.y = bound (current_flight_dynamics->position.y, -1.0, MAX_MAP_Y);

  003b0	a1 00 00 00 00	 mov	 eax, DWORD PTR ?current_flight_dynamics@@3PAUDYNAMICS_TYPE@@A ; current_flight_dynamics
  003b5	f2 0f 10 05 00
	00 00 00	 movsd	 xmm0, QWORD PTR __real@bff0000000000000
  003bd	66 0f 2f 80 b4
	00 00 00	 comisd	 xmm0, QWORD PTR [eax+180]
  003c5	76 0f		 jbe	 SHORT $LN22@update_acc
  003c7	f2 0f 10 05 00
	00 00 00	 movsd	 xmm0, QWORD PTR __real@bff0000000000000
  003cf	f2 0f 11 45 90	 movsd	 QWORD PTR tv256[ebp], xmm0
  003d4	eb 48		 jmp	 SHORT $LN23@update_acc
$LN22@update_acc:
  003d6	f3 0f 5a 05 40
	00 00 00	 cvtss2sd xmm0, DWORD PTR ?world_map@@3UWORLD_MAP_DATA@@A+64
  003de	8b 0d 00 00 00
	00		 mov	 ecx, DWORD PTR ?current_flight_dynamics@@3PAUDYNAMICS_TYPE@@A ; current_flight_dynamics
  003e4	f2 0f 10 89 b4
	00 00 00	 movsd	 xmm1, QWORD PTR [ecx+180]
  003ec	66 0f 2f c8	 comisd	 xmm1, xmm0
  003f0	76 0f		 jbe	 SHORT $LN20@update_acc
  003f2	f3 0f 5a 05 40
	00 00 00	 cvtss2sd xmm0, DWORD PTR ?world_map@@3UWORLD_MAP_DATA@@A+64
  003fa	f2 0f 11 45 88	 movsd	 QWORD PTR tv255[ebp], xmm0
  003ff	eb 13		 jmp	 SHORT $LN21@update_acc
$LN20@update_acc:
  00401	8b 15 00 00 00
	00		 mov	 edx, DWORD PTR ?current_flight_dynamics@@3PAUDYNAMICS_TYPE@@A ; current_flight_dynamics
  00407	f2 0f 10 82 b4
	00 00 00	 movsd	 xmm0, QWORD PTR [edx+180]
  0040f	f2 0f 11 45 88	 movsd	 QWORD PTR tv255[ebp], xmm0
$LN21@update_acc:
  00414	f2 0f 10 45 88	 movsd	 xmm0, QWORD PTR tv255[ebp]
  00419	f2 0f 11 45 90	 movsd	 QWORD PTR tv256[ebp], xmm0
$LN23@update_acc:
  0041e	a1 00 00 00 00	 mov	 eax, DWORD PTR ?current_flight_dynamics@@3PAUDYNAMICS_TYPE@@A ; current_flight_dynamics
  00423	f2 0f 10 45 90	 movsd	 xmm0, QWORD PTR tv256[ebp]
  00428	f2 0f 11 80 b4
	00 00 00	 movsd	 QWORD PTR [eax+180], xmm0
$LN3@update_acc:

; 2874 : 	}
; 2875 : 
; 2876 : 	// debug - for ships, VSI = 0 when landed.
; 2877 : 
; 2878 : 	if (command_line_dynamics_flight_model < 2 && !get_local_entity_int_value (get_gunship_entity (), INT_TYPE_AIRBORNE_AIRCRAFT))

  00430	83 3d 00 00 00
	00 02		 cmp	 DWORD PTR ?command_line_dynamics_flight_model@@3HA, 2 ; command_line_dynamics_flight_model
  00437	0f 8d bc 02 00
	00		 jge	 $LN9@update_acc
  0043d	83 3d 00 00 00
	00 00		 cmp	 DWORD PTR ?gunship_entity@@3PAUENTITY@@A, 0 ; gunship_entity
  00444	74 0c		 je	 SHORT $LN24@update_acc
  00446	a1 00 00 00 00	 mov	 eax, DWORD PTR ?gunship_entity@@3PAUENTITY@@A ; gunship_entity
  0044b	8b 08		 mov	 ecx, DWORD PTR [eax]
  0044d	89 4d 94	 mov	 DWORD PTR tv263[ebp], ecx
  00450	eb 1d		 jmp	 SHORT $LN25@update_acc
$LN24@update_acc:
  00452	68 3e 0b 00 00	 push	 2878			; 00000b3eH
  00457	68 00 00 00 00	 push	 OFFSET ??_C@_0FA@IFJNMDIM@c?3?2users?2nhv90?2projects?2eech?2ap@
  0045c	8b 15 00 00 00
	00		 mov	 edx, DWORD PTR ?null_entity_pointer_message@@3PBDB ; null_entity_pointer_message
  00462	52		 push	 edx
  00463	e8 00 00 00 00	 call	 ?process_assert@@YGXPBD0H@Z ; process_assert
  00468	c7 45 94 00 00
	00 00		 mov	 DWORD PTR tv263[ebp], 0
$LN25@update_acc:
  0046f	b8 01 00 00 00	 mov	 eax, 1
  00474	85 c0		 test	 eax, eax
  00476	74 09		 je	 SHORT $LN26@update_acc
  00478	c7 45 90 04 00
	00 00		 mov	 DWORD PTR tv270[ebp], 4
  0047f	eb 1d		 jmp	 SHORT $LN27@update_acc
$LN26@update_acc:
  00481	68 3e 0b 00 00	 push	 2878			; 00000b3eH
  00486	68 00 00 00 00	 push	 OFFSET ??_C@_0FA@IFJNMDIM@c?3?2users?2nhv90?2projects?2eech?2ap@
  0048b	8b 0d 00 00 00
	00		 mov	 ecx, DWORD PTR ?overload_invalid_int_type_message@@3PBDB ; overload_invalid_int_type_message
  00491	51		 push	 ecx
  00492	e8 00 00 00 00	 call	 ?process_assert@@YGXPBD0H@Z ; process_assert
  00497	c7 45 90 00 00
	00 00		 mov	 DWORD PTR tv270[ebp], 0
$LN27@update_acc:
  0049e	6a 04		 push	 4
  004a0	8b 15 00 00 00
	00		 mov	 edx, DWORD PTR ?gunship_entity@@3PAUENTITY@@A ; gunship_entity
  004a6	52		 push	 edx
  004a7	69 45 94 5c 04
	00 00		 imul	 eax, DWORD PTR tv263[ebp], 1116
  004ae	8b 4d 90	 mov	 ecx, DWORD PTR tv270[ebp]
  004b1	8b 94 88 00 00
	00 00		 mov	 edx, DWORD PTR ?fn_get_local_entity_int_value@@3PAY0BBH@P6GHPAUENTITY@@W4INT_TYPES@@@ZA[eax+ecx*4]
  004b8	ff d2		 call	 edx
  004ba	85 c0		 test	 eax, eax
  004bc	0f 85 37 02 00
	00		 jne	 $LN9@update_acc

; 2879 : 	{
; 2880 : 
; 2881 : 		current_flight_dynamics->world_velocity_y.value = max (current_flight_dynamics->world_velocity_y.value, 0.0f);

  004c2	0f 57 c0	 xorps	 xmm0, xmm0
  004c5	f3 0f 11 45 b4	 movss	 DWORD PTR $T8[ebp], xmm0
  004ca	8d 45 b4	 lea	 eax, DWORD PTR $T8[ebp]
  004cd	50		 push	 eax
  004ce	8b 0d 00 00 00
	00		 mov	 ecx, DWORD PTR ?current_flight_dynamics@@3PAUDYNAMICS_TYPE@@A ; current_flight_dynamics
  004d4	81 c1 14 21 00
	00		 add	 ecx, 8468		; 00002114H
  004da	51		 push	 ecx
  004db	e8 00 00 00 00	 call	 ??$max@M@std@@YGABMABM0@Z ; std::max<float>
  004e0	8b 15 00 00 00
	00		 mov	 edx, DWORD PTR ?current_flight_dynamics@@3PAUDYNAMICS_TYPE@@A ; current_flight_dynamics
  004e6	8b 00		 mov	 eax, DWORD PTR [eax]
  004e8	89 82 14 21 00
	00		 mov	 DWORD PTR [edx+8468], eax

; 2882 : 		current_flight_dynamics->velocity_y.value = max (current_flight_dynamics->velocity_y.value, 0.0f);

  004ee	0f 57 c0	 xorps	 xmm0, xmm0
  004f1	f3 0f 11 45 b0	 movss	 DWORD PTR $T7[ebp], xmm0
  004f6	8d 45 b0	 lea	 eax, DWORD PTR $T7[ebp]
  004f9	50		 push	 eax
  004fa	8b 0d 00 00 00
	00		 mov	 ecx, DWORD PTR ?current_flight_dynamics@@3PAUDYNAMICS_TYPE@@A ; current_flight_dynamics
  00500	81 c1 84 20 00
	00		 add	 ecx, 8324		; 00002084H
  00506	51		 push	 ecx
  00507	e8 00 00 00 00	 call	 ??$max@M@std@@YGABMABM0@Z ; std::max<float>
  0050c	8b 15 00 00 00
	00		 mov	 edx, DWORD PTR ?current_flight_dynamics@@3PAUDYNAMICS_TYPE@@A ; current_flight_dynamics
  00512	8b 00		 mov	 eax, DWORD PTR [eax]
  00514	89 82 84 20 00
	00		 mov	 DWORD PTR [edx+8324], eax

; 2883 : 		current_flight_dynamics->model_motion_vector.y = max (current_flight_dynamics->model_motion_vector.y, 0.0f);

  0051a	0f 57 c0	 xorps	 xmm0, xmm0
  0051d	f3 0f 11 45 ac	 movss	 DWORD PTR $T6[ebp], xmm0
  00522	8d 45 ac	 lea	 eax, DWORD PTR $T6[ebp]
  00525	50		 push	 eax
  00526	8b 0d 00 00 00
	00		 mov	 ecx, DWORD PTR ?current_flight_dynamics@@3PAUDYNAMICS_TYPE@@A ; current_flight_dynamics
  0052c	81 c1 34 1c 00
	00		 add	 ecx, 7220		; 00001c34H
  00532	51		 push	 ecx
  00533	e8 00 00 00 00	 call	 ??$max@M@std@@YGABMABM0@Z ; std::max<float>
  00538	8b 15 00 00 00
	00		 mov	 edx, DWORD PTR ?current_flight_dynamics@@3PAUDYNAMICS_TYPE@@A ; current_flight_dynamics
  0053e	8b 00		 mov	 eax, DWORD PTR [eax]
  00540	89 82 34 1c 00
	00		 mov	 DWORD PTR [edx+7220], eax

; 2884 : 		current_flight_dynamics->world_motion_vector.y = max (current_flight_dynamics->world_motion_vector.y, 0.0f);

  00546	0f 57 c0	 xorps	 xmm0, xmm0
  00549	f3 0f 11 45 a8	 movss	 DWORD PTR $T5[ebp], xmm0
  0054e	8d 45 a8	 lea	 eax, DWORD PTR $T5[ebp]
  00551	50		 push	 eax
  00552	8b 0d 00 00 00
	00		 mov	 ecx, DWORD PTR ?current_flight_dynamics@@3PAUDYNAMICS_TYPE@@A ; current_flight_dynamics
  00558	81 c1 40 1c 00
	00		 add	 ecx, 7232		; 00001c40H
  0055e	51		 push	 ecx
  0055f	e8 00 00 00 00	 call	 ??$max@M@std@@YGABMABM0@Z ; std::max<float>
  00564	8b 15 00 00 00
	00		 mov	 edx, DWORD PTR ?current_flight_dynamics@@3PAUDYNAMICS_TYPE@@A ; current_flight_dynamics
  0056a	8b 00		 mov	 eax, DWORD PTR [eax]
  0056c	89 82 40 1c 00
	00		 mov	 DWORD PTR [edx+7232], eax

; 2885 : 
; 2886 : 		if (current_flight_dynamics->wheel_brake)

  00572	a1 00 00 00 00	 mov	 eax, DWORD PTR ?current_flight_dynamics@@3PAUDYNAMICS_TYPE@@A ; current_flight_dynamics
  00577	8b 88 28 25 00
	00		 mov	 ecx, DWORD PTR [eax+9512]
  0057d	c1 e9 06	 shr	 ecx, 6
  00580	83 e1 01	 and	 ecx, 1
  00583	0f 84 70 01 00
	00		 je	 $LN9@update_acc

; 2887 : 		{
; 2888 : 			// arneh, june 2006 - reduces effectivness of wheel brakes
; 2889 : 			if (current_flight_dynamics->world_motion_vector.x > 0)

  00589	a1 00 00 00 00	 mov	 eax, DWORD PTR ?current_flight_dynamics@@3PAUDYNAMICS_TYPE@@A ; current_flight_dynamics
  0058e	f3 0f 10 80 3c
	1c 00 00	 movss	 xmm0, DWORD PTR [eax+7228]
  00596	0f 2f 05 00 00
	00 00		 comiss	 xmm0, DWORD PTR __real@00000000
  0059d	76 52		 jbe	 SHORT $LN6@update_acc

; 2890 : 				current_flight_dynamics->world_motion_vector.x -= min(20.0f * get_model_delta_time (), current_flight_dynamics->world_motion_vector.x );

  0059f	a1 00 00 00 00	 mov	 eax, DWORD PTR ?current_flight_dynamics@@3PAUDYNAMICS_TYPE@@A ; current_flight_dynamics
  005a4	f3 0f 10 05 00
	00 00 00	 movss	 xmm0, DWORD PTR __real@41a00000
  005ac	f3 0f 59 80 90
	00 00 00	 mulss	 xmm0, DWORD PTR [eax+144]
  005b4	f3 0f 11 45 a4	 movss	 DWORD PTR $T4[ebp], xmm0
  005b9	8b 0d 00 00 00
	00		 mov	 ecx, DWORD PTR ?current_flight_dynamics@@3PAUDYNAMICS_TYPE@@A ; current_flight_dynamics
  005bf	81 c1 3c 1c 00
	00		 add	 ecx, 7228		; 00001c3cH
  005c5	51		 push	 ecx
  005c6	8d 55 a4	 lea	 edx, DWORD PTR $T4[ebp]
  005c9	52		 push	 edx
  005ca	e8 00 00 00 00	 call	 ??$min@M@std@@YGABMABM0@Z ; std::min<float>
  005cf	8b 0d 00 00 00
	00		 mov	 ecx, DWORD PTR ?current_flight_dynamics@@3PAUDYNAMICS_TYPE@@A ; current_flight_dynamics
  005d5	f3 0f 10 81 3c
	1c 00 00	 movss	 xmm0, DWORD PTR [ecx+7228]
  005dd	f3 0f 5c 00	 subss	 xmm0, DWORD PTR [eax]
  005e1	8b 15 00 00 00
	00		 mov	 edx, DWORD PTR ?current_flight_dynamics@@3PAUDYNAMICS_TYPE@@A ; current_flight_dynamics
  005e7	f3 0f 11 82 3c
	1c 00 00	 movss	 DWORD PTR [edx+7228], xmm0

; 2891 : 			else

  005ef	eb 50		 jmp	 SHORT $LN7@update_acc
$LN6@update_acc:

; 2892 : 				current_flight_dynamics->world_motion_vector.x -= max(-20.0f * get_model_delta_time (), current_flight_dynamics->world_motion_vector.x );

  005f1	a1 00 00 00 00	 mov	 eax, DWORD PTR ?current_flight_dynamics@@3PAUDYNAMICS_TYPE@@A ; current_flight_dynamics
  005f6	f3 0f 10 05 00
	00 00 00	 movss	 xmm0, DWORD PTR __real@c1a00000
  005fe	f3 0f 59 80 90
	00 00 00	 mulss	 xmm0, DWORD PTR [eax+144]
  00606	f3 0f 11 45 a0	 movss	 DWORD PTR $T3[ebp], xmm0
  0060b	8b 0d 00 00 00
	00		 mov	 ecx, DWORD PTR ?current_flight_dynamics@@3PAUDYNAMICS_TYPE@@A ; current_flight_dynamics
  00611	81 c1 3c 1c 00
	00		 add	 ecx, 7228		; 00001c3cH
  00617	51		 push	 ecx
  00618	8d 55 a0	 lea	 edx, DWORD PTR $T3[ebp]
  0061b	52		 push	 edx
  0061c	e8 00 00 00 00	 call	 ??$max@M@std@@YGABMABM0@Z ; std::max<float>
  00621	8b 0d 00 00 00
	00		 mov	 ecx, DWORD PTR ?current_flight_dynamics@@3PAUDYNAMICS_TYPE@@A ; current_flight_dynamics
  00627	f3 0f 10 81 3c
	1c 00 00	 movss	 xmm0, DWORD PTR [ecx+7228]
  0062f	f3 0f 5c 00	 subss	 xmm0, DWORD PTR [eax]
  00633	8b 15 00 00 00
	00		 mov	 edx, DWORD PTR ?current_flight_dynamics@@3PAUDYNAMICS_TYPE@@A ; current_flight_dynamics
  00639	f3 0f 11 82 3c
	1c 00 00	 movss	 DWORD PTR [edx+7228], xmm0
$LN7@update_acc:

; 2893 : 
; 2894 : 			if (current_flight_dynamics->world_motion_vector.z > 0)

  00641	a1 00 00 00 00	 mov	 eax, DWORD PTR ?current_flight_dynamics@@3PAUDYNAMICS_TYPE@@A ; current_flight_dynamics
  00646	f3 0f 10 80 44
	1c 00 00	 movss	 xmm0, DWORD PTR [eax+7236]
  0064e	0f 2f 05 00 00
	00 00		 comiss	 xmm0, DWORD PTR __real@00000000
  00655	76 52		 jbe	 SHORT $LN8@update_acc

; 2895 : 				current_flight_dynamics->world_motion_vector.z -= min(5.0f * get_model_delta_time (), current_flight_dynamics->world_motion_vector.z);

  00657	a1 00 00 00 00	 mov	 eax, DWORD PTR ?current_flight_dynamics@@3PAUDYNAMICS_TYPE@@A ; current_flight_dynamics
  0065c	f3 0f 10 05 00
	00 00 00	 movss	 xmm0, DWORD PTR __real@40a00000
  00664	f3 0f 59 80 90
	00 00 00	 mulss	 xmm0, DWORD PTR [eax+144]
  0066c	f3 0f 11 45 9c	 movss	 DWORD PTR $T2[ebp], xmm0
  00671	8b 0d 00 00 00
	00		 mov	 ecx, DWORD PTR ?current_flight_dynamics@@3PAUDYNAMICS_TYPE@@A ; current_flight_dynamics
  00677	81 c1 44 1c 00
	00		 add	 ecx, 7236		; 00001c44H
  0067d	51		 push	 ecx
  0067e	8d 55 9c	 lea	 edx, DWORD PTR $T2[ebp]
  00681	52		 push	 edx
  00682	e8 00 00 00 00	 call	 ??$min@M@std@@YGABMABM0@Z ; std::min<float>
  00687	8b 0d 00 00 00
	00		 mov	 ecx, DWORD PTR ?current_flight_dynamics@@3PAUDYNAMICS_TYPE@@A ; current_flight_dynamics
  0068d	f3 0f 10 81 44
	1c 00 00	 movss	 xmm0, DWORD PTR [ecx+7236]
  00695	f3 0f 5c 00	 subss	 xmm0, DWORD PTR [eax]
  00699	8b 15 00 00 00
	00		 mov	 edx, DWORD PTR ?current_flight_dynamics@@3PAUDYNAMICS_TYPE@@A ; current_flight_dynamics
  0069f	f3 0f 11 82 44
	1c 00 00	 movss	 DWORD PTR [edx+7236], xmm0

; 2896 : 			else

  006a7	eb 50		 jmp	 SHORT $LN9@update_acc
$LN8@update_acc:

; 2897 : 				current_flight_dynamics->world_motion_vector.z -= max(-5.0f * get_model_delta_time (), current_flight_dynamics->world_motion_vector.z);

  006a9	a1 00 00 00 00	 mov	 eax, DWORD PTR ?current_flight_dynamics@@3PAUDYNAMICS_TYPE@@A ; current_flight_dynamics
  006ae	f3 0f 10 05 00
	00 00 00	 movss	 xmm0, DWORD PTR __real@c0a00000
  006b6	f3 0f 59 80 90
	00 00 00	 mulss	 xmm0, DWORD PTR [eax+144]
  006be	f3 0f 11 45 98	 movss	 DWORD PTR $T1[ebp], xmm0
  006c3	8b 0d 00 00 00
	00		 mov	 ecx, DWORD PTR ?current_flight_dynamics@@3PAUDYNAMICS_TYPE@@A ; current_flight_dynamics
  006c9	81 c1 44 1c 00
	00		 add	 ecx, 7236		; 00001c44H
  006cf	51		 push	 ecx
  006d0	8d 55 98	 lea	 edx, DWORD PTR $T1[ebp]
  006d3	52		 push	 edx
  006d4	e8 00 00 00 00	 call	 ??$max@M@std@@YGABMABM0@Z ; std::max<float>
  006d9	8b 0d 00 00 00
	00		 mov	 ecx, DWORD PTR ?current_flight_dynamics@@3PAUDYNAMICS_TYPE@@A ; current_flight_dynamics
  006df	f3 0f 10 81 44
	1c 00 00	 movss	 xmm0, DWORD PTR [ecx+7236]
  006e7	f3 0f 5c 00	 subss	 xmm0, DWORD PTR [eax]
  006eb	8b 15 00 00 00
	00		 mov	 edx, DWORD PTR ?current_flight_dynamics@@3PAUDYNAMICS_TYPE@@A ; current_flight_dynamics
  006f1	f3 0f 11 82 44
	1c 00 00	 movss	 DWORD PTR [edx+7236], xmm0
$LN9@update_acc:

; 2898 : 		}
; 2899 : 	}
; 2900 : 	{
; 2901 : 
; 2902 : 		entity
; 2903 : 			*keysite;
; 2904 : 
; 2905 : 		keysite = get_local_entity_parent (get_local_entity_parent (get_gunship_entity (), LIST_TYPE_MEMBER), LIST_TYPE_KEYSITE_GROUP);

  006f9	83 3d 00 00 00
	00 00		 cmp	 DWORD PTR ?gunship_entity@@3PAUENTITY@@A, 0 ; gunship_entity
  00700	74 0c		 je	 SHORT $LN40@update_acc
  00702	a1 00 00 00 00	 mov	 eax, DWORD PTR ?gunship_entity@@3PAUENTITY@@A ; gunship_entity
  00707	8b 08		 mov	 ecx, DWORD PTR [eax]
  00709	89 4d 94	 mov	 DWORD PTR tv428[ebp], ecx
  0070c	eb 21		 jmp	 SHORT $LN41@update_acc
$LN40@update_acc:
  0070e	8b 15 00 00 00
	00		 mov	 edx, DWORD PTR ?__LINE__Var@?0??update_acceleration_dynamics@@YGXXZ@4JA
  00714	83 c2 61	 add	 edx, 97			; 00000061H
  00717	52		 push	 edx
  00718	68 00 00 00 00	 push	 OFFSET ??_C@_0FA@IFJNMDIM@c?3?2users?2nhv90?2projects?2eech?2ap@
  0071d	a1 00 00 00 00	 mov	 eax, DWORD PTR ?null_entity_pointer_message@@3PBDB ; null_entity_pointer_message
  00722	50		 push	 eax
  00723	e8 00 00 00 00	 call	 ?process_assert@@YGXPBD0H@Z ; process_assert
  00728	c7 45 94 00 00
	00 00		 mov	 DWORD PTR tv428[ebp], 0
$LN41@update_acc:
  0072f	b9 01 00 00 00	 mov	 ecx, 1
  00734	85 c9		 test	 ecx, ecx
  00736	74 09		 je	 SHORT $LN42@update_acc
  00738	c7 45 90 19 00
	00 00		 mov	 DWORD PTR tv436[ebp], 25 ; 00000019H
  0073f	eb 21		 jmp	 SHORT $LN43@update_acc
$LN42@update_acc:
  00741	8b 15 00 00 00
	00		 mov	 edx, DWORD PTR ?__LINE__Var@?0??update_acceleration_dynamics@@YGXXZ@4JA
  00747	83 c2 61	 add	 edx, 97			; 00000061H
  0074a	52		 push	 edx
  0074b	68 00 00 00 00	 push	 OFFSET ??_C@_0FA@IFJNMDIM@c?3?2users?2nhv90?2projects?2eech?2ap@
  00750	a1 00 00 00 00	 mov	 eax, DWORD PTR ?overload_invalid_list_type_message@@3PBDB ; overload_invalid_list_type_message
  00755	50		 push	 eax
  00756	e8 00 00 00 00	 call	 ?process_assert@@YGXPBD0H@Z ; process_assert
  0075b	c7 45 90 00 00
	00 00		 mov	 DWORD PTR tv436[ebp], 0
$LN43@update_acc:
  00762	83 3d 00 00 00
	00 00		 cmp	 DWORD PTR ?gunship_entity@@3PAUENTITY@@A, 0 ; gunship_entity
  00769	74 0d		 je	 SHORT $LN28@update_acc
  0076b	8b 0d 00 00 00
	00		 mov	 ecx, DWORD PTR ?gunship_entity@@3PAUENTITY@@A ; gunship_entity
  00771	8b 11		 mov	 edx, DWORD PTR [ecx]
  00773	89 55 8c	 mov	 DWORD PTR tv369[ebp], edx
  00776	eb 21		 jmp	 SHORT $LN29@update_acc
$LN28@update_acc:
  00778	a1 00 00 00 00	 mov	 eax, DWORD PTR ?__LINE__Var@?0??update_acceleration_dynamics@@YGXXZ@4JA
  0077d	83 c0 61	 add	 eax, 97			; 00000061H
  00780	50		 push	 eax
  00781	68 00 00 00 00	 push	 OFFSET ??_C@_0FA@IFJNMDIM@c?3?2users?2nhv90?2projects?2eech?2ap@
  00786	8b 0d 00 00 00
	00		 mov	 ecx, DWORD PTR ?null_entity_pointer_message@@3PBDB ; null_entity_pointer_message
  0078c	51		 push	 ecx
  0078d	e8 00 00 00 00	 call	 ?process_assert@@YGXPBD0H@Z ; process_assert
  00792	c7 45 8c 00 00
	00 00		 mov	 DWORD PTR tv369[ebp], 0
$LN29@update_acc:
  00799	ba 01 00 00 00	 mov	 edx, 1
  0079e	85 d2		 test	 edx, edx
  007a0	74 09		 je	 SHORT $LN30@update_acc
  007a2	c7 45 88 19 00
	00 00		 mov	 DWORD PTR tv377[ebp], 25 ; 00000019H
  007a9	eb 21		 jmp	 SHORT $LN31@update_acc
$LN30@update_acc:
  007ab	a1 00 00 00 00	 mov	 eax, DWORD PTR ?__LINE__Var@?0??update_acceleration_dynamics@@YGXXZ@4JA
  007b0	83 c0 61	 add	 eax, 97			; 00000061H
  007b3	50		 push	 eax
  007b4	68 00 00 00 00	 push	 OFFSET ??_C@_0FA@IFJNMDIM@c?3?2users?2nhv90?2projects?2eech?2ap@
  007b9	8b 0d 00 00 00
	00		 mov	 ecx, DWORD PTR ?overload_invalid_list_type_message@@3PBDB ; overload_invalid_list_type_message
  007bf	51		 push	 ecx
  007c0	e8 00 00 00 00	 call	 ?process_assert@@YGXPBD0H@Z ; process_assert
  007c5	c7 45 88 00 00
	00 00		 mov	 DWORD PTR tv377[ebp], 0
$LN31@update_acc:
  007cc	6a 19		 push	 25			; 00000019H
  007ce	8b 15 00 00 00
	00		 mov	 edx, DWORD PTR ?gunship_entity@@3PAUENTITY@@A ; gunship_entity
  007d4	52		 push	 edx
  007d5	69 45 8c b4 00
	00 00		 imul	 eax, DWORD PTR tv369[ebp], 180
  007dc	8b 4d 88	 mov	 ecx, DWORD PTR tv377[ebp]
  007df	8b 94 88 00 00
	00 00		 mov	 edx, DWORD PTR ?fn_get_local_entity_parent@@3PAY0CN@P6GPAUENTITY@@PAU1@W4LIST_TYPES@@@ZA[eax+ecx*4]
  007e6	ff d2		 call	 edx
  007e8	85 c0		 test	 eax, eax
  007ea	0f 84 8f 00 00
	00		 je	 $LN36@update_acc
  007f0	83 3d 00 00 00
	00 00		 cmp	 DWORD PTR ?gunship_entity@@3PAUENTITY@@A, 0 ; gunship_entity
  007f7	74 0c		 je	 SHORT $LN32@update_acc
  007f9	a1 00 00 00 00	 mov	 eax, DWORD PTR ?gunship_entity@@3PAUENTITY@@A ; gunship_entity
  007fe	8b 08		 mov	 ecx, DWORD PTR [eax]
  00800	89 4d 84	 mov	 DWORD PTR tv389[ebp], ecx
  00803	eb 21		 jmp	 SHORT $LN33@update_acc
$LN32@update_acc:
  00805	8b 15 00 00 00
	00		 mov	 edx, DWORD PTR ?__LINE__Var@?0??update_acceleration_dynamics@@YGXXZ@4JA
  0080b	83 c2 61	 add	 edx, 97			; 00000061H
  0080e	52		 push	 edx
  0080f	68 00 00 00 00	 push	 OFFSET ??_C@_0FA@IFJNMDIM@c?3?2users?2nhv90?2projects?2eech?2ap@
  00814	a1 00 00 00 00	 mov	 eax, DWORD PTR ?null_entity_pointer_message@@3PBDB ; null_entity_pointer_message
  00819	50		 push	 eax
  0081a	e8 00 00 00 00	 call	 ?process_assert@@YGXPBD0H@Z ; process_assert
  0081f	c7 45 84 00 00
	00 00		 mov	 DWORD PTR tv389[ebp], 0
$LN33@update_acc:
  00826	b9 01 00 00 00	 mov	 ecx, 1
  0082b	85 c9		 test	 ecx, ecx
  0082d	74 09		 je	 SHORT $LN34@update_acc
  0082f	c7 45 80 19 00
	00 00		 mov	 DWORD PTR tv397[ebp], 25 ; 00000019H
  00836	eb 21		 jmp	 SHORT $LN35@update_acc
$LN34@update_acc:
  00838	8b 15 00 00 00
	00		 mov	 edx, DWORD PTR ?__LINE__Var@?0??update_acceleration_dynamics@@YGXXZ@4JA
  0083e	83 c2 61	 add	 edx, 97			; 00000061H
  00841	52		 push	 edx
  00842	68 00 00 00 00	 push	 OFFSET ??_C@_0FA@IFJNMDIM@c?3?2users?2nhv90?2projects?2eech?2ap@
  00847	a1 00 00 00 00	 mov	 eax, DWORD PTR ?overload_invalid_list_type_message@@3PBDB ; overload_invalid_list_type_message
  0084c	50		 push	 eax
  0084d	e8 00 00 00 00	 call	 ?process_assert@@YGXPBD0H@Z ; process_assert
  00852	c7 45 80 00 00
	00 00		 mov	 DWORD PTR tv397[ebp], 0
$LN35@update_acc:
  00859	6a 19		 push	 25			; 00000019H
  0085b	8b 0d 00 00 00
	00		 mov	 ecx, DWORD PTR ?gunship_entity@@3PAUENTITY@@A ; gunship_entity
  00861	51		 push	 ecx
  00862	69 55 84 b4 00
	00 00		 imul	 edx, DWORD PTR tv389[ebp], 180
  00869	8b 45 80	 mov	 eax, DWORD PTR tv397[ebp]
  0086c	8b 8c 82 00 00
	00 00		 mov	 ecx, DWORD PTR ?fn_get_local_entity_parent@@3PAY0CN@P6GPAUENTITY@@PAU1@W4LIST_TYPES@@@ZA[edx+eax*4]
  00873	ff d1		 call	 ecx
  00875	8b 10		 mov	 edx, DWORD PTR [eax]
  00877	89 95 7c ff ff
	ff		 mov	 DWORD PTR tv409[ebp], edx
  0087d	eb 24		 jmp	 SHORT $LN37@update_acc
$LN36@update_acc:
  0087f	a1 00 00 00 00	 mov	 eax, DWORD PTR ?__LINE__Var@?0??update_acceleration_dynamics@@YGXXZ@4JA
  00884	83 c0 61	 add	 eax, 97			; 00000061H
  00887	50		 push	 eax
  00888	68 00 00 00 00	 push	 OFFSET ??_C@_0FA@IFJNMDIM@c?3?2users?2nhv90?2projects?2eech?2ap@
  0088d	8b 0d 00 00 00
	00		 mov	 ecx, DWORD PTR ?null_entity_pointer_message@@3PBDB ; null_entity_pointer_message
  00893	51		 push	 ecx
  00894	e8 00 00 00 00	 call	 ?process_assert@@YGXPBD0H@Z ; process_assert
  00899	c7 85 7c ff ff
	ff 00 00 00 00	 mov	 DWORD PTR tv409[ebp], 0
$LN37@update_acc:
  008a3	ba 01 00 00 00	 mov	 edx, 1
  008a8	85 d2		 test	 edx, edx
  008aa	74 0c		 je	 SHORT $LN38@update_acc
  008ac	c7 85 78 ff ff
	ff 16 00 00 00	 mov	 DWORD PTR tv417[ebp], 22 ; 00000016H
  008b6	eb 24		 jmp	 SHORT $LN39@update_acc
$LN38@update_acc:
  008b8	a1 00 00 00 00	 mov	 eax, DWORD PTR ?__LINE__Var@?0??update_acceleration_dynamics@@YGXXZ@4JA
  008bd	83 c0 61	 add	 eax, 97			; 00000061H
  008c0	50		 push	 eax
  008c1	68 00 00 00 00	 push	 OFFSET ??_C@_0FA@IFJNMDIM@c?3?2users?2nhv90?2projects?2eech?2ap@
  008c6	8b 0d 00 00 00
	00		 mov	 ecx, DWORD PTR ?overload_invalid_list_type_message@@3PBDB ; overload_invalid_list_type_message
  008cc	51		 push	 ecx
  008cd	e8 00 00 00 00	 call	 ?process_assert@@YGXPBD0H@Z ; process_assert
  008d2	c7 85 78 ff ff
	ff 00 00 00 00	 mov	 DWORD PTR tv417[ebp], 0
$LN39@update_acc:
  008dc	6a 16		 push	 22			; 00000016H
  008de	6a 19		 push	 25			; 00000019H
  008e0	8b 15 00 00 00
	00		 mov	 edx, DWORD PTR ?gunship_entity@@3PAUENTITY@@A ; gunship_entity
  008e6	52		 push	 edx
  008e7	69 45 94 b4 00
	00 00		 imul	 eax, DWORD PTR tv428[ebp], 180
  008ee	8b 4d 90	 mov	 ecx, DWORD PTR tv436[ebp]
  008f1	8b 94 88 00 00
	00 00		 mov	 edx, DWORD PTR ?fn_get_local_entity_parent@@3PAY0CN@P6GPAUENTITY@@PAU1@W4LIST_TYPES@@@ZA[eax+ecx*4]
  008f8	ff d2		 call	 edx
  008fa	50		 push	 eax
  008fb	69 85 7c ff ff
	ff b4 00 00 00	 imul	 eax, DWORD PTR tv409[ebp], 180
  00905	8b 8d 78 ff ff
	ff		 mov	 ecx, DWORD PTR tv417[ebp]
  0090b	8b 94 88 00 00
	00 00		 mov	 edx, DWORD PTR ?fn_get_local_entity_parent@@3PAY0CN@P6GPAUENTITY@@PAU1@W4LIST_TYPES@@@ZA[eax+ecx*4]
  00912	ff d2		 call	 edx
  00914	89 45 f8	 mov	 DWORD PTR _keysite$9[ebp], eax

; 2906 : 
; 2907 : 		if (keysite)

  00917	83 7d f8 00	 cmp	 DWORD PTR _keysite$9[ebp], 0
  0091b	0f 84 00 04 00
	00		 je	 $LN13@update_acc

; 2908 : 		{
; 2909 : 
; 2910 : 			if (get_local_entity_int_value (keysite, INT_TYPE_ENTITY_SUB_TYPE) == ENTITY_SUB_TYPE_KEYSITE_ANCHORAGE)

  00921	83 7d f8 00	 cmp	 DWORD PTR _keysite$9[ebp], 0
  00925	74 0a		 je	 SHORT $LN44@update_acc
  00927	8b 45 f8	 mov	 eax, DWORD PTR _keysite$9[ebp]
  0092a	8b 08		 mov	 ecx, DWORD PTR [eax]
  0092c	89 4d 94	 mov	 DWORD PTR tv449[ebp], ecx
  0092f	eb 1d		 jmp	 SHORT $LN45@update_acc
$LN44@update_acc:
  00931	68 5e 0b 00 00	 push	 2910			; 00000b5eH
  00936	68 00 00 00 00	 push	 OFFSET ??_C@_0FA@IFJNMDIM@c?3?2users?2nhv90?2projects?2eech?2ap@
  0093b	8b 15 00 00 00
	00		 mov	 edx, DWORD PTR ?null_entity_pointer_message@@3PBDB ; null_entity_pointer_message
  00941	52		 push	 edx
  00942	e8 00 00 00 00	 call	 ?process_assert@@YGXPBD0H@Z ; process_assert
  00947	c7 45 94 00 00
	00 00		 mov	 DWORD PTR tv449[ebp], 0
$LN45@update_acc:
  0094e	b8 01 00 00 00	 mov	 eax, 1
  00953	85 c0		 test	 eax, eax
  00955	74 09		 je	 SHORT $LN46@update_acc
  00957	c7 45 90 34 00
	00 00		 mov	 DWORD PTR tv456[ebp], 52 ; 00000034H
  0095e	eb 1d		 jmp	 SHORT $LN47@update_acc
$LN46@update_acc:
  00960	68 5e 0b 00 00	 push	 2910			; 00000b5eH
  00965	68 00 00 00 00	 push	 OFFSET ??_C@_0FA@IFJNMDIM@c?3?2users?2nhv90?2projects?2eech?2ap@
  0096a	8b 0d 00 00 00
	00		 mov	 ecx, DWORD PTR ?overload_invalid_int_type_message@@3PBDB ; overload_invalid_int_type_message
  00970	51		 push	 ecx
  00971	e8 00 00 00 00	 call	 ?process_assert@@YGXPBD0H@Z ; process_assert
  00976	c7 45 90 00 00
	00 00		 mov	 DWORD PTR tv456[ebp], 0
$LN47@update_acc:
  0097d	6a 34		 push	 52			; 00000034H
  0097f	8b 55 f8	 mov	 edx, DWORD PTR _keysite$9[ebp]
  00982	52		 push	 edx
  00983	69 45 94 5c 04
	00 00		 imul	 eax, DWORD PTR tv449[ebp], 1116
  0098a	8b 4d 90	 mov	 ecx, DWORD PTR tv456[ebp]
  0098d	8b 94 88 00 00
	00 00		 mov	 edx, DWORD PTR ?fn_get_local_entity_int_value@@3PAY0BBH@P6GHPAUENTITY@@W4INT_TYPES@@@ZA[eax+ecx*4]
  00994	ff d2		 call	 edx
  00996	83 f8 01	 cmp	 eax, 1
  00999	0f 85 82 03 00
	00		 jne	 $LN13@update_acc

; 2911 : 			{
; 2912 : 
; 2913 : 				if (helicopter_within_keysite_area (get_gunship_entity ()))

  0099f	a1 00 00 00 00	 mov	 eax, DWORD PTR ?gunship_entity@@3PAUENTITY@@A ; gunship_entity
  009a4	50		 push	 eax
  009a5	e8 00 00 00 00	 call	 ?helicopter_within_keysite_area@@YGHPAUENTITY@@@Z ; helicopter_within_keysite_area
  009aa	85 c0		 test	 eax, eax
  009ac	0f 84 6f 03 00
	00		 je	 $LN13@update_acc

; 2914 : 				{
; 2915 : 
; 2916 : 
; 2917 : 					if (current_flight_dynamics->position.y < 19.90 + get_local_entity_float_value (get_gunship_entity (), FLOAT_TYPE_CENTRE_OF_GRAVITY_TO_GROUND_DISTANCE))

  009b2	83 3d 00 00 00
	00 00		 cmp	 DWORD PTR ?gunship_entity@@3PAUENTITY@@A, 0 ; gunship_entity
  009b9	74 0c		 je	 SHORT $LN48@update_acc
  009bb	a1 00 00 00 00	 mov	 eax, DWORD PTR ?gunship_entity@@3PAUENTITY@@A ; gunship_entity
  009c0	8b 08		 mov	 ecx, DWORD PTR [eax]
  009c2	89 4d 94	 mov	 DWORD PTR tv473[ebp], ecx
  009c5	eb 1d		 jmp	 SHORT $LN49@update_acc
$LN48@update_acc:
  009c7	68 65 0b 00 00	 push	 2917			; 00000b65H
  009cc	68 00 00 00 00	 push	 OFFSET ??_C@_0FA@IFJNMDIM@c?3?2users?2nhv90?2projects?2eech?2ap@
  009d1	8b 15 00 00 00
	00		 mov	 edx, DWORD PTR ?null_entity_pointer_message@@3PBDB ; null_entity_pointer_message
  009d7	52		 push	 edx
  009d8	e8 00 00 00 00	 call	 ?process_assert@@YGXPBD0H@Z ; process_assert
  009dd	c7 45 94 00 00
	00 00		 mov	 DWORD PTR tv473[ebp], 0
$LN49@update_acc:
  009e4	b8 01 00 00 00	 mov	 eax, 1
  009e9	85 c0		 test	 eax, eax
  009eb	74 09		 je	 SHORT $LN50@update_acc
  009ed	c7 45 90 12 00
	00 00		 mov	 DWORD PTR tv480[ebp], 18 ; 00000012H
  009f4	eb 1d		 jmp	 SHORT $LN51@update_acc
$LN50@update_acc:
  009f6	68 65 0b 00 00	 push	 2917			; 00000b65H
  009fb	68 00 00 00 00	 push	 OFFSET ??_C@_0FA@IFJNMDIM@c?3?2users?2nhv90?2projects?2eech?2ap@
  00a00	8b 0d 00 00 00
	00		 mov	 ecx, DWORD PTR ?overload_invalid_float_type_message@@3PBDB ; overload_invalid_float_type_message
  00a06	51		 push	 ecx
  00a07	e8 00 00 00 00	 call	 ?process_assert@@YGXPBD0H@Z ; process_assert
  00a0c	c7 45 90 00 00
	00 00		 mov	 DWORD PTR tv480[ebp], 0
$LN51@update_acc:
  00a13	6a 12		 push	 18			; 00000012H
  00a15	8b 15 00 00 00
	00		 mov	 edx, DWORD PTR ?gunship_entity@@3PAUENTITY@@A ; gunship_entity
  00a1b	52		 push	 edx
  00a1c	69 45 94 bc 02
	00 00		 imul	 eax, DWORD PTR tv473[ebp], 700
  00a23	8b 4d 90	 mov	 ecx, DWORD PTR tv480[ebp]
  00a26	8b 94 88 00 00
	00 00		 mov	 edx, DWORD PTR ?fn_get_local_entity_float_value@@3PAY0KP@P6GMPAUENTITY@@W4FLOAT_TYPES@@@ZA[eax+ecx*4]
  00a2d	ff d2		 call	 edx
  00a2f	dd 5d 88	 fstp	 QWORD PTR tv864[ebp]
  00a32	f2 0f 10 45 88	 movsd	 xmm0, QWORD PTR tv864[ebp]
  00a37	f2 0f 58 05 00
	00 00 00	 addsd	 xmm0, QWORD PTR __real@4033e66666666666
  00a3f	a1 00 00 00 00	 mov	 eax, DWORD PTR ?current_flight_dynamics@@3PAUDYNAMICS_TYPE@@A ; current_flight_dynamics
  00a44	66 0f 2f 80 b4
	00 00 00	 comisd	 xmm0, QWORD PTR [eax+180]
  00a4c	0f 86 cf 02 00
	00		 jbe	 $LN13@update_acc

; 2918 : 					{
; 2919 : 
; 2920 : 						if (get_local_entity_int_value (get_gunship_entity (), INT_TYPE_AIRBORNE_AIRCRAFT))

  00a52	83 3d 00 00 00
	00 00		 cmp	 DWORD PTR ?gunship_entity@@3PAUENTITY@@A, 0 ; gunship_entity
  00a59	74 0c		 je	 SHORT $LN52@update_acc
  00a5b	a1 00 00 00 00	 mov	 eax, DWORD PTR ?gunship_entity@@3PAUENTITY@@A ; gunship_entity
  00a60	8b 08		 mov	 ecx, DWORD PTR [eax]
  00a62	89 4d 94	 mov	 DWORD PTR tv494[ebp], ecx
  00a65	eb 1d		 jmp	 SHORT $LN53@update_acc
$LN52@update_acc:
  00a67	68 68 0b 00 00	 push	 2920			; 00000b68H
  00a6c	68 00 00 00 00	 push	 OFFSET ??_C@_0FA@IFJNMDIM@c?3?2users?2nhv90?2projects?2eech?2ap@
  00a71	8b 15 00 00 00
	00		 mov	 edx, DWORD PTR ?null_entity_pointer_message@@3PBDB ; null_entity_pointer_message
  00a77	52		 push	 edx
  00a78	e8 00 00 00 00	 call	 ?process_assert@@YGXPBD0H@Z ; process_assert
  00a7d	c7 45 94 00 00
	00 00		 mov	 DWORD PTR tv494[ebp], 0
$LN53@update_acc:
  00a84	b8 01 00 00 00	 mov	 eax, 1
  00a89	85 c0		 test	 eax, eax
  00a8b	74 09		 je	 SHORT $LN54@update_acc
  00a8d	c7 45 90 04 00
	00 00		 mov	 DWORD PTR tv501[ebp], 4
  00a94	eb 1d		 jmp	 SHORT $LN55@update_acc
$LN54@update_acc:
  00a96	68 68 0b 00 00	 push	 2920			; 00000b68H
  00a9b	68 00 00 00 00	 push	 OFFSET ??_C@_0FA@IFJNMDIM@c?3?2users?2nhv90?2projects?2eech?2ap@
  00aa0	8b 0d 00 00 00
	00		 mov	 ecx, DWORD PTR ?overload_invalid_int_type_message@@3PBDB ; overload_invalid_int_type_message
  00aa6	51		 push	 ecx
  00aa7	e8 00 00 00 00	 call	 ?process_assert@@YGXPBD0H@Z ; process_assert
  00aac	c7 45 90 00 00
	00 00		 mov	 DWORD PTR tv501[ebp], 0
$LN55@update_acc:
  00ab3	6a 04		 push	 4
  00ab5	8b 15 00 00 00
	00		 mov	 edx, DWORD PTR ?gunship_entity@@3PAUENTITY@@A ; gunship_entity
  00abb	52		 push	 edx
  00abc	69 45 94 5c 04
	00 00		 imul	 eax, DWORD PTR tv494[ebp], 1116
  00ac3	8b 4d 90	 mov	 ecx, DWORD PTR tv501[ebp]
  00ac6	8b 94 88 00 00
	00 00		 mov	 edx, DWORD PTR ?fn_get_local_entity_int_value@@3PAY0BBH@P6GHPAUENTITY@@W4INT_TYPES@@@ZA[eax+ecx*4]
  00acd	ff d2		 call	 edx
  00acf	85 c0		 test	 eax, eax
  00ad1	0f 84 93 00 00
	00		 je	 $LN14@update_acc

; 2921 : 						{
; 2922 : 
; 2923 : 							set_client_server_entity_int_value (get_gunship_entity (), INT_TYPE_OPERATIONAL_STATE, OPERATIONAL_STATE_TAXIING);

  00ad7	83 3d 00 00 00
	00 00		 cmp	 DWORD PTR ?gunship_entity@@3PAUENTITY@@A, 0 ; gunship_entity
  00ade	74 0c		 je	 SHORT $LN56@update_acc
  00ae0	a1 00 00 00 00	 mov	 eax, DWORD PTR ?gunship_entity@@3PAUENTITY@@A ; gunship_entity
  00ae5	8b 08		 mov	 ecx, DWORD PTR [eax]
  00ae7	89 4d 94	 mov	 DWORD PTR tv514[ebp], ecx
  00aea	eb 21		 jmp	 SHORT $LN57@update_acc
$LN56@update_acc:
  00aec	8b 15 00 00 00
	00		 mov	 edx, DWORD PTR ?__LINE__Var@?0??update_acceleration_dynamics@@YGXXZ@4JA
  00af2	83 c2 73	 add	 edx, 115		; 00000073H
  00af5	52		 push	 edx
  00af6	68 00 00 00 00	 push	 OFFSET ??_C@_0FA@IFJNMDIM@c?3?2users?2nhv90?2projects?2eech?2ap@
  00afb	a1 00 00 00 00	 mov	 eax, DWORD PTR ?null_entity_pointer_message@@3PBDB ; null_entity_pointer_message
  00b00	50		 push	 eax
  00b01	e8 00 00 00 00	 call	 ?process_assert@@YGXPBD0H@Z ; process_assert
  00b06	c7 45 94 00 00
	00 00		 mov	 DWORD PTR tv514[ebp], 0
$LN57@update_acc:
  00b0d	b9 01 00 00 00	 mov	 ecx, 1
  00b12	85 c9		 test	 ecx, ecx
  00b14	74 09		 je	 SHORT $LN58@update_acc
  00b16	c7 45 90 97 00
	00 00		 mov	 DWORD PTR tv522[ebp], 151 ; 00000097H
  00b1d	eb 21		 jmp	 SHORT $LN59@update_acc
$LN58@update_acc:
  00b1f	8b 15 00 00 00
	00		 mov	 edx, DWORD PTR ?__LINE__Var@?0??update_acceleration_dynamics@@YGXXZ@4JA
  00b25	83 c2 73	 add	 edx, 115		; 00000073H
  00b28	52		 push	 edx
  00b29	68 00 00 00 00	 push	 OFFSET ??_C@_0FA@IFJNMDIM@c?3?2users?2nhv90?2projects?2eech?2ap@
  00b2e	a1 00 00 00 00	 mov	 eax, DWORD PTR ?overload_invalid_int_type_message@@3PBDB ; overload_invalid_int_type_message
  00b33	50		 push	 eax
  00b34	e8 00 00 00 00	 call	 ?process_assert@@YGXPBD0H@Z ; process_assert
  00b39	c7 45 90 00 00
	00 00		 mov	 DWORD PTR tv522[ebp], 0
$LN59@update_acc:
  00b40	6a 0b		 push	 11			; 0000000bH
  00b42	68 97 00 00 00	 push	 151			; 00000097H
  00b47	8b 0d 00 00 00
	00		 mov	 ecx, DWORD PTR ?gunship_entity@@3PAUENTITY@@A ; gunship_entity
  00b4d	51		 push	 ecx
  00b4e	69 55 94 b8 08
	00 00		 imul	 edx, DWORD PTR tv514[ebp], 2232
  00b55	8b 45 90	 mov	 eax, DWORD PTR tv522[ebp]
  00b58	8d 8c c2 00 00
	00 00		 lea	 ecx, DWORD PTR ?fn_set_client_server_entity_int_value@@3PAY1BBH@1P6GXPAUENTITY@@W4INT_TYPES@@H@ZA[edx+eax*8]
  00b5f	8b 15 00 00 00
	00		 mov	 edx, DWORD PTR ?system_comms_model@@3W4COMMS_MODEL_TYPES@@A ; system_comms_model
  00b65	8b 04 91	 mov	 eax, DWORD PTR [ecx+edx*4]
  00b68	ff d0		 call	 eax
$LN14@update_acc:

; 2924 : 						}
; 2925 : 
; 2926 : 						current_flight_dynamics->position.y = bound (current_flight_dynamics->position.y, 19.90 + get_local_entity_float_value (get_gunship_entity (), FLOAT_TYPE_CENTRE_OF_GRAVITY_TO_GROUND_DISTANCE), MAX_MAP_Y);

  00b6a	83 3d 00 00 00
	00 00		 cmp	 DWORD PTR ?gunship_entity@@3PAUENTITY@@A, 0 ; gunship_entity
  00b71	74 0c		 je	 SHORT $LN60@update_acc
  00b73	a1 00 00 00 00	 mov	 eax, DWORD PTR ?gunship_entity@@3PAUENTITY@@A ; gunship_entity
  00b78	8b 08		 mov	 ecx, DWORD PTR [eax]
  00b7a	89 4d 94	 mov	 DWORD PTR tv540[ebp], ecx
  00b7d	eb 21		 jmp	 SHORT $LN61@update_acc
$LN60@update_acc:
  00b7f	8b 15 00 00 00
	00		 mov	 edx, DWORD PTR ?__LINE__Var@?0??update_acceleration_dynamics@@YGXXZ@4JA
  00b85	83 c2 76	 add	 edx, 118		; 00000076H
  00b88	52		 push	 edx
  00b89	68 00 00 00 00	 push	 OFFSET ??_C@_0FA@IFJNMDIM@c?3?2users?2nhv90?2projects?2eech?2ap@
  00b8e	a1 00 00 00 00	 mov	 eax, DWORD PTR ?null_entity_pointer_message@@3PBDB ; null_entity_pointer_message
  00b93	50		 push	 eax
  00b94	e8 00 00 00 00	 call	 ?process_assert@@YGXPBD0H@Z ; process_assert
  00b99	c7 45 94 00 00
	00 00		 mov	 DWORD PTR tv540[ebp], 0
$LN61@update_acc:
  00ba0	b9 01 00 00 00	 mov	 ecx, 1
  00ba5	85 c9		 test	 ecx, ecx
  00ba7	74 09		 je	 SHORT $LN62@update_acc
  00ba9	c7 45 90 12 00
	00 00		 mov	 DWORD PTR tv548[ebp], 18 ; 00000012H
  00bb0	eb 21		 jmp	 SHORT $LN63@update_acc
$LN62@update_acc:
  00bb2	8b 15 00 00 00
	00		 mov	 edx, DWORD PTR ?__LINE__Var@?0??update_acceleration_dynamics@@YGXXZ@4JA
  00bb8	83 c2 76	 add	 edx, 118		; 00000076H
  00bbb	52		 push	 edx
  00bbc	68 00 00 00 00	 push	 OFFSET ??_C@_0FA@IFJNMDIM@c?3?2users?2nhv90?2projects?2eech?2ap@
  00bc1	a1 00 00 00 00	 mov	 eax, DWORD PTR ?overload_invalid_float_type_message@@3PBDB ; overload_invalid_float_type_message
  00bc6	50		 push	 eax
  00bc7	e8 00 00 00 00	 call	 ?process_assert@@YGXPBD0H@Z ; process_assert
  00bcc	c7 45 90 00 00
	00 00		 mov	 DWORD PTR tv548[ebp], 0
$LN63@update_acc:
  00bd3	6a 12		 push	 18			; 00000012H
  00bd5	8b 0d 00 00 00
	00		 mov	 ecx, DWORD PTR ?gunship_entity@@3PAUENTITY@@A ; gunship_entity
  00bdb	51		 push	 ecx
  00bdc	69 55 94 bc 02
	00 00		 imul	 edx, DWORD PTR tv540[ebp], 700
  00be3	8b 45 90	 mov	 eax, DWORD PTR tv548[ebp]
  00be6	8b 8c 82 00 00
	00 00		 mov	 ecx, DWORD PTR ?fn_get_local_entity_float_value@@3PAY0KP@P6GMPAUENTITY@@W4FLOAT_TYPES@@@ZA[edx+eax*4]
  00bed	ff d1		 call	 ecx
  00bef	dd 5d 88	 fstp	 QWORD PTR tv901[ebp]
  00bf2	f2 0f 10 45 88	 movsd	 xmm0, QWORD PTR tv901[ebp]
  00bf7	f2 0f 58 05 00
	00 00 00	 addsd	 xmm0, QWORD PTR __real@4033e66666666666
  00bff	8b 15 00 00 00
	00		 mov	 edx, DWORD PTR ?current_flight_dynamics@@3PAUDYNAMICS_TYPE@@A ; current_flight_dynamics
  00c05	66 0f 2f 82 b4
	00 00 00	 comisd	 xmm0, QWORD PTR [edx+180]
  00c0d	0f 86 a5 00 00
	00		 jbe	 $LN70@update_acc
  00c13	83 3d 00 00 00
	00 00		 cmp	 DWORD PTR ?gunship_entity@@3PAUENTITY@@A, 0 ; gunship_entity
  00c1a	74 0c		 je	 SHORT $LN64@update_acc
  00c1c	a1 00 00 00 00	 mov	 eax, DWORD PTR ?gunship_entity@@3PAUENTITY@@A ; gunship_entity
  00c21	8b 08		 mov	 ecx, DWORD PTR [eax]
  00c23	89 4d 84	 mov	 DWORD PTR tv563[ebp], ecx
  00c26	eb 21		 jmp	 SHORT $LN65@update_acc
$LN64@update_acc:
  00c28	8b 15 00 00 00
	00		 mov	 edx, DWORD PTR ?__LINE__Var@?0??update_acceleration_dynamics@@YGXXZ@4JA
  00c2e	83 c2 76	 add	 edx, 118		; 00000076H
  00c31	52		 push	 edx
  00c32	68 00 00 00 00	 push	 OFFSET ??_C@_0FA@IFJNMDIM@c?3?2users?2nhv90?2projects?2eech?2ap@
  00c37	a1 00 00 00 00	 mov	 eax, DWORD PTR ?null_entity_pointer_message@@3PBDB ; null_entity_pointer_message
  00c3c	50		 push	 eax
  00c3d	e8 00 00 00 00	 call	 ?process_assert@@YGXPBD0H@Z ; process_assert
  00c42	c7 45 84 00 00
	00 00		 mov	 DWORD PTR tv563[ebp], 0
$LN65@update_acc:
  00c49	b9 01 00 00 00	 mov	 ecx, 1
  00c4e	85 c9		 test	 ecx, ecx
  00c50	74 09		 je	 SHORT $LN66@update_acc
  00c52	c7 45 80 12 00
	00 00		 mov	 DWORD PTR tv571[ebp], 18 ; 00000012H
  00c59	eb 21		 jmp	 SHORT $LN67@update_acc
$LN66@update_acc:
  00c5b	8b 15 00 00 00
	00		 mov	 edx, DWORD PTR ?__LINE__Var@?0??update_acceleration_dynamics@@YGXXZ@4JA
  00c61	83 c2 76	 add	 edx, 118		; 00000076H
  00c64	52		 push	 edx
  00c65	68 00 00 00 00	 push	 OFFSET ??_C@_0FA@IFJNMDIM@c?3?2users?2nhv90?2projects?2eech?2ap@
  00c6a	a1 00 00 00 00	 mov	 eax, DWORD PTR ?overload_invalid_float_type_message@@3PBDB ; overload_invalid_float_type_message
  00c6f	50		 push	 eax
  00c70	e8 00 00 00 00	 call	 ?process_assert@@YGXPBD0H@Z ; process_assert
  00c75	c7 45 80 00 00
	00 00		 mov	 DWORD PTR tv571[ebp], 0
$LN67@update_acc:
  00c7c	6a 12		 push	 18			; 00000012H
  00c7e	8b 0d 00 00 00
	00		 mov	 ecx, DWORD PTR ?gunship_entity@@3PAUENTITY@@A ; gunship_entity
  00c84	51		 push	 ecx
  00c85	69 55 84 bc 02
	00 00		 imul	 edx, DWORD PTR tv563[ebp], 700
  00c8c	8b 45 80	 mov	 eax, DWORD PTR tv571[ebp]
  00c8f	8b 8c 82 00 00
	00 00		 mov	 ecx, DWORD PTR ?fn_get_local_entity_float_value@@3PAY0KP@P6GMPAUENTITY@@W4FLOAT_TYPES@@@ZA[edx+eax*4]
  00c96	ff d1		 call	 ecx
  00c98	dd 9d 78 ff ff
	ff		 fstp	 QWORD PTR tv918[ebp]
  00c9e	f2 0f 10 85 78
	ff ff ff	 movsd	 xmm0, QWORD PTR tv918[ebp]
  00ca6	f2 0f 58 05 00
	00 00 00	 addsd	 xmm0, QWORD PTR __real@4033e66666666666
  00cae	f2 0f 11 85 70
	ff ff ff	 movsd	 QWORD PTR tv587[ebp], xmm0
  00cb6	eb 53		 jmp	 SHORT $LN71@update_acc
$LN70@update_acc:
  00cb8	f3 0f 5a 05 40
	00 00 00	 cvtss2sd xmm0, DWORD PTR ?world_map@@3UWORLD_MAP_DATA@@A+64
  00cc0	8b 15 00 00 00
	00		 mov	 edx, DWORD PTR ?current_flight_dynamics@@3PAUDYNAMICS_TYPE@@A ; current_flight_dynamics
  00cc6	f2 0f 10 8a b4
	00 00 00	 movsd	 xmm1, QWORD PTR [edx+180]
  00cce	66 0f 2f c8	 comisd	 xmm1, xmm0
  00cd2	76 12		 jbe	 SHORT $LN68@update_acc
  00cd4	f3 0f 5a 05 40
	00 00 00	 cvtss2sd xmm0, DWORD PTR ?world_map@@3UWORLD_MAP_DATA@@A+64
  00cdc	f2 0f 11 85 68
	ff ff ff	 movsd	 QWORD PTR tv586[ebp], xmm0
  00ce4	eb 15		 jmp	 SHORT $LN69@update_acc
$LN68@update_acc:
  00ce6	a1 00 00 00 00	 mov	 eax, DWORD PTR ?current_flight_dynamics@@3PAUDYNAMICS_TYPE@@A ; current_flight_dynamics
  00ceb	f2 0f 10 80 b4
	00 00 00	 movsd	 xmm0, QWORD PTR [eax+180]
  00cf3	f2 0f 11 85 68
	ff ff ff	 movsd	 QWORD PTR tv586[ebp], xmm0
$LN69@update_acc:
  00cfb	f2 0f 10 85 68
	ff ff ff	 movsd	 xmm0, QWORD PTR tv586[ebp]
  00d03	f2 0f 11 85 70
	ff ff ff	 movsd	 QWORD PTR tv587[ebp], xmm0
$LN71@update_acc:
  00d0b	8b 0d 00 00 00
	00		 mov	 ecx, DWORD PTR ?current_flight_dynamics@@3PAUDYNAMICS_TYPE@@A ; current_flight_dynamics
  00d11	f2 0f 10 85 70
	ff ff ff	 movsd	 xmm0, QWORD PTR tv587[ebp]
  00d19	f2 0f 11 81 b4
	00 00 00	 movsd	 QWORD PTR [ecx+180], xmm0
$LN13@update_acc:

; 2927 : 					}
; 2928 : 				}
; 2929 : 			}
; 2930 : 		}
; 2931 : 	}
; 2932 : 
; 2933 : 	current_flight_dynamics->altitude.value = current_flight_dynamics->position.y;

  00d21	a1 00 00 00 00	 mov	 eax, DWORD PTR ?current_flight_dynamics@@3PAUDYNAMICS_TYPE@@A ; current_flight_dynamics
  00d26	f2 0f 5a 80 b4
	00 00 00	 cvtsd2ss xmm0, QWORD PTR [eax+180]
  00d2e	8b 0d 00 00 00
	00		 mov	 ecx, DWORD PTR ?current_flight_dynamics@@3PAUDYNAMICS_TYPE@@A ; current_flight_dynamics
  00d34	f3 0f 11 81 d4
	21 00 00	 movss	 DWORD PTR [ecx+8660], xmm0

; 2934 : 
; 2935 : 	current_flight_dynamics->altitude.min = get_local_entity_float_value (get_gunship_entity (), FLOAT_TYPE_TERRAIN_ELEVATION);

  00d3c	83 3d 00 00 00
	00 00		 cmp	 DWORD PTR ?gunship_entity@@3PAUENTITY@@A, 0 ; gunship_entity
  00d43	74 0c		 je	 SHORT $LN72@update_acc
  00d45	a1 00 00 00 00	 mov	 eax, DWORD PTR ?gunship_entity@@3PAUENTITY@@A ; gunship_entity
  00d4a	8b 08		 mov	 ecx, DWORD PTR [eax]
  00d4c	89 4d 94	 mov	 DWORD PTR tv601[ebp], ecx
  00d4f	eb 21		 jmp	 SHORT $LN73@update_acc
$LN72@update_acc:
  00d51	8b 15 00 00 00
	00		 mov	 edx, DWORD PTR ?__LINE__Var@?0??update_acceleration_dynamics@@YGXXZ@4JA
  00d57	83 c2 7f	 add	 edx, 127		; 0000007fH
  00d5a	52		 push	 edx
  00d5b	68 00 00 00 00	 push	 OFFSET ??_C@_0FA@IFJNMDIM@c?3?2users?2nhv90?2projects?2eech?2ap@
  00d60	a1 00 00 00 00	 mov	 eax, DWORD PTR ?null_entity_pointer_message@@3PBDB ; null_entity_pointer_message
  00d65	50		 push	 eax
  00d66	e8 00 00 00 00	 call	 ?process_assert@@YGXPBD0H@Z ; process_assert
  00d6b	c7 45 94 00 00
	00 00		 mov	 DWORD PTR tv601[ebp], 0
$LN73@update_acc:
  00d72	b9 01 00 00 00	 mov	 ecx, 1
  00d77	85 c9		 test	 ecx, ecx
  00d79	74 09		 je	 SHORT $LN74@update_acc
  00d7b	c7 45 90 8d 00
	00 00		 mov	 DWORD PTR tv609[ebp], 141 ; 0000008dH
  00d82	eb 21		 jmp	 SHORT $LN75@update_acc
$LN74@update_acc:
  00d84	8b 15 00 00 00
	00		 mov	 edx, DWORD PTR ?__LINE__Var@?0??update_acceleration_dynamics@@YGXXZ@4JA
  00d8a	83 c2 7f	 add	 edx, 127		; 0000007fH
  00d8d	52		 push	 edx
  00d8e	68 00 00 00 00	 push	 OFFSET ??_C@_0FA@IFJNMDIM@c?3?2users?2nhv90?2projects?2eech?2ap@
  00d93	a1 00 00 00 00	 mov	 eax, DWORD PTR ?overload_invalid_float_type_message@@3PBDB ; overload_invalid_float_type_message
  00d98	50		 push	 eax
  00d99	e8 00 00 00 00	 call	 ?process_assert@@YGXPBD0H@Z ; process_assert
  00d9e	c7 45 90 00 00
	00 00		 mov	 DWORD PTR tv609[ebp], 0
$LN75@update_acc:
  00da5	68 8d 00 00 00	 push	 141			; 0000008dH
  00daa	8b 0d 00 00 00
	00		 mov	 ecx, DWORD PTR ?gunship_entity@@3PAUENTITY@@A ; gunship_entity
  00db0	51		 push	 ecx
  00db1	69 55 94 bc 02
	00 00		 imul	 edx, DWORD PTR tv601[ebp], 700
  00db8	8b 45 90	 mov	 eax, DWORD PTR tv609[ebp]
  00dbb	8b 8c 82 00 00
	00 00		 mov	 ecx, DWORD PTR ?fn_get_local_entity_float_value@@3PAY0KP@P6GMPAUENTITY@@W4FLOAT_TYPES@@@ZA[edx+eax*4]
  00dc2	ff d1		 call	 ecx
  00dc4	8b 15 00 00 00
	00		 mov	 edx, DWORD PTR ?current_flight_dynamics@@3PAUDYNAMICS_TYPE@@A ; current_flight_dynamics
  00dca	d9 9a dc 21 00
	00		 fstp	 DWORD PTR [edx+8668]

; 2936 : }

  00dd0	5f		 pop	 edi
  00dd1	5e		 pop	 esi
  00dd2	5b		 pop	 ebx
  00dd3	8b e5		 mov	 esp, ebp
  00dd5	5d		 pop	 ebp
  00dd6	c3		 ret	 0
?update_acceleration_dynamics@@YGXXZ ENDP		; update_acceleration_dynamics
_TEXT	ENDS
; Function compile flags: /Odtp /ZI
; File c:\users\nhv90\projects\eech\aphavoc\source\gunships\dynamics\comanche\cm_dyn.c
;	COMDAT ?update_air_density_dynamics@@YGXXZ
_TEXT	SEGMENT
_Amin$ = -8						; size = 4
_Amax$ = -4						; size = 4
?update_air_density_dynamics@@YGXXZ PROC		; update_air_density_dynamics, COMDAT

; 2790 : {

  00000	55		 push	 ebp
  00001	8b ec		 mov	 ebp, esp
  00003	83 ec 48	 sub	 esp, 72			; 00000048H
  00006	53		 push	 ebx
  00007	56		 push	 esi
  00008	57		 push	 edi

; 2791 : 
; 2792 : 	float
; 2793 : 		Amax,
; 2794 : 		Amin;
; 2795 : 
; 2796 : 	Amax = current_flight_dynamics->air_density.max;

  00009	a1 00 00 00 00	 mov	 eax, DWORD PTR ?current_flight_dynamics@@3PAUDYNAMICS_TYPE@@A ; current_flight_dynamics
  0000e	f3 0f 10 80 50
	21 00 00	 movss	 xmm0, DWORD PTR [eax+8528]
  00016	f3 0f 11 45 fc	 movss	 DWORD PTR _Amax$[ebp], xmm0

; 2797 : 
; 2798 : 	Amin = current_flight_dynamics->air_density.min;

  0001b	a1 00 00 00 00	 mov	 eax, DWORD PTR ?current_flight_dynamics@@3PAUDYNAMICS_TYPE@@A ; current_flight_dynamics
  00020	f3 0f 10 80 4c
	21 00 00	 movss	 xmm0, DWORD PTR [eax+8524]
  00028	f3 0f 11 45 f8	 movss	 DWORD PTR _Amin$[ebp], xmm0

; 2799 : 
; 2800 : 	current_flight_dynamics->air_density.value = Amax - (((Amax - Amin) / 10000) * current_flight_dynamics->position.y);

  0002d	f3 0f 5a 45 fc	 cvtss2sd xmm0, DWORD PTR _Amax$[ebp]
  00032	f3 0f 10 4d fc	 movss	 xmm1, DWORD PTR _Amax$[ebp]
  00037	f3 0f 5c 4d f8	 subss	 xmm1, DWORD PTR _Amin$[ebp]
  0003c	f3 0f 5e 0d 00
	00 00 00	 divss	 xmm1, DWORD PTR __real@461c4000
  00044	f3 0f 5a c9	 cvtss2sd xmm1, xmm1
  00048	a1 00 00 00 00	 mov	 eax, DWORD PTR ?current_flight_dynamics@@3PAUDYNAMICS_TYPE@@A ; current_flight_dynamics
  0004d	f2 0f 59 88 b4
	00 00 00	 mulsd	 xmm1, QWORD PTR [eax+180]
  00055	f2 0f 5c c1	 subsd	 xmm0, xmm1
  00059	f2 0f 5a c0	 cvtsd2ss xmm0, xmm0
  0005d	8b 0d 00 00 00
	00		 mov	 ecx, DWORD PTR ?current_flight_dynamics@@3PAUDYNAMICS_TYPE@@A ; current_flight_dynamics
  00063	f3 0f 11 81 44
	21 00 00	 movss	 DWORD PTR [ecx+8516], xmm0

; 2801 : }

  0006b	5f		 pop	 edi
  0006c	5e		 pop	 esi
  0006d	5b		 pop	 ebx
  0006e	8b e5		 mov	 esp, ebp
  00070	5d		 pop	 ebp
  00071	c3		 ret	 0
?update_air_density_dynamics@@YGXXZ ENDP		; update_air_density_dynamics
_TEXT	ENDS
; Function compile flags: /Odtp /ZI
; File c:\users\nhv90\projects\eech\aphavoc\source\gunships\dynamics\comanche\cm_dyn.c
;	COMDAT ?update_power_dynamics@@YGXXZ
_TEXT	SEGMENT
tv286 = -112						; size = 4
tv262 = -112						; size = 4
tv334 = -108						; size = 4
tv332 = -108						; size = 4
tv278 = -104						; size = 4
tv255 = -104						; size = 4
$T1 = -100						; size = 4
_total_velocity$ = -32					; size = 4
_Bmax$ = -28						; size = 4
_Vmax$ = -24						; size = 4
_blade_pitch$ = -20					; size = 4
_induced_max$ = -16					; size = 4
_induced_min$ = -12					; size = 4
_profile_max$ = -8					; size = 4
_profile_min$ = -4					; size = 4
?update_power_dynamics@@YGXXZ PROC			; update_power_dynamics, COMDAT

; 2716 : {

  00000	55		 push	 ebp
  00001	8b ec		 mov	 ebp, esp
  00003	83 ec 70	 sub	 esp, 112		; 00000070H
  00006	53		 push	 ebx
  00007	56		 push	 esi
  00008	57		 push	 edi

; 2717 : 
; 2718 : 	float
; 2719 : 		profile_min = 20.0,

  00009	f3 0f 10 05 00
	00 00 00	 movss	 xmm0, DWORD PTR __real@41a00000
  00011	f3 0f 11 45 fc	 movss	 DWORD PTR _profile_min$[ebp], xmm0

; 2720 : 		profile_max = 40.0,

  00016	f3 0f 10 05 00
	00 00 00	 movss	 xmm0, DWORD PTR __real@42200000
  0001e	f3 0f 11 45 f8	 movss	 DWORD PTR _profile_max$[ebp], xmm0

; 2721 : 		induced_min = 50.0,

  00023	f3 0f 10 05 00
	00 00 00	 movss	 xmm0, DWORD PTR __real@42480000
  0002b	f3 0f 11 45 f4	 movss	 DWORD PTR _induced_min$[ebp], xmm0

; 2722 : 		induced_max = 30.0,

  00030	f3 0f 10 05 00
	00 00 00	 movss	 xmm0, DWORD PTR __real@41f00000
  00038	f3 0f 11 45 f0	 movss	 DWORD PTR _induced_max$[ebp], xmm0

; 2723 : 		blade_pitch,
; 2724 : 		Vmax,
; 2725 : 		Bmax,
; 2726 : 		total_velocity;
; 2727 : 
; 2728 : 	current_flight_dynamics->power_avaliable.value = current_flight_dynamics->main_rotor_thrust.value * ((current_flight_dynamics->main_rotor_induced_air.value) - (current_flight_dynamics->velocity_y.value / 10.0));

  0003d	a1 00 00 00 00	 mov	 eax, DWORD PTR ?current_flight_dynamics@@3PAUDYNAMICS_TYPE@@A ; current_flight_dynamics
  00042	f3 0f 5a 80 cc
	1d 00 00	 cvtss2sd xmm0, DWORD PTR [eax+7628]
  0004a	8b 0d 00 00 00
	00		 mov	 ecx, DWORD PTR ?current_flight_dynamics@@3PAUDYNAMICS_TYPE@@A ; current_flight_dynamics
  00050	f3 0f 5a 89 6c
	1d 00 00	 cvtss2sd xmm1, DWORD PTR [ecx+7532]
  00058	8b 15 00 00 00
	00		 mov	 edx, DWORD PTR ?current_flight_dynamics@@3PAUDYNAMICS_TYPE@@A ; current_flight_dynamics
  0005e	f3 0f 5a 92 84
	20 00 00	 cvtss2sd xmm2, DWORD PTR [edx+8324]
  00066	f2 0f 5e 15 00
	00 00 00	 divsd	 xmm2, QWORD PTR __real@4024000000000000
  0006e	f2 0f 5c ca	 subsd	 xmm1, xmm2
  00072	f2 0f 59 c1	 mulsd	 xmm0, xmm1
  00076	f2 0f 5a c0	 cvtsd2ss xmm0, xmm0
  0007a	a1 00 00 00 00	 mov	 eax, DWORD PTR ?current_flight_dynamics@@3PAUDYNAMICS_TYPE@@A ; current_flight_dynamics
  0007f	f3 0f 11 80 dc
	1f 00 00	 movss	 DWORD PTR [eax+8156], xmm0

; 2729 : 
; 2730 : 	total_velocity = (fabs (current_flight_dynamics->velocity_x.value) + fabs (current_flight_dynamics->velocity_z.value));

  00087	a1 00 00 00 00	 mov	 eax, DWORD PTR ?current_flight_dynamics@@3PAUDYNAMICS_TYPE@@A ; current_flight_dynamics
  0008c	51		 push	 ecx
  0008d	f3 0f 10 80 6c
	20 00 00	 movss	 xmm0, DWORD PTR [eax+8300]
  00095	f3 0f 11 04 24	 movss	 DWORD PTR [esp], xmm0
  0009a	e8 00 00 00 00	 call	 ?fabs@@YGMM@Z		; fabs
  0009f	d9 5d 98	 fstp	 DWORD PTR tv255[ebp]
  000a2	f3 0f 10 45 98	 movss	 xmm0, DWORD PTR tv255[ebp]
  000a7	8b 0d 00 00 00
	00		 mov	 ecx, DWORD PTR ?current_flight_dynamics@@3PAUDYNAMICS_TYPE@@A ; current_flight_dynamics
  000ad	51		 push	 ecx
  000ae	f3 0f 10 89 9c
	20 00 00	 movss	 xmm1, DWORD PTR [ecx+8348]
  000b6	f3 0f 11 0c 24	 movss	 DWORD PTR [esp], xmm1
  000bb	f3 0f 11 45 94	 movss	 DWORD PTR tv332[ebp], xmm0
  000c0	e8 00 00 00 00	 call	 ?fabs@@YGMM@Z		; fabs
  000c5	d9 5d 90	 fstp	 DWORD PTR tv262[ebp]
  000c8	f3 0f 10 45 94	 movss	 xmm0, DWORD PTR tv332[ebp]
  000cd	f3 0f 58 45 90	 addss	 xmm0, DWORD PTR tv262[ebp]
  000d2	f3 0f 11 45 e0	 movss	 DWORD PTR _total_velocity$[ebp], xmm0

; 2731 : 
; 2732 : 	blade_pitch = current_flight_dynamics->main_blade_pitch.value;

  000d7	a1 00 00 00 00	 mov	 eax, DWORD PTR ?current_flight_dynamics@@3PAUDYNAMICS_TYPE@@A ; current_flight_dynamics
  000dc	f3 0f 10 80 8c
	1e 00 00	 movss	 xmm0, DWORD PTR [eax+7820]
  000e4	f3 0f 11 45 ec	 movss	 DWORD PTR _blade_pitch$[ebp], xmm0

; 2733 : 
; 2734 : 	Bmax = current_flight_dynamics->main_blade_pitch.max;

  000e9	a1 00 00 00 00	 mov	 eax, DWORD PTR ?current_flight_dynamics@@3PAUDYNAMICS_TYPE@@A ; current_flight_dynamics
  000ee	f3 0f 10 80 98
	1e 00 00	 movss	 xmm0, DWORD PTR [eax+7832]
  000f6	f3 0f 11 45 e4	 movss	 DWORD PTR _Bmax$[ebp], xmm0

; 2735 : 
; 2736 : 	Vmax = (current_flight_dynamics->velocity_x.max + current_flight_dynamics->velocity_z.max);

  000fb	a1 00 00 00 00	 mov	 eax, DWORD PTR ?current_flight_dynamics@@3PAUDYNAMICS_TYPE@@A ; current_flight_dynamics
  00100	8b 0d 00 00 00
	00		 mov	 ecx, DWORD PTR ?current_flight_dynamics@@3PAUDYNAMICS_TYPE@@A ; current_flight_dynamics
  00106	f3 0f 10 80 78
	20 00 00	 movss	 xmm0, DWORD PTR [eax+8312]
  0010e	f3 0f 58 81 a8
	20 00 00	 addss	 xmm0, DWORD PTR [ecx+8360]
  00116	f3 0f 11 45 e8	 movss	 DWORD PTR _Vmax$[ebp], xmm0

; 2737 : 
; 2738 : 	// parasitic drag = square of velocity
; 2739 : 
; 2740 : 	if (total_velocity)

  0011b	f3 0f 10 45 e0	 movss	 xmm0, DWORD PTR _total_velocity$[ebp]
  00120	0f 2e 05 00 00
	00 00		 ucomiss xmm0, DWORD PTR __real@00000000
  00127	9f		 lahf
  00128	f6 c4 44	 test	 ah, 68			; 00000044H
  0012b	0f 8b 89 00 00
	00		 jnp	 $LN2@update_pow

; 2741 : 	{
; 2742 : 
; 2743 : 		current_flight_dynamics->power_parasite.value = (current_flight_dynamics->power_avaliable.value * pow (total_velocity, 2) / pow (Vmax, 2)) / 10;

  00131	6a 02		 push	 2
  00133	51		 push	 ecx
  00134	f3 0f 10 45 e0	 movss	 xmm0, DWORD PTR _total_velocity$[ebp]
  00139	f3 0f 11 04 24	 movss	 DWORD PTR [esp], xmm0
  0013e	e8 00 00 00 00	 call	 ?pow@@YGMMH@Z		; pow
  00143	d9 5d 98	 fstp	 DWORD PTR tv278[ebp]
  00146	a1 00 00 00 00	 mov	 eax, DWORD PTR ?current_flight_dynamics@@3PAUDYNAMICS_TYPE@@A ; current_flight_dynamics
  0014b	f3 0f 10 45 98	 movss	 xmm0, DWORD PTR tv278[ebp]
  00150	f3 0f 59 80 dc
	1f 00 00	 mulss	 xmm0, DWORD PTR [eax+8156]
  00158	6a 02		 push	 2
  0015a	51		 push	 ecx
  0015b	f3 0f 10 4d e8	 movss	 xmm1, DWORD PTR _Vmax$[ebp]
  00160	f3 0f 11 0c 24	 movss	 DWORD PTR [esp], xmm1
  00165	f3 0f 11 45 94	 movss	 DWORD PTR tv334[ebp], xmm0
  0016a	e8 00 00 00 00	 call	 ?pow@@YGMMH@Z		; pow
  0016f	d9 5d 90	 fstp	 DWORD PTR tv286[ebp]
  00172	f3 0f 10 45 94	 movss	 xmm0, DWORD PTR tv334[ebp]
  00177	f3 0f 5e 45 90	 divss	 xmm0, DWORD PTR tv286[ebp]
  0017c	f3 0f 5e 05 00
	00 00 00	 divss	 xmm0, DWORD PTR __real@41200000
  00184	8b 0d 00 00 00
	00		 mov	 ecx, DWORD PTR ?current_flight_dynamics@@3PAUDYNAMICS_TYPE@@A ; current_flight_dynamics
  0018a	f3 0f 11 81 3c
	20 00 00	 movss	 DWORD PTR [ecx+8252], xmm0

; 2744 : 
; 2745 : 		// rotor profile drag = linear from min to max across V
; 2746 : 
; 2747 : 		current_flight_dynamics->power_profile.value = ((profile_max - profile_min) / Vmax) * total_velocity + profile_min;

  00192	f3 0f 10 45 f8	 movss	 xmm0, DWORD PTR _profile_max$[ebp]
  00197	f3 0f 5c 45 fc	 subss	 xmm0, DWORD PTR _profile_min$[ebp]
  0019c	f3 0f 5e 45 e8	 divss	 xmm0, DWORD PTR _Vmax$[ebp]
  001a1	f3 0f 59 45 e0	 mulss	 xmm0, DWORD PTR _total_velocity$[ebp]
  001a6	f3 0f 58 45 fc	 addss	 xmm0, DWORD PTR _profile_min$[ebp]
  001ab	a1 00 00 00 00	 mov	 eax, DWORD PTR ?current_flight_dynamics@@3PAUDYNAMICS_TYPE@@A ; current_flight_dynamics
  001b0	f3 0f 11 80 24
	20 00 00	 movss	 DWORD PTR [eax+8228], xmm0

; 2748 : 	}
; 2749 : 	else

  001b8	eb 22		 jmp	 SHORT $LN3@update_pow
$LN2@update_pow:

; 2750 : 	{
; 2751 : 		current_flight_dynamics->power_parasite.value = 0;

  001ba	a1 00 00 00 00	 mov	 eax, DWORD PTR ?current_flight_dynamics@@3PAUDYNAMICS_TYPE@@A ; current_flight_dynamics
  001bf	0f 57 c0	 xorps	 xmm0, xmm0
  001c2	f3 0f 11 80 3c
	20 00 00	 movss	 DWORD PTR [eax+8252], xmm0

; 2752 : 
; 2753 : 		current_flight_dynamics->power_profile.value = profile_min;

  001ca	a1 00 00 00 00	 mov	 eax, DWORD PTR ?current_flight_dynamics@@3PAUDYNAMICS_TYPE@@A ; current_flight_dynamics
  001cf	f3 0f 10 45 fc	 movss	 xmm0, DWORD PTR _profile_min$[ebp]
  001d4	f3 0f 11 80 24
	20 00 00	 movss	 DWORD PTR [eax+8228], xmm0
$LN3@update_pow:

; 2754 : 	}
; 2755 : 
; 2756 : 	// rotor induced power = linear wrt blade angle
; 2757 : 
; 2758 : 	current_flight_dynamics->power_induced.value = ((induced_max - induced_min) / Bmax) * blade_pitch + induced_min;

  001dc	f3 0f 10 45 f0	 movss	 xmm0, DWORD PTR _induced_max$[ebp]
  001e1	f3 0f 5c 45 f4	 subss	 xmm0, DWORD PTR _induced_min$[ebp]
  001e6	f3 0f 5e 45 e4	 divss	 xmm0, DWORD PTR _Bmax$[ebp]
  001eb	f3 0f 59 45 ec	 mulss	 xmm0, DWORD PTR _blade_pitch$[ebp]
  001f0	f3 0f 58 45 f4	 addss	 xmm0, DWORD PTR _induced_min$[ebp]
  001f5	a1 00 00 00 00	 mov	 eax, DWORD PTR ?current_flight_dynamics@@3PAUDYNAMICS_TYPE@@A ; current_flight_dynamics
  001fa	f3 0f 11 80 0c
	20 00 00	 movss	 DWORD PTR [eax+8204], xmm0

; 2759 : 
; 2760 : //tg
; 2761 : 	// induced power decreases upto 60kts and then increases. 100% @ 0kts -> 50% @ 60 kts-> 100% @ max kts
; 2762 : 
; 2763 : 	if (current_flight_dynamics->velocity_z.value < knots_to_metres_per_second (60.0))

  00202	a1 00 00 00 00	 mov	 eax, DWORD PTR ?current_flight_dynamics@@3PAUDYNAMICS_TYPE@@A ; current_flight_dynamics
  00207	f3 0f 5a 80 9c
	20 00 00	 cvtss2sd xmm0, DWORD PTR [eax+8348]
  0020f	f2 0f 10 0d 00
	00 00 00	 movsd	 xmm1, QWORD PTR __real@403eec14e0000000
  00217	66 0f 2f c8	 comisd	 xmm1, xmm0
  0021b	76 54		 jbe	 SHORT $LN4@update_pow

; 2764 : 	{
; 2765 : 
; 2766 : 		current_flight_dynamics->power_induced.value -= (current_flight_dynamics->power_induced.value / 2.0) * (current_flight_dynamics->velocity_z.value / knots_to_metres_per_second (60.0));

  0021d	a1 00 00 00 00	 mov	 eax, DWORD PTR ?current_flight_dynamics@@3PAUDYNAMICS_TYPE@@A ; current_flight_dynamics
  00222	f3 0f 5a 80 0c
	20 00 00	 cvtss2sd xmm0, DWORD PTR [eax+8204]
  0022a	f2 0f 5e 05 00
	00 00 00	 divsd	 xmm0, QWORD PTR __real@4000000000000000
  00232	8b 0d 00 00 00
	00		 mov	 ecx, DWORD PTR ?current_flight_dynamics@@3PAUDYNAMICS_TYPE@@A ; current_flight_dynamics
  00238	f3 0f 5a 89 9c
	20 00 00	 cvtss2sd xmm1, DWORD PTR [ecx+8348]
  00240	f2 0f 5e 0d 00
	00 00 00	 divsd	 xmm1, QWORD PTR __real@403eec14e0000000
  00248	f2 0f 59 c1	 mulsd	 xmm0, xmm1
  0024c	8b 15 00 00 00
	00		 mov	 edx, DWORD PTR ?current_flight_dynamics@@3PAUDYNAMICS_TYPE@@A ; current_flight_dynamics
  00252	f3 0f 5a 8a 0c
	20 00 00	 cvtss2sd xmm1, DWORD PTR [edx+8204]
  0025a	f2 0f 5c c8	 subsd	 xmm1, xmm0
  0025e	f2 0f 5a c1	 cvtsd2ss xmm0, xmm1
  00262	a1 00 00 00 00	 mov	 eax, DWORD PTR ?current_flight_dynamics@@3PAUDYNAMICS_TYPE@@A ; current_flight_dynamics
  00267	f3 0f 11 80 0c
	20 00 00	 movss	 DWORD PTR [eax+8204], xmm0

; 2767 : 	}
; 2768 : 	else

  0026f	eb 76		 jmp	 SHORT $LN5@update_pow
$LN4@update_pow:

; 2769 : 	{
; 2770 : 
; 2771 : 		current_flight_dynamics->power_induced.value -= (current_flight_dynamics->power_induced.value / 2.0) * ((current_flight_dynamics->velocity_z.max - current_flight_dynamics->velocity_z.value) + knots_to_metres_per_second (60.0)) / (current_flight_dynamics->velocity_z.max);

  00271	a1 00 00 00 00	 mov	 eax, DWORD PTR ?current_flight_dynamics@@3PAUDYNAMICS_TYPE@@A ; current_flight_dynamics
  00276	f3 0f 5a 80 0c
	20 00 00	 cvtss2sd xmm0, DWORD PTR [eax+8204]
  0027e	f2 0f 5e 05 00
	00 00 00	 divsd	 xmm0, QWORD PTR __real@4000000000000000
  00286	8b 0d 00 00 00
	00		 mov	 ecx, DWORD PTR ?current_flight_dynamics@@3PAUDYNAMICS_TYPE@@A ; current_flight_dynamics
  0028c	8b 15 00 00 00
	00		 mov	 edx, DWORD PTR ?current_flight_dynamics@@3PAUDYNAMICS_TYPE@@A ; current_flight_dynamics
  00292	f3 0f 10 89 a8
	20 00 00	 movss	 xmm1, DWORD PTR [ecx+8360]
  0029a	f3 0f 5c 8a 9c
	20 00 00	 subss	 xmm1, DWORD PTR [edx+8348]
  002a2	f3 0f 5a c9	 cvtss2sd xmm1, xmm1
  002a6	f2 0f 58 0d 00
	00 00 00	 addsd	 xmm1, QWORD PTR __real@403eec14e0000000
  002ae	f2 0f 59 c1	 mulsd	 xmm0, xmm1
  002b2	a1 00 00 00 00	 mov	 eax, DWORD PTR ?current_flight_dynamics@@3PAUDYNAMICS_TYPE@@A ; current_flight_dynamics
  002b7	f3 0f 5a 88 a8
	20 00 00	 cvtss2sd xmm1, DWORD PTR [eax+8360]
  002bf	f2 0f 5e c1	 divsd	 xmm0, xmm1
  002c3	8b 0d 00 00 00
	00		 mov	 ecx, DWORD PTR ?current_flight_dynamics@@3PAUDYNAMICS_TYPE@@A ; current_flight_dynamics
  002c9	f3 0f 5a 89 0c
	20 00 00	 cvtss2sd xmm1, DWORD PTR [ecx+8204]
  002d1	f2 0f 5c c8	 subsd	 xmm1, xmm0
  002d5	f2 0f 5a c1	 cvtsd2ss xmm0, xmm1
  002d9	8b 15 00 00 00
	00		 mov	 edx, DWORD PTR ?current_flight_dynamics@@3PAUDYNAMICS_TYPE@@A ; current_flight_dynamics
  002df	f3 0f 11 82 0c
	20 00 00	 movss	 DWORD PTR [edx+8204], xmm0
$LN5@update_pow:

; 2772 : 	}
; 2773 : 
; 2774 : 	current_flight_dynamics->power_required.value = current_flight_dynamics->power_induced.value + current_flight_dynamics->power_profile.value + current_flight_dynamics->power_parasite.value;

  002e7	a1 00 00 00 00	 mov	 eax, DWORD PTR ?current_flight_dynamics@@3PAUDYNAMICS_TYPE@@A ; current_flight_dynamics
  002ec	8b 0d 00 00 00
	00		 mov	 ecx, DWORD PTR ?current_flight_dynamics@@3PAUDYNAMICS_TYPE@@A ; current_flight_dynamics
  002f2	f3 0f 10 80 0c
	20 00 00	 movss	 xmm0, DWORD PTR [eax+8204]
  002fa	f3 0f 58 81 24
	20 00 00	 addss	 xmm0, DWORD PTR [ecx+8228]
  00302	8b 15 00 00 00
	00		 mov	 edx, DWORD PTR ?current_flight_dynamics@@3PAUDYNAMICS_TYPE@@A ; current_flight_dynamics
  00308	f3 0f 58 82 3c
	20 00 00	 addss	 xmm0, DWORD PTR [edx+8252]
  00310	a1 00 00 00 00	 mov	 eax, DWORD PTR ?current_flight_dynamics@@3PAUDYNAMICS_TYPE@@A ; current_flight_dynamics
  00315	f3 0f 11 80 f4
	1f 00 00	 movss	 DWORD PTR [eax+8180], xmm0

; 2775 : 
; 2776 : 	current_flight_dynamics->power_required.value /= 100;

  0031d	a1 00 00 00 00	 mov	 eax, DWORD PTR ?current_flight_dynamics@@3PAUDYNAMICS_TYPE@@A ; current_flight_dynamics
  00322	f3 0f 10 80 f4
	1f 00 00	 movss	 xmm0, DWORD PTR [eax+8180]
  0032a	f3 0f 5e 05 00
	00 00 00	 divss	 xmm0, DWORD PTR __real@42c80000
  00332	8b 0d 00 00 00
	00		 mov	 ecx, DWORD PTR ?current_flight_dynamics@@3PAUDYNAMICS_TYPE@@A ; current_flight_dynamics
  00338	f3 0f 11 81 f4
	1f 00 00	 movss	 DWORD PTR [ecx+8180], xmm0

; 2777 : 
; 2778 : 	current_flight_dynamics->power_required.value *= current_flight_dynamics->power_avaliable.max;

  00340	a1 00 00 00 00	 mov	 eax, DWORD PTR ?current_flight_dynamics@@3PAUDYNAMICS_TYPE@@A ; current_flight_dynamics
  00345	8b 0d 00 00 00
	00		 mov	 ecx, DWORD PTR ?current_flight_dynamics@@3PAUDYNAMICS_TYPE@@A ; current_flight_dynamics
  0034b	f3 0f 10 80 f4
	1f 00 00	 movss	 xmm0, DWORD PTR [eax+8180]
  00353	f3 0f 59 81 e8
	1f 00 00	 mulss	 xmm0, DWORD PTR [ecx+8168]
  0035b	8b 15 00 00 00
	00		 mov	 edx, DWORD PTR ?current_flight_dynamics@@3PAUDYNAMICS_TYPE@@A ; current_flight_dynamics
  00361	f3 0f 11 82 f4
	1f 00 00	 movss	 DWORD PTR [edx+8180], xmm0

; 2779 : 
; 2780 : 	current_flight_dynamics->power_surplus.value = current_flight_dynamics->power_avaliable.value - current_flight_dynamics->power_required.value;

  00369	a1 00 00 00 00	 mov	 eax, DWORD PTR ?current_flight_dynamics@@3PAUDYNAMICS_TYPE@@A ; current_flight_dynamics
  0036e	8b 0d 00 00 00
	00		 mov	 ecx, DWORD PTR ?current_flight_dynamics@@3PAUDYNAMICS_TYPE@@A ; current_flight_dynamics
  00374	f3 0f 10 80 dc
	1f 00 00	 movss	 xmm0, DWORD PTR [eax+8156]
  0037c	f3 0f 5c 81 f4
	1f 00 00	 subss	 xmm0, DWORD PTR [ecx+8180]
  00384	8b 15 00 00 00
	00		 mov	 edx, DWORD PTR ?current_flight_dynamics@@3PAUDYNAMICS_TYPE@@A ; current_flight_dynamics
  0038a	f3 0f 11 82 54
	20 00 00	 movss	 DWORD PTR [edx+8276], xmm0

; 2781 : 
; 2782 : 	current_flight_dynamics->power_surplus.value = max (current_flight_dynamics->power_surplus.value, 0.0f);

  00392	0f 57 c0	 xorps	 xmm0, xmm0
  00395	f3 0f 11 45 9c	 movss	 DWORD PTR $T1[ebp], xmm0
  0039a	8d 45 9c	 lea	 eax, DWORD PTR $T1[ebp]
  0039d	50		 push	 eax
  0039e	8b 0d 00 00 00
	00		 mov	 ecx, DWORD PTR ?current_flight_dynamics@@3PAUDYNAMICS_TYPE@@A ; current_flight_dynamics
  003a4	81 c1 54 20 00
	00		 add	 ecx, 8276		; 00002054H
  003aa	51		 push	 ecx
  003ab	e8 00 00 00 00	 call	 ??$max@M@std@@YGABMABM0@Z ; std::max<float>
  003b0	8b 15 00 00 00
	00		 mov	 edx, DWORD PTR ?current_flight_dynamics@@3PAUDYNAMICS_TYPE@@A ; current_flight_dynamics
  003b6	8b 00		 mov	 eax, DWORD PTR [eax]
  003b8	89 82 54 20 00
	00		 mov	 DWORD PTR [edx+8276], eax

; 2783 : }

  003be	5f		 pop	 edi
  003bf	5e		 pop	 esi
  003c0	5b		 pop	 ebx
  003c1	8b e5		 mov	 esp, ebp
  003c3	5d		 pop	 ebp
  003c4	c3		 ret	 0
?update_power_dynamics@@YGXXZ ENDP			; update_power_dynamics
_TEXT	ENDS
; Function compile flags: /Odtp /ZI
; File c:\users\nhv90\projects\eech\aphavoc\source\gunships\dynamics\comanche\cm_dyn.c
;	COMDAT ?update_attitude_dynamics@@YGXXZ
_TEXT	SEGMENT
tv3309 = -820						; size = 8
tv3214 = -820						; size = 8
tv2930 = -820						; size = 8
tv1924 = -820						; size = 8
tv1843 = -820						; size = 8
tv1760 = -820						; size = 8
tv1677 = -820						; size = 8
tv1594 = -820						; size = 8
tv1510 = -820						; size = 8
tv1421 = -820						; size = 8
tv1254 = -820						; size = 8
tv1109 = -820						; size = 8
tv1018 = -820						; size = 8
tv411 = -820						; size = 8
tv3336 = -816						; size = 4
tv3275 = -816						; size = 4
tv90 = -816						; size = 4
tv3889 = -812						; size = 4
tv3887 = -812						; size = 8
tv3885 = -812						; size = 4
tv3883 = -812						; size = 8
tv3881 = -812						; size = 8
tv3877 = -812						; size = 8
tv3808 = -812						; size = 8
tv3740 = -812						; size = 8
tv3363 = -812						; size = 8
tv3140 = -812						; size = 8
tv3049 = -812						; size = 8
tv3011 = -812						; size = 4
tv2955 = -812						; size = 8
tv2944 = -812						; size = 8
tv2851 = -812						; size = 8
tv2842 = -812						; size = 8
tv2699 = -812						; size = 8
tv2107 = -812						; size = 4
tv1925 = -812						; size = 8
tv1844 = -812						; size = 8
tv1761 = -812						; size = 8
tv1678 = -812						; size = 8
tv1595 = -812						; size = 8
tv1511 = -812						; size = 8
tv1422 = -812						; size = 8
tv1255 = -812						; size = 8
tv1110 = -812						; size = 8
tv1065 = -812						; size = 4
tv1019 = -812						; size = 8
tv412 = -812						; size = 8
tv393 = -812						; size = 4
tv278 = -812						; size = 4
tv256 = -812						; size = 4
tv179 = -812						; size = 4
tv83 = -812						; size = 4
tv3879 = -808						; size = 4
tv3696 = -808						; size = 4
tv3676 = -808						; size = 4
tv3669 = -808						; size = 4
tv3663 = -808						; size = 4
tv3642 = -808						; size = 4
tv3615 = -808						; size = 4
tv3579 = -808						; size = 4
tv3552 = -808						; size = 4
tv3516 = -808						; size = 4
tv3489 = -808						; size = 4
tv3453 = -808						; size = 4
tv3426 = -808						; size = 4
tv3384 = -808						; size = 4
tv3326 = -808						; size = 4
tv3265 = -808						; size = 4
tv3243 = -808						; size = 4
tv2825 = -808						; size = 4
tv2100 = -808						; size = 4
tv1066 = -808						; size = 4
tv386 = -808						; size = 4
tv293 = -808						; size = 4
tv270 = -808						; size = 4
tv248 = -808						; size = 4
tv172 = -808						; size = 4
tv129 = -808						; size = 4
tv75 = -808						; size = 4
$T1 = -804						; size = 4
$T2 = -800						; size = 4
$T3 = -796						; size = 4
$T4 = -792						; size = 4
$T5 = -788						; size = 4
$T6 = -784						; size = 4
$T7 = -780						; size = 4
$T8 = -776						; size = 4
$T9 = -772						; size = 4
$T10 = -768						; size = 4
$T11 = -764						; size = 4
$T12 = -760						; size = 4
$T13 = -756						; size = 4
$T14 = -752						; size = 8
$T15 = -744						; size = 8
$T16 = -736						; size = 4
$T17 = -732						; size = 8
$T18 = -724						; size = 8
$T19 = -716						; size = 8
$T20 = -708						; size = 8
_position$21 = -572					; size = 12
_direction$22 = -560					; size = 12
_force$23 = -548					; size = 4
_velocity_factor$24 = -544				; size = 4
_vibration_limit$25 = -540				; size = 4
_air_over_rotor$26 = -536				; size = 4
_tuning_value$27 = -532					; size = 4
_tuning_value$28 = -528					; size = 4
_tuning_value$29 = -524					; size = 4
_tuning_value$30 = -520					; size = 4
_over_all_g_e_force$31 = -516				; size = 4
_world_position$32 = -512				; size = 12
_terrain_info$33 = -500					; size = 44
_altitude$34 = -456					; size = 4
_Fmax$35 = -452						; size = 4
_sideways_drag$36 = -448				; size = 4
_drag$37 = -444						; size = 4
_Fmax$38 = -440						; size = 4
_drag$39 = -436						; size = 4
_sign$40 = -432						; size = 4
_drag$41 = -428						; size = 4
_a$42 = -424						; size = 4
_unnormalised_direction$43 = -420			; size = 12
_drag$44 = -408						; size = 4
_scaling$45 = -404					; size = 4
_a$46 = -400						; size = 4
_rotor_drag$47 = -396					; size = 4
_rotor_induced$48 = -392				; size = 4
_rotor_parasitic$49 = -388				; size = 4
_rotor_friction$50 = -384				; size = 4
_u$51 = -380						; size = 4
_a$52 = -376						; size = 4
_blade_pitch$53 = -372					; size = 4
_engine_response$54 = -368				; size = 4
_i$55 = -364						; size = 4
_p$56 = -360						; size = 4
_f$57 = -356						; size = 4
_normalised_world_motion_vector$58 = -352		; size = 12
_motion_vector_pitch$59 = -340				; size = 4
_vel$60 = -336						; size = 4
_force$61 = -332					; size = 4
_normalised_model_motion_vector$62 = -328		; size = 12
_position$63 = -316					; size = 12
_wind$64 = -304						; size = 12
_temp_model_motion_vector$65 = -292			; size = 12
_mass_percentage$66 = -280				; size = 4
_model_motion_vector$ = -276				; size = 12
_world_motion_vector$ = -264				; size = 12
_rotor_direction$ = -252				; size = 12
_direction$ = -240					; size = 12
_position$ = -228					; size = 12
_model_wind$ = -216					; size = 12
_wind$ = -204						; size = 12
_main_blade_pitch_value$ = -192				; size = 4
_horizontal_velocity$ = -188				; size = 4
_velocity_z_value$ = -184				; size = 4
_main_blade_y_pitch_value$ = -180			; size = 4
_main_blade_x_pitch_value$ = -176			; size = 4
_pitch_value$ = -172					; size = 4
_roll_inertia_value$ = -168				; size = 4
_pitch_inertia_value$ = -164				; size = 4
_heading_inertia_value$ = -160				; size = 4
_tail_rotor_induced_air_value$ = -156			; size = 4
_main_rotor_roll_angle_value$ = -152			; size = 4
_main_rotor_rpm_value$ = -148				; size = 4
_main_rotor_pitch_angle_value$ = -144			; size = 4
_main_rotor_induced_air_value$ = -140			; size = 4
_tail_angular_force$ = -136				; size = 4
_main_angular_force$ = -132				; size = 4
_reaction_force$ = -128					; size = 4
_right_rotor_force$ = -124				; size = 4
_left_rotor_force$ = -120				; size = 4
_back_rotor_force$ = -116				; size = 4
_front_rotor_force$ = -112				; size = 4
_rotor_force$ = -108					; size = 4
_force$ = -104						; size = 4
_edge_rotor_split$ = -100				; size = 4
_rotor_split$ = -96					; size = 4
_motion_vector_magnitude$ = -92				; size = 4
_rotor_edge_value$ = -88				; size = 4
_angle$ = -84						; size = 4
_rotor_radius$ = -80					; size = 4
_attitude$ = -76					; size = 36
_rotor_attitude$ = -40					; size = 36
_model_landed$ = -4					; size = 4
?update_attitude_dynamics@@YGXXZ PROC			; update_attitude_dynamics, COMDAT

; 1246 : {

  00000	55		 push	 ebp
  00001	8b ec		 mov	 ebp, esp
  00003	81 ec 34 03 00
	00		 sub	 esp, 820		; 00000334H
  00009	53		 push	 ebx
  0000a	56		 push	 esi
  0000b	57		 push	 edi

; 1247 : 
; 1248 : 	int
; 1249 : 		model_landed;
; 1250 : 
; 1251 : 	matrix3x3
; 1252 : 		rotor_attitude,
; 1253 : 		attitude;
; 1254 : 
; 1255 : 	float
; 1256 : 		rotor_radius = current_flight_dynamics->main_rotor_diameter.value * 0.5,

  0000c	a1 00 00 00 00	 mov	 eax, DWORD PTR ?current_flight_dynamics@@3PAUDYNAMICS_TYPE@@A ; current_flight_dynamics
  00011	f3 0f 5a 80 9c
	1d 00 00	 cvtss2sd xmm0, DWORD PTR [eax+7580]
  00019	f2 0f 59 05 00
	00 00 00	 mulsd	 xmm0, QWORD PTR __real@3fe0000000000000
  00021	f2 0f 5a c0	 cvtsd2ss xmm0, xmm0
  00025	f3 0f 11 45 b0	 movss	 DWORD PTR _rotor_radius$[ebp], xmm0

; 1257 : 		angle,
; 1258 : 		rotor_edge_value,
; 1259 : 		motion_vector_magnitude,
; 1260 : 		rotor_split,
; 1261 : 		edge_rotor_split,
; 1262 : 		force,
; 1263 : 		rotor_force,
; 1264 : 		front_rotor_force,
; 1265 : 		back_rotor_force,
; 1266 : 		left_rotor_force,
; 1267 : 		right_rotor_force,
; 1268 : 		reaction_force,
; 1269 : 		main_angular_force,
; 1270 : 		tail_angular_force;
; 1271 : 
; 1272 : 	float
; 1273 : 		main_rotor_induced_air_value,
; 1274 : 		main_rotor_pitch_angle_value,
; 1275 : 		main_rotor_rpm_value,
; 1276 : 		main_rotor_roll_angle_value,
; 1277 : 		tail_rotor_induced_air_value,
; 1278 : 		heading_inertia_value,
; 1279 : 		pitch_inertia_value,
; 1280 : 		roll_inertia_value,
; 1281 : 		pitch_value,
; 1282 : 		main_blade_x_pitch_value,
; 1283 : 		main_blade_y_pitch_value,
; 1284 : 		velocity_z_value,
; 1285 : 		horizontal_velocity,
; 1286 : 		main_blade_pitch_value;
; 1287 : 
; 1288 : 	vec3d
; 1289 : 		wind,
; 1290 : 		model_wind,
; 1291 : 		position,
; 1292 : 		direction,
; 1293 : 		rotor_direction,
; 1294 : 		world_motion_vector,
; 1295 : 		model_motion_vector;
; 1296 : 
; 1297 : 	model_landed = !get_local_entity_int_value (get_gunship_entity (), INT_TYPE_AIRBORNE_AIRCRAFT);

  0002a	83 3d 00 00 00
	00 00		 cmp	 DWORD PTR ?gunship_entity@@3PAUENTITY@@A, 0 ; gunship_entity
  00031	74 0f		 je	 SHORT $LN85@update_att
  00033	a1 00 00 00 00	 mov	 eax, DWORD PTR ?gunship_entity@@3PAUENTITY@@A ; gunship_entity
  00038	8b 08		 mov	 ecx, DWORD PTR [eax]
  0003a	89 8d d8 fc ff
	ff		 mov	 DWORD PTR tv75[ebp], ecx
  00040	eb 24		 jmp	 SHORT $LN86@update_att
$LN85@update_att:
  00042	8b 15 00 00 00
	00		 mov	 edx, DWORD PTR ?__LINE__Var@?0??update_attitude_dynamics@@YGXXZ@4JA
  00048	83 c2 33	 add	 edx, 51			; 00000033H
  0004b	52		 push	 edx
  0004c	68 00 00 00 00	 push	 OFFSET ??_C@_0FA@IFJNMDIM@c?3?2users?2nhv90?2projects?2eech?2ap@
  00051	a1 00 00 00 00	 mov	 eax, DWORD PTR ?null_entity_pointer_message@@3PBDB ; null_entity_pointer_message
  00056	50		 push	 eax
  00057	e8 00 00 00 00	 call	 ?process_assert@@YGXPBD0H@Z ; process_assert
  0005c	c7 85 d8 fc ff
	ff 00 00 00 00	 mov	 DWORD PTR tv75[ebp], 0
$LN86@update_att:
  00066	b9 01 00 00 00	 mov	 ecx, 1
  0006b	85 c9		 test	 ecx, ecx
  0006d	74 0c		 je	 SHORT $LN87@update_att
  0006f	c7 85 d4 fc ff
	ff 04 00 00 00	 mov	 DWORD PTR tv83[ebp], 4
  00079	eb 24		 jmp	 SHORT $LN88@update_att
$LN87@update_att:
  0007b	8b 15 00 00 00
	00		 mov	 edx, DWORD PTR ?__LINE__Var@?0??update_attitude_dynamics@@YGXXZ@4JA
  00081	83 c2 33	 add	 edx, 51			; 00000033H
  00084	52		 push	 edx
  00085	68 00 00 00 00	 push	 OFFSET ??_C@_0FA@IFJNMDIM@c?3?2users?2nhv90?2projects?2eech?2ap@
  0008a	a1 00 00 00 00	 mov	 eax, DWORD PTR ?overload_invalid_int_type_message@@3PBDB ; overload_invalid_int_type_message
  0008f	50		 push	 eax
  00090	e8 00 00 00 00	 call	 ?process_assert@@YGXPBD0H@Z ; process_assert
  00095	c7 85 d4 fc ff
	ff 00 00 00 00	 mov	 DWORD PTR tv83[ebp], 0
$LN88@update_att:
  0009f	6a 04		 push	 4
  000a1	8b 0d 00 00 00
	00		 mov	 ecx, DWORD PTR ?gunship_entity@@3PAUENTITY@@A ; gunship_entity
  000a7	51		 push	 ecx
  000a8	69 95 d8 fc ff
	ff 5c 04 00 00	 imul	 edx, DWORD PTR tv75[ebp], 1116
  000b2	8b 85 d4 fc ff
	ff		 mov	 eax, DWORD PTR tv83[ebp]
  000b8	8b 8c 82 00 00
	00 00		 mov	 ecx, DWORD PTR ?fn_get_local_entity_int_value@@3PAY0BBH@P6GHPAUENTITY@@W4INT_TYPES@@@ZA[edx+eax*4]
  000bf	ff d1		 call	 ecx
  000c1	85 c0		 test	 eax, eax
  000c3	75 0c		 jne	 SHORT $LN89@update_att
  000c5	c7 85 d0 fc ff
	ff 01 00 00 00	 mov	 DWORD PTR tv90[ebp], 1
  000cf	eb 0a		 jmp	 SHORT $LN90@update_att
$LN89@update_att:
  000d1	c7 85 d0 fc ff
	ff 00 00 00 00	 mov	 DWORD PTR tv90[ebp], 0
$LN90@update_att:
  000db	8b 95 d0 fc ff
	ff		 mov	 edx, DWORD PTR tv90[ebp]
  000e1	89 55 fc	 mov	 DWORD PTR _model_landed$[ebp], edx

; 1298 : 
; 1299 : 	get_local_entity_attitude_matrix (get_gunship_entity (), attitude);

  000e4	83 3d 00 00 00
	00 00		 cmp	 DWORD PTR ?gunship_entity@@3PAUENTITY@@A, 0 ; gunship_entity
  000eb	74 0f		 je	 SHORT $LN91@update_att
  000ed	a1 00 00 00 00	 mov	 eax, DWORD PTR ?gunship_entity@@3PAUENTITY@@A ; gunship_entity
  000f2	8b 08		 mov	 ecx, DWORD PTR [eax]
  000f4	89 8d d8 fc ff
	ff		 mov	 DWORD PTR tv129[ebp], ecx
  000fa	eb 24		 jmp	 SHORT $LN92@update_att
$LN91@update_att:
  000fc	8b 15 00 00 00
	00		 mov	 edx, DWORD PTR ?__LINE__Var@?0??update_attitude_dynamics@@YGXXZ@4JA
  00102	83 c2 35	 add	 edx, 53			; 00000035H
  00105	52		 push	 edx
  00106	68 00 00 00 00	 push	 OFFSET ??_C@_0FA@IFJNMDIM@c?3?2users?2nhv90?2projects?2eech?2ap@
  0010b	a1 00 00 00 00	 mov	 eax, DWORD PTR ?null_entity_pointer_message@@3PBDB ; null_entity_pointer_message
  00110	50		 push	 eax
  00111	e8 00 00 00 00	 call	 ?process_assert@@YGXPBD0H@Z ; process_assert
  00116	c7 85 d8 fc ff
	ff 00 00 00 00	 mov	 DWORD PTR tv129[ebp], 0
$LN92@update_att:
  00120	8d 4d b4	 lea	 ecx, DWORD PTR _attitude$[ebp]
  00123	51		 push	 ecx
  00124	8b 15 00 00 00
	00		 mov	 edx, DWORD PTR ?gunship_entity@@3PAUENTITY@@A ; gunship_entity
  0012a	52		 push	 edx
  0012b	8b 85 d8 fc ff
	ff		 mov	 eax, DWORD PTR tv129[ebp]
  00131	8b 0c 85 00 00
	00 00		 mov	 ecx, DWORD PTR ?fn_get_local_entity_attitude_matrix@@3PAP6GXPAUENTITY@@QAY02M@ZA[eax*4]
  00138	ff d1		 call	 ecx

; 1300 : 
; 1301 : 	world_motion_vector = current_flight_dynamics->world_motion_vector;

  0013a	a1 00 00 00 00	 mov	 eax, DWORD PTR ?current_flight_dynamics@@3PAUDYNAMICS_TYPE@@A ; current_flight_dynamics
  0013f	05 3c 1c 00 00	 add	 eax, 7228		; 00001c3cH
  00144	8b 08		 mov	 ecx, DWORD PTR [eax]
  00146	89 8d f8 fe ff
	ff		 mov	 DWORD PTR _world_motion_vector$[ebp], ecx
  0014c	8b 50 04	 mov	 edx, DWORD PTR [eax+4]
  0014f	89 95 fc fe ff
	ff		 mov	 DWORD PTR _world_motion_vector$[ebp+4], edx
  00155	8b 40 08	 mov	 eax, DWORD PTR [eax+8]
  00158	89 85 00 ff ff
	ff		 mov	 DWORD PTR _world_motion_vector$[ebp+8], eax

; 1302 : 
; 1303 : 	model_motion_vector = current_flight_dynamics->model_motion_vector;

  0015e	a1 00 00 00 00	 mov	 eax, DWORD PTR ?current_flight_dynamics@@3PAUDYNAMICS_TYPE@@A ; current_flight_dynamics
  00163	05 30 1c 00 00	 add	 eax, 7216		; 00001c30H
  00168	8b 08		 mov	 ecx, DWORD PTR [eax]
  0016a	89 8d ec fe ff
	ff		 mov	 DWORD PTR _model_motion_vector$[ebp], ecx
  00170	8b 50 04	 mov	 edx, DWORD PTR [eax+4]
  00173	89 95 f0 fe ff
	ff		 mov	 DWORD PTR _model_motion_vector$[ebp+4], edx
  00179	8b 40 08	 mov	 eax, DWORD PTR [eax+8]
  0017c	89 85 f4 fe ff
	ff		 mov	 DWORD PTR _model_motion_vector$[ebp+8], eax

; 1304 : 
; 1305 : 	//
; 1306 : 	// allow for wind
; 1307 : 	//
; 1308 : 
; 1309 : 	position.x = current_flight_dynamics->position.x;

  00182	a1 00 00 00 00	 mov	 eax, DWORD PTR ?current_flight_dynamics@@3PAUDYNAMICS_TYPE@@A ; current_flight_dynamics
  00187	f2 0f 5a 80 ac
	00 00 00	 cvtsd2ss xmm0, QWORD PTR [eax+172]
  0018f	f3 0f 11 85 1c
	ff ff ff	 movss	 DWORD PTR _position$[ebp], xmm0

; 1310 : 	position.y = current_flight_dynamics->position.y;

  00197	a1 00 00 00 00	 mov	 eax, DWORD PTR ?current_flight_dynamics@@3PAUDYNAMICS_TYPE@@A ; current_flight_dynamics
  0019c	f2 0f 5a 80 b4
	00 00 00	 cvtsd2ss xmm0, QWORD PTR [eax+180]
  001a4	f3 0f 11 85 20
	ff ff ff	 movss	 DWORD PTR _position$[ebp+4], xmm0

; 1311 : 	position.z = current_flight_dynamics->position.z;

  001ac	a1 00 00 00 00	 mov	 eax, DWORD PTR ?current_flight_dynamics@@3PAUDYNAMICS_TYPE@@A ; current_flight_dynamics
  001b1	f2 0f 5a 80 bc
	00 00 00	 cvtsd2ss xmm0, QWORD PTR [eax+188]
  001b9	f3 0f 11 85 24
	ff ff ff	 movss	 DWORD PTR _position$[ebp+8], xmm0

; 1312 : 
; 1313 : 	if (get_current_dynamics_options (DYNAMICS_OPTIONS_WIND))

  001c1	6a 0c		 push	 12			; 0000000cH
  001c3	e8 00 00 00 00	 call	 ?get_current_dynamics_options@@YGHW4DYNAMICS_OPTIONS_TYPES@@@Z ; get_current_dynamics_options
  001c8	85 c0		 test	 eax, eax
  001ca	0f 84 c5 00 00
	00		 je	 $LN2@update_att

; 1314 : 	{
; 1315 : 
; 1316 : 		get_session_wind_velocity_at_point (&position, &wind);

  001d0	8d 85 34 ff ff
	ff		 lea	 eax, DWORD PTR _wind$[ebp]
  001d6	50		 push	 eax
  001d7	8d 8d 1c ff ff
	ff		 lea	 ecx, DWORD PTR _position$[ebp]
  001dd	51		 push	 ecx
  001de	e8 00 00 00 00	 call	 ?get_session_wind_velocity_at_point@@YGMPAUVEC3D@@0@Z ; get_session_wind_velocity_at_point
  001e3	dd d8		 fstp	 ST(0)

; 1317 : 
; 1318 : 		multiply_matrix3x3_vec3d (&model_wind, current_flight_dynamics->attitude, &wind);

  001e5	8d 85 34 ff ff
	ff		 lea	 eax, DWORD PTR _wind$[ebp]
  001eb	50		 push	 eax
  001ec	8b 0d 00 00 00
	00		 mov	 ecx, DWORD PTR ?current_flight_dynamics@@3PAUDYNAMICS_TYPE@@A ; current_flight_dynamics
  001f2	81 c1 d0 00 00
	00		 add	 ecx, 208		; 000000d0H
  001f8	51		 push	 ecx
  001f9	8d 95 28 ff ff
	ff		 lea	 edx, DWORD PTR _model_wind$[ebp]
  001ff	52		 push	 edx
  00200	e8 00 00 00 00	 call	 ?multiply_matrix3x3_vec3d@@YGXPAUVEC3D@@QAY02$$CBMPBU1@@Z ; multiply_matrix3x3_vec3d

; 1319 : 
; 1320 : 		world_motion_vector.x -= wind.x;

  00205	f3 0f 10 85 f8
	fe ff ff	 movss	 xmm0, DWORD PTR _world_motion_vector$[ebp]
  0020d	f3 0f 5c 85 34
	ff ff ff	 subss	 xmm0, DWORD PTR _wind$[ebp]
  00215	f3 0f 11 85 f8
	fe ff ff	 movss	 DWORD PTR _world_motion_vector$[ebp], xmm0

; 1321 : 		world_motion_vector.y -= wind.y;

  0021d	f3 0f 10 85 fc
	fe ff ff	 movss	 xmm0, DWORD PTR _world_motion_vector$[ebp+4]
  00225	f3 0f 5c 85 38
	ff ff ff	 subss	 xmm0, DWORD PTR _wind$[ebp+4]
  0022d	f3 0f 11 85 fc
	fe ff ff	 movss	 DWORD PTR _world_motion_vector$[ebp+4], xmm0

; 1322 : 		world_motion_vector.z -= wind.z;

  00235	f3 0f 10 85 00
	ff ff ff	 movss	 xmm0, DWORD PTR _world_motion_vector$[ebp+8]
  0023d	f3 0f 5c 85 3c
	ff ff ff	 subss	 xmm0, DWORD PTR _wind$[ebp+8]
  00245	f3 0f 11 85 00
	ff ff ff	 movss	 DWORD PTR _world_motion_vector$[ebp+8], xmm0

; 1323 : 
; 1324 : 		model_motion_vector.x -= model_wind.x;

  0024d	f3 0f 10 85 ec
	fe ff ff	 movss	 xmm0, DWORD PTR _model_motion_vector$[ebp]
  00255	f3 0f 5c 85 28
	ff ff ff	 subss	 xmm0, DWORD PTR _model_wind$[ebp]
  0025d	f3 0f 11 85 ec
	fe ff ff	 movss	 DWORD PTR _model_motion_vector$[ebp], xmm0

; 1325 : 		model_motion_vector.y -= model_wind.y;

  00265	f3 0f 10 85 f0
	fe ff ff	 movss	 xmm0, DWORD PTR _model_motion_vector$[ebp+4]
  0026d	f3 0f 5c 85 2c
	ff ff ff	 subss	 xmm0, DWORD PTR _model_wind$[ebp+4]
  00275	f3 0f 11 85 f0
	fe ff ff	 movss	 DWORD PTR _model_motion_vector$[ebp+4], xmm0

; 1326 : 		model_motion_vector.z -= model_wind.z;

  0027d	f3 0f 10 85 f4
	fe ff ff	 movss	 xmm0, DWORD PTR _model_motion_vector$[ebp+8]
  00285	f3 0f 5c 85 30
	ff ff ff	 subss	 xmm0, DWORD PTR _model_wind$[ebp+8]
  0028d	f3 0f 11 85 f4
	fe ff ff	 movss	 DWORD PTR _model_motion_vector$[ebp+8], xmm0
$LN2@update_att:

; 1327 : 	}
; 1328 : 
; 1329 : 	motion_vector_magnitude = get_3d_vector_magnitude (&current_flight_dynamics->model_motion_vector);

  00295	a1 00 00 00 00	 mov	 eax, DWORD PTR ?current_flight_dynamics@@3PAUDYNAMICS_TYPE@@A ; current_flight_dynamics
  0029a	05 30 1c 00 00	 add	 eax, 7216		; 00001c30H
  0029f	50		 push	 eax
  002a0	e8 00 00 00 00	 call	 ?get_3d_vector_magnitude@@YGMPBUVEC3D@@@Z ; get_3d_vector_magnitude
  002a5	d9 5d a4	 fstp	 DWORD PTR _motion_vector_magnitude$[ebp]

; 1330 : 
; 1331 : 	//////////////////////////////////////////////////////////
; 1332 : 	// safey check
; 1333 : 	//////////////////////////////////////////////////////////
; 1334 : 	if (motion_vector_magnitude > 1000)

  002a8	f3 0f 10 45 a4	 movss	 xmm0, DWORD PTR _motion_vector_magnitude$[ebp]
  002ad	0f 2f 05 00 00
	00 00		 comiss	 xmm0, DWORD PTR __real@447a0000
  002b4	0f 86 1c 03 00
	00		 jbe	 $LN3@update_att

; 1335 : 	{
; 1336 : 
; 1337 : 		debug_log ("DYNAMICS: UNSTABLE");

  002ba	68 00 00 00 00	 push	 OFFSET ??_C@_0BD@EHBODOFB@DYNAMICS?3?5UNSTABLE@
  002bf	e8 00 00 00 00	 call	 ?debug_log@@YAXPBDZZ	; debug_log
  002c4	83 c4 04	 add	 esp, 4

; 1338 : 
; 1339 : 		if (get_local_entity_int_value (get_gunship_entity (), INT_TYPE_ALIVE))

  002c7	83 3d 00 00 00
	00 00		 cmp	 DWORD PTR ?gunship_entity@@3PAUENTITY@@A, 0 ; gunship_entity
  002ce	74 0f		 je	 SHORT $LN93@update_att
  002d0	a1 00 00 00 00	 mov	 eax, DWORD PTR ?gunship_entity@@3PAUENTITY@@A ; gunship_entity
  002d5	8b 08		 mov	 ecx, DWORD PTR [eax]
  002d7	89 8d d8 fc ff
	ff		 mov	 DWORD PTR tv172[ebp], ecx
  002dd	eb 20		 jmp	 SHORT $LN94@update_att
$LN93@update_att:
  002df	68 3b 05 00 00	 push	 1339			; 0000053bH
  002e4	68 00 00 00 00	 push	 OFFSET ??_C@_0FA@IFJNMDIM@c?3?2users?2nhv90?2projects?2eech?2ap@
  002e9	8b 15 00 00 00
	00		 mov	 edx, DWORD PTR ?null_entity_pointer_message@@3PBDB ; null_entity_pointer_message
  002ef	52		 push	 edx
  002f0	e8 00 00 00 00	 call	 ?process_assert@@YGXPBD0H@Z ; process_assert
  002f5	c7 85 d8 fc ff
	ff 00 00 00 00	 mov	 DWORD PTR tv172[ebp], 0
$LN94@update_att:
  002ff	b8 01 00 00 00	 mov	 eax, 1
  00304	85 c0		 test	 eax, eax
  00306	74 0c		 je	 SHORT $LN95@update_att
  00308	c7 85 d4 fc ff
	ff 07 00 00 00	 mov	 DWORD PTR tv179[ebp], 7
  00312	eb 20		 jmp	 SHORT $LN96@update_att
$LN95@update_att:
  00314	68 3b 05 00 00	 push	 1339			; 0000053bH
  00319	68 00 00 00 00	 push	 OFFSET ??_C@_0FA@IFJNMDIM@c?3?2users?2nhv90?2projects?2eech?2ap@
  0031e	8b 0d 00 00 00
	00		 mov	 ecx, DWORD PTR ?overload_invalid_int_type_message@@3PBDB ; overload_invalid_int_type_message
  00324	51		 push	 ecx
  00325	e8 00 00 00 00	 call	 ?process_assert@@YGXPBD0H@Z ; process_assert
  0032a	c7 85 d4 fc ff
	ff 00 00 00 00	 mov	 DWORD PTR tv179[ebp], 0
$LN96@update_att:
  00334	6a 07		 push	 7
  00336	8b 15 00 00 00
	00		 mov	 edx, DWORD PTR ?gunship_entity@@3PAUENTITY@@A ; gunship_entity
  0033c	52		 push	 edx
  0033d	69 85 d8 fc ff
	ff 5c 04 00 00	 imul	 eax, DWORD PTR tv172[ebp], 1116
  00347	8b 8d d4 fc ff
	ff		 mov	 ecx, DWORD PTR tv179[ebp]
  0034d	8b 94 88 00 00
	00 00		 mov	 edx, DWORD PTR ?fn_get_local_entity_int_value@@3PAY0BBH@P6GHPAUENTITY@@W4INT_TYPES@@@ZA[eax+ecx*4]
  00354	ff d2		 call	 edx
  00356	85 c0		 test	 eax, eax
  00358	0f 84 73 02 00
	00		 je	 $LN4@update_att

; 1340 : 		{
; 1341 : 
; 1342 : 			current_flight_dynamics->model_motion_vector.x = 0.0;

  0035e	a1 00 00 00 00	 mov	 eax, DWORD PTR ?current_flight_dynamics@@3PAUDYNAMICS_TYPE@@A ; current_flight_dynamics
  00363	0f 57 c0	 xorps	 xmm0, xmm0
  00366	f3 0f 11 80 30
	1c 00 00	 movss	 DWORD PTR [eax+7216], xmm0

; 1343 : 			current_flight_dynamics->model_motion_vector.y = 0.0;

  0036e	a1 00 00 00 00	 mov	 eax, DWORD PTR ?current_flight_dynamics@@3PAUDYNAMICS_TYPE@@A ; current_flight_dynamics
  00373	0f 57 c0	 xorps	 xmm0, xmm0
  00376	f3 0f 11 80 34
	1c 00 00	 movss	 DWORD PTR [eax+7220], xmm0

; 1344 : 			current_flight_dynamics->model_motion_vector.z = 0.0;

  0037e	a1 00 00 00 00	 mov	 eax, DWORD PTR ?current_flight_dynamics@@3PAUDYNAMICS_TYPE@@A ; current_flight_dynamics
  00383	0f 57 c0	 xorps	 xmm0, xmm0
  00386	f3 0f 11 80 38
	1c 00 00	 movss	 DWORD PTR [eax+7224], xmm0

; 1345 : 
; 1346 : 			current_flight_dynamics->model_acceleration_vector.x = 0.0;

  0038e	a1 00 00 00 00	 mov	 eax, DWORD PTR ?current_flight_dynamics@@3PAUDYNAMICS_TYPE@@A ; current_flight_dynamics
  00393	0f 57 c0	 xorps	 xmm0, xmm0
  00396	f3 0f 11 80 48
	1c 00 00	 movss	 DWORD PTR [eax+7240], xmm0

; 1347 : 			current_flight_dynamics->model_acceleration_vector.y = 0.0;

  0039e	a1 00 00 00 00	 mov	 eax, DWORD PTR ?current_flight_dynamics@@3PAUDYNAMICS_TYPE@@A ; current_flight_dynamics
  003a3	0f 57 c0	 xorps	 xmm0, xmm0
  003a6	f3 0f 11 80 4c
	1c 00 00	 movss	 DWORD PTR [eax+7244], xmm0

; 1348 : 			current_flight_dynamics->model_acceleration_vector.z = 0.0;

  003ae	a1 00 00 00 00	 mov	 eax, DWORD PTR ?current_flight_dynamics@@3PAUDYNAMICS_TYPE@@A ; current_flight_dynamics
  003b3	0f 57 c0	 xorps	 xmm0, xmm0
  003b6	f3 0f 11 80 50
	1c 00 00	 movss	 DWORD PTR [eax+7248], xmm0

; 1349 : 
; 1350 : 			current_flight_dynamics->world_motion_vector.x = 0.0;

  003be	a1 00 00 00 00	 mov	 eax, DWORD PTR ?current_flight_dynamics@@3PAUDYNAMICS_TYPE@@A ; current_flight_dynamics
  003c3	0f 57 c0	 xorps	 xmm0, xmm0
  003c6	f3 0f 11 80 3c
	1c 00 00	 movss	 DWORD PTR [eax+7228], xmm0

; 1351 : 			current_flight_dynamics->world_motion_vector.y = 0.0;

  003ce	a1 00 00 00 00	 mov	 eax, DWORD PTR ?current_flight_dynamics@@3PAUDYNAMICS_TYPE@@A ; current_flight_dynamics
  003d3	0f 57 c0	 xorps	 xmm0, xmm0
  003d6	f3 0f 11 80 40
	1c 00 00	 movss	 DWORD PTR [eax+7232], xmm0

; 1352 : 			current_flight_dynamics->world_motion_vector.z = 0.0;

  003de	a1 00 00 00 00	 mov	 eax, DWORD PTR ?current_flight_dynamics@@3PAUDYNAMICS_TYPE@@A ; current_flight_dynamics
  003e3	0f 57 c0	 xorps	 xmm0, xmm0
  003e6	f3 0f 11 80 44
	1c 00 00	 movss	 DWORD PTR [eax+7236], xmm0

; 1353 : 
; 1354 : 			current_flight_dynamics->world_acceleration_vector.x = 0.0;

  003ee	a1 00 00 00 00	 mov	 eax, DWORD PTR ?current_flight_dynamics@@3PAUDYNAMICS_TYPE@@A ; current_flight_dynamics
  003f3	0f 57 c0	 xorps	 xmm0, xmm0
  003f6	f3 0f 11 80 54
	1c 00 00	 movss	 DWORD PTR [eax+7252], xmm0

; 1355 : 			current_flight_dynamics->world_acceleration_vector.y = 0.0;

  003fe	a1 00 00 00 00	 mov	 eax, DWORD PTR ?current_flight_dynamics@@3PAUDYNAMICS_TYPE@@A ; current_flight_dynamics
  00403	0f 57 c0	 xorps	 xmm0, xmm0
  00406	f3 0f 11 80 58
	1c 00 00	 movss	 DWORD PTR [eax+7256], xmm0

; 1356 : 			current_flight_dynamics->world_acceleration_vector.z = 0.0;

  0040e	a1 00 00 00 00	 mov	 eax, DWORD PTR ?current_flight_dynamics@@3PAUDYNAMICS_TYPE@@A ; current_flight_dynamics
  00413	0f 57 c0	 xorps	 xmm0, xmm0
  00416	f3 0f 11 80 5c
	1c 00 00	 movss	 DWORD PTR [eax+7260], xmm0

; 1357 : 
; 1358 : 			set_client_server_entity_float_value (get_gunship_entity (), FLOAT_TYPE_VELOCITY, 0.0);

  0041e	83 3d 00 00 00
	00 00		 cmp	 DWORD PTR ?gunship_entity@@3PAUENTITY@@A, 0 ; gunship_entity
  00425	74 0f		 je	 SHORT $LN97@update_att
  00427	a1 00 00 00 00	 mov	 eax, DWORD PTR ?gunship_entity@@3PAUENTITY@@A ; gunship_entity
  0042c	8b 08		 mov	 ecx, DWORD PTR [eax]
  0042e	89 8d d8 fc ff
	ff		 mov	 DWORD PTR tv248[ebp], ecx
  00434	eb 24		 jmp	 SHORT $LN98@update_att
$LN97@update_att:
  00436	8b 15 00 00 00
	00		 mov	 edx, DWORD PTR ?__LINE__Var@?0??update_attitude_dynamics@@YGXXZ@4JA
  0043c	83 c2 70	 add	 edx, 112		; 00000070H
  0043f	52		 push	 edx
  00440	68 00 00 00 00	 push	 OFFSET ??_C@_0FA@IFJNMDIM@c?3?2users?2nhv90?2projects?2eech?2ap@
  00445	a1 00 00 00 00	 mov	 eax, DWORD PTR ?null_entity_pointer_message@@3PBDB ; null_entity_pointer_message
  0044a	50		 push	 eax
  0044b	e8 00 00 00 00	 call	 ?process_assert@@YGXPBD0H@Z ; process_assert
  00450	c7 85 d8 fc ff
	ff 00 00 00 00	 mov	 DWORD PTR tv248[ebp], 0
$LN98@update_att:
  0045a	b9 01 00 00 00	 mov	 ecx, 1
  0045f	85 c9		 test	 ecx, ecx
  00461	74 0c		 je	 SHORT $LN99@update_att
  00463	c7 85 d4 fc ff
	ff 93 00 00 00	 mov	 DWORD PTR tv256[ebp], 147 ; 00000093H
  0046d	eb 24		 jmp	 SHORT $LN100@update_att
$LN99@update_att:
  0046f	8b 15 00 00 00
	00		 mov	 edx, DWORD PTR ?__LINE__Var@?0??update_attitude_dynamics@@YGXXZ@4JA
  00475	83 c2 70	 add	 edx, 112		; 00000070H
  00478	52		 push	 edx
  00479	68 00 00 00 00	 push	 OFFSET ??_C@_0FA@IFJNMDIM@c?3?2users?2nhv90?2projects?2eech?2ap@
  0047e	a1 00 00 00 00	 mov	 eax, DWORD PTR ?overload_invalid_float_type_message@@3PBDB ; overload_invalid_float_type_message
  00483	50		 push	 eax
  00484	e8 00 00 00 00	 call	 ?process_assert@@YGXPBD0H@Z ; process_assert
  00489	c7 85 d4 fc ff
	ff 00 00 00 00	 mov	 DWORD PTR tv256[ebp], 0
$LN100@update_att:
  00493	51		 push	 ecx
  00494	0f 57 c0	 xorps	 xmm0, xmm0
  00497	f3 0f 11 04 24	 movss	 DWORD PTR [esp], xmm0
  0049c	68 93 00 00 00	 push	 147			; 00000093H
  004a1	8b 0d 00 00 00
	00		 mov	 ecx, DWORD PTR ?gunship_entity@@3PAUENTITY@@A ; gunship_entity
  004a7	51		 push	 ecx
  004a8	69 95 d8 fc ff
	ff 78 05 00 00	 imul	 edx, DWORD PTR tv248[ebp], 1400
  004b2	8b 85 d4 fc ff
	ff		 mov	 eax, DWORD PTR tv256[ebp]
  004b8	8d 8c c2 00 00
	00 00		 lea	 ecx, DWORD PTR ?fn_set_client_server_entity_float_value@@3PAY1KP@1P6GXPAUENTITY@@W4FLOAT_TYPES@@M@ZA[edx+eax*8]
  004bf	8b 15 00 00 00
	00		 mov	 edx, DWORD PTR ?system_comms_model@@3W4COMMS_MODEL_TYPES@@A ; system_comms_model
  004c5	8b 04 91	 mov	 eax, DWORD PTR [ecx+edx*4]
  004c8	ff d0		 call	 eax

; 1359 : 
; 1360 : 			set_client_server_entity_vec3d (get_gunship_entity (), VEC3D_TYPE_MOTION_VECTOR, &current_flight_dynamics->model_motion_vector);

  004ca	83 3d 00 00 00
	00 00		 cmp	 DWORD PTR ?gunship_entity@@3PAUENTITY@@A, 0 ; gunship_entity
  004d1	74 0f		 je	 SHORT $LN101@update_att
  004d3	a1 00 00 00 00	 mov	 eax, DWORD PTR ?gunship_entity@@3PAUENTITY@@A ; gunship_entity
  004d8	8b 08		 mov	 ecx, DWORD PTR [eax]
  004da	89 8d d8 fc ff
	ff		 mov	 DWORD PTR tv270[ebp], ecx
  004e0	eb 24		 jmp	 SHORT $LN102@update_att
$LN101@update_att:
  004e2	8b 15 00 00 00
	00		 mov	 edx, DWORD PTR ?__LINE__Var@?0??update_attitude_dynamics@@YGXXZ@4JA
  004e8	83 c2 72	 add	 edx, 114		; 00000072H
  004eb	52		 push	 edx
  004ec	68 00 00 00 00	 push	 OFFSET ??_C@_0FA@IFJNMDIM@c?3?2users?2nhv90?2projects?2eech?2ap@
  004f1	a1 00 00 00 00	 mov	 eax, DWORD PTR ?null_entity_pointer_message@@3PBDB ; null_entity_pointer_message
  004f6	50		 push	 eax
  004f7	e8 00 00 00 00	 call	 ?process_assert@@YGXPBD0H@Z ; process_assert
  004fc	c7 85 d8 fc ff
	ff 00 00 00 00	 mov	 DWORD PTR tv270[ebp], 0
$LN102@update_att:
  00506	b9 01 00 00 00	 mov	 ecx, 1
  0050b	85 c9		 test	 ecx, ecx
  0050d	74 0c		 je	 SHORT $LN103@update_att
  0050f	c7 85 d4 fc ff
	ff 06 00 00 00	 mov	 DWORD PTR tv278[ebp], 6
  00519	eb 24		 jmp	 SHORT $LN104@update_att
$LN103@update_att:
  0051b	8b 15 00 00 00
	00		 mov	 edx, DWORD PTR ?__LINE__Var@?0??update_attitude_dynamics@@YGXXZ@4JA
  00521	83 c2 72	 add	 edx, 114		; 00000072H
  00524	52		 push	 edx
  00525	68 00 00 00 00	 push	 OFFSET ??_C@_0FA@IFJNMDIM@c?3?2users?2nhv90?2projects?2eech?2ap@
  0052a	a1 00 00 00 00	 mov	 eax, DWORD PTR ?overload_invalid_vec3d_type_message@@3PBDB ; overload_invalid_vec3d_type_message
  0052f	50		 push	 eax
  00530	e8 00 00 00 00	 call	 ?process_assert@@YGXPBD0H@Z ; process_assert
  00535	c7 85 d4 fc ff
	ff 00 00 00 00	 mov	 DWORD PTR tv278[ebp], 0
$LN104@update_att:
  0053f	8b 0d 00 00 00
	00		 mov	 ecx, DWORD PTR ?current_flight_dynamics@@3PAUDYNAMICS_TYPE@@A ; current_flight_dynamics
  00545	81 c1 30 1c 00
	00		 add	 ecx, 7216		; 00001c30H
  0054b	51		 push	 ecx
  0054c	6a 06		 push	 6
  0054e	8b 15 00 00 00
	00		 mov	 edx, DWORD PTR ?gunship_entity@@3PAUENTITY@@A ; gunship_entity
  00554	52		 push	 edx
  00555	69 85 d8 fc ff
	ff c0 00 00 00	 imul	 eax, DWORD PTR tv270[ebp], 192
  0055f	8b 8d d4 fc ff
	ff		 mov	 ecx, DWORD PTR tv278[ebp]
  00565	8d 94 c8 00 00
	00 00		 lea	 edx, DWORD PTR ?fn_set_client_server_entity_vec3d@@3PAY1BI@1P6GXPAUENTITY@@W4VEC3D_TYPES@@PAUVEC3D@@@ZA[eax+ecx*8]
  0056c	a1 00 00 00 00	 mov	 eax, DWORD PTR ?system_comms_model@@3W4COMMS_MODEL_TYPES@@A ; system_comms_model
  00571	8b 0c 82	 mov	 ecx, DWORD PTR [edx+eax*4]
  00574	ff d1		 call	 ecx

; 1361 : 
; 1362 : 			kill_client_server_entity (get_gunship_entity ());

  00576	83 3d 00 00 00
	00 00		 cmp	 DWORD PTR ?gunship_entity@@3PAUENTITY@@A, 0 ; gunship_entity
  0057d	74 0f		 je	 SHORT $LN105@update_att
  0057f	a1 00 00 00 00	 mov	 eax, DWORD PTR ?gunship_entity@@3PAUENTITY@@A ; gunship_entity
  00584	8b 08		 mov	 ecx, DWORD PTR [eax]
  00586	89 8d d8 fc ff
	ff		 mov	 DWORD PTR tv293[ebp], ecx
  0058c	eb 24		 jmp	 SHORT $LN106@update_att
$LN105@update_att:
  0058e	8b 15 00 00 00
	00		 mov	 edx, DWORD PTR ?__LINE__Var@?0??update_attitude_dynamics@@YGXXZ@4JA
  00594	83 c2 74	 add	 edx, 116		; 00000074H
  00597	52		 push	 edx
  00598	68 00 00 00 00	 push	 OFFSET ??_C@_0FA@IFJNMDIM@c?3?2users?2nhv90?2projects?2eech?2ap@
  0059d	a1 00 00 00 00	 mov	 eax, DWORD PTR ?null_entity_pointer_message@@3PBDB ; null_entity_pointer_message
  005a2	50		 push	 eax
  005a3	e8 00 00 00 00	 call	 ?process_assert@@YGXPBD0H@Z ; process_assert
  005a8	c7 85 d8 fc ff
	ff 00 00 00 00	 mov	 DWORD PTR tv293[ebp], 0
$LN106@update_att:
  005b2	8b 0d 00 00 00
	00		 mov	 ecx, DWORD PTR ?gunship_entity@@3PAUENTITY@@A ; gunship_entity
  005b8	51		 push	 ecx
  005b9	8b 15 00 00 00
	00		 mov	 edx, DWORD PTR ?system_comms_model@@3W4COMMS_MODEL_TYPES@@A ; system_comms_model
  005bf	c1 e2 02	 shl	 edx, 2
  005c2	8b 85 d8 fc ff
	ff		 mov	 eax, DWORD PTR tv293[ebp]
  005c8	8b 8c c2 00 00
	00 00		 mov	 ecx, DWORD PTR ?fn_kill_client_server_entity@@3PAY01P6GXPAUENTITY@@@ZA[edx+eax*8]
  005cf	ff d1		 call	 ecx
$LN4@update_att:

; 1363 : 
; 1364 : //			start_game_exit (GAME_EXIT_CRASH, FALSE);
; 1365 : 		}
; 1366 : 
; 1367 : 		return;

  005d1	e9 b5 40 00 00	 jmp	 $LN1@update_att
$LN3@update_att:

; 1368 : 	}
; 1369 : 	//////////////////////////////////////////////////////////
; 1370 : 
; 1371 : 	//
; 1372 : 	// Set up variables
; 1373 : 	//
; 1374 : 
; 1375 : 	main_rotor_induced_air_value = current_flight_dynamics->main_rotor_induced_air.value * current_flight_dynamics->main_rotor_induced_air.modifier;

  005d6	a1 00 00 00 00	 mov	 eax, DWORD PTR ?current_flight_dynamics@@3PAUDYNAMICS_TYPE@@A ; current_flight_dynamics
  005db	8b 0d 00 00 00
	00		 mov	 ecx, DWORD PTR ?current_flight_dynamics@@3PAUDYNAMICS_TYPE@@A ; current_flight_dynamics
  005e1	f3 0f 10 80 6c
	1d 00 00	 movss	 xmm0, DWORD PTR [eax+7532]
  005e9	f3 0f 59 81 68
	1d 00 00	 mulss	 xmm0, DWORD PTR [ecx+7528]
  005f1	f3 0f 11 85 74
	ff ff ff	 movss	 DWORD PTR _main_rotor_induced_air_value$[ebp], xmm0

; 1376 : 	main_rotor_pitch_angle_value = current_flight_dynamics->main_rotor_pitch_angle.value * current_flight_dynamics->main_rotor_pitch_angle.modifier;

  005f9	a1 00 00 00 00	 mov	 eax, DWORD PTR ?current_flight_dynamics@@3PAUDYNAMICS_TYPE@@A ; current_flight_dynamics
  005fe	8b 0d 00 00 00
	00		 mov	 ecx, DWORD PTR ?current_flight_dynamics@@3PAUDYNAMICS_TYPE@@A ; current_flight_dynamics
  00604	f3 0f 10 80 fc
	1d 00 00	 movss	 xmm0, DWORD PTR [eax+7676]
  0060c	f3 0f 59 81 f8
	1d 00 00	 mulss	 xmm0, DWORD PTR [ecx+7672]
  00614	f3 0f 11 85 70
	ff ff ff	 movss	 DWORD PTR _main_rotor_pitch_angle_value$[ebp], xmm0

; 1377 : 	main_rotor_rpm_value = current_flight_dynamics->main_rotor_rpm.value * current_flight_dynamics->main_rotor_rpm.modifier;

  0061c	a1 00 00 00 00	 mov	 eax, DWORD PTR ?current_flight_dynamics@@3PAUDYNAMICS_TYPE@@A ; current_flight_dynamics
  00621	8b 0d 00 00 00
	00		 mov	 ecx, DWORD PTR ?current_flight_dynamics@@3PAUDYNAMICS_TYPE@@A ; current_flight_dynamics
  00627	f3 0f 10 80 14
	1e 00 00	 movss	 xmm0, DWORD PTR [eax+7700]
  0062f	f3 0f 59 81 10
	1e 00 00	 mulss	 xmm0, DWORD PTR [ecx+7696]
  00637	f3 0f 11 85 6c
	ff ff ff	 movss	 DWORD PTR _main_rotor_rpm_value$[ebp], xmm0

; 1378 : 	main_rotor_roll_angle_value = current_flight_dynamics->main_rotor_roll_angle.value * current_flight_dynamics->main_rotor_roll_angle.modifier;

  0063f	a1 00 00 00 00	 mov	 eax, DWORD PTR ?current_flight_dynamics@@3PAUDYNAMICS_TYPE@@A ; current_flight_dynamics
  00644	8b 0d 00 00 00
	00		 mov	 ecx, DWORD PTR ?current_flight_dynamics@@3PAUDYNAMICS_TYPE@@A ; current_flight_dynamics
  0064a	f3 0f 10 80 e4
	1d 00 00	 movss	 xmm0, DWORD PTR [eax+7652]
  00652	f3 0f 59 81 e0
	1d 00 00	 mulss	 xmm0, DWORD PTR [ecx+7648]
  0065a	f3 0f 11 85 68
	ff ff ff	 movss	 DWORD PTR _main_rotor_roll_angle_value$[ebp], xmm0

; 1379 : 	tail_rotor_induced_air_value = current_flight_dynamics->tail_rotor_induced_air.value * current_flight_dynamics->tail_rotor_induced_air.modifier;

  00662	a1 00 00 00 00	 mov	 eax, DWORD PTR ?current_flight_dynamics@@3PAUDYNAMICS_TYPE@@A ; current_flight_dynamics
  00667	8b 0d 00 00 00
	00		 mov	 ecx, DWORD PTR ?current_flight_dynamics@@3PAUDYNAMICS_TYPE@@A ; current_flight_dynamics
  0066d	f3 0f 10 80 04
	1f 00 00	 movss	 xmm0, DWORD PTR [eax+7940]
  00675	f3 0f 59 81 00
	1f 00 00	 mulss	 xmm0, DWORD PTR [ecx+7936]
  0067d	f3 0f 11 85 64
	ff ff ff	 movss	 DWORD PTR _tail_rotor_induced_air_value$[ebp], xmm0

; 1380 : 	heading_inertia_value = current_flight_dynamics->heading_inertia.value * current_flight_dynamics->heading_inertia.modifier;

  00685	a1 00 00 00 00	 mov	 eax, DWORD PTR ?current_flight_dynamics@@3PAUDYNAMICS_TYPE@@A ; current_flight_dynamics
  0068a	8b 0d 00 00 00
	00		 mov	 ecx, DWORD PTR ?current_flight_dynamics@@3PAUDYNAMICS_TYPE@@A ; current_flight_dynamics
  00690	f3 0f 10 80 34
	22 00 00	 movss	 xmm0, DWORD PTR [eax+8756]
  00698	f3 0f 59 81 30
	22 00 00	 mulss	 xmm0, DWORD PTR [ecx+8752]
  006a0	f3 0f 11 85 60
	ff ff ff	 movss	 DWORD PTR _heading_inertia_value$[ebp], xmm0

; 1381 : 	pitch_inertia_value = current_flight_dynamics->pitch_inertia.value * current_flight_dynamics->pitch_inertia.modifier;

  006a8	a1 00 00 00 00	 mov	 eax, DWORD PTR ?current_flight_dynamics@@3PAUDYNAMICS_TYPE@@A ; current_flight_dynamics
  006ad	8b 0d 00 00 00
	00		 mov	 ecx, DWORD PTR ?current_flight_dynamics@@3PAUDYNAMICS_TYPE@@A ; current_flight_dynamics
  006b3	f3 0f 10 80 4c
	22 00 00	 movss	 xmm0, DWORD PTR [eax+8780]
  006bb	f3 0f 59 81 48
	22 00 00	 mulss	 xmm0, DWORD PTR [ecx+8776]
  006c3	f3 0f 11 85 5c
	ff ff ff	 movss	 DWORD PTR _pitch_inertia_value$[ebp], xmm0

; 1382 : 	roll_inertia_value = current_flight_dynamics->roll_inertia.value * current_flight_dynamics->roll_inertia.modifier;

  006cb	a1 00 00 00 00	 mov	 eax, DWORD PTR ?current_flight_dynamics@@3PAUDYNAMICS_TYPE@@A ; current_flight_dynamics
  006d0	8b 0d 00 00 00
	00		 mov	 ecx, DWORD PTR ?current_flight_dynamics@@3PAUDYNAMICS_TYPE@@A ; current_flight_dynamics
  006d6	f3 0f 10 80 64
	22 00 00	 movss	 xmm0, DWORD PTR [eax+8804]
  006de	f3 0f 59 81 60
	22 00 00	 mulss	 xmm0, DWORD PTR [ecx+8800]
  006e6	f3 0f 11 85 58
	ff ff ff	 movss	 DWORD PTR _roll_inertia_value$[ebp], xmm0

; 1383 : 	pitch_value = current_flight_dynamics->pitch.value * current_flight_dynamics->pitch.modifier;

  006ee	a1 00 00 00 00	 mov	 eax, DWORD PTR ?current_flight_dynamics@@3PAUDYNAMICS_TYPE@@A ; current_flight_dynamics
  006f3	8b 0d 00 00 00
	00		 mov	 ecx, DWORD PTR ?current_flight_dynamics@@3PAUDYNAMICS_TYPE@@A ; current_flight_dynamics
  006f9	f3 0f 10 80 5c
	21 00 00	 movss	 xmm0, DWORD PTR [eax+8540]
  00701	f3 0f 59 81 58
	21 00 00	 mulss	 xmm0, DWORD PTR [ecx+8536]
  00709	f3 0f 11 85 54
	ff ff ff	 movss	 DWORD PTR _pitch_value$[ebp], xmm0

; 1384 : 	main_blade_x_pitch_value = current_flight_dynamics->main_blade_x_pitch.value * current_flight_dynamics->main_blade_x_pitch.modifier;

  00711	a1 00 00 00 00	 mov	 eax, DWORD PTR ?current_flight_dynamics@@3PAUDYNAMICS_TYPE@@A ; current_flight_dynamics
  00716	8b 0d 00 00 00
	00		 mov	 ecx, DWORD PTR ?current_flight_dynamics@@3PAUDYNAMICS_TYPE@@A ; current_flight_dynamics
  0071c	f3 0f 10 80 a4
	1e 00 00	 movss	 xmm0, DWORD PTR [eax+7844]
  00724	f3 0f 59 81 a0
	1e 00 00	 mulss	 xmm0, DWORD PTR [ecx+7840]
  0072c	f3 0f 11 85 50
	ff ff ff	 movss	 DWORD PTR _main_blade_x_pitch_value$[ebp], xmm0

; 1385 : 	main_blade_y_pitch_value = current_flight_dynamics->main_blade_y_pitch.value * current_flight_dynamics->main_blade_y_pitch.modifier;

  00734	a1 00 00 00 00	 mov	 eax, DWORD PTR ?current_flight_dynamics@@3PAUDYNAMICS_TYPE@@A ; current_flight_dynamics
  00739	8b 0d 00 00 00
	00		 mov	 ecx, DWORD PTR ?current_flight_dynamics@@3PAUDYNAMICS_TYPE@@A ; current_flight_dynamics
  0073f	f3 0f 10 80 bc
	1e 00 00	 movss	 xmm0, DWORD PTR [eax+7868]
  00747	f3 0f 59 81 b8
	1e 00 00	 mulss	 xmm0, DWORD PTR [ecx+7864]
  0074f	f3 0f 11 85 4c
	ff ff ff	 movss	 DWORD PTR _main_blade_y_pitch_value$[ebp], xmm0

; 1386 : 	velocity_z_value = current_flight_dynamics->velocity_z.value * current_flight_dynamics->velocity_z.modifier;

  00757	a1 00 00 00 00	 mov	 eax, DWORD PTR ?current_flight_dynamics@@3PAUDYNAMICS_TYPE@@A ; current_flight_dynamics
  0075c	8b 0d 00 00 00
	00		 mov	 ecx, DWORD PTR ?current_flight_dynamics@@3PAUDYNAMICS_TYPE@@A ; current_flight_dynamics
  00762	f3 0f 10 80 9c
	20 00 00	 movss	 xmm0, DWORD PTR [eax+8348]
  0076a	f3 0f 59 81 98
	20 00 00	 mulss	 xmm0, DWORD PTR [ecx+8344]
  00772	f3 0f 11 85 48
	ff ff ff	 movss	 DWORD PTR _velocity_z_value$[ebp], xmm0

; 1387 : 	main_blade_pitch_value = current_flight_dynamics->main_blade_pitch.value * current_flight_dynamics->main_blade_pitch.modifier;

  0077a	a1 00 00 00 00	 mov	 eax, DWORD PTR ?current_flight_dynamics@@3PAUDYNAMICS_TYPE@@A ; current_flight_dynamics
  0077f	8b 0d 00 00 00
	00		 mov	 ecx, DWORD PTR ?current_flight_dynamics@@3PAUDYNAMICS_TYPE@@A ; current_flight_dynamics
  00785	f3 0f 10 80 8c
	1e 00 00	 movss	 xmm0, DWORD PTR [eax+7820]
  0078d	f3 0f 59 81 88
	1e 00 00	 mulss	 xmm0, DWORD PTR [ecx+7816]
  00795	f3 0f 11 85 40
	ff ff ff	 movss	 DWORD PTR _main_blade_pitch_value$[ebp], xmm0

; 1388 : 
; 1389 : 	rotor_direction.x = 0.0;

  0079d	0f 57 c0	 xorps	 xmm0, xmm0
  007a0	f3 0f 11 85 04
	ff ff ff	 movss	 DWORD PTR _rotor_direction$[ebp], xmm0

; 1390 : 	rotor_direction.y = 1.0;

  007a8	f3 0f 10 05 00
	00 00 00	 movss	 xmm0, DWORD PTR __real@3f800000
  007b0	f3 0f 11 85 08
	ff ff ff	 movss	 DWORD PTR _rotor_direction$[ebp+4], xmm0

; 1391 : 	rotor_direction.z = 0.0;

  007b8	0f 57 c0	 xorps	 xmm0, xmm0
  007bb	f3 0f 11 85 0c
	ff ff ff	 movss	 DWORD PTR _rotor_direction$[ebp+8], xmm0

; 1392 : 
; 1393 : 	if (command_line_dynamics_flight_model == 2)

  007c3	83 3d 00 00 00
	00 02		 cmp	 DWORD PTR ?command_line_dynamics_flight_model@@3HA, 2 ; command_line_dynamics_flight_model
  007ca	75 4c		 jne	 SHORT $LN5@update_att

; 1394 : 	{
; 1395 : 		get_3d_transformation_heading_pitch_matrix(rotor_attitude, main_rotor_roll_angle_value, rad(5.0) - main_rotor_pitch_angle_value);

  007cc	f3 0f 5a 85 70
	ff ff ff	 cvtss2sd xmm0, DWORD PTR _main_rotor_pitch_angle_value$[ebp]
  007d4	f2 0f 10 0d 00
	00 00 00	 movsd	 xmm1, QWORD PTR __real@3fb6571848000000
  007dc	f2 0f 5c c8	 subsd	 xmm1, xmm0
  007e0	f2 0f 5a c1	 cvtsd2ss xmm0, xmm1
  007e4	51		 push	 ecx
  007e5	f3 0f 11 04 24	 movss	 DWORD PTR [esp], xmm0
  007ea	51		 push	 ecx
  007eb	f3 0f 10 85 68
	ff ff ff	 movss	 xmm0, DWORD PTR _main_rotor_roll_angle_value$[ebp]
  007f3	f3 0f 11 04 24	 movss	 DWORD PTR [esp], xmm0
  007f8	8d 45 d8	 lea	 eax, DWORD PTR _rotor_attitude$[ebp]
  007fb	50		 push	 eax
  007fc	e8 00 00 00 00	 call	 ?get_3d_transformation_heading_pitch_matrix@@YGXQAY02MMM@Z ; get_3d_transformation_heading_pitch_matrix

; 1396 : 		multiply_transpose_matrix3x3_vec3d(&rotor_direction, rotor_attitude, &rotor_direction);

  00801	8d 85 04 ff ff
	ff		 lea	 eax, DWORD PTR _rotor_direction$[ebp]
  00807	50		 push	 eax
  00808	8d 4d d8	 lea	 ecx, DWORD PTR _rotor_attitude$[ebp]
  0080b	51		 push	 ecx
  0080c	8d 95 04 ff ff
	ff		 lea	 edx, DWORD PTR _rotor_direction$[ebp]
  00812	52		 push	 edx
  00813	e8 00 00 00 00	 call	 ?multiply_transpose_matrix3x3_vec3d@@YGXPAUVEC3D@@QAY02$$CBMPBU1@@Z ; multiply_transpose_matrix3x3_vec3d
$LN5@update_att:

; 1397 : 	}
; 1398 : 
; 1399 : 	/////////////////////////////////////////////////////////////////////////////////////////////////////////////////////////////////
; 1400 : 	// Rotor Force Analysis
; 1401 : 	/////////////////////////////////////////////////////////////////////////////////////////////////////////////////////////////////
; 1402 : 
; 1403 : 	angle = 1.0;

  00818	f3 0f 10 05 00
	00 00 00	 movss	 xmm0, DWORD PTR __real@3f800000
  00820	f3 0f 11 45 ac	 movss	 DWORD PTR _angle$[ebp], xmm0

; 1404 : 
; 1405 : 	rotor_split = 0.90;

  00825	f3 0f 10 05 00
	00 00 00	 movss	 xmm0, DWORD PTR __real@3f666666
  0082d	f3 0f 11 45 a0	 movss	 DWORD PTR _rotor_split$[ebp], xmm0

; 1406 : 
; 1407 : 	edge_rotor_split = 1.0 - rotor_split;

  00832	f3 0f 5a 45 a0	 cvtss2sd xmm0, DWORD PTR _rotor_split$[ebp]
  00837	f2 0f 10 0d 00
	00 00 00	 movsd	 xmm1, QWORD PTR __real@3ff0000000000000
  0083f	f2 0f 5c c8	 subsd	 xmm1, xmm0
  00843	f2 0f 5a c1	 cvtsd2ss xmm0, xmm1
  00847	f3 0f 11 45 9c	 movss	 DWORD PTR _edge_rotor_split$[ebp], xmm0

; 1408 : 
; 1409 : 	edge_rotor_split /= 8.0;

  0084c	f3 0f 5a 45 9c	 cvtss2sd xmm0, DWORD PTR _edge_rotor_split$[ebp]
  00851	f2 0f 5e 05 00
	00 00 00	 divsd	 xmm0, QWORD PTR __real@4020000000000000
  00859	f2 0f 5a c0	 cvtsd2ss xmm0, xmm0
  0085d	f3 0f 11 45 9c	 movss	 DWORD PTR _edge_rotor_split$[ebp], xmm0

; 1410 : 
; 1411 : 	rotor_edge_value = 0.401681;

  00862	f3 0f 10 05 00
	00 00 00	 movss	 xmm0, DWORD PTR __real@3ecda922
  0086a	f3 0f 11 45 a8	 movss	 DWORD PTR _rotor_edge_value$[ebp], xmm0

; 1412 : 
; 1413 : 	////////////////////////////////////////////
; 1414 : 	// Taxiing
; 1415 : 	////////////////////////////////////////////
; 1416 : 	if (command_line_dynamics_flight_model < 2 && !get_local_entity_int_value (get_gunship_entity (), INT_TYPE_AIRBORNE_AIRCRAFT))

  0086f	83 3d 00 00 00
	00 02		 cmp	 DWORD PTR ?command_line_dynamics_flight_model@@3HA, 2 ; command_line_dynamics_flight_model
  00876	0f 8d b2 01 00
	00		 jge	 $LN6@update_att
  0087c	83 3d 00 00 00
	00 00		 cmp	 DWORD PTR ?gunship_entity@@3PAUENTITY@@A, 0 ; gunship_entity
  00883	74 0f		 je	 SHORT $LN107@update_att
  00885	a1 00 00 00 00	 mov	 eax, DWORD PTR ?gunship_entity@@3PAUENTITY@@A ; gunship_entity
  0088a	8b 08		 mov	 ecx, DWORD PTR [eax]
  0088c	89 8d d8 fc ff
	ff		 mov	 DWORD PTR tv386[ebp], ecx
  00892	eb 20		 jmp	 SHORT $LN108@update_att
$LN107@update_att:
  00894	68 88 05 00 00	 push	 1416			; 00000588H
  00899	68 00 00 00 00	 push	 OFFSET ??_C@_0FA@IFJNMDIM@c?3?2users?2nhv90?2projects?2eech?2ap@
  0089e	8b 15 00 00 00
	00		 mov	 edx, DWORD PTR ?null_entity_pointer_message@@3PBDB ; null_entity_pointer_message
  008a4	52		 push	 edx
  008a5	e8 00 00 00 00	 call	 ?process_assert@@YGXPBD0H@Z ; process_assert
  008aa	c7 85 d8 fc ff
	ff 00 00 00 00	 mov	 DWORD PTR tv386[ebp], 0
$LN108@update_att:
  008b4	b8 01 00 00 00	 mov	 eax, 1
  008b9	85 c0		 test	 eax, eax
  008bb	74 0c		 je	 SHORT $LN109@update_att
  008bd	c7 85 d4 fc ff
	ff 04 00 00 00	 mov	 DWORD PTR tv393[ebp], 4
  008c7	eb 20		 jmp	 SHORT $LN110@update_att
$LN109@update_att:
  008c9	68 88 05 00 00	 push	 1416			; 00000588H
  008ce	68 00 00 00 00	 push	 OFFSET ??_C@_0FA@IFJNMDIM@c?3?2users?2nhv90?2projects?2eech?2ap@
  008d3	8b 0d 00 00 00
	00		 mov	 ecx, DWORD PTR ?overload_invalid_int_type_message@@3PBDB ; overload_invalid_int_type_message
  008d9	51		 push	 ecx
  008da	e8 00 00 00 00	 call	 ?process_assert@@YGXPBD0H@Z ; process_assert
  008df	c7 85 d4 fc ff
	ff 00 00 00 00	 mov	 DWORD PTR tv393[ebp], 0
$LN110@update_att:
  008e9	6a 04		 push	 4
  008eb	8b 15 00 00 00
	00		 mov	 edx, DWORD PTR ?gunship_entity@@3PAUENTITY@@A ; gunship_entity
  008f1	52		 push	 edx
  008f2	69 85 d8 fc ff
	ff 5c 04 00 00	 imul	 eax, DWORD PTR tv386[ebp], 1116
  008fc	8b 8d d4 fc ff
	ff		 mov	 ecx, DWORD PTR tv393[ebp]
  00902	8b 94 88 00 00
	00 00		 mov	 edx, DWORD PTR ?fn_get_local_entity_int_value@@3PAY0BBH@P6GHPAUENTITY@@W4INT_TYPES@@@ZA[eax+ecx*4]
  00909	ff d2		 call	 edx
  0090b	85 c0		 test	 eax, eax
  0090d	0f 85 1b 01 00
	00		 jne	 $LN6@update_att

; 1417 : 	{
; 1418 : 
; 1419 : 		// rotor
; 1420 : 
; 1421 : 		rotor_force = main_rotor_induced_air_value * 35.0;// ball park number to give about 50kts at 60%

  00913	f3 0f 5a 85 74
	ff ff ff	 cvtss2sd xmm0, DWORD PTR _main_rotor_induced_air_value$[ebp]
  0091b	f2 0f 59 05 00
	00 00 00	 mulsd	 xmm0, QWORD PTR __real@4041800000000000
  00923	f2 0f 5a c0	 cvtsd2ss xmm0, xmm0
  00927	f3 0f 11 45 94	 movss	 DWORD PTR _rotor_force$[ebp], xmm0

; 1422 : 
; 1423 : 		direction.x = 0.0;

  0092c	0f 57 c0	 xorps	 xmm0, xmm0
  0092f	f3 0f 11 85 10
	ff ff ff	 movss	 DWORD PTR _direction$[ebp], xmm0

; 1424 : 		direction.y = 0.0;

  00937	0f 57 c0	 xorps	 xmm0, xmm0
  0093a	f3 0f 11 85 14
	ff ff ff	 movss	 DWORD PTR _direction$[ebp+4], xmm0

; 1425 : 		direction.z = bound (-main_rotor_pitch_angle_value, -1.0, 1.0);

  00942	f3 0f 10 85 70
	ff ff ff	 movss	 xmm0, DWORD PTR _main_rotor_pitch_angle_value$[ebp]
  0094a	0f 57 05 00 00
	00 00		 xorps	 xmm0, DWORD PTR __xmm@80000000800000008000000080000000
  00951	f3 0f 5a c0	 cvtss2sd xmm0, xmm0
  00955	f2 0f 10 0d 00
	00 00 00	 movsd	 xmm1, QWORD PTR __real@bff0000000000000
  0095d	66 0f 2f c8	 comisd	 xmm1, xmm0
  00961	76 12		 jbe	 SHORT $LN113@update_att
  00963	f2 0f 10 05 00
	00 00 00	 movsd	 xmm0, QWORD PTR __real@bff0000000000000
  0096b	f2 0f 11 85 d4
	fc ff ff	 movsd	 QWORD PTR tv412[ebp], xmm0
  00973	eb 5a		 jmp	 SHORT $LN114@update_att
$LN113@update_att:
  00975	f3 0f 10 85 70
	ff ff ff	 movss	 xmm0, DWORD PTR _main_rotor_pitch_angle_value$[ebp]
  0097d	0f 57 05 00 00
	00 00		 xorps	 xmm0, DWORD PTR __xmm@80000000800000008000000080000000
  00984	f3 0f 5a c0	 cvtss2sd xmm0, xmm0
  00988	66 0f 2f 05 00
	00 00 00	 comisd	 xmm0, QWORD PTR __real@3ff0000000000000
  00990	76 12		 jbe	 SHORT $LN111@update_att
  00992	f2 0f 10 05 00
	00 00 00	 movsd	 xmm0, QWORD PTR __real@3ff0000000000000
  0099a	f2 0f 11 85 cc
	fc ff ff	 movsd	 QWORD PTR tv411[ebp], xmm0
  009a2	eb 1b		 jmp	 SHORT $LN112@update_att
$LN111@update_att:
  009a4	f3 0f 10 85 70
	ff ff ff	 movss	 xmm0, DWORD PTR _main_rotor_pitch_angle_value$[ebp]
  009ac	0f 57 05 00 00
	00 00		 xorps	 xmm0, DWORD PTR __xmm@80000000800000008000000080000000
  009b3	f3 0f 5a c0	 cvtss2sd xmm0, xmm0
  009b7	f2 0f 11 85 cc
	fc ff ff	 movsd	 QWORD PTR tv411[ebp], xmm0
$LN112@update_att:
  009bf	f2 0f 10 85 cc
	fc ff ff	 movsd	 xmm0, QWORD PTR tv411[ebp]
  009c7	f2 0f 11 85 d4
	fc ff ff	 movsd	 QWORD PTR tv412[ebp], xmm0
$LN114@update_att:
  009cf	f2 0f 5a 85 d4
	fc ff ff	 cvtsd2ss xmm0, QWORD PTR tv412[ebp]
  009d7	f3 0f 11 85 18
	ff ff ff	 movss	 DWORD PTR _direction$[ebp+8], xmm0

; 1426 : 
; 1427 : 		position.x = 0.0;

  009df	0f 57 c0	 xorps	 xmm0, xmm0
  009e2	f3 0f 11 85 1c
	ff ff ff	 movss	 DWORD PTR _position$[ebp], xmm0

; 1428 : 		position.y = 0.0;

  009ea	0f 57 c0	 xorps	 xmm0, xmm0
  009ed	f3 0f 11 85 20
	ff ff ff	 movss	 DWORD PTR _position$[ebp+4], xmm0

; 1429 : 		position.z = 0.0;

  009f5	0f 57 c0	 xorps	 xmm0, xmm0
  009f8	f3 0f 11 85 24
	ff ff ff	 movss	 DWORD PTR _position$[ebp+8], xmm0

; 1430 : 
; 1431 : 		add_dynamic_force ("Taxiing force", rotor_force, 0.0, &position, &direction, FALSE);

  00a00	6a 00		 push	 0
  00a02	8d 85 10 ff ff
	ff		 lea	 eax, DWORD PTR _direction$[ebp]
  00a08	50		 push	 eax
  00a09	8d 8d 1c ff ff
	ff		 lea	 ecx, DWORD PTR _position$[ebp]
  00a0f	51		 push	 ecx
  00a10	51		 push	 ecx
  00a11	0f 57 c0	 xorps	 xmm0, xmm0
  00a14	f3 0f 11 04 24	 movss	 DWORD PTR [esp], xmm0
  00a19	51		 push	 ecx
  00a1a	f3 0f 10 45 94	 movss	 xmm0, DWORD PTR _rotor_force$[ebp]
  00a1f	f3 0f 11 04 24	 movss	 DWORD PTR [esp], xmm0
  00a24	68 00 00 00 00	 push	 OFFSET ??_C@_0O@DAHLPFDH@Taxiing?5force@
  00a29	e8 00 00 00 00	 call	 ?add_dynamic_force@@YGXPBDMMPAUVEC3D@@1H@Z ; add_dynamic_force
$LN6@update_att:

; 1432 : 	}
; 1433 : 
; 1434 : 	////////////////////////////////////////////
; 1435 : 	// middle of rotor disc
; 1436 : 	////////////////////////////////////////////
; 1437 : 	{
; 1438 : 
; 1439 : 		rotor_force = rotor_split * main_rotor_induced_air_value;

  00a2e	f3 0f 10 45 a0	 movss	 xmm0, DWORD PTR _rotor_split$[ebp]
  00a33	f3 0f 59 85 74
	ff ff ff	 mulss	 xmm0, DWORD PTR _main_rotor_induced_air_value$[ebp]
  00a3b	f3 0f 11 45 94	 movss	 DWORD PTR _rotor_force$[ebp], xmm0

; 1440 : 
; 1441 : 		if ((current_flight_dynamics->rotor_brake) && (current_flight_dynamics->main_rotor_rpm.max != 0.0))

  00a40	a1 00 00 00 00	 mov	 eax, DWORD PTR ?current_flight_dynamics@@3PAUDYNAMICS_TYPE@@A ; current_flight_dynamics
  00a45	8b 88 28 25 00
	00		 mov	 ecx, DWORD PTR [eax+9512]
  00a4b	c1 e9 05	 shr	 ecx, 5
  00a4e	83 e1 01	 and	 ecx, 1
  00a51	74 3a		 je	 SHORT $LN7@update_att
  00a53	a1 00 00 00 00	 mov	 eax, DWORD PTR ?current_flight_dynamics@@3PAUDYNAMICS_TYPE@@A ; current_flight_dynamics
  00a58	f3 0f 5a 80 20
	1e 00 00	 cvtss2sd xmm0, DWORD PTR [eax+7712]
  00a60	66 0f 2e 05 00
	00 00 00	 ucomisd xmm0, QWORD PTR __real@0000000000000000
  00a68	9f		 lahf
  00a69	f6 c4 44	 test	 ah, 68			; 00000044H
  00a6c	7b 1f		 jnp	 SHORT $LN7@update_att

; 1442 : 		{
; 1443 : 
; 1444 : 			rotor_force *= main_rotor_rpm_value / current_flight_dynamics->main_rotor_rpm.max;

  00a6e	a1 00 00 00 00	 mov	 eax, DWORD PTR ?current_flight_dynamics@@3PAUDYNAMICS_TYPE@@A ; current_flight_dynamics
  00a73	f3 0f 10 85 6c
	ff ff ff	 movss	 xmm0, DWORD PTR _main_rotor_rpm_value$[ebp]
  00a7b	f3 0f 5e 80 20
	1e 00 00	 divss	 xmm0, DWORD PTR [eax+7712]
  00a83	f3 0f 59 45 94	 mulss	 xmm0, DWORD PTR _rotor_force$[ebp]
  00a88	f3 0f 11 45 94	 movss	 DWORD PTR _rotor_force$[ebp], xmm0
$LN7@update_att:

; 1445 : 		}
; 1446 : 
; 1447 : 		position.x = 0.0;

  00a8d	0f 57 c0	 xorps	 xmm0, xmm0
  00a90	f3 0f 11 85 1c
	ff ff ff	 movss	 DWORD PTR _position$[ebp], xmm0

; 1448 : 		position.y = 0.0;

  00a98	0f 57 c0	 xorps	 xmm0, xmm0
  00a9b	f3 0f 11 85 20
	ff ff ff	 movss	 DWORD PTR _position$[ebp+4], xmm0

; 1449 : 		position.z = 0.0;

  00aa3	0f 57 c0	 xorps	 xmm0, xmm0
  00aa6	f3 0f 11 85 24
	ff ff ff	 movss	 DWORD PTR _position$[ebp+8], xmm0

; 1450 : 
; 1451 : 		add_dynamic_force ("Middle rotor force", command_line_dynamics_main_rotor_lift * rotor_force, 0.0, &position, &rotor_direction, FALSE);

  00aae	6a 00		 push	 0
  00ab0	8d 85 04 ff ff
	ff		 lea	 eax, DWORD PTR _rotor_direction$[ebp]
  00ab6	50		 push	 eax
  00ab7	8d 8d 1c ff ff
	ff		 lea	 ecx, DWORD PTR _position$[ebp]
  00abd	51		 push	 ecx
  00abe	51		 push	 ecx
  00abf	0f 57 c0	 xorps	 xmm0, xmm0
  00ac2	f3 0f 11 04 24	 movss	 DWORD PTR [esp], xmm0
  00ac7	f3 0f 10 05 00
	00 00 00	 movss	 xmm0, DWORD PTR ?command_line_dynamics_main_rotor_lift@@3MA
  00acf	f3 0f 59 45 94	 mulss	 xmm0, DWORD PTR _rotor_force$[ebp]
  00ad4	51		 push	 ecx
  00ad5	f3 0f 11 04 24	 movss	 DWORD PTR [esp], xmm0
  00ada	68 00 00 00 00	 push	 OFFSET ??_C@_0BD@BBEFFKGJ@Middle?5rotor?5force@
  00adf	e8 00 00 00 00	 call	 ?add_dynamic_force@@YGXPBDMMPAUVEC3D@@1H@Z ; add_dynamic_force

; 1452 : 	}
; 1453 : 
; 1454 : 	////////////////////////////////////////////
; 1455 : 	// front of rotor disc
; 1456 : 	////////////////////////////////////////////
; 1457 : 	{
; 1458 : 
; 1459 : 		angle = main_rotor_pitch_angle_value;

  00ae4	f3 0f 10 85 70
	ff ff ff	 movss	 xmm0, DWORD PTR _main_rotor_pitch_angle_value$[ebp]
  00aec	f3 0f 11 45 ac	 movss	 DWORD PTR _angle$[ebp], xmm0

; 1460 : 
; 1461 : 		front_rotor_force = rotor_edge_value +

  00af1	f3 0f 5a 45 a8	 cvtss2sd xmm0, DWORD PTR _rotor_edge_value$[ebp]
  00af6	f3 0f 5a 4d ac	 cvtss2sd xmm1, DWORD PTR _angle$[ebp]
  00afb	f2 0f 59 0d 00
	00 00 00	 mulsd	 xmm1, QWORD PTR __real@3fe3333333333333
  00b03	a1 00 00 00 00	 mov	 eax, DWORD PTR ?current_flight_dynamics@@3PAUDYNAMICS_TYPE@@A ; current_flight_dynamics
  00b08	8b 0d 00 00 00
	00		 mov	 ecx, DWORD PTR ?current_flight_dynamics@@3PAUDYNAMICS_TYPE@@A ; current_flight_dynamics
  00b0e	f3 0f 10 90 08
	1e 00 00	 movss	 xmm2, DWORD PTR [eax+7688]
  00b16	f3 0f 5c 91 04
	1e 00 00	 subss	 xmm2, DWORD PTR [ecx+7684]
  00b1e	f3 0f 5a d2	 cvtss2sd xmm2, xmm2
  00b22	f2 0f 5e ca	 divsd	 xmm1, xmm2
  00b26	f2 0f 58 c1	 addsd	 xmm0, xmm1
  00b2a	8b 15 00 00 00
	00		 mov	 edx, DWORD PTR ?current_flight_dynamics@@3PAUDYNAMICS_TYPE@@A ; current_flight_dynamics
  00b30	f3 0f 5a 8a a8
	1b 00 00	 cvtss2sd xmm1, DWORD PTR [edx+7080]
  00b38	f2 0f 59 0d 00
	00 00 00	 mulsd	 xmm1, QWORD PTR __real@3fc999999999999a
  00b40	a1 00 00 00 00	 mov	 eax, DWORD PTR ?current_flight_dynamics@@3PAUDYNAMICS_TYPE@@A ; current_flight_dynamics
  00b45	8b 0d 00 00 00
	00		 mov	 ecx, DWORD PTR ?current_flight_dynamics@@3PAUDYNAMICS_TYPE@@A ; current_flight_dynamics
  00b4b	f3 0f 10 90 b4
	1b 00 00	 movss	 xmm2, DWORD PTR [eax+7092]
  00b53	f3 0f 5c 91 b0
	1b 00 00	 subss	 xmm2, DWORD PTR [ecx+7088]
  00b5b	f3 0f 5a d2	 cvtss2sd xmm2, xmm2
  00b5f	f2 0f 5e ca	 divsd	 xmm1, xmm2
  00b63	f2 0f 58 c1	 addsd	 xmm0, xmm1
  00b67	f2 0f 5a c0	 cvtsd2ss xmm0, xmm0
  00b6b	f3 0f 11 45 90	 movss	 DWORD PTR _front_rotor_force$[ebp], xmm0

; 1462 : 				(0.6 * angle) / (current_flight_dynamics->main_rotor_pitch_angle.max - current_flight_dynamics->main_rotor_pitch_angle.min) +
; 1463 : 				(0.2 * current_flight_dynamics->input_data.collective.value) / (current_flight_dynamics->input_data.collective.max - current_flight_dynamics->input_data.collective.min);
; 1464 : 
; 1465 : 		front_rotor_force *= main_rotor_rpm_value / current_flight_dynamics->main_rotor_rpm.max;

  00b70	a1 00 00 00 00	 mov	 eax, DWORD PTR ?current_flight_dynamics@@3PAUDYNAMICS_TYPE@@A ; current_flight_dynamics
  00b75	f3 0f 10 85 6c
	ff ff ff	 movss	 xmm0, DWORD PTR _main_rotor_rpm_value$[ebp]
  00b7d	f3 0f 5e 80 20
	1e 00 00	 divss	 xmm0, DWORD PTR [eax+7712]
  00b85	f3 0f 59 45 90	 mulss	 xmm0, DWORD PTR _front_rotor_force$[ebp]
  00b8a	f3 0f 11 45 90	 movss	 DWORD PTR _front_rotor_force$[ebp], xmm0

; 1466 : 
; 1467 : 		position.x = 0.0;

  00b8f	0f 57 c0	 xorps	 xmm0, xmm0
  00b92	f3 0f 11 85 1c
	ff ff ff	 movss	 DWORD PTR _position$[ebp], xmm0

; 1468 : 		position.y = 0.0;

  00b9a	0f 57 c0	 xorps	 xmm0, xmm0
  00b9d	f3 0f 11 85 20
	ff ff ff	 movss	 DWORD PTR _position$[ebp+4], xmm0

; 1469 : 		position.z = rotor_radius;

  00ba5	f3 0f 10 45 b0	 movss	 xmm0, DWORD PTR _rotor_radius$[ebp]
  00baa	f3 0f 11 85 24
	ff ff ff	 movss	 DWORD PTR _position$[ebp+8], xmm0

; 1470 : 
; 1471 : 		add_dynamic_force ("Front rotor force", command_line_dynamics_main_rotor_lift * front_rotor_force, 0.0, &position, &rotor_direction, FALSE);

  00bb2	6a 00		 push	 0
  00bb4	8d 85 04 ff ff
	ff		 lea	 eax, DWORD PTR _rotor_direction$[ebp]
  00bba	50		 push	 eax
  00bbb	8d 8d 1c ff ff
	ff		 lea	 ecx, DWORD PTR _position$[ebp]
  00bc1	51		 push	 ecx
  00bc2	51		 push	 ecx
  00bc3	0f 57 c0	 xorps	 xmm0, xmm0
  00bc6	f3 0f 11 04 24	 movss	 DWORD PTR [esp], xmm0
  00bcb	f3 0f 10 05 00
	00 00 00	 movss	 xmm0, DWORD PTR ?command_line_dynamics_main_rotor_lift@@3MA
  00bd3	f3 0f 59 45 90	 mulss	 xmm0, DWORD PTR _front_rotor_force$[ebp]
  00bd8	51		 push	 ecx
  00bd9	f3 0f 11 04 24	 movss	 DWORD PTR [esp], xmm0
  00bde	68 00 00 00 00	 push	 OFFSET ??_C@_0BC@MEMJFFEH@Front?5rotor?5force@
  00be3	e8 00 00 00 00	 call	 ?add_dynamic_force@@YGXPBDMMPAUVEC3D@@1H@Z ; add_dynamic_force

; 1472 : 	}
; 1473 : 	////////////////////////////////////////////
; 1474 : 	// back of rotor disc
; 1475 : 	////////////////////////////////////////////
; 1476 : 	{
; 1477 : 
; 1478 : 		angle = main_rotor_pitch_angle_value;

  00be8	f3 0f 10 85 70
	ff ff ff	 movss	 xmm0, DWORD PTR _main_rotor_pitch_angle_value$[ebp]
  00bf0	f3 0f 11 45 ac	 movss	 DWORD PTR _angle$[ebp], xmm0

; 1479 : 
; 1480 : 		back_rotor_force = rotor_edge_value -

  00bf5	f3 0f 5a 45 a8	 cvtss2sd xmm0, DWORD PTR _rotor_edge_value$[ebp]
  00bfa	f3 0f 5a 4d ac	 cvtss2sd xmm1, DWORD PTR _angle$[ebp]
  00bff	f2 0f 59 0d 00
	00 00 00	 mulsd	 xmm1, QWORD PTR __real@3fe3333333333333
  00c07	a1 00 00 00 00	 mov	 eax, DWORD PTR ?current_flight_dynamics@@3PAUDYNAMICS_TYPE@@A ; current_flight_dynamics
  00c0c	8b 0d 00 00 00
	00		 mov	 ecx, DWORD PTR ?current_flight_dynamics@@3PAUDYNAMICS_TYPE@@A ; current_flight_dynamics
  00c12	f3 0f 10 90 08
	1e 00 00	 movss	 xmm2, DWORD PTR [eax+7688]
  00c1a	f3 0f 5c 91 04
	1e 00 00	 subss	 xmm2, DWORD PTR [ecx+7684]
  00c22	f3 0f 5a d2	 cvtss2sd xmm2, xmm2
  00c26	f2 0f 5e ca	 divsd	 xmm1, xmm2
  00c2a	f2 0f 5c c1	 subsd	 xmm0, xmm1
  00c2e	8b 15 00 00 00
	00		 mov	 edx, DWORD PTR ?current_flight_dynamics@@3PAUDYNAMICS_TYPE@@A ; current_flight_dynamics
  00c34	f3 0f 5a 8a a8
	1b 00 00	 cvtss2sd xmm1, DWORD PTR [edx+7080]
  00c3c	f2 0f 59 0d 00
	00 00 00	 mulsd	 xmm1, QWORD PTR __real@3fc999999999999a
  00c44	a1 00 00 00 00	 mov	 eax, DWORD PTR ?current_flight_dynamics@@3PAUDYNAMICS_TYPE@@A ; current_flight_dynamics
  00c49	8b 0d 00 00 00
	00		 mov	 ecx, DWORD PTR ?current_flight_dynamics@@3PAUDYNAMICS_TYPE@@A ; current_flight_dynamics
  00c4f	f3 0f 10 90 b4
	1b 00 00	 movss	 xmm2, DWORD PTR [eax+7092]
  00c57	f3 0f 5c 91 b0
	1b 00 00	 subss	 xmm2, DWORD PTR [ecx+7088]
  00c5f	f3 0f 5a d2	 cvtss2sd xmm2, xmm2
  00c63	f2 0f 5e ca	 divsd	 xmm1, xmm2
  00c67	f2 0f 58 c1	 addsd	 xmm0, xmm1
  00c6b	f2 0f 5a c0	 cvtsd2ss xmm0, xmm0
  00c6f	f3 0f 11 45 8c	 movss	 DWORD PTR _back_rotor_force$[ebp], xmm0

; 1481 : 				(0.6 * angle) / (current_flight_dynamics->main_rotor_pitch_angle.max - current_flight_dynamics->main_rotor_pitch_angle.min) +
; 1482 : 				(0.2 * current_flight_dynamics->input_data.collective.value) / (current_flight_dynamics->input_data.collective.max - current_flight_dynamics->input_data.collective.min);
; 1483 : 
; 1484 : 		back_rotor_force *= main_rotor_rpm_value / current_flight_dynamics->main_rotor_rpm.max;

  00c74	a1 00 00 00 00	 mov	 eax, DWORD PTR ?current_flight_dynamics@@3PAUDYNAMICS_TYPE@@A ; current_flight_dynamics
  00c79	f3 0f 10 85 6c
	ff ff ff	 movss	 xmm0, DWORD PTR _main_rotor_rpm_value$[ebp]
  00c81	f3 0f 5e 80 20
	1e 00 00	 divss	 xmm0, DWORD PTR [eax+7712]
  00c89	f3 0f 59 45 8c	 mulss	 xmm0, DWORD PTR _back_rotor_force$[ebp]
  00c8e	f3 0f 11 45 8c	 movss	 DWORD PTR _back_rotor_force$[ebp], xmm0

; 1485 : 
; 1486 : 		position.x = 0.0;

  00c93	0f 57 c0	 xorps	 xmm0, xmm0
  00c96	f3 0f 11 85 1c
	ff ff ff	 movss	 DWORD PTR _position$[ebp], xmm0

; 1487 : 		position.y = 0.0;

  00c9e	0f 57 c0	 xorps	 xmm0, xmm0
  00ca1	f3 0f 11 85 20
	ff ff ff	 movss	 DWORD PTR _position$[ebp+4], xmm0

; 1488 : 		position.z = -rotor_radius;

  00ca9	f3 0f 10 45 b0	 movss	 xmm0, DWORD PTR _rotor_radius$[ebp]
  00cae	0f 57 05 00 00
	00 00		 xorps	 xmm0, DWORD PTR __xmm@80000000800000008000000080000000
  00cb5	f3 0f 11 85 24
	ff ff ff	 movss	 DWORD PTR _position$[ebp+8], xmm0

; 1489 : 
; 1490 : 		add_dynamic_force ("Back rotor force", command_line_dynamics_main_rotor_lift * back_rotor_force, 0.0, &position, &rotor_direction, FALSE);

  00cbd	6a 00		 push	 0
  00cbf	8d 85 04 ff ff
	ff		 lea	 eax, DWORD PTR _rotor_direction$[ebp]
  00cc5	50		 push	 eax
  00cc6	8d 8d 1c ff ff
	ff		 lea	 ecx, DWORD PTR _position$[ebp]
  00ccc	51		 push	 ecx
  00ccd	51		 push	 ecx
  00cce	0f 57 c0	 xorps	 xmm0, xmm0
  00cd1	f3 0f 11 04 24	 movss	 DWORD PTR [esp], xmm0
  00cd6	f3 0f 10 05 00
	00 00 00	 movss	 xmm0, DWORD PTR ?command_line_dynamics_main_rotor_lift@@3MA
  00cde	f3 0f 59 45 8c	 mulss	 xmm0, DWORD PTR _back_rotor_force$[ebp]
  00ce3	51		 push	 ecx
  00ce4	f3 0f 11 04 24	 movss	 DWORD PTR [esp], xmm0
  00ce9	68 00 00 00 00	 push	 OFFSET ??_C@_0BB@LJEAAOI@Back?5rotor?5force@
  00cee	e8 00 00 00 00	 call	 ?add_dynamic_force@@YGXPBDMMPAUVEC3D@@1H@Z ; add_dynamic_force

; 1491 : 	}
; 1492 : 	////////////////////////////////////////////
; 1493 : 	// left of rotor disc
; 1494 : 	////////////////////////////////////////////
; 1495 : 	{
; 1496 : 
; 1497 : 		angle = main_rotor_roll_angle_value;

  00cf3	f3 0f 10 85 68
	ff ff ff	 movss	 xmm0, DWORD PTR _main_rotor_roll_angle_value$[ebp]
  00cfb	f3 0f 11 45 ac	 movss	 DWORD PTR _angle$[ebp], xmm0

; 1498 : 
; 1499 : 		left_rotor_force = rotor_edge_value -

  00d00	f3 0f 5a 45 a8	 cvtss2sd xmm0, DWORD PTR _rotor_edge_value$[ebp]
  00d05	f3 0f 5a 4d ac	 cvtss2sd xmm1, DWORD PTR _angle$[ebp]
  00d0a	f2 0f 59 0d 00
	00 00 00	 mulsd	 xmm1, QWORD PTR __real@3fe3333333333333
  00d12	a1 00 00 00 00	 mov	 eax, DWORD PTR ?current_flight_dynamics@@3PAUDYNAMICS_TYPE@@A ; current_flight_dynamics
  00d17	8b 0d 00 00 00
	00		 mov	 ecx, DWORD PTR ?current_flight_dynamics@@3PAUDYNAMICS_TYPE@@A ; current_flight_dynamics
  00d1d	f3 0f 10 90 f0
	1d 00 00	 movss	 xmm2, DWORD PTR [eax+7664]
  00d25	f3 0f 5c 91 ec
	1d 00 00	 subss	 xmm2, DWORD PTR [ecx+7660]
  00d2d	f3 0f 5a d2	 cvtss2sd xmm2, xmm2
  00d31	f2 0f 5e ca	 divsd	 xmm1, xmm2
  00d35	f2 0f 5c c1	 subsd	 xmm0, xmm1
  00d39	8b 15 00 00 00
	00		 mov	 edx, DWORD PTR ?current_flight_dynamics@@3PAUDYNAMICS_TYPE@@A ; current_flight_dynamics
  00d3f	f3 0f 5a 8a a8
	1b 00 00	 cvtss2sd xmm1, DWORD PTR [edx+7080]
  00d47	f2 0f 59 0d 00
	00 00 00	 mulsd	 xmm1, QWORD PTR __real@3fc999999999999a
  00d4f	a1 00 00 00 00	 mov	 eax, DWORD PTR ?current_flight_dynamics@@3PAUDYNAMICS_TYPE@@A ; current_flight_dynamics
  00d54	8b 0d 00 00 00
	00		 mov	 ecx, DWORD PTR ?current_flight_dynamics@@3PAUDYNAMICS_TYPE@@A ; current_flight_dynamics
  00d5a	f3 0f 10 90 b4
	1b 00 00	 movss	 xmm2, DWORD PTR [eax+7092]
  00d62	f3 0f 5c 91 b0
	1b 00 00	 subss	 xmm2, DWORD PTR [ecx+7088]
  00d6a	f3 0f 5a d2	 cvtss2sd xmm2, xmm2
  00d6e	f2 0f 5e ca	 divsd	 xmm1, xmm2
  00d72	f2 0f 58 c1	 addsd	 xmm0, xmm1
  00d76	f2 0f 5a c0	 cvtsd2ss xmm0, xmm0
  00d7a	f3 0f 11 45 88	 movss	 DWORD PTR _left_rotor_force$[ebp], xmm0

; 1500 : 				(0.6 * angle) / (current_flight_dynamics->main_rotor_roll_angle.max - current_flight_dynamics->main_rotor_roll_angle.min) +
; 1501 : 				(0.2 * current_flight_dynamics->input_data.collective.value) / (current_flight_dynamics->input_data.collective.max - current_flight_dynamics->input_data.collective.min);
; 1502 : 
; 1503 : 		left_rotor_force *= main_rotor_rpm_value / current_flight_dynamics->main_rotor_rpm.max;

  00d7f	a1 00 00 00 00	 mov	 eax, DWORD PTR ?current_flight_dynamics@@3PAUDYNAMICS_TYPE@@A ; current_flight_dynamics
  00d84	f3 0f 10 85 6c
	ff ff ff	 movss	 xmm0, DWORD PTR _main_rotor_rpm_value$[ebp]
  00d8c	f3 0f 5e 80 20
	1e 00 00	 divss	 xmm0, DWORD PTR [eax+7712]
  00d94	f3 0f 59 45 88	 mulss	 xmm0, DWORD PTR _left_rotor_force$[ebp]
  00d99	f3 0f 11 45 88	 movss	 DWORD PTR _left_rotor_force$[ebp], xmm0

; 1504 : 
; 1505 : 		position.x = rotor_radius;

  00d9e	f3 0f 10 45 b0	 movss	 xmm0, DWORD PTR _rotor_radius$[ebp]
  00da3	f3 0f 11 85 1c
	ff ff ff	 movss	 DWORD PTR _position$[ebp], xmm0

; 1506 : 		position.y = 0.0;

  00dab	0f 57 c0	 xorps	 xmm0, xmm0
  00dae	f3 0f 11 85 20
	ff ff ff	 movss	 DWORD PTR _position$[ebp+4], xmm0

; 1507 : 		position.z = 0.0;

  00db6	0f 57 c0	 xorps	 xmm0, xmm0
  00db9	f3 0f 11 85 24
	ff ff ff	 movss	 DWORD PTR _position$[ebp+8], xmm0

; 1508 : 
; 1509 : 		add_dynamic_force ("Left rotor force", command_line_dynamics_main_rotor_lift * left_rotor_force, 0.0, &position, &rotor_direction, FALSE);

  00dc1	6a 00		 push	 0
  00dc3	8d 85 04 ff ff
	ff		 lea	 eax, DWORD PTR _rotor_direction$[ebp]
  00dc9	50		 push	 eax
  00dca	8d 8d 1c ff ff
	ff		 lea	 ecx, DWORD PTR _position$[ebp]
  00dd0	51		 push	 ecx
  00dd1	51		 push	 ecx
  00dd2	0f 57 c0	 xorps	 xmm0, xmm0
  00dd5	f3 0f 11 04 24	 movss	 DWORD PTR [esp], xmm0
  00dda	f3 0f 10 05 00
	00 00 00	 movss	 xmm0, DWORD PTR ?command_line_dynamics_main_rotor_lift@@3MA
  00de2	f3 0f 59 45 88	 mulss	 xmm0, DWORD PTR _left_rotor_force$[ebp]
  00de7	51		 push	 ecx
  00de8	f3 0f 11 04 24	 movss	 DWORD PTR [esp], xmm0
  00ded	68 00 00 00 00	 push	 OFFSET ??_C@_0BB@JNCAICOI@Left?5rotor?5force@
  00df2	e8 00 00 00 00	 call	 ?add_dynamic_force@@YGXPBDMMPAUVEC3D@@1H@Z ; add_dynamic_force

; 1510 : 	}
; 1511 : 	////////////////////////////////////////////
; 1512 : 	// right of rotor disc
; 1513 : 	////////////////////////////////////////////
; 1514 : 	{
; 1515 : 
; 1516 : 		angle = main_rotor_roll_angle_value;

  00df7	f3 0f 10 85 68
	ff ff ff	 movss	 xmm0, DWORD PTR _main_rotor_roll_angle_value$[ebp]
  00dff	f3 0f 11 45 ac	 movss	 DWORD PTR _angle$[ebp], xmm0

; 1517 : 
; 1518 : 		right_rotor_force = rotor_edge_value +

  00e04	f3 0f 5a 45 a8	 cvtss2sd xmm0, DWORD PTR _rotor_edge_value$[ebp]
  00e09	f3 0f 5a 4d ac	 cvtss2sd xmm1, DWORD PTR _angle$[ebp]
  00e0e	f2 0f 59 0d 00
	00 00 00	 mulsd	 xmm1, QWORD PTR __real@3fe3333333333333
  00e16	a1 00 00 00 00	 mov	 eax, DWORD PTR ?current_flight_dynamics@@3PAUDYNAMICS_TYPE@@A ; current_flight_dynamics
  00e1b	8b 0d 00 00 00
	00		 mov	 ecx, DWORD PTR ?current_flight_dynamics@@3PAUDYNAMICS_TYPE@@A ; current_flight_dynamics
  00e21	f3 0f 10 90 f0
	1d 00 00	 movss	 xmm2, DWORD PTR [eax+7664]
  00e29	f3 0f 5c 91 ec
	1d 00 00	 subss	 xmm2, DWORD PTR [ecx+7660]
  00e31	f3 0f 5a d2	 cvtss2sd xmm2, xmm2
  00e35	f2 0f 5e ca	 divsd	 xmm1, xmm2
  00e39	f2 0f 58 c1	 addsd	 xmm0, xmm1
  00e3d	8b 15 00 00 00
	00		 mov	 edx, DWORD PTR ?current_flight_dynamics@@3PAUDYNAMICS_TYPE@@A ; current_flight_dynamics
  00e43	f3 0f 5a 8a a8
	1b 00 00	 cvtss2sd xmm1, DWORD PTR [edx+7080]
  00e4b	f2 0f 59 0d 00
	00 00 00	 mulsd	 xmm1, QWORD PTR __real@3fc999999999999a
  00e53	a1 00 00 00 00	 mov	 eax, DWORD PTR ?current_flight_dynamics@@3PAUDYNAMICS_TYPE@@A ; current_flight_dynamics
  00e58	8b 0d 00 00 00
	00		 mov	 ecx, DWORD PTR ?current_flight_dynamics@@3PAUDYNAMICS_TYPE@@A ; current_flight_dynamics
  00e5e	f3 0f 10 90 b4
	1b 00 00	 movss	 xmm2, DWORD PTR [eax+7092]
  00e66	f3 0f 5c 91 b0
	1b 00 00	 subss	 xmm2, DWORD PTR [ecx+7088]
  00e6e	f3 0f 5a d2	 cvtss2sd xmm2, xmm2
  00e72	f2 0f 5e ca	 divsd	 xmm1, xmm2
  00e76	f2 0f 58 c1	 addsd	 xmm0, xmm1
  00e7a	f2 0f 5a c0	 cvtsd2ss xmm0, xmm0
  00e7e	f3 0f 11 45 84	 movss	 DWORD PTR _right_rotor_force$[ebp], xmm0

; 1519 : 				(0.6 * angle) / (current_flight_dynamics->main_rotor_roll_angle.max - current_flight_dynamics->main_rotor_roll_angle.min) +
; 1520 : 				(0.2 * current_flight_dynamics->input_data.collective.value) / (current_flight_dynamics->input_data.collective.max - current_flight_dynamics->input_data.collective.min);
; 1521 : 
; 1522 : 		right_rotor_force *= main_rotor_rpm_value / current_flight_dynamics->main_rotor_rpm.max;

  00e83	a1 00 00 00 00	 mov	 eax, DWORD PTR ?current_flight_dynamics@@3PAUDYNAMICS_TYPE@@A ; current_flight_dynamics
  00e88	f3 0f 10 85 6c
	ff ff ff	 movss	 xmm0, DWORD PTR _main_rotor_rpm_value$[ebp]
  00e90	f3 0f 5e 80 20
	1e 00 00	 divss	 xmm0, DWORD PTR [eax+7712]
  00e98	f3 0f 59 45 84	 mulss	 xmm0, DWORD PTR _right_rotor_force$[ebp]
  00e9d	f3 0f 11 45 84	 movss	 DWORD PTR _right_rotor_force$[ebp], xmm0

; 1523 : 
; 1524 : 		position.x = -rotor_radius;

  00ea2	f3 0f 10 45 b0	 movss	 xmm0, DWORD PTR _rotor_radius$[ebp]
  00ea7	0f 57 05 00 00
	00 00		 xorps	 xmm0, DWORD PTR __xmm@80000000800000008000000080000000
  00eae	f3 0f 11 85 1c
	ff ff ff	 movss	 DWORD PTR _position$[ebp], xmm0

; 1525 : 		position.y = 0.0;

  00eb6	0f 57 c0	 xorps	 xmm0, xmm0
  00eb9	f3 0f 11 85 20
	ff ff ff	 movss	 DWORD PTR _position$[ebp+4], xmm0

; 1526 : 		position.z = 0.0;

  00ec1	0f 57 c0	 xorps	 xmm0, xmm0
  00ec4	f3 0f 11 85 24
	ff ff ff	 movss	 DWORD PTR _position$[ebp+8], xmm0

; 1527 : 
; 1528 : 		add_dynamic_force ("Right rotor force", command_line_dynamics_main_rotor_lift * right_rotor_force, 0.0, &position, &rotor_direction, FALSE);

  00ecc	6a 00		 push	 0
  00ece	8d 85 04 ff ff
	ff		 lea	 eax, DWORD PTR _rotor_direction$[ebp]
  00ed4	50		 push	 eax
  00ed5	8d 8d 1c ff ff
	ff		 lea	 ecx, DWORD PTR _position$[ebp]
  00edb	51		 push	 ecx
  00edc	51		 push	 ecx
  00edd	0f 57 c0	 xorps	 xmm0, xmm0
  00ee0	f3 0f 11 04 24	 movss	 DWORD PTR [esp], xmm0
  00ee5	f3 0f 10 05 00
	00 00 00	 movss	 xmm0, DWORD PTR ?command_line_dynamics_main_rotor_lift@@3MA
  00eed	f3 0f 59 45 84	 mulss	 xmm0, DWORD PTR _right_rotor_force$[ebp]
  00ef2	51		 push	 ecx
  00ef3	f3 0f 11 04 24	 movss	 DWORD PTR [esp], xmm0
  00ef8	68 00 00 00 00	 push	 OFFSET ??_C@_0BC@BCPABIID@Right?5rotor?5force@
  00efd	e8 00 00 00 00	 call	 ?add_dynamic_force@@YGXPBDMMPAUVEC3D@@1H@Z ; add_dynamic_force

; 1529 : 	}
; 1530 : 	////////////////////////////////////////////
; 1531 : 	// tail rotor disc
; 1532 : 	////////////////////////////////////////////
; 1533 : 	{
; 1534 : 		tail_angular_force = tail_rotor_induced_air_value * current_flight_dynamics->tail_boom_length.value;

  00f02	a1 00 00 00 00	 mov	 eax, DWORD PTR ?current_flight_dynamics@@3PAUDYNAMICS_TYPE@@A ; current_flight_dynamics
  00f07	f3 0f 10 85 64
	ff ff ff	 movss	 xmm0, DWORD PTR _tail_rotor_induced_air_value$[ebp]
  00f0f	f3 0f 59 80 ac
	1f 00 00	 mulss	 xmm0, DWORD PTR [eax+8108]
  00f17	f3 0f 11 85 78
	ff ff ff	 movss	 DWORD PTR _tail_angular_force$[ebp], xmm0

; 1535 : 		tail_angular_force *= heading_inertia_value;

  00f1f	f3 0f 10 85 78
	ff ff ff	 movss	 xmm0, DWORD PTR _tail_angular_force$[ebp]
  00f27	f3 0f 59 85 60
	ff ff ff	 mulss	 xmm0, DWORD PTR _heading_inertia_value$[ebp]
  00f2f	f3 0f 11 85 78
	ff ff ff	 movss	 DWORD PTR _tail_angular_force$[ebp], xmm0

; 1536 : 
; 1537 : 		position.x = 0.0;

  00f37	0f 57 c0	 xorps	 xmm0, xmm0
  00f3a	f3 0f 11 85 1c
	ff ff ff	 movss	 DWORD PTR _position$[ebp], xmm0

; 1538 : 		position.y = -0.08022;

  00f42	f3 0f 10 05 00
	00 00 00	 movss	 xmm0, DWORD PTR __real@bda44a62
  00f4a	f3 0f 11 85 20
	ff ff ff	 movss	 DWORD PTR _position$[ebp+4], xmm0

; 1539 : 		position.z = -current_flight_dynamics->tail_boom_length.value;

  00f52	a1 00 00 00 00	 mov	 eax, DWORD PTR ?current_flight_dynamics@@3PAUDYNAMICS_TYPE@@A ; current_flight_dynamics
  00f57	f3 0f 10 80 ac
	1f 00 00	 movss	 xmm0, DWORD PTR [eax+8108]
  00f5f	0f 57 05 00 00
	00 00		 xorps	 xmm0, DWORD PTR __xmm@80000000800000008000000080000000
  00f66	f3 0f 11 85 24
	ff ff ff	 movss	 DWORD PTR _position$[ebp+8], xmm0

; 1540 : 
; 1541 : 		direction.x = current_flight_dynamics->rotor_rotation_direction;

  00f6e	a1 00 00 00 00	 mov	 eax, DWORD PTR ?current_flight_dynamics@@3PAUDYNAMICS_TYPE@@A ; current_flight_dynamics
  00f73	0f bf 88 1c 25
	00 00		 movsx	 ecx, WORD PTR [eax+9500]
  00f7a	f3 0f 2a c1	 cvtsi2ss xmm0, ecx
  00f7e	f3 0f 11 85 10
	ff ff ff	 movss	 DWORD PTR _direction$[ebp], xmm0

; 1542 : 		direction.y = 0.0;

  00f86	0f 57 c0	 xorps	 xmm0, xmm0
  00f89	f3 0f 11 85 14
	ff ff ff	 movss	 DWORD PTR _direction$[ebp+4], xmm0

; 1543 : 		direction.z = 0.0;

  00f91	0f 57 c0	 xorps	 xmm0, xmm0
  00f94	f3 0f 11 85 18
	ff ff ff	 movss	 DWORD PTR _direction$[ebp+8], xmm0

; 1544 : 
; 1545 : 		if (model_landed)

  00f9c	83 7d fc 00	 cmp	 DWORD PTR _model_landed$[ebp], 0
  00fa0	0f 84 a0 00 00
	00		 je	 $LN10@update_att

; 1546 : 		{
; 1547 : 
; 1548 : 			position.y = 0.0;

  00fa6	0f 57 c0	 xorps	 xmm0, xmm0
  00fa9	f3 0f 11 85 20
	ff ff ff	 movss	 DWORD PTR _position$[ebp+4], xmm0

; 1549 : 
; 1550 : 			if ((current_flight_dynamics->input_data.pedal_input_pressure != PEDAL_PRESSURE_LEFT) &&

  00fb1	a1 00 00 00 00	 mov	 eax, DWORD PTR ?current_flight_dynamics@@3PAUDYNAMICS_TYPE@@A ; current_flight_dynamics
  00fb6	83 b8 20 1c 00
	00 01		 cmp	 DWORD PTR [eax+7200], 1
  00fbd	74 1b		 je	 SHORT $LN9@update_att
  00fbf	a1 00 00 00 00	 mov	 eax, DWORD PTR ?current_flight_dynamics@@3PAUDYNAMICS_TYPE@@A ; current_flight_dynamics
  00fc4	83 b8 20 1c 00
	00 02		 cmp	 DWORD PTR [eax+7200], 2
  00fcb	74 0d		 je	 SHORT $LN9@update_att

; 1551 : 				(current_flight_dynamics->input_data.pedal_input_pressure != PEDAL_PRESSURE_RIGHT))
; 1552 : 			{
; 1553 : 
; 1554 : 				tail_angular_force = 0.0;

  00fcd	0f 57 c0	 xorps	 xmm0, xmm0
  00fd0	f3 0f 11 85 78
	ff ff ff	 movss	 DWORD PTR _tail_angular_force$[ebp], xmm0

; 1555 : 			}
; 1556 : 			else

  00fd8	eb 6c		 jmp	 SHORT $LN10@update_att
$LN9@update_att:

; 1557 : 			{
; 1558 : 
; 1559 : 				tail_angular_force *= min (fabs (velocity_z_value) / 15.0, 1.0);

  00fda	f2 0f 10 05 00
	00 00 00	 movsd	 xmm0, QWORD PTR __real@3ff0000000000000
  00fe2	f2 0f 11 85 3c
	fd ff ff	 movsd	 QWORD PTR $T20[ebp], xmm0
  00fea	51		 push	 ecx
  00feb	f3 0f 10 85 48
	ff ff ff	 movss	 xmm0, DWORD PTR _velocity_z_value$[ebp]
  00ff3	f3 0f 11 04 24	 movss	 DWORD PTR [esp], xmm0
  00ff8	e8 00 00 00 00	 call	 ?fabs@@YGMM@Z		; fabs
  00ffd	dd 9d d4 fc ff
	ff		 fstp	 QWORD PTR tv2699[ebp]
  01003	f2 0f 10 85 d4
	fc ff ff	 movsd	 xmm0, QWORD PTR tv2699[ebp]
  0100b	f2 0f 5e 05 00
	00 00 00	 divsd	 xmm0, QWORD PTR __real@402e000000000000
  01013	f2 0f 11 85 34
	fd ff ff	 movsd	 QWORD PTR $T19[ebp], xmm0
  0101b	8d 85 3c fd ff
	ff		 lea	 eax, DWORD PTR $T20[ebp]
  01021	50		 push	 eax
  01022	8d 8d 34 fd ff
	ff		 lea	 ecx, DWORD PTR $T19[ebp]
  01028	51		 push	 ecx
  01029	e8 00 00 00 00	 call	 ??$min@N@std@@YGABNABN0@Z ; std::min<double>
  0102e	f3 0f 5a 85 78
	ff ff ff	 cvtss2sd xmm0, DWORD PTR _tail_angular_force$[ebp]
  01036	f2 0f 59 00	 mulsd	 xmm0, QWORD PTR [eax]
  0103a	f2 0f 5a c0	 cvtsd2ss xmm0, xmm0
  0103e	f3 0f 11 85 78
	ff ff ff	 movss	 DWORD PTR _tail_angular_force$[ebp], xmm0
$LN10@update_att:

; 1560 : 			}
; 1561 : 		}
; 1562 : 
; 1563 : 		add_dynamic_force ("Angular tail rotor force", tail_angular_force, 0.0, &position, &direction, FALSE);

  01046	6a 00		 push	 0
  01048	8d 85 10 ff ff
	ff		 lea	 eax, DWORD PTR _direction$[ebp]
  0104e	50		 push	 eax
  0104f	8d 8d 1c ff ff
	ff		 lea	 ecx, DWORD PTR _position$[ebp]
  01055	51		 push	 ecx
  01056	51		 push	 ecx
  01057	0f 57 c0	 xorps	 xmm0, xmm0
  0105a	f3 0f 11 04 24	 movss	 DWORD PTR [esp], xmm0
  0105f	51		 push	 ecx
  01060	f3 0f 10 85 78
	ff ff ff	 movss	 xmm0, DWORD PTR _tail_angular_force$[ebp]
  01068	f3 0f 11 04 24	 movss	 DWORD PTR [esp], xmm0
  0106d	68 00 00 00 00	 push	 OFFSET ??_C@_0BJ@INGIGFJO@Angular?5tail?5rotor?5force@
  01072	e8 00 00 00 00	 call	 ?add_dynamic_force@@YGXPBDMMPAUVEC3D@@1H@Z ; add_dynamic_force

; 1564 : 	}
; 1565 : 
; 1566 : 	////////////////////////////////////////////
; 1567 : 	// gravity
; 1568 : 	////////////////////////////////////////////
; 1569 : 	{
; 1570 : 
; 1571 : 		float
; 1572 : 			mass_percentage;
; 1573 : 
; 1574 : 		set_flight_dynamics_mass ();

  01077	e8 00 00 00 00	 call	 ?set_flight_dynamics_mass@@YGMXZ ; set_flight_dynamics_mass
  0107c	dd d8		 fstp	 ST(0)

; 1575 : 
; 1576 : 		mass_percentage = current_flight_dynamics->mass.value;

  0107e	a1 00 00 00 00	 mov	 eax, DWORD PTR ?current_flight_dynamics@@3PAUDYNAMICS_TYPE@@A ; current_flight_dynamics
  01083	f3 0f 10 80 b4
	23 00 00	 movss	 xmm0, DWORD PTR [eax+9140]
  0108b	f3 0f 11 85 e8
	fe ff ff	 movss	 DWORD PTR _mass_percentage$66[ebp], xmm0

; 1577 : 		mass_percentage /= (current_flight_dynamics->mass.min + current_flight_dynamics->fuel_weight.max);

  01093	a1 00 00 00 00	 mov	 eax, DWORD PTR ?current_flight_dynamics@@3PAUDYNAMICS_TYPE@@A ; current_flight_dynamics
  01098	8b 0d 00 00 00
	00		 mov	 ecx, DWORD PTR ?current_flight_dynamics@@3PAUDYNAMICS_TYPE@@A ; current_flight_dynamics
  0109e	f3 0f 10 80 bc
	23 00 00	 movss	 xmm0, DWORD PTR [eax+9148]
  010a6	f3 0f 58 81 b0
	24 00 00	 addss	 xmm0, DWORD PTR [ecx+9392]
  010ae	f3 0f 10 8d e8
	fe ff ff	 movss	 xmm1, DWORD PTR _mass_percentage$66[ebp]
  010b6	f3 0f 5e c8	 divss	 xmm1, xmm0
  010ba	f3 0f 11 8d e8
	fe ff ff	 movss	 DWORD PTR _mass_percentage$66[ebp], xmm1

; 1578 : 
; 1579 : 		force = G * mass_percentage;

  010c2	f3 0f 10 05 00
	00 00 00	 movss	 xmm0, DWORD PTR __real@411cf5c3
  010ca	f3 0f 59 85 e8
	fe ff ff	 mulss	 xmm0, DWORD PTR _mass_percentage$66[ebp]
  010d2	f3 0f 11 45 98	 movss	 DWORD PTR _force$[ebp], xmm0

; 1580 : 
; 1581 : 		position.x = current_flight_dynamics->centre_of_gravity.x;

  010d7	a1 00 00 00 00	 mov	 eax, DWORD PTR ?current_flight_dynamics@@3PAUDYNAMICS_TYPE@@A ; current_flight_dynamics
  010dc	f3 0f 10 80 24
	1c 00 00	 movss	 xmm0, DWORD PTR [eax+7204]
  010e4	f3 0f 11 85 1c
	ff ff ff	 movss	 DWORD PTR _position$[ebp], xmm0

; 1582 : 		position.y = current_flight_dynamics->centre_of_gravity.y;

  010ec	a1 00 00 00 00	 mov	 eax, DWORD PTR ?current_flight_dynamics@@3PAUDYNAMICS_TYPE@@A ; current_flight_dynamics
  010f1	f3 0f 10 80 28
	1c 00 00	 movss	 xmm0, DWORD PTR [eax+7208]
  010f9	f3 0f 11 85 20
	ff ff ff	 movss	 DWORD PTR _position$[ebp+4], xmm0

; 1583 : 		position.z = current_flight_dynamics->centre_of_gravity.z;

  01101	a1 00 00 00 00	 mov	 eax, DWORD PTR ?current_flight_dynamics@@3PAUDYNAMICS_TYPE@@A ; current_flight_dynamics
  01106	f3 0f 10 80 2c
	1c 00 00	 movss	 xmm0, DWORD PTR [eax+7212]
  0110e	f3 0f 11 85 24
	ff ff ff	 movss	 DWORD PTR _position$[ebp+8], xmm0

; 1584 : 
; 1585 : 		direction.x = 0.0;

  01116	0f 57 c0	 xorps	 xmm0, xmm0
  01119	f3 0f 11 85 10
	ff ff ff	 movss	 DWORD PTR _direction$[ebp], xmm0

; 1586 : 		direction.y = -1.0;

  01121	f3 0f 10 05 00
	00 00 00	 movss	 xmm0, DWORD PTR __real@bf800000
  01129	f3 0f 11 85 14
	ff ff ff	 movss	 DWORD PTR _direction$[ebp+4], xmm0

; 1587 : 		direction.z = 0.0;

  01131	0f 57 c0	 xorps	 xmm0, xmm0
  01134	f3 0f 11 85 18
	ff ff ff	 movss	 DWORD PTR _direction$[ebp+8], xmm0

; 1588 : 
; 1589 : 		multiply_transpose_matrix3x3_vec3d (&direction, attitude, &direction);

  0113c	8d 85 10 ff ff
	ff		 lea	 eax, DWORD PTR _direction$[ebp]
  01142	50		 push	 eax
  01143	8d 4d b4	 lea	 ecx, DWORD PTR _attitude$[ebp]
  01146	51		 push	 ecx
  01147	8d 95 10 ff ff
	ff		 lea	 edx, DWORD PTR _direction$[ebp]
  0114d	52		 push	 edx
  0114e	e8 00 00 00 00	 call	 ?multiply_transpose_matrix3x3_vec3d@@YGXPAUVEC3D@@QAY02$$CBMPBU1@@Z ; multiply_transpose_matrix3x3_vec3d

; 1590 : 
; 1591 : 		add_dynamic_force ("Gravity", force, 0.0, &position, &direction, FALSE);

  01153	6a 00		 push	 0
  01155	8d 85 10 ff ff
	ff		 lea	 eax, DWORD PTR _direction$[ebp]
  0115b	50		 push	 eax
  0115c	8d 8d 1c ff ff
	ff		 lea	 ecx, DWORD PTR _position$[ebp]
  01162	51		 push	 ecx
  01163	51		 push	 ecx
  01164	0f 57 c0	 xorps	 xmm0, xmm0
  01167	f3 0f 11 04 24	 movss	 DWORD PTR [esp], xmm0
  0116c	51		 push	 ecx
  0116d	f3 0f 10 45 98	 movss	 xmm0, DWORD PTR _force$[ebp]
  01172	f3 0f 11 04 24	 movss	 DWORD PTR [esp], xmm0
  01177	68 00 00 00 00	 push	 OFFSET ??_C@_07JMGDFJEK@Gravity@
  0117c	e8 00 00 00 00	 call	 ?add_dynamic_force@@YGXPBDMMPAUVEC3D@@1H@Z ; add_dynamic_force

; 1592 : 	}
; 1593 : 	/////////////////////////////////////////////////////////////////////////////////////////////////////////////////////////////////
; 1594 : 	// Rotor Aerodynamic Analysis
; 1595 : 	/////////////////////////////////////////////////////////////////////////////////////////////////////////////////////////////////
; 1596 : 
; 1597 : 	{
; 1598 : 		vec3d
; 1599 : 			temp_model_motion_vector;
; 1600 : 
; 1601 : 		temp_model_motion_vector = current_flight_dynamics->model_motion_vector;

  01181	a1 00 00 00 00	 mov	 eax, DWORD PTR ?current_flight_dynamics@@3PAUDYNAMICS_TYPE@@A ; current_flight_dynamics
  01186	05 30 1c 00 00	 add	 eax, 7216		; 00001c30H
  0118b	8b 08		 mov	 ecx, DWORD PTR [eax]
  0118d	89 8d dc fe ff
	ff		 mov	 DWORD PTR _temp_model_motion_vector$65[ebp], ecx
  01193	8b 50 04	 mov	 edx, DWORD PTR [eax+4]
  01196	89 95 e0 fe ff
	ff		 mov	 DWORD PTR _temp_model_motion_vector$65[ebp+4], edx
  0119c	8b 40 08	 mov	 eax, DWORD PTR [eax+8]
  0119f	89 85 e4 fe ff
	ff		 mov	 DWORD PTR _temp_model_motion_vector$65[ebp+8], eax

; 1602 : 		temp_model_motion_vector.y = 0.0;

  011a5	0f 57 c0	 xorps	 xmm0, xmm0
  011a8	f3 0f 11 85 e0
	fe ff ff	 movss	 DWORD PTR _temp_model_motion_vector$65[ebp+4], xmm0

; 1603 : 		horizontal_velocity = (get_3d_vector_magnitude (&temp_model_motion_vector));

  011b0	8d 85 dc fe ff
	ff		 lea	 eax, DWORD PTR _temp_model_motion_vector$65[ebp]
  011b6	50		 push	 eax
  011b7	e8 00 00 00 00	 call	 ?get_3d_vector_magnitude@@YGMPBUVEC3D@@@Z ; get_3d_vector_magnitude
  011bc	d9 9d 44 ff ff
	ff		 fstp	 DWORD PTR _horizontal_velocity$[ebp]

; 1604 : 	}
; 1605 : 
; 1606 : 	////////////////////////////////////////////
; 1607 : 	// Transitional Lift generated by 'Wing' effect
; 1608 : 	////////////////////////////////////////////
; 1609 : 	if ((get_current_dynamics_options (DYNAMICS_OPTIONS_TRANSITIONAL_LIFT)) &&

  011c2	6a 0a		 push	 10			; 0000000aH
  011c4	e8 00 00 00 00	 call	 ?get_current_dynamics_options@@YGHW4DYNAMICS_OPTIONS_TYPES@@@Z ; get_current_dynamics_options
  011c9	85 c0		 test	 eax, eax
  011cb	0f 84 f2 04 00
	00		 je	 $LN11@update_att
  011d1	a1 00 00 00 00	 mov	 eax, DWORD PTR ?current_flight_dynamics@@3PAUDYNAMICS_TYPE@@A ; current_flight_dynamics
  011d6	8b 88 24 25 00
	00		 mov	 ecx, DWORD PTR [eax+9508]
  011dc	83 e1 02	 and	 ecx, 2
  011df	0f 85 de 04 00
	00		 jne	 $LN11@update_att

; 1610 : 		(!(current_flight_dynamics->dynamics_damage & DYNAMICS_DAMAGE_MAIN_ROTOR)))
; 1611 : 	{
; 1612 : 
; 1613 : 		vec3d
; 1614 : 			wind,
; 1615 : 			position,
; 1616 : 			normalised_model_motion_vector;
; 1617 : 
; 1618 : 		float
; 1619 : 			force,
; 1620 : 			vel;
; 1621 : 
; 1622 : 		normalised_model_motion_vector = model_motion_vector;

  011e5	8b 85 ec fe ff
	ff		 mov	 eax, DWORD PTR _model_motion_vector$[ebp]
  011eb	89 85 b8 fe ff
	ff		 mov	 DWORD PTR _normalised_model_motion_vector$62[ebp], eax
  011f1	8b 8d f0 fe ff
	ff		 mov	 ecx, DWORD PTR _model_motion_vector$[ebp+4]
  011f7	89 8d bc fe ff
	ff		 mov	 DWORD PTR _normalised_model_motion_vector$62[ebp+4], ecx
  011fd	8b 95 f4 fe ff
	ff		 mov	 edx, DWORD PTR _model_motion_vector$[ebp+8]
  01203	89 95 c0 fe ff
	ff		 mov	 DWORD PTR _normalised_model_motion_vector$62[ebp+8], edx

; 1623 : 
; 1624 : 		position.x = current_flight_dynamics->position.x;

  01209	a1 00 00 00 00	 mov	 eax, DWORD PTR ?current_flight_dynamics@@3PAUDYNAMICS_TYPE@@A ; current_flight_dynamics
  0120e	f2 0f 5a 80 ac
	00 00 00	 cvtsd2ss xmm0, QWORD PTR [eax+172]
  01216	f3 0f 11 85 c4
	fe ff ff	 movss	 DWORD PTR _position$63[ebp], xmm0

; 1625 : 		position.y = current_flight_dynamics->position.y;

  0121e	a1 00 00 00 00	 mov	 eax, DWORD PTR ?current_flight_dynamics@@3PAUDYNAMICS_TYPE@@A ; current_flight_dynamics
  01223	f2 0f 5a 80 b4
	00 00 00	 cvtsd2ss xmm0, QWORD PTR [eax+180]
  0122b	f3 0f 11 85 c8
	fe ff ff	 movss	 DWORD PTR _position$63[ebp+4], xmm0

; 1626 : 		position.z = current_flight_dynamics->position.z;

  01233	a1 00 00 00 00	 mov	 eax, DWORD PTR ?current_flight_dynamics@@3PAUDYNAMICS_TYPE@@A ; current_flight_dynamics
  01238	f2 0f 5a 80 bc
	00 00 00	 cvtsd2ss xmm0, QWORD PTR [eax+188]
  01240	f3 0f 11 85 cc
	fe ff ff	 movss	 DWORD PTR _position$63[ebp+8], xmm0

; 1627 : 
; 1628 : 		if (get_current_dynamics_options (DYNAMICS_OPTIONS_WIND))

  01248	6a 0c		 push	 12			; 0000000cH
  0124a	e8 00 00 00 00	 call	 ?get_current_dynamics_options@@YGHW4DYNAMICS_OPTIONS_TYPES@@@Z ; get_current_dynamics_options
  0124f	85 c0		 test	 eax, eax
  01251	74 7d		 je	 SHORT $LN12@update_att

; 1629 : 		{
; 1630 : 
; 1631 : 			get_session_wind_velocity_at_point (&position, &wind);

  01253	8d 85 d0 fe ff
	ff		 lea	 eax, DWORD PTR _wind$64[ebp]
  01259	50		 push	 eax
  0125a	8d 8d c4 fe ff
	ff		 lea	 ecx, DWORD PTR _position$63[ebp]
  01260	51		 push	 ecx
  01261	e8 00 00 00 00	 call	 ?get_session_wind_velocity_at_point@@YGMPAUVEC3D@@0@Z ; get_session_wind_velocity_at_point
  01266	dd d8		 fstp	 ST(0)

; 1632 : 
; 1633 : 			multiply_transpose_matrix3x3_vec3d (&wind, current_flight_dynamics->attitude, &wind);

  01268	8d 85 d0 fe ff
	ff		 lea	 eax, DWORD PTR _wind$64[ebp]
  0126e	50		 push	 eax
  0126f	8b 0d 00 00 00
	00		 mov	 ecx, DWORD PTR ?current_flight_dynamics@@3PAUDYNAMICS_TYPE@@A ; current_flight_dynamics
  01275	81 c1 d0 00 00
	00		 add	 ecx, 208		; 000000d0H
  0127b	51		 push	 ecx
  0127c	8d 95 d0 fe ff
	ff		 lea	 edx, DWORD PTR _wind$64[ebp]
  01282	52		 push	 edx
  01283	e8 00 00 00 00	 call	 ?multiply_transpose_matrix3x3_vec3d@@YGXPAUVEC3D@@QAY02$$CBMPBU1@@Z ; multiply_transpose_matrix3x3_vec3d

; 1634 : 
; 1635 : 			normalised_model_motion_vector.x -= wind.x;

  01288	f3 0f 10 85 b8
	fe ff ff	 movss	 xmm0, DWORD PTR _normalised_model_motion_vector$62[ebp]
  01290	f3 0f 5c 85 d0
	fe ff ff	 subss	 xmm0, DWORD PTR _wind$64[ebp]
  01298	f3 0f 11 85 b8
	fe ff ff	 movss	 DWORD PTR _normalised_model_motion_vector$62[ebp], xmm0

; 1636 : 			normalised_model_motion_vector.y -= wind.y;

  012a0	f3 0f 10 85 bc
	fe ff ff	 movss	 xmm0, DWORD PTR _normalised_model_motion_vector$62[ebp+4]
  012a8	f3 0f 5c 85 d4
	fe ff ff	 subss	 xmm0, DWORD PTR _wind$64[ebp+4]
  012b0	f3 0f 11 85 bc
	fe ff ff	 movss	 DWORD PTR _normalised_model_motion_vector$62[ebp+4], xmm0

; 1637 : 			normalised_model_motion_vector.z -= wind.z;

  012b8	f3 0f 10 85 c0
	fe ff ff	 movss	 xmm0, DWORD PTR _normalised_model_motion_vector$62[ebp+8]
  012c0	f3 0f 5c 85 d8
	fe ff ff	 subss	 xmm0, DWORD PTR _wind$64[ebp+8]
  012c8	f3 0f 11 85 c0
	fe ff ff	 movss	 DWORD PTR _normalised_model_motion_vector$62[ebp+8], xmm0
$LN12@update_att:

; 1638 : 		}
; 1639 : 
; 1640 : 		normalised_model_motion_vector.y = 0.0;

  012d0	0f 57 c0	 xorps	 xmm0, xmm0
  012d3	f3 0f 11 85 bc
	fe ff ff	 movss	 DWORD PTR _normalised_model_motion_vector$62[ebp+4], xmm0

; 1641 : 
; 1642 : 		vel = normalise_any_3d_vector (&normalised_model_motion_vector);

  012db	8d 85 b8 fe ff
	ff		 lea	 eax, DWORD PTR _normalised_model_motion_vector$62[ebp]
  012e1	50		 push	 eax
  012e2	e8 00 00 00 00	 call	 ?normalise_any_3d_vector@@YGMPAUVEC3D@@@Z ; normalise_any_3d_vector
  012e7	d9 9d b0 fe ff
	ff		 fstp	 DWORD PTR _vel$60[ebp]

; 1643 : 
; 1644 : 		// * 3 because induced air at normal is 9 and max is about 26... needs to scale 0.0 -> 1.0
; 1645 : 		vel *= min (fabs ((3.0 * current_flight_dynamics->main_rotor_induced_air.value) / (current_flight_dynamics->main_rotor_induced_air.max - current_flight_dynamics->main_rotor_induced_air.min)), 1.0);

  012ed	f2 0f 10 05 00
	00 00 00	 movsd	 xmm0, QWORD PTR __real@3ff0000000000000
  012f5	f2 0f 11 85 2c
	fd ff ff	 movsd	 QWORD PTR $T18[ebp], xmm0
  012fd	a1 00 00 00 00	 mov	 eax, DWORD PTR ?current_flight_dynamics@@3PAUDYNAMICS_TYPE@@A ; current_flight_dynamics
  01302	f3 0f 5a 80 6c
	1d 00 00	 cvtss2sd xmm0, DWORD PTR [eax+7532]
  0130a	f2 0f 59 05 00
	00 00 00	 mulsd	 xmm0, QWORD PTR __real@4008000000000000
  01312	8b 0d 00 00 00
	00		 mov	 ecx, DWORD PTR ?current_flight_dynamics@@3PAUDYNAMICS_TYPE@@A ; current_flight_dynamics
  01318	8b 15 00 00 00
	00		 mov	 edx, DWORD PTR ?current_flight_dynamics@@3PAUDYNAMICS_TYPE@@A ; current_flight_dynamics
  0131e	f3 0f 10 89 78
	1d 00 00	 movss	 xmm1, DWORD PTR [ecx+7544]
  01326	f3 0f 5c 8a 74
	1d 00 00	 subss	 xmm1, DWORD PTR [edx+7540]
  0132e	f3 0f 5a c9	 cvtss2sd xmm1, xmm1
  01332	f2 0f 5e c1	 divsd	 xmm0, xmm1
  01336	83 ec 08	 sub	 esp, 8
  01339	f2 0f 11 04 24	 movsd	 QWORD PTR [esp], xmm0
  0133e	e8 00 00 00 00	 call	 _fabs
  01343	83 c4 08	 add	 esp, 8
  01346	dd 9d 24 fd ff
	ff		 fstp	 QWORD PTR $T17[ebp]
  0134c	8d 85 2c fd ff
	ff		 lea	 eax, DWORD PTR $T18[ebp]
  01352	50		 push	 eax
  01353	8d 8d 24 fd ff
	ff		 lea	 ecx, DWORD PTR $T17[ebp]
  01359	51		 push	 ecx
  0135a	e8 00 00 00 00	 call	 ??$min@N@std@@YGABNABN0@Z ; std::min<double>
  0135f	f3 0f 5a 85 b0
	fe ff ff	 cvtss2sd xmm0, DWORD PTR _vel$60[ebp]
  01367	f2 0f 59 00	 mulsd	 xmm0, QWORD PTR [eax]
  0136b	f2 0f 5a c0	 cvtsd2ss xmm0, xmm0
  0136f	f3 0f 11 85 b0
	fe ff ff	 movss	 DWORD PTR _vel$60[ebp], xmm0

; 1646 : 
; 1647 : 		if (vel >= current_flight_dynamics->translational_lift.min)

  01377	a1 00 00 00 00	 mov	 eax, DWORD PTR ?current_flight_dynamics@@3PAUDYNAMICS_TYPE@@A ; current_flight_dynamics
  0137c	f3 0f 10 85 b0
	fe ff ff	 movss	 xmm0, DWORD PTR _vel$60[ebp]
  01384	0f 2f 80 c4 21
	00 00		 comiss	 xmm0, DWORD PTR [eax+8644]
  0138b	0f 82 57 01 00
	00		 jb	 $LN13@update_att

; 1648 : 		{
; 1649 : 
; 1650 : 			if (vel <= current_flight_dynamics->translational_lift.max)

  01391	a1 00 00 00 00	 mov	 eax, DWORD PTR ?current_flight_dynamics@@3PAUDYNAMICS_TYPE@@A ; current_flight_dynamics
  01396	f3 0f 10 80 c8
	21 00 00	 movss	 xmm0, DWORD PTR [eax+8648]
  0139e	0f 2f 85 b0 fe
	ff ff		 comiss	 xmm0, DWORD PTR _vel$60[ebp]
  013a5	72 4c		 jb	 SHORT $LN14@update_att

; 1651 : 			{
; 1652 : 
; 1653 : 				force = (current_flight_dynamics->translational_lift.value * (vel - current_flight_dynamics->translational_lift.min)) / (current_flight_dynamics->translational_lift.max - current_flight_dynamics->translational_lift.min);

  013a7	a1 00 00 00 00	 mov	 eax, DWORD PTR ?current_flight_dynamics@@3PAUDYNAMICS_TYPE@@A ; current_flight_dynamics
  013ac	f3 0f 10 85 b0
	fe ff ff	 movss	 xmm0, DWORD PTR _vel$60[ebp]
  013b4	f3 0f 5c 80 c4
	21 00 00	 subss	 xmm0, DWORD PTR [eax+8644]
  013bc	8b 0d 00 00 00
	00		 mov	 ecx, DWORD PTR ?current_flight_dynamics@@3PAUDYNAMICS_TYPE@@A ; current_flight_dynamics
  013c2	f3 0f 59 81 bc
	21 00 00	 mulss	 xmm0, DWORD PTR [ecx+8636]
  013ca	8b 15 00 00 00
	00		 mov	 edx, DWORD PTR ?current_flight_dynamics@@3PAUDYNAMICS_TYPE@@A ; current_flight_dynamics
  013d0	a1 00 00 00 00	 mov	 eax, DWORD PTR ?current_flight_dynamics@@3PAUDYNAMICS_TYPE@@A ; current_flight_dynamics
  013d5	f3 0f 10 8a c8
	21 00 00	 movss	 xmm1, DWORD PTR [edx+8648]
  013dd	f3 0f 5c 88 c4
	21 00 00	 subss	 xmm1, DWORD PTR [eax+8644]
  013e5	f3 0f 5e c1	 divss	 xmm0, xmm1
  013e9	f3 0f 11 85 b4
	fe ff ff	 movss	 DWORD PTR _force$61[ebp], xmm0

; 1654 : 			}
; 1655 : 			else

  013f1	eb 15		 jmp	 SHORT $LN15@update_att
$LN14@update_att:

; 1656 : 			{
; 1657 : 
; 1658 : 				force = current_flight_dynamics->translational_lift.value;

  013f3	a1 00 00 00 00	 mov	 eax, DWORD PTR ?current_flight_dynamics@@3PAUDYNAMICS_TYPE@@A ; current_flight_dynamics
  013f8	f3 0f 10 80 bc
	21 00 00	 movss	 xmm0, DWORD PTR [eax+8636]
  01400	f3 0f 11 85 b4
	fe ff ff	 movss	 DWORD PTR _force$61[ebp], xmm0
$LN15@update_att:

; 1659 : 			}
; 1660 : 
; 1661 : 			position.x = (current_flight_dynamics->translational_lift.modifier * current_flight_dynamics->main_rotor_diameter.value / 2.0) * normalised_model_motion_vector.x;

  01408	a1 00 00 00 00	 mov	 eax, DWORD PTR ?current_flight_dynamics@@3PAUDYNAMICS_TYPE@@A ; current_flight_dynamics
  0140d	8b 0d 00 00 00
	00		 mov	 ecx, DWORD PTR ?current_flight_dynamics@@3PAUDYNAMICS_TYPE@@A ; current_flight_dynamics
  01413	f3 0f 10 80 b8
	21 00 00	 movss	 xmm0, DWORD PTR [eax+8632]
  0141b	f3 0f 59 81 9c
	1d 00 00	 mulss	 xmm0, DWORD PTR [ecx+7580]
  01423	f3 0f 5a c0	 cvtss2sd xmm0, xmm0
  01427	f2 0f 5e 05 00
	00 00 00	 divsd	 xmm0, QWORD PTR __real@4000000000000000
  0142f	f3 0f 5a 8d b8
	fe ff ff	 cvtss2sd xmm1, DWORD PTR _normalised_model_motion_vector$62[ebp]
  01437	f2 0f 59 c1	 mulsd	 xmm0, xmm1
  0143b	f2 0f 5a c0	 cvtsd2ss xmm0, xmm0
  0143f	f3 0f 11 85 c4
	fe ff ff	 movss	 DWORD PTR _position$63[ebp], xmm0

; 1662 : 			position.y = 0.0;

  01447	0f 57 c0	 xorps	 xmm0, xmm0
  0144a	f3 0f 11 85 c8
	fe ff ff	 movss	 DWORD PTR _position$63[ebp+4], xmm0

; 1663 : 			position.z = (current_flight_dynamics->translational_lift.modifier * current_flight_dynamics->main_rotor_diameter.value / 2.0) * normalised_model_motion_vector.z;

  01452	a1 00 00 00 00	 mov	 eax, DWORD PTR ?current_flight_dynamics@@3PAUDYNAMICS_TYPE@@A ; current_flight_dynamics
  01457	8b 0d 00 00 00
	00		 mov	 ecx, DWORD PTR ?current_flight_dynamics@@3PAUDYNAMICS_TYPE@@A ; current_flight_dynamics
  0145d	f3 0f 10 80 b8
	21 00 00	 movss	 xmm0, DWORD PTR [eax+8632]
  01465	f3 0f 59 81 9c
	1d 00 00	 mulss	 xmm0, DWORD PTR [ecx+7580]
  0146d	f3 0f 5a c0	 cvtss2sd xmm0, xmm0
  01471	f2 0f 5e 05 00
	00 00 00	 divsd	 xmm0, QWORD PTR __real@4000000000000000
  01479	f3 0f 5a 8d c0
	fe ff ff	 cvtss2sd xmm1, DWORD PTR _normalised_model_motion_vector$62[ebp+8]
  01481	f2 0f 59 c1	 mulsd	 xmm0, xmm1
  01485	f2 0f 5a c0	 cvtsd2ss xmm0, xmm0
  01489	f3 0f 11 85 cc
	fe ff ff	 movss	 DWORD PTR _position$63[ebp+8], xmm0

; 1664 : 
; 1665 : 			direction.x = 0.0;

  01491	0f 57 c0	 xorps	 xmm0, xmm0
  01494	f3 0f 11 85 10
	ff ff ff	 movss	 DWORD PTR _direction$[ebp], xmm0

; 1666 : 			direction.y = 1.0;

  0149c	f3 0f 10 05 00
	00 00 00	 movss	 xmm0, DWORD PTR __real@3f800000
  014a4	f3 0f 11 85 14
	ff ff ff	 movss	 DWORD PTR _direction$[ebp+4], xmm0

; 1667 : 			direction.z = 0.0;

  014ac	0f 57 c0	 xorps	 xmm0, xmm0
  014af	f3 0f 11 85 18
	ff ff ff	 movss	 DWORD PTR _direction$[ebp+8], xmm0

; 1668 : 
; 1669 : 			add_dynamic_force ("Transitional lift", force, 0.0, &position, &direction, FALSE);

  014b7	6a 00		 push	 0
  014b9	8d 85 10 ff ff
	ff		 lea	 eax, DWORD PTR _direction$[ebp]
  014bf	50		 push	 eax
  014c0	8d 8d c4 fe ff
	ff		 lea	 ecx, DWORD PTR _position$63[ebp]
  014c6	51		 push	 ecx
  014c7	51		 push	 ecx
  014c8	0f 57 c0	 xorps	 xmm0, xmm0
  014cb	f3 0f 11 04 24	 movss	 DWORD PTR [esp], xmm0
  014d0	51		 push	 ecx
  014d1	f3 0f 10 85 b4
	fe ff ff	 movss	 xmm0, DWORD PTR _force$61[ebp]
  014d9	f3 0f 11 04 24	 movss	 DWORD PTR [esp], xmm0
  014de	68 00 00 00 00	 push	 OFFSET ??_C@_0BC@GCGACPAK@Transitional?5lift@
  014e3	e8 00 00 00 00	 call	 ?add_dynamic_force@@YGXPBDMMPAUVEC3D@@1H@Z ; add_dynamic_force
$LN13@update_att:

; 1670 : 			/*
; 1671 : 			// debug
; 1672 : 			{
; 1673 : 				multiply_matrix3x3_vec3d (&position, current_flight_dynamics->attitude, &position);
; 1674 : 
; 1675 : 				multiply_matrix3x3_vec3d (&direction, current_flight_dynamics->attitude, &direction);
; 1676 : 
; 1677 : 				position.x += current_flight_dynamics->position.x;
; 1678 : 				position.y += current_flight_dynamics->position.y;
; 1679 : 				position.z += current_flight_dynamics->position.z;
; 1680 : 
; 1681 : 				create_vectored_debug_3d_object (&position, &direction, OBJECT_3D_ARROW_FORCES, 0, 10.0);
; 1682 : 			}
; 1683 : 			// debug
; 1684 : 			*/
; 1685 : 		}
; 1686 : 		{
; 1687 : 			float
; 1688 : 				motion_vector_pitch;
; 1689 : 
; 1690 : 			vec3d
; 1691 : 				normalised_world_motion_vector;
; 1692 : 
; 1693 : 			normalised_world_motion_vector = world_motion_vector;

  014e8	8b 85 f8 fe ff
	ff		 mov	 eax, DWORD PTR _world_motion_vector$[ebp]
  014ee	89 85 a0 fe ff
	ff		 mov	 DWORD PTR _normalised_world_motion_vector$58[ebp], eax
  014f4	8b 8d fc fe ff
	ff		 mov	 ecx, DWORD PTR _world_motion_vector$[ebp+4]
  014fa	89 8d a4 fe ff
	ff		 mov	 DWORD PTR _normalised_world_motion_vector$58[ebp+4], ecx
  01500	8b 95 00 ff ff
	ff		 mov	 edx, DWORD PTR _world_motion_vector$[ebp+8]
  01506	89 95 a8 fe ff
	ff		 mov	 DWORD PTR _normalised_world_motion_vector$58[ebp+8], edx

; 1694 : 			normalise_any_3d_vector (&normalised_world_motion_vector);

  0150c	8d 85 a0 fe ff
	ff		 lea	 eax, DWORD PTR _normalised_world_motion_vector$58[ebp]
  01512	50		 push	 eax
  01513	e8 00 00 00 00	 call	 ?normalise_any_3d_vector@@YGMPAUVEC3D@@@Z ; normalise_any_3d_vector
  01518	dd d8		 fstp	 ST(0)

; 1695 : 
; 1696 : 			motion_vector_pitch = asin (normalised_world_motion_vector.y) - aircraft_database [current_flight_dynamics->sub_type].main_rotor_shaft_angle;

  0151a	51		 push	 ecx
  0151b	f3 0f 10 85 a4
	fe ff ff	 movss	 xmm0, DWORD PTR _normalised_world_motion_vector$58[ebp+4]
  01523	f3 0f 11 04 24	 movss	 DWORD PTR [esp], xmm0
  01528	e8 00 00 00 00	 call	 ?asin@@YGMM@Z		; asin
  0152d	d9 9d d8 fc ff
	ff		 fstp	 DWORD PTR tv2825[ebp]
  01533	f3 0f 10 85 d8
	fc ff ff	 movss	 xmm0, DWORD PTR tv2825[ebp]
  0153b	a1 00 00 00 00	 mov	 eax, DWORD PTR ?current_flight_dynamics@@3PAUDYNAMICS_TYPE@@A ; current_flight_dynamics
  01540	69 48 04 f4 00
	00 00		 imul	 ecx, DWORD PTR [eax+4], 244
  01547	f3 0f 5c 81 88
	00 00 00	 subss	 xmm0, DWORD PTR ?aircraft_database@@3PAUAIRCRAFT_DATA@@A[ecx+136]
  0154f	f3 0f 11 85 ac
	fe ff ff	 movss	 DWORD PTR _motion_vector_pitch$59[ebp], xmm0

; 1697 : 
; 1698 : 			if (current_flight_dynamics->model_motion_vector.z < 0.0)

  01557	a1 00 00 00 00	 mov	 eax, DWORD PTR ?current_flight_dynamics@@3PAUDYNAMICS_TYPE@@A ; current_flight_dynamics
  0155c	f3 0f 5a 80 38
	1c 00 00	 cvtss2sd xmm0, DWORD PTR [eax+7224]
  01564	0f 57 c9	 xorps	 xmm1, xmm1
  01567	66 0f 2f c8	 comisd	 xmm1, xmm0
  0156b	76 1c		 jbe	 SHORT $LN16@update_att

; 1699 : 				pitch_value *= -1.0;

  0156d	f3 0f 5a 85 54
	ff ff ff	 cvtss2sd xmm0, DWORD PTR _pitch_value$[ebp]
  01575	f2 0f 59 05 00
	00 00 00	 mulsd	 xmm0, QWORD PTR __real@bff0000000000000
  0157d	f2 0f 5a c0	 cvtsd2ss xmm0, xmm0
  01581	f3 0f 11 85 54
	ff ff ff	 movss	 DWORD PTR _pitch_value$[ebp], xmm0
$LN16@update_att:

; 1700 : 
; 1701 : 			force = horizontal_velocity *

  01589	f3 0f 10 85 54
	ff ff ff	 movss	 xmm0, DWORD PTR _pitch_value$[ebp]
  01591	f3 0f 58 85 70
	ff ff ff	 addss	 xmm0, DWORD PTR _main_rotor_pitch_angle_value$[ebp]
  01599	f3 0f 5c 85 ac
	fe ff ff	 subss	 xmm0, DWORD PTR _motion_vector_pitch$59[ebp]
  015a1	f3 0f 59 85 44
	ff ff ff	 mulss	 xmm0, DWORD PTR _horizontal_velocity$[ebp]
  015a9	f3 0f 11 85 b4
	fe ff ff	 movss	 DWORD PTR _force$61[ebp], xmm0

; 1702 : 						((pitch_value +
; 1703 : 						main_rotor_pitch_angle_value) -
; 1704 : 						motion_vector_pitch);
; 1705 : 
; 1706 : 			force = max (force, 0.0f);

  015b1	0f 57 c0	 xorps	 xmm0, xmm0
  015b4	f3 0f 11 85 20
	fd ff ff	 movss	 DWORD PTR $T16[ebp], xmm0
  015bc	8d 85 20 fd ff
	ff		 lea	 eax, DWORD PTR $T16[ebp]
  015c2	50		 push	 eax
  015c3	8d 8d b4 fe ff
	ff		 lea	 ecx, DWORD PTR _force$61[ebp]
  015c9	51		 push	 ecx
  015ca	e8 00 00 00 00	 call	 ??$max@M@std@@YGABMABM0@Z ; std::max<float>
  015cf	f3 0f 10 00	 movss	 xmm0, DWORD PTR [eax]
  015d3	f3 0f 11 85 b4
	fe ff ff	 movss	 DWORD PTR _force$61[ebp], xmm0

; 1707 : 
; 1708 : 			position.x = -0.4 * sin (main_blade_x_pitch_value);

  015db	51		 push	 ecx
  015dc	f3 0f 10 85 50
	ff ff ff	 movss	 xmm0, DWORD PTR _main_blade_x_pitch_value$[ebp]
  015e4	f3 0f 11 04 24	 movss	 DWORD PTR [esp], xmm0
  015e9	e8 00 00 00 00	 call	 ?sin@@YGMM@Z		; sin
  015ee	dd 9d d4 fc ff
	ff		 fstp	 QWORD PTR tv2842[ebp]
  015f4	f2 0f 10 85 d4
	fc ff ff	 movsd	 xmm0, QWORD PTR tv2842[ebp]
  015fc	f2 0f 59 05 00
	00 00 00	 mulsd	 xmm0, QWORD PTR __real@bfd999999999999a
  01604	f2 0f 5a c0	 cvtsd2ss xmm0, xmm0
  01608	f3 0f 11 85 c4
	fe ff ff	 movss	 DWORD PTR _position$63[ebp], xmm0

; 1709 : 			position.y = 0.0;

  01610	0f 57 c0	 xorps	 xmm0, xmm0
  01613	f3 0f 11 85 c8
	fe ff ff	 movss	 DWORD PTR _position$63[ebp+4], xmm0

; 1710 : 			position.z = 0.4 * sin (main_blade_y_pitch_value);

  0161b	51		 push	 ecx
  0161c	f3 0f 10 85 4c
	ff ff ff	 movss	 xmm0, DWORD PTR _main_blade_y_pitch_value$[ebp]
  01624	f3 0f 11 04 24	 movss	 DWORD PTR [esp], xmm0
  01629	e8 00 00 00 00	 call	 ?sin@@YGMM@Z		; sin
  0162e	dd 9d d4 fc ff
	ff		 fstp	 QWORD PTR tv2851[ebp]
  01634	f2 0f 10 85 d4
	fc ff ff	 movsd	 xmm0, QWORD PTR tv2851[ebp]
  0163c	f2 0f 59 05 00
	00 00 00	 mulsd	 xmm0, QWORD PTR __real@3fd999999999999a
  01644	f2 0f 5a c0	 cvtsd2ss xmm0, xmm0
  01648	f3 0f 11 85 cc
	fe ff ff	 movss	 DWORD PTR _position$63[ebp+8], xmm0

; 1711 : 
; 1712 : 			direction.x = 0.0;

  01650	0f 57 c0	 xorps	 xmm0, xmm0
  01653	f3 0f 11 85 10
	ff ff ff	 movss	 DWORD PTR _direction$[ebp], xmm0

; 1713 : 			direction.y = 1.0;

  0165b	f3 0f 10 05 00
	00 00 00	 movss	 xmm0, DWORD PTR __real@3f800000
  01663	f3 0f 11 85 14
	ff ff ff	 movss	 DWORD PTR _direction$[ebp+4], xmm0

; 1714 : 			direction.z = 0.0;

  0166b	0f 57 c0	 xorps	 xmm0, xmm0
  0166e	f3 0f 11 85 18
	ff ff ff	 movss	 DWORD PTR _direction$[ebp+8], xmm0

; 1715 : 
; 1716 : 			// arneh - this force seems too strong, impossible to decend faster than
; 1717 : 			// about 7-8 m/s by default with forward speed. So reduce it a little
; 1718 : 			force *= 0.9;

  01676	f3 0f 5a 85 b4
	fe ff ff	 cvtss2sd xmm0, DWORD PTR _force$61[ebp]
  0167e	f2 0f 59 05 00
	00 00 00	 mulsd	 xmm0, QWORD PTR __real@3feccccccccccccd
  01686	f2 0f 5a c0	 cvtsd2ss xmm0, xmm0
  0168a	f3 0f 11 85 b4
	fe ff ff	 movss	 DWORD PTR _force$61[ebp], xmm0

; 1719 : 			add_dynamic_force ("Transitional lift", force, 0.0, &position, &direction, FALSE);

  01692	6a 00		 push	 0
  01694	8d 85 10 ff ff
	ff		 lea	 eax, DWORD PTR _direction$[ebp]
  0169a	50		 push	 eax
  0169b	8d 8d c4 fe ff
	ff		 lea	 ecx, DWORD PTR _position$63[ebp]
  016a1	51		 push	 ecx
  016a2	51		 push	 ecx
  016a3	0f 57 c0	 xorps	 xmm0, xmm0
  016a6	f3 0f 11 04 24	 movss	 DWORD PTR [esp], xmm0
  016ab	51		 push	 ecx
  016ac	f3 0f 10 85 b4
	fe ff ff	 movss	 xmm0, DWORD PTR _force$61[ebp]
  016b4	f3 0f 11 04 24	 movss	 DWORD PTR [esp], xmm0
  016b9	68 00 00 00 00	 push	 OFFSET ??_C@_0BC@GCGACPAK@Transitional?5lift@
  016be	e8 00 00 00 00	 call	 ?add_dynamic_force@@YGXPBDMMPAUVEC3D@@1H@Z ; add_dynamic_force
$LN11@update_att:

; 1720 : 		}
; 1721 : 	}
; 1722 : 
; 1723 : 	/////////////////////////////////////////////////////////////////////////////////////////////////////////////////////////////////
; 1724 : 	// Secondary effects
; 1725 : 	/////////////////////////////////////////////////////////////////////////////////////////////////////////////////////////////////
; 1726 : 
; 1727 : 	////////////////////////////////////////////
; 1728 : 	// Retreating blade lift loss
; 1729 : 	////////////////////////////////////////////
; 1730 : 	if (get_current_dynamics_options (DYNAMICS_OPTIONS_RETREATING_BLADE_STALL))

  016c3	6a 08		 push	 8
  016c5	e8 00 00 00 00	 call	 ?get_current_dynamics_options@@YGHW4DYNAMICS_OPTIONS_TYPES@@@Z ; get_current_dynamics_options
  016ca	85 c0		 test	 eax, eax
  016cc	0f 84 62 01 00
	00		 je	 $LN20@update_att

; 1731 : 	{
; 1732 : 
; 1733 : 		if (!(get_current_dynamics_options (DYNAMICS_OPTIONS_KEYBOARD_ASSISTANCE) && (get_global_cyclic_input () == KEYBOARD_INPUT)))

  016d2	6a 05		 push	 5
  016d4	e8 00 00 00 00	 call	 ?get_current_dynamics_options@@YGHW4DYNAMICS_OPTIONS_TYPES@@@Z ; get_current_dynamics_options
  016d9	85 c0		 test	 eax, eax
  016db	74 0d		 je	 SHORT $LN19@update_att
  016dd	83 3d 28 00 00
	00 01		 cmp	 DWORD PTR ?global_options@@3UGLOBAL_OPTIONS_DATA@@A+40, 1
  016e4	0f 84 4a 01 00
	00		 je	 $LN20@update_att
$LN19@update_att:

; 1734 : 		{
; 1735 : 
; 1736 : 			if (!(current_flight_dynamics->dynamics_damage & DYNAMICS_DAMAGE_MAIN_ROTOR))

  016ea	a1 00 00 00 00	 mov	 eax, DWORD PTR ?current_flight_dynamics@@3PAUDYNAMICS_TYPE@@A ; current_flight_dynamics
  016ef	8b 88 24 25 00
	00		 mov	 ecx, DWORD PTR [eax+9508]
  016f5	83 e1 02	 and	 ecx, 2
  016f8	0f 85 36 01 00
	00		 jne	 $LN20@update_att

; 1737 : 			{
; 1738 : 
; 1739 : 				left_rotor_force = 0.25 * ((edge_rotor_split * main_rotor_induced_air_value) -

  016fe	f3 0f 10 45 9c	 movss	 xmm0, DWORD PTR _edge_rotor_split$[ebp]
  01703	f3 0f 59 85 74
	ff ff ff	 mulss	 xmm0, DWORD PTR _main_rotor_induced_air_value$[ebp]
  0170b	f3 0f 10 4d 9c	 movss	 xmm1, DWORD PTR _edge_rotor_split$[ebp]
  01710	f3 0f 59 8d 74
	ff ff ff	 mulss	 xmm1, DWORD PTR _main_rotor_induced_air_value$[ebp]
  01718	f3 0f 59 8d 68
	ff ff ff	 mulss	 xmm1, DWORD PTR _main_rotor_roll_angle_value$[ebp]
  01720	a1 00 00 00 00	 mov	 eax, DWORD PTR ?current_flight_dynamics@@3PAUDYNAMICS_TYPE@@A ; current_flight_dynamics
  01725	8b 0d 00 00 00
	00		 mov	 ecx, DWORD PTR ?current_flight_dynamics@@3PAUDYNAMICS_TYPE@@A ; current_flight_dynamics
  0172b	f3 0f 10 90 f0
	1d 00 00	 movss	 xmm2, DWORD PTR [eax+7664]
  01733	f3 0f 5c 91 ec
	1d 00 00	 subss	 xmm2, DWORD PTR [ecx+7660]
  0173b	f3 0f 5e ca	 divss	 xmm1, xmm2
  0173f	f3 0f 5c c1	 subss	 xmm0, xmm1
  01743	f3 0f 5a c0	 cvtss2sd xmm0, xmm0
  01747	f2 0f 59 05 00
	00 00 00	 mulsd	 xmm0, QWORD PTR __real@3fd0000000000000
  0174f	f2 0f 5a c0	 cvtsd2ss xmm0, xmm0
  01753	f3 0f 11 45 88	 movss	 DWORD PTR _left_rotor_force$[ebp], xmm0

; 1740 : 							((edge_rotor_split * main_rotor_induced_air_value * main_rotor_roll_angle_value) /
; 1741 : 							(current_flight_dynamics->main_rotor_roll_angle.max - current_flight_dynamics->main_rotor_roll_angle.min)));
; 1742 : 
; 1743 : 				left_rotor_force *= (motion_vector_magnitude *

  01758	f3 0f 10 45 a4	 movss	 xmm0, DWORD PTR _motion_vector_magnitude$[ebp]
  0175d	f3 0f 59 45 a4	 mulss	 xmm0, DWORD PTR _motion_vector_magnitude$[ebp]
  01762	f3 0f 59 45 a4	 mulss	 xmm0, DWORD PTR _motion_vector_magnitude$[ebp]
  01767	a1 00 00 00 00	 mov	 eax, DWORD PTR ?current_flight_dynamics@@3PAUDYNAMICS_TYPE@@A ; current_flight_dynamics
  0176c	8b 0d 00 00 00
	00		 mov	 ecx, DWORD PTR ?current_flight_dynamics@@3PAUDYNAMICS_TYPE@@A ; current_flight_dynamics
  01772	f3 0f 10 88 a8
	20 00 00	 movss	 xmm1, DWORD PTR [eax+8360]
  0177a	f3 0f 59 89 a8
	20 00 00	 mulss	 xmm1, DWORD PTR [ecx+8360]
  01782	8b 15 00 00 00
	00		 mov	 edx, DWORD PTR ?current_flight_dynamics@@3PAUDYNAMICS_TYPE@@A ; current_flight_dynamics
  01788	f3 0f 59 8a a8
	20 00 00	 mulss	 xmm1, DWORD PTR [edx+8360]
  01790	f3 0f 5e c1	 divss	 xmm0, xmm1
  01794	f3 0f 59 45 88	 mulss	 xmm0, DWORD PTR _left_rotor_force$[ebp]
  01799	f3 0f 11 45 88	 movss	 DWORD PTR _left_rotor_force$[ebp], xmm0

; 1744 : 											motion_vector_magnitude *
; 1745 : 											motion_vector_magnitude) /
; 1746 : 											(current_flight_dynamics->velocity_z.max *
; 1747 : 											current_flight_dynamics->velocity_z.max *
; 1748 : 											current_flight_dynamics->velocity_z.max);
; 1749 : 
; 1750 : 				left_rotor_force *= command_line_dynamics_retreating_blade_stall_effect;

  0179e	f3 0f 10 45 88	 movss	 xmm0, DWORD PTR _left_rotor_force$[ebp]
  017a3	f3 0f 59 05 00
	00 00 00	 mulss	 xmm0, DWORD PTR ?command_line_dynamics_retreating_blade_stall_effect@@3MA
  017ab	f3 0f 11 45 88	 movss	 DWORD PTR _left_rotor_force$[ebp], xmm0

; 1751 : 
; 1752 : 				position.x = 7.299;

  017b0	f3 0f 10 05 00
	00 00 00	 movss	 xmm0, DWORD PTR __real@40e99168
  017b8	f3 0f 11 85 1c
	ff ff ff	 movss	 DWORD PTR _position$[ebp], xmm0

; 1753 : 				position.y = 0.0;

  017c0	0f 57 c0	 xorps	 xmm0, xmm0
  017c3	f3 0f 11 85 20
	ff ff ff	 movss	 DWORD PTR _position$[ebp+4], xmm0

; 1754 : 				position.z = 0.0;

  017cb	0f 57 c0	 xorps	 xmm0, xmm0
  017ce	f3 0f 11 85 24
	ff ff ff	 movss	 DWORD PTR _position$[ebp+8], xmm0

; 1755 : 
; 1756 : 				direction.x = 0.0;

  017d6	0f 57 c0	 xorps	 xmm0, xmm0
  017d9	f3 0f 11 85 10
	ff ff ff	 movss	 DWORD PTR _direction$[ebp], xmm0

; 1757 : 				direction.y = -current_flight_dynamics->rotor_rotation_direction;

  017e1	a1 00 00 00 00	 mov	 eax, DWORD PTR ?current_flight_dynamics@@3PAUDYNAMICS_TYPE@@A ; current_flight_dynamics
  017e6	0f bf 88 1c 25
	00 00		 movsx	 ecx, WORD PTR [eax+9500]
  017ed	f7 d9		 neg	 ecx
  017ef	f3 0f 2a c1	 cvtsi2ss xmm0, ecx
  017f3	f3 0f 11 85 14
	ff ff ff	 movss	 DWORD PTR _direction$[ebp+4], xmm0

; 1758 : 				direction.z = 0.0;

  017fb	0f 57 c0	 xorps	 xmm0, xmm0
  017fe	f3 0f 11 85 18
	ff ff ff	 movss	 DWORD PTR _direction$[ebp+8], xmm0

; 1759 : 
; 1760 : 				add_dynamic_force ("Retreating blade stall", left_rotor_force, 0.0, &position, &direction, FALSE);

  01806	6a 00		 push	 0
  01808	8d 85 10 ff ff
	ff		 lea	 eax, DWORD PTR _direction$[ebp]
  0180e	50		 push	 eax
  0180f	8d 8d 1c ff ff
	ff		 lea	 ecx, DWORD PTR _position$[ebp]
  01815	51		 push	 ecx
  01816	51		 push	 ecx
  01817	0f 57 c0	 xorps	 xmm0, xmm0
  0181a	f3 0f 11 04 24	 movss	 DWORD PTR [esp], xmm0
  0181f	51		 push	 ecx
  01820	f3 0f 10 45 88	 movss	 xmm0, DWORD PTR _left_rotor_force$[ebp]
  01825	f3 0f 11 04 24	 movss	 DWORD PTR [esp], xmm0
  0182a	68 00 00 00 00	 push	 OFFSET ??_C@_0BH@HFGLNDFM@Retreating?5blade?5stall@
  0182f	e8 00 00 00 00	 call	 ?add_dynamic_force@@YGXPBDMMPAUVEC3D@@1H@Z ; add_dynamic_force
$LN20@update_att:

; 1761 : 			}
; 1762 : 		}
; 1763 : 	}
; 1764 : 	////////////////////////////////////////////
; 1765 : 	// Advancing Blade lift gain
; 1766 : 	////////////////////////////////////////////
; 1767 : 	if (get_current_dynamics_options (DYNAMICS_OPTIONS_RETREATING_BLADE_STALL))

  01834	6a 08		 push	 8
  01836	e8 00 00 00 00	 call	 ?get_current_dynamics_options@@YGHW4DYNAMICS_OPTIONS_TYPES@@@Z ; get_current_dynamics_options
  0183b	85 c0		 test	 eax, eax
  0183d	0f 84 60 01 00
	00		 je	 $LN24@update_att

; 1768 : 	{
; 1769 : 
; 1770 : 		if (!(get_current_dynamics_options (DYNAMICS_OPTIONS_KEYBOARD_ASSISTANCE) && (get_global_cyclic_input () == KEYBOARD_INPUT)))

  01843	6a 05		 push	 5
  01845	e8 00 00 00 00	 call	 ?get_current_dynamics_options@@YGHW4DYNAMICS_OPTIONS_TYPES@@@Z ; get_current_dynamics_options
  0184a	85 c0		 test	 eax, eax
  0184c	74 0d		 je	 SHORT $LN23@update_att
  0184e	83 3d 28 00 00
	00 01		 cmp	 DWORD PTR ?global_options@@3UGLOBAL_OPTIONS_DATA@@A+40, 1
  01855	0f 84 48 01 00
	00		 je	 $LN24@update_att
$LN23@update_att:

; 1771 : 		{
; 1772 : 
; 1773 : 			if (!(current_flight_dynamics->dynamics_damage & DYNAMICS_DAMAGE_MAIN_ROTOR))

  0185b	a1 00 00 00 00	 mov	 eax, DWORD PTR ?current_flight_dynamics@@3PAUDYNAMICS_TYPE@@A ; current_flight_dynamics
  01860	8b 88 24 25 00
	00		 mov	 ecx, DWORD PTR [eax+9508]
  01866	83 e1 02	 and	 ecx, 2
  01869	0f 85 34 01 00
	00		 jne	 $LN24@update_att

; 1774 : 			{
; 1775 : 
; 1776 : 				right_rotor_force = 0.25 * ((edge_rotor_split * main_rotor_induced_air_value) +

  0186f	f3 0f 10 45 9c	 movss	 xmm0, DWORD PTR _edge_rotor_split$[ebp]
  01874	f3 0f 59 85 74
	ff ff ff	 mulss	 xmm0, DWORD PTR _main_rotor_induced_air_value$[ebp]
  0187c	f3 0f 10 4d 9c	 movss	 xmm1, DWORD PTR _edge_rotor_split$[ebp]
  01881	f3 0f 59 8d 74
	ff ff ff	 mulss	 xmm1, DWORD PTR _main_rotor_induced_air_value$[ebp]
  01889	f3 0f 59 8d 68
	ff ff ff	 mulss	 xmm1, DWORD PTR _main_rotor_roll_angle_value$[ebp]
  01891	a1 00 00 00 00	 mov	 eax, DWORD PTR ?current_flight_dynamics@@3PAUDYNAMICS_TYPE@@A ; current_flight_dynamics
  01896	8b 0d 00 00 00
	00		 mov	 ecx, DWORD PTR ?current_flight_dynamics@@3PAUDYNAMICS_TYPE@@A ; current_flight_dynamics
  0189c	f3 0f 10 90 f0
	1d 00 00	 movss	 xmm2, DWORD PTR [eax+7664]
  018a4	f3 0f 5c 91 ec
	1d 00 00	 subss	 xmm2, DWORD PTR [ecx+7660]
  018ac	f3 0f 5e ca	 divss	 xmm1, xmm2
  018b0	f3 0f 58 c1	 addss	 xmm0, xmm1
  018b4	f3 0f 5a c0	 cvtss2sd xmm0, xmm0
  018b8	f2 0f 59 05 00
	00 00 00	 mulsd	 xmm0, QWORD PTR __real@3fd0000000000000
  018c0	f2 0f 5a c0	 cvtsd2ss xmm0, xmm0
  018c4	f3 0f 11 45 84	 movss	 DWORD PTR _right_rotor_force$[ebp], xmm0

; 1777 : 							((edge_rotor_split * main_rotor_induced_air_value * main_rotor_roll_angle_value) /
; 1778 : 							(current_flight_dynamics->main_rotor_roll_angle.max - current_flight_dynamics->main_rotor_roll_angle.min)));
; 1779 : 
; 1780 : 				right_rotor_force *= (motion_vector_magnitude *

  018c9	f3 0f 10 45 a4	 movss	 xmm0, DWORD PTR _motion_vector_magnitude$[ebp]
  018ce	f3 0f 59 45 a4	 mulss	 xmm0, DWORD PTR _motion_vector_magnitude$[ebp]
  018d3	f3 0f 59 45 a4	 mulss	 xmm0, DWORD PTR _motion_vector_magnitude$[ebp]
  018d8	a1 00 00 00 00	 mov	 eax, DWORD PTR ?current_flight_dynamics@@3PAUDYNAMICS_TYPE@@A ; current_flight_dynamics
  018dd	8b 0d 00 00 00
	00		 mov	 ecx, DWORD PTR ?current_flight_dynamics@@3PAUDYNAMICS_TYPE@@A ; current_flight_dynamics
  018e3	f3 0f 10 88 a8
	20 00 00	 movss	 xmm1, DWORD PTR [eax+8360]
  018eb	f3 0f 59 89 a8
	20 00 00	 mulss	 xmm1, DWORD PTR [ecx+8360]
  018f3	8b 15 00 00 00
	00		 mov	 edx, DWORD PTR ?current_flight_dynamics@@3PAUDYNAMICS_TYPE@@A ; current_flight_dynamics
  018f9	f3 0f 59 8a a8
	20 00 00	 mulss	 xmm1, DWORD PTR [edx+8360]
  01901	f3 0f 5e c1	 divss	 xmm0, xmm1
  01905	f3 0f 59 45 84	 mulss	 xmm0, DWORD PTR _right_rotor_force$[ebp]
  0190a	f3 0f 11 45 84	 movss	 DWORD PTR _right_rotor_force$[ebp], xmm0

; 1781 : 											motion_vector_magnitude *
; 1782 : 											motion_vector_magnitude) /
; 1783 : 											(current_flight_dynamics->velocity_z.max *
; 1784 : 											current_flight_dynamics->velocity_z.max *
; 1785 : 											current_flight_dynamics->velocity_z.max);
; 1786 : 
; 1787 : 				right_rotor_force *= command_line_dynamics_retreating_blade_stall_effect;

  0190f	f3 0f 10 45 84	 movss	 xmm0, DWORD PTR _right_rotor_force$[ebp]
  01914	f3 0f 59 05 00
	00 00 00	 mulss	 xmm0, DWORD PTR ?command_line_dynamics_retreating_blade_stall_effect@@3MA
  0191c	f3 0f 11 45 84	 movss	 DWORD PTR _right_rotor_force$[ebp], xmm0

; 1788 : 
; 1789 : 				position.x = -7.299;

  01921	f3 0f 10 05 00
	00 00 00	 movss	 xmm0, DWORD PTR __real@c0e99168
  01929	f3 0f 11 85 1c
	ff ff ff	 movss	 DWORD PTR _position$[ebp], xmm0

; 1790 : 				position.y = 0.0;

  01931	0f 57 c0	 xorps	 xmm0, xmm0
  01934	f3 0f 11 85 20
	ff ff ff	 movss	 DWORD PTR _position$[ebp+4], xmm0

; 1791 : 				position.z = 0.0;

  0193c	0f 57 c0	 xorps	 xmm0, xmm0
  0193f	f3 0f 11 85 24
	ff ff ff	 movss	 DWORD PTR _position$[ebp+8], xmm0

; 1792 : 
; 1793 : 				direction.x = 0.0;

  01947	0f 57 c0	 xorps	 xmm0, xmm0
  0194a	f3 0f 11 85 10
	ff ff ff	 movss	 DWORD PTR _direction$[ebp], xmm0

; 1794 : 				direction.y = current_flight_dynamics->rotor_rotation_direction;

  01952	a1 00 00 00 00	 mov	 eax, DWORD PTR ?current_flight_dynamics@@3PAUDYNAMICS_TYPE@@A ; current_flight_dynamics
  01957	0f bf 88 1c 25
	00 00		 movsx	 ecx, WORD PTR [eax+9500]
  0195e	f3 0f 2a c1	 cvtsi2ss xmm0, ecx
  01962	f3 0f 11 85 14
	ff ff ff	 movss	 DWORD PTR _direction$[ebp+4], xmm0

; 1795 : 				direction.z = 0.0;

  0196a	0f 57 c0	 xorps	 xmm0, xmm0
  0196d	f3 0f 11 85 18
	ff ff ff	 movss	 DWORD PTR _direction$[ebp+8], xmm0

; 1796 : 
; 1797 : 				add_dynamic_force ("Advancing blade stall", right_rotor_force, 0.0, &position, &direction, FALSE);

  01975	6a 00		 push	 0
  01977	8d 85 10 ff ff
	ff		 lea	 eax, DWORD PTR _direction$[ebp]
  0197d	50		 push	 eax
  0197e	8d 8d 1c ff ff
	ff		 lea	 ecx, DWORD PTR _position$[ebp]
  01984	51		 push	 ecx
  01985	51		 push	 ecx
  01986	0f 57 c0	 xorps	 xmm0, xmm0
  01989	f3 0f 11 04 24	 movss	 DWORD PTR [esp], xmm0
  0198e	51		 push	 ecx
  0198f	f3 0f 10 45 84	 movss	 xmm0, DWORD PTR _right_rotor_force$[ebp]
  01994	f3 0f 11 04 24	 movss	 DWORD PTR [esp], xmm0
  01999	68 00 00 00 00	 push	 OFFSET ??_C@_0BG@LPCPLOKH@Advancing?5blade?5stall@
  0199e	e8 00 00 00 00	 call	 ?add_dynamic_force@@YGXPBDMMPAUVEC3D@@1H@Z ; add_dynamic_force
$LN24@update_att:

; 1798 : 			}
; 1799 : 		}
; 1800 : 	}
; 1801 : 	////////////////////////////////////////////
; 1802 : 	// Advancing Blade Sonic Buildup effect
; 1803 : 	////////////////////////////////////////////
; 1804 : 	if (!(current_flight_dynamics->dynamics_damage & DYNAMICS_DAMAGE_MAIN_ROTOR))

  019a3	a1 00 00 00 00	 mov	 eax, DWORD PTR ?current_flight_dynamics@@3PAUDYNAMICS_TYPE@@A ; current_flight_dynamics
  019a8	8b 88 24 25 00
	00		 mov	 ecx, DWORD PTR [eax+9508]
  019ae	83 e1 02	 and	 ecx, 2
  019b1	0f 85 99 02 00
	00		 jne	 $LN25@update_att

; 1805 : 	{
; 1806 : 
; 1807 : 		// 0.2 defines the buildup
; 1808 : 		force = sfrand1 () * exp (0.2 * (velocity_z_value - current_flight_dynamics->velocity_z.max));

  019b7	69 05 00 00 00
	00 6d 4e c6 41	 imul	 eax, DWORD PTR ?random_number_seed@@3HA, 1103515245 ; random_number_seed
  019c1	05 39 30 00 00	 add	 eax, 12345		; 00003039H
  019c6	a3 00 00 00 00	 mov	 DWORD PTR ?random_number_seed@@3HA, eax ; random_number_seed
  019cb	8b 0d 00 00 00
	00		 mov	 ecx, DWORD PTR ?random_number_seed@@3HA ; random_number_seed
  019d1	c1 f9 10	 sar	 ecx, 16			; 00000010H
  019d4	81 e1 ff 7f 00
	00		 and	 ecx, 32767		; 00007fffH
  019da	81 e9 00 40 00
	00		 sub	 ecx, 16384		; 00004000H
  019e0	f2 0f 2a c1	 cvtsi2sd xmm0, ecx
  019e4	f2 0f 59 05 00
	00 00 00	 mulsd	 xmm0, QWORD PTR __real@3f10000000000000
  019ec	8b 15 00 00 00
	00		 mov	 edx, DWORD PTR ?current_flight_dynamics@@3PAUDYNAMICS_TYPE@@A ; current_flight_dynamics
  019f2	f3 0f 10 8d 48
	ff ff ff	 movss	 xmm1, DWORD PTR _velocity_z_value$[ebp]
  019fa	f3 0f 5c 8a a8
	20 00 00	 subss	 xmm1, DWORD PTR [edx+8360]
  01a02	f3 0f 5a c9	 cvtss2sd xmm1, xmm1
  01a06	f2 0f 59 0d 00
	00 00 00	 mulsd	 xmm1, QWORD PTR __real@3fc999999999999a
  01a0e	83 ec 08	 sub	 esp, 8
  01a11	f2 0f 11 0c 24	 movsd	 QWORD PTR [esp], xmm1
  01a16	f2 0f 11 85 d4
	fc ff ff	 movsd	 QWORD PTR tv3877[ebp], xmm0
  01a1e	e8 00 00 00 00	 call	 _exp
  01a23	83 c4 08	 add	 esp, 8
  01a26	dd 9d cc fc ff
	ff		 fstp	 QWORD PTR tv2930[ebp]
  01a2c	f2 0f 10 85 d4
	fc ff ff	 movsd	 xmm0, QWORD PTR tv3877[ebp]
  01a34	f2 0f 59 85 cc
	fc ff ff	 mulsd	 xmm0, QWORD PTR tv2930[ebp]
  01a3c	f2 0f 5a c0	 cvtsd2ss xmm0, xmm0
  01a40	f3 0f 11 45 98	 movss	 DWORD PTR _force$[ebp], xmm0

; 1809 : 
; 1810 : 		// scale on blade pitch.
; 1811 : 		force *= ((current_flight_dynamics->main_blade_pitch.value - current_flight_dynamics->main_blade_pitch.min) / (current_flight_dynamics->main_blade_pitch.max - current_flight_dynamics->main_blade_pitch.min));

  01a45	a1 00 00 00 00	 mov	 eax, DWORD PTR ?current_flight_dynamics@@3PAUDYNAMICS_TYPE@@A ; current_flight_dynamics
  01a4a	8b 0d 00 00 00
	00		 mov	 ecx, DWORD PTR ?current_flight_dynamics@@3PAUDYNAMICS_TYPE@@A ; current_flight_dynamics
  01a50	f3 0f 10 80 8c
	1e 00 00	 movss	 xmm0, DWORD PTR [eax+7820]
  01a58	f3 0f 5c 81 94
	1e 00 00	 subss	 xmm0, DWORD PTR [ecx+7828]
  01a60	8b 15 00 00 00
	00		 mov	 edx, DWORD PTR ?current_flight_dynamics@@3PAUDYNAMICS_TYPE@@A ; current_flight_dynamics
  01a66	a1 00 00 00 00	 mov	 eax, DWORD PTR ?current_flight_dynamics@@3PAUDYNAMICS_TYPE@@A ; current_flight_dynamics
  01a6b	f3 0f 10 8a 98
	1e 00 00	 movss	 xmm1, DWORD PTR [edx+7832]
  01a73	f3 0f 5c 88 94
	1e 00 00	 subss	 xmm1, DWORD PTR [eax+7828]
  01a7b	f3 0f 5e c1	 divss	 xmm0, xmm1
  01a7f	f3 0f 59 45 98	 mulss	 xmm0, DWORD PTR _force$[ebp]
  01a84	f3 0f 11 45 98	 movss	 DWORD PTR _force$[ebp], xmm0

; 1812 : 
; 1813 : 		if (fabs (force) > 2.0)

  01a89	51		 push	 ecx
  01a8a	f3 0f 10 45 98	 movss	 xmm0, DWORD PTR _force$[ebp]
  01a8f	f3 0f 11 04 24	 movss	 DWORD PTR [esp], xmm0
  01a94	e8 00 00 00 00	 call	 ?fabs@@YGMM@Z		; fabs
  01a99	dd 9d d4 fc ff
	ff		 fstp	 QWORD PTR tv2944[ebp]
  01a9f	f2 0f 10 85 d4
	fc ff ff	 movsd	 xmm0, QWORD PTR tv2944[ebp]
  01aa7	66 0f 2f 05 00
	00 00 00	 comisd	 xmm0, QWORD PTR __real@4000000000000000
  01aaf	76 7e		 jbe	 SHORT $LN26@update_att

; 1814 : 		{
; 1815 : 
; 1816 : 			dynamics_damage_model (DYNAMICS_DAMAGE_MAIN_ROTOR, FALSE);

  01ab1	6a 00		 push	 0
  01ab3	6a 02		 push	 2
  01ab5	e8 00 00 00 00	 call	 ?dynamics_damage_model@@YGXIH@Z ; dynamics_damage_model

; 1817 : 
; 1818 : 			force = bound (force, -2.0, 2.0);

  01aba	f3 0f 5a 45 98	 cvtss2sd xmm0, DWORD PTR _force$[ebp]
  01abf	f2 0f 10 0d 00
	00 00 00	 movsd	 xmm1, QWORD PTR __real@c000000000000000
  01ac7	66 0f 2f c8	 comisd	 xmm1, xmm0
  01acb	76 12		 jbe	 SHORT $LN117@update_att
  01acd	f2 0f 10 05 00
	00 00 00	 movsd	 xmm0, QWORD PTR __real@c000000000000000
  01ad5	f2 0f 11 85 d4
	fc ff ff	 movsd	 QWORD PTR tv1019[ebp], xmm0
  01add	eb 3e		 jmp	 SHORT $LN118@update_att
$LN117@update_att:
  01adf	f3 0f 5a 45 98	 cvtss2sd xmm0, DWORD PTR _force$[ebp]
  01ae4	66 0f 2f 05 00
	00 00 00	 comisd	 xmm0, QWORD PTR __real@4000000000000000
  01aec	76 12		 jbe	 SHORT $LN115@update_att
  01aee	f2 0f 10 05 00
	00 00 00	 movsd	 xmm0, QWORD PTR __real@4000000000000000
  01af6	f2 0f 11 85 cc
	fc ff ff	 movsd	 QWORD PTR tv1018[ebp], xmm0
  01afe	eb 0d		 jmp	 SHORT $LN116@update_att
$LN115@update_att:
  01b00	f3 0f 5a 45 98	 cvtss2sd xmm0, DWORD PTR _force$[ebp]
  01b05	f2 0f 11 85 cc
	fc ff ff	 movsd	 QWORD PTR tv1018[ebp], xmm0
$LN116@update_att:
  01b0d	f2 0f 10 85 cc
	fc ff ff	 movsd	 xmm0, QWORD PTR tv1018[ebp]
  01b15	f2 0f 11 85 d4
	fc ff ff	 movsd	 QWORD PTR tv1019[ebp], xmm0
$LN118@update_att:
  01b1d	f2 0f 5a 85 d4
	fc ff ff	 cvtsd2ss xmm0, QWORD PTR tv1019[ebp]
  01b25	f3 0f 11 45 98	 movss	 DWORD PTR _force$[ebp], xmm0
  01b2a	e9 9f 00 00 00	 jmp	 $LN29@update_att
$LN26@update_att:

; 1819 : 		}
; 1820 : 		else if (fabs (force) > 1.0)

  01b2f	51		 push	 ecx
  01b30	f3 0f 10 45 98	 movss	 xmm0, DWORD PTR _force$[ebp]
  01b35	f3 0f 11 04 24	 movss	 DWORD PTR [esp], xmm0
  01b3a	e8 00 00 00 00	 call	 ?fabs@@YGMM@Z		; fabs
  01b3f	dd 9d d4 fc ff
	ff		 fstp	 QWORD PTR tv2955[ebp]
  01b45	f2 0f 10 85 d4
	fc ff ff	 movsd	 xmm0, QWORD PTR tv2955[ebp]
  01b4d	66 0f 2f 05 00
	00 00 00	 comisd	 xmm0, QWORD PTR __real@3ff0000000000000
  01b55	76 77		 jbe	 SHORT $LN29@update_att

; 1821 : 		{
; 1822 : 
; 1823 : 			static float
; 1824 : 				time = 0.0;
; 1825 : 
; 1826 : 			// Approaching VNE speech
; 1827 : 
; 1828 : 			time -= get_model_delta_time ();

  01b57	a1 00 00 00 00	 mov	 eax, DWORD PTR ?current_flight_dynamics@@3PAUDYNAMICS_TYPE@@A ; current_flight_dynamics
  01b5c	f3 0f 10 05 00
	00 00 00	 movss	 xmm0, DWORD PTR ?time@?FB@??update_attitude_dynamics@@YGXXZ@4MA
  01b64	f3 0f 5c 80 90
	00 00 00	 subss	 xmm0, DWORD PTR [eax+144]
  01b6c	f3 0f 11 05 00
	00 00 00	 movss	 DWORD PTR ?time@?FB@??update_attitude_dynamics@@YGXXZ@4MA, xmm0

; 1829 : 
; 1830 : 			if (time <= 0.0)

  01b74	f3 0f 5a 05 00
	00 00 00	 cvtss2sd xmm0, DWORD PTR ?time@?FB@??update_attitude_dynamics@@YGXXZ@4MA
  01b7c	0f 57 c9	 xorps	 xmm1, xmm1
  01b7f	66 0f 2f c8	 comisd	 xmm1, xmm0
  01b83	72 49		 jb	 SHORT $LN29@update_att

; 1831 : 			{
; 1832 : 
; 1833 : 				play_client_server_cpg_message (get_gunship_entity (), 0.5, 1.0, SPEECH_CATEGORY_CPG_SYSTEMS, 1.0, SPEECH_CPG_HOVER_HOLD_TOO_FAST1);

  01b85	6a 0a		 push	 10			; 0000000aH
  01b87	51		 push	 ecx
  01b88	f3 0f 10 05 00
	00 00 00	 movss	 xmm0, DWORD PTR __real@3f800000
  01b90	f3 0f 11 04 24	 movss	 DWORD PTR [esp], xmm0
  01b95	6a 04		 push	 4
  01b97	51		 push	 ecx
  01b98	f3 0f 10 05 00
	00 00 00	 movss	 xmm0, DWORD PTR __real@3f800000
  01ba0	f3 0f 11 04 24	 movss	 DWORD PTR [esp], xmm0
  01ba5	51		 push	 ecx
  01ba6	f3 0f 10 05 00
	00 00 00	 movss	 xmm0, DWORD PTR __real@3f000000
  01bae	f3 0f 11 04 24	 movss	 DWORD PTR [esp], xmm0
  01bb3	a1 00 00 00 00	 mov	 eax, DWORD PTR ?gunship_entity@@3PAUENTITY@@A ; gunship_entity
  01bb8	50		 push	 eax
  01bb9	e8 00 00 00 00	 call	 ?play_client_server_cpg_message@@YGHPAUENTITY@@MMHMH@Z ; play_client_server_cpg_message

; 1834 : 
; 1835 : 				time = DYNAMICS_EXCEEDING_VNE_SPEECH_TIME;

  01bbe	f3 0f 10 05 00
	00 00 00	 movss	 xmm0, DWORD PTR __real@41a00000
  01bc6	f3 0f 11 05 00
	00 00 00	 movss	 DWORD PTR ?time@?FB@??update_attitude_dynamics@@YGXXZ@4MA, xmm0
$LN29@update_att:

; 1836 : 			}
; 1837 : 		}
; 1838 : 
; 1839 : 		position.x = -7.299;

  01bce	f3 0f 10 05 00
	00 00 00	 movss	 xmm0, DWORD PTR __real@c0e99168
  01bd6	f3 0f 11 85 1c
	ff ff ff	 movss	 DWORD PTR _position$[ebp], xmm0

; 1840 : 		position.y = 0.0;

  01bde	0f 57 c0	 xorps	 xmm0, xmm0
  01be1	f3 0f 11 85 20
	ff ff ff	 movss	 DWORD PTR _position$[ebp+4], xmm0

; 1841 : 		position.z = 0.0;

  01be9	0f 57 c0	 xorps	 xmm0, xmm0
  01bec	f3 0f 11 85 24
	ff ff ff	 movss	 DWORD PTR _position$[ebp+8], xmm0

; 1842 : 
; 1843 : 		direction.x = 0.0;

  01bf4	0f 57 c0	 xorps	 xmm0, xmm0
  01bf7	f3 0f 11 85 10
	ff ff ff	 movss	 DWORD PTR _direction$[ebp], xmm0

; 1844 : 		direction.y = current_flight_dynamics->rotor_rotation_direction;

  01bff	a1 00 00 00 00	 mov	 eax, DWORD PTR ?current_flight_dynamics@@3PAUDYNAMICS_TYPE@@A ; current_flight_dynamics
  01c04	0f bf 88 1c 25
	00 00		 movsx	 ecx, WORD PTR [eax+9500]
  01c0b	f3 0f 2a c1	 cvtsi2ss xmm0, ecx
  01c0f	f3 0f 11 85 14
	ff ff ff	 movss	 DWORD PTR _direction$[ebp+4], xmm0

; 1845 : 		direction.z = 0.0;

  01c17	0f 57 c0	 xorps	 xmm0, xmm0
  01c1a	f3 0f 11 85 18
	ff ff ff	 movss	 DWORD PTR _direction$[ebp+8], xmm0

; 1846 : 
; 1847 : 		add_dynamic_force ("Sonic buildup", force, 0.0, &position, &direction, FALSE);

  01c22	6a 00		 push	 0
  01c24	8d 85 10 ff ff
	ff		 lea	 eax, DWORD PTR _direction$[ebp]
  01c2a	50		 push	 eax
  01c2b	8d 8d 1c ff ff
	ff		 lea	 ecx, DWORD PTR _position$[ebp]
  01c31	51		 push	 ecx
  01c32	51		 push	 ecx
  01c33	0f 57 c0	 xorps	 xmm0, xmm0
  01c36	f3 0f 11 04 24	 movss	 DWORD PTR [esp], xmm0
  01c3b	51		 push	 ecx
  01c3c	f3 0f 10 45 98	 movss	 xmm0, DWORD PTR _force$[ebp]
  01c41	f3 0f 11 04 24	 movss	 DWORD PTR [esp], xmm0
  01c46	68 00 00 00 00	 push	 OFFSET ??_C@_0O@JIJAGCOD@Sonic?5buildup@
  01c4b	e8 00 00 00 00	 call	 ?add_dynamic_force@@YGXPBDMMPAUVEC3D@@1H@Z ; add_dynamic_force
$LN25@update_att:

; 1848 : 	}
; 1849 : 	////////////////////////////////////////////
; 1850 : 	// main rotor disc torque effect
; 1851 : 	////////////////////////////////////////////
; 1852 : 
; 1853 : 	{
; 1854 : 		// arneh - main rotor produces no torque when disengaged from
; 1855 : 		// engine or if running with cross coupling enabled
; 1856 : 		if (current_flight_dynamics->rotor_brake ||

  01c50	a1 00 00 00 00	 mov	 eax, DWORD PTR ?current_flight_dynamics@@3PAUDYNAMICS_TYPE@@A ; current_flight_dynamics
  01c55	8b 88 28 25 00
	00		 mov	 ecx, DWORD PTR [eax+9512]
  01c5b	c1 e9 05	 shr	 ecx, 5
  01c5e	83 e1 01	 and	 ecx, 1
  01c61	75 1b		 jne	 SHORT $LN32@update_att
  01c63	a1 00 00 00 00	 mov	 eax, DWORD PTR ?current_flight_dynamics@@3PAUDYNAMICS_TYPE@@A ; current_flight_dynamics
  01c68	0f b7 88 d4 1f
	00 00		 movzx	 ecx, WORD PTR [eax+8148]
  01c6f	85 c9		 test	 ecx, ecx
  01c71	75 1b		 jne	 SHORT $LN30@update_att
  01c73	6a 00		 push	 0
  01c75	e8 00 00 00 00	 call	 ?get_current_dynamics_options@@YGHW4DYNAMICS_OPTIONS_TYPES@@@Z ; get_current_dynamics_options
  01c7a	85 c0		 test	 eax, eax
  01c7c	74 10		 je	 SHORT $LN30@update_att
$LN32@update_att:

; 1857 : 			(!current_flight_dynamics->cross_coupling_effect.damaged) &&
; 1858 : 			(get_current_dynamics_options (DYNAMICS_OPTIONS_CROSS_COUPLING)))
; 1859 : 		{
; 1860 : 			main_angular_force = 0.0;

  01c7e	0f 57 c0	 xorps	 xmm0, xmm0
  01c81	f3 0f 11 85 7c
	ff ff ff	 movss	 DWORD PTR _main_angular_force$[ebp], xmm0

; 1861 : 		}
; 1862 : 		else

  01c89	e9 ad 04 00 00	 jmp	 $LN31@update_att
$LN30@update_att:

; 1863 : 		{
; 1864 : 
; 1865 : 			static float
; 1866 : 				v = 0.0,
; 1867 : 				relative_air_flow_angle = 0,
; 1868 : 				res = 6,
; 1869 : 				mass = 40.0,
; 1870 : 				torque = 0.0;
; 1871 : 
; 1872 : 			float
; 1873 : 				f = 0.0,

  01c8e	0f 57 c0	 xorps	 xmm0, xmm0
  01c91	f3 0f 11 85 9c
	fe ff ff	 movss	 DWORD PTR _f$57[ebp], xmm0

; 1874 : 				p = 0.0025,

  01c99	f3 0f 10 05 00
	00 00 00	 movss	 xmm0, DWORD PTR __real@3b23d70a
  01ca1	f3 0f 11 85 98
	fe ff ff	 movss	 DWORD PTR _p$56[ebp], xmm0

; 1875 : 				i = 0.00125,

  01ca9	f3 0f 10 05 00
	00 00 00	 movss	 xmm0, DWORD PTR __real@3aa3d70a
  01cb1	f3 0f 11 85 94
	fe ff ff	 movss	 DWORD PTR _i$55[ebp], xmm0

; 1876 : 				engine_response = 8.0,

  01cb9	f3 0f 10 05 00
	00 00 00	 movss	 xmm0, DWORD PTR __real@41000000
  01cc1	f3 0f 11 85 90
	fe ff ff	 movss	 DWORD PTR _engine_response$54[ebp], xmm0

; 1877 : 				blade_pitch,
; 1878 : 				a,
; 1879 : 				u,
; 1880 : 				rotor_friction,
; 1881 : 				rotor_parasitic,
; 1882 : 				rotor_induced,
; 1883 : 				rotor_drag;
; 1884 : 
; 1885 : 			u = main_rotor_rpm_value;

  01cc9	f3 0f 10 85 6c
	ff ff ff	 movss	 xmm0, DWORD PTR _main_rotor_rpm_value$[ebp]
  01cd1	f3 0f 11 85 84
	fe ff ff	 movss	 DWORD PTR _u$51[ebp], xmm0

; 1886 : 
; 1887 : 			blade_pitch = bound (main_blade_pitch_value, current_flight_dynamics->main_blade_pitch.min, current_flight_dynamics->main_blade_pitch.max);

  01cd9	a1 00 00 00 00	 mov	 eax, DWORD PTR ?current_flight_dynamics@@3PAUDYNAMICS_TYPE@@A ; current_flight_dynamics
  01cde	f3 0f 10 80 94
	1e 00 00	 movss	 xmm0, DWORD PTR [eax+7828]
  01ce6	0f 2f 85 40 ff
	ff ff		 comiss	 xmm0, DWORD PTR _main_blade_pitch_value$[ebp]
  01ced	76 18		 jbe	 SHORT $LN121@update_att
  01cef	8b 0d 00 00 00
	00		 mov	 ecx, DWORD PTR ?current_flight_dynamics@@3PAUDYNAMICS_TYPE@@A ; current_flight_dynamics
  01cf5	f3 0f 10 81 94
	1e 00 00	 movss	 xmm0, DWORD PTR [ecx+7828]
  01cfd	f3 0f 11 85 d8
	fc ff ff	 movss	 DWORD PTR tv1066[ebp], xmm0
  01d05	eb 4e		 jmp	 SHORT $LN122@update_att
$LN121@update_att:
  01d07	8b 15 00 00 00
	00		 mov	 edx, DWORD PTR ?current_flight_dynamics@@3PAUDYNAMICS_TYPE@@A ; current_flight_dynamics
  01d0d	f3 0f 10 85 40
	ff ff ff	 movss	 xmm0, DWORD PTR _main_blade_pitch_value$[ebp]
  01d15	0f 2f 82 98 1e
	00 00		 comiss	 xmm0, DWORD PTR [edx+7832]
  01d1c	76 17		 jbe	 SHORT $LN119@update_att
  01d1e	a1 00 00 00 00	 mov	 eax, DWORD PTR ?current_flight_dynamics@@3PAUDYNAMICS_TYPE@@A ; current_flight_dynamics
  01d23	f3 0f 10 80 98
	1e 00 00	 movss	 xmm0, DWORD PTR [eax+7832]
  01d2b	f3 0f 11 85 d4
	fc ff ff	 movss	 DWORD PTR tv1065[ebp], xmm0
  01d33	eb 10		 jmp	 SHORT $LN120@update_att
$LN119@update_att:
  01d35	f3 0f 10 85 40
	ff ff ff	 movss	 xmm0, DWORD PTR _main_blade_pitch_value$[ebp]
  01d3d	f3 0f 11 85 d4
	fc ff ff	 movss	 DWORD PTR tv1065[ebp], xmm0
$LN120@update_att:
  01d45	f3 0f 10 85 d4
	fc ff ff	 movss	 xmm0, DWORD PTR tv1065[ebp]
  01d4d	f3 0f 11 85 d8
	fc ff ff	 movss	 DWORD PTR tv1066[ebp], xmm0
$LN122@update_att:
  01d55	f3 0f 10 85 d8
	fc ff ff	 movss	 xmm0, DWORD PTR tv1066[ebp]
  01d5d	f3 0f 11 85 8c
	fe ff ff	 movss	 DWORD PTR _blade_pitch$53[ebp], xmm0

; 1888 : 
; 1889 : 			blade_pitch = main_blade_pitch_value - current_flight_dynamics->main_blade_pitch.min;

  01d65	a1 00 00 00 00	 mov	 eax, DWORD PTR ?current_flight_dynamics@@3PAUDYNAMICS_TYPE@@A ; current_flight_dynamics
  01d6a	f3 0f 10 85 40
	ff ff ff	 movss	 xmm0, DWORD PTR _main_blade_pitch_value$[ebp]
  01d72	f3 0f 5c 80 94
	1e 00 00	 subss	 xmm0, DWORD PTR [eax+7828]
  01d7a	f3 0f 11 85 8c
	fe ff ff	 movss	 DWORD PTR _blade_pitch$53[ebp], xmm0

; 1890 : 
; 1891 : 			////////////////////////////////////////////////////////////
; 1892 : 
; 1893 : 			relative_air_flow_angle = 0.0;

  01d82	0f 57 c0	 xorps	 xmm0, xmm0
  01d85	f3 0f 11 05 00
	00 00 00	 movss	 DWORD PTR ?relative_air_flow_angle@?FK@??update_attitude_dynamics@@YGXXZ@4MA, xmm0

; 1894 : 
; 1895 : 			rotor_friction = u * f;

  01d8d	f3 0f 10 85 84
	fe ff ff	 movss	 xmm0, DWORD PTR _u$51[ebp]
  01d95	f3 0f 59 85 9c
	fe ff ff	 mulss	 xmm0, DWORD PTR _f$57[ebp]
  01d9d	f3 0f 11 85 80
	fe ff ff	 movss	 DWORD PTR _rotor_friction$50[ebp], xmm0

; 1896 : 			rotor_parasitic = (u * u) * p;

  01da5	f3 0f 10 85 84
	fe ff ff	 movss	 xmm0, DWORD PTR _u$51[ebp]
  01dad	f3 0f 59 85 84
	fe ff ff	 mulss	 xmm0, DWORD PTR _u$51[ebp]
  01db5	f3 0f 59 85 98
	fe ff ff	 mulss	 xmm0, DWORD PTR _p$56[ebp]
  01dbd	f3 0f 11 85 7c
	fe ff ff	 movss	 DWORD PTR _rotor_parasitic$49[ebp], xmm0

; 1897 : 			rotor_induced = (u * u) * i * deg (fabs (blade_pitch + relative_air_flow_angle));

  01dc5	f3 0f 10 85 84
	fe ff ff	 movss	 xmm0, DWORD PTR _u$51[ebp]
  01dcd	f3 0f 59 85 84
	fe ff ff	 mulss	 xmm0, DWORD PTR _u$51[ebp]
  01dd5	f3 0f 59 85 94
	fe ff ff	 mulss	 xmm0, DWORD PTR _i$55[ebp]
  01ddd	f3 0f 10 8d 8c
	fe ff ff	 movss	 xmm1, DWORD PTR _blade_pitch$53[ebp]
  01de5	f3 0f 58 0d 00
	00 00 00	 addss	 xmm1, DWORD PTR ?relative_air_flow_angle@?FK@??update_attitude_dynamics@@YGXXZ@4MA
  01ded	51		 push	 ecx
  01dee	f3 0f 11 0c 24	 movss	 DWORD PTR [esp], xmm1
  01df3	f3 0f 11 85 d8
	fc ff ff	 movss	 DWORD PTR tv3879[ebp], xmm0
  01dfb	e8 00 00 00 00	 call	 ?fabs@@YGMM@Z		; fabs
  01e00	d9 9d d4 fc ff
	ff		 fstp	 DWORD PTR tv3011[ebp]
  01e06	f3 0f 10 85 d4
	fc ff ff	 movss	 xmm0, DWORD PTR tv3011[ebp]
  01e0e	f3 0f 59 05 00
	00 00 00	 mulss	 xmm0, DWORD PTR __real@42652ee0
  01e16	f3 0f 10 8d d8
	fc ff ff	 movss	 xmm1, DWORD PTR tv3879[ebp]
  01e1e	f3 0f 59 c8	 mulss	 xmm1, xmm0
  01e22	f3 0f 11 8d 78
	fe ff ff	 movss	 DWORD PTR _rotor_induced$48[ebp], xmm1

; 1898 : 			rotor_drag = rotor_friction + rotor_parasitic + rotor_induced;

  01e2a	f3 0f 10 85 80
	fe ff ff	 movss	 xmm0, DWORD PTR _rotor_friction$50[ebp]
  01e32	f3 0f 58 85 7c
	fe ff ff	 addss	 xmm0, DWORD PTR _rotor_parasitic$49[ebp]
  01e3a	f3 0f 58 85 78
	fe ff ff	 addss	 xmm0, DWORD PTR _rotor_induced$48[ebp]
  01e42	f3 0f 11 85 74
	fe ff ff	 movss	 DWORD PTR _rotor_drag$47[ebp], xmm0

; 1899 : 
; 1900 : 			if (current_flight_dynamics->rotor_brake)

  01e4a	a1 00 00 00 00	 mov	 eax, DWORD PTR ?current_flight_dynamics@@3PAUDYNAMICS_TYPE@@A ; current_flight_dynamics
  01e4f	8b 88 28 25 00
	00		 mov	 ecx, DWORD PTR [eax+9512]
  01e55	c1 e9 05	 shr	 ecx, 5
  01e58	83 e1 01	 and	 ecx, 1
  01e5b	74 1a		 je	 SHORT $LN33@update_att

; 1901 : 			{
; 1902 : 
; 1903 : 				a = rotor_drag / mass;

  01e5d	f3 0f 10 85 74
	fe ff ff	 movss	 xmm0, DWORD PTR _rotor_drag$47[ebp]
  01e65	f3 0f 5e 05 00
	00 00 00	 divss	 xmm0, DWORD PTR ?mass@?FK@??update_attitude_dynamics@@YGXXZ@4MA
  01e6d	f3 0f 11 85 88
	fe ff ff	 movss	 DWORD PTR _a$52[ebp], xmm0

; 1904 : 			}
; 1905 : 			else

  01e75	eb 20		 jmp	 SHORT $LN34@update_att
$LN33@update_att:

; 1906 : 			{
; 1907 : 
; 1908 : 				a = (torque - rotor_drag) / mass;

  01e77	f3 0f 10 05 00
	00 00 00	 movss	 xmm0, DWORD PTR ?torque@?FK@??update_attitude_dynamics@@YGXXZ@4MA
  01e7f	f3 0f 5c 85 74
	fe ff ff	 subss	 xmm0, DWORD PTR _rotor_drag$47[ebp]
  01e87	f3 0f 5e 05 00
	00 00 00	 divss	 xmm0, DWORD PTR ?mass@?FK@??update_attitude_dynamics@@YGXXZ@4MA
  01e8f	f3 0f 11 85 88
	fe ff ff	 movss	 DWORD PTR _a$52[ebp], xmm0
$LN34@update_att:

; 1909 : 			}
; 1910 : 
; 1911 : 			v = u + (a * get_model_delta_time ());

  01e97	a1 00 00 00 00	 mov	 eax, DWORD PTR ?current_flight_dynamics@@3PAUDYNAMICS_TYPE@@A ; current_flight_dynamics
  01e9c	f3 0f 10 85 88
	fe ff ff	 movss	 xmm0, DWORD PTR _a$52[ebp]
  01ea4	f3 0f 59 80 90
	00 00 00	 mulss	 xmm0, DWORD PTR [eax+144]
  01eac	f3 0f 58 85 84
	fe ff ff	 addss	 xmm0, DWORD PTR _u$51[ebp]
  01eb4	f3 0f 11 05 00
	00 00 00	 movss	 DWORD PTR ?v@?FK@??update_attitude_dynamics@@YGXXZ@4MA, xmm0

; 1912 : 
; 1913 : 			// engine management
; 1914 : 
; 1915 : 			torque += engine_response * (100.0 - (v + (a * res))) * get_model_delta_time ();

  01ebc	f3 0f 5a 85 90
	fe ff ff	 cvtss2sd xmm0, DWORD PTR _engine_response$54[ebp]
  01ec4	f3 0f 10 8d 88
	fe ff ff	 movss	 xmm1, DWORD PTR _a$52[ebp]
  01ecc	f3 0f 59 0d 00
	00 00 00	 mulss	 xmm1, DWORD PTR ?res@?FK@??update_attitude_dynamics@@YGXXZ@4MA
  01ed4	f3 0f 58 0d 00
	00 00 00	 addss	 xmm1, DWORD PTR ?v@?FK@??update_attitude_dynamics@@YGXXZ@4MA
  01edc	f3 0f 5a c9	 cvtss2sd xmm1, xmm1
  01ee0	f2 0f 10 15 00
	00 00 00	 movsd	 xmm2, QWORD PTR __real@4059000000000000
  01ee8	f2 0f 5c d1	 subsd	 xmm2, xmm1
  01eec	f2 0f 59 c2	 mulsd	 xmm0, xmm2
  01ef0	a1 00 00 00 00	 mov	 eax, DWORD PTR ?current_flight_dynamics@@3PAUDYNAMICS_TYPE@@A ; current_flight_dynamics
  01ef5	f3 0f 5a 88 90
	00 00 00	 cvtss2sd xmm1, DWORD PTR [eax+144]
  01efd	f2 0f 59 c1	 mulsd	 xmm0, xmm1
  01f01	f3 0f 5a 0d 00
	00 00 00	 cvtss2sd xmm1, DWORD PTR ?torque@?FK@??update_attitude_dynamics@@YGXXZ@4MA
  01f09	f2 0f 58 c8	 addsd	 xmm1, xmm0
  01f0d	f2 0f 5a c1	 cvtsd2ss xmm0, xmm1
  01f11	f3 0f 11 05 00
	00 00 00	 movss	 DWORD PTR ?torque@?FK@??update_attitude_dynamics@@YGXXZ@4MA, xmm0

; 1916 : 			torque = bound (torque, 0.0, 120.0);

  01f19	f3 0f 5a 05 00
	00 00 00	 cvtss2sd xmm0, DWORD PTR ?torque@?FK@??update_attitude_dynamics@@YGXXZ@4MA
  01f21	0f 57 c9	 xorps	 xmm1, xmm1
  01f24	66 0f 2f c8	 comisd	 xmm1, xmm0
  01f28	76 0d		 jbe	 SHORT $LN125@update_att
  01f2a	0f 57 c0	 xorps	 xmm0, xmm0
  01f2d	f2 0f 11 85 d4
	fc ff ff	 movsd	 QWORD PTR tv1110[ebp], xmm0
  01f35	eb 44		 jmp	 SHORT $LN126@update_att
$LN125@update_att:
  01f37	f3 0f 5a 05 00
	00 00 00	 cvtss2sd xmm0, DWORD PTR ?torque@?FK@??update_attitude_dynamics@@YGXXZ@4MA
  01f3f	66 0f 2f 05 00
	00 00 00	 comisd	 xmm0, QWORD PTR __real@405e000000000000
  01f47	76 12		 jbe	 SHORT $LN123@update_att
  01f49	f2 0f 10 05 00
	00 00 00	 movsd	 xmm0, QWORD PTR __real@405e000000000000
  01f51	f2 0f 11 85 cc
	fc ff ff	 movsd	 QWORD PTR tv1109[ebp], xmm0
  01f59	eb 10		 jmp	 SHORT $LN124@update_att
$LN123@update_att:
  01f5b	f3 0f 5a 05 00
	00 00 00	 cvtss2sd xmm0, DWORD PTR ?torque@?FK@??update_attitude_dynamics@@YGXXZ@4MA
  01f63	f2 0f 11 85 cc
	fc ff ff	 movsd	 QWORD PTR tv1109[ebp], xmm0
$LN124@update_att:
  01f6b	f2 0f 10 85 cc
	fc ff ff	 movsd	 xmm0, QWORD PTR tv1109[ebp]
  01f73	f2 0f 11 85 d4
	fc ff ff	 movsd	 QWORD PTR tv1110[ebp], xmm0
$LN126@update_att:
  01f7b	f2 0f 5a 85 d4
	fc ff ff	 cvtsd2ss xmm0, QWORD PTR tv1110[ebp]
  01f83	f3 0f 11 05 00
	00 00 00	 movss	 DWORD PTR ?torque@?FK@??update_attitude_dynamics@@YGXXZ@4MA, xmm0

; 1917 : 
; 1918 : 			main_angular_force = heading_inertia_value * (torque * 2.0 * PI * (current_flight_dynamics->main_rotor_diameter.value / 2.0)) / 1649.0;

  01f8b	f3 0f 5a 85 60
	ff ff ff	 cvtss2sd xmm0, DWORD PTR _heading_inertia_value$[ebp]
  01f93	f3 0f 5a 0d 00
	00 00 00	 cvtss2sd xmm1, DWORD PTR ?torque@?FK@??update_attitude_dynamics@@YGXXZ@4MA
  01f9b	f2 0f 59 0d 00
	00 00 00	 mulsd	 xmm1, QWORD PTR __real@4000000000000000
  01fa3	f2 0f 59 0d 00
	00 00 00	 mulsd	 xmm1, QWORD PTR __real@400921fb60000000
  01fab	a1 00 00 00 00	 mov	 eax, DWORD PTR ?current_flight_dynamics@@3PAUDYNAMICS_TYPE@@A ; current_flight_dynamics
  01fb0	f3 0f 5a 90 9c
	1d 00 00	 cvtss2sd xmm2, DWORD PTR [eax+7580]
  01fb8	f2 0f 5e 15 00
	00 00 00	 divsd	 xmm2, QWORD PTR __real@4000000000000000
  01fc0	f2 0f 59 ca	 mulsd	 xmm1, xmm2
  01fc4	f2 0f 59 c1	 mulsd	 xmm0, xmm1
  01fc8	f2 0f 5e 05 00
	00 00 00	 divsd	 xmm0, QWORD PTR __real@4099c40000000000
  01fd0	f2 0f 5a c0	 cvtsd2ss xmm0, xmm0
  01fd4	f3 0f 11 85 7c
	ff ff ff	 movss	 DWORD PTR _main_angular_force$[ebp], xmm0

; 1919 : 
; 1920 : 			position.x = 0.0;

  01fdc	0f 57 c0	 xorps	 xmm0, xmm0
  01fdf	f3 0f 11 85 1c
	ff ff ff	 movss	 DWORD PTR _position$[ebp], xmm0

; 1921 : 			position.y = -0.08022;

  01fe7	f3 0f 10 05 00
	00 00 00	 movss	 xmm0, DWORD PTR __real@bda44a62
  01fef	f3 0f 11 85 20
	ff ff ff	 movss	 DWORD PTR _position$[ebp+4], xmm0

; 1922 : 			position.z = -current_flight_dynamics->tail_boom_length.value;

  01ff7	a1 00 00 00 00	 mov	 eax, DWORD PTR ?current_flight_dynamics@@3PAUDYNAMICS_TYPE@@A ; current_flight_dynamics
  01ffc	f3 0f 10 80 ac
	1f 00 00	 movss	 xmm0, DWORD PTR [eax+8108]
  02004	0f 57 05 00 00
	00 00		 xorps	 xmm0, DWORD PTR __xmm@80000000800000008000000080000000
  0200b	f3 0f 11 85 24
	ff ff ff	 movss	 DWORD PTR _position$[ebp+8], xmm0

; 1923 : 
; 1924 : 			direction.x = -current_flight_dynamics->rotor_rotation_direction;

  02013	a1 00 00 00 00	 mov	 eax, DWORD PTR ?current_flight_dynamics@@3PAUDYNAMICS_TYPE@@A ; current_flight_dynamics
  02018	0f bf 88 1c 25
	00 00		 movsx	 ecx, WORD PTR [eax+9500]
  0201f	f7 d9		 neg	 ecx
  02021	f3 0f 2a c1	 cvtsi2ss xmm0, ecx
  02025	f3 0f 11 85 10
	ff ff ff	 movss	 DWORD PTR _direction$[ebp], xmm0

; 1925 : 			direction.y = 0.0;

  0202d	0f 57 c0	 xorps	 xmm0, xmm0
  02030	f3 0f 11 85 14
	ff ff ff	 movss	 DWORD PTR _direction$[ebp+4], xmm0

; 1926 : 			direction.z = 0.0;

  02038	0f 57 c0	 xorps	 xmm0, xmm0
  0203b	f3 0f 11 85 18
	ff ff ff	 movss	 DWORD PTR _direction$[ebp+8], xmm0

; 1927 : 
; 1928 : 			main_angular_force = (2 * 9) - main_angular_force;

  02043	f3 0f 10 05 00
	00 00 00	 movss	 xmm0, DWORD PTR __real@41900000
  0204b	f3 0f 5c 85 7c
	ff ff ff	 subss	 xmm0, DWORD PTR _main_angular_force$[ebp]
  02053	f3 0f 11 85 7c
	ff ff ff	 movss	 DWORD PTR _main_angular_force$[ebp], xmm0

; 1929 : 
; 1930 : 			if (model_landed)

  0205b	83 7d fc 00	 cmp	 DWORD PTR _model_landed$[ebp], 0
  0205f	0f 84 a5 00 00
	00		 je	 $LN37@update_att

; 1931 : 			{
; 1932 : 
; 1933 : 				position.y = 0.0;

  02065	0f 57 c0	 xorps	 xmm0, xmm0
  02068	f3 0f 11 85 20
	ff ff ff	 movss	 DWORD PTR _position$[ebp+4], xmm0

; 1934 : 
; 1935 : 				if ((current_flight_dynamics->input_data.pedal_input_pressure != PEDAL_PRESSURE_LEFT) &&

  02070	a1 00 00 00 00	 mov	 eax, DWORD PTR ?current_flight_dynamics@@3PAUDYNAMICS_TYPE@@A ; current_flight_dynamics
  02075	83 b8 20 1c 00
	00 01		 cmp	 DWORD PTR [eax+7200], 1
  0207c	74 1b		 je	 SHORT $LN36@update_att
  0207e	a1 00 00 00 00	 mov	 eax, DWORD PTR ?current_flight_dynamics@@3PAUDYNAMICS_TYPE@@A ; current_flight_dynamics
  02083	83 b8 20 1c 00
	00 02		 cmp	 DWORD PTR [eax+7200], 2
  0208a	74 0d		 je	 SHORT $LN36@update_att

; 1936 : 					(current_flight_dynamics->input_data.pedal_input_pressure != PEDAL_PRESSURE_RIGHT))
; 1937 : 				{
; 1938 : 
; 1939 : 					main_angular_force = 0.0;

  0208c	0f 57 c0	 xorps	 xmm0, xmm0
  0208f	f3 0f 11 85 7c
	ff ff ff	 movss	 DWORD PTR _main_angular_force$[ebp], xmm0

; 1940 : 				}
; 1941 : 				else

  02097	eb 71		 jmp	 SHORT $LN37@update_att
$LN36@update_att:

; 1942 : 				{
; 1943 : 
; 1944 : 					main_angular_force *= min (fabs (current_flight_dynamics->velocity_z.value) / 15.0, 1.0);

  02099	f2 0f 10 05 00
	00 00 00	 movsd	 xmm0, QWORD PTR __real@3ff0000000000000
  020a1	f2 0f 11 85 18
	fd ff ff	 movsd	 QWORD PTR $T15[ebp], xmm0
  020a9	a1 00 00 00 00	 mov	 eax, DWORD PTR ?current_flight_dynamics@@3PAUDYNAMICS_TYPE@@A ; current_flight_dynamics
  020ae	51		 push	 ecx
  020af	f3 0f 10 80 9c
	20 00 00	 movss	 xmm0, DWORD PTR [eax+8348]
  020b7	f3 0f 11 04 24	 movss	 DWORD PTR [esp], xmm0
  020bc	e8 00 00 00 00	 call	 ?fabs@@YGMM@Z		; fabs
  020c1	dd 9d d4 fc ff
	ff		 fstp	 QWORD PTR tv3049[ebp]
  020c7	f2 0f 10 85 d4
	fc ff ff	 movsd	 xmm0, QWORD PTR tv3049[ebp]
  020cf	f2 0f 5e 05 00
	00 00 00	 divsd	 xmm0, QWORD PTR __real@402e000000000000
  020d7	f2 0f 11 85 10
	fd ff ff	 movsd	 QWORD PTR $T14[ebp], xmm0
  020df	8d 8d 18 fd ff
	ff		 lea	 ecx, DWORD PTR $T15[ebp]
  020e5	51		 push	 ecx
  020e6	8d 95 10 fd ff
	ff		 lea	 edx, DWORD PTR $T14[ebp]
  020ec	52		 push	 edx
  020ed	e8 00 00 00 00	 call	 ??$min@N@std@@YGABNABN0@Z ; std::min<double>
  020f2	f3 0f 5a 85 7c
	ff ff ff	 cvtss2sd xmm0, DWORD PTR _main_angular_force$[ebp]
  020fa	f2 0f 59 00	 mulsd	 xmm0, QWORD PTR [eax]
  020fe	f2 0f 5a c0	 cvtsd2ss xmm0, xmm0
  02102	f3 0f 11 85 7c
	ff ff ff	 movss	 DWORD PTR _main_angular_force$[ebp], xmm0
$LN37@update_att:

; 1945 : 				}
; 1946 : 			}
; 1947 : 
; 1948 : 			add_dynamic_force ("Main rotor angular torque", main_angular_force, 0.0, &position, &direction, FALSE);

  0210a	6a 00		 push	 0
  0210c	8d 85 10 ff ff
	ff		 lea	 eax, DWORD PTR _direction$[ebp]
  02112	50		 push	 eax
  02113	8d 8d 1c ff ff
	ff		 lea	 ecx, DWORD PTR _position$[ebp]
  02119	51		 push	 ecx
  0211a	51		 push	 ecx
  0211b	0f 57 c0	 xorps	 xmm0, xmm0
  0211e	f3 0f 11 04 24	 movss	 DWORD PTR [esp], xmm0
  02123	51		 push	 ecx
  02124	f3 0f 10 85 7c
	ff ff ff	 movss	 xmm0, DWORD PTR _main_angular_force$[ebp]
  0212c	f3 0f 11 04 24	 movss	 DWORD PTR [esp], xmm0
  02131	68 00 00 00 00	 push	 OFFSET ??_C@_0BK@DILBAPLM@Main?5rotor?5angular?5torque@
  02136	e8 00 00 00 00	 call	 ?add_dynamic_force@@YGXPBDMMPAUVEC3D@@1H@Z ; add_dynamic_force
$LN31@update_att:

; 1949 : 		}
; 1950 : 	}
; 1951 : 	////////////////////////////////////////////
; 1952 : 	// Rotor Resistance to movement (Pitch) raw delta pitch
; 1953 : 	////////////////////////////////////////////
; 1954 : 	{
; 1955 : 
; 1956 : 		reaction_force = pitch_inertia_value *

  0213b	a1 00 00 00 00	 mov	 eax, DWORD PTR ?current_flight_dynamics@@3PAUDYNAMICS_TYPE@@A ; current_flight_dynamics
  02140	8b 0d 00 00 00
	00		 mov	 ecx, DWORD PTR ?current_flight_dynamics@@3PAUDYNAMICS_TYPE@@A ; current_flight_dynamics
  02146	f3 0f 10 80 60
	21 00 00	 movss	 xmm0, DWORD PTR [eax+8544]
  0214e	f3 0f 58 81 00
	1e 00 00	 addss	 xmm0, DWORD PTR [ecx+7680]
  02156	f3 0f 59 85 5c
	ff ff ff	 mulss	 xmm0, DWORD PTR _pitch_inertia_value$[ebp]
  0215e	f3 0f 11 45 80	 movss	 DWORD PTR _reaction_force$[ebp], xmm0

; 1957 : 							(current_flight_dynamics->pitch.delta + current_flight_dynamics->main_rotor_pitch_angle.delta);
; 1958 : 
; 1959 : 		position.x = 0.0;

  02163	0f 57 c0	 xorps	 xmm0, xmm0
  02166	f3 0f 11 85 1c
	ff ff ff	 movss	 DWORD PTR _position$[ebp], xmm0

; 1960 : 		position.y = 0.0;

  0216e	0f 57 c0	 xorps	 xmm0, xmm0
  02171	f3 0f 11 85 20
	ff ff ff	 movss	 DWORD PTR _position$[ebp+4], xmm0

; 1961 : 		position.z = 7.299;

  02179	f3 0f 10 05 00
	00 00 00	 movss	 xmm0, DWORD PTR __real@40e99168
  02181	f3 0f 11 85 24
	ff ff ff	 movss	 DWORD PTR _position$[ebp+8], xmm0

; 1962 : 
; 1963 : 		direction.x = 0.0;

  02189	0f 57 c0	 xorps	 xmm0, xmm0
  0218c	f3 0f 11 85 10
	ff ff ff	 movss	 DWORD PTR _direction$[ebp], xmm0

; 1964 : 		direction.y = -1.0;

  02194	f3 0f 10 05 00
	00 00 00	 movss	 xmm0, DWORD PTR __real@bf800000
  0219c	f3 0f 11 85 14
	ff ff ff	 movss	 DWORD PTR _direction$[ebp+4], xmm0

; 1965 : 		direction.z = 0.0;

  021a4	0f 57 c0	 xorps	 xmm0, xmm0
  021a7	f3 0f 11 85 18
	ff ff ff	 movss	 DWORD PTR _direction$[ebp+8], xmm0

; 1966 : 
; 1967 : 		add_dynamic_force ("Pitch resistance", reaction_force, 0.0, &position, &direction, FALSE);

  021af	6a 00		 push	 0
  021b1	8d 85 10 ff ff
	ff		 lea	 eax, DWORD PTR _direction$[ebp]
  021b7	50		 push	 eax
  021b8	8d 8d 1c ff ff
	ff		 lea	 ecx, DWORD PTR _position$[ebp]
  021be	51		 push	 ecx
  021bf	51		 push	 ecx
  021c0	0f 57 c0	 xorps	 xmm0, xmm0
  021c3	f3 0f 11 04 24	 movss	 DWORD PTR [esp], xmm0
  021c8	51		 push	 ecx
  021c9	f3 0f 10 45 80	 movss	 xmm0, DWORD PTR _reaction_force$[ebp]
  021ce	f3 0f 11 04 24	 movss	 DWORD PTR [esp], xmm0
  021d3	68 00 00 00 00	 push	 OFFSET ??_C@_0BB@FPOJGHNF@Pitch?5resistance@
  021d8	e8 00 00 00 00	 call	 ?add_dynamic_force@@YGXPBDMMPAUVEC3D@@1H@Z ; add_dynamic_force

; 1968 : 	}
; 1969 : 	////////////////////////////////////////////
; 1970 : 	// Rotor Resistance to movement (Roll)
; 1971 : 	////////////////////////////////////////////
; 1972 : 	{
; 1973 : 
; 1974 : 		reaction_force = roll_inertia_value *

  021dd	a1 00 00 00 00	 mov	 eax, DWORD PTR ?current_flight_dynamics@@3PAUDYNAMICS_TYPE@@A ; current_flight_dynamics
  021e2	8b 0d 00 00 00
	00		 mov	 ecx, DWORD PTR ?current_flight_dynamics@@3PAUDYNAMICS_TYPE@@A ; current_flight_dynamics
  021e8	f3 0f 10 80 78
	21 00 00	 movss	 xmm0, DWORD PTR [eax+8568]
  021f0	f3 0f 58 81 e8
	1d 00 00	 addss	 xmm0, DWORD PTR [ecx+7656]
  021f8	f3 0f 59 85 58
	ff ff ff	 mulss	 xmm0, DWORD PTR _roll_inertia_value$[ebp]
  02200	f3 0f 11 45 80	 movss	 DWORD PTR _reaction_force$[ebp], xmm0

; 1975 : 							(current_flight_dynamics->roll.delta + current_flight_dynamics->main_rotor_roll_angle.delta);
; 1976 : 
; 1977 : 		position.x = 7.299;

  02205	f3 0f 10 05 00
	00 00 00	 movss	 xmm0, DWORD PTR __real@40e99168
  0220d	f3 0f 11 85 1c
	ff ff ff	 movss	 DWORD PTR _position$[ebp], xmm0

; 1978 : 		position.y = 0.0;

  02215	0f 57 c0	 xorps	 xmm0, xmm0
  02218	f3 0f 11 85 20
	ff ff ff	 movss	 DWORD PTR _position$[ebp+4], xmm0

; 1979 : 		position.z = 0.0;

  02220	0f 57 c0	 xorps	 xmm0, xmm0
  02223	f3 0f 11 85 24
	ff ff ff	 movss	 DWORD PTR _position$[ebp+8], xmm0

; 1980 : 
; 1981 : 		direction.x = 0.0;

  0222b	0f 57 c0	 xorps	 xmm0, xmm0
  0222e	f3 0f 11 85 10
	ff ff ff	 movss	 DWORD PTR _direction$[ebp], xmm0

; 1982 : 		direction.y = 1.0;

  02236	f3 0f 10 05 00
	00 00 00	 movss	 xmm0, DWORD PTR __real@3f800000
  0223e	f3 0f 11 85 14
	ff ff ff	 movss	 DWORD PTR _direction$[ebp+4], xmm0

; 1983 : 		direction.z = 0.0;

  02246	0f 57 c0	 xorps	 xmm0, xmm0
  02249	f3 0f 11 85 18
	ff ff ff	 movss	 DWORD PTR _direction$[ebp+8], xmm0

; 1984 : 
; 1985 : 		add_dynamic_force ("Roll resistance", reaction_force, 0.0, &position, &direction, FALSE);

  02251	6a 00		 push	 0
  02253	8d 85 10 ff ff
	ff		 lea	 eax, DWORD PTR _direction$[ebp]
  02259	50		 push	 eax
  0225a	8d 8d 1c ff ff
	ff		 lea	 ecx, DWORD PTR _position$[ebp]
  02260	51		 push	 ecx
  02261	51		 push	 ecx
  02262	0f 57 c0	 xorps	 xmm0, xmm0
  02265	f3 0f 11 04 24	 movss	 DWORD PTR [esp], xmm0
  0226a	51		 push	 ecx
  0226b	f3 0f 10 45 80	 movss	 xmm0, DWORD PTR _reaction_force$[ebp]
  02270	f3 0f 11 04 24	 movss	 DWORD PTR [esp], xmm0
  02275	68 00 00 00 00	 push	 OFFSET ??_C@_0BA@JHNCKIDL@Roll?5resistance@
  0227a	e8 00 00 00 00	 call	 ?add_dynamic_force@@YGXPBDMMPAUVEC3D@@1H@Z ; add_dynamic_force

; 1986 : 	}
; 1987 : 	////////////////////////////////////////////
; 1988 : 	// Tail Rotor Resistance to movement. raw delta heading resistance
; 1989 : 	////////////////////////////////////////////
; 1990 : 	{
; 1991 : 		float
; 1992 : 			a,
; 1993 : 			scaling,
; 1994 : 			drag;
; 1995 : 
; 1996 : 		drag = -40.0;

  0227f	f3 0f 10 05 00
	00 00 00	 movss	 xmm0, DWORD PTR __real@c2200000
  02287	f3 0f 11 85 68
	fe ff ff	 movss	 DWORD PTR _drag$44[ebp], xmm0

; 1997 : 
; 1998 : 		reaction_force = drag * current_flight_dynamics->heading.delta * current_flight_dynamics->tail_boom_length.value;

  0228f	a1 00 00 00 00	 mov	 eax, DWORD PTR ?current_flight_dynamics@@3PAUDYNAMICS_TYPE@@A ; current_flight_dynamics
  02294	f3 0f 10 85 68
	fe ff ff	 movss	 xmm0, DWORD PTR _drag$44[ebp]
  0229c	f3 0f 59 80 90
	21 00 00	 mulss	 xmm0, DWORD PTR [eax+8592]
  022a4	8b 0d 00 00 00
	00		 mov	 ecx, DWORD PTR ?current_flight_dynamics@@3PAUDYNAMICS_TYPE@@A ; current_flight_dynamics
  022aa	f3 0f 59 81 ac
	1f 00 00	 mulss	 xmm0, DWORD PTR [ecx+8108]
  022b2	f3 0f 11 45 80	 movss	 DWORD PTR _reaction_force$[ebp], xmm0

; 1999 : 
; 2000 : 		a = exp (velocity_z_value / 45.0);

  022b7	f3 0f 5a 85 48
	ff ff ff	 cvtss2sd xmm0, DWORD PTR _velocity_z_value$[ebp]
  022bf	f2 0f 5e 05 00
	00 00 00	 divsd	 xmm0, QWORD PTR __real@4046800000000000
  022c7	83 ec 08	 sub	 esp, 8
  022ca	f2 0f 11 04 24	 movsd	 QWORD PTR [esp], xmm0
  022cf	e8 00 00 00 00	 call	 _exp
  022d4	83 c4 08	 add	 esp, 8
  022d7	d9 9d 70 fe ff
	ff		 fstp	 DWORD PTR _a$46[ebp]

; 2001 : 
; 2002 : 		if (a != 0.0)

  022dd	f3 0f 5a 85 70
	fe ff ff	 cvtss2sd xmm0, DWORD PTR _a$46[ebp]
  022e5	66 0f 2e 05 00
	00 00 00	 ucomisd xmm0, QWORD PTR __real@0000000000000000
  022ed	9f		 lahf
  022ee	f6 c4 44	 test	 ah, 68			; 00000044H
  022f1	7b 2c		 jnp	 SHORT $LN38@update_att

; 2003 : 		{
; 2004 : 
; 2005 : 			scaling = 1.0 - (1.0 / a);

  022f3	f3 0f 5a 85 70
	fe ff ff	 cvtss2sd xmm0, DWORD PTR _a$46[ebp]
  022fb	f2 0f 10 0d 00
	00 00 00	 movsd	 xmm1, QWORD PTR __real@3ff0000000000000
  02303	f2 0f 5e c8	 divsd	 xmm1, xmm0
  02307	f2 0f 10 05 00
	00 00 00	 movsd	 xmm0, QWORD PTR __real@3ff0000000000000
  0230f	f2 0f 5c c1	 subsd	 xmm0, xmm1
  02313	f2 0f 5a c0	 cvtsd2ss xmm0, xmm0
  02317	f3 0f 11 85 6c
	fe ff ff	 movss	 DWORD PTR _scaling$45[ebp], xmm0
$LN38@update_att:

; 2006 : 		}
; 2007 : 
; 2008 : 		scaling = min (fabs (scaling), 1.0f);

  0231f	f3 0f 10 05 00
	00 00 00	 movss	 xmm0, DWORD PTR __real@3f800000
  02327	f3 0f 11 85 0c
	fd ff ff	 movss	 DWORD PTR $T13[ebp], xmm0
  0232f	51		 push	 ecx
  02330	f3 0f 10 85 6c
	fe ff ff	 movss	 xmm0, DWORD PTR _scaling$45[ebp]
  02338	f3 0f 11 04 24	 movss	 DWORD PTR [esp], xmm0
  0233d	e8 00 00 00 00	 call	 ?fabs@@YGMM@Z		; fabs
  02342	d9 9d 08 fd ff
	ff		 fstp	 DWORD PTR $T12[ebp]
  02348	8d 85 0c fd ff
	ff		 lea	 eax, DWORD PTR $T13[ebp]
  0234e	50		 push	 eax
  0234f	8d 8d 08 fd ff
	ff		 lea	 ecx, DWORD PTR $T12[ebp]
  02355	51		 push	 ecx
  02356	e8 00 00 00 00	 call	 ??$min@M@std@@YGABMABM0@Z ; std::min<float>
  0235b	f3 0f 10 00	 movss	 xmm0, DWORD PTR [eax]
  0235f	f3 0f 11 85 6c
	fe ff ff	 movss	 DWORD PTR _scaling$45[ebp], xmm0

; 2009 : 
; 2010 : 		reaction_force += (tail_angular_force - main_angular_force) * scaling;

  02367	f3 0f 10 85 78
	ff ff ff	 movss	 xmm0, DWORD PTR _tail_angular_force$[ebp]
  0236f	f3 0f 5c 85 7c
	ff ff ff	 subss	 xmm0, DWORD PTR _main_angular_force$[ebp]
  02377	f3 0f 59 85 6c
	fe ff ff	 mulss	 xmm0, DWORD PTR _scaling$45[ebp]
  0237f	f3 0f 58 45 80	 addss	 xmm0, DWORD PTR _reaction_force$[ebp]
  02384	f3 0f 11 45 80	 movss	 DWORD PTR _reaction_force$[ebp], xmm0

; 2011 : 
; 2012 : 		position.x = 0.0;

  02389	0f 57 c0	 xorps	 xmm0, xmm0
  0238c	f3 0f 11 85 1c
	ff ff ff	 movss	 DWORD PTR _position$[ebp], xmm0

; 2013 : 		position.y = -0.08022;

  02394	f3 0f 10 05 00
	00 00 00	 movss	 xmm0, DWORD PTR __real@bda44a62
  0239c	f3 0f 11 85 20
	ff ff ff	 movss	 DWORD PTR _position$[ebp+4], xmm0

; 2014 : 		position.z = -current_flight_dynamics->tail_boom_length.value;

  023a4	a1 00 00 00 00	 mov	 eax, DWORD PTR ?current_flight_dynamics@@3PAUDYNAMICS_TYPE@@A ; current_flight_dynamics
  023a9	f3 0f 10 80 ac
	1f 00 00	 movss	 xmm0, DWORD PTR [eax+8108]
  023b1	0f 57 05 00 00
	00 00		 xorps	 xmm0, DWORD PTR __xmm@80000000800000008000000080000000
  023b8	f3 0f 11 85 24
	ff ff ff	 movss	 DWORD PTR _position$[ebp+8], xmm0

; 2015 : 
; 2016 : 		if (model_landed)

  023c0	83 7d fc 00	 cmp	 DWORD PTR _model_landed$[ebp], 0
  023c4	74 0b		 je	 SHORT $LN39@update_att

; 2017 : 		{
; 2018 : 
; 2019 : 			position.y = 0.0;

  023c6	0f 57 c0	 xorps	 xmm0, xmm0
  023c9	f3 0f 11 85 20
	ff ff ff	 movss	 DWORD PTR _position$[ebp+4], xmm0
$LN39@update_att:

; 2020 : 		}
; 2021 : 
; 2022 : 		direction.x = 1.0;

  023d1	f3 0f 10 05 00
	00 00 00	 movss	 xmm0, DWORD PTR __real@3f800000
  023d9	f3 0f 11 85 10
	ff ff ff	 movss	 DWORD PTR _direction$[ebp], xmm0

; 2023 : 		direction.y = 0.0;

  023e1	0f 57 c0	 xorps	 xmm0, xmm0
  023e4	f3 0f 11 85 14
	ff ff ff	 movss	 DWORD PTR _direction$[ebp+4], xmm0

; 2024 : 		direction.z = 0.0;

  023ec	0f 57 c0	 xorps	 xmm0, xmm0
  023ef	f3 0f 11 85 18
	ff ff ff	 movss	 DWORD PTR _direction$[ebp+8], xmm0

; 2025 : 
; 2026 : 		if (current_flight_dynamics->tail_rotor_rpm.damaged)

  023f7	a1 00 00 00 00	 mov	 eax, DWORD PTR ?current_flight_dynamics@@3PAUDYNAMICS_TYPE@@A ; current_flight_dynamics
  023fc	0f b7 88 5c 1f
	00 00		 movzx	 ecx, WORD PTR [eax+8028]
  02403	85 c9		 test	 ecx, ecx
  02405	74 3b		 je	 SHORT $LN40@update_att

; 2027 : 		{
; 2028 : 
; 2029 : 			reaction_force *= 0.25 + 0.65 * (velocity_z_value / current_flight_dynamics->velocity_z.max);

  02407	a1 00 00 00 00	 mov	 eax, DWORD PTR ?current_flight_dynamics@@3PAUDYNAMICS_TYPE@@A ; current_flight_dynamics
  0240c	f3 0f 10 85 48
	ff ff ff	 movss	 xmm0, DWORD PTR _velocity_z_value$[ebp]
  02414	f3 0f 5e 80 a8
	20 00 00	 divss	 xmm0, DWORD PTR [eax+8360]
  0241c	f3 0f 5a c0	 cvtss2sd xmm0, xmm0
  02420	f2 0f 59 05 00
	00 00 00	 mulsd	 xmm0, QWORD PTR __real@3fe4cccccccccccd
  02428	f2 0f 58 05 00
	00 00 00	 addsd	 xmm0, QWORD PTR __real@3fd0000000000000
  02430	f3 0f 5a 4d 80	 cvtss2sd xmm1, DWORD PTR _reaction_force$[ebp]
  02435	f2 0f 59 c8	 mulsd	 xmm1, xmm0
  02439	f2 0f 5a c1	 cvtsd2ss xmm0, xmm1
  0243d	f3 0f 11 45 80	 movss	 DWORD PTR _reaction_force$[ebp], xmm0
$LN40@update_att:

; 2030 : 		}
; 2031 : 
; 2032 : 		add_dynamic_force ("Yaw resistance", reaction_force, 0.0, &position, &direction, FALSE);

  02442	6a 00		 push	 0
  02444	8d 85 10 ff ff
	ff		 lea	 eax, DWORD PTR _direction$[ebp]
  0244a	50		 push	 eax
  0244b	8d 8d 1c ff ff
	ff		 lea	 ecx, DWORD PTR _position$[ebp]
  02451	51		 push	 ecx
  02452	51		 push	 ecx
  02453	0f 57 c0	 xorps	 xmm0, xmm0
  02456	f3 0f 11 04 24	 movss	 DWORD PTR [esp], xmm0
  0245b	51		 push	 ecx
  0245c	f3 0f 10 45 80	 movss	 xmm0, DWORD PTR _reaction_force$[ebp]
  02461	f3 0f 11 04 24	 movss	 DWORD PTR [esp], xmm0
  02466	68 00 00 00 00	 push	 OFFSET ??_C@_0P@OJCKBBIP@Yaw?5resistance@
  0246b	e8 00 00 00 00	 call	 ?add_dynamic_force@@YGXPBDMMPAUVEC3D@@1H@Z ; add_dynamic_force

; 2033 : 	}
; 2034 : 	////////////////////////////////////////////
; 2035 : 	// Fuselage aerodynamics motion_vector -> attitude realignment force in the y axis
; 2036 : 	////////////////////////////////////////////
; 2037 : 	if ((!model_landed) &&

  02470	83 7d fc 00	 cmp	 DWORD PTR _model_landed$[ebp], 0
  02474	0f 85 22 02 00
	00		 jne	 $LN42@update_att
  0247a	a1 00 00 00 00	 mov	 eax, DWORD PTR ?current_flight_dynamics@@3PAUDYNAMICS_TYPE@@A ; current_flight_dynamics
  0247f	8b 88 24 25 00
	00		 mov	 ecx, DWORD PTR [eax+9508]
  02485	83 e1 02	 and	 ecx, 2
  02488	0f 85 0e 02 00
	00		 jne	 $LN42@update_att

; 2038 : 		(!(current_flight_dynamics->dynamics_damage & DYNAMICS_DAMAGE_MAIN_ROTOR)))
; 2039 : 	{
; 2040 : 
; 2041 : 		if (!check_zero_3d_vector (&model_motion_vector))

  0248e	8d 85 ec fe ff
	ff		 lea	 eax, DWORD PTR _model_motion_vector$[ebp]
  02494	50		 push	 eax
  02495	e8 00 00 00 00	 call	 ?get_3d_vector_magnitude@@YGMPBUVEC3D@@@Z ; get_3d_vector_magnitude
  0249a	dd 9d d4 fc ff
	ff		 fstp	 QWORD PTR tv3140[ebp]
  024a0	f2 0f 10 85 d4
	fc ff ff	 movsd	 xmm0, QWORD PTR tv3140[ebp]
  024a8	66 0f 2e 05 00
	00 00 00	 ucomisd xmm0, QWORD PTR __real@0000000000000000
  024b0	9f		 lahf
  024b1	f6 c4 44	 test	 ah, 68			; 00000044H
  024b4	0f 8b e2 01 00
	00		 jnp	 $LN42@update_att

; 2042 : 		{
; 2043 : 
; 2044 : 			vec3d
; 2045 : 				unnormalised_direction;
; 2046 : 
; 2047 : 			direction = model_motion_vector;

  024ba	8b 85 ec fe ff
	ff		 mov	 eax, DWORD PTR _model_motion_vector$[ebp]
  024c0	89 85 10 ff ff
	ff		 mov	 DWORD PTR _direction$[ebp], eax
  024c6	8b 8d f0 fe ff
	ff		 mov	 ecx, DWORD PTR _model_motion_vector$[ebp+4]
  024cc	89 8d 14 ff ff
	ff		 mov	 DWORD PTR _direction$[ebp+4], ecx
  024d2	8b 95 f4 fe ff
	ff		 mov	 edx, DWORD PTR _model_motion_vector$[ebp+8]
  024d8	89 95 18 ff ff
	ff		 mov	 DWORD PTR _direction$[ebp+8], edx

; 2048 : 
; 2049 : 			invert_3d_vector (&direction);

  024de	8d 85 10 ff ff
	ff		 lea	 eax, DWORD PTR _direction$[ebp]
  024e4	50		 push	 eax
  024e5	e8 00 00 00 00	 call	 ?invert_3d_vector@@YGXPAUVEC3D@@@Z ; invert_3d_vector

; 2050 : 
; 2051 : 			unnormalised_direction = direction;

  024ea	8b 85 10 ff ff
	ff		 mov	 eax, DWORD PTR _direction$[ebp]
  024f0	89 85 5c fe ff
	ff		 mov	 DWORD PTR _unnormalised_direction$43[ebp], eax
  024f6	8b 8d 14 ff ff
	ff		 mov	 ecx, DWORD PTR _direction$[ebp+4]
  024fc	89 8d 60 fe ff
	ff		 mov	 DWORD PTR _unnormalised_direction$43[ebp+4], ecx
  02502	8b 95 18 ff ff
	ff		 mov	 edx, DWORD PTR _direction$[ebp+8]
  02508	89 95 64 fe ff
	ff		 mov	 DWORD PTR _unnormalised_direction$43[ebp+8], edx

; 2052 : 
; 2053 : 			force = 0.0025 * (horizontal_velocity * horizontal_velocity);

  0250e	f3 0f 10 85 44
	ff ff ff	 movss	 xmm0, DWORD PTR _horizontal_velocity$[ebp]
  02516	f3 0f 59 85 44
	ff ff ff	 mulss	 xmm0, DWORD PTR _horizontal_velocity$[ebp]
  0251e	f3 0f 5a c0	 cvtss2sd xmm0, xmm0
  02522	f2 0f 59 05 00
	00 00 00	 mulsd	 xmm0, QWORD PTR __real@3f647ae147ae147b
  0252a	f2 0f 5a c0	 cvtsd2ss xmm0, xmm0
  0252e	f3 0f 11 45 98	 movss	 DWORD PTR _force$[ebp], xmm0

; 2054 : 			force *= current_flight_dynamics->tail_boom_length.value;

  02533	a1 00 00 00 00	 mov	 eax, DWORD PTR ?current_flight_dynamics@@3PAUDYNAMICS_TYPE@@A ; current_flight_dynamics
  02538	f3 0f 10 45 98	 movss	 xmm0, DWORD PTR _force$[ebp]
  0253d	f3 0f 59 80 ac
	1f 00 00	 mulss	 xmm0, DWORD PTR [eax+8108]
  02545	f3 0f 11 45 98	 movss	 DWORD PTR _force$[ebp], xmm0

; 2055 : 
; 2056 : 			this_reaction_force += (force - this_reaction_force) * get_model_delta_time ();

  0254a	f3 0f 10 45 98	 movss	 xmm0, DWORD PTR _force$[ebp]
  0254f	f3 0f 5c 05 00
	00 00 00	 subss	 xmm0, DWORD PTR ?this_reaction_force@@3MA
  02557	a1 00 00 00 00	 mov	 eax, DWORD PTR ?current_flight_dynamics@@3PAUDYNAMICS_TYPE@@A ; current_flight_dynamics
  0255c	f3 0f 59 80 90
	00 00 00	 mulss	 xmm0, DWORD PTR [eax+144]
  02564	f3 0f 58 05 00
	00 00 00	 addss	 xmm0, DWORD PTR ?this_reaction_force@@3MA
  0256c	f3 0f 11 05 00
	00 00 00	 movss	 DWORD PTR ?this_reaction_force@@3MA, xmm0

; 2057 : 
; 2058 : 			this_reaction_force = bound (this_reaction_force, -100.0, 100.0);

  02574	f3 0f 5a 05 00
	00 00 00	 cvtss2sd xmm0, DWORD PTR ?this_reaction_force@@3MA
  0257c	f2 0f 10 0d 00
	00 00 00	 movsd	 xmm1, QWORD PTR __real@c059000000000000
  02584	66 0f 2f c8	 comisd	 xmm1, xmm0
  02588	76 12		 jbe	 SHORT $LN129@update_att
  0258a	f2 0f 10 05 00
	00 00 00	 movsd	 xmm0, QWORD PTR __real@c059000000000000
  02592	f2 0f 11 85 d4
	fc ff ff	 movsd	 QWORD PTR tv1255[ebp], xmm0
  0259a	eb 44		 jmp	 SHORT $LN130@update_att
$LN129@update_att:
  0259c	f3 0f 5a 05 00
	00 00 00	 cvtss2sd xmm0, DWORD PTR ?this_reaction_force@@3MA
  025a4	66 0f 2f 05 00
	00 00 00	 comisd	 xmm0, QWORD PTR __real@4059000000000000
  025ac	76 12		 jbe	 SHORT $LN127@update_att
  025ae	f2 0f 10 05 00
	00 00 00	 movsd	 xmm0, QWORD PTR __real@4059000000000000
  025b6	f2 0f 11 85 cc
	fc ff ff	 movsd	 QWORD PTR tv1254[ebp], xmm0
  025be	eb 10		 jmp	 SHORT $LN128@update_att
$LN127@update_att:
  025c0	f3 0f 5a 05 00
	00 00 00	 cvtss2sd xmm0, DWORD PTR ?this_reaction_force@@3MA
  025c8	f2 0f 11 85 cc
	fc ff ff	 movsd	 QWORD PTR tv1254[ebp], xmm0
$LN128@update_att:
  025d0	f2 0f 10 85 cc
	fc ff ff	 movsd	 xmm0, QWORD PTR tv1254[ebp]
  025d8	f2 0f 11 85 d4
	fc ff ff	 movsd	 QWORD PTR tv1255[ebp], xmm0
$LN130@update_att:
  025e0	f2 0f 5a 85 d4
	fc ff ff	 cvtsd2ss xmm0, QWORD PTR tv1255[ebp]
  025e8	f3 0f 11 05 00
	00 00 00	 movss	 DWORD PTR ?this_reaction_force@@3MA, xmm0

; 2059 : 
; 2060 : 			normalise_any_3d_vector (&direction);

  025f0	8d 85 10 ff ff
	ff		 lea	 eax, DWORD PTR _direction$[ebp]
  025f6	50		 push	 eax
  025f7	e8 00 00 00 00	 call	 ?normalise_any_3d_vector@@YGMPAUVEC3D@@@Z ; normalise_any_3d_vector
  025fc	dd d8		 fstp	 ST(0)

; 2061 : 
; 2062 : 			direction.y = 0.0;

  025fe	0f 57 c0	 xorps	 xmm0, xmm0
  02601	f3 0f 11 85 14
	ff ff ff	 movss	 DWORD PTR _direction$[ebp+4], xmm0

; 2063 : 			direction.z = 0.0;

  02609	0f 57 c0	 xorps	 xmm0, xmm0
  0260c	f3 0f 11 85 18
	ff ff ff	 movss	 DWORD PTR _direction$[ebp+8], xmm0

; 2064 : 
; 2065 : 			position.x = 0.0;

  02614	0f 57 c0	 xorps	 xmm0, xmm0
  02617	f3 0f 11 85 1c
	ff ff ff	 movss	 DWORD PTR _position$[ebp], xmm0

; 2066 : 			position.y = 0.0;

  0261f	0f 57 c0	 xorps	 xmm0, xmm0
  02622	f3 0f 11 85 20
	ff ff ff	 movss	 DWORD PTR _position$[ebp+4], xmm0

; 2067 : 			position.z = -current_flight_dynamics->tail_boom_length.value;

  0262a	a1 00 00 00 00	 mov	 eax, DWORD PTR ?current_flight_dynamics@@3PAUDYNAMICS_TYPE@@A ; current_flight_dynamics
  0262f	f3 0f 10 80 ac
	1f 00 00	 movss	 xmm0, DWORD PTR [eax+8108]
  02637	0f 57 05 00 00
	00 00		 xorps	 xmm0, DWORD PTR __xmm@80000000800000008000000080000000
  0263e	f3 0f 11 85 24
	ff ff ff	 movss	 DWORD PTR _position$[ebp+8], xmm0

; 2068 : 
; 2069 : 			//Werewolf 3 Jan 04
; 2070 : 			if (command_line_dynamics_flight_model == 1)

  02646	83 3d 00 00 00
	00 01		 cmp	 DWORD PTR ?command_line_dynamics_flight_model@@3HA, 1 ; command_line_dynamics_flight_model
  0264d	75 1c		 jne	 SHORT $LN43@update_att

; 2071 : 				this_reaction_force *= 0.1;

  0264f	f3 0f 5a 05 00
	00 00 00	 cvtss2sd xmm0, DWORD PTR ?this_reaction_force@@3MA
  02657	f2 0f 59 05 00
	00 00 00	 mulsd	 xmm0, QWORD PTR __real@3fb999999999999a
  0265f	f2 0f 5a c0	 cvtsd2ss xmm0, xmm0
  02663	f3 0f 11 05 00
	00 00 00	 movss	 DWORD PTR ?this_reaction_force@@3MA, xmm0
$LN43@update_att:

; 2072 : 
; 2073 : 			add_dynamic_force ("Realign force (Y axis)", this_reaction_force, 0.0, &position, &direction, FALSE);

  0266b	6a 00		 push	 0
  0266d	8d 85 10 ff ff
	ff		 lea	 eax, DWORD PTR _direction$[ebp]
  02673	50		 push	 eax
  02674	8d 8d 1c ff ff
	ff		 lea	 ecx, DWORD PTR _position$[ebp]
  0267a	51		 push	 ecx
  0267b	51		 push	 ecx
  0267c	0f 57 c0	 xorps	 xmm0, xmm0
  0267f	f3 0f 11 04 24	 movss	 DWORD PTR [esp], xmm0
  02684	51		 push	 ecx
  02685	f3 0f 10 05 00
	00 00 00	 movss	 xmm0, DWORD PTR ?this_reaction_force@@3MA
  0268d	f3 0f 11 04 24	 movss	 DWORD PTR [esp], xmm0
  02692	68 00 00 00 00	 push	 OFFSET ??_C@_0BH@EICDHFJI@Realign?5force?5?$CIY?5axis?$CJ@
  02697	e8 00 00 00 00	 call	 ?add_dynamic_force@@YGXPBDMMPAUVEC3D@@1H@Z ; add_dynamic_force
$LN42@update_att:

; 2074 : 		}
; 2075 : 	}
; 2076 : 
; 2077 : 	/////////////////////////////////////////////////////////////////////////////////////////////////////////////////////////////////
; 2078 : 	// Aerodynamics
; 2079 : 	/////////////////////////////////////////////////////////////////////////////////////////////////////////////////////////////////
; 2080 : 
; 2081 : 	////////////////////////////////////////////
; 2082 : 	// Fuselage aerodynamics motion_vector -> attitude realignment force in the x axis
; 2083 : 	////////////////////////////////////////////
; 2084 : 	if ((!model_landed) &&

  0269c	83 7d fc 00	 cmp	 DWORD PTR _model_landed$[ebp], 0
  026a0	0f 85 1e 01 00
	00		 jne	 $LN44@update_att
  026a6	a1 00 00 00 00	 mov	 eax, DWORD PTR ?current_flight_dynamics@@3PAUDYNAMICS_TYPE@@A ; current_flight_dynamics
  026ab	8b 88 24 25 00
	00		 mov	 ecx, DWORD PTR [eax+9508]
  026b1	83 e1 02	 and	 ecx, 2
  026b4	0f 85 0a 01 00
	00		 jne	 $LN44@update_att

; 2085 : 		(!(current_flight_dynamics->dynamics_damage & DYNAMICS_DAMAGE_MAIN_ROTOR)))
; 2086 : 	{
; 2087 : 
; 2088 : 		reaction_force = 30.0 * (current_flight_dynamics->pitch.delta + current_flight_dynamics->main_rotor_pitch_angle.delta);

  026ba	a1 00 00 00 00	 mov	 eax, DWORD PTR ?current_flight_dynamics@@3PAUDYNAMICS_TYPE@@A ; current_flight_dynamics
  026bf	8b 0d 00 00 00
	00		 mov	 ecx, DWORD PTR ?current_flight_dynamics@@3PAUDYNAMICS_TYPE@@A ; current_flight_dynamics
  026c5	f3 0f 10 80 60
	21 00 00	 movss	 xmm0, DWORD PTR [eax+8544]
  026cd	f3 0f 58 81 00
	1e 00 00	 addss	 xmm0, DWORD PTR [ecx+7680]
  026d5	f3 0f 5a c0	 cvtss2sd xmm0, xmm0
  026d9	f2 0f 59 05 00
	00 00 00	 mulsd	 xmm0, QWORD PTR __real@403e000000000000
  026e1	f2 0f 5a c0	 cvtsd2ss xmm0, xmm0
  026e5	f3 0f 11 45 80	 movss	 DWORD PTR _reaction_force$[ebp], xmm0

; 2089 : 
; 2090 : 		if (current_flight_dynamics->velocity_z.max != 0.0)

  026ea	a1 00 00 00 00	 mov	 eax, DWORD PTR ?current_flight_dynamics@@3PAUDYNAMICS_TYPE@@A ; current_flight_dynamics
  026ef	f3 0f 5a 80 a8
	20 00 00	 cvtss2sd xmm0, DWORD PTR [eax+8360]
  026f7	66 0f 2e 05 00
	00 00 00	 ucomisd xmm0, QWORD PTR __real@0000000000000000
  026ff	9f		 lahf
  02700	f6 c4 44	 test	 ah, 68			; 00000044H
  02703	7b 1e		 jnp	 SHORT $LN45@update_att

; 2091 : 			reaction_force *= motion_vector_magnitude / current_flight_dynamics->velocity_z.max;

  02705	a1 00 00 00 00	 mov	 eax, DWORD PTR ?current_flight_dynamics@@3PAUDYNAMICS_TYPE@@A ; current_flight_dynamics
  0270a	f3 0f 10 45 a4	 movss	 xmm0, DWORD PTR _motion_vector_magnitude$[ebp]
  0270f	f3 0f 5e 80 a8
	20 00 00	 divss	 xmm0, DWORD PTR [eax+8360]
  02717	f3 0f 59 45 80	 mulss	 xmm0, DWORD PTR _reaction_force$[ebp]
  0271c	f3 0f 11 45 80	 movss	 DWORD PTR _reaction_force$[ebp], xmm0

; 2092 : 		else

  02721	eb 08		 jmp	 SHORT $LN46@update_att
$LN45@update_att:

; 2093 : 			reaction_force = 0.0;

  02723	0f 57 c0	 xorps	 xmm0, xmm0
  02726	f3 0f 11 45 80	 movss	 DWORD PTR _reaction_force$[ebp], xmm0
$LN46@update_att:

; 2094 : 
; 2095 : 		position.x = 0.0;

  0272b	0f 57 c0	 xorps	 xmm0, xmm0
  0272e	f3 0f 11 85 1c
	ff ff ff	 movss	 DWORD PTR _position$[ebp], xmm0

; 2096 : 		position.y = 0.0;

  02736	0f 57 c0	 xorps	 xmm0, xmm0
  02739	f3 0f 11 85 20
	ff ff ff	 movss	 DWORD PTR _position$[ebp+4], xmm0

; 2097 : 		position.z = 7.299;

  02741	f3 0f 10 05 00
	00 00 00	 movss	 xmm0, DWORD PTR __real@40e99168
  02749	f3 0f 11 85 24
	ff ff ff	 movss	 DWORD PTR _position$[ebp+8], xmm0

; 2098 : 
; 2099 : 		direction.x = 0.0;

  02751	0f 57 c0	 xorps	 xmm0, xmm0
  02754	f3 0f 11 85 10
	ff ff ff	 movss	 DWORD PTR _direction$[ebp], xmm0

; 2100 : 		direction.y = -1.0;

  0275c	f3 0f 10 05 00
	00 00 00	 movss	 xmm0, DWORD PTR __real@bf800000
  02764	f3 0f 11 85 14
	ff ff ff	 movss	 DWORD PTR _direction$[ebp+4], xmm0

; 2101 : 		direction.z = 0.0;

  0276c	0f 57 c0	 xorps	 xmm0, xmm0
  0276f	f3 0f 11 85 18
	ff ff ff	 movss	 DWORD PTR _direction$[ebp+8], xmm0

; 2102 : 
; 2103 : 		//Werewolf 3 Jan 04
; 2104 : 		if (command_line_dynamics_flight_model == 1)

  02777	83 3d 00 00 00
	00 01		 cmp	 DWORD PTR ?command_line_dynamics_flight_model@@3HA, 1 ; command_line_dynamics_flight_model
  0277e	75 16		 jne	 SHORT $LN47@update_att

; 2105 : 			reaction_force *= 0.1;

  02780	f3 0f 5a 45 80	 cvtss2sd xmm0, DWORD PTR _reaction_force$[ebp]
  02785	f2 0f 59 05 00
	00 00 00	 mulsd	 xmm0, QWORD PTR __real@3fb999999999999a
  0278d	f2 0f 5a c0	 cvtsd2ss xmm0, xmm0
  02791	f3 0f 11 45 80	 movss	 DWORD PTR _reaction_force$[ebp], xmm0
$LN47@update_att:

; 2106 : 
; 2107 : 		add_dynamic_force ("Realign force (X axis)", reaction_force, 0.0, &position, &direction, FALSE);

  02796	6a 00		 push	 0
  02798	8d 85 10 ff ff
	ff		 lea	 eax, DWORD PTR _direction$[ebp]
  0279e	50		 push	 eax
  0279f	8d 8d 1c ff ff
	ff		 lea	 ecx, DWORD PTR _position$[ebp]
  027a5	51		 push	 ecx
  027a6	51		 push	 ecx
  027a7	0f 57 c0	 xorps	 xmm0, xmm0
  027aa	f3 0f 11 04 24	 movss	 DWORD PTR [esp], xmm0
  027af	51		 push	 ecx
  027b0	f3 0f 10 45 80	 movss	 xmm0, DWORD PTR _reaction_force$[ebp]
  027b5	f3 0f 11 04 24	 movss	 DWORD PTR [esp], xmm0
  027ba	68 00 00 00 00	 push	 OFFSET ??_C@_0BH@IEIJHFAG@Realign?5force?5?$CIX?5axis?$CJ@
  027bf	e8 00 00 00 00	 call	 ?add_dynamic_force@@YGXPBDMMPAUVEC3D@@1H@Z ; add_dynamic_force
$LN44@update_att:

; 2108 : 	}
; 2109 : 	////////////////////////////////////////////
; 2110 : 	// forward drag caused by yaw input
; 2111 : 	////////////////////////////////////////////
; 2112 : 	{
; 2113 : 
; 2114 : 		float
; 2115 : 			a;
; 2116 : 
; 2117 : 		float
; 2118 : 			drag;
; 2119 : 
; 2120 : 		a = 0.0823;

  027c4	f3 0f 10 05 00
	00 00 00	 movss	 xmm0, DWORD PTR __real@3da88ce7
  027cc	f3 0f 11 85 58
	fe ff ff	 movss	 DWORD PTR _a$42[ebp], xmm0

; 2121 : 
; 2122 : 		drag = 0.5 * a * command_line_dynamics_tail_rotor_drag * fabs (current_flight_dynamics->tail_blade_pitch.value);

  027d4	f3 0f 5a 85 58
	fe ff ff	 cvtss2sd xmm0, DWORD PTR _a$42[ebp]
  027dc	f2 0f 59 05 00
	00 00 00	 mulsd	 xmm0, QWORD PTR __real@3fe0000000000000
  027e4	f3 0f 5a 0d 00
	00 00 00	 cvtss2sd xmm1, DWORD PTR ?command_line_dynamics_tail_rotor_drag@@3MA
  027ec	f2 0f 59 c1	 mulsd	 xmm0, xmm1
  027f0	a1 00 00 00 00	 mov	 eax, DWORD PTR ?current_flight_dynamics@@3PAUDYNAMICS_TYPE@@A ; current_flight_dynamics
  027f5	51		 push	 ecx
  027f6	f3 0f 10 88 94
	1f 00 00	 movss	 xmm1, DWORD PTR [eax+8084]
  027fe	f3 0f 11 0c 24	 movss	 DWORD PTR [esp], xmm1
  02803	f2 0f 11 85 d4
	fc ff ff	 movsd	 QWORD PTR tv3881[ebp], xmm0
  0280b	e8 00 00 00 00	 call	 ?fabs@@YGMM@Z		; fabs
  02810	dd 9d cc fc ff
	ff		 fstp	 QWORD PTR tv3214[ebp]
  02816	f2 0f 10 85 d4
	fc ff ff	 movsd	 xmm0, QWORD PTR tv3881[ebp]
  0281e	f2 0f 59 85 cc
	fc ff ff	 mulsd	 xmm0, QWORD PTR tv3214[ebp]
  02826	f2 0f 5a c0	 cvtsd2ss xmm0, xmm0
  0282a	f3 0f 11 85 54
	fe ff ff	 movss	 DWORD PTR _drag$41[ebp], xmm0

; 2123 : 
; 2124 : 		reaction_force = drag * motion_vector_magnitude * motion_vector_magnitude;

  02832	f3 0f 10 85 54
	fe ff ff	 movss	 xmm0, DWORD PTR _drag$41[ebp]
  0283a	f3 0f 59 45 a4	 mulss	 xmm0, DWORD PTR _motion_vector_magnitude$[ebp]
  0283f	f3 0f 59 45 a4	 mulss	 xmm0, DWORD PTR _motion_vector_magnitude$[ebp]
  02844	f3 0f 11 45 80	 movss	 DWORD PTR _reaction_force$[ebp], xmm0

; 2125 : 
; 2126 : 		position.x = 0.0;

  02849	0f 57 c0	 xorps	 xmm0, xmm0
  0284c	f3 0f 11 85 1c
	ff ff ff	 movss	 DWORD PTR _position$[ebp], xmm0

; 2127 : 		position.y = 0.0;

  02854	0f 57 c0	 xorps	 xmm0, xmm0
  02857	f3 0f 11 85 20
	ff ff ff	 movss	 DWORD PTR _position$[ebp+4], xmm0

; 2128 : 		position.z = 7.299;

  0285f	f3 0f 10 05 00
	00 00 00	 movss	 xmm0, DWORD PTR __real@40e99168
  02867	f3 0f 11 85 24
	ff ff ff	 movss	 DWORD PTR _position$[ebp+8], xmm0

; 2129 : 
; 2130 : 		direction.x = 0.0;

  0286f	0f 57 c0	 xorps	 xmm0, xmm0
  02872	f3 0f 11 85 10
	ff ff ff	 movss	 DWORD PTR _direction$[ebp], xmm0

; 2131 : 		direction.y = 0.0;

  0287a	0f 57 c0	 xorps	 xmm0, xmm0
  0287d	f3 0f 11 85 14
	ff ff ff	 movss	 DWORD PTR _direction$[ebp+4], xmm0

; 2132 : 		direction.z = -1.0;

  02885	f3 0f 10 05 00
	00 00 00	 movss	 xmm0, DWORD PTR __real@bf800000
  0288d	f3 0f 11 85 18
	ff ff ff	 movss	 DWORD PTR _direction$[ebp+8], xmm0

; 2133 : 
; 2134 : 		add_dynamic_force ("Forward motion Yaw input drag", reaction_force, 0.0, &position, &direction, FALSE);

  02895	6a 00		 push	 0
  02897	8d 85 10 ff ff
	ff		 lea	 eax, DWORD PTR _direction$[ebp]
  0289d	50		 push	 eax
  0289e	8d 8d 1c ff ff
	ff		 lea	 ecx, DWORD PTR _position$[ebp]
  028a4	51		 push	 ecx
  028a5	51		 push	 ecx
  028a6	0f 57 c0	 xorps	 xmm0, xmm0
  028a9	f3 0f 11 04 24	 movss	 DWORD PTR [esp], xmm0
  028ae	51		 push	 ecx
  028af	f3 0f 10 45 80	 movss	 xmm0, DWORD PTR _reaction_force$[ebp]
  028b4	f3 0f 11 04 24	 movss	 DWORD PTR [esp], xmm0
  028b9	68 00 00 00 00	 push	 OFFSET ??_C@_0BO@BHAFBPMJ@Forward?5motion?5Yaw?5input?5drag@
  028be	e8 00 00 00 00	 call	 ?add_dynamic_force@@YGXPBDMMPAUVEC3D@@1H@Z ; add_dynamic_force

; 2135 : 	}
; 2136 : 	////////////////////////////////////////////
; 2137 : 	// Resistance to forward movement
; 2138 : 	////////////////////////////////////////////
; 2139 : 	if (!model_landed)

  028c3	83 7d fc 00	 cmp	 DWORD PTR _model_landed$[ebp], 0
  028c7	0f 85 6e 01 00
	00		 jne	 $LN48@update_att

; 2140 : 	{
; 2141 : 
; 2142 : 		float
; 2143 : 			sign,
; 2144 : 			drag;
; 2145 : 
; 2146 : 		drag = 0.00034 + (0.034 * command_line_dynamics_main_rotor_drag * max (current_flight_dynamics->pitch.value, 0.0f));

  028cd	0f 57 c0	 xorps	 xmm0, xmm0
  028d0	f3 0f 11 85 04
	fd ff ff	 movss	 DWORD PTR $T11[ebp], xmm0
  028d8	f3 0f 5a 05 00
	00 00 00	 cvtss2sd xmm0, DWORD PTR ?command_line_dynamics_main_rotor_drag@@3MA
  028e0	f2 0f 59 05 00
	00 00 00	 mulsd	 xmm0, QWORD PTR __real@3fa16872b020c49c
  028e8	8d 85 04 fd ff
	ff		 lea	 eax, DWORD PTR $T11[ebp]
  028ee	50		 push	 eax
  028ef	8b 0d 00 00 00
	00		 mov	 ecx, DWORD PTR ?current_flight_dynamics@@3PAUDYNAMICS_TYPE@@A ; current_flight_dynamics
  028f5	81 c1 5c 21 00
	00		 add	 ecx, 8540		; 0000215cH
  028fb	51		 push	 ecx
  028fc	f2 0f 11 85 d4
	fc ff ff	 movsd	 QWORD PTR tv3883[ebp], xmm0
  02904	e8 00 00 00 00	 call	 ??$max@M@std@@YGABMABM0@Z ; std::max<float>
  02909	f3 0f 5a 00	 cvtss2sd xmm0, DWORD PTR [eax]
  0290d	f2 0f 10 8d d4
	fc ff ff	 movsd	 xmm1, QWORD PTR tv3883[ebp]
  02915	f2 0f 59 c8	 mulsd	 xmm1, xmm0
  02919	f2 0f 58 0d 00
	00 00 00	 addsd	 xmm1, QWORD PTR __real@3f364840e1719f80
  02921	f2 0f 5a c1	 cvtsd2ss xmm0, xmm1
  02925	f3 0f 11 85 4c
	fe ff ff	 movss	 DWORD PTR _drag$39[ebp], xmm0

; 2147 : 
; 2148 : 		reaction_force = drag * motion_vector_magnitude * motion_vector_magnitude;

  0292d	f3 0f 10 85 4c
	fe ff ff	 movss	 xmm0, DWORD PTR _drag$39[ebp]
  02935	f3 0f 59 45 a4	 mulss	 xmm0, DWORD PTR _motion_vector_magnitude$[ebp]
  0293a	f3 0f 59 45 a4	 mulss	 xmm0, DWORD PTR _motion_vector_magnitude$[ebp]
  0293f	f3 0f 11 45 80	 movss	 DWORD PTR _reaction_force$[ebp], xmm0

; 2149 : 
; 2150 : 		sign = 0.0;

  02944	0f 57 c0	 xorps	 xmm0, xmm0
  02947	f3 0f 11 85 50
	fe ff ff	 movss	 DWORD PTR _sign$40[ebp], xmm0

; 2151 : 
; 2152 : 		if (velocity_z_value != 0.0)

  0294f	f3 0f 5a 85 48
	ff ff ff	 cvtss2sd xmm0, DWORD PTR _velocity_z_value$[ebp]
  02957	66 0f 2e 05 00
	00 00 00	 ucomisd xmm0, QWORD PTR __real@0000000000000000
  0295f	9f		 lahf
  02960	f6 c4 44	 test	 ah, 68			; 00000044H
  02963	7b 31		 jnp	 SHORT $LN49@update_att

; 2153 : 		{
; 2154 : 
; 2155 : 			sign = fabs (velocity_z_value) / velocity_z_value;

  02965	51		 push	 ecx
  02966	f3 0f 10 85 48
	ff ff ff	 movss	 xmm0, DWORD PTR _velocity_z_value$[ebp]
  0296e	f3 0f 11 04 24	 movss	 DWORD PTR [esp], xmm0
  02973	e8 00 00 00 00	 call	 ?fabs@@YGMM@Z		; fabs
  02978	d9 9d d8 fc ff
	ff		 fstp	 DWORD PTR tv3243[ebp]
  0297e	f3 0f 10 85 d8
	fc ff ff	 movss	 xmm0, DWORD PTR tv3243[ebp]
  02986	f3 0f 5e 85 48
	ff ff ff	 divss	 xmm0, DWORD PTR _velocity_z_value$[ebp]
  0298e	f3 0f 11 85 50
	fe ff ff	 movss	 DWORD PTR _sign$40[ebp], xmm0
$LN49@update_att:

; 2156 : 		}
; 2157 : 
; 2158 : 		position.x = 0.0;

  02996	0f 57 c0	 xorps	 xmm0, xmm0
  02999	f3 0f 11 85 1c
	ff ff ff	 movss	 DWORD PTR _position$[ebp], xmm0

; 2159 : 		position.y = 0.0;

  029a1	0f 57 c0	 xorps	 xmm0, xmm0
  029a4	f3 0f 11 85 20
	ff ff ff	 movss	 DWORD PTR _position$[ebp+4], xmm0

; 2160 : 		position.z = 7.299;

  029ac	f3 0f 10 05 00
	00 00 00	 movss	 xmm0, DWORD PTR __real@40e99168
  029b4	f3 0f 11 85 24
	ff ff ff	 movss	 DWORD PTR _position$[ebp+8], xmm0

; 2161 : 
; 2162 : 		direction.x = 0.0;

  029bc	0f 57 c0	 xorps	 xmm0, xmm0
  029bf	f3 0f 11 85 10
	ff ff ff	 movss	 DWORD PTR _direction$[ebp], xmm0

; 2163 : 		direction.y = 0.0;

  029c7	0f 57 c0	 xorps	 xmm0, xmm0
  029ca	f3 0f 11 85 14
	ff ff ff	 movss	 DWORD PTR _direction$[ebp+4], xmm0

; 2164 : 		direction.z = -1.0 * sign;

  029d2	f3 0f 5a 85 50
	fe ff ff	 cvtss2sd xmm0, DWORD PTR _sign$40[ebp]
  029da	f2 0f 59 05 00
	00 00 00	 mulsd	 xmm0, QWORD PTR __real@bff0000000000000
  029e2	f2 0f 5a c0	 cvtsd2ss xmm0, xmm0
  029e6	f3 0f 11 85 18
	ff ff ff	 movss	 DWORD PTR _direction$[ebp+8], xmm0

; 2165 : 
; 2166 : 		//Werewolf 3 Jan 04
; 2167 : 		if (command_line_dynamics_flight_model == 1)

  029ee	83 3d 00 00 00
	00 01		 cmp	 DWORD PTR ?command_line_dynamics_flight_model@@3HA, 1 ; command_line_dynamics_flight_model
  029f5	75 16		 jne	 SHORT $LN50@update_att

; 2168 : 			reaction_force *= 0.4;

  029f7	f3 0f 5a 45 80	 cvtss2sd xmm0, DWORD PTR _reaction_force$[ebp]
  029fc	f2 0f 59 05 00
	00 00 00	 mulsd	 xmm0, QWORD PTR __real@3fd999999999999a
  02a04	f2 0f 5a c0	 cvtsd2ss xmm0, xmm0
  02a08	f3 0f 11 45 80	 movss	 DWORD PTR _reaction_force$[ebp], xmm0
$LN50@update_att:

; 2169 : 
; 2170 : 		add_dynamic_force ("Forward motion drag", reaction_force, 0.0, &position, &direction, FALSE);

  02a0d	6a 00		 push	 0
  02a0f	8d 85 10 ff ff
	ff		 lea	 eax, DWORD PTR _direction$[ebp]
  02a15	50		 push	 eax
  02a16	8d 8d 1c ff ff
	ff		 lea	 ecx, DWORD PTR _position$[ebp]
  02a1c	51		 push	 ecx
  02a1d	51		 push	 ecx
  02a1e	0f 57 c0	 xorps	 xmm0, xmm0
  02a21	f3 0f 11 04 24	 movss	 DWORD PTR [esp], xmm0
  02a26	51		 push	 ecx
  02a27	f3 0f 10 45 80	 movss	 xmm0, DWORD PTR _reaction_force$[ebp]
  02a2c	f3 0f 11 04 24	 movss	 DWORD PTR [esp], xmm0
  02a31	68 00 00 00 00	 push	 OFFSET ??_C@_0BE@JPPEFMCN@Forward?5motion?5drag@
  02a36	e8 00 00 00 00	 call	 ?add_dynamic_force@@YGXPBDMMPAUVEC3D@@1H@Z ; add_dynamic_force
$LN48@update_att:

; 2171 : 	}
; 2172 : 	////////////////////////////////////////////
; 2173 : 	// Resistance to lateral movement
; 2174 : 	////////////////////////////////////////////
; 2175 : 	if (!model_landed)

  02a3b	83 7d fc 00	 cmp	 DWORD PTR _model_landed$[ebp], 0
  02a3f	0f 85 3e 01 00
	00		 jne	 $LN51@update_att

; 2176 : 	{
; 2177 : 
; 2178 : 		float
; 2179 : 			Fmax;
; 2180 : 
; 2181 : 		Fmax = 0.5;

  02a45	f3 0f 10 05 00
	00 00 00	 movss	 xmm0, DWORD PTR __real@3f000000
  02a4d	f3 0f 11 85 48
	fe ff ff	 movss	 DWORD PTR _Fmax$38[ebp], xmm0

; 2182 : 
; 2183 : 		if (current_flight_dynamics->velocity_x.max != 0.0)

  02a55	a1 00 00 00 00	 mov	 eax, DWORD PTR ?current_flight_dynamics@@3PAUDYNAMICS_TYPE@@A ; current_flight_dynamics
  02a5a	f3 0f 5a 80 78
	20 00 00	 cvtss2sd xmm0, DWORD PTR [eax+8312]
  02a62	66 0f 2e 05 00
	00 00 00	 ucomisd xmm0, QWORD PTR __real@0000000000000000
  02a6a	9f		 lahf
  02a6b	f6 c4 44	 test	 ah, 68			; 00000044H
  02a6e	7b 7a		 jnp	 SHORT $LN52@update_att

; 2184 : 		{
; 2185 : 
; 2186 : 			reaction_force = Fmax * (fabs (model_motion_vector.x) * model_motion_vector.x) / pow (current_flight_dynamics->velocity_x.max, 2.0f);

  02a70	51		 push	 ecx
  02a71	f3 0f 10 85 ec
	fe ff ff	 movss	 xmm0, DWORD PTR _model_motion_vector$[ebp]
  02a79	f3 0f 11 04 24	 movss	 DWORD PTR [esp], xmm0
  02a7e	e8 00 00 00 00	 call	 ?fabs@@YGMM@Z		; fabs
  02a83	d9 9d d8 fc ff
	ff		 fstp	 DWORD PTR tv3265[ebp]
  02a89	f3 0f 10 85 d8
	fc ff ff	 movss	 xmm0, DWORD PTR tv3265[ebp]
  02a91	f3 0f 59 85 ec
	fe ff ff	 mulss	 xmm0, DWORD PTR _model_motion_vector$[ebp]
  02a99	f3 0f 59 85 48
	fe ff ff	 mulss	 xmm0, DWORD PTR _Fmax$38[ebp]
  02aa1	51		 push	 ecx
  02aa2	f3 0f 10 0d 00
	00 00 00	 movss	 xmm1, DWORD PTR __real@40000000
  02aaa	f3 0f 11 0c 24	 movss	 DWORD PTR [esp], xmm1
  02aaf	a1 00 00 00 00	 mov	 eax, DWORD PTR ?current_flight_dynamics@@3PAUDYNAMICS_TYPE@@A ; current_flight_dynamics
  02ab4	51		 push	 ecx
  02ab5	f3 0f 10 88 78
	20 00 00	 movss	 xmm1, DWORD PTR [eax+8312]
  02abd	f3 0f 11 0c 24	 movss	 DWORD PTR [esp], xmm1
  02ac2	f3 0f 11 85 d4
	fc ff ff	 movss	 DWORD PTR tv3885[ebp], xmm0
  02aca	e8 00 00 00 00	 call	 ?pow@@YGMMM@Z		; pow
  02acf	d9 9d d0 fc ff
	ff		 fstp	 DWORD PTR tv3275[ebp]
  02ad5	f3 0f 10 85 d4
	fc ff ff	 movss	 xmm0, DWORD PTR tv3885[ebp]
  02add	f3 0f 5e 85 d0
	fc ff ff	 divss	 xmm0, DWORD PTR tv3275[ebp]
  02ae5	f3 0f 11 45 80	 movss	 DWORD PTR _reaction_force$[ebp], xmm0
$LN52@update_att:

; 2187 : 		}
; 2188 : 
; 2189 : 		position.x = 7.299;

  02aea	f3 0f 10 05 00
	00 00 00	 movss	 xmm0, DWORD PTR __real@40e99168
  02af2	f3 0f 11 85 1c
	ff ff ff	 movss	 DWORD PTR _position$[ebp], xmm0

; 2190 : 		position.y = 0.0;

  02afa	0f 57 c0	 xorps	 xmm0, xmm0
  02afd	f3 0f 11 85 20
	ff ff ff	 movss	 DWORD PTR _position$[ebp+4], xmm0

; 2191 : 		position.z = 0.0;

  02b05	0f 57 c0	 xorps	 xmm0, xmm0
  02b08	f3 0f 11 85 24
	ff ff ff	 movss	 DWORD PTR _position$[ebp+8], xmm0

; 2192 : 
; 2193 : 		direction.x = -1.0;

  02b10	f3 0f 10 05 00
	00 00 00	 movss	 xmm0, DWORD PTR __real@bf800000
  02b18	f3 0f 11 85 10
	ff ff ff	 movss	 DWORD PTR _direction$[ebp], xmm0

; 2194 : 		direction.y = 0.0;

  02b20	0f 57 c0	 xorps	 xmm0, xmm0
  02b23	f3 0f 11 85 14
	ff ff ff	 movss	 DWORD PTR _direction$[ebp+4], xmm0

; 2195 : 		direction.z = 0.0;

  02b2b	0f 57 c0	 xorps	 xmm0, xmm0
  02b2e	f3 0f 11 85 18
	ff ff ff	 movss	 DWORD PTR _direction$[ebp+8], xmm0

; 2196 : 
; 2197 : 		//Werewolf 3 Jan 04
; 2198 : 		if (command_line_dynamics_flight_model == 1)

  02b36	83 3d 00 00 00
	00 01		 cmp	 DWORD PTR ?command_line_dynamics_flight_model@@3HA, 1 ; command_line_dynamics_flight_model
  02b3d	75 16		 jne	 SHORT $LN53@update_att

; 2199 : 			reaction_force *= 0.8;

  02b3f	f3 0f 5a 45 80	 cvtss2sd xmm0, DWORD PTR _reaction_force$[ebp]
  02b44	f2 0f 59 05 00
	00 00 00	 mulsd	 xmm0, QWORD PTR __real@3fe999999999999a
  02b4c	f2 0f 5a c0	 cvtsd2ss xmm0, xmm0
  02b50	f3 0f 11 45 80	 movss	 DWORD PTR _reaction_force$[ebp], xmm0
$LN53@update_att:

; 2200 : 
; 2201 : 		add_dynamic_force ("Lateral motion drag", reaction_force, 0.0, &position, &direction, FALSE);

  02b55	6a 00		 push	 0
  02b57	8d 85 10 ff ff
	ff		 lea	 eax, DWORD PTR _direction$[ebp]
  02b5d	50		 push	 eax
  02b5e	8d 8d 1c ff ff
	ff		 lea	 ecx, DWORD PTR _position$[ebp]
  02b64	51		 push	 ecx
  02b65	51		 push	 ecx
  02b66	0f 57 c0	 xorps	 xmm0, xmm0
  02b69	f3 0f 11 04 24	 movss	 DWORD PTR [esp], xmm0
  02b6e	51		 push	 ecx
  02b6f	f3 0f 10 45 80	 movss	 xmm0, DWORD PTR _reaction_force$[ebp]
  02b74	f3 0f 11 04 24	 movss	 DWORD PTR [esp], xmm0
  02b79	68 00 00 00 00	 push	 OFFSET ??_C@_0BE@DICEDONG@Lateral?5motion?5drag@
  02b7e	e8 00 00 00 00	 call	 ?add_dynamic_force@@YGXPBDMMPAUVEC3D@@1H@Z ; add_dynamic_force
$LN51@update_att:

; 2202 : 	}
; 2203 : 	////////////////////////////////////////////
; 2204 : 	// Resistance to vertical movement
; 2205 : 	////////////////////////////////////////////
; 2206 : 	{
; 2207 : 
; 2208 : 		float
; 2209 : 			drag,
; 2210 : 			sideways_drag,
; 2211 : 			Fmax;
; 2212 : 
; 2213 : 		// ball park figures
; 2214 : 		if (world_motion_vector.y < 0.0)

  02b83	f3 0f 5a 85 fc
	fe ff ff	 cvtss2sd xmm0, DWORD PTR _world_motion_vector$[ebp+4]
  02b8b	0f 57 c9	 xorps	 xmm1, xmm1
  02b8e	66 0f 2f c8	 comisd	 xmm1, xmm0
  02b92	0f 86 b1 00 00
	00		 jbe	 $LN54@update_att

; 2215 : 		{
; 2216 : 
; 2217 : 			// y = mx + c, drag 0.4 at 0m/s ->0.0001 at -30m/s
; 2218 : 
; 2219 : 			drag = 0.4 - (((0.4 - 0.0001) / 30.0) * -world_motion_vector.y);

  02b98	f3 0f 10 85 fc
	fe ff ff	 movss	 xmm0, DWORD PTR _world_motion_vector$[ebp+4]
  02ba0	0f 57 05 00 00
	00 00		 xorps	 xmm0, DWORD PTR __xmm@80000000800000008000000080000000
  02ba7	f3 0f 5a c0	 cvtss2sd xmm0, xmm0
  02bab	f2 0f 59 05 00
	00 00 00	 mulsd	 xmm0, QWORD PTR __real@3f8b4cc25072085c
  02bb3	f2 0f 10 0d 00
	00 00 00	 movsd	 xmm1, QWORD PTR __real@3fd999999999999a
  02bbb	f2 0f 5c c8	 subsd	 xmm1, xmm0
  02bbf	f2 0f 5a c1	 cvtsd2ss xmm0, xmm1
  02bc3	f3 0f 11 85 44
	fe ff ff	 movss	 DWORD PTR _drag$37[ebp], xmm0

; 2220 : 
; 2221 : 			drag = bound (drag, 0.0001, 0.4);

  02bcb	f3 0f 5a 85 44
	fe ff ff	 cvtss2sd xmm0, DWORD PTR _drag$37[ebp]
  02bd3	f2 0f 10 0d 00
	00 00 00	 movsd	 xmm1, QWORD PTR __real@3f1a36e2eb1c432d
  02bdb	66 0f 2f c8	 comisd	 xmm1, xmm0
  02bdf	76 12		 jbe	 SHORT $LN133@update_att
  02be1	f2 0f 10 05 00
	00 00 00	 movsd	 xmm0, QWORD PTR __real@3f1a36e2eb1c432d
  02be9	f2 0f 11 85 d4
	fc ff ff	 movsd	 QWORD PTR tv1422[ebp], xmm0
  02bf1	eb 44		 jmp	 SHORT $LN134@update_att
$LN133@update_att:
  02bf3	f3 0f 5a 85 44
	fe ff ff	 cvtss2sd xmm0, DWORD PTR _drag$37[ebp]
  02bfb	66 0f 2f 05 00
	00 00 00	 comisd	 xmm0, QWORD PTR __real@3fd999999999999a
  02c03	76 12		 jbe	 SHORT $LN131@update_att
  02c05	f2 0f 10 05 00
	00 00 00	 movsd	 xmm0, QWORD PTR __real@3fd999999999999a
  02c0d	f2 0f 11 85 cc
	fc ff ff	 movsd	 QWORD PTR tv1421[ebp], xmm0
  02c15	eb 10		 jmp	 SHORT $LN132@update_att
$LN131@update_att:
  02c17	f3 0f 5a 85 44
	fe ff ff	 cvtss2sd xmm0, DWORD PTR _drag$37[ebp]
  02c1f	f2 0f 11 85 cc
	fc ff ff	 movsd	 QWORD PTR tv1421[ebp], xmm0
$LN132@update_att:
  02c27	f2 0f 10 85 cc
	fc ff ff	 movsd	 xmm0, QWORD PTR tv1421[ebp]
  02c2f	f2 0f 11 85 d4
	fc ff ff	 movsd	 QWORD PTR tv1422[ebp], xmm0
$LN134@update_att:
  02c37	f2 0f 5a 85 d4
	fc ff ff	 cvtsd2ss xmm0, QWORD PTR tv1422[ebp]
  02c3f	f3 0f 11 85 44
	fe ff ff	 movss	 DWORD PTR _drag$37[ebp], xmm0

; 2222 : 		}
; 2223 : 		else

  02c47	eb 10		 jmp	 SHORT $LN55@update_att
$LN54@update_att:

; 2224 : 		{
; 2225 : 
; 2226 : 			drag = 0.4;

  02c49	f3 0f 10 05 00
	00 00 00	 movss	 xmm0, DWORD PTR __real@3ecccccd
  02c51	f3 0f 11 85 44
	fe ff ff	 movss	 DWORD PTR _drag$37[ebp], xmm0
$LN55@update_att:

; 2227 : 		}
; 2228 : 
; 2229 : 		Fmax = 0.0;

  02c59	0f 57 c0	 xorps	 xmm0, xmm0
  02c5c	f3 0f 11 85 3c
	fe ff ff	 movss	 DWORD PTR _Fmax$35[ebp], xmm0

; 2230 : 		// arneh 20060813 - reduce drag in sideway flight - compensated by reduced lift.
; 2231 : 		// makes it impossible to keep flying sideways at insane bank angles without losing altitude
; 2232 : 		sideways_drag = 5.0 * (model_motion_vector.x * model_motion_vector.x) / pow (current_flight_dynamics->velocity_x.max, 2.0f);

  02c64	f3 0f 10 85 ec
	fe ff ff	 movss	 xmm0, DWORD PTR _model_motion_vector$[ebp]
  02c6c	f3 0f 59 85 ec
	fe ff ff	 mulss	 xmm0, DWORD PTR _model_motion_vector$[ebp]
  02c74	f3 0f 5a c0	 cvtss2sd xmm0, xmm0
  02c78	f2 0f 59 05 00
	00 00 00	 mulsd	 xmm0, QWORD PTR __real@4014000000000000
  02c80	51		 push	 ecx
  02c81	f3 0f 10 0d 00
	00 00 00	 movss	 xmm1, DWORD PTR __real@40000000
  02c89	f3 0f 11 0c 24	 movss	 DWORD PTR [esp], xmm1
  02c8e	a1 00 00 00 00	 mov	 eax, DWORD PTR ?current_flight_dynamics@@3PAUDYNAMICS_TYPE@@A ; current_flight_dynamics
  02c93	51		 push	 ecx
  02c94	f3 0f 10 88 78
	20 00 00	 movss	 xmm1, DWORD PTR [eax+8312]
  02c9c	f3 0f 11 0c 24	 movss	 DWORD PTR [esp], xmm1
  02ca1	f2 0f 11 85 d4
	fc ff ff	 movsd	 QWORD PTR tv3887[ebp], xmm0
  02ca9	e8 00 00 00 00	 call	 ?pow@@YGMMM@Z		; pow
  02cae	dd 9d cc fc ff
	ff		 fstp	 QWORD PTR tv3309[ebp]
  02cb4	f2 0f 10 85 d4
	fc ff ff	 movsd	 xmm0, QWORD PTR tv3887[ebp]
  02cbc	f2 0f 5e 85 cc
	fc ff ff	 divsd	 xmm0, QWORD PTR tv3309[ebp]
  02cc4	f2 0f 5a c0	 cvtsd2ss xmm0, xmm0
  02cc8	f3 0f 11 85 40
	fe ff ff	 movss	 DWORD PTR _sideways_drag$36[ebp], xmm0

; 2233 : 
; 2234 : 		if (current_flight_dynamics->main_rotor_rpm.max != 0.0)

  02cd0	a1 00 00 00 00	 mov	 eax, DWORD PTR ?current_flight_dynamics@@3PAUDYNAMICS_TYPE@@A ; current_flight_dynamics
  02cd5	f3 0f 5a 80 20
	1e 00 00	 cvtss2sd xmm0, DWORD PTR [eax+7712]
  02cdd	66 0f 2e 05 00
	00 00 00	 ucomisd xmm0, QWORD PTR __real@0000000000000000
  02ce5	9f		 lahf
  02ce6	f6 c4 44	 test	 ah, 68			; 00000044H
  02ce9	7b 45		 jnp	 SHORT $LN56@update_att

; 2235 : 		{
; 2236 : 
; 2237 : 			Fmax = drag + sideways_drag + 4.5 * (main_rotor_rpm_value / current_flight_dynamics->main_rotor_rpm.max);

  02ceb	f3 0f 10 85 44
	fe ff ff	 movss	 xmm0, DWORD PTR _drag$37[ebp]
  02cf3	f3 0f 58 85 40
	fe ff ff	 addss	 xmm0, DWORD PTR _sideways_drag$36[ebp]
  02cfb	f3 0f 5a c0	 cvtss2sd xmm0, xmm0
  02cff	a1 00 00 00 00	 mov	 eax, DWORD PTR ?current_flight_dynamics@@3PAUDYNAMICS_TYPE@@A ; current_flight_dynamics
  02d04	f3 0f 10 8d 6c
	ff ff ff	 movss	 xmm1, DWORD PTR _main_rotor_rpm_value$[ebp]
  02d0c	f3 0f 5e 88 20
	1e 00 00	 divss	 xmm1, DWORD PTR [eax+7712]
  02d14	f3 0f 5a c9	 cvtss2sd xmm1, xmm1
  02d18	f2 0f 59 0d 00
	00 00 00	 mulsd	 xmm1, QWORD PTR __real@4012000000000000
  02d20	f2 0f 58 c1	 addsd	 xmm0, xmm1
  02d24	f2 0f 5a c0	 cvtsd2ss xmm0, xmm0
  02d28	f3 0f 11 85 3c
	fe ff ff	 movss	 DWORD PTR _Fmax$35[ebp], xmm0
$LN56@update_att:

; 2238 : 		}
; 2239 : 
; 2240 : 		reaction_force = 0.0;

  02d30	0f 57 c0	 xorps	 xmm0, xmm0
  02d33	f3 0f 11 45 80	 movss	 DWORD PTR _reaction_force$[ebp], xmm0

; 2241 : 
; 2242 : 		if (current_flight_dynamics->velocity_y.max != 0.0)

  02d38	a1 00 00 00 00	 mov	 eax, DWORD PTR ?current_flight_dynamics@@3PAUDYNAMICS_TYPE@@A ; current_flight_dynamics
  02d3d	f3 0f 5a 80 90
	20 00 00	 cvtss2sd xmm0, DWORD PTR [eax+8336]
  02d45	66 0f 2e 05 00
	00 00 00	 ucomisd xmm0, QWORD PTR __real@0000000000000000
  02d4d	9f		 lahf
  02d4e	f6 c4 44	 test	 ah, 68			; 00000044H
  02d51	7b 7a		 jnp	 SHORT $LN57@update_att

; 2243 : 		{
; 2244 : 
; 2245 : 			reaction_force = Fmax * (fabs (model_motion_vector.y) * model_motion_vector.y) / pow (current_flight_dynamics->velocity_y.max, 2.0f);

  02d53	51		 push	 ecx
  02d54	f3 0f 10 85 f0
	fe ff ff	 movss	 xmm0, DWORD PTR _model_motion_vector$[ebp+4]
  02d5c	f3 0f 11 04 24	 movss	 DWORD PTR [esp], xmm0
  02d61	e8 00 00 00 00	 call	 ?fabs@@YGMM@Z		; fabs
  02d66	d9 9d d8 fc ff
	ff		 fstp	 DWORD PTR tv3326[ebp]
  02d6c	f3 0f 10 85 d8
	fc ff ff	 movss	 xmm0, DWORD PTR tv3326[ebp]
  02d74	f3 0f 59 85 f0
	fe ff ff	 mulss	 xmm0, DWORD PTR _model_motion_vector$[ebp+4]
  02d7c	f3 0f 59 85 3c
	fe ff ff	 mulss	 xmm0, DWORD PTR _Fmax$35[ebp]
  02d84	51		 push	 ecx
  02d85	f3 0f 10 0d 00
	00 00 00	 movss	 xmm1, DWORD PTR __real@40000000
  02d8d	f3 0f 11 0c 24	 movss	 DWORD PTR [esp], xmm1
  02d92	a1 00 00 00 00	 mov	 eax, DWORD PTR ?current_flight_dynamics@@3PAUDYNAMICS_TYPE@@A ; current_flight_dynamics
  02d97	51		 push	 ecx
  02d98	f3 0f 10 88 90
	20 00 00	 movss	 xmm1, DWORD PTR [eax+8336]
  02da0	f3 0f 11 0c 24	 movss	 DWORD PTR [esp], xmm1
  02da5	f3 0f 11 85 d4
	fc ff ff	 movss	 DWORD PTR tv3889[ebp], xmm0
  02dad	e8 00 00 00 00	 call	 ?pow@@YGMMM@Z		; pow
  02db2	d9 9d d0 fc ff
	ff		 fstp	 DWORD PTR tv3336[ebp]
  02db8	f3 0f 10 85 d4
	fc ff ff	 movss	 xmm0, DWORD PTR tv3889[ebp]
  02dc0	f3 0f 5e 85 d0
	fc ff ff	 divss	 xmm0, DWORD PTR tv3336[ebp]
  02dc8	f3 0f 11 45 80	 movss	 DWORD PTR _reaction_force$[ebp], xmm0
$LN57@update_att:

; 2246 : 		}
; 2247 : 
; 2248 : 		//
; 2249 : 		// Only add resistane lift
; 2250 : 		//
; 2251 : 
; 2252 : 		if (reaction_force > 0.0)

  02dcd	f3 0f 5a 45 80	 cvtss2sd xmm0, DWORD PTR _reaction_force$[ebp]
  02dd2	66 0f 2f 05 00
	00 00 00	 comisd	 xmm0, QWORD PTR __real@0000000000000000
  02dda	76 7a		 jbe	 SHORT $LN58@update_att

; 2253 : 		{
; 2254 : 
; 2255 : 			position.x = 0.0;

  02ddc	0f 57 c0	 xorps	 xmm0, xmm0
  02ddf	f3 0f 11 85 1c
	ff ff ff	 movss	 DWORD PTR _position$[ebp], xmm0

; 2256 : 			position.y = 1.0;

  02de7	f3 0f 10 05 00
	00 00 00	 movss	 xmm0, DWORD PTR __real@3f800000
  02def	f3 0f 11 85 20
	ff ff ff	 movss	 DWORD PTR _position$[ebp+4], xmm0

; 2257 : 			position.z = 0.0;

  02df7	0f 57 c0	 xorps	 xmm0, xmm0
  02dfa	f3 0f 11 85 24
	ff ff ff	 movss	 DWORD PTR _position$[ebp+8], xmm0

; 2258 : 
; 2259 : 			direction.x = 0.0;

  02e02	0f 57 c0	 xorps	 xmm0, xmm0
  02e05	f3 0f 11 85 10
	ff ff ff	 movss	 DWORD PTR _direction$[ebp], xmm0

; 2260 : 			direction.y = -1.0;

  02e0d	f3 0f 10 05 00
	00 00 00	 movss	 xmm0, DWORD PTR __real@bf800000
  02e15	f3 0f 11 85 14
	ff ff ff	 movss	 DWORD PTR _direction$[ebp+4], xmm0

; 2261 : 			direction.z = 0.0;

  02e1d	0f 57 c0	 xorps	 xmm0, xmm0
  02e20	f3 0f 11 85 18
	ff ff ff	 movss	 DWORD PTR _direction$[ebp+8], xmm0

; 2262 : 
; 2263 : 			add_dynamic_force ("Vertical motion drag", reaction_force, 0.0, &position, &direction, FALSE);

  02e28	6a 00		 push	 0
  02e2a	8d 85 10 ff ff
	ff		 lea	 eax, DWORD PTR _direction$[ebp]
  02e30	50		 push	 eax
  02e31	8d 8d 1c ff ff
	ff		 lea	 ecx, DWORD PTR _position$[ebp]
  02e37	51		 push	 ecx
  02e38	51		 push	 ecx
  02e39	0f 57 c0	 xorps	 xmm0, xmm0
  02e3c	f3 0f 11 04 24	 movss	 DWORD PTR [esp], xmm0
  02e41	51		 push	 ecx
  02e42	f3 0f 10 45 80	 movss	 xmm0, DWORD PTR _reaction_force$[ebp]
  02e47	f3 0f 11 04 24	 movss	 DWORD PTR [esp], xmm0
  02e4c	68 00 00 00 00	 push	 OFFSET ??_C@_0BF@LAMOPNAJ@Vertical?5motion?5drag@
  02e51	e8 00 00 00 00	 call	 ?add_dynamic_force@@YGXPBDMMPAUVEC3D@@1H@Z ; add_dynamic_force
$LN58@update_att:

; 2264 : 		}
; 2265 : 	}
; 2266 : 
; 2267 : 	/////////////////////////////////////////////////////////////////////////////////////////////////////////////////////////////////
; 2268 : 	// External forces
; 2269 : 	/////////////////////////////////////////////////////////////////////////////////////////////////////////////////////////////////
; 2270 : 
; 2271 : 	////////////////////////////////////////////
; 2272 : 	// In Ground Effect
; 2273 : 	////////////////////////////////////////////
; 2274 : 	if ((get_current_dynamics_options (DYNAMICS_OPTIONS_GROUND_EFFECT)) &&

  02e56	6a 04		 push	 4
  02e58	e8 00 00 00 00	 call	 ?get_current_dynamics_options@@YGHW4DYNAMICS_OPTIONS_TYPES@@@Z ; get_current_dynamics_options
  02e5d	85 c0		 test	 eax, eax
  02e5f	0f 84 8e 0f 00
	00		 je	 $LN67@update_att
  02e65	a1 00 00 00 00	 mov	 eax, DWORD PTR ?current_flight_dynamics@@3PAUDYNAMICS_TYPE@@A ; current_flight_dynamics
  02e6a	8b 88 24 25 00
	00		 mov	 ecx, DWORD PTR [eax+9508]
  02e70	83 e1 02	 and	 ecx, 2
  02e73	0f 85 7a 0f 00
	00		 jne	 $LN67@update_att

; 2275 : 		(!(current_flight_dynamics->dynamics_damage & DYNAMICS_DAMAGE_MAIN_ROTOR)))
; 2276 : 	{
; 2277 : 
; 2278 : 		float
; 2279 : 			altitude;
; 2280 : 
; 2281 : 		terrain_3d_point_data
; 2282 : 			terrain_info;
; 2283 : 
; 2284 : 		vec3d
; 2285 : 			world_position;
; 2286 : 
; 2287 : 		memset (&terrain_info, 0, sizeof (terrain_3d_point_data));

  02e79	6a 2c		 push	 44			; 0000002cH
  02e7b	6a 00		 push	 0
  02e7d	8d 85 0c fe ff
	ff		 lea	 eax, DWORD PTR _terrain_info$33[ebp]
  02e83	50		 push	 eax
  02e84	e8 00 00 00 00	 call	 _memset
  02e89	83 c4 0c	 add	 esp, 12			; 0000000cH

; 2288 : 
; 2289 : 		get_3d_terrain_point_data (current_flight_dynamics->position.x, current_flight_dynamics->position.z, &terrain_info);

  02e8c	8d 85 0c fe ff
	ff		 lea	 eax, DWORD PTR _terrain_info$33[ebp]
  02e92	50		 push	 eax
  02e93	8b 0d 00 00 00
	00		 mov	 ecx, DWORD PTR ?current_flight_dynamics@@3PAUDYNAMICS_TYPE@@A ; current_flight_dynamics
  02e99	f2 0f 5a 81 bc
	00 00 00	 cvtsd2ss xmm0, QWORD PTR [ecx+188]
  02ea1	51		 push	 ecx
  02ea2	f3 0f 11 04 24	 movss	 DWORD PTR [esp], xmm0
  02ea7	8b 15 00 00 00
	00		 mov	 edx, DWORD PTR ?current_flight_dynamics@@3PAUDYNAMICS_TYPE@@A ; current_flight_dynamics
  02ead	f2 0f 5a 82 ac
	00 00 00	 cvtsd2ss xmm0, QWORD PTR [edx+172]
  02eb5	51		 push	 ecx
  02eb6	f3 0f 11 04 24	 movss	 DWORD PTR [esp], xmm0
  02ebb	e8 00 00 00 00	 call	 ?get_3d_terrain_point_data@@YGMMMPAUTERRAIN_3D_POINT_DATA@@@Z ; get_3d_terrain_point_data
  02ec0	dd d8		 fstp	 ST(0)

; 2290 : 
; 2291 : 		altitude = current_flight_dynamics->position.y - get_3d_terrain_point_data_elevation (&terrain_info);

  02ec2	8d 85 0c fe ff
	ff		 lea	 eax, DWORD PTR _terrain_info$33[ebp]
  02ec8	50		 push	 eax
  02ec9	e8 00 00 00 00	 call	 ?get_3d_terrain_point_data_elevation@@YGMPAUTERRAIN_3D_POINT_DATA@@@Z ; get_3d_terrain_point_data_elevation
  02ece	dd 9d d4 fc ff
	ff		 fstp	 QWORD PTR tv3363[ebp]
  02ed4	8b 0d 00 00 00
	00		 mov	 ecx, DWORD PTR ?current_flight_dynamics@@3PAUDYNAMICS_TYPE@@A ; current_flight_dynamics
  02eda	f2 0f 10 81 b4
	00 00 00	 movsd	 xmm0, QWORD PTR [ecx+180]
  02ee2	f2 0f 5c 85 d4
	fc ff ff	 subsd	 xmm0, QWORD PTR tv3363[ebp]
  02eea	f2 0f 5a c0	 cvtsd2ss xmm0, xmm0
  02eee	f3 0f 11 85 38
	fe ff ff	 movss	 DWORD PTR _altitude$34[ebp], xmm0

; 2292 : 
; 2293 : 		////////////////////////////////////////////
; 2294 : 		// In Ground Effect on middle side of rotor disc
; 2295 : 		////////////////////////////////////////////
; 2296 : 		{
; 2297 : 
; 2298 : 			float
; 2299 : 				over_all_g_e_force;
; 2300 : 
; 2301 : 			over_all_g_e_force = (1.0 - ((altitude * altitude) / (current_flight_dynamics->main_rotor_diameter.value * current_flight_dynamics->main_rotor_diameter.value)));

  02ef6	f3 0f 10 85 38
	fe ff ff	 movss	 xmm0, DWORD PTR _altitude$34[ebp]
  02efe	f3 0f 59 85 38
	fe ff ff	 mulss	 xmm0, DWORD PTR _altitude$34[ebp]
  02f06	a1 00 00 00 00	 mov	 eax, DWORD PTR ?current_flight_dynamics@@3PAUDYNAMICS_TYPE@@A ; current_flight_dynamics
  02f0b	8b 0d 00 00 00
	00		 mov	 ecx, DWORD PTR ?current_flight_dynamics@@3PAUDYNAMICS_TYPE@@A ; current_flight_dynamics
  02f11	f3 0f 10 88 9c
	1d 00 00	 movss	 xmm1, DWORD PTR [eax+7580]
  02f19	f3 0f 59 89 9c
	1d 00 00	 mulss	 xmm1, DWORD PTR [ecx+7580]
  02f21	f3 0f 5e c1	 divss	 xmm0, xmm1
  02f25	f3 0f 5a c0	 cvtss2sd xmm0, xmm0
  02f29	f2 0f 10 0d 00
	00 00 00	 movsd	 xmm1, QWORD PTR __real@3ff0000000000000
  02f31	f2 0f 5c c8	 subsd	 xmm1, xmm0
  02f35	f2 0f 5a c1	 cvtsd2ss xmm0, xmm1
  02f39	f3 0f 11 85 fc
	fd ff ff	 movss	 DWORD PTR _over_all_g_e_force$31[ebp], xmm0

; 2302 : 
; 2303 : 			over_all_g_e_force = bound (over_all_g_e_force, 0.0, 1.0);

  02f41	f3 0f 5a 85 fc
	fd ff ff	 cvtss2sd xmm0, DWORD PTR _over_all_g_e_force$31[ebp]
  02f49	0f 57 c9	 xorps	 xmm1, xmm1
  02f4c	66 0f 2f c8	 comisd	 xmm1, xmm0
  02f50	76 0d		 jbe	 SHORT $LN137@update_att
  02f52	0f 57 c0	 xorps	 xmm0, xmm0
  02f55	f2 0f 11 85 d4
	fc ff ff	 movsd	 QWORD PTR tv1511[ebp], xmm0
  02f5d	eb 44		 jmp	 SHORT $LN138@update_att
$LN137@update_att:
  02f5f	f3 0f 5a 85 fc
	fd ff ff	 cvtss2sd xmm0, DWORD PTR _over_all_g_e_force$31[ebp]
  02f67	66 0f 2f 05 00
	00 00 00	 comisd	 xmm0, QWORD PTR __real@3ff0000000000000
  02f6f	76 12		 jbe	 SHORT $LN135@update_att
  02f71	f2 0f 10 05 00
	00 00 00	 movsd	 xmm0, QWORD PTR __real@3ff0000000000000
  02f79	f2 0f 11 85 cc
	fc ff ff	 movsd	 QWORD PTR tv1510[ebp], xmm0
  02f81	eb 10		 jmp	 SHORT $LN136@update_att
$LN135@update_att:
  02f83	f3 0f 5a 85 fc
	fd ff ff	 cvtss2sd xmm0, DWORD PTR _over_all_g_e_force$31[ebp]
  02f8b	f2 0f 11 85 cc
	fc ff ff	 movsd	 QWORD PTR tv1510[ebp], xmm0
$LN136@update_att:
  02f93	f2 0f 10 85 cc
	fc ff ff	 movsd	 xmm0, QWORD PTR tv1510[ebp]
  02f9b	f2 0f 11 85 d4
	fc ff ff	 movsd	 QWORD PTR tv1511[ebp], xmm0
$LN138@update_att:
  02fa3	f2 0f 5a 85 d4
	fc ff ff	 cvtsd2ss xmm0, QWORD PTR tv1511[ebp]
  02fab	f3 0f 11 85 fc
	fd ff ff	 movss	 DWORD PTR _over_all_g_e_force$31[ebp], xmm0

; 2304 : 
; 2305 : 			over_all_g_e_force *= 0.1 * main_rotor_induced_air_value;

  02fb3	f3 0f 5a 85 74
	ff ff ff	 cvtss2sd xmm0, DWORD PTR _main_rotor_induced_air_value$[ebp]
  02fbb	f2 0f 59 05 00
	00 00 00	 mulsd	 xmm0, QWORD PTR __real@3fb999999999999a
  02fc3	f3 0f 5a 8d fc
	fd ff ff	 cvtss2sd xmm1, DWORD PTR _over_all_g_e_force$31[ebp]
  02fcb	f2 0f 59 c8	 mulsd	 xmm1, xmm0
  02fcf	f2 0f 5a c1	 cvtsd2ss xmm0, xmm1
  02fd3	f3 0f 11 85 fc
	fd ff ff	 movss	 DWORD PTR _over_all_g_e_force$31[ebp], xmm0

; 2306 : 
; 2307 : 			if (current_flight_dynamics->velocity_z.max != 0.0)

  02fdb	a1 00 00 00 00	 mov	 eax, DWORD PTR ?current_flight_dynamics@@3PAUDYNAMICS_TYPE@@A ; current_flight_dynamics
  02fe0	f3 0f 5a 80 a8
	20 00 00	 cvtss2sd xmm0, DWORD PTR [eax+8360]
  02fe8	66 0f 2e 05 00
	00 00 00	 ucomisd xmm0, QWORD PTR __real@0000000000000000
  02ff0	9f		 lahf
  02ff1	f6 c4 44	 test	 ah, 68			; 00000044H
  02ff4	7b 4c		 jnp	 SHORT $LN60@update_att

; 2308 : 			{
; 2309 : 
; 2310 : 				over_all_g_e_force *= (current_flight_dynamics->velocity_z.max - fabs (velocity_z_value)) / current_flight_dynamics->velocity_z.max;

  02ff6	51		 push	 ecx
  02ff7	f3 0f 10 85 48
	ff ff ff	 movss	 xmm0, DWORD PTR _velocity_z_value$[ebp]
  02fff	f3 0f 11 04 24	 movss	 DWORD PTR [esp], xmm0
  03004	e8 00 00 00 00	 call	 ?fabs@@YGMM@Z		; fabs
  03009	d9 9d d8 fc ff
	ff		 fstp	 DWORD PTR tv3384[ebp]
  0300f	a1 00 00 00 00	 mov	 eax, DWORD PTR ?current_flight_dynamics@@3PAUDYNAMICS_TYPE@@A ; current_flight_dynamics
  03014	f3 0f 10 80 a8
	20 00 00	 movss	 xmm0, DWORD PTR [eax+8360]
  0301c	f3 0f 5c 85 d8
	fc ff ff	 subss	 xmm0, DWORD PTR tv3384[ebp]
  03024	8b 0d 00 00 00
	00		 mov	 ecx, DWORD PTR ?current_flight_dynamics@@3PAUDYNAMICS_TYPE@@A ; current_flight_dynamics
  0302a	f3 0f 5e 81 a8
	20 00 00	 divss	 xmm0, DWORD PTR [ecx+8360]
  03032	f3 0f 59 85 fc
	fd ff ff	 mulss	 xmm0, DWORD PTR _over_all_g_e_force$31[ebp]
  0303a	f3 0f 11 85 fc
	fd ff ff	 movss	 DWORD PTR _over_all_g_e_force$31[ebp], xmm0
$LN60@update_att:

; 2311 : 			}
; 2312 : 
; 2313 : 			position.x = 0.0;

  03042	0f 57 c0	 xorps	 xmm0, xmm0
  03045	f3 0f 11 85 1c
	ff ff ff	 movss	 DWORD PTR _position$[ebp], xmm0

; 2314 : 			position.y = 0.0;

  0304d	0f 57 c0	 xorps	 xmm0, xmm0
  03050	f3 0f 11 85 20
	ff ff ff	 movss	 DWORD PTR _position$[ebp+4], xmm0

; 2315 : 			position.z = 0.0;

  03058	0f 57 c0	 xorps	 xmm0, xmm0
  0305b	f3 0f 11 85 24
	ff ff ff	 movss	 DWORD PTR _position$[ebp+8], xmm0

; 2316 : 
; 2317 : 			direction.x = 0.0;

  03063	0f 57 c0	 xorps	 xmm0, xmm0
  03066	f3 0f 11 85 10
	ff ff ff	 movss	 DWORD PTR _direction$[ebp], xmm0

; 2318 : 			direction.y = 1.0;

  0306e	f3 0f 10 05 00
	00 00 00	 movss	 xmm0, DWORD PTR __real@3f800000
  03076	f3 0f 11 85 14
	ff ff ff	 movss	 DWORD PTR _direction$[ebp+4], xmm0

; 2319 : 			direction.z = 0.0;

  0307e	0f 57 c0	 xorps	 xmm0, xmm0
  03081	f3 0f 11 85 18
	ff ff ff	 movss	 DWORD PTR _direction$[ebp+8], xmm0

; 2320 : 
; 2321 : 			over_all_g_e_force *= current_flight_dynamics->ground_effect.modifier;

  03089	a1 00 00 00 00	 mov	 eax, DWORD PTR ?current_flight_dynamics@@3PAUDYNAMICS_TYPE@@A ; current_flight_dynamics
  0308e	f3 0f 10 85 fc
	fd ff ff	 movss	 xmm0, DWORD PTR _over_all_g_e_force$31[ebp]
  03096	f3 0f 59 80 e0
	23 00 00	 mulss	 xmm0, DWORD PTR [eax+9184]
  0309e	f3 0f 11 85 fc
	fd ff ff	 movss	 DWORD PTR _over_all_g_e_force$31[ebp], xmm0

; 2322 : 
; 2323 : 			add_dynamic_force ("Middle rotor Ground effect", over_all_g_e_force, 0.0, &position, &direction, FALSE);

  030a6	6a 00		 push	 0
  030a8	8d 85 10 ff ff
	ff		 lea	 eax, DWORD PTR _direction$[ebp]
  030ae	50		 push	 eax
  030af	8d 8d 1c ff ff
	ff		 lea	 ecx, DWORD PTR _position$[ebp]
  030b5	51		 push	 ecx
  030b6	51		 push	 ecx
  030b7	0f 57 c0	 xorps	 xmm0, xmm0
  030ba	f3 0f 11 04 24	 movss	 DWORD PTR [esp], xmm0
  030bf	51		 push	 ecx
  030c0	f3 0f 10 85 fc
	fd ff ff	 movss	 xmm0, DWORD PTR _over_all_g_e_force$31[ebp]
  030c8	f3 0f 11 04 24	 movss	 DWORD PTR [esp], xmm0
  030cd	68 00 00 00 00	 push	 OFFSET ??_C@_0BL@CBNCBPEP@Middle?5rotor?5Ground?5effect@
  030d2	e8 00 00 00 00	 call	 ?add_dynamic_force@@YGXPBDMMPAUVEC3D@@1H@Z ; add_dynamic_force

; 2324 : 		}
; 2325 : 		////////////////////////////////////////////
; 2326 : 		// In Ground Effect on front side of rotor disc
; 2327 : 		////////////////////////////////////////////
; 2328 : 		{
; 2329 : 
; 2330 : 			float
; 2331 : 				tuning_value;
; 2332 : 
; 2333 : 			tuning_value = 0.1;

  030d7	f3 0f 10 05 00
	00 00 00	 movss	 xmm0, DWORD PTR __real@3dcccccd
  030df	f3 0f 11 85 f8
	fd ff ff	 movss	 DWORD PTR _tuning_value$30[ebp], xmm0

; 2334 : 
; 2335 : 			position.x = 0.0;

  030e7	0f 57 c0	 xorps	 xmm0, xmm0
  030ea	f3 0f 11 85 1c
	ff ff ff	 movss	 DWORD PTR _position$[ebp], xmm0

; 2336 : 			position.y = 0.0;

  030f2	0f 57 c0	 xorps	 xmm0, xmm0
  030f5	f3 0f 11 85 20
	ff ff ff	 movss	 DWORD PTR _position$[ebp+4], xmm0

; 2337 : 			position.z = 7.299;

  030fd	f3 0f 10 05 00
	00 00 00	 movss	 xmm0, DWORD PTR __real@40e99168
  03105	f3 0f 11 85 24
	ff ff ff	 movss	 DWORD PTR _position$[ebp+8], xmm0

; 2338 : 
; 2339 : 			direction.x = 0.0;

  0310d	0f 57 c0	 xorps	 xmm0, xmm0
  03110	f3 0f 11 85 10
	ff ff ff	 movss	 DWORD PTR _direction$[ebp], xmm0

; 2340 : 			direction.y = 1.0;

  03118	f3 0f 10 05 00
	00 00 00	 movss	 xmm0, DWORD PTR __real@3f800000
  03120	f3 0f 11 85 14
	ff ff ff	 movss	 DWORD PTR _direction$[ebp+4], xmm0

; 2341 : 			direction.z = 0.0;

  03128	0f 57 c0	 xorps	 xmm0, xmm0
  0312b	f3 0f 11 85 18
	ff ff ff	 movss	 DWORD PTR _direction$[ebp+8], xmm0

; 2342 : 
; 2343 : 			multiply_matrix3x3_vec3d (&world_position, current_flight_dynamics->attitude, &position);

  03133	8d 85 1c ff ff
	ff		 lea	 eax, DWORD PTR _position$[ebp]
  03139	50		 push	 eax
  0313a	8b 0d 00 00 00
	00		 mov	 ecx, DWORD PTR ?current_flight_dynamics@@3PAUDYNAMICS_TYPE@@A ; current_flight_dynamics
  03140	81 c1 d0 00 00
	00		 add	 ecx, 208		; 000000d0H
  03146	51		 push	 ecx
  03147	8d 95 00 fe ff
	ff		 lea	 edx, DWORD PTR _world_position$32[ebp]
  0314d	52		 push	 edx
  0314e	e8 00 00 00 00	 call	 ?multiply_matrix3x3_vec3d@@YGXPAUVEC3D@@QAY02$$CBMPBU1@@Z ; multiply_matrix3x3_vec3d

; 2344 : 
; 2345 : 			world_position.x += current_flight_dynamics->position.x;

  03153	f3 0f 5a 85 00
	fe ff ff	 cvtss2sd xmm0, DWORD PTR _world_position$32[ebp]
  0315b	a1 00 00 00 00	 mov	 eax, DWORD PTR ?current_flight_dynamics@@3PAUDYNAMICS_TYPE@@A ; current_flight_dynamics
  03160	f2 0f 58 80 ac
	00 00 00	 addsd	 xmm0, QWORD PTR [eax+172]
  03168	f2 0f 5a c0	 cvtsd2ss xmm0, xmm0
  0316c	f3 0f 11 85 00
	fe ff ff	 movss	 DWORD PTR _world_position$32[ebp], xmm0

; 2346 : 			world_position.y += current_flight_dynamics->position.y;

  03174	f3 0f 5a 85 04
	fe ff ff	 cvtss2sd xmm0, DWORD PTR _world_position$32[ebp+4]
  0317c	a1 00 00 00 00	 mov	 eax, DWORD PTR ?current_flight_dynamics@@3PAUDYNAMICS_TYPE@@A ; current_flight_dynamics
  03181	f2 0f 58 80 b4
	00 00 00	 addsd	 xmm0, QWORD PTR [eax+180]
  03189	f2 0f 5a c0	 cvtsd2ss xmm0, xmm0
  0318d	f3 0f 11 85 04
	fe ff ff	 movss	 DWORD PTR _world_position$32[ebp+4], xmm0

; 2347 : 			world_position.z += current_flight_dynamics->position.z;

  03195	f3 0f 5a 85 08
	fe ff ff	 cvtss2sd xmm0, DWORD PTR _world_position$32[ebp+8]
  0319d	a1 00 00 00 00	 mov	 eax, DWORD PTR ?current_flight_dynamics@@3PAUDYNAMICS_TYPE@@A ; current_flight_dynamics
  031a2	f2 0f 58 80 bc
	00 00 00	 addsd	 xmm0, QWORD PTR [eax+188]
  031aa	f2 0f 5a c0	 cvtsd2ss xmm0, xmm0
  031ae	f3 0f 11 85 08
	fe ff ff	 movss	 DWORD PTR _world_position$32[ebp+8], xmm0

; 2348 : 
; 2349 : 			bound_position_to_adjusted_map_volume (&world_position);

  031b6	8d 85 00 fe ff
	ff		 lea	 eax, DWORD PTR _world_position$32[ebp]
  031bc	50		 push	 eax
  031bd	e8 00 00 00 00	 call	 ?bound_position_to_adjusted_map_volume@@YGHPAUVEC3D@@@Z ; bound_position_to_adjusted_map_volume

; 2350 : 
; 2351 : 			get_3d_terrain_point_data (world_position.x, world_position.z, &terrain_info);

  031c2	8d 85 0c fe ff
	ff		 lea	 eax, DWORD PTR _terrain_info$33[ebp]
  031c8	50		 push	 eax
  031c9	51		 push	 ecx
  031ca	f3 0f 10 85 08
	fe ff ff	 movss	 xmm0, DWORD PTR _world_position$32[ebp+8]
  031d2	f3 0f 11 04 24	 movss	 DWORD PTR [esp], xmm0
  031d7	51		 push	 ecx
  031d8	f3 0f 10 85 00
	fe ff ff	 movss	 xmm0, DWORD PTR _world_position$32[ebp]
  031e0	f3 0f 11 04 24	 movss	 DWORD PTR [esp], xmm0
  031e5	e8 00 00 00 00	 call	 ?get_3d_terrain_point_data@@YGMMMPAUTERRAIN_3D_POINT_DATA@@@Z ; get_3d_terrain_point_data
  031ea	dd d8		 fstp	 ST(0)

; 2352 : 
; 2353 : 			altitude = world_position.y - get_3d_terrain_point_data_elevation (&terrain_info);

  031ec	8d 85 0c fe ff
	ff		 lea	 eax, DWORD PTR _terrain_info$33[ebp]
  031f2	50		 push	 eax
  031f3	e8 00 00 00 00	 call	 ?get_3d_terrain_point_data_elevation@@YGMPAUTERRAIN_3D_POINT_DATA@@@Z ; get_3d_terrain_point_data_elevation
  031f8	d9 9d d8 fc ff
	ff		 fstp	 DWORD PTR tv3426[ebp]
  031fe	f3 0f 10 85 04
	fe ff ff	 movss	 xmm0, DWORD PTR _world_position$32[ebp+4]
  03206	f3 0f 5c 85 d8
	fc ff ff	 subss	 xmm0, DWORD PTR tv3426[ebp]
  0320e	f3 0f 11 85 38
	fe ff ff	 movss	 DWORD PTR _altitude$34[ebp], xmm0

; 2354 : 
; 2355 : 			altitude = max (altitude, 0.0f);

  03216	0f 57 c0	 xorps	 xmm0, xmm0
  03219	f3 0f 11 85 00
	fd ff ff	 movss	 DWORD PTR $T10[ebp], xmm0
  03221	8d 85 00 fd ff
	ff		 lea	 eax, DWORD PTR $T10[ebp]
  03227	50		 push	 eax
  03228	8d 8d 38 fe ff
	ff		 lea	 ecx, DWORD PTR _altitude$34[ebp]
  0322e	51		 push	 ecx
  0322f	e8 00 00 00 00	 call	 ??$max@M@std@@YGABMABM0@Z ; std::max<float>
  03234	f3 0f 10 00	 movss	 xmm0, DWORD PTR [eax]
  03238	f3 0f 11 85 38
	fe ff ff	 movss	 DWORD PTR _altitude$34[ebp], xmm0

; 2356 : 
; 2357 : 			front_g_e_force += ((0.05 - ((altitude * altitude) / (20.0 * current_flight_dynamics->main_rotor_diameter.value * current_flight_dynamics->main_rotor_diameter.value))) - front_g_e_force) * get_model_delta_time ();

  03240	f3 0f 10 85 38
	fe ff ff	 movss	 xmm0, DWORD PTR _altitude$34[ebp]
  03248	f3 0f 59 85 38
	fe ff ff	 mulss	 xmm0, DWORD PTR _altitude$34[ebp]
  03250	f3 0f 5a c0	 cvtss2sd xmm0, xmm0
  03254	a1 00 00 00 00	 mov	 eax, DWORD PTR ?current_flight_dynamics@@3PAUDYNAMICS_TYPE@@A ; current_flight_dynamics
  03259	f3 0f 5a 88 9c
	1d 00 00	 cvtss2sd xmm1, DWORD PTR [eax+7580]
  03261	f2 0f 59 0d 00
	00 00 00	 mulsd	 xmm1, QWORD PTR __real@4034000000000000
  03269	8b 0d 00 00 00
	00		 mov	 ecx, DWORD PTR ?current_flight_dynamics@@3PAUDYNAMICS_TYPE@@A ; current_flight_dynamics
  0326f	f3 0f 5a 91 9c
	1d 00 00	 cvtss2sd xmm2, DWORD PTR [ecx+7580]
  03277	f2 0f 59 ca	 mulsd	 xmm1, xmm2
  0327b	f2 0f 5e c1	 divsd	 xmm0, xmm1
  0327f	f2 0f 10 0d 00
	00 00 00	 movsd	 xmm1, QWORD PTR __real@3fa999999999999a
  03287	f2 0f 5c c8	 subsd	 xmm1, xmm0
  0328b	f3 0f 5a 05 00
	00 00 00	 cvtss2sd xmm0, DWORD PTR ?front_g_e_force@@3MA
  03293	f2 0f 5c c8	 subsd	 xmm1, xmm0
  03297	8b 15 00 00 00
	00		 mov	 edx, DWORD PTR ?current_flight_dynamics@@3PAUDYNAMICS_TYPE@@A ; current_flight_dynamics
  0329d	f3 0f 5a 82 90
	00 00 00	 cvtss2sd xmm0, DWORD PTR [edx+144]
  032a5	f2 0f 59 c8	 mulsd	 xmm1, xmm0
  032a9	f3 0f 5a 05 00
	00 00 00	 cvtss2sd xmm0, DWORD PTR ?front_g_e_force@@3MA
  032b1	f2 0f 58 c1	 addsd	 xmm0, xmm1
  032b5	f2 0f 5a c0	 cvtsd2ss xmm0, xmm0
  032b9	f3 0f 11 05 00
	00 00 00	 movss	 DWORD PTR ?front_g_e_force@@3MA, xmm0

; 2358 : 
; 2359 : 			front_g_e_force = bound (front_g_e_force, 0.0, 0.05);

  032c1	f3 0f 5a 05 00
	00 00 00	 cvtss2sd xmm0, DWORD PTR ?front_g_e_force@@3MA
  032c9	0f 57 c9	 xorps	 xmm1, xmm1
  032cc	66 0f 2f c8	 comisd	 xmm1, xmm0
  032d0	76 0d		 jbe	 SHORT $LN141@update_att
  032d2	0f 57 c0	 xorps	 xmm0, xmm0
  032d5	f2 0f 11 85 d4
	fc ff ff	 movsd	 QWORD PTR tv1595[ebp], xmm0
  032dd	eb 44		 jmp	 SHORT $LN142@update_att
$LN141@update_att:
  032df	f3 0f 5a 05 00
	00 00 00	 cvtss2sd xmm0, DWORD PTR ?front_g_e_force@@3MA
  032e7	66 0f 2f 05 00
	00 00 00	 comisd	 xmm0, QWORD PTR __real@3fa999999999999a
  032ef	76 12		 jbe	 SHORT $LN139@update_att
  032f1	f2 0f 10 05 00
	00 00 00	 movsd	 xmm0, QWORD PTR __real@3fa999999999999a
  032f9	f2 0f 11 85 cc
	fc ff ff	 movsd	 QWORD PTR tv1594[ebp], xmm0
  03301	eb 10		 jmp	 SHORT $LN140@update_att
$LN139@update_att:
  03303	f3 0f 5a 05 00
	00 00 00	 cvtss2sd xmm0, DWORD PTR ?front_g_e_force@@3MA
  0330b	f2 0f 11 85 cc
	fc ff ff	 movsd	 QWORD PTR tv1594[ebp], xmm0
$LN140@update_att:
  03313	f2 0f 10 85 cc
	fc ff ff	 movsd	 xmm0, QWORD PTR tv1594[ebp]
  0331b	f2 0f 11 85 d4
	fc ff ff	 movsd	 QWORD PTR tv1595[ebp], xmm0
$LN142@update_att:
  03323	f2 0f 5a 85 d4
	fc ff ff	 cvtsd2ss xmm0, QWORD PTR tv1595[ebp]
  0332b	f3 0f 11 05 00
	00 00 00	 movss	 DWORD PTR ?front_g_e_force@@3MA, xmm0

; 2360 : 
; 2361 : 			if (front_g_e_force > 0.0)

  03333	f3 0f 5a 05 00
	00 00 00	 cvtss2sd xmm0, DWORD PTR ?front_g_e_force@@3MA
  0333b	66 0f 2f 05 00
	00 00 00	 comisd	 xmm0, QWORD PTR __real@0000000000000000
  03343	0f 86 d5 00 00
	00		 jbe	 $LN61@update_att

; 2362 : 			{
; 2363 : 
; 2364 : 				front_g_e_force *= tuning_value * main_rotor_induced_air_value;

  03349	f3 0f 10 85 f8
	fd ff ff	 movss	 xmm0, DWORD PTR _tuning_value$30[ebp]
  03351	f3 0f 59 85 74
	ff ff ff	 mulss	 xmm0, DWORD PTR _main_rotor_induced_air_value$[ebp]
  03359	f3 0f 59 05 00
	00 00 00	 mulss	 xmm0, DWORD PTR ?front_g_e_force@@3MA
  03361	f3 0f 11 05 00
	00 00 00	 movss	 DWORD PTR ?front_g_e_force@@3MA, xmm0

; 2365 : 
; 2366 : 				if (current_flight_dynamics->velocity_z.max != 0.0)

  03369	a1 00 00 00 00	 mov	 eax, DWORD PTR ?current_flight_dynamics@@3PAUDYNAMICS_TYPE@@A ; current_flight_dynamics
  0336e	f3 0f 5a 80 a8
	20 00 00	 cvtss2sd xmm0, DWORD PTR [eax+8360]
  03376	66 0f 2e 05 00
	00 00 00	 ucomisd xmm0, QWORD PTR __real@0000000000000000
  0337e	9f		 lahf
  0337f	f6 c4 44	 test	 ah, 68			; 00000044H
  03382	7b 4c		 jnp	 SHORT $LN62@update_att

; 2367 : 				{
; 2368 : 
; 2369 : 					front_g_e_force *= (current_flight_dynamics->velocity_z.max - fabs (velocity_z_value)) / current_flight_dynamics->velocity_z.max;

  03384	51		 push	 ecx
  03385	f3 0f 10 85 48
	ff ff ff	 movss	 xmm0, DWORD PTR _velocity_z_value$[ebp]
  0338d	f3 0f 11 04 24	 movss	 DWORD PTR [esp], xmm0
  03392	e8 00 00 00 00	 call	 ?fabs@@YGMM@Z		; fabs
  03397	d9 9d d8 fc ff
	ff		 fstp	 DWORD PTR tv3453[ebp]
  0339d	a1 00 00 00 00	 mov	 eax, DWORD PTR ?current_flight_dynamics@@3PAUDYNAMICS_TYPE@@A ; current_flight_dynamics
  033a2	f3 0f 10 80 a8
	20 00 00	 movss	 xmm0, DWORD PTR [eax+8360]
  033aa	f3 0f 5c 85 d8
	fc ff ff	 subss	 xmm0, DWORD PTR tv3453[ebp]
  033b2	8b 0d 00 00 00
	00		 mov	 ecx, DWORD PTR ?current_flight_dynamics@@3PAUDYNAMICS_TYPE@@A ; current_flight_dynamics
  033b8	f3 0f 5e 81 a8
	20 00 00	 divss	 xmm0, DWORD PTR [ecx+8360]
  033c0	f3 0f 59 05 00
	00 00 00	 mulss	 xmm0, DWORD PTR ?front_g_e_force@@3MA
  033c8	f3 0f 11 05 00
	00 00 00	 movss	 DWORD PTR ?front_g_e_force@@3MA, xmm0
$LN62@update_att:

; 2370 : 				}
; 2371 : 
; 2372 : 				#if DEBUG_MODULE
; 2373 : 
; 2374 : 				debug_log ("DYNAMICS: IGE front force %f, alt %f, y %f, el %f, x %f, z %f, tuning %f induced %f",
; 2375 : 								front_g_e_force, altitude, current_flight_dynamics->position.y,
; 2376 : 								get_3d_terrain_point_data_elevation (&terrain_info), world_position.x, world_position.z,
; 2377 : 								tuning_value, main_rotor_induced_air_value);
; 2378 : 
; 2379 : 				create_vectored_debug_3d_object (&world_position, &direction, OBJECT_3D_ARROW_FORCES, 0, 20.0 * front_g_e_force);
; 2380 : 
; 2381 : 				#endif
; 2382 : 
; 2383 : 				front_g_e_force *= current_flight_dynamics->ground_effect.modifier;

  033d0	a1 00 00 00 00	 mov	 eax, DWORD PTR ?current_flight_dynamics@@3PAUDYNAMICS_TYPE@@A ; current_flight_dynamics
  033d5	f3 0f 10 05 00
	00 00 00	 movss	 xmm0, DWORD PTR ?front_g_e_force@@3MA
  033dd	f3 0f 59 80 e0
	23 00 00	 mulss	 xmm0, DWORD PTR [eax+9184]
  033e5	f3 0f 11 05 00
	00 00 00	 movss	 DWORD PTR ?front_g_e_force@@3MA, xmm0

; 2384 : 
; 2385 : 				add_dynamic_force ("Front rotor Ground effect", front_g_e_force, 0.0, &position, &direction, FALSE);

  033ed	6a 00		 push	 0
  033ef	8d 85 10 ff ff
	ff		 lea	 eax, DWORD PTR _direction$[ebp]
  033f5	50		 push	 eax
  033f6	8d 8d 1c ff ff
	ff		 lea	 ecx, DWORD PTR _position$[ebp]
  033fc	51		 push	 ecx
  033fd	51		 push	 ecx
  033fe	0f 57 c0	 xorps	 xmm0, xmm0
  03401	f3 0f 11 04 24	 movss	 DWORD PTR [esp], xmm0
  03406	51		 push	 ecx
  03407	f3 0f 10 05 00
	00 00 00	 movss	 xmm0, DWORD PTR ?front_g_e_force@@3MA
  0340f	f3 0f 11 04 24	 movss	 DWORD PTR [esp], xmm0
  03414	68 00 00 00 00	 push	 OFFSET ??_C@_0BK@BDABDLEI@Front?5rotor?5Ground?5effect@
  03419	e8 00 00 00 00	 call	 ?add_dynamic_force@@YGXPBDMMPAUVEC3D@@1H@Z ; add_dynamic_force
$LN61@update_att:

; 2386 : 			}
; 2387 : 		}
; 2388 : 		////////////////////////////////////////////
; 2389 : 		// In Ground Effect on back side of rotor disc
; 2390 : 		////////////////////////////////////////////
; 2391 : 		{
; 2392 : 
; 2393 : 			float
; 2394 : 				tuning_value = 0.1;

  0341e	f3 0f 10 05 00
	00 00 00	 movss	 xmm0, DWORD PTR __real@3dcccccd
  03426	f3 0f 11 85 f4
	fd ff ff	 movss	 DWORD PTR _tuning_value$29[ebp], xmm0

; 2395 : 
; 2396 : 			position.x = 0.0;

  0342e	0f 57 c0	 xorps	 xmm0, xmm0
  03431	f3 0f 11 85 1c
	ff ff ff	 movss	 DWORD PTR _position$[ebp], xmm0

; 2397 : 			position.y = 0.0;

  03439	0f 57 c0	 xorps	 xmm0, xmm0
  0343c	f3 0f 11 85 20
	ff ff ff	 movss	 DWORD PTR _position$[ebp+4], xmm0

; 2398 : 			position.z = -7.299;

  03444	f3 0f 10 05 00
	00 00 00	 movss	 xmm0, DWORD PTR __real@c0e99168
  0344c	f3 0f 11 85 24
	ff ff ff	 movss	 DWORD PTR _position$[ebp+8], xmm0

; 2399 : 
; 2400 : 			direction.x = 0.0;

  03454	0f 57 c0	 xorps	 xmm0, xmm0
  03457	f3 0f 11 85 10
	ff ff ff	 movss	 DWORD PTR _direction$[ebp], xmm0

; 2401 : 			direction.y = 1.0;

  0345f	f3 0f 10 05 00
	00 00 00	 movss	 xmm0, DWORD PTR __real@3f800000
  03467	f3 0f 11 85 14
	ff ff ff	 movss	 DWORD PTR _direction$[ebp+4], xmm0

; 2402 : 			direction.z = 0.0;

  0346f	0f 57 c0	 xorps	 xmm0, xmm0
  03472	f3 0f 11 85 18
	ff ff ff	 movss	 DWORD PTR _direction$[ebp+8], xmm0

; 2403 : 
; 2404 : 			multiply_matrix3x3_vec3d (&world_position, current_flight_dynamics->attitude, &position);

  0347a	8d 85 1c ff ff
	ff		 lea	 eax, DWORD PTR _position$[ebp]
  03480	50		 push	 eax
  03481	8b 0d 00 00 00
	00		 mov	 ecx, DWORD PTR ?current_flight_dynamics@@3PAUDYNAMICS_TYPE@@A ; current_flight_dynamics
  03487	81 c1 d0 00 00
	00		 add	 ecx, 208		; 000000d0H
  0348d	51		 push	 ecx
  0348e	8d 95 00 fe ff
	ff		 lea	 edx, DWORD PTR _world_position$32[ebp]
  03494	52		 push	 edx
  03495	e8 00 00 00 00	 call	 ?multiply_matrix3x3_vec3d@@YGXPAUVEC3D@@QAY02$$CBMPBU1@@Z ; multiply_matrix3x3_vec3d

; 2405 : 
; 2406 : 			world_position.x += current_flight_dynamics->position.x;

  0349a	f3 0f 5a 85 00
	fe ff ff	 cvtss2sd xmm0, DWORD PTR _world_position$32[ebp]
  034a2	a1 00 00 00 00	 mov	 eax, DWORD PTR ?current_flight_dynamics@@3PAUDYNAMICS_TYPE@@A ; current_flight_dynamics
  034a7	f2 0f 58 80 ac
	00 00 00	 addsd	 xmm0, QWORD PTR [eax+172]
  034af	f2 0f 5a c0	 cvtsd2ss xmm0, xmm0
  034b3	f3 0f 11 85 00
	fe ff ff	 movss	 DWORD PTR _world_position$32[ebp], xmm0

; 2407 : 			world_position.y += current_flight_dynamics->position.y;

  034bb	f3 0f 5a 85 04
	fe ff ff	 cvtss2sd xmm0, DWORD PTR _world_position$32[ebp+4]
  034c3	a1 00 00 00 00	 mov	 eax, DWORD PTR ?current_flight_dynamics@@3PAUDYNAMICS_TYPE@@A ; current_flight_dynamics
  034c8	f2 0f 58 80 b4
	00 00 00	 addsd	 xmm0, QWORD PTR [eax+180]
  034d0	f2 0f 5a c0	 cvtsd2ss xmm0, xmm0
  034d4	f3 0f 11 85 04
	fe ff ff	 movss	 DWORD PTR _world_position$32[ebp+4], xmm0

; 2408 : 			world_position.z += current_flight_dynamics->position.z;

  034dc	f3 0f 5a 85 08
	fe ff ff	 cvtss2sd xmm0, DWORD PTR _world_position$32[ebp+8]
  034e4	a1 00 00 00 00	 mov	 eax, DWORD PTR ?current_flight_dynamics@@3PAUDYNAMICS_TYPE@@A ; current_flight_dynamics
  034e9	f2 0f 58 80 bc
	00 00 00	 addsd	 xmm0, QWORD PTR [eax+188]
  034f1	f2 0f 5a c0	 cvtsd2ss xmm0, xmm0
  034f5	f3 0f 11 85 08
	fe ff ff	 movss	 DWORD PTR _world_position$32[ebp+8], xmm0

; 2409 : 
; 2410 : 			bound_position_to_adjusted_map_volume (&world_position);

  034fd	8d 85 00 fe ff
	ff		 lea	 eax, DWORD PTR _world_position$32[ebp]
  03503	50		 push	 eax
  03504	e8 00 00 00 00	 call	 ?bound_position_to_adjusted_map_volume@@YGHPAUVEC3D@@@Z ; bound_position_to_adjusted_map_volume

; 2411 : 
; 2412 : 			get_3d_terrain_point_data (world_position.x, world_position.z, &terrain_info);

  03509	8d 85 0c fe ff
	ff		 lea	 eax, DWORD PTR _terrain_info$33[ebp]
  0350f	50		 push	 eax
  03510	51		 push	 ecx
  03511	f3 0f 10 85 08
	fe ff ff	 movss	 xmm0, DWORD PTR _world_position$32[ebp+8]
  03519	f3 0f 11 04 24	 movss	 DWORD PTR [esp], xmm0
  0351e	51		 push	 ecx
  0351f	f3 0f 10 85 00
	fe ff ff	 movss	 xmm0, DWORD PTR _world_position$32[ebp]
  03527	f3 0f 11 04 24	 movss	 DWORD PTR [esp], xmm0
  0352c	e8 00 00 00 00	 call	 ?get_3d_terrain_point_data@@YGMMMPAUTERRAIN_3D_POINT_DATA@@@Z ; get_3d_terrain_point_data
  03531	dd d8		 fstp	 ST(0)

; 2413 : 
; 2414 : 			altitude = world_position.y - get_3d_terrain_point_data_elevation (&terrain_info);

  03533	8d 85 0c fe ff
	ff		 lea	 eax, DWORD PTR _terrain_info$33[ebp]
  03539	50		 push	 eax
  0353a	e8 00 00 00 00	 call	 ?get_3d_terrain_point_data_elevation@@YGMPAUTERRAIN_3D_POINT_DATA@@@Z ; get_3d_terrain_point_data_elevation
  0353f	d9 9d d8 fc ff
	ff		 fstp	 DWORD PTR tv3489[ebp]
  03545	f3 0f 10 85 04
	fe ff ff	 movss	 xmm0, DWORD PTR _world_position$32[ebp+4]
  0354d	f3 0f 5c 85 d8
	fc ff ff	 subss	 xmm0, DWORD PTR tv3489[ebp]
  03555	f3 0f 11 85 38
	fe ff ff	 movss	 DWORD PTR _altitude$34[ebp], xmm0

; 2415 : 
; 2416 : 			altitude = max (altitude, 0.0f);

  0355d	0f 57 c0	 xorps	 xmm0, xmm0
  03560	f3 0f 11 85 fc
	fc ff ff	 movss	 DWORD PTR $T9[ebp], xmm0
  03568	8d 85 fc fc ff
	ff		 lea	 eax, DWORD PTR $T9[ebp]
  0356e	50		 push	 eax
  0356f	8d 8d 38 fe ff
	ff		 lea	 ecx, DWORD PTR _altitude$34[ebp]
  03575	51		 push	 ecx
  03576	e8 00 00 00 00	 call	 ??$max@M@std@@YGABMABM0@Z ; std::max<float>
  0357b	f3 0f 10 00	 movss	 xmm0, DWORD PTR [eax]
  0357f	f3 0f 11 85 38
	fe ff ff	 movss	 DWORD PTR _altitude$34[ebp], xmm0

; 2417 : 
; 2418 : 			back_g_e_force += ((0.05 - ((altitude * altitude) / (20.0 * current_flight_dynamics->main_rotor_diameter.value * current_flight_dynamics->main_rotor_diameter.value))) - back_g_e_force) * get_model_delta_time ();

  03587	f3 0f 10 85 38
	fe ff ff	 movss	 xmm0, DWORD PTR _altitude$34[ebp]
  0358f	f3 0f 59 85 38
	fe ff ff	 mulss	 xmm0, DWORD PTR _altitude$34[ebp]
  03597	f3 0f 5a c0	 cvtss2sd xmm0, xmm0
  0359b	a1 00 00 00 00	 mov	 eax, DWORD PTR ?current_flight_dynamics@@3PAUDYNAMICS_TYPE@@A ; current_flight_dynamics
  035a0	f3 0f 5a 88 9c
	1d 00 00	 cvtss2sd xmm1, DWORD PTR [eax+7580]
  035a8	f2 0f 59 0d 00
	00 00 00	 mulsd	 xmm1, QWORD PTR __real@4034000000000000
  035b0	8b 0d 00 00 00
	00		 mov	 ecx, DWORD PTR ?current_flight_dynamics@@3PAUDYNAMICS_TYPE@@A ; current_flight_dynamics
  035b6	f3 0f 5a 91 9c
	1d 00 00	 cvtss2sd xmm2, DWORD PTR [ecx+7580]
  035be	f2 0f 59 ca	 mulsd	 xmm1, xmm2
  035c2	f2 0f 5e c1	 divsd	 xmm0, xmm1
  035c6	f2 0f 10 0d 00
	00 00 00	 movsd	 xmm1, QWORD PTR __real@3fa999999999999a
  035ce	f2 0f 5c c8	 subsd	 xmm1, xmm0
  035d2	f3 0f 5a 05 00
	00 00 00	 cvtss2sd xmm0, DWORD PTR ?back_g_e_force@@3MA
  035da	f2 0f 5c c8	 subsd	 xmm1, xmm0
  035de	8b 15 00 00 00
	00		 mov	 edx, DWORD PTR ?current_flight_dynamics@@3PAUDYNAMICS_TYPE@@A ; current_flight_dynamics
  035e4	f3 0f 5a 82 90
	00 00 00	 cvtss2sd xmm0, DWORD PTR [edx+144]
  035ec	f2 0f 59 c8	 mulsd	 xmm1, xmm0
  035f0	f3 0f 5a 05 00
	00 00 00	 cvtss2sd xmm0, DWORD PTR ?back_g_e_force@@3MA
  035f8	f2 0f 58 c1	 addsd	 xmm0, xmm1
  035fc	f2 0f 5a c0	 cvtsd2ss xmm0, xmm0
  03600	f3 0f 11 05 00
	00 00 00	 movss	 DWORD PTR ?back_g_e_force@@3MA, xmm0

; 2419 : 
; 2420 : 			back_g_e_force = bound (back_g_e_force, 0.0, 0.05);

  03608	f3 0f 5a 05 00
	00 00 00	 cvtss2sd xmm0, DWORD PTR ?back_g_e_force@@3MA
  03610	0f 57 c9	 xorps	 xmm1, xmm1
  03613	66 0f 2f c8	 comisd	 xmm1, xmm0
  03617	76 0d		 jbe	 SHORT $LN145@update_att
  03619	0f 57 c0	 xorps	 xmm0, xmm0
  0361c	f2 0f 11 85 d4
	fc ff ff	 movsd	 QWORD PTR tv1678[ebp], xmm0
  03624	eb 44		 jmp	 SHORT $LN146@update_att
$LN145@update_att:
  03626	f3 0f 5a 05 00
	00 00 00	 cvtss2sd xmm0, DWORD PTR ?back_g_e_force@@3MA
  0362e	66 0f 2f 05 00
	00 00 00	 comisd	 xmm0, QWORD PTR __real@3fa999999999999a
  03636	76 12		 jbe	 SHORT $LN143@update_att
  03638	f2 0f 10 05 00
	00 00 00	 movsd	 xmm0, QWORD PTR __real@3fa999999999999a
  03640	f2 0f 11 85 cc
	fc ff ff	 movsd	 QWORD PTR tv1677[ebp], xmm0
  03648	eb 10		 jmp	 SHORT $LN144@update_att
$LN143@update_att:
  0364a	f3 0f 5a 05 00
	00 00 00	 cvtss2sd xmm0, DWORD PTR ?back_g_e_force@@3MA
  03652	f2 0f 11 85 cc
	fc ff ff	 movsd	 QWORD PTR tv1677[ebp], xmm0
$LN144@update_att:
  0365a	f2 0f 10 85 cc
	fc ff ff	 movsd	 xmm0, QWORD PTR tv1677[ebp]
  03662	f2 0f 11 85 d4
	fc ff ff	 movsd	 QWORD PTR tv1678[ebp], xmm0
$LN146@update_att:
  0366a	f2 0f 5a 85 d4
	fc ff ff	 cvtsd2ss xmm0, QWORD PTR tv1678[ebp]
  03672	f3 0f 11 05 00
	00 00 00	 movss	 DWORD PTR ?back_g_e_force@@3MA, xmm0

; 2421 : 
; 2422 : 			if (back_g_e_force > 0.0)

  0367a	f3 0f 5a 05 00
	00 00 00	 cvtss2sd xmm0, DWORD PTR ?back_g_e_force@@3MA
  03682	66 0f 2f 05 00
	00 00 00	 comisd	 xmm0, QWORD PTR __real@0000000000000000
  0368a	0f 86 d5 00 00
	00		 jbe	 $LN63@update_att

; 2423 : 			{
; 2424 : 
; 2425 : 				back_g_e_force *= tuning_value * main_rotor_induced_air_value;

  03690	f3 0f 10 85 f4
	fd ff ff	 movss	 xmm0, DWORD PTR _tuning_value$29[ebp]
  03698	f3 0f 59 85 74
	ff ff ff	 mulss	 xmm0, DWORD PTR _main_rotor_induced_air_value$[ebp]
  036a0	f3 0f 59 05 00
	00 00 00	 mulss	 xmm0, DWORD PTR ?back_g_e_force@@3MA
  036a8	f3 0f 11 05 00
	00 00 00	 movss	 DWORD PTR ?back_g_e_force@@3MA, xmm0

; 2426 : 
; 2427 : 				if (current_flight_dynamics->velocity_z.max != 0.0)

  036b0	a1 00 00 00 00	 mov	 eax, DWORD PTR ?current_flight_dynamics@@3PAUDYNAMICS_TYPE@@A ; current_flight_dynamics
  036b5	f3 0f 5a 80 a8
	20 00 00	 cvtss2sd xmm0, DWORD PTR [eax+8360]
  036bd	66 0f 2e 05 00
	00 00 00	 ucomisd xmm0, QWORD PTR __real@0000000000000000
  036c5	9f		 lahf
  036c6	f6 c4 44	 test	 ah, 68			; 00000044H
  036c9	7b 4c		 jnp	 SHORT $LN64@update_att

; 2428 : 				{
; 2429 : 
; 2430 : 					back_g_e_force *= (current_flight_dynamics->velocity_z.max - fabs (velocity_z_value)) / current_flight_dynamics->velocity_z.max;

  036cb	51		 push	 ecx
  036cc	f3 0f 10 85 48
	ff ff ff	 movss	 xmm0, DWORD PTR _velocity_z_value$[ebp]
  036d4	f3 0f 11 04 24	 movss	 DWORD PTR [esp], xmm0
  036d9	e8 00 00 00 00	 call	 ?fabs@@YGMM@Z		; fabs
  036de	d9 9d d8 fc ff
	ff		 fstp	 DWORD PTR tv3516[ebp]
  036e4	a1 00 00 00 00	 mov	 eax, DWORD PTR ?current_flight_dynamics@@3PAUDYNAMICS_TYPE@@A ; current_flight_dynamics
  036e9	f3 0f 10 80 a8
	20 00 00	 movss	 xmm0, DWORD PTR [eax+8360]
  036f1	f3 0f 5c 85 d8
	fc ff ff	 subss	 xmm0, DWORD PTR tv3516[ebp]
  036f9	8b 0d 00 00 00
	00		 mov	 ecx, DWORD PTR ?current_flight_dynamics@@3PAUDYNAMICS_TYPE@@A ; current_flight_dynamics
  036ff	f3 0f 5e 81 a8
	20 00 00	 divss	 xmm0, DWORD PTR [ecx+8360]
  03707	f3 0f 59 05 00
	00 00 00	 mulss	 xmm0, DWORD PTR ?back_g_e_force@@3MA
  0370f	f3 0f 11 05 00
	00 00 00	 movss	 DWORD PTR ?back_g_e_force@@3MA, xmm0
$LN64@update_att:

; 2431 : 				}
; 2432 : 
; 2433 : 				#if DEBUG_MODULE
; 2434 : 
; 2435 : 				debug_log ("DYNAMICS: IGE back force %f, alt %f, y %f, el %f, x %f, z %f",
; 2436 : 								back_g_e_force, altitude, current_flight_dynamics->position.y,
; 2437 : 								get_3d_terrain_point_data_elevation (&terrain_info), world_position.x, world_position.z);
; 2438 : 
; 2439 : 				create_vectored_debug_3d_object (&world_position, &direction, OBJECT_3D_ARROW_FORCES, 0, 20.0 * back_g_e_force);
; 2440 : 
; 2441 : 				#endif
; 2442 : 
; 2443 : 				back_g_e_force *= current_flight_dynamics->ground_effect.modifier;

  03717	a1 00 00 00 00	 mov	 eax, DWORD PTR ?current_flight_dynamics@@3PAUDYNAMICS_TYPE@@A ; current_flight_dynamics
  0371c	f3 0f 10 05 00
	00 00 00	 movss	 xmm0, DWORD PTR ?back_g_e_force@@3MA
  03724	f3 0f 59 80 e0
	23 00 00	 mulss	 xmm0, DWORD PTR [eax+9184]
  0372c	f3 0f 11 05 00
	00 00 00	 movss	 DWORD PTR ?back_g_e_force@@3MA, xmm0

; 2444 : 
; 2445 : 				add_dynamic_force ("Back rotor Ground effect", back_g_e_force, 0.0, &position, &direction, FALSE);

  03734	6a 00		 push	 0
  03736	8d 85 10 ff ff
	ff		 lea	 eax, DWORD PTR _direction$[ebp]
  0373c	50		 push	 eax
  0373d	8d 8d 1c ff ff
	ff		 lea	 ecx, DWORD PTR _position$[ebp]
  03743	51		 push	 ecx
  03744	51		 push	 ecx
  03745	0f 57 c0	 xorps	 xmm0, xmm0
  03748	f3 0f 11 04 24	 movss	 DWORD PTR [esp], xmm0
  0374d	51		 push	 ecx
  0374e	f3 0f 10 05 00
	00 00 00	 movss	 xmm0, DWORD PTR ?back_g_e_force@@3MA
  03756	f3 0f 11 04 24	 movss	 DWORD PTR [esp], xmm0
  0375b	68 00 00 00 00	 push	 OFFSET ??_C@_0BJ@MKNEGMFL@Back?5rotor?5Ground?5effect@
  03760	e8 00 00 00 00	 call	 ?add_dynamic_force@@YGXPBDMMPAUVEC3D@@1H@Z ; add_dynamic_force
$LN63@update_att:

; 2446 : 			}
; 2447 : 		}
; 2448 : 		////////////////////////////////////////////
; 2449 : 		// In Ground Effect on left side of rotor disc
; 2450 : 		////////////////////////////////////////////
; 2451 : 		{
; 2452 : 
; 2453 : 			float
; 2454 : 				tuning_value = 0.1;

  03765	f3 0f 10 05 00
	00 00 00	 movss	 xmm0, DWORD PTR __real@3dcccccd
  0376d	f3 0f 11 85 f0
	fd ff ff	 movss	 DWORD PTR _tuning_value$28[ebp], xmm0

; 2455 : 
; 2456 : 			position.x = 7.299;

  03775	f3 0f 10 05 00
	00 00 00	 movss	 xmm0, DWORD PTR __real@40e99168
  0377d	f3 0f 11 85 1c
	ff ff ff	 movss	 DWORD PTR _position$[ebp], xmm0

; 2457 : 			position.y = 0.0;

  03785	0f 57 c0	 xorps	 xmm0, xmm0
  03788	f3 0f 11 85 20
	ff ff ff	 movss	 DWORD PTR _position$[ebp+4], xmm0

; 2458 : 			position.z = 0.0;

  03790	0f 57 c0	 xorps	 xmm0, xmm0
  03793	f3 0f 11 85 24
	ff ff ff	 movss	 DWORD PTR _position$[ebp+8], xmm0

; 2459 : 
; 2460 : 			direction.x = 0.0;

  0379b	0f 57 c0	 xorps	 xmm0, xmm0
  0379e	f3 0f 11 85 10
	ff ff ff	 movss	 DWORD PTR _direction$[ebp], xmm0

; 2461 : 			direction.y = 1.0;

  037a6	f3 0f 10 05 00
	00 00 00	 movss	 xmm0, DWORD PTR __real@3f800000
  037ae	f3 0f 11 85 14
	ff ff ff	 movss	 DWORD PTR _direction$[ebp+4], xmm0

; 2462 : 			direction.z = 0.0;

  037b6	0f 57 c0	 xorps	 xmm0, xmm0
  037b9	f3 0f 11 85 18
	ff ff ff	 movss	 DWORD PTR _direction$[ebp+8], xmm0

; 2463 : 
; 2464 : 			multiply_matrix3x3_vec3d (&world_position, current_flight_dynamics->attitude, &position);

  037c1	8d 85 1c ff ff
	ff		 lea	 eax, DWORD PTR _position$[ebp]
  037c7	50		 push	 eax
  037c8	8b 0d 00 00 00
	00		 mov	 ecx, DWORD PTR ?current_flight_dynamics@@3PAUDYNAMICS_TYPE@@A ; current_flight_dynamics
  037ce	81 c1 d0 00 00
	00		 add	 ecx, 208		; 000000d0H
  037d4	51		 push	 ecx
  037d5	8d 95 00 fe ff
	ff		 lea	 edx, DWORD PTR _world_position$32[ebp]
  037db	52		 push	 edx
  037dc	e8 00 00 00 00	 call	 ?multiply_matrix3x3_vec3d@@YGXPAUVEC3D@@QAY02$$CBMPBU1@@Z ; multiply_matrix3x3_vec3d

; 2465 : 
; 2466 : 			world_position.x += current_flight_dynamics->position.x;

  037e1	f3 0f 5a 85 00
	fe ff ff	 cvtss2sd xmm0, DWORD PTR _world_position$32[ebp]
  037e9	a1 00 00 00 00	 mov	 eax, DWORD PTR ?current_flight_dynamics@@3PAUDYNAMICS_TYPE@@A ; current_flight_dynamics
  037ee	f2 0f 58 80 ac
	00 00 00	 addsd	 xmm0, QWORD PTR [eax+172]
  037f6	f2 0f 5a c0	 cvtsd2ss xmm0, xmm0
  037fa	f3 0f 11 85 00
	fe ff ff	 movss	 DWORD PTR _world_position$32[ebp], xmm0

; 2467 : 			world_position.y += current_flight_dynamics->position.y;

  03802	f3 0f 5a 85 04
	fe ff ff	 cvtss2sd xmm0, DWORD PTR _world_position$32[ebp+4]
  0380a	a1 00 00 00 00	 mov	 eax, DWORD PTR ?current_flight_dynamics@@3PAUDYNAMICS_TYPE@@A ; current_flight_dynamics
  0380f	f2 0f 58 80 b4
	00 00 00	 addsd	 xmm0, QWORD PTR [eax+180]
  03817	f2 0f 5a c0	 cvtsd2ss xmm0, xmm0
  0381b	f3 0f 11 85 04
	fe ff ff	 movss	 DWORD PTR _world_position$32[ebp+4], xmm0

; 2468 : 			world_position.z += current_flight_dynamics->position.z;

  03823	f3 0f 5a 85 08
	fe ff ff	 cvtss2sd xmm0, DWORD PTR _world_position$32[ebp+8]
  0382b	a1 00 00 00 00	 mov	 eax, DWORD PTR ?current_flight_dynamics@@3PAUDYNAMICS_TYPE@@A ; current_flight_dynamics
  03830	f2 0f 58 80 bc
	00 00 00	 addsd	 xmm0, QWORD PTR [eax+188]
  03838	f2 0f 5a c0	 cvtsd2ss xmm0, xmm0
  0383c	f3 0f 11 85 08
	fe ff ff	 movss	 DWORD PTR _world_position$32[ebp+8], xmm0

; 2469 : 
; 2470 : 			bound_position_to_adjusted_map_volume (&world_position);

  03844	8d 85 00 fe ff
	ff		 lea	 eax, DWORD PTR _world_position$32[ebp]
  0384a	50		 push	 eax
  0384b	e8 00 00 00 00	 call	 ?bound_position_to_adjusted_map_volume@@YGHPAUVEC3D@@@Z ; bound_position_to_adjusted_map_volume

; 2471 : 
; 2472 : 			get_3d_terrain_point_data (world_position.x, world_position.z, &terrain_info);

  03850	8d 85 0c fe ff
	ff		 lea	 eax, DWORD PTR _terrain_info$33[ebp]
  03856	50		 push	 eax
  03857	51		 push	 ecx
  03858	f3 0f 10 85 08
	fe ff ff	 movss	 xmm0, DWORD PTR _world_position$32[ebp+8]
  03860	f3 0f 11 04 24	 movss	 DWORD PTR [esp], xmm0
  03865	51		 push	 ecx
  03866	f3 0f 10 85 00
	fe ff ff	 movss	 xmm0, DWORD PTR _world_position$32[ebp]
  0386e	f3 0f 11 04 24	 movss	 DWORD PTR [esp], xmm0
  03873	e8 00 00 00 00	 call	 ?get_3d_terrain_point_data@@YGMMMPAUTERRAIN_3D_POINT_DATA@@@Z ; get_3d_terrain_point_data
  03878	dd d8		 fstp	 ST(0)

; 2473 : 
; 2474 : 			altitude = world_position.y - get_3d_terrain_point_data_elevation (&terrain_info);

  0387a	8d 85 0c fe ff
	ff		 lea	 eax, DWORD PTR _terrain_info$33[ebp]
  03880	50		 push	 eax
  03881	e8 00 00 00 00	 call	 ?get_3d_terrain_point_data_elevation@@YGMPAUTERRAIN_3D_POINT_DATA@@@Z ; get_3d_terrain_point_data_elevation
  03886	d9 9d d8 fc ff
	ff		 fstp	 DWORD PTR tv3552[ebp]
  0388c	f3 0f 10 85 04
	fe ff ff	 movss	 xmm0, DWORD PTR _world_position$32[ebp+4]
  03894	f3 0f 5c 85 d8
	fc ff ff	 subss	 xmm0, DWORD PTR tv3552[ebp]
  0389c	f3 0f 11 85 38
	fe ff ff	 movss	 DWORD PTR _altitude$34[ebp], xmm0

; 2475 : 
; 2476 : 			altitude = max (altitude, 0.0f);

  038a4	0f 57 c0	 xorps	 xmm0, xmm0
  038a7	f3 0f 11 85 f8
	fc ff ff	 movss	 DWORD PTR $T8[ebp], xmm0
  038af	8d 85 f8 fc ff
	ff		 lea	 eax, DWORD PTR $T8[ebp]
  038b5	50		 push	 eax
  038b6	8d 8d 38 fe ff
	ff		 lea	 ecx, DWORD PTR _altitude$34[ebp]
  038bc	51		 push	 ecx
  038bd	e8 00 00 00 00	 call	 ??$max@M@std@@YGABMABM0@Z ; std::max<float>
  038c2	f3 0f 10 00	 movss	 xmm0, DWORD PTR [eax]
  038c6	f3 0f 11 85 38
	fe ff ff	 movss	 DWORD PTR _altitude$34[ebp], xmm0

; 2477 : 
; 2478 : 			left_g_e_force += ((0.05 - ((altitude * altitude) / (20.0 * current_flight_dynamics->main_rotor_diameter.value * current_flight_dynamics->main_rotor_diameter.value))) - left_g_e_force) * get_model_delta_time ();

  038ce	f3 0f 10 85 38
	fe ff ff	 movss	 xmm0, DWORD PTR _altitude$34[ebp]
  038d6	f3 0f 59 85 38
	fe ff ff	 mulss	 xmm0, DWORD PTR _altitude$34[ebp]
  038de	f3 0f 5a c0	 cvtss2sd xmm0, xmm0
  038e2	a1 00 00 00 00	 mov	 eax, DWORD PTR ?current_flight_dynamics@@3PAUDYNAMICS_TYPE@@A ; current_flight_dynamics
  038e7	f3 0f 5a 88 9c
	1d 00 00	 cvtss2sd xmm1, DWORD PTR [eax+7580]
  038ef	f2 0f 59 0d 00
	00 00 00	 mulsd	 xmm1, QWORD PTR __real@4034000000000000
  038f7	8b 0d 00 00 00
	00		 mov	 ecx, DWORD PTR ?current_flight_dynamics@@3PAUDYNAMICS_TYPE@@A ; current_flight_dynamics
  038fd	f3 0f 5a 91 9c
	1d 00 00	 cvtss2sd xmm2, DWORD PTR [ecx+7580]
  03905	f2 0f 59 ca	 mulsd	 xmm1, xmm2
  03909	f2 0f 5e c1	 divsd	 xmm0, xmm1
  0390d	f2 0f 10 0d 00
	00 00 00	 movsd	 xmm1, QWORD PTR __real@3fa999999999999a
  03915	f2 0f 5c c8	 subsd	 xmm1, xmm0
  03919	f3 0f 5a 05 00
	00 00 00	 cvtss2sd xmm0, DWORD PTR ?left_g_e_force@@3MA
  03921	f2 0f 5c c8	 subsd	 xmm1, xmm0
  03925	8b 15 00 00 00
	00		 mov	 edx, DWORD PTR ?current_flight_dynamics@@3PAUDYNAMICS_TYPE@@A ; current_flight_dynamics
  0392b	f3 0f 5a 82 90
	00 00 00	 cvtss2sd xmm0, DWORD PTR [edx+144]
  03933	f2 0f 59 c8	 mulsd	 xmm1, xmm0
  03937	f3 0f 5a 05 00
	00 00 00	 cvtss2sd xmm0, DWORD PTR ?left_g_e_force@@3MA
  0393f	f2 0f 58 c1	 addsd	 xmm0, xmm1
  03943	f2 0f 5a c0	 cvtsd2ss xmm0, xmm0
  03947	f3 0f 11 05 00
	00 00 00	 movss	 DWORD PTR ?left_g_e_force@@3MA, xmm0

; 2479 : 
; 2480 : 			left_g_e_force = bound (left_g_e_force, 0.0, 0.05);

  0394f	f3 0f 5a 05 00
	00 00 00	 cvtss2sd xmm0, DWORD PTR ?left_g_e_force@@3MA
  03957	0f 57 c9	 xorps	 xmm1, xmm1
  0395a	66 0f 2f c8	 comisd	 xmm1, xmm0
  0395e	76 0d		 jbe	 SHORT $LN149@update_att
  03960	0f 57 c0	 xorps	 xmm0, xmm0
  03963	f2 0f 11 85 d4
	fc ff ff	 movsd	 QWORD PTR tv1761[ebp], xmm0
  0396b	eb 44		 jmp	 SHORT $LN150@update_att
$LN149@update_att:
  0396d	f3 0f 5a 05 00
	00 00 00	 cvtss2sd xmm0, DWORD PTR ?left_g_e_force@@3MA
  03975	66 0f 2f 05 00
	00 00 00	 comisd	 xmm0, QWORD PTR __real@3fa999999999999a
  0397d	76 12		 jbe	 SHORT $LN147@update_att
  0397f	f2 0f 10 05 00
	00 00 00	 movsd	 xmm0, QWORD PTR __real@3fa999999999999a
  03987	f2 0f 11 85 cc
	fc ff ff	 movsd	 QWORD PTR tv1760[ebp], xmm0
  0398f	eb 10		 jmp	 SHORT $LN148@update_att
$LN147@update_att:
  03991	f3 0f 5a 05 00
	00 00 00	 cvtss2sd xmm0, DWORD PTR ?left_g_e_force@@3MA
  03999	f2 0f 11 85 cc
	fc ff ff	 movsd	 QWORD PTR tv1760[ebp], xmm0
$LN148@update_att:
  039a1	f2 0f 10 85 cc
	fc ff ff	 movsd	 xmm0, QWORD PTR tv1760[ebp]
  039a9	f2 0f 11 85 d4
	fc ff ff	 movsd	 QWORD PTR tv1761[ebp], xmm0
$LN150@update_att:
  039b1	f2 0f 5a 85 d4
	fc ff ff	 cvtsd2ss xmm0, QWORD PTR tv1761[ebp]
  039b9	f3 0f 11 05 00
	00 00 00	 movss	 DWORD PTR ?left_g_e_force@@3MA, xmm0

; 2481 : 
; 2482 : 			if (left_g_e_force > 0.0)

  039c1	f3 0f 5a 05 00
	00 00 00	 cvtss2sd xmm0, DWORD PTR ?left_g_e_force@@3MA
  039c9	66 0f 2f 05 00
	00 00 00	 comisd	 xmm0, QWORD PTR __real@0000000000000000
  039d1	0f 86 d5 00 00
	00		 jbe	 $LN65@update_att

; 2483 : 			{
; 2484 : 
; 2485 : 				left_g_e_force *= tuning_value * main_rotor_induced_air_value;

  039d7	f3 0f 10 85 f0
	fd ff ff	 movss	 xmm0, DWORD PTR _tuning_value$28[ebp]
  039df	f3 0f 59 85 74
	ff ff ff	 mulss	 xmm0, DWORD PTR _main_rotor_induced_air_value$[ebp]
  039e7	f3 0f 59 05 00
	00 00 00	 mulss	 xmm0, DWORD PTR ?left_g_e_force@@3MA
  039ef	f3 0f 11 05 00
	00 00 00	 movss	 DWORD PTR ?left_g_e_force@@3MA, xmm0

; 2486 : 
; 2487 : 				if (current_flight_dynamics->velocity_z.max != 0.0)

  039f7	a1 00 00 00 00	 mov	 eax, DWORD PTR ?current_flight_dynamics@@3PAUDYNAMICS_TYPE@@A ; current_flight_dynamics
  039fc	f3 0f 5a 80 a8
	20 00 00	 cvtss2sd xmm0, DWORD PTR [eax+8360]
  03a04	66 0f 2e 05 00
	00 00 00	 ucomisd xmm0, QWORD PTR __real@0000000000000000
  03a0c	9f		 lahf
  03a0d	f6 c4 44	 test	 ah, 68			; 00000044H
  03a10	7b 4c		 jnp	 SHORT $LN66@update_att

; 2488 : 				{
; 2489 : 
; 2490 : 					left_g_e_force *= (current_flight_dynamics->velocity_z.max - fabs (velocity_z_value)) / current_flight_dynamics->velocity_z.max;

  03a12	51		 push	 ecx
  03a13	f3 0f 10 85 48
	ff ff ff	 movss	 xmm0, DWORD PTR _velocity_z_value$[ebp]
  03a1b	f3 0f 11 04 24	 movss	 DWORD PTR [esp], xmm0
  03a20	e8 00 00 00 00	 call	 ?fabs@@YGMM@Z		; fabs
  03a25	d9 9d d8 fc ff
	ff		 fstp	 DWORD PTR tv3579[ebp]
  03a2b	a1 00 00 00 00	 mov	 eax, DWORD PTR ?current_flight_dynamics@@3PAUDYNAMICS_TYPE@@A ; current_flight_dynamics
  03a30	f3 0f 10 80 a8
	20 00 00	 movss	 xmm0, DWORD PTR [eax+8360]
  03a38	f3 0f 5c 85 d8
	fc ff ff	 subss	 xmm0, DWORD PTR tv3579[ebp]
  03a40	8b 0d 00 00 00
	00		 mov	 ecx, DWORD PTR ?current_flight_dynamics@@3PAUDYNAMICS_TYPE@@A ; current_flight_dynamics
  03a46	f3 0f 5e 81 a8
	20 00 00	 divss	 xmm0, DWORD PTR [ecx+8360]
  03a4e	f3 0f 59 05 00
	00 00 00	 mulss	 xmm0, DWORD PTR ?left_g_e_force@@3MA
  03a56	f3 0f 11 05 00
	00 00 00	 movss	 DWORD PTR ?left_g_e_force@@3MA, xmm0
$LN66@update_att:

; 2491 : 				}
; 2492 : 
; 2493 : 				#if DEBUG_MODULE
; 2494 : 
; 2495 : 				debug_log ("DYNAMICS: IGE left force %f, alt %f, y %f, el %f, x %f, z %f",
; 2496 : 								left_g_e_force, altitude, current_flight_dynamics->position.y,
; 2497 : 								get_3d_terrain_point_data_elevation (&terrain_info), world_position.x, world_position.z);
; 2498 : 
; 2499 : 				create_vectored_debug_3d_object (&world_position, &direction, OBJECT_3D_ARROW_FORCES, 0, 20.0 * left_g_e_force);
; 2500 : 
; 2501 : 				#endif
; 2502 : 
; 2503 : 				left_g_e_force *= current_flight_dynamics->ground_effect.modifier;

  03a5e	a1 00 00 00 00	 mov	 eax, DWORD PTR ?current_flight_dynamics@@3PAUDYNAMICS_TYPE@@A ; current_flight_dynamics
  03a63	f3 0f 10 05 00
	00 00 00	 movss	 xmm0, DWORD PTR ?left_g_e_force@@3MA
  03a6b	f3 0f 59 80 e0
	23 00 00	 mulss	 xmm0, DWORD PTR [eax+9184]
  03a73	f3 0f 11 05 00
	00 00 00	 movss	 DWORD PTR ?left_g_e_force@@3MA, xmm0

; 2504 : 
; 2505 : 				add_dynamic_force ("Left rotor Ground effect", left_g_e_force, 0.0, &position, &direction, FALSE);

  03a7b	6a 00		 push	 0
  03a7d	8d 85 10 ff ff
	ff		 lea	 eax, DWORD PTR _direction$[ebp]
  03a83	50		 push	 eax
  03a84	8d 8d 1c ff ff
	ff		 lea	 ecx, DWORD PTR _position$[ebp]
  03a8a	51		 push	 ecx
  03a8b	51		 push	 ecx
  03a8c	0f 57 c0	 xorps	 xmm0, xmm0
  03a8f	f3 0f 11 04 24	 movss	 DWORD PTR [esp], xmm0
  03a94	51		 push	 ecx
  03a95	f3 0f 10 05 00
	00 00 00	 movss	 xmm0, DWORD PTR ?left_g_e_force@@3MA
  03a9d	f3 0f 11 04 24	 movss	 DWORD PTR [esp], xmm0
  03aa2	68 00 00 00 00	 push	 OFFSET ??_C@_0BJ@KEABEFD@Left?5rotor?5Ground?5effect@
  03aa7	e8 00 00 00 00	 call	 ?add_dynamic_force@@YGXPBDMMPAUVEC3D@@1H@Z ; add_dynamic_force
$LN65@update_att:

; 2506 : 			}
; 2507 : 		}
; 2508 : 		////////////////////////////////////////////
; 2509 : 		// In Ground Effect on right side of rotor disc
; 2510 : 		////////////////////////////////////////////
; 2511 : 		{
; 2512 : 
; 2513 : 			float
; 2514 : 				tuning_value = 0.1;

  03aac	f3 0f 10 05 00
	00 00 00	 movss	 xmm0, DWORD PTR __real@3dcccccd
  03ab4	f3 0f 11 85 ec
	fd ff ff	 movss	 DWORD PTR _tuning_value$27[ebp], xmm0

; 2515 : 
; 2516 : 			position.x = -7.299;

  03abc	f3 0f 10 05 00
	00 00 00	 movss	 xmm0, DWORD PTR __real@c0e99168
  03ac4	f3 0f 11 85 1c
	ff ff ff	 movss	 DWORD PTR _position$[ebp], xmm0

; 2517 : 			position.y = 0.0;

  03acc	0f 57 c0	 xorps	 xmm0, xmm0
  03acf	f3 0f 11 85 20
	ff ff ff	 movss	 DWORD PTR _position$[ebp+4], xmm0

; 2518 : 			position.z = 0.0;

  03ad7	0f 57 c0	 xorps	 xmm0, xmm0
  03ada	f3 0f 11 85 24
	ff ff ff	 movss	 DWORD PTR _position$[ebp+8], xmm0

; 2519 : 
; 2520 : 			direction.x = 0.0;

  03ae2	0f 57 c0	 xorps	 xmm0, xmm0
  03ae5	f3 0f 11 85 10
	ff ff ff	 movss	 DWORD PTR _direction$[ebp], xmm0

; 2521 : 			direction.y = 1.0;

  03aed	f3 0f 10 05 00
	00 00 00	 movss	 xmm0, DWORD PTR __real@3f800000
  03af5	f3 0f 11 85 14
	ff ff ff	 movss	 DWORD PTR _direction$[ebp+4], xmm0

; 2522 : 			direction.z = 0.0;

  03afd	0f 57 c0	 xorps	 xmm0, xmm0
  03b00	f3 0f 11 85 18
	ff ff ff	 movss	 DWORD PTR _direction$[ebp+8], xmm0

; 2523 : 
; 2524 : 			multiply_matrix3x3_vec3d (&world_position, current_flight_dynamics->attitude, &position);

  03b08	8d 85 1c ff ff
	ff		 lea	 eax, DWORD PTR _position$[ebp]
  03b0e	50		 push	 eax
  03b0f	8b 0d 00 00 00
	00		 mov	 ecx, DWORD PTR ?current_flight_dynamics@@3PAUDYNAMICS_TYPE@@A ; current_flight_dynamics
  03b15	81 c1 d0 00 00
	00		 add	 ecx, 208		; 000000d0H
  03b1b	51		 push	 ecx
  03b1c	8d 95 00 fe ff
	ff		 lea	 edx, DWORD PTR _world_position$32[ebp]
  03b22	52		 push	 edx
  03b23	e8 00 00 00 00	 call	 ?multiply_matrix3x3_vec3d@@YGXPAUVEC3D@@QAY02$$CBMPBU1@@Z ; multiply_matrix3x3_vec3d

; 2525 : 
; 2526 : 			world_position.x += current_flight_dynamics->position.x;

  03b28	f3 0f 5a 85 00
	fe ff ff	 cvtss2sd xmm0, DWORD PTR _world_position$32[ebp]
  03b30	a1 00 00 00 00	 mov	 eax, DWORD PTR ?current_flight_dynamics@@3PAUDYNAMICS_TYPE@@A ; current_flight_dynamics
  03b35	f2 0f 58 80 ac
	00 00 00	 addsd	 xmm0, QWORD PTR [eax+172]
  03b3d	f2 0f 5a c0	 cvtsd2ss xmm0, xmm0
  03b41	f3 0f 11 85 00
	fe ff ff	 movss	 DWORD PTR _world_position$32[ebp], xmm0

; 2527 : 			world_position.y += current_flight_dynamics->position.y;

  03b49	f3 0f 5a 85 04
	fe ff ff	 cvtss2sd xmm0, DWORD PTR _world_position$32[ebp+4]
  03b51	a1 00 00 00 00	 mov	 eax, DWORD PTR ?current_flight_dynamics@@3PAUDYNAMICS_TYPE@@A ; current_flight_dynamics
  03b56	f2 0f 58 80 b4
	00 00 00	 addsd	 xmm0, QWORD PTR [eax+180]
  03b5e	f2 0f 5a c0	 cvtsd2ss xmm0, xmm0
  03b62	f3 0f 11 85 04
	fe ff ff	 movss	 DWORD PTR _world_position$32[ebp+4], xmm0

; 2528 : 			world_position.z += current_flight_dynamics->position.z;

  03b6a	f3 0f 5a 85 08
	fe ff ff	 cvtss2sd xmm0, DWORD PTR _world_position$32[ebp+8]
  03b72	a1 00 00 00 00	 mov	 eax, DWORD PTR ?current_flight_dynamics@@3PAUDYNAMICS_TYPE@@A ; current_flight_dynamics
  03b77	f2 0f 58 80 bc
	00 00 00	 addsd	 xmm0, QWORD PTR [eax+188]
  03b7f	f2 0f 5a c0	 cvtsd2ss xmm0, xmm0
  03b83	f3 0f 11 85 08
	fe ff ff	 movss	 DWORD PTR _world_position$32[ebp+8], xmm0

; 2529 : 
; 2530 : 			bound_position_to_adjusted_map_volume (&world_position);

  03b8b	8d 85 00 fe ff
	ff		 lea	 eax, DWORD PTR _world_position$32[ebp]
  03b91	50		 push	 eax
  03b92	e8 00 00 00 00	 call	 ?bound_position_to_adjusted_map_volume@@YGHPAUVEC3D@@@Z ; bound_position_to_adjusted_map_volume

; 2531 : 
; 2532 : 			get_3d_terrain_point_data (world_position.x, world_position.z, &terrain_info);

  03b97	8d 85 0c fe ff
	ff		 lea	 eax, DWORD PTR _terrain_info$33[ebp]
  03b9d	50		 push	 eax
  03b9e	51		 push	 ecx
  03b9f	f3 0f 10 85 08
	fe ff ff	 movss	 xmm0, DWORD PTR _world_position$32[ebp+8]
  03ba7	f3 0f 11 04 24	 movss	 DWORD PTR [esp], xmm0
  03bac	51		 push	 ecx
  03bad	f3 0f 10 85 00
	fe ff ff	 movss	 xmm0, DWORD PTR _world_position$32[ebp]
  03bb5	f3 0f 11 04 24	 movss	 DWORD PTR [esp], xmm0
  03bba	e8 00 00 00 00	 call	 ?get_3d_terrain_point_data@@YGMMMPAUTERRAIN_3D_POINT_DATA@@@Z ; get_3d_terrain_point_data
  03bbf	dd d8		 fstp	 ST(0)

; 2533 : 
; 2534 : 			altitude = world_position.y - get_3d_terrain_point_data_elevation (&terrain_info);

  03bc1	8d 85 0c fe ff
	ff		 lea	 eax, DWORD PTR _terrain_info$33[ebp]
  03bc7	50		 push	 eax
  03bc8	e8 00 00 00 00	 call	 ?get_3d_terrain_point_data_elevation@@YGMPAUTERRAIN_3D_POINT_DATA@@@Z ; get_3d_terrain_point_data_elevation
  03bcd	d9 9d d8 fc ff
	ff		 fstp	 DWORD PTR tv3615[ebp]
  03bd3	f3 0f 10 85 04
	fe ff ff	 movss	 xmm0, DWORD PTR _world_position$32[ebp+4]
  03bdb	f3 0f 5c 85 d8
	fc ff ff	 subss	 xmm0, DWORD PTR tv3615[ebp]
  03be3	f3 0f 11 85 38
	fe ff ff	 movss	 DWORD PTR _altitude$34[ebp], xmm0

; 2535 : 
; 2536 : 			altitude = max (altitude, 0.0f);

  03beb	0f 57 c0	 xorps	 xmm0, xmm0
  03bee	f3 0f 11 85 f4
	fc ff ff	 movss	 DWORD PTR $T7[ebp], xmm0
  03bf6	8d 85 f4 fc ff
	ff		 lea	 eax, DWORD PTR $T7[ebp]
  03bfc	50		 push	 eax
  03bfd	8d 8d 38 fe ff
	ff		 lea	 ecx, DWORD PTR _altitude$34[ebp]
  03c03	51		 push	 ecx
  03c04	e8 00 00 00 00	 call	 ??$max@M@std@@YGABMABM0@Z ; std::max<float>
  03c09	f3 0f 10 00	 movss	 xmm0, DWORD PTR [eax]
  03c0d	f3 0f 11 85 38
	fe ff ff	 movss	 DWORD PTR _altitude$34[ebp], xmm0

; 2537 : 
; 2538 : 			right_g_e_force += ((0.05 - ((altitude * altitude) / (20.0 * current_flight_dynamics->main_rotor_diameter.value * current_flight_dynamics->main_rotor_diameter.value))) - right_g_e_force) * get_model_delta_time ();

  03c15	f3 0f 10 85 38
	fe ff ff	 movss	 xmm0, DWORD PTR _altitude$34[ebp]
  03c1d	f3 0f 59 85 38
	fe ff ff	 mulss	 xmm0, DWORD PTR _altitude$34[ebp]
  03c25	f3 0f 5a c0	 cvtss2sd xmm0, xmm0
  03c29	a1 00 00 00 00	 mov	 eax, DWORD PTR ?current_flight_dynamics@@3PAUDYNAMICS_TYPE@@A ; current_flight_dynamics
  03c2e	f3 0f 5a 88 9c
	1d 00 00	 cvtss2sd xmm1, DWORD PTR [eax+7580]
  03c36	f2 0f 59 0d 00
	00 00 00	 mulsd	 xmm1, QWORD PTR __real@4034000000000000
  03c3e	8b 0d 00 00 00
	00		 mov	 ecx, DWORD PTR ?current_flight_dynamics@@3PAUDYNAMICS_TYPE@@A ; current_flight_dynamics
  03c44	f3 0f 5a 91 9c
	1d 00 00	 cvtss2sd xmm2, DWORD PTR [ecx+7580]
  03c4c	f2 0f 59 ca	 mulsd	 xmm1, xmm2
  03c50	f2 0f 5e c1	 divsd	 xmm0, xmm1
  03c54	f2 0f 10 0d 00
	00 00 00	 movsd	 xmm1, QWORD PTR __real@3fa999999999999a
  03c5c	f2 0f 5c c8	 subsd	 xmm1, xmm0
  03c60	f3 0f 5a 05 00
	00 00 00	 cvtss2sd xmm0, DWORD PTR ?right_g_e_force@@3MA
  03c68	f2 0f 5c c8	 subsd	 xmm1, xmm0
  03c6c	8b 15 00 00 00
	00		 mov	 edx, DWORD PTR ?current_flight_dynamics@@3PAUDYNAMICS_TYPE@@A ; current_flight_dynamics
  03c72	f3 0f 5a 82 90
	00 00 00	 cvtss2sd xmm0, DWORD PTR [edx+144]
  03c7a	f2 0f 59 c8	 mulsd	 xmm1, xmm0
  03c7e	f3 0f 5a 05 00
	00 00 00	 cvtss2sd xmm0, DWORD PTR ?right_g_e_force@@3MA
  03c86	f2 0f 58 c1	 addsd	 xmm0, xmm1
  03c8a	f2 0f 5a c0	 cvtsd2ss xmm0, xmm0
  03c8e	f3 0f 11 05 00
	00 00 00	 movss	 DWORD PTR ?right_g_e_force@@3MA, xmm0

; 2539 : 
; 2540 : 			right_g_e_force = bound (right_g_e_force, 0.0, 0.05);

  03c96	f3 0f 5a 05 00
	00 00 00	 cvtss2sd xmm0, DWORD PTR ?right_g_e_force@@3MA
  03c9e	0f 57 c9	 xorps	 xmm1, xmm1
  03ca1	66 0f 2f c8	 comisd	 xmm1, xmm0
  03ca5	76 0d		 jbe	 SHORT $LN153@update_att
  03ca7	0f 57 c0	 xorps	 xmm0, xmm0
  03caa	f2 0f 11 85 d4
	fc ff ff	 movsd	 QWORD PTR tv1844[ebp], xmm0
  03cb2	eb 44		 jmp	 SHORT $LN154@update_att
$LN153@update_att:
  03cb4	f3 0f 5a 05 00
	00 00 00	 cvtss2sd xmm0, DWORD PTR ?right_g_e_force@@3MA
  03cbc	66 0f 2f 05 00
	00 00 00	 comisd	 xmm0, QWORD PTR __real@3fa999999999999a
  03cc4	76 12		 jbe	 SHORT $LN151@update_att
  03cc6	f2 0f 10 05 00
	00 00 00	 movsd	 xmm0, QWORD PTR __real@3fa999999999999a
  03cce	f2 0f 11 85 cc
	fc ff ff	 movsd	 QWORD PTR tv1843[ebp], xmm0
  03cd6	eb 10		 jmp	 SHORT $LN152@update_att
$LN151@update_att:
  03cd8	f3 0f 5a 05 00
	00 00 00	 cvtss2sd xmm0, DWORD PTR ?right_g_e_force@@3MA
  03ce0	f2 0f 11 85 cc
	fc ff ff	 movsd	 QWORD PTR tv1843[ebp], xmm0
$LN152@update_att:
  03ce8	f2 0f 10 85 cc
	fc ff ff	 movsd	 xmm0, QWORD PTR tv1843[ebp]
  03cf0	f2 0f 11 85 d4
	fc ff ff	 movsd	 QWORD PTR tv1844[ebp], xmm0
$LN154@update_att:
  03cf8	f2 0f 5a 85 d4
	fc ff ff	 cvtsd2ss xmm0, QWORD PTR tv1844[ebp]
  03d00	f3 0f 11 05 00
	00 00 00	 movss	 DWORD PTR ?right_g_e_force@@3MA, xmm0

; 2541 : 
; 2542 : 			if (right_g_e_force > 0.0)

  03d08	f3 0f 5a 05 00
	00 00 00	 cvtss2sd xmm0, DWORD PTR ?right_g_e_force@@3MA
  03d10	66 0f 2f 05 00
	00 00 00	 comisd	 xmm0, QWORD PTR __real@0000000000000000
  03d18	0f 86 d5 00 00
	00		 jbe	 $LN67@update_att

; 2543 : 			{
; 2544 : 
; 2545 : 				right_g_e_force *= tuning_value * main_rotor_induced_air_value;

  03d1e	f3 0f 10 85 ec
	fd ff ff	 movss	 xmm0, DWORD PTR _tuning_value$27[ebp]
  03d26	f3 0f 59 85 74
	ff ff ff	 mulss	 xmm0, DWORD PTR _main_rotor_induced_air_value$[ebp]
  03d2e	f3 0f 59 05 00
	00 00 00	 mulss	 xmm0, DWORD PTR ?right_g_e_force@@3MA
  03d36	f3 0f 11 05 00
	00 00 00	 movss	 DWORD PTR ?right_g_e_force@@3MA, xmm0

; 2546 : 
; 2547 : 				if (current_flight_dynamics->velocity_z.max != 0.0)

  03d3e	a1 00 00 00 00	 mov	 eax, DWORD PTR ?current_flight_dynamics@@3PAUDYNAMICS_TYPE@@A ; current_flight_dynamics
  03d43	f3 0f 5a 80 a8
	20 00 00	 cvtss2sd xmm0, DWORD PTR [eax+8360]
  03d4b	66 0f 2e 05 00
	00 00 00	 ucomisd xmm0, QWORD PTR __real@0000000000000000
  03d53	9f		 lahf
  03d54	f6 c4 44	 test	 ah, 68			; 00000044H
  03d57	7b 4c		 jnp	 SHORT $LN68@update_att

; 2548 : 				{
; 2549 : 
; 2550 : 					right_g_e_force *= (current_flight_dynamics->velocity_z.max - fabs (velocity_z_value)) / current_flight_dynamics->velocity_z.max;

  03d59	51		 push	 ecx
  03d5a	f3 0f 10 85 48
	ff ff ff	 movss	 xmm0, DWORD PTR _velocity_z_value$[ebp]
  03d62	f3 0f 11 04 24	 movss	 DWORD PTR [esp], xmm0
  03d67	e8 00 00 00 00	 call	 ?fabs@@YGMM@Z		; fabs
  03d6c	d9 9d d8 fc ff
	ff		 fstp	 DWORD PTR tv3642[ebp]
  03d72	a1 00 00 00 00	 mov	 eax, DWORD PTR ?current_flight_dynamics@@3PAUDYNAMICS_TYPE@@A ; current_flight_dynamics
  03d77	f3 0f 10 80 a8
	20 00 00	 movss	 xmm0, DWORD PTR [eax+8360]
  03d7f	f3 0f 5c 85 d8
	fc ff ff	 subss	 xmm0, DWORD PTR tv3642[ebp]
  03d87	8b 0d 00 00 00
	00		 mov	 ecx, DWORD PTR ?current_flight_dynamics@@3PAUDYNAMICS_TYPE@@A ; current_flight_dynamics
  03d8d	f3 0f 5e 81 a8
	20 00 00	 divss	 xmm0, DWORD PTR [ecx+8360]
  03d95	f3 0f 59 05 00
	00 00 00	 mulss	 xmm0, DWORD PTR ?right_g_e_force@@3MA
  03d9d	f3 0f 11 05 00
	00 00 00	 movss	 DWORD PTR ?right_g_e_force@@3MA, xmm0
$LN68@update_att:

; 2551 : 				}
; 2552 : 
; 2553 : 				#if DEBUG_MODULE
; 2554 : 
; 2555 : 				debug_log ("DYNAMICS: IGE right force %f, alt %f, y %f, el %f, x %f, z %f",
; 2556 : 								right_g_e_force, altitude, current_flight_dynamics->position.y,
; 2557 : 								get_3d_terrain_point_data_elevation (&terrain_info), world_position.x, world_position.z);
; 2558 : 
; 2559 : 				create_vectored_debug_3d_object (&world_position, &direction, OBJECT_3D_ARROW_FORCES, 0, 20.0 * right_g_e_force);
; 2560 : 
; 2561 : 				#endif
; 2562 : 
; 2563 : 				right_g_e_force *= current_flight_dynamics->ground_effect.modifier;

  03da5	a1 00 00 00 00	 mov	 eax, DWORD PTR ?current_flight_dynamics@@3PAUDYNAMICS_TYPE@@A ; current_flight_dynamics
  03daa	f3 0f 10 05 00
	00 00 00	 movss	 xmm0, DWORD PTR ?right_g_e_force@@3MA
  03db2	f3 0f 59 80 e0
	23 00 00	 mulss	 xmm0, DWORD PTR [eax+9184]
  03dba	f3 0f 11 05 00
	00 00 00	 movss	 DWORD PTR ?right_g_e_force@@3MA, xmm0

; 2564 : 
; 2565 : 				add_dynamic_force ("Right rotor Ground effect", right_g_e_force, 0.0, &position, &direction, FALSE);

  03dc2	6a 00		 push	 0
  03dc4	8d 85 10 ff ff
	ff		 lea	 eax, DWORD PTR _direction$[ebp]
  03dca	50		 push	 eax
  03dcb	8d 8d 1c ff ff
	ff		 lea	 ecx, DWORD PTR _position$[ebp]
  03dd1	51		 push	 ecx
  03dd2	51		 push	 ecx
  03dd3	0f 57 c0	 xorps	 xmm0, xmm0
  03dd6	f3 0f 11 04 24	 movss	 DWORD PTR [esp], xmm0
  03ddb	51		 push	 ecx
  03ddc	f3 0f 10 05 00
	00 00 00	 movss	 xmm0, DWORD PTR ?right_g_e_force@@3MA
  03de4	f3 0f 11 04 24	 movss	 DWORD PTR [esp], xmm0
  03de9	68 00 00 00 00	 push	 OFFSET ??_C@_0BK@ONPBLKKA@Right?5rotor?5Ground?5effect@
  03dee	e8 00 00 00 00	 call	 ?add_dynamic_force@@YGXPBDMMPAUVEC3D@@1H@Z ; add_dynamic_force
$LN67@update_att:

; 2566 : 			}
; 2567 : 		}
; 2568 : 	}
; 2569 : 	////////////////////////////////////////////
; 2570 : 	// Vortex ring
; 2571 : 	////////////////////////////////////////////
; 2572 : 	if ((!model_landed) &&
; 2573 : 		(get_current_dynamics_options (DYNAMICS_OPTIONS_VORTEX_RING)) &&

  03df3	83 7d fc 00	 cmp	 DWORD PTR _model_landed$[ebp], 0
  03df7	0f 85 ee 02 00
	00		 jne	 $LN71@update_att
  03dfd	6a 0b		 push	 11			; 0000000bH
  03dff	e8 00 00 00 00	 call	 ?get_current_dynamics_options@@YGHW4DYNAMICS_OPTIONS_TYPES@@@Z ; get_current_dynamics_options
  03e04	85 c0		 test	 eax, eax
  03e06	0f 84 df 02 00
	00		 je	 $LN71@update_att
  03e0c	a1 00 00 00 00	 mov	 eax, DWORD PTR ?current_flight_dynamics@@3PAUDYNAMICS_TYPE@@A ; current_flight_dynamics
  03e11	8b 88 24 25 00
	00		 mov	 ecx, DWORD PTR [eax+9508]
  03e17	83 e1 02	 and	 ecx, 2
  03e1a	0f 85 cb 02 00
	00		 jne	 $LN71@update_att

; 2574 : 		(!(current_flight_dynamics->dynamics_damage & DYNAMICS_DAMAGE_MAIN_ROTOR)))
; 2575 : 	{
; 2576 : 		float air_over_rotor = -fabs(main_rotor_induced_air_value) - model_motion_vector.y;

  03e20	51		 push	 ecx
  03e21	f3 0f 10 85 74
	ff ff ff	 movss	 xmm0, DWORD PTR _main_rotor_induced_air_value$[ebp]
  03e29	f3 0f 11 04 24	 movss	 DWORD PTR [esp], xmm0
  03e2e	e8 00 00 00 00	 call	 ?fabs@@YGMM@Z		; fabs
  03e33	d9 9d d8 fc ff
	ff		 fstp	 DWORD PTR tv3663[ebp]
  03e39	f3 0f 10 85 d8
	fc ff ff	 movss	 xmm0, DWORD PTR tv3663[ebp]
  03e41	0f 57 05 00 00
	00 00		 xorps	 xmm0, DWORD PTR __xmm@80000000800000008000000080000000
  03e48	f3 0f 5c 85 f0
	fe ff ff	 subss	 xmm0, DWORD PTR _model_motion_vector$[ebp+4]
  03e50	f3 0f 11 85 e8
	fd ff ff	 movss	 DWORD PTR _air_over_rotor$26[ebp], xmm0

; 2577 : 		float vibration_limit = -fabs(main_rotor_induced_air_value) - model_motion_vector.y * 0.6;

  03e58	51		 push	 ecx
  03e59	f3 0f 10 85 74
	ff ff ff	 movss	 xmm0, DWORD PTR _main_rotor_induced_air_value$[ebp]
  03e61	f3 0f 11 04 24	 movss	 DWORD PTR [esp], xmm0
  03e66	e8 00 00 00 00	 call	 ?fabs@@YGMM@Z		; fabs
  03e6b	d9 9d d8 fc ff
	ff		 fstp	 DWORD PTR tv3669[ebp]
  03e71	f3 0f 10 85 d8
	fc ff ff	 movss	 xmm0, DWORD PTR tv3669[ebp]
  03e79	0f 57 05 00 00
	00 00		 xorps	 xmm0, DWORD PTR __xmm@80000000800000008000000080000000
  03e80	f3 0f 5a c0	 cvtss2sd xmm0, xmm0
  03e84	f3 0f 5a 8d f0
	fe ff ff	 cvtss2sd xmm1, DWORD PTR _model_motion_vector$[ebp+4]
  03e8c	f2 0f 59 0d 00
	00 00 00	 mulsd	 xmm1, QWORD PTR __real@3fe3333333333333
  03e94	f2 0f 5c c1	 subsd	 xmm0, xmm1
  03e98	f2 0f 5a c0	 cvtsd2ss xmm0, xmm0
  03e9c	f3 0f 11 85 e4
	fd ff ff	 movss	 DWORD PTR _vibration_limit$25[ebp], xmm0

; 2578 : 		float velocity_factor = max (((current_flight_dynamics->main_rotor_induced_vortex_air_flow.min -

  03ea4	0f 57 c0	 xorps	 xmm0, xmm0
  03ea7	f3 0f 11 85 f0
	fc ff ff	 movss	 DWORD PTR $T6[ebp], xmm0
  03eaf	51		 push	 ecx
  03eb0	f3 0f 10 85 f4
	fe ff ff	 movss	 xmm0, DWORD PTR _model_motion_vector$[ebp+8]
  03eb8	f3 0f 11 04 24	 movss	 DWORD PTR [esp], xmm0
  03ebd	e8 00 00 00 00	 call	 ?fabs@@YGMM@Z		; fabs
  03ec2	d9 9d d8 fc ff
	ff		 fstp	 DWORD PTR tv3676[ebp]
  03ec8	a1 00 00 00 00	 mov	 eax, DWORD PTR ?current_flight_dynamics@@3PAUDYNAMICS_TYPE@@A ; current_flight_dynamics
  03ecd	f3 0f 10 80 8c
	1d 00 00	 movss	 xmm0, DWORD PTR [eax+7564]
  03ed5	f3 0f 5c 85 d8
	fc ff ff	 subss	 xmm0, DWORD PTR tv3676[ebp]
  03edd	8b 0d 00 00 00
	00		 mov	 ecx, DWORD PTR ?current_flight_dynamics@@3PAUDYNAMICS_TYPE@@A ; current_flight_dynamics
  03ee3	f3 0f 5e 81 8c
	1d 00 00	 divss	 xmm0, DWORD PTR [ecx+7564]
  03eeb	f3 0f 11 85 ec
	fc ff ff	 movss	 DWORD PTR $T5[ebp], xmm0
  03ef3	8d 95 f0 fc ff
	ff		 lea	 edx, DWORD PTR $T6[ebp]
  03ef9	52		 push	 edx
  03efa	8d 85 ec fc ff
	ff		 lea	 eax, DWORD PTR $T5[ebp]
  03f00	50		 push	 eax
  03f01	e8 00 00 00 00	 call	 ??$max@M@std@@YGABMABM0@Z ; std::max<float>
  03f06	f3 0f 10 00	 movss	 xmm0, DWORD PTR [eax]
  03f0a	f3 0f 11 85 e0
	fd ff ff	 movss	 DWORD PTR _velocity_factor$24[ebp], xmm0

; 2579 : 					   fabs (model_motion_vector.z)) / current_flight_dynamics->main_rotor_induced_vortex_air_flow.min), 0.0f);
; 2580 : 
; 2581 : 		// arneh - create vibration when close to vortex ring state
; 2582 : 		if (vibration_limit > 0.0 && !(current_flight_dynamics->dynamics_damage & DYNAMICS_DAMAGE_MAIN_ROTOR_BLADE) && velocity_factor > 0.0)

  03f12	f3 0f 5a 85 e4
	fd ff ff	 cvtss2sd xmm0, DWORD PTR _vibration_limit$25[ebp]
  03f1a	66 0f 2f 05 00
	00 00 00	 comisd	 xmm0, QWORD PTR __real@0000000000000000
  03f22	0f 86 de 00 00
	00		 jbe	 $LN70@update_att
  03f28	a1 00 00 00 00	 mov	 eax, DWORD PTR ?current_flight_dynamics@@3PAUDYNAMICS_TYPE@@A ; current_flight_dynamics
  03f2d	8b 88 24 25 00
	00		 mov	 ecx, DWORD PTR [eax+9508]
  03f33	81 e1 00 00 01
	00		 and	 ecx, 65536		; 00010000H
  03f39	0f 85 c7 00 00
	00		 jne	 $LN70@update_att
  03f3f	f3 0f 5a 85 e0
	fd ff ff	 cvtss2sd xmm0, DWORD PTR _velocity_factor$24[ebp]
  03f47	66 0f 2f 05 00
	00 00 00	 comisd	 xmm0, QWORD PTR __real@0000000000000000
  03f4f	0f 86 b1 00 00
	00		 jbe	 $LN70@update_att

; 2583 : 			create_rotor_vibration(bound(vibration_limit * 0.3 * velocity_factor, 0.0, 1.0));

  03f55	f3 0f 5a 85 e4
	fd ff ff	 cvtss2sd xmm0, DWORD PTR _vibration_limit$25[ebp]
  03f5d	f2 0f 59 05 00
	00 00 00	 mulsd	 xmm0, QWORD PTR __real@3fd3333333333333
  03f65	f3 0f 5a 8d e0
	fd ff ff	 cvtss2sd xmm1, DWORD PTR _velocity_factor$24[ebp]
  03f6d	f2 0f 59 c1	 mulsd	 xmm0, xmm1
  03f71	0f 57 c9	 xorps	 xmm1, xmm1
  03f74	66 0f 2f c8	 comisd	 xmm1, xmm0
  03f78	76 0d		 jbe	 SHORT $LN157@update_att
  03f7a	0f 57 c0	 xorps	 xmm0, xmm0
  03f7d	f2 0f 11 85 d4
	fc ff ff	 movsd	 QWORD PTR tv1925[ebp], xmm0
  03f85	eb 6c		 jmp	 SHORT $LN158@update_att
$LN157@update_att:
  03f87	f3 0f 5a 85 e4
	fd ff ff	 cvtss2sd xmm0, DWORD PTR _vibration_limit$25[ebp]
  03f8f	f2 0f 59 05 00
	00 00 00	 mulsd	 xmm0, QWORD PTR __real@3fd3333333333333
  03f97	f3 0f 5a 8d e0
	fd ff ff	 cvtss2sd xmm1, DWORD PTR _velocity_factor$24[ebp]
  03f9f	f2 0f 59 c1	 mulsd	 xmm0, xmm1
  03fa3	66 0f 2f 05 00
	00 00 00	 comisd	 xmm0, QWORD PTR __real@3ff0000000000000
  03fab	76 12		 jbe	 SHORT $LN155@update_att
  03fad	f2 0f 10 05 00
	00 00 00	 movsd	 xmm0, QWORD PTR __real@3ff0000000000000
  03fb5	f2 0f 11 85 cc
	fc ff ff	 movsd	 QWORD PTR tv1924[ebp], xmm0
  03fbd	eb 24		 jmp	 SHORT $LN156@update_att
$LN155@update_att:
  03fbf	f3 0f 5a 85 e4
	fd ff ff	 cvtss2sd xmm0, DWORD PTR _vibration_limit$25[ebp]
  03fc7	f2 0f 59 05 00
	00 00 00	 mulsd	 xmm0, QWORD PTR __real@3fd3333333333333
  03fcf	f3 0f 5a 8d e0
	fd ff ff	 cvtss2sd xmm1, DWORD PTR _velocity_factor$24[ebp]
  03fd7	f2 0f 59 c1	 mulsd	 xmm0, xmm1
  03fdb	f2 0f 11 85 cc
	fc ff ff	 movsd	 QWORD PTR tv1924[ebp], xmm0
$LN156@update_att:
  03fe3	f2 0f 10 85 cc
	fc ff ff	 movsd	 xmm0, QWORD PTR tv1924[ebp]
  03feb	f2 0f 11 85 d4
	fc ff ff	 movsd	 QWORD PTR tv1925[ebp], xmm0
$LN158@update_att:
  03ff3	f2 0f 5a 85 d4
	fc ff ff	 cvtsd2ss xmm0, QWORD PTR tv1925[ebp]
  03ffb	51		 push	 ecx
  03ffc	f3 0f 11 04 24	 movss	 DWORD PTR [esp], xmm0
  04001	e8 00 00 00 00	 call	 ?create_rotor_vibration@@YGXM@Z ; create_rotor_vibration
$LN70@update_att:

; 2584 : 
; 2585 : 		if (air_over_rotor > 0.0)     //model_motion_vector.y < -fabs (main_rotor_induced_air_value))

  04006	f3 0f 5a 85 e8
	fd ff ff	 cvtss2sd xmm0, DWORD PTR _air_over_rotor$26[ebp]
  0400e	66 0f 2f 05 00
	00 00 00	 comisd	 xmm0, QWORD PTR __real@0000000000000000
  04016	0f 86 cf 00 00
	00		 jbe	 $LN71@update_att

; 2586 : 		{
; 2587 : 
; 2588 : 			force = current_flight_dynamics->main_rotor_induced_vortex_air_flow.modifier * fabs (main_rotor_induced_air_value) * velocity_factor;

  0401c	51		 push	 ecx
  0401d	f3 0f 10 85 74
	ff ff ff	 movss	 xmm0, DWORD PTR _main_rotor_induced_air_value$[ebp]
  04025	f3 0f 11 04 24	 movss	 DWORD PTR [esp], xmm0
  0402a	e8 00 00 00 00	 call	 ?fabs@@YGMM@Z		; fabs
  0402f	d9 9d d8 fc ff
	ff		 fstp	 DWORD PTR tv3696[ebp]
  04035	a1 00 00 00 00	 mov	 eax, DWORD PTR ?current_flight_dynamics@@3PAUDYNAMICS_TYPE@@A ; current_flight_dynamics
  0403a	f3 0f 10 85 d8
	fc ff ff	 movss	 xmm0, DWORD PTR tv3696[ebp]
  04042	f3 0f 59 80 80
	1d 00 00	 mulss	 xmm0, DWORD PTR [eax+7552]
  0404a	f3 0f 59 85 e0
	fd ff ff	 mulss	 xmm0, DWORD PTR _velocity_factor$24[ebp]
  04052	f3 0f 11 45 98	 movss	 DWORD PTR _force$[ebp], xmm0

; 2589 : 
; 2590 : 			force *= deg (current_flight_dynamics->main_blade_pitch.value);

  04057	a1 00 00 00 00	 mov	 eax, DWORD PTR ?current_flight_dynamics@@3PAUDYNAMICS_TYPE@@A ; current_flight_dynamics
  0405c	f3 0f 10 80 8c
	1e 00 00	 movss	 xmm0, DWORD PTR [eax+7820]
  04064	f3 0f 59 05 00
	00 00 00	 mulss	 xmm0, DWORD PTR __real@42652ee0
  0406c	f3 0f 59 45 98	 mulss	 xmm0, DWORD PTR _force$[ebp]
  04071	f3 0f 11 45 98	 movss	 DWORD PTR _force$[ebp], xmm0

; 2591 : 
; 2592 : 			position.x = 0.0;

  04076	0f 57 c0	 xorps	 xmm0, xmm0
  04079	f3 0f 11 85 1c
	ff ff ff	 movss	 DWORD PTR _position$[ebp], xmm0

; 2593 : 			position.y = 0.0;

  04081	0f 57 c0	 xorps	 xmm0, xmm0
  04084	f3 0f 11 85 20
	ff ff ff	 movss	 DWORD PTR _position$[ebp+4], xmm0

; 2594 : 			position.z = 0.0;

  0408c	0f 57 c0	 xorps	 xmm0, xmm0
  0408f	f3 0f 11 85 24
	ff ff ff	 movss	 DWORD PTR _position$[ebp+8], xmm0

; 2595 : 
; 2596 : 			direction.x = 0.0;

  04097	0f 57 c0	 xorps	 xmm0, xmm0
  0409a	f3 0f 11 85 10
	ff ff ff	 movss	 DWORD PTR _direction$[ebp], xmm0

; 2597 : 			direction.y = -1.0;

  040a2	f3 0f 10 05 00
	00 00 00	 movss	 xmm0, DWORD PTR __real@bf800000
  040aa	f3 0f 11 85 14
	ff ff ff	 movss	 DWORD PTR _direction$[ebp+4], xmm0

; 2598 : 			direction.z = 0.0;

  040b2	0f 57 c0	 xorps	 xmm0, xmm0
  040b5	f3 0f 11 85 18
	ff ff ff	 movss	 DWORD PTR _direction$[ebp+8], xmm0

; 2599 : 
; 2600 : 			add_dynamic_force ("Vortex ring force", force, 0.0, &position, &direction, FALSE);

  040bd	6a 00		 push	 0
  040bf	8d 85 10 ff ff
	ff		 lea	 eax, DWORD PTR _direction$[ebp]
  040c5	50		 push	 eax
  040c6	8d 8d 1c ff ff
	ff		 lea	 ecx, DWORD PTR _position$[ebp]
  040cc	51		 push	 ecx
  040cd	51		 push	 ecx
  040ce	0f 57 c0	 xorps	 xmm0, xmm0
  040d1	f3 0f 11 04 24	 movss	 DWORD PTR [esp], xmm0
  040d6	51		 push	 ecx
  040d7	f3 0f 10 45 98	 movss	 xmm0, DWORD PTR _force$[ebp]
  040dc	f3 0f 11 04 24	 movss	 DWORD PTR [esp], xmm0
  040e1	68 00 00 00 00	 push	 OFFSET ??_C@_0BC@MPODPIKD@Vortex?5ring?5force@
  040e6	e8 00 00 00 00	 call	 ?add_dynamic_force@@YGXPBDMMPAUVEC3D@@1H@Z ; add_dynamic_force
$LN71@update_att:

; 2601 : 		}
; 2602 : 	}
; 2603 : 
; 2604 : 	////////////////////////////////////////////
; 2605 : 	// Wind
; 2606 : 	////////////////////////////////////////////
; 2607 : 	if ((!model_landed) &&
; 2608 : 		(get_current_dynamics_options (DYNAMICS_OPTIONS_WIND)) &&

  040eb	83 7d fc 00	 cmp	 DWORD PTR _model_landed$[ebp], 0
  040ef	0f 85 ab 01 00
	00		 jne	 $LN72@update_att
  040f5	6a 0c		 push	 12			; 0000000cH
  040f7	e8 00 00 00 00	 call	 ?get_current_dynamics_options@@YGHW4DYNAMICS_OPTIONS_TYPES@@@Z ; get_current_dynamics_options
  040fc	85 c0		 test	 eax, eax
  040fe	0f 84 9c 01 00
	00		 je	 $LN72@update_att
  04104	a1 00 00 00 00	 mov	 eax, DWORD PTR ?current_flight_dynamics@@3PAUDYNAMICS_TYPE@@A ; current_flight_dynamics
  04109	8b 88 24 25 00
	00		 mov	 ecx, DWORD PTR [eax+9508]
  0410f	83 e1 02	 and	 ecx, 2
  04112	0f 85 88 01 00
	00		 jne	 $LN72@update_att

; 2609 : 		(!(current_flight_dynamics->dynamics_damage & DYNAMICS_DAMAGE_MAIN_ROTOR)))
; 2610 : 	{
; 2611 : 
; 2612 : 		static float
; 2613 : 			force = 0.0,
; 2614 : 			desired_force = 0.0;
; 2615 : 
; 2616 : 		position.x = current_flight_dynamics->position.x;

  04118	a1 00 00 00 00	 mov	 eax, DWORD PTR ?current_flight_dynamics@@3PAUDYNAMICS_TYPE@@A ; current_flight_dynamics
  0411d	f2 0f 5a 80 ac
	00 00 00	 cvtsd2ss xmm0, QWORD PTR [eax+172]
  04125	f3 0f 11 85 1c
	ff ff ff	 movss	 DWORD PTR _position$[ebp], xmm0

; 2617 : 		position.y = current_flight_dynamics->position.y;

  0412d	a1 00 00 00 00	 mov	 eax, DWORD PTR ?current_flight_dynamics@@3PAUDYNAMICS_TYPE@@A ; current_flight_dynamics
  04132	f2 0f 5a 80 b4
	00 00 00	 cvtsd2ss xmm0, QWORD PTR [eax+180]
  0413a	f3 0f 11 85 20
	ff ff ff	 movss	 DWORD PTR _position$[ebp+4], xmm0

; 2618 : 		position.z = current_flight_dynamics->position.z;

  04142	a1 00 00 00 00	 mov	 eax, DWORD PTR ?current_flight_dynamics@@3PAUDYNAMICS_TYPE@@A ; current_flight_dynamics
  04147	f2 0f 5a 80 bc
	00 00 00	 cvtsd2ss xmm0, QWORD PTR [eax+188]
  0414f	f3 0f 11 85 24
	ff ff ff	 movss	 DWORD PTR _position$[ebp+8], xmm0

; 2619 : 
; 2620 : 		get_session_wind_velocity_at_point (&position, &direction);

  04157	8d 85 10 ff ff
	ff		 lea	 eax, DWORD PTR _direction$[ebp]
  0415d	50		 push	 eax
  0415e	8d 8d 1c ff ff
	ff		 lea	 ecx, DWORD PTR _position$[ebp]
  04164	51		 push	 ecx
  04165	e8 00 00 00 00	 call	 ?get_session_wind_velocity_at_point@@YGMPAUVEC3D@@0@Z ; get_session_wind_velocity_at_point
  0416a	dd d8		 fstp	 ST(0)

; 2621 : 
; 2622 : 		position.x = current_flight_dynamics->rotation_origin.x;

  0416c	a1 00 00 00 00	 mov	 eax, DWORD PTR ?current_flight_dynamics@@3PAUDYNAMICS_TYPE@@A ; current_flight_dynamics
  04171	f3 0f 10 80 c4
	00 00 00	 movss	 xmm0, DWORD PTR [eax+196]
  04179	f3 0f 11 85 1c
	ff ff ff	 movss	 DWORD PTR _position$[ebp], xmm0

; 2623 : 		position.y = current_flight_dynamics->rotation_origin.y;

  04181	a1 00 00 00 00	 mov	 eax, DWORD PTR ?current_flight_dynamics@@3PAUDYNAMICS_TYPE@@A ; current_flight_dynamics
  04186	f3 0f 10 80 c8
	00 00 00	 movss	 xmm0, DWORD PTR [eax+200]
  0418e	f3 0f 11 85 20
	ff ff ff	 movss	 DWORD PTR _position$[ebp+4], xmm0

; 2624 : 		position.z = current_flight_dynamics->rotation_origin.z;

  04196	a1 00 00 00 00	 mov	 eax, DWORD PTR ?current_flight_dynamics@@3PAUDYNAMICS_TYPE@@A ; current_flight_dynamics
  0419b	f3 0f 10 80 cc
	00 00 00	 movss	 xmm0, DWORD PTR [eax+204]
  041a3	f3 0f 11 85 24
	ff ff ff	 movss	 DWORD PTR _position$[ebp+8], xmm0

; 2625 : 
; 2626 : 		multiply_transpose_matrix3x3_vec3d (&direction, attitude, &direction);

  041ab	8d 85 10 ff ff
	ff		 lea	 eax, DWORD PTR _direction$[ebp]
  041b1	50		 push	 eax
  041b2	8d 4d b4	 lea	 ecx, DWORD PTR _attitude$[ebp]
  041b5	51		 push	 ecx
  041b6	8d 95 10 ff ff
	ff		 lea	 edx, DWORD PTR _direction$[ebp]
  041bc	52		 push	 edx
  041bd	e8 00 00 00 00	 call	 ?multiply_transpose_matrix3x3_vec3d@@YGXPAUVEC3D@@QAY02$$CBMPBU1@@Z ; multiply_transpose_matrix3x3_vec3d

; 2627 : 
; 2628 : 		force += (desired_force - force) * get_model_delta_time ();

  041c2	f3 0f 10 05 00
	00 00 00	 movss	 xmm0, DWORD PTR ?desired_force@?NB@??update_attitude_dynamics@@YGXXZ@4MA
  041ca	f3 0f 5c 05 00
	00 00 00	 subss	 xmm0, DWORD PTR ?force@?NB@??update_attitude_dynamics@@YGXXZ@4MA
  041d2	a1 00 00 00 00	 mov	 eax, DWORD PTR ?current_flight_dynamics@@3PAUDYNAMICS_TYPE@@A ; current_flight_dynamics
  041d7	f3 0f 59 80 90
	00 00 00	 mulss	 xmm0, DWORD PTR [eax+144]
  041df	f3 0f 58 05 00
	00 00 00	 addss	 xmm0, DWORD PTR ?force@?NB@??update_attitude_dynamics@@YGXXZ@4MA
  041e7	f3 0f 11 05 00
	00 00 00	 movss	 DWORD PTR ?force@?NB@??update_attitude_dynamics@@YGXXZ@4MA, xmm0

; 2629 : 
; 2630 : 		if ((fabs (force - desired_force) < 0.001))

  041ef	f3 0f 10 05 00
	00 00 00	 movss	 xmm0, DWORD PTR ?force@?NB@??update_attitude_dynamics@@YGXXZ@4MA
  041f7	f3 0f 5c 05 00
	00 00 00	 subss	 xmm0, DWORD PTR ?desired_force@?NB@??update_attitude_dynamics@@YGXXZ@4MA
  041ff	51		 push	 ecx
  04200	f3 0f 11 04 24	 movss	 DWORD PTR [esp], xmm0
  04205	e8 00 00 00 00	 call	 ?fabs@@YGMM@Z		; fabs
  0420a	dd 9d d4 fc ff
	ff		 fstp	 QWORD PTR tv3740[ebp]
  04210	f2 0f 10 05 00
	00 00 00	 movsd	 xmm0, QWORD PTR __real@3f50624dd2f1a9fc
  04218	66 0f 2f 85 d4
	fc ff ff	 comisd	 xmm0, QWORD PTR tv3740[ebp]
  04220	76 4d		 jbe	 SHORT $LN73@update_att

; 2631 : 		{
; 2632 : 
; 2633 : 			desired_force = frand1 () * get_model_delta_time ();

  04222	69 05 00 00 00
	00 6d 4e c6 41	 imul	 eax, DWORD PTR ?random_number_seed@@3HA, 1103515245 ; random_number_seed
  0422c	05 39 30 00 00	 add	 eax, 12345		; 00003039H
  04231	a3 00 00 00 00	 mov	 DWORD PTR ?random_number_seed@@3HA, eax ; random_number_seed
  04236	8b 0d 00 00 00
	00		 mov	 ecx, DWORD PTR ?random_number_seed@@3HA ; random_number_seed
  0423c	c1 f9 10	 sar	 ecx, 16			; 00000010H
  0423f	81 e1 ff 7f 00
	00		 and	 ecx, 32767		; 00007fffH
  04245	f2 0f 2a c1	 cvtsi2sd xmm0, ecx
  04249	f2 0f 59 05 00
	00 00 00	 mulsd	 xmm0, QWORD PTR __real@3f00002000400080
  04251	8b 15 00 00 00
	00		 mov	 edx, DWORD PTR ?current_flight_dynamics@@3PAUDYNAMICS_TYPE@@A ; current_flight_dynamics
  04257	f3 0f 5a 8a 90
	00 00 00	 cvtss2sd xmm1, DWORD PTR [edx+144]
  0425f	f2 0f 59 c1	 mulsd	 xmm0, xmm1
  04263	f2 0f 5a c0	 cvtsd2ss xmm0, xmm0
  04267	f3 0f 11 05 00
	00 00 00	 movss	 DWORD PTR ?desired_force@?NB@??update_attitude_dynamics@@YGXXZ@4MA, xmm0
$LN73@update_att:

; 2634 : 		}
; 2635 : 
; 2636 : 		add_dynamic_force ("Wind", force, 0.0, &position, &direction, FALSE);

  0426f	6a 00		 push	 0
  04271	8d 85 10 ff ff
	ff		 lea	 eax, DWORD PTR _direction$[ebp]
  04277	50		 push	 eax
  04278	8d 8d 1c ff ff
	ff		 lea	 ecx, DWORD PTR _position$[ebp]
  0427e	51		 push	 ecx
  0427f	51		 push	 ecx
  04280	0f 57 c0	 xorps	 xmm0, xmm0
  04283	f3 0f 11 04 24	 movss	 DWORD PTR [esp], xmm0
  04288	51		 push	 ecx
  04289	f3 0f 10 05 00
	00 00 00	 movss	 xmm0, DWORD PTR ?force@?NB@??update_attitude_dynamics@@YGXXZ@4MA
  04291	f3 0f 11 04 24	 movss	 DWORD PTR [esp], xmm0
  04296	68 00 00 00 00	 push	 OFFSET ??_C@_04LGBIOLDJ@Wind@
  0429b	e8 00 00 00 00	 call	 ?add_dynamic_force@@YGXPBDMMPAUVEC3D@@1H@Z ; add_dynamic_force
$LN72@update_att:

; 2637 : 	}
; 2638 : 	////////////////////////////////////////////
; 2639 : 
; 2640 : 	// If colliding with something, then the collision will move the helicopter. Combined with gravity
; 2641 : 	// and no drag this can make the helicopter fall down hillsides very rapidly.  So add some "friction"
; 2642 : 	// so it won't move as fast.
; 2643 : 	if (fixed_collision_count || moving_collision_count)

  042a0	83 3d 00 00 00
	00 00		 cmp	 DWORD PTR ?fixed_collision_count@@3HA, 0 ; fixed_collision_count
  042a7	75 0d		 jne	 SHORT $LN75@update_att
  042a9	83 3d 00 00 00
	00 00		 cmp	 DWORD PTR ?moving_collision_count@@3HA, 0 ; moving_collision_count
  042b0	0f 84 3f 01 00
	00		 je	 $LN74@update_att
$LN75@update_att:

; 2644 : 	{
; 2645 : 
; 2646 : 		float
; 2647 : 			force;
; 2648 : 
; 2649 : 		vec3d
; 2650 : 			direction,
; 2651 : 			position;
; 2652 : 
; 2653 : 		direction = current_flight_dynamics->model_motion_vector;

  042b6	a1 00 00 00 00	 mov	 eax, DWORD PTR ?current_flight_dynamics@@3PAUDYNAMICS_TYPE@@A ; current_flight_dynamics
  042bb	05 30 1c 00 00	 add	 eax, 7216		; 00001c30H
  042c0	8b 08		 mov	 ecx, DWORD PTR [eax]
  042c2	89 8d d0 fd ff
	ff		 mov	 DWORD PTR _direction$22[ebp], ecx
  042c8	8b 50 04	 mov	 edx, DWORD PTR [eax+4]
  042cb	89 95 d4 fd ff
	ff		 mov	 DWORD PTR _direction$22[ebp+4], edx
  042d1	8b 40 08	 mov	 eax, DWORD PTR [eax+8]
  042d4	89 85 d8 fd ff
	ff		 mov	 DWORD PTR _direction$22[ebp+8], eax

; 2654 : 
; 2655 : 		direction.x += current_flight_dynamics->model_acceleration_vector.x * get_model_delta_time ();

  042da	a1 00 00 00 00	 mov	 eax, DWORD PTR ?current_flight_dynamics@@3PAUDYNAMICS_TYPE@@A ; current_flight_dynamics
  042df	8b 0d 00 00 00
	00		 mov	 ecx, DWORD PTR ?current_flight_dynamics@@3PAUDYNAMICS_TYPE@@A ; current_flight_dynamics
  042e5	f3 0f 10 80 48
	1c 00 00	 movss	 xmm0, DWORD PTR [eax+7240]
  042ed	f3 0f 59 81 90
	00 00 00	 mulss	 xmm0, DWORD PTR [ecx+144]
  042f5	f3 0f 58 85 d0
	fd ff ff	 addss	 xmm0, DWORD PTR _direction$22[ebp]
  042fd	f3 0f 11 85 d0
	fd ff ff	 movss	 DWORD PTR _direction$22[ebp], xmm0

; 2656 : 		direction.y += current_flight_dynamics->model_acceleration_vector.y * get_model_delta_time ();

  04305	a1 00 00 00 00	 mov	 eax, DWORD PTR ?current_flight_dynamics@@3PAUDYNAMICS_TYPE@@A ; current_flight_dynamics
  0430a	8b 0d 00 00 00
	00		 mov	 ecx, DWORD PTR ?current_flight_dynamics@@3PAUDYNAMICS_TYPE@@A ; current_flight_dynamics
  04310	f3 0f 10 80 4c
	1c 00 00	 movss	 xmm0, DWORD PTR [eax+7244]
  04318	f3 0f 59 81 90
	00 00 00	 mulss	 xmm0, DWORD PTR [ecx+144]
  04320	f3 0f 58 85 d4
	fd ff ff	 addss	 xmm0, DWORD PTR _direction$22[ebp+4]
  04328	f3 0f 11 85 d4
	fd ff ff	 movss	 DWORD PTR _direction$22[ebp+4], xmm0

; 2657 : 		direction.z += current_flight_dynamics->model_acceleration_vector.z * get_model_delta_time ();

  04330	a1 00 00 00 00	 mov	 eax, DWORD PTR ?current_flight_dynamics@@3PAUDYNAMICS_TYPE@@A ; current_flight_dynamics
  04335	8b 0d 00 00 00
	00		 mov	 ecx, DWORD PTR ?current_flight_dynamics@@3PAUDYNAMICS_TYPE@@A ; current_flight_dynamics
  0433b	f3 0f 10 80 50
	1c 00 00	 movss	 xmm0, DWORD PTR [eax+7248]
  04343	f3 0f 59 81 90
	00 00 00	 mulss	 xmm0, DWORD PTR [ecx+144]
  0434b	f3 0f 58 85 d8
	fd ff ff	 addss	 xmm0, DWORD PTR _direction$22[ebp+8]
  04353	f3 0f 11 85 d8
	fd ff ff	 movss	 DWORD PTR _direction$22[ebp+8], xmm0

; 2658 : 
; 2659 : 		force = 3.0 * get_3d_vector_magnitude(&direction);// / get_model_delta_time ();

  0435b	8d 85 d0 fd ff
	ff		 lea	 eax, DWORD PTR _direction$22[ebp]
  04361	50		 push	 eax
  04362	e8 00 00 00 00	 call	 ?get_3d_vector_magnitude@@YGMPBUVEC3D@@@Z ; get_3d_vector_magnitude
  04367	dd 9d d4 fc ff
	ff		 fstp	 QWORD PTR tv3808[ebp]
  0436d	f2 0f 10 85 d4
	fc ff ff	 movsd	 xmm0, QWORD PTR tv3808[ebp]
  04375	f2 0f 59 05 00
	00 00 00	 mulsd	 xmm0, QWORD PTR __real@4008000000000000
  0437d	f2 0f 5a c0	 cvtsd2ss xmm0, xmm0
  04381	f3 0f 11 85 dc
	fd ff ff	 movss	 DWORD PTR _force$23[ebp], xmm0

; 2660 : 
; 2661 : 		invert_3d_vector (&direction);

  04389	8d 85 d0 fd ff
	ff		 lea	 eax, DWORD PTR _direction$22[ebp]
  0438f	50		 push	 eax
  04390	e8 00 00 00 00	 call	 ?invert_3d_vector@@YGXPAUVEC3D@@@Z ; invert_3d_vector

; 2662 : 
; 2663 : 		normalise_any_3d_vector (&direction);

  04395	8d 85 d0 fd ff
	ff		 lea	 eax, DWORD PTR _direction$22[ebp]
  0439b	50		 push	 eax
  0439c	e8 00 00 00 00	 call	 ?normalise_any_3d_vector@@YGMPAUVEC3D@@@Z ; normalise_any_3d_vector
  043a1	dd d8		 fstp	 ST(0)

; 2664 : 
; 2665 : 		position.x = 0.0;

  043a3	0f 57 c0	 xorps	 xmm0, xmm0
  043a6	f3 0f 11 85 c4
	fd ff ff	 movss	 DWORD PTR _position$21[ebp], xmm0

; 2666 : 		position.y = 0.0;

  043ae	0f 57 c0	 xorps	 xmm0, xmm0
  043b1	f3 0f 11 85 c8
	fd ff ff	 movss	 DWORD PTR _position$21[ebp+4], xmm0

; 2667 : 		position.z = 0.0;

  043b9	0f 57 c0	 xorps	 xmm0, xmm0
  043bc	f3 0f 11 85 cc
	fd ff ff	 movss	 DWORD PTR _position$21[ebp+8], xmm0

; 2668 : 
; 2669 : 		add_dynamic_force ("Ground Friction force", force, 0.0, &position, &direction, TRUE);

  043c4	6a 01		 push	 1
  043c6	8d 85 d0 fd ff
	ff		 lea	 eax, DWORD PTR _direction$22[ebp]
  043cc	50		 push	 eax
  043cd	8d 8d c4 fd ff
	ff		 lea	 ecx, DWORD PTR _position$21[ebp]
  043d3	51		 push	 ecx
  043d4	51		 push	 ecx
  043d5	0f 57 c0	 xorps	 xmm0, xmm0
  043d8	f3 0f 11 04 24	 movss	 DWORD PTR [esp], xmm0
  043dd	51		 push	 ecx
  043de	f3 0f 10 85 dc
	fd ff ff	 movss	 xmm0, DWORD PTR _force$23[ebp]
  043e6	f3 0f 11 04 24	 movss	 DWORD PTR [esp], xmm0
  043eb	68 00 00 00 00	 push	 OFFSET ??_C@_0BG@EBOEKGCA@Ground?5Friction?5force@
  043f0	e8 00 00 00 00	 call	 ?add_dynamic_force@@YGXPBDMMPAUVEC3D@@1H@Z ; add_dynamic_force
$LN74@update_att:

; 2670 : 
; 2671 : 		#if DEBUG_MODULE
; 2672 : 
; 2673 : 		multiply_matrix3x3_vec3d (&direction, raw->ac.mob.attitude, &direction);
; 2674 : 
; 2675 : 		position.x += current_flight_dynamics->position.x;
; 2676 : 		position.y += current_flight_dynamics->position.y;
; 2677 : 		position.z += current_flight_dynamics->position.z;
; 2678 : 
; 2679 : 		create_vectored_debug_3d_object (&position, &direction, OBJECT_3D_ARROW_FORCES, 0, 5 * force);
; 2680 : 
; 2681 : 		#endif
; 2682 : 	}
; 2683 : 
; 2684 : 	if (current_flight_dynamics_landed_at_keysite
; 2685 : 		&& get_local_entity_int_value(current_flight_dynamics_landed_at_keysite, INT_TYPE_ENTITY_SUB_TYPE) == ENTITY_SUB_TYPE_KEYSITE_ANCHORAGE)

  043f5	83 3d 00 00 00
	00 00		 cmp	 DWORD PTR ?current_flight_dynamics_landed_at_keysite@@3PAUENTITY@@A, 0 ; current_flight_dynamics_landed_at_keysite
  043fc	0f 84 5d 02 00
	00		 je	 $LN82@update_att
  04402	83 3d 00 00 00
	00 00		 cmp	 DWORD PTR ?current_flight_dynamics_landed_at_keysite@@3PAUENTITY@@A, 0 ; current_flight_dynamics_landed_at_keysite
  04409	74 0f		 je	 SHORT $LN159@update_att
  0440b	a1 00 00 00 00	 mov	 eax, DWORD PTR ?current_flight_dynamics_landed_at_keysite@@3PAUENTITY@@A ; current_flight_dynamics_landed_at_keysite
  04410	8b 08		 mov	 ecx, DWORD PTR [eax]
  04412	89 8d d8 fc ff
	ff		 mov	 DWORD PTR tv2100[ebp], ecx
  04418	eb 20		 jmp	 SHORT $LN160@update_att
$LN159@update_att:
  0441a	68 7d 0a 00 00	 push	 2685			; 00000a7dH
  0441f	68 00 00 00 00	 push	 OFFSET ??_C@_0FA@IFJNMDIM@c?3?2users?2nhv90?2projects?2eech?2ap@
  04424	8b 15 00 00 00
	00		 mov	 edx, DWORD PTR ?null_entity_pointer_message@@3PBDB ; null_entity_pointer_message
  0442a	52		 push	 edx
  0442b	e8 00 00 00 00	 call	 ?process_assert@@YGXPBD0H@Z ; process_assert
  04430	c7 85 d8 fc ff
	ff 00 00 00 00	 mov	 DWORD PTR tv2100[ebp], 0
$LN160@update_att:
  0443a	b8 01 00 00 00	 mov	 eax, 1
  0443f	85 c0		 test	 eax, eax
  04441	74 0c		 je	 SHORT $LN161@update_att
  04443	c7 85 d4 fc ff
	ff 34 00 00 00	 mov	 DWORD PTR tv2107[ebp], 52 ; 00000034H
  0444d	eb 20		 jmp	 SHORT $LN162@update_att
$LN161@update_att:
  0444f	68 7d 0a 00 00	 push	 2685			; 00000a7dH
  04454	68 00 00 00 00	 push	 OFFSET ??_C@_0FA@IFJNMDIM@c?3?2users?2nhv90?2projects?2eech?2ap@
  04459	8b 0d 00 00 00
	00		 mov	 ecx, DWORD PTR ?overload_invalid_int_type_message@@3PBDB ; overload_invalid_int_type_message
  0445f	51		 push	 ecx
  04460	e8 00 00 00 00	 call	 ?process_assert@@YGXPBD0H@Z ; process_assert
  04465	c7 85 d4 fc ff
	ff 00 00 00 00	 mov	 DWORD PTR tv2107[ebp], 0
$LN162@update_att:
  0446f	6a 34		 push	 52			; 00000034H
  04471	8b 15 00 00 00
	00		 mov	 edx, DWORD PTR ?current_flight_dynamics_landed_at_keysite@@3PAUENTITY@@A ; current_flight_dynamics_landed_at_keysite
  04477	52		 push	 edx
  04478	69 85 d8 fc ff
	ff 5c 04 00 00	 imul	 eax, DWORD PTR tv2100[ebp], 1116
  04482	8b 8d d4 fc ff
	ff		 mov	 ecx, DWORD PTR tv2107[ebp]
  04488	8b 94 88 00 00
	00 00		 mov	 edx, DWORD PTR ?fn_get_local_entity_int_value@@3PAY0BBH@P6GHPAUENTITY@@W4INT_TYPES@@@ZA[eax+ecx*4]
  0448f	ff d2		 call	 edx
  04491	83 f8 01	 cmp	 eax, 1
  04494	0f 85 c5 01 00
	00		 jne	 $LN82@update_att

; 2686 : 	{
; 2687 : 		// cludge to make carrier landings possible.  New suspension doesn't work there,
; 2688 : 		// but at least don't let the helicopter roll off the deck
; 2689 : 		if (current_flight_dynamics->wheel_brake)

  0449a	a1 00 00 00 00	 mov	 eax, DWORD PTR ?current_flight_dynamics@@3PAUDYNAMICS_TYPE@@A ; current_flight_dynamics
  0449f	8b 88 28 25 00
	00		 mov	 ecx, DWORD PTR [eax+9512]
  044a5	c1 e9 06	 shr	 ecx, 6
  044a8	83 e1 01	 and	 ecx, 1
  044ab	0f 84 ae 01 00
	00		 je	 $LN82@update_att

; 2690 : 		{
; 2691 : 			if (current_flight_dynamics->world_motion_vector.x > 0)

  044b1	a1 00 00 00 00	 mov	 eax, DWORD PTR ?current_flight_dynamics@@3PAUDYNAMICS_TYPE@@A ; current_flight_dynamics
  044b6	f3 0f 10 80 3c
	1c 00 00	 movss	 xmm0, DWORD PTR [eax+7228]
  044be	0f 2f 05 00 00
	00 00		 comiss	 xmm0, DWORD PTR __real@00000000
  044c5	76 58		 jbe	 SHORT $LN78@update_att

; 2692 : 				current_flight_dynamics->world_motion_vector.x -= min(20.0f * get_model_delta_time (), current_flight_dynamics->world_motion_vector.x );

  044c7	a1 00 00 00 00	 mov	 eax, DWORD PTR ?current_flight_dynamics@@3PAUDYNAMICS_TYPE@@A ; current_flight_dynamics
  044cc	f3 0f 10 05 00
	00 00 00	 movss	 xmm0, DWORD PTR __real@41a00000
  044d4	f3 0f 59 80 90
	00 00 00	 mulss	 xmm0, DWORD PTR [eax+144]
  044dc	f3 0f 11 85 e8
	fc ff ff	 movss	 DWORD PTR $T4[ebp], xmm0
  044e4	8b 0d 00 00 00
	00		 mov	 ecx, DWORD PTR ?current_flight_dynamics@@3PAUDYNAMICS_TYPE@@A ; current_flight_dynamics
  044ea	81 c1 3c 1c 00
	00		 add	 ecx, 7228		; 00001c3cH
  044f0	51		 push	 ecx
  044f1	8d 95 e8 fc ff
	ff		 lea	 edx, DWORD PTR $T4[ebp]
  044f7	52		 push	 edx
  044f8	e8 00 00 00 00	 call	 ??$min@M@std@@YGABMABM0@Z ; std::min<float>
  044fd	8b 0d 00 00 00
	00		 mov	 ecx, DWORD PTR ?current_flight_dynamics@@3PAUDYNAMICS_TYPE@@A ; current_flight_dynamics
  04503	f3 0f 10 81 3c
	1c 00 00	 movss	 xmm0, DWORD PTR [ecx+7228]
  0450b	f3 0f 5c 00	 subss	 xmm0, DWORD PTR [eax]
  0450f	8b 15 00 00 00
	00		 mov	 edx, DWORD PTR ?current_flight_dynamics@@3PAUDYNAMICS_TYPE@@A ; current_flight_dynamics
  04515	f3 0f 11 82 3c
	1c 00 00	 movss	 DWORD PTR [edx+7228], xmm0

; 2693 : 			else

  0451d	eb 56		 jmp	 SHORT $LN79@update_att
$LN78@update_att:

; 2694 : 				current_flight_dynamics->world_motion_vector.x -= max(-20.0f * get_model_delta_time (), current_flight_dynamics->world_motion_vector.x );

  0451f	a1 00 00 00 00	 mov	 eax, DWORD PTR ?current_flight_dynamics@@3PAUDYNAMICS_TYPE@@A ; current_flight_dynamics
  04524	f3 0f 10 05 00
	00 00 00	 movss	 xmm0, DWORD PTR __real@c1a00000
  0452c	f3 0f 59 80 90
	00 00 00	 mulss	 xmm0, DWORD PTR [eax+144]
  04534	f3 0f 11 85 e4
	fc ff ff	 movss	 DWORD PTR $T3[ebp], xmm0
  0453c	8b 0d 00 00 00
	00		 mov	 ecx, DWORD PTR ?current_flight_dynamics@@3PAUDYNAMICS_TYPE@@A ; current_flight_dynamics
  04542	81 c1 3c 1c 00
	00		 add	 ecx, 7228		; 00001c3cH
  04548	51		 push	 ecx
  04549	8d 95 e4 fc ff
	ff		 lea	 edx, DWORD PTR $T3[ebp]
  0454f	52		 push	 edx
  04550	e8 00 00 00 00	 call	 ??$max@M@std@@YGABMABM0@Z ; std::max<float>
  04555	8b 0d 00 00 00
	00		 mov	 ecx, DWORD PTR ?current_flight_dynamics@@3PAUDYNAMICS_TYPE@@A ; current_flight_dynamics
  0455b	f3 0f 10 81 3c
	1c 00 00	 movss	 xmm0, DWORD PTR [ecx+7228]
  04563	f3 0f 5c 00	 subss	 xmm0, DWORD PTR [eax]
  04567	8b 15 00 00 00
	00		 mov	 edx, DWORD PTR ?current_flight_dynamics@@3PAUDYNAMICS_TYPE@@A ; current_flight_dynamics
  0456d	f3 0f 11 82 3c
	1c 00 00	 movss	 DWORD PTR [edx+7228], xmm0
$LN79@update_att:

; 2695 : 
; 2696 : 			if (current_flight_dynamics->world_motion_vector.z > 0)

  04575	a1 00 00 00 00	 mov	 eax, DWORD PTR ?current_flight_dynamics@@3PAUDYNAMICS_TYPE@@A ; current_flight_dynamics
  0457a	f3 0f 10 80 44
	1c 00 00	 movss	 xmm0, DWORD PTR [eax+7236]
  04582	0f 2f 05 00 00
	00 00		 comiss	 xmm0, DWORD PTR __real@00000000
  04589	76 58		 jbe	 SHORT $LN80@update_att

; 2697 : 				current_flight_dynamics->world_motion_vector.z -= min(5.0f * get_model_delta_time (), current_flight_dynamics->world_motion_vector.z);

  0458b	a1 00 00 00 00	 mov	 eax, DWORD PTR ?current_flight_dynamics@@3PAUDYNAMICS_TYPE@@A ; current_flight_dynamics
  04590	f3 0f 10 05 00
	00 00 00	 movss	 xmm0, DWORD PTR __real@40a00000
  04598	f3 0f 59 80 90
	00 00 00	 mulss	 xmm0, DWORD PTR [eax+144]
  045a0	f3 0f 11 85 e0
	fc ff ff	 movss	 DWORD PTR $T2[ebp], xmm0
  045a8	8b 0d 00 00 00
	00		 mov	 ecx, DWORD PTR ?current_flight_dynamics@@3PAUDYNAMICS_TYPE@@A ; current_flight_dynamics
  045ae	81 c1 44 1c 00
	00		 add	 ecx, 7236		; 00001c44H
  045b4	51		 push	 ecx
  045b5	8d 95 e0 fc ff
	ff		 lea	 edx, DWORD PTR $T2[ebp]
  045bb	52		 push	 edx
  045bc	e8 00 00 00 00	 call	 ??$min@M@std@@YGABMABM0@Z ; std::min<float>
  045c1	8b 0d 00 00 00
	00		 mov	 ecx, DWORD PTR ?current_flight_dynamics@@3PAUDYNAMICS_TYPE@@A ; current_flight_dynamics
  045c7	f3 0f 10 81 44
	1c 00 00	 movss	 xmm0, DWORD PTR [ecx+7236]
  045cf	f3 0f 5c 00	 subss	 xmm0, DWORD PTR [eax]
  045d3	8b 15 00 00 00
	00		 mov	 edx, DWORD PTR ?current_flight_dynamics@@3PAUDYNAMICS_TYPE@@A ; current_flight_dynamics
  045d9	f3 0f 11 82 44
	1c 00 00	 movss	 DWORD PTR [edx+7236], xmm0

; 2698 : 			else

  045e1	eb 56		 jmp	 SHORT $LN81@update_att
$LN80@update_att:

; 2699 : 				current_flight_dynamics->world_motion_vector.z -= max(-5.0f * get_model_delta_time (), current_flight_dynamics->world_motion_vector.z);

  045e3	a1 00 00 00 00	 mov	 eax, DWORD PTR ?current_flight_dynamics@@3PAUDYNAMICS_TYPE@@A ; current_flight_dynamics
  045e8	f3 0f 10 05 00
	00 00 00	 movss	 xmm0, DWORD PTR __real@c0a00000
  045f0	f3 0f 59 80 90
	00 00 00	 mulss	 xmm0, DWORD PTR [eax+144]
  045f8	f3 0f 11 85 dc
	fc ff ff	 movss	 DWORD PTR $T1[ebp], xmm0
  04600	8b 0d 00 00 00
	00		 mov	 ecx, DWORD PTR ?current_flight_dynamics@@3PAUDYNAMICS_TYPE@@A ; current_flight_dynamics
  04606	81 c1 44 1c 00
	00		 add	 ecx, 7236		; 00001c44H
  0460c	51		 push	 ecx
  0460d	8d 95 dc fc ff
	ff		 lea	 edx, DWORD PTR $T1[ebp]
  04613	52		 push	 edx
  04614	e8 00 00 00 00	 call	 ??$max@M@std@@YGABMABM0@Z ; std::max<float>
  04619	8b 0d 00 00 00
	00		 mov	 ecx, DWORD PTR ?current_flight_dynamics@@3PAUDYNAMICS_TYPE@@A ; current_flight_dynamics
  0461f	f3 0f 10 81 44
	1c 00 00	 movss	 xmm0, DWORD PTR [ecx+7236]
  04627	f3 0f 5c 00	 subss	 xmm0, DWORD PTR [eax]
  0462b	8b 15 00 00 00
	00		 mov	 edx, DWORD PTR ?current_flight_dynamics@@3PAUDYNAMICS_TYPE@@A ; current_flight_dynamics
  04631	f3 0f 11 82 44
	1c 00 00	 movss	 DWORD PTR [edx+7236], xmm0
$LN81@update_att:

; 2700 : 
; 2701 : 			if (current_flight_dynamics->world_motion_vector.y < 0.0)

  04639	a1 00 00 00 00	 mov	 eax, DWORD PTR ?current_flight_dynamics@@3PAUDYNAMICS_TYPE@@A ; current_flight_dynamics
  0463e	f3 0f 5a 80 40
	1c 00 00	 cvtss2sd xmm0, DWORD PTR [eax+7232]
  04646	0f 57 c9	 xorps	 xmm1, xmm1
  04649	66 0f 2f c8	 comisd	 xmm1, xmm0
  0464d	76 10		 jbe	 SHORT $LN82@update_att

; 2702 : 				current_flight_dynamics->world_motion_vector.y = 0.0;

  0464f	a1 00 00 00 00	 mov	 eax, DWORD PTR ?current_flight_dynamics@@3PAUDYNAMICS_TYPE@@A ; current_flight_dynamics
  04654	0f 57 c0	 xorps	 xmm0, xmm0
  04657	f3 0f 11 80 40
	1c 00 00	 movss	 DWORD PTR [eax+7232], xmm0
$LN82@update_att:

; 2703 : 		}
; 2704 : 	}
; 2705 : 
; 2706 : 	// arneh - add vibration if rotor damaged
; 2707 : 	if (!model_landed && current_flight_dynamics->dynamics_damage & DYNAMICS_DAMAGE_MAIN_ROTOR_BLADE)

  0465f	83 7d fc 00	 cmp	 DWORD PTR _model_landed$[ebp], 0
  04663	75 26		 jne	 SHORT $LN83@update_att
  04665	a1 00 00 00 00	 mov	 eax, DWORD PTR ?current_flight_dynamics@@3PAUDYNAMICS_TYPE@@A ; current_flight_dynamics
  0466a	8b 88 24 25 00
	00		 mov	 ecx, DWORD PTR [eax+9508]
  04670	81 e1 00 00 01
	00		 and	 ecx, 65536		; 00010000H
  04676	74 13		 je	 SHORT $LN83@update_att

; 2708 : 		create_rotor_vibration(1.2);

  04678	51		 push	 ecx
  04679	f3 0f 10 05 00
	00 00 00	 movss	 xmm0, DWORD PTR __real@3f99999a
  04681	f3 0f 11 04 24	 movss	 DWORD PTR [esp], xmm0
  04686	e8 00 00 00 00	 call	 ?create_rotor_vibration@@YGXM@Z ; create_rotor_vibration
$LN83@update_att:
$LN1@update_att:

; 2709 : }

  0468b	5f		 pop	 edi
  0468c	5e		 pop	 esi
  0468d	5b		 pop	 ebx
  0468e	8b e5		 mov	 esp, ebp
  04690	5d		 pop	 ebp
  04691	c3		 ret	 0
?update_attitude_dynamics@@YGXXZ ENDP			; update_attitude_dynamics
_TEXT	ENDS
; Function compile flags: /Odtp /ZI
; File c:\users\nhv90\projects\eech\aphavoc\source\gunships\dynamics\comanche\cm_dyn.c
;	COMDAT ?update_tail_rotor_thrust_dynamics@@YGXXZ
_TEXT	SEGMENT
_blade_pitch_induced_thrust_percentage$ = -24		; size = 4
_Tl$ = -20						; size = 4
_Pmax$ = -16						; size = 4
_Md$ = -12						; size = 4
_Mrpm$ = -8						; size = 4
_desired$ = -4						; size = 4
?update_tail_rotor_thrust_dynamics@@YGXXZ PROC		; update_tail_rotor_thrust_dynamics, COMDAT

; 1194 : {

  00000	55		 push	 ebp
  00001	8b ec		 mov	 ebp, esp
  00003	83 ec 58	 sub	 esp, 88			; 00000058H
  00006	53		 push	 ebx
  00007	56		 push	 esi
  00008	57		 push	 edi

; 1195 : 
; 1196 : 	// the thrust_at_0.. will cause a constant yaw input = correct.
; 1197 : 
; 1198 : 	float
; 1199 : 		desired,
; 1200 : 		Mrpm,
; 1201 : 		Md,
; 1202 : 		Pmax,
; 1203 : 		Tl,
; 1204 : 		blade_pitch_induced_thrust_percentage;
; 1205 : 
; 1206 : 	Mrpm = current_flight_dynamics->main_rotor_rpm.value;

  00009	a1 00 00 00 00	 mov	 eax, DWORD PTR ?current_flight_dynamics@@3PAUDYNAMICS_TYPE@@A ; current_flight_dynamics
  0000e	f3 0f 10 80 14
	1e 00 00	 movss	 xmm0, DWORD PTR [eax+7700]
  00016	f3 0f 11 45 f8	 movss	 DWORD PTR _Mrpm$[ebp], xmm0

; 1207 : 
; 1208 : 	Md = current_flight_dynamics->main_rotor_diameter.value;

  0001b	a1 00 00 00 00	 mov	 eax, DWORD PTR ?current_flight_dynamics@@3PAUDYNAMICS_TYPE@@A ; current_flight_dynamics
  00020	f3 0f 10 80 9c
	1d 00 00	 movss	 xmm0, DWORD PTR [eax+7580]
  00028	f3 0f 11 45 f4	 movss	 DWORD PTR _Md$[ebp], xmm0

; 1209 : 
; 1210 : 	Pmax = current_flight_dynamics->tail_blade_pitch.max;

  0002d	a1 00 00 00 00	 mov	 eax, DWORD PTR ?current_flight_dynamics@@3PAUDYNAMICS_TYPE@@A ; current_flight_dynamics
  00032	f3 0f 10 80 a0
	1f 00 00	 movss	 xmm0, DWORD PTR [eax+8096]
  0003a	f3 0f 11 45 f0	 movss	 DWORD PTR _Pmax$[ebp], xmm0

; 1211 : 
; 1212 : 	Tl = current_flight_dynamics->tail_boom_length.value;

  0003f	a1 00 00 00 00	 mov	 eax, DWORD PTR ?current_flight_dynamics@@3PAUDYNAMICS_TYPE@@A ; current_flight_dynamics
  00044	f3 0f 10 80 ac
	1f 00 00	 movss	 xmm0, DWORD PTR [eax+8108]
  0004c	f3 0f 11 45 ec	 movss	 DWORD PTR _Tl$[ebp], xmm0

; 1213 : 
; 1214 : 	// arneh - when rotor is disengaged it produces no torque, so 0 tail rotor adjustment is desired
; 1215 : 	if (current_flight_dynamics->rotor_brake ||

  00051	a1 00 00 00 00	 mov	 eax, DWORD PTR ?current_flight_dynamics@@3PAUDYNAMICS_TYPE@@A ; current_flight_dynamics
  00056	8b 88 28 25 00
	00		 mov	 ecx, DWORD PTR [eax+9512]
  0005c	c1 e9 05	 shr	 ecx, 5
  0005f	83 e1 01	 and	 ecx, 1
  00062	75 1b		 jne	 SHORT $LN4@update_tai
  00064	a1 00 00 00 00	 mov	 eax, DWORD PTR ?current_flight_dynamics@@3PAUDYNAMICS_TYPE@@A ; current_flight_dynamics
  00069	0f b7 88 d4 1f
	00 00		 movzx	 ecx, WORD PTR [eax+8148]
  00070	85 c9		 test	 ecx, ecx
  00072	75 15		 jne	 SHORT $LN2@update_tai
  00074	6a 00		 push	 0
  00076	e8 00 00 00 00	 call	 ?get_current_dynamics_options@@YGHW4DYNAMICS_OPTIONS_TYPES@@@Z ; get_current_dynamics_options
  0007b	85 c0		 test	 eax, eax
  0007d	74 0a		 je	 SHORT $LN2@update_tai
$LN4@update_tai:

; 1216 : 		(!current_flight_dynamics->cross_coupling_effect.damaged) &&
; 1217 : 		(get_current_dynamics_options (DYNAMICS_OPTIONS_CROSS_COUPLING)))
; 1218 : 		desired = 0.0;

  0007f	0f 57 c0	 xorps	 xmm0, xmm0
  00082	f3 0f 11 45 fc	 movss	 DWORD PTR _desired$[ebp], xmm0

; 1219 : 	else

  00087	eb 32		 jmp	 SHORT $LN3@update_tai
$LN2@update_tai:

; 1220 : 		desired = (((200 * PI * Mrpm * Md * Pmax) / (1649 * Tl))) / (Pmax);

  00089	f3 0f 10 05 00
	00 00 00	 movss	 xmm0, DWORD PTR __real@441d1463
  00091	f3 0f 59 45 f8	 mulss	 xmm0, DWORD PTR _Mrpm$[ebp]
  00096	f3 0f 59 45 f4	 mulss	 xmm0, DWORD PTR _Md$[ebp]
  0009b	f3 0f 59 45 f0	 mulss	 xmm0, DWORD PTR _Pmax$[ebp]
  000a0	f3 0f 10 0d 00
	00 00 00	 movss	 xmm1, DWORD PTR __real@44ce2000
  000a8	f3 0f 59 4d ec	 mulss	 xmm1, DWORD PTR _Tl$[ebp]
  000ad	f3 0f 5e c1	 divss	 xmm0, xmm1
  000b1	f3 0f 5e 45 f0	 divss	 xmm0, DWORD PTR _Pmax$[ebp]
  000b6	f3 0f 11 45 fc	 movss	 DWORD PTR _desired$[ebp], xmm0
$LN3@update_tai:

; 1221 : 
; 1222 : 	current_flight_dynamics->cross_coupling_effect.value += (desired - current_flight_dynamics->cross_coupling_effect.value) * get_model_delta_time ();

  000bb	a1 00 00 00 00	 mov	 eax, DWORD PTR ?current_flight_dynamics@@3PAUDYNAMICS_TYPE@@A ; current_flight_dynamics
  000c0	f3 0f 10 45 fc	 movss	 xmm0, DWORD PTR _desired$[ebp]
  000c5	f3 0f 5c 80 c4
	1f 00 00	 subss	 xmm0, DWORD PTR [eax+8132]
  000cd	8b 0d 00 00 00
	00		 mov	 ecx, DWORD PTR ?current_flight_dynamics@@3PAUDYNAMICS_TYPE@@A ; current_flight_dynamics
  000d3	f3 0f 59 81 90
	00 00 00	 mulss	 xmm0, DWORD PTR [ecx+144]
  000db	8b 15 00 00 00
	00		 mov	 edx, DWORD PTR ?current_flight_dynamics@@3PAUDYNAMICS_TYPE@@A ; current_flight_dynamics
  000e1	f3 0f 58 82 c4
	1f 00 00	 addss	 xmm0, DWORD PTR [edx+8132]
  000e9	a1 00 00 00 00	 mov	 eax, DWORD PTR ?current_flight_dynamics@@3PAUDYNAMICS_TYPE@@A ; current_flight_dynamics
  000ee	f3 0f 11 80 c4
	1f 00 00	 movss	 DWORD PTR [eax+8132], xmm0

; 1223 : 
; 1224 : 	blade_pitch_induced_thrust_percentage = (((100.0 - current_flight_dynamics->cross_coupling_effect.value) /

  000f6	a1 00 00 00 00	 mov	 eax, DWORD PTR ?current_flight_dynamics@@3PAUDYNAMICS_TYPE@@A ; current_flight_dynamics
  000fb	f3 0f 5a 80 c4
	1f 00 00	 cvtss2sd xmm0, DWORD PTR [eax+8132]
  00103	f2 0f 10 0d 00
	00 00 00	 movsd	 xmm1, QWORD PTR __real@4059000000000000
  0010b	f2 0f 5c c8	 subsd	 xmm1, xmm0
  0010f	8b 0d 00 00 00
	00		 mov	 ecx, DWORD PTR ?current_flight_dynamics@@3PAUDYNAMICS_TYPE@@A ; current_flight_dynamics
  00115	f3 0f 5a 81 a0
	1f 00 00	 cvtss2sd xmm0, DWORD PTR [ecx+8096]
  0011d	f2 0f 5e c8	 divsd	 xmm1, xmm0
  00121	8b 15 00 00 00
	00		 mov	 edx, DWORD PTR ?current_flight_dynamics@@3PAUDYNAMICS_TYPE@@A ; current_flight_dynamics
  00127	f3 0f 5a 82 94
	1f 00 00	 cvtss2sd xmm0, DWORD PTR [edx+8084]
  0012f	f2 0f 59 c8	 mulsd	 xmm1, xmm0
  00133	a1 00 00 00 00	 mov	 eax, DWORD PTR ?current_flight_dynamics@@3PAUDYNAMICS_TYPE@@A ; current_flight_dynamics
  00138	f3 0f 5a 80 c4
	1f 00 00	 cvtss2sd xmm0, DWORD PTR [eax+8132]
  00140	f2 0f 58 c8	 addsd	 xmm1, xmm0
  00144	f2 0f 5e 0d 00
	00 00 00	 divsd	 xmm1, QWORD PTR __real@4059000000000000
  0014c	f2 0f 5a c1	 cvtsd2ss xmm0, xmm1
  00150	f3 0f 11 45 e8	 movss	 DWORD PTR _blade_pitch_induced_thrust_percentage$[ebp], xmm0

; 1225 : 															current_flight_dynamics->tail_blade_pitch.max) *
; 1226 : 															current_flight_dynamics->tail_blade_pitch.value +
; 1227 : 															current_flight_dynamics->cross_coupling_effect.value) / 100.0;
; 1228 : 
; 1229 : 	current_flight_dynamics->tail_rotor_induced_air.value = 0.0;

  00155	a1 00 00 00 00	 mov	 eax, DWORD PTR ?current_flight_dynamics@@3PAUDYNAMICS_TYPE@@A ; current_flight_dynamics
  0015a	0f 57 c0	 xorps	 xmm0, xmm0
  0015d	f3 0f 11 80 04
	1f 00 00	 movss	 DWORD PTR [eax+7940], xmm0

; 1230 : 
; 1231 : 	if (current_flight_dynamics->tail_rotor_rpm.max != 0.0)

  00165	a1 00 00 00 00	 mov	 eax, DWORD PTR ?current_flight_dynamics@@3PAUDYNAMICS_TYPE@@A ; current_flight_dynamics
  0016a	f3 0f 5a 80 58
	1f 00 00	 cvtss2sd xmm0, DWORD PTR [eax+8024]
  00172	66 0f 2e 05 00
	00 00 00	 ucomisd xmm0, QWORD PTR __real@0000000000000000
  0017a	9f		 lahf
  0017b	f6 c4 44	 test	 ah, 68			; 00000044H
  0017e	7b 42		 jnp	 SHORT $LN5@update_tai

; 1232 : 	{
; 1233 : 
; 1234 : 		current_flight_dynamics->tail_rotor_induced_air.value = (current_flight_dynamics->tail_rotor_rpm.value / current_flight_dynamics->tail_rotor_rpm.max) *

  00180	a1 00 00 00 00	 mov	 eax, DWORD PTR ?current_flight_dynamics@@3PAUDYNAMICS_TYPE@@A ; current_flight_dynamics
  00185	8b 0d 00 00 00
	00		 mov	 ecx, DWORD PTR ?current_flight_dynamics@@3PAUDYNAMICS_TYPE@@A ; current_flight_dynamics
  0018b	f3 0f 10 80 4c
	1f 00 00	 movss	 xmm0, DWORD PTR [eax+8012]
  00193	f3 0f 5e 81 58
	1f 00 00	 divss	 xmm0, DWORD PTR [ecx+8024]
  0019b	f3 0f 5a c0	 cvtss2sd xmm0, xmm0
  0019f	f3 0f 5a 4d e8	 cvtss2sd xmm1, DWORD PTR _blade_pitch_induced_thrust_percentage$[ebp]
  001a4	f2 0f 5e 0d 00
	00 00 00	 divsd	 xmm1, QWORD PTR __real@4000000000000000
  001ac	f2 0f 59 c1	 mulsd	 xmm0, xmm1
  001b0	f2 0f 5a c0	 cvtsd2ss xmm0, xmm0
  001b4	8b 15 00 00 00
	00		 mov	 edx, DWORD PTR ?current_flight_dynamics@@3PAUDYNAMICS_TYPE@@A ; current_flight_dynamics
  001ba	f3 0f 11 82 04
	1f 00 00	 movss	 DWORD PTR [edx+7940], xmm0
$LN5@update_tai:

; 1235 : 																					(blade_pitch_induced_thrust_percentage / 2.0);
; 1236 : 	}
; 1237 : 
; 1238 : 	//debug_log ("tail induced %f, cross %f, tail pitch value %f", current_flight_dynamics->tail_rotor_induced_air.value, current_flight_dynamics->cross_coupling_effect.value, current_flight_dynamics->tail_blade_pitch.value);
; 1239 : }

  001c2	5f		 pop	 edi
  001c3	5e		 pop	 esi
  001c4	5b		 pop	 ebx
  001c5	8b e5		 mov	 esp, ebp
  001c7	5d		 pop	 ebp
  001c8	c3		 ret	 0
?update_tail_rotor_thrust_dynamics@@YGXXZ ENDP		; update_tail_rotor_thrust_dynamics
_TEXT	ENDS
; Function compile flags: /Odtp /ZI
; File c:\users\nhv90\projects\eech\aphavoc\source\gunships\dynamics\comanche\cm_dyn.c
;	COMDAT ?update_main_rotor_thrust_dynamics@@YGXXZ
_TEXT	SEGMENT
tv207 = -88						; size = 8
_x$ = -16						; size = 4
_x_min$ = -12						; size = 4
_x_max$ = -8						; size = 4
_rpm_ratio$ = -4					; size = 4
?update_main_rotor_thrust_dynamics@@YGXXZ PROC		; update_main_rotor_thrust_dynamics, COMDAT

; 1130 : {

  00000	55		 push	 ebp
  00001	8b ec		 mov	 ebp, esp
  00003	83 ec 58	 sub	 esp, 88			; 00000058H
  00006	53		 push	 ebx
  00007	56		 push	 esi
  00008	57		 push	 edi

; 1131 : 
; 1132 : 	float
; 1133 : 		rpm_ratio,
; 1134 : 		x_max,
; 1135 : 		x_min,
; 1136 : 		x;
; 1137 : 
; 1138 : 	x_max = current_flight_dynamics->main_blade_pitch.max;

  00009	a1 00 00 00 00	 mov	 eax, DWORD PTR ?current_flight_dynamics@@3PAUDYNAMICS_TYPE@@A ; current_flight_dynamics
  0000e	f3 0f 10 80 98
	1e 00 00	 movss	 xmm0, DWORD PTR [eax+7832]
  00016	f3 0f 11 45 f8	 movss	 DWORD PTR _x_max$[ebp], xmm0

; 1139 : 
; 1140 : 	x_min = current_flight_dynamics->main_blade_pitch.min;

  0001b	a1 00 00 00 00	 mov	 eax, DWORD PTR ?current_flight_dynamics@@3PAUDYNAMICS_TYPE@@A ; current_flight_dynamics
  00020	f3 0f 10 80 94
	1e 00 00	 movss	 xmm0, DWORD PTR [eax+7828]
  00028	f3 0f 11 45 f4	 movss	 DWORD PTR _x_min$[ebp], xmm0

; 1141 : 
; 1142 : 	x = current_flight_dynamics->main_blade_pitch.value;

  0002d	a1 00 00 00 00	 mov	 eax, DWORD PTR ?current_flight_dynamics@@3PAUDYNAMICS_TYPE@@A ; current_flight_dynamics
  00032	f3 0f 10 80 8c
	1e 00 00	 movss	 xmm0, DWORD PTR [eax+7820]
  0003a	f3 0f 11 45 f0	 movss	 DWORD PTR _x$[ebp], xmm0

; 1143 : 
; 1144 : //  arneh - let rotor have thrust even when rotor is disengaged from engine
; 1145 : //	if (!current_flight_dynamics->rotor_brake)
; 1146 : 	{
; 1147 : 
; 1148 : 		rpm_ratio = 0.0;

  0003f	0f 57 c0	 xorps	 xmm0, xmm0
  00042	f3 0f 11 45 fc	 movss	 DWORD PTR _rpm_ratio$[ebp], xmm0

; 1149 : 
; 1150 : 		if (current_flight_dynamics->main_rotor_rpm.max)

  00047	a1 00 00 00 00	 mov	 eax, DWORD PTR ?current_flight_dynamics@@3PAUDYNAMICS_TYPE@@A ; current_flight_dynamics
  0004c	f3 0f 10 80 20
	1e 00 00	 movss	 xmm0, DWORD PTR [eax+7712]
  00054	0f 2e 05 00 00
	00 00		 ucomiss xmm0, DWORD PTR __real@00000000
  0005b	9f		 lahf
  0005c	f6 c4 44	 test	 ah, 68			; 00000044H
  0005f	7b 20		 jnp	 SHORT $LN2@update_mai

; 1151 : 		{
; 1152 : 
; 1153 : 			rpm_ratio = current_flight_dynamics->main_rotor_rpm.value / current_flight_dynamics->main_rotor_rpm.max;

  00061	a1 00 00 00 00	 mov	 eax, DWORD PTR ?current_flight_dynamics@@3PAUDYNAMICS_TYPE@@A ; current_flight_dynamics
  00066	8b 0d 00 00 00
	00		 mov	 ecx, DWORD PTR ?current_flight_dynamics@@3PAUDYNAMICS_TYPE@@A ; current_flight_dynamics
  0006c	f3 0f 10 80 14
	1e 00 00	 movss	 xmm0, DWORD PTR [eax+7700]
  00074	f3 0f 5e 81 20
	1e 00 00	 divss	 xmm0, DWORD PTR [ecx+7712]
  0007c	f3 0f 11 45 fc	 movss	 DWORD PTR _rpm_ratio$[ebp], xmm0
$LN2@update_mai:

; 1154 : 		}
; 1155 : 
; 1156 : 		// loss of lift due to rotating the helicopter about the y axis.
; 1157 : 
; 1158 : 		if (fabs (current_flight_dynamics->main_rotor_rps.value) > 1.0)

  00081	a1 00 00 00 00	 mov	 eax, DWORD PTR ?current_flight_dynamics@@3PAUDYNAMICS_TYPE@@A ; current_flight_dynamics
  00086	51		 push	 ecx
  00087	f3 0f 10 80 2c
	1e 00 00	 movss	 xmm0, DWORD PTR [eax+7724]
  0008f	f3 0f 11 04 24	 movss	 DWORD PTR [esp], xmm0
  00094	e8 00 00 00 00	 call	 ?fabs@@YGMM@Z		; fabs
  00099	dd 5d a8	 fstp	 QWORD PTR tv207[ebp]
  0009c	f2 0f 10 45 a8	 movsd	 xmm0, QWORD PTR tv207[ebp]
  000a1	66 0f 2f 05 00
	00 00 00	 comisd	 xmm0, QWORD PTR __real@3ff0000000000000
  000a9	76 66		 jbe	 SHORT $LN4@update_mai

; 1159 : 		{
; 1160 : 
; 1161 : 			if (current_flight_dynamics->main_rotor_rps.value != 0.0)

  000ab	a1 00 00 00 00	 mov	 eax, DWORD PTR ?current_flight_dynamics@@3PAUDYNAMICS_TYPE@@A ; current_flight_dynamics
  000b0	f3 0f 5a 80 2c
	1e 00 00	 cvtss2sd xmm0, DWORD PTR [eax+7724]
  000b8	66 0f 2e 05 00
	00 00 00	 ucomisd xmm0, QWORD PTR __real@0000000000000000
  000c0	9f		 lahf
  000c1	f6 c4 44	 test	 ah, 68			; 00000044H
  000c4	7b 4b		 jnp	 SHORT $LN4@update_mai

; 1162 : 			{
; 1163 : 
; 1164 : 				rpm_ratio -= command_line_dynamics_yaw_altitude_loss * (current_flight_dynamics->heading.delta / (2 * PI * current_flight_dynamics->main_rotor_rps.value * get_model_delta_time ()));

  000c6	a1 00 00 00 00	 mov	 eax, DWORD PTR ?current_flight_dynamics@@3PAUDYNAMICS_TYPE@@A ; current_flight_dynamics
  000cb	f3 0f 10 05 00
	00 00 00	 movss	 xmm0, DWORD PTR __real@40c90fdb
  000d3	f3 0f 59 80 2c
	1e 00 00	 mulss	 xmm0, DWORD PTR [eax+7724]
  000db	8b 0d 00 00 00
	00		 mov	 ecx, DWORD PTR ?current_flight_dynamics@@3PAUDYNAMICS_TYPE@@A ; current_flight_dynamics
  000e1	f3 0f 59 81 90
	00 00 00	 mulss	 xmm0, DWORD PTR [ecx+144]
  000e9	8b 15 00 00 00
	00		 mov	 edx, DWORD PTR ?current_flight_dynamics@@3PAUDYNAMICS_TYPE@@A ; current_flight_dynamics
  000ef	f3 0f 10 8a 90
	21 00 00	 movss	 xmm1, DWORD PTR [edx+8592]
  000f7	f3 0f 5e c8	 divss	 xmm1, xmm0
  000fb	f3 0f 59 0d 00
	00 00 00	 mulss	 xmm1, DWORD PTR ?command_line_dynamics_yaw_altitude_loss@@3MA
  00103	f3 0f 10 45 fc	 movss	 xmm0, DWORD PTR _rpm_ratio$[ebp]
  00108	f3 0f 5c c1	 subss	 xmm0, xmm1
  0010c	f3 0f 11 45 fc	 movss	 DWORD PTR _rpm_ratio$[ebp], xmm0
$LN4@update_mai:

; 1165 : 			}
; 1166 : 		}
; 1167 : 
; 1168 : 		current_flight_dynamics->main_rotor_induced_air.value =

  00111	a1 00 00 00 00	 mov	 eax, DWORD PTR ?current_flight_dynamics@@3PAUDYNAMICS_TYPE@@A ; current_flight_dynamics
  00116	8b 0d 00 00 00
	00		 mov	 ecx, DWORD PTR ?current_flight_dynamics@@3PAUDYNAMICS_TYPE@@A ; current_flight_dynamics
  0011c	f3 0f 10 80 78
	1d 00 00	 movss	 xmm0, DWORD PTR [eax+7544]
  00124	f3 0f 5c 81 74
	1d 00 00	 subss	 xmm0, DWORD PTR [ecx+7540]
  0012c	f3 0f 10 4d f0	 movss	 xmm1, DWORD PTR _x$[ebp]
  00131	f3 0f 5c 4d f4	 subss	 xmm1, DWORD PTR _x_min$[ebp]
  00136	f3 0f 59 c1	 mulss	 xmm0, xmm1
  0013a	f3 0f 10 4d f8	 movss	 xmm1, DWORD PTR _x_max$[ebp]
  0013f	f3 0f 5c 4d f4	 subss	 xmm1, DWORD PTR _x_min$[ebp]
  00144	f3 0f 5e c1	 divss	 xmm0, xmm1
  00148	8b 15 00 00 00
	00		 mov	 edx, DWORD PTR ?current_flight_dynamics@@3PAUDYNAMICS_TYPE@@A ; current_flight_dynamics
  0014e	f3 0f 58 82 74
	1d 00 00	 addss	 xmm0, DWORD PTR [edx+7540]
  00156	f3 0f 59 45 fc	 mulss	 xmm0, DWORD PTR _rpm_ratio$[ebp]
  0015b	a1 00 00 00 00	 mov	 eax, DWORD PTR ?current_flight_dynamics@@3PAUDYNAMICS_TYPE@@A ; current_flight_dynamics
  00160	f3 0f 11 80 6c
	1d 00 00	 movss	 DWORD PTR [eax+7532], xmm0

; 1169 : 			rpm_ratio * (current_flight_dynamics->main_rotor_induced_air.min +
; 1170 : 			(current_flight_dynamics->main_rotor_induced_air.max - current_flight_dynamics->main_rotor_induced_air.min) *
; 1171 : 			(x - x_min) / (x_max - x_min));
; 1172 : 
; 1173 : 		current_flight_dynamics->main_rotor_induced_air.value *=

  00168	a1 00 00 00 00	 mov	 eax, DWORD PTR ?current_flight_dynamics@@3PAUDYNAMICS_TYPE@@A ; current_flight_dynamics
  0016d	8b 0d 00 00 00
	00		 mov	 ecx, DWORD PTR ?current_flight_dynamics@@3PAUDYNAMICS_TYPE@@A ; current_flight_dynamics
  00173	f3 0f 10 80 44
	21 00 00	 movss	 xmm0, DWORD PTR [eax+8516]
  0017b	f3 0f 5e 81 50
	21 00 00	 divss	 xmm0, DWORD PTR [ecx+8528]
  00183	8b 15 00 00 00
	00		 mov	 edx, DWORD PTR ?current_flight_dynamics@@3PAUDYNAMICS_TYPE@@A ; current_flight_dynamics
  00189	f3 0f 59 82 6c
	1d 00 00	 mulss	 xmm0, DWORD PTR [edx+7532]
  00191	a1 00 00 00 00	 mov	 eax, DWORD PTR ?current_flight_dynamics@@3PAUDYNAMICS_TYPE@@A ; current_flight_dynamics
  00196	f3 0f 11 80 6c
	1d 00 00	 movss	 DWORD PTR [eax+7532], xmm0

; 1174 : 			(current_flight_dynamics->air_density.value / current_flight_dynamics->air_density.max);
; 1175 : 	}
; 1176 : 
; 1177 : 	current_flight_dynamics->main_rotor_thrust.value =

  0019e	a1 00 00 00 00	 mov	 eax, DWORD PTR ?current_flight_dynamics@@3PAUDYNAMICS_TYPE@@A ; current_flight_dynamics
  001a3	f3 0f 5a 80 44
	21 00 00	 cvtss2sd xmm0, DWORD PTR [eax+8516]
  001ab	f2 0f 59 05 00
	00 00 00	 mulsd	 xmm0, QWORD PTR __real@4000000000000000
  001b3	8b 0d 00 00 00
	00		 mov	 ecx, DWORD PTR ?current_flight_dynamics@@3PAUDYNAMICS_TYPE@@A ; current_flight_dynamics
  001b9	f3 0f 5a 89 b4
	1d 00 00	 cvtss2sd xmm1, DWORD PTR [ecx+7604]
  001c1	f2 0f 59 c1	 mulsd	 xmm0, xmm1
  001c5	8b 15 00 00 00
	00		 mov	 edx, DWORD PTR ?current_flight_dynamics@@3PAUDYNAMICS_TYPE@@A ; current_flight_dynamics
  001cb	f3 0f 5a 8a 6c
	1d 00 00	 cvtss2sd xmm1, DWORD PTR [edx+7532]
  001d3	a1 00 00 00 00	 mov	 eax, DWORD PTR ?current_flight_dynamics@@3PAUDYNAMICS_TYPE@@A ; current_flight_dynamics
  001d8	f3 0f 5a 90 84
	20 00 00	 cvtss2sd xmm2, DWORD PTR [eax+8324]
  001e0	f2 0f 5e 15 00
	00 00 00	 divsd	 xmm2, QWORD PTR __real@4024000000000000
  001e8	f2 0f 5c ca	 subsd	 xmm1, xmm2
  001ec	8b 0d 00 00 00
	00		 mov	 ecx, DWORD PTR ?current_flight_dynamics@@3PAUDYNAMICS_TYPE@@A ; current_flight_dynamics
  001f2	f3 0f 5a 91 6c
	1d 00 00	 cvtss2sd xmm2, DWORD PTR [ecx+7532]
  001fa	f2 0f 59 ca	 mulsd	 xmm1, xmm2
  001fe	f2 0f 59 c1	 mulsd	 xmm0, xmm1
  00202	f2 0f 5a c0	 cvtsd2ss xmm0, xmm0
  00206	8b 15 00 00 00
	00		 mov	 edx, DWORD PTR ?current_flight_dynamics@@3PAUDYNAMICS_TYPE@@A ; current_flight_dynamics
  0020c	f3 0f 11 82 cc
	1d 00 00	 movss	 DWORD PTR [edx+7628], xmm0

; 1178 : 		2.0 * current_flight_dynamics->air_density.value * current_flight_dynamics->main_rotor_area.value *
; 1179 : 		((current_flight_dynamics->main_rotor_induced_air.value - (current_flight_dynamics->velocity_y.value / 10.0)) *
; 1180 : 		current_flight_dynamics->main_rotor_induced_air.value);
; 1181 : 
; 1182 : 	// debug everything seems to powerful..
; 1183 : 	current_flight_dynamics->main_rotor_thrust.value /= 16.0;

  00214	a1 00 00 00 00	 mov	 eax, DWORD PTR ?current_flight_dynamics@@3PAUDYNAMICS_TYPE@@A ; current_flight_dynamics
  00219	f3 0f 5a 80 cc
	1d 00 00	 cvtss2sd xmm0, DWORD PTR [eax+7628]
  00221	f2 0f 5e 05 00
	00 00 00	 divsd	 xmm0, QWORD PTR __real@4030000000000000
  00229	f2 0f 5a c0	 cvtsd2ss xmm0, xmm0
  0022d	8b 0d 00 00 00
	00		 mov	 ecx, DWORD PTR ?current_flight_dynamics@@3PAUDYNAMICS_TYPE@@A ; current_flight_dynamics
  00233	f3 0f 11 81 cc
	1d 00 00	 movss	 DWORD PTR [ecx+7628], xmm0

; 1184 : 	// end debug
; 1185 : 
; 1186 : 	//debug_log ("main induced %f, cross %f, main pitch value %f", current_flight_dynamics->main_rotor_induced_air.value, current_flight_dynamics->cross_coupling_effect.value, current_flight_dynamics->main_blade_pitch.value);
; 1187 : }

  0023b	5f		 pop	 edi
  0023c	5e		 pop	 esi
  0023d	5b		 pop	 ebx
  0023e	8b e5		 mov	 esp, ebp
  00240	5d		 pop	 ebp
  00241	c3		 ret	 0
?update_main_rotor_thrust_dynamics@@YGXXZ ENDP		; update_main_rotor_thrust_dynamics
_TEXT	ENDS
; Function compile flags: /Odtp /ZI
; File c:\users\nhv90\projects\eech\aphavoc\source\gunships\dynamics\comanche\cm_dyn.c
;	COMDAT ?update_main_rotor_coning_angle@@YGXXZ
_TEXT	SEGMENT
tv143 = -92						; size = 4
tv144 = -88						; size = 4
_cm$ = -20						; size = 4
_cx$ = -16						; size = 4
_rx$ = -12						; size = 4
_lift$ = -8						; size = 4
_coning_angle$ = -4					; size = 4
?update_main_rotor_coning_angle@@YGXXZ PROC		; update_main_rotor_coning_angle, COMDAT

; 1099 : {

  00000	55		 push	 ebp
  00001	8b ec		 mov	 ebp, esp
  00003	83 ec 5c	 sub	 esp, 92			; 0000005cH
  00006	53		 push	 ebx
  00007	56		 push	 esi
  00008	57		 push	 edi

; 1100 : 
; 1101 : 	float
; 1102 : 		coning_angle,
; 1103 : 		lift,
; 1104 : 		rx,
; 1105 : 		cx,
; 1106 : 		cm;
; 1107 : 
; 1108 : 	// simple, linear coning from Cmin to Cmax over Rx wrt lift.
; 1109 : 
; 1110 : 	rx = current_flight_dynamics->lift.max;

  00009	a1 00 00 00 00	 mov	 eax, DWORD PTR ?current_flight_dynamics@@3PAUDYNAMICS_TYPE@@A ; current_flight_dynamics
  0000e	f3 0f 10 80 b0
	21 00 00	 movss	 xmm0, DWORD PTR [eax+8624]
  00016	f3 0f 11 45 f4	 movss	 DWORD PTR _rx$[ebp], xmm0

; 1111 : 	cx = current_flight_dynamics->main_rotor_coning_angle.max;

  0001b	a1 00 00 00 00	 mov	 eax, DWORD PTR ?current_flight_dynamics@@3PAUDYNAMICS_TYPE@@A ; current_flight_dynamics
  00020	f3 0f 10 80 50
	1e 00 00	 movss	 xmm0, DWORD PTR [eax+7760]
  00028	f3 0f 11 45 f0	 movss	 DWORD PTR _cx$[ebp], xmm0

; 1112 : 	cm = current_flight_dynamics->main_rotor_coning_angle.min;

  0002d	a1 00 00 00 00	 mov	 eax, DWORD PTR ?current_flight_dynamics@@3PAUDYNAMICS_TYPE@@A ; current_flight_dynamics
  00032	f3 0f 10 80 4c
	1e 00 00	 movss	 xmm0, DWORD PTR [eax+7756]
  0003a	f3 0f 11 45 ec	 movss	 DWORD PTR _cm$[ebp], xmm0

; 1113 : 	lift = current_flight_dynamics->lift.value;

  0003f	a1 00 00 00 00	 mov	 eax, DWORD PTR ?current_flight_dynamics@@3PAUDYNAMICS_TYPE@@A ; current_flight_dynamics
  00044	f3 0f 10 80 a4
	21 00 00	 movss	 xmm0, DWORD PTR [eax+8612]
  0004c	f3 0f 11 45 f8	 movss	 DWORD PTR _lift$[ebp], xmm0

; 1114 : 
; 1115 : 	// arneh - multiply with inverse rotor rpm, as high rotor rpm creates centrifugal force to counteract the lift
; 1116 : 	coning_angle = (((cx - cm) / rx) * lift + cm) * 100.0 / current_flight_dynamics->main_rotor_rpm.value;

  00051	f3 0f 10 45 f0	 movss	 xmm0, DWORD PTR _cx$[ebp]
  00056	f3 0f 5c 45 ec	 subss	 xmm0, DWORD PTR _cm$[ebp]
  0005b	f3 0f 5e 45 f4	 divss	 xmm0, DWORD PTR _rx$[ebp]
  00060	f3 0f 59 45 f8	 mulss	 xmm0, DWORD PTR _lift$[ebp]
  00065	f3 0f 58 45 ec	 addss	 xmm0, DWORD PTR _cm$[ebp]
  0006a	f3 0f 5a c0	 cvtss2sd xmm0, xmm0
  0006e	f2 0f 59 05 00
	00 00 00	 mulsd	 xmm0, QWORD PTR __real@4059000000000000
  00076	a1 00 00 00 00	 mov	 eax, DWORD PTR ?current_flight_dynamics@@3PAUDYNAMICS_TYPE@@A ; current_flight_dynamics
  0007b	f3 0f 5a 88 14
	1e 00 00	 cvtss2sd xmm1, DWORD PTR [eax+7700]
  00083	f2 0f 5e c1	 divsd	 xmm0, xmm1
  00087	f2 0f 5a c0	 cvtsd2ss xmm0, xmm0
  0008b	f3 0f 11 45 fc	 movss	 DWORD PTR _coning_angle$[ebp], xmm0

; 1117 : 
; 1118 : 	current_flight_dynamics->main_rotor_coning_angle.value += (coning_angle - current_flight_dynamics->main_rotor_coning_angle.value) * get_model_delta_time ();

  00090	a1 00 00 00 00	 mov	 eax, DWORD PTR ?current_flight_dynamics@@3PAUDYNAMICS_TYPE@@A ; current_flight_dynamics
  00095	f3 0f 10 45 fc	 movss	 xmm0, DWORD PTR _coning_angle$[ebp]
  0009a	f3 0f 5c 80 44
	1e 00 00	 subss	 xmm0, DWORD PTR [eax+7748]
  000a2	8b 0d 00 00 00
	00		 mov	 ecx, DWORD PTR ?current_flight_dynamics@@3PAUDYNAMICS_TYPE@@A ; current_flight_dynamics
  000a8	f3 0f 59 81 90
	00 00 00	 mulss	 xmm0, DWORD PTR [ecx+144]
  000b0	8b 15 00 00 00
	00		 mov	 edx, DWORD PTR ?current_flight_dynamics@@3PAUDYNAMICS_TYPE@@A ; current_flight_dynamics
  000b6	f3 0f 58 82 44
	1e 00 00	 addss	 xmm0, DWORD PTR [edx+7748]
  000be	a1 00 00 00 00	 mov	 eax, DWORD PTR ?current_flight_dynamics@@3PAUDYNAMICS_TYPE@@A ; current_flight_dynamics
  000c3	f3 0f 11 80 44
	1e 00 00	 movss	 DWORD PTR [eax+7748], xmm0

; 1119 : 
; 1120 : 	current_flight_dynamics->main_rotor_coning_angle.value = bound (current_flight_dynamics->main_rotor_coning_angle.value,

  000cb	a1 00 00 00 00	 mov	 eax, DWORD PTR ?current_flight_dynamics@@3PAUDYNAMICS_TYPE@@A ; current_flight_dynamics
  000d0	8b 0d 00 00 00
	00		 mov	 ecx, DWORD PTR ?current_flight_dynamics@@3PAUDYNAMICS_TYPE@@A ; current_flight_dynamics
  000d6	f3 0f 10 80 4c
	1e 00 00	 movss	 xmm0, DWORD PTR [eax+7756]
  000de	0f 2f 81 44 1e
	00 00		 comiss	 xmm0, DWORD PTR [ecx+7748]
  000e5	76 15		 jbe	 SHORT $LN5@update_mai
  000e7	8b 15 00 00 00
	00		 mov	 edx, DWORD PTR ?current_flight_dynamics@@3PAUDYNAMICS_TYPE@@A ; current_flight_dynamics
  000ed	f3 0f 10 82 4c
	1e 00 00	 movss	 xmm0, DWORD PTR [edx+7756]
  000f5	f3 0f 11 45 a8	 movss	 DWORD PTR tv144[ebp], xmm0
  000fa	eb 4d		 jmp	 SHORT $LN6@update_mai
$LN5@update_mai:
  000fc	a1 00 00 00 00	 mov	 eax, DWORD PTR ?current_flight_dynamics@@3PAUDYNAMICS_TYPE@@A ; current_flight_dynamics
  00101	8b 0d 00 00 00
	00		 mov	 ecx, DWORD PTR ?current_flight_dynamics@@3PAUDYNAMICS_TYPE@@A ; current_flight_dynamics
  00107	f3 0f 10 80 44
	1e 00 00	 movss	 xmm0, DWORD PTR [eax+7748]
  0010f	0f 2f 81 50 1e
	00 00		 comiss	 xmm0, DWORD PTR [ecx+7760]
  00116	76 15		 jbe	 SHORT $LN3@update_mai
  00118	8b 15 00 00 00
	00		 mov	 edx, DWORD PTR ?current_flight_dynamics@@3PAUDYNAMICS_TYPE@@A ; current_flight_dynamics
  0011e	f3 0f 10 82 50
	1e 00 00	 movss	 xmm0, DWORD PTR [edx+7760]
  00126	f3 0f 11 45 a4	 movss	 DWORD PTR tv143[ebp], xmm0
  0012b	eb 12		 jmp	 SHORT $LN4@update_mai
$LN3@update_mai:
  0012d	a1 00 00 00 00	 mov	 eax, DWORD PTR ?current_flight_dynamics@@3PAUDYNAMICS_TYPE@@A ; current_flight_dynamics
  00132	f3 0f 10 80 44
	1e 00 00	 movss	 xmm0, DWORD PTR [eax+7748]
  0013a	f3 0f 11 45 a4	 movss	 DWORD PTR tv143[ebp], xmm0
$LN4@update_mai:
  0013f	f3 0f 10 45 a4	 movss	 xmm0, DWORD PTR tv143[ebp]
  00144	f3 0f 11 45 a8	 movss	 DWORD PTR tv144[ebp], xmm0
$LN6@update_mai:
  00149	8b 0d 00 00 00
	00		 mov	 ecx, DWORD PTR ?current_flight_dynamics@@3PAUDYNAMICS_TYPE@@A ; current_flight_dynamics
  0014f	f3 0f 10 45 a8	 movss	 xmm0, DWORD PTR tv144[ebp]
  00154	f3 0f 11 81 44
	1e 00 00	 movss	 DWORD PTR [ecx+7748], xmm0

; 1121 : 																current_flight_dynamics->main_rotor_coning_angle.min,
; 1122 : 																current_flight_dynamics->main_rotor_coning_angle.max);
; 1123 : }

  0015c	5f		 pop	 edi
  0015d	5e		 pop	 esi
  0015e	5b		 pop	 ebx
  0015f	8b e5		 mov	 esp, ebp
  00161	5d		 pop	 ebp
  00162	c3		 ret	 0
?update_main_rotor_coning_angle@@YGXXZ ENDP		; update_main_rotor_coning_angle
_TEXT	ENDS
; Function compile flags: /Odtp /ZI
; File c:\users\nhv90\projects\eech\aphavoc\source\gunships\dynamics\comanche\cm_dyn.c
;	COMDAT ?update_tail_rotor_rpm_dynamics@@YGXXZ
_TEXT	SEGMENT
tv144 = -100						; size = 8
tv166 = -92						; size = 4
tv145 = -92						; size = 8
tv167 = -88						; size = 4
_rpm$ = -20						; size = 4
_rpm_max$ = -16						; size = 4
_rpm_min$ = -12						; size = 4
_engine_rpm$ = -8					; size = 4
_number_of_engines$ = -4				; size = 4
?update_tail_rotor_rpm_dynamics@@YGXXZ PROC		; update_tail_rotor_rpm_dynamics, COMDAT

; 1049 : {

  00000	55		 push	 ebp
  00001	8b ec		 mov	 ebp, esp
  00003	83 ec 64	 sub	 esp, 100		; 00000064H
  00006	53		 push	 ebx
  00007	56		 push	 esi
  00008	57		 push	 edi

; 1050 : 
; 1051 : 	int
; 1052 : 		number_of_engines;
; 1053 : 
; 1054 : 	float
; 1055 : 		engine_rpm,
; 1056 : 		rpm_min,
; 1057 : 		rpm_max,
; 1058 : 		rpm;
; 1059 : 
; 1060 : 	rpm_min = current_flight_dynamics->tail_rotor_rpm.min;

  00009	a1 00 00 00 00	 mov	 eax, DWORD PTR ?current_flight_dynamics@@3PAUDYNAMICS_TYPE@@A ; current_flight_dynamics
  0000e	f3 0f 10 80 54
	1f 00 00	 movss	 xmm0, DWORD PTR [eax+8020]
  00016	f3 0f 11 45 f4	 movss	 DWORD PTR _rpm_min$[ebp], xmm0

; 1061 : 
; 1062 : 	rpm_max = current_flight_dynamics->tail_rotor_rpm.max;

  0001b	a1 00 00 00 00	 mov	 eax, DWORD PTR ?current_flight_dynamics@@3PAUDYNAMICS_TYPE@@A ; current_flight_dynamics
  00020	f3 0f 10 80 58
	1f 00 00	 movss	 xmm0, DWORD PTR [eax+8024]
  00028	f3 0f 11 45 f0	 movss	 DWORD PTR _rpm_max$[ebp], xmm0

; 1063 : 
; 1064 : 	number_of_engines = 2 - current_flight_dynamics->left_engine_rpm.damaged - current_flight_dynamics->right_engine_rpm.damaged;

  0002d	a1 00 00 00 00	 mov	 eax, DWORD PTR ?current_flight_dynamics@@3PAUDYNAMICS_TYPE@@A ; current_flight_dynamics
  00032	0f b7 88 8c 1c
	00 00		 movzx	 ecx, WORD PTR [eax+7308]
  00039	ba 02 00 00 00	 mov	 edx, 2
  0003e	2b d1		 sub	 edx, ecx
  00040	a1 00 00 00 00	 mov	 eax, DWORD PTR ?current_flight_dynamics@@3PAUDYNAMICS_TYPE@@A ; current_flight_dynamics
  00045	0f b7 88 ec 1c
	00 00		 movzx	 ecx, WORD PTR [eax+7404]
  0004c	2b d1		 sub	 edx, ecx
  0004e	89 55 fc	 mov	 DWORD PTR _number_of_engines$[ebp], edx

; 1065 : 
; 1066 : 	engine_rpm = 0.0;

  00051	0f 57 c0	 xorps	 xmm0, xmm0
  00054	f3 0f 11 45 f8	 movss	 DWORD PTR _engine_rpm$[ebp], xmm0

; 1067 : 
; 1068 : 	if (number_of_engines)

  00059	83 7d fc 00	 cmp	 DWORD PTR _number_of_engines$[ebp], 0
  0005d	74 29		 je	 SHORT $LN2@update_tai

; 1069 : 	{
; 1070 : 
; 1071 : 		engine_rpm = (current_flight_dynamics->left_engine_rpm.value + current_flight_dynamics->right_engine_rpm.value) / number_of_engines;

  0005f	a1 00 00 00 00	 mov	 eax, DWORD PTR ?current_flight_dynamics@@3PAUDYNAMICS_TYPE@@A ; current_flight_dynamics
  00064	8b 0d 00 00 00
	00		 mov	 ecx, DWORD PTR ?current_flight_dynamics@@3PAUDYNAMICS_TYPE@@A ; current_flight_dynamics
  0006a	f3 0f 10 80 7c
	1c 00 00	 movss	 xmm0, DWORD PTR [eax+7292]
  00072	f3 0f 58 81 dc
	1c 00 00	 addss	 xmm0, DWORD PTR [ecx+7388]
  0007a	f3 0f 2a 4d fc	 cvtsi2ss xmm1, DWORD PTR _number_of_engines$[ebp]
  0007f	f3 0f 5e c1	 divss	 xmm0, xmm1
  00083	f3 0f 11 45 f8	 movss	 DWORD PTR _engine_rpm$[ebp], xmm0
$LN2@update_tai:

; 1072 : 	}
; 1073 : 
; 1074 : 	rpm = 0.0;

  00088	0f 57 c0	 xorps	 xmm0, xmm0
  0008b	f3 0f 11 45 ec	 movss	 DWORD PTR _rpm$[ebp], xmm0

; 1075 : 
; 1076 : 	if (!current_flight_dynamics->tail_rotor_rpm.damaged)

  00090	a1 00 00 00 00	 mov	 eax, DWORD PTR ?current_flight_dynamics@@3PAUDYNAMICS_TYPE@@A ; current_flight_dynamics
  00095	0f b7 88 5c 1f
	00 00		 movzx	 ecx, WORD PTR [eax+8028]
  0009c	85 c9		 test	 ecx, ecx
  0009e	75 31		 jne	 SHORT $LN5@update_tai

; 1077 : 	{
; 1078 : 		if (!current_flight_dynamics->rotor_brake)

  000a0	a1 00 00 00 00	 mov	 eax, DWORD PTR ?current_flight_dynamics@@3PAUDYNAMICS_TYPE@@A ; current_flight_dynamics
  000a5	8b 88 28 25 00
	00		 mov	 ecx, DWORD PTR [eax+9512]
  000ab	c1 e9 05	 shr	 ecx, 5
  000ae	83 e1 01	 and	 ecx, 1
  000b1	75 0c		 jne	 SHORT $LN4@update_tai

; 1079 : 			rpm = engine_rpm;

  000b3	f3 0f 10 45 f8	 movss	 xmm0, DWORD PTR _engine_rpm$[ebp]
  000b8	f3 0f 11 45 ec	 movss	 DWORD PTR _rpm$[ebp], xmm0

; 1080 : 		// arneh, june 2006 - when rotor is disengaged from engines, main rotor drives tail rotor
; 1081 : 		else

  000bd	eb 12		 jmp	 SHORT $LN5@update_tai
$LN4@update_tai:

; 1082 : 			rpm = current_flight_dynamics->main_rotor_rpm.value;

  000bf	a1 00 00 00 00	 mov	 eax, DWORD PTR ?current_flight_dynamics@@3PAUDYNAMICS_TYPE@@A ; current_flight_dynamics
  000c4	f3 0f 10 80 14
	1e 00 00	 movss	 xmm0, DWORD PTR [eax+7700]
  000cc	f3 0f 11 45 ec	 movss	 DWORD PTR _rpm$[ebp], xmm0
$LN5@update_tai:

; 1083 : 	}
; 1084 : 
; 1085 : 	current_flight_dynamics->tail_rotor_rpm.delta = rpm - current_flight_dynamics->tail_rotor_rpm.value;

  000d1	a1 00 00 00 00	 mov	 eax, DWORD PTR ?current_flight_dynamics@@3PAUDYNAMICS_TYPE@@A ; current_flight_dynamics
  000d6	f3 0f 10 45 ec	 movss	 xmm0, DWORD PTR _rpm$[ebp]
  000db	f3 0f 5c 80 4c
	1f 00 00	 subss	 xmm0, DWORD PTR [eax+8012]
  000e3	8b 0d 00 00 00
	00		 mov	 ecx, DWORD PTR ?current_flight_dynamics@@3PAUDYNAMICS_TYPE@@A ; current_flight_dynamics
  000e9	f3 0f 11 81 50
	1f 00 00	 movss	 DWORD PTR [ecx+8016], xmm0

; 1086 : 
; 1087 : 	current_flight_dynamics->tail_rotor_rpm.delta = bound (current_flight_dynamics->tail_rotor_rpm.delta, -10.0, 10.0);

  000f1	a1 00 00 00 00	 mov	 eax, DWORD PTR ?current_flight_dynamics@@3PAUDYNAMICS_TYPE@@A ; current_flight_dynamics
  000f6	f3 0f 5a 80 50
	1f 00 00	 cvtss2sd xmm0, DWORD PTR [eax+8016]
  000fe	f2 0f 10 0d 00
	00 00 00	 movsd	 xmm1, QWORD PTR __real@c024000000000000
  00106	66 0f 2f c8	 comisd	 xmm1, xmm0
  0010a	76 0f		 jbe	 SHORT $LN9@update_tai
  0010c	f2 0f 10 05 00
	00 00 00	 movsd	 xmm0, QWORD PTR __real@c024000000000000
  00114	f2 0f 11 45 a4	 movsd	 QWORD PTR tv145[ebp], xmm0
  00119	eb 44		 jmp	 SHORT $LN10@update_tai
$LN9@update_tai:
  0011b	8b 0d 00 00 00
	00		 mov	 ecx, DWORD PTR ?current_flight_dynamics@@3PAUDYNAMICS_TYPE@@A ; current_flight_dynamics
  00121	f3 0f 5a 81 50
	1f 00 00	 cvtss2sd xmm0, DWORD PTR [ecx+8016]
  00129	66 0f 2f 05 00
	00 00 00	 comisd	 xmm0, QWORD PTR __real@4024000000000000
  00131	76 0f		 jbe	 SHORT $LN7@update_tai
  00133	f2 0f 10 05 00
	00 00 00	 movsd	 xmm0, QWORD PTR __real@4024000000000000
  0013b	f2 0f 11 45 9c	 movsd	 QWORD PTR tv144[ebp], xmm0
  00140	eb 13		 jmp	 SHORT $LN8@update_tai
$LN7@update_tai:
  00142	8b 15 00 00 00
	00		 mov	 edx, DWORD PTR ?current_flight_dynamics@@3PAUDYNAMICS_TYPE@@A ; current_flight_dynamics
  00148	f3 0f 5a 82 50
	1f 00 00	 cvtss2sd xmm0, DWORD PTR [edx+8016]
  00150	f2 0f 11 45 9c	 movsd	 QWORD PTR tv144[ebp], xmm0
$LN8@update_tai:
  00155	f2 0f 10 45 9c	 movsd	 xmm0, QWORD PTR tv144[ebp]
  0015a	f2 0f 11 45 a4	 movsd	 QWORD PTR tv145[ebp], xmm0
$LN10@update_tai:
  0015f	f2 0f 5a 45 a4	 cvtsd2ss xmm0, QWORD PTR tv145[ebp]
  00164	a1 00 00 00 00	 mov	 eax, DWORD PTR ?current_flight_dynamics@@3PAUDYNAMICS_TYPE@@A ; current_flight_dynamics
  00169	f3 0f 11 80 50
	1f 00 00	 movss	 DWORD PTR [eax+8016], xmm0

; 1088 : 
; 1089 : 	current_flight_dynamics->tail_rotor_rpm.value += current_flight_dynamics->tail_rotor_rpm.delta * get_model_delta_time ();

  00171	a1 00 00 00 00	 mov	 eax, DWORD PTR ?current_flight_dynamics@@3PAUDYNAMICS_TYPE@@A ; current_flight_dynamics
  00176	8b 0d 00 00 00
	00		 mov	 ecx, DWORD PTR ?current_flight_dynamics@@3PAUDYNAMICS_TYPE@@A ; current_flight_dynamics
  0017c	f3 0f 10 80 50
	1f 00 00	 movss	 xmm0, DWORD PTR [eax+8016]
  00184	f3 0f 59 81 90
	00 00 00	 mulss	 xmm0, DWORD PTR [ecx+144]
  0018c	8b 15 00 00 00
	00		 mov	 edx, DWORD PTR ?current_flight_dynamics@@3PAUDYNAMICS_TYPE@@A ; current_flight_dynamics
  00192	f3 0f 58 82 4c
	1f 00 00	 addss	 xmm0, DWORD PTR [edx+8012]
  0019a	a1 00 00 00 00	 mov	 eax, DWORD PTR ?current_flight_dynamics@@3PAUDYNAMICS_TYPE@@A ; current_flight_dynamics
  0019f	f3 0f 11 80 4c
	1f 00 00	 movss	 DWORD PTR [eax+8012], xmm0

; 1090 : 
; 1091 : 	current_flight_dynamics->tail_rotor_rpm.value = bound (current_flight_dynamics->tail_rotor_rpm.value, rpm_min, rpm_max);

  001a7	a1 00 00 00 00	 mov	 eax, DWORD PTR ?current_flight_dynamics@@3PAUDYNAMICS_TYPE@@A ; current_flight_dynamics
  001ac	f3 0f 10 45 f4	 movss	 xmm0, DWORD PTR _rpm_min$[ebp]
  001b1	0f 2f 80 4c 1f
	00 00		 comiss	 xmm0, DWORD PTR [eax+8012]
  001b8	76 0c		 jbe	 SHORT $LN13@update_tai
  001ba	f3 0f 10 45 f4	 movss	 xmm0, DWORD PTR _rpm_min$[ebp]
  001bf	f3 0f 11 45 a8	 movss	 DWORD PTR tv167[ebp], xmm0
  001c4	eb 3d		 jmp	 SHORT $LN14@update_tai
$LN13@update_tai:
  001c6	8b 0d 00 00 00
	00		 mov	 ecx, DWORD PTR ?current_flight_dynamics@@3PAUDYNAMICS_TYPE@@A ; current_flight_dynamics
  001cc	f3 0f 10 81 4c
	1f 00 00	 movss	 xmm0, DWORD PTR [ecx+8012]
  001d4	0f 2f 45 f0	 comiss	 xmm0, DWORD PTR _rpm_max$[ebp]
  001d8	76 0c		 jbe	 SHORT $LN11@update_tai
  001da	f3 0f 10 45 f0	 movss	 xmm0, DWORD PTR _rpm_max$[ebp]
  001df	f3 0f 11 45 a4	 movss	 DWORD PTR tv166[ebp], xmm0
  001e4	eb 13		 jmp	 SHORT $LN12@update_tai
$LN11@update_tai:
  001e6	8b 15 00 00 00
	00		 mov	 edx, DWORD PTR ?current_flight_dynamics@@3PAUDYNAMICS_TYPE@@A ; current_flight_dynamics
  001ec	f3 0f 10 82 4c
	1f 00 00	 movss	 xmm0, DWORD PTR [edx+8012]
  001f4	f3 0f 11 45 a4	 movss	 DWORD PTR tv166[ebp], xmm0
$LN12@update_tai:
  001f9	f3 0f 10 45 a4	 movss	 xmm0, DWORD PTR tv166[ebp]
  001fe	f3 0f 11 45 a8	 movss	 DWORD PTR tv167[ebp], xmm0
$LN14@update_tai:
  00203	a1 00 00 00 00	 mov	 eax, DWORD PTR ?current_flight_dynamics@@3PAUDYNAMICS_TYPE@@A ; current_flight_dynamics
  00208	f3 0f 10 45 a8	 movss	 xmm0, DWORD PTR tv167[ebp]
  0020d	f3 0f 11 80 4c
	1f 00 00	 movss	 DWORD PTR [eax+8012], xmm0

; 1092 : }

  00215	5f		 pop	 edi
  00216	5e		 pop	 esi
  00217	5b		 pop	 ebx
  00218	8b e5		 mov	 esp, ebp
  0021a	5d		 pop	 ebp
  0021b	c3		 ret	 0
?update_tail_rotor_rpm_dynamics@@YGXXZ ENDP		; update_tail_rotor_rpm_dynamics
_TEXT	ENDS
; Function compile flags: /Odtp /ZI
; File c:\users\nhv90\projects\eech\aphavoc\source\gunships\dynamics\comanche\cm_dyn.c
;	COMDAT ?update_main_rotor_rpm_dynamics@@YGXXZ
_TEXT	SEGMENT
tv492 = -176						; size = 8
tv557 = -168						; size = 8
tv481 = -160						; size = 8
tv145 = -160						; size = 8
tv424 = -156						; size = 4
tv559 = -152						; size = 8
tv555 = -152						; size = 8
tv553 = -152						; size = 4
tv335 = -152						; size = 4
tv307 = -152						; size = 4
tv284 = -152						; size = 4
tv195 = -152						; size = 4
tv175 = -152						; size = 4
tv146 = -152						; size = 8
tv417 = -148						; size = 4
tv328 = -148						; size = 4
tv308 = -148						; size = 4
tv285 = -148						; size = 4
tv188 = -148						; size = 4
tv176 = -148						; size = 4
$T1 = -144						; size = 8
$T2 = -136						; size = 8
_profile_drag_factor$3 = -64				; size = 4
_induced_drag_factor$4 = -60				; size = 4
_autorotation_factor$5 = -56				; size = 4
_air_flow$6 = -52					; size = 4
_rpm_ratio$7 = -48					; size = 4
_autorotational_acceleration$8 = -44			; size = 4
_profile_drag$9 = -40					; size = 4
_induced_drag$10 = -36					; size = 4
_rotor_workload$ = -32					; size = 4
_rpm_max$ = -28						; size = 4
_rpm_min$ = -24						; size = 4
_rotor_rpm$ = -20					; size = 4
_blade_pitch$ = -16					; size = 4
_auto_min_delta$ = -12					; size = 4
_max_delta$ = -8					; size = 4
_number_of_engines$ = -4				; size = 4
?update_main_rotor_rpm_dynamics@@YGXXZ PROC		; update_main_rotor_rpm_dynamics, COMDAT

; 907  : {

  00000	55		 push	 ebp
  00001	8b ec		 mov	 ebp, esp
  00003	81 ec b0 00 00
	00		 sub	 esp, 176		; 000000b0H
  00009	53		 push	 ebx
  0000a	56		 push	 esi
  0000b	57		 push	 edi

; 908  : 	int
; 909  : 		number_of_engines;
; 910  : 
; 911  : 	float
; 912  : 		max_delta,
; 913  : 		auto_min_delta,
; 914  : 		blade_pitch,
; 915  : 		rotor_rpm,
; 916  : 		rpm_min,
; 917  : 		rpm_max,
; 918  : 		rotor_workload = 0.0;

  0000c	0f 57 c0	 xorps	 xmm0, xmm0
  0000f	f3 0f 11 45 e0	 movss	 DWORD PTR _rotor_workload$[ebp], xmm0

; 919  : 
; 920  : 	rpm_min = current_flight_dynamics->main_rotor_rpm.min;

  00014	a1 00 00 00 00	 mov	 eax, DWORD PTR ?current_flight_dynamics@@3PAUDYNAMICS_TYPE@@A ; current_flight_dynamics
  00019	f3 0f 10 80 1c
	1e 00 00	 movss	 xmm0, DWORD PTR [eax+7708]
  00021	f3 0f 11 45 e8	 movss	 DWORD PTR _rpm_min$[ebp], xmm0

; 921  : 
; 922  : 	rpm_max = current_flight_dynamics->main_rotor_rpm.max;

  00026	a1 00 00 00 00	 mov	 eax, DWORD PTR ?current_flight_dynamics@@3PAUDYNAMICS_TYPE@@A ; current_flight_dynamics
  0002b	f3 0f 10 80 20
	1e 00 00	 movss	 xmm0, DWORD PTR [eax+7712]
  00033	f3 0f 11 45 e4	 movss	 DWORD PTR _rpm_max$[ebp], xmm0

; 923  : 	max_delta = 100.0 / 20.0;

  00038	f3 0f 10 05 00
	00 00 00	 movss	 xmm0, DWORD PTR __real@40a00000
  00040	f3 0f 11 45 f8	 movss	 DWORD PTR _max_delta$[ebp], xmm0

; 924  : 	auto_min_delta = -100.0 / 4.0;

  00045	f3 0f 10 05 00
	00 00 00	 movss	 xmm0, DWORD PTR __real@c1c80000
  0004d	f3 0f 11 45 f4	 movss	 DWORD PTR _auto_min_delta$[ebp], xmm0

; 925  : 
; 926  : 	blade_pitch = ((current_flight_dynamics->main_blade_pitch.value - current_flight_dynamics->main_blade_pitch.min) /

  00052	a1 00 00 00 00	 mov	 eax, DWORD PTR ?current_flight_dynamics@@3PAUDYNAMICS_TYPE@@A ; current_flight_dynamics
  00057	8b 0d 00 00 00
	00		 mov	 ecx, DWORD PTR ?current_flight_dynamics@@3PAUDYNAMICS_TYPE@@A ; current_flight_dynamics
  0005d	f3 0f 10 80 8c
	1e 00 00	 movss	 xmm0, DWORD PTR [eax+7820]
  00065	f3 0f 5c 81 94
	1e 00 00	 subss	 xmm0, DWORD PTR [ecx+7828]
  0006d	8b 15 00 00 00
	00		 mov	 edx, DWORD PTR ?current_flight_dynamics@@3PAUDYNAMICS_TYPE@@A ; current_flight_dynamics
  00073	a1 00 00 00 00	 mov	 eax, DWORD PTR ?current_flight_dynamics@@3PAUDYNAMICS_TYPE@@A ; current_flight_dynamics
  00078	f3 0f 10 8a 98
	1e 00 00	 movss	 xmm1, DWORD PTR [edx+7832]
  00080	f3 0f 5c 88 94
	1e 00 00	 subss	 xmm1, DWORD PTR [eax+7828]
  00088	f3 0f 5e c1	 divss	 xmm0, xmm1
  0008c	f3 0f 11 45 f0	 movss	 DWORD PTR _blade_pitch$[ebp], xmm0

; 927  : 						(current_flight_dynamics->main_blade_pitch.max - current_flight_dynamics->main_blade_pitch.min));
; 928  : 
; 929  : 	if ((!current_flight_dynamics->rotor_brake) && (!current_flight_dynamics->main_rotor_rpm.damaged))

  00091	a1 00 00 00 00	 mov	 eax, DWORD PTR ?current_flight_dynamics@@3PAUDYNAMICS_TYPE@@A ; current_flight_dynamics
  00096	8b 88 28 25 00
	00		 mov	 ecx, DWORD PTR [eax+9512]
  0009c	c1 e9 05	 shr	 ecx, 5
  0009f	83 e1 01	 and	 ecx, 1
  000a2	0f 85 1c 02 00
	00		 jne	 $LN2@update_mai
  000a8	a1 00 00 00 00	 mov	 eax, DWORD PTR ?current_flight_dynamics@@3PAUDYNAMICS_TYPE@@A ; current_flight_dynamics
  000ad	0f b7 88 24 1e
	00 00		 movzx	 ecx, WORD PTR [eax+7716]
  000b4	85 c9		 test	 ecx, ecx
  000b6	0f 85 08 02 00
	00		 jne	 $LN2@update_mai

; 930  : 	{
; 931  : 
; 932  : 		// brake off
; 933  : 
; 934  : 		rotor_rpm = 0.0;

  000bc	0f 57 c0	 xorps	 xmm0, xmm0
  000bf	f3 0f 11 45 ec	 movss	 DWORD PTR _rotor_rpm$[ebp], xmm0

; 935  : 
; 936  : 		number_of_engines = 2 - current_flight_dynamics->left_engine_rpm.damaged - current_flight_dynamics->right_engine_rpm.damaged;

  000c4	a1 00 00 00 00	 mov	 eax, DWORD PTR ?current_flight_dynamics@@3PAUDYNAMICS_TYPE@@A ; current_flight_dynamics
  000c9	0f b7 88 8c 1c
	00 00		 movzx	 ecx, WORD PTR [eax+7308]
  000d0	ba 02 00 00 00	 mov	 edx, 2
  000d5	2b d1		 sub	 edx, ecx
  000d7	a1 00 00 00 00	 mov	 eax, DWORD PTR ?current_flight_dynamics@@3PAUDYNAMICS_TYPE@@A ; current_flight_dynamics
  000dc	0f b7 88 ec 1c
	00 00		 movzx	 ecx, WORD PTR [eax+7404]
  000e3	2b d1		 sub	 edx, ecx
  000e5	89 55 fc	 mov	 DWORD PTR _number_of_engines$[ebp], edx

; 937  : 
; 938  : 		//Werewolf - Rotor RPM depending on workload
; 939  : 		if (command_line_dynamics_advanced_engine_model == TRUE)

  000e8	83 3d 00 00 00
	00 01		 cmp	 DWORD PTR ?command_line_dynamics_advanced_engine_model@@3HA, 1 ; command_line_dynamics_advanced_engine_model
  000ef	0f 85 d8 00 00
	00		 jne	 $LN4@update_mai

; 940  : 		{
; 941  : 		  rotor_workload = ((float) fabs (current_flight_dynamics->main_rotor_pitch_angle.value) + (float) fabs (current_flight_dynamics->main_rotor_roll_angle.value))

  000f5	a1 00 00 00 00	 mov	 eax, DWORD PTR ?current_flight_dynamics@@3PAUDYNAMICS_TYPE@@A ; current_flight_dynamics
  000fa	51		 push	 ecx
  000fb	f3 0f 10 80 fc
	1d 00 00	 movss	 xmm0, DWORD PTR [eax+7676]
  00103	f3 0f 11 04 24	 movss	 DWORD PTR [esp], xmm0
  00108	e8 00 00 00 00	 call	 ?fabs@@YGMM@Z		; fabs
  0010d	d9 9d 6c ff ff
	ff		 fstp	 DWORD PTR tv417[ebp]
  00113	f3 0f 10 85 6c
	ff ff ff	 movss	 xmm0, DWORD PTR tv417[ebp]
  0011b	8b 0d 00 00 00
	00		 mov	 ecx, DWORD PTR ?current_flight_dynamics@@3PAUDYNAMICS_TYPE@@A ; current_flight_dynamics
  00121	51		 push	 ecx
  00122	f3 0f 10 89 e4
	1d 00 00	 movss	 xmm1, DWORD PTR [ecx+7652]
  0012a	f3 0f 11 0c 24	 movss	 DWORD PTR [esp], xmm1
  0012f	f3 0f 11 85 68
	ff ff ff	 movss	 DWORD PTR tv553[ebp], xmm0
  00137	e8 00 00 00 00	 call	 ?fabs@@YGMM@Z		; fabs
  0013c	d9 9d 64 ff ff
	ff		 fstp	 DWORD PTR tv424[ebp]
  00142	f3 0f 10 85 68
	ff ff ff	 movss	 xmm0, DWORD PTR tv553[ebp]
  0014a	f3 0f 58 85 64
	ff ff ff	 addss	 xmm0, DWORD PTR tv424[ebp]
  00152	f3 0f 5a c0	 cvtss2sd xmm0, xmm0
  00156	f2 0f 59 05 00
	00 00 00	 mulsd	 xmm0, QWORD PTR __real@403e000000000000
  0015e	f2 0f 5a c0	 cvtsd2ss xmm0, xmm0
  00162	f3 0f 11 45 e0	 movss	 DWORD PTR _rotor_workload$[ebp], xmm0

; 942  : 				  * 30.0;
; 943  : 		  rotor_workload = bound (rotor_workload, 0.0, 100.0);

  00167	f3 0f 5a 45 e0	 cvtss2sd xmm0, DWORD PTR _rotor_workload$[ebp]
  0016c	0f 57 c9	 xorps	 xmm1, xmm1
  0016f	66 0f 2f c8	 comisd	 xmm1, xmm0
  00173	76 0d		 jbe	 SHORT $LN17@update_mai
  00175	0f 57 c0	 xorps	 xmm0, xmm0
  00178	f2 0f 11 85 68
	ff ff ff	 movsd	 QWORD PTR tv146[ebp], xmm0
  00180	eb 3e		 jmp	 SHORT $LN18@update_mai
$LN17@update_mai:
  00182	f3 0f 5a 45 e0	 cvtss2sd xmm0, DWORD PTR _rotor_workload$[ebp]
  00187	66 0f 2f 05 00
	00 00 00	 comisd	 xmm0, QWORD PTR __real@4059000000000000
  0018f	76 12		 jbe	 SHORT $LN15@update_mai
  00191	f2 0f 10 05 00
	00 00 00	 movsd	 xmm0, QWORD PTR __real@4059000000000000
  00199	f2 0f 11 85 60
	ff ff ff	 movsd	 QWORD PTR tv145[ebp], xmm0
  001a1	eb 0d		 jmp	 SHORT $LN16@update_mai
$LN15@update_mai:
  001a3	f3 0f 5a 45 e0	 cvtss2sd xmm0, DWORD PTR _rotor_workload$[ebp]
  001a8	f2 0f 11 85 60
	ff ff ff	 movsd	 QWORD PTR tv145[ebp], xmm0
$LN16@update_mai:
  001b0	f2 0f 10 85 60
	ff ff ff	 movsd	 xmm0, QWORD PTR tv145[ebp]
  001b8	f2 0f 11 85 68
	ff ff ff	 movsd	 QWORD PTR tv146[ebp], xmm0
$LN18@update_mai:
  001c0	f2 0f 5a 85 68
	ff ff ff	 cvtsd2ss xmm0, QWORD PTR tv146[ebp]
  001c8	f3 0f 11 45 e0	 movss	 DWORD PTR _rotor_workload$[ebp], xmm0
$LN4@update_mai:

; 944  : 		  //debug_log ( "Rotor Workload=%.2f ", rotor_workload);
; 945  : 		}
; 946  : 
; 947  : 		if (number_of_engines)

  001cd	83 7d fc 00	 cmp	 DWORD PTR _number_of_engines$[ebp], 0
  001d1	74 3e		 je	 SHORT $LN6@update_mai

; 948  : 		{
; 949  : 			// arneh - rotor spins at the speed of the fastest engine
; 950  : 			rotor_rpm = max(current_flight_dynamics->left_engine_rpm.value, current_flight_dynamics->right_engine_rpm.value);

  001d3	a1 00 00 00 00	 mov	 eax, DWORD PTR ?current_flight_dynamics@@3PAUDYNAMICS_TYPE@@A ; current_flight_dynamics
  001d8	05 dc 1c 00 00	 add	 eax, 7388		; 00001cdcH
  001dd	50		 push	 eax
  001de	8b 0d 00 00 00
	00		 mov	 ecx, DWORD PTR ?current_flight_dynamics@@3PAUDYNAMICS_TYPE@@A ; current_flight_dynamics
  001e4	81 c1 7c 1c 00
	00		 add	 ecx, 7292		; 00001c7cH
  001ea	51		 push	 ecx
  001eb	e8 00 00 00 00	 call	 ??$max@M@std@@YGABMABM0@Z ; std::max<float>
  001f0	f3 0f 10 00	 movss	 xmm0, DWORD PTR [eax]
  001f4	f3 0f 11 45 ec	 movss	 DWORD PTR _rotor_rpm$[ebp], xmm0

; 951  : 			if (command_line_dynamics_advanced_engine_model == TRUE)

  001f9	83 3d 00 00 00
	00 01		 cmp	 DWORD PTR ?command_line_dynamics_advanced_engine_model@@3HA, 1 ; command_line_dynamics_advanced_engine_model
  00200	75 0f		 jne	 SHORT $LN6@update_mai

; 952  : 			  rotor_rpm -= rotor_workload; //Werewolf

  00202	f3 0f 10 45 ec	 movss	 xmm0, DWORD PTR _rotor_rpm$[ebp]
  00207	f3 0f 5c 45 e0	 subss	 xmm0, DWORD PTR _rotor_workload$[ebp]
  0020c	f3 0f 11 45 ec	 movss	 DWORD PTR _rotor_rpm$[ebp], xmm0
$LN6@update_mai:

; 953  : 		}
; 954  : 
; 955  : 		current_flight_dynamics->main_rotor_rpm.delta = rotor_rpm - current_flight_dynamics->main_rotor_rpm.value;

  00211	a1 00 00 00 00	 mov	 eax, DWORD PTR ?current_flight_dynamics@@3PAUDYNAMICS_TYPE@@A ; current_flight_dynamics
  00216	f3 0f 10 45 ec	 movss	 xmm0, DWORD PTR _rotor_rpm$[ebp]
  0021b	f3 0f 5c 80 14
	1e 00 00	 subss	 xmm0, DWORD PTR [eax+7700]
  00223	8b 0d 00 00 00
	00		 mov	 ecx, DWORD PTR ?current_flight_dynamics@@3PAUDYNAMICS_TYPE@@A ; current_flight_dynamics
  00229	f3 0f 11 81 18
	1e 00 00	 movss	 DWORD PTR [ecx+7704], xmm0

; 956  : 		current_flight_dynamics->main_rotor_rpm.delta = bound (current_flight_dynamics->main_rotor_rpm.delta, -max_delta, max_delta);

  00231	f3 0f 10 45 f8	 movss	 xmm0, DWORD PTR _max_delta$[ebp]
  00236	0f 57 05 00 00
	00 00		 xorps	 xmm0, DWORD PTR __xmm@80000000800000008000000080000000
  0023d	a1 00 00 00 00	 mov	 eax, DWORD PTR ?current_flight_dynamics@@3PAUDYNAMICS_TYPE@@A ; current_flight_dynamics
  00242	0f 2f 80 18 1e
	00 00		 comiss	 xmm0, DWORD PTR [eax+7704]
  00249	76 16		 jbe	 SHORT $LN21@update_mai
  0024b	f3 0f 10 45 f8	 movss	 xmm0, DWORD PTR _max_delta$[ebp]
  00250	0f 57 05 00 00
	00 00		 xorps	 xmm0, DWORD PTR __xmm@80000000800000008000000080000000
  00257	f3 0f 11 85 6c
	ff ff ff	 movss	 DWORD PTR tv176[ebp], xmm0
  0025f	eb 49		 jmp	 SHORT $LN22@update_mai
$LN21@update_mai:
  00261	8b 0d 00 00 00
	00		 mov	 ecx, DWORD PTR ?current_flight_dynamics@@3PAUDYNAMICS_TYPE@@A ; current_flight_dynamics
  00267	f3 0f 10 81 18
	1e 00 00	 movss	 xmm0, DWORD PTR [ecx+7704]
  0026f	0f 2f 45 f8	 comiss	 xmm0, DWORD PTR _max_delta$[ebp]
  00273	76 0f		 jbe	 SHORT $LN19@update_mai
  00275	f3 0f 10 45 f8	 movss	 xmm0, DWORD PTR _max_delta$[ebp]
  0027a	f3 0f 11 85 68
	ff ff ff	 movss	 DWORD PTR tv175[ebp], xmm0
  00282	eb 16		 jmp	 SHORT $LN20@update_mai
$LN19@update_mai:
  00284	8b 15 00 00 00
	00		 mov	 edx, DWORD PTR ?current_flight_dynamics@@3PAUDYNAMICS_TYPE@@A ; current_flight_dynamics
  0028a	f3 0f 10 82 18
	1e 00 00	 movss	 xmm0, DWORD PTR [edx+7704]
  00292	f3 0f 11 85 68
	ff ff ff	 movss	 DWORD PTR tv175[ebp], xmm0
$LN20@update_mai:
  0029a	f3 0f 10 85 68
	ff ff ff	 movss	 xmm0, DWORD PTR tv175[ebp]
  002a2	f3 0f 11 85 6c
	ff ff ff	 movss	 DWORD PTR tv176[ebp], xmm0
$LN22@update_mai:
  002aa	a1 00 00 00 00	 mov	 eax, DWORD PTR ?current_flight_dynamics@@3PAUDYNAMICS_TYPE@@A ; current_flight_dynamics
  002af	f3 0f 10 85 6c
	ff ff ff	 movss	 xmm0, DWORD PTR tv176[ebp]
  002b7	f3 0f 11 80 18
	1e 00 00	 movss	 DWORD PTR [eax+7704], xmm0

; 957  : 	}
; 958  : 	else

  002bf	e9 9e 03 00 00	 jmp	 $LN8@update_mai
$LN2@update_mai:

; 959  : 	{
; 960  : 		// arneh - rotor brake on (rotor disengaged)
; 961  : 		// modelling of how autorotation affects rotor RPM
; 962  : 
; 963  : 		float
; 964  : 			induced_drag, profile_drag,
; 965  : 			autorotational_acceleration,
; 966  : 			rpm_ratio, air_flow,
; 967  : 			autorotation_factor = 1.6,

  002c4	f3 0f 10 05 00
	00 00 00	 movss	 xmm0, DWORD PTR __real@3fcccccd
  002cc	f3 0f 11 45 c8	 movss	 DWORD PTR _autorotation_factor$5[ebp], xmm0

; 968  : 			induced_drag_factor = 8.0,

  002d1	f3 0f 10 05 00
	00 00 00	 movss	 xmm0, DWORD PTR __real@41000000
  002d9	f3 0f 11 45 c4	 movss	 DWORD PTR _induced_drag_factor$4[ebp], xmm0

; 969  : 			profile_drag_factor = 2.0;

  002de	f3 0f 10 05 00
	00 00 00	 movss	 xmm0, DWORD PTR __real@40000000
  002e6	f3 0f 11 45 c0	 movss	 DWORD PTR _profile_drag_factor$3[ebp], xmm0

; 970  : 
; 971  : 
; 972  : 		// when not engaged to engine, rpm may exceed max
; 973  : 		// (but rotor will fail before reaching the new limit)
; 974  : 		rpm_max *= 1.5;

  002eb	f3 0f 5a 45 e4	 cvtss2sd xmm0, DWORD PTR _rpm_max$[ebp]
  002f0	f2 0f 59 05 00
	00 00 00	 mulsd	 xmm0, QWORD PTR __real@3ff8000000000000
  002f8	f2 0f 5a c0	 cvtsd2ss xmm0, xmm0
  002fc	f3 0f 11 45 e4	 movss	 DWORD PTR _rpm_max$[ebp], xmm0

; 975  : 		rpm_ratio = current_flight_dynamics->main_rotor_rpm.value / rpm_max;

  00301	a1 00 00 00 00	 mov	 eax, DWORD PTR ?current_flight_dynamics@@3PAUDYNAMICS_TYPE@@A ; current_flight_dynamics
  00306	f3 0f 10 80 14
	1e 00 00	 movss	 xmm0, DWORD PTR [eax+7700]
  0030e	f3 0f 5e 45 e4	 divss	 xmm0, DWORD PTR _rpm_max$[ebp]
  00313	f3 0f 11 45 d0	 movss	 DWORD PTR _rpm_ratio$7[ebp], xmm0

; 976  : 
; 977  : 		if (get_local_entity_int_value (get_gunship_entity (), INT_TYPE_AIRBORNE_AIRCRAFT))

  00318	83 3d 00 00 00
	00 00		 cmp	 DWORD PTR ?gunship_entity@@3PAUENTITY@@A, 0 ; gunship_entity
  0031f	74 0f		 je	 SHORT $LN23@update_mai
  00321	a1 00 00 00 00	 mov	 eax, DWORD PTR ?gunship_entity@@3PAUENTITY@@A ; gunship_entity
  00326	8b 08		 mov	 ecx, DWORD PTR [eax]
  00328	89 8d 6c ff ff
	ff		 mov	 DWORD PTR tv188[ebp], ecx
  0032e	eb 20		 jmp	 SHORT $LN24@update_mai
$LN23@update_mai:
  00330	68 d1 03 00 00	 push	 977			; 000003d1H
  00335	68 00 00 00 00	 push	 OFFSET ??_C@_0FA@IFJNMDIM@c?3?2users?2nhv90?2projects?2eech?2ap@
  0033a	8b 15 00 00 00
	00		 mov	 edx, DWORD PTR ?null_entity_pointer_message@@3PBDB ; null_entity_pointer_message
  00340	52		 push	 edx
  00341	e8 00 00 00 00	 call	 ?process_assert@@YGXPBD0H@Z ; process_assert
  00346	c7 85 6c ff ff
	ff 00 00 00 00	 mov	 DWORD PTR tv188[ebp], 0
$LN24@update_mai:
  00350	b8 01 00 00 00	 mov	 eax, 1
  00355	85 c0		 test	 eax, eax
  00357	74 0c		 je	 SHORT $LN25@update_mai
  00359	c7 85 68 ff ff
	ff 04 00 00 00	 mov	 DWORD PTR tv195[ebp], 4
  00363	eb 20		 jmp	 SHORT $LN26@update_mai
$LN25@update_mai:
  00365	68 d1 03 00 00	 push	 977			; 000003d1H
  0036a	68 00 00 00 00	 push	 OFFSET ??_C@_0FA@IFJNMDIM@c?3?2users?2nhv90?2projects?2eech?2ap@
  0036f	8b 0d 00 00 00
	00		 mov	 ecx, DWORD PTR ?overload_invalid_int_type_message@@3PBDB ; overload_invalid_int_type_message
  00375	51		 push	 ecx
  00376	e8 00 00 00 00	 call	 ?process_assert@@YGXPBD0H@Z ; process_assert
  0037b	c7 85 68 ff ff
	ff 00 00 00 00	 mov	 DWORD PTR tv195[ebp], 0
$LN26@update_mai:
  00385	6a 04		 push	 4
  00387	8b 15 00 00 00
	00		 mov	 edx, DWORD PTR ?gunship_entity@@3PAUENTITY@@A ; gunship_entity
  0038d	52		 push	 edx
  0038e	69 85 6c ff ff
	ff 5c 04 00 00	 imul	 eax, DWORD PTR tv188[ebp], 1116
  00398	8b 8d 68 ff ff
	ff		 mov	 ecx, DWORD PTR tv195[ebp]
  0039e	8b 94 88 00 00
	00 00		 mov	 edx, DWORD PTR ?fn_get_local_entity_int_value@@3PAY0BBH@P6GHPAUENTITY@@W4INT_TYPES@@@ZA[eax+ecx*4]
  003a5	ff d2		 call	 edx
  003a7	85 c0		 test	 eax, eax
  003a9	0f 84 9e 02 00
	00		 je	 $LN7@update_mai

; 978  : 		{
; 979  : 			air_flow = get_3d_vector_magnitude (&current_flight_dynamics->model_motion_vector);

  003af	a1 00 00 00 00	 mov	 eax, DWORD PTR ?current_flight_dynamics@@3PAUDYNAMICS_TYPE@@A ; current_flight_dynamics
  003b4	05 30 1c 00 00	 add	 eax, 7216		; 00001c30H
  003b9	50		 push	 eax
  003ba	e8 00 00 00 00	 call	 ?get_3d_vector_magnitude@@YGMPBUVEC3D@@@Z ; get_3d_vector_magnitude
  003bf	d9 5d cc	 fstp	 DWORD PTR _air_flow$6[ebp]

; 980  : 
; 981  : 			// induced drag on rotor.  drops sharpy up to 60kts, slowly after that
; 982  : 			// clean air produces less drag, hence a hover (where lots of vortexes
; 983  : 			// creates dirty air) has the most induced drag
; 984  : 			induced_drag = blade_pitch * (1.0 - rpm_ratio);

  003c2	f3 0f 5a 45 f0	 cvtss2sd xmm0, DWORD PTR _blade_pitch$[ebp]
  003c7	f3 0f 5a 4d d0	 cvtss2sd xmm1, DWORD PTR _rpm_ratio$7[ebp]
  003cc	f2 0f 10 15 00
	00 00 00	 movsd	 xmm2, QWORD PTR __real@3ff0000000000000
  003d4	f2 0f 5c d1	 subsd	 xmm2, xmm1
  003d8	f2 0f 59 c2	 mulsd	 xmm0, xmm2
  003dc	f2 0f 5a c0	 cvtsd2ss xmm0, xmm0
  003e0	f3 0f 11 45 dc	 movss	 DWORD PTR _induced_drag$10[ebp], xmm0

; 985  : 			if (air_flow < knots_to_metres_per_second(60))

  003e5	f3 0f 10 05 00
	00 00 00	 movss	 xmm0, DWORD PTR __real@41f760a7
  003ed	0f 2f 45 cc	 comiss	 xmm0, DWORD PTR _air_flow$6[ebp]
  003f1	76 39		 jbe	 SHORT $LN9@update_mai

; 986  : 				induced_drag *= 1.0 - (air_flow / knots_to_metres_per_second(60) * 0.6);

  003f3	f3 0f 10 45 cc	 movss	 xmm0, DWORD PTR _air_flow$6[ebp]
  003f8	f3 0f 5e 05 00
	00 00 00	 divss	 xmm0, DWORD PTR __real@41f760a7
  00400	f3 0f 5a c0	 cvtss2sd xmm0, xmm0
  00404	f2 0f 59 05 00
	00 00 00	 mulsd	 xmm0, QWORD PTR __real@3fe3333333333333
  0040c	f2 0f 10 0d 00
	00 00 00	 movsd	 xmm1, QWORD PTR __real@3ff0000000000000
  00414	f2 0f 5c c8	 subsd	 xmm1, xmm0
  00418	f3 0f 5a 45 dc	 cvtss2sd xmm0, DWORD PTR _induced_drag$10[ebp]
  0041d	f2 0f 59 c1	 mulsd	 xmm0, xmm1
  00421	f2 0f 5a c0	 cvtsd2ss xmm0, xmm0
  00425	f3 0f 11 45 dc	 movss	 DWORD PTR _induced_drag$10[ebp], xmm0

; 987  : 			else

  0042a	eb 37		 jmp	 SHORT $LN10@update_mai
$LN9@update_mai:

; 988  : 				induced_drag *= 0.6 - (air_flow / knots_to_metres_per_second(200) * 0.3);

  0042c	f3 0f 10 45 cc	 movss	 xmm0, DWORD PTR _air_flow$6[ebp]
  00431	f3 0f 5e 05 00
	00 00 00	 divss	 xmm0, DWORD PTR __real@42ce25e0
  00439	f3 0f 5a c0	 cvtss2sd xmm0, xmm0
  0043d	f2 0f 59 05 00
	00 00 00	 mulsd	 xmm0, QWORD PTR __real@3fd3333333333333
  00445	f2 0f 10 0d 00
	00 00 00	 movsd	 xmm1, QWORD PTR __real@3fe3333333333333
  0044d	f2 0f 5c c8	 subsd	 xmm1, xmm0
  00451	f3 0f 5a 45 dc	 cvtss2sd xmm0, DWORD PTR _induced_drag$10[ebp]
  00456	f2 0f 59 c1	 mulsd	 xmm0, xmm1
  0045a	f2 0f 5a c0	 cvtsd2ss xmm0, xmm0
  0045e	f3 0f 11 45 dc	 movss	 DWORD PTR _induced_drag$10[ebp], xmm0
$LN10@update_mai:

; 989  : 
; 990  : 			// profile drag increases with speed and rotor rpm
; 991  : 			profile_drag = rpm_ratio * (0.5 + 0.5 * blade_pitch) *

  00463	f3 0f 5a 45 d0	 cvtss2sd xmm0, DWORD PTR _rpm_ratio$7[ebp]
  00468	f3 0f 5a 4d f0	 cvtss2sd xmm1, DWORD PTR _blade_pitch$[ebp]
  0046d	f2 0f 59 0d 00
	00 00 00	 mulsd	 xmm1, QWORD PTR __real@3fe0000000000000
  00475	f2 0f 58 0d 00
	00 00 00	 addsd	 xmm1, QWORD PTR __real@3fe0000000000000
  0047d	f2 0f 59 c1	 mulsd	 xmm0, xmm1
  00481	a1 00 00 00 00	 mov	 eax, DWORD PTR ?current_flight_dynamics@@3PAUDYNAMICS_TYPE@@A ; current_flight_dynamics
  00486	8b 0d 00 00 00
	00		 mov	 ecx, DWORD PTR ?current_flight_dynamics@@3PAUDYNAMICS_TYPE@@A ; current_flight_dynamics
  0048c	f3 0f 10 88 9c
	20 00 00	 movss	 xmm1, DWORD PTR [eax+8348]
  00494	f3 0f 5e 89 a8
	20 00 00	 divss	 xmm1, DWORD PTR [ecx+8360]
  0049c	51		 push	 ecx
  0049d	f3 0f 11 0c 24	 movss	 DWORD PTR [esp], xmm1
  004a2	f2 0f 11 85 68
	ff ff ff	 movsd	 QWORD PTR tv555[ebp], xmm0
  004aa	e8 00 00 00 00	 call	 ?fabs@@YGMM@Z		; fabs
  004af	dd 9d 60 ff ff
	ff		 fstp	 QWORD PTR tv481[ebp]
  004b5	f2 0f 10 85 60
	ff ff ff	 movsd	 xmm0, QWORD PTR tv481[ebp]
  004bd	f2 0f 59 05 00
	00 00 00	 mulsd	 xmm0, QWORD PTR __real@3fd999999999999a
  004c5	f2 0f 58 05 00
	00 00 00	 addsd	 xmm0, QWORD PTR __real@3fe0000000000000
  004cd	8b 15 00 00 00
	00		 mov	 edx, DWORD PTR ?current_flight_dynamics@@3PAUDYNAMICS_TYPE@@A ; current_flight_dynamics
  004d3	a1 00 00 00 00	 mov	 eax, DWORD PTR ?current_flight_dynamics@@3PAUDYNAMICS_TYPE@@A ; current_flight_dynamics
  004d8	f3 0f 10 8a 6c
	20 00 00	 movss	 xmm1, DWORD PTR [edx+8300]
  004e0	f3 0f 5e 88 a8
	20 00 00	 divss	 xmm1, DWORD PTR [eax+8360]
  004e8	51		 push	 ecx
  004e9	f3 0f 11 0c 24	 movss	 DWORD PTR [esp], xmm1
  004ee	f2 0f 11 85 58
	ff ff ff	 movsd	 QWORD PTR tv557[ebp], xmm0
  004f6	e8 00 00 00 00	 call	 ?fabs@@YGMM@Z		; fabs
  004fb	dd 9d 50 ff ff
	ff		 fstp	 QWORD PTR tv492[ebp]
  00501	f2 0f 10 85 58
	ff ff ff	 movsd	 xmm0, QWORD PTR tv557[ebp]
  00509	f2 0f 58 85 50
	ff ff ff	 addsd	 xmm0, QWORD PTR tv492[ebp]
  00511	f2 0f 10 8d 68
	ff ff ff	 movsd	 xmm1, QWORD PTR tv555[ebp]
  00519	f2 0f 59 c8	 mulsd	 xmm1, xmm0
  0051d	f2 0f 5a c1	 cvtsd2ss xmm0, xmm1
  00521	f3 0f 11 45 d8	 movss	 DWORD PTR _profile_drag$9[ebp], xmm0

; 992  : 				(0.5 + 0.4 * fabs(current_flight_dynamics->velocity_z.value / current_flight_dynamics->velocity_z.max) +
; 993  : 				fabs(current_flight_dynamics->velocity_x.value / current_flight_dynamics->velocity_z.max));
; 994  : 
; 995  : 			// function of vertical speed through air, but adjusted for blade pitch, which reduces the autorotational part of the rotor
; 996  : 			// at about 10 m/s drag and autorotational acceleration should cancel each other out (all other things being ideal)
; 997  : 			autorotational_acceleration = current_flight_dynamics->g_force.value *

  00526	0f 57 c0	 xorps	 xmm0, xmm0
  00529	f2 0f 11 85 78
	ff ff ff	 movsd	 QWORD PTR $T2[ebp], xmm0
  00531	f3 0f 5a 45 f0	 cvtss2sd xmm0, DWORD PTR _blade_pitch$[ebp]
  00536	f2 0f 10 0d 00
	00 00 00	 movsd	 xmm1, QWORD PTR __real@3fe3333333333333
  0053e	f2 0f 5c c8	 subsd	 xmm1, xmm0
  00542	f2 0f 11 8d 70
	ff ff ff	 movsd	 QWORD PTR $T1[ebp], xmm1
  0054a	a1 00 00 00 00	 mov	 eax, DWORD PTR ?current_flight_dynamics@@3PAUDYNAMICS_TYPE@@A ; current_flight_dynamics
  0054f	f3 0f 5a 80 5c
	24 00 00	 cvtss2sd xmm0, DWORD PTR [eax+9308]
  00557	8b 0d 00 00 00
	00		 mov	 ecx, DWORD PTR ?current_flight_dynamics@@3PAUDYNAMICS_TYPE@@A ; current_flight_dynamics
  0055d	f3 0f 5a 89 84
	20 00 00	 cvtss2sd xmm1, DWORD PTR [ecx+8324]
  00565	f2 0f 5e 0d 00
	00 00 00	 divsd	 xmm1, QWORD PTR __real@4024000000000000
  0056d	0f 57 0d 00 00
	00 00		 xorps	 xmm1, QWORD PTR __xmm@80000000000000008000000000000000
  00574	f2 0f 59 c1	 mulsd	 xmm0, xmm1
  00578	8d 95 78 ff ff
	ff		 lea	 edx, DWORD PTR $T2[ebp]
  0057e	52		 push	 edx
  0057f	8d 85 70 ff ff
	ff		 lea	 eax, DWORD PTR $T1[ebp]
  00585	50		 push	 eax
  00586	f2 0f 11 85 68
	ff ff ff	 movsd	 QWORD PTR tv559[ebp], xmm0
  0058e	e8 00 00 00 00	 call	 ??$max@N@std@@YGABNABN0@Z ; std::max<double>
  00593	f2 0f 10 85 68
	ff ff ff	 movsd	 xmm0, QWORD PTR tv559[ebp]
  0059b	f2 0f 59 00	 mulsd	 xmm0, QWORD PTR [eax]
  0059f	f2 0f 5a c0	 cvtsd2ss xmm0, xmm0
  005a3	f3 0f 11 45 d4	 movss	 DWORD PTR _autorotational_acceleration$8[ebp], xmm0

; 998  : 				-(current_flight_dynamics->velocity_y.value / 10.0) *
; 999  : 				max(0.6 - blade_pitch, 0.0);
; 1000 : 
; 1001 : 			// calulate change in rotor RPM.  The factors for autorotational_acceleration,
; 1002 : 			// profile_drag and induced_drag have been arrived at by experimentation.
; 1003 : 			// Feel free to change the factors if you feel they are wrong.
; 1004 : 			current_flight_dynamics->main_rotor_rpm.delta = max_delta *

  005a8	f3 0f 10 45 c8	 movss	 xmm0, DWORD PTR _autorotation_factor$5[ebp]
  005ad	f3 0f 59 45 d4	 mulss	 xmm0, DWORD PTR _autorotational_acceleration$8[ebp]
  005b2	f3 0f 10 4d c0	 movss	 xmm1, DWORD PTR _profile_drag_factor$3[ebp]
  005b7	f3 0f 59 4d d8	 mulss	 xmm1, DWORD PTR _profile_drag$9[ebp]
  005bc	f3 0f 5c c1	 subss	 xmm0, xmm1
  005c0	f3 0f 10 4d c4	 movss	 xmm1, DWORD PTR _induced_drag_factor$4[ebp]
  005c5	f3 0f 59 4d dc	 mulss	 xmm1, DWORD PTR _induced_drag$10[ebp]
  005ca	f3 0f 5c c1	 subss	 xmm0, xmm1
  005ce	f3 0f 59 45 f8	 mulss	 xmm0, DWORD PTR _max_delta$[ebp]
  005d3	a1 00 00 00 00	 mov	 eax, DWORD PTR ?current_flight_dynamics@@3PAUDYNAMICS_TYPE@@A ; current_flight_dynamics
  005d8	f3 0f 11 80 18
	1e 00 00	 movss	 DWORD PTR [eax+7704], xmm0

; 1005 : 				(autorotation_factor * autorotational_acceleration -
; 1006 : 				 profile_drag_factor * profile_drag -
; 1007 : 				 induced_drag_factor * induced_drag);
; 1008 : 
; 1009 : 			bound (current_flight_dynamics->main_rotor_rpm.delta, auto_min_delta, max_delta);

  005e0	a1 00 00 00 00	 mov	 eax, DWORD PTR ?current_flight_dynamics@@3PAUDYNAMICS_TYPE@@A ; current_flight_dynamics
  005e5	f3 0f 10 45 f4	 movss	 xmm0, DWORD PTR _auto_min_delta$[ebp]
  005ea	0f 2f 80 18 1e
	00 00		 comiss	 xmm0, DWORD PTR [eax+7704]
  005f1	76 0f		 jbe	 SHORT $LN29@update_mai
  005f3	f3 0f 10 45 f4	 movss	 xmm0, DWORD PTR _auto_min_delta$[ebp]
  005f8	f3 0f 11 85 6c
	ff ff ff	 movss	 DWORD PTR tv285[ebp], xmm0
  00600	eb 49		 jmp	 SHORT $LN30@update_mai
$LN29@update_mai:
  00602	8b 0d 00 00 00
	00		 mov	 ecx, DWORD PTR ?current_flight_dynamics@@3PAUDYNAMICS_TYPE@@A ; current_flight_dynamics
  00608	f3 0f 10 81 18
	1e 00 00	 movss	 xmm0, DWORD PTR [ecx+7704]
  00610	0f 2f 45 f8	 comiss	 xmm0, DWORD PTR _max_delta$[ebp]
  00614	76 0f		 jbe	 SHORT $LN27@update_mai
  00616	f3 0f 10 45 f8	 movss	 xmm0, DWORD PTR _max_delta$[ebp]
  0061b	f3 0f 11 85 68
	ff ff ff	 movss	 DWORD PTR tv284[ebp], xmm0
  00623	eb 16		 jmp	 SHORT $LN28@update_mai
$LN27@update_mai:
  00625	8b 15 00 00 00
	00		 mov	 edx, DWORD PTR ?current_flight_dynamics@@3PAUDYNAMICS_TYPE@@A ; current_flight_dynamics
  0062b	f3 0f 10 82 18
	1e 00 00	 movss	 xmm0, DWORD PTR [edx+7704]
  00633	f3 0f 11 85 68
	ff ff ff	 movss	 DWORD PTR tv284[ebp], xmm0
$LN28@update_mai:
  0063b	f3 0f 10 85 68
	ff ff ff	 movss	 xmm0, DWORD PTR tv284[ebp]
  00643	f3 0f 11 85 6c
	ff ff ff	 movss	 DWORD PTR tv285[ebp], xmm0
$LN30@update_mai:

; 1010 : 		}
; 1011 : 		else

  0064b	eb 15		 jmp	 SHORT $LN8@update_mai
$LN7@update_mai:

; 1012 : 		{
; 1013 : 			current_flight_dynamics->main_rotor_rpm.delta = -5.0;

  0064d	a1 00 00 00 00	 mov	 eax, DWORD PTR ?current_flight_dynamics@@3PAUDYNAMICS_TYPE@@A ; current_flight_dynamics
  00652	f3 0f 10 05 00
	00 00 00	 movss	 xmm0, DWORD PTR __real@c0a00000
  0065a	f3 0f 11 80 18
	1e 00 00	 movss	 DWORD PTR [eax+7704], xmm0
$LN8@update_mai:

; 1014 : 		}
; 1015 : 		//debug_log ("DYNAMICS: rotor rpm %f delta %f, velocity y %f, accelaration y %f", current_flight_dynamics->main_rotor_rpm.value, current_flight_dynamics->main_rotor_rpm.delta, current_flight_dynamics->velocity_y.value, current_flight_dynamics->velocity_y.delta);
; 1016 : 	}
; 1017 : 
; 1018 : 	current_flight_dynamics->main_rotor_rpm.value += current_flight_dynamics->main_rotor_rpm.delta * get_model_delta_time ();

  00662	a1 00 00 00 00	 mov	 eax, DWORD PTR ?current_flight_dynamics@@3PAUDYNAMICS_TYPE@@A ; current_flight_dynamics
  00667	8b 0d 00 00 00
	00		 mov	 ecx, DWORD PTR ?current_flight_dynamics@@3PAUDYNAMICS_TYPE@@A ; current_flight_dynamics
  0066d	f3 0f 10 80 18
	1e 00 00	 movss	 xmm0, DWORD PTR [eax+7704]
  00675	f3 0f 59 81 90
	00 00 00	 mulss	 xmm0, DWORD PTR [ecx+144]
  0067d	8b 15 00 00 00
	00		 mov	 edx, DWORD PTR ?current_flight_dynamics@@3PAUDYNAMICS_TYPE@@A ; current_flight_dynamics
  00683	f3 0f 58 82 14
	1e 00 00	 addss	 xmm0, DWORD PTR [edx+7700]
  0068b	a1 00 00 00 00	 mov	 eax, DWORD PTR ?current_flight_dynamics@@3PAUDYNAMICS_TYPE@@A ; current_flight_dynamics
  00690	f3 0f 11 80 14
	1e 00 00	 movss	 DWORD PTR [eax+7700], xmm0

; 1019 : 	current_flight_dynamics->main_rotor_rpm.value = bound (current_flight_dynamics->main_rotor_rpm.value, rpm_min, rpm_max);

  00698	a1 00 00 00 00	 mov	 eax, DWORD PTR ?current_flight_dynamics@@3PAUDYNAMICS_TYPE@@A ; current_flight_dynamics
  0069d	f3 0f 10 45 e8	 movss	 xmm0, DWORD PTR _rpm_min$[ebp]
  006a2	0f 2f 80 14 1e
	00 00		 comiss	 xmm0, DWORD PTR [eax+7700]
  006a9	76 0f		 jbe	 SHORT $LN33@update_mai
  006ab	f3 0f 10 45 e8	 movss	 xmm0, DWORD PTR _rpm_min$[ebp]
  006b0	f3 0f 11 85 6c
	ff ff ff	 movss	 DWORD PTR tv308[ebp], xmm0
  006b8	eb 49		 jmp	 SHORT $LN34@update_mai
$LN33@update_mai:
  006ba	8b 0d 00 00 00
	00		 mov	 ecx, DWORD PTR ?current_flight_dynamics@@3PAUDYNAMICS_TYPE@@A ; current_flight_dynamics
  006c0	f3 0f 10 81 14
	1e 00 00	 movss	 xmm0, DWORD PTR [ecx+7700]
  006c8	0f 2f 45 e4	 comiss	 xmm0, DWORD PTR _rpm_max$[ebp]
  006cc	76 0f		 jbe	 SHORT $LN31@update_mai
  006ce	f3 0f 10 45 e4	 movss	 xmm0, DWORD PTR _rpm_max$[ebp]
  006d3	f3 0f 11 85 68
	ff ff ff	 movss	 DWORD PTR tv307[ebp], xmm0
  006db	eb 16		 jmp	 SHORT $LN32@update_mai
$LN31@update_mai:
  006dd	8b 15 00 00 00
	00		 mov	 edx, DWORD PTR ?current_flight_dynamics@@3PAUDYNAMICS_TYPE@@A ; current_flight_dynamics
  006e3	f3 0f 10 82 14
	1e 00 00	 movss	 xmm0, DWORD PTR [edx+7700]
  006eb	f3 0f 11 85 68
	ff ff ff	 movss	 DWORD PTR tv307[ebp], xmm0
$LN32@update_mai:
  006f3	f3 0f 10 85 68
	ff ff ff	 movss	 xmm0, DWORD PTR tv307[ebp]
  006fb	f3 0f 11 85 6c
	ff ff ff	 movss	 DWORD PTR tv308[ebp], xmm0
$LN34@update_mai:
  00703	a1 00 00 00 00	 mov	 eax, DWORD PTR ?current_flight_dynamics@@3PAUDYNAMICS_TYPE@@A ; current_flight_dynamics
  00708	f3 0f 10 85 6c
	ff ff ff	 movss	 xmm0, DWORD PTR tv308[ebp]
  00710	f3 0f 11 80 14
	1e 00 00	 movss	 DWORD PTR [eax+7700], xmm0

; 1020 : 
; 1021 : 	// arneh - damage rotor if rpm too high (can only happen when rotor is disengaged)
; 1022 : 	if (current_flight_dynamics->main_rotor_rpm.value > 125.0)

  00718	a1 00 00 00 00	 mov	 eax, DWORD PTR ?current_flight_dynamics@@3PAUDYNAMICS_TYPE@@A ; current_flight_dynamics
  0071d	f3 0f 5a 80 14
	1e 00 00	 cvtss2sd xmm0, DWORD PTR [eax+7700]
  00725	66 0f 2f 05 00
	00 00 00	 comisd	 xmm0, QWORD PTR __real@405f400000000000
  0072d	76 09		 jbe	 SHORT $LN11@update_mai

; 1023 : 		dynamics_damage_model(DYNAMICS_DAMAGE_MAIN_ROTOR, FALSE);

  0072f	6a 00		 push	 0
  00731	6a 02		 push	 2
  00733	e8 00 00 00 00	 call	 ?dynamics_damage_model@@YGXIH@Z ; dynamics_damage_model
$LN11@update_mai:

; 1024 : 
; 1025 : 	// low rotor speech
; 1026 : 	if ((current_flight_dynamics->main_rotor_rpm.value < 60.0) && (current_flight_dynamics->main_rotor_rpm.delta < 0.0) && (get_local_entity_int_value (get_gunship_entity (), INT_TYPE_AIRBORNE_AIRCRAFT)))

  00738	a1 00 00 00 00	 mov	 eax, DWORD PTR ?current_flight_dynamics@@3PAUDYNAMICS_TYPE@@A ; current_flight_dynamics
  0073d	f3 0f 5a 80 14
	1e 00 00	 cvtss2sd xmm0, DWORD PTR [eax+7700]
  00745	f2 0f 10 0d 00
	00 00 00	 movsd	 xmm1, QWORD PTR __real@404e000000000000
  0074d	66 0f 2f c8	 comisd	 xmm1, xmm0
  00751	0f 86 f8 00 00
	00		 jbe	 $LN13@update_mai
  00757	a1 00 00 00 00	 mov	 eax, DWORD PTR ?current_flight_dynamics@@3PAUDYNAMICS_TYPE@@A ; current_flight_dynamics
  0075c	f3 0f 5a 80 18
	1e 00 00	 cvtss2sd xmm0, DWORD PTR [eax+7704]
  00764	0f 57 c9	 xorps	 xmm1, xmm1
  00767	66 0f 2f c8	 comisd	 xmm1, xmm0
  0076b	0f 86 de 00 00
	00		 jbe	 $LN13@update_mai
  00771	83 3d 00 00 00
	00 00		 cmp	 DWORD PTR ?gunship_entity@@3PAUENTITY@@A, 0 ; gunship_entity
  00778	74 0f		 je	 SHORT $LN35@update_mai
  0077a	a1 00 00 00 00	 mov	 eax, DWORD PTR ?gunship_entity@@3PAUENTITY@@A ; gunship_entity
  0077f	8b 08		 mov	 ecx, DWORD PTR [eax]
  00781	89 8d 6c ff ff
	ff		 mov	 DWORD PTR tv328[ebp], ecx
  00787	eb 20		 jmp	 SHORT $LN36@update_mai
$LN35@update_mai:
  00789	68 02 04 00 00	 push	 1026			; 00000402H
  0078e	68 00 00 00 00	 push	 OFFSET ??_C@_0FA@IFJNMDIM@c?3?2users?2nhv90?2projects?2eech?2ap@
  00793	8b 15 00 00 00
	00		 mov	 edx, DWORD PTR ?null_entity_pointer_message@@3PBDB ; null_entity_pointer_message
  00799	52		 push	 edx
  0079a	e8 00 00 00 00	 call	 ?process_assert@@YGXPBD0H@Z ; process_assert
  0079f	c7 85 6c ff ff
	ff 00 00 00 00	 mov	 DWORD PTR tv328[ebp], 0
$LN36@update_mai:
  007a9	b8 01 00 00 00	 mov	 eax, 1
  007ae	85 c0		 test	 eax, eax
  007b0	74 0c		 je	 SHORT $LN37@update_mai
  007b2	c7 85 68 ff ff
	ff 04 00 00 00	 mov	 DWORD PTR tv335[ebp], 4
  007bc	eb 20		 jmp	 SHORT $LN38@update_mai
$LN37@update_mai:
  007be	68 02 04 00 00	 push	 1026			; 00000402H
  007c3	68 00 00 00 00	 push	 OFFSET ??_C@_0FA@IFJNMDIM@c?3?2users?2nhv90?2projects?2eech?2ap@
  007c8	8b 0d 00 00 00
	00		 mov	 ecx, DWORD PTR ?overload_invalid_int_type_message@@3PBDB ; overload_invalid_int_type_message
  007ce	51		 push	 ecx
  007cf	e8 00 00 00 00	 call	 ?process_assert@@YGXPBD0H@Z ; process_assert
  007d4	c7 85 68 ff ff
	ff 00 00 00 00	 mov	 DWORD PTR tv335[ebp], 0
$LN38@update_mai:
  007de	6a 04		 push	 4
  007e0	8b 15 00 00 00
	00		 mov	 edx, DWORD PTR ?gunship_entity@@3PAUENTITY@@A ; gunship_entity
  007e6	52		 push	 edx
  007e7	69 85 6c ff ff
	ff 5c 04 00 00	 imul	 eax, DWORD PTR tv328[ebp], 1116
  007f1	8b 8d 68 ff ff
	ff		 mov	 ecx, DWORD PTR tv335[ebp]
  007f7	8b 94 88 00 00
	00 00		 mov	 edx, DWORD PTR ?fn_get_local_entity_int_value@@3PAY0BBH@P6GHPAUENTITY@@W4INT_TYPES@@@ZA[eax+ecx*4]
  007fe	ff d2		 call	 edx
  00800	85 c0		 test	 eax, eax
  00802	74 4b		 je	 SHORT $LN13@update_mai

; 1027 : 	{
; 1028 : 
; 1029 : 		static float
; 1030 : 			time = 0.0;
; 1031 : 
; 1032 : 		time -= get_model_delta_time ();

  00804	a1 00 00 00 00	 mov	 eax, DWORD PTR ?current_flight_dynamics@@3PAUDYNAMICS_TYPE@@A ; current_flight_dynamics
  00809	f3 0f 10 05 00
	00 00 00	 movss	 xmm0, DWORD PTR ?time@?BM@??update_main_rotor_rpm_dynamics@@YGXXZ@4MA
  00811	f3 0f 5c 80 90
	00 00 00	 subss	 xmm0, DWORD PTR [eax+144]
  00819	f3 0f 11 05 00
	00 00 00	 movss	 DWORD PTR ?time@?BM@??update_main_rotor_rpm_dynamics@@YGXXZ@4MA, xmm0

; 1033 : 
; 1034 : 		if (time <= 0.0)

  00821	f3 0f 5a 05 00
	00 00 00	 cvtss2sd xmm0, DWORD PTR ?time@?BM@??update_main_rotor_rpm_dynamics@@YGXXZ@4MA
  00829	0f 57 c9	 xorps	 xmm1, xmm1
  0082c	66 0f 2f c8	 comisd	 xmm1, xmm0
  00830	72 1d		 jb	 SHORT $LN13@update_mai

; 1035 : 		{
; 1036 : 
; 1037 : 			play_client_server_warning_message (get_gunship_entity (), SPEECH_SYSTEM_LOW_ROTOR_RPM);

  00832	6a 29		 push	 41			; 00000029H
  00834	a1 00 00 00 00	 mov	 eax, DWORD PTR ?gunship_entity@@3PAUENTITY@@A ; gunship_entity
  00839	50		 push	 eax
  0083a	e8 00 00 00 00	 call	 ?play_client_server_warning_message@@YGHPAUENTITY@@H@Z ; play_client_server_warning_message

; 1038 : 
; 1039 : 			time = DYNAMICS_LOW_ROTOR_RPM_SPEECH_TIME;

  0083f	f3 0f 10 05 00
	00 00 00	 movss	 xmm0, DWORD PTR __real@41a00000
  00847	f3 0f 11 05 00
	00 00 00	 movss	 DWORD PTR ?time@?BM@??update_main_rotor_rpm_dynamics@@YGXXZ@4MA, xmm0
$LN13@update_mai:

; 1040 : 		}
; 1041 : 	}
; 1042 : }

  0084f	5f		 pop	 edi
  00850	5e		 pop	 esi
  00851	5b		 pop	 ebx
  00852	8b e5		 mov	 esp, ebp
  00854	5d		 pop	 ebp
  00855	c3		 ret	 0
?update_main_rotor_rpm_dynamics@@YGXXZ ENDP		; update_main_rotor_rpm_dynamics
_TEXT	ENDS
; Function compile flags: /Odtp /ZI
; File c:\users\nhv90\projects\eech\aphavoc\source\gunships\dynamics\comanche\cm_dyn.c
;	COMDAT ?update_tail_rotor_dynamics@@YGXXZ
_TEXT	SEGMENT
tv175 = -80						; size = 4
tv176 = -76						; size = 4
_blade_pitch$ = -8					; size = 4
_pedal$ = -4						; size = 4
?update_tail_rotor_dynamics@@YGXXZ PROC			; update_tail_rotor_dynamics, COMDAT

; 856  : {

  00000	55		 push	 ebp
  00001	8b ec		 mov	 ebp, esp
  00003	83 ec 50	 sub	 esp, 80			; 00000050H
  00006	53		 push	 ebx
  00007	56		 push	 esi
  00008	57		 push	 edi

; 857  : 
; 858  : 	float
; 859  : 		pedal,
; 860  : 		blade_pitch;
; 861  : 
; 862  : 	// tail rotor angular position
; 863  : 
; 864  : 	current_flight_dynamics->tail_rotor_angular_position.value += current_flight_dynamics->tail_rotor_rps.value * PI2 * get_model_delta_time ();

  00009	a1 00 00 00 00	 mov	 eax, DWORD PTR ?current_flight_dynamics@@3PAUDYNAMICS_TYPE@@A ; current_flight_dynamics
  0000e	f3 0f 10 80 64
	1f 00 00	 movss	 xmm0, DWORD PTR [eax+8036]
  00016	f3 0f 59 05 00
	00 00 00	 mulss	 xmm0, DWORD PTR __real@40c90fdb
  0001e	8b 0d 00 00 00
	00		 mov	 ecx, DWORD PTR ?current_flight_dynamics@@3PAUDYNAMICS_TYPE@@A ; current_flight_dynamics
  00024	f3 0f 59 81 90
	00 00 00	 mulss	 xmm0, DWORD PTR [ecx+144]
  0002c	8b 15 00 00 00
	00		 mov	 edx, DWORD PTR ?current_flight_dynamics@@3PAUDYNAMICS_TYPE@@A ; current_flight_dynamics
  00032	f3 0f 58 82 7c
	1f 00 00	 addss	 xmm0, DWORD PTR [edx+8060]
  0003a	a1 00 00 00 00	 mov	 eax, DWORD PTR ?current_flight_dynamics@@3PAUDYNAMICS_TYPE@@A ; current_flight_dynamics
  0003f	f3 0f 11 80 7c
	1f 00 00	 movss	 DWORD PTR [eax+8060], xmm0

; 865  : 
; 866  : 	if (current_flight_dynamics->tail_rotor_angular_position.value >= PI2)

  00047	a1 00 00 00 00	 mov	 eax, DWORD PTR ?current_flight_dynamics@@3PAUDYNAMICS_TYPE@@A ; current_flight_dynamics
  0004c	f3 0f 10 80 7c
	1f 00 00	 movss	 xmm0, DWORD PTR [eax+8060]
  00054	0f 2f 05 00 00
	00 00		 comiss	 xmm0, DWORD PTR __real@40c90fdb
  0005b	72 25		 jb	 SHORT $LN2@update_tai

; 867  : 	{
; 868  : 
; 869  : 		current_flight_dynamics->tail_rotor_angular_position.value -= PI2;

  0005d	a1 00 00 00 00	 mov	 eax, DWORD PTR ?current_flight_dynamics@@3PAUDYNAMICS_TYPE@@A ; current_flight_dynamics
  00062	f3 0f 10 80 7c
	1f 00 00	 movss	 xmm0, DWORD PTR [eax+8060]
  0006a	f3 0f 5c 05 00
	00 00 00	 subss	 xmm0, DWORD PTR __real@40c90fdb
  00072	8b 0d 00 00 00
	00		 mov	 ecx, DWORD PTR ?current_flight_dynamics@@3PAUDYNAMICS_TYPE@@A ; current_flight_dynamics
  00078	f3 0f 11 81 7c
	1f 00 00	 movss	 DWORD PTR [ecx+8060], xmm0
  00080	eb 34		 jmp	 SHORT $LN4@update_tai
$LN2@update_tai:

; 870  : 	}
; 871  : 	else if (current_flight_dynamics->tail_rotor_angular_position.value < 0)

  00082	a1 00 00 00 00	 mov	 eax, DWORD PTR ?current_flight_dynamics@@3PAUDYNAMICS_TYPE@@A ; current_flight_dynamics
  00087	0f 57 c0	 xorps	 xmm0, xmm0
  0008a	0f 2f 80 7c 1f
	00 00		 comiss	 xmm0, DWORD PTR [eax+8060]
  00091	76 23		 jbe	 SHORT $LN4@update_tai

; 872  : 	{
; 873  : 
; 874  : 		current_flight_dynamics->tail_rotor_angular_position.value += PI2;

  00093	a1 00 00 00 00	 mov	 eax, DWORD PTR ?current_flight_dynamics@@3PAUDYNAMICS_TYPE@@A ; current_flight_dynamics
  00098	f3 0f 10 80 7c
	1f 00 00	 movss	 xmm0, DWORD PTR [eax+8060]
  000a0	f3 0f 58 05 00
	00 00 00	 addss	 xmm0, DWORD PTR __real@40c90fdb
  000a8	8b 0d 00 00 00
	00		 mov	 ecx, DWORD PTR ?current_flight_dynamics@@3PAUDYNAMICS_TYPE@@A ; current_flight_dynamics
  000ae	f3 0f 11 81 7c
	1f 00 00	 movss	 DWORD PTR [ecx+8060], xmm0
$LN4@update_tai:

; 875  : 	}
; 876  : 
; 877  : 	// calculate blade pitch 0->5 Degs, linearly
; 878  : 
; 879  : 	pedal = current_flight_dynamics->input_data.pedal.value;

  000b6	a1 00 00 00 00	 mov	 eax, DWORD PTR ?current_flight_dynamics@@3PAUDYNAMICS_TYPE@@A ; current_flight_dynamics
  000bb	f3 0f 10 80 dc
	1b 00 00	 movss	 xmm0, DWORD PTR [eax+7132]
  000c3	f3 0f 11 45 fc	 movss	 DWORD PTR _pedal$[ebp], xmm0

; 880  : 
; 881  : 	blade_pitch = rad (pedal / (current_flight_dynamics->input_data.pedal.max / deg (current_flight_dynamics->tail_blade_pitch.max)));

  000c8	a1 00 00 00 00	 mov	 eax, DWORD PTR ?current_flight_dynamics@@3PAUDYNAMICS_TYPE@@A ; current_flight_dynamics
  000cd	f3 0f 10 80 a0
	1f 00 00	 movss	 xmm0, DWORD PTR [eax+8096]
  000d5	f3 0f 59 05 00
	00 00 00	 mulss	 xmm0, DWORD PTR __real@42652ee0
  000dd	8b 0d 00 00 00
	00		 mov	 ecx, DWORD PTR ?current_flight_dynamics@@3PAUDYNAMICS_TYPE@@A ; current_flight_dynamics
  000e3	f3 0f 10 89 e8
	1b 00 00	 movss	 xmm1, DWORD PTR [ecx+7144]
  000eb	f3 0f 5e c8	 divss	 xmm1, xmm0
  000ef	f3 0f 10 45 fc	 movss	 xmm0, DWORD PTR _pedal$[ebp]
  000f4	f3 0f 5e c1	 divss	 xmm0, xmm1
  000f8	f3 0f 59 05 00
	00 00 00	 mulss	 xmm0, DWORD PTR __real@3c8efa35
  00100	f3 0f 11 45 f8	 movss	 DWORD PTR _blade_pitch$[ebp], xmm0

; 882  : 
; 883  : 	current_flight_dynamics->tail_blade_pitch.delta = 2.0 * (blade_pitch - current_flight_dynamics->tail_blade_pitch.value);

  00105	a1 00 00 00 00	 mov	 eax, DWORD PTR ?current_flight_dynamics@@3PAUDYNAMICS_TYPE@@A ; current_flight_dynamics
  0010a	f3 0f 10 45 f8	 movss	 xmm0, DWORD PTR _blade_pitch$[ebp]
  0010f	f3 0f 5c 80 94
	1f 00 00	 subss	 xmm0, DWORD PTR [eax+8084]
  00117	f3 0f 5a c0	 cvtss2sd xmm0, xmm0
  0011b	f2 0f 59 05 00
	00 00 00	 mulsd	 xmm0, QWORD PTR __real@4000000000000000
  00123	f2 0f 5a c0	 cvtsd2ss xmm0, xmm0
  00127	8b 0d 00 00 00
	00		 mov	 ecx, DWORD PTR ?current_flight_dynamics@@3PAUDYNAMICS_TYPE@@A ; current_flight_dynamics
  0012d	f3 0f 11 81 98
	1f 00 00	 movss	 DWORD PTR [ecx+8088], xmm0

; 884  : 
; 885  : 	if (!current_flight_dynamics->tail_blade_pitch.damaged)

  00135	a1 00 00 00 00	 mov	 eax, DWORD PTR ?current_flight_dynamics@@3PAUDYNAMICS_TYPE@@A ; current_flight_dynamics
  0013a	0f b7 88 a4 1f
	00 00		 movzx	 ecx, WORD PTR [eax+8100]
  00141	85 c9		 test	 ecx, ecx
  00143	75 38		 jne	 SHORT $LN5@update_tai

; 886  : 	{
; 887  : 
; 888  : 		current_flight_dynamics->tail_blade_pitch.value += current_flight_dynamics->tail_blade_pitch.delta * get_model_delta_time ();

  00145	a1 00 00 00 00	 mov	 eax, DWORD PTR ?current_flight_dynamics@@3PAUDYNAMICS_TYPE@@A ; current_flight_dynamics
  0014a	8b 0d 00 00 00
	00		 mov	 ecx, DWORD PTR ?current_flight_dynamics@@3PAUDYNAMICS_TYPE@@A ; current_flight_dynamics
  00150	f3 0f 10 80 98
	1f 00 00	 movss	 xmm0, DWORD PTR [eax+8088]
  00158	f3 0f 59 81 90
	00 00 00	 mulss	 xmm0, DWORD PTR [ecx+144]
  00160	8b 15 00 00 00
	00		 mov	 edx, DWORD PTR ?current_flight_dynamics@@3PAUDYNAMICS_TYPE@@A ; current_flight_dynamics
  00166	f3 0f 58 82 94
	1f 00 00	 addss	 xmm0, DWORD PTR [edx+8084]
  0016e	a1 00 00 00 00	 mov	 eax, DWORD PTR ?current_flight_dynamics@@3PAUDYNAMICS_TYPE@@A ; current_flight_dynamics
  00173	f3 0f 11 80 94
	1f 00 00	 movss	 DWORD PTR [eax+8084], xmm0

; 889  : 	}
; 890  : 	else

  0017b	eb 10		 jmp	 SHORT $LN6@update_tai
$LN5@update_tai:

; 891  : 	{
; 892  : 
; 893  : 		current_flight_dynamics->tail_blade_pitch.value = 0.0;

  0017d	a1 00 00 00 00	 mov	 eax, DWORD PTR ?current_flight_dynamics@@3PAUDYNAMICS_TYPE@@A ; current_flight_dynamics
  00182	0f 57 c0	 xorps	 xmm0, xmm0
  00185	f3 0f 11 80 94
	1f 00 00	 movss	 DWORD PTR [eax+8084], xmm0
$LN6@update_tai:

; 894  : 	}
; 895  : 
; 896  : 	current_flight_dynamics->tail_blade_pitch.value = bound (

  0018d	a1 00 00 00 00	 mov	 eax, DWORD PTR ?current_flight_dynamics@@3PAUDYNAMICS_TYPE@@A ; current_flight_dynamics
  00192	8b 0d 00 00 00
	00		 mov	 ecx, DWORD PTR ?current_flight_dynamics@@3PAUDYNAMICS_TYPE@@A ; current_flight_dynamics
  00198	f3 0f 10 80 9c
	1f 00 00	 movss	 xmm0, DWORD PTR [eax+8092]
  001a0	0f 2f 81 94 1f
	00 00		 comiss	 xmm0, DWORD PTR [ecx+8084]
  001a7	76 15		 jbe	 SHORT $LN10@update_tai
  001a9	8b 15 00 00 00
	00		 mov	 edx, DWORD PTR ?current_flight_dynamics@@3PAUDYNAMICS_TYPE@@A ; current_flight_dynamics
  001af	f3 0f 10 82 9c
	1f 00 00	 movss	 xmm0, DWORD PTR [edx+8092]
  001b7	f3 0f 11 45 b4	 movss	 DWORD PTR tv176[ebp], xmm0
  001bc	eb 4d		 jmp	 SHORT $LN11@update_tai
$LN10@update_tai:
  001be	a1 00 00 00 00	 mov	 eax, DWORD PTR ?current_flight_dynamics@@3PAUDYNAMICS_TYPE@@A ; current_flight_dynamics
  001c3	8b 0d 00 00 00
	00		 mov	 ecx, DWORD PTR ?current_flight_dynamics@@3PAUDYNAMICS_TYPE@@A ; current_flight_dynamics
  001c9	f3 0f 10 80 94
	1f 00 00	 movss	 xmm0, DWORD PTR [eax+8084]
  001d1	0f 2f 81 a0 1f
	00 00		 comiss	 xmm0, DWORD PTR [ecx+8096]
  001d8	76 15		 jbe	 SHORT $LN8@update_tai
  001da	8b 15 00 00 00
	00		 mov	 edx, DWORD PTR ?current_flight_dynamics@@3PAUDYNAMICS_TYPE@@A ; current_flight_dynamics
  001e0	f3 0f 10 82 a0
	1f 00 00	 movss	 xmm0, DWORD PTR [edx+8096]
  001e8	f3 0f 11 45 b0	 movss	 DWORD PTR tv175[ebp], xmm0
  001ed	eb 12		 jmp	 SHORT $LN9@update_tai
$LN8@update_tai:
  001ef	a1 00 00 00 00	 mov	 eax, DWORD PTR ?current_flight_dynamics@@3PAUDYNAMICS_TYPE@@A ; current_flight_dynamics
  001f4	f3 0f 10 80 94
	1f 00 00	 movss	 xmm0, DWORD PTR [eax+8084]
  001fc	f3 0f 11 45 b0	 movss	 DWORD PTR tv175[ebp], xmm0
$LN9@update_tai:
  00201	f3 0f 10 45 b0	 movss	 xmm0, DWORD PTR tv175[ebp]
  00206	f3 0f 11 45 b4	 movss	 DWORD PTR tv176[ebp], xmm0
$LN11@update_tai:
  0020b	8b 0d 00 00 00
	00		 mov	 ecx, DWORD PTR ?current_flight_dynamics@@3PAUDYNAMICS_TYPE@@A ; current_flight_dynamics
  00211	f3 0f 10 45 b4	 movss	 xmm0, DWORD PTR tv176[ebp]
  00216	f3 0f 11 81 94
	1f 00 00	 movss	 DWORD PTR [ecx+8084], xmm0

; 897  : 																current_flight_dynamics->tail_blade_pitch.value,
; 898  : 																current_flight_dynamics->tail_blade_pitch.min,
; 899  : 																current_flight_dynamics->tail_blade_pitch.max);
; 900  : }

  0021e	5f		 pop	 edi
  0021f	5e		 pop	 esi
  00220	5b		 pop	 ebx
  00221	8b e5		 mov	 esp, ebp
  00223	5d		 pop	 ebp
  00224	c3		 ret	 0
?update_tail_rotor_dynamics@@YGXXZ ENDP			; update_tail_rotor_dynamics
_TEXT	ENDS
; Function compile flags: /Odtp /ZI
; File c:\users\nhv90\projects\eech\aphavoc\source\gunships\dynamics\comanche\cm_dyn.c
;	COMDAT ?update_main_rotor_dynamics@@YGXXZ
_TEXT	SEGMENT
tv189 = -100						; size = 8
tv324 = -92						; size = 4
tv277 = -92						; size = 4
tv232 = -92						; size = 4
tv190 = -92						; size = 8
tv325 = -88						; size = 4
tv278 = -88						; size = 4
tv233 = -88						; size = 4
_blade_pitch$ = -20					; size = 4
_rotor_pitch$ = -16					; size = 4
_rotor_roll$ = -12					; size = 4
_average_blade_input$ = -8				; size = 4
_coll$ = -4						; size = 4
?update_main_rotor_dynamics@@YGXXZ PROC			; update_main_rotor_dynamics, COMDAT

; 731  : {

  00000	55		 push	 ebp
  00001	8b ec		 mov	 ebp, esp
  00003	83 ec 64	 sub	 esp, 100		; 00000064H
  00006	53		 push	 ebx
  00007	56		 push	 esi
  00008	57		 push	 edi

; 732  : 
; 733  : 	float
; 734  : 		coll,
; 735  : 		average_blade_input,
; 736  : 		rotor_roll,
; 737  : 		rotor_pitch,
; 738  : 		blade_pitch;
; 739  : 
; 740  : 	// main rotor angular position
; 741  : 
; 742  : 	if (current_flight_dynamics->main_rotor_rpm.max != 0.0)

  00009	a1 00 00 00 00	 mov	 eax, DWORD PTR ?current_flight_dynamics@@3PAUDYNAMICS_TYPE@@A ; current_flight_dynamics
  0000e	f3 0f 5a 80 20
	1e 00 00	 cvtss2sd xmm0, DWORD PTR [eax+7712]
  00016	66 0f 2e 05 00
	00 00 00	 ucomisd xmm0, QWORD PTR __real@0000000000000000
  0001e	9f		 lahf
  0001f	f6 c4 44	 test	 ah, 68			; 00000044H
  00022	7b 77		 jnp	 SHORT $LN2@update_mai

; 743  : 	{
; 744  : 
; 745  : 		current_flight_dynamics->main_rotor_rps.value = 4.5 * (current_flight_dynamics->main_rotor_rpm.value / current_flight_dynamics->main_rotor_rpm.max);

  00024	a1 00 00 00 00	 mov	 eax, DWORD PTR ?current_flight_dynamics@@3PAUDYNAMICS_TYPE@@A ; current_flight_dynamics
  00029	8b 0d 00 00 00
	00		 mov	 ecx, DWORD PTR ?current_flight_dynamics@@3PAUDYNAMICS_TYPE@@A ; current_flight_dynamics
  0002f	f3 0f 10 80 14
	1e 00 00	 movss	 xmm0, DWORD PTR [eax+7700]
  00037	f3 0f 5e 81 20
	1e 00 00	 divss	 xmm0, DWORD PTR [ecx+7712]
  0003f	f3 0f 5a c0	 cvtss2sd xmm0, xmm0
  00043	f2 0f 59 05 00
	00 00 00	 mulsd	 xmm0, QWORD PTR __real@4012000000000000
  0004b	f2 0f 5a c0	 cvtsd2ss xmm0, xmm0
  0004f	8b 15 00 00 00
	00		 mov	 edx, DWORD PTR ?current_flight_dynamics@@3PAUDYNAMICS_TYPE@@A ; current_flight_dynamics
  00055	f3 0f 11 82 2c
	1e 00 00	 movss	 DWORD PTR [edx+7724], xmm0

; 746  : 
; 747  : 		current_flight_dynamics->main_rotor_angular_position.value += current_flight_dynamics->main_rotor_rps.value * PI2 * get_model_delta_time ();

  0005d	a1 00 00 00 00	 mov	 eax, DWORD PTR ?current_flight_dynamics@@3PAUDYNAMICS_TYPE@@A ; current_flight_dynamics
  00062	f3 0f 10 80 2c
	1e 00 00	 movss	 xmm0, DWORD PTR [eax+7724]
  0006a	f3 0f 59 05 00
	00 00 00	 mulss	 xmm0, DWORD PTR __real@40c90fdb
  00072	8b 0d 00 00 00
	00		 mov	 ecx, DWORD PTR ?current_flight_dynamics@@3PAUDYNAMICS_TYPE@@A ; current_flight_dynamics
  00078	f3 0f 59 81 90
	00 00 00	 mulss	 xmm0, DWORD PTR [ecx+144]
  00080	8b 15 00 00 00
	00		 mov	 edx, DWORD PTR ?current_flight_dynamics@@3PAUDYNAMICS_TYPE@@A ; current_flight_dynamics
  00086	f3 0f 58 82 5c
	1e 00 00	 addss	 xmm0, DWORD PTR [edx+7772]
  0008e	a1 00 00 00 00	 mov	 eax, DWORD PTR ?current_flight_dynamics@@3PAUDYNAMICS_TYPE@@A ; current_flight_dynamics
  00093	f3 0f 11 80 5c
	1e 00 00	 movss	 DWORD PTR [eax+7772], xmm0
$LN2@update_mai:

; 748  : 	}
; 749  : 
; 750  : 	if (current_flight_dynamics->main_rotor_angular_position.value >= PI2)

  0009b	a1 00 00 00 00	 mov	 eax, DWORD PTR ?current_flight_dynamics@@3PAUDYNAMICS_TYPE@@A ; current_flight_dynamics
  000a0	f3 0f 10 80 5c
	1e 00 00	 movss	 xmm0, DWORD PTR [eax+7772]
  000a8	0f 2f 05 00 00
	00 00		 comiss	 xmm0, DWORD PTR __real@40c90fdb
  000af	72 25		 jb	 SHORT $LN3@update_mai

; 751  : 	{
; 752  : 
; 753  : 		current_flight_dynamics->main_rotor_angular_position.value -= PI2;

  000b1	a1 00 00 00 00	 mov	 eax, DWORD PTR ?current_flight_dynamics@@3PAUDYNAMICS_TYPE@@A ; current_flight_dynamics
  000b6	f3 0f 10 80 5c
	1e 00 00	 movss	 xmm0, DWORD PTR [eax+7772]
  000be	f3 0f 5c 05 00
	00 00 00	 subss	 xmm0, DWORD PTR __real@40c90fdb
  000c6	8b 0d 00 00 00
	00		 mov	 ecx, DWORD PTR ?current_flight_dynamics@@3PAUDYNAMICS_TYPE@@A ; current_flight_dynamics
  000cc	f3 0f 11 81 5c
	1e 00 00	 movss	 DWORD PTR [ecx+7772], xmm0
  000d4	eb 34		 jmp	 SHORT $LN5@update_mai
$LN3@update_mai:

; 754  : 	}
; 755  : 	else if (current_flight_dynamics->main_rotor_angular_position.value < 0)

  000d6	a1 00 00 00 00	 mov	 eax, DWORD PTR ?current_flight_dynamics@@3PAUDYNAMICS_TYPE@@A ; current_flight_dynamics
  000db	0f 57 c0	 xorps	 xmm0, xmm0
  000de	0f 2f 80 5c 1e
	00 00		 comiss	 xmm0, DWORD PTR [eax+7772]
  000e5	76 23		 jbe	 SHORT $LN5@update_mai

; 756  : 	{
; 757  : 
; 758  : 		current_flight_dynamics->main_rotor_angular_position.value += PI2;

  000e7	a1 00 00 00 00	 mov	 eax, DWORD PTR ?current_flight_dynamics@@3PAUDYNAMICS_TYPE@@A ; current_flight_dynamics
  000ec	f3 0f 10 80 5c
	1e 00 00	 movss	 xmm0, DWORD PTR [eax+7772]
  000f4	f3 0f 58 05 00
	00 00 00	 addss	 xmm0, DWORD PTR __real@40c90fdb
  000fc	8b 0d 00 00 00
	00		 mov	 ecx, DWORD PTR ?current_flight_dynamics@@3PAUDYNAMICS_TYPE@@A ; current_flight_dynamics
  00102	f3 0f 11 81 5c
	1e 00 00	 movss	 DWORD PTR [ecx+7772], xmm0
$LN5@update_mai:

; 759  : 	}
; 760  : 
; 761  : 	// calculate blade pitch 0->5 Degs. collective = blade_pitch^3
; 762  : 
; 763  : 	current_flight_dynamics->main_blade_x_pitch.value = (current_flight_dynamics->main_blade_pitch.max - current_flight_dynamics->main_blade_pitch.min) *

  0010a	a1 00 00 00 00	 mov	 eax, DWORD PTR ?current_flight_dynamics@@3PAUDYNAMICS_TYPE@@A ; current_flight_dynamics
  0010f	8b 0d 00 00 00
	00		 mov	 ecx, DWORD PTR ?current_flight_dynamics@@3PAUDYNAMICS_TYPE@@A ; current_flight_dynamics
  00115	f3 0f 10 80 98
	1e 00 00	 movss	 xmm0, DWORD PTR [eax+7832]
  0011d	f3 0f 5c 81 94
	1e 00 00	 subss	 xmm0, DWORD PTR [ecx+7828]
  00125	f3 0f 5a c0	 cvtss2sd xmm0, xmm0
  00129	8b 15 00 00 00
	00		 mov	 edx, DWORD PTR ?current_flight_dynamics@@3PAUDYNAMICS_TYPE@@A ; current_flight_dynamics
  0012f	f3 0f 5a 8a f8
	00 00 00	 cvtss2sd xmm1, DWORD PTR [edx+248]
  00137	f2 0f 5e 0d 00
	00 00 00	 divsd	 xmm1, QWORD PTR __real@4059000000000000
  0013f	f2 0f 59 c1	 mulsd	 xmm0, xmm1
  00143	a1 00 00 00 00	 mov	 eax, DWORD PTR ?current_flight_dynamics@@3PAUDYNAMICS_TYPE@@A ; current_flight_dynamics
  00148	f3 0f 5a 88 94
	1e 00 00	 cvtss2sd xmm1, DWORD PTR [eax+7828]
  00150	f2 0f 58 c1	 addsd	 xmm0, xmm1
  00154	f2 0f 5a c0	 cvtsd2ss xmm0, xmm0
  00158	8b 0d 00 00 00
	00		 mov	 ecx, DWORD PTR ?current_flight_dynamics@@3PAUDYNAMICS_TYPE@@A ; current_flight_dynamics
  0015e	f3 0f 11 81 a4
	1e 00 00	 movss	 DWORD PTR [ecx+7844], xmm0

; 764  : 						(current_flight_dynamics->input_data.cyclic_x.value / 100.0) + current_flight_dynamics->main_blade_pitch.min;
; 765  : 
; 766  : 	current_flight_dynamics->main_blade_y_pitch.value = (current_flight_dynamics->main_blade_pitch.max - current_flight_dynamics->main_blade_pitch.min) *

  00166	a1 00 00 00 00	 mov	 eax, DWORD PTR ?current_flight_dynamics@@3PAUDYNAMICS_TYPE@@A ; current_flight_dynamics
  0016b	8b 0d 00 00 00
	00		 mov	 ecx, DWORD PTR ?current_flight_dynamics@@3PAUDYNAMICS_TYPE@@A ; current_flight_dynamics
  00171	f3 0f 10 80 98
	1e 00 00	 movss	 xmm0, DWORD PTR [eax+7832]
  00179	f3 0f 5c 81 94
	1e 00 00	 subss	 xmm0, DWORD PTR [ecx+7828]
  00181	f3 0f 5a c0	 cvtss2sd xmm0, xmm0
  00185	8b 15 00 00 00
	00		 mov	 edx, DWORD PTR ?current_flight_dynamics@@3PAUDYNAMICS_TYPE@@A ; current_flight_dynamics
  0018b	f3 0f 5a 8a 10
	01 00 00	 cvtss2sd xmm1, DWORD PTR [edx+272]
  00193	f2 0f 5e 0d 00
	00 00 00	 divsd	 xmm1, QWORD PTR __real@4059000000000000
  0019b	f2 0f 59 c1	 mulsd	 xmm0, xmm1
  0019f	a1 00 00 00 00	 mov	 eax, DWORD PTR ?current_flight_dynamics@@3PAUDYNAMICS_TYPE@@A ; current_flight_dynamics
  001a4	f3 0f 5a 88 94
	1e 00 00	 cvtss2sd xmm1, DWORD PTR [eax+7828]
  001ac	f2 0f 58 c1	 addsd	 xmm0, xmm1
  001b0	f2 0f 5a c0	 cvtsd2ss xmm0, xmm0
  001b4	8b 0d 00 00 00
	00		 mov	 ecx, DWORD PTR ?current_flight_dynamics@@3PAUDYNAMICS_TYPE@@A ; current_flight_dynamics
  001ba	f3 0f 11 81 bc
	1e 00 00	 movss	 DWORD PTR [ecx+7868], xmm0

; 767  : 						(current_flight_dynamics->input_data.cyclic_y.value / 100.0) + current_flight_dynamics->main_blade_pitch.min;
; 768  : 
; 769  : 	coll = current_flight_dynamics->input_data.collective.value / 100.0;

  001c2	a1 00 00 00 00	 mov	 eax, DWORD PTR ?current_flight_dynamics@@3PAUDYNAMICS_TYPE@@A ; current_flight_dynamics
  001c7	f3 0f 5a 80 a8
	1b 00 00	 cvtss2sd xmm0, DWORD PTR [eax+7080]
  001cf	f2 0f 5e 05 00
	00 00 00	 divsd	 xmm0, QWORD PTR __real@4059000000000000
  001d7	f2 0f 5a c0	 cvtsd2ss xmm0, xmm0
  001db	f3 0f 11 45 fc	 movss	 DWORD PTR _coll$[ebp], xmm0

; 770  : 
; 771  : 	coll *= coll;

  001e0	f3 0f 10 45 fc	 movss	 xmm0, DWORD PTR _coll$[ebp]
  001e5	f3 0f 59 45 fc	 mulss	 xmm0, DWORD PTR _coll$[ebp]
  001ea	f3 0f 11 45 fc	 movss	 DWORD PTR _coll$[ebp], xmm0

; 772  : 
; 773  : 	coll *= 100.0;

  001ef	f3 0f 5a 45 fc	 cvtss2sd xmm0, DWORD PTR _coll$[ebp]
  001f4	f2 0f 59 05 00
	00 00 00	 mulsd	 xmm0, QWORD PTR __real@4059000000000000
  001fc	f2 0f 5a c0	 cvtsd2ss xmm0, xmm0
  00200	f3 0f 11 45 fc	 movss	 DWORD PTR _coll$[ebp], xmm0

; 774  : 
; 775  : 	average_blade_input = coll;

  00205	f3 0f 10 45 fc	 movss	 xmm0, DWORD PTR _coll$[ebp]
  0020a	f3 0f 11 45 f8	 movss	 DWORD PTR _average_blade_input$[ebp], xmm0

; 776  : 
; 777  : 	average_blade_input = bound (average_blade_input, 0.0, 100.0);

  0020f	f3 0f 5a 45 f8	 cvtss2sd xmm0, DWORD PTR _average_blade_input$[ebp]
  00214	0f 57 c9	 xorps	 xmm1, xmm1
  00217	66 0f 2f c8	 comisd	 xmm1, xmm0
  0021b	76 0a		 jbe	 SHORT $LN15@update_mai
  0021d	0f 57 c0	 xorps	 xmm0, xmm0
  00220	f2 0f 11 45 a4	 movsd	 QWORD PTR tv190[ebp], xmm0
  00225	eb 32		 jmp	 SHORT $LN16@update_mai
$LN15@update_mai:
  00227	f3 0f 5a 45 f8	 cvtss2sd xmm0, DWORD PTR _average_blade_input$[ebp]
  0022c	66 0f 2f 05 00
	00 00 00	 comisd	 xmm0, QWORD PTR __real@4059000000000000
  00234	76 0f		 jbe	 SHORT $LN13@update_mai
  00236	f2 0f 10 05 00
	00 00 00	 movsd	 xmm0, QWORD PTR __real@4059000000000000
  0023e	f2 0f 11 45 9c	 movsd	 QWORD PTR tv189[ebp], xmm0
  00243	eb 0a		 jmp	 SHORT $LN14@update_mai
$LN13@update_mai:
  00245	f3 0f 5a 45 f8	 cvtss2sd xmm0, DWORD PTR _average_blade_input$[ebp]
  0024a	f2 0f 11 45 9c	 movsd	 QWORD PTR tv189[ebp], xmm0
$LN14@update_mai:
  0024f	f2 0f 10 45 9c	 movsd	 xmm0, QWORD PTR tv189[ebp]
  00254	f2 0f 11 45 a4	 movsd	 QWORD PTR tv190[ebp], xmm0
$LN16@update_mai:
  00259	f2 0f 5a 45 a4	 cvtsd2ss xmm0, QWORD PTR tv190[ebp]
  0025e	f3 0f 11 45 f8	 movss	 DWORD PTR _average_blade_input$[ebp], xmm0

; 778  : 
; 779  : 	blade_pitch = (current_flight_dynamics->main_blade_pitch.max - current_flight_dynamics->main_blade_pitch.min) *

  00263	a1 00 00 00 00	 mov	 eax, DWORD PTR ?current_flight_dynamics@@3PAUDYNAMICS_TYPE@@A ; current_flight_dynamics
  00268	8b 0d 00 00 00
	00		 mov	 ecx, DWORD PTR ?current_flight_dynamics@@3PAUDYNAMICS_TYPE@@A ; current_flight_dynamics
  0026e	f3 0f 10 80 98
	1e 00 00	 movss	 xmm0, DWORD PTR [eax+7832]
  00276	f3 0f 5c 81 94
	1e 00 00	 subss	 xmm0, DWORD PTR [ecx+7828]
  0027e	f3 0f 5a c0	 cvtss2sd xmm0, xmm0
  00282	f3 0f 5a 4d f8	 cvtss2sd xmm1, DWORD PTR _average_blade_input$[ebp]
  00287	f2 0f 5e 0d 00
	00 00 00	 divsd	 xmm1, QWORD PTR __real@4059000000000000
  0028f	f2 0f 59 c1	 mulsd	 xmm0, xmm1
  00293	8b 15 00 00 00
	00		 mov	 edx, DWORD PTR ?current_flight_dynamics@@3PAUDYNAMICS_TYPE@@A ; current_flight_dynamics
  00299	f3 0f 5a 8a 94
	1e 00 00	 cvtss2sd xmm1, DWORD PTR [edx+7828]
  002a1	f2 0f 58 c1	 addsd	 xmm0, xmm1
  002a5	f2 0f 5a c0	 cvtsd2ss xmm0, xmm0
  002a9	f3 0f 11 45 ec	 movss	 DWORD PTR _blade_pitch$[ebp], xmm0

; 780  : 						(average_blade_input / 100.0) + current_flight_dynamics->main_blade_pitch.min;
; 781  : 
; 782  : 	if (!current_flight_dynamics->main_blade_pitch.damaged)

  002ae	a1 00 00 00 00	 mov	 eax, DWORD PTR ?current_flight_dynamics@@3PAUDYNAMICS_TYPE@@A ; current_flight_dynamics
  002b3	0f b7 88 9c 1e
	00 00		 movzx	 ecx, WORD PTR [eax+7836]
  002ba	85 c9		 test	 ecx, ecx
  002bc	75 14		 jne	 SHORT $LN6@update_mai

; 783  : 	{
; 784  : 
; 785  : 		current_flight_dynamics->main_blade_pitch.value = blade_pitch;

  002be	a1 00 00 00 00	 mov	 eax, DWORD PTR ?current_flight_dynamics@@3PAUDYNAMICS_TYPE@@A ; current_flight_dynamics
  002c3	f3 0f 10 45 ec	 movss	 xmm0, DWORD PTR _blade_pitch$[ebp]
  002c8	f3 0f 11 80 8c
	1e 00 00	 movss	 DWORD PTR [eax+7820], xmm0

; 786  : 	}
; 787  : 	else

  002d0	eb 10		 jmp	 SHORT $LN7@update_mai
$LN6@update_mai:

; 788  : 	{
; 789  : 
; 790  : 		current_flight_dynamics->main_blade_pitch.value = 0.0;

  002d2	a1 00 00 00 00	 mov	 eax, DWORD PTR ?current_flight_dynamics@@3PAUDYNAMICS_TYPE@@A ; current_flight_dynamics
  002d7	0f 57 c0	 xorps	 xmm0, xmm0
  002da	f3 0f 11 80 8c
	1e 00 00	 movss	 DWORD PTR [eax+7820], xmm0
$LN7@update_mai:

; 791  : 	}
; 792  : 
; 793  : 	current_flight_dynamics->main_blade_pitch.value = bound (

  002e2	a1 00 00 00 00	 mov	 eax, DWORD PTR ?current_flight_dynamics@@3PAUDYNAMICS_TYPE@@A ; current_flight_dynamics
  002e7	8b 0d 00 00 00
	00		 mov	 ecx, DWORD PTR ?current_flight_dynamics@@3PAUDYNAMICS_TYPE@@A ; current_flight_dynamics
  002ed	f3 0f 10 80 94
	1e 00 00	 movss	 xmm0, DWORD PTR [eax+7828]
  002f5	0f 2f 81 8c 1e
	00 00		 comiss	 xmm0, DWORD PTR [ecx+7820]
  002fc	76 15		 jbe	 SHORT $LN19@update_mai
  002fe	8b 15 00 00 00
	00		 mov	 edx, DWORD PTR ?current_flight_dynamics@@3PAUDYNAMICS_TYPE@@A ; current_flight_dynamics
  00304	f3 0f 10 82 94
	1e 00 00	 movss	 xmm0, DWORD PTR [edx+7828]
  0030c	f3 0f 11 45 a8	 movss	 DWORD PTR tv233[ebp], xmm0
  00311	eb 4d		 jmp	 SHORT $LN20@update_mai
$LN19@update_mai:
  00313	a1 00 00 00 00	 mov	 eax, DWORD PTR ?current_flight_dynamics@@3PAUDYNAMICS_TYPE@@A ; current_flight_dynamics
  00318	8b 0d 00 00 00
	00		 mov	 ecx, DWORD PTR ?current_flight_dynamics@@3PAUDYNAMICS_TYPE@@A ; current_flight_dynamics
  0031e	f3 0f 10 80 8c
	1e 00 00	 movss	 xmm0, DWORD PTR [eax+7820]
  00326	0f 2f 81 98 1e
	00 00		 comiss	 xmm0, DWORD PTR [ecx+7832]
  0032d	76 15		 jbe	 SHORT $LN17@update_mai
  0032f	8b 15 00 00 00
	00		 mov	 edx, DWORD PTR ?current_flight_dynamics@@3PAUDYNAMICS_TYPE@@A ; current_flight_dynamics
  00335	f3 0f 10 82 98
	1e 00 00	 movss	 xmm0, DWORD PTR [edx+7832]
  0033d	f3 0f 11 45 a4	 movss	 DWORD PTR tv232[ebp], xmm0
  00342	eb 12		 jmp	 SHORT $LN18@update_mai
$LN17@update_mai:
  00344	a1 00 00 00 00	 mov	 eax, DWORD PTR ?current_flight_dynamics@@3PAUDYNAMICS_TYPE@@A ; current_flight_dynamics
  00349	f3 0f 10 80 8c
	1e 00 00	 movss	 xmm0, DWORD PTR [eax+7820]
  00351	f3 0f 11 45 a4	 movss	 DWORD PTR tv232[ebp], xmm0
$LN18@update_mai:
  00356	f3 0f 10 45 a4	 movss	 xmm0, DWORD PTR tv232[ebp]
  0035b	f3 0f 11 45 a8	 movss	 DWORD PTR tv233[ebp], xmm0
$LN20@update_mai:
  00360	8b 0d 00 00 00
	00		 mov	 ecx, DWORD PTR ?current_flight_dynamics@@3PAUDYNAMICS_TYPE@@A ; current_flight_dynamics
  00366	f3 0f 10 45 a8	 movss	 xmm0, DWORD PTR tv233[ebp]
  0036b	f3 0f 11 81 8c
	1e 00 00	 movss	 DWORD PTR [ecx+7820], xmm0

; 794  : 																current_flight_dynamics->main_blade_pitch.value,
; 795  : 																current_flight_dynamics->main_blade_pitch.min,
; 796  : 																current_flight_dynamics->main_blade_pitch.max);
; 797  : 
; 798  : 	// calculate 'Tip Plane Path' roll and pitch
; 799  : 
; 800  : 	// roll
; 801  : 
; 802  : 	rotor_roll = (current_flight_dynamics->input_data.cyclic_x.value / (current_flight_dynamics->input_data.cyclic_x.max - current_flight_dynamics->input_data.cyclic_x.min)) *

  00373	a1 00 00 00 00	 mov	 eax, DWORD PTR ?current_flight_dynamics@@3PAUDYNAMICS_TYPE@@A ; current_flight_dynamics
  00378	8b 0d 00 00 00
	00		 mov	 ecx, DWORD PTR ?current_flight_dynamics@@3PAUDYNAMICS_TYPE@@A ; current_flight_dynamics
  0037e	f3 0f 10 80 04
	01 00 00	 movss	 xmm0, DWORD PTR [eax+260]
  00386	f3 0f 5c 81 00
	01 00 00	 subss	 xmm0, DWORD PTR [ecx+256]
  0038e	8b 15 00 00 00
	00		 mov	 edx, DWORD PTR ?current_flight_dynamics@@3PAUDYNAMICS_TYPE@@A ; current_flight_dynamics
  00394	f3 0f 10 8a f8
	00 00 00	 movss	 xmm1, DWORD PTR [edx+248]
  0039c	f3 0f 5e c8	 divss	 xmm1, xmm0
  003a0	a1 00 00 00 00	 mov	 eax, DWORD PTR ?current_flight_dynamics@@3PAUDYNAMICS_TYPE@@A ; current_flight_dynamics
  003a5	8b 0d 00 00 00
	00		 mov	 ecx, DWORD PTR ?current_flight_dynamics@@3PAUDYNAMICS_TYPE@@A ; current_flight_dynamics
  003ab	f3 0f 10 80 f0
	1d 00 00	 movss	 xmm0, DWORD PTR [eax+7664]
  003b3	f3 0f 5c 81 ec
	1d 00 00	 subss	 xmm0, DWORD PTR [ecx+7660]
  003bb	f3 0f 59 c8	 mulss	 xmm1, xmm0
  003bf	f3 0f 11 4d f4	 movss	 DWORD PTR _rotor_roll$[ebp], xmm1

; 803  : 					(current_flight_dynamics->main_rotor_roll_angle.max - current_flight_dynamics->main_rotor_roll_angle.min);
; 804  : 
; 805  : 	if (!current_flight_dynamics->main_rotor_roll_angle.damaged)

  003c4	a1 00 00 00 00	 mov	 eax, DWORD PTR ?current_flight_dynamics@@3PAUDYNAMICS_TYPE@@A ; current_flight_dynamics
  003c9	0f b7 88 f4 1d
	00 00		 movzx	 ecx, WORD PTR [eax+7668]
  003d0	85 c9		 test	 ecx, ecx
  003d2	75 14		 jne	 SHORT $LN8@update_mai

; 806  : 	{
; 807  : 
; 808  : 		current_flight_dynamics->main_rotor_roll_angle.value = rotor_roll;

  003d4	a1 00 00 00 00	 mov	 eax, DWORD PTR ?current_flight_dynamics@@3PAUDYNAMICS_TYPE@@A ; current_flight_dynamics
  003d9	f3 0f 10 45 f4	 movss	 xmm0, DWORD PTR _rotor_roll$[ebp]
  003de	f3 0f 11 80 e4
	1d 00 00	 movss	 DWORD PTR [eax+7652], xmm0

; 809  : 	}
; 810  : 	else

  003e6	eb 10		 jmp	 SHORT $LN9@update_mai
$LN8@update_mai:

; 811  : 	{
; 812  : 
; 813  : 		current_flight_dynamics->main_rotor_roll_angle.value = 0.0;

  003e8	a1 00 00 00 00	 mov	 eax, DWORD PTR ?current_flight_dynamics@@3PAUDYNAMICS_TYPE@@A ; current_flight_dynamics
  003ed	0f 57 c0	 xorps	 xmm0, xmm0
  003f0	f3 0f 11 80 e4
	1d 00 00	 movss	 DWORD PTR [eax+7652], xmm0
$LN9@update_mai:

; 814  : 	}
; 815  : 
; 816  : 	current_flight_dynamics->main_rotor_roll_angle.value = bound (

  003f8	a1 00 00 00 00	 mov	 eax, DWORD PTR ?current_flight_dynamics@@3PAUDYNAMICS_TYPE@@A ; current_flight_dynamics
  003fd	8b 0d 00 00 00
	00		 mov	 ecx, DWORD PTR ?current_flight_dynamics@@3PAUDYNAMICS_TYPE@@A ; current_flight_dynamics
  00403	f3 0f 10 80 ec
	1d 00 00	 movss	 xmm0, DWORD PTR [eax+7660]
  0040b	0f 2f 81 e4 1d
	00 00		 comiss	 xmm0, DWORD PTR [ecx+7652]
  00412	76 15		 jbe	 SHORT $LN23@update_mai
  00414	8b 15 00 00 00
	00		 mov	 edx, DWORD PTR ?current_flight_dynamics@@3PAUDYNAMICS_TYPE@@A ; current_flight_dynamics
  0041a	f3 0f 10 82 ec
	1d 00 00	 movss	 xmm0, DWORD PTR [edx+7660]
  00422	f3 0f 11 45 a8	 movss	 DWORD PTR tv278[ebp], xmm0
  00427	eb 4d		 jmp	 SHORT $LN24@update_mai
$LN23@update_mai:
  00429	a1 00 00 00 00	 mov	 eax, DWORD PTR ?current_flight_dynamics@@3PAUDYNAMICS_TYPE@@A ; current_flight_dynamics
  0042e	8b 0d 00 00 00
	00		 mov	 ecx, DWORD PTR ?current_flight_dynamics@@3PAUDYNAMICS_TYPE@@A ; current_flight_dynamics
  00434	f3 0f 10 80 e4
	1d 00 00	 movss	 xmm0, DWORD PTR [eax+7652]
  0043c	0f 2f 81 f0 1d
	00 00		 comiss	 xmm0, DWORD PTR [ecx+7664]
  00443	76 15		 jbe	 SHORT $LN21@update_mai
  00445	8b 15 00 00 00
	00		 mov	 edx, DWORD PTR ?current_flight_dynamics@@3PAUDYNAMICS_TYPE@@A ; current_flight_dynamics
  0044b	f3 0f 10 82 f0
	1d 00 00	 movss	 xmm0, DWORD PTR [edx+7664]
  00453	f3 0f 11 45 a4	 movss	 DWORD PTR tv277[ebp], xmm0
  00458	eb 12		 jmp	 SHORT $LN22@update_mai
$LN21@update_mai:
  0045a	a1 00 00 00 00	 mov	 eax, DWORD PTR ?current_flight_dynamics@@3PAUDYNAMICS_TYPE@@A ; current_flight_dynamics
  0045f	f3 0f 10 80 e4
	1d 00 00	 movss	 xmm0, DWORD PTR [eax+7652]
  00467	f3 0f 11 45 a4	 movss	 DWORD PTR tv277[ebp], xmm0
$LN22@update_mai:
  0046c	f3 0f 10 45 a4	 movss	 xmm0, DWORD PTR tv277[ebp]
  00471	f3 0f 11 45 a8	 movss	 DWORD PTR tv278[ebp], xmm0
$LN24@update_mai:
  00476	8b 0d 00 00 00
	00		 mov	 ecx, DWORD PTR ?current_flight_dynamics@@3PAUDYNAMICS_TYPE@@A ; current_flight_dynamics
  0047c	f3 0f 10 45 a8	 movss	 xmm0, DWORD PTR tv278[ebp]
  00481	f3 0f 11 81 e4
	1d 00 00	 movss	 DWORD PTR [ecx+7652], xmm0

; 817  : 																current_flight_dynamics->main_rotor_roll_angle.value,
; 818  : 																current_flight_dynamics->main_rotor_roll_angle.min,
; 819  : 																current_flight_dynamics->main_rotor_roll_angle.max);
; 820  : 
; 821  : 	// pitch
; 822  : 
; 823  : 	rotor_pitch = -(current_flight_dynamics->input_data.cyclic_y.value / (current_flight_dynamics->input_data.cyclic_y.max - current_flight_dynamics->input_data.cyclic_y.min)) *

  00489	a1 00 00 00 00	 mov	 eax, DWORD PTR ?current_flight_dynamics@@3PAUDYNAMICS_TYPE@@A ; current_flight_dynamics
  0048e	8b 0d 00 00 00
	00		 mov	 ecx, DWORD PTR ?current_flight_dynamics@@3PAUDYNAMICS_TYPE@@A ; current_flight_dynamics
  00494	f3 0f 10 80 1c
	01 00 00	 movss	 xmm0, DWORD PTR [eax+284]
  0049c	f3 0f 5c 81 18
	01 00 00	 subss	 xmm0, DWORD PTR [ecx+280]
  004a4	8b 15 00 00 00
	00		 mov	 edx, DWORD PTR ?current_flight_dynamics@@3PAUDYNAMICS_TYPE@@A ; current_flight_dynamics
  004aa	f3 0f 10 8a 10
	01 00 00	 movss	 xmm1, DWORD PTR [edx+272]
  004b2	f3 0f 5e c8	 divss	 xmm1, xmm0
  004b6	0f 57 0d 00 00
	00 00		 xorps	 xmm1, DWORD PTR __xmm@80000000800000008000000080000000
  004bd	a1 00 00 00 00	 mov	 eax, DWORD PTR ?current_flight_dynamics@@3PAUDYNAMICS_TYPE@@A ; current_flight_dynamics
  004c2	8b 0d 00 00 00
	00		 mov	 ecx, DWORD PTR ?current_flight_dynamics@@3PAUDYNAMICS_TYPE@@A ; current_flight_dynamics
  004c8	f3 0f 10 80 08
	1e 00 00	 movss	 xmm0, DWORD PTR [eax+7688]
  004d0	f3 0f 5c 81 04
	1e 00 00	 subss	 xmm0, DWORD PTR [ecx+7684]
  004d8	f3 0f 59 c8	 mulss	 xmm1, xmm0
  004dc	f3 0f 11 4d f0	 movss	 DWORD PTR _rotor_pitch$[ebp], xmm1

; 824  : 					(current_flight_dynamics->main_rotor_pitch_angle.max - current_flight_dynamics->main_rotor_pitch_angle.min);
; 825  : 
; 826  : 	if (!current_flight_dynamics->main_rotor_pitch_angle.damaged)

  004e1	a1 00 00 00 00	 mov	 eax, DWORD PTR ?current_flight_dynamics@@3PAUDYNAMICS_TYPE@@A ; current_flight_dynamics
  004e6	0f b7 88 0c 1e
	00 00		 movzx	 ecx, WORD PTR [eax+7692]
  004ed	85 c9		 test	 ecx, ecx
  004ef	75 14		 jne	 SHORT $LN10@update_mai

; 827  : 	{
; 828  : 
; 829  : 		current_flight_dynamics->main_rotor_pitch_angle.value = rotor_pitch;

  004f1	a1 00 00 00 00	 mov	 eax, DWORD PTR ?current_flight_dynamics@@3PAUDYNAMICS_TYPE@@A ; current_flight_dynamics
  004f6	f3 0f 10 45 f0	 movss	 xmm0, DWORD PTR _rotor_pitch$[ebp]
  004fb	f3 0f 11 80 fc
	1d 00 00	 movss	 DWORD PTR [eax+7676], xmm0

; 830  : 	}
; 831  : 	else

  00503	eb 10		 jmp	 SHORT $LN11@update_mai
$LN10@update_mai:

; 832  : 	{
; 833  : 
; 834  : 		current_flight_dynamics->main_rotor_pitch_angle.value = 0.0;

  00505	a1 00 00 00 00	 mov	 eax, DWORD PTR ?current_flight_dynamics@@3PAUDYNAMICS_TYPE@@A ; current_flight_dynamics
  0050a	0f 57 c0	 xorps	 xmm0, xmm0
  0050d	f3 0f 11 80 fc
	1d 00 00	 movss	 DWORD PTR [eax+7676], xmm0
$LN11@update_mai:

; 835  : 	}
; 836  : 
; 837  : 	current_flight_dynamics->main_rotor_pitch_angle.value = bound (

  00515	a1 00 00 00 00	 mov	 eax, DWORD PTR ?current_flight_dynamics@@3PAUDYNAMICS_TYPE@@A ; current_flight_dynamics
  0051a	8b 0d 00 00 00
	00		 mov	 ecx, DWORD PTR ?current_flight_dynamics@@3PAUDYNAMICS_TYPE@@A ; current_flight_dynamics
  00520	f3 0f 10 80 04
	1e 00 00	 movss	 xmm0, DWORD PTR [eax+7684]
  00528	0f 2f 81 fc 1d
	00 00		 comiss	 xmm0, DWORD PTR [ecx+7676]
  0052f	76 15		 jbe	 SHORT $LN27@update_mai
  00531	8b 15 00 00 00
	00		 mov	 edx, DWORD PTR ?current_flight_dynamics@@3PAUDYNAMICS_TYPE@@A ; current_flight_dynamics
  00537	f3 0f 10 82 04
	1e 00 00	 movss	 xmm0, DWORD PTR [edx+7684]
  0053f	f3 0f 11 45 a8	 movss	 DWORD PTR tv325[ebp], xmm0
  00544	eb 4d		 jmp	 SHORT $LN28@update_mai
$LN27@update_mai:
  00546	a1 00 00 00 00	 mov	 eax, DWORD PTR ?current_flight_dynamics@@3PAUDYNAMICS_TYPE@@A ; current_flight_dynamics
  0054b	8b 0d 00 00 00
	00		 mov	 ecx, DWORD PTR ?current_flight_dynamics@@3PAUDYNAMICS_TYPE@@A ; current_flight_dynamics
  00551	f3 0f 10 80 fc
	1d 00 00	 movss	 xmm0, DWORD PTR [eax+7676]
  00559	0f 2f 81 08 1e
	00 00		 comiss	 xmm0, DWORD PTR [ecx+7688]
  00560	76 15		 jbe	 SHORT $LN25@update_mai
  00562	8b 15 00 00 00
	00		 mov	 edx, DWORD PTR ?current_flight_dynamics@@3PAUDYNAMICS_TYPE@@A ; current_flight_dynamics
  00568	f3 0f 10 82 08
	1e 00 00	 movss	 xmm0, DWORD PTR [edx+7688]
  00570	f3 0f 11 45 a4	 movss	 DWORD PTR tv324[ebp], xmm0
  00575	eb 12		 jmp	 SHORT $LN26@update_mai
$LN25@update_mai:
  00577	a1 00 00 00 00	 mov	 eax, DWORD PTR ?current_flight_dynamics@@3PAUDYNAMICS_TYPE@@A ; current_flight_dynamics
  0057c	f3 0f 10 80 fc
	1d 00 00	 movss	 xmm0, DWORD PTR [eax+7676]
  00584	f3 0f 11 45 a4	 movss	 DWORD PTR tv324[ebp], xmm0
$LN26@update_mai:
  00589	f3 0f 10 45 a4	 movss	 xmm0, DWORD PTR tv324[ebp]
  0058e	f3 0f 11 45 a8	 movss	 DWORD PTR tv325[ebp], xmm0
$LN28@update_mai:
  00593	8b 0d 00 00 00
	00		 mov	 ecx, DWORD PTR ?current_flight_dynamics@@3PAUDYNAMICS_TYPE@@A ; current_flight_dynamics
  00599	f3 0f 10 45 a8	 movss	 xmm0, DWORD PTR tv325[ebp]
  0059e	f3 0f 11 81 fc
	1d 00 00	 movss	 DWORD PTR [ecx+7676], xmm0

; 838  : 																current_flight_dynamics->main_rotor_pitch_angle.value,
; 839  : 																current_flight_dynamics->main_rotor_pitch_angle.min,
; 840  : 																current_flight_dynamics->main_rotor_pitch_angle.max);
; 841  : 
; 842  : 	// debug
; 843  : 
; 844  : 	current_flight_dynamics->main_rotor_swash_plate_pitch.value = current_flight_dynamics->main_rotor_pitch_angle.value;

  005a6	a1 00 00 00 00	 mov	 eax, DWORD PTR ?current_flight_dynamics@@3PAUDYNAMICS_TYPE@@A ; current_flight_dynamics
  005ab	8b 0d 00 00 00
	00		 mov	 ecx, DWORD PTR ?current_flight_dynamics@@3PAUDYNAMICS_TYPE@@A ; current_flight_dynamics
  005b1	8b 91 fc 1d 00
	00		 mov	 edx, DWORD PTR [ecx+7676]
  005b7	89 90 d4 1e 00
	00		 mov	 DWORD PTR [eax+7892], edx

; 845  : 
; 846  : 	current_flight_dynamics->main_rotor_swash_plate_roll.value = current_flight_dynamics->main_rotor_roll_angle.value;

  005bd	a1 00 00 00 00	 mov	 eax, DWORD PTR ?current_flight_dynamics@@3PAUDYNAMICS_TYPE@@A ; current_flight_dynamics
  005c2	8b 0d 00 00 00
	00		 mov	 ecx, DWORD PTR ?current_flight_dynamics@@3PAUDYNAMICS_TYPE@@A ; current_flight_dynamics
  005c8	8b 91 e4 1d 00
	00		 mov	 edx, DWORD PTR [ecx+7652]
  005ce	89 90 ec 1e 00
	00		 mov	 DWORD PTR [eax+7916], edx

; 847  : 
; 848  : 	// end
; 849  : }

  005d4	5f		 pop	 edi
  005d5	5e		 pop	 esi
  005d6	5b		 pop	 ebx
  005d7	8b e5		 mov	 esp, ebp
  005d9	5d		 pop	 ebp
  005da	c3		 ret	 0
?update_main_rotor_dynamics@@YGXXZ ENDP			; update_main_rotor_dynamics
_TEXT	ENDS
; Function compile flags: /Odtp /ZI
; File c:\users\nhv90\projects\eech\aphavoc\source\gunships\dynamics\comanche\cm_dyn.c
;	COMDAT ?set_dynamics_defaults@@YGXPAUENTITY@@@Z
_TEXT	SEGMENT
tv1067 = -108						; size = 8
tv347 = -108						; size = 4
tv339 = -104						; size = 4
_Tl$1 = -36						; size = 4
_Pmax$2 = -32						; size = 4
_Md$3 = -28						; size = 4
_Mrpm$4 = -24						; size = 4
_option$5 = -20						; size = 4
_flag$6 = -16						; size = 4
_position$ = -12					; size = 12
_en$ = 8						; size = 4
?set_dynamics_defaults@@YGXPAUENTITY@@@Z PROC		; set_dynamics_defaults, COMDAT

; 144  : {

  00000	55		 push	 ebp
  00001	8b ec		 mov	 ebp, esp
  00003	83 ec 6c	 sub	 esp, 108		; 0000006cH
  00006	53		 push	 ebx
  00007	56		 push	 esi
  00008	57		 push	 edi

; 145  : 
; 146  : 	vec3d
; 147  : 		position;
; 148  : 
; 149  : 	memset (current_flight_dynamics, 0, sizeof (dynamics_type));

  00009	68 40 25 00 00	 push	 9536			; 00002540H
  0000e	6a 00		 push	 0
  00010	a1 00 00 00 00	 mov	 eax, DWORD PTR ?current_flight_dynamics@@3PAUDYNAMICS_TYPE@@A ; current_flight_dynamics
  00015	50		 push	 eax
  00016	e8 00 00 00 00	 call	 _memset
  0001b	83 c4 0c	 add	 esp, 12			; 0000000cH

; 150  : 
; 151  : 	if (parser_flight_dynamics_options == 0)

  0001e	83 3d 00 00 00
	00 00		 cmp	 DWORD PTR ?parser_flight_dynamics_options@@3HA, 0 ; parser_flight_dynamics_options
  00025	0f 85 f9 00 00
	00		 jne	 $LN4@set_dynami

; 152  : 	{
; 153  : 
; 154  : 		set_current_dynamics_options (DYNAMICS_OPTIONS_CROSS_COUPLING, get_global_dynamics_options_cross_coupling());

  0002b	a1 50 00 00 00	 mov	 eax, DWORD PTR ?global_options@@3UGLOBAL_OPTIONS_DATA@@A+80
  00030	c1 e8 09	 shr	 eax, 9
  00033	83 e0 01	 and	 eax, 1
  00036	50		 push	 eax
  00037	6a 00		 push	 0
  00039	e8 00 00 00 00	 call	 ?set_current_dynamics_options@@YGXW4DYNAMICS_OPTIONS_TYPES@@H@Z ; set_current_dynamics_options

; 155  : 		set_current_dynamics_options (DYNAMICS_OPTIONS_DAMAGE, get_global_dynamics_options_damage());

  0003e	a1 50 00 00 00	 mov	 eax, DWORD PTR ?global_options@@3UGLOBAL_OPTIONS_DATA@@A+80
  00043	c1 e8 0d	 shr	 eax, 13			; 0000000dH
  00046	83 e0 01	 and	 eax, 1
  00049	50		 push	 eax
  0004a	6a 01		 push	 1
  0004c	e8 00 00 00 00	 call	 ?set_current_dynamics_options@@YGXW4DYNAMICS_OPTIONS_TYPES@@H@Z ; set_current_dynamics_options

; 156  : 		set_current_dynamics_options (DYNAMICS_OPTIONS_DRAW_FLIGHT_PATH, get_global_dynamics_options_draw_flight_path());

  00051	a1 50 00 00 00	 mov	 eax, DWORD PTR ?global_options@@3UGLOBAL_OPTIONS_DATA@@A+80
  00056	c1 e8 0f	 shr	 eax, 15			; 0000000fH
  00059	83 e0 01	 and	 eax, 1
  0005c	50		 push	 eax
  0005d	6a 02		 push	 2
  0005f	e8 00 00 00 00	 call	 ?set_current_dynamics_options@@YGXW4DYNAMICS_OPTIONS_TYPES@@H@Z ; set_current_dynamics_options

; 157  : 		set_current_dynamics_options (DYNAMICS_OPTIONS_GROUND_COLLISIONS, get_global_dynamics_options_ground_collisions());

  00064	a1 50 00 00 00	 mov	 eax, DWORD PTR ?global_options@@3UGLOBAL_OPTIONS_DATA@@A+80
  00069	c1 e8 0c	 shr	 eax, 12			; 0000000cH
  0006c	83 e0 01	 and	 eax, 1
  0006f	50		 push	 eax
  00070	6a 03		 push	 3
  00072	e8 00 00 00 00	 call	 ?set_current_dynamics_options@@YGXW4DYNAMICS_OPTIONS_TYPES@@H@Z ; set_current_dynamics_options

; 158  : 		set_current_dynamics_options (DYNAMICS_OPTIONS_GROUND_EFFECT, get_global_dynamics_options_ground_effect());

  00077	a1 50 00 00 00	 mov	 eax, DWORD PTR ?global_options@@3UGLOBAL_OPTIONS_DATA@@A+80
  0007c	c1 e8 0a	 shr	 eax, 10			; 0000000aH
  0007f	83 e0 01	 and	 eax, 1
  00082	50		 push	 eax
  00083	6a 04		 push	 4
  00085	e8 00 00 00 00	 call	 ?set_current_dynamics_options@@YGXW4DYNAMICS_OPTIONS_TYPES@@H@Z ; set_current_dynamics_options

; 159  : 		set_current_dynamics_options (DYNAMICS_OPTIONS_KEYBOARD_ASSISTANCE, get_global_dynamics_options_keyboard_assistance());

  0008a	a1 50 00 00 00	 mov	 eax, DWORD PTR ?global_options@@3UGLOBAL_OPTIONS_DATA@@A+80
  0008f	c1 e8 08	 shr	 eax, 8
  00092	83 e0 01	 and	 eax, 1
  00095	50		 push	 eax
  00096	6a 05		 push	 5
  00098	e8 00 00 00 00	 call	 ?set_current_dynamics_options@@YGXW4DYNAMICS_OPTIONS_TYPES@@H@Z ; set_current_dynamics_options

; 160  : 		set_current_dynamics_options (DYNAMICS_OPTIONS_OBJECT_COLLISIONS, get_global_dynamics_options_object_collisions());

  0009d	a1 50 00 00 00	 mov	 eax, DWORD PTR ?global_options@@3UGLOBAL_OPTIONS_DATA@@A+80
  000a2	c1 e8 0b	 shr	 eax, 11			; 0000000bH
  000a5	83 e0 01	 and	 eax, 1
  000a8	50		 push	 eax
  000a9	6a 06		 push	 6
  000ab	e8 00 00 00 00	 call	 ?set_current_dynamics_options@@YGXW4DYNAMICS_OPTIONS_TYPES@@H@Z ; set_current_dynamics_options

; 161  : 		set_current_dynamics_options (DYNAMICS_OPTIONS_OVER_TORQUE, get_global_dynamics_options_over_torque());

  000b0	a1 50 00 00 00	 mov	 eax, DWORD PTR ?global_options@@3UGLOBAL_OPTIONS_DATA@@A+80
  000b5	c1 e8 0e	 shr	 eax, 14			; 0000000eH
  000b8	83 e0 01	 and	 eax, 1
  000bb	50		 push	 eax
  000bc	6a 07		 push	 7
  000be	e8 00 00 00 00	 call	 ?set_current_dynamics_options@@YGXW4DYNAMICS_OPTIONS_TYPES@@H@Z ; set_current_dynamics_options

; 162  : 		set_current_dynamics_options (DYNAMICS_OPTIONS_RETREATING_BLADE_STALL, get_global_dynamics_options_retreating_blade_stall());

  000c3	a1 50 00 00 00	 mov	 eax, DWORD PTR ?global_options@@3UGLOBAL_OPTIONS_DATA@@A+80
  000c8	c1 e8 06	 shr	 eax, 6
  000cb	83 e0 01	 and	 eax, 1
  000ce	50		 push	 eax
  000cf	6a 08		 push	 8
  000d1	e8 00 00 00 00	 call	 ?set_current_dynamics_options@@YGXW4DYNAMICS_OPTIONS_TYPES@@H@Z ; set_current_dynamics_options

; 163  : 		set_current_dynamics_options (DYNAMICS_OPTIONS_REVERSE_THROTTLE_INPUT, get_global_dynamics_options_reverse_throttle_input());

  000d6	a1 50 00 00 00	 mov	 eax, DWORD PTR ?global_options@@3UGLOBAL_OPTIONS_DATA@@A+80
  000db	c1 e8 07	 shr	 eax, 7
  000de	83 e0 01	 and	 eax, 1
  000e1	50		 push	 eax
  000e2	6a 09		 push	 9
  000e4	e8 00 00 00 00	 call	 ?set_current_dynamics_options@@YGXW4DYNAMICS_OPTIONS_TYPES@@H@Z ; set_current_dynamics_options

; 164  : 		set_current_dynamics_options (DYNAMICS_OPTIONS_TRANSITIONAL_LIFT, get_global_dynamics_options_transitional_lift());

  000e9	a1 50 00 00 00	 mov	 eax, DWORD PTR ?global_options@@3UGLOBAL_OPTIONS_DATA@@A+80
  000ee	c1 e8 04	 shr	 eax, 4
  000f1	83 e0 01	 and	 eax, 1
  000f4	50		 push	 eax
  000f5	6a 0a		 push	 10			; 0000000aH
  000f7	e8 00 00 00 00	 call	 ?set_current_dynamics_options@@YGXW4DYNAMICS_OPTIONS_TYPES@@H@Z ; set_current_dynamics_options

; 165  : 		set_current_dynamics_options (DYNAMICS_OPTIONS_VORTEX_RING, get_global_dynamics_options_vortex_ring());

  000fc	a1 50 00 00 00	 mov	 eax, DWORD PTR ?global_options@@3UGLOBAL_OPTIONS_DATA@@A+80
  00101	c1 e8 05	 shr	 eax, 5
  00104	83 e0 01	 and	 eax, 1
  00107	50		 push	 eax
  00108	6a 0b		 push	 11			; 0000000bH
  0010a	e8 00 00 00 00	 call	 ?set_current_dynamics_options@@YGXW4DYNAMICS_OPTIONS_TYPES@@H@Z ; set_current_dynamics_options

; 166  : 		set_current_dynamics_options (DYNAMICS_OPTIONS_WIND, get_global_dynamics_options_wind());

  0010f	a1 50 00 00 00	 mov	 eax, DWORD PTR ?global_options@@3UGLOBAL_OPTIONS_DATA@@A+80
  00114	c1 e8 03	 shr	 eax, 3
  00117	83 e0 01	 and	 eax, 1
  0011a	50		 push	 eax
  0011b	6a 0c		 push	 12			; 0000000cH
  0011d	e8 00 00 00 00	 call	 ?set_current_dynamics_options@@YGXW4DYNAMICS_OPTIONS_TYPES@@H@Z ; set_current_dynamics_options

; 167  : 	}
; 168  : 	else

  00122	eb 3a		 jmp	 SHORT $LN3@set_dynami
$LN4@set_dynami:

; 169  : 	{
; 170  : 
; 171  : 		unsigned int
; 172  : 			flag;
; 173  : 
; 174  : 		int
; 175  : 			option;
; 176  : 
; 177  : 		flag = parser_flight_dynamics_options;

  00124	a1 00 00 00 00	 mov	 eax, DWORD PTR ?parser_flight_dynamics_options@@3HA ; parser_flight_dynamics_options
  00129	89 45 f0	 mov	 DWORD PTR _flag$6[ebp], eax

; 178  : 
; 179  : 		option = DYNAMICS_OPTIONS_CROSS_COUPLING;

  0012c	c7 45 ec 00 00
	00 00		 mov	 DWORD PTR _option$5[ebp], 0
$LN2@set_dynami:

; 180  : 
; 181  : 		while (option < NUM_DYNAMICS_OPTIONS_TYPES)

  00133	83 7d ec 0d	 cmp	 DWORD PTR _option$5[ebp], 13 ; 0000000dH
  00137	7d 25		 jge	 SHORT $LN3@set_dynami

; 182  : 		{
; 183  : 
; 184  : 			if (flag & (1 << option))

  00139	b8 01 00 00 00	 mov	 eax, 1
  0013e	8b 4d ec	 mov	 ecx, DWORD PTR _option$5[ebp]
  00141	d3 e0		 shl	 eax, cl
  00143	23 45 f0	 and	 eax, DWORD PTR _flag$6[ebp]
  00146	74 0b		 je	 SHORT $LN6@set_dynami

; 185  : 			{
; 186  : 
; 187  : 				set_current_dynamics_options ((dynamics_options_types) option, TRUE);

  00148	6a 01		 push	 1
  0014a	8b 45 ec	 mov	 eax, DWORD PTR _option$5[ebp]
  0014d	50		 push	 eax
  0014e	e8 00 00 00 00	 call	 ?set_current_dynamics_options@@YGXW4DYNAMICS_OPTIONS_TYPES@@H@Z ; set_current_dynamics_options
$LN6@set_dynami:

; 188  : 
; 189  : 				#if DEBUG_MODULE
; 190  : 
; 191  : 				debug_log ("DYNAMICS: flight dynamics %s = %d", dynamics_options_type_names [option], TRUE);
; 192  : 
; 193  : 				#endif
; 194  : 			}
; 195  : 
; 196  : 			option ++;

  00153	8b 45 ec	 mov	 eax, DWORD PTR _option$5[ebp]
  00156	83 c0 01	 add	 eax, 1
  00159	89 45 ec	 mov	 DWORD PTR _option$5[ebp], eax

; 197  : 		}

  0015c	eb d5		 jmp	 SHORT $LN2@set_dynami
$LN3@set_dynami:

; 198  : 	}
; 199  : 
; 200  : 	// set default modifier values
; 201  : 
; 202  : 	current_flight_dynamics->undercarriage_state.modifier = 1.0;

  0015e	a1 00 00 00 00	 mov	 eax, DWORD PTR ?current_flight_dynamics@@3PAUDYNAMICS_TYPE@@A ; current_flight_dynamics
  00163	f3 0f 10 05 00
	00 00 00	 movss	 xmm0, DWORD PTR __real@3f800000
  0016b	f3 0f 11 80 60
	1c 00 00	 movss	 DWORD PTR [eax+7264], xmm0

; 203  : 	current_flight_dynamics->apu_rpm.modifier = 1.0;

  00173	a1 00 00 00 00	 mov	 eax, DWORD PTR ?current_flight_dynamics@@3PAUDYNAMICS_TYPE@@A ; current_flight_dynamics
  00178	f3 0f 10 05 00
	00 00 00	 movss	 xmm0, DWORD PTR __real@3f800000
  00180	f3 0f 11 80 38
	1d 00 00	 movss	 DWORD PTR [eax+7480], xmm0

; 204  : 	current_flight_dynamics->left_engine_rpm.modifier = 1.0;

  00188	a1 00 00 00 00	 mov	 eax, DWORD PTR ?current_flight_dynamics@@3PAUDYNAMICS_TYPE@@A ; current_flight_dynamics
  0018d	f3 0f 10 05 00
	00 00 00	 movss	 xmm0, DWORD PTR __real@3f800000
  00195	f3 0f 11 80 78
	1c 00 00	 movss	 DWORD PTR [eax+7288], xmm0

; 205  : 	current_flight_dynamics->left_engine_torque.modifier = 1.0;

  0019d	a1 00 00 00 00	 mov	 eax, DWORD PTR ?current_flight_dynamics@@3PAUDYNAMICS_TYPE@@A ; current_flight_dynamics
  001a2	f3 0f 10 05 00
	00 00 00	 movss	 xmm0, DWORD PTR __real@3f800000
  001aa	f3 0f 11 80 a8
	1c 00 00	 movss	 DWORD PTR [eax+7336], xmm0

; 206  : 	current_flight_dynamics->left_engine_temp.modifier = 1.0;

  001b2	a1 00 00 00 00	 mov	 eax, DWORD PTR ?current_flight_dynamics@@3PAUDYNAMICS_TYPE@@A ; current_flight_dynamics
  001b7	f3 0f 10 05 00
	00 00 00	 movss	 xmm0, DWORD PTR __real@3f800000
  001bf	f3 0f 11 80 c0
	1c 00 00	 movss	 DWORD PTR [eax+7360], xmm0

; 207  : 	current_flight_dynamics->right_engine_rpm.modifier = 1.0;

  001c7	a1 00 00 00 00	 mov	 eax, DWORD PTR ?current_flight_dynamics@@3PAUDYNAMICS_TYPE@@A ; current_flight_dynamics
  001cc	f3 0f 10 05 00
	00 00 00	 movss	 xmm0, DWORD PTR __real@3f800000
  001d4	f3 0f 11 80 d8
	1c 00 00	 movss	 DWORD PTR [eax+7384], xmm0

; 208  : 	current_flight_dynamics->right_engine_torque.modifier = 1.0;

  001dc	a1 00 00 00 00	 mov	 eax, DWORD PTR ?current_flight_dynamics@@3PAUDYNAMICS_TYPE@@A ; current_flight_dynamics
  001e1	f3 0f 10 05 00
	00 00 00	 movss	 xmm0, DWORD PTR __real@3f800000
  001e9	f3 0f 11 80 08
	1d 00 00	 movss	 DWORD PTR [eax+7432], xmm0

; 209  : 	current_flight_dynamics->right_engine_temp.modifier = 1.0;

  001f1	a1 00 00 00 00	 mov	 eax, DWORD PTR ?current_flight_dynamics@@3PAUDYNAMICS_TYPE@@A ; current_flight_dynamics
  001f6	f3 0f 10 05 00
	00 00 00	 movss	 xmm0, DWORD PTR __real@3f800000
  001fe	f3 0f 11 80 20
	1d 00 00	 movss	 DWORD PTR [eax+7456], xmm0

; 210  : 	current_flight_dynamics->main_rotor_number_of_blades.modifier = 1.0;

  00206	a1 00 00 00 00	 mov	 eax, DWORD PTR ?current_flight_dynamics@@3PAUDYNAMICS_TYPE@@A ; current_flight_dynamics
  0020b	f3 0f 10 05 00
	00 00 00	 movss	 xmm0, DWORD PTR __real@3f800000
  00213	f3 0f 11 80 50
	1d 00 00	 movss	 DWORD PTR [eax+7504], xmm0

; 211  : 	current_flight_dynamics->main_rotor_induced_air.modifier = 0.6;

  0021b	a1 00 00 00 00	 mov	 eax, DWORD PTR ?current_flight_dynamics@@3PAUDYNAMICS_TYPE@@A ; current_flight_dynamics
  00220	f3 0f 10 05 00
	00 00 00	 movss	 xmm0, DWORD PTR __real@3f19999a
  00228	f3 0f 11 80 68
	1d 00 00	 movss	 DWORD PTR [eax+7528], xmm0

; 212  : 	current_flight_dynamics->main_rotor_induced_vortex_air_flow.modifier = 0.3;

  00230	a1 00 00 00 00	 mov	 eax, DWORD PTR ?current_flight_dynamics@@3PAUDYNAMICS_TYPE@@A ; current_flight_dynamics
  00235	f3 0f 10 05 00
	00 00 00	 movss	 xmm0, DWORD PTR __real@3e99999a
  0023d	f3 0f 11 80 80
	1d 00 00	 movss	 DWORD PTR [eax+7552], xmm0

; 213  : 	current_flight_dynamics->main_rotor_diameter.modifier = 1.0;

  00245	a1 00 00 00 00	 mov	 eax, DWORD PTR ?current_flight_dynamics@@3PAUDYNAMICS_TYPE@@A ; current_flight_dynamics
  0024a	f3 0f 10 05 00
	00 00 00	 movss	 xmm0, DWORD PTR __real@3f800000
  00252	f3 0f 11 80 98
	1d 00 00	 movss	 DWORD PTR [eax+7576], xmm0

; 214  : 	current_flight_dynamics->main_rotor_area.modifier = 1.0;

  0025a	a1 00 00 00 00	 mov	 eax, DWORD PTR ?current_flight_dynamics@@3PAUDYNAMICS_TYPE@@A ; current_flight_dynamics
  0025f	f3 0f 10 05 00
	00 00 00	 movss	 xmm0, DWORD PTR __real@3f800000
  00267	f3 0f 11 80 b0
	1d 00 00	 movss	 DWORD PTR [eax+7600], xmm0

; 215  : 	current_flight_dynamics->main_rotor_thrust.modifier = 1.0;

  0026f	a1 00 00 00 00	 mov	 eax, DWORD PTR ?current_flight_dynamics@@3PAUDYNAMICS_TYPE@@A ; current_flight_dynamics
  00274	f3 0f 10 05 00
	00 00 00	 movss	 xmm0, DWORD PTR __real@3f800000
  0027c	f3 0f 11 80 c8
	1d 00 00	 movss	 DWORD PTR [eax+7624], xmm0

; 216  : 	current_flight_dynamics->main_rotor_roll_angle.modifier = 1.0;

  00284	a1 00 00 00 00	 mov	 eax, DWORD PTR ?current_flight_dynamics@@3PAUDYNAMICS_TYPE@@A ; current_flight_dynamics
  00289	f3 0f 10 05 00
	00 00 00	 movss	 xmm0, DWORD PTR __real@3f800000
  00291	f3 0f 11 80 e0
	1d 00 00	 movss	 DWORD PTR [eax+7648], xmm0

; 217  : 	current_flight_dynamics->main_rotor_pitch_angle.modifier = 1.0;

  00299	a1 00 00 00 00	 mov	 eax, DWORD PTR ?current_flight_dynamics@@3PAUDYNAMICS_TYPE@@A ; current_flight_dynamics
  0029e	f3 0f 10 05 00
	00 00 00	 movss	 xmm0, DWORD PTR __real@3f800000
  002a6	f3 0f 11 80 f8
	1d 00 00	 movss	 DWORD PTR [eax+7672], xmm0

; 218  : 	current_flight_dynamics->main_rotor_rpm.modifier = 1.0;

  002ae	a1 00 00 00 00	 mov	 eax, DWORD PTR ?current_flight_dynamics@@3PAUDYNAMICS_TYPE@@A ; current_flight_dynamics
  002b3	f3 0f 10 05 00
	00 00 00	 movss	 xmm0, DWORD PTR __real@3f800000
  002bb	f3 0f 11 80 10
	1e 00 00	 movss	 DWORD PTR [eax+7696], xmm0

; 219  : 	current_flight_dynamics->main_rotor_rps.modifier = 1.0;

  002c3	a1 00 00 00 00	 mov	 eax, DWORD PTR ?current_flight_dynamics@@3PAUDYNAMICS_TYPE@@A ; current_flight_dynamics
  002c8	f3 0f 10 05 00
	00 00 00	 movss	 xmm0, DWORD PTR __real@3f800000
  002d0	f3 0f 11 80 28
	1e 00 00	 movss	 DWORD PTR [eax+7720], xmm0

; 220  : 	current_flight_dynamics->main_rotor_coning_angle.modifier = 1.0;

  002d8	a1 00 00 00 00	 mov	 eax, DWORD PTR ?current_flight_dynamics@@3PAUDYNAMICS_TYPE@@A ; current_flight_dynamics
  002dd	f3 0f 10 05 00
	00 00 00	 movss	 xmm0, DWORD PTR __real@3f800000
  002e5	f3 0f 11 80 40
	1e 00 00	 movss	 DWORD PTR [eax+7744], xmm0

; 221  : 	current_flight_dynamics->main_rotor_angular_position.modifier = 1.0;

  002ed	a1 00 00 00 00	 mov	 eax, DWORD PTR ?current_flight_dynamics@@3PAUDYNAMICS_TYPE@@A ; current_flight_dynamics
  002f2	f3 0f 10 05 00
	00 00 00	 movss	 xmm0, DWORD PTR __real@3f800000
  002fa	f3 0f 11 80 58
	1e 00 00	 movss	 DWORD PTR [eax+7768], xmm0

; 222  : 	current_flight_dynamics->main_rotor_angular_increment.modifier = 1.0;

  00302	a1 00 00 00 00	 mov	 eax, DWORD PTR ?current_flight_dynamics@@3PAUDYNAMICS_TYPE@@A ; current_flight_dynamics
  00307	f3 0f 10 05 00
	00 00 00	 movss	 xmm0, DWORD PTR __real@3f800000
  0030f	f3 0f 11 80 70
	1e 00 00	 movss	 DWORD PTR [eax+7792], xmm0

; 223  : 	current_flight_dynamics->main_blade_pitch.modifier = 1.0;

  00317	a1 00 00 00 00	 mov	 eax, DWORD PTR ?current_flight_dynamics@@3PAUDYNAMICS_TYPE@@A ; current_flight_dynamics
  0031c	f3 0f 10 05 00
	00 00 00	 movss	 xmm0, DWORD PTR __real@3f800000
  00324	f3 0f 11 80 88
	1e 00 00	 movss	 DWORD PTR [eax+7816], xmm0

; 224  : 	current_flight_dynamics->main_blade_x_pitch.modifier = 1.0;

  0032c	a1 00 00 00 00	 mov	 eax, DWORD PTR ?current_flight_dynamics@@3PAUDYNAMICS_TYPE@@A ; current_flight_dynamics
  00331	f3 0f 10 05 00
	00 00 00	 movss	 xmm0, DWORD PTR __real@3f800000
  00339	f3 0f 11 80 a0
	1e 00 00	 movss	 DWORD PTR [eax+7840], xmm0

; 225  : 	current_flight_dynamics->main_blade_y_pitch.modifier = 1.0;

  00341	a1 00 00 00 00	 mov	 eax, DWORD PTR ?current_flight_dynamics@@3PAUDYNAMICS_TYPE@@A ; current_flight_dynamics
  00346	f3 0f 10 05 00
	00 00 00	 movss	 xmm0, DWORD PTR __real@3f800000
  0034e	f3 0f 11 80 b8
	1e 00 00	 movss	 DWORD PTR [eax+7864], xmm0

; 226  : 	current_flight_dynamics->main_rotor_swash_plate_pitch.modifier = 1.0;

  00356	a1 00 00 00 00	 mov	 eax, DWORD PTR ?current_flight_dynamics@@3PAUDYNAMICS_TYPE@@A ; current_flight_dynamics
  0035b	f3 0f 10 05 00
	00 00 00	 movss	 xmm0, DWORD PTR __real@3f800000
  00363	f3 0f 11 80 d0
	1e 00 00	 movss	 DWORD PTR [eax+7888], xmm0

; 227  : 	current_flight_dynamics->main_rotor_swash_plate_roll.modifier = 1.0;

  0036b	a1 00 00 00 00	 mov	 eax, DWORD PTR ?current_flight_dynamics@@3PAUDYNAMICS_TYPE@@A ; current_flight_dynamics
  00370	f3 0f 10 05 00
	00 00 00	 movss	 xmm0, DWORD PTR __real@3f800000
  00378	f3 0f 11 80 e8
	1e 00 00	 movss	 DWORD PTR [eax+7912], xmm0

; 228  : 	current_flight_dynamics->tail_rotor_induced_air.modifier = 1.0;

  00380	a1 00 00 00 00	 mov	 eax, DWORD PTR ?current_flight_dynamics@@3PAUDYNAMICS_TYPE@@A ; current_flight_dynamics
  00385	f3 0f 10 05 00
	00 00 00	 movss	 xmm0, DWORD PTR __real@3f800000
  0038d	f3 0f 11 80 00
	1f 00 00	 movss	 DWORD PTR [eax+7936], xmm0

; 229  : 	current_flight_dynamics->tail_rotor_diameter.modifier = 1.0;

  00395	a1 00 00 00 00	 mov	 eax, DWORD PTR ?current_flight_dynamics@@3PAUDYNAMICS_TYPE@@A ; current_flight_dynamics
  0039a	f3 0f 10 05 00
	00 00 00	 movss	 xmm0, DWORD PTR __real@3f800000
  003a2	f3 0f 11 80 18
	1f 00 00	 movss	 DWORD PTR [eax+7960], xmm0

; 230  : 	current_flight_dynamics->tail_rotor_thrust.modifier = 1.0;

  003aa	a1 00 00 00 00	 mov	 eax, DWORD PTR ?current_flight_dynamics@@3PAUDYNAMICS_TYPE@@A ; current_flight_dynamics
  003af	f3 0f 10 05 00
	00 00 00	 movss	 xmm0, DWORD PTR __real@3f800000
  003b7	f3 0f 11 80 30
	1f 00 00	 movss	 DWORD PTR [eax+7984], xmm0

; 231  : 	current_flight_dynamics->tail_rotor_rpm.modifier = 1.0;

  003bf	a1 00 00 00 00	 mov	 eax, DWORD PTR ?current_flight_dynamics@@3PAUDYNAMICS_TYPE@@A ; current_flight_dynamics
  003c4	f3 0f 10 05 00
	00 00 00	 movss	 xmm0, DWORD PTR __real@3f800000
  003cc	f3 0f 11 80 48
	1f 00 00	 movss	 DWORD PTR [eax+8008], xmm0

; 232  : 	current_flight_dynamics->tail_rotor_rps.modifier = 1.0;

  003d4	a1 00 00 00 00	 mov	 eax, DWORD PTR ?current_flight_dynamics@@3PAUDYNAMICS_TYPE@@A ; current_flight_dynamics
  003d9	f3 0f 10 05 00
	00 00 00	 movss	 xmm0, DWORD PTR __real@3f800000
  003e1	f3 0f 11 80 60
	1f 00 00	 movss	 DWORD PTR [eax+8032], xmm0

; 233  : 	current_flight_dynamics->tail_rotor_angular_position.modifier = 1.0;

  003e9	a1 00 00 00 00	 mov	 eax, DWORD PTR ?current_flight_dynamics@@3PAUDYNAMICS_TYPE@@A ; current_flight_dynamics
  003ee	f3 0f 10 05 00
	00 00 00	 movss	 xmm0, DWORD PTR __real@3f800000
  003f6	f3 0f 11 80 78
	1f 00 00	 movss	 DWORD PTR [eax+8056], xmm0

; 234  : 	current_flight_dynamics->tail_blade_pitch.modifier = 1.0;

  003fe	a1 00 00 00 00	 mov	 eax, DWORD PTR ?current_flight_dynamics@@3PAUDYNAMICS_TYPE@@A ; current_flight_dynamics
  00403	f3 0f 10 05 00
	00 00 00	 movss	 xmm0, DWORD PTR __real@3f800000
  0040b	f3 0f 11 80 90
	1f 00 00	 movss	 DWORD PTR [eax+8080], xmm0

; 235  : 	current_flight_dynamics->tail_boom_length.modifier = 1.0;

  00413	a1 00 00 00 00	 mov	 eax, DWORD PTR ?current_flight_dynamics@@3PAUDYNAMICS_TYPE@@A ; current_flight_dynamics
  00418	f3 0f 10 05 00
	00 00 00	 movss	 xmm0, DWORD PTR __real@3f800000
  00420	f3 0f 11 80 a8
	1f 00 00	 movss	 DWORD PTR [eax+8104], xmm0

; 236  : 	current_flight_dynamics->cross_coupling_effect.modifier = 1.0;

  00428	a1 00 00 00 00	 mov	 eax, DWORD PTR ?current_flight_dynamics@@3PAUDYNAMICS_TYPE@@A ; current_flight_dynamics
  0042d	f3 0f 10 05 00
	00 00 00	 movss	 xmm0, DWORD PTR __real@3f800000
  00435	f3 0f 11 80 c0
	1f 00 00	 movss	 DWORD PTR [eax+8128], xmm0

; 237  : 	current_flight_dynamics->power_avaliable.modifier = 1.0;

  0043d	a1 00 00 00 00	 mov	 eax, DWORD PTR ?current_flight_dynamics@@3PAUDYNAMICS_TYPE@@A ; current_flight_dynamics
  00442	f3 0f 10 05 00
	00 00 00	 movss	 xmm0, DWORD PTR __real@3f800000
  0044a	f3 0f 11 80 d8
	1f 00 00	 movss	 DWORD PTR [eax+8152], xmm0

; 238  : 	current_flight_dynamics->power_required.modifier = 1.0;

  00452	a1 00 00 00 00	 mov	 eax, DWORD PTR ?current_flight_dynamics@@3PAUDYNAMICS_TYPE@@A ; current_flight_dynamics
  00457	f3 0f 10 05 00
	00 00 00	 movss	 xmm0, DWORD PTR __real@3f800000
  0045f	f3 0f 11 80 f0
	1f 00 00	 movss	 DWORD PTR [eax+8176], xmm0

; 239  : 	current_flight_dynamics->power_induced.modifier = 1.0;

  00467	a1 00 00 00 00	 mov	 eax, DWORD PTR ?current_flight_dynamics@@3PAUDYNAMICS_TYPE@@A ; current_flight_dynamics
  0046c	f3 0f 10 05 00
	00 00 00	 movss	 xmm0, DWORD PTR __real@3f800000
  00474	f3 0f 11 80 08
	20 00 00	 movss	 DWORD PTR [eax+8200], xmm0

; 240  : 	current_flight_dynamics->power_profile.modifier = 1.0;

  0047c	a1 00 00 00 00	 mov	 eax, DWORD PTR ?current_flight_dynamics@@3PAUDYNAMICS_TYPE@@A ; current_flight_dynamics
  00481	f3 0f 10 05 00
	00 00 00	 movss	 xmm0, DWORD PTR __real@3f800000
  00489	f3 0f 11 80 20
	20 00 00	 movss	 DWORD PTR [eax+8224], xmm0

; 241  : 	current_flight_dynamics->power_parasite.modifier = 1.0;

  00491	a1 00 00 00 00	 mov	 eax, DWORD PTR ?current_flight_dynamics@@3PAUDYNAMICS_TYPE@@A ; current_flight_dynamics
  00496	f3 0f 10 05 00
	00 00 00	 movss	 xmm0, DWORD PTR __real@3f800000
  0049e	f3 0f 11 80 38
	20 00 00	 movss	 DWORD PTR [eax+8248], xmm0

; 242  : 	current_flight_dynamics->power_surplus.modifier = 1.0;

  004a6	a1 00 00 00 00	 mov	 eax, DWORD PTR ?current_flight_dynamics@@3PAUDYNAMICS_TYPE@@A ; current_flight_dynamics
  004ab	f3 0f 10 05 00
	00 00 00	 movss	 xmm0, DWORD PTR __real@3f800000
  004b3	f3 0f 11 80 50
	20 00 00	 movss	 DWORD PTR [eax+8272], xmm0

; 243  : 	current_flight_dynamics->velocity_x.modifier = 1.0;

  004bb	a1 00 00 00 00	 mov	 eax, DWORD PTR ?current_flight_dynamics@@3PAUDYNAMICS_TYPE@@A ; current_flight_dynamics
  004c0	f3 0f 10 05 00
	00 00 00	 movss	 xmm0, DWORD PTR __real@3f800000
  004c8	f3 0f 11 80 68
	20 00 00	 movss	 DWORD PTR [eax+8296], xmm0

; 244  : 	current_flight_dynamics->velocity_y.modifier = 1.0;

  004d0	a1 00 00 00 00	 mov	 eax, DWORD PTR ?current_flight_dynamics@@3PAUDYNAMICS_TYPE@@A ; current_flight_dynamics
  004d5	f3 0f 10 05 00
	00 00 00	 movss	 xmm0, DWORD PTR __real@3f800000
  004dd	f3 0f 11 80 80
	20 00 00	 movss	 DWORD PTR [eax+8320], xmm0

; 245  : 	current_flight_dynamics->velocity_z.modifier = 1.0;

  004e5	a1 00 00 00 00	 mov	 eax, DWORD PTR ?current_flight_dynamics@@3PAUDYNAMICS_TYPE@@A ; current_flight_dynamics
  004ea	f3 0f 10 05 00
	00 00 00	 movss	 xmm0, DWORD PTR __real@3f800000
  004f2	f3 0f 11 80 98
	20 00 00	 movss	 DWORD PTR [eax+8344], xmm0

; 246  : 	current_flight_dynamics->acceleration_x.modifier = 1.0;

  004fa	a1 00 00 00 00	 mov	 eax, DWORD PTR ?current_flight_dynamics@@3PAUDYNAMICS_TYPE@@A ; current_flight_dynamics
  004ff	f3 0f 10 05 00
	00 00 00	 movss	 xmm0, DWORD PTR __real@3f800000
  00507	f3 0f 11 80 b0
	20 00 00	 movss	 DWORD PTR [eax+8368], xmm0

; 247  : 	current_flight_dynamics->acceleration_y.modifier = 1.0;

  0050f	a1 00 00 00 00	 mov	 eax, DWORD PTR ?current_flight_dynamics@@3PAUDYNAMICS_TYPE@@A ; current_flight_dynamics
  00514	f3 0f 10 05 00
	00 00 00	 movss	 xmm0, DWORD PTR __real@3f800000
  0051c	f3 0f 11 80 c8
	20 00 00	 movss	 DWORD PTR [eax+8392], xmm0

; 248  : 	current_flight_dynamics->acceleration_z.modifier = 1.0;

  00524	a1 00 00 00 00	 mov	 eax, DWORD PTR ?current_flight_dynamics@@3PAUDYNAMICS_TYPE@@A ; current_flight_dynamics
  00529	f3 0f 10 05 00
	00 00 00	 movss	 xmm0, DWORD PTR __real@3f800000
  00531	f3 0f 11 80 e0
	20 00 00	 movss	 DWORD PTR [eax+8416], xmm0

; 249  : 	current_flight_dynamics->world_velocity_x.modifier = 1.0;

  00539	a1 00 00 00 00	 mov	 eax, DWORD PTR ?current_flight_dynamics@@3PAUDYNAMICS_TYPE@@A ; current_flight_dynamics
  0053e	f3 0f 10 05 00
	00 00 00	 movss	 xmm0, DWORD PTR __real@3f800000
  00546	f3 0f 11 80 f8
	20 00 00	 movss	 DWORD PTR [eax+8440], xmm0

; 250  : 	current_flight_dynamics->world_velocity_y.modifier = 1.0;

  0054e	a1 00 00 00 00	 mov	 eax, DWORD PTR ?current_flight_dynamics@@3PAUDYNAMICS_TYPE@@A ; current_flight_dynamics
  00553	f3 0f 10 05 00
	00 00 00	 movss	 xmm0, DWORD PTR __real@3f800000
  0055b	f3 0f 11 80 10
	21 00 00	 movss	 DWORD PTR [eax+8464], xmm0

; 251  : 	current_flight_dynamics->world_velocity_z.modifier = 1.0;

  00563	a1 00 00 00 00	 mov	 eax, DWORD PTR ?current_flight_dynamics@@3PAUDYNAMICS_TYPE@@A ; current_flight_dynamics
  00568	f3 0f 10 05 00
	00 00 00	 movss	 xmm0, DWORD PTR __real@3f800000
  00570	f3 0f 11 80 28
	21 00 00	 movss	 DWORD PTR [eax+8488], xmm0

; 252  : 	current_flight_dynamics->air_density.modifier = 1.0;

  00578	a1 00 00 00 00	 mov	 eax, DWORD PTR ?current_flight_dynamics@@3PAUDYNAMICS_TYPE@@A ; current_flight_dynamics
  0057d	f3 0f 10 05 00
	00 00 00	 movss	 xmm0, DWORD PTR __real@3f800000
  00585	f3 0f 11 80 40
	21 00 00	 movss	 DWORD PTR [eax+8512], xmm0

; 253  : 	current_flight_dynamics->pitch.modifier = 1.0;

  0058d	a1 00 00 00 00	 mov	 eax, DWORD PTR ?current_flight_dynamics@@3PAUDYNAMICS_TYPE@@A ; current_flight_dynamics
  00592	f3 0f 10 05 00
	00 00 00	 movss	 xmm0, DWORD PTR __real@3f800000
  0059a	f3 0f 11 80 58
	21 00 00	 movss	 DWORD PTR [eax+8536], xmm0

; 254  : 	current_flight_dynamics->roll.modifier = 1.0;

  005a2	a1 00 00 00 00	 mov	 eax, DWORD PTR ?current_flight_dynamics@@3PAUDYNAMICS_TYPE@@A ; current_flight_dynamics
  005a7	f3 0f 10 05 00
	00 00 00	 movss	 xmm0, DWORD PTR __real@3f800000
  005af	f3 0f 11 80 70
	21 00 00	 movss	 DWORD PTR [eax+8560], xmm0

; 255  : 	current_flight_dynamics->heading.modifier = 1.0;

  005b7	a1 00 00 00 00	 mov	 eax, DWORD PTR ?current_flight_dynamics@@3PAUDYNAMICS_TYPE@@A ; current_flight_dynamics
  005bc	f3 0f 10 05 00
	00 00 00	 movss	 xmm0, DWORD PTR __real@3f800000
  005c4	f3 0f 11 80 88
	21 00 00	 movss	 DWORD PTR [eax+8584], xmm0

; 256  : 	current_flight_dynamics->lift.modifier = 1.0;

  005cc	a1 00 00 00 00	 mov	 eax, DWORD PTR ?current_flight_dynamics@@3PAUDYNAMICS_TYPE@@A ; current_flight_dynamics
  005d1	f3 0f 10 05 00
	00 00 00	 movss	 xmm0, DWORD PTR __real@3f800000
  005d9	f3 0f 11 80 a0
	21 00 00	 movss	 DWORD PTR [eax+8608], xmm0

; 257  : 	current_flight_dynamics->translational_lift.modifier = 0.01;

  005e1	a1 00 00 00 00	 mov	 eax, DWORD PTR ?current_flight_dynamics@@3PAUDYNAMICS_TYPE@@A ; current_flight_dynamics
  005e6	f3 0f 10 05 00
	00 00 00	 movss	 xmm0, DWORD PTR __real@3c23d70a
  005ee	f3 0f 11 80 b8
	21 00 00	 movss	 DWORD PTR [eax+8632], xmm0

; 258  : 	current_flight_dynamics->altitude.modifier = 1.0;

  005f6	a1 00 00 00 00	 mov	 eax, DWORD PTR ?current_flight_dynamics@@3PAUDYNAMICS_TYPE@@A ; current_flight_dynamics
  005fb	f3 0f 10 05 00
	00 00 00	 movss	 xmm0, DWORD PTR __real@3f800000
  00603	f3 0f 11 80 d0
	21 00 00	 movss	 DWORD PTR [eax+8656], xmm0

; 259  : 	current_flight_dynamics->drag_x.modifier = 1.0;

  0060b	a1 00 00 00 00	 mov	 eax, DWORD PTR ?current_flight_dynamics@@3PAUDYNAMICS_TYPE@@A ; current_flight_dynamics
  00610	f3 0f 10 05 00
	00 00 00	 movss	 xmm0, DWORD PTR __real@3f800000
  00618	f3 0f 11 80 e8
	21 00 00	 movss	 DWORD PTR [eax+8680], xmm0

; 260  : 	current_flight_dynamics->drag_y.modifier = 1.0;

  00620	a1 00 00 00 00	 mov	 eax, DWORD PTR ?current_flight_dynamics@@3PAUDYNAMICS_TYPE@@A ; current_flight_dynamics
  00625	f3 0f 10 05 00
	00 00 00	 movss	 xmm0, DWORD PTR __real@3f800000
  0062d	f3 0f 11 80 00
	22 00 00	 movss	 DWORD PTR [eax+8704], xmm0

; 261  : 	current_flight_dynamics->drag_z.modifier = 1.0;

  00635	a1 00 00 00 00	 mov	 eax, DWORD PTR ?current_flight_dynamics@@3PAUDYNAMICS_TYPE@@A ; current_flight_dynamics
  0063a	f3 0f 10 05 00
	00 00 00	 movss	 xmm0, DWORD PTR __real@3f800000
  00642	f3 0f 11 80 18
	22 00 00	 movss	 DWORD PTR [eax+8728], xmm0

; 262  : 	current_flight_dynamics->heading_inertia.modifier = 1.0;

  0064a	a1 00 00 00 00	 mov	 eax, DWORD PTR ?current_flight_dynamics@@3PAUDYNAMICS_TYPE@@A ; current_flight_dynamics
  0064f	f3 0f 10 05 00
	00 00 00	 movss	 xmm0, DWORD PTR __real@3f800000
  00657	f3 0f 11 80 30
	22 00 00	 movss	 DWORD PTR [eax+8752], xmm0

; 263  : 	current_flight_dynamics->pitch_inertia.modifier = 1.0;

  0065f	a1 00 00 00 00	 mov	 eax, DWORD PTR ?current_flight_dynamics@@3PAUDYNAMICS_TYPE@@A ; current_flight_dynamics
  00664	f3 0f 10 05 00
	00 00 00	 movss	 xmm0, DWORD PTR __real@3f800000
  0066c	f3 0f 11 80 48
	22 00 00	 movss	 DWORD PTR [eax+8776], xmm0

; 264  : 	current_flight_dynamics->roll_inertia.modifier = 1.0;

  00674	a1 00 00 00 00	 mov	 eax, DWORD PTR ?current_flight_dynamics@@3PAUDYNAMICS_TYPE@@A ; current_flight_dynamics
  00679	f3 0f 10 05 00
	00 00 00	 movss	 xmm0, DWORD PTR __real@3f800000
  00681	f3 0f 11 80 60
	22 00 00	 movss	 DWORD PTR [eax+8800], xmm0

; 265  : 	current_flight_dynamics->heading_moment.modifier = 1.0;

  00689	a1 00 00 00 00	 mov	 eax, DWORD PTR ?current_flight_dynamics@@3PAUDYNAMICS_TYPE@@A ; current_flight_dynamics
  0068e	f3 0f 10 05 00
	00 00 00	 movss	 xmm0, DWORD PTR __real@3f800000
  00696	f3 0f 11 80 78
	22 00 00	 movss	 DWORD PTR [eax+8824], xmm0

; 266  : 	current_flight_dynamics->pitch_moment.modifier = 1.0;

  0069e	a1 00 00 00 00	 mov	 eax, DWORD PTR ?current_flight_dynamics@@3PAUDYNAMICS_TYPE@@A ; current_flight_dynamics
  006a3	f3 0f 10 05 00
	00 00 00	 movss	 xmm0, DWORD PTR __real@3f800000
  006ab	f3 0f 11 80 90
	22 00 00	 movss	 DWORD PTR [eax+8848], xmm0

; 267  : 	current_flight_dynamics->roll_moment.modifier = 1.0;

  006b3	a1 00 00 00 00	 mov	 eax, DWORD PTR ?current_flight_dynamics@@3PAUDYNAMICS_TYPE@@A ; current_flight_dynamics
  006b8	f3 0f 10 05 00
	00 00 00	 movss	 xmm0, DWORD PTR __real@3f800000
  006c0	f3 0f 11 80 a8
	22 00 00	 movss	 DWORD PTR [eax+8872], xmm0

; 268  : 	current_flight_dynamics->heading_moment_reaction.modifier = 1.0;

  006c8	a1 00 00 00 00	 mov	 eax, DWORD PTR ?current_flight_dynamics@@3PAUDYNAMICS_TYPE@@A ; current_flight_dynamics
  006cd	f3 0f 10 05 00
	00 00 00	 movss	 xmm0, DWORD PTR __real@3f800000
  006d5	f3 0f 11 80 c0
	22 00 00	 movss	 DWORD PTR [eax+8896], xmm0

; 269  : 	current_flight_dynamics->pitch_moment_reaction.modifier = 1.0;

  006dd	a1 00 00 00 00	 mov	 eax, DWORD PTR ?current_flight_dynamics@@3PAUDYNAMICS_TYPE@@A ; current_flight_dynamics
  006e2	f3 0f 10 05 00
	00 00 00	 movss	 xmm0, DWORD PTR __real@3f800000
  006ea	f3 0f 11 80 d8
	22 00 00	 movss	 DWORD PTR [eax+8920], xmm0

; 270  : 	current_flight_dynamics->roll_moment_reaction.modifier = 1.0;

  006f2	a1 00 00 00 00	 mov	 eax, DWORD PTR ?current_flight_dynamics@@3PAUDYNAMICS_TYPE@@A ; current_flight_dynamics
  006f7	f3 0f 10 05 00
	00 00 00	 movss	 xmm0, DWORD PTR __real@3f800000
  006ff	f3 0f 11 80 f0
	22 00 00	 movss	 DWORD PTR [eax+8944], xmm0

; 271  : 	current_flight_dynamics->angular_heading_acceleration.modifier = 1.0;

  00707	a1 00 00 00 00	 mov	 eax, DWORD PTR ?current_flight_dynamics@@3PAUDYNAMICS_TYPE@@A ; current_flight_dynamics
  0070c	f3 0f 10 05 00
	00 00 00	 movss	 xmm0, DWORD PTR __real@3f800000
  00714	f3 0f 11 80 08
	23 00 00	 movss	 DWORD PTR [eax+8968], xmm0

; 272  : 	current_flight_dynamics->angular_pitch_acceleration.modifier = 1.0;

  0071c	a1 00 00 00 00	 mov	 eax, DWORD PTR ?current_flight_dynamics@@3PAUDYNAMICS_TYPE@@A ; current_flight_dynamics
  00721	f3 0f 10 05 00
	00 00 00	 movss	 xmm0, DWORD PTR __real@3f800000
  00729	f3 0f 11 80 20
	23 00 00	 movss	 DWORD PTR [eax+8992], xmm0

; 273  : 	current_flight_dynamics->angular_roll_acceleration.modifier = 1.0;

  00731	a1 00 00 00 00	 mov	 eax, DWORD PTR ?current_flight_dynamics@@3PAUDYNAMICS_TYPE@@A ; current_flight_dynamics
  00736	f3 0f 10 05 00
	00 00 00	 movss	 xmm0, DWORD PTR __real@3f800000
  0073e	f3 0f 11 80 38
	23 00 00	 movss	 DWORD PTR [eax+9016], xmm0

; 274  : 	current_flight_dynamics->angular_heading_velocity.modifier = 1.0;

  00746	a1 00 00 00 00	 mov	 eax, DWORD PTR ?current_flight_dynamics@@3PAUDYNAMICS_TYPE@@A ; current_flight_dynamics
  0074b	f3 0f 10 05 00
	00 00 00	 movss	 xmm0, DWORD PTR __real@3f800000
  00753	f3 0f 11 80 50
	23 00 00	 movss	 DWORD PTR [eax+9040], xmm0

; 275  : 	current_flight_dynamics->angular_pitch_velocity.modifier = 1.0;

  0075b	a1 00 00 00 00	 mov	 eax, DWORD PTR ?current_flight_dynamics@@3PAUDYNAMICS_TYPE@@A ; current_flight_dynamics
  00760	f3 0f 10 05 00
	00 00 00	 movss	 xmm0, DWORD PTR __real@3f800000
  00768	f3 0f 11 80 68
	23 00 00	 movss	 DWORD PTR [eax+9064], xmm0

; 276  : 	current_flight_dynamics->angular_roll_velocity.modifier = 1.0;

  00770	a1 00 00 00 00	 mov	 eax, DWORD PTR ?current_flight_dynamics@@3PAUDYNAMICS_TYPE@@A ; current_flight_dynamics
  00775	f3 0f 10 05 00
	00 00 00	 movss	 xmm0, DWORD PTR __real@3f800000
  0077d	f3 0f 11 80 80
	23 00 00	 movss	 DWORD PTR [eax+9088], xmm0

; 277  : 	current_flight_dynamics->landing_quality.modifier = 1.0;

  00785	a1 00 00 00 00	 mov	 eax, DWORD PTR ?current_flight_dynamics@@3PAUDYNAMICS_TYPE@@A ; current_flight_dynamics
  0078a	f3 0f 10 05 00
	00 00 00	 movss	 xmm0, DWORD PTR __real@3f800000
  00792	f3 0f 11 80 98
	23 00 00	 movss	 DWORD PTR [eax+9112], xmm0

; 278  : 	current_flight_dynamics->mass.modifier = 1.0;

  0079a	a1 00 00 00 00	 mov	 eax, DWORD PTR ?current_flight_dynamics@@3PAUDYNAMICS_TYPE@@A ; current_flight_dynamics
  0079f	f3 0f 10 05 00
	00 00 00	 movss	 xmm0, DWORD PTR __real@3f800000
  007a7	f3 0f 11 80 b0
	23 00 00	 movss	 DWORD PTR [eax+9136], xmm0

; 279  : 	current_flight_dynamics->weapon_mass.modifier = 1.0;

  007af	a1 00 00 00 00	 mov	 eax, DWORD PTR ?current_flight_dynamics@@3PAUDYNAMICS_TYPE@@A ; current_flight_dynamics
  007b4	f3 0f 10 05 00
	00 00 00	 movss	 xmm0, DWORD PTR __real@3f800000
  007bc	f3 0f 11 80 c8
	23 00 00	 movss	 DWORD PTR [eax+9160], xmm0

; 280  : 	current_flight_dynamics->ground_effect.modifier = 1.5;

  007c4	a1 00 00 00 00	 mov	 eax, DWORD PTR ?current_flight_dynamics@@3PAUDYNAMICS_TYPE@@A ; current_flight_dynamics
  007c9	f3 0f 10 05 00
	00 00 00	 movss	 xmm0, DWORD PTR __real@3fc00000
  007d1	f3 0f 11 80 e0
	23 00 00	 movss	 DWORD PTR [eax+9184], xmm0

; 281  : 	current_flight_dynamics->indicated_airspeed.modifier = 1.0;

  007d9	a1 00 00 00 00	 mov	 eax, DWORD PTR ?current_flight_dynamics@@3PAUDYNAMICS_TYPE@@A ; current_flight_dynamics
  007de	f3 0f 10 05 00
	00 00 00	 movss	 xmm0, DWORD PTR __real@3f800000
  007e6	f3 0f 11 80 f8
	23 00 00	 movss	 DWORD PTR [eax+9208], xmm0

; 282  : 	current_flight_dynamics->indicated_slip.modifier = 1.0;

  007ee	a1 00 00 00 00	 mov	 eax, DWORD PTR ?current_flight_dynamics@@3PAUDYNAMICS_TYPE@@A ; current_flight_dynamics
  007f3	f3 0f 10 05 00
	00 00 00	 movss	 xmm0, DWORD PTR __real@3f800000
  007fb	f3 0f 11 80 10
	24 00 00	 movss	 DWORD PTR [eax+9232], xmm0

; 283  : 	current_flight_dynamics->barometric_altitude.modifier = 1.0;

  00803	a1 00 00 00 00	 mov	 eax, DWORD PTR ?current_flight_dynamics@@3PAUDYNAMICS_TYPE@@A ; current_flight_dynamics
  00808	f3 0f 10 05 00
	00 00 00	 movss	 xmm0, DWORD PTR __real@3f800000
  00810	f3 0f 11 80 28
	24 00 00	 movss	 DWORD PTR [eax+9256], xmm0

; 284  : 	current_flight_dynamics->radar_altitude.modifier = 1.0;

  00818	a1 00 00 00 00	 mov	 eax, DWORD PTR ?current_flight_dynamics@@3PAUDYNAMICS_TYPE@@A ; current_flight_dynamics
  0081d	f3 0f 10 05 00
	00 00 00	 movss	 xmm0, DWORD PTR __real@3f800000
  00825	f3 0f 11 80 40
	24 00 00	 movss	 DWORD PTR [eax+9280], xmm0

; 285  : 	current_flight_dynamics->g_force.modifier = 1.0;

  0082d	a1 00 00 00 00	 mov	 eax, DWORD PTR ?current_flight_dynamics@@3PAUDYNAMICS_TYPE@@A ; current_flight_dynamics
  00832	f3 0f 10 05 00
	00 00 00	 movss	 xmm0, DWORD PTR __real@3f800000
  0083a	f3 0f 11 80 58
	24 00 00	 movss	 DWORD PTR [eax+9304], xmm0

; 286  : 	current_flight_dynamics->combined_engine_rpm.modifier = 1.0;

  00842	a1 00 00 00 00	 mov	 eax, DWORD PTR ?current_flight_dynamics@@3PAUDYNAMICS_TYPE@@A ; current_flight_dynamics
  00847	f3 0f 10 05 00
	00 00 00	 movss	 xmm0, DWORD PTR __real@3f800000
  0084f	f3 0f 11 80 70
	24 00 00	 movss	 DWORD PTR [eax+9328], xmm0

; 287  : 	current_flight_dynamics->combined_engine_torque.modifier = 1.0;

  00857	a1 00 00 00 00	 mov	 eax, DWORD PTR ?current_flight_dynamics@@3PAUDYNAMICS_TYPE@@A ; current_flight_dynamics
  0085c	f3 0f 10 05 00
	00 00 00	 movss	 xmm0, DWORD PTR __real@3f800000
  00864	f3 0f 11 80 88
	24 00 00	 movss	 DWORD PTR [eax+9352], xmm0

; 288  : 	current_flight_dynamics->fuel_weight.modifier = 1.0;

  0086c	a1 00 00 00 00	 mov	 eax, DWORD PTR ?current_flight_dynamics@@3PAUDYNAMICS_TYPE@@A ; current_flight_dynamics
  00871	f3 0f 10 05 00
	00 00 00	 movss	 xmm0, DWORD PTR __real@3f800000
  00879	f3 0f 11 80 a0
	24 00 00	 movss	 DWORD PTR [eax+9376], xmm0

; 289  : 
; 290  : 	//
; 291  : 
; 292  : 	get_local_entity_vec3d (get_gunship_entity (), VEC3D_TYPE_POSITION, &position);

  00881	83 3d 00 00 00
	00 00		 cmp	 DWORD PTR ?gunship_entity@@3PAUENTITY@@A, 0 ; gunship_entity
  00888	74 0c		 je	 SHORT $LN8@set_dynami
  0088a	a1 00 00 00 00	 mov	 eax, DWORD PTR ?gunship_entity@@3PAUENTITY@@A ; gunship_entity
  0088f	8b 08		 mov	 ecx, DWORD PTR [eax]
  00891	89 4d 98	 mov	 DWORD PTR tv339[ebp], ecx
  00894	eb 24		 jmp	 SHORT $LN9@set_dynami
$LN8@set_dynami:
  00896	8b 15 00 00 00
	00		 mov	 edx, DWORD PTR ?__LINE__Var@?0??set_dynamics_defaults@@YGXPAUENTITY@@@Z@4JA
  0089c	81 c2 94 00 00
	00		 add	 edx, 148		; 00000094H
  008a2	52		 push	 edx
  008a3	68 00 00 00 00	 push	 OFFSET ??_C@_0FA@IFJNMDIM@c?3?2users?2nhv90?2projects?2eech?2ap@
  008a8	a1 00 00 00 00	 mov	 eax, DWORD PTR ?null_entity_pointer_message@@3PBDB ; null_entity_pointer_message
  008ad	50		 push	 eax
  008ae	e8 00 00 00 00	 call	 ?process_assert@@YGXPBD0H@Z ; process_assert
  008b3	c7 45 98 00 00
	00 00		 mov	 DWORD PTR tv339[ebp], 0
$LN9@set_dynami:
  008ba	b9 01 00 00 00	 mov	 ecx, 1
  008bf	85 c9		 test	 ecx, ecx
  008c1	74 09		 je	 SHORT $LN10@set_dynami
  008c3	c7 45 94 08 00
	00 00		 mov	 DWORD PTR tv347[ebp], 8
  008ca	eb 24		 jmp	 SHORT $LN11@set_dynami
$LN10@set_dynami:
  008cc	8b 15 00 00 00
	00		 mov	 edx, DWORD PTR ?__LINE__Var@?0??set_dynamics_defaults@@YGXPAUENTITY@@@Z@4JA
  008d2	81 c2 94 00 00
	00		 add	 edx, 148		; 00000094H
  008d8	52		 push	 edx
  008d9	68 00 00 00 00	 push	 OFFSET ??_C@_0FA@IFJNMDIM@c?3?2users?2nhv90?2projects?2eech?2ap@
  008de	a1 00 00 00 00	 mov	 eax, DWORD PTR ?overload_invalid_vec3d_type_message@@3PBDB ; overload_invalid_vec3d_type_message
  008e3	50		 push	 eax
  008e4	e8 00 00 00 00	 call	 ?process_assert@@YGXPBD0H@Z ; process_assert
  008e9	c7 45 94 00 00
	00 00		 mov	 DWORD PTR tv347[ebp], 0
$LN11@set_dynami:
  008f0	8d 4d f4	 lea	 ecx, DWORD PTR _position$[ebp]
  008f3	51		 push	 ecx
  008f4	6a 08		 push	 8
  008f6	8b 15 00 00 00
	00		 mov	 edx, DWORD PTR ?gunship_entity@@3PAUENTITY@@A ; gunship_entity
  008fc	52		 push	 edx
  008fd	6b 45 98 60	 imul	 eax, DWORD PTR tv339[ebp], 96
  00901	8b 4d 94	 mov	 ecx, DWORD PTR tv347[ebp]
  00904	8b 94 88 00 00
	00 00		 mov	 edx, DWORD PTR ?fn_get_local_entity_vec3d@@3PAY0BI@P6GXPAUENTITY@@W4VEC3D_TYPES@@PAUVEC3D@@@ZA[eax+ecx*4]
  0090b	ff d2		 call	 edx

; 293  : 
; 294  : 	current_flight_dynamics->dynamics_damage = DYNAMICS_DAMAGE_NONE;

  0090d	a1 00 00 00 00	 mov	 eax, DWORD PTR ?current_flight_dynamics@@3PAUDYNAMICS_TYPE@@A ; current_flight_dynamics
  00912	c7 80 24 25 00
	00 01 00 00 00	 mov	 DWORD PTR [eax+9508], 1

; 295  : 	current_flight_dynamics->repairing_damage = DYNAMICS_DAMAGE_NONE;

  0091c	a1 00 00 00 00	 mov	 eax, DWORD PTR ?current_flight_dynamics@@3PAUDYNAMICS_TYPE@@A ; current_flight_dynamics
  00921	c7 80 20 25 00
	00 01 00 00 00	 mov	 DWORD PTR [eax+9504], 1

; 296  : 
; 297  : 	// input values
; 298  : 
; 299  : 	current_flight_dynamics->input_data.collective.value = 0.0;

  0092b	a1 00 00 00 00	 mov	 eax, DWORD PTR ?current_flight_dynamics@@3PAUDYNAMICS_TYPE@@A ; current_flight_dynamics
  00930	0f 57 c0	 xorps	 xmm0, xmm0
  00933	f3 0f 11 80 a8
	1b 00 00	 movss	 DWORD PTR [eax+7080], xmm0

; 300  : 	current_flight_dynamics->input_data.collective.min = 0.0;

  0093b	a1 00 00 00 00	 mov	 eax, DWORD PTR ?current_flight_dynamics@@3PAUDYNAMICS_TYPE@@A ; current_flight_dynamics
  00940	0f 57 c0	 xorps	 xmm0, xmm0
  00943	f3 0f 11 80 b0
	1b 00 00	 movss	 DWORD PTR [eax+7088], xmm0

; 301  : 	current_flight_dynamics->input_data.collective.max = 120;

  0094b	a1 00 00 00 00	 mov	 eax, DWORD PTR ?current_flight_dynamics@@3PAUDYNAMICS_TYPE@@A ; current_flight_dynamics
  00950	f3 0f 10 05 00
	00 00 00	 movss	 xmm0, DWORD PTR __real@42f00000
  00958	f3 0f 11 80 b4
	1b 00 00	 movss	 DWORD PTR [eax+7092], xmm0

; 302  : 
; 303  : 	current_flight_dynamics->input_data.cyclic_x_trim.value = 0.0;

  00960	a1 00 00 00 00	 mov	 eax, DWORD PTR ?current_flight_dynamics@@3PAUDYNAMICS_TYPE@@A ; current_flight_dynamics
  00965	0f 57 c0	 xorps	 xmm0, xmm0
  00968	f3 0f 11 80 28
	01 00 00	 movss	 DWORD PTR [eax+296], xmm0

; 304  : 	current_flight_dynamics->input_data.cyclic_y_trim.value = 6.0;

  00970	a1 00 00 00 00	 mov	 eax, DWORD PTR ?current_flight_dynamics@@3PAUDYNAMICS_TYPE@@A ; current_flight_dynamics
  00975	f3 0f 10 05 00
	00 00 00	 movss	 xmm0, DWORD PTR __real@40c00000
  0097d	f3 0f 11 80 40
	01 00 00	 movss	 DWORD PTR [eax+320], xmm0

; 305  : 
; 306  : 	current_flight_dynamics->input_data.cyclic_x.min = -100.0;

  00985	a1 00 00 00 00	 mov	 eax, DWORD PTR ?current_flight_dynamics@@3PAUDYNAMICS_TYPE@@A ; current_flight_dynamics
  0098a	f3 0f 10 05 00
	00 00 00	 movss	 xmm0, DWORD PTR __real@c2c80000
  00992	f3 0f 11 80 00
	01 00 00	 movss	 DWORD PTR [eax+256], xmm0

; 307  : 	current_flight_dynamics->input_data.cyclic_x.max = 100.0;

  0099a	a1 00 00 00 00	 mov	 eax, DWORD PTR ?current_flight_dynamics@@3PAUDYNAMICS_TYPE@@A ; current_flight_dynamics
  0099f	f3 0f 10 05 00
	00 00 00	 movss	 xmm0, DWORD PTR __real@42c80000
  009a7	f3 0f 11 80 04
	01 00 00	 movss	 DWORD PTR [eax+260], xmm0

; 308  : 
; 309  : 	current_flight_dynamics->input_data.cyclic_y.min = -100.0;

  009af	a1 00 00 00 00	 mov	 eax, DWORD PTR ?current_flight_dynamics@@3PAUDYNAMICS_TYPE@@A ; current_flight_dynamics
  009b4	f3 0f 10 05 00
	00 00 00	 movss	 xmm0, DWORD PTR __real@c2c80000
  009bc	f3 0f 11 80 18
	01 00 00	 movss	 DWORD PTR [eax+280], xmm0

; 310  : 	current_flight_dynamics->input_data.cyclic_y.max = 100.0;

  009c4	a1 00 00 00 00	 mov	 eax, DWORD PTR ?current_flight_dynamics@@3PAUDYNAMICS_TYPE@@A ; current_flight_dynamics
  009c9	f3 0f 10 05 00
	00 00 00	 movss	 xmm0, DWORD PTR __real@42c80000
  009d1	f3 0f 11 80 1c
	01 00 00	 movss	 DWORD PTR [eax+284], xmm0

; 311  : 
; 312  : 	current_flight_dynamics->input_data.cyclic_horizontal_pressure.min = -100.0;

  009d9	a1 00 00 00 00	 mov	 eax, DWORD PTR ?current_flight_dynamics@@3PAUDYNAMICS_TYPE@@A ; current_flight_dynamics
  009de	f3 0f 10 05 00
	00 00 00	 movss	 xmm0, DWORD PTR __real@c2c80000
  009e6	f3 0f 11 80 78
	01 00 00	 movss	 DWORD PTR [eax+376], xmm0

; 313  : 	current_flight_dynamics->input_data.cyclic_horizontal_pressure.max = 100.0;

  009ee	a1 00 00 00 00	 mov	 eax, DWORD PTR ?current_flight_dynamics@@3PAUDYNAMICS_TYPE@@A ; current_flight_dynamics
  009f3	f3 0f 10 05 00
	00 00 00	 movss	 xmm0, DWORD PTR __real@42c80000
  009fb	f3 0f 11 80 7c
	01 00 00	 movss	 DWORD PTR [eax+380], xmm0

; 314  : 
; 315  : 	current_flight_dynamics->input_data.cyclic_vertical_pressure.min = -100.0;

  00a03	a1 00 00 00 00	 mov	 eax, DWORD PTR ?current_flight_dynamics@@3PAUDYNAMICS_TYPE@@A ; current_flight_dynamics
  00a08	f3 0f 10 05 00
	00 00 00	 movss	 xmm0, DWORD PTR __real@c2c80000
  00a10	f3 0f 11 80 60
	01 00 00	 movss	 DWORD PTR [eax+352], xmm0

; 316  : 	current_flight_dynamics->input_data.cyclic_vertical_pressure.max = 100.0;

  00a18	a1 00 00 00 00	 mov	 eax, DWORD PTR ?current_flight_dynamics@@3PAUDYNAMICS_TYPE@@A ; current_flight_dynamics
  00a1d	f3 0f 10 05 00
	00 00 00	 movss	 xmm0, DWORD PTR __real@42c80000
  00a25	f3 0f 11 80 64
	01 00 00	 movss	 DWORD PTR [eax+356], xmm0

; 317  : 
; 318  : 	current_flight_dynamics->input_data.collective_pressure.min = -5.0;

  00a2d	a1 00 00 00 00	 mov	 eax, DWORD PTR ?current_flight_dynamics@@3PAUDYNAMICS_TYPE@@A ; current_flight_dynamics
  00a32	f3 0f 10 05 00
	00 00 00	 movss	 xmm0, DWORD PTR __real@c0a00000
  00a3a	f3 0f 11 80 c8
	1b 00 00	 movss	 DWORD PTR [eax+7112], xmm0

; 319  : 	current_flight_dynamics->input_data.collective_pressure.max = 5.0;

  00a42	a1 00 00 00 00	 mov	 eax, DWORD PTR ?current_flight_dynamics@@3PAUDYNAMICS_TYPE@@A ; current_flight_dynamics
  00a47	f3 0f 10 05 00
	00 00 00	 movss	 xmm0, DWORD PTR __real@40a00000
  00a4f	f3 0f 11 80 cc
	1b 00 00	 movss	 DWORD PTR [eax+7116], xmm0

; 320  : 
; 321  : 	current_flight_dynamics->input_data.pedal.min = -100.0;

  00a57	a1 00 00 00 00	 mov	 eax, DWORD PTR ?current_flight_dynamics@@3PAUDYNAMICS_TYPE@@A ; current_flight_dynamics
  00a5c	f3 0f 10 05 00
	00 00 00	 movss	 xmm0, DWORD PTR __real@c2c80000
  00a64	f3 0f 11 80 e4
	1b 00 00	 movss	 DWORD PTR [eax+7140], xmm0

; 322  : 	current_flight_dynamics->input_data.pedal.max = 100.0;

  00a6c	a1 00 00 00 00	 mov	 eax, DWORD PTR ?current_flight_dynamics@@3PAUDYNAMICS_TYPE@@A ; current_flight_dynamics
  00a71	f3 0f 10 05 00
	00 00 00	 movss	 xmm0, DWORD PTR __real@42c80000
  00a79	f3 0f 11 80 e8
	1b 00 00	 movss	 DWORD PTR [eax+7144], xmm0

; 323  : 
; 324  : 	current_flight_dynamics->input_data.pedal_pressure.min = -10.0;

  00a81	a1 00 00 00 00	 mov	 eax, DWORD PTR ?current_flight_dynamics@@3PAUDYNAMICS_TYPE@@A ; current_flight_dynamics
  00a86	f3 0f 10 05 00
	00 00 00	 movss	 xmm0, DWORD PTR __real@c1200000
  00a8e	f3 0f 11 80 14
	1c 00 00	 movss	 DWORD PTR [eax+7188], xmm0

; 325  : 	current_flight_dynamics->input_data.pedal_pressure.max = 10.0;

  00a96	a1 00 00 00 00	 mov	 eax, DWORD PTR ?current_flight_dynamics@@3PAUDYNAMICS_TYPE@@A ; current_flight_dynamics
  00a9b	f3 0f 10 05 00
	00 00 00	 movss	 xmm0, DWORD PTR __real@41200000
  00aa3	f3 0f 11 80 18
	1c 00 00	 movss	 DWORD PTR [eax+7192], xmm0

; 326  : 
; 327  : 	// general
; 328  : 
; 329  : 	current_flight_dynamics->undercarriage_state.damaged = FALSE;

  00aab	33 c0		 xor	 eax, eax
  00aad	8b 0d 00 00 00
	00		 mov	 ecx, DWORD PTR ?current_flight_dynamics@@3PAUDYNAMICS_TYPE@@A ; current_flight_dynamics
  00ab3	66 89 81 74 1c
	00 00		 mov	 WORD PTR [ecx+7284], ax

; 330  : 	current_flight_dynamics->undercarriage_state.value = 1.0;

  00aba	a1 00 00 00 00	 mov	 eax, DWORD PTR ?current_flight_dynamics@@3PAUDYNAMICS_TYPE@@A ; current_flight_dynamics
  00abf	f3 0f 10 05 00
	00 00 00	 movss	 xmm0, DWORD PTR __real@3f800000
  00ac7	f3 0f 11 80 64
	1c 00 00	 movss	 DWORD PTR [eax+7268], xmm0

; 331  : 	current_flight_dynamics->undercarriage_state.min = 0.0;

  00acf	a1 00 00 00 00	 mov	 eax, DWORD PTR ?current_flight_dynamics@@3PAUDYNAMICS_TYPE@@A ; current_flight_dynamics
  00ad4	0f 57 c0	 xorps	 xmm0, xmm0
  00ad7	f3 0f 11 80 6c
	1c 00 00	 movss	 DWORD PTR [eax+7276], xmm0

; 332  : 	current_flight_dynamics->undercarriage_state.max = 1.0;

  00adf	a1 00 00 00 00	 mov	 eax, DWORD PTR ?current_flight_dynamics@@3PAUDYNAMICS_TYPE@@A ; current_flight_dynamics
  00ae4	f3 0f 10 05 00
	00 00 00	 movss	 xmm0, DWORD PTR __real@3f800000
  00aec	f3 0f 11 80 70
	1c 00 00	 movss	 DWORD PTR [eax+7280], xmm0

; 333  : 
; 334  : 	current_flight_dynamics->repairing = TRUE;

  00af4	a1 00 00 00 00	 mov	 eax, DWORD PTR ?current_flight_dynamics@@3PAUDYNAMICS_TYPE@@A ; current_flight_dynamics
  00af9	8b 88 28 25 00
	00		 mov	 ecx, DWORD PTR [eax+9512]
  00aff	83 c9 08	 or	 ecx, 8
  00b02	8b 15 00 00 00
	00		 mov	 edx, DWORD PTR ?current_flight_dynamics@@3PAUDYNAMICS_TYPE@@A ; current_flight_dynamics
  00b08	89 8a 28 25 00
	00		 mov	 DWORD PTR [edx+9512], ecx

; 335  : 	current_flight_dynamics->refuelling = TRUE;

  00b0e	a1 00 00 00 00	 mov	 eax, DWORD PTR ?current_flight_dynamics@@3PAUDYNAMICS_TYPE@@A ; current_flight_dynamics
  00b13	8b 88 28 25 00
	00		 mov	 ecx, DWORD PTR [eax+9512]
  00b19	83 c9 04	 or	 ecx, 4
  00b1c	8b 15 00 00 00
	00		 mov	 edx, DWORD PTR ?current_flight_dynamics@@3PAUDYNAMICS_TYPE@@A ; current_flight_dynamics
  00b22	89 8a 28 25 00
	00		 mov	 DWORD PTR [edx+9512], ecx

; 336  : 
; 337  : 	current_flight_dynamics->position.x = position.x;

  00b28	f3 0f 5a 45 f4	 cvtss2sd xmm0, DWORD PTR _position$[ebp]
  00b2d	a1 00 00 00 00	 mov	 eax, DWORD PTR ?current_flight_dynamics@@3PAUDYNAMICS_TYPE@@A ; current_flight_dynamics
  00b32	f2 0f 11 80 ac
	00 00 00	 movsd	 QWORD PTR [eax+172], xmm0

; 338  : 	current_flight_dynamics->position.y = position.y;

  00b3a	f3 0f 5a 45 f8	 cvtss2sd xmm0, DWORD PTR _position$[ebp+4]
  00b3f	a1 00 00 00 00	 mov	 eax, DWORD PTR ?current_flight_dynamics@@3PAUDYNAMICS_TYPE@@A ; current_flight_dynamics
  00b44	f2 0f 11 80 b4
	00 00 00	 movsd	 QWORD PTR [eax+180], xmm0

; 339  : 	current_flight_dynamics->position.z = position.z;

  00b4c	f3 0f 5a 45 fc	 cvtss2sd xmm0, DWORD PTR _position$[ebp+8]
  00b51	a1 00 00 00 00	 mov	 eax, DWORD PTR ?current_flight_dynamics@@3PAUDYNAMICS_TYPE@@A ; current_flight_dynamics
  00b56	f2 0f 11 80 bc
	00 00 00	 movsd	 QWORD PTR [eax+188], xmm0

; 340  : 
; 341  : 	// attitutde
; 342  : 
; 343  : 	get_identity_matrix3x3 (current_flight_dynamics->attitude);

  00b5e	a1 00 00 00 00	 mov	 eax, DWORD PTR ?current_flight_dynamics@@3PAUDYNAMICS_TYPE@@A ; current_flight_dynamics
  00b63	05 d0 00 00 00	 add	 eax, 208		; 000000d0H
  00b68	50		 push	 eax
  00b69	e8 00 00 00 00	 call	 ?get_identity_matrix3x3@@YGXQAY02M@Z ; get_identity_matrix3x3

; 344  : 
; 345  : 	current_flight_dynamics->roll.min = rad (-360.0);

  00b6e	a1 00 00 00 00	 mov	 eax, DWORD PTR ?current_flight_dynamics@@3PAUDYNAMICS_TYPE@@A ; current_flight_dynamics
  00b73	f3 0f 10 05 00
	00 00 00	 movss	 xmm0, DWORD PTR __real@c0c90fdb
  00b7b	f3 0f 11 80 7c
	21 00 00	 movss	 DWORD PTR [eax+8572], xmm0

; 346  : 	current_flight_dynamics->roll.max = rad (360.0);

  00b83	a1 00 00 00 00	 mov	 eax, DWORD PTR ?current_flight_dynamics@@3PAUDYNAMICS_TYPE@@A ; current_flight_dynamics
  00b88	f3 0f 10 05 00
	00 00 00	 movss	 xmm0, DWORD PTR __real@40c90fdb
  00b90	f3 0f 11 80 80
	21 00 00	 movss	 DWORD PTR [eax+8576], xmm0

; 347  : 
; 348  : 	current_flight_dynamics->pitch.min = rad (-360.0);

  00b98	a1 00 00 00 00	 mov	 eax, DWORD PTR ?current_flight_dynamics@@3PAUDYNAMICS_TYPE@@A ; current_flight_dynamics
  00b9d	f3 0f 10 05 00
	00 00 00	 movss	 xmm0, DWORD PTR __real@c0c90fdb
  00ba5	f3 0f 11 80 64
	21 00 00	 movss	 DWORD PTR [eax+8548], xmm0

; 349  : 	current_flight_dynamics->pitch.max = rad (360.0);

  00bad	a1 00 00 00 00	 mov	 eax, DWORD PTR ?current_flight_dynamics@@3PAUDYNAMICS_TYPE@@A ; current_flight_dynamics
  00bb2	f3 0f 10 05 00
	00 00 00	 movss	 xmm0, DWORD PTR __real@40c90fdb
  00bba	f3 0f 11 80 68
	21 00 00	 movss	 DWORD PTR [eax+8552], xmm0

; 350  : 
; 351  : 	current_flight_dynamics->air_density.value = 1.0;

  00bc2	a1 00 00 00 00	 mov	 eax, DWORD PTR ?current_flight_dynamics@@3PAUDYNAMICS_TYPE@@A ; current_flight_dynamics
  00bc7	f3 0f 10 05 00
	00 00 00	 movss	 xmm0, DWORD PTR __real@3f800000
  00bcf	f3 0f 11 80 44
	21 00 00	 movss	 DWORD PTR [eax+8516], xmm0

; 352  : 	current_flight_dynamics->air_density.max = 1.0;

  00bd7	a1 00 00 00 00	 mov	 eax, DWORD PTR ?current_flight_dynamics@@3PAUDYNAMICS_TYPE@@A ; current_flight_dynamics
  00bdc	f3 0f 10 05 00
	00 00 00	 movss	 xmm0, DWORD PTR __real@3f800000
  00be4	f3 0f 11 80 50
	21 00 00	 movss	 DWORD PTR [eax+8528], xmm0

; 353  : 	current_flight_dynamics->air_density.min = 0.0;

  00bec	a1 00 00 00 00	 mov	 eax, DWORD PTR ?current_flight_dynamics@@3PAUDYNAMICS_TYPE@@A ; current_flight_dynamics
  00bf1	0f 57 c0	 xorps	 xmm0, xmm0
  00bf4	f3 0f 11 80 4c
	21 00 00	 movss	 DWORD PTR [eax+8524], xmm0

; 354  : 
; 355  : 	current_flight_dynamics->altitude.min = 0.0;

  00bfc	a1 00 00 00 00	 mov	 eax, DWORD PTR ?current_flight_dynamics@@3PAUDYNAMICS_TYPE@@A ; current_flight_dynamics
  00c01	0f 57 c0	 xorps	 xmm0, xmm0
  00c04	f3 0f 11 80 dc
	21 00 00	 movss	 DWORD PTR [eax+8668], xmm0

; 356  : 	current_flight_dynamics->altitude.max = 20000.0;

  00c0c	a1 00 00 00 00	 mov	 eax, DWORD PTR ?current_flight_dynamics@@3PAUDYNAMICS_TYPE@@A ; current_flight_dynamics
  00c11	f3 0f 10 05 00
	00 00 00	 movss	 xmm0, DWORD PTR __real@469c4000
  00c19	f3 0f 11 80 e0
	21 00 00	 movss	 DWORD PTR [eax+8672], xmm0

; 357  : 
; 358  : 	// engine characteristics
; 359  : 	current_flight_dynamics->apu_rpm.value = 0.0;

  00c21	a1 00 00 00 00	 mov	 eax, DWORD PTR ?current_flight_dynamics@@3PAUDYNAMICS_TYPE@@A ; current_flight_dynamics
  00c26	0f 57 c0	 xorps	 xmm0, xmm0
  00c29	f3 0f 11 80 3c
	1d 00 00	 movss	 DWORD PTR [eax+7484], xmm0

; 360  : 	current_flight_dynamics->apu_rpm.min = 0.0;

  00c31	a1 00 00 00 00	 mov	 eax, DWORD PTR ?current_flight_dynamics@@3PAUDYNAMICS_TYPE@@A ; current_flight_dynamics
  00c36	0f 57 c0	 xorps	 xmm0, xmm0
  00c39	f3 0f 11 80 44
	1d 00 00	 movss	 DWORD PTR [eax+7492], xmm0

; 361  : 	current_flight_dynamics->apu_rpm.max = 0.0;

  00c41	a1 00 00 00 00	 mov	 eax, DWORD PTR ?current_flight_dynamics@@3PAUDYNAMICS_TYPE@@A ; current_flight_dynamics
  00c46	0f 57 c0	 xorps	 xmm0, xmm0
  00c49	f3 0f 11 80 48
	1d 00 00	 movss	 DWORD PTR [eax+7496], xmm0

; 362  : 	current_flight_dynamics->apu_rpm.damaged = FALSE;

  00c51	33 c0		 xor	 eax, eax
  00c53	8b 0d 00 00 00
	00		 mov	 ecx, DWORD PTR ?current_flight_dynamics@@3PAUDYNAMICS_TYPE@@A ; current_flight_dynamics
  00c59	66 89 81 4c 1d
	00 00		 mov	 WORD PTR [ecx+7500], ax

; 363  : 
; 364  : 	current_flight_dynamics->left_engine_rpm.value = 0.0;

  00c60	a1 00 00 00 00	 mov	 eax, DWORD PTR ?current_flight_dynamics@@3PAUDYNAMICS_TYPE@@A ; current_flight_dynamics
  00c65	0f 57 c0	 xorps	 xmm0, xmm0
  00c68	f3 0f 11 80 7c
	1c 00 00	 movss	 DWORD PTR [eax+7292], xmm0

; 365  : 	current_flight_dynamics->left_engine_rpm.max = 100.0;  // engine is always trying for 100% N2 RPM

  00c70	a1 00 00 00 00	 mov	 eax, DWORD PTR ?current_flight_dynamics@@3PAUDYNAMICS_TYPE@@A ; current_flight_dynamics
  00c75	f3 0f 10 05 00
	00 00 00	 movss	 xmm0, DWORD PTR __real@42c80000
  00c7d	f3 0f 11 80 88
	1c 00 00	 movss	 DWORD PTR [eax+7304], xmm0

; 366  : 	current_flight_dynamics->left_engine_n1_rpm.value = 0.0;

  00c85	a1 00 00 00 00	 mov	 eax, DWORD PTR ?current_flight_dynamics@@3PAUDYNAMICS_TYPE@@A ; current_flight_dynamics
  00c8a	0f 57 c0	 xorps	 xmm0, xmm0
  00c8d	f3 0f 11 80 94
	1c 00 00	 movss	 DWORD PTR [eax+7316], xmm0

; 367  : 	current_flight_dynamics->left_engine_n1_rpm.max = 100.0;

  00c95	a1 00 00 00 00	 mov	 eax, DWORD PTR ?current_flight_dynamics@@3PAUDYNAMICS_TYPE@@A ; current_flight_dynamics
  00c9a	f3 0f 10 05 00
	00 00 00	 movss	 xmm0, DWORD PTR __real@42c80000
  00ca2	f3 0f 11 80 a0
	1c 00 00	 movss	 DWORD PTR [eax+7328], xmm0

; 368  : 	current_flight_dynamics->left_engine_torque.value = 0.0;

  00caa	a1 00 00 00 00	 mov	 eax, DWORD PTR ?current_flight_dynamics@@3PAUDYNAMICS_TYPE@@A ; current_flight_dynamics
  00caf	0f 57 c0	 xorps	 xmm0, xmm0
  00cb2	f3 0f 11 80 ac
	1c 00 00	 movss	 DWORD PTR [eax+7340], xmm0

; 369  : 	current_flight_dynamics->left_engine_torque.max = 120.0;

  00cba	a1 00 00 00 00	 mov	 eax, DWORD PTR ?current_flight_dynamics@@3PAUDYNAMICS_TYPE@@A ; current_flight_dynamics
  00cbf	f3 0f 10 05 00
	00 00 00	 movss	 xmm0, DWORD PTR __real@42f00000
  00cc7	f3 0f 11 80 b8
	1c 00 00	 movss	 DWORD PTR [eax+7352], xmm0

; 370  : 
; 371  : 	current_flight_dynamics->left_engine_temp.value = 800.0;

  00ccf	a1 00 00 00 00	 mov	 eax, DWORD PTR ?current_flight_dynamics@@3PAUDYNAMICS_TYPE@@A ; current_flight_dynamics
  00cd4	f3 0f 10 05 00
	00 00 00	 movss	 xmm0, DWORD PTR __real@44480000
  00cdc	f3 0f 11 80 c4
	1c 00 00	 movss	 DWORD PTR [eax+7364], xmm0

; 372  : 	current_flight_dynamics->left_engine_temp.max = 1000.0;

  00ce4	a1 00 00 00 00	 mov	 eax, DWORD PTR ?current_flight_dynamics@@3PAUDYNAMICS_TYPE@@A ; current_flight_dynamics
  00ce9	f3 0f 10 05 00
	00 00 00	 movss	 xmm0, DWORD PTR __real@447a0000
  00cf1	f3 0f 11 80 d0
	1c 00 00	 movss	 DWORD PTR [eax+7376], xmm0

; 373  : 
; 374  : 	current_flight_dynamics->right_engine_rpm.value = 0.0;

  00cf9	a1 00 00 00 00	 mov	 eax, DWORD PTR ?current_flight_dynamics@@3PAUDYNAMICS_TYPE@@A ; current_flight_dynamics
  00cfe	0f 57 c0	 xorps	 xmm0, xmm0
  00d01	f3 0f 11 80 dc
	1c 00 00	 movss	 DWORD PTR [eax+7388], xmm0

; 375  : 	current_flight_dynamics->right_engine_rpm.max = 100.0;

  00d09	a1 00 00 00 00	 mov	 eax, DWORD PTR ?current_flight_dynamics@@3PAUDYNAMICS_TYPE@@A ; current_flight_dynamics
  00d0e	f3 0f 10 05 00
	00 00 00	 movss	 xmm0, DWORD PTR __real@42c80000
  00d16	f3 0f 11 80 e8
	1c 00 00	 movss	 DWORD PTR [eax+7400], xmm0

; 376  : 	current_flight_dynamics->right_engine_n1_rpm.value = 0.0;

  00d1e	a1 00 00 00 00	 mov	 eax, DWORD PTR ?current_flight_dynamics@@3PAUDYNAMICS_TYPE@@A ; current_flight_dynamics
  00d23	0f 57 c0	 xorps	 xmm0, xmm0
  00d26	f3 0f 11 80 f4
	1c 00 00	 movss	 DWORD PTR [eax+7412], xmm0

; 377  : 	current_flight_dynamics->right_engine_n1_rpm.max = 100.0;

  00d2e	a1 00 00 00 00	 mov	 eax, DWORD PTR ?current_flight_dynamics@@3PAUDYNAMICS_TYPE@@A ; current_flight_dynamics
  00d33	f3 0f 10 05 00
	00 00 00	 movss	 xmm0, DWORD PTR __real@42c80000
  00d3b	f3 0f 11 80 00
	1d 00 00	 movss	 DWORD PTR [eax+7424], xmm0

; 378  : 	current_flight_dynamics->right_engine_torque.value = 0.0;

  00d43	a1 00 00 00 00	 mov	 eax, DWORD PTR ?current_flight_dynamics@@3PAUDYNAMICS_TYPE@@A ; current_flight_dynamics
  00d48	0f 57 c0	 xorps	 xmm0, xmm0
  00d4b	f3 0f 11 80 0c
	1d 00 00	 movss	 DWORD PTR [eax+7436], xmm0

; 379  : 	current_flight_dynamics->right_engine_torque.max = 120.0;

  00d53	a1 00 00 00 00	 mov	 eax, DWORD PTR ?current_flight_dynamics@@3PAUDYNAMICS_TYPE@@A ; current_flight_dynamics
  00d58	f3 0f 10 05 00
	00 00 00	 movss	 xmm0, DWORD PTR __real@42f00000
  00d60	f3 0f 11 80 18
	1d 00 00	 movss	 DWORD PTR [eax+7448], xmm0

; 380  : 
; 381  : 	current_flight_dynamics->right_engine_temp.value = 800.0;

  00d68	a1 00 00 00 00	 mov	 eax, DWORD PTR ?current_flight_dynamics@@3PAUDYNAMICS_TYPE@@A ; current_flight_dynamics
  00d6d	f3 0f 10 05 00
	00 00 00	 movss	 xmm0, DWORD PTR __real@44480000
  00d75	f3 0f 11 80 24
	1d 00 00	 movss	 DWORD PTR [eax+7460], xmm0

; 382  : 	current_flight_dynamics->right_engine_temp.max = 1000.0;

  00d7d	a1 00 00 00 00	 mov	 eax, DWORD PTR ?current_flight_dynamics@@3PAUDYNAMICS_TYPE@@A ; current_flight_dynamics
  00d82	f3 0f 10 05 00
	00 00 00	 movss	 xmm0, DWORD PTR __real@447a0000
  00d8a	f3 0f 11 80 30
	1d 00 00	 movss	 DWORD PTR [eax+7472], xmm0

; 383  : 
; 384  : 	// main rotor characteristics
; 385  : 
; 386  : 	current_flight_dynamics->main_rotor_diameter.value = 14.63;

  00d92	a1 00 00 00 00	 mov	 eax, DWORD PTR ?current_flight_dynamics@@3PAUDYNAMICS_TYPE@@A ; current_flight_dynamics
  00d97	f3 0f 10 05 00
	00 00 00	 movss	 xmm0, DWORD PTR __real@416a147b
  00d9f	f3 0f 11 80 9c
	1d 00 00	 movss	 DWORD PTR [eax+7580], xmm0

; 387  : 	current_flight_dynamics->main_rotor_area.value = PI * pow ((current_flight_dynamics->main_rotor_diameter.value / 2.0), 2);

  00da7	6a 02		 push	 2
  00da9	a1 00 00 00 00	 mov	 eax, DWORD PTR ?current_flight_dynamics@@3PAUDYNAMICS_TYPE@@A ; current_flight_dynamics
  00dae	f3 0f 5a 80 9c
	1d 00 00	 cvtss2sd xmm0, DWORD PTR [eax+7580]
  00db6	f2 0f 5e 05 00
	00 00 00	 divsd	 xmm0, QWORD PTR __real@4000000000000000
  00dbe	83 ec 08	 sub	 esp, 8
  00dc1	f2 0f 11 04 24	 movsd	 QWORD PTR [esp], xmm0
  00dc6	e8 00 00 00 00	 call	 ?pow@@YGNNH@Z		; pow
  00dcb	dd 5d 94	 fstp	 QWORD PTR tv1067[ebp]
  00dce	f2 0f 10 45 94	 movsd	 xmm0, QWORD PTR tv1067[ebp]
  00dd3	f2 0f 59 05 00
	00 00 00	 mulsd	 xmm0, QWORD PTR __real@400921fb60000000
  00ddb	f2 0f 5a c0	 cvtsd2ss xmm0, xmm0
  00ddf	8b 0d 00 00 00
	00		 mov	 ecx, DWORD PTR ?current_flight_dynamics@@3PAUDYNAMICS_TYPE@@A ; current_flight_dynamics
  00de5	f3 0f 11 81 b4
	1d 00 00	 movss	 DWORD PTR [ecx+7604], xmm0

; 388  : 
; 389  : 	current_flight_dynamics->main_rotor_induced_air.value = 0.0;

  00ded	a1 00 00 00 00	 mov	 eax, DWORD PTR ?current_flight_dynamics@@3PAUDYNAMICS_TYPE@@A ; current_flight_dynamics
  00df2	0f 57 c0	 xorps	 xmm0, xmm0
  00df5	f3 0f 11 80 6c
	1d 00 00	 movss	 DWORD PTR [eax+7532], xmm0

; 390  : 	current_flight_dynamics->main_rotor_induced_air.min = 0.0;

  00dfd	a1 00 00 00 00	 mov	 eax, DWORD PTR ?current_flight_dynamics@@3PAUDYNAMICS_TYPE@@A ; current_flight_dynamics
  00e02	0f 57 c0	 xorps	 xmm0, xmm0
  00e05	f3 0f 11 80 74
	1d 00 00	 movss	 DWORD PTR [eax+7540], xmm0

; 391  : 	current_flight_dynamics->main_rotor_induced_air.max = 26.0;

  00e0d	a1 00 00 00 00	 mov	 eax, DWORD PTR ?current_flight_dynamics@@3PAUDYNAMICS_TYPE@@A ; current_flight_dynamics
  00e12	f3 0f 10 05 00
	00 00 00	 movss	 xmm0, DWORD PTR __real@41d00000
  00e1a	f3 0f 11 80 78
	1d 00 00	 movss	 DWORD PTR [eax+7544], xmm0

; 392  : 
; 393  : 	current_flight_dynamics->main_rotor_induced_vortex_air_flow.min = knots_to_metres_per_second (10.0); // actually used for the max velocity for vortex ring to occur

  00e22	a1 00 00 00 00	 mov	 eax, DWORD PTR ?current_flight_dynamics@@3PAUDYNAMICS_TYPE@@A ; current_flight_dynamics
  00e27	f3 0f 10 05 00
	00 00 00	 movss	 xmm0, DWORD PTR __real@40a4eb1a
  00e2f	f3 0f 11 80 8c
	1d 00 00	 movss	 DWORD PTR [eax+7564], xmm0

; 394  : 
; 395  : 	current_flight_dynamics->main_rotor_roll_angle.min = rad (-5.5);

  00e37	a1 00 00 00 00	 mov	 eax, DWORD PTR ?current_flight_dynamics@@3PAUDYNAMICS_TYPE@@A ; current_flight_dynamics
  00e3c	f3 0f 10 05 00
	00 00 00	 movss	 xmm0, DWORD PTR __real@bdc49809
  00e44	f3 0f 11 80 ec
	1d 00 00	 movss	 DWORD PTR [eax+7660], xmm0

; 396  : 	current_flight_dynamics->main_rotor_roll_angle.max = rad (5.5);

  00e4c	a1 00 00 00 00	 mov	 eax, DWORD PTR ?current_flight_dynamics@@3PAUDYNAMICS_TYPE@@A ; current_flight_dynamics
  00e51	f3 0f 10 05 00
	00 00 00	 movss	 xmm0, DWORD PTR __real@3dc49809
  00e59	f3 0f 11 80 f0
	1d 00 00	 movss	 DWORD PTR [eax+7664], xmm0

; 397  : 
; 398  : 	current_flight_dynamics->main_rotor_pitch_angle.min = rad (-5.5);

  00e61	a1 00 00 00 00	 mov	 eax, DWORD PTR ?current_flight_dynamics@@3PAUDYNAMICS_TYPE@@A ; current_flight_dynamics
  00e66	f3 0f 10 05 00
	00 00 00	 movss	 xmm0, DWORD PTR __real@bdc49809
  00e6e	f3 0f 11 80 04
	1e 00 00	 movss	 DWORD PTR [eax+7684], xmm0

; 399  : 	current_flight_dynamics->main_rotor_pitch_angle.max = rad (5.5);

  00e76	a1 00 00 00 00	 mov	 eax, DWORD PTR ?current_flight_dynamics@@3PAUDYNAMICS_TYPE@@A ; current_flight_dynamics
  00e7b	f3 0f 10 05 00
	00 00 00	 movss	 xmm0, DWORD PTR __real@3dc49809
  00e83	f3 0f 11 80 08
	1e 00 00	 movss	 DWORD PTR [eax+7688], xmm0

; 400  : 
; 401  : 	current_flight_dynamics->main_rotor_thrust.value = 0.0;

  00e8b	a1 00 00 00 00	 mov	 eax, DWORD PTR ?current_flight_dynamics@@3PAUDYNAMICS_TYPE@@A ; current_flight_dynamics
  00e90	0f 57 c0	 xorps	 xmm0, xmm0
  00e93	f3 0f 11 80 cc
	1d 00 00	 movss	 DWORD PTR [eax+7628], xmm0

; 402  : 	current_flight_dynamics->main_rotor_thrust.min = 0.0;

  00e9b	a1 00 00 00 00	 mov	 eax, DWORD PTR ?current_flight_dynamics@@3PAUDYNAMICS_TYPE@@A ; current_flight_dynamics
  00ea0	0f 57 c0	 xorps	 xmm0, xmm0
  00ea3	f3 0f 11 80 d4
	1d 00 00	 movss	 DWORD PTR [eax+7636], xmm0

; 403  : 	current_flight_dynamics->main_rotor_thrust.max = 100.0;

  00eab	a1 00 00 00 00	 mov	 eax, DWORD PTR ?current_flight_dynamics@@3PAUDYNAMICS_TYPE@@A ; current_flight_dynamics
  00eb0	f3 0f 10 05 00
	00 00 00	 movss	 xmm0, DWORD PTR __real@42c80000
  00eb8	f3 0f 11 80 d8
	1d 00 00	 movss	 DWORD PTR [eax+7640], xmm0

; 404  : 
; 405  : 	current_flight_dynamics->main_rotor_rpm.value = 0.0;

  00ec0	a1 00 00 00 00	 mov	 eax, DWORD PTR ?current_flight_dynamics@@3PAUDYNAMICS_TYPE@@A ; current_flight_dynamics
  00ec5	0f 57 c0	 xorps	 xmm0, xmm0
  00ec8	f3 0f 11 80 14
	1e 00 00	 movss	 DWORD PTR [eax+7700], xmm0

; 406  : 	current_flight_dynamics->main_rotor_rpm.min = 0.0;

  00ed0	a1 00 00 00 00	 mov	 eax, DWORD PTR ?current_flight_dynamics@@3PAUDYNAMICS_TYPE@@A ; current_flight_dynamics
  00ed5	0f 57 c0	 xorps	 xmm0, xmm0
  00ed8	f3 0f 11 80 1c
	1e 00 00	 movss	 DWORD PTR [eax+7708], xmm0

; 407  : 	current_flight_dynamics->main_rotor_rpm.max = 100.0;

  00ee0	a1 00 00 00 00	 mov	 eax, DWORD PTR ?current_flight_dynamics@@3PAUDYNAMICS_TYPE@@A ; current_flight_dynamics
  00ee5	f3 0f 10 05 00
	00 00 00	 movss	 xmm0, DWORD PTR __real@42c80000
  00eed	f3 0f 11 80 20
	1e 00 00	 movss	 DWORD PTR [eax+7712], xmm0

; 408  : 
; 409  : 	current_flight_dynamics->main_rotor_rps.value = 0.0;

  00ef5	a1 00 00 00 00	 mov	 eax, DWORD PTR ?current_flight_dynamics@@3PAUDYNAMICS_TYPE@@A ; current_flight_dynamics
  00efa	0f 57 c0	 xorps	 xmm0, xmm0
  00efd	f3 0f 11 80 2c
	1e 00 00	 movss	 DWORD PTR [eax+7724], xmm0

; 410  : 	current_flight_dynamics->main_rotor_rps.min = 0.0;

  00f05	a1 00 00 00 00	 mov	 eax, DWORD PTR ?current_flight_dynamics@@3PAUDYNAMICS_TYPE@@A ; current_flight_dynamics
  00f0a	0f 57 c0	 xorps	 xmm0, xmm0
  00f0d	f3 0f 11 80 34
	1e 00 00	 movss	 DWORD PTR [eax+7732], xmm0

; 411  : 	current_flight_dynamics->main_rotor_rps.max = 4.5;

  00f15	a1 00 00 00 00	 mov	 eax, DWORD PTR ?current_flight_dynamics@@3PAUDYNAMICS_TYPE@@A ; current_flight_dynamics
  00f1a	f3 0f 10 05 00
	00 00 00	 movss	 xmm0, DWORD PTR __real@40900000
  00f22	f3 0f 11 80 38
	1e 00 00	 movss	 DWORD PTR [eax+7736], xmm0

; 412  : 
; 413  : 	current_flight_dynamics->main_rotor_angular_position.value = 0;

  00f2a	a1 00 00 00 00	 mov	 eax, DWORD PTR ?current_flight_dynamics@@3PAUDYNAMICS_TYPE@@A ; current_flight_dynamics
  00f2f	0f 57 c0	 xorps	 xmm0, xmm0
  00f32	f3 0f 11 80 5c
	1e 00 00	 movss	 DWORD PTR [eax+7772], xmm0

; 414  : 	current_flight_dynamics->main_rotor_angular_position.min = 0;

  00f3a	a1 00 00 00 00	 mov	 eax, DWORD PTR ?current_flight_dynamics@@3PAUDYNAMICS_TYPE@@A ; current_flight_dynamics
  00f3f	0f 57 c0	 xorps	 xmm0, xmm0
  00f42	f3 0f 11 80 64
	1e 00 00	 movss	 DWORD PTR [eax+7780], xmm0

; 415  : 	current_flight_dynamics->main_rotor_angular_position.max = PI2;

  00f4a	a1 00 00 00 00	 mov	 eax, DWORD PTR ?current_flight_dynamics@@3PAUDYNAMICS_TYPE@@A ; current_flight_dynamics
  00f4f	f3 0f 10 05 00
	00 00 00	 movss	 xmm0, DWORD PTR __real@40c90fdb
  00f57	f3 0f 11 80 68
	1e 00 00	 movss	 DWORD PTR [eax+7784], xmm0

; 416  : 
; 417  : 	current_flight_dynamics->main_rotor_coning_angle.min = rad (-3.0);

  00f5f	a1 00 00 00 00	 mov	 eax, DWORD PTR ?current_flight_dynamics@@3PAUDYNAMICS_TYPE@@A ; current_flight_dynamics
  00f64	f3 0f 10 05 00
	00 00 00	 movss	 xmm0, DWORD PTR __real@bd567750
  00f6c	f3 0f 11 80 4c
	1e 00 00	 movss	 DWORD PTR [eax+7756], xmm0

; 418  : 	current_flight_dynamics->main_rotor_coning_angle.max = rad (3.0);

  00f74	a1 00 00 00 00	 mov	 eax, DWORD PTR ?current_flight_dynamics@@3PAUDYNAMICS_TYPE@@A ; current_flight_dynamics
  00f79	f3 0f 10 05 00
	00 00 00	 movss	 xmm0, DWORD PTR __real@3d567750
  00f81	f3 0f 11 80 50
	1e 00 00	 movss	 DWORD PTR [eax+7760], xmm0

; 419  : 
; 420  : 	current_flight_dynamics->main_blade_pitch.value = 2.0;

  00f89	a1 00 00 00 00	 mov	 eax, DWORD PTR ?current_flight_dynamics@@3PAUDYNAMICS_TYPE@@A ; current_flight_dynamics
  00f8e	f3 0f 10 05 00
	00 00 00	 movss	 xmm0, DWORD PTR __real@40000000
  00f96	f3 0f 11 80 8c
	1e 00 00	 movss	 DWORD PTR [eax+7820], xmm0

; 421  : 	current_flight_dynamics->main_blade_pitch.min = rad (1.0);

  00f9e	a1 00 00 00 00	 mov	 eax, DWORD PTR ?current_flight_dynamics@@3PAUDYNAMICS_TYPE@@A ; current_flight_dynamics
  00fa3	f3 0f 10 05 00
	00 00 00	 movss	 xmm0, DWORD PTR __real@3c8efa35
  00fab	f3 0f 11 80 94
	1e 00 00	 movss	 DWORD PTR [eax+7828], xmm0

; 422  : 	current_flight_dynamics->main_blade_pitch.max = rad (7.5);

  00fb3	a1 00 00 00 00	 mov	 eax, DWORD PTR ?current_flight_dynamics@@3PAUDYNAMICS_TYPE@@A ; current_flight_dynamics
  00fb8	f3 0f 10 05 00
	00 00 00	 movss	 xmm0, DWORD PTR __real@3e060a92
  00fc0	f3 0f 11 80 98
	1e 00 00	 movss	 DWORD PTR [eax+7832], xmm0

; 423  : 
; 424  : 	// tail rotor characteristics
; 425  : 
; 426  : 	current_flight_dynamics->tail_rotor_diameter.value = 2.79;

  00fc8	a1 00 00 00 00	 mov	 eax, DWORD PTR ?current_flight_dynamics@@3PAUDYNAMICS_TYPE@@A ; current_flight_dynamics
  00fcd	f3 0f 10 05 00
	00 00 00	 movss	 xmm0, DWORD PTR __real@40328f5c
  00fd5	f3 0f 11 80 1c
	1f 00 00	 movss	 DWORD PTR [eax+7964], xmm0

; 427  : 
; 428  : 	current_flight_dynamics->tail_rotor_rpm.value = 0.0;

  00fdd	a1 00 00 00 00	 mov	 eax, DWORD PTR ?current_flight_dynamics@@3PAUDYNAMICS_TYPE@@A ; current_flight_dynamics
  00fe2	0f 57 c0	 xorps	 xmm0, xmm0
  00fe5	f3 0f 11 80 4c
	1f 00 00	 movss	 DWORD PTR [eax+8012], xmm0

; 429  : 	current_flight_dynamics->tail_rotor_rpm.min = 0.0;

  00fed	a1 00 00 00 00	 mov	 eax, DWORD PTR ?current_flight_dynamics@@3PAUDYNAMICS_TYPE@@A ; current_flight_dynamics
  00ff2	0f 57 c0	 xorps	 xmm0, xmm0
  00ff5	f3 0f 11 80 54
	1f 00 00	 movss	 DWORD PTR [eax+8020], xmm0

; 430  : 	current_flight_dynamics->tail_rotor_rpm.max = 100.0;

  00ffd	a1 00 00 00 00	 mov	 eax, DWORD PTR ?current_flight_dynamics@@3PAUDYNAMICS_TYPE@@A ; current_flight_dynamics
  01002	f3 0f 10 05 00
	00 00 00	 movss	 xmm0, DWORD PTR __real@42c80000
  0100a	f3 0f 11 80 58
	1f 00 00	 movss	 DWORD PTR [eax+8024], xmm0

; 431  : 
; 432  : 	current_flight_dynamics->tail_rotor_rps.value = 0.0;

  01012	a1 00 00 00 00	 mov	 eax, DWORD PTR ?current_flight_dynamics@@3PAUDYNAMICS_TYPE@@A ; current_flight_dynamics
  01017	0f 57 c0	 xorps	 xmm0, xmm0
  0101a	f3 0f 11 80 64
	1f 00 00	 movss	 DWORD PTR [eax+8036], xmm0

; 433  : 	current_flight_dynamics->tail_rotor_rps.min = 0.0;

  01022	a1 00 00 00 00	 mov	 eax, DWORD PTR ?current_flight_dynamics@@3PAUDYNAMICS_TYPE@@A ; current_flight_dynamics
  01027	0f 57 c0	 xorps	 xmm0, xmm0
  0102a	f3 0f 11 80 6c
	1f 00 00	 movss	 DWORD PTR [eax+8044], xmm0

; 434  : 	current_flight_dynamics->tail_rotor_rps.max = 10;

  01032	a1 00 00 00 00	 mov	 eax, DWORD PTR ?current_flight_dynamics@@3PAUDYNAMICS_TYPE@@A ; current_flight_dynamics
  01037	f3 0f 10 05 00
	00 00 00	 movss	 xmm0, DWORD PTR __real@41200000
  0103f	f3 0f 11 80 70
	1f 00 00	 movss	 DWORD PTR [eax+8048], xmm0

; 435  : 
; 436  : 	current_flight_dynamics->tail_rotor_angular_position.value = 0;

  01047	a1 00 00 00 00	 mov	 eax, DWORD PTR ?current_flight_dynamics@@3PAUDYNAMICS_TYPE@@A ; current_flight_dynamics
  0104c	0f 57 c0	 xorps	 xmm0, xmm0
  0104f	f3 0f 11 80 7c
	1f 00 00	 movss	 DWORD PTR [eax+8060], xmm0

; 437  : 	current_flight_dynamics->tail_rotor_angular_position.min = 0;

  01057	a1 00 00 00 00	 mov	 eax, DWORD PTR ?current_flight_dynamics@@3PAUDYNAMICS_TYPE@@A ; current_flight_dynamics
  0105c	0f 57 c0	 xorps	 xmm0, xmm0
  0105f	f3 0f 11 80 84
	1f 00 00	 movss	 DWORD PTR [eax+8068], xmm0

; 438  : 	current_flight_dynamics->tail_rotor_angular_position.max = PI2;

  01067	a1 00 00 00 00	 mov	 eax, DWORD PTR ?current_flight_dynamics@@3PAUDYNAMICS_TYPE@@A ; current_flight_dynamics
  0106c	f3 0f 10 05 00
	00 00 00	 movss	 xmm0, DWORD PTR __real@40c90fdb
  01074	f3 0f 11 80 88
	1f 00 00	 movss	 DWORD PTR [eax+8072], xmm0

; 439  : 
; 440  : 	current_flight_dynamics->tail_rotor_thrust.value = 0.0;

  0107c	a1 00 00 00 00	 mov	 eax, DWORD PTR ?current_flight_dynamics@@3PAUDYNAMICS_TYPE@@A ; current_flight_dynamics
  01081	0f 57 c0	 xorps	 xmm0, xmm0
  01084	f3 0f 11 80 34
	1f 00 00	 movss	 DWORD PTR [eax+7988], xmm0

; 441  : 	current_flight_dynamics->tail_rotor_thrust.min = 0.0;

  0108c	a1 00 00 00 00	 mov	 eax, DWORD PTR ?current_flight_dynamics@@3PAUDYNAMICS_TYPE@@A ; current_flight_dynamics
  01091	0f 57 c0	 xorps	 xmm0, xmm0
  01094	f3 0f 11 80 3c
	1f 00 00	 movss	 DWORD PTR [eax+7996], xmm0

; 442  : 	current_flight_dynamics->tail_rotor_thrust.max = 100.0;

  0109c	a1 00 00 00 00	 mov	 eax, DWORD PTR ?current_flight_dynamics@@3PAUDYNAMICS_TYPE@@A ; current_flight_dynamics
  010a1	f3 0f 10 05 00
	00 00 00	 movss	 xmm0, DWORD PTR __real@42c80000
  010a9	f3 0f 11 80 40
	1f 00 00	 movss	 DWORD PTR [eax+8000], xmm0

; 443  : 
; 444  : 	current_flight_dynamics->tail_blade_pitch.value = 0.0;

  010b1	a1 00 00 00 00	 mov	 eax, DWORD PTR ?current_flight_dynamics@@3PAUDYNAMICS_TYPE@@A ; current_flight_dynamics
  010b6	0f 57 c0	 xorps	 xmm0, xmm0
  010b9	f3 0f 11 80 94
	1f 00 00	 movss	 DWORD PTR [eax+8084], xmm0

; 445  : 	current_flight_dynamics->tail_blade_pitch.min = rad (-2.0);

  010c1	a1 00 00 00 00	 mov	 eax, DWORD PTR ?current_flight_dynamics@@3PAUDYNAMICS_TYPE@@A ; current_flight_dynamics
  010c6	f3 0f 10 05 00
	00 00 00	 movss	 xmm0, DWORD PTR __real@bd0efa35
  010ce	f3 0f 11 80 9c
	1f 00 00	 movss	 DWORD PTR [eax+8092], xmm0

; 446  : 	current_flight_dynamics->tail_blade_pitch.max = rad (2.0);

  010d6	a1 00 00 00 00	 mov	 eax, DWORD PTR ?current_flight_dynamics@@3PAUDYNAMICS_TYPE@@A ; current_flight_dynamics
  010db	f3 0f 10 05 00
	00 00 00	 movss	 xmm0, DWORD PTR __real@3d0efa35
  010e3	f3 0f 11 80 a0
	1f 00 00	 movss	 DWORD PTR [eax+8096], xmm0

; 447  : 
; 448  : 	current_flight_dynamics->tail_rotor_induced_air.value = 0.0;

  010eb	a1 00 00 00 00	 mov	 eax, DWORD PTR ?current_flight_dynamics@@3PAUDYNAMICS_TYPE@@A ; current_flight_dynamics
  010f0	0f 57 c0	 xorps	 xmm0, xmm0
  010f3	f3 0f 11 80 04
	1f 00 00	 movss	 DWORD PTR [eax+7940], xmm0

; 449  : 	current_flight_dynamics->tail_rotor_induced_air.min = -1.0;

  010fb	a1 00 00 00 00	 mov	 eax, DWORD PTR ?current_flight_dynamics@@3PAUDYNAMICS_TYPE@@A ; current_flight_dynamics
  01100	f3 0f 10 05 00
	00 00 00	 movss	 xmm0, DWORD PTR __real@bf800000
  01108	f3 0f 11 80 0c
	1f 00 00	 movss	 DWORD PTR [eax+7948], xmm0

; 450  : 	current_flight_dynamics->tail_rotor_induced_air.max = 1.0;

  01110	a1 00 00 00 00	 mov	 eax, DWORD PTR ?current_flight_dynamics@@3PAUDYNAMICS_TYPE@@A ; current_flight_dynamics
  01115	f3 0f 10 05 00
	00 00 00	 movss	 xmm0, DWORD PTR __real@3f800000
  0111d	f3 0f 11 80 10
	1f 00 00	 movss	 DWORD PTR [eax+7952], xmm0

; 451  : 
; 452  : 	current_flight_dynamics->tail_boom_length.value = 10.59; // actually the wheelbase (but close enough)

  01125	a1 00 00 00 00	 mov	 eax, DWORD PTR ?current_flight_dynamics@@3PAUDYNAMICS_TYPE@@A ; current_flight_dynamics
  0112a	f3 0f 10 05 00
	00 00 00	 movss	 xmm0, DWORD PTR __real@412970a4
  01132	f3 0f 11 80 ac
	1f 00 00	 movss	 DWORD PTR [eax+8108], xmm0

; 453  : 
; 454  : 	current_flight_dynamics->cross_coupling_effect.value = 0.0;

  0113a	a1 00 00 00 00	 mov	 eax, DWORD PTR ?current_flight_dynamics@@3PAUDYNAMICS_TYPE@@A ; current_flight_dynamics
  0113f	0f 57 c0	 xorps	 xmm0, xmm0
  01142	f3 0f 11 80 c4
	1f 00 00	 movss	 DWORD PTR [eax+8132], xmm0

; 455  : 
; 456  : 	// other
; 457  : 
; 458  : 	current_flight_dynamics->velocity_x.min = -11.1;

  0114a	a1 00 00 00 00	 mov	 eax, DWORD PTR ?current_flight_dynamics@@3PAUDYNAMICS_TYPE@@A ; current_flight_dynamics
  0114f	f3 0f 10 05 00
	00 00 00	 movss	 xmm0, DWORD PTR __real@c131999a
  01157	f3 0f 11 80 74
	20 00 00	 movss	 DWORD PTR [eax+8308], xmm0

; 459  : 	current_flight_dynamics->velocity_x.max = 11.1;

  0115f	a1 00 00 00 00	 mov	 eax, DWORD PTR ?current_flight_dynamics@@3PAUDYNAMICS_TYPE@@A ; current_flight_dynamics
  01164	f3 0f 10 05 00
	00 00 00	 movss	 xmm0, DWORD PTR __real@4131999a
  0116c	f3 0f 11 80 78
	20 00 00	 movss	 DWORD PTR [eax+8312], xmm0

; 460  : 
; 461  : 	current_flight_dynamics->model_acceleration_vector.x = 0.0;

  01174	a1 00 00 00 00	 mov	 eax, DWORD PTR ?current_flight_dynamics@@3PAUDYNAMICS_TYPE@@A ; current_flight_dynamics
  01179	0f 57 c0	 xorps	 xmm0, xmm0
  0117c	f3 0f 11 80 48
	1c 00 00	 movss	 DWORD PTR [eax+7240], xmm0

; 462  : 	current_flight_dynamics->model_acceleration_vector.y = 0.0;

  01184	a1 00 00 00 00	 mov	 eax, DWORD PTR ?current_flight_dynamics@@3PAUDYNAMICS_TYPE@@A ; current_flight_dynamics
  01189	0f 57 c0	 xorps	 xmm0, xmm0
  0118c	f3 0f 11 80 4c
	1c 00 00	 movss	 DWORD PTR [eax+7244], xmm0

; 463  : 	current_flight_dynamics->model_acceleration_vector.z = 0.0;

  01194	a1 00 00 00 00	 mov	 eax, DWORD PTR ?current_flight_dynamics@@3PAUDYNAMICS_TYPE@@A ; current_flight_dynamics
  01199	0f 57 c0	 xorps	 xmm0, xmm0
  0119c	f3 0f 11 80 50
	1c 00 00	 movss	 DWORD PTR [eax+7248], xmm0

; 464  : 
; 465  : 	current_flight_dynamics->world_acceleration_vector.x = 0.0;

  011a4	a1 00 00 00 00	 mov	 eax, DWORD PTR ?current_flight_dynamics@@3PAUDYNAMICS_TYPE@@A ; current_flight_dynamics
  011a9	0f 57 c0	 xorps	 xmm0, xmm0
  011ac	f3 0f 11 80 54
	1c 00 00	 movss	 DWORD PTR [eax+7252], xmm0

; 466  : 	current_flight_dynamics->world_acceleration_vector.y = 0.0;

  011b4	a1 00 00 00 00	 mov	 eax, DWORD PTR ?current_flight_dynamics@@3PAUDYNAMICS_TYPE@@A ; current_flight_dynamics
  011b9	0f 57 c0	 xorps	 xmm0, xmm0
  011bc	f3 0f 11 80 58
	1c 00 00	 movss	 DWORD PTR [eax+7256], xmm0

; 467  : 	current_flight_dynamics->world_acceleration_vector.z = 0.0;

  011c4	a1 00 00 00 00	 mov	 eax, DWORD PTR ?current_flight_dynamics@@3PAUDYNAMICS_TYPE@@A ; current_flight_dynamics
  011c9	0f 57 c0	 xorps	 xmm0, xmm0
  011cc	f3 0f 11 80 5c
	1c 00 00	 movss	 DWORD PTR [eax+7260], xmm0

; 468  : 
; 469  : 	current_flight_dynamics->velocity_y.value = 0.0;

  011d4	a1 00 00 00 00	 mov	 eax, DWORD PTR ?current_flight_dynamics@@3PAUDYNAMICS_TYPE@@A ; current_flight_dynamics
  011d9	0f 57 c0	 xorps	 xmm0, xmm0
  011dc	f3 0f 11 80 84
	20 00 00	 movss	 DWORD PTR [eax+8324], xmm0

; 470  : 	current_flight_dynamics->velocity_y.min = -1000.0;

  011e4	a1 00 00 00 00	 mov	 eax, DWORD PTR ?current_flight_dynamics@@3PAUDYNAMICS_TYPE@@A ; current_flight_dynamics
  011e9	f3 0f 10 05 00
	00 00 00	 movss	 xmm0, DWORD PTR __real@c47a0000
  011f1	f3 0f 11 80 8c
	20 00 00	 movss	 DWORD PTR [eax+8332], xmm0

; 471  : 	current_flight_dynamics->velocity_y.max = 15.7;

  011f9	a1 00 00 00 00	 mov	 eax, DWORD PTR ?current_flight_dynamics@@3PAUDYNAMICS_TYPE@@A ; current_flight_dynamics
  011fe	f3 0f 10 05 00
	00 00 00	 movss	 xmm0, DWORD PTR __real@417b3333
  01206	f3 0f 11 80 90
	20 00 00	 movss	 DWORD PTR [eax+8336], xmm0

; 472  : 
; 473  : 	current_flight_dynamics->velocity_z.min = -8.33;

  0120e	a1 00 00 00 00	 mov	 eax, DWORD PTR ?current_flight_dynamics@@3PAUDYNAMICS_TYPE@@A ; current_flight_dynamics
  01213	f3 0f 10 05 00
	00 00 00	 movss	 xmm0, DWORD PTR __real@c10547ae
  0121b	f3 0f 11 80 a4
	20 00 00	 movss	 DWORD PTR [eax+8356], xmm0

; 474  : 	current_flight_dynamics->velocity_z.max = knots_to_metres_per_second (197);

  01223	a1 00 00 00 00	 mov	 eax, DWORD PTR ?current_flight_dynamics@@3PAUDYNAMICS_TYPE@@A ; current_flight_dynamics
  01228	f3 0f 10 05 00
	00 00 00	 movss	 xmm0, DWORD PTR __real@42cb0e45
  01230	f3 0f 11 80 a8
	20 00 00	 movss	 DWORD PTR [eax+8360], xmm0

; 475  : 
; 476  : 	current_flight_dynamics->power_avaliable.min = 0.0;

  01238	a1 00 00 00 00	 mov	 eax, DWORD PTR ?current_flight_dynamics@@3PAUDYNAMICS_TYPE@@A ; current_flight_dynamics
  0123d	0f 57 c0	 xorps	 xmm0, xmm0
  01240	f3 0f 11 80 e4
	1f 00 00	 movss	 DWORD PTR [eax+8164], xmm0

; 477  : 	current_flight_dynamics->power_avaliable.max = 1530.0;

  01248	a1 00 00 00 00	 mov	 eax, DWORD PTR ?current_flight_dynamics@@3PAUDYNAMICS_TYPE@@A ; current_flight_dynamics
  0124d	f3 0f 10 05 00
	00 00 00	 movss	 xmm0, DWORD PTR __real@44bf4000
  01255	f3 0f 11 80 e8
	1f 00 00	 movss	 DWORD PTR [eax+8168], xmm0

; 478  : 
; 479  : 	current_flight_dynamics->lift.min = -10.0;

  0125d	a1 00 00 00 00	 mov	 eax, DWORD PTR ?current_flight_dynamics@@3PAUDYNAMICS_TYPE@@A ; current_flight_dynamics
  01262	f3 0f 10 05 00
	00 00 00	 movss	 xmm0, DWORD PTR __real@c1200000
  0126a	f3 0f 11 80 ac
	21 00 00	 movss	 DWORD PTR [eax+8620], xmm0

; 480  : 	current_flight_dynamics->lift.max = 20.0;

  01272	a1 00 00 00 00	 mov	 eax, DWORD PTR ?current_flight_dynamics@@3PAUDYNAMICS_TYPE@@A ; current_flight_dynamics
  01277	f3 0f 10 05 00
	00 00 00	 movss	 xmm0, DWORD PTR __real@41a00000
  0127f	f3 0f 11 80 b0
	21 00 00	 movss	 DWORD PTR [eax+8624], xmm0

; 481  : 
; 482  : 	current_flight_dynamics->translational_lift.value = 3.0;

  01287	a1 00 00 00 00	 mov	 eax, DWORD PTR ?current_flight_dynamics@@3PAUDYNAMICS_TYPE@@A ; current_flight_dynamics
  0128c	f3 0f 10 05 00
	00 00 00	 movss	 xmm0, DWORD PTR __real@40400000
  01294	f3 0f 11 80 bc
	21 00 00	 movss	 DWORD PTR [eax+8636], xmm0

; 483  : 	current_flight_dynamics->translational_lift.min = 8.0;

  0129c	a1 00 00 00 00	 mov	 eax, DWORD PTR ?current_flight_dynamics@@3PAUDYNAMICS_TYPE@@A ; current_flight_dynamics
  012a1	f3 0f 10 05 00
	00 00 00	 movss	 xmm0, DWORD PTR __real@41000000
  012a9	f3 0f 11 80 c4
	21 00 00	 movss	 DWORD PTR [eax+8644], xmm0

; 484  : 	current_flight_dynamics->translational_lift.max = 15.0;

  012b1	a1 00 00 00 00	 mov	 eax, DWORD PTR ?current_flight_dynamics@@3PAUDYNAMICS_TYPE@@A ; current_flight_dynamics
  012b6	f3 0f 10 05 00
	00 00 00	 movss	 xmm0, DWORD PTR __real@41700000
  012be	f3 0f 11 80 c8
	21 00 00	 movss	 DWORD PTR [eax+8648], xmm0

; 485  : 
; 486  : 	current_flight_dynamics->heading_moment.value = 0.0;

  012c6	a1 00 00 00 00	 mov	 eax, DWORD PTR ?current_flight_dynamics@@3PAUDYNAMICS_TYPE@@A ; current_flight_dynamics
  012cb	0f 57 c0	 xorps	 xmm0, xmm0
  012ce	f3 0f 11 80 7c
	22 00 00	 movss	 DWORD PTR [eax+8828], xmm0

; 487  : 	current_flight_dynamics->heading_moment_reaction.value = 0.0;

  012d6	a1 00 00 00 00	 mov	 eax, DWORD PTR ?current_flight_dynamics@@3PAUDYNAMICS_TYPE@@A ; current_flight_dynamics
  012db	0f 57 c0	 xorps	 xmm0, xmm0
  012de	f3 0f 11 80 c4
	22 00 00	 movss	 DWORD PTR [eax+8900], xmm0

; 488  : 
; 489  : 	current_flight_dynamics->pitch_moment.value = 0.0;

  012e6	a1 00 00 00 00	 mov	 eax, DWORD PTR ?current_flight_dynamics@@3PAUDYNAMICS_TYPE@@A ; current_flight_dynamics
  012eb	0f 57 c0	 xorps	 xmm0, xmm0
  012ee	f3 0f 11 80 94
	22 00 00	 movss	 DWORD PTR [eax+8852], xmm0

; 490  : 	current_flight_dynamics->pitch_moment_reaction.value = 0.0;

  012f6	a1 00 00 00 00	 mov	 eax, DWORD PTR ?current_flight_dynamics@@3PAUDYNAMICS_TYPE@@A ; current_flight_dynamics
  012fb	0f 57 c0	 xorps	 xmm0, xmm0
  012fe	f3 0f 11 80 dc
	22 00 00	 movss	 DWORD PTR [eax+8924], xmm0

; 491  : 
; 492  : 	current_flight_dynamics->roll_moment.value = 0.0;

  01306	a1 00 00 00 00	 mov	 eax, DWORD PTR ?current_flight_dynamics@@3PAUDYNAMICS_TYPE@@A ; current_flight_dynamics
  0130b	0f 57 c0	 xorps	 xmm0, xmm0
  0130e	f3 0f 11 80 ac
	22 00 00	 movss	 DWORD PTR [eax+8876], xmm0

; 493  : 	current_flight_dynamics->roll_moment_reaction.value = 0.0;

  01316	a1 00 00 00 00	 mov	 eax, DWORD PTR ?current_flight_dynamics@@3PAUDYNAMICS_TYPE@@A ; current_flight_dynamics
  0131b	0f 57 c0	 xorps	 xmm0, xmm0
  0131e	f3 0f 11 80 f4
	22 00 00	 movss	 DWORD PTR [eax+8948], xmm0

; 494  : 
; 495  : 	// drag
; 496  : 
; 497  : 	current_flight_dynamics->drag_x.min = 0.01;

  01326	a1 00 00 00 00	 mov	 eax, DWORD PTR ?current_flight_dynamics@@3PAUDYNAMICS_TYPE@@A ; current_flight_dynamics
  0132b	f3 0f 10 05 00
	00 00 00	 movss	 xmm0, DWORD PTR __real@3c23d70a
  01333	f3 0f 11 80 f4
	21 00 00	 movss	 DWORD PTR [eax+8692], xmm0

; 498  : 	current_flight_dynamics->drag_x.max = 0.1;

  0133b	a1 00 00 00 00	 mov	 eax, DWORD PTR ?current_flight_dynamics@@3PAUDYNAMICS_TYPE@@A ; current_flight_dynamics
  01340	f3 0f 10 05 00
	00 00 00	 movss	 xmm0, DWORD PTR __real@3dcccccd
  01348	f3 0f 11 80 f8
	21 00 00	 movss	 DWORD PTR [eax+8696], xmm0

; 499  : 
; 500  : 	current_flight_dynamics->drag_y.min = 0.01;

  01350	a1 00 00 00 00	 mov	 eax, DWORD PTR ?current_flight_dynamics@@3PAUDYNAMICS_TYPE@@A ; current_flight_dynamics
  01355	f3 0f 10 05 00
	00 00 00	 movss	 xmm0, DWORD PTR __real@3c23d70a
  0135d	f3 0f 11 80 0c
	22 00 00	 movss	 DWORD PTR [eax+8716], xmm0

; 501  : 	current_flight_dynamics->drag_y.max = 0.1;

  01365	a1 00 00 00 00	 mov	 eax, DWORD PTR ?current_flight_dynamics@@3PAUDYNAMICS_TYPE@@A ; current_flight_dynamics
  0136a	f3 0f 10 05 00
	00 00 00	 movss	 xmm0, DWORD PTR __real@3dcccccd
  01372	f3 0f 11 80 10
	22 00 00	 movss	 DWORD PTR [eax+8720], xmm0

; 502  : 
; 503  : 	current_flight_dynamics->drag_z.min = 0.01;

  0137a	a1 00 00 00 00	 mov	 eax, DWORD PTR ?current_flight_dynamics@@3PAUDYNAMICS_TYPE@@A ; current_flight_dynamics
  0137f	f3 0f 10 05 00
	00 00 00	 movss	 xmm0, DWORD PTR __real@3c23d70a
  01387	f3 0f 11 80 24
	22 00 00	 movss	 DWORD PTR [eax+8740], xmm0

; 504  : 	current_flight_dynamics->drag_z.max = 0.1;

  0138f	a1 00 00 00 00	 mov	 eax, DWORD PTR ?current_flight_dynamics@@3PAUDYNAMICS_TYPE@@A ; current_flight_dynamics
  01394	f3 0f 10 05 00
	00 00 00	 movss	 xmm0, DWORD PTR __real@3dcccccd
  0139c	f3 0f 11 80 28
	22 00 00	 movss	 DWORD PTR [eax+8744], xmm0

; 505  : 
; 506  : 	// inertia
; 507  : 
; 508  : 	current_flight_dynamics->heading_inertia.value = 5.0;

  013a4	a1 00 00 00 00	 mov	 eax, DWORD PTR ?current_flight_dynamics@@3PAUDYNAMICS_TYPE@@A ; current_flight_dynamics
  013a9	f3 0f 10 05 00
	00 00 00	 movss	 xmm0, DWORD PTR __real@40a00000
  013b1	f3 0f 11 80 34
	22 00 00	 movss	 DWORD PTR [eax+8756], xmm0

; 509  : 	current_flight_dynamics->pitch_inertia.value = 40.0;

  013b9	a1 00 00 00 00	 mov	 eax, DWORD PTR ?current_flight_dynamics@@3PAUDYNAMICS_TYPE@@A ; current_flight_dynamics
  013be	f3 0f 10 05 00
	00 00 00	 movss	 xmm0, DWORD PTR __real@42200000
  013c6	f3 0f 11 80 4c
	22 00 00	 movss	 DWORD PTR [eax+8780], xmm0

; 510  : 	current_flight_dynamics->roll_inertia.value = 30.0;

  013ce	a1 00 00 00 00	 mov	 eax, DWORD PTR ?current_flight_dynamics@@3PAUDYNAMICS_TYPE@@A ; current_flight_dynamics
  013d3	f3 0f 10 05 00
	00 00 00	 movss	 xmm0, DWORD PTR __real@41f00000
  013db	f3 0f 11 80 64
	22 00 00	 movss	 DWORD PTR [eax+8804], xmm0

; 511  : 
; 512  : 	// mass
; 513  : 
; 514  : 	current_flight_dynamics->mass.value = 0.0;

  013e3	a1 00 00 00 00	 mov	 eax, DWORD PTR ?current_flight_dynamics@@3PAUDYNAMICS_TYPE@@A ; current_flight_dynamics
  013e8	0f 57 c0	 xorps	 xmm0, xmm0
  013eb	f3 0f 11 80 b4
	23 00 00	 movss	 DWORD PTR [eax+9140], xmm0

; 515  : 	current_flight_dynamics->mass.min = 4218.0;

  013f3	a1 00 00 00 00	 mov	 eax, DWORD PTR ?current_flight_dynamics@@3PAUDYNAMICS_TYPE@@A ; current_flight_dynamics
  013f8	f3 0f 10 05 00
	00 00 00	 movss	 xmm0, DWORD PTR __real@4583d000
  01400	f3 0f 11 80 bc
	23 00 00	 movss	 DWORD PTR [eax+9148], xmm0

; 516  : 	current_flight_dynamics->mass.max = 0.0;

  01408	a1 00 00 00 00	 mov	 eax, DWORD PTR ?current_flight_dynamics@@3PAUDYNAMICS_TYPE@@A ; current_flight_dynamics
  0140d	0f 57 c0	 xorps	 xmm0, xmm0
  01410	f3 0f 11 80 c0
	23 00 00	 movss	 DWORD PTR [eax+9152], xmm0

; 517  : 
; 518  : 	current_flight_dynamics->fuel_weight.value = 822.0;

  01418	a1 00 00 00 00	 mov	 eax, DWORD PTR ?current_flight_dynamics@@3PAUDYNAMICS_TYPE@@A ; current_flight_dynamics
  0141d	f3 0f 10 05 00
	00 00 00	 movss	 xmm0, DWORD PTR __real@444d8000
  01425	f3 0f 11 80 a4
	24 00 00	 movss	 DWORD PTR [eax+9380], xmm0

; 519  : 	current_flight_dynamics->fuel_weight.min = 0.0;

  0142d	a1 00 00 00 00	 mov	 eax, DWORD PTR ?current_flight_dynamics@@3PAUDYNAMICS_TYPE@@A ; current_flight_dynamics
  01432	0f 57 c0	 xorps	 xmm0, xmm0
  01435	f3 0f 11 80 ac
	24 00 00	 movss	 DWORD PTR [eax+9388], xmm0

; 520  : 	current_flight_dynamics->fuel_weight.max = 822.0;

  0143d	a1 00 00 00 00	 mov	 eax, DWORD PTR ?current_flight_dynamics@@3PAUDYNAMICS_TYPE@@A ; current_flight_dynamics
  01442	f3 0f 10 05 00
	00 00 00	 movss	 xmm0, DWORD PTR __real@444d8000
  0144a	f3 0f 11 80 b0
	24 00 00	 movss	 DWORD PTR [eax+9392], xmm0

; 521  : 	current_flight_dynamics->fuel_weight.delta = 0.0950; // kg/s

  01452	a1 00 00 00 00	 mov	 eax, DWORD PTR ?current_flight_dynamics@@3PAUDYNAMICS_TYPE@@A ; current_flight_dynamics
  01457	f3 0f 10 05 00
	00 00 00	 movss	 xmm0, DWORD PTR __real@3dc28f5c
  0145f	f3 0f 11 80 a8
	24 00 00	 movss	 DWORD PTR [eax+9384], xmm0

; 522  : 
; 523  : 	// cog
; 524  : 	// havoc at 	0.0, -0.2, -0.022
; 525  : 	// apache at 	0.0, -0.2, -0.012
; 526  : 
; 527  : 	current_flight_dynamics->centre_of_gravity.x = 0.00;

  01467	a1 00 00 00 00	 mov	 eax, DWORD PTR ?current_flight_dynamics@@3PAUDYNAMICS_TYPE@@A ; current_flight_dynamics
  0146c	0f 57 c0	 xorps	 xmm0, xmm0
  0146f	f3 0f 11 80 24
	1c 00 00	 movss	 DWORD PTR [eax+7204], xmm0

; 528  : 	current_flight_dynamics->centre_of_gravity.y = -0.2;

  01477	a1 00 00 00 00	 mov	 eax, DWORD PTR ?current_flight_dynamics@@3PAUDYNAMICS_TYPE@@A ; current_flight_dynamics
  0147c	f3 0f 10 05 00
	00 00 00	 movss	 xmm0, DWORD PTR __real@be4ccccd
  01484	f3 0f 11 80 28
	1c 00 00	 movss	 DWORD PTR [eax+7208], xmm0

; 529  : 	current_flight_dynamics->centre_of_gravity.z = -0.012;

  0148c	a1 00 00 00 00	 mov	 eax, DWORD PTR ?current_flight_dynamics@@3PAUDYNAMICS_TYPE@@A ; current_flight_dynamics
  01491	f3 0f 10 05 00
	00 00 00	 movss	 xmm0, DWORD PTR __real@bc449ba6
  01499	f3 0f 11 80 2c
	1c 00 00	 movss	 DWORD PTR [eax+7212], xmm0

; 530  : 
; 531  : 	// landing
; 532  : 	// havoc at 	1.0, 3.0, 7.0, 10.0
; 533  : 	// apache at 	0.75, 2.5, 6.0, 9.0 - good, ok, heavy, crash
; 534  : 
; 535  : 	current_flight_dynamics->landing_quality.min = -0.75;

  014a1	a1 00 00 00 00	 mov	 eax, DWORD PTR ?current_flight_dynamics@@3PAUDYNAMICS_TYPE@@A ; current_flight_dynamics
  014a6	f3 0f 10 05 00
	00 00 00	 movss	 xmm0, DWORD PTR __real@bf400000
  014ae	f3 0f 11 80 a4
	23 00 00	 movss	 DWORD PTR [eax+9124], xmm0

; 536  : 	current_flight_dynamics->landing_quality.delta = -2.5;

  014b6	a1 00 00 00 00	 mov	 eax, DWORD PTR ?current_flight_dynamics@@3PAUDYNAMICS_TYPE@@A ; current_flight_dynamics
  014bb	f3 0f 10 05 00
	00 00 00	 movss	 xmm0, DWORD PTR __real@c0200000
  014c3	f3 0f 11 80 a0
	23 00 00	 movss	 DWORD PTR [eax+9120], xmm0

; 537  : 	current_flight_dynamics->landing_quality.value = -6.0;

  014cb	a1 00 00 00 00	 mov	 eax, DWORD PTR ?current_flight_dynamics@@3PAUDYNAMICS_TYPE@@A ; current_flight_dynamics
  014d0	f3 0f 10 05 00
	00 00 00	 movss	 xmm0, DWORD PTR __real@c0c00000
  014d8	f3 0f 11 80 9c
	23 00 00	 movss	 DWORD PTR [eax+9116], xmm0

; 538  : 	current_flight_dynamics->landing_quality.max = -9.0;

  014e0	a1 00 00 00 00	 mov	 eax, DWORD PTR ?current_flight_dynamics@@3PAUDYNAMICS_TYPE@@A ; current_flight_dynamics
  014e5	f3 0f 10 05 00
	00 00 00	 movss	 xmm0, DWORD PTR __real@c1100000
  014ed	f3 0f 11 80 a8
	23 00 00	 movss	 DWORD PTR [eax+9128], xmm0

; 539  : 
; 540  : 	// g force
; 541  : 
; 542  : 	current_flight_dynamics->g_force.value = 1.0;

  014f5	a1 00 00 00 00	 mov	 eax, DWORD PTR ?current_flight_dynamics@@3PAUDYNAMICS_TYPE@@A ; current_flight_dynamics
  014fa	f3 0f 10 05 00
	00 00 00	 movss	 xmm0, DWORD PTR __real@3f800000
  01502	f3 0f 11 80 5c
	24 00 00	 movss	 DWORD PTR [eax+9308], xmm0

; 543  : 
; 544  : 	//
; 545  : 	// debug to start with engine on.
; 546  : 	//
; 547  : 
; 548  : 	// havoc 1
; 549  : 	// apache -1
; 550  : 
; 551  : 	current_flight_dynamics->rotor_rotation_direction = -1.0;

  0150a	83 c8 ff	 or	 eax, -1
  0150d	8b 0d 00 00 00
	00		 mov	 ecx, DWORD PTR ?current_flight_dynamics@@3PAUDYNAMICS_TYPE@@A ; current_flight_dynamics
  01513	66 89 81 1c 25
	00 00		 mov	 WORD PTR [ecx+9500], ax

; 552  : 
; 553  : 	current_flight_dynamics->rotor_brake = TRUE;

  0151a	a1 00 00 00 00	 mov	 eax, DWORD PTR ?current_flight_dynamics@@3PAUDYNAMICS_TYPE@@A ; current_flight_dynamics
  0151f	8b 88 28 25 00
	00		 mov	 ecx, DWORD PTR [eax+9512]
  01525	83 c9 20	 or	 ecx, 32			; 00000020H
  01528	8b 15 00 00 00
	00		 mov	 edx, DWORD PTR ?current_flight_dynamics@@3PAUDYNAMICS_TYPE@@A ; current_flight_dynamics
  0152e	89 8a 28 25 00
	00		 mov	 DWORD PTR [edx+9512], ecx

; 554  : 
; 555  : 	current_flight_dynamics->auto_hover = HOVER_HOLD_NONE;

  01534	a1 00 00 00 00	 mov	 eax, DWORD PTR ?current_flight_dynamics@@3PAUDYNAMICS_TYPE@@A ; current_flight_dynamics
  01539	8b 88 28 25 00
	00		 mov	 ecx, DWORD PTR [eax+9512]
  0153f	81 e1 7f fc ff
	ff		 and	 ecx, -897		; fffffc7fH
  01545	8b 15 00 00 00
	00		 mov	 edx, DWORD PTR ?current_flight_dynamics@@3PAUDYNAMICS_TYPE@@A ; current_flight_dynamics
  0154b	89 8a 28 25 00
	00		 mov	 DWORD PTR [edx+9512], ecx

; 556  : 
; 557  : 	current_flight_dynamics->wheel_brake = TRUE;

  01551	a1 00 00 00 00	 mov	 eax, DWORD PTR ?current_flight_dynamics@@3PAUDYNAMICS_TYPE@@A ; current_flight_dynamics
  01556	8b 88 28 25 00
	00		 mov	 ecx, DWORD PTR [eax+9512]
  0155c	83 c9 40	 or	 ecx, 64			; 00000040H
  0155f	8b 15 00 00 00
	00		 mov	 edx, DWORD PTR ?current_flight_dynamics@@3PAUDYNAMICS_TYPE@@A ; current_flight_dynamics
  01565	89 8a 28 25 00
	00		 mov	 DWORD PTR [edx+9512], ecx

; 558  : 
; 559  : 	//if (get_local_entity_int_value (en, INT_TYPE_OPERATIONAL_STATE) != OPERATIONAL_STATE_LANDED)
; 560  : 	{
; 561  : 
; 562  : 		float
; 563  : 			Mrpm,
; 564  : 			Md,
; 565  : 			Pmax,
; 566  : 			Tl;
; 567  : 
; 568  : 		current_flight_dynamics->rotor_brake = FALSE;

  0156b	a1 00 00 00 00	 mov	 eax, DWORD PTR ?current_flight_dynamics@@3PAUDYNAMICS_TYPE@@A ; current_flight_dynamics
  01570	8b 88 28 25 00
	00		 mov	 ecx, DWORD PTR [eax+9512]
  01576	83 e1 df	 and	 ecx, -33		; ffffffdfH
  01579	8b 15 00 00 00
	00		 mov	 edx, DWORD PTR ?current_flight_dynamics@@3PAUDYNAMICS_TYPE@@A ; current_flight_dynamics
  0157f	89 8a 28 25 00
	00		 mov	 DWORD PTR [edx+9512], ecx

; 569  : 
; 570  : 		current_flight_dynamics->auto_hover = HOVER_HOLD_NONE;

  01585	a1 00 00 00 00	 mov	 eax, DWORD PTR ?current_flight_dynamics@@3PAUDYNAMICS_TYPE@@A ; current_flight_dynamics
  0158a	8b 88 28 25 00
	00		 mov	 ecx, DWORD PTR [eax+9512]
  01590	81 e1 7f fc ff
	ff		 and	 ecx, -897		; fffffc7fH
  01596	8b 15 00 00 00
	00		 mov	 edx, DWORD PTR ?current_flight_dynamics@@3PAUDYNAMICS_TYPE@@A ; current_flight_dynamics
  0159c	89 8a 28 25 00
	00		 mov	 DWORD PTR [edx+9512], ecx

; 571  : 
; 572  : 		current_flight_dynamics->wheel_brake = FALSE;

  015a2	a1 00 00 00 00	 mov	 eax, DWORD PTR ?current_flight_dynamics@@3PAUDYNAMICS_TYPE@@A ; current_flight_dynamics
  015a7	8b 88 28 25 00
	00		 mov	 ecx, DWORD PTR [eax+9512]
  015ad	83 e1 bf	 and	 ecx, -65		; ffffffbfH
  015b0	8b 15 00 00 00
	00		 mov	 edx, DWORD PTR ?current_flight_dynamics@@3PAUDYNAMICS_TYPE@@A ; current_flight_dynamics
  015b6	89 8a 28 25 00
	00		 mov	 DWORD PTR [edx+9512], ecx

; 573  : 
; 574  : 		// cross coupling to match main rotor rpm
; 575  : 
; 576  : 		Mrpm = current_flight_dynamics->main_rotor_rpm.value;

  015bc	a1 00 00 00 00	 mov	 eax, DWORD PTR ?current_flight_dynamics@@3PAUDYNAMICS_TYPE@@A ; current_flight_dynamics
  015c1	f3 0f 10 80 14
	1e 00 00	 movss	 xmm0, DWORD PTR [eax+7700]
  015c9	f3 0f 11 45 e8	 movss	 DWORD PTR _Mrpm$4[ebp], xmm0

; 577  : 
; 578  : 		Md = current_flight_dynamics->main_rotor_diameter.value;

  015ce	a1 00 00 00 00	 mov	 eax, DWORD PTR ?current_flight_dynamics@@3PAUDYNAMICS_TYPE@@A ; current_flight_dynamics
  015d3	f3 0f 10 80 9c
	1d 00 00	 movss	 xmm0, DWORD PTR [eax+7580]
  015db	f3 0f 11 45 e4	 movss	 DWORD PTR _Md$3[ebp], xmm0

; 579  : 
; 580  : 		Pmax = current_flight_dynamics->tail_blade_pitch.max;

  015e0	a1 00 00 00 00	 mov	 eax, DWORD PTR ?current_flight_dynamics@@3PAUDYNAMICS_TYPE@@A ; current_flight_dynamics
  015e5	f3 0f 10 80 a0
	1f 00 00	 movss	 xmm0, DWORD PTR [eax+8096]
  015ed	f3 0f 11 45 e0	 movss	 DWORD PTR _Pmax$2[ebp], xmm0

; 581  : 
; 582  : 		Tl = current_flight_dynamics->tail_boom_length.value;

  015f2	a1 00 00 00 00	 mov	 eax, DWORD PTR ?current_flight_dynamics@@3PAUDYNAMICS_TYPE@@A ; current_flight_dynamics
  015f7	f3 0f 10 80 ac
	1f 00 00	 movss	 xmm0, DWORD PTR [eax+8108]
  015ff	f3 0f 11 45 dc	 movss	 DWORD PTR _Tl$1[ebp], xmm0

; 583  : 
; 584  : 		current_flight_dynamics->cross_coupling_effect.value = (((200 * PI * Mrpm * Md * Pmax) / (1649 * Tl))) / (Pmax);

  01604	f3 0f 10 05 00
	00 00 00	 movss	 xmm0, DWORD PTR __real@441d1463
  0160c	f3 0f 59 45 e8	 mulss	 xmm0, DWORD PTR _Mrpm$4[ebp]
  01611	f3 0f 59 45 e4	 mulss	 xmm0, DWORD PTR _Md$3[ebp]
  01616	f3 0f 59 45 e0	 mulss	 xmm0, DWORD PTR _Pmax$2[ebp]
  0161b	f3 0f 10 0d 00
	00 00 00	 movss	 xmm1, DWORD PTR __real@44ce2000
  01623	f3 0f 59 4d dc	 mulss	 xmm1, DWORD PTR _Tl$1[ebp]
  01628	f3 0f 5e c1	 divss	 xmm0, xmm1
  0162c	f3 0f 5e 45 e0	 divss	 xmm0, DWORD PTR _Pmax$2[ebp]
  01631	a1 00 00 00 00	 mov	 eax, DWORD PTR ?current_flight_dynamics@@3PAUDYNAMICS_TYPE@@A ; current_flight_dynamics
  01636	f3 0f 11 80 c4
	1f 00 00	 movss	 DWORD PTR [eax+8132], xmm0

; 585  : 	}
; 586  : 
; 587  : 	right_g_e_force = 0.0;

  0163e	0f 57 c0	 xorps	 xmm0, xmm0
  01641	f3 0f 11 05 00
	00 00 00	 movss	 DWORD PTR ?right_g_e_force@@3MA, xmm0

; 588  : 	left_g_e_force = 0.0;

  01649	0f 57 c0	 xorps	 xmm0, xmm0
  0164c	f3 0f 11 05 00
	00 00 00	 movss	 DWORD PTR ?left_g_e_force@@3MA, xmm0

; 589  : 	back_g_e_force = 0.0;

  01654	0f 57 c0	 xorps	 xmm0, xmm0
  01657	f3 0f 11 05 00
	00 00 00	 movss	 DWORD PTR ?back_g_e_force@@3MA, xmm0

; 590  : 	front_g_e_force = 0.0;

  0165f	0f 57 c0	 xorps	 xmm0, xmm0
  01662	f3 0f 11 05 00
	00 00 00	 movss	 DWORD PTR ?front_g_e_force@@3MA, xmm0

; 591  : 	this_reaction_force = 0.0;

  0166a	0f 57 c0	 xorps	 xmm0, xmm0
  0166d	f3 0f 11 05 00
	00 00 00	 movss	 DWORD PTR ?this_reaction_force@@3MA, xmm0

; 592  : }

  01675	5f		 pop	 edi
  01676	5e		 pop	 esi
  01677	5b		 pop	 ebx
  01678	8b e5		 mov	 esp, ebp
  0167a	5d		 pop	 ebp
  0167b	c2 04 00	 ret	 4
?set_dynamics_defaults@@YGXPAUENTITY@@@Z ENDP		; set_dynamics_defaults
_TEXT	ENDS
; Function compile flags: /Odtp /ZI
; File c:\program files (x86)\microsoft visual studio\2017\community\vc\tools\msvc\14.16.27023\include\cmath
;	COMDAT ?sin@@YGMM@Z
_TEXT	SEGMENT
__Xx$ = 8						; size = 4
?sin@@YGMM@Z PROC					; sin, COMDAT

; 284  : 	{

  00000	55		 push	 ebp
  00001	8b ec		 mov	 ebp, esp
  00003	83 ec 40	 sub	 esp, 64			; 00000040H
  00006	53		 push	 ebx
  00007	56		 push	 esi
  00008	57		 push	 edi

; 285  : 	return (_CSTD sinf(_Xx));

  00009	51		 push	 ecx
  0000a	f3 0f 10 45 08	 movss	 xmm0, DWORD PTR __Xx$[ebp]
  0000f	f3 0f 11 04 24	 movss	 DWORD PTR [esp], xmm0
  00014	e8 00 00 00 00	 call	 _sinf
  00019	83 c4 04	 add	 esp, 4

; 286  : 	}

  0001c	5f		 pop	 edi
  0001d	5e		 pop	 esi
  0001e	5b		 pop	 ebx
  0001f	8b e5		 mov	 esp, ebp
  00021	5d		 pop	 ebp
  00022	c2 04 00	 ret	 4
?sin@@YGMM@Z ENDP					; sin
_TEXT	ENDS
; Function compile flags: /Odtp /ZI
; File c:\program files (x86)\microsoft visual studio\2017\community\vc\tools\msvc\14.16.27023\include\cmath
;	COMDAT ?pow@@YGMMH@Z
_TEXT	SEGMENT
tv74 = -68						; size = 4
__Xx$ = 8						; size = 4
__Yx$ = 12						; size = 4
?pow@@YGMMH@Z PROC					; pow, COMDAT

; 245  : 	{

  00000	55		 push	 ebp
  00001	8b ec		 mov	 ebp, esp
  00003	83 ec 44	 sub	 esp, 68			; 00000044H
  00006	53		 push	 ebx
  00007	56		 push	 esi
  00008	57		 push	 edi

; 246  : 	if (_Yx == 2)

  00009	83 7d 0c 02	 cmp	 DWORD PTR __Yx$[ebp], 2
  0000d	75 14		 jne	 SHORT $LN2@pow

; 247  : 		return (_Xx * _Xx);

  0000f	f3 0f 10 45 08	 movss	 xmm0, DWORD PTR __Xx$[ebp]
  00014	f3 0f 59 45 08	 mulss	 xmm0, DWORD PTR __Xx$[ebp]
  00019	f3 0f 11 45 bc	 movss	 DWORD PTR tv74[ebp], xmm0
  0001e	d9 45 bc	 fld	 DWORD PTR tv74[ebp]
  00021	eb 1e		 jmp	 SHORT $LN1@pow
$LN2@pow:

; 248  : 
; 249  : 	return (_CSTD powf(_Xx, static_cast<float>(_Yx)));

  00023	f3 0f 2a 45 0c	 cvtsi2ss xmm0, DWORD PTR __Yx$[ebp]
  00028	51		 push	 ecx
  00029	f3 0f 11 04 24	 movss	 DWORD PTR [esp], xmm0
  0002e	51		 push	 ecx
  0002f	f3 0f 10 45 08	 movss	 xmm0, DWORD PTR __Xx$[ebp]
  00034	f3 0f 11 04 24	 movss	 DWORD PTR [esp], xmm0
  00039	e8 00 00 00 00	 call	 _powf
  0003e	83 c4 08	 add	 esp, 8
$LN1@pow:

; 250  : 	}

  00041	5f		 pop	 edi
  00042	5e		 pop	 esi
  00043	5b		 pop	 ebx
  00044	8b e5		 mov	 esp, ebp
  00046	5d		 pop	 ebp
  00047	c2 08 00	 ret	 8
?pow@@YGMMH@Z ENDP					; pow
_TEXT	ENDS
; Function compile flags: /Odtp /ZI
; File c:\program files (x86)\microsoft visual studio\2017\community\vc\tools\msvc\14.16.27023\include\cmath
;	COMDAT ?pow@@YGMMM@Z
_TEXT	SEGMENT
__Xx$ = 8						; size = 4
__Yx$ = 12						; size = 4
?pow@@YGMMM@Z PROC					; pow, COMDAT

; 240  : 	{

  00000	55		 push	 ebp
  00001	8b ec		 mov	 ebp, esp
  00003	83 ec 40	 sub	 esp, 64			; 00000040H
  00006	53		 push	 ebx
  00007	56		 push	 esi
  00008	57		 push	 edi

; 241  : 	return (_CSTD powf(_Xx, _Yx));

  00009	51		 push	 ecx
  0000a	f3 0f 10 45 0c	 movss	 xmm0, DWORD PTR __Yx$[ebp]
  0000f	f3 0f 11 04 24	 movss	 DWORD PTR [esp], xmm0
  00014	51		 push	 ecx
  00015	f3 0f 10 45 08	 movss	 xmm0, DWORD PTR __Xx$[ebp]
  0001a	f3 0f 11 04 24	 movss	 DWORD PTR [esp], xmm0
  0001f	e8 00 00 00 00	 call	 _powf
  00024	83 c4 08	 add	 esp, 8

; 242  : 	}

  00027	5f		 pop	 edi
  00028	5e		 pop	 esi
  00029	5b		 pop	 ebx
  0002a	8b e5		 mov	 esp, ebp
  0002c	5d		 pop	 ebp
  0002d	c2 08 00	 ret	 8
?pow@@YGMMM@Z ENDP					; pow
_TEXT	ENDS
; Function compile flags: /Odtp /ZI
; File c:\program files (x86)\microsoft visual studio\2017\community\vc\tools\msvc\14.16.27023\include\cmath
;	COMDAT ?fabs@@YGMM@Z
_TEXT	SEGMENT
__Xx$ = 8						; size = 4
?fabs@@YGMM@Z PROC					; fabs, COMDAT

; 112  : 	{

  00000	55		 push	 ebp
  00001	8b ec		 mov	 ebp, esp
  00003	83 ec 40	 sub	 esp, 64			; 00000040H
  00006	53		 push	 ebx
  00007	56		 push	 esi
  00008	57		 push	 edi

; 113  : 	return (_CSTD fabsf(_Xx));

  00009	51		 push	 ecx
  0000a	f3 0f 10 45 08	 movss	 xmm0, DWORD PTR __Xx$[ebp]
  0000f	f3 0f 11 04 24	 movss	 DWORD PTR [esp], xmm0
  00014	e8 00 00 00 00	 call	 _fabsf
  00019	83 c4 04	 add	 esp, 4

; 114  : 	}

  0001c	5f		 pop	 edi
  0001d	5e		 pop	 esi
  0001e	5b		 pop	 ebx
  0001f	8b e5		 mov	 esp, ebp
  00021	5d		 pop	 ebp
  00022	c2 04 00	 ret	 4
?fabs@@YGMM@Z ENDP					; fabs
_TEXT	ENDS
; Function compile flags: /Odtp /ZI
; File c:\program files (x86)\microsoft visual studio\2017\community\vc\tools\msvc\14.16.27023\include\cmath
;	COMDAT ?asin@@YGMM@Z
_TEXT	SEGMENT
__Xx$ = 8						; size = 4
?asin@@YGMM@Z PROC					; asin, COMDAT

; 36   : 	{

  00000	55		 push	 ebp
  00001	8b ec		 mov	 ebp, esp
  00003	83 ec 40	 sub	 esp, 64			; 00000040H
  00006	53		 push	 ebx
  00007	56		 push	 esi
  00008	57		 push	 edi

; 37   : 	return (_CSTD asinf(_Xx));

  00009	51		 push	 ecx
  0000a	f3 0f 10 45 08	 movss	 xmm0, DWORD PTR __Xx$[ebp]
  0000f	f3 0f 11 04 24	 movss	 DWORD PTR [esp], xmm0
  00014	e8 00 00 00 00	 call	 _asinf
  00019	83 c4 04	 add	 esp, 4

; 38   : 	}

  0001c	5f		 pop	 edi
  0001d	5e		 pop	 esi
  0001e	5b		 pop	 ebx
  0001f	8b e5		 mov	 esp, ebp
  00021	5d		 pop	 ebp
  00022	c2 04 00	 ret	 4
?asin@@YGMM@Z ENDP					; asin
_TEXT	ENDS
; Function compile flags: /Odtp /ZI
; File c:\program files (x86)\microsoft visual studio\2017\community\vc\tools\msvc\14.16.27023\include\cmath
;	COMDAT ?pow@@YGNNH@Z
_TEXT	SEGMENT
tv74 = -72						; size = 8
__Xx$ = 8						; size = 8
__Yx$ = 16						; size = 4
?pow@@YGNNH@Z PROC					; pow, COMDAT

; 18   : 	{

  00000	55		 push	 ebp
  00001	8b ec		 mov	 ebp, esp
  00003	83 ec 48	 sub	 esp, 72			; 00000048H
  00006	53		 push	 ebx
  00007	56		 push	 esi
  00008	57		 push	 edi

; 19   : 	if (_Yx == 2)

  00009	83 7d 10 02	 cmp	 DWORD PTR __Yx$[ebp], 2
  0000d	75 14		 jne	 SHORT $LN2@pow

; 20   : 		return (_Xx * _Xx);

  0000f	f2 0f 10 45 08	 movsd	 xmm0, QWORD PTR __Xx$[ebp]
  00014	f2 0f 59 45 08	 mulsd	 xmm0, QWORD PTR __Xx$[ebp]
  00019	f2 0f 11 45 b8	 movsd	 QWORD PTR tv74[ebp], xmm0
  0001e	dd 45 b8	 fld	 QWORD PTR tv74[ebp]
  00021	eb 22		 jmp	 SHORT $LN1@pow
$LN2@pow:

; 21   : 
; 22   : 	return (_CSTD pow(_Xx, static_cast<double>(_Yx)));

  00023	f2 0f 2a 45 10	 cvtsi2sd xmm0, DWORD PTR __Yx$[ebp]
  00028	83 ec 08	 sub	 esp, 8
  0002b	f2 0f 11 04 24	 movsd	 QWORD PTR [esp], xmm0
  00030	83 ec 08	 sub	 esp, 8
  00033	f2 0f 10 45 08	 movsd	 xmm0, QWORD PTR __Xx$[ebp]
  00038	f2 0f 11 04 24	 movsd	 QWORD PTR [esp], xmm0
  0003d	e8 00 00 00 00	 call	 _pow
  00042	83 c4 10	 add	 esp, 16			; 00000010H
$LN1@pow:

; 23   : 	}

  00045	5f		 pop	 edi
  00046	5e		 pop	 esi
  00047	5b		 pop	 ebx
  00048	8b e5		 mov	 esp, ebp
  0004a	5d		 pop	 ebp
  0004b	c2 0c 00	 ret	 12			; 0000000cH
?pow@@YGNNH@Z ENDP					; pow
_TEXT	ENDS
; Function compile flags: /Odtp /ZI
; File c:\program files (x86)\windows kits\10\include\10.0.18362.0\ucrt\corecrt_math.h
;	COMDAT _sinf
_TEXT	SEGMENT
tv71 = -68						; size = 4
__X$ = 8						; size = 4
_sinf	PROC						; COMDAT

; 749  :         {

  00000	55		 push	 ebp
  00001	8b ec		 mov	 ebp, esp
  00003	83 ec 44	 sub	 esp, 68			; 00000044H
  00006	53		 push	 ebx
  00007	56		 push	 esi
  00008	57		 push	 edi

; 750  :             return (float)sin(_X);

  00009	f3 0f 5a 45 08	 cvtss2sd xmm0, DWORD PTR __X$[ebp]
  0000e	83 ec 08	 sub	 esp, 8
  00011	f2 0f 11 04 24	 movsd	 QWORD PTR [esp], xmm0
  00016	e8 00 00 00 00	 call	 _sin
  0001b	83 c4 08	 add	 esp, 8
  0001e	d9 5d bc	 fstp	 DWORD PTR tv71[ebp]
  00021	d9 45 bc	 fld	 DWORD PTR tv71[ebp]

; 751  :         }

  00024	5f		 pop	 edi
  00025	5e		 pop	 esi
  00026	5b		 pop	 ebx
  00027	8b e5		 mov	 esp, ebp
  00029	5d		 pop	 ebp
  0002a	c3		 ret	 0
_sinf	ENDP
_TEXT	ENDS
; Function compile flags: /Odtp /ZI
; File c:\program files (x86)\windows kits\10\include\10.0.18362.0\ucrt\corecrt_math.h
;	COMDAT _powf
_TEXT	SEGMENT
tv74 = -68						; size = 4
__X$ = 8						; size = 4
__Y$ = 12						; size = 4
_powf	PROC						; COMDAT

; 744  :         {

  00000	55		 push	 ebp
  00001	8b ec		 mov	 ebp, esp
  00003	83 ec 44	 sub	 esp, 68			; 00000044H
  00006	53		 push	 ebx
  00007	56		 push	 esi
  00008	57		 push	 edi

; 745  :             return (float)pow(_X, _Y);

  00009	f3 0f 5a 45 0c	 cvtss2sd xmm0, DWORD PTR __Y$[ebp]
  0000e	83 ec 08	 sub	 esp, 8
  00011	f2 0f 11 04 24	 movsd	 QWORD PTR [esp], xmm0
  00016	f3 0f 5a 45 08	 cvtss2sd xmm0, DWORD PTR __X$[ebp]
  0001b	83 ec 08	 sub	 esp, 8
  0001e	f2 0f 11 04 24	 movsd	 QWORD PTR [esp], xmm0
  00023	e8 00 00 00 00	 call	 _pow
  00028	83 c4 10	 add	 esp, 16			; 00000010H
  0002b	d9 5d bc	 fstp	 DWORD PTR tv74[ebp]
  0002e	d9 45 bc	 fld	 DWORD PTR tv74[ebp]

; 746  :         }

  00031	5f		 pop	 edi
  00032	5e		 pop	 esi
  00033	5b		 pop	 ebx
  00034	8b e5		 mov	 esp, ebp
  00036	5d		 pop	 ebp
  00037	c3		 ret	 0
_powf	ENDP
_TEXT	ENDS
; Function compile flags: /Odtp /ZI
; File c:\program files (x86)\windows kits\10\include\10.0.18362.0\ucrt\corecrt_math.h
;	COMDAT _fabsf
_TEXT	SEGMENT
tv71 = -68						; size = 4
__X$ = 8						; size = 4
_fabsf	PROC						; COMDAT

; 671  :         {

  00000	55		 push	 ebp
  00001	8b ec		 mov	 ebp, esp
  00003	83 ec 44	 sub	 esp, 68			; 00000044H
  00006	53		 push	 ebx
  00007	56		 push	 esi
  00008	57		 push	 edi

; 672  :             return (float)fabs(_X);

  00009	f3 0f 5a 45 08	 cvtss2sd xmm0, DWORD PTR __X$[ebp]
  0000e	83 ec 08	 sub	 esp, 8
  00011	f2 0f 11 04 24	 movsd	 QWORD PTR [esp], xmm0
  00016	e8 00 00 00 00	 call	 _fabs
  0001b	83 c4 08	 add	 esp, 8
  0001e	d9 5d bc	 fstp	 DWORD PTR tv71[ebp]
  00021	d9 45 bc	 fld	 DWORD PTR tv71[ebp]

; 673  :         }

  00024	5f		 pop	 edi
  00025	5e		 pop	 esi
  00026	5b		 pop	 ebx
  00027	8b e5		 mov	 esp, ebp
  00029	5d		 pop	 ebp
  0002a	c3		 ret	 0
_fabsf	ENDP
_TEXT	ENDS
; Function compile flags: /Odtp /ZI
; File c:\program files (x86)\windows kits\10\include\10.0.18362.0\ucrt\corecrt_math.h
;	COMDAT _asinf
_TEXT	SEGMENT
tv71 = -68						; size = 4
__X$ = 8						; size = 4
_asinf	PROC						; COMDAT

; 628  :         {

  00000	55		 push	 ebp
  00001	8b ec		 mov	 ebp, esp
  00003	83 ec 44	 sub	 esp, 68			; 00000044H
  00006	53		 push	 ebx
  00007	56		 push	 esi
  00008	57		 push	 edi

; 629  :             return (float)asin(_X);

  00009	f3 0f 5a 45 08	 cvtss2sd xmm0, DWORD PTR __X$[ebp]
  0000e	83 ec 08	 sub	 esp, 8
  00011	f2 0f 11 04 24	 movsd	 QWORD PTR [esp], xmm0
  00016	e8 00 00 00 00	 call	 _asin
  0001b	83 c4 08	 add	 esp, 8
  0001e	d9 5d bc	 fstp	 DWORD PTR tv71[ebp]
  00021	d9 45 bc	 fld	 DWORD PTR tv71[ebp]

; 630  :         }

  00024	5f		 pop	 edi
  00025	5e		 pop	 esi
  00026	5b		 pop	 ebx
  00027	8b e5		 mov	 esp, ebp
  00029	5d		 pop	 ebp
  0002a	c3		 ret	 0
_asinf	ENDP
_TEXT	ENDS
; Function compile flags: /Odtp /ZI
; File c:\program files (x86)\windows kits\10\include\10.0.18362.0\ucrt\stdio.h
;	COMDAT _sprintf
_TEXT	SEGMENT
__ArgList$ = -8						; size = 4
__Result$ = -4						; size = 4
__Buffer$ = 8						; size = 4
__Format$ = 12						; size = 4
_sprintf PROC						; COMDAT

; 1781 :     {

  00000	55		 push	 ebp
  00001	8b ec		 mov	 ebp, esp
  00003	83 ec 4c	 sub	 esp, 76			; 0000004cH
  00006	53		 push	 ebx
  00007	56		 push	 esi
  00008	57		 push	 edi

; 1782 :         int _Result;
; 1783 :         va_list _ArgList;
; 1784 :         __crt_va_start(_ArgList, _Format);

  00009	8d 45 10	 lea	 eax, DWORD PTR __Format$[ebp+4]
  0000c	89 45 f8	 mov	 DWORD PTR __ArgList$[ebp], eax

; 1785 : 
; 1786 :         #pragma warning(push)
; 1787 :         #pragma warning(disable: 4996) // Deprecation
; 1788 :         _Result = _vsprintf_l(_Buffer, _Format, NULL, _ArgList);

  0000f	8b 45 f8	 mov	 eax, DWORD PTR __ArgList$[ebp]
  00012	50		 push	 eax
  00013	6a 00		 push	 0
  00015	8b 4d 0c	 mov	 ecx, DWORD PTR __Format$[ebp]
  00018	51		 push	 ecx
  00019	8b 55 08	 mov	 edx, DWORD PTR __Buffer$[ebp]
  0001c	52		 push	 edx
  0001d	e8 00 00 00 00	 call	 __vsprintf_l
  00022	83 c4 10	 add	 esp, 16			; 00000010H
  00025	89 45 fc	 mov	 DWORD PTR __Result$[ebp], eax

; 1789 :         #pragma warning(pop)
; 1790 : 
; 1791 :         __crt_va_end(_ArgList);

  00028	c7 45 f8 00 00
	00 00		 mov	 DWORD PTR __ArgList$[ebp], 0

; 1792 :         return _Result;

  0002f	8b 45 fc	 mov	 eax, DWORD PTR __Result$[ebp]

; 1793 :     }

  00032	5f		 pop	 edi
  00033	5e		 pop	 esi
  00034	5b		 pop	 ebx
  00035	8b e5		 mov	 esp, ebp
  00037	5d		 pop	 ebp
  00038	c3		 ret	 0
_sprintf ENDP
_TEXT	ENDS
; Function compile flags: /Odtp /ZI
; File c:\program files (x86)\windows kits\10\include\10.0.18362.0\ucrt\stdio.h
;	COMDAT __vsprintf_l
_TEXT	SEGMENT
__Buffer$ = 8						; size = 4
__Format$ = 12						; size = 4
__Locale$ = 16						; size = 4
__ArgList$ = 20						; size = 4
__vsprintf_l PROC					; COMDAT

; 1459 :     {

  00000	55		 push	 ebp
  00001	8b ec		 mov	 ebp, esp
  00003	83 ec 40	 sub	 esp, 64			; 00000040H
  00006	53		 push	 ebx
  00007	56		 push	 esi
  00008	57		 push	 edi

; 1460 :         #pragma warning(push)
; 1461 :         #pragma warning(disable: 4996) // Deprecation
; 1462 :         return _vsnprintf_l(_Buffer, (size_t)-1, _Format, _Locale, _ArgList);

  00009	8b 45 14	 mov	 eax, DWORD PTR __ArgList$[ebp]
  0000c	50		 push	 eax
  0000d	8b 4d 10	 mov	 ecx, DWORD PTR __Locale$[ebp]
  00010	51		 push	 ecx
  00011	8b 55 0c	 mov	 edx, DWORD PTR __Format$[ebp]
  00014	52		 push	 edx
  00015	6a ff		 push	 -1
  00017	8b 45 08	 mov	 eax, DWORD PTR __Buffer$[ebp]
  0001a	50		 push	 eax
  0001b	e8 00 00 00 00	 call	 __vsnprintf_l
  00020	83 c4 14	 add	 esp, 20			; 00000014H

; 1463 :         #pragma warning(pop)
; 1464 :     }

  00023	5f		 pop	 edi
  00024	5e		 pop	 esi
  00025	5b		 pop	 ebx
  00026	8b e5		 mov	 esp, ebp
  00028	5d		 pop	 ebp
  00029	c3		 ret	 0
__vsprintf_l ENDP
_TEXT	ENDS
; Function compile flags: /Odtp /ZI
; File c:\program files (x86)\windows kits\10\include\10.0.18362.0\ucrt\stdio.h
;	COMDAT __vsnprintf_l
_TEXT	SEGMENT
tv74 = -72						; size = 4
__Result$ = -4						; size = 4
__Buffer$ = 8						; size = 4
__BufferCount$ = 12					; size = 4
__Format$ = 16						; size = 4
__Locale$ = 20						; size = 4
__ArgList$ = 24						; size = 4
__vsnprintf_l PROC					; COMDAT

; 1389 :     {

  00000	55		 push	 ebp
  00001	8b ec		 mov	 ebp, esp
  00003	83 ec 48	 sub	 esp, 72			; 00000048H
  00006	53		 push	 ebx
  00007	56		 push	 esi
  00008	57		 push	 edi

; 1390 :         int const _Result = __stdio_common_vsprintf(

  00009	8b 45 18	 mov	 eax, DWORD PTR __ArgList$[ebp]
  0000c	50		 push	 eax
  0000d	8b 4d 14	 mov	 ecx, DWORD PTR __Locale$[ebp]
  00010	51		 push	 ecx
  00011	8b 55 10	 mov	 edx, DWORD PTR __Format$[ebp]
  00014	52		 push	 edx
  00015	8b 45 0c	 mov	 eax, DWORD PTR __BufferCount$[ebp]
  00018	50		 push	 eax
  00019	8b 4d 08	 mov	 ecx, DWORD PTR __Buffer$[ebp]
  0001c	51		 push	 ecx
  0001d	e8 00 00 00 00	 call	 ___local_stdio_printf_options
  00022	8b 10		 mov	 edx, DWORD PTR [eax]
  00024	83 ca 01	 or	 edx, 1
  00027	8b 40 04	 mov	 eax, DWORD PTR [eax+4]
  0002a	50		 push	 eax
  0002b	52		 push	 edx
  0002c	ff 15 00 00 00
	00		 call	 DWORD PTR __imp____stdio_common_vsprintf
  00032	83 c4 1c	 add	 esp, 28			; 0000001cH
  00035	89 45 fc	 mov	 DWORD PTR __Result$[ebp], eax

; 1391 :             _CRT_INTERNAL_LOCAL_PRINTF_OPTIONS | _CRT_INTERNAL_PRINTF_LEGACY_VSPRINTF_NULL_TERMINATION,
; 1392 :             _Buffer, _BufferCount, _Format, _Locale, _ArgList);
; 1393 : 
; 1394 :         return _Result < 0 ? -1 : _Result;

  00038	83 7d fc 00	 cmp	 DWORD PTR __Result$[ebp], 0
  0003c	7d 09		 jge	 SHORT $LN3@vsnprintf_
  0003e	c7 45 b8 ff ff
	ff ff		 mov	 DWORD PTR tv74[ebp], -1
  00045	eb 06		 jmp	 SHORT $LN4@vsnprintf_
$LN3@vsnprintf_:
  00047	8b 45 fc	 mov	 eax, DWORD PTR __Result$[ebp]
  0004a	89 45 b8	 mov	 DWORD PTR tv74[ebp], eax
$LN4@vsnprintf_:
  0004d	8b 45 b8	 mov	 eax, DWORD PTR tv74[ebp]

; 1395 :     }

  00050	5f		 pop	 edi
  00051	5e		 pop	 esi
  00052	5b		 pop	 ebx
  00053	8b e5		 mov	 esp, ebp
  00055	5d		 pop	 ebp
  00056	c3		 ret	 0
__vsnprintf_l ENDP
_TEXT	ENDS
; Function compile flags: /Odtp /ZI
; File c:\program files (x86)\windows kits\10\include\10.0.18362.0\ucrt\corecrt_stdio_config.h
;	COMDAT ___local_stdio_printf_options
_TEXT	SEGMENT
___local_stdio_printf_options PROC			; COMDAT

; 86   :     {

  00000	55		 push	 ebp
  00001	8b ec		 mov	 ebp, esp
  00003	83 ec 40	 sub	 esp, 64			; 00000040H
  00006	53		 push	 ebx
  00007	56		 push	 esi
  00008	57		 push	 edi

; 87   :         static unsigned __int64 _OptionsStorage;
; 88   :         return &_OptionsStorage;

  00009	b8 00 00 00 00	 mov	 eax, OFFSET ?_OptionsStorage@?1??__local_stdio_printf_options@@9@4_KA ; `__local_stdio_printf_options'::`2'::_OptionsStorage

; 89   :     }

  0000e	5f		 pop	 edi
  0000f	5e		 pop	 esi
  00010	5b		 pop	 ebx
  00011	8b e5		 mov	 esp, ebp
  00013	5d		 pop	 ebp
  00014	c3		 ret	 0
___local_stdio_printf_options ENDP
_TEXT	ENDS
END
