; Listing generated by Microsoft (R) Optimizing Compiler Version 19.16.27045.0 

	TITLE	C:\Users\nhv90\Projects\eech\aphavoc\source\gunships\avionics\comanche\cm_dam.c
	.686P
	.XMM
	include listing.inc
	.model	flat

INCLUDELIB MSVCRTD
INCLUDELIB OLDNAMES

PUBLIC	?comanche_damage@@3TCOMANCHE_DAMAGE_FLAGS@@A	; comanche_damage
_BSS	SEGMENT
?comanche_damage@@3TCOMANCHE_DAMAGE_FLAGS@@A DD 01H DUP (?) ; comanche_damage
_BSS	ENDS
PUBLIC	?set_comanche_weapon_damage_status@@YGXXZ	; set_comanche_weapon_damage_status
PUBLIC	?fully_repair_comanche_damage@@YGXXZ		; fully_repair_comanche_damage
PUBLIC	?partially_repair_comanche_damage@@YGXXZ	; partially_repair_comanche_damage
PUBLIC	?repair_comanche_weapon_damage@@YGXXZ		; repair_comanche_weapon_damage
PUBLIC	?damage_comanche@@YGXW4GUNSHIP_DAMAGE_LEVELS@@@Z ; damage_comanche
PUBLIC	?notify_comanche_avionics_of_dynamics_fault@@YGXI@Z ; notify_comanche_avionics_of_dynamics_fault
PUBLIC	?__LINE__Var@?0??set_comanche_weapon_damage_status@@YGXXZ@4JA ; `set_comanche_weapon_damage_status'::`1'::__LINE__Var
PUBLIC	??_C@_0FA@JPBKDNME@c?3?2users?2nhv90?2projects?2eech?2ap@ ; `string'
PUBLIC	??_C@_00CNPNBAHC@@				; `string'
PUBLIC	?__LINE__Var@?0??damage_systems@@YGXTCOMANCHE_DAMAGE_FLAGS@@@Z@4JA ; `damage_systems'::`1'::__LINE__Var
PUBLIC	??_C@_0O@DFLGLKBF@RADAR?5FAILURE@		; `string'
PUBLIC	??_C@_0N@OMKABLID@FLIR?5FAILURE@		; `string'
PUBLIC	??_C@_0M@OPOMIKFA@DTV?5FAILURE@			; `string'
PUBLIC	??_C@_07DMOCMFND@FAILURE@			; `string'
PUBLIC	??_C@_0BB@FAAHBEKJ@LASER?5DESIGNATOR@		; `string'
PUBLIC	??_C@_0N@JDBOFCJG@RADAR?5JAMMER@		; `string'
PUBLIC	??_C@_09MILGCPFO@IR?5JAMMER@			; `string'
PUBLIC	??_C@_0N@LHMAJADA@NAV?5COMPUTER@		; `string'
PUBLIC	??_C@_0O@EMJMKINH@COMMS?5FAILURE@		; `string'
PUBLIC	??_C@_0O@KLLDPKCJ@RADAR?5WARNING@		; `string'
PUBLIC	??_C@_0O@MCGIJJLL@HIDSS?5FAILURE@		; `string'
PUBLIC	??_C@_0M@KHIEJMBO@MFD?5FAILURE@			; `string'
PUBLIC	??_C@_0N@MGLFKHCI@PNVS?5FAILURE@		; `string'
PUBLIC	??_C@_0L@NEDGJPHM@GUN?5JAMMED@			; `string'
PUBLIC	??_C@_0BC@DLNDFIFF@HARDPOINT?5DAMAGED@		; `string'
PUBLIC	??_C@_07OHKEFPKJ@DAMAGED@			; `string'
PUBLIC	??_C@_0BA@LLCCGDM@CHAFF?5DISPENSER@		; `string'
PUBLIC	??_C@_0BA@PILHIAPF@FLARE?5DISPENSER@		; `string'
PUBLIC	??_C@_0BK@EECAIEOA@Invalid?5damage_level?5?$DN?5?$CFd@ ; `string'
PUBLIC	??_C@_0L@FFIGCBMA@MAIN?5ROTOR@			; `string'
PUBLIC	??_C@_0L@MCBINMPD@TAIL?5ROTOR@			; `string'
PUBLIC	??_C@_0M@ILJEMKCB@LEFT?5ENGINE@			; `string'
PUBLIC	??_C@_0N@EIOFDGJE@RIGHT?5ENGINE@		; `string'
PUBLIC	??_C@_0BB@BDAJKHIM@LEFT?5ENGINE?5FIRE@		; `string'
PUBLIC	??_C@_0BC@LCHKAPBN@RIGHT?5ENGINE?5FIRE@		; `string'
PUBLIC	??_C@_0N@PPIEOIMG@PRESSURE?5LOW@		; `string'
PUBLIC	??_C@_0L@POFMFPD@HYDRAULICS@			; `string'
PUBLIC	??_C@_0P@PBDJEGLC@SEC?5HYDRAULICS@		; `string'
PUBLIC	??_C@_0L@LMAEBBOE@STABILISER@			; `string'
PUBLIC	??_C@_09BHCFOJL@FUEL?5LEAK@			; `string'
PUBLIC	??_C@_08IBNIHFAO@PRESSURE@			; `string'
PUBLIC	??_C@_07GGBGBLMC@LOW?5OIL@			; `string'
PUBLIC	??_C@_08JPIIBFH@HIGH?5OIL@			; `string'
PUBLIC	??_C@_0N@MNBKIDKI@GEAR?5DAMAGED@		; `string'
PUBLIC	__real@3f00002000400080
PUBLIC	__real@3feccccccccccccd
EXTRN	?process_assert@@YGXPBD0H@Z:PROC		; process_assert
EXTRN	?debug_fatal@@YAXPBDZZ:PROC			; debug_fatal
EXTRN	?set_client_server_entity_weapon_damage@@YGXPAUENTITY@@HHH@Z:PROC ; set_client_server_entity_weapon_damage
EXTRN	?get_next_available_weapon_sub_type@@YGHPAUENTITY@@@Z:PROC ; get_next_available_weapon_sub_type
EXTRN	?get_local_entity_weapon_available@@YGHPAUENTITY@@H@Z:PROC ; get_local_entity_weapon_available
EXTRN	?play_client_server_warning_message@@YGHPAUENTITY@@H@Z:PROC ; play_client_server_warning_message
EXTRN	?set_laser_is_active@@YGXH@Z:PROC		; set_laser_is_active
EXTRN	?set_ground_radar_is_active@@YGXH@Z:PROC	; set_ground_radar_is_active
EXTRN	?set_air_radar_is_active@@YGXH@Z:PROC		; set_air_radar_is_active
EXTRN	?set_gunship_weapon@@YGXH@Z:PROC		; set_gunship_weapon
EXTRN	?activate_comanche_master_caution@@YGXXZ:PROC	; activate_comanche_master_caution
EXTRN	?set_comanche_text_display_text@@YGXPAD0@Z:PROC	; set_comanche_text_display_text
EXTRN	?select_comanche_main_mfd_mode@@YGXW4COMANCHE_MAIN_MFD_MODES@@W4COMANCHE_MAIN_MFD_LOCATIONS@@@Z:PROC ; select_comanche_main_mfd_mode
EXTRN	?select_comanche_side_mfd_mode@@YGXW4COMANCHE_SIDE_MFD_MODES@@W4COMANCHE_SIDE_MFD_LOCATIONS@@@Z:PROC ; select_comanche_side_mfd_mode
EXTRN	?select_comanche_target_acquisition_system@@YGXW4TARGET_ACQUISITION_SYSTEMS@@@Z:PROC ; select_comanche_target_acquisition_system
EXTRN	?dynamics_damage_model@@YGXIH@Z:PROC		; dynamics_damage_model
EXTRN	?random_number_seed@@3HA:DWORD			; random_number_seed
EXTRN	?null_entity_pointer_message@@3PBDB:DWORD	; null_entity_pointer_message
EXTRN	?global_options@@3UGLOBAL_OPTIONS_DATA@@A:BYTE	; global_options
EXTRN	?system_comms_model@@3W4COMMS_MODEL_TYPES@@A:DWORD ; system_comms_model
EXTRN	?overload_invalid_int_type_message@@3PBDB:DWORD	; overload_invalid_int_type_message
EXTRN	?fn_set_client_server_entity_int_value@@3PAY1BBH@1P6GXPAUENTITY@@W4INT_TYPES@@H@ZA:BYTE ; fn_set_client_server_entity_int_value
EXTRN	?fn_get_local_entity_int_value@@3PAY0BBH@P6GHPAUENTITY@@W4INT_TYPES@@@ZA:BYTE ; fn_get_local_entity_int_value
EXTRN	?gunship_entity@@3PAUENTITY@@A:DWORD		; gunship_entity
EXTRN	?target_acquisition_system@@3W4TARGET_ACQUISITION_SYSTEMS@@A:DWORD ; target_acquisition_system
EXTRN	?fire_extinguisher_used@@3HA:DWORD		; fire_extinguisher_used
EXTRN	?night_vision_system_active@@3HA:DWORD		; night_vision_system_active
EXTRN	__fltused:DWORD
;	COMDAT __real@3feccccccccccccd
CONST	SEGMENT
__real@3feccccccccccccd DQ 03feccccccccccccdr	; 0.9
CONST	ENDS
;	COMDAT __real@3f00002000400080
CONST	SEGMENT
__real@3f00002000400080 DQ 03f00002000400080r	; 3.05185e-05
CONST	ENDS
;	COMDAT ??_C@_0N@MNBKIDKI@GEAR?5DAMAGED@
CONST	SEGMENT
??_C@_0N@MNBKIDKI@GEAR?5DAMAGED@ DB 'GEAR DAMAGED', 00H	; `string'
CONST	ENDS
;	COMDAT ??_C@_08JPIIBFH@HIGH?5OIL@
CONST	SEGMENT
??_C@_08JPIIBFH@HIGH?5OIL@ DB 'HIGH OIL', 00H		; `string'
CONST	ENDS
;	COMDAT ??_C@_07GGBGBLMC@LOW?5OIL@
CONST	SEGMENT
??_C@_07GGBGBLMC@LOW?5OIL@ DB 'LOW OIL', 00H		; `string'
CONST	ENDS
;	COMDAT ??_C@_08IBNIHFAO@PRESSURE@
CONST	SEGMENT
??_C@_08IBNIHFAO@PRESSURE@ DB 'PRESSURE', 00H		; `string'
CONST	ENDS
;	COMDAT ??_C@_09BHCFOJL@FUEL?5LEAK@
CONST	SEGMENT
??_C@_09BHCFOJL@FUEL?5LEAK@ DB 'FUEL LEAK', 00H		; `string'
CONST	ENDS
;	COMDAT ??_C@_0L@LMAEBBOE@STABILISER@
CONST	SEGMENT
??_C@_0L@LMAEBBOE@STABILISER@ DB 'STABILISER', 00H	; `string'
CONST	ENDS
;	COMDAT ??_C@_0P@PBDJEGLC@SEC?5HYDRAULICS@
CONST	SEGMENT
??_C@_0P@PBDJEGLC@SEC?5HYDRAULICS@ DB 'SEC HYDRAULICS', 00H ; `string'
CONST	ENDS
;	COMDAT ??_C@_0L@POFMFPD@HYDRAULICS@
CONST	SEGMENT
??_C@_0L@POFMFPD@HYDRAULICS@ DB 'HYDRAULICS', 00H	; `string'
CONST	ENDS
;	COMDAT ??_C@_0N@PPIEOIMG@PRESSURE?5LOW@
CONST	SEGMENT
??_C@_0N@PPIEOIMG@PRESSURE?5LOW@ DB 'PRESSURE LOW', 00H	; `string'
CONST	ENDS
;	COMDAT ??_C@_0BC@LCHKAPBN@RIGHT?5ENGINE?5FIRE@
CONST	SEGMENT
??_C@_0BC@LCHKAPBN@RIGHT?5ENGINE?5FIRE@ DB 'RIGHT ENGINE FIRE', 00H ; `string'
CONST	ENDS
;	COMDAT ??_C@_0BB@BDAJKHIM@LEFT?5ENGINE?5FIRE@
CONST	SEGMENT
??_C@_0BB@BDAJKHIM@LEFT?5ENGINE?5FIRE@ DB 'LEFT ENGINE FIRE', 00H ; `string'
CONST	ENDS
;	COMDAT ??_C@_0N@EIOFDGJE@RIGHT?5ENGINE@
CONST	SEGMENT
??_C@_0N@EIOFDGJE@RIGHT?5ENGINE@ DB 'RIGHT ENGINE', 00H	; `string'
CONST	ENDS
;	COMDAT ??_C@_0M@ILJEMKCB@LEFT?5ENGINE@
CONST	SEGMENT
??_C@_0M@ILJEMKCB@LEFT?5ENGINE@ DB 'LEFT ENGINE', 00H	; `string'
CONST	ENDS
;	COMDAT ??_C@_0L@MCBINMPD@TAIL?5ROTOR@
CONST	SEGMENT
??_C@_0L@MCBINMPD@TAIL?5ROTOR@ DB 'TAIL ROTOR', 00H	; `string'
CONST	ENDS
;	COMDAT ??_C@_0L@FFIGCBMA@MAIN?5ROTOR@
CONST	SEGMENT
??_C@_0L@FFIGCBMA@MAIN?5ROTOR@ DB 'MAIN ROTOR', 00H	; `string'
CONST	ENDS
;	COMDAT ??_C@_0BK@EECAIEOA@Invalid?5damage_level?5?$DN?5?$CFd@
CONST	SEGMENT
??_C@_0BK@EECAIEOA@Invalid?5damage_level?5?$DN?5?$CFd@ DB 'Invalid damage'
	DB	'_level = %d', 00H				; `string'
CONST	ENDS
;	COMDAT ??_C@_0BA@PILHIAPF@FLARE?5DISPENSER@
CONST	SEGMENT
??_C@_0BA@PILHIAPF@FLARE?5DISPENSER@ DB 'FLARE DISPENSER', 00H ; `string'
CONST	ENDS
;	COMDAT ??_C@_0BA@LLCCGDM@CHAFF?5DISPENSER@
CONST	SEGMENT
??_C@_0BA@LLCCGDM@CHAFF?5DISPENSER@ DB 'CHAFF DISPENSER', 00H ; `string'
CONST	ENDS
;	COMDAT ??_C@_07OHKEFPKJ@DAMAGED@
CONST	SEGMENT
??_C@_07OHKEFPKJ@DAMAGED@ DB 'DAMAGED', 00H		; `string'
CONST	ENDS
;	COMDAT ??_C@_0BC@DLNDFIFF@HARDPOINT?5DAMAGED@
CONST	SEGMENT
??_C@_0BC@DLNDFIFF@HARDPOINT?5DAMAGED@ DB 'HARDPOINT DAMAGED', 00H ; `string'
CONST	ENDS
;	COMDAT ??_C@_0L@NEDGJPHM@GUN?5JAMMED@
CONST	SEGMENT
??_C@_0L@NEDGJPHM@GUN?5JAMMED@ DB 'GUN JAMMED', 00H	; `string'
CONST	ENDS
;	COMDAT ??_C@_0N@MGLFKHCI@PNVS?5FAILURE@
CONST	SEGMENT
??_C@_0N@MGLFKHCI@PNVS?5FAILURE@ DB 'PNVS FAILURE', 00H	; `string'
CONST	ENDS
;	COMDAT ??_C@_0M@KHIEJMBO@MFD?5FAILURE@
CONST	SEGMENT
??_C@_0M@KHIEJMBO@MFD?5FAILURE@ DB 'MFD FAILURE', 00H	; `string'
CONST	ENDS
;	COMDAT ??_C@_0O@MCGIJJLL@HIDSS?5FAILURE@
CONST	SEGMENT
??_C@_0O@MCGIJJLL@HIDSS?5FAILURE@ DB 'HIDSS FAILURE', 00H ; `string'
CONST	ENDS
;	COMDAT ??_C@_0O@KLLDPKCJ@RADAR?5WARNING@
CONST	SEGMENT
??_C@_0O@KLLDPKCJ@RADAR?5WARNING@ DB 'RADAR WARNING', 00H ; `string'
CONST	ENDS
;	COMDAT ??_C@_0O@EMJMKINH@COMMS?5FAILURE@
CONST	SEGMENT
??_C@_0O@EMJMKINH@COMMS?5FAILURE@ DB 'COMMS FAILURE', 00H ; `string'
CONST	ENDS
;	COMDAT ??_C@_0N@LHMAJADA@NAV?5COMPUTER@
CONST	SEGMENT
??_C@_0N@LHMAJADA@NAV?5COMPUTER@ DB 'NAV COMPUTER', 00H	; `string'
CONST	ENDS
;	COMDAT ??_C@_09MILGCPFO@IR?5JAMMER@
CONST	SEGMENT
??_C@_09MILGCPFO@IR?5JAMMER@ DB 'IR JAMMER', 00H	; `string'
CONST	ENDS
;	COMDAT ??_C@_0N@JDBOFCJG@RADAR?5JAMMER@
CONST	SEGMENT
??_C@_0N@JDBOFCJG@RADAR?5JAMMER@ DB 'RADAR JAMMER', 00H	; `string'
CONST	ENDS
;	COMDAT ??_C@_0BB@FAAHBEKJ@LASER?5DESIGNATOR@
CONST	SEGMENT
??_C@_0BB@FAAHBEKJ@LASER?5DESIGNATOR@ DB 'LASER DESIGNATOR', 00H ; `string'
CONST	ENDS
;	COMDAT ??_C@_07DMOCMFND@FAILURE@
CONST	SEGMENT
??_C@_07DMOCMFND@FAILURE@ DB 'FAILURE', 00H		; `string'
CONST	ENDS
;	COMDAT ??_C@_0M@OPOMIKFA@DTV?5FAILURE@
CONST	SEGMENT
??_C@_0M@OPOMIKFA@DTV?5FAILURE@ DB 'DTV FAILURE', 00H	; `string'
CONST	ENDS
;	COMDAT ??_C@_0N@OMKABLID@FLIR?5FAILURE@
CONST	SEGMENT
??_C@_0N@OMKABLID@FLIR?5FAILURE@ DB 'FLIR FAILURE', 00H	; `string'
CONST	ENDS
;	COMDAT ??_C@_0O@DFLGLKBF@RADAR?5FAILURE@
CONST	SEGMENT
??_C@_0O@DFLGLKBF@RADAR?5FAILURE@ DB 'RADAR FAILURE', 00H ; `string'
CONST	ENDS
;	COMDAT ?__LINE__Var@?0??damage_systems@@YGXTCOMANCHE_DAMAGE_FLAGS@@@Z@4JA
_DATA	SEGMENT
?__LINE__Var@?0??damage_systems@@YGXTCOMANCHE_DAMAGE_FLAGS@@@Z@4JA DD 0262H ; `damage_systems'::`1'::__LINE__Var
_DATA	ENDS
;	COMDAT ??_C@_00CNPNBAHC@@
CONST	SEGMENT
??_C@_00CNPNBAHC@@ DB 00H				; `string'
CONST	ENDS
;	COMDAT ??_C@_0FA@JPBKDNME@c?3?2users?2nhv90?2projects?2eech?2ap@
CONST	SEGMENT
??_C@_0FA@JPBKDNME@c?3?2users?2nhv90?2projects?2eech?2ap@ DB 'c:\users\nh'
	DB	'v90\projects\eech\aphavoc\source\gunships\avionics\comanche\c'
	DB	'm_dam.c', 00H				; `string'
CONST	ENDS
;	COMDAT ?__LINE__Var@?0??set_comanche_weapon_damage_status@@YGXXZ@4JA
_DATA	SEGMENT
?__LINE__Var@?0??set_comanche_weapon_damage_status@@YGXXZ@4JA DD 057H ; `set_comanche_weapon_damage_status'::`1'::__LINE__Var
_DATA	ENDS
; Function compile flags: /Odtp /ZI
; File c:\users\nhv90\projects\eech\aphavoc\source\gunships\avionics\comanche\cm_dam.c
;	COMDAT ?damage_systems@@YGXTCOMANCHE_DAMAGE_FLAGS@@@Z
_TEXT	SEGMENT
tv256 = -76						; size = 4
tv235 = -76						; size = 4
tv202 = -76						; size = 4
tv181 = -76						; size = 4
tv248 = -72						; size = 4
tv228 = -72						; size = 4
tv194 = -72						; size = 4
tv174 = -72						; size = 4
_en$ = -4						; size = 4
_damage$ = 8						; size = 4
?damage_systems@@YGXTCOMANCHE_DAMAGE_FLAGS@@@Z PROC	; damage_systems, COMDAT

; 610  : {

  00000	55		 push	 ebp
  00001	8b ec		 mov	 ebp, esp
  00003	83 ec 4c	 sub	 esp, 76			; 0000004cH
  00006	53		 push	 ebx
  00007	56		 push	 esi
  00008	57		 push	 edi

; 611  : 	entity
; 612  : 		*en;
; 613  : 
; 614  : 	en = get_gunship_entity ();

  00009	a1 00 00 00 00	 mov	 eax, DWORD PTR ?gunship_entity@@3PAUENTITY@@A ; gunship_entity
  0000e	89 45 fc	 mov	 DWORD PTR _en$[ebp], eax

; 615  : 
; 616  : 	////////////////////////////////////////
; 617  : 
; 618  : 	if (damage.radar)

  00011	8b 45 08	 mov	 eax, DWORD PTR _damage$[ebp]
  00014	83 e0 01	 and	 eax, 1
  00017	74 69		 je	 SHORT $LN2@damage_sys

; 619  : 	{
; 620  : 		if (!comanche_damage.radar)

  00019	a1 00 00 00 00	 mov	 eax, DWORD PTR ?comanche_damage@@3TCOMANCHE_DAMAGE_FLAGS@@A ; comanche_damage
  0001e	83 e0 01	 and	 eax, 1
  00021	75 5f		 jne	 SHORT $LN2@damage_sys

; 621  : 		{
; 622  : 			activate_comanche_master_caution ();

  00023	e8 00 00 00 00	 call	 ?activate_comanche_master_caution@@YGXXZ ; activate_comanche_master_caution

; 623  : 
; 624  : 			comanche_damage.radar = TRUE;

  00028	a1 00 00 00 00	 mov	 eax, DWORD PTR ?comanche_damage@@3TCOMANCHE_DAMAGE_FLAGS@@A ; comanche_damage
  0002d	83 c8 01	 or	 eax, 1
  00030	a3 00 00 00 00	 mov	 DWORD PTR ?comanche_damage@@3TCOMANCHE_DAMAGE_FLAGS@@A, eax ; comanche_damage

; 625  : 
; 626  : 			dynamics_damage_model (DYNAMICS_DAMAGE_AVIONICS, FALSE);

  00035	6a 00		 push	 0
  00037	68 00 10 00 00	 push	 4096			; 00001000H
  0003c	e8 00 00 00 00	 call	 ?dynamics_damage_model@@YGXIH@Z ; dynamics_damage_model

; 627  : 
; 628  : 			set_comanche_text_display_text ("RADAR FAILURE", "");

  00041	68 00 00 00 00	 push	 OFFSET ??_C@_00CNPNBAHC@@
  00046	68 00 00 00 00	 push	 OFFSET ??_C@_0O@DFLGLKBF@RADAR?5FAILURE@
  0004b	e8 00 00 00 00	 call	 ?set_comanche_text_display_text@@YGXPAD0@Z ; set_comanche_text_display_text

; 629  : 
; 630  : 			set_ground_radar_is_active(FALSE);

  00050	6a 00		 push	 0
  00052	e8 00 00 00 00	 call	 ?set_ground_radar_is_active@@YGXH@Z ; set_ground_radar_is_active

; 631  : 			set_air_radar_is_active(FALSE);

  00057	6a 00		 push	 0
  00059	e8 00 00 00 00	 call	 ?set_air_radar_is_active@@YGXH@Z ; set_air_radar_is_active

; 632  : 
; 633  : 			play_client_server_warning_message (en, SPEECH_SYSTEM_RADAR_FAILURE);

  0005e	6a 00		 push	 0
  00060	8b 45 fc	 mov	 eax, DWORD PTR _en$[ebp]
  00063	50		 push	 eax
  00064	e8 00 00 00 00	 call	 ?play_client_server_warning_message@@YGHPAUENTITY@@H@Z ; play_client_server_warning_message

; 634  : 
; 635  : 			if
; 636  : 			(
; 637  : 				(target_acquisition_system == TARGET_ACQUISITION_SYSTEM_GROUND_RADAR) ||

  00069	83 3d 00 00 00
	00 01		 cmp	 DWORD PTR ?target_acquisition_system@@3W4TARGET_ACQUISITION_SYSTEMS@@A, 1 ; target_acquisition_system
  00070	74 09		 je	 SHORT $LN5@damage_sys
  00072	83 3d 00 00 00
	00 02		 cmp	 DWORD PTR ?target_acquisition_system@@3W4TARGET_ACQUISITION_SYSTEMS@@A, 2 ; target_acquisition_system
  00079	75 07		 jne	 SHORT $LN2@damage_sys
$LN5@damage_sys:

; 638  : 				(target_acquisition_system == TARGET_ACQUISITION_SYSTEM_AIR_RADAR)
; 639  : 			)
; 640  : 			{
; 641  : 				select_comanche_target_acquisition_system (TARGET_ACQUISITION_SYSTEM_OFF);

  0007b	6a 00		 push	 0
  0007d	e8 00 00 00 00	 call	 ?select_comanche_target_acquisition_system@@YGXW4TARGET_ACQUISITION_SYSTEMS@@@Z ; select_comanche_target_acquisition_system
$LN2@damage_sys:

; 642  : 			}
; 643  : 		}
; 644  : 	}
; 645  : 
; 646  : 	////////////////////////////////////////
; 647  : 
; 648  : 	if (damage.flir)

  00082	8b 45 08	 mov	 eax, DWORD PTR _damage$[ebp]
  00085	d1 e8		 shr	 eax, 1
  00087	83 e0 01	 and	 eax, 1
  0008a	74 54		 je	 SHORT $LN6@damage_sys

; 649  : 	{
; 650  : 		if (!comanche_damage.flir)

  0008c	a1 00 00 00 00	 mov	 eax, DWORD PTR ?comanche_damage@@3TCOMANCHE_DAMAGE_FLAGS@@A ; comanche_damage
  00091	d1 e8		 shr	 eax, 1
  00093	83 e0 01	 and	 eax, 1
  00096	75 48		 jne	 SHORT $LN6@damage_sys

; 651  : 		{
; 652  : 			activate_comanche_master_caution ();

  00098	e8 00 00 00 00	 call	 ?activate_comanche_master_caution@@YGXXZ ; activate_comanche_master_caution

; 653  : 
; 654  : 			comanche_damage.flir = TRUE;

  0009d	a1 00 00 00 00	 mov	 eax, DWORD PTR ?comanche_damage@@3TCOMANCHE_DAMAGE_FLAGS@@A ; comanche_damage
  000a2	83 c8 02	 or	 eax, 2
  000a5	a3 00 00 00 00	 mov	 DWORD PTR ?comanche_damage@@3TCOMANCHE_DAMAGE_FLAGS@@A, eax ; comanche_damage

; 655  : 
; 656  : 			dynamics_damage_model (DYNAMICS_DAMAGE_AVIONICS, FALSE);

  000aa	6a 00		 push	 0
  000ac	68 00 10 00 00	 push	 4096			; 00001000H
  000b1	e8 00 00 00 00	 call	 ?dynamics_damage_model@@YGXIH@Z ; dynamics_damage_model

; 657  : 
; 658  : 			set_comanche_text_display_text ("FLIR FAILURE", "");

  000b6	68 00 00 00 00	 push	 OFFSET ??_C@_00CNPNBAHC@@
  000bb	68 00 00 00 00	 push	 OFFSET ??_C@_0N@OMKABLID@FLIR?5FAILURE@
  000c0	e8 00 00 00 00	 call	 ?set_comanche_text_display_text@@YGXPAD0@Z ; set_comanche_text_display_text

; 659  : 
; 660  : 			play_client_server_warning_message (en, SPEECH_SYSTEM_FLIR_FAILURE);

  000c5	6a 01		 push	 1
  000c7	8b 45 fc	 mov	 eax, DWORD PTR _en$[ebp]
  000ca	50		 push	 eax
  000cb	e8 00 00 00 00	 call	 ?play_client_server_warning_message@@YGHPAUENTITY@@H@Z ; play_client_server_warning_message

; 661  : 
; 662  : 			if (target_acquisition_system == TARGET_ACQUISITION_SYSTEM_FLIR)

  000d0	83 3d 00 00 00
	00 03		 cmp	 DWORD PTR ?target_acquisition_system@@3W4TARGET_ACQUISITION_SYSTEMS@@A, 3 ; target_acquisition_system
  000d7	75 07		 jne	 SHORT $LN6@damage_sys

; 663  : 			{
; 664  : 				select_comanche_target_acquisition_system (TARGET_ACQUISITION_SYSTEM_OFF);

  000d9	6a 00		 push	 0
  000db	e8 00 00 00 00	 call	 ?select_comanche_target_acquisition_system@@YGXW4TARGET_ACQUISITION_SYSTEMS@@@Z ; select_comanche_target_acquisition_system
$LN6@damage_sys:

; 665  : 			}
; 666  : 		}
; 667  : 	}
; 668  : 
; 669  : 	////////////////////////////////////////
; 670  : 
; 671  : 	if (damage.dtv)

  000e0	8b 45 08	 mov	 eax, DWORD PTR _damage$[ebp]
  000e3	c1 e8 02	 shr	 eax, 2
  000e6	83 e0 01	 and	 eax, 1
  000e9	74 55		 je	 SHORT $LN9@damage_sys

; 672  : 	{
; 673  : 		if (!comanche_damage.dtv)

  000eb	a1 00 00 00 00	 mov	 eax, DWORD PTR ?comanche_damage@@3TCOMANCHE_DAMAGE_FLAGS@@A ; comanche_damage
  000f0	c1 e8 02	 shr	 eax, 2
  000f3	83 e0 01	 and	 eax, 1
  000f6	75 48		 jne	 SHORT $LN9@damage_sys

; 674  : 		{
; 675  : 			activate_comanche_master_caution ();

  000f8	e8 00 00 00 00	 call	 ?activate_comanche_master_caution@@YGXXZ ; activate_comanche_master_caution

; 676  : 
; 677  : 			comanche_damage.dtv = TRUE;

  000fd	a1 00 00 00 00	 mov	 eax, DWORD PTR ?comanche_damage@@3TCOMANCHE_DAMAGE_FLAGS@@A ; comanche_damage
  00102	83 c8 04	 or	 eax, 4
  00105	a3 00 00 00 00	 mov	 DWORD PTR ?comanche_damage@@3TCOMANCHE_DAMAGE_FLAGS@@A, eax ; comanche_damage

; 678  : 
; 679  : 			dynamics_damage_model (DYNAMICS_DAMAGE_AVIONICS, FALSE);

  0010a	6a 00		 push	 0
  0010c	68 00 10 00 00	 push	 4096			; 00001000H
  00111	e8 00 00 00 00	 call	 ?dynamics_damage_model@@YGXIH@Z ; dynamics_damage_model

; 680  : 
; 681  : 			set_comanche_text_display_text ("DTV FAILURE", "");

  00116	68 00 00 00 00	 push	 OFFSET ??_C@_00CNPNBAHC@@
  0011b	68 00 00 00 00	 push	 OFFSET ??_C@_0M@OPOMIKFA@DTV?5FAILURE@
  00120	e8 00 00 00 00	 call	 ?set_comanche_text_display_text@@YGXPAD0@Z ; set_comanche_text_display_text

; 682  : 
; 683  : 			play_client_server_warning_message (en, SPEECH_SYSTEM_DTV_FAILURE);

  00125	6a 02		 push	 2
  00127	8b 45 fc	 mov	 eax, DWORD PTR _en$[ebp]
  0012a	50		 push	 eax
  0012b	e8 00 00 00 00	 call	 ?play_client_server_warning_message@@YGHPAUENTITY@@H@Z ; play_client_server_warning_message

; 684  : 
; 685  : 			if (target_acquisition_system == TARGET_ACQUISITION_SYSTEM_DTV)

  00130	83 3d 00 00 00
	00 04		 cmp	 DWORD PTR ?target_acquisition_system@@3W4TARGET_ACQUISITION_SYSTEMS@@A, 4 ; target_acquisition_system
  00137	75 07		 jne	 SHORT $LN9@damage_sys

; 686  : 			{
; 687  : 				select_comanche_target_acquisition_system (TARGET_ACQUISITION_SYSTEM_OFF);

  00139	6a 00		 push	 0
  0013b	e8 00 00 00 00	 call	 ?select_comanche_target_acquisition_system@@YGXW4TARGET_ACQUISITION_SYSTEMS@@@Z ; select_comanche_target_acquisition_system
$LN9@damage_sys:

; 688  : 			}
; 689  : 		}
; 690  : 	}
; 691  : 
; 692  : 	////////////////////////////////////////
; 693  : 
; 694  : 	//DVO REMOVED//
; 695  : 	/*
; 696  : 	if (damage.dvo)
; 697  : 	{
; 698  : 		if (!comanche_damage.dvo)
; 699  : 		{
; 700  : 			activate_comanche_master_caution ();
; 701  : 
; 702  : 			comanche_damage.dvo = TRUE;
; 703  : 
; 704  : 			dynamics_damage_model (DYNAMICS_DAMAGE_AVIONICS, FALSE);
; 705  : 
; 706  : 			set_comanche_text_display_text ("DVO FAILURE", "");
; 707  : 
; 708  : 			play_client_server_warning_message (en, SPEECH_SYSTEM_DVO_FAILURE);
; 709  : 
; 710  : 			if (target_acquisition_system == TARGET_ACQUISITION_SYSTEM_DVO)
; 711  : 			{
; 712  : 				select_comanche_target_acquisition_system (TARGET_ACQUISITION_SYSTEM_OFF);
; 713  : 			}
; 714  : 		}
; 715  : 	}
; 716  : 	*/
; 717  : 	//DVO REMOVED//
; 718  : 
; 719  : 	////////////////////////////////////////
; 720  : 
; 721  : 	if (damage.laser_designator)

  00140	8b 45 08	 mov	 eax, DWORD PTR _damage$[ebp]
  00143	c1 e8 04	 shr	 eax, 4
  00146	83 e0 01	 and	 eax, 1
  00149	74 4c		 je	 SHORT $LN12@damage_sys

; 722  : 	{
; 723  : 		if (!comanche_damage.laser_designator)

  0014b	a1 00 00 00 00	 mov	 eax, DWORD PTR ?comanche_damage@@3TCOMANCHE_DAMAGE_FLAGS@@A ; comanche_damage
  00150	c1 e8 04	 shr	 eax, 4
  00153	83 e0 01	 and	 eax, 1
  00156	75 3f		 jne	 SHORT $LN12@damage_sys

; 724  : 		{
; 725  : 			activate_comanche_master_caution ();

  00158	e8 00 00 00 00	 call	 ?activate_comanche_master_caution@@YGXXZ ; activate_comanche_master_caution

; 726  : 
; 727  : 			comanche_damage.laser_designator = TRUE;

  0015d	a1 00 00 00 00	 mov	 eax, DWORD PTR ?comanche_damage@@3TCOMANCHE_DAMAGE_FLAGS@@A ; comanche_damage
  00162	83 c8 10	 or	 eax, 16			; 00000010H
  00165	a3 00 00 00 00	 mov	 DWORD PTR ?comanche_damage@@3TCOMANCHE_DAMAGE_FLAGS@@A, eax ; comanche_damage

; 728  : 
; 729  : 			dynamics_damage_model (DYNAMICS_DAMAGE_AVIONICS, FALSE);

  0016a	6a 00		 push	 0
  0016c	68 00 10 00 00	 push	 4096			; 00001000H
  00171	e8 00 00 00 00	 call	 ?dynamics_damage_model@@YGXIH@Z ; dynamics_damage_model

; 730  : 
; 731  : 			set_comanche_text_display_text ("LASER DESIGNATOR", "FAILURE");

  00176	68 00 00 00 00	 push	 OFFSET ??_C@_07DMOCMFND@FAILURE@
  0017b	68 00 00 00 00	 push	 OFFSET ??_C@_0BB@FAAHBEKJ@LASER?5DESIGNATOR@
  00180	e8 00 00 00 00	 call	 ?set_comanche_text_display_text@@YGXPAD0@Z ; set_comanche_text_display_text

; 732  : 
; 733  : 			set_laser_is_active(FALSE);

  00185	6a 00		 push	 0
  00187	e8 00 00 00 00	 call	 ?set_laser_is_active@@YGXH@Z ; set_laser_is_active

; 734  : 
; 735  : 			play_client_server_warning_message (en, SPEECH_SYSTEM_LASER_DESIGNATOR_FAILURE);

  0018c	6a 06		 push	 6
  0018e	8b 45 fc	 mov	 eax, DWORD PTR _en$[ebp]
  00191	50		 push	 eax
  00192	e8 00 00 00 00	 call	 ?play_client_server_warning_message@@YGHPAUENTITY@@H@Z ; play_client_server_warning_message
$LN12@damage_sys:

; 736  : 		}
; 737  : 	}
; 738  : 
; 739  : 	////////////////////////////////////////
; 740  : 
; 741  : 	if (damage.radar_jammer)

  00197	8b 45 08	 mov	 eax, DWORD PTR _damage$[ebp]
  0019a	c1 e8 05	 shr	 eax, 5
  0019d	83 e0 01	 and	 eax, 1
  001a0	0f 84 6a 01 00
	00		 je	 $LN14@damage_sys

; 742  : 	{
; 743  : 		if (!comanche_damage.radar_jammer)

  001a6	a1 00 00 00 00	 mov	 eax, DWORD PTR ?comanche_damage@@3TCOMANCHE_DAMAGE_FLAGS@@A ; comanche_damage
  001ab	c1 e8 05	 shr	 eax, 5
  001ae	83 e0 01	 and	 eax, 1
  001b1	0f 85 59 01 00
	00		 jne	 $LN14@damage_sys

; 744  : 		{
; 745  : 			activate_comanche_master_caution ();

  001b7	e8 00 00 00 00	 call	 ?activate_comanche_master_caution@@YGXXZ ; activate_comanche_master_caution

; 746  : 
; 747  : 			comanche_damage.radar_jammer = TRUE;

  001bc	a1 00 00 00 00	 mov	 eax, DWORD PTR ?comanche_damage@@3TCOMANCHE_DAMAGE_FLAGS@@A ; comanche_damage
  001c1	83 c8 20	 or	 eax, 32			; 00000020H
  001c4	a3 00 00 00 00	 mov	 DWORD PTR ?comanche_damage@@3TCOMANCHE_DAMAGE_FLAGS@@A, eax ; comanche_damage

; 748  : 
; 749  : 			dynamics_damage_model (DYNAMICS_DAMAGE_AVIONICS, FALSE);

  001c9	6a 00		 push	 0
  001cb	68 00 10 00 00	 push	 4096			; 00001000H
  001d0	e8 00 00 00 00	 call	 ?dynamics_damage_model@@YGXIH@Z ; dynamics_damage_model

; 750  : 
; 751  : 			set_comanche_text_display_text ("RADAR JAMMER", "FAILURE");

  001d5	68 00 00 00 00	 push	 OFFSET ??_C@_07DMOCMFND@FAILURE@
  001da	68 00 00 00 00	 push	 OFFSET ??_C@_0N@JDBOFCJG@RADAR?5JAMMER@
  001df	e8 00 00 00 00	 call	 ?set_comanche_text_display_text@@YGXPAD0@Z ; set_comanche_text_display_text

; 752  : 
; 753  : 			play_client_server_warning_message (en, SPEECH_SYSTEM_RADAR_JAMMER_FAILURE);

  001e4	6a 08		 push	 8
  001e6	8b 45 fc	 mov	 eax, DWORD PTR _en$[ebp]
  001e9	50		 push	 eax
  001ea	e8 00 00 00 00	 call	 ?play_client_server_warning_message@@YGHPAUENTITY@@H@Z ; play_client_server_warning_message

; 754  : 
; 755  : 			if (get_local_entity_int_value (get_gunship_entity (), INT_TYPE_RADAR_JAMMER_ON))

  001ef	83 3d 00 00 00
	00 00		 cmp	 DWORD PTR ?gunship_entity@@3PAUENTITY@@A, 0 ; gunship_entity
  001f6	74 0c		 je	 SHORT $LN71@damage_sys
  001f8	a1 00 00 00 00	 mov	 eax, DWORD PTR ?gunship_entity@@3PAUENTITY@@A ; gunship_entity
  001fd	8b 08		 mov	 ecx, DWORD PTR [eax]
  001ff	89 4d b8	 mov	 DWORD PTR tv174[ebp], ecx
  00202	eb 1d		 jmp	 SHORT $LN72@damage_sys
$LN71@damage_sys:
  00204	68 f3 02 00 00	 push	 755			; 000002f3H
  00209	68 00 00 00 00	 push	 OFFSET ??_C@_0FA@JPBKDNME@c?3?2users?2nhv90?2projects?2eech?2ap@
  0020e	8b 15 00 00 00
	00		 mov	 edx, DWORD PTR ?null_entity_pointer_message@@3PBDB ; null_entity_pointer_message
  00214	52		 push	 edx
  00215	e8 00 00 00 00	 call	 ?process_assert@@YGXPBD0H@Z ; process_assert
  0021a	c7 45 b8 00 00
	00 00		 mov	 DWORD PTR tv174[ebp], 0
$LN72@damage_sys:
  00221	b8 01 00 00 00	 mov	 eax, 1
  00226	85 c0		 test	 eax, eax
  00228	74 09		 je	 SHORT $LN73@damage_sys
  0022a	c7 45 b4 a8 00
	00 00		 mov	 DWORD PTR tv181[ebp], 168 ; 000000a8H
  00231	eb 1d		 jmp	 SHORT $LN74@damage_sys
$LN73@damage_sys:
  00233	68 f3 02 00 00	 push	 755			; 000002f3H
  00238	68 00 00 00 00	 push	 OFFSET ??_C@_0FA@JPBKDNME@c?3?2users?2nhv90?2projects?2eech?2ap@
  0023d	8b 0d 00 00 00
	00		 mov	 ecx, DWORD PTR ?overload_invalid_int_type_message@@3PBDB ; overload_invalid_int_type_message
  00243	51		 push	 ecx
  00244	e8 00 00 00 00	 call	 ?process_assert@@YGXPBD0H@Z ; process_assert
  00249	c7 45 b4 00 00
	00 00		 mov	 DWORD PTR tv181[ebp], 0
$LN74@damage_sys:
  00250	68 a8 00 00 00	 push	 168			; 000000a8H
  00255	8b 15 00 00 00
	00		 mov	 edx, DWORD PTR ?gunship_entity@@3PAUENTITY@@A ; gunship_entity
  0025b	52		 push	 edx
  0025c	69 45 b8 5c 04
	00 00		 imul	 eax, DWORD PTR tv174[ebp], 1116
  00263	8b 4d b4	 mov	 ecx, DWORD PTR tv181[ebp]
  00266	8b 94 88 00 00
	00 00		 mov	 edx, DWORD PTR ?fn_get_local_entity_int_value@@3PAY0BBH@P6GHPAUENTITY@@W4INT_TYPES@@@ZA[eax+ecx*4]
  0026d	ff d2		 call	 edx
  0026f	85 c0		 test	 eax, eax
  00271	0f 84 99 00 00
	00		 je	 $LN14@damage_sys

; 756  : 			{
; 757  : 				set_client_server_entity_int_value (get_gunship_entity (), INT_TYPE_RADAR_JAMMER_ON, FALSE);

  00277	83 3d 00 00 00
	00 00		 cmp	 DWORD PTR ?gunship_entity@@3PAUENTITY@@A, 0 ; gunship_entity
  0027e	74 0c		 je	 SHORT $LN75@damage_sys
  00280	a1 00 00 00 00	 mov	 eax, DWORD PTR ?gunship_entity@@3PAUENTITY@@A ; gunship_entity
  00285	8b 08		 mov	 ecx, DWORD PTR [eax]
  00287	89 4d b8	 mov	 DWORD PTR tv194[ebp], ecx
  0028a	eb 24		 jmp	 SHORT $LN76@damage_sys
$LN75@damage_sys:
  0028c	8b 15 00 00 00
	00		 mov	 edx, DWORD PTR ?__LINE__Var@?0??damage_systems@@YGXTCOMANCHE_DAMAGE_FLAGS@@@Z@4JA
  00292	81 c2 93 00 00
	00		 add	 edx, 147		; 00000093H
  00298	52		 push	 edx
  00299	68 00 00 00 00	 push	 OFFSET ??_C@_0FA@JPBKDNME@c?3?2users?2nhv90?2projects?2eech?2ap@
  0029e	a1 00 00 00 00	 mov	 eax, DWORD PTR ?null_entity_pointer_message@@3PBDB ; null_entity_pointer_message
  002a3	50		 push	 eax
  002a4	e8 00 00 00 00	 call	 ?process_assert@@YGXPBD0H@Z ; process_assert
  002a9	c7 45 b8 00 00
	00 00		 mov	 DWORD PTR tv194[ebp], 0
$LN76@damage_sys:
  002b0	b9 01 00 00 00	 mov	 ecx, 1
  002b5	85 c9		 test	 ecx, ecx
  002b7	74 09		 je	 SHORT $LN77@damage_sys
  002b9	c7 45 b4 a8 00
	00 00		 mov	 DWORD PTR tv202[ebp], 168 ; 000000a8H
  002c0	eb 24		 jmp	 SHORT $LN78@damage_sys
$LN77@damage_sys:
  002c2	8b 15 00 00 00
	00		 mov	 edx, DWORD PTR ?__LINE__Var@?0??damage_systems@@YGXTCOMANCHE_DAMAGE_FLAGS@@@Z@4JA
  002c8	81 c2 93 00 00
	00		 add	 edx, 147		; 00000093H
  002ce	52		 push	 edx
  002cf	68 00 00 00 00	 push	 OFFSET ??_C@_0FA@JPBKDNME@c?3?2users?2nhv90?2projects?2eech?2ap@
  002d4	a1 00 00 00 00	 mov	 eax, DWORD PTR ?overload_invalid_int_type_message@@3PBDB ; overload_invalid_int_type_message
  002d9	50		 push	 eax
  002da	e8 00 00 00 00	 call	 ?process_assert@@YGXPBD0H@Z ; process_assert
  002df	c7 45 b4 00 00
	00 00		 mov	 DWORD PTR tv202[ebp], 0
$LN78@damage_sys:
  002e6	6a 00		 push	 0
  002e8	68 a8 00 00 00	 push	 168			; 000000a8H
  002ed	8b 0d 00 00 00
	00		 mov	 ecx, DWORD PTR ?gunship_entity@@3PAUENTITY@@A ; gunship_entity
  002f3	51		 push	 ecx
  002f4	69 55 b8 b8 08
	00 00		 imul	 edx, DWORD PTR tv194[ebp], 2232
  002fb	8b 45 b4	 mov	 eax, DWORD PTR tv202[ebp]
  002fe	8d 8c c2 00 00
	00 00		 lea	 ecx, DWORD PTR ?fn_set_client_server_entity_int_value@@3PAY1BBH@1P6GXPAUENTITY@@W4INT_TYPES@@H@ZA[edx+eax*8]
  00305	8b 15 00 00 00
	00		 mov	 edx, DWORD PTR ?system_comms_model@@3W4COMMS_MODEL_TYPES@@A ; system_comms_model
  0030b	8b 04 91	 mov	 eax, DWORD PTR [ecx+edx*4]
  0030e	ff d0		 call	 eax
$LN14@damage_sys:

; 758  : 			}
; 759  : 		}
; 760  : 	}
; 761  : 
; 762  : 	////////////////////////////////////////
; 763  : 
; 764  : 	if (damage.infra_red_jammer)

  00310	8b 45 08	 mov	 eax, DWORD PTR _damage$[ebp]
  00313	c1 e8 06	 shr	 eax, 6
  00316	83 e0 01	 and	 eax, 1
  00319	0f 84 64 01 00
	00		 je	 $LN17@damage_sys

; 765  : 	{
; 766  : 		if (!comanche_damage.infra_red_jammer)

  0031f	a1 00 00 00 00	 mov	 eax, DWORD PTR ?comanche_damage@@3TCOMANCHE_DAMAGE_FLAGS@@A ; comanche_damage
  00324	c1 e8 06	 shr	 eax, 6
  00327	83 e0 01	 and	 eax, 1
  0032a	0f 85 53 01 00
	00		 jne	 $LN17@damage_sys

; 767  : 		{
; 768  : 			activate_comanche_master_caution ();

  00330	e8 00 00 00 00	 call	 ?activate_comanche_master_caution@@YGXXZ ; activate_comanche_master_caution

; 769  : 
; 770  : 			comanche_damage.infra_red_jammer = TRUE;

  00335	a1 00 00 00 00	 mov	 eax, DWORD PTR ?comanche_damage@@3TCOMANCHE_DAMAGE_FLAGS@@A ; comanche_damage
  0033a	83 c8 40	 or	 eax, 64			; 00000040H
  0033d	a3 00 00 00 00	 mov	 DWORD PTR ?comanche_damage@@3TCOMANCHE_DAMAGE_FLAGS@@A, eax ; comanche_damage

; 771  : 
; 772  : 			dynamics_damage_model (DYNAMICS_DAMAGE_AVIONICS, FALSE);

  00342	6a 00		 push	 0
  00344	68 00 10 00 00	 push	 4096			; 00001000H
  00349	e8 00 00 00 00	 call	 ?dynamics_damage_model@@YGXIH@Z ; dynamics_damage_model

; 773  : 
; 774  : 			set_comanche_text_display_text ("IR JAMMER", "FAILURE");

  0034e	68 00 00 00 00	 push	 OFFSET ??_C@_07DMOCMFND@FAILURE@
  00353	68 00 00 00 00	 push	 OFFSET ??_C@_09MILGCPFO@IR?5JAMMER@
  00358	e8 00 00 00 00	 call	 ?set_comanche_text_display_text@@YGXPAD0@Z ; set_comanche_text_display_text

; 775  : 
; 776  : 			play_client_server_warning_message (en, SPEECH_SYSTEM_IR_JAMMER_FAILURE);

  0035d	6a 09		 push	 9
  0035f	8b 45 fc	 mov	 eax, DWORD PTR _en$[ebp]
  00362	50		 push	 eax
  00363	e8 00 00 00 00	 call	 ?play_client_server_warning_message@@YGHPAUENTITY@@H@Z ; play_client_server_warning_message

; 777  : 
; 778  : 			if (get_local_entity_int_value (get_gunship_entity (), INT_TYPE_INFRA_RED_JAMMER_ON))

  00368	83 3d 00 00 00
	00 00		 cmp	 DWORD PTR ?gunship_entity@@3PAUENTITY@@A, 0 ; gunship_entity
  0036f	74 0c		 je	 SHORT $LN79@damage_sys
  00371	a1 00 00 00 00	 mov	 eax, DWORD PTR ?gunship_entity@@3PAUENTITY@@A ; gunship_entity
  00376	8b 08		 mov	 ecx, DWORD PTR [eax]
  00378	89 4d b8	 mov	 DWORD PTR tv228[ebp], ecx
  0037b	eb 1d		 jmp	 SHORT $LN80@damage_sys
$LN79@damage_sys:
  0037d	68 0a 03 00 00	 push	 778			; 0000030aH
  00382	68 00 00 00 00	 push	 OFFSET ??_C@_0FA@JPBKDNME@c?3?2users?2nhv90?2projects?2eech?2ap@
  00387	8b 15 00 00 00
	00		 mov	 edx, DWORD PTR ?null_entity_pointer_message@@3PBDB ; null_entity_pointer_message
  0038d	52		 push	 edx
  0038e	e8 00 00 00 00	 call	 ?process_assert@@YGXPBD0H@Z ; process_assert
  00393	c7 45 b8 00 00
	00 00		 mov	 DWORD PTR tv228[ebp], 0
$LN80@damage_sys:
  0039a	b8 01 00 00 00	 mov	 eax, 1
  0039f	85 c0		 test	 eax, eax
  003a1	74 09		 je	 SHORT $LN81@damage_sys
  003a3	c7 45 b4 68 00
	00 00		 mov	 DWORD PTR tv235[ebp], 104 ; 00000068H
  003aa	eb 1d		 jmp	 SHORT $LN82@damage_sys
$LN81@damage_sys:
  003ac	68 0a 03 00 00	 push	 778			; 0000030aH
  003b1	68 00 00 00 00	 push	 OFFSET ??_C@_0FA@JPBKDNME@c?3?2users?2nhv90?2projects?2eech?2ap@
  003b6	8b 0d 00 00 00
	00		 mov	 ecx, DWORD PTR ?overload_invalid_int_type_message@@3PBDB ; overload_invalid_int_type_message
  003bc	51		 push	 ecx
  003bd	e8 00 00 00 00	 call	 ?process_assert@@YGXPBD0H@Z ; process_assert
  003c2	c7 45 b4 00 00
	00 00		 mov	 DWORD PTR tv235[ebp], 0
$LN82@damage_sys:
  003c9	6a 68		 push	 104			; 00000068H
  003cb	8b 15 00 00 00
	00		 mov	 edx, DWORD PTR ?gunship_entity@@3PAUENTITY@@A ; gunship_entity
  003d1	52		 push	 edx
  003d2	69 45 b8 5c 04
	00 00		 imul	 eax, DWORD PTR tv228[ebp], 1116
  003d9	8b 4d b4	 mov	 ecx, DWORD PTR tv235[ebp]
  003dc	8b 94 88 00 00
	00 00		 mov	 edx, DWORD PTR ?fn_get_local_entity_int_value@@3PAY0BBH@P6GHPAUENTITY@@W4INT_TYPES@@@ZA[eax+ecx*4]
  003e3	ff d2		 call	 edx
  003e5	85 c0		 test	 eax, eax
  003e7	0f 84 96 00 00
	00		 je	 $LN17@damage_sys

; 779  : 			{
; 780  : 				set_client_server_entity_int_value (get_gunship_entity (), INT_TYPE_INFRA_RED_JAMMER_ON, FALSE);

  003ed	83 3d 00 00 00
	00 00		 cmp	 DWORD PTR ?gunship_entity@@3PAUENTITY@@A, 0 ; gunship_entity
  003f4	74 0c		 je	 SHORT $LN83@damage_sys
  003f6	a1 00 00 00 00	 mov	 eax, DWORD PTR ?gunship_entity@@3PAUENTITY@@A ; gunship_entity
  003fb	8b 08		 mov	 ecx, DWORD PTR [eax]
  003fd	89 4d b8	 mov	 DWORD PTR tv248[ebp], ecx
  00400	eb 24		 jmp	 SHORT $LN84@damage_sys
$LN83@damage_sys:
  00402	8b 15 00 00 00
	00		 mov	 edx, DWORD PTR ?__LINE__Var@?0??damage_systems@@YGXTCOMANCHE_DAMAGE_FLAGS@@@Z@4JA
  00408	81 c2 aa 00 00
	00		 add	 edx, 170		; 000000aaH
  0040e	52		 push	 edx
  0040f	68 00 00 00 00	 push	 OFFSET ??_C@_0FA@JPBKDNME@c?3?2users?2nhv90?2projects?2eech?2ap@
  00414	a1 00 00 00 00	 mov	 eax, DWORD PTR ?null_entity_pointer_message@@3PBDB ; null_entity_pointer_message
  00419	50		 push	 eax
  0041a	e8 00 00 00 00	 call	 ?process_assert@@YGXPBD0H@Z ; process_assert
  0041f	c7 45 b8 00 00
	00 00		 mov	 DWORD PTR tv248[ebp], 0
$LN84@damage_sys:
  00426	b9 01 00 00 00	 mov	 ecx, 1
  0042b	85 c9		 test	 ecx, ecx
  0042d	74 09		 je	 SHORT $LN85@damage_sys
  0042f	c7 45 b4 68 00
	00 00		 mov	 DWORD PTR tv256[ebp], 104 ; 00000068H
  00436	eb 24		 jmp	 SHORT $LN86@damage_sys
$LN85@damage_sys:
  00438	8b 15 00 00 00
	00		 mov	 edx, DWORD PTR ?__LINE__Var@?0??damage_systems@@YGXTCOMANCHE_DAMAGE_FLAGS@@@Z@4JA
  0043e	81 c2 aa 00 00
	00		 add	 edx, 170		; 000000aaH
  00444	52		 push	 edx
  00445	68 00 00 00 00	 push	 OFFSET ??_C@_0FA@JPBKDNME@c?3?2users?2nhv90?2projects?2eech?2ap@
  0044a	a1 00 00 00 00	 mov	 eax, DWORD PTR ?overload_invalid_int_type_message@@3PBDB ; overload_invalid_int_type_message
  0044f	50		 push	 eax
  00450	e8 00 00 00 00	 call	 ?process_assert@@YGXPBD0H@Z ; process_assert
  00455	c7 45 b4 00 00
	00 00		 mov	 DWORD PTR tv256[ebp], 0
$LN86@damage_sys:
  0045c	6a 00		 push	 0
  0045e	6a 68		 push	 104			; 00000068H
  00460	8b 0d 00 00 00
	00		 mov	 ecx, DWORD PTR ?gunship_entity@@3PAUENTITY@@A ; gunship_entity
  00466	51		 push	 ecx
  00467	69 55 b8 b8 08
	00 00		 imul	 edx, DWORD PTR tv248[ebp], 2232
  0046e	8b 45 b4	 mov	 eax, DWORD PTR tv256[ebp]
  00471	8d 8c c2 00 00
	00 00		 lea	 ecx, DWORD PTR ?fn_set_client_server_entity_int_value@@3PAY1BBH@1P6GXPAUENTITY@@W4INT_TYPES@@H@ZA[edx+eax*8]
  00478	8b 15 00 00 00
	00		 mov	 edx, DWORD PTR ?system_comms_model@@3W4COMMS_MODEL_TYPES@@A ; system_comms_model
  0047e	8b 04 91	 mov	 eax, DWORD PTR [ecx+edx*4]
  00481	ff d0		 call	 eax
$LN17@damage_sys:

; 781  : 			}
; 782  : 		}
; 783  : 	}
; 784  : 
; 785  : 	////////////////////////////////////////
; 786  : 
; 787  : 	if (damage.navigation_computer)

  00483	8b 45 08	 mov	 eax, DWORD PTR _damage$[ebp]
  00486	c1 e8 07	 shr	 eax, 7
  00489	83 e0 01	 and	 eax, 1
  0048c	74 47		 je	 SHORT $LN20@damage_sys

; 788  : 	{
; 789  : 		if (!comanche_damage.navigation_computer)

  0048e	a1 00 00 00 00	 mov	 eax, DWORD PTR ?comanche_damage@@3TCOMANCHE_DAMAGE_FLAGS@@A ; comanche_damage
  00493	c1 e8 07	 shr	 eax, 7
  00496	83 e0 01	 and	 eax, 1
  00499	75 3a		 jne	 SHORT $LN20@damage_sys

; 790  : 		{
; 791  : 			activate_comanche_master_caution ();

  0049b	e8 00 00 00 00	 call	 ?activate_comanche_master_caution@@YGXXZ ; activate_comanche_master_caution

; 792  : 
; 793  : 			comanche_damage.navigation_computer = TRUE;

  004a0	a1 00 00 00 00	 mov	 eax, DWORD PTR ?comanche_damage@@3TCOMANCHE_DAMAGE_FLAGS@@A ; comanche_damage
  004a5	0d 80 00 00 00	 or	 eax, 128		; 00000080H
  004aa	a3 00 00 00 00	 mov	 DWORD PTR ?comanche_damage@@3TCOMANCHE_DAMAGE_FLAGS@@A, eax ; comanche_damage

; 794  : 
; 795  : 			dynamics_damage_model (DYNAMICS_DAMAGE_AVIONICS, FALSE);

  004af	6a 00		 push	 0
  004b1	68 00 10 00 00	 push	 4096			; 00001000H
  004b6	e8 00 00 00 00	 call	 ?dynamics_damage_model@@YGXIH@Z ; dynamics_damage_model

; 796  : 
; 797  : 			set_comanche_text_display_text ("NAV COMPUTER", "FAILURE");

  004bb	68 00 00 00 00	 push	 OFFSET ??_C@_07DMOCMFND@FAILURE@
  004c0	68 00 00 00 00	 push	 OFFSET ??_C@_0N@LHMAJADA@NAV?5COMPUTER@
  004c5	e8 00 00 00 00	 call	 ?set_comanche_text_display_text@@YGXPAD0@Z ; set_comanche_text_display_text

; 798  : 
; 799  : 			play_client_server_warning_message (en, SPEECH_SYSTEM_NAV_COMPUTER_FAILURE);

  004ca	6a 0a		 push	 10			; 0000000aH
  004cc	8b 45 fc	 mov	 eax, DWORD PTR _en$[ebp]
  004cf	50		 push	 eax
  004d0	e8 00 00 00 00	 call	 ?play_client_server_warning_message@@YGHPAUENTITY@@H@Z ; play_client_server_warning_message
$LN20@damage_sys:

; 800  : 		}
; 801  : 	}
; 802  : 
; 803  : 	////////////////////////////////////////
; 804  : 
; 805  : 	if (damage.communications)

  004d5	8b 45 08	 mov	 eax, DWORD PTR _damage$[ebp]
  004d8	c1 e8 08	 shr	 eax, 8
  004db	83 e0 01	 and	 eax, 1
  004de	74 47		 je	 SHORT $LN22@damage_sys

; 806  : 	{
; 807  : 		if (!comanche_damage.communications)

  004e0	a1 00 00 00 00	 mov	 eax, DWORD PTR ?comanche_damage@@3TCOMANCHE_DAMAGE_FLAGS@@A ; comanche_damage
  004e5	c1 e8 08	 shr	 eax, 8
  004e8	83 e0 01	 and	 eax, 1
  004eb	75 3a		 jne	 SHORT $LN22@damage_sys

; 808  : 		{
; 809  : 			activate_comanche_master_caution ();

  004ed	e8 00 00 00 00	 call	 ?activate_comanche_master_caution@@YGXXZ ; activate_comanche_master_caution

; 810  : 
; 811  : 			comanche_damage.communications = TRUE;

  004f2	a1 00 00 00 00	 mov	 eax, DWORD PTR ?comanche_damage@@3TCOMANCHE_DAMAGE_FLAGS@@A ; comanche_damage
  004f7	0d 00 01 00 00	 or	 eax, 256		; 00000100H
  004fc	a3 00 00 00 00	 mov	 DWORD PTR ?comanche_damage@@3TCOMANCHE_DAMAGE_FLAGS@@A, eax ; comanche_damage

; 812  : 
; 813  : 			dynamics_damage_model (DYNAMICS_DAMAGE_AVIONICS, FALSE);

  00501	6a 00		 push	 0
  00503	68 00 10 00 00	 push	 4096			; 00001000H
  00508	e8 00 00 00 00	 call	 ?dynamics_damage_model@@YGXIH@Z ; dynamics_damage_model

; 814  : 
; 815  : 			set_comanche_text_display_text ("COMMS FAILURE", "");

  0050d	68 00 00 00 00	 push	 OFFSET ??_C@_00CNPNBAHC@@
  00512	68 00 00 00 00	 push	 OFFSET ??_C@_0O@EMJMKINH@COMMS?5FAILURE@
  00517	e8 00 00 00 00	 call	 ?set_comanche_text_display_text@@YGXPAD0@Z ; set_comanche_text_display_text

; 816  : 
; 817  : 			play_client_server_warning_message (en, SPEECH_SYSTEM_COMMS_FAILURE);

  0051c	6a 0b		 push	 11			; 0000000bH
  0051e	8b 45 fc	 mov	 eax, DWORD PTR _en$[ebp]
  00521	50		 push	 eax
  00522	e8 00 00 00 00	 call	 ?play_client_server_warning_message@@YGHPAUENTITY@@H@Z ; play_client_server_warning_message
$LN22@damage_sys:

; 818  : 		}
; 819  : 	}
; 820  : 
; 821  : 	////////////////////////////////////////
; 822  : 
; 823  : 	if (damage.radar_warning_system)

  00527	8b 45 08	 mov	 eax, DWORD PTR _damage$[ebp]
  0052a	c1 e8 09	 shr	 eax, 9
  0052d	83 e0 01	 and	 eax, 1
  00530	74 47		 je	 SHORT $LN24@damage_sys

; 824  : 	{
; 825  : 		if (!comanche_damage.radar_warning_system)

  00532	a1 00 00 00 00	 mov	 eax, DWORD PTR ?comanche_damage@@3TCOMANCHE_DAMAGE_FLAGS@@A ; comanche_damage
  00537	c1 e8 09	 shr	 eax, 9
  0053a	83 e0 01	 and	 eax, 1
  0053d	75 3a		 jne	 SHORT $LN24@damage_sys

; 826  : 		{
; 827  : 			activate_comanche_master_caution ();

  0053f	e8 00 00 00 00	 call	 ?activate_comanche_master_caution@@YGXXZ ; activate_comanche_master_caution

; 828  : 
; 829  : 			comanche_damage.radar_warning_system = TRUE;

  00544	a1 00 00 00 00	 mov	 eax, DWORD PTR ?comanche_damage@@3TCOMANCHE_DAMAGE_FLAGS@@A ; comanche_damage
  00549	0d 00 02 00 00	 or	 eax, 512		; 00000200H
  0054e	a3 00 00 00 00	 mov	 DWORD PTR ?comanche_damage@@3TCOMANCHE_DAMAGE_FLAGS@@A, eax ; comanche_damage

; 830  : 
; 831  : 			dynamics_damage_model (DYNAMICS_DAMAGE_AVIONICS, FALSE);

  00553	6a 00		 push	 0
  00555	68 00 10 00 00	 push	 4096			; 00001000H
  0055a	e8 00 00 00 00	 call	 ?dynamics_damage_model@@YGXIH@Z ; dynamics_damage_model

; 832  : 
; 833  : 			set_comanche_text_display_text ("RADAR WARNING", "FAILURE");

  0055f	68 00 00 00 00	 push	 OFFSET ??_C@_07DMOCMFND@FAILURE@
  00564	68 00 00 00 00	 push	 OFFSET ??_C@_0O@KLLDPKCJ@RADAR?5WARNING@
  00569	e8 00 00 00 00	 call	 ?set_comanche_text_display_text@@YGXPAD0@Z ; set_comanche_text_display_text

; 834  : 
; 835  : 			play_client_server_warning_message (en, SPEECH_SYSTEM_RADAR_WARNING_FAILURE);

  0056e	6a 0c		 push	 12			; 0000000cH
  00570	8b 45 fc	 mov	 eax, DWORD PTR _en$[ebp]
  00573	50		 push	 eax
  00574	e8 00 00 00 00	 call	 ?play_client_server_warning_message@@YGHPAUENTITY@@H@Z ; play_client_server_warning_message
$LN24@damage_sys:

; 836  : 		}
; 837  : 	}
; 838  : 
; 839  : 	////////////////////////////////////////
; 840  : 
; 841  : 	if (!get_global_simple_avionics ())

  00579	83 3d 6c 03 00
	00 00		 cmp	 DWORD PTR ?global_options@@3UGLOBAL_OPTIONS_DATA@@A+876, 0
  00580	75 62		 jne	 SHORT $LN26@damage_sys

; 842  : 	{
; 843  : 		if (damage.hidss)

  00582	8b 45 08	 mov	 eax, DWORD PTR _damage$[ebp]
  00585	c1 e8 0a	 shr	 eax, 10			; 0000000aH
  00588	83 e0 01	 and	 eax, 1
  0058b	74 57		 je	 SHORT $LN26@damage_sys

; 844  : 		{
; 845  : 			if (!comanche_damage.hidss)

  0058d	a1 00 00 00 00	 mov	 eax, DWORD PTR ?comanche_damage@@3TCOMANCHE_DAMAGE_FLAGS@@A ; comanche_damage
  00592	c1 e8 0a	 shr	 eax, 10			; 0000000aH
  00595	83 e0 01	 and	 eax, 1
  00598	75 4a		 jne	 SHORT $LN26@damage_sys

; 846  : 			{
; 847  : 				activate_comanche_master_caution ();

  0059a	e8 00 00 00 00	 call	 ?activate_comanche_master_caution@@YGXXZ ; activate_comanche_master_caution

; 848  : 
; 849  : 				comanche_damage.hidss = TRUE;

  0059f	a1 00 00 00 00	 mov	 eax, DWORD PTR ?comanche_damage@@3TCOMANCHE_DAMAGE_FLAGS@@A ; comanche_damage
  005a4	0d 00 04 00 00	 or	 eax, 1024		; 00000400H
  005a9	a3 00 00 00 00	 mov	 DWORD PTR ?comanche_damage@@3TCOMANCHE_DAMAGE_FLAGS@@A, eax ; comanche_damage

; 850  : 
; 851  : 				dynamics_damage_model (DYNAMICS_DAMAGE_AVIONICS, FALSE);

  005ae	6a 00		 push	 0
  005b0	68 00 10 00 00	 push	 4096			; 00001000H
  005b5	e8 00 00 00 00	 call	 ?dynamics_damage_model@@YGXIH@Z ; dynamics_damage_model

; 852  : 
; 853  : 				set_comanche_text_display_text ("HIDSS FAILURE", "");

  005ba	68 00 00 00 00	 push	 OFFSET ??_C@_00CNPNBAHC@@
  005bf	68 00 00 00 00	 push	 OFFSET ??_C@_0O@MCGIJJLL@HIDSS?5FAILURE@
  005c4	e8 00 00 00 00	 call	 ?set_comanche_text_display_text@@YGXPAD0@Z ; set_comanche_text_display_text

; 854  : 
; 855  : 				play_client_server_warning_message (en, SPEECH_SYSTEM_HIDSS_FAILURE);

  005c9	6a 0e		 push	 14			; 0000000eH
  005cb	8b 45 fc	 mov	 eax, DWORD PTR _en$[ebp]
  005ce	50		 push	 eax
  005cf	e8 00 00 00 00	 call	 ?play_client_server_warning_message@@YGHPAUENTITY@@H@Z ; play_client_server_warning_message

; 856  : 
; 857  : 				if (target_acquisition_system == TARGET_ACQUISITION_SYSTEM_HIDSS)

  005d4	83 3d 00 00 00
	00 09		 cmp	 DWORD PTR ?target_acquisition_system@@3W4TARGET_ACQUISITION_SYSTEMS@@A, 9 ; target_acquisition_system
  005db	75 07		 jne	 SHORT $LN26@damage_sys

; 858  : 				{
; 859  : 					select_comanche_target_acquisition_system (TARGET_ACQUISITION_SYSTEM_OFF);

  005dd	6a 00		 push	 0
  005df	e8 00 00 00 00	 call	 ?select_comanche_target_acquisition_system@@YGXW4TARGET_ACQUISITION_SYSTEMS@@@Z ; select_comanche_target_acquisition_system
$LN26@damage_sys:

; 860  : 				}
; 861  : 			}
; 862  : 		}
; 863  : 	}
; 864  : 
; 865  : 	////////////////////////////////////////
; 866  : 
; 867  : 	if (damage.pilot_lh_main_mfd)

  005e4	8b 45 08	 mov	 eax, DWORD PTR _damage$[ebp]
  005e7	c1 e8 0c	 shr	 eax, 12			; 0000000cH
  005ea	83 e0 01	 and	 eax, 1
  005ed	74 50		 je	 SHORT $LN30@damage_sys

; 868  : 	{
; 869  : 		if (!comanche_damage.pilot_lh_main_mfd)

  005ef	a1 00 00 00 00	 mov	 eax, DWORD PTR ?comanche_damage@@3TCOMANCHE_DAMAGE_FLAGS@@A ; comanche_damage
  005f4	c1 e8 0c	 shr	 eax, 12			; 0000000cH
  005f7	83 e0 01	 and	 eax, 1
  005fa	75 43		 jne	 SHORT $LN30@damage_sys

; 870  : 		{
; 871  : 			activate_comanche_master_caution ();

  005fc	e8 00 00 00 00	 call	 ?activate_comanche_master_caution@@YGXXZ ; activate_comanche_master_caution

; 872  : 
; 873  : 			comanche_damage.pilot_lh_main_mfd = TRUE;

  00601	a1 00 00 00 00	 mov	 eax, DWORD PTR ?comanche_damage@@3TCOMANCHE_DAMAGE_FLAGS@@A ; comanche_damage
  00606	0d 00 10 00 00	 or	 eax, 4096		; 00001000H
  0060b	a3 00 00 00 00	 mov	 DWORD PTR ?comanche_damage@@3TCOMANCHE_DAMAGE_FLAGS@@A, eax ; comanche_damage

; 874  : 
; 875  : 			dynamics_damage_model (DYNAMICS_DAMAGE_AVIONICS, FALSE);

  00610	6a 00		 push	 0
  00612	68 00 10 00 00	 push	 4096			; 00001000H
  00617	e8 00 00 00 00	 call	 ?dynamics_damage_model@@YGXIH@Z ; dynamics_damage_model

; 876  : 
; 877  : 			set_comanche_text_display_text ("MFD FAILURE", "");

  0061c	68 00 00 00 00	 push	 OFFSET ??_C@_00CNPNBAHC@@
  00621	68 00 00 00 00	 push	 OFFSET ??_C@_0M@KHIEJMBO@MFD?5FAILURE@
  00626	e8 00 00 00 00	 call	 ?set_comanche_text_display_text@@YGXPAD0@Z ; set_comanche_text_display_text

; 878  : 
; 879  : 			play_client_server_warning_message (en, SPEECH_SYSTEM_MFD_FAILURE);

  0062b	6a 11		 push	 17			; 00000011H
  0062d	8b 45 fc	 mov	 eax, DWORD PTR _en$[ebp]
  00630	50		 push	 eax
  00631	e8 00 00 00 00	 call	 ?play_client_server_warning_message@@YGHPAUENTITY@@H@Z ; play_client_server_warning_message

; 880  : 
; 881  : 			select_comanche_main_mfd_mode (COMANCHE_MAIN_MFD_MODE_DAMAGED, COMANCHE_MAIN_MFD_LOCATION_PILOT_LHS);

  00636	6a 00		 push	 0
  00638	6a 01		 push	 1
  0063a	e8 00 00 00 00	 call	 ?select_comanche_main_mfd_mode@@YGXW4COMANCHE_MAIN_MFD_MODES@@W4COMANCHE_MAIN_MFD_LOCATIONS@@@Z ; select_comanche_main_mfd_mode
$LN30@damage_sys:

; 882  : 		}
; 883  : 	}
; 884  : 
; 885  : 	////////////////////////////////////////
; 886  : 
; 887  : 	if (damage.pilot_rh_main_mfd)

  0063f	8b 45 08	 mov	 eax, DWORD PTR _damage$[ebp]
  00642	c1 e8 0d	 shr	 eax, 13			; 0000000dH
  00645	83 e0 01	 and	 eax, 1
  00648	74 50		 je	 SHORT $LN32@damage_sys

; 888  : 	{
; 889  : 		if (!comanche_damage.pilot_rh_main_mfd)

  0064a	a1 00 00 00 00	 mov	 eax, DWORD PTR ?comanche_damage@@3TCOMANCHE_DAMAGE_FLAGS@@A ; comanche_damage
  0064f	c1 e8 0d	 shr	 eax, 13			; 0000000dH
  00652	83 e0 01	 and	 eax, 1
  00655	75 43		 jne	 SHORT $LN32@damage_sys

; 890  : 		{
; 891  : 			activate_comanche_master_caution ();

  00657	e8 00 00 00 00	 call	 ?activate_comanche_master_caution@@YGXXZ ; activate_comanche_master_caution

; 892  : 
; 893  : 			comanche_damage.pilot_rh_main_mfd = TRUE;

  0065c	a1 00 00 00 00	 mov	 eax, DWORD PTR ?comanche_damage@@3TCOMANCHE_DAMAGE_FLAGS@@A ; comanche_damage
  00661	0d 00 20 00 00	 or	 eax, 8192		; 00002000H
  00666	a3 00 00 00 00	 mov	 DWORD PTR ?comanche_damage@@3TCOMANCHE_DAMAGE_FLAGS@@A, eax ; comanche_damage

; 894  : 
; 895  : 			dynamics_damage_model (DYNAMICS_DAMAGE_AVIONICS, FALSE);

  0066b	6a 00		 push	 0
  0066d	68 00 10 00 00	 push	 4096			; 00001000H
  00672	e8 00 00 00 00	 call	 ?dynamics_damage_model@@YGXIH@Z ; dynamics_damage_model

; 896  : 
; 897  : 			set_comanche_text_display_text ("MFD FAILURE", "");

  00677	68 00 00 00 00	 push	 OFFSET ??_C@_00CNPNBAHC@@
  0067c	68 00 00 00 00	 push	 OFFSET ??_C@_0M@KHIEJMBO@MFD?5FAILURE@
  00681	e8 00 00 00 00	 call	 ?set_comanche_text_display_text@@YGXPAD0@Z ; set_comanche_text_display_text

; 898  : 
; 899  : 			play_client_server_warning_message (en, SPEECH_SYSTEM_MFD_FAILURE);

  00686	6a 11		 push	 17			; 00000011H
  00688	8b 45 fc	 mov	 eax, DWORD PTR _en$[ebp]
  0068b	50		 push	 eax
  0068c	e8 00 00 00 00	 call	 ?play_client_server_warning_message@@YGHPAUENTITY@@H@Z ; play_client_server_warning_message

; 900  : 
; 901  : 			select_comanche_main_mfd_mode (COMANCHE_MAIN_MFD_MODE_DAMAGED, COMANCHE_MAIN_MFD_LOCATION_PILOT_RHS);

  00691	6a 01		 push	 1
  00693	6a 01		 push	 1
  00695	e8 00 00 00 00	 call	 ?select_comanche_main_mfd_mode@@YGXW4COMANCHE_MAIN_MFD_MODES@@W4COMANCHE_MAIN_MFD_LOCATIONS@@@Z ; select_comanche_main_mfd_mode
$LN32@damage_sys:

; 902  : 		}
; 903  : 	}
; 904  : 
; 905  : 	////////////////////////////////////////
; 906  : 
; 907  : 	if (damage.pilot_lh_side_mfd)

  0069a	8b 45 08	 mov	 eax, DWORD PTR _damage$[ebp]
  0069d	c1 e8 0e	 shr	 eax, 14			; 0000000eH
  006a0	83 e0 01	 and	 eax, 1
  006a3	74 50		 je	 SHORT $LN34@damage_sys

; 908  : 	{
; 909  : 		if (!comanche_damage.pilot_lh_side_mfd)

  006a5	a1 00 00 00 00	 mov	 eax, DWORD PTR ?comanche_damage@@3TCOMANCHE_DAMAGE_FLAGS@@A ; comanche_damage
  006aa	c1 e8 0e	 shr	 eax, 14			; 0000000eH
  006ad	83 e0 01	 and	 eax, 1
  006b0	75 43		 jne	 SHORT $LN34@damage_sys

; 910  : 		{
; 911  : 			activate_comanche_master_caution ();

  006b2	e8 00 00 00 00	 call	 ?activate_comanche_master_caution@@YGXXZ ; activate_comanche_master_caution

; 912  : 
; 913  : 			comanche_damage.pilot_lh_side_mfd = TRUE;

  006b7	a1 00 00 00 00	 mov	 eax, DWORD PTR ?comanche_damage@@3TCOMANCHE_DAMAGE_FLAGS@@A ; comanche_damage
  006bc	0d 00 40 00 00	 or	 eax, 16384		; 00004000H
  006c1	a3 00 00 00 00	 mov	 DWORD PTR ?comanche_damage@@3TCOMANCHE_DAMAGE_FLAGS@@A, eax ; comanche_damage

; 914  : 
; 915  : 			dynamics_damage_model (DYNAMICS_DAMAGE_AVIONICS, FALSE);

  006c6	6a 00		 push	 0
  006c8	68 00 10 00 00	 push	 4096			; 00001000H
  006cd	e8 00 00 00 00	 call	 ?dynamics_damage_model@@YGXIH@Z ; dynamics_damage_model

; 916  : 
; 917  : 			set_comanche_text_display_text ("MFD FAILURE", "");

  006d2	68 00 00 00 00	 push	 OFFSET ??_C@_00CNPNBAHC@@
  006d7	68 00 00 00 00	 push	 OFFSET ??_C@_0M@KHIEJMBO@MFD?5FAILURE@
  006dc	e8 00 00 00 00	 call	 ?set_comanche_text_display_text@@YGXPAD0@Z ; set_comanche_text_display_text

; 918  : 
; 919  : 			play_client_server_warning_message (en, SPEECH_SYSTEM_MFD_FAILURE);

  006e1	6a 11		 push	 17			; 00000011H
  006e3	8b 45 fc	 mov	 eax, DWORD PTR _en$[ebp]
  006e6	50		 push	 eax
  006e7	e8 00 00 00 00	 call	 ?play_client_server_warning_message@@YGHPAUENTITY@@H@Z ; play_client_server_warning_message

; 920  : 
; 921  : 			select_comanche_side_mfd_mode (COMANCHE_SIDE_MFD_MODE_DAMAGED, COMANCHE_SIDE_MFD_LOCATION_PILOT_LHS);

  006ec	6a 00		 push	 0
  006ee	6a 01		 push	 1
  006f0	e8 00 00 00 00	 call	 ?select_comanche_side_mfd_mode@@YGXW4COMANCHE_SIDE_MFD_MODES@@W4COMANCHE_SIDE_MFD_LOCATIONS@@@Z ; select_comanche_side_mfd_mode
$LN34@damage_sys:

; 922  : 		}
; 923  : 	}
; 924  : 
; 925  : 	////////////////////////////////////////
; 926  : 
; 927  : 	if (damage.pilot_rh_side_mfd)

  006f5	8b 45 08	 mov	 eax, DWORD PTR _damage$[ebp]
  006f8	c1 e8 0f	 shr	 eax, 15			; 0000000fH
  006fb	83 e0 01	 and	 eax, 1
  006fe	74 50		 je	 SHORT $LN36@damage_sys

; 928  : 	{
; 929  : 		if (!comanche_damage.pilot_rh_side_mfd)

  00700	a1 00 00 00 00	 mov	 eax, DWORD PTR ?comanche_damage@@3TCOMANCHE_DAMAGE_FLAGS@@A ; comanche_damage
  00705	c1 e8 0f	 shr	 eax, 15			; 0000000fH
  00708	83 e0 01	 and	 eax, 1
  0070b	75 43		 jne	 SHORT $LN36@damage_sys

; 930  : 		{
; 931  : 			activate_comanche_master_caution ();

  0070d	e8 00 00 00 00	 call	 ?activate_comanche_master_caution@@YGXXZ ; activate_comanche_master_caution

; 932  : 
; 933  : 			comanche_damage.pilot_rh_side_mfd = TRUE;

  00712	a1 00 00 00 00	 mov	 eax, DWORD PTR ?comanche_damage@@3TCOMANCHE_DAMAGE_FLAGS@@A ; comanche_damage
  00717	0d 00 80 00 00	 or	 eax, 32768		; 00008000H
  0071c	a3 00 00 00 00	 mov	 DWORD PTR ?comanche_damage@@3TCOMANCHE_DAMAGE_FLAGS@@A, eax ; comanche_damage

; 934  : 
; 935  : 			dynamics_damage_model (DYNAMICS_DAMAGE_AVIONICS, FALSE);

  00721	6a 00		 push	 0
  00723	68 00 10 00 00	 push	 4096			; 00001000H
  00728	e8 00 00 00 00	 call	 ?dynamics_damage_model@@YGXIH@Z ; dynamics_damage_model

; 936  : 
; 937  : 			set_comanche_text_display_text ("MFD FAILURE", "");

  0072d	68 00 00 00 00	 push	 OFFSET ??_C@_00CNPNBAHC@@
  00732	68 00 00 00 00	 push	 OFFSET ??_C@_0M@KHIEJMBO@MFD?5FAILURE@
  00737	e8 00 00 00 00	 call	 ?set_comanche_text_display_text@@YGXPAD0@Z ; set_comanche_text_display_text

; 938  : 
; 939  : 			play_client_server_warning_message (en, SPEECH_SYSTEM_MFD_FAILURE);

  0073c	6a 11		 push	 17			; 00000011H
  0073e	8b 45 fc	 mov	 eax, DWORD PTR _en$[ebp]
  00741	50		 push	 eax
  00742	e8 00 00 00 00	 call	 ?play_client_server_warning_message@@YGHPAUENTITY@@H@Z ; play_client_server_warning_message

; 940  : 
; 941  : 			select_comanche_side_mfd_mode (COMANCHE_SIDE_MFD_MODE_DAMAGED, COMANCHE_SIDE_MFD_LOCATION_PILOT_RHS);

  00747	6a 01		 push	 1
  00749	6a 01		 push	 1
  0074b	e8 00 00 00 00	 call	 ?select_comanche_side_mfd_mode@@YGXW4COMANCHE_SIDE_MFD_MODES@@W4COMANCHE_SIDE_MFD_LOCATIONS@@@Z ; select_comanche_side_mfd_mode
$LN36@damage_sys:

; 942  : 		}
; 943  : 	}
; 944  : 
; 945  : 	////////////////////////////////////////
; 946  : 
; 947  : 	if (damage.co_pilot_lh_main_mfd)

  00750	8b 45 08	 mov	 eax, DWORD PTR _damage$[ebp]
  00753	c1 e8 10	 shr	 eax, 16			; 00000010H
  00756	83 e0 01	 and	 eax, 1
  00759	74 50		 je	 SHORT $LN38@damage_sys

; 948  : 	{
; 949  : 		if (!comanche_damage.co_pilot_lh_main_mfd)

  0075b	a1 00 00 00 00	 mov	 eax, DWORD PTR ?comanche_damage@@3TCOMANCHE_DAMAGE_FLAGS@@A ; comanche_damage
  00760	c1 e8 10	 shr	 eax, 16			; 00000010H
  00763	83 e0 01	 and	 eax, 1
  00766	75 43		 jne	 SHORT $LN38@damage_sys

; 950  : 		{
; 951  : 			activate_comanche_master_caution ();

  00768	e8 00 00 00 00	 call	 ?activate_comanche_master_caution@@YGXXZ ; activate_comanche_master_caution

; 952  : 
; 953  : 			comanche_damage.co_pilot_lh_main_mfd = TRUE;

  0076d	a1 00 00 00 00	 mov	 eax, DWORD PTR ?comanche_damage@@3TCOMANCHE_DAMAGE_FLAGS@@A ; comanche_damage
  00772	0d 00 00 01 00	 or	 eax, 65536		; 00010000H
  00777	a3 00 00 00 00	 mov	 DWORD PTR ?comanche_damage@@3TCOMANCHE_DAMAGE_FLAGS@@A, eax ; comanche_damage

; 954  : 
; 955  : 			dynamics_damage_model (DYNAMICS_DAMAGE_AVIONICS, FALSE);

  0077c	6a 00		 push	 0
  0077e	68 00 10 00 00	 push	 4096			; 00001000H
  00783	e8 00 00 00 00	 call	 ?dynamics_damage_model@@YGXIH@Z ; dynamics_damage_model

; 956  : 
; 957  : 			set_comanche_text_display_text ("MFD FAILURE", "");

  00788	68 00 00 00 00	 push	 OFFSET ??_C@_00CNPNBAHC@@
  0078d	68 00 00 00 00	 push	 OFFSET ??_C@_0M@KHIEJMBO@MFD?5FAILURE@
  00792	e8 00 00 00 00	 call	 ?set_comanche_text_display_text@@YGXPAD0@Z ; set_comanche_text_display_text

; 958  : 
; 959  : 			play_client_server_warning_message (en, SPEECH_SYSTEM_MFD_FAILURE);

  00797	6a 11		 push	 17			; 00000011H
  00799	8b 45 fc	 mov	 eax, DWORD PTR _en$[ebp]
  0079c	50		 push	 eax
  0079d	e8 00 00 00 00	 call	 ?play_client_server_warning_message@@YGHPAUENTITY@@H@Z ; play_client_server_warning_message

; 960  : 
; 961  : 			select_comanche_main_mfd_mode (COMANCHE_MAIN_MFD_MODE_DAMAGED, COMANCHE_MAIN_MFD_LOCATION_CO_PILOT_LHS);

  007a2	6a 02		 push	 2
  007a4	6a 01		 push	 1
  007a6	e8 00 00 00 00	 call	 ?select_comanche_main_mfd_mode@@YGXW4COMANCHE_MAIN_MFD_MODES@@W4COMANCHE_MAIN_MFD_LOCATIONS@@@Z ; select_comanche_main_mfd_mode
$LN38@damage_sys:

; 962  : 		}
; 963  : 	}
; 964  : 
; 965  : 	////////////////////////////////////////
; 966  : 
; 967  : 	if (damage.co_pilot_rh_main_mfd)

  007ab	8b 45 08	 mov	 eax, DWORD PTR _damage$[ebp]
  007ae	c1 e8 11	 shr	 eax, 17			; 00000011H
  007b1	83 e0 01	 and	 eax, 1
  007b4	74 50		 je	 SHORT $LN40@damage_sys

; 968  : 	{
; 969  : 		if (!comanche_damage.co_pilot_rh_main_mfd)

  007b6	a1 00 00 00 00	 mov	 eax, DWORD PTR ?comanche_damage@@3TCOMANCHE_DAMAGE_FLAGS@@A ; comanche_damage
  007bb	c1 e8 11	 shr	 eax, 17			; 00000011H
  007be	83 e0 01	 and	 eax, 1
  007c1	75 43		 jne	 SHORT $LN40@damage_sys

; 970  : 		{
; 971  : 			activate_comanche_master_caution ();

  007c3	e8 00 00 00 00	 call	 ?activate_comanche_master_caution@@YGXXZ ; activate_comanche_master_caution

; 972  : 
; 973  : 			comanche_damage.co_pilot_rh_main_mfd = TRUE;

  007c8	a1 00 00 00 00	 mov	 eax, DWORD PTR ?comanche_damage@@3TCOMANCHE_DAMAGE_FLAGS@@A ; comanche_damage
  007cd	0d 00 00 02 00	 or	 eax, 131072		; 00020000H
  007d2	a3 00 00 00 00	 mov	 DWORD PTR ?comanche_damage@@3TCOMANCHE_DAMAGE_FLAGS@@A, eax ; comanche_damage

; 974  : 
; 975  : 			dynamics_damage_model (DYNAMICS_DAMAGE_AVIONICS, FALSE);

  007d7	6a 00		 push	 0
  007d9	68 00 10 00 00	 push	 4096			; 00001000H
  007de	e8 00 00 00 00	 call	 ?dynamics_damage_model@@YGXIH@Z ; dynamics_damage_model

; 976  : 
; 977  : 			set_comanche_text_display_text ("MFD FAILURE", "");

  007e3	68 00 00 00 00	 push	 OFFSET ??_C@_00CNPNBAHC@@
  007e8	68 00 00 00 00	 push	 OFFSET ??_C@_0M@KHIEJMBO@MFD?5FAILURE@
  007ed	e8 00 00 00 00	 call	 ?set_comanche_text_display_text@@YGXPAD0@Z ; set_comanche_text_display_text

; 978  : 
; 979  : 			play_client_server_warning_message (en, SPEECH_SYSTEM_MFD_FAILURE);

  007f2	6a 11		 push	 17			; 00000011H
  007f4	8b 45 fc	 mov	 eax, DWORD PTR _en$[ebp]
  007f7	50		 push	 eax
  007f8	e8 00 00 00 00	 call	 ?play_client_server_warning_message@@YGHPAUENTITY@@H@Z ; play_client_server_warning_message

; 980  : 
; 981  : 			select_comanche_main_mfd_mode (COMANCHE_MAIN_MFD_MODE_DAMAGED, COMANCHE_MAIN_MFD_LOCATION_CO_PILOT_RHS);

  007fd	6a 03		 push	 3
  007ff	6a 01		 push	 1
  00801	e8 00 00 00 00	 call	 ?select_comanche_main_mfd_mode@@YGXW4COMANCHE_MAIN_MFD_MODES@@W4COMANCHE_MAIN_MFD_LOCATIONS@@@Z ; select_comanche_main_mfd_mode
$LN40@damage_sys:

; 982  : 		}
; 983  : 	}
; 984  : 
; 985  : 	////////////////////////////////////////
; 986  : 
; 987  : 	if (damage.co_pilot_lh_side_mfd)

  00806	8b 45 08	 mov	 eax, DWORD PTR _damage$[ebp]
  00809	c1 e8 12	 shr	 eax, 18			; 00000012H
  0080c	83 e0 01	 and	 eax, 1
  0080f	74 50		 je	 SHORT $LN42@damage_sys

; 988  : 	{
; 989  : 		if (!comanche_damage.co_pilot_lh_side_mfd)

  00811	a1 00 00 00 00	 mov	 eax, DWORD PTR ?comanche_damage@@3TCOMANCHE_DAMAGE_FLAGS@@A ; comanche_damage
  00816	c1 e8 12	 shr	 eax, 18			; 00000012H
  00819	83 e0 01	 and	 eax, 1
  0081c	75 43		 jne	 SHORT $LN42@damage_sys

; 990  : 		{
; 991  : 			activate_comanche_master_caution ();

  0081e	e8 00 00 00 00	 call	 ?activate_comanche_master_caution@@YGXXZ ; activate_comanche_master_caution

; 992  : 
; 993  : 			comanche_damage.co_pilot_lh_side_mfd = TRUE;

  00823	a1 00 00 00 00	 mov	 eax, DWORD PTR ?comanche_damage@@3TCOMANCHE_DAMAGE_FLAGS@@A ; comanche_damage
  00828	0d 00 00 04 00	 or	 eax, 262144		; 00040000H
  0082d	a3 00 00 00 00	 mov	 DWORD PTR ?comanche_damage@@3TCOMANCHE_DAMAGE_FLAGS@@A, eax ; comanche_damage

; 994  : 
; 995  : 			dynamics_damage_model (DYNAMICS_DAMAGE_AVIONICS, FALSE);

  00832	6a 00		 push	 0
  00834	68 00 10 00 00	 push	 4096			; 00001000H
  00839	e8 00 00 00 00	 call	 ?dynamics_damage_model@@YGXIH@Z ; dynamics_damage_model

; 996  : 
; 997  : 			set_comanche_text_display_text ("MFD FAILURE", "");

  0083e	68 00 00 00 00	 push	 OFFSET ??_C@_00CNPNBAHC@@
  00843	68 00 00 00 00	 push	 OFFSET ??_C@_0M@KHIEJMBO@MFD?5FAILURE@
  00848	e8 00 00 00 00	 call	 ?set_comanche_text_display_text@@YGXPAD0@Z ; set_comanche_text_display_text

; 998  : 
; 999  : 			play_client_server_warning_message (en, SPEECH_SYSTEM_MFD_FAILURE);

  0084d	6a 11		 push	 17			; 00000011H
  0084f	8b 45 fc	 mov	 eax, DWORD PTR _en$[ebp]
  00852	50		 push	 eax
  00853	e8 00 00 00 00	 call	 ?play_client_server_warning_message@@YGHPAUENTITY@@H@Z ; play_client_server_warning_message

; 1000 : 
; 1001 : 			select_comanche_side_mfd_mode (COMANCHE_SIDE_MFD_MODE_DAMAGED, COMANCHE_SIDE_MFD_LOCATION_CO_PILOT_LHS);

  00858	6a 02		 push	 2
  0085a	6a 01		 push	 1
  0085c	e8 00 00 00 00	 call	 ?select_comanche_side_mfd_mode@@YGXW4COMANCHE_SIDE_MFD_MODES@@W4COMANCHE_SIDE_MFD_LOCATIONS@@@Z ; select_comanche_side_mfd_mode
$LN42@damage_sys:

; 1002 : 		}
; 1003 : 	}
; 1004 : 
; 1005 : 	////////////////////////////////////////
; 1006 : 
; 1007 : 	if (damage.co_pilot_rh_side_mfd)

  00861	8b 45 08	 mov	 eax, DWORD PTR _damage$[ebp]
  00864	c1 e8 13	 shr	 eax, 19			; 00000013H
  00867	83 e0 01	 and	 eax, 1
  0086a	74 50		 je	 SHORT $LN44@damage_sys

; 1008 : 	{
; 1009 : 		if (!comanche_damage.co_pilot_rh_side_mfd)

  0086c	a1 00 00 00 00	 mov	 eax, DWORD PTR ?comanche_damage@@3TCOMANCHE_DAMAGE_FLAGS@@A ; comanche_damage
  00871	c1 e8 13	 shr	 eax, 19			; 00000013H
  00874	83 e0 01	 and	 eax, 1
  00877	75 43		 jne	 SHORT $LN44@damage_sys

; 1010 : 		{
; 1011 : 			activate_comanche_master_caution ();

  00879	e8 00 00 00 00	 call	 ?activate_comanche_master_caution@@YGXXZ ; activate_comanche_master_caution

; 1012 : 
; 1013 : 			comanche_damage.co_pilot_rh_side_mfd = TRUE;

  0087e	a1 00 00 00 00	 mov	 eax, DWORD PTR ?comanche_damage@@3TCOMANCHE_DAMAGE_FLAGS@@A ; comanche_damage
  00883	0d 00 00 08 00	 or	 eax, 524288		; 00080000H
  00888	a3 00 00 00 00	 mov	 DWORD PTR ?comanche_damage@@3TCOMANCHE_DAMAGE_FLAGS@@A, eax ; comanche_damage

; 1014 : 
; 1015 : 			dynamics_damage_model (DYNAMICS_DAMAGE_AVIONICS, FALSE);

  0088d	6a 00		 push	 0
  0088f	68 00 10 00 00	 push	 4096			; 00001000H
  00894	e8 00 00 00 00	 call	 ?dynamics_damage_model@@YGXIH@Z ; dynamics_damage_model

; 1016 : 
; 1017 : 			set_comanche_text_display_text ("MFD FAILURE", "");

  00899	68 00 00 00 00	 push	 OFFSET ??_C@_00CNPNBAHC@@
  0089e	68 00 00 00 00	 push	 OFFSET ??_C@_0M@KHIEJMBO@MFD?5FAILURE@
  008a3	e8 00 00 00 00	 call	 ?set_comanche_text_display_text@@YGXPAD0@Z ; set_comanche_text_display_text

; 1018 : 
; 1019 : 			play_client_server_warning_message (en, SPEECH_SYSTEM_MFD_FAILURE);

  008a8	6a 11		 push	 17			; 00000011H
  008aa	8b 45 fc	 mov	 eax, DWORD PTR _en$[ebp]
  008ad	50		 push	 eax
  008ae	e8 00 00 00 00	 call	 ?play_client_server_warning_message@@YGHPAUENTITY@@H@Z ; play_client_server_warning_message

; 1020 : 
; 1021 : 			select_comanche_side_mfd_mode (COMANCHE_SIDE_MFD_MODE_DAMAGED, COMANCHE_SIDE_MFD_LOCATION_CO_PILOT_RHS);

  008b3	6a 03		 push	 3
  008b5	6a 01		 push	 1
  008b7	e8 00 00 00 00	 call	 ?select_comanche_side_mfd_mode@@YGXW4COMANCHE_SIDE_MFD_MODES@@W4COMANCHE_SIDE_MFD_LOCATIONS@@@Z ; select_comanche_side_mfd_mode
$LN44@damage_sys:

; 1022 : 		}
; 1023 : 	}
; 1024 : 
; 1025 : 	////////////////////////////////////////
; 1026 : 
; 1027 : 	if (damage.pnvs)

  008bc	8b 45 08	 mov	 eax, DWORD PTR _damage$[ebp]
  008bf	c1 e8 14	 shr	 eax, 20			; 00000014H
  008c2	83 e0 01	 and	 eax, 1
  008c5	74 51		 je	 SHORT $LN46@damage_sys

; 1028 : 	{
; 1029 : 		if (!comanche_damage.pnvs)

  008c7	a1 00 00 00 00	 mov	 eax, DWORD PTR ?comanche_damage@@3TCOMANCHE_DAMAGE_FLAGS@@A ; comanche_damage
  008cc	c1 e8 14	 shr	 eax, 20			; 00000014H
  008cf	83 e0 01	 and	 eax, 1
  008d2	75 44		 jne	 SHORT $LN46@damage_sys

; 1030 : 		{
; 1031 : 			activate_comanche_master_caution ();

  008d4	e8 00 00 00 00	 call	 ?activate_comanche_master_caution@@YGXXZ ; activate_comanche_master_caution

; 1032 : 
; 1033 : 			comanche_damage.pnvs = TRUE;

  008d9	a1 00 00 00 00	 mov	 eax, DWORD PTR ?comanche_damage@@3TCOMANCHE_DAMAGE_FLAGS@@A ; comanche_damage
  008de	0d 00 00 10 00	 or	 eax, 1048576		; 00100000H
  008e3	a3 00 00 00 00	 mov	 DWORD PTR ?comanche_damage@@3TCOMANCHE_DAMAGE_FLAGS@@A, eax ; comanche_damage

; 1034 : 
; 1035 : 			dynamics_damage_model (DYNAMICS_DAMAGE_AVIONICS, FALSE);

  008e8	6a 00		 push	 0
  008ea	68 00 10 00 00	 push	 4096			; 00001000H
  008ef	e8 00 00 00 00	 call	 ?dynamics_damage_model@@YGXIH@Z ; dynamics_damage_model

; 1036 : 
; 1037 : 			set_comanche_text_display_text ("PNVS FAILURE", "");

  008f4	68 00 00 00 00	 push	 OFFSET ??_C@_00CNPNBAHC@@
  008f9	68 00 00 00 00	 push	 OFFSET ??_C@_0N@MGLFKHCI@PNVS?5FAILURE@
  008fe	e8 00 00 00 00	 call	 ?set_comanche_text_display_text@@YGXPAD0@Z ; set_comanche_text_display_text

; 1038 : 
; 1039 : 			play_client_server_warning_message (en, SPEECH_SYSTEM_PNVS_FAILURE);

  00903	6a 15		 push	 21			; 00000015H
  00905	8b 45 fc	 mov	 eax, DWORD PTR _en$[ebp]
  00908	50		 push	 eax
  00909	e8 00 00 00 00	 call	 ?play_client_server_warning_message@@YGHPAUENTITY@@H@Z ; play_client_server_warning_message

; 1040 : 
; 1041 : 			night_vision_system_active = FALSE;

  0090e	c7 05 00 00 00
	00 00 00 00 00	 mov	 DWORD PTR ?night_vision_system_active@@3HA, 0 ; night_vision_system_active
$LN46@damage_sys:

; 1042 : 		}
; 1043 : 	}
; 1044 : 
; 1045 : 	////////////////////////////////////////
; 1046 : 
; 1047 : 	if (damage.gun_jammed)

  00918	8b 45 08	 mov	 eax, DWORD PTR _damage$[ebp]
  0091b	c1 e8 15	 shr	 eax, 21			; 00000015H
  0091e	83 e0 01	 and	 eax, 1
  00921	74 47		 je	 SHORT $LN48@damage_sys

; 1048 : 	{
; 1049 : 		if (!comanche_damage.gun_jammed)

  00923	a1 00 00 00 00	 mov	 eax, DWORD PTR ?comanche_damage@@3TCOMANCHE_DAMAGE_FLAGS@@A ; comanche_damage
  00928	c1 e8 15	 shr	 eax, 21			; 00000015H
  0092b	83 e0 01	 and	 eax, 1
  0092e	75 3a		 jne	 SHORT $LN48@damage_sys

; 1050 : 		{
; 1051 : 			activate_comanche_master_caution ();

  00930	e8 00 00 00 00	 call	 ?activate_comanche_master_caution@@YGXXZ ; activate_comanche_master_caution

; 1052 : 
; 1053 : 			comanche_damage.gun_jammed = TRUE;

  00935	a1 00 00 00 00	 mov	 eax, DWORD PTR ?comanche_damage@@3TCOMANCHE_DAMAGE_FLAGS@@A ; comanche_damage
  0093a	0d 00 00 20 00	 or	 eax, 2097152		; 00200000H
  0093f	a3 00 00 00 00	 mov	 DWORD PTR ?comanche_damage@@3TCOMANCHE_DAMAGE_FLAGS@@A, eax ; comanche_damage

; 1054 : 
; 1055 : 			dynamics_damage_model (DYNAMICS_DAMAGE_AVIONICS, FALSE);

  00944	6a 00		 push	 0
  00946	68 00 10 00 00	 push	 4096			; 00001000H
  0094b	e8 00 00 00 00	 call	 ?dynamics_damage_model@@YGXIH@Z ; dynamics_damage_model

; 1056 : 
; 1057 : 			set_comanche_text_display_text ("GUN JAMMED", "");

  00950	68 00 00 00 00	 push	 OFFSET ??_C@_00CNPNBAHC@@
  00955	68 00 00 00 00	 push	 OFFSET ??_C@_0L@NEDGJPHM@GUN?5JAMMED@
  0095a	e8 00 00 00 00	 call	 ?set_comanche_text_display_text@@YGXPAD0@Z ; set_comanche_text_display_text

; 1058 : 
; 1059 : 			play_client_server_warning_message (en, SPEECH_SYSTEM_GUN_JAMMED);

  0095f	6a 17		 push	 23			; 00000017H
  00961	8b 45 fc	 mov	 eax, DWORD PTR _en$[ebp]
  00964	50		 push	 eax
  00965	e8 00 00 00 00	 call	 ?play_client_server_warning_message@@YGHPAUENTITY@@H@Z ; play_client_server_warning_message
$LN48@damage_sys:

; 1060 : 		}
; 1061 : 	}
; 1062 : 
; 1063 : 	////////////////////////////////////////
; 1064 : 
; 1065 : 	if (damage.lh_stub_wing_pylon)

  0096a	8b 45 08	 mov	 eax, DWORD PTR _damage$[ebp]
  0096d	c1 e8 16	 shr	 eax, 22			; 00000016H
  00970	83 e0 01	 and	 eax, 1
  00973	74 47		 je	 SHORT $LN50@damage_sys

; 1066 : 	{
; 1067 : 		if (!comanche_damage.lh_stub_wing_pylon)

  00975	a1 00 00 00 00	 mov	 eax, DWORD PTR ?comanche_damage@@3TCOMANCHE_DAMAGE_FLAGS@@A ; comanche_damage
  0097a	c1 e8 16	 shr	 eax, 22			; 00000016H
  0097d	83 e0 01	 and	 eax, 1
  00980	75 3a		 jne	 SHORT $LN50@damage_sys

; 1068 : 		{
; 1069 : 			activate_comanche_master_caution ();

  00982	e8 00 00 00 00	 call	 ?activate_comanche_master_caution@@YGXXZ ; activate_comanche_master_caution

; 1070 : 
; 1071 : 			comanche_damage.lh_stub_wing_pylon = TRUE;

  00987	a1 00 00 00 00	 mov	 eax, DWORD PTR ?comanche_damage@@3TCOMANCHE_DAMAGE_FLAGS@@A ; comanche_damage
  0098c	0d 00 00 40 00	 or	 eax, 4194304		; 00400000H
  00991	a3 00 00 00 00	 mov	 DWORD PTR ?comanche_damage@@3TCOMANCHE_DAMAGE_FLAGS@@A, eax ; comanche_damage

; 1072 : 
; 1073 : 			dynamics_damage_model (DYNAMICS_DAMAGE_AVIONICS, FALSE);

  00996	6a 00		 push	 0
  00998	68 00 10 00 00	 push	 4096			; 00001000H
  0099d	e8 00 00 00 00	 call	 ?dynamics_damage_model@@YGXIH@Z ; dynamics_damage_model

; 1074 : 
; 1075 : 			set_comanche_text_display_text ("HARDPOINT DAMAGED", "");

  009a2	68 00 00 00 00	 push	 OFFSET ??_C@_00CNPNBAHC@@
  009a7	68 00 00 00 00	 push	 OFFSET ??_C@_0BC@DLNDFIFF@HARDPOINT?5DAMAGED@
  009ac	e8 00 00 00 00	 call	 ?set_comanche_text_display_text@@YGXPAD0@Z ; set_comanche_text_display_text

; 1076 : 
; 1077 : 			play_client_server_warning_message (en, SPEECH_SYSTEM_HARDPOINT_DAMAGED);

  009b1	6a 18		 push	 24			; 00000018H
  009b3	8b 45 fc	 mov	 eax, DWORD PTR _en$[ebp]
  009b6	50		 push	 eax
  009b7	e8 00 00 00 00	 call	 ?play_client_server_warning_message@@YGHPAUENTITY@@H@Z ; play_client_server_warning_message
$LN50@damage_sys:

; 1078 : 		}
; 1079 : 	}
; 1080 : 
; 1081 : 	////////////////////////////////////////
; 1082 : 
; 1083 : 	if (damage.lh_bay_door_inner_pylon)

  009bc	8b 45 08	 mov	 eax, DWORD PTR _damage$[ebp]
  009bf	c1 e8 17	 shr	 eax, 23			; 00000017H
  009c2	83 e0 01	 and	 eax, 1
  009c5	74 47		 je	 SHORT $LN52@damage_sys

; 1084 : 	{
; 1085 : 		if (!comanche_damage.lh_bay_door_inner_pylon)

  009c7	a1 00 00 00 00	 mov	 eax, DWORD PTR ?comanche_damage@@3TCOMANCHE_DAMAGE_FLAGS@@A ; comanche_damage
  009cc	c1 e8 17	 shr	 eax, 23			; 00000017H
  009cf	83 e0 01	 and	 eax, 1
  009d2	75 3a		 jne	 SHORT $LN52@damage_sys

; 1086 : 		{
; 1087 : 			activate_comanche_master_caution ();

  009d4	e8 00 00 00 00	 call	 ?activate_comanche_master_caution@@YGXXZ ; activate_comanche_master_caution

; 1088 : 
; 1089 : 			comanche_damage.lh_bay_door_inner_pylon = TRUE;

  009d9	a1 00 00 00 00	 mov	 eax, DWORD PTR ?comanche_damage@@3TCOMANCHE_DAMAGE_FLAGS@@A ; comanche_damage
  009de	0d 00 00 80 00	 or	 eax, 8388608		; 00800000H
  009e3	a3 00 00 00 00	 mov	 DWORD PTR ?comanche_damage@@3TCOMANCHE_DAMAGE_FLAGS@@A, eax ; comanche_damage

; 1090 : 
; 1091 : 			dynamics_damage_model (DYNAMICS_DAMAGE_AVIONICS, FALSE);

  009e8	6a 00		 push	 0
  009ea	68 00 10 00 00	 push	 4096			; 00001000H
  009ef	e8 00 00 00 00	 call	 ?dynamics_damage_model@@YGXIH@Z ; dynamics_damage_model

; 1092 : 
; 1093 : 			set_comanche_text_display_text ("HARDPOINT DAMAGED", "");

  009f4	68 00 00 00 00	 push	 OFFSET ??_C@_00CNPNBAHC@@
  009f9	68 00 00 00 00	 push	 OFFSET ??_C@_0BC@DLNDFIFF@HARDPOINT?5DAMAGED@
  009fe	e8 00 00 00 00	 call	 ?set_comanche_text_display_text@@YGXPAD0@Z ; set_comanche_text_display_text

; 1094 : 
; 1095 : 			play_client_server_warning_message (en, SPEECH_SYSTEM_HARDPOINT_DAMAGED);

  00a03	6a 18		 push	 24			; 00000018H
  00a05	8b 45 fc	 mov	 eax, DWORD PTR _en$[ebp]
  00a08	50		 push	 eax
  00a09	e8 00 00 00 00	 call	 ?play_client_server_warning_message@@YGHPAUENTITY@@H@Z ; play_client_server_warning_message
$LN52@damage_sys:

; 1096 : 		}
; 1097 : 	}
; 1098 : 
; 1099 : 	////////////////////////////////////////
; 1100 : 
; 1101 : 	if (damage.lh_bay_door_middle_pylon)

  00a0e	8b 45 08	 mov	 eax, DWORD PTR _damage$[ebp]
  00a11	c1 e8 18	 shr	 eax, 24			; 00000018H
  00a14	83 e0 01	 and	 eax, 1
  00a17	74 47		 je	 SHORT $LN54@damage_sys

; 1102 : 	{
; 1103 : 		if (!comanche_damage.lh_bay_door_middle_pylon)

  00a19	a1 00 00 00 00	 mov	 eax, DWORD PTR ?comanche_damage@@3TCOMANCHE_DAMAGE_FLAGS@@A ; comanche_damage
  00a1e	c1 e8 18	 shr	 eax, 24			; 00000018H
  00a21	83 e0 01	 and	 eax, 1
  00a24	75 3a		 jne	 SHORT $LN54@damage_sys

; 1104 : 		{
; 1105 : 			activate_comanche_master_caution ();

  00a26	e8 00 00 00 00	 call	 ?activate_comanche_master_caution@@YGXXZ ; activate_comanche_master_caution

; 1106 : 
; 1107 : 			comanche_damage.lh_bay_door_middle_pylon = TRUE;

  00a2b	a1 00 00 00 00	 mov	 eax, DWORD PTR ?comanche_damage@@3TCOMANCHE_DAMAGE_FLAGS@@A ; comanche_damage
  00a30	0d 00 00 00 01	 or	 eax, 16777216		; 01000000H
  00a35	a3 00 00 00 00	 mov	 DWORD PTR ?comanche_damage@@3TCOMANCHE_DAMAGE_FLAGS@@A, eax ; comanche_damage

; 1108 : 
; 1109 : 			dynamics_damage_model (DYNAMICS_DAMAGE_AVIONICS, FALSE);

  00a3a	6a 00		 push	 0
  00a3c	68 00 10 00 00	 push	 4096			; 00001000H
  00a41	e8 00 00 00 00	 call	 ?dynamics_damage_model@@YGXIH@Z ; dynamics_damage_model

; 1110 : 
; 1111 : 			set_comanche_text_display_text ("HARDPOINT DAMAGED", "");

  00a46	68 00 00 00 00	 push	 OFFSET ??_C@_00CNPNBAHC@@
  00a4b	68 00 00 00 00	 push	 OFFSET ??_C@_0BC@DLNDFIFF@HARDPOINT?5DAMAGED@
  00a50	e8 00 00 00 00	 call	 ?set_comanche_text_display_text@@YGXPAD0@Z ; set_comanche_text_display_text

; 1112 : 
; 1113 : 			play_client_server_warning_message (en, SPEECH_SYSTEM_HARDPOINT_DAMAGED);

  00a55	6a 18		 push	 24			; 00000018H
  00a57	8b 45 fc	 mov	 eax, DWORD PTR _en$[ebp]
  00a5a	50		 push	 eax
  00a5b	e8 00 00 00 00	 call	 ?play_client_server_warning_message@@YGHPAUENTITY@@H@Z ; play_client_server_warning_message
$LN54@damage_sys:

; 1114 : 		}
; 1115 : 	}
; 1116 : 
; 1117 : 	////////////////////////////////////////
; 1118 : 
; 1119 : 	if (damage.lh_bay_door_outer_pylon)

  00a60	8b 45 08	 mov	 eax, DWORD PTR _damage$[ebp]
  00a63	c1 e8 19	 shr	 eax, 25			; 00000019H
  00a66	83 e0 01	 and	 eax, 1
  00a69	74 47		 je	 SHORT $LN56@damage_sys

; 1120 : 	{
; 1121 : 		if (!comanche_damage.lh_bay_door_outer_pylon)

  00a6b	a1 00 00 00 00	 mov	 eax, DWORD PTR ?comanche_damage@@3TCOMANCHE_DAMAGE_FLAGS@@A ; comanche_damage
  00a70	c1 e8 19	 shr	 eax, 25			; 00000019H
  00a73	83 e0 01	 and	 eax, 1
  00a76	75 3a		 jne	 SHORT $LN56@damage_sys

; 1122 : 		{
; 1123 : 			activate_comanche_master_caution ();

  00a78	e8 00 00 00 00	 call	 ?activate_comanche_master_caution@@YGXXZ ; activate_comanche_master_caution

; 1124 : 
; 1125 : 			comanche_damage.lh_bay_door_outer_pylon = TRUE;

  00a7d	a1 00 00 00 00	 mov	 eax, DWORD PTR ?comanche_damage@@3TCOMANCHE_DAMAGE_FLAGS@@A ; comanche_damage
  00a82	0d 00 00 00 02	 or	 eax, 33554432		; 02000000H
  00a87	a3 00 00 00 00	 mov	 DWORD PTR ?comanche_damage@@3TCOMANCHE_DAMAGE_FLAGS@@A, eax ; comanche_damage

; 1126 : 
; 1127 : 			dynamics_damage_model (DYNAMICS_DAMAGE_AVIONICS, FALSE);

  00a8c	6a 00		 push	 0
  00a8e	68 00 10 00 00	 push	 4096			; 00001000H
  00a93	e8 00 00 00 00	 call	 ?dynamics_damage_model@@YGXIH@Z ; dynamics_damage_model

; 1128 : 
; 1129 : 			set_comanche_text_display_text ("HARDPOINT DAMAGED", "");

  00a98	68 00 00 00 00	 push	 OFFSET ??_C@_00CNPNBAHC@@
  00a9d	68 00 00 00 00	 push	 OFFSET ??_C@_0BC@DLNDFIFF@HARDPOINT?5DAMAGED@
  00aa2	e8 00 00 00 00	 call	 ?set_comanche_text_display_text@@YGXPAD0@Z ; set_comanche_text_display_text

; 1130 : 
; 1131 : 			play_client_server_warning_message (en, SPEECH_SYSTEM_HARDPOINT_DAMAGED);

  00aa7	6a 18		 push	 24			; 00000018H
  00aa9	8b 45 fc	 mov	 eax, DWORD PTR _en$[ebp]
  00aac	50		 push	 eax
  00aad	e8 00 00 00 00	 call	 ?play_client_server_warning_message@@YGHPAUENTITY@@H@Z ; play_client_server_warning_message
$LN56@damage_sys:

; 1132 : 		}
; 1133 : 	}
; 1134 : 
; 1135 : 	////////////////////////////////////////
; 1136 : 
; 1137 : 	if (damage.rh_stub_wing_pylon)

  00ab2	8b 45 08	 mov	 eax, DWORD PTR _damage$[ebp]
  00ab5	c1 e8 1a	 shr	 eax, 26			; 0000001aH
  00ab8	83 e0 01	 and	 eax, 1
  00abb	74 47		 je	 SHORT $LN58@damage_sys

; 1138 : 	{
; 1139 : 		if (!comanche_damage.rh_stub_wing_pylon)

  00abd	a1 00 00 00 00	 mov	 eax, DWORD PTR ?comanche_damage@@3TCOMANCHE_DAMAGE_FLAGS@@A ; comanche_damage
  00ac2	c1 e8 1a	 shr	 eax, 26			; 0000001aH
  00ac5	83 e0 01	 and	 eax, 1
  00ac8	75 3a		 jne	 SHORT $LN58@damage_sys

; 1140 : 		{
; 1141 : 			activate_comanche_master_caution ();

  00aca	e8 00 00 00 00	 call	 ?activate_comanche_master_caution@@YGXXZ ; activate_comanche_master_caution

; 1142 : 
; 1143 : 			comanche_damage.rh_stub_wing_pylon = TRUE;

  00acf	a1 00 00 00 00	 mov	 eax, DWORD PTR ?comanche_damage@@3TCOMANCHE_DAMAGE_FLAGS@@A ; comanche_damage
  00ad4	0d 00 00 00 04	 or	 eax, 67108864		; 04000000H
  00ad9	a3 00 00 00 00	 mov	 DWORD PTR ?comanche_damage@@3TCOMANCHE_DAMAGE_FLAGS@@A, eax ; comanche_damage

; 1144 : 
; 1145 : 			dynamics_damage_model (DYNAMICS_DAMAGE_AVIONICS, FALSE);

  00ade	6a 00		 push	 0
  00ae0	68 00 10 00 00	 push	 4096			; 00001000H
  00ae5	e8 00 00 00 00	 call	 ?dynamics_damage_model@@YGXIH@Z ; dynamics_damage_model

; 1146 : 
; 1147 : 			set_comanche_text_display_text ("HARDPOINT DAMAGED", "");

  00aea	68 00 00 00 00	 push	 OFFSET ??_C@_00CNPNBAHC@@
  00aef	68 00 00 00 00	 push	 OFFSET ??_C@_0BC@DLNDFIFF@HARDPOINT?5DAMAGED@
  00af4	e8 00 00 00 00	 call	 ?set_comanche_text_display_text@@YGXPAD0@Z ; set_comanche_text_display_text

; 1148 : 
; 1149 : 			play_client_server_warning_message (en, SPEECH_SYSTEM_HARDPOINT_DAMAGED);

  00af9	6a 18		 push	 24			; 00000018H
  00afb	8b 45 fc	 mov	 eax, DWORD PTR _en$[ebp]
  00afe	50		 push	 eax
  00aff	e8 00 00 00 00	 call	 ?play_client_server_warning_message@@YGHPAUENTITY@@H@Z ; play_client_server_warning_message
$LN58@damage_sys:

; 1150 : 		}
; 1151 : 	}
; 1152 : 
; 1153 : 	////////////////////////////////////////
; 1154 : 
; 1155 : 	if (damage.rh_bay_door_inner_pylon)

  00b04	8b 45 08	 mov	 eax, DWORD PTR _damage$[ebp]
  00b07	c1 e8 1b	 shr	 eax, 27			; 0000001bH
  00b0a	83 e0 01	 and	 eax, 1
  00b0d	74 47		 je	 SHORT $LN60@damage_sys

; 1156 : 	{
; 1157 : 		if (!comanche_damage.rh_bay_door_inner_pylon)

  00b0f	a1 00 00 00 00	 mov	 eax, DWORD PTR ?comanche_damage@@3TCOMANCHE_DAMAGE_FLAGS@@A ; comanche_damage
  00b14	c1 e8 1b	 shr	 eax, 27			; 0000001bH
  00b17	83 e0 01	 and	 eax, 1
  00b1a	75 3a		 jne	 SHORT $LN60@damage_sys

; 1158 : 		{
; 1159 : 			activate_comanche_master_caution ();

  00b1c	e8 00 00 00 00	 call	 ?activate_comanche_master_caution@@YGXXZ ; activate_comanche_master_caution

; 1160 : 
; 1161 : 			comanche_damage.rh_bay_door_inner_pylon = TRUE;

  00b21	a1 00 00 00 00	 mov	 eax, DWORD PTR ?comanche_damage@@3TCOMANCHE_DAMAGE_FLAGS@@A ; comanche_damage
  00b26	0d 00 00 00 08	 or	 eax, 134217728		; 08000000H
  00b2b	a3 00 00 00 00	 mov	 DWORD PTR ?comanche_damage@@3TCOMANCHE_DAMAGE_FLAGS@@A, eax ; comanche_damage

; 1162 : 
; 1163 : 			dynamics_damage_model (DYNAMICS_DAMAGE_AVIONICS, FALSE);

  00b30	6a 00		 push	 0
  00b32	68 00 10 00 00	 push	 4096			; 00001000H
  00b37	e8 00 00 00 00	 call	 ?dynamics_damage_model@@YGXIH@Z ; dynamics_damage_model

; 1164 : 
; 1165 : 			set_comanche_text_display_text ("HARDPOINT DAMAGED", "");

  00b3c	68 00 00 00 00	 push	 OFFSET ??_C@_00CNPNBAHC@@
  00b41	68 00 00 00 00	 push	 OFFSET ??_C@_0BC@DLNDFIFF@HARDPOINT?5DAMAGED@
  00b46	e8 00 00 00 00	 call	 ?set_comanche_text_display_text@@YGXPAD0@Z ; set_comanche_text_display_text

; 1166 : 
; 1167 : 			play_client_server_warning_message (en, SPEECH_SYSTEM_HARDPOINT_DAMAGED);

  00b4b	6a 18		 push	 24			; 00000018H
  00b4d	8b 45 fc	 mov	 eax, DWORD PTR _en$[ebp]
  00b50	50		 push	 eax
  00b51	e8 00 00 00 00	 call	 ?play_client_server_warning_message@@YGHPAUENTITY@@H@Z ; play_client_server_warning_message
$LN60@damage_sys:

; 1168 : 		}
; 1169 : 	}
; 1170 : 
; 1171 : 	////////////////////////////////////////
; 1172 : 
; 1173 : 	if (damage.rh_bay_door_middle_pylon)

  00b56	8b 45 08	 mov	 eax, DWORD PTR _damage$[ebp]
  00b59	c1 e8 1c	 shr	 eax, 28			; 0000001cH
  00b5c	83 e0 01	 and	 eax, 1
  00b5f	74 47		 je	 SHORT $LN62@damage_sys

; 1174 : 	{
; 1175 : 		if (!comanche_damage.rh_bay_door_middle_pylon)

  00b61	a1 00 00 00 00	 mov	 eax, DWORD PTR ?comanche_damage@@3TCOMANCHE_DAMAGE_FLAGS@@A ; comanche_damage
  00b66	c1 e8 1c	 shr	 eax, 28			; 0000001cH
  00b69	83 e0 01	 and	 eax, 1
  00b6c	75 3a		 jne	 SHORT $LN62@damage_sys

; 1176 : 		{
; 1177 : 			activate_comanche_master_caution ();

  00b6e	e8 00 00 00 00	 call	 ?activate_comanche_master_caution@@YGXXZ ; activate_comanche_master_caution

; 1178 : 
; 1179 : 			comanche_damage.rh_bay_door_middle_pylon = TRUE;

  00b73	a1 00 00 00 00	 mov	 eax, DWORD PTR ?comanche_damage@@3TCOMANCHE_DAMAGE_FLAGS@@A ; comanche_damage
  00b78	0d 00 00 00 10	 or	 eax, 268435456		; 10000000H
  00b7d	a3 00 00 00 00	 mov	 DWORD PTR ?comanche_damage@@3TCOMANCHE_DAMAGE_FLAGS@@A, eax ; comanche_damage

; 1180 : 
; 1181 : 			dynamics_damage_model (DYNAMICS_DAMAGE_AVIONICS, FALSE);

  00b82	6a 00		 push	 0
  00b84	68 00 10 00 00	 push	 4096			; 00001000H
  00b89	e8 00 00 00 00	 call	 ?dynamics_damage_model@@YGXIH@Z ; dynamics_damage_model

; 1182 : 
; 1183 : 			set_comanche_text_display_text ("HARDPOINT DAMAGED", "");

  00b8e	68 00 00 00 00	 push	 OFFSET ??_C@_00CNPNBAHC@@
  00b93	68 00 00 00 00	 push	 OFFSET ??_C@_0BC@DLNDFIFF@HARDPOINT?5DAMAGED@
  00b98	e8 00 00 00 00	 call	 ?set_comanche_text_display_text@@YGXPAD0@Z ; set_comanche_text_display_text

; 1184 : 
; 1185 : 			play_client_server_warning_message (en, SPEECH_SYSTEM_HARDPOINT_DAMAGED);

  00b9d	6a 18		 push	 24			; 00000018H
  00b9f	8b 45 fc	 mov	 eax, DWORD PTR _en$[ebp]
  00ba2	50		 push	 eax
  00ba3	e8 00 00 00 00	 call	 ?play_client_server_warning_message@@YGHPAUENTITY@@H@Z ; play_client_server_warning_message
$LN62@damage_sys:

; 1186 : 		}
; 1187 : 	}
; 1188 : 
; 1189 : 	////////////////////////////////////////
; 1190 : 
; 1191 : 	if (damage.rh_bay_door_outer_pylon)

  00ba8	8b 45 08	 mov	 eax, DWORD PTR _damage$[ebp]
  00bab	c1 e8 1d	 shr	 eax, 29			; 0000001dH
  00bae	83 e0 01	 and	 eax, 1
  00bb1	74 47		 je	 SHORT $LN64@damage_sys

; 1192 : 	{
; 1193 : 		if (!comanche_damage.rh_bay_door_outer_pylon)

  00bb3	a1 00 00 00 00	 mov	 eax, DWORD PTR ?comanche_damage@@3TCOMANCHE_DAMAGE_FLAGS@@A ; comanche_damage
  00bb8	c1 e8 1d	 shr	 eax, 29			; 0000001dH
  00bbb	83 e0 01	 and	 eax, 1
  00bbe	75 3a		 jne	 SHORT $LN64@damage_sys

; 1194 : 		{
; 1195 : 			activate_comanche_master_caution ();

  00bc0	e8 00 00 00 00	 call	 ?activate_comanche_master_caution@@YGXXZ ; activate_comanche_master_caution

; 1196 : 
; 1197 : 			comanche_damage.rh_bay_door_outer_pylon = TRUE;

  00bc5	a1 00 00 00 00	 mov	 eax, DWORD PTR ?comanche_damage@@3TCOMANCHE_DAMAGE_FLAGS@@A ; comanche_damage
  00bca	0d 00 00 00 20	 or	 eax, 536870912		; 20000000H
  00bcf	a3 00 00 00 00	 mov	 DWORD PTR ?comanche_damage@@3TCOMANCHE_DAMAGE_FLAGS@@A, eax ; comanche_damage

; 1198 : 
; 1199 : 			dynamics_damage_model (DYNAMICS_DAMAGE_AVIONICS, FALSE);

  00bd4	6a 00		 push	 0
  00bd6	68 00 10 00 00	 push	 4096			; 00001000H
  00bdb	e8 00 00 00 00	 call	 ?dynamics_damage_model@@YGXIH@Z ; dynamics_damage_model

; 1200 : 
; 1201 : 			set_comanche_text_display_text ("HARDPOINT DAMAGED", "");

  00be0	68 00 00 00 00	 push	 OFFSET ??_C@_00CNPNBAHC@@
  00be5	68 00 00 00 00	 push	 OFFSET ??_C@_0BC@DLNDFIFF@HARDPOINT?5DAMAGED@
  00bea	e8 00 00 00 00	 call	 ?set_comanche_text_display_text@@YGXPAD0@Z ; set_comanche_text_display_text

; 1202 : 
; 1203 : 			play_client_server_warning_message (en, SPEECH_SYSTEM_HARDPOINT_DAMAGED);

  00bef	6a 18		 push	 24			; 00000018H
  00bf1	8b 45 fc	 mov	 eax, DWORD PTR _en$[ebp]
  00bf4	50		 push	 eax
  00bf5	e8 00 00 00 00	 call	 ?play_client_server_warning_message@@YGHPAUENTITY@@H@Z ; play_client_server_warning_message
$LN64@damage_sys:

; 1204 : 		}
; 1205 : 	}
; 1206 : 
; 1207 : 	////////////////////////////////////////
; 1208 : 
; 1209 : 	if (damage.chaff_dispensers)

  00bfa	8b 45 08	 mov	 eax, DWORD PTR _damage$[ebp]
  00bfd	c1 e8 1e	 shr	 eax, 30			; 0000001eH
  00c00	83 e0 01	 and	 eax, 1
  00c03	74 47		 je	 SHORT $LN66@damage_sys

; 1210 : 	{
; 1211 : 		if (!comanche_damage.chaff_dispensers)

  00c05	a1 00 00 00 00	 mov	 eax, DWORD PTR ?comanche_damage@@3TCOMANCHE_DAMAGE_FLAGS@@A ; comanche_damage
  00c0a	c1 e8 1e	 shr	 eax, 30			; 0000001eH
  00c0d	83 e0 01	 and	 eax, 1
  00c10	75 3a		 jne	 SHORT $LN66@damage_sys

; 1212 : 		{
; 1213 : 			activate_comanche_master_caution ();

  00c12	e8 00 00 00 00	 call	 ?activate_comanche_master_caution@@YGXXZ ; activate_comanche_master_caution

; 1214 : 
; 1215 : 			comanche_damage.chaff_dispensers = TRUE;

  00c17	a1 00 00 00 00	 mov	 eax, DWORD PTR ?comanche_damage@@3TCOMANCHE_DAMAGE_FLAGS@@A ; comanche_damage
  00c1c	0d 00 00 00 40	 or	 eax, 1073741824		; 40000000H
  00c21	a3 00 00 00 00	 mov	 DWORD PTR ?comanche_damage@@3TCOMANCHE_DAMAGE_FLAGS@@A, eax ; comanche_damage

; 1216 : 
; 1217 : 			dynamics_damage_model (DYNAMICS_DAMAGE_AVIONICS, FALSE);

  00c26	6a 00		 push	 0
  00c28	68 00 10 00 00	 push	 4096			; 00001000H
  00c2d	e8 00 00 00 00	 call	 ?dynamics_damage_model@@YGXIH@Z ; dynamics_damage_model

; 1218 : 
; 1219 : 			set_comanche_text_display_text ("CHAFF DISPENSER", "DAMAGED");

  00c32	68 00 00 00 00	 push	 OFFSET ??_C@_07OHKEFPKJ@DAMAGED@
  00c37	68 00 00 00 00	 push	 OFFSET ??_C@_0BA@LLCCGDM@CHAFF?5DISPENSER@
  00c3c	e8 00 00 00 00	 call	 ?set_comanche_text_display_text@@YGXPAD0@Z ; set_comanche_text_display_text

; 1220 : 
; 1221 : 			play_client_server_warning_message (en, SPEECH_SYSTEM_CHAFF_DISPENSER_DAMAGED);

  00c41	6a 19		 push	 25			; 00000019H
  00c43	8b 45 fc	 mov	 eax, DWORD PTR _en$[ebp]
  00c46	50		 push	 eax
  00c47	e8 00 00 00 00	 call	 ?play_client_server_warning_message@@YGHPAUENTITY@@H@Z ; play_client_server_warning_message
$LN66@damage_sys:

; 1222 : 		}
; 1223 : 	}
; 1224 : 
; 1225 : 	////////////////////////////////////////
; 1226 : 
; 1227 : 	if (damage.flare_dispensers)

  00c4c	8b 45 08	 mov	 eax, DWORD PTR _damage$[ebp]
  00c4f	c1 e8 1f	 shr	 eax, 31			; 0000001fH
  00c52	83 e0 01	 and	 eax, 1
  00c55	74 47		 je	 SHORT $LN68@damage_sys

; 1228 : 	{
; 1229 : 		if (!comanche_damage.flare_dispensers)

  00c57	a1 00 00 00 00	 mov	 eax, DWORD PTR ?comanche_damage@@3TCOMANCHE_DAMAGE_FLAGS@@A ; comanche_damage
  00c5c	c1 e8 1f	 shr	 eax, 31			; 0000001fH
  00c5f	83 e0 01	 and	 eax, 1
  00c62	75 3a		 jne	 SHORT $LN68@damage_sys

; 1230 : 		{
; 1231 : 			activate_comanche_master_caution ();

  00c64	e8 00 00 00 00	 call	 ?activate_comanche_master_caution@@YGXXZ ; activate_comanche_master_caution

; 1232 : 
; 1233 : 			comanche_damage.flare_dispensers = TRUE;

  00c69	a1 00 00 00 00	 mov	 eax, DWORD PTR ?comanche_damage@@3TCOMANCHE_DAMAGE_FLAGS@@A ; comanche_damage
  00c6e	0d 00 00 00 80	 or	 eax, -2147483648	; 80000000H
  00c73	a3 00 00 00 00	 mov	 DWORD PTR ?comanche_damage@@3TCOMANCHE_DAMAGE_FLAGS@@A, eax ; comanche_damage

; 1234 : 
; 1235 : 			dynamics_damage_model (DYNAMICS_DAMAGE_AVIONICS, FALSE);

  00c78	6a 00		 push	 0
  00c7a	68 00 10 00 00	 push	 4096			; 00001000H
  00c7f	e8 00 00 00 00	 call	 ?dynamics_damage_model@@YGXIH@Z ; dynamics_damage_model

; 1236 : 
; 1237 : 			set_comanche_text_display_text ("FLARE DISPENSER", "DAMAGED");

  00c84	68 00 00 00 00	 push	 OFFSET ??_C@_07OHKEFPKJ@DAMAGED@
  00c89	68 00 00 00 00	 push	 OFFSET ??_C@_0BA@PILHIAPF@FLARE?5DISPENSER@
  00c8e	e8 00 00 00 00	 call	 ?set_comanche_text_display_text@@YGXPAD0@Z ; set_comanche_text_display_text

; 1238 : 
; 1239 : 			play_client_server_warning_message (en, SPEECH_SYSTEM_FLARE_DISPENSER_DAMAGED);

  00c93	6a 1a		 push	 26			; 0000001aH
  00c95	8b 45 fc	 mov	 eax, DWORD PTR _en$[ebp]
  00c98	50		 push	 eax
  00c99	e8 00 00 00 00	 call	 ?play_client_server_warning_message@@YGHPAUENTITY@@H@Z ; play_client_server_warning_message
$LN68@damage_sys:

; 1240 : 		}
; 1241 : 	}
; 1242 : 
; 1243 : 	////////////////////////////////////////
; 1244 : 
; 1245 : 	set_comanche_weapon_damage_status ();

  00c9e	e8 00 00 00 00	 call	 ?set_comanche_weapon_damage_status@@YGXXZ ; set_comanche_weapon_damage_status

; 1246 : }

  00ca3	5f		 pop	 edi
  00ca4	5e		 pop	 esi
  00ca5	5b		 pop	 ebx
  00ca6	8b e5		 mov	 esp, ebp
  00ca8	5d		 pop	 ebp
  00ca9	c2 04 00	 ret	 4
?damage_systems@@YGXTCOMANCHE_DAMAGE_FLAGS@@@Z ENDP	; damage_systems
_TEXT	ENDS
; Function compile flags: /Odtp /ZI
; File c:\users\nhv90\projects\eech\aphavoc\source\gunships\avionics\comanche\cm_dam.c
;	COMDAT ?notify_comanche_avionics_of_dynamics_fault@@YGXI@Z
_TEXT	SEGMENT
_damage$ = 8						; size = 4
?notify_comanche_avionics_of_dynamics_fault@@YGXI@Z PROC ; notify_comanche_avionics_of_dynamics_fault, COMDAT

; 1303 : {

  00000	55		 push	 ebp
  00001	8b ec		 mov	 ebp, esp
  00003	83 ec 40	 sub	 esp, 64			; 00000040H
  00006	53		 push	 ebx
  00007	56		 push	 esi
  00008	57		 push	 edi

; 1304 : 	if (damage & DYNAMICS_DAMAGE_MAIN_ROTOR)

  00009	8b 45 08	 mov	 eax, DWORD PTR _damage$[ebp]
  0000c	83 e0 02	 and	 eax, 2
  0000f	74 14		 je	 SHORT $LN2@notify_com

; 1305 : 	{
; 1306 : 		activate_comanche_master_caution ();

  00011	e8 00 00 00 00	 call	 ?activate_comanche_master_caution@@YGXXZ ; activate_comanche_master_caution

; 1307 : 
; 1308 : 		set_comanche_text_display_text ("MAIN ROTOR", "DAMAGED");

  00016	68 00 00 00 00	 push	 OFFSET ??_C@_07OHKEFPKJ@DAMAGED@
  0001b	68 00 00 00 00	 push	 OFFSET ??_C@_0L@FFIGCBMA@MAIN?5ROTOR@
  00020	e8 00 00 00 00	 call	 ?set_comanche_text_display_text@@YGXPAD0@Z ; set_comanche_text_display_text
$LN2@notify_com:

; 1309 : 	}
; 1310 : 
; 1311 : 	if (damage & DYNAMICS_DAMAGE_TAIL_ROTOR)

  00025	8b 45 08	 mov	 eax, DWORD PTR _damage$[ebp]
  00028	83 e0 04	 and	 eax, 4
  0002b	74 14		 je	 SHORT $LN3@notify_com

; 1312 : 	{
; 1313 : 		activate_comanche_master_caution ();

  0002d	e8 00 00 00 00	 call	 ?activate_comanche_master_caution@@YGXXZ ; activate_comanche_master_caution

; 1314 : 
; 1315 : 		set_comanche_text_display_text ("TAIL ROTOR", "DAMAGED");

  00032	68 00 00 00 00	 push	 OFFSET ??_C@_07OHKEFPKJ@DAMAGED@
  00037	68 00 00 00 00	 push	 OFFSET ??_C@_0L@MCBINMPD@TAIL?5ROTOR@
  0003c	e8 00 00 00 00	 call	 ?set_comanche_text_display_text@@YGXPAD0@Z ; set_comanche_text_display_text
$LN3@notify_com:

; 1316 : 	}
; 1317 : 
; 1318 : 	if (damage & DYNAMICS_DAMAGE_LEFT_ENGINE)

  00041	8b 45 08	 mov	 eax, DWORD PTR _damage$[ebp]
  00044	83 e0 08	 and	 eax, 8
  00047	74 14		 je	 SHORT $LN4@notify_com

; 1319 : 	{
; 1320 : 		activate_comanche_master_caution ();

  00049	e8 00 00 00 00	 call	 ?activate_comanche_master_caution@@YGXXZ ; activate_comanche_master_caution

; 1321 : 
; 1322 : 		set_comanche_text_display_text ("LEFT ENGINE", "DAMAGED");

  0004e	68 00 00 00 00	 push	 OFFSET ??_C@_07OHKEFPKJ@DAMAGED@
  00053	68 00 00 00 00	 push	 OFFSET ??_C@_0M@ILJEMKCB@LEFT?5ENGINE@
  00058	e8 00 00 00 00	 call	 ?set_comanche_text_display_text@@YGXPAD0@Z ; set_comanche_text_display_text
$LN4@notify_com:

; 1323 : 	}
; 1324 : 
; 1325 : 	if (damage & DYNAMICS_DAMAGE_RIGHT_ENGINE)

  0005d	8b 45 08	 mov	 eax, DWORD PTR _damage$[ebp]
  00060	83 e0 10	 and	 eax, 16			; 00000010H
  00063	74 14		 je	 SHORT $LN5@notify_com

; 1326 : 	{
; 1327 : 		activate_comanche_master_caution ();

  00065	e8 00 00 00 00	 call	 ?activate_comanche_master_caution@@YGXXZ ; activate_comanche_master_caution

; 1328 : 
; 1329 : 		set_comanche_text_display_text ("RIGHT ENGINE", "DAMAGED");

  0006a	68 00 00 00 00	 push	 OFFSET ??_C@_07OHKEFPKJ@DAMAGED@
  0006f	68 00 00 00 00	 push	 OFFSET ??_C@_0N@EIOFDGJE@RIGHT?5ENGINE@
  00074	e8 00 00 00 00	 call	 ?set_comanche_text_display_text@@YGXPAD0@Z ; set_comanche_text_display_text
$LN5@notify_com:

; 1330 : 	}
; 1331 : 
; 1332 : 	if (damage & DYNAMICS_DAMAGE_LEFT_ENGINE_FIRE)

  00079	8b 45 08	 mov	 eax, DWORD PTR _damage$[ebp]
  0007c	83 e0 20	 and	 eax, 32			; 00000020H
  0007f	74 14		 je	 SHORT $LN6@notify_com

; 1333 : 	{
; 1334 : 		activate_comanche_master_caution ();

  00081	e8 00 00 00 00	 call	 ?activate_comanche_master_caution@@YGXXZ ; activate_comanche_master_caution

; 1335 : 
; 1336 : 		set_comanche_text_display_text ("LEFT ENGINE FIRE", "");

  00086	68 00 00 00 00	 push	 OFFSET ??_C@_00CNPNBAHC@@
  0008b	68 00 00 00 00	 push	 OFFSET ??_C@_0BB@BDAJKHIM@LEFT?5ENGINE?5FIRE@
  00090	e8 00 00 00 00	 call	 ?set_comanche_text_display_text@@YGXPAD0@Z ; set_comanche_text_display_text
$LN6@notify_com:

; 1337 : 	}
; 1338 : 
; 1339 : 	if (damage & DYNAMICS_DAMAGE_RIGHT_ENGINE_FIRE)

  00095	8b 45 08	 mov	 eax, DWORD PTR _damage$[ebp]
  00098	83 e0 40	 and	 eax, 64			; 00000040H
  0009b	74 14		 je	 SHORT $LN7@notify_com

; 1340 : 	{
; 1341 : 		activate_comanche_master_caution ();

  0009d	e8 00 00 00 00	 call	 ?activate_comanche_master_caution@@YGXXZ ; activate_comanche_master_caution

; 1342 : 
; 1343 : 		set_comanche_text_display_text ("RIGHT ENGINE FIRE", "");

  000a2	68 00 00 00 00	 push	 OFFSET ??_C@_00CNPNBAHC@@
  000a7	68 00 00 00 00	 push	 OFFSET ??_C@_0BC@LCHKAPBN@RIGHT?5ENGINE?5FIRE@
  000ac	e8 00 00 00 00	 call	 ?set_comanche_text_display_text@@YGXPAD0@Z ; set_comanche_text_display_text
$LN7@notify_com:

; 1344 : 	}
; 1345 : 
; 1346 : 	if (damage & DYNAMICS_DAMAGE_LOW_HYDRAULICS)

  000b1	8b 45 08	 mov	 eax, DWORD PTR _damage$[ebp]
  000b4	25 80 00 00 00	 and	 eax, 128		; 00000080H
  000b9	74 14		 je	 SHORT $LN8@notify_com

; 1347 : 	{
; 1348 : 		activate_comanche_master_caution ();

  000bb	e8 00 00 00 00	 call	 ?activate_comanche_master_caution@@YGXXZ ; activate_comanche_master_caution

; 1349 : 
; 1350 : 		set_comanche_text_display_text ("HYDRAULICS", "PRESSURE LOW");

  000c0	68 00 00 00 00	 push	 OFFSET ??_C@_0N@PPIEOIMG@PRESSURE?5LOW@
  000c5	68 00 00 00 00	 push	 OFFSET ??_C@_0L@POFMFPD@HYDRAULICS@
  000ca	e8 00 00 00 00	 call	 ?set_comanche_text_display_text@@YGXPAD0@Z ; set_comanche_text_display_text
$LN8@notify_com:

; 1351 : 	}
; 1352 : 
; 1353 : 	if (damage & DYNAMICS_DAMAGE_SECONDARY_HYDRAULICS)

  000cf	8b 45 08	 mov	 eax, DWORD PTR _damage$[ebp]
  000d2	25 00 00 02 00	 and	 eax, 131072		; 00020000H
  000d7	74 14		 je	 SHORT $LN9@notify_com

; 1354 : 	{
; 1355 : 		activate_comanche_master_caution ();

  000d9	e8 00 00 00 00	 call	 ?activate_comanche_master_caution@@YGXXZ ; activate_comanche_master_caution

; 1356 : 
; 1357 : 		set_comanche_text_display_text ("SEC HYDRAULICS", "DAMAGED");

  000de	68 00 00 00 00	 push	 OFFSET ??_C@_07OHKEFPKJ@DAMAGED@
  000e3	68 00 00 00 00	 push	 OFFSET ??_C@_0P@PBDJEGLC@SEC?5HYDRAULICS@
  000e8	e8 00 00 00 00	 call	 ?set_comanche_text_display_text@@YGXPAD0@Z ; set_comanche_text_display_text
$LN9@notify_com:

; 1358 : 	}
; 1359 : 
; 1360 : 	if (damage & DYNAMICS_DAMAGE_STABILISER)

  000ed	8b 45 08	 mov	 eax, DWORD PTR _damage$[ebp]
  000f0	25 00 01 00 00	 and	 eax, 256		; 00000100H
  000f5	74 14		 je	 SHORT $LN10@notify_com

; 1361 : 	{
; 1362 : 		activate_comanche_master_caution ();

  000f7	e8 00 00 00 00	 call	 ?activate_comanche_master_caution@@YGXXZ ; activate_comanche_master_caution

; 1363 : 
; 1364 : 		set_comanche_text_display_text ("STABILISER", "FAILURE");

  000fc	68 00 00 00 00	 push	 OFFSET ??_C@_07DMOCMFND@FAILURE@
  00101	68 00 00 00 00	 push	 OFFSET ??_C@_0L@LMAEBBOE@STABILISER@
  00106	e8 00 00 00 00	 call	 ?set_comanche_text_display_text@@YGXPAD0@Z ; set_comanche_text_display_text
$LN10@notify_com:

; 1365 : 	}
; 1366 : 
; 1367 : 	if (damage & DYNAMICS_DAMAGE_FUEL_LEAK)

  0010b	8b 45 08	 mov	 eax, DWORD PTR _damage$[ebp]
  0010e	25 00 02 00 00	 and	 eax, 512		; 00000200H
  00113	74 14		 je	 SHORT $LN11@notify_com

; 1368 : 	{
; 1369 : 		activate_comanche_master_caution ();

  00115	e8 00 00 00 00	 call	 ?activate_comanche_master_caution@@YGXXZ ; activate_comanche_master_caution

; 1370 : 
; 1371 : 		set_comanche_text_display_text ("FUEL LEAK", "");

  0011a	68 00 00 00 00	 push	 OFFSET ??_C@_00CNPNBAHC@@
  0011f	68 00 00 00 00	 push	 OFFSET ??_C@_09BHCFOJL@FUEL?5LEAK@
  00124	e8 00 00 00 00	 call	 ?set_comanche_text_display_text@@YGXPAD0@Z ; set_comanche_text_display_text
$LN11@notify_com:

; 1372 : 	}
; 1373 : 
; 1374 : 	if (damage & DYNAMICS_DAMAGE_LOW_OIL_PRESSURE)

  00129	8b 45 08	 mov	 eax, DWORD PTR _damage$[ebp]
  0012c	25 00 04 00 00	 and	 eax, 1024		; 00000400H
  00131	74 14		 je	 SHORT $LN12@notify_com

; 1375 : 	{
; 1376 : 		activate_comanche_master_caution ();

  00133	e8 00 00 00 00	 call	 ?activate_comanche_master_caution@@YGXXZ ; activate_comanche_master_caution

; 1377 : 
; 1378 : 		set_comanche_text_display_text ("LOW OIL", "PRESSURE");

  00138	68 00 00 00 00	 push	 OFFSET ??_C@_08IBNIHFAO@PRESSURE@
  0013d	68 00 00 00 00	 push	 OFFSET ??_C@_07GGBGBLMC@LOW?5OIL@
  00142	e8 00 00 00 00	 call	 ?set_comanche_text_display_text@@YGXPAD0@Z ; set_comanche_text_display_text
$LN12@notify_com:

; 1379 : 	}
; 1380 : 
; 1381 : 	if (damage & DYNAMICS_DAMAGE_HIGH_OIL_PRESSURE)

  00147	8b 45 08	 mov	 eax, DWORD PTR _damage$[ebp]
  0014a	25 00 08 00 00	 and	 eax, 2048		; 00000800H
  0014f	74 14		 je	 SHORT $LN13@notify_com

; 1382 : 	{
; 1383 : 		activate_comanche_master_caution ();

  00151	e8 00 00 00 00	 call	 ?activate_comanche_master_caution@@YGXXZ ; activate_comanche_master_caution

; 1384 : 
; 1385 : 		set_comanche_text_display_text ("HIGH OIL", "PRESSURE");

  00156	68 00 00 00 00	 push	 OFFSET ??_C@_08IBNIHFAO@PRESSURE@
  0015b	68 00 00 00 00	 push	 OFFSET ??_C@_08JPIIBFH@HIGH?5OIL@
  00160	e8 00 00 00 00	 call	 ?set_comanche_text_display_text@@YGXPAD0@Z ; set_comanche_text_display_text
$LN13@notify_com:

; 1386 : 	}
; 1387 : 
; 1388 : 	if (damage & DYNAMICS_DAMAGE_UNDERCARRIAGE)

  00165	8b 45 08	 mov	 eax, DWORD PTR _damage$[ebp]
  00168	25 00 40 00 00	 and	 eax, 16384		; 00004000H
  0016d	74 14		 je	 SHORT $LN1@notify_com

; 1389 : 	{
; 1390 : 		activate_comanche_master_caution ();

  0016f	e8 00 00 00 00	 call	 ?activate_comanche_master_caution@@YGXXZ ; activate_comanche_master_caution

; 1391 : 
; 1392 : 		set_comanche_text_display_text ("GEAR DAMAGED", "");

  00174	68 00 00 00 00	 push	 OFFSET ??_C@_00CNPNBAHC@@
  00179	68 00 00 00 00	 push	 OFFSET ??_C@_0N@MNBKIDKI@GEAR?5DAMAGED@
  0017e	e8 00 00 00 00	 call	 ?set_comanche_text_display_text@@YGXPAD0@Z ; set_comanche_text_display_text
$LN1@notify_com:

; 1393 : 	}
; 1394 : }

  00183	5f		 pop	 edi
  00184	5e		 pop	 esi
  00185	5b		 pop	 ebx
  00186	8b e5		 mov	 esp, ebp
  00188	5d		 pop	 ebp
  00189	c2 04 00	 ret	 4
?notify_comanche_avionics_of_dynamics_fault@@YGXI@Z ENDP ; notify_comanche_avionics_of_dynamics_fault
_TEXT	ENDS
; Function compile flags: /Odtp /ZI
; File c:\users\nhv90\projects\eech\aphavoc\source\gunships\avionics\comanche\cm_dam.c
;	COMDAT ?damage_comanche@@YGXW4GUNSHIP_DAMAGE_LEVELS@@@Z
_TEXT	SEGMENT
tv64 = -76						; size = 4
_comanche_damage$ = -8					; size = 4
_damage$ = -4						; size = 4
_damage_level$ = 8					; size = 4
?damage_comanche@@YGXW4GUNSHIP_DAMAGE_LEVELS@@@Z PROC	; damage_comanche, COMDAT

; 1253 : {

  00000	55		 push	 ebp
  00001	8b ec		 mov	 ebp, esp
  00003	83 ec 4c	 sub	 esp, 76			; 0000004cH
  00006	53		 push	 ebx
  00007	56		 push	 esi
  00008	57		 push	 edi

; 1254 : 	unsigned int
; 1255 : 		damage;
; 1256 : 
; 1257 : 	comanche_damage_flags
; 1258 : 		comanche_damage;
; 1259 : 
; 1260 : 	damage = 0;

  00009	c7 45 fc 00 00
	00 00		 mov	 DWORD PTR _damage$[ebp], 0

; 1261 : 
; 1262 : 	switch (damage_level)

  00010	8b 45 08	 mov	 eax, DWORD PTR _damage_level$[ebp]
  00013	89 45 b4	 mov	 DWORD PTR tv64[ebp], eax
  00016	83 7d b4 00	 cmp	 DWORD PTR tv64[ebp], 0
  0001a	74 15		 je	 SHORT $LN4@damage_com
  0001c	83 7d b4 01	 cmp	 DWORD PTR tv64[ebp], 1
  00020	74 47		 je	 SHORT $LN5@damage_com
  00022	83 7d b4 02	 cmp	 DWORD PTR tv64[ebp], 2
  00026	0f 84 a8 00 00
	00		 je	 $LN6@damage_com
  0002c	e9 3e 01 00 00	 jmp	 $LN7@damage_com
$LN4@damage_com:

; 1263 : 	{
; 1264 : 		case GUNSHIP_DAMAGE_LEVEL_LIGHT:
; 1265 : 		{
; 1266 : 			damage |= 1 << (rand16 () & 0x1f);

  00031	69 05 00 00 00
	00 6d 4e c6 41	 imul	 eax, DWORD PTR ?random_number_seed@@3HA, 1103515245 ; random_number_seed
  0003b	05 39 30 00 00	 add	 eax, 12345		; 00003039H
  00040	a3 00 00 00 00	 mov	 DWORD PTR ?random_number_seed@@3HA, eax ; random_number_seed
  00045	8b 0d 00 00 00
	00		 mov	 ecx, DWORD PTR ?random_number_seed@@3HA ; random_number_seed
  0004b	c1 f9 10	 sar	 ecx, 16			; 00000010H
  0004e	81 e1 ff 7f 00
	00		 and	 ecx, 32767		; 00007fffH
  00054	83 e1 1f	 and	 ecx, 31			; 0000001fH
  00057	ba 01 00 00 00	 mov	 edx, 1
  0005c	d3 e2		 shl	 edx, cl
  0005e	0b 55 fc	 or	 edx, DWORD PTR _damage$[ebp]
  00061	89 55 fc	 mov	 DWORD PTR _damage$[ebp], edx

; 1267 : 
; 1268 : 			break;

  00064	e9 17 01 00 00	 jmp	 $LN2@damage_com
$LN5@damage_com:

; 1269 : 		}
; 1270 : 		case GUNSHIP_DAMAGE_LEVEL_MEDIUM:
; 1271 : 		{
; 1272 : 			damage |= 1 << (rand16 () & 0x1f);

  00069	69 05 00 00 00
	00 6d 4e c6 41	 imul	 eax, DWORD PTR ?random_number_seed@@3HA, 1103515245 ; random_number_seed
  00073	05 39 30 00 00	 add	 eax, 12345		; 00003039H
  00078	a3 00 00 00 00	 mov	 DWORD PTR ?random_number_seed@@3HA, eax ; random_number_seed
  0007d	8b 0d 00 00 00
	00		 mov	 ecx, DWORD PTR ?random_number_seed@@3HA ; random_number_seed
  00083	c1 f9 10	 sar	 ecx, 16			; 00000010H
  00086	81 e1 ff 7f 00
	00		 and	 ecx, 32767		; 00007fffH
  0008c	83 e1 1f	 and	 ecx, 31			; 0000001fH
  0008f	ba 01 00 00 00	 mov	 edx, 1
  00094	d3 e2		 shl	 edx, cl
  00096	0b 55 fc	 or	 edx, DWORD PTR _damage$[ebp]
  00099	89 55 fc	 mov	 DWORD PTR _damage$[ebp], edx

; 1273 : 			damage |= 1 << (rand16 () & 0x1f);

  0009c	69 05 00 00 00
	00 6d 4e c6 41	 imul	 eax, DWORD PTR ?random_number_seed@@3HA, 1103515245 ; random_number_seed
  000a6	05 39 30 00 00	 add	 eax, 12345		; 00003039H
  000ab	a3 00 00 00 00	 mov	 DWORD PTR ?random_number_seed@@3HA, eax ; random_number_seed
  000b0	8b 0d 00 00 00
	00		 mov	 ecx, DWORD PTR ?random_number_seed@@3HA ; random_number_seed
  000b6	c1 f9 10	 sar	 ecx, 16			; 00000010H
  000b9	81 e1 ff 7f 00
	00		 and	 ecx, 32767		; 00007fffH
  000bf	83 e1 1f	 and	 ecx, 31			; 0000001fH
  000c2	ba 01 00 00 00	 mov	 edx, 1
  000c7	d3 e2		 shl	 edx, cl
  000c9	0b 55 fc	 or	 edx, DWORD PTR _damage$[ebp]
  000cc	89 55 fc	 mov	 DWORD PTR _damage$[ebp], edx

; 1274 : 
; 1275 : 			break;

  000cf	e9 ac 00 00 00	 jmp	 $LN2@damage_com
$LN6@damage_com:

; 1276 : 		}
; 1277 : 		case GUNSHIP_DAMAGE_LEVEL_HEAVY:
; 1278 : 		{
; 1279 : 			damage |= 1 << (rand16 () & 0x1f);

  000d4	69 05 00 00 00
	00 6d 4e c6 41	 imul	 eax, DWORD PTR ?random_number_seed@@3HA, 1103515245 ; random_number_seed
  000de	05 39 30 00 00	 add	 eax, 12345		; 00003039H
  000e3	a3 00 00 00 00	 mov	 DWORD PTR ?random_number_seed@@3HA, eax ; random_number_seed
  000e8	8b 0d 00 00 00
	00		 mov	 ecx, DWORD PTR ?random_number_seed@@3HA ; random_number_seed
  000ee	c1 f9 10	 sar	 ecx, 16			; 00000010H
  000f1	81 e1 ff 7f 00
	00		 and	 ecx, 32767		; 00007fffH
  000f7	83 e1 1f	 and	 ecx, 31			; 0000001fH
  000fa	ba 01 00 00 00	 mov	 edx, 1
  000ff	d3 e2		 shl	 edx, cl
  00101	0b 55 fc	 or	 edx, DWORD PTR _damage$[ebp]
  00104	89 55 fc	 mov	 DWORD PTR _damage$[ebp], edx

; 1280 : 			damage |= 1 << (rand16 () & 0x1f);

  00107	69 05 00 00 00
	00 6d 4e c6 41	 imul	 eax, DWORD PTR ?random_number_seed@@3HA, 1103515245 ; random_number_seed
  00111	05 39 30 00 00	 add	 eax, 12345		; 00003039H
  00116	a3 00 00 00 00	 mov	 DWORD PTR ?random_number_seed@@3HA, eax ; random_number_seed
  0011b	8b 0d 00 00 00
	00		 mov	 ecx, DWORD PTR ?random_number_seed@@3HA ; random_number_seed
  00121	c1 f9 10	 sar	 ecx, 16			; 00000010H
  00124	81 e1 ff 7f 00
	00		 and	 ecx, 32767		; 00007fffH
  0012a	83 e1 1f	 and	 ecx, 31			; 0000001fH
  0012d	ba 01 00 00 00	 mov	 edx, 1
  00132	d3 e2		 shl	 edx, cl
  00134	0b 55 fc	 or	 edx, DWORD PTR _damage$[ebp]
  00137	89 55 fc	 mov	 DWORD PTR _damage$[ebp], edx

; 1281 : 			damage |= 1 << (rand16 () & 0x1f);

  0013a	69 05 00 00 00
	00 6d 4e c6 41	 imul	 eax, DWORD PTR ?random_number_seed@@3HA, 1103515245 ; random_number_seed
  00144	05 39 30 00 00	 add	 eax, 12345		; 00003039H
  00149	a3 00 00 00 00	 mov	 DWORD PTR ?random_number_seed@@3HA, eax ; random_number_seed
  0014e	8b 0d 00 00 00
	00		 mov	 ecx, DWORD PTR ?random_number_seed@@3HA ; random_number_seed
  00154	c1 f9 10	 sar	 ecx, 16			; 00000010H
  00157	81 e1 ff 7f 00
	00		 and	 ecx, 32767		; 00007fffH
  0015d	83 e1 1f	 and	 ecx, 31			; 0000001fH
  00160	ba 01 00 00 00	 mov	 edx, 1
  00165	d3 e2		 shl	 edx, cl
  00167	0b 55 fc	 or	 edx, DWORD PTR _damage$[ebp]
  0016a	89 55 fc	 mov	 DWORD PTR _damage$[ebp], edx

; 1282 : 
; 1283 : 			break;

  0016d	eb 11		 jmp	 SHORT $LN2@damage_com
$LN7@damage_com:

; 1284 : 		}
; 1285 : 		default:
; 1286 : 		{
; 1287 : 			debug_fatal ("Invalid damage_level = %d", damage_level);

  0016f	8b 45 08	 mov	 eax, DWORD PTR _damage_level$[ebp]
  00172	50		 push	 eax
  00173	68 00 00 00 00	 push	 OFFSET ??_C@_0BK@EECAIEOA@Invalid?5damage_level?5?$DN?5?$CFd@
  00178	e8 00 00 00 00	 call	 ?debug_fatal@@YAXPBDZZ	; debug_fatal
  0017d	83 c4 08	 add	 esp, 8
$LN2@damage_com:

; 1288 : 
; 1289 : 			break;
; 1290 : 		}
; 1291 : 	}
; 1292 : 
; 1293 : 	comanche_damage.flags = damage;

  00180	8b 45 fc	 mov	 eax, DWORD PTR _damage$[ebp]
  00183	89 45 f8	 mov	 DWORD PTR _comanche_damage$[ebp], eax

; 1294 : 
; 1295 : 	damage_systems (comanche_damage);

  00186	8b 45 f8	 mov	 eax, DWORD PTR _comanche_damage$[ebp]
  00189	50		 push	 eax
  0018a	e8 00 00 00 00	 call	 ?damage_systems@@YGXTCOMANCHE_DAMAGE_FLAGS@@@Z ; damage_systems

; 1296 : }

  0018f	5f		 pop	 edi
  00190	5e		 pop	 esi
  00191	5b		 pop	 ebx
  00192	8b e5		 mov	 esp, ebp
  00194	5d		 pop	 ebp
  00195	c2 04 00	 ret	 4
?damage_comanche@@YGXW4GUNSHIP_DAMAGE_LEVELS@@@Z ENDP	; damage_comanche
_TEXT	ENDS
; Function compile flags: /Odtp /ZI
; File c:\users\nhv90\projects\eech\aphavoc\source\gunships\avionics\comanche\cm_dam.c
;	COMDAT ?repair_comanche_weapon_damage@@YGXXZ
_TEXT	SEGMENT
?repair_comanche_weapon_damage@@YGXXZ PROC		; repair_comanche_weapon_damage, COMDAT

; 587  : {

  00000	55		 push	 ebp
  00001	8b ec		 mov	 ebp, esp
  00003	83 ec 40	 sub	 esp, 64			; 00000040H
  00006	53		 push	 ebx
  00007	56		 push	 esi
  00008	57		 push	 edi

; 588  : 	set_comanche_text_display_text ("", "");

  00009	68 00 00 00 00	 push	 OFFSET ??_C@_00CNPNBAHC@@
  0000e	68 00 00 00 00	 push	 OFFSET ??_C@_00CNPNBAHC@@
  00013	e8 00 00 00 00	 call	 ?set_comanche_text_display_text@@YGXPAD0@Z ; set_comanche_text_display_text

; 589  : 
; 590  : 	comanche_damage.gun_jammed						= FALSE;

  00018	a1 00 00 00 00	 mov	 eax, DWORD PTR ?comanche_damage@@3TCOMANCHE_DAMAGE_FLAGS@@A ; comanche_damage
  0001d	25 ff ff df ff	 and	 eax, -2097153		; ffdfffffH
  00022	a3 00 00 00 00	 mov	 DWORD PTR ?comanche_damage@@3TCOMANCHE_DAMAGE_FLAGS@@A, eax ; comanche_damage

; 591  : 	comanche_damage.lh_stub_wing_pylon			= FALSE;

  00027	a1 00 00 00 00	 mov	 eax, DWORD PTR ?comanche_damage@@3TCOMANCHE_DAMAGE_FLAGS@@A ; comanche_damage
  0002c	25 ff ff bf ff	 and	 eax, -4194305		; ffbfffffH
  00031	a3 00 00 00 00	 mov	 DWORD PTR ?comanche_damage@@3TCOMANCHE_DAMAGE_FLAGS@@A, eax ; comanche_damage

; 592  : 	comanche_damage.lh_bay_door_inner_pylon	= FALSE;

  00036	a1 00 00 00 00	 mov	 eax, DWORD PTR ?comanche_damage@@3TCOMANCHE_DAMAGE_FLAGS@@A ; comanche_damage
  0003b	25 ff ff 7f ff	 and	 eax, -8388609		; ff7fffffH
  00040	a3 00 00 00 00	 mov	 DWORD PTR ?comanche_damage@@3TCOMANCHE_DAMAGE_FLAGS@@A, eax ; comanche_damage

; 593  : 	comanche_damage.lh_bay_door_middle_pylon	= FALSE;

  00045	a1 00 00 00 00	 mov	 eax, DWORD PTR ?comanche_damage@@3TCOMANCHE_DAMAGE_FLAGS@@A ; comanche_damage
  0004a	25 ff ff ff fe	 and	 eax, -16777217		; feffffffH
  0004f	a3 00 00 00 00	 mov	 DWORD PTR ?comanche_damage@@3TCOMANCHE_DAMAGE_FLAGS@@A, eax ; comanche_damage

; 594  : 	comanche_damage.lh_bay_door_outer_pylon	= FALSE;

  00054	a1 00 00 00 00	 mov	 eax, DWORD PTR ?comanche_damage@@3TCOMANCHE_DAMAGE_FLAGS@@A ; comanche_damage
  00059	25 ff ff ff fd	 and	 eax, -33554433		; fdffffffH
  0005e	a3 00 00 00 00	 mov	 DWORD PTR ?comanche_damage@@3TCOMANCHE_DAMAGE_FLAGS@@A, eax ; comanche_damage

; 595  : 	comanche_damage.rh_stub_wing_pylon			= FALSE;

  00063	a1 00 00 00 00	 mov	 eax, DWORD PTR ?comanche_damage@@3TCOMANCHE_DAMAGE_FLAGS@@A ; comanche_damage
  00068	25 ff ff ff fb	 and	 eax, -67108865		; fbffffffH
  0006d	a3 00 00 00 00	 mov	 DWORD PTR ?comanche_damage@@3TCOMANCHE_DAMAGE_FLAGS@@A, eax ; comanche_damage

; 596  : 	comanche_damage.rh_bay_door_inner_pylon	= FALSE;

  00072	a1 00 00 00 00	 mov	 eax, DWORD PTR ?comanche_damage@@3TCOMANCHE_DAMAGE_FLAGS@@A ; comanche_damage
  00077	25 ff ff ff f7	 and	 eax, -134217729		; f7ffffffH
  0007c	a3 00 00 00 00	 mov	 DWORD PTR ?comanche_damage@@3TCOMANCHE_DAMAGE_FLAGS@@A, eax ; comanche_damage

; 597  : 	comanche_damage.rh_bay_door_middle_pylon	= FALSE;

  00081	a1 00 00 00 00	 mov	 eax, DWORD PTR ?comanche_damage@@3TCOMANCHE_DAMAGE_FLAGS@@A ; comanche_damage
  00086	25 ff ff ff ef	 and	 eax, -268435457		; efffffffH
  0008b	a3 00 00 00 00	 mov	 DWORD PTR ?comanche_damage@@3TCOMANCHE_DAMAGE_FLAGS@@A, eax ; comanche_damage

; 598  : 	comanche_damage.rh_bay_door_outer_pylon	= FALSE;

  00090	a1 00 00 00 00	 mov	 eax, DWORD PTR ?comanche_damage@@3TCOMANCHE_DAMAGE_FLAGS@@A ; comanche_damage
  00095	25 ff ff ff df	 and	 eax, -536870913		; dfffffffH
  0009a	a3 00 00 00 00	 mov	 DWORD PTR ?comanche_damage@@3TCOMANCHE_DAMAGE_FLAGS@@A, eax ; comanche_damage

; 599  : 	comanche_damage.chaff_dispensers				= FALSE;

  0009f	a1 00 00 00 00	 mov	 eax, DWORD PTR ?comanche_damage@@3TCOMANCHE_DAMAGE_FLAGS@@A ; comanche_damage
  000a4	25 ff ff ff bf	 and	 eax, -1073741825	; bfffffffH
  000a9	a3 00 00 00 00	 mov	 DWORD PTR ?comanche_damage@@3TCOMANCHE_DAMAGE_FLAGS@@A, eax ; comanche_damage

; 600  : 	comanche_damage.flare_dispensers				= FALSE;

  000ae	a1 00 00 00 00	 mov	 eax, DWORD PTR ?comanche_damage@@3TCOMANCHE_DAMAGE_FLAGS@@A ; comanche_damage
  000b3	25 ff ff ff 7f	 and	 eax, 2147483647		; 7fffffffH
  000b8	a3 00 00 00 00	 mov	 DWORD PTR ?comanche_damage@@3TCOMANCHE_DAMAGE_FLAGS@@A, eax ; comanche_damage

; 601  : 
; 602  : 	set_comanche_weapon_damage_status ();

  000bd	e8 00 00 00 00	 call	 ?set_comanche_weapon_damage_status@@YGXXZ ; set_comanche_weapon_damage_status

; 603  : }

  000c2	5f		 pop	 edi
  000c3	5e		 pop	 esi
  000c4	5b		 pop	 ebx
  000c5	8b e5		 mov	 esp, ebp
  000c7	5d		 pop	 ebp
  000c8	c3		 ret	 0
?repair_comanche_weapon_damage@@YGXXZ ENDP		; repair_comanche_weapon_damage
_TEXT	ENDS
; Function compile flags: /Odtp /ZI
; File c:\users\nhv90\projects\eech\aphavoc\source\gunships\avionics\comanche\cm_dam.c
;	COMDAT ?partially_repair_comanche_damage@@YGXXZ
_TEXT	SEGMENT
tv596 = -68						; size = 4
tv581 = -68						; size = 4
tv566 = -68						; size = 4
tv551 = -68						; size = 4
tv536 = -68						; size = 4
tv521 = -68						; size = 4
tv506 = -68						; size = 4
tv491 = -68						; size = 4
tv476 = -68						; size = 4
tv461 = -68						; size = 4
tv446 = -68						; size = 4
tv431 = -68						; size = 4
tv411 = -68						; size = 4
tv391 = -68						; size = 4
tv371 = -68						; size = 4
tv351 = -68						; size = 4
tv331 = -68						; size = 4
tv311 = -68						; size = 4
tv291 = -68						; size = 4
tv271 = -68						; size = 4
tv256 = -68						; size = 4
tv241 = -68						; size = 4
tv226 = -68						; size = 4
tv211 = -68						; size = 4
tv196 = -68						; size = 4
tv181 = -68						; size = 4
tv166 = -68						; size = 4
tv151 = -68						; size = 4
tv136 = -68						; size = 4
tv89 = -68						; size = 4
tv75 = -68						; size = 4
?partially_repair_comanche_damage@@YGXXZ PROC		; partially_repair_comanche_damage, COMDAT

; 315  : {

  00000	55		 push	 ebp
  00001	8b ec		 mov	 ebp, esp
  00003	83 ec 44	 sub	 esp, 68			; 00000044H
  00006	53		 push	 ebx
  00007	56		 push	 esi
  00008	57		 push	 edi

; 316  : 	set_comanche_text_display_text ("", "");

  00009	68 00 00 00 00	 push	 OFFSET ??_C@_00CNPNBAHC@@
  0000e	68 00 00 00 00	 push	 OFFSET ??_C@_00CNPNBAHC@@
  00013	e8 00 00 00 00	 call	 ?set_comanche_text_display_text@@YGXPAD0@Z ; set_comanche_text_display_text

; 317  : 
; 318  : 	fire_extinguisher_used = FALSE;

  00018	c7 05 00 00 00
	00 00 00 00 00	 mov	 DWORD PTR ?fire_extinguisher_used@@3HA, 0 ; fire_extinguisher_used

; 319  : 
; 320  : 	////////////////////////////////////////
; 321  : 
; 322  : 	if (comanche_damage.radar)

  00022	a1 00 00 00 00	 mov	 eax, DWORD PTR ?comanche_damage@@3TCOMANCHE_DAMAGE_FLAGS@@A ; comanche_damage
  00027	83 e0 01	 and	 eax, 1
  0002a	74 5e		 je	 SHORT $LN2@partially_

; 323  : 	{
; 324  : 		comanche_damage.radar = frand1 () > 0.90;

  0002c	69 05 00 00 00
	00 6d 4e c6 41	 imul	 eax, DWORD PTR ?random_number_seed@@3HA, 1103515245 ; random_number_seed
  00036	05 39 30 00 00	 add	 eax, 12345		; 00003039H
  0003b	a3 00 00 00 00	 mov	 DWORD PTR ?random_number_seed@@3HA, eax ; random_number_seed
  00040	8b 0d 00 00 00
	00		 mov	 ecx, DWORD PTR ?random_number_seed@@3HA ; random_number_seed
  00046	c1 f9 10	 sar	 ecx, 16			; 00000010H
  00049	81 e1 ff 7f 00
	00		 and	 ecx, 32767		; 00007fffH
  0004f	f2 0f 2a c1	 cvtsi2sd xmm0, ecx
  00053	f2 0f 59 05 00
	00 00 00	 mulsd	 xmm0, QWORD PTR __real@3f00002000400080
  0005b	66 0f 2f 05 00
	00 00 00	 comisd	 xmm0, QWORD PTR __real@3feccccccccccccd
  00063	76 09		 jbe	 SHORT $LN42@partially_
  00065	c7 45 bc 01 00
	00 00		 mov	 DWORD PTR tv75[ebp], 1
  0006c	eb 07		 jmp	 SHORT $LN43@partially_
$LN42@partially_:
  0006e	c7 45 bc 00 00
	00 00		 mov	 DWORD PTR tv75[ebp], 0
$LN43@partially_:
  00075	8b 55 bc	 mov	 edx, DWORD PTR tv75[ebp]
  00078	83 e2 01	 and	 edx, 1
  0007b	a1 00 00 00 00	 mov	 eax, DWORD PTR ?comanche_damage@@3TCOMANCHE_DAMAGE_FLAGS@@A ; comanche_damage
  00080	83 e0 fe	 and	 eax, -2			; fffffffeH
  00083	0b c2		 or	 eax, edx
  00085	a3 00 00 00 00	 mov	 DWORD PTR ?comanche_damage@@3TCOMANCHE_DAMAGE_FLAGS@@A, eax ; comanche_damage
$LN2@partially_:

; 325  : 	}
; 326  : 
; 327  : 	////////////////////////////////////////
; 328  : 
; 329  : 	if (comanche_damage.flir)

  0008a	a1 00 00 00 00	 mov	 eax, DWORD PTR ?comanche_damage@@3TCOMANCHE_DAMAGE_FLAGS@@A ; comanche_damage
  0008f	d1 e8		 shr	 eax, 1
  00091	83 e0 01	 and	 eax, 1
  00094	74 60		 je	 SHORT $LN3@partially_

; 330  : 	{
; 331  : 		comanche_damage.flir = frand1 () > 0.90;

  00096	69 05 00 00 00
	00 6d 4e c6 41	 imul	 eax, DWORD PTR ?random_number_seed@@3HA, 1103515245 ; random_number_seed
  000a0	05 39 30 00 00	 add	 eax, 12345		; 00003039H
  000a5	a3 00 00 00 00	 mov	 DWORD PTR ?random_number_seed@@3HA, eax ; random_number_seed
  000aa	8b 0d 00 00 00
	00		 mov	 ecx, DWORD PTR ?random_number_seed@@3HA ; random_number_seed
  000b0	c1 f9 10	 sar	 ecx, 16			; 00000010H
  000b3	81 e1 ff 7f 00
	00		 and	 ecx, 32767		; 00007fffH
  000b9	f2 0f 2a c1	 cvtsi2sd xmm0, ecx
  000bd	f2 0f 59 05 00
	00 00 00	 mulsd	 xmm0, QWORD PTR __real@3f00002000400080
  000c5	66 0f 2f 05 00
	00 00 00	 comisd	 xmm0, QWORD PTR __real@3feccccccccccccd
  000cd	76 09		 jbe	 SHORT $LN44@partially_
  000cf	c7 45 bc 01 00
	00 00		 mov	 DWORD PTR tv89[ebp], 1
  000d6	eb 07		 jmp	 SHORT $LN45@partially_
$LN44@partially_:
  000d8	c7 45 bc 00 00
	00 00		 mov	 DWORD PTR tv89[ebp], 0
$LN45@partially_:
  000df	8b 55 bc	 mov	 edx, DWORD PTR tv89[ebp]
  000e2	83 e2 01	 and	 edx, 1
  000e5	d1 e2		 shl	 edx, 1
  000e7	a1 00 00 00 00	 mov	 eax, DWORD PTR ?comanche_damage@@3TCOMANCHE_DAMAGE_FLAGS@@A ; comanche_damage
  000ec	83 e0 fd	 and	 eax, -3			; fffffffdH
  000ef	0b c2		 or	 eax, edx
  000f1	a3 00 00 00 00	 mov	 DWORD PTR ?comanche_damage@@3TCOMANCHE_DAMAGE_FLAGS@@A, eax ; comanche_damage
$LN3@partially_:

; 332  : 	}
; 333  : 
; 334  : 	////////////////////////////////////////
; 335  : 
; 336  : 	if (comanche_damage.dtv)

  000f6	a1 00 00 00 00	 mov	 eax, DWORD PTR ?comanche_damage@@3TCOMANCHE_DAMAGE_FLAGS@@A ; comanche_damage
  000fb	c1 e8 02	 shr	 eax, 2
  000fe	83 e0 01	 and	 eax, 1
  00101	74 61		 je	 SHORT $LN4@partially_

; 337  : 	{
; 338  : 		comanche_damage.dtv = frand1 () > 0.90;

  00103	69 05 00 00 00
	00 6d 4e c6 41	 imul	 eax, DWORD PTR ?random_number_seed@@3HA, 1103515245 ; random_number_seed
  0010d	05 39 30 00 00	 add	 eax, 12345		; 00003039H
  00112	a3 00 00 00 00	 mov	 DWORD PTR ?random_number_seed@@3HA, eax ; random_number_seed
  00117	8b 0d 00 00 00
	00		 mov	 ecx, DWORD PTR ?random_number_seed@@3HA ; random_number_seed
  0011d	c1 f9 10	 sar	 ecx, 16			; 00000010H
  00120	81 e1 ff 7f 00
	00		 and	 ecx, 32767		; 00007fffH
  00126	f2 0f 2a c1	 cvtsi2sd xmm0, ecx
  0012a	f2 0f 59 05 00
	00 00 00	 mulsd	 xmm0, QWORD PTR __real@3f00002000400080
  00132	66 0f 2f 05 00
	00 00 00	 comisd	 xmm0, QWORD PTR __real@3feccccccccccccd
  0013a	76 09		 jbe	 SHORT $LN46@partially_
  0013c	c7 45 bc 01 00
	00 00		 mov	 DWORD PTR tv136[ebp], 1
  00143	eb 07		 jmp	 SHORT $LN47@partially_
$LN46@partially_:
  00145	c7 45 bc 00 00
	00 00		 mov	 DWORD PTR tv136[ebp], 0
$LN47@partially_:
  0014c	8b 55 bc	 mov	 edx, DWORD PTR tv136[ebp]
  0014f	83 e2 01	 and	 edx, 1
  00152	c1 e2 02	 shl	 edx, 2
  00155	a1 00 00 00 00	 mov	 eax, DWORD PTR ?comanche_damage@@3TCOMANCHE_DAMAGE_FLAGS@@A ; comanche_damage
  0015a	83 e0 fb	 and	 eax, -5			; fffffffbH
  0015d	0b c2		 or	 eax, edx
  0015f	a3 00 00 00 00	 mov	 DWORD PTR ?comanche_damage@@3TCOMANCHE_DAMAGE_FLAGS@@A, eax ; comanche_damage
$LN4@partially_:

; 339  : 	}
; 340  : 
; 341  : 	////////////////////////////////////////
; 342  : 
; 343  : 	if (comanche_damage.dvo)

  00164	a1 00 00 00 00	 mov	 eax, DWORD PTR ?comanche_damage@@3TCOMANCHE_DAMAGE_FLAGS@@A ; comanche_damage
  00169	c1 e8 03	 shr	 eax, 3
  0016c	83 e0 01	 and	 eax, 1
  0016f	74 61		 je	 SHORT $LN5@partially_

; 344  : 	{
; 345  : 		comanche_damage.dvo = frand1 () > 0.90;

  00171	69 05 00 00 00
	00 6d 4e c6 41	 imul	 eax, DWORD PTR ?random_number_seed@@3HA, 1103515245 ; random_number_seed
  0017b	05 39 30 00 00	 add	 eax, 12345		; 00003039H
  00180	a3 00 00 00 00	 mov	 DWORD PTR ?random_number_seed@@3HA, eax ; random_number_seed
  00185	8b 0d 00 00 00
	00		 mov	 ecx, DWORD PTR ?random_number_seed@@3HA ; random_number_seed
  0018b	c1 f9 10	 sar	 ecx, 16			; 00000010H
  0018e	81 e1 ff 7f 00
	00		 and	 ecx, 32767		; 00007fffH
  00194	f2 0f 2a c1	 cvtsi2sd xmm0, ecx
  00198	f2 0f 59 05 00
	00 00 00	 mulsd	 xmm0, QWORD PTR __real@3f00002000400080
  001a0	66 0f 2f 05 00
	00 00 00	 comisd	 xmm0, QWORD PTR __real@3feccccccccccccd
  001a8	76 09		 jbe	 SHORT $LN48@partially_
  001aa	c7 45 bc 01 00
	00 00		 mov	 DWORD PTR tv151[ebp], 1
  001b1	eb 07		 jmp	 SHORT $LN49@partially_
$LN48@partially_:
  001b3	c7 45 bc 00 00
	00 00		 mov	 DWORD PTR tv151[ebp], 0
$LN49@partially_:
  001ba	8b 55 bc	 mov	 edx, DWORD PTR tv151[ebp]
  001bd	83 e2 01	 and	 edx, 1
  001c0	c1 e2 03	 shl	 edx, 3
  001c3	a1 00 00 00 00	 mov	 eax, DWORD PTR ?comanche_damage@@3TCOMANCHE_DAMAGE_FLAGS@@A ; comanche_damage
  001c8	83 e0 f7	 and	 eax, -9			; fffffff7H
  001cb	0b c2		 or	 eax, edx
  001cd	a3 00 00 00 00	 mov	 DWORD PTR ?comanche_damage@@3TCOMANCHE_DAMAGE_FLAGS@@A, eax ; comanche_damage
$LN5@partially_:

; 346  : 	}
; 347  : 
; 348  : 	////////////////////////////////////////
; 349  : 
; 350  : 	if (comanche_damage.laser_designator)

  001d2	a1 00 00 00 00	 mov	 eax, DWORD PTR ?comanche_damage@@3TCOMANCHE_DAMAGE_FLAGS@@A ; comanche_damage
  001d7	c1 e8 04	 shr	 eax, 4
  001da	83 e0 01	 and	 eax, 1
  001dd	74 61		 je	 SHORT $LN6@partially_

; 351  : 	{
; 352  : 		comanche_damage.laser_designator = frand1 () > 0.90;

  001df	69 05 00 00 00
	00 6d 4e c6 41	 imul	 eax, DWORD PTR ?random_number_seed@@3HA, 1103515245 ; random_number_seed
  001e9	05 39 30 00 00	 add	 eax, 12345		; 00003039H
  001ee	a3 00 00 00 00	 mov	 DWORD PTR ?random_number_seed@@3HA, eax ; random_number_seed
  001f3	8b 0d 00 00 00
	00		 mov	 ecx, DWORD PTR ?random_number_seed@@3HA ; random_number_seed
  001f9	c1 f9 10	 sar	 ecx, 16			; 00000010H
  001fc	81 e1 ff 7f 00
	00		 and	 ecx, 32767		; 00007fffH
  00202	f2 0f 2a c1	 cvtsi2sd xmm0, ecx
  00206	f2 0f 59 05 00
	00 00 00	 mulsd	 xmm0, QWORD PTR __real@3f00002000400080
  0020e	66 0f 2f 05 00
	00 00 00	 comisd	 xmm0, QWORD PTR __real@3feccccccccccccd
  00216	76 09		 jbe	 SHORT $LN50@partially_
  00218	c7 45 bc 01 00
	00 00		 mov	 DWORD PTR tv166[ebp], 1
  0021f	eb 07		 jmp	 SHORT $LN51@partially_
$LN50@partially_:
  00221	c7 45 bc 00 00
	00 00		 mov	 DWORD PTR tv166[ebp], 0
$LN51@partially_:
  00228	8b 55 bc	 mov	 edx, DWORD PTR tv166[ebp]
  0022b	83 e2 01	 and	 edx, 1
  0022e	c1 e2 04	 shl	 edx, 4
  00231	a1 00 00 00 00	 mov	 eax, DWORD PTR ?comanche_damage@@3TCOMANCHE_DAMAGE_FLAGS@@A ; comanche_damage
  00236	83 e0 ef	 and	 eax, -17		; ffffffefH
  00239	0b c2		 or	 eax, edx
  0023b	a3 00 00 00 00	 mov	 DWORD PTR ?comanche_damage@@3TCOMANCHE_DAMAGE_FLAGS@@A, eax ; comanche_damage
$LN6@partially_:

; 353  : 	}
; 354  : 
; 355  : 	////////////////////////////////////////
; 356  : 
; 357  : 	if (comanche_damage.radar_jammer)

  00240	a1 00 00 00 00	 mov	 eax, DWORD PTR ?comanche_damage@@3TCOMANCHE_DAMAGE_FLAGS@@A ; comanche_damage
  00245	c1 e8 05	 shr	 eax, 5
  00248	83 e0 01	 and	 eax, 1
  0024b	74 61		 je	 SHORT $LN7@partially_

; 358  : 	{
; 359  : 		comanche_damage.radar_jammer = frand1 () > 0.90;

  0024d	69 05 00 00 00
	00 6d 4e c6 41	 imul	 eax, DWORD PTR ?random_number_seed@@3HA, 1103515245 ; random_number_seed
  00257	05 39 30 00 00	 add	 eax, 12345		; 00003039H
  0025c	a3 00 00 00 00	 mov	 DWORD PTR ?random_number_seed@@3HA, eax ; random_number_seed
  00261	8b 0d 00 00 00
	00		 mov	 ecx, DWORD PTR ?random_number_seed@@3HA ; random_number_seed
  00267	c1 f9 10	 sar	 ecx, 16			; 00000010H
  0026a	81 e1 ff 7f 00
	00		 and	 ecx, 32767		; 00007fffH
  00270	f2 0f 2a c1	 cvtsi2sd xmm0, ecx
  00274	f2 0f 59 05 00
	00 00 00	 mulsd	 xmm0, QWORD PTR __real@3f00002000400080
  0027c	66 0f 2f 05 00
	00 00 00	 comisd	 xmm0, QWORD PTR __real@3feccccccccccccd
  00284	76 09		 jbe	 SHORT $LN52@partially_
  00286	c7 45 bc 01 00
	00 00		 mov	 DWORD PTR tv181[ebp], 1
  0028d	eb 07		 jmp	 SHORT $LN53@partially_
$LN52@partially_:
  0028f	c7 45 bc 00 00
	00 00		 mov	 DWORD PTR tv181[ebp], 0
$LN53@partially_:
  00296	8b 55 bc	 mov	 edx, DWORD PTR tv181[ebp]
  00299	83 e2 01	 and	 edx, 1
  0029c	c1 e2 05	 shl	 edx, 5
  0029f	a1 00 00 00 00	 mov	 eax, DWORD PTR ?comanche_damage@@3TCOMANCHE_DAMAGE_FLAGS@@A ; comanche_damage
  002a4	83 e0 df	 and	 eax, -33		; ffffffdfH
  002a7	0b c2		 or	 eax, edx
  002a9	a3 00 00 00 00	 mov	 DWORD PTR ?comanche_damage@@3TCOMANCHE_DAMAGE_FLAGS@@A, eax ; comanche_damage
$LN7@partially_:

; 360  : 	}
; 361  : 
; 362  : 	////////////////////////////////////////
; 363  : 
; 364  : 	if (comanche_damage.infra_red_jammer)

  002ae	a1 00 00 00 00	 mov	 eax, DWORD PTR ?comanche_damage@@3TCOMANCHE_DAMAGE_FLAGS@@A ; comanche_damage
  002b3	c1 e8 06	 shr	 eax, 6
  002b6	83 e0 01	 and	 eax, 1
  002b9	74 61		 je	 SHORT $LN8@partially_

; 365  : 	{
; 366  : 		comanche_damage.infra_red_jammer = frand1 () > 0.90;

  002bb	69 05 00 00 00
	00 6d 4e c6 41	 imul	 eax, DWORD PTR ?random_number_seed@@3HA, 1103515245 ; random_number_seed
  002c5	05 39 30 00 00	 add	 eax, 12345		; 00003039H
  002ca	a3 00 00 00 00	 mov	 DWORD PTR ?random_number_seed@@3HA, eax ; random_number_seed
  002cf	8b 0d 00 00 00
	00		 mov	 ecx, DWORD PTR ?random_number_seed@@3HA ; random_number_seed
  002d5	c1 f9 10	 sar	 ecx, 16			; 00000010H
  002d8	81 e1 ff 7f 00
	00		 and	 ecx, 32767		; 00007fffH
  002de	f2 0f 2a c1	 cvtsi2sd xmm0, ecx
  002e2	f2 0f 59 05 00
	00 00 00	 mulsd	 xmm0, QWORD PTR __real@3f00002000400080
  002ea	66 0f 2f 05 00
	00 00 00	 comisd	 xmm0, QWORD PTR __real@3feccccccccccccd
  002f2	76 09		 jbe	 SHORT $LN54@partially_
  002f4	c7 45 bc 01 00
	00 00		 mov	 DWORD PTR tv196[ebp], 1
  002fb	eb 07		 jmp	 SHORT $LN55@partially_
$LN54@partially_:
  002fd	c7 45 bc 00 00
	00 00		 mov	 DWORD PTR tv196[ebp], 0
$LN55@partially_:
  00304	8b 55 bc	 mov	 edx, DWORD PTR tv196[ebp]
  00307	83 e2 01	 and	 edx, 1
  0030a	c1 e2 06	 shl	 edx, 6
  0030d	a1 00 00 00 00	 mov	 eax, DWORD PTR ?comanche_damage@@3TCOMANCHE_DAMAGE_FLAGS@@A ; comanche_damage
  00312	83 e0 bf	 and	 eax, -65		; ffffffbfH
  00315	0b c2		 or	 eax, edx
  00317	a3 00 00 00 00	 mov	 DWORD PTR ?comanche_damage@@3TCOMANCHE_DAMAGE_FLAGS@@A, eax ; comanche_damage
$LN8@partially_:

; 367  : 	}
; 368  : 
; 369  : 	////////////////////////////////////////
; 370  : 
; 371  : 	if (comanche_damage.navigation_computer)

  0031c	a1 00 00 00 00	 mov	 eax, DWORD PTR ?comanche_damage@@3TCOMANCHE_DAMAGE_FLAGS@@A ; comanche_damage
  00321	c1 e8 07	 shr	 eax, 7
  00324	83 e0 01	 and	 eax, 1
  00327	74 63		 je	 SHORT $LN9@partially_

; 372  : 	{
; 373  : 		comanche_damage.navigation_computer = frand1 () > 0.90;

  00329	69 05 00 00 00
	00 6d 4e c6 41	 imul	 eax, DWORD PTR ?random_number_seed@@3HA, 1103515245 ; random_number_seed
  00333	05 39 30 00 00	 add	 eax, 12345		; 00003039H
  00338	a3 00 00 00 00	 mov	 DWORD PTR ?random_number_seed@@3HA, eax ; random_number_seed
  0033d	8b 0d 00 00 00
	00		 mov	 ecx, DWORD PTR ?random_number_seed@@3HA ; random_number_seed
  00343	c1 f9 10	 sar	 ecx, 16			; 00000010H
  00346	81 e1 ff 7f 00
	00		 and	 ecx, 32767		; 00007fffH
  0034c	f2 0f 2a c1	 cvtsi2sd xmm0, ecx
  00350	f2 0f 59 05 00
	00 00 00	 mulsd	 xmm0, QWORD PTR __real@3f00002000400080
  00358	66 0f 2f 05 00
	00 00 00	 comisd	 xmm0, QWORD PTR __real@3feccccccccccccd
  00360	76 09		 jbe	 SHORT $LN56@partially_
  00362	c7 45 bc 01 00
	00 00		 mov	 DWORD PTR tv211[ebp], 1
  00369	eb 07		 jmp	 SHORT $LN57@partially_
$LN56@partially_:
  0036b	c7 45 bc 00 00
	00 00		 mov	 DWORD PTR tv211[ebp], 0
$LN57@partially_:
  00372	8b 55 bc	 mov	 edx, DWORD PTR tv211[ebp]
  00375	83 e2 01	 and	 edx, 1
  00378	c1 e2 07	 shl	 edx, 7
  0037b	a1 00 00 00 00	 mov	 eax, DWORD PTR ?comanche_damage@@3TCOMANCHE_DAMAGE_FLAGS@@A ; comanche_damage
  00380	25 7f ff ff ff	 and	 eax, -129		; ffffff7fH
  00385	0b c2		 or	 eax, edx
  00387	a3 00 00 00 00	 mov	 DWORD PTR ?comanche_damage@@3TCOMANCHE_DAMAGE_FLAGS@@A, eax ; comanche_damage
$LN9@partially_:

; 374  : 	}
; 375  : 
; 376  : 	////////////////////////////////////////
; 377  : 
; 378  : 	if (comanche_damage.communications)

  0038c	a1 00 00 00 00	 mov	 eax, DWORD PTR ?comanche_damage@@3TCOMANCHE_DAMAGE_FLAGS@@A ; comanche_damage
  00391	c1 e8 08	 shr	 eax, 8
  00394	83 e0 01	 and	 eax, 1
  00397	74 63		 je	 SHORT $LN10@partially_

; 379  : 	{
; 380  : 		comanche_damage.communications = frand1 () > 0.90;

  00399	69 05 00 00 00
	00 6d 4e c6 41	 imul	 eax, DWORD PTR ?random_number_seed@@3HA, 1103515245 ; random_number_seed
  003a3	05 39 30 00 00	 add	 eax, 12345		; 00003039H
  003a8	a3 00 00 00 00	 mov	 DWORD PTR ?random_number_seed@@3HA, eax ; random_number_seed
  003ad	8b 0d 00 00 00
	00		 mov	 ecx, DWORD PTR ?random_number_seed@@3HA ; random_number_seed
  003b3	c1 f9 10	 sar	 ecx, 16			; 00000010H
  003b6	81 e1 ff 7f 00
	00		 and	 ecx, 32767		; 00007fffH
  003bc	f2 0f 2a c1	 cvtsi2sd xmm0, ecx
  003c0	f2 0f 59 05 00
	00 00 00	 mulsd	 xmm0, QWORD PTR __real@3f00002000400080
  003c8	66 0f 2f 05 00
	00 00 00	 comisd	 xmm0, QWORD PTR __real@3feccccccccccccd
  003d0	76 09		 jbe	 SHORT $LN58@partially_
  003d2	c7 45 bc 01 00
	00 00		 mov	 DWORD PTR tv226[ebp], 1
  003d9	eb 07		 jmp	 SHORT $LN59@partially_
$LN58@partially_:
  003db	c7 45 bc 00 00
	00 00		 mov	 DWORD PTR tv226[ebp], 0
$LN59@partially_:
  003e2	8b 55 bc	 mov	 edx, DWORD PTR tv226[ebp]
  003e5	83 e2 01	 and	 edx, 1
  003e8	c1 e2 08	 shl	 edx, 8
  003eb	a1 00 00 00 00	 mov	 eax, DWORD PTR ?comanche_damage@@3TCOMANCHE_DAMAGE_FLAGS@@A ; comanche_damage
  003f0	25 ff fe ff ff	 and	 eax, -257		; fffffeffH
  003f5	0b c2		 or	 eax, edx
  003f7	a3 00 00 00 00	 mov	 DWORD PTR ?comanche_damage@@3TCOMANCHE_DAMAGE_FLAGS@@A, eax ; comanche_damage
$LN10@partially_:

; 381  : 	}
; 382  : 
; 383  : 	////////////////////////////////////////
; 384  : 
; 385  : 	if (comanche_damage.radar_warning_system)

  003fc	a1 00 00 00 00	 mov	 eax, DWORD PTR ?comanche_damage@@3TCOMANCHE_DAMAGE_FLAGS@@A ; comanche_damage
  00401	c1 e8 09	 shr	 eax, 9
  00404	83 e0 01	 and	 eax, 1
  00407	74 63		 je	 SHORT $LN11@partially_

; 386  : 	{
; 387  : 		comanche_damage.radar_warning_system = frand1 () > 0.90;

  00409	69 05 00 00 00
	00 6d 4e c6 41	 imul	 eax, DWORD PTR ?random_number_seed@@3HA, 1103515245 ; random_number_seed
  00413	05 39 30 00 00	 add	 eax, 12345		; 00003039H
  00418	a3 00 00 00 00	 mov	 DWORD PTR ?random_number_seed@@3HA, eax ; random_number_seed
  0041d	8b 0d 00 00 00
	00		 mov	 ecx, DWORD PTR ?random_number_seed@@3HA ; random_number_seed
  00423	c1 f9 10	 sar	 ecx, 16			; 00000010H
  00426	81 e1 ff 7f 00
	00		 and	 ecx, 32767		; 00007fffH
  0042c	f2 0f 2a c1	 cvtsi2sd xmm0, ecx
  00430	f2 0f 59 05 00
	00 00 00	 mulsd	 xmm0, QWORD PTR __real@3f00002000400080
  00438	66 0f 2f 05 00
	00 00 00	 comisd	 xmm0, QWORD PTR __real@3feccccccccccccd
  00440	76 09		 jbe	 SHORT $LN60@partially_
  00442	c7 45 bc 01 00
	00 00		 mov	 DWORD PTR tv241[ebp], 1
  00449	eb 07		 jmp	 SHORT $LN61@partially_
$LN60@partially_:
  0044b	c7 45 bc 00 00
	00 00		 mov	 DWORD PTR tv241[ebp], 0
$LN61@partially_:
  00452	8b 55 bc	 mov	 edx, DWORD PTR tv241[ebp]
  00455	83 e2 01	 and	 edx, 1
  00458	c1 e2 09	 shl	 edx, 9
  0045b	a1 00 00 00 00	 mov	 eax, DWORD PTR ?comanche_damage@@3TCOMANCHE_DAMAGE_FLAGS@@A ; comanche_damage
  00460	25 ff fd ff ff	 and	 eax, -513		; fffffdffH
  00465	0b c2		 or	 eax, edx
  00467	a3 00 00 00 00	 mov	 DWORD PTR ?comanche_damage@@3TCOMANCHE_DAMAGE_FLAGS@@A, eax ; comanche_damage
$LN11@partially_:

; 388  : 	}
; 389  : 
; 390  : 	////////////////////////////////////////
; 391  : 
; 392  : 	if (comanche_damage.hidss)

  0046c	a1 00 00 00 00	 mov	 eax, DWORD PTR ?comanche_damage@@3TCOMANCHE_DAMAGE_FLAGS@@A ; comanche_damage
  00471	c1 e8 0a	 shr	 eax, 10			; 0000000aH
  00474	83 e0 01	 and	 eax, 1
  00477	74 63		 je	 SHORT $LN12@partially_

; 393  : 	{
; 394  : 		comanche_damage.hidss = frand1 () > 0.90;

  00479	69 05 00 00 00
	00 6d 4e c6 41	 imul	 eax, DWORD PTR ?random_number_seed@@3HA, 1103515245 ; random_number_seed
  00483	05 39 30 00 00	 add	 eax, 12345		; 00003039H
  00488	a3 00 00 00 00	 mov	 DWORD PTR ?random_number_seed@@3HA, eax ; random_number_seed
  0048d	8b 0d 00 00 00
	00		 mov	 ecx, DWORD PTR ?random_number_seed@@3HA ; random_number_seed
  00493	c1 f9 10	 sar	 ecx, 16			; 00000010H
  00496	81 e1 ff 7f 00
	00		 and	 ecx, 32767		; 00007fffH
  0049c	f2 0f 2a c1	 cvtsi2sd xmm0, ecx
  004a0	f2 0f 59 05 00
	00 00 00	 mulsd	 xmm0, QWORD PTR __real@3f00002000400080
  004a8	66 0f 2f 05 00
	00 00 00	 comisd	 xmm0, QWORD PTR __real@3feccccccccccccd
  004b0	76 09		 jbe	 SHORT $LN62@partially_
  004b2	c7 45 bc 01 00
	00 00		 mov	 DWORD PTR tv256[ebp], 1
  004b9	eb 07		 jmp	 SHORT $LN63@partially_
$LN62@partially_:
  004bb	c7 45 bc 00 00
	00 00		 mov	 DWORD PTR tv256[ebp], 0
$LN63@partially_:
  004c2	8b 55 bc	 mov	 edx, DWORD PTR tv256[ebp]
  004c5	83 e2 01	 and	 edx, 1
  004c8	c1 e2 0a	 shl	 edx, 10			; 0000000aH
  004cb	a1 00 00 00 00	 mov	 eax, DWORD PTR ?comanche_damage@@3TCOMANCHE_DAMAGE_FLAGS@@A ; comanche_damage
  004d0	25 ff fb ff ff	 and	 eax, -1025		; fffffbffH
  004d5	0b c2		 or	 eax, edx
  004d7	a3 00 00 00 00	 mov	 DWORD PTR ?comanche_damage@@3TCOMANCHE_DAMAGE_FLAGS@@A, eax ; comanche_damage
$LN12@partially_:

; 395  : 	}
; 396  : 
; 397  : 	////////////////////////////////////////
; 398  : 
; 399  : 	if (comanche_damage.pilot_lh_main_mfd)

  004dc	a1 00 00 00 00	 mov	 eax, DWORD PTR ?comanche_damage@@3TCOMANCHE_DAMAGE_FLAGS@@A ; comanche_damage
  004e1	c1 e8 0c	 shr	 eax, 12			; 0000000cH
  004e4	83 e0 01	 and	 eax, 1
  004e7	74 79		 je	 SHORT $LN14@partially_

; 400  : 	{
; 401  : 		comanche_damage.pilot_lh_main_mfd = frand1 () > 0.90;

  004e9	69 05 00 00 00
	00 6d 4e c6 41	 imul	 eax, DWORD PTR ?random_number_seed@@3HA, 1103515245 ; random_number_seed
  004f3	05 39 30 00 00	 add	 eax, 12345		; 00003039H
  004f8	a3 00 00 00 00	 mov	 DWORD PTR ?random_number_seed@@3HA, eax ; random_number_seed
  004fd	8b 0d 00 00 00
	00		 mov	 ecx, DWORD PTR ?random_number_seed@@3HA ; random_number_seed
  00503	c1 f9 10	 sar	 ecx, 16			; 00000010H
  00506	81 e1 ff 7f 00
	00		 and	 ecx, 32767		; 00007fffH
  0050c	f2 0f 2a c1	 cvtsi2sd xmm0, ecx
  00510	f2 0f 59 05 00
	00 00 00	 mulsd	 xmm0, QWORD PTR __real@3f00002000400080
  00518	66 0f 2f 05 00
	00 00 00	 comisd	 xmm0, QWORD PTR __real@3feccccccccccccd
  00520	76 09		 jbe	 SHORT $LN64@partially_
  00522	c7 45 bc 01 00
	00 00		 mov	 DWORD PTR tv271[ebp], 1
  00529	eb 07		 jmp	 SHORT $LN65@partially_
$LN64@partially_:
  0052b	c7 45 bc 00 00
	00 00		 mov	 DWORD PTR tv271[ebp], 0
$LN65@partially_:
  00532	8b 55 bc	 mov	 edx, DWORD PTR tv271[ebp]
  00535	83 e2 01	 and	 edx, 1
  00538	c1 e2 0c	 shl	 edx, 12			; 0000000cH
  0053b	a1 00 00 00 00	 mov	 eax, DWORD PTR ?comanche_damage@@3TCOMANCHE_DAMAGE_FLAGS@@A ; comanche_damage
  00540	25 ff ef ff ff	 and	 eax, -4097		; ffffefffH
  00545	0b c2		 or	 eax, edx
  00547	a3 00 00 00 00	 mov	 DWORD PTR ?comanche_damage@@3TCOMANCHE_DAMAGE_FLAGS@@A, eax ; comanche_damage

; 402  : 
; 403  : 		if (!comanche_damage.pilot_lh_main_mfd)

  0054c	a1 00 00 00 00	 mov	 eax, DWORD PTR ?comanche_damage@@3TCOMANCHE_DAMAGE_FLAGS@@A ; comanche_damage
  00551	c1 e8 0c	 shr	 eax, 12			; 0000000cH
  00554	83 e0 01	 and	 eax, 1
  00557	75 09		 jne	 SHORT $LN14@partially_

; 404  : 		{
; 405  : 			select_comanche_main_mfd_mode (COMANCHE_MAIN_MFD_MODE_OFF, COMANCHE_MAIN_MFD_LOCATION_PILOT_LHS);

  00559	6a 00		 push	 0
  0055b	6a 00		 push	 0
  0055d	e8 00 00 00 00	 call	 ?select_comanche_main_mfd_mode@@YGXW4COMANCHE_MAIN_MFD_MODES@@W4COMANCHE_MAIN_MFD_LOCATIONS@@@Z ; select_comanche_main_mfd_mode
$LN14@partially_:

; 406  : 		}
; 407  : 	}
; 408  : 
; 409  : 	////////////////////////////////////////
; 410  : 
; 411  : 	if (comanche_damage.pilot_rh_main_mfd)

  00562	a1 00 00 00 00	 mov	 eax, DWORD PTR ?comanche_damage@@3TCOMANCHE_DAMAGE_FLAGS@@A ; comanche_damage
  00567	c1 e8 0d	 shr	 eax, 13			; 0000000dH
  0056a	83 e0 01	 and	 eax, 1
  0056d	74 79		 je	 SHORT $LN16@partially_

; 412  : 	{
; 413  : 		comanche_damage.pilot_rh_main_mfd = frand1 () > 0.90;

  0056f	69 05 00 00 00
	00 6d 4e c6 41	 imul	 eax, DWORD PTR ?random_number_seed@@3HA, 1103515245 ; random_number_seed
  00579	05 39 30 00 00	 add	 eax, 12345		; 00003039H
  0057e	a3 00 00 00 00	 mov	 DWORD PTR ?random_number_seed@@3HA, eax ; random_number_seed
  00583	8b 0d 00 00 00
	00		 mov	 ecx, DWORD PTR ?random_number_seed@@3HA ; random_number_seed
  00589	c1 f9 10	 sar	 ecx, 16			; 00000010H
  0058c	81 e1 ff 7f 00
	00		 and	 ecx, 32767		; 00007fffH
  00592	f2 0f 2a c1	 cvtsi2sd xmm0, ecx
  00596	f2 0f 59 05 00
	00 00 00	 mulsd	 xmm0, QWORD PTR __real@3f00002000400080
  0059e	66 0f 2f 05 00
	00 00 00	 comisd	 xmm0, QWORD PTR __real@3feccccccccccccd
  005a6	76 09		 jbe	 SHORT $LN66@partially_
  005a8	c7 45 bc 01 00
	00 00		 mov	 DWORD PTR tv291[ebp], 1
  005af	eb 07		 jmp	 SHORT $LN67@partially_
$LN66@partially_:
  005b1	c7 45 bc 00 00
	00 00		 mov	 DWORD PTR tv291[ebp], 0
$LN67@partially_:
  005b8	8b 55 bc	 mov	 edx, DWORD PTR tv291[ebp]
  005bb	83 e2 01	 and	 edx, 1
  005be	c1 e2 0d	 shl	 edx, 13			; 0000000dH
  005c1	a1 00 00 00 00	 mov	 eax, DWORD PTR ?comanche_damage@@3TCOMANCHE_DAMAGE_FLAGS@@A ; comanche_damage
  005c6	25 ff df ff ff	 and	 eax, -8193		; ffffdfffH
  005cb	0b c2		 or	 eax, edx
  005cd	a3 00 00 00 00	 mov	 DWORD PTR ?comanche_damage@@3TCOMANCHE_DAMAGE_FLAGS@@A, eax ; comanche_damage

; 414  : 
; 415  : 		if (!comanche_damage.pilot_rh_main_mfd)

  005d2	a1 00 00 00 00	 mov	 eax, DWORD PTR ?comanche_damage@@3TCOMANCHE_DAMAGE_FLAGS@@A ; comanche_damage
  005d7	c1 e8 0d	 shr	 eax, 13			; 0000000dH
  005da	83 e0 01	 and	 eax, 1
  005dd	75 09		 jne	 SHORT $LN16@partially_

; 416  : 		{
; 417  : 			select_comanche_main_mfd_mode (COMANCHE_MAIN_MFD_MODE_OFF, COMANCHE_MAIN_MFD_LOCATION_PILOT_RHS);

  005df	6a 01		 push	 1
  005e1	6a 00		 push	 0
  005e3	e8 00 00 00 00	 call	 ?select_comanche_main_mfd_mode@@YGXW4COMANCHE_MAIN_MFD_MODES@@W4COMANCHE_MAIN_MFD_LOCATIONS@@@Z ; select_comanche_main_mfd_mode
$LN16@partially_:

; 418  : 		}
; 419  : 	}
; 420  : 
; 421  : 	////////////////////////////////////////
; 422  : 
; 423  : 	if (comanche_damage.pilot_lh_side_mfd)

  005e8	a1 00 00 00 00	 mov	 eax, DWORD PTR ?comanche_damage@@3TCOMANCHE_DAMAGE_FLAGS@@A ; comanche_damage
  005ed	c1 e8 0e	 shr	 eax, 14			; 0000000eH
  005f0	83 e0 01	 and	 eax, 1
  005f3	74 79		 je	 SHORT $LN18@partially_

; 424  : 	{
; 425  : 		comanche_damage.pilot_lh_side_mfd = frand1 () > 0.90;

  005f5	69 05 00 00 00
	00 6d 4e c6 41	 imul	 eax, DWORD PTR ?random_number_seed@@3HA, 1103515245 ; random_number_seed
  005ff	05 39 30 00 00	 add	 eax, 12345		; 00003039H
  00604	a3 00 00 00 00	 mov	 DWORD PTR ?random_number_seed@@3HA, eax ; random_number_seed
  00609	8b 0d 00 00 00
	00		 mov	 ecx, DWORD PTR ?random_number_seed@@3HA ; random_number_seed
  0060f	c1 f9 10	 sar	 ecx, 16			; 00000010H
  00612	81 e1 ff 7f 00
	00		 and	 ecx, 32767		; 00007fffH
  00618	f2 0f 2a c1	 cvtsi2sd xmm0, ecx
  0061c	f2 0f 59 05 00
	00 00 00	 mulsd	 xmm0, QWORD PTR __real@3f00002000400080
  00624	66 0f 2f 05 00
	00 00 00	 comisd	 xmm0, QWORD PTR __real@3feccccccccccccd
  0062c	76 09		 jbe	 SHORT $LN68@partially_
  0062e	c7 45 bc 01 00
	00 00		 mov	 DWORD PTR tv311[ebp], 1
  00635	eb 07		 jmp	 SHORT $LN69@partially_
$LN68@partially_:
  00637	c7 45 bc 00 00
	00 00		 mov	 DWORD PTR tv311[ebp], 0
$LN69@partially_:
  0063e	8b 55 bc	 mov	 edx, DWORD PTR tv311[ebp]
  00641	83 e2 01	 and	 edx, 1
  00644	c1 e2 0e	 shl	 edx, 14			; 0000000eH
  00647	a1 00 00 00 00	 mov	 eax, DWORD PTR ?comanche_damage@@3TCOMANCHE_DAMAGE_FLAGS@@A ; comanche_damage
  0064c	25 ff bf ff ff	 and	 eax, -16385		; ffffbfffH
  00651	0b c2		 or	 eax, edx
  00653	a3 00 00 00 00	 mov	 DWORD PTR ?comanche_damage@@3TCOMANCHE_DAMAGE_FLAGS@@A, eax ; comanche_damage

; 426  : 
; 427  : 		if (!comanche_damage.pilot_lh_side_mfd)

  00658	a1 00 00 00 00	 mov	 eax, DWORD PTR ?comanche_damage@@3TCOMANCHE_DAMAGE_FLAGS@@A ; comanche_damage
  0065d	c1 e8 0e	 shr	 eax, 14			; 0000000eH
  00660	83 e0 01	 and	 eax, 1
  00663	75 09		 jne	 SHORT $LN18@partially_

; 428  : 		{
; 429  : 			select_comanche_side_mfd_mode (COMANCHE_SIDE_MFD_MODE_OFF, COMANCHE_SIDE_MFD_LOCATION_PILOT_LHS);

  00665	6a 00		 push	 0
  00667	6a 00		 push	 0
  00669	e8 00 00 00 00	 call	 ?select_comanche_side_mfd_mode@@YGXW4COMANCHE_SIDE_MFD_MODES@@W4COMANCHE_SIDE_MFD_LOCATIONS@@@Z ; select_comanche_side_mfd_mode
$LN18@partially_:

; 430  : 		}
; 431  : 	}
; 432  : 
; 433  : 	////////////////////////////////////////
; 434  : 
; 435  : 	if (comanche_damage.pilot_rh_side_mfd)

  0066e	a1 00 00 00 00	 mov	 eax, DWORD PTR ?comanche_damage@@3TCOMANCHE_DAMAGE_FLAGS@@A ; comanche_damage
  00673	c1 e8 0f	 shr	 eax, 15			; 0000000fH
  00676	83 e0 01	 and	 eax, 1
  00679	74 79		 je	 SHORT $LN20@partially_

; 436  : 	{
; 437  : 		comanche_damage.pilot_rh_side_mfd = frand1 () > 0.90;

  0067b	69 05 00 00 00
	00 6d 4e c6 41	 imul	 eax, DWORD PTR ?random_number_seed@@3HA, 1103515245 ; random_number_seed
  00685	05 39 30 00 00	 add	 eax, 12345		; 00003039H
  0068a	a3 00 00 00 00	 mov	 DWORD PTR ?random_number_seed@@3HA, eax ; random_number_seed
  0068f	8b 0d 00 00 00
	00		 mov	 ecx, DWORD PTR ?random_number_seed@@3HA ; random_number_seed
  00695	c1 f9 10	 sar	 ecx, 16			; 00000010H
  00698	81 e1 ff 7f 00
	00		 and	 ecx, 32767		; 00007fffH
  0069e	f2 0f 2a c1	 cvtsi2sd xmm0, ecx
  006a2	f2 0f 59 05 00
	00 00 00	 mulsd	 xmm0, QWORD PTR __real@3f00002000400080
  006aa	66 0f 2f 05 00
	00 00 00	 comisd	 xmm0, QWORD PTR __real@3feccccccccccccd
  006b2	76 09		 jbe	 SHORT $LN70@partially_
  006b4	c7 45 bc 01 00
	00 00		 mov	 DWORD PTR tv331[ebp], 1
  006bb	eb 07		 jmp	 SHORT $LN71@partially_
$LN70@partially_:
  006bd	c7 45 bc 00 00
	00 00		 mov	 DWORD PTR tv331[ebp], 0
$LN71@partially_:
  006c4	8b 55 bc	 mov	 edx, DWORD PTR tv331[ebp]
  006c7	83 e2 01	 and	 edx, 1
  006ca	c1 e2 0f	 shl	 edx, 15			; 0000000fH
  006cd	a1 00 00 00 00	 mov	 eax, DWORD PTR ?comanche_damage@@3TCOMANCHE_DAMAGE_FLAGS@@A ; comanche_damage
  006d2	25 ff 7f ff ff	 and	 eax, -32769		; ffff7fffH
  006d7	0b c2		 or	 eax, edx
  006d9	a3 00 00 00 00	 mov	 DWORD PTR ?comanche_damage@@3TCOMANCHE_DAMAGE_FLAGS@@A, eax ; comanche_damage

; 438  : 
; 439  : 		if (!comanche_damage.pilot_rh_side_mfd)

  006de	a1 00 00 00 00	 mov	 eax, DWORD PTR ?comanche_damage@@3TCOMANCHE_DAMAGE_FLAGS@@A ; comanche_damage
  006e3	c1 e8 0f	 shr	 eax, 15			; 0000000fH
  006e6	83 e0 01	 and	 eax, 1
  006e9	75 09		 jne	 SHORT $LN20@partially_

; 440  : 		{
; 441  : 			select_comanche_side_mfd_mode (COMANCHE_SIDE_MFD_MODE_OFF, COMANCHE_SIDE_MFD_LOCATION_PILOT_RHS);

  006eb	6a 01		 push	 1
  006ed	6a 00		 push	 0
  006ef	e8 00 00 00 00	 call	 ?select_comanche_side_mfd_mode@@YGXW4COMANCHE_SIDE_MFD_MODES@@W4COMANCHE_SIDE_MFD_LOCATIONS@@@Z ; select_comanche_side_mfd_mode
$LN20@partially_:

; 442  : 		}
; 443  : 	}
; 444  : 
; 445  : 	////////////////////////////////////////
; 446  : 
; 447  : 	if (comanche_damage.co_pilot_lh_main_mfd)

  006f4	a1 00 00 00 00	 mov	 eax, DWORD PTR ?comanche_damage@@3TCOMANCHE_DAMAGE_FLAGS@@A ; comanche_damage
  006f9	c1 e8 10	 shr	 eax, 16			; 00000010H
  006fc	83 e0 01	 and	 eax, 1
  006ff	74 79		 je	 SHORT $LN22@partially_

; 448  : 	{
; 449  : 		comanche_damage.co_pilot_lh_main_mfd = frand1 () > 0.90;

  00701	69 05 00 00 00
	00 6d 4e c6 41	 imul	 eax, DWORD PTR ?random_number_seed@@3HA, 1103515245 ; random_number_seed
  0070b	05 39 30 00 00	 add	 eax, 12345		; 00003039H
  00710	a3 00 00 00 00	 mov	 DWORD PTR ?random_number_seed@@3HA, eax ; random_number_seed
  00715	8b 0d 00 00 00
	00		 mov	 ecx, DWORD PTR ?random_number_seed@@3HA ; random_number_seed
  0071b	c1 f9 10	 sar	 ecx, 16			; 00000010H
  0071e	81 e1 ff 7f 00
	00		 and	 ecx, 32767		; 00007fffH
  00724	f2 0f 2a c1	 cvtsi2sd xmm0, ecx
  00728	f2 0f 59 05 00
	00 00 00	 mulsd	 xmm0, QWORD PTR __real@3f00002000400080
  00730	66 0f 2f 05 00
	00 00 00	 comisd	 xmm0, QWORD PTR __real@3feccccccccccccd
  00738	76 09		 jbe	 SHORT $LN72@partially_
  0073a	c7 45 bc 01 00
	00 00		 mov	 DWORD PTR tv351[ebp], 1
  00741	eb 07		 jmp	 SHORT $LN73@partially_
$LN72@partially_:
  00743	c7 45 bc 00 00
	00 00		 mov	 DWORD PTR tv351[ebp], 0
$LN73@partially_:
  0074a	8b 55 bc	 mov	 edx, DWORD PTR tv351[ebp]
  0074d	83 e2 01	 and	 edx, 1
  00750	c1 e2 10	 shl	 edx, 16			; 00000010H
  00753	a1 00 00 00 00	 mov	 eax, DWORD PTR ?comanche_damage@@3TCOMANCHE_DAMAGE_FLAGS@@A ; comanche_damage
  00758	25 ff ff fe ff	 and	 eax, -65537		; fffeffffH
  0075d	0b c2		 or	 eax, edx
  0075f	a3 00 00 00 00	 mov	 DWORD PTR ?comanche_damage@@3TCOMANCHE_DAMAGE_FLAGS@@A, eax ; comanche_damage

; 450  : 
; 451  : 		if (!comanche_damage.co_pilot_lh_main_mfd)

  00764	a1 00 00 00 00	 mov	 eax, DWORD PTR ?comanche_damage@@3TCOMANCHE_DAMAGE_FLAGS@@A ; comanche_damage
  00769	c1 e8 10	 shr	 eax, 16			; 00000010H
  0076c	83 e0 01	 and	 eax, 1
  0076f	75 09		 jne	 SHORT $LN22@partially_

; 452  : 		{
; 453  : 			select_comanche_main_mfd_mode (COMANCHE_MAIN_MFD_MODE_OFF, COMANCHE_MAIN_MFD_LOCATION_CO_PILOT_LHS);

  00771	6a 02		 push	 2
  00773	6a 00		 push	 0
  00775	e8 00 00 00 00	 call	 ?select_comanche_main_mfd_mode@@YGXW4COMANCHE_MAIN_MFD_MODES@@W4COMANCHE_MAIN_MFD_LOCATIONS@@@Z ; select_comanche_main_mfd_mode
$LN22@partially_:

; 454  : 		}
; 455  : 	}
; 456  : 
; 457  : 	////////////////////////////////////////
; 458  : 
; 459  : 	if (comanche_damage.co_pilot_rh_main_mfd)

  0077a	a1 00 00 00 00	 mov	 eax, DWORD PTR ?comanche_damage@@3TCOMANCHE_DAMAGE_FLAGS@@A ; comanche_damage
  0077f	c1 e8 11	 shr	 eax, 17			; 00000011H
  00782	83 e0 01	 and	 eax, 1
  00785	74 79		 je	 SHORT $LN24@partially_

; 460  : 	{
; 461  : 		comanche_damage.co_pilot_rh_main_mfd = frand1 () > 0.90;

  00787	69 05 00 00 00
	00 6d 4e c6 41	 imul	 eax, DWORD PTR ?random_number_seed@@3HA, 1103515245 ; random_number_seed
  00791	05 39 30 00 00	 add	 eax, 12345		; 00003039H
  00796	a3 00 00 00 00	 mov	 DWORD PTR ?random_number_seed@@3HA, eax ; random_number_seed
  0079b	8b 0d 00 00 00
	00		 mov	 ecx, DWORD PTR ?random_number_seed@@3HA ; random_number_seed
  007a1	c1 f9 10	 sar	 ecx, 16			; 00000010H
  007a4	81 e1 ff 7f 00
	00		 and	 ecx, 32767		; 00007fffH
  007aa	f2 0f 2a c1	 cvtsi2sd xmm0, ecx
  007ae	f2 0f 59 05 00
	00 00 00	 mulsd	 xmm0, QWORD PTR __real@3f00002000400080
  007b6	66 0f 2f 05 00
	00 00 00	 comisd	 xmm0, QWORD PTR __real@3feccccccccccccd
  007be	76 09		 jbe	 SHORT $LN74@partially_
  007c0	c7 45 bc 01 00
	00 00		 mov	 DWORD PTR tv371[ebp], 1
  007c7	eb 07		 jmp	 SHORT $LN75@partially_
$LN74@partially_:
  007c9	c7 45 bc 00 00
	00 00		 mov	 DWORD PTR tv371[ebp], 0
$LN75@partially_:
  007d0	8b 55 bc	 mov	 edx, DWORD PTR tv371[ebp]
  007d3	83 e2 01	 and	 edx, 1
  007d6	c1 e2 11	 shl	 edx, 17			; 00000011H
  007d9	a1 00 00 00 00	 mov	 eax, DWORD PTR ?comanche_damage@@3TCOMANCHE_DAMAGE_FLAGS@@A ; comanche_damage
  007de	25 ff ff fd ff	 and	 eax, -131073		; fffdffffH
  007e3	0b c2		 or	 eax, edx
  007e5	a3 00 00 00 00	 mov	 DWORD PTR ?comanche_damage@@3TCOMANCHE_DAMAGE_FLAGS@@A, eax ; comanche_damage

; 462  : 
; 463  : 		if (!comanche_damage.co_pilot_rh_main_mfd)

  007ea	a1 00 00 00 00	 mov	 eax, DWORD PTR ?comanche_damage@@3TCOMANCHE_DAMAGE_FLAGS@@A ; comanche_damage
  007ef	c1 e8 11	 shr	 eax, 17			; 00000011H
  007f2	83 e0 01	 and	 eax, 1
  007f5	75 09		 jne	 SHORT $LN24@partially_

; 464  : 		{
; 465  : 			select_comanche_main_mfd_mode (COMANCHE_MAIN_MFD_MODE_OFF, COMANCHE_MAIN_MFD_LOCATION_CO_PILOT_RHS);

  007f7	6a 03		 push	 3
  007f9	6a 00		 push	 0
  007fb	e8 00 00 00 00	 call	 ?select_comanche_main_mfd_mode@@YGXW4COMANCHE_MAIN_MFD_MODES@@W4COMANCHE_MAIN_MFD_LOCATIONS@@@Z ; select_comanche_main_mfd_mode
$LN24@partially_:

; 466  : 		}
; 467  : 	}
; 468  : 
; 469  : 	////////////////////////////////////////
; 470  : 
; 471  : 	if (comanche_damage.co_pilot_lh_side_mfd)

  00800	a1 00 00 00 00	 mov	 eax, DWORD PTR ?comanche_damage@@3TCOMANCHE_DAMAGE_FLAGS@@A ; comanche_damage
  00805	c1 e8 12	 shr	 eax, 18			; 00000012H
  00808	83 e0 01	 and	 eax, 1
  0080b	74 79		 je	 SHORT $LN26@partially_

; 472  : 	{
; 473  : 		comanche_damage.co_pilot_lh_side_mfd = frand1 () > 0.90;

  0080d	69 05 00 00 00
	00 6d 4e c6 41	 imul	 eax, DWORD PTR ?random_number_seed@@3HA, 1103515245 ; random_number_seed
  00817	05 39 30 00 00	 add	 eax, 12345		; 00003039H
  0081c	a3 00 00 00 00	 mov	 DWORD PTR ?random_number_seed@@3HA, eax ; random_number_seed
  00821	8b 0d 00 00 00
	00		 mov	 ecx, DWORD PTR ?random_number_seed@@3HA ; random_number_seed
  00827	c1 f9 10	 sar	 ecx, 16			; 00000010H
  0082a	81 e1 ff 7f 00
	00		 and	 ecx, 32767		; 00007fffH
  00830	f2 0f 2a c1	 cvtsi2sd xmm0, ecx
  00834	f2 0f 59 05 00
	00 00 00	 mulsd	 xmm0, QWORD PTR __real@3f00002000400080
  0083c	66 0f 2f 05 00
	00 00 00	 comisd	 xmm0, QWORD PTR __real@3feccccccccccccd
  00844	76 09		 jbe	 SHORT $LN76@partially_
  00846	c7 45 bc 01 00
	00 00		 mov	 DWORD PTR tv391[ebp], 1
  0084d	eb 07		 jmp	 SHORT $LN77@partially_
$LN76@partially_:
  0084f	c7 45 bc 00 00
	00 00		 mov	 DWORD PTR tv391[ebp], 0
$LN77@partially_:
  00856	8b 55 bc	 mov	 edx, DWORD PTR tv391[ebp]
  00859	83 e2 01	 and	 edx, 1
  0085c	c1 e2 12	 shl	 edx, 18			; 00000012H
  0085f	a1 00 00 00 00	 mov	 eax, DWORD PTR ?comanche_damage@@3TCOMANCHE_DAMAGE_FLAGS@@A ; comanche_damage
  00864	25 ff ff fb ff	 and	 eax, -262145		; fffbffffH
  00869	0b c2		 or	 eax, edx
  0086b	a3 00 00 00 00	 mov	 DWORD PTR ?comanche_damage@@3TCOMANCHE_DAMAGE_FLAGS@@A, eax ; comanche_damage

; 474  : 
; 475  : 		if (!comanche_damage.co_pilot_lh_side_mfd)

  00870	a1 00 00 00 00	 mov	 eax, DWORD PTR ?comanche_damage@@3TCOMANCHE_DAMAGE_FLAGS@@A ; comanche_damage
  00875	c1 e8 12	 shr	 eax, 18			; 00000012H
  00878	83 e0 01	 and	 eax, 1
  0087b	75 09		 jne	 SHORT $LN26@partially_

; 476  : 		{
; 477  : 			select_comanche_side_mfd_mode (COMANCHE_SIDE_MFD_MODE_OFF, COMANCHE_SIDE_MFD_LOCATION_CO_PILOT_LHS);

  0087d	6a 02		 push	 2
  0087f	6a 00		 push	 0
  00881	e8 00 00 00 00	 call	 ?select_comanche_side_mfd_mode@@YGXW4COMANCHE_SIDE_MFD_MODES@@W4COMANCHE_SIDE_MFD_LOCATIONS@@@Z ; select_comanche_side_mfd_mode
$LN26@partially_:

; 478  : 		}
; 479  : 	}
; 480  : 
; 481  : 	////////////////////////////////////////
; 482  : 
; 483  : 	if (comanche_damage.co_pilot_rh_side_mfd)

  00886	a1 00 00 00 00	 mov	 eax, DWORD PTR ?comanche_damage@@3TCOMANCHE_DAMAGE_FLAGS@@A ; comanche_damage
  0088b	c1 e8 13	 shr	 eax, 19			; 00000013H
  0088e	83 e0 01	 and	 eax, 1
  00891	74 79		 je	 SHORT $LN28@partially_

; 484  : 	{
; 485  : 		comanche_damage.co_pilot_rh_side_mfd = frand1 () > 0.90;

  00893	69 05 00 00 00
	00 6d 4e c6 41	 imul	 eax, DWORD PTR ?random_number_seed@@3HA, 1103515245 ; random_number_seed
  0089d	05 39 30 00 00	 add	 eax, 12345		; 00003039H
  008a2	a3 00 00 00 00	 mov	 DWORD PTR ?random_number_seed@@3HA, eax ; random_number_seed
  008a7	8b 0d 00 00 00
	00		 mov	 ecx, DWORD PTR ?random_number_seed@@3HA ; random_number_seed
  008ad	c1 f9 10	 sar	 ecx, 16			; 00000010H
  008b0	81 e1 ff 7f 00
	00		 and	 ecx, 32767		; 00007fffH
  008b6	f2 0f 2a c1	 cvtsi2sd xmm0, ecx
  008ba	f2 0f 59 05 00
	00 00 00	 mulsd	 xmm0, QWORD PTR __real@3f00002000400080
  008c2	66 0f 2f 05 00
	00 00 00	 comisd	 xmm0, QWORD PTR __real@3feccccccccccccd
  008ca	76 09		 jbe	 SHORT $LN78@partially_
  008cc	c7 45 bc 01 00
	00 00		 mov	 DWORD PTR tv411[ebp], 1
  008d3	eb 07		 jmp	 SHORT $LN79@partially_
$LN78@partially_:
  008d5	c7 45 bc 00 00
	00 00		 mov	 DWORD PTR tv411[ebp], 0
$LN79@partially_:
  008dc	8b 55 bc	 mov	 edx, DWORD PTR tv411[ebp]
  008df	83 e2 01	 and	 edx, 1
  008e2	c1 e2 13	 shl	 edx, 19			; 00000013H
  008e5	a1 00 00 00 00	 mov	 eax, DWORD PTR ?comanche_damage@@3TCOMANCHE_DAMAGE_FLAGS@@A ; comanche_damage
  008ea	25 ff ff f7 ff	 and	 eax, -524289		; fff7ffffH
  008ef	0b c2		 or	 eax, edx
  008f1	a3 00 00 00 00	 mov	 DWORD PTR ?comanche_damage@@3TCOMANCHE_DAMAGE_FLAGS@@A, eax ; comanche_damage

; 486  : 
; 487  : 		if (!comanche_damage.co_pilot_rh_side_mfd)

  008f6	a1 00 00 00 00	 mov	 eax, DWORD PTR ?comanche_damage@@3TCOMANCHE_DAMAGE_FLAGS@@A ; comanche_damage
  008fb	c1 e8 13	 shr	 eax, 19			; 00000013H
  008fe	83 e0 01	 and	 eax, 1
  00901	75 09		 jne	 SHORT $LN28@partially_

; 488  : 		{
; 489  : 			select_comanche_side_mfd_mode (COMANCHE_SIDE_MFD_MODE_OFF, COMANCHE_SIDE_MFD_LOCATION_CO_PILOT_RHS);

  00903	6a 03		 push	 3
  00905	6a 00		 push	 0
  00907	e8 00 00 00 00	 call	 ?select_comanche_side_mfd_mode@@YGXW4COMANCHE_SIDE_MFD_MODES@@W4COMANCHE_SIDE_MFD_LOCATIONS@@@Z ; select_comanche_side_mfd_mode
$LN28@partially_:

; 490  : 		}
; 491  : 	}
; 492  : 
; 493  : 	////////////////////////////////////////
; 494  : 
; 495  : 	if (comanche_damage.pnvs)

  0090c	a1 00 00 00 00	 mov	 eax, DWORD PTR ?comanche_damage@@3TCOMANCHE_DAMAGE_FLAGS@@A ; comanche_damage
  00911	c1 e8 14	 shr	 eax, 20			; 00000014H
  00914	83 e0 01	 and	 eax, 1
  00917	74 63		 je	 SHORT $LN29@partially_

; 496  : 	{
; 497  : 		comanche_damage.pnvs = frand1 () > 0.90;

  00919	69 05 00 00 00
	00 6d 4e c6 41	 imul	 eax, DWORD PTR ?random_number_seed@@3HA, 1103515245 ; random_number_seed
  00923	05 39 30 00 00	 add	 eax, 12345		; 00003039H
  00928	a3 00 00 00 00	 mov	 DWORD PTR ?random_number_seed@@3HA, eax ; random_number_seed
  0092d	8b 0d 00 00 00
	00		 mov	 ecx, DWORD PTR ?random_number_seed@@3HA ; random_number_seed
  00933	c1 f9 10	 sar	 ecx, 16			; 00000010H
  00936	81 e1 ff 7f 00
	00		 and	 ecx, 32767		; 00007fffH
  0093c	f2 0f 2a c1	 cvtsi2sd xmm0, ecx
  00940	f2 0f 59 05 00
	00 00 00	 mulsd	 xmm0, QWORD PTR __real@3f00002000400080
  00948	66 0f 2f 05 00
	00 00 00	 comisd	 xmm0, QWORD PTR __real@3feccccccccccccd
  00950	76 09		 jbe	 SHORT $LN80@partially_
  00952	c7 45 bc 01 00
	00 00		 mov	 DWORD PTR tv431[ebp], 1
  00959	eb 07		 jmp	 SHORT $LN81@partially_
$LN80@partially_:
  0095b	c7 45 bc 00 00
	00 00		 mov	 DWORD PTR tv431[ebp], 0
$LN81@partially_:
  00962	8b 55 bc	 mov	 edx, DWORD PTR tv431[ebp]
  00965	83 e2 01	 and	 edx, 1
  00968	c1 e2 14	 shl	 edx, 20			; 00000014H
  0096b	a1 00 00 00 00	 mov	 eax, DWORD PTR ?comanche_damage@@3TCOMANCHE_DAMAGE_FLAGS@@A ; comanche_damage
  00970	25 ff ff ef ff	 and	 eax, -1048577		; ffefffffH
  00975	0b c2		 or	 eax, edx
  00977	a3 00 00 00 00	 mov	 DWORD PTR ?comanche_damage@@3TCOMANCHE_DAMAGE_FLAGS@@A, eax ; comanche_damage
$LN29@partially_:

; 498  : 	}
; 499  : 
; 500  : 	////////////////////////////////////////
; 501  : 
; 502  : 	if (comanche_damage.gun_jammed)

  0097c	a1 00 00 00 00	 mov	 eax, DWORD PTR ?comanche_damage@@3TCOMANCHE_DAMAGE_FLAGS@@A ; comanche_damage
  00981	c1 e8 15	 shr	 eax, 21			; 00000015H
  00984	83 e0 01	 and	 eax, 1
  00987	74 63		 je	 SHORT $LN30@partially_

; 503  : 	{
; 504  : 		comanche_damage.gun_jammed = frand1 () > 0.90;

  00989	69 05 00 00 00
	00 6d 4e c6 41	 imul	 eax, DWORD PTR ?random_number_seed@@3HA, 1103515245 ; random_number_seed
  00993	05 39 30 00 00	 add	 eax, 12345		; 00003039H
  00998	a3 00 00 00 00	 mov	 DWORD PTR ?random_number_seed@@3HA, eax ; random_number_seed
  0099d	8b 0d 00 00 00
	00		 mov	 ecx, DWORD PTR ?random_number_seed@@3HA ; random_number_seed
  009a3	c1 f9 10	 sar	 ecx, 16			; 00000010H
  009a6	81 e1 ff 7f 00
	00		 and	 ecx, 32767		; 00007fffH
  009ac	f2 0f 2a c1	 cvtsi2sd xmm0, ecx
  009b0	f2 0f 59 05 00
	00 00 00	 mulsd	 xmm0, QWORD PTR __real@3f00002000400080
  009b8	66 0f 2f 05 00
	00 00 00	 comisd	 xmm0, QWORD PTR __real@3feccccccccccccd
  009c0	76 09		 jbe	 SHORT $LN82@partially_
  009c2	c7 45 bc 01 00
	00 00		 mov	 DWORD PTR tv446[ebp], 1
  009c9	eb 07		 jmp	 SHORT $LN83@partially_
$LN82@partially_:
  009cb	c7 45 bc 00 00
	00 00		 mov	 DWORD PTR tv446[ebp], 0
$LN83@partially_:
  009d2	8b 55 bc	 mov	 edx, DWORD PTR tv446[ebp]
  009d5	83 e2 01	 and	 edx, 1
  009d8	c1 e2 15	 shl	 edx, 21			; 00000015H
  009db	a1 00 00 00 00	 mov	 eax, DWORD PTR ?comanche_damage@@3TCOMANCHE_DAMAGE_FLAGS@@A ; comanche_damage
  009e0	25 ff ff df ff	 and	 eax, -2097153		; ffdfffffH
  009e5	0b c2		 or	 eax, edx
  009e7	a3 00 00 00 00	 mov	 DWORD PTR ?comanche_damage@@3TCOMANCHE_DAMAGE_FLAGS@@A, eax ; comanche_damage
$LN30@partially_:

; 505  : 	}
; 506  : 
; 507  : 	////////////////////////////////////////
; 508  : 
; 509  : 	if (comanche_damage.lh_stub_wing_pylon)

  009ec	a1 00 00 00 00	 mov	 eax, DWORD PTR ?comanche_damage@@3TCOMANCHE_DAMAGE_FLAGS@@A ; comanche_damage
  009f1	c1 e8 16	 shr	 eax, 22			; 00000016H
  009f4	83 e0 01	 and	 eax, 1
  009f7	74 63		 je	 SHORT $LN31@partially_

; 510  : 	{
; 511  : 		comanche_damage.lh_stub_wing_pylon = frand1 () > 0.90;

  009f9	69 05 00 00 00
	00 6d 4e c6 41	 imul	 eax, DWORD PTR ?random_number_seed@@3HA, 1103515245 ; random_number_seed
  00a03	05 39 30 00 00	 add	 eax, 12345		; 00003039H
  00a08	a3 00 00 00 00	 mov	 DWORD PTR ?random_number_seed@@3HA, eax ; random_number_seed
  00a0d	8b 0d 00 00 00
	00		 mov	 ecx, DWORD PTR ?random_number_seed@@3HA ; random_number_seed
  00a13	c1 f9 10	 sar	 ecx, 16			; 00000010H
  00a16	81 e1 ff 7f 00
	00		 and	 ecx, 32767		; 00007fffH
  00a1c	f2 0f 2a c1	 cvtsi2sd xmm0, ecx
  00a20	f2 0f 59 05 00
	00 00 00	 mulsd	 xmm0, QWORD PTR __real@3f00002000400080
  00a28	66 0f 2f 05 00
	00 00 00	 comisd	 xmm0, QWORD PTR __real@3feccccccccccccd
  00a30	76 09		 jbe	 SHORT $LN84@partially_
  00a32	c7 45 bc 01 00
	00 00		 mov	 DWORD PTR tv461[ebp], 1
  00a39	eb 07		 jmp	 SHORT $LN85@partially_
$LN84@partially_:
  00a3b	c7 45 bc 00 00
	00 00		 mov	 DWORD PTR tv461[ebp], 0
$LN85@partially_:
  00a42	8b 55 bc	 mov	 edx, DWORD PTR tv461[ebp]
  00a45	83 e2 01	 and	 edx, 1
  00a48	c1 e2 16	 shl	 edx, 22			; 00000016H
  00a4b	a1 00 00 00 00	 mov	 eax, DWORD PTR ?comanche_damage@@3TCOMANCHE_DAMAGE_FLAGS@@A ; comanche_damage
  00a50	25 ff ff bf ff	 and	 eax, -4194305		; ffbfffffH
  00a55	0b c2		 or	 eax, edx
  00a57	a3 00 00 00 00	 mov	 DWORD PTR ?comanche_damage@@3TCOMANCHE_DAMAGE_FLAGS@@A, eax ; comanche_damage
$LN31@partially_:

; 512  : 	}
; 513  : 
; 514  : 	////////////////////////////////////////
; 515  : 
; 516  : 	if (comanche_damage.lh_bay_door_inner_pylon)

  00a5c	a1 00 00 00 00	 mov	 eax, DWORD PTR ?comanche_damage@@3TCOMANCHE_DAMAGE_FLAGS@@A ; comanche_damage
  00a61	c1 e8 17	 shr	 eax, 23			; 00000017H
  00a64	83 e0 01	 and	 eax, 1
  00a67	74 63		 je	 SHORT $LN32@partially_

; 517  : 	{
; 518  : 		comanche_damage.lh_bay_door_inner_pylon = frand1 () > 0.90;

  00a69	69 05 00 00 00
	00 6d 4e c6 41	 imul	 eax, DWORD PTR ?random_number_seed@@3HA, 1103515245 ; random_number_seed
  00a73	05 39 30 00 00	 add	 eax, 12345		; 00003039H
  00a78	a3 00 00 00 00	 mov	 DWORD PTR ?random_number_seed@@3HA, eax ; random_number_seed
  00a7d	8b 0d 00 00 00
	00		 mov	 ecx, DWORD PTR ?random_number_seed@@3HA ; random_number_seed
  00a83	c1 f9 10	 sar	 ecx, 16			; 00000010H
  00a86	81 e1 ff 7f 00
	00		 and	 ecx, 32767		; 00007fffH
  00a8c	f2 0f 2a c1	 cvtsi2sd xmm0, ecx
  00a90	f2 0f 59 05 00
	00 00 00	 mulsd	 xmm0, QWORD PTR __real@3f00002000400080
  00a98	66 0f 2f 05 00
	00 00 00	 comisd	 xmm0, QWORD PTR __real@3feccccccccccccd
  00aa0	76 09		 jbe	 SHORT $LN86@partially_
  00aa2	c7 45 bc 01 00
	00 00		 mov	 DWORD PTR tv476[ebp], 1
  00aa9	eb 07		 jmp	 SHORT $LN87@partially_
$LN86@partially_:
  00aab	c7 45 bc 00 00
	00 00		 mov	 DWORD PTR tv476[ebp], 0
$LN87@partially_:
  00ab2	8b 55 bc	 mov	 edx, DWORD PTR tv476[ebp]
  00ab5	83 e2 01	 and	 edx, 1
  00ab8	c1 e2 17	 shl	 edx, 23			; 00000017H
  00abb	a1 00 00 00 00	 mov	 eax, DWORD PTR ?comanche_damage@@3TCOMANCHE_DAMAGE_FLAGS@@A ; comanche_damage
  00ac0	25 ff ff 7f ff	 and	 eax, -8388609		; ff7fffffH
  00ac5	0b c2		 or	 eax, edx
  00ac7	a3 00 00 00 00	 mov	 DWORD PTR ?comanche_damage@@3TCOMANCHE_DAMAGE_FLAGS@@A, eax ; comanche_damage
$LN32@partially_:

; 519  : 	}
; 520  : 
; 521  : 	////////////////////////////////////////
; 522  : 
; 523  : 	if (comanche_damage.lh_bay_door_middle_pylon)

  00acc	a1 00 00 00 00	 mov	 eax, DWORD PTR ?comanche_damage@@3TCOMANCHE_DAMAGE_FLAGS@@A ; comanche_damage
  00ad1	c1 e8 18	 shr	 eax, 24			; 00000018H
  00ad4	83 e0 01	 and	 eax, 1
  00ad7	74 63		 je	 SHORT $LN33@partially_

; 524  : 	{
; 525  : 		comanche_damage.lh_bay_door_middle_pylon = frand1 () > 0.90;

  00ad9	69 05 00 00 00
	00 6d 4e c6 41	 imul	 eax, DWORD PTR ?random_number_seed@@3HA, 1103515245 ; random_number_seed
  00ae3	05 39 30 00 00	 add	 eax, 12345		; 00003039H
  00ae8	a3 00 00 00 00	 mov	 DWORD PTR ?random_number_seed@@3HA, eax ; random_number_seed
  00aed	8b 0d 00 00 00
	00		 mov	 ecx, DWORD PTR ?random_number_seed@@3HA ; random_number_seed
  00af3	c1 f9 10	 sar	 ecx, 16			; 00000010H
  00af6	81 e1 ff 7f 00
	00		 and	 ecx, 32767		; 00007fffH
  00afc	f2 0f 2a c1	 cvtsi2sd xmm0, ecx
  00b00	f2 0f 59 05 00
	00 00 00	 mulsd	 xmm0, QWORD PTR __real@3f00002000400080
  00b08	66 0f 2f 05 00
	00 00 00	 comisd	 xmm0, QWORD PTR __real@3feccccccccccccd
  00b10	76 09		 jbe	 SHORT $LN88@partially_
  00b12	c7 45 bc 01 00
	00 00		 mov	 DWORD PTR tv491[ebp], 1
  00b19	eb 07		 jmp	 SHORT $LN89@partially_
$LN88@partially_:
  00b1b	c7 45 bc 00 00
	00 00		 mov	 DWORD PTR tv491[ebp], 0
$LN89@partially_:
  00b22	8b 55 bc	 mov	 edx, DWORD PTR tv491[ebp]
  00b25	83 e2 01	 and	 edx, 1
  00b28	c1 e2 18	 shl	 edx, 24			; 00000018H
  00b2b	a1 00 00 00 00	 mov	 eax, DWORD PTR ?comanche_damage@@3TCOMANCHE_DAMAGE_FLAGS@@A ; comanche_damage
  00b30	25 ff ff ff fe	 and	 eax, -16777217		; feffffffH
  00b35	0b c2		 or	 eax, edx
  00b37	a3 00 00 00 00	 mov	 DWORD PTR ?comanche_damage@@3TCOMANCHE_DAMAGE_FLAGS@@A, eax ; comanche_damage
$LN33@partially_:

; 526  : 	}
; 527  : 
; 528  : 	////////////////////////////////////////
; 529  : 
; 530  : 	if (comanche_damage.lh_bay_door_outer_pylon)

  00b3c	a1 00 00 00 00	 mov	 eax, DWORD PTR ?comanche_damage@@3TCOMANCHE_DAMAGE_FLAGS@@A ; comanche_damage
  00b41	c1 e8 19	 shr	 eax, 25			; 00000019H
  00b44	83 e0 01	 and	 eax, 1
  00b47	74 63		 je	 SHORT $LN34@partially_

; 531  : 	{
; 532  : 		comanche_damage.lh_bay_door_outer_pylon = frand1 () > 0.90;

  00b49	69 05 00 00 00
	00 6d 4e c6 41	 imul	 eax, DWORD PTR ?random_number_seed@@3HA, 1103515245 ; random_number_seed
  00b53	05 39 30 00 00	 add	 eax, 12345		; 00003039H
  00b58	a3 00 00 00 00	 mov	 DWORD PTR ?random_number_seed@@3HA, eax ; random_number_seed
  00b5d	8b 0d 00 00 00
	00		 mov	 ecx, DWORD PTR ?random_number_seed@@3HA ; random_number_seed
  00b63	c1 f9 10	 sar	 ecx, 16			; 00000010H
  00b66	81 e1 ff 7f 00
	00		 and	 ecx, 32767		; 00007fffH
  00b6c	f2 0f 2a c1	 cvtsi2sd xmm0, ecx
  00b70	f2 0f 59 05 00
	00 00 00	 mulsd	 xmm0, QWORD PTR __real@3f00002000400080
  00b78	66 0f 2f 05 00
	00 00 00	 comisd	 xmm0, QWORD PTR __real@3feccccccccccccd
  00b80	76 09		 jbe	 SHORT $LN90@partially_
  00b82	c7 45 bc 01 00
	00 00		 mov	 DWORD PTR tv506[ebp], 1
  00b89	eb 07		 jmp	 SHORT $LN91@partially_
$LN90@partially_:
  00b8b	c7 45 bc 00 00
	00 00		 mov	 DWORD PTR tv506[ebp], 0
$LN91@partially_:
  00b92	8b 55 bc	 mov	 edx, DWORD PTR tv506[ebp]
  00b95	83 e2 01	 and	 edx, 1
  00b98	c1 e2 19	 shl	 edx, 25			; 00000019H
  00b9b	a1 00 00 00 00	 mov	 eax, DWORD PTR ?comanche_damage@@3TCOMANCHE_DAMAGE_FLAGS@@A ; comanche_damage
  00ba0	25 ff ff ff fd	 and	 eax, -33554433		; fdffffffH
  00ba5	0b c2		 or	 eax, edx
  00ba7	a3 00 00 00 00	 mov	 DWORD PTR ?comanche_damage@@3TCOMANCHE_DAMAGE_FLAGS@@A, eax ; comanche_damage
$LN34@partially_:

; 533  : 	}
; 534  : 
; 535  : 	////////////////////////////////////////
; 536  : 
; 537  : 	if (comanche_damage.rh_stub_wing_pylon)

  00bac	a1 00 00 00 00	 mov	 eax, DWORD PTR ?comanche_damage@@3TCOMANCHE_DAMAGE_FLAGS@@A ; comanche_damage
  00bb1	c1 e8 1a	 shr	 eax, 26			; 0000001aH
  00bb4	83 e0 01	 and	 eax, 1
  00bb7	74 63		 je	 SHORT $LN35@partially_

; 538  : 	{
; 539  : 		comanche_damage.rh_stub_wing_pylon = frand1 () > 0.90;

  00bb9	69 05 00 00 00
	00 6d 4e c6 41	 imul	 eax, DWORD PTR ?random_number_seed@@3HA, 1103515245 ; random_number_seed
  00bc3	05 39 30 00 00	 add	 eax, 12345		; 00003039H
  00bc8	a3 00 00 00 00	 mov	 DWORD PTR ?random_number_seed@@3HA, eax ; random_number_seed
  00bcd	8b 0d 00 00 00
	00		 mov	 ecx, DWORD PTR ?random_number_seed@@3HA ; random_number_seed
  00bd3	c1 f9 10	 sar	 ecx, 16			; 00000010H
  00bd6	81 e1 ff 7f 00
	00		 and	 ecx, 32767		; 00007fffH
  00bdc	f2 0f 2a c1	 cvtsi2sd xmm0, ecx
  00be0	f2 0f 59 05 00
	00 00 00	 mulsd	 xmm0, QWORD PTR __real@3f00002000400080
  00be8	66 0f 2f 05 00
	00 00 00	 comisd	 xmm0, QWORD PTR __real@3feccccccccccccd
  00bf0	76 09		 jbe	 SHORT $LN92@partially_
  00bf2	c7 45 bc 01 00
	00 00		 mov	 DWORD PTR tv521[ebp], 1
  00bf9	eb 07		 jmp	 SHORT $LN93@partially_
$LN92@partially_:
  00bfb	c7 45 bc 00 00
	00 00		 mov	 DWORD PTR tv521[ebp], 0
$LN93@partially_:
  00c02	8b 55 bc	 mov	 edx, DWORD PTR tv521[ebp]
  00c05	83 e2 01	 and	 edx, 1
  00c08	c1 e2 1a	 shl	 edx, 26			; 0000001aH
  00c0b	a1 00 00 00 00	 mov	 eax, DWORD PTR ?comanche_damage@@3TCOMANCHE_DAMAGE_FLAGS@@A ; comanche_damage
  00c10	25 ff ff ff fb	 and	 eax, -67108865		; fbffffffH
  00c15	0b c2		 or	 eax, edx
  00c17	a3 00 00 00 00	 mov	 DWORD PTR ?comanche_damage@@3TCOMANCHE_DAMAGE_FLAGS@@A, eax ; comanche_damage
$LN35@partially_:

; 540  : 	}
; 541  : 
; 542  : 	////////////////////////////////////////
; 543  : 
; 544  : 	if (comanche_damage.rh_bay_door_inner_pylon)

  00c1c	a1 00 00 00 00	 mov	 eax, DWORD PTR ?comanche_damage@@3TCOMANCHE_DAMAGE_FLAGS@@A ; comanche_damage
  00c21	c1 e8 1b	 shr	 eax, 27			; 0000001bH
  00c24	83 e0 01	 and	 eax, 1
  00c27	74 63		 je	 SHORT $LN36@partially_

; 545  : 	{
; 546  : 		comanche_damage.rh_bay_door_inner_pylon = frand1 () > 0.90;

  00c29	69 05 00 00 00
	00 6d 4e c6 41	 imul	 eax, DWORD PTR ?random_number_seed@@3HA, 1103515245 ; random_number_seed
  00c33	05 39 30 00 00	 add	 eax, 12345		; 00003039H
  00c38	a3 00 00 00 00	 mov	 DWORD PTR ?random_number_seed@@3HA, eax ; random_number_seed
  00c3d	8b 0d 00 00 00
	00		 mov	 ecx, DWORD PTR ?random_number_seed@@3HA ; random_number_seed
  00c43	c1 f9 10	 sar	 ecx, 16			; 00000010H
  00c46	81 e1 ff 7f 00
	00		 and	 ecx, 32767		; 00007fffH
  00c4c	f2 0f 2a c1	 cvtsi2sd xmm0, ecx
  00c50	f2 0f 59 05 00
	00 00 00	 mulsd	 xmm0, QWORD PTR __real@3f00002000400080
  00c58	66 0f 2f 05 00
	00 00 00	 comisd	 xmm0, QWORD PTR __real@3feccccccccccccd
  00c60	76 09		 jbe	 SHORT $LN94@partially_
  00c62	c7 45 bc 01 00
	00 00		 mov	 DWORD PTR tv536[ebp], 1
  00c69	eb 07		 jmp	 SHORT $LN95@partially_
$LN94@partially_:
  00c6b	c7 45 bc 00 00
	00 00		 mov	 DWORD PTR tv536[ebp], 0
$LN95@partially_:
  00c72	8b 55 bc	 mov	 edx, DWORD PTR tv536[ebp]
  00c75	83 e2 01	 and	 edx, 1
  00c78	c1 e2 1b	 shl	 edx, 27			; 0000001bH
  00c7b	a1 00 00 00 00	 mov	 eax, DWORD PTR ?comanche_damage@@3TCOMANCHE_DAMAGE_FLAGS@@A ; comanche_damage
  00c80	25 ff ff ff f7	 and	 eax, -134217729		; f7ffffffH
  00c85	0b c2		 or	 eax, edx
  00c87	a3 00 00 00 00	 mov	 DWORD PTR ?comanche_damage@@3TCOMANCHE_DAMAGE_FLAGS@@A, eax ; comanche_damage
$LN36@partially_:

; 547  : 	}
; 548  : 
; 549  : 	////////////////////////////////////////
; 550  : 
; 551  : 	if (comanche_damage.rh_bay_door_middle_pylon)

  00c8c	a1 00 00 00 00	 mov	 eax, DWORD PTR ?comanche_damage@@3TCOMANCHE_DAMAGE_FLAGS@@A ; comanche_damage
  00c91	c1 e8 1c	 shr	 eax, 28			; 0000001cH
  00c94	83 e0 01	 and	 eax, 1
  00c97	74 63		 je	 SHORT $LN37@partially_

; 552  : 	{
; 553  : 		comanche_damage.rh_bay_door_middle_pylon = frand1 () > 0.90;

  00c99	69 05 00 00 00
	00 6d 4e c6 41	 imul	 eax, DWORD PTR ?random_number_seed@@3HA, 1103515245 ; random_number_seed
  00ca3	05 39 30 00 00	 add	 eax, 12345		; 00003039H
  00ca8	a3 00 00 00 00	 mov	 DWORD PTR ?random_number_seed@@3HA, eax ; random_number_seed
  00cad	8b 0d 00 00 00
	00		 mov	 ecx, DWORD PTR ?random_number_seed@@3HA ; random_number_seed
  00cb3	c1 f9 10	 sar	 ecx, 16			; 00000010H
  00cb6	81 e1 ff 7f 00
	00		 and	 ecx, 32767		; 00007fffH
  00cbc	f2 0f 2a c1	 cvtsi2sd xmm0, ecx
  00cc0	f2 0f 59 05 00
	00 00 00	 mulsd	 xmm0, QWORD PTR __real@3f00002000400080
  00cc8	66 0f 2f 05 00
	00 00 00	 comisd	 xmm0, QWORD PTR __real@3feccccccccccccd
  00cd0	76 09		 jbe	 SHORT $LN96@partially_
  00cd2	c7 45 bc 01 00
	00 00		 mov	 DWORD PTR tv551[ebp], 1
  00cd9	eb 07		 jmp	 SHORT $LN97@partially_
$LN96@partially_:
  00cdb	c7 45 bc 00 00
	00 00		 mov	 DWORD PTR tv551[ebp], 0
$LN97@partially_:
  00ce2	8b 55 bc	 mov	 edx, DWORD PTR tv551[ebp]
  00ce5	83 e2 01	 and	 edx, 1
  00ce8	c1 e2 1c	 shl	 edx, 28			; 0000001cH
  00ceb	a1 00 00 00 00	 mov	 eax, DWORD PTR ?comanche_damage@@3TCOMANCHE_DAMAGE_FLAGS@@A ; comanche_damage
  00cf0	25 ff ff ff ef	 and	 eax, -268435457		; efffffffH
  00cf5	0b c2		 or	 eax, edx
  00cf7	a3 00 00 00 00	 mov	 DWORD PTR ?comanche_damage@@3TCOMANCHE_DAMAGE_FLAGS@@A, eax ; comanche_damage
$LN37@partially_:

; 554  : 	}
; 555  : 
; 556  : 	////////////////////////////////////////
; 557  : 
; 558  : 	if (comanche_damage.rh_bay_door_outer_pylon)

  00cfc	a1 00 00 00 00	 mov	 eax, DWORD PTR ?comanche_damage@@3TCOMANCHE_DAMAGE_FLAGS@@A ; comanche_damage
  00d01	c1 e8 1d	 shr	 eax, 29			; 0000001dH
  00d04	83 e0 01	 and	 eax, 1
  00d07	74 63		 je	 SHORT $LN38@partially_

; 559  : 	{
; 560  : 		comanche_damage.rh_bay_door_outer_pylon = frand1 () > 0.90;

  00d09	69 05 00 00 00
	00 6d 4e c6 41	 imul	 eax, DWORD PTR ?random_number_seed@@3HA, 1103515245 ; random_number_seed
  00d13	05 39 30 00 00	 add	 eax, 12345		; 00003039H
  00d18	a3 00 00 00 00	 mov	 DWORD PTR ?random_number_seed@@3HA, eax ; random_number_seed
  00d1d	8b 0d 00 00 00
	00		 mov	 ecx, DWORD PTR ?random_number_seed@@3HA ; random_number_seed
  00d23	c1 f9 10	 sar	 ecx, 16			; 00000010H
  00d26	81 e1 ff 7f 00
	00		 and	 ecx, 32767		; 00007fffH
  00d2c	f2 0f 2a c1	 cvtsi2sd xmm0, ecx
  00d30	f2 0f 59 05 00
	00 00 00	 mulsd	 xmm0, QWORD PTR __real@3f00002000400080
  00d38	66 0f 2f 05 00
	00 00 00	 comisd	 xmm0, QWORD PTR __real@3feccccccccccccd
  00d40	76 09		 jbe	 SHORT $LN98@partially_
  00d42	c7 45 bc 01 00
	00 00		 mov	 DWORD PTR tv566[ebp], 1
  00d49	eb 07		 jmp	 SHORT $LN99@partially_
$LN98@partially_:
  00d4b	c7 45 bc 00 00
	00 00		 mov	 DWORD PTR tv566[ebp], 0
$LN99@partially_:
  00d52	8b 55 bc	 mov	 edx, DWORD PTR tv566[ebp]
  00d55	83 e2 01	 and	 edx, 1
  00d58	c1 e2 1d	 shl	 edx, 29			; 0000001dH
  00d5b	a1 00 00 00 00	 mov	 eax, DWORD PTR ?comanche_damage@@3TCOMANCHE_DAMAGE_FLAGS@@A ; comanche_damage
  00d60	25 ff ff ff df	 and	 eax, -536870913		; dfffffffH
  00d65	0b c2		 or	 eax, edx
  00d67	a3 00 00 00 00	 mov	 DWORD PTR ?comanche_damage@@3TCOMANCHE_DAMAGE_FLAGS@@A, eax ; comanche_damage
$LN38@partially_:

; 561  : 	}
; 562  : 
; 563  : 	////////////////////////////////////////
; 564  : 
; 565  : 	if (comanche_damage.chaff_dispensers)

  00d6c	a1 00 00 00 00	 mov	 eax, DWORD PTR ?comanche_damage@@3TCOMANCHE_DAMAGE_FLAGS@@A ; comanche_damage
  00d71	c1 e8 1e	 shr	 eax, 30			; 0000001eH
  00d74	83 e0 01	 and	 eax, 1
  00d77	74 63		 je	 SHORT $LN39@partially_

; 566  : 	{
; 567  : 		comanche_damage.chaff_dispensers = frand1 () > 0.90;

  00d79	69 05 00 00 00
	00 6d 4e c6 41	 imul	 eax, DWORD PTR ?random_number_seed@@3HA, 1103515245 ; random_number_seed
  00d83	05 39 30 00 00	 add	 eax, 12345		; 00003039H
  00d88	a3 00 00 00 00	 mov	 DWORD PTR ?random_number_seed@@3HA, eax ; random_number_seed
  00d8d	8b 0d 00 00 00
	00		 mov	 ecx, DWORD PTR ?random_number_seed@@3HA ; random_number_seed
  00d93	c1 f9 10	 sar	 ecx, 16			; 00000010H
  00d96	81 e1 ff 7f 00
	00		 and	 ecx, 32767		; 00007fffH
  00d9c	f2 0f 2a c1	 cvtsi2sd xmm0, ecx
  00da0	f2 0f 59 05 00
	00 00 00	 mulsd	 xmm0, QWORD PTR __real@3f00002000400080
  00da8	66 0f 2f 05 00
	00 00 00	 comisd	 xmm0, QWORD PTR __real@3feccccccccccccd
  00db0	76 09		 jbe	 SHORT $LN100@partially_
  00db2	c7 45 bc 01 00
	00 00		 mov	 DWORD PTR tv581[ebp], 1
  00db9	eb 07		 jmp	 SHORT $LN101@partially_
$LN100@partially_:
  00dbb	c7 45 bc 00 00
	00 00		 mov	 DWORD PTR tv581[ebp], 0
$LN101@partially_:
  00dc2	8b 55 bc	 mov	 edx, DWORD PTR tv581[ebp]
  00dc5	83 e2 01	 and	 edx, 1
  00dc8	c1 e2 1e	 shl	 edx, 30			; 0000001eH
  00dcb	a1 00 00 00 00	 mov	 eax, DWORD PTR ?comanche_damage@@3TCOMANCHE_DAMAGE_FLAGS@@A ; comanche_damage
  00dd0	25 ff ff ff bf	 and	 eax, -1073741825	; bfffffffH
  00dd5	0b c2		 or	 eax, edx
  00dd7	a3 00 00 00 00	 mov	 DWORD PTR ?comanche_damage@@3TCOMANCHE_DAMAGE_FLAGS@@A, eax ; comanche_damage
$LN39@partially_:

; 568  : 	}
; 569  : 
; 570  : 	////////////////////////////////////////
; 571  : 
; 572  : 	if (comanche_damage.flare_dispensers)

  00ddc	a1 00 00 00 00	 mov	 eax, DWORD PTR ?comanche_damage@@3TCOMANCHE_DAMAGE_FLAGS@@A ; comanche_damage
  00de1	c1 e8 1f	 shr	 eax, 31			; 0000001fH
  00de4	83 e0 01	 and	 eax, 1
  00de7	74 63		 je	 SHORT $LN40@partially_

; 573  : 	{
; 574  : 		comanche_damage.flare_dispensers = frand1 () > 0.90;

  00de9	69 05 00 00 00
	00 6d 4e c6 41	 imul	 eax, DWORD PTR ?random_number_seed@@3HA, 1103515245 ; random_number_seed
  00df3	05 39 30 00 00	 add	 eax, 12345		; 00003039H
  00df8	a3 00 00 00 00	 mov	 DWORD PTR ?random_number_seed@@3HA, eax ; random_number_seed
  00dfd	8b 0d 00 00 00
	00		 mov	 ecx, DWORD PTR ?random_number_seed@@3HA ; random_number_seed
  00e03	c1 f9 10	 sar	 ecx, 16			; 00000010H
  00e06	81 e1 ff 7f 00
	00		 and	 ecx, 32767		; 00007fffH
  00e0c	f2 0f 2a c1	 cvtsi2sd xmm0, ecx
  00e10	f2 0f 59 05 00
	00 00 00	 mulsd	 xmm0, QWORD PTR __real@3f00002000400080
  00e18	66 0f 2f 05 00
	00 00 00	 comisd	 xmm0, QWORD PTR __real@3feccccccccccccd
  00e20	76 09		 jbe	 SHORT $LN102@partially_
  00e22	c7 45 bc 01 00
	00 00		 mov	 DWORD PTR tv596[ebp], 1
  00e29	eb 07		 jmp	 SHORT $LN103@partially_
$LN102@partially_:
  00e2b	c7 45 bc 00 00
	00 00		 mov	 DWORD PTR tv596[ebp], 0
$LN103@partially_:
  00e32	8b 55 bc	 mov	 edx, DWORD PTR tv596[ebp]
  00e35	83 e2 01	 and	 edx, 1
  00e38	c1 e2 1f	 shl	 edx, 31			; 0000001fH
  00e3b	a1 00 00 00 00	 mov	 eax, DWORD PTR ?comanche_damage@@3TCOMANCHE_DAMAGE_FLAGS@@A ; comanche_damage
  00e40	25 ff ff ff 7f	 and	 eax, 2147483647		; 7fffffffH
  00e45	0b c2		 or	 eax, edx
  00e47	a3 00 00 00 00	 mov	 DWORD PTR ?comanche_damage@@3TCOMANCHE_DAMAGE_FLAGS@@A, eax ; comanche_damage
$LN40@partially_:

; 575  : 	}
; 576  : 
; 577  : 	////////////////////////////////////////
; 578  : 
; 579  : 	set_comanche_weapon_damage_status ();

  00e4c	e8 00 00 00 00	 call	 ?set_comanche_weapon_damage_status@@YGXXZ ; set_comanche_weapon_damage_status

; 580  : }

  00e51	5f		 pop	 edi
  00e52	5e		 pop	 esi
  00e53	5b		 pop	 ebx
  00e54	8b e5		 mov	 esp, ebp
  00e56	5d		 pop	 ebp
  00e57	c3		 ret	 0
?partially_repair_comanche_damage@@YGXXZ ENDP		; partially_repair_comanche_damage
_TEXT	ENDS
; Function compile flags: /Odtp /ZI
; File c:\users\nhv90\projects\eech\aphavoc\source\gunships\avionics\comanche\cm_dam.c
;	COMDAT ?fully_repair_comanche_damage@@YGXXZ
_TEXT	SEGMENT
?fully_repair_comanche_damage@@YGXXZ PROC		; fully_repair_comanche_damage, COMDAT

; 136  : {

  00000	55		 push	 ebp
  00001	8b ec		 mov	 ebp, esp
  00003	83 ec 40	 sub	 esp, 64			; 00000040H
  00006	53		 push	 ebx
  00007	56		 push	 esi
  00008	57		 push	 edi

; 137  : 	set_comanche_text_display_text ("", "");

  00009	68 00 00 00 00	 push	 OFFSET ??_C@_00CNPNBAHC@@
  0000e	68 00 00 00 00	 push	 OFFSET ??_C@_00CNPNBAHC@@
  00013	e8 00 00 00 00	 call	 ?set_comanche_text_display_text@@YGXPAD0@Z ; set_comanche_text_display_text

; 138  : 
; 139  : 	fire_extinguisher_used = FALSE;

  00018	c7 05 00 00 00
	00 00 00 00 00	 mov	 DWORD PTR ?fire_extinguisher_used@@3HA, 0 ; fire_extinguisher_used

; 140  : 
; 141  : 	////////////////////////////////////////
; 142  : 
; 143  : 	comanche_damage.radar = FALSE;

  00022	a1 00 00 00 00	 mov	 eax, DWORD PTR ?comanche_damage@@3TCOMANCHE_DAMAGE_FLAGS@@A ; comanche_damage
  00027	83 e0 fe	 and	 eax, -2			; fffffffeH
  0002a	a3 00 00 00 00	 mov	 DWORD PTR ?comanche_damage@@3TCOMANCHE_DAMAGE_FLAGS@@A, eax ; comanche_damage

; 144  : 
; 145  : 	////////////////////////////////////////
; 146  : 
; 147  : 	comanche_damage.flir = FALSE;

  0002f	a1 00 00 00 00	 mov	 eax, DWORD PTR ?comanche_damage@@3TCOMANCHE_DAMAGE_FLAGS@@A ; comanche_damage
  00034	83 e0 fd	 and	 eax, -3			; fffffffdH
  00037	a3 00 00 00 00	 mov	 DWORD PTR ?comanche_damage@@3TCOMANCHE_DAMAGE_FLAGS@@A, eax ; comanche_damage

; 148  : 
; 149  : 	////////////////////////////////////////
; 150  : 
; 151  : 	comanche_damage.dtv = FALSE;

  0003c	a1 00 00 00 00	 mov	 eax, DWORD PTR ?comanche_damage@@3TCOMANCHE_DAMAGE_FLAGS@@A ; comanche_damage
  00041	83 e0 fb	 and	 eax, -5			; fffffffbH
  00044	a3 00 00 00 00	 mov	 DWORD PTR ?comanche_damage@@3TCOMANCHE_DAMAGE_FLAGS@@A, eax ; comanche_damage

; 152  : 
; 153  : 	////////////////////////////////////////
; 154  : 
; 155  : 	comanche_damage.dvo = FALSE;

  00049	a1 00 00 00 00	 mov	 eax, DWORD PTR ?comanche_damage@@3TCOMANCHE_DAMAGE_FLAGS@@A ; comanche_damage
  0004e	83 e0 f7	 and	 eax, -9			; fffffff7H
  00051	a3 00 00 00 00	 mov	 DWORD PTR ?comanche_damage@@3TCOMANCHE_DAMAGE_FLAGS@@A, eax ; comanche_damage

; 156  : 
; 157  : 	////////////////////////////////////////
; 158  : 
; 159  : 	comanche_damage.laser_designator = FALSE;

  00056	a1 00 00 00 00	 mov	 eax, DWORD PTR ?comanche_damage@@3TCOMANCHE_DAMAGE_FLAGS@@A ; comanche_damage
  0005b	83 e0 ef	 and	 eax, -17		; ffffffefH
  0005e	a3 00 00 00 00	 mov	 DWORD PTR ?comanche_damage@@3TCOMANCHE_DAMAGE_FLAGS@@A, eax ; comanche_damage

; 160  : 
; 161  : 	////////////////////////////////////////
; 162  : 
; 163  : 	comanche_damage.radar_jammer = FALSE;

  00063	a1 00 00 00 00	 mov	 eax, DWORD PTR ?comanche_damage@@3TCOMANCHE_DAMAGE_FLAGS@@A ; comanche_damage
  00068	83 e0 df	 and	 eax, -33		; ffffffdfH
  0006b	a3 00 00 00 00	 mov	 DWORD PTR ?comanche_damage@@3TCOMANCHE_DAMAGE_FLAGS@@A, eax ; comanche_damage

; 164  : 
; 165  : 	////////////////////////////////////////
; 166  : 
; 167  : 	comanche_damage.infra_red_jammer = FALSE;

  00070	a1 00 00 00 00	 mov	 eax, DWORD PTR ?comanche_damage@@3TCOMANCHE_DAMAGE_FLAGS@@A ; comanche_damage
  00075	83 e0 bf	 and	 eax, -65		; ffffffbfH
  00078	a3 00 00 00 00	 mov	 DWORD PTR ?comanche_damage@@3TCOMANCHE_DAMAGE_FLAGS@@A, eax ; comanche_damage

; 168  : 
; 169  : 	////////////////////////////////////////
; 170  : 
; 171  : 	comanche_damage.navigation_computer = FALSE;

  0007d	a1 00 00 00 00	 mov	 eax, DWORD PTR ?comanche_damage@@3TCOMANCHE_DAMAGE_FLAGS@@A ; comanche_damage
  00082	25 7f ff ff ff	 and	 eax, -129		; ffffff7fH
  00087	a3 00 00 00 00	 mov	 DWORD PTR ?comanche_damage@@3TCOMANCHE_DAMAGE_FLAGS@@A, eax ; comanche_damage

; 172  : 
; 173  : 	////////////////////////////////////////
; 174  : 
; 175  : 	comanche_damage.communications = FALSE;

  0008c	a1 00 00 00 00	 mov	 eax, DWORD PTR ?comanche_damage@@3TCOMANCHE_DAMAGE_FLAGS@@A ; comanche_damage
  00091	25 ff fe ff ff	 and	 eax, -257		; fffffeffH
  00096	a3 00 00 00 00	 mov	 DWORD PTR ?comanche_damage@@3TCOMANCHE_DAMAGE_FLAGS@@A, eax ; comanche_damage

; 176  : 
; 177  : 	////////////////////////////////////////
; 178  : 
; 179  : 	comanche_damage.radar_warning_system = FALSE;

  0009b	a1 00 00 00 00	 mov	 eax, DWORD PTR ?comanche_damage@@3TCOMANCHE_DAMAGE_FLAGS@@A ; comanche_damage
  000a0	25 ff fd ff ff	 and	 eax, -513		; fffffdffH
  000a5	a3 00 00 00 00	 mov	 DWORD PTR ?comanche_damage@@3TCOMANCHE_DAMAGE_FLAGS@@A, eax ; comanche_damage

; 180  : 
; 181  : 	////////////////////////////////////////
; 182  : 
; 183  : 	comanche_damage.hidss = FALSE;

  000aa	a1 00 00 00 00	 mov	 eax, DWORD PTR ?comanche_damage@@3TCOMANCHE_DAMAGE_FLAGS@@A ; comanche_damage
  000af	25 ff fb ff ff	 and	 eax, -1025		; fffffbffH
  000b4	a3 00 00 00 00	 mov	 DWORD PTR ?comanche_damage@@3TCOMANCHE_DAMAGE_FLAGS@@A, eax ; comanche_damage

; 184  : 
; 185  : 	////////////////////////////////////////
; 186  : 
; 187  : 	if (comanche_damage.pilot_lh_main_mfd)

  000b9	a1 00 00 00 00	 mov	 eax, DWORD PTR ?comanche_damage@@3TCOMANCHE_DAMAGE_FLAGS@@A ; comanche_damage
  000be	c1 e8 0c	 shr	 eax, 12			; 0000000cH
  000c1	83 e0 01	 and	 eax, 1
  000c4	74 18		 je	 SHORT $LN2@fully_repa

; 188  : 	{
; 189  : 		comanche_damage.pilot_lh_main_mfd = FALSE;

  000c6	a1 00 00 00 00	 mov	 eax, DWORD PTR ?comanche_damage@@3TCOMANCHE_DAMAGE_FLAGS@@A ; comanche_damage
  000cb	25 ff ef ff ff	 and	 eax, -4097		; ffffefffH
  000d0	a3 00 00 00 00	 mov	 DWORD PTR ?comanche_damage@@3TCOMANCHE_DAMAGE_FLAGS@@A, eax ; comanche_damage

; 190  : 
; 191  : 		select_comanche_main_mfd_mode (COMANCHE_MAIN_MFD_MODE_OFF, COMANCHE_MAIN_MFD_LOCATION_PILOT_LHS);

  000d5	6a 00		 push	 0
  000d7	6a 00		 push	 0
  000d9	e8 00 00 00 00	 call	 ?select_comanche_main_mfd_mode@@YGXW4COMANCHE_MAIN_MFD_MODES@@W4COMANCHE_MAIN_MFD_LOCATIONS@@@Z ; select_comanche_main_mfd_mode
$LN2@fully_repa:

; 192  : 	}
; 193  : 
; 194  : 	////////////////////////////////////////
; 195  : 
; 196  : 	if (comanche_damage.pilot_rh_main_mfd)

  000de	a1 00 00 00 00	 mov	 eax, DWORD PTR ?comanche_damage@@3TCOMANCHE_DAMAGE_FLAGS@@A ; comanche_damage
  000e3	c1 e8 0d	 shr	 eax, 13			; 0000000dH
  000e6	83 e0 01	 and	 eax, 1
  000e9	74 18		 je	 SHORT $LN3@fully_repa

; 197  : 	{
; 198  : 		comanche_damage.pilot_rh_main_mfd = FALSE;

  000eb	a1 00 00 00 00	 mov	 eax, DWORD PTR ?comanche_damage@@3TCOMANCHE_DAMAGE_FLAGS@@A ; comanche_damage
  000f0	25 ff df ff ff	 and	 eax, -8193		; ffffdfffH
  000f5	a3 00 00 00 00	 mov	 DWORD PTR ?comanche_damage@@3TCOMANCHE_DAMAGE_FLAGS@@A, eax ; comanche_damage

; 199  : 
; 200  : 		select_comanche_main_mfd_mode (COMANCHE_MAIN_MFD_MODE_OFF, COMANCHE_MAIN_MFD_LOCATION_PILOT_RHS);

  000fa	6a 01		 push	 1
  000fc	6a 00		 push	 0
  000fe	e8 00 00 00 00	 call	 ?select_comanche_main_mfd_mode@@YGXW4COMANCHE_MAIN_MFD_MODES@@W4COMANCHE_MAIN_MFD_LOCATIONS@@@Z ; select_comanche_main_mfd_mode
$LN3@fully_repa:

; 201  : 	}
; 202  : 
; 203  : 	////////////////////////////////////////
; 204  : 
; 205  : 	if (comanche_damage.pilot_lh_side_mfd)

  00103	a1 00 00 00 00	 mov	 eax, DWORD PTR ?comanche_damage@@3TCOMANCHE_DAMAGE_FLAGS@@A ; comanche_damage
  00108	c1 e8 0e	 shr	 eax, 14			; 0000000eH
  0010b	83 e0 01	 and	 eax, 1
  0010e	74 18		 je	 SHORT $LN4@fully_repa

; 206  : 	{
; 207  : 		comanche_damage.pilot_lh_side_mfd = FALSE;

  00110	a1 00 00 00 00	 mov	 eax, DWORD PTR ?comanche_damage@@3TCOMANCHE_DAMAGE_FLAGS@@A ; comanche_damage
  00115	25 ff bf ff ff	 and	 eax, -16385		; ffffbfffH
  0011a	a3 00 00 00 00	 mov	 DWORD PTR ?comanche_damage@@3TCOMANCHE_DAMAGE_FLAGS@@A, eax ; comanche_damage

; 208  : 
; 209  : 		select_comanche_side_mfd_mode (COMANCHE_SIDE_MFD_MODE_OFF, COMANCHE_SIDE_MFD_LOCATION_PILOT_LHS);

  0011f	6a 00		 push	 0
  00121	6a 00		 push	 0
  00123	e8 00 00 00 00	 call	 ?select_comanche_side_mfd_mode@@YGXW4COMANCHE_SIDE_MFD_MODES@@W4COMANCHE_SIDE_MFD_LOCATIONS@@@Z ; select_comanche_side_mfd_mode
$LN4@fully_repa:

; 210  : 	}
; 211  : 
; 212  : 	////////////////////////////////////////
; 213  : 
; 214  : 	if (comanche_damage.pilot_rh_side_mfd)

  00128	a1 00 00 00 00	 mov	 eax, DWORD PTR ?comanche_damage@@3TCOMANCHE_DAMAGE_FLAGS@@A ; comanche_damage
  0012d	c1 e8 0f	 shr	 eax, 15			; 0000000fH
  00130	83 e0 01	 and	 eax, 1
  00133	74 18		 je	 SHORT $LN5@fully_repa

; 215  : 	{
; 216  : 		comanche_damage.pilot_rh_side_mfd = FALSE;

  00135	a1 00 00 00 00	 mov	 eax, DWORD PTR ?comanche_damage@@3TCOMANCHE_DAMAGE_FLAGS@@A ; comanche_damage
  0013a	25 ff 7f ff ff	 and	 eax, -32769		; ffff7fffH
  0013f	a3 00 00 00 00	 mov	 DWORD PTR ?comanche_damage@@3TCOMANCHE_DAMAGE_FLAGS@@A, eax ; comanche_damage

; 217  : 
; 218  : 		select_comanche_side_mfd_mode (COMANCHE_SIDE_MFD_MODE_OFF, COMANCHE_SIDE_MFD_LOCATION_PILOT_RHS);

  00144	6a 01		 push	 1
  00146	6a 00		 push	 0
  00148	e8 00 00 00 00	 call	 ?select_comanche_side_mfd_mode@@YGXW4COMANCHE_SIDE_MFD_MODES@@W4COMANCHE_SIDE_MFD_LOCATIONS@@@Z ; select_comanche_side_mfd_mode
$LN5@fully_repa:

; 219  : 	}
; 220  : 
; 221  : 	////////////////////////////////////////
; 222  : 
; 223  : 	if (comanche_damage.co_pilot_lh_main_mfd)

  0014d	a1 00 00 00 00	 mov	 eax, DWORD PTR ?comanche_damage@@3TCOMANCHE_DAMAGE_FLAGS@@A ; comanche_damage
  00152	c1 e8 10	 shr	 eax, 16			; 00000010H
  00155	83 e0 01	 and	 eax, 1
  00158	74 18		 je	 SHORT $LN6@fully_repa

; 224  : 	{
; 225  : 		comanche_damage.co_pilot_lh_main_mfd = FALSE;

  0015a	a1 00 00 00 00	 mov	 eax, DWORD PTR ?comanche_damage@@3TCOMANCHE_DAMAGE_FLAGS@@A ; comanche_damage
  0015f	25 ff ff fe ff	 and	 eax, -65537		; fffeffffH
  00164	a3 00 00 00 00	 mov	 DWORD PTR ?comanche_damage@@3TCOMANCHE_DAMAGE_FLAGS@@A, eax ; comanche_damage

; 226  : 
; 227  : 		select_comanche_main_mfd_mode (COMANCHE_MAIN_MFD_MODE_OFF, COMANCHE_MAIN_MFD_LOCATION_CO_PILOT_LHS);

  00169	6a 02		 push	 2
  0016b	6a 00		 push	 0
  0016d	e8 00 00 00 00	 call	 ?select_comanche_main_mfd_mode@@YGXW4COMANCHE_MAIN_MFD_MODES@@W4COMANCHE_MAIN_MFD_LOCATIONS@@@Z ; select_comanche_main_mfd_mode
$LN6@fully_repa:

; 228  : 	}
; 229  : 
; 230  : 	////////////////////////////////////////
; 231  : 
; 232  : 	if (comanche_damage.co_pilot_rh_main_mfd)

  00172	a1 00 00 00 00	 mov	 eax, DWORD PTR ?comanche_damage@@3TCOMANCHE_DAMAGE_FLAGS@@A ; comanche_damage
  00177	c1 e8 11	 shr	 eax, 17			; 00000011H
  0017a	83 e0 01	 and	 eax, 1
  0017d	74 18		 je	 SHORT $LN7@fully_repa

; 233  : 	{
; 234  : 		comanche_damage.co_pilot_rh_main_mfd = FALSE;

  0017f	a1 00 00 00 00	 mov	 eax, DWORD PTR ?comanche_damage@@3TCOMANCHE_DAMAGE_FLAGS@@A ; comanche_damage
  00184	25 ff ff fd ff	 and	 eax, -131073		; fffdffffH
  00189	a3 00 00 00 00	 mov	 DWORD PTR ?comanche_damage@@3TCOMANCHE_DAMAGE_FLAGS@@A, eax ; comanche_damage

; 235  : 
; 236  : 		select_comanche_main_mfd_mode (COMANCHE_MAIN_MFD_MODE_OFF, COMANCHE_MAIN_MFD_LOCATION_CO_PILOT_RHS);

  0018e	6a 03		 push	 3
  00190	6a 00		 push	 0
  00192	e8 00 00 00 00	 call	 ?select_comanche_main_mfd_mode@@YGXW4COMANCHE_MAIN_MFD_MODES@@W4COMANCHE_MAIN_MFD_LOCATIONS@@@Z ; select_comanche_main_mfd_mode
$LN7@fully_repa:

; 237  : 	}
; 238  : 
; 239  : 	////////////////////////////////////////
; 240  : 
; 241  : 	if (comanche_damage.co_pilot_lh_side_mfd)

  00197	a1 00 00 00 00	 mov	 eax, DWORD PTR ?comanche_damage@@3TCOMANCHE_DAMAGE_FLAGS@@A ; comanche_damage
  0019c	c1 e8 12	 shr	 eax, 18			; 00000012H
  0019f	83 e0 01	 and	 eax, 1
  001a2	74 18		 je	 SHORT $LN8@fully_repa

; 242  : 	{
; 243  : 		comanche_damage.co_pilot_lh_side_mfd = FALSE;

  001a4	a1 00 00 00 00	 mov	 eax, DWORD PTR ?comanche_damage@@3TCOMANCHE_DAMAGE_FLAGS@@A ; comanche_damage
  001a9	25 ff ff fb ff	 and	 eax, -262145		; fffbffffH
  001ae	a3 00 00 00 00	 mov	 DWORD PTR ?comanche_damage@@3TCOMANCHE_DAMAGE_FLAGS@@A, eax ; comanche_damage

; 244  : 
; 245  : 		select_comanche_side_mfd_mode (COMANCHE_SIDE_MFD_MODE_OFF, COMANCHE_SIDE_MFD_LOCATION_CO_PILOT_LHS);

  001b3	6a 02		 push	 2
  001b5	6a 00		 push	 0
  001b7	e8 00 00 00 00	 call	 ?select_comanche_side_mfd_mode@@YGXW4COMANCHE_SIDE_MFD_MODES@@W4COMANCHE_SIDE_MFD_LOCATIONS@@@Z ; select_comanche_side_mfd_mode
$LN8@fully_repa:

; 246  : 	}
; 247  : 
; 248  : 	////////////////////////////////////////
; 249  : 
; 250  : 	if (comanche_damage.co_pilot_rh_side_mfd)

  001bc	a1 00 00 00 00	 mov	 eax, DWORD PTR ?comanche_damage@@3TCOMANCHE_DAMAGE_FLAGS@@A ; comanche_damage
  001c1	c1 e8 13	 shr	 eax, 19			; 00000013H
  001c4	83 e0 01	 and	 eax, 1
  001c7	74 18		 je	 SHORT $LN9@fully_repa

; 251  : 	{
; 252  : 		comanche_damage.co_pilot_rh_side_mfd = FALSE;

  001c9	a1 00 00 00 00	 mov	 eax, DWORD PTR ?comanche_damage@@3TCOMANCHE_DAMAGE_FLAGS@@A ; comanche_damage
  001ce	25 ff ff f7 ff	 and	 eax, -524289		; fff7ffffH
  001d3	a3 00 00 00 00	 mov	 DWORD PTR ?comanche_damage@@3TCOMANCHE_DAMAGE_FLAGS@@A, eax ; comanche_damage

; 253  : 
; 254  : 		select_comanche_side_mfd_mode (COMANCHE_SIDE_MFD_MODE_OFF, COMANCHE_SIDE_MFD_LOCATION_CO_PILOT_RHS);

  001d8	6a 03		 push	 3
  001da	6a 00		 push	 0
  001dc	e8 00 00 00 00	 call	 ?select_comanche_side_mfd_mode@@YGXW4COMANCHE_SIDE_MFD_MODES@@W4COMANCHE_SIDE_MFD_LOCATIONS@@@Z ; select_comanche_side_mfd_mode
$LN9@fully_repa:

; 255  : 	}
; 256  : 
; 257  : 	////////////////////////////////////////
; 258  : 
; 259  : 	comanche_damage.pnvs = FALSE;

  001e1	a1 00 00 00 00	 mov	 eax, DWORD PTR ?comanche_damage@@3TCOMANCHE_DAMAGE_FLAGS@@A ; comanche_damage
  001e6	25 ff ff ef ff	 and	 eax, -1048577		; ffefffffH
  001eb	a3 00 00 00 00	 mov	 DWORD PTR ?comanche_damage@@3TCOMANCHE_DAMAGE_FLAGS@@A, eax ; comanche_damage

; 260  : 
; 261  : 	////////////////////////////////////////
; 262  : 
; 263  : 	comanche_damage.gun_jammed = FALSE;

  001f0	a1 00 00 00 00	 mov	 eax, DWORD PTR ?comanche_damage@@3TCOMANCHE_DAMAGE_FLAGS@@A ; comanche_damage
  001f5	25 ff ff df ff	 and	 eax, -2097153		; ffdfffffH
  001fa	a3 00 00 00 00	 mov	 DWORD PTR ?comanche_damage@@3TCOMANCHE_DAMAGE_FLAGS@@A, eax ; comanche_damage

; 264  : 
; 265  : 	////////////////////////////////////////
; 266  : 
; 267  : 	comanche_damage.lh_stub_wing_pylon = FALSE;

  001ff	a1 00 00 00 00	 mov	 eax, DWORD PTR ?comanche_damage@@3TCOMANCHE_DAMAGE_FLAGS@@A ; comanche_damage
  00204	25 ff ff bf ff	 and	 eax, -4194305		; ffbfffffH
  00209	a3 00 00 00 00	 mov	 DWORD PTR ?comanche_damage@@3TCOMANCHE_DAMAGE_FLAGS@@A, eax ; comanche_damage

; 268  : 
; 269  : 	////////////////////////////////////////
; 270  : 
; 271  : 	comanche_damage.lh_bay_door_inner_pylon = FALSE;

  0020e	a1 00 00 00 00	 mov	 eax, DWORD PTR ?comanche_damage@@3TCOMANCHE_DAMAGE_FLAGS@@A ; comanche_damage
  00213	25 ff ff 7f ff	 and	 eax, -8388609		; ff7fffffH
  00218	a3 00 00 00 00	 mov	 DWORD PTR ?comanche_damage@@3TCOMANCHE_DAMAGE_FLAGS@@A, eax ; comanche_damage

; 272  : 
; 273  : 	////////////////////////////////////////
; 274  : 
; 275  : 	comanche_damage.lh_bay_door_middle_pylon = FALSE;

  0021d	a1 00 00 00 00	 mov	 eax, DWORD PTR ?comanche_damage@@3TCOMANCHE_DAMAGE_FLAGS@@A ; comanche_damage
  00222	25 ff ff ff fe	 and	 eax, -16777217		; feffffffH
  00227	a3 00 00 00 00	 mov	 DWORD PTR ?comanche_damage@@3TCOMANCHE_DAMAGE_FLAGS@@A, eax ; comanche_damage

; 276  : 
; 277  : 	////////////////////////////////////////
; 278  : 
; 279  : 	comanche_damage.lh_bay_door_outer_pylon = FALSE;

  0022c	a1 00 00 00 00	 mov	 eax, DWORD PTR ?comanche_damage@@3TCOMANCHE_DAMAGE_FLAGS@@A ; comanche_damage
  00231	25 ff ff ff fd	 and	 eax, -33554433		; fdffffffH
  00236	a3 00 00 00 00	 mov	 DWORD PTR ?comanche_damage@@3TCOMANCHE_DAMAGE_FLAGS@@A, eax ; comanche_damage

; 280  : 
; 281  : 	////////////////////////////////////////
; 282  : 
; 283  : 	comanche_damage.rh_stub_wing_pylon = FALSE;

  0023b	a1 00 00 00 00	 mov	 eax, DWORD PTR ?comanche_damage@@3TCOMANCHE_DAMAGE_FLAGS@@A ; comanche_damage
  00240	25 ff ff ff fb	 and	 eax, -67108865		; fbffffffH
  00245	a3 00 00 00 00	 mov	 DWORD PTR ?comanche_damage@@3TCOMANCHE_DAMAGE_FLAGS@@A, eax ; comanche_damage

; 284  : 
; 285  : 	////////////////////////////////////////
; 286  : 
; 287  : 	comanche_damage.rh_bay_door_inner_pylon = FALSE;

  0024a	a1 00 00 00 00	 mov	 eax, DWORD PTR ?comanche_damage@@3TCOMANCHE_DAMAGE_FLAGS@@A ; comanche_damage
  0024f	25 ff ff ff f7	 and	 eax, -134217729		; f7ffffffH
  00254	a3 00 00 00 00	 mov	 DWORD PTR ?comanche_damage@@3TCOMANCHE_DAMAGE_FLAGS@@A, eax ; comanche_damage

; 288  : 
; 289  : 	////////////////////////////////////////
; 290  : 
; 291  : 	comanche_damage.rh_bay_door_middle_pylon = FALSE;

  00259	a1 00 00 00 00	 mov	 eax, DWORD PTR ?comanche_damage@@3TCOMANCHE_DAMAGE_FLAGS@@A ; comanche_damage
  0025e	25 ff ff ff ef	 and	 eax, -268435457		; efffffffH
  00263	a3 00 00 00 00	 mov	 DWORD PTR ?comanche_damage@@3TCOMANCHE_DAMAGE_FLAGS@@A, eax ; comanche_damage

; 292  : 
; 293  : 	////////////////////////////////////////
; 294  : 
; 295  : 	comanche_damage.rh_bay_door_outer_pylon = FALSE;

  00268	a1 00 00 00 00	 mov	 eax, DWORD PTR ?comanche_damage@@3TCOMANCHE_DAMAGE_FLAGS@@A ; comanche_damage
  0026d	25 ff ff ff df	 and	 eax, -536870913		; dfffffffH
  00272	a3 00 00 00 00	 mov	 DWORD PTR ?comanche_damage@@3TCOMANCHE_DAMAGE_FLAGS@@A, eax ; comanche_damage

; 296  : 
; 297  : 	////////////////////////////////////////
; 298  : 
; 299  : 	comanche_damage.chaff_dispensers = FALSE;

  00277	a1 00 00 00 00	 mov	 eax, DWORD PTR ?comanche_damage@@3TCOMANCHE_DAMAGE_FLAGS@@A ; comanche_damage
  0027c	25 ff ff ff bf	 and	 eax, -1073741825	; bfffffffH
  00281	a3 00 00 00 00	 mov	 DWORD PTR ?comanche_damage@@3TCOMANCHE_DAMAGE_FLAGS@@A, eax ; comanche_damage

; 300  : 
; 301  : 	////////////////////////////////////////
; 302  : 
; 303  : 	comanche_damage.flare_dispensers = FALSE;

  00286	a1 00 00 00 00	 mov	 eax, DWORD PTR ?comanche_damage@@3TCOMANCHE_DAMAGE_FLAGS@@A ; comanche_damage
  0028b	25 ff ff ff 7f	 and	 eax, 2147483647		; 7fffffffH
  00290	a3 00 00 00 00	 mov	 DWORD PTR ?comanche_damage@@3TCOMANCHE_DAMAGE_FLAGS@@A, eax ; comanche_damage

; 304  : 
; 305  : 	////////////////////////////////////////
; 306  : 
; 307  : 	set_comanche_weapon_damage_status ();

  00295	e8 00 00 00 00	 call	 ?set_comanche_weapon_damage_status@@YGXXZ ; set_comanche_weapon_damage_status

; 308  : }

  0029a	5f		 pop	 edi
  0029b	5e		 pop	 esi
  0029c	5b		 pop	 ebx
  0029d	8b e5		 mov	 esp, ebp
  0029f	5d		 pop	 ebp
  002a0	c3		 ret	 0
?fully_repair_comanche_damage@@YGXXZ ENDP		; fully_repair_comanche_damage
_TEXT	ENDS
; Function compile flags: /Odtp /ZI
; File c:\users\nhv90\projects\eech\aphavoc\source\gunships\avionics\comanche\cm_dam.c
;	COMDAT ?set_comanche_weapon_damage_status@@YGXXZ
_TEXT	SEGMENT
tv188 = -80						; size = 4
tv180 = -76						; size = 4
_weapon_sub_type$ = -8					; size = 4
_en$ = -4						; size = 4
?set_comanche_weapon_damage_status@@YGXXZ PROC		; set_comanche_weapon_damage_status, COMDAT

; 87   : {

  00000	55		 push	 ebp
  00001	8b ec		 mov	 ebp, esp
  00003	83 ec 50	 sub	 esp, 80			; 00000050H
  00006	53		 push	 ebx
  00007	56		 push	 esi
  00008	57		 push	 edi

; 88   : 	entity
; 89   : 		*en;
; 90   : 
; 91   : 	entity_sub_types
; 92   : 		weapon_sub_type;
; 93   : 
; 94   : 	en = get_gunship_entity ();

  00009	a1 00 00 00 00	 mov	 eax, DWORD PTR ?gunship_entity@@3PAUENTITY@@A ; gunship_entity
  0000e	89 45 fc	 mov	 DWORD PTR _en$[ebp], eax

; 95   : 
; 96   : 	set_client_server_entity_weapon_damage (en, COMANCHE_CANNON_TURRET, ENTITY_SUB_TYPE_WEAPON_NO_WEAPON, comanche_damage.gun_jammed);

  00011	a1 00 00 00 00	 mov	 eax, DWORD PTR ?comanche_damage@@3TCOMANCHE_DAMAGE_FLAGS@@A ; comanche_damage
  00016	c1 e8 15	 shr	 eax, 21			; 00000015H
  00019	83 e0 01	 and	 eax, 1
  0001c	50		 push	 eax
  0001d	6a 00		 push	 0
  0001f	6a 04		 push	 4
  00021	8b 4d fc	 mov	 ecx, DWORD PTR _en$[ebp]
  00024	51		 push	 ecx
  00025	e8 00 00 00 00	 call	 ?set_client_server_entity_weapon_damage@@YGXPAUENTITY@@HHH@Z ; set_client_server_entity_weapon_damage

; 97   : 
; 98   : 	set_client_server_entity_weapon_damage (en, COMANCHE_LHS_STUB_WING, ENTITY_SUB_TYPE_WEAPON_NO_WEAPON, comanche_damage.lh_stub_wing_pylon);

  0002a	a1 00 00 00 00	 mov	 eax, DWORD PTR ?comanche_damage@@3TCOMANCHE_DAMAGE_FLAGS@@A ; comanche_damage
  0002f	c1 e8 16	 shr	 eax, 22			; 00000016H
  00032	83 e0 01	 and	 eax, 1
  00035	50		 push	 eax
  00036	6a 00		 push	 0
  00038	6a 00		 push	 0
  0003a	8b 4d fc	 mov	 ecx, DWORD PTR _en$[ebp]
  0003d	51		 push	 ecx
  0003e	e8 00 00 00 00	 call	 ?set_client_server_entity_weapon_damage@@YGXPAUENTITY@@HHH@Z ; set_client_server_entity_weapon_damage

; 99   : 	set_client_server_entity_weapon_damage (en, COMANCHE_LHS_BAY_DOOR_INNER, ENTITY_SUB_TYPE_WEAPON_NO_WEAPON, comanche_damage.lh_bay_door_inner_pylon);

  00043	a1 00 00 00 00	 mov	 eax, DWORD PTR ?comanche_damage@@3TCOMANCHE_DAMAGE_FLAGS@@A ; comanche_damage
  00048	c1 e8 17	 shr	 eax, 23			; 00000017H
  0004b	83 e0 01	 and	 eax, 1
  0004e	50		 push	 eax
  0004f	6a 00		 push	 0
  00051	6a 05		 push	 5
  00053	8b 4d fc	 mov	 ecx, DWORD PTR _en$[ebp]
  00056	51		 push	 ecx
  00057	e8 00 00 00 00	 call	 ?set_client_server_entity_weapon_damage@@YGXPAUENTITY@@HHH@Z ; set_client_server_entity_weapon_damage

; 100  : 	set_client_server_entity_weapon_damage (en, COMANCHE_LHS_BAY_DOOR_MIDDLE, ENTITY_SUB_TYPE_WEAPON_NO_WEAPON, comanche_damage.lh_bay_door_middle_pylon);

  0005c	a1 00 00 00 00	 mov	 eax, DWORD PTR ?comanche_damage@@3TCOMANCHE_DAMAGE_FLAGS@@A ; comanche_damage
  00061	c1 e8 18	 shr	 eax, 24			; 00000018H
  00064	83 e0 01	 and	 eax, 1
  00067	50		 push	 eax
  00068	6a 00		 push	 0
  0006a	6a 06		 push	 6
  0006c	8b 4d fc	 mov	 ecx, DWORD PTR _en$[ebp]
  0006f	51		 push	 ecx
  00070	e8 00 00 00 00	 call	 ?set_client_server_entity_weapon_damage@@YGXPAUENTITY@@HHH@Z ; set_client_server_entity_weapon_damage

; 101  : 	set_client_server_entity_weapon_damage (en, COMANCHE_LHS_BAY_DOOR_OUTER, ENTITY_SUB_TYPE_WEAPON_NO_WEAPON, comanche_damage.lh_bay_door_outer_pylon);

  00075	a1 00 00 00 00	 mov	 eax, DWORD PTR ?comanche_damage@@3TCOMANCHE_DAMAGE_FLAGS@@A ; comanche_damage
  0007a	c1 e8 19	 shr	 eax, 25			; 00000019H
  0007d	83 e0 01	 and	 eax, 1
  00080	50		 push	 eax
  00081	6a 00		 push	 0
  00083	6a 07		 push	 7
  00085	8b 4d fc	 mov	 ecx, DWORD PTR _en$[ebp]
  00088	51		 push	 ecx
  00089	e8 00 00 00 00	 call	 ?set_client_server_entity_weapon_damage@@YGXPAUENTITY@@HHH@Z ; set_client_server_entity_weapon_damage

; 102  : 
; 103  : 	set_client_server_entity_weapon_damage (en, COMANCHE_RHS_STUB_WING, ENTITY_SUB_TYPE_WEAPON_NO_WEAPON, comanche_damage.rh_stub_wing_pylon);

  0008e	a1 00 00 00 00	 mov	 eax, DWORD PTR ?comanche_damage@@3TCOMANCHE_DAMAGE_FLAGS@@A ; comanche_damage
  00093	c1 e8 1a	 shr	 eax, 26			; 0000001aH
  00096	83 e0 01	 and	 eax, 1
  00099	50		 push	 eax
  0009a	6a 00		 push	 0
  0009c	6a 01		 push	 1
  0009e	8b 4d fc	 mov	 ecx, DWORD PTR _en$[ebp]
  000a1	51		 push	 ecx
  000a2	e8 00 00 00 00	 call	 ?set_client_server_entity_weapon_damage@@YGXPAUENTITY@@HHH@Z ; set_client_server_entity_weapon_damage

; 104  : 	set_client_server_entity_weapon_damage (en, COMANCHE_RHS_BAY_DOOR_INNER, ENTITY_SUB_TYPE_WEAPON_NO_WEAPON, comanche_damage.rh_bay_door_inner_pylon);

  000a7	a1 00 00 00 00	 mov	 eax, DWORD PTR ?comanche_damage@@3TCOMANCHE_DAMAGE_FLAGS@@A ; comanche_damage
  000ac	c1 e8 1b	 shr	 eax, 27			; 0000001bH
  000af	83 e0 01	 and	 eax, 1
  000b2	50		 push	 eax
  000b3	6a 00		 push	 0
  000b5	6a 08		 push	 8
  000b7	8b 4d fc	 mov	 ecx, DWORD PTR _en$[ebp]
  000ba	51		 push	 ecx
  000bb	e8 00 00 00 00	 call	 ?set_client_server_entity_weapon_damage@@YGXPAUENTITY@@HHH@Z ; set_client_server_entity_weapon_damage

; 105  : 	set_client_server_entity_weapon_damage (en, COMANCHE_RHS_BAY_DOOR_MIDDLE, ENTITY_SUB_TYPE_WEAPON_NO_WEAPON, comanche_damage.rh_bay_door_middle_pylon);

  000c0	a1 00 00 00 00	 mov	 eax, DWORD PTR ?comanche_damage@@3TCOMANCHE_DAMAGE_FLAGS@@A ; comanche_damage
  000c5	c1 e8 1c	 shr	 eax, 28			; 0000001cH
  000c8	83 e0 01	 and	 eax, 1
  000cb	50		 push	 eax
  000cc	6a 00		 push	 0
  000ce	6a 09		 push	 9
  000d0	8b 4d fc	 mov	 ecx, DWORD PTR _en$[ebp]
  000d3	51		 push	 ecx
  000d4	e8 00 00 00 00	 call	 ?set_client_server_entity_weapon_damage@@YGXPAUENTITY@@HHH@Z ; set_client_server_entity_weapon_damage

; 106  : 	set_client_server_entity_weapon_damage (en, COMANCHE_RHS_BAY_DOOR_OUTER, ENTITY_SUB_TYPE_WEAPON_NO_WEAPON, comanche_damage.rh_bay_door_outer_pylon);

  000d9	a1 00 00 00 00	 mov	 eax, DWORD PTR ?comanche_damage@@3TCOMANCHE_DAMAGE_FLAGS@@A ; comanche_damage
  000de	c1 e8 1d	 shr	 eax, 29			; 0000001dH
  000e1	83 e0 01	 and	 eax, 1
  000e4	50		 push	 eax
  000e5	6a 00		 push	 0
  000e7	6a 0a		 push	 10			; 0000000aH
  000e9	8b 4d fc	 mov	 ecx, DWORD PTR _en$[ebp]
  000ec	51		 push	 ecx
  000ed	e8 00 00 00 00	 call	 ?set_client_server_entity_weapon_damage@@YGXPAUENTITY@@HHH@Z ; set_client_server_entity_weapon_damage

; 107  : 
; 108  : 	set_client_server_entity_weapon_damage (en, COMANCHE_LHS_CHAFF_DISPENSER, ENTITY_SUB_TYPE_WEAPON_CHAFF, comanche_damage.chaff_dispensers);

  000f2	a1 00 00 00 00	 mov	 eax, DWORD PTR ?comanche_damage@@3TCOMANCHE_DAMAGE_FLAGS@@A ; comanche_damage
  000f7	c1 e8 1e	 shr	 eax, 30			; 0000001eH
  000fa	83 e0 01	 and	 eax, 1
  000fd	50		 push	 eax
  000fe	6a 43		 push	 67			; 00000043H
  00100	6a 02		 push	 2
  00102	8b 4d fc	 mov	 ecx, DWORD PTR _en$[ebp]
  00105	51		 push	 ecx
  00106	e8 00 00 00 00	 call	 ?set_client_server_entity_weapon_damage@@YGXPAUENTITY@@HHH@Z ; set_client_server_entity_weapon_damage

; 109  : 	set_client_server_entity_weapon_damage (en, COMANCHE_RHS_CHAFF_DISPENSER, ENTITY_SUB_TYPE_WEAPON_CHAFF, comanche_damage.chaff_dispensers);

  0010b	a1 00 00 00 00	 mov	 eax, DWORD PTR ?comanche_damage@@3TCOMANCHE_DAMAGE_FLAGS@@A ; comanche_damage
  00110	c1 e8 1e	 shr	 eax, 30			; 0000001eH
  00113	83 e0 01	 and	 eax, 1
  00116	50		 push	 eax
  00117	6a 43		 push	 67			; 00000043H
  00119	6a 03		 push	 3
  0011b	8b 4d fc	 mov	 ecx, DWORD PTR _en$[ebp]
  0011e	51		 push	 ecx
  0011f	e8 00 00 00 00	 call	 ?set_client_server_entity_weapon_damage@@YGXPAUENTITY@@HHH@Z ; set_client_server_entity_weapon_damage

; 110  : 
; 111  : 	set_client_server_entity_weapon_damage (en, COMANCHE_LHS_FLARE_DISPENSER, ENTITY_SUB_TYPE_WEAPON_FLARE, comanche_damage.flare_dispensers);

  00124	a1 00 00 00 00	 mov	 eax, DWORD PTR ?comanche_damage@@3TCOMANCHE_DAMAGE_FLAGS@@A ; comanche_damage
  00129	c1 e8 1f	 shr	 eax, 31			; 0000001fH
  0012c	83 e0 01	 and	 eax, 1
  0012f	50		 push	 eax
  00130	6a 44		 push	 68			; 00000044H
  00132	6a 02		 push	 2
  00134	8b 4d fc	 mov	 ecx, DWORD PTR _en$[ebp]
  00137	51		 push	 ecx
  00138	e8 00 00 00 00	 call	 ?set_client_server_entity_weapon_damage@@YGXPAUENTITY@@HHH@Z ; set_client_server_entity_weapon_damage

; 112  : 	set_client_server_entity_weapon_damage (en, COMANCHE_RHS_FLARE_DISPENSER, ENTITY_SUB_TYPE_WEAPON_FLARE, comanche_damage.flare_dispensers);

  0013d	a1 00 00 00 00	 mov	 eax, DWORD PTR ?comanche_damage@@3TCOMANCHE_DAMAGE_FLAGS@@A ; comanche_damage
  00142	c1 e8 1f	 shr	 eax, 31			; 0000001fH
  00145	83 e0 01	 and	 eax, 1
  00148	50		 push	 eax
  00149	6a 44		 push	 68			; 00000044H
  0014b	6a 03		 push	 3
  0014d	8b 4d fc	 mov	 ecx, DWORD PTR _en$[ebp]
  00150	51		 push	 ecx
  00151	e8 00 00 00 00	 call	 ?set_client_server_entity_weapon_damage@@YGXPAUENTITY@@HHH@Z ; set_client_server_entity_weapon_damage

; 113  : 
; 114  : 	//
; 115  : 	// check if selected weapon is still available, if not, select next
; 116  : 	//
; 117  : 
; 118  : 	weapon_sub_type = get_local_entity_int_value (en, INT_TYPE_SELECTED_WEAPON);

  00156	83 7d fc 00	 cmp	 DWORD PTR _en$[ebp], 0
  0015a	74 0a		 je	 SHORT $LN5@set_comanc
  0015c	8b 45 fc	 mov	 eax, DWORD PTR _en$[ebp]
  0015f	8b 08		 mov	 ecx, DWORD PTR [eax]
  00161	89 4d b4	 mov	 DWORD PTR tv180[ebp], ecx
  00164	eb 21		 jmp	 SHORT $LN6@set_comanc
$LN5@set_comanc:
  00166	8b 15 00 00 00
	00		 mov	 edx, DWORD PTR ?__LINE__Var@?0??set_comanche_weapon_damage_status@@YGXXZ@4JA
  0016c	83 c2 1f	 add	 edx, 31			; 0000001fH
  0016f	52		 push	 edx
  00170	68 00 00 00 00	 push	 OFFSET ??_C@_0FA@JPBKDNME@c?3?2users?2nhv90?2projects?2eech?2ap@
  00175	a1 00 00 00 00	 mov	 eax, DWORD PTR ?null_entity_pointer_message@@3PBDB ; null_entity_pointer_message
  0017a	50		 push	 eax
  0017b	e8 00 00 00 00	 call	 ?process_assert@@YGXPBD0H@Z ; process_assert
  00180	c7 45 b4 00 00
	00 00		 mov	 DWORD PTR tv180[ebp], 0
$LN6@set_comanc:
  00187	b9 01 00 00 00	 mov	 ecx, 1
  0018c	85 c9		 test	 ecx, ecx
  0018e	74 09		 je	 SHORT $LN7@set_comanc
  00190	c7 45 b0 b8 00
	00 00		 mov	 DWORD PTR tv188[ebp], 184 ; 000000b8H
  00197	eb 21		 jmp	 SHORT $LN8@set_comanc
$LN7@set_comanc:
  00199	8b 15 00 00 00
	00		 mov	 edx, DWORD PTR ?__LINE__Var@?0??set_comanche_weapon_damage_status@@YGXXZ@4JA
  0019f	83 c2 1f	 add	 edx, 31			; 0000001fH
  001a2	52		 push	 edx
  001a3	68 00 00 00 00	 push	 OFFSET ??_C@_0FA@JPBKDNME@c?3?2users?2nhv90?2projects?2eech?2ap@
  001a8	a1 00 00 00 00	 mov	 eax, DWORD PTR ?overload_invalid_int_type_message@@3PBDB ; overload_invalid_int_type_message
  001ad	50		 push	 eax
  001ae	e8 00 00 00 00	 call	 ?process_assert@@YGXPBD0H@Z ; process_assert
  001b3	c7 45 b0 00 00
	00 00		 mov	 DWORD PTR tv188[ebp], 0
$LN8@set_comanc:
  001ba	68 b8 00 00 00	 push	 184			; 000000b8H
  001bf	8b 4d fc	 mov	 ecx, DWORD PTR _en$[ebp]
  001c2	51		 push	 ecx
  001c3	69 55 b4 5c 04
	00 00		 imul	 edx, DWORD PTR tv180[ebp], 1116
  001ca	8b 45 b0	 mov	 eax, DWORD PTR tv188[ebp]
  001cd	8b 8c 82 00 00
	00 00		 mov	 ecx, DWORD PTR ?fn_get_local_entity_int_value@@3PAY0BBH@P6GHPAUENTITY@@W4INT_TYPES@@@ZA[edx+eax*4]
  001d4	ff d1		 call	 ecx
  001d6	89 45 f8	 mov	 DWORD PTR _weapon_sub_type$[ebp], eax

; 119  : 
; 120  : 	if (weapon_sub_type != ENTITY_SUB_TYPE_WEAPON_NO_WEAPON)

  001d9	83 7d f8 00	 cmp	 DWORD PTR _weapon_sub_type$[ebp], 0
  001dd	74 26		 je	 SHORT $LN1@set_comanc

; 121  : 	{
; 122  : 		if (!get_local_entity_weapon_available (en, weapon_sub_type))

  001df	8b 45 f8	 mov	 eax, DWORD PTR _weapon_sub_type$[ebp]
  001e2	50		 push	 eax
  001e3	8b 4d fc	 mov	 ecx, DWORD PTR _en$[ebp]
  001e6	51		 push	 ecx
  001e7	e8 00 00 00 00	 call	 ?get_local_entity_weapon_available@@YGHPAUENTITY@@H@Z ; get_local_entity_weapon_available
  001ec	85 c0		 test	 eax, eax
  001ee	75 15		 jne	 SHORT $LN1@set_comanc

; 123  : 		{
; 124  : 			weapon_sub_type = get_next_available_weapon_sub_type (en);

  001f0	8b 45 fc	 mov	 eax, DWORD PTR _en$[ebp]
  001f3	50		 push	 eax
  001f4	e8 00 00 00 00	 call	 ?get_next_available_weapon_sub_type@@YGHPAUENTITY@@@Z ; get_next_available_weapon_sub_type
  001f9	89 45 f8	 mov	 DWORD PTR _weapon_sub_type$[ebp], eax

; 125  : 
; 126  : 			set_gunship_weapon (weapon_sub_type);

  001fc	8b 45 f8	 mov	 eax, DWORD PTR _weapon_sub_type$[ebp]
  001ff	50		 push	 eax
  00200	e8 00 00 00 00	 call	 ?set_gunship_weapon@@YGXH@Z ; set_gunship_weapon
$LN1@set_comanc:

; 127  : 		}
; 128  : 	}
; 129  : }

  00205	5f		 pop	 edi
  00206	5e		 pop	 esi
  00207	5b		 pop	 ebx
  00208	8b e5		 mov	 esp, ebp
  0020a	5d		 pop	 ebp
  0020b	c3		 ret	 0
?set_comanche_weapon_damage_status@@YGXXZ ENDP		; set_comanche_weapon_damage_status
_TEXT	ENDS
END
