; Listing generated by Microsoft (R) Optimizing Compiler Version 19.16.27045.0 

	TITLE	C:\Users\nhv90\Projects\eech\aphavoc\source\gunships\avionics\comanche\cm_eo.c
	.686P
	.XMM
	include listing.inc
	.model	flat

INCLUDELIB MSVCRTD
INCLUDELIB OLDNAMES

PUBLIC	?comanche_flir@@3UEO_PARAMS_DYNAMIC_MOVE@@A	; comanche_flir
PUBLIC	?comanche_dtv@@3UEO_PARAMS_DYNAMIC_MOVE@@A	; comanche_dtv
PUBLIC	?comanche_dvo@@3UEO_PARAMS_DYNAMIC_MOVE@@A	; comanche_dvo
_BSS	SEGMENT
?comanche_flir@@3UEO_PARAMS_DYNAMIC_MOVE@@A DB 0cH DUP (?) ; comanche_flir
?comanche_dtv@@3UEO_PARAMS_DYNAMIC_MOVE@@A DB 0cH DUP (?) ; comanche_dtv
?comanche_dvo@@3UEO_PARAMS_DYNAMIC_MOVE@@A DB 0cH DUP (?) ; comanche_dvo
_BSS	ENDS
PUBLIC	?initialise_comanche_eo@@YGXXZ			; initialise_comanche_eo
PUBLIC	?deinitialise_comanche_eo@@YGXXZ		; deinitialise_comanche_eo
PUBLIC	?get_comanche_eo_centred_viewpoint@@YGXPAUVIEWPOINT@@@Z ; get_comanche_eo_centred_viewpoint
PUBLIC	?get_comanche_eo_relative_centred_viewpoint@@YGXPAUVIEWPOINT@@@Z ; get_comanche_eo_relative_centred_viewpoint
PUBLIC	?update_comanche_eo@@YGXPAUEO_PARAMS_DYNAMIC_MOVE@@@Z ; update_comanche_eo
PUBLIC	?centre_comanche_eo@@YGXXZ			; centre_comanche_eo
PUBLIC	?animate_comanche_eo@@YGXPAUOBJECT_3D_INSTANCE@@@Z ; animate_comanche_eo
PUBLIC	?slave_comanche_eo_to_current_target@@YGXXZ	; slave_comanche_eo_to_current_target
PUBLIC	?inc_comanche_eo_zoom@@YGXXZ			; inc_comanche_eo_zoom
PUBLIC	?dec_comanche_eo_zoom@@YGXXZ			; dec_comanche_eo_zoom
PUBLIC	?toggle_comanche_eo_system@@YGXXZ		; toggle_comanche_eo_system
PUBLIC	?__LINE__Var@?0??get_comanche_eo_centred_viewpoint@@YGXPAUVIEWPOINT@@@Z@4JA ; `get_comanche_eo_centred_viewpoint'::`1'::__LINE__Var
PUBLIC	??_C@_0EP@JLNGANPG@c?3?2users?2nhv90?2projects?2eech?2ap@ ; `string'
PUBLIC	??_C@_02HPPNELPJ@vp@				; `string'
PUBLIC	??_C@_06DDNABPCD@inst3d@			; `string'
PUBLIC	??_C@_0DO@HPEPMGGP@OBJECT_3D_SUB_OBJECT_COMANCHE_E@ ; `string'
PUBLIC	?__LINE__Var@?0??get_comanche_eo_relative_centred_viewpoint@@YGXPAUVIEWPOINT@@@Z@4JA ; `get_comanche_eo_relative_centred_viewpoint'::`1'::__LINE__Var
PUBLIC	?__LINE__Var@?0??inc_eo_field_of_view@@YGXPAUEO_PARAMS_DYNAMIC_MOVE@@@Z@4JA ; `inc_eo_field_of_view'::`1'::__LINE__Var
PUBLIC	??_C@_02KMMHFIEO@eo@				; `string'
PUBLIC	?__LINE__Var@?0??fast_inc_eo_field_of_view@@YGXPAUEO_PARAMS_DYNAMIC_MOVE@@@Z@4JA ; `fast_inc_eo_field_of_view'::`1'::__LINE__Var
PUBLIC	?__LINE__Var@?0??dec_eo_field_of_view@@YGXPAUEO_PARAMS_DYNAMIC_MOVE@@@Z@4JA ; `dec_eo_field_of_view'::`1'::__LINE__Var
PUBLIC	?__LINE__Var@?0??fast_dec_eo_field_of_view@@YGXPAUEO_PARAMS_DYNAMIC_MOVE@@@Z@4JA ; `fast_dec_eo_field_of_view'::`1'::__LINE__Var
PUBLIC	?__LINE__Var@?0??update_comanche_eo@@YGXPAUEO_PARAMS_DYNAMIC_MOVE@@@Z@4JA ; `update_comanche_eo'::`1'::__LINE__Var
PUBLIC	?__LINE__Var@?0??animate_comanche_eo@@YGXPAUOBJECT_3D_INSTANCE@@@Z@4JA ; `animate_comanche_eo'::`1'::__LINE__Var
PUBLIC	__real@3c000000
PUBLIC	__real@3e000000
PUBLIC	__real@3f000000
PUBLIC	__real@3f060a92
PUBLIC	__real@3f800000
PUBLIC	__real@3fb1df46a0000000
PUBLIC	__real@3fc999999999999a
PUBLIC	__real@3fd6571848000000
PUBLIC	__real@3feacee9f0000000
PUBLIC	__real@3ff0000000000000
PUBLIC	__real@3ff6571848000000
PUBLIC	__real@40060a92
PUBLIC	__real@4014000000000000
PUBLIC	__real@40d3880000000000
PUBLIC	__real@459c4000
PUBLIC	__real@bf860a92
PUBLIC	__real@c0060a92
PUBLIC	__xmm@80000000800000008000000080000000
EXTRN	_memcpy:PROC
EXTRN	?process_assert@@YGXPBD0H@Z:PROC		; process_assert
EXTRN	?debug_log@@YAXPBDZZ:PROC			; debug_log
EXTRN	?get_joystick_axis@@YGHHH@Z:PROC		; get_joystick_axis
EXTRN	?get_3d_sub_object_world_viewpoint@@YGXPAUOBJECT_3D_SUB_INSTANCE@@PAUVIEWPOINT@@@Z:PROC ; get_3d_sub_object_world_viewpoint
EXTRN	?find_object_3d_sub_object@@YG?AW4SUB_OBJECT_SEARCH_RESULT_TYPES@@PAUOBJECT_3D_SUB_OBJECT_SEARCH_DATA@@@Z:PROC ; find_object_3d_sub_object
EXTRN	?select_next_eo_target@@YGXXZ:PROC		; select_next_eo_target
EXTRN	?select_previous_eo_target@@YGXXZ:PROC		; select_previous_eo_target
EXTRN	?select_next_designated_eo_target@@YGXXZ:PROC	; select_next_designated_eo_target
EXTRN	?select_previous_designated_eo_target@@YGXXZ:PROC ; select_previous_designated_eo_target
EXTRN	?convert_linear_view_value@@YGMPAUEO_PARAMS_DYNAMIC_MOVE@@@Z:PROC ; convert_linear_view_value
EXTRN	?copy_eo_zoom@@YGXPAUEO_PARAMS_DYNAMIC_MOVE@@0@Z:PROC ; copy_eo_zoom
EXTRN	?keyboard_slew_eo_system@@YGXMMM@Z:PROC		; keyboard_slew_eo_system
EXTRN	?joystick_slew_eo_system@@YGXM@Z:PROC		; joystick_slew_eo_system
EXTRN	?get_eo_azimuth@@YGMMMMMMM@Z:PROC		; get_eo_azimuth
EXTRN	?get_eo_elevation@@YGMMMMMMM@Z:PROC		; get_eo_elevation
EXTRN	?get_new_eo_zoom@@YGMM@Z:PROC			; get_new_eo_zoom
EXTRN	?toggle_ground_stabilisation@@YGXXZ:PROC	; toggle_ground_stabilisation
EXTRN	?handle_ground_stabilisation@@YGXXZ:PROC	; handle_ground_stabilisation
EXTRN	?system_delta_time@@3MA:DWORD			; system_delta_time
EXTRN	?command_line_mouse_look@@3HA:DWORD		; command_line_mouse_look
EXTRN	?command_line_mouse_look_speed@@3HA:DWORD	; command_line_mouse_look_speed
EXTRN	?command_line_eo_pan_joystick_index@@3HA:DWORD	; command_line_eo_pan_joystick_index
EXTRN	?command_line_eo_zoom_joystick_index@@3HA:DWORD	; command_line_eo_zoom_joystick_index
EXTRN	?command_line_eo_zoom_joystick_axis@@3HA:DWORD	; command_line_eo_zoom_joystick_axis
EXTRN	?command_line_field_of_view_joystick_index@@3HA:DWORD ; command_line_field_of_view_joystick_index
EXTRN	?command_line_manual_laser_radar@@3HA:DWORD	; command_line_manual_laser_radar
EXTRN	?null_entity_pointer_message@@3PBDB:DWORD	; null_entity_pointer_message
EXTRN	?fn_get_local_entity_attitude_matrix@@3PAP6GXPAUENTITY@@QAY02M@ZA:BYTE ; fn_get_local_entity_attitude_matrix
EXTRN	?overload_invalid_ptr_type_message@@3PBDB:DWORD	; overload_invalid_ptr_type_message
EXTRN	?fn_get_local_entity_ptr_value@@3PAY0BE@P6GPAXPAUENTITY@@W4PTR_TYPES@@@ZA:BYTE ; fn_get_local_entity_ptr_value
EXTRN	?overload_invalid_vec3d_type_message@@3PBDB:DWORD ; overload_invalid_vec3d_type_message
EXTRN	?fn_get_local_entity_vec3d@@3PAY0BI@P6GXPAUENTITY@@W4VEC3D_TYPES@@PAUVEC3D@@@ZA:BYTE ; fn_get_local_entity_vec3d
EXTRN	?gunship_entity@@3PAUENTITY@@A:DWORD		; gunship_entity
EXTRN	?pilot_head_heading@@3MA:DWORD			; pilot_head_heading
EXTRN	?target_acquisition_system@@3W4TARGET_ACQUISITION_SYSTEMS@@A:DWORD ; target_acquisition_system
EXTRN	?single_target_acquisition_system_inc_range_key@@3HA:DWORD ; single_target_acquisition_system_inc_range_key
EXTRN	?single_target_acquisition_system_dec_range_key@@3HA:DWORD ; single_target_acquisition_system_dec_range_key
EXTRN	?single_target_acquisition_system_select_next_target_key@@3HA:DWORD ; single_target_acquisition_system_select_next_target_key
EXTRN	?single_target_acquisition_system_select_previous_target_key@@3HA:DWORD ; single_target_acquisition_system_select_previous_target_key
EXTRN	?single_target_acquisition_system_select_next_designated_key@@3HA:DWORD ; single_target_acquisition_system_select_next_designated_key
EXTRN	?single_target_acquisition_system_select_previous_designated_key@@3HA:DWORD ; single_target_acquisition_system_select_previous_designated_key
EXTRN	?single_target_acquisition_system_inc_range_fast_key@@3HA:DWORD ; single_target_acquisition_system_inc_range_fast_key
EXTRN	?single_target_acquisition_system_dec_range_fast_key@@3HA:DWORD ; single_target_acquisition_system_dec_range_fast_key
EXTRN	?toggle_ground_stabilisation_key@@3HA:DWORD	; toggle_ground_stabilisation_key
EXTRN	?eo_on_target@@3HA:DWORD			; eo_on_target
EXTRN	?eo_ground_stabilised@@3HA:DWORD		; eo_ground_stabilised
EXTRN	?eo_sensor@@3W4TARGET_ACQUISITION_SYSTEMS@@A:DWORD ; eo_sensor
EXTRN	?eo_azimuth@@3MA:DWORD				; eo_azimuth
EXTRN	?eo_min_azimuth@@3MA:DWORD			; eo_min_azimuth
EXTRN	?eo_max_azimuth@@3MA:DWORD			; eo_max_azimuth
EXTRN	?eo_elevation@@3MA:DWORD			; eo_elevation
EXTRN	?eo_min_elevation@@3MA:DWORD			; eo_min_elevation
EXTRN	?eo_max_elevation@@3MA:DWORD			; eo_max_elevation
EXTRN	?eo_max_visual_range@@3MA:DWORD			; eo_max_visual_range
EXTRN	__fltused:DWORD
;	COMDAT __xmm@80000000800000008000000080000000
CONST	SEGMENT
__xmm@80000000800000008000000080000000 DB 00H, 00H, 00H, 080H, 00H, 00H, 00H
	DB	080H, 00H, 00H, 00H, 080H, 00H, 00H, 00H, 080H
CONST	ENDS
;	COMDAT __real@c0060a92
CONST	SEGMENT
__real@c0060a92 DD 0c0060a92r			; -2.0944
CONST	ENDS
;	COMDAT __real@bf860a92
CONST	SEGMENT
__real@bf860a92 DD 0bf860a92r			; -1.0472
CONST	ENDS
;	COMDAT __real@459c4000
CONST	SEGMENT
__real@459c4000 DD 0459c4000r			; 5000
CONST	ENDS
;	COMDAT __real@40d3880000000000
CONST	SEGMENT
__real@40d3880000000000 DQ 040d3880000000000r	; 20000
CONST	ENDS
;	COMDAT __real@4014000000000000
CONST	SEGMENT
__real@4014000000000000 DQ 04014000000000000r	; 5
CONST	ENDS
;	COMDAT __real@40060a92
CONST	SEGMENT
__real@40060a92 DD 040060a92r			; 2.0944
CONST	ENDS
;	COMDAT __real@3ff6571848000000
CONST	SEGMENT
__real@3ff6571848000000 DQ 03ff6571848000000r	; 1.39626
CONST	ENDS
;	COMDAT __real@3ff0000000000000
CONST	SEGMENT
__real@3ff0000000000000 DQ 03ff0000000000000r	; 1
CONST	ENDS
;	COMDAT __real@3feacee9f0000000
CONST	SEGMENT
__real@3feacee9f0000000 DQ 03feacee9f0000000r	; 0.837758
CONST	ENDS
;	COMDAT __real@3fd6571848000000
CONST	SEGMENT
__real@3fd6571848000000 DQ 03fd6571848000000r	; 0.349066
CONST	ENDS
;	COMDAT __real@3fc999999999999a
CONST	SEGMENT
__real@3fc999999999999a DQ 03fc999999999999ar	; 0.2
CONST	ENDS
;	COMDAT __real@3fb1df46a0000000
CONST	SEGMENT
__real@3fb1df46a0000000 DQ 03fb1df46a0000000r	; 0.0698132
CONST	ENDS
;	COMDAT __real@3f800000
CONST	SEGMENT
__real@3f800000 DD 03f800000r			; 1
CONST	ENDS
;	COMDAT __real@3f060a92
CONST	SEGMENT
__real@3f060a92 DD 03f060a92r			; 0.523599
CONST	ENDS
;	COMDAT __real@3f000000
CONST	SEGMENT
__real@3f000000 DD 03f000000r			; 0.5
CONST	ENDS
;	COMDAT __real@3e000000
CONST	SEGMENT
__real@3e000000 DD 03e000000r			; 0.125
CONST	ENDS
;	COMDAT __real@3c000000
CONST	SEGMENT
__real@3c000000 DD 03c000000r			; 0.0078125
CONST	ENDS
;	COMDAT ?__LINE__Var@?0??animate_comanche_eo@@YGXPAUOBJECT_3D_INSTANCE@@@Z@4JA
_DATA	SEGMENT
?__LINE__Var@?0??animate_comanche_eo@@YGXPAUOBJECT_3D_INSTANCE@@@Z@4JA DD 0218H ; `animate_comanche_eo'::`1'::__LINE__Var
_DATA	ENDS
;	COMDAT ?__LINE__Var@?0??update_comanche_eo@@YGXPAUEO_PARAMS_DYNAMIC_MOVE@@@Z@4JA
_DATA	SEGMENT
?__LINE__Var@?0??update_comanche_eo@@YGXPAUEO_PARAMS_DYNAMIC_MOVE@@@Z@4JA DD 013dH ; `update_comanche_eo'::`1'::__LINE__Var
_DATA	ENDS
;	COMDAT ?__LINE__Var@?0??fast_dec_eo_field_of_view@@YGXPAUEO_PARAMS_DYNAMIC_MOVE@@@Z@4JA
_DATA	SEGMENT
?__LINE__Var@?0??fast_dec_eo_field_of_view@@YGXPAUEO_PARAMS_DYNAMIC_MOVE@@@Z@4JA DD 012eH ; `fast_dec_eo_field_of_view'::`1'::__LINE__Var
_DATA	ENDS
;	COMDAT ?__LINE__Var@?0??dec_eo_field_of_view@@YGXPAUEO_PARAMS_DYNAMIC_MOVE@@@Z@4JA
_DATA	SEGMENT
?__LINE__Var@?0??dec_eo_field_of_view@@YGXPAUEO_PARAMS_DYNAMIC_MOVE@@@Z@4JA DD 0117H ; `dec_eo_field_of_view'::`1'::__LINE__Var
_DATA	ENDS
;	COMDAT ?__LINE__Var@?0??fast_inc_eo_field_of_view@@YGXPAUEO_PARAMS_DYNAMIC_MOVE@@@Z@4JA
_DATA	SEGMENT
?__LINE__Var@?0??fast_inc_eo_field_of_view@@YGXPAUEO_PARAMS_DYNAMIC_MOVE@@@Z@4JA DD 0108H ; `fast_inc_eo_field_of_view'::`1'::__LINE__Var
_DATA	ENDS
;	COMDAT ??_C@_02KMMHFIEO@eo@
CONST	SEGMENT
??_C@_02KMMHFIEO@eo@ DB 'eo', 00H			; `string'
CONST	ENDS
;	COMDAT ?__LINE__Var@?0??inc_eo_field_of_view@@YGXPAUEO_PARAMS_DYNAMIC_MOVE@@@Z@4JA
_DATA	SEGMENT
?__LINE__Var@?0??inc_eo_field_of_view@@YGXPAUEO_PARAMS_DYNAMIC_MOVE@@@Z@4JA DD 0f1H ; `inc_eo_field_of_view'::`1'::__LINE__Var
_DATA	ENDS
;	COMDAT ?__LINE__Var@?0??get_comanche_eo_relative_centred_viewpoint@@YGXPAUVIEWPOINT@@@Z@4JA
_DATA	SEGMENT
?__LINE__Var@?0??get_comanche_eo_relative_centred_viewpoint@@YGXPAUVIEWPOINT@@@Z@4JA DD 0b8H ; `get_comanche_eo_relative_centred_viewpoint'::`1'::__LINE__Var
_DATA	ENDS
;	COMDAT ??_C@_0DO@HPEPMGGP@OBJECT_3D_SUB_OBJECT_COMANCHE_E@
CONST	SEGMENT
??_C@_0DO@HPEPMGGP@OBJECT_3D_SUB_OBJECT_COMANCHE_E@ DB 'OBJECT_3D_SUB_OBJ'
	DB	'ECT_COMANCHE_EO_CAMERA missing from Comanche', 00H ; `string'
CONST	ENDS
;	COMDAT ??_C@_06DDNABPCD@inst3d@
CONST	SEGMENT
??_C@_06DDNABPCD@inst3d@ DB 'inst3d', 00H		; `string'
CONST	ENDS
;	COMDAT ??_C@_02HPPNELPJ@vp@
CONST	SEGMENT
??_C@_02HPPNELPJ@vp@ DB 'vp', 00H			; `string'
CONST	ENDS
;	COMDAT ??_C@_0EP@JLNGANPG@c?3?2users?2nhv90?2projects?2eech?2ap@
CONST	SEGMENT
??_C@_0EP@JLNGANPG@c?3?2users?2nhv90?2projects?2eech?2ap@ DB 'c:\users\nh'
	DB	'v90\projects\eech\aphavoc\source\gunships\avionics\comanche\c'
	DB	'm_eo.c', 00H				; `string'
CONST	ENDS
;	COMDAT ?__LINE__Var@?0??get_comanche_eo_centred_viewpoint@@YGXPAUVIEWPOINT@@@Z@4JA
_DATA	SEGMENT
?__LINE__Var@?0??get_comanche_eo_centred_viewpoint@@YGXPAUVIEWPOINT@@@Z@4JA DD 087H ; `get_comanche_eo_centred_viewpoint'::`1'::__LINE__Var
_DATA	ENDS
; Function compile flags: /Odtp /ZI
; File c:\users\nhv90\projects\eech\aphavoc\source\gunships\avionics\comanche\cm_eo.c
;	COMDAT ?fast_dec_eo_field_of_view@@YGXPAUEO_PARAMS_DYNAMIC_MOVE@@@Z
_TEXT	SEGMENT
_eo$ = 8						; size = 4
?fast_dec_eo_field_of_view@@YGXPAUEO_PARAMS_DYNAMIC_MOVE@@@Z PROC ; fast_dec_eo_field_of_view, COMDAT

; 302  : {

  00000	55		 push	 ebp
  00001	8b ec		 mov	 ebp, esp
  00003	83 ec 40	 sub	 esp, 64			; 00000040H
  00006	53		 push	 ebx
  00007	56		 push	 esi
  00008	57		 push	 edi

; 303  : 	ASSERT (eo);

  00009	83 7d 08 00	 cmp	 DWORD PTR _eo$[ebp], 0
  0000d	75 18		 jne	 SHORT $LN2@fast_dec_e
  0000f	a1 00 00 00 00	 mov	 eax, DWORD PTR ?__LINE__Var@?0??fast_dec_eo_field_of_view@@YGXPAUEO_PARAMS_DYNAMIC_MOVE@@@Z@4JA
  00014	83 c0 01	 add	 eax, 1
  00017	50		 push	 eax
  00018	68 00 00 00 00	 push	 OFFSET ??_C@_0EP@JLNGANPG@c?3?2users?2nhv90?2projects?2eech?2ap@
  0001d	68 00 00 00 00	 push	 OFFSET ??_C@_02KMMHFIEO@eo@
  00022	e8 00 00 00 00	 call	 ?process_assert@@YGXPBD0H@Z ; process_assert
$LN2@fast_dec_e:

; 304  : 
; 305  : #ifdef OLD_EO
; 306  : 	eo->field_of_view = eo->min_field_of_view;
; 307  : #else
; 308  : 	eo->zoom = 0.0;

  00027	8b 45 08	 mov	 eax, DWORD PTR _eo$[ebp]
  0002a	0f 57 c0	 xorps	 xmm0, xmm0
  0002d	f3 0f 11 00	 movss	 DWORD PTR [eax], xmm0

; 309  : #endif
; 310  : }

  00031	5f		 pop	 edi
  00032	5e		 pop	 esi
  00033	5b		 pop	 ebx
  00034	8b e5		 mov	 esp, ebp
  00036	5d		 pop	 ebp
  00037	c2 04 00	 ret	 4
?fast_dec_eo_field_of_view@@YGXPAUEO_PARAMS_DYNAMIC_MOVE@@@Z ENDP ; fast_dec_eo_field_of_view
_TEXT	ENDS
; Function compile flags: /Odtp /ZI
; File c:\users\nhv90\projects\eech\aphavoc\source\gunships\avionics\comanche\cm_eo.c
;	COMDAT ?dec_eo_field_of_view@@YGXPAUEO_PARAMS_DYNAMIC_MOVE@@@Z
_TEXT	SEGMENT
_eo$ = 8						; size = 4
?dec_eo_field_of_view@@YGXPAUEO_PARAMS_DYNAMIC_MOVE@@@Z PROC ; dec_eo_field_of_view, COMDAT

; 279  : {

  00000	55		 push	 ebp
  00001	8b ec		 mov	 ebp, esp
  00003	83 ec 40	 sub	 esp, 64			; 00000040H
  00006	53		 push	 ebx
  00007	56		 push	 esi
  00008	57		 push	 edi

; 280  : 	ASSERT (eo);

  00009	83 7d 08 00	 cmp	 DWORD PTR _eo$[ebp], 0
  0000d	75 18		 jne	 SHORT $LN2@dec_eo_fie
  0000f	a1 00 00 00 00	 mov	 eax, DWORD PTR ?__LINE__Var@?0??dec_eo_field_of_view@@YGXPAUEO_PARAMS_DYNAMIC_MOVE@@@Z@4JA
  00014	83 c0 01	 add	 eax, 1
  00017	50		 push	 eax
  00018	68 00 00 00 00	 push	 OFFSET ??_C@_0EP@JLNGANPG@c?3?2users?2nhv90?2projects?2eech?2ap@
  0001d	68 00 00 00 00	 push	 OFFSET ??_C@_02KMMHFIEO@eo@
  00022	e8 00 00 00 00	 call	 ?process_assert@@YGXPBD0H@Z ; process_assert
$LN2@dec_eo_fie:

; 281  : 
; 282  : #ifdef OLD_EO
; 283  : 	if (eo->field_of_view > eo->min_field_of_view)
; 284  : 	{
; 285  : 		eo->field_of_view--;
; 286  : 	}
; 287  : #else
; 288  : 	eo->zoom -= 0.2;

  00027	8b 45 08	 mov	 eax, DWORD PTR _eo$[ebp]
  0002a	f3 0f 5a 00	 cvtss2sd xmm0, DWORD PTR [eax]
  0002e	f2 0f 5c 05 00
	00 00 00	 subsd	 xmm0, QWORD PTR __real@3fc999999999999a
  00036	f2 0f 5a c0	 cvtsd2ss xmm0, xmm0
  0003a	8b 4d 08	 mov	 ecx, DWORD PTR _eo$[ebp]
  0003d	f3 0f 11 01	 movss	 DWORD PTR [ecx], xmm0

; 289  : 
; 290  : 	if (eo->zoom < 0.0)

  00041	8b 45 08	 mov	 eax, DWORD PTR _eo$[ebp]
  00044	f3 0f 5a 00	 cvtss2sd xmm0, DWORD PTR [eax]
  00048	0f 57 c9	 xorps	 xmm1, xmm1
  0004b	66 0f 2f c8	 comisd	 xmm1, xmm0
  0004f	76 0a		 jbe	 SHORT $LN3@dec_eo_fie

; 291  : 	{
; 292  : 		eo->zoom = 0.0;

  00051	8b 45 08	 mov	 eax, DWORD PTR _eo$[ebp]
  00054	0f 57 c0	 xorps	 xmm0, xmm0
  00057	f3 0f 11 00	 movss	 DWORD PTR [eax], xmm0
$LN3@dec_eo_fie:

; 293  : 	}
; 294  : #endif
; 295  : }

  0005b	5f		 pop	 edi
  0005c	5e		 pop	 esi
  0005d	5b		 pop	 ebx
  0005e	8b e5		 mov	 esp, ebp
  00060	5d		 pop	 ebp
  00061	c2 04 00	 ret	 4
?dec_eo_field_of_view@@YGXPAUEO_PARAMS_DYNAMIC_MOVE@@@Z ENDP ; dec_eo_field_of_view
_TEXT	ENDS
; Function compile flags: /Odtp /ZI
; File c:\users\nhv90\projects\eech\aphavoc\source\gunships\avionics\comanche\cm_eo.c
;	COMDAT ?fast_inc_eo_field_of_view@@YGXPAUEO_PARAMS_DYNAMIC_MOVE@@@Z
_TEXT	SEGMENT
_eo$ = 8						; size = 4
?fast_inc_eo_field_of_view@@YGXPAUEO_PARAMS_DYNAMIC_MOVE@@@Z PROC ; fast_inc_eo_field_of_view, COMDAT

; 264  : {

  00000	55		 push	 ebp
  00001	8b ec		 mov	 ebp, esp
  00003	83 ec 40	 sub	 esp, 64			; 00000040H
  00006	53		 push	 ebx
  00007	56		 push	 esi
  00008	57		 push	 edi

; 265  : 	ASSERT (eo);

  00009	83 7d 08 00	 cmp	 DWORD PTR _eo$[ebp], 0
  0000d	75 18		 jne	 SHORT $LN2@fast_inc_e
  0000f	a1 00 00 00 00	 mov	 eax, DWORD PTR ?__LINE__Var@?0??fast_inc_eo_field_of_view@@YGXPAUEO_PARAMS_DYNAMIC_MOVE@@@Z@4JA
  00014	83 c0 01	 add	 eax, 1
  00017	50		 push	 eax
  00018	68 00 00 00 00	 push	 OFFSET ??_C@_0EP@JLNGANPG@c?3?2users?2nhv90?2projects?2eech?2ap@
  0001d	68 00 00 00 00	 push	 OFFSET ??_C@_02KMMHFIEO@eo@
  00022	e8 00 00 00 00	 call	 ?process_assert@@YGXPBD0H@Z ; process_assert
$LN2@fast_inc_e:

; 266  : 
; 267  : #ifdef OLD_EO
; 268  : 	eo->field_of_view = eo->max_field_of_view;
; 269  : #else
; 270  : 	eo->zoom = 1.0;

  00027	8b 45 08	 mov	 eax, DWORD PTR _eo$[ebp]
  0002a	f3 0f 10 05 00
	00 00 00	 movss	 xmm0, DWORD PTR __real@3f800000
  00032	f3 0f 11 00	 movss	 DWORD PTR [eax], xmm0

; 271  : #endif
; 272  : }

  00036	5f		 pop	 edi
  00037	5e		 pop	 esi
  00038	5b		 pop	 ebx
  00039	8b e5		 mov	 esp, ebp
  0003b	5d		 pop	 ebp
  0003c	c2 04 00	 ret	 4
?fast_inc_eo_field_of_view@@YGXPAUEO_PARAMS_DYNAMIC_MOVE@@@Z ENDP ; fast_inc_eo_field_of_view
_TEXT	ENDS
; Function compile flags: /Odtp /ZI
; File c:\users\nhv90\projects\eech\aphavoc\source\gunships\avionics\comanche\cm_eo.c
;	COMDAT ?inc_eo_field_of_view@@YGXPAUEO_PARAMS_DYNAMIC_MOVE@@@Z
_TEXT	SEGMENT
_eo$ = 8						; size = 4
?inc_eo_field_of_view@@YGXPAUEO_PARAMS_DYNAMIC_MOVE@@@Z PROC ; inc_eo_field_of_view, COMDAT

; 241  : {

  00000	55		 push	 ebp
  00001	8b ec		 mov	 ebp, esp
  00003	83 ec 40	 sub	 esp, 64			; 00000040H
  00006	53		 push	 ebx
  00007	56		 push	 esi
  00008	57		 push	 edi

; 242  : 	ASSERT (eo);

  00009	83 7d 08 00	 cmp	 DWORD PTR _eo$[ebp], 0
  0000d	75 18		 jne	 SHORT $LN2@inc_eo_fie
  0000f	a1 00 00 00 00	 mov	 eax, DWORD PTR ?__LINE__Var@?0??inc_eo_field_of_view@@YGXPAUEO_PARAMS_DYNAMIC_MOVE@@@Z@4JA
  00014	83 c0 01	 add	 eax, 1
  00017	50		 push	 eax
  00018	68 00 00 00 00	 push	 OFFSET ??_C@_0EP@JLNGANPG@c?3?2users?2nhv90?2projects?2eech?2ap@
  0001d	68 00 00 00 00	 push	 OFFSET ??_C@_02KMMHFIEO@eo@
  00022	e8 00 00 00 00	 call	 ?process_assert@@YGXPBD0H@Z ; process_assert
$LN2@inc_eo_fie:

; 243  : 
; 244  : #ifdef OLD_EO
; 245  : 	if (eo->field_of_view < eo->max_field_of_view)
; 246  : 	{
; 247  : 		eo->field_of_view++;
; 248  : 	}
; 249  : #else
; 250  : 	eo->zoom += 0.2;

  00027	8b 45 08	 mov	 eax, DWORD PTR _eo$[ebp]
  0002a	f3 0f 5a 00	 cvtss2sd xmm0, DWORD PTR [eax]
  0002e	f2 0f 58 05 00
	00 00 00	 addsd	 xmm0, QWORD PTR __real@3fc999999999999a
  00036	f2 0f 5a c0	 cvtsd2ss xmm0, xmm0
  0003a	8b 4d 08	 mov	 ecx, DWORD PTR _eo$[ebp]
  0003d	f3 0f 11 01	 movss	 DWORD PTR [ecx], xmm0

; 251  : 
; 252  : 	if (eo->zoom > 1.0)

  00041	8b 45 08	 mov	 eax, DWORD PTR _eo$[ebp]
  00044	f3 0f 5a 00	 cvtss2sd xmm0, DWORD PTR [eax]
  00048	66 0f 2f 05 00
	00 00 00	 comisd	 xmm0, QWORD PTR __real@3ff0000000000000
  00050	76 0f		 jbe	 SHORT $LN3@inc_eo_fie

; 253  : 	{
; 254  : 		eo->zoom = 1.0;

  00052	8b 45 08	 mov	 eax, DWORD PTR _eo$[ebp]
  00055	f3 0f 10 05 00
	00 00 00	 movss	 xmm0, DWORD PTR __real@3f800000
  0005d	f3 0f 11 00	 movss	 DWORD PTR [eax], xmm0
$LN3@inc_eo_fie:

; 255  : 	}
; 256  : #endif
; 257  : }

  00061	5f		 pop	 edi
  00062	5e		 pop	 esi
  00063	5b		 pop	 ebx
  00064	8b e5		 mov	 esp, ebp
  00066	5d		 pop	 ebp
  00067	c2 04 00	 ret	 4
?inc_eo_field_of_view@@YGXPAUEO_PARAMS_DYNAMIC_MOVE@@@Z ENDP ; inc_eo_field_of_view
_TEXT	ENDS
; Function compile flags: /Odtp /ZI
; File c:\users\nhv90\projects\eech\aphavoc\source\gunships\avionics\comanche\cm_eo.c
;	COMDAT ?toggle_comanche_eo_system@@YGXXZ
_TEXT	SEGMENT
tv64 = -68						; size = 4
?toggle_comanche_eo_system@@YGXXZ PROC			; toggle_comanche_eo_system, COMDAT

; 608  : {

  00000	55		 push	 ebp
  00001	8b ec		 mov	 ebp, esp
  00003	83 ec 44	 sub	 esp, 68			; 00000044H
  00006	53		 push	 ebx
  00007	56		 push	 esi
  00008	57		 push	 edi

; 609  : 	switch (eo_sensor)

  00009	a1 00 00 00 00	 mov	 eax, DWORD PTR ?eo_sensor@@3W4TARGET_ACQUISITION_SYSTEMS@@A ; eo_sensor
  0000e	89 45 bc	 mov	 DWORD PTR tv64[ebp], eax
  00011	83 7d bc 03	 cmp	 DWORD PTR tv64[ebp], 3
  00015	74 08		 je	 SHORT $LN4@toggle_com
  00017	83 7d bc 04	 cmp	 DWORD PTR tv64[ebp], 4
  0001b	74 30		 je	 SHORT $LN6@toggle_com
  0001d	eb 5a		 jmp	 SHORT $LN1@toggle_com
$LN4@toggle_com:

; 610  : 	{
; 611  : 	case TARGET_ACQUISITION_SYSTEM_FLIR:
; 612  : 		eo_sensor = TARGET_ACQUISITION_SYSTEM_DTV;

  0001f	c7 05 00 00 00
	00 04 00 00 00	 mov	 DWORD PTR ?eo_sensor@@3W4TARGET_ACQUISITION_SYSTEMS@@A, 4 ; eo_sensor

; 613  : 
; 614  : 		copy_eo_zoom(&comanche_flir, &comanche_dtv);

  00029	68 00 00 00 00	 push	 OFFSET ?comanche_dtv@@3UEO_PARAMS_DYNAMIC_MOVE@@A ; comanche_dtv
  0002e	68 00 00 00 00	 push	 OFFSET ?comanche_flir@@3UEO_PARAMS_DYNAMIC_MOVE@@A ; comanche_flir
  00033	e8 00 00 00 00	 call	 ?copy_eo_zoom@@YGXPAUEO_PARAMS_DYNAMIC_MOVE@@0@Z ; copy_eo_zoom

; 615  : 
; 616  : 		if (target_acquisition_system == TARGET_ACQUISITION_SYSTEM_FLIR)

  00038	83 3d 00 00 00
	00 03		 cmp	 DWORD PTR ?target_acquisition_system@@3W4TARGET_ACQUISITION_SYSTEMS@@A, 3 ; target_acquisition_system
  0003f	75 0a		 jne	 SHORT $LN5@toggle_com

; 617  : 			target_acquisition_system = TARGET_ACQUISITION_SYSTEM_DTV;

  00041	c7 05 00 00 00
	00 04 00 00 00	 mov	 DWORD PTR ?target_acquisition_system@@3W4TARGET_ACQUISITION_SYSTEMS@@A, 4 ; target_acquisition_system
$LN5@toggle_com:

; 618  : 
; 619  : 		break;

  0004b	eb 2c		 jmp	 SHORT $LN1@toggle_com
$LN6@toggle_com:

; 620  : 	case TARGET_ACQUISITION_SYSTEM_DTV:
; 621  : 		eo_sensor = TARGET_ACQUISITION_SYSTEM_FLIR;

  0004d	c7 05 00 00 00
	00 03 00 00 00	 mov	 DWORD PTR ?eo_sensor@@3W4TARGET_ACQUISITION_SYSTEMS@@A, 3 ; eo_sensor

; 622  : 
; 623  : 		copy_eo_zoom(&comanche_dtv, &comanche_flir);

  00057	68 00 00 00 00	 push	 OFFSET ?comanche_flir@@3UEO_PARAMS_DYNAMIC_MOVE@@A ; comanche_flir
  0005c	68 00 00 00 00	 push	 OFFSET ?comanche_dtv@@3UEO_PARAMS_DYNAMIC_MOVE@@A ; comanche_dtv
  00061	e8 00 00 00 00	 call	 ?copy_eo_zoom@@YGXPAUEO_PARAMS_DYNAMIC_MOVE@@0@Z ; copy_eo_zoom

; 624  : 
; 625  : 		if (target_acquisition_system == TARGET_ACQUISITION_SYSTEM_DTV)

  00066	83 3d 00 00 00
	00 04		 cmp	 DWORD PTR ?target_acquisition_system@@3W4TARGET_ACQUISITION_SYSTEMS@@A, 4 ; target_acquisition_system
  0006d	75 0a		 jne	 SHORT $LN1@toggle_com

; 626  : 			target_acquisition_system = TARGET_ACQUISITION_SYSTEM_FLIR;

  0006f	c7 05 00 00 00
	00 03 00 00 00	 mov	 DWORD PTR ?target_acquisition_system@@3W4TARGET_ACQUISITION_SYSTEMS@@A, 3 ; target_acquisition_system
$LN1@toggle_com:

; 627  : 
; 628  : 		break;
; 629  : 	}
; 630  : }

  00079	5f		 pop	 edi
  0007a	5e		 pop	 esi
  0007b	5b		 pop	 ebx
  0007c	8b e5		 mov	 esp, ebp
  0007e	5d		 pop	 ebp
  0007f	c3		 ret	 0
?toggle_comanche_eo_system@@YGXXZ ENDP			; toggle_comanche_eo_system
_TEXT	ENDS
; Function compile flags: /Odtp /ZI
; File c:\users\nhv90\projects\eech\aphavoc\source\gunships\avionics\comanche\cm_eo.c
;	COMDAT ?dec_comanche_eo_zoom@@YGXXZ
_TEXT	SEGMENT
tv64 = -68						; size = 4
?dec_comanche_eo_zoom@@YGXXZ PROC			; dec_comanche_eo_zoom, COMDAT

; 589  : {

  00000	55		 push	 ebp
  00001	8b ec		 mov	 ebp, esp
  00003	83 ec 44	 sub	 esp, 68			; 00000044H
  00006	53		 push	 ebx
  00007	56		 push	 esi
  00008	57		 push	 edi

; 590  : 	switch (eo_sensor)

  00009	a1 00 00 00 00	 mov	 eax, DWORD PTR ?eo_sensor@@3W4TARGET_ACQUISITION_SYSTEMS@@A ; eo_sensor
  0000e	89 45 bc	 mov	 DWORD PTR tv64[ebp], eax
  00011	83 7d bc 03	 cmp	 DWORD PTR tv64[ebp], 3
  00015	74 08		 je	 SHORT $LN4@dec_comanc
  00017	83 7d bc 04	 cmp	 DWORD PTR tv64[ebp], 4
  0001b	74 0e		 je	 SHORT $LN5@dec_comanc
  0001d	eb 16		 jmp	 SHORT $LN1@dec_comanc
$LN4@dec_comanc:

; 591  : 	{
; 592  : 		case TARGET_ACQUISITION_SYSTEM_FLIR:
; 593  : 			inc_eo_field_of_view(&comanche_flir);

  0001f	68 00 00 00 00	 push	 OFFSET ?comanche_flir@@3UEO_PARAMS_DYNAMIC_MOVE@@A ; comanche_flir
  00024	e8 00 00 00 00	 call	 ?inc_eo_field_of_view@@YGXPAUEO_PARAMS_DYNAMIC_MOVE@@@Z ; inc_eo_field_of_view

; 594  : 			break;

  00029	eb 0a		 jmp	 SHORT $LN1@dec_comanc
$LN5@dec_comanc:

; 595  : 		case TARGET_ACQUISITION_SYSTEM_DTV:
; 596  : 			inc_eo_field_of_view(&comanche_dtv);

  0002b	68 00 00 00 00	 push	 OFFSET ?comanche_dtv@@3UEO_PARAMS_DYNAMIC_MOVE@@A ; comanche_dtv
  00030	e8 00 00 00 00	 call	 ?inc_eo_field_of_view@@YGXPAUEO_PARAMS_DYNAMIC_MOVE@@@Z ; inc_eo_field_of_view
$LN1@dec_comanc:

; 597  : 			break;
; 598  : 		default:
; 599  : 			break;
; 600  : 	}
; 601  : }

  00035	5f		 pop	 edi
  00036	5e		 pop	 esi
  00037	5b		 pop	 ebx
  00038	8b e5		 mov	 esp, ebp
  0003a	5d		 pop	 ebp
  0003b	c3		 ret	 0
?dec_comanche_eo_zoom@@YGXXZ ENDP			; dec_comanche_eo_zoom
_TEXT	ENDS
; Function compile flags: /Odtp /ZI
; File c:\users\nhv90\projects\eech\aphavoc\source\gunships\avionics\comanche\cm_eo.c
;	COMDAT ?inc_comanche_eo_zoom@@YGXXZ
_TEXT	SEGMENT
tv64 = -68						; size = 4
?inc_comanche_eo_zoom@@YGXXZ PROC			; inc_comanche_eo_zoom, COMDAT

; 574  : {

  00000	55		 push	 ebp
  00001	8b ec		 mov	 ebp, esp
  00003	83 ec 44	 sub	 esp, 68			; 00000044H
  00006	53		 push	 ebx
  00007	56		 push	 esi
  00008	57		 push	 edi

; 575  : 	switch (eo_sensor)

  00009	a1 00 00 00 00	 mov	 eax, DWORD PTR ?eo_sensor@@3W4TARGET_ACQUISITION_SYSTEMS@@A ; eo_sensor
  0000e	89 45 bc	 mov	 DWORD PTR tv64[ebp], eax
  00011	83 7d bc 03	 cmp	 DWORD PTR tv64[ebp], 3
  00015	74 08		 je	 SHORT $LN4@inc_comanc
  00017	83 7d bc 04	 cmp	 DWORD PTR tv64[ebp], 4
  0001b	74 0e		 je	 SHORT $LN5@inc_comanc
  0001d	eb 16		 jmp	 SHORT $LN1@inc_comanc
$LN4@inc_comanc:

; 576  : 	{
; 577  : 		case TARGET_ACQUISITION_SYSTEM_FLIR:
; 578  : 			dec_eo_field_of_view(&comanche_flir);

  0001f	68 00 00 00 00	 push	 OFFSET ?comanche_flir@@3UEO_PARAMS_DYNAMIC_MOVE@@A ; comanche_flir
  00024	e8 00 00 00 00	 call	 ?dec_eo_field_of_view@@YGXPAUEO_PARAMS_DYNAMIC_MOVE@@@Z ; dec_eo_field_of_view

; 579  : 			break;

  00029	eb 0a		 jmp	 SHORT $LN1@inc_comanc
$LN5@inc_comanc:

; 580  : 		case TARGET_ACQUISITION_SYSTEM_DTV:
; 581  : 			dec_eo_field_of_view(&comanche_dtv);

  0002b	68 00 00 00 00	 push	 OFFSET ?comanche_dtv@@3UEO_PARAMS_DYNAMIC_MOVE@@A ; comanche_dtv
  00030	e8 00 00 00 00	 call	 ?dec_eo_field_of_view@@YGXPAUEO_PARAMS_DYNAMIC_MOVE@@@Z ; dec_eo_field_of_view
$LN1@inc_comanc:

; 582  : 			break;
; 583  : 		default:
; 584  : 			break;
; 585  : 	}
; 586  : }

  00035	5f		 pop	 edi
  00036	5e		 pop	 esi
  00037	5b		 pop	 ebx
  00038	8b e5		 mov	 esp, ebp
  0003a	5d		 pop	 ebp
  0003b	c3		 ret	 0
?inc_comanche_eo_zoom@@YGXXZ ENDP			; inc_comanche_eo_zoom
_TEXT	ENDS
; Function compile flags: /Odtp /ZI
; File c:\users\nhv90\projects\eech\aphavoc\source\gunships\avionics\comanche\cm_eo.c
;	COMDAT ?slave_comanche_eo_to_current_target@@YGXXZ
_TEXT	SEGMENT
tv70 = -68						; size = 4
tv66 = -68						; size = 4
?slave_comanche_eo_to_current_target@@YGXXZ PROC	; slave_comanche_eo_to_current_target, COMDAT

; 637  : {

  00000	55		 push	 ebp
  00001	8b ec		 mov	 ebp, esp
  00003	83 ec 44	 sub	 esp, 68			; 00000044H
  00006	53		 push	 ebx
  00007	56		 push	 esi
  00008	57		 push	 edi

; 638  : 	if (command_line_manual_laser_radar)

  00009	83 3d 00 00 00
	00 00		 cmp	 DWORD PTR ?command_line_manual_laser_radar@@3HA, 0 ; command_line_manual_laser_radar
  00010	74 05		 je	 SHORT $LN6@slave_coma

; 639  : 		return;

  00012	e9 9c 00 00 00	 jmp	 $LN1@slave_coma
$LN6@slave_coma:

; 640  : 	
; 641  : 	if (eo_on_target)

  00017	83 3d 00 00 00
	00 00		 cmp	 DWORD PTR ?eo_on_target@@3HA, 0 ; eo_on_target
  0001e	74 43		 je	 SHORT $LN7@slave_coma

; 642  : 	{
; 643  : 		switch (eo_sensor)

  00020	a1 00 00 00 00	 mov	 eax, DWORD PTR ?eo_sensor@@3W4TARGET_ACQUISITION_SYSTEMS@@A ; eo_sensor
  00025	89 45 bc	 mov	 DWORD PTR tv66[ebp], eax
  00028	83 7d bc 03	 cmp	 DWORD PTR tv66[ebp], 3
  0002c	74 0e		 je	 SHORT $LN9@slave_coma
  0002e	83 7d bc 04	 cmp	 DWORD PTR tv66[ebp], 4
  00032	74 15		 je	 SHORT $LN10@slave_coma
  00034	83 7d bc 05	 cmp	 DWORD PTR tv66[ebp], 5
  00038	74 1c		 je	 SHORT $LN11@slave_coma
  0003a	eb 25		 jmp	 SHORT $LN2@slave_coma
$LN9@slave_coma:

; 644  : 		{
; 645  : 			case TARGET_ACQUISITION_SYSTEM_FLIR:
; 646  : 			{
; 647  : #ifdef OLD_EO
; 648  : 				comanche_flir.field_of_view = comanche_flir.min_field_of_view;
; 649  : #else
; 650  : 				comanche_flir.zoom = 0.0;

  0003c	0f 57 c0	 xorps	 xmm0, xmm0
  0003f	f3 0f 11 05 00
	00 00 00	 movss	 DWORD PTR ?comanche_flir@@3UEO_PARAMS_DYNAMIC_MOVE@@A, xmm0

; 651  : #endif
; 652  : 
; 653  : 				break;

  00047	eb 18		 jmp	 SHORT $LN2@slave_coma
$LN10@slave_coma:

; 654  : 			}
; 655  : 			case TARGET_ACQUISITION_SYSTEM_DTV:
; 656  : 			{
; 657  : #ifdef OLD_EO
; 658  : 				comanche_dtv.field_of_view = comanche_dtv.min_field_of_view;
; 659  : #else
; 660  : 				comanche_dtv.zoom = 0.0;

  00049	0f 57 c0	 xorps	 xmm0, xmm0
  0004c	f3 0f 11 05 00
	00 00 00	 movss	 DWORD PTR ?comanche_dtv@@3UEO_PARAMS_DYNAMIC_MOVE@@A, xmm0

; 661  : #endif
; 662  : 
; 663  : 				break;

  00054	eb 0b		 jmp	 SHORT $LN2@slave_coma
$LN11@slave_coma:

; 664  : 			}
; 665  : 			case TARGET_ACQUISITION_SYSTEM_DVO:
; 666  : 			{
; 667  : #ifdef OLD_EO
; 668  : 				comanche_dvo.field_of_view = comanche_dvo.min_field_of_view;
; 669  : #else
; 670  : 				comanche_dvo.zoom = 0.0;

  00056	0f 57 c0	 xorps	 xmm0, xmm0
  00059	f3 0f 11 05 00
	00 00 00	 movss	 DWORD PTR ?comanche_dvo@@3UEO_PARAMS_DYNAMIC_MOVE@@A, xmm0
$LN2@slave_coma:

; 671  : #endif
; 672  : 
; 673  : 				break;
; 674  : 			}
; 675  : 		}
; 676  : 	}
; 677  : 	else

  00061	eb 50		 jmp	 SHORT $LN4@slave_coma
$LN7@slave_coma:

; 678  : 	{
; 679  : 		switch (eo_sensor)

  00063	a1 00 00 00 00	 mov	 eax, DWORD PTR ?eo_sensor@@3W4TARGET_ACQUISITION_SYSTEMS@@A ; eo_sensor
  00068	89 45 bc	 mov	 DWORD PTR tv70[ebp], eax
  0006b	83 7d bc 03	 cmp	 DWORD PTR tv70[ebp], 3
  0006f	74 0e		 je	 SHORT $LN12@slave_coma
  00071	83 7d bc 04	 cmp	 DWORD PTR tv70[ebp], 4
  00075	74 1a		 je	 SHORT $LN13@slave_coma
  00077	83 7d bc 05	 cmp	 DWORD PTR tv70[ebp], 5
  0007b	74 26		 je	 SHORT $LN14@slave_coma
  0007d	eb 34		 jmp	 SHORT $LN4@slave_coma
$LN12@slave_coma:

; 680  : 		{
; 681  : 			case TARGET_ACQUISITION_SYSTEM_FLIR:
; 682  : 			{
; 683  : #ifdef OLD_EO
; 684  : 				comanche_flir.field_of_view = comanche_flir.max_field_of_view;
; 685  : #else
; 686  : 				comanche_flir.zoom = 1.0;

  0007f	f3 0f 10 05 00
	00 00 00	 movss	 xmm0, DWORD PTR __real@3f800000
  00087	f3 0f 11 05 00
	00 00 00	 movss	 DWORD PTR ?comanche_flir@@3UEO_PARAMS_DYNAMIC_MOVE@@A, xmm0

; 687  : #endif
; 688  : 
; 689  : 				break;

  0008f	eb 22		 jmp	 SHORT $LN4@slave_coma
$LN13@slave_coma:

; 690  : 			}
; 691  : 			case TARGET_ACQUISITION_SYSTEM_DTV:
; 692  : 			{
; 693  : #ifdef OLD_EO
; 694  : 				comanche_dtv.field_of_view = comanche_dtv.max_field_of_view;
; 695  : #else
; 696  : 				comanche_dtv.zoom = 1.0;

  00091	f3 0f 10 05 00
	00 00 00	 movss	 xmm0, DWORD PTR __real@3f800000
  00099	f3 0f 11 05 00
	00 00 00	 movss	 DWORD PTR ?comanche_dtv@@3UEO_PARAMS_DYNAMIC_MOVE@@A, xmm0

; 697  : #endif
; 698  : 
; 699  : 				break;

  000a1	eb 10		 jmp	 SHORT $LN4@slave_coma
$LN14@slave_coma:

; 700  : 			}
; 701  : 			case TARGET_ACQUISITION_SYSTEM_DVO:
; 702  : 			{
; 703  : #ifdef OLD_EO
; 704  : 				comanche_dvo.field_of_view = comanche_dvo.max_field_of_view;
; 705  : #else
; 706  : 				comanche_dvo.zoom = 1.0;

  000a3	f3 0f 10 05 00
	00 00 00	 movss	 xmm0, DWORD PTR __real@3f800000
  000ab	f3 0f 11 05 00
	00 00 00	 movss	 DWORD PTR ?comanche_dvo@@3UEO_PARAMS_DYNAMIC_MOVE@@A, xmm0
$LN4@slave_coma:
$LN1@slave_coma:

; 707  : #endif
; 708  : 
; 709  : 				break;
; 710  : 			}
; 711  : 		}
; 712  : 	}
; 713  : }

  000b3	5f		 pop	 edi
  000b4	5e		 pop	 esi
  000b5	5b		 pop	 ebx
  000b6	8b e5		 mov	 esp, ebp
  000b8	5d		 pop	 ebp
  000b9	c3		 ret	 0
?slave_comanche_eo_to_current_target@@YGXXZ ENDP	; slave_comanche_eo_to_current_target
_TEXT	ENDS
; Function compile flags: /Odtp /ZI
; File c:\users\nhv90\projects\eech\aphavoc\source\gunships\avionics\comanche\cm_eo.c
;	COMDAT ?animate_comanche_eo@@YGXPAUOBJECT_3D_INSTANCE@@@Z
_TEXT	SEGMENT
_search_heading$ = -56					; size = 56
_inst3d$ = 8						; size = 4
?animate_comanche_eo@@YGXPAUOBJECT_3D_INSTANCE@@@Z PROC	; animate_comanche_eo, COMDAT

; 536  : {

  00000	55		 push	 ebp
  00001	8b ec		 mov	 ebp, esp
  00003	83 ec 78	 sub	 esp, 120		; 00000078H
  00006	53		 push	 ebx
  00007	56		 push	 esi
  00008	57		 push	 edi

; 537  : 	object_3d_sub_object_search_data
; 538  : 		search_heading;
; 539  : 
; 540  : 	ASSERT (inst3d);

  00009	83 7d 08 00	 cmp	 DWORD PTR _inst3d$[ebp], 0
  0000d	75 18		 jne	 SHORT $LN2@animate_co
  0000f	a1 00 00 00 00	 mov	 eax, DWORD PTR ?__LINE__Var@?0??animate_comanche_eo@@YGXPAUOBJECT_3D_INSTANCE@@@Z@4JA
  00014	83 c0 04	 add	 eax, 4
  00017	50		 push	 eax
  00018	68 00 00 00 00	 push	 OFFSET ??_C@_0EP@JLNGANPG@c?3?2users?2nhv90?2projects?2eech?2ap@
  0001d	68 00 00 00 00	 push	 OFFSET ??_C@_06DDNABPCD@inst3d@
  00022	e8 00 00 00 00	 call	 ?process_assert@@YGXPBD0H@Z ; process_assert
$LN2@animate_co:

; 541  : 
; 542  : 	//
; 543  : 	// TADS
; 544  : 	//
; 545  : 
; 546  : 	search_heading.search_depth = 0;

  00027	c7 45 d0 00 00
	00 00		 mov	 DWORD PTR _search_heading$[ebp+8], 0

; 547  : 	search_heading.search_object = inst3d;

  0002e	8b 45 08	 mov	 eax, DWORD PTR _inst3d$[ebp]
  00031	89 45 c8	 mov	 DWORD PTR _search_heading$[ebp], eax

; 548  : 	search_heading.sub_object_index = OBJECT_3D_SUB_OBJECT_RAH66_TADS_HEADING;

  00034	c7 45 d4 f4 00
	00 00		 mov	 DWORD PTR _search_heading$[ebp+12], 244 ; 000000f4H

; 549  : 
; 550  : 	if (find_object_3d_sub_object (&search_heading) == SUB_OBJECT_SEARCH_RESULT_OBJECT_FOUND)

  0003b	8d 45 c8	 lea	 eax, DWORD PTR _search_heading$[ebp]
  0003e	50		 push	 eax
  0003f	e8 00 00 00 00	 call	 ?find_object_3d_sub_object@@YG?AW4SUB_OBJECT_SEARCH_RESULT_TYPES@@PAUOBJECT_3D_SUB_OBJECT_SEARCH_DATA@@@Z ; find_object_3d_sub_object
  00044	83 f8 01	 cmp	 eax, 1
  00047	75 10		 jne	 SHORT $LN3@animate_co

; 551  : 	{
; 552  : 		search_heading.result_sub_object->relative_heading = eo_azimuth;

  00049	8b 45 cc	 mov	 eax, DWORD PTR _search_heading$[ebp+4]
  0004c	f3 0f 10 05 00
	00 00 00	 movss	 xmm0, DWORD PTR ?eo_azimuth@@3MA
  00054	f3 0f 11 40 18	 movss	 DWORD PTR [eax+24], xmm0
$LN3@animate_co:

; 553  : 	}
; 554  : 
; 555  : 	//
; 556  : 	// PNVS
; 557  : 	//
; 558  : 
; 559  : 	search_heading.search_depth = 0;

  00059	c7 45 d0 00 00
	00 00		 mov	 DWORD PTR _search_heading$[ebp+8], 0

; 560  : 	search_heading.search_object = inst3d;

  00060	8b 45 08	 mov	 eax, DWORD PTR _inst3d$[ebp]
  00063	89 45 c8	 mov	 DWORD PTR _search_heading$[ebp], eax

; 561  : 	search_heading.sub_object_index = OBJECT_3D_SUB_OBJECT_RAH66_PNVS_HEADING;

  00066	c7 45 d4 f2 00
	00 00		 mov	 DWORD PTR _search_heading$[ebp+12], 242 ; 000000f2H

; 562  : 
; 563  : 	if (find_object_3d_sub_object (&search_heading) == SUB_OBJECT_SEARCH_RESULT_OBJECT_FOUND)

  0006d	8d 45 c8	 lea	 eax, DWORD PTR _search_heading$[ebp]
  00070	50		 push	 eax
  00071	e8 00 00 00 00	 call	 ?find_object_3d_sub_object@@YG?AW4SUB_OBJECT_SEARCH_RESULT_TYPES@@PAUOBJECT_3D_SUB_OBJECT_SEARCH_DATA@@@Z ; find_object_3d_sub_object
  00076	83 f8 01	 cmp	 eax, 1
  00079	75 17		 jne	 SHORT $LN4@animate_co

; 564  : 	{
; 565  : 		search_heading.result_sub_object->relative_heading = -pilot_head_heading;

  0007b	f3 0f 10 05 00
	00 00 00	 movss	 xmm0, DWORD PTR ?pilot_head_heading@@3MA
  00083	0f 57 05 00 00
	00 00		 xorps	 xmm0, DWORD PTR __xmm@80000000800000008000000080000000
  0008a	8b 45 cc	 mov	 eax, DWORD PTR _search_heading$[ebp+4]
  0008d	f3 0f 11 40 18	 movss	 DWORD PTR [eax+24], xmm0
$LN4@animate_co:

; 566  : 	}
; 567  : }

  00092	5f		 pop	 edi
  00093	5e		 pop	 esi
  00094	5b		 pop	 ebx
  00095	8b e5		 mov	 esp, ebp
  00097	5d		 pop	 ebp
  00098	c2 04 00	 ret	 4
?animate_comanche_eo@@YGXPAUOBJECT_3D_INSTANCE@@@Z ENDP	; animate_comanche_eo
_TEXT	ENDS
; Function compile flags: /Odtp /ZI
; File c:\users\nhv90\projects\eech\aphavoc\source\gunships\avionics\comanche\cm_eo.c
;	COMDAT ?centre_comanche_eo@@YGXXZ
_TEXT	SEGMENT
?centre_comanche_eo@@YGXXZ PROC				; centre_comanche_eo, COMDAT

; 525  : {

  00000	55		 push	 ebp
  00001	8b ec		 mov	 ebp, esp
  00003	83 ec 40	 sub	 esp, 64			; 00000040H
  00006	53		 push	 ebx
  00007	56		 push	 esi
  00008	57		 push	 edi

; 526  : 	eo_azimuth = rad (0.0);

  00009	0f 57 c0	 xorps	 xmm0, xmm0
  0000c	f3 0f 11 05 00
	00 00 00	 movss	 DWORD PTR ?eo_azimuth@@3MA, xmm0

; 527  : 
; 528  : 	eo_elevation = rad (0.0);

  00014	0f 57 c0	 xorps	 xmm0, xmm0
  00017	f3 0f 11 05 00
	00 00 00	 movss	 DWORD PTR ?eo_elevation@@3MA, xmm0

; 529  : }

  0001f	5f		 pop	 edi
  00020	5e		 pop	 esi
  00021	5b		 pop	 ebx
  00022	8b e5		 mov	 esp, ebp
  00024	5d		 pop	 ebp
  00025	c3		 ret	 0
?centre_comanche_eo@@YGXXZ ENDP				; centre_comanche_eo
_TEXT	ENDS
; Function compile flags: /Odtp /ZI
; File c:\users\nhv90\projects\eech\aphavoc\source\gunships\avionics\comanche\cm_eo.c
;	COMDAT ?update_comanche_eo@@YGXPAUEO_PARAMS_DYNAMIC_MOVE@@@Z
_TEXT	SEGMENT
_ROTATE_RATE$1 = -28					; size = 4
_exp_zoom_value$2 = -24					; size = 4
_pos$3 = -20						; size = 4
_coarse_slew_rate$ = -16				; size = 4
_mouse_slew_rate$ = -12					; size = 4
_medium_slew_rate$ = -8					; size = 4
_fine_slew_rate$ = -4					; size = 4
_eo$ = 8						; size = 4
?update_comanche_eo@@YGXPAUEO_PARAMS_DYNAMIC_MOVE@@@Z PROC ; update_comanche_eo, COMDAT

; 317  : {

  00000	55		 push	 ebp
  00001	8b ec		 mov	 ebp, esp
  00003	83 ec 5c	 sub	 esp, 92			; 0000005cH
  00006	53		 push	 ebx
  00007	56		 push	 esi
  00008	57		 push	 edi

; 318  : 	float
; 319  : 		fine_slew_rate,
; 320  : 		medium_slew_rate,
; 321  : 		mouse_slew_rate, // Jabberwock 030930 
; 322  : 		coarse_slew_rate;
; 323  : 
; 324  : 	ASSERT (eo);

  00009	83 7d 08 00	 cmp	 DWORD PTR _eo$[ebp], 0
  0000d	75 18		 jne	 SHORT $LN20@update_com
  0000f	a1 00 00 00 00	 mov	 eax, DWORD PTR ?__LINE__Var@?0??update_comanche_eo@@YGXPAUEO_PARAMS_DYNAMIC_MOVE@@@Z@4JA
  00014	83 c0 07	 add	 eax, 7
  00017	50		 push	 eax
  00018	68 00 00 00 00	 push	 OFFSET ??_C@_0EP@JLNGANPG@c?3?2users?2nhv90?2projects?2eech?2ap@
  0001d	68 00 00 00 00	 push	 OFFSET ??_C@_02KMMHFIEO@eo@
  00022	e8 00 00 00 00	 call	 ?process_assert@@YGXPBD0H@Z ; process_assert
$LN20@update_com:

; 325  : 
; 326  : 	////////////////////////////////////////
; 327  : 	//
; 328  : 	// field of view
; 329  : 	//
; 330  : 	////////////////////////////////////////
; 331  : 
; 332  : 	while (single_target_acquisition_system_inc_range_key)

  00027	83 3d 00 00 00
	00 00		 cmp	 DWORD PTR ?single_target_acquisition_system_inc_range_key@@3HA, 0 ; single_target_acquisition_system_inc_range_key
  0002e	74 18		 je	 SHORT $LN3@update_com

; 333  : 	{
; 334  : 		dec_eo_field_of_view (eo);

  00030	8b 45 08	 mov	 eax, DWORD PTR _eo$[ebp]
  00033	50		 push	 eax
  00034	e8 00 00 00 00	 call	 ?dec_eo_field_of_view@@YGXPAUEO_PARAMS_DYNAMIC_MOVE@@@Z ; dec_eo_field_of_view

; 335  : 
; 336  : 		single_target_acquisition_system_inc_range_key--;

  00039	a1 00 00 00 00	 mov	 eax, DWORD PTR ?single_target_acquisition_system_inc_range_key@@3HA ; single_target_acquisition_system_inc_range_key
  0003e	83 e8 01	 sub	 eax, 1
  00041	a3 00 00 00 00	 mov	 DWORD PTR ?single_target_acquisition_system_inc_range_key@@3HA, eax ; single_target_acquisition_system_inc_range_key

; 337  : 	}

  00046	eb df		 jmp	 SHORT $LN20@update_com
$LN3@update_com:

; 338  : 
; 339  : 	while (single_target_acquisition_system_inc_range_fast_key)

  00048	83 3d 00 00 00
	00 00		 cmp	 DWORD PTR ?single_target_acquisition_system_inc_range_fast_key@@3HA, 0 ; single_target_acquisition_system_inc_range_fast_key
  0004f	74 18		 je	 SHORT $LN5@update_com

; 340  : 	{
; 341  : 		fast_dec_eo_field_of_view (eo);

  00051	8b 45 08	 mov	 eax, DWORD PTR _eo$[ebp]
  00054	50		 push	 eax
  00055	e8 00 00 00 00	 call	 ?fast_dec_eo_field_of_view@@YGXPAUEO_PARAMS_DYNAMIC_MOVE@@@Z ; fast_dec_eo_field_of_view

; 342  : 
; 343  : 		single_target_acquisition_system_inc_range_fast_key--;

  0005a	a1 00 00 00 00	 mov	 eax, DWORD PTR ?single_target_acquisition_system_inc_range_fast_key@@3HA ; single_target_acquisition_system_inc_range_fast_key
  0005f	83 e8 01	 sub	 eax, 1
  00062	a3 00 00 00 00	 mov	 DWORD PTR ?single_target_acquisition_system_inc_range_fast_key@@3HA, eax ; single_target_acquisition_system_inc_range_fast_key

; 344  : 	}

  00067	eb df		 jmp	 SHORT $LN3@update_com
$LN5@update_com:

; 345  : 
; 346  : 	////////////////////////////////////////
; 347  : 
; 348  : 	while (single_target_acquisition_system_dec_range_key)

  00069	83 3d 00 00 00
	00 00		 cmp	 DWORD PTR ?single_target_acquisition_system_dec_range_key@@3HA, 0 ; single_target_acquisition_system_dec_range_key
  00070	74 18		 je	 SHORT $LN7@update_com

; 349  : 	{
; 350  : 		inc_eo_field_of_view (eo);

  00072	8b 45 08	 mov	 eax, DWORD PTR _eo$[ebp]
  00075	50		 push	 eax
  00076	e8 00 00 00 00	 call	 ?inc_eo_field_of_view@@YGXPAUEO_PARAMS_DYNAMIC_MOVE@@@Z ; inc_eo_field_of_view

; 351  : 
; 352  : 		single_target_acquisition_system_dec_range_key--;

  0007b	a1 00 00 00 00	 mov	 eax, DWORD PTR ?single_target_acquisition_system_dec_range_key@@3HA ; single_target_acquisition_system_dec_range_key
  00080	83 e8 01	 sub	 eax, 1
  00083	a3 00 00 00 00	 mov	 DWORD PTR ?single_target_acquisition_system_dec_range_key@@3HA, eax ; single_target_acquisition_system_dec_range_key

; 353  : 	}

  00088	eb df		 jmp	 SHORT $LN5@update_com
$LN7@update_com:

; 354  : 
; 355  : 	while (single_target_acquisition_system_dec_range_fast_key)

  0008a	83 3d 00 00 00
	00 00		 cmp	 DWORD PTR ?single_target_acquisition_system_dec_range_fast_key@@3HA, 0 ; single_target_acquisition_system_dec_range_fast_key
  00091	74 18		 je	 SHORT $LN9@update_com

; 356  : 	{
; 357  : 		fast_inc_eo_field_of_view (eo);

  00093	8b 45 08	 mov	 eax, DWORD PTR _eo$[ebp]
  00096	50		 push	 eax
  00097	e8 00 00 00 00	 call	 ?fast_inc_eo_field_of_view@@YGXPAUEO_PARAMS_DYNAMIC_MOVE@@@Z ; fast_inc_eo_field_of_view

; 358  : 
; 359  : 		single_target_acquisition_system_dec_range_fast_key--;

  0009c	a1 00 00 00 00	 mov	 eax, DWORD PTR ?single_target_acquisition_system_dec_range_fast_key@@3HA ; single_target_acquisition_system_dec_range_fast_key
  000a1	83 e8 01	 sub	 eax, 1
  000a4	a3 00 00 00 00	 mov	 DWORD PTR ?single_target_acquisition_system_dec_range_fast_key@@3HA, eax ; single_target_acquisition_system_dec_range_fast_key

; 360  : 	}

  000a9	eb df		 jmp	 SHORT $LN7@update_com
$LN9@update_com:

; 361  : 
; 362  : 	////////////////////////////////////////
; 363  : 
; 364  : 	while (toggle_ground_stabilisation_key)

  000ab	83 3d 00 00 00
	00 00		 cmp	 DWORD PTR ?toggle_ground_stabilisation_key@@3HA, 0 ; toggle_ground_stabilisation_key
  000b2	74 14		 je	 SHORT $LN11@update_com

; 365  : 	{
; 366  : 		toggle_ground_stabilisation ();

  000b4	e8 00 00 00 00	 call	 ?toggle_ground_stabilisation@@YGXXZ ; toggle_ground_stabilisation

; 367  : 
; 368  : 		toggle_ground_stabilisation_key--;

  000b9	a1 00 00 00 00	 mov	 eax, DWORD PTR ?toggle_ground_stabilisation_key@@3HA ; toggle_ground_stabilisation_key
  000be	83 e8 01	 sub	 eax, 1
  000c1	a3 00 00 00 00	 mov	 DWORD PTR ?toggle_ground_stabilisation_key@@3HA, eax ; toggle_ground_stabilisation_key

; 369  : 	}

  000c6	eb e3		 jmp	 SHORT $LN9@update_com
$LN11@update_com:

; 370  : 
; 371  : 	////////////////////////////////////////
; 372  : 
; 373  : 	if (command_line_eo_zoom_joystick_index != -1)

  000c8	83 3d 00 00 00
	00 ff		 cmp	 DWORD PTR ?command_line_eo_zoom_joystick_index@@3HA, -1 ; command_line_eo_zoom_joystick_index
  000cf	74 34		 je	 SHORT $LN21@update_com

; 374  : 	{
; 375  : 		long pos = get_joystick_axis (command_line_eo_zoom_joystick_index, command_line_eo_zoom_joystick_axis);

  000d1	a1 00 00 00 00	 mov	 eax, DWORD PTR ?command_line_eo_zoom_joystick_axis@@3HA ; command_line_eo_zoom_joystick_axis
  000d6	50		 push	 eax
  000d7	8b 0d 00 00 00
	00		 mov	 ecx, DWORD PTR ?command_line_eo_zoom_joystick_index@@3HA ; command_line_eo_zoom_joystick_index
  000dd	51		 push	 ecx
  000de	e8 00 00 00 00	 call	 ?get_joystick_axis@@YGHHH@Z ; get_joystick_axis
  000e3	89 45 ec	 mov	 DWORD PTR _pos$3[ebp], eax

; 376  : 		
; 377  : 		eo->zoom = (pos + 10000) / 20000.0;

  000e6	8b 45 ec	 mov	 eax, DWORD PTR _pos$3[ebp]
  000e9	05 10 27 00 00	 add	 eax, 10000		; 00002710H
  000ee	f2 0f 2a c0	 cvtsi2sd xmm0, eax
  000f2	f2 0f 5e 05 00
	00 00 00	 divsd	 xmm0, QWORD PTR __real@40d3880000000000
  000fa	f2 0f 5a c0	 cvtsd2ss xmm0, xmm0
  000fe	8b 4d 08	 mov	 ecx, DWORD PTR _eo$[ebp]
  00101	f3 0f 11 01	 movss	 DWORD PTR [ecx], xmm0
$LN21@update_com:

; 378  : 	}
; 379  : 
; 380  : 	////////////////////////////////////////
; 381  : 	//
; 382  : 	// slew optics
; 383  : 	//
; 384  : 	////////////////////////////////////////
; 385  : 
; 386  : #ifdef OLD_EO
; 387  : 	switch (eo->field_of_view)
; 388  : 	{
; 389  : 		////////////////////////////////////////
; 390  : 		case EO_FOV_NARROW:
; 391  : 		////////////////////////////////////////
; 392  : 		{
; 393  : 			fine_slew_rate = rad (0.05) * get_delta_time ();
; 394  : 
; 395  : 			medium_slew_rate = rad (0.25) * get_delta_time ();
; 396  : 
; 397  : 			mouse_slew_rate = rad (0.6) * get_delta_time ();	// Jabberwock 030930
; 398  : 			
; 399  : 			coarse_slew_rate = rad (1.0) * get_delta_time ();
; 400  : 
; 401  : 			break;
; 402  : 		}
; 403  : 		////////////////////////////////////////
; 404  : 		case EO_FOV_MEDIUM:
; 405  : 		////////////////////////////////////////
; 406  : 		{
; 407  : 			fine_slew_rate = rad (0.5) * get_delta_time ();
; 408  : 
; 409  : 			medium_slew_rate = rad (2.5) * get_delta_time ();
; 410  : 			
; 411  : 			mouse_slew_rate = rad (6) * get_delta_time ();	// Jabberwock 030930
; 412  : 
; 413  : 			coarse_slew_rate = rad (10.0) * get_delta_time ();
; 414  : 
; 415  : 			break;
; 416  : 		}
; 417  : 		////////////////////////////////////////
; 418  : 		case EO_FOV_WIDE:
; 419  : 		////////////////////////////////////////
; 420  : 		{
; 421  : 			fine_slew_rate = rad (4.0) * get_delta_time ();
; 422  : 
; 423  : 			medium_slew_rate = rad (20.0) * get_delta_time ();
; 424  : 			
; 425  : 			mouse_slew_rate = rad (48) * get_delta_time ();	// Jabberwock 030930
; 426  : 
; 427  : 			coarse_slew_rate = rad (80.0) * get_delta_time ();
; 428  : 
; 429  : 			break;
; 430  : 		}
; 431  : 		////////////////////////////////////////
; 432  : 		default:
; 433  : 		////////////////////////////////////////
; 434  : 		{
; 435  : 			debug_fatal ("Invalid field of view = %d", eo->field_of_view);
; 436  : 
; 437  : 			break;
; 438  : 		}
; 439  : 	}
; 440  : #else
; 441  : 	{
; 442  : 		float exp_zoom_value = convert_linear_view_value (eo);

  00105	8b 45 08	 mov	 eax, DWORD PTR _eo$[ebp]
  00108	50		 push	 eax
  00109	e8 00 00 00 00	 call	 ?convert_linear_view_value@@YGMPAUEO_PARAMS_DYNAMIC_MOVE@@@Z ; convert_linear_view_value
  0010e	d9 5d e8	 fstp	 DWORD PTR _exp_zoom_value$2[ebp]

; 443  : 
; 444  : 		fine_slew_rate = rad (4.0) * exp_zoom_value * get_delta_time ();

  00111	f3 0f 5a 45 e8	 cvtss2sd xmm0, DWORD PTR _exp_zoom_value$2[ebp]
  00116	f2 0f 59 05 00
	00 00 00	 mulsd	 xmm0, QWORD PTR __real@3fb1df46a0000000
  0011e	f3 0f 5a 0d 00
	00 00 00	 cvtss2sd xmm1, DWORD PTR ?system_delta_time@@3MA
  00126	f2 0f 59 c1	 mulsd	 xmm0, xmm1
  0012a	f2 0f 5a c0	 cvtsd2ss xmm0, xmm0
  0012e	f3 0f 11 45 fc	 movss	 DWORD PTR _fine_slew_rate$[ebp], xmm0

; 445  : 
; 446  : 		medium_slew_rate = rad (20.0) * exp_zoom_value * get_delta_time ();

  00133	f3 0f 5a 45 e8	 cvtss2sd xmm0, DWORD PTR _exp_zoom_value$2[ebp]
  00138	f2 0f 59 05 00
	00 00 00	 mulsd	 xmm0, QWORD PTR __real@3fd6571848000000
  00140	f3 0f 5a 0d 00
	00 00 00	 cvtss2sd xmm1, DWORD PTR ?system_delta_time@@3MA
  00148	f2 0f 59 c1	 mulsd	 xmm0, xmm1
  0014c	f2 0f 5a c0	 cvtsd2ss xmm0, xmm0
  00150	f3 0f 11 45 f8	 movss	 DWORD PTR _medium_slew_rate$[ebp], xmm0

; 447  : 		
; 448  : 		mouse_slew_rate = rad (48.0) * exp_zoom_value * get_delta_time ();	// Jabberwock 030930

  00155	f3 0f 5a 45 e8	 cvtss2sd xmm0, DWORD PTR _exp_zoom_value$2[ebp]
  0015a	f2 0f 59 05 00
	00 00 00	 mulsd	 xmm0, QWORD PTR __real@3feacee9f0000000
  00162	f3 0f 5a 0d 00
	00 00 00	 cvtss2sd xmm1, DWORD PTR ?system_delta_time@@3MA
  0016a	f2 0f 59 c1	 mulsd	 xmm0, xmm1
  0016e	f2 0f 5a c0	 cvtsd2ss xmm0, xmm0
  00172	f3 0f 11 45 f4	 movss	 DWORD PTR _mouse_slew_rate$[ebp], xmm0

; 449  : 
; 450  : 		coarse_slew_rate = rad (80.0) * exp_zoom_value * get_delta_time ();

  00177	f3 0f 5a 45 e8	 cvtss2sd xmm0, DWORD PTR _exp_zoom_value$2[ebp]
  0017c	f2 0f 59 05 00
	00 00 00	 mulsd	 xmm0, QWORD PTR __real@3ff6571848000000
  00184	f3 0f 5a 0d 00
	00 00 00	 cvtss2sd xmm1, DWORD PTR ?system_delta_time@@3MA
  0018c	f2 0f 59 c1	 mulsd	 xmm0, xmm1
  00190	f2 0f 5a c0	 cvtsd2ss xmm0, xmm0
  00194	f3 0f 11 45 f0	 movss	 DWORD PTR _coarse_slew_rate$[ebp], xmm0

; 451  : 	}
; 452  : #endif
; 453  : 
; 454  : 	keyboard_slew_eo_system(fine_slew_rate, medium_slew_rate, coarse_slew_rate);

  00199	51		 push	 ecx
  0019a	f3 0f 10 45 f0	 movss	 xmm0, DWORD PTR _coarse_slew_rate$[ebp]
  0019f	f3 0f 11 04 24	 movss	 DWORD PTR [esp], xmm0
  001a4	51		 push	 ecx
  001a5	f3 0f 10 45 f8	 movss	 xmm0, DWORD PTR _medium_slew_rate$[ebp]
  001aa	f3 0f 11 04 24	 movss	 DWORD PTR [esp], xmm0
  001af	51		 push	 ecx
  001b0	f3 0f 10 45 fc	 movss	 xmm0, DWORD PTR _fine_slew_rate$[ebp]
  001b5	f3 0f 11 04 24	 movss	 DWORD PTR [esp], xmm0
  001ba	e8 00 00 00 00	 call	 ?keyboard_slew_eo_system@@YGXMMM@Z ; keyboard_slew_eo_system

; 455  : 
; 456  : 	////////////////////////////////////////
; 457  : 
; 458  : 	if ( command_line_eo_pan_joystick_index == -1 )

  001bf	83 3d 00 00 00
	00 ff		 cmp	 DWORD PTR ?command_line_eo_pan_joystick_index@@3HA, -1 ; command_line_eo_pan_joystick_index
  001c6	0f 85 c9 00 00
	00		 jne	 $LN22@update_com

; 459  : 	{						
; 460  : 		float ROTATE_RATE = (float) command_line_mouse_look_speed / 5.0;

  001cc	f3 0f 2a 05 00
	00 00 00	 cvtsi2ss xmm0, DWORD PTR ?command_line_mouse_look_speed@@3HA ; command_line_mouse_look_speed
  001d4	f3 0f 5a c0	 cvtss2sd xmm0, xmm0
  001d8	f2 0f 5e 05 00
	00 00 00	 divsd	 xmm0, QWORD PTR __real@4014000000000000
  001e0	f2 0f 5a c0	 cvtsd2ss xmm0, xmm0
  001e4	f3 0f 11 45 e4	 movss	 DWORD PTR _ROTATE_RATE$1[ebp], xmm0

; 461  : 
; 462  : 		eo_azimuth = get_eo_azimuth (ROTATE_RATE, coarse_slew_rate, eo_azimuth, eo_min_azimuth, eo_max_azimuth, mouse_slew_rate);

  001e9	51		 push	 ecx
  001ea	f3 0f 10 45 f4	 movss	 xmm0, DWORD PTR _mouse_slew_rate$[ebp]
  001ef	f3 0f 11 04 24	 movss	 DWORD PTR [esp], xmm0
  001f4	51		 push	 ecx
  001f5	f3 0f 10 05 00
	00 00 00	 movss	 xmm0, DWORD PTR ?eo_max_azimuth@@3MA
  001fd	f3 0f 11 04 24	 movss	 DWORD PTR [esp], xmm0
  00202	51		 push	 ecx
  00203	f3 0f 10 05 00
	00 00 00	 movss	 xmm0, DWORD PTR ?eo_min_azimuth@@3MA
  0020b	f3 0f 11 04 24	 movss	 DWORD PTR [esp], xmm0
  00210	51		 push	 ecx
  00211	f3 0f 10 05 00
	00 00 00	 movss	 xmm0, DWORD PTR ?eo_azimuth@@3MA
  00219	f3 0f 11 04 24	 movss	 DWORD PTR [esp], xmm0
  0021e	51		 push	 ecx
  0021f	f3 0f 10 45 f0	 movss	 xmm0, DWORD PTR _coarse_slew_rate$[ebp]
  00224	f3 0f 11 04 24	 movss	 DWORD PTR [esp], xmm0
  00229	51		 push	 ecx
  0022a	f3 0f 10 45 e4	 movss	 xmm0, DWORD PTR _ROTATE_RATE$1[ebp]
  0022f	f3 0f 11 04 24	 movss	 DWORD PTR [esp], xmm0
  00234	e8 00 00 00 00	 call	 ?get_eo_azimuth@@YGMMMMMMM@Z ; get_eo_azimuth
  00239	d9 1d 00 00 00
	00		 fstp	 DWORD PTR ?eo_azimuth@@3MA ; eo_azimuth

; 463  : 		eo_elevation = get_eo_elevation (ROTATE_RATE, coarse_slew_rate, eo_elevation, eo_min_elevation, eo_max_elevation, mouse_slew_rate);

  0023f	51		 push	 ecx
  00240	f3 0f 10 45 f4	 movss	 xmm0, DWORD PTR _mouse_slew_rate$[ebp]
  00245	f3 0f 11 04 24	 movss	 DWORD PTR [esp], xmm0
  0024a	51		 push	 ecx
  0024b	f3 0f 10 05 00
	00 00 00	 movss	 xmm0, DWORD PTR ?eo_max_elevation@@3MA
  00253	f3 0f 11 04 24	 movss	 DWORD PTR [esp], xmm0
  00258	51		 push	 ecx
  00259	f3 0f 10 05 00
	00 00 00	 movss	 xmm0, DWORD PTR ?eo_min_elevation@@3MA
  00261	f3 0f 11 04 24	 movss	 DWORD PTR [esp], xmm0
  00266	51		 push	 ecx
  00267	f3 0f 10 05 00
	00 00 00	 movss	 xmm0, DWORD PTR ?eo_elevation@@3MA
  0026f	f3 0f 11 04 24	 movss	 DWORD PTR [esp], xmm0
  00274	51		 push	 ecx
  00275	f3 0f 10 45 f0	 movss	 xmm0, DWORD PTR _coarse_slew_rate$[ebp]
  0027a	f3 0f 11 04 24	 movss	 DWORD PTR [esp], xmm0
  0027f	51		 push	 ecx
  00280	f3 0f 10 45 e4	 movss	 xmm0, DWORD PTR _ROTATE_RATE$1[ebp]
  00285	f3 0f 11 04 24	 movss	 DWORD PTR [esp], xmm0
  0028a	e8 00 00 00 00	 call	 ?get_eo_elevation@@YGMMMMMMM@Z ; get_eo_elevation
  0028f	d9 1d 00 00 00
	00		 fstp	 DWORD PTR ?eo_elevation@@3MA ; eo_elevation
$LN22@update_com:

; 464  : 	}
; 465  : 	if (command_line_eo_zoom_joystick_index == -1 && (command_line_mouse_look != MOUSELOOK_ON || command_line_field_of_view_joystick_index != -1))

  00295	83 3d 00 00 00
	00 ff		 cmp	 DWORD PTR ?command_line_eo_zoom_joystick_index@@3HA, -1 ; command_line_eo_zoom_joystick_index
  0029c	75 29		 jne	 SHORT $LN23@update_com
  0029e	83 3d 00 00 00
	00 03		 cmp	 DWORD PTR ?command_line_mouse_look@@3HA, 3 ; command_line_mouse_look
  002a5	75 09		 jne	 SHORT $LN24@update_com
  002a7	83 3d 00 00 00
	00 ff		 cmp	 DWORD PTR ?command_line_field_of_view_joystick_index@@3HA, -1 ; command_line_field_of_view_joystick_index
  002ae	74 17		 je	 SHORT $LN23@update_com
$LN24@update_com:

; 466  : 		eo->zoom = get_new_eo_zoom(eo->zoom);

  002b0	8b 45 08	 mov	 eax, DWORD PTR _eo$[ebp]
  002b3	51		 push	 ecx
  002b4	f3 0f 10 00	 movss	 xmm0, DWORD PTR [eax]
  002b8	f3 0f 11 04 24	 movss	 DWORD PTR [esp], xmm0
  002bd	e8 00 00 00 00	 call	 ?get_new_eo_zoom@@YGMM@Z ; get_new_eo_zoom
  002c2	8b 4d 08	 mov	 ecx, DWORD PTR _eo$[ebp]
  002c5	d9 19		 fstp	 DWORD PTR [ecx]
$LN23@update_com:

; 467  : 
; 468  : 	////////////////////////////////////////
; 469  : 
; 470  : 	joystick_slew_eo_system(medium_slew_rate);

  002c7	51		 push	 ecx
  002c8	f3 0f 10 45 f8	 movss	 xmm0, DWORD PTR _medium_slew_rate$[ebp]
  002cd	f3 0f 11 04 24	 movss	 DWORD PTR [esp], xmm0
  002d2	e8 00 00 00 00	 call	 ?joystick_slew_eo_system@@YGXM@Z ; joystick_slew_eo_system

; 471  : 
; 472  : 	////////////////////////////////////////
; 473  : 
; 474  : 	// loke 030322
; 475  : 	// handle the ground stabilisation
; 476  : 
; 477  : 	if (eo_ground_stabilised)

  002d7	83 3d 00 00 00
	00 00		 cmp	 DWORD PTR ?eo_ground_stabilised@@3HA, 0 ; eo_ground_stabilised
  002de	74 05		 je	 SHORT $LN25@update_com

; 478  : 	{
; 479  : 		handle_ground_stabilisation();

  002e0	e8 00 00 00 00	 call	 ?handle_ground_stabilisation@@YGXXZ ; handle_ground_stabilisation
$LN25@update_com:

; 480  : 	}
; 481  : 
; 482  : 	////////////////////////////////////////
; 483  : 
; 484  : 	while (single_target_acquisition_system_select_next_target_key)

  002e5	83 3d 00 00 00
	00 00		 cmp	 DWORD PTR ?single_target_acquisition_system_select_next_target_key@@3HA, 0 ; single_target_acquisition_system_select_next_target_key
  002ec	74 14		 je	 SHORT $LN13@update_com

; 485  : 	{
; 486  : 		select_next_eo_target ();

  002ee	e8 00 00 00 00	 call	 ?select_next_eo_target@@YGXXZ ; select_next_eo_target

; 487  : 
; 488  : 		single_target_acquisition_system_select_next_target_key--;

  002f3	a1 00 00 00 00	 mov	 eax, DWORD PTR ?single_target_acquisition_system_select_next_target_key@@3HA ; single_target_acquisition_system_select_next_target_key
  002f8	83 e8 01	 sub	 eax, 1
  002fb	a3 00 00 00 00	 mov	 DWORD PTR ?single_target_acquisition_system_select_next_target_key@@3HA, eax ; single_target_acquisition_system_select_next_target_key

; 489  : 	}

  00300	eb e3		 jmp	 SHORT $LN25@update_com
$LN13@update_com:

; 490  : 
; 491  : 	////////////////////////////////////////
; 492  : 
; 493  : 	while (single_target_acquisition_system_select_previous_target_key)

  00302	83 3d 00 00 00
	00 00		 cmp	 DWORD PTR ?single_target_acquisition_system_select_previous_target_key@@3HA, 0 ; single_target_acquisition_system_select_previous_target_key
  00309	74 14		 je	 SHORT $LN15@update_com

; 494  : 	{
; 495  : 		select_previous_eo_target ();

  0030b	e8 00 00 00 00	 call	 ?select_previous_eo_target@@YGXXZ ; select_previous_eo_target

; 496  : 
; 497  : 		single_target_acquisition_system_select_previous_target_key--;

  00310	a1 00 00 00 00	 mov	 eax, DWORD PTR ?single_target_acquisition_system_select_previous_target_key@@3HA ; single_target_acquisition_system_select_previous_target_key
  00315	83 e8 01	 sub	 eax, 1
  00318	a3 00 00 00 00	 mov	 DWORD PTR ?single_target_acquisition_system_select_previous_target_key@@3HA, eax ; single_target_acquisition_system_select_previous_target_key

; 498  : 	}

  0031d	eb e3		 jmp	 SHORT $LN13@update_com
$LN15@update_com:

; 499  : 
; 500  : // Jabberwock 031107 Designated targets
; 501  : 	
; 502  : 	while (single_target_acquisition_system_select_next_designated_key)

  0031f	83 3d 00 00 00
	00 00		 cmp	 DWORD PTR ?single_target_acquisition_system_select_next_designated_key@@3HA, 0 ; single_target_acquisition_system_select_next_designated_key
  00326	74 14		 je	 SHORT $LN17@update_com

; 503  : 	{
; 504  : 		select_next_designated_eo_target ();

  00328	e8 00 00 00 00	 call	 ?select_next_designated_eo_target@@YGXXZ ; select_next_designated_eo_target

; 505  : 
; 506  : 		single_target_acquisition_system_select_next_designated_key--;

  0032d	a1 00 00 00 00	 mov	 eax, DWORD PTR ?single_target_acquisition_system_select_next_designated_key@@3HA ; single_target_acquisition_system_select_next_designated_key
  00332	83 e8 01	 sub	 eax, 1
  00335	a3 00 00 00 00	 mov	 DWORD PTR ?single_target_acquisition_system_select_next_designated_key@@3HA, eax ; single_target_acquisition_system_select_next_designated_key

; 507  : 	}

  0033a	eb e3		 jmp	 SHORT $LN15@update_com
$LN17@update_com:

; 508  : 
; 509  : 	////////////////////////////////////////
; 510  : 
; 511  : 	while (single_target_acquisition_system_select_previous_designated_key)

  0033c	83 3d 00 00 00
	00 00		 cmp	 DWORD PTR ?single_target_acquisition_system_select_previous_designated_key@@3HA, 0 ; single_target_acquisition_system_select_previous_designated_key
  00343	74 14		 je	 SHORT $LN19@update_com

; 512  : 	{
; 513  : 		select_previous_designated_eo_target ();

  00345	e8 00 00 00 00	 call	 ?select_previous_designated_eo_target@@YGXXZ ; select_previous_designated_eo_target

; 514  : 
; 515  : 		single_target_acquisition_system_select_previous_designated_key--;

  0034a	a1 00 00 00 00	 mov	 eax, DWORD PTR ?single_target_acquisition_system_select_previous_designated_key@@3HA ; single_target_acquisition_system_select_previous_designated_key
  0034f	83 e8 01	 sub	 eax, 1
  00352	a3 00 00 00 00	 mov	 DWORD PTR ?single_target_acquisition_system_select_previous_designated_key@@3HA, eax ; single_target_acquisition_system_select_previous_designated_key

; 516  : 	}	

  00357	eb e3		 jmp	 SHORT $LN17@update_com
$LN19@update_com:

; 517  : // Jabberwock 031107 ends	
; 518  : }

  00359	5f		 pop	 edi
  0035a	5e		 pop	 esi
  0035b	5b		 pop	 ebx
  0035c	8b e5		 mov	 esp, ebp
  0035e	5d		 pop	 ebp
  0035f	c2 04 00	 ret	 4
?update_comanche_eo@@YGXPAUEO_PARAMS_DYNAMIC_MOVE@@@Z ENDP ; update_comanche_eo
_TEXT	ENDS
; Function compile flags: /Odtp /ZI
; File c:\users\nhv90\projects\eech\aphavoc\source\gunships\avionics\comanche\cm_eo.c
;	COMDAT ?get_comanche_eo_relative_centred_viewpoint@@YGXPAUVIEWPOINT@@@Z
_TEXT	SEGMENT
tv177 = -136						; size = 4
tv83 = -136						; size = 4
tv169 = -132						; size = 4
tv138 = -132						; size = 4
tv75 = -132						; size = 4
_search$ = -64						; size = 56
_inst3d$ = -8						; size = 4
_source$ = -4						; size = 4
_vp$ = 8						; size = 4
?get_comanche_eo_relative_centred_viewpoint@@YGXPAUVIEWPOINT@@@Z PROC ; get_comanche_eo_relative_centred_viewpoint, COMDAT

; 184  : {

  00000	55		 push	 ebp
  00001	8b ec		 mov	 ebp, esp
  00003	81 ec 88 00 00
	00		 sub	 esp, 136		; 00000088H
  00009	53		 push	 ebx
  0000a	56		 push	 esi
  0000b	57		 push	 edi

; 185  : 	entity
; 186  : 		*source;
; 187  : 
; 188  : 	object_3d_instance
; 189  : 		*inst3d;
; 190  : 
; 191  : 	object_3d_sub_object_search_data
; 192  : 		search;
; 193  : 
; 194  : 	ASSERT (vp);

  0000c	83 7d 08 00	 cmp	 DWORD PTR _vp$[ebp], 0
  00010	75 18		 jne	 SHORT $LN2@get_comanc
  00012	a1 00 00 00 00	 mov	 eax, DWORD PTR ?__LINE__Var@?0??get_comanche_eo_relative_centred_viewpoint@@YGXPAUVIEWPOINT@@@Z@4JA
  00017	83 c0 0a	 add	 eax, 10			; 0000000aH
  0001a	50		 push	 eax
  0001b	68 00 00 00 00	 push	 OFFSET ??_C@_0EP@JLNGANPG@c?3?2users?2nhv90?2projects?2eech?2ap@
  00020	68 00 00 00 00	 push	 OFFSET ??_C@_02HPPNELPJ@vp@
  00025	e8 00 00 00 00	 call	 ?process_assert@@YGXPBD0H@Z ; process_assert
$LN2@get_comanc:

; 195  : 
; 196  : 	source = get_gunship_entity ();

  0002a	a1 00 00 00 00	 mov	 eax, DWORD PTR ?gunship_entity@@3PAUENTITY@@A ; gunship_entity
  0002f	89 45 fc	 mov	 DWORD PTR _source$[ebp], eax

; 197  : 
; 198  : 	inst3d = (object_3d_instance *) get_local_entity_ptr_value (source, PTR_TYPE_INSTANCE_3D_OBJECT);

  00032	83 7d fc 00	 cmp	 DWORD PTR _source$[ebp], 0
  00036	74 0d		 je	 SHORT $LN7@get_comanc
  00038	8b 45 fc	 mov	 eax, DWORD PTR _source$[ebp]
  0003b	8b 08		 mov	 ecx, DWORD PTR [eax]
  0003d	89 8d 7c ff ff
	ff		 mov	 DWORD PTR tv75[ebp], ecx
  00043	eb 24		 jmp	 SHORT $LN8@get_comanc
$LN7@get_comanc:
  00045	8b 15 00 00 00
	00		 mov	 edx, DWORD PTR ?__LINE__Var@?0??get_comanche_eo_relative_centred_viewpoint@@YGXPAUVIEWPOINT@@@Z@4JA
  0004b	83 c2 0e	 add	 edx, 14			; 0000000eH
  0004e	52		 push	 edx
  0004f	68 00 00 00 00	 push	 OFFSET ??_C@_0EP@JLNGANPG@c?3?2users?2nhv90?2projects?2eech?2ap@
  00054	a1 00 00 00 00	 mov	 eax, DWORD PTR ?null_entity_pointer_message@@3PBDB ; null_entity_pointer_message
  00059	50		 push	 eax
  0005a	e8 00 00 00 00	 call	 ?process_assert@@YGXPBD0H@Z ; process_assert
  0005f	c7 85 7c ff ff
	ff 00 00 00 00	 mov	 DWORD PTR tv75[ebp], 0
$LN8@get_comanc:
  00069	b9 01 00 00 00	 mov	 ecx, 1
  0006e	85 c9		 test	 ecx, ecx
  00070	74 0c		 je	 SHORT $LN9@get_comanc
  00072	c7 85 78 ff ff
	ff 02 00 00 00	 mov	 DWORD PTR tv83[ebp], 2
  0007c	eb 24		 jmp	 SHORT $LN10@get_comanc
$LN9@get_comanc:
  0007e	8b 15 00 00 00
	00		 mov	 edx, DWORD PTR ?__LINE__Var@?0??get_comanche_eo_relative_centred_viewpoint@@YGXPAUVIEWPOINT@@@Z@4JA
  00084	83 c2 0e	 add	 edx, 14			; 0000000eH
  00087	52		 push	 edx
  00088	68 00 00 00 00	 push	 OFFSET ??_C@_0EP@JLNGANPG@c?3?2users?2nhv90?2projects?2eech?2ap@
  0008d	a1 00 00 00 00	 mov	 eax, DWORD PTR ?overload_invalid_ptr_type_message@@3PBDB ; overload_invalid_ptr_type_message
  00092	50		 push	 eax
  00093	e8 00 00 00 00	 call	 ?process_assert@@YGXPBD0H@Z ; process_assert
  00098	c7 85 78 ff ff
	ff 00 00 00 00	 mov	 DWORD PTR tv83[ebp], 0
$LN10@get_comanc:
  000a2	6a 02		 push	 2
  000a4	8b 4d fc	 mov	 ecx, DWORD PTR _source$[ebp]
  000a7	51		 push	 ecx
  000a8	6b 95 7c ff ff
	ff 50		 imul	 edx, DWORD PTR tv75[ebp], 80
  000af	8b 85 78 ff ff
	ff		 mov	 eax, DWORD PTR tv83[ebp]
  000b5	8b 8c 82 00 00
	00 00		 mov	 ecx, DWORD PTR ?fn_get_local_entity_ptr_value@@3PAY0BE@P6GPAXPAUENTITY@@W4PTR_TYPES@@@ZA[edx+eax*4]
  000bc	ff d1		 call	 ecx
  000be	89 45 f8	 mov	 DWORD PTR _inst3d$[ebp], eax

; 199  : 
; 200  : 	ASSERT (inst3d);

  000c1	83 7d f8 00	 cmp	 DWORD PTR _inst3d$[ebp], 0
  000c5	75 18		 jne	 SHORT $LN3@get_comanc
  000c7	a1 00 00 00 00	 mov	 eax, DWORD PTR ?__LINE__Var@?0??get_comanche_eo_relative_centred_viewpoint@@YGXPAUVIEWPOINT@@@Z@4JA
  000cc	83 c0 10	 add	 eax, 16			; 00000010H
  000cf	50		 push	 eax
  000d0	68 00 00 00 00	 push	 OFFSET ??_C@_0EP@JLNGANPG@c?3?2users?2nhv90?2projects?2eech?2ap@
  000d5	68 00 00 00 00	 push	 OFFSET ??_C@_06DDNABPCD@inst3d@
  000da	e8 00 00 00 00	 call	 ?process_assert@@YGXPBD0H@Z ; process_assert
$LN3@get_comanc:

; 201  : 
; 202  : 	inst3d->vp.x = 0.0;

  000df	8b 45 f8	 mov	 eax, DWORD PTR _inst3d$[ebp]
  000e2	0f 57 c0	 xorps	 xmm0, xmm0
  000e5	f3 0f 11 40 08	 movss	 DWORD PTR [eax+8], xmm0

; 203  : 	inst3d->vp.y = 0.0;

  000ea	8b 45 f8	 mov	 eax, DWORD PTR _inst3d$[ebp]
  000ed	0f 57 c0	 xorps	 xmm0, xmm0
  000f0	f3 0f 11 40 0c	 movss	 DWORD PTR [eax+12], xmm0

; 204  : 	inst3d->vp.z = 0.0;

  000f5	8b 45 f8	 mov	 eax, DWORD PTR _inst3d$[ebp]
  000f8	0f 57 c0	 xorps	 xmm0, xmm0
  000fb	f3 0f 11 40 10	 movss	 DWORD PTR [eax+16], xmm0

; 205  : 
; 206  : 	get_local_entity_attitude_matrix (source, inst3d->vp.attitude);

  00100	83 7d fc 00	 cmp	 DWORD PTR _source$[ebp], 0
  00104	74 0d		 je	 SHORT $LN11@get_comanc
  00106	8b 45 fc	 mov	 eax, DWORD PTR _source$[ebp]
  00109	8b 08		 mov	 ecx, DWORD PTR [eax]
  0010b	89 8d 7c ff ff
	ff		 mov	 DWORD PTR tv138[ebp], ecx
  00111	eb 24		 jmp	 SHORT $LN12@get_comanc
$LN11@get_comanc:
  00113	8b 15 00 00 00
	00		 mov	 edx, DWORD PTR ?__LINE__Var@?0??get_comanche_eo_relative_centred_viewpoint@@YGXPAUVIEWPOINT@@@Z@4JA
  00119	83 c2 16	 add	 edx, 22			; 00000016H
  0011c	52		 push	 edx
  0011d	68 00 00 00 00	 push	 OFFSET ??_C@_0EP@JLNGANPG@c?3?2users?2nhv90?2projects?2eech?2ap@
  00122	a1 00 00 00 00	 mov	 eax, DWORD PTR ?null_entity_pointer_message@@3PBDB ; null_entity_pointer_message
  00127	50		 push	 eax
  00128	e8 00 00 00 00	 call	 ?process_assert@@YGXPBD0H@Z ; process_assert
  0012d	c7 85 7c ff ff
	ff 00 00 00 00	 mov	 DWORD PTR tv138[ebp], 0
$LN12@get_comanc:
  00137	8b 4d f8	 mov	 ecx, DWORD PTR _inst3d$[ebp]
  0013a	83 c1 14	 add	 ecx, 20			; 00000014H
  0013d	51		 push	 ecx
  0013e	8b 55 fc	 mov	 edx, DWORD PTR _source$[ebp]
  00141	52		 push	 edx
  00142	8b 85 7c ff ff
	ff		 mov	 eax, DWORD PTR tv138[ebp]
  00148	8b 0c 85 00 00
	00 00		 mov	 ecx, DWORD PTR ?fn_get_local_entity_attitude_matrix@@3PAP6GXPAUENTITY@@QAY02M@ZA[eax*4]
  0014f	ff d1		 call	 ecx

; 207  : 
; 208  : 	search.search_depth = 0;

  00151	c7 45 c8 00 00
	00 00		 mov	 DWORD PTR _search$[ebp+8], 0

; 209  : 	search.search_object = inst3d;

  00158	8b 45 f8	 mov	 eax, DWORD PTR _inst3d$[ebp]
  0015b	89 45 c0	 mov	 DWORD PTR _search$[ebp], eax

; 210  : 	search.sub_object_index = OBJECT_3D_SUB_OBJECT_COMANCHE_EO_CAMERA;

  0015e	c7 45 cc f5 00
	00 00		 mov	 DWORD PTR _search$[ebp+12], 245 ; 000000f5H

; 211  : 
; 212  : 	if (find_object_3d_sub_object (&search) == SUB_OBJECT_SEARCH_RESULT_OBJECT_FOUND)

  00165	8d 45 c0	 lea	 eax, DWORD PTR _search$[ebp]
  00168	50		 push	 eax
  00169	e8 00 00 00 00	 call	 ?find_object_3d_sub_object@@YG?AW4SUB_OBJECT_SEARCH_RESULT_TYPES@@PAUOBJECT_3D_SUB_OBJECT_SEARCH_DATA@@@Z ; find_object_3d_sub_object
  0016e	83 f8 01	 cmp	 eax, 1
  00171	75 0f		 jne	 SHORT $LN4@get_comanc

; 213  : 	{
; 214  : 		get_3d_sub_object_world_viewpoint (search.result_sub_object, vp);

  00173	8b 45 08	 mov	 eax, DWORD PTR _vp$[ebp]
  00176	50		 push	 eax
  00177	8b 4d c4	 mov	 ecx, DWORD PTR _search$[ebp+4]
  0017a	51		 push	 ecx
  0017b	e8 00 00 00 00	 call	 ?get_3d_sub_object_world_viewpoint@@YGXPAUOBJECT_3D_SUB_INSTANCE@@PAUVIEWPOINT@@@Z ; get_3d_sub_object_world_viewpoint

; 215  : 	}
; 216  : 	else

  00180	eb 22		 jmp	 SHORT $LN5@get_comanc
$LN4@get_comanc:

; 217  : 	{
; 218  : 		//
; 219  : 		// can happpen if the object is being destroyed
; 220  : 		//
; 221  : 
; 222  : 		memcpy (&vp->position, &inst3d->vp.position, sizeof (vec3d));

  00182	6a 0c		 push	 12			; 0000000cH
  00184	8b 45 f8	 mov	 eax, DWORD PTR _inst3d$[ebp]
  00187	83 c0 08	 add	 eax, 8
  0018a	50		 push	 eax
  0018b	8b 4d 08	 mov	 ecx, DWORD PTR _vp$[ebp]
  0018e	51		 push	 ecx
  0018f	e8 00 00 00 00	 call	 _memcpy
  00194	83 c4 0c	 add	 esp, 12			; 0000000cH

; 223  : 
; 224  : 		debug_log ("OBJECT_3D_SUB_OBJECT_COMANCHE_EO_CAMERA missing from Comanche");

  00197	68 00 00 00 00	 push	 OFFSET ??_C@_0DO@HPEPMGGP@OBJECT_3D_SUB_OBJECT_COMANCHE_E@
  0019c	e8 00 00 00 00	 call	 ?debug_log@@YAXPBDZZ	; debug_log
  001a1	83 c4 04	 add	 esp, 4
$LN5@get_comanc:

; 225  : 	}
; 226  : 
; 227  : 	memcpy (&vp->attitude, &inst3d->vp.attitude, sizeof (matrix3x3));

  001a4	6a 24		 push	 36			; 00000024H
  001a6	8b 45 f8	 mov	 eax, DWORD PTR _inst3d$[ebp]
  001a9	83 c0 14	 add	 eax, 20			; 00000014H
  001ac	50		 push	 eax
  001ad	8b 4d 08	 mov	 ecx, DWORD PTR _vp$[ebp]
  001b0	83 c1 0c	 add	 ecx, 12			; 0000000cH
  001b3	51		 push	 ecx
  001b4	e8 00 00 00 00	 call	 _memcpy
  001b9	83 c4 0c	 add	 esp, 12			; 0000000cH

; 228  : 
; 229  : 	//
; 230  : 	// fix up the instance position (just in case)
; 231  : 	//
; 232  : 
; 233  : 	get_local_entity_vec3d (source, VEC3D_TYPE_POSITION, &inst3d->vp.position);

  001bc	83 7d fc 00	 cmp	 DWORD PTR _source$[ebp], 0
  001c0	74 0d		 je	 SHORT $LN13@get_comanc
  001c2	8b 45 fc	 mov	 eax, DWORD PTR _source$[ebp]
  001c5	8b 08		 mov	 ecx, DWORD PTR [eax]
  001c7	89 8d 7c ff ff
	ff		 mov	 DWORD PTR tv169[ebp], ecx
  001cd	eb 24		 jmp	 SHORT $LN14@get_comanc
$LN13@get_comanc:
  001cf	8b 15 00 00 00
	00		 mov	 edx, DWORD PTR ?__LINE__Var@?0??get_comanche_eo_relative_centred_viewpoint@@YGXPAUVIEWPOINT@@@Z@4JA
  001d5	83 c2 31	 add	 edx, 49			; 00000031H
  001d8	52		 push	 edx
  001d9	68 00 00 00 00	 push	 OFFSET ??_C@_0EP@JLNGANPG@c?3?2users?2nhv90?2projects?2eech?2ap@
  001de	a1 00 00 00 00	 mov	 eax, DWORD PTR ?null_entity_pointer_message@@3PBDB ; null_entity_pointer_message
  001e3	50		 push	 eax
  001e4	e8 00 00 00 00	 call	 ?process_assert@@YGXPBD0H@Z ; process_assert
  001e9	c7 85 7c ff ff
	ff 00 00 00 00	 mov	 DWORD PTR tv169[ebp], 0
$LN14@get_comanc:
  001f3	b9 01 00 00 00	 mov	 ecx, 1
  001f8	85 c9		 test	 ecx, ecx
  001fa	74 0c		 je	 SHORT $LN15@get_comanc
  001fc	c7 85 78 ff ff
	ff 08 00 00 00	 mov	 DWORD PTR tv177[ebp], 8
  00206	eb 24		 jmp	 SHORT $LN16@get_comanc
$LN15@get_comanc:
  00208	8b 15 00 00 00
	00		 mov	 edx, DWORD PTR ?__LINE__Var@?0??get_comanche_eo_relative_centred_viewpoint@@YGXPAUVIEWPOINT@@@Z@4JA
  0020e	83 c2 31	 add	 edx, 49			; 00000031H
  00211	52		 push	 edx
  00212	68 00 00 00 00	 push	 OFFSET ??_C@_0EP@JLNGANPG@c?3?2users?2nhv90?2projects?2eech?2ap@
  00217	a1 00 00 00 00	 mov	 eax, DWORD PTR ?overload_invalid_vec3d_type_message@@3PBDB ; overload_invalid_vec3d_type_message
  0021c	50		 push	 eax
  0021d	e8 00 00 00 00	 call	 ?process_assert@@YGXPBD0H@Z ; process_assert
  00222	c7 85 78 ff ff
	ff 00 00 00 00	 mov	 DWORD PTR tv177[ebp], 0
$LN16@get_comanc:
  0022c	8b 4d f8	 mov	 ecx, DWORD PTR _inst3d$[ebp]
  0022f	83 c1 08	 add	 ecx, 8
  00232	51		 push	 ecx
  00233	6a 08		 push	 8
  00235	8b 55 fc	 mov	 edx, DWORD PTR _source$[ebp]
  00238	52		 push	 edx
  00239	6b 85 7c ff ff
	ff 60		 imul	 eax, DWORD PTR tv169[ebp], 96
  00240	8b 8d 78 ff ff
	ff		 mov	 ecx, DWORD PTR tv177[ebp]
  00246	8b 94 88 00 00
	00 00		 mov	 edx, DWORD PTR ?fn_get_local_entity_vec3d@@3PAY0BI@P6GXPAUENTITY@@W4VEC3D_TYPES@@PAUVEC3D@@@ZA[eax+ecx*4]
  0024d	ff d2		 call	 edx

; 234  : }

  0024f	5f		 pop	 edi
  00250	5e		 pop	 esi
  00251	5b		 pop	 ebx
  00252	8b e5		 mov	 esp, ebp
  00254	5d		 pop	 ebp
  00255	c2 04 00	 ret	 4
?get_comanche_eo_relative_centred_viewpoint@@YGXPAUVIEWPOINT@@@Z ENDP ; get_comanche_eo_relative_centred_viewpoint
_TEXT	ENDS
; Function compile flags: /Odtp /ZI
; File c:\users\nhv90\projects\eech\aphavoc\source\gunships\avionics\comanche\cm_eo.c
;	COMDAT ?get_comanche_eo_centred_viewpoint@@YGXPAUVIEWPOINT@@@Z
_TEXT	SEGMENT
tv140 = -136						; size = 4
tv83 = -136						; size = 4
tv154 = -132						; size = 4
tv132 = -132						; size = 4
tv75 = -132						; size = 4
_search$ = -64						; size = 56
_inst3d$ = -8						; size = 4
_source$ = -4						; size = 4
_vp$ = 8						; size = 4
?get_comanche_eo_centred_viewpoint@@YGXPAUVIEWPOINT@@@Z PROC ; get_comanche_eo_centred_viewpoint, COMDAT

; 135  : {

  00000	55		 push	 ebp
  00001	8b ec		 mov	 ebp, esp
  00003	81 ec 88 00 00
	00		 sub	 esp, 136		; 00000088H
  00009	53		 push	 ebx
  0000a	56		 push	 esi
  0000b	57		 push	 edi

; 136  : 	entity
; 137  : 		*source;
; 138  : 
; 139  : 	object_3d_instance
; 140  : 		*inst3d;
; 141  : 
; 142  : 	object_3d_sub_object_search_data
; 143  : 		search;
; 144  : 
; 145  : 	ASSERT (vp);

  0000c	83 7d 08 00	 cmp	 DWORD PTR _vp$[ebp], 0
  00010	75 18		 jne	 SHORT $LN2@get_comanc
  00012	a1 00 00 00 00	 mov	 eax, DWORD PTR ?__LINE__Var@?0??get_comanche_eo_centred_viewpoint@@YGXPAUVIEWPOINT@@@Z@4JA
  00017	83 c0 0a	 add	 eax, 10			; 0000000aH
  0001a	50		 push	 eax
  0001b	68 00 00 00 00	 push	 OFFSET ??_C@_0EP@JLNGANPG@c?3?2users?2nhv90?2projects?2eech?2ap@
  00020	68 00 00 00 00	 push	 OFFSET ??_C@_02HPPNELPJ@vp@
  00025	e8 00 00 00 00	 call	 ?process_assert@@YGXPBD0H@Z ; process_assert
$LN2@get_comanc:

; 146  : 
; 147  : 	source = get_gunship_entity ();

  0002a	a1 00 00 00 00	 mov	 eax, DWORD PTR ?gunship_entity@@3PAUENTITY@@A ; gunship_entity
  0002f	89 45 fc	 mov	 DWORD PTR _source$[ebp], eax

; 148  : 
; 149  : 	inst3d = (object_3d_instance *) get_local_entity_ptr_value (source, PTR_TYPE_INSTANCE_3D_OBJECT);

  00032	83 7d fc 00	 cmp	 DWORD PTR _source$[ebp], 0
  00036	74 0d		 je	 SHORT $LN7@get_comanc
  00038	8b 45 fc	 mov	 eax, DWORD PTR _source$[ebp]
  0003b	8b 08		 mov	 ecx, DWORD PTR [eax]
  0003d	89 8d 7c ff ff
	ff		 mov	 DWORD PTR tv75[ebp], ecx
  00043	eb 24		 jmp	 SHORT $LN8@get_comanc
$LN7@get_comanc:
  00045	8b 15 00 00 00
	00		 mov	 edx, DWORD PTR ?__LINE__Var@?0??get_comanche_eo_centred_viewpoint@@YGXPAUVIEWPOINT@@@Z@4JA
  0004b	83 c2 0e	 add	 edx, 14			; 0000000eH
  0004e	52		 push	 edx
  0004f	68 00 00 00 00	 push	 OFFSET ??_C@_0EP@JLNGANPG@c?3?2users?2nhv90?2projects?2eech?2ap@
  00054	a1 00 00 00 00	 mov	 eax, DWORD PTR ?null_entity_pointer_message@@3PBDB ; null_entity_pointer_message
  00059	50		 push	 eax
  0005a	e8 00 00 00 00	 call	 ?process_assert@@YGXPBD0H@Z ; process_assert
  0005f	c7 85 7c ff ff
	ff 00 00 00 00	 mov	 DWORD PTR tv75[ebp], 0
$LN8@get_comanc:
  00069	b9 01 00 00 00	 mov	 ecx, 1
  0006e	85 c9		 test	 ecx, ecx
  00070	74 0c		 je	 SHORT $LN9@get_comanc
  00072	c7 85 78 ff ff
	ff 02 00 00 00	 mov	 DWORD PTR tv83[ebp], 2
  0007c	eb 24		 jmp	 SHORT $LN10@get_comanc
$LN9@get_comanc:
  0007e	8b 15 00 00 00
	00		 mov	 edx, DWORD PTR ?__LINE__Var@?0??get_comanche_eo_centred_viewpoint@@YGXPAUVIEWPOINT@@@Z@4JA
  00084	83 c2 0e	 add	 edx, 14			; 0000000eH
  00087	52		 push	 edx
  00088	68 00 00 00 00	 push	 OFFSET ??_C@_0EP@JLNGANPG@c?3?2users?2nhv90?2projects?2eech?2ap@
  0008d	a1 00 00 00 00	 mov	 eax, DWORD PTR ?overload_invalid_ptr_type_message@@3PBDB ; overload_invalid_ptr_type_message
  00092	50		 push	 eax
  00093	e8 00 00 00 00	 call	 ?process_assert@@YGXPBD0H@Z ; process_assert
  00098	c7 85 78 ff ff
	ff 00 00 00 00	 mov	 DWORD PTR tv83[ebp], 0
$LN10@get_comanc:
  000a2	6a 02		 push	 2
  000a4	8b 4d fc	 mov	 ecx, DWORD PTR _source$[ebp]
  000a7	51		 push	 ecx
  000a8	6b 95 7c ff ff
	ff 50		 imul	 edx, DWORD PTR tv75[ebp], 80
  000af	8b 85 78 ff ff
	ff		 mov	 eax, DWORD PTR tv83[ebp]
  000b5	8b 8c 82 00 00
	00 00		 mov	 ecx, DWORD PTR ?fn_get_local_entity_ptr_value@@3PAY0BE@P6GPAXPAUENTITY@@W4PTR_TYPES@@@ZA[edx+eax*4]
  000bc	ff d1		 call	 ecx
  000be	89 45 f8	 mov	 DWORD PTR _inst3d$[ebp], eax

; 150  : 
; 151  : 	ASSERT (inst3d);

  000c1	83 7d f8 00	 cmp	 DWORD PTR _inst3d$[ebp], 0
  000c5	75 18		 jne	 SHORT $LN3@get_comanc
  000c7	a1 00 00 00 00	 mov	 eax, DWORD PTR ?__LINE__Var@?0??get_comanche_eo_centred_viewpoint@@YGXPAUVIEWPOINT@@@Z@4JA
  000cc	83 c0 10	 add	 eax, 16			; 00000010H
  000cf	50		 push	 eax
  000d0	68 00 00 00 00	 push	 OFFSET ??_C@_0EP@JLNGANPG@c?3?2users?2nhv90?2projects?2eech?2ap@
  000d5	68 00 00 00 00	 push	 OFFSET ??_C@_06DDNABPCD@inst3d@
  000da	e8 00 00 00 00	 call	 ?process_assert@@YGXPBD0H@Z ; process_assert
$LN3@get_comanc:

; 152  : 
; 153  : 	get_local_entity_vec3d (source, VEC3D_TYPE_POSITION, &inst3d->vp.position);

  000df	83 7d fc 00	 cmp	 DWORD PTR _source$[ebp], 0
  000e3	74 0d		 je	 SHORT $LN11@get_comanc
  000e5	8b 45 fc	 mov	 eax, DWORD PTR _source$[ebp]
  000e8	8b 08		 mov	 ecx, DWORD PTR [eax]
  000ea	89 8d 7c ff ff
	ff		 mov	 DWORD PTR tv132[ebp], ecx
  000f0	eb 24		 jmp	 SHORT $LN12@get_comanc
$LN11@get_comanc:
  000f2	8b 15 00 00 00
	00		 mov	 edx, DWORD PTR ?__LINE__Var@?0??get_comanche_eo_centred_viewpoint@@YGXPAUVIEWPOINT@@@Z@4JA
  000f8	83 c2 12	 add	 edx, 18			; 00000012H
  000fb	52		 push	 edx
  000fc	68 00 00 00 00	 push	 OFFSET ??_C@_0EP@JLNGANPG@c?3?2users?2nhv90?2projects?2eech?2ap@
  00101	a1 00 00 00 00	 mov	 eax, DWORD PTR ?null_entity_pointer_message@@3PBDB ; null_entity_pointer_message
  00106	50		 push	 eax
  00107	e8 00 00 00 00	 call	 ?process_assert@@YGXPBD0H@Z ; process_assert
  0010c	c7 85 7c ff ff
	ff 00 00 00 00	 mov	 DWORD PTR tv132[ebp], 0
$LN12@get_comanc:
  00116	b9 01 00 00 00	 mov	 ecx, 1
  0011b	85 c9		 test	 ecx, ecx
  0011d	74 0c		 je	 SHORT $LN13@get_comanc
  0011f	c7 85 78 ff ff
	ff 08 00 00 00	 mov	 DWORD PTR tv140[ebp], 8
  00129	eb 24		 jmp	 SHORT $LN14@get_comanc
$LN13@get_comanc:
  0012b	8b 15 00 00 00
	00		 mov	 edx, DWORD PTR ?__LINE__Var@?0??get_comanche_eo_centred_viewpoint@@YGXPAUVIEWPOINT@@@Z@4JA
  00131	83 c2 12	 add	 edx, 18			; 00000012H
  00134	52		 push	 edx
  00135	68 00 00 00 00	 push	 OFFSET ??_C@_0EP@JLNGANPG@c?3?2users?2nhv90?2projects?2eech?2ap@
  0013a	a1 00 00 00 00	 mov	 eax, DWORD PTR ?overload_invalid_vec3d_type_message@@3PBDB ; overload_invalid_vec3d_type_message
  0013f	50		 push	 eax
  00140	e8 00 00 00 00	 call	 ?process_assert@@YGXPBD0H@Z ; process_assert
  00145	c7 85 78 ff ff
	ff 00 00 00 00	 mov	 DWORD PTR tv140[ebp], 0
$LN14@get_comanc:
  0014f	8b 4d f8	 mov	 ecx, DWORD PTR _inst3d$[ebp]
  00152	83 c1 08	 add	 ecx, 8
  00155	51		 push	 ecx
  00156	6a 08		 push	 8
  00158	8b 55 fc	 mov	 edx, DWORD PTR _source$[ebp]
  0015b	52		 push	 edx
  0015c	6b 85 7c ff ff
	ff 60		 imul	 eax, DWORD PTR tv132[ebp], 96
  00163	8b 8d 78 ff ff
	ff		 mov	 ecx, DWORD PTR tv140[ebp]
  00169	8b 94 88 00 00
	00 00		 mov	 edx, DWORD PTR ?fn_get_local_entity_vec3d@@3PAY0BI@P6GXPAUENTITY@@W4VEC3D_TYPES@@PAUVEC3D@@@ZA[eax+ecx*4]
  00170	ff d2		 call	 edx

; 154  : 
; 155  : 	get_local_entity_attitude_matrix (source, inst3d->vp.attitude);

  00172	83 7d fc 00	 cmp	 DWORD PTR _source$[ebp], 0
  00176	74 0d		 je	 SHORT $LN15@get_comanc
  00178	8b 45 fc	 mov	 eax, DWORD PTR _source$[ebp]
  0017b	8b 08		 mov	 ecx, DWORD PTR [eax]
  0017d	89 8d 7c ff ff
	ff		 mov	 DWORD PTR tv154[ebp], ecx
  00183	eb 24		 jmp	 SHORT $LN16@get_comanc
$LN15@get_comanc:
  00185	8b 15 00 00 00
	00		 mov	 edx, DWORD PTR ?__LINE__Var@?0??get_comanche_eo_centred_viewpoint@@YGXPAUVIEWPOINT@@@Z@4JA
  0018b	83 c2 14	 add	 edx, 20			; 00000014H
  0018e	52		 push	 edx
  0018f	68 00 00 00 00	 push	 OFFSET ??_C@_0EP@JLNGANPG@c?3?2users?2nhv90?2projects?2eech?2ap@
  00194	a1 00 00 00 00	 mov	 eax, DWORD PTR ?null_entity_pointer_message@@3PBDB ; null_entity_pointer_message
  00199	50		 push	 eax
  0019a	e8 00 00 00 00	 call	 ?process_assert@@YGXPBD0H@Z ; process_assert
  0019f	c7 85 7c ff ff
	ff 00 00 00 00	 mov	 DWORD PTR tv154[ebp], 0
$LN16@get_comanc:
  001a9	8b 4d f8	 mov	 ecx, DWORD PTR _inst3d$[ebp]
  001ac	83 c1 14	 add	 ecx, 20			; 00000014H
  001af	51		 push	 ecx
  001b0	8b 55 fc	 mov	 edx, DWORD PTR _source$[ebp]
  001b3	52		 push	 edx
  001b4	8b 85 7c ff ff
	ff		 mov	 eax, DWORD PTR tv154[ebp]
  001ba	8b 0c 85 00 00
	00 00		 mov	 ecx, DWORD PTR ?fn_get_local_entity_attitude_matrix@@3PAP6GXPAUENTITY@@QAY02M@ZA[eax*4]
  001c1	ff d1		 call	 ecx

; 156  : 
; 157  : 	search.search_depth = 0;

  001c3	c7 45 c8 00 00
	00 00		 mov	 DWORD PTR _search$[ebp+8], 0

; 158  : 	search.search_object = inst3d;

  001ca	8b 45 f8	 mov	 eax, DWORD PTR _inst3d$[ebp]
  001cd	89 45 c0	 mov	 DWORD PTR _search$[ebp], eax

; 159  : 	search.sub_object_index = OBJECT_3D_SUB_OBJECT_COMANCHE_EO_CAMERA;

  001d0	c7 45 cc f5 00
	00 00		 mov	 DWORD PTR _search$[ebp+12], 245 ; 000000f5H

; 160  : 
; 161  : 	if (find_object_3d_sub_object (&search) == SUB_OBJECT_SEARCH_RESULT_OBJECT_FOUND)

  001d7	8d 45 c0	 lea	 eax, DWORD PTR _search$[ebp]
  001da	50		 push	 eax
  001db	e8 00 00 00 00	 call	 ?find_object_3d_sub_object@@YG?AW4SUB_OBJECT_SEARCH_RESULT_TYPES@@PAUOBJECT_3D_SUB_OBJECT_SEARCH_DATA@@@Z ; find_object_3d_sub_object
  001e0	83 f8 01	 cmp	 eax, 1
  001e3	75 0f		 jne	 SHORT $LN4@get_comanc

; 162  : 	{
; 163  : 		get_3d_sub_object_world_viewpoint (search.result_sub_object, vp);

  001e5	8b 45 08	 mov	 eax, DWORD PTR _vp$[ebp]
  001e8	50		 push	 eax
  001e9	8b 4d c4	 mov	 ecx, DWORD PTR _search$[ebp+4]
  001ec	51		 push	 ecx
  001ed	e8 00 00 00 00	 call	 ?get_3d_sub_object_world_viewpoint@@YGXPAUOBJECT_3D_SUB_INSTANCE@@PAUVIEWPOINT@@@Z ; get_3d_sub_object_world_viewpoint

; 164  : 	}
; 165  : 	else

  001f2	eb 22		 jmp	 SHORT $LN5@get_comanc
$LN4@get_comanc:

; 166  : 	{
; 167  : 		//
; 168  : 		// can happpen if the object is being destroyed
; 169  : 		//
; 170  : 
; 171  : 		memcpy (&vp->position, &inst3d->vp.position, sizeof (vec3d));

  001f4	6a 0c		 push	 12			; 0000000cH
  001f6	8b 45 f8	 mov	 eax, DWORD PTR _inst3d$[ebp]
  001f9	83 c0 08	 add	 eax, 8
  001fc	50		 push	 eax
  001fd	8b 4d 08	 mov	 ecx, DWORD PTR _vp$[ebp]
  00200	51		 push	 ecx
  00201	e8 00 00 00 00	 call	 _memcpy
  00206	83 c4 0c	 add	 esp, 12			; 0000000cH

; 172  : 
; 173  : 		debug_log ("OBJECT_3D_SUB_OBJECT_COMANCHE_EO_CAMERA missing from Comanche");

  00209	68 00 00 00 00	 push	 OFFSET ??_C@_0DO@HPEPMGGP@OBJECT_3D_SUB_OBJECT_COMANCHE_E@
  0020e	e8 00 00 00 00	 call	 ?debug_log@@YAXPBDZZ	; debug_log
  00213	83 c4 04	 add	 esp, 4
$LN5@get_comanc:

; 174  : 	}
; 175  : 
; 176  : 	memcpy (&vp->attitude, &inst3d->vp.attitude, sizeof (matrix3x3));

  00216	6a 24		 push	 36			; 00000024H
  00218	8b 45 f8	 mov	 eax, DWORD PTR _inst3d$[ebp]
  0021b	83 c0 14	 add	 eax, 20			; 00000014H
  0021e	50		 push	 eax
  0021f	8b 4d 08	 mov	 ecx, DWORD PTR _vp$[ebp]
  00222	83 c1 0c	 add	 ecx, 12			; 0000000cH
  00225	51		 push	 ecx
  00226	e8 00 00 00 00	 call	 _memcpy
  0022b	83 c4 0c	 add	 esp, 12			; 0000000cH

; 177  : }

  0022e	5f		 pop	 edi
  0022f	5e		 pop	 esi
  00230	5b		 pop	 ebx
  00231	8b e5		 mov	 esp, ebp
  00233	5d		 pop	 ebp
  00234	c2 04 00	 ret	 4
?get_comanche_eo_centred_viewpoint@@YGXPAUVIEWPOINT@@@Z ENDP ; get_comanche_eo_centred_viewpoint
_TEXT	ENDS
; Function compile flags: /Odtp /ZI
; File c:\users\nhv90\projects\eech\aphavoc\source\gunships\avionics\comanche\cm_eo.c
;	COMDAT ?deinitialise_comanche_eo@@YGXXZ
_TEXT	SEGMENT
?deinitialise_comanche_eo@@YGXXZ PROC			; deinitialise_comanche_eo, COMDAT

; 127  : {

  00000	55		 push	 ebp
  00001	8b ec		 mov	 ebp, esp
  00003	83 ec 40	 sub	 esp, 64			; 00000040H
  00006	53		 push	 ebx
  00007	56		 push	 esi
  00008	57		 push	 edi

; 128  : }

  00009	5f		 pop	 edi
  0000a	5e		 pop	 esi
  0000b	5b		 pop	 ebx
  0000c	8b e5		 mov	 esp, ebp
  0000e	5d		 pop	 ebp
  0000f	c3		 ret	 0
?deinitialise_comanche_eo@@YGXXZ ENDP			; deinitialise_comanche_eo
_TEXT	ENDS
; Function compile flags: /Odtp /ZI
; File c:\users\nhv90\projects\eech\aphavoc\source\gunships\avionics\comanche\cm_eo.c
;	COMDAT ?initialise_comanche_eo@@YGXXZ
_TEXT	SEGMENT
?initialise_comanche_eo@@YGXXZ PROC			; initialise_comanche_eo, COMDAT

; 83   : {

  00000	55		 push	 ebp
  00001	8b ec		 mov	 ebp, esp
  00003	83 ec 40	 sub	 esp, 64			; 00000040H
  00006	53		 push	 ebx
  00007	56		 push	 esi
  00008	57		 push	 edi

; 84   : 	eo_sensor								= TARGET_ACQUISITION_SYSTEM_FLIR;

  00009	c7 05 00 00 00
	00 03 00 00 00	 mov	 DWORD PTR ?eo_sensor@@3W4TARGET_ACQUISITION_SYSTEMS@@A, 3 ; eo_sensor

; 85   : 
; 86   : 	eo_azimuth								= rad (0.0);

  00013	0f 57 c0	 xorps	 xmm0, xmm0
  00016	f3 0f 11 05 00
	00 00 00	 movss	 DWORD PTR ?eo_azimuth@@3MA, xmm0

; 87   : 	eo_min_azimuth							= rad (-120.0);

  0001e	f3 0f 10 05 00
	00 00 00	 movss	 xmm0, DWORD PTR __real@c0060a92
  00026	f3 0f 11 05 00
	00 00 00	 movss	 DWORD PTR ?eo_min_azimuth@@3MA, xmm0

; 88   : 	eo_max_azimuth							= rad (120.0);

  0002e	f3 0f 10 05 00
	00 00 00	 movss	 xmm0, DWORD PTR __real@40060a92
  00036	f3 0f 11 05 00
	00 00 00	 movss	 DWORD PTR ?eo_max_azimuth@@3MA, xmm0

; 89   : 	eo_elevation							= rad (0.0);

  0003e	0f 57 c0	 xorps	 xmm0, xmm0
  00041	f3 0f 11 05 00
	00 00 00	 movss	 DWORD PTR ?eo_elevation@@3MA, xmm0

; 90   : 	eo_min_elevation						= rad (-60.0);

  00049	f3 0f 10 05 00
	00 00 00	 movss	 xmm0, DWORD PTR __real@bf860a92
  00051	f3 0f 11 05 00
	00 00 00	 movss	 DWORD PTR ?eo_min_elevation@@3MA, xmm0

; 91   : 	eo_max_elevation						= rad (30.0);

  00059	f3 0f 10 05 00
	00 00 00	 movss	 xmm0, DWORD PTR __real@3f060a92
  00061	f3 0f 11 05 00
	00 00 00	 movss	 DWORD PTR ?eo_max_elevation@@3MA, xmm0

; 92   : 	eo_max_visual_range					= 5000.0;

  00069	f3 0f 10 05 00
	00 00 00	 movss	 xmm0, DWORD PTR __real@459c4000
  00071	f3 0f 11 05 00
	00 00 00	 movss	 DWORD PTR ?eo_max_visual_range@@3MA, xmm0

; 93   : 	eo_ground_stabilised					= 0;

  00079	c7 05 00 00 00
	00 00 00 00 00	 mov	 DWORD PTR ?eo_ground_stabilised@@3HA, 0 ; eo_ground_stabilised

; 94   : 
; 95   : #ifdef OLD_EO
; 96   : 	comanche_flir.field_of_view		= EO_FOV_WIDE;
; 97   : 	comanche_flir.min_field_of_view	= EO_FOV_NARROW;
; 98   : 	comanche_flir.max_field_of_view	= EO_FOV_WIDE;
; 99   : 
; 100  : 	comanche_dtv.field_of_view			= EO_FOV_NARROW; // Jabberwock 031002 EO_FOV_WIDE; to zoom (out) DTV
; 101  : 	comanche_dtv.min_field_of_view	= EO_FOV_NARROW;
; 102  : 	comanche_dtv.max_field_of_view	= EO_FOV_NARROW; // Jabberwock 031002 EO_FOV_WIDE; to zoom (out) DTV
; 103  : 
; 104  : 	comanche_dvo.field_of_view			= EO_FOV_MEDIUM;
; 105  : 	comanche_dvo.min_field_of_view	= EO_FOV_NARROW;
; 106  : 	comanche_dvo.max_field_of_view	= EO_FOV_MEDIUM;
; 107  : #else
; 108  : 	comanche_flir.zoom					= 1.0;

  00083	f3 0f 10 05 00
	00 00 00	 movss	 xmm0, DWORD PTR __real@3f800000
  0008b	f3 0f 11 05 00
	00 00 00	 movss	 DWORD PTR ?comanche_flir@@3UEO_PARAMS_DYNAMIC_MOVE@@A, xmm0

; 109  : 	comanche_flir.min_zoom				= 1.0;

  00093	f3 0f 10 05 00
	00 00 00	 movss	 xmm0, DWORD PTR __real@3f800000
  0009b	f3 0f 11 05 04
	00 00 00	 movss	 DWORD PTR ?comanche_flir@@3UEO_PARAMS_DYNAMIC_MOVE@@A+4, xmm0

; 110  : 	comanche_flir.max_zoom				= 1.0 / 128.0;

  000a3	f3 0f 10 05 00
	00 00 00	 movss	 xmm0, DWORD PTR __real@3c000000
  000ab	f3 0f 11 05 08
	00 00 00	 movss	 DWORD PTR ?comanche_flir@@3UEO_PARAMS_DYNAMIC_MOVE@@A+8, xmm0

; 111  : 
; 112  : 	comanche_dtv.zoom						= 1.0 / 2.0;

  000b3	f3 0f 10 05 00
	00 00 00	 movss	 xmm0, DWORD PTR __real@3f000000
  000bb	f3 0f 11 05 00
	00 00 00	 movss	 DWORD PTR ?comanche_dtv@@3UEO_PARAMS_DYNAMIC_MOVE@@A, xmm0

; 113  : 	comanche_dtv.min_zoom				= 1.0 / 2.0; // Jabberwock 031002 1.0 to zoom (out) DTV

  000c3	f3 0f 10 05 00
	00 00 00	 movss	 xmm0, DWORD PTR __real@3f000000
  000cb	f3 0f 11 05 04
	00 00 00	 movss	 DWORD PTR ?comanche_dtv@@3UEO_PARAMS_DYNAMIC_MOVE@@A+4, xmm0

; 114  : 	comanche_dtv.max_zoom				= 1.0 / 128.0;

  000d3	f3 0f 10 05 00
	00 00 00	 movss	 xmm0, DWORD PTR __real@3c000000
  000db	f3 0f 11 05 08
	00 00 00	 movss	 DWORD PTR ?comanche_dtv@@3UEO_PARAMS_DYNAMIC_MOVE@@A+8, xmm0

; 115  : 
; 116  : 	comanche_dvo.zoom						= 1.0 / 8.0;

  000e3	f3 0f 10 05 00
	00 00 00	 movss	 xmm0, DWORD PTR __real@3e000000
  000eb	f3 0f 11 05 00
	00 00 00	 movss	 DWORD PTR ?comanche_dvo@@3UEO_PARAMS_DYNAMIC_MOVE@@A, xmm0

; 117  : 	comanche_dvo.min_zoom				= 1.0 / 8.0;

  000f3	f3 0f 10 05 00
	00 00 00	 movss	 xmm0, DWORD PTR __real@3e000000
  000fb	f3 0f 11 05 04
	00 00 00	 movss	 DWORD PTR ?comanche_dvo@@3UEO_PARAMS_DYNAMIC_MOVE@@A+4, xmm0

; 118  : 	comanche_dvo.max_zoom				= 1.0 / 128.0;

  00103	f3 0f 10 05 00
	00 00 00	 movss	 xmm0, DWORD PTR __real@3c000000
  0010b	f3 0f 11 05 08
	00 00 00	 movss	 DWORD PTR ?comanche_dvo@@3UEO_PARAMS_DYNAMIC_MOVE@@A+8, xmm0

; 119  : #endif
; 120  : };

  00113	5f		 pop	 edi
  00114	5e		 pop	 esi
  00115	5b		 pop	 ebx
  00116	8b e5		 mov	 esp, ebp
  00118	5d		 pop	 ebp
  00119	c3		 ret	 0
?initialise_comanche_eo@@YGXXZ ENDP			; initialise_comanche_eo
_TEXT	ENDS
END
