; Listing generated by Microsoft (R) Optimizing Compiler Version 19.16.27045.0 

	TITLE	C:\Users\nhv90\Projects\eech\aphavoc\source\entity\special\camera\cm_int.c
	.686P
	.XMM
	include listing.inc
	.model	flat

INCLUDELIB MSVCRTD
INCLUDELIB OLDNAMES

PUBLIC	?overload_camera_int_value_functions@@YGXXZ	; overload_camera_int_value_functions
PUBLIC	?__LINE__Var@?0??set_local_int_value@@YGXPAUENTITY@@W4INT_TYPES@@H@Z@4JA ; `set_local_int_value'::`1'::__LINE__Var
PUBLIC	??_C@_0EL@OFADJIPI@c?3?2users?2nhv90?2projects?2eech?2ap@ ; `string'
PUBLIC	?__LINE__Var@?0??get_local_int_value@@YGHPAUENTITY@@W4INT_TYPES@@@Z@4JA ; `get_local_int_value'::`1'::__LINE__Var
EXTRN	?process_assert@@YGXPBD0H@Z:PROC		; process_assert
EXTRN	?debug_fatal@@YAXPBDZZ:PROC			; debug_fatal
EXTRN	?null_entity_pointer_message@@3PBDB:DWORD	; null_entity_pointer_message
EXTRN	?entity_type_database@@3PAUENTITY_TYPE_DATA@@A:BYTE ; entity_type_database
EXTRN	?int_type_database@@3PAUINT_TYPE_DATA@@A:BYTE	; int_type_database
EXTRN	?debug_fatal_invalid_int_type_message@@3PBDB:DWORD ; debug_fatal_invalid_int_type_message
EXTRN	?fn_set_local_entity_raw_int_value@@3PAY0BBH@P6GXPAUENTITY@@W4INT_TYPES@@H@ZA:BYTE ; fn_set_local_entity_raw_int_value
EXTRN	?fn_set_local_entity_int_value@@3PAY0BBH@P6GXPAUENTITY@@W4INT_TYPES@@H@ZA:BYTE ; fn_set_local_entity_int_value
EXTRN	?fn_get_local_entity_int_value@@3PAY0BBH@P6GHPAUENTITY@@W4INT_TYPES@@@ZA:BYTE ; fn_get_local_entity_int_value
EXTRN	?entities@@3PAUENTITY@@A:DWORD			; entities
;	COMDAT ?__LINE__Var@?0??get_local_int_value@@YGHPAUENTITY@@W4INT_TYPES@@@Z@4JA
_DATA	SEGMENT
?__LINE__Var@?0??get_local_int_value@@YGHPAUENTITY@@W4INT_TYPES@@@Z@4JA DD 0c2H ; `get_local_int_value'::`1'::__LINE__Var
_DATA	ENDS
;	COMDAT ??_C@_0EL@OFADJIPI@c?3?2users?2nhv90?2projects?2eech?2ap@
CONST	SEGMENT
??_C@_0EL@OFADJIPI@c?3?2users?2nhv90?2projects?2eech?2ap@ DB 'c:\users\nh'
	DB	'v90\projects\eech\aphavoc\source\entity\special\camera\cm_int'
	DB	'.c', 00H					; `string'
CONST	ENDS
;	COMDAT ?__LINE__Var@?0??set_local_int_value@@YGXPAUENTITY@@W4INT_TYPES@@H@Z@4JA
_DATA	SEGMENT
?__LINE__Var@?0??set_local_int_value@@YGXPAUENTITY@@W4INT_TYPES@@H@Z@4JA DD 05aH ; `set_local_int_value'::`1'::__LINE__Var
_DATA	ENDS
; Function compile flags: /Odtp /ZI
; File c:\users\nhv90\projects\eech\aphavoc\source\entity\special\camera\cm_int.c
;	COMDAT ?get_local_int_value@@YGHPAUENTITY@@W4INT_TYPES@@@Z
_TEXT	SEGMENT
tv84 = -76						; size = 4
tv65 = -76						; size = 4
_value$ = -8						; size = 4
_raw$ = -4						; size = 4
_en$ = 8						; size = 4
_type$ = 12						; size = 4
?get_local_int_value@@YGHPAUENTITY@@W4INT_TYPES@@@Z PROC ; get_local_int_value, COMDAT

; 194  : {

  00000	55		 push	 ebp
  00001	8b ec		 mov	 ebp, esp
  00003	83 ec 4c	 sub	 esp, 76			; 0000004cH
  00006	53		 push	 ebx
  00007	56		 push	 esi
  00008	57		 push	 edi

; 195  : 	camera
; 196  : 		*raw;
; 197  : 
; 198  : 	int
; 199  : 		value;
; 200  : 
; 201  : 	raw = (camera *) get_local_entity_data (en);

  00009	8b 45 08	 mov	 eax, DWORD PTR _en$[ebp]
  0000c	8b 48 04	 mov	 ecx, DWORD PTR [eax+4]
  0000f	89 4d fc	 mov	 DWORD PTR _raw$[ebp], ecx

; 202  : 
; 203  : 	switch (type)

  00012	8b 45 0c	 mov	 eax, DWORD PTR _type$[ebp]
  00015	89 45 b4	 mov	 DWORD PTR tv65[ebp], eax
  00018	83 7d b4 10	 cmp	 DWORD PTR tv65[ebp], 16	; 00000010H
  0001c	74 0b		 je	 SHORT $LN4@get_local_
  0001e	81 7d b4 04 01
	00 00		 cmp	 DWORD PTR tv65[ebp], 260 ; 00000104H
  00025	74 10		 je	 SHORT $LN5@get_local_
  00027	eb 1c		 jmp	 SHORT $LN6@get_local_
$LN4@get_local_:

; 204  : 	{
; 205  : 		////////////////////////////////////////
; 206  : 		case INT_TYPE_CAMERA_MODE:
; 207  : 		////////////////////////////////////////
; 208  : 		{
; 209  : 			value = raw->camera_mode;

  00029	8b 45 fc	 mov	 eax, DWORD PTR _raw$[ebp]
  0002c	8b 48 3c	 mov	 ecx, DWORD PTR [eax+60]
  0002f	89 4d f8	 mov	 DWORD PTR _value$[ebp], ecx

; 210  : 
; 211  : 			break;

  00032	e9 80 00 00 00	 jmp	 $LN2@get_local_
$LN5@get_local_:

; 212  : 		}
; 213  : 		////////////////////////////////////////
; 214  : 		case INT_TYPE_WEAPON_CAMERA_PRIMED:
; 215  : 		////////////////////////////////////////
; 216  : 		{
; 217  : 			value = raw->weapon_camera_primed;

  00037	8b 45 fc	 mov	 eax, DWORD PTR _raw$[ebp]
  0003a	8b 88 dc 00 00
	00		 mov	 ecx, DWORD PTR [eax+220]
  00040	89 4d f8	 mov	 DWORD PTR _value$[ebp], ecx

; 218  : 
; 219  : 			break;

  00043	eb 72		 jmp	 SHORT $LN2@get_local_
$LN6@get_local_:

; 220  : 		}
; 221  : 		////////////////////////////////////////
; 222  : 		default:
; 223  : 		////////////////////////////////////////
; 224  : 		{
; 225  : 			debug_fatal_invalid_int_type (en, type);

  00045	83 7d 08 00	 cmp	 DWORD PTR _en$[ebp], 0
  00049	74 0a		 je	 SHORT $LN8@get_local_
  0004b	8b 45 08	 mov	 eax, DWORD PTR _en$[ebp]
  0004e	8b 08		 mov	 ecx, DWORD PTR [eax]
  00050	89 4d b4	 mov	 DWORD PTR tv84[ebp], ecx
  00053	eb 21		 jmp	 SHORT $LN9@get_local_
$LN8@get_local_:
  00055	8b 15 00 00 00
	00		 mov	 edx, DWORD PTR ?__LINE__Var@?0??get_local_int_value@@YGHPAUENTITY@@W4INT_TYPES@@@Z@4JA
  0005b	83 c2 1f	 add	 edx, 31			; 0000001fH
  0005e	52		 push	 edx
  0005f	68 00 00 00 00	 push	 OFFSET ??_C@_0EL@OFADJIPI@c?3?2users?2nhv90?2projects?2eech?2ap@
  00064	a1 00 00 00 00	 mov	 eax, DWORD PTR ?null_entity_pointer_message@@3PBDB ; null_entity_pointer_message
  00069	50		 push	 eax
  0006a	e8 00 00 00 00	 call	 ?process_assert@@YGXPBD0H@Z ; process_assert
  0006f	c7 45 b4 00 00
	00 00		 mov	 DWORD PTR tv84[ebp], 0
$LN9@get_local_:
  00076	8b 0d 00 00 00
	00		 mov	 ecx, DWORD PTR ?__LINE__Var@?0??get_local_int_value@@YGHPAUENTITY@@W4INT_TYPES@@@Z@4JA
  0007c	83 c1 1f	 add	 ecx, 31			; 0000001fH
  0007f	51		 push	 ecx
  00080	68 00 00 00 00	 push	 OFFSET ??_C@_0EL@OFADJIPI@c?3?2users?2nhv90?2projects?2eech?2ap@
  00085	6b 55 0c 14	 imul	 edx, DWORD PTR _type$[ebp], 20
  00089	8b 82 00 00 00
	00		 mov	 eax, DWORD PTR ?int_type_database@@3PAUINT_TYPE_DATA@@A[edx]
  0008f	50		 push	 eax
  00090	8b 4d 08	 mov	 ecx, DWORD PTR _en$[ebp]
  00093	2b 0d 00 00 00
	00		 sub	 ecx, DWORD PTR ?entities@@3PAUENTITY@@A ; entities
  00099	c1 f9 04	 sar	 ecx, 4
  0009c	51		 push	 ecx
  0009d	6b 55 b4 0c	 imul	 edx, DWORD PTR tv84[ebp], 12
  000a1	8b 82 00 00 00
	00		 mov	 eax, DWORD PTR ?entity_type_database@@3PAUENTITY_TYPE_DATA@@A[edx]
  000a7	50		 push	 eax
  000a8	8b 0d 00 00 00
	00		 mov	 ecx, DWORD PTR ?debug_fatal_invalid_int_type_message@@3PBDB ; debug_fatal_invalid_int_type_message
  000ae	51		 push	 ecx
  000af	e8 00 00 00 00	 call	 ?debug_fatal@@YAXPBDZZ	; debug_fatal
  000b4	83 c4 18	 add	 esp, 24			; 00000018H
$LN2@get_local_:

; 226  : 
; 227  : 			break;
; 228  : 		}
; 229  : 	}
; 230  : 
; 231  : 	return (value);

  000b7	8b 45 f8	 mov	 eax, DWORD PTR _value$[ebp]

; 232  : }

  000ba	5f		 pop	 edi
  000bb	5e		 pop	 esi
  000bc	5b		 pop	 ebx
  000bd	8b e5		 mov	 esp, ebp
  000bf	5d		 pop	 ebp
  000c0	c2 08 00	 ret	 8
?get_local_int_value@@YGHPAUENTITY@@W4INT_TYPES@@@Z ENDP ; get_local_int_value
_TEXT	ENDS
; Function compile flags: /Odtp /ZI
; File c:\users\nhv90\projects\eech\aphavoc\source\entity\special\camera\cm_int.c
;	COMDAT ?set_local_int_value@@YGXPAUENTITY@@W4INT_TYPES@@H@Z
_TEXT	SEGMENT
tv83 = -72						; size = 4
tv65 = -72						; size = 4
_raw$ = -4						; size = 4
_en$ = 8						; size = 4
_type$ = 12						; size = 4
_value$ = 16						; size = 4
?set_local_int_value@@YGXPAUENTITY@@W4INT_TYPES@@H@Z PROC ; set_local_int_value, COMDAT

; 90   : {

  00000	55		 push	 ebp
  00001	8b ec		 mov	 ebp, esp
  00003	83 ec 48	 sub	 esp, 72			; 00000048H
  00006	53		 push	 ebx
  00007	56		 push	 esi
  00008	57		 push	 edi

; 91   : 	camera
; 92   : 		*raw;
; 93   : 
; 94   : 	#if DEBUG_MODULE
; 95   : 
; 96   : 	debug_log_entity_args (ENTITY_DEBUG_LOCAL, ENTITY_DEBUG_INT_VALUE, en, type, value);
; 97   : 
; 98   : 	#endif
; 99   : 
; 100  : 	raw = (camera *) get_local_entity_data (en);

  00009	8b 45 08	 mov	 eax, DWORD PTR _en$[ebp]
  0000c	8b 48 04	 mov	 ecx, DWORD PTR [eax+4]
  0000f	89 4d fc	 mov	 DWORD PTR _raw$[ebp], ecx

; 101  : 
; 102  : 	switch (type)

  00012	8b 45 0c	 mov	 eax, DWORD PTR _type$[ebp]
  00015	89 45 b8	 mov	 DWORD PTR tv65[ebp], eax
  00018	81 7d b8 04 01
	00 00		 cmp	 DWORD PTR tv65[ebp], 260 ; 00000104H
  0001f	74 02		 je	 SHORT $LN4@set_local_
  00021	eb 0e		 jmp	 SHORT $LN5@set_local_
$LN4@set_local_:

; 103  : 	{
; 104  : 		////////////////////////////////////////
; 105  : 		case INT_TYPE_WEAPON_CAMERA_PRIMED:
; 106  : 		////////////////////////////////////////
; 107  : 		{
; 108  : 			raw->weapon_camera_primed = value;

  00023	8b 45 fc	 mov	 eax, DWORD PTR _raw$[ebp]
  00026	8b 4d 10	 mov	 ecx, DWORD PTR _value$[ebp]
  00029	89 88 dc 00 00
	00		 mov	 DWORD PTR [eax+220], ecx

; 109  : 
; 110  : 			break;

  0002f	eb 72		 jmp	 SHORT $LN1@set_local_
$LN5@set_local_:

; 111  : 		}
; 112  : 		////////////////////////////////////////
; 113  : 		default:
; 114  : 		////////////////////////////////////////
; 115  : 		{
; 116  : 			debug_fatal_invalid_int_type (en, type);

  00031	83 7d 08 00	 cmp	 DWORD PTR _en$[ebp], 0
  00035	74 0a		 je	 SHORT $LN7@set_local_
  00037	8b 45 08	 mov	 eax, DWORD PTR _en$[ebp]
  0003a	8b 08		 mov	 ecx, DWORD PTR [eax]
  0003c	89 4d b8	 mov	 DWORD PTR tv83[ebp], ecx
  0003f	eb 21		 jmp	 SHORT $LN8@set_local_
$LN7@set_local_:
  00041	8b 15 00 00 00
	00		 mov	 edx, DWORD PTR ?__LINE__Var@?0??set_local_int_value@@YGXPAUENTITY@@W4INT_TYPES@@H@Z@4JA
  00047	83 c2 1a	 add	 edx, 26			; 0000001aH
  0004a	52		 push	 edx
  0004b	68 00 00 00 00	 push	 OFFSET ??_C@_0EL@OFADJIPI@c?3?2users?2nhv90?2projects?2eech?2ap@
  00050	a1 00 00 00 00	 mov	 eax, DWORD PTR ?null_entity_pointer_message@@3PBDB ; null_entity_pointer_message
  00055	50		 push	 eax
  00056	e8 00 00 00 00	 call	 ?process_assert@@YGXPBD0H@Z ; process_assert
  0005b	c7 45 b8 00 00
	00 00		 mov	 DWORD PTR tv83[ebp], 0
$LN8@set_local_:
  00062	8b 0d 00 00 00
	00		 mov	 ecx, DWORD PTR ?__LINE__Var@?0??set_local_int_value@@YGXPAUENTITY@@W4INT_TYPES@@H@Z@4JA
  00068	83 c1 1a	 add	 ecx, 26			; 0000001aH
  0006b	51		 push	 ecx
  0006c	68 00 00 00 00	 push	 OFFSET ??_C@_0EL@OFADJIPI@c?3?2users?2nhv90?2projects?2eech?2ap@
  00071	6b 55 0c 14	 imul	 edx, DWORD PTR _type$[ebp], 20
  00075	8b 82 00 00 00
	00		 mov	 eax, DWORD PTR ?int_type_database@@3PAUINT_TYPE_DATA@@A[edx]
  0007b	50		 push	 eax
  0007c	8b 4d 08	 mov	 ecx, DWORD PTR _en$[ebp]
  0007f	2b 0d 00 00 00
	00		 sub	 ecx, DWORD PTR ?entities@@3PAUENTITY@@A ; entities
  00085	c1 f9 04	 sar	 ecx, 4
  00088	51		 push	 ecx
  00089	6b 55 b8 0c	 imul	 edx, DWORD PTR tv83[ebp], 12
  0008d	8b 82 00 00 00
	00		 mov	 eax, DWORD PTR ?entity_type_database@@3PAUENTITY_TYPE_DATA@@A[edx]
  00093	50		 push	 eax
  00094	8b 0d 00 00 00
	00		 mov	 ecx, DWORD PTR ?debug_fatal_invalid_int_type_message@@3PBDB ; debug_fatal_invalid_int_type_message
  0009a	51		 push	 ecx
  0009b	e8 00 00 00 00	 call	 ?debug_fatal@@YAXPBDZZ	; debug_fatal
  000a0	83 c4 18	 add	 esp, 24			; 00000018H
$LN1@set_local_:

; 117  : 
; 118  : 			break;
; 119  : 		}
; 120  : 	}
; 121  : }

  000a3	5f		 pop	 edi
  000a4	5e		 pop	 esi
  000a5	5b		 pop	 ebx
  000a6	8b e5		 mov	 esp, ebp
  000a8	5d		 pop	 ebp
  000a9	c2 0c 00	 ret	 12			; 0000000cH
?set_local_int_value@@YGXPAUENTITY@@W4INT_TYPES@@H@Z ENDP ; set_local_int_value
_TEXT	ENDS
; Function compile flags: /Odtp /ZI
; File c:\users\nhv90\projects\eech\aphavoc\source\entity\special\camera\cm_int.c
;	COMDAT ?overload_camera_int_value_functions@@YGXXZ
_TEXT	SEGMENT
?overload_camera_int_value_functions@@YGXXZ PROC	; overload_camera_int_value_functions, COMDAT

; 241  : {

  00000	55		 push	 ebp
  00001	8b ec		 mov	 ebp, esp
  00003	83 ec 40	 sub	 esp, 64			; 00000040H
  00006	53		 push	 ebx
  00007	56		 push	 esi
  00008	57		 push	 edi

; 242  : 	fn_set_local_entity_raw_int_value	[ENTITY_TYPE_CAMERA][INT_TYPE_WEAPON_CAMERA_PRIMED]	= set_local_int_value;

  00009	b8 5c 04 00 00	 mov	 eax, 1116		; 0000045cH
  0000e	6b c8 03	 imul	 ecx, eax, 3
  00011	ba 04 00 00 00	 mov	 edx, 4
  00016	69 c2 04 01 00
	00		 imul	 eax, edx, 260
  0001c	c7 84 01 00 00
	00 00 00 00 00
	00		 mov	 DWORD PTR ?fn_set_local_entity_raw_int_value@@3PAY0BBH@P6GXPAUENTITY@@W4INT_TYPES@@H@ZA[ecx+eax], OFFSET ?set_local_int_value@@YGXPAUENTITY@@W4INT_TYPES@@H@Z ; set_local_int_value

; 243  : 	fn_set_local_entity_int_value			[ENTITY_TYPE_CAMERA][INT_TYPE_WEAPON_CAMERA_PRIMED]	= set_local_int_value;

  00027	b8 5c 04 00 00	 mov	 eax, 1116		; 0000045cH
  0002c	6b c8 03	 imul	 ecx, eax, 3
  0002f	ba 04 00 00 00	 mov	 edx, 4
  00034	69 c2 04 01 00
	00		 imul	 eax, edx, 260
  0003a	c7 84 01 00 00
	00 00 00 00 00
	00		 mov	 DWORD PTR ?fn_set_local_entity_int_value@@3PAY0BBH@P6GXPAUENTITY@@W4INT_TYPES@@H@ZA[ecx+eax], OFFSET ?set_local_int_value@@YGXPAUENTITY@@W4INT_TYPES@@H@Z ; set_local_int_value

; 244  : 	fn_get_local_entity_int_value 		[ENTITY_TYPE_CAMERA][INT_TYPE_WEAPON_CAMERA_PRIMED]	= get_local_int_value;

  00045	b8 5c 04 00 00	 mov	 eax, 1116		; 0000045cH
  0004a	6b c8 03	 imul	 ecx, eax, 3
  0004d	ba 04 00 00 00	 mov	 edx, 4
  00052	69 c2 04 01 00
	00		 imul	 eax, edx, 260
  00058	c7 84 01 00 00
	00 00 00 00 00
	00		 mov	 DWORD PTR ?fn_get_local_entity_int_value@@3PAY0BBH@P6GHPAUENTITY@@W4INT_TYPES@@@ZA[ecx+eax], OFFSET ?get_local_int_value@@YGHPAUENTITY@@W4INT_TYPES@@@Z ; get_local_int_value

; 245  : 
; 246  : 	fn_get_local_entity_int_value 		[ENTITY_TYPE_CAMERA][INT_TYPE_CAMERA_MODE]				= get_local_int_value;

  00063	b8 5c 04 00 00	 mov	 eax, 1116		; 0000045cH
  00068	6b c8 03	 imul	 ecx, eax, 3
  0006b	ba 04 00 00 00	 mov	 edx, 4
  00070	c1 e2 04	 shl	 edx, 4
  00073	c7 84 11 00 00
	00 00 00 00 00
	00		 mov	 DWORD PTR ?fn_get_local_entity_int_value@@3PAY0BBH@P6GHPAUENTITY@@W4INT_TYPES@@@ZA[ecx+edx], OFFSET ?get_local_int_value@@YGHPAUENTITY@@W4INT_TYPES@@@Z ; get_local_int_value

; 247  : }

  0007e	5f		 pop	 edi
  0007f	5e		 pop	 esi
  00080	5b		 pop	 ebx
  00081	8b e5		 mov	 esp, ebp
  00083	5d		 pop	 ebp
  00084	c3		 ret	 0
?overload_camera_int_value_functions@@YGXXZ ENDP	; overload_camera_int_value_functions
_TEXT	ENDS
END
