; Listing generated by Microsoft (R) Optimizing Compiler Version 19.16.27045.0 

	TITLE	C:\Users\nhv90\Projects\eech\aphavoc\source\gunships\cockpits\comanche\cm_lamps.c
	.686P
	.XMM
	include listing.inc
	.model	flat

INCLUDELIB MSVCRTD
INCLUDELIB OLDNAMES

PUBLIC	?comanche_lamps@@3UCOMANCHE_LAMP_FLAGS@@A	; comanche_lamps
_BSS	SEGMENT
?comanche_lamps@@3UCOMANCHE_LAMP_FLAGS@@A DQ 01H DUP (?) ; comanche_lamps
_BSS	ENDS
PUBLIC	?initialise_comanche_lamps@@YGXXZ		; initialise_comanche_lamps
PUBLIC	?deinitialise_comanche_lamps@@YGXXZ		; deinitialise_comanche_lamps
PUBLIC	?draw_comanche_virtual_cockpit_lamps@@YGXXZ	; draw_comanche_virtual_cockpit_lamps
PUBLIC	?__LINE__Var@?0??draw_comanche_virtual_cockpit_lamps@@YGXXZ@4JA ; `draw_comanche_virtual_cockpit_lamps'::`1'::__LINE__Var
PUBLIC	??_C@_0FC@DGKGJGJ@c?3?2users?2nhv90?2projects?2eech?2ap@ ; `string'
PUBLIC	??_C@_0BH@OJOOJLIP@virtual_cockpit_inst3d@	; `string'
EXTRN	_memset:PROC
EXTRN	?process_assert@@YGXPBD0H@Z:PROC		; process_assert
EXTRN	?set_texture_animation_frame_on_object@@YGHPAUOBJECT_3D_INSTANCE@@W4TEXTURE_ANIMATION_INDICES@@H@Z:PROC ; set_texture_animation_frame_on_object
EXTRN	?virtual_cockpit_inst3d@@3PAUOBJECT_3D_INSTANCE@@A:DWORD ; virtual_cockpit_inst3d
;	COMDAT ??_C@_0BH@OJOOJLIP@virtual_cockpit_inst3d@
CONST	SEGMENT
??_C@_0BH@OJOOJLIP@virtual_cockpit_inst3d@ DB 'virtual_cockpit_inst3d', 00H ; `string'
CONST	ENDS
;	COMDAT ??_C@_0FC@DGKGJGJ@c?3?2users?2nhv90?2projects?2eech?2ap@
CONST	SEGMENT
??_C@_0FC@DGKGJGJ@c?3?2users?2nhv90?2projects?2eech?2ap@ DB 'c:\users\nhv'
	DB	'90\projects\eech\aphavoc\source\gunships\cockpits\comanche\cm'
	DB	'_lamps.c', 00H				; `string'
CONST	ENDS
;	COMDAT ?__LINE__Var@?0??draw_comanche_virtual_cockpit_lamps@@YGXXZ@4JA
_DATA	SEGMENT
?__LINE__Var@?0??draw_comanche_virtual_cockpit_lamps@@YGXXZ@4JA DD 078H ; `draw_comanche_virtual_cockpit_lamps'::`1'::__LINE__Var
_DATA	ENDS
; Function compile flags: /Odtp /ZI
; File c:\users\nhv90\projects\eech\aphavoc\source\gunships\cockpits\comanche\cm_lamps.c
;	COMDAT ?draw_comanche_virtual_cockpit_lamps@@YGXXZ
_TEXT	SEGMENT
?draw_comanche_virtual_cockpit_lamps@@YGXXZ PROC	; draw_comanche_virtual_cockpit_lamps, COMDAT

; 120  : {

  00000	55		 push	 ebp
  00001	8b ec		 mov	 ebp, esp
  00003	83 ec 40	 sub	 esp, 64			; 00000040H
  00006	53		 push	 ebx
  00007	56		 push	 esi
  00008	57		 push	 edi

; 121  : 	ASSERT (virtual_cockpit_inst3d);

  00009	83 3d 00 00 00
	00 00		 cmp	 DWORD PTR ?virtual_cockpit_inst3d@@3PAUOBJECT_3D_INSTANCE@@A, 0 ; virtual_cockpit_inst3d
  00010	75 18		 jne	 SHORT $LN2@draw_coman
  00012	a1 00 00 00 00	 mov	 eax, DWORD PTR ?__LINE__Var@?0??draw_comanche_virtual_cockpit_lamps@@YGXXZ@4JA
  00017	83 c0 01	 add	 eax, 1
  0001a	50		 push	 eax
  0001b	68 00 00 00 00	 push	 OFFSET ??_C@_0FC@DGKGJGJ@c?3?2users?2nhv90?2projects?2eech?2ap@
  00020	68 00 00 00 00	 push	 OFFSET ??_C@_0BH@OJOOJLIP@virtual_cockpit_inst3d@
  00025	e8 00 00 00 00	 call	 ?process_assert@@YGXPBD0H@Z ; process_assert
$LN2@draw_coman:

; 122  : 
; 123  : 	draw_lamp (comanche_lamps.master_caution, TEXTURE_ANIMATION_INDEX_COCKPIT_LAMP__000);

  0002a	a1 00 00 00 00	 mov	 eax, DWORD PTR ?comanche_lamps@@3UCOMANCHE_LAMP_FLAGS@@A
  0002f	83 e0 01	 and	 eax, 1
  00032	74 11		 je	 SHORT $LN3@draw_coman
  00034	6a 01		 push	 1
  00036	6a 34		 push	 52			; 00000034H
  00038	a1 00 00 00 00	 mov	 eax, DWORD PTR ?virtual_cockpit_inst3d@@3PAUOBJECT_3D_INSTANCE@@A ; virtual_cockpit_inst3d
  0003d	50		 push	 eax
  0003e	e8 00 00 00 00	 call	 ?set_texture_animation_frame_on_object@@YGHPAUOBJECT_3D_INSTANCE@@W4TEXTURE_ANIMATION_INDICES@@H@Z ; set_texture_animation_frame_on_object
  00043	eb 0f		 jmp	 SHORT $LN4@draw_coman
$LN3@draw_coman:
  00045	6a 00		 push	 0
  00047	6a 34		 push	 52			; 00000034H
  00049	a1 00 00 00 00	 mov	 eax, DWORD PTR ?virtual_cockpit_inst3d@@3PAUOBJECT_3D_INSTANCE@@A ; virtual_cockpit_inst3d
  0004e	50		 push	 eax
  0004f	e8 00 00 00 00	 call	 ?set_texture_animation_frame_on_object@@YGHPAUOBJECT_3D_INSTANCE@@W4TEXTURE_ANIMATION_INDICES@@H@Z ; set_texture_animation_frame_on_object
$LN4@draw_coman:

; 124  : 
; 125  : 	draw_lamp (comanche_lamps.left_engine_ignition, TEXTURE_ANIMATION_INDEX_COCKPIT_LAMP__024);

  00054	a1 00 00 00 00	 mov	 eax, DWORD PTR ?comanche_lamps@@3UCOMANCHE_LAMP_FLAGS@@A
  00059	d1 e8		 shr	 eax, 1
  0005b	83 e0 01	 and	 eax, 1
  0005e	74 11		 je	 SHORT $LN5@draw_coman
  00060	6a 01		 push	 1
  00062	6a 1d		 push	 29			; 0000001dH
  00064	a1 00 00 00 00	 mov	 eax, DWORD PTR ?virtual_cockpit_inst3d@@3PAUOBJECT_3D_INSTANCE@@A ; virtual_cockpit_inst3d
  00069	50		 push	 eax
  0006a	e8 00 00 00 00	 call	 ?set_texture_animation_frame_on_object@@YGHPAUOBJECT_3D_INSTANCE@@W4TEXTURE_ANIMATION_INDICES@@H@Z ; set_texture_animation_frame_on_object
  0006f	eb 0f		 jmp	 SHORT $LN6@draw_coman
$LN5@draw_coman:
  00071	6a 00		 push	 0
  00073	6a 1d		 push	 29			; 0000001dH
  00075	a1 00 00 00 00	 mov	 eax, DWORD PTR ?virtual_cockpit_inst3d@@3PAUOBJECT_3D_INSTANCE@@A ; virtual_cockpit_inst3d
  0007a	50		 push	 eax
  0007b	e8 00 00 00 00	 call	 ?set_texture_animation_frame_on_object@@YGHPAUOBJECT_3D_INSTANCE@@W4TEXTURE_ANIMATION_INDICES@@H@Z ; set_texture_animation_frame_on_object
$LN6@draw_coman:

; 126  : 
; 127  : 	draw_lamp (comanche_lamps.apu_ignition, TEXTURE_ANIMATION_INDEX_COCKPIT_LAMP__025);

  00080	a1 00 00 00 00	 mov	 eax, DWORD PTR ?comanche_lamps@@3UCOMANCHE_LAMP_FLAGS@@A
  00085	c1 e8 02	 shr	 eax, 2
  00088	83 e0 01	 and	 eax, 1
  0008b	74 11		 je	 SHORT $LN7@draw_coman
  0008d	6a 01		 push	 1
  0008f	6a 1b		 push	 27			; 0000001bH
  00091	a1 00 00 00 00	 mov	 eax, DWORD PTR ?virtual_cockpit_inst3d@@3PAUOBJECT_3D_INSTANCE@@A ; virtual_cockpit_inst3d
  00096	50		 push	 eax
  00097	e8 00 00 00 00	 call	 ?set_texture_animation_frame_on_object@@YGHPAUOBJECT_3D_INSTANCE@@W4TEXTURE_ANIMATION_INDICES@@H@Z ; set_texture_animation_frame_on_object
  0009c	eb 0f		 jmp	 SHORT $LN8@draw_coman
$LN7@draw_coman:
  0009e	6a 00		 push	 0
  000a0	6a 1b		 push	 27			; 0000001bH
  000a2	a1 00 00 00 00	 mov	 eax, DWORD PTR ?virtual_cockpit_inst3d@@3PAUOBJECT_3D_INSTANCE@@A ; virtual_cockpit_inst3d
  000a7	50		 push	 eax
  000a8	e8 00 00 00 00	 call	 ?set_texture_animation_frame_on_object@@YGHPAUOBJECT_3D_INSTANCE@@W4TEXTURE_ANIMATION_INDICES@@H@Z ; set_texture_animation_frame_on_object
$LN8@draw_coman:

; 128  : 
; 129  : 	draw_lamp (comanche_lamps.right_engine_ignition, TEXTURE_ANIMATION_INDEX_COCKPIT_LAMP__026);

  000ad	a1 00 00 00 00	 mov	 eax, DWORD PTR ?comanche_lamps@@3UCOMANCHE_LAMP_FLAGS@@A
  000b2	c1 e8 03	 shr	 eax, 3
  000b5	83 e0 01	 and	 eax, 1
  000b8	74 11		 je	 SHORT $LN9@draw_coman
  000ba	6a 01		 push	 1
  000bc	6a 1f		 push	 31			; 0000001fH
  000be	a1 00 00 00 00	 mov	 eax, DWORD PTR ?virtual_cockpit_inst3d@@3PAUOBJECT_3D_INSTANCE@@A ; virtual_cockpit_inst3d
  000c3	50		 push	 eax
  000c4	e8 00 00 00 00	 call	 ?set_texture_animation_frame_on_object@@YGHPAUOBJECT_3D_INSTANCE@@W4TEXTURE_ANIMATION_INDICES@@H@Z ; set_texture_animation_frame_on_object
  000c9	eb 0f		 jmp	 SHORT $LN10@draw_coman
$LN9@draw_coman:
  000cb	6a 00		 push	 0
  000cd	6a 1f		 push	 31			; 0000001fH
  000cf	a1 00 00 00 00	 mov	 eax, DWORD PTR ?virtual_cockpit_inst3d@@3PAUOBJECT_3D_INSTANCE@@A ; virtual_cockpit_inst3d
  000d4	50		 push	 eax
  000d5	e8 00 00 00 00	 call	 ?set_texture_animation_frame_on_object@@YGHPAUOBJECT_3D_INSTANCE@@W4TEXTURE_ANIMATION_INDICES@@H@Z ; set_texture_animation_frame_on_object
$LN10@draw_coman:

; 130  : 
; 131  : 	draw_lamp (comanche_lamps.left_engine_fire, TEXTURE_ANIMATION_INDEX_COCKPIT_LAMP__001);

  000da	a1 00 00 00 00	 mov	 eax, DWORD PTR ?comanche_lamps@@3UCOMANCHE_LAMP_FLAGS@@A
  000df	c1 e8 04	 shr	 eax, 4
  000e2	83 e0 01	 and	 eax, 1
  000e5	74 11		 je	 SHORT $LN11@draw_coman
  000e7	6a 01		 push	 1
  000e9	6a 36		 push	 54			; 00000036H
  000eb	a1 00 00 00 00	 mov	 eax, DWORD PTR ?virtual_cockpit_inst3d@@3PAUOBJECT_3D_INSTANCE@@A ; virtual_cockpit_inst3d
  000f0	50		 push	 eax
  000f1	e8 00 00 00 00	 call	 ?set_texture_animation_frame_on_object@@YGHPAUOBJECT_3D_INSTANCE@@W4TEXTURE_ANIMATION_INDICES@@H@Z ; set_texture_animation_frame_on_object
  000f6	eb 0f		 jmp	 SHORT $LN12@draw_coman
$LN11@draw_coman:
  000f8	6a 00		 push	 0
  000fa	6a 36		 push	 54			; 00000036H
  000fc	a1 00 00 00 00	 mov	 eax, DWORD PTR ?virtual_cockpit_inst3d@@3PAUOBJECT_3D_INSTANCE@@A ; virtual_cockpit_inst3d
  00101	50		 push	 eax
  00102	e8 00 00 00 00	 call	 ?set_texture_animation_frame_on_object@@YGHPAUOBJECT_3D_INSTANCE@@W4TEXTURE_ANIMATION_INDICES@@H@Z ; set_texture_animation_frame_on_object
$LN12@draw_coman:

; 132  : 
; 133  : 	draw_lamp (comanche_lamps.apu_fire, TEXTURE_ANIMATION_INDEX_COCKPIT_LAMP__002);

  00107	a1 00 00 00 00	 mov	 eax, DWORD PTR ?comanche_lamps@@3UCOMANCHE_LAMP_FLAGS@@A
  0010c	c1 e8 05	 shr	 eax, 5
  0010f	83 e0 01	 and	 eax, 1
  00112	74 11		 je	 SHORT $LN13@draw_coman
  00114	6a 01		 push	 1
  00116	6a 35		 push	 53			; 00000035H
  00118	a1 00 00 00 00	 mov	 eax, DWORD PTR ?virtual_cockpit_inst3d@@3PAUOBJECT_3D_INSTANCE@@A ; virtual_cockpit_inst3d
  0011d	50		 push	 eax
  0011e	e8 00 00 00 00	 call	 ?set_texture_animation_frame_on_object@@YGHPAUOBJECT_3D_INSTANCE@@W4TEXTURE_ANIMATION_INDICES@@H@Z ; set_texture_animation_frame_on_object
  00123	eb 0f		 jmp	 SHORT $LN14@draw_coman
$LN13@draw_coman:
  00125	6a 00		 push	 0
  00127	6a 35		 push	 53			; 00000035H
  00129	a1 00 00 00 00	 mov	 eax, DWORD PTR ?virtual_cockpit_inst3d@@3PAUOBJECT_3D_INSTANCE@@A ; virtual_cockpit_inst3d
  0012e	50		 push	 eax
  0012f	e8 00 00 00 00	 call	 ?set_texture_animation_frame_on_object@@YGHPAUOBJECT_3D_INSTANCE@@W4TEXTURE_ANIMATION_INDICES@@H@Z ; set_texture_animation_frame_on_object
$LN14@draw_coman:

; 134  : 
; 135  : 	draw_lamp (comanche_lamps.right_engine_fire, TEXTURE_ANIMATION_INDEX_COCKPIT_LAMP__003);

  00134	a1 00 00 00 00	 mov	 eax, DWORD PTR ?comanche_lamps@@3UCOMANCHE_LAMP_FLAGS@@A
  00139	c1 e8 06	 shr	 eax, 6
  0013c	83 e0 01	 and	 eax, 1
  0013f	74 11		 je	 SHORT $LN15@draw_coman
  00141	6a 01		 push	 1
  00143	6a 37		 push	 55			; 00000037H
  00145	a1 00 00 00 00	 mov	 eax, DWORD PTR ?virtual_cockpit_inst3d@@3PAUOBJECT_3D_INSTANCE@@A ; virtual_cockpit_inst3d
  0014a	50		 push	 eax
  0014b	e8 00 00 00 00	 call	 ?set_texture_animation_frame_on_object@@YGHPAUOBJECT_3D_INSTANCE@@W4TEXTURE_ANIMATION_INDICES@@H@Z ; set_texture_animation_frame_on_object
  00150	eb 0f		 jmp	 SHORT $LN16@draw_coman
$LN15@draw_coman:
  00152	6a 00		 push	 0
  00154	6a 37		 push	 55			; 00000037H
  00156	a1 00 00 00 00	 mov	 eax, DWORD PTR ?virtual_cockpit_inst3d@@3PAUOBJECT_3D_INSTANCE@@A ; virtual_cockpit_inst3d
  0015b	50		 push	 eax
  0015c	e8 00 00 00 00	 call	 ?set_texture_animation_frame_on_object@@YGHPAUOBJECT_3D_INSTANCE@@W4TEXTURE_ANIMATION_INDICES@@H@Z ; set_texture_animation_frame_on_object
$LN16@draw_coman:

; 136  : 
; 137  : 	draw_lamp (comanche_lamps.left_engine_fire_extinguiser, TEXTURE_ANIMATION_INDEX_COCKPIT_LAMP__019);

  00161	a1 00 00 00 00	 mov	 eax, DWORD PTR ?comanche_lamps@@3UCOMANCHE_LAMP_FLAGS@@A
  00166	c1 e8 07	 shr	 eax, 7
  00169	83 e0 01	 and	 eax, 1
  0016c	74 11		 je	 SHORT $LN17@draw_coman
  0016e	6a 01		 push	 1
  00170	6a 19		 push	 25			; 00000019H
  00172	a1 00 00 00 00	 mov	 eax, DWORD PTR ?virtual_cockpit_inst3d@@3PAUOBJECT_3D_INSTANCE@@A ; virtual_cockpit_inst3d
  00177	50		 push	 eax
  00178	e8 00 00 00 00	 call	 ?set_texture_animation_frame_on_object@@YGHPAUOBJECT_3D_INSTANCE@@W4TEXTURE_ANIMATION_INDICES@@H@Z ; set_texture_animation_frame_on_object
  0017d	eb 0f		 jmp	 SHORT $LN18@draw_coman
$LN17@draw_coman:
  0017f	6a 00		 push	 0
  00181	6a 19		 push	 25			; 00000019H
  00183	a1 00 00 00 00	 mov	 eax, DWORD PTR ?virtual_cockpit_inst3d@@3PAUOBJECT_3D_INSTANCE@@A ; virtual_cockpit_inst3d
  00188	50		 push	 eax
  00189	e8 00 00 00 00	 call	 ?set_texture_animation_frame_on_object@@YGHPAUOBJECT_3D_INSTANCE@@W4TEXTURE_ANIMATION_INDICES@@H@Z ; set_texture_animation_frame_on_object
$LN18@draw_coman:

; 138  : 
; 139  : 	draw_lamp (comanche_lamps.right_engine_fire_extinguiser, TEXTURE_ANIMATION_INDEX_COCKPIT_LAMP__020);

  0018e	a1 00 00 00 00	 mov	 eax, DWORD PTR ?comanche_lamps@@3UCOMANCHE_LAMP_FLAGS@@A
  00193	c1 e8 08	 shr	 eax, 8
  00196	83 e0 01	 and	 eax, 1
  00199	74 11		 je	 SHORT $LN19@draw_coman
  0019b	6a 01		 push	 1
  0019d	6a 17		 push	 23			; 00000017H
  0019f	a1 00 00 00 00	 mov	 eax, DWORD PTR ?virtual_cockpit_inst3d@@3PAUOBJECT_3D_INSTANCE@@A ; virtual_cockpit_inst3d
  001a4	50		 push	 eax
  001a5	e8 00 00 00 00	 call	 ?set_texture_animation_frame_on_object@@YGHPAUOBJECT_3D_INSTANCE@@W4TEXTURE_ANIMATION_INDICES@@H@Z ; set_texture_animation_frame_on_object
  001aa	eb 0f		 jmp	 SHORT $LN20@draw_coman
$LN19@draw_coman:
  001ac	6a 00		 push	 0
  001ae	6a 17		 push	 23			; 00000017H
  001b0	a1 00 00 00 00	 mov	 eax, DWORD PTR ?virtual_cockpit_inst3d@@3PAUOBJECT_3D_INSTANCE@@A ; virtual_cockpit_inst3d
  001b5	50		 push	 eax
  001b6	e8 00 00 00 00	 call	 ?set_texture_animation_frame_on_object@@YGHPAUOBJECT_3D_INSTANCE@@W4TEXTURE_ANIMATION_INDICES@@H@Z ; set_texture_animation_frame_on_object
$LN20@draw_coman:

; 140  : 
; 141  : 	draw_lamp (comanche_lamps.hydraulic_pressure, TEXTURE_ANIMATION_INDEX_COCKPIT_LAMP__021);

  001bb	a1 00 00 00 00	 mov	 eax, DWORD PTR ?comanche_lamps@@3UCOMANCHE_LAMP_FLAGS@@A
  001c0	c1 e8 09	 shr	 eax, 9
  001c3	83 e0 01	 and	 eax, 1
  001c6	74 11		 je	 SHORT $LN21@draw_coman
  001c8	6a 01		 push	 1
  001ca	6a 1e		 push	 30			; 0000001eH
  001cc	a1 00 00 00 00	 mov	 eax, DWORD PTR ?virtual_cockpit_inst3d@@3PAUOBJECT_3D_INSTANCE@@A ; virtual_cockpit_inst3d
  001d1	50		 push	 eax
  001d2	e8 00 00 00 00	 call	 ?set_texture_animation_frame_on_object@@YGHPAUOBJECT_3D_INSTANCE@@W4TEXTURE_ANIMATION_INDICES@@H@Z ; set_texture_animation_frame_on_object
  001d7	eb 0f		 jmp	 SHORT $LN22@draw_coman
$LN21@draw_coman:
  001d9	6a 00		 push	 0
  001db	6a 1e		 push	 30			; 0000001eH
  001dd	a1 00 00 00 00	 mov	 eax, DWORD PTR ?virtual_cockpit_inst3d@@3PAUOBJECT_3D_INSTANCE@@A ; virtual_cockpit_inst3d
  001e2	50		 push	 eax
  001e3	e8 00 00 00 00	 call	 ?set_texture_animation_frame_on_object@@YGHPAUOBJECT_3D_INSTANCE@@W4TEXTURE_ANIMATION_INDICES@@H@Z ; set_texture_animation_frame_on_object
$LN22@draw_coman:

; 142  : 
; 143  : 	draw_lamp (comanche_lamps.oil_pressure, TEXTURE_ANIMATION_INDEX_COCKPIT_LAMP__022);

  001e8	a1 00 00 00 00	 mov	 eax, DWORD PTR ?comanche_lamps@@3UCOMANCHE_LAMP_FLAGS@@A
  001ed	c1 e8 0a	 shr	 eax, 10			; 0000000aH
  001f0	83 e0 01	 and	 eax, 1
  001f3	74 11		 je	 SHORT $LN23@draw_coman
  001f5	6a 01		 push	 1
  001f7	6a 20		 push	 32			; 00000020H
  001f9	a1 00 00 00 00	 mov	 eax, DWORD PTR ?virtual_cockpit_inst3d@@3PAUOBJECT_3D_INSTANCE@@A ; virtual_cockpit_inst3d
  001fe	50		 push	 eax
  001ff	e8 00 00 00 00	 call	 ?set_texture_animation_frame_on_object@@YGHPAUOBJECT_3D_INSTANCE@@W4TEXTURE_ANIMATION_INDICES@@H@Z ; set_texture_animation_frame_on_object
  00204	eb 0f		 jmp	 SHORT $LN24@draw_coman
$LN23@draw_coman:
  00206	6a 00		 push	 0
  00208	6a 20		 push	 32			; 00000020H
  0020a	a1 00 00 00 00	 mov	 eax, DWORD PTR ?virtual_cockpit_inst3d@@3PAUOBJECT_3D_INSTANCE@@A ; virtual_cockpit_inst3d
  0020f	50		 push	 eax
  00210	e8 00 00 00 00	 call	 ?set_texture_animation_frame_on_object@@YGHPAUOBJECT_3D_INSTANCE@@W4TEXTURE_ANIMATION_INDICES@@H@Z ; set_texture_animation_frame_on_object
$LN24@draw_coman:

; 144  : 
; 145  : 	draw_lamp (comanche_lamps.oil_temperature, TEXTURE_ANIMATION_INDEX_COCKPIT_LAMP__023);

  00215	a1 00 00 00 00	 mov	 eax, DWORD PTR ?comanche_lamps@@3UCOMANCHE_LAMP_FLAGS@@A
  0021a	c1 e8 0b	 shr	 eax, 11			; 0000000bH
  0021d	83 e0 01	 and	 eax, 1
  00220	74 11		 je	 SHORT $LN25@draw_coman
  00222	6a 01		 push	 1
  00224	6a 1c		 push	 28			; 0000001cH
  00226	a1 00 00 00 00	 mov	 eax, DWORD PTR ?virtual_cockpit_inst3d@@3PAUOBJECT_3D_INSTANCE@@A ; virtual_cockpit_inst3d
  0022b	50		 push	 eax
  0022c	e8 00 00 00 00	 call	 ?set_texture_animation_frame_on_object@@YGHPAUOBJECT_3D_INSTANCE@@W4TEXTURE_ANIMATION_INDICES@@H@Z ; set_texture_animation_frame_on_object
  00231	eb 0f		 jmp	 SHORT $LN26@draw_coman
$LN25@draw_coman:
  00233	6a 00		 push	 0
  00235	6a 1c		 push	 28			; 0000001cH
  00237	a1 00 00 00 00	 mov	 eax, DWORD PTR ?virtual_cockpit_inst3d@@3PAUOBJECT_3D_INSTANCE@@A ; virtual_cockpit_inst3d
  0023c	50		 push	 eax
  0023d	e8 00 00 00 00	 call	 ?set_texture_animation_frame_on_object@@YGHPAUOBJECT_3D_INSTANCE@@W4TEXTURE_ANIMATION_INDICES@@H@Z ; set_texture_animation_frame_on_object
$LN26@draw_coman:

; 146  : 
; 147  : 	draw_lamp (comanche_lamps.overtorque, TEXTURE_ANIMATION_INDEX_COCKPIT_LAMP__010);

  00242	a1 00 00 00 00	 mov	 eax, DWORD PTR ?comanche_lamps@@3UCOMANCHE_LAMP_FLAGS@@A
  00247	c1 e8 0c	 shr	 eax, 12			; 0000000cH
  0024a	83 e0 01	 and	 eax, 1
  0024d	74 11		 je	 SHORT $LN27@draw_coman
  0024f	6a 01		 push	 1
  00251	6a 25		 push	 37			; 00000025H
  00253	a1 00 00 00 00	 mov	 eax, DWORD PTR ?virtual_cockpit_inst3d@@3PAUOBJECT_3D_INSTANCE@@A ; virtual_cockpit_inst3d
  00258	50		 push	 eax
  00259	e8 00 00 00 00	 call	 ?set_texture_animation_frame_on_object@@YGHPAUOBJECT_3D_INSTANCE@@W4TEXTURE_ANIMATION_INDICES@@H@Z ; set_texture_animation_frame_on_object
  0025e	eb 0f		 jmp	 SHORT $LN28@draw_coman
$LN27@draw_coman:
  00260	6a 00		 push	 0
  00262	6a 25		 push	 37			; 00000025H
  00264	a1 00 00 00 00	 mov	 eax, DWORD PTR ?virtual_cockpit_inst3d@@3PAUOBJECT_3D_INSTANCE@@A ; virtual_cockpit_inst3d
  00269	50		 push	 eax
  0026a	e8 00 00 00 00	 call	 ?set_texture_animation_frame_on_object@@YGHPAUOBJECT_3D_INSTANCE@@W4TEXTURE_ANIMATION_INDICES@@H@Z ; set_texture_animation_frame_on_object
$LN28@draw_coman:

; 148  : 
; 149  : 	draw_lamp (comanche_lamps.rotor_rpm, TEXTURE_ANIMATION_INDEX_COCKPIT_LAMP__011);

  0026f	a1 00 00 00 00	 mov	 eax, DWORD PTR ?comanche_lamps@@3UCOMANCHE_LAMP_FLAGS@@A
  00274	c1 e8 0d	 shr	 eax, 13			; 0000000dH
  00277	83 e0 01	 and	 eax, 1
  0027a	74 11		 je	 SHORT $LN29@draw_coman
  0027c	6a 01		 push	 1
  0027e	6a 24		 push	 36			; 00000024H
  00280	a1 00 00 00 00	 mov	 eax, DWORD PTR ?virtual_cockpit_inst3d@@3PAUOBJECT_3D_INSTANCE@@A ; virtual_cockpit_inst3d
  00285	50		 push	 eax
  00286	e8 00 00 00 00	 call	 ?set_texture_animation_frame_on_object@@YGHPAUOBJECT_3D_INSTANCE@@W4TEXTURE_ANIMATION_INDICES@@H@Z ; set_texture_animation_frame_on_object
  0028b	eb 0f		 jmp	 SHORT $LN30@draw_coman
$LN29@draw_coman:
  0028d	6a 00		 push	 0
  0028f	6a 24		 push	 36			; 00000024H
  00291	a1 00 00 00 00	 mov	 eax, DWORD PTR ?virtual_cockpit_inst3d@@3PAUOBJECT_3D_INSTANCE@@A ; virtual_cockpit_inst3d
  00296	50		 push	 eax
  00297	e8 00 00 00 00	 call	 ?set_texture_animation_frame_on_object@@YGHPAUOBJECT_3D_INSTANCE@@W4TEXTURE_ANIMATION_INDICES@@H@Z ; set_texture_animation_frame_on_object
$LN30@draw_coman:

; 150  : 
; 151  : 	draw_lamp (comanche_lamps.fuel_low, TEXTURE_ANIMATION_INDEX_COCKPIT_LAMP__012);

  0029c	a1 00 00 00 00	 mov	 eax, DWORD PTR ?comanche_lamps@@3UCOMANCHE_LAMP_FLAGS@@A
  002a1	c1 e8 0e	 shr	 eax, 14			; 0000000eH
  002a4	83 e0 01	 and	 eax, 1
  002a7	74 11		 je	 SHORT $LN31@draw_coman
  002a9	6a 01		 push	 1
  002ab	6a 23		 push	 35			; 00000023H
  002ad	a1 00 00 00 00	 mov	 eax, DWORD PTR ?virtual_cockpit_inst3d@@3PAUOBJECT_3D_INSTANCE@@A ; virtual_cockpit_inst3d
  002b2	50		 push	 eax
  002b3	e8 00 00 00 00	 call	 ?set_texture_animation_frame_on_object@@YGHPAUOBJECT_3D_INSTANCE@@W4TEXTURE_ANIMATION_INDICES@@H@Z ; set_texture_animation_frame_on_object
  002b8	eb 0f		 jmp	 SHORT $LN32@draw_coman
$LN31@draw_coman:
  002ba	6a 00		 push	 0
  002bc	6a 23		 push	 35			; 00000023H
  002be	a1 00 00 00 00	 mov	 eax, DWORD PTR ?virtual_cockpit_inst3d@@3PAUOBJECT_3D_INSTANCE@@A ; virtual_cockpit_inst3d
  002c3	50		 push	 eax
  002c4	e8 00 00 00 00	 call	 ?set_texture_animation_frame_on_object@@YGHPAUOBJECT_3D_INSTANCE@@W4TEXTURE_ANIMATION_INDICES@@H@Z ; set_texture_animation_frame_on_object
$LN32@draw_coman:

; 152  : 
; 153  : 	draw_lamp (comanche_lamps.rotor_brake, TEXTURE_ANIMATION_INDEX_COCKPIT_LAMP__004);

  002c9	a1 00 00 00 00	 mov	 eax, DWORD PTR ?comanche_lamps@@3UCOMANCHE_LAMP_FLAGS@@A
  002ce	c1 e8 0f	 shr	 eax, 15			; 0000000fH
  002d1	83 e0 01	 and	 eax, 1
  002d4	74 11		 je	 SHORT $LN33@draw_coman
  002d6	6a 01		 push	 1
  002d8	6a 29		 push	 41			; 00000029H
  002da	a1 00 00 00 00	 mov	 eax, DWORD PTR ?virtual_cockpit_inst3d@@3PAUOBJECT_3D_INSTANCE@@A ; virtual_cockpit_inst3d
  002df	50		 push	 eax
  002e0	e8 00 00 00 00	 call	 ?set_texture_animation_frame_on_object@@YGHPAUOBJECT_3D_INSTANCE@@W4TEXTURE_ANIMATION_INDICES@@H@Z ; set_texture_animation_frame_on_object
  002e5	eb 0f		 jmp	 SHORT $LN34@draw_coman
$LN33@draw_coman:
  002e7	6a 00		 push	 0
  002e9	6a 29		 push	 41			; 00000029H
  002eb	a1 00 00 00 00	 mov	 eax, DWORD PTR ?virtual_cockpit_inst3d@@3PAUOBJECT_3D_INSTANCE@@A ; virtual_cockpit_inst3d
  002f0	50		 push	 eax
  002f1	e8 00 00 00 00	 call	 ?set_texture_animation_frame_on_object@@YGHPAUOBJECT_3D_INSTANCE@@W4TEXTURE_ANIMATION_INDICES@@H@Z ; set_texture_animation_frame_on_object
$LN34@draw_coman:

; 154  : 
; 155  : 	draw_lamp (comanche_lamps.wheel_brake, TEXTURE_ANIMATION_INDEX_COCKPIT_LAMP__005);

  002f6	a1 00 00 00 00	 mov	 eax, DWORD PTR ?comanche_lamps@@3UCOMANCHE_LAMP_FLAGS@@A
  002fb	c1 e8 10	 shr	 eax, 16			; 00000010H
  002fe	83 e0 01	 and	 eax, 1
  00301	74 11		 je	 SHORT $LN35@draw_coman
  00303	6a 01		 push	 1
  00305	6a 26		 push	 38			; 00000026H
  00307	a1 00 00 00 00	 mov	 eax, DWORD PTR ?virtual_cockpit_inst3d@@3PAUOBJECT_3D_INSTANCE@@A ; virtual_cockpit_inst3d
  0030c	50		 push	 eax
  0030d	e8 00 00 00 00	 call	 ?set_texture_animation_frame_on_object@@YGHPAUOBJECT_3D_INSTANCE@@W4TEXTURE_ANIMATION_INDICES@@H@Z ; set_texture_animation_frame_on_object
  00312	eb 0f		 jmp	 SHORT $LN36@draw_coman
$LN35@draw_coman:
  00314	6a 00		 push	 0
  00316	6a 26		 push	 38			; 00000026H
  00318	a1 00 00 00 00	 mov	 eax, DWORD PTR ?virtual_cockpit_inst3d@@3PAUOBJECT_3D_INSTANCE@@A ; virtual_cockpit_inst3d
  0031d	50		 push	 eax
  0031e	e8 00 00 00 00	 call	 ?set_texture_animation_frame_on_object@@YGHPAUOBJECT_3D_INSTANCE@@W4TEXTURE_ANIMATION_INDICES@@H@Z ; set_texture_animation_frame_on_object
$LN36@draw_coman:

; 156  : 
; 157  : 	draw_lamp (comanche_lamps.navigation_lights, TEXTURE_ANIMATION_INDEX_COCKPIT_LAMP__006);

  00323	a1 00 00 00 00	 mov	 eax, DWORD PTR ?comanche_lamps@@3UCOMANCHE_LAMP_FLAGS@@A
  00328	c1 e8 11	 shr	 eax, 17			; 00000011H
  0032b	83 e0 01	 and	 eax, 1
  0032e	74 11		 je	 SHORT $LN37@draw_coman
  00330	6a 01		 push	 1
  00332	6a 22		 push	 34			; 00000022H
  00334	a1 00 00 00 00	 mov	 eax, DWORD PTR ?virtual_cockpit_inst3d@@3PAUOBJECT_3D_INSTANCE@@A ; virtual_cockpit_inst3d
  00339	50		 push	 eax
  0033a	e8 00 00 00 00	 call	 ?set_texture_animation_frame_on_object@@YGHPAUOBJECT_3D_INSTANCE@@W4TEXTURE_ANIMATION_INDICES@@H@Z ; set_texture_animation_frame_on_object
  0033f	eb 0f		 jmp	 SHORT $LN38@draw_coman
$LN37@draw_coman:
  00341	6a 00		 push	 0
  00343	6a 22		 push	 34			; 00000022H
  00345	a1 00 00 00 00	 mov	 eax, DWORD PTR ?virtual_cockpit_inst3d@@3PAUOBJECT_3D_INSTANCE@@A ; virtual_cockpit_inst3d
  0034a	50		 push	 eax
  0034b	e8 00 00 00 00	 call	 ?set_texture_animation_frame_on_object@@YGHPAUOBJECT_3D_INSTANCE@@W4TEXTURE_ANIMATION_INDICES@@H@Z ; set_texture_animation_frame_on_object
$LN38@draw_coman:

; 158  : 
; 159  : 	draw_lamp (comanche_lamps.hover_hold, TEXTURE_ANIMATION_INDEX_COCKPIT_LAMP__008);

  00350	a1 00 00 00 00	 mov	 eax, DWORD PTR ?comanche_lamps@@3UCOMANCHE_LAMP_FLAGS@@A
  00355	c1 e8 12	 shr	 eax, 18			; 00000012H
  00358	83 e0 01	 and	 eax, 1
  0035b	74 11		 je	 SHORT $LN39@draw_coman
  0035d	6a 01		 push	 1
  0035f	6a 27		 push	 39			; 00000027H
  00361	a1 00 00 00 00	 mov	 eax, DWORD PTR ?virtual_cockpit_inst3d@@3PAUOBJECT_3D_INSTANCE@@A ; virtual_cockpit_inst3d
  00366	50		 push	 eax
  00367	e8 00 00 00 00	 call	 ?set_texture_animation_frame_on_object@@YGHPAUOBJECT_3D_INSTANCE@@W4TEXTURE_ANIMATION_INDICES@@H@Z ; set_texture_animation_frame_on_object
  0036c	eb 0f		 jmp	 SHORT $LN40@draw_coman
$LN39@draw_coman:
  0036e	6a 00		 push	 0
  00370	6a 27		 push	 39			; 00000027H
  00372	a1 00 00 00 00	 mov	 eax, DWORD PTR ?virtual_cockpit_inst3d@@3PAUOBJECT_3D_INSTANCE@@A ; virtual_cockpit_inst3d
  00377	50		 push	 eax
  00378	e8 00 00 00 00	 call	 ?set_texture_animation_frame_on_object@@YGHPAUOBJECT_3D_INSTANCE@@W4TEXTURE_ANIMATION_INDICES@@H@Z ; set_texture_animation_frame_on_object
$LN40@draw_coman:

; 160  : 
; 161  : 	draw_lamp (comanche_lamps.altitude_hold, TEXTURE_ANIMATION_INDEX_COCKPIT_LAMP__042);

  0037d	a1 00 00 00 00	 mov	 eax, DWORD PTR ?comanche_lamps@@3UCOMANCHE_LAMP_FLAGS@@A
  00382	c1 e8 13	 shr	 eax, 19			; 00000013H
  00385	83 e0 01	 and	 eax, 1
  00388	74 11		 je	 SHORT $LN41@draw_coman
  0038a	6a 01		 push	 1
  0038c	6a 21		 push	 33			; 00000021H
  0038e	a1 00 00 00 00	 mov	 eax, DWORD PTR ?virtual_cockpit_inst3d@@3PAUOBJECT_3D_INSTANCE@@A ; virtual_cockpit_inst3d
  00393	50		 push	 eax
  00394	e8 00 00 00 00	 call	 ?set_texture_animation_frame_on_object@@YGHPAUOBJECT_3D_INSTANCE@@W4TEXTURE_ANIMATION_INDICES@@H@Z ; set_texture_animation_frame_on_object
  00399	eb 0f		 jmp	 SHORT $LN42@draw_coman
$LN41@draw_coman:
  0039b	6a 00		 push	 0
  0039d	6a 21		 push	 33			; 00000021H
  0039f	a1 00 00 00 00	 mov	 eax, DWORD PTR ?virtual_cockpit_inst3d@@3PAUOBJECT_3D_INSTANCE@@A ; virtual_cockpit_inst3d
  003a4	50		 push	 eax
  003a5	e8 00 00 00 00	 call	 ?set_texture_animation_frame_on_object@@YGHPAUOBJECT_3D_INSTANCE@@W4TEXTURE_ANIMATION_INDICES@@H@Z ; set_texture_animation_frame_on_object
$LN42@draw_coman:

; 162  : 
; 163  : 	draw_lamp (comanche_lamps.auto_pilot, TEXTURE_ANIMATION_INDEX_COCKPIT_LAMP__009);

  003aa	a1 00 00 00 00	 mov	 eax, DWORD PTR ?comanche_lamps@@3UCOMANCHE_LAMP_FLAGS@@A
  003af	c1 e8 14	 shr	 eax, 20			; 00000014H
  003b2	83 e0 01	 and	 eax, 1
  003b5	74 11		 je	 SHORT $LN43@draw_coman
  003b7	6a 01		 push	 1
  003b9	6a 28		 push	 40			; 00000028H
  003bb	a1 00 00 00 00	 mov	 eax, DWORD PTR ?virtual_cockpit_inst3d@@3PAUOBJECT_3D_INSTANCE@@A ; virtual_cockpit_inst3d
  003c0	50		 push	 eax
  003c1	e8 00 00 00 00	 call	 ?set_texture_animation_frame_on_object@@YGHPAUOBJECT_3D_INSTANCE@@W4TEXTURE_ANIMATION_INDICES@@H@Z ; set_texture_animation_frame_on_object
  003c6	eb 0f		 jmp	 SHORT $LN44@draw_coman
$LN43@draw_coman:
  003c8	6a 00		 push	 0
  003ca	6a 28		 push	 40			; 00000028H
  003cc	a1 00 00 00 00	 mov	 eax, DWORD PTR ?virtual_cockpit_inst3d@@3PAUOBJECT_3D_INSTANCE@@A ; virtual_cockpit_inst3d
  003d1	50		 push	 eax
  003d2	e8 00 00 00 00	 call	 ?set_texture_animation_frame_on_object@@YGHPAUOBJECT_3D_INSTANCE@@W4TEXTURE_ANIMATION_INDICES@@H@Z ; set_texture_animation_frame_on_object
$LN44@draw_coman:

; 164  : 
; 165  : 	draw_lamp (comanche_lamps.radar, TEXTURE_ANIMATION_INDEX_COCKPIT_LAMP__013);

  003d7	a1 00 00 00 00	 mov	 eax, DWORD PTR ?comanche_lamps@@3UCOMANCHE_LAMP_FLAGS@@A
  003dc	c1 e8 15	 shr	 eax, 21			; 00000015H
  003df	83 e0 01	 and	 eax, 1
  003e2	74 11		 je	 SHORT $LN45@draw_coman
  003e4	6a 01		 push	 1
  003e6	6a 2e		 push	 46			; 0000002eH
  003e8	a1 00 00 00 00	 mov	 eax, DWORD PTR ?virtual_cockpit_inst3d@@3PAUOBJECT_3D_INSTANCE@@A ; virtual_cockpit_inst3d
  003ed	50		 push	 eax
  003ee	e8 00 00 00 00	 call	 ?set_texture_animation_frame_on_object@@YGHPAUOBJECT_3D_INSTANCE@@W4TEXTURE_ANIMATION_INDICES@@H@Z ; set_texture_animation_frame_on_object
  003f3	eb 0f		 jmp	 SHORT $LN46@draw_coman
$LN45@draw_coman:
  003f5	6a 00		 push	 0
  003f7	6a 2e		 push	 46			; 0000002eH
  003f9	a1 00 00 00 00	 mov	 eax, DWORD PTR ?virtual_cockpit_inst3d@@3PAUOBJECT_3D_INSTANCE@@A ; virtual_cockpit_inst3d
  003fe	50		 push	 eax
  003ff	e8 00 00 00 00	 call	 ?set_texture_animation_frame_on_object@@YGHPAUOBJECT_3D_INSTANCE@@W4TEXTURE_ANIMATION_INDICES@@H@Z ; set_texture_animation_frame_on_object
$LN46@draw_coman:

; 166  : 
; 167  : 	draw_lamp (comanche_lamps.laser, TEXTURE_ANIMATION_INDEX_COCKPIT_LAMP__014);

  00404	a1 00 00 00 00	 mov	 eax, DWORD PTR ?comanche_lamps@@3UCOMANCHE_LAMP_FLAGS@@A
  00409	c1 e8 16	 shr	 eax, 22			; 00000016H
  0040c	83 e0 01	 and	 eax, 1
  0040f	74 11		 je	 SHORT $LN47@draw_coman
  00411	6a 01		 push	 1
  00413	6a 2f		 push	 47			; 0000002fH
  00415	a1 00 00 00 00	 mov	 eax, DWORD PTR ?virtual_cockpit_inst3d@@3PAUOBJECT_3D_INSTANCE@@A ; virtual_cockpit_inst3d
  0041a	50		 push	 eax
  0041b	e8 00 00 00 00	 call	 ?set_texture_animation_frame_on_object@@YGHPAUOBJECT_3D_INSTANCE@@W4TEXTURE_ANIMATION_INDICES@@H@Z ; set_texture_animation_frame_on_object
  00420	eb 0f		 jmp	 SHORT $LN48@draw_coman
$LN47@draw_coman:
  00422	6a 00		 push	 0
  00424	6a 2f		 push	 47			; 0000002fH
  00426	a1 00 00 00 00	 mov	 eax, DWORD PTR ?virtual_cockpit_inst3d@@3PAUOBJECT_3D_INSTANCE@@A ; virtual_cockpit_inst3d
  0042b	50		 push	 eax
  0042c	e8 00 00 00 00	 call	 ?set_texture_animation_frame_on_object@@YGHPAUOBJECT_3D_INSTANCE@@W4TEXTURE_ANIMATION_INDICES@@H@Z ; set_texture_animation_frame_on_object
$LN48@draw_coman:

; 168  : 
; 169  : 	draw_lamp (comanche_lamps.radar_jammer, TEXTURE_ANIMATION_INDEX_COCKPIT_LAMP__015);

  00431	a1 00 00 00 00	 mov	 eax, DWORD PTR ?comanche_lamps@@3UCOMANCHE_LAMP_FLAGS@@A
  00436	c1 e8 17	 shr	 eax, 23			; 00000017H
  00439	83 e0 01	 and	 eax, 1
  0043c	74 11		 je	 SHORT $LN49@draw_coman
  0043e	6a 01		 push	 1
  00440	6a 2c		 push	 44			; 0000002cH
  00442	a1 00 00 00 00	 mov	 eax, DWORD PTR ?virtual_cockpit_inst3d@@3PAUOBJECT_3D_INSTANCE@@A ; virtual_cockpit_inst3d
  00447	50		 push	 eax
  00448	e8 00 00 00 00	 call	 ?set_texture_animation_frame_on_object@@YGHPAUOBJECT_3D_INSTANCE@@W4TEXTURE_ANIMATION_INDICES@@H@Z ; set_texture_animation_frame_on_object
  0044d	eb 0f		 jmp	 SHORT $LN50@draw_coman
$LN49@draw_coman:
  0044f	6a 00		 push	 0
  00451	6a 2c		 push	 44			; 0000002cH
  00453	a1 00 00 00 00	 mov	 eax, DWORD PTR ?virtual_cockpit_inst3d@@3PAUOBJECT_3D_INSTANCE@@A ; virtual_cockpit_inst3d
  00458	50		 push	 eax
  00459	e8 00 00 00 00	 call	 ?set_texture_animation_frame_on_object@@YGHPAUOBJECT_3D_INSTANCE@@W4TEXTURE_ANIMATION_INDICES@@H@Z ; set_texture_animation_frame_on_object
$LN50@draw_coman:

; 170  : 
; 171  : 	draw_lamp (comanche_lamps.ir_jammer, TEXTURE_ANIMATION_INDEX_COCKPIT_LAMP__016);

  0045e	a1 00 00 00 00	 mov	 eax, DWORD PTR ?comanche_lamps@@3UCOMANCHE_LAMP_FLAGS@@A
  00463	c1 e8 18	 shr	 eax, 24			; 00000018H
  00466	83 e0 01	 and	 eax, 1
  00469	74 11		 je	 SHORT $LN51@draw_coman
  0046b	6a 01		 push	 1
  0046d	6a 2d		 push	 45			; 0000002dH
  0046f	a1 00 00 00 00	 mov	 eax, DWORD PTR ?virtual_cockpit_inst3d@@3PAUOBJECT_3D_INSTANCE@@A ; virtual_cockpit_inst3d
  00474	50		 push	 eax
  00475	e8 00 00 00 00	 call	 ?set_texture_animation_frame_on_object@@YGHPAUOBJECT_3D_INSTANCE@@W4TEXTURE_ANIMATION_INDICES@@H@Z ; set_texture_animation_frame_on_object
  0047a	eb 0f		 jmp	 SHORT $LN52@draw_coman
$LN51@draw_coman:
  0047c	6a 00		 push	 0
  0047e	6a 2d		 push	 45			; 0000002dH
  00480	a1 00 00 00 00	 mov	 eax, DWORD PTR ?virtual_cockpit_inst3d@@3PAUOBJECT_3D_INSTANCE@@A ; virtual_cockpit_inst3d
  00485	50		 push	 eax
  00486	e8 00 00 00 00	 call	 ?set_texture_animation_frame_on_object@@YGHPAUOBJECT_3D_INSTANCE@@W4TEXTURE_ANIMATION_INDICES@@H@Z ; set_texture_animation_frame_on_object
$LN52@draw_coman:

; 172  : 
; 173  : 	draw_lamp (comanche_lamps.auto_counter_measures, TEXTURE_ANIMATION_INDEX_COCKPIT_LAMP__017);

  0048b	a1 00 00 00 00	 mov	 eax, DWORD PTR ?comanche_lamps@@3UCOMANCHE_LAMP_FLAGS@@A
  00490	c1 e8 19	 shr	 eax, 25			; 00000019H
  00493	83 e0 01	 and	 eax, 1
  00496	74 11		 je	 SHORT $LN53@draw_coman
  00498	6a 01		 push	 1
  0049a	6a 2a		 push	 42			; 0000002aH
  0049c	a1 00 00 00 00	 mov	 eax, DWORD PTR ?virtual_cockpit_inst3d@@3PAUOBJECT_3D_INSTANCE@@A ; virtual_cockpit_inst3d
  004a1	50		 push	 eax
  004a2	e8 00 00 00 00	 call	 ?set_texture_animation_frame_on_object@@YGHPAUOBJECT_3D_INSTANCE@@W4TEXTURE_ANIMATION_INDICES@@H@Z ; set_texture_animation_frame_on_object
  004a7	eb 0f		 jmp	 SHORT $LN54@draw_coman
$LN53@draw_coman:
  004a9	6a 00		 push	 0
  004ab	6a 2a		 push	 42			; 0000002aH
  004ad	a1 00 00 00 00	 mov	 eax, DWORD PTR ?virtual_cockpit_inst3d@@3PAUOBJECT_3D_INSTANCE@@A ; virtual_cockpit_inst3d
  004b2	50		 push	 eax
  004b3	e8 00 00 00 00	 call	 ?set_texture_animation_frame_on_object@@YGHPAUOBJECT_3D_INSTANCE@@W4TEXTURE_ANIMATION_INDICES@@H@Z ; set_texture_animation_frame_on_object
$LN54@draw_coman:

; 174  : 
; 175  : 	draw_lamp (comanche_lamps.ase_auto_page, TEXTURE_ANIMATION_INDEX_COCKPIT_LAMP__018);

  004b8	a1 00 00 00 00	 mov	 eax, DWORD PTR ?comanche_lamps@@3UCOMANCHE_LAMP_FLAGS@@A
  004bd	c1 e8 1a	 shr	 eax, 26			; 0000001aH
  004c0	83 e0 01	 and	 eax, 1
  004c3	74 11		 je	 SHORT $LN55@draw_coman
  004c5	6a 01		 push	 1
  004c7	6a 2b		 push	 43			; 0000002bH
  004c9	a1 00 00 00 00	 mov	 eax, DWORD PTR ?virtual_cockpit_inst3d@@3PAUOBJECT_3D_INSTANCE@@A ; virtual_cockpit_inst3d
  004ce	50		 push	 eax
  004cf	e8 00 00 00 00	 call	 ?set_texture_animation_frame_on_object@@YGHPAUOBJECT_3D_INSTANCE@@W4TEXTURE_ANIMATION_INDICES@@H@Z ; set_texture_animation_frame_on_object
  004d4	eb 0f		 jmp	 SHORT $LN56@draw_coman
$LN55@draw_coman:
  004d6	6a 00		 push	 0
  004d8	6a 2b		 push	 43			; 0000002bH
  004da	a1 00 00 00 00	 mov	 eax, DWORD PTR ?virtual_cockpit_inst3d@@3PAUOBJECT_3D_INSTANCE@@A ; virtual_cockpit_inst3d
  004df	50		 push	 eax
  004e0	e8 00 00 00 00	 call	 ?set_texture_animation_frame_on_object@@YGHPAUOBJECT_3D_INSTANCE@@W4TEXTURE_ANIMATION_INDICES@@H@Z ; set_texture_animation_frame_on_object
$LN56@draw_coman:

; 176  : 
; 177  : 	draw_lamp (comanche_lamps.config_stub_wings, TEXTURE_ANIMATION_INDEX_GENERIC_LAMP__036);

  004e5	a1 00 00 00 00	 mov	 eax, DWORD PTR ?comanche_lamps@@3UCOMANCHE_LAMP_FLAGS@@A
  004ea	c1 e8 1b	 shr	 eax, 27			; 0000001bH
  004ed	83 e0 01	 and	 eax, 1
  004f0	74 11		 je	 SHORT $LN57@draw_coman
  004f2	6a 01		 push	 1
  004f4	6a 30		 push	 48			; 00000030H
  004f6	a1 00 00 00 00	 mov	 eax, DWORD PTR ?virtual_cockpit_inst3d@@3PAUOBJECT_3D_INSTANCE@@A ; virtual_cockpit_inst3d
  004fb	50		 push	 eax
  004fc	e8 00 00 00 00	 call	 ?set_texture_animation_frame_on_object@@YGHPAUOBJECT_3D_INSTANCE@@W4TEXTURE_ANIMATION_INDICES@@H@Z ; set_texture_animation_frame_on_object
  00501	eb 0f		 jmp	 SHORT $LN58@draw_coman
$LN57@draw_coman:
  00503	6a 00		 push	 0
  00505	6a 30		 push	 48			; 00000030H
  00507	a1 00 00 00 00	 mov	 eax, DWORD PTR ?virtual_cockpit_inst3d@@3PAUOBJECT_3D_INSTANCE@@A ; virtual_cockpit_inst3d
  0050c	50		 push	 eax
  0050d	e8 00 00 00 00	 call	 ?set_texture_animation_frame_on_object@@YGHPAUOBJECT_3D_INSTANCE@@W4TEXTURE_ANIMATION_INDICES@@H@Z ; set_texture_animation_frame_on_object
$LN58@draw_coman:

; 178  : 
; 179  : 	draw_lamp (comanche_lamps.config_bay_doors, TEXTURE_ANIMATION_INDEX_GENERIC_LAMP__037);

  00512	a1 00 00 00 00	 mov	 eax, DWORD PTR ?comanche_lamps@@3UCOMANCHE_LAMP_FLAGS@@A
  00517	c1 e8 1c	 shr	 eax, 28			; 0000001cH
  0051a	83 e0 01	 and	 eax, 1
  0051d	74 11		 je	 SHORT $LN59@draw_coman
  0051f	6a 01		 push	 1
  00521	6a 31		 push	 49			; 00000031H
  00523	a1 00 00 00 00	 mov	 eax, DWORD PTR ?virtual_cockpit_inst3d@@3PAUOBJECT_3D_INSTANCE@@A ; virtual_cockpit_inst3d
  00528	50		 push	 eax
  00529	e8 00 00 00 00	 call	 ?set_texture_animation_frame_on_object@@YGHPAUOBJECT_3D_INSTANCE@@W4TEXTURE_ANIMATION_INDICES@@H@Z ; set_texture_animation_frame_on_object
  0052e	eb 0f		 jmp	 SHORT $LN60@draw_coman
$LN59@draw_coman:
  00530	6a 00		 push	 0
  00532	6a 31		 push	 49			; 00000031H
  00534	a1 00 00 00 00	 mov	 eax, DWORD PTR ?virtual_cockpit_inst3d@@3PAUOBJECT_3D_INSTANCE@@A ; virtual_cockpit_inst3d
  00539	50		 push	 eax
  0053a	e8 00 00 00 00	 call	 ?set_texture_animation_frame_on_object@@YGHPAUOBJECT_3D_INSTANCE@@W4TEXTURE_ANIMATION_INDICES@@H@Z ; set_texture_animation_frame_on_object
$LN60@draw_coman:

; 180  : 
; 181  : 	draw_lamp (comanche_lamps.config_gear, TEXTURE_ANIMATION_INDEX_GENERIC_LAMP__038);

  0053f	a1 00 00 00 00	 mov	 eax, DWORD PTR ?comanche_lamps@@3UCOMANCHE_LAMP_FLAGS@@A
  00544	c1 e8 1d	 shr	 eax, 29			; 0000001dH
  00547	83 e0 01	 and	 eax, 1
  0054a	74 11		 je	 SHORT $LN61@draw_coman
  0054c	6a 01		 push	 1
  0054e	6a 32		 push	 50			; 00000032H
  00550	a1 00 00 00 00	 mov	 eax, DWORD PTR ?virtual_cockpit_inst3d@@3PAUOBJECT_3D_INSTANCE@@A ; virtual_cockpit_inst3d
  00555	50		 push	 eax
  00556	e8 00 00 00 00	 call	 ?set_texture_animation_frame_on_object@@YGHPAUOBJECT_3D_INSTANCE@@W4TEXTURE_ANIMATION_INDICES@@H@Z ; set_texture_animation_frame_on_object
  0055b	eb 0f		 jmp	 SHORT $LN62@draw_coman
$LN61@draw_coman:
  0055d	6a 00		 push	 0
  0055f	6a 32		 push	 50			; 00000032H
  00561	a1 00 00 00 00	 mov	 eax, DWORD PTR ?virtual_cockpit_inst3d@@3PAUOBJECT_3D_INSTANCE@@A ; virtual_cockpit_inst3d
  00566	50		 push	 eax
  00567	e8 00 00 00 00	 call	 ?set_texture_animation_frame_on_object@@YGHPAUOBJECT_3D_INSTANCE@@W4TEXTURE_ANIMATION_INDICES@@H@Z ; set_texture_animation_frame_on_object
$LN62@draw_coman:

; 182  : 
; 183  : 	draw_lamp (comanche_lamps.config_gun, TEXTURE_ANIMATION_INDEX_GENERIC_LAMP__039);

  0056c	a1 00 00 00 00	 mov	 eax, DWORD PTR ?comanche_lamps@@3UCOMANCHE_LAMP_FLAGS@@A
  00571	c1 e8 1e	 shr	 eax, 30			; 0000001eH
  00574	83 e0 01	 and	 eax, 1
  00577	74 11		 je	 SHORT $LN63@draw_coman
  00579	6a 01		 push	 1
  0057b	6a 33		 push	 51			; 00000033H
  0057d	a1 00 00 00 00	 mov	 eax, DWORD PTR ?virtual_cockpit_inst3d@@3PAUOBJECT_3D_INSTANCE@@A ; virtual_cockpit_inst3d
  00582	50		 push	 eax
  00583	e8 00 00 00 00	 call	 ?set_texture_animation_frame_on_object@@YGHPAUOBJECT_3D_INSTANCE@@W4TEXTURE_ANIMATION_INDICES@@H@Z ; set_texture_animation_frame_on_object
  00588	eb 0f		 jmp	 SHORT $LN64@draw_coman
$LN63@draw_coman:
  0058a	6a 00		 push	 0
  0058c	6a 33		 push	 51			; 00000033H
  0058e	a1 00 00 00 00	 mov	 eax, DWORD PTR ?virtual_cockpit_inst3d@@3PAUOBJECT_3D_INSTANCE@@A ; virtual_cockpit_inst3d
  00593	50		 push	 eax
  00594	e8 00 00 00 00	 call	 ?set_texture_animation_frame_on_object@@YGHPAUOBJECT_3D_INSTANCE@@W4TEXTURE_ANIMATION_INDICES@@H@Z ; set_texture_animation_frame_on_object
$LN64@draw_coman:

; 184  : 
; 185  : 	draw_lamp (comanche_lamps.gear_damaged, TEXTURE_ANIMATION_INDEX_COCKPIT_LAMP__029);

  00599	a1 00 00 00 00	 mov	 eax, DWORD PTR ?comanche_lamps@@3UCOMANCHE_LAMP_FLAGS@@A
  0059e	c1 e8 1f	 shr	 eax, 31			; 0000001fH
  005a1	83 e0 01	 and	 eax, 1
  005a4	74 11		 je	 SHORT $LN65@draw_coman
  005a6	6a 01		 push	 1
  005a8	6a 16		 push	 22			; 00000016H
  005aa	a1 00 00 00 00	 mov	 eax, DWORD PTR ?virtual_cockpit_inst3d@@3PAUOBJECT_3D_INSTANCE@@A ; virtual_cockpit_inst3d
  005af	50		 push	 eax
  005b0	e8 00 00 00 00	 call	 ?set_texture_animation_frame_on_object@@YGHPAUOBJECT_3D_INSTANCE@@W4TEXTURE_ANIMATION_INDICES@@H@Z ; set_texture_animation_frame_on_object
  005b5	eb 0f		 jmp	 SHORT $LN66@draw_coman
$LN65@draw_coman:
  005b7	6a 00		 push	 0
  005b9	6a 16		 push	 22			; 00000016H
  005bb	a1 00 00 00 00	 mov	 eax, DWORD PTR ?virtual_cockpit_inst3d@@3PAUOBJECT_3D_INSTANCE@@A ; virtual_cockpit_inst3d
  005c0	50		 push	 eax
  005c1	e8 00 00 00 00	 call	 ?set_texture_animation_frame_on_object@@YGHPAUOBJECT_3D_INSTANCE@@W4TEXTURE_ANIMATION_INDICES@@H@Z ; set_texture_animation_frame_on_object
$LN66@draw_coman:

; 186  : 
; 187  : 	draw_lamp (comanche_lamps.gear_status, TEXTURE_ANIMATION_INDEX_66_GEAR_LIGHT_034);

  005c6	a1 04 00 00 00	 mov	 eax, DWORD PTR ?comanche_lamps@@3UCOMANCHE_LAMP_FLAGS@@A+4
  005cb	83 e0 01	 and	 eax, 1
  005ce	74 11		 je	 SHORT $LN67@draw_coman
  005d0	6a 01		 push	 1
  005d2	6a 13		 push	 19			; 00000013H
  005d4	a1 00 00 00 00	 mov	 eax, DWORD PTR ?virtual_cockpit_inst3d@@3PAUOBJECT_3D_INSTANCE@@A ; virtual_cockpit_inst3d
  005d9	50		 push	 eax
  005da	e8 00 00 00 00	 call	 ?set_texture_animation_frame_on_object@@YGHPAUOBJECT_3D_INSTANCE@@W4TEXTURE_ANIMATION_INDICES@@H@Z ; set_texture_animation_frame_on_object
  005df	eb 0f		 jmp	 SHORT $LN68@draw_coman
$LN67@draw_coman:
  005e1	6a 00		 push	 0
  005e3	6a 13		 push	 19			; 00000013H
  005e5	a1 00 00 00 00	 mov	 eax, DWORD PTR ?virtual_cockpit_inst3d@@3PAUOBJECT_3D_INSTANCE@@A ; virtual_cockpit_inst3d
  005ea	50		 push	 eax
  005eb	e8 00 00 00 00	 call	 ?set_texture_animation_frame_on_object@@YGHPAUOBJECT_3D_INSTANCE@@W4TEXTURE_ANIMATION_INDICES@@H@Z ; set_texture_animation_frame_on_object
$LN68@draw_coman:

; 188  : 
; 189  : 	draw_lamp (comanche_lamps.gear_status, TEXTURE_ANIMATION_INDEX_66_GEAR_LIGHT_035);

  005f0	a1 04 00 00 00	 mov	 eax, DWORD PTR ?comanche_lamps@@3UCOMANCHE_LAMP_FLAGS@@A+4
  005f5	83 e0 01	 and	 eax, 1
  005f8	74 11		 je	 SHORT $LN69@draw_coman
  005fa	6a 01		 push	 1
  005fc	6a 15		 push	 21			; 00000015H
  005fe	a1 00 00 00 00	 mov	 eax, DWORD PTR ?virtual_cockpit_inst3d@@3PAUOBJECT_3D_INSTANCE@@A ; virtual_cockpit_inst3d
  00603	50		 push	 eax
  00604	e8 00 00 00 00	 call	 ?set_texture_animation_frame_on_object@@YGHPAUOBJECT_3D_INSTANCE@@W4TEXTURE_ANIMATION_INDICES@@H@Z ; set_texture_animation_frame_on_object
  00609	eb 0f		 jmp	 SHORT $LN70@draw_coman
$LN69@draw_coman:
  0060b	6a 00		 push	 0
  0060d	6a 15		 push	 21			; 00000015H
  0060f	a1 00 00 00 00	 mov	 eax, DWORD PTR ?virtual_cockpit_inst3d@@3PAUOBJECT_3D_INSTANCE@@A ; virtual_cockpit_inst3d
  00614	50		 push	 eax
  00615	e8 00 00 00 00	 call	 ?set_texture_animation_frame_on_object@@YGHPAUOBJECT_3D_INSTANCE@@W4TEXTURE_ANIMATION_INDICES@@H@Z ; set_texture_animation_frame_on_object
$LN70@draw_coman:

; 190  : 
; 191  : 	draw_lamp (comanche_lamps.gear_red, TEXTURE_ANIMATION_INDEX_66_GEAR_LAMP__040);

  0061a	a1 04 00 00 00	 mov	 eax, DWORD PTR ?comanche_lamps@@3UCOMANCHE_LAMP_FLAGS@@A+4
  0061f	d1 e8		 shr	 eax, 1
  00621	83 e0 01	 and	 eax, 1
  00624	74 11		 je	 SHORT $LN71@draw_coman
  00626	6a 01		 push	 1
  00628	6a 12		 push	 18			; 00000012H
  0062a	a1 00 00 00 00	 mov	 eax, DWORD PTR ?virtual_cockpit_inst3d@@3PAUOBJECT_3D_INSTANCE@@A ; virtual_cockpit_inst3d
  0062f	50		 push	 eax
  00630	e8 00 00 00 00	 call	 ?set_texture_animation_frame_on_object@@YGHPAUOBJECT_3D_INSTANCE@@W4TEXTURE_ANIMATION_INDICES@@H@Z ; set_texture_animation_frame_on_object
  00635	eb 0f		 jmp	 SHORT $LN72@draw_coman
$LN71@draw_coman:
  00637	6a 00		 push	 0
  00639	6a 12		 push	 18			; 00000012H
  0063b	a1 00 00 00 00	 mov	 eax, DWORD PTR ?virtual_cockpit_inst3d@@3PAUOBJECT_3D_INSTANCE@@A ; virtual_cockpit_inst3d
  00640	50		 push	 eax
  00641	e8 00 00 00 00	 call	 ?set_texture_animation_frame_on_object@@YGHPAUOBJECT_3D_INSTANCE@@W4TEXTURE_ANIMATION_INDICES@@H@Z ; set_texture_animation_frame_on_object
$LN72@draw_coman:

; 192  : 
; 193  : 	draw_lamp (comanche_lamps.gear_red, TEXTURE_ANIMATION_INDEX_66_GEAR_LAMP__041);

  00646	a1 04 00 00 00	 mov	 eax, DWORD PTR ?comanche_lamps@@3UCOMANCHE_LAMP_FLAGS@@A+4
  0064b	d1 e8		 shr	 eax, 1
  0064d	83 e0 01	 and	 eax, 1
  00650	74 11		 je	 SHORT $LN73@draw_coman
  00652	6a 01		 push	 1
  00654	6a 14		 push	 20			; 00000014H
  00656	a1 00 00 00 00	 mov	 eax, DWORD PTR ?virtual_cockpit_inst3d@@3PAUOBJECT_3D_INSTANCE@@A ; virtual_cockpit_inst3d
  0065b	50		 push	 eax
  0065c	e8 00 00 00 00	 call	 ?set_texture_animation_frame_on_object@@YGHPAUOBJECT_3D_INSTANCE@@W4TEXTURE_ANIMATION_INDICES@@H@Z ; set_texture_animation_frame_on_object
  00661	eb 0f		 jmp	 SHORT $LN74@draw_coman
$LN73@draw_coman:
  00663	6a 00		 push	 0
  00665	6a 14		 push	 20			; 00000014H
  00667	a1 00 00 00 00	 mov	 eax, DWORD PTR ?virtual_cockpit_inst3d@@3PAUOBJECT_3D_INSTANCE@@A ; virtual_cockpit_inst3d
  0066c	50		 push	 eax
  0066d	e8 00 00 00 00	 call	 ?set_texture_animation_frame_on_object@@YGHPAUOBJECT_3D_INSTANCE@@W4TEXTURE_ANIMATION_INDICES@@H@Z ; set_texture_animation_frame_on_object
$LN74@draw_coman:

; 194  : 
; 195  : 	draw_lamp (comanche_lamps.gear_transition, TEXTURE_ANIMATION_INDEX_COCKPIT_LAMP__027);

  00672	a1 04 00 00 00	 mov	 eax, DWORD PTR ?comanche_lamps@@3UCOMANCHE_LAMP_FLAGS@@A+4
  00677	c1 e8 02	 shr	 eax, 2
  0067a	83 e0 01	 and	 eax, 1
  0067d	74 11		 je	 SHORT $LN75@draw_coman
  0067f	6a 01		 push	 1
  00681	6a 1a		 push	 26			; 0000001aH
  00683	a1 00 00 00 00	 mov	 eax, DWORD PTR ?virtual_cockpit_inst3d@@3PAUOBJECT_3D_INSTANCE@@A ; virtual_cockpit_inst3d
  00688	50		 push	 eax
  00689	e8 00 00 00 00	 call	 ?set_texture_animation_frame_on_object@@YGHPAUOBJECT_3D_INSTANCE@@W4TEXTURE_ANIMATION_INDICES@@H@Z ; set_texture_animation_frame_on_object
  0068e	eb 0f		 jmp	 SHORT $LN76@draw_coman
$LN75@draw_coman:
  00690	6a 00		 push	 0
  00692	6a 1a		 push	 26			; 0000001aH
  00694	a1 00 00 00 00	 mov	 eax, DWORD PTR ?virtual_cockpit_inst3d@@3PAUOBJECT_3D_INSTANCE@@A ; virtual_cockpit_inst3d
  00699	50		 push	 eax
  0069a	e8 00 00 00 00	 call	 ?set_texture_animation_frame_on_object@@YGHPAUOBJECT_3D_INSTANCE@@W4TEXTURE_ANIMATION_INDICES@@H@Z ; set_texture_animation_frame_on_object
$LN76@draw_coman:

; 196  : 
; 197  : 	draw_lamp (comanche_lamps.gear_transition, TEXTURE_ANIMATION_INDEX_COCKPIT_LAMP__028);

  0069f	a1 04 00 00 00	 mov	 eax, DWORD PTR ?comanche_lamps@@3UCOMANCHE_LAMP_FLAGS@@A+4
  006a4	c1 e8 02	 shr	 eax, 2
  006a7	83 e0 01	 and	 eax, 1
  006aa	74 11		 je	 SHORT $LN77@draw_coman
  006ac	6a 01		 push	 1
  006ae	6a 18		 push	 24			; 00000018H
  006b0	a1 00 00 00 00	 mov	 eax, DWORD PTR ?virtual_cockpit_inst3d@@3PAUOBJECT_3D_INSTANCE@@A ; virtual_cockpit_inst3d
  006b5	50		 push	 eax
  006b6	e8 00 00 00 00	 call	 ?set_texture_animation_frame_on_object@@YGHPAUOBJECT_3D_INSTANCE@@W4TEXTURE_ANIMATION_INDICES@@H@Z ; set_texture_animation_frame_on_object
  006bb	eb 0f		 jmp	 SHORT $LN78@draw_coman
$LN77@draw_coman:
  006bd	6a 00		 push	 0
  006bf	6a 18		 push	 24			; 00000018H
  006c1	a1 00 00 00 00	 mov	 eax, DWORD PTR ?virtual_cockpit_inst3d@@3PAUOBJECT_3D_INSTANCE@@A ; virtual_cockpit_inst3d
  006c6	50		 push	 eax
  006c7	e8 00 00 00 00	 call	 ?set_texture_animation_frame_on_object@@YGHPAUOBJECT_3D_INSTANCE@@W4TEXTURE_ANIMATION_INDICES@@H@Z ; set_texture_animation_frame_on_object
$LN78@draw_coman:

; 198  : 
; 199  : 	draw_lamp (comanche_lamps.pilot_lh_main_mfd_focus, TEXTURE_ANIMATION_INDEX_COCKPIT_LAMP__030);

  006cc	a1 04 00 00 00	 mov	 eax, DWORD PTR ?comanche_lamps@@3UCOMANCHE_LAMP_FLAGS@@A+4
  006d1	c1 e8 03	 shr	 eax, 3
  006d4	83 e0 01	 and	 eax, 1
  006d7	74 11		 je	 SHORT $LN79@draw_coman
  006d9	6a 01		 push	 1
  006db	6a 39		 push	 57			; 00000039H
  006dd	a1 00 00 00 00	 mov	 eax, DWORD PTR ?virtual_cockpit_inst3d@@3PAUOBJECT_3D_INSTANCE@@A ; virtual_cockpit_inst3d
  006e2	50		 push	 eax
  006e3	e8 00 00 00 00	 call	 ?set_texture_animation_frame_on_object@@YGHPAUOBJECT_3D_INSTANCE@@W4TEXTURE_ANIMATION_INDICES@@H@Z ; set_texture_animation_frame_on_object
  006e8	eb 0f		 jmp	 SHORT $LN80@draw_coman
$LN79@draw_coman:
  006ea	6a 00		 push	 0
  006ec	6a 39		 push	 57			; 00000039H
  006ee	a1 00 00 00 00	 mov	 eax, DWORD PTR ?virtual_cockpit_inst3d@@3PAUOBJECT_3D_INSTANCE@@A ; virtual_cockpit_inst3d
  006f3	50		 push	 eax
  006f4	e8 00 00 00 00	 call	 ?set_texture_animation_frame_on_object@@YGHPAUOBJECT_3D_INSTANCE@@W4TEXTURE_ANIMATION_INDICES@@H@Z ; set_texture_animation_frame_on_object
$LN80@draw_coman:

; 200  : 
; 201  : 	draw_lamp (comanche_lamps.pilot_rh_main_mfd_focus, TEXTURE_ANIMATION_INDEX_COCKPIT_LAMP__031);

  006f9	a1 04 00 00 00	 mov	 eax, DWORD PTR ?comanche_lamps@@3UCOMANCHE_LAMP_FLAGS@@A+4
  006fe	c1 e8 04	 shr	 eax, 4
  00701	83 e0 01	 and	 eax, 1
  00704	74 11		 je	 SHORT $LN81@draw_coman
  00706	6a 01		 push	 1
  00708	6a 38		 push	 56			; 00000038H
  0070a	a1 00 00 00 00	 mov	 eax, DWORD PTR ?virtual_cockpit_inst3d@@3PAUOBJECT_3D_INSTANCE@@A ; virtual_cockpit_inst3d
  0070f	50		 push	 eax
  00710	e8 00 00 00 00	 call	 ?set_texture_animation_frame_on_object@@YGHPAUOBJECT_3D_INSTANCE@@W4TEXTURE_ANIMATION_INDICES@@H@Z ; set_texture_animation_frame_on_object
  00715	eb 0f		 jmp	 SHORT $LN82@draw_coman
$LN81@draw_coman:
  00717	6a 00		 push	 0
  00719	6a 38		 push	 56			; 00000038H
  0071b	a1 00 00 00 00	 mov	 eax, DWORD PTR ?virtual_cockpit_inst3d@@3PAUOBJECT_3D_INSTANCE@@A ; virtual_cockpit_inst3d
  00720	50		 push	 eax
  00721	e8 00 00 00 00	 call	 ?set_texture_animation_frame_on_object@@YGHPAUOBJECT_3D_INSTANCE@@W4TEXTURE_ANIMATION_INDICES@@H@Z ; set_texture_animation_frame_on_object
$LN82@draw_coman:

; 202  : 
; 203  : 	draw_lamp (comanche_lamps.co_pilot_lh_main_mfd_focus, TEXTURE_ANIMATION_INDEX_COCKPIT_LAMP__032);

  00726	a1 04 00 00 00	 mov	 eax, DWORD PTR ?comanche_lamps@@3UCOMANCHE_LAMP_FLAGS@@A+4
  0072b	c1 e8 05	 shr	 eax, 5
  0072e	83 e0 01	 and	 eax, 1
  00731	74 11		 je	 SHORT $LN83@draw_coman
  00733	6a 01		 push	 1
  00735	6a 11		 push	 17			; 00000011H
  00737	a1 00 00 00 00	 mov	 eax, DWORD PTR ?virtual_cockpit_inst3d@@3PAUOBJECT_3D_INSTANCE@@A ; virtual_cockpit_inst3d
  0073c	50		 push	 eax
  0073d	e8 00 00 00 00	 call	 ?set_texture_animation_frame_on_object@@YGHPAUOBJECT_3D_INSTANCE@@W4TEXTURE_ANIMATION_INDICES@@H@Z ; set_texture_animation_frame_on_object
  00742	eb 0f		 jmp	 SHORT $LN84@draw_coman
$LN83@draw_coman:
  00744	6a 00		 push	 0
  00746	6a 11		 push	 17			; 00000011H
  00748	a1 00 00 00 00	 mov	 eax, DWORD PTR ?virtual_cockpit_inst3d@@3PAUOBJECT_3D_INSTANCE@@A ; virtual_cockpit_inst3d
  0074d	50		 push	 eax
  0074e	e8 00 00 00 00	 call	 ?set_texture_animation_frame_on_object@@YGHPAUOBJECT_3D_INSTANCE@@W4TEXTURE_ANIMATION_INDICES@@H@Z ; set_texture_animation_frame_on_object
$LN84@draw_coman:

; 204  : 
; 205  : 	draw_lamp (comanche_lamps.co_pilot_rh_main_mfd_focus, TEXTURE_ANIMATION_INDEX_COCKPIT_LAMP__033);

  00753	a1 04 00 00 00	 mov	 eax, DWORD PTR ?comanche_lamps@@3UCOMANCHE_LAMP_FLAGS@@A+4
  00758	c1 e8 06	 shr	 eax, 6
  0075b	83 e0 01	 and	 eax, 1
  0075e	74 11		 je	 SHORT $LN85@draw_coman
  00760	6a 01		 push	 1
  00762	6a 10		 push	 16			; 00000010H
  00764	a1 00 00 00 00	 mov	 eax, DWORD PTR ?virtual_cockpit_inst3d@@3PAUOBJECT_3D_INSTANCE@@A ; virtual_cockpit_inst3d
  00769	50		 push	 eax
  0076a	e8 00 00 00 00	 call	 ?set_texture_animation_frame_on_object@@YGHPAUOBJECT_3D_INSTANCE@@W4TEXTURE_ANIMATION_INDICES@@H@Z ; set_texture_animation_frame_on_object
  0076f	eb 0f		 jmp	 SHORT $LN1@draw_coman
$LN85@draw_coman:
  00771	6a 00		 push	 0
  00773	6a 10		 push	 16			; 00000010H
  00775	a1 00 00 00 00	 mov	 eax, DWORD PTR ?virtual_cockpit_inst3d@@3PAUOBJECT_3D_INSTANCE@@A ; virtual_cockpit_inst3d
  0077a	50		 push	 eax
  0077b	e8 00 00 00 00	 call	 ?set_texture_animation_frame_on_object@@YGHPAUOBJECT_3D_INSTANCE@@W4TEXTURE_ANIMATION_INDICES@@H@Z ; set_texture_animation_frame_on_object
$LN1@draw_coman:

; 206  : }

  00780	5f		 pop	 edi
  00781	5e		 pop	 esi
  00782	5b		 pop	 ebx
  00783	8b e5		 mov	 esp, ebp
  00785	5d		 pop	 ebp
  00786	c3		 ret	 0
?draw_comanche_virtual_cockpit_lamps@@YGXXZ ENDP	; draw_comanche_virtual_cockpit_lamps
_TEXT	ENDS
; Function compile flags: /Odtp /ZI
; File c:\users\nhv90\projects\eech\aphavoc\source\gunships\cockpits\comanche\cm_lamps.c
;	COMDAT ?deinitialise_comanche_lamps@@YGXXZ
_TEXT	SEGMENT
?deinitialise_comanche_lamps@@YGXXZ PROC		; deinitialise_comanche_lamps, COMDAT

; 96   : {

  00000	55		 push	 ebp
  00001	8b ec		 mov	 ebp, esp
  00003	83 ec 40	 sub	 esp, 64			; 00000040H
  00006	53		 push	 ebx
  00007	56		 push	 esi
  00008	57		 push	 edi

; 97   : }

  00009	5f		 pop	 edi
  0000a	5e		 pop	 esi
  0000b	5b		 pop	 ebx
  0000c	8b e5		 mov	 esp, ebp
  0000e	5d		 pop	 ebp
  0000f	c3		 ret	 0
?deinitialise_comanche_lamps@@YGXXZ ENDP		; deinitialise_comanche_lamps
_TEXT	ENDS
; Function compile flags: /Odtp /ZI
; File c:\users\nhv90\projects\eech\aphavoc\source\gunships\cockpits\comanche\cm_lamps.c
;	COMDAT ?initialise_comanche_lamps@@YGXXZ
_TEXT	SEGMENT
?initialise_comanche_lamps@@YGXXZ PROC			; initialise_comanche_lamps, COMDAT

; 87   : {

  00000	55		 push	 ebp
  00001	8b ec		 mov	 ebp, esp
  00003	83 ec 40	 sub	 esp, 64			; 00000040H
  00006	53		 push	 ebx
  00007	56		 push	 esi
  00008	57		 push	 edi

; 88   : 	memset (&comanche_lamps, 0, sizeof (comanche_lamp_flags));

  00009	6a 08		 push	 8
  0000b	6a 00		 push	 0
  0000d	68 00 00 00 00	 push	 OFFSET ?comanche_lamps@@3UCOMANCHE_LAMP_FLAGS@@A ; comanche_lamps
  00012	e8 00 00 00 00	 call	 _memset
  00017	83 c4 0c	 add	 esp, 12			; 0000000cH

; 89   : }

  0001a	5f		 pop	 edi
  0001b	5e		 pop	 esi
  0001c	5b		 pop	 ebx
  0001d	8b e5		 mov	 esp, ebp
  0001f	5d		 pop	 ebp
  00020	c3		 ret	 0
?initialise_comanche_lamps@@YGXXZ ENDP			; initialise_comanche_lamps
_TEXT	ENDS
END
