; Listing generated by Microsoft (R) Optimizing Compiler Version 19.16.27045.0 

	TITLE	C:\Users\nhv90\Projects\eech\aphavoc\source\gunships\avionics\comanche\cm_mfd.c
	.686P
	.XMM
	include listing.inc
	.model	flat

INCLUDELIB MSVCRTD
INCLUDELIB OLDNAMES

PUBLIC	??_C@_0BL@LMEENCLB@COMANCHE_MAIN_MFD_MODE_OFF@	; `string'
PUBLIC	??_C@_0BP@OBPLLEL@COMANCHE_MAIN_MFD_MODE_DAMAGED@ ; `string'
PUBLIC	??_C@_0CE@BAGKBDCO@COMANCHE_MAIN_MFD_MODE_GROUND_R@ ; `string'
PUBLIC	??_C@_0CB@NPPLLCFE@COMANCHE_MAIN_MFD_MODE_AIR_RADA@ ; `string'
PUBLIC	??_C@_0BM@FNKGDNDG@COMANCHE_MAIN_MFD_MODE_FLIR@	; `string'
PUBLIC	??_C@_0BL@DOCFDAPP@COMANCHE_MAIN_MFD_MODE_DTV@	; `string'
PUBLIC	??_C@_0BL@KGKBENIJ@COMANCHE_MAIN_MFD_MODE_DVO@	; `string'
PUBLIC	??_C@_0BL@BDIHABDG@COMANCHE_MAIN_MFD_MODE_TSD@	; `string'
PUBLIC	??_C@_0BL@GNFLJHNK@COMANCHE_MAIN_MFD_MODE_ASE@	; `string'
PUBLIC	??_C@_0BO@LIJHGNEM@COMANCHE_MAIN_MFD_MODE_WEAPON@ ; `string'
PUBLIC	??_C@_0BO@ILDEAOBP@COMANCHE_MAIN_MFD_MODE_SYSTEM@ ; `string'
PUBLIC	??_C@_0BO@GCHGEOCB@COMANCHE_MAIN_MFD_MODE_ENGINE@ ; `string'
PUBLIC	??_C@_0BO@BGONGDEH@COMANCHE_MAIN_MFD_MODE_FLIGHT@ ; `string'
PUBLIC	??_C@_0BP@BGOEFDGB@COMANCHE_MAIN_MFD_MODE_MISSION@ ; `string'
PUBLIC	??_C@_0CF@GKLKKOOE@COMANCHE_MAIN_MFD_LOCATION_PILO@ ; `string'
PUBLIC	??_C@_0CF@NKHMIOEI@COMANCHE_MAIN_MFD_LOCATION_PILO@ ; `string'
PUBLIC	??_C@_0CI@KDPADHEA@COMANCHE_MAIN_MFD_LOCATION_CO_P@ ; `string'
PUBLIC	??_C@_0CI@BDDGBHOM@COMANCHE_MAIN_MFD_LOCATION_CO_P@ ; `string'
PUBLIC	??_C@_0BL@LKGEDHBJ@COMANCHE_SIDE_MFD_MODE_OFF@	; `string'
PUBLIC	??_C@_0BP@FFAOBJHN@COMANCHE_SIDE_MFD_MODE_DAMAGED@ ; `string'
PUBLIC	??_C@_0BO@HHJLEGPD@COMANCHE_SIDE_MFD_MODE_WEAPON@ ; `string'
PUBLIC	??_C@_0BO@EEDICFKA@COMANCHE_SIDE_MFD_MODE_SYSTEM@ ; `string'
PUBLIC	??_C@_0BO@KNHKGFJO@COMANCHE_SIDE_MFD_MODE_ENGINE@ ; `string'
PUBLIC	??_C@_0BO@NJOBEIPI@COMANCHE_SIDE_MFD_MODE_FLIGHT@ ; `string'
PUBLIC	??_C@_0CF@DKDCHHAJ@COMANCHE_SIDE_MFD_LOCATION_PILO@ ; `string'
PUBLIC	??_C@_0CF@IKPEFHKF@COMANCHE_SIDE_MFD_LOCATION_PILO@ ; `string'
PUBLIC	??_C@_0CI@LBFDABKH@COMANCHE_SIDE_MFD_LOCATION_CO_P@ ; `string'
PUBLIC	??_C@_0CI@BJFCBAL@COMANCHE_SIDE_MFD_LOCATION_CO_P@ ; `string'
_BSS	SEGMENT
?pilot_lhs_main_mfd_mode@@3W4COMANCHE_MAIN_MFD_MODES@@A DD 01H DUP (?) ; pilot_lhs_main_mfd_mode
?pilot_rhs_main_mfd_mode@@3W4COMANCHE_MAIN_MFD_MODES@@A DD 01H DUP (?) ; pilot_rhs_main_mfd_mode
?co_pilot_lhs_main_mfd_mode@@3W4COMANCHE_MAIN_MFD_MODES@@A DD 01H DUP (?) ; co_pilot_lhs_main_mfd_mode
?co_pilot_rhs_main_mfd_mode@@3W4COMANCHE_MAIN_MFD_MODES@@A DD 01H DUP (?) ; co_pilot_rhs_main_mfd_mode
?pilot_lhs_side_mfd_mode@@3W4COMANCHE_SIDE_MFD_MODES@@A DD 01H DUP (?) ; pilot_lhs_side_mfd_mode
?pilot_rhs_side_mfd_mode@@3W4COMANCHE_SIDE_MFD_MODES@@A DD 01H DUP (?) ; pilot_rhs_side_mfd_mode
?co_pilot_lhs_side_mfd_mode@@3W4COMANCHE_SIDE_MFD_MODES@@A DD 01H DUP (?) ; co_pilot_lhs_side_mfd_mode
?co_pilot_rhs_side_mfd_mode@@3W4COMANCHE_SIDE_MFD_MODES@@A DD 01H DUP (?) ; co_pilot_rhs_side_mfd_mode
_BSS	ENDS
;	COMDAT ??_C@_0CI@BJFCBAL@COMANCHE_SIDE_MFD_LOCATION_CO_P@
CONST	SEGMENT
??_C@_0CI@BJFCBAL@COMANCHE_SIDE_MFD_LOCATION_CO_P@ DB 'COMANCHE_SIDE_MFD_'
	DB	'LOCATION_CO_PILOT_RHS', 00H			; `string'
CONST	ENDS
;	COMDAT ??_C@_0CI@LBFDABKH@COMANCHE_SIDE_MFD_LOCATION_CO_P@
CONST	SEGMENT
??_C@_0CI@LBFDABKH@COMANCHE_SIDE_MFD_LOCATION_CO_P@ DB 'COMANCHE_SIDE_MFD'
	DB	'_LOCATION_CO_PILOT_LHS', 00H		; `string'
CONST	ENDS
;	COMDAT ??_C@_0CF@IKPEFHKF@COMANCHE_SIDE_MFD_LOCATION_PILO@
CONST	SEGMENT
??_C@_0CF@IKPEFHKF@COMANCHE_SIDE_MFD_LOCATION_PILO@ DB 'COMANCHE_SIDE_MFD'
	DB	'_LOCATION_PILOT_RHS', 00H			; `string'
CONST	ENDS
;	COMDAT ??_C@_0CF@DKDCHHAJ@COMANCHE_SIDE_MFD_LOCATION_PILO@
CONST	SEGMENT
??_C@_0CF@DKDCHHAJ@COMANCHE_SIDE_MFD_LOCATION_PILO@ DB 'COMANCHE_SIDE_MFD'
	DB	'_LOCATION_PILOT_LHS', 00H			; `string'
CONST	ENDS
;	COMDAT ??_C@_0BO@NJOBEIPI@COMANCHE_SIDE_MFD_MODE_FLIGHT@
CONST	SEGMENT
??_C@_0BO@NJOBEIPI@COMANCHE_SIDE_MFD_MODE_FLIGHT@ DB 'COMANCHE_SIDE_MFD_M'
	DB	'ODE_FLIGHT', 00H				; `string'
CONST	ENDS
;	COMDAT ??_C@_0BO@KNHKGFJO@COMANCHE_SIDE_MFD_MODE_ENGINE@
CONST	SEGMENT
??_C@_0BO@KNHKGFJO@COMANCHE_SIDE_MFD_MODE_ENGINE@ DB 'COMANCHE_SIDE_MFD_M'
	DB	'ODE_ENGINE', 00H				; `string'
CONST	ENDS
;	COMDAT ??_C@_0BO@EEDICFKA@COMANCHE_SIDE_MFD_MODE_SYSTEM@
CONST	SEGMENT
??_C@_0BO@EEDICFKA@COMANCHE_SIDE_MFD_MODE_SYSTEM@ DB 'COMANCHE_SIDE_MFD_M'
	DB	'ODE_SYSTEM', 00H				; `string'
CONST	ENDS
;	COMDAT ??_C@_0BO@HHJLEGPD@COMANCHE_SIDE_MFD_MODE_WEAPON@
CONST	SEGMENT
??_C@_0BO@HHJLEGPD@COMANCHE_SIDE_MFD_MODE_WEAPON@ DB 'COMANCHE_SIDE_MFD_M'
	DB	'ODE_WEAPON', 00H				; `string'
CONST	ENDS
;	COMDAT ??_C@_0BP@FFAOBJHN@COMANCHE_SIDE_MFD_MODE_DAMAGED@
CONST	SEGMENT
??_C@_0BP@FFAOBJHN@COMANCHE_SIDE_MFD_MODE_DAMAGED@ DB 'COMANCHE_SIDE_MFD_'
	DB	'MODE_DAMAGED', 00H				; `string'
CONST	ENDS
;	COMDAT ??_C@_0BL@LKGEDHBJ@COMANCHE_SIDE_MFD_MODE_OFF@
CONST	SEGMENT
??_C@_0BL@LKGEDHBJ@COMANCHE_SIDE_MFD_MODE_OFF@ DB 'COMANCHE_SIDE_MFD_MODE'
	DB	'_OFF', 00H					; `string'
CONST	ENDS
;	COMDAT ??_C@_0CI@BDDGBHOM@COMANCHE_MAIN_MFD_LOCATION_CO_P@
CONST	SEGMENT
??_C@_0CI@BDDGBHOM@COMANCHE_MAIN_MFD_LOCATION_CO_P@ DB 'COMANCHE_MAIN_MFD'
	DB	'_LOCATION_CO_PILOT_RHS', 00H		; `string'
CONST	ENDS
;	COMDAT ??_C@_0CI@KDPADHEA@COMANCHE_MAIN_MFD_LOCATION_CO_P@
CONST	SEGMENT
??_C@_0CI@KDPADHEA@COMANCHE_MAIN_MFD_LOCATION_CO_P@ DB 'COMANCHE_MAIN_MFD'
	DB	'_LOCATION_CO_PILOT_LHS', 00H		; `string'
CONST	ENDS
;	COMDAT ??_C@_0CF@NKHMIOEI@COMANCHE_MAIN_MFD_LOCATION_PILO@
CONST	SEGMENT
??_C@_0CF@NKHMIOEI@COMANCHE_MAIN_MFD_LOCATION_PILO@ DB 'COMANCHE_MAIN_MFD'
	DB	'_LOCATION_PILOT_RHS', 00H			; `string'
CONST	ENDS
;	COMDAT ??_C@_0CF@GKLKKOOE@COMANCHE_MAIN_MFD_LOCATION_PILO@
CONST	SEGMENT
??_C@_0CF@GKLKKOOE@COMANCHE_MAIN_MFD_LOCATION_PILO@ DB 'COMANCHE_MAIN_MFD'
	DB	'_LOCATION_PILOT_LHS', 00H			; `string'
CONST	ENDS
;	COMDAT ??_C@_0BP@BGOEFDGB@COMANCHE_MAIN_MFD_MODE_MISSION@
CONST	SEGMENT
??_C@_0BP@BGOEFDGB@COMANCHE_MAIN_MFD_MODE_MISSION@ DB 'COMANCHE_MAIN_MFD_'
	DB	'MODE_MISSION', 00H				; `string'
CONST	ENDS
;	COMDAT ??_C@_0BO@BGONGDEH@COMANCHE_MAIN_MFD_MODE_FLIGHT@
CONST	SEGMENT
??_C@_0BO@BGONGDEH@COMANCHE_MAIN_MFD_MODE_FLIGHT@ DB 'COMANCHE_MAIN_MFD_M'
	DB	'ODE_FLIGHT', 00H				; `string'
CONST	ENDS
;	COMDAT ??_C@_0BO@GCHGEOCB@COMANCHE_MAIN_MFD_MODE_ENGINE@
CONST	SEGMENT
??_C@_0BO@GCHGEOCB@COMANCHE_MAIN_MFD_MODE_ENGINE@ DB 'COMANCHE_MAIN_MFD_M'
	DB	'ODE_ENGINE', 00H				; `string'
CONST	ENDS
;	COMDAT ??_C@_0BO@ILDEAOBP@COMANCHE_MAIN_MFD_MODE_SYSTEM@
CONST	SEGMENT
??_C@_0BO@ILDEAOBP@COMANCHE_MAIN_MFD_MODE_SYSTEM@ DB 'COMANCHE_MAIN_MFD_M'
	DB	'ODE_SYSTEM', 00H				; `string'
CONST	ENDS
;	COMDAT ??_C@_0BO@LIJHGNEM@COMANCHE_MAIN_MFD_MODE_WEAPON@
CONST	SEGMENT
??_C@_0BO@LIJHGNEM@COMANCHE_MAIN_MFD_MODE_WEAPON@ DB 'COMANCHE_MAIN_MFD_M'
	DB	'ODE_WEAPON', 00H				; `string'
CONST	ENDS
;	COMDAT ??_C@_0BL@GNFLJHNK@COMANCHE_MAIN_MFD_MODE_ASE@
CONST	SEGMENT
??_C@_0BL@GNFLJHNK@COMANCHE_MAIN_MFD_MODE_ASE@ DB 'COMANCHE_MAIN_MFD_MODE'
	DB	'_ASE', 00H					; `string'
CONST	ENDS
;	COMDAT ??_C@_0BL@BDIHABDG@COMANCHE_MAIN_MFD_MODE_TSD@
CONST	SEGMENT
??_C@_0BL@BDIHABDG@COMANCHE_MAIN_MFD_MODE_TSD@ DB 'COMANCHE_MAIN_MFD_MODE'
	DB	'_TSD', 00H					; `string'
CONST	ENDS
;	COMDAT ??_C@_0BL@KGKBENIJ@COMANCHE_MAIN_MFD_MODE_DVO@
CONST	SEGMENT
??_C@_0BL@KGKBENIJ@COMANCHE_MAIN_MFD_MODE_DVO@ DB 'COMANCHE_MAIN_MFD_MODE'
	DB	'_DVO', 00H					; `string'
CONST	ENDS
;	COMDAT ??_C@_0BL@DOCFDAPP@COMANCHE_MAIN_MFD_MODE_DTV@
CONST	SEGMENT
??_C@_0BL@DOCFDAPP@COMANCHE_MAIN_MFD_MODE_DTV@ DB 'COMANCHE_MAIN_MFD_MODE'
	DB	'_DTV', 00H					; `string'
CONST	ENDS
;	COMDAT ??_C@_0BM@FNKGDNDG@COMANCHE_MAIN_MFD_MODE_FLIR@
CONST	SEGMENT
??_C@_0BM@FNKGDNDG@COMANCHE_MAIN_MFD_MODE_FLIR@ DB 'COMANCHE_MAIN_MFD_MOD'
	DB	'E_FLIR', 00H				; `string'
CONST	ENDS
;	COMDAT ??_C@_0CB@NPPLLCFE@COMANCHE_MAIN_MFD_MODE_AIR_RADA@
CONST	SEGMENT
??_C@_0CB@NPPLLCFE@COMANCHE_MAIN_MFD_MODE_AIR_RADA@ DB 'COMANCHE_MAIN_MFD'
	DB	'_MODE_AIR_RADAR', 00H			; `string'
CONST	ENDS
;	COMDAT ??_C@_0CE@BAGKBDCO@COMANCHE_MAIN_MFD_MODE_GROUND_R@
CONST	SEGMENT
??_C@_0CE@BAGKBDCO@COMANCHE_MAIN_MFD_MODE_GROUND_R@ DB 'COMANCHE_MAIN_MFD'
	DB	'_MODE_GROUND_RADAR', 00H			; `string'
CONST	ENDS
;	COMDAT ??_C@_0BP@OBPLLEL@COMANCHE_MAIN_MFD_MODE_DAMAGED@
CONST	SEGMENT
??_C@_0BP@OBPLLEL@COMANCHE_MAIN_MFD_MODE_DAMAGED@ DB 'COMANCHE_MAIN_MFD_M'
	DB	'ODE_DAMAGED', 00H				; `string'
CONST	ENDS
;	COMDAT ??_C@_0BL@LMEENCLB@COMANCHE_MAIN_MFD_MODE_OFF@
CONST	SEGMENT
??_C@_0BL@LMEENCLB@COMANCHE_MAIN_MFD_MODE_OFF@ DB 'COMANCHE_MAIN_MFD_MODE'
	DB	'_OFF', 00H					; `string'
CONST	ENDS
PUBLIC	___local_stdio_printf_options
PUBLIC	__vsnprintf_l
PUBLIC	__vsprintf_l
PUBLIC	_sprintf
PUBLIC	_atan2f
PUBLIC	_cosf
PUBLIC	_fmodf
PUBLIC	_sinf
PUBLIC	_sqrtf
PUBLIC	_tanf
PUBLIC	?atan2@@YGMMM@Z					; atan2
PUBLIC	?cos@@YGMM@Z					; cos
PUBLIC	?fmod@@YGMMM@Z					; fmod
PUBLIC	?sin@@YGMM@Z					; sin
PUBLIC	?sqrt@@YGMM@Z					; sqrt
PUBLIC	?tan@@YGMM@Z					; tan
PUBLIC	?initialise_comanche_mfd@@YGXXZ			; initialise_comanche_mfd
PUBLIC	?deinitialise_comanche_mfd@@YGXXZ		; deinitialise_comanche_mfd
PUBLIC	?draw_comanche_mfd@@YGXXZ			; draw_comanche_mfd
PUBLIC	?set_comanche_text_display_text@@YGXPAD0@Z	; set_comanche_text_display_text
PUBLIC	?draw_comanche_full_screen_display@@YGXXZ	; draw_comanche_full_screen_display
PUBLIC	?draw_overlaid_comanche_mfd@@YGXXZ		; draw_overlaid_comanche_mfd
PUBLIC	?get_comanche_main_mfd_has_focus@@YGHW4COMANCHE_MAIN_MFD_LOCATIONS@@@Z ; get_comanche_main_mfd_has_focus
PUBLIC	?select_comanche_main_mfd_mode@@YGXW4COMANCHE_MAIN_MFD_MODES@@W4COMANCHE_MAIN_MFD_LOCATIONS@@@Z ; select_comanche_main_mfd_mode
PUBLIC	?select_comanche_side_mfd_mode@@YGXW4COMANCHE_SIDE_MFD_MODES@@W4COMANCHE_SIDE_MFD_LOCATIONS@@@Z ; select_comanche_side_mfd_mode
PUBLIC	?select_next_comanche_side_mfd@@YGXW4COMANCHE_SIDE_MFD_LOCATIONS@@@Z ; select_next_comanche_side_mfd
PUBLIC	?select_next_comanche_main_mfd@@YGXW4COMANCHE_MAIN_MFD_LOCATIONS@@@Z ; select_next_comanche_main_mfd
PUBLIC	?select_previous_comanche_main_mfd@@YGXW4COMANCHE_MAIN_MFD_LOCATIONS@@@Z ; select_previous_comanche_main_mfd
PUBLIC	?toggle_comanche_main_mfd_on_off@@YGXW4COMANCHE_MAIN_MFD_LOCATIONS@@@Z ; toggle_comanche_main_mfd_on_off
PUBLIC	?toggle_comanche_side_mfd_on_off@@YGXW4COMANCHE_SIDE_MFD_LOCATIONS@@@Z ; toggle_comanche_side_mfd_on_off
PUBLIC	?select_next_comanche_pilot_tsd_ase_range@@YGXXZ ; select_next_comanche_pilot_tsd_ase_range
PUBLIC	?select_next_comanche_co_pilot_tsd_ase_range@@YGXXZ ; select_next_comanche_co_pilot_tsd_ase_range
PUBLIC	?select_previous_comanche_pilot_tsd_ase_range@@YGXXZ ; select_previous_comanche_pilot_tsd_ase_range
PUBLIC	?select_previous_comanche_co_pilot_tsd_ase_range@@YGXXZ ; select_previous_comanche_co_pilot_tsd_ase_range
PUBLIC	?select_next_comanche_pilot_tsd_declutter_level@@YGXXZ ; select_next_comanche_pilot_tsd_declutter_level
PUBLIC	?select_next_comanche_co_pilot_tsd_declutter_level@@YGXXZ ; select_next_comanche_co_pilot_tsd_declutter_level
PUBLIC	?select_previous_comanche_pilot_tsd_declutter_level@@YGXXZ ; select_previous_comanche_pilot_tsd_declutter_level
PUBLIC	?select_previous_comanche_co_pilot_tsd_declutter_level@@YGXXZ ; select_previous_comanche_co_pilot_tsd_declutter_level
PUBLIC	?toggle_comanche_ase_auto_page@@YGXXZ		; toggle_comanche_ase_auto_page
PUBLIC	?auto_page_comanche_ase_main_mfd@@YGXXZ		; auto_page_comanche_ase_main_mfd
PUBLIC	?select_comanche_ground_radar_main_mfd@@YGXXZ	; select_comanche_ground_radar_main_mfd
PUBLIC	?select_comanche_air_radar_main_mfd@@YGXXZ	; select_comanche_air_radar_main_mfd
PUBLIC	?select_comanche_tads_main_mfd@@YGXXZ		; select_comanche_tads_main_mfd
PUBLIC	??$max@M@std@@YGABMABM0@Z			; std::max<float>
PUBLIC	??$min@M@std@@YGABMABM0@Z			; std::min<float>
PUBLIC	?_OptionsStorage@?1??__local_stdio_printf_options@@9@4_KA ; `__local_stdio_printf_options'::`2'::_OptionsStorage
PUBLIC	??_C@_02DKCKIIND@?$CFs@				; `string'
PUBLIC	?__LINE__Var@?0??transform_mfd_screen_co_ords_to_mfd_texture_co_ords@@YGXPAM0@Z@4JA ; `transform_mfd_screen_co_ords_to_mfd_texture_co_ords'::`1'::__LINE__Var
PUBLIC	??_C@_0FA@HHDNPPJG@c?3?2users?2nhv90?2projects?2eech?2ap@ ; `string'
PUBLIC	??_C@_01KBJDNOO@i@				; `string'
PUBLIC	??_C@_01CBDEGOCN@j@				; `string'
PUBLIC	??_C@_02DPKJAMEF@?$CFd@				; `string'
PUBLIC	??_C@_03GOOLIKIF@?$CF3d@			; `string'
PUBLIC	??_C@_04OGKJMPGK@?$CF02d@			; `string'
PUBLIC	??_C@_04HPNJOLEN@?$CF3do@			; `string'
PUBLIC	?__LINE__Var@?0??draw_heading_scale@@YGXMH@Z@4JA ; `draw_heading_scale'::`1'::__LINE__Var
PUBLIC	??_C@_04OHGLKFFN@?$CF03d@			; `string'
PUBLIC	?__LINE__Var@?0??display_navigation_info@@YGXXZ@4JA ; `display_navigation_info'::`1'::__LINE__Var
PUBLIC	??_C@_06JCIGMCHD@?$CFc?3?$CFdm@			; `string'
PUBLIC	??_C@_09EKFBJBJG@?$CFc?3?$CF?41fKm@		; `string'
PUBLIC	??_C@_07CFANIJPM@?$CFc?3?$CFdKm@		; `string'
PUBLIC	??_C@_06BAOIPBEF@?9?3?9?9?4?9@			; `string'
PUBLIC	??_C@_0P@PLMNPDMB@?$CF02d?3?$CF02d?3?$CF02d@	; `string'
PUBLIC	??_C@_08JGCGJPK@?9?9?3?9?9?3?9?9@		; `string'
PUBLIC	??_C@_05KABNCBHK@?$CFd?0?$CFd@			; `string'
PUBLIC	??_C@_05MDNKIPAL@?$CFd?5lb@			; `string'
PUBLIC	??_C@_05LIPABGF@?$CF?40fm@			; `string'
PUBLIC	??_C@_06NBEADFGO@?$CF?40fKm@			; `string'
PUBLIC	??_C@_03MAMPKPPK@XXX@				; `string'
PUBLIC	?__LINE__Var@?0??display_radar_target_details@@YGXPAUENTITY@@MPAURADAR_PARAMS@@@Z@4JA ; `display_radar_target_details'::`1'::__LINE__Var
PUBLIC	??_C@_05EMNNHGFM@radar@				; `string'
PUBLIC	??_C@_03NGNKAJPJ@?$CFdm@			; `string'
PUBLIC	??_C@_06OMCABMNO@?$CF?41fKm@			; `string'
PUBLIC	??_C@_06HCPKJKPH@NO?5LOS@			; `string'
PUBLIC	??_C@_04LMMJFDCN@AUTO@				; `string'
PUBLIC	??_C@_06KODELPLK@LOCKED@			; `string'
PUBLIC	??_C@_06GPMJGLEM@MARKED@			; `string'
PUBLIC	?__LINE__Var@?0??draw_radar_target_symbol@@YGXPAUENTITY@@PAUVEC3D@@MHH@Z@4JA ; `draw_radar_target_symbol'::`1'::__LINE__Var
PUBLIC	??_C@_06JJLAMBGK@target@			; `string'
PUBLIC	??_C@_0BA@IIPCKJML@source_position@		; `string'
PUBLIC	??_C@_0EE@DBLNIBMF@?$CBget_local_entity_int_value?5?$CIta@ ; `string'
PUBLIC	??_C@_0EM@GKFLGKNK@?$CItarget_symbol_type?5?$DO?$DN?50?$CJ?5?$CG?$CG?5?$CIt@ ; `string'
PUBLIC	?__LINE__Var@?0??draw_ground_radar_clutter@@YGXPAUENTITY@@PAUVEC3D@@M@Z@4JA ; `draw_ground_radar_clutter'::`1'::__LINE__Var
PUBLIC	??_C@_0DD@KDAGALDF@get_local_entity_type?5?$CItarget?$CJ?5@ ; `string'
PUBLIC	?__LINE__Var@?0??draw_ground_radar_mfd@@YGXXZ@4JA ; `draw_ground_radar_mfd'::`1'::__LINE__Var
PUBLIC	??_C@_03NIFPGLBG@ALL@				; `string'
PUBLIC	??_C@_03IBEFMGAI@LOW@				; `string'
PUBLIC	??_C@_06HMBFJLMK@MEDIUM@			; `string'
PUBLIC	??_C@_03FFIBGFCJ@MED@				; `string'
PUBLIC	??_C@_04PKDHFCJF@HIGH@				; `string'
PUBLIC	??_C@_04MGKDMHFC@MARK@				; `string'
PUBLIC	?__LINE__Var@?0??draw_air_radar_mfd@@YGXXZ@4JA	; `draw_air_radar_mfd'::`1'::__LINE__Var
PUBLIC	??_C@_05EJJKHDCK@ENEMY@				; `string'
PUBLIC	?__LINE__Var@?0??draw_3d_eo_display@@YGXPAUEO_PARAMS_DYNAMIC_MOVE@@W4TARGET_ACQUISITION_SYSTEMS@@@Z@4JA ; `draw_3d_eo_display'::`1'::__LINE__Var
PUBLIC	??_C@_02KMMHFIEO@eo@				; `string'
PUBLIC	??_C@_0BF@MDEHLDP@eo_3d_texture_screen@		; `string'
PUBLIC	??_C@_0EK@DPCFPJPF@?$CIweather_mode?5?$DO?5WEATHERMODE_INV@ ; `string'
PUBLIC	??_C@_0EG@LLJGIOPM@?$CIday_segment_type?5?$DO?$DN?50?$CJ?5?$CG?$CG?5?$CIday@ ; `string'
PUBLIC	??_C@_0CH@DDKDNBNH@Invalid?5target?5acquisition?5syst@ ; `string'
PUBLIC	?__LINE__Var@?0??draw_full_screen_3d_eo_display@@YGXPAUEO_PARAMS_DYNAMIC_MOVE@@W4TARGET_ACQUISITION_SYSTEMS@@@Z@4JA ; `draw_full_screen_3d_eo_display'::`1'::__LINE__Var
PUBLIC	?__LINE__Var@?0??draw_2d_eo_display@@YGXPAUEO_PARAMS_DYNAMIC_MOVE@@W4TARGET_ACQUISITION_SYSTEMS@@HH@Z@4JA ; `draw_2d_eo_display'::`1'::__LINE__Var
PUBLIC	??_C@_04MIGKMLBH@FLIR@				; `string'
PUBLIC	??_C@_03ENJJJDDH@DTV@				; `string'
PUBLIC	??_C@_03NFBNOOEB@DVO@				; `string'
PUBLIC	??_C@_08JFLECGBM@LO?5LIGHT@			; `string'
PUBLIC	??_C@_02ONPABID@LO@				; `string'
PUBLIC	??_C@_04GGBPDDBN@?$CF?41f@			; `string'
PUBLIC	??_C@_01CPLAODJH@S@				; `string'
PUBLIC	??_C@_06BLLIFECI@?$CF3d?5FT@			; `string'
PUBLIC	??_C@_07FGFCMGOE@?$CF3d?5KTS@			; `string'
PUBLIC	??_C@_09ICGCKLLB@LOW?5LIGHT@			; `string'
PUBLIC	??_C@_0L@CPHGBHEJ@CP?1G?5ID?4?4?4@		; `string'
PUBLIC	??_C@_0BD@PMDJPBGC@?$CFc?$CF04d?5M?5?5?5?$CF3d?5KPH@ ; `string'
PUBLIC	?__LINE__Var@?0??draw_heading_scale_tsd@@YGXMH@Z@4JA ; `draw_heading_scale_tsd'::`1'::__LINE__Var
PUBLIC	?__LINE__Var@?0??draw_tactical_situation_display_mfd@@YGXW4COMANCHE_MAIN_MFD_LOCATIONS@@@Z@4JA ; `draw_tactical_situation_display_mfd'::`1'::__LINE__Var
PUBLIC	??_C@_0DA@GBKBAHOG@comanche_main_mfd_location_vali@ ; `string'
PUBLIC	??_C@_06LLLMNJMM@NO?5ACQ@			; `string'
PUBLIC	??_C@_03JKJFCLEN@FCR@				; `string'
PUBLIC	??_C@_04DBODHFDK@TADS@				; `string'
PUBLIC	??_C@_05BDMPLNHB@HIDSS@				; `string'
PUBLIC	??_C@_00CNPNBAHC@@				; `string'
PUBLIC	??_C@_03DGGJGKKM@GND@				; `string'
PUBLIC	??_C@_03KNFJGCC@AIR@				; `string'
PUBLIC	??_C@_03CIAFGHAC@2Km@				; `string'
PUBLIC	??_C@_03LFNCFPLL@5Km@				; `string'
PUBLIC	??_C@_04PJCLBGLO@10Km@				; `string'
PUBLIC	??_C@_04IJFFJMFM@25Km@				; `string'
PUBLIC	??_C@_03DBNGLLAD@TGT@				; `string'
PUBLIC	??_C@_03DIMJBCMI@NAV@				; `string'
PUBLIC	?__LINE__Var@?0??get_closest_missile@@YGPAUENTITY@@PAU2@PAUVEC3D@@W4THREAT_TYPES@@PAM@Z@4JA ; `get_closest_missile'::`1'::__LINE__Var
PUBLIC	??_C@_06OEKOLKIL@source@			; `string'
PUBLIC	??_C@_0IB@DOFIAAGF@?$CIthreat_type?5?$DN?$DN?5THREAT_TYPE_RF_@ ; `string'
PUBLIC	?__LINE__Var@?0??draw_aircraft_survivability_equipment_display_mfd@@YGXW4COMANCHE_MAIN_MFD_LOCATIONS@@@Z@4JA ; `draw_aircraft_survivability_equipment_display_mfd'::`1'::__LINE__Var
PUBLIC	??_C@_0M@MLJDMDII@IR?5MSL?3?$CF?41f@		; `string'
PUBLIC	??_C@_0M@KIDGDNDD@RF?5MSL?3?$CF?41f@		; `string'
PUBLIC	??_C@_0M@JCLOGLFI@LS?5MSL?3?$CF?41f@		; `string'
PUBLIC	??_C@_0L@DADPKEOI@IR?5JAM?5XXX@			; `string'
PUBLIC	??_C@_09OKBKNIAL@IR?5JAM?5ON@			; `string'
PUBLIC	??_C@_0L@DPAIHKGL@IR?5JAM?5OFF@			; `string'
PUBLIC	??_C@_06CNPDBJMK@IR?5XXX@			; `string'
PUBLIC	??_C@_05JBLHJOBL@IR?5ON@			; `string'
PUBLIC	??_C@_06CCMEMHEJ@IR?5OFF@			; `string'
PUBLIC	??_C@_0L@JHFIBGMI@RD?5JAM?5XXX@			; `string'
PUBLIC	??_C@_09OKIOJJOP@RD?5JAM?5ON@			; `string'
PUBLIC	??_C@_0L@JIGPMIEL@RD?5JAM?5OFF@			; `string'
PUBLIC	??_C@_06JNKFDAHI@RD?5XXX@			; `string'
PUBLIC	??_C@_05BHAGAOGB@RD?5ON@			; `string'
PUBLIC	??_C@_06JCJCOOPL@RD?5OFF@			; `string'
PUBLIC	??_C@_08GHAEIHAP@CHAFF?3XX@			; `string'
PUBLIC	??_C@_0L@CNOKAJIH@CHAFF?3?$CF02d@		; `string'
PUBLIC	??_C@_04KJNFJKOK@C?3XX@				; `string'
PUBLIC	??_C@_06GNOFKMCG@C?3?$CF02d@			; `string'
PUBLIC	??_C@_08HGDOPGOH@FLARE?3XX@			; `string'
PUBLIC	??_C@_0L@JMEPCAPD@FLARE?3?$CF02d@		; `string'
PUBLIC	??_C@_04GBDFBFJK@F?3XX@				; `string'
PUBLIC	??_C@_06DPNNIDIB@F?3?$CF02d@			; `string'
PUBLIC	?__LINE__Var@?0??draw_weapon_display_mfd@@YGXXZ@4JA ; `draw_weapon_display_mfd'::`1'::__LINE__Var
PUBLIC	??_C@_03NHPMNECN@ARM@				; `string'
PUBLIC	??_C@_03CBNMOHKF@C?1M@				; `string'
PUBLIC	??_C@_0L@GPHKKCOA@CHAFFx?$CF02d@		; `string'
PUBLIC	??_C@_06CPHFAHEB@Cx?$CF02d@			; `string'
PUBLIC	??_C@_08FGBJBHLJ@CHAFFxXX@			; `string'
PUBLIC	??_C@_04JIMIAKFM@CxXX@				; `string'
PUBLIC	??_C@_0L@NONPILJE@FLAREx?$CF02d@		; `string'
PUBLIC	??_C@_06HNENCIOG@Fx?$CF02d@			; `string'
PUBLIC	??_C@_08EHCDGGFB@FLARExXX@			; `string'
PUBLIC	??_C@_04FACIIFCM@FxXX@				; `string'
PUBLIC	??_C@_07MPAMKEAB@?$CFsx?$CF03d@			; `string'
PUBLIC	??_C@_05HGDIBGHI@x?$CF02d@			; `string'
PUBLIC	??_C@_0BB@FAFOJLKK@ROCKET?5SALVOxALL@		; `string'
PUBLIC	??_C@_0BC@CEPGDBDN@ROCKET?5SALVOx?$CF02d@	; `string'
PUBLIC	?__LINE__Var@?0??draw_weapon_display_side_mfd@@YGXXZ@4JA ; `draw_weapon_display_side_mfd'::`1'::__LINE__Var
PUBLIC	??_C@_08BLEPAFKM@CHFx?$CF02d@			; `string'
PUBLIC	??_C@_06JNIOEKKK@CHFxXX@			; `string'
PUBLIC	??_C@_08EGADPGME@FLRx?$CF02d@			; `string'
PUBLIC	??_C@_06MBEHBGFJ@FLRxXX@			; `string'
PUBLIC	?__LINE__Var@?0??print_main_mfd_system_message@@YGMPAD0HM@Z@4JA ; `print_main_mfd_system_message'::`1'::__LINE__Var
PUBLIC	??_C@_09FJJPPKDN@equipment@			; `string'
PUBLIC	??_C@_07FPLKDJGL@warning@			; `string'
PUBLIC	??_C@_02GIPFHKNO@OK@				; `string'
PUBLIC	??_C@_04OOEBCMBF@FAIL@				; `string'
PUBLIC	??_C@_05IHELJBBC@RADAR@				; `string'
PUBLIC	??_C@_0BB@FAAHBEKJ@LASER?5DESIGNATOR@		; `string'
PUBLIC	??_C@_0N@JDBOFCJG@RADAR?5JAMMER@		; `string'
PUBLIC	??_C@_09MILGCPFO@IR?5JAMMER@			; `string'
PUBLIC	??_C@_0BE@LJHOKBLO@NAVIGATION?5COMPUTER@	; `string'
PUBLIC	??_C@_0P@OEDGDHNF@COMMUNICATIONS@		; `string'
PUBLIC	??_C@_0BF@OLLBDBDO@RADAR?5WARNING?5SYSTEM@	; `string'
PUBLIC	??_C@_04IDKCLELC@PNVS@				; `string'
PUBLIC	??_C@_0L@LMAEBBOE@STABILISER@			; `string'
PUBLIC	??_C@_0L@FFIGCBMA@MAIN?5ROTOR@			; `string'
PUBLIC	??_C@_07OHKEFPKJ@DAMAGED@			; `string'
PUBLIC	??_C@_0L@MCBINMPD@TAIL?5ROTOR@			; `string'
PUBLIC	??_C@_08ICMALC@L?5ENGINE@			; `string'
PUBLIC	??_C@_03KMHDAHAO@SPU@				; `string'
PUBLIC	??_C@_08GEIAFJFB@R?5ENGINE@			; `string'
PUBLIC	??_C@_0BD@KOEIBOKB@HYDRAULIC?5PRESSURE@		; `string'
PUBLIC	??_C@_0N@MMJNGGCF@OIL?5PRESSURE@		; `string'
PUBLIC	?__LINE__Var@?0??print_side_mfd_system_message@@YGMPAD0HM@Z@4JA ; `print_side_mfd_system_message'::`1'::__LINE__Var
PUBLIC	??_C@_09OPLGMBDG@LASER?5DES@			; `string'
PUBLIC	??_C@_09GHHHIMHM@RADAR?5JAM@			; `string'
PUBLIC	??_C@_08LDOFABDJ@NAV?5COMP@			; `string'
PUBLIC	??_C@_05JNPIHJOC@COMMS@				; `string'
PUBLIC	??_C@_0L@LICEJPGO@RADAR?5WARN@			; `string'
PUBLIC	??_C@_04BMBAGHMP@DMGD@				; `string'
PUBLIC	??_C@_09DAHIHAFG@HYD?5PRESS@			; `string'
PUBLIC	??_C@_09KNIBDCOL@OIL?5PRESS@			; `string'
PUBLIC	??_C@_08HFKNNLAF@FUEL?5QTY@			; `string'
PUBLIC	??_C@_07MGEFOJJP@?$CF04d?5lb@			; `string'
PUBLIC	??_C@_08PLAGFMEO@THROTTLE@			; `string'
PUBLIC	??_C@_04LMJCBFEL@OFF?5@				; `string'
PUBLIC	??_C@_04IMMGDCFE@IDLE@				; `string'
PUBLIC	??_C@_04MJEFHDBD@FLY?5@				; `string'
PUBLIC	??_C@_06HPNMMHPJ@?$CF03d?$CF?$CF@		; `string'
PUBLIC	??_C@_09PEMPOEMF@?5?$CFs?5?5OFF?5@		; `string'
PUBLIC	??_C@_09MEJLMDNK@?5?$CFs?5?5IDLE@		; `string'
PUBLIC	??_C@_09IBBIICJN@?5?$CFs?5?5FLY?5@		; `string'
PUBLIC	??_C@_0M@BAGGPIOL@?5?$CFs?5?5?$CF03d?$CF?$CF@	; `string'
PUBLIC	??_C@_0L@BAMMPCGJ@SPU?5?$CF03d?$CF?$CF@		; `string'
PUBLIC	??_C@_02PCDHLJPB@NR@				; `string'
PUBLIC	??_C@_02MAABNLHD@NP@				; `string'
PUBLIC	??_C@_02MFICFPOF@NG@				; `string'
PUBLIC	??_C@_02MIKLMMJE@TQ@				; `string'
PUBLIC	??_C@_02NEDDHJED@TG@				; `string'
PUBLIC	??_C@_02LLHBHPMO@LB@				; `string'
PUBLIC	??_C@_04OCCELDNI@?$CF04d@			; `string'
PUBLIC	?__LINE__Var@?0??draw_pitch_ladder@@YGXXZ@4JA	; `draw_pitch_ladder'::`1'::__LINE__Var
PUBLIC	??_C@_03NJMPCKOA@?$CFd0@			; `string'
PUBLIC	?__LINE__Var@?0??draw_flight_display_mfd@@YGXXZ@4JA ; `draw_flight_display_mfd'::`1'::__LINE__Var
PUBLIC	?__LINE__Var@?0??draw_flight_display_side_mfd@@YGXXZ@4JA ; `draw_flight_display_side_mfd'::`1'::__LINE__Var
PUBLIC	?__LINE__Var@?0??print_mono_font_max_length_string@@YGXPAD@Z@4JA ; `print_mono_font_max_length_string'::`1'::__LINE__Var
PUBLIC	??_C@_01LKDEMHDF@s@				; `string'
PUBLIC	??_C@_05KEIIKJGB@?$CF?431s@			; `string'
PUBLIC	?__LINE__Var@?0??get_player_rank_and_name@@YGPADPAUENTITY@@PAD@Z@4JA ; `get_player_rank_and_name'::`1'::__LINE__Var
PUBLIC	??_C@_02LFNMGJAP@en@				; `string'
PUBLIC	??_C@_06HOHPNJLC@buffer@			; `string'
PUBLIC	??_C@_05DNIIFBMG@?$CFs?5?$CFs@			; `string'
PUBLIC	?__LINE__Var@?0??print_target_position@@YGXPAUENTITY@@0@Z@4JA ; `print_target_position'::`1'::__LINE__Var
PUBLIC	??_C@_08OAGMDKAF@position@			; `string'
PUBLIC	??_C@_0CA@NPMPDHNJ@?5?5?5?5?5?5?5?$DM?$CF03d?0?$CF03d?$DO?5?$CF6?41fKm?5?$CF3d?$HP@ ; `string'
PUBLIC	?__LINE__Var@?0??draw_mission_display_mfd@@YGXXZ@4JA ; `draw_mission_display_mfd'::`1'::__LINE__Var
PUBLIC	??_C@_0N@DBEHAMGN@FLIGHT?5GROUP@		; `string'
PUBLIC	??_C@_07MLNBPDHK@company@			; `string'
PUBLIC	??_C@_03DKEJHHJP@?$CFs?3@			; `string'
PUBLIC	??_C@_0N@CPCKCPHJ@?$CFc?$CFs?51?9?$CFd?5?$CFs@	; `string'
PUBLIC	??_C@_09JGJHKNML@?$CFc1?9?$CFd?5?$CFs@		; `string'
PUBLIC	??_C@_09EKFLINLD@?$CFc?$CFs?51?9?$CFd@		; `string'
PUBLIC	??_C@_06IAHIIHDD@?$CFc1?9?$CFd@			; `string'
PUBLIC	??_C@_0N@JBFLAFMH@FORMATION?3?$CFs@		; `string'
PUBLIC	??_C@_0DJ@FHGBBPHP@get_local_entity_int_value?5?$CItas@ ; `string'
PUBLIC	??_C@_07PPFPLHID@MISSION@			; `string'
PUBLIC	??_C@_09FCABHDEH@TYPE?5?5?3?$CFs@		; `string'
PUBLIC	??_C@_09MMJDMDOM@OBJECT?3?$CFs@			; `string'
PUBLIC	??_C@_09NFLHCPML@STATUS?3?$CFs@			; `string'
PUBLIC	??_C@_09MDEJFDEL@START?5?3?$CFs@		; `string'
PUBLIC	??_C@_09HDLDOKLK@END?5?5?5?3?$CFs@		; `string'
PUBLIC	??_C@_0BK@MIBJHEEL@COUNT?5?3Kills?$DN?$CFd?5Losses?$DN?$CFd@ ; `string'
PUBLIC	??_C@_0CL@NLIKEJAC@TIME?5?5?3MT?$DN?$CF02d?3?$CF02d?3?$CF02d?5MD?$DN?$CF02@ ; `string'
PUBLIC	?__LINE__Var@?0??draw_main_mfd@@YGXPAUSCREEN@@PAW4COMANCHE_MAIN_MFD_MODES@@W4COMANCHE_MAIN_MFD_LOCATIONS@@@Z@4JA ; `draw_main_mfd'::`1'::__LINE__Var
PUBLIC	??_C@_0L@DHCAJMOH@mfd_screen@			; `string'
PUBLIC	??_C@_0CF@FODDHBHE@comanche_main_mfd_mode_valid?5?$CI?$CK@ ; `string'
PUBLIC	??_C@_0CM@LICEEPAH@comanche_main_mfd_location_vali@ ; `string'
PUBLIC	??_C@_0BL@EJABPDDO@Invalid?5main?5MFD?5mode?5?$DN?5?$CFd@ ; `string'
PUBLIC	?__LINE__Var@?0??draw_side_mfd@@YGXPAUSCREEN@@W4COMANCHE_SIDE_MFD_MODES@@W4COMANCHE_SIDE_MFD_LOCATIONS@@@Z@4JA ; `draw_side_mfd'::`1'::__LINE__Var
PUBLIC	??_C@_0CE@MAAALHOP@comanche_side_mfd_mode_valid?5?$CIm@ ; `string'
PUBLIC	??_C@_0CM@KFPJDBMG@comanche_side_mfd_location_vali@ ; `string'
PUBLIC	??_C@_0BL@JBAKPIAB@Invalid?5side?5MFD?5mode?5?$DN?5?$CFd@ ; `string'
PUBLIC	?__LINE__Var@?0??draw_text_display@@YGXPAUSCREEN@@@Z@4JA ; `draw_text_display'::`1'::__LINE__Var
PUBLIC	??_C@_0M@CPFKEDIA@text_screen@			; `string'
PUBLIC	?__LINE__Var@?0??initialise_comanche_mfd@@YGXXZ@4JA ; `initialise_comanche_mfd'::`1'::__LINE__Var
PUBLIC	??_C@_0DA@KDAIMOAB@num_main_weapon_line_points_wit@ ; `string'
PUBLIC	??_C@_0DH@OOPGJMJB@?$CInum_main_weapon_line_points_wi@ ; `string'
PUBLIC	??_C@_0DD@IMKGINEB@num_main_weapon_line_points_wit@ ; `string'
PUBLIC	??_C@_0DK@NKPFIOED@?$CInum_main_weapon_line_points_wi@ ; `string'
PUBLIC	??_C@_0DA@MADCCJGI@num_side_weapon_line_points_wit@ ; `string'
PUBLIC	??_C@_0DH@IOPOLEHA@?$CInum_side_weapon_line_points_wi@ ; `string'
PUBLIC	??_C@_0DD@BMJDMBBE@num_side_weapon_line_points_wit@ ; `string'
PUBLIC	??_C@_0DK@CBFDBCCM@?$CInum_side_weapon_line_points_wi@ ; `string'
PUBLIC	?__LINE__Var@?0??draw_comanche_mfd@@YGXXZ@4JA	; `draw_comanche_mfd'::`1'::__LINE__Var
PUBLIC	?__LINE__Var@?0??set_comanche_text_display_text@@YGXPAD0@Z@4JA ; `set_comanche_text_display_text'::`1'::__LINE__Var
PUBLIC	??_C@_02JAFEPHFG@s1@				; `string'
PUBLIC	??_C@_02LLHJKEJF@s2@				; `string'
PUBLIC	??_C@_0BH@KFJLEDAI@Invalid?5view?5mode?5?$DN?5?$CFd@ ; `string'
PUBLIC	?__LINE__Var@?0??draw_overlaid_main_mfd@@YGXPAUSCREEN@@W4COMANCHE_MAIN_MFD_MODES@@W4COMANCHE_MAIN_MFD_LOCATIONS@@@Z@4JA ; `draw_overlaid_main_mfd'::`1'::__LINE__Var
PUBLIC	??_C@_0CE@ENKIGGJP@comanche_main_mfd_mode_valid?5?$CIm@ ; `string'
PUBLIC	?__LINE__Var@?0??get_comanche_main_mfd_has_focus@@YGHW4COMANCHE_MAIN_MFD_LOCATIONS@@@Z@4JA ; `get_comanche_main_mfd_has_focus'::`1'::__LINE__Var
PUBLIC	??_C@_0BH@BHIMKDNE@Invalid?5EO?5sensor?5?$DN?5?$CFd@ ; `string'
PUBLIC	?__LINE__Var@?0??get_default_main_mfd_mode@@YG?AW4COMANCHE_MAIN_MFD_MODES@@W4COMANCHE_MAIN_MFD_LOCATIONS@@@Z@4JA ; `get_default_main_mfd_mode'::`1'::__LINE__Var
PUBLIC	?__LINE__Var@?0??get_default_side_mfd_mode@@YG?AW4COMANCHE_SIDE_MFD_MODES@@W4COMANCHE_SIDE_MFD_LOCATIONS@@@Z@4JA ; `get_default_side_mfd_mode'::`1'::__LINE__Var
PUBLIC	??_C@_0DA@KGKPBMFE@comanche_side_mfd_location_vali@ ; `string'
PUBLIC	?__LINE__Var@?0??get_main_mfd_damage@@YGHW4COMANCHE_MAIN_MFD_LOCATIONS@@@Z@4JA ; `get_main_mfd_damage'::`1'::__LINE__Var
PUBLIC	?__LINE__Var@?0??get_side_mfd_damage@@YGHW4COMANCHE_SIDE_MFD_LOCATIONS@@@Z@4JA ; `get_side_mfd_damage'::`1'::__LINE__Var
PUBLIC	?__LINE__Var@?0??select_comanche_main_mfd_mode@@YGXW4COMANCHE_MAIN_MFD_MODES@@W4COMANCHE_MAIN_MFD_LOCATIONS@@@Z@4JA ; `select_comanche_main_mfd_mode'::`1'::__LINE__Var
PUBLIC	??_C@_0CI@FGMPFPHJ@comanche_main_mfd_mode_valid?5?$CIm@ ; `string'
PUBLIC	??_C@_07DCHAPOBD@?$CFs?5?$DN?5?$CFs@		; `string'
PUBLIC	??_C@_0BN@OAODKMFN@default_mfd_mode?5?$CB?$DN?5mfd_mode@ ; `string'
PUBLIC	?__LINE__Var@?0??select_comanche_side_mfd_mode@@YGXW4COMANCHE_SIDE_MFD_MODES@@W4COMANCHE_SIDE_MFD_LOCATIONS@@@Z@4JA ; `select_comanche_side_mfd_mode'::`1'::__LINE__Var
PUBLIC	??_C@_0CI@EEGMGJJO@comanche_side_mfd_mode_valid?5?$CIm@ ; `string'
PUBLIC	?__LINE__Var@?0??get_next_side_mfd_mode@@YG?AW4COMANCHE_SIDE_MFD_MODES@@W42@W4COMANCHE_SIDE_MFD_LOCATIONS@@@Z@4JA ; `get_next_side_mfd_mode'::`1'::__LINE__Var
PUBLIC	?__LINE__Var@?0??get_next_main_mfd_mode@@YG?AW4COMANCHE_MAIN_MFD_MODES@@W42@W4COMANCHE_MAIN_MFD_LOCATIONS@@@Z@4JA ; `get_next_main_mfd_mode'::`1'::__LINE__Var
PUBLIC	?__LINE__Var@?0??get_previous_main_mfd_mode@@YG?AW4COMANCHE_MAIN_MFD_MODES@@W42@W4COMANCHE_MAIN_MFD_LOCATIONS@@@Z@4JA ; `get_previous_main_mfd_mode'::`1'::__LINE__Var
PUBLIC	?__LINE__Var@?0??select_next_comanche_side_mfd@@YGXW4COMANCHE_SIDE_MFD_LOCATIONS@@@Z@4JA ; `select_next_comanche_side_mfd'::`1'::__LINE__Var
PUBLIC	??_C@_0CA@HJLHJBNK@next_mfd_mode?5?$CB?$DN?5?$CKmfd_mode_ptr2@ ; `string'
PUBLIC	?__LINE__Var@?0??select_next_comanche_main_mfd@@YGXW4COMANCHE_MAIN_MFD_LOCATIONS@@@Z@4JA ; `select_next_comanche_main_mfd'::`1'::__LINE__Var
PUBLIC	?__LINE__Var@?0??select_previous_comanche_main_mfd@@YGXW4COMANCHE_MAIN_MFD_LOCATIONS@@@Z@4JA ; `select_previous_comanche_main_mfd'::`1'::__LINE__Var
PUBLIC	??_C@_0CE@NJOBHOGM@previous_mfd_mode?5?$CB?$DN?5?$CKmfd_mode_@ ; `string'
PUBLIC	?__LINE__Var@?0??toggle_comanche_main_mfd_on_off@@YGXW4COMANCHE_MAIN_MFD_LOCATIONS@@@Z@4JA ; `toggle_comanche_main_mfd_on_off'::`1'::__LINE__Var
PUBLIC	?__LINE__Var@?0??toggle_comanche_side_mfd_on_off@@YGXW4COMANCHE_SIDE_MFD_LOCATIONS@@@Z@4JA ; `toggle_comanche_side_mfd_on_off'::`1'::__LINE__Var
PUBLIC	??_C@_0BD@FEEMDEPI@invalid?5comparator@		; `string'
PUBLIC	??_C@_0GK@JMBMHIBC@c?3?2program?5files?5?$CIx86?$CJ?2microsof@ ; `string'
PUBLIC	??_C@_1NE@FKBPBJEB@?$AAc?$AA?3?$AA?2?$AAp?$AAr?$AAo?$AAg?$AAr?$AAa?$AAm?$AA?5?$AAf?$AAi?$AAl?$AAe@ ; `string'
PUBLIC	??_C@_1BC@ICCOKLEG@?$AAs?$AAt?$AAd?$AA?3?$AA?3?$AAm?$AAa?$AAx@ ; `string'
PUBLIC	??_C@_1CK@NDNHPKPI@?$AA?$CC?$AAi?$AAn?$AAv?$AAa?$AAl?$AAi?$AAd?$AA?5?$AAc?$AAo?$AAm?$AAp?$AAa?$AAr@ ; `string'
PUBLIC	??_C@_1BC@BLAPCBGI@?$AAs?$AAt?$AAd?$AA?3?$AA?3?$AAm?$AAi?$AAn@ ; `string'
PUBLIC	__real@00000000
PUBLIC	__real@0000000000000000
PUBLIC	__real@3a83126f
PUBLIC	__real@3c23d70a
PUBLIC	__real@3ccccccd
PUBLIC	__real@3cf5c28f
PUBLIC	__real@3d0f5c29
PUBLIC	__real@3d23d70a
PUBLIC	__real@3d4ccccd
PUBLIC	__real@3d75c28f
PUBLIC	__real@3d75c290
PUBLIC	__real@3d7c0fc1
PUBLIC	__real@3d99999a
PUBLIC	__real@3d9f49f5
PUBLIC	__real@3da3d70a
PUBLIC	__real@3db2b8c2
PUBLIC	__real@3db851eb
PUBLIC	__real@3db851ec
PUBLIC	__real@3dcccccd
PUBLIC	__real@3de66666
PUBLIC	__real@3df5c28f
PUBLIC	__real@3e000000
PUBLIC	__real@3e0a3d70
PUBLIC	__real@3e0a3d71
PUBLIC	__real@3e0f5c29
PUBLIC	__real@3e19999a
PUBLIC	__real@3e23d70a
PUBLIC	__real@3e2e147b
PUBLIC	__real@3e32b8c2
PUBLIC	__real@3e333333
PUBLIC	__real@3e3851ec
PUBLIC	__real@3e428f5c
PUBLIC	__real@3e4ccccd
PUBLIC	__real@3e59999a
PUBLIC	__real@3e6147ae
PUBLIC	__real@3e6b851f
PUBLIC	__real@3e75c28f
PUBLIC	__real@3e800000
PUBLIC	__real@3e851eb8
PUBLIC	__real@3e87ae14
PUBLIC	__real@3e8a3d71
PUBLIC	__real@3e8ccccd
PUBLIC	__real@3e8f5c29
PUBLIC	__real@3e947ae1
PUBLIC	__real@3e99999a
PUBLIC	__real@3ea3d70a
PUBLIC	__real@3eaaa64c
PUBLIC	__real@3eae9e8d
PUBLIC	__real@3eb2b8c2
PUBLIC	__real@3eb33333
PUBLIC	__real@3ebd70a4
PUBLIC	__real@3ec28f5c
PUBLIC	__real@3ecccccd
PUBLIC	__real@3ed1eb85
PUBLIC	__real@3ed9999a
PUBLIC	__real@3edc28f6
PUBLIC	__real@3ee66666
PUBLIC	__real@3ee66667
PUBLIC	__real@3eeb851f
PUBLIC	__real@3ef5c28f
PUBLIC	__real@3efae148
PUBLIC	__real@3f000000
PUBLIC	__real@3f00002000400080
PUBLIC	__real@3f051eb8
PUBLIC	__real@3f060a92
PUBLIC	__real@3f0ccccd
PUBLIC	__real@3f10000000000000
PUBLIC	__real@3f11eb85
PUBLIC	__real@3f11eb86
PUBLIC	__real@3f147ae1
PUBLIC	__real@3f19999a
PUBLIC	__real@3f1a36e2eb1c432d
PUBLIC	__real@3f1c28f6
PUBLIC	__real@3f2147ae
PUBLIC	__real@3f233333
PUBLIC	__real@3f266666
PUBLIC	__real@3f2ccccd
PUBLIC	__real@3f2e9e8d
PUBLIC	__real@3f333333
PUBLIC	__real@3f3eb852
PUBLIC	__real@3f400000
PUBLIC	__real@3f43d70a
PUBLIC	__real@3f451eb9
PUBLIC	__real@3f466666
PUBLIC	__real@3f490fdb
PUBLIC	__real@3f4a3d71
PUBLIC	__real@3f4b851f
PUBLIC	__real@3f4ccccd
PUBLIC	__real@3f500000
PUBLIC	__real@3f50624dd2f1a9fc
PUBLIC	__real@3f50a3d7
PUBLIC	__real@3f547ae1
PUBLIC	__real@3f570a3d
PUBLIC	__real@3f576c8b
PUBLIC	__real@3f5999999999999a
PUBLIC	__real@3f59999a
PUBLIC	__real@3f5c28f6
PUBLIC	__real@3f5d70a4
PUBLIC	__real@3f600000
PUBLIC	__real@3f666666
PUBLIC	__real@3f68f5c3
PUBLIC	__real@3f6bd70a
PUBLIC	__real@3f6ccccd
PUBLIC	__real@3f770a3d
PUBLIC	__real@3f7fbe77
PUBLIC	__real@3f800000
PUBLIC	__real@3f82f6e9
PUBLIC	__real@3f847ae147ae147b
PUBLIC	__real@3f860a92
PUBLIC	__real@3f947ae147ae147b
PUBLIC	__real@3f9999999999999a
PUBLIC	__real@3f9eb851eb851eb8
PUBLIC	__real@3fa1eb851eb851ec
PUBLIC	__real@3fa47ae147ae147b
PUBLIC	__real@3fa999999999999a
PUBLIC	__real@3fae9e8d
PUBLIC	__real@3fb1eb851eb851ec
PUBLIC	__real@3fb3333333333333
PUBLIC	__real@3fb3333340000000
PUBLIC	__real@3fb3e93ea0000000
PUBLIC	__real@3fb999999999999a
PUBLIC	__real@3fc0a3d70a3d70a4
PUBLIC	__real@3fc3333333333333
PUBLIC	__real@3fc3333340000000
PUBLIC	__real@3fc6571848000000
PUBLIC	__real@3fc70a3d70a3d70a
PUBLIC	__real@3fc90fdb
PUBLIC	__real@3fc999999999999a
PUBLIC	__real@3fd0000000000000
PUBLIC	__real@3fd0a3d70a3d70a4
PUBLIC	__real@3fd3333333333333
PUBLIC	__real@3fd51eb851eb851f
PUBLIC	__real@3fd6666666666666
PUBLIC	__real@3fd893011c000000
PUBLIC	__real@3fdbecde5a000000
PUBLIC	__real@3fdeb851eb851eb8
PUBLIC	__real@3fe0000000000000
PUBLIC	__real@3fe3333333333333
PUBLIC	__real@3fe6666660000000
PUBLIC	__real@3fe8000000000000
PUBLIC	__real@3feb333333333333
PUBLIC	__real@3feff7ced916872b
PUBLIC	__real@3ff0000000000000
PUBLIC	__real@3ff0c09b332ccccd
PUBLIC	__real@3ff0c15236000000
PUBLIC	__real@3ff5d3d193333333
PUBLIC	__real@3ff8000000000000
PUBLIC	__real@3ff85d84
PUBLIC	__real@3ff921fb51000000
PUBLIC	__real@3fff0bb080000000
PUBLIC	__real@40000000
PUBLIC	__real@4000000000000000
PUBLIC	__real@4008000000000000
PUBLIC	__real@400921fb51000000
PUBLIC	__real@400d1eb8
PUBLIC	__real@4010000000000000
PUBLIC	__real@4014000000000000
PUBLIC	__real@4016eb167e7d81e3
PUBLIC	__real@401921fb51000000
PUBLIC	__real@401c000000000000
PUBLIC	__real@4024000000000000
PUBLIC	__real@4026eb1686b280e6
PUBLIC	__real@402a000000000000
PUBLIC	__real@4034000000000000
PUBLIC	__real@40400000
PUBLIC	__real@4044000000000000
PUBLIC	__real@404ca5dc00000000
PUBLIC	__real@4051f948
PUBLIC	__real@4059000000000000
PUBLIC	__real@405b800000000000
PUBLIC	__real@405e000000000000
PUBLIC	__real@405fc00000000000
PUBLIC	__real@4061a00000000000
PUBLIC	__real@40666666
PUBLIC	__real@4069000000000000
PUBLIC	__real@406e600000000000
PUBLIC	__real@4070000000000000
PUBLIC	__real@4072800000000000
PUBLIC	__real@4072c00000000000
PUBLIC	__real@4078d00000000000
PUBLIC	__real@407e000000000000
PUBLIC	__real@407f300000000000
PUBLIC	__real@407f400000000000
PUBLIC	__real@40800000
PUBLIC	__real@4084000000000000
PUBLIC	__real@40845f306446f9b4
PUBLIC	__real@408f380000000000
PUBLIC	__real@408f400000000000
PUBLIC	__real@409f400000000000
PUBLIC	__real@40a00000
PUBLIC	__real@40c3878000000000
PUBLIC	__real@40c90fdb
PUBLIC	__real@40f86a0000000000
PUBLIC	__real@41100000
PUBLIC	__real@41200000
PUBLIC	__real@41900000
PUBLIC	__real@41980000
PUBLIC	__real@42480000
PUBLIC	__real@42652ee0
PUBLIC	__real@43000000
PUBLIC	__real@437fffbe
PUBLIC	__real@43800000
PUBLIC	__real@43960000
PUBLIC	__real@43fa0000
PUBLIC	__real@447a0000
PUBLIC	__real@44fa0000
PUBLIC	__real@459c4000
PUBLIC	__real@461c4000
PUBLIC	__real@46c35000
PUBLIC	__real@49742400
PUBLIC	__real@80000000
PUBLIC	__real@bca3d70a
PUBLIC	__real@bccccccd
PUBLIC	__real@bcf5c28f
PUBLIC	__real@bd0f5c29
PUBLIC	__real@bd12a305
PUBLIC	__real@bd4ccccd
PUBLIC	__real@bd6ecbfb
PUBLIC	__real@bd99999a
PUBLIC	__real@bda3d70a
PUBLIC	__real@bda57a78
PUBLIC	__real@bdcccccd
PUBLIC	__real@bde147ae
PUBLIC	__real@be0f5c29
PUBLIC	__real@be23d70a
PUBLIC	__real@be2e147b
PUBLIC	__real@be32b8c2
PUBLIC	__real@be4ccccd
PUBLIC	__real@be53a92a
PUBLIC	__real@be6ab368
PUBLIC	__real@be6b851f
PUBLIC	__real@be75c28f
PUBLIC	__real@be800000
PUBLIC	__real@be80ded3
PUBLIC	__real@be851eb8
PUBLIC	__real@be947ae1
PUBLIC	__real@be99999a
PUBLIC	__real@bea3d70a
PUBLIC	__real@beaaa64c
PUBLIC	__real@beb2b8c2
PUBLIC	__real@beb33333
PUBLIC	__real@beb851ec
PUBLIC	__real@bebd70a4
PUBLIC	__real@bec147ae
PUBLIC	__real@bec28f5c
PUBLIC	__real@becccccd
PUBLIC	__real@bed1eb85
PUBLIC	__real@bed851ec
PUBLIC	__real@bedc28f6
PUBLIC	__real@bee66666
PUBLIC	__real@beeb851f
PUBLIC	__real@beed3a07
PUBLIC	__real@bef5c28f
PUBLIC	__real@befae148
PUBLIC	__real@bf000000
PUBLIC	__real@bf051eb8
PUBLIC	__real@bf060a92
PUBLIC	__real@bf0c5d64
PUBLIC	__real@bf0ccccd
PUBLIC	__real@bf0f5c29
PUBLIC	__real@bf11eb85
PUBLIC	__real@bf11eb86
PUBLIC	__real@bf121ff3
PUBLIC	__real@bf147ae1
PUBLIC	__real@bf17e282
PUBLIC	__real@bf19999a
PUBLIC	__real@bf2147ae
PUBLIC	__real@bf23d70a
PUBLIC	__real@bf28f5c3
PUBLIC	__real@bf2bf259
PUBLIC	__real@bf2ccccd
PUBLIC	__real@bf30a3d7
PUBLIC	__real@bf333333
PUBLIC	__real@bf381d7e
PUBLIC	__real@bf3851ec
PUBLIC	__real@bf3d70a4
PUBLIC	__real@bf3de00d
PUBLIC	__real@bf400000
PUBLIC	__real@bf428f5c
PUBLIC	__real@bf43a29c
PUBLIC	__real@bf43d70a
PUBLIC	__real@bf451eb8
PUBLIC	__real@bf451eb9
PUBLIC	__real@bf47ae14
PUBLIC	__real@bf47ae15
PUBLIC	__real@bf490fdb
PUBLIC	__real@bf4a3d70
PUBLIC	__real@bf4ccccd
PUBLIC	__real@bf4e147b
PUBLIC	__real@bf4f5c28
PUBLIC	__real@bf4f5c29
PUBLIC	__real@bf533333
PUBLIC	__real@bf547ae1
PUBLIC	__real@bf570a3e
PUBLIC	__real@bf576c8b
PUBLIC	__real@bf59999a
PUBLIC	__real@bf5ae148
PUBLIC	__real@bf5c28f6
PUBLIC	__real@bf5eb852
PUBLIC	__real@bf6147ae
PUBLIC	__real@bf63d70a
PUBLIC	__real@bf63d70b
PUBLIC	__real@bf666666
PUBLIC	__real@bf69999a
PUBLIC	__real@bf6b851f
PUBLIC	__real@bf6e147b
PUBLIC	__real@bf6f5c29
PUBLIC	__real@bf70a3d7
PUBLIC	__real@bf733333
PUBLIC	__real@bf770a3d
PUBLIC	__real@bf7ae148
PUBLIC	__real@bf800000
PUBLIC	__real@bf860a92
PUBLIC	__real@bfc3333333333333
PUBLIC	__real@bfc90fdb
PUBLIC	__real@bfc999999999999a
PUBLIC	__real@bfd893011c000000
PUBLIC	__real@bfe0000000000000
PUBLIC	__real@bfec28f5c0000000
PUBLIC	__real@bff0000000000000
PUBLIC	__real@bff0c15236000000
PUBLIC	__real@bff921fb51000000
PUBLIC	__real@c0000000
PUBLIC	__real@c00921fb51000000
PUBLIC	__real@c024000000000000
PUBLIC	__real@c034000000000000
PUBLIC	__real@c0400000
PUBLIC	__real@c0800000
PUBLIC	__real@c0a00000
PUBLIC	__real@c0c00000
PUBLIC	__real@c1000000
PUBLIC	__real@c1400000
PUBLIC	__real@c1980000
PUBLIC	__real@c1c80000
PUBLIC	__real@c2180000
PUBLIC	__xmm@80000000000000008000000000000000
PUBLIC	__xmm@80000000800000008000000080000000
EXTRN	__imp___invalid_parameter:PROC
EXTRN	__imp____stdio_common_vsprintf:PROC
EXTRN	_strcmp:PROC
EXTRN	_strcpy:PROC
EXTRN	_strlen:PROC
EXTRN	__imp__strncpy:PROC
EXTRN	__imp___CrtDbgReport:PROC
EXTRN	_atan2:PROC
EXTRN	_cos:PROC
EXTRN	_fmod:PROC
EXTRN	_sin:PROC
EXTRN	_sqrt:PROC
EXTRN	_tan:PROC
EXTRN	__imp__ceil:PROC
EXTRN	__imp__floor:PROC
EXTRN	?process_assert@@YGXPBD0H@Z:PROC		; process_assert
EXTRN	?convert_float_to_int@@YGXMPAH@Z:PROC		; convert_float_to_int
EXTRN	?debug_fatal@@YAXPBDZZ:PROC			; debug_fatal
EXTRN	?debug_colour_log@@YAXW4DEBUG_COLOURS@@PBDZZ:PROC ; debug_colour_log
EXTRN	?safe_malloc_memory@@YGPAXI@Z:PROC		; safe_malloc_memory
EXTRN	?safe_free@@YGXPAX@Z:PROC			; safe_free
EXTRN	?get_3d_vector_magnitude@@YGMPBUVEC3D@@@Z:PROC	; get_3d_vector_magnitude
EXTRN	?normalise_3d_vector_given_magnitude@@YGXPAUVEC3D@@M@Z:PROC ; normalise_3d_vector_given_magnitude
EXTRN	?get_3d_unit_vector_dot_product@@YGMPBUVEC3D@@0@Z:PROC ; get_3d_unit_vector_dot_product
EXTRN	?get_3d_transformation_matrix@@YGXQAY02MMMM@Z:PROC ; get_3d_transformation_matrix
EXTRN	?multiply_transpose_matrix3x3_vec3d@@YGXPAUVEC3D@@QAY02$$CBMPBU1@@Z:PROC ; multiply_transpose_matrix3x3_vec3d
EXTRN	?multiply_matrix3x3_matrix3x3@@YGXQAY02MQAY02$$CBM1@Z:PROC ; multiply_matrix3x3_matrix3x3
EXTRN	?get_2d_range@@YGMPBUVEC3D@@0@Z:PROC		; get_2d_range
EXTRN	?get_approx_2d_range@@YGMPBUVEC3D@@0@Z:PROC	; get_approx_2d_range
EXTRN	?get_3d_range@@YGMPBUVEC3D@@0@Z:PROC		; get_3d_range
EXTRN	?create_user_texture_screen@@YGPAUSCREEN@@HHHH@Z:PROC ; create_user_texture_screen
EXTRN	?create_system_texture_screen@@YGPAUSCREEN@@HHHH@Z:PROC ; create_system_texture_screen
EXTRN	?set_system_texture_screen@@YGXPAUSCREEN@@H@Z:PROC ; set_system_texture_screen
EXTRN	?destroy_screen@@YGHPAUSCREEN@@@Z:PROC		; destroy_screen
EXTRN	?lock_screen@@YGHPAUSCREEN@@@Z:PROC		; lock_screen
EXTRN	?unlock_screen@@YGHPAUSCREEN@@@Z:PROC		; unlock_screen
EXTRN	?set_active_screen@@YGHPAUSCREEN@@@Z:PROC	; set_active_screen
EXTRN	?set_3d_render_target@@YGHPAUSCREEN@@@Z:PROC	; set_3d_render_target
EXTRN	?finalise_3d_render_target_texture@@YGXPAUSCREEN@@@Z:PROC ; finalise_3d_render_target_texture
EXTRN	?set_block@@YGXHHHHUREAL_COLOUR@@@Z:PROC	; set_block
EXTRN	?draw_line@@YGXMMMMUREAL_COLOUR@@@Z:PROC	; draw_line
EXTRN	?set_hatched_pattern@@YGXPAI@Z:PROC		; set_hatched_pattern
EXTRN	?set_d3d_transparency_on@@YGXXZ:PROC		; set_d3d_transparency_on
EXTRN	?set_d3d_transparency_off@@YGXXZ:PROC		; set_d3d_transparency_off
EXTRN	?set_d3d_zbuffer_comparison@@YGXH@Z:PROC	; set_d3d_zbuffer_comparison
EXTRN	?set_d3d_culling@@YGXH@Z:PROC			; set_d3d_culling
EXTRN	?set_d3d_texture_wrapping@@YGXHH@Z:PROC		; set_d3d_texture_wrapping
EXTRN	?set_d3d_texture_mag_filtering@@YGXH@Z:PROC	; set_d3d_texture_mag_filtering
EXTRN	?set_d3d_texture_min_filtering@@YGXH@Z:PROC	; set_d3d_texture_min_filtering
EXTRN	?set_d3d_texture_mip_filtering@@YGXH@Z:PROC	; set_d3d_texture_mip_filtering
EXTRN	?set_d3d_plain_renderstate@@YGXXZ:PROC		; set_d3d_plain_renderstate
EXTRN	?set_d3d_flat_shaded_textured_renderstate@@YGXPAUSCREEN@@@Z:PROC ; set_d3d_flat_shaded_textured_renderstate
EXTRN	?draw_wbuffered_plain_polygon@@YGXPAUVERTEX@@UREAL_COLOUR@@1@Z:PROC ; draw_wbuffered_plain_polygon
EXTRN	?draw_wbuffered_flat_shaded_textured_polygon@@YGXPAUVERTEX@@UREAL_COLOUR@@1@Z:PROC ; draw_wbuffered_flat_shaded_textured_polygon
EXTRN	?get_system_texture_ptr@@YGPAUSCREEN@@H@Z:PROC	; get_system_texture_ptr
EXTRN	?flush_screen_texture_graphics@@YGXPAUSCREEN@@@Z:PROC ; flush_screen_texture_graphics
EXTRN	?set_mono_font_type@@YGXW4MONO_FONT_TYPES@@@Z:PROC ; set_mono_font_type
EXTRN	?set_mono_font_position@@YGXMM@Z:PROC		; set_mono_font_position
EXTRN	?set_mono_font_rel_position@@YGXMM@Z:PROC	; set_mono_font_rel_position
EXTRN	?set_mono_font_colour@@YGXUREAL_COLOUR@@@Z:PROC	; set_mono_font_colour
EXTRN	?get_mono_font_char_height@@YGMD@Z:PROC		; get_mono_font_char_height
EXTRN	?print_mono_font_char@@YGXD@Z:PROC		; print_mono_font_char
EXTRN	?get_mono_font_string_width@@YGMPBD@Z:PROC	; get_mono_font_string_width
EXTRN	?print_mono_font_string@@YGXPBD@Z:PROC		; print_mono_font_string
EXTRN	?create_2d_environment@@YGPAUENV_2D@@XZ:PROC	; create_2d_environment
EXTRN	?destroy_2d_environment@@YGXPAUENV_2D@@@Z:PROC	; destroy_2d_environment
EXTRN	?set_2d_active_environment@@YGXPAUENV_2D@@@Z:PROC ; set_2d_active_environment
EXTRN	?set_2d_viewport@@YGXPAUENV_2D@@MMMM@Z:PROC	; set_2d_viewport
EXTRN	?set_2d_viewport_origin@@YGXPAUENV_2D@@MM@Z:PROC ; set_2d_viewport_origin
EXTRN	?set_2d_window@@YGXPAUENV_2D@@MMMM@Z:PROC	; set_2d_window
EXTRN	?set_2d_window_rotation@@YGXPAUENV_2D@@M@Z:PROC	; set_2d_window_rotation
EXTRN	?set_2d_instance_rotation@@YGXPAUENV_2D@@M@Z:PROC ; set_2d_instance_rotation
EXTRN	?set_2d_instance_position@@YGXPAUENV_2D@@MM@Z:PROC ; set_2d_instance_position
EXTRN	?reset_2d_instance@@YGXPAUENV_2D@@@Z:PROC	; reset_2d_instance
EXTRN	?set_2d_pixel@@YGXMMUREAL_COLOUR@@@Z:PROC	; set_2d_pixel
EXTRN	?draw_2d_line@@YGXMMMMUREAL_COLOUR@@@Z:PROC	; draw_2d_line
EXTRN	?draw_2d_half_thick_line@@YGXMMMMUREAL_COLOUR@@@Z:PROC ; draw_2d_half_thick_line
EXTRN	?draw_2d_filled_triangle@@YGXMMMMMMUREAL_COLOUR@@@Z:PROC ; draw_2d_filled_triangle
EXTRN	?set_2d_mono_font_position@@YGXMM@Z:PROC	; set_2d_mono_font_position
EXTRN	?get_2d_world_position@@YGXMMPAM0@Z:PROC	; get_2d_world_position
EXTRN	?get_2d_int_screen_coordinates@@YGXMMPAH0@Z:PROC ; get_2d_int_screen_coordinates
EXTRN	?get_2d_float_screen_coordinates@@YGXMMPAM0@Z:PROC ; get_2d_float_screen_coordinates
EXTRN	?get_2d_float_screen_x_coordinate@@YGXMPAM@Z:PROC ; get_2d_float_screen_x_coordinate
EXTRN	?get_2d_float_screen_y_coordinate@@YGXMPAM@Z:PROC ; get_2d_float_screen_y_coordinate
EXTRN	?draw_2d_mono_sprite@@YGXPBDMMUREAL_COLOUR@@@Z:PROC ; draw_2d_mono_sprite
EXTRN	?draw_2d_circle@@YGXMMMUREAL_COLOUR@@@Z:PROC	; draw_2d_circle
EXTRN	?draw_2d_hatched_area@@YGXMMMMUREAL_COLOUR@@@Z:PROC ; draw_2d_hatched_area
EXTRN	?draw_2d_hatched_circle@@YGXMMMUREAL_COLOUR@@@Z:PROC ; draw_2d_hatched_circle
EXTRN	?draw_2d_box@@YGXMMMMHHUREAL_COLOUR@@@Z:PROC	; draw_2d_box
EXTRN	?set_3d_active_environment@@YGXPAUENV_3D@@@Z:PROC ; set_3d_active_environment
EXTRN	?get_object_3d_number_of_poly_lines@@YGHH@Z:PROC ; get_object_3d_number_of_poly_lines
EXTRN	?get_object_3d_poly_line_data@@YGXHPAUVEC3D@@@Z:PROC ; get_object_3d_poly_line_data
EXTRN	?begin_3d_scene@@YGHXZ:PROC			; begin_3d_scene
EXTRN	?end_3d_scene@@YGXXZ:PROC			; end_3d_scene
EXTRN	?get_position_3d_screen_coordinates@@YG?AW4OBJECT_3D_VISIBILITY@@PAUVEC3D@@PAM1@Z:PROC ; get_position_3d_screen_coordinates
EXTRN	?get_local_entity_vec3d_magnitude@@YGMPAUENTITY@@W4VEC3D_TYPES@@@Z:PROC ; get_local_entity_vec3d_magnitude
EXTRN	?get_local_entity_target_bearing@@YGMPAUENTITY@@0PAM@Z:PROC ; get_local_entity_target_bearing
EXTRN	?get_local_entity_target_point@@YGXPAUENTITY@@PAUVEC3D@@@Z:PROC ; get_local_entity_target_point
EXTRN	?get_local_entity_weapon_count@@YGHPAUENTITY@@H@Z:PROC ; get_local_entity_weapon_count
EXTRN	?get_local_entity_weapon_hardpoint_info@@YGHPAUENTITY@@HHPAH11@Z:PROC ; get_local_entity_weapon_hardpoint_info
EXTRN	?get_comanche_stub_wings_attached@@YGHPAUENTITY@@@Z:PROC ; get_comanche_stub_wings_attached
EXTRN	?get_waypoint_display_position@@YGXPAUENTITY@@0PAUVEC3D@@@Z:PROC ; get_waypoint_display_position
EXTRN	?get_keysite_entity_mfd_display_name@@YGXPAUENTITY@@PAD@Z:PROC ; get_keysite_entity_mfd_display_name
EXTRN	?get_player_task@@YGPAUENTITY@@PAU1@@Z:PROC	; get_player_task
EXTRN	?get_local_sector_entity@@YGPAUENTITY@@PAUVEC3D@@@Z:PROC ; get_local_sector_entity
EXTRN	?get_simple_session_weather_at_point@@YG?AW4WEATHERMODES@@PAUVEC3D@@@Z:PROC ; get_simple_session_weather_at_point
EXTRN	?get_task_estimated_route_duration@@YGMPAUENTITY@@@Z:PROC ; get_task_estimated_route_duration
EXTRN	?get_task_objective_mfd_display_string@@YGXPAUENTITY@@PAD@Z:PROC ; get_task_objective_mfd_display_string
EXTRN	?get_local_entity_first_waypoint@@YGPAUENTITY@@PAU1@@Z:PROC ; get_local_entity_first_waypoint
EXTRN	?get_local_entity_current_waypoint@@YGPAUENTITY@@PAU1@@Z:PROC ; get_local_entity_current_waypoint
EXTRN	?set_main_3d_params@@YGXW4DISPLAY_3D_TINTS@@W4DISPLAY_3D_LIGHT_LEVELS@@W4DISPLAY_3D_NOISE_LEVELS@@MMMMMM@Z:PROC ; set_main_3d_params
EXTRN	?set_pilots_full_screen_params@@YGXH@Z:PROC	; set_pilots_full_screen_params
EXTRN	?draw_main_3d_scene@@YGXPAUVIEWPOINT@@@Z:PROC	; draw_main_3d_scene
EXTRN	?get_target_display_name@@YGPBDPAUENTITY@@PADH@Z:PROC ; get_target_display_name
EXTRN	?get_range_finder@@YG?AW4rangefinding_system@@XZ:PROC ; get_range_finder
EXTRN	?draw_tsd_terrain_map@@YGXPAUENV_2D@@MMMPAUVEC3D@@MH@Z:PROC ; draw_tsd_terrain_map
EXTRN	?draw_tsd_contour_map@@YGXPAUENV_2D@@MMMPAUVEC3D@@MHH@Z:PROC ; draw_tsd_contour_map
EXTRN	?Initialise_TSD_render_terrain@@YGXXZ:PROC	; Initialise_TSD_render_terrain
EXTRN	?convert_linear_view_value@@YGMPAUEO_PARAMS_DYNAMIC_MOVE@@@Z:PROC ; convert_linear_view_value
EXTRN	?get_eo_tracking_point@@YGPAUVEC3D@@XZ:PROC	; get_eo_tracking_point
EXTRN	?get_range_to_target@@YGMXZ:PROC		; get_range_to_target
EXTRN	?eo_is_locked@@YGHXZ:PROC			; eo_is_locked
EXTRN	?get_gunship_target_valid_for_ground_radar@@YGHPAUENTITY@@@Z:PROC ; get_gunship_target_valid_for_ground_radar
EXTRN	?get_target_matches_ground_radar_declutter_criteria@@YGHPAUENTITY@@@Z:PROC ; get_target_matches_ground_radar_declutter_criteria
EXTRN	?ground_radar_is_active@@YGHXZ:PROC		; ground_radar_is_active
EXTRN	?get_gunship_target_valid_for_air_radar@@YGHPAUENTITY@@@Z:PROC ; get_gunship_target_valid_for_air_radar
EXTRN	?get_target_matches_air_radar_declutter_criteria@@YGHPAUENTITY@@W4ENTITY_SIDES@@@Z:PROC ; get_target_matches_air_radar_declutter_criteria
EXTRN	?air_radar_is_active@@YGHXZ:PROC		; air_radar_is_active
EXTRN	?get_comanche_eo_relative_centred_viewpoint@@YGXPAUVIEWPOINT@@@Z:PROC ; get_comanche_eo_relative_centred_viewpoint
EXTRN	?get_crew_role@@YG?AW4CREW_ROLES@@XZ:PROC	; get_crew_role
EXTRN	?get_digital_clock_values@@YGXMPAM00@Z:PROC	; get_digital_clock_values
EXTRN	?get_digital_clock_int_values@@YGXMPAH00@Z:PROC	; get_digital_clock_int_values
EXTRN	?get_untranslated_pilot_rank_short_name@@YGPBDH@Z:PROC ; get_untranslated_pilot_rank_short_name
EXTRN	?copy_export_mfd@@YGXPAUSCREEN@@0@Z:PROC	; copy_export_mfd
EXTRN	__chkstk:PROC
EXTRN	?system_delta_time@@3MA:DWORD			; system_delta_time
EXTRN	?random_number_seed@@3HA:DWORD			; random_number_seed
EXTRN	?sine_table@@3PAMA:BYTE				; sine_table
EXTRN	?application_video_width@@3HA:DWORD		; application_video_width
EXTRN	?d3d_can_render_to_texture@@3HA:DWORD		; d3d_can_render_to_texture
EXTRN	?sys_col_red@@3UREAL_COLOUR@@A:DWORD		; sys_col_red
EXTRN	?video_screen@@3PAUSCREEN@@A:DWORD		; video_screen
EXTRN	?command_line_dynamics_engine_startup@@3HA:DWORD ; command_line_dynamics_engine_startup
EXTRN	?command_line_high_res_mfd@@3HA:DWORD		; command_line_high_res_mfd
EXTRN	?command_line_tsd_enemy_colours@@3HA:DWORD	; command_line_tsd_enemy_colours
EXTRN	?command_line_colour_mfd@@3HA:DWORD		; command_line_colour_mfd
EXTRN	?command_line_export_mfd@@3HA:DWORD		; command_line_export_mfd
EXTRN	?null_entity_pointer_message@@3PBDB:DWORD	; null_entity_pointer_message
EXTRN	?formation_display_names@@3PAPBDA:BYTE		; formation_display_names
EXTRN	?task_status_names@@3PAPBDA:BYTE		; task_status_names
EXTRN	?global_options@@3UGLOBAL_OPTIONS_DATA@@A:BYTE	; global_options
EXTRN	?world_map@@3UWORLD_MAP_DATA@@A:BYTE		; world_map
EXTRN	?overload_invalid_list_type_message@@3PBDB:DWORD ; overload_invalid_list_type_message
EXTRN	?fn_get_local_entity_first_child@@3PAY0CN@P6GPAUENTITY@@PAU1@W4LIST_TYPES@@@ZA:BYTE ; fn_get_local_entity_first_child
EXTRN	?fn_get_local_entity_parent@@3PAY0CN@P6GPAUENTITY@@PAU1@W4LIST_TYPES@@@ZA:BYTE ; fn_get_local_entity_parent
EXTRN	?fn_get_local_entity_child_succ@@3PAY0CN@P6GPAUENTITY@@PAU1@W4LIST_TYPES@@@ZA:BYTE ; fn_get_local_entity_child_succ
EXTRN	?fn_get_local_entity_attitude_matrix_ptr@@3PAP6GPAY122MPAUENTITY@@@ZA:BYTE ; fn_get_local_entity_attitude_matrix_ptr
EXTRN	?overload_invalid_char_type_message@@3PBDB:DWORD ; overload_invalid_char_type_message
EXTRN	?fn_get_local_entity_char_value@@3PAY01P6GDPAUENTITY@@W4CHAR_TYPES@@@ZA:BYTE ; fn_get_local_entity_char_value
EXTRN	?draw_eo_3d_scene@@3HA:DWORD			; draw_eo_3d_scene
EXTRN	?overload_invalid_float_type_message@@3PBDB:DWORD ; overload_invalid_float_type_message
EXTRN	?fn_get_local_entity_float_value@@3PAY0KP@P6GMPAUENTITY@@W4FLOAT_TYPES@@@ZA:BYTE ; fn_get_local_entity_float_value
EXTRN	?overload_invalid_int_type_message@@3PBDB:DWORD	; overload_invalid_int_type_message
EXTRN	?fn_get_local_entity_int_value@@3PAY0BBH@P6GHPAUENTITY@@W4INT_TYPES@@@ZA:BYTE ; fn_get_local_entity_int_value
EXTRN	?overload_invalid_ptr_type_message@@3PBDB:DWORD	; overload_invalid_ptr_type_message
EXTRN	?fn_get_local_entity_ptr_value@@3PAY0BE@P6GPAXPAUENTITY@@W4PTR_TYPES@@@ZA:BYTE ; fn_get_local_entity_ptr_value
EXTRN	?overload_invalid_string_type_message@@3PBDB:DWORD ; overload_invalid_string_type_message
EXTRN	?fn_get_local_entity_string@@3PAY0N@P6GPBDPAUENTITY@@W4STRING_TYPES@@@ZA:BYTE ; fn_get_local_entity_string
EXTRN	?overload_invalid_vec3d_type_message@@3PBDB:DWORD ; overload_invalid_vec3d_type_message
EXTRN	?fn_get_local_entity_vec3d@@3PAY0BI@P6GXPAUENTITY@@W4VEC3D_TYPES@@PAUVEC3D@@@ZA:BYTE ; fn_get_local_entity_vec3d
EXTRN	?fn_get_local_entity_vec3d_ptr@@3PAY0BI@P6GPAUVEC3D@@PAUENTITY@@W4VEC3D_TYPES@@@ZA:BYTE ; fn_get_local_entity_vec3d_ptr
EXTRN	?entities@@3PAUENTITY@@A:DWORD			; entities
EXTRN	?weapon_database@@3PAUWEAPON_DATA@@A:BYTE	; weapon_database
EXTRN	?gunship_entity@@3PAUENTITY@@A:DWORD		; gunship_entity
EXTRN	?session_entity@@3PAUENTITY@@A:DWORD		; session_entity
EXTRN	?full_screen_width@@3MA:DWORD			; full_screen_width
EXTRN	?full_screen_height@@3MA:DWORD			; full_screen_height
EXTRN	?main_3d_env@@3PAUENV_3D@@A:DWORD		; main_3d_env
EXTRN	?main_vp@@3UVIEWPOINT@@A:BYTE			; main_vp
EXTRN	?view_mode@@3W4VIEW_MODES@@A:DWORD		; view_mode
EXTRN	?tsd_render_mode@@3W4TSD_RENDER_MODES@@A:DWORD	; tsd_render_mode
EXTRN	?target_acquisition_system@@3W4TARGET_ACQUISITION_SYSTEMS@@A:DWORD ; target_acquisition_system
EXTRN	?eo_low_light@@3HA:DWORD			; eo_low_light
EXTRN	?eo_ground_stabilised@@3HA:DWORD		; eo_ground_stabilised
EXTRN	?eo_sensor@@3W4TARGET_ACQUISITION_SYSTEMS@@A:DWORD ; eo_sensor
EXTRN	?eo_azimuth@@3MA:DWORD				; eo_azimuth
EXTRN	?eo_max_azimuth@@3MA:DWORD			; eo_max_azimuth
EXTRN	?eo_elevation@@3MA:DWORD			; eo_elevation
EXTRN	?eo_min_elevation@@3MA:DWORD			; eo_min_elevation
EXTRN	?eo_vp@@3UVIEWPOINT@@A:BYTE			; eo_vp
EXTRN	?display_mfd_layout_grid@@3HA:DWORD		; display_mfd_layout_grid
EXTRN	?large_eo_3d_texture_screen@@3PAUSCREEN@@A:DWORD ; large_eo_3d_texture_screen
EXTRN	?small_eo_3d_texture_screen@@3PAUSCREEN@@A:DWORD ; small_eo_3d_texture_screen
EXTRN	?ground_radar@@3URADAR_PARAMS@@A:BYTE		; ground_radar
EXTRN	?air_radar@@3URADAR_PARAMS@@A:BYTE		; air_radar
EXTRN	?radar_clutter_hatch_pattern@@3PAIA:BYTE	; radar_clutter_hatch_pattern
EXTRN	?large_display_target_symbol_selected_target@@3QBDB:BYTE ; large_display_target_symbol_selected_target
EXTRN	?large_display_target_symbol_selected_target_mask@@3QBDB:BYTE ; large_display_target_symbol_selected_target_mask
EXTRN	?small_display_target_symbol_selected_target@@3QBDB:BYTE ; small_display_target_symbol_selected_target
EXTRN	?small_display_target_symbol_selected_target_mask@@3QBDB:BYTE ; small_display_target_symbol_selected_target_mask
EXTRN	?large_display_target_symbols_los@@3PAPBDA:BYTE	; large_display_target_symbols_los
EXTRN	?large_display_target_symbols_los_mask@@3PAPBDA:BYTE ; large_display_target_symbols_los_mask
EXTRN	?large_display_target_symbols_no_los@@3PAPBDA:BYTE ; large_display_target_symbols_no_los
EXTRN	?large_display_target_symbols_no_los_mask@@3PAPBDA:BYTE ; large_display_target_symbols_no_los_mask
EXTRN	?small_display_target_symbols_los@@3PAPBDA:BYTE	; small_display_target_symbols_los
EXTRN	?small_display_target_symbols_los_mask@@3PAPBDA:BYTE ; small_display_target_symbols_los_mask
EXTRN	?small_display_target_symbols_no_los@@3PAPBDA:BYTE ; small_display_target_symbols_no_los
EXTRN	?small_display_target_symbols_no_los_mask@@3PAPBDA:BYTE ; small_display_target_symbols_no_los_mask
EXTRN	?rocket_salvo_size@@3HA:DWORD			; rocket_salvo_size
EXTRN	?comanche_damage@@3TCOMANCHE_DAMAGE_FLAGS@@A:DWORD ; comanche_damage
EXTRN	?comanche_flir@@3UEO_PARAMS_DYNAMIC_MOVE@@A:BYTE ; comanche_flir
EXTRN	?comanche_dtv@@3UEO_PARAMS_DYNAMIC_MOVE@@A:BYTE	; comanche_dtv
EXTRN	?comanche_dvo@@3UEO_PARAMS_DYNAMIC_MOVE@@A:BYTE	; comanche_dvo
EXTRN	?COMANCHE_RADAR_SCAN_RANGE_500@@3MA:DWORD	; COMANCHE_RADAR_SCAN_RANGE_500
EXTRN	?COMANCHE_RADAR_SCAN_RANGE_1000@@3MA:DWORD	; COMANCHE_RADAR_SCAN_RANGE_1000
EXTRN	?COMANCHE_RADAR_SCAN_RANGE_2000@@3MA:DWORD	; COMANCHE_RADAR_SCAN_RANGE_2000
EXTRN	?COMANCHE_RADAR_SCAN_RANGE_4000@@3MA:DWORD	; COMANCHE_RADAR_SCAN_RANGE_4000
EXTRN	?COMANCHE_RADAR_SCAN_RANGE_8000@@3MA:DWORD	; COMANCHE_RADAR_SCAN_RANGE_8000
EXTRN	?virtual_cockpit_inst3d@@3PAUOBJECT_3D_INSTANCE@@A:DWORD ; virtual_cockpit_inst3d
EXTRN	?current_flight_dynamics@@3PAUDYNAMICS_TYPE@@A:DWORD ; current_flight_dynamics
EXTRN	__fltused:DWORD
;	COMDAT ?_OptionsStorage@?1??__local_stdio_printf_options@@9@4_KA
_BSS	SEGMENT
?_OptionsStorage@?1??__local_stdio_printf_options@@9@4_KA DQ 01H DUP (?) ; `__local_stdio_printf_options'::`2'::_OptionsStorage
_BSS	ENDS
_BSS	SEGMENT
?mfd_colours@@3PAUREAL_COLOUR@@A DD 014H DUP (?)	; mfd_colours
?clear_mfd_colour@@3UREAL_COLOUR@@A DD 01H DUP (?)	; clear_mfd_colour
?text_display_colours@@3PAUREAL_COLOUR@@A DD 02H DUP (?) ; text_display_colours
?display_mask@@3HA DD 01H DUP (?)			; display_mask
?mfd_env@@3PAUENV_2D@@A DD 01H DUP (?)			; mfd_env
?int_mfd_viewport_size@@3HA DD 01H DUP (?)		; int_mfd_viewport_size
?mfd_viewport_size@@3MA DD 01H DUP (?)			; mfd_viewport_size
?mfd_viewport_x_org@@3MA DD 01H DUP (?)			; mfd_viewport_x_org
?mfd_viewport_y_org@@3MA DD 01H DUP (?)			; mfd_viewport_y_org
?mfd_viewport_x_min@@3MA DD 01H DUP (?)			; mfd_viewport_x_min
?mfd_viewport_y_min@@3MA DD 01H DUP (?)			; mfd_viewport_y_min
?mfd_viewport_x_max@@3MA DD 01H DUP (?)			; mfd_viewport_x_max
?mfd_viewport_y_max@@3MA DD 01H DUP (?)			; mfd_viewport_y_max
?mfd_screen_x_min@@3MA DD 01H DUP (?)			; mfd_screen_x_min
?mfd_screen_y_min@@3MA DD 01H DUP (?)			; mfd_screen_y_min
?mfd_screen_x_max@@3MA DD 01H DUP (?)			; mfd_screen_x_max
?mfd_screen_y_max@@3MA DD 01H DUP (?)			; mfd_screen_y_max
?mfd_screen_width@@3MA DD 01H DUP (?)			; mfd_screen_width
?mfd_screen_height@@3MA DD 01H DUP (?)			; mfd_screen_height
?mfd_screen_x_scale@@3MA DD 01H DUP (?)			; mfd_screen_x_scale
?mfd_screen_y_scale@@3MA DD 01H DUP (?)			; mfd_screen_y_scale
?draw_large_mfd@@3HA DD 01H DUP (?)			; draw_large_mfd
?draw_main_display@@3HA DD 01H DUP (?)			; draw_main_display
?pilot_lhs_main_mfd_texture_screen@@3PAUSCREEN@@A DD 01H DUP (?) ; pilot_lhs_main_mfd_texture_screen
?pilot_rhs_main_mfd_texture_screen@@3PAUSCREEN@@A DD 01H DUP (?) ; pilot_rhs_main_mfd_texture_screen
?pilot_lhs_side_mfd_texture_screen@@3PAUSCREEN@@A DD 01H DUP (?) ; pilot_lhs_side_mfd_texture_screen
?pilot_rhs_side_mfd_texture_screen@@3PAUSCREEN@@A DD 01H DUP (?) ; pilot_rhs_side_mfd_texture_screen
?pilot_text_display_texture_screen@@3PAUSCREEN@@A DD 01H DUP (?) ; pilot_text_display_texture_screen
?co_pilot_lhs_main_mfd_texture_screen@@3PAUSCREEN@@A DD 01H DUP (?) ; co_pilot_lhs_main_mfd_texture_screen
?co_pilot_rhs_main_mfd_texture_screen@@3PAUSCREEN@@A DD 01H DUP (?) ; co_pilot_rhs_main_mfd_texture_screen
?co_pilot_lhs_side_mfd_texture_screen@@3PAUSCREEN@@A DD 01H DUP (?) ; co_pilot_lhs_side_mfd_texture_screen
?co_pilot_rhs_side_mfd_texture_screen@@3PAUSCREEN@@A DD 01H DUP (?) ; co_pilot_rhs_side_mfd_texture_screen
?co_pilot_text_display_texture_screen@@3PAUSCREEN@@A DD 01H DUP (?) ; co_pilot_text_display_texture_screen
?large_pilot_lhs_main_mfd_texture_screen@@3PAUSCREEN@@A DD 01H DUP (?) ; large_pilot_lhs_main_mfd_texture_screen
?large_pilot_rhs_main_mfd_texture_screen@@3PAUSCREEN@@A DD 01H DUP (?) ; large_pilot_rhs_main_mfd_texture_screen
?large_pilot_lhs_side_mfd_texture_screen@@3PAUSCREEN@@A DD 01H DUP (?) ; large_pilot_lhs_side_mfd_texture_screen
?large_pilot_rhs_side_mfd_texture_screen@@3PAUSCREEN@@A DD 01H DUP (?) ; large_pilot_rhs_side_mfd_texture_screen
?large_pilot_text_display_texture_screen@@3PAUSCREEN@@A DD 01H DUP (?) ; large_pilot_text_display_texture_screen
?large_co_pilot_lhs_main_mfd_texture_screen@@3PAUSCREEN@@A DD 01H DUP (?) ; large_co_pilot_lhs_main_mfd_texture_screen
?large_co_pilot_rhs_main_mfd_texture_screen@@3PAUSCREEN@@A DD 01H DUP (?) ; large_co_pilot_rhs_main_mfd_texture_screen
?large_co_pilot_lhs_side_mfd_texture_screen@@3PAUSCREEN@@A DD 01H DUP (?) ; large_co_pilot_lhs_side_mfd_texture_screen
?large_co_pilot_rhs_side_mfd_texture_screen@@3PAUSCREEN@@A DD 01H DUP (?) ; large_co_pilot_rhs_side_mfd_texture_screen
?large_co_pilot_text_display_texture_screen@@3PAUSCREEN@@A DD 01H DUP (?) ; large_co_pilot_text_display_texture_screen
?small_pilot_lhs_main_mfd_texture_screen@@3PAUSCREEN@@A DD 01H DUP (?) ; small_pilot_lhs_main_mfd_texture_screen
?small_pilot_rhs_main_mfd_texture_screen@@3PAUSCREEN@@A DD 01H DUP (?) ; small_pilot_rhs_main_mfd_texture_screen
?small_pilot_lhs_side_mfd_texture_screen@@3PAUSCREEN@@A DD 01H DUP (?) ; small_pilot_lhs_side_mfd_texture_screen
?small_pilot_rhs_side_mfd_texture_screen@@3PAUSCREEN@@A DD 01H DUP (?) ; small_pilot_rhs_side_mfd_texture_screen
?small_pilot_text_display_texture_screen@@3PAUSCREEN@@A DD 01H DUP (?) ; small_pilot_text_display_texture_screen
?small_co_pilot_lhs_main_mfd_texture_screen@@3PAUSCREEN@@A DD 01H DUP (?) ; small_co_pilot_lhs_main_mfd_texture_screen
?small_co_pilot_rhs_main_mfd_texture_screen@@3PAUSCREEN@@A DD 01H DUP (?) ; small_co_pilot_rhs_main_mfd_texture_screen
?small_co_pilot_lhs_side_mfd_texture_screen@@3PAUSCREEN@@A DD 01H DUP (?) ; small_co_pilot_lhs_side_mfd_texture_screen
?small_co_pilot_rhs_side_mfd_texture_screen@@3PAUSCREEN@@A DD 01H DUP (?) ; small_co_pilot_rhs_side_mfd_texture_screen
?small_co_pilot_text_display_texture_screen@@3PAUSCREEN@@A DD 01H DUP (?) ; small_co_pilot_text_display_texture_screen
?eo_3d_texture_screen@@3PAUSCREEN@@A DD 01H DUP (?)	; eo_3d_texture_screen
?full_mfd_texture_screen@@3PAUSCREEN@@A DD 01H DUP (?)	; full_mfd_texture_screen
?text_display_line1@@3PADA DB 012H DUP (?)		; text_display_line1
	ALIGN	4

?text_display_line2@@3PADA DB 012H DUP (?)		; text_display_line2
	ALIGN	4

?pilot_tsd_ase_range@@3MA DD 01H DUP (?)		; pilot_tsd_ase_range
?co_pilot_tsd_ase_range@@3MA DD 01H DUP (?)		; co_pilot_tsd_ase_range
?pilot_tsd_declutter_level@@3W4TSD_DECLUTTER_LEVELS@@A DD 01H DUP (?) ; pilot_tsd_declutter_level
?co_pilot_tsd_declutter_level@@3W4TSD_DECLUTTER_LEVELS@@A DD 01H DUP (?) ; co_pilot_tsd_declutter_level
?pilot_tsd_threat_line_flash_timer@@3MA DD 01H DUP (?)	; pilot_tsd_threat_line_flash_timer
?co_pilot_tsd_threat_line_flash_timer@@3MA DD 01H DUP (?) ; co_pilot_tsd_threat_line_flash_timer
?pilot_tsd_draw_threat_line_status@@3HA DD 01H DUP (?)	; pilot_tsd_draw_threat_line_status
?co_pilot_tsd_draw_threat_line_status@@3HA DD 01H DUP (?) ; co_pilot_tsd_draw_threat_line_status
?pilot_ase_threat_line_flash_timer@@3MA DD 01H DUP (?)	; pilot_ase_threat_line_flash_timer
?co_pilot_ase_threat_line_flash_timer@@3MA DD 01H DUP (?) ; co_pilot_ase_threat_line_flash_timer
?pilot_ase_draw_threat_line_status@@3HA DD 01H DUP (?)	; pilot_ase_draw_threat_line_status
?co_pilot_ase_draw_threat_line_status@@3HA DD 01H DUP (?) ; co_pilot_ase_draw_threat_line_status
?main_horizon_mask@@3PADA DD 01H DUP (?)		; main_horizon_mask
?side_horizon_mask@@3PADA DD 01H DUP (?)		; side_horizon_mask
?num_main_weapon_line_points_with_stub_wings@@3HA DD 01H DUP (?) ; num_main_weapon_line_points_with_stub_wings
?num_side_weapon_line_points_with_stub_wings@@3HA DD 01H DUP (?) ; num_side_weapon_line_points_with_stub_wings
?num_main_weapon_line_points_without_stub_wings@@3HA DD 01H DUP (?) ; num_main_weapon_line_points_without_stub_wings
?num_side_weapon_line_points_without_stub_wings@@3HA DD 01H DUP (?) ; num_side_weapon_line_points_without_stub_wings
?main_weapon_line_points_with_stub_wings@@3PAUVEC3D@@A DD 01H DUP (?) ; main_weapon_line_points_with_stub_wings
?side_weapon_line_points_with_stub_wings@@3PAUVEC3D@@A DD 01H DUP (?) ; side_weapon_line_points_with_stub_wings
?main_weapon_line_points_without_stub_wings@@3PAUVEC3D@@A DD 01H DUP (?) ; main_weapon_line_points_without_stub_wings
?side_weapon_line_points_without_stub_wings@@3PAUVEC3D@@A DD 01H DUP (?) ; side_weapon_line_points_without_stub_wings
_BSS	ENDS
;	COMDAT __xmm@80000000800000008000000080000000
CONST	SEGMENT
__xmm@80000000800000008000000080000000 DB 00H, 00H, 00H, 080H, 00H, 00H, 00H
	DB	080H, 00H, 00H, 00H, 080H, 00H, 00H, 00H, 080H
CONST	ENDS
;	COMDAT __xmm@80000000000000008000000000000000
CONST	SEGMENT
__xmm@80000000000000008000000000000000 DB 00H, 00H, 00H, 00H, 00H, 00H, 00H
	DB	080H, 00H, 00H, 00H, 00H, 00H, 00H, 00H, 080H
CONST	ENDS
;	COMDAT __real@c2180000
CONST	SEGMENT
__real@c2180000 DD 0c2180000r			; -38
CONST	ENDS
;	COMDAT __real@c1c80000
CONST	SEGMENT
__real@c1c80000 DD 0c1c80000r			; -25
CONST	ENDS
;	COMDAT __real@c1980000
CONST	SEGMENT
__real@c1980000 DD 0c1980000r			; -19
CONST	ENDS
;	COMDAT __real@c1400000
CONST	SEGMENT
__real@c1400000 DD 0c1400000r			; -12
CONST	ENDS
;	COMDAT __real@c1000000
CONST	SEGMENT
__real@c1000000 DD 0c1000000r			; -8
CONST	ENDS
;	COMDAT __real@c0c00000
CONST	SEGMENT
__real@c0c00000 DD 0c0c00000r			; -6
CONST	ENDS
;	COMDAT __real@c0a00000
CONST	SEGMENT
__real@c0a00000 DD 0c0a00000r			; -5
CONST	ENDS
;	COMDAT __real@c0800000
CONST	SEGMENT
__real@c0800000 DD 0c0800000r			; -4
CONST	ENDS
;	COMDAT __real@c0400000
CONST	SEGMENT
__real@c0400000 DD 0c0400000r			; -3
CONST	ENDS
;	COMDAT __real@c034000000000000
CONST	SEGMENT
__real@c034000000000000 DQ 0c034000000000000r	; -20
CONST	ENDS
;	COMDAT __real@c024000000000000
CONST	SEGMENT
__real@c024000000000000 DQ 0c024000000000000r	; -10
CONST	ENDS
;	COMDAT __real@c00921fb51000000
CONST	SEGMENT
__real@c00921fb51000000 DQ 0c00921fb51000000r	; -3.14159
CONST	ENDS
;	COMDAT __real@c0000000
CONST	SEGMENT
__real@c0000000 DD 0c0000000r			; -2
CONST	ENDS
;	COMDAT __real@bff921fb51000000
CONST	SEGMENT
__real@bff921fb51000000 DQ 0bff921fb51000000r	; -1.5708
CONST	ENDS
;	COMDAT __real@bff0c15236000000
CONST	SEGMENT
__real@bff0c15236000000 DQ 0bff0c15236000000r	; -1.0472
CONST	ENDS
;	COMDAT __real@bff0000000000000
CONST	SEGMENT
__real@bff0000000000000 DQ 0bff0000000000000r	; -1
CONST	ENDS
;	COMDAT __real@bfec28f5c0000000
CONST	SEGMENT
__real@bfec28f5c0000000 DQ 0bfec28f5c0000000r	; -0.88
CONST	ENDS
;	COMDAT __real@bfe0000000000000
CONST	SEGMENT
__real@bfe0000000000000 DQ 0bfe0000000000000r	; -0.5
CONST	ENDS
;	COMDAT __real@bfd893011c000000
CONST	SEGMENT
__real@bfd893011c000000 DQ 0bfd893011c000000r	; -0.383972
CONST	ENDS
;	COMDAT __real@bfc999999999999a
CONST	SEGMENT
__real@bfc999999999999a DQ 0bfc999999999999ar	; -0.2
CONST	ENDS
;	COMDAT __real@bfc90fdb
CONST	SEGMENT
__real@bfc90fdb DD 0bfc90fdbr			; -1.5708
CONST	ENDS
;	COMDAT __real@bfc3333333333333
CONST	SEGMENT
__real@bfc3333333333333 DQ 0bfc3333333333333r	; -0.15
CONST	ENDS
;	COMDAT __real@bf860a92
CONST	SEGMENT
__real@bf860a92 DD 0bf860a92r			; -1.0472
CONST	ENDS
;	COMDAT __real@bf800000
CONST	SEGMENT
__real@bf800000 DD 0bf800000r			; -1
CONST	ENDS
;	COMDAT __real@bf7ae148
CONST	SEGMENT
__real@bf7ae148 DD 0bf7ae148r			; -0.98
CONST	ENDS
;	COMDAT __real@bf770a3d
CONST	SEGMENT
__real@bf770a3d DD 0bf770a3dr			; -0.965
CONST	ENDS
;	COMDAT __real@bf733333
CONST	SEGMENT
__real@bf733333 DD 0bf733333r			; -0.95
CONST	ENDS
;	COMDAT __real@bf70a3d7
CONST	SEGMENT
__real@bf70a3d7 DD 0bf70a3d7r			; -0.94
CONST	ENDS
;	COMDAT __real@bf6f5c29
CONST	SEGMENT
__real@bf6f5c29 DD 0bf6f5c29r			; -0.935
CONST	ENDS
;	COMDAT __real@bf6e147b
CONST	SEGMENT
__real@bf6e147b DD 0bf6e147br			; -0.93
CONST	ENDS
;	COMDAT __real@bf6b851f
CONST	SEGMENT
__real@bf6b851f DD 0bf6b851fr			; -0.92
CONST	ENDS
;	COMDAT __real@bf69999a
CONST	SEGMENT
__real@bf69999a DD 0bf69999ar			; -0.9125
CONST	ENDS
;	COMDAT __real@bf666666
CONST	SEGMENT
__real@bf666666 DD 0bf666666r			; -0.9
CONST	ENDS
;	COMDAT __real@bf63d70b
CONST	SEGMENT
__real@bf63d70b DD 0bf63d70br			; -0.89
CONST	ENDS
;	COMDAT __real@bf63d70a
CONST	SEGMENT
__real@bf63d70a DD 0bf63d70ar			; -0.89
CONST	ENDS
;	COMDAT __real@bf6147ae
CONST	SEGMENT
__real@bf6147ae DD 0bf6147aer			; -0.88
CONST	ENDS
;	COMDAT __real@bf5eb852
CONST	SEGMENT
__real@bf5eb852 DD 0bf5eb852r			; -0.87
CONST	ENDS
;	COMDAT __real@bf5c28f6
CONST	SEGMENT
__real@bf5c28f6 DD 0bf5c28f6r			; -0.86
CONST	ENDS
;	COMDAT __real@bf5ae148
CONST	SEGMENT
__real@bf5ae148 DD 0bf5ae148r			; -0.855
CONST	ENDS
;	COMDAT __real@bf59999a
CONST	SEGMENT
__real@bf59999a DD 0bf59999ar			; -0.85
CONST	ENDS
;	COMDAT __real@bf576c8b
CONST	SEGMENT
__real@bf576c8b DD 0bf576c8br			; -0.8415
CONST	ENDS
;	COMDAT __real@bf570a3e
CONST	SEGMENT
__real@bf570a3e DD 0bf570a3er			; -0.84
CONST	ENDS
;	COMDAT __real@bf547ae1
CONST	SEGMENT
__real@bf547ae1 DD 0bf547ae1r			; -0.83
CONST	ENDS
;	COMDAT __real@bf533333
CONST	SEGMENT
__real@bf533333 DD 0bf533333r			; -0.825
CONST	ENDS
;	COMDAT __real@bf4f5c29
CONST	SEGMENT
__real@bf4f5c29 DD 0bf4f5c29r			; -0.81
CONST	ENDS
;	COMDAT __real@bf4f5c28
CONST	SEGMENT
__real@bf4f5c28 DD 0bf4f5c28r			; -0.81
CONST	ENDS
;	COMDAT __real@bf4e147b
CONST	SEGMENT
__real@bf4e147b DD 0bf4e147br			; -0.805
CONST	ENDS
;	COMDAT __real@bf4ccccd
CONST	SEGMENT
__real@bf4ccccd DD 0bf4ccccdr			; -0.8
CONST	ENDS
;	COMDAT __real@bf4a3d70
CONST	SEGMENT
__real@bf4a3d70 DD 0bf4a3d70r			; -0.79
CONST	ENDS
;	COMDAT __real@bf490fdb
CONST	SEGMENT
__real@bf490fdb DD 0bf490fdbr			; -0.785398
CONST	ENDS
;	COMDAT __real@bf47ae15
CONST	SEGMENT
__real@bf47ae15 DD 0bf47ae15r			; -0.78
CONST	ENDS
;	COMDAT __real@bf47ae14
CONST	SEGMENT
__real@bf47ae14 DD 0bf47ae14r			; -0.78
CONST	ENDS
;	COMDAT __real@bf451eb9
CONST	SEGMENT
__real@bf451eb9 DD 0bf451eb9r			; -0.77
CONST	ENDS
;	COMDAT __real@bf451eb8
CONST	SEGMENT
__real@bf451eb8 DD 0bf451eb8r			; -0.77
CONST	ENDS
;	COMDAT __real@bf43d70a
CONST	SEGMENT
__real@bf43d70a DD 0bf43d70ar			; -0.765
CONST	ENDS
;	COMDAT __real@bf43a29c
CONST	SEGMENT
__real@bf43a29c DD 0bf43a29cr			; -0.7642
CONST	ENDS
;	COMDAT __real@bf428f5c
CONST	SEGMENT
__real@bf428f5c DD 0bf428f5cr			; -0.76
CONST	ENDS
;	COMDAT __real@bf400000
CONST	SEGMENT
__real@bf400000 DD 0bf400000r			; -0.75
CONST	ENDS
;	COMDAT __real@bf3de00d
CONST	SEGMENT
__real@bf3de00d DD 0bf3de00dr			; -0.7417
CONST	ENDS
;	COMDAT __real@bf3d70a4
CONST	SEGMENT
__real@bf3d70a4 DD 0bf3d70a4r			; -0.74
CONST	ENDS
;	COMDAT __real@bf3851ec
CONST	SEGMENT
__real@bf3851ec DD 0bf3851ecr			; -0.72
CONST	ENDS
;	COMDAT __real@bf381d7e
CONST	SEGMENT
__real@bf381d7e DD 0bf381d7er			; -0.7192
CONST	ENDS
;	COMDAT __real@bf333333
CONST	SEGMENT
__real@bf333333 DD 0bf333333r			; -0.7
CONST	ENDS
;	COMDAT __real@bf30a3d7
CONST	SEGMENT
__real@bf30a3d7 DD 0bf30a3d7r			; -0.69
CONST	ENDS
;	COMDAT __real@bf2ccccd
CONST	SEGMENT
__real@bf2ccccd DD 0bf2ccccdr			; -0.675
CONST	ENDS
;	COMDAT __real@bf2bf259
CONST	SEGMENT
__real@bf2bf259 DD 0bf2bf259r			; -0.671667
CONST	ENDS
;	COMDAT __real@bf28f5c3
CONST	SEGMENT
__real@bf28f5c3 DD 0bf28f5c3r			; -0.66
CONST	ENDS
;	COMDAT __real@bf23d70a
CONST	SEGMENT
__real@bf23d70a DD 0bf23d70ar			; -0.64
CONST	ENDS
;	COMDAT __real@bf2147ae
CONST	SEGMENT
__real@bf2147ae DD 0bf2147aer			; -0.63
CONST	ENDS
;	COMDAT __real@bf19999a
CONST	SEGMENT
__real@bf19999a DD 0bf19999ar			; -0.6
CONST	ENDS
;	COMDAT __real@bf17e282
CONST	SEGMENT
__real@bf17e282 DD 0bf17e282r			; -0.5933
CONST	ENDS
;	COMDAT __real@bf147ae1
CONST	SEGMENT
__real@bf147ae1 DD 0bf147ae1r			; -0.58
CONST	ENDS
;	COMDAT __real@bf121ff3
CONST	SEGMENT
__real@bf121ff3 DD 0bf121ff3r			; -0.5708
CONST	ENDS
;	COMDAT __real@bf11eb86
CONST	SEGMENT
__real@bf11eb86 DD 0bf11eb86r			; -0.57
CONST	ENDS
;	COMDAT __real@bf11eb85
CONST	SEGMENT
__real@bf11eb85 DD 0bf11eb85r			; -0.57
CONST	ENDS
;	COMDAT __real@bf0f5c29
CONST	SEGMENT
__real@bf0f5c29 DD 0bf0f5c29r			; -0.56
CONST	ENDS
;	COMDAT __real@bf0ccccd
CONST	SEGMENT
__real@bf0ccccd DD 0bf0ccccdr			; -0.55
CONST	ENDS
;	COMDAT __real@bf0c5d64
CONST	SEGMENT
__real@bf0c5d64 DD 0bf0c5d64r			; -0.5483
CONST	ENDS
;	COMDAT __real@bf060a92
CONST	SEGMENT
__real@bf060a92 DD 0bf060a92r			; -0.523599
CONST	ENDS
;	COMDAT __real@bf051eb8
CONST	SEGMENT
__real@bf051eb8 DD 0bf051eb8r			; -0.52
CONST	ENDS
;	COMDAT __real@bf000000
CONST	SEGMENT
__real@bf000000 DD 0bf000000r			; -0.5
CONST	ENDS
;	COMDAT __real@befae148
CONST	SEGMENT
__real@befae148 DD 0befae148r			; -0.49
CONST	ENDS
;	COMDAT __real@bef5c28f
CONST	SEGMENT
__real@bef5c28f DD 0bef5c28fr			; -0.48
CONST	ENDS
;	COMDAT __real@beed3a07
CONST	SEGMENT
__real@beed3a07 DD 0beed3a07r			; -0.463333
CONST	ENDS
;	COMDAT __real@beeb851f
CONST	SEGMENT
__real@beeb851f DD 0beeb851fr			; -0.46
CONST	ENDS
;	COMDAT __real@bee66666
CONST	SEGMENT
__real@bee66666 DD 0bee66666r			; -0.45
CONST	ENDS
;	COMDAT __real@bedc28f6
CONST	SEGMENT
__real@bedc28f6 DD 0bedc28f6r			; -0.43
CONST	ENDS
;	COMDAT __real@bed851ec
CONST	SEGMENT
__real@bed851ec DD 0bed851ecr			; -0.4225
CONST	ENDS
;	COMDAT __real@bed1eb85
CONST	SEGMENT
__real@bed1eb85 DD 0bed1eb85r			; -0.41
CONST	ENDS
;	COMDAT __real@becccccd
CONST	SEGMENT
__real@becccccd DD 0becccccdr			; -0.4
CONST	ENDS
;	COMDAT __real@bec28f5c
CONST	SEGMENT
__real@bec28f5c DD 0bec28f5cr			; -0.38
CONST	ENDS
;	COMDAT __real@bec147ae
CONST	SEGMENT
__real@bec147ae DD 0bec147aer			; -0.3775
CONST	ENDS
;	COMDAT __real@bebd70a4
CONST	SEGMENT
__real@bebd70a4 DD 0bebd70a4r			; -0.37
CONST	ENDS
;	COMDAT __real@beb851ec
CONST	SEGMENT
__real@beb851ec DD 0beb851ecr			; -0.36
CONST	ENDS
;	COMDAT __real@beb33333
CONST	SEGMENT
__real@beb33333 DD 0beb33333r			; -0.35
CONST	ENDS
;	COMDAT __real@beb2b8c2
CONST	SEGMENT
__real@beb2b8c2 DD 0beb2b8c2r			; -0.349066
CONST	ENDS
;	COMDAT __real@beaaa64c
CONST	SEGMENT
__real@beaaa64c DD 0beaaa64cr			; -0.3333
CONST	ENDS
;	COMDAT __real@bea3d70a
CONST	SEGMENT
__real@bea3d70a DD 0bea3d70ar			; -0.32
CONST	ENDS
;	COMDAT __real@be99999a
CONST	SEGMENT
__real@be99999a DD 0be99999ar			; -0.3
CONST	ENDS
;	COMDAT __real@be947ae1
CONST	SEGMENT
__real@be947ae1 DD 0be947ae1r			; -0.29
CONST	ENDS
;	COMDAT __real@be851eb8
CONST	SEGMENT
__real@be851eb8 DD 0be851eb8r			; -0.26
CONST	ENDS
;	COMDAT __real@be80ded3
CONST	SEGMENT
__real@be80ded3 DD 0be80ded3r			; -0.2517
CONST	ENDS
;	COMDAT __real@be800000
CONST	SEGMENT
__real@be800000 DD 0be800000r			; -0.25
CONST	ENDS
;	COMDAT __real@be75c28f
CONST	SEGMENT
__real@be75c28f DD 0be75c28fr			; -0.24
CONST	ENDS
;	COMDAT __real@be6b851f
CONST	SEGMENT
__real@be6b851f DD 0be6b851fr			; -0.23
CONST	ENDS
;	COMDAT __real@be6ab368
CONST	SEGMENT
__real@be6ab368 DD 0be6ab368r			; -0.2292
CONST	ENDS
;	COMDAT __real@be53a92a
CONST	SEGMENT
__real@be53a92a DD 0be53a92ar			; -0.2067
CONST	ENDS
;	COMDAT __real@be4ccccd
CONST	SEGMENT
__real@be4ccccd DD 0be4ccccdr			; -0.2
CONST	ENDS
;	COMDAT __real@be32b8c2
CONST	SEGMENT
__real@be32b8c2 DD 0be32b8c2r			; -0.174533
CONST	ENDS
;	COMDAT __real@be2e147b
CONST	SEGMENT
__real@be2e147b DD 0be2e147br			; -0.17
CONST	ENDS
;	COMDAT __real@be23d70a
CONST	SEGMENT
__real@be23d70a DD 0be23d70ar			; -0.16
CONST	ENDS
;	COMDAT __real@be0f5c29
CONST	SEGMENT
__real@be0f5c29 DD 0be0f5c29r			; -0.14
CONST	ENDS
;	COMDAT __real@bde147ae
CONST	SEGMENT
__real@bde147ae DD 0bde147aer			; -0.11
CONST	ENDS
;	COMDAT __real@bdcccccd
CONST	SEGMENT
__real@bdcccccd DD 0bdcccccdr			; -0.1
CONST	ENDS
;	COMDAT __real@bda57a78
CONST	SEGMENT
__real@bda57a78 DD 0bda57a78r			; -0.0808
CONST	ENDS
;	COMDAT __real@bda3d70a
CONST	SEGMENT
__real@bda3d70a DD 0bda3d70ar			; -0.08
CONST	ENDS
;	COMDAT __real@bd99999a
CONST	SEGMENT
__real@bd99999a DD 0bd99999ar			; -0.075
CONST	ENDS
;	COMDAT __real@bd6ecbfb
CONST	SEGMENT
__real@bd6ecbfb DD 0bd6ecbfbr			; -0.0583
CONST	ENDS
;	COMDAT __real@bd4ccccd
CONST	SEGMENT
__real@bd4ccccd DD 0bd4ccccdr			; -0.05
CONST	ENDS
;	COMDAT __real@bd12a305
CONST	SEGMENT
__real@bd12a305 DD 0bd12a305r			; -0.0358
CONST	ENDS
;	COMDAT __real@bd0f5c29
CONST	SEGMENT
__real@bd0f5c29 DD 0bd0f5c29r			; -0.035
CONST	ENDS
;	COMDAT __real@bcf5c28f
CONST	SEGMENT
__real@bcf5c28f DD 0bcf5c28fr			; -0.03
CONST	ENDS
;	COMDAT __real@bccccccd
CONST	SEGMENT
__real@bccccccd DD 0bccccccdr			; -0.025
CONST	ENDS
;	COMDAT __real@bca3d70a
CONST	SEGMENT
__real@bca3d70a DD 0bca3d70ar			; -0.02
CONST	ENDS
;	COMDAT __real@80000000
CONST	SEGMENT
__real@80000000 DD 080000000r			; -0
CONST	ENDS
;	COMDAT __real@49742400
CONST	SEGMENT
__real@49742400 DD 049742400r			; 1e+06
CONST	ENDS
;	COMDAT __real@46c35000
CONST	SEGMENT
__real@46c35000 DD 046c35000r			; 25000
CONST	ENDS
;	COMDAT __real@461c4000
CONST	SEGMENT
__real@461c4000 DD 0461c4000r			; 10000
CONST	ENDS
;	COMDAT __real@459c4000
CONST	SEGMENT
__real@459c4000 DD 0459c4000r			; 5000
CONST	ENDS
;	COMDAT __real@44fa0000
CONST	SEGMENT
__real@44fa0000 DD 044fa0000r			; 2000
CONST	ENDS
;	COMDAT __real@447a0000
CONST	SEGMENT
__real@447a0000 DD 0447a0000r			; 1000
CONST	ENDS
;	COMDAT __real@43fa0000
CONST	SEGMENT
__real@43fa0000 DD 043fa0000r			; 500
CONST	ENDS
;	COMDAT __real@43960000
CONST	SEGMENT
__real@43960000 DD 043960000r			; 300
CONST	ENDS
;	COMDAT __real@43800000
CONST	SEGMENT
__real@43800000 DD 043800000r			; 256
CONST	ENDS
;	COMDAT __real@437fffbe
CONST	SEGMENT
__real@437fffbe DD 0437fffber			; 255.999
CONST	ENDS
;	COMDAT __real@43000000
CONST	SEGMENT
__real@43000000 DD 043000000r			; 128
CONST	ENDS
;	COMDAT __real@42652ee0
CONST	SEGMENT
__real@42652ee0 DD 042652ee0r			; 57.2958
CONST	ENDS
;	COMDAT __real@42480000
CONST	SEGMENT
__real@42480000 DD 042480000r			; 50
CONST	ENDS
;	COMDAT __real@41980000
CONST	SEGMENT
__real@41980000 DD 041980000r			; 19
CONST	ENDS
;	COMDAT __real@41900000
CONST	SEGMENT
__real@41900000 DD 041900000r			; 18
CONST	ENDS
;	COMDAT __real@41200000
CONST	SEGMENT
__real@41200000 DD 041200000r			; 10
CONST	ENDS
;	COMDAT __real@41100000
CONST	SEGMENT
__real@41100000 DD 041100000r			; 9
CONST	ENDS
;	COMDAT __real@40f86a0000000000
CONST	SEGMENT
__real@40f86a0000000000 DQ 040f86a0000000000r	; 100000
CONST	ENDS
;	COMDAT __real@40c90fdb
CONST	SEGMENT
__real@40c90fdb DD 040c90fdbr			; 6.28319
CONST	ENDS
;	COMDAT __real@40c3878000000000
CONST	SEGMENT
__real@40c3878000000000 DQ 040c3878000000000r	; 9999
CONST	ENDS
;	COMDAT __real@40a00000
CONST	SEGMENT
__real@40a00000 DD 040a00000r			; 5
CONST	ENDS
;	COMDAT __real@409f400000000000
CONST	SEGMENT
__real@409f400000000000 DQ 0409f400000000000r	; 2000
CONST	ENDS
;	COMDAT __real@408f400000000000
CONST	SEGMENT
__real@408f400000000000 DQ 0408f400000000000r	; 1000
CONST	ENDS
;	COMDAT __real@408f380000000000
CONST	SEGMENT
__real@408f380000000000 DQ 0408f380000000000r	; 999
CONST	ENDS
;	COMDAT __real@40845f306446f9b4
CONST	SEGMENT
__real@40845f306446f9b4 DQ 040845f306446f9b4r	; 651.899
CONST	ENDS
;	COMDAT __real@4084000000000000
CONST	SEGMENT
__real@4084000000000000 DQ 04084000000000000r	; 640
CONST	ENDS
;	COMDAT __real@40800000
CONST	SEGMENT
__real@40800000 DD 040800000r			; 4
CONST	ENDS
;	COMDAT __real@407f400000000000
CONST	SEGMENT
__real@407f400000000000 DQ 0407f400000000000r	; 500
CONST	ENDS
;	COMDAT __real@407f300000000000
CONST	SEGMENT
__real@407f300000000000 DQ 0407f300000000000r	; 499
CONST	ENDS
;	COMDAT __real@407e000000000000
CONST	SEGMENT
__real@407e000000000000 DQ 0407e000000000000r	; 480
CONST	ENDS
;	COMDAT __real@4078d00000000000
CONST	SEGMENT
__real@4078d00000000000 DQ 04078d00000000000r	; 397
CONST	ENDS
;	COMDAT __real@4072c00000000000
CONST	SEGMENT
__real@4072c00000000000 DQ 04072c00000000000r	; 300
CONST	ENDS
;	COMDAT __real@4072800000000000
CONST	SEGMENT
__real@4072800000000000 DQ 04072800000000000r	; 296
CONST	ENDS
;	COMDAT __real@4070000000000000
CONST	SEGMENT
__real@4070000000000000 DQ 04070000000000000r	; 256
CONST	ENDS
;	COMDAT __real@406e600000000000
CONST	SEGMENT
__real@406e600000000000 DQ 0406e600000000000r	; 243
CONST	ENDS
;	COMDAT __real@4069000000000000
CONST	SEGMENT
__real@4069000000000000 DQ 04069000000000000r	; 200
CONST	ENDS
;	COMDAT __real@40666666
CONST	SEGMENT
__real@40666666 DD 040666666r			; 3.6
CONST	ENDS
;	COMDAT __real@4061a00000000000
CONST	SEGMENT
__real@4061a00000000000 DQ 04061a00000000000r	; 141
CONST	ENDS
;	COMDAT __real@405fc00000000000
CONST	SEGMENT
__real@405fc00000000000 DQ 0405fc00000000000r	; 127
CONST	ENDS
;	COMDAT __real@405e000000000000
CONST	SEGMENT
__real@405e000000000000 DQ 0405e000000000000r	; 120
CONST	ENDS
;	COMDAT __real@405b800000000000
CONST	SEGMENT
__real@405b800000000000 DQ 0405b800000000000r	; 110
CONST	ENDS
;	COMDAT __real@4059000000000000
CONST	SEGMENT
__real@4059000000000000 DQ 04059000000000000r	; 100
CONST	ENDS
;	COMDAT __real@4051f948
CONST	SEGMENT
__real@4051f948 DD 04051f948r			; 3.28084
CONST	ENDS
;	COMDAT __real@404ca5dc00000000
CONST	SEGMENT
__real@404ca5dc00000000 DQ 0404ca5dc00000000r	; 57.2958
CONST	ENDS
;	COMDAT __real@4044000000000000
CONST	SEGMENT
__real@4044000000000000 DQ 04044000000000000r	; 40
CONST	ENDS
;	COMDAT __real@40400000
CONST	SEGMENT
__real@40400000 DD 040400000r			; 3
CONST	ENDS
;	COMDAT __real@4034000000000000
CONST	SEGMENT
__real@4034000000000000 DQ 04034000000000000r	; 20
CONST	ENDS
;	COMDAT __real@402a000000000000
CONST	SEGMENT
__real@402a000000000000 DQ 0402a000000000000r	; 13
CONST	ENDS
;	COMDAT __real@4026eb1686b280e6
CONST	SEGMENT
__real@4026eb1686b280e6 DQ 04026eb1686b280e6r	; 11.4592
CONST	ENDS
;	COMDAT __real@4024000000000000
CONST	SEGMENT
__real@4024000000000000 DQ 04024000000000000r	; 10
CONST	ENDS
;	COMDAT __real@401c000000000000
CONST	SEGMENT
__real@401c000000000000 DQ 0401c000000000000r	; 7
CONST	ENDS
;	COMDAT __real@401921fb51000000
CONST	SEGMENT
__real@401921fb51000000 DQ 0401921fb51000000r	; 6.28319
CONST	ENDS
;	COMDAT __real@4016eb167e7d81e3
CONST	SEGMENT
__real@4016eb167e7d81e3 DQ 04016eb167e7d81e3r	; 5.72958
CONST	ENDS
;	COMDAT __real@4014000000000000
CONST	SEGMENT
__real@4014000000000000 DQ 04014000000000000r	; 5
CONST	ENDS
;	COMDAT __real@4010000000000000
CONST	SEGMENT
__real@4010000000000000 DQ 04010000000000000r	; 4
CONST	ENDS
;	COMDAT __real@400d1eb8
CONST	SEGMENT
__real@400d1eb8 DD 0400d1eb8r			; 2.205
CONST	ENDS
;	COMDAT __real@400921fb51000000
CONST	SEGMENT
__real@400921fb51000000 DQ 0400921fb51000000r	; 3.14159
CONST	ENDS
;	COMDAT __real@4008000000000000
CONST	SEGMENT
__real@4008000000000000 DQ 04008000000000000r	; 3
CONST	ENDS
;	COMDAT __real@4000000000000000
CONST	SEGMENT
__real@4000000000000000 DQ 04000000000000000r	; 2
CONST	ENDS
;	COMDAT __real@40000000
CONST	SEGMENT
__real@40000000 DD 040000000r			; 2
CONST	ENDS
;	COMDAT __real@3fff0bb080000000
CONST	SEGMENT
__real@3fff0bb080000000 DQ 03fff0bb080000000r	; 1.94035
CONST	ENDS
;	COMDAT __real@3ff921fb51000000
CONST	SEGMENT
__real@3ff921fb51000000 DQ 03ff921fb51000000r	; 1.5708
CONST	ENDS
;	COMDAT __real@3ff85d84
CONST	SEGMENT
__real@3ff85d84 DD 03ff85d84r			; 1.94035
CONST	ENDS
;	COMDAT __real@3ff8000000000000
CONST	SEGMENT
__real@3ff8000000000000 DQ 03ff8000000000000r	; 1.5
CONST	ENDS
;	COMDAT __real@3ff5d3d193333333
CONST	SEGMENT
__real@3ff5d3d193333333 DQ 03ff5d3d193333333r	; 1.36421
CONST	ENDS
;	COMDAT __real@3ff0c15236000000
CONST	SEGMENT
__real@3ff0c15236000000 DQ 03ff0c15236000000r	; 1.0472
CONST	ENDS
;	COMDAT __real@3ff0c09b332ccccd
CONST	SEGMENT
__real@3ff0c09b332ccccd DQ 03ff0c09b332ccccdr	; 1.04702
CONST	ENDS
;	COMDAT __real@3ff0000000000000
CONST	SEGMENT
__real@3ff0000000000000 DQ 03ff0000000000000r	; 1
CONST	ENDS
;	COMDAT __real@3feff7ced916872b
CONST	SEGMENT
__real@3feff7ced916872b DQ 03feff7ced916872br	; 0.999
CONST	ENDS
;	COMDAT __real@3feb333333333333
CONST	SEGMENT
__real@3feb333333333333 DQ 03feb333333333333r	; 0.85
CONST	ENDS
;	COMDAT __real@3fe8000000000000
CONST	SEGMENT
__real@3fe8000000000000 DQ 03fe8000000000000r	; 0.75
CONST	ENDS
;	COMDAT __real@3fe6666660000000
CONST	SEGMENT
__real@3fe6666660000000 DQ 03fe6666660000000r	; 0.7
CONST	ENDS
;	COMDAT __real@3fe3333333333333
CONST	SEGMENT
__real@3fe3333333333333 DQ 03fe3333333333333r	; 0.6
CONST	ENDS
;	COMDAT __real@3fe0000000000000
CONST	SEGMENT
__real@3fe0000000000000 DQ 03fe0000000000000r	; 0.5
CONST	ENDS
;	COMDAT __real@3fdeb851eb851eb8
CONST	SEGMENT
__real@3fdeb851eb851eb8 DQ 03fdeb851eb851eb8r	; 0.48
CONST	ENDS
;	COMDAT __real@3fdbecde5a000000
CONST	SEGMENT
__real@3fdbecde5a000000 DQ 03fdbecde5a000000r	; 0.436332
CONST	ENDS
;	COMDAT __real@3fd893011c000000
CONST	SEGMENT
__real@3fd893011c000000 DQ 03fd893011c000000r	; 0.383972
CONST	ENDS
;	COMDAT __real@3fd6666666666666
CONST	SEGMENT
__real@3fd6666666666666 DQ 03fd6666666666666r	; 0.35
CONST	ENDS
;	COMDAT __real@3fd51eb851eb851f
CONST	SEGMENT
__real@3fd51eb851eb851f DQ 03fd51eb851eb851fr	; 0.33
CONST	ENDS
;	COMDAT __real@3fd3333333333333
CONST	SEGMENT
__real@3fd3333333333333 DQ 03fd3333333333333r	; 0.3
CONST	ENDS
;	COMDAT __real@3fd0a3d70a3d70a4
CONST	SEGMENT
__real@3fd0a3d70a3d70a4 DQ 03fd0a3d70a3d70a4r	; 0.26
CONST	ENDS
;	COMDAT __real@3fd0000000000000
CONST	SEGMENT
__real@3fd0000000000000 DQ 03fd0000000000000r	; 0.25
CONST	ENDS
;	COMDAT __real@3fc999999999999a
CONST	SEGMENT
__real@3fc999999999999a DQ 03fc999999999999ar	; 0.2
CONST	ENDS
;	COMDAT __real@3fc90fdb
CONST	SEGMENT
__real@3fc90fdb DD 03fc90fdbr			; 1.5708
CONST	ENDS
;	COMDAT __real@3fc70a3d70a3d70a
CONST	SEGMENT
__real@3fc70a3d70a3d70a DQ 03fc70a3d70a3d70ar	; 0.18
CONST	ENDS
;	COMDAT __real@3fc6571848000000
CONST	SEGMENT
__real@3fc6571848000000 DQ 03fc6571848000000r	; 0.174533
CONST	ENDS
;	COMDAT __real@3fc3333340000000
CONST	SEGMENT
__real@3fc3333340000000 DQ 03fc3333340000000r	; 0.15
CONST	ENDS
;	COMDAT __real@3fc3333333333333
CONST	SEGMENT
__real@3fc3333333333333 DQ 03fc3333333333333r	; 0.15
CONST	ENDS
;	COMDAT __real@3fc0a3d70a3d70a4
CONST	SEGMENT
__real@3fc0a3d70a3d70a4 DQ 03fc0a3d70a3d70a4r	; 0.13
CONST	ENDS
;	COMDAT __real@3fb999999999999a
CONST	SEGMENT
__real@3fb999999999999a DQ 03fb999999999999ar	; 0.1
CONST	ENDS
;	COMDAT __real@3fb3e93ea0000000
CONST	SEGMENT
__real@3fb3e93ea0000000 DQ 03fb3e93ea0000000r	; 0.0777778
CONST	ENDS
;	COMDAT __real@3fb3333340000000
CONST	SEGMENT
__real@3fb3333340000000 DQ 03fb3333340000000r	; 0.075
CONST	ENDS
;	COMDAT __real@3fb3333333333333
CONST	SEGMENT
__real@3fb3333333333333 DQ 03fb3333333333333r	; 0.075
CONST	ENDS
;	COMDAT __real@3fb1eb851eb851ec
CONST	SEGMENT
__real@3fb1eb851eb851ec DQ 03fb1eb851eb851ecr	; 0.07
CONST	ENDS
;	COMDAT __real@3fae9e8d
CONST	SEGMENT
__real@3fae9e8d DD 03fae9e8dr			; 1.36421
CONST	ENDS
;	COMDAT __real@3fa999999999999a
CONST	SEGMENT
__real@3fa999999999999a DQ 03fa999999999999ar	; 0.05
CONST	ENDS
;	COMDAT __real@3fa47ae147ae147b
CONST	SEGMENT
__real@3fa47ae147ae147b DQ 03fa47ae147ae147br	; 0.04
CONST	ENDS
;	COMDAT __real@3fa1eb851eb851ec
CONST	SEGMENT
__real@3fa1eb851eb851ec DQ 03fa1eb851eb851ecr	; 0.035
CONST	ENDS
;	COMDAT __real@3f9eb851eb851eb8
CONST	SEGMENT
__real@3f9eb851eb851eb8 DQ 03f9eb851eb851eb8r	; 0.03
CONST	ENDS
;	COMDAT __real@3f9999999999999a
CONST	SEGMENT
__real@3f9999999999999a DQ 03f9999999999999ar	; 0.025
CONST	ENDS
;	COMDAT __real@3f947ae147ae147b
CONST	SEGMENT
__real@3f947ae147ae147b DQ 03f947ae147ae147br	; 0.02
CONST	ENDS
;	COMDAT __real@3f860a92
CONST	SEGMENT
__real@3f860a92 DD 03f860a92r			; 1.0472
CONST	ENDS
;	COMDAT __real@3f847ae147ae147b
CONST	SEGMENT
__real@3f847ae147ae147b DQ 03f847ae147ae147br	; 0.01
CONST	ENDS
;	COMDAT __real@3f82f6e9
CONST	SEGMENT
__real@3f82f6e9 DD 03f82f6e9r			; 1.02316
CONST	ENDS
;	COMDAT __real@3f800000
CONST	SEGMENT
__real@3f800000 DD 03f800000r			; 1
CONST	ENDS
;	COMDAT __real@3f7fbe77
CONST	SEGMENT
__real@3f7fbe77 DD 03f7fbe77r			; 0.999
CONST	ENDS
;	COMDAT __real@3f770a3d
CONST	SEGMENT
__real@3f770a3d DD 03f770a3dr			; 0.965
CONST	ENDS
;	COMDAT __real@3f6ccccd
CONST	SEGMENT
__real@3f6ccccd DD 03f6ccccdr			; 0.925
CONST	ENDS
;	COMDAT __real@3f6bd70a
CONST	SEGMENT
__real@3f6bd70a DD 03f6bd70ar			; 0.92125
CONST	ENDS
;	COMDAT __real@3f68f5c3
CONST	SEGMENT
__real@3f68f5c3 DD 03f68f5c3r			; 0.91
CONST	ENDS
;	COMDAT __real@3f666666
CONST	SEGMENT
__real@3f666666 DD 03f666666r			; 0.9
CONST	ENDS
;	COMDAT __real@3f600000
CONST	SEGMENT
__real@3f600000 DD 03f600000r			; 0.875
CONST	ENDS
;	COMDAT __real@3f5d70a4
CONST	SEGMENT
__real@3f5d70a4 DD 03f5d70a4r			; 0.865
CONST	ENDS
;	COMDAT __real@3f5c28f6
CONST	SEGMENT
__real@3f5c28f6 DD 03f5c28f6r			; 0.86
CONST	ENDS
;	COMDAT __real@3f59999a
CONST	SEGMENT
__real@3f59999a DD 03f59999ar			; 0.85
CONST	ENDS
;	COMDAT __real@3f5999999999999a
CONST	SEGMENT
__real@3f5999999999999a DQ 03f5999999999999ar	; 0.0015625
CONST	ENDS
;	COMDAT __real@3f576c8b
CONST	SEGMENT
__real@3f576c8b DD 03f576c8br			; 0.8415
CONST	ENDS
;	COMDAT __real@3f570a3d
CONST	SEGMENT
__real@3f570a3d DD 03f570a3dr			; 0.84
CONST	ENDS
;	COMDAT __real@3f547ae1
CONST	SEGMENT
__real@3f547ae1 DD 03f547ae1r			; 0.83
CONST	ENDS
;	COMDAT __real@3f50a3d7
CONST	SEGMENT
__real@3f50a3d7 DD 03f50a3d7r			; 0.815
CONST	ENDS
;	COMDAT __real@3f50624dd2f1a9fc
CONST	SEGMENT
__real@3f50624dd2f1a9fc DQ 03f50624dd2f1a9fcr	; 0.001
CONST	ENDS
;	COMDAT __real@3f500000
CONST	SEGMENT
__real@3f500000 DD 03f500000r			; 0.8125
CONST	ENDS
;	COMDAT __real@3f4ccccd
CONST	SEGMENT
__real@3f4ccccd DD 03f4ccccdr			; 0.8
CONST	ENDS
;	COMDAT __real@3f4b851f
CONST	SEGMENT
__real@3f4b851f DD 03f4b851fr			; 0.795
CONST	ENDS
;	COMDAT __real@3f4a3d71
CONST	SEGMENT
__real@3f4a3d71 DD 03f4a3d71r			; 0.79
CONST	ENDS
;	COMDAT __real@3f490fdb
CONST	SEGMENT
__real@3f490fdb DD 03f490fdbr			; 0.785398
CONST	ENDS
;	COMDAT __real@3f466666
CONST	SEGMENT
__real@3f466666 DD 03f466666r			; 0.775
CONST	ENDS
;	COMDAT __real@3f451eb9
CONST	SEGMENT
__real@3f451eb9 DD 03f451eb9r			; 0.77
CONST	ENDS
;	COMDAT __real@3f43d70a
CONST	SEGMENT
__real@3f43d70a DD 03f43d70ar			; 0.765
CONST	ENDS
;	COMDAT __real@3f400000
CONST	SEGMENT
__real@3f400000 DD 03f400000r			; 0.75
CONST	ENDS
;	COMDAT __real@3f3eb852
CONST	SEGMENT
__real@3f3eb852 DD 03f3eb852r			; 0.745
CONST	ENDS
;	COMDAT __real@3f333333
CONST	SEGMENT
__real@3f333333 DD 03f333333r			; 0.7
CONST	ENDS
;	COMDAT __real@3f2e9e8d
CONST	SEGMENT
__real@3f2e9e8d DD 03f2e9e8dr			; 0.682107
CONST	ENDS
;	COMDAT __real@3f2ccccd
CONST	SEGMENT
__real@3f2ccccd DD 03f2ccccdr			; 0.675
CONST	ENDS
;	COMDAT __real@3f266666
CONST	SEGMENT
__real@3f266666 DD 03f266666r			; 0.65
CONST	ENDS
;	COMDAT __real@3f233333
CONST	SEGMENT
__real@3f233333 DD 03f233333r			; 0.6375
CONST	ENDS
;	COMDAT __real@3f2147ae
CONST	SEGMENT
__real@3f2147ae DD 03f2147aer			; 0.63
CONST	ENDS
;	COMDAT __real@3f1c28f6
CONST	SEGMENT
__real@3f1c28f6 DD 03f1c28f6r			; 0.61
CONST	ENDS
;	COMDAT __real@3f1a36e2eb1c432d
CONST	SEGMENT
__real@3f1a36e2eb1c432d DQ 03f1a36e2eb1c432dr	; 0.0001
CONST	ENDS
;	COMDAT __real@3f19999a
CONST	SEGMENT
__real@3f19999a DD 03f19999ar			; 0.6
CONST	ENDS
;	COMDAT __real@3f147ae1
CONST	SEGMENT
__real@3f147ae1 DD 03f147ae1r			; 0.58
CONST	ENDS
;	COMDAT __real@3f11eb86
CONST	SEGMENT
__real@3f11eb86 DD 03f11eb86r			; 0.57
CONST	ENDS
;	COMDAT __real@3f11eb85
CONST	SEGMENT
__real@3f11eb85 DD 03f11eb85r			; 0.57
CONST	ENDS
;	COMDAT __real@3f10000000000000
CONST	SEGMENT
__real@3f10000000000000 DQ 03f10000000000000r	; 6.10352e-05
CONST	ENDS
;	COMDAT __real@3f0ccccd
CONST	SEGMENT
__real@3f0ccccd DD 03f0ccccdr			; 0.55
CONST	ENDS
;	COMDAT __real@3f060a92
CONST	SEGMENT
__real@3f060a92 DD 03f060a92r			; 0.523599
CONST	ENDS
;	COMDAT __real@3f051eb8
CONST	SEGMENT
__real@3f051eb8 DD 03f051eb8r			; 0.52
CONST	ENDS
;	COMDAT __real@3f00002000400080
CONST	SEGMENT
__real@3f00002000400080 DQ 03f00002000400080r	; 3.05185e-05
CONST	ENDS
;	COMDAT __real@3f000000
CONST	SEGMENT
__real@3f000000 DD 03f000000r			; 0.5
CONST	ENDS
;	COMDAT __real@3efae148
CONST	SEGMENT
__real@3efae148 DD 03efae148r			; 0.49
CONST	ENDS
;	COMDAT __real@3ef5c28f
CONST	SEGMENT
__real@3ef5c28f DD 03ef5c28fr			; 0.48
CONST	ENDS
;	COMDAT __real@3eeb851f
CONST	SEGMENT
__real@3eeb851f DD 03eeb851fr			; 0.46
CONST	ENDS
;	COMDAT __real@3ee66667
CONST	SEGMENT
__real@3ee66667 DD 03ee66667r			; 0.45
CONST	ENDS
;	COMDAT __real@3ee66666
CONST	SEGMENT
__real@3ee66666 DD 03ee66666r			; 0.45
CONST	ENDS
;	COMDAT __real@3edc28f6
CONST	SEGMENT
__real@3edc28f6 DD 03edc28f6r			; 0.43
CONST	ENDS
;	COMDAT __real@3ed9999a
CONST	SEGMENT
__real@3ed9999a DD 03ed9999ar			; 0.425
CONST	ENDS
;	COMDAT __real@3ed1eb85
CONST	SEGMENT
__real@3ed1eb85 DD 03ed1eb85r			; 0.41
CONST	ENDS
;	COMDAT __real@3ecccccd
CONST	SEGMENT
__real@3ecccccd DD 03ecccccdr			; 0.4
CONST	ENDS
;	COMDAT __real@3ec28f5c
CONST	SEGMENT
__real@3ec28f5c DD 03ec28f5cr			; 0.38
CONST	ENDS
;	COMDAT __real@3ebd70a4
CONST	SEGMENT
__real@3ebd70a4 DD 03ebd70a4r			; 0.37
CONST	ENDS
;	COMDAT __real@3eb33333
CONST	SEGMENT
__real@3eb33333 DD 03eb33333r			; 0.35
CONST	ENDS
;	COMDAT __real@3eb2b8c2
CONST	SEGMENT
__real@3eb2b8c2 DD 03eb2b8c2r			; 0.349066
CONST	ENDS
;	COMDAT __real@3eae9e8d
CONST	SEGMENT
__real@3eae9e8d DD 03eae9e8dr			; 0.341053
CONST	ENDS
;	COMDAT __real@3eaaa64c
CONST	SEGMENT
__real@3eaaa64c DD 03eaaa64cr			; 0.3333
CONST	ENDS
;	COMDAT __real@3ea3d70a
CONST	SEGMENT
__real@3ea3d70a DD 03ea3d70ar			; 0.32
CONST	ENDS
;	COMDAT __real@3e99999a
CONST	SEGMENT
__real@3e99999a DD 03e99999ar			; 0.3
CONST	ENDS
;	COMDAT __real@3e947ae1
CONST	SEGMENT
__real@3e947ae1 DD 03e947ae1r			; 0.29
CONST	ENDS
;	COMDAT __real@3e8f5c29
CONST	SEGMENT
__real@3e8f5c29 DD 03e8f5c29r			; 0.28
CONST	ENDS
;	COMDAT __real@3e8ccccd
CONST	SEGMENT
__real@3e8ccccd DD 03e8ccccdr			; 0.275
CONST	ENDS
;	COMDAT __real@3e8a3d71
CONST	SEGMENT
__real@3e8a3d71 DD 03e8a3d71r			; 0.27
CONST	ENDS
;	COMDAT __real@3e87ae14
CONST	SEGMENT
__real@3e87ae14 DD 03e87ae14r			; 0.265
CONST	ENDS
;	COMDAT __real@3e851eb8
CONST	SEGMENT
__real@3e851eb8 DD 03e851eb8r			; 0.26
CONST	ENDS
;	COMDAT __real@3e800000
CONST	SEGMENT
__real@3e800000 DD 03e800000r			; 0.25
CONST	ENDS
;	COMDAT __real@3e75c28f
CONST	SEGMENT
__real@3e75c28f DD 03e75c28fr			; 0.24
CONST	ENDS
;	COMDAT __real@3e6b851f
CONST	SEGMENT
__real@3e6b851f DD 03e6b851fr			; 0.23
CONST	ENDS
;	COMDAT __real@3e6147ae
CONST	SEGMENT
__real@3e6147ae DD 03e6147aer			; 0.22
CONST	ENDS
;	COMDAT __real@3e59999a
CONST	SEGMENT
__real@3e59999a DD 03e59999ar			; 0.2125
CONST	ENDS
;	COMDAT __real@3e4ccccd
CONST	SEGMENT
__real@3e4ccccd DD 03e4ccccdr			; 0.2
CONST	ENDS
;	COMDAT __real@3e428f5c
CONST	SEGMENT
__real@3e428f5c DD 03e428f5cr			; 0.19
CONST	ENDS
;	COMDAT __real@3e3851ec
CONST	SEGMENT
__real@3e3851ec DD 03e3851ecr			; 0.18
CONST	ENDS
;	COMDAT __real@3e333333
CONST	SEGMENT
__real@3e333333 DD 03e333333r			; 0.175
CONST	ENDS
;	COMDAT __real@3e32b8c2
CONST	SEGMENT
__real@3e32b8c2 DD 03e32b8c2r			; 0.174533
CONST	ENDS
;	COMDAT __real@3e2e147b
CONST	SEGMENT
__real@3e2e147b DD 03e2e147br			; 0.17
CONST	ENDS
;	COMDAT __real@3e23d70a
CONST	SEGMENT
__real@3e23d70a DD 03e23d70ar			; 0.16
CONST	ENDS
;	COMDAT __real@3e19999a
CONST	SEGMENT
__real@3e19999a DD 03e19999ar			; 0.15
CONST	ENDS
;	COMDAT __real@3e0f5c29
CONST	SEGMENT
__real@3e0f5c29 DD 03e0f5c29r			; 0.14
CONST	ENDS
;	COMDAT __real@3e0a3d71
CONST	SEGMENT
__real@3e0a3d71 DD 03e0a3d71r			; 0.135
CONST	ENDS
;	COMDAT __real@3e0a3d70
CONST	SEGMENT
__real@3e0a3d70 DD 03e0a3d70r			; 0.135
CONST	ENDS
;	COMDAT __real@3e000000
CONST	SEGMENT
__real@3e000000 DD 03e000000r			; 0.125
CONST	ENDS
;	COMDAT __real@3df5c28f
CONST	SEGMENT
__real@3df5c28f DD 03df5c28fr			; 0.12
CONST	ENDS
;	COMDAT __real@3de66666
CONST	SEGMENT
__real@3de66666 DD 03de66666r			; 0.1125
CONST	ENDS
;	COMDAT __real@3dcccccd
CONST	SEGMENT
__real@3dcccccd DD 03dcccccdr			; 0.1
CONST	ENDS
;	COMDAT __real@3db851ec
CONST	SEGMENT
__real@3db851ec DD 03db851ecr			; 0.09
CONST	ENDS
;	COMDAT __real@3db851eb
CONST	SEGMENT
__real@3db851eb DD 03db851ebr			; 0.09
CONST	ENDS
;	COMDAT __real@3db2b8c2
CONST	SEGMENT
__real@3db2b8c2 DD 03db2b8c2r			; 0.0872665
CONST	ENDS
;	COMDAT __real@3da3d70a
CONST	SEGMENT
__real@3da3d70a DD 03da3d70ar			; 0.08
CONST	ENDS
;	COMDAT __real@3d9f49f5
CONST	SEGMENT
__real@3d9f49f5 DD 03d9f49f5r			; 0.0777778
CONST	ENDS
;	COMDAT __real@3d99999a
CONST	SEGMENT
__real@3d99999a DD 03d99999ar			; 0.075
CONST	ENDS
;	COMDAT __real@3d7c0fc1
CONST	SEGMENT
__real@3d7c0fc1 DD 03d7c0fc1r			; 0.0615385
CONST	ENDS
;	COMDAT __real@3d75c290
CONST	SEGMENT
__real@3d75c290 DD 03d75c290r			; 0.06
CONST	ENDS
;	COMDAT __real@3d75c28f
CONST	SEGMENT
__real@3d75c28f DD 03d75c28fr			; 0.06
CONST	ENDS
;	COMDAT __real@3d4ccccd
CONST	SEGMENT
__real@3d4ccccd DD 03d4ccccdr			; 0.05
CONST	ENDS
;	COMDAT __real@3d23d70a
CONST	SEGMENT
__real@3d23d70a DD 03d23d70ar			; 0.04
CONST	ENDS
;	COMDAT __real@3d0f5c29
CONST	SEGMENT
__real@3d0f5c29 DD 03d0f5c29r			; 0.035
CONST	ENDS
;	COMDAT __real@3cf5c28f
CONST	SEGMENT
__real@3cf5c28f DD 03cf5c28fr			; 0.03
CONST	ENDS
;	COMDAT __real@3ccccccd
CONST	SEGMENT
__real@3ccccccd DD 03ccccccdr			; 0.025
CONST	ENDS
;	COMDAT __real@3c23d70a
CONST	SEGMENT
__real@3c23d70a DD 03c23d70ar			; 0.01
CONST	ENDS
;	COMDAT __real@3a83126f
CONST	SEGMENT
__real@3a83126f DD 03a83126fr			; 0.001
CONST	ENDS
;	COMDAT __real@0000000000000000
CONST	SEGMENT
__real@0000000000000000 DQ 00000000000000000r	; 0
CONST	ENDS
;	COMDAT __real@00000000
CONST	SEGMENT
__real@00000000 DD 000000000r			; 0
CONST	ENDS
;	COMDAT ??_C@_1BC@BLAPCBGI@?$AAs?$AAt?$AAd?$AA?3?$AA?3?$AAm?$AAi?$AAn@
CONST	SEGMENT
??_C@_1BC@BLAPCBGI@?$AAs?$AAt?$AAd?$AA?3?$AA?3?$AAm?$AAi?$AAn@ DB 's', 00H
	DB	't', 00H, 'd', 00H, ':', 00H, ':', 00H, 'm', 00H, 'i', 00H, 'n'
	DB	00H, 00H, 00H				; `string'
CONST	ENDS
;	COMDAT ??_C@_1CK@NDNHPKPI@?$AA?$CC?$AAi?$AAn?$AAv?$AAa?$AAl?$AAi?$AAd?$AA?5?$AAc?$AAo?$AAm?$AAp?$AAa?$AAr@
CONST	SEGMENT
??_C@_1CK@NDNHPKPI@?$AA?$CC?$AAi?$AAn?$AAv?$AAa?$AAl?$AAi?$AAd?$AA?5?$AAc?$AAo?$AAm?$AAp?$AAa?$AAr@ DB '"'
	DB	00H, 'i', 00H, 'n', 00H, 'v', 00H, 'a', 00H, 'l', 00H, 'i', 00H
	DB	'd', 00H, ' ', 00H, 'c', 00H, 'o', 00H, 'm', 00H, 'p', 00H, 'a'
	DB	00H, 'r', 00H, 'a', 00H, 't', 00H, 'o', 00H, 'r', 00H, '"', 00H
	DB	00H, 00H					; `string'
CONST	ENDS
;	COMDAT ??_C@_1BC@ICCOKLEG@?$AAs?$AAt?$AAd?$AA?3?$AA?3?$AAm?$AAa?$AAx@
CONST	SEGMENT
??_C@_1BC@ICCOKLEG@?$AAs?$AAt?$AAd?$AA?3?$AA?3?$AAm?$AAa?$AAx@ DB 's', 00H
	DB	't', 00H, 'd', 00H, ':', 00H, ':', 00H, 'm', 00H, 'a', 00H, 'x'
	DB	00H, 00H, 00H				; `string'
CONST	ENDS
;	COMDAT ??_C@_1NE@FKBPBJEB@?$AAc?$AA?3?$AA?2?$AAp?$AAr?$AAo?$AAg?$AAr?$AAa?$AAm?$AA?5?$AAf?$AAi?$AAl?$AAe@
CONST	SEGMENT
??_C@_1NE@FKBPBJEB@?$AAc?$AA?3?$AA?2?$AAp?$AAr?$AAo?$AAg?$AAr?$AAa?$AAm?$AA?5?$AAf?$AAi?$AAl?$AAe@ DB 'c'
	DB	00H, ':', 00H, '\', 00H, 'p', 00H, 'r', 00H, 'o', 00H, 'g', 00H
	DB	'r', 00H, 'a', 00H, 'm', 00H, ' ', 00H, 'f', 00H, 'i', 00H, 'l'
	DB	00H, 'e', 00H, 's', 00H, ' ', 00H, '(', 00H, 'x', 00H, '8', 00H
	DB	'6', 00H, ')', 00H, '\', 00H, 'm', 00H, 'i', 00H, 'c', 00H, 'r'
	DB	00H, 'o', 00H, 's', 00H, 'o', 00H, 'f', 00H, 't', 00H, ' ', 00H
	DB	'v', 00H, 'i', 00H, 's', 00H, 'u', 00H, 'a', 00H, 'l', 00H, ' '
	DB	00H, 's', 00H, 't', 00H, 'u', 00H, 'd', 00H, 'i', 00H, 'o', 00H
	DB	'\', 00H, '2', 00H, '0', 00H, '1', 00H, '7', 00H, '\', 00H, 'c'
	DB	00H, 'o', 00H, 'm', 00H, 'm', 00H, 'u', 00H, 'n', 00H, 'i', 00H
	DB	't', 00H, 'y', 00H, '\', 00H, 'v', 00H, 'c', 00H, '\', 00H, 't'
	DB	00H, 'o', 00H, 'o', 00H, 'l', 00H, 's', 00H, '\', 00H, 'm', 00H
	DB	's', 00H, 'v', 00H, 'c', 00H, '\', 00H, '1', 00H, '4', 00H, '.'
	DB	00H, '1', 00H, '6', 00H, '.', 00H, '2', 00H, '7', 00H, '0', 00H
	DB	'2', 00H, '3', 00H, '\', 00H, 'i', 00H, 'n', 00H, 'c', 00H, 'l'
	DB	00H, 'u', 00H, 'd', 00H, 'e', 00H, '\', 00H, 'a', 00H, 'l', 00H
	DB	'g', 00H, 'o', 00H, 'r', 00H, 'i', 00H, 't', 00H, 'h', 00H, 'm'
	DB	00H, 00H, 00H				; `string'
CONST	ENDS
;	COMDAT ??_C@_0GK@JMBMHIBC@c?3?2program?5files?5?$CIx86?$CJ?2microsof@
CONST	SEGMENT
??_C@_0GK@JMBMHIBC@c?3?2program?5files?5?$CIx86?$CJ?2microsof@ DB 'c:\pro'
	DB	'gram files (x86)\microsoft visual studio\2017\community\vc\to'
	DB	'ols\msvc\14.16.27023\include\algorithm', 00H ; `string'
CONST	ENDS
;	COMDAT ??_C@_0BD@FEEMDEPI@invalid?5comparator@
CONST	SEGMENT
??_C@_0BD@FEEMDEPI@invalid?5comparator@ DB 'invalid comparator', 00H ; `string'
CONST	ENDS
;	COMDAT ?__LINE__Var@?0??toggle_comanche_side_mfd_on_off@@YGXW4COMANCHE_SIDE_MFD_LOCATIONS@@@Z@4JA
_DATA	SEGMENT
?__LINE__Var@?0??toggle_comanche_side_mfd_on_off@@YGXW4COMANCHE_SIDE_MFD_LOCATIONS@@@Z@4JA DD 03b65H ; `toggle_comanche_side_mfd_on_off'::`1'::__LINE__Var
_DATA	ENDS
;	COMDAT ?__LINE__Var@?0??toggle_comanche_main_mfd_on_off@@YGXW4COMANCHE_MAIN_MFD_LOCATIONS@@@Z@4JA
_DATA	SEGMENT
?__LINE__Var@?0??toggle_comanche_main_mfd_on_off@@YGXW4COMANCHE_MAIN_MFD_LOCATIONS@@@Z@4JA DD 03b53H ; `toggle_comanche_main_mfd_on_off'::`1'::__LINE__Var
_DATA	ENDS
;	COMDAT ??_C@_0CE@NJOBHOGM@previous_mfd_mode?5?$CB?$DN?5?$CKmfd_mode_@
CONST	SEGMENT
??_C@_0CE@NJOBHOGM@previous_mfd_mode?5?$CB?$DN?5?$CKmfd_mode_@ DB 'previo'
	DB	'us_mfd_mode != *mfd_mode_ptr2', 00H		; `string'
CONST	ENDS
;	COMDAT ?__LINE__Var@?0??select_previous_comanche_main_mfd@@YGXW4COMANCHE_MAIN_MFD_LOCATIONS@@@Z@4JA
_DATA	SEGMENT
?__LINE__Var@?0??select_previous_comanche_main_mfd@@YGXW4COMANCHE_MAIN_MFD_LOCATIONS@@@Z@4JA DD 03b33H ; `select_previous_comanche_main_mfd'::`1'::__LINE__Var
_DATA	ENDS
;	COMDAT ?__LINE__Var@?0??select_next_comanche_main_mfd@@YGXW4COMANCHE_MAIN_MFD_LOCATIONS@@@Z@4JA
_DATA	SEGMENT
?__LINE__Var@?0??select_next_comanche_main_mfd@@YGXW4COMANCHE_MAIN_MFD_LOCATIONS@@@Z@4JA DD 03b13H ; `select_next_comanche_main_mfd'::`1'::__LINE__Var
_DATA	ENDS
;	COMDAT ??_C@_0CA@HJLHJBNK@next_mfd_mode?5?$CB?$DN?5?$CKmfd_mode_ptr2@
CONST	SEGMENT
??_C@_0CA@HJLHJBNK@next_mfd_mode?5?$CB?$DN?5?$CKmfd_mode_ptr2@ DB 'next_m'
	DB	'fd_mode != *mfd_mode_ptr2', 00H		; `string'
CONST	ENDS
;	COMDAT ?__LINE__Var@?0??select_next_comanche_side_mfd@@YGXW4COMANCHE_SIDE_MFD_LOCATIONS@@@Z@4JA
_DATA	SEGMENT
?__LINE__Var@?0??select_next_comanche_side_mfd@@YGXW4COMANCHE_SIDE_MFD_LOCATIONS@@@Z@4JA DD 03af7H ; `select_next_comanche_side_mfd'::`1'::__LINE__Var
_DATA	ENDS
;	COMDAT ?__LINE__Var@?0??get_previous_main_mfd_mode@@YG?AW4COMANCHE_MAIN_MFD_MODES@@W42@W4COMANCHE_MAIN_MFD_LOCATIONS@@@Z@4JA
_DATA	SEGMENT
?__LINE__Var@?0??get_previous_main_mfd_mode@@YG?AW4COMANCHE_MAIN_MFD_MODES@@W42@W4COMANCHE_MAIN_MFD_LOCATIONS@@@Z@4JA DD 03a88H ; `get_previous_main_mfd_mode'::`1'::__LINE__Var
_DATA	ENDS
;	COMDAT ?__LINE__Var@?0??get_next_main_mfd_mode@@YG?AW4COMANCHE_MAIN_MFD_MODES@@W42@W4COMANCHE_MAIN_MFD_LOCATIONS@@@Z@4JA
_DATA	SEGMENT
?__LINE__Var@?0??get_next_main_mfd_mode@@YG?AW4COMANCHE_MAIN_MFD_MODES@@W42@W4COMANCHE_MAIN_MFD_LOCATIONS@@@Z@4JA DD 03a0bH ; `get_next_main_mfd_mode'::`1'::__LINE__Var
_DATA	ENDS
;	COMDAT ?__LINE__Var@?0??get_next_side_mfd_mode@@YG?AW4COMANCHE_SIDE_MFD_MODES@@W42@W4COMANCHE_SIDE_MFD_LOCATIONS@@@Z@4JA
_DATA	SEGMENT
?__LINE__Var@?0??get_next_side_mfd_mode@@YG?AW4COMANCHE_SIDE_MFD_MODES@@W42@W4COMANCHE_SIDE_MFD_LOCATIONS@@@Z@4JA DD 039ebH ; `get_next_side_mfd_mode'::`1'::__LINE__Var
_DATA	ENDS
;	COMDAT ??_C@_0CI@EEGMGJJO@comanche_side_mfd_mode_valid?5?$CIm@
CONST	SEGMENT
??_C@_0CI@EEGMGJJO@comanche_side_mfd_mode_valid?5?$CIm@ DB 'comanche_side'
	DB	'_mfd_mode_valid (mfd_mode)', 00H		; `string'
CONST	ENDS
;	COMDAT ?__LINE__Var@?0??select_comanche_side_mfd_mode@@YGXW4COMANCHE_SIDE_MFD_MODES@@W4COMANCHE_SIDE_MFD_LOCATIONS@@@Z@4JA
_DATA	SEGMENT
?__LINE__Var@?0??select_comanche_side_mfd_mode@@YGXW4COMANCHE_SIDE_MFD_MODES@@W4COMANCHE_SIDE_MFD_LOCATIONS@@@Z@4JA DD 039c2H ; `select_comanche_side_mfd_mode'::`1'::__LINE__Var
_DATA	ENDS
;	COMDAT ??_C@_0BN@OAODKMFN@default_mfd_mode?5?$CB?$DN?5mfd_mode@
CONST	SEGMENT
??_C@_0BN@OAODKMFN@default_mfd_mode?5?$CB?$DN?5mfd_mode@ DB 'default_mfd_'
	DB	'mode != mfd_mode', 00H			; `string'
CONST	ENDS
;	COMDAT ??_C@_07DCHAPOBD@?$CFs?5?$DN?5?$CFs@
CONST	SEGMENT
??_C@_07DCHAPOBD@?$CFs?5?$DN?5?$CFs@ DB '%s = %s', 00H	; `string'
CONST	ENDS
;	COMDAT ??_C@_0CI@FGMPFPHJ@comanche_main_mfd_mode_valid?5?$CIm@
CONST	SEGMENT
??_C@_0CI@FGMPFPHJ@comanche_main_mfd_mode_valid?5?$CIm@ DB 'comanche_main'
	DB	'_mfd_mode_valid (mfd_mode)', 00H		; `string'
CONST	ENDS
;	COMDAT ?__LINE__Var@?0??select_comanche_main_mfd_mode@@YGXW4COMANCHE_MAIN_MFD_MODES@@W4COMANCHE_MAIN_MFD_LOCATIONS@@@Z@4JA
_DATA	SEGMENT
?__LINE__Var@?0??select_comanche_main_mfd_mode@@YGXW4COMANCHE_MAIN_MFD_MODES@@W4COMANCHE_MAIN_MFD_LOCATIONS@@@Z@4JA DD 0398fH ; `select_comanche_main_mfd_mode'::`1'::__LINE__Var
_DATA	ENDS
;	COMDAT ?__LINE__Var@?0??get_side_mfd_damage@@YGHW4COMANCHE_SIDE_MFD_LOCATIONS@@@Z@4JA
_DATA	SEGMENT
?__LINE__Var@?0??get_side_mfd_damage@@YGHW4COMANCHE_SIDE_MFD_LOCATIONS@@@Z@4JA DD 0395dH ; `get_side_mfd_damage'::`1'::__LINE__Var
_DATA	ENDS
;	COMDAT ?__LINE__Var@?0??get_main_mfd_damage@@YGHW4COMANCHE_MAIN_MFD_LOCATIONS@@@Z@4JA
_DATA	SEGMENT
?__LINE__Var@?0??get_main_mfd_damage@@YGHW4COMANCHE_MAIN_MFD_LOCATIONS@@@Z@4JA DD 0392bH ; `get_main_mfd_damage'::`1'::__LINE__Var
_DATA	ENDS
;	COMDAT ??_C@_0DA@KGKPBMFE@comanche_side_mfd_location_vali@
CONST	SEGMENT
??_C@_0DA@KGKPBMFE@comanche_side_mfd_location_vali@ DB 'comanche_side_mfd'
	DB	'_location_valid (mfd_location)', 00H	; `string'
CONST	ENDS
;	COMDAT ?__LINE__Var@?0??get_default_side_mfd_mode@@YG?AW4COMANCHE_SIDE_MFD_MODES@@W4COMANCHE_SIDE_MFD_LOCATIONS@@@Z@4JA
_DATA	SEGMENT
?__LINE__Var@?0??get_default_side_mfd_mode@@YG?AW4COMANCHE_SIDE_MFD_MODES@@W4COMANCHE_SIDE_MFD_LOCATIONS@@@Z@4JA DD 038f9H ; `get_default_side_mfd_mode'::`1'::__LINE__Var
_DATA	ENDS
;	COMDAT ?__LINE__Var@?0??get_default_main_mfd_mode@@YG?AW4COMANCHE_MAIN_MFD_MODES@@W4COMANCHE_MAIN_MFD_LOCATIONS@@@Z@4JA
_DATA	SEGMENT
?__LINE__Var@?0??get_default_main_mfd_mode@@YG?AW4COMANCHE_MAIN_MFD_MODES@@W4COMANCHE_MAIN_MFD_LOCATIONS@@@Z@4JA DD 038c7H ; `get_default_main_mfd_mode'::`1'::__LINE__Var
_DATA	ENDS
;	COMDAT ??_C@_0BH@BHIMKDNE@Invalid?5EO?5sensor?5?$DN?5?$CFd@
CONST	SEGMENT
??_C@_0BH@BHIMKDNE@Invalid?5EO?5sensor?5?$DN?5?$CFd@ DB 'Invalid EO senso'
	DB	'r = %d', 00H				; `string'
CONST	ENDS
;	COMDAT ?__LINE__Var@?0??get_comanche_main_mfd_has_focus@@YGHW4COMANCHE_MAIN_MFD_LOCATIONS@@@Z@4JA
_DATA	SEGMENT
?__LINE__Var@?0??get_comanche_main_mfd_has_focus@@YGHW4COMANCHE_MAIN_MFD_LOCATIONS@@@Z@4JA DD 0385bH ; `get_comanche_main_mfd_has_focus'::`1'::__LINE__Var
_DATA	ENDS
;	COMDAT ??_C@_0CE@ENKIGGJP@comanche_main_mfd_mode_valid?5?$CIm@
CONST	SEGMENT
??_C@_0CE@ENKIGGJP@comanche_main_mfd_mode_valid?5?$CIm@ DB 'comanche_main'
	DB	'_mfd_mode_valid (mode)', 00H		; `string'
CONST	ENDS
;	COMDAT ?__LINE__Var@?0??draw_overlaid_main_mfd@@YGXPAUSCREEN@@W4COMANCHE_MAIN_MFD_MODES@@W4COMANCHE_MAIN_MFD_LOCATIONS@@@Z@4JA
_DATA	SEGMENT
?__LINE__Var@?0??draw_overlaid_main_mfd@@YGXPAUSCREEN@@W4COMANCHE_MAIN_MFD_MODES@@W4COMANCHE_MAIN_MFD_LOCATIONS@@@Z@4JA DD 03565H ; `draw_overlaid_main_mfd'::`1'::__LINE__Var
_DATA	ENDS
;	COMDAT ??_C@_0BH@KFJLEDAI@Invalid?5view?5mode?5?$DN?5?$CFd@
CONST	SEGMENT
??_C@_0BH@KFJLEDAI@Invalid?5view?5mode?5?$DN?5?$CFd@ DB 'Invalid view mod'
	DB	'e = %d', 00H				; `string'
CONST	ENDS
;	COMDAT ??_C@_02LLHJKEJF@s2@
CONST	SEGMENT
??_C@_02LLHJKEJF@s2@ DB 's2', 00H			; `string'
CONST	ENDS
;	COMDAT ??_C@_02JAFEPHFG@s1@
CONST	SEGMENT
??_C@_02JAFEPHFG@s1@ DB 's1', 00H			; `string'
CONST	ENDS
;	COMDAT ?__LINE__Var@?0??set_comanche_text_display_text@@YGXPAD0@Z@4JA
_DATA	SEGMENT
?__LINE__Var@?0??set_comanche_text_display_text@@YGXPAD0@Z@4JA DD 033c3H ; `set_comanche_text_display_text'::`1'::__LINE__Var
_DATA	ENDS
;	COMDAT ?__LINE__Var@?0??draw_comanche_mfd@@YGXXZ@4JA
_DATA	SEGMENT
?__LINE__Var@?0??draw_comanche_mfd@@YGXXZ@4JA DD 03208H	; `draw_comanche_mfd'::`1'::__LINE__Var
_DATA	ENDS
;	COMDAT ??_C@_0DK@CBFDBCCM@?$CInum_side_weapon_line_points_wi@
CONST	SEGMENT
??_C@_0DK@CBFDBCCM@?$CInum_side_weapon_line_points_wi@ DB '(num_side_weap'
	DB	'on_line_points_without_stub_wings & 1) == 0', 00H ; `string'
CONST	ENDS
;	COMDAT ??_C@_0DD@BMJDMBBE@num_side_weapon_line_points_wit@
CONST	SEGMENT
??_C@_0DD@BMJDMBBE@num_side_weapon_line_points_wit@ DB 'num_side_weapon_l'
	DB	'ine_points_without_stub_wings > 0', 00H	; `string'
CONST	ENDS
;	COMDAT ??_C@_0DH@IOPOLEHA@?$CInum_side_weapon_line_points_wi@
CONST	SEGMENT
??_C@_0DH@IOPOLEHA@?$CInum_side_weapon_line_points_wi@ DB '(num_side_weap'
	DB	'on_line_points_with_stub_wings & 1) == 0', 00H ; `string'
CONST	ENDS
;	COMDAT ??_C@_0DA@MADCCJGI@num_side_weapon_line_points_wit@
CONST	SEGMENT
??_C@_0DA@MADCCJGI@num_side_weapon_line_points_wit@ DB 'num_side_weapon_l'
	DB	'ine_points_with_stub_wings > 0', 00H	; `string'
CONST	ENDS
;	COMDAT ??_C@_0DK@NKPFIOED@?$CInum_main_weapon_line_points_wi@
CONST	SEGMENT
??_C@_0DK@NKPFIOED@?$CInum_main_weapon_line_points_wi@ DB '(num_main_weap'
	DB	'on_line_points_without_stub_wings & 1) == 0', 00H ; `string'
CONST	ENDS
;	COMDAT ??_C@_0DD@IMKGINEB@num_main_weapon_line_points_wit@
CONST	SEGMENT
??_C@_0DD@IMKGINEB@num_main_weapon_line_points_wit@ DB 'num_main_weapon_l'
	DB	'ine_points_without_stub_wings > 0', 00H	; `string'
CONST	ENDS
;	COMDAT ??_C@_0DH@OOPGJMJB@?$CInum_main_weapon_line_points_wi@
CONST	SEGMENT
??_C@_0DH@OOPGJMJB@?$CInum_main_weapon_line_points_wi@ DB '(num_main_weap'
	DB	'on_line_points_with_stub_wings & 1) == 0', 00H ; `string'
CONST	ENDS
;	COMDAT ??_C@_0DA@KDAIMOAB@num_main_weapon_line_points_wit@
CONST	SEGMENT
??_C@_0DA@KDAIMOAB@num_main_weapon_line_points_wit@ DB 'num_main_weapon_l'
	DB	'ine_points_with_stub_wings > 0', 00H	; `string'
CONST	ENDS
;	COMDAT ?__LINE__Var@?0??initialise_comanche_mfd@@YGXXZ@4JA
_DATA	SEGMENT
?__LINE__Var@?0??initialise_comanche_mfd@@YGXXZ@4JA DD 030e1H ; `initialise_comanche_mfd'::`1'::__LINE__Var
_DATA	ENDS
;	COMDAT ??_C@_0M@CPFKEDIA@text_screen@
CONST	SEGMENT
??_C@_0M@CPFKEDIA@text_screen@ DB 'text_screen', 00H	; `string'
CONST	ENDS
;	COMDAT ?__LINE__Var@?0??draw_text_display@@YGXPAUSCREEN@@@Z@4JA
_DATA	SEGMENT
?__LINE__Var@?0??draw_text_display@@YGXPAUSCREEN@@@Z@4JA DD 0306cH ; `draw_text_display'::`1'::__LINE__Var
_DATA	ENDS
;	COMDAT ??_C@_0BL@JBAKPIAB@Invalid?5side?5MFD?5mode?5?$DN?5?$CFd@
CONST	SEGMENT
??_C@_0BL@JBAKPIAB@Invalid?5side?5MFD?5mode?5?$DN?5?$CFd@ DB 'Invalid sid'
	DB	'e MFD mode = %d', 00H			; `string'
CONST	ENDS
;	COMDAT ??_C@_0CM@KFPJDBMG@comanche_side_mfd_location_vali@
CONST	SEGMENT
??_C@_0CM@KFPJDBMG@comanche_side_mfd_location_vali@ DB 'comanche_side_mfd'
	DB	'_location_valid (location)', 00H		; `string'
CONST	ENDS
;	COMDAT ??_C@_0CE@MAAALHOP@comanche_side_mfd_mode_valid?5?$CIm@
CONST	SEGMENT
??_C@_0CE@MAAALHOP@comanche_side_mfd_mode_valid?5?$CIm@ DB 'comanche_side'
	DB	'_mfd_mode_valid (mode)', 00H		; `string'
CONST	ENDS
;	COMDAT ?__LINE__Var@?0??draw_side_mfd@@YGXPAUSCREEN@@W4COMANCHE_SIDE_MFD_MODES@@W4COMANCHE_SIDE_MFD_LOCATIONS@@@Z@4JA
_DATA	SEGMENT
?__LINE__Var@?0??draw_side_mfd@@YGXPAUSCREEN@@W4COMANCHE_SIDE_MFD_MODES@@W4COMANCHE_SIDE_MFD_LOCATIONS@@@Z@4JA DD 03014H ; `draw_side_mfd'::`1'::__LINE__Var
_DATA	ENDS
;	COMDAT ??_C@_0BL@EJABPDDO@Invalid?5main?5MFD?5mode?5?$DN?5?$CFd@
CONST	SEGMENT
??_C@_0BL@EJABPDDO@Invalid?5main?5MFD?5mode?5?$DN?5?$CFd@ DB 'Invalid mai'
	DB	'n MFD mode = %d', 00H			; `string'
CONST	ENDS
;	COMDAT ??_C@_0CM@LICEEPAH@comanche_main_mfd_location_vali@
CONST	SEGMENT
??_C@_0CM@LICEEPAH@comanche_main_mfd_location_vali@ DB 'comanche_main_mfd'
	DB	'_location_valid (location)', 00H		; `string'
CONST	ENDS
;	COMDAT ??_C@_0CF@FODDHBHE@comanche_main_mfd_mode_valid?5?$CI?$CK@
CONST	SEGMENT
??_C@_0CF@FODDHBHE@comanche_main_mfd_mode_valid?5?$CI?$CK@ DB 'comanche_m'
	DB	'ain_mfd_mode_valid (*mode)', 00H		; `string'
CONST	ENDS
;	COMDAT ??_C@_0L@DHCAJMOH@mfd_screen@
CONST	SEGMENT
??_C@_0L@DHCAJMOH@mfd_screen@ DB 'mfd_screen', 00H	; `string'
CONST	ENDS
;	COMDAT ?__LINE__Var@?0??draw_main_mfd@@YGXPAUSCREEN@@PAW4COMANCHE_MAIN_MFD_MODES@@W4COMANCHE_MAIN_MFD_LOCATIONS@@@Z@4JA
_DATA	SEGMENT
?__LINE__Var@?0??draw_main_mfd@@YGXPAUSCREEN@@PAW4COMANCHE_MAIN_MFD_MODES@@W4COMANCHE_MAIN_MFD_LOCATIONS@@@Z@4JA DD 02f72H ; `draw_main_mfd'::`1'::__LINE__Var
_DATA	ENDS
;	COMDAT ??_C@_0CL@NLIKEJAC@TIME?5?5?3MT?$DN?$CF02d?3?$CF02d?3?$CF02d?5MD?$DN?$CF02@
CONST	SEGMENT
??_C@_0CL@NLIKEJAC@TIME?5?5?3MT?$DN?$CF02d?3?$CF02d?3?$CF02d?5MD?$DN?$CF02@ DB 'T'
	DB	'IME  :MT=%02d:%02d:%02d MD=%02d:%02d:%02d', 00H ; `string'
CONST	ENDS
;	COMDAT ??_C@_0BK@MIBJHEEL@COUNT?5?3Kills?$DN?$CFd?5Losses?$DN?$CFd@
CONST	SEGMENT
??_C@_0BK@MIBJHEEL@COUNT?5?3Kills?$DN?$CFd?5Losses?$DN?$CFd@ DB 'COUNT :K'
	DB	'ills=%d Losses=%d', 00H			; `string'
CONST	ENDS
;	COMDAT ??_C@_09HDLDOKLK@END?5?5?5?3?$CFs@
CONST	SEGMENT
??_C@_09HDLDOKLK@END?5?5?5?3?$CFs@ DB 'END   :%s', 00H	; `string'
CONST	ENDS
;	COMDAT ??_C@_09MDEJFDEL@START?5?3?$CFs@
CONST	SEGMENT
??_C@_09MDEJFDEL@START?5?3?$CFs@ DB 'START :%s', 00H	; `string'
CONST	ENDS
;	COMDAT ??_C@_09NFLHCPML@STATUS?3?$CFs@
CONST	SEGMENT
??_C@_09NFLHCPML@STATUS?3?$CFs@ DB 'STATUS:%s', 00H	; `string'
CONST	ENDS
;	COMDAT ??_C@_09MMJDMDOM@OBJECT?3?$CFs@
CONST	SEGMENT
??_C@_09MMJDMDOM@OBJECT?3?$CFs@ DB 'OBJECT:%s', 00H	; `string'
CONST	ENDS
;	COMDAT ??_C@_09FCABHDEH@TYPE?5?5?3?$CFs@
CONST	SEGMENT
??_C@_09FCABHDEH@TYPE?5?5?3?$CFs@ DB 'TYPE  :%s', 00H	; `string'
CONST	ENDS
;	COMDAT ??_C@_07PPFPLHID@MISSION@
CONST	SEGMENT
??_C@_07PPFPLHID@MISSION@ DB 'MISSION', 00H		; `string'
CONST	ENDS
;	COMDAT ??_C@_0DJ@FHGBBPHP@get_local_entity_int_value?5?$CItas@
CONST	SEGMENT
??_C@_0DJ@FHGBBPHP@get_local_entity_int_value?5?$CItas@ DB 'get_local_ent'
	DB	'ity_int_value (task, INT_TYPE_VISIBLE_TASK)', 00H ; `string'
CONST	ENDS
;	COMDAT ??_C@_0N@JBFLAFMH@FORMATION?3?$CFs@
CONST	SEGMENT
??_C@_0N@JBFLAFMH@FORMATION?3?$CFs@ DB 'FORMATION:%s', 00H ; `string'
CONST	ENDS
;	COMDAT ??_C@_06IAHIIHDD@?$CFc1?9?$CFd@
CONST	SEGMENT
??_C@_06IAHIIHDD@?$CFc1?9?$CFd@ DB '%c1-%d', 00H	; `string'
CONST	ENDS
;	COMDAT ??_C@_09EKFLINLD@?$CFc?$CFs?51?9?$CFd@
CONST	SEGMENT
??_C@_09EKFLINLD@?$CFc?$CFs?51?9?$CFd@ DB '%c%s 1-%d', 00H ; `string'
CONST	ENDS
;	COMDAT ??_C@_09JGJHKNML@?$CFc1?9?$CFd?5?$CFs@
CONST	SEGMENT
??_C@_09JGJHKNML@?$CFc1?9?$CFd?5?$CFs@ DB '%c1-%d %s', 00H ; `string'
CONST	ENDS
;	COMDAT ??_C@_0N@CPCKCPHJ@?$CFc?$CFs?51?9?$CFd?5?$CFs@
CONST	SEGMENT
??_C@_0N@CPCKCPHJ@?$CFc?$CFs?51?9?$CFd?5?$CFs@ DB '%c%s 1-%d %s', 00H ; `string'
CONST	ENDS
;	COMDAT ??_C@_03DKEJHHJP@?$CFs?3@
CONST	SEGMENT
??_C@_03DKEJHHJP@?$CFs?3@ DB '%s:', 00H			; `string'
CONST	ENDS
;	COMDAT ??_C@_07MLNBPDHK@company@
CONST	SEGMENT
??_C@_07MLNBPDHK@company@ DB 'company', 00H		; `string'
CONST	ENDS
;	COMDAT ??_C@_0N@DBEHAMGN@FLIGHT?5GROUP@
CONST	SEGMENT
??_C@_0N@DBEHAMGN@FLIGHT?5GROUP@ DB 'FLIGHT GROUP', 00H	; `string'
CONST	ENDS
;	COMDAT ?__LINE__Var@?0??draw_mission_display_mfd@@YGXXZ@4JA
_DATA	SEGMENT
?__LINE__Var@?0??draw_mission_display_mfd@@YGXXZ@4JA DD 02d7aH ; `draw_mission_display_mfd'::`1'::__LINE__Var
_DATA	ENDS
;	COMDAT ??_C@_0CA@NPMPDHNJ@?5?5?5?5?5?5?5?$DM?$CF03d?0?$CF03d?$DO?5?$CF6?41fKm?5?$CF3d?$HP@
CONST	SEGMENT
??_C@_0CA@NPMPDHNJ@?5?5?5?5?5?5?5?$DM?$CF03d?0?$CF03d?$DO?5?$CF6?41fKm?5?$CF3d?$HP@ DB ' '
	DB	'      <%03d,%03d> %6.1fKm %3d', 07fH, 00H	; `string'
CONST	ENDS
;	COMDAT ??_C@_08OAGMDKAF@position@
CONST	SEGMENT
??_C@_08OAGMDKAF@position@ DB 'position', 00H		; `string'
CONST	ENDS
;	COMDAT ?__LINE__Var@?0??print_target_position@@YGXPAUENTITY@@0@Z@4JA
_DATA	SEGMENT
?__LINE__Var@?0??print_target_position@@YGXPAUENTITY@@0@Z@4JA DD 02d4dH ; `print_target_position'::`1'::__LINE__Var
_DATA	ENDS
;	COMDAT ??_C@_05DNIIFBMG@?$CFs?5?$CFs@
CONST	SEGMENT
??_C@_05DNIIFBMG@?$CFs?5?$CFs@ DB '%s %s', 00H		; `string'
CONST	ENDS
;	COMDAT ??_C@_06HOHPNJLC@buffer@
CONST	SEGMENT
??_C@_06HOHPNJLC@buffer@ DB 'buffer', 00H		; `string'
CONST	ENDS
;	COMDAT ??_C@_02LFNMGJAP@en@
CONST	SEGMENT
??_C@_02LFNMGJAP@en@ DB 'en', 00H			; `string'
CONST	ENDS
;	COMDAT ?__LINE__Var@?0??get_player_rank_and_name@@YGPADPAUENTITY@@PAD@Z@4JA
_DATA	SEGMENT
?__LINE__Var@?0??get_player_rank_and_name@@YGPADPAUENTITY@@PAD@Z@4JA DD 02d1cH ; `get_player_rank_and_name'::`1'::__LINE__Var
_DATA	ENDS
;	COMDAT ??_C@_05KEIIKJGB@?$CF?431s@
CONST	SEGMENT
??_C@_05KEIIKJGB@?$CF?431s@ DB '%.31s', 00H		; `string'
CONST	ENDS
;	COMDAT ??_C@_01LKDEMHDF@s@
CONST	SEGMENT
??_C@_01LKDEMHDF@s@ DB 's', 00H				; `string'
CONST	ENDS
;	COMDAT ?__LINE__Var@?0??print_mono_font_max_length_string@@YGXPAD@Z@4JA
_DATA	SEGMENT
?__LINE__Var@?0??print_mono_font_max_length_string@@YGXPAD@Z@4JA DD 02d0cH ; `print_mono_font_max_length_string'::`1'::__LINE__Var
_DATA	ENDS
;	COMDAT ?__LINE__Var@?0??draw_flight_display_side_mfd@@YGXXZ@4JA
_DATA	SEGMENT
?__LINE__Var@?0??draw_flight_display_side_mfd@@YGXXZ@4JA DD 02cf5H ; `draw_flight_display_side_mfd'::`1'::__LINE__Var
_DATA	ENDS
;	COMDAT ?__LINE__Var@?0??draw_flight_display_mfd@@YGXXZ@4JA
_DATA	SEGMENT
?__LINE__Var@?0??draw_flight_display_mfd@@YGXXZ@4JA DD 02ce2H ; `draw_flight_display_mfd'::`1'::__LINE__Var
_DATA	ENDS
;	COMDAT ??_C@_03NJMPCKOA@?$CFd0@
CONST	SEGMENT
??_C@_03NJMPCKOA@?$CFd0@ DB '%d0', 00H			; `string'
CONST	ENDS
;	COMDAT ?__LINE__Var@?0??draw_pitch_ladder@@YGXXZ@4JA
_DATA	SEGMENT
?__LINE__Var@?0??draw_pitch_ladder@@YGXXZ@4JA DD 02980H	; `draw_pitch_ladder'::`1'::__LINE__Var
_DATA	ENDS
;	COMDAT ??_C@_04OCCELDNI@?$CF04d@
CONST	SEGMENT
??_C@_04OCCELDNI@?$CF04d@ DB '%04d', 00H		; `string'
CONST	ENDS
;	COMDAT ??_C@_02LLHBHPMO@LB@
CONST	SEGMENT
??_C@_02LLHBHPMO@LB@ DB 'LB', 00H			; `string'
CONST	ENDS
;	COMDAT ??_C@_02NEDDHJED@TG@
CONST	SEGMENT
??_C@_02NEDDHJED@TG@ DB 'TG', 00H			; `string'
CONST	ENDS
;	COMDAT ??_C@_02MIKLMMJE@TQ@
CONST	SEGMENT
??_C@_02MIKLMMJE@TQ@ DB 'TQ', 00H			; `string'
CONST	ENDS
;	COMDAT ??_C@_02MFICFPOF@NG@
CONST	SEGMENT
??_C@_02MFICFPOF@NG@ DB 'NG', 00H			; `string'
CONST	ENDS
;	COMDAT ??_C@_02MAABNLHD@NP@
CONST	SEGMENT
??_C@_02MAABNLHD@NP@ DB 'NP', 00H			; `string'
CONST	ENDS
;	COMDAT ??_C@_02PCDHLJPB@NR@
CONST	SEGMENT
??_C@_02PCDHLJPB@NR@ DB 'NR', 00H			; `string'
CONST	ENDS
;	COMDAT ??_C@_0L@BAMMPCGJ@SPU?5?$CF03d?$CF?$CF@
CONST	SEGMENT
??_C@_0L@BAMMPCGJ@SPU?5?$CF03d?$CF?$CF@ DB 'SPU %03d%%', 00H ; `string'
CONST	ENDS
;	COMDAT ??_C@_0M@BAGGPIOL@?5?$CFs?5?5?$CF03d?$CF?$CF@
CONST	SEGMENT
??_C@_0M@BAGGPIOL@?5?$CFs?5?5?$CF03d?$CF?$CF@ DB ' %s  %03d%%', 00H ; `string'
CONST	ENDS
;	COMDAT ??_C@_09IBBIICJN@?5?$CFs?5?5FLY?5@
CONST	SEGMENT
??_C@_09IBBIICJN@?5?$CFs?5?5FLY?5@ DB ' %s  FLY ', 00H	; `string'
CONST	ENDS
;	COMDAT ??_C@_09MEJLMDNK@?5?$CFs?5?5IDLE@
CONST	SEGMENT
??_C@_09MEJLMDNK@?5?$CFs?5?5IDLE@ DB ' %s  IDLE', 00H	; `string'
CONST	ENDS
;	COMDAT ??_C@_09PEMPOEMF@?5?$CFs?5?5OFF?5@
CONST	SEGMENT
??_C@_09PEMPOEMF@?5?$CFs?5?5OFF?5@ DB ' %s  OFF ', 00H	; `string'
CONST	ENDS
;	COMDAT ??_C@_06HPNMMHPJ@?$CF03d?$CF?$CF@
CONST	SEGMENT
??_C@_06HPNMMHPJ@?$CF03d?$CF?$CF@ DB '%03d%%', 00H	; `string'
CONST	ENDS
;	COMDAT ??_C@_04MJEFHDBD@FLY?5@
CONST	SEGMENT
??_C@_04MJEFHDBD@FLY?5@ DB 'FLY ', 00H			; `string'
CONST	ENDS
;	COMDAT ??_C@_04IMMGDCFE@IDLE@
CONST	SEGMENT
??_C@_04IMMGDCFE@IDLE@ DB 'IDLE', 00H			; `string'
CONST	ENDS
;	COMDAT ??_C@_04LMJCBFEL@OFF?5@
CONST	SEGMENT
??_C@_04LMJCBFEL@OFF?5@ DB 'OFF ', 00H			; `string'
CONST	ENDS
;	COMDAT ??_C@_08PLAGFMEO@THROTTLE@
CONST	SEGMENT
??_C@_08PLAGFMEO@THROTTLE@ DB 'THROTTLE', 00H		; `string'
CONST	ENDS
;	COMDAT ??_C@_07MGEFOJJP@?$CF04d?5lb@
CONST	SEGMENT
??_C@_07MGEFOJJP@?$CF04d?5lb@ DB '%04d lb', 00H		; `string'
CONST	ENDS
;	COMDAT ??_C@_08HFKNNLAF@FUEL?5QTY@
CONST	SEGMENT
??_C@_08HFKNNLAF@FUEL?5QTY@ DB 'FUEL QTY', 00H		; `string'
CONST	ENDS
;	COMDAT ??_C@_09KNIBDCOL@OIL?5PRESS@
CONST	SEGMENT
??_C@_09KNIBDCOL@OIL?5PRESS@ DB 'OIL PRESS', 00H	; `string'
CONST	ENDS
;	COMDAT ??_C@_09DAHIHAFG@HYD?5PRESS@
CONST	SEGMENT
??_C@_09DAHIHAFG@HYD?5PRESS@ DB 'HYD PRESS', 00H	; `string'
CONST	ENDS
;	COMDAT ??_C@_04BMBAGHMP@DMGD@
CONST	SEGMENT
??_C@_04BMBAGHMP@DMGD@ DB 'DMGD', 00H			; `string'
CONST	ENDS
;	COMDAT ??_C@_0L@LICEJPGO@RADAR?5WARN@
CONST	SEGMENT
??_C@_0L@LICEJPGO@RADAR?5WARN@ DB 'RADAR WARN', 00H	; `string'
CONST	ENDS
;	COMDAT ??_C@_05JNPIHJOC@COMMS@
CONST	SEGMENT
??_C@_05JNPIHJOC@COMMS@ DB 'COMMS', 00H			; `string'
CONST	ENDS
;	COMDAT ??_C@_08LDOFABDJ@NAV?5COMP@
CONST	SEGMENT
??_C@_08LDOFABDJ@NAV?5COMP@ DB 'NAV COMP', 00H		; `string'
CONST	ENDS
;	COMDAT ??_C@_09GHHHIMHM@RADAR?5JAM@
CONST	SEGMENT
??_C@_09GHHHIMHM@RADAR?5JAM@ DB 'RADAR JAM', 00H	; `string'
CONST	ENDS
;	COMDAT ??_C@_09OPLGMBDG@LASER?5DES@
CONST	SEGMENT
??_C@_09OPLGMBDG@LASER?5DES@ DB 'LASER DES', 00H	; `string'
CONST	ENDS
;	COMDAT ?__LINE__Var@?0??print_side_mfd_system_message@@YGMPAD0HM@Z@4JA
_DATA	SEGMENT
?__LINE__Var@?0??print_side_mfd_system_message@@YGMPAD0HM@Z@4JA DD 024b6H ; `print_side_mfd_system_message'::`1'::__LINE__Var
_DATA	ENDS
;	COMDAT ??_C@_0N@MMJNGGCF@OIL?5PRESSURE@
CONST	SEGMENT
??_C@_0N@MMJNGGCF@OIL?5PRESSURE@ DB 'OIL PRESSURE', 00H	; `string'
CONST	ENDS
;	COMDAT ??_C@_0BD@KOEIBOKB@HYDRAULIC?5PRESSURE@
CONST	SEGMENT
??_C@_0BD@KOEIBOKB@HYDRAULIC?5PRESSURE@ DB 'HYDRAULIC PRESSURE', 00H ; `string'
CONST	ENDS
;	COMDAT ??_C@_08GEIAFJFB@R?5ENGINE@
CONST	SEGMENT
??_C@_08GEIAFJFB@R?5ENGINE@ DB 'R ENGINE', 00H		; `string'
CONST	ENDS
;	COMDAT ??_C@_03KMHDAHAO@SPU@
CONST	SEGMENT
??_C@_03KMHDAHAO@SPU@ DB 'SPU', 00H			; `string'
CONST	ENDS
;	COMDAT ??_C@_08ICMALC@L?5ENGINE@
CONST	SEGMENT
??_C@_08ICMALC@L?5ENGINE@ DB 'L ENGINE', 00H		; `string'
CONST	ENDS
;	COMDAT ??_C@_0L@MCBINMPD@TAIL?5ROTOR@
CONST	SEGMENT
??_C@_0L@MCBINMPD@TAIL?5ROTOR@ DB 'TAIL ROTOR', 00H	; `string'
CONST	ENDS
;	COMDAT ??_C@_07OHKEFPKJ@DAMAGED@
CONST	SEGMENT
??_C@_07OHKEFPKJ@DAMAGED@ DB 'DAMAGED', 00H		; `string'
CONST	ENDS
;	COMDAT ??_C@_0L@FFIGCBMA@MAIN?5ROTOR@
CONST	SEGMENT
??_C@_0L@FFIGCBMA@MAIN?5ROTOR@ DB 'MAIN ROTOR', 00H	; `string'
CONST	ENDS
;	COMDAT ??_C@_0L@LMAEBBOE@STABILISER@
CONST	SEGMENT
??_C@_0L@LMAEBBOE@STABILISER@ DB 'STABILISER', 00H	; `string'
CONST	ENDS
;	COMDAT ??_C@_04IDKCLELC@PNVS@
CONST	SEGMENT
??_C@_04IDKCLELC@PNVS@ DB 'PNVS', 00H			; `string'
CONST	ENDS
;	COMDAT ??_C@_0BF@OLLBDBDO@RADAR?5WARNING?5SYSTEM@
CONST	SEGMENT
??_C@_0BF@OLLBDBDO@RADAR?5WARNING?5SYSTEM@ DB 'RADAR WARNING SYSTEM', 00H ; `string'
CONST	ENDS
;	COMDAT ??_C@_0P@OEDGDHNF@COMMUNICATIONS@
CONST	SEGMENT
??_C@_0P@OEDGDHNF@COMMUNICATIONS@ DB 'COMMUNICATIONS', 00H ; `string'
CONST	ENDS
;	COMDAT ??_C@_0BE@LJHOKBLO@NAVIGATION?5COMPUTER@
CONST	SEGMENT
??_C@_0BE@LJHOKBLO@NAVIGATION?5COMPUTER@ DB 'NAVIGATION COMPUTER', 00H ; `string'
CONST	ENDS
;	COMDAT ??_C@_09MILGCPFO@IR?5JAMMER@
CONST	SEGMENT
??_C@_09MILGCPFO@IR?5JAMMER@ DB 'IR JAMMER', 00H	; `string'
CONST	ENDS
;	COMDAT ??_C@_0N@JDBOFCJG@RADAR?5JAMMER@
CONST	SEGMENT
??_C@_0N@JDBOFCJG@RADAR?5JAMMER@ DB 'RADAR JAMMER', 00H	; `string'
CONST	ENDS
;	COMDAT ??_C@_0BB@FAAHBEKJ@LASER?5DESIGNATOR@
CONST	SEGMENT
??_C@_0BB@FAAHBEKJ@LASER?5DESIGNATOR@ DB 'LASER DESIGNATOR', 00H ; `string'
CONST	ENDS
;	COMDAT ??_C@_05IHELJBBC@RADAR@
CONST	SEGMENT
??_C@_05IHELJBBC@RADAR@ DB 'RADAR', 00H			; `string'
CONST	ENDS
;	COMDAT ??_C@_04OOEBCMBF@FAIL@
CONST	SEGMENT
??_C@_04OOEBCMBF@FAIL@ DB 'FAIL', 00H			; `string'
CONST	ENDS
;	COMDAT ??_C@_02GIPFHKNO@OK@
CONST	SEGMENT
??_C@_02GIPFHKNO@OK@ DB 'OK', 00H			; `string'
CONST	ENDS
;	COMDAT ??_C@_07FPLKDJGL@warning@
CONST	SEGMENT
??_C@_07FPLKDJGL@warning@ DB 'warning', 00H		; `string'
CONST	ENDS
;	COMDAT ??_C@_09FJJPPKDN@equipment@
CONST	SEGMENT
??_C@_09FJJPPKDN@equipment@ DB 'equipment', 00H		; `string'
CONST	ENDS
;	COMDAT ?__LINE__Var@?0??print_main_mfd_system_message@@YGMPAD0HM@Z@4JA
_DATA	SEGMENT
?__LINE__Var@?0??print_main_mfd_system_message@@YGMPAD0HM@Z@4JA DD 0243cH ; `print_main_mfd_system_message'::`1'::__LINE__Var
_DATA	ENDS
;	COMDAT ??_C@_06MBEHBGFJ@FLRxXX@
CONST	SEGMENT
??_C@_06MBEHBGFJ@FLRxXX@ DB 'FLRxXX', 00H		; `string'
CONST	ENDS
;	COMDAT ??_C@_08EGADPGME@FLRx?$CF02d@
CONST	SEGMENT
??_C@_08EGADPGME@FLRx?$CF02d@ DB 'FLRx%02d', 00H	; `string'
CONST	ENDS
;	COMDAT ??_C@_06JNIOEKKK@CHFxXX@
CONST	SEGMENT
??_C@_06JNIOEKKK@CHFxXX@ DB 'CHFxXX', 00H		; `string'
CONST	ENDS
;	COMDAT ??_C@_08BLEPAFKM@CHFx?$CF02d@
CONST	SEGMENT
??_C@_08BLEPAFKM@CHFx?$CF02d@ DB 'CHFx%02d', 00H	; `string'
CONST	ENDS
;	COMDAT ?__LINE__Var@?0??draw_weapon_display_side_mfd@@YGXXZ@4JA
_DATA	SEGMENT
?__LINE__Var@?0??draw_weapon_display_side_mfd@@YGXXZ@4JA DD 01fc5H ; `draw_weapon_display_side_mfd'::`1'::__LINE__Var
_DATA	ENDS
;	COMDAT ??_C@_0BC@CEPGDBDN@ROCKET?5SALVOx?$CF02d@
CONST	SEGMENT
??_C@_0BC@CEPGDBDN@ROCKET?5SALVOx?$CF02d@ DB 'ROCKET SALVOx%02d', 00H ; `string'
CONST	ENDS
;	COMDAT ??_C@_0BB@FAFOJLKK@ROCKET?5SALVOxALL@
CONST	SEGMENT
??_C@_0BB@FAFOJLKK@ROCKET?5SALVOxALL@ DB 'ROCKET SALVOxALL', 00H ; `string'
CONST	ENDS
;	COMDAT ??_C@_05HGDIBGHI@x?$CF02d@
CONST	SEGMENT
??_C@_05HGDIBGHI@x?$CF02d@ DB 'x%02d', 00H		; `string'
CONST	ENDS
;	COMDAT ??_C@_07MPAMKEAB@?$CFsx?$CF03d@
CONST	SEGMENT
??_C@_07MPAMKEAB@?$CFsx?$CF03d@ DB '%sx%03d', 00H	; `string'
CONST	ENDS
;	COMDAT ??_C@_04FACIIFCM@FxXX@
CONST	SEGMENT
??_C@_04FACIIFCM@FxXX@ DB 'FxXX', 00H			; `string'
CONST	ENDS
;	COMDAT ??_C@_08EHCDGGFB@FLARExXX@
CONST	SEGMENT
??_C@_08EHCDGGFB@FLARExXX@ DB 'FLARExXX', 00H		; `string'
CONST	ENDS
;	COMDAT ??_C@_06HNENCIOG@Fx?$CF02d@
CONST	SEGMENT
??_C@_06HNENCIOG@Fx?$CF02d@ DB 'Fx%02d', 00H		; `string'
CONST	ENDS
;	COMDAT ??_C@_0L@NONPILJE@FLAREx?$CF02d@
CONST	SEGMENT
??_C@_0L@NONPILJE@FLAREx?$CF02d@ DB 'FLAREx%02d', 00H	; `string'
CONST	ENDS
;	COMDAT ??_C@_04JIMIAKFM@CxXX@
CONST	SEGMENT
??_C@_04JIMIAKFM@CxXX@ DB 'CxXX', 00H			; `string'
CONST	ENDS
;	COMDAT ??_C@_08FGBJBHLJ@CHAFFxXX@
CONST	SEGMENT
??_C@_08FGBJBHLJ@CHAFFxXX@ DB 'CHAFFxXX', 00H		; `string'
CONST	ENDS
;	COMDAT ??_C@_06CPHFAHEB@Cx?$CF02d@
CONST	SEGMENT
??_C@_06CPHFAHEB@Cx?$CF02d@ DB 'Cx%02d', 00H		; `string'
CONST	ENDS
;	COMDAT ??_C@_0L@GPHKKCOA@CHAFFx?$CF02d@
CONST	SEGMENT
??_C@_0L@GPHKKCOA@CHAFFx?$CF02d@ DB 'CHAFFx%02d', 00H	; `string'
CONST	ENDS
;	COMDAT ??_C@_03CBNMOHKF@C?1M@
CONST	SEGMENT
??_C@_03CBNMOHKF@C?1M@ DB 'C/M', 00H			; `string'
CONST	ENDS
;	COMDAT ??_C@_03NHPMNECN@ARM@
CONST	SEGMENT
??_C@_03NHPMNECN@ARM@ DB 'ARM', 00H			; `string'
CONST	ENDS
;	COMDAT ?__LINE__Var@?0??draw_weapon_display_mfd@@YGXXZ@4JA
_DATA	SEGMENT
?__LINE__Var@?0??draw_weapon_display_mfd@@YGXXZ@4JA DD 01b54H ; `draw_weapon_display_mfd'::`1'::__LINE__Var
_DATA	ENDS
;	COMDAT ??_C@_06DPNNIDIB@F?3?$CF02d@
CONST	SEGMENT
??_C@_06DPNNIDIB@F?3?$CF02d@ DB 'F:%02d', 00H		; `string'
CONST	ENDS
;	COMDAT ??_C@_04GBDFBFJK@F?3XX@
CONST	SEGMENT
??_C@_04GBDFBFJK@F?3XX@ DB 'F:XX', 00H			; `string'
CONST	ENDS
;	COMDAT ??_C@_0L@JMEPCAPD@FLARE?3?$CF02d@
CONST	SEGMENT
??_C@_0L@JMEPCAPD@FLARE?3?$CF02d@ DB 'FLARE:%02d', 00H	; `string'
CONST	ENDS
;	COMDAT ??_C@_08HGDOPGOH@FLARE?3XX@
CONST	SEGMENT
??_C@_08HGDOPGOH@FLARE?3XX@ DB 'FLARE:XX', 00H		; `string'
CONST	ENDS
;	COMDAT ??_C@_06GNOFKMCG@C?3?$CF02d@
CONST	SEGMENT
??_C@_06GNOFKMCG@C?3?$CF02d@ DB 'C:%02d', 00H		; `string'
CONST	ENDS
;	COMDAT ??_C@_04KJNFJKOK@C?3XX@
CONST	SEGMENT
??_C@_04KJNFJKOK@C?3XX@ DB 'C:XX', 00H			; `string'
CONST	ENDS
;	COMDAT ??_C@_0L@CNOKAJIH@CHAFF?3?$CF02d@
CONST	SEGMENT
??_C@_0L@CNOKAJIH@CHAFF?3?$CF02d@ DB 'CHAFF:%02d', 00H	; `string'
CONST	ENDS
;	COMDAT ??_C@_08GHAEIHAP@CHAFF?3XX@
CONST	SEGMENT
??_C@_08GHAEIHAP@CHAFF?3XX@ DB 'CHAFF:XX', 00H		; `string'
CONST	ENDS
;	COMDAT ??_C@_06JCJCOOPL@RD?5OFF@
CONST	SEGMENT
??_C@_06JCJCOOPL@RD?5OFF@ DB 'RD OFF', 00H		; `string'
CONST	ENDS
;	COMDAT ??_C@_05BHAGAOGB@RD?5ON@
CONST	SEGMENT
??_C@_05BHAGAOGB@RD?5ON@ DB 'RD ON', 00H		; `string'
CONST	ENDS
;	COMDAT ??_C@_06JNKFDAHI@RD?5XXX@
CONST	SEGMENT
??_C@_06JNKFDAHI@RD?5XXX@ DB 'RD XXX', 00H		; `string'
CONST	ENDS
;	COMDAT ??_C@_0L@JIGPMIEL@RD?5JAM?5OFF@
CONST	SEGMENT
??_C@_0L@JIGPMIEL@RD?5JAM?5OFF@ DB 'RD JAM OFF', 00H	; `string'
CONST	ENDS
;	COMDAT ??_C@_09OKIOJJOP@RD?5JAM?5ON@
CONST	SEGMENT
??_C@_09OKIOJJOP@RD?5JAM?5ON@ DB 'RD JAM ON', 00H	; `string'
CONST	ENDS
;	COMDAT ??_C@_0L@JHFIBGMI@RD?5JAM?5XXX@
CONST	SEGMENT
??_C@_0L@JHFIBGMI@RD?5JAM?5XXX@ DB 'RD JAM XXX', 00H	; `string'
CONST	ENDS
;	COMDAT ??_C@_06CCMEMHEJ@IR?5OFF@
CONST	SEGMENT
??_C@_06CCMEMHEJ@IR?5OFF@ DB 'IR OFF', 00H		; `string'
CONST	ENDS
;	COMDAT ??_C@_05JBLHJOBL@IR?5ON@
CONST	SEGMENT
??_C@_05JBLHJOBL@IR?5ON@ DB 'IR ON', 00H		; `string'
CONST	ENDS
;	COMDAT ??_C@_06CNPDBJMK@IR?5XXX@
CONST	SEGMENT
??_C@_06CNPDBJMK@IR?5XXX@ DB 'IR XXX', 00H		; `string'
CONST	ENDS
;	COMDAT ??_C@_0L@DPAIHKGL@IR?5JAM?5OFF@
CONST	SEGMENT
??_C@_0L@DPAIHKGL@IR?5JAM?5OFF@ DB 'IR JAM OFF', 00H	; `string'
CONST	ENDS
;	COMDAT ??_C@_09OKBKNIAL@IR?5JAM?5ON@
CONST	SEGMENT
??_C@_09OKBKNIAL@IR?5JAM?5ON@ DB 'IR JAM ON', 00H	; `string'
CONST	ENDS
;	COMDAT ??_C@_0L@DADPKEOI@IR?5JAM?5XXX@
CONST	SEGMENT
??_C@_0L@DADPKEOI@IR?5JAM?5XXX@ DB 'IR JAM XXX', 00H	; `string'
CONST	ENDS
;	COMDAT ??_C@_0M@JCLOGLFI@LS?5MSL?3?$CF?41f@
CONST	SEGMENT
??_C@_0M@JCLOGLFI@LS?5MSL?3?$CF?41f@ DB 'LS MSL:%.1f', 00H ; `string'
CONST	ENDS
;	COMDAT ??_C@_0M@KIDGDNDD@RF?5MSL?3?$CF?41f@
CONST	SEGMENT
??_C@_0M@KIDGDNDD@RF?5MSL?3?$CF?41f@ DB 'RF MSL:%.1f', 00H ; `string'
CONST	ENDS
;	COMDAT ??_C@_0M@MLJDMDII@IR?5MSL?3?$CF?41f@
CONST	SEGMENT
??_C@_0M@MLJDMDII@IR?5MSL?3?$CF?41f@ DB 'IR MSL:%.1f', 00H ; `string'
CONST	ENDS
;	COMDAT ?__LINE__Var@?0??draw_aircraft_survivability_equipment_display_mfd@@YGXW4COMANCHE_MAIN_MFD_LOCATIONS@@@Z@4JA
_DATA	SEGMENT
?__LINE__Var@?0??draw_aircraft_survivability_equipment_display_mfd@@YGXW4COMANCHE_MAIN_MFD_LOCATIONS@@@Z@4JA DD 018aeH ; `draw_aircraft_survivability_equipment_display_mfd'::`1'::__LINE__Var
_DATA	ENDS
;	COMDAT ??_C@_0IB@DOFIAAGF@?$CIthreat_type?5?$DN?$DN?5THREAT_TYPE_RF_@
CONST	SEGMENT
??_C@_0IB@DOFIAAGF@?$CIthreat_type?5?$DN?$DN?5THREAT_TYPE_RF_@ DB '(threa'
	DB	't_type == THREAT_TYPE_RF_MISSILE) || (threat_type == THREAT_T'
	DB	'YPE_IR_MISSILE) || (threat_type == THREAT_TYPE_LASER_MISSILE)'
	DB	00H						; `string'
CONST	ENDS
;	COMDAT ??_C@_06OEKOLKIL@source@
CONST	SEGMENT
??_C@_06OEKOLKIL@source@ DB 'source', 00H		; `string'
CONST	ENDS
;	COMDAT ?__LINE__Var@?0??get_closest_missile@@YGPAUENTITY@@PAU2@PAUVEC3D@@W4THREAT_TYPES@@PAM@Z@4JA
_DATA	SEGMENT
?__LINE__Var@?0??get_closest_missile@@YGPAUENTITY@@PAU2@PAUVEC3D@@W4THREAT_TYPES@@PAM@Z@4JA DD 01847H ; `get_closest_missile'::`1'::__LINE__Var
_DATA	ENDS
;	COMDAT ??_C@_03DIMJBCMI@NAV@
CONST	SEGMENT
??_C@_03DIMJBCMI@NAV@ DB 'NAV', 00H			; `string'
CONST	ENDS
;	COMDAT ??_C@_03DBNGLLAD@TGT@
CONST	SEGMENT
??_C@_03DBNGLLAD@TGT@ DB 'TGT', 00H			; `string'
CONST	ENDS
;	COMDAT ??_C@_04IJFFJMFM@25Km@
CONST	SEGMENT
??_C@_04IJFFJMFM@25Km@ DB '25Km', 00H			; `string'
CONST	ENDS
;	COMDAT ??_C@_04PJCLBGLO@10Km@
CONST	SEGMENT
??_C@_04PJCLBGLO@10Km@ DB '10Km', 00H			; `string'
CONST	ENDS
;	COMDAT ??_C@_03LFNCFPLL@5Km@
CONST	SEGMENT
??_C@_03LFNCFPLL@5Km@ DB '5Km', 00H			; `string'
CONST	ENDS
;	COMDAT ??_C@_03CIAFGHAC@2Km@
CONST	SEGMENT
??_C@_03CIAFGHAC@2Km@ DB '2Km', 00H			; `string'
CONST	ENDS
;	COMDAT ??_C@_03KNFJGCC@AIR@
CONST	SEGMENT
??_C@_03KNFJGCC@AIR@ DB 'AIR', 00H			; `string'
CONST	ENDS
;	COMDAT ??_C@_03DGGJGKKM@GND@
CONST	SEGMENT
??_C@_03DGGJGKKM@GND@ DB 'GND', 00H			; `string'
CONST	ENDS
;	COMDAT ??_C@_00CNPNBAHC@@
CONST	SEGMENT
??_C@_00CNPNBAHC@@ DB 00H				; `string'
CONST	ENDS
;	COMDAT ??_C@_05BDMPLNHB@HIDSS@
CONST	SEGMENT
??_C@_05BDMPLNHB@HIDSS@ DB 'HIDSS', 00H			; `string'
CONST	ENDS
;	COMDAT ??_C@_04DBODHFDK@TADS@
CONST	SEGMENT
??_C@_04DBODHFDK@TADS@ DB 'TADS', 00H			; `string'
CONST	ENDS
;	COMDAT ??_C@_03JKJFCLEN@FCR@
CONST	SEGMENT
??_C@_03JKJFCLEN@FCR@ DB 'FCR', 00H			; `string'
CONST	ENDS
;	COMDAT ??_C@_06LLLMNJMM@NO?5ACQ@
CONST	SEGMENT
??_C@_06LLLMNJMM@NO?5ACQ@ DB 'NO ACQ', 00H		; `string'
CONST	ENDS
;	COMDAT ??_C@_0DA@GBKBAHOG@comanche_main_mfd_location_vali@
CONST	SEGMENT
??_C@_0DA@GBKBAHOG@comanche_main_mfd_location_vali@ DB 'comanche_main_mfd'
	DB	'_location_valid (mfd_location)', 00H	; `string'
CONST	ENDS
;	COMDAT ?__LINE__Var@?0??draw_tactical_situation_display_mfd@@YGXW4COMANCHE_MAIN_MFD_LOCATIONS@@@Z@4JA
_DATA	SEGMENT
?__LINE__Var@?0??draw_tactical_situation_display_mfd@@YGXW4COMANCHE_MAIN_MFD_LOCATIONS@@@Z@4JA DD 0149cH ; `draw_tactical_situation_display_mfd'::`1'::__LINE__Var
_DATA	ENDS
;	COMDAT ?__LINE__Var@?0??draw_heading_scale_tsd@@YGXMH@Z@4JA
_DATA	SEGMENT
?__LINE__Var@?0??draw_heading_scale_tsd@@YGXMH@Z@4JA DD 0137dH ; `draw_heading_scale_tsd'::`1'::__LINE__Var
_DATA	ENDS
;	COMDAT ??_C@_0BD@PMDJPBGC@?$CFc?$CF04d?5M?5?5?5?$CF3d?5KPH@
CONST	SEGMENT
??_C@_0BD@PMDJPBGC@?$CFc?$CF04d?5M?5?5?5?$CF3d?5KPH@ DB '%c%04d M   %3d K'
	DB	'PH', 00H					; `string'
CONST	ENDS
;	COMDAT ??_C@_0L@CPHGBHEJ@CP?1G?5ID?4?4?4@
CONST	SEGMENT
??_C@_0L@CPHGBHEJ@CP?1G?5ID?4?4?4@ DB 'CP/G ID...', 00H	; `string'
CONST	ENDS
;	COMDAT ??_C@_09ICGCKLLB@LOW?5LIGHT@
CONST	SEGMENT
??_C@_09ICGCKLLB@LOW?5LIGHT@ DB 'LOW LIGHT', 00H	; `string'
CONST	ENDS
;	COMDAT ??_C@_07FGFCMGOE@?$CF3d?5KTS@
CONST	SEGMENT
??_C@_07FGFCMGOE@?$CF3d?5KTS@ DB '%3d KTS', 00H		; `string'
CONST	ENDS
;	COMDAT ??_C@_06BLLIFECI@?$CF3d?5FT@
CONST	SEGMENT
??_C@_06BLLIFECI@?$CF3d?5FT@ DB '%3d FT', 00H		; `string'
CONST	ENDS
;	COMDAT ??_C@_01CPLAODJH@S@
CONST	SEGMENT
??_C@_01CPLAODJH@S@ DB 'S', 00H				; `string'
CONST	ENDS
;	COMDAT ??_C@_04GGBPDDBN@?$CF?41f@
CONST	SEGMENT
??_C@_04GGBPDDBN@?$CF?41f@ DB '%.1f', 00H		; `string'
CONST	ENDS
;	COMDAT ??_C@_02ONPABID@LO@
CONST	SEGMENT
??_C@_02ONPABID@LO@ DB 'LO', 00H			; `string'
CONST	ENDS
;	COMDAT ??_C@_08JFLECGBM@LO?5LIGHT@
CONST	SEGMENT
??_C@_08JFLECGBM@LO?5LIGHT@ DB 'LO LIGHT', 00H		; `string'
CONST	ENDS
;	COMDAT ??_C@_03NFBNOOEB@DVO@
CONST	SEGMENT
??_C@_03NFBNOOEB@DVO@ DB 'DVO', 00H			; `string'
CONST	ENDS
;	COMDAT ??_C@_03ENJJJDDH@DTV@
CONST	SEGMENT
??_C@_03ENJJJDDH@DTV@ DB 'DTV', 00H			; `string'
CONST	ENDS
;	COMDAT ??_C@_04MIGKMLBH@FLIR@
CONST	SEGMENT
??_C@_04MIGKMLBH@FLIR@ DB 'FLIR', 00H			; `string'
CONST	ENDS
;	COMDAT ?__LINE__Var@?0??draw_2d_eo_display@@YGXPAUEO_PARAMS_DYNAMIC_MOVE@@W4TARGET_ACQUISITION_SYSTEMS@@HH@Z@4JA
_DATA	SEGMENT
?__LINE__Var@?0??draw_2d_eo_display@@YGXPAUEO_PARAMS_DYNAMIC_MOVE@@W4TARGET_ACQUISITION_SYSTEMS@@HH@Z@4JA DD 0d7eH ; `draw_2d_eo_display'::`1'::__LINE__Var
_DATA	ENDS
;	COMDAT ?__LINE__Var@?0??draw_full_screen_3d_eo_display@@YGXPAUEO_PARAMS_DYNAMIC_MOVE@@W4TARGET_ACQUISITION_SYSTEMS@@@Z@4JA
_DATA	SEGMENT
?__LINE__Var@?0??draw_full_screen_3d_eo_display@@YGXPAUEO_PARAMS_DYNAMIC_MOVE@@W4TARGET_ACQUISITION_SYSTEMS@@@Z@4JA DD 0cdbH ; `draw_full_screen_3d_eo_display'::`1'::__LINE__Var
_DATA	ENDS
;	COMDAT ??_C@_0CH@DDKDNBNH@Invalid?5target?5acquisition?5syst@
CONST	SEGMENT
??_C@_0CH@DDKDNBNH@Invalid?5target?5acquisition?5syst@ DB 'Invalid target'
	DB	' acquisition system = %d', 00H		; `string'
CONST	ENDS
;	COMDAT ??_C@_0EG@LLJGIOPM@?$CIday_segment_type?5?$DO?$DN?50?$CJ?5?$CG?$CG?5?$CIday@
CONST	SEGMENT
??_C@_0EG@LLJGIOPM@?$CIday_segment_type?5?$DO?$DN?50?$CJ?5?$CG?$CG?5?$CIday@ DB '('
	DB	'day_segment_type >= 0) && (day_segment_type < NUM_DAY_SEGMENT'
	DB	'_TYPES)', 00H				; `string'
CONST	ENDS
;	COMDAT ??_C@_0EK@DPCFPJPF@?$CIweather_mode?5?$DO?5WEATHERMODE_INV@
CONST	SEGMENT
??_C@_0EK@DPCFPJPF@?$CIweather_mode?5?$DO?5WEATHERMODE_INV@ DB '(weather_'
	DB	'mode > WEATHERMODE_INVALID) && (weather_mode < WEATHERMODE_LA'
	DB	'ST)', 00H					; `string'
CONST	ENDS
;	COMDAT ??_C@_0BF@MDEHLDP@eo_3d_texture_screen@
CONST	SEGMENT
??_C@_0BF@MDEHLDP@eo_3d_texture_screen@ DB 'eo_3d_texture_screen', 00H ; `string'
CONST	ENDS
;	COMDAT ??_C@_02KMMHFIEO@eo@
CONST	SEGMENT
??_C@_02KMMHFIEO@eo@ DB 'eo', 00H			; `string'
CONST	ENDS
;	COMDAT ?__LINE__Var@?0??draw_3d_eo_display@@YGXPAUEO_PARAMS_DYNAMIC_MOVE@@W4TARGET_ACQUISITION_SYSTEMS@@@Z@4JA
_DATA	SEGMENT
?__LINE__Var@?0??draw_3d_eo_display@@YGXPAUEO_PARAMS_DYNAMIC_MOVE@@W4TARGET_ACQUISITION_SYSTEMS@@@Z@4JA DD 0c1fH ; `draw_3d_eo_display'::`1'::__LINE__Var
_DATA	ENDS
;	COMDAT ??_C@_05EJJKHDCK@ENEMY@
CONST	SEGMENT
??_C@_05EJJKHDCK@ENEMY@ DB 'ENEMY', 00H			; `string'
CONST	ENDS
;	COMDAT ?__LINE__Var@?0??draw_air_radar_mfd@@YGXXZ@4JA
_DATA	SEGMENT
?__LINE__Var@?0??draw_air_radar_mfd@@YGXXZ@4JA DD 09fdH	; `draw_air_radar_mfd'::`1'::__LINE__Var
_DATA	ENDS
;	COMDAT ??_C@_04MGKDMHFC@MARK@
CONST	SEGMENT
??_C@_04MGKDMHFC@MARK@ DB 'MARK', 00H			; `string'
CONST	ENDS
;	COMDAT ??_C@_04PKDHFCJF@HIGH@
CONST	SEGMENT
??_C@_04PKDHFCJF@HIGH@ DB 'HIGH', 00H			; `string'
CONST	ENDS
;	COMDAT ??_C@_03FFIBGFCJ@MED@
CONST	SEGMENT
??_C@_03FFIBGFCJ@MED@ DB 'MED', 00H			; `string'
CONST	ENDS
;	COMDAT ??_C@_06HMBFJLMK@MEDIUM@
CONST	SEGMENT
??_C@_06HMBFJLMK@MEDIUM@ DB 'MEDIUM', 00H		; `string'
CONST	ENDS
;	COMDAT ??_C@_03IBEFMGAI@LOW@
CONST	SEGMENT
??_C@_03IBEFMGAI@LOW@ DB 'LOW', 00H			; `string'
CONST	ENDS
;	COMDAT ??_C@_03NIFPGLBG@ALL@
CONST	SEGMENT
??_C@_03NIFPGLBG@ALL@ DB 'ALL', 00H			; `string'
CONST	ENDS
;	COMDAT ?__LINE__Var@?0??draw_ground_radar_mfd@@YGXXZ@4JA
_DATA	SEGMENT
?__LINE__Var@?0??draw_ground_radar_mfd@@YGXXZ@4JA DD 08bfH ; `draw_ground_radar_mfd'::`1'::__LINE__Var
_DATA	ENDS
;	COMDAT ??_C@_0DD@KDAGALDF@get_local_entity_type?5?$CItarget?$CJ?5@
CONST	SEGMENT
??_C@_0DD@KDAGALDF@get_local_entity_type?5?$CItarget?$CJ?5@ DB 'get_local'
	DB	'_entity_type (target) == ENTITY_TYPE_CITY', 00H ; `string'
CONST	ENDS
;	COMDAT ?__LINE__Var@?0??draw_ground_radar_clutter@@YGXPAUENTITY@@PAUVEC3D@@M@Z@4JA
_DATA	SEGMENT
?__LINE__Var@?0??draw_ground_radar_clutter@@YGXPAUENTITY@@PAUVEC3D@@M@Z@4JA DD 0891H ; `draw_ground_radar_clutter'::`1'::__LINE__Var
_DATA	ENDS
;	COMDAT ??_C@_0EM@GKFLGKNK@?$CItarget_symbol_type?5?$DO?$DN?50?$CJ?5?$CG?$CG?5?$CIt@
CONST	SEGMENT
??_C@_0EM@GKFLGKNK@?$CItarget_symbol_type?5?$DO?$DN?50?$CJ?5?$CG?$CG?5?$CIt@ DB '('
	DB	'target_symbol_type >= 0) && (target_symbol_type < NUM_TARGET_'
	DB	'SYMBOL_TYPES)', 00H				; `string'
CONST	ENDS
;	COMDAT ??_C@_0EE@DBLNIBMF@?$CBget_local_entity_int_value?5?$CIta@
CONST	SEGMENT
??_C@_0EE@DBLNIBMF@?$CBget_local_entity_int_value?5?$CIta@ DB '!get_local'
	DB	'_entity_int_value (target, INT_TYPE_GROUND_RADAR_CLUTTER)', 00H ; `string'
CONST	ENDS
;	COMDAT ??_C@_0BA@IIPCKJML@source_position@
CONST	SEGMENT
??_C@_0BA@IIPCKJML@source_position@ DB 'source_position', 00H ; `string'
CONST	ENDS
;	COMDAT ??_C@_06JJLAMBGK@target@
CONST	SEGMENT
??_C@_06JJLAMBGK@target@ DB 'target', 00H		; `string'
CONST	ENDS
;	COMDAT ?__LINE__Var@?0??draw_radar_target_symbol@@YGXPAUENTITY@@PAUVEC3D@@MHH@Z@4JA
_DATA	SEGMENT
?__LINE__Var@?0??draw_radar_target_symbol@@YGXPAUENTITY@@PAUVEC3D@@MHH@Z@4JA DD 07e2H ; `draw_radar_target_symbol'::`1'::__LINE__Var
_DATA	ENDS
;	COMDAT ??_C@_06GPMJGLEM@MARKED@
CONST	SEGMENT
??_C@_06GPMJGLEM@MARKED@ DB 'MARKED', 00H		; `string'
CONST	ENDS
;	COMDAT ??_C@_06KODELPLK@LOCKED@
CONST	SEGMENT
??_C@_06KODELPLK@LOCKED@ DB 'LOCKED', 00H		; `string'
CONST	ENDS
;	COMDAT ??_C@_04LMMJFDCN@AUTO@
CONST	SEGMENT
??_C@_04LMMJFDCN@AUTO@ DB 'AUTO', 00H			; `string'
CONST	ENDS
;	COMDAT ??_C@_06HCPKJKPH@NO?5LOS@
CONST	SEGMENT
??_C@_06HCPKJKPH@NO?5LOS@ DB 'NO LOS', 00H		; `string'
CONST	ENDS
;	COMDAT ??_C@_06OMCABMNO@?$CF?41fKm@
CONST	SEGMENT
??_C@_06OMCABMNO@?$CF?41fKm@ DB '%.1fKm', 00H		; `string'
CONST	ENDS
;	COMDAT ??_C@_03NGNKAJPJ@?$CFdm@
CONST	SEGMENT
??_C@_03NGNKAJPJ@?$CFdm@ DB '%dm', 00H			; `string'
CONST	ENDS
;	COMDAT ??_C@_05EMNNHGFM@radar@
CONST	SEGMENT
??_C@_05EMNNHGFM@radar@ DB 'radar', 00H			; `string'
CONST	ENDS
;	COMDAT ?__LINE__Var@?0??display_radar_target_details@@YGXPAUENTITY@@MPAURADAR_PARAMS@@@Z@4JA
_DATA	SEGMENT
?__LINE__Var@?0??display_radar_target_details@@YGXPAUENTITY@@MPAURADAR_PARAMS@@@Z@4JA DD 06fcH ; `display_radar_target_details'::`1'::__LINE__Var
_DATA	ENDS
;	COMDAT ??_C@_03MAMPKPPK@XXX@
CONST	SEGMENT
??_C@_03MAMPKPPK@XXX@ DB 'XXX', 00H			; `string'
CONST	ENDS
;	COMDAT ??_C@_06NBEADFGO@?$CF?40fKm@
CONST	SEGMENT
??_C@_06NBEADFGO@?$CF?40fKm@ DB '%.0fKm', 00H		; `string'
CONST	ENDS
;	COMDAT ??_C@_05LIPABGF@?$CF?40fm@
CONST	SEGMENT
??_C@_05LIPABGF@?$CF?40fm@ DB '%.0fm', 00H		; `string'
CONST	ENDS
;	COMDAT ??_C@_05MDNKIPAL@?$CFd?5lb@
CONST	SEGMENT
??_C@_05MDNKIPAL@?$CFd?5lb@ DB '%d lb', 00H		; `string'
CONST	ENDS
;	COMDAT ??_C@_05KABNCBHK@?$CFd?0?$CFd@
CONST	SEGMENT
??_C@_05KABNCBHK@?$CFd?0?$CFd@ DB '%d,%d', 00H		; `string'
CONST	ENDS
;	COMDAT ??_C@_08JGCGJPK@?9?9?3?9?9?3?9?9@
CONST	SEGMENT
??_C@_08JGCGJPK@?9?9?3?9?9?3?9?9@ DB '--:--:--', 00H	; `string'
CONST	ENDS
;	COMDAT ??_C@_0P@PLMNPDMB@?$CF02d?3?$CF02d?3?$CF02d@
CONST	SEGMENT
??_C@_0P@PLMNPDMB@?$CF02d?3?$CF02d?3?$CF02d@ DB '%02d:%02d:%02d', 00H ; `string'
CONST	ENDS
;	COMDAT ??_C@_06BAOIPBEF@?9?3?9?9?4?9@
CONST	SEGMENT
??_C@_06BAOIPBEF@?9?3?9?9?4?9@ DB '-:--.-', 00H		; `string'
CONST	ENDS
;	COMDAT ??_C@_07CFANIJPM@?$CFc?3?$CFdKm@
CONST	SEGMENT
??_C@_07CFANIJPM@?$CFc?3?$CFdKm@ DB '%c:%dKm', 00H	; `string'
CONST	ENDS
;	COMDAT ??_C@_09EKFBJBJG@?$CFc?3?$CF?41fKm@
CONST	SEGMENT
??_C@_09EKFBJBJG@?$CFc?3?$CF?41fKm@ DB '%c:%.1fKm', 00H	; `string'
CONST	ENDS
;	COMDAT ??_C@_06JCIGMCHD@?$CFc?3?$CFdm@
CONST	SEGMENT
??_C@_06JCIGMCHD@?$CFc?3?$CFdm@ DB '%c:%dm', 00H	; `string'
CONST	ENDS
;	COMDAT ?__LINE__Var@?0??display_navigation_info@@YGXXZ@4JA
_DATA	SEGMENT
?__LINE__Var@?0??display_navigation_info@@YGXXZ@4JA DD 0607H ; `display_navigation_info'::`1'::__LINE__Var
_DATA	ENDS
;	COMDAT ??_C@_04OHGLKFFN@?$CF03d@
CONST	SEGMENT
??_C@_04OHGLKFFN@?$CF03d@ DB '%03d', 00H		; `string'
CONST	ENDS
;	COMDAT ?__LINE__Var@?0??draw_heading_scale@@YGXMH@Z@4JA
_DATA	SEGMENT
?__LINE__Var@?0??draw_heading_scale@@YGXMH@Z@4JA DD 0516H ; `draw_heading_scale'::`1'::__LINE__Var
_DATA	ENDS
;	COMDAT ??_C@_04HPNJOLEN@?$CF3do@
CONST	SEGMENT
??_C@_04HPNJOLEN@?$CF3do@ DB '%3do', 00H		; `string'
CONST	ENDS
;	COMDAT ??_C@_04OGKJMPGK@?$CF02d@
CONST	SEGMENT
??_C@_04OGKJMPGK@?$CF02d@ DB '%02d', 00H		; `string'
CONST	ENDS
;	COMDAT ??_C@_03GOOLIKIF@?$CF3d@
CONST	SEGMENT
??_C@_03GOOLIKIF@?$CF3d@ DB '%3d', 00H			; `string'
CONST	ENDS
;	COMDAT ??_C@_02DPKJAMEF@?$CFd@
CONST	SEGMENT
??_C@_02DPKJAMEF@?$CFd@ DB '%d', 00H			; `string'
CONST	ENDS
;	COMDAT ??_C@_01CBDEGOCN@j@
CONST	SEGMENT
??_C@_01CBDEGOCN@j@ DB 'j', 00H				; `string'
CONST	ENDS
;	COMDAT ??_C@_01KBJDNOO@i@
CONST	SEGMENT
??_C@_01KBJDNOO@i@ DB 'i', 00H				; `string'
CONST	ENDS
;	COMDAT ??_C@_0FA@HHDNPPJG@c?3?2users?2nhv90?2projects?2eech?2ap@
CONST	SEGMENT
??_C@_0FA@HHDNPPJG@c?3?2users?2nhv90?2projects?2eech?2ap@ DB 'c:\users\nh'
	DB	'v90\projects\eech\aphavoc\source\gunships\avionics\comanche\c'
	DB	'm_mfd.c', 00H				; `string'
CONST	ENDS
;	COMDAT ?__LINE__Var@?0??transform_mfd_screen_co_ords_to_mfd_texture_co_ords@@YGXPAM0@Z@4JA
_DATA	SEGMENT
?__LINE__Var@?0??transform_mfd_screen_co_ords_to_mfd_texture_co_ords@@YGXPAM0@Z@4JA DD 02dbH ; `transform_mfd_screen_co_ords_to_mfd_texture_co_ords'::`1'::__LINE__Var
_DATA	ENDS
_DATA	SEGMENT
?comanche_main_mfd_mode_names@@3PAPADA DD FLAT:??_C@_0BL@LMEENCLB@COMANCHE_MAIN_MFD_MODE_OFF@ ; comanche_main_mfd_mode_names
	DD	FLAT:??_C@_0BP@OBPLLEL@COMANCHE_MAIN_MFD_MODE_DAMAGED@
	DD	FLAT:??_C@_0CE@BAGKBDCO@COMANCHE_MAIN_MFD_MODE_GROUND_R@
	DD	FLAT:??_C@_0CB@NPPLLCFE@COMANCHE_MAIN_MFD_MODE_AIR_RADA@
	DD	FLAT:??_C@_0BM@FNKGDNDG@COMANCHE_MAIN_MFD_MODE_FLIR@
	DD	FLAT:??_C@_0BL@DOCFDAPP@COMANCHE_MAIN_MFD_MODE_DTV@
	DD	FLAT:??_C@_0BL@KGKBENIJ@COMANCHE_MAIN_MFD_MODE_DVO@
	DD	FLAT:??_C@_0BL@BDIHABDG@COMANCHE_MAIN_MFD_MODE_TSD@
	DD	FLAT:??_C@_0BL@GNFLJHNK@COMANCHE_MAIN_MFD_MODE_ASE@
	DD	FLAT:??_C@_0BO@LIJHGNEM@COMANCHE_MAIN_MFD_MODE_WEAPON@
	DD	FLAT:??_C@_0BO@ILDEAOBP@COMANCHE_MAIN_MFD_MODE_SYSTEM@
	DD	FLAT:??_C@_0BO@GCHGEOCB@COMANCHE_MAIN_MFD_MODE_ENGINE@
	DD	FLAT:??_C@_0BO@BGONGDEH@COMANCHE_MAIN_MFD_MODE_FLIGHT@
	DD	FLAT:??_C@_0BP@BGOEFDGB@COMANCHE_MAIN_MFD_MODE_MISSION@
?comanche_main_mfd_location_names@@3PAPADA DD FLAT:??_C@_0CF@GKLKKOOE@COMANCHE_MAIN_MFD_LOCATION_PILO@ ; comanche_main_mfd_location_names
	DD	FLAT:??_C@_0CF@NKHMIOEI@COMANCHE_MAIN_MFD_LOCATION_PILO@
	DD	FLAT:??_C@_0CI@KDPADHEA@COMANCHE_MAIN_MFD_LOCATION_CO_P@
	DD	FLAT:??_C@_0CI@BDDGBHOM@COMANCHE_MAIN_MFD_LOCATION_CO_P@
?comanche_side_mfd_mode_names@@3PAPADA DD FLAT:??_C@_0BL@LKGEDHBJ@COMANCHE_SIDE_MFD_MODE_OFF@ ; comanche_side_mfd_mode_names
	DD	FLAT:??_C@_0BP@FFAOBJHN@COMANCHE_SIDE_MFD_MODE_DAMAGED@
	DD	FLAT:??_C@_0BO@HHJLEGPD@COMANCHE_SIDE_MFD_MODE_WEAPON@
	DD	FLAT:??_C@_0BO@EEDICFKA@COMANCHE_SIDE_MFD_MODE_SYSTEM@
	DD	FLAT:??_C@_0BO@KNHKGFJO@COMANCHE_SIDE_MFD_MODE_ENGINE@
	DD	FLAT:??_C@_0BO@NJOBEIPI@COMANCHE_SIDE_MFD_MODE_FLIGHT@
?comanche_side_mfd_location_names@@3PAPADA DD FLAT:??_C@_0CF@DKDCHHAJ@COMANCHE_SIDE_MFD_LOCATION_PILO@ ; comanche_side_mfd_location_names
	DD	FLAT:??_C@_0CF@IKPEFHKF@COMANCHE_SIDE_MFD_LOCATION_PILO@
	DD	FLAT:??_C@_0CI@LBFDABKH@COMANCHE_SIDE_MFD_LOCATION_CO_P@
	DD	FLAT:??_C@_0CI@BJFCBAL@COMANCHE_SIDE_MFD_LOCATION_CO_P@
?main_mfd_mode_ptrs@@3PAPAW4COMANCHE_MAIN_MFD_MODES@@A DD FLAT:?pilot_lhs_main_mfd_mode@@3W4COMANCHE_MAIN_MFD_MODES@@A ; main_mfd_mode_ptrs
	DD	FLAT:?pilot_rhs_main_mfd_mode@@3W4COMANCHE_MAIN_MFD_MODES@@A
	DD	FLAT:?co_pilot_lhs_main_mfd_mode@@3W4COMANCHE_MAIN_MFD_MODES@@A
	DD	FLAT:?co_pilot_rhs_main_mfd_mode@@3W4COMANCHE_MAIN_MFD_MODES@@A
?opposite_main_mfd_mode_ptrs@@3PAPAW4COMANCHE_MAIN_MFD_MODES@@A DD FLAT:?pilot_rhs_main_mfd_mode@@3W4COMANCHE_MAIN_MFD_MODES@@A ; opposite_main_mfd_mode_ptrs
	DD	FLAT:?pilot_lhs_main_mfd_mode@@3W4COMANCHE_MAIN_MFD_MODES@@A
	DD	FLAT:?co_pilot_rhs_main_mfd_mode@@3W4COMANCHE_MAIN_MFD_MODES@@A
	DD	FLAT:?co_pilot_lhs_main_mfd_mode@@3W4COMANCHE_MAIN_MFD_MODES@@A
?opposite_main_mfd_locations@@3PAW4COMANCHE_MAIN_MFD_LOCATIONS@@A DD 01H ; opposite_main_mfd_locations
	DD	00H
	DD	03H
	DD	02H
?side_mfd_mode_ptrs@@3PAPAW4COMANCHE_SIDE_MFD_MODES@@A DD FLAT:?pilot_lhs_side_mfd_mode@@3W4COMANCHE_SIDE_MFD_MODES@@A ; side_mfd_mode_ptrs
	DD	FLAT:?pilot_rhs_side_mfd_mode@@3W4COMANCHE_SIDE_MFD_MODES@@A
	DD	FLAT:?co_pilot_lhs_side_mfd_mode@@3W4COMANCHE_SIDE_MFD_MODES@@A
	DD	FLAT:?co_pilot_rhs_side_mfd_mode@@3W4COMANCHE_SIDE_MFD_MODES@@A
?opposite_side_mfd_mode_ptrs@@3PAPAW4COMANCHE_SIDE_MFD_MODES@@A DD FLAT:?pilot_rhs_side_mfd_mode@@3W4COMANCHE_SIDE_MFD_MODES@@A ; opposite_side_mfd_mode_ptrs
	DD	FLAT:?pilot_lhs_side_mfd_mode@@3W4COMANCHE_SIDE_MFD_MODES@@A
	DD	FLAT:?co_pilot_rhs_side_mfd_mode@@3W4COMANCHE_SIDE_MFD_MODES@@A
	DD	FLAT:?co_pilot_lhs_side_mfd_mode@@3W4COMANCHE_SIDE_MFD_MODES@@A
?large_tsd_ase_aircraft_datum@@3PADA DB 011H		; large_tsd_ase_aircraft_datum
	DB	025H
	DB	0f8H
	DB	0f8H
	DB	00H
	DB	00H
	DB	00H
	DB	00H
	DB	00H
	DB	00H
	DB	01H
	DB	01H
	DB	01H
	DB	01H
	DB	01H
	DB	00H
	DB	00H
	DB	00H
	DB	00H
	DB	00H
	DB	00H
	DB	00H
	DB	00H
	DB	00H
	DB	00H
	DB	01H
	DB	01H
	DB	00H
	DB	00H
	DB	00H
	DB	00H
	DB	00H
	DB	01H
	DB	01H
	DB	00H
	DB	00H
	DB	00H
	DB	00H
	DB	00H
	DB	00H
	DB	00H
	DB	01H
	DB	00H
	DB	00H
	DB	00H
	DB	00H
	DB	00H
	DB	00H
	DB	00H
	DB	00H
	DB	00H
	DB	01H
	DB	00H
	DB	00H
	DB	00H
	DB	00H
	DB	00H
	DB	01H
	DB	00H
	DB	00H
	DB	00H
	DB	00H
	DB	00H
	DB	00H
	DB	00H
	DB	00H
	DB	00H
	DB	00H
	DB	00H
	DB	01H
	DB	00H
	DB	00H
	DB	00H
	DB	01H
	DB	00H
	DB	00H
	DB	00H
	DB	00H
	DB	00H
	DB	00H
	DB	00H
	DB	00H
	DB	00H
	DB	00H
	DB	00H
	DB	00H
	DB	00H
	DB	01H
	DB	00H
	DB	00H
	DB	01H
	DB	00H
	DB	00H
	DB	00H
	DB	00H
	DB	00H
	DB	00H
	DB	00H
	DB	00H
	DB	00H
	DB	00H
	DB	00H
	DB	00H
	DB	00H
	DB	01H
	DB	00H
	DB	01H
	DB	00H
	DB	00H
	DB	00H
	DB	00H
	DB	00H
	DB	00H
	DB	00H
	DB	00H
	DB	00H
	DB	00H
	DB	00H
	DB	00H
	DB	00H
	DB	00H
	DB	00H
	DB	01H
	DB	01H
	DB	00H
	DB	00H
	DB	00H
	DB	00H
	DB	00H
	DB	00H
	DB	00H
	DB	00H
	DB	00H
	DB	00H
	DB	00H
	DB	00H
	DB	00H
	DB	00H
	DB	00H
	DB	01H
	DB	01H
	DB	00H
	DB	00H
	DB	00H
	DB	00H
	DB	00H
	DB	00H
	DB	00H
	DB	01H
	DB	00H
	DB	00H
	DB	00H
	DB	00H
	DB	00H
	DB	00H
	DB	00H
	DB	01H
	DB	01H
	DB	00H
	DB	00H
	DB	00H
	DB	00H
	DB	00H
	DB	00H
	DB	00H
	DB	00H
	DB	00H
	DB	00H
	DB	00H
	DB	00H
	DB	00H
	DB	00H
	DB	00H
	DB	01H
	DB	01H
	DB	00H
	DB	00H
	DB	00H
	DB	00H
	DB	00H
	DB	00H
	DB	00H
	DB	00H
	DB	00H
	DB	00H
	DB	00H
	DB	00H
	DB	00H
	DB	00H
	DB	00H
	DB	01H
	DB	00H
	DB	01H
	DB	00H
	DB	00H
	DB	00H
	DB	00H
	DB	00H
	DB	00H
	DB	00H
	DB	00H
	DB	00H
	DB	00H
	DB	00H
	DB	00H
	DB	00H
	DB	01H
	DB	00H
	DB	00H
	DB	01H
	DB	00H
	DB	00H
	DB	00H
	DB	00H
	DB	00H
	DB	00H
	DB	00H
	DB	00H
	DB	00H
	DB	00H
	DB	00H
	DB	00H
	DB	00H
	DB	01H
	DB	00H
	DB	00H
	DB	00H
	DB	01H
	DB	00H
	DB	00H
	DB	00H
	DB	00H
	DB	00H
	DB	00H
	DB	00H
	DB	00H
	DB	00H
	DB	00H
	DB	00H
	DB	01H
	DB	00H
	DB	00H
	DB	00H
	DB	00H
	DB	00H
	DB	01H
	DB	00H
	DB	00H
	DB	00H
	DB	00H
	DB	00H
	DB	00H
	DB	00H
	DB	00H
	DB	00H
	DB	01H
	DB	00H
	DB	00H
	DB	00H
	DB	00H
	DB	00H
	DB	00H
	DB	00H
	DB	01H
	DB	01H
	DB	00H
	DB	00H
	DB	00H
	DB	00H
	DB	00H
	DB	01H
	DB	01H
	DB	00H
	DB	00H
	DB	00H
	DB	00H
	DB	00H
	DB	00H
	DB	00H
	DB	00H
	DB	00H
	DB	00H
	DB	01H
	DB	01H
	DB	01H
	DB	01H
	DB	01H
	DB	00H
	DB	00H
	DB	00H
	DB	00H
	DB	00H
	DB	00H
	DB	00H
	DB	00H
	DB	00H
	DB	00H
	DB	00H
	DB	00H
	DB	00H
	DB	00H
	DB	01H
	DB	00H
	DB	00H
	DB	00H
	DB	00H
	DB	00H
	DB	00H
	DB	00H
	DB	00H
	DB	00H
	DB	00H
	DB	00H
	DB	00H
	DB	00H
	DB	00H
	DB	00H
	DB	00H
	DB	01H
	DB	00H
	DB	00H
	DB	00H
	DB	00H
	DB	00H
	DB	00H
	DB	00H
	DB	00H
	DB	00H
	DB	00H
	DB	00H
	DB	00H
	DB	00H
	DB	00H
	DB	00H
	DB	00H
	DB	01H
	DB	00H
	DB	00H
	DB	00H
	DB	00H
	DB	00H
	DB	00H
	DB	00H
	DB	00H
	DB	00H
	DB	00H
	DB	00H
	DB	00H
	DB	00H
	DB	00H
	DB	00H
	DB	00H
	DB	01H
	DB	00H
	DB	00H
	DB	00H
	DB	00H
	DB	00H
	DB	00H
	DB	00H
	DB	00H
	DB	00H
	DB	00H
	DB	00H
	DB	00H
	DB	00H
	DB	00H
	DB	00H
	DB	00H
	DB	01H
	DB	00H
	DB	00H
	DB	00H
	DB	00H
	DB	00H
	DB	00H
	DB	00H
	DB	00H
	DB	00H
	DB	00H
	DB	00H
	DB	00H
	DB	00H
	DB	00H
	DB	00H
	DB	00H
	DB	01H
	DB	00H
	DB	00H
	DB	00H
	DB	00H
	DB	00H
	DB	00H
	DB	00H
	DB	00H
	DB	00H
	DB	00H
	DB	00H
	DB	00H
	DB	00H
	DB	00H
	DB	00H
	DB	00H
	DB	01H
	DB	00H
	DB	00H
	DB	00H
	DB	00H
	DB	00H
	DB	00H
	DB	00H
	DB	00H
	DB	00H
	DB	00H
	DB	00H
	DB	00H
	DB	00H
	DB	00H
	DB	00H
	DB	00H
	DB	01H
	DB	00H
	DB	00H
	DB	00H
	DB	00H
	DB	00H
	DB	00H
	DB	00H
	DB	00H
	DB	00H
	DB	00H
	DB	00H
	DB	00H
	DB	00H
	DB	00H
	DB	00H
	DB	00H
	DB	01H
	DB	00H
	DB	00H
	DB	00H
	DB	00H
	DB	00H
	DB	00H
	DB	00H
	DB	00H
	DB	00H
	DB	00H
	DB	00H
	DB	00H
	DB	00H
	DB	00H
	DB	00H
	DB	00H
	DB	01H
	DB	00H
	DB	00H
	DB	00H
	DB	00H
	DB	00H
	DB	00H
	DB	00H
	DB	00H
	DB	00H
	DB	00H
	DB	00H
	DB	00H
	DB	00H
	DB	00H
	DB	00H
	DB	00H
	DB	01H
	DB	00H
	DB	00H
	DB	00H
	DB	00H
	DB	00H
	DB	00H
	DB	00H
	DB	00H
	DB	00H
	DB	00H
	DB	00H
	DB	00H
	DB	00H
	DB	00H
	DB	00H
	DB	00H
	DB	01H
	DB	00H
	DB	00H
	DB	00H
	DB	00H
	DB	00H
	DB	00H
	DB	00H
	DB	00H
	DB	00H
	DB	00H
	DB	00H
	DB	00H
	DB	00H
	DB	00H
	DB	00H
	DB	00H
	DB	01H
	DB	00H
	DB	00H
	DB	00H
	DB	00H
	DB	00H
	DB	00H
	DB	00H
	DB	00H
	DB	00H
	DB	00H
	DB	00H
	DB	00H
	DB	00H
	DB	00H
	DB	01H
	DB	00H
	DB	01H
	DB	00H
	DB	00H
	DB	00H
	DB	00H
	DB	00H
	DB	00H
	DB	00H
	DB	00H
	DB	00H
	DB	00H
	DB	00H
	DB	00H
	DB	00H
	DB	00H
	DB	01H
	DB	00H
	DB	01H
	DB	00H
	DB	00H
	DB	00H
	DB	00H
	DB	00H
	DB	00H
	DB	00H
	DB	00H
	DB	00H
	DB	00H
	DB	00H
	DB	00H
	DB	00H
	DB	00H
	DB	01H
	DB	00H
	DB	01H
	DB	00H
	DB	00H
	DB	00H
	DB	00H
	DB	00H
	DB	00H
	DB	00H
	DB	00H
	DB	00H
	DB	00H
	DB	00H
	DB	00H
	DB	00H
	DB	00H
	DB	01H
	DB	01H
	DB	01H
	DB	00H
	DB	00H
	DB	00H
	DB	00H
	DB	00H
	DB	00H
	DB	00H
	DB	00H
	DB	00H
	DB	00H
	DB	00H
	DB	00H
	DB	00H
	DB	00H
	DB	01H
	DB	00H
	DB	00H
	DB	00H
	DB	00H
	DB	00H
	DB	00H
	DB	00H
	DB	00H
	DB	00H
	DB	00H
	DB	00H
	DB	00H
	DB	00H
	DB	00H
	DB	00H
	DB	00H
	DB	01H
	DB	00H
	DB	00H
	DB	00H
	DB	00H
	DB	00H
	DB	00H
	DB	00H
	DB	00H
	DB	00H
	DB	00H
	DB	00H
	DB	00H
	DB	00H
	DB	00H
	DB	00H
	DB	00H
	DB	01H
	DB	00H
	DB	00H
	DB	00H
	DB	00H
	DB	00H
	DB	00H
	DB	00H
	DB	00H
	DB	00H
	DB	00H
	ORG $+7
?large_tsd_ase_aircraft_datum_mask@@3PADA DB 013H	; large_tsd_ase_aircraft_datum_mask
	DB	027H
	DB	0f7H
	DB	0f7H
	DB	00H
	DB	00H
	DB	00H
	DB	00H
	DB	00H
	DB	00H
	DB	00H
	DB	01H
	DB	01H
	DB	01H
	DB	01H
	DB	01H
	DB	00H
	DB	00H
	DB	00H
	DB	00H
	DB	00H
	DB	00H
	DB	00H
	DB	00H
	DB	00H
	DB	00H
	DB	00H
	DB	00H
	DB	01H
	DB	01H
	DB	00H
	DB	00H
	DB	00H
	DB	00H
	DB	00H
	DB	01H
	DB	01H
	DB	00H
	DB	00H
	DB	00H
	DB	00H
	DB	00H
	DB	00H
	DB	00H
	DB	00H
	DB	00H
	DB	01H
	DB	00H
	DB	00H
	DB	01H
	DB	01H
	DB	01H
	DB	01H
	DB	01H
	DB	00H
	DB	00H
	DB	01H
	DB	00H
	DB	00H
	DB	00H
	DB	00H
	DB	00H
	DB	00H
	DB	00H
	DB	01H
	DB	00H
	DB	01H
	DB	01H
	DB	00H
	DB	00H
	DB	00H
	DB	00H
	DB	00H
	DB	01H
	DB	01H
	DB	00H
	DB	01H
	DB	00H
	DB	00H
	DB	00H
	DB	00H
	DB	00H
	DB	01H
	DB	00H
	DB	01H
	DB	00H
	DB	00H
	DB	00H
	DB	00H
	DB	00H
	DB	00H
	DB	00H
	DB	00H
	DB	00H
	DB	01H
	DB	00H
	DB	01H
	DB	00H
	DB	00H
	DB	00H
	DB	01H
	DB	00H
	DB	01H
	DB	00H
	DB	00H
	DB	00H
	DB	00H
	DB	00H
	DB	00H
	DB	00H
	DB	00H
	DB	00H
	DB	00H
	DB	00H
	DB	01H
	DB	00H
	DB	01H
	DB	00H
	DB	00H
	DB	01H
	DB	00H
	DB	01H
	DB	00H
	DB	00H
	DB	00H
	DB	00H
	DB	00H
	DB	00H
	DB	00H
	DB	00H
	DB	00H
	DB	00H
	DB	00H
	DB	01H
	DB	00H
	DB	01H
	DB	00H
	DB	01H
	DB	00H
	DB	01H
	DB	00H
	DB	00H
	DB	00H
	DB	00H
	DB	00H
	DB	00H
	DB	00H
	DB	00H
	DB	00H
	DB	00H
	DB	00H
	DB	00H
	DB	00H
	DB	01H
	DB	00H
	DB	01H
	DB	01H
	DB	00H
	DB	01H
	DB	00H
	DB	00H
	DB	00H
	DB	00H
	DB	00H
	DB	00H
	DB	01H
	DB	00H
	DB	00H
	DB	00H
	DB	00H
	DB	00H
	DB	00H
	DB	01H
	DB	00H
	DB	01H
	DB	01H
	DB	00H
	DB	01H
	DB	00H
	DB	00H
	DB	00H
	DB	00H
	DB	00H
	DB	01H
	DB	00H
	DB	01H
	DB	00H
	DB	00H
	DB	00H
	DB	00H
	DB	00H
	DB	01H
	DB	00H
	DB	01H
	DB	01H
	DB	00H
	DB	01H
	DB	00H
	DB	00H
	DB	00H
	DB	00H
	DB	00H
	DB	00H
	DB	01H
	DB	00H
	DB	00H
	DB	00H
	DB	00H
	DB	00H
	DB	00H
	DB	01H
	DB	00H
	DB	01H
	DB	01H
	DB	00H
	DB	01H
	DB	00H
	DB	00H
	DB	00H
	DB	00H
	DB	00H
	DB	00H
	DB	00H
	DB	00H
	DB	00H
	DB	00H
	DB	00H
	DB	00H
	DB	00H
	DB	01H
	DB	00H
	DB	01H
	DB	00H
	DB	01H
	DB	00H
	DB	01H
	DB	00H
	DB	00H
	DB	00H
	DB	00H
	DB	00H
	DB	00H
	DB	00H
	DB	00H
	DB	00H
	DB	00H
	DB	00H
	DB	01H
	DB	00H
	DB	01H
	DB	00H
	DB	00H
	DB	01H
	DB	00H
	DB	01H
	DB	00H
	DB	00H
	DB	00H
	DB	00H
	DB	00H
	DB	00H
	DB	00H
	DB	00H
	DB	00H
	DB	00H
	DB	00H
	DB	01H
	DB	00H
	DB	01H
	DB	00H
	DB	00H
	DB	00H
	DB	01H
	DB	00H
	DB	01H
	DB	00H
	DB	00H
	DB	00H
	DB	00H
	DB	00H
	DB	00H
	DB	00H
	DB	00H
	DB	00H
	DB	01H
	DB	00H
	DB	01H
	DB	00H
	DB	00H
	DB	00H
	DB	00H
	DB	00H
	DB	01H
	DB	00H
	DB	01H
	DB	01H
	DB	00H
	DB	00H
	DB	00H
	DB	00H
	DB	00H
	DB	01H
	DB	01H
	DB	00H
	DB	01H
	DB	00H
	DB	00H
	DB	00H
	DB	00H
	DB	00H
	DB	00H
	DB	00H
	DB	01H
	DB	00H
	DB	00H
	DB	01H
	DB	01H
	DB	01H
	DB	01H
	DB	01H
	DB	00H
	DB	00H
	DB	01H
	DB	00H
	DB	00H
	DB	00H
	DB	00H
	DB	00H
	DB	00H
	DB	00H
	DB	00H
	DB	00H
	DB	01H
	DB	01H
	DB	00H
	DB	00H
	DB	00H
	DB	00H
	DB	00H
	DB	01H
	DB	01H
	DB	00H
	DB	00H
	DB	00H
	DB	00H
	DB	00H
	DB	00H
	DB	00H
	DB	00H
	DB	00H
	DB	00H
	DB	00H
	DB	00H
	DB	01H
	DB	01H
	DB	00H
	DB	01H
	DB	01H
	DB	00H
	DB	00H
	DB	00H
	DB	00H
	DB	00H
	DB	00H
	DB	00H
	DB	00H
	DB	00H
	DB	00H
	DB	00H
	DB	00H
	DB	00H
	DB	00H
	DB	00H
	DB	01H
	DB	00H
	DB	01H
	DB	00H
	DB	00H
	DB	00H
	DB	00H
	DB	00H
	DB	00H
	DB	00H
	DB	00H
	DB	00H
	DB	00H
	DB	00H
	DB	00H
	DB	00H
	DB	00H
	DB	00H
	DB	00H
	DB	01H
	DB	00H
	DB	01H
	DB	00H
	DB	00H
	DB	00H
	DB	00H
	DB	00H
	DB	00H
	DB	00H
	DB	00H
	DB	00H
	DB	00H
	DB	00H
	DB	00H
	DB	00H
	DB	00H
	DB	00H
	DB	00H
	DB	01H
	DB	00H
	DB	01H
	DB	00H
	DB	00H
	DB	00H
	DB	00H
	DB	00H
	DB	00H
	DB	00H
	DB	00H
	DB	00H
	DB	00H
	DB	00H
	DB	00H
	DB	00H
	DB	00H
	DB	00H
	DB	00H
	DB	01H
	DB	00H
	DB	01H
	DB	00H
	DB	00H
	DB	00H
	DB	00H
	DB	00H
	DB	00H
	DB	00H
	DB	00H
	DB	00H
	DB	00H
	DB	00H
	DB	00H
	DB	00H
	DB	00H
	DB	00H
	DB	00H
	DB	01H
	DB	00H
	DB	01H
	DB	00H
	DB	00H
	DB	00H
	DB	00H
	DB	00H
	DB	00H
	DB	00H
	DB	00H
	DB	00H
	DB	00H
	DB	00H
	DB	00H
	DB	00H
	DB	00H
	DB	00H
	DB	00H
	DB	01H
	DB	00H
	DB	01H
	DB	00H
	DB	00H
	DB	00H
	DB	00H
	DB	00H
	DB	00H
	DB	00H
	DB	00H
	DB	00H
	DB	00H
	DB	00H
	DB	00H
	DB	00H
	DB	00H
	DB	00H
	DB	00H
	DB	01H
	DB	00H
	DB	01H
	DB	00H
	DB	00H
	DB	00H
	DB	00H
	DB	00H
	DB	00H
	DB	00H
	DB	00H
	DB	00H
	DB	00H
	DB	00H
	DB	00H
	DB	00H
	DB	00H
	DB	00H
	DB	00H
	DB	01H
	DB	00H
	DB	01H
	DB	00H
	DB	00H
	DB	00H
	DB	00H
	DB	00H
	DB	00H
	DB	00H
	DB	00H
	DB	00H
	DB	00H
	DB	00H
	DB	00H
	DB	00H
	DB	00H
	DB	00H
	DB	00H
	DB	01H
	DB	00H
	DB	01H
	DB	00H
	DB	00H
	DB	00H
	DB	00H
	DB	00H
	DB	00H
	DB	00H
	DB	00H
	DB	00H
	DB	00H
	DB	00H
	DB	00H
	DB	00H
	DB	00H
	DB	00H
	DB	00H
	DB	01H
	DB	00H
	DB	01H
	DB	00H
	DB	00H
	DB	00H
	DB	00H
	DB	00H
	DB	00H
	DB	00H
	DB	00H
	DB	00H
	DB	00H
	DB	00H
	DB	00H
	DB	00H
	DB	00H
	DB	00H
	DB	00H
	DB	01H
	DB	00H
	DB	01H
	DB	00H
	DB	00H
	DB	00H
	DB	00H
	DB	00H
	DB	00H
	DB	00H
	DB	00H
	DB	00H
	DB	00H
	DB	00H
	DB	00H
	DB	00H
	DB	00H
	DB	01H
	DB	01H
	DB	01H
	DB	00H
	DB	01H
	DB	00H
	DB	00H
	DB	00H
	DB	00H
	DB	00H
	DB	00H
	DB	00H
	DB	00H
	DB	00H
	DB	00H
	DB	00H
	DB	00H
	DB	00H
	DB	00H
	DB	01H
	DB	00H
	DB	01H
	DB	00H
	DB	01H
	DB	00H
	DB	00H
	DB	00H
	DB	00H
	DB	00H
	DB	00H
	DB	00H
	DB	00H
	DB	00H
	DB	00H
	DB	00H
	DB	00H
	DB	00H
	DB	00H
	DB	01H
	DB	00H
	DB	01H
	DB	00H
	DB	01H
	DB	00H
	DB	00H
	DB	00H
	DB	00H
	DB	00H
	DB	00H
	DB	00H
	DB	00H
	DB	00H
	DB	00H
	DB	00H
	DB	00H
	DB	00H
	DB	00H
	DB	01H
	DB	00H
	DB	01H
	DB	00H
	DB	01H
	DB	00H
	DB	00H
	DB	00H
	DB	00H
	DB	00H
	DB	00H
	DB	00H
	DB	00H
	DB	00H
	DB	00H
	DB	00H
	DB	00H
	DB	00H
	DB	00H
	DB	01H
	DB	00H
	DB	00H
	DB	00H
	DB	01H
	DB	00H
	DB	00H
	DB	00H
	DB	00H
	DB	00H
	DB	00H
	DB	00H
	DB	00H
	DB	00H
	DB	00H
	DB	00H
	DB	00H
	DB	00H
	DB	00H
	DB	01H
	DB	00H
	DB	01H
	DB	01H
	DB	01H
	DB	00H
	DB	00H
	DB	00H
	DB	00H
	DB	00H
	DB	00H
	DB	00H
	DB	00H
	DB	00H
	DB	00H
	DB	00H
	DB	00H
	DB	00H
	DB	00H
	DB	01H
	DB	00H
	DB	01H
	DB	00H
	DB	00H
	DB	00H
	DB	00H
	DB	00H
	DB	00H
	DB	00H
	DB	00H
	DB	00H
	DB	00H
	DB	00H
	DB	00H
	DB	00H
	DB	00H
	DB	00H
	DB	00H
	DB	01H
	DB	00H
	DB	01H
	DB	00H
	DB	00H
	DB	00H
	DB	00H
	DB	00H
	DB	00H
	DB	00H
	DB	00H
	DB	00H
	DB	00H
	DB	00H
	DB	00H
	DB	00H
	DB	00H
	DB	00H
	DB	00H
	DB	01H
	DB	01H
	DB	01H
	DB	00H
	DB	00H
	DB	00H
	DB	00H
	DB	00H
	DB	00H
	DB	00H
	DB	00H
	DB	00H
	DB	00H
	ORG $+7
?small_tsd_ase_aircraft_datum@@3PADA DB 07H		; small_tsd_ase_aircraft_datum
	DB	0fH
	DB	0fdH
	DB	0fdH
	DB	00H
	DB	00H
	DB	01H
	DB	01H
	DB	01H
	DB	00H
	DB	00H
	DB	00H
	DB	01H
	DB	00H
	DB	00H
	DB	00H
	DB	01H
	DB	00H
	DB	01H
	DB	00H
	DB	00H
	DB	00H
	DB	00H
	DB	00H
	DB	01H
	DB	01H
	DB	00H
	DB	00H
	DB	01H
	DB	00H
	DB	00H
	DB	01H
	DB	01H
	DB	00H
	DB	00H
	DB	00H
	DB	00H
	DB	00H
	DB	01H
	DB	00H
	DB	01H
	DB	00H
	DB	00H
	DB	00H
	DB	01H
	DB	00H
	DB	00H
	DB	00H
	DB	01H
	DB	01H
	DB	01H
	DB	00H
	DB	00H
	DB	00H
	DB	00H
	DB	00H
	DB	01H
	DB	00H
	DB	00H
	DB	00H
	DB	00H
	DB	00H
	DB	00H
	DB	01H
	DB	00H
	DB	00H
	DB	00H
	DB	00H
	DB	00H
	DB	00H
	DB	01H
	DB	00H
	DB	00H
	DB	00H
	DB	00H
	DB	00H
	DB	00H
	DB	01H
	DB	00H
	DB	00H
	DB	00H
	DB	00H
	DB	00H
	DB	00H
	DB	01H
	DB	00H
	DB	00H
	DB	00H
	DB	00H
	DB	00H
	DB	01H
	DB	01H
	DB	00H
	DB	00H
	DB	00H
	DB	00H
	DB	00H
	DB	01H
	DB	01H
	DB	00H
	DB	00H
	DB	00H
	DB	00H
	DB	00H
	DB	01H
	DB	00H
	DB	00H
	DB	00H
	DB	00H
	ORG $+3
?small_tsd_ase_aircraft_datum_mask@@3PADA DB 09H	; small_tsd_ase_aircraft_datum_mask
	DB	011H
	DB	0fcH
	DB	0fcH
	DB	00H
	DB	00H
	DB	00H
	DB	01H
	DB	01H
	DB	01H
	DB	00H
	DB	00H
	DB	00H
	DB	00H
	DB	00H
	DB	01H
	DB	00H
	DB	00H
	DB	00H
	DB	01H
	DB	00H
	DB	00H
	DB	00H
	DB	01H
	DB	00H
	DB	01H
	DB	01H
	DB	01H
	DB	00H
	DB	01H
	DB	00H
	DB	01H
	DB	00H
	DB	01H
	DB	00H
	DB	01H
	DB	00H
	DB	01H
	DB	00H
	DB	01H
	DB	01H
	DB	00H
	DB	01H
	DB	01H
	DB	00H
	DB	01H
	DB	01H
	DB	00H
	DB	01H
	DB	01H
	DB	00H
	DB	01H
	DB	00H
	DB	01H
	DB	00H
	DB	01H
	DB	00H
	DB	01H
	DB	00H
	DB	01H
	DB	00H
	DB	01H
	DB	01H
	DB	01H
	DB	00H
	DB	01H
	DB	00H
	DB	00H
	DB	00H
	DB	01H
	DB	00H
	DB	00H
	DB	00H
	DB	01H
	DB	00H
	DB	00H
	DB	00H
	DB	00H
	DB	00H
	DB	01H
	DB	00H
	DB	01H
	DB	00H
	DB	00H
	DB	00H
	DB	00H
	DB	00H
	DB	00H
	DB	01H
	DB	00H
	DB	01H
	DB	00H
	DB	00H
	DB	00H
	DB	00H
	DB	00H
	DB	00H
	DB	01H
	DB	00H
	DB	01H
	DB	00H
	DB	00H
	DB	00H
	DB	00H
	DB	00H
	DB	00H
	DB	01H
	DB	00H
	DB	01H
	DB	00H
	DB	00H
	DB	00H
	DB	00H
	DB	00H
	DB	01H
	DB	01H
	DB	00H
	DB	01H
	DB	00H
	DB	00H
	DB	00H
	DB	00H
	DB	00H
	DB	01H
	DB	00H
	DB	00H
	DB	01H
	DB	00H
	DB	00H
	DB	00H
	DB	00H
	DB	00H
	DB	01H
	DB	00H
	DB	00H
	DB	01H
	DB	00H
	DB	00H
	DB	00H
	DB	00H
	DB	00H
	DB	01H
	DB	00H
	DB	01H
	DB	01H
	DB	00H
	DB	00H
	DB	00H
	DB	00H
	DB	00H
	DB	01H
	DB	01H
	DB	01H
	DB	00H
	DB	00H
	DB	00H
	DB	00H
	ORG $+3
?large_tsd_waypoint_marker@@3PADA DB 0cH		; large_tsd_waypoint_marker
	DB	0dH
	DB	0fbH
	DB	0faH
	DB	00H
	DB	00H
	DB	00H
	DB	01H
	DB	01H
	DB	01H
	DB	01H
	DB	01H
	DB	01H
	DB	00H
	DB	00H
	DB	00H
	DB	00H
	DB	00H
	DB	01H
	DB	01H
	DB	01H
	DB	01H
	DB	01H
	DB	01H
	DB	01H
	DB	01H
	DB	00H
	DB	00H
	DB	00H
	DB	01H
	DB	01H
	DB	01H
	DB	01H
	DB	01H
	DB	01H
	DB	01H
	DB	01H
	DB	01H
	DB	01H
	DB	00H
	DB	01H
	DB	01H
	DB	01H
	DB	01H
	DB	01H
	DB	01H
	DB	01H
	DB	01H
	DB	01H
	DB	01H
	DB	01H
	DB	01H
	DB	01H
	DB	01H
	DB	01H
	DB	01H
	DB	01H
	DB	01H
	DB	01H
	DB	01H
	DB	01H
	DB	01H
	DB	01H
	DB	01H
	DB	01H
	DB	01H
	DB	01H
	DB	01H
	DB	01H
	DB	01H
	DB	01H
	DB	01H
	DB	01H
	DB	01H
	DB	01H
	DB	01H
	DB	01H
	DB	01H
	DB	01H
	DB	01H
	DB	01H
	DB	01H
	DB	01H
	DB	01H
	DB	01H
	DB	01H
	DB	01H
	DB	01H
	DB	01H
	DB	01H
	DB	01H
	DB	01H
	DB	01H
	DB	01H
	DB	01H
	DB	01H
	DB	01H
	DB	01H
	DB	01H
	DB	01H
	DB	01H
	DB	01H
	DB	01H
	DB	01H
	DB	01H
	DB	01H
	DB	01H
	DB	01H
	DB	01H
	DB	01H
	DB	01H
	DB	01H
	DB	01H
	DB	01H
	DB	01H
	DB	01H
	DB	01H
	DB	01H
	DB	01H
	DB	01H
	DB	01H
	DB	01H
	DB	01H
	DB	01H
	DB	00H
	DB	01H
	DB	01H
	DB	01H
	DB	01H
	DB	01H
	DB	01H
	DB	01H
	DB	01H
	DB	01H
	DB	01H
	DB	00H
	DB	00H
	DB	00H
	DB	01H
	DB	01H
	DB	01H
	DB	01H
	DB	01H
	DB	01H
	DB	01H
	DB	01H
	DB	00H
	DB	00H
	DB	00H
	DB	00H
	DB	00H
	DB	01H
	DB	01H
	DB	01H
	DB	01H
	DB	01H
	DB	01H
	DB	00H
	DB	00H
	DB	00H
?small_tsd_waypoint_marker@@3PADA DB 09H		; small_tsd_waypoint_marker
	DB	09H
	DB	0fcH
	DB	0fcH
	DB	00H
	DB	00H
	DB	01H
	DB	01H
	DB	01H
	DB	01H
	DB	01H
	DB	00H
	DB	00H
	DB	00H
	DB	01H
	DB	01H
	DB	01H
	DB	01H
	DB	01H
	DB	01H
	DB	01H
	DB	00H
	DB	01H
	DB	01H
	DB	01H
	DB	01H
	DB	01H
	DB	01H
	DB	01H
	DB	01H
	DB	01H
	DB	01H
	DB	01H
	DB	01H
	DB	01H
	DB	01H
	DB	01H
	DB	01H
	DB	01H
	DB	01H
	DB	01H
	DB	01H
	DB	01H
	DB	01H
	DB	01H
	DB	01H
	DB	01H
	DB	01H
	DB	01H
	DB	01H
	DB	01H
	DB	01H
	DB	01H
	DB	01H
	DB	01H
	DB	01H
	DB	01H
	DB	01H
	DB	01H
	DB	01H
	DB	01H
	DB	01H
	DB	01H
	DB	01H
	DB	01H
	DB	01H
	DB	01H
	DB	00H
	DB	01H
	DB	01H
	DB	01H
	DB	01H
	DB	01H
	DB	01H
	DB	01H
	DB	00H
	DB	00H
	DB	00H
	DB	01H
	DB	01H
	DB	01H
	DB	01H
	DB	01H
	DB	00H
	DB	00H
	ORG $+3
?large_ase_missile@@3PADA DB 0bH			; large_ase_missile
	DB	09H
	DB	0fbH
	DB	0fcH
	DB	01H
	DB	01H
	DB	00H
	DB	00H
	DB	00H
	DB	00H
	DB	00H
	DB	00H
	DB	00H
	DB	01H
	DB	01H
	DB	00H
	DB	01H
	DB	01H
	DB	00H
	DB	00H
	DB	00H
	DB	00H
	DB	00H
	DB	01H
	DB	01H
	DB	00H
	DB	00H
	DB	00H
	DB	01H
	DB	01H
	DB	00H
	DB	00H
	DB	00H
	DB	01H
	DB	01H
	DB	00H
	DB	00H
	DB	00H
	DB	00H
	DB	00H
	DB	01H
	DB	01H
	DB	00H
	DB	01H
	DB	01H
	DB	00H
	DB	00H
	DB	00H
	DB	00H
	DB	00H
	DB	00H
	DB	00H
	DB	01H
	DB	01H
	DB	01H
	DB	00H
	DB	00H
	DB	00H
	DB	00H
	DB	00H
	DB	00H
	DB	00H
	DB	01H
	DB	01H
	DB	00H
	DB	01H
	DB	01H
	DB	00H
	DB	00H
	DB	00H
	DB	00H
	DB	00H
	DB	01H
	DB	01H
	DB	00H
	DB	00H
	DB	00H
	DB	01H
	DB	01H
	DB	00H
	DB	00H
	DB	00H
	DB	01H
	DB	01H
	DB	00H
	DB	00H
	DB	00H
	DB	00H
	DB	00H
	DB	01H
	DB	01H
	DB	00H
	DB	01H
	DB	01H
	DB	00H
	DB	00H
	DB	00H
	DB	00H
	DB	00H
	DB	00H
	DB	00H
	DB	01H
	DB	01H
	ORG $+1
?large_ase_missile_mask@@3PADA DB 0dH			; large_ase_missile_mask
	DB	0bH
	DB	0faH
	DB	0fbH
	DB	01H
	DB	01H
	DB	01H
	DB	00H
	DB	00H
	DB	00H
	DB	00H
	DB	00H
	DB	00H
	DB	00H
	DB	01H
	DB	01H
	DB	01H
	DB	01H
	DB	00H
	DB	00H
	DB	01H
	DB	00H
	DB	00H
	DB	00H
	DB	00H
	DB	00H
	DB	01H
	DB	00H
	DB	00H
	DB	01H
	DB	00H
	DB	01H
	DB	00H
	DB	00H
	DB	01H
	DB	00H
	DB	00H
	DB	00H
	DB	01H
	DB	00H
	DB	00H
	DB	01H
	DB	00H
	DB	00H
	DB	00H
	DB	01H
	DB	00H
	DB	00H
	DB	01H
	DB	00H
	DB	01H
	DB	00H
	DB	00H
	DB	01H
	DB	00H
	DB	00H
	DB	00H
	DB	00H
	DB	00H
	DB	01H
	DB	00H
	DB	00H
	DB	01H
	DB	00H
	DB	00H
	DB	01H
	DB	00H
	DB	00H
	DB	00H
	DB	00H
	DB	00H
	DB	00H
	DB	00H
	DB	01H
	DB	00H
	DB	00H
	DB	00H
	DB	01H
	DB	00H
	DB	00H
	DB	00H
	DB	00H
	DB	00H
	DB	00H
	DB	00H
	DB	01H
	DB	00H
	DB	00H
	DB	01H
	DB	00H
	DB	00H
	DB	01H
	DB	00H
	DB	00H
	DB	00H
	DB	00H
	DB	00H
	DB	01H
	DB	00H
	DB	00H
	DB	01H
	DB	00H
	DB	01H
	DB	00H
	DB	00H
	DB	01H
	DB	00H
	DB	00H
	DB	00H
	DB	01H
	DB	00H
	DB	00H
	DB	01H
	DB	00H
	DB	00H
	DB	00H
	DB	01H
	DB	00H
	DB	00H
	DB	01H
	DB	00H
	DB	01H
	DB	00H
	DB	00H
	DB	01H
	DB	00H
	DB	00H
	DB	00H
	DB	00H
	DB	00H
	DB	01H
	DB	00H
	DB	00H
	DB	01H
	DB	01H
	DB	01H
	DB	01H
	DB	00H
	DB	00H
	DB	00H
	DB	00H
	DB	00H
	DB	00H
	DB	00H
	DB	01H
	DB	01H
	DB	01H
	ORG $+1
?small_ase_missile@@3PADA DB 07H			; small_ase_missile
	DB	05H
	DB	0fdH
	DB	0feH
	DB	01H
	DB	01H
	DB	00H
	DB	00H
	DB	00H
	DB	01H
	DB	01H
	DB	00H
	DB	01H
	DB	01H
	DB	00H
	DB	01H
	DB	01H
	DB	00H
	DB	00H
	DB	00H
	DB	01H
	DB	01H
	DB	01H
	DB	00H
	DB	00H
	DB	00H
	DB	01H
	DB	01H
	DB	00H
	DB	01H
	DB	01H
	DB	00H
	DB	01H
	DB	01H
	DB	00H
	DB	00H
	DB	00H
	DB	01H
	DB	01H
	ORG $+5
?small_ase_missile_mask@@3PADA DB 09H			; small_ase_missile_mask
	DB	07H
	DB	0fcH
	DB	0fdH
	DB	01H
	DB	01H
	DB	01H
	DB	00H
	DB	00H
	DB	00H
	DB	01H
	DB	01H
	DB	01H
	DB	01H
	DB	00H
	DB	00H
	DB	01H
	DB	00H
	DB	01H
	DB	00H
	DB	00H
	DB	01H
	DB	00H
	DB	01H
	DB	00H
	DB	00H
	DB	01H
	DB	00H
	DB	00H
	DB	01H
	DB	00H
	DB	00H
	DB	00H
	DB	01H
	DB	00H
	DB	00H
	DB	00H
	DB	01H
	DB	00H
	DB	00H
	DB	00H
	DB	01H
	DB	00H
	DB	00H
	DB	01H
	DB	00H
	DB	00H
	DB	01H
	DB	00H
	DB	01H
	DB	00H
	DB	00H
	DB	01H
	DB	00H
	DB	01H
	DB	00H
	DB	00H
	DB	01H
	DB	01H
	DB	01H
	DB	01H
	DB	00H
	DB	00H
	DB	00H
	DB	01H
	DB	01H
	DB	01H
	ORG $+1
?large_right_carat@@3PADA DB 05H			; large_right_carat
	DB	09H
	DB	0fcH
	DB	0fcH
	DB	01H
	DB	00H
	DB	00H
	DB	00H
	DB	00H
	DB	01H
	DB	01H
	DB	00H
	DB	00H
	DB	00H
	DB	01H
	DB	01H
	DB	01H
	DB	00H
	DB	00H
	DB	01H
	DB	01H
	DB	01H
	DB	01H
	DB	00H
	DB	01H
	DB	01H
	DB	01H
	DB	01H
	DB	01H
	DB	01H
	DB	01H
	DB	01H
	DB	01H
	DB	00H
	DB	01H
	DB	01H
	DB	01H
	DB	00H
	DB	00H
	DB	01H
	DB	01H
	DB	00H
	DB	00H
	DB	00H
	DB	01H
	DB	00H
	DB	00H
	DB	00H
	DB	00H
	ORG $+3
?large_open_right_carat@@3PADA DB 05H			; large_open_right_carat
	DB	09H
	DB	0fcH
	DB	00H
	DB	01H
	DB	00H
	DB	00H
	DB	00H
	DB	00H
	DB	01H
	DB	01H
	DB	00H
	DB	00H
	DB	00H
	DB	00H
	DB	01H
	DB	01H
	DB	00H
	DB	00H
	DB	00H
	DB	00H
	DB	01H
	DB	01H
	DB	00H
	DB	00H
	DB	00H
	DB	00H
	DB	01H
	DB	01H
	DB	00H
	DB	00H
	DB	01H
	DB	01H
	DB	00H
	DB	00H
	DB	01H
	DB	01H
	DB	00H
	DB	00H
	DB	01H
	DB	01H
	DB	00H
	DB	00H
	DB	00H
	DB	01H
	DB	00H
	DB	00H
	DB	00H
	DB	00H
	ORG $+3
?large_left_carat@@3PADA DB 05H				; large_left_carat
	DB	09H
	DB	00H
	DB	0fcH
	DB	00H
	DB	00H
	DB	00H
	DB	00H
	DB	01H
	DB	00H
	DB	00H
	DB	00H
	DB	01H
	DB	01H
	DB	00H
	DB	00H
	DB	01H
	DB	01H
	DB	01H
	DB	00H
	DB	01H
	DB	01H
	DB	01H
	DB	01H
	DB	01H
	DB	01H
	DB	01H
	DB	01H
	DB	01H
	DB	00H
	DB	01H
	DB	01H
	DB	01H
	DB	01H
	DB	00H
	DB	00H
	DB	01H
	DB	01H
	DB	01H
	DB	00H
	DB	00H
	DB	00H
	DB	01H
	DB	01H
	DB	00H
	DB	00H
	DB	00H
	DB	00H
	DB	01H
	ORG $+3
?large_open_left_carat@@3PADA DB 05H			; large_open_left_carat
	DB	09H
	DB	00H
	DB	00H
	DB	00H
	DB	00H
	DB	00H
	DB	00H
	DB	01H
	DB	00H
	DB	00H
	DB	00H
	DB	01H
	DB	01H
	DB	00H
	DB	00H
	DB	01H
	DB	01H
	DB	00H
	DB	00H
	DB	01H
	DB	01H
	DB	00H
	DB	00H
	DB	01H
	DB	01H
	DB	00H
	DB	00H
	DB	00H
	DB	00H
	DB	01H
	DB	01H
	DB	00H
	DB	00H
	DB	00H
	DB	00H
	DB	01H
	DB	01H
	DB	00H
	DB	00H
	DB	00H
	DB	00H
	DB	01H
	DB	01H
	DB	00H
	DB	00H
	DB	00H
	DB	00H
	DB	01H
	ORG $+7
?large_command_heading_carat@@3PADA DB 0bH		; large_command_heading_carat
	DB	06H
	DB	0fbH
	DB	00H
	DB	00H
	DB	00H
	DB	00H
	DB	00H
	DB	00H
	DB	01H
	DB	00H
	DB	00H
	DB	00H
	DB	00H
	DB	00H
	DB	00H
	DB	00H
	DB	00H
	DB	00H
	DB	01H
	DB	01H
	DB	01H
	DB	00H
	DB	00H
	DB	00H
	DB	00H
	DB	00H
	DB	00H
	DB	00H
	DB	01H
	DB	01H
	DB	00H
	DB	01H
	DB	01H
	DB	00H
	DB	00H
	DB	00H
	DB	00H
	DB	00H
	DB	01H
	DB	01H
	DB	00H
	DB	00H
	DB	00H
	DB	01H
	DB	01H
	DB	00H
	DB	00H
	DB	00H
	DB	01H
	DB	01H
	DB	00H
	DB	00H
	DB	00H
	DB	00H
	DB	00H
	DB	01H
	DB	01H
	DB	00H
	DB	01H
	DB	01H
	DB	00H
	DB	00H
	DB	00H
	DB	00H
	DB	00H
	DB	00H
	DB	00H
	DB	01H
	DB	01H
	ORG $+2
?small_command_heading_carat@@3PADA DB 07H		; small_command_heading_carat
	DB	04H
	DB	0fdH
	DB	00H
	DB	00H
	DB	00H
	DB	00H
	DB	01H
	DB	00H
	DB	00H
	DB	00H
	DB	00H
	DB	00H
	DB	01H
	DB	00H
	DB	01H
	DB	00H
	DB	00H
	DB	00H
	DB	01H
	DB	00H
	DB	00H
	DB	00H
	DB	01H
	DB	00H
	DB	01H
	DB	00H
	DB	00H
	DB	00H
	DB	00H
	DB	00H
	DB	01H
?flir_light_levels@@3PAY03W4DISPLAY_3D_LIGHT_LEVELS@@A DD 02H ; flir_light_levels
	DD	02H
	DD	02H
	DD	02H
	DD	02H
	DD	02H
	DD	02H
	DD	02H
	DD	01H
	DD	01H
	DD	01H
	DD	01H
	DD	00H
	DD	00H
	DD	00H
	DD	00H
	DD	01H
	DD	01H
	DD	01H
	DD	01H
?flir_noise_levels@@3PAY03W4DISPLAY_3D_NOISE_LEVELS@@A DD 01H ; flir_noise_levels
	DD	01H
	DD	01H
	DD	01H
	DD	01H
	DD	01H
	DD	01H
	DD	01H
	DD	02H
	DD	02H
	DD	02H
	DD	02H
	DD	03H
	DD	03H
	DD	03H
	DD	03H
	DD	02H
	DD	02H
	DD	02H
	DD	02H
?dtv_light_levels@@3PAY03W4DISPLAY_3D_LIGHT_LEVELS@@A DD 02H ; dtv_light_levels
	DD	02H
	DD	02H
	DD	02H
	DD	01H
	DD	02H
	DD	01H
	DD	00H
	DD	00H
	DD	01H
	DD	00H
	DD	00H
	DD	00H
	DD	00H
	DD	00H
	DD	00H
	DD	00H
	DD	01H
	DD	00H
	DD	00H
?dtv_noise_levels@@3PAY03W4DISPLAY_3D_NOISE_LEVELS@@A DD 01H ; dtv_noise_levels
	DD	01H
	DD	01H
	DD	01H
	DD	02H
	DD	01H
	DD	02H
	DD	03H
	DD	02H
	DD	01H
	DD	02H
	DD	03H
	DD	02H
	DD	01H
	DD	02H
	DD	03H
	DD	02H
	DD	01H
	DD	02H
	DD	03H
?dvo_light_levels@@3PAY03W4DISPLAY_3D_LIGHT_LEVELS@@A DD 02H ; dvo_light_levels
	DD	02H
	DD	02H
	DD	02H
	DD	00H
	DD	02H
	DD	00H
	DD	00H
	DD	00H
	DD	01H
	DD	00H
	DD	00H
	DD	00H
	DD	00H
	DD	00H
	DD	00H
	DD	00H
	DD	01H
	DD	00H
	DD	00H
?dvo_noise_levels@@3PAY03W4DISPLAY_3D_NOISE_LEVELS@@A DD 01H ; dvo_noise_levels
	DD	01H
	DD	01H
	DD	01H
	DD	02H
	DD	01H
	DD	02H
	DD	03H
	DD	02H
	DD	01H
	DD	02H
	DD	03H
	DD	02H
	DD	01H
	DD	02H
	DD	03H
	DD	02H
	DD	01H
	DD	02H
	DD	03H
_DATA	ENDS
;	COMDAT ??_C@_02DKCKIIND@?$CFs@
CONST	SEGMENT
??_C@_02DKCKIIND@?$CFs@ DB '%s', 00H			; `string'
CONST	ENDS
; Function compile flags: /Odtp /ZI
; File c:\users\nhv90\projects\eech\aphavoc\source\gunships\avionics\comanche\cm_mfd.c
;	COMDAT ?get_previous_main_mfd_mode@@YG?AW4COMANCHE_MAIN_MFD_MODES@@W41@W4COMANCHE_MAIN_MFD_LOCATIONS@@@Z
_TEXT	SEGMENT
tv76 = -72						; size = 4
_previous_mfd_mode$ = -4				; size = 4
_mfd_mode$ = 8						; size = 4
_mfd_location$ = 12					; size = 4
?get_previous_main_mfd_mode@@YG?AW4COMANCHE_MAIN_MFD_MODES@@W41@W4COMANCHE_MAIN_MFD_LOCATIONS@@@Z PROC ; get_previous_main_mfd_mode, COMDAT

; 14984: {

  00000	55		 push	 ebp
  00001	8b ec		 mov	 ebp, esp
  00003	83 ec 48	 sub	 esp, 72			; 00000048H
  00006	53		 push	 ebx
  00007	56		 push	 esi
  00008	57		 push	 edi

; 14985: 	comanche_main_mfd_modes
; 14986: 		previous_mfd_mode;
; 14987: 
; 14988: 	ASSERT (comanche_main_mfd_mode_valid (mfd_mode));

  00009	83 7d 08 00	 cmp	 DWORD PTR _mfd_mode$[ebp], 0
  0000d	7c 06		 jl	 SHORT $LN5@get_previo
  0000f	83 7d 08 0e	 cmp	 DWORD PTR _mfd_mode$[ebp], 14 ; 0000000eH
  00013	7c 18		 jl	 SHORT $LN4@get_previo
$LN5@get_previo:
  00015	a1 00 00 00 00	 mov	 eax, DWORD PTR ?__LINE__Var@?0??get_previous_main_mfd_mode@@YG?AW4COMANCHE_MAIN_MFD_MODES@@W42@W4COMANCHE_MAIN_MFD_LOCATIONS@@@Z@4JA
  0001a	83 c0 04	 add	 eax, 4
  0001d	50		 push	 eax
  0001e	68 00 00 00 00	 push	 OFFSET ??_C@_0FA@HHDNPPJG@c?3?2users?2nhv90?2projects?2eech?2ap@
  00023	68 00 00 00 00	 push	 OFFSET ??_C@_0CI@FGMPFPHJ@comanche_main_mfd_mode_valid?5?$CIm@
  00028	e8 00 00 00 00	 call	 ?process_assert@@YGXPBD0H@Z ; process_assert
$LN4@get_previo:

; 14989: 
; 14990: 	ASSERT (comanche_main_mfd_location_valid (mfd_location));

  0002d	83 7d 0c 00	 cmp	 DWORD PTR _mfd_location$[ebp], 0
  00031	7c 06		 jl	 SHORT $LN7@get_previo
  00033	83 7d 0c 04	 cmp	 DWORD PTR _mfd_location$[ebp], 4
  00037	7c 18		 jl	 SHORT $LN6@get_previo
$LN7@get_previo:
  00039	a1 00 00 00 00	 mov	 eax, DWORD PTR ?__LINE__Var@?0??get_previous_main_mfd_mode@@YG?AW4COMANCHE_MAIN_MFD_MODES@@W42@W4COMANCHE_MAIN_MFD_LOCATIONS@@@Z@4JA
  0003e	83 c0 06	 add	 eax, 6
  00041	50		 push	 eax
  00042	68 00 00 00 00	 push	 OFFSET ??_C@_0FA@HHDNPPJG@c?3?2users?2nhv90?2projects?2eech?2ap@
  00047	68 00 00 00 00	 push	 OFFSET ??_C@_0DA@GBKBAHOG@comanche_main_mfd_location_vali@
  0004c	e8 00 00 00 00	 call	 ?process_assert@@YGXPBD0H@Z ; process_assert
$LN6@get_previo:

; 14991: 
; 14992: 	switch (mfd_mode)

  00051	8b 45 08	 mov	 eax, DWORD PTR _mfd_mode$[ebp]
  00054	89 45 b8	 mov	 DWORD PTR tv76[ebp], eax
  00057	83 7d b8 0d	 cmp	 DWORD PTR tv76[ebp], 13	; 0000000dH
  0005b	77 72		 ja	 SHORT $LN2@get_previo
  0005d	8b 4d b8	 mov	 ecx, DWORD PTR tv76[ebp]
  00060	ff 24 8d 00 00
	00 00		 jmp	 DWORD PTR $LN20@get_previo[ecx*4]
$LN8@get_previo:

; 14993: 	{
; 14994: 		////////////////////////////////////////
; 14995: 		case COMANCHE_MAIN_MFD_MODE_OFF:
; 14996: 		////////////////////////////////////////
; 14997: 		{
; 14998: 			previous_mfd_mode = get_default_main_mfd_mode (mfd_location);

  00067	8b 45 0c	 mov	 eax, DWORD PTR _mfd_location$[ebp]
  0006a	50		 push	 eax
  0006b	e8 00 00 00 00	 call	 ?get_default_main_mfd_mode@@YG?AW4COMANCHE_MAIN_MFD_MODES@@W4COMANCHE_MAIN_MFD_LOCATIONS@@@Z ; get_default_main_mfd_mode
  00070	89 45 fc	 mov	 DWORD PTR _previous_mfd_mode$[ebp], eax

; 14999: 
; 15000: 			break;

  00073	eb 5a		 jmp	 SHORT $LN2@get_previo
$LN9@get_previo:

; 15001: 		}
; 15002: 		////////////////////////////////////////
; 15003: 		case COMANCHE_MAIN_MFD_MODE_DAMAGED:
; 15004: 		////////////////////////////////////////
; 15005: 		{
; 15006: 			previous_mfd_mode = COMANCHE_MAIN_MFD_MODE_DAMAGED;

  00075	c7 45 fc 01 00
	00 00		 mov	 DWORD PTR _previous_mfd_mode$[ebp], 1

; 15007: 
; 15008: 			break;

  0007c	eb 51		 jmp	 SHORT $LN2@get_previo
$LN10@get_previo:

; 15009: 		}
; 15010: 		////////////////////////////////////////
; 15011: 		case COMANCHE_MAIN_MFD_MODE_GROUND_RADAR:
; 15012: 		case COMANCHE_MAIN_MFD_MODE_AIR_RADAR:
; 15013: 		////////////////////////////////////////
; 15014: 		{
; 15015: 			previous_mfd_mode = COMANCHE_MAIN_MFD_MODE_MISSION;

  0007e	c7 45 fc 0d 00
	00 00		 mov	 DWORD PTR _previous_mfd_mode$[ebp], 13 ; 0000000dH

; 15016: 
; 15017: 			break;

  00085	eb 48		 jmp	 SHORT $LN2@get_previo
$LN11@get_previo:

; 15018: 		}
; 15019: 		////////////////////////////////////////
; 15020: 		case COMANCHE_MAIN_MFD_MODE_FLIR:
; 15021: 		case COMANCHE_MAIN_MFD_MODE_DTV:
; 15022: 		case COMANCHE_MAIN_MFD_MODE_DVO:
; 15023: 		////////////////////////////////////////
; 15024: 		{
; 15025: 			previous_mfd_mode = get_mfd_mode_for_radar();

  00087	e8 00 00 00 00	 call	 ?get_mfd_mode_for_radar@@YG?AW4COMANCHE_MAIN_MFD_MODES@@XZ ; get_mfd_mode_for_radar
  0008c	89 45 fc	 mov	 DWORD PTR _previous_mfd_mode$[ebp], eax

; 15026: 
; 15027: 			break;

  0008f	eb 3e		 jmp	 SHORT $LN2@get_previo
$LN12@get_previo:

; 15028: 		}
; 15029: 		////////////////////////////////////////
; 15030: 		case COMANCHE_MAIN_MFD_MODE_TSD:
; 15031: 		////////////////////////////////////////
; 15032: 		{
; 15033: 			previous_mfd_mode = get_main_mfd_mode_for_eo_sensor ();

  00091	e8 00 00 00 00	 call	 ?get_main_mfd_mode_for_eo_sensor@@YG?AW4COMANCHE_MAIN_MFD_MODES@@XZ ; get_main_mfd_mode_for_eo_sensor
  00096	89 45 fc	 mov	 DWORD PTR _previous_mfd_mode$[ebp], eax

; 15034: 
; 15035: 			break;

  00099	eb 34		 jmp	 SHORT $LN2@get_previo
$LN13@get_previo:

; 15036: 		}
; 15037: 		////////////////////////////////////////
; 15038: 		case COMANCHE_MAIN_MFD_MODE_ASE:
; 15039: 		////////////////////////////////////////
; 15040: 		{
; 15041: 			previous_mfd_mode = COMANCHE_MAIN_MFD_MODE_TSD;

  0009b	c7 45 fc 07 00
	00 00		 mov	 DWORD PTR _previous_mfd_mode$[ebp], 7

; 15042: 
; 15043: 			break;

  000a2	eb 2b		 jmp	 SHORT $LN2@get_previo
$LN14@get_previo:

; 15044: 		}
; 15045: 		////////////////////////////////////////
; 15046: 		case COMANCHE_MAIN_MFD_MODE_WEAPON:
; 15047: 		////////////////////////////////////////
; 15048: 		{
; 15049: 			previous_mfd_mode = COMANCHE_MAIN_MFD_MODE_ASE;

  000a4	c7 45 fc 08 00
	00 00		 mov	 DWORD PTR _previous_mfd_mode$[ebp], 8

; 15050: 
; 15051: 			break;

  000ab	eb 22		 jmp	 SHORT $LN2@get_previo
$LN15@get_previo:

; 15052: 		}
; 15053: 		////////////////////////////////////////
; 15054: 		case COMANCHE_MAIN_MFD_MODE_SYSTEM:
; 15055: 		////////////////////////////////////////
; 15056: 		{
; 15057: 			previous_mfd_mode = COMANCHE_MAIN_MFD_MODE_WEAPON;

  000ad	c7 45 fc 09 00
	00 00		 mov	 DWORD PTR _previous_mfd_mode$[ebp], 9

; 15058: 
; 15059: 			break;

  000b4	eb 19		 jmp	 SHORT $LN2@get_previo
$LN16@get_previo:

; 15060: 		}
; 15061: 		////////////////////////////////////////
; 15062: 		case COMANCHE_MAIN_MFD_MODE_ENGINE:
; 15063: 		////////////////////////////////////////
; 15064: 		{
; 15065: 			previous_mfd_mode = COMANCHE_MAIN_MFD_MODE_SYSTEM;

  000b6	c7 45 fc 0a 00
	00 00		 mov	 DWORD PTR _previous_mfd_mode$[ebp], 10 ; 0000000aH

; 15066: 
; 15067: 			break;

  000bd	eb 10		 jmp	 SHORT $LN2@get_previo
$LN17@get_previo:

; 15068: 		}
; 15069: 		////////////////////////////////////////
; 15070: 		case COMANCHE_MAIN_MFD_MODE_FLIGHT:
; 15071: 		////////////////////////////////////////
; 15072: 		{
; 15073: 			previous_mfd_mode = COMANCHE_MAIN_MFD_MODE_ENGINE;

  000bf	c7 45 fc 0b 00
	00 00		 mov	 DWORD PTR _previous_mfd_mode$[ebp], 11 ; 0000000bH

; 15074: 
; 15075: 			break;

  000c6	eb 07		 jmp	 SHORT $LN2@get_previo
$LN18@get_previo:

; 15076: 		}
; 15077: 		////////////////////////////////////////
; 15078: 		case COMANCHE_MAIN_MFD_MODE_MISSION:
; 15079: 		////////////////////////////////////////
; 15080: 		{
; 15081: 			previous_mfd_mode = COMANCHE_MAIN_MFD_MODE_FLIGHT;

  000c8	c7 45 fc 0c 00
	00 00		 mov	 DWORD PTR _previous_mfd_mode$[ebp], 12 ; 0000000cH
$LN2@get_previo:

; 15082: 
; 15083: 			break;
; 15084: 		}
; 15085: 	}
; 15086: 
; 15087: 	return (previous_mfd_mode);

  000cf	8b 45 fc	 mov	 eax, DWORD PTR _previous_mfd_mode$[ebp]

; 15088: }

  000d2	5f		 pop	 edi
  000d3	5e		 pop	 esi
  000d4	5b		 pop	 ebx
  000d5	8b e5		 mov	 esp, ebp
  000d7	5d		 pop	 ebp
  000d8	c2 08 00	 ret	 8
  000db	90		 npad	 1
$LN20@get_previo:
  000dc	00 00 00 00	 DD	 $LN8@get_previo
  000e0	00 00 00 00	 DD	 $LN9@get_previo
  000e4	00 00 00 00	 DD	 $LN10@get_previo
  000e8	00 00 00 00	 DD	 $LN10@get_previo
  000ec	00 00 00 00	 DD	 $LN11@get_previo
  000f0	00 00 00 00	 DD	 $LN11@get_previo
  000f4	00 00 00 00	 DD	 $LN11@get_previo
  000f8	00 00 00 00	 DD	 $LN12@get_previo
  000fc	00 00 00 00	 DD	 $LN13@get_previo
  00100	00 00 00 00	 DD	 $LN14@get_previo
  00104	00 00 00 00	 DD	 $LN15@get_previo
  00108	00 00 00 00	 DD	 $LN16@get_previo
  0010c	00 00 00 00	 DD	 $LN17@get_previo
  00110	00 00 00 00	 DD	 $LN18@get_previo
?get_previous_main_mfd_mode@@YG?AW4COMANCHE_MAIN_MFD_MODES@@W41@W4COMANCHE_MAIN_MFD_LOCATIONS@@@Z ENDP ; get_previous_main_mfd_mode
_TEXT	ENDS
; Function compile flags: /Odtp /ZI
; File c:\users\nhv90\projects\eech\aphavoc\source\gunships\avionics\comanche\cm_mfd.c
;	COMDAT ?get_next_main_mfd_mode@@YG?AW4COMANCHE_MAIN_MFD_MODES@@W41@W4COMANCHE_MAIN_MFD_LOCATIONS@@@Z
_TEXT	SEGMENT
tv76 = -72						; size = 4
_next_mfd_mode$ = -4					; size = 4
_mfd_mode$ = 8						; size = 4
_mfd_location$ = 12					; size = 4
?get_next_main_mfd_mode@@YG?AW4COMANCHE_MAIN_MFD_MODES@@W41@W4COMANCHE_MAIN_MFD_LOCATIONS@@@Z PROC ; get_next_main_mfd_mode, COMDAT

; 14859: {

  00000	55		 push	 ebp
  00001	8b ec		 mov	 ebp, esp
  00003	83 ec 48	 sub	 esp, 72			; 00000048H
  00006	53		 push	 ebx
  00007	56		 push	 esi
  00008	57		 push	 edi

; 14860: 	comanche_main_mfd_modes
; 14861: 		next_mfd_mode;
; 14862: 
; 14863: 	ASSERT (comanche_main_mfd_mode_valid (mfd_mode));

  00009	83 7d 08 00	 cmp	 DWORD PTR _mfd_mode$[ebp], 0
  0000d	7c 06		 jl	 SHORT $LN5@get_next_m
  0000f	83 7d 08 0e	 cmp	 DWORD PTR _mfd_mode$[ebp], 14 ; 0000000eH
  00013	7c 18		 jl	 SHORT $LN4@get_next_m
$LN5@get_next_m:
  00015	a1 00 00 00 00	 mov	 eax, DWORD PTR ?__LINE__Var@?0??get_next_main_mfd_mode@@YG?AW4COMANCHE_MAIN_MFD_MODES@@W42@W4COMANCHE_MAIN_MFD_LOCATIONS@@@Z@4JA
  0001a	83 c0 04	 add	 eax, 4
  0001d	50		 push	 eax
  0001e	68 00 00 00 00	 push	 OFFSET ??_C@_0FA@HHDNPPJG@c?3?2users?2nhv90?2projects?2eech?2ap@
  00023	68 00 00 00 00	 push	 OFFSET ??_C@_0CI@FGMPFPHJ@comanche_main_mfd_mode_valid?5?$CIm@
  00028	e8 00 00 00 00	 call	 ?process_assert@@YGXPBD0H@Z ; process_assert
$LN4@get_next_m:

; 14864: 
; 14865: 	ASSERT (comanche_main_mfd_location_valid (mfd_location));

  0002d	83 7d 0c 00	 cmp	 DWORD PTR _mfd_location$[ebp], 0
  00031	7c 06		 jl	 SHORT $LN7@get_next_m
  00033	83 7d 0c 04	 cmp	 DWORD PTR _mfd_location$[ebp], 4
  00037	7c 18		 jl	 SHORT $LN6@get_next_m
$LN7@get_next_m:
  00039	a1 00 00 00 00	 mov	 eax, DWORD PTR ?__LINE__Var@?0??get_next_main_mfd_mode@@YG?AW4COMANCHE_MAIN_MFD_MODES@@W42@W4COMANCHE_MAIN_MFD_LOCATIONS@@@Z@4JA
  0003e	83 c0 06	 add	 eax, 6
  00041	50		 push	 eax
  00042	68 00 00 00 00	 push	 OFFSET ??_C@_0FA@HHDNPPJG@c?3?2users?2nhv90?2projects?2eech?2ap@
  00047	68 00 00 00 00	 push	 OFFSET ??_C@_0DA@GBKBAHOG@comanche_main_mfd_location_vali@
  0004c	e8 00 00 00 00	 call	 ?process_assert@@YGXPBD0H@Z ; process_assert
$LN6@get_next_m:

; 14866: 
; 14867: 	switch (mfd_mode)

  00051	8b 45 08	 mov	 eax, DWORD PTR _mfd_mode$[ebp]
  00054	89 45 b8	 mov	 DWORD PTR tv76[ebp], eax
  00057	83 7d b8 0d	 cmp	 DWORD PTR tv76[ebp], 13	; 0000000dH
  0005b	0f 87 84 00 00
	00		 ja	 $LN2@get_next_m
  00061	8b 4d b8	 mov	 ecx, DWORD PTR tv76[ebp]
  00064	ff 24 8d 00 00
	00 00		 jmp	 DWORD PTR $LN22@get_next_m[ecx*4]
$LN8@get_next_m:

; 14868: 	{
; 14869: 		////////////////////////////////////////
; 14870: 		case COMANCHE_MAIN_MFD_MODE_OFF:
; 14871: 		////////////////////////////////////////
; 14872: 		{
; 14873: 			next_mfd_mode = get_default_main_mfd_mode (mfd_location);

  0006b	8b 45 0c	 mov	 eax, DWORD PTR _mfd_location$[ebp]
  0006e	50		 push	 eax
  0006f	e8 00 00 00 00	 call	 ?get_default_main_mfd_mode@@YG?AW4COMANCHE_MAIN_MFD_MODES@@W4COMANCHE_MAIN_MFD_LOCATIONS@@@Z ; get_default_main_mfd_mode
  00074	89 45 fc	 mov	 DWORD PTR _next_mfd_mode$[ebp], eax

; 14874: 
; 14875: 			break;

  00077	eb 6c		 jmp	 SHORT $LN2@get_next_m
$LN9@get_next_m:

; 14876: 		}
; 14877: 		////////////////////////////////////////
; 14878: 		case COMANCHE_MAIN_MFD_MODE_DAMAGED:
; 14879: 		////////////////////////////////////////
; 14880: 		{
; 14881: 			next_mfd_mode = COMANCHE_MAIN_MFD_MODE_DAMAGED;

  00079	c7 45 fc 01 00
	00 00		 mov	 DWORD PTR _next_mfd_mode$[ebp], 1

; 14882: 
; 14883: 			break;

  00080	eb 63		 jmp	 SHORT $LN2@get_next_m
$LN10@get_next_m:

; 14884: 		}
; 14885: 		////////////////////////////////////////
; 14886: 		case COMANCHE_MAIN_MFD_MODE_GROUND_RADAR:
; 14887: 		case COMANCHE_MAIN_MFD_MODE_AIR_RADAR:
; 14888: 		////////////////////////////////////////
; 14889: 		{
; 14890: 			next_mfd_mode = get_main_mfd_mode_for_eo_sensor ();

  00082	e8 00 00 00 00	 call	 ?get_main_mfd_mode_for_eo_sensor@@YG?AW4COMANCHE_MAIN_MFD_MODES@@XZ ; get_main_mfd_mode_for_eo_sensor
  00087	89 45 fc	 mov	 DWORD PTR _next_mfd_mode$[ebp], eax

; 14891: 
; 14892: 			break;

  0008a	eb 59		 jmp	 SHORT $LN2@get_next_m
$LN11@get_next_m:

; 14893: 		}
; 14894: 		////////////////////////////////////////
; 14895: 		case COMANCHE_MAIN_MFD_MODE_FLIR:
; 14896: 		////////////////////////////////////////
; 14897: 		{
; 14898: 			next_mfd_mode = COMANCHE_MAIN_MFD_MODE_TSD;

  0008c	c7 45 fc 07 00
	00 00		 mov	 DWORD PTR _next_mfd_mode$[ebp], 7

; 14899: 
; 14900: 			break;

  00093	eb 50		 jmp	 SHORT $LN2@get_next_m
$LN12@get_next_m:

; 14901: 		}
; 14902: 		////////////////////////////////////////
; 14903: 		case COMANCHE_MAIN_MFD_MODE_DTV:
; 14904: 		////////////////////////////////////////
; 14905: 		{
; 14906: 			next_mfd_mode = COMANCHE_MAIN_MFD_MODE_TSD;

  00095	c7 45 fc 07 00
	00 00		 mov	 DWORD PTR _next_mfd_mode$[ebp], 7

; 14907: 
; 14908: 			break;

  0009c	eb 47		 jmp	 SHORT $LN2@get_next_m
$LN13@get_next_m:

; 14909: 		}
; 14910: 		////////////////////////////////////////
; 14911: 		case COMANCHE_MAIN_MFD_MODE_DVO:
; 14912: 		////////////////////////////////////////
; 14913: 		{
; 14914: 			next_mfd_mode = COMANCHE_MAIN_MFD_MODE_TSD;

  0009e	c7 45 fc 07 00
	00 00		 mov	 DWORD PTR _next_mfd_mode$[ebp], 7

; 14915: 
; 14916: 			break;

  000a5	eb 3e		 jmp	 SHORT $LN2@get_next_m
$LN14@get_next_m:

; 14917: 		}
; 14918: 		////////////////////////////////////////
; 14919: 		case COMANCHE_MAIN_MFD_MODE_TSD:
; 14920: 		////////////////////////////////////////
; 14921: 		{
; 14922: 			next_mfd_mode = COMANCHE_MAIN_MFD_MODE_ASE;

  000a7	c7 45 fc 08 00
	00 00		 mov	 DWORD PTR _next_mfd_mode$[ebp], 8

; 14923: 
; 14924: 			break;

  000ae	eb 35		 jmp	 SHORT $LN2@get_next_m
$LN15@get_next_m:

; 14925: 		}
; 14926: 		////////////////////////////////////////
; 14927: 		case COMANCHE_MAIN_MFD_MODE_ASE:
; 14928: 		////////////////////////////////////////
; 14929: 		{
; 14930: 			next_mfd_mode = COMANCHE_MAIN_MFD_MODE_WEAPON;

  000b0	c7 45 fc 09 00
	00 00		 mov	 DWORD PTR _next_mfd_mode$[ebp], 9

; 14931: 
; 14932: 			break;

  000b7	eb 2c		 jmp	 SHORT $LN2@get_next_m
$LN16@get_next_m:

; 14933: 		}
; 14934: 		////////////////////////////////////////
; 14935: 		case COMANCHE_MAIN_MFD_MODE_WEAPON:
; 14936: 		////////////////////////////////////////
; 14937: 		{
; 14938: 			next_mfd_mode = COMANCHE_MAIN_MFD_MODE_SYSTEM;

  000b9	c7 45 fc 0a 00
	00 00		 mov	 DWORD PTR _next_mfd_mode$[ebp], 10 ; 0000000aH

; 14939: 
; 14940: 			break;

  000c0	eb 23		 jmp	 SHORT $LN2@get_next_m
$LN17@get_next_m:

; 14941: 		}
; 14942: 		////////////////////////////////////////
; 14943: 		case COMANCHE_MAIN_MFD_MODE_SYSTEM:
; 14944: 		////////////////////////////////////////
; 14945: 		{
; 14946: 			next_mfd_mode = COMANCHE_MAIN_MFD_MODE_ENGINE;

  000c2	c7 45 fc 0b 00
	00 00		 mov	 DWORD PTR _next_mfd_mode$[ebp], 11 ; 0000000bH

; 14947: 
; 14948: 			break;

  000c9	eb 1a		 jmp	 SHORT $LN2@get_next_m
$LN18@get_next_m:

; 14949: 		}
; 14950: 		////////////////////////////////////////
; 14951: 		case COMANCHE_MAIN_MFD_MODE_ENGINE:
; 14952: 		////////////////////////////////////////
; 14953: 		{
; 14954: 			next_mfd_mode = COMANCHE_MAIN_MFD_MODE_FLIGHT;

  000cb	c7 45 fc 0c 00
	00 00		 mov	 DWORD PTR _next_mfd_mode$[ebp], 12 ; 0000000cH

; 14955: 
; 14956: 			break;

  000d2	eb 11		 jmp	 SHORT $LN2@get_next_m
$LN19@get_next_m:

; 14957: 		}
; 14958: 		////////////////////////////////////////
; 14959: 		case COMANCHE_MAIN_MFD_MODE_FLIGHT:
; 14960: 		////////////////////////////////////////
; 14961: 		{
; 14962: 			next_mfd_mode = COMANCHE_MAIN_MFD_MODE_MISSION;

  000d4	c7 45 fc 0d 00
	00 00		 mov	 DWORD PTR _next_mfd_mode$[ebp], 13 ; 0000000dH

; 14963: 
; 14964: 			break;

  000db	eb 08		 jmp	 SHORT $LN2@get_next_m
$LN20@get_next_m:

; 14965: 		}
; 14966: 		////////////////////////////////////////
; 14967: 		case COMANCHE_MAIN_MFD_MODE_MISSION:
; 14968: 		////////////////////////////////////////
; 14969: 		{
; 14970: 			next_mfd_mode = get_mfd_mode_for_radar();

  000dd	e8 00 00 00 00	 call	 ?get_mfd_mode_for_radar@@YG?AW4COMANCHE_MAIN_MFD_MODES@@XZ ; get_mfd_mode_for_radar
  000e2	89 45 fc	 mov	 DWORD PTR _next_mfd_mode$[ebp], eax
$LN2@get_next_m:

; 14971: 
; 14972: 			break;
; 14973: 		}
; 14974: 	}
; 14975: 
; 14976: 	return (next_mfd_mode);

  000e5	8b 45 fc	 mov	 eax, DWORD PTR _next_mfd_mode$[ebp]

; 14977: }

  000e8	5f		 pop	 edi
  000e9	5e		 pop	 esi
  000ea	5b		 pop	 ebx
  000eb	8b e5		 mov	 esp, ebp
  000ed	5d		 pop	 ebp
  000ee	c2 08 00	 ret	 8
  000f1	0f 1f 00	 npad	 3
$LN22@get_next_m:
  000f4	00 00 00 00	 DD	 $LN8@get_next_m
  000f8	00 00 00 00	 DD	 $LN9@get_next_m
  000fc	00 00 00 00	 DD	 $LN10@get_next_m
  00100	00 00 00 00	 DD	 $LN10@get_next_m
  00104	00 00 00 00	 DD	 $LN11@get_next_m
  00108	00 00 00 00	 DD	 $LN12@get_next_m
  0010c	00 00 00 00	 DD	 $LN13@get_next_m
  00110	00 00 00 00	 DD	 $LN14@get_next_m
  00114	00 00 00 00	 DD	 $LN15@get_next_m
  00118	00 00 00 00	 DD	 $LN16@get_next_m
  0011c	00 00 00 00	 DD	 $LN17@get_next_m
  00120	00 00 00 00	 DD	 $LN18@get_next_m
  00124	00 00 00 00	 DD	 $LN19@get_next_m
  00128	00 00 00 00	 DD	 $LN20@get_next_m
?get_next_main_mfd_mode@@YG?AW4COMANCHE_MAIN_MFD_MODES@@W41@W4COMANCHE_MAIN_MFD_LOCATIONS@@@Z ENDP ; get_next_main_mfd_mode
_TEXT	ENDS
; Function compile flags: /Odtp /ZI
; File c:\users\nhv90\projects\eech\aphavoc\source\gunships\avionics\comanche\cm_mfd.c
;	COMDAT ?get_next_side_mfd_mode@@YG?AW4COMANCHE_SIDE_MFD_MODES@@W41@W4COMANCHE_SIDE_MFD_LOCATIONS@@@Z
_TEXT	SEGMENT
_next_mfd_mode$ = -4					; size = 4
_mfd_mode$ = 8						; size = 4
_mfd_location$ = 12					; size = 4
?get_next_side_mfd_mode@@YG?AW4COMANCHE_SIDE_MFD_MODES@@W41@W4COMANCHE_SIDE_MFD_LOCATIONS@@@Z PROC ; get_next_side_mfd_mode, COMDAT

; 14827: {

  00000	55		 push	 ebp
  00001	8b ec		 mov	 ebp, esp
  00003	83 ec 44	 sub	 esp, 68			; 00000044H
  00006	53		 push	 ebx
  00007	56		 push	 esi
  00008	57		 push	 edi

; 14828: 	comanche_side_mfd_modes
; 14829: 		next_mfd_mode;
; 14830: 
; 14831: 	ASSERT (comanche_side_mfd_mode_valid (mfd_mode));

  00009	83 7d 08 00	 cmp	 DWORD PTR _mfd_mode$[ebp], 0
  0000d	7c 06		 jl	 SHORT $LN3@get_next_s
  0000f	83 7d 08 06	 cmp	 DWORD PTR _mfd_mode$[ebp], 6
  00013	7c 18		 jl	 SHORT $LN2@get_next_s
$LN3@get_next_s:
  00015	a1 00 00 00 00	 mov	 eax, DWORD PTR ?__LINE__Var@?0??get_next_side_mfd_mode@@YG?AW4COMANCHE_SIDE_MFD_MODES@@W42@W4COMANCHE_SIDE_MFD_LOCATIONS@@@Z@4JA
  0001a	83 c0 04	 add	 eax, 4
  0001d	50		 push	 eax
  0001e	68 00 00 00 00	 push	 OFFSET ??_C@_0FA@HHDNPPJG@c?3?2users?2nhv90?2projects?2eech?2ap@
  00023	68 00 00 00 00	 push	 OFFSET ??_C@_0CI@EEGMGJJO@comanche_side_mfd_mode_valid?5?$CIm@
  00028	e8 00 00 00 00	 call	 ?process_assert@@YGXPBD0H@Z ; process_assert
$LN2@get_next_s:

; 14832: 	ASSERT (comanche_side_mfd_location_valid (mfd_location));

  0002d	83 7d 0c 00	 cmp	 DWORD PTR _mfd_location$[ebp], 0
  00031	7c 06		 jl	 SHORT $LN5@get_next_s
  00033	83 7d 0c 04	 cmp	 DWORD PTR _mfd_location$[ebp], 4
  00037	7c 18		 jl	 SHORT $LN4@get_next_s
$LN5@get_next_s:
  00039	a1 00 00 00 00	 mov	 eax, DWORD PTR ?__LINE__Var@?0??get_next_side_mfd_mode@@YG?AW4COMANCHE_SIDE_MFD_MODES@@W42@W4COMANCHE_SIDE_MFD_LOCATIONS@@@Z@4JA
  0003e	83 c0 05	 add	 eax, 5
  00041	50		 push	 eax
  00042	68 00 00 00 00	 push	 OFFSET ??_C@_0FA@HHDNPPJG@c?3?2users?2nhv90?2projects?2eech?2ap@
  00047	68 00 00 00 00	 push	 OFFSET ??_C@_0DA@KGKPBMFE@comanche_side_mfd_location_vali@
  0004c	e8 00 00 00 00	 call	 ?process_assert@@YGXPBD0H@Z ; process_assert
$LN4@get_next_s:

; 14833: 
; 14834: 	next_mfd_mode = mfd_mode = (comanche_side_mfd_modes) ((int) mfd_mode + 1);

  00051	8b 45 08	 mov	 eax, DWORD PTR _mfd_mode$[ebp]
  00054	83 c0 01	 add	 eax, 1
  00057	89 45 08	 mov	 DWORD PTR _mfd_mode$[ebp], eax
  0005a	8b 4d 08	 mov	 ecx, DWORD PTR _mfd_mode$[ebp]
  0005d	89 4d fc	 mov	 DWORD PTR _next_mfd_mode$[ebp], ecx

; 14835: 
; 14836: 	if (get_side_mfd_damage(mfd_location))

  00060	8b 45 0c	 mov	 eax, DWORD PTR _mfd_location$[ebp]
  00063	50		 push	 eax
  00064	e8 00 00 00 00	 call	 ?get_side_mfd_damage@@YGHW4COMANCHE_SIDE_MFD_LOCATIONS@@@Z ; get_side_mfd_damage
  00069	85 c0		 test	 eax, eax
  0006b	74 18		 je	 SHORT $LN6@get_next_s

; 14837: 	{
; 14838: 		if (mfd_mode == COMANCHE_SIDE_MFD_MODE_DAMAGED)

  0006d	83 7d 08 01	 cmp	 DWORD PTR _mfd_mode$[ebp], 1
  00071	75 09		 jne	 SHORT $LN8@get_next_s

; 14839: 			next_mfd_mode = COMANCHE_SIDE_MFD_MODE_OFF;

  00073	c7 45 fc 00 00
	00 00		 mov	 DWORD PTR _next_mfd_mode$[ebp], 0

; 14840: 		else

  0007a	eb 07		 jmp	 SHORT $LN9@get_next_s
$LN8@get_next_s:

; 14841: 			next_mfd_mode = COMANCHE_SIDE_MFD_MODE_DAMAGED;

  0007c	c7 45 fc 01 00
	00 00		 mov	 DWORD PTR _next_mfd_mode$[ebp], 1
$LN9@get_next_s:

; 14842: 	}
; 14843: 	else

  00083	eb 1e		 jmp	 SHORT $LN7@get_next_s
$LN6@get_next_s:

; 14844: 	{
; 14845: 		if (next_mfd_mode == NUM_COMANCHE_SIDE_MFD_MODES)

  00085	83 7d fc 06	 cmp	 DWORD PTR _next_mfd_mode$[ebp], 6
  00089	75 09		 jne	 SHORT $LN10@get_next_s

; 14846: 			next_mfd_mode = COMANCHE_SIDE_MFD_MODE_OFF;

  0008b	c7 45 fc 00 00
	00 00		 mov	 DWORD PTR _next_mfd_mode$[ebp], 0
  00092	eb 0f		 jmp	 SHORT $LN7@get_next_s
$LN10@get_next_s:

; 14847: 		else if (next_mfd_mode == COMANCHE_SIDE_MFD_MODE_DAMAGED)

  00094	83 7d fc 01	 cmp	 DWORD PTR _next_mfd_mode$[ebp], 1
  00098	75 09		 jne	 SHORT $LN7@get_next_s

; 14848: 			next_mfd_mode = (comanche_side_mfd_modes) ((int) next_mfd_mode + 1);

  0009a	8b 45 fc	 mov	 eax, DWORD PTR _next_mfd_mode$[ebp]
  0009d	83 c0 01	 add	 eax, 1
  000a0	89 45 fc	 mov	 DWORD PTR _next_mfd_mode$[ebp], eax
$LN7@get_next_s:

; 14849: 	}
; 14850: 
; 14851: 	return next_mfd_mode;

  000a3	8b 45 fc	 mov	 eax, DWORD PTR _next_mfd_mode$[ebp]

; 14852: }

  000a6	5f		 pop	 edi
  000a7	5e		 pop	 esi
  000a8	5b		 pop	 ebx
  000a9	8b e5		 mov	 esp, ebp
  000ab	5d		 pop	 ebp
  000ac	c2 08 00	 ret	 8
?get_next_side_mfd_mode@@YG?AW4COMANCHE_SIDE_MFD_MODES@@W41@W4COMANCHE_SIDE_MFD_LOCATIONS@@@Z ENDP ; get_next_side_mfd_mode
_TEXT	ENDS
; Function compile flags: /Odtp /ZI
; File c:\users\nhv90\projects\eech\aphavoc\source\gunships\avionics\comanche\cm_mfd.c
;	COMDAT ?get_side_mfd_damage@@YGHW4COMANCHE_SIDE_MFD_LOCATIONS@@@Z
_TEXT	SEGMENT
tv70 = -72						; size = 4
_damage$ = -4						; size = 4
_mfd_location$ = 8					; size = 4
?get_side_mfd_damage@@YGHW4COMANCHE_SIDE_MFD_LOCATIONS@@@Z PROC ; get_side_mfd_damage, COMDAT

; 14685: {

  00000	55		 push	 ebp
  00001	8b ec		 mov	 ebp, esp
  00003	83 ec 48	 sub	 esp, 72			; 00000048H
  00006	53		 push	 ebx
  00007	56		 push	 esi
  00008	57		 push	 edi

; 14686: 	int
; 14687: 		damage;
; 14688: 
; 14689: 	ASSERT (comanche_side_mfd_location_valid (mfd_location));

  00009	83 7d 08 00	 cmp	 DWORD PTR _mfd_location$[ebp], 0
  0000d	7c 06		 jl	 SHORT $LN5@get_side_m
  0000f	83 7d 08 04	 cmp	 DWORD PTR _mfd_location$[ebp], 4
  00013	7c 18		 jl	 SHORT $LN4@get_side_m
$LN5@get_side_m:
  00015	a1 00 00 00 00	 mov	 eax, DWORD PTR ?__LINE__Var@?0??get_side_mfd_damage@@YGHW4COMANCHE_SIDE_MFD_LOCATIONS@@@Z@4JA
  0001a	83 c0 04	 add	 eax, 4
  0001d	50		 push	 eax
  0001e	68 00 00 00 00	 push	 OFFSET ??_C@_0FA@HHDNPPJG@c?3?2users?2nhv90?2projects?2eech?2ap@
  00023	68 00 00 00 00	 push	 OFFSET ??_C@_0DA@KGKPBMFE@comanche_side_mfd_location_vali@
  00028	e8 00 00 00 00	 call	 ?process_assert@@YGXPBD0H@Z ; process_assert
$LN4@get_side_m:

; 14690: 
; 14691: 	switch (mfd_location)

  0002d	8b 45 08	 mov	 eax, DWORD PTR _mfd_location$[ebp]
  00030	89 45 b8	 mov	 DWORD PTR tv70[ebp], eax
  00033	83 7d b8 03	 cmp	 DWORD PTR tv70[ebp], 3
  00037	77 48		 ja	 SHORT $LN2@get_side_m
  00039	8b 4d b8	 mov	 ecx, DWORD PTR tv70[ebp]
  0003c	ff 24 8d 00 00
	00 00		 jmp	 DWORD PTR $LN11@get_side_m[ecx*4]
$LN6@get_side_m:

; 14692: 	{
; 14693: 		////////////////////////////////////////
; 14694: 		case COMANCHE_SIDE_MFD_LOCATION_PILOT_LHS:
; 14695: 		////////////////////////////////////////
; 14696: 		{
; 14697: 			damage = comanche_damage.pilot_lh_side_mfd;

  00043	a1 00 00 00 00	 mov	 eax, DWORD PTR ?comanche_damage@@3TCOMANCHE_DAMAGE_FLAGS@@A ; comanche_damage
  00048	c1 e8 0e	 shr	 eax, 14			; 0000000eH
  0004b	83 e0 01	 and	 eax, 1
  0004e	89 45 fc	 mov	 DWORD PTR _damage$[ebp], eax

; 14698: 
; 14699: 			break;

  00051	eb 2e		 jmp	 SHORT $LN2@get_side_m
$LN7@get_side_m:

; 14700: 		}
; 14701: 		////////////////////////////////////////
; 14702: 		case COMANCHE_SIDE_MFD_LOCATION_PILOT_RHS:
; 14703: 		////////////////////////////////////////
; 14704: 		{
; 14705: 			damage = comanche_damage.pilot_rh_side_mfd;

  00053	a1 00 00 00 00	 mov	 eax, DWORD PTR ?comanche_damage@@3TCOMANCHE_DAMAGE_FLAGS@@A ; comanche_damage
  00058	c1 e8 0f	 shr	 eax, 15			; 0000000fH
  0005b	83 e0 01	 and	 eax, 1
  0005e	89 45 fc	 mov	 DWORD PTR _damage$[ebp], eax

; 14706: 
; 14707: 			break;

  00061	eb 1e		 jmp	 SHORT $LN2@get_side_m
$LN8@get_side_m:

; 14708: 		}
; 14709: 		////////////////////////////////////////
; 14710: 		case COMANCHE_SIDE_MFD_LOCATION_CO_PILOT_LHS:
; 14711: 		////////////////////////////////////////
; 14712: 		{
; 14713: 			damage = comanche_damage.co_pilot_lh_side_mfd;

  00063	a1 00 00 00 00	 mov	 eax, DWORD PTR ?comanche_damage@@3TCOMANCHE_DAMAGE_FLAGS@@A ; comanche_damage
  00068	c1 e8 12	 shr	 eax, 18			; 00000012H
  0006b	83 e0 01	 and	 eax, 1
  0006e	89 45 fc	 mov	 DWORD PTR _damage$[ebp], eax

; 14714: 
; 14715: 			break;

  00071	eb 0e		 jmp	 SHORT $LN2@get_side_m
$LN9@get_side_m:

; 14716: 		}
; 14717: 		////////////////////////////////////////
; 14718: 		case COMANCHE_SIDE_MFD_LOCATION_CO_PILOT_RHS:
; 14719: 		////////////////////////////////////////
; 14720: 		{
; 14721: 			damage = comanche_damage.co_pilot_rh_side_mfd;

  00073	a1 00 00 00 00	 mov	 eax, DWORD PTR ?comanche_damage@@3TCOMANCHE_DAMAGE_FLAGS@@A ; comanche_damage
  00078	c1 e8 13	 shr	 eax, 19			; 00000013H
  0007b	83 e0 01	 and	 eax, 1
  0007e	89 45 fc	 mov	 DWORD PTR _damage$[ebp], eax
$LN2@get_side_m:

; 14722: 
; 14723: 			break;
; 14724: 		}
; 14725: 	}
; 14726: 
; 14727: 	return (damage);

  00081	8b 45 fc	 mov	 eax, DWORD PTR _damage$[ebp]

; 14728: }

  00084	5f		 pop	 edi
  00085	5e		 pop	 esi
  00086	5b		 pop	 ebx
  00087	8b e5		 mov	 esp, ebp
  00089	5d		 pop	 ebp
  0008a	c2 04 00	 ret	 4
  0008d	0f 1f 00	 npad	 3
$LN11@get_side_m:
  00090	00 00 00 00	 DD	 $LN6@get_side_m
  00094	00 00 00 00	 DD	 $LN7@get_side_m
  00098	00 00 00 00	 DD	 $LN8@get_side_m
  0009c	00 00 00 00	 DD	 $LN9@get_side_m
?get_side_mfd_damage@@YGHW4COMANCHE_SIDE_MFD_LOCATIONS@@@Z ENDP ; get_side_mfd_damage
_TEXT	ENDS
; Function compile flags: /Odtp /ZI
; File c:\users\nhv90\projects\eech\aphavoc\source\gunships\avionics\comanche\cm_mfd.c
;	COMDAT ?get_main_mfd_damage@@YGHW4COMANCHE_MAIN_MFD_LOCATIONS@@@Z
_TEXT	SEGMENT
tv70 = -72						; size = 4
_damage$ = -4						; size = 4
_mfd_location$ = 8					; size = 4
?get_main_mfd_damage@@YGHW4COMANCHE_MAIN_MFD_LOCATIONS@@@Z PROC ; get_main_mfd_damage, COMDAT

; 14635: {

  00000	55		 push	 ebp
  00001	8b ec		 mov	 ebp, esp
  00003	83 ec 48	 sub	 esp, 72			; 00000048H
  00006	53		 push	 ebx
  00007	56		 push	 esi
  00008	57		 push	 edi

; 14636: 	int
; 14637: 		damage;
; 14638: 
; 14639: 	ASSERT (comanche_main_mfd_location_valid (mfd_location));

  00009	83 7d 08 00	 cmp	 DWORD PTR _mfd_location$[ebp], 0
  0000d	7c 06		 jl	 SHORT $LN5@get_main_m
  0000f	83 7d 08 04	 cmp	 DWORD PTR _mfd_location$[ebp], 4
  00013	7c 18		 jl	 SHORT $LN4@get_main_m
$LN5@get_main_m:
  00015	a1 00 00 00 00	 mov	 eax, DWORD PTR ?__LINE__Var@?0??get_main_mfd_damage@@YGHW4COMANCHE_MAIN_MFD_LOCATIONS@@@Z@4JA
  0001a	83 c0 04	 add	 eax, 4
  0001d	50		 push	 eax
  0001e	68 00 00 00 00	 push	 OFFSET ??_C@_0FA@HHDNPPJG@c?3?2users?2nhv90?2projects?2eech?2ap@
  00023	68 00 00 00 00	 push	 OFFSET ??_C@_0DA@GBKBAHOG@comanche_main_mfd_location_vali@
  00028	e8 00 00 00 00	 call	 ?process_assert@@YGXPBD0H@Z ; process_assert
$LN4@get_main_m:

; 14640: 
; 14641: 	switch (mfd_location)

  0002d	8b 45 08	 mov	 eax, DWORD PTR _mfd_location$[ebp]
  00030	89 45 b8	 mov	 DWORD PTR tv70[ebp], eax
  00033	83 7d b8 03	 cmp	 DWORD PTR tv70[ebp], 3
  00037	77 48		 ja	 SHORT $LN2@get_main_m
  00039	8b 4d b8	 mov	 ecx, DWORD PTR tv70[ebp]
  0003c	ff 24 8d 00 00
	00 00		 jmp	 DWORD PTR $LN11@get_main_m[ecx*4]
$LN6@get_main_m:

; 14642: 	{
; 14643: 		////////////////////////////////////////
; 14644: 		case COMANCHE_MAIN_MFD_LOCATION_PILOT_LHS:
; 14645: 		////////////////////////////////////////
; 14646: 		{
; 14647: 			damage = comanche_damage.pilot_lh_main_mfd;

  00043	a1 00 00 00 00	 mov	 eax, DWORD PTR ?comanche_damage@@3TCOMANCHE_DAMAGE_FLAGS@@A ; comanche_damage
  00048	c1 e8 0c	 shr	 eax, 12			; 0000000cH
  0004b	83 e0 01	 and	 eax, 1
  0004e	89 45 fc	 mov	 DWORD PTR _damage$[ebp], eax

; 14648: 
; 14649: 			break;

  00051	eb 2e		 jmp	 SHORT $LN2@get_main_m
$LN7@get_main_m:

; 14650: 		}
; 14651: 		////////////////////////////////////////
; 14652: 		case COMANCHE_MAIN_MFD_LOCATION_PILOT_RHS:
; 14653: 		////////////////////////////////////////
; 14654: 		{
; 14655: 			damage = comanche_damage.pilot_rh_main_mfd;

  00053	a1 00 00 00 00	 mov	 eax, DWORD PTR ?comanche_damage@@3TCOMANCHE_DAMAGE_FLAGS@@A ; comanche_damage
  00058	c1 e8 0d	 shr	 eax, 13			; 0000000dH
  0005b	83 e0 01	 and	 eax, 1
  0005e	89 45 fc	 mov	 DWORD PTR _damage$[ebp], eax

; 14656: 
; 14657: 			break;

  00061	eb 1e		 jmp	 SHORT $LN2@get_main_m
$LN8@get_main_m:

; 14658: 		}
; 14659: 		////////////////////////////////////////
; 14660: 		case COMANCHE_MAIN_MFD_LOCATION_CO_PILOT_LHS:
; 14661: 		////////////////////////////////////////
; 14662: 		{
; 14663: 			damage = comanche_damage.co_pilot_lh_main_mfd;

  00063	a1 00 00 00 00	 mov	 eax, DWORD PTR ?comanche_damage@@3TCOMANCHE_DAMAGE_FLAGS@@A ; comanche_damage
  00068	c1 e8 10	 shr	 eax, 16			; 00000010H
  0006b	83 e0 01	 and	 eax, 1
  0006e	89 45 fc	 mov	 DWORD PTR _damage$[ebp], eax

; 14664: 
; 14665: 			break;

  00071	eb 0e		 jmp	 SHORT $LN2@get_main_m
$LN9@get_main_m:

; 14666: 		}
; 14667: 		////////////////////////////////////////
; 14668: 		case COMANCHE_MAIN_MFD_LOCATION_CO_PILOT_RHS:
; 14669: 		////////////////////////////////////////
; 14670: 		{
; 14671: 			damage = comanche_damage.co_pilot_rh_main_mfd;

  00073	a1 00 00 00 00	 mov	 eax, DWORD PTR ?comanche_damage@@3TCOMANCHE_DAMAGE_FLAGS@@A ; comanche_damage
  00078	c1 e8 11	 shr	 eax, 17			; 00000011H
  0007b	83 e0 01	 and	 eax, 1
  0007e	89 45 fc	 mov	 DWORD PTR _damage$[ebp], eax
$LN2@get_main_m:

; 14672: 
; 14673: 			break;
; 14674: 		}
; 14675: 	}
; 14676: 
; 14677: 	return (damage);

  00081	8b 45 fc	 mov	 eax, DWORD PTR _damage$[ebp]

; 14678: }

  00084	5f		 pop	 edi
  00085	5e		 pop	 esi
  00086	5b		 pop	 ebx
  00087	8b e5		 mov	 esp, ebp
  00089	5d		 pop	 ebp
  0008a	c2 04 00	 ret	 4
  0008d	0f 1f 00	 npad	 3
$LN11@get_main_m:
  00090	00 00 00 00	 DD	 $LN6@get_main_m
  00094	00 00 00 00	 DD	 $LN7@get_main_m
  00098	00 00 00 00	 DD	 $LN8@get_main_m
  0009c	00 00 00 00	 DD	 $LN9@get_main_m
?get_main_mfd_damage@@YGHW4COMANCHE_MAIN_MFD_LOCATIONS@@@Z ENDP ; get_main_mfd_damage
_TEXT	ENDS
; Function compile flags: /Odtp /ZI
; File c:\users\nhv90\projects\eech\aphavoc\source\gunships\avionics\comanche\cm_mfd.c
;	COMDAT ?get_default_side_mfd_mode@@YG?AW4COMANCHE_SIDE_MFD_MODES@@W4COMANCHE_SIDE_MFD_LOCATIONS@@@Z
_TEXT	SEGMENT
tv70 = -72						; size = 4
_mfd_mode$ = -4						; size = 4
_mfd_location$ = 8					; size = 4
?get_default_side_mfd_mode@@YG?AW4COMANCHE_SIDE_MFD_MODES@@W4COMANCHE_SIDE_MFD_LOCATIONS@@@Z PROC ; get_default_side_mfd_mode, COMDAT

; 14585: {

  00000	55		 push	 ebp
  00001	8b ec		 mov	 ebp, esp
  00003	83 ec 48	 sub	 esp, 72			; 00000048H
  00006	53		 push	 ebx
  00007	56		 push	 esi
  00008	57		 push	 edi

; 14586: 	comanche_side_mfd_modes
; 14587: 		mfd_mode;
; 14588: 
; 14589: 	ASSERT (comanche_side_mfd_location_valid (mfd_location));

  00009	83 7d 08 00	 cmp	 DWORD PTR _mfd_location$[ebp], 0
  0000d	7c 06		 jl	 SHORT $LN5@get_defaul
  0000f	83 7d 08 04	 cmp	 DWORD PTR _mfd_location$[ebp], 4
  00013	7c 18		 jl	 SHORT $LN4@get_defaul
$LN5@get_defaul:
  00015	a1 00 00 00 00	 mov	 eax, DWORD PTR ?__LINE__Var@?0??get_default_side_mfd_mode@@YG?AW4COMANCHE_SIDE_MFD_MODES@@W4COMANCHE_SIDE_MFD_LOCATIONS@@@Z@4JA
  0001a	83 c0 04	 add	 eax, 4
  0001d	50		 push	 eax
  0001e	68 00 00 00 00	 push	 OFFSET ??_C@_0FA@HHDNPPJG@c?3?2users?2nhv90?2projects?2eech?2ap@
  00023	68 00 00 00 00	 push	 OFFSET ??_C@_0DA@KGKPBMFE@comanche_side_mfd_location_vali@
  00028	e8 00 00 00 00	 call	 ?process_assert@@YGXPBD0H@Z ; process_assert
$LN4@get_defaul:

; 14590: 
; 14591: 	switch (mfd_location)

  0002d	8b 45 08	 mov	 eax, DWORD PTR _mfd_location$[ebp]
  00030	89 45 b8	 mov	 DWORD PTR tv70[ebp], eax
  00033	83 7d b8 03	 cmp	 DWORD PTR tv70[ebp], 3
  00037	77 2c		 ja	 SHORT $LN2@get_defaul
  00039	8b 4d b8	 mov	 ecx, DWORD PTR tv70[ebp]
  0003c	ff 24 8d 00 00
	00 00		 jmp	 DWORD PTR $LN11@get_defaul[ecx*4]
$LN6@get_defaul:

; 14592: 	{
; 14593: 		////////////////////////////////////////
; 14594: 		case COMANCHE_SIDE_MFD_LOCATION_PILOT_LHS:
; 14595: 		////////////////////////////////////////
; 14596: 		{
; 14597: 			mfd_mode = COMANCHE_SIDE_MFD_MODE_ENGINE;

  00043	c7 45 fc 04 00
	00 00		 mov	 DWORD PTR _mfd_mode$[ebp], 4

; 14598: 
; 14599: 			break;

  0004a	eb 19		 jmp	 SHORT $LN2@get_defaul
$LN7@get_defaul:

; 14600: 		}
; 14601: 		////////////////////////////////////////
; 14602: 		case COMANCHE_SIDE_MFD_LOCATION_PILOT_RHS:
; 14603: 		////////////////////////////////////////
; 14604: 		{
; 14605: 			mfd_mode = COMANCHE_SIDE_MFD_MODE_FLIGHT;

  0004c	c7 45 fc 05 00
	00 00		 mov	 DWORD PTR _mfd_mode$[ebp], 5

; 14606: 
; 14607: 			break;

  00053	eb 10		 jmp	 SHORT $LN2@get_defaul
$LN8@get_defaul:

; 14608: 		}
; 14609: 		////////////////////////////////////////
; 14610: 		case COMANCHE_SIDE_MFD_LOCATION_CO_PILOT_LHS:
; 14611: 		////////////////////////////////////////
; 14612: 		{
; 14613: 			mfd_mode = COMANCHE_SIDE_MFD_MODE_SYSTEM;

  00055	c7 45 fc 03 00
	00 00		 mov	 DWORD PTR _mfd_mode$[ebp], 3

; 14614: 
; 14615: 			break;

  0005c	eb 07		 jmp	 SHORT $LN2@get_defaul
$LN9@get_defaul:

; 14616: 		}
; 14617: 		////////////////////////////////////////
; 14618: 		case COMANCHE_SIDE_MFD_LOCATION_CO_PILOT_RHS:
; 14619: 		////////////////////////////////////////
; 14620: 		{
; 14621: 			mfd_mode = COMANCHE_SIDE_MFD_MODE_WEAPON;

  0005e	c7 45 fc 02 00
	00 00		 mov	 DWORD PTR _mfd_mode$[ebp], 2
$LN2@get_defaul:

; 14622: 
; 14623: 			break;
; 14624: 		}
; 14625: 	}
; 14626: 
; 14627: 	return (mfd_mode);

  00065	8b 45 fc	 mov	 eax, DWORD PTR _mfd_mode$[ebp]

; 14628: }

  00068	5f		 pop	 edi
  00069	5e		 pop	 esi
  0006a	5b		 pop	 ebx
  0006b	8b e5		 mov	 esp, ebp
  0006d	5d		 pop	 ebp
  0006e	c2 04 00	 ret	 4
  00071	0f 1f 00	 npad	 3
$LN11@get_defaul:
  00074	00 00 00 00	 DD	 $LN6@get_defaul
  00078	00 00 00 00	 DD	 $LN7@get_defaul
  0007c	00 00 00 00	 DD	 $LN8@get_defaul
  00080	00 00 00 00	 DD	 $LN9@get_defaul
?get_default_side_mfd_mode@@YG?AW4COMANCHE_SIDE_MFD_MODES@@W4COMANCHE_SIDE_MFD_LOCATIONS@@@Z ENDP ; get_default_side_mfd_mode
_TEXT	ENDS
; Function compile flags: /Odtp /ZI
; File c:\users\nhv90\projects\eech\aphavoc\source\gunships\avionics\comanche\cm_mfd.c
;	COMDAT ?get_default_main_mfd_mode@@YG?AW4COMANCHE_MAIN_MFD_MODES@@W4COMANCHE_MAIN_MFD_LOCATIONS@@@Z
_TEXT	SEGMENT
tv70 = -72						; size = 4
_mfd_mode$ = -4						; size = 4
_mfd_location$ = 8					; size = 4
?get_default_main_mfd_mode@@YG?AW4COMANCHE_MAIN_MFD_MODES@@W4COMANCHE_MAIN_MFD_LOCATIONS@@@Z PROC ; get_default_main_mfd_mode, COMDAT

; 14535: {

  00000	55		 push	 ebp
  00001	8b ec		 mov	 ebp, esp
  00003	83 ec 48	 sub	 esp, 72			; 00000048H
  00006	53		 push	 ebx
  00007	56		 push	 esi
  00008	57		 push	 edi

; 14536: 	comanche_main_mfd_modes
; 14537: 		mfd_mode;
; 14538: 
; 14539: 	ASSERT (comanche_main_mfd_location_valid (mfd_location));

  00009	83 7d 08 00	 cmp	 DWORD PTR _mfd_location$[ebp], 0
  0000d	7c 06		 jl	 SHORT $LN5@get_defaul
  0000f	83 7d 08 04	 cmp	 DWORD PTR _mfd_location$[ebp], 4
  00013	7c 18		 jl	 SHORT $LN4@get_defaul
$LN5@get_defaul:
  00015	a1 00 00 00 00	 mov	 eax, DWORD PTR ?__LINE__Var@?0??get_default_main_mfd_mode@@YG?AW4COMANCHE_MAIN_MFD_MODES@@W4COMANCHE_MAIN_MFD_LOCATIONS@@@Z@4JA
  0001a	83 c0 04	 add	 eax, 4
  0001d	50		 push	 eax
  0001e	68 00 00 00 00	 push	 OFFSET ??_C@_0FA@HHDNPPJG@c?3?2users?2nhv90?2projects?2eech?2ap@
  00023	68 00 00 00 00	 push	 OFFSET ??_C@_0DA@GBKBAHOG@comanche_main_mfd_location_vali@
  00028	e8 00 00 00 00	 call	 ?process_assert@@YGXPBD0H@Z ; process_assert
$LN4@get_defaul:

; 14540: 
; 14541: 	switch (mfd_location)

  0002d	8b 45 08	 mov	 eax, DWORD PTR _mfd_location$[ebp]
  00030	89 45 b8	 mov	 DWORD PTR tv70[ebp], eax
  00033	83 7d b8 03	 cmp	 DWORD PTR tv70[ebp], 3
  00037	77 2c		 ja	 SHORT $LN2@get_defaul
  00039	8b 4d b8	 mov	 ecx, DWORD PTR tv70[ebp]
  0003c	ff 24 8d 00 00
	00 00		 jmp	 DWORD PTR $LN11@get_defaul[ecx*4]
$LN6@get_defaul:

; 14542: 	{
; 14543: 		////////////////////////////////////////
; 14544: 		case COMANCHE_MAIN_MFD_LOCATION_PILOT_LHS:
; 14545: 		////////////////////////////////////////
; 14546: 		{
; 14547: 			mfd_mode = COMANCHE_MAIN_MFD_MODE_ENGINE;

  00043	c7 45 fc 0b 00
	00 00		 mov	 DWORD PTR _mfd_mode$[ebp], 11 ; 0000000bH

; 14548: 
; 14549: 			break;

  0004a	eb 19		 jmp	 SHORT $LN2@get_defaul
$LN7@get_defaul:

; 14550: 		}
; 14551: 		////////////////////////////////////////
; 14552: 		case COMANCHE_MAIN_MFD_LOCATION_PILOT_RHS:
; 14553: 		////////////////////////////////////////
; 14554: 		{
; 14555: 			mfd_mode = COMANCHE_MAIN_MFD_MODE_TSD;

  0004c	c7 45 fc 07 00
	00 00		 mov	 DWORD PTR _mfd_mode$[ebp], 7

; 14556: 
; 14557: 			break;

  00053	eb 10		 jmp	 SHORT $LN2@get_defaul
$LN8@get_defaul:

; 14558: 		}
; 14559: 		////////////////////////////////////////
; 14560: 		case COMANCHE_MAIN_MFD_LOCATION_CO_PILOT_LHS:
; 14561: 		////////////////////////////////////////
; 14562: 		{
; 14563: 			mfd_mode = COMANCHE_MAIN_MFD_MODE_ENGINE;

  00055	c7 45 fc 0b 00
	00 00		 mov	 DWORD PTR _mfd_mode$[ebp], 11 ; 0000000bH

; 14564: 
; 14565: 			break;

  0005c	eb 07		 jmp	 SHORT $LN2@get_defaul
$LN9@get_defaul:

; 14566: 		}
; 14567: 		////////////////////////////////////////
; 14568: 		case COMANCHE_MAIN_MFD_LOCATION_CO_PILOT_RHS:
; 14569: 		////////////////////////////////////////
; 14570: 		{
; 14571: 			mfd_mode = COMANCHE_MAIN_MFD_MODE_TSD;

  0005e	c7 45 fc 07 00
	00 00		 mov	 DWORD PTR _mfd_mode$[ebp], 7
$LN2@get_defaul:

; 14572: 
; 14573: 			break;
; 14574: 		}
; 14575: 	}
; 14576: 
; 14577: 	return (mfd_mode);

  00065	8b 45 fc	 mov	 eax, DWORD PTR _mfd_mode$[ebp]

; 14578: }

  00068	5f		 pop	 edi
  00069	5e		 pop	 esi
  0006a	5b		 pop	 ebx
  0006b	8b e5		 mov	 esp, ebp
  0006d	5d		 pop	 ebp
  0006e	c2 04 00	 ret	 4
  00071	0f 1f 00	 npad	 3
$LN11@get_defaul:
  00074	00 00 00 00	 DD	 $LN6@get_defaul
  00078	00 00 00 00	 DD	 $LN7@get_defaul
  0007c	00 00 00 00	 DD	 $LN8@get_defaul
  00080	00 00 00 00	 DD	 $LN9@get_defaul
?get_default_main_mfd_mode@@YG?AW4COMANCHE_MAIN_MFD_MODES@@W4COMANCHE_MAIN_MFD_LOCATIONS@@@Z ENDP ; get_default_main_mfd_mode
_TEXT	ENDS
; Function compile flags: /Odtp /ZI
; File c:\users\nhv90\projects\eech\aphavoc\source\gunships\avionics\comanche\cm_mfd.c
;	COMDAT ?get_mfd_mode_for_radar@@YG?AW4COMANCHE_MAIN_MFD_MODES@@XZ
_TEXT	SEGMENT
?get_mfd_mode_for_radar@@YG?AW4COMANCHE_MAIN_MFD_MODES@@XZ PROC ; get_mfd_mode_for_radar, COMDAT

; 14523: {

  00000	55		 push	 ebp
  00001	8b ec		 mov	 ebp, esp
  00003	83 ec 40	 sub	 esp, 64			; 00000040H
  00006	53		 push	 ebx
  00007	56		 push	 esi
  00008	57		 push	 edi

; 14524: 	if (target_acquisition_system == TARGET_ACQUISITION_SYSTEM_AIR_RADAR || air_radar_is_active())

  00009	83 3d 00 00 00
	00 02		 cmp	 DWORD PTR ?target_acquisition_system@@3W4TARGET_ACQUISITION_SYSTEMS@@A, 2 ; target_acquisition_system
  00010	74 09		 je	 SHORT $LN3@get_mfd_mo
  00012	e8 00 00 00 00	 call	 ?air_radar_is_active@@YGHXZ ; air_radar_is_active
  00017	85 c0		 test	 eax, eax
  00019	74 07		 je	 SHORT $LN2@get_mfd_mo
$LN3@get_mfd_mo:

; 14525: 		return COMANCHE_MAIN_MFD_MODE_AIR_RADAR;

  0001b	b8 03 00 00 00	 mov	 eax, 3
  00020	eb 05		 jmp	 SHORT $LN1@get_mfd_mo
$LN2@get_mfd_mo:

; 14526: 
; 14527: 	return COMANCHE_MAIN_MFD_MODE_GROUND_RADAR;

  00022	b8 02 00 00 00	 mov	 eax, 2
$LN1@get_mfd_mo:

; 14528: }

  00027	5f		 pop	 edi
  00028	5e		 pop	 esi
  00029	5b		 pop	 ebx
  0002a	8b e5		 mov	 esp, ebp
  0002c	5d		 pop	 ebp
  0002d	c3		 ret	 0
?get_mfd_mode_for_radar@@YG?AW4COMANCHE_MAIN_MFD_MODES@@XZ ENDP ; get_mfd_mode_for_radar
_TEXT	ENDS
; Function compile flags: /Odtp /ZI
; File c:\users\nhv90\projects\eech\aphavoc\source\gunships\avionics\comanche\cm_mfd.c
;	COMDAT ?draw_overlaid_main_mfd@@YGXPAUSCREEN@@W4COMANCHE_MAIN_MFD_MODES@@W4COMANCHE_MAIN_MFD_LOCATIONS@@@Z
_TEXT	SEGMENT
tv140 = -356						; size = 4
tv90 = -356						; size = 4
_width$1 = -288						; size = 4
_specular$2 = -284					; size = 4
_colour$3 = -280					; size = 4
_quad$4 = -276						; size = 256
_store_background_colour$5 = -20			; size = 4
_store_road_colour$6 = -16				; size = 4
_store_river_colour$7 = -12				; size = 4
_store_contour_colour$8 = -8				; size = 4
_border_size$ = -4					; size = 4
_mfd_screen$ = 8					; size = 4
_mode$ = 12						; size = 4
_location$ = 16						; size = 4
?draw_overlaid_main_mfd@@YGXPAUSCREEN@@W4COMANCHE_MAIN_MFD_MODES@@W4COMANCHE_MAIN_MFD_LOCATIONS@@@Z PROC ; draw_overlaid_main_mfd, COMDAT

; 13669: {

  00000	55		 push	 ebp
  00001	8b ec		 mov	 ebp, esp
  00003	81 ec 64 01 00
	00		 sub	 esp, 356		; 00000164H
  00009	53		 push	 ebx
  0000a	56		 push	 esi
  0000b	57		 push	 edi

; 13670: 	float
; 13671: 		border_size;
; 13672: 
; 13673: 	ASSERT (mfd_screen);

  0000c	83 7d 08 00	 cmp	 DWORD PTR _mfd_screen$[ebp], 0
  00010	75 18		 jne	 SHORT $LN6@draw_overl
  00012	a1 00 00 00 00	 mov	 eax, DWORD PTR ?__LINE__Var@?0??draw_overlaid_main_mfd@@YGXPAUSCREEN@@W4COMANCHE_MAIN_MFD_MODES@@W4COMANCHE_MAIN_MFD_LOCATIONS@@@Z@4JA
  00017	83 c0 04	 add	 eax, 4
  0001a	50		 push	 eax
  0001b	68 00 00 00 00	 push	 OFFSET ??_C@_0FA@HHDNPPJG@c?3?2users?2nhv90?2projects?2eech?2ap@
  00020	68 00 00 00 00	 push	 OFFSET ??_C@_0L@DHCAJMOH@mfd_screen@
  00025	e8 00 00 00 00	 call	 ?process_assert@@YGXPBD0H@Z ; process_assert
$LN6@draw_overl:

; 13674: 
; 13675: 	ASSERT (comanche_main_mfd_mode_valid (mode));

  0002a	83 7d 0c 00	 cmp	 DWORD PTR _mode$[ebp], 0
  0002e	7c 06		 jl	 SHORT $LN8@draw_overl
  00030	83 7d 0c 0e	 cmp	 DWORD PTR _mode$[ebp], 14 ; 0000000eH
  00034	7c 18		 jl	 SHORT $LN7@draw_overl
$LN8@draw_overl:
  00036	a1 00 00 00 00	 mov	 eax, DWORD PTR ?__LINE__Var@?0??draw_overlaid_main_mfd@@YGXPAUSCREEN@@W4COMANCHE_MAIN_MFD_MODES@@W4COMANCHE_MAIN_MFD_LOCATIONS@@@Z@4JA
  0003b	83 c0 06	 add	 eax, 6
  0003e	50		 push	 eax
  0003f	68 00 00 00 00	 push	 OFFSET ??_C@_0FA@HHDNPPJG@c?3?2users?2nhv90?2projects?2eech?2ap@
  00044	68 00 00 00 00	 push	 OFFSET ??_C@_0CE@ENKIGGJP@comanche_main_mfd_mode_valid?5?$CIm@
  00049	e8 00 00 00 00	 call	 ?process_assert@@YGXPBD0H@Z ; process_assert
$LN7@draw_overl:

; 13676: 
; 13677: 	ASSERT (comanche_main_mfd_location_valid (location));

  0004e	83 7d 10 00	 cmp	 DWORD PTR _location$[ebp], 0
  00052	7c 06		 jl	 SHORT $LN10@draw_overl
  00054	83 7d 10 04	 cmp	 DWORD PTR _location$[ebp], 4
  00058	7c 18		 jl	 SHORT $LN9@draw_overl
$LN10@draw_overl:
  0005a	a1 00 00 00 00	 mov	 eax, DWORD PTR ?__LINE__Var@?0??draw_overlaid_main_mfd@@YGXPAUSCREEN@@W4COMANCHE_MAIN_MFD_MODES@@W4COMANCHE_MAIN_MFD_LOCATIONS@@@Z@4JA
  0005f	83 c0 08	 add	 eax, 8
  00062	50		 push	 eax
  00063	68 00 00 00 00	 push	 OFFSET ??_C@_0FA@HHDNPPJG@c?3?2users?2nhv90?2projects?2eech?2ap@
  00068	68 00 00 00 00	 push	 OFFSET ??_C@_0CM@LICEEPAH@comanche_main_mfd_location_vali@
  0006d	e8 00 00 00 00	 call	 ?process_assert@@YGXPBD0H@Z ; process_assert
$LN9@draw_overl:

; 13678: 
; 13679: 	if (mode == COMANCHE_MAIN_MFD_MODE_OFF)

  00072	83 7d 0c 00	 cmp	 DWORD PTR _mode$[ebp], 0
  00076	75 05		 jne	 SHORT $LN11@draw_overl

; 13680: 	{
; 13681: 		return;

  00078	e9 38 13 00 00	 jmp	 $LN1@draw_overl
$LN11@draw_overl:

; 13682: 	}
; 13683: 
; 13684: 	////////////////////////////////////////
; 13685: 	//
; 13686: 	// scale position and size wrt screen resolution
; 13687: 	//
; 13688: 	////////////////////////////////////////
; 13689: 
; 13690: 	border_size = 4.0 * full_screen_width * (1.0 / 640.0);

  0007d	f3 0f 5a 05 00
	00 00 00	 cvtss2sd xmm0, DWORD PTR ?full_screen_width@@3MA
  00085	f2 0f 59 05 00
	00 00 00	 mulsd	 xmm0, QWORD PTR __real@4010000000000000
  0008d	f2 0f 59 05 00
	00 00 00	 mulsd	 xmm0, QWORD PTR __real@3f5999999999999a
  00095	f2 0f 5a c0	 cvtsd2ss xmm0, xmm0
  00099	f3 0f 11 45 fc	 movss	 DWORD PTR _border_size$[ebp], xmm0

; 13691: 
; 13692: 	if (get_global_unscaled_displays ())

  0009e	83 3d 74 03 00
	00 00		 cmp	 DWORD PTR ?global_options@@3UGLOBAL_OPTIONS_DATA@@A+884, 0
  000a5	74 12		 je	 SHORT $LN12@draw_overl

; 13693: 	{
; 13694: 		mfd_screen_width = mfd_viewport_size;

  000a7	f3 0f 10 05 00
	00 00 00	 movss	 xmm0, DWORD PTR ?mfd_viewport_size@@3MA
  000af	f3 0f 11 05 00
	00 00 00	 movss	 DWORD PTR ?mfd_screen_width@@3MA, xmm0

; 13695: 	}
; 13696: 	else

  000b7	eb 1c		 jmp	 SHORT $LN13@draw_overl
$LN12@draw_overl:

; 13697: 	{
; 13698: 		mfd_screen_width = full_screen_width * (128.0 / 640.0);

  000b9	f3 0f 5a 05 00
	00 00 00	 cvtss2sd xmm0, DWORD PTR ?full_screen_width@@3MA
  000c1	f2 0f 59 05 00
	00 00 00	 mulsd	 xmm0, QWORD PTR __real@3fc999999999999a
  000c9	f2 0f 5a c0	 cvtsd2ss xmm0, xmm0
  000cd	f3 0f 11 05 00
	00 00 00	 movss	 DWORD PTR ?mfd_screen_width@@3MA, xmm0
$LN13@draw_overl:

; 13699: 	}
; 13700: 
; 13701: 	mfd_screen_height = mfd_screen_width;

  000d5	f3 0f 10 05 00
	00 00 00	 movss	 xmm0, DWORD PTR ?mfd_screen_width@@3MA
  000dd	f3 0f 11 05 00
	00 00 00	 movss	 DWORD PTR ?mfd_screen_height@@3MA, xmm0

; 13702: 
; 13703: 	switch (location)

  000e5	8b 45 10	 mov	 eax, DWORD PTR _location$[ebp]
  000e8	89 85 9c fe ff
	ff		 mov	 DWORD PTR tv90[ebp], eax
  000ee	83 bd 9c fe ff
	ff 03		 cmp	 DWORD PTR tv90[ebp], 3
  000f5	77 73		 ja	 SHORT $LN2@draw_overl
  000f7	8b 8d 9c fe ff
	ff		 mov	 ecx, DWORD PTR tv90[ebp]
  000fd	ff 24 8d 00 00
	00 00		 jmp	 DWORD PTR $LN58@draw_overl[ecx*4]
$LN14@draw_overl:

; 13704: 	{
; 13705: 		////////////////////////////////////////
; 13706: 		case COMANCHE_MAIN_MFD_LOCATION_PILOT_LHS:
; 13707: 		case COMANCHE_MAIN_MFD_LOCATION_CO_PILOT_LHS:
; 13708: 		////////////////////////////////////////
; 13709: 		{
; 13710: 			mfd_screen_x_min = border_size;

  00104	f3 0f 10 45 fc	 movss	 xmm0, DWORD PTR _border_size$[ebp]
  00109	f3 0f 11 05 00
	00 00 00	 movss	 DWORD PTR ?mfd_screen_x_min@@3MA, xmm0

; 13711: 			mfd_screen_y_min = full_screen_height - border_size - mfd_screen_height;

  00111	f3 0f 10 05 00
	00 00 00	 movss	 xmm0, DWORD PTR ?full_screen_height@@3MA
  00119	f3 0f 5c 45 fc	 subss	 xmm0, DWORD PTR _border_size$[ebp]
  0011e	f3 0f 5c 05 00
	00 00 00	 subss	 xmm0, DWORD PTR ?mfd_screen_height@@3MA
  00126	f3 0f 11 05 00
	00 00 00	 movss	 DWORD PTR ?mfd_screen_y_min@@3MA, xmm0

; 13712: 
; 13713: 			break;

  0012e	eb 3a		 jmp	 SHORT $LN2@draw_overl
$LN15@draw_overl:

; 13714: 		}
; 13715: 		////////////////////////////////////////
; 13716: 		case COMANCHE_MAIN_MFD_LOCATION_PILOT_RHS:
; 13717: 		case COMANCHE_MAIN_MFD_LOCATION_CO_PILOT_RHS:
; 13718: 		////////////////////////////////////////
; 13719: 		{
; 13720: 			mfd_screen_x_min = full_screen_width - border_size - mfd_screen_width;

  00130	f3 0f 10 05 00
	00 00 00	 movss	 xmm0, DWORD PTR ?full_screen_width@@3MA
  00138	f3 0f 5c 45 fc	 subss	 xmm0, DWORD PTR _border_size$[ebp]
  0013d	f3 0f 5c 05 00
	00 00 00	 subss	 xmm0, DWORD PTR ?mfd_screen_width@@3MA
  00145	f3 0f 11 05 00
	00 00 00	 movss	 DWORD PTR ?mfd_screen_x_min@@3MA, xmm0

; 13721: 			mfd_screen_y_min = full_screen_height - border_size - mfd_screen_height;

  0014d	f3 0f 10 05 00
	00 00 00	 movss	 xmm0, DWORD PTR ?full_screen_height@@3MA
  00155	f3 0f 5c 45 fc	 subss	 xmm0, DWORD PTR _border_size$[ebp]
  0015a	f3 0f 5c 05 00
	00 00 00	 subss	 xmm0, DWORD PTR ?mfd_screen_height@@3MA
  00162	f3 0f 11 05 00
	00 00 00	 movss	 DWORD PTR ?mfd_screen_y_min@@3MA, xmm0
$LN2@draw_overl:

; 13722: 
; 13723: 			break;
; 13724: 		}
; 13725: 	}
; 13726: 
; 13727: 	mfd_screen_x_max = mfd_screen_x_min + mfd_screen_width - 0.0001;

  0016a	f3 0f 10 05 00
	00 00 00	 movss	 xmm0, DWORD PTR ?mfd_screen_x_min@@3MA
  00172	f3 0f 58 05 00
	00 00 00	 addss	 xmm0, DWORD PTR ?mfd_screen_width@@3MA
  0017a	f3 0f 5a c0	 cvtss2sd xmm0, xmm0
  0017e	f2 0f 5c 05 00
	00 00 00	 subsd	 xmm0, QWORD PTR __real@3f1a36e2eb1c432d
  00186	f2 0f 5a c0	 cvtsd2ss xmm0, xmm0
  0018a	f3 0f 11 05 00
	00 00 00	 movss	 DWORD PTR ?mfd_screen_x_max@@3MA, xmm0

; 13728: 	mfd_screen_y_max = mfd_screen_y_min + mfd_screen_height - 0.0001;

  00192	f3 0f 10 05 00
	00 00 00	 movss	 xmm0, DWORD PTR ?mfd_screen_y_min@@3MA
  0019a	f3 0f 58 05 00
	00 00 00	 addss	 xmm0, DWORD PTR ?mfd_screen_height@@3MA
  001a2	f3 0f 5a c0	 cvtss2sd xmm0, xmm0
  001a6	f2 0f 5c 05 00
	00 00 00	 subsd	 xmm0, QWORD PTR __real@3f1a36e2eb1c432d
  001ae	f2 0f 5a c0	 cvtsd2ss xmm0, xmm0
  001b2	f3 0f 11 05 00
	00 00 00	 movss	 DWORD PTR ?mfd_screen_y_max@@3MA, xmm0

; 13729: 
; 13730: 	mfd_screen_x_scale = mfd_viewport_size / mfd_screen_width;

  001ba	f3 0f 10 05 00
	00 00 00	 movss	 xmm0, DWORD PTR ?mfd_viewport_size@@3MA
  001c2	f3 0f 5e 05 00
	00 00 00	 divss	 xmm0, DWORD PTR ?mfd_screen_width@@3MA
  001ca	f3 0f 11 05 00
	00 00 00	 movss	 DWORD PTR ?mfd_screen_x_scale@@3MA, xmm0

; 13731: 	mfd_screen_y_scale = mfd_viewport_size / mfd_screen_height;

  001d2	f3 0f 10 05 00
	00 00 00	 movss	 xmm0, DWORD PTR ?mfd_viewport_size@@3MA
  001da	f3 0f 5e 05 00
	00 00 00	 divss	 xmm0, DWORD PTR ?mfd_screen_height@@3MA
  001e2	f3 0f 11 05 00
	00 00 00	 movss	 DWORD PTR ?mfd_screen_y_scale@@3MA, xmm0

; 13732: 
; 13733: 	draw_main_display = TRUE;

  001ea	c7 05 00 00 00
	00 01 00 00 00	 mov	 DWORD PTR ?draw_main_display@@3HA, 1

; 13734: 
; 13735: 	////////////////////////////////////////
; 13736: 	//
; 13737: 	// draw MFD display
; 13738: 	//
; 13739: 	////////////////////////////////////////
; 13740: 
; 13741: 	switch (mode)

  001f4	8b 45 0c	 mov	 eax, DWORD PTR _mode$[ebp]
  001f7	89 85 9c fe ff
	ff		 mov	 DWORD PTR tv140[ebp], eax
  001fd	83 bd 9c fe ff
	ff 0d		 cmp	 DWORD PTR tv140[ebp], 13 ; 0000000dH
  00204	0f 87 a7 0d 00
	00		 ja	 $LN50@draw_overl
  0020a	8b 8d 9c fe ff
	ff		 mov	 ecx, DWORD PTR tv140[ebp]
  00210	ff 24 8d 00 00
	00 00		 jmp	 DWORD PTR $LN59@draw_overl[ecx*4]
$LN16@draw_overl:

; 13742: 	{
; 13743: 		////////////////////////////////////////
; 13744: 		case COMANCHE_MAIN_MFD_MODE_OFF:
; 13745: 		////////////////////////////////////////
; 13746: 		{
; 13747: 			set_2d_viewport (mfd_env, mfd_viewport_x_min, mfd_viewport_y_min, mfd_viewport_x_max, mfd_viewport_y_max);

  00217	51		 push	 ecx
  00218	f3 0f 10 05 00
	00 00 00	 movss	 xmm0, DWORD PTR ?mfd_viewport_y_max@@3MA
  00220	f3 0f 11 04 24	 movss	 DWORD PTR [esp], xmm0
  00225	51		 push	 ecx
  00226	f3 0f 10 05 00
	00 00 00	 movss	 xmm0, DWORD PTR ?mfd_viewport_x_max@@3MA
  0022e	f3 0f 11 04 24	 movss	 DWORD PTR [esp], xmm0
  00233	51		 push	 ecx
  00234	f3 0f 10 05 00
	00 00 00	 movss	 xmm0, DWORD PTR ?mfd_viewport_y_min@@3MA
  0023c	f3 0f 11 04 24	 movss	 DWORD PTR [esp], xmm0
  00241	51		 push	 ecx
  00242	f3 0f 10 05 00
	00 00 00	 movss	 xmm0, DWORD PTR ?mfd_viewport_x_min@@3MA
  0024a	f3 0f 11 04 24	 movss	 DWORD PTR [esp], xmm0
  0024f	a1 00 00 00 00	 mov	 eax, DWORD PTR ?mfd_env@@3PAUENV_2D@@A
  00254	50		 push	 eax
  00255	e8 00 00 00 00	 call	 ?set_2d_viewport@@YGXPAUENV_2D@@MMMM@Z ; set_2d_viewport

; 13748: 
; 13749: 			set_active_screen (mfd_screen);

  0025a	8b 45 08	 mov	 eax, DWORD PTR _mfd_screen$[ebp]
  0025d	50		 push	 eax
  0025e	e8 00 00 00 00	 call	 ?set_active_screen@@YGHPAUSCREEN@@@Z ; set_active_screen

; 13750: 
; 13751: 			if (lock_screen (mfd_screen))

  00263	8b 45 08	 mov	 eax, DWORD PTR _mfd_screen$[ebp]
  00266	50		 push	 eax
  00267	e8 00 00 00 00	 call	 ?lock_screen@@YGHPAUSCREEN@@@Z ; lock_screen
  0026c	85 c0		 test	 eax, eax
  0026e	74 3a		 je	 SHORT $LN17@draw_overl

; 13752: 			{
; 13753: 				set_block (0, 0, int_mfd_viewport_size - 1, int_mfd_viewport_size - 1, clear_mfd_colour);

  00270	a1 00 00 00 00	 mov	 eax, DWORD PTR ?clear_mfd_colour@@3UREAL_COLOUR@@A
  00275	50		 push	 eax
  00276	8b 0d 00 00 00
	00		 mov	 ecx, DWORD PTR ?int_mfd_viewport_size@@3HA
  0027c	83 e9 01	 sub	 ecx, 1
  0027f	51		 push	 ecx
  00280	8b 15 00 00 00
	00		 mov	 edx, DWORD PTR ?int_mfd_viewport_size@@3HA
  00286	83 ea 01	 sub	 edx, 1
  00289	52		 push	 edx
  0028a	6a 00		 push	 0
  0028c	6a 00		 push	 0
  0028e	e8 00 00 00 00	 call	 ?set_block@@YGXHHHHUREAL_COLOUR@@@Z ; set_block

; 13754: 
; 13755: 				draw_layout_grid ();

  00293	e8 00 00 00 00	 call	 ?draw_layout_grid@@YGXXZ ; draw_layout_grid

; 13756: 
; 13757: 				flush_screen_texture_graphics (mfd_screen);

  00298	8b 45 08	 mov	 eax, DWORD PTR _mfd_screen$[ebp]
  0029b	50		 push	 eax
  0029c	e8 00 00 00 00	 call	 ?flush_screen_texture_graphics@@YGXPAUSCREEN@@@Z ; flush_screen_texture_graphics

; 13758: 
; 13759: 				unlock_screen (mfd_screen);

  002a1	8b 45 08	 mov	 eax, DWORD PTR _mfd_screen$[ebp]
  002a4	50		 push	 eax
  002a5	e8 00 00 00 00	 call	 ?unlock_screen@@YGHPAUSCREEN@@@Z ; unlock_screen
$LN17@draw_overl:

; 13760: 			}
; 13761: 
; 13762: 			break;

  002aa	e9 13 0d 00 00	 jmp	 $LN4@draw_overl
$LN18@draw_overl:

; 13763: 		}
; 13764: 		////////////////////////////////////////
; 13765: 		case COMANCHE_MAIN_MFD_MODE_DAMAGED:
; 13766: 		////////////////////////////////////////
; 13767: 		{
; 13768: 			draw_translucent_mfd_background (mfd_screen_x_min, mfd_screen_y_min, mfd_screen_x_max, mfd_screen_y_max);

  002af	51		 push	 ecx
  002b0	f3 0f 10 05 00
	00 00 00	 movss	 xmm0, DWORD PTR ?mfd_screen_y_max@@3MA
  002b8	f3 0f 11 04 24	 movss	 DWORD PTR [esp], xmm0
  002bd	51		 push	 ecx
  002be	f3 0f 10 05 00
	00 00 00	 movss	 xmm0, DWORD PTR ?mfd_screen_x_max@@3MA
  002c6	f3 0f 11 04 24	 movss	 DWORD PTR [esp], xmm0
  002cb	51		 push	 ecx
  002cc	f3 0f 10 05 00
	00 00 00	 movss	 xmm0, DWORD PTR ?mfd_screen_y_min@@3MA
  002d4	f3 0f 11 04 24	 movss	 DWORD PTR [esp], xmm0
  002d9	51		 push	 ecx
  002da	f3 0f 10 05 00
	00 00 00	 movss	 xmm0, DWORD PTR ?mfd_screen_x_min@@3MA
  002e2	f3 0f 11 04 24	 movss	 DWORD PTR [esp], xmm0
  002e7	e8 00 00 00 00	 call	 ?draw_translucent_mfd_background@@YGXMMMM@Z ; draw_translucent_mfd_background

; 13769: 
; 13770: 			set_2d_viewport (mfd_env, mfd_viewport_x_min, mfd_viewport_y_min, mfd_viewport_x_max, mfd_viewport_y_max);

  002ec	51		 push	 ecx
  002ed	f3 0f 10 05 00
	00 00 00	 movss	 xmm0, DWORD PTR ?mfd_viewport_y_max@@3MA
  002f5	f3 0f 11 04 24	 movss	 DWORD PTR [esp], xmm0
  002fa	51		 push	 ecx
  002fb	f3 0f 10 05 00
	00 00 00	 movss	 xmm0, DWORD PTR ?mfd_viewport_x_max@@3MA
  00303	f3 0f 11 04 24	 movss	 DWORD PTR [esp], xmm0
  00308	51		 push	 ecx
  00309	f3 0f 10 05 00
	00 00 00	 movss	 xmm0, DWORD PTR ?mfd_viewport_y_min@@3MA
  00311	f3 0f 11 04 24	 movss	 DWORD PTR [esp], xmm0
  00316	51		 push	 ecx
  00317	f3 0f 10 05 00
	00 00 00	 movss	 xmm0, DWORD PTR ?mfd_viewport_x_min@@3MA
  0031f	f3 0f 11 04 24	 movss	 DWORD PTR [esp], xmm0
  00324	a1 00 00 00 00	 mov	 eax, DWORD PTR ?mfd_env@@3PAUENV_2D@@A
  00329	50		 push	 eax
  0032a	e8 00 00 00 00	 call	 ?set_2d_viewport@@YGXPAUENV_2D@@MMMM@Z ; set_2d_viewport

; 13771: 
; 13772: 			set_active_screen (mfd_screen);

  0032f	8b 45 08	 mov	 eax, DWORD PTR _mfd_screen$[ebp]
  00332	50		 push	 eax
  00333	e8 00 00 00 00	 call	 ?set_active_screen@@YGHPAUSCREEN@@@Z ; set_active_screen

; 13773: 
; 13774: 			if (lock_screen (mfd_screen))

  00338	8b 45 08	 mov	 eax, DWORD PTR _mfd_screen$[ebp]
  0033b	50		 push	 eax
  0033c	e8 00 00 00 00	 call	 ?lock_screen@@YGHPAUSCREEN@@@Z ; lock_screen
  00341	85 c0		 test	 eax, eax
  00343	74 3f		 je	 SHORT $LN19@draw_overl

; 13775: 			{
; 13776: 				set_block (0, 0, int_mfd_viewport_size - 1, int_mfd_viewport_size - 1, clear_mfd_colour);

  00345	a1 00 00 00 00	 mov	 eax, DWORD PTR ?clear_mfd_colour@@3UREAL_COLOUR@@A
  0034a	50		 push	 eax
  0034b	8b 0d 00 00 00
	00		 mov	 ecx, DWORD PTR ?int_mfd_viewport_size@@3HA
  00351	83 e9 01	 sub	 ecx, 1
  00354	51		 push	 ecx
  00355	8b 15 00 00 00
	00		 mov	 edx, DWORD PTR ?int_mfd_viewport_size@@3HA
  0035b	83 ea 01	 sub	 edx, 1
  0035e	52		 push	 edx
  0035f	6a 00		 push	 0
  00361	6a 00		 push	 0
  00363	e8 00 00 00 00	 call	 ?set_block@@YGXHHHHUREAL_COLOUR@@@Z ; set_block

; 13777: 
; 13778: 				draw_layout_grid ();

  00368	e8 00 00 00 00	 call	 ?draw_layout_grid@@YGXXZ ; draw_layout_grid

; 13779: 
; 13780: 				draw_damaged_mfd ();

  0036d	e8 00 00 00 00	 call	 ?draw_damaged_mfd@@YGXXZ ; draw_damaged_mfd

; 13781: 
; 13782: 				flush_screen_texture_graphics (mfd_screen);

  00372	8b 45 08	 mov	 eax, DWORD PTR _mfd_screen$[ebp]
  00375	50		 push	 eax
  00376	e8 00 00 00 00	 call	 ?flush_screen_texture_graphics@@YGXPAUSCREEN@@@Z ; flush_screen_texture_graphics

; 13783: 
; 13784: 				unlock_screen (mfd_screen);

  0037b	8b 45 08	 mov	 eax, DWORD PTR _mfd_screen$[ebp]
  0037e	50		 push	 eax
  0037f	e8 00 00 00 00	 call	 ?unlock_screen@@YGHPAUSCREEN@@@Z ; unlock_screen
$LN19@draw_overl:

; 13785: 			}
; 13786: 
; 13787: 			break;

  00384	e9 39 0c 00 00	 jmp	 $LN4@draw_overl
$LN20@draw_overl:

; 13788: 		}
; 13789: 		////////////////////////////////////////
; 13790: 		case COMANCHE_MAIN_MFD_MODE_GROUND_RADAR:
; 13791: 		////////////////////////////////////////
; 13792: 		{
; 13793: 			draw_translucent_mfd_background (mfd_screen_x_min, mfd_screen_y_min, mfd_screen_x_max, mfd_screen_y_max);

  00389	51		 push	 ecx
  0038a	f3 0f 10 05 00
	00 00 00	 movss	 xmm0, DWORD PTR ?mfd_screen_y_max@@3MA
  00392	f3 0f 11 04 24	 movss	 DWORD PTR [esp], xmm0
  00397	51		 push	 ecx
  00398	f3 0f 10 05 00
	00 00 00	 movss	 xmm0, DWORD PTR ?mfd_screen_x_max@@3MA
  003a0	f3 0f 11 04 24	 movss	 DWORD PTR [esp], xmm0
  003a5	51		 push	 ecx
  003a6	f3 0f 10 05 00
	00 00 00	 movss	 xmm0, DWORD PTR ?mfd_screen_y_min@@3MA
  003ae	f3 0f 11 04 24	 movss	 DWORD PTR [esp], xmm0
  003b3	51		 push	 ecx
  003b4	f3 0f 10 05 00
	00 00 00	 movss	 xmm0, DWORD PTR ?mfd_screen_x_min@@3MA
  003bc	f3 0f 11 04 24	 movss	 DWORD PTR [esp], xmm0
  003c1	e8 00 00 00 00	 call	 ?draw_translucent_mfd_background@@YGXMMMM@Z ; draw_translucent_mfd_background

; 13794: 
; 13795: 			set_2d_viewport (mfd_env, mfd_viewport_x_min, mfd_viewport_y_min, mfd_viewport_x_max, mfd_viewport_y_max);

  003c6	51		 push	 ecx
  003c7	f3 0f 10 05 00
	00 00 00	 movss	 xmm0, DWORD PTR ?mfd_viewport_y_max@@3MA
  003cf	f3 0f 11 04 24	 movss	 DWORD PTR [esp], xmm0
  003d4	51		 push	 ecx
  003d5	f3 0f 10 05 00
	00 00 00	 movss	 xmm0, DWORD PTR ?mfd_viewport_x_max@@3MA
  003dd	f3 0f 11 04 24	 movss	 DWORD PTR [esp], xmm0
  003e2	51		 push	 ecx
  003e3	f3 0f 10 05 00
	00 00 00	 movss	 xmm0, DWORD PTR ?mfd_viewport_y_min@@3MA
  003eb	f3 0f 11 04 24	 movss	 DWORD PTR [esp], xmm0
  003f0	51		 push	 ecx
  003f1	f3 0f 10 05 00
	00 00 00	 movss	 xmm0, DWORD PTR ?mfd_viewport_x_min@@3MA
  003f9	f3 0f 11 04 24	 movss	 DWORD PTR [esp], xmm0
  003fe	a1 00 00 00 00	 mov	 eax, DWORD PTR ?mfd_env@@3PAUENV_2D@@A
  00403	50		 push	 eax
  00404	e8 00 00 00 00	 call	 ?set_2d_viewport@@YGXPAUENV_2D@@MMMM@Z ; set_2d_viewport

; 13796: 
; 13797: 			set_active_screen (mfd_screen);

  00409	8b 45 08	 mov	 eax, DWORD PTR _mfd_screen$[ebp]
  0040c	50		 push	 eax
  0040d	e8 00 00 00 00	 call	 ?set_active_screen@@YGHPAUSCREEN@@@Z ; set_active_screen

; 13798: 
; 13799: 			if (lock_screen (mfd_screen))

  00412	8b 45 08	 mov	 eax, DWORD PTR _mfd_screen$[ebp]
  00415	50		 push	 eax
  00416	e8 00 00 00 00	 call	 ?lock_screen@@YGHPAUSCREEN@@@Z ; lock_screen
  0041b	85 c0		 test	 eax, eax
  0041d	74 3f		 je	 SHORT $LN21@draw_overl

; 13800: 			{
; 13801: 				set_block (0, 0, int_mfd_viewport_size - 1, int_mfd_viewport_size - 1, clear_mfd_colour);

  0041f	a1 00 00 00 00	 mov	 eax, DWORD PTR ?clear_mfd_colour@@3UREAL_COLOUR@@A
  00424	50		 push	 eax
  00425	8b 0d 00 00 00
	00		 mov	 ecx, DWORD PTR ?int_mfd_viewport_size@@3HA
  0042b	83 e9 01	 sub	 ecx, 1
  0042e	51		 push	 ecx
  0042f	8b 15 00 00 00
	00		 mov	 edx, DWORD PTR ?int_mfd_viewport_size@@3HA
  00435	83 ea 01	 sub	 edx, 1
  00438	52		 push	 edx
  00439	6a 00		 push	 0
  0043b	6a 00		 push	 0
  0043d	e8 00 00 00 00	 call	 ?set_block@@YGXHHHHUREAL_COLOUR@@@Z ; set_block

; 13802: 
; 13803: 				draw_layout_grid ();

  00442	e8 00 00 00 00	 call	 ?draw_layout_grid@@YGXXZ ; draw_layout_grid

; 13804: 
; 13805: 				draw_ground_radar_mfd ();

  00447	e8 00 00 00 00	 call	 ?draw_ground_radar_mfd@@YGXXZ ; draw_ground_radar_mfd

; 13806: 
; 13807: 				flush_screen_texture_graphics (mfd_screen);

  0044c	8b 45 08	 mov	 eax, DWORD PTR _mfd_screen$[ebp]
  0044f	50		 push	 eax
  00450	e8 00 00 00 00	 call	 ?flush_screen_texture_graphics@@YGXPAUSCREEN@@@Z ; flush_screen_texture_graphics

; 13808: 
; 13809: 				unlock_screen (mfd_screen);

  00455	8b 45 08	 mov	 eax, DWORD PTR _mfd_screen$[ebp]
  00458	50		 push	 eax
  00459	e8 00 00 00 00	 call	 ?unlock_screen@@YGHPAUSCREEN@@@Z ; unlock_screen
$LN21@draw_overl:

; 13810: 			}
; 13811: 
; 13812: 			break;

  0045e	e9 5f 0b 00 00	 jmp	 $LN4@draw_overl
$LN22@draw_overl:

; 13813: 		}
; 13814: 		////////////////////////////////////////
; 13815: 		case COMANCHE_MAIN_MFD_MODE_AIR_RADAR:
; 13816: 		////////////////////////////////////////
; 13817: 		{
; 13818: 			draw_translucent_mfd_background (mfd_screen_x_min, mfd_screen_y_min, mfd_screen_x_max, mfd_screen_y_max);

  00463	51		 push	 ecx
  00464	f3 0f 10 05 00
	00 00 00	 movss	 xmm0, DWORD PTR ?mfd_screen_y_max@@3MA
  0046c	f3 0f 11 04 24	 movss	 DWORD PTR [esp], xmm0
  00471	51		 push	 ecx
  00472	f3 0f 10 05 00
	00 00 00	 movss	 xmm0, DWORD PTR ?mfd_screen_x_max@@3MA
  0047a	f3 0f 11 04 24	 movss	 DWORD PTR [esp], xmm0
  0047f	51		 push	 ecx
  00480	f3 0f 10 05 00
	00 00 00	 movss	 xmm0, DWORD PTR ?mfd_screen_y_min@@3MA
  00488	f3 0f 11 04 24	 movss	 DWORD PTR [esp], xmm0
  0048d	51		 push	 ecx
  0048e	f3 0f 10 05 00
	00 00 00	 movss	 xmm0, DWORD PTR ?mfd_screen_x_min@@3MA
  00496	f3 0f 11 04 24	 movss	 DWORD PTR [esp], xmm0
  0049b	e8 00 00 00 00	 call	 ?draw_translucent_mfd_background@@YGXMMMM@Z ; draw_translucent_mfd_background

; 13819: 
; 13820: 			set_2d_viewport (mfd_env, mfd_viewport_x_min, mfd_viewport_y_min, mfd_viewport_x_max, mfd_viewport_y_max);

  004a0	51		 push	 ecx
  004a1	f3 0f 10 05 00
	00 00 00	 movss	 xmm0, DWORD PTR ?mfd_viewport_y_max@@3MA
  004a9	f3 0f 11 04 24	 movss	 DWORD PTR [esp], xmm0
  004ae	51		 push	 ecx
  004af	f3 0f 10 05 00
	00 00 00	 movss	 xmm0, DWORD PTR ?mfd_viewport_x_max@@3MA
  004b7	f3 0f 11 04 24	 movss	 DWORD PTR [esp], xmm0
  004bc	51		 push	 ecx
  004bd	f3 0f 10 05 00
	00 00 00	 movss	 xmm0, DWORD PTR ?mfd_viewport_y_min@@3MA
  004c5	f3 0f 11 04 24	 movss	 DWORD PTR [esp], xmm0
  004ca	51		 push	 ecx
  004cb	f3 0f 10 05 00
	00 00 00	 movss	 xmm0, DWORD PTR ?mfd_viewport_x_min@@3MA
  004d3	f3 0f 11 04 24	 movss	 DWORD PTR [esp], xmm0
  004d8	a1 00 00 00 00	 mov	 eax, DWORD PTR ?mfd_env@@3PAUENV_2D@@A
  004dd	50		 push	 eax
  004de	e8 00 00 00 00	 call	 ?set_2d_viewport@@YGXPAUENV_2D@@MMMM@Z ; set_2d_viewport

; 13821: 
; 13822: 			set_active_screen (mfd_screen);

  004e3	8b 45 08	 mov	 eax, DWORD PTR _mfd_screen$[ebp]
  004e6	50		 push	 eax
  004e7	e8 00 00 00 00	 call	 ?set_active_screen@@YGHPAUSCREEN@@@Z ; set_active_screen

; 13823: 
; 13824: 			if (lock_screen (mfd_screen))

  004ec	8b 45 08	 mov	 eax, DWORD PTR _mfd_screen$[ebp]
  004ef	50		 push	 eax
  004f0	e8 00 00 00 00	 call	 ?lock_screen@@YGHPAUSCREEN@@@Z ; lock_screen
  004f5	85 c0		 test	 eax, eax
  004f7	74 3f		 je	 SHORT $LN23@draw_overl

; 13825: 			{
; 13826: 				set_block (0, 0, int_mfd_viewport_size - 1, int_mfd_viewport_size - 1, clear_mfd_colour);

  004f9	a1 00 00 00 00	 mov	 eax, DWORD PTR ?clear_mfd_colour@@3UREAL_COLOUR@@A
  004fe	50		 push	 eax
  004ff	8b 0d 00 00 00
	00		 mov	 ecx, DWORD PTR ?int_mfd_viewport_size@@3HA
  00505	83 e9 01	 sub	 ecx, 1
  00508	51		 push	 ecx
  00509	8b 15 00 00 00
	00		 mov	 edx, DWORD PTR ?int_mfd_viewport_size@@3HA
  0050f	83 ea 01	 sub	 edx, 1
  00512	52		 push	 edx
  00513	6a 00		 push	 0
  00515	6a 00		 push	 0
  00517	e8 00 00 00 00	 call	 ?set_block@@YGXHHHHUREAL_COLOUR@@@Z ; set_block

; 13827: 
; 13828: 				draw_layout_grid ();

  0051c	e8 00 00 00 00	 call	 ?draw_layout_grid@@YGXXZ ; draw_layout_grid

; 13829: 
; 13830: 				draw_air_radar_mfd ();

  00521	e8 00 00 00 00	 call	 ?draw_air_radar_mfd@@YGXXZ ; draw_air_radar_mfd

; 13831: 
; 13832: 				flush_screen_texture_graphics (mfd_screen);

  00526	8b 45 08	 mov	 eax, DWORD PTR _mfd_screen$[ebp]
  00529	50		 push	 eax
  0052a	e8 00 00 00 00	 call	 ?flush_screen_texture_graphics@@YGXPAUSCREEN@@@Z ; flush_screen_texture_graphics

; 13833: 
; 13834: 				unlock_screen (mfd_screen);

  0052f	8b 45 08	 mov	 eax, DWORD PTR _mfd_screen$[ebp]
  00532	50		 push	 eax
  00533	e8 00 00 00 00	 call	 ?unlock_screen@@YGHPAUSCREEN@@@Z ; unlock_screen
$LN23@draw_overl:

; 13835: 			}
; 13836: 
; 13837: 			break;

  00538	e9 85 0a 00 00	 jmp	 $LN4@draw_overl
$LN24@draw_overl:

; 13838: 		}
; 13839: 		////////////////////////////////////////
; 13840: 		case COMANCHE_MAIN_MFD_MODE_FLIR:
; 13841: 		////////////////////////////////////////
; 13842: 		{
; 13843: 			if (!comanche_damage.flir)

  0053d	a1 00 00 00 00	 mov	 eax, DWORD PTR ?comanche_damage@@3TCOMANCHE_DAMAGE_FLAGS@@A ; comanche_damage
  00542	d1 e8		 shr	 eax, 1
  00544	83 e0 01	 and	 eax, 1
  00547	75 0e		 jne	 SHORT $LN25@draw_overl

; 13844: 			{
; 13845: 				draw_full_screen_3d_eo_display (&comanche_flir, TARGET_ACQUISITION_SYSTEM_FLIR);

  00549	6a 03		 push	 3
  0054b	68 00 00 00 00	 push	 OFFSET ?comanche_flir@@3UEO_PARAMS_DYNAMIC_MOVE@@A ; comanche_flir
  00550	e8 00 00 00 00	 call	 ?draw_full_screen_3d_eo_display@@YGXPAUEO_PARAMS_DYNAMIC_MOVE@@W4TARGET_ACQUISITION_SYSTEMS@@@Z ; draw_full_screen_3d_eo_display

; 13846: 			}
; 13847: 			else

  00555	eb 3d		 jmp	 SHORT $LN26@draw_overl
$LN25@draw_overl:

; 13848: 			{
; 13849: 				draw_translucent_mfd_background (mfd_screen_x_min, mfd_screen_y_min, mfd_screen_x_max, mfd_screen_y_max);

  00557	51		 push	 ecx
  00558	f3 0f 10 05 00
	00 00 00	 movss	 xmm0, DWORD PTR ?mfd_screen_y_max@@3MA
  00560	f3 0f 11 04 24	 movss	 DWORD PTR [esp], xmm0
  00565	51		 push	 ecx
  00566	f3 0f 10 05 00
	00 00 00	 movss	 xmm0, DWORD PTR ?mfd_screen_x_max@@3MA
  0056e	f3 0f 11 04 24	 movss	 DWORD PTR [esp], xmm0
  00573	51		 push	 ecx
  00574	f3 0f 10 05 00
	00 00 00	 movss	 xmm0, DWORD PTR ?mfd_screen_y_min@@3MA
  0057c	f3 0f 11 04 24	 movss	 DWORD PTR [esp], xmm0
  00581	51		 push	 ecx
  00582	f3 0f 10 05 00
	00 00 00	 movss	 xmm0, DWORD PTR ?mfd_screen_x_min@@3MA
  0058a	f3 0f 11 04 24	 movss	 DWORD PTR [esp], xmm0
  0058f	e8 00 00 00 00	 call	 ?draw_translucent_mfd_background@@YGXMMMM@Z ; draw_translucent_mfd_background
$LN26@draw_overl:

; 13850: 			}
; 13851: 
; 13852: 			set_2d_viewport (mfd_env, mfd_viewport_x_min, mfd_viewport_y_min, mfd_viewport_x_max, mfd_viewport_y_max);

  00594	51		 push	 ecx
  00595	f3 0f 10 05 00
	00 00 00	 movss	 xmm0, DWORD PTR ?mfd_viewport_y_max@@3MA
  0059d	f3 0f 11 04 24	 movss	 DWORD PTR [esp], xmm0
  005a2	51		 push	 ecx
  005a3	f3 0f 10 05 00
	00 00 00	 movss	 xmm0, DWORD PTR ?mfd_viewport_x_max@@3MA
  005ab	f3 0f 11 04 24	 movss	 DWORD PTR [esp], xmm0
  005b0	51		 push	 ecx
  005b1	f3 0f 10 05 00
	00 00 00	 movss	 xmm0, DWORD PTR ?mfd_viewport_y_min@@3MA
  005b9	f3 0f 11 04 24	 movss	 DWORD PTR [esp], xmm0
  005be	51		 push	 ecx
  005bf	f3 0f 10 05 00
	00 00 00	 movss	 xmm0, DWORD PTR ?mfd_viewport_x_min@@3MA
  005c7	f3 0f 11 04 24	 movss	 DWORD PTR [esp], xmm0
  005cc	a1 00 00 00 00	 mov	 eax, DWORD PTR ?mfd_env@@3PAUENV_2D@@A
  005d1	50		 push	 eax
  005d2	e8 00 00 00 00	 call	 ?set_2d_viewport@@YGXPAUENV_2D@@MMMM@Z ; set_2d_viewport

; 13853: 
; 13854: 			set_active_screen (mfd_screen);

  005d7	8b 45 08	 mov	 eax, DWORD PTR _mfd_screen$[ebp]
  005da	50		 push	 eax
  005db	e8 00 00 00 00	 call	 ?set_active_screen@@YGHPAUSCREEN@@@Z ; set_active_screen

; 13855: 
; 13856: 			if (lock_screen (mfd_screen))

  005e0	8b 45 08	 mov	 eax, DWORD PTR _mfd_screen$[ebp]
  005e3	50		 push	 eax
  005e4	e8 00 00 00 00	 call	 ?lock_screen@@YGHPAUSCREEN@@@Z ; lock_screen
  005e9	85 c0		 test	 eax, eax
  005eb	74 41		 je	 SHORT $LN27@draw_overl

; 13857: 			{
; 13858: 				set_block (0, 0, int_mfd_viewport_size - 1, int_mfd_viewport_size - 1, clear_mfd_colour);

  005ed	a1 00 00 00 00	 mov	 eax, DWORD PTR ?clear_mfd_colour@@3UREAL_COLOUR@@A
  005f2	50		 push	 eax
  005f3	8b 0d 00 00 00
	00		 mov	 ecx, DWORD PTR ?int_mfd_viewport_size@@3HA
  005f9	83 e9 01	 sub	 ecx, 1
  005fc	51		 push	 ecx
  005fd	8b 15 00 00 00
	00		 mov	 edx, DWORD PTR ?int_mfd_viewport_size@@3HA
  00603	83 ea 01	 sub	 edx, 1
  00606	52		 push	 edx
  00607	6a 00		 push	 0
  00609	6a 00		 push	 0
  0060b	e8 00 00 00 00	 call	 ?set_block@@YGXHHHHUREAL_COLOUR@@@Z ; set_block

; 13859: 
; 13860: 				draw_layout_grid ();

  00610	e8 00 00 00 00	 call	 ?draw_layout_grid@@YGXXZ ; draw_layout_grid

; 13861: 
; 13862: 				draw_2d_flir_mfd (TRUE);

  00615	6a 01		 push	 1
  00617	e8 00 00 00 00	 call	 ?draw_2d_flir_mfd@@YGXH@Z ; draw_2d_flir_mfd

; 13863: 
; 13864: 				flush_screen_texture_graphics (mfd_screen);

  0061c	8b 45 08	 mov	 eax, DWORD PTR _mfd_screen$[ebp]
  0061f	50		 push	 eax
  00620	e8 00 00 00 00	 call	 ?flush_screen_texture_graphics@@YGXPAUSCREEN@@@Z ; flush_screen_texture_graphics

; 13865: 
; 13866: 				unlock_screen (mfd_screen);

  00625	8b 45 08	 mov	 eax, DWORD PTR _mfd_screen$[ebp]
  00628	50		 push	 eax
  00629	e8 00 00 00 00	 call	 ?unlock_screen@@YGHPAUSCREEN@@@Z ; unlock_screen
$LN27@draw_overl:

; 13867: 			}
; 13868: 
; 13869: 			set_pilots_full_screen_params (FALSE);

  0062e	6a 00		 push	 0
  00630	e8 00 00 00 00	 call	 ?set_pilots_full_screen_params@@YGXH@Z ; set_pilots_full_screen_params

; 13870: 
; 13871: 			break;

  00635	e9 88 09 00 00	 jmp	 $LN4@draw_overl
$LN28@draw_overl:

; 13872: 		}
; 13873: 		////////////////////////////////////////
; 13874: 		case COMANCHE_MAIN_MFD_MODE_DTV:
; 13875: 		////////////////////////////////////////
; 13876: 		{
; 13877: 			if (!comanche_damage.dtv)

  0063a	a1 00 00 00 00	 mov	 eax, DWORD PTR ?comanche_damage@@3TCOMANCHE_DAMAGE_FLAGS@@A ; comanche_damage
  0063f	c1 e8 02	 shr	 eax, 2
  00642	83 e0 01	 and	 eax, 1
  00645	75 0e		 jne	 SHORT $LN29@draw_overl

; 13878: 			{
; 13879: 				draw_full_screen_3d_eo_display (&comanche_dtv, TARGET_ACQUISITION_SYSTEM_DTV);

  00647	6a 04		 push	 4
  00649	68 00 00 00 00	 push	 OFFSET ?comanche_dtv@@3UEO_PARAMS_DYNAMIC_MOVE@@A ; comanche_dtv
  0064e	e8 00 00 00 00	 call	 ?draw_full_screen_3d_eo_display@@YGXPAUEO_PARAMS_DYNAMIC_MOVE@@W4TARGET_ACQUISITION_SYSTEMS@@@Z ; draw_full_screen_3d_eo_display

; 13880: 			}
; 13881: 			else

  00653	eb 3d		 jmp	 SHORT $LN30@draw_overl
$LN29@draw_overl:

; 13882: 			{
; 13883: 				draw_translucent_mfd_background (mfd_screen_x_min, mfd_screen_y_min, mfd_screen_x_max, mfd_screen_y_max);

  00655	51		 push	 ecx
  00656	f3 0f 10 05 00
	00 00 00	 movss	 xmm0, DWORD PTR ?mfd_screen_y_max@@3MA
  0065e	f3 0f 11 04 24	 movss	 DWORD PTR [esp], xmm0
  00663	51		 push	 ecx
  00664	f3 0f 10 05 00
	00 00 00	 movss	 xmm0, DWORD PTR ?mfd_screen_x_max@@3MA
  0066c	f3 0f 11 04 24	 movss	 DWORD PTR [esp], xmm0
  00671	51		 push	 ecx
  00672	f3 0f 10 05 00
	00 00 00	 movss	 xmm0, DWORD PTR ?mfd_screen_y_min@@3MA
  0067a	f3 0f 11 04 24	 movss	 DWORD PTR [esp], xmm0
  0067f	51		 push	 ecx
  00680	f3 0f 10 05 00
	00 00 00	 movss	 xmm0, DWORD PTR ?mfd_screen_x_min@@3MA
  00688	f3 0f 11 04 24	 movss	 DWORD PTR [esp], xmm0
  0068d	e8 00 00 00 00	 call	 ?draw_translucent_mfd_background@@YGXMMMM@Z ; draw_translucent_mfd_background
$LN30@draw_overl:

; 13884: 			}
; 13885: 
; 13886: 			set_2d_viewport (mfd_env, mfd_viewport_x_min, mfd_viewport_y_min, mfd_viewport_x_max, mfd_viewport_y_max);

  00692	51		 push	 ecx
  00693	f3 0f 10 05 00
	00 00 00	 movss	 xmm0, DWORD PTR ?mfd_viewport_y_max@@3MA
  0069b	f3 0f 11 04 24	 movss	 DWORD PTR [esp], xmm0
  006a0	51		 push	 ecx
  006a1	f3 0f 10 05 00
	00 00 00	 movss	 xmm0, DWORD PTR ?mfd_viewport_x_max@@3MA
  006a9	f3 0f 11 04 24	 movss	 DWORD PTR [esp], xmm0
  006ae	51		 push	 ecx
  006af	f3 0f 10 05 00
	00 00 00	 movss	 xmm0, DWORD PTR ?mfd_viewport_y_min@@3MA
  006b7	f3 0f 11 04 24	 movss	 DWORD PTR [esp], xmm0
  006bc	51		 push	 ecx
  006bd	f3 0f 10 05 00
	00 00 00	 movss	 xmm0, DWORD PTR ?mfd_viewport_x_min@@3MA
  006c5	f3 0f 11 04 24	 movss	 DWORD PTR [esp], xmm0
  006ca	a1 00 00 00 00	 mov	 eax, DWORD PTR ?mfd_env@@3PAUENV_2D@@A
  006cf	50		 push	 eax
  006d0	e8 00 00 00 00	 call	 ?set_2d_viewport@@YGXPAUENV_2D@@MMMM@Z ; set_2d_viewport

; 13887: 
; 13888: 			set_active_screen (mfd_screen);

  006d5	8b 45 08	 mov	 eax, DWORD PTR _mfd_screen$[ebp]
  006d8	50		 push	 eax
  006d9	e8 00 00 00 00	 call	 ?set_active_screen@@YGHPAUSCREEN@@@Z ; set_active_screen

; 13889: 
; 13890: 			if (lock_screen (mfd_screen))

  006de	8b 45 08	 mov	 eax, DWORD PTR _mfd_screen$[ebp]
  006e1	50		 push	 eax
  006e2	e8 00 00 00 00	 call	 ?lock_screen@@YGHPAUSCREEN@@@Z ; lock_screen
  006e7	85 c0		 test	 eax, eax
  006e9	74 41		 je	 SHORT $LN31@draw_overl

; 13891: 			{
; 13892: 				set_block (0, 0, int_mfd_viewport_size - 1, int_mfd_viewport_size - 1, clear_mfd_colour);

  006eb	a1 00 00 00 00	 mov	 eax, DWORD PTR ?clear_mfd_colour@@3UREAL_COLOUR@@A
  006f0	50		 push	 eax
  006f1	8b 0d 00 00 00
	00		 mov	 ecx, DWORD PTR ?int_mfd_viewport_size@@3HA
  006f7	83 e9 01	 sub	 ecx, 1
  006fa	51		 push	 ecx
  006fb	8b 15 00 00 00
	00		 mov	 edx, DWORD PTR ?int_mfd_viewport_size@@3HA
  00701	83 ea 01	 sub	 edx, 1
  00704	52		 push	 edx
  00705	6a 00		 push	 0
  00707	6a 00		 push	 0
  00709	e8 00 00 00 00	 call	 ?set_block@@YGXHHHHUREAL_COLOUR@@@Z ; set_block

; 13893: 
; 13894: 				draw_layout_grid ();

  0070e	e8 00 00 00 00	 call	 ?draw_layout_grid@@YGXXZ ; draw_layout_grid

; 13895: 
; 13896: 				draw_2d_dtv_mfd (TRUE);

  00713	6a 01		 push	 1
  00715	e8 00 00 00 00	 call	 ?draw_2d_dtv_mfd@@YGXH@Z ; draw_2d_dtv_mfd

; 13897: 
; 13898: 				flush_screen_texture_graphics (mfd_screen);

  0071a	8b 45 08	 mov	 eax, DWORD PTR _mfd_screen$[ebp]
  0071d	50		 push	 eax
  0071e	e8 00 00 00 00	 call	 ?flush_screen_texture_graphics@@YGXPAUSCREEN@@@Z ; flush_screen_texture_graphics

; 13899: 
; 13900: 				unlock_screen (mfd_screen);

  00723	8b 45 08	 mov	 eax, DWORD PTR _mfd_screen$[ebp]
  00726	50		 push	 eax
  00727	e8 00 00 00 00	 call	 ?unlock_screen@@YGHPAUSCREEN@@@Z ; unlock_screen
$LN31@draw_overl:

; 13901: 			}
; 13902: 
; 13903: 			set_pilots_full_screen_params (FALSE);

  0072c	6a 00		 push	 0
  0072e	e8 00 00 00 00	 call	 ?set_pilots_full_screen_params@@YGXH@Z ; set_pilots_full_screen_params

; 13904: 
; 13905: 			break;

  00733	e9 8a 08 00 00	 jmp	 $LN4@draw_overl
$LN32@draw_overl:

; 13906: 		}
; 13907: 		////////////////////////////////////////
; 13908: 		case COMANCHE_MAIN_MFD_MODE_DVO:
; 13909: 		////////////////////////////////////////
; 13910: 		{
; 13911: 			if (!comanche_damage.dvo)

  00738	a1 00 00 00 00	 mov	 eax, DWORD PTR ?comanche_damage@@3TCOMANCHE_DAMAGE_FLAGS@@A ; comanche_damage
  0073d	c1 e8 03	 shr	 eax, 3
  00740	83 e0 01	 and	 eax, 1
  00743	75 0e		 jne	 SHORT $LN33@draw_overl

; 13912: 			{
; 13913: 				draw_full_screen_3d_eo_display (&comanche_dvo, TARGET_ACQUISITION_SYSTEM_DVO);

  00745	6a 05		 push	 5
  00747	68 00 00 00 00	 push	 OFFSET ?comanche_dvo@@3UEO_PARAMS_DYNAMIC_MOVE@@A ; comanche_dvo
  0074c	e8 00 00 00 00	 call	 ?draw_full_screen_3d_eo_display@@YGXPAUEO_PARAMS_DYNAMIC_MOVE@@W4TARGET_ACQUISITION_SYSTEMS@@@Z ; draw_full_screen_3d_eo_display

; 13914: 			}
; 13915: 			else

  00751	eb 3d		 jmp	 SHORT $LN34@draw_overl
$LN33@draw_overl:

; 13916: 			{
; 13917: 				draw_translucent_mfd_background (mfd_screen_x_min, mfd_screen_y_min, mfd_screen_x_max, mfd_screen_y_max);

  00753	51		 push	 ecx
  00754	f3 0f 10 05 00
	00 00 00	 movss	 xmm0, DWORD PTR ?mfd_screen_y_max@@3MA
  0075c	f3 0f 11 04 24	 movss	 DWORD PTR [esp], xmm0
  00761	51		 push	 ecx
  00762	f3 0f 10 05 00
	00 00 00	 movss	 xmm0, DWORD PTR ?mfd_screen_x_max@@3MA
  0076a	f3 0f 11 04 24	 movss	 DWORD PTR [esp], xmm0
  0076f	51		 push	 ecx
  00770	f3 0f 10 05 00
	00 00 00	 movss	 xmm0, DWORD PTR ?mfd_screen_y_min@@3MA
  00778	f3 0f 11 04 24	 movss	 DWORD PTR [esp], xmm0
  0077d	51		 push	 ecx
  0077e	f3 0f 10 05 00
	00 00 00	 movss	 xmm0, DWORD PTR ?mfd_screen_x_min@@3MA
  00786	f3 0f 11 04 24	 movss	 DWORD PTR [esp], xmm0
  0078b	e8 00 00 00 00	 call	 ?draw_translucent_mfd_background@@YGXMMMM@Z ; draw_translucent_mfd_background
$LN34@draw_overl:

; 13918: 			}
; 13919: 
; 13920: 			set_2d_viewport (mfd_env, mfd_viewport_x_min, mfd_viewport_y_min, mfd_viewport_x_max, mfd_viewport_y_max);

  00790	51		 push	 ecx
  00791	f3 0f 10 05 00
	00 00 00	 movss	 xmm0, DWORD PTR ?mfd_viewport_y_max@@3MA
  00799	f3 0f 11 04 24	 movss	 DWORD PTR [esp], xmm0
  0079e	51		 push	 ecx
  0079f	f3 0f 10 05 00
	00 00 00	 movss	 xmm0, DWORD PTR ?mfd_viewport_x_max@@3MA
  007a7	f3 0f 11 04 24	 movss	 DWORD PTR [esp], xmm0
  007ac	51		 push	 ecx
  007ad	f3 0f 10 05 00
	00 00 00	 movss	 xmm0, DWORD PTR ?mfd_viewport_y_min@@3MA
  007b5	f3 0f 11 04 24	 movss	 DWORD PTR [esp], xmm0
  007ba	51		 push	 ecx
  007bb	f3 0f 10 05 00
	00 00 00	 movss	 xmm0, DWORD PTR ?mfd_viewport_x_min@@3MA
  007c3	f3 0f 11 04 24	 movss	 DWORD PTR [esp], xmm0
  007c8	a1 00 00 00 00	 mov	 eax, DWORD PTR ?mfd_env@@3PAUENV_2D@@A
  007cd	50		 push	 eax
  007ce	e8 00 00 00 00	 call	 ?set_2d_viewport@@YGXPAUENV_2D@@MMMM@Z ; set_2d_viewport

; 13921: 
; 13922: 			set_active_screen (mfd_screen);

  007d3	8b 45 08	 mov	 eax, DWORD PTR _mfd_screen$[ebp]
  007d6	50		 push	 eax
  007d7	e8 00 00 00 00	 call	 ?set_active_screen@@YGHPAUSCREEN@@@Z ; set_active_screen

; 13923: 
; 13924: 			if (lock_screen (mfd_screen))

  007dc	8b 45 08	 mov	 eax, DWORD PTR _mfd_screen$[ebp]
  007df	50		 push	 eax
  007e0	e8 00 00 00 00	 call	 ?lock_screen@@YGHPAUSCREEN@@@Z ; lock_screen
  007e5	85 c0		 test	 eax, eax
  007e7	74 41		 je	 SHORT $LN35@draw_overl

; 13925: 			{
; 13926: 				set_block (0, 0, int_mfd_viewport_size - 1, int_mfd_viewport_size - 1, clear_mfd_colour);

  007e9	a1 00 00 00 00	 mov	 eax, DWORD PTR ?clear_mfd_colour@@3UREAL_COLOUR@@A
  007ee	50		 push	 eax
  007ef	8b 0d 00 00 00
	00		 mov	 ecx, DWORD PTR ?int_mfd_viewport_size@@3HA
  007f5	83 e9 01	 sub	 ecx, 1
  007f8	51		 push	 ecx
  007f9	8b 15 00 00 00
	00		 mov	 edx, DWORD PTR ?int_mfd_viewport_size@@3HA
  007ff	83 ea 01	 sub	 edx, 1
  00802	52		 push	 edx
  00803	6a 00		 push	 0
  00805	6a 00		 push	 0
  00807	e8 00 00 00 00	 call	 ?set_block@@YGXHHHHUREAL_COLOUR@@@Z ; set_block

; 13927: 
; 13928: 				draw_layout_grid ();

  0080c	e8 00 00 00 00	 call	 ?draw_layout_grid@@YGXXZ ; draw_layout_grid

; 13929: 
; 13930: 				draw_2d_dvo_mfd (TRUE);

  00811	6a 01		 push	 1
  00813	e8 00 00 00 00	 call	 ?draw_2d_dvo_mfd@@YGXH@Z ; draw_2d_dvo_mfd

; 13931: 
; 13932: 				flush_screen_texture_graphics (mfd_screen);

  00818	8b 45 08	 mov	 eax, DWORD PTR _mfd_screen$[ebp]
  0081b	50		 push	 eax
  0081c	e8 00 00 00 00	 call	 ?flush_screen_texture_graphics@@YGXPAUSCREEN@@@Z ; flush_screen_texture_graphics

; 13933: 
; 13934: 				unlock_screen (mfd_screen);

  00821	8b 45 08	 mov	 eax, DWORD PTR _mfd_screen$[ebp]
  00824	50		 push	 eax
  00825	e8 00 00 00 00	 call	 ?unlock_screen@@YGHPAUSCREEN@@@Z ; unlock_screen
$LN35@draw_overl:

; 13935: 			}
; 13936: 
; 13937: 			set_pilots_full_screen_params (FALSE);

  0082a	6a 00		 push	 0
  0082c	e8 00 00 00 00	 call	 ?set_pilots_full_screen_params@@YGXH@Z ; set_pilots_full_screen_params

; 13938: 
; 13939: 			break;

  00831	e9 8c 07 00 00	 jmp	 $LN4@draw_overl
$LN36@draw_overl:

; 13940: 		}
; 13941: 		////////////////////////////////////////
; 13942: 		case COMANCHE_MAIN_MFD_MODE_TSD:
; 13943: 		////////////////////////////////////////
; 13944: 		{
; 13945: 			draw_translucent_mfd_background (mfd_screen_x_min, mfd_screen_y_min, mfd_screen_x_max, mfd_screen_y_max);

  00836	51		 push	 ecx
  00837	f3 0f 10 05 00
	00 00 00	 movss	 xmm0, DWORD PTR ?mfd_screen_y_max@@3MA
  0083f	f3 0f 11 04 24	 movss	 DWORD PTR [esp], xmm0
  00844	51		 push	 ecx
  00845	f3 0f 10 05 00
	00 00 00	 movss	 xmm0, DWORD PTR ?mfd_screen_x_max@@3MA
  0084d	f3 0f 11 04 24	 movss	 DWORD PTR [esp], xmm0
  00852	51		 push	 ecx
  00853	f3 0f 10 05 00
	00 00 00	 movss	 xmm0, DWORD PTR ?mfd_screen_y_min@@3MA
  0085b	f3 0f 11 04 24	 movss	 DWORD PTR [esp], xmm0
  00860	51		 push	 ecx
  00861	f3 0f 10 05 00
	00 00 00	 movss	 xmm0, DWORD PTR ?mfd_screen_x_min@@3MA
  00869	f3 0f 11 04 24	 movss	 DWORD PTR [esp], xmm0
  0086e	e8 00 00 00 00	 call	 ?draw_translucent_mfd_background@@YGXMMMM@Z ; draw_translucent_mfd_background

; 13946: 
; 13947: 			set_2d_viewport (mfd_env, mfd_viewport_x_min, mfd_viewport_y_min, mfd_viewport_x_max, mfd_viewport_y_max);

  00873	51		 push	 ecx
  00874	f3 0f 10 05 00
	00 00 00	 movss	 xmm0, DWORD PTR ?mfd_viewport_y_max@@3MA
  0087c	f3 0f 11 04 24	 movss	 DWORD PTR [esp], xmm0
  00881	51		 push	 ecx
  00882	f3 0f 10 05 00
	00 00 00	 movss	 xmm0, DWORD PTR ?mfd_viewport_x_max@@3MA
  0088a	f3 0f 11 04 24	 movss	 DWORD PTR [esp], xmm0
  0088f	51		 push	 ecx
  00890	f3 0f 10 05 00
	00 00 00	 movss	 xmm0, DWORD PTR ?mfd_viewport_y_min@@3MA
  00898	f3 0f 11 04 24	 movss	 DWORD PTR [esp], xmm0
  0089d	51		 push	 ecx
  0089e	f3 0f 10 05 00
	00 00 00	 movss	 xmm0, DWORD PTR ?mfd_viewport_x_min@@3MA
  008a6	f3 0f 11 04 24	 movss	 DWORD PTR [esp], xmm0
  008ab	a1 00 00 00 00	 mov	 eax, DWORD PTR ?mfd_env@@3PAUENV_2D@@A
  008b0	50		 push	 eax
