; Listing generated by Microsoft (R) Optimizing Compiler Version 19.16.27045.0 

	TITLE	C:\Users\nhv90\Projects\eech\aphavoc\source\entity\special\camera\cm_msgs.c
	.686P
	.XMM
	include listing.inc
	.model	flat

INCLUDELIB MSVCRTD
INCLUDELIB OLDNAMES

PUBLIC	?overload_camera_message_responses@@YGXXZ	; overload_camera_message_responses
PUBLIC	?__LINE__Var@?0??response_to_unlink_child@@YGHW4ENTITY_MESSAGES@@PAUENTITY@@1PAD@Z@4JA ; `response_to_unlink_child'::`1'::__LINE__Var
PUBLIC	??_C@_0EM@NADBFADK@c?3?2users?2nhv90?2projects?2eech?2ap@ ; `string'
PUBLIC	??_C@_06CGHJMPBJ@sender@			; `string'
EXTRN	?process_assert@@YGXPBD0H@Z:PROC		; process_assert
EXTRN	?notify_local_entity@@YAHW4ENTITY_MESSAGES@@PAUENTITY@@1ZZ:PROC ; notify_local_entity
EXTRN	?set_camera_action@@YGXPAUCAMERA@@W4CAMERA_ACTIONS@@@Z:PROC ; set_camera_action
EXTRN	?reset_weapon_explosion_camera_position@@YGXPAUVEC3D@@@Z:PROC ; reset_weapon_explosion_camera_position
EXTRN	?notify_view_menu_of_view_list_change@@YGXPAUENTITY@@@Z:PROC ; notify_view_menu_of_view_list_change
EXTRN	?null_entity_pointer_message@@3PBDB:DWORD	; null_entity_pointer_message
EXTRN	?message_responses@@3PAY0GB@P6GHW4ENTITY_MESSAGES@@PAUENTITY@@1PAD@ZA:BYTE ; message_responses
EXTRN	?overload_invalid_int_type_message@@3PBDB:DWORD	; overload_invalid_int_type_message
EXTRN	?fn_get_local_entity_int_value@@3PAY0BBH@P6GHPAUENTITY@@W4INT_TYPES@@@ZA:BYTE ; fn_get_local_entity_int_value
EXTRN	?overload_invalid_vec3d_type_message@@3PBDB:DWORD ; overload_invalid_vec3d_type_message
EXTRN	?fn_get_local_entity_vec3d_ptr@@3PAY0BI@P6GPAUVEC3D@@PAUENTITY@@W4VEC3D_TYPES@@@ZA:BYTE ; fn_get_local_entity_vec3d_ptr
EXTRN	?camera_entity@@3PAUENTITY@@A:DWORD		; camera_entity
EXTRN	?view_mode@@3W4VIEW_MODES@@A:DWORD		; view_mode
;	COMDAT ??_C@_06CGHJMPBJ@sender@
CONST	SEGMENT
??_C@_06CGHJMPBJ@sender@ DB 'sender', 00H		; `string'
CONST	ENDS
;	COMDAT ??_C@_0EM@NADBFADK@c?3?2users?2nhv90?2projects?2eech?2ap@
CONST	SEGMENT
??_C@_0EM@NADBFADK@c?3?2users?2nhv90?2projects?2eech?2ap@ DB 'c:\users\nh'
	DB	'v90\projects\eech\aphavoc\source\entity\special\camera\cm_msg'
	DB	's.c', 00H					; `string'
CONST	ENDS
;	COMDAT ?__LINE__Var@?0??response_to_unlink_child@@YGHW4ENTITY_MESSAGES@@PAUENTITY@@1PAD@Z@4JA
_DATA	SEGMENT
?__LINE__Var@?0??response_to_unlink_child@@YGHW4ENTITY_MESSAGES@@PAUENTITY@@1PAD@Z@4JA DD 069H ; `response_to_unlink_child'::`1'::__LINE__Var
_DATA	ENDS
; Function compile flags: /Odtp /ZI
; File c:\users\nhv90\projects\eech\aphavoc\source\entity\special\camera\cm_msgs.c
;	COMDAT ?response_to_set_camera_action@@YGHW4ENTITY_MESSAGES@@PAUENTITY@@1PAD@Z
_TEXT	SEGMENT
_action$ = -8						; size = 4
_raw$ = -4						; size = 4
_message$ = 8						; size = 4
_receiver$ = 12						; size = 4
_sender$ = 16						; size = 4
_pargs$ = 20						; size = 4
?response_to_set_camera_action@@YGHW4ENTITY_MESSAGES@@PAUENTITY@@1PAD@Z PROC ; response_to_set_camera_action, COMDAT

; 195  : {

  00000	55		 push	 ebp
  00001	8b ec		 mov	 ebp, esp
  00003	83 ec 48	 sub	 esp, 72			; 00000048H
  00006	53		 push	 ebx
  00007	56		 push	 esi
  00008	57		 push	 edi

; 196  : 	camera
; 197  : 		*raw;
; 198  : 
; 199  : 	camera_actions
; 200  : 		action;
; 201  : 
; 202  : 	#if DEBUG_MODULE
; 203  : 
; 204  : 	debug_log_entity_message (message, receiver, sender, pargs);
; 205  : 
; 206  : 	#endif
; 207  : 
; 208  : 	raw = (camera *) get_local_entity_data (receiver);

  00009	8b 45 0c	 mov	 eax, DWORD PTR _receiver$[ebp]
  0000c	8b 48 04	 mov	 ecx, DWORD PTR [eax+4]
  0000f	89 4d fc	 mov	 DWORD PTR _raw$[ebp], ecx

; 209  : 
; 210  : 	action = (camera_actions) va_arg (pargs, int);

  00012	8b 45 14	 mov	 eax, DWORD PTR _pargs$[ebp]
  00015	83 c0 04	 add	 eax, 4
  00018	89 45 14	 mov	 DWORD PTR _pargs$[ebp], eax
  0001b	8b 4d 14	 mov	 ecx, DWORD PTR _pargs$[ebp]
  0001e	8b 51 fc	 mov	 edx, DWORD PTR [ecx-4]
  00021	89 55 f8	 mov	 DWORD PTR _action$[ebp], edx

; 211  : 
; 212  : 	set_camera_action (raw, action);

  00024	8b 45 f8	 mov	 eax, DWORD PTR _action$[ebp]
  00027	50		 push	 eax
  00028	8b 4d fc	 mov	 ecx, DWORD PTR _raw$[ebp]
  0002b	51		 push	 ecx
  0002c	e8 00 00 00 00	 call	 ?set_camera_action@@YGXPAUCAMERA@@W4CAMERA_ACTIONS@@@Z ; set_camera_action

; 213  : 
; 214  : 	return (TRUE);

  00031	b8 01 00 00 00	 mov	 eax, 1

; 215  : }

  00036	5f		 pop	 edi
  00037	5e		 pop	 esi
  00038	5b		 pop	 ebx
  00039	8b e5		 mov	 esp, ebp
  0003b	5d		 pop	 ebp
  0003c	c2 10 00	 ret	 16			; 00000010H
?response_to_set_camera_action@@YGHW4ENTITY_MESSAGES@@PAUENTITY@@1PAD@Z ENDP ; response_to_set_camera_action
_TEXT	ENDS
; Function compile flags: /Odtp /ZI
; File c:\users\nhv90\projects\eech\aphavoc\source\entity\special\camera\cm_msgs.c
;	COMDAT ?response_to_unlink_child@@YGHW4ENTITY_MESSAGES@@PAUENTITY@@1PAD@Z
_TEXT	SEGMENT
tv147 = -80						; size = 4
tv90 = -80						; size = 4
tv139 = -76						; size = 4
tv83 = -76						; size = 4
tv67 = -76						; size = 4
_list_type$ = -8					; size = 4
_raw$ = -4						; size = 4
_message$ = 8						; size = 4
_receiver$ = 12						; size = 4
_sender$ = 16						; size = 4
_pargs$ = 20						; size = 4
?response_to_unlink_child@@YGHW4ENTITY_MESSAGES@@PAUENTITY@@1PAD@Z PROC ; response_to_unlink_child, COMDAT

; 105  : {

  00000	55		 push	 ebp
  00001	8b ec		 mov	 ebp, esp
  00003	83 ec 50	 sub	 esp, 80			; 00000050H
  00006	53		 push	 ebx
  00007	56		 push	 esi
  00008	57		 push	 edi

; 106  : 	camera
; 107  : 		*raw;
; 108  : 
; 109  : 	list_types
; 110  : 		list_type;
; 111  : 
; 112  : 	#if DEBUG_MODULE
; 113  : 
; 114  : 	debug_log_entity_message (message, receiver, sender, pargs);
; 115  : 
; 116  : 	#endif
; 117  : 
; 118  : 	raw = (camera *) get_local_entity_data (receiver);

  00009	8b 45 0c	 mov	 eax, DWORD PTR _receiver$[ebp]
  0000c	8b 48 04	 mov	 ecx, DWORD PTR [eax+4]
  0000f	89 4d fc	 mov	 DWORD PTR _raw$[ebp], ecx

; 119  : 
; 120  : 	list_type = va_arg (pargs, list_types);

  00012	8b 45 14	 mov	 eax, DWORD PTR _pargs$[ebp]
  00015	83 c0 04	 add	 eax, 4
  00018	89 45 14	 mov	 DWORD PTR _pargs$[ebp], eax
  0001b	8b 4d 14	 mov	 ecx, DWORD PTR _pargs$[ebp]
  0001e	8b 51 fc	 mov	 edx, DWORD PTR [ecx-4]
  00021	89 55 f8	 mov	 DWORD PTR _list_type$[ebp], edx

; 121  : 
; 122  : 	switch (list_type)

  00024	8b 45 f8	 mov	 eax, DWORD PTR _list_type$[ebp]
  00027	89 45 b4	 mov	 DWORD PTR tv67[ebp], eax
  0002a	83 7d b4 2a	 cmp	 DWORD PTR tv67[ebp], 42	; 0000002aH
  0002e	74 0b		 je	 SHORT $LN4@response_t
  00030	83 7d b4 2b	 cmp	 DWORD PTR tv67[ebp], 43	; 0000002bH
  00034	74 2e		 je	 SHORT $LN6@response_t
  00036	e9 6e 01 00 00	 jmp	 $LN2@response_t
$LN4@response_t:

; 123  : 	{
; 124  : 		////////////////////////////////////////
; 125  : 		case LIST_TYPE_VIEW:
; 126  : 		////////////////////////////////////////
; 127  : 		{
; 128  : 			if (raw->external_view_entity == sender)

  0003b	8b 45 fc	 mov	 eax, DWORD PTR _raw$[ebp]
  0003e	8b 88 24 01 00
	00		 mov	 ecx, DWORD PTR [eax+292]
  00044	3b 4d 10	 cmp	 ecx, DWORD PTR _sender$[ebp]
  00047	75 0d		 jne	 SHORT $LN5@response_t

; 129  : 			{
; 130  : 				raw->external_view_entity = NULL;

  00049	8b 45 fc	 mov	 eax, DWORD PTR _raw$[ebp]
  0004c	c7 80 24 01 00
	00 00 00 00 00	 mov	 DWORD PTR [eax+292], 0
$LN5@response_t:

; 131  : 			}
; 132  : 
; 133  : 			notify_view_menu_of_view_list_change (sender);

  00056	8b 45 10	 mov	 eax, DWORD PTR _sender$[ebp]
  00059	50		 push	 eax
  0005a	e8 00 00 00 00	 call	 ?notify_view_menu_of_view_list_change@@YGXPAUENTITY@@@Z ; notify_view_menu_of_view_list_change

; 134  : 
; 135  : 			break;

  0005f	e9 45 01 00 00	 jmp	 $LN2@response_t
$LN6@response_t:

; 136  : 		}
; 137  : 		////////////////////////////////////////
; 138  : 		case LIST_TYPE_VIEW_WEAPON:
; 139  : 		////////////////////////////////////////
; 140  : 		{
; 141  : 			ASSERT (sender);

  00064	83 7d 10 00	 cmp	 DWORD PTR _sender$[ebp], 0
  00068	75 18		 jne	 SHORT $LN7@response_t
  0006a	a1 00 00 00 00	 mov	 eax, DWORD PTR ?__LINE__Var@?0??response_to_unlink_child@@YGHW4ENTITY_MESSAGES@@PAUENTITY@@1PAD@Z@4JA
  0006f	83 c0 24	 add	 eax, 36			; 00000024H
  00072	50		 push	 eax
  00073	68 00 00 00 00	 push	 OFFSET ??_C@_0EM@NADBFADK@c?3?2users?2nhv90?2projects?2eech?2ap@
  00078	68 00 00 00 00	 push	 OFFSET ??_C@_06CGHJMPBJ@sender@
  0007d	e8 00 00 00 00	 call	 ?process_assert@@YGXPBD0H@Z ; process_assert
$LN7@response_t:

; 142  : 
; 143  : 			if (get_view_mode () == VIEW_MODE_EXTERNAL)

  00082	83 3d 00 00 00
	00 2a		 cmp	 DWORD PTR ?view_mode@@3W4VIEW_MODES@@A, 42 ; view_mode, 0000002aH
  00089	0f 85 1a 01 00
	00		 jne	 $LN2@response_t

; 144  : 			{
; 145  : 				if (get_local_entity_int_value (get_camera_entity (), INT_TYPE_CAMERA_MODE) == CAMERA_MODE_WEAPON)

  0008f	83 3d 00 00 00
	00 00		 cmp	 DWORD PTR ?camera_entity@@3PAUENTITY@@A, 0 ; camera_entity
  00096	74 0c		 je	 SHORT $LN11@response_t
  00098	a1 00 00 00 00	 mov	 eax, DWORD PTR ?camera_entity@@3PAUENTITY@@A ; camera_entity
  0009d	8b 08		 mov	 ecx, DWORD PTR [eax]
  0009f	89 4d b4	 mov	 DWORD PTR tv83[ebp], ecx
  000a2	eb 1d		 jmp	 SHORT $LN12@response_t
$LN11@response_t:
  000a4	68 91 00 00 00	 push	 145			; 00000091H
  000a9	68 00 00 00 00	 push	 OFFSET ??_C@_0EM@NADBFADK@c?3?2users?2nhv90?2projects?2eech?2ap@
  000ae	8b 15 00 00 00
	00		 mov	 edx, DWORD PTR ?null_entity_pointer_message@@3PBDB ; null_entity_pointer_message
  000b4	52		 push	 edx
  000b5	e8 00 00 00 00	 call	 ?process_assert@@YGXPBD0H@Z ; process_assert
  000ba	c7 45 b4 00 00
	00 00		 mov	 DWORD PTR tv83[ebp], 0
$LN12@response_t:
  000c1	b8 01 00 00 00	 mov	 eax, 1
  000c6	85 c0		 test	 eax, eax
  000c8	74 09		 je	 SHORT $LN13@response_t
  000ca	c7 45 b0 10 00
	00 00		 mov	 DWORD PTR tv90[ebp], 16	; 00000010H
  000d1	eb 1d		 jmp	 SHORT $LN14@response_t
$LN13@response_t:
  000d3	68 91 00 00 00	 push	 145			; 00000091H
  000d8	68 00 00 00 00	 push	 OFFSET ??_C@_0EM@NADBFADK@c?3?2users?2nhv90?2projects?2eech?2ap@
  000dd	8b 0d 00 00 00
	00		 mov	 ecx, DWORD PTR ?overload_invalid_int_type_message@@3PBDB ; overload_invalid_int_type_message
  000e3	51		 push	 ecx
  000e4	e8 00 00 00 00	 call	 ?process_assert@@YGXPBD0H@Z ; process_assert
  000e9	c7 45 b0 00 00
	00 00		 mov	 DWORD PTR tv90[ebp], 0
$LN14@response_t:
  000f0	6a 10		 push	 16			; 00000010H
  000f2	8b 15 00 00 00
	00		 mov	 edx, DWORD PTR ?camera_entity@@3PAUENTITY@@A ; camera_entity
  000f8	52		 push	 edx
  000f9	69 45 b4 5c 04
	00 00		 imul	 eax, DWORD PTR tv83[ebp], 1116
  00100	8b 4d b0	 mov	 ecx, DWORD PTR tv90[ebp]
  00103	8b 94 88 00 00
	00 00		 mov	 edx, DWORD PTR ?fn_get_local_entity_int_value@@3PAY0BBH@P6GHPAUENTITY@@W4INT_TYPES@@@ZA[eax+ecx*4]
  0010a	ff d2		 call	 edx
  0010c	83 f8 09	 cmp	 eax, 9
  0010f	0f 85 94 00 00
	00		 jne	 $LN2@response_t

; 146  : 				{
; 147  : 					notify_local_entity (ENTITY_MESSAGE_SET_CAMERA_ACTION, get_camera_entity (), NULL, CAMERA_ACTION_WEAPON_EXPLOSION);

  00115	6a 0c		 push	 12			; 0000000cH
  00117	6a 00		 push	 0
  00119	a1 00 00 00 00	 mov	 eax, DWORD PTR ?camera_entity@@3PAUENTITY@@A ; camera_entity
  0011e	50		 push	 eax
  0011f	6a 2f		 push	 47			; 0000002fH
  00121	e8 00 00 00 00	 call	 ?notify_local_entity@@YAHW4ENTITY_MESSAGES@@PAUENTITY@@1ZZ ; notify_local_entity
  00126	83 c4 10	 add	 esp, 16			; 00000010H

; 148  : 
; 149  : 					reset_weapon_explosion_camera_position (get_local_entity_vec3d_ptr (sender, VEC3D_TYPE_POSITION));

  00129	83 7d 10 00	 cmp	 DWORD PTR _sender$[ebp], 0
  0012d	74 0a		 je	 SHORT $LN15@response_t
  0012f	8b 45 10	 mov	 eax, DWORD PTR _sender$[ebp]
  00132	8b 08		 mov	 ecx, DWORD PTR [eax]
  00134	89 4d b4	 mov	 DWORD PTR tv139[ebp], ecx
  00137	eb 21		 jmp	 SHORT $LN16@response_t
$LN15@response_t:
  00139	8b 15 00 00 00
	00		 mov	 edx, DWORD PTR ?__LINE__Var@?0??response_to_unlink_child@@YGHW4ENTITY_MESSAGES@@PAUENTITY@@1PAD@Z@4JA
  0013f	83 c2 2c	 add	 edx, 44			; 0000002cH
  00142	52		 push	 edx
  00143	68 00 00 00 00	 push	 OFFSET ??_C@_0EM@NADBFADK@c?3?2users?2nhv90?2projects?2eech?2ap@
  00148	a1 00 00 00 00	 mov	 eax, DWORD PTR ?null_entity_pointer_message@@3PBDB ; null_entity_pointer_message
  0014d	50		 push	 eax
  0014e	e8 00 00 00 00	 call	 ?process_assert@@YGXPBD0H@Z ; process_assert
  00153	c7 45 b4 00 00
	00 00		 mov	 DWORD PTR tv139[ebp], 0
$LN16@response_t:
  0015a	b9 01 00 00 00	 mov	 ecx, 1
  0015f	85 c9		 test	 ecx, ecx
  00161	74 09		 je	 SHORT $LN17@response_t
  00163	c7 45 b0 08 00
	00 00		 mov	 DWORD PTR tv147[ebp], 8
  0016a	eb 21		 jmp	 SHORT $LN18@response_t
$LN17@response_t:
  0016c	8b 15 00 00 00
	00		 mov	 edx, DWORD PTR ?__LINE__Var@?0??response_to_unlink_child@@YGHW4ENTITY_MESSAGES@@PAUENTITY@@1PAD@Z@4JA
  00172	83 c2 2c	 add	 edx, 44			; 0000002cH
  00175	52		 push	 edx
  00176	68 00 00 00 00	 push	 OFFSET ??_C@_0EM@NADBFADK@c?3?2users?2nhv90?2projects?2eech?2ap@
  0017b	a1 00 00 00 00	 mov	 eax, DWORD PTR ?overload_invalid_vec3d_type_message@@3PBDB ; overload_invalid_vec3d_type_message
  00180	50		 push	 eax
  00181	e8 00 00 00 00	 call	 ?process_assert@@YGXPBD0H@Z ; process_assert
  00186	c7 45 b0 00 00
	00 00		 mov	 DWORD PTR tv147[ebp], 0
$LN18@response_t:
  0018d	6a 08		 push	 8
  0018f	8b 4d 10	 mov	 ecx, DWORD PTR _sender$[ebp]
  00192	51		 push	 ecx
  00193	6b 55 b4 60	 imul	 edx, DWORD PTR tv139[ebp], 96
  00197	8b 45 b0	 mov	 eax, DWORD PTR tv147[ebp]
  0019a	8b 8c 82 00 00
	00 00		 mov	 ecx, DWORD PTR ?fn_get_local_entity_vec3d_ptr@@3PAY0BI@P6GPAUVEC3D@@PAUENTITY@@W4VEC3D_TYPES@@@ZA[edx+eax*4]
  001a1	ff d1		 call	 ecx
  001a3	50		 push	 eax
  001a4	e8 00 00 00 00	 call	 ?reset_weapon_explosion_camera_position@@YGXPAUVEC3D@@@Z ; reset_weapon_explosion_camera_position
$LN2@response_t:

; 150  : 				}
; 151  : 			}
; 152  : 
; 153  : 			break;
; 154  : 		}
; 155  : 	}
; 156  : 
; 157  : 	return (TRUE);

  001a9	b8 01 00 00 00	 mov	 eax, 1

; 158  : }

  001ae	5f		 pop	 edi
  001af	5e		 pop	 esi
  001b0	5b		 pop	 ebx
  001b1	8b e5		 mov	 esp, ebp
  001b3	5d		 pop	 ebp
  001b4	c2 10 00	 ret	 16			; 00000010H
?response_to_unlink_child@@YGHW4ENTITY_MESSAGES@@PAUENTITY@@1PAD@Z ENDP ; response_to_unlink_child
_TEXT	ENDS
; Function compile flags: /Odtp /ZI
; File c:\users\nhv90\projects\eech\aphavoc\source\entity\special\camera\cm_msgs.c
;	COMDAT ?response_to_link_child@@YGHW4ENTITY_MESSAGES@@PAUENTITY@@1PAD@Z
_TEXT	SEGMENT
_list_type$ = -4					; size = 4
_message$ = 8						; size = 4
_receiver$ = 12						; size = 4
_sender$ = 16						; size = 4
_pargs$ = 20						; size = 4
?response_to_link_child@@YGHW4ENTITY_MESSAGES@@PAUENTITY@@1PAD@Z PROC ; response_to_link_child, COMDAT

; 80   : {

  00000	55		 push	 ebp
  00001	8b ec		 mov	 ebp, esp
  00003	83 ec 44	 sub	 esp, 68			; 00000044H
  00006	53		 push	 ebx
  00007	56		 push	 esi
  00008	57		 push	 edi

; 81   : 	list_types
; 82   : 		list_type;
; 83   : 
; 84   : 	#if DEBUG_MODULE
; 85   : 
; 86   : 	debug_log_entity_message (message, receiver, sender, pargs);
; 87   : 
; 88   : 	#endif
; 89   : 
; 90   : 	list_type = va_arg (pargs, list_types);

  00009	8b 45 14	 mov	 eax, DWORD PTR _pargs$[ebp]
  0000c	83 c0 04	 add	 eax, 4
  0000f	89 45 14	 mov	 DWORD PTR _pargs$[ebp], eax
  00012	8b 4d 14	 mov	 ecx, DWORD PTR _pargs$[ebp]
  00015	8b 51 fc	 mov	 edx, DWORD PTR [ecx-4]
  00018	89 55 fc	 mov	 DWORD PTR _list_type$[ebp], edx

; 91   : 
; 92   : 	if (list_type == LIST_TYPE_VIEW)

  0001b	83 7d fc 2a	 cmp	 DWORD PTR _list_type$[ebp], 42 ; 0000002aH
  0001f	75 07		 jne	 SHORT $LN2@response_t

; 93   : 	{
; 94   : 		notify_view_menu_of_view_list_change (NULL);

  00021	6a 00		 push	 0
  00023	e8 00 00 00 00	 call	 ?notify_view_menu_of_view_list_change@@YGXPAUENTITY@@@Z ; notify_view_menu_of_view_list_change
$LN2@response_t:

; 95   : 	}
; 96   : 
; 97   : 	return (TRUE);

  00028	b8 01 00 00 00	 mov	 eax, 1

; 98   : }

  0002d	5f		 pop	 edi
  0002e	5e		 pop	 esi
  0002f	5b		 pop	 ebx
  00030	8b e5		 mov	 esp, ebp
  00032	5d		 pop	 ebp
  00033	c2 10 00	 ret	 16			; 00000010H
?response_to_link_child@@YGHW4ENTITY_MESSAGES@@PAUENTITY@@1PAD@Z ENDP ; response_to_link_child
_TEXT	ENDS
; Function compile flags: /Odtp /ZI
; File c:\users\nhv90\projects\eech\aphavoc\source\entity\special\camera\cm_msgs.c
;	COMDAT ?overload_camera_message_responses@@YGXXZ
_TEXT	SEGMENT
?overload_camera_message_responses@@YGXXZ PROC		; overload_camera_message_responses, COMDAT

; 222  : {

  00000	55		 push	 ebp
  00001	8b ec		 mov	 ebp, esp
  00003	83 ec 40	 sub	 esp, 64			; 00000040H
  00006	53		 push	 ebx
  00007	56		 push	 esi
  00008	57		 push	 edi

; 223  : 	#if DEBUG_MODULE
; 224  : 
; 225  : 	message_responses[ENTITY_TYPE_CAMERA][ENTITY_MESSAGE_LINK_PARENT]	  		= response_to_link_parent;
; 226  : 
; 227  : 	message_responses[ENTITY_TYPE_CAMERA][ENTITY_MESSAGE_UNLINK_PARENT] 		= response_to_unlink_parent;
; 228  : 
; 229  : 	#endif
; 230  : 
; 231  : 	message_responses[ENTITY_TYPE_CAMERA][ENTITY_MESSAGE_LINK_CHILD]	  		= response_to_link_child;

  00009	b8 84 01 00 00	 mov	 eax, 388		; 00000184H
  0000e	6b c8 03	 imul	 ecx, eax, 3
  00011	ba 04 00 00 00	 mov	 edx, 4
  00016	6b c2 23	 imul	 eax, edx, 35
  00019	c7 84 01 00 00
	00 00 00 00 00
	00		 mov	 DWORD PTR ?message_responses@@3PAY0GB@P6GHW4ENTITY_MESSAGES@@PAUENTITY@@1PAD@ZA[ecx+eax], OFFSET ?response_to_link_child@@YGHW4ENTITY_MESSAGES@@PAUENTITY@@1PAD@Z ; response_to_link_child

; 232  : 
; 233  : 	message_responses[ENTITY_TYPE_CAMERA][ENTITY_MESSAGE_UNLINK_CHILD]		= response_to_unlink_child;

  00024	b8 84 01 00 00	 mov	 eax, 388		; 00000184H
  00029	6b c8 03	 imul	 ecx, eax, 3
  0002c	ba 04 00 00 00	 mov	 edx, 4
  00031	6b c2 37	 imul	 eax, edx, 55
  00034	c7 84 01 00 00
	00 00 00 00 00
	00		 mov	 DWORD PTR ?message_responses@@3PAY0GB@P6GHW4ENTITY_MESSAGES@@PAUENTITY@@1PAD@ZA[ecx+eax], OFFSET ?response_to_unlink_child@@YGHW4ENTITY_MESSAGES@@PAUENTITY@@1PAD@Z ; response_to_unlink_child

; 234  : 
; 235  : 	message_responses[ENTITY_TYPE_CAMERA][ENTITY_MESSAGE_SET_CAMERA_ACTION]	= response_to_set_camera_action;

  0003f	b8 84 01 00 00	 mov	 eax, 388		; 00000184H
  00044	6b c8 03	 imul	 ecx, eax, 3
  00047	ba 04 00 00 00	 mov	 edx, 4
  0004c	6b c2 2f	 imul	 eax, edx, 47
  0004f	c7 84 01 00 00
	00 00 00 00 00
	00		 mov	 DWORD PTR ?message_responses@@3PAY0GB@P6GHW4ENTITY_MESSAGES@@PAUENTITY@@1PAD@ZA[ecx+eax], OFFSET ?response_to_set_camera_action@@YGHW4ENTITY_MESSAGES@@PAUENTITY@@1PAD@Z ; response_to_set_camera_action

; 236  : }

  0005a	5f		 pop	 edi
  0005b	5e		 pop	 esi
  0005c	5b		 pop	 ebx
  0005d	8b e5		 mov	 esp, ebp
  0005f	5d		 pop	 ebp
  00060	c3		 ret	 0
?overload_camera_message_responses@@YGXXZ ENDP		; overload_camera_message_responses
_TEXT	ENDS
END
