; Listing generated by Microsoft (R) Optimizing Compiler Version 19.16.27045.0 

	TITLE	C:\Users\nhv90\Projects\eech\aphavoc\source\entity\special\camera\cm_mode.c
	.686P
	.XMM
	include listing.inc
	.model	flat

INCLUDELIB MSVCRTD
INCLUDELIB OLDNAMES

PUBLIC	?set_camera_mode@@YGXPAUCAMERA@@W4CAMERA_MODES@@H@Z ; set_camera_mode
PUBLIC	?get_camera_mode@@YG?AW4CAMERA_MODES@@PAUENTITY@@@Z ; get_camera_mode
PUBLIC	?__LINE__Var@?0??get_camera_mode@@YG?AW4CAMERA_MODES@@PAUENTITY@@@Z@4JA ; `get_camera_mode'::`1'::__LINE__Var
PUBLIC	??_C@_0EM@JGPHOAEJ@c?3?2users?2nhv90?2projects?2eech?2ap@ ; `string'
PUBLIC	??_C@_03GOGOMMPD@cam@				; `string'
PUBLIC	?__LINE__Var@?0??set_camera_mode@@YGXPAUCAMERA@@W4CAMERA_MODES@@H@Z@4JA ; `set_camera_mode'::`1'::__LINE__Var
PUBLIC	??_C@_03DGOGAGNC@raw@				; `string'
PUBLIC	??_C@_0BD@JKGJJFCK@Auto?9action?5camera@	; `string'
PUBLIC	??_C@_0BJ@HJPODAMB@Invalid?5camera?5mode?5?$DN?5?$CFd@ ; `string'
EXTRN	?process_assert@@YGXPBD0H@Z:PROC		; process_assert
EXTRN	?debug_fatal@@YAXPBDZZ:PROC			; debug_fatal
EXTRN	?get_camera_mode_name@@YGPBDW4CAMERA_MODES@@@Z:PROC ; get_camera_mode_name
EXTRN	?reset_building_camera@@YGXPAUCAMERA@@@Z:PROC	; reset_building_camera
EXTRN	?reset_chase_camera@@YGXPAUCAMERA@@@Z:PROC	; reset_chase_camera
EXTRN	?reset_cinematic_camera@@YGXPAUCAMERA@@@Z:PROC	; reset_cinematic_camera
EXTRN	?debriefing_camera_valid@@YGHPAUCAMERA@@@Z:PROC	; debriefing_camera_valid
EXTRN	?reset_debriefing_camera@@YGXPAUCAMERA@@@Z:PROC	; reset_debriefing_camera
EXTRN	?reset_drop_camera@@YGXPAUCAMERA@@@Z:PROC	; reset_drop_camera
EXTRN	?reset_eject_camera@@YGXPAUCAMERA@@@Z:PROC	; reset_eject_camera
EXTRN	?reset_end_of_mission_camera@@YGXPAUCAMERA@@@Z:PROC ; reset_end_of_mission_camera
EXTRN	?reset_weapon_explosion_camera@@YGXPAUCAMERA@@@Z:PROC ; reset_weapon_explosion_camera
EXTRN	?reset_fly_by_camera@@YGXPAUCAMERA@@@Z:PROC	; reset_fly_by_camera
EXTRN	?reset_free_camera@@YGXPAUCAMERA@@@Z:PROC	; reset_free_camera
EXTRN	?recognition_guide_top_view_camera_valid@@YGHPAUCAMERA@@@Z:PROC ; recognition_guide_top_view_camera_valid
EXTRN	?recognition_guide_side_view_camera_valid@@YGHPAUCAMERA@@@Z:PROC ; recognition_guide_side_view_camera_valid
EXTRN	?recognition_guide_front_view_camera_valid@@YGHPAUCAMERA@@@Z:PROC ; recognition_guide_front_view_camera_valid
EXTRN	?recognition_guide_3d_view_camera_valid@@YGHPAUCAMERA@@@Z:PROC ; recognition_guide_3d_view_camera_valid
EXTRN	?reset_recognition_guide_top_view_camera@@YGXPAUCAMERA@@@Z:PROC ; reset_recognition_guide_top_view_camera
EXTRN	?reset_recognition_guide_side_view_camera@@YGXPAUCAMERA@@@Z:PROC ; reset_recognition_guide_side_view_camera
EXTRN	?reset_recognition_guide_front_view_camera@@YGXPAUCAMERA@@@Z:PROC ; reset_recognition_guide_front_view_camera
EXTRN	?reset_recognition_guide_3d_view_camera@@YGXPAUCAMERA@@@Z:PROC ; reset_recognition_guide_3d_view_camera
EXTRN	?reset_static_camera@@YGXPAUCAMERA@@@Z:PROC	; reset_static_camera
EXTRN	?reset_satellite_camera@@YGXPAUCAMERA@@@Z:PROC	; reset_satellite_camera
EXTRN	?weapon_camera_valid@@YGHPAUCAMERA@@@Z:PROC	; weapon_camera_valid
EXTRN	?reset_weapon_camera@@YGXPAUCAMERA@@@Z:PROC	; reset_weapon_camera
EXTRN	?set_status_message@@YGXPBDW4STATUS_MESSAGE_TYPES@@@Z:PROC ; set_status_message
EXTRN	?get_trans@@YGPBDPBD@Z:PROC			; get_trans
EXTRN	?null_entity_pointer_message@@3PBDB:DWORD	; null_entity_pointer_message
;	COMDAT ??_C@_0BJ@HJPODAMB@Invalid?5camera?5mode?5?$DN?5?$CFd@
CONST	SEGMENT
??_C@_0BJ@HJPODAMB@Invalid?5camera?5mode?5?$DN?5?$CFd@ DB 'Invalid camera'
	DB	' mode = %d', 00H				; `string'
CONST	ENDS
;	COMDAT ??_C@_0BD@JKGJJFCK@Auto?9action?5camera@
CONST	SEGMENT
??_C@_0BD@JKGJJFCK@Auto?9action?5camera@ DB 'Auto-action camera', 00H ; `string'
CONST	ENDS
;	COMDAT ??_C@_03DGOGAGNC@raw@
CONST	SEGMENT
??_C@_03DGOGAGNC@raw@ DB 'raw', 00H			; `string'
CONST	ENDS
;	COMDAT ?__LINE__Var@?0??set_camera_mode@@YGXPAUCAMERA@@W4CAMERA_MODES@@H@Z@4JA
_DATA	SEGMENT
?__LINE__Var@?0??set_camera_mode@@YGXPAUCAMERA@@W4CAMERA_MODES@@H@Z@4JA DD 05aH ; `set_camera_mode'::`1'::__LINE__Var
_DATA	ENDS
;	COMDAT ??_C@_03GOGOMMPD@cam@
CONST	SEGMENT
??_C@_03GOGOMMPD@cam@ DB 'cam', 00H			; `string'
CONST	ENDS
;	COMDAT ??_C@_0EM@JGPHOAEJ@c?3?2users?2nhv90?2projects?2eech?2ap@
CONST	SEGMENT
??_C@_0EM@JGPHOAEJ@c?3?2users?2nhv90?2projects?2eech?2ap@ DB 'c:\users\nh'
	DB	'v90\projects\eech\aphavoc\source\entity\special\camera\cm_mod'
	DB	'e.c', 00H					; `string'
CONST	ENDS
;	COMDAT ?__LINE__Var@?0??get_camera_mode@@YG?AW4CAMERA_MODES@@PAUENTITY@@@Z@4JA
_DATA	SEGMENT
?__LINE__Var@?0??get_camera_mode@@YG?AW4CAMERA_MODES@@PAUENTITY@@@Z@4JA DD 050H ; `get_camera_mode'::`1'::__LINE__Var
_DATA	ENDS
; Function compile flags: /Odtp /ZI
; File c:\users\nhv90\projects\eech\aphavoc\source\entity\special\camera\cm_mode.c
;	COMDAT ?get_camera_mode@@YG?AW4CAMERA_MODES@@PAUENTITY@@@Z
_TEXT	SEGMENT
_raw$ = -4						; size = 4
_cam$ = 8						; size = 4
?get_camera_mode@@YG?AW4CAMERA_MODES@@PAUENTITY@@@Z PROC ; get_camera_mode, COMDAT

; 80   : {

  00000	55		 push	 ebp
  00001	8b ec		 mov	 ebp, esp
  00003	83 ec 44	 sub	 esp, 68			; 00000044H
  00006	53		 push	 ebx
  00007	56		 push	 esi
  00008	57		 push	 edi

; 81   : 	camera* raw;
; 82   : 
; 83   : 	ASSERT(cam);

  00009	83 7d 08 00	 cmp	 DWORD PTR _cam$[ebp], 0
  0000d	75 18		 jne	 SHORT $LN2@get_camera
  0000f	a1 00 00 00 00	 mov	 eax, DWORD PTR ?__LINE__Var@?0??get_camera_mode@@YG?AW4CAMERA_MODES@@PAUENTITY@@@Z@4JA
  00014	83 c0 03	 add	 eax, 3
  00017	50		 push	 eax
  00018	68 00 00 00 00	 push	 OFFSET ??_C@_0EM@JGPHOAEJ@c?3?2users?2nhv90?2projects?2eech?2ap@
  0001d	68 00 00 00 00	 push	 OFFSET ??_C@_03GOGOMMPD@cam@
  00022	e8 00 00 00 00	 call	 ?process_assert@@YGXPBD0H@Z ; process_assert
$LN2@get_camera:

; 84   : 
; 85   : 	raw = (camera *) get_local_entity_data (cam);

  00027	8b 45 08	 mov	 eax, DWORD PTR _cam$[ebp]
  0002a	8b 48 04	 mov	 ecx, DWORD PTR [eax+4]
  0002d	89 4d fc	 mov	 DWORD PTR _raw$[ebp], ecx

; 86   : 	return raw->camera_mode;

  00030	8b 45 fc	 mov	 eax, DWORD PTR _raw$[ebp]
  00033	8b 40 3c	 mov	 eax, DWORD PTR [eax+60]

; 87   : }

  00036	5f		 pop	 edi
  00037	5e		 pop	 esi
  00038	5b		 pop	 ebx
  00039	8b e5		 mov	 esp, ebp
  0003b	5d		 pop	 ebp
  0003c	c2 04 00	 ret	 4
?get_camera_mode@@YG?AW4CAMERA_MODES@@PAUENTITY@@@Z ENDP ; get_camera_mode
_TEXT	ENDS
; Function compile flags: /Odtp /ZI
; File c:\users\nhv90\projects\eech\aphavoc\source\entity\special\camera\cm_mode.c
;	COMDAT ?set_camera_mode@@YGXPAUCAMERA@@W4CAMERA_MODES@@H@Z
_TEXT	SEGMENT
tv92 = -72						; size = 4
tv76 = -72						; size = 4
_s$1 = -4						; size = 4
_raw$ = 8						; size = 4
_mode$ = 12						; size = 4
_auto_edit$ = 16					; size = 4
?set_camera_mode@@YGXPAUCAMERA@@W4CAMERA_MODES@@H@Z PROC ; set_camera_mode, COMDAT

; 90   : {

  00000	55		 push	 ebp
  00001	8b ec		 mov	 ebp, esp
  00003	83 ec 48	 sub	 esp, 72			; 00000048H
  00006	53		 push	 ebx
  00007	56		 push	 esi
  00008	57		 push	 edi

; 91   : 	ASSERT (raw);

  00009	83 7d 08 00	 cmp	 DWORD PTR _raw$[ebp], 0
  0000d	75 18		 jne	 SHORT $LN4@set_camera
  0000f	a1 00 00 00 00	 mov	 eax, DWORD PTR ?__LINE__Var@?0??set_camera_mode@@YGXPAUCAMERA@@W4CAMERA_MODES@@H@Z@4JA
  00014	83 c0 01	 add	 eax, 1
  00017	50		 push	 eax
  00018	68 00 00 00 00	 push	 OFFSET ??_C@_0EM@JGPHOAEJ@c?3?2users?2nhv90?2projects?2eech?2ap@
  0001d	68 00 00 00 00	 push	 OFFSET ??_C@_03DGOGAGNC@raw@
  00022	e8 00 00 00 00	 call	 ?process_assert@@YGXPBD0H@Z ; process_assert
$LN4@set_camera:

; 92   : 
; 93   : /*
; 94   : 	if ((mode >= 0) && (mode < NUM_CAMERA_MODES))
; 95   : 	{
; 96   : 		debug_log ("Setting camera mode to %s", camera_mode_names[mode]);
; 97   : 	}*/
; 98   : 
; 99   : 	// Jabberwock 031009 - Satellite view - only satellite view for sites
; 100  : 	if (get_local_entity_type (raw->external_view_entity) == ENTITY_TYPE_KEYSITE)

  00027	8b 45 08	 mov	 eax, DWORD PTR _raw$[ebp]
  0002a	83 b8 24 01 00
	00 00		 cmp	 DWORD PTR [eax+292], 0
  00031	74 10		 je	 SHORT $LN41@set_camera
  00033	8b 4d 08	 mov	 ecx, DWORD PTR _raw$[ebp]
  00036	8b 91 24 01 00
	00		 mov	 edx, DWORD PTR [ecx+292]
  0003c	8b 02		 mov	 eax, DWORD PTR [edx]
  0003e	89 45 b8	 mov	 DWORD PTR tv76[ebp], eax
  00041	eb 1a		 jmp	 SHORT $LN42@set_camera
$LN41@set_camera:
  00043	6a 64		 push	 100			; 00000064H
  00045	68 00 00 00 00	 push	 OFFSET ??_C@_0EM@JGPHOAEJ@c?3?2users?2nhv90?2projects?2eech?2ap@
  0004a	8b 0d 00 00 00
	00		 mov	 ecx, DWORD PTR ?null_entity_pointer_message@@3PBDB ; null_entity_pointer_message
  00050	51		 push	 ecx
  00051	e8 00 00 00 00	 call	 ?process_assert@@YGXPBD0H@Z ; process_assert
  00056	c7 45 b8 00 00
	00 00		 mov	 DWORD PTR tv76[ebp], 0
$LN42@set_camera:
  0005d	83 7d b8 0f	 cmp	 DWORD PTR tv76[ebp], 15	; 0000000fH
  00061	75 0e		 jne	 SHORT $LN5@set_camera

; 101  : 	{ 
; 102  : 		mode = CAMERA_MODE_SATELLITE;

  00063	c7 45 0c 04 00
	00 00		 mov	 DWORD PTR _mode$[ebp], 4

; 103  : 		auto_edit = 0;

  0006a	c7 45 10 00 00
	00 00		 mov	 DWORD PTR _auto_edit$[ebp], 0
$LN5@set_camera:

; 104  : 	}
; 105  : 	// Jabberwock 031009 ends
; 106  : 	
; 107  : 	
; 108  : 	if (auto_edit)

  00071	83 7d 10 00	 cmp	 DWORD PTR _auto_edit$[ebp], 0
  00075	74 1d		 je	 SHORT $LN6@set_camera

; 109  : 	{
; 110  : 		if (!raw->auto_edit)

  00077	8b 45 08	 mov	 eax, DWORD PTR _raw$[ebp]
  0007a	83 78 4c 00	 cmp	 DWORD PTR [eax+76], 0
  0007e	75 12		 jne	 SHORT $LN8@set_camera

; 111  : 		{
; 112  : 			set_status_message (get_trans ("Auto-action camera"), STATUS_MESSAGE_TYPE_CAMERA);

  00080	6a 02		 push	 2
  00082	68 00 00 00 00	 push	 OFFSET ??_C@_0BD@JKGJJFCK@Auto?9action?5camera@
  00087	e8 00 00 00 00	 call	 ?get_trans@@YGPBDPBD@Z	; get_trans
  0008c	50		 push	 eax
  0008d	e8 00 00 00 00	 call	 ?set_status_message@@YGXPBDW4STATUS_MESSAGE_TYPES@@@Z ; set_status_message
$LN8@set_camera:

; 113  : 		}
; 114  : 	}
; 115  : 	else

  00092	eb 23		 jmp	 SHORT $LN7@set_camera
$LN6@set_camera:

; 116  : 	{
; 117  : 		const char
; 118  : 			*s;
; 119  : 
; 120  : 		s = get_camera_mode_name (mode);

  00094	8b 45 0c	 mov	 eax, DWORD PTR _mode$[ebp]
  00097	50		 push	 eax
  00098	e8 00 00 00 00	 call	 ?get_camera_mode_name@@YGPBDW4CAMERA_MODES@@@Z ; get_camera_mode_name
  0009d	89 45 fc	 mov	 DWORD PTR _s$1[ebp], eax

; 121  : 
; 122  : 		if (s)

  000a0	83 7d fc 00	 cmp	 DWORD PTR _s$1[ebp], 0
  000a4	74 11		 je	 SHORT $LN7@set_camera

; 123  : 		{
; 124  : 			set_status_message (get_trans (s), STATUS_MESSAGE_TYPE_CAMERA);

  000a6	6a 02		 push	 2
  000a8	8b 45 fc	 mov	 eax, DWORD PTR _s$1[ebp]
  000ab	50		 push	 eax
  000ac	e8 00 00 00 00	 call	 ?get_trans@@YGPBDPBD@Z	; get_trans
  000b1	50		 push	 eax
  000b2	e8 00 00 00 00	 call	 ?set_status_message@@YGXPBDW4STATUS_MESSAGE_TYPES@@@Z ; set_status_message
$LN7@set_camera:

; 125  : 		}
; 126  : 	}
; 127  : 	
; 128  : 	switch (mode)

  000b7	8b 45 0c	 mov	 eax, DWORD PTR _mode$[ebp]
  000ba	89 45 b8	 mov	 DWORD PTR tv92[ebp], eax
  000bd	83 7d b8 10	 cmp	 DWORD PTR tv92[ebp], 16	; 00000010H
  000c1	0f 87 ad 01 00
	00		 ja	 $LN39@set_camera
  000c7	8b 4d b8	 mov	 ecx, DWORD PTR tv92[ebp]
  000ca	ff 24 8d 00 00
	00 00		 jmp	 DWORD PTR $LN43@set_camera[ecx*4]
$LN10@set_camera:

; 129  : 	{
; 130  : 		////////////////////////////////////////
; 131  : 		case CAMERA_MODE_CHASE:
; 132  : 		////////////////////////////////////////
; 133  : 		{
; 134  : 			reset_chase_camera (raw);

  000d1	8b 45 08	 mov	 eax, DWORD PTR _raw$[ebp]
  000d4	50		 push	 eax
  000d5	e8 00 00 00 00	 call	 ?reset_chase_camera@@YGXPAUCAMERA@@@Z ; reset_chase_camera

; 135  : 
; 136  : 			break;

  000da	e9 a6 01 00 00	 jmp	 $LN2@set_camera
$LN11@set_camera:

; 137  : 		}
; 138  : 		////////////////////////////////////////
; 139  : 		case CAMERA_MODE_END_OF_MISSION:
; 140  : 		////////////////////////////////////////
; 141  : 		{
; 142  : 			reset_end_of_mission_camera (raw);

  000df	8b 45 08	 mov	 eax, DWORD PTR _raw$[ebp]
  000e2	50		 push	 eax
  000e3	e8 00 00 00 00	 call	 ?reset_end_of_mission_camera@@YGXPAUCAMERA@@@Z ; reset_end_of_mission_camera

; 143  : 
; 144  : 			break;

  000e8	e9 98 01 00 00	 jmp	 $LN2@set_camera
$LN12@set_camera:

; 145  : 		}
; 146  : 		////////////////////////////////////////
; 147  : 		case CAMERA_MODE_DROP:
; 148  : 		////////////////////////////////////////
; 149  : 		{
; 150  : 			reset_drop_camera (raw);

  000ed	8b 45 08	 mov	 eax, DWORD PTR _raw$[ebp]
  000f0	50		 push	 eax
  000f1	e8 00 00 00 00	 call	 ?reset_drop_camera@@YGXPAUCAMERA@@@Z ; reset_drop_camera

; 151  : 
; 152  : 			break;

  000f6	e9 8a 01 00 00	 jmp	 $LN2@set_camera
$LN13@set_camera:

; 153  : 		}
; 154  : 		////////////////////////////////////////
; 155  : 		case CAMERA_MODE_STATIC:
; 156  : 		////////////////////////////////////////
; 157  : 		{
; 158  : 			reset_static_camera (raw);

  000fb	8b 45 08	 mov	 eax, DWORD PTR _raw$[ebp]
  000fe	50		 push	 eax
  000ff	e8 00 00 00 00	 call	 ?reset_static_camera@@YGXPAUCAMERA@@@Z ; reset_static_camera

; 159  : 
; 160  : 			break;

  00104	e9 7c 01 00 00	 jmp	 $LN2@set_camera
$LN14@set_camera:

; 161  : 		}
; 162  : 		
; 163  : 		// Jabberwock 031009 Satellite view
; 164  : 		case CAMERA_MODE_SATELLITE:
; 165  : 		////////////////////////////////////////
; 166  : 		{
; 167  : 			reset_satellite_camera (raw);

  00109	8b 45 08	 mov	 eax, DWORD PTR _raw$[ebp]
  0010c	50		 push	 eax
  0010d	e8 00 00 00 00	 call	 ?reset_satellite_camera@@YGXPAUCAMERA@@@Z ; reset_satellite_camera

; 168  : 
; 169  : 			break;

  00112	e9 6e 01 00 00	 jmp	 $LN2@set_camera
$LN15@set_camera:

; 170  : 		}
; 171  : 		
; 172  : 		// Jabberwock 031009 ends
; 173  : 		
; 174  : 		////////////////////////////////////////
; 175  : 		case CAMERA_MODE_EJECT:
; 176  : 		////////////////////////////////////////
; 177  : 		{
; 178  : 			reset_eject_camera (raw);

  00117	8b 45 08	 mov	 eax, DWORD PTR _raw$[ebp]
  0011a	50		 push	 eax
  0011b	e8 00 00 00 00	 call	 ?reset_eject_camera@@YGXPAUCAMERA@@@Z ; reset_eject_camera

; 179  : 
; 180  : 			break;

  00120	e9 60 01 00 00	 jmp	 $LN2@set_camera
$LN16@set_camera:

; 181  : 		}
; 182  : 		////////////////////////////////////////
; 183  : 		case CAMERA_MODE_FLY_BY:
; 184  : 		////////////////////////////////////////
; 185  : 		{
; 186  : 			reset_fly_by_camera (raw);

  00125	8b 45 08	 mov	 eax, DWORD PTR _raw$[ebp]
  00128	50		 push	 eax
  00129	e8 00 00 00 00	 call	 ?reset_fly_by_camera@@YGXPAUCAMERA@@@Z ; reset_fly_by_camera

; 187  : 
; 188  : 			break;

  0012e	e9 52 01 00 00	 jmp	 $LN2@set_camera
$LN17@set_camera:

; 189  : 		}
; 190  : 		////////////////////////////////////////
; 191  : 		case CAMERA_MODE_CINEMATIC:
; 192  : 		////////////////////////////////////////
; 193  : 		{
; 194  : 			reset_cinematic_camera (raw);

  00133	8b 45 08	 mov	 eax, DWORD PTR _raw$[ebp]
  00136	50		 push	 eax
  00137	e8 00 00 00 00	 call	 ?reset_cinematic_camera@@YGXPAUCAMERA@@@Z ; reset_cinematic_camera

; 195  : 
; 196  : 			break;

  0013c	e9 44 01 00 00	 jmp	 $LN2@set_camera
$LN18@set_camera:

; 197  : 		}
; 198  : 		////////////////////////////////////////
; 199  : 		case CAMERA_MODE_BUILDING:
; 200  : 		////////////////////////////////////////
; 201  : 		{
; 202  : 			reset_building_camera (raw);

  00141	8b 45 08	 mov	 eax, DWORD PTR _raw$[ebp]
  00144	50		 push	 eax
  00145	e8 00 00 00 00	 call	 ?reset_building_camera@@YGXPAUCAMERA@@@Z ; reset_building_camera

; 203  : 
; 204  : 			break;

  0014a	e9 36 01 00 00	 jmp	 $LN2@set_camera
$LN19@set_camera:

; 205  : 		}
; 206  : 		////////////////////////////////////////
; 207  : 		case CAMERA_MODE_WEAPON:
; 208  : 		////////////////////////////////////////
; 209  : 		{
; 210  : 			if (weapon_camera_valid (raw))

  0014f	8b 45 08	 mov	 eax, DWORD PTR _raw$[ebp]
  00152	50		 push	 eax
  00153	e8 00 00 00 00	 call	 ?weapon_camera_valid@@YGHPAUCAMERA@@@Z ; weapon_camera_valid
  00158	85 c0		 test	 eax, eax
  0015a	74 0b		 je	 SHORT $LN20@set_camera

; 211  : 			{
; 212  : 				reset_weapon_camera (raw);

  0015c	8b 45 08	 mov	 eax, DWORD PTR _raw$[ebp]
  0015f	50		 push	 eax
  00160	e8 00 00 00 00	 call	 ?reset_weapon_camera@@YGXPAUCAMERA@@@Z ; reset_weapon_camera

; 213  : 			}
; 214  : 			else

  00165	eb 10		 jmp	 SHORT $LN21@set_camera
$LN20@set_camera:

; 215  : 			{
; 216  : 				mode = CAMERA_MODE_CHASE;

  00167	c7 45 0c 00 00
	00 00		 mov	 DWORD PTR _mode$[ebp], 0

; 217  : 
; 218  : 				reset_chase_camera (raw);

  0016e	8b 45 08	 mov	 eax, DWORD PTR _raw$[ebp]
  00171	50		 push	 eax
  00172	e8 00 00 00 00	 call	 ?reset_chase_camera@@YGXPAUCAMERA@@@Z ; reset_chase_camera
$LN21@set_camera:

; 219  : 			}
; 220  : 
; 221  : 			break;

  00177	e9 09 01 00 00	 jmp	 $LN2@set_camera
$LN22@set_camera:

; 222  : 		}
; 223  : 		////////////////////////////////////////
; 224  : 		case CAMERA_MODE_WEAPON_EXPLOSION:
; 225  : 		////////////////////////////////////////
; 226  : 		{
; 227  : 			reset_weapon_explosion_camera (raw);

  0017c	8b 45 08	 mov	 eax, DWORD PTR _raw$[ebp]
  0017f	50		 push	 eax
  00180	e8 00 00 00 00	 call	 ?reset_weapon_explosion_camera@@YGXPAUCAMERA@@@Z ; reset_weapon_explosion_camera

; 228  : 
; 229  : 			break;

  00185	e9 fb 00 00 00	 jmp	 $LN2@set_camera
$LN23@set_camera:

; 230  : 		}
; 231  : 		////////////////////////////////////////
; 232  : 		case CAMERA_MODE_DEBRIEFING:
; 233  : 		////////////////////////////////////////
; 234  : 		{
; 235  : 			if (debriefing_camera_valid (raw))

  0018a	8b 45 08	 mov	 eax, DWORD PTR _raw$[ebp]
  0018d	50		 push	 eax
  0018e	e8 00 00 00 00	 call	 ?debriefing_camera_valid@@YGHPAUCAMERA@@@Z ; debriefing_camera_valid
  00193	85 c0		 test	 eax, eax
  00195	74 0b		 je	 SHORT $LN24@set_camera

; 236  : 			{
; 237  : 				reset_debriefing_camera (raw);

  00197	8b 45 08	 mov	 eax, DWORD PTR _raw$[ebp]
  0019a	50		 push	 eax
  0019b	e8 00 00 00 00	 call	 ?reset_debriefing_camera@@YGXPAUCAMERA@@@Z ; reset_debriefing_camera

; 238  : 			}
; 239  : 			else

  001a0	eb 10		 jmp	 SHORT $LN25@set_camera
$LN24@set_camera:

; 240  : 			{
; 241  : 				mode = CAMERA_MODE_CHASE;

  001a2	c7 45 0c 00 00
	00 00		 mov	 DWORD PTR _mode$[ebp], 0

; 242  : 
; 243  : 				reset_chase_camera (raw);

  001a9	8b 45 08	 mov	 eax, DWORD PTR _raw$[ebp]
  001ac	50		 push	 eax
  001ad	e8 00 00 00 00	 call	 ?reset_chase_camera@@YGXPAUCAMERA@@@Z ; reset_chase_camera
$LN25@set_camera:

; 244  : 			}
; 245  : 
; 246  : 			break;

  001b2	e9 ce 00 00 00	 jmp	 $LN2@set_camera
$LN26@set_camera:

; 247  : 		}
; 248  : 		////////////////////////////////////////
; 249  : 		case CAMERA_MODE_RECOGNITION_GUIDE_TOP_VIEW:
; 250  : 		////////////////////////////////////////
; 251  : 		{
; 252  : 			if (recognition_guide_top_view_camera_valid (raw))

  001b7	8b 45 08	 mov	 eax, DWORD PTR _raw$[ebp]
  001ba	50		 push	 eax
  001bb	e8 00 00 00 00	 call	 ?recognition_guide_top_view_camera_valid@@YGHPAUCAMERA@@@Z ; recognition_guide_top_view_camera_valid
  001c0	85 c0		 test	 eax, eax
  001c2	74 0b		 je	 SHORT $LN27@set_camera

; 253  : 			{
; 254  : 				reset_recognition_guide_top_view_camera (raw);

  001c4	8b 45 08	 mov	 eax, DWORD PTR _raw$[ebp]
  001c7	50		 push	 eax
  001c8	e8 00 00 00 00	 call	 ?reset_recognition_guide_top_view_camera@@YGXPAUCAMERA@@@Z ; reset_recognition_guide_top_view_camera

; 255  : 			}
; 256  : 			else

  001cd	eb 10		 jmp	 SHORT $LN28@set_camera
$LN27@set_camera:

; 257  : 			{
; 258  : 				mode = CAMERA_MODE_CHASE;

  001cf	c7 45 0c 00 00
	00 00		 mov	 DWORD PTR _mode$[ebp], 0

; 259  : 
; 260  : 				reset_chase_camera (raw);

  001d6	8b 45 08	 mov	 eax, DWORD PTR _raw$[ebp]
  001d9	50		 push	 eax
  001da	e8 00 00 00 00	 call	 ?reset_chase_camera@@YGXPAUCAMERA@@@Z ; reset_chase_camera
$LN28@set_camera:

; 261  : 			}
; 262  : 
; 263  : 			break;

  001df	e9 a1 00 00 00	 jmp	 $LN2@set_camera
$LN29@set_camera:

; 264  : 		}
; 265  : 		////////////////////////////////////////
; 266  : 		case CAMERA_MODE_RECOGNITION_GUIDE_SIDE_VIEW:
; 267  : 		////////////////////////////////////////
; 268  : 		{
; 269  : 			if (recognition_guide_side_view_camera_valid (raw))

  001e4	8b 45 08	 mov	 eax, DWORD PTR _raw$[ebp]
  001e7	50		 push	 eax
  001e8	e8 00 00 00 00	 call	 ?recognition_guide_side_view_camera_valid@@YGHPAUCAMERA@@@Z ; recognition_guide_side_view_camera_valid
  001ed	85 c0		 test	 eax, eax
  001ef	74 0b		 je	 SHORT $LN30@set_camera

; 270  : 			{
; 271  : 				reset_recognition_guide_side_view_camera (raw);

  001f1	8b 45 08	 mov	 eax, DWORD PTR _raw$[ebp]
  001f4	50		 push	 eax
  001f5	e8 00 00 00 00	 call	 ?reset_recognition_guide_side_view_camera@@YGXPAUCAMERA@@@Z ; reset_recognition_guide_side_view_camera

; 272  : 			}
; 273  : 			else

  001fa	eb 10		 jmp	 SHORT $LN31@set_camera
$LN30@set_camera:

; 274  : 			{
; 275  : 				mode = CAMERA_MODE_CHASE;

  001fc	c7 45 0c 00 00
	00 00		 mov	 DWORD PTR _mode$[ebp], 0

; 276  : 
; 277  : 				reset_chase_camera (raw);

  00203	8b 45 08	 mov	 eax, DWORD PTR _raw$[ebp]
  00206	50		 push	 eax
  00207	e8 00 00 00 00	 call	 ?reset_chase_camera@@YGXPAUCAMERA@@@Z ; reset_chase_camera
$LN31@set_camera:

; 278  : 			}
; 279  : 
; 280  : 			break;

  0020c	eb 77		 jmp	 SHORT $LN2@set_camera
$LN32@set_camera:

; 281  : 		}
; 282  : 		////////////////////////////////////////
; 283  : 		case CAMERA_MODE_RECOGNITION_GUIDE_FRONT_VIEW:
; 284  : 		////////////////////////////////////////
; 285  : 		{
; 286  : 			if (recognition_guide_front_view_camera_valid (raw))

  0020e	8b 45 08	 mov	 eax, DWORD PTR _raw$[ebp]
  00211	50		 push	 eax
  00212	e8 00 00 00 00	 call	 ?recognition_guide_front_view_camera_valid@@YGHPAUCAMERA@@@Z ; recognition_guide_front_view_camera_valid
  00217	85 c0		 test	 eax, eax
  00219	74 0b		 je	 SHORT $LN33@set_camera

; 287  : 			{
; 288  : 				reset_recognition_guide_front_view_camera (raw);

  0021b	8b 45 08	 mov	 eax, DWORD PTR _raw$[ebp]
  0021e	50		 push	 eax
  0021f	e8 00 00 00 00	 call	 ?reset_recognition_guide_front_view_camera@@YGXPAUCAMERA@@@Z ; reset_recognition_guide_front_view_camera

; 289  : 			}
; 290  : 			else

  00224	eb 10		 jmp	 SHORT $LN34@set_camera
$LN33@set_camera:

; 291  : 			{
; 292  : 				mode = CAMERA_MODE_CHASE;

  00226	c7 45 0c 00 00
	00 00		 mov	 DWORD PTR _mode$[ebp], 0

; 293  : 
; 294  : 				reset_chase_camera (raw);

  0022d	8b 45 08	 mov	 eax, DWORD PTR _raw$[ebp]
  00230	50		 push	 eax
  00231	e8 00 00 00 00	 call	 ?reset_chase_camera@@YGXPAUCAMERA@@@Z ; reset_chase_camera
$LN34@set_camera:

; 295  : 			}
; 296  : 
; 297  : 			break;

  00236	eb 4d		 jmp	 SHORT $LN2@set_camera
$LN35@set_camera:

; 298  : 		}
; 299  : 		////////////////////////////////////////
; 300  : 		case CAMERA_MODE_RECOGNITION_GUIDE_3D_VIEW:
; 301  : 		////////////////////////////////////////
; 302  : 		{
; 303  : 			if (recognition_guide_3d_view_camera_valid (raw))

  00238	8b 45 08	 mov	 eax, DWORD PTR _raw$[ebp]
  0023b	50		 push	 eax
  0023c	e8 00 00 00 00	 call	 ?recognition_guide_3d_view_camera_valid@@YGHPAUCAMERA@@@Z ; recognition_guide_3d_view_camera_valid
  00241	85 c0		 test	 eax, eax
  00243	74 0b		 je	 SHORT $LN36@set_camera

; 304  : 			{
; 305  : 				reset_recognition_guide_3d_view_camera (raw);

  00245	8b 45 08	 mov	 eax, DWORD PTR _raw$[ebp]
  00248	50		 push	 eax
  00249	e8 00 00 00 00	 call	 ?reset_recognition_guide_3d_view_camera@@YGXPAUCAMERA@@@Z ; reset_recognition_guide_3d_view_camera

; 306  : 			}
; 307  : 			else

  0024e	eb 10		 jmp	 SHORT $LN37@set_camera
$LN36@set_camera:

; 308  : 			{
; 309  : 				mode = CAMERA_MODE_CHASE;

  00250	c7 45 0c 00 00
	00 00		 mov	 DWORD PTR _mode$[ebp], 0

; 310  : 
; 311  : 				reset_chase_camera (raw);

  00257	8b 45 08	 mov	 eax, DWORD PTR _raw$[ebp]
  0025a	50		 push	 eax
  0025b	e8 00 00 00 00	 call	 ?reset_chase_camera@@YGXPAUCAMERA@@@Z ; reset_chase_camera
$LN37@set_camera:

; 312  : 			}
; 313  : 
; 314  : 			break;

  00260	eb 23		 jmp	 SHORT $LN2@set_camera
$LN38@set_camera:

; 315  : 		}
; 316  : 		////////////////////////////////////////
; 317  : 		case CAMERA_MODE_FREE:
; 318  : 		////////////////////////////////////////
; 319  : 		{
; 320  : 			{
; 321  : 				mode = CAMERA_MODE_FREE;

  00262	c7 45 0c 10 00
	00 00		 mov	 DWORD PTR _mode$[ebp], 16 ; 00000010H

; 322  : 
; 323  : 				reset_free_camera (raw);

  00269	8b 45 08	 mov	 eax, DWORD PTR _raw$[ebp]
  0026c	50		 push	 eax
  0026d	e8 00 00 00 00	 call	 ?reset_free_camera@@YGXPAUCAMERA@@@Z ; reset_free_camera

; 324  : 			}
; 325  : 
; 326  : 			break;

  00272	eb 11		 jmp	 SHORT $LN2@set_camera
$LN39@set_camera:

; 327  : 		}
; 328  : 		////////////////////////////////////////
; 329  : 		default:
; 330  : 		////////////////////////////////////////
; 331  : 		{
; 332  : 			debug_fatal ("Invalid camera mode = %d", mode);

  00274	8b 45 0c	 mov	 eax, DWORD PTR _mode$[ebp]
  00277	50		 push	 eax
  00278	68 00 00 00 00	 push	 OFFSET ??_C@_0BJ@HJPODAMB@Invalid?5camera?5mode?5?$DN?5?$CFd@
  0027d	e8 00 00 00 00	 call	 ?debug_fatal@@YAXPBDZZ	; debug_fatal
  00282	83 c4 08	 add	 esp, 8
$LN2@set_camera:

; 333  : 
; 334  : 			break;
; 335  : 		}
; 336  : 	}
; 337  : 
; 338  : 	raw->camera_mode = mode;

  00285	8b 45 08	 mov	 eax, DWORD PTR _raw$[ebp]
  00288	8b 4d 0c	 mov	 ecx, DWORD PTR _mode$[ebp]
  0028b	89 48 3c	 mov	 DWORD PTR [eax+60], ecx

; 339  : 
; 340  : 	raw->auto_edit = auto_edit;

  0028e	8b 45 08	 mov	 eax, DWORD PTR _raw$[ebp]
  00291	8b 4d 10	 mov	 ecx, DWORD PTR _auto_edit$[ebp]
  00294	89 48 4c	 mov	 DWORD PTR [eax+76], ecx

; 341  : }

  00297	5f		 pop	 edi
  00298	5e		 pop	 esi
  00299	5b		 pop	 ebx
  0029a	8b e5		 mov	 esp, ebp
  0029c	5d		 pop	 ebp
  0029d	c2 0c 00	 ret	 12			; 0000000cH
$LN43@set_camera:
  002a0	00 00 00 00	 DD	 $LN10@set_camera
  002a4	00 00 00 00	 DD	 $LN11@set_camera
  002a8	00 00 00 00	 DD	 $LN12@set_camera
  002ac	00 00 00 00	 DD	 $LN13@set_camera
  002b0	00 00 00 00	 DD	 $LN14@set_camera
  002b4	00 00 00 00	 DD	 $LN15@set_camera
  002b8	00 00 00 00	 DD	 $LN16@set_camera
  002bc	00 00 00 00	 DD	 $LN17@set_camera
  002c0	00 00 00 00	 DD	 $LN18@set_camera
  002c4	00 00 00 00	 DD	 $LN19@set_camera
  002c8	00 00 00 00	 DD	 $LN22@set_camera
  002cc	00 00 00 00	 DD	 $LN23@set_camera
  002d0	00 00 00 00	 DD	 $LN26@set_camera
  002d4	00 00 00 00	 DD	 $LN29@set_camera
  002d8	00 00 00 00	 DD	 $LN32@set_camera
  002dc	00 00 00 00	 DD	 $LN35@set_camera
  002e0	00 00 00 00	 DD	 $LN38@set_camera
?set_camera_mode@@YGXPAUCAMERA@@W4CAMERA_MODES@@H@Z ENDP ; set_camera_mode
_TEXT	ENDS
END
