; Listing generated by Microsoft (R) Optimizing Compiler Version 19.16.27045.0 

	TITLE	C:\Users\nhv90\Projects\eech\aphavoc\source\entity\special\camera\cm_recog.c
	.686P
	.XMM
	include listing.inc
	.model	flat

INCLUDELIB MSVCRTD
INCLUDELIB OLDNAMES

PUBLIC	?recognition_guide_top_view_camera_valid@@YGHPAUCAMERA@@@Z ; recognition_guide_top_view_camera_valid
PUBLIC	?recognition_guide_side_view_camera_valid@@YGHPAUCAMERA@@@Z ; recognition_guide_side_view_camera_valid
PUBLIC	?recognition_guide_front_view_camera_valid@@YGHPAUCAMERA@@@Z ; recognition_guide_front_view_camera_valid
PUBLIC	?recognition_guide_3d_view_camera_valid@@YGHPAUCAMERA@@@Z ; recognition_guide_3d_view_camera_valid
PUBLIC	?reset_recognition_guide_top_view_camera@@YGXPAUCAMERA@@@Z ; reset_recognition_guide_top_view_camera
PUBLIC	?reset_recognition_guide_side_view_camera@@YGXPAUCAMERA@@@Z ; reset_recognition_guide_side_view_camera
PUBLIC	?reset_recognition_guide_front_view_camera@@YGXPAUCAMERA@@@Z ; reset_recognition_guide_front_view_camera
PUBLIC	?reset_recognition_guide_3d_view_camera@@YGXPAUCAMERA@@@Z ; reset_recognition_guide_3d_view_camera
PUBLIC	?update_recognition_guide_top_view_camera@@YGXPAUCAMERA@@@Z ; update_recognition_guide_top_view_camera
PUBLIC	?update_recognition_guide_side_view_camera@@YGXPAUCAMERA@@@Z ; update_recognition_guide_side_view_camera
PUBLIC	?update_recognition_guide_front_view_camera@@YGXPAUCAMERA@@@Z ; update_recognition_guide_front_view_camera
PUBLIC	?update_recognition_guide_3d_view_camera@@YGXPAUCAMERA@@@Z ; update_recognition_guide_3d_view_camera
PUBLIC	??$max@M@std@@YGABMABM0@Z			; std::max<float>
PUBLIC	??_C@_02DKCKIIND@?$CFs@				; `string'
PUBLIC	?__LINE__Var@?0??recognition_guide_camera_valid@@YGHPAUCAMERA@@H@Z@4JA ; `recognition_guide_camera_valid'::`1'::__LINE__Var
PUBLIC	??_C@_0EN@IJEGGLEE@c?3?2users?2nhv90?2projects?2eech?2ap@ ; `string'
PUBLIC	??_C@_03DGOGAGNC@raw@				; `string'
PUBLIC	??_C@_0BK@NIGJPCBN@raw?9?$DOexternal_view_entity@ ; `string'
PUBLIC	??_C@_06DDNABPCD@inst3d@			; `string'
PUBLIC	?__LINE__Var@?0??reset_recognition_guide_camera@@YGXPAUCAMERA@@@Z@4JA ; `reset_recognition_guide_camera'::`1'::__LINE__Var
PUBLIC	?__LINE__Var@?0??update_recognition_guide_camera@@YGXPAUCAMERA@@H@Z@4JA ; `update_recognition_guide_camera'::`1'::__LINE__Var
PUBLIC	??_C@_0BD@FEEMDEPI@invalid?5comparator@		; `string'
PUBLIC	??_C@_0GK@JMBMHIBC@c?3?2program?5files?5?$CIx86?$CJ?2microsof@ ; `string'
PUBLIC	??_C@_1NE@FKBPBJEB@?$AAc?$AA?3?$AA?2?$AAp?$AAr?$AAo?$AAg?$AAr?$AAa?$AAm?$AA?5?$AAf?$AAi?$AAl?$AAe@ ; `string'
PUBLIC	??_C@_1BC@ICCOKLEG@?$AAs?$AAt?$AAd?$AA?3?$AA?3?$AAm?$AAa?$AAx@ ; `string'
PUBLIC	??_C@_1CK@NDNHPKPI@?$AA?$CC?$AAi?$AAn?$AAv?$AAa?$AAl?$AAi?$AAd?$AA?5?$AAc?$AAo?$AAm?$AAp?$AAa?$AAr@ ; `string'
PUBLIC	__real@3f000000
EXTRN	__imp___invalid_parameter:PROC
EXTRN	_memcpy:PROC
EXTRN	__imp___CrtDbgReport:PROC
EXTRN	?process_assert@@YGXPBD0H@Z:PROC		; process_assert
EXTRN	?get_number_of_3d_object_cameras@@YGHPAUOBJECT_3D_INSTANCE@@H@Z:PROC ; get_number_of_3d_object_cameras
EXTRN	?get_object_3d_camera_position@@YGHPAUOBJECT_3D_INSTANCE@@HHMPAUVIEWPOINT@@@Z:PROC ; get_object_3d_camera_position
EXTRN	?set_3d_exclusive_instance@@YGXPAUOBJECT_3D_INSTANCE@@@Z:PROC ; set_3d_exclusive_instance
EXTRN	?get_3d_terrain_point_data@@YGMMMPAUTERRAIN_3D_POINT_DATA@@@Z:PROC ; get_3d_terrain_point_data
EXTRN	?null_entity_pointer_message@@3PBDB:DWORD	; null_entity_pointer_message
EXTRN	?world_map@@3UWORLD_MAP_DATA@@A:BYTE		; world_map
EXTRN	?fn_get_local_entity_attitude_matrix@@3PAP6GXPAUENTITY@@QAY02M@ZA:BYTE ; fn_get_local_entity_attitude_matrix
EXTRN	?overload_invalid_ptr_type_message@@3PBDB:DWORD	; overload_invalid_ptr_type_message
EXTRN	?fn_get_local_entity_ptr_value@@3PAY0BE@P6GPAXPAUENTITY@@W4PTR_TYPES@@@ZA:BYTE ; fn_get_local_entity_ptr_value
EXTRN	?overload_invalid_vec3d_type_message@@3PBDB:DWORD ; overload_invalid_vec3d_type_message
EXTRN	?fn_get_local_entity_vec3d@@3PAY0BI@P6GXPAUENTITY@@W4VEC3D_TYPES@@PAUVEC3D@@@ZA:BYTE ; fn_get_local_entity_vec3d
EXTRN	__fltused:DWORD
;	COMDAT __real@3f000000
CONST	SEGMENT
__real@3f000000 DD 03f000000r			; 0.5
CONST	ENDS
;	COMDAT ??_C@_1CK@NDNHPKPI@?$AA?$CC?$AAi?$AAn?$AAv?$AAa?$AAl?$AAi?$AAd?$AA?5?$AAc?$AAo?$AAm?$AAp?$AAa?$AAr@
CONST	SEGMENT
??_C@_1CK@NDNHPKPI@?$AA?$CC?$AAi?$AAn?$AAv?$AAa?$AAl?$AAi?$AAd?$AA?5?$AAc?$AAo?$AAm?$AAp?$AAa?$AAr@ DB '"'
	DB	00H, 'i', 00H, 'n', 00H, 'v', 00H, 'a', 00H, 'l', 00H, 'i', 00H
	DB	'd', 00H, ' ', 00H, 'c', 00H, 'o', 00H, 'm', 00H, 'p', 00H, 'a'
	DB	00H, 'r', 00H, 'a', 00H, 't', 00H, 'o', 00H, 'r', 00H, '"', 00H
	DB	00H, 00H					; `string'
CONST	ENDS
;	COMDAT ??_C@_1BC@ICCOKLEG@?$AAs?$AAt?$AAd?$AA?3?$AA?3?$AAm?$AAa?$AAx@
CONST	SEGMENT
??_C@_1BC@ICCOKLEG@?$AAs?$AAt?$AAd?$AA?3?$AA?3?$AAm?$AAa?$AAx@ DB 's', 00H
	DB	't', 00H, 'd', 00H, ':', 00H, ':', 00H, 'm', 00H, 'a', 00H, 'x'
	DB	00H, 00H, 00H				; `string'
CONST	ENDS
;	COMDAT ??_C@_1NE@FKBPBJEB@?$AAc?$AA?3?$AA?2?$AAp?$AAr?$AAo?$AAg?$AAr?$AAa?$AAm?$AA?5?$AAf?$AAi?$AAl?$AAe@
CONST	SEGMENT
??_C@_1NE@FKBPBJEB@?$AAc?$AA?3?$AA?2?$AAp?$AAr?$AAo?$AAg?$AAr?$AAa?$AAm?$AA?5?$AAf?$AAi?$AAl?$AAe@ DB 'c'
	DB	00H, ':', 00H, '\', 00H, 'p', 00H, 'r', 00H, 'o', 00H, 'g', 00H
	DB	'r', 00H, 'a', 00H, 'm', 00H, ' ', 00H, 'f', 00H, 'i', 00H, 'l'
	DB	00H, 'e', 00H, 's', 00H, ' ', 00H, '(', 00H, 'x', 00H, '8', 00H
	DB	'6', 00H, ')', 00H, '\', 00H, 'm', 00H, 'i', 00H, 'c', 00H, 'r'
	DB	00H, 'o', 00H, 's', 00H, 'o', 00H, 'f', 00H, 't', 00H, ' ', 00H
	DB	'v', 00H, 'i', 00H, 's', 00H, 'u', 00H, 'a', 00H, 'l', 00H, ' '
	DB	00H, 's', 00H, 't', 00H, 'u', 00H, 'd', 00H, 'i', 00H, 'o', 00H
	DB	'\', 00H, '2', 00H, '0', 00H, '1', 00H, '7', 00H, '\', 00H, 'c'
	DB	00H, 'o', 00H, 'm', 00H, 'm', 00H, 'u', 00H, 'n', 00H, 'i', 00H
	DB	't', 00H, 'y', 00H, '\', 00H, 'v', 00H, 'c', 00H, '\', 00H, 't'
	DB	00H, 'o', 00H, 'o', 00H, 'l', 00H, 's', 00H, '\', 00H, 'm', 00H
	DB	's', 00H, 'v', 00H, 'c', 00H, '\', 00H, '1', 00H, '4', 00H, '.'
	DB	00H, '1', 00H, '6', 00H, '.', 00H, '2', 00H, '7', 00H, '0', 00H
	DB	'2', 00H, '3', 00H, '\', 00H, 'i', 00H, 'n', 00H, 'c', 00H, 'l'
	DB	00H, 'u', 00H, 'd', 00H, 'e', 00H, '\', 00H, 'a', 00H, 'l', 00H
	DB	'g', 00H, 'o', 00H, 'r', 00H, 'i', 00H, 't', 00H, 'h', 00H, 'm'
	DB	00H, 00H, 00H				; `string'
CONST	ENDS
;	COMDAT ??_C@_0GK@JMBMHIBC@c?3?2program?5files?5?$CIx86?$CJ?2microsof@
CONST	SEGMENT
??_C@_0GK@JMBMHIBC@c?3?2program?5files?5?$CIx86?$CJ?2microsof@ DB 'c:\pro'
	DB	'gram files (x86)\microsoft visual studio\2017\community\vc\to'
	DB	'ols\msvc\14.16.27023\include\algorithm', 00H ; `string'
CONST	ENDS
;	COMDAT ??_C@_0BD@FEEMDEPI@invalid?5comparator@
CONST	SEGMENT
??_C@_0BD@FEEMDEPI@invalid?5comparator@ DB 'invalid comparator', 00H ; `string'
CONST	ENDS
;	COMDAT ?__LINE__Var@?0??update_recognition_guide_camera@@YGXPAUCAMERA@@H@Z@4JA
_DATA	SEGMENT
?__LINE__Var@?0??update_recognition_guide_camera@@YGXPAUCAMERA@@H@Z@4JA DD 0c6H ; `update_recognition_guide_camera'::`1'::__LINE__Var
_DATA	ENDS
;	COMDAT ?__LINE__Var@?0??reset_recognition_guide_camera@@YGXPAUCAMERA@@@Z@4JA
_DATA	SEGMENT
?__LINE__Var@?0??reset_recognition_guide_camera@@YGXPAUCAMERA@@@Z@4JA DD 088H ; `reset_recognition_guide_camera'::`1'::__LINE__Var
_DATA	ENDS
;	COMDAT ??_C@_06DDNABPCD@inst3d@
CONST	SEGMENT
??_C@_06DDNABPCD@inst3d@ DB 'inst3d', 00H		; `string'
CONST	ENDS
;	COMDAT ??_C@_0BK@NIGJPCBN@raw?9?$DOexternal_view_entity@
CONST	SEGMENT
??_C@_0BK@NIGJPCBN@raw?9?$DOexternal_view_entity@ DB 'raw->external_view_'
	DB	'entity', 00H				; `string'
CONST	ENDS
;	COMDAT ??_C@_03DGOGAGNC@raw@
CONST	SEGMENT
??_C@_03DGOGAGNC@raw@ DB 'raw', 00H			; `string'
CONST	ENDS
;	COMDAT ??_C@_0EN@IJEGGLEE@c?3?2users?2nhv90?2projects?2eech?2ap@
CONST	SEGMENT
??_C@_0EN@IJEGGLEE@c?3?2users?2nhv90?2projects?2eech?2ap@ DB 'c:\users\nh'
	DB	'v90\projects\eech\aphavoc\source\entity\special\camera\cm_rec'
	DB	'og.c', 00H					; `string'
CONST	ENDS
;	COMDAT ?__LINE__Var@?0??recognition_guide_camera_valid@@YGHPAUCAMERA@@H@Z@4JA
_DATA	SEGMENT
?__LINE__Var@?0??recognition_guide_camera_valid@@YGHPAUCAMERA@@H@Z@4JA DD 050H ; `recognition_guide_camera_valid'::`1'::__LINE__Var
_DATA	ENDS
;	COMDAT ??_C@_02DKCKIIND@?$CFs@
CONST	SEGMENT
??_C@_02DKCKIIND@?$CFs@ DB '%s', 00H			; `string'
CONST	ENDS
; Function compile flags: /Odtp /ZI
; File c:\program files (x86)\microsoft visual studio\2017\community\vc\tools\msvc\14.16.27023\include\algorithm
;	COMDAT ??$max@M@std@@YGABMABM0@Z
_TEXT	SEGMENT
__Left$ = 8						; size = 4
__Right$ = 12						; size = 4
??$max@M@std@@YGABMABM0@Z PROC				; std::max<float>, COMDAT

; 5387 : 	{	// return larger of _Left and _Right

  00000	55		 push	 ebp
  00001	8b ec		 mov	 ebp, esp
  00003	83 ec 40	 sub	 esp, 64			; 00000040H
  00006	53		 push	 ebx
  00007	56		 push	 esi
  00008	57		 push	 edi

; 5388 : 	if (_Left < _Right)

  00009	8b 45 0c	 mov	 eax, DWORD PTR __Right$[ebp]
  0000c	8b 4d 08	 mov	 ecx, DWORD PTR __Left$[ebp]
  0000f	f3 0f 10 00	 movss	 xmm0, DWORD PTR [eax]
  00013	0f 2f 01	 comiss	 xmm0, DWORD PTR [ecx]
  00016	76 64		 jbe	 SHORT $LN8@max
$LN4@max:

; 5389 : 		{
; 5390 : 		_STL_ASSERT(!(_Right < _Left), "invalid comparator");

  00018	8b 45 08	 mov	 eax, DWORD PTR __Left$[ebp]
  0001b	8b 4d 0c	 mov	 ecx, DWORD PTR __Right$[ebp]
  0001e	f3 0f 10 00	 movss	 xmm0, DWORD PTR [eax]
  00022	0f 2f 01	 comiss	 xmm0, DWORD PTR [ecx]
  00025	77 02		 ja	 SHORT $LN9@max
  00027	eb 4a		 jmp	 SHORT $LN6@max
$LN9@max:
  00029	68 00 00 00 00	 push	 OFFSET ??_C@_0BD@FEEMDEPI@invalid?5comparator@
  0002e	68 00 00 00 00	 push	 OFFSET ??_C@_02DKCKIIND@?$CFs@
  00033	6a 00		 push	 0
  00035	68 0e 15 00 00	 push	 5390			; 0000150eH
  0003a	68 00 00 00 00	 push	 OFFSET ??_C@_0GK@JMBMHIBC@c?3?2program?5files?5?$CIx86?$CJ?2microsof@
  0003f	6a 02		 push	 2
  00041	ff 15 00 00 00
	00		 call	 DWORD PTR __imp___CrtDbgReport
  00047	83 c4 18	 add	 esp, 24			; 00000018H
  0004a	83 f8 01	 cmp	 eax, 1
  0004d	75 01		 jne	 SHORT $LN12@max
  0004f	cc		 int	 3
$LN12@max:
  00050	6a 00		 push	 0
  00052	68 0e 15 00 00	 push	 5390			; 0000150eH
  00057	68 00 00 00 00	 push	 OFFSET ??_C@_1NE@FKBPBJEB@?$AAc?$AA?3?$AA?2?$AAp?$AAr?$AAo?$AAg?$AAr?$AAa?$AAm?$AA?5?$AAf?$AAi?$AAl?$AAe@
  0005c	68 00 00 00 00	 push	 OFFSET ??_C@_1BC@ICCOKLEG@?$AAs?$AAt?$AAd?$AA?3?$AA?3?$AAm?$AAa?$AAx@
  00061	68 00 00 00 00	 push	 OFFSET ??_C@_1CK@NDNHPKPI@?$AA?$CC?$AAi?$AAn?$AAv?$AAa?$AAl?$AAi?$AAd?$AA?5?$AAc?$AAo?$AAm?$AAp?$AAa?$AAr@
  00066	ff 15 00 00 00
	00		 call	 DWORD PTR __imp___invalid_parameter
  0006c	83 c4 14	 add	 esp, 20			; 00000014H
  0006f	33 c0		 xor	 eax, eax
  00071	75 b6		 jne	 SHORT $LN9@max
$LN6@max:
  00073	33 c0		 xor	 eax, eax
  00075	75 a1		 jne	 SHORT $LN4@max

; 5391 : 		return (_Right);

  00077	8b 45 0c	 mov	 eax, DWORD PTR __Right$[ebp]
  0007a	eb 03		 jmp	 SHORT $LN1@max
$LN8@max:

; 5392 : 		}
; 5393 : 
; 5394 : 	return (_Left);

  0007c	8b 45 08	 mov	 eax, DWORD PTR __Left$[ebp]
$LN1@max:

; 5395 : 	}

  0007f	5f		 pop	 edi
  00080	5e		 pop	 esi
  00081	5b		 pop	 ebx
  00082	8b e5		 mov	 esp, ebp
  00084	5d		 pop	 ebp
  00085	c2 08 00	 ret	 8
??$max@M@std@@YGABMABM0@Z ENDP				; std::max<float>
_TEXT	ENDS
; Function compile flags: /Odtp /ZI
; File c:\users\nhv90\projects\eech\aphavoc\source\entity\special\camera\cm_recog.c
;	COMDAT ?update_recognition_guide_camera@@YGXPAUCAMERA@@H@Z
_TEXT	SEGMENT
tv222 = -132						; size = 4
tv148 = -132						; size = 4
tv90 = -132						; size = 4
tv299 = -128						; size = 4
tv214 = -128						; size = 4
tv162 = -128						; size = 4
tv140 = -128						; size = 4
tv82 = -128						; size = 4
$T1 = -124						; size = 4
_vp$ = -56						; size = 48
_inst3d$ = -8						; size = 4
_en$ = -4						; size = 4
_raw$ = 8						; size = 4
_index$ = 12						; size = 4
?update_recognition_guide_camera@@YGXPAUCAMERA@@H@Z PROC ; update_recognition_guide_camera, COMDAT

; 198  : {

  00000	55		 push	 ebp
  00001	8b ec		 mov	 ebp, esp
  00003	81 ec 84 00 00
	00		 sub	 esp, 132		; 00000084H
  00009	53		 push	 ebx
  0000a	56		 push	 esi
  0000b	57		 push	 edi

; 199  : 	entity
; 200  : 		*en;
; 201  : 
; 202  : 	object_3d_instance
; 203  : 		*inst3d;
; 204  : 
; 205  : 	viewpoint
; 206  : 		vp;
; 207  : 
; 208  : 	//
; 209  : 	// pre-amble
; 210  : 	//
; 211  : 
; 212  : 	ASSERT (raw);

  0000c	83 7d 08 00	 cmp	 DWORD PTR _raw$[ebp], 0
  00010	75 18		 jne	 SHORT $LN2@update_rec
  00012	a1 00 00 00 00	 mov	 eax, DWORD PTR ?__LINE__Var@?0??update_recognition_guide_camera@@YGXPAUCAMERA@@H@Z@4JA
  00017	83 c0 0e	 add	 eax, 14			; 0000000eH
  0001a	50		 push	 eax
  0001b	68 00 00 00 00	 push	 OFFSET ??_C@_0EN@IJEGGLEE@c?3?2users?2nhv90?2projects?2eech?2ap@
  00020	68 00 00 00 00	 push	 OFFSET ??_C@_03DGOGAGNC@raw@
  00025	e8 00 00 00 00	 call	 ?process_assert@@YGXPBD0H@Z ; process_assert
$LN2@update_rec:

; 213  : 
; 214  : 	ASSERT (raw->external_view_entity);

  0002a	8b 45 08	 mov	 eax, DWORD PTR _raw$[ebp]
  0002d	83 b8 24 01 00
	00 00		 cmp	 DWORD PTR [eax+292], 0
  00034	75 18		 jne	 SHORT $LN3@update_rec
  00036	a1 00 00 00 00	 mov	 eax, DWORD PTR ?__LINE__Var@?0??update_recognition_guide_camera@@YGXPAUCAMERA@@H@Z@4JA
  0003b	83 c0 10	 add	 eax, 16			; 00000010H
  0003e	50		 push	 eax
  0003f	68 00 00 00 00	 push	 OFFSET ??_C@_0EN@IJEGGLEE@c?3?2users?2nhv90?2projects?2eech?2ap@
  00044	68 00 00 00 00	 push	 OFFSET ??_C@_0BK@NIGJPCBN@raw?9?$DOexternal_view_entity@
  00049	e8 00 00 00 00	 call	 ?process_assert@@YGXPBD0H@Z ; process_assert
$LN3@update_rec:

; 215  : 
; 216  : 	en = raw->external_view_entity;

  0004e	8b 45 08	 mov	 eax, DWORD PTR _raw$[ebp]
  00051	8b 88 24 01 00
	00		 mov	 ecx, DWORD PTR [eax+292]
  00057	89 4d fc	 mov	 DWORD PTR _en$[ebp], ecx

; 217  : 
; 218  : 	//
; 219  : 	// get camera position and attitude
; 220  : 	//
; 221  : 
; 222  : 	inst3d = (object_3d_instance *) get_local_entity_ptr_value (en, PTR_TYPE_INSTANCE_3D_OBJECT);

  0005a	83 7d fc 00	 cmp	 DWORD PTR _en$[ebp], 0
  0005e	74 0a		 je	 SHORT $LN7@update_rec
  00060	8b 45 fc	 mov	 eax, DWORD PTR _en$[ebp]
  00063	8b 08		 mov	 ecx, DWORD PTR [eax]
  00065	89 4d 80	 mov	 DWORD PTR tv82[ebp], ecx
  00068	eb 21		 jmp	 SHORT $LN8@update_rec
$LN7@update_rec:
  0006a	8b 15 00 00 00
	00		 mov	 edx, DWORD PTR ?__LINE__Var@?0??update_recognition_guide_camera@@YGXPAUCAMERA@@H@Z@4JA
  00070	83 c2 18	 add	 edx, 24			; 00000018H
  00073	52		 push	 edx
  00074	68 00 00 00 00	 push	 OFFSET ??_C@_0EN@IJEGGLEE@c?3?2users?2nhv90?2projects?2eech?2ap@
  00079	a1 00 00 00 00	 mov	 eax, DWORD PTR ?null_entity_pointer_message@@3PBDB ; null_entity_pointer_message
  0007e	50		 push	 eax
  0007f	e8 00 00 00 00	 call	 ?process_assert@@YGXPBD0H@Z ; process_assert
  00084	c7 45 80 00 00
	00 00		 mov	 DWORD PTR tv82[ebp], 0
$LN8@update_rec:
  0008b	b9 01 00 00 00	 mov	 ecx, 1
  00090	85 c9		 test	 ecx, ecx
  00092	74 0c		 je	 SHORT $LN9@update_rec
  00094	c7 85 7c ff ff
	ff 02 00 00 00	 mov	 DWORD PTR tv90[ebp], 2
  0009e	eb 24		 jmp	 SHORT $LN10@update_rec
$LN9@update_rec:
  000a0	8b 15 00 00 00
	00		 mov	 edx, DWORD PTR ?__LINE__Var@?0??update_recognition_guide_camera@@YGXPAUCAMERA@@H@Z@4JA
  000a6	83 c2 18	 add	 edx, 24			; 00000018H
  000a9	52		 push	 edx
  000aa	68 00 00 00 00	 push	 OFFSET ??_C@_0EN@IJEGGLEE@c?3?2users?2nhv90?2projects?2eech?2ap@
  000af	a1 00 00 00 00	 mov	 eax, DWORD PTR ?overload_invalid_ptr_type_message@@3PBDB ; overload_invalid_ptr_type_message
  000b4	50		 push	 eax
  000b5	e8 00 00 00 00	 call	 ?process_assert@@YGXPBD0H@Z ; process_assert
  000ba	c7 85 7c ff ff
	ff 00 00 00 00	 mov	 DWORD PTR tv90[ebp], 0
$LN10@update_rec:
  000c4	6a 02		 push	 2
  000c6	8b 4d fc	 mov	 ecx, DWORD PTR _en$[ebp]
  000c9	51		 push	 ecx
  000ca	6b 55 80 50	 imul	 edx, DWORD PTR tv82[ebp], 80
  000ce	8b 85 7c ff ff
	ff		 mov	 eax, DWORD PTR tv90[ebp]
  000d4	8b 8c 82 00 00
	00 00		 mov	 ecx, DWORD PTR ?fn_get_local_entity_ptr_value@@3PAY0BE@P6GPAXPAUENTITY@@W4PTR_TYPES@@@ZA[edx+eax*4]
  000db	ff d1		 call	 ecx
  000dd	89 45 f8	 mov	 DWORD PTR _inst3d$[ebp], eax

; 223  : 
; 224  : 	ASSERT (inst3d);

  000e0	83 7d f8 00	 cmp	 DWORD PTR _inst3d$[ebp], 0
  000e4	75 18		 jne	 SHORT $LN4@update_rec
  000e6	a1 00 00 00 00	 mov	 eax, DWORD PTR ?__LINE__Var@?0??update_recognition_guide_camera@@YGXPAUCAMERA@@H@Z@4JA
  000eb	83 c0 1a	 add	 eax, 26			; 0000001aH
  000ee	50		 push	 eax
  000ef	68 00 00 00 00	 push	 OFFSET ??_C@_0EN@IJEGGLEE@c?3?2users?2nhv90?2projects?2eech?2ap@
  000f4	68 00 00 00 00	 push	 OFFSET ??_C@_06DDNABPCD@inst3d@
  000f9	e8 00 00 00 00	 call	 ?process_assert@@YGXPBD0H@Z ; process_assert
$LN4@update_rec:

; 225  : 
; 226  : 	set_3d_exclusive_instance ( inst3d );

  000fe	8b 45 f8	 mov	 eax, DWORD PTR _inst3d$[ebp]
  00101	50		 push	 eax
  00102	e8 00 00 00 00	 call	 ?set_3d_exclusive_instance@@YGXPAUOBJECT_3D_INSTANCE@@@Z ; set_3d_exclusive_instance

; 227  : 
; 228  : 	get_local_entity_vec3d (en, VEC3D_TYPE_POSITION, &inst3d->vp.position);

  00107	83 7d fc 00	 cmp	 DWORD PTR _en$[ebp], 0
  0010b	74 0a		 je	 SHORT $LN11@update_rec
  0010d	8b 45 fc	 mov	 eax, DWORD PTR _en$[ebp]
  00110	8b 08		 mov	 ecx, DWORD PTR [eax]
  00112	89 4d 80	 mov	 DWORD PTR tv140[ebp], ecx
  00115	eb 21		 jmp	 SHORT $LN12@update_rec
$LN11@update_rec:
  00117	8b 15 00 00 00
	00		 mov	 edx, DWORD PTR ?__LINE__Var@?0??update_recognition_guide_camera@@YGXPAUCAMERA@@H@Z@4JA
  0011d	83 c2 1e	 add	 edx, 30			; 0000001eH
  00120	52		 push	 edx
  00121	68 00 00 00 00	 push	 OFFSET ??_C@_0EN@IJEGGLEE@c?3?2users?2nhv90?2projects?2eech?2ap@
  00126	a1 00 00 00 00	 mov	 eax, DWORD PTR ?null_entity_pointer_message@@3PBDB ; null_entity_pointer_message
  0012b	50		 push	 eax
  0012c	e8 00 00 00 00	 call	 ?process_assert@@YGXPBD0H@Z ; process_assert
  00131	c7 45 80 00 00
	00 00		 mov	 DWORD PTR tv140[ebp], 0
$LN12@update_rec:
  00138	b9 01 00 00 00	 mov	 ecx, 1
  0013d	85 c9		 test	 ecx, ecx
  0013f	74 0c		 je	 SHORT $LN13@update_rec
  00141	c7 85 7c ff ff
	ff 08 00 00 00	 mov	 DWORD PTR tv148[ebp], 8
  0014b	eb 24		 jmp	 SHORT $LN14@update_rec
$LN13@update_rec:
  0014d	8b 15 00 00 00
	00		 mov	 edx, DWORD PTR ?__LINE__Var@?0??update_recognition_guide_camera@@YGXPAUCAMERA@@H@Z@4JA
  00153	83 c2 1e	 add	 edx, 30			; 0000001eH
  00156	52		 push	 edx
  00157	68 00 00 00 00	 push	 OFFSET ??_C@_0EN@IJEGGLEE@c?3?2users?2nhv90?2projects?2eech?2ap@
  0015c	a1 00 00 00 00	 mov	 eax, DWORD PTR ?overload_invalid_vec3d_type_message@@3PBDB ; overload_invalid_vec3d_type_message
  00161	50		 push	 eax
  00162	e8 00 00 00 00	 call	 ?process_assert@@YGXPBD0H@Z ; process_assert
  00167	c7 85 7c ff ff
	ff 00 00 00 00	 mov	 DWORD PTR tv148[ebp], 0
$LN14@update_rec:
  00171	8b 4d f8	 mov	 ecx, DWORD PTR _inst3d$[ebp]
  00174	83 c1 08	 add	 ecx, 8
  00177	51		 push	 ecx
  00178	6a 08		 push	 8
  0017a	8b 55 fc	 mov	 edx, DWORD PTR _en$[ebp]
  0017d	52		 push	 edx
  0017e	6b 45 80 60	 imul	 eax, DWORD PTR tv140[ebp], 96
  00182	8b 8d 7c ff ff
	ff		 mov	 ecx, DWORD PTR tv148[ebp]
  00188	8b 94 88 00 00
	00 00		 mov	 edx, DWORD PTR ?fn_get_local_entity_vec3d@@3PAY0BI@P6GXPAUENTITY@@W4VEC3D_TYPES@@PAUVEC3D@@@ZA[eax+ecx*4]
  0018f	ff d2		 call	 edx

; 229  : 
; 230  : 	get_local_entity_attitude_matrix (en, inst3d->vp.attitude);

  00191	83 7d fc 00	 cmp	 DWORD PTR _en$[ebp], 0
  00195	74 0a		 je	 SHORT $LN15@update_rec
  00197	8b 45 fc	 mov	 eax, DWORD PTR _en$[ebp]
  0019a	8b 08		 mov	 ecx, DWORD PTR [eax]
  0019c	89 4d 80	 mov	 DWORD PTR tv162[ebp], ecx
  0019f	eb 21		 jmp	 SHORT $LN16@update_rec
$LN15@update_rec:
  001a1	8b 15 00 00 00
	00		 mov	 edx, DWORD PTR ?__LINE__Var@?0??update_recognition_guide_camera@@YGXPAUCAMERA@@H@Z@4JA
  001a7	83 c2 20	 add	 edx, 32			; 00000020H
  001aa	52		 push	 edx
  001ab	68 00 00 00 00	 push	 OFFSET ??_C@_0EN@IJEGGLEE@c?3?2users?2nhv90?2projects?2eech?2ap@
  001b0	a1 00 00 00 00	 mov	 eax, DWORD PTR ?null_entity_pointer_message@@3PBDB ; null_entity_pointer_message
  001b5	50		 push	 eax
  001b6	e8 00 00 00 00	 call	 ?process_assert@@YGXPBD0H@Z ; process_assert
  001bb	c7 45 80 00 00
	00 00		 mov	 DWORD PTR tv162[ebp], 0
$LN16@update_rec:
  001c2	8b 4d f8	 mov	 ecx, DWORD PTR _inst3d$[ebp]
  001c5	83 c1 14	 add	 ecx, 20			; 00000014H
  001c8	51		 push	 ecx
  001c9	8b 55 fc	 mov	 edx, DWORD PTR _en$[ebp]
  001cc	52		 push	 edx
  001cd	8b 45 80	 mov	 eax, DWORD PTR tv162[ebp]
  001d0	8b 0c 85 00 00
	00 00		 mov	 ecx, DWORD PTR ?fn_get_local_entity_attitude_matrix@@3PAP6GXPAUENTITY@@QAY02M@ZA[eax*4]
  001d7	ff d1		 call	 ecx

; 231  : 
; 232  : 	get_object_3d_camera_position (inst3d, index, 0, 0.0, &vp);

  001d9	8d 45 c8	 lea	 eax, DWORD PTR _vp$[ebp]
  001dc	50		 push	 eax
  001dd	51		 push	 ecx
  001de	0f 57 c0	 xorps	 xmm0, xmm0
  001e1	f3 0f 11 04 24	 movss	 DWORD PTR [esp], xmm0
  001e6	6a 00		 push	 0
  001e8	8b 4d 0c	 mov	 ecx, DWORD PTR _index$[ebp]
  001eb	51		 push	 ecx
  001ec	8b 55 f8	 mov	 edx, DWORD PTR _inst3d$[ebp]
  001ef	52		 push	 edx
  001f0	e8 00 00 00 00	 call	 ?get_object_3d_camera_position@@YGHPAUOBJECT_3D_INSTANCE@@HHMPAUVIEWPOINT@@@Z ; get_object_3d_camera_position

; 233  : 
; 234  : 	raw->position = vp.position;

  001f5	8b 45 08	 mov	 eax, DWORD PTR _raw$[ebp]
  001f8	8b 4d c8	 mov	 ecx, DWORD PTR _vp$[ebp]
  001fb	89 08		 mov	 DWORD PTR [eax], ecx
  001fd	8b 55 cc	 mov	 edx, DWORD PTR _vp$[ebp+4]
  00200	89 50 04	 mov	 DWORD PTR [eax+4], edx
  00203	8b 4d d0	 mov	 ecx, DWORD PTR _vp$[ebp+8]
  00206	89 48 08	 mov	 DWORD PTR [eax+8], ecx

; 235  : 
; 236  : 	memcpy (raw->attitude, vp.attitude, sizeof (matrix3x3));

  00209	6a 24		 push	 36			; 00000024H
  0020b	8d 45 d4	 lea	 eax, DWORD PTR _vp$[ebp+12]
  0020e	50		 push	 eax
  0020f	8b 4d 08	 mov	 ecx, DWORD PTR _raw$[ebp]
  00212	83 c1 18	 add	 ecx, 24			; 00000018H
  00215	51		 push	 ecx
  00216	e8 00 00 00 00	 call	 _memcpy
  0021b	83 c4 0c	 add	 esp, 12			; 0000000cH

; 237  : 
; 238  : 	//
; 239  : 	// keep point above ground (unless point off map)
; 240  : 	//
; 241  : 
; 242  : 	if (point_inside_map_area (&raw->position))

  0021e	8b 45 08	 mov	 eax, DWORD PTR _raw$[ebp]
  00221	f3 0f 10 00	 movss	 xmm0, DWORD PTR [eax]
  00225	0f 2f 05 24 00
	00 00		 comiss	 xmm0, DWORD PTR ?world_map@@3UWORLD_MAP_DATA@@A+36
  0022c	0f 82 86 00 00
	00		 jb	 $LN5@update_rec
  00232	8b 45 08	 mov	 eax, DWORD PTR _raw$[ebp]
  00235	f3 0f 10 05 3c
	00 00 00	 movss	 xmm0, DWORD PTR ?world_map@@3UWORLD_MAP_DATA@@A+60
  0023d	0f 2f 00	 comiss	 xmm0, DWORD PTR [eax]
  00240	72 76		 jb	 SHORT $LN5@update_rec
  00242	8b 45 08	 mov	 eax, DWORD PTR _raw$[ebp]
  00245	f3 0f 10 40 08	 movss	 xmm0, DWORD PTR [eax+8]
  0024a	0f 2f 05 2c 00
	00 00		 comiss	 xmm0, DWORD PTR ?world_map@@3UWORLD_MAP_DATA@@A+44
  00251	72 65		 jb	 SHORT $LN5@update_rec
  00253	8b 45 08	 mov	 eax, DWORD PTR _raw$[ebp]
  00256	f3 0f 10 05 44
	00 00 00	 movss	 xmm0, DWORD PTR ?world_map@@3UWORLD_MAP_DATA@@A+68
  0025e	0f 2f 40 08	 comiss	 xmm0, DWORD PTR [eax+8]
  00262	72 54		 jb	 SHORT $LN5@update_rec

; 243  : 	{
; 244  : 		raw->position.y = max (raw->position.y, get_3d_terrain_point_data (raw->position.x, raw->position.z, &raw->terrain_info) + 0.5f);

  00264	8b 45 08	 mov	 eax, DWORD PTR _raw$[ebp]
  00267	83 c0 50	 add	 eax, 80			; 00000050H
  0026a	50		 push	 eax
  0026b	8b 4d 08	 mov	 ecx, DWORD PTR _raw$[ebp]
  0026e	51		 push	 ecx
  0026f	f3 0f 10 41 08	 movss	 xmm0, DWORD PTR [ecx+8]
  00274	f3 0f 11 04 24	 movss	 DWORD PTR [esp], xmm0
  00279	8b 55 08	 mov	 edx, DWORD PTR _raw$[ebp]
  0027c	51		 push	 ecx
  0027d	f3 0f 10 02	 movss	 xmm0, DWORD PTR [edx]
  00281	f3 0f 11 04 24	 movss	 DWORD PTR [esp], xmm0
  00286	e8 00 00 00 00	 call	 ?get_3d_terrain_point_data@@YGMMMPAUTERRAIN_3D_POINT_DATA@@@Z ; get_3d_terrain_point_data
  0028b	d9 5d 80	 fstp	 DWORD PTR tv299[ebp]
  0028e	f3 0f 10 45 80	 movss	 xmm0, DWORD PTR tv299[ebp]
  00293	f3 0f 58 05 00
	00 00 00	 addss	 xmm0, DWORD PTR __real@3f000000
  0029b	f3 0f 11 45 84	 movss	 DWORD PTR $T1[ebp], xmm0
  002a0	8d 45 84	 lea	 eax, DWORD PTR $T1[ebp]
  002a3	50		 push	 eax
  002a4	8b 4d 08	 mov	 ecx, DWORD PTR _raw$[ebp]
  002a7	83 c1 04	 add	 ecx, 4
  002aa	51		 push	 ecx
  002ab	e8 00 00 00 00	 call	 ??$max@M@std@@YGABMABM0@Z ; std::max<float>
  002b0	8b 55 08	 mov	 edx, DWORD PTR _raw$[ebp]
  002b3	8b 00		 mov	 eax, DWORD PTR [eax]
  002b5	89 42 04	 mov	 DWORD PTR [edx+4], eax
$LN5@update_rec:

; 245  : 	}
; 246  : 
; 247  : 	//
; 248  : 	// motion vector
; 249  : 	//
; 250  : 
; 251  : 	get_local_entity_vec3d (en, VEC3D_TYPE_MOTION_VECTOR, &raw->motion_vector);

  002b8	83 7d fc 00	 cmp	 DWORD PTR _en$[ebp], 0
  002bc	74 0a		 je	 SHORT $LN17@update_rec
  002be	8b 45 fc	 mov	 eax, DWORD PTR _en$[ebp]
  002c1	8b 08		 mov	 ecx, DWORD PTR [eax]
  002c3	89 4d 80	 mov	 DWORD PTR tv214[ebp], ecx
  002c6	eb 21		 jmp	 SHORT $LN18@update_rec
$LN17@update_rec:
  002c8	8b 15 00 00 00
	00		 mov	 edx, DWORD PTR ?__LINE__Var@?0??update_recognition_guide_camera@@YGXPAUCAMERA@@H@Z@4JA
  002ce	83 c2 35	 add	 edx, 53			; 00000035H
  002d1	52		 push	 edx
  002d2	68 00 00 00 00	 push	 OFFSET ??_C@_0EN@IJEGGLEE@c?3?2users?2nhv90?2projects?2eech?2ap@
  002d7	a1 00 00 00 00	 mov	 eax, DWORD PTR ?null_entity_pointer_message@@3PBDB ; null_entity_pointer_message
  002dc	50		 push	 eax
  002dd	e8 00 00 00 00	 call	 ?process_assert@@YGXPBD0H@Z ; process_assert
  002e2	c7 45 80 00 00
	00 00		 mov	 DWORD PTR tv214[ebp], 0
$LN18@update_rec:
  002e9	b9 01 00 00 00	 mov	 ecx, 1
  002ee	85 c9		 test	 ecx, ecx
  002f0	74 0c		 je	 SHORT $LN19@update_rec
  002f2	c7 85 7c ff ff
	ff 06 00 00 00	 mov	 DWORD PTR tv222[ebp], 6
  002fc	eb 24		 jmp	 SHORT $LN20@update_rec
$LN19@update_rec:
  002fe	8b 15 00 00 00
	00		 mov	 edx, DWORD PTR ?__LINE__Var@?0??update_recognition_guide_camera@@YGXPAUCAMERA@@H@Z@4JA
  00304	83 c2 35	 add	 edx, 53			; 00000035H
  00307	52		 push	 edx
  00308	68 00 00 00 00	 push	 OFFSET ??_C@_0EN@IJEGGLEE@c?3?2users?2nhv90?2projects?2eech?2ap@
  0030d	a1 00 00 00 00	 mov	 eax, DWORD PTR ?overload_invalid_vec3d_type_message@@3PBDB ; overload_invalid_vec3d_type_message
  00312	50		 push	 eax
  00313	e8 00 00 00 00	 call	 ?process_assert@@YGXPBD0H@Z ; process_assert
  00318	c7 85 7c ff ff
	ff 00 00 00 00	 mov	 DWORD PTR tv222[ebp], 0
$LN20@update_rec:
  00322	8b 4d 08	 mov	 ecx, DWORD PTR _raw$[ebp]
  00325	83 c1 0c	 add	 ecx, 12			; 0000000cH
  00328	51		 push	 ecx
  00329	6a 06		 push	 6
  0032b	8b 55 fc	 mov	 edx, DWORD PTR _en$[ebp]
  0032e	52		 push	 edx
  0032f	6b 45 80 60	 imul	 eax, DWORD PTR tv214[ebp], 96
  00333	8b 8d 7c ff ff
	ff		 mov	 ecx, DWORD PTR tv222[ebp]
  00339	8b 94 88 00 00
	00 00		 mov	 edx, DWORD PTR ?fn_get_local_entity_vec3d@@3PAY0BI@P6GXPAUENTITY@@W4VEC3D_TYPES@@PAUVEC3D@@@ZA[eax+ecx*4]
  00340	ff d2		 call	 edx

; 252  : }

  00342	5f		 pop	 edi
  00343	5e		 pop	 esi
  00344	5b		 pop	 ebx
  00345	8b e5		 mov	 esp, ebp
  00347	5d		 pop	 ebp
  00348	c2 08 00	 ret	 8
?update_recognition_guide_camera@@YGXPAUCAMERA@@H@Z ENDP ; update_recognition_guide_camera
_TEXT	ENDS
; Function compile flags: /Odtp /ZI
; File c:\users\nhv90\projects\eech\aphavoc\source\entity\special\camera\cm_recog.c
;	COMDAT ?reset_recognition_guide_camera@@YGXPAUCAMERA@@@Z
_TEXT	SEGMENT
tv90 = -76						; size = 4
tv82 = -72						; size = 4
_en$ = -4						; size = 4
_raw$ = 8						; size = 4
?reset_recognition_guide_camera@@YGXPAUCAMERA@@@Z PROC	; reset_recognition_guide_camera, COMDAT

; 136  : {

  00000	55		 push	 ebp
  00001	8b ec		 mov	 ebp, esp
  00003	83 ec 4c	 sub	 esp, 76			; 0000004cH
  00006	53		 push	 ebx
  00007	56		 push	 esi
  00008	57		 push	 edi

; 137  : 	entity
; 138  : 		*en;
; 139  : 
; 140  : 	//
; 141  : 	// pre-amble
; 142  : 	//
; 143  : 
; 144  : 	ASSERT (raw);

  00009	83 7d 08 00	 cmp	 DWORD PTR _raw$[ebp], 0
  0000d	75 18		 jne	 SHORT $LN2@reset_reco
  0000f	a1 00 00 00 00	 mov	 eax, DWORD PTR ?__LINE__Var@?0??reset_recognition_guide_camera@@YGXPAUCAMERA@@@Z@4JA
  00014	83 c0 08	 add	 eax, 8
  00017	50		 push	 eax
  00018	68 00 00 00 00	 push	 OFFSET ??_C@_0EN@IJEGGLEE@c?3?2users?2nhv90?2projects?2eech?2ap@
  0001d	68 00 00 00 00	 push	 OFFSET ??_C@_03DGOGAGNC@raw@
  00022	e8 00 00 00 00	 call	 ?process_assert@@YGXPBD0H@Z ; process_assert
$LN2@reset_reco:

; 145  : 
; 146  : 	ASSERT (raw->external_view_entity);

  00027	8b 45 08	 mov	 eax, DWORD PTR _raw$[ebp]
  0002a	83 b8 24 01 00
	00 00		 cmp	 DWORD PTR [eax+292], 0
  00031	75 18		 jne	 SHORT $LN3@reset_reco
  00033	a1 00 00 00 00	 mov	 eax, DWORD PTR ?__LINE__Var@?0??reset_recognition_guide_camera@@YGXPAUCAMERA@@@Z@4JA
  00038	83 c0 0a	 add	 eax, 10			; 0000000aH
  0003b	50		 push	 eax
  0003c	68 00 00 00 00	 push	 OFFSET ??_C@_0EN@IJEGGLEE@c?3?2users?2nhv90?2projects?2eech?2ap@
  00041	68 00 00 00 00	 push	 OFFSET ??_C@_0BK@NIGJPCBN@raw?9?$DOexternal_view_entity@
  00046	e8 00 00 00 00	 call	 ?process_assert@@YGXPBD0H@Z ; process_assert
$LN3@reset_reco:

; 147  : 
; 148  : 	en = raw->external_view_entity;

  0004b	8b 45 08	 mov	 eax, DWORD PTR _raw$[ebp]
  0004e	8b 88 24 01 00
	00		 mov	 ecx, DWORD PTR [eax+292]
  00054	89 4d fc	 mov	 DWORD PTR _en$[ebp], ecx

; 149  : 
; 150  : 	//
; 151  : 	// motion vector
; 152  : 	//
; 153  : 
; 154  : 	get_local_entity_vec3d (en, VEC3D_TYPE_MOTION_VECTOR, &raw->motion_vector);

  00057	83 7d fc 00	 cmp	 DWORD PTR _en$[ebp], 0
  0005b	74 0a		 je	 SHORT $LN5@reset_reco
  0005d	8b 45 fc	 mov	 eax, DWORD PTR _en$[ebp]
  00060	8b 08		 mov	 ecx, DWORD PTR [eax]
  00062	89 4d b8	 mov	 DWORD PTR tv82[ebp], ecx
  00065	eb 21		 jmp	 SHORT $LN6@reset_reco
$LN5@reset_reco:
  00067	8b 15 00 00 00
	00		 mov	 edx, DWORD PTR ?__LINE__Var@?0??reset_recognition_guide_camera@@YGXPAUCAMERA@@@Z@4JA
  0006d	83 c2 12	 add	 edx, 18			; 00000012H
  00070	52		 push	 edx
  00071	68 00 00 00 00	 push	 OFFSET ??_C@_0EN@IJEGGLEE@c?3?2users?2nhv90?2projects?2eech?2ap@
  00076	a1 00 00 00 00	 mov	 eax, DWORD PTR ?null_entity_pointer_message@@3PBDB ; null_entity_pointer_message
  0007b	50		 push	 eax
  0007c	e8 00 00 00 00	 call	 ?process_assert@@YGXPBD0H@Z ; process_assert
  00081	c7 45 b8 00 00
	00 00		 mov	 DWORD PTR tv82[ebp], 0
$LN6@reset_reco:
  00088	b9 01 00 00 00	 mov	 ecx, 1
  0008d	85 c9		 test	 ecx, ecx
  0008f	74 09		 je	 SHORT $LN7@reset_reco
  00091	c7 45 b4 06 00
	00 00		 mov	 DWORD PTR tv90[ebp], 6
  00098	eb 21		 jmp	 SHORT $LN8@reset_reco
$LN7@reset_reco:
  0009a	8b 15 00 00 00
	00		 mov	 edx, DWORD PTR ?__LINE__Var@?0??reset_recognition_guide_camera@@YGXPAUCAMERA@@@Z@4JA
  000a0	83 c2 12	 add	 edx, 18			; 00000012H
  000a3	52		 push	 edx
  000a4	68 00 00 00 00	 push	 OFFSET ??_C@_0EN@IJEGGLEE@c?3?2users?2nhv90?2projects?2eech?2ap@
  000a9	a1 00 00 00 00	 mov	 eax, DWORD PTR ?overload_invalid_vec3d_type_message@@3PBDB ; overload_invalid_vec3d_type_message
  000ae	50		 push	 eax
  000af	e8 00 00 00 00	 call	 ?process_assert@@YGXPBD0H@Z ; process_assert
  000b4	c7 45 b4 00 00
	00 00		 mov	 DWORD PTR tv90[ebp], 0
$LN8@reset_reco:
  000bb	8b 4d 08	 mov	 ecx, DWORD PTR _raw$[ebp]
  000be	83 c1 0c	 add	 ecx, 12			; 0000000cH
  000c1	51		 push	 ecx
  000c2	6a 06		 push	 6
  000c4	8b 55 fc	 mov	 edx, DWORD PTR _en$[ebp]
  000c7	52		 push	 edx
  000c8	6b 45 b8 60	 imul	 eax, DWORD PTR tv82[ebp], 96
  000cc	8b 4d b4	 mov	 ecx, DWORD PTR tv90[ebp]
  000cf	8b 94 88 00 00
	00 00		 mov	 edx, DWORD PTR ?fn_get_local_entity_vec3d@@3PAY0BI@P6GXPAUENTITY@@W4VEC3D_TYPES@@PAUVEC3D@@@ZA[eax+ecx*4]
  000d6	ff d2		 call	 edx

; 155  : }

  000d8	5f		 pop	 edi
  000d9	5e		 pop	 esi
  000da	5b		 pop	 ebx
  000db	8b e5		 mov	 esp, ebp
  000dd	5d		 pop	 ebp
  000de	c2 04 00	 ret	 4
?reset_recognition_guide_camera@@YGXPAUCAMERA@@@Z ENDP	; reset_recognition_guide_camera
_TEXT	ENDS
; Function compile flags: /Odtp /ZI
; File c:\users\nhv90\projects\eech\aphavoc\source\entity\special\camera\cm_recog.c
;	COMDAT ?recognition_guide_camera_valid@@YGHPAUCAMERA@@H@Z
_TEXT	SEGMENT
tv91 = -76						; size = 4
tv139 = -72						; size = 4
tv83 = -72						; size = 4
_inst3d$ = -4						; size = 4
_raw$ = 8						; size = 4
_index$ = 12						; size = 4
?recognition_guide_camera_valid@@YGHPAUCAMERA@@H@Z PROC	; recognition_guide_camera_valid, COMDAT

; 80   : {

  00000	55		 push	 ebp
  00001	8b ec		 mov	 ebp, esp
  00003	83 ec 4c	 sub	 esp, 76			; 0000004cH
  00006	53		 push	 ebx
  00007	56		 push	 esi
  00008	57		 push	 edi

; 81   : 	object_3d_instance
; 82   : 		*inst3d;
; 83   : 
; 84   : 	ASSERT (raw);

  00009	83 7d 08 00	 cmp	 DWORD PTR _raw$[ebp], 0
  0000d	75 18		 jne	 SHORT $LN2@recognitio
  0000f	a1 00 00 00 00	 mov	 eax, DWORD PTR ?__LINE__Var@?0??recognition_guide_camera_valid@@YGHPAUCAMERA@@H@Z@4JA
  00014	83 c0 04	 add	 eax, 4
  00017	50		 push	 eax
  00018	68 00 00 00 00	 push	 OFFSET ??_C@_0EN@IJEGGLEE@c?3?2users?2nhv90?2projects?2eech?2ap@
  0001d	68 00 00 00 00	 push	 OFFSET ??_C@_03DGOGAGNC@raw@
  00022	e8 00 00 00 00	 call	 ?process_assert@@YGXPBD0H@Z ; process_assert
$LN2@recognitio:

; 85   : 
; 86   : 	ASSERT (raw->external_view_entity);

  00027	8b 45 08	 mov	 eax, DWORD PTR _raw$[ebp]
  0002a	83 b8 24 01 00
	00 00		 cmp	 DWORD PTR [eax+292], 0
  00031	75 18		 jne	 SHORT $LN3@recognitio
  00033	a1 00 00 00 00	 mov	 eax, DWORD PTR ?__LINE__Var@?0??recognition_guide_camera_valid@@YGHPAUCAMERA@@H@Z@4JA
  00038	83 c0 06	 add	 eax, 6
  0003b	50		 push	 eax
  0003c	68 00 00 00 00	 push	 OFFSET ??_C@_0EN@IJEGGLEE@c?3?2users?2nhv90?2projects?2eech?2ap@
  00041	68 00 00 00 00	 push	 OFFSET ??_C@_0BK@NIGJPCBN@raw?9?$DOexternal_view_entity@
  00046	e8 00 00 00 00	 call	 ?process_assert@@YGXPBD0H@Z ; process_assert
$LN3@recognitio:

; 87   : 
; 88   : 	inst3d = (object_3d_instance *) get_local_entity_ptr_value (raw->external_view_entity, PTR_TYPE_INSTANCE_3D_OBJECT);

  0004b	8b 45 08	 mov	 eax, DWORD PTR _raw$[ebp]
  0004e	83 b8 24 01 00
	00 00		 cmp	 DWORD PTR [eax+292], 0
  00055	74 10		 je	 SHORT $LN6@recognitio
  00057	8b 4d 08	 mov	 ecx, DWORD PTR _raw$[ebp]
  0005a	8b 91 24 01 00
	00		 mov	 edx, DWORD PTR [ecx+292]
  00060	8b 02		 mov	 eax, DWORD PTR [edx]
  00062	89 45 b8	 mov	 DWORD PTR tv83[ebp], eax
  00065	eb 22		 jmp	 SHORT $LN7@recognitio
$LN6@recognitio:
  00067	8b 0d 00 00 00
	00		 mov	 ecx, DWORD PTR ?__LINE__Var@?0??recognition_guide_camera_valid@@YGHPAUCAMERA@@H@Z@4JA
  0006d	83 c1 08	 add	 ecx, 8
  00070	51		 push	 ecx
  00071	68 00 00 00 00	 push	 OFFSET ??_C@_0EN@IJEGGLEE@c?3?2users?2nhv90?2projects?2eech?2ap@
  00076	8b 15 00 00 00
	00		 mov	 edx, DWORD PTR ?null_entity_pointer_message@@3PBDB ; null_entity_pointer_message
  0007c	52		 push	 edx
  0007d	e8 00 00 00 00	 call	 ?process_assert@@YGXPBD0H@Z ; process_assert
  00082	c7 45 b8 00 00
	00 00		 mov	 DWORD PTR tv83[ebp], 0
$LN7@recognitio:
  00089	b8 01 00 00 00	 mov	 eax, 1
  0008e	85 c0		 test	 eax, eax
  00090	74 09		 je	 SHORT $LN8@recognitio
  00092	c7 45 b4 02 00
	00 00		 mov	 DWORD PTR tv91[ebp], 2
  00099	eb 22		 jmp	 SHORT $LN9@recognitio
$LN8@recognitio:
  0009b	8b 0d 00 00 00
	00		 mov	 ecx, DWORD PTR ?__LINE__Var@?0??recognition_guide_camera_valid@@YGHPAUCAMERA@@H@Z@4JA
  000a1	83 c1 08	 add	 ecx, 8
  000a4	51		 push	 ecx
  000a5	68 00 00 00 00	 push	 OFFSET ??_C@_0EN@IJEGGLEE@c?3?2users?2nhv90?2projects?2eech?2ap@
  000aa	8b 15 00 00 00
	00		 mov	 edx, DWORD PTR ?overload_invalid_ptr_type_message@@3PBDB ; overload_invalid_ptr_type_message
  000b0	52		 push	 edx
  000b1	e8 00 00 00 00	 call	 ?process_assert@@YGXPBD0H@Z ; process_assert
  000b6	c7 45 b4 00 00
	00 00		 mov	 DWORD PTR tv91[ebp], 0
$LN9@recognitio:
  000bd	6a 02		 push	 2
  000bf	8b 45 08	 mov	 eax, DWORD PTR _raw$[ebp]
  000c2	8b 88 24 01 00
	00		 mov	 ecx, DWORD PTR [eax+292]
  000c8	51		 push	 ecx
  000c9	6b 55 b8 50	 imul	 edx, DWORD PTR tv83[ebp], 80
  000cd	8b 45 b4	 mov	 eax, DWORD PTR tv91[ebp]
  000d0	8b 8c 82 00 00
	00 00		 mov	 ecx, DWORD PTR ?fn_get_local_entity_ptr_value@@3PAY0BE@P6GPAXPAUENTITY@@W4PTR_TYPES@@@ZA[edx+eax*4]
  000d7	ff d1		 call	 ecx
  000d9	89 45 fc	 mov	 DWORD PTR _inst3d$[ebp], eax

; 89   : 
; 90   : 	ASSERT (inst3d);

  000dc	83 7d fc 00	 cmp	 DWORD PTR _inst3d$[ebp], 0
  000e0	75 18		 jne	 SHORT $LN4@recognitio
  000e2	a1 00 00 00 00	 mov	 eax, DWORD PTR ?__LINE__Var@?0??recognition_guide_camera_valid@@YGHPAUCAMERA@@H@Z@4JA
  000e7	83 c0 0a	 add	 eax, 10			; 0000000aH
  000ea	50		 push	 eax
  000eb	68 00 00 00 00	 push	 OFFSET ??_C@_0EN@IJEGGLEE@c?3?2users?2nhv90?2projects?2eech?2ap@
  000f0	68 00 00 00 00	 push	 OFFSET ??_C@_06DDNABPCD@inst3d@
  000f5	e8 00 00 00 00	 call	 ?process_assert@@YGXPBD0H@Z ; process_assert
$LN4@recognitio:

; 91   : 
; 92   : 	return (get_number_of_3d_object_cameras (inst3d, index) > 0);

  000fa	8b 45 0c	 mov	 eax, DWORD PTR _index$[ebp]
  000fd	50		 push	 eax
  000fe	8b 4d fc	 mov	 ecx, DWORD PTR _inst3d$[ebp]
  00101	51		 push	 ecx
  00102	e8 00 00 00 00	 call	 ?get_number_of_3d_object_cameras@@YGHPAUOBJECT_3D_INSTANCE@@H@Z ; get_number_of_3d_object_cameras
  00107	85 c0		 test	 eax, eax
  00109	7e 09		 jle	 SHORT $LN10@recognitio
  0010b	c7 45 b8 01 00
	00 00		 mov	 DWORD PTR tv139[ebp], 1
  00112	eb 07		 jmp	 SHORT $LN11@recognitio
$LN10@recognitio:
  00114	c7 45 b8 00 00
	00 00		 mov	 DWORD PTR tv139[ebp], 0
$LN11@recognitio:
  0011b	8b 45 b8	 mov	 eax, DWORD PTR tv139[ebp]

; 93   : }

  0011e	5f		 pop	 edi
  0011f	5e		 pop	 esi
  00120	5b		 pop	 ebx
  00121	8b e5		 mov	 esp, ebp
  00123	5d		 pop	 ebp
  00124	c2 08 00	 ret	 8
?recognition_guide_camera_valid@@YGHPAUCAMERA@@H@Z ENDP	; recognition_guide_camera_valid
_TEXT	ENDS
; Function compile flags: /Odtp /ZI
; File c:\users\nhv90\projects\eech\aphavoc\source\entity\special\camera\cm_recog.c
;	COMDAT ?update_recognition_guide_3d_view_camera@@YGXPAUCAMERA@@@Z
_TEXT	SEGMENT
_raw$ = 8						; size = 4
?update_recognition_guide_3d_view_camera@@YGXPAUCAMERA@@@Z PROC ; update_recognition_guide_3d_view_camera, COMDAT

; 286  : {

  00000	55		 push	 ebp
  00001	8b ec		 mov	 ebp, esp
  00003	83 ec 40	 sub	 esp, 64			; 00000040H
  00006	53		 push	 ebx
  00007	56		 push	 esi
  00008	57		 push	 edi

; 287  : 	update_recognition_guide_camera (raw, OBJECT_3D_CAMERA_MANUAL_GUIDE_3D_VIEW);

  00009	6a 0d		 push	 13			; 0000000dH
  0000b	8b 45 08	 mov	 eax, DWORD PTR _raw$[ebp]
  0000e	50		 push	 eax
  0000f	e8 00 00 00 00	 call	 ?update_recognition_guide_camera@@YGXPAUCAMERA@@H@Z ; update_recognition_guide_camera

; 288  : }

  00014	5f		 pop	 edi
  00015	5e		 pop	 esi
  00016	5b		 pop	 ebx
  00017	8b e5		 mov	 esp, ebp
  00019	5d		 pop	 ebp
  0001a	c2 04 00	 ret	 4
?update_recognition_guide_3d_view_camera@@YGXPAUCAMERA@@@Z ENDP ; update_recognition_guide_3d_view_camera
_TEXT	ENDS
; Function compile flags: /Odtp /ZI
; File c:\users\nhv90\projects\eech\aphavoc\source\entity\special\camera\cm_recog.c
;	COMDAT ?update_recognition_guide_front_view_camera@@YGXPAUCAMERA@@@Z
_TEXT	SEGMENT
_raw$ = 8						; size = 4
?update_recognition_guide_front_view_camera@@YGXPAUCAMERA@@@Z PROC ; update_recognition_guide_front_view_camera, COMDAT

; 277  : {

  00000	55		 push	 ebp
  00001	8b ec		 mov	 ebp, esp
  00003	83 ec 40	 sub	 esp, 64			; 00000040H
  00006	53		 push	 ebx
  00007	56		 push	 esi
  00008	57		 push	 edi

; 278  : 	update_recognition_guide_camera (raw, OBJECT_3D_CAMERA_MANUAL_GUIDE_FRONT);

  00009	6a 06		 push	 6
  0000b	8b 45 08	 mov	 eax, DWORD PTR _raw$[ebp]
  0000e	50		 push	 eax
  0000f	e8 00 00 00 00	 call	 ?update_recognition_guide_camera@@YGXPAUCAMERA@@H@Z ; update_recognition_guide_camera

; 279  : }

  00014	5f		 pop	 edi
  00015	5e		 pop	 esi
  00016	5b		 pop	 ebx
  00017	8b e5		 mov	 esp, ebp
  00019	5d		 pop	 ebp
  0001a	c2 04 00	 ret	 4
?update_recognition_guide_front_view_camera@@YGXPAUCAMERA@@@Z ENDP ; update_recognition_guide_front_view_camera
_TEXT	ENDS
; Function compile flags: /Odtp /ZI
; File c:\users\nhv90\projects\eech\aphavoc\source\entity\special\camera\cm_recog.c
;	COMDAT ?update_recognition_guide_side_view_camera@@YGXPAUCAMERA@@@Z
_TEXT	SEGMENT
_raw$ = 8						; size = 4
?update_recognition_guide_side_view_camera@@YGXPAUCAMERA@@@Z PROC ; update_recognition_guide_side_view_camera, COMDAT

; 268  : {

  00000	55		 push	 ebp
  00001	8b ec		 mov	 ebp, esp
  00003	83 ec 40	 sub	 esp, 64			; 00000040H
  00006	53		 push	 ebx
  00007	56		 push	 esi
  00008	57		 push	 edi

; 269  : 	update_recognition_guide_camera (raw, OBJECT_3D_CAMERA_MANUAL_GUIDE_SIDE);

  00009	6a 05		 push	 5
  0000b	8b 45 08	 mov	 eax, DWORD PTR _raw$[ebp]
  0000e	50		 push	 eax
  0000f	e8 00 00 00 00	 call	 ?update_recognition_guide_camera@@YGXPAUCAMERA@@H@Z ; update_recognition_guide_camera

; 270  : }

  00014	5f		 pop	 edi
  00015	5e		 pop	 esi
  00016	5b		 pop	 ebx
  00017	8b e5		 mov	 esp, ebp
  00019	5d		 pop	 ebp
  0001a	c2 04 00	 ret	 4
?update_recognition_guide_side_view_camera@@YGXPAUCAMERA@@@Z ENDP ; update_recognition_guide_side_view_camera
_TEXT	ENDS
; Function compile flags: /Odtp /ZI
; File c:\users\nhv90\projects\eech\aphavoc\source\entity\special\camera\cm_recog.c
;	COMDAT ?update_recognition_guide_top_view_camera@@YGXPAUCAMERA@@@Z
_TEXT	SEGMENT
_raw$ = 8						; size = 4
?update_recognition_guide_top_view_camera@@YGXPAUCAMERA@@@Z PROC ; update_recognition_guide_top_view_camera, COMDAT

; 259  : {

  00000	55		 push	 ebp
  00001	8b ec		 mov	 ebp, esp
  00003	83 ec 40	 sub	 esp, 64			; 00000040H
  00006	53		 push	 ebx
  00007	56		 push	 esi
  00008	57		 push	 edi

; 260  : 	update_recognition_guide_camera (raw, OBJECT_3D_CAMERA_MANUAL_GUIDE_TOP);

  00009	6a 04		 push	 4
  0000b	8b 45 08	 mov	 eax, DWORD PTR _raw$[ebp]
  0000e	50		 push	 eax
  0000f	e8 00 00 00 00	 call	 ?update_recognition_guide_camera@@YGXPAUCAMERA@@H@Z ; update_recognition_guide_camera

; 261  : }

  00014	5f		 pop	 edi
  00015	5e		 pop	 esi
  00016	5b		 pop	 ebx
  00017	8b e5		 mov	 esp, ebp
  00019	5d		 pop	 ebp
  0001a	c2 04 00	 ret	 4
?update_recognition_guide_top_view_camera@@YGXPAUCAMERA@@@Z ENDP ; update_recognition_guide_top_view_camera
_TEXT	ENDS
; Function compile flags: /Odtp /ZI
; File c:\users\nhv90\projects\eech\aphavoc\source\entity\special\camera\cm_recog.c
;	COMDAT ?reset_recognition_guide_3d_view_camera@@YGXPAUCAMERA@@@Z
_TEXT	SEGMENT
_raw$ = 8						; size = 4
?reset_recognition_guide_3d_view_camera@@YGXPAUCAMERA@@@Z PROC ; reset_recognition_guide_3d_view_camera, COMDAT

; 189  : {

  00000	55		 push	 ebp
  00001	8b ec		 mov	 ebp, esp
  00003	83 ec 40	 sub	 esp, 64			; 00000040H
  00006	53		 push	 ebx
  00007	56		 push	 esi
  00008	57		 push	 edi

; 190  : 	reset_recognition_guide_camera (raw);

  00009	8b 45 08	 mov	 eax, DWORD PTR _raw$[ebp]
  0000c	50		 push	 eax
  0000d	e8 00 00 00 00	 call	 ?reset_recognition_guide_camera@@YGXPAUCAMERA@@@Z ; reset_recognition_guide_camera

; 191  : }

  00012	5f		 pop	 edi
  00013	5e		 pop	 esi
  00014	5b		 pop	 ebx
  00015	8b e5		 mov	 esp, ebp
  00017	5d		 pop	 ebp
  00018	c2 04 00	 ret	 4
?reset_recognition_guide_3d_view_camera@@YGXPAUCAMERA@@@Z ENDP ; reset_recognition_guide_3d_view_camera
_TEXT	ENDS
; Function compile flags: /Odtp /ZI
; File c:\users\nhv90\projects\eech\aphavoc\source\entity\special\camera\cm_recog.c
;	COMDAT ?reset_recognition_guide_front_view_camera@@YGXPAUCAMERA@@@Z
_TEXT	SEGMENT
_raw$ = 8						; size = 4
?reset_recognition_guide_front_view_camera@@YGXPAUCAMERA@@@Z PROC ; reset_recognition_guide_front_view_camera, COMDAT

; 180  : {

  00000	55		 push	 ebp
  00001	8b ec		 mov	 ebp, esp
  00003	83 ec 40	 sub	 esp, 64			; 00000040H
  00006	53		 push	 ebx
  00007	56		 push	 esi
  00008	57		 push	 edi

; 181  : 	reset_recognition_guide_camera (raw);

  00009	8b 45 08	 mov	 eax, DWORD PTR _raw$[ebp]
  0000c	50		 push	 eax
  0000d	e8 00 00 00 00	 call	 ?reset_recognition_guide_camera@@YGXPAUCAMERA@@@Z ; reset_recognition_guide_camera

; 182  : }

  00012	5f		 pop	 edi
  00013	5e		 pop	 esi
  00014	5b		 pop	 ebx
  00015	8b e5		 mov	 esp, ebp
  00017	5d		 pop	 ebp
  00018	c2 04 00	 ret	 4
?reset_recognition_guide_front_view_camera@@YGXPAUCAMERA@@@Z ENDP ; reset_recognition_guide_front_view_camera
_TEXT	ENDS
; Function compile flags: /Odtp /ZI
; File c:\users\nhv90\projects\eech\aphavoc\source\entity\special\camera\cm_recog.c
;	COMDAT ?reset_recognition_guide_side_view_camera@@YGXPAUCAMERA@@@Z
_TEXT	SEGMENT
_raw$ = 8						; size = 4
?reset_recognition_guide_side_view_camera@@YGXPAUCAMERA@@@Z PROC ; reset_recognition_guide_side_view_camera, COMDAT

; 171  : {

  00000	55		 push	 ebp
  00001	8b ec		 mov	 ebp, esp
  00003	83 ec 40	 sub	 esp, 64			; 00000040H
  00006	53		 push	 ebx
  00007	56		 push	 esi
  00008	57		 push	 edi

; 172  : 	reset_recognition_guide_camera (raw);

  00009	8b 45 08	 mov	 eax, DWORD PTR _raw$[ebp]
  0000c	50		 push	 eax
  0000d	e8 00 00 00 00	 call	 ?reset_recognition_guide_camera@@YGXPAUCAMERA@@@Z ; reset_recognition_guide_camera

; 173  : }

  00012	5f		 pop	 edi
  00013	5e		 pop	 esi
  00014	5b		 pop	 ebx
  00015	8b e5		 mov	 esp, ebp
  00017	5d		 pop	 ebp
  00018	c2 04 00	 ret	 4
?reset_recognition_guide_side_view_camera@@YGXPAUCAMERA@@@Z ENDP ; reset_recognition_guide_side_view_camera
_TEXT	ENDS
; Function compile flags: /Odtp /ZI
; File c:\users\nhv90\projects\eech\aphavoc\source\entity\special\camera\cm_recog.c
;	COMDAT ?reset_recognition_guide_top_view_camera@@YGXPAUCAMERA@@@Z
_TEXT	SEGMENT
_raw$ = 8						; size = 4
?reset_recognition_guide_top_view_camera@@YGXPAUCAMERA@@@Z PROC ; reset_recognition_guide_top_view_camera, COMDAT

; 162  : {

  00000	55		 push	 ebp
  00001	8b ec		 mov	 ebp, esp
  00003	83 ec 40	 sub	 esp, 64			; 00000040H
  00006	53		 push	 ebx
  00007	56		 push	 esi
  00008	57		 push	 edi

; 163  : 	reset_recognition_guide_camera (raw);

  00009	8b 45 08	 mov	 eax, DWORD PTR _raw$[ebp]
  0000c	50		 push	 eax
  0000d	e8 00 00 00 00	 call	 ?reset_recognition_guide_camera@@YGXPAUCAMERA@@@Z ; reset_recognition_guide_camera

; 164  : }

  00012	5f		 pop	 edi
  00013	5e		 pop	 esi
  00014	5b		 pop	 ebx
  00015	8b e5		 mov	 esp, ebp
  00017	5d		 pop	 ebp
  00018	c2 04 00	 ret	 4
?reset_recognition_guide_top_view_camera@@YGXPAUCAMERA@@@Z ENDP ; reset_recognition_guide_top_view_camera
_TEXT	ENDS
; Function compile flags: /Odtp /ZI
; File c:\users\nhv90\projects\eech\aphavoc\source\entity\special\camera\cm_recog.c
;	COMDAT ?recognition_guide_3d_view_camera_valid@@YGHPAUCAMERA@@@Z
_TEXT	SEGMENT
_raw$ = 8						; size = 4
?recognition_guide_3d_view_camera_valid@@YGHPAUCAMERA@@@Z PROC ; recognition_guide_3d_view_camera_valid, COMDAT

; 127  : {

  00000	55		 push	 ebp
  00001	8b ec		 mov	 ebp, esp
  00003	83 ec 40	 sub	 esp, 64			; 00000040H
  00006	53		 push	 ebx
  00007	56		 push	 esi
  00008	57		 push	 edi

; 128  : 	return (recognition_guide_camera_valid (raw, OBJECT_3D_CAMERA_MANUAL_GUIDE_3D_VIEW));

  00009	6a 0d		 push	 13			; 0000000dH
  0000b	8b 45 08	 mov	 eax, DWORD PTR _raw$[ebp]
  0000e	50		 push	 eax
  0000f	e8 00 00 00 00	 call	 ?recognition_guide_camera_valid@@YGHPAUCAMERA@@H@Z ; recognition_guide_camera_valid

; 129  : }

  00014	5f		 pop	 edi
  00015	5e		 pop	 esi
  00016	5b		 pop	 ebx
  00017	8b e5		 mov	 esp, ebp
  00019	5d		 pop	 ebp
  0001a	c2 04 00	 ret	 4
?recognition_guide_3d_view_camera_valid@@YGHPAUCAMERA@@@Z ENDP ; recognition_guide_3d_view_camera_valid
_TEXT	ENDS
; Function compile flags: /Odtp /ZI
; File c:\users\nhv90\projects\eech\aphavoc\source\entity\special\camera\cm_recog.c
;	COMDAT ?recognition_guide_front_view_camera_valid@@YGHPAUCAMERA@@@Z
_TEXT	SEGMENT
_raw$ = 8						; size = 4
?recognition_guide_front_view_camera_valid@@YGHPAUCAMERA@@@Z PROC ; recognition_guide_front_view_camera_valid, COMDAT

; 118  : {

  00000	55		 push	 ebp
  00001	8b ec		 mov	 ebp, esp
  00003	83 ec 40	 sub	 esp, 64			; 00000040H
  00006	53		 push	 ebx
  00007	56		 push	 esi
  00008	57		 push	 edi

; 119  : 	return (recognition_guide_camera_valid (raw, OBJECT_3D_CAMERA_MANUAL_GUIDE_FRONT));

  00009	6a 06		 push	 6
  0000b	8b 45 08	 mov	 eax, DWORD PTR _raw$[ebp]
  0000e	50		 push	 eax
  0000f	e8 00 00 00 00	 call	 ?recognition_guide_camera_valid@@YGHPAUCAMERA@@H@Z ; recognition_guide_camera_valid

; 120  : }

  00014	5f		 pop	 edi
  00015	5e		 pop	 esi
  00016	5b		 pop	 ebx
  00017	8b e5		 mov	 esp, ebp
  00019	5d		 pop	 ebp
  0001a	c2 04 00	 ret	 4
?recognition_guide_front_view_camera_valid@@YGHPAUCAMERA@@@Z ENDP ; recognition_guide_front_view_camera_valid
_TEXT	ENDS
; Function compile flags: /Odtp /ZI
; File c:\users\nhv90\projects\eech\aphavoc\source\entity\special\camera\cm_recog.c
;	COMDAT ?recognition_guide_side_view_camera_valid@@YGHPAUCAMERA@@@Z
_TEXT	SEGMENT
_raw$ = 8						; size = 4
?recognition_guide_side_view_camera_valid@@YGHPAUCAMERA@@@Z PROC ; recognition_guide_side_view_camera_valid, COMDAT

; 109  : {

  00000	55		 push	 ebp
  00001	8b ec		 mov	 ebp, esp
  00003	83 ec 40	 sub	 esp, 64			; 00000040H
  00006	53		 push	 ebx
  00007	56		 push	 esi
  00008	57		 push	 edi

; 110  : 	return (recognition_guide_camera_valid (raw, OBJECT_3D_CAMERA_MANUAL_GUIDE_SIDE));

  00009	6a 05		 push	 5
  0000b	8b 45 08	 mov	 eax, DWORD PTR _raw$[ebp]
  0000e	50		 push	 eax
  0000f	e8 00 00 00 00	 call	 ?recognition_guide_camera_valid@@YGHPAUCAMERA@@H@Z ; recognition_guide_camera_valid

; 111  : }

  00014	5f		 pop	 edi
  00015	5e		 pop	 esi
  00016	5b		 pop	 ebx
  00017	8b e5		 mov	 esp, ebp
  00019	5d		 pop	 ebp
  0001a	c2 04 00	 ret	 4
?recognition_guide_side_view_camera_valid@@YGHPAUCAMERA@@@Z ENDP ; recognition_guide_side_view_camera_valid
_TEXT	ENDS
; Function compile flags: /Odtp /ZI
; File c:\users\nhv90\projects\eech\aphavoc\source\entity\special\camera\cm_recog.c
;	COMDAT ?recognition_guide_top_view_camera_valid@@YGHPAUCAMERA@@@Z
_TEXT	SEGMENT
_raw$ = 8						; size = 4
?recognition_guide_top_view_camera_valid@@YGHPAUCAMERA@@@Z PROC ; recognition_guide_top_view_camera_valid, COMDAT

; 100  : {

  00000	55		 push	 ebp
  00001	8b ec		 mov	 ebp, esp
  00003	83 ec 40	 sub	 esp, 64			; 00000040H
  00006	53		 push	 ebx
  00007	56		 push	 esi
  00008	57		 push	 edi

; 101  : 	return (recognition_guide_camera_valid (raw, OBJECT_3D_CAMERA_MANUAL_GUIDE_TOP));

  00009	6a 04		 push	 4
  0000b	8b 45 08	 mov	 eax, DWORD PTR _raw$[ebp]
  0000e	50		 push	 eax
  0000f	e8 00 00 00 00	 call	 ?recognition_guide_camera_valid@@YGHPAUCAMERA@@H@Z ; recognition_guide_camera_valid

; 102  : }

  00014	5f		 pop	 edi
  00015	5e		 pop	 esi
  00016	5b		 pop	 ebx
  00017	8b e5		 mov	 esp, ebp
  00019	5d		 pop	 ebp
  0001a	c2 04 00	 ret	 4
?recognition_guide_top_view_camera_valid@@YGHPAUCAMERA@@@Z ENDP ; recognition_guide_top_view_camera_valid
_TEXT	ENDS
END
