; Listing generated by Microsoft (R) Optimizing Compiler Version 19.16.27045.0 

	TITLE	C:\Users\nhv90\Projects\eech\aphavoc\source\gunships\avionics\comanche\cm_tgt.c
	.686P
	.XMM
	include listing.inc
	.model	flat

INCLUDELIB MSVCRTD
INCLUDELIB OLDNAMES

PUBLIC	?initialise_comanche_target_acquisition_systems@@YGXXZ ; initialise_comanche_target_acquisition_systems
PUBLIC	?deinitialise_comanche_target_acquisition_systems@@YGXXZ ; deinitialise_comanche_target_acquisition_systems
PUBLIC	?select_comanche_target_acquisition_system@@YGXW4TARGET_ACQUISITION_SYSTEMS@@@Z ; select_comanche_target_acquisition_system
PUBLIC	?update_comanche_target_acquisition_system@@YGXXZ ; update_comanche_target_acquisition_system
PUBLIC	?centre_comanche_target_acquisition_system@@YGXXZ ; centre_comanche_target_acquisition_system
PUBLIC	?toggle_comanche_show_allied_targets@@YGXXZ	; toggle_comanche_show_allied_targets
PUBLIC	?toggle_comanche_auto_target@@YGXXZ		; toggle_comanche_auto_target
PUBLIC	?toggle_comanche_lock_target@@YGXXZ		; toggle_comanche_lock_target
PUBLIC	?set_comanche_lock_target@@YGXH@Z		; set_comanche_lock_target
PUBLIC	?comanche_target_acquisition_system_misc_function1@@YGXXZ ; comanche_target_acquisition_system_misc_function1
PUBLIC	?comanche_target_acquisition_system_misc_function2@@YGXXZ ; comanche_target_acquisition_system_misc_function2
PUBLIC	??_C@_0CH@DDKDNBNH@Invalid?5target?5acquisition?5syst@ ; `string'
PUBLIC	?__LINE__Var@?0??update_comanche_target_acquisition_system@@YGXXZ@4JA ; `update_comanche_target_acquisition_system'::`1'::__LINE__Var
PUBLIC	??_C@_0FA@DOJNNCOK@c?3?2users?2nhv90?2projects?2eech?2ap@ ; `string'
EXTRN	?process_assert@@YGXPBD0H@Z:PROC		; process_assert
EXTRN	?debug_fatal@@YAXPBDZZ:PROC			; debug_fatal
EXTRN	?query_TIR_active@@YAHXZ:PROC			; query_TIR_active
EXTRN	?set_view_mode@@YGHW4VIEW_MODES@@@Z:PROC	; set_view_mode
EXTRN	?select_padlock_view_event@@YGXW4PADLOCK_MODES@@@Z:PROC ; select_padlock_view_event
EXTRN	?reset_common_target_acquisition_system_keys@@YGXXZ:PROC ; reset_common_target_acquisition_system_keys
EXTRN	?set_gunship_target@@YGXPAUENTITY@@@Z:PROC	; set_gunship_target
EXTRN	?play_common_cpg_target_acquisition_system_speech@@YGXW4TARGET_ACQUISITION_SYSTEMS@@0H@Z:PROC ; play_common_cpg_target_acquisition_system_speech
EXTRN	?update_common_eo@@YGXXZ:PROC			; update_common_eo
EXTRN	?activate_common_eo@@YGXXZ:PROC			; activate_common_eo
EXTRN	?deactivate_common_eo@@YGXXZ:PROC		; deactivate_common_eo
EXTRN	?slave_common_eo_to_current_target@@YGXXZ:PROC	; slave_common_eo_to_current_target
EXTRN	?copy_eo_zoom@@YGXPAUEO_PARAMS_DYNAMIC_MOVE@@0@Z:PROC ; copy_eo_zoom
EXTRN	?laser_is_active@@YGHXZ:PROC			; laser_is_active
EXTRN	?set_laser_is_active@@YGXH@Z:PROC		; set_laser_is_active
EXTRN	?toggle_eo_lock@@YGXXZ:PROC			; toggle_eo_lock
EXTRN	?set_eo_lock@@YGXH@Z:PROC			; set_eo_lock
EXTRN	?update_common_hms@@YGXXZ:PROC			; update_common_hms
EXTRN	?activate_common_hms@@YGXXZ:PROC		; activate_common_hms
EXTRN	?deactivate_common_hms@@YGXXZ:PROC		; deactivate_common_hms
EXTRN	?update_common_ground_radar@@YGXH@Z:PROC	; update_common_ground_radar
EXTRN	?activate_common_ground_radar@@YGXXZ:PROC	; activate_common_ground_radar
EXTRN	?deactivate_common_ground_radar@@YGXXZ:PROC	; deactivate_common_ground_radar
EXTRN	?toggle_ground_radar_active@@YGXXZ:PROC		; toggle_ground_radar_active
EXTRN	?ground_radar_is_active@@YGHXZ:PROC		; ground_radar_is_active
EXTRN	?set_ground_radar_is_active@@YGXH@Z:PROC	; set_ground_radar_is_active
EXTRN	?update_common_air_radar@@YGXXZ:PROC		; update_common_air_radar
EXTRN	?activate_common_air_radar@@YGXXZ:PROC		; activate_common_air_radar
EXTRN	?deactivate_common_air_radar@@YGXXZ:PROC	; deactivate_common_air_radar
EXTRN	?toggle_air_radar_active@@YGXXZ:PROC		; toggle_air_radar_active
EXTRN	?air_radar_is_active@@YGHXZ:PROC		; air_radar_is_active
EXTRN	?set_air_radar_is_active@@YGXH@Z:PROC		; set_air_radar_is_active
EXTRN	?update_weapon_lock_type@@YGXW4TARGET_ACQUISITION_SYSTEMS@@@Z:PROC ; update_weapon_lock_type
EXTRN	?initialise_comanche_eo@@YGXXZ:PROC		; initialise_comanche_eo
EXTRN	?deinitialise_comanche_eo@@YGXXZ:PROC		; deinitialise_comanche_eo
EXTRN	?update_comanche_eo@@YGXPAUEO_PARAMS_DYNAMIC_MOVE@@@Z:PROC ; update_comanche_eo
EXTRN	?centre_comanche_eo@@YGXXZ:PROC			; centre_comanche_eo
EXTRN	?slave_comanche_eo_to_current_target@@YGXXZ:PROC ; slave_comanche_eo_to_current_target
EXTRN	?initialise_comanche_hms@@YGXXZ:PROC		; initialise_comanche_hms
EXTRN	?deinitialise_comanche_hms@@YGXXZ:PROC		; deinitialise_comanche_hms
EXTRN	?update_comanche_hms@@YGXXZ:PROC		; update_comanche_hms
EXTRN	?select_comanche_ground_radar_main_mfd@@YGXXZ:PROC ; select_comanche_ground_radar_main_mfd
EXTRN	?select_comanche_air_radar_main_mfd@@YGXXZ:PROC	; select_comanche_air_radar_main_mfd
EXTRN	?select_comanche_tads_main_mfd@@YGXXZ:PROC	; select_comanche_tads_main_mfd
EXTRN	?initialise_comanche_radar@@YGXXZ:PROC		; initialise_comanche_radar
EXTRN	?deinitialise_comanche_radar@@YGXXZ:PROC	; deinitialise_comanche_radar
EXTRN	?update_comanche_ground_radar@@YGXXZ:PROC	; update_comanche_ground_radar
EXTRN	?centre_comanche_ground_radar@@YGXXZ:PROC	; centre_comanche_ground_radar
EXTRN	?update_comanche_air_radar@@YGXXZ:PROC		; update_comanche_air_radar
EXTRN	?centre_comanche_air_radar@@YGXXZ:PROC		; centre_comanche_air_radar
EXTRN	?command_line_manual_laser_radar@@3HA:DWORD	; command_line_manual_laser_radar
EXTRN	?command_line_targeting_system_auto_page@@3HA:DWORD ; command_line_targeting_system_auto_page
EXTRN	?null_entity_pointer_message@@3PBDB:DWORD	; null_entity_pointer_message
EXTRN	?system_comms_model@@3W4COMMS_MODEL_TYPES@@A:DWORD ; system_comms_model
EXTRN	?overload_invalid_list_type_message@@3PBDB:DWORD ; overload_invalid_list_type_message
EXTRN	?fn_get_local_entity_parent@@3PAY0CN@P6GPAUENTITY@@PAU1@W4LIST_TYPES@@@ZA:BYTE ; fn_get_local_entity_parent
EXTRN	?overload_invalid_int_type_message@@3PBDB:DWORD	; overload_invalid_int_type_message
EXTRN	?fn_set_client_server_entity_int_value@@3PAY1BBH@1P6GXPAUENTITY@@W4INT_TYPES@@H@ZA:BYTE ; fn_set_client_server_entity_int_value
EXTRN	?fn_get_local_entity_int_value@@3PAY0BBH@P6GHPAUENTITY@@W4INT_TYPES@@@ZA:BYTE ; fn_get_local_entity_int_value
EXTRN	?gunship_entity@@3PAUENTITY@@A:DWORD		; gunship_entity
EXTRN	?view_mode@@3W4VIEW_MODES@@A:DWORD		; view_mode
EXTRN	?in_cockpit@@3HA:DWORD				; in_cockpit
EXTRN	?target_acquisition_system@@3W4TARGET_ACQUISITION_SYSTEMS@@A:DWORD ; target_acquisition_system
EXTRN	?target_locked@@3HA:DWORD			; target_locked
EXTRN	?hms_target_locked@@3HA:DWORD			; hms_target_locked
EXTRN	?hud_mode@@3W4HUD_MODES@@A:DWORD		; hud_mode
EXTRN	?previous_hud_mode@@3W4HUD_MODES@@A:DWORD	; previous_hud_mode
EXTRN	?ground_radar@@3URADAR_PARAMS@@A:BYTE		; ground_radar
EXTRN	?air_radar@@3URADAR_PARAMS@@A:BYTE		; air_radar
EXTRN	?comanche_damage@@3TCOMANCHE_DAMAGE_FLAGS@@A:DWORD ; comanche_damage
EXTRN	?comanche_flir@@3UEO_PARAMS_DYNAMIC_MOVE@@A:BYTE ; comanche_flir
EXTRN	?comanche_dtv@@3UEO_PARAMS_DYNAMIC_MOVE@@A:BYTE	; comanche_dtv
EXTRN	?comanche_dvo@@3UEO_PARAMS_DYNAMIC_MOVE@@A:BYTE	; comanche_dvo
;	COMDAT ??_C@_0FA@DOJNNCOK@c?3?2users?2nhv90?2projects?2eech?2ap@
CONST	SEGMENT
??_C@_0FA@DOJNNCOK@c?3?2users?2nhv90?2projects?2eech?2ap@ DB 'c:\users\nh'
	DB	'v90\projects\eech\aphavoc\source\gunships\avionics\comanche\c'
	DB	'm_tgt.c', 00H				; `string'
CONST	ENDS
;	COMDAT ?__LINE__Var@?0??update_comanche_target_acquisition_system@@YGXXZ@4JA
_DATA	SEGMENT
?__LINE__Var@?0??update_comanche_target_acquisition_system@@YGXXZ@4JA DD 017aH ; `update_comanche_target_acquisition_system'::`1'::__LINE__Var
_DATA	ENDS
;	COMDAT ??_C@_0CH@DDKDNBNH@Invalid?5target?5acquisition?5syst@
CONST	SEGMENT
??_C@_0CH@DDKDNBNH@Invalid?5target?5acquisition?5syst@ DB 'Invalid target'
	DB	' acquisition system = %d', 00H		; `string'
CONST	ENDS
; Function compile flags: /Odtp /ZI
; File c:\users\nhv90\projects\eech\aphavoc\source\gunships\avionics\comanche\cm_tgt.c
;	COMDAT ?deselect_comanche_target_acquisition_system@@YGXW4TARGET_ACQUISITION_SYSTEMS@@@Z
_TEXT	SEGMENT
tv64 = -68						; size = 4
_system$ = 8						; size = 4
?deselect_comanche_target_acquisition_system@@YGXW4TARGET_ACQUISITION_SYSTEMS@@@Z PROC ; deselect_comanche_target_acquisition_system, COMDAT

; 106  : {

  00000	55		 push	 ebp
  00001	8b ec		 mov	 ebp, esp
  00003	83 ec 44	 sub	 esp, 68			; 00000044H
  00006	53		 push	 ebx
  00007	56		 push	 esi
  00008	57		 push	 edi

; 107  : 	switch (system)

  00009	8b 45 08	 mov	 eax, DWORD PTR _system$[ebp]
  0000c	89 45 bc	 mov	 DWORD PTR tv64[ebp], eax
  0000f	83 7d bc 09	 cmp	 DWORD PTR tv64[ebp], 9
  00013	77 76		 ja	 SHORT $LN14@deselect_c
  00015	8b 4d bc	 mov	 ecx, DWORD PTR tv64[ebp]
  00018	ff 24 8d 00 00
	00 00		 jmp	 DWORD PTR $LN16@deselect_c[ecx*4]
$LN4@deselect_c:

; 108  : 	{
; 109  : 		////////////////////////////////////////
; 110  : 		case TARGET_ACQUISITION_SYSTEM_OFF:
; 111  : 		////////////////////////////////////////
; 112  : 		{
; 113  : 			// laser is on in all modes but OFF in automatic mode
; 114  : 			if (!command_line_manual_laser_radar)

  0001f	83 3d 00 00 00
	00 00		 cmp	 DWORD PTR ?command_line_manual_laser_radar@@3HA, 0 ; command_line_manual_laser_radar
  00026	75 07		 jne	 SHORT $LN5@deselect_c

; 115  : 				set_laser_is_active(TRUE);

  00028	6a 01		 push	 1
  0002a	e8 00 00 00 00	 call	 ?set_laser_is_active@@YGXH@Z ; set_laser_is_active
$LN5@deselect_c:

; 116  : 			
; 117  : 			break;

  0002f	eb 6b		 jmp	 SHORT $LN1@deselect_c
$LN6@deselect_c:

; 118  : 		}
; 119  : 		////////////////////////////////////////
; 120  : 		case TARGET_ACQUISITION_SYSTEM_GROUND_RADAR:
; 121  : 		////////////////////////////////////////
; 122  : 		{
; 123  : 			if (!command_line_manual_laser_radar)

  00031	83 3d 00 00 00
	00 00		 cmp	 DWORD PTR ?command_line_manual_laser_radar@@3HA, 0 ; command_line_manual_laser_radar
  00038	75 05		 jne	 SHORT $LN7@deselect_c

; 124  : 				deactivate_common_ground_radar ();

  0003a	e8 00 00 00 00	 call	 ?deactivate_common_ground_radar@@YGXXZ ; deactivate_common_ground_radar
$LN7@deselect_c:

; 125  : 
; 126  : 			break;

  0003f	eb 5b		 jmp	 SHORT $LN1@deselect_c
$LN8@deselect_c:

; 127  : 		}
; 128  : 		////////////////////////////////////////
; 129  : 		case TARGET_ACQUISITION_SYSTEM_AIR_RADAR:
; 130  : 		////////////////////////////////////////
; 131  : 		{
; 132  : 			if (!command_line_manual_laser_radar)

  00041	83 3d 00 00 00
	00 00		 cmp	 DWORD PTR ?command_line_manual_laser_radar@@3HA, 0 ; command_line_manual_laser_radar
  00048	75 05		 jne	 SHORT $LN9@deselect_c

; 133  : 				deactivate_common_air_radar ();

  0004a	e8 00 00 00 00	 call	 ?deactivate_common_air_radar@@YGXXZ ; deactivate_common_air_radar
$LN9@deselect_c:

; 134  : 
; 135  : 			break;

  0004f	eb 4b		 jmp	 SHORT $LN1@deselect_c
$LN10@deselect_c:

; 136  : 		}
; 137  : 		////////////////////////////////////////
; 138  : 		case TARGET_ACQUISITION_SYSTEM_FLIR:
; 139  : 		////////////////////////////////////////
; 140  : 		{
; 141  : 			deactivate_common_eo ();

  00051	e8 00 00 00 00	 call	 ?deactivate_common_eo@@YGXXZ ; deactivate_common_eo

; 142  : 
; 143  : 			copy_eo_zoom(&comanche_flir, &comanche_dtv);

  00056	68 00 00 00 00	 push	 OFFSET ?comanche_dtv@@3UEO_PARAMS_DYNAMIC_MOVE@@A ; comanche_dtv
  0005b	68 00 00 00 00	 push	 OFFSET ?comanche_flir@@3UEO_PARAMS_DYNAMIC_MOVE@@A ; comanche_flir
  00060	e8 00 00 00 00	 call	 ?copy_eo_zoom@@YGXPAUEO_PARAMS_DYNAMIC_MOVE@@0@Z ; copy_eo_zoom

; 144  : 
; 145  : 			break;

  00065	eb 35		 jmp	 SHORT $LN1@deselect_c
$LN11@deselect_c:

; 146  : 		}
; 147  : 		////////////////////////////////////////
; 148  : 		case TARGET_ACQUISITION_SYSTEM_DTV:
; 149  : 		////////////////////////////////////////
; 150  : 		{
; 151  : 			deactivate_common_eo ();

  00067	e8 00 00 00 00	 call	 ?deactivate_common_eo@@YGXXZ ; deactivate_common_eo

; 152  : 
; 153  : 			copy_eo_zoom(&comanche_dtv, &comanche_flir);

  0006c	68 00 00 00 00	 push	 OFFSET ?comanche_flir@@3UEO_PARAMS_DYNAMIC_MOVE@@A ; comanche_flir
  00071	68 00 00 00 00	 push	 OFFSET ?comanche_dtv@@3UEO_PARAMS_DYNAMIC_MOVE@@A ; comanche_dtv
  00076	e8 00 00 00 00	 call	 ?copy_eo_zoom@@YGXPAUEO_PARAMS_DYNAMIC_MOVE@@0@Z ; copy_eo_zoom

; 154  : 
; 155  : 			break;

  0007b	eb 1f		 jmp	 SHORT $LN1@deselect_c
$LN12@deselect_c:

; 156  : 		}
; 157  : 		////////////////////////////////////////
; 158  : 		case TARGET_ACQUISITION_SYSTEM_DVO:
; 159  : 		////////////////////////////////////////
; 160  : 		{
; 161  : 			deactivate_common_eo ();

  0007d	e8 00 00 00 00	 call	 ?deactivate_common_eo@@YGXXZ ; deactivate_common_eo

; 162  : 
; 163  : 			break;

  00082	eb 18		 jmp	 SHORT $LN1@deselect_c
$LN13@deselect_c:

; 164  : 		}
; 165  : 		////////////////////////////////////////
; 166  : 		case TARGET_ACQUISITION_SYSTEM_HIDSS:
; 167  : 		////////////////////////////////////////
; 168  : 		{
; 169  : 			deactivate_common_hms ();

  00084	e8 00 00 00 00	 call	 ?deactivate_common_hms@@YGXXZ ; deactivate_common_hms

; 170  : 
; 171  : 			break;

  00089	eb 11		 jmp	 SHORT $LN1@deselect_c
$LN14@deselect_c:

; 172  : 		}
; 173  : 		////////////////////////////////////////
; 174  : 		default:
; 175  : 		////////////////////////////////////////
; 176  : 		{
; 177  : 			debug_fatal ("Invalid target acquisition system = %d", system);

  0008b	8b 45 08	 mov	 eax, DWORD PTR _system$[ebp]
  0008e	50		 push	 eax
  0008f	68 00 00 00 00	 push	 OFFSET ??_C@_0CH@DDKDNBNH@Invalid?5target?5acquisition?5syst@
  00094	e8 00 00 00 00	 call	 ?debug_fatal@@YAXPBDZZ	; debug_fatal
  00099	83 c4 08	 add	 esp, 8
$LN1@deselect_c:

; 178  : 
; 179  : 			break;
; 180  : 		}
; 181  : 	}
; 182  : }

  0009c	5f		 pop	 edi
  0009d	5e		 pop	 esi
  0009e	5b		 pop	 ebx
  0009f	8b e5		 mov	 esp, ebp
  000a1	5d		 pop	 ebp
  000a2	c2 04 00	 ret	 4
  000a5	0f 1f 00	 npad	 3
$LN16@deselect_c:
  000a8	00 00 00 00	 DD	 $LN4@deselect_c
  000ac	00 00 00 00	 DD	 $LN6@deselect_c
  000b0	00 00 00 00	 DD	 $LN8@deselect_c
  000b4	00 00 00 00	 DD	 $LN10@deselect_c
  000b8	00 00 00 00	 DD	 $LN11@deselect_c
  000bc	00 00 00 00	 DD	 $LN12@deselect_c
  000c0	00 00 00 00	 DD	 $LN14@deselect_c
  000c4	00 00 00 00	 DD	 $LN14@deselect_c
  000c8	00 00 00 00	 DD	 $LN14@deselect_c
  000cc	00 00 00 00	 DD	 $LN13@deselect_c
?deselect_comanche_target_acquisition_system@@YGXW4TARGET_ACQUISITION_SYSTEMS@@@Z ENDP ; deselect_comanche_target_acquisition_system
_TEXT	ENDS
; Function compile flags: /Odtp /ZI
; File c:\users\nhv90\projects\eech\aphavoc\source\gunships\avionics\comanche\cm_tgt.c
;	COMDAT ?comanche_target_acquisition_system_misc_function2@@YGXXZ
_TEXT	SEGMENT
tv64 = -68						; size = 4
?comanche_target_acquisition_system_misc_function2@@YGXXZ PROC ; comanche_target_acquisition_system_misc_function2, COMDAT

; 941  : {

  00000	55		 push	 ebp
  00001	8b ec		 mov	 ebp, esp
  00003	83 ec 44	 sub	 esp, 68			; 00000044H
  00006	53		 push	 ebx
  00007	56		 push	 esi
  00008	57		 push	 edi

; 942  : 	switch (target_acquisition_system)

  00009	a1 00 00 00 00	 mov	 eax, DWORD PTR ?target_acquisition_system@@3W4TARGET_ACQUISITION_SYSTEMS@@A ; target_acquisition_system
  0000e	89 45 bc	 mov	 DWORD PTR tv64[ebp], eax
  00011	83 7d bc 09	 cmp	 DWORD PTR tv64[ebp], 9
  00015	0f 87 b5 00 00
	00		 ja	 $LN1@comanche_t
  0001b	8b 4d bc	 mov	 ecx, DWORD PTR tv64[ebp]
  0001e	0f b6 91 00 00
	00 00		 movzx	 edx, BYTE PTR $LN19@comanche_t[ecx]
  00025	ff 24 95 00 00
	00 00		 jmp	 DWORD PTR $LN20@comanche_t[edx*4]
$LN4@comanche_t:

; 943  : 	{
; 944  : 		////////////////////////////////////////
; 945  : 		case TARGET_ACQUISITION_SYSTEM_OFF:
; 946  : 		case TARGET_ACQUISITION_SYSTEM_GROUND_RADAR:
; 947  : 		case TARGET_ACQUISITION_SYSTEM_FLIR:
; 948  : 		case TARGET_ACQUISITION_SYSTEM_DTV:
; 949  : 		case TARGET_ACQUISITION_SYSTEM_DVO:
; 950  : 		case TARGET_ACQUISITION_SYSTEM_HIDSS:
; 951  : 		////////////////////////////////////////
; 952  : 		{
; 953  : 			if (ground_radar.sweep_mode == RADAR_SWEEP_MODE_SINGLE_INACTIVE)

  0002c	83 3d 28 00 00
	00 01		 cmp	 DWORD PTR ?ground_radar@@3URADAR_PARAMS@@A+40, 1
  00033	75 1d		 jne	 SHORT $LN5@comanche_t

; 954  : 			{
; 955  : 				if (!comanche_damage.radar)

  00035	a1 00 00 00 00	 mov	 eax, DWORD PTR ?comanche_damage@@3TCOMANCHE_DAMAGE_FLAGS@@A ; comanche_damage
  0003a	83 e0 01	 and	 eax, 1
  0003d	75 11		 jne	 SHORT $LN7@comanche_t

; 956  : 				{
; 957  : 					ground_radar.sweep_mode = RADAR_SWEEP_MODE_SINGLE_ACTIVE;

  0003f	c7 05 28 00 00
	00 02 00 00 00	 mov	 DWORD PTR ?ground_radar@@3URADAR_PARAMS@@A+40, 2

; 958  : 					set_ground_radar_is_active(TRUE);

  00049	6a 01		 push	 1
  0004b	e8 00 00 00 00	 call	 ?set_ground_radar_is_active@@YGXH@Z ; set_ground_radar_is_active
$LN7@comanche_t:

; 959  : 				}
; 960  : 			}

  00050	eb 2b		 jmp	 SHORT $LN6@comanche_t
$LN5@comanche_t:

; 961  : 			else if (ground_radar.sweep_mode == RADAR_SWEEP_MODE_SINGLE_ACTIVE)

  00052	83 3d 28 00 00
	00 02		 cmp	 DWORD PTR ?ground_radar@@3URADAR_PARAMS@@A+40, 2
  00059	75 13		 jne	 SHORT $LN8@comanche_t

; 962  : 			{
; 963  : 				ground_radar.sweep_mode = RADAR_SWEEP_MODE_SINGLE_INACTIVE;

  0005b	c7 05 28 00 00
	00 01 00 00 00	 mov	 DWORD PTR ?ground_radar@@3URADAR_PARAMS@@A+40, 1

; 964  : 				set_ground_radar_is_active(FALSE);

  00065	6a 00		 push	 0
  00067	e8 00 00 00 00	 call	 ?set_ground_radar_is_active@@YGXH@Z ; set_ground_radar_is_active
  0006c	eb 0f		 jmp	 SHORT $LN6@comanche_t
$LN8@comanche_t:

; 965  : 			}
; 966  : 			else if (!comanche_damage.radar)

  0006e	a1 00 00 00 00	 mov	 eax, DWORD PTR ?comanche_damage@@3TCOMANCHE_DAMAGE_FLAGS@@A ; comanche_damage
  00073	83 e0 01	 and	 eax, 1
  00076	75 05		 jne	 SHORT $LN6@comanche_t

; 967  : 				toggle_ground_radar_active();

  00078	e8 00 00 00 00	 call	 ?toggle_ground_radar_active@@YGXXZ ; toggle_ground_radar_active
$LN6@comanche_t:

; 968  : 
; 969  : 			break;

  0007d	eb 51		 jmp	 SHORT $LN1@comanche_t
$LN11@comanche_t:

; 970  : 		}
; 971  : 		////////////////////////////////////////
; 972  : 		case TARGET_ACQUISITION_SYSTEM_AIR_RADAR:
; 973  : 		////////////////////////////////////////
; 974  : 		{
; 975  : 			if (air_radar.sweep_mode == RADAR_SWEEP_MODE_SINGLE_INACTIVE)

  0007f	83 3d 28 00 00
	00 01		 cmp	 DWORD PTR ?air_radar@@3URADAR_PARAMS@@A+40, 1
  00086	75 1d		 jne	 SHORT $LN12@comanche_t

; 976  : 			{
; 977  : 				if (!comanche_damage.radar)

  00088	a1 00 00 00 00	 mov	 eax, DWORD PTR ?comanche_damage@@3TCOMANCHE_DAMAGE_FLAGS@@A ; comanche_damage
  0008d	83 e0 01	 and	 eax, 1
  00090	75 11		 jne	 SHORT $LN14@comanche_t

; 978  : 				{
; 979  : 					air_radar.sweep_mode = RADAR_SWEEP_MODE_SINGLE_ACTIVE;

  00092	c7 05 28 00 00
	00 02 00 00 00	 mov	 DWORD PTR ?air_radar@@3URADAR_PARAMS@@A+40, 2

; 980  : 					set_air_radar_is_active(TRUE);

  0009c	6a 01		 push	 1
  0009e	e8 00 00 00 00	 call	 ?set_air_radar_is_active@@YGXH@Z ; set_air_radar_is_active
$LN14@comanche_t:

; 981  : 				}
; 982  : 			}

  000a3	eb 2b		 jmp	 SHORT $LN1@comanche_t
$LN12@comanche_t:

; 983  : 			else if (air_radar.sweep_mode == RADAR_SWEEP_MODE_SINGLE_ACTIVE)

  000a5	83 3d 28 00 00
	00 02		 cmp	 DWORD PTR ?air_radar@@3URADAR_PARAMS@@A+40, 2
  000ac	75 13		 jne	 SHORT $LN15@comanche_t

; 984  : 			{
; 985  : 				air_radar.sweep_mode = RADAR_SWEEP_MODE_SINGLE_INACTIVE;

  000ae	c7 05 28 00 00
	00 01 00 00 00	 mov	 DWORD PTR ?air_radar@@3URADAR_PARAMS@@A+40, 1

; 986  : 				set_air_radar_is_active(FALSE);

  000b8	6a 00		 push	 0
  000ba	e8 00 00 00 00	 call	 ?set_air_radar_is_active@@YGXH@Z ; set_air_radar_is_active
  000bf	eb 0f		 jmp	 SHORT $LN1@comanche_t
$LN15@comanche_t:

; 987  : 			}
; 988  : 			else if (!comanche_damage.radar)

  000c1	a1 00 00 00 00	 mov	 eax, DWORD PTR ?comanche_damage@@3TCOMANCHE_DAMAGE_FLAGS@@A ; comanche_damage
  000c6	83 e0 01	 and	 eax, 1
  000c9	75 05		 jne	 SHORT $LN1@comanche_t

; 989  : 				toggle_air_radar_active();

  000cb	e8 00 00 00 00	 call	 ?toggle_air_radar_active@@YGXXZ ; toggle_air_radar_active
$LN1@comanche_t:

; 990  : 
; 991  : 			break;
; 992  : 		}
; 993  : 	}
; 994  : }

  000d0	5f		 pop	 edi
  000d1	5e		 pop	 esi
  000d2	5b		 pop	 ebx
  000d3	8b e5		 mov	 esp, ebp
  000d5	5d		 pop	 ebp
  000d6	c3		 ret	 0
  000d7	90		 npad	 1
$LN20@comanche_t:
  000d8	00 00 00 00	 DD	 $LN4@comanche_t
  000dc	00 00 00 00	 DD	 $LN11@comanche_t
  000e0	00 00 00 00	 DD	 $LN1@comanche_t
$LN19@comanche_t:
  000e4	00		 DB	 0
  000e5	00		 DB	 0
  000e6	01		 DB	 1
  000e7	00		 DB	 0
  000e8	00		 DB	 0
  000e9	00		 DB	 0
  000ea	02		 DB	 2
  000eb	02		 DB	 2
  000ec	02		 DB	 2
  000ed	00		 DB	 0
?comanche_target_acquisition_system_misc_function2@@YGXXZ ENDP ; comanche_target_acquisition_system_misc_function2
_TEXT	ENDS
; Function compile flags: /Odtp /ZI
; File c:\users\nhv90\projects\eech\aphavoc\source\gunships\avionics\comanche\cm_tgt.c
;	COMDAT ?comanche_target_acquisition_system_misc_function1@@YGXXZ
_TEXT	SEGMENT
tv83 = -68						; size = 4
tv73 = -68						; size = 4
tv64 = -68						; size = 4
?comanche_target_acquisition_system_misc_function1@@YGXXZ PROC ; comanche_target_acquisition_system_misc_function1, COMDAT

; 878  : {

  00000	55		 push	 ebp
  00001	8b ec		 mov	 ebp, esp
  00003	83 ec 44	 sub	 esp, 68			; 00000044H
  00006	53		 push	 ebx
  00007	56		 push	 esi
  00008	57		 push	 edi

; 879  : 	switch (target_acquisition_system)

  00009	a1 00 00 00 00	 mov	 eax, DWORD PTR ?target_acquisition_system@@3W4TARGET_ACQUISITION_SYSTEMS@@A ; target_acquisition_system
  0000e	89 45 bc	 mov	 DWORD PTR tv64[ebp], eax
  00011	83 7d bc 09	 cmp	 DWORD PTR tv64[ebp], 9
  00015	0f 87 f3 00 00
	00		 ja	 $LN1@comanche_t
  0001b	8b 4d bc	 mov	 ecx, DWORD PTR tv64[ebp]
  0001e	0f b6 91 00 00
	00 00		 movzx	 edx, BYTE PTR $LN23@comanche_t[ecx]
  00025	ff 24 95 00 00
	00 00		 jmp	 DWORD PTR $LN24@comanche_t[edx*4]
$LN4@comanche_t:

; 880  : 	{
; 881  : 		case TARGET_ACQUISITION_SYSTEM_OFF:
; 882  : 		case TARGET_ACQUISITION_SYSTEM_GROUND_RADAR:
; 883  : 		case TARGET_ACQUISITION_SYSTEM_FLIR:
; 884  : 		case TARGET_ACQUISITION_SYSTEM_DTV:
; 885  : 		case TARGET_ACQUISITION_SYSTEM_DVO:
; 886  : 		case TARGET_ACQUISITION_SYSTEM_HIDSS:
; 887  : 		{
; 888  : 			if (comanche_damage.radar)

  0002c	a1 00 00 00 00	 mov	 eax, DWORD PTR ?comanche_damage@@3TCOMANCHE_DAMAGE_FLAGS@@A ; comanche_damage
  00031	83 e0 01	 and	 eax, 1
  00034	74 10		 je	 SHORT $LN5@comanche_t

; 889  : 			{
; 890  : 				set_ground_radar_is_active(FALSE);

  00036	6a 00		 push	 0
  00038	e8 00 00 00 00	 call	 ?set_ground_radar_is_active@@YGXH@Z ; set_ground_radar_is_active

; 891  : 				set_air_radar_is_active(FALSE);

  0003d	6a 00		 push	 0
  0003f	e8 00 00 00 00	 call	 ?set_air_radar_is_active@@YGXH@Z ; set_air_radar_is_active
  00044	eb 56		 jmp	 SHORT $LN6@comanche_t
$LN5@comanche_t:

; 892  : 			}
; 893  : 			else if (ground_radar.sweep_mode == RADAR_SWEEP_MODE_CONTINUOUS)

  00046	83 3d 28 00 00
	00 00		 cmp	 DWORD PTR ?ground_radar@@3URADAR_PARAMS@@A+40, 0
  0004d	75 21		 jne	 SHORT $LN7@comanche_t

; 894  : 			{
; 895  : 				if (ground_radar_is_active())

  0004f	e8 00 00 00 00	 call	 ?ground_radar_is_active@@YGHXZ ; ground_radar_is_active
  00054	85 c0		 test	 eax, eax
  00056	74 0c		 je	 SHORT $LN9@comanche_t

; 896  : 					ground_radar.sweep_mode = RADAR_SWEEP_MODE_SINGLE_ACTIVE;

  00058	c7 05 28 00 00
	00 02 00 00 00	 mov	 DWORD PTR ?ground_radar@@3URADAR_PARAMS@@A+40, 2

; 897  : 				else

  00062	eb 0a		 jmp	 SHORT $LN10@comanche_t
$LN9@comanche_t:

; 898  : 					ground_radar.sweep_mode = RADAR_SWEEP_MODE_SINGLE_INACTIVE;

  00064	c7 05 28 00 00
	00 01 00 00 00	 mov	 DWORD PTR ?ground_radar@@3URADAR_PARAMS@@A+40, 1
$LN10@comanche_t:

; 899  : 			}
; 900  : 			else

  0006e	eb 2c		 jmp	 SHORT $LN6@comanche_t
$LN7@comanche_t:

; 901  : 			{
; 902  : 				set_ground_radar_is_active(ground_radar.sweep_mode == RADAR_SWEEP_MODE_SINGLE_ACTIVE);

  00070	83 3d 28 00 00
	00 02		 cmp	 DWORD PTR ?ground_radar@@3URADAR_PARAMS@@A+40, 2
  00077	75 09		 jne	 SHORT $LN19@comanche_t
  00079	c7 45 bc 01 00
	00 00		 mov	 DWORD PTR tv73[ebp], 1
  00080	eb 07		 jmp	 SHORT $LN20@comanche_t
$LN19@comanche_t:
  00082	c7 45 bc 00 00
	00 00		 mov	 DWORD PTR tv73[ebp], 0
$LN20@comanche_t:
  00089	8b 45 bc	 mov	 eax, DWORD PTR tv73[ebp]
  0008c	50		 push	 eax
  0008d	e8 00 00 00 00	 call	 ?set_ground_radar_is_active@@YGXH@Z ; set_ground_radar_is_active

; 903  : 				
; 904  : 				ground_radar.sweep_mode = RADAR_SWEEP_MODE_CONTINUOUS;

  00092	c7 05 28 00 00
	00 00 00 00 00	 mov	 DWORD PTR ?ground_radar@@3URADAR_PARAMS@@A+40, 0
$LN6@comanche_t:

; 905  : 			}
; 906  : 
; 907  : 			break;

  0009c	eb 70		 jmp	 SHORT $LN1@comanche_t
$LN11@comanche_t:

; 908  : 		}
; 909  : 		////////////////////////////////////////
; 910  : 		case TARGET_ACQUISITION_SYSTEM_AIR_RADAR:
; 911  : 		////////////////////////////////////////
; 912  : 		{
; 913  : 			if (comanche_damage.radar)

  0009e	a1 00 00 00 00	 mov	 eax, DWORD PTR ?comanche_damage@@3TCOMANCHE_DAMAGE_FLAGS@@A ; comanche_damage
  000a3	83 e0 01	 and	 eax, 1
  000a6	74 10		 je	 SHORT $LN12@comanche_t

; 914  : 			{
; 915  : 				set_ground_radar_is_active(FALSE);

  000a8	6a 00		 push	 0
  000aa	e8 00 00 00 00	 call	 ?set_ground_radar_is_active@@YGXH@Z ; set_ground_radar_is_active

; 916  : 				set_air_radar_is_active(FALSE);

  000af	6a 00		 push	 0
  000b1	e8 00 00 00 00	 call	 ?set_air_radar_is_active@@YGXH@Z ; set_air_radar_is_active
  000b6	eb 56		 jmp	 SHORT $LN1@comanche_t
$LN12@comanche_t:

; 917  : 			}
; 918  : 			else if (air_radar.sweep_mode == RADAR_SWEEP_MODE_CONTINUOUS)

  000b8	83 3d 28 00 00
	00 00		 cmp	 DWORD PTR ?air_radar@@3URADAR_PARAMS@@A+40, 0
  000bf	75 21		 jne	 SHORT $LN14@comanche_t

; 919  : 			{
; 920  : 				if (air_radar_is_active())

  000c1	e8 00 00 00 00	 call	 ?air_radar_is_active@@YGHXZ ; air_radar_is_active
  000c6	85 c0		 test	 eax, eax
  000c8	74 0c		 je	 SHORT $LN16@comanche_t

; 921  : 					air_radar.sweep_mode = RADAR_SWEEP_MODE_SINGLE_ACTIVE;

  000ca	c7 05 28 00 00
	00 02 00 00 00	 mov	 DWORD PTR ?air_radar@@3URADAR_PARAMS@@A+40, 2

; 922  : 				else

  000d4	eb 0a		 jmp	 SHORT $LN17@comanche_t
$LN16@comanche_t:

; 923  : 					air_radar.sweep_mode = RADAR_SWEEP_MODE_SINGLE_INACTIVE;

  000d6	c7 05 28 00 00
	00 01 00 00 00	 mov	 DWORD PTR ?air_radar@@3URADAR_PARAMS@@A+40, 1
$LN17@comanche_t:

; 924  : 			}
; 925  : 			else

  000e0	eb 2c		 jmp	 SHORT $LN1@comanche_t
$LN14@comanche_t:

; 926  : 			{
; 927  : 				set_air_radar_is_active(air_radar.sweep_mode == RADAR_SWEEP_MODE_SINGLE_ACTIVE);

  000e2	83 3d 28 00 00
	00 02		 cmp	 DWORD PTR ?air_radar@@3URADAR_PARAMS@@A+40, 2
  000e9	75 09		 jne	 SHORT $LN21@comanche_t
  000eb	c7 45 bc 01 00
	00 00		 mov	 DWORD PTR tv83[ebp], 1
  000f2	eb 07		 jmp	 SHORT $LN22@comanche_t
$LN21@comanche_t:
  000f4	c7 45 bc 00 00
	00 00		 mov	 DWORD PTR tv83[ebp], 0
$LN22@comanche_t:
  000fb	8b 45 bc	 mov	 eax, DWORD PTR tv83[ebp]
  000fe	50		 push	 eax
  000ff	e8 00 00 00 00	 call	 ?set_air_radar_is_active@@YGXH@Z ; set_air_radar_is_active

; 928  : 				
; 929  : 				air_radar.sweep_mode = RADAR_SWEEP_MODE_CONTINUOUS;

  00104	c7 05 28 00 00
	00 00 00 00 00	 mov	 DWORD PTR ?air_radar@@3URADAR_PARAMS@@A+40, 0
$LN1@comanche_t:

; 930  : 			}
; 931  : 
; 932  : 			break;
; 933  : 		}
; 934  : 	}
; 935  : }

  0010e	5f		 pop	 edi
  0010f	5e		 pop	 esi
  00110	5b		 pop	 ebx
  00111	8b e5		 mov	 esp, ebp
  00113	5d		 pop	 ebp
  00114	c3		 ret	 0
  00115	0f 1f 00	 npad	 3
$LN24@comanche_t:
  00118	00 00 00 00	 DD	 $LN4@comanche_t
  0011c	00 00 00 00	 DD	 $LN11@comanche_t
  00120	00 00 00 00	 DD	 $LN1@comanche_t
$LN23@comanche_t:
  00124	00		 DB	 0
  00125	00		 DB	 0
  00126	01		 DB	 1
  00127	00		 DB	 0
  00128	00		 DB	 0
  00129	00		 DB	 0
  0012a	02		 DB	 2
  0012b	02		 DB	 2
  0012c	02		 DB	 2
  0012d	00		 DB	 0
?comanche_target_acquisition_system_misc_function1@@YGXXZ ENDP ; comanche_target_acquisition_system_misc_function1
_TEXT	ENDS
; Function compile flags: /Odtp /ZI
; File c:\users\nhv90\projects\eech\aphavoc\source\gunships\avionics\comanche\cm_tgt.c
;	COMDAT ?set_comanche_lock_target@@YGXH@Z
_TEXT	SEGMENT
tv64 = -68						; size = 4
_lock$ = 8						; size = 4
?set_comanche_lock_target@@YGXH@Z PROC			; set_comanche_lock_target, COMDAT

; 827  : {

  00000	55		 push	 ebp
  00001	8b ec		 mov	 ebp, esp
  00003	83 ec 44	 sub	 esp, 68			; 00000044H
  00006	53		 push	 ebx
  00007	56		 push	 esi
  00008	57		 push	 edi

; 828  : 	switch (target_acquisition_system)

  00009	a1 00 00 00 00	 mov	 eax, DWORD PTR ?target_acquisition_system@@3W4TARGET_ACQUISITION_SYSTEMS@@A ; target_acquisition_system
  0000e	89 45 bc	 mov	 DWORD PTR tv64[ebp], eax
  00011	8b 4d bc	 mov	 ecx, DWORD PTR tv64[ebp]
  00014	83 e9 01	 sub	 ecx, 1
  00017	89 4d bc	 mov	 DWORD PTR tv64[ebp], ecx
  0001a	83 7d bc 08	 cmp	 DWORD PTR tv64[ebp], 8
  0001e	77 33		 ja	 SHORT $LN1@set_comanc
  00020	8b 55 bc	 mov	 edx, DWORD PTR tv64[ebp]
  00023	ff 24 95 00 00
	00 00		 jmp	 DWORD PTR $LN10@set_comanc[edx*4]

; 829  : 	{
; 830  : 		////////////////////////////////////////
; 831  : 		case TARGET_ACQUISITION_SYSTEM_OFF:
; 832  : 		////////////////////////////////////////
; 833  : 		{
; 834  : 			break;

  0002a	eb 27		 jmp	 SHORT $LN1@set_comanc
$LN5@set_comanc:

; 835  : 		}
; 836  : 		////////////////////////////////////////
; 837  : 		case TARGET_ACQUISITION_SYSTEM_GROUND_RADAR:
; 838  : 		////////////////////////////////////////
; 839  : 		{
; 840  : 			ground_radar.target_locked = lock;

  0002c	8b 45 08	 mov	 eax, DWORD PTR _lock$[ebp]
  0002f	a3 20 00 00 00	 mov	 DWORD PTR ?ground_radar@@3URADAR_PARAMS@@A+32, eax

; 841  : 
; 842  : 			break;

  00034	eb 1d		 jmp	 SHORT $LN1@set_comanc
$LN6@set_comanc:

; 843  : 		}
; 844  : 		////////////////////////////////////////
; 845  : 		case TARGET_ACQUISITION_SYSTEM_AIR_RADAR:
; 846  : 		////////////////////////////////////////
; 847  : 		{
; 848  : 			air_radar.target_locked = lock;

  00036	8b 45 08	 mov	 eax, DWORD PTR _lock$[ebp]
  00039	a3 20 00 00 00	 mov	 DWORD PTR ?air_radar@@3URADAR_PARAMS@@A+32, eax

; 849  : 
; 850  : 			break;

  0003e	eb 13		 jmp	 SHORT $LN1@set_comanc
$LN7@set_comanc:

; 851  : 		}
; 852  : 		////////////////////////////////////////
; 853  : 		case TARGET_ACQUISITION_SYSTEM_FLIR:
; 854  : 		case TARGET_ACQUISITION_SYSTEM_DTV:
; 855  : 		case TARGET_ACQUISITION_SYSTEM_DVO:
; 856  : 		////////////////////////////////////////
; 857  : 		{
; 858  : 			set_eo_lock(lock);

  00040	8b 45 08	 mov	 eax, DWORD PTR _lock$[ebp]
  00043	50		 push	 eax
  00044	e8 00 00 00 00	 call	 ?set_eo_lock@@YGXH@Z	; set_eo_lock

; 859  : 
; 860  : 			break;

  00049	eb 08		 jmp	 SHORT $LN1@set_comanc
$LN8@set_comanc:

; 861  : 		}
; 862  : 		////////////////////////////////////////
; 863  : 		case TARGET_ACQUISITION_SYSTEM_HIDSS:
; 864  : 		////////////////////////////////////////
; 865  : 		{
; 866  : 			hms_target_locked = lock;

  0004b	8b 45 08	 mov	 eax, DWORD PTR _lock$[ebp]
  0004e	a3 00 00 00 00	 mov	 DWORD PTR ?hms_target_locked@@3HA, eax ; hms_target_locked
$LN1@set_comanc:

; 867  : 
; 868  : 			break;
; 869  : 		}
; 870  : 	}
; 871  : }

  00053	5f		 pop	 edi
  00054	5e		 pop	 esi
  00055	5b		 pop	 ebx
  00056	8b e5		 mov	 esp, ebp
  00058	5d		 pop	 ebp
  00059	c2 04 00	 ret	 4
$LN10@set_comanc:
  0005c	00 00 00 00	 DD	 $LN5@set_comanc
  00060	00 00 00 00	 DD	 $LN6@set_comanc
  00064	00 00 00 00	 DD	 $LN7@set_comanc
  00068	00 00 00 00	 DD	 $LN7@set_comanc
  0006c	00 00 00 00	 DD	 $LN7@set_comanc
  00070	00 00 00 00	 DD	 $LN1@set_comanc
  00074	00 00 00 00	 DD	 $LN1@set_comanc
  00078	00 00 00 00	 DD	 $LN1@set_comanc
  0007c	00 00 00 00	 DD	 $LN8@set_comanc
?set_comanche_lock_target@@YGXH@Z ENDP			; set_comanche_lock_target
_TEXT	ENDS
; Function compile flags: /Odtp /ZI
; File c:\users\nhv90\projects\eech\aphavoc\source\gunships\avionics\comanche\cm_tgt.c
;	COMDAT ?toggle_comanche_lock_target@@YGXXZ
_TEXT	SEGMENT
tv64 = -68						; size = 4
?toggle_comanche_lock_target@@YGXXZ PROC		; toggle_comanche_lock_target, COMDAT

; 761  : {

  00000	55		 push	 ebp
  00001	8b ec		 mov	 ebp, esp
  00003	83 ec 44	 sub	 esp, 68			; 00000044H
  00006	53		 push	 ebx
  00007	56		 push	 esi
  00008	57		 push	 edi

; 762  : 	switch (target_acquisition_system)

  00009	a1 00 00 00 00	 mov	 eax, DWORD PTR ?target_acquisition_system@@3W4TARGET_ACQUISITION_SYSTEMS@@A ; target_acquisition_system
  0000e	89 45 bc	 mov	 DWORD PTR tv64[ebp], eax
  00011	8b 4d bc	 mov	 ecx, DWORD PTR tv64[ebp]
  00014	83 e9 01	 sub	 ecx, 1
  00017	89 4d bc	 mov	 DWORD PTR tv64[ebp], ecx
  0001a	83 7d bc 08	 cmp	 DWORD PTR tv64[ebp], 8
  0001e	77 6b		 ja	 SHORT $LN1@toggle_com
  00020	8b 55 bc	 mov	 edx, DWORD PTR tv64[ebp]
  00023	ff 24 95 00 00
	00 00		 jmp	 DWORD PTR $LN14@toggle_com[edx*4]

; 763  : 	{
; 764  : 		////////////////////////////////////////
; 765  : 		case TARGET_ACQUISITION_SYSTEM_OFF:
; 766  : 		////////////////////////////////////////
; 767  : 		{
; 768  : 			break;

  0002a	eb 5f		 jmp	 SHORT $LN1@toggle_com
$LN5@toggle_com:

; 769  : 		}
; 770  : 		////////////////////////////////////////
; 771  : 		case TARGET_ACQUISITION_SYSTEM_GROUND_RADAR:
; 772  : 		////////////////////////////////////////
; 773  : 		{
; 774  : 			ground_radar.target_locked ^= 1;

  0002c	a1 20 00 00 00	 mov	 eax, DWORD PTR ?ground_radar@@3URADAR_PARAMS@@A+32
  00031	83 f0 01	 xor	 eax, 1
  00034	a3 20 00 00 00	 mov	 DWORD PTR ?ground_radar@@3URADAR_PARAMS@@A+32, eax

; 775  : 
; 776  : 			break;

  00039	eb 50		 jmp	 SHORT $LN1@toggle_com
$LN6@toggle_com:

; 777  : 		}
; 778  : 		////////////////////////////////////////
; 779  : 		case TARGET_ACQUISITION_SYSTEM_AIR_RADAR:
; 780  : 		////////////////////////////////////////
; 781  : 		{
; 782  : 			air_radar.target_locked ^= 1;

  0003b	a1 20 00 00 00	 mov	 eax, DWORD PTR ?air_radar@@3URADAR_PARAMS@@A+32
  00040	83 f0 01	 xor	 eax, 1
  00043	a3 20 00 00 00	 mov	 DWORD PTR ?air_radar@@3URADAR_PARAMS@@A+32, eax

; 783  : 
; 784  : 			break;

  00048	eb 41		 jmp	 SHORT $LN1@toggle_com
$LN7@toggle_com:

; 785  : 		}
; 786  : 		////////////////////////////////////////
; 787  : 		case TARGET_ACQUISITION_SYSTEM_FLIR:
; 788  : 		case TARGET_ACQUISITION_SYSTEM_DTV:
; 789  : 		case TARGET_ACQUISITION_SYSTEM_DVO:
; 790  : 		////////////////////////////////////////
; 791  : 		{
; 792  : 			toggle_eo_lock();

  0004a	e8 00 00 00 00	 call	 ?toggle_eo_lock@@YGXXZ	; toggle_eo_lock

; 793  : 
; 794  : 			break;

  0004f	eb 3a		 jmp	 SHORT $LN1@toggle_com
$LN8@toggle_com:

; 795  : 		}
; 796  : 		////////////////////////////////////////
; 797  : 		case TARGET_ACQUISITION_SYSTEM_HIDSS:
; 798  : 		////////////////////////////////////////
; 799  : 		{
; 800  : 			hms_target_locked ^= 1;

  00051	a1 00 00 00 00	 mov	 eax, DWORD PTR ?hms_target_locked@@3HA ; hms_target_locked
  00056	83 f0 01	 xor	 eax, 1
  00059	a3 00 00 00 00	 mov	 DWORD PTR ?hms_target_locked@@3HA, eax ; hms_target_locked

; 801  : 
; 802  : 			if (hms_target_locked)

  0005e	74 1b		 je	 SHORT $LN9@toggle_com

; 803  : 			{
; 804  : 				if (in_cockpit && !query_TIR_active())

  00060	83 3d 00 00 00
	00 00		 cmp	 DWORD PTR ?in_cockpit@@3HA, 0 ; in_cockpit
  00067	74 10		 je	 SHORT $LN11@toggle_com
  00069	e8 00 00 00 00	 call	 ?query_TIR_active@@YAHXZ ; query_TIR_active
  0006e	85 c0		 test	 eax, eax
  00070	75 07		 jne	 SHORT $LN11@toggle_com

; 805  : 				{
; 806  : 					set_view_mode (VIEW_MODE_VIRTUAL_COCKPIT_TRACK_TARGET);

  00072	6a 22		 push	 34			; 00000022H
  00074	e8 00 00 00 00	 call	 ?set_view_mode@@YGHW4VIEW_MODES@@@Z ; set_view_mode
$LN11@toggle_com:

; 807  : 				}
; 808  : 			}
; 809  : 			else

  00079	eb 10		 jmp	 SHORT $LN1@toggle_com
$LN9@toggle_com:

; 810  : 			{
; 811  : 				if (get_view_mode () == VIEW_MODE_VIRTUAL_COCKPIT_TRACK_TARGET)

  0007b	83 3d 00 00 00
	00 22		 cmp	 DWORD PTR ?view_mode@@3W4VIEW_MODES@@A, 34 ; view_mode, 00000022H
  00082	75 07		 jne	 SHORT $LN1@toggle_com

; 812  : 				{
; 813  : 					select_padlock_view_event (PADLOCK_MODE_NONE);

  00084	6a 00		 push	 0
  00086	e8 00 00 00 00	 call	 ?select_padlock_view_event@@YGXW4PADLOCK_MODES@@@Z ; select_padlock_view_event
$LN1@toggle_com:

; 814  : 				}
; 815  : 			}
; 816  : 
; 817  : 			break;
; 818  : 		}
; 819  : 	}
; 820  : }

  0008b	5f		 pop	 edi
  0008c	5e		 pop	 esi
  0008d	5b		 pop	 ebx
  0008e	8b e5		 mov	 esp, ebp
  00090	5d		 pop	 ebp
  00091	c3		 ret	 0
  00092	66 90		 npad	 2
$LN14@toggle_com:
  00094	00 00 00 00	 DD	 $LN5@toggle_com
  00098	00 00 00 00	 DD	 $LN6@toggle_com
  0009c	00 00 00 00	 DD	 $LN7@toggle_com
  000a0	00 00 00 00	 DD	 $LN7@toggle_com
  000a4	00 00 00 00	 DD	 $LN7@toggle_com
  000a8	00 00 00 00	 DD	 $LN1@toggle_com
  000ac	00 00 00 00	 DD	 $LN1@toggle_com
  000b0	00 00 00 00	 DD	 $LN1@toggle_com
  000b4	00 00 00 00	 DD	 $LN8@toggle_com
?toggle_comanche_lock_target@@YGXXZ ENDP		; toggle_comanche_lock_target
_TEXT	ENDS
; Function compile flags: /Odtp /ZI
; File c:\users\nhv90\projects\eech\aphavoc\source\gunships\avionics\comanche\cm_tgt.c
;	COMDAT ?toggle_comanche_auto_target@@YGXXZ
_TEXT	SEGMENT
tv64 = -68						; size = 4
?toggle_comanche_auto_target@@YGXXZ PROC		; toggle_comanche_auto_target, COMDAT

; 704  : {

  00000	55		 push	 ebp
  00001	8b ec		 mov	 ebp, esp
  00003	83 ec 44	 sub	 esp, 68			; 00000044H
  00006	53		 push	 ebx
  00007	56		 push	 esi
  00008	57		 push	 edi

; 705  : 	switch (target_acquisition_system)

  00009	a1 00 00 00 00	 mov	 eax, DWORD PTR ?target_acquisition_system@@3W4TARGET_ACQUISITION_SYSTEMS@@A ; target_acquisition_system
  0000e	89 45 bc	 mov	 DWORD PTR tv64[ebp], eax
  00011	83 7d bc 01	 cmp	 DWORD PTR tv64[ebp], 1
  00015	74 0a		 je	 SHORT $LN5@toggle_com
  00017	83 7d bc 02	 cmp	 DWORD PTR tv64[ebp], 2
  0001b	74 13		 je	 SHORT $LN6@toggle_com
  0001d	eb 1e		 jmp	 SHORT $LN1@toggle_com

; 706  : 	{
; 707  : 		////////////////////////////////////////
; 708  : 		case TARGET_ACQUISITION_SYSTEM_OFF:
; 709  : 		////////////////////////////////////////
; 710  : 		{
; 711  : 			break;

  0001f	eb 1c		 jmp	 SHORT $LN1@toggle_com
$LN5@toggle_com:

; 712  : 		}
; 713  : 		////////////////////////////////////////
; 714  : 		case TARGET_ACQUISITION_SYSTEM_GROUND_RADAR:
; 715  : 		////////////////////////////////////////
; 716  : 		{
; 717  : 			ground_radar.auto_target ^= 1;

  00021	a1 24 00 00 00	 mov	 eax, DWORD PTR ?ground_radar@@3URADAR_PARAMS@@A+36
  00026	83 f0 01	 xor	 eax, 1
  00029	a3 24 00 00 00	 mov	 DWORD PTR ?ground_radar@@3URADAR_PARAMS@@A+36, eax

; 718  : 
; 719  : 			break;

  0002e	eb 0d		 jmp	 SHORT $LN1@toggle_com
$LN6@toggle_com:

; 720  : 		}
; 721  : 		////////////////////////////////////////
; 722  : 		case TARGET_ACQUISITION_SYSTEM_AIR_RADAR:
; 723  : 		////////////////////////////////////////
; 724  : 		{
; 725  : 			air_radar.auto_target ^= 1;

  00030	a1 24 00 00 00	 mov	 eax, DWORD PTR ?air_radar@@3URADAR_PARAMS@@A+36
  00035	83 f0 01	 xor	 eax, 1
  00038	a3 24 00 00 00	 mov	 DWORD PTR ?air_radar@@3URADAR_PARAMS@@A+36, eax
$LN1@toggle_com:

; 726  : 
; 727  : 			break;
; 728  : 		}
; 729  : 		////////////////////////////////////////
; 730  : 		case TARGET_ACQUISITION_SYSTEM_FLIR:
; 731  : 		////////////////////////////////////////
; 732  : 		{
; 733  : 			break;
; 734  : 		}
; 735  : 		////////////////////////////////////////
; 736  : 		case TARGET_ACQUISITION_SYSTEM_DTV:
; 737  : 		////////////////////////////////////////
; 738  : 		{
; 739  : 			break;
; 740  : 		}
; 741  : 		////////////////////////////////////////
; 742  : 		case TARGET_ACQUISITION_SYSTEM_DVO:
; 743  : 		////////////////////////////////////////
; 744  : 		{
; 745  : 			break;
; 746  : 		}
; 747  : 		////////////////////////////////////////
; 748  : 		case TARGET_ACQUISITION_SYSTEM_HIDSS:
; 749  : 		////////////////////////////////////////
; 750  : 		{
; 751  : 			break;
; 752  : 		}
; 753  : 	}
; 754  : }

  0003d	5f		 pop	 edi
  0003e	5e		 pop	 esi
  0003f	5b		 pop	 ebx
  00040	8b e5		 mov	 esp, ebp
  00042	5d		 pop	 ebp
  00043	c3		 ret	 0
?toggle_comanche_auto_target@@YGXXZ ENDP		; toggle_comanche_auto_target
_TEXT	ENDS
; Function compile flags: /Odtp /ZI
; File c:\users\nhv90\projects\eech\aphavoc\source\gunships\avionics\comanche\cm_tgt.c
;	COMDAT ?toggle_comanche_show_allied_targets@@YGXXZ
_TEXT	SEGMENT
tv64 = -68						; size = 4
?toggle_comanche_show_allied_targets@@YGXXZ PROC	; toggle_comanche_show_allied_targets, COMDAT

; 649  : {

  00000	55		 push	 ebp
  00001	8b ec		 mov	 ebp, esp
  00003	83 ec 44	 sub	 esp, 68			; 00000044H
  00006	53		 push	 ebx
  00007	56		 push	 esi
  00008	57		 push	 edi

; 650  : 	switch (target_acquisition_system)

  00009	a1 00 00 00 00	 mov	 eax, DWORD PTR ?target_acquisition_system@@3W4TARGET_ACQUISITION_SYSTEMS@@A ; target_acquisition_system
  0000e	89 45 bc	 mov	 DWORD PTR tv64[ebp], eax
  00011	83 7d bc 02	 cmp	 DWORD PTR tv64[ebp], 2
  00015	74 06		 je	 SHORT $LN6@toggle_com
  00017	eb 11		 jmp	 SHORT $LN1@toggle_com

; 651  : 	{
; 652  : 		////////////////////////////////////////
; 653  : 		case TARGET_ACQUISITION_SYSTEM_OFF:
; 654  : 		////////////////////////////////////////
; 655  : 		{
; 656  : 			break;

  00019	eb 0f		 jmp	 SHORT $LN1@toggle_com

; 657  : 		}
; 658  : 		////////////////////////////////////////
; 659  : 		case TARGET_ACQUISITION_SYSTEM_GROUND_RADAR:
; 660  : 		////////////////////////////////////////
; 661  : 		{
; 662  : 			break;

  0001b	eb 0d		 jmp	 SHORT $LN1@toggle_com
$LN6@toggle_com:

; 663  : 		}
; 664  : 		////////////////////////////////////////
; 665  : 		case TARGET_ACQUISITION_SYSTEM_AIR_RADAR:
; 666  : 		////////////////////////////////////////
; 667  : 		{
; 668  : 			air_radar.show_allied_targets ^= 1;

  0001d	a1 1c 00 00 00	 mov	 eax, DWORD PTR ?air_radar@@3URADAR_PARAMS@@A+28
  00022	83 f0 01	 xor	 eax, 1
  00025	a3 1c 00 00 00	 mov	 DWORD PTR ?air_radar@@3URADAR_PARAMS@@A+28, eax
$LN1@toggle_com:

; 669  : 
; 670  : 			break;
; 671  : 		}
; 672  : 		////////////////////////////////////////
; 673  : 		case TARGET_ACQUISITION_SYSTEM_FLIR:
; 674  : 		////////////////////////////////////////
; 675  : 		{
; 676  : 			break;
; 677  : 		}
; 678  : 		////////////////////////////////////////
; 679  : 		case TARGET_ACQUISITION_SYSTEM_DTV:
; 680  : 		////////////////////////////////////////
; 681  : 		{
; 682  : 			break;
; 683  : 		}
; 684  : 		////////////////////////////////////////
; 685  : 		case TARGET_ACQUISITION_SYSTEM_DVO:
; 686  : 		////////////////////////////////////////
; 687  : 		{
; 688  : 			break;
; 689  : 		}
; 690  : 		////////////////////////////////////////
; 691  : 		case TARGET_ACQUISITION_SYSTEM_HIDSS:
; 692  : 		////////////////////////////////////////
; 693  : 		{
; 694  : 			break;
; 695  : 		}
; 696  : 	}
; 697  : }

  0002a	5f		 pop	 edi
  0002b	5e		 pop	 esi
  0002c	5b		 pop	 ebx
  0002d	8b e5		 mov	 esp, ebp
  0002f	5d		 pop	 ebp
  00030	c3		 ret	 0
?toggle_comanche_show_allied_targets@@YGXXZ ENDP	; toggle_comanche_show_allied_targets
_TEXT	ENDS
; Function compile flags: /Odtp /ZI
; File c:\users\nhv90\projects\eech\aphavoc\source\gunships\avionics\comanche\cm_tgt.c
;	COMDAT ?centre_comanche_target_acquisition_system@@YGXXZ
_TEXT	SEGMENT
tv64 = -68						; size = 4
?centre_comanche_target_acquisition_system@@YGXXZ PROC	; centre_comanche_target_acquisition_system, COMDAT

; 586  : {

  00000	55		 push	 ebp
  00001	8b ec		 mov	 ebp, esp
  00003	83 ec 44	 sub	 esp, 68			; 00000044H
  00006	53		 push	 ebx
  00007	56		 push	 esi
  00008	57		 push	 edi

; 587  : 	switch (target_acquisition_system)

  00009	a1 00 00 00 00	 mov	 eax, DWORD PTR ?target_acquisition_system@@3W4TARGET_ACQUISITION_SYSTEMS@@A ; target_acquisition_system
  0000e	89 45 bc	 mov	 DWORD PTR tv64[ebp], eax
  00011	8b 4d bc	 mov	 ecx, DWORD PTR tv64[ebp]
  00014	83 e9 01	 sub	 ecx, 1
  00017	89 4d bc	 mov	 DWORD PTR tv64[ebp], ecx
  0001a	83 7d bc 04	 cmp	 DWORD PTR tv64[ebp], 4
  0001e	77 2d		 ja	 SHORT $LN1@centre_com
  00020	8b 55 bc	 mov	 edx, DWORD PTR tv64[ebp]
  00023	ff 24 95 00 00
	00 00		 jmp	 DWORD PTR $LN12@centre_com[edx*4]

; 588  : 	{
; 589  : 		////////////////////////////////////////
; 590  : 		case TARGET_ACQUISITION_SYSTEM_OFF:
; 591  : 		////////////////////////////////////////
; 592  : 		{
; 593  : 			break;

  0002a	eb 21		 jmp	 SHORT $LN1@centre_com
$LN5@centre_com:

; 594  : 		}
; 595  : 		////////////////////////////////////////
; 596  : 		case TARGET_ACQUISITION_SYSTEM_GROUND_RADAR:
; 597  : 		////////////////////////////////////////
; 598  : 		{
; 599  : 			centre_comanche_ground_radar ();

  0002c	e8 00 00 00 00	 call	 ?centre_comanche_ground_radar@@YGXXZ ; centre_comanche_ground_radar

; 600  : 
; 601  : 			break;

  00031	eb 1a		 jmp	 SHORT $LN1@centre_com
$LN6@centre_com:

; 602  : 		}
; 603  : 		////////////////////////////////////////
; 604  : 		case TARGET_ACQUISITION_SYSTEM_AIR_RADAR:
; 605  : 		////////////////////////////////////////
; 606  : 		{
; 607  : 			centre_comanche_air_radar ();

  00033	e8 00 00 00 00	 call	 ?centre_comanche_air_radar@@YGXXZ ; centre_comanche_air_radar

; 608  : 
; 609  : 			break;

  00038	eb 13		 jmp	 SHORT $LN1@centre_com
$LN7@centre_com:

; 610  : 		}
; 611  : 		////////////////////////////////////////
; 612  : 		case TARGET_ACQUISITION_SYSTEM_FLIR:
; 613  : 		////////////////////////////////////////
; 614  : 		{
; 615  : 			centre_comanche_eo ();

  0003a	e8 00 00 00 00	 call	 ?centre_comanche_eo@@YGXXZ ; centre_comanche_eo

; 616  : 
; 617  : 			break;

  0003f	eb 0c		 jmp	 SHORT $LN1@centre_com
$LN8@centre_com:

; 618  : 		}
; 619  : 		////////////////////////////////////////
; 620  : 		case TARGET_ACQUISITION_SYSTEM_DTV:
; 621  : 		////////////////////////////////////////
; 622  : 		{
; 623  : 			centre_comanche_eo ();

  00041	e8 00 00 00 00	 call	 ?centre_comanche_eo@@YGXXZ ; centre_comanche_eo

; 624  : 
; 625  : 			break;

  00046	eb 05		 jmp	 SHORT $LN1@centre_com
$LN9@centre_com:

; 626  : 		}
; 627  : 		////////////////////////////////////////
; 628  : 		case TARGET_ACQUISITION_SYSTEM_DVO:
; 629  : 		////////////////////////////////////////
; 630  : 		{
; 631  : 			centre_comanche_eo ();

  00048	e8 00 00 00 00	 call	 ?centre_comanche_eo@@YGXXZ ; centre_comanche_eo
$LN1@centre_com:

; 632  : 
; 633  : 			break;
; 634  : 		}
; 635  : 		////////////////////////////////////////
; 636  : 		case TARGET_ACQUISITION_SYSTEM_HIDSS:
; 637  : 		////////////////////////////////////////
; 638  : 		{
; 639  : 			break;
; 640  : 		}
; 641  : 	}
; 642  : }

  0004d	5f		 pop	 edi
  0004e	5e		 pop	 esi
  0004f	5b		 pop	 ebx
  00050	8b e5		 mov	 esp, ebp
  00052	5d		 pop	 ebp
  00053	c3		 ret	 0
$LN12@centre_com:
  00054	00 00 00 00	 DD	 $LN5@centre_com
  00058	00 00 00 00	 DD	 $LN6@centre_com
  0005c	00 00 00 00	 DD	 $LN7@centre_com
  00060	00 00 00 00	 DD	 $LN8@centre_com
  00064	00 00 00 00	 DD	 $LN9@centre_com
?centre_comanche_target_acquisition_system@@YGXXZ ENDP	; centre_comanche_target_acquisition_system
_TEXT	ENDS
; Function compile flags: /Odtp /ZI
; File c:\users\nhv90\projects\eech\aphavoc\source\gunships\avionics\comanche\cm_tgt.c
;	COMDAT ?update_comanche_target_acquisition_system@@YGXXZ
_TEXT	SEGMENT
tv283 = -92						; size = 4
tv262 = -92						; size = 4
tv243 = -92						; size = 4
tv219 = -92						; size = 4
tv198 = -92						; size = 4
tv172 = -92						; size = 4
tv151 = -92						; size = 4
tv95 = -92						; size = 4
tv275 = -88						; size = 4
tv255 = -88						; size = 4
tv235 = -88						; size = 4
tv228 = -88						; size = 4
tv211 = -88						; size = 4
tv191 = -88						; size = 4
tv185 = -88						; size = 4
tv164 = -88						; size = 4
tv144 = -88						; size = 4
tv87 = -88						; size = 4
tv69 = -88						; size = 4
_los_to_target$1 = -20					; size = 4
_laser_on$2 = -16					; size = 4
_radar_on$3 = -12					; size = 4
_target$4 = -8						; size = 4
_source$5 = -4						; size = 4
?update_comanche_target_acquisition_system@@YGXXZ PROC	; update_comanche_target_acquisition_system, COMDAT

; 378  : {

  00000	55		 push	 ebp
  00001	8b ec		 mov	 ebp, esp
  00003	83 ec 5c	 sub	 esp, 92			; 0000005cH
  00006	53		 push	 ebx
  00007	56		 push	 esi
  00008	57		 push	 edi

; 379  : 	if (ground_radar_is_active())

  00009	e8 00 00 00 00	 call	 ?ground_radar_is_active@@YGHXZ ; ground_radar_is_active
  0000e	85 c0		 test	 eax, eax
  00010	74 09		 je	 SHORT $LN6@update_com

; 380  : 		update_common_ground_radar(FALSE);

  00012	6a 00		 push	 0
  00014	e8 00 00 00 00	 call	 ?update_common_ground_radar@@YGXH@Z ; update_common_ground_radar
  00019	eb 0e		 jmp	 SHORT $LN7@update_com
$LN6@update_com:

; 381  : 	else if (air_radar_is_active())

  0001b	e8 00 00 00 00	 call	 ?air_radar_is_active@@YGHXZ ; air_radar_is_active
  00020	85 c0		 test	 eax, eax
  00022	74 05		 je	 SHORT $LN7@update_com

; 382  : 		update_common_air_radar();

  00024	e8 00 00 00 00	 call	 ?update_common_air_radar@@YGXXZ ; update_common_air_radar
$LN7@update_com:

; 383  : 	
; 384  : 	switch (target_acquisition_system)

  00029	a1 00 00 00 00	 mov	 eax, DWORD PTR ?target_acquisition_system@@3W4TARGET_ACQUISITION_SYSTEMS@@A ; target_acquisition_system
  0002e	89 45 a8	 mov	 DWORD PTR tv69[ebp], eax
  00031	83 7d a8 09	 cmp	 DWORD PTR tv69[ebp], 9
  00035	0f 87 bd 00 00
	00		 ja	 $LN2@update_com
  0003b	8b 4d a8	 mov	 ecx, DWORD PTR tv69[ebp]
  0003e	ff 24 8d 00 00
	00 00		 jmp	 DWORD PTR $LN64@update_com[ecx*4]
$LN9@update_com:

; 385  : 	{
; 386  : 		////////////////////////////////////////
; 387  : 		case TARGET_ACQUISITION_SYSTEM_OFF:
; 388  : 		////////////////////////////////////////
; 389  : 		{
; 390  : 			target_locked = FALSE;

  00045	c7 05 00 00 00
	00 00 00 00 00	 mov	 DWORD PTR ?target_locked@@3HA, 0 ; target_locked

; 391  : 
; 392  : 			update_weapon_lock_type (TARGET_ACQUISITION_SYSTEM_OFF);

  0004f	6a 00		 push	 0
  00051	e8 00 00 00 00	 call	 ?update_weapon_lock_type@@YGXW4TARGET_ACQUISITION_SYSTEMS@@@Z ; update_weapon_lock_type

; 393  : 
; 394  : 			slave_common_eo_to_current_target ();

  00056	e8 00 00 00 00	 call	 ?slave_common_eo_to_current_target@@YGXXZ ; slave_common_eo_to_current_target

; 395  : 
; 396  : 			slave_comanche_eo_to_current_target ();

  0005b	e8 00 00 00 00	 call	 ?slave_comanche_eo_to_current_target@@YGXXZ ; slave_comanche_eo_to_current_target

; 397  : 
; 398  : 			break;

  00060	e9 93 00 00 00	 jmp	 $LN2@update_com
$LN10@update_com:

; 399  : 		}
; 400  : 		////////////////////////////////////////
; 401  : 		case TARGET_ACQUISITION_SYSTEM_GROUND_RADAR:
; 402  : 		////////////////////////////////////////
; 403  : 		{
; 404  : 			update_comanche_ground_radar ();

  00065	e8 00 00 00 00	 call	 ?update_comanche_ground_radar@@YGXXZ ; update_comanche_ground_radar

; 405  : 
; 406  : //			update_common_ground_radar (FALSE);
; 407  : 
; 408  : 			update_weapon_lock_type (TARGET_ACQUISITION_SYSTEM_GROUND_RADAR);

  0006a	6a 01		 push	 1
  0006c	e8 00 00 00 00	 call	 ?update_weapon_lock_type@@YGXW4TARGET_ACQUISITION_SYSTEMS@@@Z ; update_weapon_lock_type

; 409  : 
; 410  : 			slave_common_eo_to_current_target ();

  00071	e8 00 00 00 00	 call	 ?slave_common_eo_to_current_target@@YGXXZ ; slave_common_eo_to_current_target

; 411  : 
; 412  : 			slave_comanche_eo_to_current_target ();

  00076	e8 00 00 00 00	 call	 ?slave_comanche_eo_to_current_target@@YGXXZ ; slave_comanche_eo_to_current_target

; 413  : 
; 414  : 			break;

  0007b	eb 7b		 jmp	 SHORT $LN2@update_com
$LN11@update_com:

; 415  : 		}
; 416  : 		////////////////////////////////////////
; 417  : 		case TARGET_ACQUISITION_SYSTEM_AIR_RADAR:
; 418  : 		////////////////////////////////////////
; 419  : 		{
; 420  : 			update_comanche_air_radar ();

  0007d	e8 00 00 00 00	 call	 ?update_comanche_air_radar@@YGXXZ ; update_comanche_air_radar

; 421  : 
; 422  : //			update_common_air_radar ();
; 423  : 
; 424  : 			update_weapon_lock_type (TARGET_ACQUISITION_SYSTEM_AIR_RADAR);

  00082	6a 02		 push	 2
  00084	e8 00 00 00 00	 call	 ?update_weapon_lock_type@@YGXW4TARGET_ACQUISITION_SYSTEMS@@@Z ; update_weapon_lock_type

; 425  : 
; 426  : 			slave_common_eo_to_current_target ();

  00089	e8 00 00 00 00	 call	 ?slave_common_eo_to_current_target@@YGXXZ ; slave_common_eo_to_current_target

; 427  : 
; 428  : 			slave_comanche_eo_to_current_target ();

  0008e	e8 00 00 00 00	 call	 ?slave_comanche_eo_to_current_target@@YGXXZ ; slave_comanche_eo_to_current_target

; 429  : 
; 430  : 			break;

  00093	eb 63		 jmp	 SHORT $LN2@update_com
$LN12@update_com:

; 431  : 		}
; 432  : 		////////////////////////////////////////
; 433  : 		case TARGET_ACQUISITION_SYSTEM_FLIR:
; 434  : 		////////////////////////////////////////
; 435  : 		{
; 436  : 			update_comanche_eo (&comanche_flir);

  00095	68 00 00 00 00	 push	 OFFSET ?comanche_flir@@3UEO_PARAMS_DYNAMIC_MOVE@@A ; comanche_flir
  0009a	e8 00 00 00 00	 call	 ?update_comanche_eo@@YGXPAUEO_PARAMS_DYNAMIC_MOVE@@@Z ; update_comanche_eo

; 437  : 
; 438  : 			update_common_eo ();

  0009f	e8 00 00 00 00	 call	 ?update_common_eo@@YGXXZ ; update_common_eo

; 439  : 
; 440  : 			update_weapon_lock_type (TARGET_ACQUISITION_SYSTEM_FLIR);

  000a4	6a 03		 push	 3
  000a6	e8 00 00 00 00	 call	 ?update_weapon_lock_type@@YGXW4TARGET_ACQUISITION_SYSTEMS@@@Z ; update_weapon_lock_type

; 441  : 
; 442  : 			break;

  000ab	eb 4b		 jmp	 SHORT $LN2@update_com
$LN13@update_com:

; 443  : 		}
; 444  : 		////////////////////////////////////////
; 445  : 		case TARGET_ACQUISITION_SYSTEM_DTV:
; 446  : 		////////////////////////////////////////
; 447  : 		{
; 448  : 			update_comanche_eo (&comanche_dtv);

  000ad	68 00 00 00 00	 push	 OFFSET ?comanche_dtv@@3UEO_PARAMS_DYNAMIC_MOVE@@A ; comanche_dtv
  000b2	e8 00 00 00 00	 call	 ?update_comanche_eo@@YGXPAUEO_PARAMS_DYNAMIC_MOVE@@@Z ; update_comanche_eo

; 449  : 
; 450  : 			update_common_eo ();

  000b7	e8 00 00 00 00	 call	 ?update_common_eo@@YGXXZ ; update_common_eo

; 451  : 
; 452  : 			update_weapon_lock_type (TARGET_ACQUISITION_SYSTEM_DTV);

  000bc	6a 04		 push	 4
  000be	e8 00 00 00 00	 call	 ?update_weapon_lock_type@@YGXW4TARGET_ACQUISITION_SYSTEMS@@@Z ; update_weapon_lock_type

; 453  : 
; 454  : 			break;

  000c3	eb 33		 jmp	 SHORT $LN2@update_com
$LN14@update_com:

; 455  : 		}
; 456  : 		////////////////////////////////////////
; 457  : 		case TARGET_ACQUISITION_SYSTEM_DVO:
; 458  : 		////////////////////////////////////////
; 459  : 		{
; 460  : 			update_comanche_eo (&comanche_dvo);

  000c5	68 00 00 00 00	 push	 OFFSET ?comanche_dvo@@3UEO_PARAMS_DYNAMIC_MOVE@@A ; comanche_dvo
  000ca	e8 00 00 00 00	 call	 ?update_comanche_eo@@YGXPAUEO_PARAMS_DYNAMIC_MOVE@@@Z ; update_comanche_eo

; 461  : 
; 462  : 			update_common_eo ();

  000cf	e8 00 00 00 00	 call	 ?update_common_eo@@YGXXZ ; update_common_eo

; 463  : 
; 464  : 			update_weapon_lock_type (TARGET_ACQUISITION_SYSTEM_DVO);

  000d4	6a 05		 push	 5
  000d6	e8 00 00 00 00	 call	 ?update_weapon_lock_type@@YGXW4TARGET_ACQUISITION_SYSTEMS@@@Z ; update_weapon_lock_type

; 465  : 
; 466  : 			break;

  000db	eb 1b		 jmp	 SHORT $LN2@update_com
$LN15@update_com:

; 467  : 		}
; 468  : 		////////////////////////////////////////
; 469  : 		case TARGET_ACQUISITION_SYSTEM_HIDSS:
; 470  : 		////////////////////////////////////////
; 471  : 		{
; 472  : 			update_comanche_hms ();

  000dd	e8 00 00 00 00	 call	 ?update_comanche_hms@@YGXXZ ; update_comanche_hms

; 473  : 
; 474  : 			update_common_hms ();

  000e2	e8 00 00 00 00	 call	 ?update_common_hms@@YGXXZ ; update_common_hms

; 475  : 
; 476  : 			update_weapon_lock_type (TARGET_ACQUISITION_SYSTEM_HIDSS);

  000e7	6a 09		 push	 9
  000e9	e8 00 00 00 00	 call	 ?update_weapon_lock_type@@YGXW4TARGET_ACQUISITION_SYSTEMS@@@Z ; update_weapon_lock_type

; 477  : 
; 478  : 			slave_common_eo_to_current_target ();

  000ee	e8 00 00 00 00	 call	 ?slave_common_eo_to_current_target@@YGXXZ ; slave_common_eo_to_current_target

; 479  : 
; 480  : 			slave_comanche_eo_to_current_target ();

  000f3	e8 00 00 00 00	 call	 ?slave_comanche_eo_to_current_target@@YGXXZ ; slave_comanche_eo_to_current_target
$LN2@update_com:

; 481  : 
; 482  : 			break;
; 483  : 		}
; 484  : 	}
; 485  : 
; 486  : 	////////////////////////////////////////
; 487  : 	//
; 488  : 	// radar / laser / los to target
; 489  : 	//
; 490  : 	////////////////////////////////////////
; 491  : 
; 492  : 	{
; 493  : 		entity
; 494  : 			*source,
; 495  : 			*target;
; 496  : 
; 497  : 		int
; 498  : 			radar_on,
; 499  : 			laser_on,
; 500  : 			los_to_target;
; 501  : 
; 502  : 		source = get_gunship_entity ();

  000f8	a1 00 00 00 00	 mov	 eax, DWORD PTR ?gunship_entity@@3PAUENTITY@@A ; gunship_entity
  000fd	89 45 fc	 mov	 DWORD PTR _source$5[ebp], eax

; 503  : 
; 504  : 		target = get_local_entity_parent (source, LIST_TYPE_TARGET);

  00100	83 7d fc 00	 cmp	 DWORD PTR _source$5[ebp], 0
  00104	74 0a		 je	 SHORT $LN29@update_com
  00106	8b 45 fc	 mov	 eax, DWORD PTR _source$5[ebp]
  00109	8b 08		 mov	 ecx, DWORD PTR [eax]
  0010b	89 4d a8	 mov	 DWORD PTR tv87[ebp], ecx
  0010e	eb 21		 jmp	 SHORT $LN30@update_com
$LN29@update_com:
  00110	8b 15 00 00 00
	00		 mov	 edx, DWORD PTR ?__LINE__Var@?0??update_comanche_target_acquisition_system@@YGXXZ@4JA
  00116	83 c2 7e	 add	 edx, 126		; 0000007eH
  00119	52		 push	 edx
  0011a	68 00 00 00 00	 push	 OFFSET ??_C@_0FA@DOJNNCOK@c?3?2users?2nhv90?2projects?2eech?2ap@
  0011f	a1 00 00 00 00	 mov	 eax, DWORD PTR ?null_entity_pointer_message@@3PBDB ; null_entity_pointer_message
  00124	50		 push	 eax
  00125	e8 00 00 00 00	 call	 ?process_assert@@YGXPBD0H@Z ; process_assert
  0012a	c7 45 a8 00 00
	00 00		 mov	 DWORD PTR tv87[ebp], 0
$LN30@update_com:
  00131	b9 01 00 00 00	 mov	 ecx, 1
  00136	85 c9		 test	 ecx, ecx
  00138	74 09		 je	 SHORT $LN31@update_com
  0013a	c7 45 a4 26 00
	00 00		 mov	 DWORD PTR tv95[ebp], 38	; 00000026H
  00141	eb 21		 jmp	 SHORT $LN32@update_com
$LN31@update_com:
  00143	8b 15 00 00 00
	00		 mov	 edx, DWORD PTR ?__LINE__Var@?0??update_comanche_target_acquisition_system@@YGXXZ@4JA
  00149	83 c2 7e	 add	 edx, 126		; 0000007eH
  0014c	52		 push	 edx
  0014d	68 00 00 00 00	 push	 OFFSET ??_C@_0FA@DOJNNCOK@c?3?2users?2nhv90?2projects?2eech?2ap@
  00152	a1 00 00 00 00	 mov	 eax, DWORD PTR ?overload_invalid_list_type_message@@3PBDB ; overload_invalid_list_type_message
  00157	50		 push	 eax
  00158	e8 00 00 00 00	 call	 ?process_assert@@YGXPBD0H@Z ; process_assert
  0015d	c7 45 a4 00 00
	00 00		 mov	 DWORD PTR tv95[ebp], 0
$LN32@update_com:
  00164	6a 26		 push	 38			; 00000026H
  00166	8b 4d fc	 mov	 ecx, DWORD PTR _source$5[ebp]
  00169	51		 push	 ecx
  0016a	69 55 a8 b4 00
	00 00		 imul	 edx, DWORD PTR tv87[ebp], 180
  00171	8b 45 a4	 mov	 eax, DWORD PTR tv95[ebp]
  00174	8b 8c 82 00 00
	00 00		 mov	 ecx, DWORD PTR ?fn_get_local_entity_parent@@3PAY0CN@P6GPAUENTITY@@PAU1@W4LIST_TYPES@@@ZA[edx+eax*4]
  0017b	ff d1		 call	 ecx
  0017d	89 45 f8	 mov	 DWORD PTR _target$4[ebp], eax

; 505  : 
; 506  : 		//
; 507  : 		// radar on/off
; 508  : 		//
; 509  : 
; 510  : 		radar_on = FALSE;

  00180	c7 45 f4 00 00
	00 00		 mov	 DWORD PTR _radar_on$3[ebp], 0

; 511  : 
; 512  : 		if (ground_radar_is_active() && ground_radar.sweep_mode != RADAR_SWEEP_MODE_SINGLE_INACTIVE)

  00187	e8 00 00 00 00	 call	 ?ground_radar_is_active@@YGHXZ ; ground_radar_is_active
  0018c	85 c0		 test	 eax, eax
  0018e	74 12		 je	 SHORT $LN16@update_com
  00190	83 3d 28 00 00
	00 01		 cmp	 DWORD PTR ?ground_radar@@3URADAR_PARAMS@@A+40, 1
  00197	74 09		 je	 SHORT $LN16@update_com

; 513  : 			radar_on = TRUE;

  00199	c7 45 f4 01 00
	00 00		 mov	 DWORD PTR _radar_on$3[ebp], 1
  001a0	eb 19		 jmp	 SHORT $LN17@update_com
$LN16@update_com:

; 514  : 
; 515  : 		else if (air_radar_is_active() && air_radar.sweep_mode != RADAR_SWEEP_MODE_SINGLE_INACTIVE)

  001a2	e8 00 00 00 00	 call	 ?air_radar_is_active@@YGHXZ ; air_radar_is_active
  001a7	85 c0		 test	 eax, eax
  001a9	74 10		 je	 SHORT $LN17@update_com
  001ab	83 3d 28 00 00
	00 01		 cmp	 DWORD PTR ?air_radar@@3URADAR_PARAMS@@A+40, 1
  001b2	74 07		 je	 SHORT $LN17@update_com

; 516  : 			radar_on = TRUE;

  001b4	c7 45 f4 01 00
	00 00		 mov	 DWORD PTR _radar_on$3[ebp], 1
$LN17@update_com:

; 517  : 
; 518  : 		if (radar_on != get_local_entity_int_value (source, INT_TYPE_RADAR_ON))

  001bb	83 7d fc 00	 cmp	 DWORD PTR _source$5[ebp], 0
  001bf	74 0a		 je	 SHORT $LN33@update_com
  001c1	8b 45 fc	 mov	 eax, DWORD PTR _source$5[ebp]
  001c4	8b 08		 mov	 ecx, DWORD PTR [eax]
  001c6	89 4d a8	 mov	 DWORD PTR tv144[ebp], ecx
  001c9	eb 1d		 jmp	 SHORT $LN34@update_com
$LN33@update_com:
  001cb	68 06 02 00 00	 push	 518			; 00000206H
  001d0	68 00 00 00 00	 push	 OFFSET ??_C@_0FA@DOJNNCOK@c?3?2users?2nhv90?2projects?2eech?2ap@
  001d5	8b 15 00 00 00
	00		 mov	 edx, DWORD PTR ?null_entity_pointer_message@@3PBDB ; null_entity_pointer_message
  001db	52		 push	 edx
  001dc	e8 00 00 00 00	 call	 ?process_assert@@YGXPBD0H@Z ; process_assert
  001e1	c7 45 a8 00 00
	00 00		 mov	 DWORD PTR tv144[ebp], 0
$LN34@update_com:
  001e8	b8 01 00 00 00	 mov	 eax, 1
  001ed	85 c0		 test	 eax, eax
  001ef	74 09		 je	 SHORT $LN35@update_com
  001f1	c7 45 a4 a9 00
	00 00		 mov	 DWORD PTR tv151[ebp], 169 ; 000000a9H
  001f8	eb 1d		 jmp	 SHORT $LN36@update_com
$LN35@update_com:
  001fa	68 06 02 00 00	 push	 518			; 00000206H
  001ff	68 00 00 00 00	 push	 OFFSET ??_C@_0FA@DOJNNCOK@c?3?2users?2nhv90?2projects?2eech?2ap@
  00204	8b 0d 00 00 00
	00		 mov	 ecx, DWORD PTR ?overload_invalid_int_type_message@@3PBDB ; overload_invalid_int_type_message
  0020a	51		 push	 ecx
  0020b	e8 00 00 00 00	 call	 ?process_assert@@YGXPBD0H@Z ; process_assert
  00210	c7 45 a4 00 00
	00 00		 mov	 DWORD PTR tv151[ebp], 0
$LN36@update_com:
  00217	68 a9 00 00 00	 push	 169			; 000000a9H
  0021c	8b 55 fc	 mov	 edx, DWORD PTR _source$5[ebp]
  0021f	52		 push	 edx
  00220	69 45 a8 5c 04
	00 00		 imul	 eax, DWORD PTR tv144[ebp], 1116
  00227	8b 4d a4	 mov	 ecx, DWORD PTR tv151[ebp]
  0022a	8b 94 88 00 00
	00 00		 mov	 edx, DWORD PTR ?fn_get_local_entity_int_value@@3PAY0BBH@P6GHPAUENTITY@@W4INT_TYPES@@@ZA[eax+ecx*4]
  00231	ff d2		 call	 edx
  00233	39 45 f4	 cmp	 DWORD PTR _radar_on$3[ebp], eax
  00236	0f 84 92 00 00
	00		 je	 $LN19@update_com

; 519  : 			set_client_server_entity_int_value (source, INT_TYPE_RADAR_ON, radar_on);

  0023c	83 7d fc 00	 cmp	 DWORD PTR _source$5[ebp], 0
  00240	74 0a		 je	 SHORT $LN37@update_com
  00242	8b 45 fc	 mov	 eax, DWORD PTR _source$5[ebp]
  00245	8b 08		 mov	 ecx, DWORD PTR [eax]
  00247	89 4d a8	 mov	 DWORD PTR tv164[ebp], ecx
  0024a	eb 24		 jmp	 SHORT $LN38@update_com
$LN37@update_com:
  0024c	8b 15 00 00 00
	00		 mov	 edx, DWORD PTR ?__LINE__Var@?0??update_comanche_target_acquisition_system@@YGXXZ@4JA
  00252	81 c2 8d 00 00
	00		 add	 edx, 141		; 0000008dH
  00258	52		 push	 edx
  00259	68 00 00 00 00	 push	 OFFSET ??_C@_0FA@DOJNNCOK@c?3?2users?2nhv90?2projects?2eech?2ap@
  0025e	a1 00 00 00 00	 mov	 eax, DWORD PTR ?null_entity_pointer_message@@3PBDB ; null_entity_pointer_message
  00263	50		 push	 eax
  00264	e8 00 00 00 00	 call	 ?process_assert@@YGXPBD0H@Z ; process_assert
  00269	c7 45 a8 00 00
	00 00		 mov	 DWORD PTR tv164[ebp], 0
$LN38@update_com:
  00270	b9 01 00 00 00	 mov	 ecx, 1
  00275	85 c9		 test	 ecx, ecx
  00277	74 09		 je	 SHORT $LN39@update_com
  00279	c7 45 a4 a9 00
	00 00		 mov	 DWORD PTR tv172[ebp], 169 ; 000000a9H
  00280	eb 24		 jmp	 SHORT $LN40@update_com
$LN39@update_com:
  00282	8b 15 00 00 00
	00		 mov	 edx, DWORD PTR ?__LINE__Var@?0??update_comanche_target_acquisition_system@@YGXXZ@4JA
  00288	81 c2 8d 00 00
	00		 add	 edx, 141		; 0000008dH
  0028e	52		 push	 edx
  0028f	68 00 00 00 00	 push	 OFFSET ??_C@_0FA@DOJNNCOK@c?3?2users?2nhv90?2projects?2eech?2ap@
  00294	a1 00 00 00 00	 mov	 eax, DWORD PTR ?overload_invalid_int_type_message@@3PBDB ; overload_invalid_int_type_message
  00299	50		 push	 eax
  0029a	e8 00 00 00 00	 call	 ?process_assert@@YGXPBD0H@Z ; process_assert
  0029f	c7 45 a4 00 00
	00 00		 mov	 DWORD PTR tv172[ebp], 0
$LN40@update_com:
  002a6	8b 4d f4	 mov	 ecx, DWORD PTR _radar_on$3[ebp]
  002a9	51		 push	 ecx
  002aa	68 a9 00 00 00	 push	 169			; 000000a9H
  002af	8b 55 fc	 mov	 edx, DWORD PTR _source$5[ebp]
  002b2	52		 push	 edx
  002b3	69 45 a8 b8 08
	00 00		 imul	 eax, DWORD PTR tv164[ebp], 2232
  002ba	8b 4d a4	 mov	 ecx, DWORD PTR tv172[ebp]
  002bd	8d 94 c8 00 00
	00 00		 lea	 edx, DWORD PTR ?fn_set_client_server_entity_int_value@@3PAY1BBH@1P6GXPAUENTITY@@W4INT_TYPES@@H@ZA[eax+ecx*8]
  002c4	a1 00 00 00 00	 mov	 eax, DWORD PTR ?system_comms_model@@3W4COMMS_MODEL_TYPES@@A ; system_comms_model
  002c9	8b 0c 82	 mov	 ecx, DWORD PTR [edx+eax*4]
  002cc	ff d1		 call	 ecx
$LN19@update_com:

; 520  : 
; 521  : 		//
; 522  : 		// laser on/off
; 523  : 		//
; 524  : 
; 525  : 		laser_on = laser_is_active() && !comanche_damage.laser_designator;

  002ce	e8 00 00 00 00	 call	 ?laser_is_active@@YGHXZ	; laser_is_active
  002d3	85 c0		 test	 eax, eax
  002d5	74 16		 je	 SHORT $LN41@update_com
  002d7	a1 00 00 00 00	 mov	 eax, DWORD PTR ?comanche_damage@@3TCOMANCHE_DAMAGE_FLAGS@@A ; comanche_damage
  002dc	c1 e8 04	 shr	 eax, 4
  002df	83 e0 01	 and	 eax, 1
  002e2	75 09		 jne	 SHORT $LN41@update_com
  002e4	c7 45 a8 01 00
	00 00		 mov	 DWORD PTR tv185[ebp], 1
  002eb	eb 07		 jmp	 SHORT $LN42@update_com
$LN41@update_com:
  002ed	c7 45 a8 00 00
	00 00		 mov	 DWORD PTR tv185[ebp], 0
$LN42@update_com:
  002f4	8b 4d a8	 mov	 ecx, DWORD PTR tv185[ebp]
  002f7	89 4d f0	 mov	 DWORD PTR _laser_on$2[ebp], ecx

; 526  : 
; 527  : 		if (laser_on != get_local_entity_int_value (source, INT_TYPE_LASER_ON))

  002fa	83 7d fc 00	 cmp	 DWORD PTR _source$5[ebp], 0
  002fe	74 0a		 je	 SHORT $LN43@update_com
  00300	8b 45 fc	 mov	 eax, DWORD PTR _source$5[ebp]
  00303	8b 08		 mov	 ecx, DWORD PTR [eax]
  00305	89 4d a8	 mov	 DWORD PTR tv191[ebp], ecx
  00308	eb 1d		 jmp	 SHORT $LN44@update_com
$LN43@update_com:
  0030a	68 0f 02 00 00	 push	 527			; 0000020fH
  0030f	68 00 00 00 00	 push	 OFFSET ??_C@_0FA@DOJNNCOK@c?3?2users?2nhv90?2projects?2eech?2ap@
  00314	8b 15 00 00 00
	00		 mov	 edx, DWORD PTR ?null_entity_pointer_message@@3PBDB ; null_entity_pointer_message
  0031a	52		 push	 edx
  0031b	e8 00 00 00 00	 call	 ?process_assert@@YGXPBD0H@Z ; process_assert
  00320	c7 45 a8 00 00
	00 00		 mov	 DWORD PTR tv191[ebp], 0
$LN44@update_com:
  00327	b8 01 00 00 00	 mov	 eax, 1
  0032c	85 c0		 test	 eax, eax
  0032e	74 09		 je	 SHORT $LN45@update_com
  00330	c7 45 a4 78 00
	00 00		 mov	 DWORD PTR tv198[ebp], 120 ; 00000078H
  00337	eb 1d		 jmp	 SHORT $LN46@update_com
$LN45@update_com:
  00339	68 0f 02 00 00	 push	 527			; 0000020fH
  0033e	68 00 00 00 00	 push	 OFFSET ??_C@_0FA@DOJNNCOK@c?3?2users?2nhv90?2projects?2eech?2ap@
  00343	8b 0d 00 00 00
	00		 mov	 ecx, DWORD PTR ?overload_invalid_int_type_message@@3PBDB ; overload_invalid_int_type_message
  00349	51		 push	 ecx
  0034a	e8 00 00 00 00	 call	 ?process_assert@@YGXPBD0H@Z ; process_assert
  0034f	c7 45 a4 00 00
	00 00		 mov	 DWORD PTR tv198[ebp], 0
$LN46@update_com:
  00356	6a 78		 push	 120			; 00000078H
  00358	8b 55 fc	 mov	 edx, DWORD PTR _source$5[ebp]
  0035b	52		 push	 edx
  0035c	69 45 a8 5c 04
	00 00		 imul	 eax, DWORD PTR tv191[ebp], 1116
  00363	8b 4d a4	 mov	 ecx, DWORD PTR tv198[ebp]
  00366	8b 94 88 00 00
	00 00		 mov	 edx, DWORD PTR ?fn_get_local_entity_int_value@@3PAY0BBH@P6GHPAUENTITY@@W4INT_TYPES@@@ZA[eax+ecx*4]
  0036d	ff d2		 call	 edx
  0036f	39 45 f0	 cmp	 DWORD PTR _laser_on$2[ebp], eax
  00372	0f 84 8f 00 00
	00		 je	 $LN20@update_com

; 528  : 		{
; 529  : 			set_client_server_entity_int_value (source, INT_TYPE_LASER_ON, laser_on);

  00378	83 7d fc 00	 cmp	 DWORD PTR _source$5[ebp], 0
  0037c	74 0a		 je	 SHORT $LN47@update_com
  0037e	8b 45 fc	 mov	 eax, DWORD PTR _source$5[ebp]
  00381	8b 08		 mov	 ecx, DWORD PTR [eax]
  00383	89 4d a8	 mov	 DWORD PTR tv211[ebp], ecx
  00386	eb 24		 jmp	 SHORT $LN48@update_com
$LN47@update_com:
  00388	8b 15 00 00 00
	00		 mov	 edx, DWORD PTR ?__LINE__Var@?0??update_comanche_target_acquisition_system@@YGXXZ@4JA
  0038e	81 c2 97 00 00
	00		 add	 edx, 151		; 00000097H
  00394	52		 push	 edx
  00395	68 00 00 00 00	 push	 OFFSET ??_C@_0FA@DOJNNCOK@c?3?2users?2nhv90?2projects?2eech?2ap@
  0039a	a1 00 00 00 00	 mov	 eax, DWORD PTR ?null_entity_pointer_message@@3PBDB ; null_entity_pointer_message
  0039f	50		 push	 eax
  003a0	e8 00 00 00 00	 call	 ?process_assert@@YGXPBD0H@Z ; process_assert
  003a5	c7 45 a8 00 00
	00 00		 mov	 DWORD PTR tv211[ebp], 0
$LN48@update_com:
  003ac	b9 01 00 00 00	 mov	 ecx, 1
  003b1	85 c9		 test	 ecx, ecx
  003b3	74 09		 je	 SHORT $LN49@update_com
  003b5	c7 45 a4 78 00
	00 00		 mov	 DWORD PTR tv219[ebp], 120 ; 00000078H
  003bc	eb 24		 jmp	 SHORT $LN50@update_com
$LN49@update_com:
  003be	8b 15 00 00 00
	00		 mov	 edx, DWORD PTR ?__LINE__Var@?0??update_comanche_target_acquisition_system@@YGXXZ@4JA
  003c4	81 c2 97 00 00
	00		 add	 edx, 151		; 00000097H
  003ca	52		 push	 edx
  003cb	68 00 00 00 00	 push	 OFFSET ??_C@_0FA@DOJNNCOK@c?3?2users?2nhv90?2projects?2eech?2ap@
  003d0	a1 00 00 00 00	 mov	 eax, DWORD PTR ?overload_invalid_int_type_message@@3PBDB ; overload_invalid_int_type_message
  003d5	50		 push	 eax
  003d6	e8 00 00 00 00	 call	 ?process_assert@@YGXPBD0H@Z ; process_assert
  003db	c7 45 a4 00 00
	00 00		 mov	 DWORD PTR tv219[ebp], 0
$LN50@update_com:
  003e2	8b 4d f0	 mov	 ecx, DWORD PTR _laser_on$2[ebp]
  003e5	51		 push	 ecx
  003e6	6a 78		 push	 120			; 00000078H
  003e8	8b 55 fc	 mov	 edx, DWORD PTR _source$5[ebp]
  003eb	52		 push	 edx
  003ec	69 45 a8 b8 08
	00 00		 imul	 eax, DWORD PTR tv211[ebp], 2232
  003f3	8b 4d a4	 mov	 ecx, DWORD PTR tv219[ebp]
  003f6	8d 94 c8 00 00
	00 00		 lea	 edx, DWORD PTR ?fn_set_client_server_entity_int_value@@3PAY1BBH@1P6GXPAUENTITY@@W4INT_TYPES@@H@ZA[eax+ecx*8]
  003fd	a1 00 00 00 00	 mov	 eax, DWORD PTR ?system_comms_model@@3W4COMMS_MODEL_TYPES@@A ; system_comms_model
  00402	8b 0c 82	 mov	 ecx, DWORD PTR [edx+eax*4]
  00405	ff d1		 call	 ecx
$LN20@update_com:

; 530  : 		}
; 531  : 
; 532  : 		//
; 533  : 		// line of sight to target
; 534  : 		//
; 535  : 
; 536  : 		if (target)

  00407	83 7d f8 00	 cmp	 DWORD PTR _target$4[ebp], 0
  0040b	0f 84 c9 00 00
	00		 je	 $LN21@update_com

; 537  : 		{
; 538  : 			switch (target_acquisition_system)

  00411	a1 00 00 00 00	 mov	 eax, DWORD PTR ?target_acquisition_system@@3W4TARGET_ACQUISITION_SYSTEMS@@A ; target_acquisition_system
  00416	89 45 a8	 mov	 DWORD PTR tv228[ebp], eax
  00419	83 7d a8 09	 cmp	 DWORD PTR tv228[ebp], 9
  0041d	0f 87 b5 00 00
	00		 ja	 $LN4@update_com
  00423	8b 4d a8	 mov	 ecx, DWORD PTR tv228[ebp]
  00426	0f b6 91 00 00
	00 00		 movzx	 edx, BYTE PTR $LN63@update_com[ecx]
  0042d	ff 24 95 00 00
	00 00		 jmp	 DWORD PTR $LN65@update_com[edx*4]
$LN23@update_com:

; 539  : 			{
; 540  : 				case TARGET_ACQUISITION_SYSTEM_OFF:
; 541  : 				{
; 542  : 					los_to_target = FALSE;

  00434	c7 45 ec 00 00
	00 00		 mov	 DWORD PTR _los_to_target$1[ebp], 0

; 543  : 
; 544  : 					break;

  0043b	e9 98 00 00 00	 jmp	 $LN4@update_com
$LN24@update_com:

; 545  : 				}
; 546  : 				case TARGET_ACQUISITION_SYSTEM_GROUND_RADAR:
; 547  : 				case TARGET_ACQUISITION_SYSTEM_AIR_RADAR:
; 548  : 				{
; 549  : 					los_to_target = get_local_entity_int_value (target, INT_TYPE_GUNSHIP_RADAR_LOS_CLEAR);

  00440	83 7d f8 00	 cmp	 DWORD PTR _target$4[ebp], 0
  00444	74 0a		 je	 SHORT $LN51@update_com
  00446	8b 45 f8	 mov	 eax, DWORD PTR _target$4[ebp]
  00449	8b 08		 mov	 ecx, DWORD PTR [eax]
  0044b	89 4d a8	 mov	 DWORD PTR tv235[ebp], ecx
  0044e	eb 24		 jmp	 SHORT $LN52@update_com
$LN51@update_com:
  00450	8b 15 00 00 00
	00		 mov	 edx, DWORD PTR ?__LINE__Var@?0??update_comanche_target_acquisition_system@@YGXXZ@4JA
  00456	81 c2 ab 00 00
	00		 add	 edx, 171		; 000000abH
  0045c	52		 push	 edx
  0045d	68 00 00 00 00	 push	 OFFSET ??_C@_0FA@DOJNNCOK@c?3?2users?2nhv90?2projects?2eech?2ap@
  00462	a1 00 00 00 00	 mov	 eax, DWORD PTR ?null_entity_pointer_message@@3PBDB ; null_entity_pointer_message
  00467	50		 push	 eax
  00468	e8 00 00 00 00	 call	 ?process_assert@@YGXPBD0H@Z ; process_assert
  0046d	c7 45 a8 00 00
	00 00		 mov	 DWORD PTR tv235[ebp], 0
$LN52@update_com:
  00474	b9 01 00 00 00	 mov	 ecx, 1
  00479	85 c9		 test	 ecx, ecx
  0047b	74 09		 je	 SHORT $LN53@update_com
  0047d	c7 45 a4 50 00
	00 00		 mov	 DWORD PTR tv243[ebp], 80 ; 00000050H
  00484	eb 24		 jmp	 SHORT $LN54@update_com
$LN53@update_com:
  00486	8b 15 00 00 00
	00		 mov	 edx, DWORD PTR ?__LINE__Var@?0??update_comanche_target_acquisition_system@@YGXXZ@4JA
  0048c	81 c2 ab 00 00
	00		 add	 edx, 171		; 000000abH
  00492	52		 push	 edx
  00493	68 00 00 00 00	 push	 OFFSET ??_C@_0FA@DOJNNCOK@c?3?2users?2nhv90?2projects?2eech?2ap@
  00498	a1 00 00 00 00	 mov	 eax, DWORD PTR ?overload_invalid_int_type_message@@3PBDB ; overload_invalid_int_type_message
  0049d	50		 push	 eax
  0049e	e8 00 00 00 00	 call	 ?process_assert@@YGXPBD0H@Z ; process_assert
  004a3	c7 45 a4 00 00
	00 00		 mov	 DWORD PTR tv243[ebp], 0
$LN54@update_com:
  004aa	6a 50		 push	 80			; 00000050H
  004ac	8b 4d f8	 mov	 ecx, DWORD PTR _target$4[ebp]
  004af	51		 push	 ecx
  004b0	69 55 a8 5c 04
	00 00		 imul	 edx, DWORD PTR tv235[ebp], 1116
  004b7	8b 45 a4	 mov	 eax, DWORD PTR tv243[ebp]
  004ba	8b 8c 82 00 00
	00 00		 mov	 ecx, DWORD PTR ?fn_get_local_entity_int_value@@3PAY0BBH@P6GHPAUENTITY@@W4INT_TYPES@@@ZA[edx+eax*4]
  004c1	ff d1		 call	 ecx
  004c3	89 45 ec	 mov	 DWORD PTR _los_to_target$1[ebp], eax

; 550  : 
; 551  : 					break;

  004c6	eb 10		 jmp	 SHORT $LN4@update_com
$LN25@update_com:

; 552  : 				}
; 553  : 				case TARGET_ACQUISITION_SYSTEM_FLIR:
; 554  : 				case TARGET_ACQUISITION_SYSTEM_DTV:
; 555  : 				case TARGET_ACQUISITION_SYSTEM_DVO:
; 556  : 				{
; 557  : 					los_to_target = TRUE;

  004c8	c7 45 ec 01 00
	00 00		 mov	 DWORD PTR _los_to_target$1[ebp], 1

; 558  : 
; 559  : 					break;

  004cf	eb 07		 jmp	 SHORT $LN4@update_com
$LN26@update_com:

; 560  : 				}
; 561  : 				case TARGET_ACQUISITION_SYSTEM_HIDSS:
; 562  : 				{
; 563  : 					los_to_target = TRUE;

  004d1	c7 45 ec 01 00
	00 00		 mov	 DWORD PTR _los_to_target$1[ebp], 1
$LN4@update_com:

; 564  : 
; 565  : 					break;
; 566  : 				}
; 567  : 			}
; 568  : 		}
; 569  : 		else

  004d8	eb 07		 jmp	 SHORT $LN22@update_com
$LN21@update_com:

; 570  : 		{
; 571  : 			los_to_target = FALSE;

  004da	c7 45 ec 00 00
	00 00		 mov	 DWORD PTR _los_to_target$1[ebp], 0
$LN22@update_com:

; 572  : 		}
; 573  : 
; 574  : 		if (los_to_target != get_local_entity_int_value (source, INT_TYPE_LOS_TO_TARGET))

  004e1	83 7d fc 00	 cmp	 DWORD PTR _source$5[ebp], 0
  004e5	74 0a		 je	 SHORT $LN55@update_com
  004e7	8b 45 fc	 mov	 eax, DWORD PTR _source$5[ebp]
  004ea	8b 08		 mov	 ecx, DWORD PTR [eax]
  004ec	89 4d a8	 mov	 DWORD PTR tv255[ebp], ecx
  004ef	eb 1d		 jmp	 SHORT $LN56@update_com
$LN55@update_com:
  004f1	68 3e 02 00 00	 push	 574			; 0000023eH
  004f6	68 00 00 00 00	 push	 OFFSET ??_C@_0FA@DOJNNCOK@c?3?2users?2nhv90?2projects?2eech?2ap@
  004fb	8b 15 00 00 00
	00		 mov	 edx, DWORD PTR ?null_entity_pointer_message@@3PBDB ; null_entity_pointer_message
  00501	52		 push	 edx
  00502	e8 00 00 00 00	 call	 ?process_assert@@YGXPBD0H@Z ; process_assert
  00507	c7 45 a8 00 00
	00 00		 mov	 DWORD PTR tv255[ebp], 0
$LN56@update_com:
  0050e	b8 01 00 00 00	 mov	 eax, 1
  00513	85 c0		 test	 eax, eax
  00515	74 09		 je	 SHORT $LN57@update_com
  00517	c7 45 a4 80 00
	00 00		 mov	 DWORD PTR tv262[ebp], 128 ; 00000080H
  0051e	eb 1d		 jmp	 SHORT $LN58@update_com
$LN57@update_com:
  00520	68 3e 02 00 00	 push	 574			; 0000023eH
  00525	68 00 00 00 00	 push	 OFFSET ??_C@_0FA@DOJNNCOK@c?3?2users?2nhv90?2projects?2eech?2ap@
  0052a	8b 0d 00 00 00
	00		 mov	 ecx, DWORD PTR ?overload_invalid_int_type_message@@3PBDB ; overload_invalid_int_type_message
  00530	51		 push	 ecx
  00531	e8 00 00 00 00	 call	 ?process_assert@@YGXPBD0H@Z ; process_assert
  00536	c7 45 a4 00 00
	00 00		 mov	 DWORD PTR tv262[ebp], 0
$LN58@update_com:
  0053d	68 80 00 00 00	 push	 128			; 00000080H
  00542	8b 55 fc	 mov	 edx, DWORD PTR _source$5[ebp]
  00545	52		 push	 edx
  00546	69 45 a8 5c 04
	00 00		 imul	 eax, DWORD PTR tv255[ebp], 1116
  0054d	8b 4d a4	 mov	 ecx, DWORD PTR tv262[ebp]
  00550	8b 94 88 00 00
	00 00		 mov	 edx, DWORD PTR ?fn_get_local_entity_int_value@@3PAY0BBH@P6GHPAUENTITY@@W4INT_TYPES@@@ZA[eax+ecx*4]
  00557	ff d2		 call	 edx
  00559	39 45 ec	 cmp	 DWORD PTR _los_to_target$1[ebp], eax
  0055c	0f 84 92 00 00
	00		 je	 $LN1@update_com

; 575  : 		{
; 576  : 			set_client_server_entity_int_value (source, INT_TYPE_LOS_TO_TARGET, los_to_target);

  00562	83 7d fc 00	 cmp	 DWORD PTR _source$5[ebp], 0
  00566	74 0a		 je	 SHORT $LN59@update_com
  00568	8b 45 fc	 mov	 eax, DWORD PTR _source$5[ebp]
  0056b	8b 08		 mov	 ecx, DWORD PTR [eax]
  0056d	89 4d a8	 mov	 DWORD PTR tv275[ebp], ecx
  00570	eb 24		 jmp	 SHORT $LN60@update_com
$LN59@update_com:
  00572	8b 15 00 00 00
	00		 mov	 edx, DWORD PTR ?__LINE__Var@?0??update_comanche_target_acquisition_system@@YGXXZ@4JA
  00578	81 c2 c6 00 00
	00		 add	 edx, 198		; 000000c6H
  0057e	52		 push	 edx
  0057f	68 00 00 00 00	 push	 OFFSET ??_C@_0FA@DOJNNCOK@c?3?2users?2nhv90?2projects?2eech?2ap@
  00584	a1 00 00 00 00	 mov	 eax, DWORD PTR ?null_entity_pointer_message@@3PBDB ; null_entity_pointer_message
  00589	50		 push	 eax
  0058a	e8 00 00 00 00	 call	 ?process_assert@@YGXPBD0H@Z ; process_assert
  0058f	c7 45 a8 00 00
	00 00		 mov	 DWORD PTR tv275[ebp], 0
$LN60@update_com:
  00596	b9 01 00 00 00	 mov	 ecx, 1
  0059b	85 c9		 test	 ecx, ecx
  0059d	74 09		 je	 SHORT $LN61@update_com
  0059f	c7 45 a4 80 00
	00 00		 mov	 DWORD PTR tv283[ebp], 128 ; 00000080H
  005a6	eb 24		 jmp	 SHORT $LN62@update_com
$LN61@update_com:
  005a8	8b 15 00 00 00
	00		 mov	 edx, DWORD PTR ?__LINE__Var@?0??update_comanche_target_acquisition_system@@YGXXZ@4JA
  005ae	81 c2 c6 00 00
	00		 add	 edx, 198		; 000000c6H
  005b4	52		 push	 edx
  005b5	68 00 00 00 00	 push	 OFFSET ??_C@_0FA@DOJNNCOK@c?3?2users?2nhv90?2projects?2eech?2ap@
  005ba	a1 00 00 00 00	 mov	 eax, DWORD PTR ?overload_invalid_int_type_message@@3PBDB ; overload_invalid_int_type_message
  005bf	50		 push	 eax
  005c0	e8 00 00 00 00	 call	 ?process_assert@@YGXPBD0H@Z ; process_assert
  005c5	c7 45 a4 00 00
	00 00		 mov	 DWORD PTR tv283[ebp], 0
$LN62@update_com:
  005cc	8b 4d ec	 mov	 ecx, DWORD PTR _los_to_target$1[ebp]
  005cf	51		 push	 ecx
  005d0	68 80 00 00 00	 push	 128			; 00000080H
  005d5	8b 55 fc	 mov	 edx, DWORD PTR _source$5[ebp]
  005d8	52		 push	 edx
  005d9	69 45 a8 b8 08
	00 00		 imul	 eax, DWORD PTR tv275[ebp], 2232
  005e0	8b 4d a4	 mov	 ecx, DWORD PTR tv283[ebp]
  005e3	8d 94 c8 00 00
	00 00		 lea	 edx, DWORD PTR ?fn_set_client_server_entity_int_value@@3PAY1BBH@1P6GXPAUENTITY@@W4INT_TYPES@@H@ZA[eax+ecx*8]
  005ea	a1 00 00 00 00	 mov	 eax, DWORD PTR ?system_comms_model@@3W4COMMS_MODEL_TYPES@@A ; system_comms_model
  005ef	8b 0c 82	 mov	 ecx, DWORD PTR [edx+eax*4]
  005f2	ff d1		 call	 ecx
$LN1@update_com:

; 577  : 		}
; 578  : 	}
; 579  : }

  005f4	5f		 pop	 edi
  005f5	5e		 pop	 esi
  005f6	5b		 pop	 ebx
  005f7	8b e5		 mov	 esp, ebp
  005f9	5d		 pop	 ebp
  005fa	c3		 ret	 0
  005fb	90		 npad	 1
$LN64@update_com:
  005fc	00 00 00 00	 DD	 $LN9@update_com
  00600	00 00 00 00	 DD	 $LN10@update_com
  00604	00 00 00 00	 DD	 $LN11@update_com
  00608	00 00 00 00	 DD	 $LN12@update_com
  0060c	00 00 00 00	 DD	 $LN13@update_com
  00610	00 00 00 00	 DD	 $LN14@update_com
  00614	00 00 00 00	 DD	 $LN2@update_com
  00618	00 00 00 00	 DD	 $LN2@update_com
  0061c	00 00 00 00	 DD	 $LN2@update_com
  00620	00 00 00 00	 DD	 $LN15@update_com
$LN65@update_com:
  00624	00 00 00 00	 DD	 $LN23@update_com
  00628	00 00 00 00	 DD	 $LN24@update_com
  0062c	00 00 00 00	 DD	 $LN25@update_com
  00630	00 00 00 00	 DD	 $LN26@update_com
  00634	00 00 00 00	 DD	 $LN4@update_com
$LN63@update_com:
  00638	00		 DB	 0
  00639	01		 DB	 1
  0063a	01		 DB	 1
  0063b	02		 DB	 2
  0063c	02		 DB	 2
  0063d	02		 DB	 2
  0063e	04		 DB	 4
  0063f	04		 DB	 4
  00640	04		 DB	 4
  00641	03		 DB	 3
?update_comanche_target_acquisition_system@@YGXXZ ENDP	; update_comanche_target_acquisition_system
_TEXT	ENDS
; Function compile flags: /Odtp /ZI
; File c:\users\nhv90\projects\eech\aphavoc\source\gunships\avionics\comanche\cm_tgt.c
;	COMDAT ?select_comanche_target_acquisition_system@@YGXW4TARGET_ACQUISITION_SYSTEMS@@@Z
_TEXT	SEGMENT
tv65 = -80						; size = 4
_damaged$ = -12						; size = 4
_old_system$ = -8					; size = 4
_new_system$ = -4					; size = 4
_system$ = 8						; size = 4
?select_comanche_target_acquisition_system@@YGXW4TARGET_ACQUISITION_SYSTEMS@@@Z PROC ; select_comanche_target_acquisition_system, COMDAT

; 189  : {

  00000	55		 push	 ebp
  00001	8b ec		 mov	 ebp, esp
  00003	83 ec 50	 sub	 esp, 80			; 00000050H
  00006	53		 push	 ebx
  00007	56		 push	 esi
  00008	57		 push	 edi

; 190  : 	target_acquisition_systems
; 191  : 		new_system,
; 192  : 		old_system;
; 193  : 
; 194  : 	int
; 195  : 		damaged;
; 196  : 
; 197  : 	new_system = system;

  00009	8b 45 08	 mov	 eax, DWORD PTR _system$[ebp]
  0000c	89 45 fc	 mov	 DWORD PTR _new_system$[ebp], eax

; 198  : 	old_system = target_acquisition_system;

  0000f	a1 00 00 00 00	 mov	 eax, DWORD PTR ?target_acquisition_system@@3W4TARGET_ACQUISITION_SYSTEMS@@A ; target_acquisition_system
  00014	89 45 f8	 mov	 DWORD PTR _old_system$[ebp], eax

; 199  : 
; 200  : 	damaged = FALSE;

  00017	c7 45 f4 00 00
	00 00		 mov	 DWORD PTR _damaged$[ebp], 0

; 201  : 
; 202  : 	reset_common_target_acquisition_system_keys ();

  0001e	e8 00 00 00 00	 call	 ?reset_common_target_acquisition_system_keys@@YGXXZ ; reset_common_target_acquisition_system_keys

; 203  : 
; 204  : 	deselect_comanche_target_acquisition_system (target_acquisition_system);

  00023	a1 00 00 00 00	 mov	 eax, DWORD PTR ?target_acquisition_system@@3W4TARGET_ACQUISITION_SYSTEMS@@A ; target_acquisition_system
  00028	50		 push	 eax
  00029	e8 00 00 00 00	 call	 ?deselect_comanche_target_acquisition_system@@YGXW4TARGET_ACQUISITION_SYSTEMS@@@Z ; deselect_comanche_target_acquisition_system

; 205  : 
; 206  : 	switch (system)

  0002e	8b 45 08	 mov	 eax, DWORD PTR _system$[ebp]
  00031	89 45 b0	 mov	 DWORD PTR tv65[ebp], eax
  00034	83 7d b0 09	 cmp	 DWORD PTR tv65[ebp], 9
  00038	0f 87 38 02 00
	00		 ja	 $LN31@select_com
  0003e	8b 4d b0	 mov	 ecx, DWORD PTR tv65[ebp]
  00041	ff 24 8d 00 00
	00 00		 jmp	 DWORD PTR $LN33@select_com[ecx*4]
$LN4@select_com:

; 207  : 	{
; 208  : 		////////////////////////////////////////
; 209  : 		case TARGET_ACQUISITION_SYSTEM_OFF:
; 210  : 		////////////////////////////////////////
; 211  : 		{
; 212  : 			target_acquisition_system = system;

  00048	8b 45 08	 mov	 eax, DWORD PTR _system$[ebp]
  0004b	a3 00 00 00 00	 mov	 DWORD PTR ?target_acquisition_system@@3W4TARGET_ACQUISITION_SYSTEMS@@A, eax ; target_acquisition_system

; 213  : 
; 214  : 			set_gunship_target (NULL);

  00050	6a 00		 push	 0
  00052	e8 00 00 00 00	 call	 ?set_gunship_target@@YGXPAUENTITY@@@Z ; set_gunship_target

; 215  : 
; 216  : 			if (!command_line_manual_laser_radar)

  00057	83 3d 00 00 00
	00 00		 cmp	 DWORD PTR ?command_line_manual_laser_radar@@3HA, 0 ; command_line_manual_laser_radar
  0005e	75 07		 jne	 SHORT $LN5@select_com

; 217  : 				set_laser_is_active(FALSE);

  00060	6a 00		 push	 0
  00062	e8 00 00 00 00	 call	 ?set_laser_is_active@@YGXH@Z ; set_laser_is_active
$LN5@select_com:

; 218  : 
; 219  : 			#if 0
; 220  : 
; 221  : 			hud_mode = previous_hud_mode;
; 222  : 
; 223  : 			#endif
; 224  : 
; 225  : 			break;

  00067	e9 1b 02 00 00	 jmp	 $LN2@select_com
$LN6@select_com:

; 226  : 		}
; 227  : 		////////////////////////////////////////
; 228  : 		case TARGET_ACQUISITION_SYSTEM_GROUND_RADAR:
; 229  : 		////////////////////////////////////////
; 230  : 		{
; 231  : 			if (!comanche_damage.radar)

  0006c	a1 00 00 00 00	 mov	 eax, DWORD PTR ?comanche_damage@@3TCOMANCHE_DAMAGE_FLAGS@@A ; comanche_damage
  00071	83 e0 01	 and	 eax, 1
  00074	75 46		 jne	 SHORT $LN7@select_com

; 232  : 			{
; 233  : 				target_acquisition_system = system;

  00076	8b 45 08	 mov	 eax, DWORD PTR _system$[ebp]
  00079	a3 00 00 00 00	 mov	 DWORD PTR ?target_acquisition_system@@3W4TARGET_ACQUISITION_SYSTEMS@@A, eax ; target_acquisition_system

; 234  : 
; 235  : 				deactivate_common_air_radar();

  0007e	e8 00 00 00 00	 call	 ?deactivate_common_air_radar@@YGXXZ ; deactivate_common_air_radar

; 236  : 				if (!command_line_manual_laser_radar)

  00083	83 3d 00 00 00
	00 00		 cmp	 DWORD PTR ?command_line_manual_laser_radar@@3HA, 0 ; command_line_manual_laser_radar
  0008a	75 05		 jne	 SHORT $LN8@select_com

; 237  : 					activate_common_ground_radar ();

  0008c	e8 00 00 00 00	 call	 ?activate_common_ground_radar@@YGXXZ ; activate_common_ground_radar
$LN8@select_com:

; 238  : 
; 239  : 				if (command_line_targeting_system_auto_page)

  00091	83 3d 00 00 00
	00 00		 cmp	 DWORD PTR ?command_line_targeting_system_auto_page@@3HA, 0 ; command_line_targeting_system_auto_page
  00098	74 05		 je	 SHORT $LN9@select_com

; 240  : 					select_comanche_ground_radar_main_mfd ();

  0009a	e8 00 00 00 00	 call	 ?select_comanche_ground_radar_main_mfd@@YGXXZ ; select_comanche_ground_radar_main_mfd
$LN9@select_com:

; 241  : 
; 242  : 				if (hud_mode != HUD_MODE_WEAPON)

  0009f	83 3d 00 00 00
	00 02		 cmp	 DWORD PTR ?hud_mode@@3W4HUD_MODES@@A, 2 ; hud_mode
  000a6	74 0a		 je	 SHORT $LN10@select_com

; 243  : 					previous_hud_mode = hud_mode;

  000a8	a1 00 00 00 00	 mov	 eax, DWORD PTR ?hud_mode@@3W4HUD_MODES@@A ; hud_mode
  000ad	a3 00 00 00 00	 mov	 DWORD PTR ?previous_hud_mode@@3W4HUD_MODES@@A, eax ; previous_hud_mode
$LN10@select_com:

; 244  : 				hud_mode = HUD_MODE_WEAPON;

  000b2	c7 05 00 00 00
	00 02 00 00 00	 mov	 DWORD PTR ?hud_mode@@3W4HUD_MODES@@A, 2 ; hud_mode
$LN7@select_com:

; 245  : 			}
; 246  : 
; 247  : 			damaged = comanche_damage.radar;

  000bc	a1 00 00 00 00	 mov	 eax, DWORD PTR ?comanche_damage@@3TCOMANCHE_DAMAGE_FLAGS@@A ; comanche_damage
  000c1	83 e0 01	 and	 eax, 1
  000c4	89 45 f4	 mov	 DWORD PTR _damaged$[ebp], eax

; 248  : 
; 249  : 			break;

  000c7	e9 bb 01 00 00	 jmp	 $LN2@select_com
$LN11@select_com:

; 250  : 		}
; 251  : 		////////////////////////////////////////
; 252  : 		case TARGET_ACQUISITION_SYSTEM_AIR_RADAR:
; 253  : 		////////////////////////////////////////
; 254  : 		{
; 255  : 			if (!comanche_damage.radar)

  000cc	a1 00 00 00 00	 mov	 eax, DWORD PTR ?comanche_damage@@3TCOMANCHE_DAMAGE_FLAGS@@A ; comanche_damage
  000d1	83 e0 01	 and	 eax, 1
  000d4	75 46		 jne	 SHORT $LN12@select_com

; 256  : 			{
; 257  : 				target_acquisition_system = system;

  000d6	8b 45 08	 mov	 eax, DWORD PTR _system$[ebp]
  000d9	a3 00 00 00 00	 mov	 DWORD PTR ?target_acquisition_system@@3W4TARGET_ACQUISITION_SYSTEMS@@A, eax ; target_acquisition_system

; 258  : 
; 259  : 				deactivate_common_ground_radar();

  000de	e8 00 00 00 00	 call	 ?deactivate_common_ground_radar@@YGXXZ ; deactivate_common_ground_radar

; 260  : 				if (!command_line_manual_laser_radar)

  000e3	83 3d 00 00 00
	00 00		 cmp	 DWORD PTR ?command_line_manual_laser_radar@@3HA, 0 ; command_line_manual_laser_radar
  000ea	75 05		 jne	 SHORT $LN13@select_com

; 261  : 					activate_common_air_radar ();

  000ec	e8 00 00 00 00	 call	 ?activate_common_air_radar@@YGXXZ ; activate_common_air_radar
$LN13@select_com:

; 262  : 
; 263  : 				if (command_line_targeting_system_auto_page)

  000f1	83 3d 00 00 00
	00 00		 cmp	 DWORD PTR ?command_line_targeting_system_auto_page@@3HA, 0 ; command_line_targeting_system_auto_page
  000f8	74 05		 je	 SHORT $LN14@select_com

; 264  : 					select_comanche_air_radar_main_mfd ();

  000fa	e8 00 00 00 00	 call	 ?select_comanche_air_radar_main_mfd@@YGXXZ ; select_comanche_air_radar_main_mfd
$LN14@select_com:

; 265  : 
; 266  : 				if (hud_mode != HUD_MODE_WEAPON)

  000ff	83 3d 00 00 00
	00 02		 cmp	 DWORD PTR ?hud_mode@@3W4HUD_MODES@@A, 2 ; hud_mode
  00106	74 0a		 je	 SHORT $LN15@select_com

; 267  : 					previous_hud_mode = hud_mode;

  00108	a1 00 00 00 00	 mov	 eax, DWORD PTR ?hud_mode@@3W4HUD_MODES@@A ; hud_mode
  0010d	a3 00 00 00 00	 mov	 DWORD PTR ?previous_hud_mode@@3W4HUD_MODES@@A, eax ; previous_hud_mode
$LN15@select_com:

; 268  : 				hud_mode = HUD_MODE_WEAPON;

  00112	c7 05 00 00 00
	00 02 00 00 00	 mov	 DWORD PTR ?hud_mode@@3W4HUD_MODES@@A, 2 ; hud_mode
$LN12@select_com:

; 269  : 			}
; 270  : 
; 271  : 			damaged = comanche_damage.radar;

  0011c	a1 00 00 00 00	 mov	 eax, DWORD PTR ?comanche_damage@@3TCOMANCHE_DAMAGE_FLAGS@@A ; comanche_damage
  00121	83 e0 01	 and	 eax, 1
  00124	89 45 f4	 mov	 DWORD PTR _damaged$[ebp], eax

; 272  : 
; 273  : 			break;

  00127	e9 5b 01 00 00	 jmp	 $LN2@select_com
$LN16@select_com:

; 274  : 		}
; 275  : 		////////////////////////////////////////
; 276  : 		case TARGET_ACQUISITION_SYSTEM_FLIR:
; 277  : 		////////////////////////////////////////
; 278  : 		{
; 279  : 			if (!comanche_damage.flir)

  0012c	a1 00 00 00 00	 mov	 eax, DWORD PTR ?comanche_damage@@3TCOMANCHE_DAMAGE_FLAGS@@A ; comanche_damage
  00131	d1 e8		 shr	 eax, 1
  00133	83 e0 01	 and	 eax, 1
  00136	75 38		 jne	 SHORT $LN17@select_com

; 280  : 			{
; 281  : 				target_acquisition_system = system;

  00138	8b 45 08	 mov	 eax, DWORD PTR _system$[ebp]
  0013b	a3 00 00 00 00	 mov	 DWORD PTR ?target_acquisition_system@@3W4TARGET_ACQUISITION_SYSTEMS@@A, eax ; target_acquisition_system

; 282  : 
; 283  : 				activate_common_eo ();

  00140	e8 00 00 00 00	 call	 ?activate_common_eo@@YGXXZ ; activate_common_eo

; 284  : 
; 285  : 				if (command_line_targeting_system_auto_page)

  00145	83 3d 00 00 00
	00 00		 cmp	 DWORD PTR ?command_line_targeting_system_auto_page@@3HA, 0 ; command_line_targeting_system_auto_page
  0014c	74 05		 je	 SHORT $LN18@select_com

; 286  : 					select_comanche_tads_main_mfd ();

  0014e	e8 00 00 00 00	 call	 ?select_comanche_tads_main_mfd@@YGXXZ ; select_comanche_tads_main_mfd
$LN18@select_com:

; 287  : 
; 288  : 				if (hud_mode != HUD_MODE_WEAPON)

  00153	83 3d 00 00 00
	00 02		 cmp	 DWORD PTR ?hud_mode@@3W4HUD_MODES@@A, 2 ; hud_mode
  0015a	74 0a		 je	 SHORT $LN19@select_com

; 289  : 					previous_hud_mode = hud_mode;

  0015c	a1 00 00 00 00	 mov	 eax, DWORD PTR ?hud_mode@@3W4HUD_MODES@@A ; hud_mode
  00161	a3 00 00 00 00	 mov	 DWORD PTR ?previous_hud_mode@@3W4HUD_MODES@@A, eax ; previous_hud_mode
$LN19@select_com:

; 290  : 				hud_mode = HUD_MODE_WEAPON;

  00166	c7 05 00 00 00
	00 02 00 00 00	 mov	 DWORD PTR ?hud_mode@@3W4HUD_MODES@@A, 2 ; hud_mode
$LN17@select_com:

; 291  : 			}
; 292  : 
; 293  : 			damaged = comanche_damage.flir;

  00170	a1 00 00 00 00	 mov	 eax, DWORD PTR ?comanche_damage@@3TCOMANCHE_DAMAGE_FLAGS@@A ; comanche_damage
  00175	d1 e8		 shr	 eax, 1
  00177	83 e0 01	 and	 eax, 1
  0017a	89 45 f4	 mov	 DWORD PTR _damaged$[ebp], eax

; 294  : 
; 295  : 			break;

  0017d	e9 05 01 00 00	 jmp	 $LN2@select_com
$LN20@select_com:

; 296  : 		}
; 297  : 		////////////////////////////////////////
; 298  : 		case TARGET_ACQUISITION_SYSTEM_DTV:
; 299  : 		////////////////////////////////////////
; 300  : 		{
; 301  : 			if (!comanche_damage.dtv)

  00182	a1 00 00 00 00	 mov	 eax, DWORD PTR ?comanche_damage@@3TCOMANCHE_DAMAGE_FLAGS@@A ; comanche_damage
  00187	c1 e8 02	 shr	 eax, 2
  0018a	83 e0 01	 and	 eax, 1
  0018d	75 38		 jne	 SHORT $LN21@select_com

; 302  : 			{
; 303  : 				target_acquisition_system = system;

  0018f	8b 45 08	 mov	 eax, DWORD PTR _system$[ebp]
  00192	a3 00 00 00 00	 mov	 DWORD PTR ?target_acquisition_system@@3W4TARGET_ACQUISITION_SYSTEMS@@A, eax ; target_acquisition_system

; 304  : 
; 305  : 				activate_common_eo ();

  00197	e8 00 00 00 00	 call	 ?activate_common_eo@@YGXXZ ; activate_common_eo

; 306  : 
; 307  : 				if (command_line_targeting_system_auto_page)

  0019c	83 3d 00 00 00
	00 00		 cmp	 DWORD PTR ?command_line_targeting_system_auto_page@@3HA, 0 ; command_line_targeting_system_auto_page
  001a3	74 05		 je	 SHORT $LN22@select_com

; 308  : 					select_comanche_tads_main_mfd ();

  001a5	e8 00 00 00 00	 call	 ?select_comanche_tads_main_mfd@@YGXXZ ; select_comanche_tads_main_mfd
$LN22@select_com:

; 309  : 
; 310  : 				if (hud_mode != HUD_MODE_WEAPON)

  001aa	83 3d 00 00 00
	00 02		 cmp	 DWORD PTR ?hud_mode@@3W4HUD_MODES@@A, 2 ; hud_mode
  001b1	74 0a		 je	 SHORT $LN23@select_com

; 311  : 					previous_hud_mode = hud_mode;

  001b3	a1 00 00 00 00	 mov	 eax, DWORD PTR ?hud_mode@@3W4HUD_MODES@@A ; hud_mode
  001b8	a3 00 00 00 00	 mov	 DWORD PTR ?previous_hud_mode@@3W4HUD_MODES@@A, eax ; previous_hud_mode
$LN23@select_com:

; 312  : 				hud_mode = HUD_MODE_WEAPON;

  001bd	c7 05 00 00 00
	00 02 00 00 00	 mov	 DWORD PTR ?hud_mode@@3W4HUD_MODES@@A, 2 ; hud_mode
$LN21@select_com:

; 313  : 			}
; 314  : 
; 315  : 			damaged = comanche_damage.dtv;

  001c7	a1 00 00 00 00	 mov	 eax, DWORD PTR ?comanche_damage@@3TCOMANCHE_DAMAGE_FLAGS@@A ; comanche_damage
  001cc	c1 e8 02	 shr	 eax, 2
  001cf	83 e0 01	 and	 eax, 1
  001d2	89 45 f4	 mov	 DWORD PTR _damaged$[ebp], eax

; 316  : 
; 317  : 			break;

  001d5	e9 ad 00 00 00	 jmp	 $LN2@select_com
$LN24@select_com:

; 318  : 		}
; 319  : 		////////////////////////////////////////
; 320  : 		case TARGET_ACQUISITION_SYSTEM_DVO:
; 321  : 		////////////////////////////////////////
; 322  : 		{
; 323  : 			if (!comanche_damage.dvo)

  001da	a1 00 00 00 00	 mov	 eax, DWORD PTR ?comanche_damage@@3TCOMANCHE_DAMAGE_FLAGS@@A ; comanche_damage
  001df	c1 e8 03	 shr	 eax, 3
  001e2	83 e0 01	 and	 eax, 1
  001e5	75 38		 jne	 SHORT $LN25@select_com

; 324  : 			{
; 325  : 				target_acquisition_system = system;

  001e7	8b 45 08	 mov	 eax, DWORD PTR _system$[ebp]
  001ea	a3 00 00 00 00	 mov	 DWORD PTR ?target_acquisition_system@@3W4TARGET_ACQUISITION_SYSTEMS@@A, eax ; target_acquisition_system

; 326  : 
; 327  : 				activate_common_eo ();

  001ef	e8 00 00 00 00	 call	 ?activate_common_eo@@YGXXZ ; activate_common_eo

; 328  : 
; 329  : 				if (command_line_targeting_system_auto_page)

  001f4	83 3d 00 00 00
	00 00		 cmp	 DWORD PTR ?command_line_targeting_system_auto_page@@3HA, 0 ; command_line_targeting_system_auto_page
  001fb	74 05		 je	 SHORT $LN26@select_com

; 330  : 					select_comanche_tads_main_mfd ();

  001fd	e8 00 00 00 00	 call	 ?select_comanche_tads_main_mfd@@YGXXZ ; select_comanche_tads_main_mfd
$LN26@select_com:

; 331  : 
; 332  : 				if (hud_mode != HUD_MODE_WEAPON)

  00202	83 3d 00 00 00
	00 02		 cmp	 DWORD PTR ?hud_mode@@3W4HUD_MODES@@A, 2 ; hud_mode
  00209	74 0a		 je	 SHORT $LN27@select_com

; 333  : 					previous_hud_mode = hud_mode;

  0020b	a1 00 00 00 00	 mov	 eax, DWORD PTR ?hud_mode@@3W4HUD_MODES@@A ; hud_mode
  00210	a3 00 00 00 00	 mov	 DWORD PTR ?previous_hud_mode@@3W4HUD_MODES@@A, eax ; previous_hud_mode
$LN27@select_com:

; 334  : 				hud_mode = HUD_MODE_WEAPON;

  00215	c7 05 00 00 00
	00 02 00 00 00	 mov	 DWORD PTR ?hud_mode@@3W4HUD_MODES@@A, 2 ; hud_mode
$LN25@select_com:

; 335  : 			}
; 336  : 
; 337  : 			damaged = comanche_damage.dvo;

  0021f	a1 00 00 00 00	 mov	 eax, DWORD PTR ?comanche_damage@@3TCOMANCHE_DAMAGE_FLAGS@@A ; comanche_damage
  00224	c1 e8 03	 shr	 eax, 3
  00227	83 e0 01	 and	 eax, 1
  0022a	89 45 f4	 mov	 DWORD PTR _damaged$[ebp], eax

; 338  : 
; 339  : 			break;

  0022d	eb 58		 jmp	 SHORT $LN2@select_com
$LN28@select_com:

; 340  : 		}
; 341  : 		////////////////////////////////////////
; 342  : 		case TARGET_ACQUISITION_SYSTEM_HIDSS:
; 343  : 		////////////////////////////////////////
; 344  : 		{
; 345  : 			if (!comanche_damage.hidss)

  0022f	a1 00 00 00 00	 mov	 eax, DWORD PTR ?comanche_damage@@3TCOMANCHE_DAMAGE_FLAGS@@A ; comanche_damage
  00234	c1 e8 0a	 shr	 eax, 10			; 0000000aH
  00237	83 e0 01	 and	 eax, 1
  0023a	75 2a		 jne	 SHORT $LN29@select_com

; 346  : 			{
; 347  : 				target_acquisition_system = system;

  0023c	8b 45 08	 mov	 eax, DWORD PTR _system$[ebp]
  0023f	a3 00 00 00 00	 mov	 DWORD PTR ?target_acquisition_system@@3W4TARGET_ACQUISITION_SYSTEMS@@A, eax ; target_acquisition_system

; 348  : 
; 349  : 				activate_common_hms ();

  00244	e8 00 00 00 00	 call	 ?activate_common_hms@@YGXXZ ; activate_common_hms

; 350  : 				
; 351  : 				if (hud_mode != HUD_MODE_WEAPON)

  00249	83 3d 00 00 00
	00 02		 cmp	 DWORD PTR ?hud_mode@@3W4HUD_MODES@@A, 2 ; hud_mode
  00250	74 0a		 je	 SHORT $LN30@select_com

; 352  : 					previous_hud_mode = hud_mode;

  00252	a1 00 00 00 00	 mov	 eax, DWORD PTR ?hud_mode@@3W4HUD_MODES@@A ; hud_mode
  00257	a3 00 00 00 00	 mov	 DWORD PTR ?previous_hud_mode@@3W4HUD_MODES@@A, eax ; previous_hud_mode
$LN30@select_com:

; 353  : 				hud_mode = HUD_MODE_WEAPON;

  0025c	c7 05 00 00 00
	00 02 00 00 00	 mov	 DWORD PTR ?hud_mode@@3W4HUD_MODES@@A, 2 ; hud_mode
$LN29@select_com:

; 354  : 			}
; 355  : 
; 356  : 			damaged = comanche_damage.hidss;

  00266	a1 00 00 00 00	 mov	 eax, DWORD PTR ?comanche_damage@@3TCOMANCHE_DAMAGE_FLAGS@@A ; comanche_damage
  0026b	c1 e8 0a	 shr	 eax, 10			; 0000000aH
  0026e	83 e0 01	 and	 eax, 1
  00271	89 45 f4	 mov	 DWORD PTR _damaged$[ebp], eax

; 357  : 
; 358  : 			break;

  00274	eb 11		 jmp	 SHORT $LN2@select_com
$LN31@select_com:

; 359  : 		}
; 360  : 		////////////////////////////////////////
; 361  : 		default:
; 362  : 		////////////////////////////////////////
; 363  : 		{
; 364  : 			debug_fatal ("Invalid target acquisition system = %d", system);

  00276	8b 45 08	 mov	 eax, DWORD PTR _system$[ebp]
  00279	50		 push	 eax
  0027a	68 00 00 00 00	 push	 OFFSET ??_C@_0CH@DDKDNBNH@Invalid?5target?5acquisition?5syst@
  0027f	e8 00 00 00 00	 call	 ?debug_fatal@@YAXPBDZZ	; debug_fatal
  00284	83 c4 08	 add	 esp, 8
$LN2@select_com:

; 365  : 
; 366  : 			break;
; 367  : 		}
; 368  : 	}
; 369  : 
; 370  : 	play_common_cpg_target_acquisition_system_speech (new_system, old_system, damaged);

  00287	8b 45 f4	 mov	 eax, DWORD PTR _damaged$[ebp]
  0028a	50		 push	 eax
  0028b	8b 4d f8	 mov	 ecx, DWORD PTR _old_system$[ebp]
  0028e	51		 push	 ecx
  0028f	8b 55 fc	 mov	 edx, DWORD PTR _new_system$[ebp]
  00292	52		 push	 edx
  00293	e8 00 00 00 00	 call	 ?play_common_cpg_target_acquisition_system_speech@@YGXW4TARGET_ACQUISITION_SYSTEMS@@0H@Z ; play_common_cpg_target_acquisition_system_speech

; 371  : }

  00298	5f		 pop	 edi
  00299	5e		 pop	 esi
  0029a	5b		 pop	 ebx
  0029b	8b e5		 mov	 esp, ebp
  0029d	5d		 pop	 ebp
  0029e	c2 04 00	 ret	 4
  002a1	0f 1f 00	 npad	 3
$LN33@select_com:
  002a4	00 00 00 00	 DD	 $LN4@select_com
  002a8	00 00 00 00	 DD	 $LN6@select_com
  002ac	00 00 00 00	 DD	 $LN11@select_com
  002b0	00 00 00 00	 DD	 $LN16@select_com
  002b4	00 00 00 00	 DD	 $LN20@select_com
  002b8	00 00 00 00	 DD	 $LN24@select_com
  002bc	00 00 00 00	 DD	 $LN31@select_com
  002c0	00 00 00 00	 DD	 $LN31@select_com
  002c4	00 00 00 00	 DD	 $LN31@select_com
  002c8	00 00 00 00	 DD	 $LN28@select_com
?select_comanche_target_acquisition_system@@YGXW4TARGET_ACQUISITION_SYSTEMS@@@Z ENDP ; select_comanche_target_acquisition_system
_TEXT	ENDS
; Function compile flags: /Odtp /ZI
; File c:\users\nhv90\projects\eech\aphavoc\source\gunships\avionics\comanche\cm_tgt.c
;	COMDAT ?deinitialise_comanche_target_acquisition_systems@@YGXXZ
_TEXT	SEGMENT
?deinitialise_comanche_target_acquisition_systems@@YGXXZ PROC ; deinitialise_comanche_target_acquisition_systems, COMDAT

; 93   : {

  00000	55		 push	 ebp
  00001	8b ec		 mov	 ebp, esp
  00003	83 ec 40	 sub	 esp, 64			; 00000040H
  00006	53		 push	 ebx
  00007	56		 push	 esi
  00008	57		 push	 edi

; 94   : 	deinitialise_comanche_radar ();

  00009	e8 00 00 00 00	 call	 ?deinitialise_comanche_radar@@YGXXZ ; deinitialise_comanche_radar

; 95   : 
; 96   : 	deinitialise_comanche_eo ();

  0000e	e8 00 00 00 00	 call	 ?deinitialise_comanche_eo@@YGXXZ ; deinitialise_comanche_eo

; 97   : 
; 98   : 	deinitialise_comanche_hms ();

  00013	e8 00 00 00 00	 call	 ?deinitialise_comanche_hms@@YGXXZ ; deinitialise_comanche_hms

; 99   : }

  00018	5f		 pop	 edi
  00019	5e		 pop	 esi
  0001a	5b		 pop	 ebx
  0001b	8b e5		 mov	 esp, ebp
  0001d	5d		 pop	 ebp
  0001e	c3		 ret	 0
?deinitialise_comanche_target_acquisition_systems@@YGXXZ ENDP ; deinitialise_comanche_target_acquisition_systems
_TEXT	ENDS
; Function compile flags: /Odtp /ZI
; File c:\users\nhv90\projects\eech\aphavoc\source\gunships\avionics\comanche\cm_tgt.c
;	COMDAT ?initialise_comanche_target_acquisition_systems@@YGXXZ
_TEXT	SEGMENT
?initialise_comanche_target_acquisition_systems@@YGXXZ PROC ; initialise_comanche_target_acquisition_systems, COMDAT

; 80   : {

  00000	55		 push	 ebp
  00001	8b ec		 mov	 ebp, esp
  00003	83 ec 40	 sub	 esp, 64			; 00000040H
  00006	53		 push	 ebx
  00007	56		 push	 esi
  00008	57		 push	 edi

; 81   : 	initialise_comanche_radar ();

  00009	e8 00 00 00 00	 call	 ?initialise_comanche_radar@@YGXXZ ; initialise_comanche_radar

; 82   : 
; 83   : 	initialise_comanche_eo ();

  0000e	e8 00 00 00 00	 call	 ?initialise_comanche_eo@@YGXXZ ; initialise_comanche_eo

; 84   : 
; 85   : 	initialise_comanche_hms ();

  00013	e8 00 00 00 00	 call	 ?initialise_comanche_hms@@YGXXZ ; initialise_comanche_hms

; 86   : }

  00018	5f		 pop	 edi
  00019	5e		 pop	 esi
  0001a	5b		 pop	 ebx
  0001b	8b e5		 mov	 esp, ebp
  0001d	5d		 pop	 ebp
  0001e	c3		 ret	 0
?initialise_comanche_target_acquisition_systems@@YGXXZ ENDP ; initialise_comanche_target_acquisition_systems
_TEXT	ENDS
END
