; Listing generated by Microsoft (R) Optimizing Compiler Version 19.16.27045.0 

	TITLE	C:\Users\nhv90\Projects\eech\aphavoc\source\entity\special\camera\cm_vec3d.c
	.686P
	.XMM
	include listing.inc
	.model	flat

INCLUDELIB MSVCRTD
INCLUDELIB OLDNAMES

PUBLIC	?overload_camera_vec3d_functions@@YGXXZ		; overload_camera_vec3d_functions
PUBLIC	?__LINE__Var@?0??set_local_vec3d@@YGXPAUENTITY@@W4VEC3D_TYPES@@PAUVEC3D@@@Z@4JA ; `set_local_vec3d'::`1'::__LINE__Var
PUBLIC	??_C@_0EN@OCFKOIJK@c?3?2users?2nhv90?2projects?2eech?2ap@ ; `string'
PUBLIC	??_C@_01MHEDDDHA@v@				; `string'
PUBLIC	?__LINE__Var@?0??get_local_vec3d@@YGXPAUENTITY@@W4VEC3D_TYPES@@PAUVEC3D@@@Z@4JA ; `get_local_vec3d'::`1'::__LINE__Var
PUBLIC	?__LINE__Var@?0??get_local_vec3d_ptr@@YGPAUVEC3D@@PAUENTITY@@W4VEC3D_TYPES@@@Z@4JA ; `get_local_vec3d_ptr'::`1'::__LINE__Var
EXTRN	?process_assert@@YGXPBD0H@Z:PROC		; process_assert
EXTRN	?debug_fatal@@YAXPBDZZ:PROC			; debug_fatal
EXTRN	?null_entity_pointer_message@@3PBDB:DWORD	; null_entity_pointer_message
EXTRN	?entity_type_database@@3PAUENTITY_TYPE_DATA@@A:BYTE ; entity_type_database
EXTRN	?vec3d_type_database@@3PAUVEC3D_TYPE_DATA@@A:BYTE ; vec3d_type_database
EXTRN	?debug_fatal_invalid_vec3d_type_message@@3PBDB:DWORD ; debug_fatal_invalid_vec3d_type_message
EXTRN	?fn_set_local_entity_raw_vec3d@@3PAY0BI@P6GXPAUENTITY@@W4VEC3D_TYPES@@PAUVEC3D@@@ZA:BYTE ; fn_set_local_entity_raw_vec3d
EXTRN	?fn_set_local_entity_vec3d@@3PAY0BI@P6GXPAUENTITY@@W4VEC3D_TYPES@@PAUVEC3D@@@ZA:BYTE ; fn_set_local_entity_vec3d
EXTRN	?fn_get_local_entity_vec3d@@3PAY0BI@P6GXPAUENTITY@@W4VEC3D_TYPES@@PAUVEC3D@@@ZA:BYTE ; fn_get_local_entity_vec3d
EXTRN	?fn_get_local_entity_vec3d_ptr@@3PAY0BI@P6GPAUVEC3D@@PAUENTITY@@W4VEC3D_TYPES@@@ZA:BYTE ; fn_get_local_entity_vec3d_ptr
EXTRN	?entities@@3PAUENTITY@@A:DWORD			; entities
;	COMDAT ?__LINE__Var@?0??get_local_vec3d_ptr@@YGPAUVEC3D@@PAUENTITY@@W4VEC3D_TYPES@@@Z@4JA
_DATA	SEGMENT
?__LINE__Var@?0??get_local_vec3d_ptr@@YGPAUVEC3D@@PAUENTITY@@W4VEC3D_TYPES@@@Z@4JA DD 0a8H ; `get_local_vec3d_ptr'::`1'::__LINE__Var
_DATA	ENDS
;	COMDAT ?__LINE__Var@?0??get_local_vec3d@@YGXPAUENTITY@@W4VEC3D_TYPES@@PAUVEC3D@@@Z@4JA
_DATA	SEGMENT
?__LINE__Var@?0??get_local_vec3d@@YGXPAUENTITY@@W4VEC3D_TYPES@@PAUVEC3D@@@Z@4JA DD 07eH ; `get_local_vec3d'::`1'::__LINE__Var
_DATA	ENDS
;	COMDAT ??_C@_01MHEDDDHA@v@
CONST	SEGMENT
??_C@_01MHEDDDHA@v@ DB 'v', 00H				; `string'
CONST	ENDS
;	COMDAT ??_C@_0EN@OCFKOIJK@c?3?2users?2nhv90?2projects?2eech?2ap@
CONST	SEGMENT
??_C@_0EN@OCFKOIJK@c?3?2users?2nhv90?2projects?2eech?2ap@ DB 'c:\users\nh'
	DB	'v90\projects\eech\aphavoc\source\entity\special\camera\cm_vec'
	DB	'3d.c', 00H					; `string'
CONST	ENDS
;	COMDAT ?__LINE__Var@?0??set_local_vec3d@@YGXPAUENTITY@@W4VEC3D_TYPES@@PAUVEC3D@@@Z@4JA
_DATA	SEGMENT
?__LINE__Var@?0??set_local_vec3d@@YGXPAUENTITY@@W4VEC3D_TYPES@@PAUVEC3D@@@Z@4JA DD 056H ; `set_local_vec3d'::`1'::__LINE__Var
_DATA	ENDS
; Function compile flags: /Odtp /ZI
; File c:\users\nhv90\projects\eech\aphavoc\source\entity\special\camera\cm_vec3d.c
;	COMDAT ?get_local_vec3d_ptr@@YGPAUVEC3D@@PAUENTITY@@W4VEC3D_TYPES@@@Z
_TEXT	SEGMENT
tv84 = -76						; size = 4
tv65 = -76						; size = 4
_v$ = -8						; size = 4
_raw$ = -4						; size = 4
_en$ = 8						; size = 4
_type$ = 12						; size = 4
?get_local_vec3d_ptr@@YGPAUVEC3D@@PAUENTITY@@W4VEC3D_TYPES@@@Z PROC ; get_local_vec3d_ptr, COMDAT

; 168  : {

  00000	55		 push	 ebp
  00001	8b ec		 mov	 ebp, esp
  00003	83 ec 4c	 sub	 esp, 76			; 0000004cH
  00006	53		 push	 ebx
  00007	56		 push	 esi
  00008	57		 push	 edi

; 169  : 	camera
; 170  : 		*raw;
; 171  : 
; 172  : 	vec3d
; 173  : 		*v;
; 174  : 
; 175  : 	raw = (camera *) get_local_entity_data (en);

  00009	8b 45 08	 mov	 eax, DWORD PTR _en$[ebp]
  0000c	8b 48 04	 mov	 ecx, DWORD PTR [eax+4]
  0000f	89 4d fc	 mov	 DWORD PTR _raw$[ebp], ecx

; 176  : 
; 177  : 	switch (type)

  00012	8b 45 0c	 mov	 eax, DWORD PTR _type$[ebp]
  00015	89 45 b4	 mov	 DWORD PTR tv65[ebp], eax
  00018	83 7d b4 06	 cmp	 DWORD PTR tv65[ebp], 6
  0001c	74 08		 je	 SHORT $LN4@get_local_
  0001e	83 7d b4 08	 cmp	 DWORD PTR tv65[ebp], 8
  00022	74 0d		 je	 SHORT $LN5@get_local_
  00024	eb 13		 jmp	 SHORT $LN6@get_local_
$LN4@get_local_:

; 178  : 	{
; 179  : 		////////////////////////////////////////
; 180  : 		case VEC3D_TYPE_MOTION_VECTOR:
; 181  : 		////////////////////////////////////////
; 182  : 		{
; 183  : 			v = &raw->motion_vector;

  00026	8b 45 fc	 mov	 eax, DWORD PTR _raw$[ebp]
  00029	83 c0 0c	 add	 eax, 12			; 0000000cH
  0002c	89 45 f8	 mov	 DWORD PTR _v$[ebp], eax

; 184  : 
; 185  : 			break;

  0002f	eb 7a		 jmp	 SHORT $LN2@get_local_
$LN5@get_local_:

; 186  : 		}
; 187  : 		////////////////////////////////////////
; 188  : 		case VEC3D_TYPE_POSITION:
; 189  : 		////////////////////////////////////////
; 190  : 		{
; 191  : 			v = &raw->position;

  00031	8b 45 fc	 mov	 eax, DWORD PTR _raw$[ebp]
  00034	89 45 f8	 mov	 DWORD PTR _v$[ebp], eax

; 192  : 
; 193  : 			break;

  00037	eb 72		 jmp	 SHORT $LN2@get_local_
$LN6@get_local_:

; 194  : 		}
; 195  : 		////////////////////////////////////////
; 196  : 		default:
; 197  : 		////////////////////////////////////////
; 198  : 		{
; 199  : 			debug_fatal_invalid_vec3d_type (en, type);

  00039	83 7d 08 00	 cmp	 DWORD PTR _en$[ebp], 0
  0003d	74 0a		 je	 SHORT $LN8@get_local_
  0003f	8b 45 08	 mov	 eax, DWORD PTR _en$[ebp]
  00042	8b 08		 mov	 ecx, DWORD PTR [eax]
  00044	89 4d b4	 mov	 DWORD PTR tv84[ebp], ecx
  00047	eb 21		 jmp	 SHORT $LN9@get_local_
$LN8@get_local_:
  00049	8b 15 00 00 00
	00		 mov	 edx, DWORD PTR ?__LINE__Var@?0??get_local_vec3d_ptr@@YGPAUVEC3D@@PAUENTITY@@W4VEC3D_TYPES@@@Z@4JA
  0004f	83 c2 1f	 add	 edx, 31			; 0000001fH
  00052	52		 push	 edx
  00053	68 00 00 00 00	 push	 OFFSET ??_C@_0EN@OCFKOIJK@c?3?2users?2nhv90?2projects?2eech?2ap@
  00058	a1 00 00 00 00	 mov	 eax, DWORD PTR ?null_entity_pointer_message@@3PBDB ; null_entity_pointer_message
  0005d	50		 push	 eax
  0005e	e8 00 00 00 00	 call	 ?process_assert@@YGXPBD0H@Z ; process_assert
  00063	c7 45 b4 00 00
	00 00		 mov	 DWORD PTR tv84[ebp], 0
$LN9@get_local_:
  0006a	8b 0d 00 00 00
	00		 mov	 ecx, DWORD PTR ?__LINE__Var@?0??get_local_vec3d_ptr@@YGPAUVEC3D@@PAUENTITY@@W4VEC3D_TYPES@@@Z@4JA
  00070	83 c1 1f	 add	 ecx, 31			; 0000001fH
  00073	51		 push	 ecx
  00074	68 00 00 00 00	 push	 OFFSET ??_C@_0EN@OCFKOIJK@c?3?2users?2nhv90?2projects?2eech?2ap@
  00079	6b 55 0c 0c	 imul	 edx, DWORD PTR _type$[ebp], 12
  0007d	8b 82 00 00 00
	00		 mov	 eax, DWORD PTR ?vec3d_type_database@@3PAUVEC3D_TYPE_DATA@@A[edx]
  00083	50		 push	 eax
  00084	8b 4d 08	 mov	 ecx, DWORD PTR _en$[ebp]
  00087	2b 0d 00 00 00
	00		 sub	 ecx, DWORD PTR ?entities@@3PAUENTITY@@A ; entities
  0008d	c1 f9 04	 sar	 ecx, 4
  00090	51		 push	 ecx
  00091	6b 55 b4 0c	 imul	 edx, DWORD PTR tv84[ebp], 12
  00095	8b 82 00 00 00
	00		 mov	 eax, DWORD PTR ?entity_type_database@@3PAUENTITY_TYPE_DATA@@A[edx]
  0009b	50		 push	 eax
  0009c	8b 0d 00 00 00
	00		 mov	 ecx, DWORD PTR ?debug_fatal_invalid_vec3d_type_message@@3PBDB ; debug_fatal_invalid_vec3d_type_message
  000a2	51		 push	 ecx
  000a3	e8 00 00 00 00	 call	 ?debug_fatal@@YAXPBDZZ	; debug_fatal
  000a8	83 c4 18	 add	 esp, 24			; 00000018H
$LN2@get_local_:

; 200  : 
; 201  : 			break;
; 202  : 		}
; 203  : 	}
; 204  : 
; 205  : 	return (v);

  000ab	8b 45 f8	 mov	 eax, DWORD PTR _v$[ebp]

; 206  : }

  000ae	5f		 pop	 edi
  000af	5e		 pop	 esi
  000b0	5b		 pop	 ebx
  000b1	8b e5		 mov	 esp, ebp
  000b3	5d		 pop	 ebp
  000b4	c2 08 00	 ret	 8
?get_local_vec3d_ptr@@YGPAUVEC3D@@PAUENTITY@@W4VEC3D_TYPES@@@Z ENDP ; get_local_vec3d_ptr
_TEXT	ENDS
; Function compile flags: /Odtp /ZI
; File c:\users\nhv90\projects\eech\aphavoc\source\entity\special\camera\cm_vec3d.c
;	COMDAT ?get_local_vec3d@@YGXPAUENTITY@@W4VEC3D_TYPES@@PAUVEC3D@@@Z
_TEXT	SEGMENT
tv91 = -72						; size = 4
tv70 = -72						; size = 4
_raw$ = -4						; size = 4
_en$ = 8						; size = 4
_type$ = 12						; size = 4
_v$ = 16						; size = 4
?get_local_vec3d@@YGXPAUENTITY@@W4VEC3D_TYPES@@PAUVEC3D@@@Z PROC ; get_local_vec3d, COMDAT

; 126  : {

  00000	55		 push	 ebp
  00001	8b ec		 mov	 ebp, esp
  00003	83 ec 48	 sub	 esp, 72			; 00000048H
  00006	53		 push	 ebx
  00007	56		 push	 esi
  00008	57		 push	 edi

; 127  : 	camera
; 128  : 		*raw;
; 129  : 
; 130  : 	ASSERT (v);

  00009	83 7d 10 00	 cmp	 DWORD PTR _v$[ebp], 0
  0000d	75 18		 jne	 SHORT $LN4@get_local_
  0000f	a1 00 00 00 00	 mov	 eax, DWORD PTR ?__LINE__Var@?0??get_local_vec3d@@YGXPAUENTITY@@W4VEC3D_TYPES@@PAUVEC3D@@@Z@4JA
  00014	83 c0 04	 add	 eax, 4
  00017	50		 push	 eax
  00018	68 00 00 00 00	 push	 OFFSET ??_C@_0EN@OCFKOIJK@c?3?2users?2nhv90?2projects?2eech?2ap@
  0001d	68 00 00 00 00	 push	 OFFSET ??_C@_01MHEDDDHA@v@
  00022	e8 00 00 00 00	 call	 ?process_assert@@YGXPBD0H@Z ; process_assert
$LN4@get_local_:

; 131  : 
; 132  : 	raw = (camera *) get_local_entity_data (en);

  00027	8b 45 08	 mov	 eax, DWORD PTR _en$[ebp]
  0002a	8b 48 04	 mov	 ecx, DWORD PTR [eax+4]
  0002d	89 4d fc	 mov	 DWORD PTR _raw$[ebp], ecx

; 133  : 
; 134  : 	switch (type)

  00030	8b 45 0c	 mov	 eax, DWORD PTR _type$[ebp]
  00033	89 45 b8	 mov	 DWORD PTR tv70[ebp], eax
  00036	83 7d b8 06	 cmp	 DWORD PTR tv70[ebp], 6
  0003a	74 08		 je	 SHORT $LN5@get_local_
  0003c	83 7d b8 08	 cmp	 DWORD PTR tv70[ebp], 8
  00040	74 20		 je	 SHORT $LN6@get_local_
  00042	eb 36		 jmp	 SHORT $LN7@get_local_
$LN5@get_local_:

; 135  : 	{
; 136  : 		////////////////////////////////////////
; 137  : 		case VEC3D_TYPE_MOTION_VECTOR:
; 138  : 		////////////////////////////////////////
; 139  : 		{
; 140  : 			*v = raw->motion_vector;

  00044	8b 45 fc	 mov	 eax, DWORD PTR _raw$[ebp]
  00047	83 c0 0c	 add	 eax, 12			; 0000000cH
  0004a	8b 4d 10	 mov	 ecx, DWORD PTR _v$[ebp]
  0004d	8b 10		 mov	 edx, DWORD PTR [eax]
  0004f	89 11		 mov	 DWORD PTR [ecx], edx
  00051	8b 50 04	 mov	 edx, DWORD PTR [eax+4]
  00054	89 51 04	 mov	 DWORD PTR [ecx+4], edx
  00057	8b 40 08	 mov	 eax, DWORD PTR [eax+8]
  0005a	89 41 08	 mov	 DWORD PTR [ecx+8], eax

; 141  : 
; 142  : 			break;

  0005d	e9 8a 00 00 00	 jmp	 $LN1@get_local_
$LN6@get_local_:

; 143  : 		}
; 144  : 		////////////////////////////////////////
; 145  : 		case VEC3D_TYPE_POSITION:
; 146  : 		////////////////////////////////////////
; 147  : 		{
; 148  : 			*v = raw->position;

  00062	8b 45 fc	 mov	 eax, DWORD PTR _raw$[ebp]
  00065	8b 4d 10	 mov	 ecx, DWORD PTR _v$[ebp]
  00068	8b 10		 mov	 edx, DWORD PTR [eax]
  0006a	89 11		 mov	 DWORD PTR [ecx], edx
  0006c	8b 50 04	 mov	 edx, DWORD PTR [eax+4]
  0006f	89 51 04	 mov	 DWORD PTR [ecx+4], edx
  00072	8b 40 08	 mov	 eax, DWORD PTR [eax+8]
  00075	89 41 08	 mov	 DWORD PTR [ecx+8], eax

; 149  : 
; 150  : 			break;

  00078	eb 72		 jmp	 SHORT $LN1@get_local_
$LN7@get_local_:

; 151  : 		}
; 152  : 		////////////////////////////////////////
; 153  : 		default:
; 154  : 		////////////////////////////////////////
; 155  : 		{
; 156  : 			debug_fatal_invalid_vec3d_type (en, type);

  0007a	83 7d 08 00	 cmp	 DWORD PTR _en$[ebp], 0
  0007e	74 0a		 je	 SHORT $LN9@get_local_
  00080	8b 45 08	 mov	 eax, DWORD PTR _en$[ebp]
  00083	8b 08		 mov	 ecx, DWORD PTR [eax]
  00085	89 4d b8	 mov	 DWORD PTR tv91[ebp], ecx
  00088	eb 21		 jmp	 SHORT $LN10@get_local_
$LN9@get_local_:
  0008a	8b 15 00 00 00
	00		 mov	 edx, DWORD PTR ?__LINE__Var@?0??get_local_vec3d@@YGXPAUENTITY@@W4VEC3D_TYPES@@PAUVEC3D@@@Z@4JA
  00090	83 c2 1e	 add	 edx, 30			; 0000001eH
  00093	52		 push	 edx
  00094	68 00 00 00 00	 push	 OFFSET ??_C@_0EN@OCFKOIJK@c?3?2users?2nhv90?2projects?2eech?2ap@
  00099	a1 00 00 00 00	 mov	 eax, DWORD PTR ?null_entity_pointer_message@@3PBDB ; null_entity_pointer_message
  0009e	50		 push	 eax
  0009f	e8 00 00 00 00	 call	 ?process_assert@@YGXPBD0H@Z ; process_assert
  000a4	c7 45 b8 00 00
	00 00		 mov	 DWORD PTR tv91[ebp], 0
$LN10@get_local_:
  000ab	8b 0d 00 00 00
	00		 mov	 ecx, DWORD PTR ?__LINE__Var@?0??get_local_vec3d@@YGXPAUENTITY@@W4VEC3D_TYPES@@PAUVEC3D@@@Z@4JA
  000b1	83 c1 1e	 add	 ecx, 30			; 0000001eH
  000b4	51		 push	 ecx
  000b5	68 00 00 00 00	 push	 OFFSET ??_C@_0EN@OCFKOIJK@c?3?2users?2nhv90?2projects?2eech?2ap@
  000ba	6b 55 0c 0c	 imul	 edx, DWORD PTR _type$[ebp], 12
  000be	8b 82 00 00 00
	00		 mov	 eax, DWORD PTR ?vec3d_type_database@@3PAUVEC3D_TYPE_DATA@@A[edx]
  000c4	50		 push	 eax
  000c5	8b 4d 08	 mov	 ecx, DWORD PTR _en$[ebp]
  000c8	2b 0d 00 00 00
	00		 sub	 ecx, DWORD PTR ?entities@@3PAUENTITY@@A ; entities
  000ce	c1 f9 04	 sar	 ecx, 4
  000d1	51		 push	 ecx
  000d2	6b 55 b8 0c	 imul	 edx, DWORD PTR tv91[ebp], 12
  000d6	8b 82 00 00 00
	00		 mov	 eax, DWORD PTR ?entity_type_database@@3PAUENTITY_TYPE_DATA@@A[edx]
  000dc	50		 push	 eax
  000dd	8b 0d 00 00 00
	00		 mov	 ecx, DWORD PTR ?debug_fatal_invalid_vec3d_type_message@@3PBDB ; debug_fatal_invalid_vec3d_type_message
  000e3	51		 push	 ecx
  000e4	e8 00 00 00 00	 call	 ?debug_fatal@@YAXPBDZZ	; debug_fatal
  000e9	83 c4 18	 add	 esp, 24			; 00000018H
$LN1@get_local_:

; 157  : 
; 158  : 			break;
; 159  : 		}
; 160  : 	}
; 161  : }

  000ec	5f		 pop	 edi
  000ed	5e		 pop	 esi
  000ee	5b		 pop	 ebx
  000ef	8b e5		 mov	 esp, ebp
  000f1	5d		 pop	 ebp
  000f2	c2 0c 00	 ret	 12			; 0000000cH
?get_local_vec3d@@YGXPAUENTITY@@W4VEC3D_TYPES@@PAUVEC3D@@@Z ENDP ; get_local_vec3d
_TEXT	ENDS
; Function compile flags: /Odtp /ZI
; File c:\users\nhv90\projects\eech\aphavoc\source\entity\special\camera\cm_vec3d.c
;	COMDAT ?set_local_vec3d@@YGXPAUENTITY@@W4VEC3D_TYPES@@PAUVEC3D@@@Z
_TEXT	SEGMENT
tv89 = -72						; size = 4
tv70 = -72						; size = 4
_raw$ = -4						; size = 4
_en$ = 8						; size = 4
_type$ = 12						; size = 4
_v$ = 16						; size = 4
?set_local_vec3d@@YGXPAUENTITY@@W4VEC3D_TYPES@@PAUVEC3D@@@Z PROC ; set_local_vec3d, COMDAT

; 86   : {

  00000	55		 push	 ebp
  00001	8b ec		 mov	 ebp, esp
  00003	83 ec 48	 sub	 esp, 72			; 00000048H
  00006	53		 push	 ebx
  00007	56		 push	 esi
  00008	57		 push	 edi

; 87   : 	camera
; 88   : 		*raw;
; 89   : 
; 90   : 	ASSERT (v);

  00009	83 7d 10 00	 cmp	 DWORD PTR _v$[ebp], 0
  0000d	75 18		 jne	 SHORT $LN4@set_local_
  0000f	a1 00 00 00 00	 mov	 eax, DWORD PTR ?__LINE__Var@?0??set_local_vec3d@@YGXPAUENTITY@@W4VEC3D_TYPES@@PAUVEC3D@@@Z@4JA
  00014	83 c0 04	 add	 eax, 4
  00017	50		 push	 eax
  00018	68 00 00 00 00	 push	 OFFSET ??_C@_0EN@OCFKOIJK@c?3?2users?2nhv90?2projects?2eech?2ap@
  0001d	68 00 00 00 00	 push	 OFFSET ??_C@_01MHEDDDHA@v@
  00022	e8 00 00 00 00	 call	 ?process_assert@@YGXPBD0H@Z ; process_assert
$LN4@set_local_:

; 91   : 
; 92   : 	#if DEBUG_MODULE
; 93   : 
; 94   : 	debug_log_entity_args (ENTITY_DEBUG_LOCAL, ENTITY_DEBUG_VEC3D, en, type, v);
; 95   : 
; 96   : 	#endif
; 97   : 
; 98   : 	raw = (camera *) get_local_entity_data (en);

  00027	8b 45 08	 mov	 eax, DWORD PTR _en$[ebp]
  0002a	8b 48 04	 mov	 ecx, DWORD PTR [eax+4]
  0002d	89 4d fc	 mov	 DWORD PTR _raw$[ebp], ecx

; 99   : 
; 100  : 	switch (type)

  00030	8b 45 0c	 mov	 eax, DWORD PTR _type$[ebp]
  00033	89 45 b8	 mov	 DWORD PTR tv70[ebp], eax
  00036	83 7d b8 08	 cmp	 DWORD PTR tv70[ebp], 8
  0003a	74 02		 je	 SHORT $LN5@set_local_
  0003c	eb 18		 jmp	 SHORT $LN6@set_local_
$LN5@set_local_:

; 101  : 	{
; 102  : 		////////////////////////////////////////
; 103  : 		case VEC3D_TYPE_POSITION:
; 104  : 		////////////////////////////////////////
; 105  : 		{
; 106  : 			raw->position = *v;

  0003e	8b 45 10	 mov	 eax, DWORD PTR _v$[ebp]
  00041	8b 4d fc	 mov	 ecx, DWORD PTR _raw$[ebp]
  00044	8b 10		 mov	 edx, DWORD PTR [eax]
  00046	89 11		 mov	 DWORD PTR [ecx], edx
  00048	8b 50 04	 mov	 edx, DWORD PTR [eax+4]
  0004b	89 51 04	 mov	 DWORD PTR [ecx+4], edx
  0004e	8b 40 08	 mov	 eax, DWORD PTR [eax+8]
  00051	89 41 08	 mov	 DWORD PTR [ecx+8], eax

; 107  : 
; 108  : 			break;

  00054	eb 72		 jmp	 SHORT $LN1@set_local_
$LN6@set_local_:

; 109  : 		}
; 110  : 		////////////////////////////////////////
; 111  : 		default:
; 112  : 		////////////////////////////////////////
; 113  : 		{
; 114  : 			debug_fatal_invalid_vec3d_type (en, type);

  00056	83 7d 08 00	 cmp	 DWORD PTR _en$[ebp], 0
  0005a	74 0a		 je	 SHORT $LN8@set_local_
  0005c	8b 45 08	 mov	 eax, DWORD PTR _en$[ebp]
  0005f	8b 08		 mov	 ecx, DWORD PTR [eax]
  00061	89 4d b8	 mov	 DWORD PTR tv89[ebp], ecx
  00064	eb 21		 jmp	 SHORT $LN9@set_local_
$LN8@set_local_:
  00066	8b 15 00 00 00
	00		 mov	 edx, DWORD PTR ?__LINE__Var@?0??set_local_vec3d@@YGXPAUENTITY@@W4VEC3D_TYPES@@PAUVEC3D@@@Z@4JA
  0006c	83 c2 1c	 add	 edx, 28			; 0000001cH
  0006f	52		 push	 edx
  00070	68 00 00 00 00	 push	 OFFSET ??_C@_0EN@OCFKOIJK@c?3?2users?2nhv90?2projects?2eech?2ap@
  00075	a1 00 00 00 00	 mov	 eax, DWORD PTR ?null_entity_pointer_message@@3PBDB ; null_entity_pointer_message
  0007a	50		 push	 eax
  0007b	e8 00 00 00 00	 call	 ?process_assert@@YGXPBD0H@Z ; process_assert
  00080	c7 45 b8 00 00
	00 00		 mov	 DWORD PTR tv89[ebp], 0
$LN9@set_local_:
  00087	8b 0d 00 00 00
	00		 mov	 ecx, DWORD PTR ?__LINE__Var@?0??set_local_vec3d@@YGXPAUENTITY@@W4VEC3D_TYPES@@PAUVEC3D@@@Z@4JA
  0008d	83 c1 1c	 add	 ecx, 28			; 0000001cH
  00090	51		 push	 ecx
  00091	68 00 00 00 00	 push	 OFFSET ??_C@_0EN@OCFKOIJK@c?3?2users?2nhv90?2projects?2eech?2ap@
  00096	6b 55 0c 0c	 imul	 edx, DWORD PTR _type$[ebp], 12
  0009a	8b 82 00 00 00
	00		 mov	 eax, DWORD PTR ?vec3d_type_database@@3PAUVEC3D_TYPE_DATA@@A[edx]
  000a0	50		 push	 eax
  000a1	8b 4d 08	 mov	 ecx, DWORD PTR _en$[ebp]
  000a4	2b 0d 00 00 00
	00		 sub	 ecx, DWORD PTR ?entities@@3PAUENTITY@@A ; entities
  000aa	c1 f9 04	 sar	 ecx, 4
  000ad	51		 push	 ecx
  000ae	6b 55 b8 0c	 imul	 edx, DWORD PTR tv89[ebp], 12
  000b2	8b 82 00 00 00
	00		 mov	 eax, DWORD PTR ?entity_type_database@@3PAUENTITY_TYPE_DATA@@A[edx]
  000b8	50		 push	 eax
  000b9	8b 0d 00 00 00
	00		 mov	 ecx, DWORD PTR ?debug_fatal_invalid_vec3d_type_message@@3PBDB ; debug_fatal_invalid_vec3d_type_message
  000bf	51		 push	 ecx
  000c0	e8 00 00 00 00	 call	 ?debug_fatal@@YAXPBDZZ	; debug_fatal
  000c5	83 c4 18	 add	 esp, 24			; 00000018H
$LN1@set_local_:

; 115  : 
; 116  : 			break;
; 117  : 		}
; 118  : 	}
; 119  : }

  000c8	5f		 pop	 edi
  000c9	5e		 pop	 esi
  000ca	5b		 pop	 ebx
  000cb	8b e5		 mov	 esp, ebp
  000cd	5d		 pop	 ebp
  000ce	c2 0c 00	 ret	 12			; 0000000cH
?set_local_vec3d@@YGXPAUENTITY@@W4VEC3D_TYPES@@PAUVEC3D@@@Z ENDP ; set_local_vec3d
_TEXT	ENDS
; Function compile flags: /Odtp /ZI
; File c:\users\nhv90\projects\eech\aphavoc\source\entity\special\camera\cm_vec3d.c
;	COMDAT ?overload_camera_vec3d_functions@@YGXXZ
_TEXT	SEGMENT
?overload_camera_vec3d_functions@@YGXXZ PROC		; overload_camera_vec3d_functions, COMDAT

; 213  : {

  00000	55		 push	 ebp
  00001	8b ec		 mov	 ebp, esp
  00003	83 ec 40	 sub	 esp, 64			; 00000040H
  00006	53		 push	 ebx
  00007	56		 push	 esi
  00008	57		 push	 edi

; 214  : 	fn_set_local_entity_raw_vec3d	[ENTITY_TYPE_CAMERA][VEC3D_TYPE_POSITION]			= set_local_vec3d;

  00009	b8 60 00 00 00	 mov	 eax, 96			; 00000060H
  0000e	6b c8 03	 imul	 ecx, eax, 3
  00011	ba 04 00 00 00	 mov	 edx, 4
  00016	c1 e2 03	 shl	 edx, 3
  00019	c7 84 11 00 00
	00 00 00 00 00
	00		 mov	 DWORD PTR ?fn_set_local_entity_raw_vec3d@@3PAY0BI@P6GXPAUENTITY@@W4VEC3D_TYPES@@PAUVEC3D@@@ZA[ecx+edx], OFFSET ?set_local_vec3d@@YGXPAUENTITY@@W4VEC3D_TYPES@@PAUVEC3D@@@Z ; set_local_vec3d

; 215  : 	fn_set_local_entity_vec3d		[ENTITY_TYPE_CAMERA][VEC3D_TYPE_POSITION]			= set_local_vec3d;

  00024	b8 60 00 00 00	 mov	 eax, 96			; 00000060H
  00029	6b c8 03	 imul	 ecx, eax, 3
  0002c	ba 04 00 00 00	 mov	 edx, 4
  00031	c1 e2 03	 shl	 edx, 3
  00034	c7 84 11 00 00
	00 00 00 00 00
	00		 mov	 DWORD PTR ?fn_set_local_entity_vec3d@@3PAY0BI@P6GXPAUENTITY@@W4VEC3D_TYPES@@PAUVEC3D@@@ZA[ecx+edx], OFFSET ?set_local_vec3d@@YGXPAUENTITY@@W4VEC3D_TYPES@@PAUVEC3D@@@Z ; set_local_vec3d

; 216  : 	fn_get_local_entity_vec3d		[ENTITY_TYPE_CAMERA][VEC3D_TYPE_POSITION]			= get_local_vec3d;

  0003f	b8 60 00 00 00	 mov	 eax, 96			; 00000060H
  00044	6b c8 03	 imul	 ecx, eax, 3
  00047	ba 04 00 00 00	 mov	 edx, 4
  0004c	c1 e2 03	 shl	 edx, 3
  0004f	c7 84 11 00 00
	00 00 00 00 00
	00		 mov	 DWORD PTR ?fn_get_local_entity_vec3d@@3PAY0BI@P6GXPAUENTITY@@W4VEC3D_TYPES@@PAUVEC3D@@@ZA[ecx+edx], OFFSET ?get_local_vec3d@@YGXPAUENTITY@@W4VEC3D_TYPES@@PAUVEC3D@@@Z ; get_local_vec3d

; 217  : 	fn_get_local_entity_vec3d_ptr	[ENTITY_TYPE_CAMERA][VEC3D_TYPE_POSITION]			= get_local_vec3d_ptr;

  0005a	b8 60 00 00 00	 mov	 eax, 96			; 00000060H
  0005f	6b c8 03	 imul	 ecx, eax, 3
  00062	ba 04 00 00 00	 mov	 edx, 4
  00067	c1 e2 03	 shl	 edx, 3
  0006a	c7 84 11 00 00
	00 00 00 00 00
	00		 mov	 DWORD PTR ?fn_get_local_entity_vec3d_ptr@@3PAY0BI@P6GPAUVEC3D@@PAUENTITY@@W4VEC3D_TYPES@@@ZA[ecx+edx], OFFSET ?get_local_vec3d_ptr@@YGPAUVEC3D@@PAUENTITY@@W4VEC3D_TYPES@@@Z ; get_local_vec3d_ptr

; 218  : 
; 219  : 	fn_get_local_entity_vec3d		[ENTITY_TYPE_CAMERA][VEC3D_TYPE_MOTION_VECTOR]	= get_local_vec3d;

  00075	b8 60 00 00 00	 mov	 eax, 96			; 00000060H
  0007a	6b c8 03	 imul	 ecx, eax, 3
  0007d	ba 04 00 00 00	 mov	 edx, 4
  00082	6b c2 06	 imul	 eax, edx, 6
  00085	c7 84 01 00 00
	00 00 00 00 00
	00		 mov	 DWORD PTR ?fn_get_local_entity_vec3d@@3PAY0BI@P6GXPAUENTITY@@W4VEC3D_TYPES@@PAUVEC3D@@@ZA[ecx+eax], OFFSET ?get_local_vec3d@@YGXPAUENTITY@@W4VEC3D_TYPES@@PAUVEC3D@@@Z ; get_local_vec3d

; 220  : 	fn_get_local_entity_vec3d_ptr	[ENTITY_TYPE_CAMERA][VEC3D_TYPE_MOTION_VECTOR]	= get_local_vec3d_ptr;

  00090	b8 60 00 00 00	 mov	 eax, 96			; 00000060H
  00095	6b c8 03	 imul	 ecx, eax, 3
  00098	ba 04 00 00 00	 mov	 edx, 4
  0009d	6b c2 06	 imul	 eax, edx, 6
  000a0	c7 84 01 00 00
	00 00 00 00 00
	00		 mov	 DWORD PTR ?fn_get_local_entity_vec3d_ptr@@3PAY0BI@P6GPAUVEC3D@@PAUENTITY@@W4VEC3D_TYPES@@@ZA[ecx+eax], OFFSET ?get_local_vec3d_ptr@@YGPAUVEC3D@@PAUENTITY@@W4VEC3D_TYPES@@@Z ; get_local_vec3d_ptr

; 221  : }

  000ab	5f		 pop	 edi
  000ac	5e		 pop	 esi
  000ad	5b		 pop	 ebx
  000ae	8b e5		 mov	 esp, ebp
  000b0	5d		 pop	 ebp
  000b1	c3		 ret	 0
?overload_camera_vec3d_functions@@YGXXZ ENDP		; overload_camera_vec3d_functions
_TEXT	ENDS
END
