; Listing generated by Microsoft (R) Optimizing Compiler Version 19.16.27045.0 

	TITLE	C:\Users\nhv90\Projects\eech\aphavoc\source\entity\special\camera\cm_view.c
	.686P
	.XMM
	include listing.inc
	.model	flat

INCLUDELIB MSVCRTD
INCLUDELIB OLDNAMES

PUBLIC	?set_raw_external_view_entity@@YGXPAUENTITY@@@Z	; set_raw_external_view_entity
PUBLIC	?set_external_view_entity@@YGXPAUENTITY@@@Z	; set_external_view_entity
PUBLIC	?get_external_view_entity@@YGPAUENTITY@@XZ	; get_external_view_entity
PUBLIC	?__LINE__Var@?0??set_raw_external_view_entity@@YGXPAUENTITY@@@Z@4JA ; `set_raw_external_view_entity'::`1'::__LINE__Var
PUBLIC	??_C@_0EM@OCAHHNME@c?3?2users?2nhv90?2projects?2eech?2ap@ ; `string'
PUBLIC	??_C@_02LFNMGJAP@en@				; `string'
PUBLIC	??_C@_0BF@ODENDPAE@get_camera_entity?5?$CI?$CJ@	; `string'
PUBLIC	??_C@_0BJ@HJPODAMB@Invalid?5camera?5mode?5?$DN?5?$CFd@ ; `string'
PUBLIC	?__LINE__Var@?0??set_external_view_entity@@YGXPAUENTITY@@@Z@4JA ; `set_external_view_entity'::`1'::__LINE__Var
PUBLIC	?__LINE__Var@?0??get_external_view_entity@@YGPAUENTITY@@XZ@4JA ; `get_external_view_entity'::`1'::__LINE__Var
EXTRN	?process_assert@@YGXPBD0H@Z:PROC		; process_assert
EXTRN	?debug_fatal@@YAXPBDZZ:PROC			; debug_fatal
EXTRN	?reset_building_camera@@YGXPAUCAMERA@@@Z:PROC	; reset_building_camera
EXTRN	?reset_chase_camera@@YGXPAUCAMERA@@@Z:PROC	; reset_chase_camera
EXTRN	?reset_cinematic_camera@@YGXPAUCAMERA@@@Z:PROC	; reset_cinematic_camera
EXTRN	?reset_cinematic_camera_for_new_view_entity@@YGXPAUCAMERA@@@Z:PROC ; reset_cinematic_camera_for_new_view_entity
EXTRN	?debriefing_camera_valid@@YGHPAUCAMERA@@@Z:PROC	; debriefing_camera_valid
EXTRN	?reset_debriefing_camera@@YGXPAUCAMERA@@@Z:PROC	; reset_debriefing_camera
EXTRN	?reset_drop_camera@@YGXPAUCAMERA@@@Z:PROC	; reset_drop_camera
EXTRN	?reset_eject_camera@@YGXPAUCAMERA@@@Z:PROC	; reset_eject_camera
EXTRN	?reset_end_of_mission_camera@@YGXPAUCAMERA@@@Z:PROC ; reset_end_of_mission_camera
EXTRN	?reset_fly_by_camera@@YGXPAUCAMERA@@@Z:PROC	; reset_fly_by_camera
EXTRN	?set_camera_mode@@YGXPAUCAMERA@@W4CAMERA_MODES@@H@Z:PROC ; set_camera_mode
EXTRN	?recognition_guide_top_view_camera_valid@@YGHPAUCAMERA@@@Z:PROC ; recognition_guide_top_view_camera_valid
EXTRN	?recognition_guide_side_view_camera_valid@@YGHPAUCAMERA@@@Z:PROC ; recognition_guide_side_view_camera_valid
EXTRN	?recognition_guide_front_view_camera_valid@@YGHPAUCAMERA@@@Z:PROC ; recognition_guide_front_view_camera_valid
EXTRN	?recognition_guide_3d_view_camera_valid@@YGHPAUCAMERA@@@Z:PROC ; recognition_guide_3d_view_camera_valid
EXTRN	?reset_recognition_guide_top_view_camera@@YGXPAUCAMERA@@@Z:PROC ; reset_recognition_guide_top_view_camera
EXTRN	?reset_recognition_guide_side_view_camera@@YGXPAUCAMERA@@@Z:PROC ; reset_recognition_guide_side_view_camera
EXTRN	?reset_recognition_guide_front_view_camera@@YGXPAUCAMERA@@@Z:PROC ; reset_recognition_guide_front_view_camera
EXTRN	?reset_recognition_guide_3d_view_camera@@YGXPAUCAMERA@@@Z:PROC ; reset_recognition_guide_3d_view_camera
EXTRN	?reset_static_camera@@YGXPAUCAMERA@@@Z:PROC	; reset_static_camera
EXTRN	?reset_satellite_camera@@YGXPAUCAMERA@@@Z:PROC	; reset_satellite_camera
EXTRN	?set_view_menu_to_match_external_view_entity@@YGXXZ:PROC ; set_view_menu_to_match_external_view_entity
EXTRN	?null_entity_pointer_message@@3PBDB:DWORD	; null_entity_pointer_message
EXTRN	?overload_invalid_ptr_type_message@@3PBDB:DWORD	; overload_invalid_ptr_type_message
EXTRN	?fn_get_local_entity_ptr_value@@3PAY0BE@P6GPAXPAUENTITY@@W4PTR_TYPES@@@ZA:BYTE ; fn_get_local_entity_ptr_value
EXTRN	?camera_entity@@3PAUENTITY@@A:DWORD		; camera_entity
;	COMDAT ?__LINE__Var@?0??get_external_view_entity@@YGPAUENTITY@@XZ@4JA
_DATA	SEGMENT
?__LINE__Var@?0??get_external_view_entity@@YGPAUENTITY@@XZ@4JA DD 0136H ; `get_external_view_entity'::`1'::__LINE__Var
_DATA	ENDS
;	COMDAT ?__LINE__Var@?0??set_external_view_entity@@YGXPAUENTITY@@@Z@4JA
_DATA	SEGMENT
?__LINE__Var@?0??set_external_view_entity@@YGXPAUENTITY@@@Z@4JA DD 0129H ; `set_external_view_entity'::`1'::__LINE__Var
_DATA	ENDS
;	COMDAT ??_C@_0BJ@HJPODAMB@Invalid?5camera?5mode?5?$DN?5?$CFd@
CONST	SEGMENT
??_C@_0BJ@HJPODAMB@Invalid?5camera?5mode?5?$DN?5?$CFd@ DB 'Invalid camera'
	DB	' mode = %d', 00H				; `string'
CONST	ENDS
;	COMDAT ??_C@_0BF@ODENDPAE@get_camera_entity?5?$CI?$CJ@
CONST	SEGMENT
??_C@_0BF@ODENDPAE@get_camera_entity?5?$CI?$CJ@ DB 'get_camera_entity ()', 00H ; `string'
CONST	ENDS
;	COMDAT ??_C@_02LFNMGJAP@en@
CONST	SEGMENT
??_C@_02LFNMGJAP@en@ DB 'en', 00H			; `string'
CONST	ENDS
;	COMDAT ??_C@_0EM@OCAHHNME@c?3?2users?2nhv90?2projects?2eech?2ap@
CONST	SEGMENT
??_C@_0EM@OCAHHNME@c?3?2users?2nhv90?2projects?2eech?2ap@ DB 'c:\users\nh'
	DB	'v90\projects\eech\aphavoc\source\entity\special\camera\cm_vie'
	DB	'w.c', 00H					; `string'
CONST	ENDS
;	COMDAT ?__LINE__Var@?0??set_raw_external_view_entity@@YGXPAUENTITY@@@Z@4JA
_DATA	SEGMENT
?__LINE__Var@?0??set_raw_external_view_entity@@YGXPAUENTITY@@@Z@4JA DD 050H ; `set_raw_external_view_entity'::`1'::__LINE__Var
_DATA	ENDS
; Function compile flags: /Odtp /ZI
; File c:\users\nhv90\projects\eech\aphavoc\source\entity\special\camera\cm_view.c
;	COMDAT ?get_external_view_entity@@YGPAUENTITY@@XZ
_TEXT	SEGMENT
tv79 = -76						; size = 4
tv71 = -72						; size = 4
_en$ = -4						; size = 4
?get_external_view_entity@@YGPAUENTITY@@XZ PROC		; get_external_view_entity, COMDAT

; 310  : {

  00000	55		 push	 ebp
  00001	8b ec		 mov	 ebp, esp
  00003	83 ec 4c	 sub	 esp, 76			; 0000004cH
  00006	53		 push	 ebx
  00007	56		 push	 esi
  00008	57		 push	 edi

; 311  : 	entity
; 312  : 		*en;
; 313  : 
; 314  : 	if (get_camera_entity ())

  00009	83 3d 00 00 00
	00 00		 cmp	 DWORD PTR ?camera_entity@@3PAUENTITY@@A, 0 ; camera_entity
  00010	0f 84 87 00 00
	00		 je	 $LN2@get_extern

; 315  : 	{
; 316  : 		en = (entity *) get_local_entity_ptr_value (get_camera_entity (), PTR_TYPE_EXTERNAL_VIEW_ENTITY);

  00016	83 3d 00 00 00
	00 00		 cmp	 DWORD PTR ?camera_entity@@3PAUENTITY@@A, 0 ; camera_entity
  0001d	74 0c		 je	 SHORT $LN5@get_extern
  0001f	a1 00 00 00 00	 mov	 eax, DWORD PTR ?camera_entity@@3PAUENTITY@@A ; camera_entity
  00024	8b 08		 mov	 ecx, DWORD PTR [eax]
  00026	89 4d b8	 mov	 DWORD PTR tv71[ebp], ecx
  00029	eb 21		 jmp	 SHORT $LN6@get_extern
$LN5@get_extern:
  0002b	8b 15 00 00 00
	00		 mov	 edx, DWORD PTR ?__LINE__Var@?0??get_external_view_entity@@YGPAUENTITY@@XZ@4JA
  00031	83 c2 06	 add	 edx, 6
  00034	52		 push	 edx
  00035	68 00 00 00 00	 push	 OFFSET ??_C@_0EM@OCAHHNME@c?3?2users?2nhv90?2projects?2eech?2ap@
  0003a	a1 00 00 00 00	 mov	 eax, DWORD PTR ?null_entity_pointer_message@@3PBDB ; null_entity_pointer_message
  0003f	50		 push	 eax
  00040	e8 00 00 00 00	 call	 ?process_assert@@YGXPBD0H@Z ; process_assert
  00045	c7 45 b8 00 00
	00 00		 mov	 DWORD PTR tv71[ebp], 0
$LN6@get_extern:
  0004c	b9 01 00 00 00	 mov	 ecx, 1
  00051	85 c9		 test	 ecx, ecx
  00053	74 09		 je	 SHORT $LN7@get_extern
  00055	c7 45 b4 00 00
	00 00		 mov	 DWORD PTR tv79[ebp], 0
  0005c	eb 21		 jmp	 SHORT $LN8@get_extern
$LN7@get_extern:
  0005e	8b 15 00 00 00
	00		 mov	 edx, DWORD PTR ?__LINE__Var@?0??get_external_view_entity@@YGPAUENTITY@@XZ@4JA
  00064	83 c2 06	 add	 edx, 6
  00067	52		 push	 edx
  00068	68 00 00 00 00	 push	 OFFSET ??_C@_0EM@OCAHHNME@c?3?2users?2nhv90?2projects?2eech?2ap@
  0006d	a1 00 00 00 00	 mov	 eax, DWORD PTR ?overload_invalid_ptr_type_message@@3PBDB ; overload_invalid_ptr_type_message
  00072	50		 push	 eax
  00073	e8 00 00 00 00	 call	 ?process_assert@@YGXPBD0H@Z ; process_assert
  00078	c7 45 b4 00 00
	00 00		 mov	 DWORD PTR tv79[ebp], 0
$LN8@get_extern:
  0007f	6a 00		 push	 0
  00081	8b 0d 00 00 00
	00		 mov	 ecx, DWORD PTR ?camera_entity@@3PAUENTITY@@A ; camera_entity
  00087	51		 push	 ecx
  00088	6b 55 b8 50	 imul	 edx, DWORD PTR tv71[ebp], 80
  0008c	8b 45 b4	 mov	 eax, DWORD PTR tv79[ebp]
  0008f	8b 8c 82 00 00
	00 00		 mov	 ecx, DWORD PTR ?fn_get_local_entity_ptr_value@@3PAY0BE@P6GPAXPAUENTITY@@W4PTR_TYPES@@@ZA[edx+eax*4]
  00096	ff d1		 call	 ecx
  00098	89 45 fc	 mov	 DWORD PTR _en$[ebp], eax

; 317  : 	}
; 318  : 	else

  0009b	eb 07		 jmp	 SHORT $LN3@get_extern
$LN2@get_extern:

; 319  : 	{
; 320  : 		en = NULL;

  0009d	c7 45 fc 00 00
	00 00		 mov	 DWORD PTR _en$[ebp], 0
$LN3@get_extern:

; 321  : 	}
; 322  : 
; 323  : 	return (en);

  000a4	8b 45 fc	 mov	 eax, DWORD PTR _en$[ebp]

; 324  : }

  000a7	5f		 pop	 edi
  000a8	5e		 pop	 esi
  000a9	5b		 pop	 ebx
  000aa	8b e5		 mov	 esp, ebp
  000ac	5d		 pop	 ebp
  000ad	c3		 ret	 0
?get_external_view_entity@@YGPAUENTITY@@XZ ENDP		; get_external_view_entity
_TEXT	ENDS
; Function compile flags: /Odtp /ZI
; File c:\users\nhv90\projects\eech\aphavoc\source\entity\special\camera\cm_view.c
;	COMDAT ?set_external_view_entity@@YGXPAUENTITY@@@Z
_TEXT	SEGMENT
_en$ = 8						; size = 4
?set_external_view_entity@@YGXPAUENTITY@@@Z PROC	; set_external_view_entity, COMDAT

; 297  : {

  00000	55		 push	 ebp
  00001	8b ec		 mov	 ebp, esp
  00003	83 ec 40	 sub	 esp, 64			; 00000040H
  00006	53		 push	 ebx
  00007	56		 push	 esi
  00008	57		 push	 edi

; 298  : 	ASSERT (en);

  00009	83 7d 08 00	 cmp	 DWORD PTR _en$[ebp], 0
  0000d	75 18		 jne	 SHORT $LN2@set_extern
  0000f	a1 00 00 00 00	 mov	 eax, DWORD PTR ?__LINE__Var@?0??set_external_view_entity@@YGXPAUENTITY@@@Z@4JA
  00014	83 c0 01	 add	 eax, 1
  00017	50		 push	 eax
  00018	68 00 00 00 00	 push	 OFFSET ??_C@_0EM@OCAHHNME@c?3?2users?2nhv90?2projects?2eech?2ap@
  0001d	68 00 00 00 00	 push	 OFFSET ??_C@_02LFNMGJAP@en@
  00022	e8 00 00 00 00	 call	 ?process_assert@@YGXPBD0H@Z ; process_assert
$LN2@set_extern:

; 299  : 
; 300  : 	set_raw_external_view_entity (en);

  00027	8b 45 08	 mov	 eax, DWORD PTR _en$[ebp]
  0002a	50		 push	 eax
  0002b	e8 00 00 00 00	 call	 ?set_raw_external_view_entity@@YGXPAUENTITY@@@Z ; set_raw_external_view_entity

; 301  : 
; 302  : 	set_view_menu_to_match_external_view_entity ();

  00030	e8 00 00 00 00	 call	 ?set_view_menu_to_match_external_view_entity@@YGXXZ ; set_view_menu_to_match_external_view_entity

; 303  : }

  00035	5f		 pop	 edi
  00036	5e		 pop	 esi
  00037	5b		 pop	 ebx
  00038	8b e5		 mov	 esp, ebp
  0003a	5d		 pop	 ebp
  0003b	c2 04 00	 ret	 4
?set_external_view_entity@@YGXPAUENTITY@@@Z ENDP	; set_external_view_entity
_TEXT	ENDS
; Function compile flags: /Odtp /ZI
; File c:\users\nhv90\projects\eech\aphavoc\source\entity\special\camera\cm_view.c
;	COMDAT ?set_raw_external_view_entity@@YGXPAUENTITY@@@Z
_TEXT	SEGMENT
tv81 = -76						; size = 4
tv77 = -76						; size = 4
_raw$ = -8						; size = 4
_new_view_entity$ = -4					; size = 4
_en$ = 8						; size = 4
?set_raw_external_view_entity@@YGXPAUENTITY@@@Z PROC	; set_raw_external_view_entity, COMDAT

; 80   : {

  00000	55		 push	 ebp
  00001	8b ec		 mov	 ebp, esp
  00003	83 ec 4c	 sub	 esp, 76			; 0000004cH
  00006	53		 push	 ebx
  00007	56		 push	 esi
  00008	57		 push	 edi

; 81   : 	int
; 82   : 		new_view_entity;
; 83   : 
; 84   : 	camera
; 85   : 		*raw;
; 86   : 
; 87   : 	ASSERT (en);

  00009	83 7d 08 00	 cmp	 DWORD PTR _en$[ebp], 0
  0000d	75 18		 jne	 SHORT $LN4@set_raw_ex
  0000f	a1 00 00 00 00	 mov	 eax, DWORD PTR ?__LINE__Var@?0??set_raw_external_view_entity@@YGXPAUENTITY@@@Z@4JA
  00014	83 c0 07	 add	 eax, 7
  00017	50		 push	 eax
  00018	68 00 00 00 00	 push	 OFFSET ??_C@_0EM@OCAHHNME@c?3?2users?2nhv90?2projects?2eech?2ap@
  0001d	68 00 00 00 00	 push	 OFFSET ??_C@_02LFNMGJAP@en@
  00022	e8 00 00 00 00	 call	 ?process_assert@@YGXPBD0H@Z ; process_assert
$LN4@set_raw_ex:

; 88   : 
; 89   : 	ASSERT (get_camera_entity ());

  00027	83 3d 00 00 00
	00 00		 cmp	 DWORD PTR ?camera_entity@@3PAUENTITY@@A, 0 ; camera_entity
  0002e	75 18		 jne	 SHORT $LN5@set_raw_ex
  00030	a1 00 00 00 00	 mov	 eax, DWORD PTR ?__LINE__Var@?0??set_raw_external_view_entity@@YGXPAUENTITY@@@Z@4JA
  00035	83 c0 09	 add	 eax, 9
  00038	50		 push	 eax
  00039	68 00 00 00 00	 push	 OFFSET ??_C@_0EM@OCAHHNME@c?3?2users?2nhv90?2projects?2eech?2ap@
  0003e	68 00 00 00 00	 push	 OFFSET ??_C@_0BF@ODENDPAE@get_camera_entity?5?$CI?$CJ@
  00043	e8 00 00 00 00	 call	 ?process_assert@@YGXPBD0H@Z ; process_assert
$LN5@set_raw_ex:

; 90   : 
; 91   : 	raw = (camera *) get_local_entity_data (get_camera_entity ());

  00048	a1 00 00 00 00	 mov	 eax, DWORD PTR ?camera_entity@@3PAUENTITY@@A ; camera_entity
  0004d	8b 48 04	 mov	 ecx, DWORD PTR [eax+4]
  00050	89 4d f8	 mov	 DWORD PTR _raw$[ebp], ecx

; 92   : 
; 93   : 	new_view_entity = raw->external_view_entity != en;

  00053	8b 45 f8	 mov	 eax, DWORD PTR _raw$[ebp]
  00056	8b 88 24 01 00
	00		 mov	 ecx, DWORD PTR [eax+292]
  0005c	3b 4d 08	 cmp	 ecx, DWORD PTR _en$[ebp]
  0005f	74 09		 je	 SHORT $LN36@set_raw_ex
  00061	c7 45 b4 01 00
	00 00		 mov	 DWORD PTR tv77[ebp], 1
  00068	eb 07		 jmp	 SHORT $LN37@set_raw_ex
$LN36@set_raw_ex:
  0006a	c7 45 b4 00 00
	00 00		 mov	 DWORD PTR tv77[ebp], 0
$LN37@set_raw_ex:
  00071	8b 55 b4	 mov	 edx, DWORD PTR tv77[ebp]
  00074	89 55 fc	 mov	 DWORD PTR _new_view_entity$[ebp], edx

; 94   : 
; 95   : 	raw->external_view_entity = en;

  00077	8b 45 f8	 mov	 eax, DWORD PTR _raw$[ebp]
  0007a	8b 4d 08	 mov	 ecx, DWORD PTR _en$[ebp]
  0007d	89 88 24 01 00
	00		 mov	 DWORD PTR [eax+292], ecx

; 96   : 
; 97   : 	if (new_view_entity)

  00083	83 7d fc 00	 cmp	 DWORD PTR _new_view_entity$[ebp], 0
  00087	0f 84 b4 01 00
	00		 je	 $LN1@set_raw_ex

; 98   : 	{
; 99   : //		debug_log ("Setting view entity (type = %s, index = %d%)", get_local_entity_type_name (en), get_local_entity_index (en));
; 100  : 
; 101  : 		switch (raw->camera_mode)

  0008d	8b 45 f8	 mov	 eax, DWORD PTR _raw$[ebp]
  00090	8b 48 3c	 mov	 ecx, DWORD PTR [eax+60]
  00093	89 4d b4	 mov	 DWORD PTR tv81[ebp], ecx
  00096	83 7d b4 10	 cmp	 DWORD PTR tv81[ebp], 16	; 00000010H
  0009a	0f 87 84 01 00
	00		 ja	 $LN34@set_raw_ex
  000a0	8b 55 b4	 mov	 edx, DWORD PTR tv81[ebp]
  000a3	ff 24 95 00 00
	00 00		 jmp	 DWORD PTR $LN38@set_raw_ex[edx*4]
$LN7@set_raw_ex:

; 102  : 		{
; 103  : 			////////////////////////////////////////
; 104  : 			case CAMERA_MODE_CHASE:
; 105  : 			////////////////////////////////////////
; 106  : 			{
; 107  : 				reset_chase_camera (raw);

  000aa	8b 45 f8	 mov	 eax, DWORD PTR _raw$[ebp]
  000ad	50		 push	 eax
  000ae	e8 00 00 00 00	 call	 ?reset_chase_camera@@YGXPAUCAMERA@@@Z ; reset_chase_camera

; 108  : 
; 109  : 				break;

  000b3	e9 80 01 00 00	 jmp	 $LN2@set_raw_ex
$LN8@set_raw_ex:

; 110  : 			}
; 111  : 			////////////////////////////////////////
; 112  : 			case CAMERA_MODE_END_OF_MISSION:
; 113  : 			////////////////////////////////////////
; 114  : 			{
; 115  : 				reset_end_of_mission_camera (raw);

  000b8	8b 45 f8	 mov	 eax, DWORD PTR _raw$[ebp]
  000bb	50		 push	 eax
  000bc	e8 00 00 00 00	 call	 ?reset_end_of_mission_camera@@YGXPAUCAMERA@@@Z ; reset_end_of_mission_camera

; 116  : 
; 117  : 				break;

  000c1	e9 72 01 00 00	 jmp	 $LN2@set_raw_ex
$LN9@set_raw_ex:

; 118  : 			}
; 119  : 			////////////////////////////////////////
; 120  : 			case CAMERA_MODE_DROP:
; 121  : 			////////////////////////////////////////
; 122  : 			{
; 123  : 				reset_drop_camera (raw);

  000c6	8b 45 f8	 mov	 eax, DWORD PTR _raw$[ebp]
  000c9	50		 push	 eax
  000ca	e8 00 00 00 00	 call	 ?reset_drop_camera@@YGXPAUCAMERA@@@Z ; reset_drop_camera

; 124  : 
; 125  : 				break;

  000cf	e9 64 01 00 00	 jmp	 $LN2@set_raw_ex
$LN10@set_raw_ex:

; 126  : 			}
; 127  : 			////////////////////////////////////////
; 128  : 			case CAMERA_MODE_STATIC:
; 129  : 			////////////////////////////////////////
; 130  : 			{
; 131  : 				reset_static_camera (raw);

  000d4	8b 45 f8	 mov	 eax, DWORD PTR _raw$[ebp]
  000d7	50		 push	 eax
  000d8	e8 00 00 00 00	 call	 ?reset_static_camera@@YGXPAUCAMERA@@@Z ; reset_static_camera

; 132  : 
; 133  : 				break;

  000dd	e9 56 01 00 00	 jmp	 $LN2@set_raw_ex
$LN11@set_raw_ex:

; 134  : 			}
; 135  : 			
; 136  : 			// Jabberwock 031009 Satellite view
; 137  : 			////////////////////////////////////////
; 138  : 			case CAMERA_MODE_SATELLITE:
; 139  : 			////////////////////////////////////////
; 140  : 			{
; 141  : 				reset_satellite_camera (raw);

  000e2	8b 45 f8	 mov	 eax, DWORD PTR _raw$[ebp]
  000e5	50		 push	 eax
  000e6	e8 00 00 00 00	 call	 ?reset_satellite_camera@@YGXPAUCAMERA@@@Z ; reset_satellite_camera

; 142  : 
; 143  : 				break;

  000eb	e9 48 01 00 00	 jmp	 $LN2@set_raw_ex
$LN12@set_raw_ex:

; 144  : 			}
; 145  : 			// Jabberwock 031009 ends			
; 146  : 			
; 147  : 			////////////////////////////////////////
; 148  : 			case CAMERA_MODE_EJECT:
; 149  : 			////////////////////////////////////////
; 150  : 			{
; 151  : 				reset_eject_camera (raw);

  000f0	8b 45 f8	 mov	 eax, DWORD PTR _raw$[ebp]
  000f3	50		 push	 eax
  000f4	e8 00 00 00 00	 call	 ?reset_eject_camera@@YGXPAUCAMERA@@@Z ; reset_eject_camera

; 152  : 
; 153  : 				break;

  000f9	e9 3a 01 00 00	 jmp	 $LN2@set_raw_ex
$LN13@set_raw_ex:

; 154  : 			}
; 155  : 			////////////////////////////////////////
; 156  : 			case CAMERA_MODE_FLY_BY:
; 157  : 			////////////////////////////////////////
; 158  : 			{
; 159  : 				reset_fly_by_camera (raw);

  000fe	8b 45 f8	 mov	 eax, DWORD PTR _raw$[ebp]
  00101	50		 push	 eax
  00102	e8 00 00 00 00	 call	 ?reset_fly_by_camera@@YGXPAUCAMERA@@@Z ; reset_fly_by_camera

; 160  : 
; 161  : 				break;

  00107	e9 2c 01 00 00	 jmp	 $LN2@set_raw_ex
$LN14@set_raw_ex:

; 162  : 			}
; 163  : 			////////////////////////////////////////
; 164  : 			case CAMERA_MODE_CINEMATIC:
; 165  : 			////////////////////////////////////////
; 166  : 			{
; 167  : 				reset_cinematic_camera (raw);

  0010c	8b 45 f8	 mov	 eax, DWORD PTR _raw$[ebp]
  0010f	50		 push	 eax
  00110	e8 00 00 00 00	 call	 ?reset_cinematic_camera@@YGXPAUCAMERA@@@Z ; reset_cinematic_camera

; 168  : 
; 169  : 				break;

  00115	e9 1e 01 00 00	 jmp	 $LN2@set_raw_ex
$LN15@set_raw_ex:

; 170  : 			}
; 171  : 			////////////////////////////////////////
; 172  : 			case CAMERA_MODE_BUILDING:
; 173  : 			////////////////////////////////////////
; 174  : 			{
; 175  : 				reset_building_camera (raw);

  0011a	8b 45 f8	 mov	 eax, DWORD PTR _raw$[ebp]
  0011d	50		 push	 eax
  0011e	e8 00 00 00 00	 call	 ?reset_building_camera@@YGXPAUCAMERA@@@Z ; reset_building_camera

; 176  : 
; 177  : 				break;

  00123	e9 10 01 00 00	 jmp	 $LN2@set_raw_ex
$LN16@set_raw_ex:

; 178  : 			}
; 179  : 			////////////////////////////////////////
; 180  : 			case CAMERA_MODE_WEAPON:
; 181  : 			////////////////////////////////////////
; 182  : 			{
; 183  : 				set_camera_mode (raw, CAMERA_MODE_CHASE, FALSE);

  00128	6a 00		 push	 0
  0012a	6a 00		 push	 0
  0012c	8b 45 f8	 mov	 eax, DWORD PTR _raw$[ebp]
  0012f	50		 push	 eax
  00130	e8 00 00 00 00	 call	 ?set_camera_mode@@YGXPAUCAMERA@@W4CAMERA_MODES@@H@Z ; set_camera_mode

; 184  : 
; 185  : 				break;

  00135	e9 fe 00 00 00	 jmp	 $LN2@set_raw_ex
$LN17@set_raw_ex:

; 186  : 			}
; 187  : 			////////////////////////////////////////
; 188  : 			case CAMERA_MODE_WEAPON_EXPLOSION:
; 189  : 			////////////////////////////////////////
; 190  : 			{
; 191  : 				set_camera_mode (raw, CAMERA_MODE_CHASE, FALSE);

  0013a	6a 00		 push	 0
  0013c	6a 00		 push	 0
  0013e	8b 45 f8	 mov	 eax, DWORD PTR _raw$[ebp]
  00141	50		 push	 eax
  00142	e8 00 00 00 00	 call	 ?set_camera_mode@@YGXPAUCAMERA@@W4CAMERA_MODES@@H@Z ; set_camera_mode

; 192  : 
; 193  : 				break;

  00147	e9 ec 00 00 00	 jmp	 $LN2@set_raw_ex
$LN18@set_raw_ex:

; 194  : 			}
; 195  : 			////////////////////////////////////////
; 196  : 			case CAMERA_MODE_DEBRIEFING:
; 197  : 			////////////////////////////////////////
; 198  : 			{
; 199  : 				if (debriefing_camera_valid (raw))

  0014c	8b 45 f8	 mov	 eax, DWORD PTR _raw$[ebp]
  0014f	50		 push	 eax
  00150	e8 00 00 00 00	 call	 ?debriefing_camera_valid@@YGHPAUCAMERA@@@Z ; debriefing_camera_valid
  00155	85 c0		 test	 eax, eax
  00157	74 0b		 je	 SHORT $LN19@set_raw_ex

; 200  : 				{
; 201  : 					reset_debriefing_camera (raw);

  00159	8b 45 f8	 mov	 eax, DWORD PTR _raw$[ebp]
  0015c	50		 push	 eax
  0015d	e8 00 00 00 00	 call	 ?reset_debriefing_camera@@YGXPAUCAMERA@@@Z ; reset_debriefing_camera

; 202  : 				}
; 203  : 				else

  00162	eb 0d		 jmp	 SHORT $LN20@set_raw_ex
$LN19@set_raw_ex:

; 204  : 				{
; 205  : 					set_camera_mode (raw, CAMERA_MODE_CHASE, FALSE);

  00164	6a 00		 push	 0
  00166	6a 00		 push	 0
  00168	8b 45 f8	 mov	 eax, DWORD PTR _raw$[ebp]
  0016b	50		 push	 eax
  0016c	e8 00 00 00 00	 call	 ?set_camera_mode@@YGXPAUCAMERA@@W4CAMERA_MODES@@H@Z ; set_camera_mode
$LN20@set_raw_ex:

; 206  : 				}
; 207  : 
; 208  : 				break;

  00171	e9 c2 00 00 00	 jmp	 $LN2@set_raw_ex
$LN21@set_raw_ex:

; 209  : 			}
; 210  : 			////////////////////////////////////////
; 211  : 			case CAMERA_MODE_RECOGNITION_GUIDE_TOP_VIEW:
; 212  : 			////////////////////////////////////////
; 213  : 			{
; 214  : 				if (recognition_guide_top_view_camera_valid (raw))

  00176	8b 45 f8	 mov	 eax, DWORD PTR _raw$[ebp]
  00179	50		 push	 eax
  0017a	e8 00 00 00 00	 call	 ?recognition_guide_top_view_camera_valid@@YGHPAUCAMERA@@@Z ; recognition_guide_top_view_camera_valid
  0017f	85 c0		 test	 eax, eax
  00181	74 0b		 je	 SHORT $LN22@set_raw_ex

; 215  : 				{
; 216  : 					reset_recognition_guide_top_view_camera (raw);

  00183	8b 45 f8	 mov	 eax, DWORD PTR _raw$[ebp]
  00186	50		 push	 eax
  00187	e8 00 00 00 00	 call	 ?reset_recognition_guide_top_view_camera@@YGXPAUCAMERA@@@Z ; reset_recognition_guide_top_view_camera

; 217  : 				}
; 218  : 				else

  0018c	eb 0d		 jmp	 SHORT $LN23@set_raw_ex
$LN22@set_raw_ex:

; 219  : 				{
; 220  : 					set_camera_mode (raw, CAMERA_MODE_CHASE, FALSE);

  0018e	6a 00		 push	 0
  00190	6a 00		 push	 0
  00192	8b 45 f8	 mov	 eax, DWORD PTR _raw$[ebp]
  00195	50		 push	 eax
  00196	e8 00 00 00 00	 call	 ?set_camera_mode@@YGXPAUCAMERA@@W4CAMERA_MODES@@H@Z ; set_camera_mode
$LN23@set_raw_ex:

; 221  : 				}
; 222  : 
; 223  : 				break;

  0019b	e9 98 00 00 00	 jmp	 $LN2@set_raw_ex
$LN24@set_raw_ex:

; 224  : 			}
; 225  : 			////////////////////////////////////////
; 226  : 			case CAMERA_MODE_RECOGNITION_GUIDE_SIDE_VIEW:
; 227  : 			////////////////////////////////////////
; 228  : 			{
; 229  : 				if (recognition_guide_side_view_camera_valid (raw))

  001a0	8b 45 f8	 mov	 eax, DWORD PTR _raw$[ebp]
  001a3	50		 push	 eax
  001a4	e8 00 00 00 00	 call	 ?recognition_guide_side_view_camera_valid@@YGHPAUCAMERA@@@Z ; recognition_guide_side_view_camera_valid
  001a9	85 c0		 test	 eax, eax
  001ab	74 0b		 je	 SHORT $LN25@set_raw_ex

; 230  : 				{
; 231  : 					reset_recognition_guide_side_view_camera (raw);

  001ad	8b 45 f8	 mov	 eax, DWORD PTR _raw$[ebp]
  001b0	50		 push	 eax
  001b1	e8 00 00 00 00	 call	 ?reset_recognition_guide_side_view_camera@@YGXPAUCAMERA@@@Z ; reset_recognition_guide_side_view_camera

; 232  : 				}
; 233  : 				else

  001b6	eb 0d		 jmp	 SHORT $LN26@set_raw_ex
$LN25@set_raw_ex:

; 234  : 				{
; 235  : 					set_camera_mode (raw, CAMERA_MODE_CHASE, FALSE);

  001b8	6a 00		 push	 0
  001ba	6a 00		 push	 0
  001bc	8b 45 f8	 mov	 eax, DWORD PTR _raw$[ebp]
  001bf	50		 push	 eax
  001c0	e8 00 00 00 00	 call	 ?set_camera_mode@@YGXPAUCAMERA@@W4CAMERA_MODES@@H@Z ; set_camera_mode
$LN26@set_raw_ex:

; 236  : 				}
; 237  : 
; 238  : 				break;

  001c5	eb 71		 jmp	 SHORT $LN2@set_raw_ex
$LN27@set_raw_ex:

; 239  : 			}
; 240  : 			////////////////////////////////////////
; 241  : 			case CAMERA_MODE_RECOGNITION_GUIDE_FRONT_VIEW:
; 242  : 			////////////////////////////////////////
; 243  : 			{
; 244  : 				if (recognition_guide_front_view_camera_valid (raw))

  001c7	8b 45 f8	 mov	 eax, DWORD PTR _raw$[ebp]
  001ca	50		 push	 eax
  001cb	e8 00 00 00 00	 call	 ?recognition_guide_front_view_camera_valid@@YGHPAUCAMERA@@@Z ; recognition_guide_front_view_camera_valid
  001d0	85 c0		 test	 eax, eax
  001d2	74 0b		 je	 SHORT $LN28@set_raw_ex

; 245  : 				{
; 246  : 					reset_recognition_guide_front_view_camera (raw);

  001d4	8b 45 f8	 mov	 eax, DWORD PTR _raw$[ebp]
  001d7	50		 push	 eax
  001d8	e8 00 00 00 00	 call	 ?reset_recognition_guide_front_view_camera@@YGXPAUCAMERA@@@Z ; reset_recognition_guide_front_view_camera

; 247  : 				}
; 248  : 				else

  001dd	eb 0d		 jmp	 SHORT $LN29@set_raw_ex
$LN28@set_raw_ex:

; 249  : 				{
; 250  : 					set_camera_mode (raw, CAMERA_MODE_CHASE, FALSE);

  001df	6a 00		 push	 0
  001e1	6a 00		 push	 0
  001e3	8b 45 f8	 mov	 eax, DWORD PTR _raw$[ebp]
  001e6	50		 push	 eax
  001e7	e8 00 00 00 00	 call	 ?set_camera_mode@@YGXPAUCAMERA@@W4CAMERA_MODES@@H@Z ; set_camera_mode
$LN29@set_raw_ex:

; 251  : 				}
; 252  : 
; 253  : 				break;

  001ec	eb 4a		 jmp	 SHORT $LN2@set_raw_ex
$LN30@set_raw_ex:

; 254  : 			}
; 255  : 			////////////////////////////////////////
; 256  : 			case CAMERA_MODE_RECOGNITION_GUIDE_3D_VIEW:
; 257  : 			////////////////////////////////////////
; 258  : 			{
; 259  : 				if (recognition_guide_3d_view_camera_valid (raw))

  001ee	8b 45 f8	 mov	 eax, DWORD PTR _raw$[ebp]
  001f1	50		 push	 eax
  001f2	e8 00 00 00 00	 call	 ?recognition_guide_3d_view_camera_valid@@YGHPAUCAMERA@@@Z ; recognition_guide_3d_view_camera_valid
  001f7	85 c0		 test	 eax, eax
  001f9	74 0b		 je	 SHORT $LN31@set_raw_ex

; 260  : 				{
; 261  : 					reset_recognition_guide_3d_view_camera (raw);

  001fb	8b 45 f8	 mov	 eax, DWORD PTR _raw$[ebp]
  001fe	50		 push	 eax
  001ff	e8 00 00 00 00	 call	 ?reset_recognition_guide_3d_view_camera@@YGXPAUCAMERA@@@Z ; reset_recognition_guide_3d_view_camera

; 262  : 				}
; 263  : 				else

  00204	eb 0d		 jmp	 SHORT $LN32@set_raw_ex
$LN31@set_raw_ex:

; 264  : 				{
; 265  : 					set_camera_mode (raw, CAMERA_MODE_CHASE, FALSE);

  00206	6a 00		 push	 0
  00208	6a 00		 push	 0
  0020a	8b 45 f8	 mov	 eax, DWORD PTR _raw$[ebp]
  0020d	50		 push	 eax
  0020e	e8 00 00 00 00	 call	 ?set_camera_mode@@YGXPAUCAMERA@@W4CAMERA_MODES@@H@Z ; set_camera_mode
$LN32@set_raw_ex:

; 266  : 				}
; 267  : 
; 268  : 				break;

  00213	eb 23		 jmp	 SHORT $LN2@set_raw_ex
$LN33@set_raw_ex:

; 269  : 			}
; 270  : 			////////////////////////////////////////
; 271  : 			case CAMERA_MODE_FREE:
; 272  : 			////////////////////////////////////////
; 273  : 			{
; 274  : 				set_camera_mode (raw, CAMERA_MODE_FREE, FALSE);

  00215	6a 00		 push	 0
  00217	6a 10		 push	 16			; 00000010H
  00219	8b 45 f8	 mov	 eax, DWORD PTR _raw$[ebp]
  0021c	50		 push	 eax
  0021d	e8 00 00 00 00	 call	 ?set_camera_mode@@YGXPAUCAMERA@@W4CAMERA_MODES@@H@Z ; set_camera_mode

; 275  : 
; 276  : 				break;

  00222	eb 14		 jmp	 SHORT $LN2@set_raw_ex
$LN34@set_raw_ex:

; 277  : 			}
; 278  : 			////////////////////////////////////////
; 279  : 			default:
; 280  : 			////////////////////////////////////////
; 281  : 			{
; 282  : 				debug_fatal ("Invalid camera mode = %d", raw->camera_mode);

  00224	8b 45 f8	 mov	 eax, DWORD PTR _raw$[ebp]
  00227	8b 48 3c	 mov	 ecx, DWORD PTR [eax+60]
  0022a	51		 push	 ecx
  0022b	68 00 00 00 00	 push	 OFFSET ??_C@_0BJ@HJPODAMB@Invalid?5camera?5mode?5?$DN?5?$CFd@
  00230	e8 00 00 00 00	 call	 ?debug_fatal@@YAXPBDZZ	; debug_fatal
  00235	83 c4 08	 add	 esp, 8
$LN2@set_raw_ex:

; 283  : 
; 284  : 				break;
; 285  : 			}
; 286  : 		}
; 287  : 
; 288  : 		reset_cinematic_camera_for_new_view_entity (raw);

  00238	8b 45 f8	 mov	 eax, DWORD PTR _raw$[ebp]
  0023b	50		 push	 eax
  0023c	e8 00 00 00 00	 call	 ?reset_cinematic_camera_for_new_view_entity@@YGXPAUCAMERA@@@Z ; reset_cinematic_camera_for_new_view_entity
$LN1@set_raw_ex:

; 289  : 	}
; 290  : }

  00241	5f		 pop	 edi
  00242	5e		 pop	 esi
  00243	5b		 pop	 ebx
  00244	8b e5		 mov	 esp, ebp
  00246	5d		 pop	 ebp
  00247	c2 04 00	 ret	 4
  0024a	66 90		 npad	 2
$LN38@set_raw_ex:
  0024c	00 00 00 00	 DD	 $LN7@set_raw_ex
  00250	00 00 00 00	 DD	 $LN8@set_raw_ex
  00254	00 00 00 00	 DD	 $LN9@set_raw_ex
  00258	00 00 00 00	 DD	 $LN10@set_raw_ex
  0025c	00 00 00 00	 DD	 $LN11@set_raw_ex
  00260	00 00 00 00	 DD	 $LN12@set_raw_ex
  00264	00 00 00 00	 DD	 $LN13@set_raw_ex
  00268	00 00 00 00	 DD	 $LN14@set_raw_ex
  0026c	00 00 00 00	 DD	 $LN15@set_raw_ex
  00270	00 00 00 00	 DD	 $LN16@set_raw_ex
  00274	00 00 00 00	 DD	 $LN17@set_raw_ex
  00278	00 00 00 00	 DD	 $LN18@set_raw_ex
  0027c	00 00 00 00	 DD	 $LN21@set_raw_ex
  00280	00 00 00 00	 DD	 $LN24@set_raw_ex
  00284	00 00 00 00	 DD	 $LN27@set_raw_ex
  00288	00 00 00 00	 DD	 $LN30@set_raw_ex
  0028c	00 00 00 00	 DD	 $LN33@set_raw_ex
?set_raw_external_view_entity@@YGXPAUENTITY@@@Z ENDP	; set_raw_external_view_entity
_TEXT	ENDS
END
