; Listing generated by Microsoft (R) Optimizing Compiler Version 19.16.27045.0 

	TITLE	C:\Users\nhv90\Projects\eech\aphavoc\source\cmndline.c
	.686P
	.XMM
	include listing.inc
	.model	flat

INCLUDELIB MSVCRTD
INCLUDELIB OLDNAMES

PUBLIC	?command_line_maxplayers@@3HA			; command_line_maxplayers
PUBLIC	?command_line_dynamics_advanced_engine_model@@3HA ; command_line_dynamics_advanced_engine_model
PUBLIC	?command_line_dynamics_flight_model@@3HA	; command_line_dynamics_flight_model
PUBLIC	?command_line_report_to_masterserver@@3HA	; command_line_report_to_masterserver
PUBLIC	?command_line_dynamics_engine_startup@@3HA	; command_line_dynamics_engine_startup
PUBLIC	?command_line_debug_input@@3HA			; command_line_debug_input
PUBLIC	?command_line_debug_log_timing_info@@3HA	; command_line_debug_log_timing_info
PUBLIC	?command_line_dump_session@@3HA			; command_line_dump_session
PUBLIC	?command_line_version_number@@3HA		; command_line_version_number
PUBLIC	?command_line_entity_update_frame_rate@@3HA	; command_line_entity_update_frame_rate
PUBLIC	?command_line_full_screen@@3HA			; command_line_full_screen
PUBLIC	?command_line_cdrom_drive_letter@@3HA		; command_line_cdrom_drive_letter
PUBLIC	?command_line_hardware_render@@3HA		; command_line_hardware_render
PUBLIC	?command_line_no_sound@@3HA			; command_line_no_sound
PUBLIC	?command_line_sound_hdwrbuf@@3HA		; command_line_sound_hdwrbuf
PUBLIC	?command_line_clean_graphics@@3HA		; command_line_clean_graphics
PUBLIC	?command_line_new_graphics@@3HA			; command_line_new_graphics
PUBLIC	?command_line_max_time_acceleration@@3HA	; command_line_max_time_acceleration
PUBLIC	?command_line_ai_use_route_generator@@3HA	; command_line_ai_use_route_generator
PUBLIC	?command_line_no_graphics_conversion@@3HA	; command_line_no_graphics_conversion
PUBLIC	?command_line_comms_show_stats@@3HA		; command_line_comms_show_stats
PUBLIC	?command_line_comms_packet_throttle_limit@@3HA	; command_line_comms_packet_throttle_limit
PUBLIC	?command_line_comms_resend_list_size@@3HA	; command_line_comms_resend_list_size
PUBLIC	?command_line_comms_packet_data_size@@3HA	; command_line_comms_packet_data_size
PUBLIC	?command_line_comms_packet_rerequest_limit@@3HA	; command_line_comms_packet_rerequest_limit
PUBLIC	?command_line_comms_connection_receive_size@@3HA ; command_line_comms_connection_receive_size
PUBLIC	?command_line_comms_data_record_size@@3HA	; command_line_comms_data_record_size
PUBLIC	?command_line_comms_timeout@@3HA		; command_line_comms_timeout
PUBLIC	?command_line_comms_pack_buffer_size@@3HA	; command_line_comms_pack_buffer_size
PUBLIC	?command_line_comms_initial_sleep_time@@3HA	; command_line_comms_initial_sleep_time
PUBLIC	?command_line_comms_guaranteed_send@@3HA	; command_line_comms_guaranteed_send
PUBLIC	?command_line_comms_dedicated_server@@3HA	; command_line_comms_dedicated_server
PUBLIC	?command_line_comms_interpolate_gunships@@3HA	; command_line_comms_interpolate_gunships
PUBLIC	?command_line_comms_validate_connections@@3HA	; command_line_comms_validate_connections
PUBLIC	?command_line_game_initialisation_phase_game_type@@3HA ; command_line_game_initialisation_phase_game_type
PUBLIC	?command_line_game_initialisation_phase_gunship_type@@3HA ; command_line_game_initialisation_phase_gunship_type
PUBLIC	?command_line_max_frame_rate@@3HA		; command_line_max_frame_rate
PUBLIC	?command_line_max_game_update_rate@@3HA		; command_line_max_game_update_rate
PUBLIC	?command_line_max_game_update_rate_set@@3HA	; command_line_max_game_update_rate_set
PUBLIC	?command_line_run_mode@@3HA			; command_line_run_mode
PUBLIC	?command_line_vector_flight_model@@3HA		; command_line_vector_flight_model
PUBLIC	?command_line_target_point_check@@3HA		; command_line_target_point_check
PUBLIC	?command_line_no_pilot_rejection@@3HA		; command_line_no_pilot_rejection
PUBLIC	?command_line_planner_goto_button@@3HA		; command_line_planner_goto_button
PUBLIC	?command_line_cheats_on@@3HA			; command_line_cheats_on
PUBLIC	?command_line_capture_aircraft@@3HA		; command_line_capture_aircraft
PUBLIC	?command_line_dynamics_sonic_buildup@@3HA	; command_line_dynamics_sonic_buildup
PUBLIC	?command_line_player_start_rank@@3HA		; command_line_player_start_rank
PUBLIC	?command_line_3d_visual_screen_width@@3HA	; command_line_3d_visual_screen_width
PUBLIC	?command_line_3d_visual_screen_height@@3HA	; command_line_3d_visual_screen_height
PUBLIC	?command_line_3d_reset@@3HA			; command_line_3d_reset
PUBLIC	?command_line_force_resolution@@3HA		; command_line_force_resolution
PUBLIC	?command_line_3d_visual_clear_edges@@3HA	; command_line_3d_visual_clear_edges
PUBLIC	?command_line_cpu_blit_textures@@3HA		; command_line_cpu_blit_textures
PUBLIC	?command_line_d3d_use_texture_management@@3HA	; command_line_d3d_use_texture_management
PUBLIC	?command_line_no_hardware_tnl@@3HA		; command_line_no_hardware_tnl
PUBLIC	?command_line_no_dx9zbuffer_fix@@3HA		; command_line_no_dx9zbuffer_fix
PUBLIC	?command_line_no_render_to_texture@@3HA		; command_line_no_render_to_texture
PUBLIC	?command_line_display_bpp@@3HA			; command_line_display_bpp
PUBLIC	?command_line_persistent_smoke@@3HA		; command_line_persistent_smoke
PUBLIC	?command_line_cloud_puffs@@3HA			; command_line_cloud_puffs
PUBLIC	?command_line_no_mission_complete_music@@3HA	; command_line_no_mission_complete_music
PUBLIC	?command_line_mouse_look@@3HA			; command_line_mouse_look
PUBLIC	?command_line_mouse_look_speed@@3HA		; command_line_mouse_look_speed
PUBLIC	?command_line_min_fov@@3HA			; command_line_min_fov
PUBLIC	?command_line_max_fov0@@3HA			; command_line_max_fov0
PUBLIC	?command_line_max_fov1@@3HA			; command_line_max_fov1
PUBLIC	?command_line_max_fov2@@3HA			; command_line_max_fov2
PUBLIC	?command_line_max_fov3@@3HA			; command_line_max_fov3
PUBLIC	?command_line_max_fov4@@3HA			; command_line_max_fov4
PUBLIC	?command_line_max_fov5@@3HA			; command_line_max_fov5
PUBLIC	?command_line_max_fov6@@3HA			; command_line_max_fov6
PUBLIC	?command_line_max_fov7@@3HA			; command_line_max_fov7
PUBLIC	?command_line_eo_pan_joystick_index@@3HA	; command_line_eo_pan_joystick_index
PUBLIC	?command_line_eo_pan_vertical_joystick_axis@@3HA ; command_line_eo_pan_vertical_joystick_axis
PUBLIC	?command_line_eo_pan_horizontal_joystick_axis@@3HA ; command_line_eo_pan_horizontal_joystick_axis
PUBLIC	?command_line_eo_zoom_joystick_index@@3HA	; command_line_eo_zoom_joystick_index
PUBLIC	?command_line_eo_zoom_joystick_axis@@3HA	; command_line_eo_zoom_joystick_axis
PUBLIC	?command_line_field_of_view_joystick_index@@3HA	; command_line_field_of_view_joystick_index
PUBLIC	?command_line_field_of_view_joystick_axis@@3HA	; command_line_field_of_view_joystick_axis
PUBLIC	?command_line_ground_radar_ignores_infantry@@3HA ; command_line_ground_radar_ignores_infantry
PUBLIC	?command_line_ground_stabilisation_available@@3HA ; command_line_ground_stabilisation_available
PUBLIC	?command_line_manual_laser_radar@@3HA		; command_line_manual_laser_radar
PUBLIC	?command_line_targeting_system_auto_page@@3HA	; command_line_targeting_system_auto_page
PUBLIC	?command_line_framerate@@3HA			; command_line_framerate
PUBLIC	?command_line_downwash@@3HA			; command_line_downwash
PUBLIC	?command_line_wut@@3HA				; command_line_wut
PUBLIC	?command_line_dump_ini@@3HA			; command_line_dump_ini
PUBLIC	?command_line_cyclic_joystick_index@@3HA	; command_line_cyclic_joystick_index
PUBLIC	?command_line_cyclic_joystick_x_axis@@3HA	; command_line_cyclic_joystick_x_axis
PUBLIC	?command_line_cyclic_joystick_y_axis@@3HA	; command_line_cyclic_joystick_y_axis
PUBLIC	?command_line_nonlinear_cyclic@@3HA		; command_line_nonlinear_cyclic
PUBLIC	?command_line_collective_joystick_index@@3HA	; command_line_collective_joystick_index
PUBLIC	?command_line_collective_joystick_axis@@3HA	; command_line_collective_joystick_axis
PUBLIC	?command_line_rudder_joystick_index@@3HA	; command_line_rudder_joystick_index
PUBLIC	?command_line_rudder_joystick_axis@@3HA		; command_line_rudder_joystick_axis
PUBLIC	?command_line_nonlinear_pedals@@3HA		; command_line_nonlinear_pedals
PUBLIC	?command_line_restricted_nvg_fov@@3HA		; command_line_restricted_nvg_fov
PUBLIC	?command_line_russian_nvg_no_ir@@3HA		; command_line_russian_nvg_no_ir
PUBLIC	?command_line_high_res_mfd@@3HA			; command_line_high_res_mfd
PUBLIC	?command_line_high_res_hud@@3HA			; command_line_high_res_hud
PUBLIC	?command_line_unpadlock_on_handover@@3HA	; command_line_unpadlock_on_handover
PUBLIC	?command_line_pilot_as_periscope_default@@3HA	; command_line_pilot_as_periscope_default
PUBLIC	?command_line_autoreturn_to_pilot_after_periscope@@3HA ; command_line_autoreturn_to_pilot_after_periscope
PUBLIC	?command_line_eo_full_range@@3HA		; command_line_eo_full_range
PUBLIC	?command_line_render_tree_shadows@@3HA		; command_line_render_tree_shadows
PUBLIC	?command_line_trees_fog@@3HA			; command_line_trees_fog
PUBLIC	?command_line_fly_any_airplane@@3HA		; command_line_fly_any_airplane
PUBLIC	?command_line_tsd_enemy_colours@@3HA		; command_line_tsd_enemy_colours
PUBLIC	?command_line_tsd_render_mode@@3HA		; command_line_tsd_render_mode
PUBLIC	?command_line_tsd_palette@@3HA			; command_line_tsd_palette
PUBLIC	?command_line_colour_mfd@@3HA			; command_line_colour_mfd
PUBLIC	?command_line_camcom@@3HA			; command_line_camcom
PUBLIC	?command_line_campaign_map@@3HA			; command_line_campaign_map
PUBLIC	?command_line_campaign_map_palette@@3HA		; command_line_campaign_map_palette
PUBLIC	?command_line_campaign_map_update_interval@@3HA	; command_line_campaign_map_update_interval
PUBLIC	?command_line_tacview_logging@@3HA		; command_line_tacview_logging
PUBLIC	?command_line_tacview_generate_srtm_height_data@@3HA ; command_line_tacview_generate_srtm_height_data
PUBLIC	?command_line_joylook_joystick_index@@3HA	; command_line_joylook_joystick_index
PUBLIC	?command_line_joylookh_joystick_axis@@3HA	; command_line_joylookh_joystick_axis
PUBLIC	?command_line_joylookv_joystick_axis@@3HA	; command_line_joylookv_joystick_axis
PUBLIC	?command_line_joylook_step@@3HA			; command_line_joylook_step
PUBLIC	?command_line_designated_targets@@3HA		; command_line_designated_targets
PUBLIC	?command_line_session_filter@@3HA		; command_line_session_filter
PUBLIC	?command_line_pause_server@@3HA			; command_line_pause_server
PUBLIC	?command_line_reverse_pedal@@3HA		; command_line_reverse_pedal
PUBLIC	?command_line_external_trackir@@3HA		; command_line_external_trackir
PUBLIC	?command_line_external_trackir_direction@@3HA	; command_line_external_trackir_direction
PUBLIC	?command_line_wobbly_camera@@3HA		; command_line_wobbly_camera
PUBLIC	?command_line_high_lod_hack@@3HA		; command_line_high_lod_hack
PUBLIC	?command_line_TIR_6DOF@@3HA			; command_line_TIR_6DOF
PUBLIC	?command_line_mouse_tsd_target_select@@3HA	; command_line_mouse_tsd_target_select
PUBLIC	?command_line_3d_cockpit@@3HA			; command_line_3d_cockpit
PUBLIC	?command_line_shared_mem_export@@3HA		; command_line_shared_mem_export
PUBLIC	?global_aphavoc_maps@@3HA			; global_aphavoc_maps
PUBLIC	?global_hud_alpha@@3HA				; global_hud_alpha
PUBLIC	?command_line_texture_colour@@3HA		; command_line_texture_colour
PUBLIC	?global_mipmapping@@3HA				; global_mipmapping
PUBLIC	?global_anisotropic@@3HA			; global_anisotropic
PUBLIC	?global_PNVS_level@@3HA				; global_PNVS_level
PUBLIC	?global_dynamic_water@@3HA			; global_dynamic_water
PUBLIC	?global_tsd_detail@@3HA				; global_tsd_detail
PUBLIC	?command_line_disable_message_text@@3HA		; command_line_disable_message_text
PUBLIC	?command_line_autosave@@3HA			; command_line_autosave
PUBLIC	?command_line_cannontrack@@3HA			; command_line_cannontrack
PUBLIC	?session_planner_goto_button@@3HA		; session_planner_goto_button
PUBLIC	?session_vector_flight_model@@3HA		; session_vector_flight_model
PUBLIC	?session_ground_radar_ignores_infantry@@3HA	; session_ground_radar_ignores_infantry
PUBLIC	?session_camcom@@3HA				; session_camcom
PUBLIC	?command_line_export_mfd@@3HA			; command_line_export_mfd
PUBLIC	?command_line_export_mfd_adapter@@3HA		; command_line_export_mfd_adapter
PUBLIC	?command_line_export_mfd_screen_width@@3HA	; command_line_export_mfd_screen_width
PUBLIC	?command_line_export_mfd_screen_height@@3HA	; command_line_export_mfd_screen_height
PUBLIC	?command_line_export_mfd_right_pos@@3PAHA	; command_line_export_mfd_right_pos
PUBLIC	?command_line_export_mfd_left_pos@@3PAHA	; command_line_export_mfd_left_pos
PUBLIC	?command_line_export_mfd_single_pos@@3PAHA	; command_line_export_mfd_single_pos
PUBLIC	?command_line_ui_sounds_muted@@3HA		; command_line_ui_sounds_muted
PUBLIC	?command_line_dynamics_retreating_blade_stall_effect@@3MA ; command_line_dynamics_retreating_blade_stall_effect
PUBLIC	?command_line_dynamics_rudder_value@@3MA	; command_line_dynamics_rudder_value
PUBLIC	?command_line_dynamics_rudder_acceleration@@3MA	; command_line_dynamics_rudder_acceleration
PUBLIC	?command_line_collective_zone_1_limit@@3MA	; command_line_collective_zone_1_limit
PUBLIC	?command_line_collective_zone_2_limit@@3MA	; command_line_collective_zone_2_limit
PUBLIC	?command_line_collective_percentage_at_zone1@@3MA ; command_line_collective_percentage_at_zone1
PUBLIC	?command_line_dynamics_main_rotor_drag@@3MA	; command_line_dynamics_main_rotor_drag
PUBLIC	?command_line_dynamics_main_rotor_lift@@3MA	; command_line_dynamics_main_rotor_lift
PUBLIC	?command_line_dynamics_tail_rotor_drag@@3MA	; command_line_dynamics_tail_rotor_drag
PUBLIC	?command_line_dynamics_cyclic_dead_zone@@3MA	; command_line_dynamics_cyclic_dead_zone
PUBLIC	?command_line_dynamics_yaw_altitude_loss@@3MA	; command_line_dynamics_yaw_altitude_loss
PUBLIC	?command_line_aitool_grid_pitch@@3MA		; command_line_aitool_grid_pitch
PUBLIC	?command_line_comms_packet_resend_timer@@3MA	; command_line_comms_packet_resend_timer
PUBLIC	?command_line_comms_resend_timeout@@3MA		; command_line_comms_resend_timeout
PUBLIC	?command_line_city_block_approximation_range@@3MA ; command_line_city_block_approximation_range
PUBLIC	?command_line_user_invulnerable_time@@3MA	; command_line_user_invulnerable_time
PUBLIC	?command_line_object_lod_factor@@3MA		; command_line_object_lod_factor
PUBLIC	?command_line_fog_of_war_maximum_value@@3MA	; command_line_fog_of_war_maximum_value
PUBLIC	?command_line_chaff_effectiveness@@3MA		; command_line_chaff_effectiveness
PUBLIC	?command_line_flare_effectiveness@@3MA		; command_line_flare_effectiveness
PUBLIC	?command_line_smoke_effectiveness@@3MA		; command_line_smoke_effectiveness
PUBLIC	?command_line_g_force_head_movment_modifier@@3MA ; command_line_g_force_head_movment_modifier
PUBLIC	?global_night_light_level@@3MA			; global_night_light_level
PUBLIC	?global_hud_size2@@3MA				; global_hud_size2
PUBLIC	?global_mfd_size@@3MA				; global_mfd_size
PUBLIC	?command_line_themes@@3PADA			; command_line_themes
PUBLIC	?command_line_sound_device@@3PADA		; command_line_sound_device
PUBLIC	?command_line_sound_device_speech@@3PADA	; command_line_sound_device_speech
PUBLIC	?command_line_game_initialisation_phase_path@@3PADA ; command_line_game_initialisation_phase_path
PUBLIC	?command_line_game_initialisation_phase_directory@@3PADA ; command_line_game_initialisation_phase_directory
PUBLIC	?command_line_game_initialisation_phase_filename@@3PADA ; command_line_game_initialisation_phase_filename
PUBLIC	?command_line_debug_log_name@@3PADA		; command_line_debug_log_name
PUBLIC	?command_line_ip_address@@3PADA			; command_line_ip_address
PUBLIC	?command_line_primary_server_setting@@3PADA	; command_line_primary_server_setting
PUBLIC	?command_line_secondary_server_setting@@3PADA	; command_line_secondary_server_setting
PUBLIC	?command_line_server_log_filename@@3PADA	; command_line_server_log_filename
_BSS	SEGMENT
?command_line_report_to_masterserver@@3HA DD 01H DUP (?) ; command_line_report_to_masterserver
?command_line_dynamics_engine_startup@@3HA DD 01H DUP (?) ; command_line_dynamics_engine_startup
?command_line_debug_input@@3HA DD 01H DUP (?)		; command_line_debug_input
?command_line_dump_session@@3HA DD 01H DUP (?)		; command_line_dump_session
?command_line_version_number@@3HA DD 01H DUP (?)	; command_line_version_number
?command_line_full_screen@@3HA DD 01H DUP (?)		; command_line_full_screen
?command_line_cdrom_drive_letter@@3HA DD 01H DUP (?)	; command_line_cdrom_drive_letter
?command_line_hardware_render@@3HA DD 01H DUP (?)	; command_line_hardware_render
?command_line_no_sound@@3HA DD 01H DUP (?)		; command_line_no_sound
?command_line_sound_hdwrbuf@@3HA DD 01H DUP (?)		; command_line_sound_hdwrbuf
?command_line_clean_graphics@@3HA DD 01H DUP (?)	; command_line_clean_graphics
?command_line_new_graphics@@3HA DD 01H DUP (?)		; command_line_new_graphics
?command_line_no_graphics_conversion@@3HA DD 01H DUP (?) ; command_line_no_graphics_conversion
?command_line_comms_show_stats@@3HA DD 01H DUP (?)	; command_line_comms_show_stats
?command_line_comms_dedicated_server@@3HA DD 01H DUP (?) ; command_line_comms_dedicated_server
?command_line_game_initialisation_phase_game_type@@3HA DD 01H DUP (?) ; command_line_game_initialisation_phase_game_type
?command_line_max_game_update_rate_set@@3HA DD 01H DUP (?) ; command_line_max_game_update_rate_set
?command_line_run_mode@@3HA DD 01H DUP (?)		; command_line_run_mode
?command_line_vector_flight_model@@3HA DD 01H DUP (?)	; command_line_vector_flight_model
?command_line_target_point_check@@3HA DD 01H DUP (?)	; command_line_target_point_check
?command_line_no_pilot_rejection@@3HA DD 01H DUP (?)	; command_line_no_pilot_rejection
?command_line_planner_goto_button@@3HA DD 01H DUP (?)	; command_line_planner_goto_button
?command_line_cheats_on@@3HA DD 01H DUP (?)		; command_line_cheats_on
?command_line_3d_reset@@3HA DD 01H DUP (?)		; command_line_3d_reset
?command_line_force_resolution@@3HA DD 01H DUP (?)	; command_line_force_resolution
?command_line_3d_visual_clear_edges@@3HA DD 01H DUP (?)	; command_line_3d_visual_clear_edges
?command_line_cpu_blit_textures@@3HA DD 01H DUP (?)	; command_line_cpu_blit_textures
?command_line_d3d_use_texture_management@@3HA DD 01H DUP (?) ; command_line_d3d_use_texture_management
?command_line_no_dx9zbuffer_fix@@3HA DD 01H DUP (?)	; command_line_no_dx9zbuffer_fix
?command_line_no_render_to_texture@@3HA DD 01H DUP (?)	; command_line_no_render_to_texture
?command_line_no_mission_complete_music@@3HA DD 01H DUP (?) ; command_line_no_mission_complete_music
?command_line_mouse_look@@3HA DD 01H DUP (?)		; command_line_mouse_look
?command_line_manual_laser_radar@@3HA DD 01H DUP (?)	; command_line_manual_laser_radar
?command_line_framerate@@3HA DD 01H DUP (?)		; command_line_framerate
?command_line_downwash@@3HA DD 01H DUP (?)		; command_line_downwash
?command_line_wut@@3HA DD 01H DUP (?)			; command_line_wut
?command_line_russian_nvg_no_ir@@3HA DD 01H DUP (?)	; command_line_russian_nvg_no_ir
?command_line_unpadlock_on_handover@@3HA DD 01H DUP (?)	; command_line_unpadlock_on_handover
?command_line_pilot_as_periscope_default@@3HA DD 01H DUP (?) ; command_line_pilot_as_periscope_default
?command_line_autoreturn_to_pilot_after_periscope@@3HA DD 01H DUP (?) ; command_line_autoreturn_to_pilot_after_periscope
?command_line_eo_full_range@@3HA DD 01H DUP (?)		; command_line_eo_full_range
?command_line_tsd_enemy_colours@@3HA DD 01H DUP (?)	; command_line_tsd_enemy_colours
?command_line_tsd_render_mode@@3HA DD 01H DUP (?)	; command_line_tsd_render_mode
?command_line_tsd_palette@@3HA DD 01H DUP (?)		; command_line_tsd_palette
?command_line_camcom@@3HA DD 01H DUP (?)		; command_line_camcom
?command_line_tacview_logging@@3HA DD 01H DUP (?)	; command_line_tacview_logging
?command_line_tacview_generate_srtm_height_data@@3HA DD 01H DUP (?) ; command_line_tacview_generate_srtm_height_data
?command_line_designated_targets@@3HA DD 01H DUP (?)	; command_line_designated_targets
?command_line_pause_server@@3HA DD 01H DUP (?)		; command_line_pause_server
?command_line_reverse_pedal@@3HA DD 01H DUP (?)		; command_line_reverse_pedal
?command_line_external_trackir@@3HA DD 01H DUP (?)	; command_line_external_trackir
?command_line_external_trackir_direction@@3HA DD 01H DUP (?) ; command_line_external_trackir_direction
?command_line_high_lod_hack@@3HA DD 01H DUP (?)		; command_line_high_lod_hack
?command_line_TIR_6DOF@@3HA DD 01H DUP (?)		; command_line_TIR_6DOF
?command_line_3d_cockpit@@3HA DD 01H DUP (?)		; command_line_3d_cockpit
?command_line_shared_mem_export@@3HA DD 01H DUP (?)	; command_line_shared_mem_export
?global_aphavoc_maps@@3HA DD 01H DUP (?)		; global_aphavoc_maps
?global_hud_alpha@@3HA DD 01H DUP (?)			; global_hud_alpha
?global_PNVS_level@@3HA DD 01H DUP (?)			; global_PNVS_level
?global_tsd_detail@@3HA DD 01H DUP (?)			; global_tsd_detail
?command_line_disable_message_text@@3HA DD 01H DUP (?)	; command_line_disable_message_text
?command_line_autosave@@3HA DD 01H DUP (?)		; command_line_autosave
?session_planner_goto_button@@3HA DD 01H DUP (?)	; session_planner_goto_button
?session_vector_flight_model@@3HA DD 01H DUP (?)	; session_vector_flight_model
?session_camcom@@3HA DD 01H DUP (?)			; session_camcom
?command_line_export_mfd@@3HA DD 01H DUP (?)		; command_line_export_mfd
?command_line_export_mfd_adapter@@3HA DD 01H DUP (?)	; command_line_export_mfd_adapter
?command_line_dynamics_cyclic_dead_zone@@3MA DD 01H DUP (?) ; command_line_dynamics_cyclic_dead_zone
?command_line_aitool_grid_pitch@@3MA DD 01H DUP (?)	; command_line_aitool_grid_pitch
?command_line_g_force_head_movment_modifier@@3MA DD 01H DUP (?) ; command_line_g_force_head_movment_modifier
?command_line_themes@@3PADA DB 080H DUP (?)		; command_line_themes
?command_line_sound_device@@3PADA DB 080H DUP (?)	; command_line_sound_device
?command_line_sound_device_speech@@3PADA DB 080H DUP (?) ; command_line_sound_device_speech
?command_line_game_initialisation_phase_path@@3PADA DB 080H DUP (?) ; command_line_game_initialisation_phase_path
?command_line_game_initialisation_phase_directory@@3PADA DB 080H DUP (?) ; command_line_game_initialisation_phase_directory
?command_line_game_initialisation_phase_filename@@3PADA DB 080H DUP (?) ; command_line_game_initialisation_phase_filename
?command_line_ip_address@@3PADA DB 080H DUP (?)		; command_line_ip_address
?command_line_server_log_filename@@3PADA DB 080H DUP (?) ; command_line_server_log_filename
_BSS	ENDS
_DATA	SEGMENT
?command_line_maxplayers@@3HA DD 04H			; command_line_maxplayers
?command_line_dynamics_advanced_engine_model@@3HA DD 01H ; command_line_dynamics_advanced_engine_model
?command_line_dynamics_flight_model@@3HA DD 02H		; command_line_dynamics_flight_model
?command_line_debug_log_timing_info@@3HA DD 01H		; command_line_debug_log_timing_info
?command_line_entity_update_frame_rate@@3HA DD 02H	; command_line_entity_update_frame_rate
?command_line_max_time_acceleration@@3HA DD 04H		; command_line_max_time_acceleration
?command_line_ai_use_route_generator@@3HA DD 01H	; command_line_ai_use_route_generator
?command_line_comms_packet_throttle_limit@@3HA DD 0aH	; command_line_comms_packet_throttle_limit
?command_line_comms_resend_list_size@@3HA DD 03e8H	; command_line_comms_resend_list_size
?command_line_comms_packet_data_size@@3HA DD 0200H	; command_line_comms_packet_data_size
?command_line_comms_packet_rerequest_limit@@3HA DD 0aH	; command_line_comms_packet_rerequest_limit
?command_line_comms_connection_receive_size@@3HA DD 034800H ; command_line_comms_connection_receive_size
?command_line_comms_data_record_size@@3HA DD 034800H	; command_line_comms_data_record_size
?command_line_comms_timeout@@3HA DD 0fH			; command_line_comms_timeout
?command_line_comms_pack_buffer_size@@3HA DD 034800H	; command_line_comms_pack_buffer_size
?command_line_comms_initial_sleep_time@@3HA DD 01f4H	; command_line_comms_initial_sleep_time
?command_line_comms_guaranteed_send@@3HA DD 01H		; command_line_comms_guaranteed_send
?command_line_comms_interpolate_gunships@@3HA DD 01H	; command_line_comms_interpolate_gunships
?command_line_comms_validate_connections@@3HA DD 01H	; command_line_comms_validate_connections
?command_line_game_initialisation_phase_gunship_type@@3HA DD 0aH ; command_line_game_initialisation_phase_gunship_type
?command_line_max_frame_rate@@3HA DD 01eH		; command_line_max_frame_rate
?command_line_max_game_update_rate@@3HA DD 0fH		; command_line_max_game_update_rate
?command_line_capture_aircraft@@3HA DD 01H		; command_line_capture_aircraft
?command_line_dynamics_sonic_buildup@@3HA DD 01H	; command_line_dynamics_sonic_buildup
?command_line_player_start_rank@@3HA DD 01H		; command_line_player_start_rank
?command_line_3d_visual_screen_width@@3HA DD 0280H	; command_line_3d_visual_screen_width
?command_line_3d_visual_screen_height@@3HA DD 01e0H	; command_line_3d_visual_screen_height
?command_line_no_hardware_tnl@@3HA DD 01H		; command_line_no_hardware_tnl
?command_line_display_bpp@@3HA DD 020H			; command_line_display_bpp
?command_line_persistent_smoke@@3HA DD 01H		; command_line_persistent_smoke
?command_line_cloud_puffs@@3HA DD 01H			; command_line_cloud_puffs
?command_line_mouse_look_speed@@3HA DD 0fH		; command_line_mouse_look_speed
?command_line_min_fov@@3HA DD 014H			; command_line_min_fov
?command_line_max_fov0@@3HA DD 050H			; command_line_max_fov0
?command_line_max_fov1@@3HA DD 050H			; command_line_max_fov1
?command_line_max_fov2@@3HA DD 050H			; command_line_max_fov2
?command_line_max_fov3@@3HA DD 050H			; command_line_max_fov3
?command_line_max_fov4@@3HA DD 050H			; command_line_max_fov4
?command_line_max_fov5@@3HA DD 050H			; command_line_max_fov5
?command_line_max_fov6@@3HA DD 050H			; command_line_max_fov6
?command_line_max_fov7@@3HA DD 050H			; command_line_max_fov7
?command_line_eo_pan_joystick_index@@3HA DD 0ffffffffH	; command_line_eo_pan_joystick_index
?command_line_eo_pan_vertical_joystick_axis@@3HA DD 06H	; command_line_eo_pan_vertical_joystick_axis
?command_line_eo_pan_horizontal_joystick_axis@@3HA DD 08H ; command_line_eo_pan_horizontal_joystick_axis
?command_line_eo_zoom_joystick_index@@3HA DD 0ffffffffH	; command_line_eo_zoom_joystick_index
?command_line_eo_zoom_joystick_axis@@3HA DD 07H		; command_line_eo_zoom_joystick_axis
?command_line_field_of_view_joystick_index@@3HA DD 0ffffffffH ; command_line_field_of_view_joystick_index
?command_line_field_of_view_joystick_axis@@3HA DD 04H	; command_line_field_of_view_joystick_axis
?command_line_ground_radar_ignores_infantry@@3HA DD 01H	; command_line_ground_radar_ignores_infantry
?command_line_ground_stabilisation_available@@3HA DD 01H ; command_line_ground_stabilisation_available
?command_line_targeting_system_auto_page@@3HA DD 01H	; command_line_targeting_system_auto_page
?command_line_dump_ini@@3HA DD 01H			; command_line_dump_ini
?command_line_cyclic_joystick_index@@3HA DD 0ffffffffH	; command_line_cyclic_joystick_index
?command_line_cyclic_joystick_x_axis@@3HA DD 01H	; command_line_cyclic_joystick_x_axis
?command_line_cyclic_joystick_y_axis@@3HA DD 02H	; command_line_cyclic_joystick_y_axis
?command_line_nonlinear_cyclic@@3HA DD 01H		; command_line_nonlinear_cyclic
?command_line_collective_joystick_index@@3HA DD 0ffffffffH ; command_line_collective_joystick_index
?command_line_collective_joystick_axis@@3HA DD 03H	; command_line_collective_joystick_axis
?command_line_rudder_joystick_index@@3HA DD 0ffffffffH	; command_line_rudder_joystick_index
?command_line_rudder_joystick_axis@@3HA DD 06H		; command_line_rudder_joystick_axis
?command_line_nonlinear_pedals@@3HA DD 01H		; command_line_nonlinear_pedals
?command_line_restricted_nvg_fov@@3HA DD 01H		; command_line_restricted_nvg_fov
?command_line_high_res_mfd@@3HA DD 01H			; command_line_high_res_mfd
?command_line_high_res_hud@@3HA DD 01H			; command_line_high_res_hud
?command_line_render_tree_shadows@@3HA DD 01H		; command_line_render_tree_shadows
?command_line_trees_fog@@3HA DD 02H			; command_line_trees_fog
?command_line_fly_any_airplane@@3HA DD 01H		; command_line_fly_any_airplane
?command_line_colour_mfd@@3HA DD 01H			; command_line_colour_mfd
?command_line_campaign_map@@3HA DD 01H			; command_line_campaign_map
?command_line_campaign_map_palette@@3HA DD 01H		; command_line_campaign_map_palette
?command_line_campaign_map_update_interval@@3HA DD 078H	; command_line_campaign_map_update_interval
?command_line_joylook_joystick_index@@3HA DD 0ffffffffH	; command_line_joylook_joystick_index
?command_line_joylookh_joystick_axis@@3HA DD 01H	; command_line_joylookh_joystick_axis
?command_line_joylookv_joystick_axis@@3HA DD 02H	; command_line_joylookv_joystick_axis
?command_line_joylook_step@@3HA DD 01eH			; command_line_joylook_step
?command_line_session_filter@@3HA DD 01H		; command_line_session_filter
?command_line_wobbly_camera@@3HA DD 01H			; command_line_wobbly_camera
?command_line_mouse_tsd_target_select@@3HA DD 01H	; command_line_mouse_tsd_target_select
?command_line_texture_colour@@3HA DD 02H		; command_line_texture_colour
?global_mipmapping@@3HA DD 01H				; global_mipmapping
?global_anisotropic@@3HA DD 01H				; global_anisotropic
?global_dynamic_water@@3HA DD 01H			; global_dynamic_water
?command_line_cannontrack@@3HA DD 01H			; command_line_cannontrack
?session_ground_radar_ignores_infantry@@3HA DD 01H	; session_ground_radar_ignores_infantry
?command_line_export_mfd_screen_width@@3HA DD 0280H	; command_line_export_mfd_screen_width
?command_line_export_mfd_screen_height@@3HA DD 0190H	; command_line_export_mfd_screen_height
?command_line_export_mfd_right_pos@@3PAHA DD 0180H	; command_line_export_mfd_right_pos
	DD	00H
	DD	0280H
	DD	0100H
?command_line_export_mfd_left_pos@@3PAHA DD 00H		; command_line_export_mfd_left_pos
	DD	00H
	DD	0100H
	DD	0100H
?command_line_export_mfd_single_pos@@3PAHA DD 00H	; command_line_export_mfd_single_pos
	DD	00H
	DD	0100H
	DD	0100H
?command_line_ui_sounds_muted@@3HA DD 01H		; command_line_ui_sounds_muted
?command_line_dynamics_retreating_blade_stall_effect@@3MA DD 03f800000r ; 1 ; command_line_dynamics_retreating_blade_stall_effect
?command_line_dynamics_rudder_value@@3MA DD 03f800000r ; 1 ; command_line_dynamics_rudder_value
?command_line_dynamics_rudder_acceleration@@3MA DD 03f4ccccdr ; 0.8 ; command_line_dynamics_rudder_acceleration
?command_line_collective_zone_1_limit@@3MA DD 03e99999ar ; 0.3 ; command_line_collective_zone_1_limit
?command_line_collective_zone_2_limit@@3MA DD 03f333333r ; 0.7 ; command_line_collective_zone_2_limit
?command_line_collective_percentage_at_zone1@@3MA DD 042700000r ; 60 ; command_line_collective_percentage_at_zone1
?command_line_dynamics_main_rotor_drag@@3MA DD 03f800000r ; 1 ; command_line_dynamics_main_rotor_drag
?command_line_dynamics_main_rotor_lift@@3MA DD 03f800000r ; 1 ; command_line_dynamics_main_rotor_lift
?command_line_dynamics_tail_rotor_drag@@3MA DD 03f800000r ; 1 ; command_line_dynamics_tail_rotor_drag
?command_line_dynamics_yaw_altitude_loss@@3MA DD 040a00000r ; 5 ; command_line_dynamics_yaw_altitude_loss
?command_line_comms_packet_resend_timer@@3MA DD 040a00000r ; 5 ; command_line_comms_packet_resend_timer
?command_line_comms_resend_timeout@@3MA DD 040000000r ; 2 ; command_line_comms_resend_timeout
?command_line_city_block_approximation_range@@3MA DD 043fa0000r ; 500 ; command_line_city_block_approximation_range
?command_line_user_invulnerable_time@@3MA DD 040a00000r ; 5 ; command_line_user_invulnerable_time
?command_line_object_lod_factor@@3MA DD 03f800000r ; 1	; command_line_object_lod_factor
?command_line_fog_of_war_maximum_value@@3MA DD 046610000r ; 14400 ; command_line_fog_of_war_maximum_value
?command_line_chaff_effectiveness@@3MA DD 03f800000r ; 1 ; command_line_chaff_effectiveness
?command_line_flare_effectiveness@@3MA DD 03f800000r ; 1 ; command_line_flare_effectiveness
?command_line_smoke_effectiveness@@3MA DD 03f800000r ; 1 ; command_line_smoke_effectiveness
?global_night_light_level@@3MA DD 03f800000r	; 1	; global_night_light_level
?global_hud_size2@@3MA DD 03f800000r		; 1	; global_hud_size2
?global_mfd_size@@3MA DD 03f800000r		; 1	; global_mfd_size
	ORG $+4
?command_line_debug_log_name@@3PADA DB 'DEBUG.LOG', 00H	; command_line_debug_log_name
	ORG $+90
	ORG $+4
?command_line_primary_server_setting@@3PADA DB 'hoxdna.org', 00H ; command_line_primary_server_setting
	ORG $+117
?command_line_secondary_server_setting@@3PADA DB 'eech.dhs.org', 00H ; command_line_secondary_server_setting
	ORG $+115
_DATA	ENDS
PUBLIC	?process_command_line@@YGXHQAPAD@Z		; process_command_line
PUBLIC	?process_environment_variable@@YGXPBD@Z		; process_environment_variable
PUBLIC	??_C@_0BM@CJAIJHKG@?$CFs?5command?5line?5?$CIargc?5?$DN?5?$CFd?$CJ@ ; `string'
PUBLIC	??_C@_0CA@HJIBBOCH@ARG?3?$CFs?0?5RESPONSE?3not?5recognized@ ; `string'
EXTRN	__imp__getenv:PROC
EXTRN	_memcpy:PROC
EXTRN	_strchr:PROC
EXTRN	_strcpy:PROC
EXTRN	_strlen:PROC
EXTRN	?debug_log@@YAXPBDZZ:PROC			; debug_log
EXTRN	?safe_malloc_memory@@YGPAXI@Z:PROC		; safe_malloc_memory
EXTRN	?safe_free@@YGXPAX@Z:PROC			; safe_free
EXTRN	?parse_option@@YGHPBD0@Z:PROC			; parse_option
;	COMDAT ??_C@_0CA@HJIBBOCH@ARG?3?$CFs?0?5RESPONSE?3not?5recognized@
CONST	SEGMENT
??_C@_0CA@HJIBBOCH@ARG?3?$CFs?0?5RESPONSE?3not?5recognized@ DB 'ARG:%s, R'
	DB	'ESPONSE:not recognized', 00H		; `string'
CONST	ENDS
;	COMDAT ??_C@_0BM@CJAIJHKG@?$CFs?5command?5line?5?$CIargc?5?$DN?5?$CFd?$CJ@
CONST	SEGMENT
??_C@_0BM@CJAIJHKG@?$CFs?5command?5line?5?$CIargc?5?$DN?5?$CFd?$CJ@ DB '%'
	DB	's command line (argc = %d)', 00H		; `string'
CONST	ENDS
_DATA	SEGMENT
?environment_variable@@3PADA DB 'ENVIRONMENT VARIABLE', 00H ; environment_variable
_DATA	ENDS
; Function compile flags: /Odtp /ZI
; File c:\users\nhv90\projects\eech\aphavoc\source\cmndline.c
;	COMDAT ?process_environment_variable@@YGXPBD@Z
_TEXT	SEGMENT
_ptr$ = -528						; size = 4
_buffer$ = -524						; size = 4
_env$ = -520						; size = 4
_argv$ = -516						; size = 512
_argc$ = -4						; size = 4
_name$ = 8						; size = 4
?process_environment_variable@@YGXPBD@Z PROC		; process_environment_variable, COMDAT

; 360  : {

  00000	55		 push	 ebp
  00001	8b ec		 mov	 ebp, esp
  00003	81 ec 90 02 00
	00		 sub	 esp, 656		; 00000290H
  00009	53		 push	 ebx
  0000a	56		 push	 esi
  0000b	57		 push	 edi

; 361  : 	int
; 362  : 		argc;
; 363  : 
; 364  : 	char
; 365  : 		*argv[128],
; 366  : 		*env,
; 367  : 		*buffer,
; 368  : 		*ptr;
; 369  : 
; 370  : 	if (name)

  0000c	83 7d 08 00	 cmp	 DWORD PTR _name$[ebp], 0
  00010	0f 84 74 01 00
	00		 je	 $LN1@process_en

; 371  : 	{
; 372  : 		env = getenv (name);

  00016	8b 45 08	 mov	 eax, DWORD PTR _name$[ebp]
  00019	50		 push	 eax
  0001a	ff 15 00 00 00
	00		 call	 DWORD PTR __imp__getenv
  00020	83 c4 04	 add	 esp, 4
  00023	89 85 f8 fd ff
	ff		 mov	 DWORD PTR _env$[ebp], eax

; 373  : 
; 374  : 		if (env)

  00029	83 bd f8 fd ff
	ff 00		 cmp	 DWORD PTR _env$[ebp], 0
  00030	0f 84 54 01 00
	00		 je	 $LN1@process_en

; 375  : 		{
; 376  : 			//
; 377  : 			// copy enviroment variable
; 378  : 			//
; 379  : 
; 380  : 			buffer = ( char * ) safe_malloc (strlen (env) + 1);

  00036	8b 85 f8 fd ff
	ff		 mov	 eax, DWORD PTR _env$[ebp]
  0003c	50		 push	 eax
  0003d	e8 00 00 00 00	 call	 _strlen
  00042	83 c4 04	 add	 esp, 4
  00045	83 c0 01	 add	 eax, 1
  00048	50		 push	 eax
  00049	e8 00 00 00 00	 call	 ?safe_malloc_memory@@YGPAXI@Z ; safe_malloc_memory
  0004e	89 85 f4 fd ff
	ff		 mov	 DWORD PTR _buffer$[ebp], eax

; 381  : 
; 382  : 			strcpy (buffer, env);

  00054	8b 85 f8 fd ff
	ff		 mov	 eax, DWORD PTR _env$[ebp]
  0005a	50		 push	 eax
  0005b	8b 8d f4 fd ff
	ff		 mov	 ecx, DWORD PTR _buffer$[ebp]
  00061	51		 push	 ecx
  00062	e8 00 00 00 00	 call	 _strcpy
  00067	83 c4 08	 add	 esp, 8

; 383  : 
; 384  : 			ptr = buffer;

  0006a	8b 85 f4 fd ff
	ff		 mov	 eax, DWORD PTR _buffer$[ebp]
  00070	89 85 f0 fd ff
	ff		 mov	 DWORD PTR _ptr$[ebp], eax

; 385  : 
; 386  : 			//
; 387  : 			// create standard argc and argv parameters
; 388  : 			//
; 389  : 
; 390  : 			argc = 0;

  00076	c7 45 fc 00 00
	00 00		 mov	 DWORD PTR _argc$[ebp], 0

; 391  : 
; 392  : 			argv[argc++] = environment_variable;

  0007d	8b 45 fc	 mov	 eax, DWORD PTR _argc$[ebp]
  00080	c7 84 85 fc fd
	ff ff 00 00 00
	00		 mov	 DWORD PTR _argv$[ebp+eax*4], OFFSET ?environment_variable@@3PADA
  0008b	8b 4d fc	 mov	 ecx, DWORD PTR _argc$[ebp]
  0008e	83 c1 01	 add	 ecx, 1
  00091	89 4d fc	 mov	 DWORD PTR _argc$[ebp], ecx

; 393  : 			argv[argc++] = ptr;

  00094	8b 45 fc	 mov	 eax, DWORD PTR _argc$[ebp]
  00097	8b 8d f0 fd ff
	ff		 mov	 ecx, DWORD PTR _ptr$[ebp]
  0009d	89 8c 85 fc fd
	ff ff		 mov	 DWORD PTR _argv$[ebp+eax*4], ecx
  000a4	8b 55 fc	 mov	 edx, DWORD PTR _argc$[ebp]
  000a7	83 c2 01	 add	 edx, 1
  000aa	89 55 fc	 mov	 DWORD PTR _argc$[ebp], edx
$LN2@process_en:

; 394  : 
; 395  : 			while (*ptr)

  000ad	8b 85 f0 fd ff
	ff		 mov	 eax, DWORD PTR _ptr$[ebp]
  000b3	0f b6 08	 movzx	 ecx, BYTE PTR [eax]
  000b6	85 c9		 test	 ecx, ecx
  000b8	0f 84 b0 00 00
	00		 je	 $LN3@process_en
$LN4@process_en:

; 396  : 			{
; 397  : 				//
; 398  : 				// skip white space
; 399  : 				//
; 400  : 
; 401  : 				while (*ptr)

  000be	8b 85 f0 fd ff
	ff		 mov	 eax, DWORD PTR _ptr$[ebp]
  000c4	0f b6 08	 movzx	 ecx, BYTE PTR [eax]
  000c7	85 c9		 test	 ecx, ecx
  000c9	74 23		 je	 SHORT $LN5@process_en

; 402  : 				{
; 403  : 					if (*ptr == ' ')

  000cb	8b 85 f0 fd ff
	ff		 mov	 eax, DWORD PTR _ptr$[ebp]
  000d1	0f b6 08	 movzx	 ecx, BYTE PTR [eax]
  000d4	83 f9 20	 cmp	 ecx, 32			; 00000020H
  000d7	75 11		 jne	 SHORT $LN10@process_en

; 404  : 					{
; 405  : 						ptr++;

  000d9	8b 85 f0 fd ff
	ff		 mov	 eax, DWORD PTR _ptr$[ebp]
  000df	83 c0 01	 add	 eax, 1
  000e2	89 85 f0 fd ff
	ff		 mov	 DWORD PTR _ptr$[ebp], eax

; 406  : 					}
; 407  : 					else

  000e8	eb 02		 jmp	 SHORT $LN11@process_en
$LN10@process_en:

; 408  : 					{
; 409  : 						break;

  000ea	eb 02		 jmp	 SHORT $LN5@process_en
$LN11@process_en:

; 410  : 					}
; 411  : 				}

  000ec	eb d0		 jmp	 SHORT $LN4@process_en
$LN5@process_en:

; 412  : 
; 413  : 				if (*ptr)

  000ee	8b 85 f0 fd ff
	ff		 mov	 eax, DWORD PTR _ptr$[ebp]
  000f4	0f b6 08	 movzx	 ecx, BYTE PTR [eax]
  000f7	85 c9		 test	 ecx, ecx
  000f9	74 6e		 je	 SHORT $LN12@process_en

; 414  : 				{
; 415  : 					argv[argc++] = ptr;

  000fb	8b 45 fc	 mov	 eax, DWORD PTR _argc$[ebp]
  000fe	8b 8d f0 fd ff
	ff		 mov	 ecx, DWORD PTR _ptr$[ebp]
  00104	89 8c 85 fc fd
	ff ff		 mov	 DWORD PTR _argv$[ebp+eax*4], ecx
  0010b	8b 55 fc	 mov	 edx, DWORD PTR _argc$[ebp]
  0010e	83 c2 01	 add	 edx, 1
  00111	89 55 fc	 mov	 DWORD PTR _argc$[ebp], edx
$LN6@process_en:

; 416  : 
; 417  : 					//
; 418  : 					// skip argument
; 419  : 					//
; 420  : 
; 421  : 					while (*ptr)

  00114	8b 85 f0 fd ff
	ff		 mov	 eax, DWORD PTR _ptr$[ebp]
  0011a	0f b6 08	 movzx	 ecx, BYTE PTR [eax]
  0011d	85 c9		 test	 ecx, ecx
  0011f	74 23		 je	 SHORT $LN7@process_en

; 422  : 					{
; 423  : 						if (!(*ptr == ' '))

  00121	8b 85 f0 fd ff
	ff		 mov	 eax, DWORD PTR _ptr$[ebp]
  00127	0f b6 08	 movzx	 ecx, BYTE PTR [eax]
  0012a	83 f9 20	 cmp	 ecx, 32			; 00000020H
  0012d	74 11		 je	 SHORT $LN13@process_en

; 424  : 						{
; 425  : 							ptr++;

  0012f	8b 85 f0 fd ff
	ff		 mov	 eax, DWORD PTR _ptr$[ebp]
  00135	83 c0 01	 add	 eax, 1
  00138	89 85 f0 fd ff
	ff		 mov	 DWORD PTR _ptr$[ebp], eax

; 426  : 						}
; 427  : 						else

  0013e	eb 02		 jmp	 SHORT $LN14@process_en
$LN13@process_en:

; 428  : 						{
; 429  : 							break;

  00140	eb 02		 jmp	 SHORT $LN7@process_en
$LN14@process_en:

; 430  : 						}
; 431  : 					}

  00142	eb d0		 jmp	 SHORT $LN6@process_en
$LN7@process_en:

; 432  : 
; 433  : 					if (*ptr)

  00144	8b 85 f0 fd ff
	ff		 mov	 eax, DWORD PTR _ptr$[ebp]
  0014a	0f b6 08	 movzx	 ecx, BYTE PTR [eax]
  0014d	85 c9		 test	 ecx, ecx
  0014f	74 18		 je	 SHORT $LN12@process_en

; 434  : 					{
; 435  : 						*ptr++ = 0;

  00151	8b 85 f0 fd ff
	ff		 mov	 eax, DWORD PTR _ptr$[ebp]
  00157	c6 00 00	 mov	 BYTE PTR [eax], 0
  0015a	8b 8d f0 fd ff
	ff		 mov	 ecx, DWORD PTR _ptr$[ebp]
  00160	83 c1 01	 add	 ecx, 1
  00163	89 8d f0 fd ff
	ff		 mov	 DWORD PTR _ptr$[ebp], ecx
$LN12@process_en:

; 436  : 					}
; 437  : 				}
; 438  : 			}

  00169	e9 3f ff ff ff	 jmp	 $LN2@process_en
$LN3@process_en:

; 439  : 
; 440  : 			process_command_line (argc, argv);

  0016e	8d 85 fc fd ff
	ff		 lea	 eax, DWORD PTR _argv$[ebp]
  00174	50		 push	 eax
  00175	8b 4d fc	 mov	 ecx, DWORD PTR _argc$[ebp]
  00178	51		 push	 ecx
  00179	e8 00 00 00 00	 call	 ?process_command_line@@YGXHQAPAD@Z ; process_command_line

; 441  : 
; 442  : 			safe_free (buffer);

  0017e	8b 85 f4 fd ff
	ff		 mov	 eax, DWORD PTR _buffer$[ebp]
  00184	50		 push	 eax
  00185	e8 00 00 00 00	 call	 ?safe_free@@YGXPAX@Z	; safe_free
$LN1@process_en:

; 443  : 		}
; 444  : 	}
; 445  : }

  0018a	5f		 pop	 edi
  0018b	5e		 pop	 esi
  0018c	5b		 pop	 ebx
  0018d	8b e5		 mov	 esp, ebp
  0018f	5d		 pop	 ebp
  00190	c2 04 00	 ret	 4
?process_environment_variable@@YGXPBD@Z ENDP		; process_environment_variable
_TEXT	ENDS
; Function compile flags: /Odtp /ZI
; File c:\users\nhv90\projects\eech\aphavoc\source\cmndline.c
;	COMDAT ?process_command_line@@YGXHQAPAD@Z
_TEXT	SEGMENT
tv92 = -204						; size = 4
tv71 = -204						; size = 4
_buf$ = -136						; size = 128
_s2$ = -8						; size = 4
_s1$ = -4						; size = 4
_argc$ = 8						; size = 4
_argv$ = 12						; size = 4
?process_command_line@@YGXHQAPAD@Z PROC			; process_command_line, COMDAT

; 316  : {

  00000	55		 push	 ebp
  00001	8b ec		 mov	 ebp, esp
  00003	81 ec cc 00 00
	00		 sub	 esp, 204		; 000000ccH
  00009	53		 push	 ebx
  0000a	56		 push	 esi
  0000b	57		 push	 edi

; 317  : 	const char
; 318  : 		*s1,
; 319  : 		*s2;
; 320  : 	char
; 321  : 		buf[128];
; 322  : 
; 323  : 	debug_log ("%s command line (argc = %d)", *argv, argc);

  0000c	8b 45 08	 mov	 eax, DWORD PTR _argc$[ebp]
  0000f	50		 push	 eax
  00010	8b 4d 0c	 mov	 ecx, DWORD PTR _argv$[ebp]
  00013	8b 11		 mov	 edx, DWORD PTR [ecx]
  00015	52		 push	 edx
  00016	68 00 00 00 00	 push	 OFFSET ??_C@_0BM@CJAIJHKG@?$CFs?5command?5line?5?$CIargc?5?$DN?5?$CFd?$CJ@
  0001b	e8 00 00 00 00	 call	 ?debug_log@@YAXPBDZZ	; debug_log
  00020	83 c4 0c	 add	 esp, 12			; 0000000cH

; 324  : 
; 325  : 	//
; 326  : 	// skip program name in command line
; 327  : 	//
; 328  : 
; 329  : 	argc--;

  00023	8b 45 08	 mov	 eax, DWORD PTR _argc$[ebp]
  00026	83 e8 01	 sub	 eax, 1
  00029	89 45 08	 mov	 DWORD PTR _argc$[ebp], eax

; 330  : 	argv++;

  0002c	8b 45 0c	 mov	 eax, DWORD PTR _argv$[ebp]
  0002f	83 c0 04	 add	 eax, 4
  00032	89 45 0c	 mov	 DWORD PTR _argv$[ebp], eax
$LN2@process_co:

; 331  : 
; 332  : 	while (argc--)

  00035	8b 45 08	 mov	 eax, DWORD PTR _argc$[ebp]
  00038	89 85 34 ff ff
	ff		 mov	 DWORD PTR tv71[ebp], eax
  0003e	8b 4d 08	 mov	 ecx, DWORD PTR _argc$[ebp]
  00041	83 e9 01	 sub	 ecx, 1
  00044	89 4d 08	 mov	 DWORD PTR _argc$[ebp], ecx
  00047	83 bd 34 ff ff
	ff 00		 cmp	 DWORD PTR tv71[ebp], 0
  0004e	0f 84 c0 00 00
	00		 je	 $LN1@process_co

; 333  : 	{
; 334  : 		s1 = *argv++;

  00054	8b 45 0c	 mov	 eax, DWORD PTR _argv$[ebp]
  00057	8b 08		 mov	 ecx, DWORD PTR [eax]
  00059	89 4d fc	 mov	 DWORD PTR _s1$[ebp], ecx
  0005c	8b 55 0c	 mov	 edx, DWORD PTR _argv$[ebp]
  0005f	83 c2 04	 add	 edx, 4
  00062	89 55 0c	 mov	 DWORD PTR _argv$[ebp], edx

; 335  : 
; 336  : 		if ( *s1 == '-' || *s1 == '/' )

  00065	8b 45 fc	 mov	 eax, DWORD PTR _s1$[ebp]
  00068	0f b6 08	 movzx	 ecx, BYTE PTR [eax]
  0006b	83 f9 2d	 cmp	 ecx, 45			; 0000002dH
  0006e	74 0b		 je	 SHORT $LN5@process_co
  00070	8b 45 fc	 mov	 eax, DWORD PTR _s1$[ebp]
  00073	0f b6 08	 movzx	 ecx, BYTE PTR [eax]
  00076	83 f9 2f	 cmp	 ecx, 47			; 0000002fH
  00079	75 09		 jne	 SHORT $LN4@process_co
$LN5@process_co:

; 337  : 			s1++;

  0007b	8b 45 fc	 mov	 eax, DWORD PTR _s1$[ebp]
  0007e	83 c0 01	 add	 eax, 1
  00081	89 45 fc	 mov	 DWORD PTR _s1$[ebp], eax
$LN4@process_co:

; 338  : 
; 339  : 		s2 = strchr ( s1, ':' );

  00084	6a 3a		 push	 58			; 0000003aH
  00086	8b 45 fc	 mov	 eax, DWORD PTR _s1$[ebp]
  00089	50		 push	 eax
  0008a	e8 00 00 00 00	 call	 _strchr
  0008f	83 c4 08	 add	 esp, 8
  00092	89 45 f8	 mov	 DWORD PTR _s2$[ebp], eax

; 340  : 
; 341  : 		if ( s2 )

  00095	83 7d f8 00	 cmp	 DWORD PTR _s2$[ebp], 0
  00099	74 31		 je	 SHORT $LN6@process_co

; 342  : 		{
; 343  : 			memcpy ( buf, s1, s2 - s1 );

  0009b	8b 45 f8	 mov	 eax, DWORD PTR _s2$[ebp]
  0009e	2b 45 fc	 sub	 eax, DWORD PTR _s1$[ebp]
  000a1	50		 push	 eax
  000a2	8b 4d fc	 mov	 ecx, DWORD PTR _s1$[ebp]
  000a5	51		 push	 ecx
  000a6	8d 95 78 ff ff
	ff		 lea	 edx, DWORD PTR _buf$[ebp]
  000ac	52		 push	 edx
  000ad	e8 00 00 00 00	 call	 _memcpy
  000b2	83 c4 0c	 add	 esp, 12			; 0000000cH

; 344  : 			buf[s2 - s1] = '\0';

  000b5	8b 45 f8	 mov	 eax, DWORD PTR _s2$[ebp]
  000b8	2b 45 fc	 sub	 eax, DWORD PTR _s1$[ebp]
  000bb	c6 84 05 78 ff
	ff ff 00	 mov	 BYTE PTR _buf$[ebp+eax], 0

; 345  : 			s1 = buf;

  000c3	8d 85 78 ff ff
	ff		 lea	 eax, DWORD PTR _buf$[ebp]
  000c9	89 45 fc	 mov	 DWORD PTR _s1$[ebp], eax
$LN6@process_co:

; 346  : 		}
; 347  : 
; 348  : 		if ( !parse_option ( s1, s2 ? s2 + 1 : NULL ) )

  000cc	83 7d f8 00	 cmp	 DWORD PTR _s2$[ebp], 0
  000d0	74 0e		 je	 SHORT $LN9@process_co
  000d2	8b 45 f8	 mov	 eax, DWORD PTR _s2$[ebp]
  000d5	83 c0 01	 add	 eax, 1
  000d8	89 85 34 ff ff
	ff		 mov	 DWORD PTR tv92[ebp], eax
  000de	eb 0a		 jmp	 SHORT $LN10@process_co
$LN9@process_co:
  000e0	c7 85 34 ff ff
	ff 00 00 00 00	 mov	 DWORD PTR tv92[ebp], 0
$LN10@process_co:
  000ea	8b 8d 34 ff ff
	ff		 mov	 ecx, DWORD PTR tv92[ebp]
  000f0	51		 push	 ecx
  000f1	8b 55 fc	 mov	 edx, DWORD PTR _s1$[ebp]
  000f4	52		 push	 edx
  000f5	e8 00 00 00 00	 call	 ?parse_option@@YGHPBD0@Z ; parse_option
  000fa	85 c0		 test	 eax, eax
  000fc	75 11		 jne	 SHORT $LN7@process_co

; 349  : 		{
; 350  : 			debug_log ( "ARG:%s, RESPONSE:not recognized", s1 );

  000fe	8b 45 fc	 mov	 eax, DWORD PTR _s1$[ebp]
  00101	50		 push	 eax
  00102	68 00 00 00 00	 push	 OFFSET ??_C@_0CA@HJIBBOCH@ARG?3?$CFs?0?5RESPONSE?3not?5recognized@
  00107	e8 00 00 00 00	 call	 ?debug_log@@YAXPBDZZ	; debug_log
  0010c	83 c4 08	 add	 esp, 8
$LN7@process_co:

; 351  : 		}
; 352  : 	}

  0010f	e9 21 ff ff ff	 jmp	 $LN2@process_co
$LN1@process_co:

; 353  : }

  00114	5f		 pop	 edi
  00115	5e		 pop	 esi
  00116	5b		 pop	 ebx
  00117	8b e5		 mov	 esp, ebp
  00119	5d		 pop	 ebp
  0011a	c2 08 00	 ret	 8
?process_command_line@@YGXHQAPAD@Z ENDP			; process_command_line
_TEXT	ENDS
END
