; Listing generated by Microsoft (R) Optimizing Compiler Version 19.16.27045.0 

	TITLE	C:\Users\nhv90\Projects\eech\aphavoc\source\gunships\avionics\common\co_dam.c
	.686P
	.XMM
	include listing.inc
	.model	flat

INCLUDELIB MSVCRTD
INCLUDELIB OLDNAMES

PUBLIC	?fire_extinguisher_used@@3HA			; fire_extinguisher_used
_BSS	SEGMENT
?fire_extinguisher_used@@3HA DD 01H DUP (?)		; fire_extinguisher_used
_BSS	ENDS
PUBLIC	?fully_repair_gunship_damage@@YGXXZ		; fully_repair_gunship_damage
PUBLIC	?partially_repair_gunship_damage@@YGXXZ		; partially_repair_gunship_damage
PUBLIC	?repair_gunship_weapon_damage@@YGXXZ		; repair_gunship_weapon_damage
PUBLIC	?damage_gunship@@YGXW4GUNSHIP_DAMAGE_LEVELS@@@Z	; damage_gunship
PUBLIC	?get_gunship_comms_equipment_ok@@YGHXZ		; get_gunship_comms_equipment_ok
PUBLIC	?notify_avionics_of_dynamics_fault@@YGXI@Z	; notify_avionics_of_dynamics_fault
PUBLIC	?damage_client_server_entity_avionics@@YGXPAUENTITY@@W4GUNSHIP_DAMAGE_LEVELS@@@Z ; damage_client_server_entity_avionics
PUBLIC	?fully_repair_local_entity_avionics@@YGXPAUENTITY@@@Z ; fully_repair_local_entity_avionics
PUBLIC	?partially_repair_local_entity_avionics@@YGXPAUENTITY@@@Z ; partially_repair_local_entity_avionics
PUBLIC	?load_gunship_avionics_damage@@YGXXZ		; load_gunship_avionics_damage
PUBLIC	?save_gunship_avionics_damage@@YGXXZ		; save_gunship_avionics_damage
PUBLIC	?__LINE__Var@?0??damage_client_server_entity_avionics@@YGXPAUENTITY@@W4GUNSHIP_DAMAGE_LEVELS@@@Z@4JA ; `damage_client_server_entity_avionics'::`1'::__LINE__Var
PUBLIC	??_C@_0EO@BCFJKHLO@c?3?2users?2nhv90?2projects?2eech?2ap@ ; `string'
PUBLIC	??_C@_02LFNMGJAP@en@				; `string'
PUBLIC	?__LINE__Var@?0??fully_repair_local_entity_avionics@@YGXPAUENTITY@@@Z@4JA ; `fully_repair_local_entity_avionics'::`1'::__LINE__Var
PUBLIC	?__LINE__Var@?0??partially_repair_local_entity_avionics@@YGXPAUENTITY@@@Z@4JA ; `partially_repair_local_entity_avionics'::`1'::__LINE__Var
PUBLIC	?__LINE__Var@?0??load_gunship_avionics_damage@@YGXXZ@4JA ; `load_gunship_avionics_damage'::`1'::__LINE__Var
PUBLIC	??_C@_0BH@HGDMPAF@Load?5Apache?5damage?3?5?$CFx@ ; `string'
PUBLIC	??_C@_0BG@FALBGNLD@Load?5Havoc?5damage?3?5?$CFx@ ; `string'
PUBLIC	??_C@_0BJ@BDHGJBOL@Load?5Comanche?5damage?3?5?$CFx@ ; `string'
PUBLIC	??_C@_0BG@IGDMJMBM@Load?5Hokum?5damage?3?5?$CFx@ ; `string'
PUBLIC	??_C@_0BK@PMOMHLEJ@Load?5blackhawk?5damage?3?5?$CFx@ ; `string'
PUBLIC	??_C@_0BF@EDJGJPFA@Load?5Hind?5damage?3?5?$CFx@	; `string'
PUBLIC	??_C@_0BG@ELOLAM@Load?5ah64a?5damage?3?5?$CFx@	; `string'
PUBLIC	??_C@_0BF@BDOIDBMP@Load?5ka50?5damage?3?5?$CFx@	; `string'
PUBLIC	??_C@_0BG@MCCINANL@Load?5viper?5damage?3?5?$CFx@ ; `string'
PUBLIC	??_C@_0BG@HHJPLGEJ@Load?5Kiowa?5damage?3?5?$CFx@ ; `string'
PUBLIC	??_C@_0BI@FGBPOHAK@Load?5default?5damage?3?5?$CFx@ ; `string'
PUBLIC	?__LINE__Var@?0??save_gunship_avionics_damage@@YGXXZ@4JA ; `save_gunship_avionics_damage'::`1'::__LINE__Var
PUBLIC	??_C@_0BH@PMMHEBLD@Save?5Apache?5damage?3?5?$CFx@ ; `string'
PUBLIC	??_C@_0BG@CAHDLOOM@Save?5Havoc?5damage?3?5?$CFx@ ; `string'
PUBLIC	??_C@_0BJ@KLOJMNFG@Save?5Comanche?5damage?3?5?$CFx@ ; `string'
PUBLIC	??_C@_0BG@PGPOEPED@Save?5Hokum?5damage?3?5?$CFx@ ; `string'
PUBLIC	??_C@_0BK@NOEMAOPM@Save?5Blackhawk?5damage?3?5?$CFx@ ; `string'
PUBLIC	??_C@_0BF@OLLBEPFF@Save?5Hind?5damage?3?5?$CFx@	; `string'
PUBLIC	??_C@_0BG@HAIJDIFD@Save?5ah64a?5damage?3?5?$CFx@ ; `string'
PUBLIC	??_C@_0BF@LLMPOBMK@Save?5ka50?5damage?3?5?$CFx@	; `string'
PUBLIC	??_C@_0BG@LCOKADIE@Save?5viper?5damage?3?5?$CFx@ ; `string'
PUBLIC	??_C@_0BG@HFNGFBG@Save?5Kiowa?5damage?3?5?$CFx@	; `string'
PUBLIC	??_C@_0BI@HEOGFFDN@Save?5default?5damage?3?5?$CFx@ ; `string'
EXTRN	?process_assert@@YGXPBD0H@Z:PROC		; process_assert
EXTRN	?debug_colour_log@@YAXW4DEBUG_COLOURS@@PBDZZ:PROC ; debug_colour_log
EXTRN	?transmit_entity_comms_message@@YAXW4ENTITY_COMMS_MESSAGES@@PAUENTITY@@ZZ:PROC ; transmit_entity_comms_message
EXTRN	?set_apache_weapon_damage_status@@YGXXZ:PROC	; set_apache_weapon_damage_status
EXTRN	?fully_repair_apache_damage@@YGXXZ:PROC		; fully_repair_apache_damage
EXTRN	?partially_repair_apache_damage@@YGXXZ:PROC	; partially_repair_apache_damage
EXTRN	?repair_apache_weapon_damage@@YGXXZ:PROC	; repair_apache_weapon_damage
EXTRN	?damage_apache@@YGXW4GUNSHIP_DAMAGE_LEVELS@@@Z:PROC ; damage_apache
EXTRN	?notify_apache_avionics_of_dynamics_fault@@YGXI@Z:PROC ; notify_apache_avionics_of_dynamics_fault
EXTRN	?set_comanche_weapon_damage_status@@YGXXZ:PROC	; set_comanche_weapon_damage_status
EXTRN	?fully_repair_comanche_damage@@YGXXZ:PROC	; fully_repair_comanche_damage
EXTRN	?partially_repair_comanche_damage@@YGXXZ:PROC	; partially_repair_comanche_damage
EXTRN	?repair_comanche_weapon_damage@@YGXXZ:PROC	; repair_comanche_weapon_damage
EXTRN	?damage_comanche@@YGXW4GUNSHIP_DAMAGE_LEVELS@@@Z:PROC ; damage_comanche
EXTRN	?notify_comanche_avionics_of_dynamics_fault@@YGXI@Z:PROC ; notify_comanche_avionics_of_dynamics_fault
EXTRN	?set_havoc_weapon_damage_status@@YGXXZ:PROC	; set_havoc_weapon_damage_status
EXTRN	?fully_repair_havoc_damage@@YGXXZ:PROC		; fully_repair_havoc_damage
EXTRN	?partially_repair_havoc_damage@@YGXXZ:PROC	; partially_repair_havoc_damage
EXTRN	?repair_havoc_weapon_damage@@YGXXZ:PROC		; repair_havoc_weapon_damage
EXTRN	?damage_havoc@@YGXW4GUNSHIP_DAMAGE_LEVELS@@@Z:PROC ; damage_havoc
EXTRN	?notify_havoc_avionics_of_dynamics_fault@@YGXI@Z:PROC ; notify_havoc_avionics_of_dynamics_fault
EXTRN	?set_hokum_weapon_damage_status@@YGXXZ:PROC	; set_hokum_weapon_damage_status
EXTRN	?fully_repair_hokum_damage@@YGXXZ:PROC		; fully_repair_hokum_damage
EXTRN	?partially_repair_hokum_damage@@YGXXZ:PROC	; partially_repair_hokum_damage
EXTRN	?repair_hokum_weapon_damage@@YGXXZ:PROC		; repair_hokum_weapon_damage
EXTRN	?damage_hokum@@YGXW4GUNSHIP_DAMAGE_LEVELS@@@Z:PROC ; damage_hokum
EXTRN	?notify_hokum_avionics_of_dynamics_fault@@YGXI@Z:PROC ; notify_hokum_avionics_of_dynamics_fault
EXTRN	?set_blackhawk_weapon_damage_status@@YGXXZ:PROC	; set_blackhawk_weapon_damage_status
EXTRN	?fully_repair_blackhawk_damage@@YGXXZ:PROC	; fully_repair_blackhawk_damage
EXTRN	?partially_repair_blackhawk_damage@@YGXXZ:PROC	; partially_repair_blackhawk_damage
EXTRN	?repair_blackhawk_weapon_damage@@YGXXZ:PROC	; repair_blackhawk_weapon_damage
EXTRN	?damage_blackhawk@@YGXW4GUNSHIP_DAMAGE_LEVELS@@@Z:PROC ; damage_blackhawk
EXTRN	?notify_blackhawk_avionics_of_dynamics_fault@@YGXI@Z:PROC ; notify_blackhawk_avionics_of_dynamics_fault
EXTRN	?set_hind_weapon_damage_status@@YGXXZ:PROC	; set_hind_weapon_damage_status
EXTRN	?fully_repair_hind_damage@@YGXXZ:PROC		; fully_repair_hind_damage
EXTRN	?partially_repair_hind_damage@@YGXXZ:PROC	; partially_repair_hind_damage
EXTRN	?repair_hind_weapon_damage@@YGXXZ:PROC		; repair_hind_weapon_damage
EXTRN	?damage_hind@@YGXW4GUNSHIP_DAMAGE_LEVELS@@@Z:PROC ; damage_hind
EXTRN	?notify_hind_avionics_of_dynamics_fault@@YGXI@Z:PROC ; notify_hind_avionics_of_dynamics_fault
EXTRN	?set_ah64a_weapon_damage_status@@YGXXZ:PROC	; set_ah64a_weapon_damage_status
EXTRN	?fully_repair_ah64a_damage@@YGXXZ:PROC		; fully_repair_ah64a_damage
EXTRN	?partially_repair_ah64a_damage@@YGXXZ:PROC	; partially_repair_ah64a_damage
EXTRN	?repair_ah64a_weapon_damage@@YGXXZ:PROC		; repair_ah64a_weapon_damage
EXTRN	?damage_ah64a@@YGXW4GUNSHIP_DAMAGE_LEVELS@@@Z:PROC ; damage_ah64a
EXTRN	?notify_ah64a_avionics_of_dynamics_fault@@YGXI@Z:PROC ; notify_ah64a_avionics_of_dynamics_fault
EXTRN	?set_ka50_weapon_damage_status@@YGXXZ:PROC	; set_ka50_weapon_damage_status
EXTRN	?fully_repair_ka50_damage@@YGXXZ:PROC		; fully_repair_ka50_damage
EXTRN	?partially_repair_ka50_damage@@YGXXZ:PROC	; partially_repair_ka50_damage
EXTRN	?repair_ka50_weapon_damage@@YGXXZ:PROC		; repair_ka50_weapon_damage
EXTRN	?damage_ka50@@YGXW4GUNSHIP_DAMAGE_LEVELS@@@Z:PROC ; damage_ka50
EXTRN	?notify_ka50_avionics_of_dynamics_fault@@YGXI@Z:PROC ; notify_ka50_avionics_of_dynamics_fault
EXTRN	?set_viper_weapon_damage_status@@YGXXZ:PROC	; set_viper_weapon_damage_status
EXTRN	?fully_repair_viper_damage@@YGXXZ:PROC		; fully_repair_viper_damage
EXTRN	?partially_repair_viper_damage@@YGXXZ:PROC	; partially_repair_viper_damage
EXTRN	?repair_viper_weapon_damage@@YGXXZ:PROC		; repair_viper_weapon_damage
EXTRN	?damage_viper@@YGXW4GUNSHIP_DAMAGE_LEVELS@@@Z:PROC ; damage_viper
EXTRN	?notify_viper_avionics_of_dynamics_fault@@YGXI@Z:PROC ; notify_viper_avionics_of_dynamics_fault
EXTRN	?set_kiowa_weapon_damage_status@@YGXXZ:PROC	; set_kiowa_weapon_damage_status
EXTRN	?fully_repair_kiowa_damage@@YGXXZ:PROC		; fully_repair_kiowa_damage
EXTRN	?partially_repair_kiowa_damage@@YGXXZ:PROC	; partially_repair_kiowa_damage
EXTRN	?repair_kiowa_weapon_damage@@YGXXZ:PROC		; repair_kiowa_weapon_damage
EXTRN	?damage_kiowa@@YGXW4GUNSHIP_DAMAGE_LEVELS@@@Z:PROC ; damage_kiowa
EXTRN	?notify_kiowa_avionics_of_dynamics_fault@@YGXI@Z:PROC ; notify_kiowa_avionics_of_dynamics_fault
EXTRN	?set_default_weapon_damage_status@@YGXXZ:PROC	; set_default_weapon_damage_status
EXTRN	?fully_repair_default_damage@@YGXXZ:PROC	; fully_repair_default_damage
EXTRN	?partially_repair_default_damage@@YGXXZ:PROC	; partially_repair_default_damage
EXTRN	?repair_default_weapon_damage@@YGXXZ:PROC	; repair_default_weapon_damage
EXTRN	?damage_default@@YGXW4GUNSHIP_DAMAGE_LEVELS@@@Z:PROC ; damage_default
EXTRN	?notify_default_avionics_of_dynamics_fault@@YGXI@Z:PROC ; notify_default_avionics_of_dynamics_fault
EXTRN	?null_entity_pointer_message@@3PBDB:DWORD	; null_entity_pointer_message
EXTRN	?global_options@@3UGLOBAL_OPTIONS_DATA@@A:BYTE	; global_options
EXTRN	?overload_invalid_int_type_message@@3PBDB:DWORD	; overload_invalid_int_type_message
EXTRN	?fn_set_local_entity_int_value@@3PAY0BBH@P6GXPAUENTITY@@W4INT_TYPES@@H@ZA:BYTE ; fn_set_local_entity_int_value
EXTRN	?fn_get_local_entity_int_value@@3PAY0BBH@P6GHPAUENTITY@@W4INT_TYPES@@@ZA:BYTE ; fn_get_local_entity_int_value
EXTRN	?gunship_entity@@3PAUENTITY@@A:DWORD		; gunship_entity
EXTRN	?apache_damage@@3TAPACHE_DAMAGE_FLAGS@@A:DWORD	; apache_damage
EXTRN	?comanche_damage@@3TCOMANCHE_DAMAGE_FLAGS@@A:DWORD ; comanche_damage
EXTRN	?havoc_damage@@3THAVOC_DAMAGE_FLAGS@@A:DWORD	; havoc_damage
EXTRN	?hokum_damage@@3THOKUM_DAMAGE_FLAGS@@A:DWORD	; hokum_damage
EXTRN	?blackhawk_damage@@3TBLACKHAWK_DAMAGE_FLAGS@@A:DWORD ; blackhawk_damage
EXTRN	?hind_damage@@3THIND_DAMAGE_FLAGS@@A:DWORD	; hind_damage
EXTRN	?ah64a_damage@@3TAH64A_DAMAGE_FLAGS@@A:DWORD	; ah64a_damage
EXTRN	?ka50_damage@@3TKA50_DAMAGE_FLAGS@@A:DWORD	; ka50_damage
EXTRN	?viper_damage@@3TVIPER_DAMAGE_FLAGS@@A:DWORD	; viper_damage
EXTRN	?kiowa_damage@@3TKIOWA_DAMAGE_FLAGS@@A:DWORD	; kiowa_damage
EXTRN	?default_damage@@3TDEFAULT_DAMAGE_FLAGS@@A:DWORD ; default_damage
;	COMDAT ??_C@_0BI@HEOGFFDN@Save?5default?5damage?3?5?$CFx@
CONST	SEGMENT
??_C@_0BI@HEOGFFDN@Save?5default?5damage?3?5?$CFx@ DB 'Save default damag'
	DB	'e: %x', 00H					; `string'
CONST	ENDS
;	COMDAT ??_C@_0BG@HFNGFBG@Save?5Kiowa?5damage?3?5?$CFx@
CONST	SEGMENT
??_C@_0BG@HFNGFBG@Save?5Kiowa?5damage?3?5?$CFx@ DB 'Save Kiowa damage: %x'
	DB	00H						; `string'
CONST	ENDS
;	COMDAT ??_C@_0BG@LCOKADIE@Save?5viper?5damage?3?5?$CFx@
CONST	SEGMENT
??_C@_0BG@LCOKADIE@Save?5viper?5damage?3?5?$CFx@ DB 'Save viper damage: %'
	DB	'x', 00H					; `string'
CONST	ENDS
;	COMDAT ??_C@_0BF@LLMPOBMK@Save?5ka50?5damage?3?5?$CFx@
CONST	SEGMENT
??_C@_0BF@LLMPOBMK@Save?5ka50?5damage?3?5?$CFx@ DB 'Save ka50 damage: %x', 00H ; `string'
CONST	ENDS
;	COMDAT ??_C@_0BG@HAIJDIFD@Save?5ah64a?5damage?3?5?$CFx@
CONST	SEGMENT
??_C@_0BG@HAIJDIFD@Save?5ah64a?5damage?3?5?$CFx@ DB 'Save ah64a damage: %'
	DB	'x', 00H					; `string'
CONST	ENDS
;	COMDAT ??_C@_0BF@OLLBEPFF@Save?5Hind?5damage?3?5?$CFx@
CONST	SEGMENT
??_C@_0BF@OLLBEPFF@Save?5Hind?5damage?3?5?$CFx@ DB 'Save Hind damage: %x', 00H ; `string'
CONST	ENDS
;	COMDAT ??_C@_0BK@NOEMAOPM@Save?5Blackhawk?5damage?3?5?$CFx@
CONST	SEGMENT
??_C@_0BK@NOEMAOPM@Save?5Blackhawk?5damage?3?5?$CFx@ DB 'Save Blackhawk d'
	DB	'amage: %x', 00H				; `string'
CONST	ENDS
;	COMDAT ??_C@_0BG@PGPOEPED@Save?5Hokum?5damage?3?5?$CFx@
CONST	SEGMENT
??_C@_0BG@PGPOEPED@Save?5Hokum?5damage?3?5?$CFx@ DB 'Save Hokum damage: %'
	DB	'x', 00H					; `string'
CONST	ENDS
;	COMDAT ??_C@_0BJ@KLOJMNFG@Save?5Comanche?5damage?3?5?$CFx@
CONST	SEGMENT
??_C@_0BJ@KLOJMNFG@Save?5Comanche?5damage?3?5?$CFx@ DB 'Save Comanche dam'
	DB	'age: %x', 00H				; `string'
CONST	ENDS
;	COMDAT ??_C@_0BG@CAHDLOOM@Save?5Havoc?5damage?3?5?$CFx@
CONST	SEGMENT
??_C@_0BG@CAHDLOOM@Save?5Havoc?5damage?3?5?$CFx@ DB 'Save Havoc damage: %'
	DB	'x', 00H					; `string'
CONST	ENDS
;	COMDAT ??_C@_0BH@PMMHEBLD@Save?5Apache?5damage?3?5?$CFx@
CONST	SEGMENT
??_C@_0BH@PMMHEBLD@Save?5Apache?5damage?3?5?$CFx@ DB 'Save Apache damage:'
	DB	' %x', 00H					; `string'
CONST	ENDS
;	COMDAT ?__LINE__Var@?0??save_gunship_avionics_damage@@YGXXZ@4JA
_DATA	SEGMENT
?__LINE__Var@?0??save_gunship_avionics_damage@@YGXXZ@4JA DD 045cH ; `save_gunship_avionics_damage'::`1'::__LINE__Var
_DATA	ENDS
;	COMDAT ??_C@_0BI@FGBPOHAK@Load?5default?5damage?3?5?$CFx@
CONST	SEGMENT
??_C@_0BI@FGBPOHAK@Load?5default?5damage?3?5?$CFx@ DB 'Load default damag'
	DB	'e: %x', 00H					; `string'
CONST	ENDS
;	COMDAT ??_C@_0BG@HHJPLGEJ@Load?5Kiowa?5damage?3?5?$CFx@
CONST	SEGMENT
??_C@_0BG@HHJPLGEJ@Load?5Kiowa?5damage?3?5?$CFx@ DB 'Load Kiowa damage: %'
	DB	'x', 00H					; `string'
CONST	ENDS
;	COMDAT ??_C@_0BG@MCCINANL@Load?5viper?5damage?3?5?$CFx@
CONST	SEGMENT
??_C@_0BG@MCCINANL@Load?5viper?5damage?3?5?$CFx@ DB 'Load viper damage: %'
	DB	'x', 00H					; `string'
CONST	ENDS
;	COMDAT ??_C@_0BF@BDOIDBMP@Load?5ka50?5damage?3?5?$CFx@
CONST	SEGMENT
??_C@_0BF@BDOIDBMP@Load?5ka50?5damage?3?5?$CFx@ DB 'Load ka50 damage: %x', 00H ; `string'
CONST	ENDS
;	COMDAT ??_C@_0BG@ELOLAM@Load?5ah64a?5damage?3?5?$CFx@
CONST	SEGMENT
??_C@_0BG@ELOLAM@Load?5ah64a?5damage?3?5?$CFx@ DB 'Load ah64a damage: %x', 00H ; `string'
CONST	ENDS
;	COMDAT ??_C@_0BF@EDJGJPFA@Load?5Hind?5damage?3?5?$CFx@
CONST	SEGMENT
??_C@_0BF@EDJGJPFA@Load?5Hind?5damage?3?5?$CFx@ DB 'Load Hind damage: %x', 00H ; `string'
CONST	ENDS
;	COMDAT ??_C@_0BK@PMOMHLEJ@Load?5blackhawk?5damage?3?5?$CFx@
CONST	SEGMENT
??_C@_0BK@PMOMHLEJ@Load?5blackhawk?5damage?3?5?$CFx@ DB 'Load blackhawk d'
	DB	'amage: %x', 00H				; `string'
CONST	ENDS
;	COMDAT ??_C@_0BG@IGDMJMBM@Load?5Hokum?5damage?3?5?$CFx@
CONST	SEGMENT
??_C@_0BG@IGDMJMBM@Load?5Hokum?5damage?3?5?$CFx@ DB 'Load Hokum damage: %'
	DB	'x', 00H					; `string'
CONST	ENDS
;	COMDAT ??_C@_0BJ@BDHGJBOL@Load?5Comanche?5damage?3?5?$CFx@
CONST	SEGMENT
??_C@_0BJ@BDHGJBOL@Load?5Comanche?5damage?3?5?$CFx@ DB 'Load Comanche dam'
	DB	'age: %x', 00H				; `string'
CONST	ENDS
;	COMDAT ??_C@_0BG@FALBGNLD@Load?5Havoc?5damage?3?5?$CFx@
CONST	SEGMENT
??_C@_0BG@FALBGNLD@Load?5Havoc?5damage?3?5?$CFx@ DB 'Load Havoc damage: %'
	DB	'x', 00H					; `string'
CONST	ENDS
;	COMDAT ??_C@_0BH@HGDMPAF@Load?5Apache?5damage?3?5?$CFx@
CONST	SEGMENT
??_C@_0BH@HGDMPAF@Load?5Apache?5damage?3?5?$CFx@ DB 'Load Apache damage: '
	DB	'%x', 00H					; `string'
CONST	ENDS
;	COMDAT ?__LINE__Var@?0??load_gunship_avionics_damage@@YGXXZ@4JA
_DATA	SEGMENT
?__LINE__Var@?0??load_gunship_avionics_damage@@YGXXZ@4JA DD 03c9H ; `load_gunship_avionics_damage'::`1'::__LINE__Var
_DATA	ENDS
;	COMDAT ?__LINE__Var@?0??partially_repair_local_entity_avionics@@YGXPAUENTITY@@@Z@4JA
_DATA	SEGMENT
?__LINE__Var@?0??partially_repair_local_entity_avionics@@YGXPAUENTITY@@@Z@4JA DD 034dH ; `partially_repair_local_entity_avionics'::`1'::__LINE__Var
_DATA	ENDS
;	COMDAT ?__LINE__Var@?0??fully_repair_local_entity_avionics@@YGXPAUENTITY@@@Z@4JA
_DATA	SEGMENT
?__LINE__Var@?0??fully_repair_local_entity_avionics@@YGXPAUENTITY@@@Z@4JA DD 02d0H ; `fully_repair_local_entity_avionics'::`1'::__LINE__Var
_DATA	ENDS
;	COMDAT ??_C@_02LFNMGJAP@en@
CONST	SEGMENT
??_C@_02LFNMGJAP@en@ DB 'en', 00H			; `string'
CONST	ENDS
;	COMDAT ??_C@_0EO@BCFJKHLO@c?3?2users?2nhv90?2projects?2eech?2ap@
CONST	SEGMENT
??_C@_0EO@BCFJKHLO@c?3?2users?2nhv90?2projects?2eech?2ap@ DB 'c:\users\nh'
	DB	'v90\projects\eech\aphavoc\source\gunships\avionics\common\co_'
	DB	'dam.c', 00H					; `string'
CONST	ENDS
;	COMDAT ?__LINE__Var@?0??damage_client_server_entity_avionics@@YGXPAUENTITY@@W4GUNSHIP_DAMAGE_LEVELS@@@Z@4JA
_DATA	SEGMENT
?__LINE__Var@?0??damage_client_server_entity_avionics@@YGXPAUENTITY@@W4GUNSHIP_DAMAGE_LEVELS@@@Z@4JA DD 02bbH ; `damage_client_server_entity_avionics'::`1'::__LINE__Var
_DATA	ENDS
; Function compile flags: /Odtp /ZI
; File c:\users\nhv90\projects\eech\aphavoc\source\gunships\avionics\common\co_dam.c
;	COMDAT ?save_gunship_avionics_damage@@YGXXZ
_TEXT	SEGMENT
tv341 = -72						; size = 4
tv318 = -72						; size = 4
tv295 = -72						; size = 4
tv272 = -72						; size = 4
tv249 = -72						; size = 4
tv226 = -72						; size = 4
tv203 = -72						; size = 4
tv180 = -72						; size = 4
tv157 = -72						; size = 4
tv134 = -72						; size = 4
tv79 = -72						; size = 4
tv333 = -68						; size = 4
tv310 = -68						; size = 4
tv287 = -68						; size = 4
tv264 = -68						; size = 4
tv241 = -68						; size = 4
tv218 = -68						; size = 4
tv195 = -68						; size = 4
tv172 = -68						; size = 4
tv149 = -68						; size = 4
tv94 = -68						; size = 4
tv71 = -68						; size = 4
tv64 = -68						; size = 4
?save_gunship_avionics_damage@@YGXXZ PROC		; save_gunship_avionics_damage, COMDAT

; 1116 : {

  00000	55		 push	 ebp
  00001	8b ec		 mov	 ebp, esp
  00003	83 ec 48	 sub	 esp, 72			; 00000048H
  00006	53		 push	 ebx
  00007	56		 push	 esi
  00008	57		 push	 edi

; 1117 : 	switch (get_global_gunship_type ())

  00009	a1 0c 00 00 00	 mov	 eax, DWORD PTR ?global_options@@3UGLOBAL_OPTIONS_DATA@@A+12
  0000e	89 45 bc	 mov	 DWORD PTR tv64[ebp], eax
  00011	83 7d bc 09	 cmp	 DWORD PTR tv64[ebp], 9
  00015	0f 87 86 06 00
	00		 ja	 $LN14@save_gunsh
  0001b	8b 4d bc	 mov	 ecx, DWORD PTR tv64[ebp]
  0001e	ff 24 8d 00 00
	00 00		 jmp	 DWORD PTR $LN60@save_gunsh[ecx*4]
$LN4@save_gunsh:

; 1118 : 	{
; 1119 : 		////////////////////////////////////////
; 1120 : 		// JB 030313 Fly any aircraft
; 1121 : //		default:
; 1122 : 		case GUNSHIP_TYPE_APACHE:
; 1123 : 		////////////////////////////////////////
; 1124 : 		{
; 1125 : 			set_local_entity_int_value (get_gunship_entity (), INT_TYPE_HELICOPTER_DAMAGE_FLAGS, apache_damage.flags);

  00025	83 3d 00 00 00
	00 00		 cmp	 DWORD PTR ?gunship_entity@@3PAUENTITY@@A, 0 ; gunship_entity
  0002c	74 0c		 je	 SHORT $LN16@save_gunsh
  0002e	a1 00 00 00 00	 mov	 eax, DWORD PTR ?gunship_entity@@3PAUENTITY@@A ; gunship_entity
  00033	8b 08		 mov	 ecx, DWORD PTR [eax]
  00035	89 4d bc	 mov	 DWORD PTR tv71[ebp], ecx
  00038	eb 21		 jmp	 SHORT $LN17@save_gunsh
$LN16@save_gunsh:
  0003a	8b 15 00 00 00
	00		 mov	 edx, DWORD PTR ?__LINE__Var@?0??save_gunship_avionics_damage@@YGXXZ@4JA
  00040	83 c2 09	 add	 edx, 9
  00043	52		 push	 edx
  00044	68 00 00 00 00	 push	 OFFSET ??_C@_0EO@BCFJKHLO@c?3?2users?2nhv90?2projects?2eech?2ap@
  00049	a1 00 00 00 00	 mov	 eax, DWORD PTR ?null_entity_pointer_message@@3PBDB ; null_entity_pointer_message
  0004e	50		 push	 eax
  0004f	e8 00 00 00 00	 call	 ?process_assert@@YGXPBD0H@Z ; process_assert
  00054	c7 45 bc 00 00
	00 00		 mov	 DWORD PTR tv71[ebp], 0
$LN17@save_gunsh:
  0005b	b9 01 00 00 00	 mov	 ecx, 1
  00060	85 c9		 test	 ecx, ecx
  00062	74 09		 je	 SHORT $LN18@save_gunsh
  00064	c7 45 b8 54 00
	00 00		 mov	 DWORD PTR tv79[ebp], 84	; 00000054H
  0006b	eb 21		 jmp	 SHORT $LN19@save_gunsh
$LN18@save_gunsh:
  0006d	8b 15 00 00 00
	00		 mov	 edx, DWORD PTR ?__LINE__Var@?0??save_gunship_avionics_damage@@YGXXZ@4JA
  00073	83 c2 09	 add	 edx, 9
  00076	52		 push	 edx
  00077	68 00 00 00 00	 push	 OFFSET ??_C@_0EO@BCFJKHLO@c?3?2users?2nhv90?2projects?2eech?2ap@
  0007c	a1 00 00 00 00	 mov	 eax, DWORD PTR ?overload_invalid_int_type_message@@3PBDB ; overload_invalid_int_type_message
  00081	50		 push	 eax
  00082	e8 00 00 00 00	 call	 ?process_assert@@YGXPBD0H@Z ; process_assert
  00087	c7 45 b8 00 00
	00 00		 mov	 DWORD PTR tv79[ebp], 0
$LN19@save_gunsh:
  0008e	8b 0d 00 00 00
	00		 mov	 ecx, DWORD PTR ?apache_damage@@3TAPACHE_DAMAGE_FLAGS@@A ; apache_damage
  00094	51		 push	 ecx
  00095	6a 54		 push	 84			; 00000054H
  00097	8b 15 00 00 00
	00		 mov	 edx, DWORD PTR ?gunship_entity@@3PAUENTITY@@A ; gunship_entity
  0009d	52		 push	 edx
  0009e	69 45 bc 5c 04
	00 00		 imul	 eax, DWORD PTR tv71[ebp], 1116
  000a5	8b 4d b8	 mov	 ecx, DWORD PTR tv79[ebp]
  000a8	8b 94 88 00 00
	00 00		 mov	 edx, DWORD PTR ?fn_set_local_entity_int_value@@3PAY0BBH@P6GXPAUENTITY@@W4INT_TYPES@@H@ZA[eax+ecx*4]
  000af	ff d2		 call	 edx

; 1126 : 
; 1127 : 			debug_colour_log (DEBUG_COLOUR_AMBER, "Save Apache damage: %x", apache_damage);

  000b1	a1 00 00 00 00	 mov	 eax, DWORD PTR ?apache_damage@@3TAPACHE_DAMAGE_FLAGS@@A ; apache_damage
  000b6	50		 push	 eax
  000b7	68 00 00 00 00	 push	 OFFSET ??_C@_0BH@PMMHEBLD@Save?5Apache?5damage?3?5?$CFx@
  000bc	6a 17		 push	 23			; 00000017H
  000be	e8 00 00 00 00	 call	 ?debug_colour_log@@YAXW4DEBUG_COLOURS@@PBDZZ ; debug_colour_log
  000c3	83 c4 0c	 add	 esp, 12			; 0000000cH

; 1128 : 
; 1129 : 			break;

  000c6	e9 77 06 00 00	 jmp	 $LN1@save_gunsh
$LN5@save_gunsh:

; 1130 : 		}
; 1131 : 		////////////////////////////////////////
; 1132 : 		case GUNSHIP_TYPE_HAVOC:
; 1133 : 		////////////////////////////////////////
; 1134 : 		{
; 1135 : 			set_local_entity_int_value (get_gunship_entity (), INT_TYPE_HELICOPTER_DAMAGE_FLAGS, havoc_damage.flags);

  000cb	83 3d 00 00 00
	00 00		 cmp	 DWORD PTR ?gunship_entity@@3PAUENTITY@@A, 0 ; gunship_entity
  000d2	74 0c		 je	 SHORT $LN20@save_gunsh
  000d4	a1 00 00 00 00	 mov	 eax, DWORD PTR ?gunship_entity@@3PAUENTITY@@A ; gunship_entity
  000d9	8b 08		 mov	 ecx, DWORD PTR [eax]
  000db	89 4d bc	 mov	 DWORD PTR tv94[ebp], ecx
  000de	eb 21		 jmp	 SHORT $LN21@save_gunsh
$LN20@save_gunsh:
  000e0	8b 15 00 00 00
	00		 mov	 edx, DWORD PTR ?__LINE__Var@?0??save_gunship_avionics_damage@@YGXXZ@4JA
  000e6	83 c2 13	 add	 edx, 19			; 00000013H
  000e9	52		 push	 edx
  000ea	68 00 00 00 00	 push	 OFFSET ??_C@_0EO@BCFJKHLO@c?3?2users?2nhv90?2projects?2eech?2ap@
  000ef	a1 00 00 00 00	 mov	 eax, DWORD PTR ?null_entity_pointer_message@@3PBDB ; null_entity_pointer_message
  000f4	50		 push	 eax
  000f5	e8 00 00 00 00	 call	 ?process_assert@@YGXPBD0H@Z ; process_assert
  000fa	c7 45 bc 00 00
	00 00		 mov	 DWORD PTR tv94[ebp], 0
$LN21@save_gunsh:
  00101	b9 01 00 00 00	 mov	 ecx, 1
  00106	85 c9		 test	 ecx, ecx
  00108	74 09		 je	 SHORT $LN22@save_gunsh
  0010a	c7 45 b8 54 00
	00 00		 mov	 DWORD PTR tv134[ebp], 84 ; 00000054H
  00111	eb 21		 jmp	 SHORT $LN23@save_gunsh
$LN22@save_gunsh:
  00113	8b 15 00 00 00
	00		 mov	 edx, DWORD PTR ?__LINE__Var@?0??save_gunship_avionics_damage@@YGXXZ@4JA
  00119	83 c2 13	 add	 edx, 19			; 00000013H
  0011c	52		 push	 edx
  0011d	68 00 00 00 00	 push	 OFFSET ??_C@_0EO@BCFJKHLO@c?3?2users?2nhv90?2projects?2eech?2ap@
  00122	a1 00 00 00 00	 mov	 eax, DWORD PTR ?overload_invalid_int_type_message@@3PBDB ; overload_invalid_int_type_message
  00127	50		 push	 eax
  00128	e8 00 00 00 00	 call	 ?process_assert@@YGXPBD0H@Z ; process_assert
  0012d	c7 45 b8 00 00
	00 00		 mov	 DWORD PTR tv134[ebp], 0
$LN23@save_gunsh:
  00134	8b 0d 00 00 00
	00		 mov	 ecx, DWORD PTR ?havoc_damage@@3THAVOC_DAMAGE_FLAGS@@A ; havoc_damage
  0013a	51		 push	 ecx
  0013b	6a 54		 push	 84			; 00000054H
  0013d	8b 15 00 00 00
	00		 mov	 edx, DWORD PTR ?gunship_entity@@3PAUENTITY@@A ; gunship_entity
  00143	52		 push	 edx
  00144	69 45 bc 5c 04
	00 00		 imul	 eax, DWORD PTR tv94[ebp], 1116
  0014b	8b 4d b8	 mov	 ecx, DWORD PTR tv134[ebp]
  0014e	8b 94 88 00 00
	00 00		 mov	 edx, DWORD PTR ?fn_set_local_entity_int_value@@3PAY0BBH@P6GXPAUENTITY@@W4INT_TYPES@@H@ZA[eax+ecx*4]
  00155	ff d2		 call	 edx

; 1136 : 
; 1137 : 			debug_colour_log (DEBUG_COLOUR_AMBER, "Save Havoc damage: %x", havoc_damage);

  00157	a1 00 00 00 00	 mov	 eax, DWORD PTR ?havoc_damage@@3THAVOC_DAMAGE_FLAGS@@A ; havoc_damage
  0015c	50		 push	 eax
  0015d	68 00 00 00 00	 push	 OFFSET ??_C@_0BG@CAHDLOOM@Save?5Havoc?5damage?3?5?$CFx@
  00162	6a 17		 push	 23			; 00000017H
  00164	e8 00 00 00 00	 call	 ?debug_colour_log@@YAXW4DEBUG_COLOURS@@PBDZZ ; debug_colour_log
  00169	83 c4 0c	 add	 esp, 12			; 0000000cH

; 1138 : 
; 1139 : 			break;

  0016c	e9 d1 05 00 00	 jmp	 $LN1@save_gunsh
$LN6@save_gunsh:

; 1140 : 		}
; 1141 : 		////////////////////////////////////////
; 1142 : 		case GUNSHIP_TYPE_COMANCHE:
; 1143 : 		////////////////////////////////////////
; 1144 : 		{
; 1145 : 			set_local_entity_int_value (get_gunship_entity (), INT_TYPE_HELICOPTER_DAMAGE_FLAGS, comanche_damage.flags);

  00171	83 3d 00 00 00
	00 00		 cmp	 DWORD PTR ?gunship_entity@@3PAUENTITY@@A, 0 ; gunship_entity
  00178	74 0c		 je	 SHORT $LN24@save_gunsh
  0017a	a1 00 00 00 00	 mov	 eax, DWORD PTR ?gunship_entity@@3PAUENTITY@@A ; gunship_entity
  0017f	8b 08		 mov	 ecx, DWORD PTR [eax]
  00181	89 4d bc	 mov	 DWORD PTR tv149[ebp], ecx
  00184	eb 21		 jmp	 SHORT $LN25@save_gunsh
$LN24@save_gunsh:
  00186	8b 15 00 00 00
	00		 mov	 edx, DWORD PTR ?__LINE__Var@?0??save_gunship_avionics_damage@@YGXXZ@4JA
  0018c	83 c2 1d	 add	 edx, 29			; 0000001dH
  0018f	52		 push	 edx
  00190	68 00 00 00 00	 push	 OFFSET ??_C@_0EO@BCFJKHLO@c?3?2users?2nhv90?2projects?2eech?2ap@
  00195	a1 00 00 00 00	 mov	 eax, DWORD PTR ?null_entity_pointer_message@@3PBDB ; null_entity_pointer_message
  0019a	50		 push	 eax
  0019b	e8 00 00 00 00	 call	 ?process_assert@@YGXPBD0H@Z ; process_assert
  001a0	c7 45 bc 00 00
	00 00		 mov	 DWORD PTR tv149[ebp], 0
$LN25@save_gunsh:
  001a7	b9 01 00 00 00	 mov	 ecx, 1
  001ac	85 c9		 test	 ecx, ecx
  001ae	74 09		 je	 SHORT $LN26@save_gunsh
  001b0	c7 45 b8 54 00
	00 00		 mov	 DWORD PTR tv157[ebp], 84 ; 00000054H
  001b7	eb 21		 jmp	 SHORT $LN27@save_gunsh
$LN26@save_gunsh:
  001b9	8b 15 00 00 00
	00		 mov	 edx, DWORD PTR ?__LINE__Var@?0??save_gunship_avionics_damage@@YGXXZ@4JA
  001bf	83 c2 1d	 add	 edx, 29			; 0000001dH
  001c2	52		 push	 edx
  001c3	68 00 00 00 00	 push	 OFFSET ??_C@_0EO@BCFJKHLO@c?3?2users?2nhv90?2projects?2eech?2ap@
  001c8	a1 00 00 00 00	 mov	 eax, DWORD PTR ?overload_invalid_int_type_message@@3PBDB ; overload_invalid_int_type_message
  001cd	50		 push	 eax
  001ce	e8 00 00 00 00	 call	 ?process_assert@@YGXPBD0H@Z ; process_assert
  001d3	c7 45 b8 00 00
	00 00		 mov	 DWORD PTR tv157[ebp], 0
$LN27@save_gunsh:
  001da	8b 0d 00 00 00
	00		 mov	 ecx, DWORD PTR ?comanche_damage@@3TCOMANCHE_DAMAGE_FLAGS@@A ; comanche_damage
  001e0	51		 push	 ecx
  001e1	6a 54		 push	 84			; 00000054H
  001e3	8b 15 00 00 00
	00		 mov	 edx, DWORD PTR ?gunship_entity@@3PAUENTITY@@A ; gunship_entity
  001e9	52		 push	 edx
  001ea	69 45 bc 5c 04
	00 00		 imul	 eax, DWORD PTR tv149[ebp], 1116
  001f1	8b 4d b8	 mov	 ecx, DWORD PTR tv157[ebp]
  001f4	8b 94 88 00 00
	00 00		 mov	 edx, DWORD PTR ?fn_set_local_entity_int_value@@3PAY0BBH@P6GXPAUENTITY@@W4INT_TYPES@@H@ZA[eax+ecx*4]
  001fb	ff d2		 call	 edx

; 1146 : 
; 1147 : 			debug_colour_log (DEBUG_COLOUR_AMBER, "Save Comanche damage: %x", comanche_damage);

  001fd	a1 00 00 00 00	 mov	 eax, DWORD PTR ?comanche_damage@@3TCOMANCHE_DAMAGE_FLAGS@@A ; comanche_damage
  00202	50		 push	 eax
  00203	68 00 00 00 00	 push	 OFFSET ??_C@_0BJ@KLOJMNFG@Save?5Comanche?5damage?3?5?$CFx@
  00208	6a 17		 push	 23			; 00000017H
  0020a	e8 00 00 00 00	 call	 ?debug_colour_log@@YAXW4DEBUG_COLOURS@@PBDZZ ; debug_colour_log
  0020f	83 c4 0c	 add	 esp, 12			; 0000000cH

; 1148 : 
; 1149 : 			break;

  00212	e9 2b 05 00 00	 jmp	 $LN1@save_gunsh
$LN7@save_gunsh:

; 1150 : 		}
; 1151 : 		////////////////////////////////////////
; 1152 : 		case GUNSHIP_TYPE_HOKUM:
; 1153 : 		////////////////////////////////////////
; 1154 : 		{
; 1155 : 			set_local_entity_int_value (get_gunship_entity (), INT_TYPE_HELICOPTER_DAMAGE_FLAGS, hokum_damage.flags);

  00217	83 3d 00 00 00
	00 00		 cmp	 DWORD PTR ?gunship_entity@@3PAUENTITY@@A, 0 ; gunship_entity
  0021e	74 0c		 je	 SHORT $LN28@save_gunsh
  00220	a1 00 00 00 00	 mov	 eax, DWORD PTR ?gunship_entity@@3PAUENTITY@@A ; gunship_entity
  00225	8b 08		 mov	 ecx, DWORD PTR [eax]
  00227	89 4d bc	 mov	 DWORD PTR tv172[ebp], ecx
  0022a	eb 21		 jmp	 SHORT $LN29@save_gunsh
$LN28@save_gunsh:
  0022c	8b 15 00 00 00
	00		 mov	 edx, DWORD PTR ?__LINE__Var@?0??save_gunship_avionics_damage@@YGXXZ@4JA
  00232	83 c2 27	 add	 edx, 39			; 00000027H
  00235	52		 push	 edx
  00236	68 00 00 00 00	 push	 OFFSET ??_C@_0EO@BCFJKHLO@c?3?2users?2nhv90?2projects?2eech?2ap@
  0023b	a1 00 00 00 00	 mov	 eax, DWORD PTR ?null_entity_pointer_message@@3PBDB ; null_entity_pointer_message
  00240	50		 push	 eax
  00241	e8 00 00 00 00	 call	 ?process_assert@@YGXPBD0H@Z ; process_assert
  00246	c7 45 bc 00 00
	00 00		 mov	 DWORD PTR tv172[ebp], 0
$LN29@save_gunsh:
  0024d	b9 01 00 00 00	 mov	 ecx, 1
  00252	85 c9		 test	 ecx, ecx
  00254	74 09		 je	 SHORT $LN30@save_gunsh
  00256	c7 45 b8 54 00
	00 00		 mov	 DWORD PTR tv180[ebp], 84 ; 00000054H
  0025d	eb 21		 jmp	 SHORT $LN31@save_gunsh
$LN30@save_gunsh:
  0025f	8b 15 00 00 00
	00		 mov	 edx, DWORD PTR ?__LINE__Var@?0??save_gunship_avionics_damage@@YGXXZ@4JA
  00265	83 c2 27	 add	 edx, 39			; 00000027H
  00268	52		 push	 edx
  00269	68 00 00 00 00	 push	 OFFSET ??_C@_0EO@BCFJKHLO@c?3?2users?2nhv90?2projects?2eech?2ap@
  0026e	a1 00 00 00 00	 mov	 eax, DWORD PTR ?overload_invalid_int_type_message@@3PBDB ; overload_invalid_int_type_message
  00273	50		 push	 eax
  00274	e8 00 00 00 00	 call	 ?process_assert@@YGXPBD0H@Z ; process_assert
  00279	c7 45 b8 00 00
	00 00		 mov	 DWORD PTR tv180[ebp], 0
$LN31@save_gunsh:
  00280	8b 0d 00 00 00
	00		 mov	 ecx, DWORD PTR ?hokum_damage@@3THOKUM_DAMAGE_FLAGS@@A ; hokum_damage
  00286	51		 push	 ecx
  00287	6a 54		 push	 84			; 00000054H
  00289	8b 15 00 00 00
	00		 mov	 edx, DWORD PTR ?gunship_entity@@3PAUENTITY@@A ; gunship_entity
  0028f	52		 push	 edx
  00290	69 45 bc 5c 04
	00 00		 imul	 eax, DWORD PTR tv172[ebp], 1116
  00297	8b 4d b8	 mov	 ecx, DWORD PTR tv180[ebp]
  0029a	8b 94 88 00 00
	00 00		 mov	 edx, DWORD PTR ?fn_set_local_entity_int_value@@3PAY0BBH@P6GXPAUENTITY@@W4INT_TYPES@@H@ZA[eax+ecx*4]
  002a1	ff d2		 call	 edx

; 1156 : 
; 1157 : 			debug_colour_log (DEBUG_COLOUR_AMBER, "Save Hokum damage: %x", hokum_damage);

  002a3	a1 00 00 00 00	 mov	 eax, DWORD PTR ?hokum_damage@@3THOKUM_DAMAGE_FLAGS@@A ; hokum_damage
  002a8	50		 push	 eax
  002a9	68 00 00 00 00	 push	 OFFSET ??_C@_0BG@PGPOEPED@Save?5Hokum?5damage?3?5?$CFx@
  002ae	6a 17		 push	 23			; 00000017H
  002b0	e8 00 00 00 00	 call	 ?debug_colour_log@@YAXW4DEBUG_COLOURS@@PBDZZ ; debug_colour_log
  002b5	83 c4 0c	 add	 esp, 12			; 0000000cH

; 1158 : 
; 1159 : 			break;

  002b8	e9 85 04 00 00	 jmp	 $LN1@save_gunsh
$LN8@save_gunsh:

; 1160 : 		}
; 1161 : 		////Moje 030817 start
; 1162 : 		case GUNSHIP_TYPE_BLACKHAWK:
; 1163 : 		////////////////////////////////////////
; 1164 : 		{
; 1165 : 			set_local_entity_int_value (get_gunship_entity (), INT_TYPE_HELICOPTER_DAMAGE_FLAGS, blackhawk_damage.flags);

  002bd	83 3d 00 00 00
	00 00		 cmp	 DWORD PTR ?gunship_entity@@3PAUENTITY@@A, 0 ; gunship_entity
  002c4	74 0c		 je	 SHORT $LN32@save_gunsh
  002c6	a1 00 00 00 00	 mov	 eax, DWORD PTR ?gunship_entity@@3PAUENTITY@@A ; gunship_entity
  002cb	8b 08		 mov	 ecx, DWORD PTR [eax]
  002cd	89 4d bc	 mov	 DWORD PTR tv195[ebp], ecx
  002d0	eb 21		 jmp	 SHORT $LN33@save_gunsh
$LN32@save_gunsh:
  002d2	8b 15 00 00 00
	00		 mov	 edx, DWORD PTR ?__LINE__Var@?0??save_gunship_avionics_damage@@YGXXZ@4JA
  002d8	83 c2 31	 add	 edx, 49			; 00000031H
  002db	52		 push	 edx
  002dc	68 00 00 00 00	 push	 OFFSET ??_C@_0EO@BCFJKHLO@c?3?2users?2nhv90?2projects?2eech?2ap@
  002e1	a1 00 00 00 00	 mov	 eax, DWORD PTR ?null_entity_pointer_message@@3PBDB ; null_entity_pointer_message
  002e6	50		 push	 eax
  002e7	e8 00 00 00 00	 call	 ?process_assert@@YGXPBD0H@Z ; process_assert
  002ec	c7 45 bc 00 00
	00 00		 mov	 DWORD PTR tv195[ebp], 0
$LN33@save_gunsh:
  002f3	b9 01 00 00 00	 mov	 ecx, 1
  002f8	85 c9		 test	 ecx, ecx
  002fa	74 09		 je	 SHORT $LN34@save_gunsh
  002fc	c7 45 b8 54 00
	00 00		 mov	 DWORD PTR tv203[ebp], 84 ; 00000054H
  00303	eb 21		 jmp	 SHORT $LN35@save_gunsh
$LN34@save_gunsh:
  00305	8b 15 00 00 00
	00		 mov	 edx, DWORD PTR ?__LINE__Var@?0??save_gunship_avionics_damage@@YGXXZ@4JA
  0030b	83 c2 31	 add	 edx, 49			; 00000031H
  0030e	52		 push	 edx
  0030f	68 00 00 00 00	 push	 OFFSET ??_C@_0EO@BCFJKHLO@c?3?2users?2nhv90?2projects?2eech?2ap@
  00314	a1 00 00 00 00	 mov	 eax, DWORD PTR ?overload_invalid_int_type_message@@3PBDB ; overload_invalid_int_type_message
  00319	50		 push	 eax
  0031a	e8 00 00 00 00	 call	 ?process_assert@@YGXPBD0H@Z ; process_assert
  0031f	c7 45 b8 00 00
	00 00		 mov	 DWORD PTR tv203[ebp], 0
$LN35@save_gunsh:
  00326	8b 0d 00 00 00
	00		 mov	 ecx, DWORD PTR ?blackhawk_damage@@3TBLACKHAWK_DAMAGE_FLAGS@@A ; blackhawk_damage
  0032c	51		 push	 ecx
  0032d	6a 54		 push	 84			; 00000054H
  0032f	8b 15 00 00 00
	00		 mov	 edx, DWORD PTR ?gunship_entity@@3PAUENTITY@@A ; gunship_entity
  00335	52		 push	 edx
  00336	69 45 bc 5c 04
	00 00		 imul	 eax, DWORD PTR tv195[ebp], 1116
  0033d	8b 4d b8	 mov	 ecx, DWORD PTR tv203[ebp]
  00340	8b 94 88 00 00
	00 00		 mov	 edx, DWORD PTR ?fn_set_local_entity_int_value@@3PAY0BBH@P6GXPAUENTITY@@W4INT_TYPES@@H@ZA[eax+ecx*4]
  00347	ff d2		 call	 edx

; 1166 : 
; 1167 : 			debug_colour_log (DEBUG_COLOUR_AMBER, "Save Blackhawk damage: %x", blackhawk_damage);

  00349	a1 00 00 00 00	 mov	 eax, DWORD PTR ?blackhawk_damage@@3TBLACKHAWK_DAMAGE_FLAGS@@A ; blackhawk_damage
  0034e	50		 push	 eax
  0034f	68 00 00 00 00	 push	 OFFSET ??_C@_0BK@NOEMAOPM@Save?5Blackhawk?5damage?3?5?$CFx@
  00354	6a 17		 push	 23			; 00000017H
  00356	e8 00 00 00 00	 call	 ?debug_colour_log@@YAXW4DEBUG_COLOURS@@PBDZZ ; debug_colour_log
  0035b	83 c4 0c	 add	 esp, 12			; 0000000cH

; 1168 : 
; 1169 : 			break;

  0035e	e9 df 03 00 00	 jmp	 $LN1@save_gunsh
$LN9@save_gunsh:

; 1170 : 		}
; 1171 : 		case GUNSHIP_TYPE_HIND:
; 1172 : 		////////////////////////////////////////
; 1173 : 		{
; 1174 : 			set_local_entity_int_value (get_gunship_entity (), INT_TYPE_HELICOPTER_DAMAGE_FLAGS, hind_damage.flags);

  00363	83 3d 00 00 00
	00 00		 cmp	 DWORD PTR ?gunship_entity@@3PAUENTITY@@A, 0 ; gunship_entity
  0036a	74 0c		 je	 SHORT $LN36@save_gunsh
  0036c	a1 00 00 00 00	 mov	 eax, DWORD PTR ?gunship_entity@@3PAUENTITY@@A ; gunship_entity
  00371	8b 08		 mov	 ecx, DWORD PTR [eax]
  00373	89 4d bc	 mov	 DWORD PTR tv218[ebp], ecx
  00376	eb 21		 jmp	 SHORT $LN37@save_gunsh
$LN36@save_gunsh:
  00378	8b 15 00 00 00
	00		 mov	 edx, DWORD PTR ?__LINE__Var@?0??save_gunship_avionics_damage@@YGXXZ@4JA
  0037e	83 c2 3a	 add	 edx, 58			; 0000003aH
  00381	52		 push	 edx
  00382	68 00 00 00 00	 push	 OFFSET ??_C@_0EO@BCFJKHLO@c?3?2users?2nhv90?2projects?2eech?2ap@
  00387	a1 00 00 00 00	 mov	 eax, DWORD PTR ?null_entity_pointer_message@@3PBDB ; null_entity_pointer_message
  0038c	50		 push	 eax
  0038d	e8 00 00 00 00	 call	 ?process_assert@@YGXPBD0H@Z ; process_assert
  00392	c7 45 bc 00 00
	00 00		 mov	 DWORD PTR tv218[ebp], 0
$LN37@save_gunsh:
  00399	b9 01 00 00 00	 mov	 ecx, 1
  0039e	85 c9		 test	 ecx, ecx
  003a0	74 09		 je	 SHORT $LN38@save_gunsh
  003a2	c7 45 b8 54 00
	00 00		 mov	 DWORD PTR tv226[ebp], 84 ; 00000054H
  003a9	eb 21		 jmp	 SHORT $LN39@save_gunsh
$LN38@save_gunsh:
  003ab	8b 15 00 00 00
	00		 mov	 edx, DWORD PTR ?__LINE__Var@?0??save_gunship_avionics_damage@@YGXXZ@4JA
  003b1	83 c2 3a	 add	 edx, 58			; 0000003aH
  003b4	52		 push	 edx
  003b5	68 00 00 00 00	 push	 OFFSET ??_C@_0EO@BCFJKHLO@c?3?2users?2nhv90?2projects?2eech?2ap@
  003ba	a1 00 00 00 00	 mov	 eax, DWORD PTR ?overload_invalid_int_type_message@@3PBDB ; overload_invalid_int_type_message
  003bf	50		 push	 eax
  003c0	e8 00 00 00 00	 call	 ?process_assert@@YGXPBD0H@Z ; process_assert
  003c5	c7 45 b8 00 00
	00 00		 mov	 DWORD PTR tv226[ebp], 0
$LN39@save_gunsh:
  003cc	8b 0d 00 00 00
	00		 mov	 ecx, DWORD PTR ?hind_damage@@3THIND_DAMAGE_FLAGS@@A ; hind_damage
  003d2	51		 push	 ecx
  003d3	6a 54		 push	 84			; 00000054H
  003d5	8b 15 00 00 00
	00		 mov	 edx, DWORD PTR ?gunship_entity@@3PAUENTITY@@A ; gunship_entity
  003db	52		 push	 edx
  003dc	69 45 bc 5c 04
	00 00		 imul	 eax, DWORD PTR tv218[ebp], 1116
  003e3	8b 4d b8	 mov	 ecx, DWORD PTR tv226[ebp]
  003e6	8b 94 88 00 00
	00 00		 mov	 edx, DWORD PTR ?fn_set_local_entity_int_value@@3PAY0BBH@P6GXPAUENTITY@@W4INT_TYPES@@H@ZA[eax+ecx*4]
  003ed	ff d2		 call	 edx

; 1175 : 
; 1176 : 			debug_colour_log (DEBUG_COLOUR_AMBER, "Save Hind damage: %x", hind_damage);

  003ef	a1 00 00 00 00	 mov	 eax, DWORD PTR ?hind_damage@@3THIND_DAMAGE_FLAGS@@A ; hind_damage
  003f4	50		 push	 eax
  003f5	68 00 00 00 00	 push	 OFFSET ??_C@_0BF@OLLBEPFF@Save?5Hind?5damage?3?5?$CFx@
  003fa	6a 17		 push	 23			; 00000017H
  003fc	e8 00 00 00 00	 call	 ?debug_colour_log@@YAXW4DEBUG_COLOURS@@PBDZZ ; debug_colour_log
  00401	83 c4 0c	 add	 esp, 12			; 0000000cH

; 1177 : 
; 1178 : 			break;

  00404	e9 39 03 00 00	 jmp	 $LN1@save_gunsh
$LN10@save_gunsh:

; 1179 : 		}
; 1180 : 		case GUNSHIP_TYPE_AH64A:
; 1181 : 		////////////////////////////////////////
; 1182 : 		{
; 1183 : 			set_local_entity_int_value (get_gunship_entity (), INT_TYPE_HELICOPTER_DAMAGE_FLAGS, ah64a_damage.flags);

  00409	83 3d 00 00 00
	00 00		 cmp	 DWORD PTR ?gunship_entity@@3PAUENTITY@@A, 0 ; gunship_entity
  00410	74 0c		 je	 SHORT $LN40@save_gunsh
  00412	a1 00 00 00 00	 mov	 eax, DWORD PTR ?gunship_entity@@3PAUENTITY@@A ; gunship_entity
  00417	8b 08		 mov	 ecx, DWORD PTR [eax]
  00419	89 4d bc	 mov	 DWORD PTR tv241[ebp], ecx
  0041c	eb 21		 jmp	 SHORT $LN41@save_gunsh
$LN40@save_gunsh:
  0041e	8b 15 00 00 00
	00		 mov	 edx, DWORD PTR ?__LINE__Var@?0??save_gunship_avionics_damage@@YGXXZ@4JA
  00424	83 c2 43	 add	 edx, 67			; 00000043H
  00427	52		 push	 edx
  00428	68 00 00 00 00	 push	 OFFSET ??_C@_0EO@BCFJKHLO@c?3?2users?2nhv90?2projects?2eech?2ap@
  0042d	a1 00 00 00 00	 mov	 eax, DWORD PTR ?null_entity_pointer_message@@3PBDB ; null_entity_pointer_message
  00432	50		 push	 eax
  00433	e8 00 00 00 00	 call	 ?process_assert@@YGXPBD0H@Z ; process_assert
  00438	c7 45 bc 00 00
	00 00		 mov	 DWORD PTR tv241[ebp], 0
$LN41@save_gunsh:
  0043f	b9 01 00 00 00	 mov	 ecx, 1
  00444	85 c9		 test	 ecx, ecx
  00446	74 09		 je	 SHORT $LN42@save_gunsh
  00448	c7 45 b8 54 00
	00 00		 mov	 DWORD PTR tv249[ebp], 84 ; 00000054H
  0044f	eb 21		 jmp	 SHORT $LN43@save_gunsh
$LN42@save_gunsh:
  00451	8b 15 00 00 00
	00		 mov	 edx, DWORD PTR ?__LINE__Var@?0??save_gunship_avionics_damage@@YGXXZ@4JA
  00457	83 c2 43	 add	 edx, 67			; 00000043H
  0045a	52		 push	 edx
  0045b	68 00 00 00 00	 push	 OFFSET ??_C@_0EO@BCFJKHLO@c?3?2users?2nhv90?2projects?2eech?2ap@
  00460	a1 00 00 00 00	 mov	 eax, DWORD PTR ?overload_invalid_int_type_message@@3PBDB ; overload_invalid_int_type_message
  00465	50		 push	 eax
  00466	e8 00 00 00 00	 call	 ?process_assert@@YGXPBD0H@Z ; process_assert
  0046b	c7 45 b8 00 00
	00 00		 mov	 DWORD PTR tv249[ebp], 0
$LN43@save_gunsh:
  00472	8b 0d 00 00 00
	00		 mov	 ecx, DWORD PTR ?ah64a_damage@@3TAH64A_DAMAGE_FLAGS@@A ; ah64a_damage
  00478	51		 push	 ecx
  00479	6a 54		 push	 84			; 00000054H
  0047b	8b 15 00 00 00
	00		 mov	 edx, DWORD PTR ?gunship_entity@@3PAUENTITY@@A ; gunship_entity
  00481	52		 push	 edx
  00482	69 45 bc 5c 04
	00 00		 imul	 eax, DWORD PTR tv241[ebp], 1116
  00489	8b 4d b8	 mov	 ecx, DWORD PTR tv249[ebp]
  0048c	8b 94 88 00 00
	00 00		 mov	 edx, DWORD PTR ?fn_set_local_entity_int_value@@3PAY0BBH@P6GXPAUENTITY@@W4INT_TYPES@@H@ZA[eax+ecx*4]
  00493	ff d2		 call	 edx

; 1184 : 			debug_colour_log (DEBUG_COLOUR_AMBER, "Save ah64a damage: %x", ah64a_damage);

  00495	a1 00 00 00 00	 mov	 eax, DWORD PTR ?ah64a_damage@@3TAH64A_DAMAGE_FLAGS@@A ; ah64a_damage
  0049a	50		 push	 eax
  0049b	68 00 00 00 00	 push	 OFFSET ??_C@_0BG@HAIJDIFD@Save?5ah64a?5damage?3?5?$CFx@
  004a0	6a 17		 push	 23			; 00000017H
  004a2	e8 00 00 00 00	 call	 ?debug_colour_log@@YAXW4DEBUG_COLOURS@@PBDZZ ; debug_colour_log
  004a7	83 c4 0c	 add	 esp, 12			; 0000000cH

; 1185 : 			break;

  004aa	e9 93 02 00 00	 jmp	 $LN1@save_gunsh
$LN11@save_gunsh:

; 1186 : 		}
; 1187 : 		////////////////////////////////////////
; 1188 : 		case GUNSHIP_TYPE_KA50:
; 1189 : 		////////////////////////////////////////
; 1190 : 		{
; 1191 : 			set_local_entity_int_value (get_gunship_entity (), INT_TYPE_HELICOPTER_DAMAGE_FLAGS, ka50_damage.flags);

  004af	83 3d 00 00 00
	00 00		 cmp	 DWORD PTR ?gunship_entity@@3PAUENTITY@@A, 0 ; gunship_entity
  004b6	74 0c		 je	 SHORT $LN44@save_gunsh
  004b8	a1 00 00 00 00	 mov	 eax, DWORD PTR ?gunship_entity@@3PAUENTITY@@A ; gunship_entity
  004bd	8b 08		 mov	 ecx, DWORD PTR [eax]
  004bf	89 4d bc	 mov	 DWORD PTR tv264[ebp], ecx
  004c2	eb 21		 jmp	 SHORT $LN45@save_gunsh
$LN44@save_gunsh:
  004c4	8b 15 00 00 00
	00		 mov	 edx, DWORD PTR ?__LINE__Var@?0??save_gunship_avionics_damage@@YGXXZ@4JA
  004ca	83 c2 4b	 add	 edx, 75			; 0000004bH
  004cd	52		 push	 edx
  004ce	68 00 00 00 00	 push	 OFFSET ??_C@_0EO@BCFJKHLO@c?3?2users?2nhv90?2projects?2eech?2ap@
  004d3	a1 00 00 00 00	 mov	 eax, DWORD PTR ?null_entity_pointer_message@@3PBDB ; null_entity_pointer_message
  004d8	50		 push	 eax
  004d9	e8 00 00 00 00	 call	 ?process_assert@@YGXPBD0H@Z ; process_assert
  004de	c7 45 bc 00 00
	00 00		 mov	 DWORD PTR tv264[ebp], 0
$LN45@save_gunsh:
  004e5	b9 01 00 00 00	 mov	 ecx, 1
  004ea	85 c9		 test	 ecx, ecx
  004ec	74 09		 je	 SHORT $LN46@save_gunsh
  004ee	c7 45 b8 54 00
	00 00		 mov	 DWORD PTR tv272[ebp], 84 ; 00000054H
  004f5	eb 21		 jmp	 SHORT $LN47@save_gunsh
$LN46@save_gunsh:
  004f7	8b 15 00 00 00
	00		 mov	 edx, DWORD PTR ?__LINE__Var@?0??save_gunship_avionics_damage@@YGXXZ@4JA
  004fd	83 c2 4b	 add	 edx, 75			; 0000004bH
  00500	52		 push	 edx
  00501	68 00 00 00 00	 push	 OFFSET ??_C@_0EO@BCFJKHLO@c?3?2users?2nhv90?2projects?2eech?2ap@
  00506	a1 00 00 00 00	 mov	 eax, DWORD PTR ?overload_invalid_int_type_message@@3PBDB ; overload_invalid_int_type_message
  0050b	50		 push	 eax
  0050c	e8 00 00 00 00	 call	 ?process_assert@@YGXPBD0H@Z ; process_assert
  00511	c7 45 b8 00 00
	00 00		 mov	 DWORD PTR tv272[ebp], 0
$LN47@save_gunsh:
  00518	8b 0d 00 00 00
	00		 mov	 ecx, DWORD PTR ?ka50_damage@@3TKA50_DAMAGE_FLAGS@@A ; ka50_damage
  0051e	51		 push	 ecx
  0051f	6a 54		 push	 84			; 00000054H
  00521	8b 15 00 00 00
	00		 mov	 edx, DWORD PTR ?gunship_entity@@3PAUENTITY@@A ; gunship_entity
  00527	52		 push	 edx
  00528	69 45 bc 5c 04
	00 00		 imul	 eax, DWORD PTR tv264[ebp], 1116
  0052f	8b 4d b8	 mov	 ecx, DWORD PTR tv272[ebp]
  00532	8b 94 88 00 00
	00 00		 mov	 edx, DWORD PTR ?fn_set_local_entity_int_value@@3PAY0BBH@P6GXPAUENTITY@@W4INT_TYPES@@H@ZA[eax+ecx*4]
  00539	ff d2		 call	 edx

; 1192 : 
; 1193 : 			debug_colour_log (DEBUG_COLOUR_AMBER, "Save ka50 damage: %x", ka50_damage);

  0053b	a1 00 00 00 00	 mov	 eax, DWORD PTR ?ka50_damage@@3TKA50_DAMAGE_FLAGS@@A ; ka50_damage
  00540	50		 push	 eax
  00541	68 00 00 00 00	 push	 OFFSET ??_C@_0BF@LLMPOBMK@Save?5ka50?5damage?3?5?$CFx@
  00546	6a 17		 push	 23			; 00000017H
  00548	e8 00 00 00 00	 call	 ?debug_colour_log@@YAXW4DEBUG_COLOURS@@PBDZZ ; debug_colour_log
  0054d	83 c4 0c	 add	 esp, 12			; 0000000cH

; 1194 : 
; 1195 : 			break;

  00550	e9 ed 01 00 00	 jmp	 $LN1@save_gunsh
$LN12@save_gunsh:

; 1196 : 		}
; 1197 : 		////Moje 0300817 end
; 1198 : 		////////////////////////////////////////
; 1199 : 		case GUNSHIP_TYPE_VIPER:
; 1200 : 		////////////////////////////////////////
; 1201 : 		{
; 1202 : 			set_local_entity_int_value (get_gunship_entity (), INT_TYPE_HELICOPTER_DAMAGE_FLAGS, viper_damage.flags);

  00555	83 3d 00 00 00
	00 00		 cmp	 DWORD PTR ?gunship_entity@@3PAUENTITY@@A, 0 ; gunship_entity
  0055c	74 0c		 je	 SHORT $LN48@save_gunsh
  0055e	a1 00 00 00 00	 mov	 eax, DWORD PTR ?gunship_entity@@3PAUENTITY@@A ; gunship_entity
  00563	8b 08		 mov	 ecx, DWORD PTR [eax]
  00565	89 4d bc	 mov	 DWORD PTR tv287[ebp], ecx
  00568	eb 21		 jmp	 SHORT $LN49@save_gunsh
$LN48@save_gunsh:
  0056a	8b 15 00 00 00
	00		 mov	 edx, DWORD PTR ?__LINE__Var@?0??save_gunship_avionics_damage@@YGXXZ@4JA
  00570	83 c2 56	 add	 edx, 86			; 00000056H
  00573	52		 push	 edx
  00574	68 00 00 00 00	 push	 OFFSET ??_C@_0EO@BCFJKHLO@c?3?2users?2nhv90?2projects?2eech?2ap@
  00579	a1 00 00 00 00	 mov	 eax, DWORD PTR ?null_entity_pointer_message@@3PBDB ; null_entity_pointer_message
  0057e	50		 push	 eax
  0057f	e8 00 00 00 00	 call	 ?process_assert@@YGXPBD0H@Z ; process_assert
  00584	c7 45 bc 00 00
	00 00		 mov	 DWORD PTR tv287[ebp], 0
$LN49@save_gunsh:
  0058b	b9 01 00 00 00	 mov	 ecx, 1
  00590	85 c9		 test	 ecx, ecx
  00592	74 09		 je	 SHORT $LN50@save_gunsh
  00594	c7 45 b8 54 00
	00 00		 mov	 DWORD PTR tv295[ebp], 84 ; 00000054H
  0059b	eb 21		 jmp	 SHORT $LN51@save_gunsh
$LN50@save_gunsh:
  0059d	8b 15 00 00 00
	00		 mov	 edx, DWORD PTR ?__LINE__Var@?0??save_gunship_avionics_damage@@YGXXZ@4JA
  005a3	83 c2 56	 add	 edx, 86			; 00000056H
  005a6	52		 push	 edx
  005a7	68 00 00 00 00	 push	 OFFSET ??_C@_0EO@BCFJKHLO@c?3?2users?2nhv90?2projects?2eech?2ap@
  005ac	a1 00 00 00 00	 mov	 eax, DWORD PTR ?overload_invalid_int_type_message@@3PBDB ; overload_invalid_int_type_message
  005b1	50		 push	 eax
  005b2	e8 00 00 00 00	 call	 ?process_assert@@YGXPBD0H@Z ; process_assert
  005b7	c7 45 b8 00 00
	00 00		 mov	 DWORD PTR tv295[ebp], 0
$LN51@save_gunsh:
  005be	8b 0d 00 00 00
	00		 mov	 ecx, DWORD PTR ?viper_damage@@3TVIPER_DAMAGE_FLAGS@@A ; viper_damage
  005c4	51		 push	 ecx
  005c5	6a 54		 push	 84			; 00000054H
  005c7	8b 15 00 00 00
	00		 mov	 edx, DWORD PTR ?gunship_entity@@3PAUENTITY@@A ; gunship_entity
  005cd	52		 push	 edx
  005ce	69 45 bc 5c 04
	00 00		 imul	 eax, DWORD PTR tv287[ebp], 1116
  005d5	8b 4d b8	 mov	 ecx, DWORD PTR tv295[ebp]
  005d8	8b 94 88 00 00
	00 00		 mov	 edx, DWORD PTR ?fn_set_local_entity_int_value@@3PAY0BBH@P6GXPAUENTITY@@W4INT_TYPES@@H@ZA[eax+ecx*4]
  005df	ff d2		 call	 edx

; 1203 : 
; 1204 : 			debug_colour_log (DEBUG_COLOUR_AMBER, "Save viper damage: %x", viper_damage);

  005e1	a1 00 00 00 00	 mov	 eax, DWORD PTR ?viper_damage@@3TVIPER_DAMAGE_FLAGS@@A ; viper_damage
  005e6	50		 push	 eax
  005e7	68 00 00 00 00	 push	 OFFSET ??_C@_0BG@LCOKADIE@Save?5viper?5damage?3?5?$CFx@
  005ec	6a 17		 push	 23			; 00000017H
  005ee	e8 00 00 00 00	 call	 ?debug_colour_log@@YAXW4DEBUG_COLOURS@@PBDZZ ; debug_colour_log
  005f3	83 c4 0c	 add	 esp, 12			; 0000000cH

; 1205 : 
; 1206 : 			break;

  005f6	e9 47 01 00 00	 jmp	 $LN1@save_gunsh
$LN13@save_gunsh:

; 1207 : 		}
; 1208 : 		////////////////////////////////////////
; 1209 : 		case GUNSHIP_TYPE_KIOWA:
; 1210 : 		////////////////////////////////////////
; 1211 : 		{
; 1212 : 			set_local_entity_int_value (get_gunship_entity (), INT_TYPE_HELICOPTER_DAMAGE_FLAGS, kiowa_damage.flags);

  005fb	83 3d 00 00 00
	00 00		 cmp	 DWORD PTR ?gunship_entity@@3PAUENTITY@@A, 0 ; gunship_entity
  00602	74 0c		 je	 SHORT $LN52@save_gunsh
  00604	a1 00 00 00 00	 mov	 eax, DWORD PTR ?gunship_entity@@3PAUENTITY@@A ; gunship_entity
  00609	8b 08		 mov	 ecx, DWORD PTR [eax]
  0060b	89 4d bc	 mov	 DWORD PTR tv310[ebp], ecx
  0060e	eb 21		 jmp	 SHORT $LN53@save_gunsh
$LN52@save_gunsh:
  00610	8b 15 00 00 00
	00		 mov	 edx, DWORD PTR ?__LINE__Var@?0??save_gunship_avionics_damage@@YGXXZ@4JA
  00616	83 c2 60	 add	 edx, 96			; 00000060H
  00619	52		 push	 edx
  0061a	68 00 00 00 00	 push	 OFFSET ??_C@_0EO@BCFJKHLO@c?3?2users?2nhv90?2projects?2eech?2ap@
  0061f	a1 00 00 00 00	 mov	 eax, DWORD PTR ?null_entity_pointer_message@@3PBDB ; null_entity_pointer_message
  00624	50		 push	 eax
  00625	e8 00 00 00 00	 call	 ?process_assert@@YGXPBD0H@Z ; process_assert
  0062a	c7 45 bc 00 00
	00 00		 mov	 DWORD PTR tv310[ebp], 0
$LN53@save_gunsh:
  00631	b9 01 00 00 00	 mov	 ecx, 1
  00636	85 c9		 test	 ecx, ecx
  00638	74 09		 je	 SHORT $LN54@save_gunsh
  0063a	c7 45 b8 54 00
	00 00		 mov	 DWORD PTR tv318[ebp], 84 ; 00000054H
  00641	eb 21		 jmp	 SHORT $LN55@save_gunsh
$LN54@save_gunsh:
  00643	8b 15 00 00 00
	00		 mov	 edx, DWORD PTR ?__LINE__Var@?0??save_gunship_avionics_damage@@YGXXZ@4JA
  00649	83 c2 60	 add	 edx, 96			; 00000060H
  0064c	52		 push	 edx
  0064d	68 00 00 00 00	 push	 OFFSET ??_C@_0EO@BCFJKHLO@c?3?2users?2nhv90?2projects?2eech?2ap@
  00652	a1 00 00 00 00	 mov	 eax, DWORD PTR ?overload_invalid_int_type_message@@3PBDB ; overload_invalid_int_type_message
  00657	50		 push	 eax
  00658	e8 00 00 00 00	 call	 ?process_assert@@YGXPBD0H@Z ; process_assert
  0065d	c7 45 b8 00 00
	00 00		 mov	 DWORD PTR tv318[ebp], 0
$LN55@save_gunsh:
  00664	8b 0d 00 00 00
	00		 mov	 ecx, DWORD PTR ?kiowa_damage@@3TKIOWA_DAMAGE_FLAGS@@A ; kiowa_damage
  0066a	51		 push	 ecx
  0066b	6a 54		 push	 84			; 00000054H
  0066d	8b 15 00 00 00
	00		 mov	 edx, DWORD PTR ?gunship_entity@@3PAUENTITY@@A ; gunship_entity
  00673	52		 push	 edx
  00674	69 45 bc 5c 04
	00 00		 imul	 eax, DWORD PTR tv310[ebp], 1116
  0067b	8b 4d b8	 mov	 ecx, DWORD PTR tv318[ebp]
  0067e	8b 94 88 00 00
	00 00		 mov	 edx, DWORD PTR ?fn_set_local_entity_int_value@@3PAY0BBH@P6GXPAUENTITY@@W4INT_TYPES@@H@ZA[eax+ecx*4]
  00685	ff d2		 call	 edx

; 1213 : 
; 1214 : 			debug_colour_log (DEBUG_COLOUR_AMBER, "Save Kiowa damage: %x", kiowa_damage);

  00687	a1 00 00 00 00	 mov	 eax, DWORD PTR ?kiowa_damage@@3TKIOWA_DAMAGE_FLAGS@@A ; kiowa_damage
  0068c	50		 push	 eax
  0068d	68 00 00 00 00	 push	 OFFSET ??_C@_0BG@HFNGFBG@Save?5Kiowa?5damage?3?5?$CFx@
  00692	6a 17		 push	 23			; 00000017H
  00694	e8 00 00 00 00	 call	 ?debug_colour_log@@YAXW4DEBUG_COLOURS@@PBDZZ ; debug_colour_log
  00699	83 c4 0c	 add	 esp, 12			; 0000000cH

; 1215 : 
; 1216 : 			break;

  0069c	e9 a1 00 00 00	 jmp	 $LN1@save_gunsh
$LN14@save_gunsh:

; 1217 : 		}
; 1218 : 		////////////////////////////////////////
; 1219 : 
; 1220 : 		////////////////////////////////////////
; 1221 : 		// GCsDriver  08-12-2007
; 1222 : 		default:
; 1223 : 		////////////////////////////////////////
; 1224 : 		{
; 1225 : 			set_local_entity_int_value (get_gunship_entity (), INT_TYPE_HELICOPTER_DAMAGE_FLAGS, default_damage.flags);

  006a1	83 3d 00 00 00
	00 00		 cmp	 DWORD PTR ?gunship_entity@@3PAUENTITY@@A, 0 ; gunship_entity
  006a8	74 0c		 je	 SHORT $LN56@save_gunsh
  006aa	a1 00 00 00 00	 mov	 eax, DWORD PTR ?gunship_entity@@3PAUENTITY@@A ; gunship_entity
  006af	8b 08		 mov	 ecx, DWORD PTR [eax]
  006b1	89 4d bc	 mov	 DWORD PTR tv333[ebp], ecx
  006b4	eb 21		 jmp	 SHORT $LN57@save_gunsh
$LN56@save_gunsh:
  006b6	8b 15 00 00 00
	00		 mov	 edx, DWORD PTR ?__LINE__Var@?0??save_gunship_avionics_damage@@YGXXZ@4JA
  006bc	83 c2 6d	 add	 edx, 109		; 0000006dH
  006bf	52		 push	 edx
  006c0	68 00 00 00 00	 push	 OFFSET ??_C@_0EO@BCFJKHLO@c?3?2users?2nhv90?2projects?2eech?2ap@
  006c5	a1 00 00 00 00	 mov	 eax, DWORD PTR ?null_entity_pointer_message@@3PBDB ; null_entity_pointer_message
  006ca	50		 push	 eax
  006cb	e8 00 00 00 00	 call	 ?process_assert@@YGXPBD0H@Z ; process_assert
  006d0	c7 45 bc 00 00
	00 00		 mov	 DWORD PTR tv333[ebp], 0
$LN57@save_gunsh:
  006d7	b9 01 00 00 00	 mov	 ecx, 1
  006dc	85 c9		 test	 ecx, ecx
  006de	74 09		 je	 SHORT $LN58@save_gunsh
  006e0	c7 45 b8 54 00
	00 00		 mov	 DWORD PTR tv341[ebp], 84 ; 00000054H
  006e7	eb 21		 jmp	 SHORT $LN59@save_gunsh
$LN58@save_gunsh:
  006e9	8b 15 00 00 00
	00		 mov	 edx, DWORD PTR ?__LINE__Var@?0??save_gunship_avionics_damage@@YGXXZ@4JA
  006ef	83 c2 6d	 add	 edx, 109		; 0000006dH
  006f2	52		 push	 edx
  006f3	68 00 00 00 00	 push	 OFFSET ??_C@_0EO@BCFJKHLO@c?3?2users?2nhv90?2projects?2eech?2ap@
  006f8	a1 00 00 00 00	 mov	 eax, DWORD PTR ?overload_invalid_int_type_message@@3PBDB ; overload_invalid_int_type_message
  006fd	50		 push	 eax
  006fe	e8 00 00 00 00	 call	 ?process_assert@@YGXPBD0H@Z ; process_assert
  00703	c7 45 b8 00 00
	00 00		 mov	 DWORD PTR tv341[ebp], 0
$LN59@save_gunsh:
  0070a	8b 0d 00 00 00
	00		 mov	 ecx, DWORD PTR ?default_damage@@3TDEFAULT_DAMAGE_FLAGS@@A ; default_damage
  00710	51		 push	 ecx
  00711	6a 54		 push	 84			; 00000054H
  00713	8b 15 00 00 00
	00		 mov	 edx, DWORD PTR ?gunship_entity@@3PAUENTITY@@A ; gunship_entity
  00719	52		 push	 edx
  0071a	69 45 bc 5c 04
	00 00		 imul	 eax, DWORD PTR tv333[ebp], 1116
  00721	8b 4d b8	 mov	 ecx, DWORD PTR tv341[ebp]
  00724	8b 94 88 00 00
	00 00		 mov	 edx, DWORD PTR ?fn_set_local_entity_int_value@@3PAY0BBH@P6GXPAUENTITY@@W4INT_TYPES@@H@ZA[eax+ecx*4]
  0072b	ff d2		 call	 edx

; 1226 : 
; 1227 : 			debug_colour_log (DEBUG_COLOUR_AMBER, "Save default damage: %x", default_damage);

  0072d	a1 00 00 00 00	 mov	 eax, DWORD PTR ?default_damage@@3TDEFAULT_DAMAGE_FLAGS@@A ; default_damage
  00732	50		 push	 eax
  00733	68 00 00 00 00	 push	 OFFSET ??_C@_0BI@HEOGFFDN@Save?5default?5damage?3?5?$CFx@
  00738	6a 17		 push	 23			; 00000017H
  0073a	e8 00 00 00 00	 call	 ?debug_colour_log@@YAXW4DEBUG_COLOURS@@PBDZZ ; debug_colour_log
  0073f	83 c4 0c	 add	 esp, 12			; 0000000cH
$LN1@save_gunsh:

; 1228 : 
; 1229 : 			break;
; 1230 : 		}
; 1231 : 	}
; 1232 : }

  00742	5f		 pop	 edi
  00743	5e		 pop	 esi
  00744	5b		 pop	 ebx
  00745	8b e5		 mov	 esp, ebp
  00747	5d		 pop	 ebp
  00748	c3		 ret	 0
  00749	0f 1f 00	 npad	 3
$LN60@save_gunsh:
  0074c	00 00 00 00	 DD	 $LN4@save_gunsh
  00750	00 00 00 00	 DD	 $LN5@save_gunsh
  00754	00 00 00 00	 DD	 $LN6@save_gunsh
  00758	00 00 00 00	 DD	 $LN7@save_gunsh
  0075c	00 00 00 00	 DD	 $LN8@save_gunsh
  00760	00 00 00 00	 DD	 $LN9@save_gunsh
  00764	00 00 00 00	 DD	 $LN10@save_gunsh
  00768	00 00 00 00	 DD	 $LN11@save_gunsh
  0076c	00 00 00 00	 DD	 $LN12@save_gunsh
  00770	00 00 00 00	 DD	 $LN13@save_gunsh
?save_gunship_avionics_damage@@YGXXZ ENDP		; save_gunship_avionics_damage
_TEXT	ENDS
; Function compile flags: /Odtp /ZI
; File c:\users\nhv90\projects\eech\aphavoc\source\gunships\avionics\common\co_dam.c
;	COMDAT ?load_gunship_avionics_damage@@YGXXZ
_TEXT	SEGMENT
tv341 = -72						; size = 4
tv318 = -72						; size = 4
tv295 = -72						; size = 4
tv272 = -72						; size = 4
tv249 = -72						; size = 4
tv226 = -72						; size = 4
tv203 = -72						; size = 4
tv180 = -72						; size = 4
tv157 = -72						; size = 4
tv134 = -72						; size = 4
tv79 = -72						; size = 4
tv333 = -68						; size = 4
tv310 = -68						; size = 4
tv287 = -68						; size = 4
tv264 = -68						; size = 4
tv241 = -68						; size = 4
tv218 = -68						; size = 4
tv195 = -68						; size = 4
tv172 = -68						; size = 4
tv149 = -68						; size = 4
tv94 = -68						; size = 4
tv71 = -68						; size = 4
tv64 = -68						; size = 4
?load_gunship_avionics_damage@@YGXXZ PROC		; load_gunship_avionics_damage, COMDAT

; 969  : {

  00000	55		 push	 ebp
  00001	8b ec		 mov	 ebp, esp
  00003	83 ec 48	 sub	 esp, 72			; 00000048H
  00006	53		 push	 ebx
  00007	56		 push	 esi
  00008	57		 push	 edi

; 970  : 	fire_extinguisher_used = 0;

  00009	c7 05 00 00 00
	00 00 00 00 00	 mov	 DWORD PTR ?fire_extinguisher_used@@3HA, 0 ; fire_extinguisher_used

; 971  : 
; 972  : 	switch (get_global_gunship_type ())

  00013	a1 0c 00 00 00	 mov	 eax, DWORD PTR ?global_options@@3UGLOBAL_OPTIONS_DATA@@A+12
  00018	89 45 bc	 mov	 DWORD PTR tv64[ebp], eax
  0001b	83 7d bc 09	 cmp	 DWORD PTR tv64[ebp], 9
  0001f	0f 87 a4 06 00
	00		 ja	 $LN14@load_gunsh
  00025	8b 4d bc	 mov	 ecx, DWORD PTR tv64[ebp]
  00028	ff 24 8d 00 00
	00 00		 jmp	 DWORD PTR $LN60@load_gunsh[ecx*4]
$LN4@load_gunsh:

; 973  : 	{
; 974  : 		////////////////////////////////////////
; 975  : 		// JB 030313 Fly any aircraft
; 976  : //		default:
; 977  : 		case GUNSHIP_TYPE_APACHE:
; 978  : 		////////////////////////////////////////
; 979  : 		{
; 980  : 			apache_damage.flags = get_local_entity_int_value (get_gunship_entity (), INT_TYPE_HELICOPTER_DAMAGE_FLAGS);

  0002f	83 3d 00 00 00
	00 00		 cmp	 DWORD PTR ?gunship_entity@@3PAUENTITY@@A, 0 ; gunship_entity
  00036	74 0c		 je	 SHORT $LN16@load_gunsh
  00038	a1 00 00 00 00	 mov	 eax, DWORD PTR ?gunship_entity@@3PAUENTITY@@A ; gunship_entity
  0003d	8b 08		 mov	 ecx, DWORD PTR [eax]
  0003f	89 4d bc	 mov	 DWORD PTR tv71[ebp], ecx
  00042	eb 21		 jmp	 SHORT $LN17@load_gunsh
$LN16@load_gunsh:
  00044	8b 15 00 00 00
	00		 mov	 edx, DWORD PTR ?__LINE__Var@?0??load_gunship_avionics_damage@@YGXXZ@4JA
  0004a	83 c2 0b	 add	 edx, 11			; 0000000bH
  0004d	52		 push	 edx
  0004e	68 00 00 00 00	 push	 OFFSET ??_C@_0EO@BCFJKHLO@c?3?2users?2nhv90?2projects?2eech?2ap@
  00053	a1 00 00 00 00	 mov	 eax, DWORD PTR ?null_entity_pointer_message@@3PBDB ; null_entity_pointer_message
  00058	50		 push	 eax
  00059	e8 00 00 00 00	 call	 ?process_assert@@YGXPBD0H@Z ; process_assert
  0005e	c7 45 bc 00 00
	00 00		 mov	 DWORD PTR tv71[ebp], 0
$LN17@load_gunsh:
  00065	b9 01 00 00 00	 mov	 ecx, 1
  0006a	85 c9		 test	 ecx, ecx
  0006c	74 09		 je	 SHORT $LN18@load_gunsh
  0006e	c7 45 b8 54 00
	00 00		 mov	 DWORD PTR tv79[ebp], 84	; 00000054H
  00075	eb 21		 jmp	 SHORT $LN19@load_gunsh
$LN18@load_gunsh:
  00077	8b 15 00 00 00
	00		 mov	 edx, DWORD PTR ?__LINE__Var@?0??load_gunship_avionics_damage@@YGXXZ@4JA
  0007d	83 c2 0b	 add	 edx, 11			; 0000000bH
  00080	52		 push	 edx
  00081	68 00 00 00 00	 push	 OFFSET ??_C@_0EO@BCFJKHLO@c?3?2users?2nhv90?2projects?2eech?2ap@
  00086	a1 00 00 00 00	 mov	 eax, DWORD PTR ?overload_invalid_int_type_message@@3PBDB ; overload_invalid_int_type_message
  0008b	50		 push	 eax
  0008c	e8 00 00 00 00	 call	 ?process_assert@@YGXPBD0H@Z ; process_assert
  00091	c7 45 b8 00 00
	00 00		 mov	 DWORD PTR tv79[ebp], 0
$LN19@load_gunsh:
  00098	6a 54		 push	 84			; 00000054H
  0009a	8b 0d 00 00 00
	00		 mov	 ecx, DWORD PTR ?gunship_entity@@3PAUENTITY@@A ; gunship_entity
  000a0	51		 push	 ecx
  000a1	69 55 bc 5c 04
	00 00		 imul	 edx, DWORD PTR tv71[ebp], 1116
  000a8	8b 45 b8	 mov	 eax, DWORD PTR tv79[ebp]
  000ab	8b 8c 82 00 00
	00 00		 mov	 ecx, DWORD PTR ?fn_get_local_entity_int_value@@3PAY0BBH@P6GHPAUENTITY@@W4INT_TYPES@@@ZA[edx+eax*4]
  000b2	ff d1		 call	 ecx
  000b4	a3 00 00 00 00	 mov	 DWORD PTR ?apache_damage@@3TAPACHE_DAMAGE_FLAGS@@A, eax ; apache_damage

; 981  : 
; 982  : 			set_apache_weapon_damage_status ();

  000b9	e8 00 00 00 00	 call	 ?set_apache_weapon_damage_status@@YGXXZ ; set_apache_weapon_damage_status

; 983  : 
; 984  : 			debug_colour_log (DEBUG_COLOUR_AMBER, "Load Apache damage: %x", apache_damage.flags);

  000be	a1 00 00 00 00	 mov	 eax, DWORD PTR ?apache_damage@@3TAPACHE_DAMAGE_FLAGS@@A ; apache_damage
  000c3	50		 push	 eax
  000c4	68 00 00 00 00	 push	 OFFSET ??_C@_0BH@HGDMPAF@Load?5Apache?5damage?3?5?$CFx@
  000c9	6a 17		 push	 23			; 00000017H
  000cb	e8 00 00 00 00	 call	 ?debug_colour_log@@YAXW4DEBUG_COLOURS@@PBDZZ ; debug_colour_log
  000d0	83 c4 0c	 add	 esp, 12			; 0000000cH

; 985  : 
; 986  : 			break;

  000d3	e9 9b 06 00 00	 jmp	 $LN1@load_gunsh
$LN5@load_gunsh:

; 987  : 		}
; 988  : 		////////////////////////////////////////
; 989  : 		case GUNSHIP_TYPE_HAVOC:
; 990  : 		////////////////////////////////////////
; 991  : 		{
; 992  : 			havoc_damage.flags = get_local_entity_int_value (get_gunship_entity (), INT_TYPE_HELICOPTER_DAMAGE_FLAGS);

  000d8	83 3d 00 00 00
	00 00		 cmp	 DWORD PTR ?gunship_entity@@3PAUENTITY@@A, 0 ; gunship_entity
  000df	74 0c		 je	 SHORT $LN20@load_gunsh
  000e1	a1 00 00 00 00	 mov	 eax, DWORD PTR ?gunship_entity@@3PAUENTITY@@A ; gunship_entity
  000e6	8b 08		 mov	 ecx, DWORD PTR [eax]
  000e8	89 4d bc	 mov	 DWORD PTR tv94[ebp], ecx
  000eb	eb 21		 jmp	 SHORT $LN21@load_gunsh
$LN20@load_gunsh:
  000ed	8b 15 00 00 00
	00		 mov	 edx, DWORD PTR ?__LINE__Var@?0??load_gunship_avionics_damage@@YGXXZ@4JA
  000f3	83 c2 17	 add	 edx, 23			; 00000017H
  000f6	52		 push	 edx
  000f7	68 00 00 00 00	 push	 OFFSET ??_C@_0EO@BCFJKHLO@c?3?2users?2nhv90?2projects?2eech?2ap@
  000fc	a1 00 00 00 00	 mov	 eax, DWORD PTR ?null_entity_pointer_message@@3PBDB ; null_entity_pointer_message
  00101	50		 push	 eax
  00102	e8 00 00 00 00	 call	 ?process_assert@@YGXPBD0H@Z ; process_assert
  00107	c7 45 bc 00 00
	00 00		 mov	 DWORD PTR tv94[ebp], 0
$LN21@load_gunsh:
  0010e	b9 01 00 00 00	 mov	 ecx, 1
  00113	85 c9		 test	 ecx, ecx
  00115	74 09		 je	 SHORT $LN22@load_gunsh
  00117	c7 45 b8 54 00
	00 00		 mov	 DWORD PTR tv134[ebp], 84 ; 00000054H
  0011e	eb 21		 jmp	 SHORT $LN23@load_gunsh
$LN22@load_gunsh:
  00120	8b 15 00 00 00
	00		 mov	 edx, DWORD PTR ?__LINE__Var@?0??load_gunship_avionics_damage@@YGXXZ@4JA
  00126	83 c2 17	 add	 edx, 23			; 00000017H
  00129	52		 push	 edx
  0012a	68 00 00 00 00	 push	 OFFSET ??_C@_0EO@BCFJKHLO@c?3?2users?2nhv90?2projects?2eech?2ap@
  0012f	a1 00 00 00 00	 mov	 eax, DWORD PTR ?overload_invalid_int_type_message@@3PBDB ; overload_invalid_int_type_message
  00134	50		 push	 eax
  00135	e8 00 00 00 00	 call	 ?process_assert@@YGXPBD0H@Z ; process_assert
  0013a	c7 45 b8 00 00
	00 00		 mov	 DWORD PTR tv134[ebp], 0
$LN23@load_gunsh:
  00141	6a 54		 push	 84			; 00000054H
  00143	8b 0d 00 00 00
	00		 mov	 ecx, DWORD PTR ?gunship_entity@@3PAUENTITY@@A ; gunship_entity
  00149	51		 push	 ecx
  0014a	69 55 bc 5c 04
	00 00		 imul	 edx, DWORD PTR tv94[ebp], 1116
  00151	8b 45 b8	 mov	 eax, DWORD PTR tv134[ebp]
  00154	8b 8c 82 00 00
	00 00		 mov	 ecx, DWORD PTR ?fn_get_local_entity_int_value@@3PAY0BBH@P6GHPAUENTITY@@W4INT_TYPES@@@ZA[edx+eax*4]
  0015b	ff d1		 call	 ecx
  0015d	a3 00 00 00 00	 mov	 DWORD PTR ?havoc_damage@@3THAVOC_DAMAGE_FLAGS@@A, eax ; havoc_damage

; 993  : 
; 994  : 			set_havoc_weapon_damage_status ();

  00162	e8 00 00 00 00	 call	 ?set_havoc_weapon_damage_status@@YGXXZ ; set_havoc_weapon_damage_status

; 995  : 
; 996  : 			debug_colour_log (DEBUG_COLOUR_AMBER, "Load Havoc damage: %x", havoc_damage.flags);

  00167	a1 00 00 00 00	 mov	 eax, DWORD PTR ?havoc_damage@@3THAVOC_DAMAGE_FLAGS@@A ; havoc_damage
  0016c	50		 push	 eax
  0016d	68 00 00 00 00	 push	 OFFSET ??_C@_0BG@FALBGNLD@Load?5Havoc?5damage?3?5?$CFx@
  00172	6a 17		 push	 23			; 00000017H
  00174	e8 00 00 00 00	 call	 ?debug_colour_log@@YAXW4DEBUG_COLOURS@@PBDZZ ; debug_colour_log
  00179	83 c4 0c	 add	 esp, 12			; 0000000cH

; 997  : 
; 998  : 			break;

  0017c	e9 f2 05 00 00	 jmp	 $LN1@load_gunsh
$LN6@load_gunsh:

; 999  : 		}
; 1000 : 		////////////////////////////////////////
; 1001 : 		case GUNSHIP_TYPE_COMANCHE:
; 1002 : 		////////////////////////////////////////
; 1003 : 		{
; 1004 : 			comanche_damage.flags = get_local_entity_int_value (get_gunship_entity (), INT_TYPE_HELICOPTER_DAMAGE_FLAGS);

  00181	83 3d 00 00 00
	00 00		 cmp	 DWORD PTR ?gunship_entity@@3PAUENTITY@@A, 0 ; gunship_entity
  00188	74 0c		 je	 SHORT $LN24@load_gunsh
  0018a	a1 00 00 00 00	 mov	 eax, DWORD PTR ?gunship_entity@@3PAUENTITY@@A ; gunship_entity
  0018f	8b 08		 mov	 ecx, DWORD PTR [eax]
  00191	89 4d bc	 mov	 DWORD PTR tv149[ebp], ecx
  00194	eb 21		 jmp	 SHORT $LN25@load_gunsh
$LN24@load_gunsh:
  00196	8b 15 00 00 00
	00		 mov	 edx, DWORD PTR ?__LINE__Var@?0??load_gunship_avionics_damage@@YGXXZ@4JA
  0019c	83 c2 23	 add	 edx, 35			; 00000023H
  0019f	52		 push	 edx
  001a0	68 00 00 00 00	 push	 OFFSET ??_C@_0EO@BCFJKHLO@c?3?2users?2nhv90?2projects?2eech?2ap@
  001a5	a1 00 00 00 00	 mov	 eax, DWORD PTR ?null_entity_pointer_message@@3PBDB ; null_entity_pointer_message
  001aa	50		 push	 eax
  001ab	e8 00 00 00 00	 call	 ?process_assert@@YGXPBD0H@Z ; process_assert
  001b0	c7 45 bc 00 00
	00 00		 mov	 DWORD PTR tv149[ebp], 0
$LN25@load_gunsh:
  001b7	b9 01 00 00 00	 mov	 ecx, 1
  001bc	85 c9		 test	 ecx, ecx
  001be	74 09		 je	 SHORT $LN26@load_gunsh
  001c0	c7 45 b8 54 00
	00 00		 mov	 DWORD PTR tv157[ebp], 84 ; 00000054H
  001c7	eb 21		 jmp	 SHORT $LN27@load_gunsh
$LN26@load_gunsh:
  001c9	8b 15 00 00 00
	00		 mov	 edx, DWORD PTR ?__LINE__Var@?0??load_gunship_avionics_damage@@YGXXZ@4JA
  001cf	83 c2 23	 add	 edx, 35			; 00000023H
  001d2	52		 push	 edx
  001d3	68 00 00 00 00	 push	 OFFSET ??_C@_0EO@BCFJKHLO@c?3?2users?2nhv90?2projects?2eech?2ap@
  001d8	a1 00 00 00 00	 mov	 eax, DWORD PTR ?overload_invalid_int_type_message@@3PBDB ; overload_invalid_int_type_message
  001dd	50		 push	 eax
  001de	e8 00 00 00 00	 call	 ?process_assert@@YGXPBD0H@Z ; process_assert
  001e3	c7 45 b8 00 00
	00 00		 mov	 DWORD PTR tv157[ebp], 0
$LN27@load_gunsh:
  001ea	6a 54		 push	 84			; 00000054H
  001ec	8b 0d 00 00 00
	00		 mov	 ecx, DWORD PTR ?gunship_entity@@3PAUENTITY@@A ; gunship_entity
  001f2	51		 push	 ecx
  001f3	69 55 bc 5c 04
	00 00		 imul	 edx, DWORD PTR tv149[ebp], 1116
  001fa	8b 45 b8	 mov	 eax, DWORD PTR tv157[ebp]
  001fd	8b 8c 82 00 00
	00 00		 mov	 ecx, DWORD PTR ?fn_get_local_entity_int_value@@3PAY0BBH@P6GHPAUENTITY@@W4INT_TYPES@@@ZA[edx+eax*4]
  00204	ff d1		 call	 ecx
  00206	a3 00 00 00 00	 mov	 DWORD PTR ?comanche_damage@@3TCOMANCHE_DAMAGE_FLAGS@@A, eax ; comanche_damage

; 1005 : 
; 1006 : 			set_comanche_weapon_damage_status ();

  0020b	e8 00 00 00 00	 call	 ?set_comanche_weapon_damage_status@@YGXXZ ; set_comanche_weapon_damage_status

; 1007 : 
; 1008 : 			debug_colour_log (DEBUG_COLOUR_AMBER, "Load Comanche damage: %x", comanche_damage.flags);

  00210	a1 00 00 00 00	 mov	 eax, DWORD PTR ?comanche_damage@@3TCOMANCHE_DAMAGE_FLAGS@@A ; comanche_damage
  00215	50		 push	 eax
  00216	68 00 00 00 00	 push	 OFFSET ??_C@_0BJ@BDHGJBOL@Load?5Comanche?5damage?3?5?$CFx@
  0021b	6a 17		 push	 23			; 00000017H
  0021d	e8 00 00 00 00	 call	 ?debug_colour_log@@YAXW4DEBUG_COLOURS@@PBDZZ ; debug_colour_log
  00222	83 c4 0c	 add	 esp, 12			; 0000000cH

; 1009 : 
; 1010 : 			break;

  00225	e9 49 05 00 00	 jmp	 $LN1@load_gunsh
$LN7@load_gunsh:

; 1011 : 		}
; 1012 : 		////////////////////////////////////////
; 1013 : 		case GUNSHIP_TYPE_HOKUM:
; 1014 : 		////////////////////////////////////////
; 1015 : 		{
; 1016 : 			hokum_damage.flags = get_local_entity_int_value (get_gunship_entity (), INT_TYPE_HELICOPTER_DAMAGE_FLAGS);

  0022a	83 3d 00 00 00
	00 00		 cmp	 DWORD PTR ?gunship_entity@@3PAUENTITY@@A, 0 ; gunship_entity
  00231	74 0c		 je	 SHORT $LN28@load_gunsh
  00233	a1 00 00 00 00	 mov	 eax, DWORD PTR ?gunship_entity@@3PAUENTITY@@A ; gunship_entity
  00238	8b 08		 mov	 ecx, DWORD PTR [eax]
  0023a	89 4d bc	 mov	 DWORD PTR tv172[ebp], ecx
  0023d	eb 21		 jmp	 SHORT $LN29@load_gunsh
$LN28@load_gunsh:
  0023f	8b 15 00 00 00
	00		 mov	 edx, DWORD PTR ?__LINE__Var@?0??load_gunship_avionics_damage@@YGXXZ@4JA
  00245	83 c2 2f	 add	 edx, 47			; 0000002fH
  00248	52		 push	 edx
  00249	68 00 00 00 00	 push	 OFFSET ??_C@_0EO@BCFJKHLO@c?3?2users?2nhv90?2projects?2eech?2ap@
  0024e	a1 00 00 00 00	 mov	 eax, DWORD PTR ?null_entity_pointer_message@@3PBDB ; null_entity_pointer_message
  00253	50		 push	 eax
  00254	e8 00 00 00 00	 call	 ?process_assert@@YGXPBD0H@Z ; process_assert
  00259	c7 45 bc 00 00
	00 00		 mov	 DWORD PTR tv172[ebp], 0
$LN29@load_gunsh:
  00260	b9 01 00 00 00	 mov	 ecx, 1
  00265	85 c9		 test	 ecx, ecx
  00267	74 09		 je	 SHORT $LN30@load_gunsh
  00269	c7 45 b8 54 00
	00 00		 mov	 DWORD PTR tv180[ebp], 84 ; 00000054H
  00270	eb 21		 jmp	 SHORT $LN31@load_gunsh
$LN30@load_gunsh:
  00272	8b 15 00 00 00
	00		 mov	 edx, DWORD PTR ?__LINE__Var@?0??load_gunship_avionics_damage@@YGXXZ@4JA
  00278	83 c2 2f	 add	 edx, 47			; 0000002fH
  0027b	52		 push	 edx
  0027c	68 00 00 00 00	 push	 OFFSET ??_C@_0EO@BCFJKHLO@c?3?2users?2nhv90?2projects?2eech?2ap@
  00281	a1 00 00 00 00	 mov	 eax, DWORD PTR ?overload_invalid_int_type_message@@3PBDB ; overload_invalid_int_type_message
  00286	50		 push	 eax
  00287	e8 00 00 00 00	 call	 ?process_assert@@YGXPBD0H@Z ; process_assert
  0028c	c7 45 b8 00 00
	00 00		 mov	 DWORD PTR tv180[ebp], 0
$LN31@load_gunsh:
  00293	6a 54		 push	 84			; 00000054H
  00295	8b 0d 00 00 00
	00		 mov	 ecx, DWORD PTR ?gunship_entity@@3PAUENTITY@@A ; gunship_entity
  0029b	51		 push	 ecx
  0029c	69 55 bc 5c 04
	00 00		 imul	 edx, DWORD PTR tv172[ebp], 1116
  002a3	8b 45 b8	 mov	 eax, DWORD PTR tv180[ebp]
  002a6	8b 8c 82 00 00
	00 00		 mov	 ecx, DWORD PTR ?fn_get_local_entity_int_value@@3PAY0BBH@P6GHPAUENTITY@@W4INT_TYPES@@@ZA[edx+eax*4]
  002ad	ff d1		 call	 ecx
  002af	a3 00 00 00 00	 mov	 DWORD PTR ?hokum_damage@@3THOKUM_DAMAGE_FLAGS@@A, eax ; hokum_damage

; 1017 : 
; 1018 : 			set_hokum_weapon_damage_status ();

  002b4	e8 00 00 00 00	 call	 ?set_hokum_weapon_damage_status@@YGXXZ ; set_hokum_weapon_damage_status

; 1019 : 
; 1020 : 			debug_colour_log (DEBUG_COLOUR_AMBER, "Load Hokum damage: %x", hokum_damage.flags);

  002b9	a1 00 00 00 00	 mov	 eax, DWORD PTR ?hokum_damage@@3THOKUM_DAMAGE_FLAGS@@A ; hokum_damage
  002be	50		 push	 eax
  002bf	68 00 00 00 00	 push	 OFFSET ??_C@_0BG@IGDMJMBM@Load?5Hokum?5damage?3?5?$CFx@
  002c4	6a 17		 push	 23			; 00000017H
  002c6	e8 00 00 00 00	 call	 ?debug_colour_log@@YAXW4DEBUG_COLOURS@@PBDZZ ; debug_colour_log
  002cb	83 c4 0c	 add	 esp, 12			; 0000000cH

; 1021 : 
; 1022 : 			break;

  002ce	e9 a0 04 00 00	 jmp	 $LN1@load_gunsh
$LN8@load_gunsh:

; 1023 : 		}
; 1024 : 		////Moje 030817 start
; 1025 : 		case GUNSHIP_TYPE_BLACKHAWK:
; 1026 : 		////////////////////////////////////////
; 1027 : 		{
; 1028 : 			blackhawk_damage.flags = get_local_entity_int_value (get_gunship_entity (), INT_TYPE_HELICOPTER_DAMAGE_FLAGS);

  002d3	83 3d 00 00 00
	00 00		 cmp	 DWORD PTR ?gunship_entity@@3PAUENTITY@@A, 0 ; gunship_entity
  002da	74 0c		 je	 SHORT $LN32@load_gunsh
  002dc	a1 00 00 00 00	 mov	 eax, DWORD PTR ?gunship_entity@@3PAUENTITY@@A ; gunship_entity
  002e1	8b 08		 mov	 ecx, DWORD PTR [eax]
  002e3	89 4d bc	 mov	 DWORD PTR tv195[ebp], ecx
  002e6	eb 21		 jmp	 SHORT $LN33@load_gunsh
$LN32@load_gunsh:
  002e8	8b 15 00 00 00
	00		 mov	 edx, DWORD PTR ?__LINE__Var@?0??load_gunship_avionics_damage@@YGXXZ@4JA
  002ee	83 c2 3b	 add	 edx, 59			; 0000003bH
  002f1	52		 push	 edx
  002f2	68 00 00 00 00	 push	 OFFSET ??_C@_0EO@BCFJKHLO@c?3?2users?2nhv90?2projects?2eech?2ap@
  002f7	a1 00 00 00 00	 mov	 eax, DWORD PTR ?null_entity_pointer_message@@3PBDB ; null_entity_pointer_message
  002fc	50		 push	 eax
  002fd	e8 00 00 00 00	 call	 ?process_assert@@YGXPBD0H@Z ; process_assert
  00302	c7 45 bc 00 00
	00 00		 mov	 DWORD PTR tv195[ebp], 0
$LN33@load_gunsh:
  00309	b9 01 00 00 00	 mov	 ecx, 1
  0030e	85 c9		 test	 ecx, ecx
  00310	74 09		 je	 SHORT $LN34@load_gunsh
  00312	c7 45 b8 54 00
	00 00		 mov	 DWORD PTR tv203[ebp], 84 ; 00000054H
  00319	eb 21		 jmp	 SHORT $LN35@load_gunsh
$LN34@load_gunsh:
  0031b	8b 15 00 00 00
	00		 mov	 edx, DWORD PTR ?__LINE__Var@?0??load_gunship_avionics_damage@@YGXXZ@4JA
  00321	83 c2 3b	 add	 edx, 59			; 0000003bH
  00324	52		 push	 edx
  00325	68 00 00 00 00	 push	 OFFSET ??_C@_0EO@BCFJKHLO@c?3?2users?2nhv90?2projects?2eech?2ap@
  0032a	a1 00 00 00 00	 mov	 eax, DWORD PTR ?overload_invalid_int_type_message@@3PBDB ; overload_invalid_int_type_message
  0032f	50		 push	 eax
  00330	e8 00 00 00 00	 call	 ?process_assert@@YGXPBD0H@Z ; process_assert
  00335	c7 45 b8 00 00
	00 00		 mov	 DWORD PTR tv203[ebp], 0
$LN35@load_gunsh:
  0033c	6a 54		 push	 84			; 00000054H
  0033e	8b 0d 00 00 00
	00		 mov	 ecx, DWORD PTR ?gunship_entity@@3PAUENTITY@@A ; gunship_entity
  00344	51		 push	 ecx
  00345	69 55 bc 5c 04
	00 00		 imul	 edx, DWORD PTR tv195[ebp], 1116
  0034c	8b 45 b8	 mov	 eax, DWORD PTR tv203[ebp]
  0034f	8b 8c 82 00 00
	00 00		 mov	 ecx, DWORD PTR ?fn_get_local_entity_int_value@@3PAY0BBH@P6GHPAUENTITY@@W4INT_TYPES@@@ZA[edx+eax*4]
  00356	ff d1		 call	 ecx
  00358	a3 00 00 00 00	 mov	 DWORD PTR ?blackhawk_damage@@3TBLACKHAWK_DAMAGE_FLAGS@@A, eax ; blackhawk_damage

; 1029 : 
; 1030 : 			set_blackhawk_weapon_damage_status ();

  0035d	e8 00 00 00 00	 call	 ?set_blackhawk_weapon_damage_status@@YGXXZ ; set_blackhawk_weapon_damage_status

; 1031 : 
; 1032 : 			debug_colour_log (DEBUG_COLOUR_AMBER, "Load blackhawk damage: %x", blackhawk_damage.flags);

  00362	a1 00 00 00 00	 mov	 eax, DWORD PTR ?blackhawk_damage@@3TBLACKHAWK_DAMAGE_FLAGS@@A ; blackhawk_damage
  00367	50		 push	 eax
  00368	68 00 00 00 00	 push	 OFFSET ??_C@_0BK@PMOMHLEJ@Load?5blackhawk?5damage?3?5?$CFx@
  0036d	6a 17		 push	 23			; 00000017H
  0036f	e8 00 00 00 00	 call	 ?debug_colour_log@@YAXW4DEBUG_COLOURS@@PBDZZ ; debug_colour_log
  00374	83 c4 0c	 add	 esp, 12			; 0000000cH

; 1033 : 
; 1034 : 			break;

  00377	e9 f7 03 00 00	 jmp	 $LN1@load_gunsh
$LN9@load_gunsh:

; 1035 : 		}
; 1036 : 		case GUNSHIP_TYPE_HIND:
; 1037 : 		////////////////////////////////////////
; 1038 : 		{
; 1039 : 			hind_damage.flags = get_local_entity_int_value (get_gunship_entity (), INT_TYPE_HELICOPTER_DAMAGE_FLAGS);

  0037c	83 3d 00 00 00
	00 00		 cmp	 DWORD PTR ?gunship_entity@@3PAUENTITY@@A, 0 ; gunship_entity
  00383	74 0c		 je	 SHORT $LN36@load_gunsh
  00385	a1 00 00 00 00	 mov	 eax, DWORD PTR ?gunship_entity@@3PAUENTITY@@A ; gunship_entity
  0038a	8b 08		 mov	 ecx, DWORD PTR [eax]
  0038c	89 4d bc	 mov	 DWORD PTR tv218[ebp], ecx
  0038f	eb 21		 jmp	 SHORT $LN37@load_gunsh
$LN36@load_gunsh:
  00391	8b 15 00 00 00
	00		 mov	 edx, DWORD PTR ?__LINE__Var@?0??load_gunship_avionics_damage@@YGXXZ@4JA
  00397	83 c2 46	 add	 edx, 70			; 00000046H
  0039a	52		 push	 edx
  0039b	68 00 00 00 00	 push	 OFFSET ??_C@_0EO@BCFJKHLO@c?3?2users?2nhv90?2projects?2eech?2ap@
  003a0	a1 00 00 00 00	 mov	 eax, DWORD PTR ?null_entity_pointer_message@@3PBDB ; null_entity_pointer_message
  003a5	50		 push	 eax
  003a6	e8 00 00 00 00	 call	 ?process_assert@@YGXPBD0H@Z ; process_assert
  003ab	c7 45 bc 00 00
	00 00		 mov	 DWORD PTR tv218[ebp], 0
$LN37@load_gunsh:
  003b2	b9 01 00 00 00	 mov	 ecx, 1
  003b7	85 c9		 test	 ecx, ecx
  003b9	74 09		 je	 SHORT $LN38@load_gunsh
  003bb	c7 45 b8 54 00
	00 00		 mov	 DWORD PTR tv226[ebp], 84 ; 00000054H
  003c2	eb 21		 jmp	 SHORT $LN39@load_gunsh
$LN38@load_gunsh:
  003c4	8b 15 00 00 00
	00		 mov	 edx, DWORD PTR ?__LINE__Var@?0??load_gunship_avionics_damage@@YGXXZ@4JA
  003ca	83 c2 46	 add	 edx, 70			; 00000046H
  003cd	52		 push	 edx
  003ce	68 00 00 00 00	 push	 OFFSET ??_C@_0EO@BCFJKHLO@c?3?2users?2nhv90?2projects?2eech?2ap@
  003d3	a1 00 00 00 00	 mov	 eax, DWORD PTR ?overload_invalid_int_type_message@@3PBDB ; overload_invalid_int_type_message
  003d8	50		 push	 eax
  003d9	e8 00 00 00 00	 call	 ?process_assert@@YGXPBD0H@Z ; process_assert
  003de	c7 45 b8 00 00
	00 00		 mov	 DWORD PTR tv226[ebp], 0
$LN39@load_gunsh:
  003e5	6a 54		 push	 84			; 00000054H
  003e7	8b 0d 00 00 00
	00		 mov	 ecx, DWORD PTR ?gunship_entity@@3PAUENTITY@@A ; gunship_entity
  003ed	51		 push	 ecx
  003ee	69 55 bc 5c 04
	00 00		 imul	 edx, DWORD PTR tv218[ebp], 1116
  003f5	8b 45 b8	 mov	 eax, DWORD PTR tv226[ebp]
  003f8	8b 8c 82 00 00
	00 00		 mov	 ecx, DWORD PTR ?fn_get_local_entity_int_value@@3PAY0BBH@P6GHPAUENTITY@@W4INT_TYPES@@@ZA[edx+eax*4]
  003ff	ff d1		 call	 ecx
  00401	a3 00 00 00 00	 mov	 DWORD PTR ?hind_damage@@3THIND_DAMAGE_FLAGS@@A, eax ; hind_damage

; 1040 : 
; 1041 : 			set_hind_weapon_damage_status ();

  00406	e8 00 00 00 00	 call	 ?set_hind_weapon_damage_status@@YGXXZ ; set_hind_weapon_damage_status

; 1042 : 
; 1043 : 			debug_colour_log (DEBUG_COLOUR_AMBER, "Load Hind damage: %x", hind_damage.flags);

  0040b	a1 00 00 00 00	 mov	 eax, DWORD PTR ?hind_damage@@3THIND_DAMAGE_FLAGS@@A ; hind_damage
  00410	50		 push	 eax
  00411	68 00 00 00 00	 push	 OFFSET ??_C@_0BF@EDJGJPFA@Load?5Hind?5damage?3?5?$CFx@
  00416	6a 17		 push	 23			; 00000017H
  00418	e8 00 00 00 00	 call	 ?debug_colour_log@@YAXW4DEBUG_COLOURS@@PBDZZ ; debug_colour_log
  0041d	83 c4 0c	 add	 esp, 12			; 0000000cH

; 1044 : 
; 1045 : 			break;

  00420	e9 4e 03 00 00	 jmp	 $LN1@load_gunsh
$LN10@load_gunsh:

; 1046 : 		}
; 1047 : 		case GUNSHIP_TYPE_AH64A:
; 1048 : 		////////////////////////////////////////
; 1049 : 		{
; 1050 : 			ah64a_damage.flags = get_local_entity_int_value (get_gunship_entity (), INT_TYPE_HELICOPTER_DAMAGE_FLAGS);

  00425	83 3d 00 00 00
	00 00		 cmp	 DWORD PTR ?gunship_entity@@3PAUENTITY@@A, 0 ; gunship_entity
  0042c	74 0c		 je	 SHORT $LN40@load_gunsh
  0042e	a1 00 00 00 00	 mov	 eax, DWORD PTR ?gunship_entity@@3PAUENTITY@@A ; gunship_entity
  00433	8b 08		 mov	 ecx, DWORD PTR [eax]
  00435	89 4d bc	 mov	 DWORD PTR tv241[ebp], ecx
  00438	eb 21		 jmp	 SHORT $LN41@load_gunsh
$LN40@load_gunsh:
  0043a	8b 15 00 00 00
	00		 mov	 edx, DWORD PTR ?__LINE__Var@?0??load_gunship_avionics_damage@@YGXXZ@4JA
  00440	83 c2 51	 add	 edx, 81			; 00000051H
  00443	52		 push	 edx
  00444	68 00 00 00 00	 push	 OFFSET ??_C@_0EO@BCFJKHLO@c?3?2users?2nhv90?2projects?2eech?2ap@
  00449	a1 00 00 00 00	 mov	 eax, DWORD PTR ?null_entity_pointer_message@@3PBDB ; null_entity_pointer_message
  0044e	50		 push	 eax
  0044f	e8 00 00 00 00	 call	 ?process_assert@@YGXPBD0H@Z ; process_assert
  00454	c7 45 bc 00 00
	00 00		 mov	 DWORD PTR tv241[ebp], 0
$LN41@load_gunsh:
  0045b	b9 01 00 00 00	 mov	 ecx, 1
  00460	85 c9		 test	 ecx, ecx
  00462	74 09		 je	 SHORT $LN42@load_gunsh
  00464	c7 45 b8 54 00
	00 00		 mov	 DWORD PTR tv249[ebp], 84 ; 00000054H
  0046b	eb 21		 jmp	 SHORT $LN43@load_gunsh
$LN42@load_gunsh:
  0046d	8b 15 00 00 00
	00		 mov	 edx, DWORD PTR ?__LINE__Var@?0??load_gunship_avionics_damage@@YGXXZ@4JA
  00473	83 c2 51	 add	 edx, 81			; 00000051H
  00476	52		 push	 edx
  00477	68 00 00 00 00	 push	 OFFSET ??_C@_0EO@BCFJKHLO@c?3?2users?2nhv90?2projects?2eech?2ap@
  0047c	a1 00 00 00 00	 mov	 eax, DWORD PTR ?overload_invalid_int_type_message@@3PBDB ; overload_invalid_int_type_message
  00481	50		 push	 eax
  00482	e8 00 00 00 00	 call	 ?process_assert@@YGXPBD0H@Z ; process_assert
  00487	c7 45 b8 00 00
	00 00		 mov	 DWORD PTR tv249[ebp], 0
$LN43@load_gunsh:
  0048e	6a 54		 push	 84			; 00000054H
  00490	8b 0d 00 00 00
	00		 mov	 ecx, DWORD PTR ?gunship_entity@@3PAUENTITY@@A ; gunship_entity
  00496	51		 push	 ecx
  00497	69 55 bc 5c 04
	00 00		 imul	 edx, DWORD PTR tv241[ebp], 1116
  0049e	8b 45 b8	 mov	 eax, DWORD PTR tv249[ebp]
  004a1	8b 8c 82 00 00
	00 00		 mov	 ecx, DWORD PTR ?fn_get_local_entity_int_value@@3PAY0BBH@P6GHPAUENTITY@@W4INT_TYPES@@@ZA[edx+eax*4]
  004a8	ff d1		 call	 ecx
  004aa	a3 00 00 00 00	 mov	 DWORD PTR ?ah64a_damage@@3TAH64A_DAMAGE_FLAGS@@A, eax ; ah64a_damage

; 1051 : 			set_ah64a_weapon_damage_status ();

  004af	e8 00 00 00 00	 call	 ?set_ah64a_weapon_damage_status@@YGXXZ ; set_ah64a_weapon_damage_status

; 1052 : 			debug_colour_log (DEBUG_COLOUR_AMBER, "Load ah64a damage: %x", ah64a_damage.flags);

  004b4	a1 00 00 00 00	 mov	 eax, DWORD PTR ?ah64a_damage@@3TAH64A_DAMAGE_FLAGS@@A ; ah64a_damage
  004b9	50		 push	 eax
  004ba	68 00 00 00 00	 push	 OFFSET ??_C@_0BG@ELOLAM@Load?5ah64a?5damage?3?5?$CFx@
  004bf	6a 17		 push	 23			; 00000017H
  004c1	e8 00 00 00 00	 call	 ?debug_colour_log@@YAXW4DEBUG_COLOURS@@PBDZZ ; debug_colour_log
  004c6	83 c4 0c	 add	 esp, 12			; 0000000cH

; 1053 : 			break;

  004c9	e9 a5 02 00 00	 jmp	 $LN1@load_gunsh
$LN11@load_gunsh:

; 1054 : 		}
; 1055 : 		////////////////////////////////////////
; 1056 : 		case GUNSHIP_TYPE_KA50:
; 1057 : 		////////////////////////////////////////
; 1058 : 		{
; 1059 : 			ka50_damage.flags = get_local_entity_int_value (get_gunship_entity (), INT_TYPE_HELICOPTER_DAMAGE_FLAGS);

  004ce	83 3d 00 00 00
	00 00		 cmp	 DWORD PTR ?gunship_entity@@3PAUENTITY@@A, 0 ; gunship_entity
  004d5	74 0c		 je	 SHORT $LN44@load_gunsh
  004d7	a1 00 00 00 00	 mov	 eax, DWORD PTR ?gunship_entity@@3PAUENTITY@@A ; gunship_entity
  004dc	8b 08		 mov	 ecx, DWORD PTR [eax]
  004de	89 4d bc	 mov	 DWORD PTR tv264[ebp], ecx
  004e1	eb 21		 jmp	 SHORT $LN45@load_gunsh
$LN44@load_gunsh:
  004e3	8b 15 00 00 00
	00		 mov	 edx, DWORD PTR ?__LINE__Var@?0??load_gunship_avionics_damage@@YGXXZ@4JA
  004e9	83 c2 5a	 add	 edx, 90			; 0000005aH
  004ec	52		 push	 edx
  004ed	68 00 00 00 00	 push	 OFFSET ??_C@_0EO@BCFJKHLO@c?3?2users?2nhv90?2projects?2eech?2ap@
  004f2	a1 00 00 00 00	 mov	 eax, DWORD PTR ?null_entity_pointer_message@@3PBDB ; null_entity_pointer_message
  004f7	50		 push	 eax
  004f8	e8 00 00 00 00	 call	 ?process_assert@@YGXPBD0H@Z ; process_assert
  004fd	c7 45 bc 00 00
	00 00		 mov	 DWORD PTR tv264[ebp], 0
$LN45@load_gunsh:
  00504	b9 01 00 00 00	 mov	 ecx, 1
  00509	85 c9		 test	 ecx, ecx
  0050b	74 09		 je	 SHORT $LN46@load_gunsh
  0050d	c7 45 b8 54 00
	00 00		 mov	 DWORD PTR tv272[ebp], 84 ; 00000054H
  00514	eb 21		 jmp	 SHORT $LN47@load_gunsh
$LN46@load_gunsh:
  00516	8b 15 00 00 00
	00		 mov	 edx, DWORD PTR ?__LINE__Var@?0??load_gunship_avionics_damage@@YGXXZ@4JA
  0051c	83 c2 5a	 add	 edx, 90			; 0000005aH
  0051f	52		 push	 edx
  00520	68 00 00 00 00	 push	 OFFSET ??_C@_0EO@BCFJKHLO@c?3?2users?2nhv90?2projects?2eech?2ap@
  00525	a1 00 00 00 00	 mov	 eax, DWORD PTR ?overload_invalid_int_type_message@@3PBDB ; overload_invalid_int_type_message
  0052a	50		 push	 eax
  0052b	e8 00 00 00 00	 call	 ?process_assert@@YGXPBD0H@Z ; process_assert
  00530	c7 45 b8 00 00
	00 00		 mov	 DWORD PTR tv272[ebp], 0
$LN47@load_gunsh:
  00537	6a 54		 push	 84			; 00000054H
  00539	8b 0d 00 00 00
	00		 mov	 ecx, DWORD PTR ?gunship_entity@@3PAUENTITY@@A ; gunship_entity
  0053f	51		 push	 ecx
  00540	69 55 bc 5c 04
	00 00		 imul	 edx, DWORD PTR tv264[ebp], 1116
  00547	8b 45 b8	 mov	 eax, DWORD PTR tv272[ebp]
  0054a	8b 8c 82 00 00
	00 00		 mov	 ecx, DWORD PTR ?fn_get_local_entity_int_value@@3PAY0BBH@P6GHPAUENTITY@@W4INT_TYPES@@@ZA[edx+eax*4]
  00551	ff d1		 call	 ecx
  00553	a3 00 00 00 00	 mov	 DWORD PTR ?ka50_damage@@3TKA50_DAMAGE_FLAGS@@A, eax ; ka50_damage

; 1060 : 
; 1061 : 			set_ka50_weapon_damage_status ();

  00558	e8 00 00 00 00	 call	 ?set_ka50_weapon_damage_status@@YGXXZ ; set_ka50_weapon_damage_status

; 1062 : 
; 1063 : 			debug_colour_log (DEBUG_COLOUR_AMBER, "Load ka50 damage: %x", ka50_damage.flags);

  0055d	a1 00 00 00 00	 mov	 eax, DWORD PTR ?ka50_damage@@3TKA50_DAMAGE_FLAGS@@A ; ka50_damage
  00562	50		 push	 eax
  00563	68 00 00 00 00	 push	 OFFSET ??_C@_0BF@BDOIDBMP@Load?5ka50?5damage?3?5?$CFx@
  00568	6a 17		 push	 23			; 00000017H
  0056a	e8 00 00 00 00	 call	 ?debug_colour_log@@YAXW4DEBUG_COLOURS@@PBDZZ ; debug_colour_log
  0056f	83 c4 0c	 add	 esp, 12			; 0000000cH

; 1064 : 
; 1065 : 			break;

  00572	e9 fc 01 00 00	 jmp	 $LN1@load_gunsh
$LN12@load_gunsh:

; 1066 : 		}
; 1067 : 		////Moje 030817 end
; 1068 : 		////////////////////////////////////////
; 1069 : 		case GUNSHIP_TYPE_VIPER:
; 1070 : 		////////////////////////////////////////
; 1071 : 		{
; 1072 : 			viper_damage.flags = get_local_entity_int_value (get_gunship_entity (), INT_TYPE_HELICOPTER_DAMAGE_FLAGS);

  00577	83 3d 00 00 00
	00 00		 cmp	 DWORD PTR ?gunship_entity@@3PAUENTITY@@A, 0 ; gunship_entity
  0057e	74 0c		 je	 SHORT $LN48@load_gunsh
  00580	a1 00 00 00 00	 mov	 eax, DWORD PTR ?gunship_entity@@3PAUENTITY@@A ; gunship_entity
  00585	8b 08		 mov	 ecx, DWORD PTR [eax]
  00587	89 4d bc	 mov	 DWORD PTR tv287[ebp], ecx
  0058a	eb 21		 jmp	 SHORT $LN49@load_gunsh
$LN48@load_gunsh:
  0058c	8b 15 00 00 00
	00		 mov	 edx, DWORD PTR ?__LINE__Var@?0??load_gunship_avionics_damage@@YGXXZ@4JA
  00592	83 c2 67	 add	 edx, 103		; 00000067H
  00595	52		 push	 edx
  00596	68 00 00 00 00	 push	 OFFSET ??_C@_0EO@BCFJKHLO@c?3?2users?2nhv90?2projects?2eech?2ap@
  0059b	a1 00 00 00 00	 mov	 eax, DWORD PTR ?null_entity_pointer_message@@3PBDB ; null_entity_pointer_message
  005a0	50		 push	 eax
  005a1	e8 00 00 00 00	 call	 ?process_assert@@YGXPBD0H@Z ; process_assert
  005a6	c7 45 bc 00 00
	00 00		 mov	 DWORD PTR tv287[ebp], 0
$LN49@load_gunsh:
  005ad	b9 01 00 00 00	 mov	 ecx, 1
  005b2	85 c9		 test	 ecx, ecx
  005b4	74 09		 je	 SHORT $LN50@load_gunsh
  005b6	c7 45 b8 54 00
	00 00		 mov	 DWORD PTR tv295[ebp], 84 ; 00000054H
  005bd	eb 21		 jmp	 SHORT $LN51@load_gunsh
$LN50@load_gunsh:
  005bf	8b 15 00 00 00
	00		 mov	 edx, DWORD PTR ?__LINE__Var@?0??load_gunship_avionics_damage@@YGXXZ@4JA
  005c5	83 c2 67	 add	 edx, 103		; 00000067H
  005c8	52		 push	 edx
  005c9	68 00 00 00 00	 push	 OFFSET ??_C@_0EO@BCFJKHLO@c?3?2users?2nhv90?2projects?2eech?2ap@
  005ce	a1 00 00 00 00	 mov	 eax, DWORD PTR ?overload_invalid_int_type_message@@3PBDB ; overload_invalid_int_type_message
  005d3	50		 push	 eax
  005d4	e8 00 00 00 00	 call	 ?process_assert@@YGXPBD0H@Z ; process_assert
  005d9	c7 45 b8 00 00
	00 00		 mov	 DWORD PTR tv295[ebp], 0
$LN51@load_gunsh:
  005e0	6a 54		 push	 84			; 00000054H
  005e2	8b 0d 00 00 00
	00		 mov	 ecx, DWORD PTR ?gunship_entity@@3PAUENTITY@@A ; gunship_entity
  005e8	51		 push	 ecx
  005e9	69 55 bc 5c 04
	00 00		 imul	 edx, DWORD PTR tv287[ebp], 1116
  005f0	8b 45 b8	 mov	 eax, DWORD PTR tv295[ebp]
  005f3	8b 8c 82 00 00
	00 00		 mov	 ecx, DWORD PTR ?fn_get_local_entity_int_value@@3PAY0BBH@P6GHPAUENTITY@@W4INT_TYPES@@@ZA[edx+eax*4]
  005fa	ff d1		 call	 ecx
  005fc	a3 00 00 00 00	 mov	 DWORD PTR ?viper_damage@@3TVIPER_DAMAGE_FLAGS@@A, eax ; viper_damage

; 1073 : 
; 1074 : 			set_viper_weapon_damage_status ();

  00601	e8 00 00 00 00	 call	 ?set_viper_weapon_damage_status@@YGXXZ ; set_viper_weapon_damage_status

; 1075 : 
; 1076 : 			debug_colour_log (DEBUG_COLOUR_AMBER, "Load viper damage: %x", viper_damage.flags);

  00606	a1 00 00 00 00	 mov	 eax, DWORD PTR ?viper_damage@@3TVIPER_DAMAGE_FLAGS@@A ; viper_damage
  0060b	50		 push	 eax
  0060c	68 00 00 00 00	 push	 OFFSET ??_C@_0BG@MCCINANL@Load?5viper?5damage?3?5?$CFx@
  00611	6a 17		 push	 23			; 00000017H
  00613	e8 00 00 00 00	 call	 ?debug_colour_log@@YAXW4DEBUG_COLOURS@@PBDZZ ; debug_colour_log
  00618	83 c4 0c	 add	 esp, 12			; 0000000cH

; 1077 : 
; 1078 : 			break;

  0061b	e9 53 01 00 00	 jmp	 $LN1@load_gunsh
$LN13@load_gunsh:

; 1079 : 		}
; 1080 : 		////////////////////////////////////////
; 1081 : 		case GUNSHIP_TYPE_KIOWA:
; 1082 : 		////////////////////////////////////////
; 1083 : 		{
; 1084 : 			kiowa_damage.flags = get_local_entity_int_value (get_gunship_entity (), INT_TYPE_HELICOPTER_DAMAGE_FLAGS);

  00620	83 3d 00 00 00
	00 00		 cmp	 DWORD PTR ?gunship_entity@@3PAUENTITY@@A, 0 ; gunship_entity
  00627	74 0c		 je	 SHORT $LN52@load_gunsh
  00629	a1 00 00 00 00	 mov	 eax, DWORD PTR ?gunship_entity@@3PAUENTITY@@A ; gunship_entity
  0062e	8b 08		 mov	 ecx, DWORD PTR [eax]
  00630	89 4d bc	 mov	 DWORD PTR tv310[ebp], ecx
  00633	eb 21		 jmp	 SHORT $LN53@load_gunsh
$LN52@load_gunsh:
  00635	8b 15 00 00 00
	00		 mov	 edx, DWORD PTR ?__LINE__Var@?0??load_gunship_avionics_damage@@YGXXZ@4JA
  0063b	83 c2 73	 add	 edx, 115		; 00000073H
  0063e	52		 push	 edx
  0063f	68 00 00 00 00	 push	 OFFSET ??_C@_0EO@BCFJKHLO@c?3?2users?2nhv90?2projects?2eech?2ap@
  00644	a1 00 00 00 00	 mov	 eax, DWORD PTR ?null_entity_pointer_message@@3PBDB ; null_entity_pointer_message
  00649	50		 push	 eax
  0064a	e8 00 00 00 00	 call	 ?process_assert@@YGXPBD0H@Z ; process_assert
  0064f	c7 45 bc 00 00
	00 00		 mov	 DWORD PTR tv310[ebp], 0
$LN53@load_gunsh:
  00656	b9 01 00 00 00	 mov	 ecx, 1
  0065b	85 c9		 test	 ecx, ecx
  0065d	74 09		 je	 SHORT $LN54@load_gunsh
  0065f	c7 45 b8 54 00
	00 00		 mov	 DWORD PTR tv318[ebp], 84 ; 00000054H
  00666	eb 21		 jmp	 SHORT $LN55@load_gunsh
$LN54@load_gunsh:
  00668	8b 15 00 00 00
	00		 mov	 edx, DWORD PTR ?__LINE__Var@?0??load_gunship_avionics_damage@@YGXXZ@4JA
  0066e	83 c2 73	 add	 edx, 115		; 00000073H
  00671	52		 push	 edx
  00672	68 00 00 00 00	 push	 OFFSET ??_C@_0EO@BCFJKHLO@c?3?2users?2nhv90?2projects?2eech?2ap@
  00677	a1 00 00 00 00	 mov	 eax, DWORD PTR ?overload_invalid_int_type_message@@3PBDB ; overload_invalid_int_type_message
  0067c	50		 push	 eax
  0067d	e8 00 00 00 00	 call	 ?process_assert@@YGXPBD0H@Z ; process_assert
  00682	c7 45 b8 00 00
	00 00		 mov	 DWORD PTR tv318[ebp], 0
$LN55@load_gunsh:
  00689	6a 54		 push	 84			; 00000054H
  0068b	8b 0d 00 00 00
	00		 mov	 ecx, DWORD PTR ?gunship_entity@@3PAUENTITY@@A ; gunship_entity
  00691	51		 push	 ecx
  00692	69 55 bc 5c 04
	00 00		 imul	 edx, DWORD PTR tv310[ebp], 1116
  00699	8b 45 b8	 mov	 eax, DWORD PTR tv318[ebp]
  0069c	8b 8c 82 00 00
	00 00		 mov	 ecx, DWORD PTR ?fn_get_local_entity_int_value@@3PAY0BBH@P6GHPAUENTITY@@W4INT_TYPES@@@ZA[edx+eax*4]
  006a3	ff d1		 call	 ecx
  006a5	a3 00 00 00 00	 mov	 DWORD PTR ?kiowa_damage@@3TKIOWA_DAMAGE_FLAGS@@A, eax ; kiowa_damage

; 1085 : 
; 1086 : 			set_kiowa_weapon_damage_status ();

  006aa	e8 00 00 00 00	 call	 ?set_kiowa_weapon_damage_status@@YGXXZ ; set_kiowa_weapon_damage_status

; 1087 : 
; 1088 : 			debug_colour_log (DEBUG_COLOUR_AMBER, "Load Kiowa damage: %x", kiowa_damage.flags);

  006af	a1 00 00 00 00	 mov	 eax, DWORD PTR ?kiowa_damage@@3TKIOWA_DAMAGE_FLAGS@@A ; kiowa_damage
  006b4	50		 push	 eax
  006b5	68 00 00 00 00	 push	 OFFSET ??_C@_0BG@HHJPLGEJ@Load?5Kiowa?5damage?3?5?$CFx@
  006ba	6a 17		 push	 23			; 00000017H
  006bc	e8 00 00 00 00	 call	 ?debug_colour_log@@YAXW4DEBUG_COLOURS@@PBDZZ ; debug_colour_log
  006c1	83 c4 0c	 add	 esp, 12			; 0000000cH

; 1089 : 
; 1090 : 			break;

  006c4	e9 aa 00 00 00	 jmp	 $LN1@load_gunsh
$LN14@load_gunsh:

; 1091 : 		}
; 1092 : 		////////////////////////////////////////
; 1093 : 
; 1094 : 		////////////////////////////////////////
; 1095 : 		// GCsDriver  08-12-2007
; 1096 : 		default:
; 1097 : 		////////////////////////////////////////
; 1098 : 		{
; 1099 : 			default_damage.flags = get_local_entity_int_value (get_gunship_entity (), INT_TYPE_HELICOPTER_DAMAGE_FLAGS);

  006c9	83 3d 00 00 00
	00 00		 cmp	 DWORD PTR ?gunship_entity@@3PAUENTITY@@A, 0 ; gunship_entity
  006d0	74 0c		 je	 SHORT $LN56@load_gunsh
  006d2	a1 00 00 00 00	 mov	 eax, DWORD PTR ?gunship_entity@@3PAUENTITY@@A ; gunship_entity
  006d7	8b 08		 mov	 ecx, DWORD PTR [eax]
  006d9	89 4d bc	 mov	 DWORD PTR tv333[ebp], ecx
  006dc	eb 24		 jmp	 SHORT $LN57@load_gunsh
$LN56@load_gunsh:
  006de	8b 15 00 00 00
	00		 mov	 edx, DWORD PTR ?__LINE__Var@?0??load_gunship_avionics_damage@@YGXXZ@4JA
  006e4	81 c2 82 00 00
	00		 add	 edx, 130		; 00000082H
  006ea	52		 push	 edx
  006eb	68 00 00 00 00	 push	 OFFSET ??_C@_0EO@BCFJKHLO@c?3?2users?2nhv90?2projects?2eech?2ap@
  006f0	a1 00 00 00 00	 mov	 eax, DWORD PTR ?null_entity_pointer_message@@3PBDB ; null_entity_pointer_message
  006f5	50		 push	 eax
  006f6	e8 00 00 00 00	 call	 ?process_assert@@YGXPBD0H@Z ; process_assert
  006fb	c7 45 bc 00 00
	00 00		 mov	 DWORD PTR tv333[ebp], 0
$LN57@load_gunsh:
  00702	b9 01 00 00 00	 mov	 ecx, 1
  00707	85 c9		 test	 ecx, ecx
  00709	74 09		 je	 SHORT $LN58@load_gunsh
  0070b	c7 45 b8 54 00
	00 00		 mov	 DWORD PTR tv341[ebp], 84 ; 00000054H
  00712	eb 24		 jmp	 SHORT $LN59@load_gunsh
$LN58@load_gunsh:
  00714	8b 15 00 00 00
	00		 mov	 edx, DWORD PTR ?__LINE__Var@?0??load_gunship_avionics_damage@@YGXXZ@4JA
  0071a	81 c2 82 00 00
	00		 add	 edx, 130		; 00000082H
  00720	52		 push	 edx
  00721	68 00 00 00 00	 push	 OFFSET ??_C@_0EO@BCFJKHLO@c?3?2users?2nhv90?2projects?2eech?2ap@
  00726	a1 00 00 00 00	 mov	 eax, DWORD PTR ?overload_invalid_int_type_message@@3PBDB ; overload_invalid_int_type_message
  0072b	50		 push	 eax
  0072c	e8 00 00 00 00	 call	 ?process_assert@@YGXPBD0H@Z ; process_assert
  00731	c7 45 b8 00 00
	00 00		 mov	 DWORD PTR tv341[ebp], 0
$LN59@load_gunsh:
  00738	6a 54		 push	 84			; 00000054H
  0073a	8b 0d 00 00 00
	00		 mov	 ecx, DWORD PTR ?gunship_entity@@3PAUENTITY@@A ; gunship_entity
  00740	51		 push	 ecx
  00741	69 55 bc 5c 04
	00 00		 imul	 edx, DWORD PTR tv333[ebp], 1116
  00748	8b 45 b8	 mov	 eax, DWORD PTR tv341[ebp]
  0074b	8b 8c 82 00 00
	00 00		 mov	 ecx, DWORD PTR ?fn_get_local_entity_int_value@@3PAY0BBH@P6GHPAUENTITY@@W4INT_TYPES@@@ZA[edx+eax*4]
  00752	ff d1		 call	 ecx
  00754	a3 00 00 00 00	 mov	 DWORD PTR ?default_damage@@3TDEFAULT_DAMAGE_FLAGS@@A, eax ; default_damage

; 1100 : 
; 1101 : 			set_default_weapon_damage_status ();

  00759	e8 00 00 00 00	 call	 ?set_default_weapon_damage_status@@YGXXZ ; set_default_weapon_damage_status

; 1102 : 
; 1103 : 			debug_colour_log (DEBUG_COLOUR_AMBER, "Load default damage: %x", default_damage.flags);

  0075e	a1 00 00 00 00	 mov	 eax, DWORD PTR ?default_damage@@3TDEFAULT_DAMAGE_FLAGS@@A ; default_damage
  00763	50		 push	 eax
  00764	68 00 00 00 00	 push	 OFFSET ??_C@_0BI@FGBPOHAK@Load?5default?5damage?3?5?$CFx@
  00769	6a 17		 push	 23			; 00000017H
  0076b	e8 00 00 00 00	 call	 ?debug_colour_log@@YAXW4DEBUG_COLOURS@@PBDZZ ; debug_colour_log
  00770	83 c4 0c	 add	 esp, 12			; 0000000cH
$LN1@load_gunsh:

; 1104 : 
; 1105 : 			break;
; 1106 : 		}
; 1107 : 
; 1108 : 	}
; 1109 : }

  00773	5f		 pop	 edi
  00774	5e		 pop	 esi
  00775	5b		 pop	 ebx
  00776	8b e5		 mov	 esp, ebp
  00778	5d		 pop	 ebp
  00779	c3		 ret	 0
  0077a	66 90		 npad	 2
$LN60@load_gunsh:
  0077c	00 00 00 00	 DD	 $LN4@load_gunsh
  00780	00 00 00 00	 DD	 $LN5@load_gunsh
  00784	00 00 00 00	 DD	 $LN6@load_gunsh
  00788	00 00 00 00	 DD	 $LN7@load_gunsh
  0078c	00 00 00 00	 DD	 $LN8@load_gunsh
  00790	00 00 00 00	 DD	 $LN9@load_gunsh
  00794	00 00 00 00	 DD	 $LN10@load_gunsh
  00798	00 00 00 00	 DD	 $LN11@load_gunsh
  0079c	00 00 00 00	 DD	 $LN12@load_gunsh
  007a0	00 00 00 00	 DD	 $LN13@load_gunsh
?load_gunship_avionics_damage@@YGXXZ ENDP		; load_gunship_avionics_damage
_TEXT	ENDS
; Function compile flags: /Odtp /ZI
; File c:\users\nhv90\projects\eech\aphavoc\source\gunships\avionics\common\co_dam.c
;	COMDAT ?partially_repair_local_entity_avionics@@YGXPAUENTITY@@@Z
_TEXT	SEGMENT
tv317 = -72						; size = 4
tv297 = -72						; size = 4
tv277 = -72						; size = 4
tv257 = -72						; size = 4
tv237 = -72						; size = 4
tv217 = -72						; size = 4
tv197 = -72						; size = 4
tv177 = -72						; size = 4
tv157 = -72						; size = 4
tv137 = -72						; size = 4
tv85 = -72						; size = 4
tv309 = -68						; size = 4
tv289 = -68						; size = 4
tv269 = -68						; size = 4
tv249 = -68						; size = 4
tv229 = -68						; size = 4
tv209 = -68						; size = 4
tv189 = -68						; size = 4
tv169 = -68						; size = 4
tv149 = -68						; size = 4
tv129 = -68						; size = 4
tv77 = -68						; size = 4
tv70 = -68						; size = 4
_en$ = 8						; size = 4
?partially_repair_local_entity_avionics@@YGXPAUENTITY@@@Z PROC ; partially_repair_local_entity_avionics, COMDAT

; 845  : {

  00000	55		 push	 ebp
  00001	8b ec		 mov	 ebp, esp
  00003	83 ec 48	 sub	 esp, 72			; 00000048H
  00006	53		 push	 ebx
  00007	56		 push	 esi
  00008	57		 push	 edi

; 846  : 	ASSERT (en);

  00009	83 7d 08 00	 cmp	 DWORD PTR _en$[ebp], 0
  0000d	75 18		 jne	 SHORT $LN4@partially_
  0000f	a1 00 00 00 00	 mov	 eax, DWORD PTR ?__LINE__Var@?0??partially_repair_local_entity_avionics@@YGXPAUENTITY@@@Z@4JA
  00014	83 c0 01	 add	 eax, 1
  00017	50		 push	 eax
  00018	68 00 00 00 00	 push	 OFFSET ??_C@_0EO@BCFJKHLO@c?3?2users?2nhv90?2projects?2eech?2ap@
  0001d	68 00 00 00 00	 push	 OFFSET ??_C@_02LFNMGJAP@en@
  00022	e8 00 00 00 00	 call	 ?process_assert@@YGXPBD0H@Z ; process_assert
$LN4@partially_:

; 847  : 
; 848  : 	if (en == get_gunship_entity ())

  00027	8b 45 08	 mov	 eax, DWORD PTR _en$[ebp]
  0002a	3b 05 00 00 00
	00		 cmp	 eax, DWORD PTR ?gunship_entity@@3PAUENTITY@@A ; gunship_entity
  00030	0f 85 89 06 00
	00		 jne	 $LN1@partially_

; 849  : 	{
; 850  : 		switch (get_global_gunship_type ())

  00036	a1 0c 00 00 00	 mov	 eax, DWORD PTR ?global_options@@3UGLOBAL_OPTIONS_DATA@@A+12
  0003b	89 45 bc	 mov	 DWORD PTR tv70[ebp], eax
  0003e	83 7d bc 09	 cmp	 DWORD PTR tv70[ebp], 9
  00042	0f 87 e6 05 00
	00		 ja	 $LN16@partially_
  00048	8b 4d bc	 mov	 ecx, DWORD PTR tv70[ebp]
  0004b	ff 24 8d 00 00
	00 00		 jmp	 DWORD PTR $LN62@partially_[ecx*4]
$LN6@partially_:

; 851  : 		{
; 852  : 			////////////////////////////////////////
; 853  : 			// JB 030313 Fly any aircraft
; 854  : //			default:
; 855  : 			case GUNSHIP_TYPE_APACHE:
; 856  : 			////////////////////////////////////////
; 857  : 			{
; 858  : 				partially_repair_apache_damage ();

  00052	e8 00 00 00 00	 call	 ?partially_repair_apache_damage@@YGXXZ ; partially_repair_apache_damage

; 859  : 
; 860  : 				set_local_entity_int_value (get_gunship_entity (), INT_TYPE_HELICOPTER_DAMAGE_FLAGS, apache_damage.flags);

  00057	83 3d 00 00 00
	00 00		 cmp	 DWORD PTR ?gunship_entity@@3PAUENTITY@@A, 0 ; gunship_entity
  0005e	74 0c		 je	 SHORT $LN18@partially_
  00060	a1 00 00 00 00	 mov	 eax, DWORD PTR ?gunship_entity@@3PAUENTITY@@A ; gunship_entity
  00065	8b 08		 mov	 ecx, DWORD PTR [eax]
  00067	89 4d bc	 mov	 DWORD PTR tv77[ebp], ecx
  0006a	eb 21		 jmp	 SHORT $LN19@partially_
$LN18@partially_:
  0006c	8b 15 00 00 00
	00		 mov	 edx, DWORD PTR ?__LINE__Var@?0??partially_repair_local_entity_avionics@@YGXPAUENTITY@@@Z@4JA
  00072	83 c2 0f	 add	 edx, 15			; 0000000fH
  00075	52		 push	 edx
  00076	68 00 00 00 00	 push	 OFFSET ??_C@_0EO@BCFJKHLO@c?3?2users?2nhv90?2projects?2eech?2ap@
  0007b	a1 00 00 00 00	 mov	 eax, DWORD PTR ?null_entity_pointer_message@@3PBDB ; null_entity_pointer_message
  00080	50		 push	 eax
  00081	e8 00 00 00 00	 call	 ?process_assert@@YGXPBD0H@Z ; process_assert
  00086	c7 45 bc 00 00
	00 00		 mov	 DWORD PTR tv77[ebp], 0
$LN19@partially_:
  0008d	b9 01 00 00 00	 mov	 ecx, 1
  00092	85 c9		 test	 ecx, ecx
  00094	74 09		 je	 SHORT $LN20@partially_
  00096	c7 45 b8 54 00
	00 00		 mov	 DWORD PTR tv85[ebp], 84	; 00000054H
  0009d	eb 21		 jmp	 SHORT $LN21@partially_
$LN20@partially_:
  0009f	8b 15 00 00 00
	00		 mov	 edx, DWORD PTR ?__LINE__Var@?0??partially_repair_local_entity_avionics@@YGXPAUENTITY@@@Z@4JA
  000a5	83 c2 0f	 add	 edx, 15			; 0000000fH
  000a8	52		 push	 edx
  000a9	68 00 00 00 00	 push	 OFFSET ??_C@_0EO@BCFJKHLO@c?3?2users?2nhv90?2projects?2eech?2ap@
  000ae	a1 00 00 00 00	 mov	 eax, DWORD PTR ?overload_invalid_int_type_message@@3PBDB ; overload_invalid_int_type_message
  000b3	50		 push	 eax
  000b4	e8 00 00 00 00	 call	 ?process_assert@@YGXPBD0H@Z ; process_assert
  000b9	c7 45 b8 00 00
	00 00		 mov	 DWORD PTR tv85[ebp], 0
$LN21@partially_:
  000c0	8b 0d 00 00 00
	00		 mov	 ecx, DWORD PTR ?apache_damage@@3TAPACHE_DAMAGE_FLAGS@@A ; apache_damage
  000c6	51		 push	 ecx
  000c7	6a 54		 push	 84			; 00000054H
  000c9	8b 15 00 00 00
	00		 mov	 edx, DWORD PTR ?gunship_entity@@3PAUENTITY@@A ; gunship_entity
  000cf	52		 push	 edx
  000d0	69 45 bc 5c 04
	00 00		 imul	 eax, DWORD PTR tv77[ebp], 1116
  000d7	8b 4d b8	 mov	 ecx, DWORD PTR tv85[ebp]
  000da	8b 94 88 00 00
	00 00		 mov	 edx, DWORD PTR ?fn_set_local_entity_int_value@@3PAY0BBH@P6GXPAUENTITY@@W4INT_TYPES@@H@ZA[eax+ecx*4]
  000e1	ff d2		 call	 edx

; 861  : 
; 862  : 				break;

  000e3	e9 d7 05 00 00	 jmp	 $LN1@partially_
$LN7@partially_:

; 863  : 			}
; 864  : 			////////////////////////////////////////
; 865  : 			case GUNSHIP_TYPE_HAVOC:
; 866  : 			////////////////////////////////////////
; 867  : 			{
; 868  : 				partially_repair_havoc_damage ();

  000e8	e8 00 00 00 00	 call	 ?partially_repair_havoc_damage@@YGXXZ ; partially_repair_havoc_damage

; 869  : 
; 870  : 				set_local_entity_int_value (get_gunship_entity (), INT_TYPE_HELICOPTER_DAMAGE_FLAGS, havoc_damage.flags);

  000ed	83 3d 00 00 00
	00 00		 cmp	 DWORD PTR ?gunship_entity@@3PAUENTITY@@A, 0 ; gunship_entity
  000f4	74 0c		 je	 SHORT $LN22@partially_
  000f6	a1 00 00 00 00	 mov	 eax, DWORD PTR ?gunship_entity@@3PAUENTITY@@A ; gunship_entity
  000fb	8b 08		 mov	 ecx, DWORD PTR [eax]
  000fd	89 4d bc	 mov	 DWORD PTR tv129[ebp], ecx
  00100	eb 21		 jmp	 SHORT $LN23@partially_
$LN22@partially_:
  00102	8b 15 00 00 00
	00		 mov	 edx, DWORD PTR ?__LINE__Var@?0??partially_repair_local_entity_avionics@@YGXPAUENTITY@@@Z@4JA
  00108	83 c2 19	 add	 edx, 25			; 00000019H
  0010b	52		 push	 edx
  0010c	68 00 00 00 00	 push	 OFFSET ??_C@_0EO@BCFJKHLO@c?3?2users?2nhv90?2projects?2eech?2ap@
  00111	a1 00 00 00 00	 mov	 eax, DWORD PTR ?null_entity_pointer_message@@3PBDB ; null_entity_pointer_message
  00116	50		 push	 eax
  00117	e8 00 00 00 00	 call	 ?process_assert@@YGXPBD0H@Z ; process_assert
  0011c	c7 45 bc 00 00
	00 00		 mov	 DWORD PTR tv129[ebp], 0
$LN23@partially_:
  00123	b9 01 00 00 00	 mov	 ecx, 1
  00128	85 c9		 test	 ecx, ecx
  0012a	74 09		 je	 SHORT $LN24@partially_
  0012c	c7 45 b8 54 00
	00 00		 mov	 DWORD PTR tv137[ebp], 84 ; 00000054H
  00133	eb 21		 jmp	 SHORT $LN25@partially_
$LN24@partially_:
  00135	8b 15 00 00 00
	00		 mov	 edx, DWORD PTR ?__LINE__Var@?0??partially_repair_local_entity_avionics@@YGXPAUENTITY@@@Z@4JA
  0013b	83 c2 19	 add	 edx, 25			; 00000019H
  0013e	52		 push	 edx
  0013f	68 00 00 00 00	 push	 OFFSET ??_C@_0EO@BCFJKHLO@c?3?2users?2nhv90?2projects?2eech?2ap@
  00144	a1 00 00 00 00	 mov	 eax, DWORD PTR ?overload_invalid_int_type_message@@3PBDB ; overload_invalid_int_type_message
  00149	50		 push	 eax
  0014a	e8 00 00 00 00	 call	 ?process_assert@@YGXPBD0H@Z ; process_assert
  0014f	c7 45 b8 00 00
	00 00		 mov	 DWORD PTR tv137[ebp], 0
$LN25@partially_:
  00156	8b 0d 00 00 00
	00		 mov	 ecx, DWORD PTR ?havoc_damage@@3THAVOC_DAMAGE_FLAGS@@A ; havoc_damage
  0015c	51		 push	 ecx
  0015d	6a 54		 push	 84			; 00000054H
  0015f	8b 15 00 00 00
	00		 mov	 edx, DWORD PTR ?gunship_entity@@3PAUENTITY@@A ; gunship_entity
  00165	52		 push	 edx
  00166	69 45 bc 5c 04
	00 00		 imul	 eax, DWORD PTR tv129[ebp], 1116
  0016d	8b 4d b8	 mov	 ecx, DWORD PTR tv137[ebp]
  00170	8b 94 88 00 00
	00 00		 mov	 edx, DWORD PTR ?fn_set_local_entity_int_value@@3PAY0BBH@P6GXPAUENTITY@@W4INT_TYPES@@H@ZA[eax+ecx*4]
  00177	ff d2		 call	 edx

; 871  : 
; 872  : 				break;

  00179	e9 41 05 00 00	 jmp	 $LN1@partially_
$LN8@partially_:

; 873  : 			}
; 874  : 			////////////////////////////////////////
; 875  : 			case GUNSHIP_TYPE_COMANCHE:
; 876  : 			////////////////////////////////////////
; 877  : 			{
; 878  : 				partially_repair_comanche_damage ();

  0017e	e8 00 00 00 00	 call	 ?partially_repair_comanche_damage@@YGXXZ ; partially_repair_comanche_damage

; 879  : 
; 880  : 				set_local_entity_int_value (get_gunship_entity (), INT_TYPE_HELICOPTER_DAMAGE_FLAGS, comanche_damage.flags);

  00183	83 3d 00 00 00
	00 00		 cmp	 DWORD PTR ?gunship_entity@@3PAUENTITY@@A, 0 ; gunship_entity
  0018a	74 0c		 je	 SHORT $LN26@partially_
  0018c	a1 00 00 00 00	 mov	 eax, DWORD PTR ?gunship_entity@@3PAUENTITY@@A ; gunship_entity
  00191	8b 08		 mov	 ecx, DWORD PTR [eax]
  00193	89 4d bc	 mov	 DWORD PTR tv149[ebp], ecx
  00196	eb 21		 jmp	 SHORT $LN27@partially_
$LN26@partially_:
  00198	8b 15 00 00 00
	00		 mov	 edx, DWORD PTR ?__LINE__Var@?0??partially_repair_local_entity_avionics@@YGXPAUENTITY@@@Z@4JA
  0019e	83 c2 23	 add	 edx, 35			; 00000023H
  001a1	52		 push	 edx
  001a2	68 00 00 00 00	 push	 OFFSET ??_C@_0EO@BCFJKHLO@c?3?2users?2nhv90?2projects?2eech?2ap@
  001a7	a1 00 00 00 00	 mov	 eax, DWORD PTR ?null_entity_pointer_message@@3PBDB ; null_entity_pointer_message
  001ac	50		 push	 eax
  001ad	e8 00 00 00 00	 call	 ?process_assert@@YGXPBD0H@Z ; process_assert
  001b2	c7 45 bc 00 00
	00 00		 mov	 DWORD PTR tv149[ebp], 0
$LN27@partially_:
  001b9	b9 01 00 00 00	 mov	 ecx, 1
  001be	85 c9		 test	 ecx, ecx
  001c0	74 09		 je	 SHORT $LN28@partially_
  001c2	c7 45 b8 54 00
	00 00		 mov	 DWORD PTR tv157[ebp], 84 ; 00000054H
  001c9	eb 21		 jmp	 SHORT $LN29@partially_
$LN28@partially_:
  001cb	8b 15 00 00 00
	00		 mov	 edx, DWORD PTR ?__LINE__Var@?0??partially_repair_local_entity_avionics@@YGXPAUENTITY@@@Z@4JA
  001d1	83 c2 23	 add	 edx, 35			; 00000023H
  001d4	52		 push	 edx
  001d5	68 00 00 00 00	 push	 OFFSET ??_C@_0EO@BCFJKHLO@c?3?2users?2nhv90?2projects?2eech?2ap@
  001da	a1 00 00 00 00	 mov	 eax, DWORD PTR ?overload_invalid_int_type_message@@3PBDB ; overload_invalid_int_type_message
  001df	50		 push	 eax
  001e0	e8 00 00 00 00	 call	 ?process_assert@@YGXPBD0H@Z ; process_assert
  001e5	c7 45 b8 00 00
	00 00		 mov	 DWORD PTR tv157[ebp], 0
$LN29@partially_:
  001ec	8b 0d 00 00 00
	00		 mov	 ecx, DWORD PTR ?comanche_damage@@3TCOMANCHE_DAMAGE_FLAGS@@A ; comanche_damage
  001f2	51		 push	 ecx
  001f3	6a 54		 push	 84			; 00000054H
  001f5	8b 15 00 00 00
	00		 mov	 edx, DWORD PTR ?gunship_entity@@3PAUENTITY@@A ; gunship_entity
  001fb	52		 push	 edx
  001fc	69 45 bc 5c 04
	00 00		 imul	 eax, DWORD PTR tv149[ebp], 1116
  00203	8b 4d b8	 mov	 ecx, DWORD PTR tv157[ebp]
  00206	8b 94 88 00 00
	00 00		 mov	 edx, DWORD PTR ?fn_set_local_entity_int_value@@3PAY0BBH@P6GXPAUENTITY@@W4INT_TYPES@@H@ZA[eax+ecx*4]
  0020d	ff d2		 call	 edx

; 881  : 
; 882  : 				break;

  0020f	e9 ab 04 00 00	 jmp	 $LN1@partially_
$LN9@partially_:

; 883  : 			}
; 884  : 			////////////////////////////////////////
; 885  : 			case GUNSHIP_TYPE_HOKUM:
; 886  : 			////////////////////////////////////////
; 887  : 			{
; 888  : 				partially_repair_hokum_damage ();

  00214	e8 00 00 00 00	 call	 ?partially_repair_hokum_damage@@YGXXZ ; partially_repair_hokum_damage

; 889  : 
; 890  : 				set_local_entity_int_value (get_gunship_entity (), INT_TYPE_HELICOPTER_DAMAGE_FLAGS, hokum_damage.flags);

  00219	83 3d 00 00 00
	00 00		 cmp	 DWORD PTR ?gunship_entity@@3PAUENTITY@@A, 0 ; gunship_entity
  00220	74 0c		 je	 SHORT $LN30@partially_
  00222	a1 00 00 00 00	 mov	 eax, DWORD PTR ?gunship_entity@@3PAUENTITY@@A ; gunship_entity
  00227	8b 08		 mov	 ecx, DWORD PTR [eax]
  00229	89 4d bc	 mov	 DWORD PTR tv169[ebp], ecx
  0022c	eb 21		 jmp	 SHORT $LN31@partially_
$LN30@partially_:
  0022e	8b 15 00 00 00
	00		 mov	 edx, DWORD PTR ?__LINE__Var@?0??partially_repair_local_entity_avionics@@YGXPAUENTITY@@@Z@4JA
  00234	83 c2 2d	 add	 edx, 45			; 0000002dH
  00237	52		 push	 edx
  00238	68 00 00 00 00	 push	 OFFSET ??_C@_0EO@BCFJKHLO@c?3?2users?2nhv90?2projects?2eech?2ap@
  0023d	a1 00 00 00 00	 mov	 eax, DWORD PTR ?null_entity_pointer_message@@3PBDB ; null_entity_pointer_message
  00242	50		 push	 eax
  00243	e8 00 00 00 00	 call	 ?process_assert@@YGXPBD0H@Z ; process_assert
  00248	c7 45 bc 00 00
	00 00		 mov	 DWORD PTR tv169[ebp], 0
$LN31@partially_:
  0024f	b9 01 00 00 00	 mov	 ecx, 1
  00254	85 c9		 test	 ecx, ecx
  00256	74 09		 je	 SHORT $LN32@partially_
  00258	c7 45 b8 54 00
	00 00		 mov	 DWORD PTR tv177[ebp], 84 ; 00000054H
  0025f	eb 21		 jmp	 SHORT $LN33@partially_
$LN32@partially_:
  00261	8b 15 00 00 00
	00		 mov	 edx, DWORD PTR ?__LINE__Var@?0??partially_repair_local_entity_avionics@@YGXPAUENTITY@@@Z@4JA
  00267	83 c2 2d	 add	 edx, 45			; 0000002dH
  0026a	52		 push	 edx
  0026b	68 00 00 00 00	 push	 OFFSET ??_C@_0EO@BCFJKHLO@c?3?2users?2nhv90?2projects?2eech?2ap@
  00270	a1 00 00 00 00	 mov	 eax, DWORD PTR ?overload_invalid_int_type_message@@3PBDB ; overload_invalid_int_type_message
  00275	50		 push	 eax
  00276	e8 00 00 00 00	 call	 ?process_assert@@YGXPBD0H@Z ; process_assert
  0027b	c7 45 b8 00 00
	00 00		 mov	 DWORD PTR tv177[ebp], 0
$LN33@partially_:
  00282	8b 0d 00 00 00
	00		 mov	 ecx, DWORD PTR ?hokum_damage@@3THOKUM_DAMAGE_FLAGS@@A ; hokum_damage
  00288	51		 push	 ecx
  00289	6a 54		 push	 84			; 00000054H
  0028b	8b 15 00 00 00
	00		 mov	 edx, DWORD PTR ?gunship_entity@@3PAUENTITY@@A ; gunship_entity
  00291	52		 push	 edx
  00292	69 45 bc 5c 04
	00 00		 imul	 eax, DWORD PTR tv169[ebp], 1116
  00299	8b 4d b8	 mov	 ecx, DWORD PTR tv177[ebp]
  0029c	8b 94 88 00 00
	00 00		 mov	 edx, DWORD PTR ?fn_set_local_entity_int_value@@3PAY0BBH@P6GXPAUENTITY@@W4INT_TYPES@@H@ZA[eax+ecx*4]
  002a3	ff d2		 call	 edx

; 891  : 
; 892  : 				break;

  002a5	e9 15 04 00 00	 jmp	 $LN1@partially_
$LN10@partially_:

; 893  : 			}
; 894  : 			////Moje 030817 start
; 895  : 			case GUNSHIP_TYPE_BLACKHAWK:
; 896  : 			////////////////////////////////////////
; 897  : 			{
; 898  : 				partially_repair_blackhawk_damage ();

  002aa	e8 00 00 00 00	 call	 ?partially_repair_blackhawk_damage@@YGXXZ ; partially_repair_blackhawk_damage

; 899  : 
; 900  : 				set_local_entity_int_value (get_gunship_entity (), INT_TYPE_HELICOPTER_DAMAGE_FLAGS, blackhawk_damage.flags);

  002af	83 3d 00 00 00
	00 00		 cmp	 DWORD PTR ?gunship_entity@@3PAUENTITY@@A, 0 ; gunship_entity
  002b6	74 0c		 je	 SHORT $LN34@partially_
  002b8	a1 00 00 00 00	 mov	 eax, DWORD PTR ?gunship_entity@@3PAUENTITY@@A ; gunship_entity
  002bd	8b 08		 mov	 ecx, DWORD PTR [eax]
  002bf	89 4d bc	 mov	 DWORD PTR tv189[ebp], ecx
  002c2	eb 21		 jmp	 SHORT $LN35@partially_
$LN34@partially_:
  002c4	8b 15 00 00 00
	00		 mov	 edx, DWORD PTR ?__LINE__Var@?0??partially_repair_local_entity_avionics@@YGXPAUENTITY@@@Z@4JA
  002ca	83 c2 37	 add	 edx, 55			; 00000037H
  002cd	52		 push	 edx
  002ce	68 00 00 00 00	 push	 OFFSET ??_C@_0EO@BCFJKHLO@c?3?2users?2nhv90?2projects?2eech?2ap@
  002d3	a1 00 00 00 00	 mov	 eax, DWORD PTR ?null_entity_pointer_message@@3PBDB ; null_entity_pointer_message
  002d8	50		 push	 eax
  002d9	e8 00 00 00 00	 call	 ?process_assert@@YGXPBD0H@Z ; process_assert
  002de	c7 45 bc 00 00
	00 00		 mov	 DWORD PTR tv189[ebp], 0
$LN35@partially_:
  002e5	b9 01 00 00 00	 mov	 ecx, 1
  002ea	85 c9		 test	 ecx, ecx
  002ec	74 09		 je	 SHORT $LN36@partially_
  002ee	c7 45 b8 54 00
	00 00		 mov	 DWORD PTR tv197[ebp], 84 ; 00000054H
  002f5	eb 21		 jmp	 SHORT $LN37@partially_
$LN36@partially_:
  002f7	8b 15 00 00 00
	00		 mov	 edx, DWORD PTR ?__LINE__Var@?0??partially_repair_local_entity_avionics@@YGXPAUENTITY@@@Z@4JA
  002fd	83 c2 37	 add	 edx, 55			; 00000037H
  00300	52		 push	 edx
  00301	68 00 00 00 00	 push	 OFFSET ??_C@_0EO@BCFJKHLO@c?3?2users?2nhv90?2projects?2eech?2ap@
  00306	a1 00 00 00 00	 mov	 eax, DWORD PTR ?overload_invalid_int_type_message@@3PBDB ; overload_invalid_int_type_message
  0030b	50		 push	 eax
  0030c	e8 00 00 00 00	 call	 ?process_assert@@YGXPBD0H@Z ; process_assert
  00311	c7 45 b8 00 00
	00 00		 mov	 DWORD PTR tv197[ebp], 0
$LN37@partially_:
  00318	8b 0d 00 00 00
	00		 mov	 ecx, DWORD PTR ?blackhawk_damage@@3TBLACKHAWK_DAMAGE_FLAGS@@A ; blackhawk_damage
  0031e	51		 push	 ecx
  0031f	6a 54		 push	 84			; 00000054H
  00321	8b 15 00 00 00
	00		 mov	 edx, DWORD PTR ?gunship_entity@@3PAUENTITY@@A ; gunship_entity
  00327	52		 push	 edx
  00328	69 45 bc 5c 04
	00 00		 imul	 eax, DWORD PTR tv189[ebp], 1116
  0032f	8b 4d b8	 mov	 ecx, DWORD PTR tv197[ebp]
  00332	8b 94 88 00 00
	00 00		 mov	 edx, DWORD PTR ?fn_set_local_entity_int_value@@3PAY0BBH@P6GXPAUENTITY@@W4INT_TYPES@@H@ZA[eax+ecx*4]
  00339	ff d2		 call	 edx

; 901  : 
; 902  : 				break;

  0033b	e9 7f 03 00 00	 jmp	 $LN1@partially_
$LN11@partially_:

; 903  : 			}
; 904  : 			case GUNSHIP_TYPE_HIND:
; 905  : 			////////////////////////////////////////
; 906  : 			{
; 907  : 				partially_repair_hind_damage ();

  00340	e8 00 00 00 00	 call	 ?partially_repair_hind_damage@@YGXXZ ; partially_repair_hind_damage

; 908  : 
; 909  : 				set_local_entity_int_value (get_gunship_entity (), INT_TYPE_HELICOPTER_DAMAGE_FLAGS, hind_damage.flags);

  00345	83 3d 00 00 00
	00 00		 cmp	 DWORD PTR ?gunship_entity@@3PAUENTITY@@A, 0 ; gunship_entity
  0034c	74 0c		 je	 SHORT $LN38@partially_
  0034e	a1 00 00 00 00	 mov	 eax, DWORD PTR ?gunship_entity@@3PAUENTITY@@A ; gunship_entity
  00353	8b 08		 mov	 ecx, DWORD PTR [eax]
  00355	89 4d bc	 mov	 DWORD PTR tv209[ebp], ecx
  00358	eb 21		 jmp	 SHORT $LN39@partially_
$LN38@partially_:
  0035a	8b 15 00 00 00
	00		 mov	 edx, DWORD PTR ?__LINE__Var@?0??partially_repair_local_entity_avionics@@YGXPAUENTITY@@@Z@4JA
  00360	83 c2 40	 add	 edx, 64			; 00000040H
  00363	52		 push	 edx
  00364	68 00 00 00 00	 push	 OFFSET ??_C@_0EO@BCFJKHLO@c?3?2users?2nhv90?2projects?2eech?2ap@
  00369	a1 00 00 00 00	 mov	 eax, DWORD PTR ?null_entity_pointer_message@@3PBDB ; null_entity_pointer_message
  0036e	50		 push	 eax
  0036f	e8 00 00 00 00	 call	 ?process_assert@@YGXPBD0H@Z ; process_assert
  00374	c7 45 bc 00 00
	00 00		 mov	 DWORD PTR tv209[ebp], 0
$LN39@partially_:
  0037b	b9 01 00 00 00	 mov	 ecx, 1
  00380	85 c9		 test	 ecx, ecx
  00382	74 09		 je	 SHORT $LN40@partially_
  00384	c7 45 b8 54 00
	00 00		 mov	 DWORD PTR tv217[ebp], 84 ; 00000054H
  0038b	eb 21		 jmp	 SHORT $LN41@partially_
$LN40@partially_:
  0038d	8b 15 00 00 00
	00		 mov	 edx, DWORD PTR ?__LINE__Var@?0??partially_repair_local_entity_avionics@@YGXPAUENTITY@@@Z@4JA
  00393	83 c2 40	 add	 edx, 64			; 00000040H
  00396	52		 push	 edx
  00397	68 00 00 00 00	 push	 OFFSET ??_C@_0EO@BCFJKHLO@c?3?2users?2nhv90?2projects?2eech?2ap@
  0039c	a1 00 00 00 00	 mov	 eax, DWORD PTR ?overload_invalid_int_type_message@@3PBDB ; overload_invalid_int_type_message
  003a1	50		 push	 eax
  003a2	e8 00 00 00 00	 call	 ?process_assert@@YGXPBD0H@Z ; process_assert
  003a7	c7 45 b8 00 00
	00 00		 mov	 DWORD PTR tv217[ebp], 0
$LN41@partially_:
  003ae	8b 0d 00 00 00
	00		 mov	 ecx, DWORD PTR ?hind_damage@@3THIND_DAMAGE_FLAGS@@A ; hind_damage
  003b4	51		 push	 ecx
  003b5	6a 54		 push	 84			; 00000054H
  003b7	8b 15 00 00 00
	00		 mov	 edx, DWORD PTR ?gunship_entity@@3PAUENTITY@@A ; gunship_entity
  003bd	52		 push	 edx
  003be	69 45 bc 5c 04
	00 00		 imul	 eax, DWORD PTR tv209[ebp], 1116
  003c5	8b 4d b8	 mov	 ecx, DWORD PTR tv217[ebp]
  003c8	8b 94 88 00 00
	00 00		 mov	 edx, DWORD PTR ?fn_set_local_entity_int_value@@3PAY0BBH@P6GXPAUENTITY@@W4INT_TYPES@@H@ZA[eax+ecx*4]
  003cf	ff d2		 call	 edx

; 910  : 
; 911  : 				break;

  003d1	e9 e9 02 00 00	 jmp	 $LN1@partially_
$LN12@partially_:

; 912  : 			}
; 913  : 			case GUNSHIP_TYPE_AH64A:
; 914  : 			////////////////////////////////////////
; 915  : 			{
; 916  : 				partially_repair_ah64a_damage ();

  003d6	e8 00 00 00 00	 call	 ?partially_repair_ah64a_damage@@YGXXZ ; partially_repair_ah64a_damage

; 917  : 				set_local_entity_int_value (get_gunship_entity (), INT_TYPE_HELICOPTER_DAMAGE_FLAGS, ah64a_damage.flags);

  003db	83 3d 00 00 00
	00 00		 cmp	 DWORD PTR ?gunship_entity@@3PAUENTITY@@A, 0 ; gunship_entity
  003e2	74 0c		 je	 SHORT $LN42@partially_
  003e4	a1 00 00 00 00	 mov	 eax, DWORD PTR ?gunship_entity@@3PAUENTITY@@A ; gunship_entity
  003e9	8b 08		 mov	 ecx, DWORD PTR [eax]
  003eb	89 4d bc	 mov	 DWORD PTR tv229[ebp], ecx
  003ee	eb 21		 jmp	 SHORT $LN43@partially_
$LN42@partially_:
  003f0	8b 15 00 00 00
	00		 mov	 edx, DWORD PTR ?__LINE__Var@?0??partially_repair_local_entity_avionics@@YGXPAUENTITY@@@Z@4JA
  003f6	83 c2 48	 add	 edx, 72			; 00000048H
  003f9	52		 push	 edx
  003fa	68 00 00 00 00	 push	 OFFSET ??_C@_0EO@BCFJKHLO@c?3?2users?2nhv90?2projects?2eech?2ap@
  003ff	a1 00 00 00 00	 mov	 eax, DWORD PTR ?null_entity_pointer_message@@3PBDB ; null_entity_pointer_message
  00404	50		 push	 eax
  00405	e8 00 00 00 00	 call	 ?process_assert@@YGXPBD0H@Z ; process_assert
  0040a	c7 45 bc 00 00
	00 00		 mov	 DWORD PTR tv229[ebp], 0
$LN43@partially_:
  00411	b9 01 00 00 00	 mov	 ecx, 1
  00416	85 c9		 test	 ecx, ecx
  00418	74 09		 je	 SHORT $LN44@partially_
  0041a	c7 45 b8 54 00
	00 00		 mov	 DWORD PTR tv237[ebp], 84 ; 00000054H
  00421	eb 21		 jmp	 SHORT $LN45@partially_
$LN44@partially_:
  00423	8b 15 00 00 00
	00		 mov	 edx, DWORD PTR ?__LINE__Var@?0??partially_repair_local_entity_avionics@@YGXPAUENTITY@@@Z@4JA
  00429	83 c2 48	 add	 edx, 72			; 00000048H
  0042c	52		 push	 edx
  0042d	68 00 00 00 00	 push	 OFFSET ??_C@_0EO@BCFJKHLO@c?3?2users?2nhv90?2projects?2eech?2ap@
  00432	a1 00 00 00 00	 mov	 eax, DWORD PTR ?overload_invalid_int_type_message@@3PBDB ; overload_invalid_int_type_message
  00437	50		 push	 eax
  00438	e8 00 00 00 00	 call	 ?process_assert@@YGXPBD0H@Z ; process_assert
  0043d	c7 45 b8 00 00
	00 00		 mov	 DWORD PTR tv237[ebp], 0
$LN45@partially_:
  00444	8b 0d 00 00 00
	00		 mov	 ecx, DWORD PTR ?ah64a_damage@@3TAH64A_DAMAGE_FLAGS@@A ; ah64a_damage
  0044a	51		 push	 ecx
  0044b	6a 54		 push	 84			; 00000054H
  0044d	8b 15 00 00 00
	00		 mov	 edx, DWORD PTR ?gunship_entity@@3PAUENTITY@@A ; gunship_entity
  00453	52		 push	 edx
  00454	69 45 bc 5c 04
	00 00		 imul	 eax, DWORD PTR tv229[ebp], 1116
  0045b	8b 4d b8	 mov	 ecx, DWORD PTR tv237[ebp]
  0045e	8b 94 88 00 00
	00 00		 mov	 edx, DWORD PTR ?fn_set_local_entity_int_value@@3PAY0BBH@P6GXPAUENTITY@@W4INT_TYPES@@H@ZA[eax+ecx*4]
  00465	ff d2		 call	 edx

; 918  : 				break;

  00467	e9 53 02 00 00	 jmp	 $LN1@partially_
$LN13@partially_:

; 919  : 			}
; 920  : 			////////////////////////////////////////
; 921  : 			case GUNSHIP_TYPE_KA50:
; 922  : 			////////////////////////////////////////
; 923  : 			{
; 924  : 				partially_repair_ka50_damage ();

  0046c	e8 00 00 00 00	 call	 ?partially_repair_ka50_damage@@YGXXZ ; partially_repair_ka50_damage

; 925  : 				set_local_entity_int_value (get_gunship_entity (), INT_TYPE_HELICOPTER_DAMAGE_FLAGS, ka50_damage.flags);

  00471	83 3d 00 00 00
	00 00		 cmp	 DWORD PTR ?gunship_entity@@3PAUENTITY@@A, 0 ; gunship_entity
  00478	74 0c		 je	 SHORT $LN46@partially_
  0047a	a1 00 00 00 00	 mov	 eax, DWORD PTR ?gunship_entity@@3PAUENTITY@@A ; gunship_entity
  0047f	8b 08		 mov	 ecx, DWORD PTR [eax]
  00481	89 4d bc	 mov	 DWORD PTR tv249[ebp], ecx
  00484	eb 21		 jmp	 SHORT $LN47@partially_
$LN46@partially_:
  00486	8b 15 00 00 00
	00		 mov	 edx, DWORD PTR ?__LINE__Var@?0??partially_repair_local_entity_avionics@@YGXPAUENTITY@@@Z@4JA
  0048c	83 c2 50	 add	 edx, 80			; 00000050H
  0048f	52		 push	 edx
  00490	68 00 00 00 00	 push	 OFFSET ??_C@_0EO@BCFJKHLO@c?3?2users?2nhv90?2projects?2eech?2ap@
  00495	a1 00 00 00 00	 mov	 eax, DWORD PTR ?null_entity_pointer_message@@3PBDB ; null_entity_pointer_message
  0049a	50		 push	 eax
  0049b	e8 00 00 00 00	 call	 ?process_assert@@YGXPBD0H@Z ; process_assert
  004a0	c7 45 bc 00 00
	00 00		 mov	 DWORD PTR tv249[ebp], 0
$LN47@partially_:
  004a7	b9 01 00 00 00	 mov	 ecx, 1
  004ac	85 c9		 test	 ecx, ecx
  004ae	74 09		 je	 SHORT $LN48@partially_
  004b0	c7 45 b8 54 00
	00 00		 mov	 DWORD PTR tv257[ebp], 84 ; 00000054H
  004b7	eb 21		 jmp	 SHORT $LN49@partially_
$LN48@partially_:
  004b9	8b 15 00 00 00
	00		 mov	 edx, DWORD PTR ?__LINE__Var@?0??partially_repair_local_entity_avionics@@YGXPAUENTITY@@@Z@4JA
  004bf	83 c2 50	 add	 edx, 80			; 00000050H
  004c2	52		 push	 edx
  004c3	68 00 00 00 00	 push	 OFFSET ??_C@_0EO@BCFJKHLO@c?3?2users?2nhv90?2projects?2eech?2ap@
  004c8	a1 00 00 00 00	 mov	 eax, DWORD PTR ?overload_invalid_int_type_message@@3PBDB ; overload_invalid_int_type_message
  004cd	50		 push	 eax
  004ce	e8 00 00 00 00	 call	 ?process_assert@@YGXPBD0H@Z ; process_assert
  004d3	c7 45 b8 00 00
	00 00		 mov	 DWORD PTR tv257[ebp], 0
$LN49@partially_:
  004da	8b 0d 00 00 00
	00		 mov	 ecx, DWORD PTR ?ka50_damage@@3TKA50_DAMAGE_FLAGS@@A ; ka50_damage
  004e0	51		 push	 ecx
  004e1	6a 54		 push	 84			; 00000054H
  004e3	8b 15 00 00 00
	00		 mov	 edx, DWORD PTR ?gunship_entity@@3PAUENTITY@@A ; gunship_entity
  004e9	52		 push	 edx
  004ea	69 45 bc 5c 04
	00 00		 imul	 eax, DWORD PTR tv249[ebp], 1116
  004f1	8b 4d b8	 mov	 ecx, DWORD PTR tv257[ebp]
  004f4	8b 94 88 00 00
	00 00		 mov	 edx, DWORD PTR ?fn_set_local_entity_int_value@@3PAY0BBH@P6GXPAUENTITY@@W4INT_TYPES@@H@ZA[eax+ecx*4]
  004fb	ff d2		 call	 edx

; 926  : 				break;

  004fd	e9 bd 01 00 00	 jmp	 $LN1@partially_
$LN14@partially_:

; 927  : 			}
; 928  : 			////Moje 030817 end
; 929  : 			////////////////////////////////////////
; 930  : 			case GUNSHIP_TYPE_VIPER:
; 931  : 			////////////////////////////////////////
; 932  : 			{
; 933  : 				partially_repair_viper_damage ();

  00502	e8 00 00 00 00	 call	 ?partially_repair_viper_damage@@YGXXZ ; partially_repair_viper_damage

; 934  : 				set_local_entity_int_value (get_gunship_entity (), INT_TYPE_HELICOPTER_DAMAGE_FLAGS, viper_damage.flags);

  00507	83 3d 00 00 00
	00 00		 cmp	 DWORD PTR ?gunship_entity@@3PAUENTITY@@A, 0 ; gunship_entity
  0050e	74 0c		 je	 SHORT $LN50@partially_
  00510	a1 00 00 00 00	 mov	 eax, DWORD PTR ?gunship_entity@@3PAUENTITY@@A ; gunship_entity
  00515	8b 08		 mov	 ecx, DWORD PTR [eax]
  00517	89 4d bc	 mov	 DWORD PTR tv269[ebp], ecx
  0051a	eb 21		 jmp	 SHORT $LN51@partially_
$LN50@partially_:
  0051c	8b 15 00 00 00
	00		 mov	 edx, DWORD PTR ?__LINE__Var@?0??partially_repair_local_entity_avionics@@YGXPAUENTITY@@@Z@4JA
  00522	83 c2 59	 add	 edx, 89			; 00000059H
  00525	52		 push	 edx
  00526	68 00 00 00 00	 push	 OFFSET ??_C@_0EO@BCFJKHLO@c?3?2users?2nhv90?2projects?2eech?2ap@
  0052b	a1 00 00 00 00	 mov	 eax, DWORD PTR ?null_entity_pointer_message@@3PBDB ; null_entity_pointer_message
  00530	50		 push	 eax
  00531	e8 00 00 00 00	 call	 ?process_assert@@YGXPBD0H@Z ; process_assert
  00536	c7 45 bc 00 00
	00 00		 mov	 DWORD PTR tv269[ebp], 0
$LN51@partially_:
  0053d	b9 01 00 00 00	 mov	 ecx, 1
  00542	85 c9		 test	 ecx, ecx
  00544	74 09		 je	 SHORT $LN52@partially_
  00546	c7 45 b8 54 00
	00 00		 mov	 DWORD PTR tv277[ebp], 84 ; 00000054H
  0054d	eb 21		 jmp	 SHORT $LN53@partially_
$LN52@partially_:
  0054f	8b 15 00 00 00
	00		 mov	 edx, DWORD PTR ?__LINE__Var@?0??partially_repair_local_entity_avionics@@YGXPAUENTITY@@@Z@4JA
  00555	83 c2 59	 add	 edx, 89			; 00000059H
  00558	52		 push	 edx
  00559	68 00 00 00 00	 push	 OFFSET ??_C@_0EO@BCFJKHLO@c?3?2users?2nhv90?2projects?2eech?2ap@
  0055e	a1 00 00 00 00	 mov	 eax, DWORD PTR ?overload_invalid_int_type_message@@3PBDB ; overload_invalid_int_type_message
  00563	50		 push	 eax
  00564	e8 00 00 00 00	 call	 ?process_assert@@YGXPBD0H@Z ; process_assert
  00569	c7 45 b8 00 00
	00 00		 mov	 DWORD PTR tv277[ebp], 0
$LN53@partially_:
  00570	8b 0d 00 00 00
	00		 mov	 ecx, DWORD PTR ?viper_damage@@3TVIPER_DAMAGE_FLAGS@@A ; viper_damage
  00576	51		 push	 ecx
  00577	6a 54		 push	 84			; 00000054H
  00579	8b 15 00 00 00
	00		 mov	 edx, DWORD PTR ?gunship_entity@@3PAUENTITY@@A ; gunship_entity
  0057f	52		 push	 edx
  00580	69 45 bc 5c 04
	00 00		 imul	 eax, DWORD PTR tv269[ebp], 1116
  00587	8b 4d b8	 mov	 ecx, DWORD PTR tv277[ebp]
  0058a	8b 94 88 00 00
	00 00		 mov	 edx, DWORD PTR ?fn_set_local_entity_int_value@@3PAY0BBH@P6GXPAUENTITY@@W4INT_TYPES@@H@ZA[eax+ecx*4]
  00591	ff d2		 call	 edx

; 935  : 				break;

  00593	e9 27 01 00 00	 jmp	 $LN1@partially_
$LN15@partially_:

; 936  : 			}
; 937  : 			////////////////////////////////////////
; 938  : 			case GUNSHIP_TYPE_KIOWA:
; 939  : 			////////////////////////////////////////
; 940  : 			{
; 941  : 				partially_repair_kiowa_damage ();

  00598	e8 00 00 00 00	 call	 ?partially_repair_kiowa_damage@@YGXXZ ; partially_repair_kiowa_damage

; 942  : 
; 943  : 				set_local_entity_int_value (get_gunship_entity (), INT_TYPE_HELICOPTER_DAMAGE_FLAGS, kiowa_damage.flags);

  0059d	83 3d 00 00 00
	00 00		 cmp	 DWORD PTR ?gunship_entity@@3PAUENTITY@@A, 0 ; gunship_entity
  005a4	74 0c		 je	 SHORT $LN54@partially_
  005a6	a1 00 00 00 00	 mov	 eax, DWORD PTR ?gunship_entity@@3PAUENTITY@@A ; gunship_entity
  005ab	8b 08		 mov	 ecx, DWORD PTR [eax]
  005ad	89 4d bc	 mov	 DWORD PTR tv289[ebp], ecx
  005b0	eb 21		 jmp	 SHORT $LN55@partially_
$LN54@partially_:
  005b2	8b 15 00 00 00
	00		 mov	 edx, DWORD PTR ?__LINE__Var@?0??partially_repair_local_entity_avionics@@YGXPAUENTITY@@@Z@4JA
  005b8	83 c2 62	 add	 edx, 98			; 00000062H
  005bb	52		 push	 edx
  005bc	68 00 00 00 00	 push	 OFFSET ??_C@_0EO@BCFJKHLO@c?3?2users?2nhv90?2projects?2eech?2ap@
  005c1	a1 00 00 00 00	 mov	 eax, DWORD PTR ?null_entity_pointer_message@@3PBDB ; null_entity_pointer_message
  005c6	50		 push	 eax
  005c7	e8 00 00 00 00	 call	 ?process_assert@@YGXPBD0H@Z ; process_assert
  005cc	c7 45 bc 00 00
	00 00		 mov	 DWORD PTR tv289[ebp], 0
$LN55@partially_:
  005d3	b9 01 00 00 00	 mov	 ecx, 1
  005d8	85 c9		 test	 ecx, ecx
  005da	74 09		 je	 SHORT $LN56@partially_
  005dc	c7 45 b8 54 00
	00 00		 mov	 DWORD PTR tv297[ebp], 84 ; 00000054H
  005e3	eb 21		 jmp	 SHORT $LN57@partially_
$LN56@partially_:
  005e5	8b 15 00 00 00
	00		 mov	 edx, DWORD PTR ?__LINE__Var@?0??partially_repair_local_entity_avionics@@YGXPAUENTITY@@@Z@4JA
  005eb	83 c2 62	 add	 edx, 98			; 00000062H
  005ee	52		 push	 edx
  005ef	68 00 00 00 00	 push	 OFFSET ??_C@_0EO@BCFJKHLO@c?3?2users?2nhv90?2projects?2eech?2ap@
  005f4	a1 00 00 00 00	 mov	 eax, DWORD PTR ?overload_invalid_int_type_message@@3PBDB ; overload_invalid_int_type_message
  005f9	50		 push	 eax
  005fa	e8 00 00 00 00	 call	 ?process_assert@@YGXPBD0H@Z ; process_assert
  005ff	c7 45 b8 00 00
	00 00		 mov	 DWORD PTR tv297[ebp], 0
$LN57@partially_:
  00606	8b 0d 00 00 00
	00		 mov	 ecx, DWORD PTR ?kiowa_damage@@3TKIOWA_DAMAGE_FLAGS@@A ; kiowa_damage
  0060c	51		 push	 ecx
  0060d	6a 54		 push	 84			; 00000054H
  0060f	8b 15 00 00 00
	00		 mov	 edx, DWORD PTR ?gunship_entity@@3PAUENTITY@@A ; gunship_entity
  00615	52		 push	 edx
  00616	69 45 bc 5c 04
	00 00		 imul	 eax, DWORD PTR tv289[ebp], 1116
  0061d	8b 4d b8	 mov	 ecx, DWORD PTR tv297[ebp]
  00620	8b 94 88 00 00
	00 00		 mov	 edx, DWORD PTR ?fn_set_local_entity_int_value@@3PAY0BBH@P6GXPAUENTITY@@W4INT_TYPES@@H@ZA[eax+ecx*4]
  00627	ff d2		 call	 edx

; 944  : 
; 945  : 				break;

  00629	e9 91 00 00 00	 jmp	 $LN1@partially_
$LN16@partially_:

; 946  : 			}
; 947  : 			////////////////////////////////////////
; 948  : 
; 949  : 			////////////////////////////////////////
; 950  : 			// GCsDriver  08-12-2007
; 951  : 			default:
; 952  : 			////////////////////////////////////////
; 953  : 			{
; 954  : 				partially_repair_default_damage ();

  0062e	e8 00 00 00 00	 call	 ?partially_repair_default_damage@@YGXXZ ; partially_repair_default_damage

; 955  : 
; 956  : 				set_local_entity_int_value (get_gunship_entity (), INT_TYPE_HELICOPTER_DAMAGE_FLAGS, default_damage.flags);

  00633	83 3d 00 00 00
	00 00		 cmp	 DWORD PTR ?gunship_entity@@3PAUENTITY@@A, 0 ; gunship_entity
  0063a	74 0c		 je	 SHORT $LN58@partially_
  0063c	a1 00 00 00 00	 mov	 eax, DWORD PTR ?gunship_entity@@3PAUENTITY@@A ; gunship_entity
  00641	8b 08		 mov	 ecx, DWORD PTR [eax]
  00643	89 4d bc	 mov	 DWORD PTR tv309[ebp], ecx
  00646	eb 21		 jmp	 SHORT $LN59@partially_
$LN58@partially_:
  00648	8b 15 00 00 00
	00		 mov	 edx, DWORD PTR ?__LINE__Var@?0??partially_repair_local_entity_avionics@@YGXPAUENTITY@@@Z@4JA
  0064e	83 c2 6f	 add	 edx, 111		; 0000006fH
  00651	52		 push	 edx
  00652	68 00 00 00 00	 push	 OFFSET ??_C@_0EO@BCFJKHLO@c?3?2users?2nhv90?2projects?2eech?2ap@
  00657	a1 00 00 00 00	 mov	 eax, DWORD PTR ?null_entity_pointer_message@@3PBDB ; null_entity_pointer_message
  0065c	50		 push	 eax
  0065d	e8 00 00 00 00	 call	 ?process_assert@@YGXPBD0H@Z ; process_assert
  00662	c7 45 bc 00 00
	00 00		 mov	 DWORD PTR tv309[ebp], 0
$LN59@partially_:
  00669	b9 01 00 00 00	 mov	 ecx, 1
  0066e	85 c9		 test	 ecx, ecx
  00670	74 09		 je	 SHORT $LN60@partially_
  00672	c7 45 b8 54 00
	00 00		 mov	 DWORD PTR tv317[ebp], 84 ; 00000054H
  00679	eb 21		 jmp	 SHORT $LN61@partially_
$LN60@partially_:
  0067b	8b 15 00 00 00
	00		 mov	 edx, DWORD PTR ?__LINE__Var@?0??partially_repair_local_entity_avionics@@YGXPAUENTITY@@@Z@4JA
  00681	83 c2 6f	 add	 edx, 111		; 0000006fH
  00684	52		 push	 edx
  00685	68 00 00 00 00	 push	 OFFSET ??_C@_0EO@BCFJKHLO@c?3?2users?2nhv90?2projects?2eech?2ap@
  0068a	a1 00 00 00 00	 mov	 eax, DWORD PTR ?overload_invalid_int_type_message@@3PBDB ; overload_invalid_int_type_message
  0068f	50		 push	 eax
  00690	e8 00 00 00 00	 call	 ?process_assert@@YGXPBD0H@Z ; process_assert
  00695	c7 45 b8 00 00
	00 00		 mov	 DWORD PTR tv317[ebp], 0
$LN61@partially_:
  0069c	8b 0d 00 00 00
	00		 mov	 ecx, DWORD PTR ?default_damage@@3TDEFAULT_DAMAGE_FLAGS@@A ; default_damage
  006a2	51		 push	 ecx
  006a3	6a 54		 push	 84			; 00000054H
  006a5	8b 15 00 00 00
	00		 mov	 edx, DWORD PTR ?gunship_entity@@3PAUENTITY@@A ; gunship_entity
  006ab	52		 push	 edx
  006ac	69 45 bc 5c 04
	00 00		 imul	 eax, DWORD PTR tv309[ebp], 1116
  006b3	8b 4d b8	 mov	 ecx, DWORD PTR tv317[ebp]
  006b6	8b 94 88 00 00
	00 00		 mov	 edx, DWORD PTR ?fn_set_local_entity_int_value@@3PAY0BBH@P6GXPAUENTITY@@W4INT_TYPES@@H@ZA[eax+ecx*4]
  006bd	ff d2		 call	 edx
$LN1@partially_:

; 957  : 
; 958  : 				break;
; 959  : 			}
; 960  : 		}
; 961  : 	}
; 962  : }

  006bf	5f		 pop	 edi
  006c0	5e		 pop	 esi
  006c1	5b		 pop	 ebx
  006c2	8b e5		 mov	 esp, ebp
  006c4	5d		 pop	 ebp
  006c5	c2 04 00	 ret	 4
$LN62@partially_:
  006c8	00 00 00 00	 DD	 $LN6@partially_
  006cc	00 00 00 00	 DD	 $LN7@partially_
  006d0	00 00 00 00	 DD	 $LN8@partially_
  006d4	00 00 00 00	 DD	 $LN9@partially_
  006d8	00 00 00 00	 DD	 $LN10@partially_
  006dc	00 00 00 00	 DD	 $LN11@partially_
  006e0	00 00 00 00	 DD	 $LN12@partially_
  006e4	00 00 00 00	 DD	 $LN13@partially_
  006e8	00 00 00 00	 DD	 $LN14@partially_
  006ec	00 00 00 00	 DD	 $LN15@partially_
?partially_repair_local_entity_avionics@@YGXPAUENTITY@@@Z ENDP ; partially_repair_local_entity_avionics
_TEXT	ENDS
; Function compile flags: /Odtp /ZI
; File c:\users\nhv90\projects\eech\aphavoc\source\gunships\avionics\common\co_dam.c
;	COMDAT ?fully_repair_local_entity_avionics@@YGXPAUENTITY@@@Z
_TEXT	SEGMENT
tv317 = -72						; size = 4
tv297 = -72						; size = 4
tv277 = -72						; size = 4
tv257 = -72						; size = 4
tv237 = -72						; size = 4
tv217 = -72						; size = 4
tv197 = -72						; size = 4
tv177 = -72						; size = 4
tv157 = -72						; size = 4
tv137 = -72						; size = 4
tv85 = -72						; size = 4
tv309 = -68						; size = 4
tv289 = -68						; size = 4
tv269 = -68						; size = 4
tv249 = -68						; size = 4
tv229 = -68						; size = 4
tv209 = -68						; size = 4
tv189 = -68						; size = 4
tv169 = -68						; size = 4
tv149 = -68						; size = 4
tv129 = -68						; size = 4
tv77 = -68						; size = 4
tv70 = -68						; size = 4
_en$ = 8						; size = 4
?fully_repair_local_entity_avionics@@YGXPAUENTITY@@@Z PROC ; fully_repair_local_entity_avionics, COMDAT

; 720  : {

  00000	55		 push	 ebp
  00001	8b ec		 mov	 ebp, esp
  00003	83 ec 48	 sub	 esp, 72			; 00000048H
  00006	53		 push	 ebx
  00007	56		 push	 esi
  00008	57		 push	 edi

; 721  : 	ASSERT (en);

  00009	83 7d 08 00	 cmp	 DWORD PTR _en$[ebp], 0
  0000d	75 18		 jne	 SHORT $LN4@fully_repa
  0000f	a1 00 00 00 00	 mov	 eax, DWORD PTR ?__LINE__Var@?0??fully_repair_local_entity_avionics@@YGXPAUENTITY@@@Z@4JA
  00014	83 c0 01	 add	 eax, 1
  00017	50		 push	 eax
  00018	68 00 00 00 00	 push	 OFFSET ??_C@_0EO@BCFJKHLO@c?3?2users?2nhv90?2projects?2eech?2ap@
  0001d	68 00 00 00 00	 push	 OFFSET ??_C@_02LFNMGJAP@en@
  00022	e8 00 00 00 00	 call	 ?process_assert@@YGXPBD0H@Z ; process_assert
$LN4@fully_repa:

; 722  : 
; 723  : 	if (en == get_gunship_entity ())

  00027	8b 45 08	 mov	 eax, DWORD PTR _en$[ebp]
  0002a	3b 05 00 00 00
	00		 cmp	 eax, DWORD PTR ?gunship_entity@@3PAUENTITY@@A ; gunship_entity
  00030	0f 85 89 06 00
	00		 jne	 $LN1@fully_repa

; 724  : 	{
; 725  : 		switch (get_global_gunship_type ())

  00036	a1 0c 00 00 00	 mov	 eax, DWORD PTR ?global_options@@3UGLOBAL_OPTIONS_DATA@@A+12
  0003b	89 45 bc	 mov	 DWORD PTR tv70[ebp], eax
  0003e	83 7d bc 09	 cmp	 DWORD PTR tv70[ebp], 9
  00042	0f 87 e6 05 00
	00		 ja	 $LN16@fully_repa
  00048	8b 4d bc	 mov	 ecx, DWORD PTR tv70[ebp]
  0004b	ff 24 8d 00 00
	00 00		 jmp	 DWORD PTR $LN62@fully_repa[ecx*4]
$LN6@fully_repa:

; 726  : 		{
; 727  : 			////////////////////////////////////////
; 728  : 			// JB 030313 Fly any aircraft
; 729  : //			default:
; 730  : 			case GUNSHIP_TYPE_APACHE:
; 731  : 			////////////////////////////////////////
; 732  : 			{
; 733  : 				fully_repair_apache_damage ();

  00052	e8 00 00 00 00	 call	 ?fully_repair_apache_damage@@YGXXZ ; fully_repair_apache_damage

; 734  : 
; 735  : 				set_local_entity_int_value (get_gunship_entity (), INT_TYPE_HELICOPTER_DAMAGE_FLAGS, apache_damage.flags);

  00057	83 3d 00 00 00
	00 00		 cmp	 DWORD PTR ?gunship_entity@@3PAUENTITY@@A, 0 ; gunship_entity
  0005e	74 0c		 je	 SHORT $LN18@fully_repa
  00060	a1 00 00 00 00	 mov	 eax, DWORD PTR ?gunship_entity@@3PAUENTITY@@A ; gunship_entity
  00065	8b 08		 mov	 ecx, DWORD PTR [eax]
  00067	89 4d bc	 mov	 DWORD PTR tv77[ebp], ecx
  0006a	eb 21		 jmp	 SHORT $LN19@fully_repa
$LN18@fully_repa:
  0006c	8b 15 00 00 00
	00		 mov	 edx, DWORD PTR ?__LINE__Var@?0??fully_repair_local_entity_avionics@@YGXPAUENTITY@@@Z@4JA
  00072	83 c2 0f	 add	 edx, 15			; 0000000fH
  00075	52		 push	 edx
  00076	68 00 00 00 00	 push	 OFFSET ??_C@_0EO@BCFJKHLO@c?3?2users?2nhv90?2projects?2eech?2ap@
  0007b	a1 00 00 00 00	 mov	 eax, DWORD PTR ?null_entity_pointer_message@@3PBDB ; null_entity_pointer_message
  00080	50		 push	 eax
  00081	e8 00 00 00 00	 call	 ?process_assert@@YGXPBD0H@Z ; process_assert
  00086	c7 45 bc 00 00
	00 00		 mov	 DWORD PTR tv77[ebp], 0
$LN19@fully_repa:
  0008d	b9 01 00 00 00	 mov	 ecx, 1
  00092	85 c9		 test	 ecx, ecx
  00094	74 09		 je	 SHORT $LN20@fully_repa
  00096	c7 45 b8 54 00
	00 00		 mov	 DWORD PTR tv85[ebp], 84	; 00000054H
  0009d	eb 21		 jmp	 SHORT $LN21@fully_repa
$LN20@fully_repa:
  0009f	8b 15 00 00 00
	00		 mov	 edx, DWORD PTR ?__LINE__Var@?0??fully_repair_local_entity_avionics@@YGXPAUENTITY@@@Z@4JA
  000a5	83 c2 0f	 add	 edx, 15			; 0000000fH
  000a8	52		 push	 edx
  000a9	68 00 00 00 00	 push	 OFFSET ??_C@_0EO@BCFJKHLO@c?3?2users?2nhv90?2projects?2eech?2ap@
  000ae	a1 00 00 00 00	 mov	 eax, DWORD PTR ?overload_invalid_int_type_message@@3PBDB ; overload_invalid_int_type_message
  000b3	50		 push	 eax
  000b4	e8 00 00 00 00	 call	 ?process_assert@@YGXPBD0H@Z ; process_assert
  000b9	c7 45 b8 00 00
	00 00		 mov	 DWORD PTR tv85[ebp], 0
$LN21@fully_repa:
  000c0	8b 0d 00 00 00
	00		 mov	 ecx, DWORD PTR ?apache_damage@@3TAPACHE_DAMAGE_FLAGS@@A ; apache_damage
  000c6	51		 push	 ecx
  000c7	6a 54		 push	 84			; 00000054H
  000c9	8b 15 00 00 00
	00		 mov	 edx, DWORD PTR ?gunship_entity@@3PAUENTITY@@A ; gunship_entity
  000cf	52		 push	 edx
  000d0	69 45 bc 5c 04
	00 00		 imul	 eax, DWORD PTR tv77[ebp], 1116
  000d7	8b 4d b8	 mov	 ecx, DWORD PTR tv85[ebp]
  000da	8b 94 88 00 00
	00 00		 mov	 edx, DWORD PTR ?fn_set_local_entity_int_value@@3PAY0BBH@P6GXPAUENTITY@@W4INT_TYPES@@H@ZA[eax+ecx*4]
  000e1	ff d2		 call	 edx

; 736  : 
; 737  : 				break;

  000e3	e9 d7 05 00 00	 jmp	 $LN1@fully_repa
$LN7@fully_repa:

; 738  : 			}
; 739  : 			////////////////////////////////////////
; 740  : 			case GUNSHIP_TYPE_HAVOC:
; 741  : 			////////////////////////////////////////
; 742  : 			{
; 743  : 				fully_repair_havoc_damage ();

  000e8	e8 00 00 00 00	 call	 ?fully_repair_havoc_damage@@YGXXZ ; fully_repair_havoc_damage

; 744  : 
; 745  : 				set_local_entity_int_value (get_gunship_entity (), INT_TYPE_HELICOPTER_DAMAGE_FLAGS, havoc_damage.flags);

  000ed	83 3d 00 00 00
	00 00		 cmp	 DWORD PTR ?gunship_entity@@3PAUENTITY@@A, 0 ; gunship_entity
  000f4	74 0c		 je	 SHORT $LN22@fully_repa
  000f6	a1 00 00 00 00	 mov	 eax, DWORD PTR ?gunship_entity@@3PAUENTITY@@A ; gunship_entity
  000fb	8b 08		 mov	 ecx, DWORD PTR [eax]
  000fd	89 4d bc	 mov	 DWORD PTR tv129[ebp], ecx
  00100	eb 21		 jmp	 SHORT $LN23@fully_repa
$LN22@fully_repa:
  00102	8b 15 00 00 00
	00		 mov	 edx, DWORD PTR ?__LINE__Var@?0??fully_repair_local_entity_avionics@@YGXPAUENTITY@@@Z@4JA
  00108	83 c2 19	 add	 edx, 25			; 00000019H
  0010b	52		 push	 edx
  0010c	68 00 00 00 00	 push	 OFFSET ??_C@_0EO@BCFJKHLO@c?3?2users?2nhv90?2projects?2eech?2ap@
  00111	a1 00 00 00 00	 mov	 eax, DWORD PTR ?null_entity_pointer_message@@3PBDB ; null_entity_pointer_message
  00116	50		 push	 eax
  00117	e8 00 00 00 00	 call	 ?process_assert@@YGXPBD0H@Z ; process_assert
  0011c	c7 45 bc 00 00
	00 00		 mov	 DWORD PTR tv129[ebp], 0
$LN23@fully_repa:
  00123	b9 01 00 00 00	 mov	 ecx, 1
  00128	85 c9		 test	 ecx, ecx
  0012a	74 09		 je	 SHORT $LN24@fully_repa
  0012c	c7 45 b8 54 00
	00 00		 mov	 DWORD PTR tv137[ebp], 84 ; 00000054H
  00133	eb 21		 jmp	 SHORT $LN25@fully_repa
$LN24@fully_repa:
  00135	8b 15 00 00 00
	00		 mov	 edx, DWORD PTR ?__LINE__Var@?0??fully_repair_local_entity_avionics@@YGXPAUENTITY@@@Z@4JA
  0013b	83 c2 19	 add	 edx, 25			; 00000019H
  0013e	52		 push	 edx
  0013f	68 00 00 00 00	 push	 OFFSET ??_C@_0EO@BCFJKHLO@c?3?2users?2nhv90?2projects?2eech?2ap@
  00144	a1 00 00 00 00	 mov	 eax, DWORD PTR ?overload_invalid_int_type_message@@3PBDB ; overload_invalid_int_type_message
  00149	50		 push	 eax
  0014a	e8 00 00 00 00	 call	 ?process_assert@@YGXPBD0H@Z ; process_assert
  0014f	c7 45 b8 00 00
	00 00		 mov	 DWORD PTR tv137[ebp], 0
$LN25@fully_repa:
  00156	8b 0d 00 00 00
	00		 mov	 ecx, DWORD PTR ?havoc_damage@@3THAVOC_DAMAGE_FLAGS@@A ; havoc_damage
  0015c	51		 push	 ecx
  0015d	6a 54		 push	 84			; 00000054H
  0015f	8b 15 00 00 00
	00		 mov	 edx, DWORD PTR ?gunship_entity@@3PAUENTITY@@A ; gunship_entity
  00165	52		 push	 edx
  00166	69 45 bc 5c 04
	00 00		 imul	 eax, DWORD PTR tv129[ebp], 1116
  0016d	8b 4d b8	 mov	 ecx, DWORD PTR tv137[ebp]
  00170	8b 94 88 00 00
	00 00		 mov	 edx, DWORD PTR ?fn_set_local_entity_int_value@@3PAY0BBH@P6GXPAUENTITY@@W4INT_TYPES@@H@ZA[eax+ecx*4]
  00177	ff d2		 call	 edx

; 746  : 
; 747  : 				break;

  00179	e9 41 05 00 00	 jmp	 $LN1@fully_repa
$LN8@fully_repa:

; 748  : 			}
; 749  : 			////////////////////////////////////////
; 750  : 			case GUNSHIP_TYPE_COMANCHE:
; 751  : 			////////////////////////////////////////
; 752  : 			{
; 753  : 				fully_repair_comanche_damage ();

  0017e	e8 00 00 00 00	 call	 ?fully_repair_comanche_damage@@YGXXZ ; fully_repair_comanche_damage

; 754  : 
; 755  : 				set_local_entity_int_value (get_gunship_entity (), INT_TYPE_HELICOPTER_DAMAGE_FLAGS, comanche_damage.flags);

  00183	83 3d 00 00 00
	00 00		 cmp	 DWORD PTR ?gunship_entity@@3PAUENTITY@@A, 0 ; gunship_entity
  0018a	74 0c		 je	 SHORT $LN26@fully_repa
  0018c	a1 00 00 00 00	 mov	 eax, DWORD PTR ?gunship_entity@@3PAUENTITY@@A ; gunship_entity
  00191	8b 08		 mov	 ecx, DWORD PTR [eax]
  00193	89 4d bc	 mov	 DWORD PTR tv149[ebp], ecx
  00196	eb 21		 jmp	 SHORT $LN27@fully_repa
$LN26@fully_repa:
  00198	8b 15 00 00 00
	00		 mov	 edx, DWORD PTR ?__LINE__Var@?0??fully_repair_local_entity_avionics@@YGXPAUENTITY@@@Z@4JA
  0019e	83 c2 23	 add	 edx, 35			; 00000023H
  001a1	52		 push	 edx
  001a2	68 00 00 00 00	 push	 OFFSET ??_C@_0EO@BCFJKHLO@c?3?2users?2nhv90?2projects?2eech?2ap@
  001a7	a1 00 00 00 00	 mov	 eax, DWORD PTR ?null_entity_pointer_message@@3PBDB ; null_entity_pointer_message
  001ac	50		 push	 eax
  001ad	e8 00 00 00 00	 call	 ?process_assert@@YGXPBD0H@Z ; process_assert
  001b2	c7 45 bc 00 00
	00 00		 mov	 DWORD PTR tv149[ebp], 0
$LN27@fully_repa:
  001b9	b9 01 00 00 00	 mov	 ecx, 1
  001be	85 c9		 test	 ecx, ecx
  001c0	74 09		 je	 SHORT $LN28@fully_repa
  001c2	c7 45 b8 54 00
	00 00		 mov	 DWORD PTR tv157[ebp], 84 ; 00000054H
  001c9	eb 21		 jmp	 SHORT $LN29@fully_repa
$LN28@fully_repa:
  001cb	8b 15 00 00 00
	00		 mov	 edx, DWORD PTR ?__LINE__Var@?0??fully_repair_local_entity_avionics@@YGXPAUENTITY@@@Z@4JA
  001d1	83 c2 23	 add	 edx, 35			; 00000023H
  001d4	52		 push	 edx
  001d5	68 00 00 00 00	 push	 OFFSET ??_C@_0EO@BCFJKHLO@c?3?2users?2nhv90?2projects?2eech?2ap@
  001da	a1 00 00 00 00	 mov	 eax, DWORD PTR ?overload_invalid_int_type_message@@3PBDB ; overload_invalid_int_type_message
  001df	50		 push	 eax
  001e0	e8 00 00 00 00	 call	 ?process_assert@@YGXPBD0H@Z ; process_assert
  001e5	c7 45 b8 00 00
	00 00		 mov	 DWORD PTR tv157[ebp], 0
$LN29@fully_repa:
  001ec	8b 0d 00 00 00
	00		 mov	 ecx, DWORD PTR ?comanche_damage@@3TCOMANCHE_DAMAGE_FLAGS@@A ; comanche_damage
  001f2	51		 push	 ecx
  001f3	6a 54		 push	 84			; 00000054H
  001f5	8b 15 00 00 00
	00		 mov	 edx, DWORD PTR ?gunship_entity@@3PAUENTITY@@A ; gunship_entity
  001fb	52		 push	 edx
  001fc	69 45 bc 5c 04
	00 00		 imul	 eax, DWORD PTR tv149[ebp], 1116
  00203	8b 4d b8	 mov	 ecx, DWORD PTR tv157[ebp]
  00206	8b 94 88 00 00
	00 00		 mov	 edx, DWORD PTR ?fn_set_local_entity_int_value@@3PAY0BBH@P6GXPAUENTITY@@W4INT_TYPES@@H@ZA[eax+ecx*4]
  0020d	ff d2		 call	 edx

; 756  : 
; 757  : 				break;

  0020f	e9 ab 04 00 00	 jmp	 $LN1@fully_repa
$LN9@fully_repa:

; 758  : 			}
; 759  : 			////////////////////////////////////////
; 760  : 			case GUNSHIP_TYPE_HOKUM:
; 761  : 			////////////////////////////////////////
; 762  : 			{
; 763  : 				fully_repair_hokum_damage ();

  00214	e8 00 00 00 00	 call	 ?fully_repair_hokum_damage@@YGXXZ ; fully_repair_hokum_damage

; 764  : 
; 765  : 				set_local_entity_int_value (get_gunship_entity (), INT_TYPE_HELICOPTER_DAMAGE_FLAGS, hokum_damage.flags);

  00219	83 3d 00 00 00
	00 00		 cmp	 DWORD PTR ?gunship_entity@@3PAUENTITY@@A, 0 ; gunship_entity
  00220	74 0c		 je	 SHORT $LN30@fully_repa
  00222	a1 00 00 00 00	 mov	 eax, DWORD PTR ?gunship_entity@@3PAUENTITY@@A ; gunship_entity
  00227	8b 08		 mov	 ecx, DWORD PTR [eax]
  00229	89 4d bc	 mov	 DWORD PTR tv169[ebp], ecx
  0022c	eb 21		 jmp	 SHORT $LN31@fully_repa
$LN30@fully_repa:
  0022e	8b 15 00 00 00
	00		 mov	 edx, DWORD PTR ?__LINE__Var@?0??fully_repair_local_entity_avionics@@YGXPAUENTITY@@@Z@4JA
  00234	83 c2 2d	 add	 edx, 45			; 0000002dH
  00237	52		 push	 edx
  00238	68 00 00 00 00	 push	 OFFSET ??_C@_0EO@BCFJKHLO@c?3?2users?2nhv90?2projects?2eech?2ap@
  0023d	a1 00 00 00 00	 mov	 eax, DWORD PTR ?null_entity_pointer_message@@3PBDB ; null_entity_pointer_message
  00242	50		 push	 eax
  00243	e8 00 00 00 00	 call	 ?process_assert@@YGXPBD0H@Z ; process_assert
  00248	c7 45 bc 00 00
	00 00		 mov	 DWORD PTR tv169[ebp], 0
$LN31@fully_repa:
  0024f	b9 01 00 00 00	 mov	 ecx, 1
  00254	85 c9		 test	 ecx, ecx
  00256	74 09		 je	 SHORT $LN32@fully_repa
  00258	c7 45 b8 54 00
	00 00		 mov	 DWORD PTR tv177[ebp], 84 ; 00000054H
  0025f	eb 21		 jmp	 SHORT $LN33@fully_repa
$LN32@fully_repa:
  00261	8b 15 00 00 00
	00		 mov	 edx, DWORD PTR ?__LINE__Var@?0??fully_repair_local_entity_avionics@@YGXPAUENTITY@@@Z@4JA
  00267	83 c2 2d	 add	 edx, 45			; 0000002dH
  0026a	52		 push	 edx
  0026b	68 00 00 00 00	 push	 OFFSET ??_C@_0EO@BCFJKHLO@c?3?2users?2nhv90?2projects?2eech?2ap@
  00270	a1 00 00 00 00	 mov	 eax, DWORD PTR ?overload_invalid_int_type_message@@3PBDB ; overload_invalid_int_type_message
  00275	50		 push	 eax
  00276	e8 00 00 00 00	 call	 ?process_assert@@YGXPBD0H@Z ; process_assert
  0027b	c7 45 b8 00 00
	00 00		 mov	 DWORD PTR tv177[ebp], 0
$LN33@fully_repa:
  00282	8b 0d 00 00 00
	00		 mov	 ecx, DWORD PTR ?hokum_damage@@3THOKUM_DAMAGE_FLAGS@@A ; hokum_damage
  00288	51		 push	 ecx
  00289	6a 54		 push	 84			; 00000054H
  0028b	8b 15 00 00 00
	00		 mov	 edx, DWORD PTR ?gunship_entity@@3PAUENTITY@@A ; gunship_entity
  00291	52		 push	 edx
  00292	69 45 bc 5c 04
	00 00		 imul	 eax, DWORD PTR tv169[ebp], 1116
  00299	8b 4d b8	 mov	 ecx, DWORD PTR tv177[ebp]
  0029c	8b 94 88 00 00
	00 00		 mov	 edx, DWORD PTR ?fn_set_local_entity_int_value@@3PAY0BBH@P6GXPAUENTITY@@W4INT_TYPES@@H@ZA[eax+ecx*4]
  002a3	ff d2		 call	 edx

; 766  : 
; 767  : 				break;

  002a5	e9 15 04 00 00	 jmp	 $LN1@fully_repa
$LN10@fully_repa:

; 768  : 			}
; 769  : 			////Moje 030817 start
; 770  : 			case GUNSHIP_TYPE_BLACKHAWK:
; 771  : 			////////////////////////////////////////
; 772  : 			{
; 773  : 				fully_repair_blackhawk_damage ();

  002aa	e8 00 00 00 00	 call	 ?fully_repair_blackhawk_damage@@YGXXZ ; fully_repair_blackhawk_damage

; 774  : 
; 775  : 				set_local_entity_int_value (get_gunship_entity (), INT_TYPE_HELICOPTER_DAMAGE_FLAGS, blackhawk_damage.flags);

  002af	83 3d 00 00 00
	00 00		 cmp	 DWORD PTR ?gunship_entity@@3PAUENTITY@@A, 0 ; gunship_entity
  002b6	74 0c		 je	 SHORT $LN34@fully_repa
  002b8	a1 00 00 00 00	 mov	 eax, DWORD PTR ?gunship_entity@@3PAUENTITY@@A ; gunship_entity
  002bd	8b 08		 mov	 ecx, DWORD PTR [eax]
  002bf	89 4d bc	 mov	 DWORD PTR tv189[ebp], ecx
  002c2	eb 21		 jmp	 SHORT $LN35@fully_repa
$LN34@fully_repa:
  002c4	8b 15 00 00 00
	00		 mov	 edx, DWORD PTR ?__LINE__Var@?0??fully_repair_local_entity_avionics@@YGXPAUENTITY@@@Z@4JA
  002ca	83 c2 37	 add	 edx, 55			; 00000037H
  002cd	52		 push	 edx
  002ce	68 00 00 00 00	 push	 OFFSET ??_C@_0EO@BCFJKHLO@c?3?2users?2nhv90?2projects?2eech?2ap@
  002d3	a1 00 00 00 00	 mov	 eax, DWORD PTR ?null_entity_pointer_message@@3PBDB ; null_entity_pointer_message
  002d8	50		 push	 eax
  002d9	e8 00 00 00 00	 call	 ?process_assert@@YGXPBD0H@Z ; process_assert
  002de	c7 45 bc 00 00
	00 00		 mov	 DWORD PTR tv189[ebp], 0
$LN35@fully_repa:
  002e5	b9 01 00 00 00	 mov	 ecx, 1
  002ea	85 c9		 test	 ecx, ecx
  002ec	74 09		 je	 SHORT $LN36@fully_repa
  002ee	c7 45 b8 54 00
	00 00		 mov	 DWORD PTR tv197[ebp], 84 ; 00000054H
  002f5	eb 21		 jmp	 SHORT $LN37@fully_repa
$LN36@fully_repa:
  002f7	8b 15 00 00 00
	00		 mov	 edx, DWORD PTR ?__LINE__Var@?0??fully_repair_local_entity_avionics@@YGXPAUENTITY@@@Z@4JA
  002fd	83 c2 37	 add	 edx, 55			; 00000037H
  00300	52		 push	 edx
  00301	68 00 00 00 00	 push	 OFFSET ??_C@_0EO@BCFJKHLO@c?3?2users?2nhv90?2projects?2eech?2ap@
  00306	a1 00 00 00 00	 mov	 eax, DWORD PTR ?overload_invalid_int_type_message@@3PBDB ; overload_invalid_int_type_message
  0030b	50		 push	 eax
  0030c	e8 00 00 00 00	 call	 ?process_assert@@YGXPBD0H@Z ; process_assert
  00311	c7 45 b8 00 00
	00 00		 mov	 DWORD PTR tv197[ebp], 0
$LN37@fully_repa:
  00318	8b 0d 00 00 00
	00		 mov	 ecx, DWORD PTR ?blackhawk_damage@@3TBLACKHAWK_DAMAGE_FLAGS@@A ; blackhawk_damage
  0031e	51		 push	 ecx
  0031f	6a 54		 push	 84			; 00000054H
  00321	8b 15 00 00 00
	00		 mov	 edx, DWORD PTR ?gunship_entity@@3PAUENTITY@@A ; gunship_entity
  00327	52		 push	 edx
  00328	69 45 bc 5c 04
	00 00		 imul	 eax, DWORD PTR tv189[ebp], 1116
  0032f	8b 4d b8	 mov	 ecx, DWORD PTR tv197[ebp]
  00332	8b 94 88 00 00
	00 00		 mov	 edx, DWORD PTR ?fn_set_local_entity_int_value@@3PAY0BBH@P6GXPAUENTITY@@W4INT_TYPES@@H@ZA[eax+ecx*4]
  00339	ff d2		 call	 edx

; 776  : 
; 777  : 				break;

  0033b	e9 7f 03 00 00	 jmp	 $LN1@fully_repa
$LN11@fully_repa:

; 778  : 			}
; 779  : 			case GUNSHIP_TYPE_HIND:
; 780  : 			////////////////////////////////////////
; 781  : 			{
; 782  : 				fully_repair_hind_damage ();

  00340	e8 00 00 00 00	 call	 ?fully_repair_hind_damage@@YGXXZ ; fully_repair_hind_damage

; 783  : 
; 784  : 				set_local_entity_int_value (get_gunship_entity (), INT_TYPE_HELICOPTER_DAMAGE_FLAGS, hind_damage.flags);

  00345	83 3d 00 00 00
	00 00		 cmp	 DWORD PTR ?gunship_entity@@3PAUENTITY@@A, 0 ; gunship_entity
  0034c	74 0c		 je	 SHORT $LN38@fully_repa
  0034e	a1 00 00 00 00	 mov	 eax, DWORD PTR ?gunship_entity@@3PAUENTITY@@A ; gunship_entity
  00353	8b 08		 mov	 ecx, DWORD PTR [eax]
  00355	89 4d bc	 mov	 DWORD PTR tv209[ebp], ecx
  00358	eb 21		 jmp	 SHORT $LN39@fully_repa
$LN38@fully_repa:
  0035a	8b 15 00 00 00
	00		 mov	 edx, DWORD PTR ?__LINE__Var@?0??fully_repair_local_entity_avionics@@YGXPAUENTITY@@@Z@4JA
  00360	83 c2 40	 add	 edx, 64			; 00000040H
  00363	52		 push	 edx
  00364	68 00 00 00 00	 push	 OFFSET ??_C@_0EO@BCFJKHLO@c?3?2users?2nhv90?2projects?2eech?2ap@
  00369	a1 00 00 00 00	 mov	 eax, DWORD PTR ?null_entity_pointer_message@@3PBDB ; null_entity_pointer_message
  0036e	50		 push	 eax
  0036f	e8 00 00 00 00	 call	 ?process_assert@@YGXPBD0H@Z ; process_assert
  00374	c7 45 bc 00 00
	00 00		 mov	 DWORD PTR tv209[ebp], 0
$LN39@fully_repa:
  0037b	b9 01 00 00 00	 mov	 ecx, 1
  00380	85 c9		 test	 ecx, ecx
  00382	74 09		 je	 SHORT $LN40@fully_repa
  00384	c7 45 b8 54 00
	00 00		 mov	 DWORD PTR tv217[ebp], 84 ; 00000054H
  0038b	eb 21		 jmp	 SHORT $LN41@fully_repa
$LN40@fully_repa:
  0038d	8b 15 00 00 00
	00		 mov	 edx, DWORD PTR ?__LINE__Var@?0??fully_repair_local_entity_avionics@@YGXPAUENTITY@@@Z@4JA
  00393	83 c2 40	 add	 edx, 64			; 00000040H
  00396	52		 push	 edx
  00397	68 00 00 00 00	 push	 OFFSET ??_C@_0EO@BCFJKHLO@c?3?2users?2nhv90?2projects?2eech?2ap@
  0039c	a1 00 00 00 00	 mov	 eax, DWORD PTR ?overload_invalid_int_type_message@@3PBDB ; overload_invalid_int_type_message
  003a1	50		 push	 eax
  003a2	e8 00 00 00 00	 call	 ?process_assert@@YGXPBD0H@Z ; process_assert
  003a7	c7 45 b8 00 00
	00 00		 mov	 DWORD PTR tv217[ebp], 0
$LN41@fully_repa:
  003ae	8b 0d 00 00 00
	00		 mov	 ecx, DWORD PTR ?hind_damage@@3THIND_DAMAGE_FLAGS@@A ; hind_damage
  003b4	51		 push	 ecx
  003b5	6a 54		 push	 84			; 00000054H
  003b7	8b 15 00 00 00
	00		 mov	 edx, DWORD PTR ?gunship_entity@@3PAUENTITY@@A ; gunship_entity
  003bd	52		 push	 edx
  003be	69 45 bc 5c 04
	00 00		 imul	 eax, DWORD PTR tv209[ebp], 1116
  003c5	8b 4d b8	 mov	 ecx, DWORD PTR tv217[ebp]
  003c8	8b 94 88 00 00
	00 00		 mov	 edx, DWORD PTR ?fn_set_local_entity_int_value@@3PAY0BBH@P6GXPAUENTITY@@W4INT_TYPES@@H@ZA[eax+ecx*4]
  003cf	ff d2		 call	 edx

; 785  : 
; 786  : 				break;

  003d1	e9 e9 02 00 00	 jmp	 $LN1@fully_repa
$LN12@fully_repa:

; 787  : 			}
; 788  : 			case GUNSHIP_TYPE_AH64A:
; 789  : 			////////////////////////////////////////
; 790  : 			{
; 791  : 				fully_repair_ah64a_damage ();

  003d6	e8 00 00 00 00	 call	 ?fully_repair_ah64a_damage@@YGXXZ ; fully_repair_ah64a_damage

; 792  : 				set_local_entity_int_value (get_gunship_entity (), INT_TYPE_HELICOPTER_DAMAGE_FLAGS, ah64a_damage.flags);

  003db	83 3d 00 00 00
	00 00		 cmp	 DWORD PTR ?gunship_entity@@3PAUENTITY@@A, 0 ; gunship_entity
  003e2	74 0c		 je	 SHORT $LN42@fully_repa
  003e4	a1 00 00 00 00	 mov	 eax, DWORD PTR ?gunship_entity@@3PAUENTITY@@A ; gunship_entity
  003e9	8b 08		 mov	 ecx, DWORD PTR [eax]
  003eb	89 4d bc	 mov	 DWORD PTR tv229[ebp], ecx
  003ee	eb 21		 jmp	 SHORT $LN43@fully_repa
$LN42@fully_repa:
  003f0	8b 15 00 00 00
	00		 mov	 edx, DWORD PTR ?__LINE__Var@?0??fully_repair_local_entity_avionics@@YGXPAUENTITY@@@Z@4JA
  003f6	83 c2 48	 add	 edx, 72			; 00000048H
  003f9	52		 push	 edx
  003fa	68 00 00 00 00	 push	 OFFSET ??_C@_0EO@BCFJKHLO@c?3?2users?2nhv90?2projects?2eech?2ap@
  003ff	a1 00 00 00 00	 mov	 eax, DWORD PTR ?null_entity_pointer_message@@3PBDB ; null_entity_pointer_message
  00404	50		 push	 eax
  00405	e8 00 00 00 00	 call	 ?process_assert@@YGXPBD0H@Z ; process_assert
  0040a	c7 45 bc 00 00
	00 00		 mov	 DWORD PTR tv229[ebp], 0
$LN43@fully_repa:
  00411	b9 01 00 00 00	 mov	 ecx, 1
  00416	85 c9		 test	 ecx, ecx
  00418	74 09		 je	 SHORT $LN44@fully_repa
  0041a	c7 45 b8 54 00
	00 00		 mov	 DWORD PTR tv237[ebp], 84 ; 00000054H
  00421	eb 21		 jmp	 SHORT $LN45@fully_repa
$LN44@fully_repa:
  00423	8b 15 00 00 00
	00		 mov	 edx, DWORD PTR ?__LINE__Var@?0??fully_repair_local_entity_avionics@@YGXPAUENTITY@@@Z@4JA
  00429	83 c2 48	 add	 edx, 72			; 00000048H
  0042c	52		 push	 edx
  0042d	68 00 00 00 00	 push	 OFFSET ??_C@_0EO@BCFJKHLO@c?3?2users?2nhv90?2projects?2eech?2ap@
  00432	a1 00 00 00 00	 mov	 eax, DWORD PTR ?overload_invalid_int_type_message@@3PBDB ; overload_invalid_int_type_message
  00437	50		 push	 eax
  00438	e8 00 00 00 00	 call	 ?process_assert@@YGXPBD0H@Z ; process_assert
  0043d	c7 45 b8 00 00
	00 00		 mov	 DWORD PTR tv237[ebp], 0
$LN45@fully_repa:
  00444	8b 0d 00 00 00
	00		 mov	 ecx, DWORD PTR ?ah64a_damage@@3TAH64A_DAMAGE_FLAGS@@A ; ah64a_damage
  0044a	51		 push	 ecx
  0044b	6a 54		 push	 84			; 00000054H
  0044d	8b 15 00 00 00
	00		 mov	 edx, DWORD PTR ?gunship_entity@@3PAUENTITY@@A ; gunship_entity
  00453	52		 push	 edx
  00454	69 45 bc 5c 04
	00 00		 imul	 eax, DWORD PTR tv229[ebp], 1116
  0045b	8b 4d b8	 mov	 ecx, DWORD PTR tv237[ebp]
  0045e	8b 94 88 00 00
	00 00		 mov	 edx, DWORD PTR ?fn_set_local_entity_int_value@@3PAY0BBH@P6GXPAUENTITY@@W4INT_TYPES@@H@ZA[eax+ecx*4]
  00465	ff d2		 call	 edx

; 793  : 				break;

  00467	e9 53 02 00 00	 jmp	 $LN1@fully_repa
$LN13@fully_repa:

; 794  : 			}
; 795  : 			////////////////////////////////////////
; 796  : 			case GUNSHIP_TYPE_KA50:
; 797  : 			////////////////////////////////////////
; 798  : 			{
; 799  : 				fully_repair_ka50_damage ();

  0046c	e8 00 00 00 00	 call	 ?fully_repair_ka50_damage@@YGXXZ ; fully_repair_ka50_damage

; 800  : 				set_local_entity_int_value (get_gunship_entity (), INT_TYPE_HELICOPTER_DAMAGE_FLAGS, ka50_damage.flags);

  00471	83 3d 00 00 00
	00 00		 cmp	 DWORD PTR ?gunship_entity@@3PAUENTITY@@A, 0 ; gunship_entity
  00478	74 0c		 je	 SHORT $LN46@fully_repa
  0047a	a1 00 00 00 00	 mov	 eax, DWORD PTR ?gunship_entity@@3PAUENTITY@@A ; gunship_entity
  0047f	8b 08		 mov	 ecx, DWORD PTR [eax]
  00481	89 4d bc	 mov	 DWORD PTR tv249[ebp], ecx
  00484	eb 21		 jmp	 SHORT $LN47@fully_repa
$LN46@fully_repa:
  00486	8b 15 00 00 00
	00		 mov	 edx, DWORD PTR ?__LINE__Var@?0??fully_repair_local_entity_avionics@@YGXPAUENTITY@@@Z@4JA
  0048c	83 c2 50	 add	 edx, 80			; 00000050H
  0048f	52		 push	 edx
  00490	68 00 00 00 00	 push	 OFFSET ??_C@_0EO@BCFJKHLO@c?3?2users?2nhv90?2projects?2eech?2ap@
  00495	a1 00 00 00 00	 mov	 eax, DWORD PTR ?null_entity_pointer_message@@3PBDB ; null_entity_pointer_message
  0049a	50		 push	 eax
  0049b	e8 00 00 00 00	 call	 ?process_assert@@YGXPBD0H@Z ; process_assert
  004a0	c7 45 bc 00 00
	00 00		 mov	 DWORD PTR tv249[ebp], 0
$LN47@fully_repa:
  004a7	b9 01 00 00 00	 mov	 ecx, 1
  004ac	85 c9		 test	 ecx, ecx
  004ae	74 09		 je	 SHORT $LN48@fully_repa
  004b0	c7 45 b8 54 00
	00 00		 mov	 DWORD PTR tv257[ebp], 84 ; 00000054H
  004b7	eb 21		 jmp	 SHORT $LN49@fully_repa
$LN48@fully_repa:
  004b9	8b 15 00 00 00
	00		 mov	 edx, DWORD PTR ?__LINE__Var@?0??fully_repair_local_entity_avionics@@YGXPAUENTITY@@@Z@4JA
  004bf	83 c2 50	 add	 edx, 80			; 00000050H
  004c2	52		 push	 edx
  004c3	68 00 00 00 00	 push	 OFFSET ??_C@_0EO@BCFJKHLO@c?3?2users?2nhv90?2projects?2eech?2ap@
  004c8	a1 00 00 00 00	 mov	 eax, DWORD PTR ?overload_invalid_int_type_message@@3PBDB ; overload_invalid_int_type_message
  004cd	50		 push	 eax
  004ce	e8 00 00 00 00	 call	 ?process_assert@@YGXPBD0H@Z ; process_assert
  004d3	c7 45 b8 00 00
	00 00		 mov	 DWORD PTR tv257[ebp], 0
$LN49@fully_repa:
  004da	8b 0d 00 00 00
	00		 mov	 ecx, DWORD PTR ?ka50_damage@@3TKA50_DAMAGE_FLAGS@@A ; ka50_damage
  004e0	51		 push	 ecx
  004e1	6a 54		 push	 84			; 00000054H
  004e3	8b 15 00 00 00
	00		 mov	 edx, DWORD PTR ?gunship_entity@@3PAUENTITY@@A ; gunship_entity
  004e9	52		 push	 edx
  004ea	69 45 bc 5c 04
	00 00		 imul	 eax, DWORD PTR tv249[ebp], 1116
  004f1	8b 4d b8	 mov	 ecx, DWORD PTR tv257[ebp]
  004f4	8b 94 88 00 00
	00 00		 mov	 edx, DWORD PTR ?fn_set_local_entity_int_value@@3PAY0BBH@P6GXPAUENTITY@@W4INT_TYPES@@H@ZA[eax+ecx*4]
  004fb	ff d2		 call	 edx

; 801  : 				break;

  004fd	e9 bd 01 00 00	 jmp	 $LN1@fully_repa
$LN14@fully_repa:

; 802  : 			}
; 803  : 			////Moje 030817 end
; 804  : 			////////////////////////////////////////
; 805  : 			case GUNSHIP_TYPE_VIPER:
; 806  : 			////////////////////////////////////////
; 807  : 			{
; 808  : 				fully_repair_viper_damage ();

  00502	e8 00 00 00 00	 call	 ?fully_repair_viper_damage@@YGXXZ ; fully_repair_viper_damage

; 809  : 				set_local_entity_int_value (get_gunship_entity (), INT_TYPE_HELICOPTER_DAMAGE_FLAGS, viper_damage.flags);

  00507	83 3d 00 00 00
	00 00		 cmp	 DWORD PTR ?gunship_entity@@3PAUENTITY@@A, 0 ; gunship_entity
  0050e	74 0c		 je	 SHORT $LN50@fully_repa
  00510	a1 00 00 00 00	 mov	 eax, DWORD PTR ?gunship_entity@@3PAUENTITY@@A ; gunship_entity
  00515	8b 08		 mov	 ecx, DWORD PTR [eax]
  00517	89 4d bc	 mov	 DWORD PTR tv269[ebp], ecx
  0051a	eb 21		 jmp	 SHORT $LN51@fully_repa
$LN50@fully_repa:
  0051c	8b 15 00 00 00
	00		 mov	 edx, DWORD PTR ?__LINE__Var@?0??fully_repair_local_entity_avionics@@YGXPAUENTITY@@@Z@4JA
  00522	83 c2 59	 add	 edx, 89			; 00000059H
  00525	52		 push	 edx
  00526	68 00 00 00 00	 push	 OFFSET ??_C@_0EO@BCFJKHLO@c?3?2users?2nhv90?2projects?2eech?2ap@
  0052b	a1 00 00 00 00	 mov	 eax, DWORD PTR ?null_entity_pointer_message@@3PBDB ; null_entity_pointer_message
  00530	50		 push	 eax
  00531	e8 00 00 00 00	 call	 ?process_assert@@YGXPBD0H@Z ; process_assert
  00536	c7 45 bc 00 00
	00 00		 mov	 DWORD PTR tv269[ebp], 0
$LN51@fully_repa:
  0053d	b9 01 00 00 00	 mov	 ecx, 1
  00542	85 c9		 test	 ecx, ecx
  00544	74 09		 je	 SHORT $LN52@fully_repa
  00546	c7 45 b8 54 00
	00 00		 mov	 DWORD PTR tv277[ebp], 84 ; 00000054H
  0054d	eb 21		 jmp	 SHORT $LN53@fully_repa
$LN52@fully_repa:
  0054f	8b 15 00 00 00
	00		 mov	 edx, DWORD PTR ?__LINE__Var@?0??fully_repair_local_entity_avionics@@YGXPAUENTITY@@@Z@4JA
  00555	83 c2 59	 add	 edx, 89			; 00000059H
  00558	52		 push	 edx
  00559	68 00 00 00 00	 push	 OFFSET ??_C@_0EO@BCFJKHLO@c?3?2users?2nhv90?2projects?2eech?2ap@
  0055e	a1 00 00 00 00	 mov	 eax, DWORD PTR ?overload_invalid_int_type_message@@3PBDB ; overload_invalid_int_type_message
  00563	50		 push	 eax
  00564	e8 00 00 00 00	 call	 ?process_assert@@YGXPBD0H@Z ; process_assert
  00569	c7 45 b8 00 00
	00 00		 mov	 DWORD PTR tv277[ebp], 0
$LN53@fully_repa:
  00570	8b 0d 00 00 00
	00		 mov	 ecx, DWORD PTR ?viper_damage@@3TVIPER_DAMAGE_FLAGS@@A ; viper_damage
  00576	51		 push	 ecx
  00577	6a 54		 push	 84			; 00000054H
  00579	8b 15 00 00 00
	00		 mov	 edx, DWORD PTR ?gunship_entity@@3PAUENTITY@@A ; gunship_entity
  0057f	52		 push	 edx
  00580	69 45 bc 5c 04
	00 00		 imul	 eax, DWORD PTR tv269[ebp], 1116
  00587	8b 4d b8	 mov	 ecx, DWORD PTR tv277[ebp]
  0058a	8b 94 88 00 00
	00 00		 mov	 edx, DWORD PTR ?fn_set_local_entity_int_value@@3PAY0BBH@P6GXPAUENTITY@@W4INT_TYPES@@H@ZA[eax+ecx*4]
  00591	ff d2		 call	 edx

; 810  : 				break;

  00593	e9 27 01 00 00	 jmp	 $LN1@fully_repa
$LN15@fully_repa:

; 811  : 			}
; 812  : 			////////////////////////////////////////
; 813  : 			case GUNSHIP_TYPE_KIOWA:
; 814  : 			////////////////////////////////////////
; 815  : 			{
; 816  : 				fully_repair_kiowa_damage ();

  00598	e8 00 00 00 00	 call	 ?fully_repair_kiowa_damage@@YGXXZ ; fully_repair_kiowa_damage

; 817  : 
; 818  : 				set_local_entity_int_value (get_gunship_entity (), INT_TYPE_HELICOPTER_DAMAGE_FLAGS, kiowa_damage.flags);

  0059d	83 3d 00 00 00
	00 00		 cmp	 DWORD PTR ?gunship_entity@@3PAUENTITY@@A, 0 ; gunship_entity
  005a4	74 0c		 je	 SHORT $LN54@fully_repa
  005a6	a1 00 00 00 00	 mov	 eax, DWORD PTR ?gunship_entity@@3PAUENTITY@@A ; gunship_entity
  005ab	8b 08		 mov	 ecx, DWORD PTR [eax]
  005ad	89 4d bc	 mov	 DWORD PTR tv289[ebp], ecx
  005b0	eb 21		 jmp	 SHORT $LN55@fully_repa
$LN54@fully_repa:
  005b2	8b 15 00 00 00
	00		 mov	 edx, DWORD PTR ?__LINE__Var@?0??fully_repair_local_entity_avionics@@YGXPAUENTITY@@@Z@4JA
  005b8	83 c2 62	 add	 edx, 98			; 00000062H
  005bb	52		 push	 edx
  005bc	68 00 00 00 00	 push	 OFFSET ??_C@_0EO@BCFJKHLO@c?3?2users?2nhv90?2projects?2eech?2ap@
  005c1	a1 00 00 00 00	 mov	 eax, DWORD PTR ?null_entity_pointer_message@@3PBDB ; null_entity_pointer_message
  005c6	50		 push	 eax
  005c7	e8 00 00 00 00	 call	 ?process_assert@@YGXPBD0H@Z ; process_assert
  005cc	c7 45 bc 00 00
	00 00		 mov	 DWORD PTR tv289[ebp], 0
$LN55@fully_repa:
  005d3	b9 01 00 00 00	 mov	 ecx, 1
  005d8	85 c9		 test	 ecx, ecx
  005da	74 09		 je	 SHORT $LN56@fully_repa
  005dc	c7 45 b8 54 00
	00 00		 mov	 DWORD PTR tv297[ebp], 84 ; 00000054H
  005e3	eb 21		 jmp	 SHORT $LN57@fully_repa
$LN56@fully_repa:
  005e5	8b 15 00 00 00
	00		 mov	 edx, DWORD PTR ?__LINE__Var@?0??fully_repair_local_entity_avionics@@YGXPAUENTITY@@@Z@4JA
  005eb	83 c2 62	 add	 edx, 98			; 00000062H
  005ee	52		 push	 edx
  005ef	68 00 00 00 00	 push	 OFFSET ??_C@_0EO@BCFJKHLO@c?3?2users?2nhv90?2projects?2eech?2ap@
  005f4	a1 00 00 00 00	 mov	 eax, DWORD PTR ?overload_invalid_int_type_message@@3PBDB ; overload_invalid_int_type_message
  005f9	50		 push	 eax
  005fa	e8 00 00 00 00	 call	 ?process_assert@@YGXPBD0H@Z ; process_assert
  005ff	c7 45 b8 00 00
	00 00		 mov	 DWORD PTR tv297[ebp], 0
$LN57@fully_repa:
  00606	8b 0d 00 00 00
	00		 mov	 ecx, DWORD PTR ?kiowa_damage@@3TKIOWA_DAMAGE_FLAGS@@A ; kiowa_damage
  0060c	51		 push	 ecx
  0060d	6a 54		 push	 84			; 00000054H
  0060f	8b 15 00 00 00
	00		 mov	 edx, DWORD PTR ?gunship_entity@@3PAUENTITY@@A ; gunship_entity
  00615	52		 push	 edx
  00616	69 45 bc 5c 04
	00 00		 imul	 eax, DWORD PTR tv289[ebp], 1116
  0061d	8b 4d b8	 mov	 ecx, DWORD PTR tv297[ebp]
  00620	8b 94 88 00 00
	00 00		 mov	 edx, DWORD PTR ?fn_set_local_entity_int_value@@3PAY0BBH@P6GXPAUENTITY@@W4INT_TYPES@@H@ZA[eax+ecx*4]
  00627	ff d2		 call	 edx

; 819  : 
; 820  : 				break;

  00629	e9 91 00 00 00	 jmp	 $LN1@fully_repa
$LN16@fully_repa:

; 821  : 			}
; 822  : 			////////////////////////////////////////
; 823  : 
; 824  : 			////////////////////////////////////////
; 825  : 			// GCsDriver  08-12-2007
; 826  : 			default:
; 827  : 			////////////////////////////////////////
; 828  : 			{
; 829  : 				fully_repair_default_damage ();

  0062e	e8 00 00 00 00	 call	 ?fully_repair_default_damage@@YGXXZ ; fully_repair_default_damage

; 830  : 
; 831  : 				set_local_entity_int_value (get_gunship_entity (), INT_TYPE_HELICOPTER_DAMAGE_FLAGS, default_damage.flags);

  00633	83 3d 00 00 00
	00 00		 cmp	 DWORD PTR ?gunship_entity@@3PAUENTITY@@A, 0 ; gunship_entity
  0063a	74 0c		 je	 SHORT $LN58@fully_repa
  0063c	a1 00 00 00 00	 mov	 eax, DWORD PTR ?gunship_entity@@3PAUENTITY@@A ; gunship_entity
  00641	8b 08		 mov	 ecx, DWORD PTR [eax]
  00643	89 4d bc	 mov	 DWORD PTR tv309[ebp], ecx
  00646	eb 21		 jmp	 SHORT $LN59@fully_repa
$LN58@fully_repa:
  00648	8b 15 00 00 00
	00		 mov	 edx, DWORD PTR ?__LINE__Var@?0??fully_repair_local_entity_avionics@@YGXPAUENTITY@@@Z@4JA
  0064e	83 c2 6f	 add	 edx, 111		; 0000006fH
  00651	52		 push	 edx
  00652	68 00 00 00 00	 push	 OFFSET ??_C@_0EO@BCFJKHLO@c?3?2users?2nhv90?2projects?2eech?2ap@
  00657	a1 00 00 00 00	 mov	 eax, DWORD PTR ?null_entity_pointer_message@@3PBDB ; null_entity_pointer_message
  0065c	50		 push	 eax
  0065d	e8 00 00 00 00	 call	 ?process_assert@@YGXPBD0H@Z ; process_assert
  00662	c7 45 bc 00 00
	00 00		 mov	 DWORD PTR tv309[ebp], 0
$LN59@fully_repa:
  00669	b9 01 00 00 00	 mov	 ecx, 1
  0066e	85 c9		 test	 ecx, ecx
  00670	74 09		 je	 SHORT $LN60@fully_repa
  00672	c7 45 b8 54 00
	00 00		 mov	 DWORD PTR tv317[ebp], 84 ; 00000054H
  00679	eb 21		 jmp	 SHORT $LN61@fully_repa
$LN60@fully_repa:
  0067b	8b 15 00 00 00
	00		 mov	 edx, DWORD PTR ?__LINE__Var@?0??fully_repair_local_entity_avionics@@YGXPAUENTITY@@@Z@4JA
  00681	83 c2 6f	 add	 edx, 111		; 0000006fH
  00684	52		 push	 edx
  00685	68 00 00 00 00	 push	 OFFSET ??_C@_0EO@BCFJKHLO@c?3?2users?2nhv90?2projects?2eech?2ap@
  0068a	a1 00 00 00 00	 mov	 eax, DWORD PTR ?overload_invalid_int_type_message@@3PBDB ; overload_invalid_int_type_message
  0068f	50		 push	 eax
  00690	e8 00 00 00 00	 call	 ?process_assert@@YGXPBD0H@Z ; process_assert
  00695	c7 45 b8 00 00
	00 00		 mov	 DWORD PTR tv317[ebp], 0
$LN61@fully_repa:
  0069c	8b 0d 00 00 00
	00		 mov	 ecx, DWORD PTR ?default_damage@@3TDEFAULT_DAMAGE_FLAGS@@A ; default_damage
  006a2	51		 push	 ecx
  006a3	6a 54		 push	 84			; 00000054H
  006a5	8b 15 00 00 00
	00		 mov	 edx, DWORD PTR ?gunship_entity@@3PAUENTITY@@A ; gunship_entity
  006ab	52		 push	 edx
  006ac	69 45 bc 5c 04
	00 00		 imul	 eax, DWORD PTR tv309[ebp], 1116
  006b3	8b 4d b8	 mov	 ecx, DWORD PTR tv317[ebp]
  006b6	8b 94 88 00 00
	00 00		 mov	 edx, DWORD PTR ?fn_set_local_entity_int_value@@3PAY0BBH@P6GXPAUENTITY@@W4INT_TYPES@@H@ZA[eax+ecx*4]
  006bd	ff d2		 call	 edx
$LN1@fully_repa:

; 832  : 
; 833  : 				break;
; 834  : 			}
; 835  : 
; 836  : 		}
; 837  : 	}
; 838  : }

  006bf	5f		 pop	 edi
  006c0	5e		 pop	 esi
  006c1	5b		 pop	 ebx
  006c2	8b e5		 mov	 esp, ebp
  006c4	5d		 pop	 ebp
  006c5	c2 04 00	 ret	 4
$LN62@fully_repa:
  006c8	00 00 00 00	 DD	 $LN6@fully_repa
  006cc	00 00 00 00	 DD	 $LN7@fully_repa
  006d0	00 00 00 00	 DD	 $LN8@fully_repa
  006d4	00 00 00 00	 DD	 $LN9@fully_repa
  006d8	00 00 00 00	 DD	 $LN10@fully_repa
  006dc	00 00 00 00	 DD	 $LN11@fully_repa
  006e0	00 00 00 00	 DD	 $LN12@fully_repa
  006e4	00 00 00 00	 DD	 $LN13@fully_repa
  006e8	00 00 00 00	 DD	 $LN14@fully_repa
  006ec	00 00 00 00	 DD	 $LN15@fully_repa
?fully_repair_local_entity_avionics@@YGXPAUENTITY@@@Z ENDP ; fully_repair_local_entity_avionics
_TEXT	ENDS
; Function compile flags: /Odtp /ZI
; File c:\users\nhv90\projects\eech\aphavoc\source\gunships\avionics\common\co_dam.c
;	COMDAT ?damage_client_server_entity_avionics@@YGXPAUENTITY@@W4GUNSHIP_DAMAGE_LEVELS@@@Z
_TEXT	SEGMENT
tv81 = -72						; size = 4
tv74 = -68						; size = 4
_en$ = 8						; size = 4
_damage_level$ = 12					; size = 4
?damage_client_server_entity_avionics@@YGXPAUENTITY@@W4GUNSHIP_DAMAGE_LEVELS@@@Z PROC ; damage_client_server_entity_avionics, COMDAT

; 699  : {

  00000	55		 push	 ebp
  00001	8b ec		 mov	 ebp, esp
  00003	83 ec 48	 sub	 esp, 72			; 00000048H
  00006	53		 push	 ebx
  00007	56		 push	 esi
  00008	57		 push	 edi

; 700  : 	ASSERT (en);

  00009	83 7d 08 00	 cmp	 DWORD PTR _en$[ebp], 0
  0000d	75 18		 jne	 SHORT $LN2@damage_cli
  0000f	a1 00 00 00 00	 mov	 eax, DWORD PTR ?__LINE__Var@?0??damage_client_server_entity_avionics@@YGXPAUENTITY@@W4GUNSHIP_DAMAGE_LEVELS@@@Z@4JA
  00014	83 c0 01	 add	 eax, 1
  00017	50		 push	 eax
  00018	68 00 00 00 00	 push	 OFFSET ??_C@_0EO@BCFJKHLO@c?3?2users?2nhv90?2projects?2eech?2ap@
  0001d	68 00 00 00 00	 push	 OFFSET ??_C@_02LFNMGJAP@en@
  00022	e8 00 00 00 00	 call	 ?process_assert@@YGXPBD0H@Z ; process_assert
$LN2@damage_cli:

; 701  : 
; 702  : 	if (get_local_entity_int_value (en, INT_TYPE_PLAYER) != ENTITY_PLAYER_AI)

  00027	83 7d 08 00	 cmp	 DWORD PTR _en$[ebp], 0
  0002b	74 0a		 je	 SHORT $LN7@damage_cli
  0002d	8b 45 08	 mov	 eax, DWORD PTR _en$[ebp]
  00030	8b 08		 mov	 ecx, DWORD PTR [eax]
  00032	89 4d bc	 mov	 DWORD PTR tv74[ebp], ecx
  00035	eb 1d		 jmp	 SHORT $LN8@damage_cli
$LN7@damage_cli:
  00037	68 be 02 00 00	 push	 702			; 000002beH
  0003c	68 00 00 00 00	 push	 OFFSET ??_C@_0EO@BCFJKHLO@c?3?2users?2nhv90?2projects?2eech?2ap@
  00041	8b 15 00 00 00
	00		 mov	 edx, DWORD PTR ?null_entity_pointer_message@@3PBDB ; null_entity_pointer_message
  00047	52		 push	 edx
  00048	e8 00 00 00 00	 call	 ?process_assert@@YGXPBD0H@Z ; process_assert
  0004d	c7 45 bc 00 00
	00 00		 mov	 DWORD PTR tv74[ebp], 0
$LN8@damage_cli:
  00054	b8 01 00 00 00	 mov	 eax, 1
  00059	85 c0		 test	 eax, eax
  0005b	74 09		 je	 SHORT $LN9@damage_cli
  0005d	c7 45 b8 9c 00
	00 00		 mov	 DWORD PTR tv81[ebp], 156 ; 0000009cH
  00064	eb 1d		 jmp	 SHORT $LN10@damage_cli
$LN9@damage_cli:
  00066	68 be 02 00 00	 push	 702			; 000002beH
  0006b	68 00 00 00 00	 push	 OFFSET ??_C@_0EO@BCFJKHLO@c?3?2users?2nhv90?2projects?2eech?2ap@
  00070	8b 0d 00 00 00
	00		 mov	 ecx, DWORD PTR ?overload_invalid_int_type_message@@3PBDB ; overload_invalid_int_type_message
  00076	51		 push	 ecx
  00077	e8 00 00 00 00	 call	 ?process_assert@@YGXPBD0H@Z ; process_assert
  0007c	c7 45 b8 00 00
	00 00		 mov	 DWORD PTR tv81[ebp], 0
$LN10@damage_cli:
  00083	68 9c 00 00 00	 push	 156			; 0000009cH
  00088	8b 55 08	 mov	 edx, DWORD PTR _en$[ebp]
  0008b	52		 push	 edx
  0008c	69 45 bc 5c 04
	00 00		 imul	 eax, DWORD PTR tv74[ebp], 1116
  00093	8b 4d b8	 mov	 ecx, DWORD PTR tv81[ebp]
  00096	8b 94 88 00 00
	00 00		 mov	 edx, DWORD PTR ?fn_get_local_entity_int_value@@3PAY0BBH@P6GHPAUENTITY@@W4INT_TYPES@@@ZA[eax+ecx*4]
  0009d	ff d2		 call	 edx
  0009f	85 c0		 test	 eax, eax
  000a1	74 28		 je	 SHORT $LN1@damage_cli

; 703  : 	{
; 704  : 		if (en == get_gunship_entity ())

  000a3	8b 45 08	 mov	 eax, DWORD PTR _en$[ebp]
  000a6	3b 05 00 00 00
	00		 cmp	 eax, DWORD PTR ?gunship_entity@@3PAUENTITY@@A ; gunship_entity
  000ac	75 0b		 jne	 SHORT $LN4@damage_cli

; 705  : 		{
; 706  : 			damage_gunship (damage_level);

  000ae	8b 45 0c	 mov	 eax, DWORD PTR _damage_level$[ebp]
  000b1	50		 push	 eax
  000b2	e8 00 00 00 00	 call	 ?damage_gunship@@YGXW4GUNSHIP_DAMAGE_LEVELS@@@Z ; damage_gunship

; 707  : 		}
; 708  : 		else

  000b7	eb 12		 jmp	 SHORT $LN1@damage_cli
$LN4@damage_cli:

; 709  : 		{
; 710  : 			transmit_entity_comms_message (ENTITY_COMMS_DAMAGE_PLAYER_AVIONICS, en, damage_level);

  000b9	8b 45 0c	 mov	 eax, DWORD PTR _damage_level$[ebp]
  000bc	50		 push	 eax
  000bd	8b 4d 08	 mov	 ecx, DWORD PTR _en$[ebp]
  000c0	51		 push	 ecx
  000c1	6a 10		 push	 16			; 00000010H
  000c3	e8 00 00 00 00	 call	 ?transmit_entity_comms_message@@YAXW4ENTITY_COMMS_MESSAGES@@PAUENTITY@@ZZ ; transmit_entity_comms_message
  000c8	83 c4 0c	 add	 esp, 12			; 0000000cH
$LN1@damage_cli:

; 711  : 		}
; 712  : 	}
; 713  : }

  000cb	5f		 pop	 edi
  000cc	5e		 pop	 esi
  000cd	5b		 pop	 ebx
  000ce	8b e5		 mov	 esp, ebp
  000d0	5d		 pop	 ebp
  000d1	c2 08 00	 ret	 8
?damage_client_server_entity_avionics@@YGXPAUENTITY@@W4GUNSHIP_DAMAGE_LEVELS@@@Z ENDP ; damage_client_server_entity_avionics
_TEXT	ENDS
; Function compile flags: /Odtp /ZI
; File c:\users\nhv90\projects\eech\aphavoc\source\gunships\avionics\common\co_dam.c
;	COMDAT ?notify_avionics_of_dynamics_fault@@YGXI@Z
_TEXT	SEGMENT
tv64 = -68						; size = 4
_damage$ = 8						; size = 4
?notify_avionics_of_dynamics_fault@@YGXI@Z PROC		; notify_avionics_of_dynamics_fault, COMDAT

; 598  : {

  00000	55		 push	 ebp
  00001	8b ec		 mov	 ebp, esp
  00003	83 ec 44	 sub	 esp, 68			; 00000044H
  00006	53		 push	 ebx
  00007	56		 push	 esi
  00008	57		 push	 edi

; 599  : 	switch (get_global_gunship_type ())

  00009	a1 0c 00 00 00	 mov	 eax, DWORD PTR ?global_options@@3UGLOBAL_OPTIONS_DATA@@A+12
  0000e	89 45 bc	 mov	 DWORD PTR tv64[ebp], eax
  00011	83 7d bc 09	 cmp	 DWORD PTR tv64[ebp], 9
  00015	77 78		 ja	 SHORT $LN14@notify_avi
  00017	8b 4d bc	 mov	 ecx, DWORD PTR tv64[ebp]
  0001a	ff 24 8d 00 00
	00 00		 jmp	 DWORD PTR $LN16@notify_avi[ecx*4]
$LN4@notify_avi:

; 600  : 	{
; 601  : 		////////////////////////////////////////
; 602  : 		// JB 030313 Fly any aircraft
; 603  : //		default:
; 604  : 		case GUNSHIP_TYPE_APACHE:
; 605  : 		////////////////////////////////////////
; 606  : 		{
; 607  : 			notify_apache_avionics_of_dynamics_fault (damage);

  00021	8b 45 08	 mov	 eax, DWORD PTR _damage$[ebp]
  00024	50		 push	 eax
  00025	e8 00 00 00 00	 call	 ?notify_apache_avionics_of_dynamics_fault@@YGXI@Z ; notify_apache_avionics_of_dynamics_fault

; 608  : 
; 609  : 			break;

  0002a	eb 6c		 jmp	 SHORT $LN1@notify_avi
$LN5@notify_avi:

; 610  : 		}
; 611  : 		////////////////////////////////////////
; 612  : 		case GUNSHIP_TYPE_HAVOC:
; 613  : 		////////////////////////////////////////
; 614  : 		{
; 615  : 			notify_havoc_avionics_of_dynamics_fault (damage);

  0002c	8b 45 08	 mov	 eax, DWORD PTR _damage$[ebp]
  0002f	50		 push	 eax
  00030	e8 00 00 00 00	 call	 ?notify_havoc_avionics_of_dynamics_fault@@YGXI@Z ; notify_havoc_avionics_of_dynamics_fault

; 616  : 
; 617  : 			break;

  00035	eb 61		 jmp	 SHORT $LN1@notify_avi
$LN6@notify_avi:

; 618  : 		}
; 619  : 		////////////////////////////////////////
; 620  : 		case GUNSHIP_TYPE_COMANCHE:
; 621  : 		////////////////////////////////////////
; 622  : 		{
; 623  : 			notify_comanche_avionics_of_dynamics_fault (damage);

  00037	8b 45 08	 mov	 eax, DWORD PTR _damage$[ebp]
  0003a	50		 push	 eax
  0003b	e8 00 00 00 00	 call	 ?notify_comanche_avionics_of_dynamics_fault@@YGXI@Z ; notify_comanche_avionics_of_dynamics_fault

; 624  : 
; 625  : 			break;

  00040	eb 56		 jmp	 SHORT $LN1@notify_avi
$LN7@notify_avi:

; 626  : 		}
; 627  : 		////////////////////////////////////////
; 628  : 		case GUNSHIP_TYPE_HOKUM:
; 629  : 		////////////////////////////////////////
; 630  : 		{
; 631  : 			notify_hokum_avionics_of_dynamics_fault (damage);

  00042	8b 45 08	 mov	 eax, DWORD PTR _damage$[ebp]
  00045	50		 push	 eax
  00046	e8 00 00 00 00	 call	 ?notify_hokum_avionics_of_dynamics_fault@@YGXI@Z ; notify_hokum_avionics_of_dynamics_fault

; 632  : 
; 633  : 			break;

  0004b	eb 4b		 jmp	 SHORT $LN1@notify_avi
$LN8@notify_avi:

; 634  : 		}
; 635  : 		////Moje 030817 start
; 636  : 		case GUNSHIP_TYPE_BLACKHAWK:
; 637  : 		////////////////////////////////////////
; 638  : 		{
; 639  : 			notify_blackhawk_avionics_of_dynamics_fault (damage);

  0004d	8b 45 08	 mov	 eax, DWORD PTR _damage$[ebp]
  00050	50		 push	 eax
  00051	e8 00 00 00 00	 call	 ?notify_blackhawk_avionics_of_dynamics_fault@@YGXI@Z ; notify_blackhawk_avionics_of_dynamics_fault

; 640  : 
; 641  : 			break;

  00056	eb 40		 jmp	 SHORT $LN1@notify_avi
$LN9@notify_avi:

; 642  : 		}
; 643  : 		case GUNSHIP_TYPE_HIND:
; 644  : 		////////////////////////////////////////
; 645  : 		{
; 646  : 			notify_hind_avionics_of_dynamics_fault (damage);

  00058	8b 45 08	 mov	 eax, DWORD PTR _damage$[ebp]
  0005b	50		 push	 eax
  0005c	e8 00 00 00 00	 call	 ?notify_hind_avionics_of_dynamics_fault@@YGXI@Z ; notify_hind_avionics_of_dynamics_fault

; 647  : 
; 648  : 			break;

  00061	eb 35		 jmp	 SHORT $LN1@notify_avi
$LN10@notify_avi:

; 649  : 		}
; 650  : 		case GUNSHIP_TYPE_AH64A:
; 651  : 		////////////////////////////////////////
; 652  : 		{
; 653  : 			notify_ah64a_avionics_of_dynamics_fault (damage);

  00063	8b 45 08	 mov	 eax, DWORD PTR _damage$[ebp]
  00066	50		 push	 eax
  00067	e8 00 00 00 00	 call	 ?notify_ah64a_avionics_of_dynamics_fault@@YGXI@Z ; notify_ah64a_avionics_of_dynamics_fault

; 654  : 			break;

  0006c	eb 2a		 jmp	 SHORT $LN1@notify_avi
$LN11@notify_avi:

; 655  : 		}
; 656  : 		////////////////////////////////////////
; 657  : 		case GUNSHIP_TYPE_KA50:
; 658  : 		////////////////////////////////////////
; 659  : 		{
; 660  : 			notify_ka50_avionics_of_dynamics_fault (damage);

  0006e	8b 45 08	 mov	 eax, DWORD PTR _damage$[ebp]
  00071	50		 push	 eax
  00072	e8 00 00 00 00	 call	 ?notify_ka50_avionics_of_dynamics_fault@@YGXI@Z ; notify_ka50_avionics_of_dynamics_fault

; 661  : 			break;

  00077	eb 1f		 jmp	 SHORT $LN1@notify_avi
$LN12@notify_avi:

; 662  : 		}
; 663  : 		////Moje 030817 end
; 664  : 		////////////////////////////////////////
; 665  : 		case GUNSHIP_TYPE_VIPER:
; 666  : 		////////////////////////////////////////
; 667  : 		{
; 668  : 			notify_viper_avionics_of_dynamics_fault (damage);

  00079	8b 45 08	 mov	 eax, DWORD PTR _damage$[ebp]
  0007c	50		 push	 eax
  0007d	e8 00 00 00 00	 call	 ?notify_viper_avionics_of_dynamics_fault@@YGXI@Z ; notify_viper_avionics_of_dynamics_fault

; 669  : 			break;

  00082	eb 14		 jmp	 SHORT $LN1@notify_avi
$LN13@notify_avi:

; 670  : 		}
; 671  : 		////////////////////////////////////////
; 672  : 		case GUNSHIP_TYPE_KIOWA:
; 673  : 		////////////////////////////////////////
; 674  : 		{
; 675  : 			notify_kiowa_avionics_of_dynamics_fault (damage);

  00084	8b 45 08	 mov	 eax, DWORD PTR _damage$[ebp]
  00087	50		 push	 eax
  00088	e8 00 00 00 00	 call	 ?notify_kiowa_avionics_of_dynamics_fault@@YGXI@Z ; notify_kiowa_avionics_of_dynamics_fault

; 676  : 
; 677  : 			break;

  0008d	eb 09		 jmp	 SHORT $LN1@notify_avi
$LN14@notify_avi:

; 678  : 		}
; 679  : 		////////////////////////////////////////
; 680  : 
; 681  : 		////////////////////////////////////////
; 682  : 		// GCsDriver  08-12-2007
; 683  : 		default:
; 684  : 		////////////////////////////////////////
; 685  : 		{
; 686  : 			notify_default_avionics_of_dynamics_fault (damage);

  0008f	8b 45 08	 mov	 eax, DWORD PTR _damage$[ebp]
  00092	50		 push	 eax
  00093	e8 00 00 00 00	 call	 ?notify_default_avionics_of_dynamics_fault@@YGXI@Z ; notify_default_avionics_of_dynamics_fault
$LN1@notify_avi:

; 687  : 
; 688  : 			break;
; 689  : 		}
; 690  : 
; 691  : 	}
; 692  : }

  00098	5f		 pop	 edi
  00099	5e		 pop	 esi
  0009a	5b		 pop	 ebx
  0009b	8b e5		 mov	 esp, ebp
  0009d	5d		 pop	 ebp
  0009e	c2 04 00	 ret	 4
  000a1	0f 1f 00	 npad	 3
$LN16@notify_avi:
  000a4	00 00 00 00	 DD	 $LN4@notify_avi
  000a8	00 00 00 00	 DD	 $LN5@notify_avi
  000ac	00 00 00 00	 DD	 $LN6@notify_avi
  000b0	00 00 00 00	 DD	 $LN7@notify_avi
  000b4	00 00 00 00	 DD	 $LN8@notify_avi
  000b8	00 00 00 00	 DD	 $LN9@notify_avi
  000bc	00 00 00 00	 DD	 $LN10@notify_avi
  000c0	00 00 00 00	 DD	 $LN11@notify_avi
  000c4	00 00 00 00	 DD	 $LN12@notify_avi
  000c8	00 00 00 00	 DD	 $LN13@notify_avi
?notify_avionics_of_dynamics_fault@@YGXI@Z ENDP		; notify_avionics_of_dynamics_fault
_TEXT	ENDS
; Function compile flags: /Odtp /ZI
; File c:\users\nhv90\projects\eech\aphavoc\source\gunships\avionics\common\co_dam.c
;	COMDAT ?get_gunship_comms_equipment_ok@@YGHXZ
_TEXT	SEGMENT
tv140 = -72						; size = 4
tv136 = -72						; size = 4
tv132 = -72						; size = 4
tv128 = -72						; size = 4
tv92 = -72						; size = 4
tv88 = -72						; size = 4
tv84 = -72						; size = 4
tv80 = -72						; size = 4
tv76 = -72						; size = 4
tv72 = -72						; size = 4
tv68 = -72						; size = 4
tv64 = -72						; size = 4
_status$ = -4						; size = 4
?get_gunship_comms_equipment_ok@@YGHXZ PROC		; get_gunship_comms_equipment_ok, COMDAT

; 493  : {

  00000	55		 push	 ebp
  00001	8b ec		 mov	 ebp, esp
  00003	83 ec 48	 sub	 esp, 72			; 00000048H
  00006	53		 push	 ebx
  00007	56		 push	 esi
  00008	57		 push	 edi

; 494  : 	int
; 495  : 		status;
; 496  : 
; 497  : 	switch (get_global_gunship_type ())

  00009	a1 0c 00 00 00	 mov	 eax, DWORD PTR ?global_options@@3UGLOBAL_OPTIONS_DATA@@A+12
  0000e	89 45 b8	 mov	 DWORD PTR tv64[ebp], eax
  00011	83 7d b8 09	 cmp	 DWORD PTR tv64[ebp], 9
  00015	0f 87 91 01 00
	00		 ja	 $LN14@get_gunshi
  0001b	8b 4d b8	 mov	 ecx, DWORD PTR tv64[ebp]
  0001e	ff 24 8d 00 00
	00 00		 jmp	 DWORD PTR $LN38@get_gunshi[ecx*4]
$LN4@get_gunshi:

; 498  : 	{
; 499  : 		////////////////////////////////////////
; 500  : 		case GUNSHIP_TYPE_APACHE:
; 501  : 		////////////////////////////////////////
; 502  : 		{
; 503  : 			status = !apache_damage.communications;

  00025	a1 00 00 00 00	 mov	 eax, DWORD PTR ?apache_damage@@3TAPACHE_DAMAGE_FLAGS@@A ; apache_damage
  0002a	c1 e8 0c	 shr	 eax, 12			; 0000000cH
  0002d	83 e0 01	 and	 eax, 1
  00030	75 09		 jne	 SHORT $LN16@get_gunshi
  00032	c7 45 b8 01 00
	00 00		 mov	 DWORD PTR tv68[ebp], 1
  00039	eb 07		 jmp	 SHORT $LN17@get_gunshi
$LN16@get_gunshi:
  0003b	c7 45 b8 00 00
	00 00		 mov	 DWORD PTR tv68[ebp], 0
$LN17@get_gunshi:
  00042	8b 4d b8	 mov	 ecx, DWORD PTR tv68[ebp]
  00045	89 4d fc	 mov	 DWORD PTR _status$[ebp], ecx

; 504  : 
; 505  : 			break;

  00048	e9 82 01 00 00	 jmp	 $LN2@get_gunshi
$LN5@get_gunshi:

; 506  : 		}
; 507  : 		////////////////////////////////////////
; 508  : 		case GUNSHIP_TYPE_HAVOC:
; 509  : 		////////////////////////////////////////
; 510  : 		{
; 511  : 			status = !havoc_damage.communications;

  0004d	a1 00 00 00 00	 mov	 eax, DWORD PTR ?havoc_damage@@3THAVOC_DAMAGE_FLAGS@@A ; havoc_damage
  00052	c1 e8 0b	 shr	 eax, 11			; 0000000bH
  00055	83 e0 01	 and	 eax, 1
  00058	75 09		 jne	 SHORT $LN18@get_gunshi
  0005a	c7 45 b8 01 00
	00 00		 mov	 DWORD PTR tv72[ebp], 1
  00061	eb 07		 jmp	 SHORT $LN19@get_gunshi
$LN18@get_gunshi:
  00063	c7 45 b8 00 00
	00 00		 mov	 DWORD PTR tv72[ebp], 0
$LN19@get_gunshi:
  0006a	8b 4d b8	 mov	 ecx, DWORD PTR tv72[ebp]
  0006d	89 4d fc	 mov	 DWORD PTR _status$[ebp], ecx

; 512  : 
; 513  : 			break;

  00070	e9 5a 01 00 00	 jmp	 $LN2@get_gunshi
$LN6@get_gunshi:

; 514  : 		}
; 515  : 		////////////////////////////////////////
; 516  : 		case GUNSHIP_TYPE_COMANCHE:
; 517  : 		////////////////////////////////////////
; 518  : 		{
; 519  : 			status = !comanche_damage.communications;

  00075	a1 00 00 00 00	 mov	 eax, DWORD PTR ?comanche_damage@@3TCOMANCHE_DAMAGE_FLAGS@@A ; comanche_damage
  0007a	c1 e8 08	 shr	 eax, 8
  0007d	83 e0 01	 and	 eax, 1
  00080	75 09		 jne	 SHORT $LN20@get_gunshi
  00082	c7 45 b8 01 00
	00 00		 mov	 DWORD PTR tv76[ebp], 1
  00089	eb 07		 jmp	 SHORT $LN21@get_gunshi
$LN20@get_gunshi:
  0008b	c7 45 b8 00 00
	00 00		 mov	 DWORD PTR tv76[ebp], 0
$LN21@get_gunshi:
  00092	8b 4d b8	 mov	 ecx, DWORD PTR tv76[ebp]
  00095	89 4d fc	 mov	 DWORD PTR _status$[ebp], ecx

; 520  : 
; 521  : 			break;

  00098	e9 32 01 00 00	 jmp	 $LN2@get_gunshi
$LN7@get_gunshi:

; 522  : 		}
; 523  : 		////////////////////////////////////////
; 524  : 		case GUNSHIP_TYPE_HOKUM:
; 525  : 		////////////////////////////////////////
; 526  : 		{
; 527  : 			status = !hokum_damage.communications;

  0009d	a1 00 00 00 00	 mov	 eax, DWORD PTR ?hokum_damage@@3THOKUM_DAMAGE_FLAGS@@A ; hokum_damage
  000a2	c1 e8 0a	 shr	 eax, 10			; 0000000aH
  000a5	83 e0 01	 and	 eax, 1
  000a8	75 09		 jne	 SHORT $LN22@get_gunshi
  000aa	c7 45 b8 01 00
	00 00		 mov	 DWORD PTR tv80[ebp], 1
  000b1	eb 07		 jmp	 SHORT $LN23@get_gunshi
$LN22@get_gunshi:
  000b3	c7 45 b8 00 00
	00 00		 mov	 DWORD PTR tv80[ebp], 0
$LN23@get_gunshi:
  000ba	8b 4d b8	 mov	 ecx, DWORD PTR tv80[ebp]
  000bd	89 4d fc	 mov	 DWORD PTR _status$[ebp], ecx

; 528  : 
; 529  : 			break;

  000c0	e9 0a 01 00 00	 jmp	 $LN2@get_gunshi
$LN8@get_gunshi:

; 530  : 		}
; 531  : 		////Moje 030817 start
; 532  : 		////////////////////////////////////////
; 533  : 		case GUNSHIP_TYPE_BLACKHAWK:
; 534  : 		////////////////////////////////////////
; 535  : 		{
; 536  : 			status = !blackhawk_damage.communications;

  000c5	a1 00 00 00 00	 mov	 eax, DWORD PTR ?blackhawk_damage@@3TBLACKHAWK_DAMAGE_FLAGS@@A ; blackhawk_damage
  000ca	c1 e8 0c	 shr	 eax, 12			; 0000000cH
  000cd	83 e0 01	 and	 eax, 1
  000d0	75 09		 jne	 SHORT $LN24@get_gunshi
  000d2	c7 45 b8 01 00
	00 00		 mov	 DWORD PTR tv84[ebp], 1
  000d9	eb 07		 jmp	 SHORT $LN25@get_gunshi
$LN24@get_gunshi:
  000db	c7 45 b8 00 00
	00 00		 mov	 DWORD PTR tv84[ebp], 0
$LN25@get_gunshi:
  000e2	8b 4d b8	 mov	 ecx, DWORD PTR tv84[ebp]
  000e5	89 4d fc	 mov	 DWORD PTR _status$[ebp], ecx

; 537  : 
; 538  : 			break;

  000e8	e9 e2 00 00 00	 jmp	 $LN2@get_gunshi
$LN9@get_gunshi:

; 539  : 		}
; 540  : 		////////////////////////////////////////
; 541  : 		case GUNSHIP_TYPE_HIND:
; 542  : 		////////////////////////////////////////
; 543  : 		{
; 544  : 			status = !hind_damage.communications;

  000ed	a1 00 00 00 00	 mov	 eax, DWORD PTR ?hind_damage@@3THIND_DAMAGE_FLAGS@@A ; hind_damage
  000f2	c1 e8 0b	 shr	 eax, 11			; 0000000bH
  000f5	83 e0 01	 and	 eax, 1
  000f8	75 09		 jne	 SHORT $LN26@get_gunshi
  000fa	c7 45 b8 01 00
	00 00		 mov	 DWORD PTR tv88[ebp], 1
  00101	eb 07		 jmp	 SHORT $LN27@get_gunshi
$LN26@get_gunshi:
  00103	c7 45 b8 00 00
	00 00		 mov	 DWORD PTR tv88[ebp], 0
$LN27@get_gunshi:
  0010a	8b 4d b8	 mov	 ecx, DWORD PTR tv88[ebp]
  0010d	89 4d fc	 mov	 DWORD PTR _status$[ebp], ecx

; 545  : 
; 546  : 			break;

  00110	e9 ba 00 00 00	 jmp	 $LN2@get_gunshi
$LN10@get_gunshi:

; 547  : 		}
; 548  : 		////////////////////////////////////////
; 549  : 		case GUNSHIP_TYPE_AH64A:
; 550  : 		////////////////////////////////////////
; 551  : 		{
; 552  : 			status = !ah64a_damage.communications;

  00115	a1 00 00 00 00	 mov	 eax, DWORD PTR ?ah64a_damage@@3TAH64A_DAMAGE_FLAGS@@A ; ah64a_damage
  0011a	c1 e8 0c	 shr	 eax, 12			; 0000000cH
  0011d	83 e0 01	 and	 eax, 1
  00120	75 09		 jne	 SHORT $LN28@get_gunshi
  00122	c7 45 b8 01 00
	00 00		 mov	 DWORD PTR tv92[ebp], 1
  00129	eb 07		 jmp	 SHORT $LN29@get_gunshi
$LN28@get_gunshi:
  0012b	c7 45 b8 00 00
	00 00		 mov	 DWORD PTR tv92[ebp], 0
$LN29@get_gunshi:
  00132	8b 4d b8	 mov	 ecx, DWORD PTR tv92[ebp]
  00135	89 4d fc	 mov	 DWORD PTR _status$[ebp], ecx

; 553  : 			break;

  00138	e9 92 00 00 00	 jmp	 $LN2@get_gunshi
$LN11@get_gunshi:

; 554  : 		}
; 555  : 		////////////////////////////////////////
; 556  : 		case GUNSHIP_TYPE_KA50:
; 557  : 		////////////////////////////////////////
; 558  : 		{
; 559  : 			status = !ka50_damage.communications;

  0013d	a1 00 00 00 00	 mov	 eax, DWORD PTR ?ka50_damage@@3TKA50_DAMAGE_FLAGS@@A ; ka50_damage
  00142	c1 e8 05	 shr	 eax, 5
  00145	83 e0 01	 and	 eax, 1
  00148	75 09		 jne	 SHORT $LN30@get_gunshi
  0014a	c7 45 b8 01 00
	00 00		 mov	 DWORD PTR tv128[ebp], 1
  00151	eb 07		 jmp	 SHORT $LN31@get_gunshi
$LN30@get_gunshi:
  00153	c7 45 b8 00 00
	00 00		 mov	 DWORD PTR tv128[ebp], 0
$LN31@get_gunshi:
  0015a	8b 4d b8	 mov	 ecx, DWORD PTR tv128[ebp]
  0015d	89 4d fc	 mov	 DWORD PTR _status$[ebp], ecx

; 560  : 			break;

  00160	eb 6d		 jmp	 SHORT $LN2@get_gunshi
$LN12@get_gunshi:

; 561  : 		}
; 562  : 		////Moje 030817 end
; 563  : 		////////////////////////////////////////
; 564  : 		case GUNSHIP_TYPE_VIPER:
; 565  : 		////////////////////////////////////////
; 566  : 		{
; 567  : 			status = !viper_damage.communications;

  00162	a1 00 00 00 00	 mov	 eax, DWORD PTR ?viper_damage@@3TVIPER_DAMAGE_FLAGS@@A ; viper_damage
  00167	c1 e8 06	 shr	 eax, 6
  0016a	83 e0 01	 and	 eax, 1
  0016d	75 09		 jne	 SHORT $LN32@get_gunshi
  0016f	c7 45 b8 01 00
	00 00		 mov	 DWORD PTR tv132[ebp], 1
  00176	eb 07		 jmp	 SHORT $LN33@get_gunshi
$LN32@get_gunshi:
  00178	c7 45 b8 00 00
	00 00		 mov	 DWORD PTR tv132[ebp], 0
$LN33@get_gunshi:
  0017f	8b 4d b8	 mov	 ecx, DWORD PTR tv132[ebp]
  00182	89 4d fc	 mov	 DWORD PTR _status$[ebp], ecx

; 568  : 			break;

  00185	eb 48		 jmp	 SHORT $LN2@get_gunshi
$LN13@get_gunshi:

; 569  : 		}
; 570  : 		////////////////////////////////////////
; 571  : 		case GUNSHIP_TYPE_KIOWA:
; 572  : 		////////////////////////////////////////
; 573  : 		{
; 574  : 			status = !kiowa_damage.communications;

  00187	a1 00 00 00 00	 mov	 eax, DWORD PTR ?kiowa_damage@@3TKIOWA_DAMAGE_FLAGS@@A ; kiowa_damage
  0018c	c1 e8 05	 shr	 eax, 5
  0018f	83 e0 01	 and	 eax, 1
  00192	75 09		 jne	 SHORT $LN34@get_gunshi
  00194	c7 45 b8 01 00
	00 00		 mov	 DWORD PTR tv136[ebp], 1
  0019b	eb 07		 jmp	 SHORT $LN35@get_gunshi
$LN34@get_gunshi:
  0019d	c7 45 b8 00 00
	00 00		 mov	 DWORD PTR tv136[ebp], 0
$LN35@get_gunshi:
  001a4	8b 4d b8	 mov	 ecx, DWORD PTR tv136[ebp]
  001a7	89 4d fc	 mov	 DWORD PTR _status$[ebp], ecx

; 575  : 
; 576  : 			break;

  001aa	eb 23		 jmp	 SHORT $LN2@get_gunshi
$LN14@get_gunshi:

; 577  : 		}
; 578  : 		////////////////////////////////////////
; 579  : 		// GCsDriver  08-12-2007
; 580  : 		default:
; 581  : 		////////////////////////////////////////
; 582  : 		{
; 583  : 			//status = FALSE;
; 584  : 			status = !default_damage.communications;

  001ac	a1 00 00 00 00	 mov	 eax, DWORD PTR ?default_damage@@3TDEFAULT_DAMAGE_FLAGS@@A ; default_damage
  001b1	c1 e8 0c	 shr	 eax, 12			; 0000000cH
  001b4	83 e0 01	 and	 eax, 1
  001b7	75 09		 jne	 SHORT $LN36@get_gunshi
  001b9	c7 45 b8 01 00
	00 00		 mov	 DWORD PTR tv140[ebp], 1
  001c0	eb 07		 jmp	 SHORT $LN37@get_gunshi
$LN36@get_gunshi:
  001c2	c7 45 b8 00 00
	00 00		 mov	 DWORD PTR tv140[ebp], 0
$LN37@get_gunshi:
  001c9	8b 4d b8	 mov	 ecx, DWORD PTR tv140[ebp]
  001cc	89 4d fc	 mov	 DWORD PTR _status$[ebp], ecx
$LN2@get_gunshi:

; 585  : 
; 586  : 			break;
; 587  : 		}
; 588  : 	}
; 589  : 
; 590  : 	return (status);

  001cf	8b 45 fc	 mov	 eax, DWORD PTR _status$[ebp]

; 591  : }

  001d2	5f		 pop	 edi
  001d3	5e		 pop	 esi
  001d4	5b		 pop	 ebx
  001d5	8b e5		 mov	 esp, ebp
  001d7	5d		 pop	 ebp
  001d8	c3		 ret	 0
  001d9	0f 1f 00	 npad	 3
$LN38@get_gunshi:
  001dc	00 00 00 00	 DD	 $LN4@get_gunshi
  001e0	00 00 00 00	 DD	 $LN5@get_gunshi
  001e4	00 00 00 00	 DD	 $LN6@get_gunshi
  001e8	00 00 00 00	 DD	 $LN7@get_gunshi
  001ec	00 00 00 00	 DD	 $LN8@get_gunshi
  001f0	00 00 00 00	 DD	 $LN9@get_gunshi
  001f4	00 00 00 00	 DD	 $LN10@get_gunshi
  001f8	00 00 00 00	 DD	 $LN11@get_gunshi
  001fc	00 00 00 00	 DD	 $LN12@get_gunshi
  00200	00 00 00 00	 DD	 $LN13@get_gunshi
?get_gunship_comms_equipment_ok@@YGHXZ ENDP		; get_gunship_comms_equipment_ok
_TEXT	ENDS
; Function compile flags: /Odtp /ZI
; File c:\users\nhv90\projects\eech\aphavoc\source\gunships\avionics\common\co_dam.c
;	COMDAT ?damage_gunship@@YGXW4GUNSHIP_DAMAGE_LEVELS@@@Z
_TEXT	SEGMENT
tv64 = -68						; size = 4
_damage_level$ = 8					; size = 4
?damage_gunship@@YGXW4GUNSHIP_DAMAGE_LEVELS@@@Z PROC	; damage_gunship, COMDAT

; 392  : {

  00000	55		 push	 ebp
  00001	8b ec		 mov	 ebp, esp
  00003	83 ec 44	 sub	 esp, 68			; 00000044H
  00006	53		 push	 ebx
  00007	56		 push	 esi
  00008	57		 push	 edi

; 393  : 	switch (get_global_gunship_type ())

  00009	a1 0c 00 00 00	 mov	 eax, DWORD PTR ?global_options@@3UGLOBAL_OPTIONS_DATA@@A+12
  0000e	89 45 bc	 mov	 DWORD PTR tv64[ebp], eax
  00011	83 7d bc 09	 cmp	 DWORD PTR tv64[ebp], 9
  00015	77 78		 ja	 SHORT $LN14@damage_gun
  00017	8b 4d bc	 mov	 ecx, DWORD PTR tv64[ebp]
  0001a	ff 24 8d 00 00
	00 00		 jmp	 DWORD PTR $LN16@damage_gun[ecx*4]
$LN4@damage_gun:

; 394  : 	{
; 395  : 		////////////////////////////////////////
; 396  : 		// JB 030313 Fly any aircraft
; 397  : //		default:
; 398  : 		case GUNSHIP_TYPE_APACHE:
; 399  : 		////////////////////////////////////////
; 400  : 		{
; 401  : 			damage_apache (damage_level);

  00021	8b 45 08	 mov	 eax, DWORD PTR _damage_level$[ebp]
  00024	50		 push	 eax
  00025	e8 00 00 00 00	 call	 ?damage_apache@@YGXW4GUNSHIP_DAMAGE_LEVELS@@@Z ; damage_apache

; 402  : 
; 403  : 			break;

  0002a	eb 6c		 jmp	 SHORT $LN1@damage_gun
$LN5@damage_gun:

; 404  : 		}
; 405  : 		////////////////////////////////////////
; 406  : 		case GUNSHIP_TYPE_HAVOC:
; 407  : 		////////////////////////////////////////
; 408  : 		{
; 409  : 			damage_havoc (damage_level);

  0002c	8b 45 08	 mov	 eax, DWORD PTR _damage_level$[ebp]
  0002f	50		 push	 eax
  00030	e8 00 00 00 00	 call	 ?damage_havoc@@YGXW4GUNSHIP_DAMAGE_LEVELS@@@Z ; damage_havoc

; 410  : 
; 411  : 			break;

  00035	eb 61		 jmp	 SHORT $LN1@damage_gun
$LN6@damage_gun:

; 412  : 		}
; 413  : 		////////////////////////////////////////
; 414  : 		case GUNSHIP_TYPE_COMANCHE:
; 415  : 		////////////////////////////////////////
; 416  : 		{
; 417  : 			damage_comanche (damage_level);

  00037	8b 45 08	 mov	 eax, DWORD PTR _damage_level$[ebp]
  0003a	50		 push	 eax
  0003b	e8 00 00 00 00	 call	 ?damage_comanche@@YGXW4GUNSHIP_DAMAGE_LEVELS@@@Z ; damage_comanche

; 418  : 
; 419  : 			break;

  00040	eb 56		 jmp	 SHORT $LN1@damage_gun
$LN7@damage_gun:

; 420  : 		}
; 421  : 		////////////////////////////////////////
; 422  : 		case GUNSHIP_TYPE_HOKUM:
; 423  : 		////////////////////////////////////////
; 424  : 		{
; 425  : 			damage_hokum (damage_level);

  00042	8b 45 08	 mov	 eax, DWORD PTR _damage_level$[ebp]
  00045	50		 push	 eax
  00046	e8 00 00 00 00	 call	 ?damage_hokum@@YGXW4GUNSHIP_DAMAGE_LEVELS@@@Z ; damage_hokum

; 426  : 
; 427  : 			break;

  0004b	eb 4b		 jmp	 SHORT $LN1@damage_gun
$LN8@damage_gun:

; 428  : 		}
; 429  : 		////Moje 030817 start
; 430  : 		case GUNSHIP_TYPE_BLACKHAWK:
; 431  : 		////////////////////////////////////////
; 432  : 		{
; 433  : 			damage_blackhawk (damage_level);

  0004d	8b 45 08	 mov	 eax, DWORD PTR _damage_level$[ebp]
  00050	50		 push	 eax
  00051	e8 00 00 00 00	 call	 ?damage_blackhawk@@YGXW4GUNSHIP_DAMAGE_LEVELS@@@Z ; damage_blackhawk

; 434  : 
; 435  : 			break;

  00056	eb 40		 jmp	 SHORT $LN1@damage_gun
$LN9@damage_gun:

; 436  : 		}
; 437  : 		case GUNSHIP_TYPE_HIND:
; 438  : 		////////////////////////////////////////
; 439  : 		{
; 440  : 			damage_hind (damage_level);

  00058	8b 45 08	 mov	 eax, DWORD PTR _damage_level$[ebp]
  0005b	50		 push	 eax
  0005c	e8 00 00 00 00	 call	 ?damage_hind@@YGXW4GUNSHIP_DAMAGE_LEVELS@@@Z ; damage_hind

; 441  : 
; 442  : 			break;

  00061	eb 35		 jmp	 SHORT $LN1@damage_gun
$LN10@damage_gun:

; 443  : 		}
; 444  : 
; 445  : 		case GUNSHIP_TYPE_AH64A:
; 446  : 		////////////////////////////////////////
; 447  : 		{
; 448  : 			damage_ah64a (damage_level);

  00063	8b 45 08	 mov	 eax, DWORD PTR _damage_level$[ebp]
  00066	50		 push	 eax
  00067	e8 00 00 00 00	 call	 ?damage_ah64a@@YGXW4GUNSHIP_DAMAGE_LEVELS@@@Z ; damage_ah64a

; 449  : 			break;

  0006c	eb 2a		 jmp	 SHORT $LN1@damage_gun
$LN11@damage_gun:

; 450  : 		}
; 451  : 		////////////////////////////////////////
; 452  : 		case GUNSHIP_TYPE_KA50:
; 453  : 		////////////////////////////////////////
; 454  : 		{
; 455  : 			damage_ka50 (damage_level);

  0006e	8b 45 08	 mov	 eax, DWORD PTR _damage_level$[ebp]
  00071	50		 push	 eax
  00072	e8 00 00 00 00	 call	 ?damage_ka50@@YGXW4GUNSHIP_DAMAGE_LEVELS@@@Z ; damage_ka50

; 456  : 			break;

  00077	eb 1f		 jmp	 SHORT $LN1@damage_gun
$LN12@damage_gun:

; 457  : 		}
; 458  : 		////Moje 030817 end
; 459  : 		////////////////////////////////////////
; 460  : 		case GUNSHIP_TYPE_VIPER:
; 461  : 		////////////////////////////////////////
; 462  : 		{
; 463  : 			damage_viper (damage_level);

  00079	8b 45 08	 mov	 eax, DWORD PTR _damage_level$[ebp]
  0007c	50		 push	 eax
  0007d	e8 00 00 00 00	 call	 ?damage_viper@@YGXW4GUNSHIP_DAMAGE_LEVELS@@@Z ; damage_viper

; 464  : 			break;

  00082	eb 14		 jmp	 SHORT $LN1@damage_gun
$LN13@damage_gun:

; 465  : 		}
; 466  : 		////////////////////////////////////////
; 467  : 		case GUNSHIP_TYPE_KIOWA:
; 468  : 		////////////////////////////////////////
; 469  : 		{
; 470  : 			damage_kiowa (damage_level);

  00084	8b 45 08	 mov	 eax, DWORD PTR _damage_level$[ebp]
  00087	50		 push	 eax
  00088	e8 00 00 00 00	 call	 ?damage_kiowa@@YGXW4GUNSHIP_DAMAGE_LEVELS@@@Z ; damage_kiowa

; 471  : 
; 472  : 			break;

  0008d	eb 09		 jmp	 SHORT $LN1@damage_gun
$LN14@damage_gun:

; 473  : 		}
; 474  : 
; 475  : 		////////////////////////////////////////
; 476  : 		// GCsDriver  08-12-2007
; 477  : 		default:
; 478  : 		////////////////////////////////////////
; 479  : 		{
; 480  : 			damage_default (damage_level);

  0008f	8b 45 08	 mov	 eax, DWORD PTR _damage_level$[ebp]
  00092	50		 push	 eax
  00093	e8 00 00 00 00	 call	 ?damage_default@@YGXW4GUNSHIP_DAMAGE_LEVELS@@@Z ; damage_default
$LN1@damage_gun:

; 481  : 
; 482  : 			break;
; 483  : 		}
; 484  : 
; 485  : 	}
; 486  : }

  00098	5f		 pop	 edi
  00099	5e		 pop	 esi
  0009a	5b		 pop	 ebx
  0009b	8b e5		 mov	 esp, ebp
  0009d	5d		 pop	 ebp
  0009e	c2 04 00	 ret	 4
  000a1	0f 1f 00	 npad	 3
$LN16@damage_gun:
  000a4	00 00 00 00	 DD	 $LN4@damage_gun
  000a8	00 00 00 00	 DD	 $LN5@damage_gun
  000ac	00 00 00 00	 DD	 $LN6@damage_gun
  000b0	00 00 00 00	 DD	 $LN7@damage_gun
  000b4	00 00 00 00	 DD	 $LN8@damage_gun
  000b8	00 00 00 00	 DD	 $LN9@damage_gun
  000bc	00 00 00 00	 DD	 $LN10@damage_gun
  000c0	00 00 00 00	 DD	 $LN11@damage_gun
  000c4	00 00 00 00	 DD	 $LN12@damage_gun
  000c8	00 00 00 00	 DD	 $LN13@damage_gun
?damage_gunship@@YGXW4GUNSHIP_DAMAGE_LEVELS@@@Z ENDP	; damage_gunship
_TEXT	ENDS
; Function compile flags: /Odtp /ZI
; File c:\users\nhv90\projects\eech\aphavoc\source\gunships\avionics\common\co_dam.c
;	COMDAT ?repair_gunship_weapon_damage@@YGXXZ
_TEXT	SEGMENT
tv64 = -68						; size = 4
?repair_gunship_weapon_damage@@YGXXZ PROC		; repair_gunship_weapon_damage, COMDAT

; 292  : {

  00000	55		 push	 ebp
  00001	8b ec		 mov	 ebp, esp
  00003	83 ec 44	 sub	 esp, 68			; 00000044H
  00006	53		 push	 ebx
  00007	56		 push	 esi
  00008	57		 push	 edi

; 293  : 	switch (get_global_gunship_type ())

  00009	a1 0c 00 00 00	 mov	 eax, DWORD PTR ?global_options@@3UGLOBAL_OPTIONS_DATA@@A+12
  0000e	89 45 bc	 mov	 DWORD PTR tv64[ebp], eax
  00011	83 7d bc 09	 cmp	 DWORD PTR tv64[ebp], 9
  00015	77 50		 ja	 SHORT $LN14@repair_gun
  00017	8b 4d bc	 mov	 ecx, DWORD PTR tv64[ebp]
  0001a	ff 24 8d 00 00
	00 00		 jmp	 DWORD PTR $LN16@repair_gun[ecx*4]
$LN4@repair_gun:

; 294  : 	{
; 295  : 		////////////////////////////////////////
; 296  : 		// JB 030313 Fly any aircraft
; 297  : //		default:
; 298  : 		case GUNSHIP_TYPE_APACHE:
; 299  : 		////////////////////////////////////////
; 300  : 		{
; 301  : 			repair_apache_weapon_damage ();

  00021	e8 00 00 00 00	 call	 ?repair_apache_weapon_damage@@YGXXZ ; repair_apache_weapon_damage

; 302  : 
; 303  : 			break;

  00026	eb 44		 jmp	 SHORT $LN1@repair_gun
$LN5@repair_gun:

; 304  : 		}
; 305  : 		////////////////////////////////////////
; 306  : 		case GUNSHIP_TYPE_HAVOC:
; 307  : 		////////////////////////////////////////
; 308  : 		{
; 309  : 			repair_havoc_weapon_damage ();

  00028	e8 00 00 00 00	 call	 ?repair_havoc_weapon_damage@@YGXXZ ; repair_havoc_weapon_damage

; 310  : 
; 311  : 			break;

  0002d	eb 3d		 jmp	 SHORT $LN1@repair_gun
$LN6@repair_gun:

; 312  : 		}
; 313  : 		////////////////////////////////////////
; 314  : 		case GUNSHIP_TYPE_COMANCHE:
; 315  : 		////////////////////////////////////////
; 316  : 		{
; 317  : 			repair_comanche_weapon_damage ();

  0002f	e8 00 00 00 00	 call	 ?repair_comanche_weapon_damage@@YGXXZ ; repair_comanche_weapon_damage

; 318  : 
; 319  : 			break;

  00034	eb 36		 jmp	 SHORT $LN1@repair_gun
$LN7@repair_gun:

; 320  : 		}
; 321  : 		////////////////////////////////////////
; 322  : 		case GUNSHIP_TYPE_HOKUM:
; 323  : 		////////////////////////////////////////
; 324  : 		{
; 325  : 			repair_hokum_weapon_damage ();

  00036	e8 00 00 00 00	 call	 ?repair_hokum_weapon_damage@@YGXXZ ; repair_hokum_weapon_damage

; 326  : 
; 327  : 			break;

  0003b	eb 2f		 jmp	 SHORT $LN1@repair_gun
$LN8@repair_gun:

; 328  : 		}
; 329  : 		////Moje 030817 start
; 330  : 		case GUNSHIP_TYPE_BLACKHAWK:
; 331  : 		////////////////////////////////////////
; 332  : 		{
; 333  : 			repair_blackhawk_weapon_damage ();

  0003d	e8 00 00 00 00	 call	 ?repair_blackhawk_weapon_damage@@YGXXZ ; repair_blackhawk_weapon_damage

; 334  : 
; 335  : 			break;

  00042	eb 28		 jmp	 SHORT $LN1@repair_gun
$LN9@repair_gun:

; 336  : 		}
; 337  : 		case GUNSHIP_TYPE_HIND:
; 338  : 		////////////////////////////////////////
; 339  : 		{
; 340  : 			repair_hind_weapon_damage ();

  00044	e8 00 00 00 00	 call	 ?repair_hind_weapon_damage@@YGXXZ ; repair_hind_weapon_damage

; 341  : 
; 342  : 			break;

  00049	eb 21		 jmp	 SHORT $LN1@repair_gun
$LN10@repair_gun:

; 343  : 		}
; 344  : 		case GUNSHIP_TYPE_AH64A:
; 345  : 		////////////////////////////////////////
; 346  : 		{
; 347  : 			repair_ah64a_weapon_damage ();

  0004b	e8 00 00 00 00	 call	 ?repair_ah64a_weapon_damage@@YGXXZ ; repair_ah64a_weapon_damage

; 348  : 			break;

  00050	eb 1a		 jmp	 SHORT $LN1@repair_gun
$LN11@repair_gun:

; 349  : 		}
; 350  : 		////////////////////////////////////////
; 351  : 		case GUNSHIP_TYPE_KA50:
; 352  : 		////////////////////////////////////////
; 353  : 		{
; 354  : 			repair_ka50_weapon_damage ();

  00052	e8 00 00 00 00	 call	 ?repair_ka50_weapon_damage@@YGXXZ ; repair_ka50_weapon_damage

; 355  : 			break;

  00057	eb 13		 jmp	 SHORT $LN1@repair_gun
$LN12@repair_gun:

; 356  : 		}
; 357  : 		////Moje 030817 end
; 358  : 		case GUNSHIP_TYPE_VIPER:
; 359  : 		////////////////////////////////////////
; 360  : 		{
; 361  : 			repair_viper_weapon_damage ();

  00059	e8 00 00 00 00	 call	 ?repair_viper_weapon_damage@@YGXXZ ; repair_viper_weapon_damage

; 362  : 			break;

  0005e	eb 0c		 jmp	 SHORT $LN1@repair_gun
$LN13@repair_gun:

; 363  : 		}
; 364  : 		////////////////////////////////////////
; 365  : 		case GUNSHIP_TYPE_KIOWA:
; 366  : 		////////////////////////////////////////
; 367  : 		{
; 368  : 			repair_kiowa_weapon_damage ();

  00060	e8 00 00 00 00	 call	 ?repair_kiowa_weapon_damage@@YGXXZ ; repair_kiowa_weapon_damage

; 369  : 
; 370  : 			break;

  00065	eb 05		 jmp	 SHORT $LN1@repair_gun
$LN14@repair_gun:

; 371  : 		}
; 372  : 		////////////////////////////////////////
; 373  : 
; 374  : 		////////////////////////////////////////
; 375  : 		// GCsDriver  08-12-2007
; 376  : 		default:
; 377  : 		////////////////////////////////////////
; 378  : 		{
; 379  : 			repair_default_weapon_damage ();

  00067	e8 00 00 00 00	 call	 ?repair_default_weapon_damage@@YGXXZ ; repair_default_weapon_damage
$LN1@repair_gun:

; 380  : 
; 381  : 			break;
; 382  : 		}
; 383  : 
; 384  : 	}
; 385  : }

  0006c	5f		 pop	 edi
  0006d	5e		 pop	 esi
  0006e	5b		 pop	 ebx
  0006f	8b e5		 mov	 esp, ebp
  00071	5d		 pop	 ebp
  00072	c3		 ret	 0
  00073	90		 npad	 1
$LN16@repair_gun:
  00074	00 00 00 00	 DD	 $LN4@repair_gun
  00078	00 00 00 00	 DD	 $LN5@repair_gun
  0007c	00 00 00 00	 DD	 $LN6@repair_gun
  00080	00 00 00 00	 DD	 $LN7@repair_gun
  00084	00 00 00 00	 DD	 $LN8@repair_gun
  00088	00 00 00 00	 DD	 $LN9@repair_gun
  0008c	00 00 00 00	 DD	 $LN10@repair_gun
  00090	00 00 00 00	 DD	 $LN11@repair_gun
  00094	00 00 00 00	 DD	 $LN12@repair_gun
  00098	00 00 00 00	 DD	 $LN13@repair_gun
?repair_gunship_weapon_damage@@YGXXZ ENDP		; repair_gunship_weapon_damage
_TEXT	ENDS
; Function compile flags: /Odtp /ZI
; File c:\users\nhv90\projects\eech\aphavoc\source\gunships\avionics\common\co_dam.c
;	COMDAT ?partially_repair_gunship_damage@@YGXXZ
_TEXT	SEGMENT
tv64 = -68						; size = 4
?partially_repair_gunship_damage@@YGXXZ PROC		; partially_repair_gunship_damage, COMDAT

; 189  : {

  00000	55		 push	 ebp
  00001	8b ec		 mov	 ebp, esp
  00003	83 ec 44	 sub	 esp, 68			; 00000044H
  00006	53		 push	 ebx
  00007	56		 push	 esi
  00008	57		 push	 edi

; 190  : 	switch (get_global_gunship_type ())

  00009	a1 0c 00 00 00	 mov	 eax, DWORD PTR ?global_options@@3UGLOBAL_OPTIONS_DATA@@A+12
  0000e	89 45 bc	 mov	 DWORD PTR tv64[ebp], eax
  00011	83 7d bc 09	 cmp	 DWORD PTR tv64[ebp], 9
  00015	77 50		 ja	 SHORT $LN14@partially_
  00017	8b 4d bc	 mov	 ecx, DWORD PTR tv64[ebp]
  0001a	ff 24 8d 00 00
	00 00		 jmp	 DWORD PTR $LN16@partially_[ecx*4]
$LN4@partially_:

; 191  : 	{
; 192  : 		////////////////////////////////////////
; 193  : 		// JB 030313 Fly any aircraft
; 194  : //		default:
; 195  : 		case GUNSHIP_TYPE_APACHE:
; 196  : 		////////////////////////////////////////
; 197  : 		{
; 198  : 			partially_repair_apache_damage ();

  00021	e8 00 00 00 00	 call	 ?partially_repair_apache_damage@@YGXXZ ; partially_repair_apache_damage

; 199  : 
; 200  : 			break;

  00026	eb 44		 jmp	 SHORT $LN1@partially_
$LN5@partially_:

; 201  : 		}
; 202  : 		////////////////////////////////////////
; 203  : 		case GUNSHIP_TYPE_HAVOC:
; 204  : 		////////////////////////////////////////
; 205  : 		{
; 206  : 			partially_repair_havoc_damage ();

  00028	e8 00 00 00 00	 call	 ?partially_repair_havoc_damage@@YGXXZ ; partially_repair_havoc_damage

; 207  : 
; 208  : 			break;

  0002d	eb 3d		 jmp	 SHORT $LN1@partially_
$LN6@partially_:

; 209  : 		}
; 210  : 		////////////////////////////////////////
; 211  : 		case GUNSHIP_TYPE_COMANCHE:
; 212  : 		////////////////////////////////////////
; 213  : 		{
; 214  : 			partially_repair_comanche_damage ();

  0002f	e8 00 00 00 00	 call	 ?partially_repair_comanche_damage@@YGXXZ ; partially_repair_comanche_damage

; 215  : 
; 216  : 			break;

  00034	eb 36		 jmp	 SHORT $LN1@partially_
$LN7@partially_:

; 217  : 		}
; 218  : 		////////////////////////////////////////
; 219  : 		case GUNSHIP_TYPE_HOKUM:
; 220  : 		////////////////////////////////////////
; 221  : 		{
; 222  : 			partially_repair_hokum_damage ();

  00036	e8 00 00 00 00	 call	 ?partially_repair_hokum_damage@@YGXXZ ; partially_repair_hokum_damage

; 223  : 
; 224  : 			break;

  0003b	eb 2f		 jmp	 SHORT $LN1@partially_
$LN8@partially_:

; 225  : 		}
; 226  : 		////Moje 030817 Start
; 227  : 		case GUNSHIP_TYPE_BLACKHAWK:
; 228  : 		////////////////////////////////////////
; 229  : 		{
; 230  : 			partially_repair_blackhawk_damage ();

  0003d	e8 00 00 00 00	 call	 ?partially_repair_blackhawk_damage@@YGXXZ ; partially_repair_blackhawk_damage

; 231  : 
; 232  : 			break;

  00042	eb 28		 jmp	 SHORT $LN1@partially_
$LN9@partially_:

; 233  : 		}
; 234  : 		////////////////////////////////////////
; 235  : 		case GUNSHIP_TYPE_HIND:
; 236  : 		////////////////////////////////////////
; 237  : 		{
; 238  : 			partially_repair_hind_damage ();

  00044	e8 00 00 00 00	 call	 ?partially_repair_hind_damage@@YGXXZ ; partially_repair_hind_damage

; 239  : 
; 240  : 			break;

  00049	eb 21		 jmp	 SHORT $LN1@partially_
$LN10@partially_:

; 241  : 		}
; 242  : 		////////////////////////////////////////
; 243  : 		case GUNSHIP_TYPE_AH64A:
; 244  : 		////////////////////////////////////////
; 245  : 		{
; 246  : 			partially_repair_ah64a_damage ();

  0004b	e8 00 00 00 00	 call	 ?partially_repair_ah64a_damage@@YGXXZ ; partially_repair_ah64a_damage

; 247  : 			break;

  00050	eb 1a		 jmp	 SHORT $LN1@partially_
$LN11@partially_:

; 248  : 		}
; 249  : 		////////////////////////////////////////
; 250  : 		case GUNSHIP_TYPE_KA50:
; 251  : 		////////////////////////////////////////
; 252  : 		{
; 253  : 			partially_repair_ka50_damage ();

  00052	e8 00 00 00 00	 call	 ?partially_repair_ka50_damage@@YGXXZ ; partially_repair_ka50_damage

; 254  : 			break;

  00057	eb 13		 jmp	 SHORT $LN1@partially_
$LN12@partially_:

; 255  : 		}
; 256  : 		////////////////////////////////////////
; 257  : 		////Moje 020817 End
; 258  : 		////////////////////////////////////////
; 259  : 		case GUNSHIP_TYPE_VIPER:
; 260  : 		////////////////////////////////////////
; 261  : 		{
; 262  : 			partially_repair_viper_damage ();

  00059	e8 00 00 00 00	 call	 ?partially_repair_viper_damage@@YGXXZ ; partially_repair_viper_damage

; 263  : 
; 264  : 			break;

  0005e	eb 0c		 jmp	 SHORT $LN1@partially_
$LN13@partially_:

; 265  : 		}
; 266  : 		////////////////////////////////////////
; 267  : 		case GUNSHIP_TYPE_KIOWA:
; 268  : 		////////////////////////////////////////
; 269  : 		{
; 270  : 			partially_repair_kiowa_damage ();

  00060	e8 00 00 00 00	 call	 ?partially_repair_kiowa_damage@@YGXXZ ; partially_repair_kiowa_damage

; 271  : 
; 272  : 			break;

  00065	eb 05		 jmp	 SHORT $LN1@partially_
$LN14@partially_:

; 273  : 		}
; 274  : 
; 275  : 		////////////////////////////////////////
; 276  : 		// GCsDriver  08-12-2007
; 277  : 		default:
; 278  : 		////////////////////////////////////////
; 279  : 		{
; 280  : 			partially_repair_default_damage ();

  00067	e8 00 00 00 00	 call	 ?partially_repair_default_damage@@YGXXZ ; partially_repair_default_damage
$LN1@partially_:

; 281  : 
; 282  : 			break;
; 283  : 		}
; 284  : 	}
; 285  : }

  0006c	5f		 pop	 edi
  0006d	5e		 pop	 esi
  0006e	5b		 pop	 ebx
  0006f	8b e5		 mov	 esp, ebp
  00071	5d		 pop	 ebp
  00072	c3		 ret	 0
  00073	90		 npad	 1
$LN16@partially_:
  00074	00 00 00 00	 DD	 $LN4@partially_
  00078	00 00 00 00	 DD	 $LN5@partially_
  0007c	00 00 00 00	 DD	 $LN6@partially_
  00080	00 00 00 00	 DD	 $LN7@partially_
  00084	00 00 00 00	 DD	 $LN8@partially_
  00088	00 00 00 00	 DD	 $LN9@partially_
  0008c	00 00 00 00	 DD	 $LN10@partially_
  00090	00 00 00 00	 DD	 $LN11@partially_
  00094	00 00 00 00	 DD	 $LN12@partially_
  00098	00 00 00 00	 DD	 $LN13@partially_
?partially_repair_gunship_damage@@YGXXZ ENDP		; partially_repair_gunship_damage
_TEXT	ENDS
; Function compile flags: /Odtp /ZI
; File c:\users\nhv90\projects\eech\aphavoc\source\gunships\avionics\common\co_dam.c
;	COMDAT ?fully_repair_gunship_damage@@YGXXZ
_TEXT	SEGMENT
tv64 = -68						; size = 4
?fully_repair_gunship_damage@@YGXXZ PROC		; fully_repair_gunship_damage, COMDAT

; 87   : {

  00000	55		 push	 ebp
  00001	8b ec		 mov	 ebp, esp
  00003	83 ec 44	 sub	 esp, 68			; 00000044H
  00006	53		 push	 ebx
  00007	56		 push	 esi
  00008	57		 push	 edi

; 88   : 	switch (get_global_gunship_type ())

  00009	a1 0c 00 00 00	 mov	 eax, DWORD PTR ?global_options@@3UGLOBAL_OPTIONS_DATA@@A+12
  0000e	89 45 bc	 mov	 DWORD PTR tv64[ebp], eax
  00011	83 7d bc 09	 cmp	 DWORD PTR tv64[ebp], 9
  00015	77 50		 ja	 SHORT $LN14@fully_repa
  00017	8b 4d bc	 mov	 ecx, DWORD PTR tv64[ebp]
  0001a	ff 24 8d 00 00
	00 00		 jmp	 DWORD PTR $LN16@fully_repa[ecx*4]
$LN4@fully_repa:

; 89   : 	{
; 90   : 		////////////////////////////////////////
; 91   : 		// JB 030313 Fly any aircraft
; 92   : //		default:
; 93   : 		case GUNSHIP_TYPE_APACHE:
; 94   : 		////////////////////////////////////////
; 95   : 		{
; 96   : 			fully_repair_apache_damage ();

  00021	e8 00 00 00 00	 call	 ?fully_repair_apache_damage@@YGXXZ ; fully_repair_apache_damage

; 97   : 
; 98   : 			break;

  00026	eb 44		 jmp	 SHORT $LN1@fully_repa
$LN5@fully_repa:

; 99   : 		}
; 100  : 		////////////////////////////////////////
; 101  : 		case GUNSHIP_TYPE_HAVOC:
; 102  : 		////////////////////////////////////////
; 103  : 		{
; 104  : 			fully_repair_havoc_damage ();

  00028	e8 00 00 00 00	 call	 ?fully_repair_havoc_damage@@YGXXZ ; fully_repair_havoc_damage

; 105  : 
; 106  : 			break;

  0002d	eb 3d		 jmp	 SHORT $LN1@fully_repa
$LN6@fully_repa:

; 107  : 		}
; 108  : 		////////////////////////////////////////
; 109  : 		case GUNSHIP_TYPE_COMANCHE:
; 110  : 		////////////////////////////////////////
; 111  : 		{
; 112  : 			fully_repair_comanche_damage ();

  0002f	e8 00 00 00 00	 call	 ?fully_repair_comanche_damage@@YGXXZ ; fully_repair_comanche_damage

; 113  : 
; 114  : 			break;

  00034	eb 36		 jmp	 SHORT $LN1@fully_repa
$LN7@fully_repa:

; 115  : 		}
; 116  : 		////////////////////////////////////////
; 117  : 		case GUNSHIP_TYPE_HOKUM:
; 118  : 		////////////////////////////////////////
; 119  : 		{
; 120  : 			fully_repair_hokum_damage ();

  00036	e8 00 00 00 00	 call	 ?fully_repair_hokum_damage@@YGXXZ ; fully_repair_hokum_damage

; 121  : 
; 122  : 			break;

  0003b	eb 2f		 jmp	 SHORT $LN1@fully_repa
$LN8@fully_repa:

; 123  : 		}
; 124  : 		////Moje 030518 Start
; 125  : 		case GUNSHIP_TYPE_BLACKHAWK:
; 126  : 		////////////////////////////////////////
; 127  : 		{
; 128  : 			fully_repair_blackhawk_damage ();

  0003d	e8 00 00 00 00	 call	 ?fully_repair_blackhawk_damage@@YGXXZ ; fully_repair_blackhawk_damage

; 129  : 
; 130  : 			break;

  00042	eb 28		 jmp	 SHORT $LN1@fully_repa
$LN9@fully_repa:

; 131  : 		}
; 132  : 		////Moje 030518 End
; 133  : 		////Moje 030612 Start
; 134  : 		////////////////////////////////////////
; 135  : 		case GUNSHIP_TYPE_HIND:
; 136  : 		////////////////////////////////////////
; 137  : 		{
; 138  : 			fully_repair_hind_damage ();

  00044	e8 00 00 00 00	 call	 ?fully_repair_hind_damage@@YGXXZ ; fully_repair_hind_damage

; 139  : 			break;

  00049	eb 21		 jmp	 SHORT $LN1@fully_repa
$LN10@fully_repa:

; 140  : 		}
; 141  : 		////Moje 020612 End
; 142  : 		////Moje 030816 Start
; 143  : 		case GUNSHIP_TYPE_AH64A:
; 144  : 		////////////////////////////////////////
; 145  : 		{
; 146  : 			fully_repair_ah64a_damage ();

  0004b	e8 00 00 00 00	 call	 ?fully_repair_ah64a_damage@@YGXXZ ; fully_repair_ah64a_damage

; 147  : 			break;

  00050	eb 1a		 jmp	 SHORT $LN1@fully_repa
$LN11@fully_repa:

; 148  : 		}
; 149  : 		////////////////////////////////////////
; 150  : 		case GUNSHIP_TYPE_KA50:
; 151  : 		////////////////////////////////////////
; 152  : 		{
; 153  : 			fully_repair_ka50_damage ();

  00052	e8 00 00 00 00	 call	 ?fully_repair_ka50_damage@@YGXXZ ; fully_repair_ka50_damage

; 154  : 			break;

  00057	eb 13		 jmp	 SHORT $LN1@fully_repa
$LN12@fully_repa:

; 155  : 		}
; 156  : 		////Moje 020816 End
; 157  : 		////////////////////////////////////////
; 158  : 		case GUNSHIP_TYPE_VIPER:
; 159  : 		{
; 160  : 			fully_repair_viper_damage ();

  00059	e8 00 00 00 00	 call	 ?fully_repair_viper_damage@@YGXXZ ; fully_repair_viper_damage

; 161  : 
; 162  : 			break;

  0005e	eb 0c		 jmp	 SHORT $LN1@fully_repa
$LN13@fully_repa:

; 163  : 		}
; 164  : 		////////////////////////////////////////
; 165  : 		case GUNSHIP_TYPE_KIOWA:
; 166  : 		////////////////////////////////////////
; 167  : 		{
; 168  : 			fully_repair_kiowa_damage ();

  00060	e8 00 00 00 00	 call	 ?fully_repair_kiowa_damage@@YGXXZ ; fully_repair_kiowa_damage

; 169  : 
; 170  : 			break;

  00065	eb 05		 jmp	 SHORT $LN1@fully_repa
$LN14@fully_repa:

; 171  : 		}
; 172  : 		////////////////////////////////////////
; 173  : 		// GCsDriver  08-12-2007
; 174  : 		default:
; 175  : 		////////////////////////////////////////
; 176  : 		{
; 177  : 			fully_repair_default_damage ();

  00067	e8 00 00 00 00	 call	 ?fully_repair_default_damage@@YGXXZ ; fully_repair_default_damage
$LN1@fully_repa:

; 178  : 
; 179  : 			break;
; 180  : 		}
; 181  : 	}
; 182  : }

  0006c	5f		 pop	 edi
  0006d	5e		 pop	 esi
  0006e	5b		 pop	 ebx
  0006f	8b e5		 mov	 esp, ebp
  00071	5d		 pop	 ebp
  00072	c3		 ret	 0
  00073	90		 npad	 1
$LN16@fully_repa:
  00074	00 00 00 00	 DD	 $LN4@fully_repa
  00078	00 00 00 00	 DD	 $LN5@fully_repa
  0007c	00 00 00 00	 DD	 $LN6@fully_repa
  00080	00 00 00 00	 DD	 $LN7@fully_repa
  00084	00 00 00 00	 DD	 $LN8@fully_repa
  00088	00 00 00 00	 DD	 $LN9@fully_repa
  0008c	00 00 00 00	 DD	 $LN10@fully_repa
  00090	00 00 00 00	 DD	 $LN11@fully_repa
  00094	00 00 00 00	 DD	 $LN12@fully_repa
  00098	00 00 00 00	 DD	 $LN13@fully_repa
?fully_repair_gunship_damage@@YGXXZ ENDP		; fully_repair_gunship_damage
_TEXT	ENDS
END
