; Listing generated by Microsoft (R) Optimizing Compiler Version 19.16.27045.0 

	TITLE	C:\Users\nhv90\Projects\eech\aphavoc\source\gunships\avionics\common\co_tgt.c
	.686P
	.XMM
	include listing.inc
	.model	flat

INCLUDELIB MSVCRTD
INCLUDELIB OLDNAMES

PUBLIC	?target_acquisition_system@@3W4TARGET_ACQUISITION_SYSTEMS@@A ; target_acquisition_system
PUBLIC	?target_locked@@3HA				; target_locked
PUBLIC	?cpg_identify_target_delay@@3MA			; cpg_identify_target_delay
PUBLIC	?target_acquisition_system_names@@3PAPBDA	; target_acquisition_system_names
PUBLIC	?continuous_target_acquisition_system_steer_left_key@@3HA ; continuous_target_acquisition_system_steer_left_key
PUBLIC	?continuous_target_acquisition_system_steer_right_key@@3HA ; continuous_target_acquisition_system_steer_right_key
PUBLIC	?continuous_target_acquisition_system_steer_up_key@@3HA ; continuous_target_acquisition_system_steer_up_key
PUBLIC	?continuous_target_acquisition_system_steer_down_key@@3HA ; continuous_target_acquisition_system_steer_down_key
PUBLIC	?single_target_acquisition_system_steer_left_key@@3HA ; single_target_acquisition_system_steer_left_key
PUBLIC	?single_target_acquisition_system_steer_right_key@@3HA ; single_target_acquisition_system_steer_right_key
PUBLIC	?single_target_acquisition_system_steer_up_key@@3HA ; single_target_acquisition_system_steer_up_key
PUBLIC	?single_target_acquisition_system_steer_down_key@@3HA ; single_target_acquisition_system_steer_down_key
PUBLIC	?single_target_acquisition_system_inc_range_key@@3HA ; single_target_acquisition_system_inc_range_key
PUBLIC	?single_target_acquisition_system_dec_range_key@@3HA ; single_target_acquisition_system_dec_range_key
PUBLIC	?single_target_acquisition_system_inc_target_priority_key@@3HA ; single_target_acquisition_system_inc_target_priority_key
PUBLIC	?single_target_acquisition_system_dec_target_priority_key@@3HA ; single_target_acquisition_system_dec_target_priority_key
PUBLIC	?single_target_acquisition_system_select_next_target_key@@3HA ; single_target_acquisition_system_select_next_target_key
PUBLIC	?single_target_acquisition_system_select_previous_target_key@@3HA ; single_target_acquisition_system_select_previous_target_key
PUBLIC	?single_target_acquisition_system_select_next_designated_key@@3HA ; single_target_acquisition_system_select_next_designated_key
PUBLIC	?single_target_acquisition_system_select_previous_designated_key@@3HA ; single_target_acquisition_system_select_previous_designated_key
PUBLIC	?continuous_target_acquisition_system_steer_left_fast_key@@3HA ; continuous_target_acquisition_system_steer_left_fast_key
PUBLIC	?continuous_target_acquisition_system_steer_right_fast_key@@3HA ; continuous_target_acquisition_system_steer_right_fast_key
PUBLIC	?continuous_target_acquisition_system_steer_up_fast_key@@3HA ; continuous_target_acquisition_system_steer_up_fast_key
PUBLIC	?continuous_target_acquisition_system_steer_down_fast_key@@3HA ; continuous_target_acquisition_system_steer_down_fast_key
PUBLIC	?single_target_acquisition_system_steer_left_fast_key@@3HA ; single_target_acquisition_system_steer_left_fast_key
PUBLIC	?single_target_acquisition_system_steer_right_fast_key@@3HA ; single_target_acquisition_system_steer_right_fast_key
PUBLIC	?single_target_acquisition_system_steer_up_fast_key@@3HA ; single_target_acquisition_system_steer_up_fast_key
PUBLIC	?single_target_acquisition_system_steer_down_fast_key@@3HA ; single_target_acquisition_system_steer_down_fast_key
PUBLIC	?single_target_acquisition_system_inc_range_fast_key@@3HA ; single_target_acquisition_system_inc_range_fast_key
PUBLIC	?single_target_acquisition_system_dec_range_fast_key@@3HA ; single_target_acquisition_system_dec_range_fast_key
PUBLIC	?single_target_acquisition_system_inc_target_priority_fast_key@@3HA ; single_target_acquisition_system_inc_target_priority_fast_key
PUBLIC	?single_target_acquisition_system_dec_target_priority_fast_key@@3HA ; single_target_acquisition_system_dec_target_priority_fast_key
PUBLIC	?continuous_target_acquisition_system_steer_left_fine_key@@3HA ; continuous_target_acquisition_system_steer_left_fine_key
PUBLIC	?continuous_target_acquisition_system_steer_right_fine_key@@3HA ; continuous_target_acquisition_system_steer_right_fine_key
PUBLIC	?continuous_target_acquisition_system_steer_up_fine_key@@3HA ; continuous_target_acquisition_system_steer_up_fine_key
PUBLIC	?continuous_target_acquisition_system_steer_down_fine_key@@3HA ; continuous_target_acquisition_system_steer_down_fine_key
PUBLIC	?toggle_ground_stabilisation_key@@3HA		; toggle_ground_stabilisation_key
PUBLIC	?mouse_move_left@@3HA				; mouse_move_left
PUBLIC	?mouse_move_right@@3HA				; mouse_move_right
PUBLIC	?mouse_move_up@@3HA				; mouse_move_up
PUBLIC	?mouse_move_down@@3HA				; mouse_move_down
PUBLIC	?mouse_wheel_up@@3HA				; mouse_wheel_up
PUBLIC	?mouse_wheel_down@@3HA				; mouse_wheel_down
PUBLIC	??_C@_03MPPIHBHJ@OFF@				; `string'
PUBLIC	??_C@_0N@EHPEKIGI@GROUND?5RADAR@		; `string'
PUBLIC	??_C@_09OPEEMCC@AIR?5RADAR@			; `string'
PUBLIC	??_C@_04MIGKMLBH@FLIR@				; `string'
PUBLIC	??_C@_03ENJJJDDH@DTV@				; `string'
PUBLIC	??_C@_03NFBNOOEB@DVO@				; `string'
PUBLIC	??_C@_05PNDCLKDI@LLLTV@				; `string'
PUBLIC	??_C@_09EAHIBGMD@PERISCOPE@			; `string'
PUBLIC	??_C@_06NOICLIMH@IHADSS@			; `string'
PUBLIC	??_C@_05BDMPLNHB@HIDSS@				; `string'
PUBLIC	??_C@_03GJMPEADF@HMS@				; `string'
_BSS	SEGMENT
?target_acquisition_system@@3W4TARGET_ACQUISITION_SYSTEMS@@A DD 01H DUP (?) ; target_acquisition_system
?target_locked@@3HA DD 01H DUP (?)			; target_locked
?cpg_identify_target_delay@@3MA DD 01H DUP (?)		; cpg_identify_target_delay
?continuous_target_acquisition_system_steer_left_key@@3HA DD 01H DUP (?) ; continuous_target_acquisition_system_steer_left_key
?continuous_target_acquisition_system_steer_right_key@@3HA DD 01H DUP (?) ; continuous_target_acquisition_system_steer_right_key
?continuous_target_acquisition_system_steer_up_key@@3HA DD 01H DUP (?) ; continuous_target_acquisition_system_steer_up_key
?continuous_target_acquisition_system_steer_down_key@@3HA DD 01H DUP (?) ; continuous_target_acquisition_system_steer_down_key
?single_target_acquisition_system_steer_left_key@@3HA DD 01H DUP (?) ; single_target_acquisition_system_steer_left_key
?single_target_acquisition_system_steer_right_key@@3HA DD 01H DUP (?) ; single_target_acquisition_system_steer_right_key
?single_target_acquisition_system_steer_up_key@@3HA DD 01H DUP (?) ; single_target_acquisition_system_steer_up_key
?single_target_acquisition_system_steer_down_key@@3HA DD 01H DUP (?) ; single_target_acquisition_system_steer_down_key
?single_target_acquisition_system_inc_range_key@@3HA DD 01H DUP (?) ; single_target_acquisition_system_inc_range_key
?single_target_acquisition_system_dec_range_key@@3HA DD 01H DUP (?) ; single_target_acquisition_system_dec_range_key
?single_target_acquisition_system_inc_target_priority_key@@3HA DD 01H DUP (?) ; single_target_acquisition_system_inc_target_priority_key
?single_target_acquisition_system_dec_target_priority_key@@3HA DD 01H DUP (?) ; single_target_acquisition_system_dec_target_priority_key
?single_target_acquisition_system_select_next_target_key@@3HA DD 01H DUP (?) ; single_target_acquisition_system_select_next_target_key
?single_target_acquisition_system_select_previous_target_key@@3HA DD 01H DUP (?) ; single_target_acquisition_system_select_previous_target_key
?single_target_acquisition_system_select_next_designated_key@@3HA DD 01H DUP (?) ; single_target_acquisition_system_select_next_designated_key
?single_target_acquisition_system_select_previous_designated_key@@3HA DD 01H DUP (?) ; single_target_acquisition_system_select_previous_designated_key
?continuous_target_acquisition_system_steer_left_fast_key@@3HA DD 01H DUP (?) ; continuous_target_acquisition_system_steer_left_fast_key
?continuous_target_acquisition_system_steer_right_fast_key@@3HA DD 01H DUP (?) ; continuous_target_acquisition_system_steer_right_fast_key
?continuous_target_acquisition_system_steer_up_fast_key@@3HA DD 01H DUP (?) ; continuous_target_acquisition_system_steer_up_fast_key
?continuous_target_acquisition_system_steer_down_fast_key@@3HA DD 01H DUP (?) ; continuous_target_acquisition_system_steer_down_fast_key
?single_target_acquisition_system_steer_left_fast_key@@3HA DD 01H DUP (?) ; single_target_acquisition_system_steer_left_fast_key
?single_target_acquisition_system_steer_right_fast_key@@3HA DD 01H DUP (?) ; single_target_acquisition_system_steer_right_fast_key
?single_target_acquisition_system_steer_up_fast_key@@3HA DD 01H DUP (?) ; single_target_acquisition_system_steer_up_fast_key
?single_target_acquisition_system_steer_down_fast_key@@3HA DD 01H DUP (?) ; single_target_acquisition_system_steer_down_fast_key
?single_target_acquisition_system_inc_range_fast_key@@3HA DD 01H DUP (?) ; single_target_acquisition_system_inc_range_fast_key
?single_target_acquisition_system_dec_range_fast_key@@3HA DD 01H DUP (?) ; single_target_acquisition_system_dec_range_fast_key
?single_target_acquisition_system_inc_target_priority_fast_key@@3HA DD 01H DUP (?) ; single_target_acquisition_system_inc_target_priority_fast_key
?single_target_acquisition_system_dec_target_priority_fast_key@@3HA DD 01H DUP (?) ; single_target_acquisition_system_dec_target_priority_fast_key
?continuous_target_acquisition_system_steer_left_fine_key@@3HA DD 01H DUP (?) ; continuous_target_acquisition_system_steer_left_fine_key
?continuous_target_acquisition_system_steer_right_fine_key@@3HA DD 01H DUP (?) ; continuous_target_acquisition_system_steer_right_fine_key
?continuous_target_acquisition_system_steer_up_fine_key@@3HA DD 01H DUP (?) ; continuous_target_acquisition_system_steer_up_fine_key
?continuous_target_acquisition_system_steer_down_fine_key@@3HA DD 01H DUP (?) ; continuous_target_acquisition_system_steer_down_fine_key
?toggle_ground_stabilisation_key@@3HA DD 01H DUP (?)	; toggle_ground_stabilisation_key
?mouse_move_left@@3HA DD 01H DUP (?)			; mouse_move_left
?mouse_move_right@@3HA DD 01H DUP (?)			; mouse_move_right
?mouse_move_up@@3HA DD 01H DUP (?)			; mouse_move_up
?mouse_move_down@@3HA DD 01H DUP (?)			; mouse_move_down
?mouse_wheel_up@@3HA DD 01H DUP (?)			; mouse_wheel_up
?mouse_wheel_down@@3HA DD 01H DUP (?)			; mouse_wheel_down
_BSS	ENDS
;	COMDAT ??_C@_03GJMPEADF@HMS@
CONST	SEGMENT
??_C@_03GJMPEADF@HMS@ DB 'HMS', 00H			; `string'
CONST	ENDS
;	COMDAT ??_C@_05BDMPLNHB@HIDSS@
CONST	SEGMENT
??_C@_05BDMPLNHB@HIDSS@ DB 'HIDSS', 00H			; `string'
CONST	ENDS
;	COMDAT ??_C@_06NOICLIMH@IHADSS@
CONST	SEGMENT
??_C@_06NOICLIMH@IHADSS@ DB 'IHADSS', 00H		; `string'
CONST	ENDS
;	COMDAT ??_C@_09EAHIBGMD@PERISCOPE@
CONST	SEGMENT
??_C@_09EAHIBGMD@PERISCOPE@ DB 'PERISCOPE', 00H		; `string'
CONST	ENDS
;	COMDAT ??_C@_05PNDCLKDI@LLLTV@
CONST	SEGMENT
??_C@_05PNDCLKDI@LLLTV@ DB 'LLLTV', 00H			; `string'
CONST	ENDS
;	COMDAT ??_C@_03NFBNOOEB@DVO@
CONST	SEGMENT
??_C@_03NFBNOOEB@DVO@ DB 'DVO', 00H			; `string'
CONST	ENDS
;	COMDAT ??_C@_03ENJJJDDH@DTV@
CONST	SEGMENT
??_C@_03ENJJJDDH@DTV@ DB 'DTV', 00H			; `string'
CONST	ENDS
;	COMDAT ??_C@_04MIGKMLBH@FLIR@
CONST	SEGMENT
??_C@_04MIGKMLBH@FLIR@ DB 'FLIR', 00H			; `string'
CONST	ENDS
;	COMDAT ??_C@_09OPEEMCC@AIR?5RADAR@
CONST	SEGMENT
??_C@_09OPEEMCC@AIR?5RADAR@ DB 'AIR RADAR', 00H		; `string'
CONST	ENDS
;	COMDAT ??_C@_0N@EHPEKIGI@GROUND?5RADAR@
CONST	SEGMENT
??_C@_0N@EHPEKIGI@GROUND?5RADAR@ DB 'GROUND RADAR', 00H	; `string'
CONST	ENDS
;	COMDAT ??_C@_03MPPIHBHJ@OFF@
CONST	SEGMENT
??_C@_03MPPIHBHJ@OFF@ DB 'OFF', 00H			; `string'
CONST	ENDS
_DATA	SEGMENT
?target_acquisition_system_names@@3PAPBDA DD FLAT:??_C@_03MPPIHBHJ@OFF@ ; target_acquisition_system_names
	DD	FLAT:??_C@_0N@EHPEKIGI@GROUND?5RADAR@
	DD	FLAT:??_C@_09OPEEMCC@AIR?5RADAR@
	DD	FLAT:??_C@_04MIGKMLBH@FLIR@
	DD	FLAT:??_C@_03ENJJJDDH@DTV@
	DD	FLAT:??_C@_03NFBNOOEB@DVO@
	DD	FLAT:??_C@_05PNDCLKDI@LLLTV@
	DD	FLAT:??_C@_09EAHIBGMD@PERISCOPE@
	DD	FLAT:??_C@_06NOICLIMH@IHADSS@
	DD	FLAT:??_C@_05BDMPLNHB@HIDSS@
	DD	FLAT:??_C@_03GJMPEADF@HMS@
_DATA	ENDS
PUBLIC	___local_stdio_printf_options
PUBLIC	__vsnprintf_l
PUBLIC	__vsprintf_l
PUBLIC	_sprintf
PUBLIC	?initialise_common_target_acquisition_systems@@YGXXZ ; initialise_common_target_acquisition_systems
PUBLIC	?deinitialise_common_target_acquisition_systems@@YGXXZ ; deinitialise_common_target_acquisition_systems
PUBLIC	?update_common_target_acquisition_systems@@YGXXZ ; update_common_target_acquisition_systems
PUBLIC	?reset_common_target_acquisition_system_keys@@YGXXZ ; reset_common_target_acquisition_system_keys
PUBLIC	?set_common_target_acquisition_system_lock_target@@YGXH@Z ; set_common_target_acquisition_system_lock_target
PUBLIC	?set_gunship_target@@YGXPAUENTITY@@@Z		; set_gunship_target
PUBLIC	?toggle_designated_target@@YGXXZ		; toggle_designated_target
PUBLIC	?get_target_display_name@@YGPBDPAUENTITY@@PADH@Z ; get_target_display_name
PUBLIC	?get_number_of_valid_gunship_targets@@YGHPAUENTITY@@@Z ; get_number_of_valid_gunship_targets
PUBLIC	?get_valid_gunship_target_safe_index@@YGHPAUENTITY@@H@Z ; get_valid_gunship_target_safe_index
PUBLIC	?set_valid_gunship_target_safe_index@@YGXH@Z	; set_valid_gunship_target_safe_index
PUBLIC	?select_simple_avionics_target_acquisition_system@@YGXXZ ; select_simple_avionics_target_acquisition_system
PUBLIC	?play_common_cpg_target_acquisition_system_speech@@YGXW4TARGET_ACQUISITION_SYSTEMS@@0H@Z ; play_common_cpg_target_acquisition_system_speech
PUBLIC	?get_range_finder@@YG?AW4rangefinding_system@@XZ ; get_range_finder
PUBLIC	?get_target_range@@YGMPAUVEC3D@@PAW4rangefinding_system@@@Z ; get_target_range
PUBLIC	?cpg_report_target@@YGXPAUENTITY@@@Z		; cpg_report_target
PUBLIC	??$min@M@std@@YGABMABM0@Z			; std::min<float>
PUBLIC	?_OptionsStorage@?1??__local_stdio_printf_options@@9@4_KA ; `__local_stdio_printf_options'::`2'::_OptionsStorage
PUBLIC	??_C@_02DKCKIIND@?$CFs@				; `string'
PUBLIC	?__LINE__Var@?0??update_gunship_target_list@@YGXXZ@4JA ; `update_gunship_target_list'::`1'::__LINE__Var
PUBLIC	??_C@_0EO@LDNOEIJA@c?3?2users?2nhv90?2projects?2eech?2ap@ ; `string'
PUBLIC	?__LINE__Var@?0??update_cpg_identify_target@@YGXXZ@4JA ; `update_cpg_identify_target'::`1'::__LINE__Var
PUBLIC	?__LINE__Var@?0??set_common_target_acquisition_system_lock_target@@YGXH@Z@4JA ; `set_common_target_acquisition_system_lock_target'::`1'::__LINE__Var
PUBLIC	??_C@_0BG@EANNPEON@get_gunship_entity?5?$CI?$CJ@ ; `string'
PUBLIC	?__LINE__Var@?0??set_gunship_target@@YGXPAUENTITY@@@Z@4JA ; `set_gunship_target'::`1'::__LINE__Var
PUBLIC	?__LINE__Var@?0??get_target_display_name@@YGPBDPAUENTITY@@PADH@Z@4JA ; `get_target_display_name'::`1'::__LINE__Var
PUBLIC	??_C@_06HOHPNJLC@buffer@			; `string'
PUBLIC	??_C@_09JCEKIIFK@ALLIED?5?$CFs@			; `string'
PUBLIC	??_C@_08LLLEJCBA@ENEMY?5?$CFs@			; `string'
PUBLIC	??_C@_04JOILGIEN@A?1?$CFs@			; `string'
PUBLIC	??_C@_04GLALMOIN@E?1?$CFs@			; `string'
PUBLIC	??_C@_09JLFDDBCD@NO?5TARGET@			; `string'
PUBLIC	??_C@_09ICGCKLLB@LOW?5LIGHT@			; `string'
PUBLIC	??_C@_0BE@FCINAHDA@CP?1G?5IDENTIFYING?4?4?4@	; `string'
PUBLIC	??_C@_0L@CPHGBHEJ@CP?1G?5ID?4?4?4@		; `string'
PUBLIC	??_C@_0BN@LJPACPLB@Invalid?5cpg?5assist?5type?5?$DN?5?$CFd@ ; `string'
PUBLIC	?__LINE__Var@?0??get_number_of_valid_gunship_targets@@YGHPAUENTITY@@@Z@4JA ; `get_number_of_valid_gunship_targets'::`1'::__LINE__Var
PUBLIC	??_C@_08DEKMJOIP@receiver@			; `string'
PUBLIC	?__LINE__Var@?0??get_valid_gunship_target_safe_index@@YGHPAUENTITY@@H@Z@4JA ; `get_valid_gunship_target_safe_index'::`1'::__LINE__Var
PUBLIC	??_C@_0L@NPKMGJBO@depth?5?$DO?$DN?50@		; `string'
PUBLIC	??_C@_0DK@OLLAKKNO@Cannot?5find?5valid?5gunship?5targe@ ; `string'
PUBLIC	?__LINE__Var@?0??set_valid_gunship_target_safe_index@@YGXH@Z@4JA ; `set_valid_gunship_target_safe_index'::`1'::__LINE__Var
PUBLIC	??_C@_06JJLAMBGK@target@			; `string'
PUBLIC	?__LINE__Var@?0??toggle_designated_target@@YGXXZ@4JA ; `toggle_designated_target'::`1'::__LINE__Var
PUBLIC	?__LINE__Var@?0??get_target_range@@YGMPAUVEC3D@@PAW4rangefinding_system@@@Z@4JA ; `get_target_range'::`1'::__LINE__Var
PUBLIC	??_C@_0BD@FEEMDEPI@invalid?5comparator@		; `string'
PUBLIC	??_C@_0GK@JMBMHIBC@c?3?2program?5files?5?$CIx86?$CJ?2microsof@ ; `string'
PUBLIC	??_C@_1NE@FKBPBJEB@?$AAc?$AA?3?$AA?2?$AAp?$AAr?$AAo?$AAg?$AAr?$AAa?$AAm?$AA?5?$AAf?$AAi?$AAl?$AAe@ ; `string'
PUBLIC	??_C@_1BC@BLAPCBGI@?$AAs?$AAt?$AAd?$AA?3?$AA?3?$AAm?$AAi?$AAn@ ; `string'
PUBLIC	??_C@_1CK@NDNHPKPI@?$AA?$CC?$AAi?$AAn?$AAv?$AAa?$AAl?$AAi?$AAd?$AA?5?$AAc?$AAo?$AAm?$AAp?$AAa?$AAr@ ; `string'
PUBLIC	__real@00000000
PUBLIC	__real@0000000000000000
PUBLIC	__real@3f000000
PUBLIC	__real@3f00002000400080
PUBLIC	__real@3f3a36e2eb1c432d
PUBLIC	__real@3f50624dd2f1a9fc
PUBLIC	__real@3f800000
PUBLIC	__real@3fd0000000000000
PUBLIC	__real@3ff0000000000000
PUBLIC	__real@404e000000000000
PUBLIC	__real@40b3880000000000
PUBLIC	__real@41200000
PUBLIC	__real@41d2410110000000
PUBLIC	__real@459c4000
PUBLIC	__real@45fa0000
PUBLIC	__real@49742400
EXTRN	__imp___invalid_parameter:PROC
EXTRN	__imp____stdio_common_vsprintf:PROC
EXTRN	__imp___CrtDbgReport:PROC
EXTRN	?process_assert@@YGXPBD0H@Z:PROC		; process_assert
EXTRN	?debug_fatal@@YAXPBDZZ:PROC			; debug_fatal
EXTRN	?get_3d_range@@YGMPBUVEC3D@@0@Z:PROC		; get_3d_range
EXTRN	?get_sqr_3d_range@@YGMPBUVEC3D@@0@Z:PROC	; get_sqr_3d_range
EXTRN	?insert_local_entity_into_parents_child_list@@YGXPAUENTITY@@W4LIST_TYPES@@00@Z:PROC ; insert_local_entity_into_parents_child_list
EXTRN	?delete_local_entity_from_parents_child_list@@YGXPAUENTITY@@W4LIST_TYPES@@@Z:PROC ; delete_local_entity_from_parents_child_list
EXTRN	?unlink_local_entity_children@@YGXPAUENTITY@@W4LIST_TYPES@@@Z:PROC ; unlink_local_entity_children
EXTRN	?set_client_server_entity_parent@@YGXPAUENTITY@@W4LIST_TYPES@@0@Z:PROC ; set_client_server_entity_parent
EXTRN	?play_client_server_cpg_message@@YGHPAUENTITY@@MMHMH@Z:PROC ; play_client_server_cpg_message
EXTRN	?play_client_server_cpg_contact_message@@YGHPAUENTITY@@HHH@Z:PROC ; play_client_server_cpg_contact_message
EXTRN	?get_speech_heading_type@@YG?AW4speech_heading_types@@PAUENTITY@@0@Z:PROC ; get_speech_heading_type
EXTRN	?get_speech_distance_type@@YG?AW4speech_distance_types@@PAUENTITY@@0@Z:PROC ; get_speech_distance_type
EXTRN	?initialise_common_eo@@YGXXZ:PROC		; initialise_common_eo
EXTRN	?deinitialise_common_eo@@YGXXZ:PROC		; deinitialise_common_eo
EXTRN	?laser_is_active@@YGHXZ:PROC			; laser_is_active
EXTRN	?set_laser_is_active@@YGXH@Z:PROC		; set_laser_is_active
EXTRN	?get_triangulated_by_position_range@@YGMPAUVEC3D@@0@Z:PROC ; get_triangulated_by_position_range
EXTRN	?eo_is_tracking_point@@YGHXZ:PROC		; eo_is_tracking_point
EXTRN	?cpg_scan_for_eo_targets@@YGXXZ:PROC		; cpg_scan_for_eo_targets
EXTRN	?cpg_report_identified_target@@YGXPAUENTITY@@@Z:PROC ; cpg_report_identified_target
EXTRN	?initialise_common_hms@@YGXXZ:PROC		; initialise_common_hms
EXTRN	?deinitialise_common_hms@@YGXXZ:PROC		; deinitialise_common_hms
EXTRN	?update_common_hud@@YGXXZ:PROC			; update_common_hud
EXTRN	?initialise_common_radar@@YGXXZ:PROC		; initialise_common_radar
EXTRN	?deinitialise_common_radar@@YGXXZ:PROC		; deinitialise_common_radar
EXTRN	?get_gunship_target_valid_for_air_radar@@YGHPAUENTITY@@@Z:PROC ; get_gunship_target_valid_for_air_radar
EXTRN	?select_apache_target_acquisition_system@@YGXW4TARGET_ACQUISITION_SYSTEMS@@@Z:PROC ; select_apache_target_acquisition_system
EXTRN	?set_apache_lock_target@@YGXH@Z:PROC		; set_apache_lock_target
EXTRN	?select_comanche_target_acquisition_system@@YGXW4TARGET_ACQUISITION_SYSTEMS@@@Z:PROC ; select_comanche_target_acquisition_system
EXTRN	?set_comanche_lock_target@@YGXH@Z:PROC		; set_comanche_lock_target
EXTRN	?select_havoc_target_acquisition_system@@YGXW4TARGET_ACQUISITION_SYSTEMS@@@Z:PROC ; select_havoc_target_acquisition_system
EXTRN	?set_havoc_lock_target@@YGXH@Z:PROC		; set_havoc_lock_target
EXTRN	?select_hokum_target_acquisition_system@@YGXW4TARGET_ACQUISITION_SYSTEMS@@@Z:PROC ; select_hokum_target_acquisition_system
EXTRN	?set_hokum_lock_target@@YGXH@Z:PROC		; set_hokum_lock_target
EXTRN	?select_blackhawk_target_acquisition_system@@YGXW4TARGET_ACQUISITION_SYSTEMS@@@Z:PROC ; select_blackhawk_target_acquisition_system
EXTRN	?set_blackhawk_lock_target@@YGXH@Z:PROC		; set_blackhawk_lock_target
EXTRN	?select_hind_target_acquisition_system@@YGXW4TARGET_ACQUISITION_SYSTEMS@@@Z:PROC ; select_hind_target_acquisition_system
EXTRN	?set_hind_lock_target@@YGXH@Z:PROC		; set_hind_lock_target
EXTRN	?select_ah64a_target_acquisition_system@@YGXW4TARGET_ACQUISITION_SYSTEMS@@@Z:PROC ; select_ah64a_target_acquisition_system
EXTRN	?set_ah64a_lock_target@@YGXH@Z:PROC		; set_ah64a_lock_target
EXTRN	?select_ka50_target_acquisition_system@@YGXW4TARGET_ACQUISITION_SYSTEMS@@@Z:PROC ; select_ka50_target_acquisition_system
EXTRN	?set_ka50_lock_target@@YGXH@Z:PROC		; set_ka50_lock_target
EXTRN	?select_viper_target_acquisition_system@@YGXW4TARGET_ACQUISITION_SYSTEMS@@@Z:PROC ; select_viper_target_acquisition_system
EXTRN	?set_viper_lock_target@@YGXH@Z:PROC		; set_viper_lock_target
EXTRN	?set_kiowa_lock_target@@YGXH@Z:PROC		; set_kiowa_lock_target
EXTRN	?select_default_target_acquisition_system@@YGXW4TARGET_ACQUISITION_SYSTEMS@@@Z:PROC ; select_default_target_acquisition_system
EXTRN	?set_default_lock_target@@YGXH@Z:PROC		; set_default_lock_target
EXTRN	?system_delta_time@@3MA:DWORD			; system_delta_time
EXTRN	?random_number_seed@@3HA:DWORD			; random_number_seed
EXTRN	?command_line_manual_laser_radar@@3HA:DWORD	; command_line_manual_laser_radar
EXTRN	?command_line_designated_targets@@3HA:DWORD	; command_line_designated_targets
EXTRN	?null_entity_pointer_message@@3PBDB:DWORD	; null_entity_pointer_message
EXTRN	?global_options@@3UGLOBAL_OPTIONS_DATA@@A:BYTE	; global_options
EXTRN	?overload_invalid_list_type_message@@3PBDB:DWORD ; overload_invalid_list_type_message
EXTRN	?fn_get_local_entity_first_child@@3PAY0CN@P6GPAUENTITY@@PAU1@W4LIST_TYPES@@@ZA:BYTE ; fn_get_local_entity_first_child
EXTRN	?fn_get_local_entity_parent@@3PAY0CN@P6GPAUENTITY@@PAU1@W4LIST_TYPES@@@ZA:BYTE ; fn_get_local_entity_parent
EXTRN	?fn_get_local_entity_child_succ@@3PAY0CN@P6GPAUENTITY@@PAU1@W4LIST_TYPES@@@ZA:BYTE ; fn_get_local_entity_child_succ
EXTRN	?overload_invalid_float_type_message@@3PBDB:DWORD ; overload_invalid_float_type_message
EXTRN	?fn_set_local_entity_float_value@@3PAY0KP@P6GXPAUENTITY@@W4FLOAT_TYPES@@M@ZA:BYTE ; fn_set_local_entity_float_value
EXTRN	?fn_get_local_entity_float_value@@3PAY0KP@P6GMPAUENTITY@@W4FLOAT_TYPES@@@ZA:BYTE ; fn_get_local_entity_float_value
EXTRN	?overload_invalid_int_type_message@@3PBDB:DWORD	; overload_invalid_int_type_message
EXTRN	?fn_set_local_entity_int_value@@3PAY0BBH@P6GXPAUENTITY@@W4INT_TYPES@@H@ZA:BYTE ; fn_set_local_entity_int_value
EXTRN	?fn_get_local_entity_int_value@@3PAY0BBH@P6GHPAUENTITY@@W4INT_TYPES@@@ZA:BYTE ; fn_get_local_entity_int_value
EXTRN	?overload_invalid_string_type_message@@3PBDB:DWORD ; overload_invalid_string_type_message
EXTRN	?fn_get_local_entity_string@@3PAY0N@P6GPBDPAUENTITY@@W4STRING_TYPES@@@ZA:BYTE ; fn_get_local_entity_string
EXTRN	?overload_invalid_vec3d_type_message@@3PBDB:DWORD ; overload_invalid_vec3d_type_message
EXTRN	?fn_get_local_entity_vec3d_ptr@@3PAY0BI@P6GPAUVEC3D@@PAUENTITY@@W4VEC3D_TYPES@@@ZA:BYTE ; fn_get_local_entity_vec3d_ptr
EXTRN	?entities@@3PAUENTITY@@A:DWORD			; entities
EXTRN	?gunship_entity@@3PAUENTITY@@A:DWORD		; gunship_entity
EXTRN	?eo_on_target@@3HA:DWORD			; eo_on_target
EXTRN	?eo_low_light@@3HA:DWORD			; eo_low_light
EXTRN	?weapon_lock_type@@3W4WEAPON_LOCK_TYPES@@A:DWORD ; weapon_lock_type
EXTRN	__fltused:DWORD
;	COMDAT ?_OptionsStorage@?1??__local_stdio_printf_options@@9@4_KA
_BSS	SEGMENT
?_OptionsStorage@?1??__local_stdio_printf_options@@9@4_KA DQ 01H DUP (?) ; `__local_stdio_printf_options'::`2'::_OptionsStorage
_BSS	ENDS
;	COMDAT __real@49742400
CONST	SEGMENT
__real@49742400 DD 049742400r			; 1e+06
CONST	ENDS
;	COMDAT __real@45fa0000
CONST	SEGMENT
__real@45fa0000 DD 045fa0000r			; 8000
CONST	ENDS
;	COMDAT __real@459c4000
CONST	SEGMENT
__real@459c4000 DD 0459c4000r			; 5000
CONST	ENDS
;	COMDAT __real@41d2410110000000
CONST	SEGMENT
__real@41d2410110000000 DQ 041d2410110000000r	; 1.225e+09
CONST	ENDS
;	COMDAT __real@41200000
CONST	SEGMENT
__real@41200000 DD 041200000r			; 10
CONST	ENDS
;	COMDAT __real@40b3880000000000
CONST	SEGMENT
__real@40b3880000000000 DQ 040b3880000000000r	; 5000
CONST	ENDS
;	COMDAT __real@404e000000000000
CONST	SEGMENT
__real@404e000000000000 DQ 0404e000000000000r	; 60
CONST	ENDS
;	COMDAT __real@3ff0000000000000
CONST	SEGMENT
__real@3ff0000000000000 DQ 03ff0000000000000r	; 1
CONST	ENDS
;	COMDAT __real@3fd0000000000000
CONST	SEGMENT
__real@3fd0000000000000 DQ 03fd0000000000000r	; 0.25
CONST	ENDS
;	COMDAT __real@3f800000
CONST	SEGMENT
__real@3f800000 DD 03f800000r			; 1
CONST	ENDS
;	COMDAT __real@3f50624dd2f1a9fc
CONST	SEGMENT
__real@3f50624dd2f1a9fc DQ 03f50624dd2f1a9fcr	; 0.001
CONST	ENDS
;	COMDAT __real@3f3a36e2eb1c432d
CONST	SEGMENT
__real@3f3a36e2eb1c432d DQ 03f3a36e2eb1c432dr	; 0.0004
CONST	ENDS
;	COMDAT __real@3f00002000400080
CONST	SEGMENT
__real@3f00002000400080 DQ 03f00002000400080r	; 3.05185e-05
CONST	ENDS
;	COMDAT __real@3f000000
CONST	SEGMENT
__real@3f000000 DD 03f000000r			; 0.5
CONST	ENDS
;	COMDAT __real@0000000000000000
CONST	SEGMENT
__real@0000000000000000 DQ 00000000000000000r	; 0
CONST	ENDS
;	COMDAT __real@00000000
CONST	SEGMENT
__real@00000000 DD 000000000r			; 0
CONST	ENDS
;	COMDAT ??_C@_1CK@NDNHPKPI@?$AA?$CC?$AAi?$AAn?$AAv?$AAa?$AAl?$AAi?$AAd?$AA?5?$AAc?$AAo?$AAm?$AAp?$AAa?$AAr@
CONST	SEGMENT
??_C@_1CK@NDNHPKPI@?$AA?$CC?$AAi?$AAn?$AAv?$AAa?$AAl?$AAi?$AAd?$AA?5?$AAc?$AAo?$AAm?$AAp?$AAa?$AAr@ DB '"'
	DB	00H, 'i', 00H, 'n', 00H, 'v', 00H, 'a', 00H, 'l', 00H, 'i', 00H
	DB	'd', 00H, ' ', 00H, 'c', 00H, 'o', 00H, 'm', 00H, 'p', 00H, 'a'
	DB	00H, 'r', 00H, 'a', 00H, 't', 00H, 'o', 00H, 'r', 00H, '"', 00H
	DB	00H, 00H					; `string'
CONST	ENDS
;	COMDAT ??_C@_1BC@BLAPCBGI@?$AAs?$AAt?$AAd?$AA?3?$AA?3?$AAm?$AAi?$AAn@
CONST	SEGMENT
??_C@_1BC@BLAPCBGI@?$AAs?$AAt?$AAd?$AA?3?$AA?3?$AAm?$AAi?$AAn@ DB 's', 00H
	DB	't', 00H, 'd', 00H, ':', 00H, ':', 00H, 'm', 00H, 'i', 00H, 'n'
	DB	00H, 00H, 00H				; `string'
CONST	ENDS
;	COMDAT ??_C@_1NE@FKBPBJEB@?$AAc?$AA?3?$AA?2?$AAp?$AAr?$AAo?$AAg?$AAr?$AAa?$AAm?$AA?5?$AAf?$AAi?$AAl?$AAe@
CONST	SEGMENT
??_C@_1NE@FKBPBJEB@?$AAc?$AA?3?$AA?2?$AAp?$AAr?$AAo?$AAg?$AAr?$AAa?$AAm?$AA?5?$AAf?$AAi?$AAl?$AAe@ DB 'c'
	DB	00H, ':', 00H, '\', 00H, 'p', 00H, 'r', 00H, 'o', 00H, 'g', 00H
	DB	'r', 00H, 'a', 00H, 'm', 00H, ' ', 00H, 'f', 00H, 'i', 00H, 'l'
	DB	00H, 'e', 00H, 's', 00H, ' ', 00H, '(', 00H, 'x', 00H, '8', 00H
	DB	'6', 00H, ')', 00H, '\', 00H, 'm', 00H, 'i', 00H, 'c', 00H, 'r'
	DB	00H, 'o', 00H, 's', 00H, 'o', 00H, 'f', 00H, 't', 00H, ' ', 00H
	DB	'v', 00H, 'i', 00H, 's', 00H, 'u', 00H, 'a', 00H, 'l', 00H, ' '
	DB	00H, 's', 00H, 't', 00H, 'u', 00H, 'd', 00H, 'i', 00H, 'o', 00H
	DB	'\', 00H, '2', 00H, '0', 00H, '1', 00H, '7', 00H, '\', 00H, 'c'
	DB	00H, 'o', 00H, 'm', 00H, 'm', 00H, 'u', 00H, 'n', 00H, 'i', 00H
	DB	't', 00H, 'y', 00H, '\', 00H, 'v', 00H, 'c', 00H, '\', 00H, 't'
	DB	00H, 'o', 00H, 'o', 00H, 'l', 00H, 's', 00H, '\', 00H, 'm', 00H
	DB	's', 00H, 'v', 00H, 'c', 00H, '\', 00H, '1', 00H, '4', 00H, '.'
	DB	00H, '1', 00H, '6', 00H, '.', 00H, '2', 00H, '7', 00H, '0', 00H
	DB	'2', 00H, '3', 00H, '\', 00H, 'i', 00H, 'n', 00H, 'c', 00H, 'l'
	DB	00H, 'u', 00H, 'd', 00H, 'e', 00H, '\', 00H, 'a', 00H, 'l', 00H
	DB	'g', 00H, 'o', 00H, 'r', 00H, 'i', 00H, 't', 00H, 'h', 00H, 'm'
	DB	00H, 00H, 00H				; `string'
CONST	ENDS
;	COMDAT ??_C@_0GK@JMBMHIBC@c?3?2program?5files?5?$CIx86?$CJ?2microsof@
CONST	SEGMENT
??_C@_0GK@JMBMHIBC@c?3?2program?5files?5?$CIx86?$CJ?2microsof@ DB 'c:\pro'
	DB	'gram files (x86)\microsoft visual studio\2017\community\vc\to'
	DB	'ols\msvc\14.16.27023\include\algorithm', 00H ; `string'
CONST	ENDS
;	COMDAT ??_C@_0BD@FEEMDEPI@invalid?5comparator@
CONST	SEGMENT
??_C@_0BD@FEEMDEPI@invalid?5comparator@ DB 'invalid comparator', 00H ; `string'
CONST	ENDS
;	COMDAT ?__LINE__Var@?0??get_target_range@@YGMPAUVEC3D@@PAW4rangefinding_system@@@Z@4JA
_DATA	SEGMENT
?__LINE__Var@?0??get_target_range@@YGMPAUVEC3D@@PAW4rangefinding_system@@@Z@4JA DD 04a6H ; `get_target_range'::`1'::__LINE__Var
_DATA	ENDS
;	COMDAT ?__LINE__Var@?0??toggle_designated_target@@YGXXZ@4JA
_DATA	SEGMENT
?__LINE__Var@?0??toggle_designated_target@@YGXXZ@4JA DD 047cH ; `toggle_designated_target'::`1'::__LINE__Var
_DATA	ENDS
;	COMDAT ??_C@_06JJLAMBGK@target@
CONST	SEGMENT
??_C@_06JJLAMBGK@target@ DB 'target', 00H		; `string'
CONST	ENDS
;	COMDAT ?__LINE__Var@?0??set_valid_gunship_target_safe_index@@YGXH@Z@4JA
_DATA	SEGMENT
?__LINE__Var@?0??set_valid_gunship_target_safe_index@@YGXH@Z@4JA DD 038aH ; `set_valid_gunship_target_safe_index'::`1'::__LINE__Var
_DATA	ENDS
;	COMDAT ??_C@_0DK@OLLAKKNO@Cannot?5find?5valid?5gunship?5targe@
CONST	SEGMENT
??_C@_0DK@OLLAKKNO@Cannot?5find?5valid?5gunship?5targe@ DB 'Cannot find v'
	DB	'alid gunship target (count = %d, depth = %d)', 00H ; `string'
CONST	ENDS
;	COMDAT ??_C@_0L@NPKMGJBO@depth?5?$DO?$DN?50@
CONST	SEGMENT
??_C@_0L@NPKMGJBO@depth?5?$DO?$DN?50@ DB 'depth >= 0', 00H ; `string'
CONST	ENDS
;	COMDAT ?__LINE__Var@?0??get_valid_gunship_target_safe_index@@YGHPAUENTITY@@H@Z@4JA
_DATA	SEGMENT
?__LINE__Var@?0??get_valid_gunship_target_safe_index@@YGHPAUENTITY@@H@Z@4JA DD 0352H ; `get_valid_gunship_target_safe_index'::`1'::__LINE__Var
_DATA	ENDS
;	COMDAT ??_C@_08DEKMJOIP@receiver@
CONST	SEGMENT
??_C@_08DEKMJOIP@receiver@ DB 'receiver', 00H		; `string'
CONST	ENDS
;	COMDAT ?__LINE__Var@?0??get_number_of_valid_gunship_targets@@YGHPAUENTITY@@@Z@4JA
_DATA	SEGMENT
?__LINE__Var@?0??get_number_of_valid_gunship_targets@@YGHPAUENTITY@@@Z@4JA DD 0323H ; `get_number_of_valid_gunship_targets'::`1'::__LINE__Var
_DATA	ENDS
;	COMDAT ??_C@_0BN@LJPACPLB@Invalid?5cpg?5assist?5type?5?$DN?5?$CFd@
CONST	SEGMENT
??_C@_0BN@LJPACPLB@Invalid?5cpg?5assist?5type?5?$DN?5?$CFd@ DB 'Invalid c'
	DB	'pg assist type = %d', 00H			; `string'
CONST	ENDS
;	COMDAT ??_C@_0L@CPHGBHEJ@CP?1G?5ID?4?4?4@
CONST	SEGMENT
??_C@_0L@CPHGBHEJ@CP?1G?5ID?4?4?4@ DB 'CP/G ID...', 00H	; `string'
CONST	ENDS
;	COMDAT ??_C@_0BE@FCINAHDA@CP?1G?5IDENTIFYING?4?4?4@
CONST	SEGMENT
??_C@_0BE@FCINAHDA@CP?1G?5IDENTIFYING?4?4?4@ DB 'CP/G IDENTIFYING...', 00H ; `string'
CONST	ENDS
;	COMDAT ??_C@_09ICGCKLLB@LOW?5LIGHT@
CONST	SEGMENT
??_C@_09ICGCKLLB@LOW?5LIGHT@ DB 'LOW LIGHT', 00H	; `string'
CONST	ENDS
;	COMDAT ??_C@_09JLFDDBCD@NO?5TARGET@
CONST	SEGMENT
??_C@_09JLFDDBCD@NO?5TARGET@ DB 'NO TARGET', 00H	; `string'
CONST	ENDS
;	COMDAT ??_C@_04GLALMOIN@E?1?$CFs@
CONST	SEGMENT
??_C@_04GLALMOIN@E?1?$CFs@ DB 'E/%s', 00H		; `string'
CONST	ENDS
;	COMDAT ??_C@_04JOILGIEN@A?1?$CFs@
CONST	SEGMENT
??_C@_04JOILGIEN@A?1?$CFs@ DB 'A/%s', 00H		; `string'
CONST	ENDS
;	COMDAT ??_C@_08LLLEJCBA@ENEMY?5?$CFs@
CONST	SEGMENT
??_C@_08LLLEJCBA@ENEMY?5?$CFs@ DB 'ENEMY %s', 00H	; `string'
CONST	ENDS
;	COMDAT ??_C@_09JCEKIIFK@ALLIED?5?$CFs@
CONST	SEGMENT
??_C@_09JCEKIIFK@ALLIED?5?$CFs@ DB 'ALLIED %s', 00H	; `string'
CONST	ENDS
;	COMDAT ??_C@_06HOHPNJLC@buffer@
CONST	SEGMENT
??_C@_06HOHPNJLC@buffer@ DB 'buffer', 00H		; `string'
CONST	ENDS
;	COMDAT ?__LINE__Var@?0??get_target_display_name@@YGPBDPAUENTITY@@PADH@Z@4JA
_DATA	SEGMENT
?__LINE__Var@?0??get_target_display_name@@YGPBDPAUENTITY@@PADH@Z@4JA DD 0287H ; `get_target_display_name'::`1'::__LINE__Var
_DATA	ENDS
;	COMDAT ?__LINE__Var@?0??set_gunship_target@@YGXPAUENTITY@@@Z@4JA
_DATA	SEGMENT
?__LINE__Var@?0??set_gunship_target@@YGXPAUENTITY@@@Z@4JA DD 0239H ; `set_gunship_target'::`1'::__LINE__Var
_DATA	ENDS
;	COMDAT ??_C@_0BG@EANNPEON@get_gunship_entity?5?$CI?$CJ@
CONST	SEGMENT
??_C@_0BG@EANNPEON@get_gunship_entity?5?$CI?$CJ@ DB 'get_gunship_entity ('
	DB	')', 00H					; `string'
CONST	ENDS
;	COMDAT ?__LINE__Var@?0??set_common_target_acquisition_system_lock_target@@YGXH@Z@4JA
_DATA	SEGMENT
?__LINE__Var@?0??set_common_target_acquisition_system_lock_target@@YGXH@Z@4JA DD 01dfH ; `set_common_target_acquisition_system_lock_target'::`1'::__LINE__Var
_DATA	ENDS
;	COMDAT ?__LINE__Var@?0??update_cpg_identify_target@@YGXXZ@4JA
_DATA	SEGMENT
?__LINE__Var@?0??update_cpg_identify_target@@YGXXZ@4JA DD 0168H ; `update_cpg_identify_target'::`1'::__LINE__Var
_DATA	ENDS
;	COMDAT ??_C@_0EO@LDNOEIJA@c?3?2users?2nhv90?2projects?2eech?2ap@
CONST	SEGMENT
??_C@_0EO@LDNOEIJA@c?3?2users?2nhv90?2projects?2eech?2ap@ DB 'c:\users\nh'
	DB	'v90\projects\eech\aphavoc\source\gunships\avionics\common\co_'
	DB	'tgt.c', 00H					; `string'
CONST	ENDS
;	COMDAT ?__LINE__Var@?0??update_gunship_target_list@@YGXXZ@4JA
_DATA	SEGMENT
?__LINE__Var@?0??update_gunship_target_list@@YGXXZ@4JA DD 0100H ; `update_gunship_target_list'::`1'::__LINE__Var
_DATA	ENDS
;	COMDAT ??_C@_02DKCKIIND@?$CFs@
CONST	SEGMENT
??_C@_02DKCKIIND@?$CFs@ DB '%s', 00H			; `string'
CONST	ENDS
; Function compile flags: /Odtp /ZI
; File c:\program files (x86)\microsoft visual studio\2017\community\vc\tools\msvc\14.16.27023\include\algorithm
;	COMDAT ??$min@M@std@@YGABMABM0@Z
_TEXT	SEGMENT
__Left$ = 8						; size = 4
__Right$ = 12						; size = 4
??$min@M@std@@YGABMABM0@Z PROC				; std::min<float>, COMDAT

; 5427 : 	{	// return smaller of _Left and _Right

  00000	55		 push	 ebp
  00001	8b ec		 mov	 ebp, esp
  00003	83 ec 40	 sub	 esp, 64			; 00000040H
  00006	53		 push	 ebx
  00007	56		 push	 esi
  00008	57		 push	 edi

; 5428 : 	if (_Right < _Left)

  00009	8b 45 08	 mov	 eax, DWORD PTR __Left$[ebp]
  0000c	8b 4d 0c	 mov	 ecx, DWORD PTR __Right$[ebp]
  0000f	f3 0f 10 00	 movss	 xmm0, DWORD PTR [eax]
  00013	0f 2f 01	 comiss	 xmm0, DWORD PTR [ecx]
  00016	76 64		 jbe	 SHORT $LN8@min
$LN4@min:

; 5429 : 		{
; 5430 : 		_STL_ASSERT(!(_Left < _Right), "invalid comparator");

  00018	8b 45 0c	 mov	 eax, DWORD PTR __Right$[ebp]
  0001b	8b 4d 08	 mov	 ecx, DWORD PTR __Left$[ebp]
  0001e	f3 0f 10 00	 movss	 xmm0, DWORD PTR [eax]
  00022	0f 2f 01	 comiss	 xmm0, DWORD PTR [ecx]
  00025	77 02		 ja	 SHORT $LN9@min
  00027	eb 4a		 jmp	 SHORT $LN6@min
$LN9@min:
  00029	68 00 00 00 00	 push	 OFFSET ??_C@_0BD@FEEMDEPI@invalid?5comparator@
  0002e	68 00 00 00 00	 push	 OFFSET ??_C@_02DKCKIIND@?$CFs@
  00033	6a 00		 push	 0
  00035	68 36 15 00 00	 push	 5430			; 00001536H
  0003a	68 00 00 00 00	 push	 OFFSET ??_C@_0GK@JMBMHIBC@c?3?2program?5files?5?$CIx86?$CJ?2microsof@
  0003f	6a 02		 push	 2
  00041	ff 15 00 00 00
	00		 call	 DWORD PTR __imp___CrtDbgReport
  00047	83 c4 18	 add	 esp, 24			; 00000018H
  0004a	83 f8 01	 cmp	 eax, 1
  0004d	75 01		 jne	 SHORT $LN12@min
  0004f	cc		 int	 3
$LN12@min:
  00050	6a 00		 push	 0
  00052	68 36 15 00 00	 push	 5430			; 00001536H
  00057	68 00 00 00 00	 push	 OFFSET ??_C@_1NE@FKBPBJEB@?$AAc?$AA?3?$AA?2?$AAp?$AAr?$AAo?$AAg?$AAr?$AAa?$AAm?$AA?5?$AAf?$AAi?$AAl?$AAe@
  0005c	68 00 00 00 00	 push	 OFFSET ??_C@_1BC@BLAPCBGI@?$AAs?$AAt?$AAd?$AA?3?$AA?3?$AAm?$AAi?$AAn@
  00061	68 00 00 00 00	 push	 OFFSET ??_C@_1CK@NDNHPKPI@?$AA?$CC?$AAi?$AAn?$AAv?$AAa?$AAl?$AAi?$AAd?$AA?5?$AAc?$AAo?$AAm?$AAp?$AAa?$AAr@
  00066	ff 15 00 00 00
	00		 call	 DWORD PTR __imp___invalid_parameter
  0006c	83 c4 14	 add	 esp, 20			; 00000014H
  0006f	33 c0		 xor	 eax, eax
  00071	75 b6		 jne	 SHORT $LN9@min
$LN6@min:
  00073	33 c0		 xor	 eax, eax
  00075	75 a1		 jne	 SHORT $LN4@min

; 5431 : 		return (_Right);

  00077	8b 45 0c	 mov	 eax, DWORD PTR __Right$[ebp]
  0007a	eb 03		 jmp	 SHORT $LN1@min
$LN8@min:

; 5432 : 		}
; 5433 : 
; 5434 : 	return (_Left);

  0007c	8b 45 08	 mov	 eax, DWORD PTR __Left$[ebp]
$LN1@min:

; 5435 : 	}

  0007f	5f		 pop	 edi
  00080	5e		 pop	 esi
  00081	5b		 pop	 ebx
  00082	8b e5		 mov	 esp, ebp
  00084	5d		 pop	 ebp
  00085	c2 08 00	 ret	 8
??$min@M@std@@YGABMABM0@Z ENDP				; std::min<float>
_TEXT	ENDS
; Function compile flags: /Odtp /ZI
; File c:\users\nhv90\projects\eech\aphavoc\source\gunships\avionics\common\co_tgt.c
;	COMDAT ?update_cpg_identify_target@@YGXXZ
_TEXT	SEGMENT
tv160 = -80						; size = 4
tv134 = -80						; size = 4
tv78 = -80						; size = 4
tv152 = -76						; size = 4
tv94 = -76						; size = 4
tv70 = -76						; size = 4
_target$ = -8						; size = 4
_los_clear$ = -4					; size = 4
?update_cpg_identify_target@@YGXXZ PROC			; update_cpg_identify_target, COMDAT

; 360  : {

  00000	55		 push	 ebp
  00001	8b ec		 mov	 ebp, esp
  00003	83 ec 50	 sub	 esp, 80			; 00000050H
  00006	53		 push	 ebx
  00007	56		 push	 esi
  00008	57		 push	 edi

; 361  : 	int
; 362  : 		los_clear;
; 363  : 
; 364  : 	entity
; 365  : 		*target;
; 366  : 
; 367  : 	target = get_local_entity_parent (get_gunship_entity (), LIST_TYPE_TARGET);

  00009	83 3d 00 00 00
	00 00		 cmp	 DWORD PTR ?gunship_entity@@3PAUENTITY@@A, 0 ; gunship_entity
  00010	74 0c		 je	 SHORT $LN12@update_cpg
  00012	a1 00 00 00 00	 mov	 eax, DWORD PTR ?gunship_entity@@3PAUENTITY@@A ; gunship_entity
  00017	8b 08		 mov	 ecx, DWORD PTR [eax]
  00019	89 4d b4	 mov	 DWORD PTR tv70[ebp], ecx
  0001c	eb 21		 jmp	 SHORT $LN13@update_cpg
$LN12@update_cpg:
  0001e	8b 15 00 00 00
	00		 mov	 edx, DWORD PTR ?__LINE__Var@?0??update_cpg_identify_target@@YGXXZ@4JA
  00024	83 c2 07	 add	 edx, 7
  00027	52		 push	 edx
  00028	68 00 00 00 00	 push	 OFFSET ??_C@_0EO@LDNOEIJA@c?3?2users?2nhv90?2projects?2eech?2ap@
  0002d	a1 00 00 00 00	 mov	 eax, DWORD PTR ?null_entity_pointer_message@@3PBDB ; null_entity_pointer_message
  00032	50		 push	 eax
  00033	e8 00 00 00 00	 call	 ?process_assert@@YGXPBD0H@Z ; process_assert
  00038	c7 45 b4 00 00
	00 00		 mov	 DWORD PTR tv70[ebp], 0
$LN13@update_cpg:
  0003f	b9 01 00 00 00	 mov	 ecx, 1
  00044	85 c9		 test	 ecx, ecx
  00046	74 09		 je	 SHORT $LN14@update_cpg
  00048	c7 45 b0 26 00
	00 00		 mov	 DWORD PTR tv78[ebp], 38	; 00000026H
  0004f	eb 21		 jmp	 SHORT $LN15@update_cpg
$LN14@update_cpg:
  00051	8b 15 00 00 00
	00		 mov	 edx, DWORD PTR ?__LINE__Var@?0??update_cpg_identify_target@@YGXXZ@4JA
  00057	83 c2 07	 add	 edx, 7
  0005a	52		 push	 edx
  0005b	68 00 00 00 00	 push	 OFFSET ??_C@_0EO@LDNOEIJA@c?3?2users?2nhv90?2projects?2eech?2ap@
  00060	a1 00 00 00 00	 mov	 eax, DWORD PTR ?overload_invalid_list_type_message@@3PBDB ; overload_invalid_list_type_message
  00065	50		 push	 eax
  00066	e8 00 00 00 00	 call	 ?process_assert@@YGXPBD0H@Z ; process_assert
  0006b	c7 45 b0 00 00
	00 00		 mov	 DWORD PTR tv78[ebp], 0
$LN15@update_cpg:
  00072	6a 26		 push	 38			; 00000026H
  00074	8b 0d 00 00 00
	00		 mov	 ecx, DWORD PTR ?gunship_entity@@3PAUENTITY@@A ; gunship_entity
  0007a	51		 push	 ecx
  0007b	69 55 b4 b4 00
	00 00		 imul	 edx, DWORD PTR tv70[ebp], 180
  00082	8b 45 b0	 mov	 eax, DWORD PTR tv78[ebp]
  00085	8b 8c 82 00 00
	00 00		 mov	 ecx, DWORD PTR ?fn_get_local_entity_parent@@3PAY0CN@P6GPAUENTITY@@PAU1@W4LIST_TYPES@@@ZA[edx+eax*4]
  0008c	ff d1		 call	 ecx
  0008e	89 45 f8	 mov	 DWORD PTR _target$[ebp], eax

; 368  : 
; 369  : 	if (target)

  00091	83 7d f8 00	 cmp	 DWORD PTR _target$[ebp], 0
  00095	0f 84 8e 01 00
	00		 je	 $LN2@update_cpg

; 370  : 	{
; 371  : 		if (eo_on_target)

  0009b	83 3d 00 00 00
	00 00		 cmp	 DWORD PTR ?eo_on_target@@3HA, 0 ; eo_on_target
  000a2	0f 84 7f 01 00
	00		 je	 $LN10@update_cpg

; 372  : 		{
; 373  : 			if ((target_acquisition_system == TARGET_ACQUISITION_SYSTEM_GROUND_RADAR) || (target_acquisition_system == TARGET_ACQUISITION_SYSTEM_AIR_RADAR))

  000a8	83 3d 00 00 00
	00 01		 cmp	 DWORD PTR ?target_acquisition_system@@3W4TARGET_ACQUISITION_SYSTEMS@@A, 1 ; target_acquisition_system
  000af	74 0d		 je	 SHORT $LN7@update_cpg
  000b1	83 3d 00 00 00
	00 02		 cmp	 DWORD PTR ?target_acquisition_system@@3W4TARGET_ACQUISITION_SYSTEMS@@A, 2 ; target_acquisition_system
  000b8	0f 85 82 00 00
	00		 jne	 $LN5@update_cpg
$LN7@update_cpg:

; 374  : 			{
; 375  : 				los_clear = get_local_entity_int_value (target, INT_TYPE_GUNSHIP_RADAR_LOS_CLEAR);

  000be	83 7d f8 00	 cmp	 DWORD PTR _target$[ebp], 0
  000c2	74 0a		 je	 SHORT $LN16@update_cpg
  000c4	8b 45 f8	 mov	 eax, DWORD PTR _target$[ebp]
  000c7	8b 08		 mov	 ecx, DWORD PTR [eax]
  000c9	89 4d b4	 mov	 DWORD PTR tv94[ebp], ecx
  000cc	eb 21		 jmp	 SHORT $LN17@update_cpg
$LN16@update_cpg:
  000ce	8b 15 00 00 00
	00		 mov	 edx, DWORD PTR ?__LINE__Var@?0??update_cpg_identify_target@@YGXXZ@4JA
  000d4	83 c2 0f	 add	 edx, 15			; 0000000fH
  000d7	52		 push	 edx
  000d8	68 00 00 00 00	 push	 OFFSET ??_C@_0EO@LDNOEIJA@c?3?2users?2nhv90?2projects?2eech?2ap@
  000dd	a1 00 00 00 00	 mov	 eax, DWORD PTR ?null_entity_pointer_message@@3PBDB ; null_entity_pointer_message
  000e2	50		 push	 eax
  000e3	e8 00 00 00 00	 call	 ?process_assert@@YGXPBD0H@Z ; process_assert
  000e8	c7 45 b4 00 00
	00 00		 mov	 DWORD PTR tv94[ebp], 0
$LN17@update_cpg:
  000ef	b9 01 00 00 00	 mov	 ecx, 1
  000f4	85 c9		 test	 ecx, ecx
  000f6	74 09		 je	 SHORT $LN18@update_cpg
  000f8	c7 45 b0 50 00
	00 00		 mov	 DWORD PTR tv134[ebp], 80 ; 00000050H
  000ff	eb 21		 jmp	 SHORT $LN19@update_cpg
$LN18@update_cpg:
  00101	8b 15 00 00 00
	00		 mov	 edx, DWORD PTR ?__LINE__Var@?0??update_cpg_identify_target@@YGXXZ@4JA
  00107	83 c2 0f	 add	 edx, 15			; 0000000fH
  0010a	52		 push	 edx
  0010b	68 00 00 00 00	 push	 OFFSET ??_C@_0EO@LDNOEIJA@c?3?2users?2nhv90?2projects?2eech?2ap@
  00110	a1 00 00 00 00	 mov	 eax, DWORD PTR ?overload_invalid_int_type_message@@3PBDB ; overload_invalid_int_type_message
  00115	50		 push	 eax
  00116	e8 00 00 00 00	 call	 ?process_assert@@YGXPBD0H@Z ; process_assert
  0011b	c7 45 b0 00 00
	00 00		 mov	 DWORD PTR tv134[ebp], 0
$LN19@update_cpg:
  00122	6a 50		 push	 80			; 00000050H
  00124	8b 4d f8	 mov	 ecx, DWORD PTR _target$[ebp]
  00127	51		 push	 ecx
  00128	69 55 b4 5c 04
	00 00		 imul	 edx, DWORD PTR tv94[ebp], 1116
  0012f	8b 45 b0	 mov	 eax, DWORD PTR tv134[ebp]
  00132	8b 8c 82 00 00
	00 00		 mov	 ecx, DWORD PTR ?fn_get_local_entity_int_value@@3PAY0BBH@P6GHPAUENTITY@@W4INT_TYPES@@@ZA[edx+eax*4]
  00139	ff d1		 call	 ecx
  0013b	89 45 fc	 mov	 DWORD PTR _los_clear$[ebp], eax

; 376  : 			}
; 377  : 			else

  0013e	eb 07		 jmp	 SHORT $LN6@update_cpg
$LN5@update_cpg:

; 378  : 			{
; 379  : 				los_clear = TRUE;

  00140	c7 45 fc 01 00
	00 00		 mov	 DWORD PTR _los_clear$[ebp], 1
$LN6@update_cpg:

; 380  : 			}
; 381  : 
; 382  : 			if (los_clear)

  00147	83 7d fc 00	 cmp	 DWORD PTR _los_clear$[ebp], 0
  0014b	0f 84 d6 00 00
	00		 je	 $LN10@update_cpg

; 383  : 			{
; 384  : 				if (cpg_identify_target_delay > 0.0)

  00151	f3 0f 5a 05 00
	00 00 00	 cvtss2sd xmm0, DWORD PTR ?cpg_identify_target_delay@@3MA
  00159	66 0f 2f 05 00
	00 00 00	 comisd	 xmm0, QWORD PTR __real@0000000000000000
  00161	0f 86 c0 00 00
	00		 jbe	 $LN10@update_cpg

; 385  : 				{
; 386  : 					cpg_identify_target_delay -= get_delta_time ();

  00167	f3 0f 10 05 00
	00 00 00	 movss	 xmm0, DWORD PTR ?cpg_identify_target_delay@@3MA
  0016f	f3 0f 5c 05 00
	00 00 00	 subss	 xmm0, DWORD PTR ?system_delta_time@@3MA
  00177	f3 0f 11 05 00
	00 00 00	 movss	 DWORD PTR ?cpg_identify_target_delay@@3MA, xmm0

; 387  : 
; 388  : 					if (cpg_identify_target_delay < 0.0)

  0017f	f3 0f 5a 05 00
	00 00 00	 cvtss2sd xmm0, DWORD PTR ?cpg_identify_target_delay@@3MA
  00187	0f 57 c9	 xorps	 xmm1, xmm1
  0018a	66 0f 2f c8	 comisd	 xmm1, xmm0
  0018e	0f 86 93 00 00
	00		 jbe	 $LN10@update_cpg

; 389  : 					{
; 390  : 						cpg_identify_target_delay = 0.0;

  00194	0f 57 c0	 xorps	 xmm0, xmm0
  00197	f3 0f 11 05 00
	00 00 00	 movss	 DWORD PTR ?cpg_identify_target_delay@@3MA, xmm0

; 391  : 
; 392  : 						set_local_entity_int_value (target, INT_TYPE_CPG_IDENTIFIED, TRUE);

  0019f	83 7d f8 00	 cmp	 DWORD PTR _target$[ebp], 0
  001a3	74 0a		 je	 SHORT $LN20@update_cpg
  001a5	8b 45 f8	 mov	 eax, DWORD PTR _target$[ebp]
  001a8	8b 08		 mov	 ecx, DWORD PTR [eax]
  001aa	89 4d b4	 mov	 DWORD PTR tv152[ebp], ecx
  001ad	eb 21		 jmp	 SHORT $LN21@update_cpg
$LN20@update_cpg:
  001af	8b 15 00 00 00
	00		 mov	 edx, DWORD PTR ?__LINE__Var@?0??update_cpg_identify_target@@YGXXZ@4JA
  001b5	83 c2 20	 add	 edx, 32			; 00000020H
  001b8	52		 push	 edx
  001b9	68 00 00 00 00	 push	 OFFSET ??_C@_0EO@LDNOEIJA@c?3?2users?2nhv90?2projects?2eech?2ap@
  001be	a1 00 00 00 00	 mov	 eax, DWORD PTR ?null_entity_pointer_message@@3PBDB ; null_entity_pointer_message
  001c3	50		 push	 eax
  001c4	e8 00 00 00 00	 call	 ?process_assert@@YGXPBD0H@Z ; process_assert
  001c9	c7 45 b4 00 00
	00 00		 mov	 DWORD PTR tv152[ebp], 0
$LN21@update_cpg:
  001d0	b9 01 00 00 00	 mov	 ecx, 1
  001d5	85 c9		 test	 ecx, ecx
  001d7	74 09		 je	 SHORT $LN22@update_cpg
  001d9	c7 45 b0 22 00
	00 00		 mov	 DWORD PTR tv160[ebp], 34 ; 00000022H
  001e0	eb 21		 jmp	 SHORT $LN23@update_cpg
$LN22@update_cpg:
  001e2	8b 15 00 00 00
	00		 mov	 edx, DWORD PTR ?__LINE__Var@?0??update_cpg_identify_target@@YGXXZ@4JA
  001e8	83 c2 20	 add	 edx, 32			; 00000020H
  001eb	52		 push	 edx
  001ec	68 00 00 00 00	 push	 OFFSET ??_C@_0EO@LDNOEIJA@c?3?2users?2nhv90?2projects?2eech?2ap@
  001f1	a1 00 00 00 00	 mov	 eax, DWORD PTR ?overload_invalid_int_type_message@@3PBDB ; overload_invalid_int_type_message
  001f6	50		 push	 eax
  001f7	e8 00 00 00 00	 call	 ?process_assert@@YGXPBD0H@Z ; process_assert
  001fc	c7 45 b0 00 00
	00 00		 mov	 DWORD PTR tv160[ebp], 0
$LN23@update_cpg:
  00203	6a 01		 push	 1
  00205	6a 22		 push	 34			; 00000022H
  00207	8b 4d f8	 mov	 ecx, DWORD PTR _target$[ebp]
  0020a	51		 push	 ecx
  0020b	69 55 b4 5c 04
	00 00		 imul	 edx, DWORD PTR tv152[ebp], 1116
  00212	8b 45 b0	 mov	 eax, DWORD PTR tv160[ebp]
  00215	8b 8c 82 00 00
	00 00		 mov	 ecx, DWORD PTR ?fn_set_local_entity_int_value@@3PAY0BBH@P6GXPAUENTITY@@W4INT_TYPES@@H@ZA[edx+eax*4]
  0021c	ff d1		 call	 ecx

; 393  : 						
; 394  :             cpg_report_identified_target(target); //ataribaby 4/1/2009 added CPG next/prev target lock and ID

  0021e	8b 45 f8	 mov	 eax, DWORD PTR _target$[ebp]
  00221	50		 push	 eax
  00222	e8 00 00 00 00	 call	 ?cpg_report_identified_target@@YGXPAUENTITY@@@Z ; cpg_report_identified_target
$LN10@update_cpg:

; 395  : 					}
; 396  : 				}
; 397  : 			}
; 398  : 		}
; 399  : 	}
; 400  : 	else

  00227	eb 0b		 jmp	 SHORT $LN3@update_cpg
$LN2@update_cpg:

; 401  : 	{
; 402  : 		cpg_identify_target_delay = 0.0;

  00229	0f 57 c0	 xorps	 xmm0, xmm0
  0022c	f3 0f 11 05 00
	00 00 00	 movss	 DWORD PTR ?cpg_identify_target_delay@@3MA, xmm0
$LN3@update_cpg:

; 403  : 	}
; 404  : }

  00234	5f		 pop	 edi
  00235	5e		 pop	 esi
  00236	5b		 pop	 ebx
  00237	8b e5		 mov	 esp, ebp
  00239	5d		 pop	 ebp
  0023a	c3		 ret	 0
?update_cpg_identify_target@@YGXXZ ENDP			; update_cpg_identify_target
_TEXT	ENDS
; Function compile flags: /Odtp /ZI
; File c:\users\nhv90\projects\eech\aphavoc\source\gunships\avionics\common\co_tgt.c
;	COMDAT ?update_gunship_target_list@@YGXXZ
_TEXT	SEGMENT
tv247 = -108						; size = 4
tv218 = -108						; size = 4
tv193 = -108						; size = 4
tv173 = -108						; size = 4
tv152 = -108						; size = 4
tv132 = -108						; size = 4
tv78 = -108						; size = 4
tv239 = -104						; size = 4
tv210 = -104						; size = 4
tv185 = -104						; size = 4
tv165 = -104						; size = 4
tv144 = -104						; size = 4
tv92 = -104						; size = 4
tv70 = -104						; size = 4
_target_position$ = -36					; size = 4
_source_position$ = -32					; size = 4
_succ$ = -28						; size = 4
_current_target$ = -24					; size = 4
_target$ = -20						; size = 4
_source$ = -16						; size = 4
_timeout$ = -12						; size = 4
_sqr_target_range$ = -8					; size = 4
_remove_target$ = -4					; size = 4
?update_gunship_target_list@@YGXXZ PROC			; update_gunship_target_list, COMDAT

; 256  : {

  00000	55		 push	 ebp
  00001	8b ec		 mov	 ebp, esp
  00003	83 ec 6c	 sub	 esp, 108		; 0000006cH
  00006	53		 push	 ebx
  00007	56		 push	 esi
  00008	57		 push	 edi

; 257  : 	int
; 258  : 		remove_target;
; 259  : 
; 260  : 	float
; 261  : 		sqr_target_range,
; 262  : 		timeout;
; 263  : 
; 264  : 	entity
; 265  : 		*source,
; 266  : 		*target,
; 267  : 		*current_target,
; 268  : 		*succ;
; 269  : 
; 270  : 	vec3d
; 271  : 		*source_position,
; 272  : 		*target_position;
; 273  : 
; 274  : 	source = get_gunship_entity ();

  00009	a1 00 00 00 00	 mov	 eax, DWORD PTR ?gunship_entity@@3PAUENTITY@@A ; gunship_entity
  0000e	89 45 f0	 mov	 DWORD PTR _source$[ebp], eax

; 275  : 	source_position = get_local_entity_vec3d_ptr (source, VEC3D_TYPE_POSITION);

  00011	83 7d f0 00	 cmp	 DWORD PTR _source$[ebp], 0
  00015	74 0a		 je	 SHORT $LN14@update_gun
  00017	8b 45 f0	 mov	 eax, DWORD PTR _source$[ebp]
  0001a	8b 08		 mov	 ecx, DWORD PTR [eax]
  0001c	89 4d 98	 mov	 DWORD PTR tv70[ebp], ecx
  0001f	eb 21		 jmp	 SHORT $LN15@update_gun
$LN14@update_gun:
  00021	8b 15 00 00 00
	00		 mov	 edx, DWORD PTR ?__LINE__Var@?0??update_gunship_target_list@@YGXXZ@4JA
  00027	83 c2 13	 add	 edx, 19			; 00000013H
  0002a	52		 push	 edx
  0002b	68 00 00 00 00	 push	 OFFSET ??_C@_0EO@LDNOEIJA@c?3?2users?2nhv90?2projects?2eech?2ap@
  00030	a1 00 00 00 00	 mov	 eax, DWORD PTR ?null_entity_pointer_message@@3PBDB ; null_entity_pointer_message
  00035	50		 push	 eax
  00036	e8 00 00 00 00	 call	 ?process_assert@@YGXPBD0H@Z ; process_assert
  0003b	c7 45 98 00 00
	00 00		 mov	 DWORD PTR tv70[ebp], 0
$LN15@update_gun:
  00042	b9 01 00 00 00	 mov	 ecx, 1
  00047	85 c9		 test	 ecx, ecx
  00049	74 09		 je	 SHORT $LN16@update_gun
  0004b	c7 45 94 08 00
	00 00		 mov	 DWORD PTR tv78[ebp], 8
  00052	eb 21		 jmp	 SHORT $LN17@update_gun
$LN16@update_gun:
  00054	8b 15 00 00 00
	00		 mov	 edx, DWORD PTR ?__LINE__Var@?0??update_gunship_target_list@@YGXXZ@4JA
  0005a	83 c2 13	 add	 edx, 19			; 00000013H
  0005d	52		 push	 edx
  0005e	68 00 00 00 00	 push	 OFFSET ??_C@_0EO@LDNOEIJA@c?3?2users?2nhv90?2projects?2eech?2ap@
  00063	a1 00 00 00 00	 mov	 eax, DWORD PTR ?overload_invalid_vec3d_type_message@@3PBDB ; overload_invalid_vec3d_type_message
  00068	50		 push	 eax
  00069	e8 00 00 00 00	 call	 ?process_assert@@YGXPBD0H@Z ; process_assert
  0006e	c7 45 94 00 00
	00 00		 mov	 DWORD PTR tv78[ebp], 0
$LN17@update_gun:
  00075	6a 08		 push	 8
  00077	8b 4d f0	 mov	 ecx, DWORD PTR _source$[ebp]
  0007a	51		 push	 ecx
  0007b	6b 55 98 60	 imul	 edx, DWORD PTR tv70[ebp], 96
  0007f	8b 45 94	 mov	 eax, DWORD PTR tv78[ebp]
  00082	8b 8c 82 00 00
	00 00		 mov	 ecx, DWORD PTR ?fn_get_local_entity_vec3d_ptr@@3PAY0BI@P6GPAUVEC3D@@PAUENTITY@@W4VEC3D_TYPES@@@ZA[edx+eax*4]
  00089	ff d1		 call	 ecx
  0008b	89 45 e0	 mov	 DWORD PTR _source_position$[ebp], eax

; 276  : 
; 277  : 	if (target_acquisition_system != TARGET_ACQUISITION_SYSTEM_AIR_RADAR &&

  0008e	83 3d 00 00 00
	00 02		 cmp	 DWORD PTR ?target_acquisition_system@@3W4TARGET_ACQUISITION_SYSTEMS@@A, 2 ; target_acquisition_system
  00095	74 0e		 je	 SHORT $LN4@update_gun
  00097	83 3d 00 00 00
	00 01		 cmp	 DWORD PTR ?target_acquisition_system@@3W4TARGET_ACQUISITION_SYSTEMS@@A, 1 ; target_acquisition_system
  0009e	74 05		 je	 SHORT $LN4@update_gun

; 278  : 		target_acquisition_system != TARGET_ACQUISITION_SYSTEM_GROUND_RADAR)
; 279  : 	{
; 280  : 		cpg_scan_for_eo_targets();

  000a0	e8 00 00 00 00	 call	 ?cpg_scan_for_eo_targets@@YGXXZ ; cpg_scan_for_eo_targets
$LN4@update_gun:

; 281  : 	}
; 282  : 
; 283  : 	target = get_local_entity_first_child (source, LIST_TYPE_GUNSHIP_TARGET);

  000a5	83 7d f0 00	 cmp	 DWORD PTR _source$[ebp], 0
  000a9	74 0a		 je	 SHORT $LN18@update_gun
  000ab	8b 45 f0	 mov	 eax, DWORD PTR _source$[ebp]
  000ae	8b 08		 mov	 ecx, DWORD PTR [eax]
  000b0	89 4d 98	 mov	 DWORD PTR tv92[ebp], ecx
  000b3	eb 21		 jmp	 SHORT $LN19@update_gun
$LN18@update_gun:
  000b5	8b 15 00 00 00
	00		 mov	 edx, DWORD PTR ?__LINE__Var@?0??update_gunship_target_list@@YGXXZ@4JA
  000bb	83 c2 1b	 add	 edx, 27			; 0000001bH
  000be	52		 push	 edx
  000bf	68 00 00 00 00	 push	 OFFSET ??_C@_0EO@LDNOEIJA@c?3?2users?2nhv90?2projects?2eech?2ap@
  000c4	a1 00 00 00 00	 mov	 eax, DWORD PTR ?null_entity_pointer_message@@3PBDB ; null_entity_pointer_message
  000c9	50		 push	 eax
  000ca	e8 00 00 00 00	 call	 ?process_assert@@YGXPBD0H@Z ; process_assert
  000cf	c7 45 98 00 00
	00 00		 mov	 DWORD PTR tv92[ebp], 0
$LN19@update_gun:
  000d6	b9 01 00 00 00	 mov	 ecx, 1
  000db	85 c9		 test	 ecx, ecx
  000dd	74 09		 je	 SHORT $LN20@update_gun
  000df	c7 45 94 12 00
	00 00		 mov	 DWORD PTR tv132[ebp], 18 ; 00000012H
  000e6	eb 21		 jmp	 SHORT $LN21@update_gun
$LN20@update_gun:
  000e8	8b 15 00 00 00
	00		 mov	 edx, DWORD PTR ?__LINE__Var@?0??update_gunship_target_list@@YGXXZ@4JA
  000ee	83 c2 1b	 add	 edx, 27			; 0000001bH
  000f1	52		 push	 edx
  000f2	68 00 00 00 00	 push	 OFFSET ??_C@_0EO@LDNOEIJA@c?3?2users?2nhv90?2projects?2eech?2ap@
  000f7	a1 00 00 00 00	 mov	 eax, DWORD PTR ?overload_invalid_list_type_message@@3PBDB ; overload_invalid_list_type_message
  000fc	50		 push	 eax
  000fd	e8 00 00 00 00	 call	 ?process_assert@@YGXPBD0H@Z ; process_assert
  00102	c7 45 94 00 00
	00 00		 mov	 DWORD PTR tv132[ebp], 0
$LN21@update_gun:
  00109	6a 12		 push	 18			; 00000012H
  0010b	8b 4d f0	 mov	 ecx, DWORD PTR _source$[ebp]
  0010e	51		 push	 ecx
  0010f	69 55 98 b4 00
	00 00		 imul	 edx, DWORD PTR tv92[ebp], 180
  00116	8b 45 94	 mov	 eax, DWORD PTR tv132[ebp]
  00119	8b 8c 82 00 00
	00 00		 mov	 ecx, DWORD PTR ?fn_get_local_entity_first_child@@3PAY0CN@P6GPAUENTITY@@PAU1@W4LIST_TYPES@@@ZA[edx+eax*4]
  00120	ff d1		 call	 ecx
  00122	89 45 ec	 mov	 DWORD PTR _target$[ebp], eax

; 284  : 	current_target = get_local_entity_parent (source, LIST_TYPE_TARGET);

  00125	83 7d f0 00	 cmp	 DWORD PTR _source$[ebp], 0
  00129	74 0a		 je	 SHORT $LN22@update_gun
  0012b	8b 45 f0	 mov	 eax, DWORD PTR _source$[ebp]
  0012e	8b 08		 mov	 ecx, DWORD PTR [eax]
  00130	89 4d 98	 mov	 DWORD PTR tv144[ebp], ecx
  00133	eb 21		 jmp	 SHORT $LN23@update_gun
$LN22@update_gun:
  00135	8b 15 00 00 00
	00		 mov	 edx, DWORD PTR ?__LINE__Var@?0??update_gunship_target_list@@YGXXZ@4JA
  0013b	83 c2 1c	 add	 edx, 28			; 0000001cH
  0013e	52		 push	 edx
  0013f	68 00 00 00 00	 push	 OFFSET ??_C@_0EO@LDNOEIJA@c?3?2users?2nhv90?2projects?2eech?2ap@
  00144	a1 00 00 00 00	 mov	 eax, DWORD PTR ?null_entity_pointer_message@@3PBDB ; null_entity_pointer_message
  00149	50		 push	 eax
  0014a	e8 00 00 00 00	 call	 ?process_assert@@YGXPBD0H@Z ; process_assert
  0014f	c7 45 98 00 00
	00 00		 mov	 DWORD PTR tv144[ebp], 0
$LN23@update_gun:
  00156	b9 01 00 00 00	 mov	 ecx, 1
  0015b	85 c9		 test	 ecx, ecx
  0015d	74 09		 je	 SHORT $LN24@update_gun
  0015f	c7 45 94 26 00
	00 00		 mov	 DWORD PTR tv152[ebp], 38 ; 00000026H
  00166	eb 21		 jmp	 SHORT $LN25@update_gun
$LN24@update_gun:
  00168	8b 15 00 00 00
	00		 mov	 edx, DWORD PTR ?__LINE__Var@?0??update_gunship_target_list@@YGXXZ@4JA
  0016e	83 c2 1c	 add	 edx, 28			; 0000001cH
  00171	52		 push	 edx
  00172	68 00 00 00 00	 push	 OFFSET ??_C@_0EO@LDNOEIJA@c?3?2users?2nhv90?2projects?2eech?2ap@
  00177	a1 00 00 00 00	 mov	 eax, DWORD PTR ?overload_invalid_list_type_message@@3PBDB ; overload_invalid_list_type_message
  0017c	50		 push	 eax
  0017d	e8 00 00 00 00	 call	 ?process_assert@@YGXPBD0H@Z ; process_assert
  00182	c7 45 94 00 00
	00 00		 mov	 DWORD PTR tv152[ebp], 0
$LN25@update_gun:
  00189	6a 26		 push	 38			; 00000026H
  0018b	8b 4d f0	 mov	 ecx, DWORD PTR _source$[ebp]
  0018e	51		 push	 ecx
  0018f	69 55 98 b4 00
	00 00		 imul	 edx, DWORD PTR tv144[ebp], 180
  00196	8b 45 94	 mov	 eax, DWORD PTR tv152[ebp]
  00199	8b 8c 82 00 00
	00 00		 mov	 ecx, DWORD PTR ?fn_get_local_entity_parent@@3PAY0CN@P6GPAUENTITY@@PAU1@W4LIST_TYPES@@@ZA[edx+eax*4]
  001a0	ff d1		 call	 ecx
  001a2	89 45 e8	 mov	 DWORD PTR _current_target$[ebp], eax
$LN2@update_gun:

; 285  : 
; 286  : 	while (target)

  001a5	83 7d ec 00	 cmp	 DWORD PTR _target$[ebp], 0
  001a9	0f 84 cc 02 00
	00		 je	 $LN3@update_gun

; 287  : 	{
; 288  : 		remove_target = FALSE;

  001af	c7 45 fc 00 00
	00 00		 mov	 DWORD PTR _remove_target$[ebp], 0

; 289  : 
; 290  : 		//
; 291  : 		// check range
; 292  : 		//
; 293  : 
; 294  : 		succ = get_local_entity_child_succ (target, LIST_TYPE_GUNSHIP_TARGET);

  001b6	83 7d ec 00	 cmp	 DWORD PTR _target$[ebp], 0
  001ba	74 0a		 je	 SHORT $LN26@update_gun
  001bc	8b 45 ec	 mov	 eax, DWORD PTR _target$[ebp]
  001bf	8b 08		 mov	 ecx, DWORD PTR [eax]
  001c1	89 4d 98	 mov	 DWORD PTR tv165[ebp], ecx
  001c4	eb 21		 jmp	 SHORT $LN27@update_gun
$LN26@update_gun:
  001c6	8b 15 00 00 00
	00		 mov	 edx, DWORD PTR ?__LINE__Var@?0??update_gunship_target_list@@YGXXZ@4JA
  001cc	83 c2 26	 add	 edx, 38			; 00000026H
  001cf	52		 push	 edx
  001d0	68 00 00 00 00	 push	 OFFSET ??_C@_0EO@LDNOEIJA@c?3?2users?2nhv90?2projects?2eech?2ap@
  001d5	a1 00 00 00 00	 mov	 eax, DWORD PTR ?null_entity_pointer_message@@3PBDB ; null_entity_pointer_message
  001da	50		 push	 eax
  001db	e8 00 00 00 00	 call	 ?process_assert@@YGXPBD0H@Z ; process_assert
  001e0	c7 45 98 00 00
	00 00		 mov	 DWORD PTR tv165[ebp], 0
$LN27@update_gun:
  001e7	b9 01 00 00 00	 mov	 ecx, 1
  001ec	85 c9		 test	 ecx, ecx
  001ee	74 09		 je	 SHORT $LN28@update_gun
  001f0	c7 45 94 12 00
	00 00		 mov	 DWORD PTR tv173[ebp], 18 ; 00000012H
  001f7	eb 21		 jmp	 SHORT $LN29@update_gun
$LN28@update_gun:
  001f9	8b 15 00 00 00
	00		 mov	 edx, DWORD PTR ?__LINE__Var@?0??update_gunship_target_list@@YGXXZ@4JA
  001ff	83 c2 26	 add	 edx, 38			; 00000026H
  00202	52		 push	 edx
  00203	68 00 00 00 00	 push	 OFFSET ??_C@_0EO@LDNOEIJA@c?3?2users?2nhv90?2projects?2eech?2ap@
  00208	a1 00 00 00 00	 mov	 eax, DWORD PTR ?overload_invalid_list_type_message@@3PBDB ; overload_invalid_list_type_message
  0020d	50		 push	 eax
  0020e	e8 00 00 00 00	 call	 ?process_assert@@YGXPBD0H@Z ; process_assert
  00213	c7 45 94 00 00
	00 00		 mov	 DWORD PTR tv173[ebp], 0
$LN29@update_gun:
  0021a	6a 12		 push	 18			; 00000012H
  0021c	8b 4d ec	 mov	 ecx, DWORD PTR _target$[ebp]
  0021f	51		 push	 ecx
  00220	69 55 98 b4 00
	00 00		 imul	 edx, DWORD PTR tv165[ebp], 180
  00227	8b 45 94	 mov	 eax, DWORD PTR tv173[ebp]
  0022a	8b 8c 82 00 00
	00 00		 mov	 ecx, DWORD PTR ?fn_get_local_entity_child_succ@@3PAY0CN@P6GPAUENTITY@@PAU1@W4LIST_TYPES@@@ZA[edx+eax*4]
  00231	ff d1		 call	 ecx
  00233	89 45 e4	 mov	 DWORD PTR _succ$[ebp], eax

; 295  : 
; 296  : 		target_position = get_local_entity_vec3d_ptr (target, VEC3D_TYPE_POSITION);

  00236	83 7d ec 00	 cmp	 DWORD PTR _target$[ebp], 0
  0023a	74 0a		 je	 SHORT $LN30@update_gun
  0023c	8b 45 ec	 mov	 eax, DWORD PTR _target$[ebp]
  0023f	8b 08		 mov	 ecx, DWORD PTR [eax]
  00241	89 4d 98	 mov	 DWORD PTR tv185[ebp], ecx
  00244	eb 21		 jmp	 SHORT $LN31@update_gun
$LN30@update_gun:
  00246	8b 15 00 00 00
	00		 mov	 edx, DWORD PTR ?__LINE__Var@?0??update_gunship_target_list@@YGXXZ@4JA
  0024c	83 c2 28	 add	 edx, 40			; 00000028H
  0024f	52		 push	 edx
  00250	68 00 00 00 00	 push	 OFFSET ??_C@_0EO@LDNOEIJA@c?3?2users?2nhv90?2projects?2eech?2ap@
  00255	a1 00 00 00 00	 mov	 eax, DWORD PTR ?null_entity_pointer_message@@3PBDB ; null_entity_pointer_message
  0025a	50		 push	 eax
  0025b	e8 00 00 00 00	 call	 ?process_assert@@YGXPBD0H@Z ; process_assert
  00260	c7 45 98 00 00
	00 00		 mov	 DWORD PTR tv185[ebp], 0
$LN31@update_gun:
  00267	b9 01 00 00 00	 mov	 ecx, 1
  0026c	85 c9		 test	 ecx, ecx
  0026e	74 09		 je	 SHORT $LN32@update_gun
  00270	c7 45 94 08 00
	00 00		 mov	 DWORD PTR tv193[ebp], 8
  00277	eb 21		 jmp	 SHORT $LN33@update_gun
$LN32@update_gun:
  00279	8b 15 00 00 00
	00		 mov	 edx, DWORD PTR ?__LINE__Var@?0??update_gunship_target_list@@YGXXZ@4JA
  0027f	83 c2 28	 add	 edx, 40			; 00000028H
  00282	52		 push	 edx
  00283	68 00 00 00 00	 push	 OFFSET ??_C@_0EO@LDNOEIJA@c?3?2users?2nhv90?2projects?2eech?2ap@
  00288	a1 00 00 00 00	 mov	 eax, DWORD PTR ?overload_invalid_vec3d_type_message@@3PBDB ; overload_invalid_vec3d_type_message
  0028d	50		 push	 eax
  0028e	e8 00 00 00 00	 call	 ?process_assert@@YGXPBD0H@Z ; process_assert
  00293	c7 45 94 00 00
	00 00		 mov	 DWORD PTR tv193[ebp], 0
$LN33@update_gun:
  0029a	6a 08		 push	 8
  0029c	8b 4d ec	 mov	 ecx, DWORD PTR _target$[ebp]
  0029f	51		 push	 ecx
  002a0	6b 55 98 60	 imul	 edx, DWORD PTR tv185[ebp], 96
  002a4	8b 45 94	 mov	 eax, DWORD PTR tv193[ebp]
  002a7	8b 8c 82 00 00
	00 00		 mov	 ecx, DWORD PTR ?fn_get_local_entity_vec3d_ptr@@3PAY0BI@P6GPAUVEC3D@@PAUENTITY@@W4VEC3D_TYPES@@@ZA[edx+eax*4]
  002ae	ff d1		 call	 ecx
  002b0	89 45 dc	 mov	 DWORD PTR _target_position$[ebp], eax

; 297  : 
; 298  : 		sqr_target_range = get_sqr_3d_range (source_position, target_position);

  002b3	8b 45 dc	 mov	 eax, DWORD PTR _target_position$[ebp]
  002b6	50		 push	 eax
  002b7	8b 4d e0	 mov	 ecx, DWORD PTR _source_position$[ebp]
  002ba	51		 push	 ecx
  002bb	e8 00 00 00 00	 call	 ?get_sqr_3d_range@@YGMPBUVEC3D@@0@Z ; get_sqr_3d_range
  002c0	d9 5d f8	 fstp	 DWORD PTR _sqr_target_range$[ebp]

; 299  : 
; 300  : 		if (sqr_target_range > SQR_MAX_TARGET_RANGE)

  002c3	f3 0f 5a 45 f8	 cvtss2sd xmm0, DWORD PTR _sqr_target_range$[ebp]
  002c8	66 0f 2f 05 00
	00 00 00	 comisd	 xmm0, QWORD PTR __real@41d2410110000000
  002d0	76 07		 jbe	 SHORT $LN5@update_gun

; 301  : 		{
; 302  : 			remove_target = TRUE;

  002d2	c7 45 fc 01 00
	00 00		 mov	 DWORD PTR _remove_target$[ebp], 1
$LN5@update_gun:

; 303  : 		}
; 304  : 
; 305  : 		//
; 306  : 		// check air radar contact timeout
; 307  : 		//
; 308  : 
; 309  : 		timeout = get_local_entity_float_value (target, FLOAT_TYPE_AIR_RADAR_CONTACT_TIMEOUT);

  002d9	83 7d ec 00	 cmp	 DWORD PTR _target$[ebp], 0
  002dd	74 0a		 je	 SHORT $LN34@update_gun
  002df	8b 45 ec	 mov	 eax, DWORD PTR _target$[ebp]
  002e2	8b 08		 mov	 ecx, DWORD PTR [eax]
  002e4	89 4d 98	 mov	 DWORD PTR tv210[ebp], ecx
  002e7	eb 21		 jmp	 SHORT $LN35@update_gun
$LN34@update_gun:
  002e9	8b 15 00 00 00
	00		 mov	 edx, DWORD PTR ?__LINE__Var@?0??update_gunship_target_list@@YGXXZ@4JA
  002ef	83 c2 35	 add	 edx, 53			; 00000035H
  002f2	52		 push	 edx
  002f3	68 00 00 00 00	 push	 OFFSET ??_C@_0EO@LDNOEIJA@c?3?2users?2nhv90?2projects?2eech?2ap@
  002f8	a1 00 00 00 00	 mov	 eax, DWORD PTR ?null_entity_pointer_message@@3PBDB ; null_entity_pointer_message
  002fd	50		 push	 eax
  002fe	e8 00 00 00 00	 call	 ?process_assert@@YGXPBD0H@Z ; process_assert
  00303	c7 45 98 00 00
	00 00		 mov	 DWORD PTR tv210[ebp], 0
$LN35@update_gun:
  0030a	b9 01 00 00 00	 mov	 ecx, 1
  0030f	85 c9		 test	 ecx, ecx
  00311	74 09		 je	 SHORT $LN36@update_gun
  00313	c7 45 94 02 00
	00 00		 mov	 DWORD PTR tv218[ebp], 2
  0031a	eb 21		 jmp	 SHORT $LN37@update_gun
$LN36@update_gun:
  0031c	8b 15 00 00 00
	00		 mov	 edx, DWORD PTR ?__LINE__Var@?0??update_gunship_target_list@@YGXXZ@4JA
  00322	83 c2 35	 add	 edx, 53			; 00000035H
  00325	52		 push	 edx
  00326	68 00 00 00 00	 push	 OFFSET ??_C@_0EO@LDNOEIJA@c?3?2users?2nhv90?2projects?2eech?2ap@
  0032b	a1 00 00 00 00	 mov	 eax, DWORD PTR ?overload_invalid_float_type_message@@3PBDB ; overload_invalid_float_type_message
  00330	50		 push	 eax
  00331	e8 00 00 00 00	 call	 ?process_assert@@YGXPBD0H@Z ; process_assert
  00336	c7 45 94 00 00
	00 00		 mov	 DWORD PTR tv218[ebp], 0
$LN37@update_gun:
  0033d	6a 02		 push	 2
  0033f	8b 4d ec	 mov	 ecx, DWORD PTR _target$[ebp]
  00342	51		 push	 ecx
  00343	69 55 98 bc 02
	00 00		 imul	 edx, DWORD PTR tv210[ebp], 700
  0034a	8b 45 94	 mov	 eax, DWORD PTR tv218[ebp]
  0034d	8b 8c 82 00 00
	00 00		 mov	 ecx, DWORD PTR ?fn_get_local_entity_float_value@@3PAY0KP@P6GMPAUENTITY@@W4FLOAT_TYPES@@@ZA[edx+eax*4]
  00354	ff d1		 call	 ecx
  00356	d9 5d f4	 fstp	 DWORD PTR _timeout$[ebp]

; 310  : 
; 311  : 		if (timeout != AIR_RADAR_CONTACT_TIMEOUT_INVALID)

  00359	f3 0f 10 45 f4	 movss	 xmm0, DWORD PTR _timeout$[ebp]
  0035e	0f 2e 05 00 00
	00 00		 ucomiss xmm0, DWORD PTR __real@49742400
  00365	9f		 lahf
  00366	f6 c4 44	 test	 ah, 68			; 00000044H
  00369	0f 8b da 00 00
	00		 jnp	 $LN6@update_gun

; 312  : 		{
; 313  : 			timeout -= get_delta_time ();

  0036f	f3 0f 10 45 f4	 movss	 xmm0, DWORD PTR _timeout$[ebp]
  00374	f3 0f 5c 05 00
	00 00 00	 subss	 xmm0, DWORD PTR ?system_delta_time@@3MA
  0037c	f3 0f 11 45 f4	 movss	 DWORD PTR _timeout$[ebp], xmm0

; 314  : 
; 315  : 			if (timeout <= 0.0)

  00381	f3 0f 5a 45 f4	 cvtss2sd xmm0, DWORD PTR _timeout$[ebp]
  00386	0f 57 c9	 xorps	 xmm1, xmm1
  00389	66 0f 2f c8	 comisd	 xmm1, xmm0
  0038d	72 32		 jb	 SHORT $LN9@update_gun

; 316  : 			{
; 317  : 				//
; 318  : 				// reset timeout to prevent repeatedly testing if the target is valid for air radar
; 319  : 				//
; 320  : 
; 321  : 				timeout = AIR_RADAR_CONTACT_TIMEOUT;

  0038f	f3 0f 10 05 00
	00 00 00	 movss	 xmm0, DWORD PTR __real@41200000
  00397	f3 0f 11 45 f4	 movss	 DWORD PTR _timeout$[ebp], xmm0

; 322  : 
; 323  : 				if (get_gunship_target_valid_for_air_radar (target))

  0039c	8b 45 ec	 mov	 eax, DWORD PTR _target$[ebp]
  0039f	50		 push	 eax
  003a0	e8 00 00 00 00	 call	 ?get_gunship_target_valid_for_air_radar@@YGHPAUENTITY@@@Z ; get_gunship_target_valid_for_air_radar
  003a5	85 c0		 test	 eax, eax
  003a7	74 18		 je	 SHORT $LN9@update_gun

; 324  : 				{
; 325  : 					if (!((target == current_target) && (target_acquisition_system != TARGET_ACQUISITION_SYSTEM_AIR_RADAR)))

  003a9	8b 45 ec	 mov	 eax, DWORD PTR _target$[ebp]
  003ac	3b 45 e8	 cmp	 eax, DWORD PTR _current_target$[ebp]
  003af	75 09		 jne	 SHORT $LN10@update_gun
  003b1	83 3d 00 00 00
	00 02		 cmp	 DWORD PTR ?target_acquisition_system@@3W4TARGET_ACQUISITION_SYSTEMS@@A, 2 ; target_acquisition_system
  003b8	75 07		 jne	 SHORT $LN9@update_gun
$LN10@update_gun:

; 326  : 					{
; 327  : 						remove_target = TRUE;

  003ba	c7 45 fc 01 00
	00 00		 mov	 DWORD PTR _remove_target$[ebp], 1
$LN9@update_gun:

; 328  : 					}
; 329  : 				}
; 330  : 			}
; 331  : 
; 332  : 			set_local_entity_float_value (target, FLOAT_TYPE_AIR_RADAR_CONTACT_TIMEOUT, timeout);

  003c1	83 7d ec 00	 cmp	 DWORD PTR _target$[ebp], 0
  003c5	74 0a		 je	 SHORT $LN38@update_gun
  003c7	8b 45 ec	 mov	 eax, DWORD PTR _target$[ebp]
  003ca	8b 08		 mov	 ecx, DWORD PTR [eax]
  003cc	89 4d 98	 mov	 DWORD PTR tv239[ebp], ecx
  003cf	eb 21		 jmp	 SHORT $LN39@update_gun
$LN38@update_gun:
  003d1	8b 15 00 00 00
	00		 mov	 edx, DWORD PTR ?__LINE__Var@?0??update_gunship_target_list@@YGXXZ@4JA
  003d7	83 c2 4c	 add	 edx, 76			; 0000004cH
  003da	52		 push	 edx
  003db	68 00 00 00 00	 push	 OFFSET ??_C@_0EO@LDNOEIJA@c?3?2users?2nhv90?2projects?2eech?2ap@
  003e0	a1 00 00 00 00	 mov	 eax, DWORD PTR ?null_entity_pointer_message@@3PBDB ; null_entity_pointer_message
  003e5	50		 push	 eax
  003e6	e8 00 00 00 00	 call	 ?process_assert@@YGXPBD0H@Z ; process_assert
  003eb	c7 45 98 00 00
	00 00		 mov	 DWORD PTR tv239[ebp], 0
$LN39@update_gun:
  003f2	b9 01 00 00 00	 mov	 ecx, 1
  003f7	85 c9		 test	 ecx, ecx
  003f9	74 09		 je	 SHORT $LN40@update_gun
  003fb	c7 45 94 02 00
	00 00		 mov	 DWORD PTR tv247[ebp], 2
  00402	eb 21		 jmp	 SHORT $LN41@update_gun
$LN40@update_gun:
  00404	8b 15 00 00 00
	00		 mov	 edx, DWORD PTR ?__LINE__Var@?0??update_gunship_target_list@@YGXXZ@4JA
  0040a	83 c2 4c	 add	 edx, 76			; 0000004cH
  0040d	52		 push	 edx
  0040e	68 00 00 00 00	 push	 OFFSET ??_C@_0EO@LDNOEIJA@c?3?2users?2nhv90?2projects?2eech?2ap@
  00413	a1 00 00 00 00	 mov	 eax, DWORD PTR ?overload_invalid_float_type_message@@3PBDB ; overload_invalid_float_type_message
  00418	50		 push	 eax
  00419	e8 00 00 00 00	 call	 ?process_assert@@YGXPBD0H@Z ; process_assert
  0041e	c7 45 94 00 00
	00 00		 mov	 DWORD PTR tv247[ebp], 0
$LN41@update_gun:
  00425	51		 push	 ecx
  00426	f3 0f 10 45 f4	 movss	 xmm0, DWORD PTR _timeout$[ebp]
  0042b	f3 0f 11 04 24	 movss	 DWORD PTR [esp], xmm0
  00430	6a 02		 push	 2
  00432	8b 4d ec	 mov	 ecx, DWORD PTR _target$[ebp]
  00435	51		 push	 ecx
  00436	69 55 98 bc 02
	00 00		 imul	 edx, DWORD PTR tv239[ebp], 700
  0043d	8b 45 94	 mov	 eax, DWORD PTR tv247[ebp]
  00440	8b 8c 82 00 00
	00 00		 mov	 ecx, DWORD PTR ?fn_set_local_entity_float_value@@3PAY0KP@P6GXPAUENTITY@@W4FLOAT_TYPES@@M@ZA[edx+eax*4]
  00447	ff d1		 call	 ecx
$LN6@update_gun:

; 333  : 		}
; 334  : 
; 335  : 		if (remove_target)

  00449	83 7d fc 00	 cmp	 DWORD PTR _remove_target$[ebp], 0
  0044d	74 21		 je	 SHORT $LN11@update_gun

; 336  : 		{
; 337  : 			//
; 338  : 			// if unlinking the gunship target then do this client/server
; 339  : 			//
; 340  : 
; 341  : 			if (target == current_target)

  0044f	8b 45 ec	 mov	 eax, DWORD PTR _target$[ebp]
  00452	3b 45 e8	 cmp	 eax, DWORD PTR _current_target$[ebp]
  00455	75 0e		 jne	 SHORT $LN12@update_gun

; 342  : 			{
; 343  : 				set_gunship_target (NULL);

  00457	6a 00		 push	 0
  00459	e8 00 00 00 00	 call	 ?set_gunship_target@@YGXPAUENTITY@@@Z ; set_gunship_target

; 344  : 
; 345  : 				current_target = NULL;

  0045e	c7 45 e8 00 00
	00 00		 mov	 DWORD PTR _current_target$[ebp], 0
$LN12@update_gun:

; 346  : 			}
; 347  : 
; 348  : 			delete_local_entity_from_parents_child_list (target, LIST_TYPE_GUNSHIP_TARGET);

  00465	6a 12		 push	 18			; 00000012H
  00467	8b 45 ec	 mov	 eax, DWORD PTR _target$[ebp]
  0046a	50		 push	 eax
  0046b	e8 00 00 00 00	 call	 ?delete_local_entity_from_parents_child_list@@YGXPAUENTITY@@W4LIST_TYPES@@@Z ; delete_local_entity_from_parents_child_list
$LN11@update_gun:

; 349  : 		}
; 350  : 
; 351  : 		target = succ;

  00470	8b 45 e4	 mov	 eax, DWORD PTR _succ$[ebp]
  00473	89 45 ec	 mov	 DWORD PTR _target$[ebp], eax

; 352  : 	}

  00476	e9 2a fd ff ff	 jmp	 $LN2@update_gun
$LN3@update_gun:

; 353  : }

  0047b	5f		 pop	 edi
  0047c	5e		 pop	 esi
  0047d	5b		 pop	 ebx
  0047e	8b e5		 mov	 esp, ebp
  00480	5d		 pop	 ebp
  00481	c3		 ret	 0
?update_gunship_target_list@@YGXXZ ENDP			; update_gunship_target_list
_TEXT	ENDS
; Function compile flags: /Odtp /ZI
; File c:\users\nhv90\projects\eech\aphavoc\source\gunships\avionics\common\co_tgt.c
;	COMDAT ?cpg_report_target@@YGXPAUENTITY@@@Z
_TEXT	SEGMENT
tv82 = -76						; size = 4
tv224 = -72						; size = 4
tv185 = -72						; size = 4
tv156 = -72						; size = 4
tv95 = -72						; size = 4
tv76 = -72						; size = 4
tv217 = -68						; size = 4
tv178 = -68						; size = 4
tv149 = -68						; size = 4
tv88 = -68						; size = 4
tv69 = -68						; size = 4
_target$ = 8						; size = 4
?cpg_report_target@@YGXPAUENTITY@@@Z PROC		; cpg_report_target, COMDAT

; 1211 : {

  00000	55		 push	 ebp
  00001	8b ec		 mov	 ebp, esp
  00003	83 ec 4c	 sub	 esp, 76			; 0000004cH
  00006	53		 push	 ebx
  00007	56		 push	 esi
  00008	57		 push	 edi

; 1212 : 	switch (get_local_entity_int_value (target, INT_TYPE_THREAT_TYPE))

  00009	83 7d 08 00	 cmp	 DWORD PTR _target$[ebp], 0
  0000d	74 0a		 je	 SHORT $LN17@cpg_report
  0000f	8b 45 08	 mov	 eax, DWORD PTR _target$[ebp]
  00012	8b 08		 mov	 ecx, DWORD PTR [eax]
  00014	89 4d bc	 mov	 DWORD PTR tv69[ebp], ecx
  00017	eb 1d		 jmp	 SHORT $LN18@cpg_report
$LN17@cpg_report:
  00019	68 bc 04 00 00	 push	 1212			; 000004bcH
  0001e	68 00 00 00 00	 push	 OFFSET ??_C@_0EO@LDNOEIJA@c?3?2users?2nhv90?2projects?2eech?2ap@
  00023	8b 15 00 00 00
	00		 mov	 edx, DWORD PTR ?null_entity_pointer_message@@3PBDB ; null_entity_pointer_message
  00029	52		 push	 edx
  0002a	e8 00 00 00 00	 call	 ?process_assert@@YGXPBD0H@Z ; process_assert
  0002f	c7 45 bc 00 00
	00 00		 mov	 DWORD PTR tv69[ebp], 0
$LN18@cpg_report:
  00036	b8 01 00 00 00	 mov	 eax, 1
  0003b	85 c0		 test	 eax, eax
  0003d	74 09		 je	 SHORT $LN19@cpg_report
  0003f	c7 45 b8 e9 00
	00 00		 mov	 DWORD PTR tv76[ebp], 233 ; 000000e9H
  00046	eb 1d		 jmp	 SHORT $LN20@cpg_report
$LN19@cpg_report:
  00048	68 bc 04 00 00	 push	 1212			; 000004bcH
  0004d	68 00 00 00 00	 push	 OFFSET ??_C@_0EO@LDNOEIJA@c?3?2users?2nhv90?2projects?2eech?2ap@
  00052	8b 0d 00 00 00
	00		 mov	 ecx, DWORD PTR ?overload_invalid_int_type_message@@3PBDB ; overload_invalid_int_type_message
  00058	51		 push	 ecx
  00059	e8 00 00 00 00	 call	 ?process_assert@@YGXPBD0H@Z ; process_assert
  0005e	c7 45 b8 00 00
	00 00		 mov	 DWORD PTR tv76[ebp], 0
$LN20@cpg_report:
  00065	68 e9 00 00 00	 push	 233			; 000000e9H
  0006a	8b 55 08	 mov	 edx, DWORD PTR _target$[ebp]
  0006d	52		 push	 edx
  0006e	69 45 bc 5c 04
	00 00		 imul	 eax, DWORD PTR tv69[ebp], 1116
  00075	8b 4d b8	 mov	 ecx, DWORD PTR tv76[ebp]
  00078	8b 94 88 00 00
	00 00		 mov	 edx, DWORD PTR ?fn_get_local_entity_int_value@@3PAY0BBH@P6GHPAUENTITY@@W4INT_TYPES@@@ZA[eax+ecx*4]
  0007f	ff d2		 call	 edx
  00081	89 45 b4	 mov	 DWORD PTR tv82[ebp], eax
  00084	83 7d b4 04	 cmp	 DWORD PTR tv82[ebp], 4
  00088	74 1e		 je	 SHORT $LN5@cpg_report
  0008a	83 7d b4 05	 cmp	 DWORD PTR tv82[ebp], 5
  0008e	0f 84 6e 01 00
	00		 je	 $LN9@cpg_report
  00094	83 7d b4 06	 cmp	 DWORD PTR tv82[ebp], 6
  00098	0f 84 42 02 00
	00		 je	 $LN12@cpg_report
  0009e	e9 16 03 00 00	 jmp	 $LN1@cpg_report

; 1213 : 	{
; 1214 : 		////////////////////////////////////////
; 1215 : 		case THREAT_TYPE_INVALID:
; 1216 : 		case THREAT_TYPE_RF_MISSILE:
; 1217 : 		case THREAT_TYPE_IR_MISSILE:
; 1218 : 		case THREAT_TYPE_LASER_MISSILE:
; 1219 : 		////////////////////////////////////////
; 1220 : 		{
; 1221 : 			break;

  000a3	e9 11 03 00 00	 jmp	 $LN1@cpg_report
$LN5@cpg_report:

; 1222 : 		}
; 1223 : 		////////////////////////////////////////
; 1224 : 		case THREAT_TYPE_AIRBORNE_RADAR:
; 1225 : 		////////////////////////////////////////
; 1226 : 		{
; 1227 : 				if (get_local_entity_int_value (target, INT_TYPE_IDENTIFY_HELICOPTER))

  000a8	83 7d 08 00	 cmp	 DWORD PTR _target$[ebp], 0
  000ac	74 0a		 je	 SHORT $LN21@cpg_report
  000ae	8b 45 08	 mov	 eax, DWORD PTR _target$[ebp]
  000b1	8b 08		 mov	 ecx, DWORD PTR [eax]
  000b3	89 4d bc	 mov	 DWORD PTR tv88[ebp], ecx
  000b6	eb 1d		 jmp	 SHORT $LN22@cpg_report
$LN21@cpg_report:
  000b8	68 cb 04 00 00	 push	 1227			; 000004cbH
  000bd	68 00 00 00 00	 push	 OFFSET ??_C@_0EO@LDNOEIJA@c?3?2users?2nhv90?2projects?2eech?2ap@
  000c2	8b 15 00 00 00
	00		 mov	 edx, DWORD PTR ?null_entity_pointer_message@@3PBDB ; null_entity_pointer_message
  000c8	52		 push	 edx
  000c9	e8 00 00 00 00	 call	 ?process_assert@@YGXPBD0H@Z ; process_assert
  000ce	c7 45 bc 00 00
	00 00		 mov	 DWORD PTR tv88[ebp], 0
$LN22@cpg_report:
  000d5	b8 01 00 00 00	 mov	 eax, 1
  000da	85 c0		 test	 eax, eax
  000dc	74 09		 je	 SHORT $LN23@cpg_report
  000de	c7 45 b8 5c 00
	00 00		 mov	 DWORD PTR tv95[ebp], 92	; 0000005cH
  000e5	eb 1d		 jmp	 SHORT $LN24@cpg_report
$LN23@cpg_report:
  000e7	68 cb 04 00 00	 push	 1227			; 000004cbH
  000ec	68 00 00 00 00	 push	 OFFSET ??_C@_0EO@LDNOEIJA@c?3?2users?2nhv90?2projects?2eech?2ap@
  000f1	8b 0d 00 00 00
	00		 mov	 ecx, DWORD PTR ?overload_invalid_int_type_message@@3PBDB ; overload_invalid_int_type_message
  000f7	51		 push	 ecx
  000f8	e8 00 00 00 00	 call	 ?process_assert@@YGXPBD0H@Z ; process_assert
  000fd	c7 45 b8 00 00
	00 00		 mov	 DWORD PTR tv95[ebp], 0
$LN24@cpg_report:
  00104	6a 5c		 push	 92			; 0000005cH
  00106	8b 55 08	 mov	 edx, DWORD PTR _target$[ebp]
  00109	52		 push	 edx
  0010a	69 45 bc 5c 04
	00 00		 imul	 eax, DWORD PTR tv88[ebp], 1116
  00111	8b 4d b8	 mov	 ecx, DWORD PTR tv95[ebp]
  00114	8b 94 88 00 00
	00 00		 mov	 edx, DWORD PTR ?fn_get_local_entity_int_value@@3PAY0BBH@P6GHPAUENTITY@@W4INT_TYPES@@@ZA[eax+ecx*4]
  0011b	ff d2		 call	 edx
  0011d	85 c0		 test	 eax, eax
  0011f	74 34		 je	 SHORT $LN6@cpg_report

; 1228 : 				{
; 1229 : 					play_client_server_cpg_contact_message

  00121	8b 45 08	 mov	 eax, DWORD PTR _target$[ebp]
  00124	50		 push	 eax
  00125	8b 0d 00 00 00
	00		 mov	 ecx, DWORD PTR ?gunship_entity@@3PAUENTITY@@A ; gunship_entity
  0012b	51		 push	 ecx
  0012c	e8 00 00 00 00	 call	 ?get_speech_distance_type@@YG?AW4speech_distance_types@@PAUENTITY@@0@Z ; get_speech_distance_type
  00131	50		 push	 eax
  00132	8b 55 08	 mov	 edx, DWORD PTR _target$[ebp]
  00135	52		 push	 edx
  00136	a1 00 00 00 00	 mov	 eax, DWORD PTR ?gunship_entity@@3PAUENTITY@@A ; gunship_entity
  0013b	50		 push	 eax
  0013c	e8 00 00 00 00	 call	 ?get_speech_heading_type@@YG?AW4speech_heading_types@@PAUENTITY@@0@Z ; get_speech_heading_type
  00141	50		 push	 eax
  00142	6a 73		 push	 115			; 00000073H
  00144	8b 0d 00 00 00
	00		 mov	 ecx, DWORD PTR ?gunship_entity@@3PAUENTITY@@A ; gunship_entity
  0014a	51		 push	 ecx
  0014b	e8 00 00 00 00	 call	 ?play_client_server_cpg_contact_message@@YGHPAUENTITY@@HHH@Z ; play_client_server_cpg_contact_message
  00150	e9 a8 00 00 00	 jmp	 $LN7@cpg_report
$LN6@cpg_report:

; 1230 : 					(
; 1231 : 						get_gunship_entity (),
; 1232 : 						SPEECH_CPG_CHOPPERS,
; 1233 : 						get_speech_heading_type (get_gunship_entity (), target),
; 1234 : 						get_speech_distance_type (get_gunship_entity (), target)
; 1235 : 					);
; 1236 : 				}
; 1237 : 				else if (get_local_entity_int_value (target, INT_TYPE_IDENTIFY_FIXED_WING))

  00155	83 7d 08 00	 cmp	 DWORD PTR _target$[ebp], 0
  00159	74 0a		 je	 SHORT $LN25@cpg_report
  0015b	8b 45 08	 mov	 eax, DWORD PTR _target$[ebp]
  0015e	8b 08		 mov	 ecx, DWORD PTR [eax]
  00160	89 4d bc	 mov	 DWORD PTR tv149[ebp], ecx
  00163	eb 1d		 jmp	 SHORT $LN26@cpg_report
$LN25@cpg_report:
  00165	68 d5 04 00 00	 push	 1237			; 000004d5H
  0016a	68 00 00 00 00	 push	 OFFSET ??_C@_0EO@LDNOEIJA@c?3?2users?2nhv90?2projects?2eech?2ap@
  0016f	8b 15 00 00 00
	00		 mov	 edx, DWORD PTR ?null_entity_pointer_message@@3PBDB ; null_entity_pointer_message
  00175	52		 push	 edx
  00176	e8 00 00 00 00	 call	 ?process_assert@@YGXPBD0H@Z ; process_assert
  0017b	c7 45 bc 00 00
	00 00		 mov	 DWORD PTR tv149[ebp], 0
$LN26@cpg_report:
  00182	b8 01 00 00 00	 mov	 eax, 1
  00187	85 c0		 test	 eax, eax
  00189	74 09		 je	 SHORT $LN27@cpg_report
  0018b	c7 45 b8 5b 00
	00 00		 mov	 DWORD PTR tv156[ebp], 91 ; 0000005bH
  00192	eb 1d		 jmp	 SHORT $LN28@cpg_report
$LN27@cpg_report:
  00194	68 d5 04 00 00	 push	 1237			; 000004d5H
  00199	68 00 00 00 00	 push	 OFFSET ??_C@_0EO@LDNOEIJA@c?3?2users?2nhv90?2projects?2eech?2ap@
  0019e	8b 0d 00 00 00
	00		 mov	 ecx, DWORD PTR ?overload_invalid_int_type_message@@3PBDB ; overload_invalid_int_type_message
  001a4	51		 push	 ecx
  001a5	e8 00 00 00 00	 call	 ?process_assert@@YGXPBD0H@Z ; process_assert
  001aa	c7 45 b8 00 00
	00 00		 mov	 DWORD PTR tv156[ebp], 0
$LN28@cpg_report:
  001b1	6a 5b		 push	 91			; 0000005bH
  001b3	8b 55 08	 mov	 edx, DWORD PTR _target$[ebp]
  001b6	52		 push	 edx
  001b7	69 45 bc 5c 04
	00 00		 imul	 eax, DWORD PTR tv149[ebp], 1116
  001be	8b 4d b8	 mov	 ecx, DWORD PTR tv156[ebp]
  001c1	8b 94 88 00 00
	00 00		 mov	 edx, DWORD PTR ?fn_get_local_entity_int_value@@3PAY0BBH@P6GHPAUENTITY@@W4INT_TYPES@@@ZA[eax+ecx*4]
  001c8	ff d2		 call	 edx
  001ca	85 c0		 test	 eax, eax
  001cc	74 2f		 je	 SHORT $LN7@cpg_report

; 1238 : 				{
; 1239 : 					play_client_server_cpg_contact_message

  001ce	8b 45 08	 mov	 eax, DWORD PTR _target$[ebp]
  001d1	50		 push	 eax
  001d2	8b 0d 00 00 00
	00		 mov	 ecx, DWORD PTR ?gunship_entity@@3PAUENTITY@@A ; gunship_entity
  001d8	51		 push	 ecx
  001d9	e8 00 00 00 00	 call	 ?get_speech_distance_type@@YG?AW4speech_distance_types@@PAUENTITY@@0@Z ; get_speech_distance_type
  001de	50		 push	 eax
  001df	8b 55 08	 mov	 edx, DWORD PTR _target$[ebp]
  001e2	52		 push	 edx
  001e3	a1 00 00 00 00	 mov	 eax, DWORD PTR ?gunship_entity@@3PAUENTITY@@A ; gunship_entity
  001e8	50		 push	 eax
  001e9	e8 00 00 00 00	 call	 ?get_speech_heading_type@@YG?AW4speech_heading_types@@PAUENTITY@@0@Z ; get_speech_heading_type
  001ee	50		 push	 eax
  001ef	6a 74		 push	 116			; 00000074H
  001f1	8b 0d 00 00 00
	00		 mov	 ecx, DWORD PTR ?gunship_entity@@3PAUENTITY@@A ; gunship_entity
  001f7	51		 push	 ecx
  001f8	e8 00 00 00 00	 call	 ?play_client_server_cpg_contact_message@@YGHPAUENTITY@@HHH@Z ; play_client_server_cpg_contact_message
$LN7@cpg_report:

; 1240 : 					(
; 1241 : 						get_gunship_entity (),
; 1242 : 						SPEECH_CPG_FAST_MOVERS,
; 1243 : 						get_speech_heading_type (get_gunship_entity (), target),
; 1244 : 						get_speech_distance_type (get_gunship_entity (), target)
; 1245 : 					);
; 1246 : 				}
; 1247 : 
; 1248 : 			break;

  001fd	e9 b7 01 00 00	 jmp	 $LN1@cpg_report
$LN9@cpg_report:

; 1249 : 		}
; 1250 : 		////////////////////////////////////////
; 1251 : 		case THREAT_TYPE_SAM:
; 1252 : 		////////////////////////////////////////
; 1253 : 		{
; 1254 : 				if (get_local_entity_int_value (target, INT_TYPE_IDENTIFY_SHIP_VEHICLE))

  00202	83 7d 08 00	 cmp	 DWORD PTR _target$[ebp], 0
  00206	74 0a		 je	 SHORT $LN29@cpg_report
  00208	8b 45 08	 mov	 eax, DWORD PTR _target$[ebp]
  0020b	8b 08		 mov	 ecx, DWORD PTR [eax]
  0020d	89 4d bc	 mov	 DWORD PTR tv178[ebp], ecx
  00210	eb 1d		 jmp	 SHORT $LN30@cpg_report
$LN29@cpg_report:
  00212	68 e6 04 00 00	 push	 1254			; 000004e6H
  00217	68 00 00 00 00	 push	 OFFSET ??_C@_0EO@LDNOEIJA@c?3?2users?2nhv90?2projects?2eech?2ap@
  0021c	8b 15 00 00 00
	00		 mov	 edx, DWORD PTR ?null_entity_pointer_message@@3PBDB ; null_entity_pointer_message
  00222	52		 push	 edx
  00223	e8 00 00 00 00	 call	 ?process_assert@@YGXPBD0H@Z ; process_assert
  00228	c7 45 bc 00 00
	00 00		 mov	 DWORD PTR tv178[ebp], 0
$LN30@cpg_report:
  0022f	b8 01 00 00 00	 mov	 eax, 1
  00234	85 c0		 test	 eax, eax
  00236	74 09		 je	 SHORT $LN31@cpg_report
  00238	c7 45 b8 5f 00
	00 00		 mov	 DWORD PTR tv185[ebp], 95 ; 0000005fH
  0023f	eb 1d		 jmp	 SHORT $LN32@cpg_report
$LN31@cpg_report:
  00241	68 e6 04 00 00	 push	 1254			; 000004e6H
  00246	68 00 00 00 00	 push	 OFFSET ??_C@_0EO@LDNOEIJA@c?3?2users?2nhv90?2projects?2eech?2ap@
  0024b	8b 0d 00 00 00
	00		 mov	 ecx, DWORD PTR ?overload_invalid_int_type_message@@3PBDB ; overload_invalid_int_type_message
  00251	51		 push	 ecx
  00252	e8 00 00 00 00	 call	 ?process_assert@@YGXPBD0H@Z ; process_assert
  00257	c7 45 b8 00 00
	00 00		 mov	 DWORD PTR tv185[ebp], 0
$LN32@cpg_report:
  0025e	6a 5f		 push	 95			; 0000005fH
  00260	8b 55 08	 mov	 edx, DWORD PTR _target$[ebp]
  00263	52		 push	 edx
  00264	69 45 bc 5c 04
	00 00		 imul	 eax, DWORD PTR tv178[ebp], 1116
  0026b	8b 4d b8	 mov	 ecx, DWORD PTR tv185[ebp]
  0026e	8b 94 88 00 00
	00 00		 mov	 edx, DWORD PTR ?fn_get_local_entity_int_value@@3PAY0BBH@P6GHPAUENTITY@@W4INT_TYPES@@@ZA[eax+ecx*4]
  00275	ff d2		 call	 edx
  00277	85 c0		 test	 eax, eax
  00279	74 31		 je	 SHORT $LN10@cpg_report

; 1255 : 				{
; 1256 : 					play_client_server_cpg_contact_message

  0027b	8b 45 08	 mov	 eax, DWORD PTR _target$[ebp]
  0027e	50		 push	 eax
  0027f	8b 0d 00 00 00
	00		 mov	 ecx, DWORD PTR ?gunship_entity@@3PAUENTITY@@A ; gunship_entity
  00285	51		 push	 ecx
  00286	e8 00 00 00 00	 call	 ?get_speech_distance_type@@YG?AW4speech_distance_types@@PAUENTITY@@0@Z ; get_speech_distance_type
  0028b	50		 push	 eax
  0028c	8b 55 08	 mov	 edx, DWORD PTR _target$[ebp]
  0028f	52		 push	 edx
  00290	a1 00 00 00 00	 mov	 eax, DWORD PTR ?gunship_entity@@3PAUENTITY@@A ; gunship_entity
  00295	50		 push	 eax
  00296	e8 00 00 00 00	 call	 ?get_speech_heading_type@@YG?AW4speech_heading_types@@PAUENTITY@@0@Z ; get_speech_heading_type
  0029b	50		 push	 eax
  0029c	6a 7d		 push	 125			; 0000007dH
  0029e	8b 0d 00 00 00
	00		 mov	 ecx, DWORD PTR ?gunship_entity@@3PAUENTITY@@A ; gunship_entity
  002a4	51		 push	 ecx
  002a5	e8 00 00 00 00	 call	 ?play_client_server_cpg_contact_message@@YGHPAUENTITY@@HHH@Z ; play_client_server_cpg_contact_message

; 1257 : 					(
; 1258 : 						get_gunship_entity (),
; 1259 : 						SPEECH_CPG_WARSHIPS,
; 1260 : 						get_speech_heading_type (get_gunship_entity (), target),
; 1261 : 						get_speech_distance_type (get_gunship_entity (), target)
; 1262 : 					);
; 1263 : 				}
; 1264 : 				else

  002aa	eb 2f		 jmp	 SHORT $LN11@cpg_report
$LN10@cpg_report:

; 1265 : 				{
; 1266 : 					play_client_server_cpg_contact_message

  002ac	8b 45 08	 mov	 eax, DWORD PTR _target$[ebp]
  002af	50		 push	 eax
  002b0	8b 0d 00 00 00
	00		 mov	 ecx, DWORD PTR ?gunship_entity@@3PAUENTITY@@A ; gunship_entity
  002b6	51		 push	 ecx
  002b7	e8 00 00 00 00	 call	 ?get_speech_distance_type@@YG?AW4speech_distance_types@@PAUENTITY@@0@Z ; get_speech_distance_type
  002bc	50		 push	 eax
  002bd	8b 55 08	 mov	 edx, DWORD PTR _target$[ebp]
  002c0	52		 push	 edx
  002c1	a1 00 00 00 00	 mov	 eax, DWORD PTR ?gunship_entity@@3PAUENTITY@@A ; gunship_entity
  002c6	50		 push	 eax
  002c7	e8 00 00 00 00	 call	 ?get_speech_heading_type@@YG?AW4speech_heading_types@@PAUENTITY@@0@Z ; get_speech_heading_type
  002cc	50		 push	 eax
  002cd	6a 7b		 push	 123			; 0000007bH
  002cf	8b 0d 00 00 00
	00		 mov	 ecx, DWORD PTR ?gunship_entity@@3PAUENTITY@@A ; gunship_entity
  002d5	51		 push	 ecx
  002d6	e8 00 00 00 00	 call	 ?play_client_server_cpg_contact_message@@YGHPAUENTITY@@HHH@Z ; play_client_server_cpg_contact_message
$LN11@cpg_report:

; 1267 : 					(
; 1268 : 						get_gunship_entity (),
; 1269 : 						SPEECH_CPG_SAM,
; 1270 : 						get_speech_heading_type (get_gunship_entity (), target),
; 1271 : 						get_speech_distance_type (get_gunship_entity (), target)
; 1272 : 					);
; 1273 : 				}
; 1274 : 
; 1275 : 			break;

  002db	e9 d9 00 00 00	 jmp	 $LN1@cpg_report
$LN12@cpg_report:

; 1276 : 		}
; 1277 : 		////////////////////////////////////////
; 1278 : 		case THREAT_TYPE_AAA:
; 1279 : 		////////////////////////////////////////
; 1280 : 		{
; 1281 : 				if (get_local_entity_int_value (target, INT_TYPE_IDENTIFY_SHIP_VEHICLE))

  002e0	83 7d 08 00	 cmp	 DWORD PTR _target$[ebp], 0
  002e4	74 0a		 je	 SHORT $LN33@cpg_report
  002e6	8b 45 08	 mov	 eax, DWORD PTR _target$[ebp]
  002e9	8b 08		 mov	 ecx, DWORD PTR [eax]
  002eb	89 4d bc	 mov	 DWORD PTR tv217[ebp], ecx
  002ee	eb 1d		 jmp	 SHORT $LN34@cpg_report
$LN33@cpg_report:
  002f0	68 01 05 00 00	 push	 1281			; 00000501H
  002f5	68 00 00 00 00	 push	 OFFSET ??_C@_0EO@LDNOEIJA@c?3?2users?2nhv90?2projects?2eech?2ap@
  002fa	8b 15 00 00 00
	00		 mov	 edx, DWORD PTR ?null_entity_pointer_message@@3PBDB ; null_entity_pointer_message
  00300	52		 push	 edx
  00301	e8 00 00 00 00	 call	 ?process_assert@@YGXPBD0H@Z ; process_assert
  00306	c7 45 bc 00 00
	00 00		 mov	 DWORD PTR tv217[ebp], 0
$LN34@cpg_report:
  0030d	b8 01 00 00 00	 mov	 eax, 1
  00312	85 c0		 test	 eax, eax
  00314	74 09		 je	 SHORT $LN35@cpg_report
  00316	c7 45 b8 5f 00
	00 00		 mov	 DWORD PTR tv224[ebp], 95 ; 0000005fH
  0031d	eb 1d		 jmp	 SHORT $LN36@cpg_report
$LN35@cpg_report:
  0031f	68 01 05 00 00	 push	 1281			; 00000501H
  00324	68 00 00 00 00	 push	 OFFSET ??_C@_0EO@LDNOEIJA@c?3?2users?2nhv90?2projects?2eech?2ap@
  00329	8b 0d 00 00 00
	00		 mov	 ecx, DWORD PTR ?overload_invalid_int_type_message@@3PBDB ; overload_invalid_int_type_message
  0032f	51		 push	 ecx
  00330	e8 00 00 00 00	 call	 ?process_assert@@YGXPBD0H@Z ; process_assert
  00335	c7 45 b8 00 00
	00 00		 mov	 DWORD PTR tv224[ebp], 0
$LN36@cpg_report:
  0033c	6a 5f		 push	 95			; 0000005fH
  0033e	8b 55 08	 mov	 edx, DWORD PTR _target$[ebp]
  00341	52		 push	 edx
  00342	69 45 bc 5c 04
	00 00		 imul	 eax, DWORD PTR tv217[ebp], 1116
  00349	8b 4d b8	 mov	 ecx, DWORD PTR tv224[ebp]
  0034c	8b 94 88 00 00
	00 00		 mov	 edx, DWORD PTR ?fn_get_local_entity_int_value@@3PAY0BBH@P6GHPAUENTITY@@W4INT_TYPES@@@ZA[eax+ecx*4]
  00353	ff d2		 call	 edx
  00355	85 c0		 test	 eax, eax
  00357	74 31		 je	 SHORT $LN13@cpg_report

; 1282 : 				{
; 1283 : 					play_client_server_cpg_contact_message

  00359	8b 45 08	 mov	 eax, DWORD PTR _target$[ebp]
  0035c	50		 push	 eax
  0035d	8b 0d 00 00 00
	00		 mov	 ecx, DWORD PTR ?gunship_entity@@3PAUENTITY@@A ; gunship_entity
  00363	51		 push	 ecx
  00364	e8 00 00 00 00	 call	 ?get_speech_distance_type@@YG?AW4speech_distance_types@@PAUENTITY@@0@Z ; get_speech_distance_type
  00369	50		 push	 eax
  0036a	8b 55 08	 mov	 edx, DWORD PTR _target$[ebp]
  0036d	52		 push	 edx
  0036e	a1 00 00 00 00	 mov	 eax, DWORD PTR ?gunship_entity@@3PAUENTITY@@A ; gunship_entity
  00373	50		 push	 eax
  00374	e8 00 00 00 00	 call	 ?get_speech_heading_type@@YG?AW4speech_heading_types@@PAUENTITY@@0@Z ; get_speech_heading_type
  00379	50		 push	 eax
  0037a	6a 7d		 push	 125			; 0000007dH
  0037c	8b 0d 00 00 00
	00		 mov	 ecx, DWORD PTR ?gunship_entity@@3PAUENTITY@@A ; gunship_entity
  00382	51		 push	 ecx
  00383	e8 00 00 00 00	 call	 ?play_client_server_cpg_contact_message@@YGHPAUENTITY@@HHH@Z ; play_client_server_cpg_contact_message

; 1284 : 					(
; 1285 : 						get_gunship_entity (),
; 1286 : 						SPEECH_CPG_WARSHIPS,
; 1287 : 						get_speech_heading_type (get_gunship_entity (), target),
; 1288 : 						get_speech_distance_type (get_gunship_entity (), target)
; 1289 : 					);
; 1290 : 				}
; 1291 : 				else

  00388	eb 2f		 jmp	 SHORT $LN1@cpg_report
$LN13@cpg_report:

; 1292 : 				{
; 1293 : 					play_client_server_cpg_contact_message

  0038a	8b 45 08	 mov	 eax, DWORD PTR _target$[ebp]
  0038d	50		 push	 eax
  0038e	8b 0d 00 00 00
	00		 mov	 ecx, DWORD PTR ?gunship_entity@@3PAUENTITY@@A ; gunship_entity
  00394	51		 push	 ecx
  00395	e8 00 00 00 00	 call	 ?get_speech_distance_type@@YG?AW4speech_distance_types@@PAUENTITY@@0@Z ; get_speech_distance_type
  0039a	50		 push	 eax
  0039b	8b 55 08	 mov	 edx, DWORD PTR _target$[ebp]
  0039e	52		 push	 edx
  0039f	a1 00 00 00 00	 mov	 eax, DWORD PTR ?gunship_entity@@3PAUENTITY@@A ; gunship_entity
  003a4	50		 push	 eax
  003a5	e8 00 00 00 00	 call	 ?get_speech_heading_type@@YG?AW4speech_heading_types@@PAUENTITY@@0@Z ; get_speech_heading_type
  003aa	50		 push	 eax
  003ab	6a 7c		 push	 124			; 0000007cH
  003ad	8b 0d 00 00 00
	00		 mov	 ecx, DWORD PTR ?gunship_entity@@3PAUENTITY@@A ; gunship_entity
  003b3	51		 push	 ecx
  003b4	e8 00 00 00 00	 call	 ?play_client_server_cpg_contact_message@@YGHPAUENTITY@@HHH@Z ; play_client_server_cpg_contact_message
$LN1@cpg_report:

; 1294 : 					(
; 1295 : 						get_gunship_entity (),
; 1296 : 						SPEECH_CPG_TRIPLE_A,
; 1297 : 						get_speech_heading_type (get_gunship_entity (), target),
; 1298 : 						get_speech_distance_type (get_gunship_entity (), target)
; 1299 : 					);
; 1300 : 				}
; 1301 : 
; 1302 : 			break;
; 1303 : 		}
; 1304 : 		////////////////////////////////////////
; 1305 : 		case THREAT_TYPE_EARLY_WARNING_RADAR:
; 1306 : 		////////////////////////////////////////
; 1307 : 		{
; 1308 : 			break;
; 1309 : 		}
; 1310 : 	}
; 1311 : }

  003b9	5f		 pop	 edi
  003ba	5e		 pop	 esi
  003bb	5b		 pop	 ebx
  003bc	8b e5		 mov	 esp, ebp
  003be	5d		 pop	 ebp
  003bf	c2 04 00	 ret	 4
?cpg_report_target@@YGXPAUENTITY@@@Z ENDP		; cpg_report_target
_TEXT	ENDS
; Function compile flags: /Odtp /ZI
; File c:\users\nhv90\projects\eech\aphavoc\source\gunships\avionics\common\co_tgt.c
;	COMDAT ?get_target_range@@YGMPAUVEC3D@@PAW4rangefinding_system@@@Z
_TEXT	SEGMENT
tv79 = -80						; size = 4
tv71 = -76						; size = 4
_source_position$ = -8					; size = 4
_system$ = -4						; size = 4
_target_position$ = 8					; size = 4
_rf_system$ = 12					; size = 4
?get_target_range@@YGMPAUVEC3D@@PAW4rangefinding_system@@@Z PROC ; get_target_range, COMDAT

; 1190 : {

  00000	55		 push	 ebp
  00001	8b ec		 mov	 ebp, esp
  00003	83 ec 50	 sub	 esp, 80			; 00000050H
  00006	53		 push	 ebx
  00007	56		 push	 esi
  00008	57		 push	 edi

; 1191 : 	rangefinding_system system = get_range_finder();

  00009	e8 00 00 00 00	 call	 ?get_range_finder@@YG?AW4rangefinding_system@@XZ ; get_range_finder
  0000e	89 45 fc	 mov	 DWORD PTR _system$[ebp], eax

; 1192 : 	vec3d* source_position = get_local_entity_vec3d_ptr (get_gunship_entity(), VEC3D_TYPE_POSITION);

  00011	83 3d 00 00 00
	00 00		 cmp	 DWORD PTR ?gunship_entity@@3PAUENTITY@@A, 0 ; gunship_entity
  00018	74 0c		 je	 SHORT $LN7@get_target
  0001a	a1 00 00 00 00	 mov	 eax, DWORD PTR ?gunship_entity@@3PAUENTITY@@A ; gunship_entity
  0001f	8b 08		 mov	 ecx, DWORD PTR [eax]
  00021	89 4d b4	 mov	 DWORD PTR tv71[ebp], ecx
  00024	eb 21		 jmp	 SHORT $LN8@get_target
$LN7@get_target:
  00026	8b 15 00 00 00
	00		 mov	 edx, DWORD PTR ?__LINE__Var@?0??get_target_range@@YGMPAUVEC3D@@PAW4rangefinding_system@@@Z@4JA
  0002c	83 c2 02	 add	 edx, 2
  0002f	52		 push	 edx
  00030	68 00 00 00 00	 push	 OFFSET ??_C@_0EO@LDNOEIJA@c?3?2users?2nhv90?2projects?2eech?2ap@
  00035	a1 00 00 00 00	 mov	 eax, DWORD PTR ?null_entity_pointer_message@@3PBDB ; null_entity_pointer_message
  0003a	50		 push	 eax
  0003b	e8 00 00 00 00	 call	 ?process_assert@@YGXPBD0H@Z ; process_assert
  00040	c7 45 b4 00 00
	00 00		 mov	 DWORD PTR tv71[ebp], 0
$LN8@get_target:
  00047	b9 01 00 00 00	 mov	 ecx, 1
  0004c	85 c9		 test	 ecx, ecx
  0004e	74 09		 je	 SHORT $LN9@get_target
  00050	c7 45 b0 08 00
	00 00		 mov	 DWORD PTR tv79[ebp], 8
  00057	eb 21		 jmp	 SHORT $LN10@get_target
$LN9@get_target:
  00059	8b 15 00 00 00
	00		 mov	 edx, DWORD PTR ?__LINE__Var@?0??get_target_range@@YGMPAUVEC3D@@PAW4rangefinding_system@@@Z@4JA
  0005f	83 c2 02	 add	 edx, 2
  00062	52		 push	 edx
  00063	68 00 00 00 00	 push	 OFFSET ??_C@_0EO@LDNOEIJA@c?3?2users?2nhv90?2projects?2eech?2ap@
  00068	a1 00 00 00 00	 mov	 eax, DWORD PTR ?overload_invalid_vec3d_type_message@@3PBDB ; overload_invalid_vec3d_type_message
  0006d	50		 push	 eax
  0006e	e8 00 00 00 00	 call	 ?process_assert@@YGXPBD0H@Z ; process_assert
  00073	c7 45 b0 00 00
	00 00		 mov	 DWORD PTR tv79[ebp], 0
$LN10@get_target:
  0007a	6a 08		 push	 8
  0007c	8b 0d 00 00 00
	00		 mov	 ecx, DWORD PTR ?gunship_entity@@3PAUENTITY@@A ; gunship_entity
  00082	51		 push	 ecx
  00083	6b 55 b4 60	 imul	 edx, DWORD PTR tv71[ebp], 96
  00087	8b 45 b0	 mov	 eax, DWORD PTR tv79[ebp]
  0008a	8b 8c 82 00 00
	00 00		 mov	 ecx, DWORD PTR ?fn_get_local_entity_vec3d_ptr@@3PAY0BI@P6GPAUVEC3D@@PAUENTITY@@W4VEC3D_TYPES@@@ZA[edx+eax*4]
  00091	ff d1		 call	 ecx
  00093	89 45 f8	 mov	 DWORD PTR _source_position$[ebp], eax

; 1193 : 
; 1194 : 	if (!target_position)

  00096	83 7d 08 00	 cmp	 DWORD PTR _target_position$[ebp], 0
  0009a	75 04		 jne	 SHORT $LN2@get_target

; 1195 : 		return 0.0;

  0009c	d9 ee		 fldz
  0009e	eb 36		 jmp	 SHORT $LN5@get_target
$LN2@get_target:

; 1196 : 
; 1197 : 	if (rf_system)

  000a0	83 7d 0c 00	 cmp	 DWORD PTR _rf_system$[ebp], 0
  000a4	74 08		 je	 SHORT $LN3@get_target

; 1198 : 		*rf_system = system;

  000a6	8b 45 0c	 mov	 eax, DWORD PTR _rf_system$[ebp]
  000a9	8b 4d fc	 mov	 ecx, DWORD PTR _system$[ebp]
  000ac	89 08		 mov	 DWORD PTR [eax], ecx
$LN3@get_target:

; 1199 : 
; 1200 : 	if (get_range_finder() != RANGEFINDER_TRIANGULATION)

  000ae	e8 00 00 00 00	 call	 ?get_range_finder@@YG?AW4rangefinding_system@@XZ ; get_range_finder
  000b3	83 f8 02	 cmp	 eax, 2
  000b6	74 11		 je	 SHORT $LN4@get_target

; 1201 : 		return get_3d_range(source_position, target_position);

  000b8	8b 45 08	 mov	 eax, DWORD PTR _target_position$[ebp]
  000bb	50		 push	 eax
  000bc	8b 4d f8	 mov	 ecx, DWORD PTR _source_position$[ebp]
  000bf	51		 push	 ecx
  000c0	e8 00 00 00 00	 call	 ?get_3d_range@@YGMPBUVEC3D@@0@Z ; get_3d_range
  000c5	eb 0f		 jmp	 SHORT $LN5@get_target

; 1202 : 	else

  000c7	eb 0d		 jmp	 SHORT $LN5@get_target
$LN4@get_target:

; 1203 : 		return get_triangulated_by_position_range(source_position, target_position);

  000c9	8b 45 08	 mov	 eax, DWORD PTR _target_position$[ebp]
  000cc	50		 push	 eax
  000cd	8b 4d f8	 mov	 ecx, DWORD PTR _source_position$[ebp]
  000d0	51		 push	 ecx
  000d1	e8 00 00 00 00	 call	 ?get_triangulated_by_position_range@@YGMPAUVEC3D@@0@Z ; get_triangulated_by_position_range
$LN5@get_target:

; 1204 : }

  000d6	5f		 pop	 edi
  000d7	5e		 pop	 esi
  000d8	5b		 pop	 ebx
  000d9	8b e5		 mov	 esp, ebp
  000db	5d		 pop	 ebp
  000dc	c2 08 00	 ret	 8
?get_target_range@@YGMPAUVEC3D@@PAW4rangefinding_system@@@Z ENDP ; get_target_range
_TEXT	ENDS
; Function compile flags: /Odtp /ZI
; File c:\users\nhv90\projects\eech\aphavoc\source\gunships\avionics\common\co_tgt.c
;	COMDAT ?get_range_finder@@YG?AW4rangefinding_system@@XZ
_TEXT	SEGMENT
?get_range_finder@@YG?AW4rangefinding_system@@XZ PROC	; get_range_finder, COMDAT

; 1177 : {

  00000	55		 push	 ebp
  00001	8b ec		 mov	 ebp, esp
  00003	83 ec 40	 sub	 esp, 64			; 00000040H
  00006	53		 push	 ebx
  00007	56		 push	 esi
  00008	57		 push	 edi

; 1178 : 	if (target_acquisition_system == TARGET_ACQUISITION_SYSTEM_GROUND_RADAR
; 1179 : 		|| target_acquisition_system == TARGET_ACQUISITION_SYSTEM_AIR_RADAR)

  00009	83 3d 00 00 00
	00 01		 cmp	 DWORD PTR ?target_acquisition_system@@3W4TARGET_ACQUISITION_SYSTEMS@@A, 1 ; target_acquisition_system
  00010	74 09		 je	 SHORT $LN4@get_range_
  00012	83 3d 00 00 00
	00 02		 cmp	 DWORD PTR ?target_acquisition_system@@3W4TARGET_ACQUISITION_SYSTEMS@@A, 2 ; target_acquisition_system
  00019	75 06		 jne	 SHORT $LN2@get_range_
$LN4@get_range_:

; 1180 : 	{
; 1181 : 		return RANGEFINDER_FCR;	

  0001b	33 c0		 xor	 eax, eax
  0001d	eb 17		 jmp	 SHORT $LN1@get_range_
  0001f	eb 10		 jmp	 SHORT $LN3@get_range_
$LN2@get_range_:

; 1182 : 	}
; 1183 : 	else if (laser_is_active())

  00021	e8 00 00 00 00	 call	 ?laser_is_active@@YGHXZ	; laser_is_active
  00026	85 c0		 test	 eax, eax
  00028	74 07		 je	 SHORT $LN3@get_range_

; 1184 : 		return RANGEFINDER_LASER;

  0002a	b8 01 00 00 00	 mov	 eax, 1
  0002f	eb 05		 jmp	 SHORT $LN1@get_range_
$LN3@get_range_:

; 1185 : 
; 1186 : 	return RANGEFINDER_TRIANGULATION;

  00031	b8 02 00 00 00	 mov	 eax, 2
$LN1@get_range_:

; 1187 : }

  00036	5f		 pop	 edi
  00037	5e		 pop	 esi
  00038	5b		 pop	 ebx
  00039	8b e5		 mov	 esp, ebp
  0003b	5d		 pop	 ebp
  0003c	c3		 ret	 0
?get_range_finder@@YG?AW4rangefinding_system@@XZ ENDP	; get_range_finder
_TEXT	ENDS
; Function compile flags: /Odtp /ZI
; File c:\users\nhv90\projects\eech\aphavoc\source\gunships\avionics\common\co_tgt.c
;	COMDAT ?play_common_cpg_target_acquisition_system_speech@@YGXW4TARGET_ACQUISITION_SYSTEMS@@0H@Z
_TEXT	SEGMENT
tv64 = -68						; size = 4
_new_system$ = 8					; size = 4
_old_system$ = 12					; size = 4
_damaged$ = 16						; size = 4
?play_common_cpg_target_acquisition_system_speech@@YGXW4TARGET_ACQUISITION_SYSTEMS@@0H@Z PROC ; play_common_cpg_target_acquisition_system_speech, COMDAT

; 1030 : {

  00000	55		 push	 ebp
  00001	8b ec		 mov	 ebp, esp
  00003	83 ec 44	 sub	 esp, 68			; 00000044H
  00006	53		 push	 ebx
  00007	56		 push	 esi
  00008	57		 push	 edi

; 1031 : 	switch (new_system)

  00009	8b 45 08	 mov	 eax, DWORD PTR _new_system$[ebp]
  0000c	89 45 bc	 mov	 DWORD PTR tv64[ebp], eax
  0000f	8b 4d bc	 mov	 ecx, DWORD PTR tv64[ebp]
  00012	83 e9 01	 sub	 ecx, 1
  00015	89 4d bc	 mov	 DWORD PTR tv64[ebp], ecx
  00018	83 7d bc 09	 cmp	 DWORD PTR tv64[ebp], 9
  0001c	0f 87 33 02 00
	00		 ja	 $LN2@play_commo
  00022	8b 55 bc	 mov	 edx, DWORD PTR tv64[ebp]
  00025	ff 24 95 00 00
	00 00		 jmp	 DWORD PTR $LN26@play_commo[edx*4]

; 1032 : 	{
; 1033 : 		////////////////////////////////////////
; 1034 : 		case TARGET_ACQUISITION_SYSTEM_OFF:
; 1035 : 		////////////////////////////////////////
; 1036 : 		{
; 1037 : 			break;

  0002c	e9 24 02 00 00	 jmp	 $LN2@play_commo
$LN5@play_commo:

; 1038 : 		}
; 1039 : 		////////////////////////////////////////
; 1040 : 		case TARGET_ACQUISITION_SYSTEM_GROUND_RADAR:
; 1041 : 		case TARGET_ACQUISITION_SYSTEM_AIR_RADAR:
; 1042 : 		////////////////////////////////////////
; 1043 : 		{
; 1044 : 			if (damaged)

  00031	83 7d 10 00	 cmp	 DWORD PTR _damaged$[ebp], 0
  00035	74 3b		 je	 SHORT $LN6@play_commo

; 1045 : 			{
; 1046 : 				play_client_server_cpg_message (get_gunship_entity (), 0.5, 1.0, SPEECH_CATEGORY_CPG_SYSTEMS, 1.0, SPEECH_CPG_RADAR_DAMAGED);

  00037	6a 14		 push	 20			; 00000014H
  00039	51		 push	 ecx
  0003a	f3 0f 10 05 00
	00 00 00	 movss	 xmm0, DWORD PTR __real@3f800000
  00042	f3 0f 11 04 24	 movss	 DWORD PTR [esp], xmm0
  00047	6a 04		 push	 4
  00049	51		 push	 ecx
  0004a	f3 0f 10 05 00
	00 00 00	 movss	 xmm0, DWORD PTR __real@3f800000
  00052	f3 0f 11 04 24	 movss	 DWORD PTR [esp], xmm0
  00057	51		 push	 ecx
  00058	f3 0f 10 05 00
	00 00 00	 movss	 xmm0, DWORD PTR __real@3f000000
  00060	f3 0f 11 04 24	 movss	 DWORD PTR [esp], xmm0
  00065	a1 00 00 00 00	 mov	 eax, DWORD PTR ?gunship_entity@@3PAUENTITY@@A ; gunship_entity
  0006a	50		 push	 eax
  0006b	e8 00 00 00 00	 call	 ?play_client_server_cpg_message@@YGHPAUENTITY@@MMHMH@Z ; play_client_server_cpg_message

; 1047 : 			}
; 1048 : 			else

  00070	eb 4e		 jmp	 SHORT $LN8@play_commo
$LN6@play_commo:

; 1049 : 			{
; 1050 : 				if (!command_line_manual_laser_radar && (old_system != TARGET_ACQUISITION_SYSTEM_GROUND_RADAR) && (old_system != TARGET_ACQUISITION_SYSTEM_AIR_RADAR))

  00072	83 3d 00 00 00
	00 00		 cmp	 DWORD PTR ?command_line_manual_laser_radar@@3HA, 0 ; command_line_manual_laser_radar
  00079	75 45		 jne	 SHORT $LN8@play_commo
  0007b	83 7d 0c 01	 cmp	 DWORD PTR _old_system$[ebp], 1
  0007f	74 3f		 je	 SHORT $LN8@play_commo
  00081	83 7d 0c 02	 cmp	 DWORD PTR _old_system$[ebp], 2
  00085	74 39		 je	 SHORT $LN8@play_commo

; 1051 : 				{
; 1052 : 					play_client_server_cpg_message (get_gunship_entity (), 0.5, 1.0, SPEECH_CATEGORY_CPG_SYSTEMS, 1.0, SPEECH_CPG_RADAR_ON);

  00087	6a 0e		 push	 14			; 0000000eH
  00089	51		 push	 ecx
  0008a	f3 0f 10 05 00
	00 00 00	 movss	 xmm0, DWORD PTR __real@3f800000
  00092	f3 0f 11 04 24	 movss	 DWORD PTR [esp], xmm0
  00097	6a 04		 push	 4
  00099	51		 push	 ecx
  0009a	f3 0f 10 05 00
	00 00 00	 movss	 xmm0, DWORD PTR __real@3f800000
  000a2	f3 0f 11 04 24	 movss	 DWORD PTR [esp], xmm0
  000a7	51		 push	 ecx
  000a8	f3 0f 10 05 00
	00 00 00	 movss	 xmm0, DWORD PTR __real@3f000000
  000b0	f3 0f 11 04 24	 movss	 DWORD PTR [esp], xmm0
  000b5	a1 00 00 00 00	 mov	 eax, DWORD PTR ?gunship_entity@@3PAUENTITY@@A ; gunship_entity
  000ba	50		 push	 eax
  000bb	e8 00 00 00 00	 call	 ?play_client_server_cpg_message@@YGHPAUENTITY@@MMHMH@Z ; play_client_server_cpg_message
$LN8@play_commo:

; 1053 : 				}
; 1054 : 			}
; 1055 : 
; 1056 : 			break;

  000c0	e9 90 01 00 00	 jmp	 $LN2@play_commo
$LN9@play_commo:

; 1057 : 		}
; 1058 : 		////////////////////////////////////////
; 1059 : 		case TARGET_ACQUISITION_SYSTEM_FLIR:
; 1060 : 		////////////////////////////////////////
; 1061 : 		{
; 1062 : 			if (damaged)

  000c5	83 7d 10 00	 cmp	 DWORD PTR _damaged$[ebp], 0
  000c9	74 39		 je	 SHORT $LN10@play_commo

; 1063 : 			{
; 1064 : 				play_client_server_cpg_message (get_gunship_entity (), 0.5, 1.0, SPEECH_CATEGORY_CPG_SYSTEMS, 1.0, SPEECH_CPG_FLIR_DAMAGED);

  000cb	6a 15		 push	 21			; 00000015H
  000cd	51		 push	 ecx
  000ce	f3 0f 10 05 00
	00 00 00	 movss	 xmm0, DWORD PTR __real@3f800000
  000d6	f3 0f 11 04 24	 movss	 DWORD PTR [esp], xmm0
  000db	6a 04		 push	 4
  000dd	51		 push	 ecx
  000de	f3 0f 10 05 00
	00 00 00	 movss	 xmm0, DWORD PTR __real@3f800000
  000e6	f3 0f 11 04 24	 movss	 DWORD PTR [esp], xmm0
  000eb	51		 push	 ecx
  000ec	f3 0f 10 05 00
	00 00 00	 movss	 xmm0, DWORD PTR __real@3f000000
  000f4	f3 0f 11 04 24	 movss	 DWORD PTR [esp], xmm0
  000f9	a1 00 00 00 00	 mov	 eax, DWORD PTR ?gunship_entity@@3PAUENTITY@@A ; gunship_entity
  000fe	50		 push	 eax
  000ff	e8 00 00 00 00	 call	 ?play_client_server_cpg_message@@YGHPAUENTITY@@MMHMH@Z ; play_client_server_cpg_message
$LN10@play_commo:

; 1065 : 			}
; 1066 : 
; 1067 : 			break;

  00104	e9 4c 01 00 00	 jmp	 $LN2@play_commo
$LN11@play_commo:

; 1068 : 		}
; 1069 : 		////////////////////////////////////////
; 1070 : 		case TARGET_ACQUISITION_SYSTEM_DTV:
; 1071 : 		////////////////////////////////////////
; 1072 : 		{
; 1073 : 			if (damaged)

  00109	83 7d 10 00	 cmp	 DWORD PTR _damaged$[ebp], 0
  0010d	74 39		 je	 SHORT $LN12@play_commo

; 1074 : 			{
; 1075 : 				play_client_server_cpg_message (get_gunship_entity (), 0.5, 1.0, SPEECH_CATEGORY_CPG_SYSTEMS, 1.0, SPEECH_CPG_DTV_DAMAGED);

  0010f	6a 16		 push	 22			; 00000016H
  00111	51		 push	 ecx
  00112	f3 0f 10 05 00
	00 00 00	 movss	 xmm0, DWORD PTR __real@3f800000
  0011a	f3 0f 11 04 24	 movss	 DWORD PTR [esp], xmm0
  0011f	6a 04		 push	 4
  00121	51		 push	 ecx
  00122	f3 0f 10 05 00
	00 00 00	 movss	 xmm0, DWORD PTR __real@3f800000
  0012a	f3 0f 11 04 24	 movss	 DWORD PTR [esp], xmm0
  0012f	51		 push	 ecx
  00130	f3 0f 10 05 00
	00 00 00	 movss	 xmm0, DWORD PTR __real@3f000000
  00138	f3 0f 11 04 24	 movss	 DWORD PTR [esp], xmm0
  0013d	a1 00 00 00 00	 mov	 eax, DWORD PTR ?gunship_entity@@3PAUENTITY@@A ; gunship_entity
  00142	50		 push	 eax
  00143	e8 00 00 00 00	 call	 ?play_client_server_cpg_message@@YGHPAUENTITY@@MMHMH@Z ; play_client_server_cpg_message
$LN12@play_commo:

; 1076 : 			}
; 1077 : 
; 1078 : 			break;

  00148	e9 08 01 00 00	 jmp	 $LN2@play_commo
$LN13@play_commo:

; 1079 : 		}
; 1080 : 		////////////////////////////////////////
; 1081 : 		case TARGET_ACQUISITION_SYSTEM_DVO:
; 1082 : 		////////////////////////////////////////
; 1083 : 		{
; 1084 : 			if (damaged)

  0014d	83 7d 10 00	 cmp	 DWORD PTR _damaged$[ebp], 0
  00151	74 39		 je	 SHORT $LN14@play_commo

; 1085 : 			{
; 1086 : 				play_client_server_cpg_message (get_gunship_entity (), 0.5, 1.0, SPEECH_CATEGORY_CPG_SYSTEMS, 1.0, SPEECH_CPG_DVO_DAMAGED);

  00153	6a 18		 push	 24			; 00000018H
  00155	51		 push	 ecx
  00156	f3 0f 10 05 00
	00 00 00	 movss	 xmm0, DWORD PTR __real@3f800000
  0015e	f3 0f 11 04 24	 movss	 DWORD PTR [esp], xmm0
  00163	6a 04		 push	 4
  00165	51		 push	 ecx
  00166	f3 0f 10 05 00
	00 00 00	 movss	 xmm0, DWORD PTR __real@3f800000
  0016e	f3 0f 11 04 24	 movss	 DWORD PTR [esp], xmm0
  00173	51		 push	 ecx
  00174	f3 0f 10 05 00
	00 00 00	 movss	 xmm0, DWORD PTR __real@3f000000
  0017c	f3 0f 11 04 24	 movss	 DWORD PTR [esp], xmm0
  00181	a1 00 00 00 00	 mov	 eax, DWORD PTR ?gunship_entity@@3PAUENTITY@@A ; gunship_entity
  00186	50		 push	 eax
  00187	e8 00 00 00 00	 call	 ?play_client_server_cpg_message@@YGHPAUENTITY@@MMHMH@Z ; play_client_server_cpg_message
$LN14@play_commo:

; 1087 : 			}
; 1088 : 
; 1089 : 			break;

  0018c	e9 c4 00 00 00	 jmp	 $LN2@play_commo
$LN15@play_commo:

; 1090 : 		}
; 1091 : 		////////////////////////////////////////
; 1092 : 		case TARGET_ACQUISITION_SYSTEM_LLLTV:
; 1093 : 		////////////////////////////////////////
; 1094 : 		{
; 1095 : 			if (damaged)

  00191	83 7d 10 00	 cmp	 DWORD PTR _damaged$[ebp], 0
  00195	74 39		 je	 SHORT $LN16@play_commo

; 1096 : 			{
; 1097 : 				play_client_server_cpg_message (get_gunship_entity (), 0.5, 1.0, SPEECH_CATEGORY_CPG_SYSTEMS, 1.0, SPEECH_CPG_LLLTV_DAMAGED);

  00197	6a 17		 push	 23			; 00000017H
  00199	51		 push	 ecx
  0019a	f3 0f 10 05 00
	00 00 00	 movss	 xmm0, DWORD PTR __real@3f800000
  001a2	f3 0f 11 04 24	 movss	 DWORD PTR [esp], xmm0
  001a7	6a 04		 push	 4
  001a9	51		 push	 ecx
  001aa	f3 0f 10 05 00
	00 00 00	 movss	 xmm0, DWORD PTR __real@3f800000
  001b2	f3 0f 11 04 24	 movss	 DWORD PTR [esp], xmm0
  001b7	51		 push	 ecx
  001b8	f3 0f 10 05 00
	00 00 00	 movss	 xmm0, DWORD PTR __real@3f000000
  001c0	f3 0f 11 04 24	 movss	 DWORD PTR [esp], xmm0
  001c5	a1 00 00 00 00	 mov	 eax, DWORD PTR ?gunship_entity@@3PAUENTITY@@A ; gunship_entity
  001ca	50		 push	 eax
  001cb	e8 00 00 00 00	 call	 ?play_client_server_cpg_message@@YGHPAUENTITY@@MMHMH@Z ; play_client_server_cpg_message
$LN16@play_commo:

; 1098 : 			}
; 1099 : 
; 1100 : 			break;

  001d0	e9 80 00 00 00	 jmp	 $LN2@play_commo
$LN17@play_commo:

; 1101 : 		}
; 1102 : 		////////////////////////////////////////
; 1103 : 		case TARGET_ACQUISITION_SYSTEM_PERISCOPE:
; 1104 : 		////////////////////////////////////////
; 1105 : 		{
; 1106 : 			if (damaged)

  001d5	83 7d 10 00	 cmp	 DWORD PTR _damaged$[ebp], 0
  001d9	74 39		 je	 SHORT $LN18@play_commo

; 1107 : 			{
; 1108 : 				play_client_server_cpg_message (get_gunship_entity (), 0.5, 1.0, SPEECH_CATEGORY_CPG_SYSTEMS, 1.0, SPEECH_CPG_PERISCOPE_DAMAGED);

  001db	6a 19		 push	 25			; 00000019H
  001dd	51		 push	 ecx
  001de	f3 0f 10 05 00
	00 00 00	 movss	 xmm0, DWORD PTR __real@3f800000
  001e6	f3 0f 11 04 24	 movss	 DWORD PTR [esp], xmm0
  001eb	6a 04		 push	 4
  001ed	51		 push	 ecx
  001ee	f3 0f 10 05 00
	00 00 00	 movss	 xmm0, DWORD PTR __real@3f800000
  001f6	f3 0f 11 04 24	 movss	 DWORD PTR [esp], xmm0
  001fb	51		 push	 ecx
  001fc	f3 0f 10 05 00
	00 00 00	 movss	 xmm0, DWORD PTR __real@3f000000
  00204	f3 0f 11 04 24	 movss	 DWORD PTR [esp], xmm0
  00209	a1 00 00 00 00	 mov	 eax, DWORD PTR ?gunship_entity@@3PAUENTITY@@A ; gunship_entity
  0020e	50		 push	 eax
  0020f	e8 00 00 00 00	 call	 ?play_client_server_cpg_message@@YGHPAUENTITY@@MMHMH@Z ; play_client_server_cpg_message
$LN18@play_commo:

; 1109 : 			}
; 1110 : 
; 1111 : 			break;

  00214	eb 3f		 jmp	 SHORT $LN2@play_commo
$LN19@play_commo:

; 1112 : 		}
; 1113 : 		////////////////////////////////////////
; 1114 : 		case TARGET_ACQUISITION_SYSTEM_IHADSS:
; 1115 : 		case TARGET_ACQUISITION_SYSTEM_HIDSS:
; 1116 : 		case TARGET_ACQUISITION_SYSTEM_HMS:
; 1117 : 		////////////////////////////////////////
; 1118 : 		{
; 1119 : 			if (damaged)

  00216	83 7d 10 00	 cmp	 DWORD PTR _damaged$[ebp], 0
  0021a	74 39		 je	 SHORT $LN20@play_commo

; 1120 : 			{
; 1121 : 				play_client_server_cpg_message (get_gunship_entity (), 0.5, 1.0, SPEECH_CATEGORY_CPG_SYSTEMS, 1.0, SPEECH_CPG_NEGATIVE);

  0021c	6a 01		 push	 1
  0021e	51		 push	 ecx
  0021f	f3 0f 10 05 00
	00 00 00	 movss	 xmm0, DWORD PTR __real@3f800000
  00227	f3 0f 11 04 24	 movss	 DWORD PTR [esp], xmm0
  0022c	6a 04		 push	 4
  0022e	51		 push	 ecx
  0022f	f3 0f 10 05 00
	00 00 00	 movss	 xmm0, DWORD PTR __real@3f800000
  00237	f3 0f 11 04 24	 movss	 DWORD PTR [esp], xmm0
  0023c	51		 push	 ecx
  0023d	f3 0f 10 05 00
	00 00 00	 movss	 xmm0, DWORD PTR __real@3f000000
  00245	f3 0f 11 04 24	 movss	 DWORD PTR [esp], xmm0
  0024a	a1 00 00 00 00	 mov	 eax, DWORD PTR ?gunship_entity@@3PAUENTITY@@A ; gunship_entity
  0024f	50		 push	 eax
  00250	e8 00 00 00 00	 call	 ?play_client_server_cpg_message@@YGHPAUENTITY@@MMHMH@Z ; play_client_server_cpg_message
$LN20@play_commo:
$LN2@play_commo:

; 1122 : 			}
; 1123 : 
; 1124 : 			break;
; 1125 : 		}
; 1126 : 	}
; 1127 : 
; 1128 : 	if (!damaged)

  00255	83 7d 10 00	 cmp	 DWORD PTR _damaged$[ebp], 0
  00259	75 5a		 jne	 SHORT $LN23@play_commo

; 1129 : 	{
; 1130 : 		if ((new_system != TARGET_ACQUISITION_SYSTEM_GROUND_RADAR) && (new_system != TARGET_ACQUISITION_SYSTEM_AIR_RADAR))

  0025b	83 7d 08 01	 cmp	 DWORD PTR _new_system$[ebp], 1
  0025f	74 54		 je	 SHORT $LN23@play_commo
  00261	83 7d 08 02	 cmp	 DWORD PTR _new_system$[ebp], 2
  00265	74 4e		 je	 SHORT $LN23@play_commo

; 1131 : 		{
; 1132 : 			if (!command_line_manual_laser_radar && (old_system == TARGET_ACQUISITION_SYSTEM_GROUND_RADAR || old_system == TARGET_ACQUISITION_SYSTEM_AIR_RADAR))

  00267	83 3d 00 00 00
	00 00		 cmp	 DWORD PTR ?command_line_manual_laser_radar@@3HA, 0 ; command_line_manual_laser_radar
  0026e	75 45		 jne	 SHORT $LN23@play_commo
  00270	83 7d 0c 01	 cmp	 DWORD PTR _old_system$[ebp], 1
  00274	74 06		 je	 SHORT $LN24@play_commo
  00276	83 7d 0c 02	 cmp	 DWORD PTR _old_system$[ebp], 2
  0027a	75 39		 jne	 SHORT $LN23@play_commo
$LN24@play_commo:

; 1133 : 			{
; 1134 : 				play_client_server_cpg_message (get_gunship_entity (), 0.5, 1.0, SPEECH_CATEGORY_CPG_SYSTEMS, 1.0, SPEECH_CPG_RADAR_OFF);

  0027c	6a 0f		 push	 15			; 0000000fH
  0027e	51		 push	 ecx
  0027f	f3 0f 10 05 00
	00 00 00	 movss	 xmm0, DWORD PTR __real@3f800000
  00287	f3 0f 11 04 24	 movss	 DWORD PTR [esp], xmm0
  0028c	6a 04		 push	 4
  0028e	51		 push	 ecx
  0028f	f3 0f 10 05 00
	00 00 00	 movss	 xmm0, DWORD PTR __real@3f800000
  00297	f3 0f 11 04 24	 movss	 DWORD PTR [esp], xmm0
  0029c	51		 push	 ecx
  0029d	f3 0f 10 05 00
	00 00 00	 movss	 xmm0, DWORD PTR __real@3f000000
  002a5	f3 0f 11 04 24	 movss	 DWORD PTR [esp], xmm0
  002aa	a1 00 00 00 00	 mov	 eax, DWORD PTR ?gunship_entity@@3PAUENTITY@@A ; gunship_entity
  002af	50		 push	 eax
  002b0	e8 00 00 00 00	 call	 ?play_client_server_cpg_message@@YGHPAUENTITY@@MMHMH@Z ; play_client_server_cpg_message
$LN23@play_commo:

; 1135 : 			}
; 1136 : 		}
; 1137 : 	}
; 1138 : }

  002b5	5f		 pop	 edi
  002b6	5e		 pop	 esi
  002b7	5b		 pop	 ebx
  002b8	8b e5		 mov	 esp, ebp
  002ba	5d		 pop	 ebp
  002bb	c2 0c 00	 ret	 12			; 0000000cH
  002be	66 90		 npad	 2
$LN26@play_commo:
  002c0	00 00 00 00	 DD	 $LN5@play_commo
  002c4	00 00 00 00	 DD	 $LN5@play_commo
  002c8	00 00 00 00	 DD	 $LN9@play_commo
  002cc	00 00 00 00	 DD	 $LN11@play_commo
  002d0	00 00 00 00	 DD	 $LN13@play_commo
  002d4	00 00 00 00	 DD	 $LN15@play_commo
  002d8	00 00 00 00	 DD	 $LN17@play_commo
  002dc	00 00 00 00	 DD	 $LN19@play_commo
  002e0	00 00 00 00	 DD	 $LN19@play_commo
  002e4	00 00 00 00	 DD	 $LN19@play_commo
?play_common_cpg_target_acquisition_system_speech@@YGXW4TARGET_ACQUISITION_SYSTEMS@@0H@Z ENDP ; play_common_cpg_target_acquisition_system_speech
_TEXT	ENDS
; Function compile flags: /Odtp /ZI
; File c:\users\nhv90\projects\eech\aphavoc\source\gunships\avionics\common\co_tgt.c
;	COMDAT ?select_simple_avionics_target_acquisition_system@@YGXXZ
_TEXT	SEGMENT
tv64 = -68						; size = 4
?select_simple_avionics_target_acquisition_system@@YGXXZ PROC ; select_simple_avionics_target_acquisition_system, COMDAT

; 928  : {

  00000	55		 push	 ebp
  00001	8b ec		 mov	 ebp, esp
  00003	83 ec 44	 sub	 esp, 68			; 00000044H
  00006	53		 push	 ebx
  00007	56		 push	 esi
  00008	57		 push	 edi

; 929  : 	switch (get_global_gunship_type ())

  00009	a1 0c 00 00 00	 mov	 eax, DWORD PTR ?global_options@@3UGLOBAL_OPTIONS_DATA@@A+12
  0000e	89 45 bc	 mov	 DWORD PTR tv64[ebp], eax
  00011	83 7d bc 09	 cmp	 DWORD PTR tv64[ebp], 9
  00015	77 5d		 ja	 SHORT $LN14@select_sim
  00017	8b 4d bc	 mov	 ecx, DWORD PTR tv64[ebp]
  0001a	ff 24 8d 00 00
	00 00		 jmp	 DWORD PTR $LN16@select_sim[ecx*4]
$LN4@select_sim:

; 930  : 	{
; 931  : 		////////////////////////////////////////
; 932  : 		// JB 030313 Fly any aircraft
; 933  : //		default:
; 934  : 		case GUNSHIP_TYPE_APACHE:
; 935  : 		////////////////////////////////////////
; 936  : 		{
; 937  : 			select_apache_target_acquisition_system (TARGET_ACQUISITION_SYSTEM_IHADSS);

  00021	6a 08		 push	 8
  00023	e8 00 00 00 00	 call	 ?select_apache_target_acquisition_system@@YGXW4TARGET_ACQUISITION_SYSTEMS@@@Z ; select_apache_target_acquisition_system

; 938  : 
; 939  : 			break;

  00028	eb 51		 jmp	 SHORT $LN1@select_sim
$LN5@select_sim:

; 940  : 		}
; 941  : 		////////////////////////////////////////
; 942  : 		case GUNSHIP_TYPE_HAVOC:
; 943  : 		////////////////////////////////////////
; 944  : 		{
; 945  : 			select_havoc_target_acquisition_system (TARGET_ACQUISITION_SYSTEM_HMS);

  0002a	6a 0a		 push	 10			; 0000000aH
  0002c	e8 00 00 00 00	 call	 ?select_havoc_target_acquisition_system@@YGXW4TARGET_ACQUISITION_SYSTEMS@@@Z ; select_havoc_target_acquisition_system

; 946  : 
; 947  : 			break;

  00031	eb 48		 jmp	 SHORT $LN1@select_sim
$LN6@select_sim:

; 948  : 		}
; 949  : 		////////////////////////////////////////
; 950  : 		case GUNSHIP_TYPE_COMANCHE:
; 951  : 		////////////////////////////////////////
; 952  : 		{
; 953  : 			select_comanche_target_acquisition_system (TARGET_ACQUISITION_SYSTEM_HIDSS);

  00033	6a 09		 push	 9
  00035	e8 00 00 00 00	 call	 ?select_comanche_target_acquisition_system@@YGXW4TARGET_ACQUISITION_SYSTEMS@@@Z ; select_comanche_target_acquisition_system

; 954  : 
; 955  : 			break;

  0003a	eb 3f		 jmp	 SHORT $LN1@select_sim
$LN7@select_sim:

; 956  : 		}
; 957  : 		////////////////////////////////////////
; 958  : 		case GUNSHIP_TYPE_HOKUM:
; 959  : 		////////////////////////////////////////
; 960  : 		{
; 961  : 			select_hokum_target_acquisition_system (TARGET_ACQUISITION_SYSTEM_HMS);

  0003c	6a 0a		 push	 10			; 0000000aH
  0003e	e8 00 00 00 00	 call	 ?select_hokum_target_acquisition_system@@YGXW4TARGET_ACQUISITION_SYSTEMS@@@Z ; select_hokum_target_acquisition_system

; 962  : 
; 963  : 			break;

  00043	eb 36		 jmp	 SHORT $LN1@select_sim
$LN8@select_sim:

; 964  : 		}
; 965  : 		////Moje 030519 Start
; 966  : 		case GUNSHIP_TYPE_BLACKHAWK:
; 967  : 		{
; 968  : 			select_blackhawk_target_acquisition_system (TARGET_ACQUISITION_SYSTEM_IHADSS);

  00045	6a 08		 push	 8
  00047	e8 00 00 00 00	 call	 ?select_blackhawk_target_acquisition_system@@YGXW4TARGET_ACQUISITION_SYSTEMS@@@Z ; select_blackhawk_target_acquisition_system

; 969  : 			break;

  0004c	eb 2d		 jmp	 SHORT $LN1@select_sim
$LN9@select_sim:

; 970  : 		}
; 971  : 		////Moje 030519 End
; 972  : 		////Moje 030612 start
; 973  : 		////////////////////////////////////////
; 974  : 		case GUNSHIP_TYPE_HIND:
; 975  : 		////////////////////////////////////////
; 976  : 		{
; 977  : 			select_hind_target_acquisition_system (TARGET_ACQUISITION_SYSTEM_HMS);

  0004e	6a 0a		 push	 10			; 0000000aH
  00050	e8 00 00 00 00	 call	 ?select_hind_target_acquisition_system@@YGXW4TARGET_ACQUISITION_SYSTEMS@@@Z ; select_hind_target_acquisition_system

; 978  : 
; 979  : 			break;

  00055	eb 24		 jmp	 SHORT $LN1@select_sim
$LN10@select_sim:

; 980  : 		}
; 981  : 		////Moje 030612 end
; 982  : 		////Moje 030816 Start
; 983  : 		case GUNSHIP_TYPE_AH64A:
; 984  : 		{
; 985  : 			select_ah64a_target_acquisition_system (TARGET_ACQUISITION_SYSTEM_IHADSS);

  00057	6a 08		 push	 8
  00059	e8 00 00 00 00	 call	 ?select_ah64a_target_acquisition_system@@YGXW4TARGET_ACQUISITION_SYSTEMS@@@Z ; select_ah64a_target_acquisition_system

; 986  : 			break;

  0005e	eb 1b		 jmp	 SHORT $LN1@select_sim
$LN11@select_sim:

; 987  : 		}
; 988  : 		////////////////////////////////////////
; 989  : 		case GUNSHIP_TYPE_KA50:
; 990  : 		////////////////////////////////////////
; 991  : 		{
; 992  : 			select_ka50_target_acquisition_system (TARGET_ACQUISITION_SYSTEM_HMS);

  00060	6a 0a		 push	 10			; 0000000aH
  00062	e8 00 00 00 00	 call	 ?select_ka50_target_acquisition_system@@YGXW4TARGET_ACQUISITION_SYSTEMS@@@Z ; select_ka50_target_acquisition_system

; 993  : 			break;

  00067	eb 12		 jmp	 SHORT $LN1@select_sim
$LN12@select_sim:

; 994  : 		}
; 995  : 		////Moje 030816 end
; 996  : 		////////////////////////////////////////
; 997  : 		case GUNSHIP_TYPE_VIPER:
; 998  : 		////////////////////////////////////////
; 999  : 		{
; 1000 : 			select_viper_target_acquisition_system (TARGET_ACQUISITION_SYSTEM_IHADSS);

  00069	6a 08		 push	 8
  0006b	e8 00 00 00 00	 call	 ?select_viper_target_acquisition_system@@YGXW4TARGET_ACQUISITION_SYSTEMS@@@Z ; select_viper_target_acquisition_system

; 1001 : 
; 1002 : 			break;

  00070	eb 09		 jmp	 SHORT $LN1@select_sim
$LN13@select_sim:

; 1003 : 		}
; 1004 : 		////////////////////////////////////////
; 1005 : 		case GUNSHIP_TYPE_KIOWA:
; 1006 : 		////////////////////////////////////////
; 1007 : 		{
; 1008 : 			break;

  00072	eb 07		 jmp	 SHORT $LN1@select_sim
$LN14@select_sim:

; 1009 : 		}
; 1010 : 		////////////////////////////////////////
; 1011 : 
; 1012 : 		////////////////////////////////////////
; 1013 : 		//  GCsDriver  08-12-2007
; 1014 : 		default:
; 1015 : 		////////////////////////////////////////
; 1016 : 		{
; 1017 : 			select_default_target_acquisition_system (TARGET_ACQUISITION_SYSTEM_IHADSS);

  00074	6a 08		 push	 8
  00076	e8 00 00 00 00	 call	 ?select_default_target_acquisition_system@@YGXW4TARGET_ACQUISITION_SYSTEMS@@@Z ; select_default_target_acquisition_system
$LN1@select_sim:

; 1018 : 
; 1019 : 			break;
; 1020 : 		}
; 1021 : 
; 1022 : 	}
; 1023 : }

  0007b	5f		 pop	 edi
  0007c	5e		 pop	 esi
  0007d	5b		 pop	 ebx
  0007e	8b e5		 mov	 esp, ebp
  00080	5d		 pop	 ebp
  00081	c3		 ret	 0
  00082	66 90		 npad	 2
$LN16@select_sim:
  00084	00 00 00 00	 DD	 $LN4@select_sim
  00088	00 00 00 00	 DD	 $LN5@select_sim
  0008c	00 00 00 00	 DD	 $LN6@select_sim
  00090	00 00 00 00	 DD	 $LN7@select_sim
  00094	00 00 00 00	 DD	 $LN8@select_sim
  00098	00 00 00 00	 DD	 $LN9@select_sim
  0009c	00 00 00 00	 DD	 $LN10@select_sim
  000a0	00 00 00 00	 DD	 $LN11@select_sim
  000a4	00 00 00 00	 DD	 $LN12@select_sim
  000a8	00 00 00 00	 DD	 $LN13@select_sim
?select_simple_avionics_target_acquisition_system@@YGXXZ ENDP ; select_simple_avionics_target_acquisition_system
_TEXT	ENDS
; Function compile flags: /Odtp /ZI
; File c:\users\nhv90\projects\eech\aphavoc\source\gunships\avionics\common\co_tgt.c
;	COMDAT ?set_valid_gunship_target_safe_index@@YGXH@Z
_TEXT	SEGMENT
tv86 = -76						; size = 4
tv79 = -72						; size = 4
tv67 = -72						; size = 4
_target$ = -4						; size = 4
_index$ = 8						; size = 4
?set_valid_gunship_target_safe_index@@YGXH@Z PROC	; set_valid_gunship_target_safe_index, COMDAT

; 906  : {

  00000	55		 push	 ebp
  00001	8b ec		 mov	 ebp, esp
  00003	83 ec 4c	 sub	 esp, 76			; 0000004cH
  00006	53		 push	 ebx
  00007	56		 push	 esi
  00008	57		 push	 edi

; 907  : 	entity
; 908  : 		*target;
; 909  : 
; 910  : 	target = get_local_entity_safe_ptr (index);

  00009	83 7d 08 ff	 cmp	 DWORD PTR _index$[ebp], -1
  0000d	74 11		 je	 SHORT $LN6@set_valid_
  0000f	8b 45 08	 mov	 eax, DWORD PTR _index$[ebp]
  00012	c1 e0 04	 shl	 eax, 4
  00015	03 05 00 00 00
	00		 add	 eax, DWORD PTR ?entities@@3PAUENTITY@@A ; entities
  0001b	89 45 b8	 mov	 DWORD PTR tv67[ebp], eax
  0001e	eb 07		 jmp	 SHORT $LN7@set_valid_
$LN6@set_valid_:
  00020	c7 45 b8 00 00
	00 00		 mov	 DWORD PTR tv67[ebp], 0
$LN7@set_valid_:
  00027	8b 4d b8	 mov	 ecx, DWORD PTR tv67[ebp]
  0002a	89 4d fc	 mov	 DWORD PTR _target$[ebp], ecx

; 911  : 
; 912  : 	ASSERT (target);

  0002d	83 7d fc 00	 cmp	 DWORD PTR _target$[ebp], 0
  00031	75 18		 jne	 SHORT $LN2@set_valid_
  00033	a1 00 00 00 00	 mov	 eax, DWORD PTR ?__LINE__Var@?0??set_valid_gunship_target_safe_index@@YGXH@Z@4JA
  00038	83 c0 06	 add	 eax, 6
  0003b	50		 push	 eax
  0003c	68 00 00 00 00	 push	 OFFSET ??_C@_0EO@LDNOEIJA@c?3?2users?2nhv90?2projects?2eech?2ap@
  00041	68 00 00 00 00	 push	 OFFSET ??_C@_06JJLAMBGK@target@
  00046	e8 00 00 00 00	 call	 ?process_assert@@YGXPBD0H@Z ; process_assert
$LN2@set_valid_:

; 913  : 
; 914  : 	if (target != get_gunship_entity ())

  0004b	8b 45 fc	 mov	 eax, DWORD PTR _target$[ebp]
  0004e	3b 05 00 00 00
	00		 cmp	 eax, DWORD PTR ?gunship_entity@@3PAUENTITY@@A ; gunship_entity
  00054	0f 84 8c 00 00
	00		 je	 $LN1@set_valid_

; 915  : 	{
; 916  : 		if (!get_local_entity_parent (target, LIST_TYPE_GUNSHIP_TARGET))

  0005a	83 7d fc 00	 cmp	 DWORD PTR _target$[ebp], 0
  0005e	74 0a		 je	 SHORT $LN8@set_valid_
  00060	8b 45 fc	 mov	 eax, DWORD PTR _target$[ebp]
  00063	8b 08		 mov	 ecx, DWORD PTR [eax]
  00065	89 4d b8	 mov	 DWORD PTR tv79[ebp], ecx
  00068	eb 1d		 jmp	 SHORT $LN9@set_valid_
$LN8@set_valid_:
  0006a	68 94 03 00 00	 push	 916			; 00000394H
  0006f	68 00 00 00 00	 push	 OFFSET ??_C@_0EO@LDNOEIJA@c?3?2users?2nhv90?2projects?2eech?2ap@
  00074	8b 15 00 00 00
	00		 mov	 edx, DWORD PTR ?null_entity_pointer_message@@3PBDB ; null_entity_pointer_message
  0007a	52		 push	 edx
  0007b	e8 00 00 00 00	 call	 ?process_assert@@YGXPBD0H@Z ; process_assert
  00080	c7 45 b8 00 00
	00 00		 mov	 DWORD PTR tv79[ebp], 0
$LN9@set_valid_:
  00087	b8 01 00 00 00	 mov	 eax, 1
  0008c	85 c0		 test	 eax, eax
  0008e	74 09		 je	 SHORT $LN10@set_valid_
  00090	c7 45 b4 12 00
	00 00		 mov	 DWORD PTR tv86[ebp], 18	; 00000012H
  00097	eb 1d		 jmp	 SHORT $LN11@set_valid_
$LN10@set_valid_:
  00099	68 94 03 00 00	 push	 916			; 00000394H
  0009e	68 00 00 00 00	 push	 OFFSET ??_C@_0EO@LDNOEIJA@c?3?2users?2nhv90?2projects?2eech?2ap@
  000a3	8b 0d 00 00 00
	00		 mov	 ecx, DWORD PTR ?overload_invalid_list_type_message@@3PBDB ; overload_invalid_list_type_message
  000a9	51		 push	 ecx
  000aa	e8 00 00 00 00	 call	 ?process_assert@@YGXPBD0H@Z ; process_assert
  000af	c7 45 b4 00 00
	00 00		 mov	 DWORD PTR tv86[ebp], 0
$LN11@set_valid_:
  000b6	6a 12		 push	 18			; 00000012H
  000b8	8b 55 fc	 mov	 edx, DWORD PTR _target$[ebp]
  000bb	52		 push	 edx
  000bc	69 45 b8 b4 00
	00 00		 imul	 eax, DWORD PTR tv79[ebp], 180
  000c3	8b 4d b4	 mov	 ecx, DWORD PTR tv86[ebp]
  000c6	8b 94 88 00 00
	00 00		 mov	 edx, DWORD PTR ?fn_get_local_entity_parent@@3PAY0CN@P6GPAUENTITY@@PAU1@W4LIST_TYPES@@@ZA[eax+ecx*4]
  000cd	ff d2		 call	 edx
  000cf	85 c0		 test	 eax, eax
  000d1	75 13		 jne	 SHORT $LN1@set_valid_

; 917  : 		{
; 918  : 			insert_local_entity_into_parents_child_list (target, LIST_TYPE_GUNSHIP_TARGET, get_gunship_entity (), NULL);

  000d3	6a 00		 push	 0
  000d5	a1 00 00 00 00	 mov	 eax, DWORD PTR ?gunship_entity@@3PAUENTITY@@A ; gunship_entity
  000da	50		 push	 eax
  000db	6a 12		 push	 18			; 00000012H
  000dd	8b 4d fc	 mov	 ecx, DWORD PTR _target$[ebp]
  000e0	51		 push	 ecx
  000e1	e8 00 00 00 00	 call	 ?insert_local_entity_into_parents_child_list@@YGXPAUENTITY@@W4LIST_TYPES@@00@Z ; insert_local_entity_into_parents_child_list
$LN1@set_valid_:

; 919  : 		}
; 920  : 	}
; 921  : }

  000e6	5f		 pop	 edi
  000e7	5e		 pop	 esi
  000e8	5b		 pop	 ebx
  000e9	8b e5		 mov	 esp, ebp
  000eb	5d		 pop	 ebp
  000ec	c2 04 00	 ret	 4
?set_valid_gunship_target_safe_index@@YGXH@Z ENDP	; set_valid_gunship_target_safe_index
_TEXT	ENDS
; Function compile flags: /Odtp /ZI
; File c:\users\nhv90\projects\eech\aphavoc\source\gunships\avionics\common\co_tgt.c
;	COMDAT ?get_valid_gunship_target_safe_index@@YGHPAUENTITY@@H@Z
_TEXT	SEGMENT
tv211 = -92						; size = 4
tv180 = -92						; size = 4
tv159 = -92						; size = 4
tv140 = -92						; size = 4
tv88 = -92						; size = 4
tv203 = -88						; size = 4
tv195 = -88						; size = 4
tv172 = -88						; size = 4
tv152 = -88						; size = 4
tv132 = -88						; size = 4
tv80 = -88						; size = 4
_target_position$ = -20					; size = 4
_receiver_position$ = -16				; size = 4
_target$ = -12						; size = 4
_sqr_target_range$ = -8					; size = 4
_count$ = -4						; size = 4
_receiver$ = 8						; size = 4
_depth$ = 12						; size = 4
?get_valid_gunship_target_safe_index@@YGHPAUENTITY@@H@Z PROC ; get_valid_gunship_target_safe_index, COMDAT

; 850  : {

  00000	55		 push	 ebp
  00001	8b ec		 mov	 ebp, esp
  00003	83 ec 5c	 sub	 esp, 92			; 0000005cH
  00006	53		 push	 ebx
  00007	56		 push	 esi
  00008	57		 push	 edi

; 851  : 	int
; 852  : 		count;
; 853  : 
; 854  : 	float
; 855  : 		sqr_target_range;
; 856  : 
; 857  : 	entity
; 858  : 		*target;
; 859  : 
; 860  : 	vec3d
; 861  : 		*receiver_position,
; 862  : 		*target_position;
; 863  : 
; 864  : 	ASSERT (receiver);

  00009	83 7d 08 00	 cmp	 DWORD PTR _receiver$[ebp], 0
  0000d	75 18		 jne	 SHORT $LN4@get_valid_
  0000f	a1 00 00 00 00	 mov	 eax, DWORD PTR ?__LINE__Var@?0??get_valid_gunship_target_safe_index@@YGHPAUENTITY@@H@Z@4JA
  00014	83 c0 0e	 add	 eax, 14			; 0000000eH
  00017	50		 push	 eax
  00018	68 00 00 00 00	 push	 OFFSET ??_C@_0EO@LDNOEIJA@c?3?2users?2nhv90?2projects?2eech?2ap@
  0001d	68 00 00 00 00	 push	 OFFSET ??_C@_08DEKMJOIP@receiver@
  00022	e8 00 00 00 00	 call	 ?process_assert@@YGXPBD0H@Z ; process_assert
$LN4@get_valid_:

; 865  : 
; 866  : 	ASSERT (depth >= 0);

  00027	83 7d 0c 00	 cmp	 DWORD PTR _depth$[ebp], 0
  0002b	7d 18		 jge	 SHORT $LN5@get_valid_
  0002d	a1 00 00 00 00	 mov	 eax, DWORD PTR ?__LINE__Var@?0??get_valid_gunship_target_safe_index@@YGHPAUENTITY@@H@Z@4JA
  00032	83 c0 10	 add	 eax, 16			; 00000010H
  00035	50		 push	 eax
  00036	68 00 00 00 00	 push	 OFFSET ??_C@_0EO@LDNOEIJA@c?3?2users?2nhv90?2projects?2eech?2ap@
  0003b	68 00 00 00 00	 push	 OFFSET ??_C@_0L@NPKMGJBO@depth?5?$DO?$DN?50@
  00040	e8 00 00 00 00	 call	 ?process_assert@@YGXPBD0H@Z ; process_assert
$LN5@get_valid_:

; 867  : 
; 868  : 	count = 0;

  00045	c7 45 fc 00 00
	00 00		 mov	 DWORD PTR _count$[ebp], 0

; 869  : 
; 870  : 	receiver_position = get_local_entity_vec3d_ptr (receiver, VEC3D_TYPE_POSITION);

  0004c	83 7d 08 00	 cmp	 DWORD PTR _receiver$[ebp], 0
  00050	74 0a		 je	 SHORT $LN10@get_valid_
  00052	8b 45 08	 mov	 eax, DWORD PTR _receiver$[ebp]
  00055	8b 08		 mov	 ecx, DWORD PTR [eax]
  00057	89 4d a8	 mov	 DWORD PTR tv80[ebp], ecx
  0005a	eb 21		 jmp	 SHORT $LN11@get_valid_
$LN10@get_valid_:
  0005c	8b 15 00 00 00
	00		 mov	 edx, DWORD PTR ?__LINE__Var@?0??get_valid_gunship_target_safe_index@@YGHPAUENTITY@@H@Z@4JA
  00062	83 c2 14	 add	 edx, 20			; 00000014H
  00065	52		 push	 edx
  00066	68 00 00 00 00	 push	 OFFSET ??_C@_0EO@LDNOEIJA@c?3?2users?2nhv90?2projects?2eech?2ap@
  0006b	a1 00 00 00 00	 mov	 eax, DWORD PTR ?null_entity_pointer_message@@3PBDB ; null_entity_pointer_message
  00070	50		 push	 eax
  00071	e8 00 00 00 00	 call	 ?process_assert@@YGXPBD0H@Z ; process_assert
  00076	c7 45 a8 00 00
	00 00		 mov	 DWORD PTR tv80[ebp], 0
$LN11@get_valid_:
  0007d	b9 01 00 00 00	 mov	 ecx, 1
  00082	85 c9		 test	 ecx, ecx
  00084	74 09		 je	 SHORT $LN12@get_valid_
  00086	c7 45 a4 08 00
	00 00		 mov	 DWORD PTR tv88[ebp], 8
  0008d	eb 21		 jmp	 SHORT $LN13@get_valid_
$LN12@get_valid_:
  0008f	8b 15 00 00 00
	00		 mov	 edx, DWORD PTR ?__LINE__Var@?0??get_valid_gunship_target_safe_index@@YGHPAUENTITY@@H@Z@4JA
  00095	83 c2 14	 add	 edx, 20			; 00000014H
  00098	52		 push	 edx
  00099	68 00 00 00 00	 push	 OFFSET ??_C@_0EO@LDNOEIJA@c?3?2users?2nhv90?2projects?2eech?2ap@
  0009e	a1 00 00 00 00	 mov	 eax, DWORD PTR ?overload_invalid_vec3d_type_message@@3PBDB ; overload_invalid_vec3d_type_message
  000a3	50		 push	 eax
  000a4	e8 00 00 00 00	 call	 ?process_assert@@YGXPBD0H@Z ; process_assert
  000a9	c7 45 a4 00 00
	00 00		 mov	 DWORD PTR tv88[ebp], 0
$LN13@get_valid_:
  000b0	6a 08		 push	 8
  000b2	8b 4d 08	 mov	 ecx, DWORD PTR _receiver$[ebp]
  000b5	51		 push	 ecx
  000b6	6b 55 a8 60	 imul	 edx, DWORD PTR tv80[ebp], 96
  000ba	8b 45 a4	 mov	 eax, DWORD PTR tv88[ebp]
  000bd	8b 8c 82 00 00
	00 00		 mov	 ecx, DWORD PTR ?fn_get_local_entity_vec3d_ptr@@3PAY0BI@P6GPAUVEC3D@@PAUENTITY@@W4VEC3D_TYPES@@@ZA[edx+eax*4]
  000c4	ff d1		 call	 ecx
  000c6	89 45 f0	 mov	 DWORD PTR _receiver_position$[ebp], eax

; 871  : 
; 872  : 	target = get_local_entity_first_child (get_gunship_entity (), LIST_TYPE_GUNSHIP_TARGET);

  000c9	83 3d 00 00 00
	00 00		 cmp	 DWORD PTR ?gunship_entity@@3PAUENTITY@@A, 0 ; gunship_entity
  000d0	74 0c		 je	 SHORT $LN14@get_valid_
  000d2	a1 00 00 00 00	 mov	 eax, DWORD PTR ?gunship_entity@@3PAUENTITY@@A ; gunship_entity
  000d7	8b 08		 mov	 ecx, DWORD PTR [eax]
  000d9	89 4d a8	 mov	 DWORD PTR tv132[ebp], ecx
  000dc	eb 21		 jmp	 SHORT $LN15@get_valid_
$LN14@get_valid_:
  000de	8b 15 00 00 00
	00		 mov	 edx, DWORD PTR ?__LINE__Var@?0??get_valid_gunship_target_safe_index@@YGHPAUENTITY@@H@Z@4JA
  000e4	83 c2 16	 add	 edx, 22			; 00000016H
  000e7	52		 push	 edx
  000e8	68 00 00 00 00	 push	 OFFSET ??_C@_0EO@LDNOEIJA@c?3?2users?2nhv90?2projects?2eech?2ap@
  000ed	a1 00 00 00 00	 mov	 eax, DWORD PTR ?null_entity_pointer_message@@3PBDB ; null_entity_pointer_message
  000f2	50		 push	 eax
  000f3	e8 00 00 00 00	 call	 ?process_assert@@YGXPBD0H@Z ; process_assert
  000f8	c7 45 a8 00 00
	00 00		 mov	 DWORD PTR tv132[ebp], 0
$LN15@get_valid_:
  000ff	b9 01 00 00 00	 mov	 ecx, 1
  00104	85 c9		 test	 ecx, ecx
  00106	74 09		 je	 SHORT $LN16@get_valid_
  00108	c7 45 a4 12 00
	00 00		 mov	 DWORD PTR tv140[ebp], 18 ; 00000012H
  0010f	eb 21		 jmp	 SHORT $LN17@get_valid_
$LN16@get_valid_:
  00111	8b 15 00 00 00
	00		 mov	 edx, DWORD PTR ?__LINE__Var@?0??get_valid_gunship_target_safe_index@@YGHPAUENTITY@@H@Z@4JA
  00117	83 c2 16	 add	 edx, 22			; 00000016H
  0011a	52		 push	 edx
  0011b	68 00 00 00 00	 push	 OFFSET ??_C@_0EO@LDNOEIJA@c?3?2users?2nhv90?2projects?2eech?2ap@
  00120	a1 00 00 00 00	 mov	 eax, DWORD PTR ?overload_invalid_list_type_message@@3PBDB ; overload_invalid_list_type_message
  00125	50		 push	 eax
  00126	e8 00 00 00 00	 call	 ?process_assert@@YGXPBD0H@Z ; process_assert
  0012b	c7 45 a4 00 00
	00 00		 mov	 DWORD PTR tv140[ebp], 0
$LN17@get_valid_:
  00132	6a 12		 push	 18			; 00000012H
  00134	8b 0d 00 00 00
	00		 mov	 ecx, DWORD PTR ?gunship_entity@@3PAUENTITY@@A ; gunship_entity
  0013a	51		 push	 ecx
  0013b	69 55 a8 b4 00
	00 00		 imul	 edx, DWORD PTR tv132[ebp], 180
  00142	8b 45 a4	 mov	 eax, DWORD PTR tv140[ebp]
  00145	8b 8c 82 00 00
	00 00		 mov	 ecx, DWORD PTR ?fn_get_local_entity_first_child@@3PAY0CN@P6GPAUENTITY@@PAU1@W4LIST_TYPES@@@ZA[edx+eax*4]
  0014c	ff d1		 call	 ecx
  0014e	89 45 f4	 mov	 DWORD PTR _target$[ebp], eax
$LN2@get_valid_:

; 873  : 
; 874  : 	while (target)

  00151	83 7d f4 00	 cmp	 DWORD PTR _target$[ebp], 0
  00155	0f 84 d9 01 00
	00		 je	 $LN3@get_valid_

; 875  : 	{
; 876  : 		if (get_local_entity_int_value (target, INT_TYPE_IDENTIFY_MOBILE))

  0015b	83 7d f4 00	 cmp	 DWORD PTR _target$[ebp], 0
  0015f	74 0a		 je	 SHORT $LN18@get_valid_
  00161	8b 45 f4	 mov	 eax, DWORD PTR _target$[ebp]
  00164	8b 08		 mov	 ecx, DWORD PTR [eax]
  00166	89 4d a8	 mov	 DWORD PTR tv152[ebp], ecx
  00169	eb 1d		 jmp	 SHORT $LN19@get_valid_
$LN18@get_valid_:
  0016b	68 6c 03 00 00	 push	 876			; 0000036cH
  00170	68 00 00 00 00	 push	 OFFSET ??_C@_0EO@LDNOEIJA@c?3?2users?2nhv90?2projects?2eech?2ap@
  00175	8b 15 00 00 00
	00		 mov	 edx, DWORD PTR ?null_entity_pointer_message@@3PBDB ; null_entity_pointer_message
  0017b	52		 push	 edx
  0017c	e8 00 00 00 00	 call	 ?process_assert@@YGXPBD0H@Z ; process_assert
  00181	c7 45 a8 00 00
	00 00		 mov	 DWORD PTR tv152[ebp], 0
$LN19@get_valid_:
  00188	b8 01 00 00 00	 mov	 eax, 1
  0018d	85 c0		 test	 eax, eax
  0018f	74 09		 je	 SHORT $LN20@get_valid_
  00191	c7 45 a4 5d 00
	00 00		 mov	 DWORD PTR tv159[ebp], 93 ; 0000005dH
  00198	eb 1d		 jmp	 SHORT $LN21@get_valid_
$LN20@get_valid_:
  0019a	68 6c 03 00 00	 push	 876			; 0000036cH
  0019f	68 00 00 00 00	 push	 OFFSET ??_C@_0EO@LDNOEIJA@c?3?2users?2nhv90?2projects?2eech?2ap@
  001a4	8b 0d 00 00 00
	00		 mov	 ecx, DWORD PTR ?overload_invalid_int_type_message@@3PBDB ; overload_invalid_int_type_message
  001aa	51		 push	 ecx
  001ab	e8 00 00 00 00	 call	 ?process_assert@@YGXPBD0H@Z ; process_assert
  001b0	c7 45 a4 00 00
	00 00		 mov	 DWORD PTR tv159[ebp], 0
$LN21@get_valid_:
  001b7	6a 5d		 push	 93			; 0000005dH
  001b9	8b 55 f4	 mov	 edx, DWORD PTR _target$[ebp]
  001bc	52		 push	 edx
  001bd	69 45 a8 5c 04
	00 00		 imul	 eax, DWORD PTR tv152[ebp], 1116
  001c4	8b 4d a4	 mov	 ecx, DWORD PTR tv159[ebp]
  001c7	8b 94 88 00 00
	00 00		 mov	 edx, DWORD PTR ?fn_get_local_entity_int_value@@3PAY0BBH@P6GHPAUENTITY@@W4INT_TYPES@@@ZA[eax+ecx*4]
  001ce	ff d2		 call	 edx
  001d0	85 c0		 test	 eax, eax
  001d2	0f 84 d7 00 00
	00		 je	 $LN7@get_valid_

; 877  : 		{
; 878  : 			target_position = get_local_entity_vec3d_ptr (target, VEC3D_TYPE_POSITION);

  001d8	83 7d f4 00	 cmp	 DWORD PTR _target$[ebp], 0
  001dc	74 0a		 je	 SHORT $LN22@get_valid_
  001de	8b 45 f4	 mov	 eax, DWORD PTR _target$[ebp]
  001e1	8b 08		 mov	 ecx, DWORD PTR [eax]
  001e3	89 4d a8	 mov	 DWORD PTR tv172[ebp], ecx
  001e6	eb 21		 jmp	 SHORT $LN23@get_valid_
$LN22@get_valid_:
  001e8	8b 15 00 00 00
	00		 mov	 edx, DWORD PTR ?__LINE__Var@?0??get_valid_gunship_target_safe_index@@YGHPAUENTITY@@H@Z@4JA
  001ee	83 c2 1c	 add	 edx, 28			; 0000001cH
  001f1	52		 push	 edx
  001f2	68 00 00 00 00	 push	 OFFSET ??_C@_0EO@LDNOEIJA@c?3?2users?2nhv90?2projects?2eech?2ap@
  001f7	a1 00 00 00 00	 mov	 eax, DWORD PTR ?null_entity_pointer_message@@3PBDB ; null_entity_pointer_message
  001fc	50		 push	 eax
  001fd	e8 00 00 00 00	 call	 ?process_assert@@YGXPBD0H@Z ; process_assert
  00202	c7 45 a8 00 00
	00 00		 mov	 DWORD PTR tv172[ebp], 0
$LN23@get_valid_:
  00209	b9 01 00 00 00	 mov	 ecx, 1
  0020e	85 c9		 test	 ecx, ecx
  00210	74 09		 je	 SHORT $LN24@get_valid_
  00212	c7 45 a4 08 00
	00 00		 mov	 DWORD PTR tv180[ebp], 8
  00219	eb 21		 jmp	 SHORT $LN25@get_valid_
$LN24@get_valid_:
  0021b	8b 15 00 00 00
	00		 mov	 edx, DWORD PTR ?__LINE__Var@?0??get_valid_gunship_target_safe_index@@YGHPAUENTITY@@H@Z@4JA
  00221	83 c2 1c	 add	 edx, 28			; 0000001cH
  00224	52		 push	 edx
  00225	68 00 00 00 00	 push	 OFFSET ??_C@_0EO@LDNOEIJA@c?3?2users?2nhv90?2projects?2eech?2ap@
  0022a	a1 00 00 00 00	 mov	 eax, DWORD PTR ?overload_invalid_vec3d_type_message@@3PBDB ; overload_invalid_vec3d_type_message
  0022f	50		 push	 eax
  00230	e8 00 00 00 00	 call	 ?process_assert@@YGXPBD0H@Z ; process_assert
  00235	c7 45 a4 00 00
	00 00		 mov	 DWORD PTR tv180[ebp], 0
$LN25@get_valid_:
  0023c	6a 08		 push	 8
  0023e	8b 4d f4	 mov	 ecx, DWORD PTR _target$[ebp]
  00241	51		 push	 ecx
  00242	6b 55 a8 60	 imul	 edx, DWORD PTR tv172[ebp], 96
  00246	8b 45 a4	 mov	 eax, DWORD PTR tv180[ebp]
  00249	8b 8c 82 00 00
	00 00		 mov	 ecx, DWORD PTR ?fn_get_local_entity_vec3d_ptr@@3PAY0BI@P6GPAUVEC3D@@PAUENTITY@@W4VEC3D_TYPES@@@ZA[edx+eax*4]
  00250	ff d1		 call	 ecx
  00252	89 45 ec	 mov	 DWORD PTR _target_position$[ebp], eax

; 879  : 
; 880  : 			sqr_target_range = get_sqr_3d_range (receiver_position, target_position);

  00255	8b 45 ec	 mov	 eax, DWORD PTR _target_position$[ebp]
  00258	50		 push	 eax
  00259	8b 4d f0	 mov	 ecx, DWORD PTR _receiver_position$[ebp]
  0025c	51		 push	 ecx
  0025d	e8 00 00 00 00	 call	 ?get_sqr_3d_range@@YGMPBUVEC3D@@0@Z ; get_sqr_3d_range
  00262	d9 5d f8	 fstp	 DWORD PTR _sqr_target_range$[ebp]

; 881  : 
; 882  : 			if (sqr_target_range < SQR_MAX_TARGET_RANGE)

  00265	f3 0f 5a 45 f8	 cvtss2sd xmm0, DWORD PTR _sqr_target_range$[ebp]
  0026a	f2 0f 10 0d 00
	00 00 00	 movsd	 xmm1, QWORD PTR __real@41d2410110000000
  00272	66 0f 2f c8	 comisd	 xmm1, xmm0
  00276	76 37		 jbe	 SHORT $LN7@get_valid_

; 883  : 			{
; 884  : 				if (count == depth)

  00278	8b 45 fc	 mov	 eax, DWORD PTR _count$[ebp]
  0027b	3b 45 0c	 cmp	 eax, DWORD PTR _depth$[ebp]
  0027e	75 26		 jne	 SHORT $LN8@get_valid_

; 885  : 				{
; 886  : 				 	return (get_local_entity_safe_index (target));

  00280	83 7d f4 00	 cmp	 DWORD PTR _target$[ebp], 0
  00284	74 11		 je	 SHORT $LN26@get_valid_
  00286	8b 45 f4	 mov	 eax, DWORD PTR _target$[ebp]
  00289	2b 05 00 00 00
	00		 sub	 eax, DWORD PTR ?entities@@3PAUENTITY@@A ; entities
  0028f	c1 f8 04	 sar	 eax, 4
  00292	89 45 a8	 mov	 DWORD PTR tv195[ebp], eax
  00295	eb 07		 jmp	 SHORT $LN27@get_valid_
$LN26@get_valid_:
  00297	c7 45 a8 ff ff
	ff ff		 mov	 DWORD PTR tv195[ebp], -1
$LN27@get_valid_:
  0029e	8b 45 a8	 mov	 eax, DWORD PTR tv195[ebp]
  002a1	e9 a5 00 00 00	 jmp	 $LN1@get_valid_
$LN8@get_valid_:

; 887  : 				}
; 888  : 
; 889  : 				count++;

  002a6	8b 45 fc	 mov	 eax, DWORD PTR _count$[ebp]
  002a9	83 c0 01	 add	 eax, 1
  002ac	89 45 fc	 mov	 DWORD PTR _count$[ebp], eax
$LN7@get_valid_:

; 890  : 			}
; 891  : 		}
; 892  : 
; 893  : 		target = get_local_entity_child_succ (target, LIST_TYPE_GUNSHIP_TARGET);

  002af	83 7d f4 00	 cmp	 DWORD PTR _target$[ebp], 0
  002b3	74 0a		 je	 SHORT $LN28@get_valid_
  002b5	8b 45 f4	 mov	 eax, DWORD PTR _target$[ebp]
  002b8	8b 08		 mov	 ecx, DWORD PTR [eax]
  002ba	89 4d a8	 mov	 DWORD PTR tv203[ebp], ecx
  002bd	eb 21		 jmp	 SHORT $LN29@get_valid_
$LN28@get_valid_:
  002bf	8b 15 00 00 00
	00		 mov	 edx, DWORD PTR ?__LINE__Var@?0??get_valid_gunship_target_safe_index@@YGHPAUENTITY@@H@Z@4JA
  002c5	83 c2 2b	 add	 edx, 43			; 0000002bH
  002c8	52		 push	 edx
  002c9	68 00 00 00 00	 push	 OFFSET ??_C@_0EO@LDNOEIJA@c?3?2users?2nhv90?2projects?2eech?2ap@
  002ce	a1 00 00 00 00	 mov	 eax, DWORD PTR ?null_entity_pointer_message@@3PBDB ; null_entity_pointer_message
  002d3	50		 push	 eax
  002d4	e8 00 00 00 00	 call	 ?process_assert@@YGXPBD0H@Z ; process_assert
  002d9	c7 45 a8 00 00
	00 00		 mov	 DWORD PTR tv203[ebp], 0
$LN29@get_valid_:
  002e0	b9 01 00 00 00	 mov	 ecx, 1
  002e5	85 c9		 test	 ecx, ecx
  002e7	74 09		 je	 SHORT $LN30@get_valid_
  002e9	c7 45 a4 12 00
	00 00		 mov	 DWORD PTR tv211[ebp], 18 ; 00000012H
  002f0	eb 21		 jmp	 SHORT $LN31@get_valid_
$LN30@get_valid_:
  002f2	8b 15 00 00 00
	00		 mov	 edx, DWORD PTR ?__LINE__Var@?0??get_valid_gunship_target_safe_index@@YGHPAUENTITY@@H@Z@4JA
  002f8	83 c2 2b	 add	 edx, 43			; 0000002bH
  002fb	52		 push	 edx
  002fc	68 00 00 00 00	 push	 OFFSET ??_C@_0EO@LDNOEIJA@c?3?2users?2nhv90?2projects?2eech?2ap@
  00301	a1 00 00 00 00	 mov	 eax, DWORD PTR ?overload_invalid_list_type_message@@3PBDB ; overload_invalid_list_type_message
  00306	50		 push	 eax
  00307	e8 00 00 00 00	 call	 ?process_assert@@YGXPBD0H@Z ; process_assert
  0030c	c7 45 a4 00 00
	00 00		 mov	 DWORD PTR tv211[ebp], 0
$LN31@get_valid_:
  00313	6a 12		 push	 18			; 00000012H
  00315	8b 4d f4	 mov	 ecx, DWORD PTR _target$[ebp]
  00318	51		 push	 ecx
  00319	69 55 a8 b4 00
	00 00		 imul	 edx, DWORD PTR tv203[ebp], 180
  00320	8b 45 a4	 mov	 eax, DWORD PTR tv211[ebp]
  00323	8b 8c 82 00 00
	00 00		 mov	 ecx, DWORD PTR ?fn_get_local_entity_child_succ@@3PAY0CN@P6GPAUENTITY@@PAU1@W4LIST_TYPES@@@ZA[edx+eax*4]
  0032a	ff d1		 call	 ecx
  0032c	89 45 f4	 mov	 DWORD PTR _target$[ebp], eax

; 894  : 	}

  0032f	e9 1d fe ff ff	 jmp	 $LN2@get_valid_
$LN3@get_valid_:

; 895  : 
; 896  : 	debug_fatal ("Cannot find valid gunship target (count = %d, depth = %d)", count, depth);

  00334	8b 45 0c	 mov	 eax, DWORD PTR _depth$[ebp]
  00337	50		 push	 eax
  00338	8b 4d fc	 mov	 ecx, DWORD PTR _count$[ebp]
  0033b	51		 push	 ecx
  0033c	68 00 00 00 00	 push	 OFFSET ??_C@_0DK@OLLAKKNO@Cannot?5find?5valid?5gunship?5targe@
  00341	e8 00 00 00 00	 call	 ?debug_fatal@@YAXPBDZZ	; debug_fatal
  00346	83 c4 0c	 add	 esp, 12			; 0000000cH

; 897  : 
; 898  : 	return (0);

  00349	33 c0		 xor	 eax, eax
$LN1@get_valid_:

; 899  : }

  0034b	5f		 pop	 edi
  0034c	5e		 pop	 esi
  0034d	5b		 pop	 ebx
  0034e	8b e5		 mov	 esp, ebp
  00350	5d		 pop	 ebp
  00351	c2 08 00	 ret	 8
?get_valid_gunship_target_safe_index@@YGHPAUENTITY@@H@Z ENDP ; get_valid_gunship_target_safe_index
_TEXT	ENDS
; Function compile flags: /Odtp /ZI
; File c:\users\nhv90\projects\eech\aphavoc\source\gunships\avionics\common\co_tgt.c
;	COMDAT ?get_number_of_valid_gunship_targets@@YGHPAUENTITY@@@Z
_TEXT	SEGMENT
tv201 = -92						; size = 4
tv175 = -92						; size = 4
tv154 = -92						; size = 4
tv135 = -92						; size = 4
tv83 = -92						; size = 4
tv193 = -88						; size = 4
tv167 = -88						; size = 4
tv147 = -88						; size = 4
tv95 = -88						; size = 4
tv75 = -88						; size = 4
_target_position$ = -20					; size = 4
_receiver_position$ = -16				; size = 4
_target$ = -12						; size = 4
_sqr_target_range$ = -8					; size = 4
_count$ = -4						; size = 4
_receiver$ = 8						; size = 4
?get_number_of_valid_gunship_targets@@YGHPAUENTITY@@@Z PROC ; get_number_of_valid_gunship_targets, COMDAT

; 803  : {

  00000	55		 push	 ebp
  00001	8b ec		 mov	 ebp, esp
  00003	83 ec 5c	 sub	 esp, 92			; 0000005cH
  00006	53		 push	 ebx
  00007	56		 push	 esi
  00008	57		 push	 edi

; 804  : 	int
; 805  : 		count;
; 806  : 
; 807  : 	float
; 808  : 		sqr_target_range;
; 809  : 
; 810  : 	entity
; 811  : 		*target;
; 812  : 
; 813  : 	vec3d
; 814  : 		*receiver_position,
; 815  : 		*target_position;
; 816  : 
; 817  : 	ASSERT (receiver);

  00009	83 7d 08 00	 cmp	 DWORD PTR _receiver$[ebp], 0
  0000d	75 18		 jne	 SHORT $LN4@get_number
  0000f	a1 00 00 00 00	 mov	 eax, DWORD PTR ?__LINE__Var@?0??get_number_of_valid_gunship_targets@@YGHPAUENTITY@@@Z@4JA
  00014	83 c0 0e	 add	 eax, 14			; 0000000eH
  00017	50		 push	 eax
  00018	68 00 00 00 00	 push	 OFFSET ??_C@_0EO@LDNOEIJA@c?3?2users?2nhv90?2projects?2eech?2ap@
  0001d	68 00 00 00 00	 push	 OFFSET ??_C@_08DEKMJOIP@receiver@
  00022	e8 00 00 00 00	 call	 ?process_assert@@YGXPBD0H@Z ; process_assert
$LN4@get_number:

; 818  : 
; 819  : 	count = 0;

  00027	c7 45 fc 00 00
	00 00		 mov	 DWORD PTR _count$[ebp], 0

; 820  : 
; 821  : 	receiver_position = get_local_entity_vec3d_ptr (receiver, VEC3D_TYPE_POSITION);

  0002e	83 7d 08 00	 cmp	 DWORD PTR _receiver$[ebp], 0
  00032	74 0a		 je	 SHORT $LN8@get_number
  00034	8b 45 08	 mov	 eax, DWORD PTR _receiver$[ebp]
  00037	8b 08		 mov	 ecx, DWORD PTR [eax]
  00039	89 4d a8	 mov	 DWORD PTR tv75[ebp], ecx
  0003c	eb 21		 jmp	 SHORT $LN9@get_number
$LN8@get_number:
  0003e	8b 15 00 00 00
	00		 mov	 edx, DWORD PTR ?__LINE__Var@?0??get_number_of_valid_gunship_targets@@YGHPAUENTITY@@@Z@4JA
  00044	83 c2 12	 add	 edx, 18			; 00000012H
  00047	52		 push	 edx
  00048	68 00 00 00 00	 push	 OFFSET ??_C@_0EO@LDNOEIJA@c?3?2users?2nhv90?2projects?2eech?2ap@
  0004d	a1 00 00 00 00	 mov	 eax, DWORD PTR ?null_entity_pointer_message@@3PBDB ; null_entity_pointer_message
  00052	50		 push	 eax
  00053	e8 00 00 00 00	 call	 ?process_assert@@YGXPBD0H@Z ; process_assert
  00058	c7 45 a8 00 00
	00 00		 mov	 DWORD PTR tv75[ebp], 0
$LN9@get_number:
  0005f	b9 01 00 00 00	 mov	 ecx, 1
  00064	85 c9		 test	 ecx, ecx
  00066	74 09		 je	 SHORT $LN10@get_number
  00068	c7 45 a4 08 00
	00 00		 mov	 DWORD PTR tv83[ebp], 8
  0006f	eb 21		 jmp	 SHORT $LN11@get_number
$LN10@get_number:
  00071	8b 15 00 00 00
	00		 mov	 edx, DWORD PTR ?__LINE__Var@?0??get_number_of_valid_gunship_targets@@YGHPAUENTITY@@@Z@4JA
  00077	83 c2 12	 add	 edx, 18			; 00000012H
  0007a	52		 push	 edx
  0007b	68 00 00 00 00	 push	 OFFSET ??_C@_0EO@LDNOEIJA@c?3?2users?2nhv90?2projects?2eech?2ap@
  00080	a1 00 00 00 00	 mov	 eax, DWORD PTR ?overload_invalid_vec3d_type_message@@3PBDB ; overload_invalid_vec3d_type_message
  00085	50		 push	 eax
  00086	e8 00 00 00 00	 call	 ?process_assert@@YGXPBD0H@Z ; process_assert
  0008b	c7 45 a4 00 00
	00 00		 mov	 DWORD PTR tv83[ebp], 0
$LN11@get_number:
  00092	6a 08		 push	 8
  00094	8b 4d 08	 mov	 ecx, DWORD PTR _receiver$[ebp]
  00097	51		 push	 ecx
  00098	6b 55 a8 60	 imul	 edx, DWORD PTR tv75[ebp], 96
  0009c	8b 45 a4	 mov	 eax, DWORD PTR tv83[ebp]
  0009f	8b 8c 82 00 00
	00 00		 mov	 ecx, DWORD PTR ?fn_get_local_entity_vec3d_ptr@@3PAY0BI@P6GPAUVEC3D@@PAUENTITY@@W4VEC3D_TYPES@@@ZA[edx+eax*4]
  000a6	ff d1		 call	 ecx
  000a8	89 45 f0	 mov	 DWORD PTR _receiver_position$[ebp], eax

; 822  : 
; 823  : 	target = get_local_entity_first_child (get_gunship_entity (), LIST_TYPE_GUNSHIP_TARGET);

  000ab	83 3d 00 00 00
	00 00		 cmp	 DWORD PTR ?gunship_entity@@3PAUENTITY@@A, 0 ; gunship_entity
  000b2	74 0c		 je	 SHORT $LN12@get_number
  000b4	a1 00 00 00 00	 mov	 eax, DWORD PTR ?gunship_entity@@3PAUENTITY@@A ; gunship_entity
  000b9	8b 08		 mov	 ecx, DWORD PTR [eax]
  000bb	89 4d a8	 mov	 DWORD PTR tv95[ebp], ecx
  000be	eb 21		 jmp	 SHORT $LN13@get_number
$LN12@get_number:
  000c0	8b 15 00 00 00
	00		 mov	 edx, DWORD PTR ?__LINE__Var@?0??get_number_of_valid_gunship_targets@@YGHPAUENTITY@@@Z@4JA
  000c6	83 c2 14	 add	 edx, 20			; 00000014H
  000c9	52		 push	 edx
  000ca	68 00 00 00 00	 push	 OFFSET ??_C@_0EO@LDNOEIJA@c?3?2users?2nhv90?2projects?2eech?2ap@
  000cf	a1 00 00 00 00	 mov	 eax, DWORD PTR ?null_entity_pointer_message@@3PBDB ; null_entity_pointer_message
  000d4	50		 push	 eax
  000d5	e8 00 00 00 00	 call	 ?process_assert@@YGXPBD0H@Z ; process_assert
  000da	c7 45 a8 00 00
	00 00		 mov	 DWORD PTR tv95[ebp], 0
$LN13@get_number:
  000e1	b9 01 00 00 00	 mov	 ecx, 1
  000e6	85 c9		 test	 ecx, ecx
  000e8	74 09		 je	 SHORT $LN14@get_number
  000ea	c7 45 a4 12 00
	00 00		 mov	 DWORD PTR tv135[ebp], 18 ; 00000012H
  000f1	eb 21		 jmp	 SHORT $LN15@get_number
$LN14@get_number:
  000f3	8b 15 00 00 00
	00		 mov	 edx, DWORD PTR ?__LINE__Var@?0??get_number_of_valid_gunship_targets@@YGHPAUENTITY@@@Z@4JA
  000f9	83 c2 14	 add	 edx, 20			; 00000014H
  000fc	52		 push	 edx
  000fd	68 00 00 00 00	 push	 OFFSET ??_C@_0EO@LDNOEIJA@c?3?2users?2nhv90?2projects?2eech?2ap@
  00102	a1 00 00 00 00	 mov	 eax, DWORD PTR ?overload_invalid_list_type_message@@3PBDB ; overload_invalid_list_type_message
  00107	50		 push	 eax
  00108	e8 00 00 00 00	 call	 ?process_assert@@YGXPBD0H@Z ; process_assert
  0010d	c7 45 a4 00 00
	00 00		 mov	 DWORD PTR tv135[ebp], 0
$LN15@get_number:
  00114	6a 12		 push	 18			; 00000012H
  00116	8b 0d 00 00 00
	00		 mov	 ecx, DWORD PTR ?gunship_entity@@3PAUENTITY@@A ; gunship_entity
  0011c	51		 push	 ecx
  0011d	69 55 a8 b4 00
	00 00		 imul	 edx, DWORD PTR tv95[ebp], 180
  00124	8b 45 a4	 mov	 eax, DWORD PTR tv135[ebp]
  00127	8b 8c 82 00 00
	00 00		 mov	 ecx, DWORD PTR ?fn_get_local_entity_first_child@@3PAY0CN@P6GPAUENTITY@@PAU1@W4LIST_TYPES@@@ZA[edx+eax*4]
  0012e	ff d1		 call	 ecx
  00130	89 45 f4	 mov	 DWORD PTR _target$[ebp], eax
$LN2@get_number:

; 824  : 
; 825  : 	while (target)

  00133	83 7d f4 00	 cmp	 DWORD PTR _target$[ebp], 0
  00137	0f 84 ab 01 00
	00		 je	 $LN3@get_number

; 826  : 	{
; 827  : 		if (get_local_entity_int_value (target, INT_TYPE_IDENTIFY_MOBILE))

  0013d	83 7d f4 00	 cmp	 DWORD PTR _target$[ebp], 0
  00141	74 0a		 je	 SHORT $LN16@get_number
  00143	8b 45 f4	 mov	 eax, DWORD PTR _target$[ebp]
  00146	8b 08		 mov	 ecx, DWORD PTR [eax]
  00148	89 4d a8	 mov	 DWORD PTR tv147[ebp], ecx
  0014b	eb 1d		 jmp	 SHORT $LN17@get_number
$LN16@get_number:
  0014d	68 3b 03 00 00	 push	 827			; 0000033bH
  00152	68 00 00 00 00	 push	 OFFSET ??_C@_0EO@LDNOEIJA@c?3?2users?2nhv90?2projects?2eech?2ap@
  00157	8b 15 00 00 00
	00		 mov	 edx, DWORD PTR ?null_entity_pointer_message@@3PBDB ; null_entity_pointer_message
  0015d	52		 push	 edx
  0015e	e8 00 00 00 00	 call	 ?process_assert@@YGXPBD0H@Z ; process_assert
  00163	c7 45 a8 00 00
	00 00		 mov	 DWORD PTR tv147[ebp], 0
$LN17@get_number:
  0016a	b8 01 00 00 00	 mov	 eax, 1
  0016f	85 c0		 test	 eax, eax
  00171	74 09		 je	 SHORT $LN18@get_number
  00173	c7 45 a4 5d 00
	00 00		 mov	 DWORD PTR tv154[ebp], 93 ; 0000005dH
  0017a	eb 1d		 jmp	 SHORT $LN19@get_number
$LN18@get_number:
  0017c	68 3b 03 00 00	 push	 827			; 0000033bH
  00181	68 00 00 00 00	 push	 OFFSET ??_C@_0EO@LDNOEIJA@c?3?2users?2nhv90?2projects?2eech?2ap@
  00186	8b 0d 00 00 00
	00		 mov	 ecx, DWORD PTR ?overload_invalid_int_type_message@@3PBDB ; overload_invalid_int_type_message
  0018c	51		 push	 ecx
  0018d	e8 00 00 00 00	 call	 ?process_assert@@YGXPBD0H@Z ; process_assert
  00192	c7 45 a4 00 00
	00 00		 mov	 DWORD PTR tv154[ebp], 0
$LN19@get_number:
  00199	6a 5d		 push	 93			; 0000005dH
  0019b	8b 55 f4	 mov	 edx, DWORD PTR _target$[ebp]
  0019e	52		 push	 edx
  0019f	69 45 a8 5c 04
	00 00		 imul	 eax, DWORD PTR tv147[ebp], 1116
  001a6	8b 4d a4	 mov	 ecx, DWORD PTR tv154[ebp]
  001a9	8b 94 88 00 00
	00 00		 mov	 edx, DWORD PTR ?fn_get_local_entity_int_value@@3PAY0BBH@P6GHPAUENTITY@@W4INT_TYPES@@@ZA[eax+ecx*4]
  001b0	ff d2		 call	 edx
  001b2	85 c0		 test	 eax, eax
  001b4	0f 84 a9 00 00
	00		 je	 $LN6@get_number

; 828  : 		{
; 829  : 			target_position = get_local_entity_vec3d_ptr (target, VEC3D_TYPE_POSITION);

  001ba	83 7d f4 00	 cmp	 DWORD PTR _target$[ebp], 0
  001be	74 0a		 je	 SHORT $LN20@get_number
  001c0	8b 45 f4	 mov	 eax, DWORD PTR _target$[ebp]
  001c3	8b 08		 mov	 ecx, DWORD PTR [eax]
  001c5	89 4d a8	 mov	 DWORD PTR tv167[ebp], ecx
  001c8	eb 21		 jmp	 SHORT $LN21@get_number
$LN20@get_number:
  001ca	8b 15 00 00 00
	00		 mov	 edx, DWORD PTR ?__LINE__Var@?0??get_number_of_valid_gunship_targets@@YGHPAUENTITY@@@Z@4JA
  001d0	83 c2 1a	 add	 edx, 26			; 0000001aH
  001d3	52		 push	 edx
  001d4	68 00 00 00 00	 push	 OFFSET ??_C@_0EO@LDNOEIJA@c?3?2users?2nhv90?2projects?2eech?2ap@
  001d9	a1 00 00 00 00	 mov	 eax, DWORD PTR ?null_entity_pointer_message@@3PBDB ; null_entity_pointer_message
  001de	50		 push	 eax
  001df	e8 00 00 00 00	 call	 ?process_assert@@YGXPBD0H@Z ; process_assert
  001e4	c7 45 a8 00 00
	00 00		 mov	 DWORD PTR tv167[ebp], 0
$LN21@get_number:
  001eb	b9 01 00 00 00	 mov	 ecx, 1
  001f0	85 c9		 test	 ecx, ecx
  001f2	74 09		 je	 SHORT $LN22@get_number
  001f4	c7 45 a4 08 00
	00 00		 mov	 DWORD PTR tv175[ebp], 8
  001fb	eb 21		 jmp	 SHORT $LN23@get_number
$LN22@get_number:
  001fd	8b 15 00 00 00
	00		 mov	 edx, DWORD PTR ?__LINE__Var@?0??get_number_of_valid_gunship_targets@@YGHPAUENTITY@@@Z@4JA
  00203	83 c2 1a	 add	 edx, 26			; 0000001aH
  00206	52		 push	 edx
  00207	68 00 00 00 00	 push	 OFFSET ??_C@_0EO@LDNOEIJA@c?3?2users?2nhv90?2projects?2eech?2ap@
  0020c	a1 00 00 00 00	 mov	 eax, DWORD PTR ?overload_invalid_vec3d_type_message@@3PBDB ; overload_invalid_vec3d_type_message
  00211	50		 push	 eax
  00212	e8 00 00 00 00	 call	 ?process_assert@@YGXPBD0H@Z ; process_assert
  00217	c7 45 a4 00 00
	00 00		 mov	 DWORD PTR tv175[ebp], 0
$LN23@get_number:
  0021e	6a 08		 push	 8
  00220	8b 4d f4	 mov	 ecx, DWORD PTR _target$[ebp]
  00223	51		 push	 ecx
  00224	6b 55 a8 60	 imul	 edx, DWORD PTR tv167[ebp], 96
  00228	8b 45 a4	 mov	 eax, DWORD PTR tv175[ebp]
  0022b	8b 8c 82 00 00
	00 00		 mov	 ecx, DWORD PTR ?fn_get_local_entity_vec3d_ptr@@3PAY0BI@P6GPAUVEC3D@@PAUENTITY@@W4VEC3D_TYPES@@@ZA[edx+eax*4]
  00232	ff d1		 call	 ecx
  00234	89 45 ec	 mov	 DWORD PTR _target_position$[ebp], eax

; 830  : 
; 831  : 			sqr_target_range = get_sqr_3d_range (receiver_position, target_position);

  00237	8b 45 ec	 mov	 eax, DWORD PTR _target_position$[ebp]
  0023a	50		 push	 eax
  0023b	8b 4d f0	 mov	 ecx, DWORD PTR _receiver_position$[ebp]
  0023e	51		 push	 ecx
  0023f	e8 00 00 00 00	 call	 ?get_sqr_3d_range@@YGMPBUVEC3D@@0@Z ; get_sqr_3d_range
  00244	d9 5d f8	 fstp	 DWORD PTR _sqr_target_range$[ebp]

; 832  : 
; 833  : 			if (sqr_target_range < SQR_MAX_TARGET_RANGE)

  00247	f3 0f 5a 45 f8	 cvtss2sd xmm0, DWORD PTR _sqr_target_range$[ebp]
  0024c	f2 0f 10 0d 00
	00 00 00	 movsd	 xmm1, QWORD PTR __real@41d2410110000000
  00254	66 0f 2f c8	 comisd	 xmm1, xmm0
  00258	76 09		 jbe	 SHORT $LN6@get_number

; 834  : 			{
; 835  : 				count++;

  0025a	8b 45 fc	 mov	 eax, DWORD PTR _count$[ebp]
  0025d	83 c0 01	 add	 eax, 1
  00260	89 45 fc	 mov	 DWORD PTR _count$[ebp], eax
$LN6@get_number:

; 836  : 			}
; 837  : 		}
; 838  : 
; 839  : 		target = get_local_entity_child_succ (target, LIST_TYPE_GUNSHIP_TARGET);

  00263	83 7d f4 00	 cmp	 DWORD PTR _target$[ebp], 0
  00267	74 0a		 je	 SHORT $LN24@get_number
  00269	8b 45 f4	 mov	 eax, DWORD PTR _target$[ebp]
  0026c	8b 08		 mov	 ecx, DWORD PTR [eax]
  0026e	89 4d a8	 mov	 DWORD PTR tv193[ebp], ecx
  00271	eb 21		 jmp	 SHORT $LN25@get_number
$LN24@get_number:
  00273	8b 15 00 00 00
	00		 mov	 edx, DWORD PTR ?__LINE__Var@?0??get_number_of_valid_gunship_targets@@YGHPAUENTITY@@@Z@4JA
  00279	83 c2 24	 add	 edx, 36			; 00000024H
  0027c	52		 push	 edx
  0027d	68 00 00 00 00	 push	 OFFSET ??_C@_0EO@LDNOEIJA@c?3?2users?2nhv90?2projects?2eech?2ap@
  00282	a1 00 00 00 00	 mov	 eax, DWORD PTR ?null_entity_pointer_message@@3PBDB ; null_entity_pointer_message
  00287	50		 push	 eax
  00288	e8 00 00 00 00	 call	 ?process_assert@@YGXPBD0H@Z ; process_assert
  0028d	c7 45 a8 00 00
	00 00		 mov	 DWORD PTR tv193[ebp], 0
$LN25@get_number:
  00294	b9 01 00 00 00	 mov	 ecx, 1
  00299	85 c9		 test	 ecx, ecx
  0029b	74 09		 je	 SHORT $LN26@get_number
  0029d	c7 45 a4 12 00
	00 00		 mov	 DWORD PTR tv201[ebp], 18 ; 00000012H
  002a4	eb 21		 jmp	 SHORT $LN27@get_number
$LN26@get_number:
  002a6	8b 15 00 00 00
	00		 mov	 edx, DWORD PTR ?__LINE__Var@?0??get_number_of_valid_gunship_targets@@YGHPAUENTITY@@@Z@4JA
  002ac	83 c2 24	 add	 edx, 36			; 00000024H
  002af	52		 push	 edx
  002b0	68 00 00 00 00	 push	 OFFSET ??_C@_0EO@LDNOEIJA@c?3?2users?2nhv90?2projects?2eech?2ap@
  002b5	a1 00 00 00 00	 mov	 eax, DWORD PTR ?overload_invalid_list_type_message@@3PBDB ; overload_invalid_list_type_message
  002ba	50		 push	 eax
  002bb	e8 00 00 00 00	 call	 ?process_assert@@YGXPBD0H@Z ; process_assert
  002c0	c7 45 a4 00 00
	00 00		 mov	 DWORD PTR tv201[ebp], 0
$LN27@get_number:
  002c7	6a 12		 push	 18			; 00000012H
  002c9	8b 4d f4	 mov	 ecx, DWORD PTR _target$[ebp]
  002cc	51		 push	 ecx
  002cd	69 55 a8 b4 00
	00 00		 imul	 edx, DWORD PTR tv193[ebp], 180
  002d4	8b 45 a4	 mov	 eax, DWORD PTR tv201[ebp]
  002d7	8b 8c 82 00 00
	00 00		 mov	 ecx, DWORD PTR ?fn_get_local_entity_child_succ@@3PAY0CN@P6GPAUENTITY@@PAU1@W4LIST_TYPES@@@ZA[edx+eax*4]
  002de	ff d1		 call	 ecx
  002e0	89 45 f4	 mov	 DWORD PTR _target$[ebp], eax

; 840  : 	}

  002e3	e9 4b fe ff ff	 jmp	 $LN2@get_number
$LN3@get_number:

; 841  : 
; 842  : 	return (count);

  002e8	8b 45 fc	 mov	 eax, DWORD PTR _count$[ebp]

; 843  : }

  002eb	5f		 pop	 edi
  002ec	5e		 pop	 esi
  002ed	5b		 pop	 ebx
  002ee	8b e5		 mov	 esp, ebp
  002f0	5d		 pop	 ebp
  002f1	c2 04 00	 ret	 4
?get_number_of_valid_gunship_targets@@YGHPAUENTITY@@@Z ENDP ; get_number_of_valid_gunship_targets
_TEXT	ENDS
; Function compile flags: /Odtp /ZI
; File c:\users\nhv90\projects\eech\aphavoc\source\gunships\avionics\common\co_tgt.c
;	COMDAT ?get_target_display_name@@YGPBDPAUENTITY@@PADH@Z
_TEXT	SEGMENT
tv295 = -92						; size = 4
tv164 = -92						; size = 4
tv288 = -88						; size = 4
tv157 = -88						; size = 4
tv280 = -84						; size = 4
tv149 = -84						; size = 4
tv409 = -80						; size = 4
tv385 = -80						; size = 4
tv358 = -80						; size = 4
tv335 = -80						; size = 4
tv312 = -80						; size = 4
tv268 = -80						; size = 4
tv247 = -80						; size = 4
tv227 = -80						; size = 4
tv204 = -80						; size = 4
tv181 = -80						; size = 4
tv137 = -80						; size = 4
tv84 = -80						; size = 4
tv401 = -76						; size = 4
tv377 = -76						; size = 4
tv350 = -76						; size = 4
tv327 = -76						; size = 4
tv304 = -76						; size = 4
tv260 = -76						; size = 4
tv240 = -76						; size = 4
tv219 = -76						; size = 4
tv196 = -76						; size = 4
tv173 = -76						; size = 4
tv129 = -76						; size = 4
tv77 = -76						; size = 4
tv69 = -76						; size = 4
_target_name$ = -8					; size = 4
_allied$ = -4						; size = 4
_target$ = 8						; size = 4
_buffer$ = 12						; size = 4
_large_display$ = 16					; size = 4
?get_target_display_name@@YGPBDPAUENTITY@@PADH@Z PROC	; get_target_display_name, COMDAT

; 647  : {

  00000	55		 push	 ebp
  00001	8b ec		 mov	 ebp, esp
  00003	83 ec 5c	 sub	 esp, 92			; 0000005cH
  00006	53		 push	 ebx
  00007	56		 push	 esi
  00008	57		 push	 edi

; 648  : 	int
; 649  : 		allied;
; 650  : 
; 651  : 	const char
; 652  : 		*target_name;
; 653  : 
; 654  : 	ASSERT (buffer);

  00009	83 7d 0c 00	 cmp	 DWORD PTR _buffer$[ebp], 0
  0000d	75 18		 jne	 SHORT $LN4@get_target
  0000f	a1 00 00 00 00	 mov	 eax, DWORD PTR ?__LINE__Var@?0??get_target_display_name@@YGPBDPAUENTITY@@PADH@Z@4JA
  00014	83 c0 07	 add	 eax, 7
  00017	50		 push	 eax
  00018	68 00 00 00 00	 push	 OFFSET ??_C@_0EO@LDNOEIJA@c?3?2users?2nhv90?2projects?2eech?2ap@
  0001d	68 00 00 00 00	 push	 OFFSET ??_C@_06HOHPNJLC@buffer@
  00022	e8 00 00 00 00	 call	 ?process_assert@@YGXPBD0H@Z ; process_assert
$LN4@get_target:

; 655  : 
; 656  : 	switch (get_global_cpg_assist_type ())

  00027	a1 8c 00 00 00	 mov	 eax, DWORD PTR ?global_options@@3UGLOBAL_OPTIONS_DATA@@A+140
  0002c	89 45 b4	 mov	 DWORD PTR tv69[ebp], eax
  0002f	83 7d b4 00	 cmp	 DWORD PTR tv69[ebp], 0
  00033	74 15		 je	 SHORT $LN5@get_target
  00035	83 7d b4 01	 cmp	 DWORD PTR tv69[ebp], 1
  00039	74 1b		 je	 SHORT $LN6@get_target
  0003b	83 7d b4 02	 cmp	 DWORD PTR tv69[ebp], 2
  0003f	0f 84 f0 06 00
	00		 je	 $LN19@get_target
  00045	e9 7c 08 00 00	 jmp	 $LN34@get_target
$LN5@get_target:

; 657  : 	{
; 658  : 		////////////////////////////////////////
; 659  : 		case CPG_ASSIST_TYPE_NONE:
; 660  : 		////////////////////////////////////////
; 661  : 		{
; 662  : 			target_name = NULL;

  0004a	c7 45 f8 00 00
	00 00		 mov	 DWORD PTR _target_name$[ebp], 0

; 663  : 
; 664  : 			break;

  00051	e9 83 08 00 00	 jmp	 $LN2@get_target
$LN6@get_target:

; 665  : 		}
; 666  : 		////////////////////////////////////////
; 667  : 		case CPG_ASSIST_TYPE_EASY:
; 668  : 		////////////////////////////////////////
; 669  : 		{
; 670  : 			if (target)

  00056	83 7d 08 00	 cmp	 DWORD PTR _target$[ebp], 0
  0005a	0f 84 c9 06 00
	00		 je	 $LN7@get_target

; 671  : 			{
; 672  : 				if (large_display)

  00060	83 7d 10 00	 cmp	 DWORD PTR _large_display$[ebp], 0
  00064	0f 84 5e 03 00
	00		 je	 $LN9@get_target

; 673  : 				{
; 674  : 					if (get_local_entity_int_value (target, INT_TYPE_IDENTIFY_MOBILE))

  0006a	83 7d 08 00	 cmp	 DWORD PTR _target$[ebp], 0
  0006e	74 0a		 je	 SHORT $LN36@get_target
  00070	8b 45 08	 mov	 eax, DWORD PTR _target$[ebp]
  00073	8b 08		 mov	 ecx, DWORD PTR [eax]
  00075	89 4d b4	 mov	 DWORD PTR tv77[ebp], ecx
  00078	eb 1d		 jmp	 SHORT $LN37@get_target
$LN36@get_target:
  0007a	68 a2 02 00 00	 push	 674			; 000002a2H
  0007f	68 00 00 00 00	 push	 OFFSET ??_C@_0EO@LDNOEIJA@c?3?2users?2nhv90?2projects?2eech?2ap@
  00084	8b 15 00 00 00
	00		 mov	 edx, DWORD PTR ?null_entity_pointer_message@@3PBDB ; null_entity_pointer_message
  0008a	52		 push	 edx
  0008b	e8 00 00 00 00	 call	 ?process_assert@@YGXPBD0H@Z ; process_assert
  00090	c7 45 b4 00 00
	00 00		 mov	 DWORD PTR tv77[ebp], 0
$LN37@get_target:
  00097	b8 01 00 00 00	 mov	 eax, 1
  0009c	85 c0		 test	 eax, eax
  0009e	74 09		 je	 SHORT $LN38@get_target
  000a0	c7 45 b0 5d 00
	00 00		 mov	 DWORD PTR tv84[ebp], 93	; 0000005dH
  000a7	eb 1d		 jmp	 SHORT $LN39@get_target
$LN38@get_target:
  000a9	68 a2 02 00 00	 push	 674			; 000002a2H
  000ae	68 00 00 00 00	 push	 OFFSET ??_C@_0EO@LDNOEIJA@c?3?2users?2nhv90?2projects?2eech?2ap@
  000b3	8b 0d 00 00 00
	00		 mov	 ecx, DWORD PTR ?overload_invalid_int_type_message@@3PBDB ; overload_invalid_int_type_message
  000b9	51		 push	 ecx
  000ba	e8 00 00 00 00	 call	 ?process_assert@@YGXPBD0H@Z ; process_assert
  000bf	c7 45 b0 00 00
	00 00		 mov	 DWORD PTR tv84[ebp], 0
$LN39@get_target:
  000c6	6a 5d		 push	 93			; 0000005dH
  000c8	8b 55 08	 mov	 edx, DWORD PTR _target$[ebp]
  000cb	52		 push	 edx
  000cc	69 45 b4 5c 04
	00 00		 imul	 eax, DWORD PTR tv77[ebp], 1116
  000d3	8b 4d b0	 mov	 ecx, DWORD PTR tv84[ebp]
  000d6	8b 94 88 00 00
	00 00		 mov	 edx, DWORD PTR ?fn_get_local_entity_int_value@@3PAY0BBH@P6GHPAUENTITY@@W4INT_TYPES@@@ZA[eax+ecx*4]
  000dd	ff d2		 call	 edx
  000df	85 c0		 test	 eax, eax
  000e1	0f 84 50 02 00
	00		 je	 $LN11@get_target

; 675  : 					{
; 676  : 						allied = get_local_entity_int_value (get_gunship_entity (), INT_TYPE_SIDE) == get_local_entity_int_value (target, INT_TYPE_SIDE);

  000e7	83 3d 00 00 00
	00 00		 cmp	 DWORD PTR ?gunship_entity@@3PAUENTITY@@A, 0 ; gunship_entity
  000ee	74 0c		 je	 SHORT $LN40@get_target
  000f0	a1 00 00 00 00	 mov	 eax, DWORD PTR ?gunship_entity@@3PAUENTITY@@A ; gunship_entity
  000f5	8b 08		 mov	 ecx, DWORD PTR [eax]
  000f7	89 4d b4	 mov	 DWORD PTR tv129[ebp], ecx
  000fa	eb 21		 jmp	 SHORT $LN41@get_target
$LN40@get_target:
  000fc	8b 15 00 00 00
	00		 mov	 edx, DWORD PTR ?__LINE__Var@?0??get_target_display_name@@YGPBDPAUENTITY@@PADH@Z@4JA
  00102	83 c2 1d	 add	 edx, 29			; 0000001dH
  00105	52		 push	 edx
  00106	68 00 00 00 00	 push	 OFFSET ??_C@_0EO@LDNOEIJA@c?3?2users?2nhv90?2projects?2eech?2ap@
  0010b	a1 00 00 00 00	 mov	 eax, DWORD PTR ?null_entity_pointer_message@@3PBDB ; null_entity_pointer_message
  00110	50		 push	 eax
  00111	e8 00 00 00 00	 call	 ?process_assert@@YGXPBD0H@Z ; process_assert
  00116	c7 45 b4 00 00
	00 00		 mov	 DWORD PTR tv129[ebp], 0
$LN41@get_target:
  0011d	b9 01 00 00 00	 mov	 ecx, 1
  00122	85 c9		 test	 ecx, ecx
  00124	74 09		 je	 SHORT $LN42@get_target
  00126	c7 45 b0 bb 00
	00 00		 mov	 DWORD PTR tv137[ebp], 187 ; 000000bbH
  0012d	eb 21		 jmp	 SHORT $LN43@get_target
$LN42@get_target:
  0012f	8b 15 00 00 00
	00		 mov	 edx, DWORD PTR ?__LINE__Var@?0??get_target_display_name@@YGPBDPAUENTITY@@PADH@Z@4JA
  00135	83 c2 1d	 add	 edx, 29			; 0000001dH
  00138	52		 push	 edx
  00139	68 00 00 00 00	 push	 OFFSET ??_C@_0EO@LDNOEIJA@c?3?2users?2nhv90?2projects?2eech?2ap@
  0013e	a1 00 00 00 00	 mov	 eax, DWORD PTR ?overload_invalid_int_type_message@@3PBDB ; overload_invalid_int_type_message
  00143	50		 push	 eax
  00144	e8 00 00 00 00	 call	 ?process_assert@@YGXPBD0H@Z ; process_assert
  00149	c7 45 b0 00 00
	00 00		 mov	 DWORD PTR tv137[ebp], 0
$LN43@get_target:
  00150	83 7d 08 00	 cmp	 DWORD PTR _target$[ebp], 0
  00154	74 0a		 je	 SHORT $LN44@get_target
  00156	8b 4d 08	 mov	 ecx, DWORD PTR _target$[ebp]
  00159	8b 11		 mov	 edx, DWORD PTR [ecx]
  0015b	89 55 ac	 mov	 DWORD PTR tv149[ebp], edx
  0015e	eb 21		 jmp	 SHORT $LN45@get_target
$LN44@get_target:
  00160	a1 00 00 00 00	 mov	 eax, DWORD PTR ?__LINE__Var@?0??get_target_display_name@@YGPBDPAUENTITY@@PADH@Z@4JA
  00165	83 c0 1d	 add	 eax, 29			; 0000001dH
  00168	50		 push	 eax
  00169	68 00 00 00 00	 push	 OFFSET ??_C@_0EO@LDNOEIJA@c?3?2users?2nhv90?2projects?2eech?2ap@
  0016e	8b 0d 00 00 00
	00		 mov	 ecx, DWORD PTR ?null_entity_pointer_message@@3PBDB ; null_entity_pointer_message
  00174	51		 push	 ecx
  00175	e8 00 00 00 00	 call	 ?process_assert@@YGXPBD0H@Z ; process_assert
  0017a	c7 45 ac 00 00
	00 00		 mov	 DWORD PTR tv149[ebp], 0
$LN45@get_target:
  00181	ba 01 00 00 00	 mov	 edx, 1
  00186	85 d2		 test	 edx, edx
  00188	74 09		 je	 SHORT $LN46@get_target
  0018a	c7 45 a8 bb 00
	00 00		 mov	 DWORD PTR tv157[ebp], 187 ; 000000bbH
  00191	eb 21		 jmp	 SHORT $LN47@get_target
$LN46@get_target:
  00193	a1 00 00 00 00	 mov	 eax, DWORD PTR ?__LINE__Var@?0??get_target_display_name@@YGPBDPAUENTITY@@PADH@Z@4JA
  00198	83 c0 1d	 add	 eax, 29			; 0000001dH
  0019b	50		 push	 eax
  0019c	68 00 00 00 00	 push	 OFFSET ??_C@_0EO@LDNOEIJA@c?3?2users?2nhv90?2projects?2eech?2ap@
  001a1	8b 0d 00 00 00
	00		 mov	 ecx, DWORD PTR ?overload_invalid_int_type_message@@3PBDB ; overload_invalid_int_type_message
  001a7	51		 push	 ecx
  001a8	e8 00 00 00 00	 call	 ?process_assert@@YGXPBD0H@Z ; process_assert
  001ad	c7 45 a8 00 00
	00 00		 mov	 DWORD PTR tv157[ebp], 0
$LN47@get_target:
  001b4	68 bb 00 00 00	 push	 187			; 000000bbH
  001b9	8b 15 00 00 00
	00		 mov	 edx, DWORD PTR ?gunship_entity@@3PAUENTITY@@A ; gunship_entity
  001bf	52		 push	 edx
  001c0	69 45 b4 5c 04
	00 00		 imul	 eax, DWORD PTR tv129[ebp], 1116
  001c7	8b 4d b0	 mov	 ecx, DWORD PTR tv137[ebp]
  001ca	8b 94 88 00 00
	00 00		 mov	 edx, DWORD PTR ?fn_get_local_entity_int_value@@3PAY0BBH@P6GHPAUENTITY@@W4INT_TYPES@@@ZA[eax+ecx*4]
  001d1	ff d2		 call	 edx
  001d3	8b f0		 mov	 esi, eax
  001d5	68 bb 00 00 00	 push	 187			; 000000bbH
  001da	8b 45 08	 mov	 eax, DWORD PTR _target$[ebp]
  001dd	50		 push	 eax
  001de	69 4d ac 5c 04
	00 00		 imul	 ecx, DWORD PTR tv149[ebp], 1116
  001e5	8b 55 a8	 mov	 edx, DWORD PTR tv157[ebp]
  001e8	8b 84 91 00 00
	00 00		 mov	 eax, DWORD PTR ?fn_get_local_entity_int_value@@3PAY0BBH@P6GHPAUENTITY@@W4INT_TYPES@@@ZA[ecx+edx*4]
  001ef	ff d0		 call	 eax
  001f1	3b f0		 cmp	 esi, eax
  001f3	75 09		 jne	 SHORT $LN48@get_target
  001f5	c7 45 a4 01 00
	00 00		 mov	 DWORD PTR tv164[ebp], 1
  001fc	eb 07		 jmp	 SHORT $LN49@get_target
$LN48@get_target:
  001fe	c7 45 a4 00 00
	00 00		 mov	 DWORD PTR tv164[ebp], 0
$LN49@get_target:
  00205	8b 4d a4	 mov	 ecx, DWORD PTR tv164[ebp]
  00208	89 4d fc	 mov	 DWORD PTR _allied$[ebp], ecx

; 677  : 
; 678  : 						if (allied)

  0020b	83 7d fc 00	 cmp	 DWORD PTR _allied$[ebp], 0
  0020f	0f 84 91 00 00
	00		 je	 $LN13@get_target

; 679  : 						{
; 680  : 							sprintf (buffer, "ALLIED %s", get_local_entity_string (target, STRING_TYPE_EASY_DISPLAY_NAME));

  00215	83 7d 08 00	 cmp	 DWORD PTR _target$[ebp], 0
  00219	74 0a		 je	 SHORT $LN50@get_target
  0021b	8b 45 08	 mov	 eax, DWORD PTR _target$[ebp]
  0021e	8b 08		 mov	 ecx, DWORD PTR [eax]
  00220	89 4d b4	 mov	 DWORD PTR tv173[ebp], ecx
  00223	eb 21		 jmp	 SHORT $LN51@get_target
$LN50@get_target:
  00225	8b 15 00 00 00
	00		 mov	 edx, DWORD PTR ?__LINE__Var@?0??get_target_display_name@@YGPBDPAUENTITY@@PADH@Z@4JA
  0022b	83 c2 21	 add	 edx, 33			; 00000021H
  0022e	52		 push	 edx
  0022f	68 00 00 00 00	 push	 OFFSET ??_C@_0EO@LDNOEIJA@c?3?2users?2nhv90?2projects?2eech?2ap@
  00234	a1 00 00 00 00	 mov	 eax, DWORD PTR ?null_entity_pointer_message@@3PBDB ; null_entity_pointer_message
  00239	50		 push	 eax
  0023a	e8 00 00 00 00	 call	 ?process_assert@@YGXPBD0H@Z ; process_assert
  0023f	c7 45 b4 00 00
	00 00		 mov	 DWORD PTR tv173[ebp], 0
$LN51@get_target:
  00246	b9 01 00 00 00	 mov	 ecx, 1
  0024b	85 c9		 test	 ecx, ecx
  0024d	74 09		 je	 SHORT $LN52@get_target
  0024f	c7 45 b0 01 00
	00 00		 mov	 DWORD PTR tv181[ebp], 1
  00256	eb 21		 jmp	 SHORT $LN53@get_target
$LN52@get_target:
  00258	8b 15 00 00 00
	00		 mov	 edx, DWORD PTR ?__LINE__Var@?0??get_target_display_name@@YGPBDPAUENTITY@@PADH@Z@4JA
  0025e	83 c2 21	 add	 edx, 33			; 00000021H
  00261	52		 push	 edx
  00262	68 00 00 00 00	 push	 OFFSET ??_C@_0EO@LDNOEIJA@c?3?2users?2nhv90?2projects?2eech?2ap@
  00267	a1 00 00 00 00	 mov	 eax, DWORD PTR ?overload_invalid_string_type_message@@3PBDB ; overload_invalid_string_type_message
  0026c	50		 push	 eax
  0026d	e8 00 00 00 00	 call	 ?process_assert@@YGXPBD0H@Z ; process_assert
  00272	c7 45 b0 00 00
	00 00		 mov	 DWORD PTR tv181[ebp], 0
$LN53@get_target:
  00279	6a 01		 push	 1
  0027b	8b 4d 08	 mov	 ecx, DWORD PTR _target$[ebp]
  0027e	51		 push	 ecx
  0027f	6b 55 b4 34	 imul	 edx, DWORD PTR tv173[ebp], 52
  00283	8b 45 b0	 mov	 eax, DWORD PTR tv181[ebp]
  00286	8b 8c 82 00 00
	00 00		 mov	 ecx, DWORD PTR ?fn_get_local_entity_string@@3PAY0N@P6GPBDPAUENTITY@@W4STRING_TYPES@@@ZA[edx+eax*4]
  0028d	ff d1		 call	 ecx
  0028f	50		 push	 eax
  00290	68 00 00 00 00	 push	 OFFSET ??_C@_09JCEKIIFK@ALLIED?5?$CFs@
  00295	8b 55 0c	 mov	 edx, DWORD PTR _buffer$[ebp]
  00298	52		 push	 edx
  00299	e8 00 00 00 00	 call	 _sprintf
  0029e	83 c4 0c	 add	 esp, 12			; 0000000cH

; 681  : 						}
; 682  : 						else

  002a1	e9 8c 00 00 00	 jmp	 $LN14@get_target
$LN13@get_target:

; 683  : 						{
; 684  : 							sprintf (buffer, "ENEMY %s", get_local_entity_string (target, STRING_TYPE_EASY_DISPLAY_NAME));

  002a6	83 7d 08 00	 cmp	 DWORD PTR _target$[ebp], 0
  002aa	74 0a		 je	 SHORT $LN54@get_target
  002ac	8b 45 08	 mov	 eax, DWORD PTR _target$[ebp]
  002af	8b 08		 mov	 ecx, DWORD PTR [eax]
  002b1	89 4d b4	 mov	 DWORD PTR tv196[ebp], ecx
  002b4	eb 21		 jmp	 SHORT $LN55@get_target
$LN54@get_target:
  002b6	8b 15 00 00 00
	00		 mov	 edx, DWORD PTR ?__LINE__Var@?0??get_target_display_name@@YGPBDPAUENTITY@@PADH@Z@4JA
  002bc	83 c2 25	 add	 edx, 37			; 00000025H
  002bf	52		 push	 edx
  002c0	68 00 00 00 00	 push	 OFFSET ??_C@_0EO@LDNOEIJA@c?3?2users?2nhv90?2projects?2eech?2ap@
  002c5	a1 00 00 00 00	 mov	 eax, DWORD PTR ?null_entity_pointer_message@@3PBDB ; null_entity_pointer_message
  002ca	50		 push	 eax
  002cb	e8 00 00 00 00	 call	 ?process_assert@@YGXPBD0H@Z ; process_assert
  002d0	c7 45 b4 00 00
	00 00		 mov	 DWORD PTR tv196[ebp], 0
$LN55@get_target:
  002d7	b9 01 00 00 00	 mov	 ecx, 1
  002dc	85 c9		 test	 ecx, ecx
  002de	74 09		 je	 SHORT $LN56@get_target
  002e0	c7 45 b0 01 00
	00 00		 mov	 DWORD PTR tv204[ebp], 1
  002e7	eb 21		 jmp	 SHORT $LN57@get_target
$LN56@get_target:
  002e9	8b 15 00 00 00
	00		 mov	 edx, DWORD PTR ?__LINE__Var@?0??get_target_display_name@@YGPBDPAUENTITY@@PADH@Z@4JA
  002ef	83 c2 25	 add	 edx, 37			; 00000025H
  002f2	52		 push	 edx
  002f3	68 00 00 00 00	 push	 OFFSET ??_C@_0EO@LDNOEIJA@c?3?2users?2nhv90?2projects?2eech?2ap@
  002f8	a1 00 00 00 00	 mov	 eax, DWORD PTR ?overload_invalid_string_type_message@@3PBDB ; overload_invalid_string_type_message
  002fd	50		 push	 eax
  002fe	e8 00 00 00 00	 call	 ?process_assert@@YGXPBD0H@Z ; process_assert
  00303	c7 45 b0 00 00
	00 00		 mov	 DWORD PTR tv204[ebp], 0
$LN57@get_target:
  0030a	6a 01		 push	 1
  0030c	8b 4d 08	 mov	 ecx, DWORD PTR _target$[ebp]
  0030f	51		 push	 ecx
  00310	6b 55 b4 34	 imul	 edx, DWORD PTR tv196[ebp], 52
  00314	8b 45 b0	 mov	 eax, DWORD PTR tv204[ebp]
  00317	8b 8c 82 00 00
	00 00		 mov	 ecx, DWORD PTR ?fn_get_local_entity_string@@3PAY0N@P6GPBDPAUENTITY@@W4STRING_TYPES@@@ZA[edx+eax*4]
  0031e	ff d1		 call	 ecx
  00320	50		 push	 eax
  00321	68 00 00 00 00	 push	 OFFSET ??_C@_08LLLEJCBA@ENEMY?5?$CFs@
  00326	8b 55 0c	 mov	 edx, DWORD PTR _buffer$[ebp]
  00329	52		 push	 edx
  0032a	e8 00 00 00 00	 call	 _sprintf
  0032f	83 c4 0c	 add	 esp, 12			; 0000000cH
$LN14@get_target:

; 685  : 						}
; 686  : 					}
; 687  : 					else

  00332	e9 8c 00 00 00	 jmp	 $LN12@get_target
$LN11@get_target:

; 688  : 					{
; 689  : 						sprintf (buffer, "%s", get_local_entity_string (target, STRING_TYPE_EASY_DISPLAY_NAME));

  00337	83 7d 08 00	 cmp	 DWORD PTR _target$[ebp], 0
  0033b	74 0a		 je	 SHORT $LN58@get_target
  0033d	8b 45 08	 mov	 eax, DWORD PTR _target$[ebp]
  00340	8b 08		 mov	 ecx, DWORD PTR [eax]
  00342	89 4d b4	 mov	 DWORD PTR tv219[ebp], ecx
  00345	eb 21		 jmp	 SHORT $LN59@get_target
$LN58@get_target:
  00347	8b 15 00 00 00
	00		 mov	 edx, DWORD PTR ?__LINE__Var@?0??get_target_display_name@@YGPBDPAUENTITY@@PADH@Z@4JA
  0034d	83 c2 2a	 add	 edx, 42			; 0000002aH
  00350	52		 push	 edx
  00351	68 00 00 00 00	 push	 OFFSET ??_C@_0EO@LDNOEIJA@c?3?2users?2nhv90?2projects?2eech?2ap@
  00356	a1 00 00 00 00	 mov	 eax, DWORD PTR ?null_entity_pointer_message@@3PBDB ; null_entity_pointer_message
  0035b	50		 push	 eax
  0035c	e8 00 00 00 00	 call	 ?process_assert@@YGXPBD0H@Z ; process_assert
  00361	c7 45 b4 00 00
	00 00		 mov	 DWORD PTR tv219[ebp], 0
$LN59@get_target:
  00368	b9 01 00 00 00	 mov	 ecx, 1
  0036d	85 c9		 test	 ecx, ecx
  0036f	74 09		 je	 SHORT $LN60@get_target
  00371	c7 45 b0 01 00
	00 00		 mov	 DWORD PTR tv227[ebp], 1
  00378	eb 21		 jmp	 SHORT $LN61@get_target
$LN60@get_target:
  0037a	8b 15 00 00 00
	00		 mov	 edx, DWORD PTR ?__LINE__Var@?0??get_target_display_name@@YGPBDPAUENTITY@@PADH@Z@4JA
  00380	83 c2 2a	 add	 edx, 42			; 0000002aH
  00383	52		 push	 edx
  00384	68 00 00 00 00	 push	 OFFSET ??_C@_0EO@LDNOEIJA@c?3?2users?2nhv90?2projects?2eech?2ap@
  00389	a1 00 00 00 00	 mov	 eax, DWORD PTR ?overload_invalid_string_type_message@@3PBDB ; overload_invalid_string_type_message
  0038e	50		 push	 eax
  0038f	e8 00 00 00 00	 call	 ?process_assert@@YGXPBD0H@Z ; process_assert
  00394	c7 45 b0 00 00
	00 00		 mov	 DWORD PTR tv227[ebp], 0
$LN61@get_target:
  0039b	6a 01		 push	 1
  0039d	8b 4d 08	 mov	 ecx, DWORD PTR _target$[ebp]
  003a0	51		 push	 ecx
  003a1	6b 55 b4 34	 imul	 edx, DWORD PTR tv219[ebp], 52
  003a5	8b 45 b0	 mov	 eax, DWORD PTR tv227[ebp]
  003a8	8b 8c 82 00 00
	00 00		 mov	 ecx, DWORD PTR ?fn_get_local_entity_string@@3PAY0N@P6GPBDPAUENTITY@@W4STRING_TYPES@@@ZA[edx+eax*4]
  003af	ff d1		 call	 ecx
  003b1	50		 push	 eax
  003b2	68 00 00 00 00	 push	 OFFSET ??_C@_02DKCKIIND@?$CFs@
  003b7	8b 55 0c	 mov	 edx, DWORD PTR _buffer$[ebp]
  003ba	52		 push	 edx
  003bb	e8 00 00 00 00	 call	 _sprintf
  003c0	83 c4 0c	 add	 esp, 12			; 0000000cH
$LN12@get_target:

; 690  : 					}
; 691  : 				}
; 692  : 				else

  003c3	e9 59 03 00 00	 jmp	 $LN16@get_target
$LN9@get_target:

; 693  : 				{
; 694  : 					if (get_local_entity_int_value (target, INT_TYPE_IDENTIFY_MOBILE))

  003c8	83 7d 08 00	 cmp	 DWORD PTR _target$[ebp], 0
  003cc	74 0a		 je	 SHORT $LN62@get_target
  003ce	8b 45 08	 mov	 eax, DWORD PTR _target$[ebp]
  003d1	8b 08		 mov	 ecx, DWORD PTR [eax]
  003d3	89 4d b4	 mov	 DWORD PTR tv240[ebp], ecx
  003d6	eb 1d		 jmp	 SHORT $LN63@get_target
$LN62@get_target:
  003d8	68 b6 02 00 00	 push	 694			; 000002b6H
  003dd	68 00 00 00 00	 push	 OFFSET ??_C@_0EO@LDNOEIJA@c?3?2users?2nhv90?2projects?2eech?2ap@
  003e2	8b 15 00 00 00
	00		 mov	 edx, DWORD PTR ?null_entity_pointer_message@@3PBDB ; null_entity_pointer_message
  003e8	52		 push	 edx
  003e9	e8 00 00 00 00	 call	 ?process_assert@@YGXPBD0H@Z ; process_assert
  003ee	c7 45 b4 00 00
	00 00		 mov	 DWORD PTR tv240[ebp], 0
$LN63@get_target:
  003f5	b8 01 00 00 00	 mov	 eax, 1
  003fa	85 c0		 test	 eax, eax
  003fc	74 09		 je	 SHORT $LN64@get_target
  003fe	c7 45 b0 5d 00
	00 00		 mov	 DWORD PTR tv247[ebp], 93 ; 0000005dH
  00405	eb 1d		 jmp	 SHORT $LN65@get_target
$LN64@get_target:
  00407	68 b6 02 00 00	 push	 694			; 000002b6H
  0040c	68 00 00 00 00	 push	 OFFSET ??_C@_0EO@LDNOEIJA@c?3?2users?2nhv90?2projects?2eech?2ap@
  00411	8b 0d 00 00 00
	00		 mov	 ecx, DWORD PTR ?overload_invalid_int_type_message@@3PBDB ; overload_invalid_int_type_message
  00417	51		 push	 ecx
  00418	e8 00 00 00 00	 call	 ?process_assert@@YGXPBD0H@Z ; process_assert
  0041d	c7 45 b0 00 00
	00 00		 mov	 DWORD PTR tv247[ebp], 0
$LN65@get_target:
  00424	6a 5d		 push	 93			; 0000005dH
  00426	8b 55 08	 mov	 edx, DWORD PTR _target$[ebp]
  00429	52		 push	 edx
  0042a	69 45 b4 5c 04
	00 00		 imul	 eax, DWORD PTR tv240[ebp], 1116
  00431	8b 4d b0	 mov	 ecx, DWORD PTR tv247[ebp]
  00434	8b 94 88 00 00
	00 00		 mov	 edx, DWORD PTR ?fn_get_local_entity_int_value@@3PAY0BBH@P6GHPAUENTITY@@W4INT_TYPES@@@ZA[eax+ecx*4]
  0043b	ff d2		 call	 edx
  0043d	85 c0		 test	 eax, eax
  0043f	0f 84 50 02 00
	00		 je	 $LN15@get_target

; 695  : 					{
; 696  : 						allied = get_local_entity_int_value (get_gunship_entity (), INT_TYPE_SIDE) == get_local_entity_int_value (target, INT_TYPE_SIDE);

  00445	83 3d 00 00 00
	00 00		 cmp	 DWORD PTR ?gunship_entity@@3PAUENTITY@@A, 0 ; gunship_entity
  0044c	74 0c		 je	 SHORT $LN66@get_target
  0044e	a1 00 00 00 00	 mov	 eax, DWORD PTR ?gunship_entity@@3PAUENTITY@@A ; gunship_entity
  00453	8b 08		 mov	 ecx, DWORD PTR [eax]
  00455	89 4d b4	 mov	 DWORD PTR tv260[ebp], ecx
  00458	eb 21		 jmp	 SHORT $LN67@get_target
$LN66@get_target:
  0045a	8b 15 00 00 00
	00		 mov	 edx, DWORD PTR ?__LINE__Var@?0??get_target_display_name@@YGPBDPAUENTITY@@PADH@Z@4JA
  00460	83 c2 31	 add	 edx, 49			; 00000031H
  00463	52		 push	 edx
  00464	68 00 00 00 00	 push	 OFFSET ??_C@_0EO@LDNOEIJA@c?3?2users?2nhv90?2projects?2eech?2ap@
  00469	a1 00 00 00 00	 mov	 eax, DWORD PTR ?null_entity_pointer_message@@3PBDB ; null_entity_pointer_message
  0046e	50		 push	 eax
  0046f	e8 00 00 00 00	 call	 ?process_assert@@YGXPBD0H@Z ; process_assert
  00474	c7 45 b4 00 00
	00 00		 mov	 DWORD PTR tv260[ebp], 0
$LN67@get_target:
  0047b	b9 01 00 00 00	 mov	 ecx, 1
  00480	85 c9		 test	 ecx, ecx
  00482	74 09		 je	 SHORT $LN68@get_target
  00484	c7 45 b0 bb 00
	00 00		 mov	 DWORD PTR tv268[ebp], 187 ; 000000bbH
  0048b	eb 21		 jmp	 SHORT $LN69@get_target
$LN68@get_target:
  0048d	8b 15 00 00 00
	00		 mov	 edx, DWORD PTR ?__LINE__Var@?0??get_target_display_name@@YGPBDPAUENTITY@@PADH@Z@4JA
  00493	83 c2 31	 add	 edx, 49			; 00000031H
  00496	52		 push	 edx
  00497	68 00 00 00 00	 push	 OFFSET ??_C@_0EO@LDNOEIJA@c?3?2users?2nhv90?2projects?2eech?2ap@
  0049c	a1 00 00 00 00	 mov	 eax, DWORD PTR ?overload_invalid_int_type_message@@3PBDB ; overload_invalid_int_type_message
  004a1	50		 push	 eax
  004a2	e8 00 00 00 00	 call	 ?process_assert@@YGXPBD0H@Z ; process_assert
  004a7	c7 45 b0 00 00
	00 00		 mov	 DWORD PTR tv268[ebp], 0
$LN69@get_target:
  004ae	83 7d 08 00	 cmp	 DWORD PTR _target$[ebp], 0
  004b2	74 0a		 je	 SHORT $LN70@get_target
  004b4	8b 4d 08	 mov	 ecx, DWORD PTR _target$[ebp]
  004b7	8b 11		 mov	 edx, DWORD PTR [ecx]
  004b9	89 55 ac	 mov	 DWORD PTR tv280[ebp], edx
  004bc	eb 21		 jmp	 SHORT $LN71@get_target
$LN70@get_target:
  004be	a1 00 00 00 00	 mov	 eax, DWORD PTR ?__LINE__Var@?0??get_target_display_name@@YGPBDPAUENTITY@@PADH@Z@4JA
  004c3	83 c0 31	 add	 eax, 49			; 00000031H
  004c6	50		 push	 eax
  004c7	68 00 00 00 00	 push	 OFFSET ??_C@_0EO@LDNOEIJA@c?3?2users?2nhv90?2projects?2eech?2ap@
  004cc	8b 0d 00 00 00
	00		 mov	 ecx, DWORD PTR ?null_entity_pointer_message@@3PBDB ; null_entity_pointer_message
  004d2	51		 push	 ecx
  004d3	e8 00 00 00 00	 call	 ?process_assert@@YGXPBD0H@Z ; process_assert
  004d8	c7 45 ac 00 00
	00 00		 mov	 DWORD PTR tv280[ebp], 0
$LN71@get_target:
  004df	ba 01 00 00 00	 mov	 edx, 1
  004e4	85 d2		 test	 edx, edx
  004e6	74 09		 je	 SHORT $LN72@get_target
  004e8	c7 45 a8 bb 00
	00 00		 mov	 DWORD PTR tv288[ebp], 187 ; 000000bbH
  004ef	eb 21		 jmp	 SHORT $LN73@get_target
$LN72@get_target:
  004f1	a1 00 00 00 00	 mov	 eax, DWORD PTR ?__LINE__Var@?0??get_target_display_name@@YGPBDPAUENTITY@@PADH@Z@4JA
  004f6	83 c0 31	 add	 eax, 49			; 00000031H
  004f9	50		 push	 eax
  004fa	68 00 00 00 00	 push	 OFFSET ??_C@_0EO@LDNOEIJA@c?3?2users?2nhv90?2projects?2eech?2ap@
  004ff	8b 0d 00 00 00
	00		 mov	 ecx, DWORD PTR ?overload_invalid_int_type_message@@3PBDB ; overload_invalid_int_type_message
  00505	51		 push	 ecx
  00506	e8 00 00 00 00	 call	 ?process_assert@@YGXPBD0H@Z ; process_assert
  0050b	c7 45 a8 00 00
	00 00		 mov	 DWORD PTR tv288[ebp], 0
$LN73@get_target:
  00512	68 bb 00 00 00	 push	 187			; 000000bbH
  00517	8b 15 00 00 00
	00		 mov	 edx, DWORD PTR ?gunship_entity@@3PAUENTITY@@A ; gunship_entity
  0051d	52		 push	 edx
  0051e	69 45 b4 5c 04
	00 00		 imul	 eax, DWORD PTR tv260[ebp], 1116
  00525	8b 4d b0	 mov	 ecx, DWORD PTR tv268[ebp]
  00528	8b 94 88 00 00
	00 00		 mov	 edx, DWORD PTR ?fn_get_local_entity_int_value@@3PAY0BBH@P6GHPAUENTITY@@W4INT_TYPES@@@ZA[eax+ecx*4]
  0052f	ff d2		 call	 edx
  00531	8b f0		 mov	 esi, eax
  00533	68 bb 00 00 00	 push	 187			; 000000bbH
  00538	8b 45 08	 mov	 eax, DWORD PTR _target$[ebp]
  0053b	50		 push	 eax
  0053c	69 4d ac 5c 04
	00 00		 imul	 ecx, DWORD PTR tv280[ebp], 1116
  00543	8b 55 a8	 mov	 edx, DWORD PTR tv288[ebp]
  00546	8b 84 91 00 00
	00 00		 mov	 eax, DWORD PTR ?fn_get_local_entity_int_value@@3PAY0BBH@P6GHPAUENTITY@@W4INT_TYPES@@@ZA[ecx+edx*4]
  0054d	ff d0		 call	 eax
  0054f	3b f0		 cmp	 esi, eax
  00551	75 09		 jne	 SHORT $LN74@get_target
  00553	c7 45 a4 01 00
	00 00		 mov	 DWORD PTR tv295[ebp], 1
  0055a	eb 07		 jmp	 SHORT $LN75@get_target
$LN74@get_target:
  0055c	c7 45 a4 00 00
	00 00		 mov	 DWORD PTR tv295[ebp], 0
$LN75@get_target:
  00563	8b 4d a4	 mov	 ecx, DWORD PTR tv295[ebp]
  00566	89 4d fc	 mov	 DWORD PTR _allied$[ebp], ecx

; 697  : 
; 698  : 						if (allied)

  00569	83 7d fc 00	 cmp	 DWORD PTR _allied$[ebp], 0
  0056d	0f 84 91 00 00
	00		 je	 $LN17@get_target

; 699  : 						{
; 700  : 							sprintf (buffer, "A/%s", get_local_entity_string (target, STRING_TYPE_EASY_DISPLAY_NAME));

  00573	83 7d 08 00	 cmp	 DWORD PTR _target$[ebp], 0
  00577	74 0a		 je	 SHORT $LN76@get_target
  00579	8b 45 08	 mov	 eax, DWORD PTR _target$[ebp]
  0057c	8b 08		 mov	 ecx, DWORD PTR [eax]
  0057e	89 4d b4	 mov	 DWORD PTR tv304[ebp], ecx
  00581	eb 21		 jmp	 SHORT $LN77@get_target
$LN76@get_target:
  00583	8b 15 00 00 00
	00		 mov	 edx, DWORD PTR ?__LINE__Var@?0??get_target_display_name@@YGPBDPAUENTITY@@PADH@Z@4JA
  00589	83 c2 35	 add	 edx, 53			; 00000035H
  0058c	52		 push	 edx
  0058d	68 00 00 00 00	 push	 OFFSET ??_C@_0EO@LDNOEIJA@c?3?2users?2nhv90?2projects?2eech?2ap@
  00592	a1 00 00 00 00	 mov	 eax, DWORD PTR ?null_entity_pointer_message@@3PBDB ; null_entity_pointer_message
  00597	50		 push	 eax
  00598	e8 00 00 00 00	 call	 ?process_assert@@YGXPBD0H@Z ; process_assert
  0059d	c7 45 b4 00 00
	00 00		 mov	 DWORD PTR tv304[ebp], 0
$LN77@get_target:
  005a4	b9 01 00 00 00	 mov	 ecx, 1
  005a9	85 c9		 test	 ecx, ecx
  005ab	74 09		 je	 SHORT $LN78@get_target
  005ad	c7 45 b0 01 00
	00 00		 mov	 DWORD PTR tv312[ebp], 1
  005b4	eb 21		 jmp	 SHORT $LN79@get_target
$LN78@get_target:
  005b6	8b 15 00 00 00
	00		 mov	 edx, DWORD PTR ?__LINE__Var@?0??get_target_display_name@@YGPBDPAUENTITY@@PADH@Z@4JA
  005bc	83 c2 35	 add	 edx, 53			; 00000035H
  005bf	52		 push	 edx
  005c0	68 00 00 00 00	 push	 OFFSET ??_C@_0EO@LDNOEIJA@c?3?2users?2nhv90?2projects?2eech?2ap@
  005c5	a1 00 00 00 00	 mov	 eax, DWORD PTR ?overload_invalid_string_type_message@@3PBDB ; overload_invalid_string_type_message
  005ca	50		 push	 eax
  005cb	e8 00 00 00 00	 call	 ?process_assert@@YGXPBD0H@Z ; process_assert
  005d0	c7 45 b0 00 00
	00 00		 mov	 DWORD PTR tv312[ebp], 0
$LN79@get_target:
  005d7	6a 01		 push	 1
  005d9	8b 4d 08	 mov	 ecx, DWORD PTR _target$[ebp]
  005dc	51		 push	 ecx
  005dd	6b 55 b4 34	 imul	 edx, DWORD PTR tv304[ebp], 52
  005e1	8b 45 b0	 mov	 eax, DWORD PTR tv312[ebp]
  005e4	8b 8c 82 00 00
	00 00		 mov	 ecx, DWORD PTR ?fn_get_local_entity_string@@3PAY0N@P6GPBDPAUENTITY@@W4STRING_TYPES@@@ZA[edx+eax*4]
  005eb	ff d1		 call	 ecx
  005ed	50		 push	 eax
  005ee	68 00 00 00 00	 push	 OFFSET ??_C@_04JOILGIEN@A?1?$CFs@
  005f3	8b 55 0c	 mov	 edx, DWORD PTR _buffer$[ebp]
  005f6	52		 push	 edx
  005f7	e8 00 00 00 00	 call	 _sprintf
  005fc	83 c4 0c	 add	 esp, 12			; 0000000cH

; 701  : 						}
; 702  : 						else

  005ff	e9 8c 00 00 00	 jmp	 $LN18@get_target
$LN17@get_target:

; 703  : 						{
; 704  : 							sprintf (buffer, "E/%s", get_local_entity_string (target, STRING_TYPE_EASY_DISPLAY_NAME));

  00604	83 7d 08 00	 cmp	 DWORD PTR _target$[ebp], 0
  00608	74 0a		 je	 SHORT $LN80@get_target
  0060a	8b 45 08	 mov	 eax, DWORD PTR _target$[ebp]
  0060d	8b 08		 mov	 ecx, DWORD PTR [eax]
  0060f	89 4d b4	 mov	 DWORD PTR tv327[ebp], ecx
  00612	eb 21		 jmp	 SHORT $LN81@get_target
$LN80@get_target:
  00614	8b 15 00 00 00
	00		 mov	 edx, DWORD PTR ?__LINE__Var@?0??get_target_display_name@@YGPBDPAUENTITY@@PADH@Z@4JA
  0061a	83 c2 39	 add	 edx, 57			; 00000039H
  0061d	52		 push	 edx
  0061e	68 00 00 00 00	 push	 OFFSET ??_C@_0EO@LDNOEIJA@c?3?2users?2nhv90?2projects?2eech?2ap@
  00623	a1 00 00 00 00	 mov	 eax, DWORD PTR ?null_entity_pointer_message@@3PBDB ; null_entity_pointer_message
  00628	50		 push	 eax
  00629	e8 00 00 00 00	 call	 ?process_assert@@YGXPBD0H@Z ; process_assert
  0062e	c7 45 b4 00 00
	00 00		 mov	 DWORD PTR tv327[ebp], 0
$LN81@get_target:
  00635	b9 01 00 00 00	 mov	 ecx, 1
  0063a	85 c9		 test	 ecx, ecx
  0063c	74 09		 je	 SHORT $LN82@get_target
  0063e	c7 45 b0 01 00
	00 00		 mov	 DWORD PTR tv335[ebp], 1
  00645	eb 21		 jmp	 SHORT $LN83@get_target
$LN82@get_target:
  00647	8b 15 00 00 00
	00		 mov	 edx, DWORD PTR ?__LINE__Var@?0??get_target_display_name@@YGPBDPAUENTITY@@PADH@Z@4JA
  0064d	83 c2 39	 add	 edx, 57			; 00000039H
  00650	52		 push	 edx
  00651	68 00 00 00 00	 push	 OFFSET ??_C@_0EO@LDNOEIJA@c?3?2users?2nhv90?2projects?2eech?2ap@
  00656	a1 00 00 00 00	 mov	 eax, DWORD PTR ?overload_invalid_string_type_message@@3PBDB ; overload_invalid_string_type_message
  0065b	50		 push	 eax
  0065c	e8 00 00 00 00	 call	 ?process_assert@@YGXPBD0H@Z ; process_assert
  00661	c7 45 b0 00 00
	00 00		 mov	 DWORD PTR tv335[ebp], 0
$LN83@get_target:
  00668	6a 01		 push	 1
  0066a	8b 4d 08	 mov	 ecx, DWORD PTR _target$[ebp]
  0066d	51		 push	 ecx
  0066e	6b 55 b4 34	 imul	 edx, DWORD PTR tv327[ebp], 52
  00672	8b 45 b0	 mov	 eax, DWORD PTR tv335[ebp]
  00675	8b 8c 82 00 00
	00 00		 mov	 ecx, DWORD PTR ?fn_get_local_entity_string@@3PAY0N@P6GPBDPAUENTITY@@W4STRING_TYPES@@@ZA[edx+eax*4]
  0067c	ff d1		 call	 ecx
  0067e	50		 push	 eax
  0067f	68 00 00 00 00	 push	 OFFSET ??_C@_04GLALMOIN@E?1?$CFs@
  00684	8b 55 0c	 mov	 edx, DWORD PTR _buffer$[ebp]
  00687	52		 push	 edx
  00688	e8 00 00 00 00	 call	 _sprintf
  0068d	83 c4 0c	 add	 esp, 12			; 0000000cH
$LN18@get_target:

; 705  : 						}
; 706  : 					}
; 707  : 					else

  00690	e9 8c 00 00 00	 jmp	 $LN16@get_target
$LN15@get_target:

; 708  : 					{
; 709  : 						sprintf (buffer, "%s", get_local_entity_string (target, STRING_TYPE_EASY_DISPLAY_NAME));

  00695	83 7d 08 00	 cmp	 DWORD PTR _target$[ebp], 0
  00699	74 0a		 je	 SHORT $LN84@get_target
  0069b	8b 45 08	 mov	 eax, DWORD PTR _target$[ebp]
  0069e	8b 08		 mov	 ecx, DWORD PTR [eax]
  006a0	89 4d b4	 mov	 DWORD PTR tv350[ebp], ecx
  006a3	eb 21		 jmp	 SHORT $LN85@get_target
$LN84@get_target:
  006a5	8b 15 00 00 00
	00		 mov	 edx, DWORD PTR ?__LINE__Var@?0??get_target_display_name@@YGPBDPAUENTITY@@PADH@Z@4JA
  006ab	83 c2 3e	 add	 edx, 62			; 0000003eH
  006ae	52		 push	 edx
  006af	68 00 00 00 00	 push	 OFFSET ??_C@_0EO@LDNOEIJA@c?3?2users?2nhv90?2projects?2eech?2ap@
  006b4	a1 00 00 00 00	 mov	 eax, DWORD PTR ?null_entity_pointer_message@@3PBDB ; null_entity_pointer_message
  006b9	50		 push	 eax
  006ba	e8 00 00 00 00	 call	 ?process_assert@@YGXPBD0H@Z ; process_assert
  006bf	c7 45 b4 00 00
	00 00		 mov	 DWORD PTR tv350[ebp], 0
$LN85@get_target:
  006c6	b9 01 00 00 00	 mov	 ecx, 1
  006cb	85 c9		 test	 ecx, ecx
  006cd	74 09		 je	 SHORT $LN86@get_target
  006cf	c7 45 b0 01 00
	00 00		 mov	 DWORD PTR tv358[ebp], 1
  006d6	eb 21		 jmp	 SHORT $LN87@get_target
$LN86@get_target:
  006d8	8b 15 00 00 00
	00		 mov	 edx, DWORD PTR ?__LINE__Var@?0??get_target_display_name@@YGPBDPAUENTITY@@PADH@Z@4JA
  006de	83 c2 3e	 add	 edx, 62			; 0000003eH
  006e1	52		 push	 edx
  006e2	68 00 00 00 00	 push	 OFFSET ??_C@_0EO@LDNOEIJA@c?3?2users?2nhv90?2projects?2eech?2ap@
  006e7	a1 00 00 00 00	 mov	 eax, DWORD PTR ?overload_invalid_string_type_message@@3PBDB ; overload_invalid_string_type_message
  006ec	50		 push	 eax
  006ed	e8 00 00 00 00	 call	 ?process_assert@@YGXPBD0H@Z ; process_assert
  006f2	c7 45 b0 00 00
	00 00		 mov	 DWORD PTR tv358[ebp], 0
$LN87@get_target:
  006f9	6a 01		 push	 1
  006fb	8b 4d 08	 mov	 ecx, DWORD PTR _target$[ebp]
  006fe	51		 push	 ecx
  006ff	6b 55 b4 34	 imul	 edx, DWORD PTR tv350[ebp], 52
  00703	8b 45 b0	 mov	 eax, DWORD PTR tv358[ebp]
  00706	8b 8c 82 00 00
	00 00		 mov	 ecx, DWORD PTR ?fn_get_local_entity_string@@3PAY0N@P6GPBDPAUENTITY@@W4STRING_TYPES@@@ZA[edx+eax*4]
  0070d	ff d1		 call	 ecx
  0070f	50		 push	 eax
  00710	68 00 00 00 00	 push	 OFFSET ??_C@_02DKCKIIND@?$CFs@
  00715	8b 55 0c	 mov	 edx, DWORD PTR _buffer$[ebp]
  00718	52		 push	 edx
  00719	e8 00 00 00 00	 call	 _sprintf
  0071e	83 c4 0c	 add	 esp, 12			; 0000000cH
$LN16@get_target:

; 710  : 					}
; 711  : 				}
; 712  : 
; 713  : 				target_name = buffer;

  00721	8b 45 0c	 mov	 eax, DWORD PTR _buffer$[ebp]
  00724	89 45 f8	 mov	 DWORD PTR _target_name$[ebp], eax

; 714  : 			}
; 715  : 			else

  00727	eb 07		 jmp	 SHORT $LN8@get_target
$LN7@get_target:

; 716  : 			{
; 717  : 				target_name = "NO TARGET";

  00729	c7 45 f8 00 00
	00 00		 mov	 DWORD PTR _target_name$[ebp], OFFSET ??_C@_09JLFDDBCD@NO?5TARGET@
$LN8@get_target:

; 718  : 			}
; 719  : 
; 720  : 			break;

  00730	e9 a4 01 00 00	 jmp	 $LN2@get_target
$LN19@get_target:

; 721  : 		}
; 722  : 		////////////////////////////////////////
; 723  : 		case CPG_ASSIST_TYPE_REAL:
; 724  : 		////////////////////////////////////////
; 725  : 		{
; 726  : 			if (large_display)

  00735	83 7d 10 00	 cmp	 DWORD PTR _large_display$[ebp], 0
  00739	0f 84 c5 00 00
	00		 je	 $LN20@get_target

; 727  : 			{
; 728  : 				if (target)

  0073f	83 7d 08 00	 cmp	 DWORD PTR _target$[ebp], 0
  00743	0f 84 af 00 00
	00		 je	 $LN22@get_target

; 729  : 				{
; 730  : 					if (eo_low_light)

  00749	83 3d 00 00 00
	00 00		 cmp	 DWORD PTR ?eo_low_light@@3HA, 0 ; eo_low_light
  00750	74 0c		 je	 SHORT $LN24@get_target

; 731  : 					{
; 732  : 						target_name = "LOW LIGHT";

  00752	c7 45 f8 00 00
	00 00		 mov	 DWORD PTR _target_name$[ebp], OFFSET ??_C@_09ICGCKLLB@LOW?5LIGHT@

; 733  : 					}
; 734  : 					else

  00759	e9 98 00 00 00	 jmp	 $LN27@get_target
$LN24@get_target:

; 735  : 					{
; 736  : 						if (cpg_identify_target_delay > 0.0)

  0075e	f3 0f 5a 05 00
	00 00 00	 cvtss2sd xmm0, DWORD PTR ?cpg_identify_target_delay@@3MA
  00766	66 0f 2f 05 00
	00 00 00	 comisd	 xmm0, QWORD PTR __real@0000000000000000
  0076e	76 09		 jbe	 SHORT $LN26@get_target

; 737  : 						{
; 738  : 							target_name = "CP/G IDENTIFYING...";

  00770	c7 45 f8 00 00
	00 00		 mov	 DWORD PTR _target_name$[ebp], OFFSET ??_C@_0BE@FCINAHDA@CP?1G?5IDENTIFYING?4?4?4@

; 739  : 						}
; 740  : 						else

  00777	eb 7d		 jmp	 SHORT $LN27@get_target
$LN26@get_target:

; 741  : 						{
; 742  : 							target_name = get_local_entity_string (target, STRING_TYPE_LONG_DISPLAY_NAME);

  00779	83 7d 08 00	 cmp	 DWORD PTR _target$[ebp], 0
  0077d	74 0a		 je	 SHORT $LN88@get_target
  0077f	8b 45 08	 mov	 eax, DWORD PTR _target$[ebp]
  00782	8b 08		 mov	 ecx, DWORD PTR [eax]
  00784	89 4d b4	 mov	 DWORD PTR tv377[ebp], ecx
  00787	eb 21		 jmp	 SHORT $LN89@get_target
$LN88@get_target:
  00789	8b 15 00 00 00
	00		 mov	 edx, DWORD PTR ?__LINE__Var@?0??get_target_display_name@@YGPBDPAUENTITY@@PADH@Z@4JA
  0078f	83 c2 5f	 add	 edx, 95			; 0000005fH
  00792	52		 push	 edx
  00793	68 00 00 00 00	 push	 OFFSET ??_C@_0EO@LDNOEIJA@c?3?2users?2nhv90?2projects?2eech?2ap@
  00798	a1 00 00 00 00	 mov	 eax, DWORD PTR ?null_entity_pointer_message@@3PBDB ; null_entity_pointer_message
  0079d	50		 push	 eax
  0079e	e8 00 00 00 00	 call	 ?process_assert@@YGXPBD0H@Z ; process_assert
  007a3	c7 45 b4 00 00
	00 00		 mov	 DWORD PTR tv377[ebp], 0
$LN89@get_target:
  007aa	b9 01 00 00 00	 mov	 ecx, 1
  007af	85 c9		 test	 ecx, ecx
  007b1	74 09		 je	 SHORT $LN90@get_target
  007b3	c7 45 b0 08 00
	00 00		 mov	 DWORD PTR tv385[ebp], 8
  007ba	eb 21		 jmp	 SHORT $LN91@get_target
$LN90@get_target:
  007bc	8b 15 00 00 00
	00		 mov	 edx, DWORD PTR ?__LINE__Var@?0??get_target_display_name@@YGPBDPAUENTITY@@PADH@Z@4JA
  007c2	83 c2 5f	 add	 edx, 95			; 0000005fH
  007c5	52		 push	 edx
  007c6	68 00 00 00 00	 push	 OFFSET ??_C@_0EO@LDNOEIJA@c?3?2users?2nhv90?2projects?2eech?2ap@
  007cb	a1 00 00 00 00	 mov	 eax, DWORD PTR ?overload_invalid_string_type_message@@3PBDB ; overload_invalid_string_type_message
  007d0	50		 push	 eax
  007d1	e8 00 00 00 00	 call	 ?process_assert@@YGXPBD0H@Z ; process_assert
  007d6	c7 45 b0 00 00
	00 00		 mov	 DWORD PTR tv385[ebp], 0
$LN91@get_target:
  007dd	6a 08		 push	 8
  007df	8b 4d 08	 mov	 ecx, DWORD PTR _target$[ebp]
  007e2	51		 push	 ecx
  007e3	6b 55 b4 34	 imul	 edx, DWORD PTR tv377[ebp], 52
  007e7	8b 45 b0	 mov	 eax, DWORD PTR tv385[ebp]
  007ea	8b 8c 82 00 00
	00 00		 mov	 ecx, DWORD PTR ?fn_get_local_entity_string@@3PAY0N@P6GPBDPAUENTITY@@W4STRING_TYPES@@@ZA[edx+eax*4]
  007f1	ff d1		 call	 ecx
  007f3	89 45 f8	 mov	 DWORD PTR _target_name$[ebp], eax
$LN27@get_target:

; 743  : 						}
; 744  : 					}
; 745  : 				}
; 746  : 				else

  007f6	eb 07		 jmp	 SHORT $LN23@get_target
$LN22@get_target:

; 747  : 				{
; 748  : 					target_name = "NO TARGET";

  007f8	c7 45 f8 00 00
	00 00		 mov	 DWORD PTR _target_name$[ebp], OFFSET ??_C@_09JLFDDBCD@NO?5TARGET@
$LN23@get_target:

; 749  : 				}
; 750  : 			}
; 751  : 			else

  007ff	e9 c0 00 00 00	 jmp	 $LN29@get_target
$LN20@get_target:

; 752  : 			{
; 753  : 				if (target)

  00804	83 7d 08 00	 cmp	 DWORD PTR _target$[ebp], 0
  00808	0f 84 af 00 00
	00		 je	 $LN28@get_target

; 754  : 				{
; 755  : 					if (eo_low_light)

  0080e	83 3d 00 00 00
	00 00		 cmp	 DWORD PTR ?eo_low_light@@3HA, 0 ; eo_low_light
  00815	74 0c		 je	 SHORT $LN30@get_target

; 756  : 					{
; 757  : 						target_name = "LOW LIGHT";

  00817	c7 45 f8 00 00
	00 00		 mov	 DWORD PTR _target_name$[ebp], OFFSET ??_C@_09ICGCKLLB@LOW?5LIGHT@

; 758  : 					}
; 759  : 					else

  0081e	e9 98 00 00 00	 jmp	 $LN33@get_target
$LN30@get_target:

; 760  : 					{
; 761  : 						if (cpg_identify_target_delay > 0.0)

  00823	f3 0f 5a 05 00
	00 00 00	 cvtss2sd xmm0, DWORD PTR ?cpg_identify_target_delay@@3MA
  0082b	66 0f 2f 05 00
	00 00 00	 comisd	 xmm0, QWORD PTR __real@0000000000000000
  00833	76 09		 jbe	 SHORT $LN32@get_target

; 762  : 						{
; 763  : 							target_name = "CP/G ID...";

  00835	c7 45 f8 00 00
	00 00		 mov	 DWORD PTR _target_name$[ebp], OFFSET ??_C@_0L@CPHGBHEJ@CP?1G?5ID?4?4?4@

; 764  : 						}
; 765  : 						else

  0083c	eb 7d		 jmp	 SHORT $LN33@get_target
$LN32@get_target:

; 766  : 						{
; 767  : 							target_name = get_local_entity_string (target, STRING_TYPE_SHORT_DISPLAY_NAME);

  0083e	83 7d 08 00	 cmp	 DWORD PTR _target$[ebp], 0
  00842	74 0a		 je	 SHORT $LN92@get_target
  00844	8b 45 08	 mov	 eax, DWORD PTR _target$[ebp]
  00847	8b 08		 mov	 ecx, DWORD PTR [eax]
  00849	89 4d b4	 mov	 DWORD PTR tv401[ebp], ecx
  0084c	eb 21		 jmp	 SHORT $LN93@get_target
$LN92@get_target:
  0084e	8b 15 00 00 00
	00		 mov	 edx, DWORD PTR ?__LINE__Var@?0??get_target_display_name@@YGPBDPAUENTITY@@PADH@Z@4JA
  00854	83 c2 78	 add	 edx, 120		; 00000078H
  00857	52		 push	 edx
  00858	68 00 00 00 00	 push	 OFFSET ??_C@_0EO@LDNOEIJA@c?3?2users?2nhv90?2projects?2eech?2ap@
  0085d	a1 00 00 00 00	 mov	 eax, DWORD PTR ?null_entity_pointer_message@@3PBDB ; null_entity_pointer_message
  00862	50		 push	 eax
  00863	e8 00 00 00 00	 call	 ?process_assert@@YGXPBD0H@Z ; process_assert
  00868	c7 45 b4 00 00
	00 00		 mov	 DWORD PTR tv401[ebp], 0
$LN93@get_target:
  0086f	b9 01 00 00 00	 mov	 ecx, 1
  00874	85 c9		 test	 ecx, ecx
  00876	74 09		 je	 SHORT $LN94@get_target
  00878	c7 45 b0 0c 00
	00 00		 mov	 DWORD PTR tv409[ebp], 12 ; 0000000cH
  0087f	eb 21		 jmp	 SHORT $LN95@get_target
$LN94@get_target:
  00881	8b 15 00 00 00
	00		 mov	 edx, DWORD PTR ?__LINE__Var@?0??get_target_display_name@@YGPBDPAUENTITY@@PADH@Z@4JA
  00887	83 c2 78	 add	 edx, 120		; 00000078H
  0088a	52		 push	 edx
  0088b	68 00 00 00 00	 push	 OFFSET ??_C@_0EO@LDNOEIJA@c?3?2users?2nhv90?2projects?2eech?2ap@
  00890	a1 00 00 00 00	 mov	 eax, DWORD PTR ?overload_invalid_string_type_message@@3PBDB ; overload_invalid_string_type_message
  00895	50		 push	 eax
  00896	e8 00 00 00 00	 call	 ?process_assert@@YGXPBD0H@Z ; process_assert
  0089b	c7 45 b0 00 00
	00 00		 mov	 DWORD PTR tv409[ebp], 0
$LN95@get_target:
  008a2	6a 0c		 push	 12			; 0000000cH
  008a4	8b 4d 08	 mov	 ecx, DWORD PTR _target$[ebp]
  008a7	51		 push	 ecx
  008a8	6b 55 b4 34	 imul	 edx, DWORD PTR tv401[ebp], 52
  008ac	8b 45 b0	 mov	 eax, DWORD PTR tv409[ebp]
  008af	8b 8c 82 00 00
	00 00		 mov	 ecx, DWORD PTR ?fn_get_local_entity_string@@3PAY0N@P6GPBDPAUENTITY@@W4STRING_TYPES@@@ZA[edx+eax*4]
  008b6	ff d1		 call	 ecx
  008b8	89 45 f8	 mov	 DWORD PTR _target_name$[ebp], eax
$LN33@get_target:

; 768  : 						}
; 769  : 					}
; 770  : 				}
; 771  : 				else

  008bb	eb 07		 jmp	 SHORT $LN29@get_target
$LN28@get_target:

; 772  : 				{
; 773  : 					target_name = "NO TARGET";

  008bd	c7 45 f8 00 00
	00 00		 mov	 DWORD PTR _target_name$[ebp], OFFSET ??_C@_09JLFDDBCD@NO?5TARGET@
$LN29@get_target:

; 774  : 				}
; 775  : 			}
; 776  : 
; 777  : 			break;

  008c4	eb 13		 jmp	 SHORT $LN2@get_target
$LN34@get_target:

; 778  : 		}
; 779  : 		////////////////////////////////////////
; 780  : 		default:
; 781  : 		////////////////////////////////////////
; 782  : 		{
; 783  : 			debug_fatal ("Invalid cpg assist type = %d", get_global_cpg_assist_type ());

  008c6	a1 8c 00 00 00	 mov	 eax, DWORD PTR ?global_options@@3UGLOBAL_OPTIONS_DATA@@A+140
  008cb	50		 push	 eax
  008cc	68 00 00 00 00	 push	 OFFSET ??_C@_0BN@LJPACPLB@Invalid?5cpg?5assist?5type?5?$DN?5?$CFd@
  008d1	e8 00 00 00 00	 call	 ?debug_fatal@@YAXPBDZZ	; debug_fatal
  008d6	83 c4 08	 add	 esp, 8
$LN2@get_target:

; 784  : 
; 785  : 			break;
; 786  : 		}
; 787  : 	}
; 788  : 
; 789  : 	return (target_name);

  008d9	8b 45 f8	 mov	 eax, DWORD PTR _target_name$[ebp]

; 790  : }

  008dc	5f		 pop	 edi
  008dd	5e		 pop	 esi
  008de	5b		 pop	 ebx
  008df	8b e5		 mov	 esp, ebp
  008e1	5d		 pop	 ebp
  008e2	c2 0c 00	 ret	 12			; 0000000cH
?get_target_display_name@@YGPBDPAUENTITY@@PADH@Z ENDP	; get_target_display_name
_TEXT	ENDS
; Function compile flags: /Odtp /ZI
; File c:\users\nhv90\projects\eech\aphavoc\source\gunships\avionics\common\co_tgt.c
;	COMDAT ?toggle_designated_target@@YGXXZ
_TEXT	SEGMENT
tv130 = -76						; size = 4
tv78 = -76						; size = 4
tv91 = -72						; size = 4
tv70 = -72						; size = 4
_current_target$ = -4					; size = 4
?toggle_designated_target@@YGXXZ PROC			; toggle_designated_target, COMDAT

; 1148 : {

  00000	55		 push	 ebp
  00001	8b ec		 mov	 ebp, esp
  00003	83 ec 4c	 sub	 esp, 76			; 0000004cH
  00006	53		 push	 ebx
  00007	56		 push	 esi
  00008	57		 push	 edi

; 1149 : 	entity
; 1150 : 		*current_target;
; 1151 : 	
; 1152 : 	current_target = get_local_entity_parent (get_gunship_entity (), LIST_TYPE_TARGET);

  00009	83 3d 00 00 00
	00 00		 cmp	 DWORD PTR ?gunship_entity@@3PAUENTITY@@A, 0 ; gunship_entity
  00010	74 0c		 je	 SHORT $LN7@toggle_des
  00012	a1 00 00 00 00	 mov	 eax, DWORD PTR ?gunship_entity@@3PAUENTITY@@A ; gunship_entity
  00017	8b 08		 mov	 ecx, DWORD PTR [eax]
  00019	89 4d b8	 mov	 DWORD PTR tv70[ebp], ecx
  0001c	eb 21		 jmp	 SHORT $LN8@toggle_des
$LN7@toggle_des:
  0001e	8b 15 00 00 00
	00		 mov	 edx, DWORD PTR ?__LINE__Var@?0??toggle_designated_target@@YGXXZ@4JA
  00024	83 c2 04	 add	 edx, 4
  00027	52		 push	 edx
  00028	68 00 00 00 00	 push	 OFFSET ??_C@_0EO@LDNOEIJA@c?3?2users?2nhv90?2projects?2eech?2ap@
  0002d	a1 00 00 00 00	 mov	 eax, DWORD PTR ?null_entity_pointer_message@@3PBDB ; null_entity_pointer_message
  00032	50		 push	 eax
  00033	e8 00 00 00 00	 call	 ?process_assert@@YGXPBD0H@Z ; process_assert
  00038	c7 45 b8 00 00
	00 00		 mov	 DWORD PTR tv70[ebp], 0
$LN8@toggle_des:
  0003f	b9 01 00 00 00	 mov	 ecx, 1
  00044	85 c9		 test	 ecx, ecx
  00046	74 09		 je	 SHORT $LN9@toggle_des
  00048	c7 45 b4 26 00
	00 00		 mov	 DWORD PTR tv78[ebp], 38	; 00000026H
  0004f	eb 21		 jmp	 SHORT $LN10@toggle_des
$LN9@toggle_des:
  00051	8b 15 00 00 00
	00		 mov	 edx, DWORD PTR ?__LINE__Var@?0??toggle_designated_target@@YGXXZ@4JA
  00057	83 c2 04	 add	 edx, 4
  0005a	52		 push	 edx
  0005b	68 00 00 00 00	 push	 OFFSET ??_C@_0EO@LDNOEIJA@c?3?2users?2nhv90?2projects?2eech?2ap@
  00060	a1 00 00 00 00	 mov	 eax, DWORD PTR ?overload_invalid_list_type_message@@3PBDB ; overload_invalid_list_type_message
  00065	50		 push	 eax
  00066	e8 00 00 00 00	 call	 ?process_assert@@YGXPBD0H@Z ; process_assert
  0006b	c7 45 b4 00 00
	00 00		 mov	 DWORD PTR tv78[ebp], 0
$LN10@toggle_des:
  00072	6a 26		 push	 38			; 00000026H
  00074	8b 0d 00 00 00
	00		 mov	 ecx, DWORD PTR ?gunship_entity@@3PAUENTITY@@A ; gunship_entity
  0007a	51		 push	 ecx
  0007b	69 55 b8 b4 00
	00 00		 imul	 edx, DWORD PTR tv70[ebp], 180
  00082	8b 45 b4	 mov	 eax, DWORD PTR tv78[ebp]
  00085	8b 8c 82 00 00
	00 00		 mov	 ecx, DWORD PTR ?fn_get_local_entity_parent@@3PAY0CN@P6GPAUENTITY@@PAU1@W4LIST_TYPES@@@ZA[edx+eax*4]
  0008c	ff d1		 call	 ecx
  0008e	89 45 fc	 mov	 DWORD PTR _current_target$[ebp], eax

; 1153 : 	
; 1154 : 	if (command_line_designated_targets)

  00091	83 3d 00 00 00
	00 00		 cmp	 DWORD PTR ?command_line_designated_targets@@3HA, 0 ; command_line_designated_targets
  00098	0f 84 a3 00 00
	00		 je	 $LN1@toggle_des

; 1155 : 	{
; 1156 : 		if (current_target)

  0009e	83 7d fc 00	 cmp	 DWORD PTR _current_target$[ebp], 0
  000a2	0f 84 99 00 00
	00		 je	 $LN1@toggle_des

; 1157 : 		{	
; 1158 : 			if (get_local_entity_parent (current_target, LIST_TYPE_DESIGNATED_TARGET))

  000a8	83 7d fc 00	 cmp	 DWORD PTR _current_target$[ebp], 0
  000ac	74 0a		 je	 SHORT $LN11@toggle_des
  000ae	8b 45 fc	 mov	 eax, DWORD PTR _current_target$[ebp]
  000b1	8b 08		 mov	 ecx, DWORD PTR [eax]
  000b3	89 4d b8	 mov	 DWORD PTR tv91[ebp], ecx
  000b6	eb 1d		 jmp	 SHORT $LN12@toggle_des
$LN11@toggle_des:
  000b8	68 86 04 00 00	 push	 1158			; 00000486H
  000bd	68 00 00 00 00	 push	 OFFSET ??_C@_0EO@LDNOEIJA@c?3?2users?2nhv90?2projects?2eech?2ap@
  000c2	8b 15 00 00 00
	00		 mov	 edx, DWORD PTR ?null_entity_pointer_message@@3PBDB ; null_entity_pointer_message
  000c8	52		 push	 edx
  000c9	e8 00 00 00 00	 call	 ?process_assert@@YGXPBD0H@Z ; process_assert
  000ce	c7 45 b8 00 00
	00 00		 mov	 DWORD PTR tv91[ebp], 0
$LN12@toggle_des:
  000d5	b8 01 00 00 00	 mov	 eax, 1
  000da	85 c0		 test	 eax, eax
  000dc	74 09		 je	 SHORT $LN13@toggle_des
  000de	c7 45 b4 0a 00
	00 00		 mov	 DWORD PTR tv130[ebp], 10 ; 0000000aH
  000e5	eb 1d		 jmp	 SHORT $LN14@toggle_des
$LN13@toggle_des:
  000e7	68 86 04 00 00	 push	 1158			; 00000486H
  000ec	68 00 00 00 00	 push	 OFFSET ??_C@_0EO@LDNOEIJA@c?3?2users?2nhv90?2projects?2eech?2ap@
  000f1	8b 0d 00 00 00
	00		 mov	 ecx, DWORD PTR ?overload_invalid_list_type_message@@3PBDB ; overload_invalid_list_type_message
  000f7	51		 push	 ecx
  000f8	e8 00 00 00 00	 call	 ?process_assert@@YGXPBD0H@Z ; process_assert
  000fd	c7 45 b4 00 00
	00 00		 mov	 DWORD PTR tv130[ebp], 0
$LN14@toggle_des:
  00104	6a 0a		 push	 10			; 0000000aH
  00106	8b 55 fc	 mov	 edx, DWORD PTR _current_target$[ebp]
  00109	52		 push	 edx
  0010a	69 45 b8 b4 00
	00 00		 imul	 eax, DWORD PTR tv91[ebp], 180
  00111	8b 4d b4	 mov	 ecx, DWORD PTR tv130[ebp]
  00114	8b 94 88 00 00
	00 00		 mov	 edx, DWORD PTR ?fn_get_local_entity_parent@@3PAY0CN@P6GPAUENTITY@@PAU1@W4LIST_TYPES@@@ZA[eax+ecx*4]
  0011b	ff d2		 call	 edx
  0011d	85 c0		 test	 eax, eax
  0011f	74 0d		 je	 SHORT $LN4@toggle_des

; 1159 : 			{
; 1160 : 				delete_local_entity_from_parents_child_list (current_target, LIST_TYPE_DESIGNATED_TARGET);

  00121	6a 0a		 push	 10			; 0000000aH
  00123	8b 45 fc	 mov	 eax, DWORD PTR _current_target$[ebp]
  00126	50		 push	 eax
  00127	e8 00 00 00 00	 call	 ?delete_local_entity_from_parents_child_list@@YGXPAUENTITY@@W4LIST_TYPES@@@Z ; delete_local_entity_from_parents_child_list

; 1161 : 			}
; 1162 : 			else

  0012c	eb 13		 jmp	 SHORT $LN1@toggle_des
$LN4@toggle_des:

; 1163 : 			{
; 1164 : 				insert_local_entity_into_parents_child_list (current_target, LIST_TYPE_DESIGNATED_TARGET, get_gunship_entity (), NULL);

  0012e	6a 00		 push	 0
  00130	a1 00 00 00 00	 mov	 eax, DWORD PTR ?gunship_entity@@3PAUENTITY@@A ; gunship_entity
  00135	50		 push	 eax
  00136	6a 0a		 push	 10			; 0000000aH
  00138	8b 4d fc	 mov	 ecx, DWORD PTR _current_target$[ebp]
  0013b	51		 push	 ecx
  0013c	e8 00 00 00 00	 call	 ?insert_local_entity_into_parents_child_list@@YGXPAUENTITY@@W4LIST_TYPES@@00@Z ; insert_local_entity_into_parents_child_list
$LN1@toggle_des:

; 1165 : 			}
; 1166 : 		}
; 1167 : 	}
; 1168 : }

  00141	5f		 pop	 edi
  00142	5e		 pop	 esi
  00143	5b		 pop	 ebx
  00144	8b e5		 mov	 esp, ebp
  00146	5d		 pop	 ebp
  00147	c3		 ret	 0
?toggle_designated_target@@YGXXZ ENDP			; toggle_designated_target
_TEXT	ENDS
; Function compile flags: /Odtp /ZI
; File c:\users\nhv90\projects\eech\aphavoc\source\gunships\avionics\common\co_tgt.c
;	COMDAT ?set_gunship_target@@YGXPAUENTITY@@@Z
_TEXT	SEGMENT
tv320 = -92						; size = 8
tv286 = -92						; size = 8
tv177 = -92						; size = 4
tv157 = -92						; size = 4
tv136 = -92						; size = 4
tv81 = -92						; size = 4
tv169 = -88						; size = 4
tv149 = -88						; size = 4
tv129 = -88						; size = 4
tv74 = -88						; size = 4
$T1 = -84						; size = 4
$T2 = -80						; size = 4
_range$ = -12						; size = 4
_target_position$ = -8					; size = 4
_source_position$ = -4					; size = 4
_target$ = 8						; size = 4
?set_gunship_target@@YGXPAUENTITY@@@Z PROC		; set_gunship_target, COMDAT

; 569  : {

  00000	55		 push	 ebp
  00001	8b ec		 mov	 ebp, esp
  00003	83 ec 5c	 sub	 esp, 92			; 0000005cH
  00006	53		 push	 ebx
  00007	56		 push	 esi
  00008	57		 push	 edi

; 570  : 	vec3d
; 571  : 		*source_position,
; 572  : 		*target_position;
; 573  : 
; 574  : 	float
; 575  : 		range;
; 576  : 
; 577  : 	ASSERT (get_gunship_entity ());

  00009	83 3d 00 00 00
	00 00		 cmp	 DWORD PTR ?gunship_entity@@3PAUENTITY@@A, 0 ; gunship_entity
  00010	75 18		 jne	 SHORT $LN2@set_gunshi
  00012	a1 00 00 00 00	 mov	 eax, DWORD PTR ?__LINE__Var@?0??set_gunship_target@@YGXPAUENTITY@@@Z@4JA
  00017	83 c0 08	 add	 eax, 8
  0001a	50		 push	 eax
  0001b	68 00 00 00 00	 push	 OFFSET ??_C@_0EO@LDNOEIJA@c?3?2users?2nhv90?2projects?2eech?2ap@
  00020	68 00 00 00 00	 push	 OFFSET ??_C@_0BG@EANNPEON@get_gunship_entity?5?$CI?$CJ@
  00025	e8 00 00 00 00	 call	 ?process_assert@@YGXPBD0H@Z ; process_assert
$LN2@set_gunshi:

; 578  : 
; 579  : 	if (target != get_local_entity_parent (get_gunship_entity (), LIST_TYPE_TARGET))

  0002a	83 3d 00 00 00
	00 00		 cmp	 DWORD PTR ?gunship_entity@@3PAUENTITY@@A, 0 ; gunship_entity
  00031	74 0c		 je	 SHORT $LN11@set_gunshi
  00033	a1 00 00 00 00	 mov	 eax, DWORD PTR ?gunship_entity@@3PAUENTITY@@A ; gunship_entity
  00038	8b 08		 mov	 ecx, DWORD PTR [eax]
  0003a	89 4d a8	 mov	 DWORD PTR tv74[ebp], ecx
  0003d	eb 1d		 jmp	 SHORT $LN12@set_gunshi
$LN11@set_gunshi:
  0003f	68 43 02 00 00	 push	 579			; 00000243H
  00044	68 00 00 00 00	 push	 OFFSET ??_C@_0EO@LDNOEIJA@c?3?2users?2nhv90?2projects?2eech?2ap@
  00049	8b 15 00 00 00
	00		 mov	 edx, DWORD PTR ?null_entity_pointer_message@@3PBDB ; null_entity_pointer_message
  0004f	52		 push	 edx
  00050	e8 00 00 00 00	 call	 ?process_assert@@YGXPBD0H@Z ; process_assert
  00055	c7 45 a8 00 00
	00 00		 mov	 DWORD PTR tv74[ebp], 0
$LN12@set_gunshi:
  0005c	b8 01 00 00 00	 mov	 eax, 1
  00061	85 c0		 test	 eax, eax
  00063	74 09		 je	 SHORT $LN13@set_gunshi
  00065	c7 45 a4 26 00
	00 00		 mov	 DWORD PTR tv81[ebp], 38	; 00000026H
  0006c	eb 1d		 jmp	 SHORT $LN14@set_gunshi
$LN13@set_gunshi:
  0006e	68 43 02 00 00	 push	 579			; 00000243H
  00073	68 00 00 00 00	 push	 OFFSET ??_C@_0EO@LDNOEIJA@c?3?2users?2nhv90?2projects?2eech?2ap@
  00078	8b 0d 00 00 00
	00		 mov	 ecx, DWORD PTR ?overload_invalid_list_type_message@@3PBDB ; overload_invalid_list_type_message
  0007e	51		 push	 ecx
  0007f	e8 00 00 00 00	 call	 ?process_assert@@YGXPBD0H@Z ; process_assert
  00084	c7 45 a4 00 00
	00 00		 mov	 DWORD PTR tv81[ebp], 0
$LN14@set_gunshi:
  0008b	6a 26		 push	 38			; 00000026H
  0008d	8b 15 00 00 00
	00		 mov	 edx, DWORD PTR ?gunship_entity@@3PAUENTITY@@A ; gunship_entity
  00093	52		 push	 edx
  00094	69 45 a8 b4 00
	00 00		 imul	 eax, DWORD PTR tv74[ebp], 180
  0009b	8b 4d a4	 mov	 ecx, DWORD PTR tv81[ebp]
  0009e	8b 94 88 00 00
	00 00		 mov	 edx, DWORD PTR ?fn_get_local_entity_parent@@3PAY0CN@P6GPAUENTITY@@PAU1@W4LIST_TYPES@@@ZA[eax+ecx*4]
  000a5	ff d2		 call	 edx
  000a7	39 45 08	 cmp	 DWORD PTR _target$[ebp], eax
  000aa	0f 84 cd 02 00
	00		 je	 $LN7@set_gunshi

; 580  : 	{
; 581  : 		#if 0
; 582  : 
; 583  : 		////////////////////////////////////////
; 584  : 		//
; 585  : 		// this only works locally
; 586  : 		//
; 587  : 		////////////////////////////////////////
; 588  : 
; 589  : 		delete_local_entity_from_parents_child_list (get_gunship_entity (), LIST_TYPE_TARGET);
; 590  : 
; 591  : 		if (target)
; 592  : 		{
; 593  : 			insert_local_entity_into_parents_child_list (get_gunship_entity (), LIST_TYPE_TARGET, target, NULL);
; 594  : 		}
; 595  : 
; 596  : 		#else
; 597  : 
; 598  : 		////////////////////////////////////////
; 599  : 		//
; 600  : 		// this works client/server but assumes that targets can only be 'killed' and not 'destroyed'
; 601  : 		//
; 602  : 		////////////////////////////////////////
; 603  : 
; 604  : 		set_client_server_entity_parent (get_gunship_entity (), LIST_TYPE_TARGET, target);

  000b0	8b 45 08	 mov	 eax, DWORD PTR _target$[ebp]
  000b3	50		 push	 eax
  000b4	6a 26		 push	 38			; 00000026H
  000b6	8b 0d 00 00 00
	00		 mov	 ecx, DWORD PTR ?gunship_entity@@3PAUENTITY@@A ; gunship_entity
  000bc	51		 push	 ecx
  000bd	e8 00 00 00 00	 call	 ?set_client_server_entity_parent@@YGXPAUENTITY@@W4LIST_TYPES@@0@Z ; set_client_server_entity_parent

; 605  : 
; 606  : 		#endif
; 607  : 
; 608  : 		////////////////////////////////////////
; 609  : 		//
; 610  : 		// CP/G identify delay
; 611  : 		//
; 612  : 		////////////////////////////////////////
; 613  : 
; 614  : 		cpg_identify_target_delay = 0.0;

  000c2	0f 57 c0	 xorps	 xmm0, xmm0
  000c5	f3 0f 11 05 00
	00 00 00	 movss	 DWORD PTR ?cpg_identify_target_delay@@3MA, xmm0

; 615  : 
; 616  : 		if (target)

  000cd	83 7d 08 00	 cmp	 DWORD PTR _target$[ebp], 0
  000d1	0f 84 a6 02 00
	00		 je	 $LN7@set_gunshi

; 617  : 		{
; 618  : 			if (!get_local_entity_int_value (target, INT_TYPE_CPG_IDENTIFIED))

  000d7	83 7d 08 00	 cmp	 DWORD PTR _target$[ebp], 0
  000db	74 0a		 je	 SHORT $LN15@set_gunshi
  000dd	8b 45 08	 mov	 eax, DWORD PTR _target$[ebp]
  000e0	8b 08		 mov	 ecx, DWORD PTR [eax]
  000e2	89 4d a8	 mov	 DWORD PTR tv129[ebp], ecx
  000e5	eb 1d		 jmp	 SHORT $LN16@set_gunshi
$LN15@set_gunshi:
  000e7	68 6a 02 00 00	 push	 618			; 0000026aH
  000ec	68 00 00 00 00	 push	 OFFSET ??_C@_0EO@LDNOEIJA@c?3?2users?2nhv90?2projects?2eech?2ap@
  000f1	8b 15 00 00 00
	00		 mov	 edx, DWORD PTR ?null_entity_pointer_message@@3PBDB ; null_entity_pointer_message
  000f7	52		 push	 edx
  000f8	e8 00 00 00 00	 call	 ?process_assert@@YGXPBD0H@Z ; process_assert
  000fd	c7 45 a8 00 00
	00 00		 mov	 DWORD PTR tv129[ebp], 0
$LN16@set_gunshi:
  00104	b8 01 00 00 00	 mov	 eax, 1
  00109	85 c0		 test	 eax, eax
  0010b	74 09		 je	 SHORT $LN17@set_gunshi
  0010d	c7 45 a4 22 00
	00 00		 mov	 DWORD PTR tv136[ebp], 34 ; 00000022H
  00114	eb 1d		 jmp	 SHORT $LN18@set_gunshi
$LN17@set_gunshi:
  00116	68 6a 02 00 00	 push	 618			; 0000026aH
  0011b	68 00 00 00 00	 push	 OFFSET ??_C@_0EO@LDNOEIJA@c?3?2users?2nhv90?2projects?2eech?2ap@
  00120	8b 0d 00 00 00
	00		 mov	 ecx, DWORD PTR ?overload_invalid_int_type_message@@3PBDB ; overload_invalid_int_type_message
  00126	51		 push	 ecx
  00127	e8 00 00 00 00	 call	 ?process_assert@@YGXPBD0H@Z ; process_assert
  0012c	c7 45 a4 00 00
	00 00		 mov	 DWORD PTR tv136[ebp], 0
$LN18@set_gunshi:
  00133	6a 22		 push	 34			; 00000022H
  00135	8b 55 08	 mov	 edx, DWORD PTR _target$[ebp]
  00138	52		 push	 edx
  00139	69 45 a8 5c 04
	00 00		 imul	 eax, DWORD PTR tv129[ebp], 1116
  00140	8b 4d a4	 mov	 ecx, DWORD PTR tv136[ebp]
  00143	8b 94 88 00 00
	00 00		 mov	 edx, DWORD PTR ?fn_get_local_entity_int_value@@3PAY0BBH@P6GHPAUENTITY@@W4INT_TYPES@@@ZA[eax+ecx*4]
  0014a	ff d2		 call	 edx
  0014c	85 c0		 test	 eax, eax
  0014e	0f 85 29 02 00
	00		 jne	 $LN7@set_gunshi

; 619  : 			{
; 620  : 				source_position = get_local_entity_vec3d_ptr (get_gunship_entity (), VEC3D_TYPE_POSITION);

  00154	83 3d 00 00 00
	00 00		 cmp	 DWORD PTR ?gunship_entity@@3PAUENTITY@@A, 0 ; gunship_entity
  0015b	74 0c		 je	 SHORT $LN19@set_gunshi
  0015d	a1 00 00 00 00	 mov	 eax, DWORD PTR ?gunship_entity@@3PAUENTITY@@A ; gunship_entity
  00162	8b 08		 mov	 ecx, DWORD PTR [eax]
  00164	89 4d a8	 mov	 DWORD PTR tv149[ebp], ecx
  00167	eb 21		 jmp	 SHORT $LN20@set_gunshi
$LN19@set_gunshi:
  00169	8b 15 00 00 00
	00		 mov	 edx, DWORD PTR ?__LINE__Var@?0??set_gunship_target@@YGXPAUENTITY@@@Z@4JA
  0016f	83 c2 33	 add	 edx, 51			; 00000033H
  00172	52		 push	 edx
  00173	68 00 00 00 00	 push	 OFFSET ??_C@_0EO@LDNOEIJA@c?3?2users?2nhv90?2projects?2eech?2ap@
  00178	a1 00 00 00 00	 mov	 eax, DWORD PTR ?null_entity_pointer_message@@3PBDB ; null_entity_pointer_message
  0017d	50		 push	 eax
  0017e	e8 00 00 00 00	 call	 ?process_assert@@YGXPBD0H@Z ; process_assert
  00183	c7 45 a8 00 00
	00 00		 mov	 DWORD PTR tv149[ebp], 0
$LN20@set_gunshi:
  0018a	b9 01 00 00 00	 mov	 ecx, 1
  0018f	85 c9		 test	 ecx, ecx
  00191	74 09		 je	 SHORT $LN21@set_gunshi
  00193	c7 45 a4 08 00
	00 00		 mov	 DWORD PTR tv157[ebp], 8
  0019a	eb 21		 jmp	 SHORT $LN22@set_gunshi
$LN21@set_gunshi:
  0019c	8b 15 00 00 00
	00		 mov	 edx, DWORD PTR ?__LINE__Var@?0??set_gunship_target@@YGXPAUENTITY@@@Z@4JA
  001a2	83 c2 33	 add	 edx, 51			; 00000033H
  001a5	52		 push	 edx
  001a6	68 00 00 00 00	 push	 OFFSET ??_C@_0EO@LDNOEIJA@c?3?2users?2nhv90?2projects?2eech?2ap@
  001ab	a1 00 00 00 00	 mov	 eax, DWORD PTR ?overload_invalid_vec3d_type_message@@3PBDB ; overload_invalid_vec3d_type_message
  001b0	50		 push	 eax
  001b1	e8 00 00 00 00	 call	 ?process_assert@@YGXPBD0H@Z ; process_assert
  001b6	c7 45 a4 00 00
	00 00		 mov	 DWORD PTR tv157[ebp], 0
$LN22@set_gunshi:
  001bd	6a 08		 push	 8
  001bf	8b 0d 00 00 00
	00		 mov	 ecx, DWORD PTR ?gunship_entity@@3PAUENTITY@@A ; gunship_entity
  001c5	51		 push	 ecx
  001c6	6b 55 a8 60	 imul	 edx, DWORD PTR tv149[ebp], 96
  001ca	8b 45 a4	 mov	 eax, DWORD PTR tv157[ebp]
  001cd	8b 8c 82 00 00
	00 00		 mov	 ecx, DWORD PTR ?fn_get_local_entity_vec3d_ptr@@3PAY0BI@P6GPAUVEC3D@@PAUENTITY@@W4VEC3D_TYPES@@@ZA[edx+eax*4]
  001d4	ff d1		 call	 ecx
  001d6	89 45 fc	 mov	 DWORD PTR _source_position$[ebp], eax

; 621  : 
; 622  : 				target_position = get_local_entity_vec3d_ptr (target, VEC3D_TYPE_POSITION);

  001d9	83 7d 08 00	 cmp	 DWORD PTR _target$[ebp], 0
  001dd	74 0a		 je	 SHORT $LN23@set_gunshi
  001df	8b 45 08	 mov	 eax, DWORD PTR _target$[ebp]
  001e2	8b 08		 mov	 ecx, DWORD PTR [eax]
  001e4	89 4d a8	 mov	 DWORD PTR tv169[ebp], ecx
  001e7	eb 21		 jmp	 SHORT $LN24@set_gunshi
$LN23@set_gunshi:
  001e9	8b 15 00 00 00
	00		 mov	 edx, DWORD PTR ?__LINE__Var@?0??set_gunship_target@@YGXPAUENTITY@@@Z@4JA
  001ef	83 c2 35	 add	 edx, 53			; 00000035H
  001f2	52		 push	 edx
  001f3	68 00 00 00 00	 push	 OFFSET ??_C@_0EO@LDNOEIJA@c?3?2users?2nhv90?2projects?2eech?2ap@
  001f8	a1 00 00 00 00	 mov	 eax, DWORD PTR ?null_entity_pointer_message@@3PBDB ; null_entity_pointer_message
  001fd	50		 push	 eax
  001fe	e8 00 00 00 00	 call	 ?process_assert@@YGXPBD0H@Z ; process_assert
  00203	c7 45 a8 00 00
	00 00		 mov	 DWORD PTR tv169[ebp], 0
$LN24@set_gunshi:
  0020a	b9 01 00 00 00	 mov	 ecx, 1
  0020f	85 c9		 test	 ecx, ecx
  00211	74 09		 je	 SHORT $LN25@set_gunshi
  00213	c7 45 a4 08 00
	00 00		 mov	 DWORD PTR tv177[ebp], 8
  0021a	eb 21		 jmp	 SHORT $LN26@set_gunshi
$LN25@set_gunshi:
  0021c	8b 15 00 00 00
	00		 mov	 edx, DWORD PTR ?__LINE__Var@?0??set_gunship_target@@YGXPAUENTITY@@@Z@4JA
  00222	83 c2 35	 add	 edx, 53			; 00000035H
  00225	52		 push	 edx
  00226	68 00 00 00 00	 push	 OFFSET ??_C@_0EO@LDNOEIJA@c?3?2users?2nhv90?2projects?2eech?2ap@
  0022b	a1 00 00 00 00	 mov	 eax, DWORD PTR ?overload_invalid_vec3d_type_message@@3PBDB ; overload_invalid_vec3d_type_message
  00230	50		 push	 eax
  00231	e8 00 00 00 00	 call	 ?process_assert@@YGXPBD0H@Z ; process_assert
  00236	c7 45 a4 00 00
	00 00		 mov	 DWORD PTR tv177[ebp], 0
$LN26@set_gunshi:
  0023d	6a 08		 push	 8
  0023f	8b 4d 08	 mov	 ecx, DWORD PTR _target$[ebp]
  00242	51		 push	 ecx
  00243	6b 55 a8 60	 imul	 edx, DWORD PTR tv169[ebp], 96
  00247	8b 45 a4	 mov	 eax, DWORD PTR tv177[ebp]
  0024a	8b 8c 82 00 00
	00 00		 mov	 ecx, DWORD PTR ?fn_get_local_entity_vec3d_ptr@@3PAY0BI@P6GPAUVEC3D@@PAUENTITY@@W4VEC3D_TYPES@@@ZA[edx+eax*4]
  00251	ff d1		 call	 ecx
  00253	89 45 f8	 mov	 DWORD PTR _target_position$[ebp], eax

; 623  : 
; 624  : 				range = get_3d_range (source_position, target_position);

  00256	8b 45 f8	 mov	 eax, DWORD PTR _target_position$[ebp]
  00259	50		 push	 eax
  0025a	8b 4d fc	 mov	 ecx, DWORD PTR _source_position$[ebp]
  0025d	51		 push	 ecx
  0025e	e8 00 00 00 00	 call	 ?get_3d_range@@YGMPBUVEC3D@@0@Z ; get_3d_range
  00263	d9 5d f4	 fstp	 DWORD PTR _range$[ebp]

; 625  : 
; 626  : 				if (range < 5000.0)

  00266	f3 0f 5a 45 f4	 cvtss2sd xmm0, DWORD PTR _range$[ebp]
  0026b	f2 0f 10 0d 00
	00 00 00	 movsd	 xmm1, QWORD PTR __real@40b3880000000000
  00273	66 0f 2f c8	 comisd	 xmm1, xmm0
  00277	0f 86 81 00 00
	00		 jbe	 $LN6@set_gunshi

; 627  : 					cpg_identify_target_delay = (min (range, 5000.0f) * 0.0004) + (frand1 () * 1.0) + 0.25;

  0027d	f3 0f 10 05 00
	00 00 00	 movss	 xmm0, DWORD PTR __real@459c4000
  00285	f3 0f 11 45 b0	 movss	 DWORD PTR $T2[ebp], xmm0
  0028a	69 05 00 00 00
	00 6d 4e c6 41	 imul	 eax, DWORD PTR ?random_number_seed@@3HA, 1103515245 ; random_number_seed
  00294	05 39 30 00 00	 add	 eax, 12345		; 00003039H
  00299	a3 00 00 00 00	 mov	 DWORD PTR ?random_number_seed@@3HA, eax ; random_number_seed
  0029e	8b 0d 00 00 00
	00		 mov	 ecx, DWORD PTR ?random_number_seed@@3HA ; random_number_seed
  002a4	c1 f9 10	 sar	 ecx, 16			; 00000010H
  002a7	81 e1 ff 7f 00
	00		 and	 ecx, 32767		; 00007fffH
  002ad	f2 0f 2a c1	 cvtsi2sd xmm0, ecx
  002b1	f2 0f 59 05 00
	00 00 00	 mulsd	 xmm0, QWORD PTR __real@3f00002000400080
  002b9	f2 0f 59 05 00
	00 00 00	 mulsd	 xmm0, QWORD PTR __real@3ff0000000000000
  002c1	8d 55 b0	 lea	 edx, DWORD PTR $T2[ebp]
  002c4	52		 push	 edx
  002c5	8d 45 f4	 lea	 eax, DWORD PTR _range$[ebp]
  002c8	50		 push	 eax
  002c9	f2 0f 11 45 a4	 movsd	 QWORD PTR tv286[ebp], xmm0
  002ce	e8 00 00 00 00	 call	 ??$min@M@std@@YGABMABM0@Z ; std::min<float>
  002d3	f3 0f 5a 00	 cvtss2sd xmm0, DWORD PTR [eax]
  002d7	f2 0f 59 05 00
	00 00 00	 mulsd	 xmm0, QWORD PTR __real@3f3a36e2eb1c432d
  002df	f2 0f 10 4d a4	 movsd	 xmm1, QWORD PTR tv286[ebp]
  002e4	f2 0f 58 c1	 addsd	 xmm0, xmm1
  002e8	f2 0f 58 05 00
	00 00 00	 addsd	 xmm0, QWORD PTR __real@3fd0000000000000
  002f0	f2 0f 5a c0	 cvtsd2ss xmm0, xmm0
  002f4	f3 0f 11 05 00
	00 00 00	 movss	 DWORD PTR ?cpg_identify_target_delay@@3MA, xmm0

; 628  : 				else  // really long ID time for targets beyond 5KM

  002fc	eb 7f		 jmp	 SHORT $LN7@set_gunshi
$LN6@set_gunshi:

; 629  : 					cpg_identify_target_delay = (min (range, 8000.0f) * 0.001) + (frand1 () * 1.0) + 60.0;

  002fe	f3 0f 10 05 00
	00 00 00	 movss	 xmm0, DWORD PTR __real@45fa0000
  00306	f3 0f 11 45 ac	 movss	 DWORD PTR $T1[ebp], xmm0
  0030b	69 05 00 00 00
	00 6d 4e c6 41	 imul	 eax, DWORD PTR ?random_number_seed@@3HA, 1103515245 ; random_number_seed
  00315	05 39 30 00 00	 add	 eax, 12345		; 00003039H
  0031a	a3 00 00 00 00	 mov	 DWORD PTR ?random_number_seed@@3HA, eax ; random_number_seed
  0031f	8b 0d 00 00 00
	00		 mov	 ecx, DWORD PTR ?random_number_seed@@3HA ; random_number_seed
  00325	c1 f9 10	 sar	 ecx, 16			; 00000010H
  00328	81 e1 ff 7f 00
	00		 and	 ecx, 32767		; 00007fffH
  0032e	f2 0f 2a c1	 cvtsi2sd xmm0, ecx
  00332	f2 0f 59 05 00
	00 00 00	 mulsd	 xmm0, QWORD PTR __real@3f00002000400080
  0033a	f2 0f 59 05 00
	00 00 00	 mulsd	 xmm0, QWORD PTR __real@3ff0000000000000
  00342	8d 55 ac	 lea	 edx, DWORD PTR $T1[ebp]
  00345	52		 push	 edx
  00346	8d 45 f4	 lea	 eax, DWORD PTR _range$[ebp]
  00349	50		 push	 eax
  0034a	f2 0f 11 45 a4	 movsd	 QWORD PTR tv320[ebp], xmm0
  0034f	e8 00 00 00 00	 call	 ??$min@M@std@@YGABMABM0@Z ; std::min<float>
  00354	f3 0f 5a 00	 cvtss2sd xmm0, DWORD PTR [eax]
  00358	f2 0f 59 05 00
	00 00 00	 mulsd	 xmm0, QWORD PTR __real@3f50624dd2f1a9fc
  00360	f2 0f 10 4d a4	 movsd	 xmm1, QWORD PTR tv320[ebp]
  00365	f2 0f 58 c1	 addsd	 xmm0, xmm1
  00369	f2 0f 58 05 00
	00 00 00	 addsd	 xmm0, QWORD PTR __real@404e000000000000
  00371	f2 0f 5a c0	 cvtsd2ss xmm0, xmm0
  00375	f3 0f 11 05 00
	00 00 00	 movss	 DWORD PTR ?cpg_identify_target_delay@@3MA, xmm0
$LN7@set_gunshi:

; 630  : 			}
; 631  : 		}
; 632  : 	}
; 633  : 
; 634  : 	if (!target  && !eo_is_tracking_point())

  0037d	83 7d 08 00	 cmp	 DWORD PTR _target$[ebp], 0
  00381	75 2c		 jne	 SHORT $LN9@set_gunshi
  00383	e8 00 00 00 00	 call	 ?eo_is_tracking_point@@YGHXZ ; eo_is_tracking_point
  00388	85 c0		 test	 eax, eax
  0038a	75 23		 jne	 SHORT $LN9@set_gunshi

; 635  : 	{
; 636  : 		target_locked = FALSE;

  0038c	c7 05 00 00 00
	00 00 00 00 00	 mov	 DWORD PTR ?target_locked@@3HA, 0 ; target_locked

; 637  : 		if (command_line_manual_laser_radar && !eo_is_tracking_point())

  00396	83 3d 00 00 00
	00 00		 cmp	 DWORD PTR ?command_line_manual_laser_radar@@3HA, 0 ; command_line_manual_laser_radar
  0039d	74 10		 je	 SHORT $LN9@set_gunshi
  0039f	e8 00 00 00 00	 call	 ?eo_is_tracking_point@@YGHXZ ; eo_is_tracking_point
  003a4	85 c0		 test	 eax, eax
  003a6	75 07		 jne	 SHORT $LN9@set_gunshi

; 638  : 			set_laser_is_active(FALSE);  // laser can only be active when we have a target

  003a8	6a 00		 push	 0
  003aa	e8 00 00 00 00	 call	 ?set_laser_is_active@@YGXH@Z ; set_laser_is_active
$LN9@set_gunshi:

; 639  : 	}
; 640  : }

  003af	5f		 pop	 edi
  003b0	5e		 pop	 esi
  003b1	5b		 pop	 ebx
  003b2	8b e5		 mov	 esp, ebp
  003b4	5d		 pop	 ebp
  003b5	c2 04 00	 ret	 4
?set_gunship_target@@YGXPAUENTITY@@@Z ENDP		; set_gunship_target
_TEXT	ENDS
; Function compile flags: /Odtp /ZI
; File c:\users\nhv90\projects\eech\aphavoc\source\gunships\avionics\common\co_tgt.c
;	COMDAT ?set_common_target_acquisition_system_lock_target@@YGXH@Z
_TEXT	SEGMENT
tv69 = -68						; size = 4
_lock$ = 8						; size = 4
?set_common_target_acquisition_system_lock_target@@YGXH@Z PROC ; set_common_target_acquisition_system_lock_target, COMDAT

; 479  : {

  00000	55		 push	 ebp
  00001	8b ec		 mov	 ebp, esp
  00003	83 ec 44	 sub	 esp, 68			; 00000044H
  00006	53		 push	 ebx
  00007	56		 push	 esi
  00008	57		 push	 edi

; 480  : 	ASSERT (get_gunship_entity ());

  00009	83 3d 00 00 00
	00 00		 cmp	 DWORD PTR ?gunship_entity@@3PAUENTITY@@A, 0 ; gunship_entity
  00010	75 18		 jne	 SHORT $LN4@set_common
  00012	a1 00 00 00 00	 mov	 eax, DWORD PTR ?__LINE__Var@?0??set_common_target_acquisition_system_lock_target@@YGXH@Z@4JA
  00017	83 c0 01	 add	 eax, 1
  0001a	50		 push	 eax
  0001b	68 00 00 00 00	 push	 OFFSET ??_C@_0EO@LDNOEIJA@c?3?2users?2nhv90?2projects?2eech?2ap@
  00020	68 00 00 00 00	 push	 OFFSET ??_C@_0BG@EANNPEON@get_gunship_entity?5?$CI?$CJ@
  00025	e8 00 00 00 00	 call	 ?process_assert@@YGXPBD0H@Z ; process_assert
$LN4@set_common:

; 481  : 
; 482  : 	switch (get_global_gunship_type ())

  0002a	a1 0c 00 00 00	 mov	 eax, DWORD PTR ?global_options@@3UGLOBAL_OPTIONS_DATA@@A+12
  0002f	89 45 bc	 mov	 DWORD PTR tv69[ebp], eax
  00032	83 7d bc 09	 cmp	 DWORD PTR tv69[ebp], 9
  00036	77 78		 ja	 SHORT $LN15@set_common
  00038	8b 4d bc	 mov	 ecx, DWORD PTR tv69[ebp]
  0003b	ff 24 8d 00 00
	00 00		 jmp	 DWORD PTR $LN17@set_common[ecx*4]
$LN5@set_common:

; 483  : 	{
; 484  : 		// JB 030313 Fly any aircraft
; 485  : //		default:
; 486  : 		case GUNSHIP_TYPE_APACHE:
; 487  : 		{
; 488  : 			set_apache_lock_target (lock);

  00042	8b 45 08	 mov	 eax, DWORD PTR _lock$[ebp]
  00045	50		 push	 eax
  00046	e8 00 00 00 00	 call	 ?set_apache_lock_target@@YGXH@Z ; set_apache_lock_target

; 489  : 
; 490  : 			break;

  0004b	eb 6c		 jmp	 SHORT $LN1@set_common
$LN6@set_common:

; 491  : 		}
; 492  : 		case GUNSHIP_TYPE_HAVOC:
; 493  : 		{
; 494  : 			set_havoc_lock_target (lock);

  0004d	8b 45 08	 mov	 eax, DWORD PTR _lock$[ebp]
  00050	50		 push	 eax
  00051	e8 00 00 00 00	 call	 ?set_havoc_lock_target@@YGXH@Z ; set_havoc_lock_target

; 495  : 
; 496  : 			break;

  00056	eb 61		 jmp	 SHORT $LN1@set_common
$LN7@set_common:

; 497  : 		}
; 498  : 		case GUNSHIP_TYPE_COMANCHE:
; 499  : 		{
; 500  : 			set_comanche_lock_target (lock);

  00058	8b 45 08	 mov	 eax, DWORD PTR _lock$[ebp]
  0005b	50		 push	 eax
  0005c	e8 00 00 00 00	 call	 ?set_comanche_lock_target@@YGXH@Z ; set_comanche_lock_target

; 501  : 
; 502  : 			break;

  00061	eb 56		 jmp	 SHORT $LN1@set_common
$LN8@set_common:

; 503  : 		}
; 504  : 		case GUNSHIP_TYPE_HOKUM:
; 505  : 		{
; 506  : 			set_hokum_lock_target (lock);

  00063	8b 45 08	 mov	 eax, DWORD PTR _lock$[ebp]
  00066	50		 push	 eax
  00067	e8 00 00 00 00	 call	 ?set_hokum_lock_target@@YGXH@Z ; set_hokum_lock_target

; 507  : 
; 508  : 			break;

  0006c	eb 4b		 jmp	 SHORT $LN1@set_common
$LN9@set_common:

; 509  : 		}
; 510  : 		////Moje 030519 Start
; 511  : 		case GUNSHIP_TYPE_BLACKHAWK:
; 512  : 		{
; 513  : 			set_blackhawk_lock_target (lock);

  0006e	8b 45 08	 mov	 eax, DWORD PTR _lock$[ebp]
  00071	50		 push	 eax
  00072	e8 00 00 00 00	 call	 ?set_blackhawk_lock_target@@YGXH@Z ; set_blackhawk_lock_target

; 514  : 
; 515  : 			break;

  00077	eb 40		 jmp	 SHORT $LN1@set_common
$LN10@set_common:

; 516  : 		}
; 517  : 		////Moje 030519 End
; 518  : 		////Moje 030612 start
; 519  : 		case GUNSHIP_TYPE_HIND:
; 520  : 		{
; 521  : 			set_hind_lock_target (lock);

  00079	8b 45 08	 mov	 eax, DWORD PTR _lock$[ebp]
  0007c	50		 push	 eax
  0007d	e8 00 00 00 00	 call	 ?set_hind_lock_target@@YGXH@Z ; set_hind_lock_target

; 522  : 
; 523  : 			break;

  00082	eb 35		 jmp	 SHORT $LN1@set_common
$LN11@set_common:

; 524  : 		}
; 525  : 		////Moje 030612 end
; 526  : 		////Moje 030816 Start
; 527  : 		case GUNSHIP_TYPE_AH64A:
; 528  : 		{
; 529  : 			set_ah64a_lock_target (lock);

  00084	8b 45 08	 mov	 eax, DWORD PTR _lock$[ebp]
  00087	50		 push	 eax
  00088	e8 00 00 00 00	 call	 ?set_ah64a_lock_target@@YGXH@Z ; set_ah64a_lock_target

; 530  : 
; 531  : 			break;

  0008d	eb 2a		 jmp	 SHORT $LN1@set_common
$LN12@set_common:

; 532  : 		}
; 533  : 		case GUNSHIP_TYPE_KA50:
; 534  : 		{
; 535  : 			set_ka50_lock_target (lock);

  0008f	8b 45 08	 mov	 eax, DWORD PTR _lock$[ebp]
  00092	50		 push	 eax
  00093	e8 00 00 00 00	 call	 ?set_ka50_lock_target@@YGXH@Z ; set_ka50_lock_target

; 536  : 			break;

  00098	eb 1f		 jmp	 SHORT $LN1@set_common
$LN13@set_common:

; 537  : 		}
; 538  : 		////Moje 030816 end
; 539  : 		case GUNSHIP_TYPE_VIPER:
; 540  : 		{
; 541  : 			set_viper_lock_target (lock);

  0009a	8b 45 08	 mov	 eax, DWORD PTR _lock$[ebp]
  0009d	50		 push	 eax
  0009e	e8 00 00 00 00	 call	 ?set_viper_lock_target@@YGXH@Z ; set_viper_lock_target

; 542  : 
; 543  : 			break;

  000a3	eb 14		 jmp	 SHORT $LN1@set_common
$LN14@set_common:

; 544  : 		}
; 545  : 
; 546  : 		case GUNSHIP_TYPE_KIOWA:
; 547  : 		{
; 548  : 			set_kiowa_lock_target (lock);

  000a5	8b 45 08	 mov	 eax, DWORD PTR _lock$[ebp]
  000a8	50		 push	 eax
  000a9	e8 00 00 00 00	 call	 ?set_kiowa_lock_target@@YGXH@Z ; set_kiowa_lock_target

; 549  : 
; 550  : 			break;

  000ae	eb 09		 jmp	 SHORT $LN1@set_common
$LN15@set_common:

; 551  : 		}
; 552  : 
; 553  : 		//  GCsDriver  08-12-2007
; 554  : 		default:
; 555  : 		{
; 556  : 			set_default_lock_target (lock);

  000b0	8b 45 08	 mov	 eax, DWORD PTR _lock$[ebp]
  000b3	50		 push	 eax
  000b4	e8 00 00 00 00	 call	 ?set_default_lock_target@@YGXH@Z ; set_default_lock_target
$LN1@set_common:

; 557  : 
; 558  : 			break;
; 559  : 		}
; 560  : 
; 561  : 	}
; 562  : }

  000b9	5f		 pop	 edi
  000ba	5e		 pop	 esi
  000bb	5b		 pop	 ebx
  000bc	8b e5		 mov	 esp, ebp
  000be	5d		 pop	 ebp
  000bf	c2 04 00	 ret	 4
  000c2	66 90		 npad	 2
$LN17@set_common:
  000c4	00 00 00 00	 DD	 $LN5@set_common
  000c8	00 00 00 00	 DD	 $LN6@set_common
  000cc	00 00 00 00	 DD	 $LN7@set_common
  000d0	00 00 00 00	 DD	 $LN8@set_common
  000d4	00 00 00 00	 DD	 $LN9@set_common
  000d8	00 00 00 00	 DD	 $LN10@set_common
  000dc	00 00 00 00	 DD	 $LN11@set_common
  000e0	00 00 00 00	 DD	 $LN12@set_common
  000e4	00 00 00 00	 DD	 $LN13@set_common
  000e8	00 00 00 00	 DD	 $LN14@set_common
?set_common_target_acquisition_system_lock_target@@YGXH@Z ENDP ; set_common_target_acquisition_system_lock_target
_TEXT	ENDS
; Function compile flags: /Odtp /ZI
; File c:\users\nhv90\projects\eech\aphavoc\source\gunships\avionics\common\co_tgt.c
;	COMDAT ?reset_common_target_acquisition_system_keys@@YGXXZ
_TEXT	SEGMENT
?reset_common_target_acquisition_system_keys@@YGXXZ PROC ; reset_common_target_acquisition_system_keys, COMDAT

; 424  : {

  00000	55		 push	 ebp
  00001	8b ec		 mov	 ebp, esp
  00003	83 ec 40	 sub	 esp, 64			; 00000040H
  00006	53		 push	 ebx
  00007	56		 push	 esi
  00008	57		 push	 edi

; 425  : 	continuous_target_acquisition_system_steer_left_key						= FALSE;

  00009	c7 05 00 00 00
	00 00 00 00 00	 mov	 DWORD PTR ?continuous_target_acquisition_system_steer_left_key@@3HA, 0 ; continuous_target_acquisition_system_steer_left_key

; 426  : 	continuous_target_acquisition_system_steer_right_key						= FALSE;

  00013	c7 05 00 00 00
	00 00 00 00 00	 mov	 DWORD PTR ?continuous_target_acquisition_system_steer_right_key@@3HA, 0 ; continuous_target_acquisition_system_steer_right_key

; 427  : 	continuous_target_acquisition_system_steer_up_key							= FALSE;

  0001d	c7 05 00 00 00
	00 00 00 00 00	 mov	 DWORD PTR ?continuous_target_acquisition_system_steer_up_key@@3HA, 0 ; continuous_target_acquisition_system_steer_up_key

; 428  : 	continuous_target_acquisition_system_steer_down_key						= FALSE;

  00027	c7 05 00 00 00
	00 00 00 00 00	 mov	 DWORD PTR ?continuous_target_acquisition_system_steer_down_key@@3HA, 0 ; continuous_target_acquisition_system_steer_down_key

; 429  : 
; 430  : 	single_target_acquisition_system_steer_left_key								= 0;

  00031	c7 05 00 00 00
	00 00 00 00 00	 mov	 DWORD PTR ?single_target_acquisition_system_steer_left_key@@3HA, 0 ; single_target_acquisition_system_steer_left_key

; 431  : 	single_target_acquisition_system_steer_right_key							= 0;

  0003b	c7 05 00 00 00
	00 00 00 00 00	 mov	 DWORD PTR ?single_target_acquisition_system_steer_right_key@@3HA, 0 ; single_target_acquisition_system_steer_right_key

; 432  : 	single_target_acquisition_system_steer_up_key								= 0;

  00045	c7 05 00 00 00
	00 00 00 00 00	 mov	 DWORD PTR ?single_target_acquisition_system_steer_up_key@@3HA, 0 ; single_target_acquisition_system_steer_up_key

; 433  : 	single_target_acquisition_system_steer_down_key								= 0;

  0004f	c7 05 00 00 00
	00 00 00 00 00	 mov	 DWORD PTR ?single_target_acquisition_system_steer_down_key@@3HA, 0 ; single_target_acquisition_system_steer_down_key

; 434  : 	single_target_acquisition_system_inc_range_key								= 0;

  00059	c7 05 00 00 00
	00 00 00 00 00	 mov	 DWORD PTR ?single_target_acquisition_system_inc_range_key@@3HA, 0 ; single_target_acquisition_system_inc_range_key

; 435  : 	single_target_acquisition_system_dec_range_key								= 0;

  00063	c7 05 00 00 00
	00 00 00 00 00	 mov	 DWORD PTR ?single_target_acquisition_system_dec_range_key@@3HA, 0 ; single_target_acquisition_system_dec_range_key

; 436  : 	single_target_acquisition_system_inc_target_priority_key					= 0;

  0006d	c7 05 00 00 00
	00 00 00 00 00	 mov	 DWORD PTR ?single_target_acquisition_system_inc_target_priority_key@@3HA, 0 ; single_target_acquisition_system_inc_target_priority_key

; 437  : 	single_target_acquisition_system_dec_target_priority_key					= 0;

  00077	c7 05 00 00 00
	00 00 00 00 00	 mov	 DWORD PTR ?single_target_acquisition_system_dec_target_priority_key@@3HA, 0 ; single_target_acquisition_system_dec_target_priority_key

; 438  : 	single_target_acquisition_system_select_next_target_key					= 0;

  00081	c7 05 00 00 00
	00 00 00 00 00	 mov	 DWORD PTR ?single_target_acquisition_system_select_next_target_key@@3HA, 0 ; single_target_acquisition_system_select_next_target_key

; 439  : 	single_target_acquisition_system_select_previous_target_key				= 0;

  0008b	c7 05 00 00 00
	00 00 00 00 00	 mov	 DWORD PTR ?single_target_acquisition_system_select_previous_target_key@@3HA, 0 ; single_target_acquisition_system_select_previous_target_key

; 440  : 	single_target_acquisition_system_select_next_designated_key					= 0;

  00095	c7 05 00 00 00
	00 00 00 00 00	 mov	 DWORD PTR ?single_target_acquisition_system_select_next_designated_key@@3HA, 0 ; single_target_acquisition_system_select_next_designated_key

; 441  : 	single_target_acquisition_system_select_previous_designated_key				= 0;

  0009f	c7 05 00 00 00
	00 00 00 00 00	 mov	 DWORD PTR ?single_target_acquisition_system_select_previous_designated_key@@3HA, 0 ; single_target_acquisition_system_select_previous_designated_key

; 442  : 
; 443  : 
; 444  : 	continuous_target_acquisition_system_steer_left_fast_key					= FALSE;

  000a9	c7 05 00 00 00
	00 00 00 00 00	 mov	 DWORD PTR ?continuous_target_acquisition_system_steer_left_fast_key@@3HA, 0 ; continuous_target_acquisition_system_steer_left_fast_key

; 445  : 	continuous_target_acquisition_system_steer_right_fast_key				= FALSE;

  000b3	c7 05 00 00 00
	00 00 00 00 00	 mov	 DWORD PTR ?continuous_target_acquisition_system_steer_right_fast_key@@3HA, 0 ; continuous_target_acquisition_system_steer_right_fast_key

; 446  : 	continuous_target_acquisition_system_steer_up_fast_key					= FALSE;

  000bd	c7 05 00 00 00
	00 00 00 00 00	 mov	 DWORD PTR ?continuous_target_acquisition_system_steer_up_fast_key@@3HA, 0 ; continuous_target_acquisition_system_steer_up_fast_key

; 447  : 	continuous_target_acquisition_system_steer_down_fast_key					= FALSE;

  000c7	c7 05 00 00 00
	00 00 00 00 00	 mov	 DWORD PTR ?continuous_target_acquisition_system_steer_down_fast_key@@3HA, 0 ; continuous_target_acquisition_system_steer_down_fast_key

; 448  : 
; 449  : 	single_target_acquisition_system_steer_left_fast_key						= 0;

  000d1	c7 05 00 00 00
	00 00 00 00 00	 mov	 DWORD PTR ?single_target_acquisition_system_steer_left_fast_key@@3HA, 0 ; single_target_acquisition_system_steer_left_fast_key

; 450  : 	single_target_acquisition_system_steer_right_fast_key						= 0;

  000db	c7 05 00 00 00
	00 00 00 00 00	 mov	 DWORD PTR ?single_target_acquisition_system_steer_right_fast_key@@3HA, 0 ; single_target_acquisition_system_steer_right_fast_key

; 451  : 	single_target_acquisition_system_steer_up_fast_key							= 0;

  000e5	c7 05 00 00 00
	00 00 00 00 00	 mov	 DWORD PTR ?single_target_acquisition_system_steer_up_fast_key@@3HA, 0 ; single_target_acquisition_system_steer_up_fast_key

; 452  : 	single_target_acquisition_system_steer_down_fast_key						= 0;

  000ef	c7 05 00 00 00
	00 00 00 00 00	 mov	 DWORD PTR ?single_target_acquisition_system_steer_down_fast_key@@3HA, 0 ; single_target_acquisition_system_steer_down_fast_key

; 453  : 	single_target_acquisition_system_inc_range_fast_key						= 0;

  000f9	c7 05 00 00 00
	00 00 00 00 00	 mov	 DWORD PTR ?single_target_acquisition_system_inc_range_fast_key@@3HA, 0 ; single_target_acquisition_system_inc_range_fast_key

; 454  : 	single_target_acquisition_system_dec_range_fast_key						= 0;

  00103	c7 05 00 00 00
	00 00 00 00 00	 mov	 DWORD PTR ?single_target_acquisition_system_dec_range_fast_key@@3HA, 0 ; single_target_acquisition_system_dec_range_fast_key

; 455  : 	single_target_acquisition_system_inc_target_priority_fast_key			= 0;

  0010d	c7 05 00 00 00
	00 00 00 00 00	 mov	 DWORD PTR ?single_target_acquisition_system_inc_target_priority_fast_key@@3HA, 0 ; single_target_acquisition_system_inc_target_priority_fast_key

; 456  : 	single_target_acquisition_system_dec_target_priority_fast_key			= 0;

  00117	c7 05 00 00 00
	00 00 00 00 00	 mov	 DWORD PTR ?single_target_acquisition_system_dec_target_priority_fast_key@@3HA, 0 ; single_target_acquisition_system_dec_target_priority_fast_key

; 457  : 
; 458  : 	continuous_target_acquisition_system_steer_left_fine_key					= FALSE;

  00121	c7 05 00 00 00
	00 00 00 00 00	 mov	 DWORD PTR ?continuous_target_acquisition_system_steer_left_fine_key@@3HA, 0 ; continuous_target_acquisition_system_steer_left_fine_key

; 459  : 	continuous_target_acquisition_system_steer_right_fine_key 				= FALSE;

  0012b	c7 05 00 00 00
	00 00 00 00 00	 mov	 DWORD PTR ?continuous_target_acquisition_system_steer_right_fine_key@@3HA, 0 ; continuous_target_acquisition_system_steer_right_fine_key

; 460  : 	continuous_target_acquisition_system_steer_up_fine_key					= FALSE;

  00135	c7 05 00 00 00
	00 00 00 00 00	 mov	 DWORD PTR ?continuous_target_acquisition_system_steer_up_fine_key@@3HA, 0 ; continuous_target_acquisition_system_steer_up_fine_key

; 461  : 	continuous_target_acquisition_system_steer_down_fine_key					= FALSE;

  0013f	c7 05 00 00 00
	00 00 00 00 00	 mov	 DWORD PTR ?continuous_target_acquisition_system_steer_down_fine_key@@3HA, 0 ; continuous_target_acquisition_system_steer_down_fine_key

; 462  : 
; 463  : 	toggle_ground_stabilisation_key													= 0;

  00149	c7 05 00 00 00
	00 00 00 00 00	 mov	 DWORD PTR ?toggle_ground_stabilisation_key@@3HA, 0 ; toggle_ground_stabilisation_key

; 464  : 	
; 465  : 	// Jabberwock 030930 Mouse functions
; 466  : 	mouse_move_left															= 0;

  00153	c7 05 00 00 00
	00 00 00 00 00	 mov	 DWORD PTR ?mouse_move_left@@3HA, 0 ; mouse_move_left

; 467  : 	mouse_move_right														= 0;

  0015d	c7 05 00 00 00
	00 00 00 00 00	 mov	 DWORD PTR ?mouse_move_right@@3HA, 0 ; mouse_move_right

; 468  : 	mouse_move_up															= 0;

  00167	c7 05 00 00 00
	00 00 00 00 00	 mov	 DWORD PTR ?mouse_move_up@@3HA, 0 ; mouse_move_up

; 469  : 	mouse_move_down															= 0;

  00171	c7 05 00 00 00
	00 00 00 00 00	 mov	 DWORD PTR ?mouse_move_down@@3HA, 0 ; mouse_move_down

; 470  : 	mouse_wheel_up															= 0; 

  0017b	c7 05 00 00 00
	00 00 00 00 00	 mov	 DWORD PTR ?mouse_wheel_up@@3HA, 0 ; mouse_wheel_up

; 471  : 	mouse_wheel_down														= 0;

  00185	c7 05 00 00 00
	00 00 00 00 00	 mov	 DWORD PTR ?mouse_wheel_down@@3HA, 0 ; mouse_wheel_down

; 472  : }

  0018f	5f		 pop	 edi
  00190	5e		 pop	 esi
  00191	5b		 pop	 ebx
  00192	8b e5		 mov	 esp, ebp
  00194	5d		 pop	 ebp
  00195	c3		 ret	 0
?reset_common_target_acquisition_system_keys@@YGXXZ ENDP ; reset_common_target_acquisition_system_keys
_TEXT	ENDS
; Function compile flags: /Odtp /ZI
; File c:\users\nhv90\projects\eech\aphavoc\source\gunships\avionics\common\co_tgt.c
;	COMDAT ?update_common_target_acquisition_systems@@YGXXZ
_TEXT	SEGMENT
?update_common_target_acquisition_systems@@YGXXZ PROC	; update_common_target_acquisition_systems, COMDAT

; 411  : {

  00000	55		 push	 ebp
  00001	8b ec		 mov	 ebp, esp
  00003	83 ec 40	 sub	 esp, 64			; 00000040H
  00006	53		 push	 ebx
  00007	56		 push	 esi
  00008	57		 push	 edi

; 412  : 	update_common_hud ();

  00009	e8 00 00 00 00	 call	 ?update_common_hud@@YGXXZ ; update_common_hud

; 413  : 
; 414  : 	update_gunship_target_list ();

  0000e	e8 00 00 00 00	 call	 ?update_gunship_target_list@@YGXXZ ; update_gunship_target_list

; 415  : 
; 416  : 	update_cpg_identify_target ();

  00013	e8 00 00 00 00	 call	 ?update_cpg_identify_target@@YGXXZ ; update_cpg_identify_target

; 417  : }

  00018	5f		 pop	 edi
  00019	5e		 pop	 esi
  0001a	5b		 pop	 ebx
  0001b	8b e5		 mov	 esp, ebp
  0001d	5d		 pop	 ebp
  0001e	c3		 ret	 0
?update_common_target_acquisition_systems@@YGXXZ ENDP	; update_common_target_acquisition_systems
_TEXT	ENDS
; Function compile flags: /Odtp /ZI
; File c:\users\nhv90\projects\eech\aphavoc\source\gunships\avionics\common\co_tgt.c
;	COMDAT ?deinitialise_common_target_acquisition_systems@@YGXXZ
_TEXT	SEGMENT
?deinitialise_common_target_acquisition_systems@@YGXXZ PROC ; deinitialise_common_target_acquisition_systems, COMDAT

; 229  : {

  00000	55		 push	 ebp
  00001	8b ec		 mov	 ebp, esp
  00003	83 ec 40	 sub	 esp, 64			; 00000040H
  00006	53		 push	 ebx
  00007	56		 push	 esi
  00008	57		 push	 edi

; 230  : 	//
; 231  : 	// unlink targets
; 232  : 	//
; 233  : 
; 234  : 	set_gunship_target (NULL);

  00009	6a 00		 push	 0
  0000b	e8 00 00 00 00	 call	 ?set_gunship_target@@YGXPAUENTITY@@@Z ; set_gunship_target

; 235  : 
; 236  : 	unlink_local_entity_children (get_gunship_entity (), LIST_TYPE_GUNSHIP_TARGET);

  00010	6a 12		 push	 18			; 00000012H
  00012	a1 00 00 00 00	 mov	 eax, DWORD PTR ?gunship_entity@@3PAUENTITY@@A ; gunship_entity
  00017	50		 push	 eax
  00018	e8 00 00 00 00	 call	 ?unlink_local_entity_children@@YGXPAUENTITY@@W4LIST_TYPES@@@Z ; unlink_local_entity_children

; 237  : 	
; 238  : 	unlink_local_entity_children (get_gunship_entity (), LIST_TYPE_DESIGNATED_TARGET); // Jabberwock Designated targets

  0001d	6a 0a		 push	 10			; 0000000aH
  0001f	a1 00 00 00 00	 mov	 eax, DWORD PTR ?gunship_entity@@3PAUENTITY@@A ; gunship_entity
  00024	50		 push	 eax
  00025	e8 00 00 00 00	 call	 ?unlink_local_entity_children@@YGXPAUENTITY@@W4LIST_TYPES@@@Z ; unlink_local_entity_children

; 239  : 
; 240  : 	//
; 241  : 	// deinitialise sensors
; 242  : 	//
; 243  : 
; 244  : 	deinitialise_common_radar ();

  0002a	e8 00 00 00 00	 call	 ?deinitialise_common_radar@@YGXXZ ; deinitialise_common_radar

; 245  : 
; 246  : 	deinitialise_common_eo ();

  0002f	e8 00 00 00 00	 call	 ?deinitialise_common_eo@@YGXXZ ; deinitialise_common_eo

; 247  : 
; 248  : 	deinitialise_common_hms ();

  00034	e8 00 00 00 00	 call	 ?deinitialise_common_hms@@YGXXZ ; deinitialise_common_hms

; 249  : }

  00039	5f		 pop	 edi
  0003a	5e		 pop	 esi
  0003b	5b		 pop	 ebx
  0003c	8b e5		 mov	 esp, ebp
  0003e	5d		 pop	 ebp
  0003f	c3		 ret	 0
?deinitialise_common_target_acquisition_systems@@YGXXZ ENDP ; deinitialise_common_target_acquisition_systems
_TEXT	ENDS
; Function compile flags: /Odtp /ZI
; File c:\users\nhv90\projects\eech\aphavoc\source\gunships\avionics\common\co_tgt.c
;	COMDAT ?initialise_common_target_acquisition_systems@@YGXXZ
_TEXT	SEGMENT
?initialise_common_target_acquisition_systems@@YGXXZ PROC ; initialise_common_target_acquisition_systems, COMDAT

; 180  : {

  00000	55		 push	 ebp
  00001	8b ec		 mov	 ebp, esp
  00003	83 ec 40	 sub	 esp, 64			; 00000040H
  00006	53		 push	 ebx
  00007	56		 push	 esi
  00008	57		 push	 edi

; 181  : 	set_gunship_target (NULL);

  00009	6a 00		 push	 0
  0000b	e8 00 00 00 00	 call	 ?set_gunship_target@@YGXPAUENTITY@@@Z ; set_gunship_target

; 182  : 
; 183  : 	target_acquisition_system = TARGET_ACQUISITION_SYSTEM_OFF;

  00010	c7 05 00 00 00
	00 00 00 00 00	 mov	 DWORD PTR ?target_acquisition_system@@3W4TARGET_ACQUISITION_SYSTEMS@@A, 0 ; target_acquisition_system

; 184  : 
; 185  : 	target_locked = FALSE;

  0001a	c7 05 00 00 00
	00 00 00 00 00	 mov	 DWORD PTR ?target_locked@@3HA, 0 ; target_locked

; 186  : 
; 187  : 	cpg_identify_target_delay = 0.0;

  00024	0f 57 c0	 xorps	 xmm0, xmm0
  00027	f3 0f 11 05 00
	00 00 00	 movss	 DWORD PTR ?cpg_identify_target_delay@@3MA, xmm0

; 188  : 
; 189  : 	weapon_lock_type = WEAPON_LOCK_NO_ACQUIRE;

  0002f	c7 05 00 00 00
	00 00 00 00 00	 mov	 DWORD PTR ?weapon_lock_type@@3W4WEAPON_LOCK_TYPES@@A, 0 ; weapon_lock_type

; 190  : 
; 191  : 	reset_common_target_acquisition_system_keys ();

  00039	e8 00 00 00 00	 call	 ?reset_common_target_acquisition_system_keys@@YGXXZ ; reset_common_target_acquisition_system_keys

; 192  : 
; 193  : 	initialise_common_radar ();

  0003e	e8 00 00 00 00	 call	 ?initialise_common_radar@@YGXXZ ; initialise_common_radar

; 194  : 
; 195  : 	initialise_common_eo ();

  00043	e8 00 00 00 00	 call	 ?initialise_common_eo@@YGXXZ ; initialise_common_eo

; 196  : 
; 197  : 	initialise_common_hms ();

  00048	e8 00 00 00 00	 call	 ?initialise_common_hms@@YGXXZ ; initialise_common_hms

; 198  : 
; 199  : 	#if DEBUG_MODULE
; 200  : 
; 201  : 	debug_colour_watch (DEBUG_COLOUR_AMBER, "target_acquisition_system = %d", MT_INT, &target_acquisition_system);
; 202  : 
; 203  : 	debug_colour_watch (DEBUG_COLOUR_AMBER, "target_locked = %d", MT_INT, &target_locked);
; 204  : 
; 205  : 	debug_colour_watch (DEBUG_COLOUR_AMBER, "ground_radar.target_locked = %d", MT_INT, &ground_radar.target_locked);
; 206  : 
; 207  : 	debug_colour_watch (DEBUG_COLOUR_AMBER, "air_radar.target_locked = %d", MT_INT, &air_radar.target_locked);
; 208  : 
; 209  : 	debug_colour_watch (DEBUG_COLOUR_AMBER, "eo_target_locked = %d", MT_INT, &eo_target_locked);
; 210  : 
; 211  : 	debug_colour_watch (DEBUG_COLOUR_AMBER, "eo_on_target = %d", MT_INT, &eo_on_target);
; 212  : 
; 213  : 	debug_colour_watch (DEBUG_COLOUR_AMBER, "eo_low_light = %d", MT_INT, &eo_low_light);
; 214  : 
; 215  : 	debug_colour_watch (DEBUG_COLOUR_AMBER, "eo_sensor = %d", MT_INT, &eo_sensor);
; 216  : 
; 217  : 	debug_colour_watch (DEBUG_COLOUR_AMBER, "hms_target_locked = %d", MT_INT, &hms_target_locked);
; 218  : 
; 219  : 	debug_colour_watch (DEBUG_COLOUR_AMBER, "cpg_identify_target_delay = %.2f", MT_FLOAT, &cpg_identify_target_delay);
; 220  : 
; 221  : 	#endif
; 222  : }

  0004d	5f		 pop	 edi
  0004e	5e		 pop	 esi
  0004f	5b		 pop	 ebx
  00050	8b e5		 mov	 esp, ebp
  00052	5d		 pop	 ebp
  00053	c3		 ret	 0
?initialise_common_target_acquisition_systems@@YGXXZ ENDP ; initialise_common_target_acquisition_systems
_TEXT	ENDS
; Function compile flags: /Odtp /ZI
; File c:\program files (x86)\windows kits\10\include\10.0.18362.0\ucrt\stdio.h
;	COMDAT _sprintf
_TEXT	SEGMENT
__ArgList$ = -8						; size = 4
__Result$ = -4						; size = 4
__Buffer$ = 8						; size = 4
__Format$ = 12						; size = 4
_sprintf PROC						; COMDAT

; 1781 :     {

  00000	55		 push	 ebp
  00001	8b ec		 mov	 ebp, esp
  00003	83 ec 4c	 sub	 esp, 76			; 0000004cH
  00006	53		 push	 ebx
  00007	56		 push	 esi
  00008	57		 push	 edi

; 1782 :         int _Result;
; 1783 :         va_list _ArgList;
; 1784 :         __crt_va_start(_ArgList, _Format);

  00009	8d 45 10	 lea	 eax, DWORD PTR __Format$[ebp+4]
  0000c	89 45 f8	 mov	 DWORD PTR __ArgList$[ebp], eax

; 1785 : 
; 1786 :         #pragma warning(push)
; 1787 :         #pragma warning(disable: 4996) // Deprecation
; 1788 :         _Result = _vsprintf_l(_Buffer, _Format, NULL, _ArgList);

  0000f	8b 45 f8	 mov	 eax, DWORD PTR __ArgList$[ebp]
  00012	50		 push	 eax
  00013	6a 00		 push	 0
  00015	8b 4d 0c	 mov	 ecx, DWORD PTR __Format$[ebp]
  00018	51		 push	 ecx
  00019	8b 55 08	 mov	 edx, DWORD PTR __Buffer$[ebp]
  0001c	52		 push	 edx
  0001d	e8 00 00 00 00	 call	 __vsprintf_l
  00022	83 c4 10	 add	 esp, 16			; 00000010H
  00025	89 45 fc	 mov	 DWORD PTR __Result$[ebp], eax

; 1789 :         #pragma warning(pop)
; 1790 : 
; 1791 :         __crt_va_end(_ArgList);

  00028	c7 45 f8 00 00
	00 00		 mov	 DWORD PTR __ArgList$[ebp], 0

; 1792 :         return _Result;

  0002f	8b 45 fc	 mov	 eax, DWORD PTR __Result$[ebp]

; 1793 :     }

  00032	5f		 pop	 edi
  00033	5e		 pop	 esi
  00034	5b		 pop	 ebx
  00035	8b e5		 mov	 esp, ebp
  00037	5d		 pop	 ebp
  00038	c3		 ret	 0
_sprintf ENDP
_TEXT	ENDS
; Function compile flags: /Odtp /ZI
; File c:\program files (x86)\windows kits\10\include\10.0.18362.0\ucrt\stdio.h
;	COMDAT __vsprintf_l
_TEXT	SEGMENT
__Buffer$ = 8						; size = 4
__Format$ = 12						; size = 4
__Locale$ = 16						; size = 4
__ArgList$ = 20						; size = 4
__vsprintf_l PROC					; COMDAT

; 1459 :     {

  00000	55		 push	 ebp
  00001	8b ec		 mov	 ebp, esp
  00003	83 ec 40	 sub	 esp, 64			; 00000040H
  00006	53		 push	 ebx
  00007	56		 push	 esi
  00008	57		 push	 edi

; 1460 :         #pragma warning(push)
; 1461 :         #pragma warning(disable: 4996) // Deprecation
; 1462 :         return _vsnprintf_l(_Buffer, (size_t)-1, _Format, _Locale, _ArgList);

  00009	8b 45 14	 mov	 eax, DWORD PTR __ArgList$[ebp]
  0000c	50		 push	 eax
  0000d	8b 4d 10	 mov	 ecx, DWORD PTR __Locale$[ebp]
  00010	51		 push	 ecx
  00011	8b 55 0c	 mov	 edx, DWORD PTR __Format$[ebp]
  00014	52		 push	 edx
  00015	6a ff		 push	 -1
  00017	8b 45 08	 mov	 eax, DWORD PTR __Buffer$[ebp]
  0001a	50		 push	 eax
  0001b	e8 00 00 00 00	 call	 __vsnprintf_l
  00020	83 c4 14	 add	 esp, 20			; 00000014H

; 1463 :         #pragma warning(pop)
; 1464 :     }

  00023	5f		 pop	 edi
  00024	5e		 pop	 esi
  00025	5b		 pop	 ebx
  00026	8b e5		 mov	 esp, ebp
  00028	5d		 pop	 ebp
  00029	c3		 ret	 0
__vsprintf_l ENDP
_TEXT	ENDS
; Function compile flags: /Odtp /ZI
; File c:\program files (x86)\windows kits\10\include\10.0.18362.0\ucrt\stdio.h
;	COMDAT __vsnprintf_l
_TEXT	SEGMENT
tv74 = -72						; size = 4
__Result$ = -4						; size = 4
__Buffer$ = 8						; size = 4
__BufferCount$ = 12					; size = 4
__Format$ = 16						; size = 4
__Locale$ = 20						; size = 4
__ArgList$ = 24						; size = 4
__vsnprintf_l PROC					; COMDAT

; 1389 :     {

  00000	55		 push	 ebp
  00001	8b ec		 mov	 ebp, esp
  00003	83 ec 48	 sub	 esp, 72			; 00000048H
  00006	53		 push	 ebx
  00007	56		 push	 esi
  00008	57		 push	 edi

; 1390 :         int const _Result = __stdio_common_vsprintf(

  00009	8b 45 18	 mov	 eax, DWORD PTR __ArgList$[ebp]
  0000c	50		 push	 eax
  0000d	8b 4d 14	 mov	 ecx, DWORD PTR __Locale$[ebp]
  00010	51		 push	 ecx
  00011	8b 55 10	 mov	 edx, DWORD PTR __Format$[ebp]
  00014	52		 push	 edx
  00015	8b 45 0c	 mov	 eax, DWORD PTR __BufferCount$[ebp]
  00018	50		 push	 eax
  00019	8b 4d 08	 mov	 ecx, DWORD PTR __Buffer$[ebp]
  0001c	51		 push	 ecx
  0001d	e8 00 00 00 00	 call	 ___local_stdio_printf_options
  00022	8b 10		 mov	 edx, DWORD PTR [eax]
  00024	83 ca 01	 or	 edx, 1
  00027	8b 40 04	 mov	 eax, DWORD PTR [eax+4]
  0002a	50		 push	 eax
  0002b	52		 push	 edx
  0002c	ff 15 00 00 00
	00		 call	 DWORD PTR __imp____stdio_common_vsprintf
  00032	83 c4 1c	 add	 esp, 28			; 0000001cH
  00035	89 45 fc	 mov	 DWORD PTR __Result$[ebp], eax

; 1391 :             _CRT_INTERNAL_LOCAL_PRINTF_OPTIONS | _CRT_INTERNAL_PRINTF_LEGACY_VSPRINTF_NULL_TERMINATION,
; 1392 :             _Buffer, _BufferCount, _Format, _Locale, _ArgList);
; 1393 : 
; 1394 :         return _Result < 0 ? -1 : _Result;

  00038	83 7d fc 00	 cmp	 DWORD PTR __Result$[ebp], 0
  0003c	7d 09		 jge	 SHORT $LN3@vsnprintf_
  0003e	c7 45 b8 ff ff
	ff ff		 mov	 DWORD PTR tv74[ebp], -1
  00045	eb 06		 jmp	 SHORT $LN4@vsnprintf_
$LN3@vsnprintf_:
  00047	8b 45 fc	 mov	 eax, DWORD PTR __Result$[ebp]
  0004a	89 45 b8	 mov	 DWORD PTR tv74[ebp], eax
$LN4@vsnprintf_:
  0004d	8b 45 b8	 mov	 eax, DWORD PTR tv74[ebp]

; 1395 :     }

  00050	5f		 pop	 edi
  00051	5e		 pop	 esi
  00052	5b		 pop	 ebx
  00053	8b e5		 mov	 esp, ebp
  00055	5d		 pop	 ebp
  00056	c3		 ret	 0
__vsnprintf_l ENDP
_TEXT	ENDS
; Function compile flags: /Odtp /ZI
; File c:\program files (x86)\windows kits\10\include\10.0.18362.0\ucrt\corecrt_stdio_config.h
;	COMDAT ___local_stdio_printf_options
_TEXT	SEGMENT
___local_stdio_printf_options PROC			; COMDAT

; 86   :     {

  00000	55		 push	 ebp
  00001	8b ec		 mov	 ebp, esp
  00003	83 ec 40	 sub	 esp, 64			; 00000040H
  00006	53		 push	 ebx
  00007	56		 push	 esi
  00008	57		 push	 edi

; 87   :         static unsigned __int64 _OptionsStorage;
; 88   :         return &_OptionsStorage;

  00009	b8 00 00 00 00	 mov	 eax, OFFSET ?_OptionsStorage@?1??__local_stdio_printf_options@@9@4_KA ; `__local_stdio_printf_options'::`2'::_OptionsStorage

; 89   :     }

  0000e	5f		 pop	 edi
  0000f	5e		 pop	 esi
  00010	5b		 pop	 ebx
  00011	8b e5		 mov	 esp, ebp
  00013	5d		 pop	 ebp
  00014	c3		 ret	 0
___local_stdio_printf_options ENDP
_TEXT	ENDS
END
