; Listing generated by Microsoft (R) Optimizing Compiler Version 19.16.27045.0 

	TITLE	C:\Users\nhv90\Projects\eech\modules\graphics\colour.c
	.686P
	.XMM
	include listing.inc
	.model	flat

INCLUDELIB MSVCRTD
INCLUDELIB OLDNAMES

PUBLIC	?sys_col_black@@3UREAL_COLOUR@@A		; sys_col_black
PUBLIC	?sys_col_blue@@3UREAL_COLOUR@@A			; sys_col_blue
PUBLIC	?sys_col_green@@3UREAL_COLOUR@@A		; sys_col_green
PUBLIC	?sys_col_cyan@@3UREAL_COLOUR@@A			; sys_col_cyan
PUBLIC	?sys_col_red@@3UREAL_COLOUR@@A			; sys_col_red
PUBLIC	?sys_col_magenta@@3UREAL_COLOUR@@A		; sys_col_magenta
PUBLIC	?sys_col_yellow@@3UREAL_COLOUR@@A		; sys_col_yellow
PUBLIC	?sys_col_white@@3UREAL_COLOUR@@A		; sys_col_white
PUBLIC	?sys_col_sky_blue@@3UREAL_COLOUR@@A		; sys_col_sky_blue
PUBLIC	?sys_col_slate_grey@@3UREAL_COLOUR@@A		; sys_col_slate_grey
PUBLIC	?sys_col_forest_green@@3UREAL_COLOUR@@A		; sys_col_forest_green
PUBLIC	?sys_col_ultramarine@@3UREAL_COLOUR@@A		; sys_col_ultramarine
PUBLIC	?sys_col_seablue@@3UREAL_COLOUR@@A		; sys_col_seablue
PUBLIC	?sys_col_aquamarine@@3UREAL_COLOUR@@A		; sys_col_aquamarine
PUBLIC	?sys_col_gold@@3UREAL_COLOUR@@A			; sys_col_gold
PUBLIC	?sys_col_light_grey@@3UREAL_COLOUR@@A		; sys_col_light_grey
PUBLIC	?sys_col_light_red@@3UREAL_COLOUR@@A		; sys_col_light_red
PUBLIC	?sys_col_dark_red@@3UREAL_COLOUR@@A		; sys_col_dark_red
PUBLIC	?sys_col_dark_green@@3UREAL_COLOUR@@A		; sys_col_dark_green
PUBLIC	?sys_col_dark_blue@@3UREAL_COLOUR@@A		; sys_col_dark_blue
PUBLIC	?sys_col_medium_blue@@3UREAL_COLOUR@@A		; sys_col_medium_blue
PUBLIC	?sys_col_medium_red@@3UREAL_COLOUR@@A		; sys_col_medium_red
PUBLIC	?sys_col_sandy_brown@@3UREAL_COLOUR@@A		; sys_col_sandy_brown
PUBLIC	?sys_col_amber@@3UREAL_COLOUR@@A		; sys_col_amber
PUBLIC	?sys_col_waypoint_route@@3UREAL_COLOUR@@A	; sys_col_waypoint_route
PUBLIC	?sys_col_red_force@@3UREAL_COLOUR@@A		; sys_col_red_force
PUBLIC	?sys_col_blue_force@@3UREAL_COLOUR@@A		; sys_col_blue_force
PUBLIC	?sys_colour_table@@3PAPAUREAL_COLOUR@@A		; sys_colour_table
PUBLIC	?sys_colour_names@@3PAPBDA			; sys_colour_names
PUBLIC	??_C@_09FOBGCNCA@COL_BLACK@			; `string'
PUBLIC	??_C@_08GEKPBKEK@COL_BLUE@			; `string'
PUBLIC	??_C@_09CHJDIKNA@COL_GREEN@			; `string'
PUBLIC	??_C@_08MGNDEGDA@COL_CYAN@			; `string'
PUBLIC	??_C@_07MOBFHAAG@COL_RED@			; `string'
PUBLIC	??_C@_0M@IELMELAK@COL_MAGENTA@			; `string'
PUBLIC	??_C@_0L@CLOGBILB@COL_YELLOW@			; `string'
PUBLIC	??_C@_09LKNDKIFM@COL_WHITE@			; `string'
PUBLIC	??_C@_0N@EGEDDEIN@COL_SKY_BLUE@			; `string'
PUBLIC	??_C@_0P@INBEPPPP@COL_SLATE_GREY@		; `string'
PUBLIC	??_C@_0BB@MKNGPIPH@COL_FOREST_GREEN@		; `string'
PUBLIC	??_C@_0BA@MMMLMLJ@COL_ULTRAMARINE@		; `string'
PUBLIC	??_C@_0M@LCBMBELF@COL_SEABLUE@			; `string'
PUBLIC	??_C@_0P@KDKAPDMD@COL_AQUAMARINE@		; `string'
PUBLIC	??_C@_08LEBGJDGK@COL_GOLD@			; `string'
PUBLIC	??_C@_0P@MPJEMOCC@COL_LIGHT_GREY@		; `string'
PUBLIC	??_C@_0O@FLFJHBHP@COL_LIGHT_RED@		; `string'
PUBLIC	??_C@_0N@KIOJPCCE@COL_DARK_RED@			; `string'
PUBLIC	??_C@_0P@IDJHEIAA@COL_DARK_GREEN@		; `string'
PUBLIC	??_C@_0O@LBKJKHCM@COL_DARK_BLUE@		; `string'
PUBLIC	??_C@_0BA@PCMODDGB@COL_MEDIUM_BLUE@		; `string'
PUBLIC	??_C@_0P@KGJENFEM@COL_MEDIUM_RED@		; `string'
PUBLIC	??_C@_0BA@MLNALFLL@COL_SANDY_BROWN@		; `string'
PUBLIC	??_C@_09GINKAMHK@COL_AMBER@			; `string'
PUBLIC	??_C@_0BD@MGMPGJLE@COL_WAYPOINT_ROUTE@		; `string'
PUBLIC	??_C@_0O@JLJEOPHC@COL_RED_FORCE@		; `string'
PUBLIC	??_C@_0P@JGKMDMMB@COL_BLUE_FORCE@		; `string'
PUBLIC	??_C@_0BA@HKNEJNNF@NUM_SYS_COLOURS@		; `string'
_BSS	SEGMENT
?sys_col_black@@3UREAL_COLOUR@@A DD 01H DUP (?)		; sys_col_black
?sys_col_blue@@3UREAL_COLOUR@@A DD 01H DUP (?)		; sys_col_blue
?sys_col_green@@3UREAL_COLOUR@@A DD 01H DUP (?)		; sys_col_green
?sys_col_cyan@@3UREAL_COLOUR@@A DD 01H DUP (?)		; sys_col_cyan
?sys_col_red@@3UREAL_COLOUR@@A DD 01H DUP (?)		; sys_col_red
?sys_col_magenta@@3UREAL_COLOUR@@A DD 01H DUP (?)	; sys_col_magenta
?sys_col_yellow@@3UREAL_COLOUR@@A DD 01H DUP (?)	; sys_col_yellow
?sys_col_white@@3UREAL_COLOUR@@A DD 01H DUP (?)		; sys_col_white
?sys_col_sky_blue@@3UREAL_COLOUR@@A DD 01H DUP (?)	; sys_col_sky_blue
?sys_col_slate_grey@@3UREAL_COLOUR@@A DD 01H DUP (?)	; sys_col_slate_grey
?sys_col_forest_green@@3UREAL_COLOUR@@A DD 01H DUP (?)	; sys_col_forest_green
?sys_col_ultramarine@@3UREAL_COLOUR@@A DD 01H DUP (?)	; sys_col_ultramarine
?sys_col_seablue@@3UREAL_COLOUR@@A DD 01H DUP (?)	; sys_col_seablue
?sys_col_aquamarine@@3UREAL_COLOUR@@A DD 01H DUP (?)	; sys_col_aquamarine
?sys_col_gold@@3UREAL_COLOUR@@A DD 01H DUP (?)		; sys_col_gold
?sys_col_light_grey@@3UREAL_COLOUR@@A DD 01H DUP (?)	; sys_col_light_grey
?sys_col_light_red@@3UREAL_COLOUR@@A DD 01H DUP (?)	; sys_col_light_red
?sys_col_dark_red@@3UREAL_COLOUR@@A DD 01H DUP (?)	; sys_col_dark_red
?sys_col_dark_green@@3UREAL_COLOUR@@A DD 01H DUP (?)	; sys_col_dark_green
?sys_col_dark_blue@@3UREAL_COLOUR@@A DD 01H DUP (?)	; sys_col_dark_blue
?sys_col_medium_blue@@3UREAL_COLOUR@@A DD 01H DUP (?)	; sys_col_medium_blue
?sys_col_medium_red@@3UREAL_COLOUR@@A DD 01H DUP (?)	; sys_col_medium_red
?sys_col_sandy_brown@@3UREAL_COLOUR@@A DD 01H DUP (?)	; sys_col_sandy_brown
?sys_col_amber@@3UREAL_COLOUR@@A DD 01H DUP (?)		; sys_col_amber
?sys_col_waypoint_route@@3UREAL_COLOUR@@A DD 01H DUP (?) ; sys_col_waypoint_route
?sys_col_red_force@@3UREAL_COLOUR@@A DD 01H DUP (?)	; sys_col_red_force
?sys_col_blue_force@@3UREAL_COLOUR@@A DD 01H DUP (?)	; sys_col_blue_force
_BSS	ENDS
;	COMDAT ??_C@_0BA@HKNEJNNF@NUM_SYS_COLOURS@
CONST	SEGMENT
??_C@_0BA@HKNEJNNF@NUM_SYS_COLOURS@ DB 'NUM_SYS_COLOURS', 00H ; `string'
CONST	ENDS
;	COMDAT ??_C@_0P@JGKMDMMB@COL_BLUE_FORCE@
CONST	SEGMENT
??_C@_0P@JGKMDMMB@COL_BLUE_FORCE@ DB 'COL_BLUE_FORCE', 00H ; `string'
CONST	ENDS
;	COMDAT ??_C@_0O@JLJEOPHC@COL_RED_FORCE@
CONST	SEGMENT
??_C@_0O@JLJEOPHC@COL_RED_FORCE@ DB 'COL_RED_FORCE', 00H ; `string'
CONST	ENDS
;	COMDAT ??_C@_0BD@MGMPGJLE@COL_WAYPOINT_ROUTE@
CONST	SEGMENT
??_C@_0BD@MGMPGJLE@COL_WAYPOINT_ROUTE@ DB 'COL_WAYPOINT_ROUTE', 00H ; `string'
CONST	ENDS
;	COMDAT ??_C@_09GINKAMHK@COL_AMBER@
CONST	SEGMENT
??_C@_09GINKAMHK@COL_AMBER@ DB 'COL_AMBER', 00H		; `string'
CONST	ENDS
;	COMDAT ??_C@_0BA@MLNALFLL@COL_SANDY_BROWN@
CONST	SEGMENT
??_C@_0BA@MLNALFLL@COL_SANDY_BROWN@ DB 'COL_SANDY_BROWN', 00H ; `string'
CONST	ENDS
;	COMDAT ??_C@_0P@KGJENFEM@COL_MEDIUM_RED@
CONST	SEGMENT
??_C@_0P@KGJENFEM@COL_MEDIUM_RED@ DB 'COL_MEDIUM_RED', 00H ; `string'
CONST	ENDS
;	COMDAT ??_C@_0BA@PCMODDGB@COL_MEDIUM_BLUE@
CONST	SEGMENT
??_C@_0BA@PCMODDGB@COL_MEDIUM_BLUE@ DB 'COL_MEDIUM_BLUE', 00H ; `string'
CONST	ENDS
;	COMDAT ??_C@_0O@LBKJKHCM@COL_DARK_BLUE@
CONST	SEGMENT
??_C@_0O@LBKJKHCM@COL_DARK_BLUE@ DB 'COL_DARK_BLUE', 00H ; `string'
CONST	ENDS
;	COMDAT ??_C@_0P@IDJHEIAA@COL_DARK_GREEN@
CONST	SEGMENT
??_C@_0P@IDJHEIAA@COL_DARK_GREEN@ DB 'COL_DARK_GREEN', 00H ; `string'
CONST	ENDS
;	COMDAT ??_C@_0N@KIOJPCCE@COL_DARK_RED@
CONST	SEGMENT
??_C@_0N@KIOJPCCE@COL_DARK_RED@ DB 'COL_DARK_RED', 00H	; `string'
CONST	ENDS
;	COMDAT ??_C@_0O@FLFJHBHP@COL_LIGHT_RED@
CONST	SEGMENT
??_C@_0O@FLFJHBHP@COL_LIGHT_RED@ DB 'COL_LIGHT_RED', 00H ; `string'
CONST	ENDS
;	COMDAT ??_C@_0P@MPJEMOCC@COL_LIGHT_GREY@
CONST	SEGMENT
??_C@_0P@MPJEMOCC@COL_LIGHT_GREY@ DB 'COL_LIGHT_GREY', 00H ; `string'
CONST	ENDS
;	COMDAT ??_C@_08LEBGJDGK@COL_GOLD@
CONST	SEGMENT
??_C@_08LEBGJDGK@COL_GOLD@ DB 'COL_GOLD', 00H		; `string'
CONST	ENDS
;	COMDAT ??_C@_0P@KDKAPDMD@COL_AQUAMARINE@
CONST	SEGMENT
??_C@_0P@KDKAPDMD@COL_AQUAMARINE@ DB 'COL_AQUAMARINE', 00H ; `string'
CONST	ENDS
;	COMDAT ??_C@_0M@LCBMBELF@COL_SEABLUE@
CONST	SEGMENT
??_C@_0M@LCBMBELF@COL_SEABLUE@ DB 'COL_SEABLUE', 00H	; `string'
CONST	ENDS
;	COMDAT ??_C@_0BA@MMMLMLJ@COL_ULTRAMARINE@
CONST	SEGMENT
??_C@_0BA@MMMLMLJ@COL_ULTRAMARINE@ DB 'COL_ULTRAMARINE', 00H ; `string'
CONST	ENDS
;	COMDAT ??_C@_0BB@MKNGPIPH@COL_FOREST_GREEN@
CONST	SEGMENT
??_C@_0BB@MKNGPIPH@COL_FOREST_GREEN@ DB 'COL_FOREST_GREEN', 00H ; `string'
CONST	ENDS
;	COMDAT ??_C@_0P@INBEPPPP@COL_SLATE_GREY@
CONST	SEGMENT
??_C@_0P@INBEPPPP@COL_SLATE_GREY@ DB 'COL_SLATE_GREY', 00H ; `string'
CONST	ENDS
;	COMDAT ??_C@_0N@EGEDDEIN@COL_SKY_BLUE@
CONST	SEGMENT
??_C@_0N@EGEDDEIN@COL_SKY_BLUE@ DB 'COL_SKY_BLUE', 00H	; `string'
CONST	ENDS
;	COMDAT ??_C@_09LKNDKIFM@COL_WHITE@
CONST	SEGMENT
??_C@_09LKNDKIFM@COL_WHITE@ DB 'COL_WHITE', 00H		; `string'
CONST	ENDS
;	COMDAT ??_C@_0L@CLOGBILB@COL_YELLOW@
CONST	SEGMENT
??_C@_0L@CLOGBILB@COL_YELLOW@ DB 'COL_YELLOW', 00H	; `string'
CONST	ENDS
;	COMDAT ??_C@_0M@IELMELAK@COL_MAGENTA@
CONST	SEGMENT
??_C@_0M@IELMELAK@COL_MAGENTA@ DB 'COL_MAGENTA', 00H	; `string'
CONST	ENDS
;	COMDAT ??_C@_07MOBFHAAG@COL_RED@
CONST	SEGMENT
??_C@_07MOBFHAAG@COL_RED@ DB 'COL_RED', 00H		; `string'
CONST	ENDS
;	COMDAT ??_C@_08MGNDEGDA@COL_CYAN@
CONST	SEGMENT
??_C@_08MGNDEGDA@COL_CYAN@ DB 'COL_CYAN', 00H		; `string'
CONST	ENDS
;	COMDAT ??_C@_09CHJDIKNA@COL_GREEN@
CONST	SEGMENT
??_C@_09CHJDIKNA@COL_GREEN@ DB 'COL_GREEN', 00H		; `string'
CONST	ENDS
;	COMDAT ??_C@_08GEKPBKEK@COL_BLUE@
CONST	SEGMENT
??_C@_08GEKPBKEK@COL_BLUE@ DB 'COL_BLUE', 00H		; `string'
CONST	ENDS
;	COMDAT ??_C@_09FOBGCNCA@COL_BLACK@
CONST	SEGMENT
??_C@_09FOBGCNCA@COL_BLACK@ DB 'COL_BLACK', 00H		; `string'
CONST	ENDS
_DATA	SEGMENT
?sys_colour_table@@3PAPAUREAL_COLOUR@@A DD FLAT:?sys_col_black@@3UREAL_COLOUR@@A ; sys_colour_table
	DD	FLAT:?sys_col_blue@@3UREAL_COLOUR@@A
	DD	FLAT:?sys_col_green@@3UREAL_COLOUR@@A
	DD	FLAT:?sys_col_cyan@@3UREAL_COLOUR@@A
	DD	FLAT:?sys_col_red@@3UREAL_COLOUR@@A
	DD	FLAT:?sys_col_magenta@@3UREAL_COLOUR@@A
	DD	FLAT:?sys_col_yellow@@3UREAL_COLOUR@@A
	DD	FLAT:?sys_col_white@@3UREAL_COLOUR@@A
	DD	FLAT:?sys_col_sky_blue@@3UREAL_COLOUR@@A
	DD	FLAT:?sys_col_slate_grey@@3UREAL_COLOUR@@A
	DD	FLAT:?sys_col_forest_green@@3UREAL_COLOUR@@A
	DD	FLAT:?sys_col_ultramarine@@3UREAL_COLOUR@@A
	DD	FLAT:?sys_col_seablue@@3UREAL_COLOUR@@A
	DD	FLAT:?sys_col_aquamarine@@3UREAL_COLOUR@@A
	DD	FLAT:?sys_col_gold@@3UREAL_COLOUR@@A
	DD	FLAT:?sys_col_light_grey@@3UREAL_COLOUR@@A
	DD	FLAT:?sys_col_light_red@@3UREAL_COLOUR@@A
	DD	FLAT:?sys_col_dark_red@@3UREAL_COLOUR@@A
	DD	FLAT:?sys_col_dark_green@@3UREAL_COLOUR@@A
	DD	FLAT:?sys_col_dark_blue@@3UREAL_COLOUR@@A
	DD	FLAT:?sys_col_medium_blue@@3UREAL_COLOUR@@A
	DD	FLAT:?sys_col_medium_red@@3UREAL_COLOUR@@A
	DD	FLAT:?sys_col_sandy_brown@@3UREAL_COLOUR@@A
	DD	FLAT:?sys_col_amber@@3UREAL_COLOUR@@A
	DD	FLAT:?sys_col_waypoint_route@@3UREAL_COLOUR@@A
	DD	FLAT:?sys_col_red_force@@3UREAL_COLOUR@@A
	DD	FLAT:?sys_col_blue_force@@3UREAL_COLOUR@@A
	ORG $+4
?sys_colour_names@@3PAPBDA DD FLAT:??_C@_09FOBGCNCA@COL_BLACK@ ; sys_colour_names
	DD	FLAT:??_C@_08GEKPBKEK@COL_BLUE@
	DD	FLAT:??_C@_09CHJDIKNA@COL_GREEN@
	DD	FLAT:??_C@_08MGNDEGDA@COL_CYAN@
	DD	FLAT:??_C@_07MOBFHAAG@COL_RED@
	DD	FLAT:??_C@_0M@IELMELAK@COL_MAGENTA@
	DD	FLAT:??_C@_0L@CLOGBILB@COL_YELLOW@
	DD	FLAT:??_C@_09LKNDKIFM@COL_WHITE@
	DD	FLAT:??_C@_0N@EGEDDEIN@COL_SKY_BLUE@
	DD	FLAT:??_C@_0P@INBEPPPP@COL_SLATE_GREY@
	DD	FLAT:??_C@_0BB@MKNGPIPH@COL_FOREST_GREEN@
	DD	FLAT:??_C@_0BA@MMMLMLJ@COL_ULTRAMARINE@
	DD	FLAT:??_C@_0M@LCBMBELF@COL_SEABLUE@
	DD	FLAT:??_C@_0P@KDKAPDMD@COL_AQUAMARINE@
	DD	FLAT:??_C@_08LEBGJDGK@COL_GOLD@
	DD	FLAT:??_C@_0P@MPJEMOCC@COL_LIGHT_GREY@
	DD	FLAT:??_C@_0O@FLFJHBHP@COL_LIGHT_RED@
	DD	FLAT:??_C@_0N@KIOJPCCE@COL_DARK_RED@
	DD	FLAT:??_C@_0P@IDJHEIAA@COL_DARK_GREEN@
	DD	FLAT:??_C@_0O@LBKJKHCM@COL_DARK_BLUE@
	DD	FLAT:??_C@_0BA@PCMODDGB@COL_MEDIUM_BLUE@
	DD	FLAT:??_C@_0P@KGJENFEM@COL_MEDIUM_RED@
	DD	FLAT:??_C@_0BA@MLNALFLL@COL_SANDY_BROWN@
	DD	FLAT:??_C@_09GINKAMHK@COL_AMBER@
	DD	FLAT:??_C@_0BD@MGMPGJLE@COL_WAYPOINT_ROUTE@
	DD	FLAT:??_C@_0O@JLJEOPHC@COL_RED_FORCE@
	DD	FLAT:??_C@_0P@JGKMDMMB@COL_BLUE_FORCE@
	DD	FLAT:??_C@_0BA@HKNEJNNF@NUM_SYS_COLOURS@
_DATA	ENDS
PUBLIC	?initialise_graphics_colours@@YGXXZ		; initialise_graphics_colours
; Function compile flags: /Odtp /ZI
; File c:\users\nhv90\projects\eech\modules\graphics\colour.c
;	COMDAT ?initialise_graphics_colours@@YGXXZ
_TEXT	SEGMENT
?initialise_graphics_colours@@YGXXZ PROC		; initialise_graphics_colours, COMDAT

; 182  : {

  00000	55		 push	 ebp
  00001	8b ec		 mov	 ebp, esp
  00003	83 ec 40	 sub	 esp, 64			; 00000040H
  00006	53		 push	 ebx
  00007	56		 push	 esi
  00008	57		 push	 edi

; 183  : 
; 184  : 	set_rgb_colour (sys_col_black, 0, 0, 0, 255);

  00009	c6 05 02 00 00
	00 00		 mov	 BYTE PTR ?sys_col_black@@3UREAL_COLOUR@@A+2, 0
  00010	c6 05 01 00 00
	00 00		 mov	 BYTE PTR ?sys_col_black@@3UREAL_COLOUR@@A+1, 0
  00017	c6 05 00 00 00
	00 00		 mov	 BYTE PTR ?sys_col_black@@3UREAL_COLOUR@@A, 0
  0001e	c6 05 03 00 00
	00 ff		 mov	 BYTE PTR ?sys_col_black@@3UREAL_COLOUR@@A+3, 255 ; 000000ffH

; 185  : 	set_rgb_colour (sys_col_blue, 0, 0, 255, 255);

  00025	c6 05 02 00 00
	00 00		 mov	 BYTE PTR ?sys_col_blue@@3UREAL_COLOUR@@A+2, 0
  0002c	c6 05 01 00 00
	00 00		 mov	 BYTE PTR ?sys_col_blue@@3UREAL_COLOUR@@A+1, 0
  00033	c6 05 00 00 00
	00 ff		 mov	 BYTE PTR ?sys_col_blue@@3UREAL_COLOUR@@A, 255 ; 000000ffH
  0003a	c6 05 03 00 00
	00 ff		 mov	 BYTE PTR ?sys_col_blue@@3UREAL_COLOUR@@A+3, 255 ; 000000ffH

; 186  : 	set_rgb_colour (sys_col_green, 0, 255, 0, 255);

  00041	c6 05 02 00 00
	00 00		 mov	 BYTE PTR ?sys_col_green@@3UREAL_COLOUR@@A+2, 0
  00048	c6 05 01 00 00
	00 ff		 mov	 BYTE PTR ?sys_col_green@@3UREAL_COLOUR@@A+1, 255 ; 000000ffH
  0004f	c6 05 00 00 00
	00 00		 mov	 BYTE PTR ?sys_col_green@@3UREAL_COLOUR@@A, 0
  00056	c6 05 03 00 00
	00 ff		 mov	 BYTE PTR ?sys_col_green@@3UREAL_COLOUR@@A+3, 255 ; 000000ffH

; 187  : 	set_rgb_colour (sys_col_cyan, 0, 255, 255, 255);

  0005d	c6 05 02 00 00
	00 00		 mov	 BYTE PTR ?sys_col_cyan@@3UREAL_COLOUR@@A+2, 0
  00064	c6 05 01 00 00
	00 ff		 mov	 BYTE PTR ?sys_col_cyan@@3UREAL_COLOUR@@A+1, 255 ; 000000ffH
  0006b	c6 05 00 00 00
	00 ff		 mov	 BYTE PTR ?sys_col_cyan@@3UREAL_COLOUR@@A, 255 ; 000000ffH
  00072	c6 05 03 00 00
	00 ff		 mov	 BYTE PTR ?sys_col_cyan@@3UREAL_COLOUR@@A+3, 255 ; 000000ffH

; 188  : 	set_rgb_colour (sys_col_red, 255, 0, 0, 255);

  00079	c6 05 02 00 00
	00 ff		 mov	 BYTE PTR ?sys_col_red@@3UREAL_COLOUR@@A+2, 255 ; 000000ffH
  00080	c6 05 01 00 00
	00 00		 mov	 BYTE PTR ?sys_col_red@@3UREAL_COLOUR@@A+1, 0
  00087	c6 05 00 00 00
	00 00		 mov	 BYTE PTR ?sys_col_red@@3UREAL_COLOUR@@A, 0
  0008e	c6 05 03 00 00
	00 ff		 mov	 BYTE PTR ?sys_col_red@@3UREAL_COLOUR@@A+3, 255 ; 000000ffH

; 189  : 	set_rgb_colour (sys_col_magenta, 255, 0, 255, 255);

  00095	c6 05 02 00 00
	00 ff		 mov	 BYTE PTR ?sys_col_magenta@@3UREAL_COLOUR@@A+2, 255 ; 000000ffH
  0009c	c6 05 01 00 00
	00 00		 mov	 BYTE PTR ?sys_col_magenta@@3UREAL_COLOUR@@A+1, 0
  000a3	c6 05 00 00 00
	00 ff		 mov	 BYTE PTR ?sys_col_magenta@@3UREAL_COLOUR@@A, 255 ; 000000ffH
  000aa	c6 05 03 00 00
	00 ff		 mov	 BYTE PTR ?sys_col_magenta@@3UREAL_COLOUR@@A+3, 255 ; 000000ffH

; 190  : 	set_rgb_colour (sys_col_yellow, 255, 255, 0, 255);

  000b1	c6 05 02 00 00
	00 ff		 mov	 BYTE PTR ?sys_col_yellow@@3UREAL_COLOUR@@A+2, 255 ; 000000ffH
  000b8	c6 05 01 00 00
	00 ff		 mov	 BYTE PTR ?sys_col_yellow@@3UREAL_COLOUR@@A+1, 255 ; 000000ffH
  000bf	c6 05 00 00 00
	00 00		 mov	 BYTE PTR ?sys_col_yellow@@3UREAL_COLOUR@@A, 0
  000c6	c6 05 03 00 00
	00 ff		 mov	 BYTE PTR ?sys_col_yellow@@3UREAL_COLOUR@@A+3, 255 ; 000000ffH

; 191  : 	set_rgb_colour (sys_col_white, 255, 255, 255, 255);

  000cd	c6 05 02 00 00
	00 ff		 mov	 BYTE PTR ?sys_col_white@@3UREAL_COLOUR@@A+2, 255 ; 000000ffH
  000d4	c6 05 01 00 00
	00 ff		 mov	 BYTE PTR ?sys_col_white@@3UREAL_COLOUR@@A+1, 255 ; 000000ffH
  000db	c6 05 00 00 00
	00 ff		 mov	 BYTE PTR ?sys_col_white@@3UREAL_COLOUR@@A, 255 ; 000000ffH
  000e2	c6 05 03 00 00
	00 ff		 mov	 BYTE PTR ?sys_col_white@@3UREAL_COLOUR@@A+3, 255 ; 000000ffH

; 192  : 	set_rgb_colour (sys_col_sky_blue, 135, 206, 235, 255);

  000e9	c6 05 02 00 00
	00 87		 mov	 BYTE PTR ?sys_col_sky_blue@@3UREAL_COLOUR@@A+2, 135 ; 00000087H
  000f0	c6 05 01 00 00
	00 ce		 mov	 BYTE PTR ?sys_col_sky_blue@@3UREAL_COLOUR@@A+1, 206 ; 000000ceH
  000f7	c6 05 00 00 00
	00 eb		 mov	 BYTE PTR ?sys_col_sky_blue@@3UREAL_COLOUR@@A, 235 ; 000000ebH
  000fe	c6 05 03 00 00
	00 ff		 mov	 BYTE PTR ?sys_col_sky_blue@@3UREAL_COLOUR@@A+3, 255 ; 000000ffH

; 193  : 	set_rgb_colour (sys_col_slate_grey, 112, 128, 144, 255);

  00105	c6 05 02 00 00
	00 70		 mov	 BYTE PTR ?sys_col_slate_grey@@3UREAL_COLOUR@@A+2, 112 ; 00000070H
  0010c	c6 05 01 00 00
	00 80		 mov	 BYTE PTR ?sys_col_slate_grey@@3UREAL_COLOUR@@A+1, 128 ; 00000080H
  00113	c6 05 00 00 00
	00 90		 mov	 BYTE PTR ?sys_col_slate_grey@@3UREAL_COLOUR@@A, 144 ; 00000090H
  0011a	c6 05 03 00 00
	00 ff		 mov	 BYTE PTR ?sys_col_slate_grey@@3UREAL_COLOUR@@A+3, 255 ; 000000ffH

; 194  : 	set_rgb_colour (sys_col_forest_green, 34, 139, 34, 255);

  00121	c6 05 02 00 00
	00 22		 mov	 BYTE PTR ?sys_col_forest_green@@3UREAL_COLOUR@@A+2, 34 ; 00000022H
  00128	c6 05 01 00 00
	00 8b		 mov	 BYTE PTR ?sys_col_forest_green@@3UREAL_COLOUR@@A+1, 139 ; 0000008bH
  0012f	c6 05 00 00 00
	00 22		 mov	 BYTE PTR ?sys_col_forest_green@@3UREAL_COLOUR@@A, 34 ; 00000022H
  00136	c6 05 03 00 00
	00 ff		 mov	 BYTE PTR ?sys_col_forest_green@@3UREAL_COLOUR@@A+3, 255 ; 000000ffH

; 195  : 	set_rgb_colour (sys_col_ultramarine, 18, 0, 143, 255);

  0013d	c6 05 02 00 00
	00 12		 mov	 BYTE PTR ?sys_col_ultramarine@@3UREAL_COLOUR@@A+2, 18 ; 00000012H
  00144	c6 05 01 00 00
	00 00		 mov	 BYTE PTR ?sys_col_ultramarine@@3UREAL_COLOUR@@A+1, 0
  0014b	c6 05 00 00 00
	00 8f		 mov	 BYTE PTR ?sys_col_ultramarine@@3UREAL_COLOUR@@A, 143 ; 0000008fH
  00152	c6 05 03 00 00
	00 ff		 mov	 BYTE PTR ?sys_col_ultramarine@@3UREAL_COLOUR@@A+3, 255 ; 000000ffH

; 196  : 	set_rgb_colour (sys_col_seablue, 90, 130, 190, 255);

  00159	c6 05 02 00 00
	00 5a		 mov	 BYTE PTR ?sys_col_seablue@@3UREAL_COLOUR@@A+2, 90 ; 0000005aH
  00160	c6 05 01 00 00
	00 82		 mov	 BYTE PTR ?sys_col_seablue@@3UREAL_COLOUR@@A+1, 130 ; 00000082H
  00167	c6 05 00 00 00
	00 be		 mov	 BYTE PTR ?sys_col_seablue@@3UREAL_COLOUR@@A, 190 ; 000000beH
  0016e	c6 05 03 00 00
	00 ff		 mov	 BYTE PTR ?sys_col_seablue@@3UREAL_COLOUR@@A+3, 255 ; 000000ffH

; 197  : 	set_rgb_colour (sys_col_aquamarine, 127, 255, 212, 255);

  00175	c6 05 02 00 00
	00 7f		 mov	 BYTE PTR ?sys_col_aquamarine@@3UREAL_COLOUR@@A+2, 127 ; 0000007fH
  0017c	c6 05 01 00 00
	00 ff		 mov	 BYTE PTR ?sys_col_aquamarine@@3UREAL_COLOUR@@A+1, 255 ; 000000ffH
  00183	c6 05 00 00 00
	00 d4		 mov	 BYTE PTR ?sys_col_aquamarine@@3UREAL_COLOUR@@A, 212 ; 000000d4H
  0018a	c6 05 03 00 00
	00 ff		 mov	 BYTE PTR ?sys_col_aquamarine@@3UREAL_COLOUR@@A+3, 255 ; 000000ffH

; 198  : 	set_rgb_colour (sys_col_gold, 255, 215, 0, 255);

  00191	c6 05 02 00 00
	00 ff		 mov	 BYTE PTR ?sys_col_gold@@3UREAL_COLOUR@@A+2, 255 ; 000000ffH
  00198	c6 05 01 00 00
	00 d7		 mov	 BYTE PTR ?sys_col_gold@@3UREAL_COLOUR@@A+1, 215 ; 000000d7H
  0019f	c6 05 00 00 00
	00 00		 mov	 BYTE PTR ?sys_col_gold@@3UREAL_COLOUR@@A, 0
  001a6	c6 05 03 00 00
	00 ff		 mov	 BYTE PTR ?sys_col_gold@@3UREAL_COLOUR@@A+3, 255 ; 000000ffH

; 199  : 	set_rgb_colour (sys_col_light_grey, 200, 200, 200, 255);

  001ad	c6 05 02 00 00
	00 c8		 mov	 BYTE PTR ?sys_col_light_grey@@3UREAL_COLOUR@@A+2, 200 ; 000000c8H
  001b4	c6 05 01 00 00
	00 c8		 mov	 BYTE PTR ?sys_col_light_grey@@3UREAL_COLOUR@@A+1, 200 ; 000000c8H
  001bb	c6 05 00 00 00
	00 c8		 mov	 BYTE PTR ?sys_col_light_grey@@3UREAL_COLOUR@@A, 200 ; 000000c8H
  001c2	c6 05 03 00 00
	00 ff		 mov	 BYTE PTR ?sys_col_light_grey@@3UREAL_COLOUR@@A+3, 255 ; 000000ffH

; 200  : 	set_rgb_colour (sys_col_light_red, 255, 150, 150, 255);

  001c9	c6 05 02 00 00
	00 ff		 mov	 BYTE PTR ?sys_col_light_red@@3UREAL_COLOUR@@A+2, 255 ; 000000ffH
  001d0	c6 05 01 00 00
	00 96		 mov	 BYTE PTR ?sys_col_light_red@@3UREAL_COLOUR@@A+1, 150 ; 00000096H
  001d7	c6 05 00 00 00
	00 96		 mov	 BYTE PTR ?sys_col_light_red@@3UREAL_COLOUR@@A, 150 ; 00000096H
  001de	c6 05 03 00 00
	00 ff		 mov	 BYTE PTR ?sys_col_light_red@@3UREAL_COLOUR@@A+3, 255 ; 000000ffH

; 201  : 	set_rgb_colour (sys_col_dark_red, 150, 0, 0, 255);

  001e5	c6 05 02 00 00
	00 96		 mov	 BYTE PTR ?sys_col_dark_red@@3UREAL_COLOUR@@A+2, 150 ; 00000096H
  001ec	c6 05 01 00 00
	00 00		 mov	 BYTE PTR ?sys_col_dark_red@@3UREAL_COLOUR@@A+1, 0
  001f3	c6 05 00 00 00
	00 00		 mov	 BYTE PTR ?sys_col_dark_red@@3UREAL_COLOUR@@A, 0
  001fa	c6 05 03 00 00
	00 ff		 mov	 BYTE PTR ?sys_col_dark_red@@3UREAL_COLOUR@@A+3, 255 ; 000000ffH

; 202  : 	set_rgb_colour (sys_col_dark_green, 0, 150, 0, 255);

  00201	c6 05 02 00 00
	00 00		 mov	 BYTE PTR ?sys_col_dark_green@@3UREAL_COLOUR@@A+2, 0
  00208	c6 05 01 00 00
	00 96		 mov	 BYTE PTR ?sys_col_dark_green@@3UREAL_COLOUR@@A+1, 150 ; 00000096H
  0020f	c6 05 00 00 00
	00 00		 mov	 BYTE PTR ?sys_col_dark_green@@3UREAL_COLOUR@@A, 0
  00216	c6 05 03 00 00
	00 ff		 mov	 BYTE PTR ?sys_col_dark_green@@3UREAL_COLOUR@@A+3, 255 ; 000000ffH

; 203  : 	set_rgb_colour (sys_col_dark_blue, 0, 0, 100, 255);

  0021d	c6 05 02 00 00
	00 00		 mov	 BYTE PTR ?sys_col_dark_blue@@3UREAL_COLOUR@@A+2, 0
  00224	c6 05 01 00 00
	00 00		 mov	 BYTE PTR ?sys_col_dark_blue@@3UREAL_COLOUR@@A+1, 0
  0022b	c6 05 00 00 00
	00 64		 mov	 BYTE PTR ?sys_col_dark_blue@@3UREAL_COLOUR@@A, 100 ; 00000064H
  00232	c6 05 03 00 00
	00 ff		 mov	 BYTE PTR ?sys_col_dark_blue@@3UREAL_COLOUR@@A+3, 255 ; 000000ffH

; 204  : 	set_rgb_colour (sys_col_medium_blue, 50, 50, 150, 255);

  00239	c6 05 02 00 00
	00 32		 mov	 BYTE PTR ?sys_col_medium_blue@@3UREAL_COLOUR@@A+2, 50 ; 00000032H
  00240	c6 05 01 00 00
	00 32		 mov	 BYTE PTR ?sys_col_medium_blue@@3UREAL_COLOUR@@A+1, 50 ; 00000032H
  00247	c6 05 00 00 00
	00 96		 mov	 BYTE PTR ?sys_col_medium_blue@@3UREAL_COLOUR@@A, 150 ; 00000096H
  0024e	c6 05 03 00 00
	00 ff		 mov	 BYTE PTR ?sys_col_medium_blue@@3UREAL_COLOUR@@A+3, 255 ; 000000ffH

; 205  : 	set_rgb_colour (sys_col_medium_red, 255, 50, 50, 255);

  00255	c6 05 02 00 00
	00 ff		 mov	 BYTE PTR ?sys_col_medium_red@@3UREAL_COLOUR@@A+2, 255 ; 000000ffH
  0025c	c6 05 01 00 00
	00 32		 mov	 BYTE PTR ?sys_col_medium_red@@3UREAL_COLOUR@@A+1, 50 ; 00000032H
  00263	c6 05 00 00 00
	00 32		 mov	 BYTE PTR ?sys_col_medium_red@@3UREAL_COLOUR@@A, 50 ; 00000032H
  0026a	c6 05 03 00 00
	00 ff		 mov	 BYTE PTR ?sys_col_medium_red@@3UREAL_COLOUR@@A+3, 255 ; 000000ffH

; 206  : 	set_rgb_colour (sys_col_sandy_brown, 244, 164, 96, 255);

  00271	c6 05 02 00 00
	00 f4		 mov	 BYTE PTR ?sys_col_sandy_brown@@3UREAL_COLOUR@@A+2, 244 ; 000000f4H
  00278	c6 05 01 00 00
	00 a4		 mov	 BYTE PTR ?sys_col_sandy_brown@@3UREAL_COLOUR@@A+1, 164 ; 000000a4H
  0027f	c6 05 00 00 00
	00 60		 mov	 BYTE PTR ?sys_col_sandy_brown@@3UREAL_COLOUR@@A, 96 ; 00000060H
  00286	c6 05 03 00 00
	00 ff		 mov	 BYTE PTR ?sys_col_sandy_brown@@3UREAL_COLOUR@@A+3, 255 ; 000000ffH

; 207  : 	set_rgb_colour (sys_col_amber, 255, 128, 0, 255);

  0028d	c6 05 02 00 00
	00 ff		 mov	 BYTE PTR ?sys_col_amber@@3UREAL_COLOUR@@A+2, 255 ; 000000ffH
  00294	c6 05 01 00 00
	00 80		 mov	 BYTE PTR ?sys_col_amber@@3UREAL_COLOUR@@A+1, 128 ; 00000080H
  0029b	c6 05 00 00 00
	00 00		 mov	 BYTE PTR ?sys_col_amber@@3UREAL_COLOUR@@A, 0
  002a2	c6 05 03 00 00
	00 ff		 mov	 BYTE PTR ?sys_col_amber@@3UREAL_COLOUR@@A+3, 255 ; 000000ffH

; 208  : 	set_rgb_colour (sys_col_waypoint_route, 31, 0, 136, 255);

  002a9	c6 05 02 00 00
	00 1f		 mov	 BYTE PTR ?sys_col_waypoint_route@@3UREAL_COLOUR@@A+2, 31 ; 0000001fH
  002b0	c6 05 01 00 00
	00 00		 mov	 BYTE PTR ?sys_col_waypoint_route@@3UREAL_COLOUR@@A+1, 0
  002b7	c6 05 00 00 00
	00 88		 mov	 BYTE PTR ?sys_col_waypoint_route@@3UREAL_COLOUR@@A, 136 ; 00000088H
  002be	c6 05 03 00 00
	00 ff		 mov	 BYTE PTR ?sys_col_waypoint_route@@3UREAL_COLOUR@@A+3, 255 ; 000000ffH

; 209  : 	set_rgb_colour (sys_col_red_force, 224, 27, 0, 255);

  002c5	c6 05 02 00 00
	00 e0		 mov	 BYTE PTR ?sys_col_red_force@@3UREAL_COLOUR@@A+2, 224 ; 000000e0H
  002cc	c6 05 01 00 00
	00 1b		 mov	 BYTE PTR ?sys_col_red_force@@3UREAL_COLOUR@@A+1, 27 ; 0000001bH
  002d3	c6 05 00 00 00
	00 00		 mov	 BYTE PTR ?sys_col_red_force@@3UREAL_COLOUR@@A, 0
  002da	c6 05 03 00 00
	00 ff		 mov	 BYTE PTR ?sys_col_red_force@@3UREAL_COLOUR@@A+3, 255 ; 000000ffH

; 210  : 	set_rgb_colour (sys_col_blue_force, 41, 86, 255, 255);

  002e1	c6 05 02 00 00
	00 29		 mov	 BYTE PTR ?sys_col_blue_force@@3UREAL_COLOUR@@A+2, 41 ; 00000029H
  002e8	c6 05 01 00 00
	00 56		 mov	 BYTE PTR ?sys_col_blue_force@@3UREAL_COLOUR@@A+1, 86 ; 00000056H
  002ef	c6 05 00 00 00
	00 ff		 mov	 BYTE PTR ?sys_col_blue_force@@3UREAL_COLOUR@@A, 255 ; 000000ffH
  002f6	c6 05 03 00 00
	00 ff		 mov	 BYTE PTR ?sys_col_blue_force@@3UREAL_COLOUR@@A+3, 255 ; 000000ffH

; 211  : }

  002fd	5f		 pop	 edi
  002fe	5e		 pop	 esi
  002ff	5b		 pop	 ebx
  00300	8b e5		 mov	 esp, ebp
  00302	5d		 pop	 ebp
  00303	c3		 ret	 0
?initialise_graphics_colours@@YGXXZ ENDP		; initialise_graphics_colours
_TEXT	ENDS
END
