; Listing generated by Microsoft (R) Optimizing Compiler Version 19.16.27045.0 

	TITLE	C:\Users\nhv90\Projects\eech\aphavoc\source\ui_menu\ingame\common\common.c
	.686P
	.XMM
	include listing.inc
	.model	flat

INCLUDELIB MSVCRTD
INCLUDELIB OLDNAMES

PUBLIC	?common_divider_graphic@@3PAUTEXTURE_GRAPHIC@@A	; common_divider_graphic
PUBLIC	?common_purple_mask@@3PAUTEXTURE_GRAPHIC@@A	; common_purple_mask
PUBLIC	?common_grey_alpha_mask@@3PAUTEXTURE_GRAPHIC@@A	; common_grey_alpha_mask
PUBLIC	?common_black_alpha_mask@@3PAUTEXTURE_GRAPHIC@@A ; common_black_alpha_mask
_BSS	SEGMENT
?common_divider_graphic@@3PAUTEXTURE_GRAPHIC@@A DD 01H DUP (?) ; common_divider_graphic
?common_purple_mask@@3PAUTEXTURE_GRAPHIC@@A DD 01H DUP (?) ; common_purple_mask
?common_grey_alpha_mask@@3PAUTEXTURE_GRAPHIC@@A DD 01H DUP (?) ; common_grey_alpha_mask
?common_black_alpha_mask@@3PAUTEXTURE_GRAPHIC@@A DD 01H DUP (?) ; common_black_alpha_mask
_BSS	ENDS
PUBLIC	?initialise_ingame_screen@@YGXXZ		; initialise_ingame_screen
PUBLIC	?ingame_screen_draw_function@@YGXPAUUI_OBJECT@@PAX@Z ; ingame_screen_draw_function
PUBLIC	?set_ui_mouse_over_entity@@YGXPAUENTITY@@@Z	; set_ui_mouse_over_entity
PUBLIC	?get_ui_mouse_over_entity@@YGPAUENTITY@@XZ	; get_ui_mouse_over_entity
PUBLIC	?set_ingame_ui_object_mouse_over_properties@@YGXPAUUI_OBJECT@@@Z ; set_ingame_ui_object_mouse_over_properties
PUBLIC	?set_ui_mouse_over_entity_function@@YGXPAUUI_OBJECT@@@Z ; set_ui_mouse_over_entity_function
PUBLIC	?start_ingame_ui_system@@YGXXZ			; start_ingame_ui_system
PUBLIC	?stop_ingame_ui_system@@YGXXZ			; stop_ingame_ui_system
PUBLIC	?get_mission_player_suitability_status@@YGHPAUENTITY@@@Z ; get_mission_player_suitability_status
PUBLIC	?get_group_player_suitability_status@@YGHPAUENTITY@@@Z ; get_group_player_suitability_status
PUBLIC	?get_base_player_suitability_status@@YGHPAUENTITY@@@Z ; get_base_player_suitability_status
PUBLIC	?player_assigned_new_task@@YGXPAUENTITY@@0@Z	; player_assigned_new_task
PUBLIC	?player_quit_current_task@@YGXXZ		; player_quit_current_task
PUBLIC	?player_quit_session@@YGXPAUEVENT@@@Z		; player_quit_session
PUBLIC	?ingame_quit_function@@YGXPAUEVENT@@@Z		; ingame_quit_function
PUBLIC	?ingame_screen_set_events@@YGXXZ		; ingame_screen_set_events
PUBLIC	?set_common_slider_graphics@@YGXPAUUI_OBJECT@@@Z ; set_common_slider_graphics
PUBLIC	?page_back_event@@YGXPAUEVENT@@@Z		; page_back_event
PUBLIC	??_C@_0CE@IBGODMPK@graphics?2ui?2cohokum?2map?2sbckmap@ ; `string'
PUBLIC	??_C@_0CF@CLMABKGK@graphics?2ui?2cohokum?2map?2scrolpr@ ; `string'
PUBLIC	??_C@_0CF@HJDKJCOF@graphics?2ui?2cohokum?2map?2scrolwh@ ; `string'
PUBLIC	??_C@_0CF@OCOCGBOB@graphics?2ui?2cohokum?2map?2scrolye@ ; `string'
PUBLIC	??_C@_0CF@BCFOAICM@graphics?2ui?2cohokum?2map?2arruppr@ ; `string'
PUBLIC	??_C@_0CF@EAKEIAKD@graphics?2ui?2cohokum?2map?2arrupwh@ ; `string'
PUBLIC	??_C@_0CF@NLHMHDKH@graphics?2ui?2cohokum?2map?2arrupye@ ; `string'
PUBLIC	??_C@_0CF@LOFDIPDD@graphics?2ui?2cohokum?2map?2arrdwpr@ ; `string'
PUBLIC	??_C@_0CF@OMKJAHLM@graphics?2ui?2cohokum?2map?2arrdwwh@ ; `string'
PUBLIC	??_C@_0CF@HHHBPELI@graphics?2ui?2cohokum?2map?2arrdwye@ ; `string'
PUBLIC	??_C@_0CE@JDHGEDNE@graphics?2ui?2cohokum?2map?2divider@ ; `string'
PUBLIC	??_C@_0CF@CLPKPOMP@graphics?2ui?2cohokum?2map?2blockpr@ ; `string'
PUBLIC	??_C@_0CF@NLCILEI@graphics?2ui?2cohokum?2map?2greymas@ ; `string'
PUBLIC	??_C@_0CE@OKJHOFOB@graphics?2ui?2cohokum?2map?2blkmask@ ; `string'
PUBLIC	?__LINE__Var@?0??set_ingame_ui_object_mouse_over_properties@@YGXPAUUI_OBJECT@@@Z@4JA ; `set_ingame_ui_object_mouse_over_properties'::`1'::__LINE__Var
PUBLIC	??_C@_0EL@NMGABAFH@c?3?2users?2nhv90?2projects?2eech?2ap@ ; `string'
PUBLIC	??_C@_03GJLPFLNF@obj@				; `string'
PUBLIC	?__LINE__Var@?0??set_ui_mouse_over_entity_function@@YGXPAUUI_OBJECT@@@Z@4JA ; `set_ui_mouse_over_entity_function'::`1'::__LINE__Var
PUBLIC	?__LINE__Var@?0??get_mission_player_suitability_status@@YGHPAUENTITY@@@Z@4JA ; `get_mission_player_suitability_status'::`1'::__LINE__Var
PUBLIC	??_C@_04BHIIPFEC@base@				; `string'
PUBLIC	??_C@_0DE@BLNNEFLP@get_local_entity_type?5?$CIbase?$CJ?5?$DN?$DN@ ; `string'
PUBLIC	??_C@_05HLIEEKJG@guide@				; `string'
PUBLIC	??_C@_05MGJOOGAJ@group@				; `string'
PUBLIC	?__LINE__Var@?0??get_group_player_suitability_status@@YGHPAUENTITY@@@Z@4JA ; `get_group_player_suitability_status'::`1'::__LINE__Var
PUBLIC	?__LINE__Var@?0??get_base_player_suitability_status@@YGHPAUENTITY@@@Z@4JA ; `get_base_player_suitability_status'::`1'::__LINE__Var
PUBLIC	?__LINE__Var@?0??player_assigned_new_task@@YGXPAUENTITY@@0@Z@4JA ; `player_assigned_new_task'::`1'::__LINE__Var
PUBLIC	??_C@_06INMLIBCJ@mobile@			; `string'
PUBLIC	??_C@_04GGKLLKOO@task@				; `string'
PUBLIC	??_C@_0BE@KOLCCDEB@get_pilot_entity?5?$CI?$CJ@	; `string'
PUBLIC	??_C@_0CG@COBGIMAO@COMMON?3?5Player?5?$CFs?5assigned?5to?5t@ ; `string'
PUBLIC	?__LINE__Var@?0??player_quit_current_task@@YGXXZ@4JA ; `player_quit_current_task'::`1'::__LINE__Var
PUBLIC	??_C@_0BH@DMCIHAF@?$CBget_gunship_entity?5?$CI?$CJ@ ; `string'
PUBLIC	??_C@_0BN@KJIANJIK@COMMON?3?5Invalid?5Game?5Type?5?$CFd@ ; `string'
PUBLIC	??_C@_0P@JGHPCEDJ@Quicksaving?4?4?4@		; `string'
PUBLIC	??_C@_08GNEPIJGF@FASTSAVE@			; `string'
PUBLIC	?__LINE__Var@?0??set_common_slider_graphics@@YGXPAUUI_OBJECT@@@Z@4JA ; `set_common_slider_graphics'::`1'::__LINE__Var
PUBLIC	??_C@_06LDFGECMB@slider@			; `string'
PUBLIC	??_C@_0BG@KCHPKOMO@common_slider_graphic@	; `string'
PUBLIC	??_C@_0BK@BEMKGAJK@common_slider_bar_graphic@	; `string'
PUBLIC	??_C@_0CG@PEDIOIHF@common_slider_bar_highlighted_g@ ; `string'
PUBLIC	??_C@_0CD@JKCJEAOP@common_slider_bar_selected_grap@ ; `string'
PUBLIC	??_C@_0BJ@PGBEHDPP@common_slider_up_graphic@	; `string'
PUBLIC	??_C@_0CF@CGMFEHDA@common_slider_up_highlighted_gr@ ; `string'
PUBLIC	??_C@_0CC@NOJJHAFN@common_slider_up_selected_graph@ ; `string'
PUBLIC	??_C@_0BL@DLBJPFMB@common_slider_down_graphic@	; `string'
PUBLIC	??_C@_0CH@PIPPDCFJ@common_slider_down_highlighted_@ ; `string'
PUBLIC	??_C@_0CE@GBJPILOK@common_slider_down_selected_gra@ ; `string'
PUBLIC	??_C@_00CNPNBAHC@@				; `string'
PUBLIC	__real@0000000000000000
PUBLIC	__real@40a00000
PUBLIC	__real@41200000
PUBLIC	__real@41700000
PUBLIC	__real@c0a00000
PUBLIC	__real@c1200000
EXTRN	_memset:PROC
EXTRN	?process_assert@@YGXPBD0H@Z:PROC		; process_assert
EXTRN	?debug_fatal@@YAXPBDZZ:PROC			; debug_fatal
EXTRN	?debug_log@@YAXPBDZZ:PROC			; debug_log
EXTRN	?breakout@@YGXPAUEVENT@@@Z:PROC			; breakout
EXTRN	?set_event@@YGXHHHP6GXPAUEVENT@@@Z@Z:PROC	; set_event
EXTRN	?create_texture_graphic@@YGPAUTEXTURE_GRAPHIC@@PBD@Z:PROC ; create_texture_graphic
EXTRN	?ui_left_mouse_button@@YGXPAUEVENT@@@Z:PROC	; ui_left_mouse_button
EXTRN	?ui_right_mouse_button@@YGXPAUEVENT@@@Z:PROC	; ui_right_mouse_button
EXTRN	?save_ui_screen@@YGXPAUEVENT@@@Z:PROC		; save_ui_screen
EXTRN	?push_ui_screen@@YGXPAUUI_OBJECT@@@Z:PROC	; push_ui_screen
EXTRN	?get_ui_object_vslider@@YGPAUUI_OBJECT@@PAU1@@Z:PROC ; get_ui_object_vslider
EXTRN	?toggle_in_flight_game_modes@@YGXPAUEVENT@@@Z:PROC ; toggle_in_flight_game_modes
EXTRN	?set_in_flight_game_mode@@YGXH@Z:PROC		; set_in_flight_game_mode
EXTRN	?add_update_function@@YGHP6GXXZMM@Z:PROC	; add_update_function
EXTRN	?remove_update_function@@YGHP6GXXZ@Z:PROC	; remove_update_function
EXTRN	?play_cd_music@@YGXW4CD_MUSIC_TYPES@@@Z:PROC	; play_cd_music
EXTRN	?set_client_server_entity_parent@@YGXPAUENTITY@@W4LIST_TYPES@@0@Z:PROC ; set_client_server_entity_parent
EXTRN	?set_gunship_entity@@YGXPAUENTITY@@@Z:PROC	; set_gunship_entity
EXTRN	?get_group_suitable_for_player@@YGHPAUENTITY@@0@Z:PROC ; get_group_suitable_for_player
EXTRN	?get_local_group_primary_task@@YGPAUENTITY@@PAU1@@Z:PROC ; get_local_group_primary_task
EXTRN	?initialise_game_initialisation_phases@@YGXXZ:PROC ; initialise_game_initialisation_phases
EXTRN	?exit_apache_havoc@@YGXPAUEVENT@@@Z:PROC	; exit_apache_havoc
EXTRN	?set_small_inc_time_acceleration@@YGXPAUEVENT@@@Z:PROC ; set_small_inc_time_acceleration
EXTRN	?set_small_dec_time_acceleration@@YGXPAUEVENT@@@Z:PROC ; set_small_dec_time_acceleration
EXTRN	?toggle_pause_time_acceleration@@YGXPAUEVENT@@@Z:PROC ; toggle_pause_time_acceleration
EXTRN	?store_session@@YGHPAUSESSION_LIST_DATA_TYPE@@PBD@Z:PROC ; store_session
EXTRN	?update_infobar_timers@@YGXXZ:PROC		; update_infobar_timers
EXTRN	?load_map_textures@@YGXXZ:PROC			; load_map_textures
EXTRN	?map_delete_waypoint_event@@YGXXZ:PROC		; map_delete_waypoint_event
EXTRN	?minimize_all_map_objects@@YGXXZ:PROC		; minimize_all_map_objects
EXTRN	?update_map_events@@YGXXZ:PROC			; update_map_events
EXTRN	?update_map_overlays@@YGXXZ:PROC		; update_map_overlays
EXTRN	?update_map_animations@@YGXXZ:PROC		; update_map_animations
EXTRN	?shift_current_map_up_event@@YGXPAUEVENT@@@Z:PROC ; shift_current_map_up_event
EXTRN	?shift_current_map_down_event@@YGXPAUEVENT@@@Z:PROC ; shift_current_map_down_event
EXTRN	?shift_current_map_left_event@@YGXPAUEVENT@@@Z:PROC ; shift_current_map_left_event
EXTRN	?shift_current_map_right_event@@YGXPAUEVENT@@@Z:PROC ; shift_current_map_right_event
EXTRN	?fine_current_map_up_event@@YGXPAUEVENT@@@Z:PROC ; fine_current_map_up_event
EXTRN	?fine_current_map_down_event@@YGXPAUEVENT@@@Z:PROC ; fine_current_map_down_event
EXTRN	?fine_current_map_left_event@@YGXPAUEVENT@@@Z:PROC ; fine_current_map_left_event
EXTRN	?fine_current_map_right_event@@YGXPAUEVENT@@@Z:PROC ; fine_current_map_right_event
EXTRN	?zoom_in_current_map_event@@YGXPAUEVENT@@@Z:PROC ; zoom_in_current_map_event
EXTRN	?zoom_out_current_map_event@@YGXPAUEVENT@@@Z:PROC ; zoom_out_current_map_event
EXTRN	?centre_current_map_on_player@@YGXPAUEVENT@@@Z:PROC ; centre_current_map_on_player
EXTRN	?map_wheel_zoom_in_event@@YGXPAUEVENT@@@Z:PROC	; map_wheel_zoom_in_event
EXTRN	?switch_to_satellite_event@@YGXPAUEVENT@@@Z:PROC ; switch_to_satellite_event
EXTRN	?setup_campaign_quit_mission_dialog@@YGXXZ:PROC	; setup_campaign_quit_mission_dialog
EXTRN	?setup_campaign_quit_campaign_dialog@@YGXXZ:PROC ; setup_campaign_quit_campaign_dialog
EXTRN	?rotate_base_page_3d_scene_heading@@YGXM@Z:PROC	; rotate_base_page_3d_scene_heading
EXTRN	?rotate_base_page_3d_scene_pitch@@YGXM@Z:PROC	; rotate_base_page_3d_scene_pitch
EXTRN	?zoom_base_page_3d_scene@@YGXH@Z:PROC		; zoom_base_page_3d_scene
EXTRN	?rotate_group_page_3d_scene_heading@@YGXM@Z:PROC ; rotate_group_page_3d_scene_heading
EXTRN	?rotate_group_page_3d_scene_pitch@@YGXM@Z:PROC	; rotate_group_page_3d_scene_pitch
EXTRN	?zoom_group_page_3d_scene@@YGXH@Z:PROC		; zoom_group_page_3d_scene
EXTRN	?pop_campaign_history@@YGXPAUUI_OBJECT@@PAX@Z:PROC ; pop_campaign_history
EXTRN	?notify_campaign_screen@@YGHW4CAMPAIGN_SCREEN_MESSAGES@@PAUENTITY@@@Z:PROC ; notify_campaign_screen
EXTRN	?notify_clear_current_selections@@YGXPAUUI_OBJECT@@PAX@Z:PROC ; notify_clear_current_selections
EXTRN	?setup_free_flight_quit_campaign_dialog@@YGXXZ:PROC ; setup_free_flight_quit_campaign_dialog
EXTRN	?get_group_to_task_suitability@@YGMHH@Z:PROC	; get_group_to_task_suitability
EXTRN	?highlighted_object@@3PAUUI_OBJECT@@A:DWORD	; highlighted_object
EXTRN	?fn_get_ui_object_item_number@@3PAP6GHPAUUI_OBJECT@@@ZA:BYTE ; fn_get_ui_object_item_number
EXTRN	?fn_set_ui_object_highlightable@@3PAP6GXPAUUI_OBJECT@@H@ZA:BYTE ; fn_set_ui_object_highlightable
EXTRN	?fn_get_ui_object_child@@3PAP6GPAUUI_OBJECT@@PAU1@@ZA:BYTE ; fn_get_ui_object_child
EXTRN	?fn_get_ui_object_next@@3PAP6GPAUUI_OBJECT@@PAU1@@ZA:BYTE ; fn_get_ui_object_next
EXTRN	?fn_set_ui_object_highlighted_function@@3PAP6GXPAUUI_OBJECT@@P6GX0PAX@Z@ZA:BYTE ; fn_set_ui_object_highlighted_function
EXTRN	?fn_get_ui_object_highlighted_function@@3PAP6GP6GXPAUUI_OBJECT@@PAX@Z0@ZA:BYTE ; fn_get_ui_object_highlighted_function
EXTRN	?fn_set_ui_object_highlighted_notify_on@@3PAP6GXPAUUI_OBJECT@@W4NOTIFY_TYPES@@@ZA:BYTE ; fn_set_ui_object_highlighted_notify_on
EXTRN	?fn_set_ui_object_text@@3PAP6GXPAUUI_OBJECT@@PBD@ZA:BYTE ; fn_set_ui_object_text
EXTRN	?fn_set_ui_object_font_colour@@3PAP6GXPAUUI_OBJECT@@DDDD@ZA:BYTE ; fn_set_ui_object_font_colour
EXTRN	?fn_set_ui_object_highlighted_font_colour@@3PAP6GXPAUUI_OBJECT@@DDDD@ZA:BYTE ; fn_set_ui_object_highlighted_font_colour
EXTRN	?fn_set_ui_object_selected_font_colour@@3PAP6GXPAUUI_OBJECT@@DDDD@ZA:BYTE ; fn_set_ui_object_selected_font_colour
EXTRN	?fn_set_ui_object_texture_graphic@@3PAP6GXPAUUI_OBJECT@@PAUTEXTURE_GRAPHIC@@@ZA:BYTE ; fn_set_ui_object_texture_graphic
EXTRN	?fn_set_ui_object_highlighted_texture_graphic@@3PAP6GXPAUUI_OBJECT@@PAUTEXTURE_GRAPHIC@@@ZA:BYTE ; fn_set_ui_object_highlighted_texture_graphic
EXTRN	?fn_set_ui_object_selected_texture_graphic@@3PAP6GXPAUUI_OBJECT@@PAUTEXTURE_GRAPHIC@@@ZA:BYTE ; fn_set_ui_object_selected_texture_graphic
EXTRN	?ui_ingame_live_text_colour@@3UREAL_COLOUR@@A:DWORD ; ui_ingame_live_text_colour
EXTRN	?ui_ingame_highlight_text_colour@@3UREAL_COLOUR@@A:DWORD ; ui_ingame_highlight_text_colour
EXTRN	?ui_ingame_selected_text_colour@@3UREAL_COLOUR@@A:DWORD ; ui_ingame_selected_text_colour
EXTRN	?in_flight_game_mode@@3W4IN_FLIGHT_GAME_MODES@@A:DWORD ; in_flight_game_mode
EXTRN	?null_entity_pointer_message@@3PBDB:DWORD	; null_entity_pointer_message
EXTRN	?overload_invalid_list_type_message@@3PBDB:DWORD ; overload_invalid_list_type_message
EXTRN	?fn_get_local_entity_first_child@@3PAY0CN@P6GPAUENTITY@@PAU1@W4LIST_TYPES@@@ZA:BYTE ; fn_get_local_entity_first_child
EXTRN	?fn_get_local_entity_parent@@3PAY0CN@P6GPAUENTITY@@PAU1@W4LIST_TYPES@@@ZA:BYTE ; fn_get_local_entity_parent
EXTRN	?fn_get_local_entity_child_succ@@3PAY0CN@P6GPAUENTITY@@PAU1@W4LIST_TYPES@@@ZA:BYTE ; fn_get_local_entity_child_succ
EXTRN	?overload_invalid_int_type_message@@3PBDB:DWORD	; overload_invalid_int_type_message
EXTRN	?fn_get_local_entity_int_value@@3PAY0BBH@P6GHPAUENTITY@@W4INT_TYPES@@@ZA:BYTE ; fn_get_local_entity_int_value
EXTRN	?overload_invalid_string_type_message@@3PBDB:DWORD ; overload_invalid_string_type_message
EXTRN	?fn_get_local_entity_string@@3PAY0N@P6GPBDPAUENTITY@@W4STRING_TYPES@@@ZA:BYTE ; fn_get_local_entity_string
EXTRN	?entities@@3PAUENTITY@@A:DWORD			; entities
EXTRN	?gunship_entity@@3PAUENTITY@@A:DWORD		; gunship_entity
EXTRN	?pilot_entity@@3PAUENTITY@@A:DWORD		; pilot_entity
EXTRN	?task_database@@3PAUTASK_DATA@@A:BYTE		; task_database
EXTRN	?exit_flight_loop_flag@@3HA:DWORD		; exit_flight_loop_flag
EXTRN	?game_type_screen@@3PAUUI_OBJECT@@A:DWORD	; game_type_screen
EXTRN	?game_type@@3W4GAME_TYPES@@A:DWORD		; game_type
EXTRN	?current_game_session@@3PAUSESSION_LIST_DATA_TYPE@@A:DWORD ; current_game_session
EXTRN	__fltused:DWORD
_BSS	SEGMENT
?mouse_over_entity@@3PAUENTITY@@A DD 01H DUP (?)	; mouse_over_entity
?common_slider_graphic@@3PAUTEXTURE_GRAPHIC@@A DD 01H DUP (?) ; common_slider_graphic
?common_slider_bar_graphic@@3PAUTEXTURE_GRAPHIC@@A DD 01H DUP (?) ; common_slider_bar_graphic
?common_slider_bar_highlighted_graphic@@3PAUTEXTURE_GRAPHIC@@A DD 01H DUP (?) ; common_slider_bar_highlighted_graphic
?common_slider_bar_selected_graphic@@3PAUTEXTURE_GRAPHIC@@A DD 01H DUP (?) ; common_slider_bar_selected_graphic
?common_slider_up_graphic@@3PAUTEXTURE_GRAPHIC@@A DD 01H DUP (?) ; common_slider_up_graphic
?common_slider_up_highlighted_graphic@@3PAUTEXTURE_GRAPHIC@@A DD 01H DUP (?) ; common_slider_up_highlighted_graphic
?common_slider_up_selected_graphic@@3PAUTEXTURE_GRAPHIC@@A DD 01H DUP (?) ; common_slider_up_selected_graphic
?common_slider_down_graphic@@3PAUTEXTURE_GRAPHIC@@A DD 01H DUP (?) ; common_slider_down_graphic
?common_slider_down_highlighted_graphic@@3PAUTEXTURE_GRAPHIC@@A DD 01H DUP (?) ; common_slider_down_highlighted_graphic
?common_slider_down_selected_graphic@@3PAUTEXTURE_GRAPHIC@@A DD 01H DUP (?) ; common_slider_down_selected_graphic
_BSS	ENDS
;	COMDAT __real@c1200000
CONST	SEGMENT
__real@c1200000 DD 0c1200000r			; -10
CONST	ENDS
;	COMDAT __real@c0a00000
CONST	SEGMENT
__real@c0a00000 DD 0c0a00000r			; -5
CONST	ENDS
;	COMDAT __real@41700000
CONST	SEGMENT
__real@41700000 DD 041700000r			; 15
CONST	ENDS
;	COMDAT __real@41200000
CONST	SEGMENT
__real@41200000 DD 041200000r			; 10
CONST	ENDS
;	COMDAT __real@40a00000
CONST	SEGMENT
__real@40a00000 DD 040a00000r			; 5
CONST	ENDS
;	COMDAT __real@0000000000000000
CONST	SEGMENT
__real@0000000000000000 DQ 00000000000000000r	; 0
CONST	ENDS
;	COMDAT ??_C@_00CNPNBAHC@@
CONST	SEGMENT
??_C@_00CNPNBAHC@@ DB 00H				; `string'
CONST	ENDS
;	COMDAT ??_C@_0CE@GBJPILOK@common_slider_down_selected_gra@
CONST	SEGMENT
??_C@_0CE@GBJPILOK@common_slider_down_selected_gra@ DB 'common_slider_dow'
	DB	'n_selected_graphic', 00H			; `string'
CONST	ENDS
;	COMDAT ??_C@_0CH@PIPPDCFJ@common_slider_down_highlighted_@
CONST	SEGMENT
??_C@_0CH@PIPPDCFJ@common_slider_down_highlighted_@ DB 'common_slider_dow'
	DB	'n_highlighted_graphic', 00H			; `string'
CONST	ENDS
;	COMDAT ??_C@_0BL@DLBJPFMB@common_slider_down_graphic@
CONST	SEGMENT
??_C@_0BL@DLBJPFMB@common_slider_down_graphic@ DB 'common_slider_down_gra'
	DB	'phic', 00H					; `string'
CONST	ENDS
;	COMDAT ??_C@_0CC@NOJJHAFN@common_slider_up_selected_graph@
CONST	SEGMENT
??_C@_0CC@NOJJHAFN@common_slider_up_selected_graph@ DB 'common_slider_up_'
	DB	'selected_graphic', 00H			; `string'
CONST	ENDS
;	COMDAT ??_C@_0CF@CGMFEHDA@common_slider_up_highlighted_gr@
CONST	SEGMENT
??_C@_0CF@CGMFEHDA@common_slider_up_highlighted_gr@ DB 'common_slider_up_'
	DB	'highlighted_graphic', 00H			; `string'
CONST	ENDS
;	COMDAT ??_C@_0BJ@PGBEHDPP@common_slider_up_graphic@
CONST	SEGMENT
??_C@_0BJ@PGBEHDPP@common_slider_up_graphic@ DB 'common_slider_up_graphic'
	DB	00H						; `string'
CONST	ENDS
;	COMDAT ??_C@_0CD@JKCJEAOP@common_slider_bar_selected_grap@
CONST	SEGMENT
??_C@_0CD@JKCJEAOP@common_slider_bar_selected_grap@ DB 'common_slider_bar'
	DB	'_selected_graphic', 00H			; `string'
CONST	ENDS
;	COMDAT ??_C@_0CG@PEDIOIHF@common_slider_bar_highlighted_g@
CONST	SEGMENT
??_C@_0CG@PEDIOIHF@common_slider_bar_highlighted_g@ DB 'common_slider_bar'
	DB	'_highlighted_graphic', 00H			; `string'
CONST	ENDS
;	COMDAT ??_C@_0BK@BEMKGAJK@common_slider_bar_graphic@
CONST	SEGMENT
??_C@_0BK@BEMKGAJK@common_slider_bar_graphic@ DB 'common_slider_bar_graph'
	DB	'ic', 00H					; `string'
CONST	ENDS
;	COMDAT ??_C@_0BG@KCHPKOMO@common_slider_graphic@
CONST	SEGMENT
??_C@_0BG@KCHPKOMO@common_slider_graphic@ DB 'common_slider_graphic', 00H ; `string'
CONST	ENDS
;	COMDAT ??_C@_06LDFGECMB@slider@
CONST	SEGMENT
??_C@_06LDFGECMB@slider@ DB 'slider', 00H		; `string'
CONST	ENDS
;	COMDAT ?__LINE__Var@?0??set_common_slider_graphics@@YGXPAUUI_OBJECT@@@Z@4JA
_DATA	SEGMENT
?__LINE__Var@?0??set_common_slider_graphics@@YGXPAUUI_OBJECT@@@Z@4JA DD 0360H ; `set_common_slider_graphics'::`1'::__LINE__Var
_DATA	ENDS
;	COMDAT ??_C@_08GNEPIJGF@FASTSAVE@
CONST	SEGMENT
??_C@_08GNEPIJGF@FASTSAVE@ DB 'FASTSAVE', 00H		; `string'
CONST	ENDS
;	COMDAT ??_C@_0P@JGHPCEDJ@Quicksaving?4?4?4@
CONST	SEGMENT
??_C@_0P@JGHPCEDJ@Quicksaving?4?4?4@ DB 'Quicksaving...', 00H ; `string'
CONST	ENDS
;	COMDAT ??_C@_0BN@KJIANJIK@COMMON?3?5Invalid?5Game?5Type?5?$CFd@
CONST	SEGMENT
??_C@_0BN@KJIANJIK@COMMON?3?5Invalid?5Game?5Type?5?$CFd@ DB 'COMMON: Inva'
	DB	'lid Game Type %d', 00H			; `string'
CONST	ENDS
;	COMDAT ??_C@_0BH@DMCIHAF@?$CBget_gunship_entity?5?$CI?$CJ@
CONST	SEGMENT
??_C@_0BH@DMCIHAF@?$CBget_gunship_entity?5?$CI?$CJ@ DB '!get_gunship_enti'
	DB	'ty ()', 00H					; `string'
CONST	ENDS
;	COMDAT ?__LINE__Var@?0??player_quit_current_task@@YGXXZ@4JA
_DATA	SEGMENT
?__LINE__Var@?0??player_quit_current_task@@YGXXZ@4JA DD 0249H ; `player_quit_current_task'::`1'::__LINE__Var
_DATA	ENDS
;	COMDAT ??_C@_0CG@COBGIMAO@COMMON?3?5Player?5?$CFs?5assigned?5to?5t@
CONST	SEGMENT
??_C@_0CG@COBGIMAO@COMMON?3?5Player?5?$CFs?5assigned?5to?5t@ DB 'COMMON: '
	DB	'Player %s assigned to task %s', 00H		; `string'
CONST	ENDS
;	COMDAT ??_C@_0BE@KOLCCDEB@get_pilot_entity?5?$CI?$CJ@
CONST	SEGMENT
??_C@_0BE@KOLCCDEB@get_pilot_entity?5?$CI?$CJ@ DB 'get_pilot_entity ()', 00H ; `string'
CONST	ENDS
;	COMDAT ??_C@_04GGKLLKOO@task@
CONST	SEGMENT
??_C@_04GGKLLKOO@task@ DB 'task', 00H			; `string'
CONST	ENDS
;	COMDAT ??_C@_06INMLIBCJ@mobile@
CONST	SEGMENT
??_C@_06INMLIBCJ@mobile@ DB 'mobile', 00H		; `string'
CONST	ENDS
;	COMDAT ?__LINE__Var@?0??player_assigned_new_task@@YGXPAUENTITY@@0@Z@4JA
_DATA	SEGMENT
?__LINE__Var@?0??player_assigned_new_task@@YGXPAUENTITY@@0@Z@4JA DD 022aH ; `player_assigned_new_task'::`1'::__LINE__Var
_DATA	ENDS
;	COMDAT ?__LINE__Var@?0??get_base_player_suitability_status@@YGHPAUENTITY@@@Z@4JA
_DATA	SEGMENT
?__LINE__Var@?0??get_base_player_suitability_status@@YGHPAUENTITY@@@Z@4JA DD 01b6H ; `get_base_player_suitability_status'::`1'::__LINE__Var
_DATA	ENDS
;	COMDAT ?__LINE__Var@?0??get_group_player_suitability_status@@YGHPAUENTITY@@@Z@4JA
_DATA	SEGMENT
?__LINE__Var@?0??get_group_player_suitability_status@@YGHPAUENTITY@@@Z@4JA DD 0169H ; `get_group_player_suitability_status'::`1'::__LINE__Var
_DATA	ENDS
;	COMDAT ??_C@_05MGJOOGAJ@group@
CONST	SEGMENT
??_C@_05MGJOOGAJ@group@ DB 'group', 00H			; `string'
CONST	ENDS
;	COMDAT ??_C@_05HLIEEKJG@guide@
CONST	SEGMENT
??_C@_05HLIEEKJG@guide@ DB 'guide', 00H			; `string'
CONST	ENDS
;	COMDAT ??_C@_0DE@BLNNEFLP@get_local_entity_type?5?$CIbase?$CJ?5?$DN?$DN@
CONST	SEGMENT
??_C@_0DE@BLNNEFLP@get_local_entity_type?5?$CIbase?$CJ?5?$DN?$DN@ DB 'get'
	DB	'_local_entity_type (base) == ENTITY_TYPE_KEYSITE', 00H ; `string'
CONST	ENDS
;	COMDAT ??_C@_04BHIIPFEC@base@
CONST	SEGMENT
??_C@_04BHIIPFEC@base@ DB 'base', 00H			; `string'
CONST	ENDS
;	COMDAT ?__LINE__Var@?0??get_mission_player_suitability_status@@YGHPAUENTITY@@@Z@4JA
_DATA	SEGMENT
?__LINE__Var@?0??get_mission_player_suitability_status@@YGHPAUENTITY@@@Z@4JA DD 010bH ; `get_mission_player_suitability_status'::`1'::__LINE__Var
_DATA	ENDS
;	COMDAT ?__LINE__Var@?0??set_ui_mouse_over_entity_function@@YGXPAUUI_OBJECT@@@Z@4JA
_DATA	SEGMENT
?__LINE__Var@?0??set_ui_mouse_over_entity_function@@YGXPAUUI_OBJECT@@@Z@4JA DD 0e6H ; `set_ui_mouse_over_entity_function'::`1'::__LINE__Var
_DATA	ENDS
;	COMDAT ??_C@_03GJLPFLNF@obj@
CONST	SEGMENT
??_C@_03GJLPFLNF@obj@ DB 'obj', 00H			; `string'
CONST	ENDS
;	COMDAT ??_C@_0EL@NMGABAFH@c?3?2users?2nhv90?2projects?2eech?2ap@
CONST	SEGMENT
??_C@_0EL@NMGABAFH@c?3?2users?2nhv90?2projects?2eech?2ap@ DB 'c:\users\nh'
	DB	'v90\projects\eech\aphavoc\source\ui_menu\ingame\common\common'
	DB	'.c', 00H					; `string'
CONST	ENDS
;	COMDAT ?__LINE__Var@?0??set_ingame_ui_object_mouse_over_properties@@YGXPAUUI_OBJECT@@@Z@4JA
_DATA	SEGMENT
?__LINE__Var@?0??set_ingame_ui_object_mouse_over_properties@@YGXPAUUI_OBJECT@@@Z@4JA DD 0cfH ; `set_ingame_ui_object_mouse_over_properties'::`1'::__LINE__Var
_DATA	ENDS
;	COMDAT ??_C@_0CE@OKJHOFOB@graphics?2ui?2cohokum?2map?2blkmask@
CONST	SEGMENT
??_C@_0CE@OKJHOFOB@graphics?2ui?2cohokum?2map?2blkmask@ DB 'graphics\ui\c'
	DB	'ohokum\map\blkmask.psd', 00H		; `string'
CONST	ENDS
;	COMDAT ??_C@_0CF@NLCILEI@graphics?2ui?2cohokum?2map?2greymas@
CONST	SEGMENT
??_C@_0CF@NLCILEI@graphics?2ui?2cohokum?2map?2greymas@ DB 'graphics\ui\co'
	DB	'hokum\map\greymask.psd', 00H		; `string'
CONST	ENDS
;	COMDAT ??_C@_0CF@CLPKPOMP@graphics?2ui?2cohokum?2map?2blockpr@
CONST	SEGMENT
??_C@_0CF@CLPKPOMP@graphics?2ui?2cohokum?2map?2blockpr@ DB 'graphics\ui\c'
	DB	'ohokum\map\blockprp.psd', 00H		; `string'
CONST	ENDS
;	COMDAT ??_C@_0CE@JDHGEDNE@graphics?2ui?2cohokum?2map?2divider@
CONST	SEGMENT
??_C@_0CE@JDHGEDNE@graphics?2ui?2cohokum?2map?2divider@ DB 'graphics\ui\c'
	DB	'ohokum\map\divider.psd', 00H		; `string'
CONST	ENDS
;	COMDAT ??_C@_0CF@HHHBPELI@graphics?2ui?2cohokum?2map?2arrdwye@
CONST	SEGMENT
??_C@_0CF@HHHBPELI@graphics?2ui?2cohokum?2map?2arrdwye@ DB 'graphics\ui\c'
	DB	'ohokum\map\arrdwyel.psd', 00H		; `string'
CONST	ENDS
;	COMDAT ??_C@_0CF@OMKJAHLM@graphics?2ui?2cohokum?2map?2arrdwwh@
CONST	SEGMENT
??_C@_0CF@OMKJAHLM@graphics?2ui?2cohokum?2map?2arrdwwh@ DB 'graphics\ui\c'
	DB	'ohokum\map\arrdwwht.psd', 00H		; `string'
CONST	ENDS
;	COMDAT ??_C@_0CF@LOFDIPDD@graphics?2ui?2cohokum?2map?2arrdwpr@
CONST	SEGMENT
??_C@_0CF@LOFDIPDD@graphics?2ui?2cohokum?2map?2arrdwpr@ DB 'graphics\ui\c'
	DB	'ohokum\map\arrdwprp.psd', 00H		; `string'
CONST	ENDS
;	COMDAT ??_C@_0CF@NLHMHDKH@graphics?2ui?2cohokum?2map?2arrupye@
CONST	SEGMENT
??_C@_0CF@NLHMHDKH@graphics?2ui?2cohokum?2map?2arrupye@ DB 'graphics\ui\c'
	DB	'ohokum\map\arrupyel.psd', 00H		; `string'
CONST	ENDS
;	COMDAT ??_C@_0CF@EAKEIAKD@graphics?2ui?2cohokum?2map?2arrupwh@
CONST	SEGMENT
??_C@_0CF@EAKEIAKD@graphics?2ui?2cohokum?2map?2arrupwh@ DB 'graphics\ui\c'
	DB	'ohokum\map\arrupwht.psd', 00H		; `string'
CONST	ENDS
;	COMDAT ??_C@_0CF@BCFOAICM@graphics?2ui?2cohokum?2map?2arruppr@
CONST	SEGMENT
??_C@_0CF@BCFOAICM@graphics?2ui?2cohokum?2map?2arruppr@ DB 'graphics\ui\c'
	DB	'ohokum\map\arrupprp.psd', 00H		; `string'
CONST	ENDS
;	COMDAT ??_C@_0CF@OCOCGBOB@graphics?2ui?2cohokum?2map?2scrolye@
CONST	SEGMENT
??_C@_0CF@OCOCGBOB@graphics?2ui?2cohokum?2map?2scrolye@ DB 'graphics\ui\c'
	DB	'ohokum\map\scrolyel.psd', 00H		; `string'
CONST	ENDS
;	COMDAT ??_C@_0CF@HJDKJCOF@graphics?2ui?2cohokum?2map?2scrolwh@
CONST	SEGMENT
??_C@_0CF@HJDKJCOF@graphics?2ui?2cohokum?2map?2scrolwh@ DB 'graphics\ui\c'
	DB	'ohokum\map\scrolwht.psd', 00H		; `string'
CONST	ENDS
;	COMDAT ??_C@_0CF@CLMABKGK@graphics?2ui?2cohokum?2map?2scrolpr@
CONST	SEGMENT
??_C@_0CF@CLMABKGK@graphics?2ui?2cohokum?2map?2scrolpr@ DB 'graphics\ui\c'
	DB	'ohokum\map\scrolprp.psd', 00H		; `string'
CONST	ENDS
;	COMDAT ??_C@_0CE@IBGODMPK@graphics?2ui?2cohokum?2map?2sbckmap@
CONST	SEGMENT
??_C@_0CE@IBGODMPK@graphics?2ui?2cohokum?2map?2sbckmap@ DB 'graphics\ui\c'
	DB	'ohokum\map\sbckmap.psd', 00H		; `string'
CONST	ENDS
; Function compile flags: /Odtp /ZI
; File c:\users\nhv90\projects\eech\aphavoc\source\ui_menu\ingame\common\common.c
;	COMDAT ?quicksave_event@@YGXPAUEVENT@@@Z
_TEXT	SEGMENT
_ev$ = 8						; size = 4
?quicksave_event@@YGXPAUEVENT@@@Z PROC			; quicksave_event, COMDAT

; 737  : {

  00000	55		 push	 ebp
  00001	8b ec		 mov	 ebp, esp
  00003	83 ec 40	 sub	 esp, 64			; 00000040H
  00006	53		 push	 ebx
  00007	56		 push	 esi
  00008	57		 push	 edi

; 738  : 	debug_log ( "Quicksaving..." );

  00009	68 00 00 00 00	 push	 OFFSET ??_C@_0P@JGHPCEDJ@Quicksaving?4?4?4@
  0000e	e8 00 00 00 00	 call	 ?debug_log@@YAXPBDZZ	; debug_log
  00013	83 c4 04	 add	 esp, 4

; 739  : 	store_session ( get_current_game_session (), "FASTSAVE" );

  00016	68 00 00 00 00	 push	 OFFSET ??_C@_08GNEPIJGF@FASTSAVE@
  0001b	a1 00 00 00 00	 mov	 eax, DWORD PTR ?current_game_session@@3PAUSESSION_LIST_DATA_TYPE@@A ; current_game_session
  00020	50		 push	 eax
  00021	e8 00 00 00 00	 call	 ?store_session@@YGHPAUSESSION_LIST_DATA_TYPE@@PBD@Z ; store_session

; 740  : }

  00026	5f		 pop	 edi
  00027	5e		 pop	 esi
  00028	5b		 pop	 ebx
  00029	8b e5		 mov	 esp, ebp
  0002b	5d		 pop	 ebp
  0002c	c2 04 00	 ret	 4
?quicksave_event@@YGXPAUEVENT@@@Z ENDP			; quicksave_event
_TEXT	ENDS
; Function compile flags: /Odtp /ZI
; File c:\users\nhv90\projects\eech\aphavoc\source\ui_menu\ingame\common\common.c
;	COMDAT ?adjust_3d_preview_zoom_out_event@@YGXPAUEVENT@@@Z
_TEXT	SEGMENT
_ev$ = 8						; size = 4
?adjust_3d_preview_zoom_out_event@@YGXPAUEVENT@@@Z PROC	; adjust_3d_preview_zoom_out_event, COMDAT

; 726  : {

  00000	55		 push	 ebp
  00001	8b ec		 mov	 ebp, esp
  00003	83 ec 40	 sub	 esp, 64			; 00000040H
  00006	53		 push	 ebx
  00007	56		 push	 esi
  00008	57		 push	 edi

; 727  : 	zoom_base_page_3d_scene (-1);

  00009	6a ff		 push	 -1
  0000b	e8 00 00 00 00	 call	 ?zoom_base_page_3d_scene@@YGXH@Z ; zoom_base_page_3d_scene

; 728  : 	zoom_group_page_3d_scene (-1);

  00010	6a ff		 push	 -1
  00012	e8 00 00 00 00	 call	 ?zoom_group_page_3d_scene@@YGXH@Z ; zoom_group_page_3d_scene

; 729  : }

  00017	5f		 pop	 edi
  00018	5e		 pop	 esi
  00019	5b		 pop	 ebx
  0001a	8b e5		 mov	 esp, ebp
  0001c	5d		 pop	 ebp
  0001d	c2 04 00	 ret	 4
?adjust_3d_preview_zoom_out_event@@YGXPAUEVENT@@@Z ENDP	; adjust_3d_preview_zoom_out_event
_TEXT	ENDS
; Function compile flags: /Odtp /ZI
; File c:\users\nhv90\projects\eech\aphavoc\source\ui_menu\ingame\common\common.c
;	COMDAT ?adjust_3d_preview_zoom_in_event@@YGXPAUEVENT@@@Z
_TEXT	SEGMENT
_ev$ = 8						; size = 4
?adjust_3d_preview_zoom_in_event@@YGXPAUEVENT@@@Z PROC	; adjust_3d_preview_zoom_in_event, COMDAT

; 716  : {

  00000	55		 push	 ebp
  00001	8b ec		 mov	 ebp, esp
  00003	83 ec 40	 sub	 esp, 64			; 00000040H
  00006	53		 push	 ebx
  00007	56		 push	 esi
  00008	57		 push	 edi

; 717  : 	zoom_base_page_3d_scene (1);

  00009	6a 01		 push	 1
  0000b	e8 00 00 00 00	 call	 ?zoom_base_page_3d_scene@@YGXH@Z ; zoom_base_page_3d_scene

; 718  : 	zoom_group_page_3d_scene (1);

  00010	6a 01		 push	 1
  00012	e8 00 00 00 00	 call	 ?zoom_group_page_3d_scene@@YGXH@Z ; zoom_group_page_3d_scene

; 719  : }

  00017	5f		 pop	 edi
  00018	5e		 pop	 esi
  00019	5b		 pop	 ebx
  0001a	8b e5		 mov	 esp, ebp
  0001c	5d		 pop	 ebp
  0001d	c2 04 00	 ret	 4
?adjust_3d_preview_zoom_in_event@@YGXPAUEVENT@@@Z ENDP	; adjust_3d_preview_zoom_in_event
_TEXT	ENDS
; Function compile flags: /Odtp /ZI
; File c:\users\nhv90\projects\eech\aphavoc\source\ui_menu\ingame\common\common.c
;	COMDAT ?adjust_3d_preview_pitch_down_event@@YGXPAUEVENT@@@Z
_TEXT	SEGMENT
_ev$ = 8						; size = 4
?adjust_3d_preview_pitch_down_event@@YGXPAUEVENT@@@Z PROC ; adjust_3d_preview_pitch_down_event, COMDAT

; 706  : {

  00000	55		 push	 ebp
  00001	8b ec		 mov	 ebp, esp
  00003	83 ec 40	 sub	 esp, 64			; 00000040H
  00006	53		 push	 ebx
  00007	56		 push	 esi
  00008	57		 push	 edi

; 707  : 	rotate_base_page_3d_scene_pitch (-5.0);

  00009	51		 push	 ecx
  0000a	f3 0f 10 05 00
	00 00 00	 movss	 xmm0, DWORD PTR __real@c0a00000
  00012	f3 0f 11 04 24	 movss	 DWORD PTR [esp], xmm0
  00017	e8 00 00 00 00	 call	 ?rotate_base_page_3d_scene_pitch@@YGXM@Z ; rotate_base_page_3d_scene_pitch

; 708  : 	rotate_group_page_3d_scene_pitch (-5.0);

  0001c	51		 push	 ecx
  0001d	f3 0f 10 05 00
	00 00 00	 movss	 xmm0, DWORD PTR __real@c0a00000
  00025	f3 0f 11 04 24	 movss	 DWORD PTR [esp], xmm0
  0002a	e8 00 00 00 00	 call	 ?rotate_group_page_3d_scene_pitch@@YGXM@Z ; rotate_group_page_3d_scene_pitch

; 709  : }

  0002f	5f		 pop	 edi
  00030	5e		 pop	 esi
  00031	5b		 pop	 ebx
  00032	8b e5		 mov	 esp, ebp
  00034	5d		 pop	 ebp
  00035	c2 04 00	 ret	 4
?adjust_3d_preview_pitch_down_event@@YGXPAUEVENT@@@Z ENDP ; adjust_3d_preview_pitch_down_event
_TEXT	ENDS
; Function compile flags: /Odtp /ZI
; File c:\users\nhv90\projects\eech\aphavoc\source\ui_menu\ingame\common\common.c
;	COMDAT ?adjust_3d_preview_pitch_up_event@@YGXPAUEVENT@@@Z
_TEXT	SEGMENT
_ev$ = 8						; size = 4
?adjust_3d_preview_pitch_up_event@@YGXPAUEVENT@@@Z PROC	; adjust_3d_preview_pitch_up_event, COMDAT

; 696  : {

  00000	55		 push	 ebp
  00001	8b ec		 mov	 ebp, esp
  00003	83 ec 40	 sub	 esp, 64			; 00000040H
  00006	53		 push	 ebx
  00007	56		 push	 esi
  00008	57		 push	 edi

; 697  : 	rotate_base_page_3d_scene_pitch (5.0);

  00009	51		 push	 ecx
  0000a	f3 0f 10 05 00
	00 00 00	 movss	 xmm0, DWORD PTR __real@40a00000
  00012	f3 0f 11 04 24	 movss	 DWORD PTR [esp], xmm0
  00017	e8 00 00 00 00	 call	 ?rotate_base_page_3d_scene_pitch@@YGXM@Z ; rotate_base_page_3d_scene_pitch

; 698  : 	rotate_group_page_3d_scene_pitch (5.0);

  0001c	51		 push	 ecx
  0001d	f3 0f 10 05 00
	00 00 00	 movss	 xmm0, DWORD PTR __real@40a00000
  00025	f3 0f 11 04 24	 movss	 DWORD PTR [esp], xmm0
  0002a	e8 00 00 00 00	 call	 ?rotate_group_page_3d_scene_pitch@@YGXM@Z ; rotate_group_page_3d_scene_pitch

; 699  : }

  0002f	5f		 pop	 edi
  00030	5e		 pop	 esi
  00031	5b		 pop	 ebx
  00032	8b e5		 mov	 esp, ebp
  00034	5d		 pop	 ebp
  00035	c2 04 00	 ret	 4
?adjust_3d_preview_pitch_up_event@@YGXPAUEVENT@@@Z ENDP	; adjust_3d_preview_pitch_up_event
_TEXT	ENDS
; Function compile flags: /Odtp /ZI
; File c:\users\nhv90\projects\eech\aphavoc\source\ui_menu\ingame\common\common.c
;	COMDAT ?adjust_3d_preview_heading_right_event@@YGXPAUEVENT@@@Z
_TEXT	SEGMENT
_ev$ = 8						; size = 4
?adjust_3d_preview_heading_right_event@@YGXPAUEVENT@@@Z PROC ; adjust_3d_preview_heading_right_event, COMDAT

; 686  : {

  00000	55		 push	 ebp
  00001	8b ec		 mov	 ebp, esp
  00003	83 ec 40	 sub	 esp, 64			; 00000040H
  00006	53		 push	 ebx
  00007	56		 push	 esi
  00008	57		 push	 edi

; 687  : 	rotate_base_page_3d_scene_heading (-10.0);

  00009	51		 push	 ecx
  0000a	f3 0f 10 05 00
	00 00 00	 movss	 xmm0, DWORD PTR __real@c1200000
  00012	f3 0f 11 04 24	 movss	 DWORD PTR [esp], xmm0
  00017	e8 00 00 00 00	 call	 ?rotate_base_page_3d_scene_heading@@YGXM@Z ; rotate_base_page_3d_scene_heading

; 688  : 	rotate_group_page_3d_scene_heading (-10.0);

  0001c	51		 push	 ecx
  0001d	f3 0f 10 05 00
	00 00 00	 movss	 xmm0, DWORD PTR __real@c1200000
  00025	f3 0f 11 04 24	 movss	 DWORD PTR [esp], xmm0
  0002a	e8 00 00 00 00	 call	 ?rotate_group_page_3d_scene_heading@@YGXM@Z ; rotate_group_page_3d_scene_heading

; 689  : }

  0002f	5f		 pop	 edi
  00030	5e		 pop	 esi
  00031	5b		 pop	 ebx
  00032	8b e5		 mov	 esp, ebp
  00034	5d		 pop	 ebp
  00035	c2 04 00	 ret	 4
?adjust_3d_preview_heading_right_event@@YGXPAUEVENT@@@Z ENDP ; adjust_3d_preview_heading_right_event
_TEXT	ENDS
; Function compile flags: /Odtp /ZI
; File c:\users\nhv90\projects\eech\aphavoc\source\ui_menu\ingame\common\common.c
;	COMDAT ?adjust_3d_preview_heading_left_event@@YGXPAUEVENT@@@Z
_TEXT	SEGMENT
_ev$ = 8						; size = 4
?adjust_3d_preview_heading_left_event@@YGXPAUEVENT@@@Z PROC ; adjust_3d_preview_heading_left_event, COMDAT

; 676  : {

  00000	55		 push	 ebp
  00001	8b ec		 mov	 ebp, esp
  00003	83 ec 40	 sub	 esp, 64			; 00000040H
  00006	53		 push	 ebx
  00007	56		 push	 esi
  00008	57		 push	 edi

; 677  : 	rotate_base_page_3d_scene_heading (10.0);

  00009	51		 push	 ecx
  0000a	f3 0f 10 05 00
	00 00 00	 movss	 xmm0, DWORD PTR __real@41200000
  00012	f3 0f 11 04 24	 movss	 DWORD PTR [esp], xmm0
  00017	e8 00 00 00 00	 call	 ?rotate_base_page_3d_scene_heading@@YGXM@Z ; rotate_base_page_3d_scene_heading

; 678  : 	rotate_group_page_3d_scene_heading (10.0);

  0001c	51		 push	 ecx
  0001d	f3 0f 10 05 00
	00 00 00	 movss	 xmm0, DWORD PTR __real@41200000
  00025	f3 0f 11 04 24	 movss	 DWORD PTR [esp], xmm0
  0002a	e8 00 00 00 00	 call	 ?rotate_group_page_3d_scene_heading@@YGXM@Z ; rotate_group_page_3d_scene_heading

; 679  : }

  0002f	5f		 pop	 edi
  00030	5e		 pop	 esi
  00031	5b		 pop	 ebx
  00032	8b e5		 mov	 esp, ebp
  00034	5d		 pop	 ebp
  00035	c2 04 00	 ret	 4
?adjust_3d_preview_heading_left_event@@YGXPAUEVENT@@@Z ENDP ; adjust_3d_preview_heading_left_event
_TEXT	ENDS
; Function compile flags: /Odtp /ZI
; File c:\users\nhv90\projects\eech\aphavoc\source\ui_menu\ingame\common\common.c
;	COMDAT ?delete_waypoint_event@@YGXPAUEVENT@@@Z
_TEXT	SEGMENT
_ev$ = 8						; size = 4
?delete_waypoint_event@@YGXPAUEVENT@@@Z PROC		; delete_waypoint_event, COMDAT

; 667  : {

  00000	55		 push	 ebp
  00001	8b ec		 mov	 ebp, esp
  00003	83 ec 40	 sub	 esp, 64			; 00000040H
  00006	53		 push	 ebx
  00007	56		 push	 esi
  00008	57		 push	 edi

; 668  : 	map_delete_waypoint_event();

  00009	e8 00 00 00 00	 call	 ?map_delete_waypoint_event@@YGXXZ ; map_delete_waypoint_event

; 669  : }

  0000e	5f		 pop	 edi
  0000f	5e		 pop	 esi
  00010	5b		 pop	 ebx
  00011	8b e5		 mov	 esp, ebp
  00013	5d		 pop	 ebp
  00014	c2 04 00	 ret	 4
?delete_waypoint_event@@YGXPAUEVENT@@@Z ENDP		; delete_waypoint_event
_TEXT	ENDS
; Function compile flags: /Odtp /ZI
; File c:\users\nhv90\projects\eech\aphavoc\source\ui_menu\ingame\common\common.c
;	COMDAT ?page_back_event@@YGXPAUEVENT@@@Z
_TEXT	SEGMENT
_ev$ = 8						; size = 4
?page_back_event@@YGXPAUEVENT@@@Z PROC			; page_back_event, COMDAT

; 611  : {

  00000	55		 push	 ebp
  00001	8b ec		 mov	 ebp, esp
  00003	83 ec 40	 sub	 esp, 64			; 00000040H
  00006	53		 push	 ebx
  00007	56		 push	 esi
  00008	57		 push	 edi

; 612  : 	minimize_all_map_objects ();

  00009	e8 00 00 00 00	 call	 ?minimize_all_map_objects@@YGXXZ ; minimize_all_map_objects

; 613  : 
; 614  : 	pop_campaign_history (NULL, NULL);

  0000e	6a 00		 push	 0
  00010	6a 00		 push	 0
  00012	e8 00 00 00 00	 call	 ?pop_campaign_history@@YGXPAUUI_OBJECT@@PAX@Z ; pop_campaign_history

; 615  : }

  00017	5f		 pop	 edi
  00018	5e		 pop	 esi
  00019	5b		 pop	 ebx
  0001a	8b e5		 mov	 esp, ebp
  0001c	5d		 pop	 ebp
  0001d	c2 04 00	 ret	 4
?page_back_event@@YGXPAUEVENT@@@Z ENDP			; page_back_event
_TEXT	ENDS
; Function compile flags: /Odtp /ZI
; File c:\users\nhv90\projects\eech\aphavoc\source\ui_menu\ingame\common\common.c
;	COMDAT ?entity_mouse_over_function@@YGXPAUUI_OBJECT@@PAX@Z
_TEXT	SEGMENT
_obj$ = 8						; size = 4
_arg$ = 12						; size = 4
?entity_mouse_over_function@@YGXPAUUI_OBJECT@@PAX@Z PROC ; entity_mouse_over_function, COMDAT

; 199  : {

  00000	55		 push	 ebp
  00001	8b ec		 mov	 ebp, esp
  00003	83 ec 40	 sub	 esp, 64			; 00000040H
  00006	53		 push	 ebx
  00007	56		 push	 esi
  00008	57		 push	 edi

; 200  : }

  00009	5f		 pop	 edi
  0000a	5e		 pop	 esi
  0000b	5b		 pop	 ebx
  0000c	8b e5		 mov	 esp, ebp
  0000e	5d		 pop	 ebp
  0000f	c2 08 00	 ret	 8
?entity_mouse_over_function@@YGXPAUUI_OBJECT@@PAX@Z ENDP ; entity_mouse_over_function
_TEXT	ENDS
; Function compile flags: /Odtp /ZI
; File c:\users\nhv90\projects\eech\aphavoc\source\ui_menu\ingame\common\common.c
;	COMDAT ?set_common_slider_graphics@@YGXPAUUI_OBJECT@@@Z
_TEXT	SEGMENT
_slider$ = -8						; size = 4
_temp$ = -4						; size = 4
_parent$ = 8						; size = 4
?set_common_slider_graphics@@YGXPAUUI_OBJECT@@@Z PROC	; set_common_slider_graphics, COMDAT

; 864  : {

  00000	55		 push	 ebp
  00001	8b ec		 mov	 ebp, esp
  00003	83 ec 48	 sub	 esp, 72			; 00000048H
  00006	53		 push	 ebx
  00007	56		 push	 esi
  00008	57		 push	 edi

; 865  : 	ui_object
; 866  : 		*temp,
; 867  : 		*slider;
; 868  : 
; 869  : 	slider = get_ui_object_vslider (parent);

  00009	8b 45 08	 mov	 eax, DWORD PTR _parent$[ebp]
  0000c	50		 push	 eax
  0000d	e8 00 00 00 00	 call	 ?get_ui_object_vslider@@YGPAUUI_OBJECT@@PAU1@@Z ; get_ui_object_vslider
  00012	89 45 f8	 mov	 DWORD PTR _slider$[ebp], eax

; 870  : 
; 871  : 	ASSERT (slider);

  00015	83 7d f8 00	 cmp	 DWORD PTR _slider$[ebp], 0
  00019	75 18		 jne	 SHORT $LN2@set_common
  0001b	a1 00 00 00 00	 mov	 eax, DWORD PTR ?__LINE__Var@?0??set_common_slider_graphics@@YGXPAUUI_OBJECT@@@Z@4JA
  00020	83 c0 07	 add	 eax, 7
  00023	50		 push	 eax
  00024	68 00 00 00 00	 push	 OFFSET ??_C@_0EL@NMGABAFH@c?3?2users?2nhv90?2projects?2eech?2ap@
  00029	68 00 00 00 00	 push	 OFFSET ??_C@_06LDFGECMB@slider@
  0002e	e8 00 00 00 00	 call	 ?process_assert@@YGXPBD0H@Z ; process_assert
$LN2@set_common:

; 872  : 
; 873  : 	ASSERT (common_slider_graphic);

  00033	83 3d 00 00 00
	00 00		 cmp	 DWORD PTR ?common_slider_graphic@@3PAUTEXTURE_GRAPHIC@@A, 0
  0003a	75 18		 jne	 SHORT $LN3@set_common
  0003c	a1 00 00 00 00	 mov	 eax, DWORD PTR ?__LINE__Var@?0??set_common_slider_graphics@@YGXPAUUI_OBJECT@@@Z@4JA
  00041	83 c0 09	 add	 eax, 9
  00044	50		 push	 eax
  00045	68 00 00 00 00	 push	 OFFSET ??_C@_0EL@NMGABAFH@c?3?2users?2nhv90?2projects?2eech?2ap@
  0004a	68 00 00 00 00	 push	 OFFSET ??_C@_0BG@KCHPKOMO@common_slider_graphic@
  0004f	e8 00 00 00 00	 call	 ?process_assert@@YGXPBD0H@Z ; process_assert
$LN3@set_common:

; 874  : 
; 875  : 	ASSERT (common_slider_bar_graphic);

  00054	83 3d 00 00 00
	00 00		 cmp	 DWORD PTR ?common_slider_bar_graphic@@3PAUTEXTURE_GRAPHIC@@A, 0
  0005b	75 18		 jne	 SHORT $LN4@set_common
  0005d	a1 00 00 00 00	 mov	 eax, DWORD PTR ?__LINE__Var@?0??set_common_slider_graphics@@YGXPAUUI_OBJECT@@@Z@4JA
  00062	83 c0 0b	 add	 eax, 11			; 0000000bH
  00065	50		 push	 eax
  00066	68 00 00 00 00	 push	 OFFSET ??_C@_0EL@NMGABAFH@c?3?2users?2nhv90?2projects?2eech?2ap@
  0006b	68 00 00 00 00	 push	 OFFSET ??_C@_0BK@BEMKGAJK@common_slider_bar_graphic@
  00070	e8 00 00 00 00	 call	 ?process_assert@@YGXPBD0H@Z ; process_assert
$LN4@set_common:

; 876  : 	ASSERT (common_slider_bar_highlighted_graphic);

  00075	83 3d 00 00 00
	00 00		 cmp	 DWORD PTR ?common_slider_bar_highlighted_graphic@@3PAUTEXTURE_GRAPHIC@@A, 0
  0007c	75 18		 jne	 SHORT $LN5@set_common
  0007e	a1 00 00 00 00	 mov	 eax, DWORD PTR ?__LINE__Var@?0??set_common_slider_graphics@@YGXPAUUI_OBJECT@@@Z@4JA
  00083	83 c0 0c	 add	 eax, 12			; 0000000cH
  00086	50		 push	 eax
  00087	68 00 00 00 00	 push	 OFFSET ??_C@_0EL@NMGABAFH@c?3?2users?2nhv90?2projects?2eech?2ap@
  0008c	68 00 00 00 00	 push	 OFFSET ??_C@_0CG@PEDIOIHF@common_slider_bar_highlighted_g@
  00091	e8 00 00 00 00	 call	 ?process_assert@@YGXPBD0H@Z ; process_assert
$LN5@set_common:

; 877  : 	ASSERT (common_slider_bar_selected_graphic);

  00096	83 3d 00 00 00
	00 00		 cmp	 DWORD PTR ?common_slider_bar_selected_graphic@@3PAUTEXTURE_GRAPHIC@@A, 0
  0009d	75 18		 jne	 SHORT $LN6@set_common
  0009f	a1 00 00 00 00	 mov	 eax, DWORD PTR ?__LINE__Var@?0??set_common_slider_graphics@@YGXPAUUI_OBJECT@@@Z@4JA
  000a4	83 c0 0d	 add	 eax, 13			; 0000000dH
  000a7	50		 push	 eax
  000a8	68 00 00 00 00	 push	 OFFSET ??_C@_0EL@NMGABAFH@c?3?2users?2nhv90?2projects?2eech?2ap@
  000ad	68 00 00 00 00	 push	 OFFSET ??_C@_0CD@JKCJEAOP@common_slider_bar_selected_grap@
  000b2	e8 00 00 00 00	 call	 ?process_assert@@YGXPBD0H@Z ; process_assert
$LN6@set_common:

; 878  : 
; 879  : 	ASSERT (common_slider_up_graphic);

  000b7	83 3d 00 00 00
	00 00		 cmp	 DWORD PTR ?common_slider_up_graphic@@3PAUTEXTURE_GRAPHIC@@A, 0
  000be	75 18		 jne	 SHORT $LN7@set_common
  000c0	a1 00 00 00 00	 mov	 eax, DWORD PTR ?__LINE__Var@?0??set_common_slider_graphics@@YGXPAUUI_OBJECT@@@Z@4JA
  000c5	83 c0 0f	 add	 eax, 15			; 0000000fH
  000c8	50		 push	 eax
  000c9	68 00 00 00 00	 push	 OFFSET ??_C@_0EL@NMGABAFH@c?3?2users?2nhv90?2projects?2eech?2ap@
  000ce	68 00 00 00 00	 push	 OFFSET ??_C@_0BJ@PGBEHDPP@common_slider_up_graphic@
  000d3	e8 00 00 00 00	 call	 ?process_assert@@YGXPBD0H@Z ; process_assert
$LN7@set_common:

; 880  : 	ASSERT (common_slider_up_highlighted_graphic);

  000d8	83 3d 00 00 00
	00 00		 cmp	 DWORD PTR ?common_slider_up_highlighted_graphic@@3PAUTEXTURE_GRAPHIC@@A, 0
  000df	75 18		 jne	 SHORT $LN8@set_common
  000e1	a1 00 00 00 00	 mov	 eax, DWORD PTR ?__LINE__Var@?0??set_common_slider_graphics@@YGXPAUUI_OBJECT@@@Z@4JA
  000e6	83 c0 10	 add	 eax, 16			; 00000010H
  000e9	50		 push	 eax
  000ea	68 00 00 00 00	 push	 OFFSET ??_C@_0EL@NMGABAFH@c?3?2users?2nhv90?2projects?2eech?2ap@
  000ef	68 00 00 00 00	 push	 OFFSET ??_C@_0CF@CGMFEHDA@common_slider_up_highlighted_gr@
  000f4	e8 00 00 00 00	 call	 ?process_assert@@YGXPBD0H@Z ; process_assert
$LN8@set_common:

; 881  : 	ASSERT (common_slider_up_selected_graphic);

  000f9	83 3d 00 00 00
	00 00		 cmp	 DWORD PTR ?common_slider_up_selected_graphic@@3PAUTEXTURE_GRAPHIC@@A, 0
  00100	75 18		 jne	 SHORT $LN9@set_common
  00102	a1 00 00 00 00	 mov	 eax, DWORD PTR ?__LINE__Var@?0??set_common_slider_graphics@@YGXPAUUI_OBJECT@@@Z@4JA
  00107	83 c0 11	 add	 eax, 17			; 00000011H
  0010a	50		 push	 eax
  0010b	68 00 00 00 00	 push	 OFFSET ??_C@_0EL@NMGABAFH@c?3?2users?2nhv90?2projects?2eech?2ap@
  00110	68 00 00 00 00	 push	 OFFSET ??_C@_0CC@NOJJHAFN@common_slider_up_selected_graph@
  00115	e8 00 00 00 00	 call	 ?process_assert@@YGXPBD0H@Z ; process_assert
$LN9@set_common:

; 882  : 
; 883  : 	ASSERT (common_slider_down_graphic);

  0011a	83 3d 00 00 00
	00 00		 cmp	 DWORD PTR ?common_slider_down_graphic@@3PAUTEXTURE_GRAPHIC@@A, 0
  00121	75 18		 jne	 SHORT $LN10@set_common
  00123	a1 00 00 00 00	 mov	 eax, DWORD PTR ?__LINE__Var@?0??set_common_slider_graphics@@YGXPAUUI_OBJECT@@@Z@4JA
  00128	83 c0 13	 add	 eax, 19			; 00000013H
  0012b	50		 push	 eax
  0012c	68 00 00 00 00	 push	 OFFSET ??_C@_0EL@NMGABAFH@c?3?2users?2nhv90?2projects?2eech?2ap@
  00131	68 00 00 00 00	 push	 OFFSET ??_C@_0BL@DLBJPFMB@common_slider_down_graphic@
  00136	e8 00 00 00 00	 call	 ?process_assert@@YGXPBD0H@Z ; process_assert
$LN10@set_common:

; 884  : 	ASSERT (common_slider_down_highlighted_graphic);

  0013b	83 3d 00 00 00
	00 00		 cmp	 DWORD PTR ?common_slider_down_highlighted_graphic@@3PAUTEXTURE_GRAPHIC@@A, 0
  00142	75 18		 jne	 SHORT $LN11@set_common
  00144	a1 00 00 00 00	 mov	 eax, DWORD PTR ?__LINE__Var@?0??set_common_slider_graphics@@YGXPAUUI_OBJECT@@@Z@4JA
  00149	83 c0 14	 add	 eax, 20			; 00000014H
  0014c	50		 push	 eax
  0014d	68 00 00 00 00	 push	 OFFSET ??_C@_0EL@NMGABAFH@c?3?2users?2nhv90?2projects?2eech?2ap@
  00152	68 00 00 00 00	 push	 OFFSET ??_C@_0CH@PIPPDCFJ@common_slider_down_highlighted_@
  00157	e8 00 00 00 00	 call	 ?process_assert@@YGXPBD0H@Z ; process_assert
$LN11@set_common:

; 885  : 	ASSERT (common_slider_down_selected_graphic);

  0015c	83 3d 00 00 00
	00 00		 cmp	 DWORD PTR ?common_slider_down_selected_graphic@@3PAUTEXTURE_GRAPHIC@@A, 0
  00163	75 18		 jne	 SHORT $LN12@set_common
  00165	a1 00 00 00 00	 mov	 eax, DWORD PTR ?__LINE__Var@?0??set_common_slider_graphics@@YGXPAUUI_OBJECT@@@Z@4JA
  0016a	83 c0 15	 add	 eax, 21			; 00000015H
  0016d	50		 push	 eax
  0016e	68 00 00 00 00	 push	 OFFSET ??_C@_0EL@NMGABAFH@c?3?2users?2nhv90?2projects?2eech?2ap@
  00173	68 00 00 00 00	 push	 OFFSET ??_C@_0CE@GBJPILOK@common_slider_down_selected_gra@
  00178	e8 00 00 00 00	 call	 ?process_assert@@YGXPBD0H@Z ; process_assert
$LN12@set_common:

; 886  : 
; 887  : 	set_ui_object_texture_graphic (slider, common_slider_graphic);

  0017d	a1 00 00 00 00	 mov	 eax, DWORD PTR ?common_slider_graphic@@3PAUTEXTURE_GRAPHIC@@A
  00182	50		 push	 eax
  00183	8b 4d f8	 mov	 ecx, DWORD PTR _slider$[ebp]
  00186	51		 push	 ecx
  00187	8b 55 f8	 mov	 edx, DWORD PTR _slider$[ebp]
  0018a	8b 02		 mov	 eax, DWORD PTR [edx]
  0018c	8b 0c 85 00 00
	00 00		 mov	 ecx, DWORD PTR ?fn_set_ui_object_texture_graphic@@3PAP6GXPAUUI_OBJECT@@PAUTEXTURE_GRAPHIC@@@ZA[eax*4]
  00193	ff d1		 call	 ecx

; 888  : 
; 889  : 	// get slider & set graphic
; 890  : 	temp = get_ui_object_child (slider);

  00195	8b 45 f8	 mov	 eax, DWORD PTR _slider$[ebp]
  00198	50		 push	 eax
  00199	8b 4d f8	 mov	 ecx, DWORD PTR _slider$[ebp]
  0019c	8b 11		 mov	 edx, DWORD PTR [ecx]
  0019e	8b 04 95 00 00
	00 00		 mov	 eax, DWORD PTR ?fn_get_ui_object_child@@3PAP6GPAUUI_OBJECT@@PAU1@@ZA[edx*4]
  001a5	ff d0		 call	 eax
  001a7	89 45 fc	 mov	 DWORD PTR _temp$[ebp], eax

; 891  : 	set_ui_object_texture_graphic (temp, common_slider_bar_graphic);

  001aa	a1 00 00 00 00	 mov	 eax, DWORD PTR ?common_slider_bar_graphic@@3PAUTEXTURE_GRAPHIC@@A
  001af	50		 push	 eax
  001b0	8b 4d fc	 mov	 ecx, DWORD PTR _temp$[ebp]
  001b3	51		 push	 ecx
  001b4	8b 55 fc	 mov	 edx, DWORD PTR _temp$[ebp]
  001b7	8b 02		 mov	 eax, DWORD PTR [edx]
  001b9	8b 0c 85 00 00
	00 00		 mov	 ecx, DWORD PTR ?fn_set_ui_object_texture_graphic@@3PAP6GXPAUUI_OBJECT@@PAUTEXTURE_GRAPHIC@@@ZA[eax*4]
  001c0	ff d1		 call	 ecx

; 892  : 	set_ui_object_highlighted_texture_graphic (temp, common_slider_bar_highlighted_graphic);

  001c2	a1 00 00 00 00	 mov	 eax, DWORD PTR ?common_slider_bar_highlighted_graphic@@3PAUTEXTURE_GRAPHIC@@A
  001c7	50		 push	 eax
  001c8	8b 4d fc	 mov	 ecx, DWORD PTR _temp$[ebp]
  001cb	51		 push	 ecx
  001cc	8b 55 fc	 mov	 edx, DWORD PTR _temp$[ebp]
  001cf	8b 02		 mov	 eax, DWORD PTR [edx]
  001d1	8b 0c 85 00 00
	00 00		 mov	 ecx, DWORD PTR ?fn_set_ui_object_highlighted_texture_graphic@@3PAP6GXPAUUI_OBJECT@@PAUTEXTURE_GRAPHIC@@@ZA[eax*4]
  001d8	ff d1		 call	 ecx

; 893  : 	set_ui_object_selected_texture_graphic (temp, common_slider_bar_selected_graphic);

  001da	a1 00 00 00 00	 mov	 eax, DWORD PTR ?common_slider_bar_selected_graphic@@3PAUTEXTURE_GRAPHIC@@A
  001df	50		 push	 eax
  001e0	8b 4d fc	 mov	 ecx, DWORD PTR _temp$[ebp]
  001e3	51		 push	 ecx
  001e4	8b 55 fc	 mov	 edx, DWORD PTR _temp$[ebp]
  001e7	8b 02		 mov	 eax, DWORD PTR [edx]
  001e9	8b 0c 85 00 00
	00 00		 mov	 ecx, DWORD PTR ?fn_set_ui_object_selected_texture_graphic@@3PAP6GXPAUUI_OBJECT@@PAUTEXTURE_GRAPHIC@@@ZA[eax*4]
  001f0	ff d1		 call	 ecx

; 894  : 	set_ui_object_text (temp, "");

  001f2	68 00 00 00 00	 push	 OFFSET ??_C@_00CNPNBAHC@@
  001f7	8b 45 fc	 mov	 eax, DWORD PTR _temp$[ebp]
  001fa	50		 push	 eax
  001fb	8b 4d fc	 mov	 ecx, DWORD PTR _temp$[ebp]
  001fe	8b 11		 mov	 edx, DWORD PTR [ecx]
  00200	8b 04 95 00 00
	00 00		 mov	 eax, DWORD PTR ?fn_set_ui_object_text@@3PAP6GXPAUUI_OBJECT@@PBD@ZA[edx*4]
  00207	ff d0		 call	 eax

; 895  : 
; 896  : 	// get up button & set graphic
; 897  : 	temp = get_ui_object_next (temp);

  00209	8b 45 fc	 mov	 eax, DWORD PTR _temp$[ebp]
  0020c	50		 push	 eax
  0020d	8b 4d fc	 mov	 ecx, DWORD PTR _temp$[ebp]
  00210	8b 11		 mov	 edx, DWORD PTR [ecx]
  00212	8b 04 95 00 00
	00 00		 mov	 eax, DWORD PTR ?fn_get_ui_object_next@@3PAP6GPAUUI_OBJECT@@PAU1@@ZA[edx*4]
  00219	ff d0		 call	 eax
  0021b	89 45 fc	 mov	 DWORD PTR _temp$[ebp], eax

; 898  : 	set_ui_object_texture_graphic (temp, common_slider_up_graphic);

  0021e	a1 00 00 00 00	 mov	 eax, DWORD PTR ?common_slider_up_graphic@@3PAUTEXTURE_GRAPHIC@@A
  00223	50		 push	 eax
  00224	8b 4d fc	 mov	 ecx, DWORD PTR _temp$[ebp]
  00227	51		 push	 ecx
  00228	8b 55 fc	 mov	 edx, DWORD PTR _temp$[ebp]
  0022b	8b 02		 mov	 eax, DWORD PTR [edx]
  0022d	8b 0c 85 00 00
	00 00		 mov	 ecx, DWORD PTR ?fn_set_ui_object_texture_graphic@@3PAP6GXPAUUI_OBJECT@@PAUTEXTURE_GRAPHIC@@@ZA[eax*4]
  00234	ff d1		 call	 ecx

; 899  : 	set_ui_object_highlighted_texture_graphic (temp, common_slider_up_highlighted_graphic);

  00236	a1 00 00 00 00	 mov	 eax, DWORD PTR ?common_slider_up_highlighted_graphic@@3PAUTEXTURE_GRAPHIC@@A
  0023b	50		 push	 eax
  0023c	8b 4d fc	 mov	 ecx, DWORD PTR _temp$[ebp]
  0023f	51		 push	 ecx
  00240	8b 55 fc	 mov	 edx, DWORD PTR _temp$[ebp]
  00243	8b 02		 mov	 eax, DWORD PTR [edx]
  00245	8b 0c 85 00 00
	00 00		 mov	 ecx, DWORD PTR ?fn_set_ui_object_highlighted_texture_graphic@@3PAP6GXPAUUI_OBJECT@@PAUTEXTURE_GRAPHIC@@@ZA[eax*4]
  0024c	ff d1		 call	 ecx

; 900  : 	set_ui_object_selected_texture_graphic (temp, common_slider_up_selected_graphic);

  0024e	a1 00 00 00 00	 mov	 eax, DWORD PTR ?common_slider_up_selected_graphic@@3PAUTEXTURE_GRAPHIC@@A
  00253	50		 push	 eax
  00254	8b 4d fc	 mov	 ecx, DWORD PTR _temp$[ebp]
  00257	51		 push	 ecx
  00258	8b 55 fc	 mov	 edx, DWORD PTR _temp$[ebp]
  0025b	8b 02		 mov	 eax, DWORD PTR [edx]
  0025d	8b 0c 85 00 00
	00 00		 mov	 ecx, DWORD PTR ?fn_set_ui_object_selected_texture_graphic@@3PAP6GXPAUUI_OBJECT@@PAUTEXTURE_GRAPHIC@@@ZA[eax*4]
  00264	ff d1		 call	 ecx

; 901  : 	set_ui_object_text (temp, "");

  00266	68 00 00 00 00	 push	 OFFSET ??_C@_00CNPNBAHC@@
  0026b	8b 45 fc	 mov	 eax, DWORD PTR _temp$[ebp]
  0026e	50		 push	 eax
  0026f	8b 4d fc	 mov	 ecx, DWORD PTR _temp$[ebp]
  00272	8b 11		 mov	 edx, DWORD PTR [ecx]
  00274	8b 04 95 00 00
	00 00		 mov	 eax, DWORD PTR ?fn_set_ui_object_text@@3PAP6GXPAUUI_OBJECT@@PBD@ZA[edx*4]
  0027b	ff d0		 call	 eax

; 902  : 
; 903  : 	// get down button & set graphic
; 904  : 	temp = get_ui_object_next (temp);

  0027d	8b 45 fc	 mov	 eax, DWORD PTR _temp$[ebp]
  00280	50		 push	 eax
  00281	8b 4d fc	 mov	 ecx, DWORD PTR _temp$[ebp]
  00284	8b 11		 mov	 edx, DWORD PTR [ecx]
  00286	8b 04 95 00 00
	00 00		 mov	 eax, DWORD PTR ?fn_get_ui_object_next@@3PAP6GPAUUI_OBJECT@@PAU1@@ZA[edx*4]
  0028d	ff d0		 call	 eax
  0028f	89 45 fc	 mov	 DWORD PTR _temp$[ebp], eax

; 905  : 	set_ui_object_texture_graphic (temp, common_slider_down_graphic);

  00292	a1 00 00 00 00	 mov	 eax, DWORD PTR ?common_slider_down_graphic@@3PAUTEXTURE_GRAPHIC@@A
  00297	50		 push	 eax
  00298	8b 4d fc	 mov	 ecx, DWORD PTR _temp$[ebp]
  0029b	51		 push	 ecx
  0029c	8b 55 fc	 mov	 edx, DWORD PTR _temp$[ebp]
  0029f	8b 02		 mov	 eax, DWORD PTR [edx]
  002a1	8b 0c 85 00 00
	00 00		 mov	 ecx, DWORD PTR ?fn_set_ui_object_texture_graphic@@3PAP6GXPAUUI_OBJECT@@PAUTEXTURE_GRAPHIC@@@ZA[eax*4]
  002a8	ff d1		 call	 ecx

; 906  : 	set_ui_object_highlighted_texture_graphic (temp, common_slider_down_highlighted_graphic);

  002aa	a1 00 00 00 00	 mov	 eax, DWORD PTR ?common_slider_down_highlighted_graphic@@3PAUTEXTURE_GRAPHIC@@A
  002af	50		 push	 eax
  002b0	8b 4d fc	 mov	 ecx, DWORD PTR _temp$[ebp]
  002b3	51		 push	 ecx
  002b4	8b 55 fc	 mov	 edx, DWORD PTR _temp$[ebp]
  002b7	8b 02		 mov	 eax, DWORD PTR [edx]
  002b9	8b 0c 85 00 00
	00 00		 mov	 ecx, DWORD PTR ?fn_set_ui_object_highlighted_texture_graphic@@3PAP6GXPAUUI_OBJECT@@PAUTEXTURE_GRAPHIC@@@ZA[eax*4]
  002c0	ff d1		 call	 ecx

; 907  : 	set_ui_object_selected_texture_graphic (temp, common_slider_down_selected_graphic);

  002c2	a1 00 00 00 00	 mov	 eax, DWORD PTR ?common_slider_down_selected_graphic@@3PAUTEXTURE_GRAPHIC@@A
  002c7	50		 push	 eax
  002c8	8b 4d fc	 mov	 ecx, DWORD PTR _temp$[ebp]
  002cb	51		 push	 ecx
  002cc	8b 55 fc	 mov	 edx, DWORD PTR _temp$[ebp]
  002cf	8b 02		 mov	 eax, DWORD PTR [edx]
  002d1	8b 0c 85 00 00
	00 00		 mov	 ecx, DWORD PTR ?fn_set_ui_object_selected_texture_graphic@@3PAP6GXPAUUI_OBJECT@@PAUTEXTURE_GRAPHIC@@@ZA[eax*4]
  002d8	ff d1		 call	 ecx

; 908  : 	set_ui_object_text (temp, "");

  002da	68 00 00 00 00	 push	 OFFSET ??_C@_00CNPNBAHC@@
  002df	8b 45 fc	 mov	 eax, DWORD PTR _temp$[ebp]
  002e2	50		 push	 eax
  002e3	8b 4d fc	 mov	 ecx, DWORD PTR _temp$[ebp]
  002e6	8b 11		 mov	 edx, DWORD PTR [ecx]
  002e8	8b 04 95 00 00
	00 00		 mov	 eax, DWORD PTR ?fn_set_ui_object_text@@3PAP6GXPAUUI_OBJECT@@PBD@ZA[edx*4]
  002ef	ff d0		 call	 eax

; 909  : }

  002f1	5f		 pop	 edi
  002f2	5e		 pop	 esi
  002f3	5b		 pop	 ebx
  002f4	8b e5		 mov	 esp, ebp
  002f6	5d		 pop	 ebp
  002f7	c2 04 00	 ret	 4
?set_common_slider_graphics@@YGXPAUUI_OBJECT@@@Z ENDP	; set_common_slider_graphics
_TEXT	ENDS
; Function compile flags: /Odtp /ZI
; File c:\users\nhv90\projects\eech\aphavoc\source\ui_menu\ingame\common\common.c
;	COMDAT ?ingame_screen_set_events@@YGXXZ
_TEXT	SEGMENT
?ingame_screen_set_events@@YGXXZ PROC			; ingame_screen_set_events, COMDAT

; 747  : {

  00000	55		 push	 ebp
  00001	8b ec		 mov	 ebp, esp
  00003	83 ec 40	 sub	 esp, 64			; 00000040H
  00006	53		 push	 ebx
  00007	56		 push	 esi
  00008	57		 push	 edi

; 748  : 
; 749  : 	#ifdef DEBUG
; 750  : 
; 751  : 	set_event (DIK_SCROLL, MODIFIER_NONE, KEY_STATE_UP, breakout);

  00009	68 00 00 00 00	 push	 OFFSET ?breakout@@YGXPAUEVENT@@@Z ; breakout
  0000e	6a 01		 push	 1
  00010	6a 00		 push	 0
  00012	6a 46		 push	 70			; 00000046H
  00014	e8 00 00 00 00	 call	 ?set_event@@YGXHHHP6GXPAUEVENT@@@Z@Z ; set_event

; 752  : 
; 753  : 	#endif
; 754  : 
; 755  : 	set_event (DIK_S, MODIFIER_RIGHT_SHIFT, KEY_STATE_DOWN, save_ui_screen);

  00019	68 00 00 00 00	 push	 OFFSET ?save_ui_screen@@YGXPAUEVENT@@@Z ; save_ui_screen
  0001e	6a 02		 push	 2
  00020	6a 04		 push	 4
  00022	6a 1f		 push	 31			; 0000001fH
  00024	e8 00 00 00 00	 call	 ?set_event@@YGXHHHP6GXPAUEVENT@@@Z@Z ; set_event

; 756  : 
; 757  : 	set_event (DIK_X, MODIFIER_LEFT_CONTROL, KEY_STATE_UP, exit_apache_havoc);

  00029	68 00 00 00 00	 push	 OFFSET ?exit_apache_havoc@@YGXPAUEVENT@@@Z ; exit_apache_havoc
  0002e	6a 01		 push	 1
  00030	6a 02		 push	 2
  00032	6a 2d		 push	 45			; 0000002dH
  00034	e8 00 00 00 00	 call	 ?set_event@@YGXHHHP6GXPAUEVENT@@@Z@Z ; set_event

; 758  : 
; 759  : 	set_event (DIK_Q, MODIFIER_LEFT_CONTROL, KEY_STATE_UP, ingame_quit_function);

  00039	68 00 00 00 00	 push	 OFFSET ?ingame_quit_function@@YGXPAUEVENT@@@Z ; ingame_quit_function
  0003e	6a 01		 push	 1
  00040	6a 02		 push	 2
  00042	6a 10		 push	 16			; 00000010H
  00044	e8 00 00 00 00	 call	 ?set_event@@YGXHHHP6GXPAUEVENT@@@Z@Z ; set_event

; 760  : 
; 761  :    set_event (DIK_RETURN, MODIFIER_NONE, KEY_STATE_DOWN, toggle_in_flight_game_modes);

  00049	68 00 00 00 00	 push	 OFFSET ?toggle_in_flight_game_modes@@YGXPAUEVENT@@@Z ; toggle_in_flight_game_modes
  0004e	6a 02		 push	 2
  00050	6a 00		 push	 0
  00052	6a 1c		 push	 28			; 0000001cH
  00054	e8 00 00 00 00	 call	 ?set_event@@YGXHHHP6GXPAUEVENT@@@Z@Z ; set_event

; 762  : 
; 763  : 	//
; 764  : 	// time acceleration
; 765  : 	//
; 766  : 
; 767  :    set_event (DIK_P, MODIFIER_NONE, KEY_STATE_DOWN, toggle_pause_time_acceleration);

  00059	68 00 00 00 00	 push	 OFFSET ?toggle_pause_time_acceleration@@YGXPAUEVENT@@@Z ; toggle_pause_time_acceleration
  0005e	6a 02		 push	 2
  00060	6a 00		 push	 0
  00062	6a 19		 push	 25			; 00000019H
  00064	e8 00 00 00 00	 call	 ?set_event@@YGXHHHP6GXPAUEVENT@@@Z@Z ; set_event

; 768  : 
; 769  :  //  set_event (DIK_ADD, MODIFIER_LEFT_CONTROL, KEY_STATE_DOWN, set_small_inc_time_acceleration);
; 770  :    set_event (DIK_EQUALS, MODIFIER_LEFT_CONTROL, KEY_STATE_DOWN, set_small_inc_time_acceleration);

  00069	68 00 00 00 00	 push	 OFFSET ?set_small_inc_time_acceleration@@YGXPAUEVENT@@@Z ; set_small_inc_time_acceleration
  0006e	6a 02		 push	 2
  00070	6a 02		 push	 2
  00072	6a 0d		 push	 13			; 0000000dH
  00074	e8 00 00 00 00	 call	 ?set_event@@YGXHHHP6GXPAUEVENT@@@Z@Z ; set_event

; 771  : 
; 772  : //   set_event (DIK_SUBTRACT, MODIFIER_LEFT_CONTROL, KEY_STATE_DOWN, set_small_dec_time_acceleration);
; 773  :    set_event (DIK_MINUS, MODIFIER_LEFT_CONTROL, KEY_STATE_DOWN, set_small_dec_time_acceleration);

  00079	68 00 00 00 00	 push	 OFFSET ?set_small_dec_time_acceleration@@YGXPAUEVENT@@@Z ; set_small_dec_time_acceleration
  0007e	6a 02		 push	 2
  00080	6a 02		 push	 2
  00082	6a 0c		 push	 12			; 0000000cH
  00084	e8 00 00 00 00	 call	 ?set_event@@YGXHHHP6GXPAUEVENT@@@Z@Z ; set_event

; 774  : 
; 775  : 	//
; 776  : 	// Map keyboard shortcuts
; 777  : 	//
; 778  : 
; 779  : 	set_event (DIK_SPACE, MODIFIER_NONE, KEY_STATE_DOWN, switch_to_satellite_event); // Jabberwock 031009 Satellite view

  00089	68 00 00 00 00	 push	 OFFSET ?switch_to_satellite_event@@YGXPAUEVENT@@@Z ; switch_to_satellite_event
  0008e	6a 02		 push	 2
  00090	6a 00		 push	 0
  00092	6a 39		 push	 57			; 00000039H
  00094	e8 00 00 00 00	 call	 ?set_event@@YGXHHHP6GXPAUEVENT@@@Z@Z ; set_event

; 780  : 
; 781  : 
; 782  : 	set_event (DIK_UP, MODIFIER_NONE, KEY_STATE_DOWN, shift_current_map_up_event);

  00099	68 00 00 00 00	 push	 OFFSET ?shift_current_map_up_event@@YGXPAUEVENT@@@Z ; shift_current_map_up_event
  0009e	6a 02		 push	 2
  000a0	6a 00		 push	 0
  000a2	68 c8 00 00 00	 push	 200			; 000000c8H
  000a7	e8 00 00 00 00	 call	 ?set_event@@YGXHHHP6GXPAUEVENT@@@Z@Z ; set_event

; 783  : 	set_event (DIK_DOWN, MODIFIER_NONE, KEY_STATE_DOWN, shift_current_map_down_event);

  000ac	68 00 00 00 00	 push	 OFFSET ?shift_current_map_down_event@@YGXPAUEVENT@@@Z ; shift_current_map_down_event
  000b1	6a 02		 push	 2
  000b3	6a 00		 push	 0
  000b5	68 d0 00 00 00	 push	 208			; 000000d0H
  000ba	e8 00 00 00 00	 call	 ?set_event@@YGXHHHP6GXPAUEVENT@@@Z@Z ; set_event

; 784  : 	set_event (DIK_LEFT, MODIFIER_NONE, KEY_STATE_DOWN, shift_current_map_left_event);

  000bf	68 00 00 00 00	 push	 OFFSET ?shift_current_map_left_event@@YGXPAUEVENT@@@Z ; shift_current_map_left_event
  000c4	6a 02		 push	 2
  000c6	6a 00		 push	 0
  000c8	68 cb 00 00 00	 push	 203			; 000000cbH
  000cd	e8 00 00 00 00	 call	 ?set_event@@YGXHHHP6GXPAUEVENT@@@Z@Z ; set_event

; 785  : 	set_event (DIK_RIGHT, MODIFIER_NONE, KEY_STATE_DOWN, shift_current_map_right_event);

  000d2	68 00 00 00 00	 push	 OFFSET ?shift_current_map_right_event@@YGXPAUEVENT@@@Z ; shift_current_map_right_event
  000d7	6a 02		 push	 2
  000d9	6a 00		 push	 0
  000db	68 cd 00 00 00	 push	 205			; 000000cdH
  000e0	e8 00 00 00 00	 call	 ?set_event@@YGXHHHP6GXPAUEVENT@@@Z@Z ; set_event

; 786  : 
; 787  : 	set_event (DIK_NUMPAD8, MODIFIER_NONE, KEY_STATE_DOWN, shift_current_map_up_event);

  000e5	68 00 00 00 00	 push	 OFFSET ?shift_current_map_up_event@@YGXPAUEVENT@@@Z ; shift_current_map_up_event
  000ea	6a 02		 push	 2
  000ec	6a 00		 push	 0
  000ee	6a 48		 push	 72			; 00000048H
  000f0	e8 00 00 00 00	 call	 ?set_event@@YGXHHHP6GXPAUEVENT@@@Z@Z ; set_event

; 788  : 	set_event (DIK_NUMPAD2, MODIFIER_NONE, KEY_STATE_DOWN, shift_current_map_down_event);

  000f5	68 00 00 00 00	 push	 OFFSET ?shift_current_map_down_event@@YGXPAUEVENT@@@Z ; shift_current_map_down_event
  000fa	6a 02		 push	 2
  000fc	6a 00		 push	 0
  000fe	6a 50		 push	 80			; 00000050H
  00100	e8 00 00 00 00	 call	 ?set_event@@YGXHHHP6GXPAUEVENT@@@Z@Z ; set_event

; 789  : 	set_event (DIK_NUMPAD4, MODIFIER_NONE, KEY_STATE_DOWN, shift_current_map_left_event);

  00105	68 00 00 00 00	 push	 OFFSET ?shift_current_map_left_event@@YGXPAUEVENT@@@Z ; shift_current_map_left_event
  0010a	6a 02		 push	 2
  0010c	6a 00		 push	 0
  0010e	6a 4b		 push	 75			; 0000004bH
  00110	e8 00 00 00 00	 call	 ?set_event@@YGXHHHP6GXPAUEVENT@@@Z@Z ; set_event

; 790  : 	set_event (DIK_NUMPAD6, MODIFIER_NONE, KEY_STATE_DOWN, shift_current_map_right_event);

  00115	68 00 00 00 00	 push	 OFFSET ?shift_current_map_right_event@@YGXPAUEVENT@@@Z ; shift_current_map_right_event
  0011a	6a 02		 push	 2
  0011c	6a 00		 push	 0
  0011e	6a 4d		 push	 77			; 0000004dH
  00120	e8 00 00 00 00	 call	 ?set_event@@YGXHHHP6GXPAUEVENT@@@Z@Z ; set_event

; 791  : 
; 792  :    set_event (DIK_EQUALS, MODIFIER_NONE, KEY_STATE_DOWN, zoom_in_current_map_event);

  00125	68 00 00 00 00	 push	 OFFSET ?zoom_in_current_map_event@@YGXPAUEVENT@@@Z ; zoom_in_current_map_event
  0012a	6a 02		 push	 2
  0012c	6a 00		 push	 0
  0012e	6a 0d		 push	 13			; 0000000dH
  00130	e8 00 00 00 00	 call	 ?set_event@@YGXHHHP6GXPAUEVENT@@@Z@Z ; set_event

; 793  :    set_event (DIK_MINUS, MODIFIER_NONE, KEY_STATE_DOWN, zoom_out_current_map_event);

  00135	68 00 00 00 00	 push	 OFFSET ?zoom_out_current_map_event@@YGXPAUEVENT@@@Z ; zoom_out_current_map_event
  0013a	6a 02		 push	 2
  0013c	6a 00		 push	 0
  0013e	6a 0c		 push	 12			; 0000000cH
  00140	e8 00 00 00 00	 call	 ?set_event@@YGXHHHP6GXPAUEVENT@@@Z@Z ; set_event

; 794  : 
; 795  :    set_event (DIK_ADD, MODIFIER_NONE, KEY_STATE_DOWN, zoom_in_current_map_event);

  00145	68 00 00 00 00	 push	 OFFSET ?zoom_in_current_map_event@@YGXPAUEVENT@@@Z ; zoom_in_current_map_event
  0014a	6a 02		 push	 2
  0014c	6a 00		 push	 0
  0014e	6a 4e		 push	 78			; 0000004eH
  00150	e8 00 00 00 00	 call	 ?set_event@@YGXHHHP6GXPAUEVENT@@@Z@Z ; set_event

; 796  :    set_event (DIK_SUBTRACT, MODIFIER_NONE, KEY_STATE_DOWN, zoom_out_current_map_event);

  00155	68 00 00 00 00	 push	 OFFSET ?zoom_out_current_map_event@@YGXPAUEVENT@@@Z ; zoom_out_current_map_event
  0015a	6a 02		 push	 2
  0015c	6a 00		 push	 0
  0015e	6a 4a		 push	 74			; 0000004aH
  00160	e8 00 00 00 00	 call	 ?set_event@@YGXHHHP6GXPAUEVENT@@@Z@Z ; set_event

; 797  : 
; 798  :    set_event (MOUSE_WHEEL_UP, MODIFIER_NONE, BUTTON_STATE_EITHER, map_wheel_zoom_in_event); // Jabberwock 031002 - wheel map zoom

  00165	68 00 00 00 00	 push	 OFFSET ?map_wheel_zoom_in_event@@YGXPAUEVENT@@@Z ; map_wheel_zoom_in_event
  0016a	6a 03		 push	 3
  0016c	6a 00		 push	 0
  0016e	68 07 01 00 00	 push	 263			; 00000107H
  00173	e8 00 00 00 00	 call	 ?set_event@@YGXHHHP6GXPAUEVENT@@@Z@Z ; set_event

; 799  :    set_event (MOUSE_WHEEL_DOWN, MODIFIER_NONE, BUTTON_STATE_EITHER, zoom_out_current_map_event);

  00178	68 00 00 00 00	 push	 OFFSET ?zoom_out_current_map_event@@YGXPAUEVENT@@@Z ; zoom_out_current_map_event
  0017d	6a 03		 push	 3
  0017f	6a 00		 push	 0
  00181	68 08 01 00 00	 push	 264			; 00000108H
  00186	e8 00 00 00 00	 call	 ?set_event@@YGXHHHP6GXPAUEVENT@@@Z@Z ; set_event

; 800  : 
; 801  : 	set_event (DIK_PERIOD, MODIFIER_NONE, KEY_STATE_DOWN, zoom_in_current_map_event);

  0018b	68 00 00 00 00	 push	 OFFSET ?zoom_in_current_map_event@@YGXPAUEVENT@@@Z ; zoom_in_current_map_event
  00190	6a 02		 push	 2
  00192	6a 00		 push	 0
  00194	6a 34		 push	 52			; 00000034H
  00196	e8 00 00 00 00	 call	 ?set_event@@YGXHHHP6GXPAUEVENT@@@Z@Z ; set_event

; 802  : 	set_event (DIK_COMMA, MODIFIER_NONE, KEY_STATE_DOWN, zoom_out_current_map_event);

  0019b	68 00 00 00 00	 push	 OFFSET ?zoom_out_current_map_event@@YGXPAUEVENT@@@Z ; zoom_out_current_map_event
  001a0	6a 02		 push	 2
  001a2	6a 00		 push	 0
  001a4	6a 33		 push	 51			; 00000033H
  001a6	e8 00 00 00 00	 call	 ?set_event@@YGXHHHP6GXPAUEVENT@@@Z@Z ; set_event

; 803  : 
; 804  : 	set_event (DIK_DECIMAL, MODIFIER_NONE, KEY_STATE_DOWN, delete_waypoint_event);

  001ab	68 00 00 00 00	 push	 OFFSET ?delete_waypoint_event@@YGXPAUEVENT@@@Z ; delete_waypoint_event
  001b0	6a 02		 push	 2
  001b2	6a 00		 push	 0
  001b4	6a 53		 push	 83			; 00000053H
  001b6	e8 00 00 00 00	 call	 ?set_event@@YGXHHHP6GXPAUEVENT@@@Z@Z ; set_event

; 805  : 	set_event (DIK_DELETE, MODIFIER_NONE, KEY_STATE_DOWN, delete_waypoint_event);

  001bb	68 00 00 00 00	 push	 OFFSET ?delete_waypoint_event@@YGXPAUEVENT@@@Z ; delete_waypoint_event
  001c0	6a 02		 push	 2
  001c2	6a 00		 push	 0
  001c4	68 d3 00 00 00	 push	 211			; 000000d3H
  001c9	e8 00 00 00 00	 call	 ?set_event@@YGXHHHP6GXPAUEVENT@@@Z@Z ; set_event

; 806  : 
; 807  : 	set_event (DIK_BACK, MODIFIER_NONE, KEY_STATE_DOWN, page_back_event);

  001ce	68 00 00 00 00	 push	 OFFSET ?page_back_event@@YGXPAUEVENT@@@Z ; page_back_event
  001d3	6a 02		 push	 2
  001d5	6a 00		 push	 0
  001d7	6a 0e		 push	 14			; 0000000eH
  001d9	e8 00 00 00 00	 call	 ?set_event@@YGXHHHP6GXPAUEVENT@@@Z@Z ; set_event

; 808  : 
; 809  : 	set_event (DIK_C, MODIFIER_NONE, KEY_STATE_DOWN, centre_current_map_on_player);

  001de	68 00 00 00 00	 push	 OFFSET ?centre_current_map_on_player@@YGXPAUEVENT@@@Z ; centre_current_map_on_player
  001e3	6a 02		 push	 2
  001e5	6a 00		 push	 0
  001e7	6a 2e		 push	 46			; 0000002eH
  001e9	e8 00 00 00 00	 call	 ?set_event@@YGXHHHP6GXPAUEVENT@@@Z@Z ; set_event

; 810  : 	set_event (DIK_HOME, MODIFIER_NONE, KEY_STATE_DOWN, centre_current_map_on_player);

  001ee	68 00 00 00 00	 push	 OFFSET ?centre_current_map_on_player@@YGXPAUEVENT@@@Z ; centre_current_map_on_player
  001f3	6a 02		 push	 2
  001f5	6a 00		 push	 0
  001f7	68 c7 00 00 00	 push	 199			; 000000c7H
  001fc	e8 00 00 00 00	 call	 ?set_event@@YGXHHHP6GXPAUEVENT@@@Z@Z ; set_event

; 811  : 
; 812  : 	//
; 813  : 	// 3D Preview keyboard shortcuts
; 814  : 	//
; 815  : 
; 816  : 	set_event (DIK_LEFT, MODIFIER_LEFT_ALT, KEY_STATE_DOWN, adjust_3d_preview_heading_left_event);

  00201	68 00 00 00 00	 push	 OFFSET ?adjust_3d_preview_heading_left_event@@YGXPAUEVENT@@@Z ; adjust_3d_preview_heading_left_event
  00206	6a 02		 push	 2
  00208	6a 03		 push	 3
  0020a	68 cb 00 00 00	 push	 203			; 000000cbH
  0020f	e8 00 00 00 00	 call	 ?set_event@@YGXHHHP6GXPAUEVENT@@@Z@Z ; set_event

; 817  : 	set_event (DIK_RIGHT, MODIFIER_LEFT_ALT, KEY_STATE_DOWN, adjust_3d_preview_heading_right_event);

  00214	68 00 00 00 00	 push	 OFFSET ?adjust_3d_preview_heading_right_event@@YGXPAUEVENT@@@Z ; adjust_3d_preview_heading_right_event
  00219	6a 02		 push	 2
  0021b	6a 03		 push	 3
  0021d	68 cd 00 00 00	 push	 205			; 000000cdH
  00222	e8 00 00 00 00	 call	 ?set_event@@YGXHHHP6GXPAUEVENT@@@Z@Z ; set_event

; 818  : 	set_event (DIK_UP, MODIFIER_LEFT_ALT, KEY_STATE_DOWN, adjust_3d_preview_pitch_up_event);

  00227	68 00 00 00 00	 push	 OFFSET ?adjust_3d_preview_pitch_up_event@@YGXPAUEVENT@@@Z ; adjust_3d_preview_pitch_up_event
  0022c	6a 02		 push	 2
  0022e	6a 03		 push	 3
  00230	68 c8 00 00 00	 push	 200			; 000000c8H
  00235	e8 00 00 00 00	 call	 ?set_event@@YGXHHHP6GXPAUEVENT@@@Z@Z ; set_event

; 819  : 	set_event (DIK_DOWN, MODIFIER_LEFT_ALT, KEY_STATE_DOWN, adjust_3d_preview_pitch_down_event);

  0023a	68 00 00 00 00	 push	 OFFSET ?adjust_3d_preview_pitch_down_event@@YGXPAUEVENT@@@Z ; adjust_3d_preview_pitch_down_event
  0023f	6a 02		 push	 2
  00241	6a 03		 push	 3
  00243	68 d0 00 00 00	 push	 208			; 000000d0H
  00248	e8 00 00 00 00	 call	 ?set_event@@YGXHHHP6GXPAUEVENT@@@Z@Z ; set_event

; 820  : 
; 821  : 	set_event (DIK_PERIOD, MODIFIER_LEFT_ALT, KEY_STATE_DOWN, adjust_3d_preview_zoom_in_event);

  0024d	68 00 00 00 00	 push	 OFFSET ?adjust_3d_preview_zoom_in_event@@YGXPAUEVENT@@@Z ; adjust_3d_preview_zoom_in_event
  00252	6a 02		 push	 2
  00254	6a 03		 push	 3
  00256	6a 34		 push	 52			; 00000034H
  00258	e8 00 00 00 00	 call	 ?set_event@@YGXHHHP6GXPAUEVENT@@@Z@Z ; set_event

; 822  : 	set_event (DIK_COMMA, MODIFIER_LEFT_ALT, KEY_STATE_DOWN, adjust_3d_preview_zoom_out_event);

  0025d	68 00 00 00 00	 push	 OFFSET ?adjust_3d_preview_zoom_out_event@@YGXPAUEVENT@@@Z ; adjust_3d_preview_zoom_out_event
  00262	6a 02		 push	 2
  00264	6a 03		 push	 3
  00266	6a 33		 push	 51			; 00000033H
  00268	e8 00 00 00 00	 call	 ?set_event@@YGXHHHP6GXPAUEVENT@@@Z@Z ; set_event

; 823  : 
; 824  : 	set_event (DIK_EQUALS, MODIFIER_LEFT_ALT, KEY_STATE_DOWN, adjust_3d_preview_zoom_in_event);

  0026d	68 00 00 00 00	 push	 OFFSET ?adjust_3d_preview_zoom_in_event@@YGXPAUEVENT@@@Z ; adjust_3d_preview_zoom_in_event
  00272	6a 02		 push	 2
  00274	6a 03		 push	 3
  00276	6a 0d		 push	 13			; 0000000dH
  00278	e8 00 00 00 00	 call	 ?set_event@@YGXHHHP6GXPAUEVENT@@@Z@Z ; set_event

; 825  : 	set_event (DIK_MINUS, MODIFIER_LEFT_ALT, KEY_STATE_DOWN, adjust_3d_preview_zoom_out_event);

  0027d	68 00 00 00 00	 push	 OFFSET ?adjust_3d_preview_zoom_out_event@@YGXPAUEVENT@@@Z ; adjust_3d_preview_zoom_out_event
  00282	6a 02		 push	 2
  00284	6a 03		 push	 3
  00286	6a 0c		 push	 12			; 0000000cH
  00288	e8 00 00 00 00	 call	 ?set_event@@YGXHHHP6GXPAUEVENT@@@Z@Z ; set_event

; 826  : 
; 827  : 	set_event (DIK_ADD, MODIFIER_LEFT_ALT, KEY_STATE_DOWN, adjust_3d_preview_zoom_in_event);

  0028d	68 00 00 00 00	 push	 OFFSET ?adjust_3d_preview_zoom_in_event@@YGXPAUEVENT@@@Z ; adjust_3d_preview_zoom_in_event
  00292	6a 02		 push	 2
  00294	6a 03		 push	 3
  00296	6a 4e		 push	 78			; 0000004eH
  00298	e8 00 00 00 00	 call	 ?set_event@@YGXHHHP6GXPAUEVENT@@@Z@Z ; set_event

; 828  : 	set_event (DIK_SUBTRACT, MODIFIER_LEFT_ALT, KEY_STATE_DOWN, adjust_3d_preview_zoom_out_event);

  0029d	68 00 00 00 00	 push	 OFFSET ?adjust_3d_preview_zoom_out_event@@YGXPAUEVENT@@@Z ; adjust_3d_preview_zoom_out_event
  002a2	6a 02		 push	 2
  002a4	6a 03		 push	 3
  002a6	6a 4a		 push	 74			; 0000004aH
  002a8	e8 00 00 00 00	 call	 ?set_event@@YGXHHHP6GXPAUEVENT@@@Z@Z ; set_event

; 829  : 
; 830  : 	set_event (MOUSE_WHEEL_UP, MODIFIER_LEFT_CONTROL, BUTTON_STATE_EITHER, adjust_3d_preview_zoom_in_event); // Jabberwock 031002 - wheel preview control

  002ad	68 00 00 00 00	 push	 OFFSET ?adjust_3d_preview_zoom_in_event@@YGXPAUEVENT@@@Z ; adjust_3d_preview_zoom_in_event
  002b2	6a 03		 push	 3
  002b4	6a 02		 push	 2
  002b6	68 07 01 00 00	 push	 263			; 00000107H
  002bb	e8 00 00 00 00	 call	 ?set_event@@YGXHHHP6GXPAUEVENT@@@Z@Z ; set_event

; 831  : 	set_event (MOUSE_WHEEL_DOWN, MODIFIER_LEFT_CONTROL, BUTTON_STATE_EITHER, adjust_3d_preview_zoom_out_event);

  002c0	68 00 00 00 00	 push	 OFFSET ?adjust_3d_preview_zoom_out_event@@YGXPAUEVENT@@@Z ; adjust_3d_preview_zoom_out_event
  002c5	6a 03		 push	 3
  002c7	6a 02		 push	 2
  002c9	68 08 01 00 00	 push	 264			; 00000108H
  002ce	e8 00 00 00 00	 call	 ?set_event@@YGXHHHP6GXPAUEVENT@@@Z@Z ; set_event

; 832  : 	set_event (MOUSE_MOVE_LEFT, MODIFIER_LEFT_CONTROL, BUTTON_STATE_EITHER, adjust_3d_preview_heading_left_event);

  002d3	68 00 00 00 00	 push	 OFFSET ?adjust_3d_preview_heading_left_event@@YGXPAUEVENT@@@Z ; adjust_3d_preview_heading_left_event
  002d8	6a 03		 push	 3
  002da	6a 02		 push	 2
  002dc	68 05 01 00 00	 push	 261			; 00000105H
  002e1	e8 00 00 00 00	 call	 ?set_event@@YGXHHHP6GXPAUEVENT@@@Z@Z ; set_event

; 833  : 	set_event (MOUSE_MOVE_RIGHT, MODIFIER_LEFT_CONTROL, BUTTON_STATE_EITHER, adjust_3d_preview_heading_right_event);

  002e6	68 00 00 00 00	 push	 OFFSET ?adjust_3d_preview_heading_right_event@@YGXPAUEVENT@@@Z ; adjust_3d_preview_heading_right_event
  002eb	6a 03		 push	 3
  002ed	6a 02		 push	 2
  002ef	68 06 01 00 00	 push	 262			; 00000106H
  002f4	e8 00 00 00 00	 call	 ?set_event@@YGXHHHP6GXPAUEVENT@@@Z@Z ; set_event

; 834  : 	set_event (MOUSE_MOVE_UP, MODIFIER_LEFT_CONTROL, BUTTON_STATE_EITHER, adjust_3d_preview_pitch_up_event);

  002f9	68 00 00 00 00	 push	 OFFSET ?adjust_3d_preview_pitch_up_event@@YGXPAUEVENT@@@Z ; adjust_3d_preview_pitch_up_event
  002fe	6a 03		 push	 3
  00300	6a 02		 push	 2
  00302	68 03 01 00 00	 push	 259			; 00000103H
  00307	e8 00 00 00 00	 call	 ?set_event@@YGXHHHP6GXPAUEVENT@@@Z@Z ; set_event

; 835  : 	set_event (MOUSE_MOVE_DOWN, MODIFIER_LEFT_CONTROL, BUTTON_STATE_EITHER, adjust_3d_preview_pitch_down_event);

  0030c	68 00 00 00 00	 push	 OFFSET ?adjust_3d_preview_pitch_down_event@@YGXPAUEVENT@@@Z ; adjust_3d_preview_pitch_down_event
  00311	6a 03		 push	 3
  00313	6a 02		 push	 2
  00315	68 04 01 00 00	 push	 260			; 00000104H
  0031a	e8 00 00 00 00	 call	 ?set_event@@YGXHHHP6GXPAUEVENT@@@Z@Z ; set_event

; 836  : 
; 837  : 
; 838  : 	set_event (MOUSE_MOVE_LEFT, MODIFIER_MOUSE_RIGHT_BUTTON, BUTTON_STATE_EITHER, fine_current_map_right_event); // Jabberwock 031020 Fine mouse panning

  0031f	68 00 00 00 00	 push	 OFFSET ?fine_current_map_right_event@@YGXPAUEVENT@@@Z ; fine_current_map_right_event
  00324	6a 03		 push	 3
  00326	6a 08		 push	 8
  00328	68 05 01 00 00	 push	 261			; 00000105H
  0032d	e8 00 00 00 00	 call	 ?set_event@@YGXHHHP6GXPAUEVENT@@@Z@Z ; set_event

; 839  : 	set_event (MOUSE_MOVE_RIGHT, MODIFIER_MOUSE_RIGHT_BUTTON, BUTTON_STATE_EITHER, fine_current_map_left_event);

  00332	68 00 00 00 00	 push	 OFFSET ?fine_current_map_left_event@@YGXPAUEVENT@@@Z ; fine_current_map_left_event
  00337	6a 03		 push	 3
  00339	6a 08		 push	 8
  0033b	68 06 01 00 00	 push	 262			; 00000106H
  00340	e8 00 00 00 00	 call	 ?set_event@@YGXHHHP6GXPAUEVENT@@@Z@Z ; set_event

; 840  : 	set_event (MOUSE_MOVE_UP, MODIFIER_MOUSE_RIGHT_BUTTON, BUTTON_STATE_EITHER, fine_current_map_down_event);

  00345	68 00 00 00 00	 push	 OFFSET ?fine_current_map_down_event@@YGXPAUEVENT@@@Z ; fine_current_map_down_event
  0034a	6a 03		 push	 3
  0034c	6a 08		 push	 8
  0034e	68 03 01 00 00	 push	 259			; 00000103H
  00353	e8 00 00 00 00	 call	 ?set_event@@YGXHHHP6GXPAUEVENT@@@Z@Z ; set_event

; 841  : 	set_event (MOUSE_MOVE_DOWN, MODIFIER_MOUSE_RIGHT_BUTTON, BUTTON_STATE_EITHER, fine_current_map_up_event);

  00358	68 00 00 00 00	 push	 OFFSET ?fine_current_map_up_event@@YGXPAUEVENT@@@Z ; fine_current_map_up_event
  0035d	6a 03		 push	 3
  0035f	6a 08		 push	 8
  00361	68 04 01 00 00	 push	 260			; 00000104H
  00366	e8 00 00 00 00	 call	 ?set_event@@YGXHHHP6GXPAUEVENT@@@Z@Z ; set_event

; 842  : 
; 843  : 	//
; 844  : 	// mouse buttons
; 845  : 	//
; 846  : 
; 847  : 	set_event (MOUSE_LEFT_BUTTON, MODIFIER_NONE, BUTTON_STATE_EITHER, ui_left_mouse_button);

  0036b	68 00 00 00 00	 push	 OFFSET ?ui_left_mouse_button@@YGXPAUEVENT@@@Z ; ui_left_mouse_button
  00370	6a 03		 push	 3
  00372	6a 00		 push	 0
  00374	68 00 01 00 00	 push	 256			; 00000100H
  00379	e8 00 00 00 00	 call	 ?set_event@@YGXHHHP6GXPAUEVENT@@@Z@Z ; set_event

; 848  : 
; 849  : 	set_event (MOUSE_RIGHT_BUTTON, MODIFIER_NONE, BUTTON_STATE_EITHER, ui_right_mouse_button);

  0037e	68 00 00 00 00	 push	 OFFSET ?ui_right_mouse_button@@YGXPAUEVENT@@@Z ; ui_right_mouse_button
  00383	6a 03		 push	 3
  00385	6a 00		 push	 0
  00387	68 01 01 00 00	 push	 257			; 00000101H
  0038c	e8 00 00 00 00	 call	 ?set_event@@YGXHHHP6GXPAUEVENT@@@Z@Z ; set_event

; 850  : 
; 851  : 	set_event (MOUSE_LEFT_BUTTON, MODIFIER_LEFT_SHIFT, BUTTON_STATE_EITHER, ui_left_mouse_button);

  00391	68 00 00 00 00	 push	 OFFSET ?ui_left_mouse_button@@YGXPAUEVENT@@@Z ; ui_left_mouse_button
  00396	6a 03		 push	 3
  00398	6a 01		 push	 1
  0039a	68 00 01 00 00	 push	 256			; 00000100H
  0039f	e8 00 00 00 00	 call	 ?set_event@@YGXHHHP6GXPAUEVENT@@@Z@Z ; set_event

; 852  : 
; 853  : 	set_event (MOUSE_RIGHT_BUTTON, MODIFIER_LEFT_SHIFT, BUTTON_STATE_EITHER, ui_right_mouse_button);

  003a4	68 00 00 00 00	 push	 OFFSET ?ui_right_mouse_button@@YGXPAUEVENT@@@Z ; ui_right_mouse_button
  003a9	6a 03		 push	 3
  003ab	6a 01		 push	 1
  003ad	68 01 01 00 00	 push	 257			; 00000101H
  003b2	e8 00 00 00 00	 call	 ?set_event@@YGXHHHP6GXPAUEVENT@@@Z@Z ; set_event

; 854  : 
; 855  : 	//Casm 20JUN05 QuickSave feature
; 856  : 	set_event (DIK_Z, MODIFIER_LEFT_CONTROL, KEY_STATE_DOWN, quicksave_event);

  003b7	68 00 00 00 00	 push	 OFFSET ?quicksave_event@@YGXPAUEVENT@@@Z ; quicksave_event
  003bc	6a 02		 push	 2
  003be	6a 02		 push	 2
  003c0	6a 2c		 push	 44			; 0000002cH
  003c2	e8 00 00 00 00	 call	 ?set_event@@YGXHHHP6GXPAUEVENT@@@Z@Z ; set_event

; 857  : }

  003c7	5f		 pop	 edi
  003c8	5e		 pop	 esi
  003c9	5b		 pop	 ebx
  003ca	8b e5		 mov	 esp, ebp
  003cc	5d		 pop	 ebp
  003cd	c3		 ret	 0
?ingame_screen_set_events@@YGXXZ ENDP			; ingame_screen_set_events
_TEXT	ENDS
; Function compile flags: /Odtp /ZI
; File c:\users\nhv90\projects\eech\aphavoc\source\ui_menu\ingame\common\common.c
;	COMDAT ?ingame_quit_function@@YGXPAUEVENT@@@Z
_TEXT	SEGMENT
tv64 = -68						; size = 4
_ev$ = 8						; size = 4
?ingame_quit_function@@YGXPAUEVENT@@@Z PROC		; ingame_quit_function, COMDAT

; 622  : {

  00000	55		 push	 ebp
  00001	8b ec		 mov	 ebp, esp
  00003	83 ec 44	 sub	 esp, 68			; 00000044H
  00006	53		 push	 ebx
  00007	56		 push	 esi
  00008	57		 push	 edi

; 623  : 	switch (get_game_type ())

  00009	a1 00 00 00 00	 mov	 eax, DWORD PTR ?game_type@@3W4GAME_TYPES@@A ; game_type
  0000e	89 45 bc	 mov	 DWORD PTR tv64[ebp], eax
  00011	83 7d bc 01	 cmp	 DWORD PTR tv64[ebp], 1
  00015	74 35		 je	 SHORT $LN8@ingame_qui
  00017	83 7d bc 01	 cmp	 DWORD PTR tv64[ebp], 1
  0001b	7e 46		 jle	 SHORT $LN10@ingame_qui
  0001d	83 7d bc 03	 cmp	 DWORD PTR tv64[ebp], 3
  00021	7e 02		 jle	 SHORT $LN4@ingame_qui
  00023	eb 3e		 jmp	 SHORT $LN10@ingame_qui
$LN4@ingame_qui:

; 624  : 	{
; 625  : 		case GAME_TYPE_CAMPAIGN:
; 626  : 		case GAME_TYPE_SKIRMISH:
; 627  : 		{
; 628  : 			if (get_in_flight_game_mode () == IN_FLIGHT_GAME_MODE_SIMULATOR)

  00025	83 3d 00 00 00
	00 00		 cmp	 DWORD PTR ?in_flight_game_mode@@3W4IN_FLIGHT_GAME_MODES@@A, 0 ; in_flight_game_mode
  0002c	75 07		 jne	 SHORT $LN5@ingame_qui

; 629  : 			{
; 630  : 				set_in_flight_game_mode (IN_FLIGHT_GAME_MODE_PLANNER);

  0002e	6a 01		 push	 1
  00030	e8 00 00 00 00	 call	 ?set_in_flight_game_mode@@YGXH@Z ; set_in_flight_game_mode
$LN5@ingame_qui:

; 631  : 			}
; 632  : 
; 633  : 			if (get_gunship_entity ())

  00035	83 3d 00 00 00
	00 00		 cmp	 DWORD PTR ?gunship_entity@@3PAUENTITY@@A, 0 ; gunship_entity
  0003c	74 07		 je	 SHORT $LN6@ingame_qui

; 634  : 			{
; 635  : 				setup_campaign_quit_mission_dialog ();

  0003e	e8 00 00 00 00	 call	 ?setup_campaign_quit_mission_dialog@@YGXXZ ; setup_campaign_quit_mission_dialog

; 636  : 			}
; 637  : 			else

  00043	eb 05		 jmp	 SHORT $LN7@ingame_qui
$LN6@ingame_qui:

; 638  : 			{
; 639  : 				setup_campaign_quit_campaign_dialog ();

  00045	e8 00 00 00 00	 call	 ?setup_campaign_quit_campaign_dialog@@YGXXZ ; setup_campaign_quit_campaign_dialog
$LN7@ingame_qui:

; 640  : 			}
; 641  : 
; 642  : 			break;

  0004a	eb 2a		 jmp	 SHORT $LN1@ingame_qui
$LN8@ingame_qui:

; 643  : 		}
; 644  : 		case GAME_TYPE_FREE_FLIGHT:
; 645  : 		{
; 646  : 			if (get_in_flight_game_mode () == IN_FLIGHT_GAME_MODE_SIMULATOR)

  0004c	83 3d 00 00 00
	00 00		 cmp	 DWORD PTR ?in_flight_game_mode@@3W4IN_FLIGHT_GAME_MODES@@A, 0 ; in_flight_game_mode
  00053	75 07		 jne	 SHORT $LN9@ingame_qui

; 647  : 			{
; 648  : 				set_in_flight_game_mode (IN_FLIGHT_GAME_MODE_PLANNER);

  00055	6a 01		 push	 1
  00057	e8 00 00 00 00	 call	 ?set_in_flight_game_mode@@YGXH@Z ; set_in_flight_game_mode
$LN9@ingame_qui:

; 649  : 			}
; 650  : 
; 651  : 			setup_free_flight_quit_campaign_dialog ();

  0005c	e8 00 00 00 00	 call	 ?setup_free_flight_quit_campaign_dialog@@YGXXZ ; setup_free_flight_quit_campaign_dialog

; 652  : 
; 653  : 			break;

  00061	eb 13		 jmp	 SHORT $LN1@ingame_qui
$LN10@ingame_qui:

; 654  : 		}
; 655  : 		default:
; 656  : 		{
; 657  : 			debug_fatal ("COMMON: Invalid Game Type %d", get_game_type ());

  00063	a1 00 00 00 00	 mov	 eax, DWORD PTR ?game_type@@3W4GAME_TYPES@@A ; game_type
  00068	50		 push	 eax
  00069	68 00 00 00 00	 push	 OFFSET ??_C@_0BN@KJIANJIK@COMMON?3?5Invalid?5Game?5Type?5?$CFd@
  0006e	e8 00 00 00 00	 call	 ?debug_fatal@@YAXPBDZZ	; debug_fatal
  00073	83 c4 08	 add	 esp, 8
$LN1@ingame_qui:

; 658  : 		}
; 659  : 	}
; 660  : }

  00076	5f		 pop	 edi
  00077	5e		 pop	 esi
  00078	5b		 pop	 ebx
  00079	8b e5		 mov	 esp, ebp
  0007b	5d		 pop	 ebp
  0007c	c2 04 00	 ret	 4
?ingame_quit_function@@YGXPAUEVENT@@@Z ENDP		; ingame_quit_function
_TEXT	ENDS
; Function compile flags: /Odtp /ZI
; File c:\users\nhv90\projects\eech\aphavoc\source\ui_menu\ingame\common\common.c
;	COMDAT ?player_quit_session@@YGXPAUEVENT@@@Z
_TEXT	SEGMENT
_ev$ = 8						; size = 4
?player_quit_session@@YGXPAUEVENT@@@Z PROC		; player_quit_session, COMDAT

; 598  : {

  00000	55		 push	 ebp
  00001	8b ec		 mov	 ebp, esp
  00003	83 ec 40	 sub	 esp, 64			; 00000040H
  00006	53		 push	 ebx
  00007	56		 push	 esi
  00008	57		 push	 edi

; 599  : 	initialise_game_initialisation_phases ();

  00009	e8 00 00 00 00	 call	 ?initialise_game_initialisation_phases@@YGXXZ ; initialise_game_initialisation_phases

; 600  : 
; 601  : 	set_exit_flight_loop (TRUE);

  0000e	c7 05 00 00 00
	00 01 00 00 00	 mov	 DWORD PTR ?exit_flight_loop_flag@@3HA, 1 ; exit_flight_loop_flag

; 602  : 
; 603  : 	push_ui_screen (game_type_screen);

  00018	a1 00 00 00 00	 mov	 eax, DWORD PTR ?game_type_screen@@3PAUUI_OBJECT@@A ; game_type_screen
  0001d	50		 push	 eax
  0001e	e8 00 00 00 00	 call	 ?push_ui_screen@@YGXPAUUI_OBJECT@@@Z ; push_ui_screen

; 604  : }

  00023	5f		 pop	 edi
  00024	5e		 pop	 esi
  00025	5b		 pop	 ebx
  00026	8b e5		 mov	 esp, ebp
  00028	5d		 pop	 ebp
  00029	c2 04 00	 ret	 4
?player_quit_session@@YGXPAUEVENT@@@Z ENDP		; player_quit_session
_TEXT	ENDS
; Function compile flags: /Odtp /ZI
; File c:\users\nhv90\projects\eech\aphavoc\source\ui_menu\ingame\common\common.c
;	COMDAT ?player_quit_current_task@@YGXXZ
_TEXT	SEGMENT
?player_quit_current_task@@YGXXZ PROC			; player_quit_current_task, COMDAT

; 585  : {

  00000	55		 push	 ebp
  00001	8b ec		 mov	 ebp, esp
  00003	83 ec 40	 sub	 esp, 64			; 00000040H
  00006	53		 push	 ebx
  00007	56		 push	 esi
  00008	57		 push	 edi

; 586  : 	ASSERT (!get_gunship_entity ());

  00009	83 3d 00 00 00
	00 00		 cmp	 DWORD PTR ?gunship_entity@@3PAUENTITY@@A, 0 ; gunship_entity
  00010	74 18		 je	 SHORT $LN2@player_qui
  00012	a1 00 00 00 00	 mov	 eax, DWORD PTR ?__LINE__Var@?0??player_quit_current_task@@YGXXZ@4JA
  00017	83 c0 01	 add	 eax, 1
  0001a	50		 push	 eax
  0001b	68 00 00 00 00	 push	 OFFSET ??_C@_0EL@NMGABAFH@c?3?2users?2nhv90?2projects?2eech?2ap@
  00020	68 00 00 00 00	 push	 OFFSET ??_C@_0BH@DMCIHAF@?$CBget_gunship_entity?5?$CI?$CJ@
  00025	e8 00 00 00 00	 call	 ?process_assert@@YGXPBD0H@Z ; process_assert
$LN2@player_qui:

; 587  : 
; 588  : 	notify_campaign_screen (CAMPAIGN_SCREEN_PLAYER_LEAVE_MISSION, NULL);

  0002a	6a 00		 push	 0
  0002c	6a 0b		 push	 11			; 0000000bH
  0002e	e8 00 00 00 00	 call	 ?notify_campaign_screen@@YGHW4CAMPAIGN_SCREEN_MESSAGES@@PAUENTITY@@@Z ; notify_campaign_screen

; 589  : 
; 590  : 	notify_clear_current_selections (NULL, NULL);

  00033	6a 00		 push	 0
  00035	6a 00		 push	 0
  00037	e8 00 00 00 00	 call	 ?notify_clear_current_selections@@YGXPAUUI_OBJECT@@PAX@Z ; notify_clear_current_selections

; 591  : }

  0003c	5f		 pop	 edi
  0003d	5e		 pop	 esi
  0003e	5b		 pop	 ebx
  0003f	8b e5		 mov	 esp, ebp
  00041	5d		 pop	 ebp
  00042	c3		 ret	 0
?player_quit_current_task@@YGXXZ ENDP			; player_quit_current_task
_TEXT	ENDS
; Function compile flags: /Odtp /ZI
; File c:\users\nhv90\projects\eech\aphavoc\source\ui_menu\ingame\common\common.c
;	COMDAT ?player_assigned_new_task@@YGXPAUENTITY@@0@Z
_TEXT	SEGMENT
tv146 = -80						; size = 4
tv138 = -76						; size = 4
tv93 = -72						; size = 4
tv85 = -68						; size = 4
_mobile$ = 8						; size = 4
_task$ = 12						; size = 4
?player_assigned_new_task@@YGXPAUENTITY@@0@Z PROC	; player_assigned_new_task, COMDAT

; 554  : {

  00000	55		 push	 ebp
  00001	8b ec		 mov	 ebp, esp
  00003	83 ec 50	 sub	 esp, 80			; 00000050H
  00006	53		 push	 ebx
  00007	56		 push	 esi
  00008	57		 push	 edi

; 555  : 	#if DEMO_VERSION
; 556  : 
; 557  : 	if (get_game_type () != GAME_TYPE_FREE_FLIGHT)
; 558  : 	{
; 559  : 		return;
; 560  : 	}
; 561  : 
; 562  : 	#endif
; 563  : 
; 564  : 	ASSERT (mobile);

  00009	83 7d 08 00	 cmp	 DWORD PTR _mobile$[ebp], 0
  0000d	75 18		 jne	 SHORT $LN2@player_ass
  0000f	a1 00 00 00 00	 mov	 eax, DWORD PTR ?__LINE__Var@?0??player_assigned_new_task@@YGXPAUENTITY@@0@Z@4JA
  00014	83 c0 0a	 add	 eax, 10			; 0000000aH
  00017	50		 push	 eax
  00018	68 00 00 00 00	 push	 OFFSET ??_C@_0EL@NMGABAFH@c?3?2users?2nhv90?2projects?2eech?2ap@
  0001d	68 00 00 00 00	 push	 OFFSET ??_C@_06INMLIBCJ@mobile@
  00022	e8 00 00 00 00	 call	 ?process_assert@@YGXPBD0H@Z ; process_assert
$LN2@player_ass:

; 565  : 
; 566  : 	ASSERT (task);

  00027	83 7d 0c 00	 cmp	 DWORD PTR _task$[ebp], 0
  0002b	75 18		 jne	 SHORT $LN3@player_ass
  0002d	a1 00 00 00 00	 mov	 eax, DWORD PTR ?__LINE__Var@?0??player_assigned_new_task@@YGXPAUENTITY@@0@Z@4JA
  00032	83 c0 0c	 add	 eax, 12			; 0000000cH
  00035	50		 push	 eax
  00036	68 00 00 00 00	 push	 OFFSET ??_C@_0EL@NMGABAFH@c?3?2users?2nhv90?2projects?2eech?2ap@
  0003b	68 00 00 00 00	 push	 OFFSET ??_C@_04GGKLLKOO@task@
  00040	e8 00 00 00 00	 call	 ?process_assert@@YGXPBD0H@Z ; process_assert
$LN3@player_ass:

; 567  : 
; 568  : 	ASSERT (get_pilot_entity ());

  00045	83 3d 00 00 00
	00 00		 cmp	 DWORD PTR ?pilot_entity@@3PAUENTITY@@A, 0 ; pilot_entity
  0004c	75 18		 jne	 SHORT $LN4@player_ass
  0004e	a1 00 00 00 00	 mov	 eax, DWORD PTR ?__LINE__Var@?0??player_assigned_new_task@@YGXPAUENTITY@@0@Z@4JA
  00053	83 c0 0e	 add	 eax, 14			; 0000000eH
  00056	50		 push	 eax
  00057	68 00 00 00 00	 push	 OFFSET ??_C@_0EL@NMGABAFH@c?3?2users?2nhv90?2projects?2eech?2ap@
  0005c	68 00 00 00 00	 push	 OFFSET ??_C@_0BE@KOLCCDEB@get_pilot_entity?5?$CI?$CJ@
  00061	e8 00 00 00 00	 call	 ?process_assert@@YGXPBD0H@Z ; process_assert
$LN4@player_ass:

; 569  : 
; 570  : 	debug_log ("COMMON: Player %s assigned to task %s", get_local_entity_string (get_pilot_entity (), STRING_TYPE_PILOTS_NAME), get_local_entity_string (task, STRING_TYPE_FULL_NAME));

  00066	83 7d 0c 00	 cmp	 DWORD PTR _task$[ebp], 0
  0006a	74 0a		 je	 SHORT $LN6@player_ass
  0006c	8b 45 0c	 mov	 eax, DWORD PTR _task$[ebp]
  0006f	8b 08		 mov	 ecx, DWORD PTR [eax]
  00071	89 4d bc	 mov	 DWORD PTR tv85[ebp], ecx
  00074	eb 21		 jmp	 SHORT $LN7@player_ass
$LN6@player_ass:
  00076	8b 15 00 00 00
	00		 mov	 edx, DWORD PTR ?__LINE__Var@?0??player_assigned_new_task@@YGXPAUENTITY@@0@Z@4JA
  0007c	83 c2 10	 add	 edx, 16			; 00000010H
  0007f	52		 push	 edx
  00080	68 00 00 00 00	 push	 OFFSET ??_C@_0EL@NMGABAFH@c?3?2users?2nhv90?2projects?2eech?2ap@
  00085	a1 00 00 00 00	 mov	 eax, DWORD PTR ?null_entity_pointer_message@@3PBDB ; null_entity_pointer_message
  0008a	50		 push	 eax
  0008b	e8 00 00 00 00	 call	 ?process_assert@@YGXPBD0H@Z ; process_assert
  00090	c7 45 bc 00 00
	00 00		 mov	 DWORD PTR tv85[ebp], 0
$LN7@player_ass:
  00097	b9 01 00 00 00	 mov	 ecx, 1
  0009c	85 c9		 test	 ecx, ecx
  0009e	74 09		 je	 SHORT $LN8@player_ass
  000a0	c7 45 b8 03 00
	00 00		 mov	 DWORD PTR tv93[ebp], 3
  000a7	eb 21		 jmp	 SHORT $LN9@player_ass
$LN8@player_ass:
  000a9	8b 15 00 00 00
	00		 mov	 edx, DWORD PTR ?__LINE__Var@?0??player_assigned_new_task@@YGXPAUENTITY@@0@Z@4JA
  000af	83 c2 10	 add	 edx, 16			; 00000010H
  000b2	52		 push	 edx
  000b3	68 00 00 00 00	 push	 OFFSET ??_C@_0EL@NMGABAFH@c?3?2users?2nhv90?2projects?2eech?2ap@
  000b8	a1 00 00 00 00	 mov	 eax, DWORD PTR ?overload_invalid_string_type_message@@3PBDB ; overload_invalid_string_type_message
  000bd	50		 push	 eax
  000be	e8 00 00 00 00	 call	 ?process_assert@@YGXPBD0H@Z ; process_assert
  000c3	c7 45 b8 00 00
	00 00		 mov	 DWORD PTR tv93[ebp], 0
$LN9@player_ass:
  000ca	83 3d 00 00 00
	00 00		 cmp	 DWORD PTR ?pilot_entity@@3PAUENTITY@@A, 0 ; pilot_entity
  000d1	74 0d		 je	 SHORT $LN10@player_ass
  000d3	8b 0d 00 00 00
	00		 mov	 ecx, DWORD PTR ?pilot_entity@@3PAUENTITY@@A ; pilot_entity
  000d9	8b 11		 mov	 edx, DWORD PTR [ecx]
  000db	89 55 b4	 mov	 DWORD PTR tv138[ebp], edx
  000de	eb 21		 jmp	 SHORT $LN11@player_ass
$LN10@player_ass:
  000e0	a1 00 00 00 00	 mov	 eax, DWORD PTR ?__LINE__Var@?0??player_assigned_new_task@@YGXPAUENTITY@@0@Z@4JA
  000e5	83 c0 10	 add	 eax, 16			; 00000010H
  000e8	50		 push	 eax
  000e9	68 00 00 00 00	 push	 OFFSET ??_C@_0EL@NMGABAFH@c?3?2users?2nhv90?2projects?2eech?2ap@
  000ee	8b 0d 00 00 00
	00		 mov	 ecx, DWORD PTR ?null_entity_pointer_message@@3PBDB ; null_entity_pointer_message
  000f4	51		 push	 ecx
  000f5	e8 00 00 00 00	 call	 ?process_assert@@YGXPBD0H@Z ; process_assert
  000fa	c7 45 b4 00 00
	00 00		 mov	 DWORD PTR tv138[ebp], 0
$LN11@player_ass:
  00101	ba 01 00 00 00	 mov	 edx, 1
  00106	85 d2		 test	 edx, edx
  00108	74 09		 je	 SHORT $LN12@player_ass
  0010a	c7 45 b0 0a 00
	00 00		 mov	 DWORD PTR tv146[ebp], 10 ; 0000000aH
  00111	eb 21		 jmp	 SHORT $LN13@player_ass
$LN12@player_ass:
  00113	a1 00 00 00 00	 mov	 eax, DWORD PTR ?__LINE__Var@?0??player_assigned_new_task@@YGXPAUENTITY@@0@Z@4JA
  00118	83 c0 10	 add	 eax, 16			; 00000010H
  0011b	50		 push	 eax
  0011c	68 00 00 00 00	 push	 OFFSET ??_C@_0EL@NMGABAFH@c?3?2users?2nhv90?2projects?2eech?2ap@
  00121	8b 0d 00 00 00
	00		 mov	 ecx, DWORD PTR ?overload_invalid_string_type_message@@3PBDB ; overload_invalid_string_type_message
  00127	51		 push	 ecx
  00128	e8 00 00 00 00	 call	 ?process_assert@@YGXPBD0H@Z ; process_assert
  0012d	c7 45 b0 00 00
	00 00		 mov	 DWORD PTR tv146[ebp], 0
$LN13@player_ass:
  00134	6a 03		 push	 3
  00136	8b 55 0c	 mov	 edx, DWORD PTR _task$[ebp]
  00139	52		 push	 edx
  0013a	6b 45 bc 34	 imul	 eax, DWORD PTR tv85[ebp], 52
  0013e	8b 4d b8	 mov	 ecx, DWORD PTR tv93[ebp]
  00141	8b 94 88 00 00
	00 00		 mov	 edx, DWORD PTR ?fn_get_local_entity_string@@3PAY0N@P6GPBDPAUENTITY@@W4STRING_TYPES@@@ZA[eax+ecx*4]
  00148	ff d2		 call	 edx
  0014a	50		 push	 eax
  0014b	6a 0a		 push	 10			; 0000000aH
  0014d	a1 00 00 00 00	 mov	 eax, DWORD PTR ?pilot_entity@@3PAUENTITY@@A ; pilot_entity
  00152	50		 push	 eax
  00153	6b 4d b4 34	 imul	 ecx, DWORD PTR tv138[ebp], 52
  00157	8b 55 b0	 mov	 edx, DWORD PTR tv146[ebp]
  0015a	8b 84 91 00 00
	00 00		 mov	 eax, DWORD PTR ?fn_get_local_entity_string@@3PAY0N@P6GPBDPAUENTITY@@W4STRING_TYPES@@@ZA[ecx+edx*4]
  00161	ff d0		 call	 eax
  00163	50		 push	 eax
  00164	68 00 00 00 00	 push	 OFFSET ??_C@_0CG@COBGIMAO@COMMON?3?5Player?5?$CFs?5assigned?5to?5t@
  00169	e8 00 00 00 00	 call	 ?debug_log@@YAXPBDZZ	; debug_log
  0016e	83 c4 0c	 add	 esp, 12			; 0000000cH

; 571  : 
; 572  : 	set_gunship_entity (mobile);

  00171	8b 45 08	 mov	 eax, DWORD PTR _mobile$[ebp]
  00174	50		 push	 eax
  00175	e8 00 00 00 00	 call	 ?set_gunship_entity@@YGXPAUENTITY@@@Z ; set_gunship_entity

; 573  : 
; 574  : 	set_client_server_entity_parent (get_pilot_entity (), LIST_TYPE_PLAYER_TASK, task);

  0017a	8b 45 0c	 mov	 eax, DWORD PTR _task$[ebp]
  0017d	50		 push	 eax
  0017e	6a 1e		 push	 30			; 0000001eH
  00180	8b 0d 00 00 00
	00		 mov	 ecx, DWORD PTR ?pilot_entity@@3PAUENTITY@@A ; pilot_entity
  00186	51		 push	 ecx
  00187	e8 00 00 00 00	 call	 ?set_client_server_entity_parent@@YGXPAUENTITY@@W4LIST_TYPES@@0@Z ; set_client_server_entity_parent

; 575  : 
; 576  : 	//play ingame music track
; 577  : 	play_cd_music (CD_MUSIC_TYPE_COCKPIT);

  0018c	6a 01		 push	 1
  0018e	e8 00 00 00 00	 call	 ?play_cd_music@@YGXW4CD_MUSIC_TYPES@@@Z ; play_cd_music

; 578  : }

  00193	5f		 pop	 edi
  00194	5e		 pop	 esi
  00195	5b		 pop	 ebx
  00196	8b e5		 mov	 esp, ebp
  00198	5d		 pop	 ebp
  00199	c2 08 00	 ret	 8
?player_assigned_new_task@@YGXPAUENTITY@@0@Z ENDP	; player_assigned_new_task
_TEXT	ENDS
; Function compile flags: /Odtp /ZI
; File c:\users\nhv90\projects\eech\aphavoc\source\ui_menu\ingame\common\common.c
;	COMDAT ?get_base_player_suitability_status@@YGHPAUENTITY@@@Z
_TEXT	SEGMENT
tv551 = -220						; size = 8
tv399 = -220						; size = 4
tv365 = -220						; size = 4
tv344 = -220						; size = 4
tv325 = -220						; size = 4
tv304 = -220						; size = 4
tv266 = -220						; size = 4
tv245 = -220						; size = 4
tv222 = -220						; size = 4
tv193 = -220						; size = 4
tv168 = -220						; size = 4
tv136 = -220						; size = 4
tv83 = -220						; size = 4
tv391 = -216						; size = 4
tv357 = -216						; size = 4
tv337 = -216						; size = 4
tv317 = -216						; size = 4
tv296 = -216						; size = 4
tv258 = -216						; size = 4
tv237 = -216						; size = 4
tv214 = -216						; size = 4
tv185 = -216						; size = 4
tv160 = -216						; size = 4
tv128 = -216						; size = 4
tv75 = -216						; size = 4
_mission_types$ = -148					; size = 120
_count$ = -28						; size = 4
_loop$ = -24						; size = 4
_mission_type$ = -20					; size = 4
_group_type$ = -16					; size = 4
_mission$ = -12						; size = 4
_guide$ = -8						; size = 4
_group$ = -4						; size = 4
_base$ = 8						; size = 4
?get_base_player_suitability_status@@YGHPAUENTITY@@@Z PROC ; get_base_player_suitability_status, COMDAT

; 438  : {

  00000	55		 push	 ebp
  00001	8b ec		 mov	 ebp, esp
  00003	81 ec dc 00 00
	00		 sub	 esp, 220		; 000000dcH
  00009	53		 push	 ebx
  0000a	56		 push	 esi
  0000b	57		 push	 edi

; 439  : 	entity
; 440  : 		*group,
; 441  : 		*guide,
; 442  : 		*mission;
; 443  : 
; 444  : 	entity_sub_types
; 445  : 		group_type,
; 446  : 		mission_type;
; 447  : 
; 448  : 	int
; 449  : 		loop,
; 450  : 		count,
; 451  : 		mission_types [NUM_ENTITY_SUB_TYPE_TASKS];
; 452  : 
; 453  : 	ASSERT (base);

  0000c	83 7d 08 00	 cmp	 DWORD PTR _base$[ebp], 0
  00010	75 18		 jne	 SHORT $LN11@get_base_p
  00012	a1 00 00 00 00	 mov	 eax, DWORD PTR ?__LINE__Var@?0??get_base_player_suitability_status@@YGHPAUENTITY@@@Z@4JA
  00017	83 c0 0f	 add	 eax, 15			; 0000000fH
  0001a	50		 push	 eax
  0001b	68 00 00 00 00	 push	 OFFSET ??_C@_0EL@NMGABAFH@c?3?2users?2nhv90?2projects?2eech?2ap@
  00020	68 00 00 00 00	 push	 OFFSET ??_C@_04BHIIPFEC@base@
  00025	e8 00 00 00 00	 call	 ?process_assert@@YGXPBD0H@Z ; process_assert
$LN11@get_base_p:

; 454  : 
; 455  : 	//
; 456  : 	// First check assigned missions
; 457  : 	//
; 458  : 
; 459  : 	mission = get_local_entity_first_child (base, LIST_TYPE_ASSIGNED_TASK);

  0002a	83 7d 08 00	 cmp	 DWORD PTR _base$[ebp], 0
  0002e	74 0d		 je	 SHORT $LN24@get_base_p
  00030	8b 45 08	 mov	 eax, DWORD PTR _base$[ebp]
  00033	8b 08		 mov	 ecx, DWORD PTR [eax]
  00035	89 8d 28 ff ff
	ff		 mov	 DWORD PTR tv75[ebp], ecx
  0003b	eb 24		 jmp	 SHORT $LN25@get_base_p
$LN24@get_base_p:
  0003d	8b 15 00 00 00
	00		 mov	 edx, DWORD PTR ?__LINE__Var@?0??get_base_player_suitability_status@@YGHPAUENTITY@@@Z@4JA
  00043	83 c2 15	 add	 edx, 21			; 00000015H
  00046	52		 push	 edx
  00047	68 00 00 00 00	 push	 OFFSET ??_C@_0EL@NMGABAFH@c?3?2users?2nhv90?2projects?2eech?2ap@
  0004c	a1 00 00 00 00	 mov	 eax, DWORD PTR ?null_entity_pointer_message@@3PBDB ; null_entity_pointer_message
  00051	50		 push	 eax
  00052	e8 00 00 00 00	 call	 ?process_assert@@YGXPBD0H@Z ; process_assert
  00057	c7 85 28 ff ff
	ff 00 00 00 00	 mov	 DWORD PTR tv75[ebp], 0
$LN25@get_base_p:
  00061	b9 01 00 00 00	 mov	 ecx, 1
  00066	85 c9		 test	 ecx, ecx
  00068	74 0c		 je	 SHORT $LN26@get_base_p
  0006a	c7 85 24 ff ff
	ff 03 00 00 00	 mov	 DWORD PTR tv83[ebp], 3
  00074	eb 24		 jmp	 SHORT $LN27@get_base_p
$LN26@get_base_p:
  00076	8b 15 00 00 00
	00		 mov	 edx, DWORD PTR ?__LINE__Var@?0??get_base_player_suitability_status@@YGHPAUENTITY@@@Z@4JA
  0007c	83 c2 15	 add	 edx, 21			; 00000015H
  0007f	52		 push	 edx
  00080	68 00 00 00 00	 push	 OFFSET ??_C@_0EL@NMGABAFH@c?3?2users?2nhv90?2projects?2eech?2ap@
  00085	a1 00 00 00 00	 mov	 eax, DWORD PTR ?overload_invalid_list_type_message@@3PBDB ; overload_invalid_list_type_message
  0008a	50		 push	 eax
  0008b	e8 00 00 00 00	 call	 ?process_assert@@YGXPBD0H@Z ; process_assert
  00090	c7 85 24 ff ff
	ff 00 00 00 00	 mov	 DWORD PTR tv83[ebp], 0
$LN27@get_base_p:
  0009a	6a 03		 push	 3
  0009c	8b 4d 08	 mov	 ecx, DWORD PTR _base$[ebp]
  0009f	51		 push	 ecx
  000a0	69 95 28 ff ff
	ff b4 00 00 00	 imul	 edx, DWORD PTR tv75[ebp], 180
  000aa	8b 85 24 ff ff
	ff		 mov	 eax, DWORD PTR tv83[ebp]
  000b0	8b 8c 82 00 00
	00 00		 mov	 ecx, DWORD PTR ?fn_get_local_entity_first_child@@3PAY0CN@P6GPAUENTITY@@PAU1@W4LIST_TYPES@@@ZA[edx+eax*4]
  000b7	ff d1		 call	 ecx
  000b9	89 45 f4	 mov	 DWORD PTR _mission$[ebp], eax
$LN2@get_base_p:

; 460  : 
; 461  : 	while (mission)

  000bc	83 7d f4 00	 cmp	 DWORD PTR _mission$[ebp], 0
  000c0	0f 84 d1 02 00
	00		 je	 $LN3@get_base_p

; 462  : 	{
; 463  : 		mission_type = get_local_entity_int_value (mission, INT_TYPE_ENTITY_SUB_TYPE);

  000c6	83 7d f4 00	 cmp	 DWORD PTR _mission$[ebp], 0
  000ca	74 0d		 je	 SHORT $LN28@get_base_p
  000cc	8b 45 f4	 mov	 eax, DWORD PTR _mission$[ebp]
  000cf	8b 08		 mov	 ecx, DWORD PTR [eax]
  000d1	89 8d 28 ff ff
	ff		 mov	 DWORD PTR tv128[ebp], ecx
  000d7	eb 24		 jmp	 SHORT $LN29@get_base_p
$LN28@get_base_p:
  000d9	8b 15 00 00 00
	00		 mov	 edx, DWORD PTR ?__LINE__Var@?0??get_base_player_suitability_status@@YGHPAUENTITY@@@Z@4JA
  000df	83 c2 19	 add	 edx, 25			; 00000019H
  000e2	52		 push	 edx
  000e3	68 00 00 00 00	 push	 OFFSET ??_C@_0EL@NMGABAFH@c?3?2users?2nhv90?2projects?2eech?2ap@
  000e8	a1 00 00 00 00	 mov	 eax, DWORD PTR ?null_entity_pointer_message@@3PBDB ; null_entity_pointer_message
  000ed	50		 push	 eax
  000ee	e8 00 00 00 00	 call	 ?process_assert@@YGXPBD0H@Z ; process_assert
  000f3	c7 85 28 ff ff
	ff 00 00 00 00	 mov	 DWORD PTR tv128[ebp], 0
$LN29@get_base_p:
  000fd	b9 01 00 00 00	 mov	 ecx, 1
  00102	85 c9		 test	 ecx, ecx
  00104	74 0c		 je	 SHORT $LN30@get_base_p
  00106	c7 85 24 ff ff
	ff 34 00 00 00	 mov	 DWORD PTR tv136[ebp], 52 ; 00000034H
  00110	eb 24		 jmp	 SHORT $LN31@get_base_p
$LN30@get_base_p:
  00112	8b 15 00 00 00
	00		 mov	 edx, DWORD PTR ?__LINE__Var@?0??get_base_player_suitability_status@@YGHPAUENTITY@@@Z@4JA
  00118	83 c2 19	 add	 edx, 25			; 00000019H
  0011b	52		 push	 edx
  0011c	68 00 00 00 00	 push	 OFFSET ??_C@_0EL@NMGABAFH@c?3?2users?2nhv90?2projects?2eech?2ap@
  00121	a1 00 00 00 00	 mov	 eax, DWORD PTR ?overload_invalid_int_type_message@@3PBDB ; overload_invalid_int_type_message
  00126	50		 push	 eax
  00127	e8 00 00 00 00	 call	 ?process_assert@@YGXPBD0H@Z ; process_assert
  0012c	c7 85 24 ff ff
	ff 00 00 00 00	 mov	 DWORD PTR tv136[ebp], 0
$LN31@get_base_p:
  00136	6a 34		 push	 52			; 00000034H
  00138	8b 4d f4	 mov	 ecx, DWORD PTR _mission$[ebp]
  0013b	51		 push	 ecx
  0013c	69 95 28 ff ff
	ff 5c 04 00 00	 imul	 edx, DWORD PTR tv128[ebp], 1116
  00146	8b 85 24 ff ff
	ff		 mov	 eax, DWORD PTR tv136[ebp]
  0014c	8b 8c 82 00 00
	00 00		 mov	 ecx, DWORD PTR ?fn_get_local_entity_int_value@@3PAY0BBH@P6GHPAUENTITY@@W4INT_TYPES@@@ZA[edx+eax*4]
  00153	ff d1		 call	 ecx
  00155	89 45 ec	 mov	 DWORD PTR _mission_type$[ebp], eax

; 464  : 
; 465  : 		if ((task_database [mission_type].primary_task) && (task_database [mission_type].visible_task))

  00158	6b 45 ec 50	 imul	 eax, DWORD PTR _mission_type$[ebp], 80
  0015c	8b 88 28 00 00
	00		 mov	 ecx, DWORD PTR ?task_database@@3PAUTASK_DATA@@A[eax+40]
  00162	d1 e9		 shr	 ecx, 1
  00164	83 e1 01	 and	 ecx, 1
  00167	0f 84 93 01 00
	00		 je	 $LN15@get_base_p
  0016d	6b 45 ec 50	 imul	 eax, DWORD PTR _mission_type$[ebp], 80
  00171	8b 88 28 00 00
	00		 mov	 ecx, DWORD PTR ?task_database@@3PAUTASK_DATA@@A[eax+40]
  00177	c1 e9 04	 shr	 ecx, 4
  0017a	83 e1 01	 and	 ecx, 1
  0017d	0f 84 7d 01 00
	00		 je	 $LN15@get_base_p

; 466  : 		{
; 467  : 			guide = get_local_entity_first_child (mission, LIST_TYPE_GUIDE);

  00183	83 7d f4 00	 cmp	 DWORD PTR _mission$[ebp], 0
  00187	74 0d		 je	 SHORT $LN32@get_base_p
  00189	8b 45 f4	 mov	 eax, DWORD PTR _mission$[ebp]
  0018c	8b 08		 mov	 ecx, DWORD PTR [eax]
  0018e	89 8d 28 ff ff
	ff		 mov	 DWORD PTR tv160[ebp], ecx
  00194	eb 24		 jmp	 SHORT $LN33@get_base_p
$LN32@get_base_p:
  00196	8b 15 00 00 00
	00		 mov	 edx, DWORD PTR ?__LINE__Var@?0??get_base_player_suitability_status@@YGHPAUENTITY@@@Z@4JA
  0019c	83 c2 1d	 add	 edx, 29			; 0000001dH
  0019f	52		 push	 edx
  001a0	68 00 00 00 00	 push	 OFFSET ??_C@_0EL@NMGABAFH@c?3?2users?2nhv90?2projects?2eech?2ap@
  001a5	a1 00 00 00 00	 mov	 eax, DWORD PTR ?null_entity_pointer_message@@3PBDB ; null_entity_pointer_message
  001aa	50		 push	 eax
  001ab	e8 00 00 00 00	 call	 ?process_assert@@YGXPBD0H@Z ; process_assert
  001b0	c7 85 28 ff ff
	ff 00 00 00 00	 mov	 DWORD PTR tv160[ebp], 0
$LN33@get_base_p:
  001ba	b9 01 00 00 00	 mov	 ecx, 1
  001bf	85 c9		 test	 ecx, ecx
  001c1	74 0c		 je	 SHORT $LN34@get_base_p
  001c3	c7 85 24 ff ff
	ff 10 00 00 00	 mov	 DWORD PTR tv168[ebp], 16 ; 00000010H
  001cd	eb 24		 jmp	 SHORT $LN35@get_base_p
$LN34@get_base_p:
  001cf	8b 15 00 00 00
	00		 mov	 edx, DWORD PTR ?__LINE__Var@?0??get_base_player_suitability_status@@YGHPAUENTITY@@@Z@4JA
  001d5	83 c2 1d	 add	 edx, 29			; 0000001dH
  001d8	52		 push	 edx
  001d9	68 00 00 00 00	 push	 OFFSET ??_C@_0EL@NMGABAFH@c?3?2users?2nhv90?2projects?2eech?2ap@
  001de	a1 00 00 00 00	 mov	 eax, DWORD PTR ?overload_invalid_list_type_message@@3PBDB ; overload_invalid_list_type_message
  001e3	50		 push	 eax
  001e4	e8 00 00 00 00	 call	 ?process_assert@@YGXPBD0H@Z ; process_assert
  001e9	c7 85 24 ff ff
	ff 00 00 00 00	 mov	 DWORD PTR tv168[ebp], 0
$LN35@get_base_p:
  001f3	6a 10		 push	 16			; 00000010H
  001f5	8b 4d f4	 mov	 ecx, DWORD PTR _mission$[ebp]
  001f8	51		 push	 ecx
  001f9	69 95 28 ff ff
	ff b4 00 00 00	 imul	 edx, DWORD PTR tv160[ebp], 180
  00203	8b 85 24 ff ff
	ff		 mov	 eax, DWORD PTR tv168[ebp]
  00209	8b 8c 82 00 00
	00 00		 mov	 ecx, DWORD PTR ?fn_get_local_entity_first_child@@3PAY0CN@P6GPAUENTITY@@PAU1@W4LIST_TYPES@@@ZA[edx+eax*4]
  00210	ff d1		 call	 ecx
  00212	89 45 f8	 mov	 DWORD PTR _guide$[ebp], eax

; 468  : 
; 469  : 			ASSERT (guide);

  00215	83 7d f8 00	 cmp	 DWORD PTR _guide$[ebp], 0
  00219	75 18		 jne	 SHORT $LN13@get_base_p
  0021b	a1 00 00 00 00	 mov	 eax, DWORD PTR ?__LINE__Var@?0??get_base_player_suitability_status@@YGHPAUENTITY@@@Z@4JA
  00220	83 c0 1f	 add	 eax, 31			; 0000001fH
  00223	50		 push	 eax
  00224	68 00 00 00 00	 push	 OFFSET ??_C@_0EL@NMGABAFH@c?3?2users?2nhv90?2projects?2eech?2ap@
  00229	68 00 00 00 00	 push	 OFFSET ??_C@_05HLIEEKJG@guide@
  0022e	e8 00 00 00 00	 call	 ?process_assert@@YGXPBD0H@Z ; process_assert
$LN13@get_base_p:

; 470  : 
; 471  : 			group = get_local_entity_parent (guide, LIST_TYPE_GUIDE_STACK);

  00233	83 7d f8 00	 cmp	 DWORD PTR _guide$[ebp], 0
  00237	74 0d		 je	 SHORT $LN36@get_base_p
  00239	8b 45 f8	 mov	 eax, DWORD PTR _guide$[ebp]
  0023c	8b 08		 mov	 ecx, DWORD PTR [eax]
  0023e	89 8d 28 ff ff
	ff		 mov	 DWORD PTR tv185[ebp], ecx
  00244	eb 24		 jmp	 SHORT $LN37@get_base_p
$LN36@get_base_p:
  00246	8b 15 00 00 00
	00		 mov	 edx, DWORD PTR ?__LINE__Var@?0??get_base_player_suitability_status@@YGHPAUENTITY@@@Z@4JA
  0024c	83 c2 21	 add	 edx, 33			; 00000021H
  0024f	52		 push	 edx
  00250	68 00 00 00 00	 push	 OFFSET ??_C@_0EL@NMGABAFH@c?3?2users?2nhv90?2projects?2eech?2ap@
  00255	a1 00 00 00 00	 mov	 eax, DWORD PTR ?null_entity_pointer_message@@3PBDB ; null_entity_pointer_message
  0025a	50		 push	 eax
  0025b	e8 00 00 00 00	 call	 ?process_assert@@YGXPBD0H@Z ; process_assert
  00260	c7 85 28 ff ff
	ff 00 00 00 00	 mov	 DWORD PTR tv185[ebp], 0
$LN37@get_base_p:
  0026a	b9 01 00 00 00	 mov	 ecx, 1
  0026f	85 c9		 test	 ecx, ecx
  00271	74 0c		 je	 SHORT $LN38@get_base_p
  00273	c7 85 24 ff ff
	ff 11 00 00 00	 mov	 DWORD PTR tv193[ebp], 17 ; 00000011H
  0027d	eb 24		 jmp	 SHORT $LN39@get_base_p
$LN38@get_base_p:
  0027f	8b 15 00 00 00
	00		 mov	 edx, DWORD PTR ?__LINE__Var@?0??get_base_player_suitability_status@@YGHPAUENTITY@@@Z@4JA
  00285	83 c2 21	 add	 edx, 33			; 00000021H
  00288	52		 push	 edx
  00289	68 00 00 00 00	 push	 OFFSET ??_C@_0EL@NMGABAFH@c?3?2users?2nhv90?2projects?2eech?2ap@
  0028e	a1 00 00 00 00	 mov	 eax, DWORD PTR ?overload_invalid_list_type_message@@3PBDB ; overload_invalid_list_type_message
  00293	50		 push	 eax
  00294	e8 00 00 00 00	 call	 ?process_assert@@YGXPBD0H@Z ; process_assert
  00299	c7 85 24 ff ff
	ff 00 00 00 00	 mov	 DWORD PTR tv193[ebp], 0
$LN39@get_base_p:
  002a3	6a 11		 push	 17			; 00000011H
  002a5	8b 4d f8	 mov	 ecx, DWORD PTR _guide$[ebp]
  002a8	51		 push	 ecx
  002a9	69 95 28 ff ff
	ff b4 00 00 00	 imul	 edx, DWORD PTR tv185[ebp], 180
  002b3	8b 85 24 ff ff
	ff		 mov	 eax, DWORD PTR tv193[ebp]
  002b9	8b 8c 82 00 00
	00 00		 mov	 ecx, DWORD PTR ?fn_get_local_entity_parent@@3PAY0CN@P6GPAUENTITY@@PAU1@W4LIST_TYPES@@@ZA[edx+eax*4]
  002c0	ff d1		 call	 ecx
  002c2	89 45 fc	 mov	 DWORD PTR _group$[ebp], eax

; 472  : 
; 473  : 			ASSERT (group);

  002c5	83 7d fc 00	 cmp	 DWORD PTR _group$[ebp], 0
  002c9	75 18		 jne	 SHORT $LN14@get_base_p
  002cb	a1 00 00 00 00	 mov	 eax, DWORD PTR ?__LINE__Var@?0??get_base_player_suitability_status@@YGHPAUENTITY@@@Z@4JA
  002d0	83 c0 23	 add	 eax, 35			; 00000023H
  002d3	50		 push	 eax
  002d4	68 00 00 00 00	 push	 OFFSET ??_C@_0EL@NMGABAFH@c?3?2users?2nhv90?2projects?2eech?2ap@
  002d9	68 00 00 00 00	 push	 OFFSET ??_C@_05MGJOOGAJ@group@
  002de	e8 00 00 00 00	 call	 ?process_assert@@YGXPBD0H@Z ; process_assert
$LN14@get_base_p:

; 474  : 
; 475  : 			if (get_group_suitable_for_player (group, get_pilot_entity ()))

  002e3	a1 00 00 00 00	 mov	 eax, DWORD PTR ?pilot_entity@@3PAUENTITY@@A ; pilot_entity
  002e8	50		 push	 eax
  002e9	8b 4d fc	 mov	 ecx, DWORD PTR _group$[ebp]
  002ec	51		 push	 ecx
  002ed	e8 00 00 00 00	 call	 ?get_group_suitable_for_player@@YGHPAUENTITY@@0@Z ; get_group_suitable_for_player
  002f2	85 c0		 test	 eax, eax
  002f4	74 0a		 je	 SHORT $LN15@get_base_p

; 476  : 			{
; 477  : 				return TRUE;

  002f6	b8 01 00 00 00	 mov	 eax, 1
  002fb	e9 89 05 00 00	 jmp	 $LN1@get_base_p
$LN15@get_base_p:

; 478  : 			}
; 479  : 		}
; 480  : 
; 481  : 		mission = get_local_entity_child_succ (mission, LIST_TYPE_ASSIGNED_TASK);

  00300	83 7d f4 00	 cmp	 DWORD PTR _mission$[ebp], 0
  00304	74 0d		 je	 SHORT $LN40@get_base_p
  00306	8b 45 f4	 mov	 eax, DWORD PTR _mission$[ebp]
  00309	8b 08		 mov	 ecx, DWORD PTR [eax]
  0030b	89 8d 28 ff ff
	ff		 mov	 DWORD PTR tv214[ebp], ecx
  00311	eb 24		 jmp	 SHORT $LN41@get_base_p
$LN40@get_base_p:
  00313	8b 15 00 00 00
	00		 mov	 edx, DWORD PTR ?__LINE__Var@?0??get_base_player_suitability_status@@YGHPAUENTITY@@@Z@4JA
  00319	83 c2 2b	 add	 edx, 43			; 0000002bH
  0031c	52		 push	 edx
  0031d	68 00 00 00 00	 push	 OFFSET ??_C@_0EL@NMGABAFH@c?3?2users?2nhv90?2projects?2eech?2ap@
  00322	a1 00 00 00 00	 mov	 eax, DWORD PTR ?null_entity_pointer_message@@3PBDB ; null_entity_pointer_message
  00327	50		 push	 eax
  00328	e8 00 00 00 00	 call	 ?process_assert@@YGXPBD0H@Z ; process_assert
  0032d	c7 85 28 ff ff
	ff 00 00 00 00	 mov	 DWORD PTR tv214[ebp], 0
$LN41@get_base_p:
  00337	b9 01 00 00 00	 mov	 ecx, 1
  0033c	85 c9		 test	 ecx, ecx
  0033e	74 0c		 je	 SHORT $LN42@get_base_p
  00340	c7 85 24 ff ff
	ff 03 00 00 00	 mov	 DWORD PTR tv222[ebp], 3
  0034a	eb 24		 jmp	 SHORT $LN43@get_base_p
$LN42@get_base_p:
  0034c	8b 15 00 00 00
	00		 mov	 edx, DWORD PTR ?__LINE__Var@?0??get_base_player_suitability_status@@YGHPAUENTITY@@@Z@4JA
  00352	83 c2 2b	 add	 edx, 43			; 0000002bH
  00355	52		 push	 edx
  00356	68 00 00 00 00	 push	 OFFSET ??_C@_0EL@NMGABAFH@c?3?2users?2nhv90?2projects?2eech?2ap@
  0035b	a1 00 00 00 00	 mov	 eax, DWORD PTR ?overload_invalid_list_type_message@@3PBDB ; overload_invalid_list_type_message
  00360	50		 push	 eax
  00361	e8 00 00 00 00	 call	 ?process_assert@@YGXPBD0H@Z ; process_assert
  00366	c7 85 24 ff ff
	ff 00 00 00 00	 mov	 DWORD PTR tv222[ebp], 0
$LN43@get_base_p:
  00370	6a 03		 push	 3
  00372	8b 4d f4	 mov	 ecx, DWORD PTR _mission$[ebp]
  00375	51		 push	 ecx
  00376	69 95 28 ff ff
	ff b4 00 00 00	 imul	 edx, DWORD PTR tv214[ebp], 180
  00380	8b 85 24 ff ff
	ff		 mov	 eax, DWORD PTR tv222[ebp]
  00386	8b 8c 82 00 00
	00 00		 mov	 ecx, DWORD PTR ?fn_get_local_entity_child_succ@@3PAY0CN@P6GPAUENTITY@@PAU1@W4LIST_TYPES@@@ZA[edx+eax*4]
  0038d	ff d1		 call	 ecx
  0038f	89 45 f4	 mov	 DWORD PTR _mission$[ebp], eax

; 482  : 	}

  00392	e9 25 fd ff ff	 jmp	 $LN2@get_base_p
$LN3@get_base_p:

; 483  : 
; 484  : 	//
; 485  : 	// Construct a list of types of mission available at the base
; 486  : 	//
; 487  : 
; 488  : 	memset (mission_types, 0, sizeof (int) * NUM_ENTITY_SUB_TYPE_TASKS);

  00397	6a 78		 push	 120			; 00000078H
  00399	6a 00		 push	 0
  0039b	8d 85 6c ff ff
	ff		 lea	 eax, DWORD PTR _mission_types$[ebp]
  003a1	50		 push	 eax
  003a2	e8 00 00 00 00	 call	 _memset
  003a7	83 c4 0c	 add	 esp, 12			; 0000000cH

; 489  : 
; 490  : 	count = 0;

  003aa	c7 45 e4 00 00
	00 00		 mov	 DWORD PTR _count$[ebp], 0

; 491  : 
; 492  : 	mission = get_local_entity_first_child (base, LIST_TYPE_UNASSIGNED_TASK);

  003b1	83 7d 08 00	 cmp	 DWORD PTR _base$[ebp], 0
  003b5	74 0d		 je	 SHORT $LN44@get_base_p
  003b7	8b 45 08	 mov	 eax, DWORD PTR _base$[ebp]
  003ba	8b 08		 mov	 ecx, DWORD PTR [eax]
  003bc	89 8d 28 ff ff
	ff		 mov	 DWORD PTR tv237[ebp], ecx
  003c2	eb 24		 jmp	 SHORT $LN45@get_base_p
$LN44@get_base_p:
  003c4	8b 15 00 00 00
	00		 mov	 edx, DWORD PTR ?__LINE__Var@?0??get_base_player_suitability_status@@YGHPAUENTITY@@@Z@4JA
  003ca	83 c2 36	 add	 edx, 54			; 00000036H
  003cd	52		 push	 edx
  003ce	68 00 00 00 00	 push	 OFFSET ??_C@_0EL@NMGABAFH@c?3?2users?2nhv90?2projects?2eech?2ap@
  003d3	a1 00 00 00 00	 mov	 eax, DWORD PTR ?null_entity_pointer_message@@3PBDB ; null_entity_pointer_message
  003d8	50		 push	 eax
  003d9	e8 00 00 00 00	 call	 ?process_assert@@YGXPBD0H@Z ; process_assert
  003de	c7 85 28 ff ff
	ff 00 00 00 00	 mov	 DWORD PTR tv237[ebp], 0
$LN45@get_base_p:
  003e8	b9 01 00 00 00	 mov	 ecx, 1
  003ed	85 c9		 test	 ecx, ecx
  003ef	74 0c		 je	 SHORT $LN46@get_base_p
  003f1	c7 85 24 ff ff
	ff 28 00 00 00	 mov	 DWORD PTR tv245[ebp], 40 ; 00000028H
  003fb	eb 24		 jmp	 SHORT $LN47@get_base_p
$LN46@get_base_p:
  003fd	8b 15 00 00 00
	00		 mov	 edx, DWORD PTR ?__LINE__Var@?0??get_base_player_suitability_status@@YGHPAUENTITY@@@Z@4JA
  00403	83 c2 36	 add	 edx, 54			; 00000036H
  00406	52		 push	 edx
  00407	68 00 00 00 00	 push	 OFFSET ??_C@_0EL@NMGABAFH@c?3?2users?2nhv90?2projects?2eech?2ap@
  0040c	a1 00 00 00 00	 mov	 eax, DWORD PTR ?overload_invalid_list_type_message@@3PBDB ; overload_invalid_list_type_message
  00411	50		 push	 eax
  00412	e8 00 00 00 00	 call	 ?process_assert@@YGXPBD0H@Z ; process_assert
  00417	c7 85 24 ff ff
	ff 00 00 00 00	 mov	 DWORD PTR tv245[ebp], 0
$LN47@get_base_p:
  00421	6a 28		 push	 40			; 00000028H
  00423	8b 4d 08	 mov	 ecx, DWORD PTR _base$[ebp]
  00426	51		 push	 ecx
  00427	69 95 28 ff ff
	ff b4 00 00 00	 imul	 edx, DWORD PTR tv237[ebp], 180
  00431	8b 85 24 ff ff
	ff		 mov	 eax, DWORD PTR tv245[ebp]
  00437	8b 8c 82 00 00
	00 00		 mov	 ecx, DWORD PTR ?fn_get_local_entity_first_child@@3PAY0CN@P6GPAUENTITY@@PAU1@W4LIST_TYPES@@@ZA[edx+eax*4]
  0043e	ff d1		 call	 ecx
  00440	89 45 f4	 mov	 DWORD PTR _mission$[ebp], eax
$LN4@get_base_p:

; 493  : 
; 494  : 	while (mission)

  00443	83 7d f4 00	 cmp	 DWORD PTR _mission$[ebp], 0
  00447	0f 84 70 01 00
	00		 je	 $LN5@get_base_p

; 495  : 	{
; 496  : 		mission_type = get_local_entity_int_value (mission, INT_TYPE_ENTITY_SUB_TYPE);

  0044d	83 7d f4 00	 cmp	 DWORD PTR _mission$[ebp], 0
  00451	74 0d		 je	 SHORT $LN48@get_base_p
  00453	8b 45 f4	 mov	 eax, DWORD PTR _mission$[ebp]
  00456	8b 08		 mov	 ecx, DWORD PTR [eax]
  00458	89 8d 28 ff ff
	ff		 mov	 DWORD PTR tv258[ebp], ecx
  0045e	eb 24		 jmp	 SHORT $LN49@get_base_p
$LN48@get_base_p:
  00460	8b 15 00 00 00
	00		 mov	 edx, DWORD PTR ?__LINE__Var@?0??get_base_player_suitability_status@@YGHPAUENTITY@@@Z@4JA
  00466	83 c2 3a	 add	 edx, 58			; 0000003aH
  00469	52		 push	 edx
  0046a	68 00 00 00 00	 push	 OFFSET ??_C@_0EL@NMGABAFH@c?3?2users?2nhv90?2projects?2eech?2ap@
  0046f	a1 00 00 00 00	 mov	 eax, DWORD PTR ?null_entity_pointer_message@@3PBDB ; null_entity_pointer_message
  00474	50		 push	 eax
  00475	e8 00 00 00 00	 call	 ?process_assert@@YGXPBD0H@Z ; process_assert
  0047a	c7 85 28 ff ff
	ff 00 00 00 00	 mov	 DWORD PTR tv258[ebp], 0
$LN49@get_base_p:
  00484	b9 01 00 00 00	 mov	 ecx, 1
  00489	85 c9		 test	 ecx, ecx
  0048b	74 0c		 je	 SHORT $LN50@get_base_p
  0048d	c7 85 24 ff ff
	ff 34 00 00 00	 mov	 DWORD PTR tv266[ebp], 52 ; 00000034H
  00497	eb 24		 jmp	 SHORT $LN51@get_base_p
$LN50@get_base_p:
  00499	8b 15 00 00 00
	00		 mov	 edx, DWORD PTR ?__LINE__Var@?0??get_base_player_suitability_status@@YGHPAUENTITY@@@Z@4JA
  0049f	83 c2 3a	 add	 edx, 58			; 0000003aH
  004a2	52		 push	 edx
  004a3	68 00 00 00 00	 push	 OFFSET ??_C@_0EL@NMGABAFH@c?3?2users?2nhv90?2projects?2eech?2ap@
  004a8	a1 00 00 00 00	 mov	 eax, DWORD PTR ?overload_invalid_int_type_message@@3PBDB ; overload_invalid_int_type_message
  004ad	50		 push	 eax
  004ae	e8 00 00 00 00	 call	 ?process_assert@@YGXPBD0H@Z ; process_assert
  004b3	c7 85 24 ff ff
	ff 00 00 00 00	 mov	 DWORD PTR tv266[ebp], 0
$LN51@get_base_p:
  004bd	6a 34		 push	 52			; 00000034H
  004bf	8b 4d f4	 mov	 ecx, DWORD PTR _mission$[ebp]
  004c2	51		 push	 ecx
  004c3	69 95 28 ff ff
	ff 5c 04 00 00	 imul	 edx, DWORD PTR tv258[ebp], 1116
  004cd	8b 85 24 ff ff
	ff		 mov	 eax, DWORD PTR tv266[ebp]
  004d3	8b 8c 82 00 00
	00 00		 mov	 ecx, DWORD PTR ?fn_get_local_entity_int_value@@3PAY0BBH@P6GHPAUENTITY@@W4INT_TYPES@@@ZA[edx+eax*4]
  004da	ff d1		 call	 ecx
  004dc	89 45 ec	 mov	 DWORD PTR _mission_type$[ebp], eax

; 497  : 
; 498  : 		if ((task_database [mission_type].primary_task) && (task_database [mission_type].visible_task))

  004df	6b 45 ec 50	 imul	 eax, DWORD PTR _mission_type$[ebp], 80
  004e3	8b 88 28 00 00
	00		 mov	 ecx, DWORD PTR ?task_database@@3PAUTASK_DATA@@A[eax+40]
  004e9	d1 e9		 shr	 ecx, 1
  004eb	83 e1 01	 and	 ecx, 1
  004ee	74 36		 je	 SHORT $LN17@get_base_p
  004f0	6b 45 ec 50	 imul	 eax, DWORD PTR _mission_type$[ebp], 80
  004f4	8b 88 28 00 00
	00		 mov	 ecx, DWORD PTR ?task_database@@3PAUTASK_DATA@@A[eax+40]
  004fa	c1 e9 04	 shr	 ecx, 4
  004fd	83 e1 01	 and	 ecx, 1
  00500	74 24		 je	 SHORT $LN17@get_base_p

; 499  : 		{
; 500  : 			if (!mission_types [mission_type])

  00502	8b 45 ec	 mov	 eax, DWORD PTR _mission_type$[ebp]
  00505	83 bc 85 6c ff
	ff ff 00	 cmp	 DWORD PTR _mission_types$[ebp+eax*4], 0
  0050d	75 17		 jne	 SHORT $LN17@get_base_p

; 501  : 			{
; 502  : 				mission_types [mission_type] = TRUE;

  0050f	8b 45 ec	 mov	 eax, DWORD PTR _mission_type$[ebp]
  00512	c7 84 85 6c ff
	ff ff 01 00 00
	00		 mov	 DWORD PTR _mission_types$[ebp+eax*4], 1

; 503  : 
; 504  : 				count ++;

  0051d	8b 45 e4	 mov	 eax, DWORD PTR _count$[ebp]
  00520	83 c0 01	 add	 eax, 1
  00523	89 45 e4	 mov	 DWORD PTR _count$[ebp], eax
$LN17@get_base_p:

; 505  : 			}
; 506  : 		}
; 507  : 
; 508  : 		mission = get_local_entity_child_succ (mission, LIST_TYPE_ASSIGNED_TASK);

  00526	83 7d f4 00	 cmp	 DWORD PTR _mission$[ebp], 0
  0052a	74 0d		 je	 SHORT $LN52@get_base_p
  0052c	8b 45 f4	 mov	 eax, DWORD PTR _mission$[ebp]
  0052f	8b 08		 mov	 ecx, DWORD PTR [eax]
  00531	89 8d 28 ff ff
	ff		 mov	 DWORD PTR tv296[ebp], ecx
  00537	eb 24		 jmp	 SHORT $LN53@get_base_p
$LN52@get_base_p:
  00539	8b 15 00 00 00
	00		 mov	 edx, DWORD PTR ?__LINE__Var@?0??get_base_player_suitability_status@@YGHPAUENTITY@@@Z@4JA
  0053f	83 c2 46	 add	 edx, 70			; 00000046H
  00542	52		 push	 edx
  00543	68 00 00 00 00	 push	 OFFSET ??_C@_0EL@NMGABAFH@c?3?2users?2nhv90?2projects?2eech?2ap@
  00548	a1 00 00 00 00	 mov	 eax, DWORD PTR ?null_entity_pointer_message@@3PBDB ; null_entity_pointer_message
  0054d	50		 push	 eax
  0054e	e8 00 00 00 00	 call	 ?process_assert@@YGXPBD0H@Z ; process_assert
  00553	c7 85 28 ff ff
	ff 00 00 00 00	 mov	 DWORD PTR tv296[ebp], 0
$LN53@get_base_p:
  0055d	b9 01 00 00 00	 mov	 ecx, 1
  00562	85 c9		 test	 ecx, ecx
  00564	74 0c		 je	 SHORT $LN54@get_base_p
  00566	c7 85 24 ff ff
	ff 03 00 00 00	 mov	 DWORD PTR tv304[ebp], 3
  00570	eb 24		 jmp	 SHORT $LN55@get_base_p
$LN54@get_base_p:
  00572	8b 15 00 00 00
	00		 mov	 edx, DWORD PTR ?__LINE__Var@?0??get_base_player_suitability_status@@YGHPAUENTITY@@@Z@4JA
  00578	83 c2 46	 add	 edx, 70			; 00000046H
  0057b	52		 push	 edx
  0057c	68 00 00 00 00	 push	 OFFSET ??_C@_0EL@NMGABAFH@c?3?2users?2nhv90?2projects?2eech?2ap@
  00581	a1 00 00 00 00	 mov	 eax, DWORD PTR ?overload_invalid_list_type_message@@3PBDB ; overload_invalid_list_type_message
  00586	50		 push	 eax
  00587	e8 00 00 00 00	 call	 ?process_assert@@YGXPBD0H@Z ; process_assert
  0058c	c7 85 24 ff ff
	ff 00 00 00 00	 mov	 DWORD PTR tv304[ebp], 0
$LN55@get_base_p:
  00596	6a 03		 push	 3
  00598	8b 4d f4	 mov	 ecx, DWORD PTR _mission$[ebp]
  0059b	51		 push	 ecx
  0059c	69 95 28 ff ff
	ff b4 00 00 00	 imul	 edx, DWORD PTR tv296[ebp], 180
  005a6	8b 85 24 ff ff
	ff		 mov	 eax, DWORD PTR tv304[ebp]
  005ac	8b 8c 82 00 00
	00 00		 mov	 ecx, DWORD PTR ?fn_get_local_entity_child_succ@@3PAY0CN@P6GPAUENTITY@@PAU1@W4LIST_TYPES@@@ZA[edx+eax*4]
  005b3	ff d1		 call	 ecx
  005b5	89 45 f4	 mov	 DWORD PTR _mission$[ebp], eax

; 509  : 	}

  005b8	e9 86 fe ff ff	 jmp	 $LN4@get_base_p
$LN5@get_base_p:

; 510  : 
; 511  : 	if (count == 0)

  005bd	83 7d e4 00	 cmp	 DWORD PTR _count$[ebp], 0
  005c1	75 07		 jne	 SHORT $LN18@get_base_p

; 512  : 	{
; 513  : 		return FALSE;

  005c3	33 c0		 xor	 eax, eax
  005c5	e9 bf 02 00 00	 jmp	 $LN1@get_base_p
$LN18@get_base_p:

; 514  : 	}
; 515  : 
; 516  : 	//
; 517  : 	// Take each group at the base, and test if it matches an available mission type
; 518  : 	//
; 519  : 
; 520  : 	group = get_local_entity_first_child (base, LIST_TYPE_KEYSITE_GROUP);

  005ca	83 7d 08 00	 cmp	 DWORD PTR _base$[ebp], 0
  005ce	74 0d		 je	 SHORT $LN56@get_base_p
  005d0	8b 45 08	 mov	 eax, DWORD PTR _base$[ebp]
  005d3	8b 08		 mov	 ecx, DWORD PTR [eax]
  005d5	89 8d 28 ff ff
	ff		 mov	 DWORD PTR tv317[ebp], ecx
  005db	eb 24		 jmp	 SHORT $LN57@get_base_p
$LN56@get_base_p:
  005dd	8b 15 00 00 00
	00		 mov	 edx, DWORD PTR ?__LINE__Var@?0??get_base_player_suitability_status@@YGHPAUENTITY@@@Z@4JA
  005e3	83 c2 52	 add	 edx, 82			; 00000052H
  005e6	52		 push	 edx
  005e7	68 00 00 00 00	 push	 OFFSET ??_C@_0EL@NMGABAFH@c?3?2users?2nhv90?2projects?2eech?2ap@
  005ec	a1 00 00 00 00	 mov	 eax, DWORD PTR ?null_entity_pointer_message@@3PBDB ; null_entity_pointer_message
  005f1	50		 push	 eax
  005f2	e8 00 00 00 00	 call	 ?process_assert@@YGXPBD0H@Z ; process_assert
  005f7	c7 85 28 ff ff
	ff 00 00 00 00	 mov	 DWORD PTR tv317[ebp], 0
$LN57@get_base_p:
  00601	b9 01 00 00 00	 mov	 ecx, 1
  00606	85 c9		 test	 ecx, ecx
  00608	74 0c		 je	 SHORT $LN58@get_base_p
  0060a	c7 85 24 ff ff
	ff 16 00 00 00	 mov	 DWORD PTR tv325[ebp], 22 ; 00000016H
  00614	eb 24		 jmp	 SHORT $LN59@get_base_p
$LN58@get_base_p:
  00616	8b 15 00 00 00
	00		 mov	 edx, DWORD PTR ?__LINE__Var@?0??get_base_player_suitability_status@@YGHPAUENTITY@@@Z@4JA
  0061c	83 c2 52	 add	 edx, 82			; 00000052H
  0061f	52		 push	 edx
  00620	68 00 00 00 00	 push	 OFFSET ??_C@_0EL@NMGABAFH@c?3?2users?2nhv90?2projects?2eech?2ap@
  00625	a1 00 00 00 00	 mov	 eax, DWORD PTR ?overload_invalid_list_type_message@@3PBDB ; overload_invalid_list_type_message
  0062a	50		 push	 eax
  0062b	e8 00 00 00 00	 call	 ?process_assert@@YGXPBD0H@Z ; process_assert
  00630	c7 85 24 ff ff
	ff 00 00 00 00	 mov	 DWORD PTR tv325[ebp], 0
$LN59@get_base_p:
  0063a	6a 16		 push	 22			; 00000016H
  0063c	8b 4d 08	 mov	 ecx, DWORD PTR _base$[ebp]
  0063f	51		 push	 ecx
  00640	69 95 28 ff ff
	ff b4 00 00 00	 imul	 edx, DWORD PTR tv317[ebp], 180
  0064a	8b 85 24 ff ff
	ff		 mov	 eax, DWORD PTR tv325[ebp]
  00650	8b 8c 82 00 00
	00 00		 mov	 ecx, DWORD PTR ?fn_get_local_entity_first_child@@3PAY0CN@P6GPAUENTITY@@PAU1@W4LIST_TYPES@@@ZA[edx+eax*4]
  00657	ff d1		 call	 ecx
  00659	89 45 fc	 mov	 DWORD PTR _group$[ebp], eax
$LN6@get_base_p:

; 521  : 
; 522  : 	while (group)

  0065c	83 7d fc 00	 cmp	 DWORD PTR _group$[ebp], 0
  00660	0f 84 21 02 00
	00		 je	 $LN7@get_base_p

; 523  : 	{
; 524  : 		if (get_local_entity_int_value (group, INT_TYPE_GROUP_MODE) == GROUP_MODE_IDLE)

  00666	83 7d fc 00	 cmp	 DWORD PTR _group$[ebp], 0
  0066a	74 0d		 je	 SHORT $LN60@get_base_p
  0066c	8b 45 fc	 mov	 eax, DWORD PTR _group$[ebp]
  0066f	8b 08		 mov	 ecx, DWORD PTR [eax]
  00671	89 8d 28 ff ff
	ff		 mov	 DWORD PTR tv337[ebp], ecx
  00677	eb 20		 jmp	 SHORT $LN61@get_base_p
$LN60@get_base_p:
  00679	68 0c 02 00 00	 push	 524			; 0000020cH
  0067e	68 00 00 00 00	 push	 OFFSET ??_C@_0EL@NMGABAFH@c?3?2users?2nhv90?2projects?2eech?2ap@
  00683	8b 15 00 00 00
	00		 mov	 edx, DWORD PTR ?null_entity_pointer_message@@3PBDB ; null_entity_pointer_message
  00689	52		 push	 edx
  0068a	e8 00 00 00 00	 call	 ?process_assert@@YGXPBD0H@Z ; process_assert
  0068f	c7 85 28 ff ff
	ff 00 00 00 00	 mov	 DWORD PTR tv337[ebp], 0
$LN61@get_base_p:
  00699	b8 01 00 00 00	 mov	 eax, 1
  0069e	85 c0		 test	 eax, eax
  006a0	74 0c		 je	 SHORT $LN62@get_base_p
  006a2	c7 85 24 ff ff
	ff 4d 00 00 00	 mov	 DWORD PTR tv344[ebp], 77 ; 0000004dH
  006ac	eb 20		 jmp	 SHORT $LN63@get_base_p
$LN62@get_base_p:
  006ae	68 0c 02 00 00	 push	 524			; 0000020cH
  006b3	68 00 00 00 00	 push	 OFFSET ??_C@_0EL@NMGABAFH@c?3?2users?2nhv90?2projects?2eech?2ap@
  006b8	8b 0d 00 00 00
	00		 mov	 ecx, DWORD PTR ?overload_invalid_int_type_message@@3PBDB ; overload_invalid_int_type_message
  006be	51		 push	 ecx
  006bf	e8 00 00 00 00	 call	 ?process_assert@@YGXPBD0H@Z ; process_assert
  006c4	c7 85 24 ff ff
	ff 00 00 00 00	 mov	 DWORD PTR tv344[ebp], 0
$LN63@get_base_p:
  006ce	6a 4d		 push	 77			; 0000004dH
  006d0	8b 55 fc	 mov	 edx, DWORD PTR _group$[ebp]
  006d3	52		 push	 edx
  006d4	69 85 28 ff ff
	ff 5c 04 00 00	 imul	 eax, DWORD PTR tv337[ebp], 1116
  006de	8b 8d 24 ff ff
	ff		 mov	 ecx, DWORD PTR tv344[ebp]
  006e4	8b 94 88 00 00
	00 00		 mov	 edx, DWORD PTR ?fn_get_local_entity_int_value@@3PAY0BBH@P6GHPAUENTITY@@W4INT_TYPES@@@ZA[eax+ecx*4]
  006eb	ff d2		 call	 edx
  006ed	85 c0		 test	 eax, eax
  006ef	0f 85 fb 00 00
	00		 jne	 $LN9@get_base_p

; 525  : 		{
; 526  : 			group_type = get_local_entity_int_value (group, INT_TYPE_ENTITY_SUB_TYPE);

  006f5	83 7d fc 00	 cmp	 DWORD PTR _group$[ebp], 0
  006f9	74 0d		 je	 SHORT $LN64@get_base_p
  006fb	8b 45 fc	 mov	 eax, DWORD PTR _group$[ebp]
  006fe	8b 08		 mov	 ecx, DWORD PTR [eax]
  00700	89 8d 28 ff ff
	ff		 mov	 DWORD PTR tv357[ebp], ecx
  00706	eb 24		 jmp	 SHORT $LN65@get_base_p
$LN64@get_base_p:
  00708	8b 15 00 00 00
	00		 mov	 edx, DWORD PTR ?__LINE__Var@?0??get_base_player_suitability_status@@YGHPAUENTITY@@@Z@4JA
  0070e	83 c2 58	 add	 edx, 88			; 00000058H
  00711	52		 push	 edx
  00712	68 00 00 00 00	 push	 OFFSET ??_C@_0EL@NMGABAFH@c?3?2users?2nhv90?2projects?2eech?2ap@
  00717	a1 00 00 00 00	 mov	 eax, DWORD PTR ?null_entity_pointer_message@@3PBDB ; null_entity_pointer_message
  0071c	50		 push	 eax
  0071d	e8 00 00 00 00	 call	 ?process_assert@@YGXPBD0H@Z ; process_assert
  00722	c7 85 28 ff ff
	ff 00 00 00 00	 mov	 DWORD PTR tv357[ebp], 0
$LN65@get_base_p:
  0072c	b9 01 00 00 00	 mov	 ecx, 1
  00731	85 c9		 test	 ecx, ecx
  00733	74 0c		 je	 SHORT $LN66@get_base_p
  00735	c7 85 24 ff ff
	ff 34 00 00 00	 mov	 DWORD PTR tv365[ebp], 52 ; 00000034H
  0073f	eb 24		 jmp	 SHORT $LN67@get_base_p
$LN66@get_base_p:
  00741	8b 15 00 00 00
	00		 mov	 edx, DWORD PTR ?__LINE__Var@?0??get_base_player_suitability_status@@YGHPAUENTITY@@@Z@4JA
  00747	83 c2 58	 add	 edx, 88			; 00000058H
  0074a	52		 push	 edx
  0074b	68 00 00 00 00	 push	 OFFSET ??_C@_0EL@NMGABAFH@c?3?2users?2nhv90?2projects?2eech?2ap@
  00750	a1 00 00 00 00	 mov	 eax, DWORD PTR ?overload_invalid_int_type_message@@3PBDB ; overload_invalid_int_type_message
  00755	50		 push	 eax
  00756	e8 00 00 00 00	 call	 ?process_assert@@YGXPBD0H@Z ; process_assert
  0075b	c7 85 24 ff ff
	ff 00 00 00 00	 mov	 DWORD PTR tv365[ebp], 0
$LN67@get_base_p:
  00765	6a 34		 push	 52			; 00000034H
  00767	8b 4d fc	 mov	 ecx, DWORD PTR _group$[ebp]
  0076a	51		 push	 ecx
  0076b	69 95 28 ff ff
	ff 5c 04 00 00	 imul	 edx, DWORD PTR tv357[ebp], 1116
  00775	8b 85 24 ff ff
	ff		 mov	 eax, DWORD PTR tv365[ebp]
  0077b	8b 8c 82 00 00
	00 00		 mov	 ecx, DWORD PTR ?fn_get_local_entity_int_value@@3PAY0BBH@P6GHPAUENTITY@@W4INT_TYPES@@@ZA[edx+eax*4]
  00782	ff d1		 call	 ecx
  00784	89 45 f0	 mov	 DWORD PTR _group_type$[ebp], eax

; 527  : 
; 528  : 			if (get_group_suitable_for_player (group, get_pilot_entity ()))

  00787	a1 00 00 00 00	 mov	 eax, DWORD PTR ?pilot_entity@@3PAUENTITY@@A ; pilot_entity
  0078c	50		 push	 eax
  0078d	8b 4d fc	 mov	 ecx, DWORD PTR _group$[ebp]
  00790	51		 push	 ecx
  00791	e8 00 00 00 00	 call	 ?get_group_suitable_for_player@@YGHPAUENTITY@@0@Z ; get_group_suitable_for_player
  00796	85 c0		 test	 eax, eax
  00798	74 56		 je	 SHORT $LN9@get_base_p

; 529  : 			{
; 530  : 				for (loop = 0; loop < NUM_ENTITY_SUB_TYPE_TASKS; loop ++)

  0079a	c7 45 e8 00 00
	00 00		 mov	 DWORD PTR _loop$[ebp], 0
  007a1	eb 09		 jmp	 SHORT $LN10@get_base_p
$LN8@get_base_p:
  007a3	8b 45 e8	 mov	 eax, DWORD PTR _loop$[ebp]
  007a6	83 c0 01	 add	 eax, 1
  007a9	89 45 e8	 mov	 DWORD PTR _loop$[ebp], eax
$LN10@get_base_p:
  007ac	83 7d e8 1e	 cmp	 DWORD PTR _loop$[ebp], 30 ; 0000001eH
  007b0	7d 3e		 jge	 SHORT $LN9@get_base_p

; 531  : 				{
; 532  : 					if (mission_types [loop])

  007b2	8b 45 e8	 mov	 eax, DWORD PTR _loop$[ebp]
  007b5	83 bc 85 6c ff
	ff ff 00	 cmp	 DWORD PTR _mission_types$[ebp+eax*4], 0
  007bd	74 2f		 je	 SHORT $LN22@get_base_p

; 533  : 					{
; 534  : 						if (get_group_to_task_suitability (group_type, mission_type) > 0.0)

  007bf	8b 45 ec	 mov	 eax, DWORD PTR _mission_type$[ebp]
  007c2	50		 push	 eax
  007c3	8b 4d f0	 mov	 ecx, DWORD PTR _group_type$[ebp]
  007c6	51		 push	 ecx
  007c7	e8 00 00 00 00	 call	 ?get_group_to_task_suitability@@YGMHH@Z ; get_group_to_task_suitability
  007cc	dd 9d 24 ff ff
	ff		 fstp	 QWORD PTR tv551[ebp]
  007d2	f2 0f 10 85 24
	ff ff ff	 movsd	 xmm0, QWORD PTR tv551[ebp]
  007da	66 0f 2f 05 00
	00 00 00	 comisd	 xmm0, QWORD PTR __real@0000000000000000
  007e2	76 0a		 jbe	 SHORT $LN22@get_base_p

; 535  : 						{
; 536  : 							return TRUE;

  007e4	b8 01 00 00 00	 mov	 eax, 1
  007e9	e9 9b 00 00 00	 jmp	 $LN1@get_base_p
$LN22@get_base_p:

; 537  : 						}
; 538  : 					}
; 539  : 				}

  007ee	eb b3		 jmp	 SHORT $LN8@get_base_p
$LN9@get_base_p:

; 540  : 			}
; 541  : 		}
; 542  : 
; 543  : 		group = get_local_entity_child_succ (group, LIST_TYPE_KEYSITE_GROUP);

  007f0	83 7d fc 00	 cmp	 DWORD PTR _group$[ebp], 0
  007f4	74 0d		 je	 SHORT $LN68@get_base_p
  007f6	8b 45 fc	 mov	 eax, DWORD PTR _group$[ebp]
  007f9	8b 08		 mov	 ecx, DWORD PTR [eax]
  007fb	89 8d 28 ff ff
	ff		 mov	 DWORD PTR tv391[ebp], ecx
  00801	eb 24		 jmp	 SHORT $LN69@get_base_p
$LN68@get_base_p:
  00803	8b 15 00 00 00
	00		 mov	 edx, DWORD PTR ?__LINE__Var@?0??get_base_player_suitability_status@@YGHPAUENTITY@@@Z@4JA
  00809	83 c2 69	 add	 edx, 105		; 00000069H
  0080c	52		 push	 edx
  0080d	68 00 00 00 00	 push	 OFFSET ??_C@_0EL@NMGABAFH@c?3?2users?2nhv90?2projects?2eech?2ap@
  00812	a1 00 00 00 00	 mov	 eax, DWORD PTR ?null_entity_pointer_message@@3PBDB ; null_entity_pointer_message
  00817	50		 push	 eax
  00818	e8 00 00 00 00	 call	 ?process_assert@@YGXPBD0H@Z ; process_assert
  0081d	c7 85 28 ff ff
	ff 00 00 00 00	 mov	 DWORD PTR tv391[ebp], 0
$LN69@get_base_p:
  00827	b9 01 00 00 00	 mov	 ecx, 1
  0082c	85 c9		 test	 ecx, ecx
  0082e	74 0c		 je	 SHORT $LN70@get_base_p
  00830	c7 85 24 ff ff
	ff 16 00 00 00	 mov	 DWORD PTR tv399[ebp], 22 ; 00000016H
  0083a	eb 24		 jmp	 SHORT $LN71@get_base_p
$LN70@get_base_p:
  0083c	8b 15 00 00 00
	00		 mov	 edx, DWORD PTR ?__LINE__Var@?0??get_base_player_suitability_status@@YGHPAUENTITY@@@Z@4JA
  00842	83 c2 69	 add	 edx, 105		; 00000069H
  00845	52		 push	 edx
  00846	68 00 00 00 00	 push	 OFFSET ??_C@_0EL@NMGABAFH@c?3?2users?2nhv90?2projects?2eech?2ap@
  0084b	a1 00 00 00 00	 mov	 eax, DWORD PTR ?overload_invalid_list_type_message@@3PBDB ; overload_invalid_list_type_message
  00850	50		 push	 eax
  00851	e8 00 00 00 00	 call	 ?process_assert@@YGXPBD0H@Z ; process_assert
  00856	c7 85 24 ff ff
	ff 00 00 00 00	 mov	 DWORD PTR tv399[ebp], 0
$LN71@get_base_p:
  00860	6a 16		 push	 22			; 00000016H
  00862	8b 4d fc	 mov	 ecx, DWORD PTR _group$[ebp]
  00865	51		 push	 ecx
  00866	69 95 28 ff ff
	ff b4 00 00 00	 imul	 edx, DWORD PTR tv391[ebp], 180
  00870	8b 85 24 ff ff
	ff		 mov	 eax, DWORD PTR tv399[ebp]
  00876	8b 8c 82 00 00
	00 00		 mov	 ecx, DWORD PTR ?fn_get_local_entity_child_succ@@3PAY0CN@P6GPAUENTITY@@PAU1@W4LIST_TYPES@@@ZA[edx+eax*4]
  0087d	ff d1		 call	 ecx
  0087f	89 45 fc	 mov	 DWORD PTR _group$[ebp], eax

; 544  : 	}

  00882	e9 d5 fd ff ff	 jmp	 $LN6@get_base_p
$LN7@get_base_p:

; 545  : 
; 546  : 	return FALSE;

  00887	33 c0		 xor	 eax, eax
$LN1@get_base_p:

; 547  : }

  00889	5f		 pop	 edi
  0088a	5e		 pop	 esi
  0088b	5b		 pop	 ebx
  0088c	8b e5		 mov	 esp, ebp
  0088e	5d		 pop	 ebp
  0088f	c2 04 00	 ret	 4
?get_base_player_suitability_status@@YGHPAUENTITY@@@Z ENDP ; get_base_player_suitability_status
_TEXT	ENDS
; Function compile flags: /Odtp /ZI
; File c:\users\nhv90\projects\eech\aphavoc\source\ui_menu\ingame\common\common.c
;	COMDAT ?get_group_player_suitability_status@@YGHPAUENTITY@@@Z
_TEXT	SEGMENT
tv326 = -88						; size = 8
tv245 = -88						; size = 4
tv220 = -88						; size = 4
tv199 = -88						; size = 4
tv162 = -88						; size = 4
tv142 = -88						; size = 4
tv89 = -88						; size = 4
tv237 = -84						; size = 4
tv212 = -84						; size = 4
tv191 = -84						; size = 4
tv179 = -84						; size = 4
tv154 = -84						; size = 4
tv134 = -84						; size = 4
tv82 = -84						; size = 4
_mission_type$ = -16					; size = 4
_group_type$ = -12					; size = 4
_mission$ = -8						; size = 4
_base$ = -4						; size = 4
_group$ = 8						; size = 4
?get_group_player_suitability_status@@YGHPAUENTITY@@@Z PROC ; get_group_player_suitability_status, COMDAT

; 361  : {

  00000	55		 push	 ebp
  00001	8b ec		 mov	 ebp, esp
  00003	83 ec 58	 sub	 esp, 88			; 00000058H
  00006	53		 push	 ebx
  00007	56		 push	 esi
  00008	57		 push	 edi

; 362  : 	entity
; 363  : 		*base,
; 364  : 		*mission;
; 365  : 
; 366  : 	entity_sub_types
; 367  : 		group_type,
; 368  : 		mission_type;
; 369  : 
; 370  : 	ASSERT (group);

  00009	83 7d 08 00	 cmp	 DWORD PTR _group$[ebp], 0
  0000d	75 18		 jne	 SHORT $LN4@get_group_
  0000f	a1 00 00 00 00	 mov	 eax, DWORD PTR ?__LINE__Var@?0??get_group_player_suitability_status@@YGHPAUENTITY@@@Z@4JA
  00014	83 c0 09	 add	 eax, 9
  00017	50		 push	 eax
  00018	68 00 00 00 00	 push	 OFFSET ??_C@_0EL@NMGABAFH@c?3?2users?2nhv90?2projects?2eech?2ap@
  0001d	68 00 00 00 00	 push	 OFFSET ??_C@_05MGJOOGAJ@group@
  00022	e8 00 00 00 00	 call	 ?process_assert@@YGXPBD0H@Z ; process_assert
$LN4@get_group_:

; 371  : 
; 372  : 	if (!group)

  00027	83 7d 08 00	 cmp	 DWORD PTR _group$[ebp], 0
  0002b	75 07		 jne	 SHORT $LN5@get_group_

; 373  : 	{
; 374  : 		return FALSE;

  0002d	33 c0		 xor	 eax, eax
  0002f	e9 d8 03 00 00	 jmp	 $LN1@get_group_
$LN5@get_group_:

; 375  : 	}
; 376  : 
; 377  : 	//
; 378  : 	// Check if group contains controllable entities
; 379  : 	//
; 380  : 
; 381  : 	if (!get_group_suitable_for_player (group, get_pilot_entity ()))

  00034	a1 00 00 00 00	 mov	 eax, DWORD PTR ?pilot_entity@@3PAUENTITY@@A ; pilot_entity
  00039	50		 push	 eax
  0003a	8b 4d 08	 mov	 ecx, DWORD PTR _group$[ebp]
  0003d	51		 push	 ecx
  0003e	e8 00 00 00 00	 call	 ?get_group_suitable_for_player@@YGHPAUENTITY@@0@Z ; get_group_suitable_for_player
  00043	85 c0		 test	 eax, eax
  00045	75 07		 jne	 SHORT $LN6@get_group_

; 382  : 	{
; 383  : 		return FALSE;

  00047	33 c0		 xor	 eax, eax
  00049	e9 be 03 00 00	 jmp	 $LN1@get_group_
$LN6@get_group_:

; 384  : 	}
; 385  : 
; 386  : 	//
; 387  : 	// If group is already doing a mission, then it must have at least one suitable mission
; 388  : 	//
; 389  : 
; 390  : 	if (get_local_group_primary_task (group))

  0004e	8b 45 08	 mov	 eax, DWORD PTR _group$[ebp]
  00051	50		 push	 eax
  00052	e8 00 00 00 00	 call	 ?get_local_group_primary_task@@YGPAUENTITY@@PAU1@@Z ; get_local_group_primary_task
  00057	85 c0		 test	 eax, eax
  00059	74 0a		 je	 SHORT $LN7@get_group_

; 391  : 	{
; 392  : 		return TRUE;

  0005b	b8 01 00 00 00	 mov	 eax, 1
  00060	e9 a7 03 00 00	 jmp	 $LN1@get_group_
$LN7@get_group_:

; 393  : 	}
; 394  : 
; 395  : 	//
; 396  : 	// if group is NOT doing a mission, then it must be IDLE for it to be suitable (otherwise it could be landing / taxiing etc)
; 397  : 	//
; 398  : 
; 399  : 	if (get_local_entity_int_value (group, INT_TYPE_GROUP_MODE) != GROUP_MODE_IDLE)

  00065	83 7d 08 00	 cmp	 DWORD PTR _group$[ebp], 0
  00069	74 0a		 je	 SHORT $LN13@get_group_
  0006b	8b 45 08	 mov	 eax, DWORD PTR _group$[ebp]
  0006e	8b 08		 mov	 ecx, DWORD PTR [eax]
  00070	89 4d ac	 mov	 DWORD PTR tv82[ebp], ecx
  00073	eb 1d		 jmp	 SHORT $LN14@get_group_
$LN13@get_group_:
  00075	68 8f 01 00 00	 push	 399			; 0000018fH
  0007a	68 00 00 00 00	 push	 OFFSET ??_C@_0EL@NMGABAFH@c?3?2users?2nhv90?2projects?2eech?2ap@
  0007f	8b 15 00 00 00
	00		 mov	 edx, DWORD PTR ?null_entity_pointer_message@@3PBDB ; null_entity_pointer_message
  00085	52		 push	 edx
  00086	e8 00 00 00 00	 call	 ?process_assert@@YGXPBD0H@Z ; process_assert
  0008b	c7 45 ac 00 00
	00 00		 mov	 DWORD PTR tv82[ebp], 0
$LN14@get_group_:
  00092	b8 01 00 00 00	 mov	 eax, 1
  00097	85 c0		 test	 eax, eax
  00099	74 09		 je	 SHORT $LN15@get_group_
  0009b	c7 45 a8 4d 00
	00 00		 mov	 DWORD PTR tv89[ebp], 77	; 0000004dH
  000a2	eb 1d		 jmp	 SHORT $LN16@get_group_
$LN15@get_group_:
  000a4	68 8f 01 00 00	 push	 399			; 0000018fH
  000a9	68 00 00 00 00	 push	 OFFSET ??_C@_0EL@NMGABAFH@c?3?2users?2nhv90?2projects?2eech?2ap@
  000ae	8b 0d 00 00 00
	00		 mov	 ecx, DWORD PTR ?overload_invalid_int_type_message@@3PBDB ; overload_invalid_int_type_message
  000b4	51		 push	 ecx
  000b5	e8 00 00 00 00	 call	 ?process_assert@@YGXPBD0H@Z ; process_assert
  000ba	c7 45 a8 00 00
	00 00		 mov	 DWORD PTR tv89[ebp], 0
$LN16@get_group_:
  000c1	6a 4d		 push	 77			; 0000004dH
  000c3	8b 55 08	 mov	 edx, DWORD PTR _group$[ebp]
  000c6	52		 push	 edx
  000c7	69 45 ac 5c 04
	00 00		 imul	 eax, DWORD PTR tv82[ebp], 1116
  000ce	8b 4d a8	 mov	 ecx, DWORD PTR tv89[ebp]
  000d1	8b 94 88 00 00
	00 00		 mov	 edx, DWORD PTR ?fn_get_local_entity_int_value@@3PAY0BBH@P6GHPAUENTITY@@W4INT_TYPES@@@ZA[eax+ecx*4]
  000d8	ff d2		 call	 edx
  000da	85 c0		 test	 eax, eax
  000dc	74 07		 je	 SHORT $LN8@get_group_

; 400  : 	{
; 401  : 		return FALSE;

  000de	33 c0		 xor	 eax, eax
  000e0	e9 27 03 00 00	 jmp	 $LN1@get_group_
$LN8@get_group_:

; 402  : 	}
; 403  : 
; 404  : 	//
; 405  : 	// Check if group is at a base with suitable missions
; 406  : 	//
; 407  : 
; 408  : 	group_type = get_local_entity_int_value (group, INT_TYPE_ENTITY_SUB_TYPE);

  000e5	83 7d 08 00	 cmp	 DWORD PTR _group$[ebp], 0
  000e9	74 0a		 je	 SHORT $LN17@get_group_
  000eb	8b 45 08	 mov	 eax, DWORD PTR _group$[ebp]
  000ee	8b 08		 mov	 ecx, DWORD PTR [eax]
  000f0	89 4d ac	 mov	 DWORD PTR tv134[ebp], ecx
  000f3	eb 21		 jmp	 SHORT $LN18@get_group_
$LN17@get_group_:
  000f5	8b 15 00 00 00
	00		 mov	 edx, DWORD PTR ?__LINE__Var@?0??get_group_player_suitability_status@@YGHPAUENTITY@@@Z@4JA
  000fb	83 c2 2f	 add	 edx, 47			; 0000002fH
  000fe	52		 push	 edx
  000ff	68 00 00 00 00	 push	 OFFSET ??_C@_0EL@NMGABAFH@c?3?2users?2nhv90?2projects?2eech?2ap@
  00104	a1 00 00 00 00	 mov	 eax, DWORD PTR ?null_entity_pointer_message@@3PBDB ; null_entity_pointer_message
  00109	50		 push	 eax
  0010a	e8 00 00 00 00	 call	 ?process_assert@@YGXPBD0H@Z ; process_assert
  0010f	c7 45 ac 00 00
	00 00		 mov	 DWORD PTR tv134[ebp], 0
$LN18@get_group_:
  00116	b9 01 00 00 00	 mov	 ecx, 1
  0011b	85 c9		 test	 ecx, ecx
  0011d	74 09		 je	 SHORT $LN19@get_group_
  0011f	c7 45 a8 34 00
	00 00		 mov	 DWORD PTR tv142[ebp], 52 ; 00000034H
  00126	eb 21		 jmp	 SHORT $LN20@get_group_
$LN19@get_group_:
  00128	8b 15 00 00 00
	00		 mov	 edx, DWORD PTR ?__LINE__Var@?0??get_group_player_suitability_status@@YGHPAUENTITY@@@Z@4JA
  0012e	83 c2 2f	 add	 edx, 47			; 0000002fH
  00131	52		 push	 edx
  00132	68 00 00 00 00	 push	 OFFSET ??_C@_0EL@NMGABAFH@c?3?2users?2nhv90?2projects?2eech?2ap@
  00137	a1 00 00 00 00	 mov	 eax, DWORD PTR ?overload_invalid_int_type_message@@3PBDB ; overload_invalid_int_type_message
  0013c	50		 push	 eax
  0013d	e8 00 00 00 00	 call	 ?process_assert@@YGXPBD0H@Z ; process_assert
  00142	c7 45 a8 00 00
	00 00		 mov	 DWORD PTR tv142[ebp], 0
$LN20@get_group_:
  00149	6a 34		 push	 52			; 00000034H
  0014b	8b 4d 08	 mov	 ecx, DWORD PTR _group$[ebp]
  0014e	51		 push	 ecx
  0014f	69 55 ac 5c 04
	00 00		 imul	 edx, DWORD PTR tv134[ebp], 1116
  00156	8b 45 a8	 mov	 eax, DWORD PTR tv142[ebp]
  00159	8b 8c 82 00 00
	00 00		 mov	 ecx, DWORD PTR ?fn_get_local_entity_int_value@@3PAY0BBH@P6GHPAUENTITY@@W4INT_TYPES@@@ZA[edx+eax*4]
  00160	ff d1		 call	 ecx
  00162	89 45 f4	 mov	 DWORD PTR _group_type$[ebp], eax

; 409  : 
; 410  : 	base = get_local_entity_parent (group, LIST_TYPE_KEYSITE_GROUP);

  00165	83 7d 08 00	 cmp	 DWORD PTR _group$[ebp], 0
  00169	74 0a		 je	 SHORT $LN21@get_group_
  0016b	8b 45 08	 mov	 eax, DWORD PTR _group$[ebp]
  0016e	8b 08		 mov	 ecx, DWORD PTR [eax]
  00170	89 4d ac	 mov	 DWORD PTR tv154[ebp], ecx
  00173	eb 21		 jmp	 SHORT $LN22@get_group_
$LN21@get_group_:
  00175	8b 15 00 00 00
	00		 mov	 edx, DWORD PTR ?__LINE__Var@?0??get_group_player_suitability_status@@YGHPAUENTITY@@@Z@4JA
  0017b	83 c2 31	 add	 edx, 49			; 00000031H
  0017e	52		 push	 edx
  0017f	68 00 00 00 00	 push	 OFFSET ??_C@_0EL@NMGABAFH@c?3?2users?2nhv90?2projects?2eech?2ap@
  00184	a1 00 00 00 00	 mov	 eax, DWORD PTR ?null_entity_pointer_message@@3PBDB ; null_entity_pointer_message
  00189	50		 push	 eax
  0018a	e8 00 00 00 00	 call	 ?process_assert@@YGXPBD0H@Z ; process_assert
  0018f	c7 45 ac 00 00
	00 00		 mov	 DWORD PTR tv154[ebp], 0
$LN22@get_group_:
  00196	b9 01 00 00 00	 mov	 ecx, 1
  0019b	85 c9		 test	 ecx, ecx
  0019d	74 09		 je	 SHORT $LN23@get_group_
  0019f	c7 45 a8 16 00
	00 00		 mov	 DWORD PTR tv162[ebp], 22 ; 00000016H
  001a6	eb 21		 jmp	 SHORT $LN24@get_group_
$LN23@get_group_:
  001a8	8b 15 00 00 00
	00		 mov	 edx, DWORD PTR ?__LINE__Var@?0??get_group_player_suitability_status@@YGHPAUENTITY@@@Z@4JA
  001ae	83 c2 31	 add	 edx, 49			; 00000031H
  001b1	52		 push	 edx
  001b2	68 00 00 00 00	 push	 OFFSET ??_C@_0EL@NMGABAFH@c?3?2users?2nhv90?2projects?2eech?2ap@
  001b7	a1 00 00 00 00	 mov	 eax, DWORD PTR ?overload_invalid_list_type_message@@3PBDB ; overload_invalid_list_type_message
  001bc	50		 push	 eax
  001bd	e8 00 00 00 00	 call	 ?process_assert@@YGXPBD0H@Z ; process_assert
  001c2	c7 45 a8 00 00
	00 00		 mov	 DWORD PTR tv162[ebp], 0
$LN24@get_group_:
  001c9	6a 16		 push	 22			; 00000016H
  001cb	8b 4d 08	 mov	 ecx, DWORD PTR _group$[ebp]
  001ce	51		 push	 ecx
  001cf	69 55 ac b4 00
	00 00		 imul	 edx, DWORD PTR tv154[ebp], 180
  001d6	8b 45 a8	 mov	 eax, DWORD PTR tv162[ebp]
  001d9	8b 8c 82 00 00
	00 00		 mov	 ecx, DWORD PTR ?fn_get_local_entity_parent@@3PAY0CN@P6GPAUENTITY@@PAU1@W4LIST_TYPES@@@ZA[edx+eax*4]
  001e0	ff d1		 call	 ecx
  001e2	89 45 fc	 mov	 DWORD PTR _base$[ebp], eax

; 411  : 
; 412  : 	ASSERT (base);

  001e5	83 7d fc 00	 cmp	 DWORD PTR _base$[ebp], 0
  001e9	75 18		 jne	 SHORT $LN9@get_group_
  001eb	a1 00 00 00 00	 mov	 eax, DWORD PTR ?__LINE__Var@?0??get_group_player_suitability_status@@YGHPAUENTITY@@@Z@4JA
  001f0	83 c0 33	 add	 eax, 51			; 00000033H
  001f3	50		 push	 eax
  001f4	68 00 00 00 00	 push	 OFFSET ??_C@_0EL@NMGABAFH@c?3?2users?2nhv90?2projects?2eech?2ap@
  001f9	68 00 00 00 00	 push	 OFFSET ??_C@_04BHIIPFEC@base@
  001fe	e8 00 00 00 00	 call	 ?process_assert@@YGXPBD0H@Z ; process_assert
$LN9@get_group_:

; 413  : 
; 414  : 	ASSERT (get_local_entity_type (base) == ENTITY_TYPE_KEYSITE);

  00203	83 7d fc 00	 cmp	 DWORD PTR _base$[ebp], 0
  00207	74 0a		 je	 SHORT $LN25@get_group_
  00209	8b 45 fc	 mov	 eax, DWORD PTR _base$[ebp]
  0020c	8b 08		 mov	 ecx, DWORD PTR [eax]
  0020e	89 4d ac	 mov	 DWORD PTR tv179[ebp], ecx
  00211	eb 21		 jmp	 SHORT $LN26@get_group_
$LN25@get_group_:
  00213	8b 15 00 00 00
	00		 mov	 edx, DWORD PTR ?__LINE__Var@?0??get_group_player_suitability_status@@YGHPAUENTITY@@@Z@4JA
  00219	83 c2 35	 add	 edx, 53			; 00000035H
  0021c	52		 push	 edx
  0021d	68 00 00 00 00	 push	 OFFSET ??_C@_0EL@NMGABAFH@c?3?2users?2nhv90?2projects?2eech?2ap@
  00222	a1 00 00 00 00	 mov	 eax, DWORD PTR ?null_entity_pointer_message@@3PBDB ; null_entity_pointer_message
  00227	50		 push	 eax
  00228	e8 00 00 00 00	 call	 ?process_assert@@YGXPBD0H@Z ; process_assert
  0022d	c7 45 ac 00 00
	00 00		 mov	 DWORD PTR tv179[ebp], 0
$LN26@get_group_:
  00234	83 7d ac 0f	 cmp	 DWORD PTR tv179[ebp], 15 ; 0000000fH
  00238	74 18		 je	 SHORT $LN10@get_group_
  0023a	a1 00 00 00 00	 mov	 eax, DWORD PTR ?__LINE__Var@?0??get_group_player_suitability_status@@YGHPAUENTITY@@@Z@4JA
  0023f	83 c0 35	 add	 eax, 53			; 00000035H
  00242	50		 push	 eax
  00243	68 00 00 00 00	 push	 OFFSET ??_C@_0EL@NMGABAFH@c?3?2users?2nhv90?2projects?2eech?2ap@
  00248	68 00 00 00 00	 push	 OFFSET ??_C@_0DE@BLNNEFLP@get_local_entity_type?5?$CIbase?$CJ?5?$DN?$DN@
  0024d	e8 00 00 00 00	 call	 ?process_assert@@YGXPBD0H@Z ; process_assert
$LN10@get_group_:

; 415  : 
; 416  : 	mission = get_local_entity_first_child (base, LIST_TYPE_UNASSIGNED_TASK);

  00252	83 7d fc 00	 cmp	 DWORD PTR _base$[ebp], 0
  00256	74 0a		 je	 SHORT $LN27@get_group_
  00258	8b 45 fc	 mov	 eax, DWORD PTR _base$[ebp]
  0025b	8b 08		 mov	 ecx, DWORD PTR [eax]
  0025d	89 4d ac	 mov	 DWORD PTR tv191[ebp], ecx
  00260	eb 21		 jmp	 SHORT $LN28@get_group_
$LN27@get_group_:
  00262	8b 15 00 00 00
	00		 mov	 edx, DWORD PTR ?__LINE__Var@?0??get_group_player_suitability_status@@YGHPAUENTITY@@@Z@4JA
  00268	83 c2 37	 add	 edx, 55			; 00000037H
  0026b	52		 push	 edx
  0026c	68 00 00 00 00	 push	 OFFSET ??_C@_0EL@NMGABAFH@c?3?2users?2nhv90?2projects?2eech?2ap@
  00271	a1 00 00 00 00	 mov	 eax, DWORD PTR ?null_entity_pointer_message@@3PBDB ; null_entity_pointer_message
  00276	50		 push	 eax
  00277	e8 00 00 00 00	 call	 ?process_assert@@YGXPBD0H@Z ; process_assert
  0027c	c7 45 ac 00 00
	00 00		 mov	 DWORD PTR tv191[ebp], 0
$LN28@get_group_:
  00283	b9 01 00 00 00	 mov	 ecx, 1
  00288	85 c9		 test	 ecx, ecx
  0028a	74 09		 je	 SHORT $LN29@get_group_
  0028c	c7 45 a8 28 00
	00 00		 mov	 DWORD PTR tv199[ebp], 40 ; 00000028H
  00293	eb 21		 jmp	 SHORT $LN30@get_group_
$LN29@get_group_:
  00295	8b 15 00 00 00
	00		 mov	 edx, DWORD PTR ?__LINE__Var@?0??get_group_player_suitability_status@@YGHPAUENTITY@@@Z@4JA
  0029b	83 c2 37	 add	 edx, 55			; 00000037H
  0029e	52		 push	 edx
  0029f	68 00 00 00 00	 push	 OFFSET ??_C@_0EL@NMGABAFH@c?3?2users?2nhv90?2projects?2eech?2ap@
  002a4	a1 00 00 00 00	 mov	 eax, DWORD PTR ?overload_invalid_list_type_message@@3PBDB ; overload_invalid_list_type_message
  002a9	50		 push	 eax
  002aa	e8 00 00 00 00	 call	 ?process_assert@@YGXPBD0H@Z ; process_assert
  002af	c7 45 a8 00 00
	00 00		 mov	 DWORD PTR tv199[ebp], 0
$LN30@get_group_:
  002b6	6a 28		 push	 40			; 00000028H
  002b8	8b 4d fc	 mov	 ecx, DWORD PTR _base$[ebp]
  002bb	51		 push	 ecx
  002bc	69 55 ac b4 00
	00 00		 imul	 edx, DWORD PTR tv191[ebp], 180
  002c3	8b 45 a8	 mov	 eax, DWORD PTR tv199[ebp]
  002c6	8b 8c 82 00 00
	00 00		 mov	 ecx, DWORD PTR ?fn_get_local_entity_first_child@@3PAY0CN@P6GPAUENTITY@@PAU1@W4LIST_TYPES@@@ZA[edx+eax*4]
  002cd	ff d1		 call	 ecx
  002cf	89 45 f8	 mov	 DWORD PTR _mission$[ebp], eax
$LN2@get_group_:

; 417  : 
; 418  : 	while (mission)

  002d2	83 7d f8 00	 cmp	 DWORD PTR _mission$[ebp], 0
  002d6	0f 84 2e 01 00
	00		 je	 $LN3@get_group_

; 419  : 	{
; 420  : 		mission_type = get_local_entity_int_value (mission, INT_TYPE_ENTITY_SUB_TYPE);

  002dc	83 7d f8 00	 cmp	 DWORD PTR _mission$[ebp], 0
  002e0	74 0a		 je	 SHORT $LN31@get_group_
  002e2	8b 45 f8	 mov	 eax, DWORD PTR _mission$[ebp]
  002e5	8b 08		 mov	 ecx, DWORD PTR [eax]
  002e7	89 4d ac	 mov	 DWORD PTR tv212[ebp], ecx
  002ea	eb 21		 jmp	 SHORT $LN32@get_group_
$LN31@get_group_:
  002ec	8b 15 00 00 00
	00		 mov	 edx, DWORD PTR ?__LINE__Var@?0??get_group_player_suitability_status@@YGHPAUENTITY@@@Z@4JA
  002f2	83 c2 3b	 add	 edx, 59			; 0000003bH
  002f5	52		 push	 edx
  002f6	68 00 00 00 00	 push	 OFFSET ??_C@_0EL@NMGABAFH@c?3?2users?2nhv90?2projects?2eech?2ap@
  002fb	a1 00 00 00 00	 mov	 eax, DWORD PTR ?null_entity_pointer_message@@3PBDB ; null_entity_pointer_message
  00300	50		 push	 eax
  00301	e8 00 00 00 00	 call	 ?process_assert@@YGXPBD0H@Z ; process_assert
  00306	c7 45 ac 00 00
	00 00		 mov	 DWORD PTR tv212[ebp], 0
$LN32@get_group_:
  0030d	b9 01 00 00 00	 mov	 ecx, 1
  00312	85 c9		 test	 ecx, ecx
  00314	74 09		 je	 SHORT $LN33@get_group_
  00316	c7 45 a8 34 00
	00 00		 mov	 DWORD PTR tv220[ebp], 52 ; 00000034H
  0031d	eb 21		 jmp	 SHORT $LN34@get_group_
$LN33@get_group_:
  0031f	8b 15 00 00 00
	00		 mov	 edx, DWORD PTR ?__LINE__Var@?0??get_group_player_suitability_status@@YGHPAUENTITY@@@Z@4JA
  00325	83 c2 3b	 add	 edx, 59			; 0000003bH
  00328	52		 push	 edx
  00329	68 00 00 00 00	 push	 OFFSET ??_C@_0EL@NMGABAFH@c?3?2users?2nhv90?2projects?2eech?2ap@
  0032e	a1 00 00 00 00	 mov	 eax, DWORD PTR ?overload_invalid_int_type_message@@3PBDB ; overload_invalid_int_type_message
  00333	50		 push	 eax
  00334	e8 00 00 00 00	 call	 ?process_assert@@YGXPBD0H@Z ; process_assert
  00339	c7 45 a8 00 00
	00 00		 mov	 DWORD PTR tv220[ebp], 0
$LN34@get_group_:
  00340	6a 34		 push	 52			; 00000034H
  00342	8b 4d f8	 mov	 ecx, DWORD PTR _mission$[ebp]
  00345	51		 push	 ecx
  00346	69 55 ac 5c 04
	00 00		 imul	 edx, DWORD PTR tv212[ebp], 1116
  0034d	8b 45 a8	 mov	 eax, DWORD PTR tv220[ebp]
  00350	8b 8c 82 00 00
	00 00		 mov	 ecx, DWORD PTR ?fn_get_local_entity_int_value@@3PAY0BBH@P6GHPAUENTITY@@W4INT_TYPES@@@ZA[edx+eax*4]
  00357	ff d1		 call	 ecx
  00359	89 45 f0	 mov	 DWORD PTR _mission_type$[ebp], eax

; 421  : 
; 422  : 		if (get_group_to_task_suitability (group_type, mission_type) > 0.0)

  0035c	8b 45 f0	 mov	 eax, DWORD PTR _mission_type$[ebp]
  0035f	50		 push	 eax
  00360	8b 4d f4	 mov	 ecx, DWORD PTR _group_type$[ebp]
  00363	51		 push	 ecx
  00364	e8 00 00 00 00	 call	 ?get_group_to_task_suitability@@YGMHH@Z ; get_group_to_task_suitability
  00369	dd 5d a8	 fstp	 QWORD PTR tv326[ebp]
  0036c	f2 0f 10 45 a8	 movsd	 xmm0, QWORD PTR tv326[ebp]
  00371	66 0f 2f 05 00
	00 00 00	 comisd	 xmm0, QWORD PTR __real@0000000000000000
  00379	76 0a		 jbe	 SHORT $LN11@get_group_

; 423  : 		{
; 424  : 			return TRUE;

  0037b	b8 01 00 00 00	 mov	 eax, 1
  00380	e9 87 00 00 00	 jmp	 $LN1@get_group_
$LN11@get_group_:

; 425  : 		}
; 426  : 
; 427  : 		mission = get_local_entity_child_succ (mission, LIST_TYPE_UNASSIGNED_TASK);

  00385	83 7d f8 00	 cmp	 DWORD PTR _mission$[ebp], 0
  00389	74 0a		 je	 SHORT $LN35@get_group_
  0038b	8b 45 f8	 mov	 eax, DWORD PTR _mission$[ebp]
  0038e	8b 08		 mov	 ecx, DWORD PTR [eax]
  00390	89 4d ac	 mov	 DWORD PTR tv237[ebp], ecx
  00393	eb 21		 jmp	 SHORT $LN36@get_group_
$LN35@get_group_:
  00395	8b 15 00 00 00
	00		 mov	 edx, DWORD PTR ?__LINE__Var@?0??get_group_player_suitability_status@@YGHPAUENTITY@@@Z@4JA
  0039b	83 c2 42	 add	 edx, 66			; 00000042H
  0039e	52		 push	 edx
  0039f	68 00 00 00 00	 push	 OFFSET ??_C@_0EL@NMGABAFH@c?3?2users?2nhv90?2projects?2eech?2ap@
  003a4	a1 00 00 00 00	 mov	 eax, DWORD PTR ?null_entity_pointer_message@@3PBDB ; null_entity_pointer_message
  003a9	50		 push	 eax
  003aa	e8 00 00 00 00	 call	 ?process_assert@@YGXPBD0H@Z ; process_assert
  003af	c7 45 ac 00 00
	00 00		 mov	 DWORD PTR tv237[ebp], 0
$LN36@get_group_:
  003b6	b9 01 00 00 00	 mov	 ecx, 1
  003bb	85 c9		 test	 ecx, ecx
  003bd	74 09		 je	 SHORT $LN37@get_group_
  003bf	c7 45 a8 28 00
	00 00		 mov	 DWORD PTR tv245[ebp], 40 ; 00000028H
  003c6	eb 21		 jmp	 SHORT $LN38@get_group_
$LN37@get_group_:
  003c8	8b 15 00 00 00
	00		 mov	 edx, DWORD PTR ?__LINE__Var@?0??get_group_player_suitability_status@@YGHPAUENTITY@@@Z@4JA
  003ce	83 c2 42	 add	 edx, 66			; 00000042H
  003d1	52		 push	 edx
  003d2	68 00 00 00 00	 push	 OFFSET ??_C@_0EL@NMGABAFH@c?3?2users?2nhv90?2projects?2eech?2ap@
  003d7	a1 00 00 00 00	 mov	 eax, DWORD PTR ?overload_invalid_list_type_message@@3PBDB ; overload_invalid_list_type_message
  003dc	50		 push	 eax
  003dd	e8 00 00 00 00	 call	 ?process_assert@@YGXPBD0H@Z ; process_assert
  003e2	c7 45 a8 00 00
	00 00		 mov	 DWORD PTR tv245[ebp], 0
$LN38@get_group_:
  003e9	6a 28		 push	 40			; 00000028H
  003eb	8b 4d f8	 mov	 ecx, DWORD PTR _mission$[ebp]
  003ee	51		 push	 ecx
  003ef	69 55 ac b4 00
	00 00		 imul	 edx, DWORD PTR tv237[ebp], 180
  003f6	8b 45 a8	 mov	 eax, DWORD PTR tv245[ebp]
  003f9	8b 8c 82 00 00
	00 00		 mov	 ecx, DWORD PTR ?fn_get_local_entity_child_succ@@3PAY0CN@P6GPAUENTITY@@PAU1@W4LIST_TYPES@@@ZA[edx+eax*4]
  00400	ff d1		 call	 ecx
  00402	89 45 f8	 mov	 DWORD PTR _mission$[ebp], eax

; 428  : 	}

  00405	e9 c8 fe ff ff	 jmp	 $LN2@get_group_
$LN3@get_group_:

; 429  : 
; 430  : 	return FALSE;

  0040a	33 c0		 xor	 eax, eax
$LN1@get_group_:

; 431  : }

  0040c	5f		 pop	 edi
  0040d	5e		 pop	 esi
  0040e	5b		 pop	 ebx
  0040f	8b e5		 mov	 esp, ebp
  00411	5d		 pop	 ebp
  00412	c2 04 00	 ret	 4
?get_group_player_suitability_status@@YGHPAUENTITY@@@Z ENDP ; get_group_player_suitability_status
_TEXT	ENDS
; Function compile flags: /Odtp /ZI
; File c:\users\nhv90\projects\eech\aphavoc\source\ui_menu\ingame\common\common.c
;	COMDAT ?get_mission_player_suitability_status@@YGHPAUENTITY@@@Z
_TEXT	SEGMENT
tv413 = -96						; size = 8
tv314 = -96						; size = 4
tv289 = -96						; size = 4
tv269 = -96						; size = 4
tv240 = -96						; size = 4
tv219 = -96						; size = 4
tv200 = -96						; size = 4
tv163 = -96						; size = 4
tv142 = -96						; size = 4
tv78 = -96						; size = 4
tv306 = -92						; size = 4
tv281 = -92						; size = 4
tv261 = -92						; size = 4
tv232 = -92						; size = 4
tv212 = -92						; size = 4
tv192 = -92						; size = 4
tv180 = -92						; size = 4
tv155 = -92						; size = 4
tv148 = -92						; size = 4
tv134 = -92						; size = 4
tv70 = -92						; size = 4
_state$ = -24						; size = 4
_mission_type$ = -20					; size = 4
_group_type$ = -16					; size = 4
_base$ = -12						; size = 4
_group$ = -8						; size = 4
_guide$ = -4						; size = 4
_mission$ = 8						; size = 4
?get_mission_player_suitability_status@@YGHPAUENTITY@@@Z PROC ; get_mission_player_suitability_status, COMDAT

; 267  : {

  00000	55		 push	 ebp
  00001	8b ec		 mov	 ebp, esp
  00003	83 ec 60	 sub	 esp, 96			; 00000060H
  00006	53		 push	 ebx
  00007	56		 push	 esi
  00008	57		 push	 edi

; 268  : 	entity
; 269  : 		*guide,
; 270  : 		*group,
; 271  : 		*base;
; 272  : 
; 273  : 	entity_sub_types
; 274  : 		group_type,
; 275  : 		mission_type;
; 276  : 
; 277  : 	task_state_types
; 278  : 		state;
; 279  : 
; 280  : 	mission_type = get_local_entity_int_value (mission, INT_TYPE_ENTITY_SUB_TYPE);

  00009	83 7d 08 00	 cmp	 DWORD PTR _mission$[ebp], 0
  0000d	74 0a		 je	 SHORT $LN19@get_missio
  0000f	8b 45 08	 mov	 eax, DWORD PTR _mission$[ebp]
  00012	8b 08		 mov	 ecx, DWORD PTR [eax]
  00014	89 4d a4	 mov	 DWORD PTR tv70[ebp], ecx
  00017	eb 21		 jmp	 SHORT $LN20@get_missio
$LN19@get_missio:
  00019	8b 15 00 00 00
	00		 mov	 edx, DWORD PTR ?__LINE__Var@?0??get_mission_player_suitability_status@@YGHPAUENTITY@@@Z@4JA
  0001f	83 c2 0d	 add	 edx, 13			; 0000000dH
  00022	52		 push	 edx
  00023	68 00 00 00 00	 push	 OFFSET ??_C@_0EL@NMGABAFH@c?3?2users?2nhv90?2projects?2eech?2ap@
  00028	a1 00 00 00 00	 mov	 eax, DWORD PTR ?null_entity_pointer_message@@3PBDB ; null_entity_pointer_message
  0002d	50		 push	 eax
  0002e	e8 00 00 00 00	 call	 ?process_assert@@YGXPBD0H@Z ; process_assert
  00033	c7 45 a4 00 00
	00 00		 mov	 DWORD PTR tv70[ebp], 0
$LN20@get_missio:
  0003a	b9 01 00 00 00	 mov	 ecx, 1
  0003f	85 c9		 test	 ecx, ecx
  00041	74 09		 je	 SHORT $LN21@get_missio
  00043	c7 45 a0 34 00
	00 00		 mov	 DWORD PTR tv78[ebp], 52	; 00000034H
  0004a	eb 21		 jmp	 SHORT $LN22@get_missio
$LN21@get_missio:
  0004c	8b 15 00 00 00
	00		 mov	 edx, DWORD PTR ?__LINE__Var@?0??get_mission_player_suitability_status@@YGHPAUENTITY@@@Z@4JA
  00052	83 c2 0d	 add	 edx, 13			; 0000000dH
  00055	52		 push	 edx
  00056	68 00 00 00 00	 push	 OFFSET ??_C@_0EL@NMGABAFH@c?3?2users?2nhv90?2projects?2eech?2ap@
  0005b	a1 00 00 00 00	 mov	 eax, DWORD PTR ?overload_invalid_int_type_message@@3PBDB ; overload_invalid_int_type_message
  00060	50		 push	 eax
  00061	e8 00 00 00 00	 call	 ?process_assert@@YGXPBD0H@Z ; process_assert
  00066	c7 45 a0 00 00
	00 00		 mov	 DWORD PTR tv78[ebp], 0
$LN22@get_missio:
  0006d	6a 34		 push	 52			; 00000034H
  0006f	8b 4d 08	 mov	 ecx, DWORD PTR _mission$[ebp]
  00072	51		 push	 ecx
  00073	69 55 a4 5c 04
	00 00		 imul	 edx, DWORD PTR tv70[ebp], 1116
  0007a	8b 45 a0	 mov	 eax, DWORD PTR tv78[ebp]
  0007d	8b 8c 82 00 00
	00 00		 mov	 ecx, DWORD PTR ?fn_get_local_entity_int_value@@3PAY0BBH@P6GHPAUENTITY@@W4INT_TYPES@@@ZA[edx+eax*4]
  00084	ff d1		 call	 ecx
  00086	89 45 ec	 mov	 DWORD PTR _mission_type$[ebp], eax

; 281  : 
; 282  : 	if ((task_database [mission_type].primary_task) && (task_database [mission_type].visible_task))

  00089	6b 45 ec 50	 imul	 eax, DWORD PTR _mission_type$[ebp], 80
  0008d	8b 88 28 00 00
	00		 mov	 ecx, DWORD PTR ?task_database@@3PAUTASK_DATA@@A[eax+40]
  00093	d1 e9		 shr	 ecx, 1
  00095	83 e1 01	 and	 ecx, 1
  00098	0f 84 44 05 00
	00		 je	 $LN2@get_missio
  0009e	6b 45 ec 50	 imul	 eax, DWORD PTR _mission_type$[ebp], 80
  000a2	8b 88 28 00 00
	00		 mov	 ecx, DWORD PTR ?task_database@@3PAUTASK_DATA@@A[eax+40]
  000a8	c1 e9 04	 shr	 ecx, 4
  000ab	83 e1 01	 and	 ecx, 1
  000ae	0f 84 2e 05 00
	00		 je	 $LN2@get_missio

; 283  : 	{
; 284  : 		state = (task_state_types) get_local_entity_int_value (mission, INT_TYPE_TASK_STATE);

  000b4	83 7d 08 00	 cmp	 DWORD PTR _mission$[ebp], 0
  000b8	74 0a		 je	 SHORT $LN23@get_missio
  000ba	8b 45 08	 mov	 eax, DWORD PTR _mission$[ebp]
  000bd	8b 08		 mov	 ecx, DWORD PTR [eax]
  000bf	89 4d a4	 mov	 DWORD PTR tv134[ebp], ecx
  000c2	eb 21		 jmp	 SHORT $LN24@get_missio
$LN23@get_missio:
  000c4	8b 15 00 00 00
	00		 mov	 edx, DWORD PTR ?__LINE__Var@?0??get_mission_player_suitability_status@@YGHPAUENTITY@@@Z@4JA
  000ca	83 c2 11	 add	 edx, 17			; 00000011H
  000cd	52		 push	 edx
  000ce	68 00 00 00 00	 push	 OFFSET ??_C@_0EL@NMGABAFH@c?3?2users?2nhv90?2projects?2eech?2ap@
  000d3	a1 00 00 00 00	 mov	 eax, DWORD PTR ?null_entity_pointer_message@@3PBDB ; null_entity_pointer_message
  000d8	50		 push	 eax
  000d9	e8 00 00 00 00	 call	 ?process_assert@@YGXPBD0H@Z ; process_assert
  000de	c7 45 a4 00 00
	00 00		 mov	 DWORD PTR tv134[ebp], 0
$LN24@get_missio:
  000e5	b9 01 00 00 00	 mov	 ecx, 1
  000ea	85 c9		 test	 ecx, ecx
  000ec	74 09		 je	 SHORT $LN25@get_missio
  000ee	c7 45 a0 e3 00
	00 00		 mov	 DWORD PTR tv142[ebp], 227 ; 000000e3H
  000f5	eb 21		 jmp	 SHORT $LN26@get_missio
$LN25@get_missio:
  000f7	8b 15 00 00 00
	00		 mov	 edx, DWORD PTR ?__LINE__Var@?0??get_mission_player_suitability_status@@YGHPAUENTITY@@@Z@4JA
  000fd	83 c2 11	 add	 edx, 17			; 00000011H
  00100	52		 push	 edx
  00101	68 00 00 00 00	 push	 OFFSET ??_C@_0EL@NMGABAFH@c?3?2users?2nhv90?2projects?2eech?2ap@
  00106	a1 00 00 00 00	 mov	 eax, DWORD PTR ?overload_invalid_int_type_message@@3PBDB ; overload_invalid_int_type_message
  0010b	50		 push	 eax
  0010c	e8 00 00 00 00	 call	 ?process_assert@@YGXPBD0H@Z ; process_assert
  00111	c7 45 a0 00 00
	00 00		 mov	 DWORD PTR tv142[ebp], 0
$LN26@get_missio:
  00118	68 e3 00 00 00	 push	 227			; 000000e3H
  0011d	8b 4d 08	 mov	 ecx, DWORD PTR _mission$[ebp]
  00120	51		 push	 ecx
  00121	69 55 a4 5c 04
	00 00		 imul	 edx, DWORD PTR tv134[ebp], 1116
  00128	8b 45 a0	 mov	 eax, DWORD PTR tv142[ebp]
  0012b	8b 8c 82 00 00
	00 00		 mov	 ecx, DWORD PTR ?fn_get_local_entity_int_value@@3PAY0BBH@P6GHPAUENTITY@@W4INT_TYPES@@@ZA[edx+eax*4]
  00132	ff d1		 call	 ecx
  00134	89 45 e8	 mov	 DWORD PTR _state$[ebp], eax

; 285  : 
; 286  : 		switch (state)

  00137	8b 45 e8	 mov	 eax, DWORD PTR _state$[ebp]
  0013a	89 45 a4	 mov	 DWORD PTR tv148[ebp], eax
  0013d	83 7d a4 00	 cmp	 DWORD PTR tv148[ebp], 0
  00141	74 0f		 je	 SHORT $LN7@get_missio
  00143	83 7d a4 01	 cmp	 DWORD PTR tv148[ebp], 1
  00147	0f 84 3f 03 00
	00		 je	 $LN13@get_missio
  0014d	e9 90 04 00 00	 jmp	 $LN2@get_missio
$LN7@get_missio:

; 287  : 		{
; 288  : 			case TASK_STATE_UNASSIGNED:
; 289  : 			{
; 290  : 				//
; 291  : 				// Take each group at the base, and test if it matches the mission type
; 292  : 				//
; 293  : 
; 294  : 				base = get_local_entity_parent (mission, LIST_TYPE_UNASSIGNED_TASK);

  00152	83 7d 08 00	 cmp	 DWORD PTR _mission$[ebp], 0
  00156	74 0a		 je	 SHORT $LN27@get_missio
  00158	8b 45 08	 mov	 eax, DWORD PTR _mission$[ebp]
  0015b	8b 08		 mov	 ecx, DWORD PTR [eax]
  0015d	89 4d a4	 mov	 DWORD PTR tv155[ebp], ecx
  00160	eb 21		 jmp	 SHORT $LN28@get_missio
$LN27@get_missio:
  00162	8b 15 00 00 00
	00		 mov	 edx, DWORD PTR ?__LINE__Var@?0??get_mission_player_suitability_status@@YGHPAUENTITY@@@Z@4JA
  00168	83 c2 1b	 add	 edx, 27			; 0000001bH
  0016b	52		 push	 edx
  0016c	68 00 00 00 00	 push	 OFFSET ??_C@_0EL@NMGABAFH@c?3?2users?2nhv90?2projects?2eech?2ap@
  00171	a1 00 00 00 00	 mov	 eax, DWORD PTR ?null_entity_pointer_message@@3PBDB ; null_entity_pointer_message
  00176	50		 push	 eax
  00177	e8 00 00 00 00	 call	 ?process_assert@@YGXPBD0H@Z ; process_assert
  0017c	c7 45 a4 00 00
	00 00		 mov	 DWORD PTR tv155[ebp], 0
$LN28@get_missio:
  00183	b9 01 00 00 00	 mov	 ecx, 1
  00188	85 c9		 test	 ecx, ecx
  0018a	74 09		 je	 SHORT $LN29@get_missio
  0018c	c7 45 a0 28 00
	00 00		 mov	 DWORD PTR tv163[ebp], 40 ; 00000028H
  00193	eb 21		 jmp	 SHORT $LN30@get_missio
$LN29@get_missio:
  00195	8b 15 00 00 00
	00		 mov	 edx, DWORD PTR ?__LINE__Var@?0??get_mission_player_suitability_status@@YGHPAUENTITY@@@Z@4JA
  0019b	83 c2 1b	 add	 edx, 27			; 0000001bH
  0019e	52		 push	 edx
  0019f	68 00 00 00 00	 push	 OFFSET ??_C@_0EL@NMGABAFH@c?3?2users?2nhv90?2projects?2eech?2ap@
  001a4	a1 00 00 00 00	 mov	 eax, DWORD PTR ?overload_invalid_list_type_message@@3PBDB ; overload_invalid_list_type_message
  001a9	50		 push	 eax
  001aa	e8 00 00 00 00	 call	 ?process_assert@@YGXPBD0H@Z ; process_assert
  001af	c7 45 a0 00 00
	00 00		 mov	 DWORD PTR tv163[ebp], 0
$LN30@get_missio:
  001b6	6a 28		 push	 40			; 00000028H
  001b8	8b 4d 08	 mov	 ecx, DWORD PTR _mission$[ebp]
  001bb	51		 push	 ecx
  001bc	69 55 a4 b4 00
	00 00		 imul	 edx, DWORD PTR tv155[ebp], 180
  001c3	8b 45 a0	 mov	 eax, DWORD PTR tv163[ebp]
  001c6	8b 8c 82 00 00
	00 00		 mov	 ecx, DWORD PTR ?fn_get_local_entity_parent@@3PAY0CN@P6GPAUENTITY@@PAU1@W4LIST_TYPES@@@ZA[edx+eax*4]
  001cd	ff d1		 call	 ecx
  001cf	89 45 f4	 mov	 DWORD PTR _base$[ebp], eax

; 295  : 
; 296  : 				ASSERT (base);

  001d2	83 7d f4 00	 cmp	 DWORD PTR _base$[ebp], 0
  001d6	75 18		 jne	 SHORT $LN8@get_missio
  001d8	a1 00 00 00 00	 mov	 eax, DWORD PTR ?__LINE__Var@?0??get_mission_player_suitability_status@@YGHPAUENTITY@@@Z@4JA
  001dd	83 c0 1d	 add	 eax, 29			; 0000001dH
  001e0	50		 push	 eax
  001e1	68 00 00 00 00	 push	 OFFSET ??_C@_0EL@NMGABAFH@c?3?2users?2nhv90?2projects?2eech?2ap@
  001e6	68 00 00 00 00	 push	 OFFSET ??_C@_04BHIIPFEC@base@
  001eb	e8 00 00 00 00	 call	 ?process_assert@@YGXPBD0H@Z ; process_assert
$LN8@get_missio:

; 297  : 
; 298  : 				ASSERT (get_local_entity_type (base) == ENTITY_TYPE_KEYSITE);

  001f0	83 7d f4 00	 cmp	 DWORD PTR _base$[ebp], 0
  001f4	74 0a		 je	 SHORT $LN31@get_missio
  001f6	8b 45 f4	 mov	 eax, DWORD PTR _base$[ebp]
  001f9	8b 08		 mov	 ecx, DWORD PTR [eax]
  001fb	89 4d a4	 mov	 DWORD PTR tv180[ebp], ecx
  001fe	eb 21		 jmp	 SHORT $LN32@get_missio
$LN31@get_missio:
  00200	8b 15 00 00 00
	00		 mov	 edx, DWORD PTR ?__LINE__Var@?0??get_mission_player_suitability_status@@YGHPAUENTITY@@@Z@4JA
  00206	83 c2 1f	 add	 edx, 31			; 0000001fH
  00209	52		 push	 edx
  0020a	68 00 00 00 00	 push	 OFFSET ??_C@_0EL@NMGABAFH@c?3?2users?2nhv90?2projects?2eech?2ap@
  0020f	a1 00 00 00 00	 mov	 eax, DWORD PTR ?null_entity_pointer_message@@3PBDB ; null_entity_pointer_message
  00214	50		 push	 eax
  00215	e8 00 00 00 00	 call	 ?process_assert@@YGXPBD0H@Z ; process_assert
  0021a	c7 45 a4 00 00
	00 00		 mov	 DWORD PTR tv180[ebp], 0
$LN32@get_missio:
  00221	83 7d a4 0f	 cmp	 DWORD PTR tv180[ebp], 15 ; 0000000fH
  00225	74 18		 je	 SHORT $LN9@get_missio
  00227	a1 00 00 00 00	 mov	 eax, DWORD PTR ?__LINE__Var@?0??get_mission_player_suitability_status@@YGHPAUENTITY@@@Z@4JA
  0022c	83 c0 1f	 add	 eax, 31			; 0000001fH
  0022f	50		 push	 eax
  00230	68 00 00 00 00	 push	 OFFSET ??_C@_0EL@NMGABAFH@c?3?2users?2nhv90?2projects?2eech?2ap@
  00235	68 00 00 00 00	 push	 OFFSET ??_C@_0DE@BLNNEFLP@get_local_entity_type?5?$CIbase?$CJ?5?$DN?$DN@
  0023a	e8 00 00 00 00	 call	 ?process_assert@@YGXPBD0H@Z ; process_assert
$LN9@get_missio:

; 299  : 
; 300  : 				group = get_local_entity_first_child (base, LIST_TYPE_KEYSITE_GROUP);

  0023f	83 7d f4 00	 cmp	 DWORD PTR _base$[ebp], 0
  00243	74 0a		 je	 SHORT $LN33@get_missio
  00245	8b 45 f4	 mov	 eax, DWORD PTR _base$[ebp]
  00248	8b 08		 mov	 ecx, DWORD PTR [eax]
  0024a	89 4d a4	 mov	 DWORD PTR tv192[ebp], ecx
  0024d	eb 21		 jmp	 SHORT $LN34@get_missio
$LN33@get_missio:
  0024f	8b 15 00 00 00
	00		 mov	 edx, DWORD PTR ?__LINE__Var@?0??get_mission_player_suitability_status@@YGHPAUENTITY@@@Z@4JA
  00255	83 c2 21	 add	 edx, 33			; 00000021H
  00258	52		 push	 edx
  00259	68 00 00 00 00	 push	 OFFSET ??_C@_0EL@NMGABAFH@c?3?2users?2nhv90?2projects?2eech?2ap@
  0025e	a1 00 00 00 00	 mov	 eax, DWORD PTR ?null_entity_pointer_message@@3PBDB ; null_entity_pointer_message
  00263	50		 push	 eax
  00264	e8 00 00 00 00	 call	 ?process_assert@@YGXPBD0H@Z ; process_assert
  00269	c7 45 a4 00 00
	00 00		 mov	 DWORD PTR tv192[ebp], 0
$LN34@get_missio:
  00270	b9 01 00 00 00	 mov	 ecx, 1
  00275	85 c9		 test	 ecx, ecx
  00277	74 09		 je	 SHORT $LN35@get_missio
  00279	c7 45 a0 16 00
	00 00		 mov	 DWORD PTR tv200[ebp], 22 ; 00000016H
  00280	eb 21		 jmp	 SHORT $LN36@get_missio
$LN35@get_missio:
  00282	8b 15 00 00 00
	00		 mov	 edx, DWORD PTR ?__LINE__Var@?0??get_mission_player_suitability_status@@YGHPAUENTITY@@@Z@4JA
  00288	83 c2 21	 add	 edx, 33			; 00000021H
  0028b	52		 push	 edx
  0028c	68 00 00 00 00	 push	 OFFSET ??_C@_0EL@NMGABAFH@c?3?2users?2nhv90?2projects?2eech?2ap@
  00291	a1 00 00 00 00	 mov	 eax, DWORD PTR ?overload_invalid_list_type_message@@3PBDB ; overload_invalid_list_type_message
  00296	50		 push	 eax
  00297	e8 00 00 00 00	 call	 ?process_assert@@YGXPBD0H@Z ; process_assert
  0029c	c7 45 a0 00 00
	00 00		 mov	 DWORD PTR tv200[ebp], 0
$LN36@get_missio:
  002a3	6a 16		 push	 22			; 00000016H
  002a5	8b 4d f4	 mov	 ecx, DWORD PTR _base$[ebp]
  002a8	51		 push	 ecx
  002a9	69 55 a4 b4 00
	00 00		 imul	 edx, DWORD PTR tv192[ebp], 180
  002b0	8b 45 a0	 mov	 eax, DWORD PTR tv200[ebp]
  002b3	8b 8c 82 00 00
	00 00		 mov	 ecx, DWORD PTR ?fn_get_local_entity_first_child@@3PAY0CN@P6GPAUENTITY@@PAU1@W4LIST_TYPES@@@ZA[edx+eax*4]
  002ba	ff d1		 call	 ecx
  002bc	89 45 f8	 mov	 DWORD PTR _group$[ebp], eax
$LN4@get_missio:

; 301  : 
; 302  : 				while (group)

  002bf	83 7d f8 00	 cmp	 DWORD PTR _group$[ebp], 0
  002c3	0f 84 be 01 00
	00		 je	 $LN5@get_missio

; 303  : 				{
; 304  : 					if (get_local_entity_int_value (group, INT_TYPE_GROUP_MODE) == GROUP_MODE_IDLE)

  002c9	83 7d f8 00	 cmp	 DWORD PTR _group$[ebp], 0
  002cd	74 0a		 je	 SHORT $LN37@get_missio
  002cf	8b 45 f8	 mov	 eax, DWORD PTR _group$[ebp]
  002d2	8b 08		 mov	 ecx, DWORD PTR [eax]
  002d4	89 4d a4	 mov	 DWORD PTR tv212[ebp], ecx
  002d7	eb 1d		 jmp	 SHORT $LN38@get_missio
$LN37@get_missio:
  002d9	68 30 01 00 00	 push	 304			; 00000130H
  002de	68 00 00 00 00	 push	 OFFSET ??_C@_0EL@NMGABAFH@c?3?2users?2nhv90?2projects?2eech?2ap@
  002e3	8b 15 00 00 00
	00		 mov	 edx, DWORD PTR ?null_entity_pointer_message@@3PBDB ; null_entity_pointer_message
  002e9	52		 push	 edx
  002ea	e8 00 00 00 00	 call	 ?process_assert@@YGXPBD0H@Z ; process_assert
  002ef	c7 45 a4 00 00
	00 00		 mov	 DWORD PTR tv212[ebp], 0
$LN38@get_missio:
  002f6	b8 01 00 00 00	 mov	 eax, 1
  002fb	85 c0		 test	 eax, eax
  002fd	74 09		 je	 SHORT $LN39@get_missio
  002ff	c7 45 a0 4d 00
	00 00		 mov	 DWORD PTR tv219[ebp], 77 ; 0000004dH
  00306	eb 1d		 jmp	 SHORT $LN40@get_missio
$LN39@get_missio:
  00308	68 30 01 00 00	 push	 304			; 00000130H
  0030d	68 00 00 00 00	 push	 OFFSET ??_C@_0EL@NMGABAFH@c?3?2users?2nhv90?2projects?2eech?2ap@
  00312	8b 0d 00 00 00
	00		 mov	 ecx, DWORD PTR ?overload_invalid_int_type_message@@3PBDB ; overload_invalid_int_type_message
  00318	51		 push	 ecx
  00319	e8 00 00 00 00	 call	 ?process_assert@@YGXPBD0H@Z ; process_assert
  0031e	c7 45 a0 00 00
	00 00		 mov	 DWORD PTR tv219[ebp], 0
$LN40@get_missio:
  00325	6a 4d		 push	 77			; 0000004dH
  00327	8b 55 f8	 mov	 edx, DWORD PTR _group$[ebp]
  0032a	52		 push	 edx
  0032b	69 45 a4 5c 04
	00 00		 imul	 eax, DWORD PTR tv212[ebp], 1116
  00332	8b 4d a0	 mov	 ecx, DWORD PTR tv219[ebp]
  00335	8b 94 88 00 00
	00 00		 mov	 edx, DWORD PTR ?fn_get_local_entity_int_value@@3PAY0BBH@P6GHPAUENTITY@@W4INT_TYPES@@@ZA[eax+ecx*4]
  0033c	ff d2		 call	 edx
  0033e	85 c0		 test	 eax, eax
  00340	0f 85 bc 00 00
	00		 jne	 $LN12@get_missio

; 305  : 					{
; 306  : 						group_type = get_local_entity_int_value (group, INT_TYPE_ENTITY_SUB_TYPE);

  00346	83 7d f8 00	 cmp	 DWORD PTR _group$[ebp], 0
  0034a	74 0a		 je	 SHORT $LN41@get_missio
  0034c	8b 45 f8	 mov	 eax, DWORD PTR _group$[ebp]
  0034f	8b 08		 mov	 ecx, DWORD PTR [eax]
  00351	89 4d a4	 mov	 DWORD PTR tv232[ebp], ecx
  00354	eb 21		 jmp	 SHORT $LN42@get_missio
$LN41@get_missio:
  00356	8b 15 00 00 00
	00		 mov	 edx, DWORD PTR ?__LINE__Var@?0??get_mission_player_suitability_status@@YGHPAUENTITY@@@Z@4JA
  0035c	83 c2 27	 add	 edx, 39			; 00000027H
  0035f	52		 push	 edx
  00360	68 00 00 00 00	 push	 OFFSET ??_C@_0EL@NMGABAFH@c?3?2users?2nhv90?2projects?2eech?2ap@
  00365	a1 00 00 00 00	 mov	 eax, DWORD PTR ?null_entity_pointer_message@@3PBDB ; null_entity_pointer_message
  0036a	50		 push	 eax
  0036b	e8 00 00 00 00	 call	 ?process_assert@@YGXPBD0H@Z ; process_assert
  00370	c7 45 a4 00 00
	00 00		 mov	 DWORD PTR tv232[ebp], 0
$LN42@get_missio:
  00377	b9 01 00 00 00	 mov	 ecx, 1
  0037c	85 c9		 test	 ecx, ecx
  0037e	74 09		 je	 SHORT $LN43@get_missio
  00380	c7 45 a0 34 00
	00 00		 mov	 DWORD PTR tv240[ebp], 52 ; 00000034H
  00387	eb 21		 jmp	 SHORT $LN44@get_missio
$LN43@get_missio:
  00389	8b 15 00 00 00
	00		 mov	 edx, DWORD PTR ?__LINE__Var@?0??get_mission_player_suitability_status@@YGHPAUENTITY@@@Z@4JA
  0038f	83 c2 27	 add	 edx, 39			; 00000027H
  00392	52		 push	 edx
  00393	68 00 00 00 00	 push	 OFFSET ??_C@_0EL@NMGABAFH@c?3?2users?2nhv90?2projects?2eech?2ap@
  00398	a1 00 00 00 00	 mov	 eax, DWORD PTR ?overload_invalid_int_type_message@@3PBDB ; overload_invalid_int_type_message
  0039d	50		 push	 eax
  0039e	e8 00 00 00 00	 call	 ?process_assert@@YGXPBD0H@Z ; process_assert
  003a3	c7 45 a0 00 00
	00 00		 mov	 DWORD PTR tv240[ebp], 0
$LN44@get_missio:
  003aa	6a 34		 push	 52			; 00000034H
  003ac	8b 4d f8	 mov	 ecx, DWORD PTR _group$[ebp]
  003af	51		 push	 ecx
  003b0	69 55 a4 5c 04
	00 00		 imul	 edx, DWORD PTR tv232[ebp], 1116
  003b7	8b 45 a0	 mov	 eax, DWORD PTR tv240[ebp]
  003ba	8b 8c 82 00 00
	00 00		 mov	 ecx, DWORD PTR ?fn_get_local_entity_int_value@@3PAY0BBH@P6GHPAUENTITY@@W4INT_TYPES@@@ZA[edx+eax*4]
  003c1	ff d1		 call	 ecx
  003c3	89 45 f0	 mov	 DWORD PTR _group_type$[ebp], eax

; 307  : 
; 308  : 						if (get_group_suitable_for_player (group, get_pilot_entity ()))

  003c6	a1 00 00 00 00	 mov	 eax, DWORD PTR ?pilot_entity@@3PAUENTITY@@A ; pilot_entity
  003cb	50		 push	 eax
  003cc	8b 4d f8	 mov	 ecx, DWORD PTR _group$[ebp]
  003cf	51		 push	 ecx
  003d0	e8 00 00 00 00	 call	 ?get_group_suitable_for_player@@YGHPAUENTITY@@0@Z ; get_group_suitable_for_player
  003d5	85 c0		 test	 eax, eax
  003d7	74 29		 je	 SHORT $LN12@get_missio

; 309  : 						{
; 310  : 							if (get_group_to_task_suitability (group_type, mission_type) > 0.0)

  003d9	8b 45 ec	 mov	 eax, DWORD PTR _mission_type$[ebp]
  003dc	50		 push	 eax
  003dd	8b 4d f0	 mov	 ecx, DWORD PTR _group_type$[ebp]
  003e0	51		 push	 ecx
  003e1	e8 00 00 00 00	 call	 ?get_group_to_task_suitability@@YGMHH@Z ; get_group_to_task_suitability
  003e6	dd 5d a0	 fstp	 QWORD PTR tv413[ebp]
  003e9	f2 0f 10 45 a0	 movsd	 xmm0, QWORD PTR tv413[ebp]
  003ee	66 0f 2f 05 00
	00 00 00	 comisd	 xmm0, QWORD PTR __real@0000000000000000
  003f6	76 0a		 jbe	 SHORT $LN12@get_missio

; 311  : 							{
; 312  : 								return TRUE;

  003f8	b8 01 00 00 00	 mov	 eax, 1
  003fd	e9 e2 01 00 00	 jmp	 $LN1@get_missio
$LN12@get_missio:

; 313  : 							}
; 314  : 						}
; 315  : 					}
; 316  : 
; 317  : 					group = get_local_entity_child_succ (group, LIST_TYPE_KEYSITE_GROUP);

  00402	83 7d f8 00	 cmp	 DWORD PTR _group$[ebp], 0
  00406	74 0a		 je	 SHORT $LN45@get_missio
  00408	8b 45 f8	 mov	 eax, DWORD PTR _group$[ebp]
  0040b	8b 08		 mov	 ecx, DWORD PTR [eax]
  0040d	89 4d a4	 mov	 DWORD PTR tv261[ebp], ecx
  00410	eb 21		 jmp	 SHORT $LN46@get_missio
$LN45@get_missio:
  00412	8b 15 00 00 00
	00		 mov	 edx, DWORD PTR ?__LINE__Var@?0??get_mission_player_suitability_status@@YGHPAUENTITY@@@Z@4JA
  00418	83 c2 32	 add	 edx, 50			; 00000032H
  0041b	52		 push	 edx
  0041c	68 00 00 00 00	 push	 OFFSET ??_C@_0EL@NMGABAFH@c?3?2users?2nhv90?2projects?2eech?2ap@
  00421	a1 00 00 00 00	 mov	 eax, DWORD PTR ?null_entity_pointer_message@@3PBDB ; null_entity_pointer_message
  00426	50		 push	 eax
  00427	e8 00 00 00 00	 call	 ?process_assert@@YGXPBD0H@Z ; process_assert
  0042c	c7 45 a4 00 00
	00 00		 mov	 DWORD PTR tv261[ebp], 0
$LN46@get_missio:
  00433	b9 01 00 00 00	 mov	 ecx, 1
  00438	85 c9		 test	 ecx, ecx
  0043a	74 09		 je	 SHORT $LN47@get_missio
  0043c	c7 45 a0 16 00
	00 00		 mov	 DWORD PTR tv269[ebp], 22 ; 00000016H
  00443	eb 21		 jmp	 SHORT $LN48@get_missio
$LN47@get_missio:
  00445	8b 15 00 00 00
	00		 mov	 edx, DWORD PTR ?__LINE__Var@?0??get_mission_player_suitability_status@@YGHPAUENTITY@@@Z@4JA
  0044b	83 c2 32	 add	 edx, 50			; 00000032H
  0044e	52		 push	 edx
  0044f	68 00 00 00 00	 push	 OFFSET ??_C@_0EL@NMGABAFH@c?3?2users?2nhv90?2projects?2eech?2ap@
  00454	a1 00 00 00 00	 mov	 eax, DWORD PTR ?overload_invalid_list_type_message@@3PBDB ; overload_invalid_list_type_message
  00459	50		 push	 eax
  0045a	e8 00 00 00 00	 call	 ?process_assert@@YGXPBD0H@Z ; process_assert
  0045f	c7 45 a0 00 00
	00 00		 mov	 DWORD PTR tv269[ebp], 0
$LN48@get_missio:
  00466	6a 16		 push	 22			; 00000016H
  00468	8b 4d f8	 mov	 ecx, DWORD PTR _group$[ebp]
  0046b	51		 push	 ecx
  0046c	69 55 a4 b4 00
	00 00		 imul	 edx, DWORD PTR tv261[ebp], 180
  00473	8b 45 a0	 mov	 eax, DWORD PTR tv269[ebp]
  00476	8b 8c 82 00 00
	00 00		 mov	 ecx, DWORD PTR ?fn_get_local_entity_child_succ@@3PAY0CN@P6GPAUENTITY@@PAU1@W4LIST_TYPES@@@ZA[edx+eax*4]
  0047d	ff d1		 call	 ecx
  0047f	89 45 f8	 mov	 DWORD PTR _group$[ebp], eax

; 318  : 				}

  00482	e9 38 fe ff ff	 jmp	 $LN4@get_missio
$LN5@get_missio:

; 319  : 
; 320  : 				break;

  00487	e9 56 01 00 00	 jmp	 $LN2@get_missio
$LN13@get_missio:

; 321  : 			}
; 322  : 
; 323  : 			case TASK_STATE_ASSIGNED:
; 324  : 			{
; 325  : 				//
; 326  : 				// Mission already assigned - see if group is suitable for player
; 327  : 				//
; 328  : 
; 329  : 				guide = get_local_entity_first_child (mission, LIST_TYPE_GUIDE);

  0048c	83 7d 08 00	 cmp	 DWORD PTR _mission$[ebp], 0
  00490	74 0a		 je	 SHORT $LN49@get_missio
  00492	8b 45 08	 mov	 eax, DWORD PTR _mission$[ebp]
  00495	8b 08		 mov	 ecx, DWORD PTR [eax]
  00497	89 4d a4	 mov	 DWORD PTR tv281[ebp], ecx
  0049a	eb 21		 jmp	 SHORT $LN50@get_missio
$LN49@get_missio:
  0049c	8b 15 00 00 00
	00		 mov	 edx, DWORD PTR ?__LINE__Var@?0??get_mission_player_suitability_status@@YGHPAUENTITY@@@Z@4JA
  004a2	83 c2 3e	 add	 edx, 62			; 0000003eH
  004a5	52		 push	 edx
  004a6	68 00 00 00 00	 push	 OFFSET ??_C@_0EL@NMGABAFH@c?3?2users?2nhv90?2projects?2eech?2ap@
  004ab	a1 00 00 00 00	 mov	 eax, DWORD PTR ?null_entity_pointer_message@@3PBDB ; null_entity_pointer_message
  004b0	50		 push	 eax
  004b1	e8 00 00 00 00	 call	 ?process_assert@@YGXPBD0H@Z ; process_assert
  004b6	c7 45 a4 00 00
	00 00		 mov	 DWORD PTR tv281[ebp], 0
$LN50@get_missio:
  004bd	b9 01 00 00 00	 mov	 ecx, 1
  004c2	85 c9		 test	 ecx, ecx
  004c4	74 09		 je	 SHORT $LN51@get_missio
  004c6	c7 45 a0 10 00
	00 00		 mov	 DWORD PTR tv289[ebp], 16 ; 00000010H
  004cd	eb 21		 jmp	 SHORT $LN52@get_missio
$LN51@get_missio:
  004cf	8b 15 00 00 00
	00		 mov	 edx, DWORD PTR ?__LINE__Var@?0??get_mission_player_suitability_status@@YGHPAUENTITY@@@Z@4JA
  004d5	83 c2 3e	 add	 edx, 62			; 0000003eH
  004d8	52		 push	 edx
  004d9	68 00 00 00 00	 push	 OFFSET ??_C@_0EL@NMGABAFH@c?3?2users?2nhv90?2projects?2eech?2ap@
  004de	a1 00 00 00 00	 mov	 eax, DWORD PTR ?overload_invalid_list_type_message@@3PBDB ; overload_invalid_list_type_message
  004e3	50		 push	 eax
  004e4	e8 00 00 00 00	 call	 ?process_assert@@YGXPBD0H@Z ; process_assert
  004e9	c7 45 a0 00 00
	00 00		 mov	 DWORD PTR tv289[ebp], 0
$LN52@get_missio:
  004f0	6a 10		 push	 16			; 00000010H
  004f2	8b 4d 08	 mov	 ecx, DWORD PTR _mission$[ebp]
  004f5	51		 push	 ecx
  004f6	69 55 a4 b4 00
	00 00		 imul	 edx, DWORD PTR tv281[ebp], 180
  004fd	8b 45 a0	 mov	 eax, DWORD PTR tv289[ebp]
  00500	8b 8c 82 00 00
	00 00		 mov	 ecx, DWORD PTR ?fn_get_local_entity_first_child@@3PAY0CN@P6GPAUENTITY@@PAU1@W4LIST_TYPES@@@ZA[edx+eax*4]
  00507	ff d1		 call	 ecx
  00509	89 45 fc	 mov	 DWORD PTR _guide$[ebp], eax

; 330  : 
; 331  : 				ASSERT (guide);

  0050c	83 7d fc 00	 cmp	 DWORD PTR _guide$[ebp], 0
  00510	75 18		 jne	 SHORT $LN14@get_missio
  00512	a1 00 00 00 00	 mov	 eax, DWORD PTR ?__LINE__Var@?0??get_mission_player_suitability_status@@YGHPAUENTITY@@@Z@4JA
  00517	83 c0 40	 add	 eax, 64			; 00000040H
  0051a	50		 push	 eax
  0051b	68 00 00 00 00	 push	 OFFSET ??_C@_0EL@NMGABAFH@c?3?2users?2nhv90?2projects?2eech?2ap@
  00520	68 00 00 00 00	 push	 OFFSET ??_C@_05HLIEEKJG@guide@
  00525	e8 00 00 00 00	 call	 ?process_assert@@YGXPBD0H@Z ; process_assert
$LN14@get_missio:

; 332  : 
; 333  : 				group = get_local_entity_parent (guide, LIST_TYPE_GUIDE_STACK);

  0052a	83 7d fc 00	 cmp	 DWORD PTR _guide$[ebp], 0
  0052e	74 0a		 je	 SHORT $LN53@get_missio
  00530	8b 45 fc	 mov	 eax, DWORD PTR _guide$[ebp]
  00533	8b 08		 mov	 ecx, DWORD PTR [eax]
  00535	89 4d a4	 mov	 DWORD PTR tv306[ebp], ecx
  00538	eb 21		 jmp	 SHORT $LN54@get_missio
$LN53@get_missio:
  0053a	8b 15 00 00 00
	00		 mov	 edx, DWORD PTR ?__LINE__Var@?0??get_mission_player_suitability_status@@YGHPAUENTITY@@@Z@4JA
  00540	83 c2 42	 add	 edx, 66			; 00000042H
  00543	52		 push	 edx
  00544	68 00 00 00 00	 push	 OFFSET ??_C@_0EL@NMGABAFH@c?3?2users?2nhv90?2projects?2eech?2ap@
  00549	a1 00 00 00 00	 mov	 eax, DWORD PTR ?null_entity_pointer_message@@3PBDB ; null_entity_pointer_message
  0054e	50		 push	 eax
  0054f	e8 00 00 00 00	 call	 ?process_assert@@YGXPBD0H@Z ; process_assert
  00554	c7 45 a4 00 00
	00 00		 mov	 DWORD PTR tv306[ebp], 0
$LN54@get_missio:
  0055b	b9 01 00 00 00	 mov	 ecx, 1
  00560	85 c9		 test	 ecx, ecx
  00562	74 09		 je	 SHORT $LN55@get_missio
  00564	c7 45 a0 11 00
	00 00		 mov	 DWORD PTR tv314[ebp], 17 ; 00000011H
  0056b	eb 21		 jmp	 SHORT $LN56@get_missio
$LN55@get_missio:
  0056d	8b 15 00 00 00
	00		 mov	 edx, DWORD PTR ?__LINE__Var@?0??get_mission_player_suitability_status@@YGHPAUENTITY@@@Z@4JA
  00573	83 c2 42	 add	 edx, 66			; 00000042H
  00576	52		 push	 edx
  00577	68 00 00 00 00	 push	 OFFSET ??_C@_0EL@NMGABAFH@c?3?2users?2nhv90?2projects?2eech?2ap@
  0057c	a1 00 00 00 00	 mov	 eax, DWORD PTR ?overload_invalid_list_type_message@@3PBDB ; overload_invalid_list_type_message
  00581	50		 push	 eax
  00582	e8 00 00 00 00	 call	 ?process_assert@@YGXPBD0H@Z ; process_assert
  00587	c7 45 a0 00 00
	00 00		 mov	 DWORD PTR tv314[ebp], 0
$LN56@get_missio:
  0058e	6a 11		 push	 17			; 00000011H
  00590	8b 4d fc	 mov	 ecx, DWORD PTR _guide$[ebp]
  00593	51		 push	 ecx
  00594	69 55 a4 b4 00
	00 00		 imul	 edx, DWORD PTR tv306[ebp], 180
  0059b	8b 45 a0	 mov	 eax, DWORD PTR tv314[ebp]
  0059e	8b 8c 82 00 00
	00 00		 mov	 ecx, DWORD PTR ?fn_get_local_entity_parent@@3PAY0CN@P6GPAUENTITY@@PAU1@W4LIST_TYPES@@@ZA[edx+eax*4]
  005a5	ff d1		 call	 ecx
  005a7	89 45 f8	 mov	 DWORD PTR _group$[ebp], eax

; 334  : 
; 335  : 				ASSERT (group);

  005aa	83 7d f8 00	 cmp	 DWORD PTR _group$[ebp], 0
  005ae	75 18		 jne	 SHORT $LN15@get_missio
  005b0	a1 00 00 00 00	 mov	 eax, DWORD PTR ?__LINE__Var@?0??get_mission_player_suitability_status@@YGHPAUENTITY@@@Z@4JA
  005b5	83 c0 44	 add	 eax, 68			; 00000044H
  005b8	50		 push	 eax
  005b9	68 00 00 00 00	 push	 OFFSET ??_C@_0EL@NMGABAFH@c?3?2users?2nhv90?2projects?2eech?2ap@
  005be	68 00 00 00 00	 push	 OFFSET ??_C@_05MGJOOGAJ@group@
  005c3	e8 00 00 00 00	 call	 ?process_assert@@YGXPBD0H@Z ; process_assert
$LN15@get_missio:

; 336  : 
; 337  : 				if (get_group_suitable_for_player (group, get_pilot_entity ()))

  005c8	a1 00 00 00 00	 mov	 eax, DWORD PTR ?pilot_entity@@3PAUENTITY@@A ; pilot_entity
  005cd	50		 push	 eax
  005ce	8b 4d f8	 mov	 ecx, DWORD PTR _group$[ebp]
  005d1	51		 push	 ecx
  005d2	e8 00 00 00 00	 call	 ?get_group_suitable_for_player@@YGHPAUENTITY@@0@Z ; get_group_suitable_for_player
  005d7	85 c0		 test	 eax, eax
  005d9	74 07		 je	 SHORT $LN16@get_missio

; 338  : 				{
; 339  : 					return TRUE;

  005db	b8 01 00 00 00	 mov	 eax, 1
  005e0	eb 02		 jmp	 SHORT $LN1@get_missio
$LN16@get_missio:
$LN2@get_missio:

; 340  : 				}
; 341  : 
; 342  : 				break;
; 343  : 			}
; 344  : 
; 345  : 			case TASK_STATE_COMPLETED:
; 346  : 			{
; 347  : 
; 348  : 				break;
; 349  : 			}
; 350  : 		}
; 351  : 	}
; 352  : 
; 353  : 	return FALSE;

  005e2	33 c0		 xor	 eax, eax
$LN1@get_missio:

; 354  : }

  005e4	5f		 pop	 edi
  005e5	5e		 pop	 esi
  005e6	5b		 pop	 ebx
  005e7	8b e5		 mov	 esp, ebp
  005e9	5d		 pop	 ebp
  005ea	c2 04 00	 ret	 4
?get_mission_player_suitability_status@@YGHPAUENTITY@@@Z ENDP ; get_mission_player_suitability_status
_TEXT	ENDS
; Function compile flags: /Odtp /ZI
; File c:\users\nhv90\projects\eech\aphavoc\source\ui_menu\ingame\common\common.c
;	COMDAT ?stop_ingame_ui_system@@YGXXZ
_TEXT	SEGMENT
?stop_ingame_ui_system@@YGXXZ PROC			; stop_ingame_ui_system, COMDAT

; 256  : {

  00000	55		 push	 ebp
  00001	8b ec		 mov	 ebp, esp
  00003	83 ec 40	 sub	 esp, 64			; 00000040H
  00006	53		 push	 ebx
  00007	56		 push	 esi
  00008	57		 push	 edi

; 257  : 	remove_update_function (update_map_events);

  00009	68 00 00 00 00	 push	 OFFSET ?update_map_events@@YGXXZ ; update_map_events
  0000e	e8 00 00 00 00	 call	 ?remove_update_function@@YGHP6GXXZ@Z ; remove_update_function

; 258  : 
; 259  : 	remove_update_function (update_map_overlays);

  00013	68 00 00 00 00	 push	 OFFSET ?update_map_overlays@@YGXXZ ; update_map_overlays
  00018	e8 00 00 00 00	 call	 ?remove_update_function@@YGHP6GXXZ@Z ; remove_update_function

; 260  : }

  0001d	5f		 pop	 edi
  0001e	5e		 pop	 esi
  0001f	5b		 pop	 ebx
  00020	8b e5		 mov	 esp, ebp
  00022	5d		 pop	 ebp
  00023	c3		 ret	 0
?stop_ingame_ui_system@@YGXXZ ENDP			; stop_ingame_ui_system
_TEXT	ENDS
; Function compile flags: /Odtp /ZI
; File c:\users\nhv90\projects\eech\aphavoc\source\ui_menu\ingame\common\common.c
;	COMDAT ?start_ingame_ui_system@@YGXXZ
_TEXT	SEGMENT
?start_ingame_ui_system@@YGXXZ PROC			; start_ingame_ui_system, COMDAT

; 245  : {

  00000	55		 push	 ebp
  00001	8b ec		 mov	 ebp, esp
  00003	83 ec 40	 sub	 esp, 64			; 00000040H
  00006	53		 push	 ebx
  00007	56		 push	 esi
  00008	57		 push	 edi

; 246  : 	add_update_function (update_map_events, 0.0, 0.0);

  00009	51		 push	 ecx
  0000a	0f 57 c0	 xorps	 xmm0, xmm0
  0000d	f3 0f 11 04 24	 movss	 DWORD PTR [esp], xmm0
  00012	51		 push	 ecx
  00013	0f 57 c0	 xorps	 xmm0, xmm0
  00016	f3 0f 11 04 24	 movss	 DWORD PTR [esp], xmm0
  0001b	68 00 00 00 00	 push	 OFFSET ?update_map_events@@YGXXZ ; update_map_events
  00020	e8 00 00 00 00	 call	 ?add_update_function@@YGHP6GXXZMM@Z ; add_update_function

; 247  : 
; 248  : 	add_update_function (update_map_overlays, 15.0 * ONE_SECOND, 0.0);

  00025	51		 push	 ecx
  00026	0f 57 c0	 xorps	 xmm0, xmm0
  00029	f3 0f 11 04 24	 movss	 DWORD PTR [esp], xmm0
  0002e	51		 push	 ecx
  0002f	f3 0f 10 05 00
	00 00 00	 movss	 xmm0, DWORD PTR __real@41700000
  00037	f3 0f 11 04 24	 movss	 DWORD PTR [esp], xmm0
  0003c	68 00 00 00 00	 push	 OFFSET ?update_map_overlays@@YGXXZ ; update_map_overlays
  00041	e8 00 00 00 00	 call	 ?add_update_function@@YGHP6GXXZMM@Z ; add_update_function

; 249  : }

  00046	5f		 pop	 edi
  00047	5e		 pop	 esi
  00048	5b		 pop	 ebx
  00049	8b e5		 mov	 esp, ebp
  0004b	5d		 pop	 ebp
  0004c	c3		 ret	 0
?start_ingame_ui_system@@YGXXZ ENDP			; start_ingame_ui_system
_TEXT	ENDS
; Function compile flags: /Odtp /ZI
; File c:\users\nhv90\projects\eech\aphavoc\source\ui_menu\ingame\common\common.c
;	COMDAT ?set_ui_mouse_over_entity_function@@YGXPAUUI_OBJECT@@@Z
_TEXT	SEGMENT
_obj$ = 8						; size = 4
?set_ui_mouse_over_entity_function@@YGXPAUUI_OBJECT@@@Z PROC ; set_ui_mouse_over_entity_function, COMDAT

; 230  : {

  00000	55		 push	 ebp
  00001	8b ec		 mov	 ebp, esp
  00003	83 ec 40	 sub	 esp, 64			; 00000040H
  00006	53		 push	 ebx
  00007	56		 push	 esi
  00008	57		 push	 edi

; 231  : 	ASSERT (obj);

  00009	83 7d 08 00	 cmp	 DWORD PTR _obj$[ebp], 0
  0000d	75 18		 jne	 SHORT $LN2@set_ui_mou
  0000f	a1 00 00 00 00	 mov	 eax, DWORD PTR ?__LINE__Var@?0??set_ui_mouse_over_entity_function@@YGXPAUUI_OBJECT@@@Z@4JA
  00014	83 c0 01	 add	 eax, 1
  00017	50		 push	 eax
  00018	68 00 00 00 00	 push	 OFFSET ??_C@_0EL@NMGABAFH@c?3?2users?2nhv90?2projects?2eech?2ap@
  0001d	68 00 00 00 00	 push	 OFFSET ??_C@_03GJLPFLNF@obj@
  00022	e8 00 00 00 00	 call	 ?process_assert@@YGXPBD0H@Z ; process_assert
$LN2@set_ui_mou:

; 232  : 
; 233  : 	set_ui_object_highlighted_function (obj, entity_mouse_over_function);

  00027	68 00 00 00 00	 push	 OFFSET ?entity_mouse_over_function@@YGXPAUUI_OBJECT@@PAX@Z ; entity_mouse_over_function
  0002c	8b 45 08	 mov	 eax, DWORD PTR _obj$[ebp]
  0002f	50		 push	 eax
  00030	8b 4d 08	 mov	 ecx, DWORD PTR _obj$[ebp]
  00033	8b 11		 mov	 edx, DWORD PTR [ecx]
  00035	8b 04 95 00 00
	00 00		 mov	 eax, DWORD PTR ?fn_set_ui_object_highlighted_function@@3PAP6GXPAUUI_OBJECT@@P6GX0PAX@Z@ZA[edx*4]
  0003c	ff d0		 call	 eax

; 234  : 
; 235  : 	set_ui_object_highlighted_notify_on (obj, NOTIFY_TYPE_CONTINUAL);

  0003e	6a 06		 push	 6
  00040	8b 45 08	 mov	 eax, DWORD PTR _obj$[ebp]
  00043	50		 push	 eax
  00044	8b 4d 08	 mov	 ecx, DWORD PTR _obj$[ebp]
  00047	8b 11		 mov	 edx, DWORD PTR [ecx]
  00049	8b 04 95 00 00
	00 00		 mov	 eax, DWORD PTR ?fn_set_ui_object_highlighted_notify_on@@3PAP6GXPAUUI_OBJECT@@W4NOTIFY_TYPES@@@ZA[edx*4]
  00050	ff d0		 call	 eax

; 236  : 
; 237  : 	set_ingame_ui_object_mouse_over_properties (obj);

  00052	8b 45 08	 mov	 eax, DWORD PTR _obj$[ebp]
  00055	50		 push	 eax
  00056	e8 00 00 00 00	 call	 ?set_ingame_ui_object_mouse_over_properties@@YGXPAUUI_OBJECT@@@Z ; set_ingame_ui_object_mouse_over_properties

; 238  : }

  0005b	5f		 pop	 edi
  0005c	5e		 pop	 esi
  0005d	5b		 pop	 ebx
  0005e	8b e5		 mov	 esp, ebp
  00060	5d		 pop	 ebp
  00061	c2 04 00	 ret	 4
?set_ui_mouse_over_entity_function@@YGXPAUUI_OBJECT@@@Z ENDP ; set_ui_mouse_over_entity_function
_TEXT	ENDS
; Function compile flags: /Odtp /ZI
; File c:\users\nhv90\projects\eech\aphavoc\source\ui_menu\ingame\common\common.c
;	COMDAT ?set_ingame_ui_object_mouse_over_properties@@YGXPAUUI_OBJECT@@@Z
_TEXT	SEGMENT
_col$ = -4						; size = 4
_obj$ = 8						; size = 4
?set_ingame_ui_object_mouse_over_properties@@YGXPAUUI_OBJECT@@@Z PROC ; set_ingame_ui_object_mouse_over_properties, COMDAT

; 207  : {

  00000	55		 push	 ebp
  00001	8b ec		 mov	 ebp, esp
  00003	83 ec 44	 sub	 esp, 68			; 00000044H
  00006	53		 push	 ebx
  00007	56		 push	 esi
  00008	57		 push	 edi

; 208  : 	rgb_colour
; 209  : 		*col;
; 210  : 
; 211  : 	ASSERT (obj);

  00009	83 7d 08 00	 cmp	 DWORD PTR _obj$[ebp], 0
  0000d	75 18		 jne	 SHORT $LN2@set_ingame
  0000f	a1 00 00 00 00	 mov	 eax, DWORD PTR ?__LINE__Var@?0??set_ingame_ui_object_mouse_over_properties@@YGXPAUUI_OBJECT@@@Z@4JA
  00014	83 c0 04	 add	 eax, 4
  00017	50		 push	 eax
  00018	68 00 00 00 00	 push	 OFFSET ??_C@_0EL@NMGABAFH@c?3?2users?2nhv90?2projects?2eech?2ap@
  0001d	68 00 00 00 00	 push	 OFFSET ??_C@_03GJLPFLNF@obj@
  00022	e8 00 00 00 00	 call	 ?process_assert@@YGXPBD0H@Z ; process_assert
$LN2@set_ingame:

; 212  : 
; 213  : 	set_ui_object_highlightable (obj, TRUE);

  00027	6a 01		 push	 1
  00029	8b 45 08	 mov	 eax, DWORD PTR _obj$[ebp]
  0002c	50		 push	 eax
  0002d	8b 4d 08	 mov	 ecx, DWORD PTR _obj$[ebp]
  00030	8b 11		 mov	 edx, DWORD PTR [ecx]
  00032	8b 04 95 00 00
	00 00		 mov	 eax, DWORD PTR ?fn_set_ui_object_highlightable@@3PAP6GXPAUUI_OBJECT@@H@ZA[edx*4]
  00039	ff d0		 call	 eax

; 214  : 
; 215  : 	col = &ui_ingame_live_text_colour;

  0003b	c7 45 fc 00 00
	00 00		 mov	 DWORD PTR _col$[ebp], OFFSET ?ui_ingame_live_text_colour@@3UREAL_COLOUR@@A ; ui_ingame_live_text_colour

; 216  : 	set_ui_object_font_colour (obj, col->r, col->g, col->b, col->a);

  00042	8b 45 fc	 mov	 eax, DWORD PTR _col$[ebp]
  00045	0f b6 48 03	 movzx	 ecx, BYTE PTR [eax+3]
  00049	51		 push	 ecx
  0004a	8b 55 fc	 mov	 edx, DWORD PTR _col$[ebp]
  0004d	0f b6 02	 movzx	 eax, BYTE PTR [edx]
  00050	50		 push	 eax
  00051	8b 4d fc	 mov	 ecx, DWORD PTR _col$[ebp]
  00054	0f b6 51 01	 movzx	 edx, BYTE PTR [ecx+1]
  00058	52		 push	 edx
  00059	8b 45 fc	 mov	 eax, DWORD PTR _col$[ebp]
  0005c	0f b6 48 02	 movzx	 ecx, BYTE PTR [eax+2]
  00060	51		 push	 ecx
  00061	8b 55 08	 mov	 edx, DWORD PTR _obj$[ebp]
  00064	52		 push	 edx
  00065	8b 45 08	 mov	 eax, DWORD PTR _obj$[ebp]
  00068	8b 08		 mov	 ecx, DWORD PTR [eax]
  0006a	8b 14 8d 00 00
	00 00		 mov	 edx, DWORD PTR ?fn_set_ui_object_font_colour@@3PAP6GXPAUUI_OBJECT@@DDDD@ZA[ecx*4]
  00071	ff d2		 call	 edx

; 217  : 
; 218  : 	col = &ui_ingame_highlight_text_colour;

  00073	c7 45 fc 00 00
	00 00		 mov	 DWORD PTR _col$[ebp], OFFSET ?ui_ingame_highlight_text_colour@@3UREAL_COLOUR@@A ; ui_ingame_highlight_text_colour

; 219  : 	set_ui_object_highlighted_font_colour (obj, col->r, col->g, col->b, col->a);

  0007a	8b 45 fc	 mov	 eax, DWORD PTR _col$[ebp]
  0007d	0f b6 48 03	 movzx	 ecx, BYTE PTR [eax+3]
  00081	51		 push	 ecx
  00082	8b 55 fc	 mov	 edx, DWORD PTR _col$[ebp]
  00085	0f b6 02	 movzx	 eax, BYTE PTR [edx]
  00088	50		 push	 eax
  00089	8b 4d fc	 mov	 ecx, DWORD PTR _col$[ebp]
  0008c	0f b6 51 01	 movzx	 edx, BYTE PTR [ecx+1]
  00090	52		 push	 edx
  00091	8b 45 fc	 mov	 eax, DWORD PTR _col$[ebp]
  00094	0f b6 48 02	 movzx	 ecx, BYTE PTR [eax+2]
  00098	51		 push	 ecx
  00099	8b 55 08	 mov	 edx, DWORD PTR _obj$[ebp]
  0009c	52		 push	 edx
  0009d	8b 45 08	 mov	 eax, DWORD PTR _obj$[ebp]
  000a0	8b 08		 mov	 ecx, DWORD PTR [eax]
  000a2	8b 14 8d 00 00
	00 00		 mov	 edx, DWORD PTR ?fn_set_ui_object_highlighted_font_colour@@3PAP6GXPAUUI_OBJECT@@DDDD@ZA[ecx*4]
  000a9	ff d2		 call	 edx

; 220  : 
; 221  : 	col = &ui_ingame_selected_text_colour;

  000ab	c7 45 fc 00 00
	00 00		 mov	 DWORD PTR _col$[ebp], OFFSET ?ui_ingame_selected_text_colour@@3UREAL_COLOUR@@A ; ui_ingame_selected_text_colour

; 222  : 	set_ui_object_selected_font_colour (obj, col->r, col->g, col->b, col->a);

  000b2	8b 45 fc	 mov	 eax, DWORD PTR _col$[ebp]
  000b5	0f b6 48 03	 movzx	 ecx, BYTE PTR [eax+3]
  000b9	51		 push	 ecx
  000ba	8b 55 fc	 mov	 edx, DWORD PTR _col$[ebp]
  000bd	0f b6 02	 movzx	 eax, BYTE PTR [edx]
  000c0	50		 push	 eax
  000c1	8b 4d fc	 mov	 ecx, DWORD PTR _col$[ebp]
  000c4	0f b6 51 01	 movzx	 edx, BYTE PTR [ecx+1]
  000c8	52		 push	 edx
  000c9	8b 45 fc	 mov	 eax, DWORD PTR _col$[ebp]
  000cc	0f b6 48 02	 movzx	 ecx, BYTE PTR [eax+2]
  000d0	51		 push	 ecx
  000d1	8b 55 08	 mov	 edx, DWORD PTR _obj$[ebp]
  000d4	52		 push	 edx
  000d5	8b 45 08	 mov	 eax, DWORD PTR _obj$[ebp]
  000d8	8b 08		 mov	 ecx, DWORD PTR [eax]
  000da	8b 14 8d 00 00
	00 00		 mov	 edx, DWORD PTR ?fn_set_ui_object_selected_font_colour@@3PAP6GXPAUUI_OBJECT@@DDDD@ZA[ecx*4]
  000e1	ff d2		 call	 edx

; 223  : }

  000e3	5f		 pop	 edi
  000e4	5e		 pop	 esi
  000e5	5b		 pop	 ebx
  000e6	8b e5		 mov	 esp, ebp
  000e8	5d		 pop	 ebp
  000e9	c2 04 00	 ret	 4
?set_ingame_ui_object_mouse_over_properties@@YGXPAUUI_OBJECT@@@Z ENDP ; set_ingame_ui_object_mouse_over_properties
_TEXT	ENDS
; Function compile flags: /Odtp /ZI
; File c:\users\nhv90\projects\eech\aphavoc\source\ui_menu\ingame\common\common.c
;	COMDAT ?get_ui_mouse_over_entity@@YGPAUENTITY@@XZ
_TEXT	SEGMENT
?get_ui_mouse_over_entity@@YGPAUENTITY@@XZ PROC		; get_ui_mouse_over_entity, COMDAT

; 190  : {

  00000	55		 push	 ebp
  00001	8b ec		 mov	 ebp, esp
  00003	83 ec 40	 sub	 esp, 64			; 00000040H
  00006	53		 push	 ebx
  00007	56		 push	 esi
  00008	57		 push	 edi

; 191  : 	return mouse_over_entity;

  00009	a1 00 00 00 00	 mov	 eax, DWORD PTR ?mouse_over_entity@@3PAUENTITY@@A

; 192  : }

  0000e	5f		 pop	 edi
  0000f	5e		 pop	 esi
  00010	5b		 pop	 ebx
  00011	8b e5		 mov	 esp, ebp
  00013	5d		 pop	 ebp
  00014	c3		 ret	 0
?get_ui_mouse_over_entity@@YGPAUENTITY@@XZ ENDP		; get_ui_mouse_over_entity
_TEXT	ENDS
; Function compile flags: /Odtp /ZI
; File c:\users\nhv90\projects\eech\aphavoc\source\ui_menu\ingame\common\common.c
;	COMDAT ?set_ui_mouse_over_entity@@YGXPAUENTITY@@@Z
_TEXT	SEGMENT
_en$ = 8						; size = 4
?set_ui_mouse_over_entity@@YGXPAUENTITY@@@Z PROC	; set_ui_mouse_over_entity, COMDAT

; 181  : {

  00000	55		 push	 ebp
  00001	8b ec		 mov	 ebp, esp
  00003	83 ec 40	 sub	 esp, 64			; 00000040H
  00006	53		 push	 ebx
  00007	56		 push	 esi
  00008	57		 push	 edi

; 182  : 	mouse_over_entity = en;

  00009	8b 45 08	 mov	 eax, DWORD PTR _en$[ebp]
  0000c	a3 00 00 00 00	 mov	 DWORD PTR ?mouse_over_entity@@3PAUENTITY@@A, eax

; 183  : }

  00011	5f		 pop	 edi
  00012	5e		 pop	 esi
  00013	5b		 pop	 ebx
  00014	8b e5		 mov	 esp, ebp
  00016	5d		 pop	 ebp
  00017	c2 04 00	 ret	 4
?set_ui_mouse_over_entity@@YGXPAUENTITY@@@Z ENDP	; set_ui_mouse_over_entity
_TEXT	ENDS
; Function compile flags: /Odtp /ZI
; File c:\users\nhv90\projects\eech\aphavoc\source\ui_menu\ingame\common\common.c
;	COMDAT ?ingame_screen_draw_function@@YGXPAUUI_OBJECT@@PAX@Z
_TEXT	SEGMENT
tv80 = -80						; size = 4
_en$ = -12						; size = 4
_index$ = -8						; size = 4
_mouse_over_object$ = -4				; size = 4
_obj$ = 8						; size = 4
_arg$ = 12						; size = 4
?ingame_screen_draw_function@@YGXPAUUI_OBJECT@@PAX@Z PROC ; ingame_screen_draw_function, COMDAT

; 134  : {

  00000	55		 push	 ebp
  00001	8b ec		 mov	 ebp, esp
  00003	83 ec 50	 sub	 esp, 80			; 00000050H
  00006	53		 push	 ebx
  00007	56		 push	 esi
  00008	57		 push	 edi

; 135  : 	ui_object
; 136  : 		*mouse_over_object;
; 137  : 
; 138  : 	int
; 139  : 		index;
; 140  : 
; 141  : 	entity
; 142  : 		*en;
; 143  : 
; 144  : 	//
; 145  : 	// Clear Mouse Over Entity + initialise to highlighted ui object
; 146  : 	//
; 147  : 
; 148  : 	set_ui_mouse_over_entity (NULL);

  00009	6a 00		 push	 0
  0000b	e8 00 00 00 00	 call	 ?set_ui_mouse_over_entity@@YGXPAUENTITY@@@Z ; set_ui_mouse_over_entity

; 149  : 
; 150  : 	mouse_over_object = get_current_highlighted_object ();

  00010	a1 00 00 00 00	 mov	 eax, DWORD PTR ?highlighted_object@@3PAUUI_OBJECT@@A ; highlighted_object
  00015	89 45 fc	 mov	 DWORD PTR _mouse_over_object$[ebp], eax

; 151  : 
; 152  : 	if (mouse_over_object)

  00018	83 7d fc 00	 cmp	 DWORD PTR _mouse_over_object$[ebp], 0
  0001c	74 61		 je	 SHORT $LN2@ingame_scr

; 153  : 	{
; 154  : 		if (get_ui_object_highlighted_function (mouse_over_object) == entity_mouse_over_function)

  0001e	8b 45 fc	 mov	 eax, DWORD PTR _mouse_over_object$[ebp]
  00021	50		 push	 eax
  00022	8b 4d fc	 mov	 ecx, DWORD PTR _mouse_over_object$[ebp]
  00025	8b 11		 mov	 edx, DWORD PTR [ecx]
  00027	8b 04 95 00 00
	00 00		 mov	 eax, DWORD PTR ?fn_get_ui_object_highlighted_function@@3PAP6GP6GXPAUUI_OBJECT@@PAX@Z0@ZA[edx*4]
  0002e	ff d0		 call	 eax
  00030	3d 00 00 00 00	 cmp	 eax, OFFSET ?entity_mouse_over_function@@YGXPAUUI_OBJECT@@PAX@Z ; entity_mouse_over_function
  00035	75 48		 jne	 SHORT $LN2@ingame_scr

; 155  : 		{
; 156  : 			index = get_ui_object_item_number (mouse_over_object);

  00037	8b 45 fc	 mov	 eax, DWORD PTR _mouse_over_object$[ebp]
  0003a	50		 push	 eax
  0003b	8b 4d fc	 mov	 ecx, DWORD PTR _mouse_over_object$[ebp]
  0003e	8b 11		 mov	 edx, DWORD PTR [ecx]
  00040	8b 04 95 00 00
	00 00		 mov	 eax, DWORD PTR ?fn_get_ui_object_item_number@@3PAP6GHPAUUI_OBJECT@@@ZA[edx*4]
  00047	ff d0		 call	 eax
  00049	89 45 f8	 mov	 DWORD PTR _index$[ebp], eax

; 157  : 
; 158  : 			en = get_local_entity_safe_ptr (index);

  0004c	83 7d f8 ff	 cmp	 DWORD PTR _index$[ebp], -1
  00050	74 11		 je	 SHORT $LN6@ingame_scr
  00052	8b 45 f8	 mov	 eax, DWORD PTR _index$[ebp]
  00055	c1 e0 04	 shl	 eax, 4
  00058	03 05 00 00 00
	00		 add	 eax, DWORD PTR ?entities@@3PAUENTITY@@A ; entities
  0005e	89 45 b0	 mov	 DWORD PTR tv80[ebp], eax
  00061	eb 07		 jmp	 SHORT $LN7@ingame_scr
$LN6@ingame_scr:
  00063	c7 45 b0 00 00
	00 00		 mov	 DWORD PTR tv80[ebp], 0
$LN7@ingame_scr:
  0006a	8b 4d b0	 mov	 ecx, DWORD PTR tv80[ebp]
  0006d	89 4d f4	 mov	 DWORD PTR _en$[ebp], ecx

; 159  : 
; 160  : 			if (en)

  00070	83 7d f4 00	 cmp	 DWORD PTR _en$[ebp], 0
  00074	74 09		 je	 SHORT $LN2@ingame_scr

; 161  : 			{
; 162  : 				set_ui_mouse_over_entity (en);

  00076	8b 45 f4	 mov	 eax, DWORD PTR _en$[ebp]
  00079	50		 push	 eax
  0007a	e8 00 00 00 00	 call	 ?set_ui_mouse_over_entity@@YGXPAUENTITY@@@Z ; set_ui_mouse_over_entity
$LN2@ingame_scr:

; 163  : 			}
; 164  : 		}
; 165  : 	}
; 166  : 
; 167  : 	//
; 168  : 	// Update Timers etc.
; 169  : 	//
; 170  : 
; 171  : 	update_infobar_timers ();

  0007f	e8 00 00 00 00	 call	 ?update_infobar_timers@@YGXXZ ; update_infobar_timers

; 172  : 
; 173  : 	update_map_animations ();

  00084	e8 00 00 00 00	 call	 ?update_map_animations@@YGXXZ ; update_map_animations

; 174  : }

  00089	5f		 pop	 edi
  0008a	5e		 pop	 esi
  0008b	5b		 pop	 ebx
  0008c	8b e5		 mov	 esp, ebp
  0008e	5d		 pop	 ebp
  0008f	c2 08 00	 ret	 8
?ingame_screen_draw_function@@YGXPAUUI_OBJECT@@PAX@Z ENDP ; ingame_screen_draw_function
_TEXT	ENDS
; Function compile flags: /Odtp /ZI
; File c:\users\nhv90\projects\eech\aphavoc\source\ui_menu\ingame\common\common.c
;	COMDAT ?initialise_ingame_screen@@YGXXZ
_TEXT	SEGMENT
?initialise_ingame_screen@@YGXXZ PROC			; initialise_ingame_screen, COMDAT

; 106  : {

  00000	55		 push	 ebp
  00001	8b ec		 mov	 ebp, esp
  00003	83 ec 40	 sub	 esp, 64			; 00000040H
  00006	53		 push	 ebx
  00007	56		 push	 esi
  00008	57		 push	 edi

; 107  : 	common_slider_graphic 						= create_texture_graphic ( "graphics\\ui\\cohokum\\map\\sbckmap.psd" );

  00009	68 00 00 00 00	 push	 OFFSET ??_C@_0CE@IBGODMPK@graphics?2ui?2cohokum?2map?2sbckmap@
  0000e	e8 00 00 00 00	 call	 ?create_texture_graphic@@YGPAUTEXTURE_GRAPHIC@@PBD@Z ; create_texture_graphic
  00013	a3 00 00 00 00	 mov	 DWORD PTR ?common_slider_graphic@@3PAUTEXTURE_GRAPHIC@@A, eax

; 108  : 
; 109  : 	common_slider_bar_graphic 					= create_texture_graphic ( "graphics\\ui\\cohokum\\map\\scrolprp.psd" );

  00018	68 00 00 00 00	 push	 OFFSET ??_C@_0CF@CLMABKGK@graphics?2ui?2cohokum?2map?2scrolpr@
  0001d	e8 00 00 00 00	 call	 ?create_texture_graphic@@YGPAUTEXTURE_GRAPHIC@@PBD@Z ; create_texture_graphic
  00022	a3 00 00 00 00	 mov	 DWORD PTR ?common_slider_bar_graphic@@3PAUTEXTURE_GRAPHIC@@A, eax

; 110  : 	common_slider_bar_highlighted_graphic 	= create_texture_graphic ( "graphics\\ui\\cohokum\\map\\scrolwht.psd" );

  00027	68 00 00 00 00	 push	 OFFSET ??_C@_0CF@HJDKJCOF@graphics?2ui?2cohokum?2map?2scrolwh@
  0002c	e8 00 00 00 00	 call	 ?create_texture_graphic@@YGPAUTEXTURE_GRAPHIC@@PBD@Z ; create_texture_graphic
  00031	a3 00 00 00 00	 mov	 DWORD PTR ?common_slider_bar_highlighted_graphic@@3PAUTEXTURE_GRAPHIC@@A, eax

; 111  : 	common_slider_bar_selected_graphic 		= create_texture_graphic ( "graphics\\ui\\cohokum\\map\\scrolyel.psd" );

  00036	68 00 00 00 00	 push	 OFFSET ??_C@_0CF@OCOCGBOB@graphics?2ui?2cohokum?2map?2scrolye@
  0003b	e8 00 00 00 00	 call	 ?create_texture_graphic@@YGPAUTEXTURE_GRAPHIC@@PBD@Z ; create_texture_graphic
  00040	a3 00 00 00 00	 mov	 DWORD PTR ?common_slider_bar_selected_graphic@@3PAUTEXTURE_GRAPHIC@@A, eax

; 112  : 
; 113  : 	common_slider_up_graphic 					= create_texture_graphic ( "graphics\\ui\\cohokum\\map\\arrupprp.psd" );

  00045	68 00 00 00 00	 push	 OFFSET ??_C@_0CF@BCFOAICM@graphics?2ui?2cohokum?2map?2arruppr@
  0004a	e8 00 00 00 00	 call	 ?create_texture_graphic@@YGPAUTEXTURE_GRAPHIC@@PBD@Z ; create_texture_graphic
  0004f	a3 00 00 00 00	 mov	 DWORD PTR ?common_slider_up_graphic@@3PAUTEXTURE_GRAPHIC@@A, eax

; 114  : 	common_slider_up_highlighted_graphic 	= create_texture_graphic ( "graphics\\ui\\cohokum\\map\\arrupwht.psd" );

  00054	68 00 00 00 00	 push	 OFFSET ??_C@_0CF@EAKEIAKD@graphics?2ui?2cohokum?2map?2arrupwh@
  00059	e8 00 00 00 00	 call	 ?create_texture_graphic@@YGPAUTEXTURE_GRAPHIC@@PBD@Z ; create_texture_graphic
  0005e	a3 00 00 00 00	 mov	 DWORD PTR ?common_slider_up_highlighted_graphic@@3PAUTEXTURE_GRAPHIC@@A, eax

; 115  : 	common_slider_up_selected_graphic 		= create_texture_graphic ( "graphics\\ui\\cohokum\\map\\arrupyel.psd" );

  00063	68 00 00 00 00	 push	 OFFSET ??_C@_0CF@NLHMHDKH@graphics?2ui?2cohokum?2map?2arrupye@
  00068	e8 00 00 00 00	 call	 ?create_texture_graphic@@YGPAUTEXTURE_GRAPHIC@@PBD@Z ; create_texture_graphic
  0006d	a3 00 00 00 00	 mov	 DWORD PTR ?common_slider_up_selected_graphic@@3PAUTEXTURE_GRAPHIC@@A, eax

; 116  : 
; 117  : 	common_slider_down_graphic 				= create_texture_graphic ( "graphics\\ui\\cohokum\\map\\arrdwprp.psd" );

  00072	68 00 00 00 00	 push	 OFFSET ??_C@_0CF@LOFDIPDD@graphics?2ui?2cohokum?2map?2arrdwpr@
  00077	e8 00 00 00 00	 call	 ?create_texture_graphic@@YGPAUTEXTURE_GRAPHIC@@PBD@Z ; create_texture_graphic
  0007c	a3 00 00 00 00	 mov	 DWORD PTR ?common_slider_down_graphic@@3PAUTEXTURE_GRAPHIC@@A, eax

; 118  : 	common_slider_down_highlighted_graphic = create_texture_graphic ( "graphics\\ui\\cohokum\\map\\arrdwwht.psd" );

  00081	68 00 00 00 00	 push	 OFFSET ??_C@_0CF@OMKJAHLM@graphics?2ui?2cohokum?2map?2arrdwwh@
  00086	e8 00 00 00 00	 call	 ?create_texture_graphic@@YGPAUTEXTURE_GRAPHIC@@PBD@Z ; create_texture_graphic
  0008b	a3 00 00 00 00	 mov	 DWORD PTR ?common_slider_down_highlighted_graphic@@3PAUTEXTURE_GRAPHIC@@A, eax

; 119  : 	common_slider_down_selected_graphic 	= create_texture_graphic ( "graphics\\ui\\cohokum\\map\\arrdwyel.psd" );

  00090	68 00 00 00 00	 push	 OFFSET ??_C@_0CF@HHHBPELI@graphics?2ui?2cohokum?2map?2arrdwye@
  00095	e8 00 00 00 00	 call	 ?create_texture_graphic@@YGPAUTEXTURE_GRAPHIC@@PBD@Z ; create_texture_graphic
  0009a	a3 00 00 00 00	 mov	 DWORD PTR ?common_slider_down_selected_graphic@@3PAUTEXTURE_GRAPHIC@@A, eax

; 120  : 
; 121  : 	common_divider_graphic = create_texture_graphic ( "graphics\\ui\\cohokum\\map\\divider.psd" );

  0009f	68 00 00 00 00	 push	 OFFSET ??_C@_0CE@JDHGEDNE@graphics?2ui?2cohokum?2map?2divider@
  000a4	e8 00 00 00 00	 call	 ?create_texture_graphic@@YGPAUTEXTURE_GRAPHIC@@PBD@Z ; create_texture_graphic
  000a9	a3 00 00 00 00	 mov	 DWORD PTR ?common_divider_graphic@@3PAUTEXTURE_GRAPHIC@@A, eax ; common_divider_graphic

; 122  : 	common_purple_mask = create_texture_graphic ( "graphics\\ui\\cohokum\\map\\blockprp.psd" );

  000ae	68 00 00 00 00	 push	 OFFSET ??_C@_0CF@CLPKPOMP@graphics?2ui?2cohokum?2map?2blockpr@
  000b3	e8 00 00 00 00	 call	 ?create_texture_graphic@@YGPAUTEXTURE_GRAPHIC@@PBD@Z ; create_texture_graphic
  000b8	a3 00 00 00 00	 mov	 DWORD PTR ?common_purple_mask@@3PAUTEXTURE_GRAPHIC@@A, eax ; common_purple_mask

; 123  : 	common_grey_alpha_mask = create_texture_graphic ( "graphics\\ui\\cohokum\\map\\greymask.psd" );

  000bd	68 00 00 00 00	 push	 OFFSET ??_C@_0CF@NLCILEI@graphics?2ui?2cohokum?2map?2greymas@
  000c2	e8 00 00 00 00	 call	 ?create_texture_graphic@@YGPAUTEXTURE_GRAPHIC@@PBD@Z ; create_texture_graphic
  000c7	a3 00 00 00 00	 mov	 DWORD PTR ?common_grey_alpha_mask@@3PAUTEXTURE_GRAPHIC@@A, eax ; common_grey_alpha_mask

; 124  : 	common_black_alpha_mask = create_texture_graphic ( "graphics\\ui\\cohokum\\map\\blkmask.psd" );

  000cc	68 00 00 00 00	 push	 OFFSET ??_C@_0CE@OKJHOFOB@graphics?2ui?2cohokum?2map?2blkmask@
  000d1	e8 00 00 00 00	 call	 ?create_texture_graphic@@YGPAUTEXTURE_GRAPHIC@@PBD@Z ; create_texture_graphic
  000d6	a3 00 00 00 00	 mov	 DWORD PTR ?common_black_alpha_mask@@3PAUTEXTURE_GRAPHIC@@A, eax ; common_black_alpha_mask

; 125  : 
; 126  : 	load_map_textures ();

  000db	e8 00 00 00 00	 call	 ?load_map_textures@@YGXXZ ; load_map_textures

; 127  : }

  000e0	5f		 pop	 edi
  000e1	5e		 pop	 esi
  000e2	5b		 pop	 ebx
  000e3	8b e5		 mov	 esp, ebp
  000e5	5d		 pop	 ebp
  000e6	c3		 ret	 0
?initialise_ingame_screen@@YGXXZ ENDP			; initialise_ingame_screen
_TEXT	ENDS
END
