; Listing generated by Microsoft (R) Optimizing Compiler Version 19.16.27045.0 

	TITLE	C:\Users\nhv90\Projects\eech\aphavoc\source\entity\fixed\city\ct_draw.c
	.686P
	.XMM
	include listing.inc
	.model	flat

INCLUDELIB MSVCRTD
INCLUDELIB OLDNAMES

PUBLIC	?overload_city_draw_functions@@YGXXZ		; overload_city_draw_functions
PUBLIC	?__LINE__Var@?0??draw_local_3d_object@@YGXPAUENTITY@@M@Z@4JA ; `draw_local_3d_object'::`1'::__LINE__Var
PUBLIC	??_C@_0EI@JMKLOJNC@c?3?2users?2nhv90?2projects?2eech?2ap@ ; `string'
PUBLIC	__real@3f800000
PUBLIC	__real@407f400000000000
EXTRN	_memcpy:PROC
EXTRN	?process_assert@@YGXPBD0H@Z:PROC		; process_assert
EXTRN	?get_3d_transformation_heading_matrix@@YGXQAY02MM@Z:PROC ; get_3d_transformation_heading_matrix
EXTRN	?insert_zbiased_object_into_3d_scene@@YGXW4OBJECT_3D_DRAWING_TYPES@@PAXM@Z:PROC ; insert_zbiased_object_into_3d_scene
EXTRN	?construct_temporary_3d_object@@YGPAUOBJECT_3D_INSTANCE@@HH@Z:PROC ; construct_temporary_3d_object
EXTRN	?draw_local_city_building_object@@YGXPAUENTITY@@M@Z:PROC ; draw_local_city_building_object
EXTRN	?current_3d_viewangle_distance_conversion_factor@@3MA:DWORD ; current_3d_viewangle_distance_conversion_factor
EXTRN	?object_3d_information_database@@3PAUOBJECT_3D_INFORMATION@@A:DWORD ; object_3d_information_database
EXTRN	?command_line_city_block_approximation_range@@3MA:DWORD ; command_line_city_block_approximation_range
EXTRN	?null_entity_pointer_message@@3PBDB:DWORD	; null_entity_pointer_message
EXTRN	?overload_invalid_list_type_message@@3PBDB:DWORD ; overload_invalid_list_type_message
EXTRN	?fn_get_local_entity_child_succ@@3PAY0CN@P6GPAUENTITY@@PAU1@W4LIST_TYPES@@@ZA:BYTE ; fn_get_local_entity_child_succ
EXTRN	?fn_draw_local_entity_3d_object@@3PAP6GXPAUENTITY@@M@ZA:BYTE ; fn_draw_local_entity_3d_object
EXTRN	__fltused:DWORD
;	COMDAT __real@407f400000000000
CONST	SEGMENT
__real@407f400000000000 DQ 0407f400000000000r	; 500
CONST	ENDS
;	COMDAT __real@3f800000
CONST	SEGMENT
__real@3f800000 DD 03f800000r			; 1
CONST	ENDS
;	COMDAT ??_C@_0EI@JMKLOJNC@c?3?2users?2nhv90?2projects?2eech?2ap@
CONST	SEGMENT
??_C@_0EI@JMKLOJNC@c?3?2users?2nhv90?2projects?2eech?2ap@ DB 'c:\users\nh'
	DB	'v90\projects\eech\aphavoc\source\entity\fixed\city\ct_draw.c', 00H ; `string'
CONST	ENDS
;	COMDAT ?__LINE__Var@?0??draw_local_3d_object@@YGXPAUENTITY@@M@Z@4JA
_DATA	SEGMENT
?__LINE__Var@?0??draw_local_3d_object@@YGXPAUENTITY@@M@Z@4JA DD 050H ; `draw_local_3d_object'::`1'::__LINE__Var
_DATA	ENDS
; Function compile flags: /Odtp /ZI
; File c:\users\nhv90\projects\eech\aphavoc\source\entity\fixed\city\ct_draw.c
;	COMDAT ?draw_local_3d_object@@YGXPAUENTITY@@M@Z
_TEXT	SEGMENT
tv167 = -88						; size = 4
tv159 = -84						; size = 4
_rangefactor$ = -16					; size = 4
_inst3d$ = -12						; size = 4
_building$ = -8						; size = 4
_raw$ = -4						; size = 4
_en$ = 8						; size = 4
_range$ = 12						; size = 4
?draw_local_3d_object@@YGXPAUENTITY@@M@Z PROC		; draw_local_3d_object, COMDAT

; 80   : {

  00000	55		 push	 ebp
  00001	8b ec		 mov	 ebp, esp
  00003	83 ec 58	 sub	 esp, 88			; 00000058H
  00006	53		 push	 ebx
  00007	56		 push	 esi
  00008	57		 push	 edi

; 81   : 	city
; 82   : 		*raw;
; 83   : 
; 84   : 	entity
; 85   : 		*building;
; 86   : 
; 87   : 	object_3d_instance
; 88   : 		*inst3d;
; 89   : 		
; 90   : 	float rangefactor; //Werewolf 16Apr03
; 91   : 
; 92   : 	raw = (city *) get_local_entity_data (en);

  00009	8b 45 08	 mov	 eax, DWORD PTR _en$[ebp]
  0000c	8b 48 04	 mov	 ecx, DWORD PTR [eax+4]
  0000f	89 4d fc	 mov	 DWORD PTR _raw$[ebp], ecx

; 93   : 
; 94   : 	//
; 95   : 	// Draw all city buildings
; 96   : 	//
; 97   : 
; 98   : 	range *= current_3d_viewangle_distance_conversion_factor;

  00012	f3 0f 10 45 0c	 movss	 xmm0, DWORD PTR _range$[ebp]
  00017	f3 0f 59 05 00
	00 00 00	 mulss	 xmm0, DWORD PTR ?current_3d_viewangle_distance_conversion_factor@@3MA
  0001f	f3 0f 11 45 0c	 movss	 DWORD PTR _range$[ebp], xmm0

; 99   : 	
; 100  : 	//Werewolf 16Apr03
; 101  : 	//rangefactor is 1 for default cbar value
; 102  : 	rangefactor = (command_line_city_block_approximation_range / 500.0);

  00024	f3 0f 5a 05 00
	00 00 00	 cvtss2sd xmm0, DWORD PTR ?command_line_city_block_approximation_range@@3MA
  0002c	f2 0f 5e 05 00
	00 00 00	 divsd	 xmm0, QWORD PTR __real@407f400000000000
  00034	f2 0f 5a c0	 cvtsd2ss xmm0, xmm0
  00038	f3 0f 11 45 f0	 movss	 DWORD PTR _rangefactor$[ebp], xmm0

; 103  : 
; 104  : 	if ((range < command_line_city_block_approximation_range * METRE * rangefactor) || (raw->approximation_object_3d_shape == OBJECT_3D_INVALID_OBJECT_INDEX))

  0003d	f3 0f 10 05 00
	00 00 00	 movss	 xmm0, DWORD PTR ?command_line_city_block_approximation_range@@3MA
  00045	f3 0f 59 05 00
	00 00 00	 mulss	 xmm0, DWORD PTR __real@3f800000
  0004d	f3 0f 59 45 f0	 mulss	 xmm0, DWORD PTR _rangefactor$[ebp]
  00052	0f 2f 45 0c	 comiss	 xmm0, DWORD PTR _range$[ebp]
  00056	77 12		 ja	 SHORT $LN6@draw_local
  00058	8b 45 fc	 mov	 eax, DWORD PTR _raw$[ebp]
  0005b	8b 48 5c	 mov	 ecx, DWORD PTR [eax+92]
  0005e	81 e1 ff 0f 00
	00		 and	 ecx, 4095		; 00000fffH
  00064	0f 85 5e 01 00
	00		 jne	 $LN4@draw_local
$LN6@draw_local:

; 105  : 	{
; 106  : 
; 107  : 		if ( raw->fix.object_3d_shape != OBJECT_3D_INVALID_OBJECT_INDEX )

  0006a	8b 45 fc	 mov	 eax, DWORD PTR _raw$[ebp]
  0006d	8b 48 38	 mov	 ecx, DWORD PTR [eax+56]
  00070	c1 e9 08	 shr	 ecx, 8
  00073	81 e1 ff 0f 00
	00		 and	 ecx, 4095		; 00000fffH
  00079	0f 84 98 00 00
	00		 je	 $LN9@draw_local

; 108  : 		{
; 109  : 
; 110  : 			if ( range < object_3d_information_database[raw->fix.object_3d_shape].maximum_distance*rangefactor )

  0007f	8b 45 fc	 mov	 eax, DWORD PTR _raw$[ebp]
  00082	8b 48 38	 mov	 ecx, DWORD PTR [eax+56]
  00085	c1 e9 08	 shr	 ecx, 8
  00088	81 e1 ff 0f 00
	00		 and	 ecx, 4095		; 00000fffH
  0008e	8b 15 00 00 00
	00		 mov	 edx, DWORD PTR ?object_3d_information_database@@3PAUOBJECT_3D_INFORMATION@@A ; object_3d_information_database
  00094	f3 0f 10 44 ca
	04		 movss	 xmm0, DWORD PTR [edx+ecx*8+4]
  0009a	f3 0f 59 45 f0	 mulss	 xmm0, DWORD PTR _rangefactor$[ebp]
  0009f	0f 2f 45 0c	 comiss	 xmm0, DWORD PTR _range$[ebp]
  000a3	76 72		 jbe	 SHORT $LN9@draw_local

; 111  : 			{
; 112  : 		
; 113  : 				inst3d = construct_temporary_3d_object (raw->fix.object_3d_shape, FALSE);

  000a5	6a 00		 push	 0
  000a7	8b 45 fc	 mov	 eax, DWORD PTR _raw$[ebp]
  000aa	8b 48 38	 mov	 ecx, DWORD PTR [eax+56]
  000ad	c1 e9 08	 shr	 ecx, 8
  000b0	81 e1 ff 0f 00
	00		 and	 ecx, 4095		; 00000fffH
  000b6	51		 push	 ecx
  000b7	e8 00 00 00 00	 call	 ?construct_temporary_3d_object@@YGPAUOBJECT_3D_INSTANCE@@HH@Z ; construct_temporary_3d_object
  000bc	89 45 f4	 mov	 DWORD PTR _inst3d$[ebp], eax

; 114  : 		
; 115  : 				if (inst3d)

  000bf	83 7d f4 00	 cmp	 DWORD PTR _inst3d$[ebp], 0
  000c3	74 52		 je	 SHORT $LN9@draw_local

; 116  : 				{
; 117  : 		
; 118  : 					memcpy (&inst3d->vp.position, &raw->fix.position, sizeof (vec3d));

  000c5	6a 0c		 push	 12			; 0000000cH
  000c7	8b 45 fc	 mov	 eax, DWORD PTR _raw$[ebp]
  000ca	50		 push	 eax
  000cb	8b 4d f4	 mov	 ecx, DWORD PTR _inst3d$[ebp]
  000ce	83 c1 08	 add	 ecx, 8
  000d1	51		 push	 ecx
  000d2	e8 00 00 00 00	 call	 _memcpy
  000d7	83 c4 0c	 add	 esp, 12			; 0000000cH

; 119  : 		
; 120  : 					get_3d_transformation_heading_matrix (inst3d->vp.attitude, raw->fix.heading);

  000da	8b 45 fc	 mov	 eax, DWORD PTR _raw$[ebp]
  000dd	51		 push	 ecx
  000de	f3 0f 10 40 3c	 movss	 xmm0, DWORD PTR [eax+60]
  000e3	f3 0f 11 04 24	 movss	 DWORD PTR [esp], xmm0
  000e8	8b 4d f4	 mov	 ecx, DWORD PTR _inst3d$[ebp]
  000eb	83 c1 14	 add	 ecx, 20			; 00000014H
  000ee	51		 push	 ecx
  000ef	e8 00 00 00 00	 call	 ?get_3d_transformation_heading_matrix@@YGXQAY02MM@Z ; get_3d_transformation_heading_matrix

; 121  : 		
; 122  : 					inst3d->object_has_shadow = FALSE;

  000f4	8b 45 f4	 mov	 eax, DWORD PTR _inst3d$[ebp]
  000f7	8b 48 50	 mov	 ecx, DWORD PTR [eax+80]
  000fa	83 e1 fb	 and	 ecx, -5			; fffffffbH
  000fd	8b 55 f4	 mov	 edx, DWORD PTR _inst3d$[ebp]
  00100	89 4a 50	 mov	 DWORD PTR [edx+80], ecx

; 123  : 		
; 124  : 					insert_object_into_3d_scene (OBJECT_3D_DRAW_TYPE_OBJECT, inst3d);

  00103	51		 push	 ecx
  00104	0f 57 c0	 xorps	 xmm0, xmm0
  00107	f3 0f 11 04 24	 movss	 DWORD PTR [esp], xmm0
  0010c	8b 45 f4	 mov	 eax, DWORD PTR _inst3d$[ebp]
  0010f	50		 push	 eax
  00110	6a 01		 push	 1
  00112	e8 00 00 00 00	 call	 ?insert_zbiased_object_into_3d_scene@@YGXW4OBJECT_3D_DRAWING_TYPES@@PAXM@Z ; insert_zbiased_object_into_3d_scene
$LN9@draw_local:

; 125  : 				}
; 126  : 			}
; 127  : 		}
; 128  : 
; 129  : 		building = raw->city_building_root.first_child;

  00117	8b 45 fc	 mov	 eax, DWORD PTR _raw$[ebp]
  0011a	8b 48 40	 mov	 ecx, DWORD PTR [eax+64]
  0011d	89 4d f8	 mov	 DWORD PTR _building$[ebp], ecx
$LN2@draw_local:

; 130  : 	
; 131  : 		while (building)

  00120	83 7d f8 00	 cmp	 DWORD PTR _building$[ebp], 0
  00124	0f 84 99 00 00
	00		 je	 $LN3@draw_local

; 132  : 		{
; 133  : 	
; 134  : 			draw_local_city_building_object (building, range);

  0012a	51		 push	 ecx
  0012b	f3 0f 10 45 0c	 movss	 xmm0, DWORD PTR _range$[ebp]
  00130	f3 0f 11 04 24	 movss	 DWORD PTR [esp], xmm0
  00135	8b 45 f8	 mov	 eax, DWORD PTR _building$[ebp]
  00138	50		 push	 eax
  00139	e8 00 00 00 00	 call	 ?draw_local_city_building_object@@YGXPAUENTITY@@M@Z ; draw_local_city_building_object

; 135  : 	
; 136  : 			building = get_local_entity_child_succ (building, LIST_TYPE_CITY_BUILDING);

  0013e	83 7d f8 00	 cmp	 DWORD PTR _building$[ebp], 0
  00142	74 0a		 je	 SHORT $LN13@draw_local
  00144	8b 45 f8	 mov	 eax, DWORD PTR _building$[ebp]
  00147	8b 08		 mov	 ecx, DWORD PTR [eax]
  00149	89 4d ac	 mov	 DWORD PTR tv159[ebp], ecx
  0014c	eb 21		 jmp	 SHORT $LN14@draw_local
$LN13@draw_local:
  0014e	8b 15 00 00 00
	00		 mov	 edx, DWORD PTR ?__LINE__Var@?0??draw_local_3d_object@@YGXPAUENTITY@@M@Z@4JA
  00154	83 c2 38	 add	 edx, 56			; 00000038H
  00157	52		 push	 edx
  00158	68 00 00 00 00	 push	 OFFSET ??_C@_0EI@JMKLOJNC@c?3?2users?2nhv90?2projects?2eech?2ap@
  0015d	a1 00 00 00 00	 mov	 eax, DWORD PTR ?null_entity_pointer_message@@3PBDB ; null_entity_pointer_message
  00162	50		 push	 eax
  00163	e8 00 00 00 00	 call	 ?process_assert@@YGXPBD0H@Z ; process_assert
  00168	c7 45 ac 00 00
	00 00		 mov	 DWORD PTR tv159[ebp], 0
$LN14@draw_local:
  0016f	b9 01 00 00 00	 mov	 ecx, 1
  00174	85 c9		 test	 ecx, ecx
  00176	74 09		 je	 SHORT $LN15@draw_local
  00178	c7 45 a8 07 00
	00 00		 mov	 DWORD PTR tv167[ebp], 7
  0017f	eb 21		 jmp	 SHORT $LN16@draw_local
$LN15@draw_local:
  00181	8b 15 00 00 00
	00		 mov	 edx, DWORD PTR ?__LINE__Var@?0??draw_local_3d_object@@YGXPAUENTITY@@M@Z@4JA
  00187	83 c2 38	 add	 edx, 56			; 00000038H
  0018a	52		 push	 edx
  0018b	68 00 00 00 00	 push	 OFFSET ??_C@_0EI@JMKLOJNC@c?3?2users?2nhv90?2projects?2eech?2ap@
  00190	a1 00 00 00 00	 mov	 eax, DWORD PTR ?overload_invalid_list_type_message@@3PBDB ; overload_invalid_list_type_message
  00195	50		 push	 eax
  00196	e8 00 00 00 00	 call	 ?process_assert@@YGXPBD0H@Z ; process_assert
  0019b	c7 45 a8 00 00
	00 00		 mov	 DWORD PTR tv167[ebp], 0
$LN16@draw_local:
  001a2	6a 07		 push	 7
  001a4	8b 4d f8	 mov	 ecx, DWORD PTR _building$[ebp]
  001a7	51		 push	 ecx
  001a8	69 55 ac b4 00
	00 00		 imul	 edx, DWORD PTR tv159[ebp], 180
  001af	8b 45 a8	 mov	 eax, DWORD PTR tv167[ebp]
  001b2	8b 8c 82 00 00
	00 00		 mov	 ecx, DWORD PTR ?fn_get_local_entity_child_succ@@3PAY0CN@P6GPAUENTITY@@PAU1@W4LIST_TYPES@@@ZA[edx+eax*4]
  001b9	ff d1		 call	 ecx
  001bb	89 45 f8	 mov	 DWORD PTR _building$[ebp], eax

; 137  : 		}

  001be	e9 5d ff ff ff	 jmp	 $LN2@draw_local
$LN3@draw_local:

; 138  : 	}
; 139  : 	else

  001c3	e9 8b 00 00 00	 jmp	 $LN11@draw_local
$LN4@draw_local:

; 140  : 	{
; 141  : 	
; 142  : 		//
; 143  : 		// Draw approximation object
; 144  : 		//
; 145  : 	
; 146  : 		if ((raw->fix.alive) && (raw->approximation_object_3d_shape != OBJECT_3D_INVALID_OBJECT_INDEX))

  001c8	8b 45 fc	 mov	 eax, DWORD PTR _raw$[ebp]
  001cb	8b 48 38	 mov	 ecx, DWORD PTR [eax+56]
  001ce	c1 e9 14	 shr	 ecx, 20			; 00000014H
  001d1	83 e1 01	 and	 ecx, 1
  001d4	74 7d		 je	 SHORT $LN11@draw_local
  001d6	8b 45 fc	 mov	 eax, DWORD PTR _raw$[ebp]
  001d9	8b 48 5c	 mov	 ecx, DWORD PTR [eax+92]
  001dc	81 e1 ff 0f 00
	00		 and	 ecx, 4095		; 00000fffH
  001e2	74 6f		 je	 SHORT $LN11@draw_local

; 147  : 		{
; 148  : 
; 149  : //			if ( range < object_3d_information_database[raw->approximation_object_3d_shape].maximum_distance )
; 150  : 			{
; 151  : 	
; 152  : 				inst3d = construct_temporary_3d_object (raw->approximation_object_3d_shape, FALSE);

  001e4	6a 00		 push	 0
  001e6	8b 45 fc	 mov	 eax, DWORD PTR _raw$[ebp]
  001e9	8b 48 5c	 mov	 ecx, DWORD PTR [eax+92]
  001ec	81 e1 ff 0f 00
	00		 and	 ecx, 4095		; 00000fffH
  001f2	51		 push	 ecx
  001f3	e8 00 00 00 00	 call	 ?construct_temporary_3d_object@@YGPAUOBJECT_3D_INSTANCE@@HH@Z ; construct_temporary_3d_object
  001f8	89 45 f4	 mov	 DWORD PTR _inst3d$[ebp], eax

; 153  : 		
; 154  : 				if (inst3d)

  001fb	83 7d f4 00	 cmp	 DWORD PTR _inst3d$[ebp], 0
  001ff	74 52		 je	 SHORT $LN11@draw_local

; 155  : 				{
; 156  : 	
; 157  : 					memcpy (&inst3d->vp.position, &raw->fix.position, sizeof (vec3d));

  00201	6a 0c		 push	 12			; 0000000cH
  00203	8b 45 fc	 mov	 eax, DWORD PTR _raw$[ebp]
  00206	50		 push	 eax
  00207	8b 4d f4	 mov	 ecx, DWORD PTR _inst3d$[ebp]
  0020a	83 c1 08	 add	 ecx, 8
  0020d	51		 push	 ecx
  0020e	e8 00 00 00 00	 call	 _memcpy
  00213	83 c4 0c	 add	 esp, 12			; 0000000cH

; 158  : 		
; 159  : 					get_3d_transformation_heading_matrix (inst3d->vp.attitude, raw->fix.heading);

  00216	8b 45 fc	 mov	 eax, DWORD PTR _raw$[ebp]
  00219	51		 push	 ecx
  0021a	f3 0f 10 40 3c	 movss	 xmm0, DWORD PTR [eax+60]
  0021f	f3 0f 11 04 24	 movss	 DWORD PTR [esp], xmm0
  00224	8b 4d f4	 mov	 ecx, DWORD PTR _inst3d$[ebp]
  00227	83 c1 14	 add	 ecx, 20			; 00000014H
  0022a	51		 push	 ecx
  0022b	e8 00 00 00 00	 call	 ?get_3d_transformation_heading_matrix@@YGXQAY02MM@Z ; get_3d_transformation_heading_matrix

; 160  : 		
; 161  : 					inst3d->object_has_shadow = FALSE;

  00230	8b 45 f4	 mov	 eax, DWORD PTR _inst3d$[ebp]
  00233	8b 48 50	 mov	 ecx, DWORD PTR [eax+80]
  00236	83 e1 fb	 and	 ecx, -5			; fffffffbH
  00239	8b 55 f4	 mov	 edx, DWORD PTR _inst3d$[ebp]
  0023c	89 4a 50	 mov	 DWORD PTR [edx+80], ecx

; 162  : 		
; 163  : 					insert_object_into_3d_scene (OBJECT_3D_DRAW_TYPE_OBJECT, inst3d);

  0023f	51		 push	 ecx
  00240	0f 57 c0	 xorps	 xmm0, xmm0
  00243	f3 0f 11 04 24	 movss	 DWORD PTR [esp], xmm0
  00248	8b 45 f4	 mov	 eax, DWORD PTR _inst3d$[ebp]
  0024b	50		 push	 eax
  0024c	6a 01		 push	 1
  0024e	e8 00 00 00 00	 call	 ?insert_zbiased_object_into_3d_scene@@YGXW4OBJECT_3D_DRAWING_TYPES@@PAXM@Z ; insert_zbiased_object_into_3d_scene
$LN11@draw_local:

; 164  : 				}
; 165  : 			}
; 166  : 		}
; 167  : 	}
; 168  : }

  00253	5f		 pop	 edi
  00254	5e		 pop	 esi
  00255	5b		 pop	 ebx
  00256	8b e5		 mov	 esp, ebp
  00258	5d		 pop	 ebp
  00259	c2 08 00	 ret	 8
?draw_local_3d_object@@YGXPAUENTITY@@M@Z ENDP		; draw_local_3d_object
_TEXT	ENDS
; Function compile flags: /Odtp /ZI
; File c:\users\nhv90\projects\eech\aphavoc\source\entity\fixed\city\ct_draw.c
;	COMDAT ?overload_city_draw_functions@@YGXXZ
_TEXT	SEGMENT
?overload_city_draw_functions@@YGXXZ PROC		; overload_city_draw_functions, COMDAT

; 261  : {

  00000	55		 push	 ebp
  00001	8b ec		 mov	 ebp, esp
  00003	83 ec 40	 sub	 esp, 64			; 00000040H
  00006	53		 push	 ebx
  00007	56		 push	 esi
  00008	57		 push	 edi

; 262  : 	fn_draw_local_entity_3d_object[ENTITY_TYPE_CITY]	= draw_local_3d_object;

  00009	b8 04 00 00 00	 mov	 eax, 4
  0000e	6b c8 05	 imul	 ecx, eax, 5
  00011	c7 81 00 00 00
	00 00 00 00 00	 mov	 DWORD PTR ?fn_draw_local_entity_3d_object@@3PAP6GXPAUENTITY@@M@ZA[ecx], OFFSET ?draw_local_3d_object@@YGXPAUENTITY@@M@Z ; draw_local_3d_object

; 263  : 
; 264  : 	//fn_draw_local_entity_2d_symbol[ENTITY_TYPE_CITY]	= draw_local_2d_symbol;
; 265  : }

  0001b	5f		 pop	 edi
  0001c	5e		 pop	 esi
  0001d	5b		 pop	 ebx
  0001e	8b e5		 mov	 esp, ebp
  00020	5d		 pop	 ebp
  00021	c3		 ret	 0
?overload_city_draw_functions@@YGXXZ ENDP		; overload_city_draw_functions
_TEXT	ENDS
END
