; Listing generated by Microsoft (R) Optimizing Compiler Version 19.16.27045.0 

	TITLE	C:\Users\nhv90\Projects\eech\aphavoc\source\entity\fixed\city\ct_float.c
	.686P
	.XMM
	include listing.inc
	.model	flat

INCLUDELIB MSVCRTD
INCLUDELIB OLDNAMES

PUBLIC	?overload_city_float_value_functions@@YGXXZ	; overload_city_float_value_functions
PUBLIC	?__LINE__Var@?0??set_local_float_value@@YGXPAUENTITY@@W4FLOAT_TYPES@@M@Z@4JA ; `set_local_float_value'::`1'::__LINE__Var
PUBLIC	??_C@_0EJ@FKANDCJM@c?3?2users?2nhv90?2projects?2eech?2ap@ ; `string'
PUBLIC	?__LINE__Var@?0??set_server_float_value@@YGXPAUENTITY@@W4FLOAT_TYPES@@M@Z@4JA ; `set_server_float_value'::`1'::__LINE__Var
PUBLIC	??_C@_0CB@CFOCLFOK@assert_client_server_local_fn?5?$CI@ ; `string'
PUBLIC	??_C@_0CC@BNNNEGEG@assert_client_server_remote_fn?5@ ; `string'
PUBLIC	?__LINE__Var@?0??set_client_float_value@@YGXPAUENTITY@@W4FLOAT_TYPES@@M@Z@4JA ; `set_client_float_value'::`1'::__LINE__Var
PUBLIC	?__LINE__Var@?0??get_local_float_value@@YGMPAUENTITY@@W4FLOAT_TYPES@@@Z@4JA ; `get_local_float_value'::`1'::__LINE__Var
PUBLIC	??_C@_03OJGPBPII@env@				; `string'
EXTRN	?process_assert@@YGXPBD0H@Z:PROC		; process_assert
EXTRN	?debug_fatal@@YAXPBDZZ:PROC			; debug_fatal
EXTRN	?get_3d_active_environment@@YGPAUENV_3D@@XZ:PROC ; get_3d_active_environment
EXTRN	?get_3d_view_distances@@YGXPAUENV_3D@@PAM1@Z:PROC ; get_3d_view_distances
EXTRN	?transmit_entity_comms_message@@YAXW4ENTITY_COMMS_MESSAGES@@PAUENTITY@@ZZ:PROC ; transmit_entity_comms_message
EXTRN	?assert_client_server_local_fn@@YGHXZ:PROC	; assert_client_server_local_fn
EXTRN	?assert_client_server_remote_fn@@YGHXZ:PROC	; assert_client_server_remote_fn
EXTRN	?null_entity_pointer_message@@3PBDB:DWORD	; null_entity_pointer_message
EXTRN	?entity_type_database@@3PAUENTITY_TYPE_DATA@@A:BYTE ; entity_type_database
EXTRN	?system_comms_data_flow@@3W4COMMS_DATA_FLOW_TYPES@@A:DWORD ; system_comms_data_flow
EXTRN	?float_type_database@@3PAUFLOAT_TYPE_DATA@@A:BYTE ; float_type_database
EXTRN	?debug_fatal_invalid_float_type_message@@3PBDB:DWORD ; debug_fatal_invalid_float_type_message
EXTRN	?fn_set_local_entity_raw_float_value@@3PAY0KP@P6GXPAUENTITY@@W4FLOAT_TYPES@@M@ZA:BYTE ; fn_set_local_entity_raw_float_value
EXTRN	?fn_set_local_entity_float_value@@3PAY0KP@P6GXPAUENTITY@@W4FLOAT_TYPES@@M@ZA:BYTE ; fn_set_local_entity_float_value
EXTRN	?fn_set_client_server_entity_float_value@@3PAY1KP@1P6GXPAUENTITY@@W4FLOAT_TYPES@@M@ZA:BYTE ; fn_set_client_server_entity_float_value
EXTRN	?fn_get_local_entity_float_value@@3PAY0KP@P6GMPAUENTITY@@W4FLOAT_TYPES@@@ZA:BYTE ; fn_get_local_entity_float_value
EXTRN	?entities@@3PAUENTITY@@A:DWORD			; entities
EXTRN	__fltused:DWORD
;	COMDAT ??_C@_03OJGPBPII@env@
CONST	SEGMENT
??_C@_03OJGPBPII@env@ DB 'env', 00H			; `string'
CONST	ENDS
;	COMDAT ?__LINE__Var@?0??get_local_float_value@@YGMPAUENTITY@@W4FLOAT_TYPES@@@Z@4JA
_DATA	SEGMENT
?__LINE__Var@?0??get_local_float_value@@YGMPAUENTITY@@W4FLOAT_TYPES@@@Z@4JA DD 0baH ; `get_local_float_value'::`1'::__LINE__Var
_DATA	ENDS
;	COMDAT ?__LINE__Var@?0??set_client_float_value@@YGXPAUENTITY@@W4FLOAT_TYPES@@M@Z@4JA
_DATA	SEGMENT
?__LINE__Var@?0??set_client_float_value@@YGXPAUENTITY@@W4FLOAT_TYPES@@M@Z@4JA DD 0a2H ; `set_client_float_value'::`1'::__LINE__Var
_DATA	ENDS
;	COMDAT ??_C@_0CC@BNNNEGEG@assert_client_server_remote_fn?5@
CONST	SEGMENT
??_C@_0CC@BNNNEGEG@assert_client_server_remote_fn?5@ DB 'assert_client_se'
	DB	'rver_remote_fn ()', 00H			; `string'
CONST	ENDS
;	COMDAT ??_C@_0CB@CFOCLFOK@assert_client_server_local_fn?5?$CI@
CONST	SEGMENT
??_C@_0CB@CFOCLFOK@assert_client_server_local_fn?5?$CI@ DB 'assert_client'
	DB	'_server_local_fn ()', 00H			; `string'
CONST	ENDS
;	COMDAT ?__LINE__Var@?0??set_server_float_value@@YGXPAUENTITY@@W4FLOAT_TYPES@@M@Z@4JA
_DATA	SEGMENT
?__LINE__Var@?0??set_server_float_value@@YGXPAUENTITY@@W4FLOAT_TYPES@@M@Z@4JA DD 08fH ; `set_server_float_value'::`1'::__LINE__Var
_DATA	ENDS
;	COMDAT ??_C@_0EJ@FKANDCJM@c?3?2users?2nhv90?2projects?2eech?2ap@
CONST	SEGMENT
??_C@_0EJ@FKANDCJM@c?3?2users?2nhv90?2projects?2eech?2ap@ DB 'c:\users\nh'
	DB	'v90\projects\eech\aphavoc\source\entity\fixed\city\ct_float.c'
	DB	00H						; `string'
CONST	ENDS
;	COMDAT ?__LINE__Var@?0??set_local_float_value@@YGXPAUENTITY@@W4FLOAT_TYPES@@M@Z@4JA
_DATA	SEGMENT
?__LINE__Var@?0??set_local_float_value@@YGXPAUENTITY@@W4FLOAT_TYPES@@M@Z@4JA DD 05aH ; `set_local_float_value'::`1'::__LINE__Var
_DATA	ENDS
; Function compile flags: /Odtp /ZI
; File c:\users\nhv90\projects\eech\aphavoc\source\entity\fixed\city\ct_float.c
;	COMDAT ?get_local_float_value@@YGMPAUENTITY@@W4FLOAT_TYPES@@@Z
_TEXT	SEGMENT
tv91 = -88						; size = 4
tv65 = -88						; size = 4
_hither$1 = -20						; size = 4
_yonder$2 = -16						; size = 4
_env$3 = -12						; size = 4
_value$ = -8						; size = 4
_raw$ = -4						; size = 4
_en$ = 8						; size = 4
_type$ = 12						; size = 4
?get_local_float_value@@YGMPAUENTITY@@W4FLOAT_TYPES@@@Z PROC ; get_local_float_value, COMDAT

; 186  : {

  00000	55		 push	 ebp
  00001	8b ec		 mov	 ebp, esp
  00003	83 ec 58	 sub	 esp, 88			; 00000058H
  00006	53		 push	 ebx
  00007	56		 push	 esi
  00008	57		 push	 edi

; 187  : 	city
; 188  : 		*raw;
; 189  : 
; 190  : 	float
; 191  : 		value;
; 192  : 
; 193  : 	raw = (city *) get_local_entity_data (en);

  00009	8b 45 08	 mov	 eax, DWORD PTR _en$[ebp]
  0000c	8b 48 04	 mov	 ecx, DWORD PTR [eax+4]
  0000f	89 4d fc	 mov	 DWORD PTR _raw$[ebp], ecx

; 194  : 
; 195  : 	switch (type)

  00012	8b 45 0c	 mov	 eax, DWORD PTR _type$[ebp]
  00015	89 45 a8	 mov	 DWORD PTR tv65[ebp], eax
  00018	83 7d a8 4b	 cmp	 DWORD PTR tv65[ebp], 75	; 0000004bH
  0001c	74 02		 je	 SHORT $LN4@get_local_
  0001e	eb 43		 jmp	 SHORT $LN6@get_local_
$LN4@get_local_:

; 196  : 	{
; 197  : 		////////////////////////////////////////
; 198  : 		case FLOAT_TYPE_MAX_3D_OBJECT_VISUAL_RANGE:
; 199  : 		////////////////////////////////////////
; 200  : 		{
; 201  : 			env_3d
; 202  : 				*env;
; 203  : 
; 204  : 			float
; 205  : 				yonder,
; 206  : 				hither;
; 207  : 
; 208  : 			env = get_3d_active_environment ();

  00020	e8 00 00 00 00	 call	 ?get_3d_active_environment@@YGPAUENV_3D@@XZ ; get_3d_active_environment
  00025	89 45 f4	 mov	 DWORD PTR _env$3[ebp], eax

; 209  : 
; 210  : 			ASSERT (env);

  00028	83 7d f4 00	 cmp	 DWORD PTR _env$3[ebp], 0
  0002c	75 18		 jne	 SHORT $LN5@get_local_
  0002e	a1 00 00 00 00	 mov	 eax, DWORD PTR ?__LINE__Var@?0??get_local_float_value@@YGMPAUENTITY@@W4FLOAT_TYPES@@@Z@4JA
  00033	83 c0 18	 add	 eax, 24			; 00000018H
  00036	50		 push	 eax
  00037	68 00 00 00 00	 push	 OFFSET ??_C@_0EJ@FKANDCJM@c?3?2users?2nhv90?2projects?2eech?2ap@
  0003c	68 00 00 00 00	 push	 OFFSET ??_C@_03OJGPBPII@env@
  00041	e8 00 00 00 00	 call	 ?process_assert@@YGXPBD0H@Z ; process_assert
$LN5@get_local_:

; 211  : 
; 212  : 			get_3d_view_distances (env, &yonder, &hither);

  00046	8d 45 ec	 lea	 eax, DWORD PTR _hither$1[ebp]
  00049	50		 push	 eax
  0004a	8d 4d f0	 lea	 ecx, DWORD PTR _yonder$2[ebp]
  0004d	51		 push	 ecx
  0004e	8b 55 f4	 mov	 edx, DWORD PTR _env$3[ebp]
  00051	52		 push	 edx
  00052	e8 00 00 00 00	 call	 ?get_3d_view_distances@@YGXPAUENV_3D@@PAM1@Z ; get_3d_view_distances

; 213  : 
; 214  : 			value = yonder;

  00057	f3 0f 10 45 f0	 movss	 xmm0, DWORD PTR _yonder$2[ebp]
  0005c	f3 0f 11 45 f8	 movss	 DWORD PTR _value$[ebp], xmm0

; 215  : 
; 216  : 			break;

  00061	eb 72		 jmp	 SHORT $LN2@get_local_
$LN6@get_local_:

; 217  : 		}
; 218  : 		////////////////////////////////////////
; 219  : 		default:
; 220  : 		////////////////////////////////////////
; 221  : 		{
; 222  : 			debug_fatal_invalid_float_type (en, type);

  00063	83 7d 08 00	 cmp	 DWORD PTR _en$[ebp], 0
  00067	74 0a		 je	 SHORT $LN8@get_local_
  00069	8b 45 08	 mov	 eax, DWORD PTR _en$[ebp]
  0006c	8b 08		 mov	 ecx, DWORD PTR [eax]
  0006e	89 4d a8	 mov	 DWORD PTR tv91[ebp], ecx
  00071	eb 21		 jmp	 SHORT $LN9@get_local_
$LN8@get_local_:
  00073	8b 15 00 00 00
	00		 mov	 edx, DWORD PTR ?__LINE__Var@?0??get_local_float_value@@YGMPAUENTITY@@W4FLOAT_TYPES@@@Z@4JA
  00079	83 c2 24	 add	 edx, 36			; 00000024H
  0007c	52		 push	 edx
  0007d	68 00 00 00 00	 push	 OFFSET ??_C@_0EJ@FKANDCJM@c?3?2users?2nhv90?2projects?2eech?2ap@
  00082	a1 00 00 00 00	 mov	 eax, DWORD PTR ?null_entity_pointer_message@@3PBDB ; null_entity_pointer_message
  00087	50		 push	 eax
  00088	e8 00 00 00 00	 call	 ?process_assert@@YGXPBD0H@Z ; process_assert
  0008d	c7 45 a8 00 00
	00 00		 mov	 DWORD PTR tv91[ebp], 0
$LN9@get_local_:
  00094	8b 0d 00 00 00
	00		 mov	 ecx, DWORD PTR ?__LINE__Var@?0??get_local_float_value@@YGMPAUENTITY@@W4FLOAT_TYPES@@@Z@4JA
  0009a	83 c1 24	 add	 ecx, 36			; 00000024H
  0009d	51		 push	 ecx
  0009e	68 00 00 00 00	 push	 OFFSET ??_C@_0EJ@FKANDCJM@c?3?2users?2nhv90?2projects?2eech?2ap@
  000a3	6b 55 0c 18	 imul	 edx, DWORD PTR _type$[ebp], 24
  000a7	8b 82 00 00 00
	00		 mov	 eax, DWORD PTR ?float_type_database@@3PAUFLOAT_TYPE_DATA@@A[edx]
  000ad	50		 push	 eax
  000ae	8b 4d 08	 mov	 ecx, DWORD PTR _en$[ebp]
  000b1	2b 0d 00 00 00
	00		 sub	 ecx, DWORD PTR ?entities@@3PAUENTITY@@A ; entities
  000b7	c1 f9 04	 sar	 ecx, 4
  000ba	51		 push	 ecx
  000bb	6b 55 a8 0c	 imul	 edx, DWORD PTR tv91[ebp], 12
  000bf	8b 82 00 00 00
	00		 mov	 eax, DWORD PTR ?entity_type_database@@3PAUENTITY_TYPE_DATA@@A[edx]
  000c5	50		 push	 eax
  000c6	8b 0d 00 00 00
	00		 mov	 ecx, DWORD PTR ?debug_fatal_invalid_float_type_message@@3PBDB ; debug_fatal_invalid_float_type_message
  000cc	51		 push	 ecx
  000cd	e8 00 00 00 00	 call	 ?debug_fatal@@YAXPBDZZ	; debug_fatal
  000d2	83 c4 18	 add	 esp, 24			; 00000018H
$LN2@get_local_:

; 223  : 
; 224  : 			break;
; 225  : 		}
; 226  : 	}
; 227  : 
; 228  : 	return (value);

  000d5	d9 45 f8	 fld	 DWORD PTR _value$[ebp]

; 229  : }

  000d8	5f		 pop	 edi
  000d9	5e		 pop	 esi
  000da	5b		 pop	 ebx
  000db	8b e5		 mov	 esp, ebp
  000dd	5d		 pop	 ebp
  000de	c2 08 00	 ret	 8
?get_local_float_value@@YGMPAUENTITY@@W4FLOAT_TYPES@@@Z ENDP ; get_local_float_value
_TEXT	ENDS
; Function compile flags: /Odtp /ZI
; File c:\users\nhv90\projects\eech\aphavoc\source\entity\fixed\city\ct_float.c
;	COMDAT ?set_client_float_value@@YGXPAUENTITY@@W4FLOAT_TYPES@@M@Z
_TEXT	SEGMENT
_en$ = 8						; size = 4
_type$ = 12						; size = 4
_value$ = 16						; size = 4
?set_client_float_value@@YGXPAUENTITY@@W4FLOAT_TYPES@@M@Z PROC ; set_client_float_value, COMDAT

; 162  : {

  00000	55		 push	 ebp
  00001	8b ec		 mov	 ebp, esp
  00003	83 ec 40	 sub	 esp, 64			; 00000040H
  00006	53		 push	 ebx
  00007	56		 push	 esi
  00008	57		 push	 edi

; 163  : 	if (get_comms_data_flow () == COMMS_DATA_FLOW_TX)

  00009	83 3d 00 00 00
	00 00		 cmp	 DWORD PTR ?system_comms_data_flow@@3W4COMMS_DATA_FLOW_TYPES@@A, 0 ; system_comms_data_flow
  00010	75 3b		 jne	 SHORT $LN2@set_client

; 164  : 	{
; 165  : 		validate_client_server_remote_fn ();

  00012	e8 00 00 00 00	 call	 ?assert_client_server_remote_fn@@YGHXZ ; assert_client_server_remote_fn
  00017	85 c0		 test	 eax, eax
  00019	75 18		 jne	 SHORT $LN4@set_client
  0001b	a1 00 00 00 00	 mov	 eax, DWORD PTR ?__LINE__Var@?0??set_client_float_value@@YGXPAUENTITY@@W4FLOAT_TYPES@@M@Z@4JA
  00020	83 c0 03	 add	 eax, 3
  00023	50		 push	 eax
  00024	68 00 00 00 00	 push	 OFFSET ??_C@_0EJ@FKANDCJM@c?3?2users?2nhv90?2projects?2eech?2ap@
  00029	68 00 00 00 00	 push	 OFFSET ??_C@_0CC@BNNNEGEG@assert_client_server_remote_fn?5@
  0002e	e8 00 00 00 00	 call	 ?process_assert@@YGXPBD0H@Z ; process_assert
$LN4@set_client:

; 166  : 
; 167  : 		set_remote_float_value (en, type, value);

  00033	51		 push	 ecx
  00034	f3 0f 10 45 10	 movss	 xmm0, DWORD PTR _value$[ebp]
  00039	f3 0f 11 04 24	 movss	 DWORD PTR [esp], xmm0
  0003e	8b 45 0c	 mov	 eax, DWORD PTR _type$[ebp]
  00041	50		 push	 eax
  00042	8b 4d 08	 mov	 ecx, DWORD PTR _en$[ebp]
  00045	51		 push	 ecx
  00046	e8 00 00 00 00	 call	 ?set_remote_float_value@@YGXPAUENTITY@@W4FLOAT_TYPES@@M@Z ; set_remote_float_value

; 168  : 	}
; 169  : 	else

  0004b	eb 39		 jmp	 SHORT $LN3@set_client
$LN2@set_client:

; 170  : 	{
; 171  : 		validate_client_server_local_fn ();

  0004d	e8 00 00 00 00	 call	 ?assert_client_server_local_fn@@YGHXZ ; assert_client_server_local_fn
  00052	85 c0		 test	 eax, eax
  00054	75 18		 jne	 SHORT $LN5@set_client
  00056	a1 00 00 00 00	 mov	 eax, DWORD PTR ?__LINE__Var@?0??set_client_float_value@@YGXPAUENTITY@@W4FLOAT_TYPES@@M@Z@4JA
  0005b	83 c0 09	 add	 eax, 9
  0005e	50		 push	 eax
  0005f	68 00 00 00 00	 push	 OFFSET ??_C@_0EJ@FKANDCJM@c?3?2users?2nhv90?2projects?2eech?2ap@
  00064	68 00 00 00 00	 push	 OFFSET ??_C@_0CB@CFOCLFOK@assert_client_server_local_fn?5?$CI@
  00069	e8 00 00 00 00	 call	 ?process_assert@@YGXPBD0H@Z ; process_assert
$LN5@set_client:

; 172  : 
; 173  : 		set_local_float_value (en, type, value);

  0006e	51		 push	 ecx
  0006f	f3 0f 10 45 10	 movss	 xmm0, DWORD PTR _value$[ebp]
  00074	f3 0f 11 04 24	 movss	 DWORD PTR [esp], xmm0
  00079	8b 45 0c	 mov	 eax, DWORD PTR _type$[ebp]
  0007c	50		 push	 eax
  0007d	8b 4d 08	 mov	 ecx, DWORD PTR _en$[ebp]
  00080	51		 push	 ecx
  00081	e8 00 00 00 00	 call	 ?set_local_float_value@@YGXPAUENTITY@@W4FLOAT_TYPES@@M@Z ; set_local_float_value
$LN3@set_client:

; 174  : 	}
; 175  : }

  00086	5f		 pop	 edi
  00087	5e		 pop	 esi
  00088	5b		 pop	 ebx
  00089	8b e5		 mov	 esp, ebp
  0008b	5d		 pop	 ebp
  0008c	c2 0c 00	 ret	 12			; 0000000cH
?set_client_float_value@@YGXPAUENTITY@@W4FLOAT_TYPES@@M@Z ENDP ; set_client_float_value
_TEXT	ENDS
; Function compile flags: /Odtp /ZI
; File c:\users\nhv90\projects\eech\aphavoc\source\entity\fixed\city\ct_float.c
;	COMDAT ?set_server_float_value@@YGXPAUENTITY@@W4FLOAT_TYPES@@M@Z
_TEXT	SEGMENT
_en$ = 8						; size = 4
_type$ = 12						; size = 4
_value$ = 16						; size = 4
?set_server_float_value@@YGXPAUENTITY@@W4FLOAT_TYPES@@M@Z PROC ; set_server_float_value, COMDAT

; 143  : {

  00000	55		 push	 ebp
  00001	8b ec		 mov	 ebp, esp
  00003	83 ec 40	 sub	 esp, 64			; 00000040H
  00006	53		 push	 ebx
  00007	56		 push	 esi
  00008	57		 push	 edi

; 144  : 	validate_client_server_local_fn ();

  00009	e8 00 00 00 00	 call	 ?assert_client_server_local_fn@@YGHXZ ; assert_client_server_local_fn
  0000e	85 c0		 test	 eax, eax
  00010	75 18		 jne	 SHORT $LN2@set_server
  00012	a1 00 00 00 00	 mov	 eax, DWORD PTR ?__LINE__Var@?0??set_server_float_value@@YGXPAUENTITY@@W4FLOAT_TYPES@@M@Z@4JA
  00017	83 c0 01	 add	 eax, 1
  0001a	50		 push	 eax
  0001b	68 00 00 00 00	 push	 OFFSET ??_C@_0EJ@FKANDCJM@c?3?2users?2nhv90?2projects?2eech?2ap@
  00020	68 00 00 00 00	 push	 OFFSET ??_C@_0CB@CFOCLFOK@assert_client_server_local_fn?5?$CI@
  00025	e8 00 00 00 00	 call	 ?process_assert@@YGXPBD0H@Z ; process_assert
$LN2@set_server:

; 145  : 
; 146  : 	set_local_float_value (en, type, value);

  0002a	51		 push	 ecx
  0002b	f3 0f 10 45 10	 movss	 xmm0, DWORD PTR _value$[ebp]
  00030	f3 0f 11 04 24	 movss	 DWORD PTR [esp], xmm0
  00035	8b 45 0c	 mov	 eax, DWORD PTR _type$[ebp]
  00038	50		 push	 eax
  00039	8b 4d 08	 mov	 ecx, DWORD PTR _en$[ebp]
  0003c	51		 push	 ecx
  0003d	e8 00 00 00 00	 call	 ?set_local_float_value@@YGXPAUENTITY@@W4FLOAT_TYPES@@M@Z ; set_local_float_value

; 147  : 
; 148  : 	validate_client_server_remote_fn ();

  00042	e8 00 00 00 00	 call	 ?assert_client_server_remote_fn@@YGHXZ ; assert_client_server_remote_fn
  00047	85 c0		 test	 eax, eax
  00049	75 18		 jne	 SHORT $LN3@set_server
  0004b	a1 00 00 00 00	 mov	 eax, DWORD PTR ?__LINE__Var@?0??set_server_float_value@@YGXPAUENTITY@@W4FLOAT_TYPES@@M@Z@4JA
  00050	83 c0 05	 add	 eax, 5
  00053	50		 push	 eax
  00054	68 00 00 00 00	 push	 OFFSET ??_C@_0EJ@FKANDCJM@c?3?2users?2nhv90?2projects?2eech?2ap@
  00059	68 00 00 00 00	 push	 OFFSET ??_C@_0CC@BNNNEGEG@assert_client_server_remote_fn?5@
  0005e	e8 00 00 00 00	 call	 ?process_assert@@YGXPBD0H@Z ; process_assert
$LN3@set_server:

; 149  : 
; 150  : 	set_remote_float_value (en, type, value);

  00063	51		 push	 ecx
  00064	f3 0f 10 45 10	 movss	 xmm0, DWORD PTR _value$[ebp]
  00069	f3 0f 11 04 24	 movss	 DWORD PTR [esp], xmm0
  0006e	8b 45 0c	 mov	 eax, DWORD PTR _type$[ebp]
  00071	50		 push	 eax
  00072	8b 4d 08	 mov	 ecx, DWORD PTR _en$[ebp]
  00075	51		 push	 ecx
  00076	e8 00 00 00 00	 call	 ?set_remote_float_value@@YGXPAUENTITY@@W4FLOAT_TYPES@@M@Z ; set_remote_float_value

; 151  : }

  0007b	5f		 pop	 edi
  0007c	5e		 pop	 esi
  0007d	5b		 pop	 ebx
  0007e	8b e5		 mov	 esp, ebp
  00080	5d		 pop	 ebp
  00081	c2 0c 00	 ret	 12			; 0000000cH
?set_server_float_value@@YGXPAUENTITY@@W4FLOAT_TYPES@@M@Z ENDP ; set_server_float_value
_TEXT	ENDS
; Function compile flags: /Odtp /ZI
; File c:\users\nhv90\projects\eech\aphavoc\source\entity\fixed\city\ct_float.c
;	COMDAT ?set_remote_float_value@@YGXPAUENTITY@@W4FLOAT_TYPES@@M@Z
_TEXT	SEGMENT
_en$ = 8						; size = 4
_type$ = 12						; size = 4
_value$ = 16						; size = 4
?set_remote_float_value@@YGXPAUENTITY@@W4FLOAT_TYPES@@M@Z PROC ; set_remote_float_value, COMDAT

; 124  : {

  00000	55		 push	 ebp
  00001	8b ec		 mov	 ebp, esp
  00003	83 ec 40	 sub	 esp, 64			; 00000040H
  00006	53		 push	 ebx
  00007	56		 push	 esi
  00008	57		 push	 edi

; 125  : 	#if DEBUG_MODULE
; 126  : 
; 127  : 	debug_log_entity_args (ENTITY_DEBUG_REMOTE, ENTITY_DEBUG_FLOAT_VALUE, en, type, value);
; 128  : 
; 129  : 	#endif
; 130  : 
; 131  : 	transmit_entity_comms_message (ENTITY_COMMS_FLOAT_VALUE, en, type, value);

  00009	f3 0f 5a 45 10	 cvtss2sd xmm0, DWORD PTR _value$[ebp]
  0000e	83 ec 08	 sub	 esp, 8
  00011	f2 0f 11 04 24	 movsd	 QWORD PTR [esp], xmm0
  00016	8b 45 0c	 mov	 eax, DWORD PTR _type$[ebp]
  00019	50		 push	 eax
  0001a	8b 4d 08	 mov	 ecx, DWORD PTR _en$[ebp]
  0001d	51		 push	 ecx
  0001e	6a 16		 push	 22			; 00000016H
  00020	e8 00 00 00 00	 call	 ?transmit_entity_comms_message@@YAXW4ENTITY_COMMS_MESSAGES@@PAUENTITY@@ZZ ; transmit_entity_comms_message
  00025	83 c4 14	 add	 esp, 20			; 00000014H

; 132  : }

  00028	5f		 pop	 edi
  00029	5e		 pop	 esi
  0002a	5b		 pop	 ebx
  0002b	8b e5		 mov	 esp, ebp
  0002d	5d		 pop	 ebp
  0002e	c2 0c 00	 ret	 12			; 0000000cH
?set_remote_float_value@@YGXPAUENTITY@@W4FLOAT_TYPES@@M@Z ENDP ; set_remote_float_value
_TEXT	ENDS
; Function compile flags: /Odtp /ZI
; File c:\users\nhv90\projects\eech\aphavoc\source\entity\fixed\city\ct_float.c
;	COMDAT ?set_local_float_value@@YGXPAUENTITY@@W4FLOAT_TYPES@@M@Z
_TEXT	SEGMENT
tv82 = -72						; size = 4
tv65 = -72						; size = 4
_raw$ = -4						; size = 4
_en$ = 8						; size = 4
_type$ = 12						; size = 4
_value$ = 16						; size = 4
?set_local_float_value@@YGXPAUENTITY@@W4FLOAT_TYPES@@M@Z PROC ; set_local_float_value, COMDAT

; 90   : {

  00000	55		 push	 ebp
  00001	8b ec		 mov	 ebp, esp
  00003	83 ec 48	 sub	 esp, 72			; 00000048H
  00006	53		 push	 ebx
  00007	56		 push	 esi
  00008	57		 push	 edi

; 91   : 	city
; 92   : 		*raw;
; 93   : 
; 94   : 	#if DEBUG_MODULE
; 95   : 
; 96   : 	debug_log_entity_args (ENTITY_DEBUG_LOCAL, ENTITY_DEBUG_FLOAT_VALUE, en, type, value);
; 97   : 
; 98   : 	#endif
; 99   : 
; 100  : 	raw = (city *) get_local_entity_data (en);

  00009	8b 45 08	 mov	 eax, DWORD PTR _en$[ebp]
  0000c	8b 48 04	 mov	 ecx, DWORD PTR [eax+4]
  0000f	89 4d fc	 mov	 DWORD PTR _raw$[ebp], ecx

; 101  : 
; 102  : 	switch (type)

  00012	8b 45 0c	 mov	 eax, DWORD PTR _type$[ebp]
  00015	89 45 b8	 mov	 DWORD PTR tv65[ebp], eax

; 103  : 	{
; 104  : 		////////////////////////////////////////
; 105  : 		default:
; 106  : 		////////////////////////////////////////
; 107  : 		{
; 108  : 			debug_fatal_invalid_float_type (en, type);

  00018	83 7d 08 00	 cmp	 DWORD PTR _en$[ebp], 0
  0001c	74 0a		 je	 SHORT $LN6@set_local_
  0001e	8b 45 08	 mov	 eax, DWORD PTR _en$[ebp]
  00021	8b 08		 mov	 ecx, DWORD PTR [eax]
  00023	89 4d b8	 mov	 DWORD PTR tv82[ebp], ecx
  00026	eb 21		 jmp	 SHORT $LN7@set_local_
$LN6@set_local_:
  00028	8b 15 00 00 00
	00		 mov	 edx, DWORD PTR ?__LINE__Var@?0??set_local_float_value@@YGXPAUENTITY@@W4FLOAT_TYPES@@M@Z@4JA
  0002e	83 c2 12	 add	 edx, 18			; 00000012H
  00031	52		 push	 edx
  00032	68 00 00 00 00	 push	 OFFSET ??_C@_0EJ@FKANDCJM@c?3?2users?2nhv90?2projects?2eech?2ap@
  00037	a1 00 00 00 00	 mov	 eax, DWORD PTR ?null_entity_pointer_message@@3PBDB ; null_entity_pointer_message
  0003c	50		 push	 eax
  0003d	e8 00 00 00 00	 call	 ?process_assert@@YGXPBD0H@Z ; process_assert
  00042	c7 45 b8 00 00
	00 00		 mov	 DWORD PTR tv82[ebp], 0
$LN7@set_local_:
  00049	8b 0d 00 00 00
	00		 mov	 ecx, DWORD PTR ?__LINE__Var@?0??set_local_float_value@@YGXPAUENTITY@@W4FLOAT_TYPES@@M@Z@4JA
  0004f	83 c1 12	 add	 ecx, 18			; 00000012H
  00052	51		 push	 ecx
  00053	68 00 00 00 00	 push	 OFFSET ??_C@_0EJ@FKANDCJM@c?3?2users?2nhv90?2projects?2eech?2ap@
  00058	6b 55 0c 18	 imul	 edx, DWORD PTR _type$[ebp], 24
  0005c	8b 82 00 00 00
	00		 mov	 eax, DWORD PTR ?float_type_database@@3PAUFLOAT_TYPE_DATA@@A[edx]
  00062	50		 push	 eax
  00063	8b 4d 08	 mov	 ecx, DWORD PTR _en$[ebp]
  00066	2b 0d 00 00 00
	00		 sub	 ecx, DWORD PTR ?entities@@3PAUENTITY@@A ; entities
  0006c	c1 f9 04	 sar	 ecx, 4
  0006f	51		 push	 ecx
  00070	6b 55 b8 0c	 imul	 edx, DWORD PTR tv82[ebp], 12
  00074	8b 82 00 00 00
	00		 mov	 eax, DWORD PTR ?entity_type_database@@3PAUENTITY_TYPE_DATA@@A[edx]
  0007a	50		 push	 eax
  0007b	8b 0d 00 00 00
	00		 mov	 ecx, DWORD PTR ?debug_fatal_invalid_float_type_message@@3PBDB ; debug_fatal_invalid_float_type_message
  00081	51		 push	 ecx
  00082	e8 00 00 00 00	 call	 ?debug_fatal@@YAXPBDZZ	; debug_fatal
  00087	83 c4 18	 add	 esp, 24			; 00000018H

; 109  : 
; 110  : 			break;
; 111  : 		}
; 112  : 	}
; 113  : }

  0008a	5f		 pop	 edi
  0008b	5e		 pop	 esi
  0008c	5b		 pop	 ebx
  0008d	8b e5		 mov	 esp, ebp
  0008f	5d		 pop	 ebp
  00090	c2 0c 00	 ret	 12			; 0000000cH
?set_local_float_value@@YGXPAUENTITY@@W4FLOAT_TYPES@@M@Z ENDP ; set_local_float_value
_TEXT	ENDS
; Function compile flags: /Odtp /ZI
; File c:\users\nhv90\projects\eech\aphavoc\source\entity\fixed\city\ct_float.c
;	COMDAT ?overload_city_float_value_functions@@YGXXZ
_TEXT	SEGMENT
?overload_city_float_value_functions@@YGXXZ PROC	; overload_city_float_value_functions, COMDAT

; 238  : {

  00000	55		 push	 ebp
  00001	8b ec		 mov	 ebp, esp
  00003	83 ec 40	 sub	 esp, 64			; 00000040H
  00006	53		 push	 ebx
  00007	56		 push	 esi
  00008	57		 push	 edi

; 239  : 	fn_set_local_entity_raw_float_value			[ENTITY_TYPE_CITY][FLOAT_TYPE_MAX_3D_OBJECT_VISUAL_RANGE]								= set_local_float_value;

  00009	b8 bc 02 00 00	 mov	 eax, 700		; 000002bcH
  0000e	6b c8 05	 imul	 ecx, eax, 5
  00011	ba 04 00 00 00	 mov	 edx, 4
  00016	6b c2 4b	 imul	 eax, edx, 75
  00019	c7 84 01 00 00
	00 00 00 00 00
	00		 mov	 DWORD PTR ?fn_set_local_entity_raw_float_value@@3PAY0KP@P6GXPAUENTITY@@W4FLOAT_TYPES@@M@ZA[ecx+eax], OFFSET ?set_local_float_value@@YGXPAUENTITY@@W4FLOAT_TYPES@@M@Z ; set_local_float_value

; 240  : 	fn_set_local_entity_float_value				[ENTITY_TYPE_CITY][FLOAT_TYPE_MAX_3D_OBJECT_VISUAL_RANGE]								= set_local_float_value;

  00024	b8 bc 02 00 00	 mov	 eax, 700		; 000002bcH
  00029	6b c8 05	 imul	 ecx, eax, 5
  0002c	ba 04 00 00 00	 mov	 edx, 4
  00031	6b c2 4b	 imul	 eax, edx, 75
  00034	c7 84 01 00 00
	00 00 00 00 00
	00		 mov	 DWORD PTR ?fn_set_local_entity_float_value@@3PAY0KP@P6GXPAUENTITY@@W4FLOAT_TYPES@@M@ZA[ecx+eax], OFFSET ?set_local_float_value@@YGXPAUENTITY@@W4FLOAT_TYPES@@M@Z ; set_local_float_value

; 241  : 	fn_set_client_server_entity_float_value	[ENTITY_TYPE_CITY][FLOAT_TYPE_MAX_3D_OBJECT_VISUAL_RANGE][COMMS_MODEL_SERVER]		= set_server_float_value;

  0003f	b8 78 05 00 00	 mov	 eax, 1400		; 00000578H
  00044	6b c8 05	 imul	 ecx, eax, 5
  00047	ba 08 00 00 00	 mov	 edx, 8
  0004c	6b c2 4b	 imul	 eax, edx, 75
  0004f	8d 8c 01 00 00
	00 00		 lea	 ecx, DWORD PTR ?fn_set_client_server_entity_float_value@@3PAY1KP@1P6GXPAUENTITY@@W4FLOAT_TYPES@@M@ZA[ecx+eax]
  00056	ba 04 00 00 00	 mov	 edx, 4
  0005b	6b c2 00	 imul	 eax, edx, 0
  0005e	c7 04 01 00 00
	00 00		 mov	 DWORD PTR [ecx+eax], OFFSET ?set_server_float_value@@YGXPAUENTITY@@W4FLOAT_TYPES@@M@Z ; set_server_float_value

; 242  : 	fn_set_client_server_entity_float_value	[ENTITY_TYPE_CITY][FLOAT_TYPE_MAX_3D_OBJECT_VISUAL_RANGE][COMMS_MODEL_CLIENT]		= set_client_float_value;

  00065	b8 78 05 00 00	 mov	 eax, 1400		; 00000578H
  0006a	6b c8 05	 imul	 ecx, eax, 5
  0006d	ba 08 00 00 00	 mov	 edx, 8
  00072	6b c2 4b	 imul	 eax, edx, 75
  00075	8d 8c 01 00 00
	00 00		 lea	 ecx, DWORD PTR ?fn_set_client_server_entity_float_value@@3PAY1KP@1P6GXPAUENTITY@@W4FLOAT_TYPES@@M@ZA[ecx+eax]
  0007c	ba 04 00 00 00	 mov	 edx, 4
  00081	c1 e2 00	 shl	 edx, 0
  00084	c7 04 11 00 00
	00 00		 mov	 DWORD PTR [ecx+edx], OFFSET ?set_client_float_value@@YGXPAUENTITY@@W4FLOAT_TYPES@@M@Z ; set_client_float_value

; 243  : 	fn_get_local_entity_float_value				[ENTITY_TYPE_CITY][FLOAT_TYPE_MAX_3D_OBJECT_VISUAL_RANGE]								= get_local_float_value;

  0008b	b8 bc 02 00 00	 mov	 eax, 700		; 000002bcH
  00090	6b c8 05	 imul	 ecx, eax, 5
  00093	ba 04 00 00 00	 mov	 edx, 4
  00098	6b c2 4b	 imul	 eax, edx, 75
  0009b	c7 84 01 00 00
	00 00 00 00 00
	00		 mov	 DWORD PTR ?fn_get_local_entity_float_value@@3PAY0KP@P6GMPAUENTITY@@W4FLOAT_TYPES@@@ZA[ecx+eax], OFFSET ?get_local_float_value@@YGMPAUENTITY@@W4FLOAT_TYPES@@@Z ; get_local_float_value

; 244  : }

  000a6	5f		 pop	 edi
  000a7	5e		 pop	 esi
  000a8	5b		 pop	 ebx
  000a9	8b e5		 mov	 esp, ebp
  000ab	5d		 pop	 ebp
  000ac	c3		 ret	 0
?overload_city_float_value_functions@@YGXXZ ENDP	; overload_city_float_value_functions
_TEXT	ENDS
END
