; Listing generated by Microsoft (R) Optimizing Compiler Version 19.16.27045.0 

	TITLE	C:\Users\nhv90\Projects\eech\aphavoc\source\entity\fixed\city\ct_vec3d.c
	.686P
	.XMM
	include listing.inc
	.model	flat

INCLUDELIB MSVCRTD
INCLUDELIB OLDNAMES

PUBLIC	?overload_city_vec3d_functions@@YGXXZ		; overload_city_vec3d_functions
PUBLIC	?__LINE__Var@?0??get_local_vec3d@@YGXPAUENTITY@@W4VEC3D_TYPES@@PAUVEC3D@@@Z@4JA ; `get_local_vec3d'::`1'::__LINE__Var
PUBLIC	??_C@_0EJ@NGCGENCL@c?3?2users?2nhv90?2projects?2eech?2ap@ ; `string'
PUBLIC	??_C@_01MHEDDDHA@v@				; `string'
PUBLIC	?__LINE__Var@?0??get_local_vec3d_ptr@@YGPAUVEC3D@@PAUENTITY@@W4VEC3D_TYPES@@@Z@4JA ; `get_local_vec3d_ptr'::`1'::__LINE__Var
EXTRN	?process_assert@@YGXPBD0H@Z:PROC		; process_assert
EXTRN	?debug_fatal@@YAXPBDZZ:PROC			; debug_fatal
EXTRN	?null_entity_pointer_message@@3PBDB:DWORD	; null_entity_pointer_message
EXTRN	?entity_type_database@@3PAUENTITY_TYPE_DATA@@A:BYTE ; entity_type_database
EXTRN	?vec3d_type_database@@3PAUVEC3D_TYPE_DATA@@A:BYTE ; vec3d_type_database
EXTRN	?debug_fatal_invalid_vec3d_type_message@@3PBDB:DWORD ; debug_fatal_invalid_vec3d_type_message
EXTRN	?fn_get_local_entity_vec3d@@3PAY0BI@P6GXPAUENTITY@@W4VEC3D_TYPES@@PAUVEC3D@@@ZA:BYTE ; fn_get_local_entity_vec3d
EXTRN	?fn_get_local_entity_vec3d_ptr@@3PAY0BI@P6GPAUVEC3D@@PAUENTITY@@W4VEC3D_TYPES@@@ZA:BYTE ; fn_get_local_entity_vec3d_ptr
EXTRN	?entities@@3PAUENTITY@@A:DWORD			; entities
;	COMDAT ?__LINE__Var@?0??get_local_vec3d_ptr@@YGPAUVEC3D@@PAUENTITY@@W4VEC3D_TYPES@@@Z@4JA
_DATA	SEGMENT
?__LINE__Var@?0??get_local_vec3d_ptr@@YGPAUVEC3D@@PAUENTITY@@W4VEC3D_TYPES@@@Z@4JA DD 0f0H ; `get_local_vec3d_ptr'::`1'::__LINE__Var
_DATA	ENDS
;	COMDAT ??_C@_01MHEDDDHA@v@
CONST	SEGMENT
??_C@_01MHEDDDHA@v@ DB 'v', 00H				; `string'
CONST	ENDS
;	COMDAT ??_C@_0EJ@NGCGENCL@c?3?2users?2nhv90?2projects?2eech?2ap@
CONST	SEGMENT
??_C@_0EJ@NGCGENCL@c?3?2users?2nhv90?2projects?2eech?2ap@ DB 'c:\users\nh'
	DB	'v90\projects\eech\aphavoc\source\entity\fixed\city\ct_vec3d.c'
	DB	00H						; `string'
CONST	ENDS
;	COMDAT ?__LINE__Var@?0??get_local_vec3d@@YGXPAUENTITY@@W4VEC3D_TYPES@@PAUVEC3D@@@Z@4JA
_DATA	SEGMENT
?__LINE__Var@?0??get_local_vec3d@@YGXPAUENTITY@@W4VEC3D_TYPES@@PAUVEC3D@@@Z@4JA DD 0c2H ; `get_local_vec3d'::`1'::__LINE__Var
_DATA	ENDS
; Function compile flags: /Odtp /ZI
; File c:\users\nhv90\projects\eech\aphavoc\source\entity\fixed\city\ct_vec3d.c
;	COMDAT ?get_local_vec3d_ptr@@YGPAUVEC3D@@PAUENTITY@@W4VEC3D_TYPES@@@Z
_TEXT	SEGMENT
tv84 = -76						; size = 4
tv65 = -76						; size = 4
_v$ = -8						; size = 4
_raw$ = -4						; size = 4
_en$ = 8						; size = 4
_type$ = 12						; size = 4
?get_local_vec3d_ptr@@YGPAUVEC3D@@PAUENTITY@@W4VEC3D_TYPES@@@Z PROC ; get_local_vec3d_ptr, COMDAT

; 240  : {

  00000	55		 push	 ebp
  00001	8b ec		 mov	 ebp, esp
  00003	83 ec 4c	 sub	 esp, 76			; 0000004cH
  00006	53		 push	 ebx
  00007	56		 push	 esi
  00008	57		 push	 edi

; 241  : 	city
; 242  : 		*raw;
; 243  : 
; 244  : 	vec3d
; 245  : 		*v;
; 246  : 
; 247  : 	raw = (city *) get_local_entity_data (en);

  00009	8b 45 08	 mov	 eax, DWORD PTR _en$[ebp]
  0000c	8b 48 04	 mov	 ecx, DWORD PTR [eax+4]
  0000f	89 4d fc	 mov	 DWORD PTR _raw$[ebp], ecx

; 248  : 
; 249  : 	switch (type)

  00012	8b 45 0c	 mov	 eax, DWORD PTR _type$[ebp]
  00015	89 45 b4	 mov	 DWORD PTR tv65[ebp], eax
  00018	83 7d b4 00	 cmp	 DWORD PTR tv65[ebp], 0
  0001c	74 08		 je	 SHORT $LN4@get_local_
  0001e	83 7d b4 01	 cmp	 DWORD PTR tv65[ebp], 1
  00022	74 0d		 je	 SHORT $LN5@get_local_
  00024	eb 16		 jmp	 SHORT $LN6@get_local_
$LN4@get_local_:

; 250  : 	{
; 251  : 		////////////////////////////////////////
; 252  : 		case VEC3D_TYPE_BOUNDING_BOX_MAX:
; 253  : 		////////////////////////////////////////
; 254  : 		{
; 255  : 			v = &raw->bounding_box_max;

  00026	8b 45 fc	 mov	 eax, DWORD PTR _raw$[ebp]
  00029	83 c0 50	 add	 eax, 80			; 00000050H
  0002c	89 45 f8	 mov	 DWORD PTR _v$[ebp], eax

; 256  : 
; 257  : 			break;

  0002f	eb 7d		 jmp	 SHORT $LN2@get_local_
$LN5@get_local_:

; 258  : 		}
; 259  : 		////////////////////////////////////////
; 260  : 		case VEC3D_TYPE_BOUNDING_BOX_MIN:
; 261  : 		////////////////////////////////////////
; 262  : 		{
; 263  : 			v = &raw->bounding_box_min;

  00031	8b 45 fc	 mov	 eax, DWORD PTR _raw$[ebp]
  00034	83 c0 44	 add	 eax, 68			; 00000044H
  00037	89 45 f8	 mov	 DWORD PTR _v$[ebp], eax

; 264  : 
; 265  : 			break;

  0003a	eb 72		 jmp	 SHORT $LN2@get_local_
$LN6@get_local_:

; 266  : 		}
; 267  : 		////////////////////////////////////////
; 268  : 		default:
; 269  : 		////////////////////////////////////////
; 270  : 		{
; 271  : 			debug_fatal_invalid_vec3d_type (en, type);

  0003c	83 7d 08 00	 cmp	 DWORD PTR _en$[ebp], 0
  00040	74 0a		 je	 SHORT $LN8@get_local_
  00042	8b 45 08	 mov	 eax, DWORD PTR _en$[ebp]
  00045	8b 08		 mov	 ecx, DWORD PTR [eax]
  00047	89 4d b4	 mov	 DWORD PTR tv84[ebp], ecx
  0004a	eb 21		 jmp	 SHORT $LN9@get_local_
$LN8@get_local_:
  0004c	8b 15 00 00 00
	00		 mov	 edx, DWORD PTR ?__LINE__Var@?0??get_local_vec3d_ptr@@YGPAUVEC3D@@PAUENTITY@@W4VEC3D_TYPES@@@Z@4JA
  00052	83 c2 1f	 add	 edx, 31			; 0000001fH
  00055	52		 push	 edx
  00056	68 00 00 00 00	 push	 OFFSET ??_C@_0EJ@NGCGENCL@c?3?2users?2nhv90?2projects?2eech?2ap@
  0005b	a1 00 00 00 00	 mov	 eax, DWORD PTR ?null_entity_pointer_message@@3PBDB ; null_entity_pointer_message
  00060	50		 push	 eax
  00061	e8 00 00 00 00	 call	 ?process_assert@@YGXPBD0H@Z ; process_assert
  00066	c7 45 b4 00 00
	00 00		 mov	 DWORD PTR tv84[ebp], 0
$LN9@get_local_:
  0006d	8b 0d 00 00 00
	00		 mov	 ecx, DWORD PTR ?__LINE__Var@?0??get_local_vec3d_ptr@@YGPAUVEC3D@@PAUENTITY@@W4VEC3D_TYPES@@@Z@4JA
  00073	83 c1 1f	 add	 ecx, 31			; 0000001fH
  00076	51		 push	 ecx
  00077	68 00 00 00 00	 push	 OFFSET ??_C@_0EJ@NGCGENCL@c?3?2users?2nhv90?2projects?2eech?2ap@
  0007c	6b 55 0c 0c	 imul	 edx, DWORD PTR _type$[ebp], 12
  00080	8b 82 00 00 00
	00		 mov	 eax, DWORD PTR ?vec3d_type_database@@3PAUVEC3D_TYPE_DATA@@A[edx]
  00086	50		 push	 eax
  00087	8b 4d 08	 mov	 ecx, DWORD PTR _en$[ebp]
  0008a	2b 0d 00 00 00
	00		 sub	 ecx, DWORD PTR ?entities@@3PAUENTITY@@A ; entities
  00090	c1 f9 04	 sar	 ecx, 4
  00093	51		 push	 ecx
  00094	6b 55 b4 0c	 imul	 edx, DWORD PTR tv84[ebp], 12
  00098	8b 82 00 00 00
	00		 mov	 eax, DWORD PTR ?entity_type_database@@3PAUENTITY_TYPE_DATA@@A[edx]
  0009e	50		 push	 eax
  0009f	8b 0d 00 00 00
	00		 mov	 ecx, DWORD PTR ?debug_fatal_invalid_vec3d_type_message@@3PBDB ; debug_fatal_invalid_vec3d_type_message
  000a5	51		 push	 ecx
  000a6	e8 00 00 00 00	 call	 ?debug_fatal@@YAXPBDZZ	; debug_fatal
  000ab	83 c4 18	 add	 esp, 24			; 00000018H
$LN2@get_local_:

; 272  : 
; 273  : 			break;
; 274  : 		}
; 275  : 	}
; 276  : 
; 277  : 	return (v);

  000ae	8b 45 f8	 mov	 eax, DWORD PTR _v$[ebp]

; 278  : }

  000b1	5f		 pop	 edi
  000b2	5e		 pop	 esi
  000b3	5b		 pop	 ebx
  000b4	8b e5		 mov	 esp, ebp
  000b6	5d		 pop	 ebp
  000b7	c2 08 00	 ret	 8
?get_local_vec3d_ptr@@YGPAUVEC3D@@PAUENTITY@@W4VEC3D_TYPES@@@Z ENDP ; get_local_vec3d_ptr
_TEXT	ENDS
; Function compile flags: /Odtp /ZI
; File c:\users\nhv90\projects\eech\aphavoc\source\entity\fixed\city\ct_vec3d.c
;	COMDAT ?get_local_vec3d@@YGXPAUENTITY@@W4VEC3D_TYPES@@PAUVEC3D@@@Z
_TEXT	SEGMENT
tv91 = -72						; size = 4
tv70 = -72						; size = 4
_raw$ = -4						; size = 4
_en$ = 8						; size = 4
_type$ = 12						; size = 4
_v$ = 16						; size = 4
?get_local_vec3d@@YGXPAUENTITY@@W4VEC3D_TYPES@@PAUVEC3D@@@Z PROC ; get_local_vec3d, COMDAT

; 194  : {

  00000	55		 push	 ebp
  00001	8b ec		 mov	 ebp, esp
  00003	83 ec 48	 sub	 esp, 72			; 00000048H
  00006	53		 push	 ebx
  00007	56		 push	 esi
  00008	57		 push	 edi

; 195  : 	city
; 196  : 		*raw;
; 197  : 
; 198  : 	ASSERT (v);

  00009	83 7d 10 00	 cmp	 DWORD PTR _v$[ebp], 0
  0000d	75 18		 jne	 SHORT $LN4@get_local_
  0000f	a1 00 00 00 00	 mov	 eax, DWORD PTR ?__LINE__Var@?0??get_local_vec3d@@YGXPAUENTITY@@W4VEC3D_TYPES@@PAUVEC3D@@@Z@4JA
  00014	83 c0 04	 add	 eax, 4
  00017	50		 push	 eax
  00018	68 00 00 00 00	 push	 OFFSET ??_C@_0EJ@NGCGENCL@c?3?2users?2nhv90?2projects?2eech?2ap@
  0001d	68 00 00 00 00	 push	 OFFSET ??_C@_01MHEDDDHA@v@
  00022	e8 00 00 00 00	 call	 ?process_assert@@YGXPBD0H@Z ; process_assert
$LN4@get_local_:

; 199  : 
; 200  : 	raw = (city *) get_local_entity_data (en);

  00027	8b 45 08	 mov	 eax, DWORD PTR _en$[ebp]
  0002a	8b 48 04	 mov	 ecx, DWORD PTR [eax+4]
  0002d	89 4d fc	 mov	 DWORD PTR _raw$[ebp], ecx

; 201  : 
; 202  : 	switch (type)

  00030	8b 45 0c	 mov	 eax, DWORD PTR _type$[ebp]
  00033	89 45 b8	 mov	 DWORD PTR tv70[ebp], eax
  00036	83 7d b8 00	 cmp	 DWORD PTR tv70[ebp], 0
  0003a	74 08		 je	 SHORT $LN5@get_local_
  0003c	83 7d b8 01	 cmp	 DWORD PTR tv70[ebp], 1
  00040	74 20		 je	 SHORT $LN6@get_local_
  00042	eb 39		 jmp	 SHORT $LN7@get_local_
$LN5@get_local_:

; 203  : 	{
; 204  : 		////////////////////////////////////////
; 205  : 		case VEC3D_TYPE_BOUNDING_BOX_MAX:
; 206  : 		////////////////////////////////////////
; 207  : 		{
; 208  : 			*v = raw->bounding_box_max;

  00044	8b 45 fc	 mov	 eax, DWORD PTR _raw$[ebp]
  00047	83 c0 50	 add	 eax, 80			; 00000050H
  0004a	8b 4d 10	 mov	 ecx, DWORD PTR _v$[ebp]
  0004d	8b 10		 mov	 edx, DWORD PTR [eax]
  0004f	89 11		 mov	 DWORD PTR [ecx], edx
  00051	8b 50 04	 mov	 edx, DWORD PTR [eax+4]
  00054	89 51 04	 mov	 DWORD PTR [ecx+4], edx
  00057	8b 40 08	 mov	 eax, DWORD PTR [eax+8]
  0005a	89 41 08	 mov	 DWORD PTR [ecx+8], eax

; 209  : 
; 210  : 			break;

  0005d	e9 8d 00 00 00	 jmp	 $LN1@get_local_
$LN6@get_local_:

; 211  : 		}
; 212  : 		////////////////////////////////////////
; 213  : 		case VEC3D_TYPE_BOUNDING_BOX_MIN:
; 214  : 		////////////////////////////////////////
; 215  : 		{
; 216  : 			*v = raw->bounding_box_min;

  00062	8b 45 fc	 mov	 eax, DWORD PTR _raw$[ebp]
  00065	83 c0 44	 add	 eax, 68			; 00000044H
  00068	8b 4d 10	 mov	 ecx, DWORD PTR _v$[ebp]
  0006b	8b 10		 mov	 edx, DWORD PTR [eax]
  0006d	89 11		 mov	 DWORD PTR [ecx], edx
  0006f	8b 50 04	 mov	 edx, DWORD PTR [eax+4]
  00072	89 51 04	 mov	 DWORD PTR [ecx+4], edx
  00075	8b 40 08	 mov	 eax, DWORD PTR [eax+8]
  00078	89 41 08	 mov	 DWORD PTR [ecx+8], eax

; 217  : 
; 218  : 			break;

  0007b	eb 72		 jmp	 SHORT $LN1@get_local_
$LN7@get_local_:

; 219  : 		}
; 220  : 		////////////////////////////////////////
; 221  : 		default:
; 222  : 		////////////////////////////////////////
; 223  : 		{
; 224  : 			debug_fatal_invalid_vec3d_type (en, type);

  0007d	83 7d 08 00	 cmp	 DWORD PTR _en$[ebp], 0
  00081	74 0a		 je	 SHORT $LN9@get_local_
  00083	8b 45 08	 mov	 eax, DWORD PTR _en$[ebp]
  00086	8b 08		 mov	 ecx, DWORD PTR [eax]
  00088	89 4d b8	 mov	 DWORD PTR tv91[ebp], ecx
  0008b	eb 21		 jmp	 SHORT $LN10@get_local_
$LN9@get_local_:
  0008d	8b 15 00 00 00
	00		 mov	 edx, DWORD PTR ?__LINE__Var@?0??get_local_vec3d@@YGXPAUENTITY@@W4VEC3D_TYPES@@PAUVEC3D@@@Z@4JA
  00093	83 c2 1e	 add	 edx, 30			; 0000001eH
  00096	52		 push	 edx
  00097	68 00 00 00 00	 push	 OFFSET ??_C@_0EJ@NGCGENCL@c?3?2users?2nhv90?2projects?2eech?2ap@
  0009c	a1 00 00 00 00	 mov	 eax, DWORD PTR ?null_entity_pointer_message@@3PBDB ; null_entity_pointer_message
  000a1	50		 push	 eax
  000a2	e8 00 00 00 00	 call	 ?process_assert@@YGXPBD0H@Z ; process_assert
  000a7	c7 45 b8 00 00
	00 00		 mov	 DWORD PTR tv91[ebp], 0
$LN10@get_local_:
  000ae	8b 0d 00 00 00
	00		 mov	 ecx, DWORD PTR ?__LINE__Var@?0??get_local_vec3d@@YGXPAUENTITY@@W4VEC3D_TYPES@@PAUVEC3D@@@Z@4JA
  000b4	83 c1 1e	 add	 ecx, 30			; 0000001eH
  000b7	51		 push	 ecx
  000b8	68 00 00 00 00	 push	 OFFSET ??_C@_0EJ@NGCGENCL@c?3?2users?2nhv90?2projects?2eech?2ap@
  000bd	6b 55 0c 0c	 imul	 edx, DWORD PTR _type$[ebp], 12
  000c1	8b 82 00 00 00
	00		 mov	 eax, DWORD PTR ?vec3d_type_database@@3PAUVEC3D_TYPE_DATA@@A[edx]
  000c7	50		 push	 eax
  000c8	8b 4d 08	 mov	 ecx, DWORD PTR _en$[ebp]
  000cb	2b 0d 00 00 00
	00		 sub	 ecx, DWORD PTR ?entities@@3PAUENTITY@@A ; entities
  000d1	c1 f9 04	 sar	 ecx, 4
  000d4	51		 push	 ecx
  000d5	6b 55 b8 0c	 imul	 edx, DWORD PTR tv91[ebp], 12
  000d9	8b 82 00 00 00
	00		 mov	 eax, DWORD PTR ?entity_type_database@@3PAUENTITY_TYPE_DATA@@A[edx]
  000df	50		 push	 eax
  000e0	8b 0d 00 00 00
	00		 mov	 ecx, DWORD PTR ?debug_fatal_invalid_vec3d_type_message@@3PBDB ; debug_fatal_invalid_vec3d_type_message
  000e6	51		 push	 ecx
  000e7	e8 00 00 00 00	 call	 ?debug_fatal@@YAXPBDZZ	; debug_fatal
  000ec	83 c4 18	 add	 esp, 24			; 00000018H
$LN1@get_local_:

; 225  : 
; 226  : 			break;
; 227  : 		}
; 228  : 	}
; 229  : }

  000ef	5f		 pop	 edi
  000f0	5e		 pop	 esi
  000f1	5b		 pop	 ebx
  000f2	8b e5		 mov	 esp, ebp
  000f4	5d		 pop	 ebp
  000f5	c2 0c 00	 ret	 12			; 0000000cH
?get_local_vec3d@@YGXPAUENTITY@@W4VEC3D_TYPES@@PAUVEC3D@@@Z ENDP ; get_local_vec3d
_TEXT	ENDS
; Function compile flags: /Odtp /ZI
; File c:\users\nhv90\projects\eech\aphavoc\source\entity\fixed\city\ct_vec3d.c
;	COMDAT ?overload_city_vec3d_functions@@YGXXZ
_TEXT	SEGMENT
?overload_city_vec3d_functions@@YGXXZ PROC		; overload_city_vec3d_functions, COMDAT

; 287  : {

  00000	55		 push	 ebp
  00001	8b ec		 mov	 ebp, esp
  00003	83 ec 40	 sub	 esp, 64			; 00000040H
  00006	53		 push	 ebx
  00007	56		 push	 esi
  00008	57		 push	 edi

; 288  : 	fn_get_local_entity_vec3d				[ENTITY_TYPE_CITY][VEC3D_TYPE_BOUNDING_BOX_MAX]	= get_local_vec3d;

  00009	b8 60 00 00 00	 mov	 eax, 96			; 00000060H
  0000e	6b c8 05	 imul	 ecx, eax, 5
  00011	ba 04 00 00 00	 mov	 edx, 4
  00016	6b c2 00	 imul	 eax, edx, 0
  00019	c7 84 01 00 00
	00 00 00 00 00
	00		 mov	 DWORD PTR ?fn_get_local_entity_vec3d@@3PAY0BI@P6GXPAUENTITY@@W4VEC3D_TYPES@@PAUVEC3D@@@ZA[ecx+eax], OFFSET ?get_local_vec3d@@YGXPAUENTITY@@W4VEC3D_TYPES@@PAUVEC3D@@@Z ; get_local_vec3d

; 289  : 	fn_get_local_entity_vec3d_ptr			[ENTITY_TYPE_CITY][VEC3D_TYPE_BOUNDING_BOX_MAX]	= get_local_vec3d_ptr;

  00024	b8 60 00 00 00	 mov	 eax, 96			; 00000060H
  00029	6b c8 05	 imul	 ecx, eax, 5
  0002c	ba 04 00 00 00	 mov	 edx, 4
  00031	6b c2 00	 imul	 eax, edx, 0
  00034	c7 84 01 00 00
	00 00 00 00 00
	00		 mov	 DWORD PTR ?fn_get_local_entity_vec3d_ptr@@3PAY0BI@P6GPAUVEC3D@@PAUENTITY@@W4VEC3D_TYPES@@@ZA[ecx+eax], OFFSET ?get_local_vec3d_ptr@@YGPAUVEC3D@@PAUENTITY@@W4VEC3D_TYPES@@@Z ; get_local_vec3d_ptr

; 290  : 
; 291  : 	fn_get_local_entity_vec3d				[ENTITY_TYPE_CITY][VEC3D_TYPE_BOUNDING_BOX_MIN]	= get_local_vec3d;

  0003f	b8 60 00 00 00	 mov	 eax, 96			; 00000060H
  00044	6b c8 05	 imul	 ecx, eax, 5
  00047	ba 04 00 00 00	 mov	 edx, 4
  0004c	c1 e2 00	 shl	 edx, 0
  0004f	c7 84 11 00 00
	00 00 00 00 00
	00		 mov	 DWORD PTR ?fn_get_local_entity_vec3d@@3PAY0BI@P6GXPAUENTITY@@W4VEC3D_TYPES@@PAUVEC3D@@@ZA[ecx+edx], OFFSET ?get_local_vec3d@@YGXPAUENTITY@@W4VEC3D_TYPES@@PAUVEC3D@@@Z ; get_local_vec3d

; 292  : 	fn_get_local_entity_vec3d_ptr			[ENTITY_TYPE_CITY][VEC3D_TYPE_BOUNDING_BOX_MIN]	= get_local_vec3d_ptr;

  0005a	b8 60 00 00 00	 mov	 eax, 96			; 00000060H
  0005f	6b c8 05	 imul	 ecx, eax, 5
  00062	ba 04 00 00 00	 mov	 edx, 4
  00067	c1 e2 00	 shl	 edx, 0
  0006a	c7 84 11 00 00
	00 00 00 00 00
	00		 mov	 DWORD PTR ?fn_get_local_entity_vec3d_ptr@@3PAY0BI@P6GPAUVEC3D@@PAUENTITY@@W4VEC3D_TYPES@@@ZA[ecx+edx], OFFSET ?get_local_vec3d_ptr@@YGPAUVEC3D@@PAUENTITY@@W4VEC3D_TYPES@@@Z ; get_local_vec3d_ptr

; 293  : }

  00075	5f		 pop	 edi
  00076	5e		 pop	 esi
  00077	5b		 pop	 ebx
  00078	8b e5		 mov	 esp, ebp
  0007a	5d		 pop	 ebp
  0007b	c3		 ret	 0
?overload_city_vec3d_functions@@YGXXZ ENDP		; overload_city_vec3d_functions
_TEXT	ENDS
END
