; Listing generated by Microsoft (R) Optimizing Compiler Version 19.16.27045.0 

	TITLE	C:\Users\nhv90\Projects\eech\aphavoc\source\ui_menu\dedicate\dedi_sc.c
	.686P
	.XMM
	include listing.inc
	.model	flat

INCLUDELIB MSVCRTD
INCLUDELIB OLDNAMES

PUBLIC	?dedicated_server_screen@@3PAUUI_OBJECT@@A	; dedicated_server_screen
PUBLIC	?dedicated_server_screen_texture@@3PAUTEXTURE_GRAPHIC@@A ; dedicated_server_screen_texture
_BSS	SEGMENT
?dedicated_server_screen@@3PAUUI_OBJECT@@A DD 01H DUP (?) ; dedicated_server_screen
?dedicated_server_screen_texture@@3PAUTEXTURE_GRAPHIC@@A DD 01H DUP (?) ; dedicated_server_screen_texture
_BSS	ENDS
PUBLIC	___local_stdio_printf_options
PUBLIC	__vsnprintf_l
PUBLIC	__vsprintf_l
PUBLIC	_sprintf
PUBLIC	?initialise_dedicated_server_screen@@YGXXZ	; initialise_dedicated_server_screen
PUBLIC	?dedicated_server_function@@YGXPAUUI_OBJECT@@PAX@Z ; dedicated_server_function
PUBLIC	?_OptionsStorage@?1??__local_stdio_printf_options@@9@4_KA ; `__local_stdio_printf_options'::`2'::_OptionsStorage
PUBLIC	??_C@_0BB@OENKLFNO@Dedicated?5Server@		; `string'
PUBLIC	??_C@_07JEGGIJNH@UI_EXIT@			; `string'
PUBLIC	?__LINE__Var@?0??dedicated_server_function@@YGXPAUUI_OBJECT@@PAX@Z@4JA ; `dedicated_server_function'::`1'::__LINE__Var
PUBLIC	??_C@_0EH@IEGMCDJ@c?3?2users?2nhv90?2projects?2eech?2ap@ ; `string'
PUBLIC	??_C@_0BF@BGCJAHKO@current_game_session@	; `string'
PUBLIC	??_C@_0CB@LNCFAAHD@graphics?2ui?2cohokum?2demoload?4ps@ ; `string'
PUBLIC	??_C@_0L@PEPDCPHB@Title?5?3?5?$CFs@		; `string'
PUBLIC	??_C@_08LAJJNLBO@Map?5?3?5?$CFs@		; `string'
PUBLIC	??_C@_09MPPAGMIO@Game?5?3?5?$CFs@		; `string'
PUBLIC	?__LINE__Var@?0??dedicated_server_build_player_list@@YGXXZ@4JA ; `dedicated_server_build_player_list'::`1'::__LINE__Var
PUBLIC	?__LINE__Var@?0??dedicated_screen_update_function@@YGXPAUUI_OBJECT@@PAX@Z@4JA ; `dedicated_screen_update_function'::`1'::__LINE__Var
PUBLIC	??_C@_0CE@OIAINFCD@command_line_comms_dedicated_se@ ; `string'
PUBLIC	??_C@_0CJ@DODDAFAK@DEDI_SC?3?5Exiting?5game?5as?5no?5cli@ ; `string'
PUBLIC	??_C@_0BH@NOCBNMAN@Day?5?$CFd?0?5?$CF02d?3?$CF02d?3?$CF02d@ ; `string'
PUBLIC	__real@3d4ccccd
PUBLIC	__real@3e000000
PUBLIC	__real@3e333333
PUBLIC	__real@3f19999a
PUBLIC	__real@3f1eb852
PUBLIC	__real@3f733333
PUBLIC	__real@3fb0000000000000
PUBLIC	__real@3fc0000000000000
PUBLIC	__real@3fc2221c8a7a41e5
PUBLIC	__real@3fe51eb851eb851f
PUBLIC	__real@3fecaaa3ad18d25f
PUBLIC	__real@3ff0000000000000
PUBLIC	__real@4028000000000000
PUBLIC	__real@4072c00000000000
EXTRN	__imp____stdio_common_vsprintf:PROC
EXTRN	?process_assert@@YGXPBD0H@Z:PROC		; process_assert
EXTRN	?debug_log@@YAXPBDZZ:PROC			; debug_log
EXTRN	?set_mouse_on@@YGXXZ:PROC			; set_mouse_on
EXTRN	?set_mouse_graphic_on@@YGXXZ:PROC		; set_mouse_graphic_on
EXTRN	?blit_front_buffer_to_render_buffer@@YGXXZ:PROC	; blit_front_buffer_to_render_buffer
EXTRN	?create_texture_graphic@@YGPAUTEXTURE_GRAPHIC@@PBD@Z:PROC ; create_texture_graphic
EXTRN	?destroy_texture_graphic@@YGXPAUTEXTURE_GRAPHIC@@@Z:PROC ; destroy_texture_graphic
EXTRN	?ui_set_user_function@@YGXP6GXXZ@Z:PROC		; ui_set_user_function
EXTRN	?create_ui_object@@YAPAUUI_OBJECT@@HZZ:PROC	; create_ui_object
EXTRN	?ui_object_destroy_list_items@@YGXPAUUI_OBJECT@@@Z:PROC ; ui_object_destroy_list_items
EXTRN	?add_to_pop_up_list@@YGPAUUI_OBJECT@@PBDPAU1@1HHUREAL_COLOUR@@@Z:PROC ; add_to_pop_up_list
EXTRN	?get_connection_list_head@@YGPAUCONNECTION_LIST_TYPE@@XZ:PROC ; get_connection_list_head
EXTRN	?exit_apache_havoc@@YGXPAUEVENT@@@Z:PROC	; exit_apache_havoc
EXTRN	?start_game_exit@@YGXW4GAME_EXIT_TYPES@@H@Z:PROC ; start_game_exit
EXTRN	?get_digital_countdown_values@@YGXMPAH000@Z:PROC ; get_digital_countdown_values
EXTRN	?get_trans@@YGPBDPBD@Z:PROC			; get_trans
EXTRN	?set_frontend_slider_graphics@@YGXPAUUI_OBJECT@@@Z:PROC ; set_frontend_slider_graphics
EXTRN	?fn_get_ui_object_drawable@@3PAP6GHPAUUI_OBJECT@@@ZA:BYTE ; fn_get_ui_object_drawable
EXTRN	?fn_set_ui_object_redraw@@3PAP6GXPAUUI_OBJECT@@H@ZA:BYTE ; fn_set_ui_object_redraw
EXTRN	?fn_set_ui_object_text@@3PAP6GXPAUUI_OBJECT@@PBD@ZA:BYTE ; fn_set_ui_object_text
EXTRN	?fn_set_ui_object_graphic@@3PAP6GXPAUUI_OBJECT@@PAG@ZA:BYTE ; fn_set_ui_object_graphic
EXTRN	?fn_set_ui_object_texture_graphic@@3PAP6GXPAUUI_OBJECT@@PAUTEXTURE_GRAPHIC@@@ZA:BYTE ; fn_set_ui_object_texture_graphic
EXTRN	?command_line_comms_dedicated_server@@3HA:DWORD	; command_line_comms_dedicated_server
EXTRN	?graphics_files@@3PAUFILE_DATA@@A:BYTE		; graphics_files
EXTRN	?null_entity_pointer_message@@3PBDB:DWORD	; null_entity_pointer_message
EXTRN	?overload_invalid_list_type_message@@3PBDB:DWORD ; overload_invalid_list_type_message
EXTRN	?fn_get_local_entity_first_child@@3PAY0CN@P6GPAUENTITY@@PAU1@W4LIST_TYPES@@@ZA:BYTE ; fn_get_local_entity_first_child
EXTRN	?fn_get_local_entity_child_succ@@3PAY0CN@P6GPAUENTITY@@PAU1@W4LIST_TYPES@@@ZA:BYTE ; fn_get_local_entity_child_succ
EXTRN	?overload_invalid_float_type_message@@3PBDB:DWORD ; overload_invalid_float_type_message
EXTRN	?fn_get_local_entity_float_value@@3PAY0KP@P6GMPAUENTITY@@W4FLOAT_TYPES@@@ZA:BYTE ; fn_get_local_entity_float_value
EXTRN	?overload_invalid_int_type_message@@3PBDB:DWORD	; overload_invalid_int_type_message
EXTRN	?fn_get_local_entity_int_value@@3PAY0BBH@P6GHPAUENTITY@@W4INT_TYPES@@@ZA:BYTE ; fn_get_local_entity_int_value
EXTRN	?overload_invalid_string_type_message@@3PBDB:DWORD ; overload_invalid_string_type_message
EXTRN	?fn_get_local_entity_string@@3PAY0N@P6GPBDPAUENTITY@@W4STRING_TYPES@@@ZA:BYTE ; fn_get_local_entity_string
EXTRN	?pilot_entity@@3PAUENTITY@@A:DWORD		; pilot_entity
EXTRN	?session_entity@@3PAUENTITY@@A:DWORD		; session_entity
EXTRN	?main_screen_texture@@3PAUTEXTURE_GRAPHIC@@A:DWORD ; main_screen_texture
EXTRN	?list_box_graphic@@3PAUTEXTURE_GRAPHIC@@A:DWORD	; list_box_graphic
EXTRN	?current_game_session@@3PAUSESSION_LIST_DATA_TYPE@@A:DWORD ; current_game_session
EXTRN	__fltused:DWORD
;	COMDAT ?_OptionsStorage@?1??__local_stdio_printf_options@@9@4_KA
_BSS	SEGMENT
?_OptionsStorage@?1??__local_stdio_printf_options@@9@4_KA DQ 01H DUP (?) ; `__local_stdio_printf_options'::`2'::_OptionsStorage
_BSS	ENDS
_BSS	SEGMENT
?player_list@@3PAUUI_OBJECT@@A DD 01H DUP (?)		; player_list
?player_list_area@@3PAUUI_OBJECT@@A DD 01H DUP (?)	; player_list_area
?dedicated_server_quit_button@@3PAUUI_OBJECT@@A DD 01H DUP (?) ; dedicated_server_quit_button
?dedicated_server_title_text@@3PAUUI_OBJECT@@A DD 01H DUP (?) ; dedicated_server_title_text
?dedicated_server_map_text@@3PAUUI_OBJECT@@A DD 01H DUP (?) ; dedicated_server_map_text
?dedicated_server_game_text@@3PAUUI_OBJECT@@A DD 01H DUP (?) ; dedicated_server_game_text
?dedicated_server_time_text@@3PAUUI_OBJECT@@A DD 01H DUP (?) ; dedicated_server_time_text
_BSS	ENDS
;	COMDAT __real@4072c00000000000
CONST	SEGMENT
__real@4072c00000000000 DQ 04072c00000000000r	; 300
CONST	ENDS
;	COMDAT __real@4028000000000000
CONST	SEGMENT
__real@4028000000000000 DQ 04028000000000000r	; 12
CONST	ENDS
;	COMDAT __real@3ff0000000000000
CONST	SEGMENT
__real@3ff0000000000000 DQ 03ff0000000000000r	; 1
CONST	ENDS
;	COMDAT __real@3fecaaa3ad18d25f
CONST	SEGMENT
__real@3fecaaa3ad18d25f DQ 03fecaaa3ad18d25fr	; 0.89583
CONST	ENDS
;	COMDAT __real@3fe51eb851eb851f
CONST	SEGMENT
__real@3fe51eb851eb851f DQ 03fe51eb851eb851fr	; 0.66
CONST	ENDS
;	COMDAT __real@3fc2221c8a7a41e5
CONST	SEGMENT
__real@3fc2221c8a7a41e5 DQ 03fc2221c8a7a41e5r	; 0.141666
CONST	ENDS
;	COMDAT __real@3fc0000000000000
CONST	SEGMENT
__real@3fc0000000000000 DQ 03fc0000000000000r	; 0.125
CONST	ENDS
;	COMDAT __real@3fb0000000000000
CONST	SEGMENT
__real@3fb0000000000000 DQ 03fb0000000000000r	; 0.0625
CONST	ENDS
;	COMDAT __real@3f733333
CONST	SEGMENT
__real@3f733333 DD 03f733333r			; 0.95
CONST	ENDS
;	COMDAT __real@3f1eb852
CONST	SEGMENT
__real@3f1eb852 DD 03f1eb852r			; 0.62
CONST	ENDS
;	COMDAT __real@3f19999a
CONST	SEGMENT
__real@3f19999a DD 03f19999ar			; 0.6
CONST	ENDS
;	COMDAT __real@3e333333
CONST	SEGMENT
__real@3e333333 DD 03e333333r			; 0.175
CONST	ENDS
;	COMDAT __real@3e000000
CONST	SEGMENT
__real@3e000000 DD 03e000000r			; 0.125
CONST	ENDS
;	COMDAT __real@3d4ccccd
CONST	SEGMENT
__real@3d4ccccd DD 03d4ccccdr			; 0.05
CONST	ENDS
;	COMDAT ??_C@_0BH@NOCBNMAN@Day?5?$CFd?0?5?$CF02d?3?$CF02d?3?$CF02d@
CONST	SEGMENT
??_C@_0BH@NOCBNMAN@Day?5?$CFd?0?5?$CF02d?3?$CF02d?3?$CF02d@ DB 'Day %d, %'
	DB	'02d:%02d:%02d', 00H				; `string'
CONST	ENDS
;	COMDAT ??_C@_0CJ@DODDAFAK@DEDI_SC?3?5Exiting?5game?5as?5no?5cli@
CONST	SEGMENT
??_C@_0CJ@DODDAFAK@DEDI_SC?3?5Exiting?5game?5as?5no?5cli@ DB 'DEDI_SC: Ex'
	DB	'iting game as no clients left', 00H		; `string'
CONST	ENDS
;	COMDAT ??_C@_0CE@OIAINFCD@command_line_comms_dedicated_se@
CONST	SEGMENT
??_C@_0CE@OIAINFCD@command_line_comms_dedicated_se@ DB 'command_line_comm'
	DB	's_dedicated_server', 00H			; `string'
CONST	ENDS
;	COMDAT ?__LINE__Var@?0??dedicated_screen_update_function@@YGXPAUUI_OBJECT@@PAX@Z@4JA
_DATA	SEGMENT
?__LINE__Var@?0??dedicated_screen_update_function@@YGXPAUUI_OBJECT@@PAX@Z@4JA DD 017fH ; `dedicated_screen_update_function'::`1'::__LINE__Var
_DATA	ENDS
;	COMDAT ?__LINE__Var@?0??dedicated_server_build_player_list@@YGXXZ@4JA
_DATA	SEGMENT
?__LINE__Var@?0??dedicated_server_build_player_list@@YGXXZ@4JA DD 0152H ; `dedicated_server_build_player_list'::`1'::__LINE__Var
_DATA	ENDS
;	COMDAT ??_C@_09MPPAGMIO@Game?5?3?5?$CFs@
CONST	SEGMENT
??_C@_09MPPAGMIO@Game?5?3?5?$CFs@ DB 'Game : %s', 00H	; `string'
CONST	ENDS
;	COMDAT ??_C@_08LAJJNLBO@Map?5?3?5?$CFs@
CONST	SEGMENT
??_C@_08LAJJNLBO@Map?5?3?5?$CFs@ DB 'Map : %s', 00H	; `string'
CONST	ENDS
;	COMDAT ??_C@_0L@PEPDCPHB@Title?5?3?5?$CFs@
CONST	SEGMENT
??_C@_0L@PEPDCPHB@Title?5?3?5?$CFs@ DB 'Title : %s', 00H ; `string'
CONST	ENDS
;	COMDAT ??_C@_0CB@LNCFAAHD@graphics?2ui?2cohokum?2demoload?4ps@
CONST	SEGMENT
??_C@_0CB@LNCFAAHD@graphics?2ui?2cohokum?2demoload?4ps@ DB 'graphics\ui\c'
	DB	'ohokum\demoload.psd', 00H			; `string'
CONST	ENDS
;	COMDAT ??_C@_0BF@BGCJAHKO@current_game_session@
CONST	SEGMENT
??_C@_0BF@BGCJAHKO@current_game_session@ DB 'current_game_session', 00H ; `string'
CONST	ENDS
;	COMDAT ??_C@_0EH@IEGMCDJ@c?3?2users?2nhv90?2projects?2eech?2ap@
CONST	SEGMENT
??_C@_0EH@IEGMCDJ@c?3?2users?2nhv90?2projects?2eech?2ap@ DB 'c:\users\nhv'
	DB	'90\projects\eech\aphavoc\source\ui_menu\dedicate\dedi_sc.c', 00H ; `string'
CONST	ENDS
;	COMDAT ?__LINE__Var@?0??dedicated_server_function@@YGXPAUUI_OBJECT@@PAX@Z@4JA
_DATA	SEGMENT
?__LINE__Var@?0??dedicated_server_function@@YGXPAUUI_OBJECT@@PAX@Z@4JA DD 0114H ; `dedicated_server_function'::`1'::__LINE__Var
_DATA	ENDS
;	COMDAT ??_C@_07JEGGIJNH@UI_EXIT@
CONST	SEGMENT
??_C@_07JEGGIJNH@UI_EXIT@ DB 'UI_EXIT', 00H		; `string'
CONST	ENDS
;	COMDAT ??_C@_0BB@OENKLFNO@Dedicated?5Server@
CONST	SEGMENT
??_C@_0BB@OENKLFNO@Dedicated?5Server@ DB 'Dedicated Server', 00H ; `string'
CONST	ENDS
; Function compile flags: /Odtp /ZI
; File c:\users\nhv90\projects\eech\aphavoc\source\ui_menu\dedicate\dedi_sc.c
;	COMDAT ?dedicated_server_build_player_list@@YGXXZ
_TEXT	SEGMENT
tv220 = -88						; size = 4
tv200 = -88						; size = 4
tv180 = -88						; size = 4
tv154 = -88						; size = 4
tv132 = -88						; size = 4
tv79 = -88						; size = 4
tv212 = -84						; size = 4
tv192 = -84						; size = 4
tv172 = -84						; size = 4
tv146 = -84						; size = 4
tv92 = -84						; size = 4
tv71 = -84						; size = 4
_col$ = -16						; size = 4
_side$ = -12						; size = 4
_pilot$ = -8						; size = 4
_force$ = -4						; size = 4
?dedicated_server_build_player_list@@YGXXZ PROC		; dedicated_server_build_player_list, COMDAT

; 338  : {

  00000	55		 push	 ebp
  00001	8b ec		 mov	 ebp, esp
  00003	83 ec 58	 sub	 esp, 88			; 00000058H
  00006	53		 push	 ebx
  00007	56		 push	 esi
  00008	57		 push	 edi

; 339  : 	entity
; 340  : 		*force,
; 341  : 		*pilot;
; 342  : 
; 343  : 	entity_sides
; 344  : 		side;
; 345  : 
; 346  : 	rgb_colour
; 347  : 		col;
; 348  : 
; 349  : 	ui_object_destroy_list_items (player_list);

  00009	a1 00 00 00 00	 mov	 eax, DWORD PTR ?player_list@@3PAUUI_OBJECT@@A
  0000e	50		 push	 eax
  0000f	e8 00 00 00 00	 call	 ?ui_object_destroy_list_items@@YGXPAUUI_OBJECT@@@Z ; ui_object_destroy_list_items

; 350  : 
; 351  : 	force = get_local_entity_first_child (get_session_entity (), LIST_TYPE_FORCE);

  00014	83 3d 00 00 00
	00 00		 cmp	 DWORD PTR ?session_entity@@3PAUENTITY@@A, 0 ; session_entity
  0001b	74 0c		 je	 SHORT $LN8@dedicated_
  0001d	a1 00 00 00 00	 mov	 eax, DWORD PTR ?session_entity@@3PAUENTITY@@A ; session_entity
  00022	8b 08		 mov	 ecx, DWORD PTR [eax]
  00024	89 4d ac	 mov	 DWORD PTR tv71[ebp], ecx
  00027	eb 21		 jmp	 SHORT $LN9@dedicated_
$LN8@dedicated_:
  00029	8b 15 00 00 00
	00		 mov	 edx, DWORD PTR ?__LINE__Var@?0??dedicated_server_build_player_list@@YGXXZ@4JA
  0002f	83 c2 0d	 add	 edx, 13			; 0000000dH
  00032	52		 push	 edx
  00033	68 00 00 00 00	 push	 OFFSET ??_C@_0EH@IEGMCDJ@c?3?2users?2nhv90?2projects?2eech?2ap@
  00038	a1 00 00 00 00	 mov	 eax, DWORD PTR ?null_entity_pointer_message@@3PBDB ; null_entity_pointer_message
  0003d	50		 push	 eax
  0003e	e8 00 00 00 00	 call	 ?process_assert@@YGXPBD0H@Z ; process_assert
  00043	c7 45 ac 00 00
	00 00		 mov	 DWORD PTR tv71[ebp], 0
$LN9@dedicated_:
  0004a	b9 01 00 00 00	 mov	 ecx, 1
  0004f	85 c9		 test	 ecx, ecx
  00051	74 09		 je	 SHORT $LN10@dedicated_
  00053	c7 45 a8 0e 00
	00 00		 mov	 DWORD PTR tv79[ebp], 14	; 0000000eH
  0005a	eb 21		 jmp	 SHORT $LN11@dedicated_
$LN10@dedicated_:
  0005c	8b 15 00 00 00
	00		 mov	 edx, DWORD PTR ?__LINE__Var@?0??dedicated_server_build_player_list@@YGXXZ@4JA
  00062	83 c2 0d	 add	 edx, 13			; 0000000dH
  00065	52		 push	 edx
  00066	68 00 00 00 00	 push	 OFFSET ??_C@_0EH@IEGMCDJ@c?3?2users?2nhv90?2projects?2eech?2ap@
  0006b	a1 00 00 00 00	 mov	 eax, DWORD PTR ?overload_invalid_list_type_message@@3PBDB ; overload_invalid_list_type_message
  00070	50		 push	 eax
  00071	e8 00 00 00 00	 call	 ?process_assert@@YGXPBD0H@Z ; process_assert
  00076	c7 45 a8 00 00
	00 00		 mov	 DWORD PTR tv79[ebp], 0
$LN11@dedicated_:
  0007d	6a 0e		 push	 14			; 0000000eH
  0007f	8b 0d 00 00 00
	00		 mov	 ecx, DWORD PTR ?session_entity@@3PAUENTITY@@A ; session_entity
  00085	51		 push	 ecx
  00086	69 55 ac b4 00
	00 00		 imul	 edx, DWORD PTR tv71[ebp], 180
  0008d	8b 45 a8	 mov	 eax, DWORD PTR tv79[ebp]
  00090	8b 8c 82 00 00
	00 00		 mov	 ecx, DWORD PTR ?fn_get_local_entity_first_child@@3PAY0CN@P6GPAUENTITY@@PAU1@W4LIST_TYPES@@@ZA[edx+eax*4]
  00097	ff d1		 call	 ecx
  00099	89 45 fc	 mov	 DWORD PTR _force$[ebp], eax
$LN2@dedicated_:

; 352  : 
; 353  : 	while (force)

  0009c	83 7d fc 00	 cmp	 DWORD PTR _force$[ebp], 0
  000a0	0f 84 c7 02 00
	00		 je	 $LN1@dedicated_

; 354  : 	{
; 355  : 		pilot = get_local_entity_first_child (force, LIST_TYPE_PILOT);

  000a6	83 7d fc 00	 cmp	 DWORD PTR _force$[ebp], 0
  000aa	74 0a		 je	 SHORT $LN12@dedicated_
  000ac	8b 45 fc	 mov	 eax, DWORD PTR _force$[ebp]
  000af	8b 08		 mov	 ecx, DWORD PTR [eax]
  000b1	89 4d ac	 mov	 DWORD PTR tv92[ebp], ecx
  000b4	eb 21		 jmp	 SHORT $LN13@dedicated_
$LN12@dedicated_:
  000b6	8b 15 00 00 00
	00		 mov	 edx, DWORD PTR ?__LINE__Var@?0??dedicated_server_build_player_list@@YGXXZ@4JA
  000bc	83 c2 11	 add	 edx, 17			; 00000011H
  000bf	52		 push	 edx
  000c0	68 00 00 00 00	 push	 OFFSET ??_C@_0EH@IEGMCDJ@c?3?2users?2nhv90?2projects?2eech?2ap@
  000c5	a1 00 00 00 00	 mov	 eax, DWORD PTR ?null_entity_pointer_message@@3PBDB ; null_entity_pointer_message
  000ca	50		 push	 eax
  000cb	e8 00 00 00 00	 call	 ?process_assert@@YGXPBD0H@Z ; process_assert
  000d0	c7 45 ac 00 00
	00 00		 mov	 DWORD PTR tv92[ebp], 0
$LN13@dedicated_:
  000d7	b9 01 00 00 00	 mov	 ecx, 1
  000dc	85 c9		 test	 ecx, ecx
  000de	74 09		 je	 SHORT $LN14@dedicated_
  000e0	c7 45 a8 1c 00
	00 00		 mov	 DWORD PTR tv132[ebp], 28 ; 0000001cH
  000e7	eb 21		 jmp	 SHORT $LN15@dedicated_
$LN14@dedicated_:
  000e9	8b 15 00 00 00
	00		 mov	 edx, DWORD PTR ?__LINE__Var@?0??dedicated_server_build_player_list@@YGXXZ@4JA
  000ef	83 c2 11	 add	 edx, 17			; 00000011H
  000f2	52		 push	 edx
  000f3	68 00 00 00 00	 push	 OFFSET ??_C@_0EH@IEGMCDJ@c?3?2users?2nhv90?2projects?2eech?2ap@
  000f8	a1 00 00 00 00	 mov	 eax, DWORD PTR ?overload_invalid_list_type_message@@3PBDB ; overload_invalid_list_type_message
  000fd	50		 push	 eax
  000fe	e8 00 00 00 00	 call	 ?process_assert@@YGXPBD0H@Z ; process_assert
  00103	c7 45 a8 00 00
	00 00		 mov	 DWORD PTR tv132[ebp], 0
$LN15@dedicated_:
  0010a	6a 1c		 push	 28			; 0000001cH
  0010c	8b 4d fc	 mov	 ecx, DWORD PTR _force$[ebp]
  0010f	51		 push	 ecx
  00110	69 55 ac b4 00
	00 00		 imul	 edx, DWORD PTR tv92[ebp], 180
  00117	8b 45 a8	 mov	 eax, DWORD PTR tv132[ebp]
  0011a	8b 8c 82 00 00
	00 00		 mov	 ecx, DWORD PTR ?fn_get_local_entity_first_child@@3PAY0CN@P6GPAUENTITY@@PAU1@W4LIST_TYPES@@@ZA[edx+eax*4]
  00121	ff d1		 call	 ecx
  00123	89 45 f8	 mov	 DWORD PTR _pilot$[ebp], eax
$LN4@dedicated_:

; 356  : 
; 357  : 		while (pilot)

  00126	83 7d f8 00	 cmp	 DWORD PTR _pilot$[ebp], 0
  0012a	0f 84 b8 01 00
	00		 je	 $LN5@dedicated_

; 358  : 		{
; 359  : 			if (pilot != get_pilot_entity ())

  00130	8b 45 f8	 mov	 eax, DWORD PTR _pilot$[ebp]
  00133	3b 05 00 00 00
	00		 cmp	 eax, DWORD PTR ?pilot_entity@@3PAUENTITY@@A ; pilot_entity
  00139	0f 84 24 01 00
	00		 je	 $LN6@dedicated_

; 360  : 			{
; 361  : 				side = (entity_sides) get_local_entity_int_value (pilot, INT_TYPE_SIDE);

  0013f	83 7d f8 00	 cmp	 DWORD PTR _pilot$[ebp], 0
  00143	74 0a		 je	 SHORT $LN16@dedicated_
  00145	8b 45 f8	 mov	 eax, DWORD PTR _pilot$[ebp]
  00148	8b 08		 mov	 ecx, DWORD PTR [eax]
  0014a	89 4d ac	 mov	 DWORD PTR tv146[ebp], ecx
  0014d	eb 21		 jmp	 SHORT $LN17@dedicated_
$LN16@dedicated_:
  0014f	8b 15 00 00 00
	00		 mov	 edx, DWORD PTR ?__LINE__Var@?0??dedicated_server_build_player_list@@YGXXZ@4JA
  00155	83 c2 17	 add	 edx, 23			; 00000017H
  00158	52		 push	 edx
  00159	68 00 00 00 00	 push	 OFFSET ??_C@_0EH@IEGMCDJ@c?3?2users?2nhv90?2projects?2eech?2ap@
  0015e	a1 00 00 00 00	 mov	 eax, DWORD PTR ?null_entity_pointer_message@@3PBDB ; null_entity_pointer_message
  00163	50		 push	 eax
  00164	e8 00 00 00 00	 call	 ?process_assert@@YGXPBD0H@Z ; process_assert
  00169	c7 45 ac 00 00
	00 00		 mov	 DWORD PTR tv146[ebp], 0
$LN17@dedicated_:
  00170	b9 01 00 00 00	 mov	 ecx, 1
  00175	85 c9		 test	 ecx, ecx
  00177	74 09		 je	 SHORT $LN18@dedicated_
  00179	c7 45 a8 bb 00
	00 00		 mov	 DWORD PTR tv154[ebp], 187 ; 000000bbH
  00180	eb 21		 jmp	 SHORT $LN19@dedicated_
$LN18@dedicated_:
  00182	8b 15 00 00 00
	00		 mov	 edx, DWORD PTR ?__LINE__Var@?0??dedicated_server_build_player_list@@YGXXZ@4JA
  00188	83 c2 17	 add	 edx, 23			; 00000017H
  0018b	52		 push	 edx
  0018c	68 00 00 00 00	 push	 OFFSET ??_C@_0EH@IEGMCDJ@c?3?2users?2nhv90?2projects?2eech?2ap@
  00191	a1 00 00 00 00	 mov	 eax, DWORD PTR ?overload_invalid_int_type_message@@3PBDB ; overload_invalid_int_type_message
  00196	50		 push	 eax
  00197	e8 00 00 00 00	 call	 ?process_assert@@YGXPBD0H@Z ; process_assert
  0019c	c7 45 a8 00 00
	00 00		 mov	 DWORD PTR tv154[ebp], 0
$LN19@dedicated_:
  001a3	68 bb 00 00 00	 push	 187			; 000000bbH
  001a8	8b 4d f8	 mov	 ecx, DWORD PTR _pilot$[ebp]
  001ab	51		 push	 ecx
  001ac	69 55 ac 5c 04
	00 00		 imul	 edx, DWORD PTR tv146[ebp], 1116
  001b3	8b 45 a8	 mov	 eax, DWORD PTR tv154[ebp]
  001b6	8b 8c 82 00 00
	00 00		 mov	 ecx, DWORD PTR ?fn_get_local_entity_int_value@@3PAY0BBH@P6GHPAUENTITY@@W4INT_TYPES@@@ZA[edx+eax*4]
  001bd	ff d1		 call	 ecx
  001bf	89 45 f4	 mov	 DWORD PTR _side$[ebp], eax

; 362  : 
; 363  : 				col.r = 255;

  001c2	c6 45 f2 ff	 mov	 BYTE PTR _col$[ebp+2], 255 ; 000000ffH

; 364  : 				col.g = 255;

  001c6	c6 45 f1 ff	 mov	 BYTE PTR _col$[ebp+1], 255 ; 000000ffH

; 365  : 				col.b = 255;

  001ca	c6 45 f0 ff	 mov	 BYTE PTR _col$[ebp], 255 ; 000000ffH

; 366  : 				col.a = 255;

  001ce	c6 45 f3 ff	 mov	 BYTE PTR _col$[ebp+3], 255 ; 000000ffH

; 367  : 
; 368  : 				add_to_pop_up_list (get_local_entity_string (pilot, STRING_TYPE_PILOTS_NAME), player_list, NULL, 0, UI_FONT_ARIAL_16, col);

  001d2	83 7d f8 00	 cmp	 DWORD PTR _pilot$[ebp], 0
  001d6	74 0a		 je	 SHORT $LN20@dedicated_
  001d8	8b 45 f8	 mov	 eax, DWORD PTR _pilot$[ebp]
  001db	8b 08		 mov	 ecx, DWORD PTR [eax]
  001dd	89 4d ac	 mov	 DWORD PTR tv172[ebp], ecx
  001e0	eb 21		 jmp	 SHORT $LN21@dedicated_
$LN20@dedicated_:
  001e2	8b 15 00 00 00
	00		 mov	 edx, DWORD PTR ?__LINE__Var@?0??dedicated_server_build_player_list@@YGXXZ@4JA
  001e8	83 c2 1e	 add	 edx, 30			; 0000001eH
  001eb	52		 push	 edx
  001ec	68 00 00 00 00	 push	 OFFSET ??_C@_0EH@IEGMCDJ@c?3?2users?2nhv90?2projects?2eech?2ap@
  001f1	a1 00 00 00 00	 mov	 eax, DWORD PTR ?null_entity_pointer_message@@3PBDB ; null_entity_pointer_message
  001f6	50		 push	 eax
  001f7	e8 00 00 00 00	 call	 ?process_assert@@YGXPBD0H@Z ; process_assert
  001fc	c7 45 ac 00 00
	00 00		 mov	 DWORD PTR tv172[ebp], 0
$LN21@dedicated_:
  00203	b9 01 00 00 00	 mov	 ecx, 1
  00208	85 c9		 test	 ecx, ecx
  0020a	74 09		 je	 SHORT $LN22@dedicated_
  0020c	c7 45 a8 0a 00
	00 00		 mov	 DWORD PTR tv180[ebp], 10 ; 0000000aH
  00213	eb 21		 jmp	 SHORT $LN23@dedicated_
$LN22@dedicated_:
  00215	8b 15 00 00 00
	00		 mov	 edx, DWORD PTR ?__LINE__Var@?0??dedicated_server_build_player_list@@YGXXZ@4JA
  0021b	83 c2 1e	 add	 edx, 30			; 0000001eH
  0021e	52		 push	 edx
  0021f	68 00 00 00 00	 push	 OFFSET ??_C@_0EH@IEGMCDJ@c?3?2users?2nhv90?2projects?2eech?2ap@
  00224	a1 00 00 00 00	 mov	 eax, DWORD PTR ?overload_invalid_string_type_message@@3PBDB ; overload_invalid_string_type_message
  00229	50		 push	 eax
  0022a	e8 00 00 00 00	 call	 ?process_assert@@YGXPBD0H@Z ; process_assert
  0022f	c7 45 a8 00 00
	00 00		 mov	 DWORD PTR tv180[ebp], 0
$LN23@dedicated_:
  00236	8b 4d f0	 mov	 ecx, DWORD PTR _col$[ebp]
  00239	51		 push	 ecx
  0023a	6a 03		 push	 3
  0023c	6a 00		 push	 0
  0023e	6a 00		 push	 0
  00240	8b 15 00 00 00
	00		 mov	 edx, DWORD PTR ?player_list@@3PAUUI_OBJECT@@A
  00246	52		 push	 edx
  00247	6a 0a		 push	 10			; 0000000aH
  00249	8b 45 f8	 mov	 eax, DWORD PTR _pilot$[ebp]
  0024c	50		 push	 eax
  0024d	6b 4d ac 34	 imul	 ecx, DWORD PTR tv172[ebp], 52
  00251	8b 55 a8	 mov	 edx, DWORD PTR tv180[ebp]
  00254	8b 84 91 00 00
	00 00		 mov	 eax, DWORD PTR ?fn_get_local_entity_string@@3PAY0N@P6GPBDPAUENTITY@@W4STRING_TYPES@@@ZA[ecx+edx*4]
  0025b	ff d0		 call	 eax
  0025d	50		 push	 eax
  0025e	e8 00 00 00 00	 call	 ?add_to_pop_up_list@@YGPAUUI_OBJECT@@PBDPAU1@1HHUREAL_COLOUR@@@Z ; add_to_pop_up_list
$LN6@dedicated_:

; 369  : 			}
; 370  : 			
; 371  : 			pilot = get_local_entity_child_succ (pilot, LIST_TYPE_PILOT);

  00263	83 7d f8 00	 cmp	 DWORD PTR _pilot$[ebp], 0
  00267	74 0a		 je	 SHORT $LN24@dedicated_
  00269	8b 45 f8	 mov	 eax, DWORD PTR _pilot$[ebp]
  0026c	8b 08		 mov	 ecx, DWORD PTR [eax]
  0026e	89 4d ac	 mov	 DWORD PTR tv192[ebp], ecx
  00271	eb 21		 jmp	 SHORT $LN25@dedicated_
$LN24@dedicated_:
  00273	8b 15 00 00 00
	00		 mov	 edx, DWORD PTR ?__LINE__Var@?0??dedicated_server_build_player_list@@YGXXZ@4JA
  00279	83 c2 21	 add	 edx, 33			; 00000021H
  0027c	52		 push	 edx
  0027d	68 00 00 00 00	 push	 OFFSET ??_C@_0EH@IEGMCDJ@c?3?2users?2nhv90?2projects?2eech?2ap@
  00282	a1 00 00 00 00	 mov	 eax, DWORD PTR ?null_entity_pointer_message@@3PBDB ; null_entity_pointer_message
  00287	50		 push	 eax
  00288	e8 00 00 00 00	 call	 ?process_assert@@YGXPBD0H@Z ; process_assert
  0028d	c7 45 ac 00 00
	00 00		 mov	 DWORD PTR tv192[ebp], 0
$LN25@dedicated_:
  00294	b9 01 00 00 00	 mov	 ecx, 1
  00299	85 c9		 test	 ecx, ecx
  0029b	74 09		 je	 SHORT $LN26@dedicated_
  0029d	c7 45 a8 1c 00
	00 00		 mov	 DWORD PTR tv200[ebp], 28 ; 0000001cH
  002a4	eb 21		 jmp	 SHORT $LN27@dedicated_
$LN26@dedicated_:
  002a6	8b 15 00 00 00
	00		 mov	 edx, DWORD PTR ?__LINE__Var@?0??dedicated_server_build_player_list@@YGXXZ@4JA
  002ac	83 c2 21	 add	 edx, 33			; 00000021H
  002af	52		 push	 edx
  002b0	68 00 00 00 00	 push	 OFFSET ??_C@_0EH@IEGMCDJ@c?3?2users?2nhv90?2projects?2eech?2ap@
  002b5	a1 00 00 00 00	 mov	 eax, DWORD PTR ?overload_invalid_list_type_message@@3PBDB ; overload_invalid_list_type_message
  002ba	50		 push	 eax
  002bb	e8 00 00 00 00	 call	 ?process_assert@@YGXPBD0H@Z ; process_assert
  002c0	c7 45 a8 00 00
	00 00		 mov	 DWORD PTR tv200[ebp], 0
$LN27@dedicated_:
  002c7	6a 1c		 push	 28			; 0000001cH
  002c9	8b 4d f8	 mov	 ecx, DWORD PTR _pilot$[ebp]
  002cc	51		 push	 ecx
  002cd	69 55 ac b4 00
	00 00		 imul	 edx, DWORD PTR tv192[ebp], 180
  002d4	8b 45 a8	 mov	 eax, DWORD PTR tv200[ebp]
  002d7	8b 8c 82 00 00
	00 00		 mov	 ecx, DWORD PTR ?fn_get_local_entity_child_succ@@3PAY0CN@P6GPAUENTITY@@PAU1@W4LIST_TYPES@@@ZA[edx+eax*4]
  002de	ff d1		 call	 ecx
  002e0	89 45 f8	 mov	 DWORD PTR _pilot$[ebp], eax

; 372  : 		}

  002e3	e9 3e fe ff ff	 jmp	 $LN4@dedicated_
$LN5@dedicated_:

; 373  : 
; 374  : 		force = get_local_entity_child_succ (force, LIST_TYPE_FORCE);

  002e8	83 7d fc 00	 cmp	 DWORD PTR _force$[ebp], 0
  002ec	74 0a		 je	 SHORT $LN28@dedicated_
  002ee	8b 45 fc	 mov	 eax, DWORD PTR _force$[ebp]
  002f1	8b 08		 mov	 ecx, DWORD PTR [eax]
  002f3	89 4d ac	 mov	 DWORD PTR tv212[ebp], ecx
  002f6	eb 21		 jmp	 SHORT $LN29@dedicated_
$LN28@dedicated_:
  002f8	8b 15 00 00 00
	00		 mov	 edx, DWORD PTR ?__LINE__Var@?0??dedicated_server_build_player_list@@YGXXZ@4JA
  002fe	83 c2 24	 add	 edx, 36			; 00000024H
  00301	52		 push	 edx
  00302	68 00 00 00 00	 push	 OFFSET ??_C@_0EH@IEGMCDJ@c?3?2users?2nhv90?2projects?2eech?2ap@
  00307	a1 00 00 00 00	 mov	 eax, DWORD PTR ?null_entity_pointer_message@@3PBDB ; null_entity_pointer_message
  0030c	50		 push	 eax
  0030d	e8 00 00 00 00	 call	 ?process_assert@@YGXPBD0H@Z ; process_assert
  00312	c7 45 ac 00 00
	00 00		 mov	 DWORD PTR tv212[ebp], 0
$LN29@dedicated_:
  00319	b9 01 00 00 00	 mov	 ecx, 1
  0031e	85 c9		 test	 ecx, ecx
  00320	74 09		 je	 SHORT $LN30@dedicated_
  00322	c7 45 a8 0e 00
	00 00		 mov	 DWORD PTR tv220[ebp], 14 ; 0000000eH
  00329	eb 21		 jmp	 SHORT $LN31@dedicated_
$LN30@dedicated_:
  0032b	8b 15 00 00 00
	00		 mov	 edx, DWORD PTR ?__LINE__Var@?0??dedicated_server_build_player_list@@YGXXZ@4JA
  00331	83 c2 24	 add	 edx, 36			; 00000024H
  00334	52		 push	 edx
  00335	68 00 00 00 00	 push	 OFFSET ??_C@_0EH@IEGMCDJ@c?3?2users?2nhv90?2projects?2eech?2ap@
  0033a	a1 00 00 00 00	 mov	 eax, DWORD PTR ?overload_invalid_list_type_message@@3PBDB ; overload_invalid_list_type_message
  0033f	50		 push	 eax
  00340	e8 00 00 00 00	 call	 ?process_assert@@YGXPBD0H@Z ; process_assert
  00345	c7 45 a8 00 00
	00 00		 mov	 DWORD PTR tv220[ebp], 0
$LN31@dedicated_:
  0034c	6a 0e		 push	 14			; 0000000eH
  0034e	8b 4d fc	 mov	 ecx, DWORD PTR _force$[ebp]
  00351	51		 push	 ecx
  00352	69 55 ac b4 00
	00 00		 imul	 edx, DWORD PTR tv212[ebp], 180
  00359	8b 45 a8	 mov	 eax, DWORD PTR tv220[ebp]
  0035c	8b 8c 82 00 00
	00 00		 mov	 ecx, DWORD PTR ?fn_get_local_entity_child_succ@@3PAY0CN@P6GPAUENTITY@@PAU1@W4LIST_TYPES@@@ZA[edx+eax*4]
  00363	ff d1		 call	 ecx
  00365	89 45 fc	 mov	 DWORD PTR _force$[ebp], eax

; 375  : 	}

  00368	e9 2f fd ff ff	 jmp	 $LN2@dedicated_
$LN1@dedicated_:

; 376  : }

  0036d	5f		 pop	 edi
  0036e	5e		 pop	 esi
  0036f	5b		 pop	 ebx
  00370	8b e5		 mov	 esp, ebp
  00372	5d		 pop	 ebp
  00373	c3		 ret	 0
?dedicated_server_build_player_list@@YGXXZ ENDP		; dedicated_server_build_player_list
_TEXT	ENDS
; Function compile flags: /Odtp /ZI
; File c:\users\nhv90\projects\eech\aphavoc\source\ui_menu\dedicate\dedi_sc.c
;	COMDAT ?dedicated_screen_update_function@@YGXPAUUI_OBJECT@@PAX@Z
_TEXT	SEGMENT
tv168 = -152						; size = 4
tv139 = -152						; size = 4
tv82 = -152						; size = 4
tv160 = -148						; size = 4
tv131 = -148						; size = 4
tv75 = -148						; size = 4
_s$ = -80						; size = 64
_seconds$ = -16						; size = 4
_minutes$ = -12						; size = 4
_hours$ = -8						; size = 4
_time$ = -4						; size = 4
_obj$ = 8						; size = 4
_arg$ = 12						; size = 4
?dedicated_screen_update_function@@YGXPAUUI_OBJECT@@PAX@Z PROC ; dedicated_screen_update_function, COMDAT

; 383  : {

  00000	55		 push	 ebp
  00001	8b ec		 mov	 ebp, esp
  00003	81 ec 98 00 00
	00		 sub	 esp, 152		; 00000098H
  00009	53		 push	 ebx
  0000a	56		 push	 esi
  0000b	57		 push	 edi

; 384  : 
; 385  : 	float
; 386  : 		time;
; 387  : 
; 388  : 	int
; 389  : 		hours,
; 390  : 		minutes,
; 391  : 		seconds;
; 392  : 
; 393  : 	char
; 394  : 		s [64];
; 395  : 
; 396  : 	ASSERT (command_line_comms_dedicated_server);

  0000c	83 3d 00 00 00
	00 00		 cmp	 DWORD PTR ?command_line_comms_dedicated_server@@3HA, 0 ; command_line_comms_dedicated_server
  00013	75 18		 jne	 SHORT $LN2@dedicated_
  00015	a1 00 00 00 00	 mov	 eax, DWORD PTR ?__LINE__Var@?0??dedicated_screen_update_function@@YGXPAUUI_OBJECT@@PAX@Z@4JA
  0001a	83 c0 0d	 add	 eax, 13			; 0000000dH
  0001d	50		 push	 eax
  0001e	68 00 00 00 00	 push	 OFFSET ??_C@_0EH@IEGMCDJ@c?3?2users?2nhv90?2projects?2eech?2ap@
  00023	68 00 00 00 00	 push	 OFFSET ??_C@_0CE@OIAINFCD@command_line_comms_dedicated_se@
  00028	e8 00 00 00 00	 call	 ?process_assert@@YGXPBD0H@Z ; process_assert
$LN2@dedicated_:

; 397  : 
; 398  : 	if (get_session_entity ())

  0002d	83 3d 00 00 00
	00 00		 cmp	 DWORD PTR ?session_entity@@3PAUENTITY@@A, 0 ; session_entity
  00034	0f 84 41 02 00
	00		 je	 $LN3@dedicated_

; 399  : 	{
; 400  : 
; 401  : 		if (get_local_entity_int_value (get_session_entity (), INT_TYPE_SESSION_COMPLETE))

  0003a	83 3d 00 00 00
	00 00		 cmp	 DWORD PTR ?session_entity@@3PAUENTITY@@A, 0 ; session_entity
  00041	74 0f		 je	 SHORT $LN7@dedicated_
  00043	a1 00 00 00 00	 mov	 eax, DWORD PTR ?session_entity@@3PAUENTITY@@A ; session_entity
  00048	8b 08		 mov	 ecx, DWORD PTR [eax]
  0004a	89 8d 6c ff ff
	ff		 mov	 DWORD PTR tv75[ebp], ecx
  00050	eb 20		 jmp	 SHORT $LN8@dedicated_
$LN7@dedicated_:
  00052	68 91 01 00 00	 push	 401			; 00000191H
  00057	68 00 00 00 00	 push	 OFFSET ??_C@_0EH@IEGMCDJ@c?3?2users?2nhv90?2projects?2eech?2ap@
  0005c	8b 15 00 00 00
	00		 mov	 edx, DWORD PTR ?null_entity_pointer_message@@3PBDB ; null_entity_pointer_message
  00062	52		 push	 edx
  00063	e8 00 00 00 00	 call	 ?process_assert@@YGXPBD0H@Z ; process_assert
  00068	c7 85 6c ff ff
	ff 00 00 00 00	 mov	 DWORD PTR tv75[ebp], 0
$LN8@dedicated_:
  00072	b8 01 00 00 00	 mov	 eax, 1
  00077	85 c0		 test	 eax, eax
  00079	74 0c		 je	 SHORT $LN9@dedicated_
  0007b	c7 85 68 ff ff
	ff ba 00 00 00	 mov	 DWORD PTR tv82[ebp], 186 ; 000000baH
  00085	eb 20		 jmp	 SHORT $LN10@dedicated_
$LN9@dedicated_:
  00087	68 91 01 00 00	 push	 401			; 00000191H
  0008c	68 00 00 00 00	 push	 OFFSET ??_C@_0EH@IEGMCDJ@c?3?2users?2nhv90?2projects?2eech?2ap@
  00091	8b 0d 00 00 00
	00		 mov	 ecx, DWORD PTR ?overload_invalid_int_type_message@@3PBDB ; overload_invalid_int_type_message
  00097	51		 push	 ecx
  00098	e8 00 00 00 00	 call	 ?process_assert@@YGXPBD0H@Z ; process_assert
  0009d	c7 85 68 ff ff
	ff 00 00 00 00	 mov	 DWORD PTR tv82[ebp], 0
$LN10@dedicated_:
  000a7	68 ba 00 00 00	 push	 186			; 000000baH
  000ac	8b 15 00 00 00
	00		 mov	 edx, DWORD PTR ?session_entity@@3PAUENTITY@@A ; session_entity
  000b2	52		 push	 edx
  000b3	69 85 6c ff ff
	ff 5c 04 00 00	 imul	 eax, DWORD PTR tv75[ebp], 1116
  000bd	8b 8d 68 ff ff
	ff		 mov	 ecx, DWORD PTR tv82[ebp]
  000c3	8b 94 88 00 00
	00 00		 mov	 edx, DWORD PTR ?fn_get_local_entity_int_value@@3PAY0BBH@P6GHPAUENTITY@@W4INT_TYPES@@@ZA[eax+ecx*4]
  000ca	ff d2		 call	 edx
  000cc	85 c0		 test	 eax, eax
  000ce	74 1d		 je	 SHORT $LN5@dedicated_

; 402  : 		{
; 403  : 
; 404  : 			if (!get_connection_list_head ())

  000d0	e8 00 00 00 00	 call	 ?get_connection_list_head@@YGPAUCONNECTION_LIST_TYPE@@XZ ; get_connection_list_head
  000d5	85 c0		 test	 eax, eax
  000d7	75 14		 jne	 SHORT $LN5@dedicated_

; 405  : 			{
; 406  : 
; 407  : 				debug_log ("DEDI_SC: Exiting game as no clients left");

  000d9	68 00 00 00 00	 push	 OFFSET ??_C@_0CJ@DODDAFAK@DEDI_SC?3?5Exiting?5game?5as?5no?5cli@
  000de	e8 00 00 00 00	 call	 ?debug_log@@YAXPBDZZ	; debug_log
  000e3	83 c4 04	 add	 esp, 4

; 408  : 
; 409  : 				exit_apache_havoc (NULL);

  000e6	6a 00		 push	 0
  000e8	e8 00 00 00 00	 call	 ?exit_apache_havoc@@YGXPAUEVENT@@@Z ; exit_apache_havoc
$LN5@dedicated_:

; 410  : 			}
; 411  : 		}
; 412  : 
; 413  : 		time = get_local_entity_float_value (get_session_entity (), FLOAT_TYPE_ELAPSED_TIME);

  000ed	83 3d 00 00 00
	00 00		 cmp	 DWORD PTR ?session_entity@@3PAUENTITY@@A, 0 ; session_entity
  000f4	74 0f		 je	 SHORT $LN11@dedicated_
  000f6	a1 00 00 00 00	 mov	 eax, DWORD PTR ?session_entity@@3PAUENTITY@@A ; session_entity
  000fb	8b 08		 mov	 ecx, DWORD PTR [eax]
  000fd	89 8d 6c ff ff
	ff		 mov	 DWORD PTR tv131[ebp], ecx
  00103	eb 24		 jmp	 SHORT $LN12@dedicated_
$LN11@dedicated_:
  00105	8b 15 00 00 00
	00		 mov	 edx, DWORD PTR ?__LINE__Var@?0??dedicated_screen_update_function@@YGXPAUUI_OBJECT@@PAX@Z@4JA
  0010b	83 c2 1e	 add	 edx, 30			; 0000001eH
  0010e	52		 push	 edx
  0010f	68 00 00 00 00	 push	 OFFSET ??_C@_0EH@IEGMCDJ@c?3?2users?2nhv90?2projects?2eech?2ap@
  00114	a1 00 00 00 00	 mov	 eax, DWORD PTR ?null_entity_pointer_message@@3PBDB ; null_entity_pointer_message
  00119	50		 push	 eax
  0011a	e8 00 00 00 00	 call	 ?process_assert@@YGXPBD0H@Z ; process_assert
  0011f	c7 85 6c ff ff
	ff 00 00 00 00	 mov	 DWORD PTR tv131[ebp], 0
$LN12@dedicated_:
  00129	b9 01 00 00 00	 mov	 ecx, 1
  0012e	85 c9		 test	 ecx, ecx
  00130	74 0c		 je	 SHORT $LN13@dedicated_
  00132	c7 85 68 ff ff
	ff 23 00 00 00	 mov	 DWORD PTR tv139[ebp], 35 ; 00000023H
  0013c	eb 24		 jmp	 SHORT $LN14@dedicated_
$LN13@dedicated_:
  0013e	8b 15 00 00 00
	00		 mov	 edx, DWORD PTR ?__LINE__Var@?0??dedicated_screen_update_function@@YGXPAUUI_OBJECT@@PAX@Z@4JA
  00144	83 c2 1e	 add	 edx, 30			; 0000001eH
  00147	52		 push	 edx
  00148	68 00 00 00 00	 push	 OFFSET ??_C@_0EH@IEGMCDJ@c?3?2users?2nhv90?2projects?2eech?2ap@
  0014d	a1 00 00 00 00	 mov	 eax, DWORD PTR ?overload_invalid_float_type_message@@3PBDB ; overload_invalid_float_type_message
  00152	50		 push	 eax
  00153	e8 00 00 00 00	 call	 ?process_assert@@YGXPBD0H@Z ; process_assert
  00158	c7 85 68 ff ff
	ff 00 00 00 00	 mov	 DWORD PTR tv139[ebp], 0
$LN14@dedicated_:
  00162	6a 23		 push	 35			; 00000023H
  00164	8b 0d 00 00 00
	00		 mov	 ecx, DWORD PTR ?session_entity@@3PAUENTITY@@A ; session_entity
  0016a	51		 push	 ecx
  0016b	69 95 6c ff ff
	ff bc 02 00 00	 imul	 edx, DWORD PTR tv131[ebp], 700
  00175	8b 85 68 ff ff
	ff		 mov	 eax, DWORD PTR tv139[ebp]
  0017b	8b 8c 82 00 00
	00 00		 mov	 ecx, DWORD PTR ?fn_get_local_entity_float_value@@3PAY0KP@P6GMPAUENTITY@@W4FLOAT_TYPES@@@ZA[edx+eax*4]
  00182	ff d1		 call	 ecx
  00184	d9 5d fc	 fstp	 DWORD PTR _time$[ebp]

; 414  : 
; 415  : 		get_digital_countdown_values (time, NULL, &hours, &minutes, &seconds);

  00187	8d 45 f0	 lea	 eax, DWORD PTR _seconds$[ebp]
  0018a	50		 push	 eax
  0018b	8d 4d f4	 lea	 ecx, DWORD PTR _minutes$[ebp]
  0018e	51		 push	 ecx
  0018f	8d 55 f8	 lea	 edx, DWORD PTR _hours$[ebp]
  00192	52		 push	 edx
  00193	6a 00		 push	 0
  00195	51		 push	 ecx
  00196	f3 0f 10 45 fc	 movss	 xmm0, DWORD PTR _time$[ebp]
  0019b	f3 0f 11 04 24	 movss	 DWORD PTR [esp], xmm0
  001a0	e8 00 00 00 00	 call	 ?get_digital_countdown_values@@YGXMPAH000@Z ; get_digital_countdown_values

; 416  : 	
; 417  : 		sprintf (s, "Day %d, %02d:%02d:%02d", get_local_entity_int_value (get_session_entity (), INT_TYPE_DAY), hours, minutes, seconds);

  001a5	83 3d 00 00 00
	00 00		 cmp	 DWORD PTR ?session_entity@@3PAUENTITY@@A, 0 ; session_entity
  001ac	74 0f		 je	 SHORT $LN15@dedicated_
  001ae	a1 00 00 00 00	 mov	 eax, DWORD PTR ?session_entity@@3PAUENTITY@@A ; session_entity
  001b3	8b 08		 mov	 ecx, DWORD PTR [eax]
  001b5	89 8d 6c ff ff
	ff		 mov	 DWORD PTR tv160[ebp], ecx
  001bb	eb 24		 jmp	 SHORT $LN16@dedicated_
$LN15@dedicated_:
  001bd	8b 15 00 00 00
	00		 mov	 edx, DWORD PTR ?__LINE__Var@?0??dedicated_screen_update_function@@YGXPAUUI_OBJECT@@PAX@Z@4JA
  001c3	83 c2 22	 add	 edx, 34			; 00000022H
  001c6	52		 push	 edx
  001c7	68 00 00 00 00	 push	 OFFSET ??_C@_0EH@IEGMCDJ@c?3?2users?2nhv90?2projects?2eech?2ap@
  001cc	a1 00 00 00 00	 mov	 eax, DWORD PTR ?null_entity_pointer_message@@3PBDB ; null_entity_pointer_message
  001d1	50		 push	 eax
  001d2	e8 00 00 00 00	 call	 ?process_assert@@YGXPBD0H@Z ; process_assert
  001d7	c7 85 6c ff ff
	ff 00 00 00 00	 mov	 DWORD PTR tv160[ebp], 0
$LN16@dedicated_:
  001e1	b9 01 00 00 00	 mov	 ecx, 1
  001e6	85 c9		 test	 ecx, ecx
  001e8	74 0c		 je	 SHORT $LN17@dedicated_
  001ea	c7 85 68 ff ff
	ff 26 00 00 00	 mov	 DWORD PTR tv168[ebp], 38 ; 00000026H
  001f4	eb 24		 jmp	 SHORT $LN18@dedicated_
$LN17@dedicated_:
  001f6	8b 15 00 00 00
	00		 mov	 edx, DWORD PTR ?__LINE__Var@?0??dedicated_screen_update_function@@YGXPAUUI_OBJECT@@PAX@Z@4JA
  001fc	83 c2 22	 add	 edx, 34			; 00000022H
  001ff	52		 push	 edx
  00200	68 00 00 00 00	 push	 OFFSET ??_C@_0EH@IEGMCDJ@c?3?2users?2nhv90?2projects?2eech?2ap@
  00205	a1 00 00 00 00	 mov	 eax, DWORD PTR ?overload_invalid_int_type_message@@3PBDB ; overload_invalid_int_type_message
  0020a	50		 push	 eax
  0020b	e8 00 00 00 00	 call	 ?process_assert@@YGXPBD0H@Z ; process_assert
  00210	c7 85 68 ff ff
	ff 00 00 00 00	 mov	 DWORD PTR tv168[ebp], 0
$LN18@dedicated_:
  0021a	8b 4d f0	 mov	 ecx, DWORD PTR _seconds$[ebp]
  0021d	51		 push	 ecx
  0021e	8b 55 f4	 mov	 edx, DWORD PTR _minutes$[ebp]
  00221	52		 push	 edx
  00222	8b 45 f8	 mov	 eax, DWORD PTR _hours$[ebp]
  00225	50		 push	 eax
  00226	6a 26		 push	 38			; 00000026H
  00228	8b 0d 00 00 00
	00		 mov	 ecx, DWORD PTR ?session_entity@@3PAUENTITY@@A ; session_entity
  0022e	51		 push	 ecx
  0022f	69 95 6c ff ff
	ff 5c 04 00 00	 imul	 edx, DWORD PTR tv160[ebp], 1116
  00239	8b 85 68 ff ff
	ff		 mov	 eax, DWORD PTR tv168[ebp]
  0023f	8b 8c 82 00 00
	00 00		 mov	 ecx, DWORD PTR ?fn_get_local_entity_int_value@@3PAY0BBH@P6GHPAUENTITY@@W4INT_TYPES@@@ZA[edx+eax*4]
  00246	ff d1		 call	 ecx
  00248	50		 push	 eax
  00249	68 00 00 00 00	 push	 OFFSET ??_C@_0BH@NOCBNMAN@Day?5?$CFd?0?5?$CF02d?3?$CF02d?3?$CF02d@
  0024e	8d 55 b0	 lea	 edx, DWORD PTR _s$[ebp]
  00251	52		 push	 edx
  00252	e8 00 00 00 00	 call	 _sprintf
  00257	83 c4 18	 add	 esp, 24			; 00000018H

; 418  : 
; 419  : 		set_ui_object_text (dedicated_server_time_text, s);

  0025a	8d 45 b0	 lea	 eax, DWORD PTR _s$[ebp]
  0025d	50		 push	 eax
  0025e	8b 0d 00 00 00
	00		 mov	 ecx, DWORD PTR ?dedicated_server_time_text@@3PAUUI_OBJECT@@A
  00264	51		 push	 ecx
  00265	8b 15 00 00 00
	00		 mov	 edx, DWORD PTR ?dedicated_server_time_text@@3PAUUI_OBJECT@@A
  0026b	8b 02		 mov	 eax, DWORD PTR [edx]
  0026d	8b 0c 85 00 00
	00 00		 mov	 ecx, DWORD PTR ?fn_set_ui_object_text@@3PAP6GXPAUUI_OBJECT@@PBD@ZA[eax*4]
  00274	ff d1		 call	 ecx

; 420  : 
; 421  : 		dedicated_server_build_player_list ();

  00276	e8 00 00 00 00	 call	 ?dedicated_server_build_player_list@@YGXXZ ; dedicated_server_build_player_list
$LN3@dedicated_:

; 422  : 	}
; 423  : }

  0027b	5f		 pop	 edi
  0027c	5e		 pop	 esi
  0027d	5b		 pop	 ebx
  0027e	8b e5		 mov	 esp, ebp
  00280	5d		 pop	 ebp
  00281	c2 08 00	 ret	 8
?dedicated_screen_update_function@@YGXPAUUI_OBJECT@@PAX@Z ENDP ; dedicated_screen_update_function
_TEXT	ENDS
; Function compile flags: /Odtp /ZI
; File c:\users\nhv90\projects\eech\aphavoc\source\ui_menu\dedicate\dedi_sc.c
;	COMDAT ?notify_dedicated_server_quit_button@@YGXPAUUI_OBJECT@@PAX@Z
_TEXT	SEGMENT
_obj$ = 8						; size = 4
_arg$ = 12						; size = 4
?notify_dedicated_server_quit_button@@YGXPAUUI_OBJECT@@PAX@Z PROC ; notify_dedicated_server_quit_button, COMDAT

; 240  : {

  00000	55		 push	 ebp
  00001	8b ec		 mov	 ebp, esp
  00003	83 ec 40	 sub	 esp, 64			; 00000040H
  00006	53		 push	 ebx
  00007	56		 push	 esi
  00008	57		 push	 edi

; 241  : 
; 242  : 	if ((int) arg == BUTTON_STATE_DOWN)

  00009	83 7d 0c 02	 cmp	 DWORD PTR _arg$[ebp], 2
  0000d	75 3f		 jne	 SHORT $LN2@notify_ded

; 243  : 	{
; 244  : 
; 245  : 		set_ui_object_graphic (obj, (unsigned short int *) get_graphics_file_data (GRAPHICS_UI_APACHE_PLANNER_BACK_BUTTON_SELECTED));

  0000f	b8 28 00 00 00	 mov	 eax, 40			; 00000028H
  00014	69 c8 60 01 00
	00		 imul	 ecx, eax, 352
  0001a	8b 91 1c 00 00
	00		 mov	 edx, DWORD PTR ?graphics_files@@3PAUFILE_DATA@@A[ecx+28]
  00020	52		 push	 edx
  00021	8b 45 08	 mov	 eax, DWORD PTR _obj$[ebp]
  00024	50		 push	 eax
  00025	8b 4d 08	 mov	 ecx, DWORD PTR _obj$[ebp]
  00028	8b 11		 mov	 edx, DWORD PTR [ecx]
  0002a	8b 04 95 00 00
	00 00		 mov	 eax, DWORD PTR ?fn_set_ui_object_graphic@@3PAP6GXPAUUI_OBJECT@@PAG@ZA[edx*4]
  00031	ff d0		 call	 eax

; 246  : 
; 247  : 		set_ui_object_redraw (dedicated_server_screen, TRUE);

  00033	6a 01		 push	 1
  00035	a1 00 00 00 00	 mov	 eax, DWORD PTR ?dedicated_server_screen@@3PAUUI_OBJECT@@A ; dedicated_server_screen
  0003a	50		 push	 eax
  0003b	8b 0d 00 00 00
	00		 mov	 ecx, DWORD PTR ?dedicated_server_screen@@3PAUUI_OBJECT@@A ; dedicated_server_screen
  00041	8b 11		 mov	 edx, DWORD PTR [ecx]
  00043	8b 04 95 00 00
	00 00		 mov	 eax, DWORD PTR ?fn_set_ui_object_redraw@@3PAP6GXPAUUI_OBJECT@@H@ZA[edx*4]
  0004a	ff d0		 call	 eax
  0004c	eb 72		 jmp	 SHORT $LN1@notify_ded
$LN2@notify_ded:

; 248  : 	}
; 249  : 	else if ((int) arg == BUTTON_STATE_UP)

  0004e	83 7d 0c 01	 cmp	 DWORD PTR _arg$[ebp], 1
  00052	75 2f		 jne	 SHORT $LN4@notify_ded

; 250  : 	{
; 251  : 
; 252  : 		set_ui_object_graphic (obj, (unsigned short int *) get_graphics_file_data (GRAPHICS_UI_APACHE_PLANNER_BACK_BUTTON_UNSELECTED));

  00054	b8 28 00 00 00	 mov	 eax, 40			; 00000028H
  00059	69 c8 5f 01 00
	00		 imul	 ecx, eax, 351
  0005f	8b 91 1c 00 00
	00		 mov	 edx, DWORD PTR ?graphics_files@@3PAUFILE_DATA@@A[ecx+28]
  00065	52		 push	 edx
  00066	8b 45 08	 mov	 eax, DWORD PTR _obj$[ebp]
  00069	50		 push	 eax
  0006a	8b 4d 08	 mov	 ecx, DWORD PTR _obj$[ebp]
  0006d	8b 11		 mov	 edx, DWORD PTR [ecx]
  0006f	8b 04 95 00 00
	00 00		 mov	 eax, DWORD PTR ?fn_set_ui_object_graphic@@3PAP6GXPAUUI_OBJECT@@PAG@ZA[edx*4]
  00076	ff d0		 call	 eax

; 253  : 
; 254  : 		//deinitialise_base_system ();
; 255  : 	
; 256  : 		//setup_campaign_over_screen (get_local_force_entity (get_global_gunship_side ()), CAMPAIGN_CRITERIA_RESULT_SERVER_REJECTED);
; 257  : 
; 258  : 		start_game_exit (GAME_EXIT_APACHE_HAVOC, FALSE);

  00078	6a 00		 push	 0
  0007a	6a 04		 push	 4
  0007c	e8 00 00 00 00	 call	 ?start_game_exit@@YGXW4GAME_EXIT_TYPES@@H@Z ; start_game_exit

; 259  : 	}
; 260  : 	else 

  00081	eb 3d		 jmp	 SHORT $LN1@notify_ded
$LN4@notify_ded:

; 261  : 	{
; 262  : 
; 263  : 		set_ui_object_graphic (obj, (unsigned short int *) get_graphics_file_data (GRAPHICS_UI_APACHE_PLANNER_BACK_BUTTON_UNSELECTED));

  00083	b8 28 00 00 00	 mov	 eax, 40			; 00000028H
  00088	69 c8 5f 01 00
	00		 imul	 ecx, eax, 351
  0008e	8b 91 1c 00 00
	00		 mov	 edx, DWORD PTR ?graphics_files@@3PAUFILE_DATA@@A[ecx+28]
  00094	52		 push	 edx
  00095	8b 45 08	 mov	 eax, DWORD PTR _obj$[ebp]
  00098	50		 push	 eax
  00099	8b 4d 08	 mov	 ecx, DWORD PTR _obj$[ebp]
  0009c	8b 11		 mov	 edx, DWORD PTR [ecx]
  0009e	8b 04 95 00 00
	00 00		 mov	 eax, DWORD PTR ?fn_set_ui_object_graphic@@3PAP6GXPAUUI_OBJECT@@PAG@ZA[edx*4]
  000a5	ff d0		 call	 eax

; 264  : 
; 265  : 		set_ui_object_redraw (dedicated_server_screen, TRUE);

  000a7	6a 01		 push	 1
  000a9	a1 00 00 00 00	 mov	 eax, DWORD PTR ?dedicated_server_screen@@3PAUUI_OBJECT@@A ; dedicated_server_screen
  000ae	50		 push	 eax
  000af	8b 0d 00 00 00
	00		 mov	 ecx, DWORD PTR ?dedicated_server_screen@@3PAUUI_OBJECT@@A ; dedicated_server_screen
  000b5	8b 11		 mov	 edx, DWORD PTR [ecx]
  000b7	8b 04 95 00 00
	00 00		 mov	 eax, DWORD PTR ?fn_set_ui_object_redraw@@3PAP6GXPAUUI_OBJECT@@H@ZA[edx*4]
  000be	ff d0		 call	 eax
$LN1@notify_ded:

; 266  : 	}
; 267  : 
; 268  : 	//set_ui_object_graphic_type (obj, UI_OBJECT_ALPHA_GRAPHIC);
; 269  : }

  000c0	5f		 pop	 edi
  000c1	5e		 pop	 esi
  000c2	5b		 pop	 ebx
  000c3	8b e5		 mov	 esp, ebp
  000c5	5d		 pop	 ebp
  000c6	c2 08 00	 ret	 8
?notify_dedicated_server_quit_button@@YGXPAUUI_OBJECT@@PAX@Z ENDP ; notify_dedicated_server_quit_button
_TEXT	ENDS
; Function compile flags: /Odtp /ZI
; File c:\users\nhv90\projects\eech\aphavoc\source\ui_menu\dedicate\dedi_sc.c
;	COMDAT ?dedicated_server_function@@YGXPAUUI_OBJECT@@PAX@Z
_TEXT	SEGMENT
_buffer$ = -256						; size = 256
_obj$ = 8						; size = 4
_arg$ = 12						; size = 4
?dedicated_server_function@@YGXPAUUI_OBJECT@@PAX@Z PROC	; dedicated_server_function, COMDAT

; 276  : {

  00000	55		 push	 ebp
  00001	8b ec		 mov	 ebp, esp
  00003	81 ec 40 01 00
	00		 sub	 esp, 320		; 00000140H
  00009	53		 push	 ebx
  0000a	56		 push	 esi
  0000b	57		 push	 edi

; 277  : 
; 278  : 	char
; 279  : 		buffer [256];
; 280  : 
; 281  : 	set_mouse_on ();

  0000c	e8 00 00 00 00	 call	 ?set_mouse_on@@YGXXZ	; set_mouse_on

; 282  : 
; 283  : 	set_mouse_graphic_on ();

  00011	e8 00 00 00 00	 call	 ?set_mouse_graphic_on@@YGXXZ ; set_mouse_graphic_on

; 284  : 
; 285  : 	ASSERT (current_game_session);

  00016	83 3d 00 00 00
	00 00		 cmp	 DWORD PTR ?current_game_session@@3PAUSESSION_LIST_DATA_TYPE@@A, 0 ; current_game_session
  0001d	75 18		 jne	 SHORT $LN2@dedicated_
  0001f	a1 00 00 00 00	 mov	 eax, DWORD PTR ?__LINE__Var@?0??dedicated_server_function@@YGXPAUUI_OBJECT@@PAX@Z@4JA
  00024	83 c0 09	 add	 eax, 9
  00027	50		 push	 eax
  00028	68 00 00 00 00	 push	 OFFSET ??_C@_0EH@IEGMCDJ@c?3?2users?2nhv90?2projects?2eech?2ap@
  0002d	68 00 00 00 00	 push	 OFFSET ??_C@_0BF@BGCJAHKO@current_game_session@
  00032	e8 00 00 00 00	 call	 ?process_assert@@YGXPBD0H@Z ; process_assert
$LN2@dedicated_:

; 286  : 
; 287  : 	//
; 288  : 
; 289  : 	if ( get_ui_object_drawable ( obj ) )

  00037	8b 45 08	 mov	 eax, DWORD PTR _obj$[ebp]
  0003a	50		 push	 eax
  0003b	8b 4d 08	 mov	 ecx, DWORD PTR _obj$[ebp]
  0003e	8b 11		 mov	 edx, DWORD PTR [ecx]
  00040	8b 04 95 00 00
	00 00		 mov	 eax, DWORD PTR ?fn_get_ui_object_drawable@@3PAP6GHPAUUI_OBJECT@@@ZA[edx*4]
  00047	ff d0		 call	 eax
  00049	85 c0		 test	 eax, eax
  0004b	74 59		 je	 SHORT $LN3@dedicated_

; 290  : 	{
; 291  : 
; 292  : 		if ( main_screen_texture )

  0004d	83 3d 00 00 00
	00 00		 cmp	 DWORD PTR ?main_screen_texture@@3PAUTEXTURE_GRAPHIC@@A, 0 ; main_screen_texture
  00054	74 15		 je	 SHORT $LN5@dedicated_

; 293  : 		{
; 294  : 	
; 295  : 			destroy_texture_graphic (dedicated_server_screen_texture);

  00056	a1 00 00 00 00	 mov	 eax, DWORD PTR ?dedicated_server_screen_texture@@3PAUTEXTURE_GRAPHIC@@A ; dedicated_server_screen_texture
  0005b	50		 push	 eax
  0005c	e8 00 00 00 00	 call	 ?destroy_texture_graphic@@YGXPAUTEXTURE_GRAPHIC@@@Z ; destroy_texture_graphic

; 296  : 
; 297  : 			dedicated_server_screen_texture = NULL;

  00061	c7 05 00 00 00
	00 00 00 00 00	 mov	 DWORD PTR ?dedicated_server_screen_texture@@3PAUTEXTURE_GRAPHIC@@A, 0 ; dedicated_server_screen_texture
$LN5@dedicated_:

; 298  : 		}
; 299  : 	
; 300  : 		dedicated_server_screen_texture = create_texture_graphic ( "graphics\\ui\\cohokum\\demoload.psd" );

  0006b	68 00 00 00 00	 push	 OFFSET ??_C@_0CB@LNCFAAHD@graphics?2ui?2cohokum?2demoload?4ps@
  00070	e8 00 00 00 00	 call	 ?create_texture_graphic@@YGPAUTEXTURE_GRAPHIC@@PBD@Z ; create_texture_graphic
  00075	a3 00 00 00 00	 mov	 DWORD PTR ?dedicated_server_screen_texture@@3PAUTEXTURE_GRAPHIC@@A, eax ; dedicated_server_screen_texture

; 301  : 	
; 302  : 		set_ui_object_texture_graphic (dedicated_server_screen, dedicated_server_screen_texture);

  0007a	a1 00 00 00 00	 mov	 eax, DWORD PTR ?dedicated_server_screen_texture@@3PAUTEXTURE_GRAPHIC@@A ; dedicated_server_screen_texture
  0007f	50		 push	 eax
  00080	8b 0d 00 00 00
	00		 mov	 ecx, DWORD PTR ?dedicated_server_screen@@3PAUUI_OBJECT@@A ; dedicated_server_screen
  00086	51		 push	 ecx
  00087	8b 15 00 00 00
	00		 mov	 edx, DWORD PTR ?dedicated_server_screen@@3PAUUI_OBJECT@@A ; dedicated_server_screen
  0008d	8b 02		 mov	 eax, DWORD PTR [edx]
  0008f	8b 0c 85 00 00
	00 00		 mov	 ecx, DWORD PTR ?fn_set_ui_object_texture_graphic@@3PAP6GXPAUUI_OBJECT@@PAUTEXTURE_GRAPHIC@@@ZA[eax*4]
  00096	ff d1		 call	 ecx

; 303  : 	
; 304  : 		blit_front_buffer_to_render_buffer ();

  00098	e8 00 00 00 00	 call	 ?blit_front_buffer_to_render_buffer@@YGXXZ ; blit_front_buffer_to_render_buffer

; 305  : 	
; 306  : 		ui_set_user_function (NULL);

  0009d	6a 00		 push	 0
  0009f	e8 00 00 00 00	 call	 ?ui_set_user_function@@YGXP6GXXZ@Z ; ui_set_user_function

; 307  : 	}
; 308  : 	else

  000a4	eb 1e		 jmp	 SHORT $LN4@dedicated_
$LN3@dedicated_:

; 309  : 	{
; 310  : 		if (main_screen_texture)

  000a6	83 3d 00 00 00
	00 00		 cmp	 DWORD PTR ?main_screen_texture@@3PAUTEXTURE_GRAPHIC@@A, 0 ; main_screen_texture
  000ad	74 15		 je	 SHORT $LN4@dedicated_

; 311  : 		{
; 312  : 	
; 313  : 			destroy_texture_graphic (dedicated_server_screen_texture);

  000af	a1 00 00 00 00	 mov	 eax, DWORD PTR ?dedicated_server_screen_texture@@3PAUTEXTURE_GRAPHIC@@A ; dedicated_server_screen_texture
  000b4	50		 push	 eax
  000b5	e8 00 00 00 00	 call	 ?destroy_texture_graphic@@YGXPAUTEXTURE_GRAPHIC@@@Z ; destroy_texture_graphic

; 314  : 
; 315  : 			dedicated_server_screen_texture = NULL;

  000ba	c7 05 00 00 00
	00 00 00 00 00	 mov	 DWORD PTR ?dedicated_server_screen_texture@@3PAUTEXTURE_GRAPHIC@@A, 0 ; dedicated_server_screen_texture
$LN4@dedicated_:

; 316  : 		}
; 317  : 	}
; 318  : 	//
; 319  : 
; 320  : 	sprintf (buffer, "Title : %s", current_game_session->title);

  000c4	a1 00 00 00 00	 mov	 eax, DWORD PTR ?current_game_session@@3PAUSESSION_LIST_DATA_TYPE@@A ; current_game_session
  000c9	8b 48 04	 mov	 ecx, DWORD PTR [eax+4]
  000cc	51		 push	 ecx
  000cd	68 00 00 00 00	 push	 OFFSET ??_C@_0L@PEPDCPHB@Title?5?3?5?$CFs@
  000d2	8d 95 00 ff ff
	ff		 lea	 edx, DWORD PTR _buffer$[ebp]
  000d8	52		 push	 edx
  000d9	e8 00 00 00 00	 call	 _sprintf
  000de	83 c4 0c	 add	 esp, 12			; 0000000cH

; 321  : 
; 322  : 	set_ui_object_text (dedicated_server_title_text, buffer);

  000e1	8d 85 00 ff ff
	ff		 lea	 eax, DWORD PTR _buffer$[ebp]
  000e7	50		 push	 eax
  000e8	8b 0d 00 00 00
	00		 mov	 ecx, DWORD PTR ?dedicated_server_title_text@@3PAUUI_OBJECT@@A
  000ee	51		 push	 ecx
  000ef	8b 15 00 00 00
	00		 mov	 edx, DWORD PTR ?dedicated_server_title_text@@3PAUUI_OBJECT@@A
  000f5	8b 02		 mov	 eax, DWORD PTR [edx]
  000f7	8b 0c 85 00 00
	00 00		 mov	 ecx, DWORD PTR ?fn_set_ui_object_text@@3PAP6GXPAUUI_OBJECT@@PBD@ZA[eax*4]
  000fe	ff d1		 call	 ecx

; 323  : 
; 324  : 	sprintf (buffer, "Map : %s", current_game_session->data_path);

  00100	a1 00 00 00 00	 mov	 eax, DWORD PTR ?current_game_session@@3PAUSESSION_LIST_DATA_TYPE@@A ; current_game_session
  00105	83 c0 1c	 add	 eax, 28			; 0000001cH
  00108	50		 push	 eax
  00109	68 00 00 00 00	 push	 OFFSET ??_C@_08LAJJNLBO@Map?5?3?5?$CFs@
  0010e	8d 8d 00 ff ff
	ff		 lea	 ecx, DWORD PTR _buffer$[ebp]
  00114	51		 push	 ecx
  00115	e8 00 00 00 00	 call	 _sprintf
  0011a	83 c4 0c	 add	 esp, 12			; 0000000cH

; 325  : 
; 326  : 	set_ui_object_text (dedicated_server_map_text, buffer);

  0011d	8d 85 00 ff ff
	ff		 lea	 eax, DWORD PTR _buffer$[ebp]
  00123	50		 push	 eax
  00124	8b 0d 00 00 00
	00		 mov	 ecx, DWORD PTR ?dedicated_server_map_text@@3PAUUI_OBJECT@@A
  0012a	51		 push	 ecx
  0012b	8b 15 00 00 00
	00		 mov	 edx, DWORD PTR ?dedicated_server_map_text@@3PAUUI_OBJECT@@A
  00131	8b 02		 mov	 eax, DWORD PTR [edx]
  00133	8b 0c 85 00 00
	00 00		 mov	 ecx, DWORD PTR ?fn_set_ui_object_text@@3PAP6GXPAUUI_OBJECT@@PBD@ZA[eax*4]
  0013a	ff d1		 call	 ecx

; 327  : 
; 328  : 	sprintf (buffer, "Game : %s", current_game_session->campaign_filename);

  0013c	a1 00 00 00 00	 mov	 eax, DWORD PTR ?current_game_session@@3PAUSESSION_LIST_DATA_TYPE@@A ; current_game_session
  00141	05 5c 01 00 00	 add	 eax, 348		; 0000015cH
  00146	50		 push	 eax
  00147	68 00 00 00 00	 push	 OFFSET ??_C@_09MPPAGMIO@Game?5?3?5?$CFs@
  0014c	8d 8d 00 ff ff
	ff		 lea	 ecx, DWORD PTR _buffer$[ebp]
  00152	51		 push	 ecx
  00153	e8 00 00 00 00	 call	 _sprintf
  00158	83 c4 0c	 add	 esp, 12			; 0000000cH

; 329  : 
; 330  : 	set_ui_object_text (dedicated_server_game_text, buffer);

  0015b	8d 85 00 ff ff
	ff		 lea	 eax, DWORD PTR _buffer$[ebp]
  00161	50		 push	 eax
  00162	8b 0d 00 00 00
	00		 mov	 ecx, DWORD PTR ?dedicated_server_game_text@@3PAUUI_OBJECT@@A
  00168	51		 push	 ecx
  00169	8b 15 00 00 00
	00		 mov	 edx, DWORD PTR ?dedicated_server_game_text@@3PAUUI_OBJECT@@A
  0016f	8b 02		 mov	 eax, DWORD PTR [edx]
  00171	8b 0c 85 00 00
	00 00		 mov	 ecx, DWORD PTR ?fn_set_ui_object_text@@3PAP6GXPAUUI_OBJECT@@PBD@ZA[eax*4]
  00178	ff d1		 call	 ecx

; 331  : }

  0017a	5f		 pop	 edi
  0017b	5e		 pop	 esi
  0017c	5b		 pop	 ebx
  0017d	8b e5		 mov	 esp, ebp
  0017f	5d		 pop	 ebp
  00180	c2 08 00	 ret	 8
?dedicated_server_function@@YGXPAUUI_OBJECT@@PAX@Z ENDP	; dedicated_server_function
_TEXT	ENDS
; Function compile flags: /Odtp /ZI
; File c:\users\nhv90\projects\eech\aphavoc\source\ui_menu\dedicate\dedi_sc.c
;	COMDAT ?initialise_dedicated_server_screen@@YGXXZ
_TEXT	SEGMENT
_y2$1 = -24						; size = 4
_x2$2 = -20						; size = 4
_y1$3 = -16						; size = 4
_x1$4 = -12						; size = 4
_y$ = -8						; size = 4
_x$ = -4						; size = 4
?initialise_dedicated_server_screen@@YGXXZ PROC		; initialise_dedicated_server_screen, COMDAT

; 101  : {

  00000	55		 push	 ebp
  00001	8b ec		 mov	 ebp, esp
  00003	83 ec 58	 sub	 esp, 88			; 00000058H
  00006	53		 push	 ebx
  00007	56		 push	 esi
  00008	57		 push	 edi

; 102  : 	float
; 103  : 		x, y;
; 104  : 
; 105  : 	dedicated_server_screen = create_ui_object

  00009	6a 11		 push	 17			; 00000011H
  0000b	68 00 00 00 00	 push	 OFFSET ?dedicated_screen_update_function@@YGXPAUUI_OBJECT@@PAX@Z ; dedicated_screen_update_function
  00010	6a 0f		 push	 15			; 0000000fH
  00012	68 00 00 00 00	 push	 OFFSET ?dedicated_server_function@@YGXPAUUI_OBJECT@@PAX@Z ; dedicated_server_function
  00017	6a 16		 push	 22			; 00000016H
  00019	83 ec 08	 sub	 esp, 8
  0001c	f2 0f 10 05 00
	00 00 00	 movsd	 xmm0, QWORD PTR __real@3ff0000000000000
  00024	f2 0f 11 04 24	 movsd	 QWORD PTR [esp], xmm0
  00029	83 ec 08	 sub	 esp, 8
  0002c	f2 0f 10 05 00
	00 00 00	 movsd	 xmm0, QWORD PTR __real@3ff0000000000000
  00034	f2 0f 11 04 24	 movsd	 QWORD PTR [esp], xmm0
  00039	6a 59		 push	 89			; 00000059H
  0003b	83 ec 08	 sub	 esp, 8
  0003e	0f 57 c0	 xorps	 xmm0, xmm0
  00041	f2 0f 11 04 24	 movsd	 QWORD PTR [esp], xmm0
  00046	83 ec 08	 sub	 esp, 8
  00049	0f 57 c0	 xorps	 xmm0, xmm0
  0004c	f2 0f 11 04 24	 movsd	 QWORD PTR [esp], xmm0
  00051	6a 34		 push	 52			; 00000034H
  00053	6a 06		 push	 6
  00055	e8 00 00 00 00	 call	 ?create_ui_object@@YAPAUUI_OBJECT@@HZZ ; create_ui_object
  0005a	83 c4 40	 add	 esp, 64			; 00000040H
  0005d	a3 00 00 00 00	 mov	 DWORD PTR ?dedicated_server_screen@@3PAUUI_OBJECT@@A, eax ; dedicated_server_screen

; 106  : 		(
; 107  : 			UI_TYPE_SCREEN,
; 108  : 			UI_ATTR_POSITION (0, 0),
; 109  : 			UI_ATTR_VIRTUAL_SIZE (1.0, 1.0),
; 110  : 			UI_ATTR_FUNCTION (dedicated_server_function),
; 111  : 			UI_ATTR_DRAW_FUNCTION (dedicated_screen_update_function),
; 112  : 			UI_ATTR_END
; 113  : 		);
; 114  : 
; 115  : 	create_ui_object

  00062	6a 11		 push	 17			; 00000011H
  00064	6a 0a		 push	 10			; 0000000aH
  00066	6a 12		 push	 18			; 00000012H
  00068	68 00 00 00 00	 push	 OFFSET ??_C@_0BB@OENKLFNO@Dedicated?5Server@
  0006d	6a 4a		 push	 74			; 0000004aH
  0006f	83 ec 08	 sub	 esp, 8
  00072	f2 0f 10 05 00
	00 00 00	 movsd	 xmm0, QWORD PTR __real@3fc2221c8a7a41e5
  0007a	f2 0f 11 04 24	 movsd	 QWORD PTR [esp], xmm0
  0007f	83 ec 08	 sub	 esp, 8
  00082	f2 0f 10 05 00
	00 00 00	 movsd	 xmm0, QWORD PTR __real@3fe51eb851eb851f
  0008a	f2 0f 11 04 24	 movsd	 QWORD PTR [esp], xmm0
  0008f	6a 58		 push	 88			; 00000058H
  00091	a1 00 00 00 00	 mov	 eax, DWORD PTR ?dedicated_server_screen@@3PAUUI_OBJECT@@A ; dedicated_server_screen
  00096	50		 push	 eax
  00097	6a 32		 push	 50			; 00000032H
  00099	6a 05		 push	 5
  0009b	e8 00 00 00 00	 call	 ?create_ui_object@@YAPAUUI_OBJECT@@HZZ ; create_ui_object
  000a0	83 c4 34	 add	 esp, 52			; 00000034H

; 116  : 			(
; 117  : 				UI_TYPE_TEXT,
; 118  : 				UI_ATTR_PARENT (dedicated_server_screen),
; 119  : 				UI_ATTR_VIRTUAL_POSITION (0.66, 0.141666),
; 120  : 				UI_ATTR_TEXT ("Dedicated Server"),
; 121  : 				UI_ATTR_FONT_TYPE (UI_FONT_ARIAL_22),
; 122  : 				UI_ATTR_END
; 123  : 			);
; 124  : 
; 125  : 	x = 0.125;

  000a3	f3 0f 10 05 00
	00 00 00	 movss	 xmm0, DWORD PTR __real@3e000000
  000ab	f3 0f 11 45 fc	 movss	 DWORD PTR _x$[ebp], xmm0

; 126  : 	y = 0.62;

  000b0	f3 0f 10 05 00
	00 00 00	 movss	 xmm0, DWORD PTR __real@3f1eb852
  000b8	f3 0f 11 45 f8	 movss	 DWORD PTR _y$[ebp], xmm0

; 127  : 
; 128  : 	dedicated_server_title_text = create_ui_object

  000bd	6a 11		 push	 17			; 00000011H
  000bf	6a 0a		 push	 10			; 0000000aH
  000c1	6a 12		 push	 18			; 00000012H
  000c3	f3 0f 5a 45 f8	 cvtss2sd xmm0, DWORD PTR _y$[ebp]
  000c8	83 ec 08	 sub	 esp, 8
  000cb	f2 0f 11 04 24	 movsd	 QWORD PTR [esp], xmm0
  000d0	f3 0f 5a 45 fc	 cvtss2sd xmm0, DWORD PTR _x$[ebp]
  000d5	83 ec 08	 sub	 esp, 8
  000d8	f2 0f 11 04 24	 movsd	 QWORD PTR [esp], xmm0
  000dd	6a 58		 push	 88			; 00000058H
  000df	a1 00 00 00 00	 mov	 eax, DWORD PTR ?dedicated_server_screen@@3PAUUI_OBJECT@@A ; dedicated_server_screen
  000e4	50		 push	 eax
  000e5	6a 32		 push	 50			; 00000032H
  000e7	6a 05		 push	 5
  000e9	e8 00 00 00 00	 call	 ?create_ui_object@@YAPAUUI_OBJECT@@HZZ ; create_ui_object
  000ee	83 c4 2c	 add	 esp, 44			; 0000002cH
  000f1	a3 00 00 00 00	 mov	 DWORD PTR ?dedicated_server_title_text@@3PAUUI_OBJECT@@A, eax

; 129  : 			(
; 130  : 				UI_TYPE_TEXT,
; 131  : 				UI_ATTR_PARENT (dedicated_server_screen),
; 132  : 				UI_ATTR_VIRTUAL_POSITION (x, y),
; 133  : 				UI_ATTR_FONT_TYPE (UI_FONT_ARIAL_22),
; 134  : 				UI_ATTR_END
; 135  : 			);
; 136  : 
; 137  : 	x = 0.125;

  000f6	f3 0f 10 05 00
	00 00 00	 movss	 xmm0, DWORD PTR __real@3e000000
  000fe	f3 0f 11 45 fc	 movss	 DWORD PTR _x$[ebp], xmm0

; 138  : 	y += 0.0625;

  00103	f3 0f 5a 45 f8	 cvtss2sd xmm0, DWORD PTR _y$[ebp]
  00108	f2 0f 58 05 00
	00 00 00	 addsd	 xmm0, QWORD PTR __real@3fb0000000000000
  00110	f2 0f 5a c0	 cvtsd2ss xmm0, xmm0
  00114	f3 0f 11 45 f8	 movss	 DWORD PTR _y$[ebp], xmm0

; 139  : 
; 140  : 	dedicated_server_map_text = create_ui_object

  00119	6a 11		 push	 17			; 00000011H
  0011b	6a 0a		 push	 10			; 0000000aH
  0011d	6a 12		 push	 18			; 00000012H
  0011f	f3 0f 5a 45 f8	 cvtss2sd xmm0, DWORD PTR _y$[ebp]
  00124	83 ec 08	 sub	 esp, 8
  00127	f2 0f 11 04 24	 movsd	 QWORD PTR [esp], xmm0
  0012c	f3 0f 5a 45 fc	 cvtss2sd xmm0, DWORD PTR _x$[ebp]
  00131	83 ec 08	 sub	 esp, 8
  00134	f2 0f 11 04 24	 movsd	 QWORD PTR [esp], xmm0
  00139	6a 58		 push	 88			; 00000058H
  0013b	a1 00 00 00 00	 mov	 eax, DWORD PTR ?dedicated_server_screen@@3PAUUI_OBJECT@@A ; dedicated_server_screen
  00140	50		 push	 eax
  00141	6a 32		 push	 50			; 00000032H
  00143	6a 05		 push	 5
  00145	e8 00 00 00 00	 call	 ?create_ui_object@@YAPAUUI_OBJECT@@HZZ ; create_ui_object
  0014a	83 c4 2c	 add	 esp, 44			; 0000002cH
  0014d	a3 00 00 00 00	 mov	 DWORD PTR ?dedicated_server_map_text@@3PAUUI_OBJECT@@A, eax

; 141  : 			(
; 142  : 				UI_TYPE_TEXT,
; 143  : 				UI_ATTR_PARENT (dedicated_server_screen),
; 144  : 				UI_ATTR_VIRTUAL_POSITION (x, y),
; 145  : 				UI_ATTR_FONT_TYPE (UI_FONT_ARIAL_22),
; 146  : 				UI_ATTR_END
; 147  : 			);
; 148  : 
; 149  : 	x = 0.125;

  00152	f3 0f 10 05 00
	00 00 00	 movss	 xmm0, DWORD PTR __real@3e000000
  0015a	f3 0f 11 45 fc	 movss	 DWORD PTR _x$[ebp], xmm0

; 150  : 	y += 0.0625;

  0015f	f3 0f 5a 45 f8	 cvtss2sd xmm0, DWORD PTR _y$[ebp]
  00164	f2 0f 58 05 00
	00 00 00	 addsd	 xmm0, QWORD PTR __real@3fb0000000000000
  0016c	f2 0f 5a c0	 cvtsd2ss xmm0, xmm0
  00170	f3 0f 11 45 f8	 movss	 DWORD PTR _y$[ebp], xmm0

; 151  : 
; 152  : 	dedicated_server_game_text = create_ui_object

  00175	6a 11		 push	 17			; 00000011H
  00177	6a 0a		 push	 10			; 0000000aH
  00179	6a 12		 push	 18			; 00000012H
  0017b	f3 0f 5a 45 f8	 cvtss2sd xmm0, DWORD PTR _y$[ebp]
  00180	83 ec 08	 sub	 esp, 8
  00183	f2 0f 11 04 24	 movsd	 QWORD PTR [esp], xmm0
  00188	f3 0f 5a 45 fc	 cvtss2sd xmm0, DWORD PTR _x$[ebp]
  0018d	83 ec 08	 sub	 esp, 8
  00190	f2 0f 11 04 24	 movsd	 QWORD PTR [esp], xmm0
  00195	6a 58		 push	 88			; 00000058H
  00197	a1 00 00 00 00	 mov	 eax, DWORD PTR ?dedicated_server_screen@@3PAUUI_OBJECT@@A ; dedicated_server_screen
  0019c	50		 push	 eax
  0019d	6a 32		 push	 50			; 00000032H
  0019f	6a 05		 push	 5
  001a1	e8 00 00 00 00	 call	 ?create_ui_object@@YAPAUUI_OBJECT@@HZZ ; create_ui_object
  001a6	83 c4 2c	 add	 esp, 44			; 0000002cH
  001a9	a3 00 00 00 00	 mov	 DWORD PTR ?dedicated_server_game_text@@3PAUUI_OBJECT@@A, eax

; 153  : 			(
; 154  : 				UI_TYPE_TEXT,
; 155  : 				UI_ATTR_PARENT (dedicated_server_screen),
; 156  : 				UI_ATTR_VIRTUAL_POSITION (x, y),
; 157  : 				UI_ATTR_FONT_TYPE (UI_FONT_ARIAL_22),
; 158  : 				UI_ATTR_END
; 159  : 			);
; 160  : 
; 161  : 	x = 0.125;

  001ae	f3 0f 10 05 00
	00 00 00	 movss	 xmm0, DWORD PTR __real@3e000000
  001b6	f3 0f 11 45 fc	 movss	 DWORD PTR _x$[ebp], xmm0

; 162  : 	y += 0.0625;

  001bb	f3 0f 5a 45 f8	 cvtss2sd xmm0, DWORD PTR _y$[ebp]
  001c0	f2 0f 58 05 00
	00 00 00	 addsd	 xmm0, QWORD PTR __real@3fb0000000000000
  001c8	f2 0f 5a c0	 cvtsd2ss xmm0, xmm0
  001cc	f3 0f 11 45 f8	 movss	 DWORD PTR _y$[ebp], xmm0

; 163  : 
; 164  : 	dedicated_server_time_text = create_ui_object

  001d1	6a 11		 push	 17			; 00000011H
  001d3	6a 0a		 push	 10			; 0000000aH
  001d5	6a 12		 push	 18			; 00000012H
  001d7	f3 0f 5a 45 f8	 cvtss2sd xmm0, DWORD PTR _y$[ebp]
  001dc	83 ec 08	 sub	 esp, 8
  001df	f2 0f 11 04 24	 movsd	 QWORD PTR [esp], xmm0
  001e4	f3 0f 5a 45 fc	 cvtss2sd xmm0, DWORD PTR _x$[ebp]
  001e9	83 ec 08	 sub	 esp, 8
  001ec	f2 0f 11 04 24	 movsd	 QWORD PTR [esp], xmm0
  001f1	6a 58		 push	 88			; 00000058H
  001f3	a1 00 00 00 00	 mov	 eax, DWORD PTR ?dedicated_server_screen@@3PAUUI_OBJECT@@A ; dedicated_server_screen
  001f8	50		 push	 eax
  001f9	6a 32		 push	 50			; 00000032H
  001fb	6a 05		 push	 5
  001fd	e8 00 00 00 00	 call	 ?create_ui_object@@YAPAUUI_OBJECT@@HZZ ; create_ui_object
  00202	83 c4 2c	 add	 esp, 44			; 0000002cH
  00205	a3 00 00 00 00	 mov	 DWORD PTR ?dedicated_server_time_text@@3PAUUI_OBJECT@@A, eax

; 165  : 			(
; 166  : 				UI_TYPE_TEXT,
; 167  : 				UI_ATTR_PARENT (dedicated_server_screen),
; 168  : 				UI_ATTR_VIRTUAL_POSITION (x, y),
; 169  : 				UI_ATTR_FONT_TYPE (UI_FONT_ARIAL_22),
; 170  : 				UI_ATTR_END
; 171  : 			);
; 172  : 
; 173  : 	dedicated_server_quit_button = create_ui_object

  0020a	6a 11		 push	 17			; 00000011H
  0020c	6a 01		 push	 1
  0020e	6a 07		 push	 7
  00210	6a 01		 push	 1
  00212	6a 1b		 push	 27			; 0000001bH
  00214	68 00 00 00 00	 push	 OFFSET ?notify_dedicated_server_quit_button@@YGXPAUUI_OBJECT@@PAX@Z ; notify_dedicated_server_quit_button
  00219	6a 16		 push	 22			; 00000016H
  0021b	6a 03		 push	 3
  0021d	6a 2f		 push	 47			; 0000002fH
  0021f	68 00 00 00 00	 push	 OFFSET ??_C@_07JEGGIJNH@UI_EXIT@
  00224	e8 00 00 00 00	 call	 ?get_trans@@YGPBDPBD@Z	; get_trans
  00229	50		 push	 eax
  0022a	6a 4a		 push	 74			; 0000004aH
  0022c	6a 0a		 push	 10			; 0000000aH
  0022e	6a 12		 push	 18			; 00000012H
  00230	83 ec 08	 sub	 esp, 8
  00233	f2 0f 10 05 00
	00 00 00	 movsd	 xmm0, QWORD PTR __real@3fb0000000000000
  0023b	f2 0f 11 04 24	 movsd	 QWORD PTR [esp], xmm0
  00240	83 ec 08	 sub	 esp, 8
  00243	f2 0f 10 05 00
	00 00 00	 movsd	 xmm0, QWORD PTR __real@3fc0000000000000
  0024b	f2 0f 11 04 24	 movsd	 QWORD PTR [esp], xmm0
  00250	6a 59		 push	 89			; 00000059H
  00252	83 ec 08	 sub	 esp, 8
  00255	f2 0f 10 05 00
	00 00 00	 movsd	 xmm0, QWORD PTR __real@3fecaaa3ad18d25f
  0025d	f2 0f 11 04 24	 movsd	 QWORD PTR [esp], xmm0
  00262	83 ec 08	 sub	 esp, 8
  00265	0f 57 c0	 xorps	 xmm0, xmm0
  00268	f2 0f 11 04 24	 movsd	 QWORD PTR [esp], xmm0
  0026d	6a 58		 push	 88			; 00000058H
  0026f	a1 00 00 00 00	 mov	 eax, DWORD PTR ?dedicated_server_screen@@3PAUUI_OBJECT@@A ; dedicated_server_screen
  00274	50		 push	 eax
  00275	6a 32		 push	 50			; 00000032H
  00277	6a 02		 push	 2
  00279	e8 00 00 00 00	 call	 ?create_ui_object@@YAPAUUI_OBJECT@@HZZ ; create_ui_object
  0027e	83 c4 68	 add	 esp, 104		; 00000068H
  00281	a3 00 00 00 00	 mov	 DWORD PTR ?dedicated_server_quit_button@@3PAUUI_OBJECT@@A, eax

; 174  : 								(
; 175  : 									UI_TYPE_BUTTON,
; 176  : 									UI_ATTR_PARENT (dedicated_server_screen),
; 177  : 									UI_ATTR_VIRTUAL_POSITION (0.0, 0.89583),
; 178  : 									UI_ATTR_VIRTUAL_SIZE (0.125, 0.0625),
; 179  : 									UI_ATTR_FONT_TYPE (UI_FONT_ARIAL_22),
; 180  : 									UI_ATTR_TEXT (get_trans("UI_EXIT")),
; 181  : 									UI_ATTR_NOTIFY_ON (NOTIFY_TYPE_BUTTON_EITHER),
; 182  : 									UI_ATTR_FUNCTION (notify_dedicated_server_quit_button),
; 183  : 									UI_ATTR_HIGHLIGHTABLE (TRUE),
; 184  : 									UI_ATTR_CLEAR (TRUE),
; 185  : 									UI_ATTR_END
; 186  : 								);
; 187  : 
; 188  : 	/////////////////////////////////////////////////////////////////
; 189  : 	// List of players
; 190  : 
; 191  : 	{
; 192  : 		float
; 193  : 			x1, y1,
; 194  : 			x2, y2;
; 195  : 			
; 196  : 		x1 = 0.125;

  00286	f3 0f 10 05 00
	00 00 00	 movss	 xmm0, DWORD PTR __real@3e000000
  0028e	f3 0f 11 45 f4	 movss	 DWORD PTR _x1$4[ebp], xmm0

; 197  : 		y1 = 0.175;

  00293	f3 0f 10 05 00
	00 00 00	 movss	 xmm0, DWORD PTR __real@3e333333
  0029b	f3 0f 11 45 f0	 movss	 DWORD PTR _y1$3[ebp], xmm0

; 198  : 		x2 = 0.6;

  002a0	f3 0f 10 05 00
	00 00 00	 movss	 xmm0, DWORD PTR __real@3f19999a
  002a8	f3 0f 11 45 ec	 movss	 DWORD PTR _x2$2[ebp], xmm0

; 199  : 		y2 = 0.6;

  002ad	f3 0f 10 05 00
	00 00 00	 movss	 xmm0, DWORD PTR __real@3f19999a
  002b5	f3 0f 11 45 e8	 movss	 DWORD PTR _y2$1[ebp], xmm0

; 200  : 
; 201  : 		player_list_area = create_ui_object

  002ba	6a 11		 push	 17			; 00000011H
  002bc	a1 00 00 00 00	 mov	 eax, DWORD PTR ?list_box_graphic@@3PAUTEXTURE_GRAPHIC@@A ; list_box_graphic
  002c1	50		 push	 eax
  002c2	6a 4c		 push	 76			; 0000004cH
  002c4	83 ec 08	 sub	 esp, 8
  002c7	f2 0f 10 05 00
	00 00 00	 movsd	 xmm0, QWORD PTR __real@4028000000000000
  002cf	f2 0f 11 04 24	 movsd	 QWORD PTR [esp], xmm0
  002d4	83 ec 08	 sub	 esp, 8
  002d7	f2 0f 10 05 00
	00 00 00	 movsd	 xmm0, QWORD PTR __real@4072c00000000000
  002df	f2 0f 11 04 24	 movsd	 QWORD PTR [esp], xmm0
  002e4	83 ec 08	 sub	 esp, 8
  002e7	0f 57 c0	 xorps	 xmm0, xmm0
  002ea	f2 0f 11 04 24	 movsd	 QWORD PTR [esp], xmm0
  002ef	6a 5a		 push	 90			; 0000005aH
  002f1	f3 0f 10 45 e8	 movss	 xmm0, DWORD PTR _y2$1[ebp]
  002f6	f3 0f 5c 45 f0	 subss	 xmm0, DWORD PTR _y1$3[ebp]
  002fb	f3 0f 5a c0	 cvtss2sd xmm0, xmm0
  002ff	83 ec 08	 sub	 esp, 8
  00302	f2 0f 11 04 24	 movsd	 QWORD PTR [esp], xmm0
  00307	f3 0f 10 45 ec	 movss	 xmm0, DWORD PTR _x2$2[ebp]
  0030c	f3 0f 5c 45 f4	 subss	 xmm0, DWORD PTR _x1$4[ebp]
  00311	f3 0f 5a c0	 cvtss2sd xmm0, xmm0
  00315	83 ec 08	 sub	 esp, 8
  00318	f2 0f 11 04 24	 movsd	 QWORD PTR [esp], xmm0
  0031d	6a 59		 push	 89			; 00000059H
  0031f	f3 0f 5a 45 f0	 cvtss2sd xmm0, DWORD PTR _y1$3[ebp]
  00324	83 ec 08	 sub	 esp, 8
  00327	f2 0f 11 04 24	 movsd	 QWORD PTR [esp], xmm0
  0032c	f3 0f 5a 45 f4	 cvtss2sd xmm0, DWORD PTR _x1$4[ebp]
  00331	83 ec 08	 sub	 esp, 8
  00334	f2 0f 11 04 24	 movsd	 QWORD PTR [esp], xmm0
  00339	6a 58		 push	 88			; 00000058H
  0033b	8b 0d 00 00 00
	00		 mov	 ecx, DWORD PTR ?dedicated_server_screen@@3PAUUI_OBJECT@@A ; dedicated_server_screen
  00341	51		 push	 ecx
  00342	6a 32		 push	 50			; 00000032H
  00344	6a 01		 push	 1
  00346	e8 00 00 00 00	 call	 ?create_ui_object@@YAPAUUI_OBJECT@@HZZ ; create_ui_object
  0034b	83 c4 5c	 add	 esp, 92			; 0000005cH
  0034e	a3 00 00 00 00	 mov	 DWORD PTR ?player_list_area@@3PAUUI_OBJECT@@A, eax

; 202  : 			(
; 203  : 				UI_TYPE_AREA,
; 204  : 				UI_ATTR_PARENT (dedicated_server_screen),
; 205  : 				UI_ATTR_VIRTUAL_POSITION (x1, y1),
; 206  : 				UI_ATTR_VIRTUAL_SIZE (x2 - x1, y2 - y1),
; 207  : 				UI_ATTR_VSLIDER (0, 300, 12),
; 208  : 				UI_ATTR_TEXTURE_GRAPHIC (list_box_graphic),
; 209  : 				UI_ATTR_END
; 210  : 			);
; 211  : 
; 212  : 		set_frontend_slider_graphics (player_list_area);

  00353	a1 00 00 00 00	 mov	 eax, DWORD PTR ?player_list_area@@3PAUUI_OBJECT@@A
  00358	50		 push	 eax
  00359	e8 00 00 00 00	 call	 ?set_frontend_slider_graphics@@YGXPAUUI_OBJECT@@@Z ; set_frontend_slider_graphics

; 213  : 
; 214  : 		// List Box
; 215  : 
; 216  : 		x1 = 0.05;

  0035e	f3 0f 10 05 00
	00 00 00	 movss	 xmm0, DWORD PTR __real@3d4ccccd
  00366	f3 0f 11 45 f4	 movss	 DWORD PTR _x1$4[ebp], xmm0

; 217  : 		y1 = 0.05;

  0036b	f3 0f 10 05 00
	00 00 00	 movss	 xmm0, DWORD PTR __real@3d4ccccd
  00373	f3 0f 11 45 f0	 movss	 DWORD PTR _y1$3[ebp], xmm0

; 218  : 		x2 = 0.95;

  00378	f3 0f 10 05 00
	00 00 00	 movss	 xmm0, DWORD PTR __real@3f733333
  00380	f3 0f 11 45 ec	 movss	 DWORD PTR _x2$2[ebp], xmm0

; 219  : 		y2 = 0.95;

  00385	f3 0f 10 05 00
	00 00 00	 movss	 xmm0, DWORD PTR __real@3f733333
  0038d	f3 0f 11 45 e8	 movss	 DWORD PTR _y2$1[ebp], xmm0

; 220  : 
; 221  : 		player_list = create_ui_object

  00392	6a 11		 push	 17			; 00000011H
  00394	6a 00		 push	 0
  00396	6a 2f		 push	 47			; 0000002fH
  00398	6a 03		 push	 3
  0039a	6a 12		 push	 18			; 00000012H
  0039c	6a 01		 push	 1
  0039e	6a 07		 push	 7
  003a0	f3 0f 10 45 e8	 movss	 xmm0, DWORD PTR _y2$1[ebp]
  003a5	f3 0f 5c 45 f0	 subss	 xmm0, DWORD PTR _y1$3[ebp]
  003aa	f3 0f 5a c0	 cvtss2sd xmm0, xmm0
  003ae	83 ec 08	 sub	 esp, 8
  003b1	f2 0f 11 04 24	 movsd	 QWORD PTR [esp], xmm0
  003b6	f3 0f 10 45 ec	 movss	 xmm0, DWORD PTR _x2$2[ebp]
  003bb	f3 0f 5c 45 f4	 subss	 xmm0, DWORD PTR _x1$4[ebp]
  003c0	f3 0f 5a c0	 cvtss2sd xmm0, xmm0
  003c4	83 ec 08	 sub	 esp, 8
  003c7	f2 0f 11 04 24	 movsd	 QWORD PTR [esp], xmm0
  003cc	6a 59		 push	 89			; 00000059H
  003ce	f3 0f 5a 45 f0	 cvtss2sd xmm0, DWORD PTR _y1$3[ebp]
  003d3	83 ec 08	 sub	 esp, 8
  003d6	f2 0f 11 04 24	 movsd	 QWORD PTR [esp], xmm0
  003db	f3 0f 5a 45 f4	 cvtss2sd xmm0, DWORD PTR _x1$4[ebp]
  003e0	83 ec 08	 sub	 esp, 8
  003e3	f2 0f 11 04 24	 movsd	 QWORD PTR [esp], xmm0
  003e8	6a 58		 push	 88			; 00000058H
  003ea	a1 00 00 00 00	 mov	 eax, DWORD PTR ?player_list_area@@3PAUUI_OBJECT@@A
  003ef	50		 push	 eax
  003f0	6a 32		 push	 50			; 00000032H
  003f2	6a 0d		 push	 13			; 0000000dH
  003f4	e8 00 00 00 00	 call	 ?create_ui_object@@YAPAUUI_OBJECT@@HZZ ; create_ui_object
  003f9	83 c4 50	 add	 esp, 80			; 00000050H
  003fc	a3 00 00 00 00	 mov	 DWORD PTR ?player_list@@3PAUUI_OBJECT@@A, eax

; 222  : 				(
; 223  : 					UI_TYPE_LIST_BOX,
; 224  : 					UI_ATTR_PARENT (player_list_area),
; 225  : 					UI_ATTR_VIRTUAL_POSITION (x1, y1),
; 226  : 					UI_ATTR_VIRTUAL_SIZE (x2 - x1, y2 - y1),
; 227  : 					UI_ATTR_CLEAR (TRUE),
; 228  : 					UI_ATTR_FONT_TYPE (UI_FONT_ARIAL_16),
; 229  : 					UI_ATTR_NOTIFY_ON (NOTIFY_TYPE_NONE),
; 230  : 					UI_ATTR_END
; 231  : 				);
; 232  : 	}
; 233  : }

  00401	5f		 pop	 edi
  00402	5e		 pop	 esi
  00403	5b		 pop	 ebx
  00404	8b e5		 mov	 esp, ebp
  00406	5d		 pop	 ebp
  00407	c3		 ret	 0
?initialise_dedicated_server_screen@@YGXXZ ENDP		; initialise_dedicated_server_screen
_TEXT	ENDS
; Function compile flags: /Odtp /ZI
; File c:\program files (x86)\windows kits\10\include\10.0.18362.0\ucrt\stdio.h
;	COMDAT _sprintf
_TEXT	SEGMENT
__ArgList$ = -8						; size = 4
__Result$ = -4						; size = 4
__Buffer$ = 8						; size = 4
__Format$ = 12						; size = 4
_sprintf PROC						; COMDAT

; 1781 :     {

  00000	55		 push	 ebp
  00001	8b ec		 mov	 ebp, esp
  00003	83 ec 4c	 sub	 esp, 76			; 0000004cH
  00006	53		 push	 ebx
  00007	56		 push	 esi
  00008	57		 push	 edi

; 1782 :         int _Result;
; 1783 :         va_list _ArgList;
; 1784 :         __crt_va_start(_ArgList, _Format);

  00009	8d 45 10	 lea	 eax, DWORD PTR __Format$[ebp+4]
  0000c	89 45 f8	 mov	 DWORD PTR __ArgList$[ebp], eax

; 1785 : 
; 1786 :         #pragma warning(push)
; 1787 :         #pragma warning(disable: 4996) // Deprecation
; 1788 :         _Result = _vsprintf_l(_Buffer, _Format, NULL, _ArgList);

  0000f	8b 45 f8	 mov	 eax, DWORD PTR __ArgList$[ebp]
  00012	50		 push	 eax
  00013	6a 00		 push	 0
  00015	8b 4d 0c	 mov	 ecx, DWORD PTR __Format$[ebp]
  00018	51		 push	 ecx
  00019	8b 55 08	 mov	 edx, DWORD PTR __Buffer$[ebp]
  0001c	52		 push	 edx
  0001d	e8 00 00 00 00	 call	 __vsprintf_l
  00022	83 c4 10	 add	 esp, 16			; 00000010H
  00025	89 45 fc	 mov	 DWORD PTR __Result$[ebp], eax

; 1789 :         #pragma warning(pop)
; 1790 : 
; 1791 :         __crt_va_end(_ArgList);

  00028	c7 45 f8 00 00
	00 00		 mov	 DWORD PTR __ArgList$[ebp], 0

; 1792 :         return _Result;

  0002f	8b 45 fc	 mov	 eax, DWORD PTR __Result$[ebp]

; 1793 :     }

  00032	5f		 pop	 edi
  00033	5e		 pop	 esi
  00034	5b		 pop	 ebx
  00035	8b e5		 mov	 esp, ebp
  00037	5d		 pop	 ebp
  00038	c3		 ret	 0
_sprintf ENDP
_TEXT	ENDS
; Function compile flags: /Odtp /ZI
; File c:\program files (x86)\windows kits\10\include\10.0.18362.0\ucrt\stdio.h
;	COMDAT __vsprintf_l
_TEXT	SEGMENT
__Buffer$ = 8						; size = 4
__Format$ = 12						; size = 4
__Locale$ = 16						; size = 4
__ArgList$ = 20						; size = 4
__vsprintf_l PROC					; COMDAT

; 1459 :     {

  00000	55		 push	 ebp
  00001	8b ec		 mov	 ebp, esp
  00003	83 ec 40	 sub	 esp, 64			; 00000040H
  00006	53		 push	 ebx
  00007	56		 push	 esi
  00008	57		 push	 edi

; 1460 :         #pragma warning(push)
; 1461 :         #pragma warning(disable: 4996) // Deprecation
; 1462 :         return _vsnprintf_l(_Buffer, (size_t)-1, _Format, _Locale, _ArgList);

  00009	8b 45 14	 mov	 eax, DWORD PTR __ArgList$[ebp]
  0000c	50		 push	 eax
  0000d	8b 4d 10	 mov	 ecx, DWORD PTR __Locale$[ebp]
  00010	51		 push	 ecx
  00011	8b 55 0c	 mov	 edx, DWORD PTR __Format$[ebp]
  00014	52		 push	 edx
  00015	6a ff		 push	 -1
  00017	8b 45 08	 mov	 eax, DWORD PTR __Buffer$[ebp]
  0001a	50		 push	 eax
  0001b	e8 00 00 00 00	 call	 __vsnprintf_l
  00020	83 c4 14	 add	 esp, 20			; 00000014H

; 1463 :         #pragma warning(pop)
; 1464 :     }

  00023	5f		 pop	 edi
  00024	5e		 pop	 esi
  00025	5b		 pop	 ebx
  00026	8b e5		 mov	 esp, ebp
  00028	5d		 pop	 ebp
  00029	c3		 ret	 0
__vsprintf_l ENDP
_TEXT	ENDS
; Function compile flags: /Odtp /ZI
; File c:\program files (x86)\windows kits\10\include\10.0.18362.0\ucrt\stdio.h
;	COMDAT __vsnprintf_l
_TEXT	SEGMENT
tv74 = -72						; size = 4
__Result$ = -4						; size = 4
__Buffer$ = 8						; size = 4
__BufferCount$ = 12					; size = 4
__Format$ = 16						; size = 4
__Locale$ = 20						; size = 4
__ArgList$ = 24						; size = 4
__vsnprintf_l PROC					; COMDAT

; 1389 :     {

  00000	55		 push	 ebp
  00001	8b ec		 mov	 ebp, esp
  00003	83 ec 48	 sub	 esp, 72			; 00000048H
  00006	53		 push	 ebx
  00007	56		 push	 esi
  00008	57		 push	 edi

; 1390 :         int const _Result = __stdio_common_vsprintf(

  00009	8b 45 18	 mov	 eax, DWORD PTR __ArgList$[ebp]
  0000c	50		 push	 eax
  0000d	8b 4d 14	 mov	 ecx, DWORD PTR __Locale$[ebp]
  00010	51		 push	 ecx
  00011	8b 55 10	 mov	 edx, DWORD PTR __Format$[ebp]
  00014	52		 push	 edx
  00015	8b 45 0c	 mov	 eax, DWORD PTR __BufferCount$[ebp]
  00018	50		 push	 eax
  00019	8b 4d 08	 mov	 ecx, DWORD PTR __Buffer$[ebp]
  0001c	51		 push	 ecx
  0001d	e8 00 00 00 00	 call	 ___local_stdio_printf_options
  00022	8b 10		 mov	 edx, DWORD PTR [eax]
  00024	83 ca 01	 or	 edx, 1
  00027	8b 40 04	 mov	 eax, DWORD PTR [eax+4]
  0002a	50		 push	 eax
  0002b	52		 push	 edx
  0002c	ff 15 00 00 00
	00		 call	 DWORD PTR __imp____stdio_common_vsprintf
  00032	83 c4 1c	 add	 esp, 28			; 0000001cH
  00035	89 45 fc	 mov	 DWORD PTR __Result$[ebp], eax

; 1391 :             _CRT_INTERNAL_LOCAL_PRINTF_OPTIONS | _CRT_INTERNAL_PRINTF_LEGACY_VSPRINTF_NULL_TERMINATION,
; 1392 :             _Buffer, _BufferCount, _Format, _Locale, _ArgList);
; 1393 : 
; 1394 :         return _Result < 0 ? -1 : _Result;

  00038	83 7d fc 00	 cmp	 DWORD PTR __Result$[ebp], 0
  0003c	7d 09		 jge	 SHORT $LN3@vsnprintf_
  0003e	c7 45 b8 ff ff
	ff ff		 mov	 DWORD PTR tv74[ebp], -1
  00045	eb 06		 jmp	 SHORT $LN4@vsnprintf_
$LN3@vsnprintf_:
  00047	8b 45 fc	 mov	 eax, DWORD PTR __Result$[ebp]
  0004a	89 45 b8	 mov	 DWORD PTR tv74[ebp], eax
$LN4@vsnprintf_:
  0004d	8b 45 b8	 mov	 eax, DWORD PTR tv74[ebp]

; 1395 :     }

  00050	5f		 pop	 edi
  00051	5e		 pop	 esi
  00052	5b		 pop	 ebx
  00053	8b e5		 mov	 esp, ebp
  00055	5d		 pop	 ebp
  00056	c3		 ret	 0
__vsnprintf_l ENDP
_TEXT	ENDS
; Function compile flags: /Odtp /ZI
; File c:\program files (x86)\windows kits\10\include\10.0.18362.0\ucrt\corecrt_stdio_config.h
;	COMDAT ___local_stdio_printf_options
_TEXT	SEGMENT
___local_stdio_printf_options PROC			; COMDAT

; 86   :     {

  00000	55		 push	 ebp
  00001	8b ec		 mov	 ebp, esp
  00003	83 ec 40	 sub	 esp, 64			; 00000040H
  00006	53		 push	 ebx
  00007	56		 push	 esi
  00008	57		 push	 edi

; 87   :         static unsigned __int64 _OptionsStorage;
; 88   :         return &_OptionsStorage;

  00009	b8 00 00 00 00	 mov	 eax, OFFSET ?_OptionsStorage@?1??__local_stdio_printf_options@@9@4_KA ; `__local_stdio_printf_options'::`2'::_OptionsStorage

; 89   :     }

  0000e	5f		 pop	 edi
  0000f	5e		 pop	 esi
  00010	5b		 pop	 ebx
  00011	8b e5		 mov	 esp, ebp
  00013	5d		 pop	 ebp
  00014	c3		 ret	 0
___local_stdio_printf_options ENDP
_TEXT	ENDS
END
