; Listing generated by Microsoft (R) Optimizing Compiler Version 19.16.27045.0 

	TITLE	C:\Users\nhv90\Projects\eech\aphavoc\source\gunships\avionics\default\df_avevn.c
	.686P
	.XMM
	include listing.inc
	.model	flat

INCLUDELIB MSVCRTD
INCLUDELIB OLDNAMES

PUBLIC	?set_default_avionics_events@@YGXXZ		; set_default_avionics_events
PUBLIC	??_C@_0FB@CPPOAHBH@c?3?2users?2nhv90?2projects?2eech?2ap@ ; `string'
PUBLIC	?__LINE__Var@?0??toggle_lobl_loal_event@@YGXPAUEVENT@@@Z@4JA ; `toggle_lobl_loal_event'::`1'::__LINE__Var
PUBLIC	?__LINE__Var@?0??virtual_cockpit_track_target_event@@YGXPAUEVENT@@@Z@4JA ; `virtual_cockpit_track_target_event'::`1'::__LINE__Var
PUBLIC	??_C@_02DHMHPBFG@ev@				; `string'
PUBLIC	?__LINE__Var@?0??toggle_navigation_lights_event@@YGXPAUEVENT@@@Z@4JA ; `toggle_navigation_lights_event'::`1'::__LINE__Var
PUBLIC	?__LINE__Var@?0??activate_laser_event@@YGXPAUEVENT@@@Z@4JA ; `activate_laser_event'::`1'::__LINE__Var
PUBLIC	__real@3f000000
PUBLIC	__real@3f800000
EXTRN	?process_assert@@YGXPBD0H@Z:PROC		; process_assert
EXTRN	?set_event@@YGXHHHP6GXPAUEVENT@@@Z@Z:PROC	; set_event
EXTRN	?open_client_server_entity_loading_doors@@YGXPAUENTITY@@@Z:PROC ; open_client_server_entity_loading_doors
EXTRN	?close_client_server_entity_loading_doors@@YGXPAUENTITY@@@Z:PROC ; close_client_server_entity_loading_doors
EXTRN	?open_client_server_entity_cargo_doors@@YGXPAUENTITY@@@Z:PROC ; open_client_server_entity_cargo_doors
EXTRN	?close_client_server_entity_cargo_doors@@YGXPAUENTITY@@@Z:PROC ; close_client_server_entity_cargo_doors
EXTRN	?lower_client_server_entity_undercarriage@@YGXPAUENTITY@@@Z:PROC ; lower_client_server_entity_undercarriage
EXTRN	?raise_client_server_entity_undercarriage@@YGXPAUENTITY@@@Z:PROC ; raise_client_server_entity_undercarriage
EXTRN	?get_local_entity_undercarriage_state@@YGHPAUENTITY@@@Z:PROC ; get_local_entity_undercarriage_state
EXTRN	?get_local_entity_loading_door_state@@YGHPAUENTITY@@@Z:PROC ; get_local_entity_loading_door_state
EXTRN	?get_local_entity_weapon_available@@YGHPAUENTITY@@H@Z:PROC ; get_local_entity_weapon_available
EXTRN	?play_client_server_cpg_message@@YGHPAUENTITY@@MMHMH@Z:PROC ; play_client_server_cpg_message
EXTRN	?set_view_mode@@YGHW4VIEW_MODES@@@Z:PROC	; set_view_mode
EXTRN	?select_padlock_view_event@@YGXW4PADLOCK_MODES@@@Z:PROC ; select_padlock_view_event
EXTRN	?laser_is_active@@YGHXZ:PROC			; laser_is_active
EXTRN	?set_laser_is_active@@YGXH@Z:PROC		; set_laser_is_active
EXTRN	?eo_is_tracking_point@@YGHXZ:PROC		; eo_is_tracking_point
EXTRN	?set_hud_bob_up_overlay@@YGXXZ:PROC		; set_hud_bob_up_overlay
EXTRN	?switch_hud_mode@@YGXXZ:PROC			; switch_hud_mode
EXTRN	?clear_hud_bob_up_overlay@@YGXXZ:PROC		; clear_hud_bob_up_overlay
EXTRN	?set_gunship_weapon@@YGXH@Z:PROC		; set_gunship_weapon
EXTRN	?deactivate_default_master_caution@@YGXXZ:PROC	; deactivate_default_master_caution
EXTRN	?inc_default_eo_zoom@@YGXXZ:PROC		; inc_default_eo_zoom
EXTRN	?dec_default_eo_zoom@@YGXXZ:PROC		; dec_default_eo_zoom
EXTRN	?toggle_default_eo_system@@YGXXZ:PROC		; toggle_default_eo_system
EXTRN	?select_default_mfd_mode@@YGXW4MFD_MODES@@W4MFD_LOCATIONS@@@Z:PROC ; select_default_mfd_mode
EXTRN	?select_next_default_tsd_ase_range@@YGXXZ:PROC	; select_next_default_tsd_ase_range
EXTRN	?select_previous_default_tsd_ase_range@@YGXXZ:PROC ; select_previous_default_tsd_ase_range
EXTRN	?select_next_default_tsd_declutter_level@@YGXXZ:PROC ; select_next_default_tsd_declutter_level
EXTRN	?select_next_default_lhs_mfd@@YGXXZ:PROC	; select_next_default_lhs_mfd
EXTRN	?select_previous_default_lhs_mfd@@YGXXZ:PROC	; select_previous_default_lhs_mfd
EXTRN	?select_next_default_rhs_mfd@@YGXXZ:PROC	; select_next_default_rhs_mfd
EXTRN	?select_previous_default_rhs_mfd@@YGXXZ:PROC	; select_previous_default_rhs_mfd
EXTRN	?toggle_default_ase_auto_page@@YGXXZ:PROC	; toggle_default_ase_auto_page
EXTRN	?toggle_default_lhs_mfd_on_off@@YGXXZ:PROC	; toggle_default_lhs_mfd_on_off
EXTRN	?toggle_default_rhs_mfd_on_off@@YGXXZ:PROC	; toggle_default_rhs_mfd_on_off
EXTRN	?set_default_radar_zoomed@@YGXH@Z:PROC		; set_default_radar_zoomed
EXTRN	?select_default_target_acquisition_system@@YGXW4TARGET_ACQUISITION_SYSTEMS@@@Z:PROC ; select_default_target_acquisition_system
EXTRN	?centre_default_target_acquisition_system@@YGXXZ:PROC ; centre_default_target_acquisition_system
EXTRN	?toggle_default_show_allied_targets@@YGXXZ:PROC	; toggle_default_show_allied_targets
EXTRN	?toggle_default_auto_target@@YGXXZ:PROC		; toggle_default_auto_target
EXTRN	?toggle_default_lock_target@@YGXXZ:PROC		; toggle_default_lock_target
EXTRN	?set_default_lock_target@@YGXH@Z:PROC		; set_default_lock_target
EXTRN	?default_target_acquisition_system_misc_function1@@YGXXZ:PROC ; default_target_acquisition_system_misc_function1
EXTRN	?default_target_acquisition_system_misc_function2@@YGXXZ:PROC ; default_target_acquisition_system_misc_function2
EXTRN	?toggle_default_radar_jammer_manual@@YGXXZ:PROC	; toggle_default_radar_jammer_manual
EXTRN	?toggle_default_infra_red_jammer_manual@@YGXXZ:PROC ; toggle_default_infra_red_jammer_manual
EXTRN	?null_entity_pointer_message@@3PBDB:DWORD	; null_entity_pointer_message
EXTRN	?global_options@@3UGLOBAL_OPTIONS_DATA@@A:BYTE	; global_options
EXTRN	?system_comms_model@@3W4COMMS_MODEL_TYPES@@A:DWORD ; system_comms_model
EXTRN	?overload_invalid_list_type_message@@3PBDB:DWORD ; overload_invalid_list_type_message
EXTRN	?fn_get_local_entity_parent@@3PAY0CN@P6GPAUENTITY@@PAU1@W4LIST_TYPES@@@ZA:BYTE ; fn_get_local_entity_parent
EXTRN	?overload_invalid_int_type_message@@3PBDB:DWORD	; overload_invalid_int_type_message
EXTRN	?fn_set_client_server_entity_int_value@@3PAY1BBH@1P6GXPAUENTITY@@W4INT_TYPES@@H@ZA:BYTE ; fn_set_client_server_entity_int_value
EXTRN	?fn_get_local_entity_int_value@@3PAY0BBH@P6GHPAUENTITY@@W4INT_TYPES@@@ZA:BYTE ; fn_get_local_entity_int_value
EXTRN	?gunship_entity@@3PAUENTITY@@A:DWORD		; gunship_entity
EXTRN	?view_mode@@3W4VIEW_MODES@@A:DWORD		; view_mode
EXTRN	?continuous_target_acquisition_system_steer_left_key@@3HA:DWORD ; continuous_target_acquisition_system_steer_left_key
EXTRN	?continuous_target_acquisition_system_steer_right_key@@3HA:DWORD ; continuous_target_acquisition_system_steer_right_key
EXTRN	?continuous_target_acquisition_system_steer_up_key@@3HA:DWORD ; continuous_target_acquisition_system_steer_up_key
EXTRN	?continuous_target_acquisition_system_steer_down_key@@3HA:DWORD ; continuous_target_acquisition_system_steer_down_key
EXTRN	?single_target_acquisition_system_steer_left_key@@3HA:DWORD ; single_target_acquisition_system_steer_left_key
EXTRN	?single_target_acquisition_system_steer_right_key@@3HA:DWORD ; single_target_acquisition_system_steer_right_key
EXTRN	?single_target_acquisition_system_steer_up_key@@3HA:DWORD ; single_target_acquisition_system_steer_up_key
EXTRN	?single_target_acquisition_system_steer_down_key@@3HA:DWORD ; single_target_acquisition_system_steer_down_key
EXTRN	?single_target_acquisition_system_inc_range_key@@3HA:DWORD ; single_target_acquisition_system_inc_range_key
EXTRN	?single_target_acquisition_system_dec_range_key@@3HA:DWORD ; single_target_acquisition_system_dec_range_key
EXTRN	?single_target_acquisition_system_inc_target_priority_key@@3HA:DWORD ; single_target_acquisition_system_inc_target_priority_key
EXTRN	?single_target_acquisition_system_dec_target_priority_key@@3HA:DWORD ; single_target_acquisition_system_dec_target_priority_key
EXTRN	?single_target_acquisition_system_select_next_target_key@@3HA:DWORD ; single_target_acquisition_system_select_next_target_key
EXTRN	?single_target_acquisition_system_select_previous_target_key@@3HA:DWORD ; single_target_acquisition_system_select_previous_target_key
EXTRN	?continuous_target_acquisition_system_steer_left_fast_key@@3HA:DWORD ; continuous_target_acquisition_system_steer_left_fast_key
EXTRN	?continuous_target_acquisition_system_steer_right_fast_key@@3HA:DWORD ; continuous_target_acquisition_system_steer_right_fast_key
EXTRN	?continuous_target_acquisition_system_steer_up_fast_key@@3HA:DWORD ; continuous_target_acquisition_system_steer_up_fast_key
EXTRN	?continuous_target_acquisition_system_steer_down_fast_key@@3HA:DWORD ; continuous_target_acquisition_system_steer_down_fast_key
EXTRN	?single_target_acquisition_system_steer_left_fast_key@@3HA:DWORD ; single_target_acquisition_system_steer_left_fast_key
EXTRN	?single_target_acquisition_system_steer_right_fast_key@@3HA:DWORD ; single_target_acquisition_system_steer_right_fast_key
EXTRN	?single_target_acquisition_system_steer_up_fast_key@@3HA:DWORD ; single_target_acquisition_system_steer_up_fast_key
EXTRN	?single_target_acquisition_system_steer_down_fast_key@@3HA:DWORD ; single_target_acquisition_system_steer_down_fast_key
EXTRN	?single_target_acquisition_system_inc_target_priority_fast_key@@3HA:DWORD ; single_target_acquisition_system_inc_target_priority_fast_key
EXTRN	?single_target_acquisition_system_dec_target_priority_fast_key@@3HA:DWORD ; single_target_acquisition_system_dec_target_priority_fast_key
EXTRN	?continuous_target_acquisition_system_steer_left_fine_key@@3HA:DWORD ; continuous_target_acquisition_system_steer_left_fine_key
EXTRN	?continuous_target_acquisition_system_steer_right_fine_key@@3HA:DWORD ; continuous_target_acquisition_system_steer_right_fine_key
EXTRN	?continuous_target_acquisition_system_steer_up_fine_key@@3HA:DWORD ; continuous_target_acquisition_system_steer_up_fine_key
EXTRN	?continuous_target_acquisition_system_steer_down_fine_key@@3HA:DWORD ; continuous_target_acquisition_system_steer_down_fine_key
EXTRN	?toggle_ground_stabilisation_key@@3HA:DWORD	; toggle_ground_stabilisation_key
EXTRN	?eo_sensor@@3W4TARGET_ACQUISITION_SYSTEMS@@A:DWORD ; eo_sensor
EXTRN	?night_vision_system_active@@3HA:DWORD		; night_vision_system_active
EXTRN	?default_damage@@3TDEFAULT_DAMAGE_FLAGS@@A:DWORD ; default_damage
EXTRN	?current_flight_dynamics@@3PAUDYNAMICS_TYPE@@A:DWORD ; current_flight_dynamics
EXTRN	__fltused:DWORD
;	COMDAT __real@3f800000
CONST	SEGMENT
__real@3f800000 DD 03f800000r			; 1
CONST	ENDS
;	COMDAT __real@3f000000
CONST	SEGMENT
__real@3f000000 DD 03f000000r			; 0.5
CONST	ENDS
;	COMDAT ?__LINE__Var@?0??activate_laser_event@@YGXPAUEVENT@@@Z@4JA
_DATA	SEGMENT
?__LINE__Var@?0??activate_laser_event@@YGXPAUEVENT@@@Z@4JA DD 0474H ; `activate_laser_event'::`1'::__LINE__Var
_DATA	ENDS
;	COMDAT ?__LINE__Var@?0??toggle_navigation_lights_event@@YGXPAUEVENT@@@Z@4JA
_DATA	SEGMENT
?__LINE__Var@?0??toggle_navigation_lights_event@@YGXPAUEVENT@@@Z@4JA DD 0467H ; `toggle_navigation_lights_event'::`1'::__LINE__Var
_DATA	ENDS
;	COMDAT ??_C@_02DHMHPBFG@ev@
CONST	SEGMENT
??_C@_02DHMHPBFG@ev@ DB 'ev', 00H			; `string'
CONST	ENDS
;	COMDAT ?__LINE__Var@?0??virtual_cockpit_track_target_event@@YGXPAUEVENT@@@Z@4JA
_DATA	SEGMENT
?__LINE__Var@?0??virtual_cockpit_track_target_event@@YGXPAUEVENT@@@Z@4JA DD 02d5H ; `virtual_cockpit_track_target_event'::`1'::__LINE__Var
_DATA	ENDS
;	COMDAT ?__LINE__Var@?0??toggle_lobl_loal_event@@YGXPAUEVENT@@@Z@4JA
_DATA	SEGMENT
?__LINE__Var@?0??toggle_lobl_loal_event@@YGXPAUEVENT@@@Z@4JA DD 02bcH ; `toggle_lobl_loal_event'::`1'::__LINE__Var
_DATA	ENDS
;	COMDAT ??_C@_0FB@CPPOAHBH@c?3?2users?2nhv90?2projects?2eech?2ap@
CONST	SEGMENT
??_C@_0FB@CPPOAHBH@c?3?2users?2nhv90?2projects?2eech?2ap@ DB 'c:\users\nh'
	DB	'v90\projects\eech\aphavoc\source\gunships\avionics\default\df'
	DB	'_avevn.c', 00H				; `string'
CONST	ENDS
; Function compile flags: /Odtp /ZI
; File c:\users\nhv90\projects\eech\aphavoc\source\gunships\avionics\default\df_avevn.c
;	COMDAT ?toggle_door_event@@YGXPAUEVENT@@@Z
_TEXT	SEGMENT
tv66 = -76						; size = 4
_en$ = -8						; size = 4
_state$ = -4						; size = 4
_ev$ = 8						; size = 4
?toggle_door_event@@YGXPAUEVENT@@@Z PROC		; toggle_door_event, COMDAT

; 1192 : {

  00000	55		 push	 ebp
  00001	8b ec		 mov	 ebp, esp
  00003	83 ec 4c	 sub	 esp, 76			; 0000004cH
  00006	53		 push	 ebx
  00007	56		 push	 esi
  00008	57		 push	 edi

; 1193 : 	int
; 1194 : 		state;
; 1195 : 
; 1196 : 	entity *en;
; 1197 : 
; 1198 : 	en = get_gunship_entity ();

  00009	a1 00 00 00 00	 mov	 eax, DWORD PTR ?gunship_entity@@3PAUENTITY@@A ; gunship_entity
  0000e	89 45 f8	 mov	 DWORD PTR _en$[ebp], eax

; 1199 : 
; 1200 : 	// orientate on loading door as stallion cargo is closed but loading open at start
; 1201 : 	state = get_local_entity_loading_door_state (get_gunship_entity ());

  00011	a1 00 00 00 00	 mov	 eax, DWORD PTR ?gunship_entity@@3PAUENTITY@@A ; gunship_entity
  00016	50		 push	 eax
  00017	e8 00 00 00 00	 call	 ?get_local_entity_loading_door_state@@YGHPAUENTITY@@@Z ; get_local_entity_loading_door_state
  0001c	89 45 fc	 mov	 DWORD PTR _state$[ebp], eax

; 1202 : 
; 1203 : 	switch ( state )

  0001f	8b 45 fc	 mov	 eax, DWORD PTR _state$[ebp]
  00022	89 45 b4	 mov	 DWORD PTR tv66[ebp], eax
  00025	83 7d b4 00	 cmp	 DWORD PTR tv66[ebp], 0
  00029	74 08		 je	 SHORT $LN4@toggle_doo
  0002b	83 7d b4 02	 cmp	 DWORD PTR tv66[ebp], 2
  0002f	74 16		 je	 SHORT $LN5@toggle_doo
  00031	eb 26		 jmp	 SHORT $LN1@toggle_doo
$LN4@toggle_doo:

; 1204 : 	{
; 1205 : 		//////////////////////////////////////////////////
; 1206 : 		case 0:
; 1207 : 		//////////////////////////////////////////////////
; 1208 : 		{
; 1209 : 			open_client_server_entity_loading_doors( en );

  00033	8b 45 f8	 mov	 eax, DWORD PTR _en$[ebp]
  00036	50		 push	 eax
  00037	e8 00 00 00 00	 call	 ?open_client_server_entity_loading_doors@@YGXPAUENTITY@@@Z ; open_client_server_entity_loading_doors

; 1210 : 			open_client_server_entity_cargo_doors( en );

  0003c	8b 45 f8	 mov	 eax, DWORD PTR _en$[ebp]
  0003f	50		 push	 eax
  00040	e8 00 00 00 00	 call	 ?open_client_server_entity_cargo_doors@@YGXPAUENTITY@@@Z ; open_client_server_entity_cargo_doors

; 1211 : 
; 1212 : 			break;

  00045	eb 12		 jmp	 SHORT $LN1@toggle_doo
$LN5@toggle_doo:

; 1213 : 		}
; 1214 : 		//////////////////////////////////////////////////
; 1215 : 		case 2:
; 1216 : 		//////////////////////////////////////////////////
; 1217 : 		{
; 1218 : 			close_client_server_entity_loading_doors( en );

  00047	8b 45 f8	 mov	 eax, DWORD PTR _en$[ebp]
  0004a	50		 push	 eax
  0004b	e8 00 00 00 00	 call	 ?close_client_server_entity_loading_doors@@YGXPAUENTITY@@@Z ; close_client_server_entity_loading_doors

; 1219 : 			close_client_server_entity_cargo_doors( en );

  00050	8b 45 f8	 mov	 eax, DWORD PTR _en$[ebp]
  00053	50		 push	 eax
  00054	e8 00 00 00 00	 call	 ?close_client_server_entity_cargo_doors@@YGXPAUENTITY@@@Z ; close_client_server_entity_cargo_doors
$LN1@toggle_doo:

; 1220 : 
; 1221 : 			break;
; 1222 : 		}
; 1223 : 	}
; 1224 : 
; 1225 : 	//aus ac_anim.c
; 1226 : 	//update_aircraft_loading_doors( get_gunship_entity () );
; 1227 : 	//update_aircraft_cargo_doors( get_gunship_entity () );
; 1228 : 	//update_aircraft_undercarriage( get_gunship_entity () );
; 1229 : 
; 1230 : }

  00059	5f		 pop	 edi
  0005a	5e		 pop	 esi
  0005b	5b		 pop	 ebx
  0005c	8b e5		 mov	 esp, ebp
  0005e	5d		 pop	 ebp
  0005f	c2 04 00	 ret	 4
?toggle_door_event@@YGXPAUEVENT@@@Z ENDP		; toggle_door_event
_TEXT	ENDS
; Function compile flags: /Odtp /ZI
; File c:\users\nhv90\projects\eech\aphavoc\source\gunships\avionics\default\df_avevn.c
;	COMDAT ?toggle_gear_event@@YGXPAUEVENT@@@Z
_TEXT	SEGMENT
tv81 = -80						; size = 4
tv90 = -76						; size = 4
tv74 = -76						; size = 4
tv67 = -76						; size = 4
_en$ = -8						; size = 4
_state$ = -4						; size = 4
_ev$ = 8						; size = 4
?toggle_gear_event@@YGXPAUEVENT@@@Z PROC		; toggle_gear_event, COMDAT

; 1153 : {

  00000	55		 push	 ebp
  00001	8b ec		 mov	 ebp, esp
  00003	83 ec 50	 sub	 esp, 80			; 00000050H
  00006	53		 push	 ebx
  00007	56		 push	 esi
  00008	57		 push	 edi

; 1154 : 	int
; 1155 : 		state;
; 1156 : 
; 1157 : entity *en;
; 1158 : 
; 1159 : en = get_gunship_entity ();

  00009	a1 00 00 00 00	 mov	 eax, DWORD PTR ?gunship_entity@@3PAUENTITY@@A ; gunship_entity
  0000e	89 45 f8	 mov	 DWORD PTR _en$[ebp], eax

; 1160 : 
; 1161 : 	if (!get_dynamics_damage_type (DYNAMICS_DAMAGE_UNDERCARRIAGE))

  00011	a1 00 00 00 00	 mov	 eax, DWORD PTR ?current_flight_dynamics@@3PAUDYNAMICS_TYPE@@A ; current_flight_dynamics
  00016	8b 88 24 25 00
	00		 mov	 ecx, DWORD PTR [eax+9508]
  0001c	81 e1 00 40 00
	00		 and	 ecx, 16384		; 00004000H
  00022	74 09		 je	 SHORT $LN9@toggle_gea
  00024	c7 45 b4 01 00
	00 00		 mov	 DWORD PTR tv67[ebp], 1
  0002b	eb 07		 jmp	 SHORT $LN10@toggle_gea
$LN9@toggle_gea:
  0002d	c7 45 b4 00 00
	00 00		 mov	 DWORD PTR tv67[ebp], 0
$LN10@toggle_gea:
  00034	83 7d b4 00	 cmp	 DWORD PTR tv67[ebp], 0
  00038	0f 85 b7 00 00
	00		 jne	 $LN1@toggle_gea

; 1162 : 	{
; 1163 : 		if (get_local_entity_int_value (get_gunship_entity (), INT_TYPE_AIRBORNE_AIRCRAFT))

  0003e	83 3d 00 00 00
	00 00		 cmp	 DWORD PTR ?gunship_entity@@3PAUENTITY@@A, 0 ; gunship_entity
  00045	74 0c		 je	 SHORT $LN11@toggle_gea
  00047	a1 00 00 00 00	 mov	 eax, DWORD PTR ?gunship_entity@@3PAUENTITY@@A ; gunship_entity
  0004c	8b 08		 mov	 ecx, DWORD PTR [eax]
  0004e	89 4d b4	 mov	 DWORD PTR tv74[ebp], ecx
  00051	eb 1d		 jmp	 SHORT $LN12@toggle_gea
$LN11@toggle_gea:
  00053	68 8b 04 00 00	 push	 1163			; 0000048bH
  00058	68 00 00 00 00	 push	 OFFSET ??_C@_0FB@CPPOAHBH@c?3?2users?2nhv90?2projects?2eech?2ap@
  0005d	8b 15 00 00 00
	00		 mov	 edx, DWORD PTR ?null_entity_pointer_message@@3PBDB ; null_entity_pointer_message
  00063	52		 push	 edx
  00064	e8 00 00 00 00	 call	 ?process_assert@@YGXPBD0H@Z ; process_assert
  00069	c7 45 b4 00 00
	00 00		 mov	 DWORD PTR tv74[ebp], 0
$LN12@toggle_gea:
  00070	b8 01 00 00 00	 mov	 eax, 1
  00075	85 c0		 test	 eax, eax
  00077	74 09		 je	 SHORT $LN13@toggle_gea
  00079	c7 45 b0 04 00
	00 00		 mov	 DWORD PTR tv81[ebp], 4
  00080	eb 1d		 jmp	 SHORT $LN14@toggle_gea
$LN13@toggle_gea:
  00082	68 8b 04 00 00	 push	 1163			; 0000048bH
  00087	68 00 00 00 00	 push	 OFFSET ??_C@_0FB@CPPOAHBH@c?3?2users?2nhv90?2projects?2eech?2ap@
  0008c	8b 0d 00 00 00
	00		 mov	 ecx, DWORD PTR ?overload_invalid_int_type_message@@3PBDB ; overload_invalid_int_type_message
  00092	51		 push	 ecx
  00093	e8 00 00 00 00	 call	 ?process_assert@@YGXPBD0H@Z ; process_assert
  00098	c7 45 b0 00 00
	00 00		 mov	 DWORD PTR tv81[ebp], 0
$LN14@toggle_gea:
  0009f	6a 04		 push	 4
  000a1	8b 15 00 00 00
	00		 mov	 edx, DWORD PTR ?gunship_entity@@3PAUENTITY@@A ; gunship_entity
  000a7	52		 push	 edx
  000a8	69 45 b4 5c 04
	00 00		 imul	 eax, DWORD PTR tv74[ebp], 1116
  000af	8b 4d b0	 mov	 ecx, DWORD PTR tv81[ebp]
  000b2	8b 94 88 00 00
	00 00		 mov	 edx, DWORD PTR ?fn_get_local_entity_int_value@@3PAY0BBH@P6GHPAUENTITY@@W4INT_TYPES@@@ZA[eax+ecx*4]
  000b9	ff d2		 call	 edx
  000bb	85 c0		 test	 eax, eax
  000bd	74 36		 je	 SHORT $LN1@toggle_gea

; 1164 : 		{
; 1165 : 			state = get_local_entity_undercarriage_state (get_gunship_entity ());

  000bf	a1 00 00 00 00	 mov	 eax, DWORD PTR ?gunship_entity@@3PAUENTITY@@A ; gunship_entity
  000c4	50		 push	 eax
  000c5	e8 00 00 00 00	 call	 ?get_local_entity_undercarriage_state@@YGHPAUENTITY@@@Z ; get_local_entity_undercarriage_state
  000ca	89 45 fc	 mov	 DWORD PTR _state$[ebp], eax

; 1166 : 
; 1167 : 			switch ( state )

  000cd	8b 45 fc	 mov	 eax, DWORD PTR _state$[ebp]
  000d0	89 45 b4	 mov	 DWORD PTR tv90[ebp], eax
  000d3	83 7d b4 00	 cmp	 DWORD PTR tv90[ebp], 0
  000d7	74 08		 je	 SHORT $LN6@toggle_gea
  000d9	83 7d b4 02	 cmp	 DWORD PTR tv90[ebp], 2
  000dd	74 0d		 je	 SHORT $LN7@toggle_gea
  000df	eb 14		 jmp	 SHORT $LN1@toggle_gea
$LN6@toggle_gea:

; 1168 : 			{
; 1169 : 				//////////////////////////////////////////////////
; 1170 : 				case 0:
; 1171 : 				//////////////////////////////////////////////////
; 1172 : 				{
; 1173 : 					lower_client_server_entity_undercarriage( en );

  000e1	8b 45 f8	 mov	 eax, DWORD PTR _en$[ebp]
  000e4	50		 push	 eax
  000e5	e8 00 00 00 00	 call	 ?lower_client_server_entity_undercarriage@@YGXPAUENTITY@@@Z ; lower_client_server_entity_undercarriage

; 1174 : 
; 1175 : 					break;

  000ea	eb 09		 jmp	 SHORT $LN1@toggle_gea
$LN7@toggle_gea:

; 1176 : 				}
; 1177 : 				//////////////////////////////////////////////////
; 1178 : 				case 2:
; 1179 : 				//////////////////////////////////////////////////
; 1180 : 				{
; 1181 : 					raise_client_server_entity_undercarriage( en );

  000ec	8b 45 f8	 mov	 eax, DWORD PTR _en$[ebp]
  000ef	50		 push	 eax
  000f0	e8 00 00 00 00	 call	 ?raise_client_server_entity_undercarriage@@YGXPAUENTITY@@@Z ; raise_client_server_entity_undercarriage
$LN1@toggle_gea:

; 1182 : 
; 1183 : 					break;
; 1184 : 				}
; 1185 : 			}
; 1186 : 
; 1187 : 		}
; 1188 : 	}
; 1189 : }

  000f5	5f		 pop	 edi
  000f6	5e		 pop	 esi
  000f7	5b		 pop	 ebx
  000f8	8b e5		 mov	 esp, ebp
  000fa	5d		 pop	 ebp
  000fb	c2 04 00	 ret	 4
?toggle_gear_event@@YGXPAUEVENT@@@Z ENDP		; toggle_gear_event
_TEXT	ENDS
; Function compile flags: /Odtp /ZI
; File c:\users\nhv90\projects\eech\aphavoc\source\gunships\avionics\default\df_avevn.c
;	COMDAT ?activate_laser_event@@YGXPAUEVENT@@@Z
_TEXT	SEGMENT
tv92 = -76						; size = 4
tv84 = -72						; size = 4
tv76 = -68						; size = 4
_ev$ = 8						; size = 4
?activate_laser_event@@YGXPAUEVENT@@@Z PROC		; activate_laser_event, COMDAT

; 1140 : {

  00000	55		 push	 ebp
  00001	8b ec		 mov	 ebp, esp
  00003	83 ec 4c	 sub	 esp, 76			; 0000004cH
  00006	53		 push	 ebx
  00007	56		 push	 esi
  00008	57		 push	 edi

; 1141 : 	if (!laser_is_active() && !default_damage.laser_designator)

  00009	e8 00 00 00 00	 call	 ?laser_is_active@@YGHXZ	; laser_is_active
  0000e	85 c0		 test	 eax, eax
  00010	0f 85 c2 00 00
	00		 jne	 $LN2@activate_l
  00016	a1 00 00 00 00	 mov	 eax, DWORD PTR ?default_damage@@3TDEFAULT_DAMAGE_FLAGS@@A ; default_damage
  0001b	c1 e8 06	 shr	 eax, 6
  0001e	83 e0 01	 and	 eax, 1
  00021	0f 85 b1 00 00
	00		 jne	 $LN2@activate_l

; 1142 : 		set_laser_is_active(eo_is_tracking_point() || get_local_entity_parent(get_gunship_entity(), LIST_TYPE_TARGET));

  00027	e8 00 00 00 00	 call	 ?eo_is_tracking_point@@YGHXZ ; eo_is_tracking_point
  0002c	85 c0		 test	 eax, eax
  0002e	0f 85 92 00 00
	00		 jne	 $LN9@activate_l
  00034	83 3d 00 00 00
	00 00		 cmp	 DWORD PTR ?gunship_entity@@3PAUENTITY@@A, 0 ; gunship_entity
  0003b	74 0c		 je	 SHORT $LN5@activate_l
  0003d	a1 00 00 00 00	 mov	 eax, DWORD PTR ?gunship_entity@@3PAUENTITY@@A ; gunship_entity
  00042	8b 08		 mov	 ecx, DWORD PTR [eax]
  00044	89 4d bc	 mov	 DWORD PTR tv76[ebp], ecx
  00047	eb 21		 jmp	 SHORT $LN6@activate_l
$LN5@activate_l:
  00049	8b 15 00 00 00
	00		 mov	 edx, DWORD PTR ?__LINE__Var@?0??activate_laser_event@@YGXPAUEVENT@@@Z@4JA
  0004f	83 c2 02	 add	 edx, 2
  00052	52		 push	 edx
  00053	68 00 00 00 00	 push	 OFFSET ??_C@_0FB@CPPOAHBH@c?3?2users?2nhv90?2projects?2eech?2ap@
  00058	a1 00 00 00 00	 mov	 eax, DWORD PTR ?null_entity_pointer_message@@3PBDB ; null_entity_pointer_message
  0005d	50		 push	 eax
  0005e	e8 00 00 00 00	 call	 ?process_assert@@YGXPBD0H@Z ; process_assert
  00063	c7 45 bc 00 00
	00 00		 mov	 DWORD PTR tv76[ebp], 0
$LN6@activate_l:
  0006a	b9 01 00 00 00	 mov	 ecx, 1
  0006f	85 c9		 test	 ecx, ecx
  00071	74 09		 je	 SHORT $LN7@activate_l
  00073	c7 45 b8 26 00
	00 00		 mov	 DWORD PTR tv84[ebp], 38	; 00000026H
  0007a	eb 21		 jmp	 SHORT $LN8@activate_l
$LN7@activate_l:
  0007c	8b 15 00 00 00
	00		 mov	 edx, DWORD PTR ?__LINE__Var@?0??activate_laser_event@@YGXPAUEVENT@@@Z@4JA
  00082	83 c2 02	 add	 edx, 2
  00085	52		 push	 edx
  00086	68 00 00 00 00	 push	 OFFSET ??_C@_0FB@CPPOAHBH@c?3?2users?2nhv90?2projects?2eech?2ap@
  0008b	a1 00 00 00 00	 mov	 eax, DWORD PTR ?overload_invalid_list_type_message@@3PBDB ; overload_invalid_list_type_message
  00090	50		 push	 eax
  00091	e8 00 00 00 00	 call	 ?process_assert@@YGXPBD0H@Z ; process_assert
  00096	c7 45 b8 00 00
	00 00		 mov	 DWORD PTR tv84[ebp], 0
$LN8@activate_l:
  0009d	6a 26		 push	 38			; 00000026H
  0009f	8b 0d 00 00 00
	00		 mov	 ecx, DWORD PTR ?gunship_entity@@3PAUENTITY@@A ; gunship_entity
  000a5	51		 push	 ecx
  000a6	69 55 bc b4 00
	00 00		 imul	 edx, DWORD PTR tv76[ebp], 180
  000ad	8b 45 b8	 mov	 eax, DWORD PTR tv84[ebp]
  000b0	8b 8c 82 00 00
	00 00		 mov	 ecx, DWORD PTR ?fn_get_local_entity_parent@@3PAY0CN@P6GPAUENTITY@@PAU1@W4LIST_TYPES@@@ZA[edx+eax*4]
  000b7	ff d1		 call	 ecx
  000b9	85 c0		 test	 eax, eax
  000bb	75 09		 jne	 SHORT $LN9@activate_l
  000bd	c7 45 b4 00 00
	00 00		 mov	 DWORD PTR tv92[ebp], 0
  000c4	eb 07		 jmp	 SHORT $LN10@activate_l
$LN9@activate_l:
  000c6	c7 45 b4 01 00
	00 00		 mov	 DWORD PTR tv92[ebp], 1
$LN10@activate_l:
  000cd	8b 55 b4	 mov	 edx, DWORD PTR tv92[ebp]
  000d0	52		 push	 edx
  000d1	e8 00 00 00 00	 call	 ?set_laser_is_active@@YGXH@Z ; set_laser_is_active

; 1143 : 	else

  000d6	eb 07		 jmp	 SHORT $LN1@activate_l
$LN2@activate_l:

; 1144 : 		set_laser_is_active(FALSE);

  000d8	6a 00		 push	 0
  000da	e8 00 00 00 00	 call	 ?set_laser_is_active@@YGXH@Z ; set_laser_is_active
$LN1@activate_l:

; 1145 : }

  000df	5f		 pop	 edi
  000e0	5e		 pop	 esi
  000e1	5b		 pop	 ebx
  000e2	8b e5		 mov	 esp, ebp
  000e4	5d		 pop	 ebp
  000e5	c2 04 00	 ret	 4
?activate_laser_event@@YGXPAUEVENT@@@Z ENDP		; activate_laser_event
_TEXT	ENDS
; Function compile flags: /Odtp /ZI
; File c:\users\nhv90\projects\eech\aphavoc\source\gunships\avionics\default\df_avevn.c
;	COMDAT ?toggle_navigation_lights_event@@YGXPAUEVENT@@@Z
_TEXT	SEGMENT
tv131 = -76						; size = 4
tv78 = -76						; size = 4
tv91 = -72						; size = 4
tv70 = -72						; size = 4
_status$ = -4						; size = 4
_ev$ = 8						; size = 4
?toggle_navigation_lights_event@@YGXPAUEVENT@@@Z PROC	; toggle_navigation_lights_event, COMDAT

; 1127 : {

  00000	55		 push	 ebp
  00001	8b ec		 mov	 ebp, esp
  00003	83 ec 4c	 sub	 esp, 76			; 0000004cH
  00006	53		 push	 ebx
  00007	56		 push	 esi
  00008	57		 push	 edi

; 1128 : 	int
; 1129 : 		status;
; 1130 : 
; 1131 : 	status = get_local_entity_int_value (get_gunship_entity (), INT_TYPE_LIGHTS_ON);

  00009	83 3d 00 00 00
	00 00		 cmp	 DWORD PTR ?gunship_entity@@3PAUENTITY@@A, 0 ; gunship_entity
  00010	74 0c		 je	 SHORT $LN3@toggle_nav
  00012	a1 00 00 00 00	 mov	 eax, DWORD PTR ?gunship_entity@@3PAUENTITY@@A ; gunship_entity
  00017	8b 08		 mov	 ecx, DWORD PTR [eax]
  00019	89 4d b8	 mov	 DWORD PTR tv70[ebp], ecx
  0001c	eb 21		 jmp	 SHORT $LN4@toggle_nav
$LN3@toggle_nav:
  0001e	8b 15 00 00 00
	00		 mov	 edx, DWORD PTR ?__LINE__Var@?0??toggle_navigation_lights_event@@YGXPAUEVENT@@@Z@4JA
  00024	83 c2 04	 add	 edx, 4
  00027	52		 push	 edx
  00028	68 00 00 00 00	 push	 OFFSET ??_C@_0FB@CPPOAHBH@c?3?2users?2nhv90?2projects?2eech?2ap@
  0002d	a1 00 00 00 00	 mov	 eax, DWORD PTR ?null_entity_pointer_message@@3PBDB ; null_entity_pointer_message
  00032	50		 push	 eax
  00033	e8 00 00 00 00	 call	 ?process_assert@@YGXPBD0H@Z ; process_assert
  00038	c7 45 b8 00 00
	00 00		 mov	 DWORD PTR tv70[ebp], 0
$LN4@toggle_nav:
  0003f	b9 01 00 00 00	 mov	 ecx, 1
  00044	85 c9		 test	 ecx, ecx
  00046	74 09		 je	 SHORT $LN5@toggle_nav
  00048	c7 45 b4 7a 00
	00 00		 mov	 DWORD PTR tv78[ebp], 122 ; 0000007aH
  0004f	eb 21		 jmp	 SHORT $LN6@toggle_nav
$LN5@toggle_nav:
  00051	8b 15 00 00 00
	00		 mov	 edx, DWORD PTR ?__LINE__Var@?0??toggle_navigation_lights_event@@YGXPAUEVENT@@@Z@4JA
  00057	83 c2 04	 add	 edx, 4
  0005a	52		 push	 edx
  0005b	68 00 00 00 00	 push	 OFFSET ??_C@_0FB@CPPOAHBH@c?3?2users?2nhv90?2projects?2eech?2ap@
  00060	a1 00 00 00 00	 mov	 eax, DWORD PTR ?overload_invalid_int_type_message@@3PBDB ; overload_invalid_int_type_message
  00065	50		 push	 eax
  00066	e8 00 00 00 00	 call	 ?process_assert@@YGXPBD0H@Z ; process_assert
  0006b	c7 45 b4 00 00
	00 00		 mov	 DWORD PTR tv78[ebp], 0
$LN6@toggle_nav:
  00072	6a 7a		 push	 122			; 0000007aH
  00074	8b 0d 00 00 00
	00		 mov	 ecx, DWORD PTR ?gunship_entity@@3PAUENTITY@@A ; gunship_entity
  0007a	51		 push	 ecx
  0007b	69 55 b8 5c 04
	00 00		 imul	 edx, DWORD PTR tv70[ebp], 1116
  00082	8b 45 b4	 mov	 eax, DWORD PTR tv78[ebp]
  00085	8b 8c 82 00 00
	00 00		 mov	 ecx, DWORD PTR ?fn_get_local_entity_int_value@@3PAY0BBH@P6GHPAUENTITY@@W4INT_TYPES@@@ZA[edx+eax*4]
  0008c	ff d1		 call	 ecx
  0008e	89 45 fc	 mov	 DWORD PTR _status$[ebp], eax

; 1132 : 
; 1133 : 	status ^= 1;

  00091	8b 45 fc	 mov	 eax, DWORD PTR _status$[ebp]
  00094	83 f0 01	 xor	 eax, 1
  00097	89 45 fc	 mov	 DWORD PTR _status$[ebp], eax

; 1134 : 
; 1135 : 	set_client_server_entity_int_value (get_gunship_entity (), INT_TYPE_LIGHTS_ON, status);

  0009a	83 3d 00 00 00
	00 00		 cmp	 DWORD PTR ?gunship_entity@@3PAUENTITY@@A, 0 ; gunship_entity
  000a1	74 0c		 je	 SHORT $LN7@toggle_nav
  000a3	a1 00 00 00 00	 mov	 eax, DWORD PTR ?gunship_entity@@3PAUENTITY@@A ; gunship_entity
  000a8	8b 08		 mov	 ecx, DWORD PTR [eax]
  000aa	89 4d b8	 mov	 DWORD PTR tv91[ebp], ecx
  000ad	eb 21		 jmp	 SHORT $LN8@toggle_nav
$LN7@toggle_nav:
  000af	8b 15 00 00 00
	00		 mov	 edx, DWORD PTR ?__LINE__Var@?0??toggle_navigation_lights_event@@YGXPAUEVENT@@@Z@4JA
  000b5	83 c2 08	 add	 edx, 8
  000b8	52		 push	 edx
  000b9	68 00 00 00 00	 push	 OFFSET ??_C@_0FB@CPPOAHBH@c?3?2users?2nhv90?2projects?2eech?2ap@
  000be	a1 00 00 00 00	 mov	 eax, DWORD PTR ?null_entity_pointer_message@@3PBDB ; null_entity_pointer_message
  000c3	50		 push	 eax
  000c4	e8 00 00 00 00	 call	 ?process_assert@@YGXPBD0H@Z ; process_assert
  000c9	c7 45 b8 00 00
	00 00		 mov	 DWORD PTR tv91[ebp], 0
$LN8@toggle_nav:
  000d0	b9 01 00 00 00	 mov	 ecx, 1
  000d5	85 c9		 test	 ecx, ecx
  000d7	74 09		 je	 SHORT $LN9@toggle_nav
  000d9	c7 45 b4 7a 00
	00 00		 mov	 DWORD PTR tv131[ebp], 122 ; 0000007aH
  000e0	eb 21		 jmp	 SHORT $LN10@toggle_nav
$LN9@toggle_nav:
  000e2	8b 15 00 00 00
	00		 mov	 edx, DWORD PTR ?__LINE__Var@?0??toggle_navigation_lights_event@@YGXPAUEVENT@@@Z@4JA
  000e8	83 c2 08	 add	 edx, 8
  000eb	52		 push	 edx
  000ec	68 00 00 00 00	 push	 OFFSET ??_C@_0FB@CPPOAHBH@c?3?2users?2nhv90?2projects?2eech?2ap@
  000f1	a1 00 00 00 00	 mov	 eax, DWORD PTR ?overload_invalid_int_type_message@@3PBDB ; overload_invalid_int_type_message
  000f6	50		 push	 eax
  000f7	e8 00 00 00 00	 call	 ?process_assert@@YGXPBD0H@Z ; process_assert
  000fc	c7 45 b4 00 00
	00 00		 mov	 DWORD PTR tv131[ebp], 0
$LN10@toggle_nav:
  00103	8b 4d fc	 mov	 ecx, DWORD PTR _status$[ebp]
  00106	51		 push	 ecx
  00107	6a 7a		 push	 122			; 0000007aH
  00109	8b 15 00 00 00
	00		 mov	 edx, DWORD PTR ?gunship_entity@@3PAUENTITY@@A ; gunship_entity
  0010f	52		 push	 edx
  00110	69 45 b8 b8 08
	00 00		 imul	 eax, DWORD PTR tv91[ebp], 2232
  00117	8b 4d b4	 mov	 ecx, DWORD PTR tv131[ebp]
  0011a	8d 94 c8 00 00
	00 00		 lea	 edx, DWORD PTR ?fn_set_client_server_entity_int_value@@3PAY1BBH@1P6GXPAUENTITY@@W4INT_TYPES@@H@ZA[eax+ecx*8]
  00121	a1 00 00 00 00	 mov	 eax, DWORD PTR ?system_comms_model@@3W4COMMS_MODEL_TYPES@@A ; system_comms_model
  00126	8b 0c 82	 mov	 ecx, DWORD PTR [edx+eax*4]
  00129	ff d1		 call	 ecx

; 1136 : }

  0012b	5f		 pop	 edi
  0012c	5e		 pop	 esi
  0012d	5b		 pop	 ebx
  0012e	8b e5		 mov	 esp, ebp
  00130	5d		 pop	 ebp
  00131	c2 04 00	 ret	 4
?toggle_navigation_lights_event@@YGXPAUEVENT@@@Z ENDP	; toggle_navigation_lights_event
_TEXT	ENDS
; Function compile flags: /Odtp /ZI
; File c:\users\nhv90\projects\eech\aphavoc\source\gunships\avionics\default\df_avevn.c
;	COMDAT ?clear_hud_bob_up_overlay_event@@YGXPAUEVENT@@@Z
_TEXT	SEGMENT
_ev$ = 8						; size = 4
?clear_hud_bob_up_overlay_event@@YGXPAUEVENT@@@Z PROC	; clear_hud_bob_up_overlay_event, COMDAT

; 1118 : {

  00000	55		 push	 ebp
  00001	8b ec		 mov	 ebp, esp
  00003	83 ec 40	 sub	 esp, 64			; 00000040H
  00006	53		 push	 ebx
  00007	56		 push	 esi
  00008	57		 push	 edi

; 1119 : 	clear_hud_bob_up_overlay ();

  00009	e8 00 00 00 00	 call	 ?clear_hud_bob_up_overlay@@YGXXZ ; clear_hud_bob_up_overlay

; 1120 : }

  0000e	5f		 pop	 edi
  0000f	5e		 pop	 esi
  00010	5b		 pop	 ebx
  00011	8b e5		 mov	 esp, ebp
  00013	5d		 pop	 ebp
  00014	c2 04 00	 ret	 4
?clear_hud_bob_up_overlay_event@@YGXPAUEVENT@@@Z ENDP	; clear_hud_bob_up_overlay_event
_TEXT	ENDS
; Function compile flags: /Odtp /ZI
; File c:\users\nhv90\projects\eech\aphavoc\source\gunships\avionics\default\df_avevn.c
;	COMDAT ?switch_hud_mode_event@@YGXPAUEVENT@@@Z
_TEXT	SEGMENT
_ev$ = 8						; size = 4
?switch_hud_mode_event@@YGXPAUEVENT@@@Z PROC		; switch_hud_mode_event, COMDAT

; 1109 : {

  00000	55		 push	 ebp
  00001	8b ec		 mov	 ebp, esp
  00003	83 ec 40	 sub	 esp, 64			; 00000040H
  00006	53		 push	 ebx
  00007	56		 push	 esi
  00008	57		 push	 edi

; 1110 : 	switch_hud_mode();

  00009	e8 00 00 00 00	 call	 ?switch_hud_mode@@YGXXZ	; switch_hud_mode

; 1111 : }

  0000e	5f		 pop	 edi
  0000f	5e		 pop	 esi
  00010	5b		 pop	 ebx
  00011	8b e5		 mov	 esp, ebp
  00013	5d		 pop	 ebp
  00014	c2 04 00	 ret	 4
?switch_hud_mode_event@@YGXPAUEVENT@@@Z ENDP		; switch_hud_mode_event
_TEXT	ENDS
; Function compile flags: /Odtp /ZI
; File c:\users\nhv90\projects\eech\aphavoc\source\gunships\avionics\default\df_avevn.c
;	COMDAT ?set_hud_bob_up_overlay_event@@YGXPAUEVENT@@@Z
_TEXT	SEGMENT
_ev$ = 8						; size = 4
?set_hud_bob_up_overlay_event@@YGXPAUEVENT@@@Z PROC	; set_hud_bob_up_overlay_event, COMDAT

; 1100 : {

  00000	55		 push	 ebp
  00001	8b ec		 mov	 ebp, esp
  00003	83 ec 40	 sub	 esp, 64			; 00000040H
  00006	53		 push	 ebx
  00007	56		 push	 esi
  00008	57		 push	 edi

; 1101 : 	set_hud_bob_up_overlay ();

  00009	e8 00 00 00 00	 call	 ?set_hud_bob_up_overlay@@YGXXZ ; set_hud_bob_up_overlay

; 1102 : }

  0000e	5f		 pop	 edi
  0000f	5e		 pop	 esi
  00010	5b		 pop	 ebx
  00011	8b e5		 mov	 esp, ebp
  00013	5d		 pop	 ebp
  00014	c2 04 00	 ret	 4
?set_hud_bob_up_overlay_event@@YGXPAUEVENT@@@Z ENDP	; set_hud_bob_up_overlay_event
_TEXT	ENDS
; Function compile flags: /Odtp /ZI
; File c:\users\nhv90\projects\eech\aphavoc\source\gunships\avionics\default\df_avevn.c
;	COMDAT ?toggle_infra_red_jammer_event@@YGXPAUEVENT@@@Z
_TEXT	SEGMENT
_ev$ = 8						; size = 4
?toggle_infra_red_jammer_event@@YGXPAUEVENT@@@Z PROC	; toggle_infra_red_jammer_event, COMDAT

; 1091 : {

  00000	55		 push	 ebp
  00001	8b ec		 mov	 ebp, esp
  00003	83 ec 40	 sub	 esp, 64			; 00000040H
  00006	53		 push	 ebx
  00007	56		 push	 esi
  00008	57		 push	 edi

; 1092 : 	toggle_default_infra_red_jammer_manual ();

  00009	e8 00 00 00 00	 call	 ?toggle_default_infra_red_jammer_manual@@YGXXZ ; toggle_default_infra_red_jammer_manual

; 1093 : }

  0000e	5f		 pop	 edi
  0000f	5e		 pop	 esi
  00010	5b		 pop	 ebx
  00011	8b e5		 mov	 esp, ebp
  00013	5d		 pop	 ebp
  00014	c2 04 00	 ret	 4
?toggle_infra_red_jammer_event@@YGXPAUEVENT@@@Z ENDP	; toggle_infra_red_jammer_event
_TEXT	ENDS
; Function compile flags: /Odtp /ZI
; File c:\users\nhv90\projects\eech\aphavoc\source\gunships\avionics\default\df_avevn.c
;	COMDAT ?toggle_radar_jammer_event@@YGXPAUEVENT@@@Z
_TEXT	SEGMENT
_ev$ = 8						; size = 4
?toggle_radar_jammer_event@@YGXPAUEVENT@@@Z PROC	; toggle_radar_jammer_event, COMDAT

; 1082 : {

  00000	55		 push	 ebp
  00001	8b ec		 mov	 ebp, esp
  00003	83 ec 40	 sub	 esp, 64			; 00000040H
  00006	53		 push	 ebx
  00007	56		 push	 esi
  00008	57		 push	 edi

; 1083 : 	toggle_default_radar_jammer_manual ();

  00009	e8 00 00 00 00	 call	 ?toggle_default_radar_jammer_manual@@YGXXZ ; toggle_default_radar_jammer_manual

; 1084 : }

  0000e	5f		 pop	 edi
  0000f	5e		 pop	 esi
  00010	5b		 pop	 ebx
  00011	8b e5		 mov	 esp, ebp
  00013	5d		 pop	 ebp
  00014	c2 04 00	 ret	 4
?toggle_radar_jammer_event@@YGXPAUEVENT@@@Z ENDP	; toggle_radar_jammer_event
_TEXT	ENDS
; Function compile flags: /Odtp /ZI
; File c:\users\nhv90\projects\eech\aphavoc\source\gunships\avionics\default\df_avevn.c
;	COMDAT ?toggle_rhs_mfd_on_off_event@@YGXPAUEVENT@@@Z
_TEXT	SEGMENT
_ev$ = 8						; size = 4
?toggle_rhs_mfd_on_off_event@@YGXPAUEVENT@@@Z PROC	; toggle_rhs_mfd_on_off_event, COMDAT

; 1073 : {

  00000	55		 push	 ebp
  00001	8b ec		 mov	 ebp, esp
  00003	83 ec 40	 sub	 esp, 64			; 00000040H
  00006	53		 push	 ebx
  00007	56		 push	 esi
  00008	57		 push	 edi

; 1074 : 	toggle_default_rhs_mfd_on_off ();

  00009	e8 00 00 00 00	 call	 ?toggle_default_rhs_mfd_on_off@@YGXXZ ; toggle_default_rhs_mfd_on_off

; 1075 : }

  0000e	5f		 pop	 edi
  0000f	5e		 pop	 esi
  00010	5b		 pop	 ebx
  00011	8b e5		 mov	 esp, ebp
  00013	5d		 pop	 ebp
  00014	c2 04 00	 ret	 4
?toggle_rhs_mfd_on_off_event@@YGXPAUEVENT@@@Z ENDP	; toggle_rhs_mfd_on_off_event
_TEXT	ENDS
; Function compile flags: /Odtp /ZI
; File c:\users\nhv90\projects\eech\aphavoc\source\gunships\avionics\default\df_avevn.c
;	COMDAT ?toggle_lhs_mfd_on_off_event@@YGXPAUEVENT@@@Z
_TEXT	SEGMENT
_ev$ = 8						; size = 4
?toggle_lhs_mfd_on_off_event@@YGXPAUEVENT@@@Z PROC	; toggle_lhs_mfd_on_off_event, COMDAT

; 1064 : {

  00000	55		 push	 ebp
  00001	8b ec		 mov	 ebp, esp
  00003	83 ec 40	 sub	 esp, 64			; 00000040H
  00006	53		 push	 ebx
  00007	56		 push	 esi
  00008	57		 push	 edi

; 1065 : 	toggle_default_lhs_mfd_on_off ();

  00009	e8 00 00 00 00	 call	 ?toggle_default_lhs_mfd_on_off@@YGXXZ ; toggle_default_lhs_mfd_on_off

; 1066 : }

  0000e	5f		 pop	 edi
  0000f	5e		 pop	 esi
  00010	5b		 pop	 ebx
  00011	8b e5		 mov	 esp, ebp
  00013	5d		 pop	 ebp
  00014	c2 04 00	 ret	 4
?toggle_lhs_mfd_on_off_event@@YGXPAUEVENT@@@Z ENDP	; toggle_lhs_mfd_on_off_event
_TEXT	ENDS
; Function compile flags: /Odtp /ZI
; File c:\users\nhv90\projects\eech\aphavoc\source\gunships\avionics\default\df_avevn.c
;	COMDAT ?select_rhs_flight_mfd_event@@YGXPAUEVENT@@@Z
_TEXT	SEGMENT
_ev$ = 8						; size = 4
?select_rhs_flight_mfd_event@@YGXPAUEVENT@@@Z PROC	; select_rhs_flight_mfd_event, COMDAT

; 1055 : {

  00000	55		 push	 ebp
  00001	8b ec		 mov	 ebp, esp
  00003	83 ec 40	 sub	 esp, 64			; 00000040H
  00006	53		 push	 ebx
  00007	56		 push	 esi
  00008	57		 push	 edi

; 1056 : 	select_default_mfd_mode (MFD_MODE_FLIGHT, MFD_LOCATION_RHS);

  00009	6a 01		 push	 1
  0000b	6a 0d		 push	 13			; 0000000dH
  0000d	e8 00 00 00 00	 call	 ?select_default_mfd_mode@@YGXW4MFD_MODES@@W4MFD_LOCATIONS@@@Z ; select_default_mfd_mode

; 1057 : }

  00012	5f		 pop	 edi
  00013	5e		 pop	 esi
  00014	5b		 pop	 ebx
  00015	8b e5		 mov	 esp, ebp
  00017	5d		 pop	 ebp
  00018	c2 04 00	 ret	 4
?select_rhs_flight_mfd_event@@YGXPAUEVENT@@@Z ENDP	; select_rhs_flight_mfd_event
_TEXT	ENDS
; Function compile flags: /Odtp /ZI
; File c:\users\nhv90\projects\eech\aphavoc\source\gunships\avionics\default\df_avevn.c
;	COMDAT ?select_lhs_flight_mfd_event@@YGXPAUEVENT@@@Z
_TEXT	SEGMENT
_ev$ = 8						; size = 4
?select_lhs_flight_mfd_event@@YGXPAUEVENT@@@Z PROC	; select_lhs_flight_mfd_event, COMDAT

; 1046 : {

  00000	55		 push	 ebp
  00001	8b ec		 mov	 ebp, esp
  00003	83 ec 40	 sub	 esp, 64			; 00000040H
  00006	53		 push	 ebx
  00007	56		 push	 esi
  00008	57		 push	 edi

; 1047 : 	select_default_mfd_mode (MFD_MODE_FLIGHT, MFD_LOCATION_LHS);

  00009	6a 00		 push	 0
  0000b	6a 0d		 push	 13			; 0000000dH
  0000d	e8 00 00 00 00	 call	 ?select_default_mfd_mode@@YGXW4MFD_MODES@@W4MFD_LOCATIONS@@@Z ; select_default_mfd_mode

; 1048 : }

  00012	5f		 pop	 edi
  00013	5e		 pop	 esi
  00014	5b		 pop	 ebx
  00015	8b e5		 mov	 esp, ebp
  00017	5d		 pop	 ebp
  00018	c2 04 00	 ret	 4
?select_lhs_flight_mfd_event@@YGXPAUEVENT@@@Z ENDP	; select_lhs_flight_mfd_event
_TEXT	ENDS
; Function compile flags: /Odtp /ZI
; File c:\users\nhv90\projects\eech\aphavoc\source\gunships\avionics\default\df_avevn.c
;	COMDAT ?select_rhs_engine_mfd_event@@YGXPAUEVENT@@@Z
_TEXT	SEGMENT
_ev$ = 8						; size = 4
?select_rhs_engine_mfd_event@@YGXPAUEVENT@@@Z PROC	; select_rhs_engine_mfd_event, COMDAT

; 1037 : {

  00000	55		 push	 ebp
  00001	8b ec		 mov	 ebp, esp
  00003	83 ec 40	 sub	 esp, 64			; 00000040H
  00006	53		 push	 ebx
  00007	56		 push	 esi
  00008	57		 push	 edi

; 1038 : 	select_default_mfd_mode (MFD_MODE_ENGINE, MFD_LOCATION_RHS);

  00009	6a 01		 push	 1
  0000b	6a 0c		 push	 12			; 0000000cH
  0000d	e8 00 00 00 00	 call	 ?select_default_mfd_mode@@YGXW4MFD_MODES@@W4MFD_LOCATIONS@@@Z ; select_default_mfd_mode

; 1039 : }

  00012	5f		 pop	 edi
  00013	5e		 pop	 esi
  00014	5b		 pop	 ebx
  00015	8b e5		 mov	 esp, ebp
  00017	5d		 pop	 ebp
  00018	c2 04 00	 ret	 4
?select_rhs_engine_mfd_event@@YGXPAUEVENT@@@Z ENDP	; select_rhs_engine_mfd_event
_TEXT	ENDS
; Function compile flags: /Odtp /ZI
; File c:\users\nhv90\projects\eech\aphavoc\source\gunships\avionics\default\df_avevn.c
;	COMDAT ?select_lhs_engine_mfd_event@@YGXPAUEVENT@@@Z
_TEXT	SEGMENT
_ev$ = 8						; size = 4
?select_lhs_engine_mfd_event@@YGXPAUEVENT@@@Z PROC	; select_lhs_engine_mfd_event, COMDAT

; 1028 : {

  00000	55		 push	 ebp
  00001	8b ec		 mov	 ebp, esp
  00003	83 ec 40	 sub	 esp, 64			; 00000040H
  00006	53		 push	 ebx
  00007	56		 push	 esi
  00008	57		 push	 edi

; 1029 : 	select_default_mfd_mode (MFD_MODE_ENGINE, MFD_LOCATION_LHS);

  00009	6a 00		 push	 0
  0000b	6a 0c		 push	 12			; 0000000cH
  0000d	e8 00 00 00 00	 call	 ?select_default_mfd_mode@@YGXW4MFD_MODES@@W4MFD_LOCATIONS@@@Z ; select_default_mfd_mode

; 1030 : }

  00012	5f		 pop	 edi
  00013	5e		 pop	 esi
  00014	5b		 pop	 ebx
  00015	8b e5		 mov	 esp, ebp
  00017	5d		 pop	 ebp
  00018	c2 04 00	 ret	 4
?select_lhs_engine_mfd_event@@YGXPAUEVENT@@@Z ENDP	; select_lhs_engine_mfd_event
_TEXT	ENDS
; Function compile flags: /Odtp /ZI
; File c:\users\nhv90\projects\eech\aphavoc\source\gunships\avionics\default\df_avevn.c
;	COMDAT ?select_rhs_system_mfd_event@@YGXPAUEVENT@@@Z
_TEXT	SEGMENT
_ev$ = 8						; size = 4
?select_rhs_system_mfd_event@@YGXPAUEVENT@@@Z PROC	; select_rhs_system_mfd_event, COMDAT

; 1019 : {

  00000	55		 push	 ebp
  00001	8b ec		 mov	 ebp, esp
  00003	83 ec 40	 sub	 esp, 64			; 00000040H
  00006	53		 push	 ebx
  00007	56		 push	 esi
  00008	57		 push	 edi

; 1020 : 	select_default_mfd_mode (MFD_MODE_SYSTEM, MFD_LOCATION_RHS);

  00009	6a 01		 push	 1
  0000b	6a 0b		 push	 11			; 0000000bH
  0000d	e8 00 00 00 00	 call	 ?select_default_mfd_mode@@YGXW4MFD_MODES@@W4MFD_LOCATIONS@@@Z ; select_default_mfd_mode

; 1021 : }

  00012	5f		 pop	 edi
  00013	5e		 pop	 esi
  00014	5b		 pop	 ebx
  00015	8b e5		 mov	 esp, ebp
  00017	5d		 pop	 ebp
  00018	c2 04 00	 ret	 4
?select_rhs_system_mfd_event@@YGXPAUEVENT@@@Z ENDP	; select_rhs_system_mfd_event
_TEXT	ENDS
; Function compile flags: /Odtp /ZI
; File c:\users\nhv90\projects\eech\aphavoc\source\gunships\avionics\default\df_avevn.c
;	COMDAT ?select_lhs_system_mfd_event@@YGXPAUEVENT@@@Z
_TEXT	SEGMENT
_ev$ = 8						; size = 4
?select_lhs_system_mfd_event@@YGXPAUEVENT@@@Z PROC	; select_lhs_system_mfd_event, COMDAT

; 1010 : {

  00000	55		 push	 ebp
  00001	8b ec		 mov	 ebp, esp
  00003	83 ec 40	 sub	 esp, 64			; 00000040H
  00006	53		 push	 ebx
  00007	56		 push	 esi
  00008	57		 push	 edi

; 1011 : 	select_default_mfd_mode (MFD_MODE_SYSTEM, MFD_LOCATION_LHS);

  00009	6a 00		 push	 0
  0000b	6a 0b		 push	 11			; 0000000bH
  0000d	e8 00 00 00 00	 call	 ?select_default_mfd_mode@@YGXW4MFD_MODES@@W4MFD_LOCATIONS@@@Z ; select_default_mfd_mode

; 1012 : }

  00012	5f		 pop	 edi
  00013	5e		 pop	 esi
  00014	5b		 pop	 ebx
  00015	8b e5		 mov	 esp, ebp
  00017	5d		 pop	 ebp
  00018	c2 04 00	 ret	 4
?select_lhs_system_mfd_event@@YGXPAUEVENT@@@Z ENDP	; select_lhs_system_mfd_event
_TEXT	ENDS
; Function compile flags: /Odtp /ZI
; File c:\users\nhv90\projects\eech\aphavoc\source\gunships\avionics\default\df_avevn.c
;	COMDAT ?select_rhs_weapon_mfd_event@@YGXPAUEVENT@@@Z
_TEXT	SEGMENT
_ev$ = 8						; size = 4
?select_rhs_weapon_mfd_event@@YGXPAUEVENT@@@Z PROC	; select_rhs_weapon_mfd_event, COMDAT

; 1001 : {

  00000	55		 push	 ebp
  00001	8b ec		 mov	 ebp, esp
  00003	83 ec 40	 sub	 esp, 64			; 00000040H
  00006	53		 push	 ebx
  00007	56		 push	 esi
  00008	57		 push	 edi

; 1002 : 	select_default_mfd_mode (MFD_MODE_WEAPON, MFD_LOCATION_RHS);

  00009	6a 01		 push	 1
  0000b	6a 0a		 push	 10			; 0000000aH
  0000d	e8 00 00 00 00	 call	 ?select_default_mfd_mode@@YGXW4MFD_MODES@@W4MFD_LOCATIONS@@@Z ; select_default_mfd_mode

; 1003 : }

  00012	5f		 pop	 edi
  00013	5e		 pop	 esi
  00014	5b		 pop	 ebx
  00015	8b e5		 mov	 esp, ebp
  00017	5d		 pop	 ebp
  00018	c2 04 00	 ret	 4
?select_rhs_weapon_mfd_event@@YGXPAUEVENT@@@Z ENDP	; select_rhs_weapon_mfd_event
_TEXT	ENDS
; Function compile flags: /Odtp /ZI
; File c:\users\nhv90\projects\eech\aphavoc\source\gunships\avionics\default\df_avevn.c
;	COMDAT ?select_lhs_weapon_mfd_event@@YGXPAUEVENT@@@Z
_TEXT	SEGMENT
_ev$ = 8						; size = 4
?select_lhs_weapon_mfd_event@@YGXPAUEVENT@@@Z PROC	; select_lhs_weapon_mfd_event, COMDAT

; 992  : {

  00000	55		 push	 ebp
  00001	8b ec		 mov	 ebp, esp
  00003	83 ec 40	 sub	 esp, 64			; 00000040H
  00006	53		 push	 ebx
  00007	56		 push	 esi
  00008	57		 push	 edi

; 993  : 	select_default_mfd_mode (MFD_MODE_WEAPON, MFD_LOCATION_LHS);

  00009	6a 00		 push	 0
  0000b	6a 0a		 push	 10			; 0000000aH
  0000d	e8 00 00 00 00	 call	 ?select_default_mfd_mode@@YGXW4MFD_MODES@@W4MFD_LOCATIONS@@@Z ; select_default_mfd_mode

; 994  : }

  00012	5f		 pop	 edi
  00013	5e		 pop	 esi
  00014	5b		 pop	 ebx
  00015	8b e5		 mov	 esp, ebp
  00017	5d		 pop	 ebp
  00018	c2 04 00	 ret	 4
?select_lhs_weapon_mfd_event@@YGXPAUEVENT@@@Z ENDP	; select_lhs_weapon_mfd_event
_TEXT	ENDS
; Function compile flags: /Odtp /ZI
; File c:\users\nhv90\projects\eech\aphavoc\source\gunships\avionics\default\df_avevn.c
;	COMDAT ?select_rhs_ase_mfd_event@@YGXPAUEVENT@@@Z
_TEXT	SEGMENT
_ev$ = 8						; size = 4
?select_rhs_ase_mfd_event@@YGXPAUEVENT@@@Z PROC		; select_rhs_ase_mfd_event, COMDAT

; 983  : {

  00000	55		 push	 ebp
  00001	8b ec		 mov	 ebp, esp
  00003	83 ec 40	 sub	 esp, 64			; 00000040H
  00006	53		 push	 ebx
  00007	56		 push	 esi
  00008	57		 push	 edi

; 984  : 	select_default_mfd_mode (MFD_MODE_ASE, MFD_LOCATION_RHS);

  00009	6a 01		 push	 1
  0000b	6a 09		 push	 9
  0000d	e8 00 00 00 00	 call	 ?select_default_mfd_mode@@YGXW4MFD_MODES@@W4MFD_LOCATIONS@@@Z ; select_default_mfd_mode

; 985  : }

  00012	5f		 pop	 edi
  00013	5e		 pop	 esi
  00014	5b		 pop	 ebx
  00015	8b e5		 mov	 esp, ebp
  00017	5d		 pop	 ebp
  00018	c2 04 00	 ret	 4
?select_rhs_ase_mfd_event@@YGXPAUEVENT@@@Z ENDP		; select_rhs_ase_mfd_event
_TEXT	ENDS
; Function compile flags: /Odtp /ZI
; File c:\users\nhv90\projects\eech\aphavoc\source\gunships\avionics\default\df_avevn.c
;	COMDAT ?select_lhs_ase_mfd_event@@YGXPAUEVENT@@@Z
_TEXT	SEGMENT
_ev$ = 8						; size = 4
?select_lhs_ase_mfd_event@@YGXPAUEVENT@@@Z PROC		; select_lhs_ase_mfd_event, COMDAT

; 974  : {

  00000	55		 push	 ebp
  00001	8b ec		 mov	 ebp, esp
  00003	83 ec 40	 sub	 esp, 64			; 00000040H
  00006	53		 push	 ebx
  00007	56		 push	 esi
  00008	57		 push	 edi

; 975  : 	select_default_mfd_mode (MFD_MODE_ASE, MFD_LOCATION_LHS);

  00009	6a 00		 push	 0
  0000b	6a 09		 push	 9
  0000d	e8 00 00 00 00	 call	 ?select_default_mfd_mode@@YGXW4MFD_MODES@@W4MFD_LOCATIONS@@@Z ; select_default_mfd_mode

; 976  : }

  00012	5f		 pop	 edi
  00013	5e		 pop	 esi
  00014	5b		 pop	 ebx
  00015	8b e5		 mov	 esp, ebp
  00017	5d		 pop	 ebp
  00018	c2 04 00	 ret	 4
?select_lhs_ase_mfd_event@@YGXPAUEVENT@@@Z ENDP		; select_lhs_ase_mfd_event
_TEXT	ENDS
; Function compile flags: /Odtp /ZI
; File c:\users\nhv90\projects\eech\aphavoc\source\gunships\avionics\default\df_avevn.c
;	COMDAT ?select_rhs_tsd_mfd_event@@YGXPAUEVENT@@@Z
_TEXT	SEGMENT
_ev$ = 8						; size = 4
?select_rhs_tsd_mfd_event@@YGXPAUEVENT@@@Z PROC		; select_rhs_tsd_mfd_event, COMDAT

; 965  : {

  00000	55		 push	 ebp
  00001	8b ec		 mov	 ebp, esp
  00003	83 ec 40	 sub	 esp, 64			; 00000040H
  00006	53		 push	 ebx
  00007	56		 push	 esi
  00008	57		 push	 edi

; 966  : 	select_default_mfd_mode (MFD_MODE_TSD, MFD_LOCATION_RHS);

  00009	6a 01		 push	 1
  0000b	6a 08		 push	 8
  0000d	e8 00 00 00 00	 call	 ?select_default_mfd_mode@@YGXW4MFD_MODES@@W4MFD_LOCATIONS@@@Z ; select_default_mfd_mode

; 967  : }

  00012	5f		 pop	 edi
  00013	5e		 pop	 esi
  00014	5b		 pop	 ebx
  00015	8b e5		 mov	 esp, ebp
  00017	5d		 pop	 ebp
  00018	c2 04 00	 ret	 4
?select_rhs_tsd_mfd_event@@YGXPAUEVENT@@@Z ENDP		; select_rhs_tsd_mfd_event
_TEXT	ENDS
; Function compile flags: /Odtp /ZI
; File c:\users\nhv90\projects\eech\aphavoc\source\gunships\avionics\default\df_avevn.c
;	COMDAT ?select_lhs_tsd_mfd_event@@YGXPAUEVENT@@@Z
_TEXT	SEGMENT
_ev$ = 8						; size = 4
?select_lhs_tsd_mfd_event@@YGXPAUEVENT@@@Z PROC		; select_lhs_tsd_mfd_event, COMDAT

; 956  : {

  00000	55		 push	 ebp
  00001	8b ec		 mov	 ebp, esp
  00003	83 ec 40	 sub	 esp, 64			; 00000040H
  00006	53		 push	 ebx
  00007	56		 push	 esi
  00008	57		 push	 edi

; 957  : 	select_default_mfd_mode (MFD_MODE_TSD, MFD_LOCATION_LHS);

  00009	6a 00		 push	 0
  0000b	6a 08		 push	 8
  0000d	e8 00 00 00 00	 call	 ?select_default_mfd_mode@@YGXW4MFD_MODES@@W4MFD_LOCATIONS@@@Z ; select_default_mfd_mode

; 958  : }

  00012	5f		 pop	 edi
  00013	5e		 pop	 esi
  00014	5b		 pop	 ebx
  00015	8b e5		 mov	 esp, ebp
  00017	5d		 pop	 ebp
  00018	c2 04 00	 ret	 4
?select_lhs_tsd_mfd_event@@YGXPAUEVENT@@@Z ENDP		; select_lhs_tsd_mfd_event
_TEXT	ENDS
; Function compile flags: /Odtp /ZI
; File c:\users\nhv90\projects\eech\aphavoc\source\gunships\avionics\default\df_avevn.c
;	COMDAT ?select_rhs_tads_mfd_event@@YGXPAUEVENT@@@Z
_TEXT	SEGMENT
_ev$ = 8						; size = 4
?select_rhs_tads_mfd_event@@YGXPAUEVENT@@@Z PROC	; select_rhs_tads_mfd_event, COMDAT

; 936  : {

  00000	55		 push	 ebp
  00001	8b ec		 mov	 ebp, esp
  00003	83 ec 40	 sub	 esp, 64			; 00000040H
  00006	53		 push	 ebx
  00007	56		 push	 esi
  00008	57		 push	 edi

; 937  : 	if (eo_sensor == TARGET_ACQUISITION_SYSTEM_FLIR)

  00009	83 3d 00 00 00
	00 03		 cmp	 DWORD PTR ?eo_sensor@@3W4TARGET_ACQUISITION_SYSTEMS@@A, 3 ; eo_sensor
  00010	75 0b		 jne	 SHORT $LN2@select_rhs

; 938  : 	{
; 939  : 		select_default_mfd_mode (MFD_MODE_FLIR, MFD_LOCATION_RHS);

  00012	6a 01		 push	 1
  00014	6a 04		 push	 4
  00016	e8 00 00 00 00	 call	 ?select_default_mfd_mode@@YGXW4MFD_MODES@@W4MFD_LOCATIONS@@@Z ; select_default_mfd_mode
  0001b	eb 1d		 jmp	 SHORT $LN1@select_rhs
$LN2@select_rhs:

; 940  : 	}
; 941  : 	else if (eo_sensor == TARGET_ACQUISITION_SYSTEM_DTV)

  0001d	83 3d 00 00 00
	00 04		 cmp	 DWORD PTR ?eo_sensor@@3W4TARGET_ACQUISITION_SYSTEMS@@A, 4 ; eo_sensor
  00024	75 0b		 jne	 SHORT $LN4@select_rhs

; 942  : 	{
; 943  : 		select_default_mfd_mode (MFD_MODE_DTV, MFD_LOCATION_RHS);

  00026	6a 01		 push	 1
  00028	6a 05		 push	 5
  0002a	e8 00 00 00 00	 call	 ?select_default_mfd_mode@@YGXW4MFD_MODES@@W4MFD_LOCATIONS@@@Z ; select_default_mfd_mode

; 944  : 	}
; 945  : 	else

  0002f	eb 09		 jmp	 SHORT $LN1@select_rhs
$LN4@select_rhs:

; 946  : 	{
; 947  : 		select_default_mfd_mode (MFD_MODE_DVO, MFD_LOCATION_RHS);

  00031	6a 01		 push	 1
  00033	6a 06		 push	 6
  00035	e8 00 00 00 00	 call	 ?select_default_mfd_mode@@YGXW4MFD_MODES@@W4MFD_LOCATIONS@@@Z ; select_default_mfd_mode
$LN1@select_rhs:

; 948  : 	}
; 949  : }

  0003a	5f		 pop	 edi
  0003b	5e		 pop	 esi
  0003c	5b		 pop	 ebx
  0003d	8b e5		 mov	 esp, ebp
  0003f	5d		 pop	 ebp
  00040	c2 04 00	 ret	 4
?select_rhs_tads_mfd_event@@YGXPAUEVENT@@@Z ENDP	; select_rhs_tads_mfd_event
_TEXT	ENDS
; Function compile flags: /Odtp /ZI
; File c:\users\nhv90\projects\eech\aphavoc\source\gunships\avionics\default\df_avevn.c
;	COMDAT ?select_lhs_tads_mfd_event@@YGXPAUEVENT@@@Z
_TEXT	SEGMENT
_ev$ = 8						; size = 4
?select_lhs_tads_mfd_event@@YGXPAUEVENT@@@Z PROC	; select_lhs_tads_mfd_event, COMDAT

; 916  : {

  00000	55		 push	 ebp
  00001	8b ec		 mov	 ebp, esp
  00003	83 ec 40	 sub	 esp, 64			; 00000040H
  00006	53		 push	 ebx
  00007	56		 push	 esi
  00008	57		 push	 edi

; 917  : 	if (eo_sensor == TARGET_ACQUISITION_SYSTEM_FLIR)

  00009	83 3d 00 00 00
	00 03		 cmp	 DWORD PTR ?eo_sensor@@3W4TARGET_ACQUISITION_SYSTEMS@@A, 3 ; eo_sensor
  00010	75 0b		 jne	 SHORT $LN2@select_lhs

; 918  : 	{
; 919  : 		select_default_mfd_mode (MFD_MODE_FLIR, MFD_LOCATION_LHS);

  00012	6a 00		 push	 0
  00014	6a 04		 push	 4
  00016	e8 00 00 00 00	 call	 ?select_default_mfd_mode@@YGXW4MFD_MODES@@W4MFD_LOCATIONS@@@Z ; select_default_mfd_mode
  0001b	eb 1d		 jmp	 SHORT $LN1@select_lhs
$LN2@select_lhs:

; 920  : 	}
; 921  : 	else if (eo_sensor == TARGET_ACQUISITION_SYSTEM_DTV)

  0001d	83 3d 00 00 00
	00 04		 cmp	 DWORD PTR ?eo_sensor@@3W4TARGET_ACQUISITION_SYSTEMS@@A, 4 ; eo_sensor
  00024	75 0b		 jne	 SHORT $LN4@select_lhs

; 922  : 	{
; 923  : 		select_default_mfd_mode (MFD_MODE_DTV, MFD_LOCATION_LHS);

  00026	6a 00		 push	 0
  00028	6a 05		 push	 5
  0002a	e8 00 00 00 00	 call	 ?select_default_mfd_mode@@YGXW4MFD_MODES@@W4MFD_LOCATIONS@@@Z ; select_default_mfd_mode

; 924  : 	}
; 925  : 	else

  0002f	eb 09		 jmp	 SHORT $LN1@select_lhs
$LN4@select_lhs:

; 926  : 	{
; 927  : 		select_default_mfd_mode (MFD_MODE_DVO, MFD_LOCATION_LHS);

  00031	6a 00		 push	 0
  00033	6a 06		 push	 6
  00035	e8 00 00 00 00	 call	 ?select_default_mfd_mode@@YGXW4MFD_MODES@@W4MFD_LOCATIONS@@@Z ; select_default_mfd_mode
$LN1@select_lhs:

; 928  : 	}
; 929  : }

  0003a	5f		 pop	 edi
  0003b	5e		 pop	 esi
  0003c	5b		 pop	 ebx
  0003d	8b e5		 mov	 esp, ebp
  0003f	5d		 pop	 ebp
  00040	c2 04 00	 ret	 4
?select_lhs_tads_mfd_event@@YGXPAUEVENT@@@Z ENDP	; select_lhs_tads_mfd_event
_TEXT	ENDS
; Function compile flags: /Odtp /ZI
; File c:\users\nhv90\projects\eech\aphavoc\source\gunships\avionics\default\df_avevn.c
;	COMDAT ?select_rhs_air_radar_mfd_event@@YGXPAUEVENT@@@Z
_TEXT	SEGMENT
tv82 = -76						; size = 4
tv76 = -72						; size = 4
tv69 = -68						; size = 4
_ev$ = 8						; size = 4
?select_rhs_air_radar_mfd_event@@YGXPAUEVENT@@@Z PROC	; select_rhs_air_radar_mfd_event, COMDAT

; 898  : {

  00000	55		 push	 ebp
  00001	8b ec		 mov	 ebp, esp
  00003	83 ec 4c	 sub	 esp, 76			; 0000004cH
  00006	53		 push	 ebx
  00007	56		 push	 esi
  00008	57		 push	 edi

; 899  : 	switch (get_local_entity_int_value (get_gunship_entity (), INT_TYPE_ENTITY_SUB_TYPE))

  00009	83 3d 00 00 00
	00 00		 cmp	 DWORD PTR ?gunship_entity@@3PAUENTITY@@A, 0 ; gunship_entity
  00010	74 0c		 je	 SHORT $LN7@select_rhs
  00012	a1 00 00 00 00	 mov	 eax, DWORD PTR ?gunship_entity@@3PAUENTITY@@A ; gunship_entity
  00017	8b 08		 mov	 ecx, DWORD PTR [eax]
  00019	89 4d bc	 mov	 DWORD PTR tv69[ebp], ecx
  0001c	eb 1d		 jmp	 SHORT $LN8@select_rhs
$LN7@select_rhs:
  0001e	68 83 03 00 00	 push	 899			; 00000383H
  00023	68 00 00 00 00	 push	 OFFSET ??_C@_0FB@CPPOAHBH@c?3?2users?2nhv90?2projects?2eech?2ap@
  00028	8b 15 00 00 00
	00		 mov	 edx, DWORD PTR ?null_entity_pointer_message@@3PBDB ; null_entity_pointer_message
  0002e	52		 push	 edx
  0002f	e8 00 00 00 00	 call	 ?process_assert@@YGXPBD0H@Z ; process_assert
  00034	c7 45 bc 00 00
	00 00		 mov	 DWORD PTR tv69[ebp], 0
$LN8@select_rhs:
  0003b	b8 01 00 00 00	 mov	 eax, 1
  00040	85 c0		 test	 eax, eax
  00042	74 09		 je	 SHORT $LN9@select_rhs
  00044	c7 45 b8 34 00
	00 00		 mov	 DWORD PTR tv76[ebp], 52	; 00000034H
  0004b	eb 1d		 jmp	 SHORT $LN10@select_rhs
$LN9@select_rhs:
  0004d	68 83 03 00 00	 push	 899			; 00000383H
  00052	68 00 00 00 00	 push	 OFFSET ??_C@_0FB@CPPOAHBH@c?3?2users?2nhv90?2projects?2eech?2ap@
  00057	8b 0d 00 00 00
	00		 mov	 ecx, DWORD PTR ?overload_invalid_int_type_message@@3PBDB ; overload_invalid_int_type_message
  0005d	51		 push	 ecx
  0005e	e8 00 00 00 00	 call	 ?process_assert@@YGXPBD0H@Z ; process_assert
  00063	c7 45 b8 00 00
	00 00		 mov	 DWORD PTR tv76[ebp], 0
$LN10@select_rhs:
  0006a	6a 34		 push	 52			; 00000034H
  0006c	8b 15 00 00 00
	00		 mov	 edx, DWORD PTR ?gunship_entity@@3PAUENTITY@@A ; gunship_entity
  00072	52		 push	 edx
  00073	69 45 bc 5c 04
	00 00		 imul	 eax, DWORD PTR tv69[ebp], 1116
  0007a	8b 4d b8	 mov	 ecx, DWORD PTR tv76[ebp]
  0007d	8b 94 88 00 00
	00 00		 mov	 edx, DWORD PTR ?fn_get_local_entity_int_value@@3PAY0BBH@P6GHPAUENTITY@@W4INT_TYPES@@@ZA[eax+ecx*4]
  00084	ff d2		 call	 edx
  00086	89 45 b4	 mov	 DWORD PTR tv82[ebp], eax
  00089	83 7d b4 07	 cmp	 DWORD PTR tv82[ebp], 7
  0008d	74 02		 je	 SHORT $LN4@select_rhs
  0008f	eb 09		 jmp	 SHORT $LN1@select_rhs
$LN4@select_rhs:

; 900  : 	{
; 901  : 		case ENTITY_SUB_TYPE_AIRCRAFT_KA29_HELIX_B:
; 902  : 	
; 903  : 	select_default_mfd_mode (MFD_MODE_AIR_RADAR, MFD_LOCATION_RHS);

  00091	6a 01		 push	 1
  00093	6a 03		 push	 3
  00095	e8 00 00 00 00	 call	 ?select_default_mfd_mode@@YGXW4MFD_MODES@@W4MFD_LOCATIONS@@@Z ; select_default_mfd_mode
$LN1@select_rhs:

; 904  : 
; 905  : 	break;
; 906  : 	default:
; 907  : 	break;
; 908  : }
; 909  : }

  0009a	5f		 pop	 edi
  0009b	5e		 pop	 esi
  0009c	5b		 pop	 ebx
  0009d	8b e5		 mov	 esp, ebp
  0009f	5d		 pop	 ebp
  000a0	c2 04 00	 ret	 4
?select_rhs_air_radar_mfd_event@@YGXPAUEVENT@@@Z ENDP	; select_rhs_air_radar_mfd_event
_TEXT	ENDS
; Function compile flags: /Odtp /ZI
; File c:\users\nhv90\projects\eech\aphavoc\source\gunships\avionics\default\df_avevn.c
;	COMDAT ?select_lhs_air_radar_mfd_event@@YGXPAUEVENT@@@Z
_TEXT	SEGMENT
tv82 = -76						; size = 4
tv76 = -72						; size = 4
tv69 = -68						; size = 4
_ev$ = 8						; size = 4
?select_lhs_air_radar_mfd_event@@YGXPAUEVENT@@@Z PROC	; select_lhs_air_radar_mfd_event, COMDAT

; 880  : {

  00000	55		 push	 ebp
  00001	8b ec		 mov	 ebp, esp
  00003	83 ec 4c	 sub	 esp, 76			; 0000004cH
  00006	53		 push	 ebx
  00007	56		 push	 esi
  00008	57		 push	 edi

; 881  : 	switch (get_local_entity_int_value (get_gunship_entity (), INT_TYPE_ENTITY_SUB_TYPE))

  00009	83 3d 00 00 00
	00 00		 cmp	 DWORD PTR ?gunship_entity@@3PAUENTITY@@A, 0 ; gunship_entity
  00010	74 0c		 je	 SHORT $LN7@select_lhs
  00012	a1 00 00 00 00	 mov	 eax, DWORD PTR ?gunship_entity@@3PAUENTITY@@A ; gunship_entity
  00017	8b 08		 mov	 ecx, DWORD PTR [eax]
  00019	89 4d bc	 mov	 DWORD PTR tv69[ebp], ecx
  0001c	eb 1d		 jmp	 SHORT $LN8@select_lhs
$LN7@select_lhs:
  0001e	68 71 03 00 00	 push	 881			; 00000371H
  00023	68 00 00 00 00	 push	 OFFSET ??_C@_0FB@CPPOAHBH@c?3?2users?2nhv90?2projects?2eech?2ap@
  00028	8b 15 00 00 00
	00		 mov	 edx, DWORD PTR ?null_entity_pointer_message@@3PBDB ; null_entity_pointer_message
  0002e	52		 push	 edx
  0002f	e8 00 00 00 00	 call	 ?process_assert@@YGXPBD0H@Z ; process_assert
  00034	c7 45 bc 00 00
	00 00		 mov	 DWORD PTR tv69[ebp], 0
$LN8@select_lhs:
  0003b	b8 01 00 00 00	 mov	 eax, 1
  00040	85 c0		 test	 eax, eax
  00042	74 09		 je	 SHORT $LN9@select_lhs
  00044	c7 45 b8 34 00
	00 00		 mov	 DWORD PTR tv76[ebp], 52	; 00000034H
  0004b	eb 1d		 jmp	 SHORT $LN10@select_lhs
$LN9@select_lhs:
  0004d	68 71 03 00 00	 push	 881			; 00000371H
  00052	68 00 00 00 00	 push	 OFFSET ??_C@_0FB@CPPOAHBH@c?3?2users?2nhv90?2projects?2eech?2ap@
  00057	8b 0d 00 00 00
	00		 mov	 ecx, DWORD PTR ?overload_invalid_int_type_message@@3PBDB ; overload_invalid_int_type_message
  0005d	51		 push	 ecx
  0005e	e8 00 00 00 00	 call	 ?process_assert@@YGXPBD0H@Z ; process_assert
  00063	c7 45 b8 00 00
	00 00		 mov	 DWORD PTR tv76[ebp], 0
$LN10@select_lhs:
  0006a	6a 34		 push	 52			; 00000034H
  0006c	8b 15 00 00 00
	00		 mov	 edx, DWORD PTR ?gunship_entity@@3PAUENTITY@@A ; gunship_entity
  00072	52		 push	 edx
  00073	69 45 bc 5c 04
	00 00		 imul	 eax, DWORD PTR tv69[ebp], 1116
  0007a	8b 4d b8	 mov	 ecx, DWORD PTR tv76[ebp]
  0007d	8b 94 88 00 00
	00 00		 mov	 edx, DWORD PTR ?fn_get_local_entity_int_value@@3PAY0BBH@P6GHPAUENTITY@@W4INT_TYPES@@@ZA[eax+ecx*4]
  00084	ff d2		 call	 edx
  00086	89 45 b4	 mov	 DWORD PTR tv82[ebp], eax
  00089	83 7d b4 07	 cmp	 DWORD PTR tv82[ebp], 7
  0008d	74 02		 je	 SHORT $LN4@select_lhs
  0008f	eb 09		 jmp	 SHORT $LN1@select_lhs
$LN4@select_lhs:

; 882  : 	{
; 883  : 		case ENTITY_SUB_TYPE_AIRCRAFT_KA29_HELIX_B:
; 884  : 	
; 885  : 	select_default_mfd_mode (MFD_MODE_AIR_RADAR, MFD_LOCATION_LHS);

  00091	6a 00		 push	 0
  00093	6a 03		 push	 3
  00095	e8 00 00 00 00	 call	 ?select_default_mfd_mode@@YGXW4MFD_MODES@@W4MFD_LOCATIONS@@@Z ; select_default_mfd_mode
$LN1@select_lhs:

; 886  : 
; 887  : 	break;
; 888  : 	default:
; 889  : 	break;
; 890  : }
; 891  : }

  0009a	5f		 pop	 edi
  0009b	5e		 pop	 esi
  0009c	5b		 pop	 ebx
  0009d	8b e5		 mov	 esp, ebp
  0009f	5d		 pop	 ebp
  000a0	c2 04 00	 ret	 4
?select_lhs_air_radar_mfd_event@@YGXPAUEVENT@@@Z ENDP	; select_lhs_air_radar_mfd_event
_TEXT	ENDS
; Function compile flags: /Odtp /ZI
; File c:\users\nhv90\projects\eech\aphavoc\source\gunships\avionics\default\df_avevn.c
;	COMDAT ?select_rhs_ground_radar_mfd_event@@YGXPAUEVENT@@@Z
_TEXT	SEGMENT
tv82 = -76						; size = 4
tv76 = -72						; size = 4
tv69 = -68						; size = 4
_ev$ = 8						; size = 4
?select_rhs_ground_radar_mfd_event@@YGXPAUEVENT@@@Z PROC ; select_rhs_ground_radar_mfd_event, COMDAT

; 862  : {

  00000	55		 push	 ebp
  00001	8b ec		 mov	 ebp, esp
  00003	83 ec 4c	 sub	 esp, 76			; 0000004cH
  00006	53		 push	 ebx
  00007	56		 push	 esi
  00008	57		 push	 edi

; 863  : 	switch (get_local_entity_int_value (get_gunship_entity (), INT_TYPE_ENTITY_SUB_TYPE))

  00009	83 3d 00 00 00
	00 00		 cmp	 DWORD PTR ?gunship_entity@@3PAUENTITY@@A, 0 ; gunship_entity
  00010	74 0c		 je	 SHORT $LN7@select_rhs
  00012	a1 00 00 00 00	 mov	 eax, DWORD PTR ?gunship_entity@@3PAUENTITY@@A ; gunship_entity
  00017	8b 08		 mov	 ecx, DWORD PTR [eax]
  00019	89 4d bc	 mov	 DWORD PTR tv69[ebp], ecx
  0001c	eb 1d		 jmp	 SHORT $LN8@select_rhs
$LN7@select_rhs:
  0001e	68 5f 03 00 00	 push	 863			; 0000035fH
  00023	68 00 00 00 00	 push	 OFFSET ??_C@_0FB@CPPOAHBH@c?3?2users?2nhv90?2projects?2eech?2ap@
  00028	8b 15 00 00 00
	00		 mov	 edx, DWORD PTR ?null_entity_pointer_message@@3PBDB ; null_entity_pointer_message
  0002e	52		 push	 edx
  0002f	e8 00 00 00 00	 call	 ?process_assert@@YGXPBD0H@Z ; process_assert
  00034	c7 45 bc 00 00
	00 00		 mov	 DWORD PTR tv69[ebp], 0
$LN8@select_rhs:
  0003b	b8 01 00 00 00	 mov	 eax, 1
  00040	85 c0		 test	 eax, eax
  00042	74 09		 je	 SHORT $LN9@select_rhs
  00044	c7 45 b8 34 00
	00 00		 mov	 DWORD PTR tv76[ebp], 52	; 00000034H
  0004b	eb 1d		 jmp	 SHORT $LN10@select_rhs
$LN9@select_rhs:
  0004d	68 5f 03 00 00	 push	 863			; 0000035fH
  00052	68 00 00 00 00	 push	 OFFSET ??_C@_0FB@CPPOAHBH@c?3?2users?2nhv90?2projects?2eech?2ap@
  00057	8b 0d 00 00 00
	00		 mov	 ecx, DWORD PTR ?overload_invalid_int_type_message@@3PBDB ; overload_invalid_int_type_message
  0005d	51		 push	 ecx
  0005e	e8 00 00 00 00	 call	 ?process_assert@@YGXPBD0H@Z ; process_assert
  00063	c7 45 b8 00 00
	00 00		 mov	 DWORD PTR tv76[ebp], 0
$LN10@select_rhs:
  0006a	6a 34		 push	 52			; 00000034H
  0006c	8b 15 00 00 00
	00		 mov	 edx, DWORD PTR ?gunship_entity@@3PAUENTITY@@A ; gunship_entity
  00072	52		 push	 edx
  00073	69 45 bc 5c 04
	00 00		 imul	 eax, DWORD PTR tv69[ebp], 1116
  0007a	8b 4d b8	 mov	 ecx, DWORD PTR tv76[ebp]
  0007d	8b 94 88 00 00
	00 00		 mov	 edx, DWORD PTR ?fn_get_local_entity_int_value@@3PAY0BBH@P6GHPAUENTITY@@W4INT_TYPES@@@ZA[eax+ecx*4]
  00084	ff d2		 call	 edx
  00086	89 45 b4	 mov	 DWORD PTR tv82[ebp], eax
  00089	83 7d b4 07	 cmp	 DWORD PTR tv82[ebp], 7
  0008d	74 02		 je	 SHORT $LN4@select_rhs
  0008f	eb 09		 jmp	 SHORT $LN1@select_rhs
$LN4@select_rhs:

; 864  : 	{
; 865  : 		case ENTITY_SUB_TYPE_AIRCRAFT_KA29_HELIX_B:
; 866  : 	
; 867  : 	select_default_mfd_mode (MFD_MODE_GROUND_RADAR, MFD_LOCATION_RHS);

  00091	6a 01		 push	 1
  00093	6a 02		 push	 2
  00095	e8 00 00 00 00	 call	 ?select_default_mfd_mode@@YGXW4MFD_MODES@@W4MFD_LOCATIONS@@@Z ; select_default_mfd_mode
$LN1@select_rhs:

; 868  : 
; 869  : 	break;
; 870  : 	default:
; 871  : 	break;
; 872  : }
; 873  : }

  0009a	5f		 pop	 edi
  0009b	5e		 pop	 esi
  0009c	5b		 pop	 ebx
  0009d	8b e5		 mov	 esp, ebp
  0009f	5d		 pop	 ebp
  000a0	c2 04 00	 ret	 4
?select_rhs_ground_radar_mfd_event@@YGXPAUEVENT@@@Z ENDP ; select_rhs_ground_radar_mfd_event
_TEXT	ENDS
; Function compile flags: /Odtp /ZI
; File c:\users\nhv90\projects\eech\aphavoc\source\gunships\avionics\default\df_avevn.c
;	COMDAT ?select_lhs_ground_radar_mfd_event@@YGXPAUEVENT@@@Z
_TEXT	SEGMENT
tv82 = -76						; size = 4
tv76 = -72						; size = 4
tv69 = -68						; size = 4
_ev$ = 8						; size = 4
?select_lhs_ground_radar_mfd_event@@YGXPAUEVENT@@@Z PROC ; select_lhs_ground_radar_mfd_event, COMDAT

; 844  : {

  00000	55		 push	 ebp
  00001	8b ec		 mov	 ebp, esp
  00003	83 ec 4c	 sub	 esp, 76			; 0000004cH
  00006	53		 push	 ebx
  00007	56		 push	 esi
  00008	57		 push	 edi

; 845  : 	switch (get_local_entity_int_value (get_gunship_entity (), INT_TYPE_ENTITY_SUB_TYPE))

  00009	83 3d 00 00 00
	00 00		 cmp	 DWORD PTR ?gunship_entity@@3PAUENTITY@@A, 0 ; gunship_entity
  00010	74 0c		 je	 SHORT $LN7@select_lhs
  00012	a1 00 00 00 00	 mov	 eax, DWORD PTR ?gunship_entity@@3PAUENTITY@@A ; gunship_entity
  00017	8b 08		 mov	 ecx, DWORD PTR [eax]
  00019	89 4d bc	 mov	 DWORD PTR tv69[ebp], ecx
  0001c	eb 1d		 jmp	 SHORT $LN8@select_lhs
$LN7@select_lhs:
  0001e	68 4d 03 00 00	 push	 845			; 0000034dH
  00023	68 00 00 00 00	 push	 OFFSET ??_C@_0FB@CPPOAHBH@c?3?2users?2nhv90?2projects?2eech?2ap@
  00028	8b 15 00 00 00
	00		 mov	 edx, DWORD PTR ?null_entity_pointer_message@@3PBDB ; null_entity_pointer_message
  0002e	52		 push	 edx
  0002f	e8 00 00 00 00	 call	 ?process_assert@@YGXPBD0H@Z ; process_assert
  00034	c7 45 bc 00 00
	00 00		 mov	 DWORD PTR tv69[ebp], 0
$LN8@select_lhs:
  0003b	b8 01 00 00 00	 mov	 eax, 1
  00040	85 c0		 test	 eax, eax
  00042	74 09		 je	 SHORT $LN9@select_lhs
  00044	c7 45 b8 34 00
	00 00		 mov	 DWORD PTR tv76[ebp], 52	; 00000034H
  0004b	eb 1d		 jmp	 SHORT $LN10@select_lhs
$LN9@select_lhs:
  0004d	68 4d 03 00 00	 push	 845			; 0000034dH
  00052	68 00 00 00 00	 push	 OFFSET ??_C@_0FB@CPPOAHBH@c?3?2users?2nhv90?2projects?2eech?2ap@
  00057	8b 0d 00 00 00
	00		 mov	 ecx, DWORD PTR ?overload_invalid_int_type_message@@3PBDB ; overload_invalid_int_type_message
  0005d	51		 push	 ecx
  0005e	e8 00 00 00 00	 call	 ?process_assert@@YGXPBD0H@Z ; process_assert
  00063	c7 45 b8 00 00
	00 00		 mov	 DWORD PTR tv76[ebp], 0
$LN10@select_lhs:
  0006a	6a 34		 push	 52			; 00000034H
  0006c	8b 15 00 00 00
	00		 mov	 edx, DWORD PTR ?gunship_entity@@3PAUENTITY@@A ; gunship_entity
  00072	52		 push	 edx
  00073	69 45 bc 5c 04
	00 00		 imul	 eax, DWORD PTR tv69[ebp], 1116
  0007a	8b 4d b8	 mov	 ecx, DWORD PTR tv76[ebp]
  0007d	8b 94 88 00 00
	00 00		 mov	 edx, DWORD PTR ?fn_get_local_entity_int_value@@3PAY0BBH@P6GHPAUENTITY@@W4INT_TYPES@@@ZA[eax+ecx*4]
  00084	ff d2		 call	 edx
  00086	89 45 b4	 mov	 DWORD PTR tv82[ebp], eax
  00089	83 7d b4 07	 cmp	 DWORD PTR tv82[ebp], 7
  0008d	74 02		 je	 SHORT $LN4@select_lhs
  0008f	eb 09		 jmp	 SHORT $LN1@select_lhs
$LN4@select_lhs:

; 846  : 	{
; 847  : 		case ENTITY_SUB_TYPE_AIRCRAFT_KA29_HELIX_B:
; 848  : 	
; 849  : 	select_default_mfd_mode (MFD_MODE_GROUND_RADAR, MFD_LOCATION_LHS);

  00091	6a 00		 push	 0
  00093	6a 02		 push	 2
  00095	e8 00 00 00 00	 call	 ?select_default_mfd_mode@@YGXW4MFD_MODES@@W4MFD_LOCATIONS@@@Z ; select_default_mfd_mode
$LN1@select_lhs:

; 850  : 
; 851  : 	break;
; 852  : 	default:
; 853  : 	break;
; 854  : }
; 855  : }

  0009a	5f		 pop	 edi
  0009b	5e		 pop	 esi
  0009c	5b		 pop	 ebx
  0009d	8b e5		 mov	 esp, ebp
  0009f	5d		 pop	 ebp
  000a0	c2 04 00	 ret	 4
?select_lhs_ground_radar_mfd_event@@YGXPAUEVENT@@@Z ENDP ; select_lhs_ground_radar_mfd_event
_TEXT	ENDS
; Function compile flags: /Odtp /ZI
; File c:\users\nhv90\projects\eech\aphavoc\source\gunships\avionics\default\df_avevn.c
;	COMDAT ?select_previous_rhs_mfd_event@@YGXPAUEVENT@@@Z
_TEXT	SEGMENT
_ev$ = 8						; size = 4
?select_previous_rhs_mfd_event@@YGXPAUEVENT@@@Z PROC	; select_previous_rhs_mfd_event, COMDAT

; 835  : {

  00000	55		 push	 ebp
  00001	8b ec		 mov	 ebp, esp
  00003	83 ec 40	 sub	 esp, 64			; 00000040H
  00006	53		 push	 ebx
  00007	56		 push	 esi
  00008	57		 push	 edi

; 836  : 	select_previous_default_rhs_mfd ();

  00009	e8 00 00 00 00	 call	 ?select_previous_default_rhs_mfd@@YGXXZ ; select_previous_default_rhs_mfd

; 837  : }

  0000e	5f		 pop	 edi
  0000f	5e		 pop	 esi
  00010	5b		 pop	 ebx
  00011	8b e5		 mov	 esp, ebp
  00013	5d		 pop	 ebp
  00014	c2 04 00	 ret	 4
?select_previous_rhs_mfd_event@@YGXPAUEVENT@@@Z ENDP	; select_previous_rhs_mfd_event
_TEXT	ENDS
; Function compile flags: /Odtp /ZI
; File c:\users\nhv90\projects\eech\aphavoc\source\gunships\avionics\default\df_avevn.c
;	COMDAT ?select_next_rhs_mfd_event@@YGXPAUEVENT@@@Z
_TEXT	SEGMENT
_ev$ = 8						; size = 4
?select_next_rhs_mfd_event@@YGXPAUEVENT@@@Z PROC	; select_next_rhs_mfd_event, COMDAT

; 826  : {

  00000	55		 push	 ebp
  00001	8b ec		 mov	 ebp, esp
  00003	83 ec 40	 sub	 esp, 64			; 00000040H
  00006	53		 push	 ebx
  00007	56		 push	 esi
  00008	57		 push	 edi

; 827  : 	select_next_default_rhs_mfd ();

  00009	e8 00 00 00 00	 call	 ?select_next_default_rhs_mfd@@YGXXZ ; select_next_default_rhs_mfd

; 828  : }

  0000e	5f		 pop	 edi
  0000f	5e		 pop	 esi
  00010	5b		 pop	 ebx
  00011	8b e5		 mov	 esp, ebp
  00013	5d		 pop	 ebp
  00014	c2 04 00	 ret	 4
?select_next_rhs_mfd_event@@YGXPAUEVENT@@@Z ENDP	; select_next_rhs_mfd_event
_TEXT	ENDS
; Function compile flags: /Odtp /ZI
; File c:\users\nhv90\projects\eech\aphavoc\source\gunships\avionics\default\df_avevn.c
;	COMDAT ?select_previous_lhs_mfd_event@@YGXPAUEVENT@@@Z
_TEXT	SEGMENT
_ev$ = 8						; size = 4
?select_previous_lhs_mfd_event@@YGXPAUEVENT@@@Z PROC	; select_previous_lhs_mfd_event, COMDAT

; 817  : {

  00000	55		 push	 ebp
  00001	8b ec		 mov	 ebp, esp
  00003	83 ec 40	 sub	 esp, 64			; 00000040H
  00006	53		 push	 ebx
  00007	56		 push	 esi
  00008	57		 push	 edi

; 818  : 	select_previous_default_lhs_mfd ();

  00009	e8 00 00 00 00	 call	 ?select_previous_default_lhs_mfd@@YGXXZ ; select_previous_default_lhs_mfd

; 819  : }

  0000e	5f		 pop	 edi
  0000f	5e		 pop	 esi
  00010	5b		 pop	 ebx
  00011	8b e5		 mov	 esp, ebp
  00013	5d		 pop	 ebp
  00014	c2 04 00	 ret	 4
?select_previous_lhs_mfd_event@@YGXPAUEVENT@@@Z ENDP	; select_previous_lhs_mfd_event
_TEXT	ENDS
; Function compile flags: /Odtp /ZI
; File c:\users\nhv90\projects\eech\aphavoc\source\gunships\avionics\default\df_avevn.c
;	COMDAT ?select_next_lhs_mfd_event@@YGXPAUEVENT@@@Z
_TEXT	SEGMENT
_ev$ = 8						; size = 4
?select_next_lhs_mfd_event@@YGXPAUEVENT@@@Z PROC	; select_next_lhs_mfd_event, COMDAT

; 808  : {

  00000	55		 push	 ebp
  00001	8b ec		 mov	 ebp, esp
  00003	83 ec 40	 sub	 esp, 64			; 00000040H
  00006	53		 push	 ebx
  00007	56		 push	 esi
  00008	57		 push	 edi

; 809  : 	select_next_default_lhs_mfd ();

  00009	e8 00 00 00 00	 call	 ?select_next_default_lhs_mfd@@YGXXZ ; select_next_default_lhs_mfd

; 810  : }

  0000e	5f		 pop	 edi
  0000f	5e		 pop	 esi
  00010	5b		 pop	 ebx
  00011	8b e5		 mov	 esp, ebp
  00013	5d		 pop	 ebp
  00014	c2 04 00	 ret	 4
?select_next_lhs_mfd_event@@YGXPAUEVENT@@@Z ENDP	; select_next_lhs_mfd_event
_TEXT	ENDS
; Function compile flags: /Odtp /ZI
; File c:\users\nhv90\projects\eech\aphavoc\source\gunships\avionics\default\df_avevn.c
;	COMDAT ?toggle_ase_auto_page_event@@YGXPAUEVENT@@@Z
_TEXT	SEGMENT
_ev$ = 8						; size = 4
?toggle_ase_auto_page_event@@YGXPAUEVENT@@@Z PROC	; toggle_ase_auto_page_event, COMDAT

; 799  : {

  00000	55		 push	 ebp
  00001	8b ec		 mov	 ebp, esp
  00003	83 ec 40	 sub	 esp, 64			; 00000040H
  00006	53		 push	 ebx
  00007	56		 push	 esi
  00008	57		 push	 edi

; 800  : 	toggle_default_ase_auto_page ();

  00009	e8 00 00 00 00	 call	 ?toggle_default_ase_auto_page@@YGXXZ ; toggle_default_ase_auto_page

; 801  : }

  0000e	5f		 pop	 edi
  0000f	5e		 pop	 esi
  00010	5b		 pop	 ebx
  00011	8b e5		 mov	 esp, ebp
  00013	5d		 pop	 ebp
  00014	c2 04 00	 ret	 4
?toggle_ase_auto_page_event@@YGXPAUEVENT@@@Z ENDP	; toggle_ase_auto_page_event
_TEXT	ENDS
; Function compile flags: /Odtp /ZI
; File c:\users\nhv90\projects\eech\aphavoc\source\gunships\avionics\default\df_avevn.c
;	COMDAT ?select_next_tsd_declutter_level_event@@YGXPAUEVENT@@@Z
_TEXT	SEGMENT
_ev$ = 8						; size = 4
?select_next_tsd_declutter_level_event@@YGXPAUEVENT@@@Z PROC ; select_next_tsd_declutter_level_event, COMDAT

; 779  : {

  00000	55		 push	 ebp
  00001	8b ec		 mov	 ebp, esp
  00003	83 ec 40	 sub	 esp, 64			; 00000040H
  00006	53		 push	 ebx
  00007	56		 push	 esi
  00008	57		 push	 edi

; 780  : 	select_next_default_tsd_declutter_level ();

  00009	e8 00 00 00 00	 call	 ?select_next_default_tsd_declutter_level@@YGXXZ ; select_next_default_tsd_declutter_level

; 781  : }

  0000e	5f		 pop	 edi
  0000f	5e		 pop	 esi
  00010	5b		 pop	 ebx
  00011	8b e5		 mov	 esp, ebp
  00013	5d		 pop	 ebp
  00014	c2 04 00	 ret	 4
?select_next_tsd_declutter_level_event@@YGXPAUEVENT@@@Z ENDP ; select_next_tsd_declutter_level_event
_TEXT	ENDS
; Function compile flags: /Odtp /ZI
; File c:\users\nhv90\projects\eech\aphavoc\source\gunships\avionics\default\df_avevn.c
;	COMDAT ?select_previous_tsd_ase_range_event@@YGXPAUEVENT@@@Z
_TEXT	SEGMENT
_ev$ = 8						; size = 4
?select_previous_tsd_ase_range_event@@YGXPAUEVENT@@@Z PROC ; select_previous_tsd_ase_range_event, COMDAT

; 770  : {

  00000	55		 push	 ebp
  00001	8b ec		 mov	 ebp, esp
  00003	83 ec 40	 sub	 esp, 64			; 00000040H
  00006	53		 push	 ebx
  00007	56		 push	 esi
  00008	57		 push	 edi

; 771  : 	select_previous_default_tsd_ase_range ();

  00009	e8 00 00 00 00	 call	 ?select_previous_default_tsd_ase_range@@YGXXZ ; select_previous_default_tsd_ase_range

; 772  : }

  0000e	5f		 pop	 edi
  0000f	5e		 pop	 esi
  00010	5b		 pop	 ebx
  00011	8b e5		 mov	 esp, ebp
  00013	5d		 pop	 ebp
  00014	c2 04 00	 ret	 4
?select_previous_tsd_ase_range_event@@YGXPAUEVENT@@@Z ENDP ; select_previous_tsd_ase_range_event
_TEXT	ENDS
; Function compile flags: /Odtp /ZI
; File c:\users\nhv90\projects\eech\aphavoc\source\gunships\avionics\default\df_avevn.c
;	COMDAT ?select_next_tsd_ase_range_event@@YGXPAUEVENT@@@Z
_TEXT	SEGMENT
_ev$ = 8						; size = 4
?select_next_tsd_ase_range_event@@YGXPAUEVENT@@@Z PROC	; select_next_tsd_ase_range_event, COMDAT

; 761  : {

  00000	55		 push	 ebp
  00001	8b ec		 mov	 ebp, esp
  00003	83 ec 40	 sub	 esp, 64			; 00000040H
  00006	53		 push	 ebx
  00007	56		 push	 esi
  00008	57		 push	 edi

; 762  : 	select_next_default_tsd_ase_range ();

  00009	e8 00 00 00 00	 call	 ?select_next_default_tsd_ase_range@@YGXXZ ; select_next_default_tsd_ase_range

; 763  : }

  0000e	5f		 pop	 edi
  0000f	5e		 pop	 esi
  00010	5b		 pop	 ebx
  00011	8b e5		 mov	 esp, ebp
  00013	5d		 pop	 ebp
  00014	c2 04 00	 ret	 4
?select_next_tsd_ase_range_event@@YGXPAUEVENT@@@Z ENDP	; select_next_tsd_ase_range_event
_TEXT	ENDS
; Function compile flags: /Odtp /ZI
; File c:\users\nhv90\projects\eech\aphavoc\source\gunships\avionics\default\df_avevn.c
;	COMDAT ?select_cannon_event@@YGXPAUEVENT@@@Z
_TEXT	SEGMENT
_ev$ = 8						; size = 4
?select_cannon_event@@YGXPAUEVENT@@@Z PROC		; select_cannon_event, COMDAT

; 749  : {

  00000	55		 push	 ebp
  00001	8b ec		 mov	 ebp, esp
  00003	83 ec 40	 sub	 esp, 64			; 00000040H
  00006	53		 push	 ebx
  00007	56		 push	 esi
  00008	57		 push	 edi

; 750  : 	if (get_local_entity_weapon_available (get_gunship_entity (), ENTITY_SUB_TYPE_WEAPON_M230_30MM_ROUND))

  00009	6a 07		 push	 7
  0000b	a1 00 00 00 00	 mov	 eax, DWORD PTR ?gunship_entity@@3PAUENTITY@@A ; gunship_entity
  00010	50		 push	 eax
  00011	e8 00 00 00 00	 call	 ?get_local_entity_weapon_available@@YGHPAUENTITY@@H@Z ; get_local_entity_weapon_available
  00016	85 c0		 test	 eax, eax
  00018	74 07		 je	 SHORT $LN1@select_can

; 751  : 	{
; 752  : 		set_gunship_weapon (ENTITY_SUB_TYPE_WEAPON_M230_30MM_ROUND);

  0001a	6a 07		 push	 7
  0001c	e8 00 00 00 00	 call	 ?set_gunship_weapon@@YGXH@Z ; set_gunship_weapon
$LN1@select_can:

; 753  : 	}
; 754  : }

  00021	5f		 pop	 edi
  00022	5e		 pop	 esi
  00023	5b		 pop	 ebx
  00024	8b e5		 mov	 esp, ebp
  00026	5d		 pop	 ebp
  00027	c2 04 00	 ret	 4
?select_cannon_event@@YGXPAUEVENT@@@Z ENDP		; select_cannon_event
_TEXT	ENDS
; Function compile flags: /Odtp /ZI
; File c:\users\nhv90\projects\eech\aphavoc\source\gunships\avionics\default\df_avevn.c
;	COMDAT ?virtual_cockpit_track_target_event@@YGXPAUEVENT@@@Z
_TEXT	SEGMENT
_ev$ = 8						; size = 4
?virtual_cockpit_track_target_event@@YGXPAUEVENT@@@Z PROC ; virtual_cockpit_track_target_event, COMDAT

; 725  : {

  00000	55		 push	 ebp
  00001	8b ec		 mov	 ebp, esp
  00003	83 ec 40	 sub	 esp, 64			; 00000040H
  00006	53		 push	 ebx
  00007	56		 push	 esi
  00008	57		 push	 edi

; 726  : 	ASSERT (ev);

  00009	83 7d 08 00	 cmp	 DWORD PTR _ev$[ebp], 0
  0000d	75 18		 jne	 SHORT $LN2@virtual_co
  0000f	a1 00 00 00 00	 mov	 eax, DWORD PTR ?__LINE__Var@?0??virtual_cockpit_track_target_event@@YGXPAUEVENT@@@Z@4JA
  00014	83 c0 01	 add	 eax, 1
  00017	50		 push	 eax
  00018	68 00 00 00 00	 push	 OFFSET ??_C@_0FB@CPPOAHBH@c?3?2users?2nhv90?2projects?2eech?2ap@
  0001d	68 00 00 00 00	 push	 OFFSET ??_C@_02DHMHPBFG@ev@
  00022	e8 00 00 00 00	 call	 ?process_assert@@YGXPBD0H@Z ; process_assert
$LN2@virtual_co:

; 727  : 
; 728  : 	if ((ev->key == DIK_1) || (get_view_mode () != VIEW_MODE_VIRTUAL_COCKPIT_TRACK_TARGET))

  00027	8b 45 08	 mov	 eax, DWORD PTR _ev$[ebp]
  0002a	0f b6 48 06	 movzx	 ecx, BYTE PTR [eax+6]
  0002e	83 f9 02	 cmp	 ecx, 2
  00031	74 09		 je	 SHORT $LN5@virtual_co
  00033	83 3d 00 00 00
	00 22		 cmp	 DWORD PTR ?view_mode@@3W4VIEW_MODES@@A, 34 ; view_mode, 00000022H
  0003a	74 14		 je	 SHORT $LN3@virtual_co
$LN5@virtual_co:

; 729  : 	{
; 730  : 		if (set_view_mode (VIEW_MODE_VIRTUAL_COCKPIT_TRACK_TARGET))

  0003c	6a 22		 push	 34			; 00000022H
  0003e	e8 00 00 00 00	 call	 ?set_view_mode@@YGHW4VIEW_MODES@@@Z ; set_view_mode
  00043	85 c0		 test	 eax, eax
  00045	74 07		 je	 SHORT $LN6@virtual_co

; 731  : 		{
; 732  : 			set_default_lock_target (TRUE);

  00047	6a 01		 push	 1
  00049	e8 00 00 00 00	 call	 ?set_default_lock_target@@YGXH@Z ; set_default_lock_target
$LN6@virtual_co:

; 733  : 		}
; 734  : 	}
; 735  : 	else

  0004e	eb 10		 jmp	 SHORT $LN1@virtual_co
$LN3@virtual_co:

; 736  : 	{
; 737  : 		if (get_view_mode () == VIEW_MODE_VIRTUAL_COCKPIT_TRACK_TARGET)

  00050	83 3d 00 00 00
	00 22		 cmp	 DWORD PTR ?view_mode@@3W4VIEW_MODES@@A, 34 ; view_mode, 00000022H
  00057	75 07		 jne	 SHORT $LN1@virtual_co

; 738  : 		{
; 739  : 			select_padlock_view_event (PADLOCK_MODE_NONE);

  00059	6a 00		 push	 0
  0005b	e8 00 00 00 00	 call	 ?select_padlock_view_event@@YGXW4PADLOCK_MODES@@@Z ; select_padlock_view_event
$LN1@virtual_co:

; 740  : 		}
; 741  : 	}
; 742  : }

  00060	5f		 pop	 edi
  00061	5e		 pop	 esi
  00062	5b		 pop	 ebx
  00063	8b e5		 mov	 esp, ebp
  00065	5d		 pop	 ebp
  00066	c2 04 00	 ret	 4
?virtual_cockpit_track_target_event@@YGXPAUEVENT@@@Z ENDP ; virtual_cockpit_track_target_event
_TEXT	ENDS
; Function compile flags: /Odtp /ZI
; File c:\users\nhv90\projects\eech\aphavoc\source\gunships\avionics\default\df_avevn.c
;	COMDAT ?toggle_lobl_loal_event@@YGXPAUEVENT@@@Z
_TEXT	SEGMENT
tv131 = -76						; size = 4
tv78 = -76						; size = 4
tv91 = -72						; size = 4
tv70 = -72						; size = 4
_status$ = -4						; size = 4
_ev$ = 8						; size = 4
?toggle_lobl_loal_event@@YGXPAUEVENT@@@Z PROC		; toggle_lobl_loal_event, COMDAT

; 700  : {

  00000	55		 push	 ebp
  00001	8b ec		 mov	 ebp, esp
  00003	83 ec 4c	 sub	 esp, 76			; 0000004cH
  00006	53		 push	 ebx
  00007	56		 push	 esi
  00008	57		 push	 edi

; 701  : 	int
; 702  : 		status;
; 703  : 
; 704  : 	status = get_local_entity_int_value (get_gunship_entity (), INT_TYPE_LOCK_ON_AFTER_LAUNCH);

  00009	83 3d 00 00 00
	00 00		 cmp	 DWORD PTR ?gunship_entity@@3PAUENTITY@@A, 0 ; gunship_entity
  00010	74 0c		 je	 SHORT $LN5@toggle_lob
  00012	a1 00 00 00 00	 mov	 eax, DWORD PTR ?gunship_entity@@3PAUENTITY@@A ; gunship_entity
  00017	8b 08		 mov	 ecx, DWORD PTR [eax]
  00019	89 4d b8	 mov	 DWORD PTR tv70[ebp], ecx
  0001c	eb 21		 jmp	 SHORT $LN6@toggle_lob
$LN5@toggle_lob:
  0001e	8b 15 00 00 00
	00		 mov	 edx, DWORD PTR ?__LINE__Var@?0??toggle_lobl_loal_event@@YGXPAUEVENT@@@Z@4JA
  00024	83 c2 04	 add	 edx, 4
  00027	52		 push	 edx
  00028	68 00 00 00 00	 push	 OFFSET ??_C@_0FB@CPPOAHBH@c?3?2users?2nhv90?2projects?2eech?2ap@
  0002d	a1 00 00 00 00	 mov	 eax, DWORD PTR ?null_entity_pointer_message@@3PBDB ; null_entity_pointer_message
  00032	50		 push	 eax
  00033	e8 00 00 00 00	 call	 ?process_assert@@YGXPBD0H@Z ; process_assert
  00038	c7 45 b8 00 00
	00 00		 mov	 DWORD PTR tv70[ebp], 0
$LN6@toggle_lob:
  0003f	b9 01 00 00 00	 mov	 ecx, 1
  00044	85 c9		 test	 ecx, ecx
  00046	74 09		 je	 SHORT $LN7@toggle_lob
  00048	c7 45 b4 7e 00
	00 00		 mov	 DWORD PTR tv78[ebp], 126 ; 0000007eH
  0004f	eb 21		 jmp	 SHORT $LN8@toggle_lob
$LN7@toggle_lob:
  00051	8b 15 00 00 00
	00		 mov	 edx, DWORD PTR ?__LINE__Var@?0??toggle_lobl_loal_event@@YGXPAUEVENT@@@Z@4JA
  00057	83 c2 04	 add	 edx, 4
  0005a	52		 push	 edx
  0005b	68 00 00 00 00	 push	 OFFSET ??_C@_0FB@CPPOAHBH@c?3?2users?2nhv90?2projects?2eech?2ap@
  00060	a1 00 00 00 00	 mov	 eax, DWORD PTR ?overload_invalid_int_type_message@@3PBDB ; overload_invalid_int_type_message
  00065	50		 push	 eax
  00066	e8 00 00 00 00	 call	 ?process_assert@@YGXPBD0H@Z ; process_assert
  0006b	c7 45 b4 00 00
	00 00		 mov	 DWORD PTR tv78[ebp], 0
$LN8@toggle_lob:
  00072	6a 7e		 push	 126			; 0000007eH
  00074	8b 0d 00 00 00
	00		 mov	 ecx, DWORD PTR ?gunship_entity@@3PAUENTITY@@A ; gunship_entity
  0007a	51		 push	 ecx
  0007b	69 55 b8 5c 04
	00 00		 imul	 edx, DWORD PTR tv70[ebp], 1116
  00082	8b 45 b4	 mov	 eax, DWORD PTR tv78[ebp]
  00085	8b 8c 82 00 00
	00 00		 mov	 ecx, DWORD PTR ?fn_get_local_entity_int_value@@3PAY0BBH@P6GHPAUENTITY@@W4INT_TYPES@@@ZA[edx+eax*4]
  0008c	ff d1		 call	 ecx
  0008e	89 45 fc	 mov	 DWORD PTR _status$[ebp], eax

; 705  : 
; 706  : 	status ^= 1;

  00091	8b 45 fc	 mov	 eax, DWORD PTR _status$[ebp]
  00094	83 f0 01	 xor	 eax, 1
  00097	89 45 fc	 mov	 DWORD PTR _status$[ebp], eax

; 707  : 
; 708  : 	set_client_server_entity_int_value (get_gunship_entity (), INT_TYPE_LOCK_ON_AFTER_LAUNCH, status);

  0009a	83 3d 00 00 00
	00 00		 cmp	 DWORD PTR ?gunship_entity@@3PAUENTITY@@A, 0 ; gunship_entity
  000a1	74 0c		 je	 SHORT $LN9@toggle_lob
  000a3	a1 00 00 00 00	 mov	 eax, DWORD PTR ?gunship_entity@@3PAUENTITY@@A ; gunship_entity
  000a8	8b 08		 mov	 ecx, DWORD PTR [eax]
  000aa	89 4d b8	 mov	 DWORD PTR tv91[ebp], ecx
  000ad	eb 21		 jmp	 SHORT $LN10@toggle_lob
$LN9@toggle_lob:
  000af	8b 15 00 00 00
	00		 mov	 edx, DWORD PTR ?__LINE__Var@?0??toggle_lobl_loal_event@@YGXPAUEVENT@@@Z@4JA
  000b5	83 c2 08	 add	 edx, 8
  000b8	52		 push	 edx
  000b9	68 00 00 00 00	 push	 OFFSET ??_C@_0FB@CPPOAHBH@c?3?2users?2nhv90?2projects?2eech?2ap@
  000be	a1 00 00 00 00	 mov	 eax, DWORD PTR ?null_entity_pointer_message@@3PBDB ; null_entity_pointer_message
  000c3	50		 push	 eax
  000c4	e8 00 00 00 00	 call	 ?process_assert@@YGXPBD0H@Z ; process_assert
  000c9	c7 45 b8 00 00
	00 00		 mov	 DWORD PTR tv91[ebp], 0
$LN10@toggle_lob:
  000d0	b9 01 00 00 00	 mov	 ecx, 1
  000d5	85 c9		 test	 ecx, ecx
  000d7	74 09		 je	 SHORT $LN11@toggle_lob
  000d9	c7 45 b4 7e 00
	00 00		 mov	 DWORD PTR tv131[ebp], 126 ; 0000007eH
  000e0	eb 21		 jmp	 SHORT $LN12@toggle_lob
$LN11@toggle_lob:
  000e2	8b 15 00 00 00
	00		 mov	 edx, DWORD PTR ?__LINE__Var@?0??toggle_lobl_loal_event@@YGXPAUEVENT@@@Z@4JA
  000e8	83 c2 08	 add	 edx, 8
  000eb	52		 push	 edx
  000ec	68 00 00 00 00	 push	 OFFSET ??_C@_0FB@CPPOAHBH@c?3?2users?2nhv90?2projects?2eech?2ap@
  000f1	a1 00 00 00 00	 mov	 eax, DWORD PTR ?overload_invalid_int_type_message@@3PBDB ; overload_invalid_int_type_message
  000f6	50		 push	 eax
  000f7	e8 00 00 00 00	 call	 ?process_assert@@YGXPBD0H@Z ; process_assert
  000fc	c7 45 b4 00 00
	00 00		 mov	 DWORD PTR tv131[ebp], 0
$LN12@toggle_lob:
  00103	8b 4d fc	 mov	 ecx, DWORD PTR _status$[ebp]
  00106	51		 push	 ecx
  00107	6a 7e		 push	 126			; 0000007eH
  00109	8b 15 00 00 00
	00		 mov	 edx, DWORD PTR ?gunship_entity@@3PAUENTITY@@A ; gunship_entity
  0010f	52		 push	 edx
  00110	69 45 b8 b8 08
	00 00		 imul	 eax, DWORD PTR tv91[ebp], 2232
  00117	8b 4d b4	 mov	 ecx, DWORD PTR tv131[ebp]
  0011a	8d 94 c8 00 00
	00 00		 lea	 edx, DWORD PTR ?fn_set_client_server_entity_int_value@@3PAY1BBH@1P6GXPAUENTITY@@W4INT_TYPES@@H@ZA[eax+ecx*8]
  00121	a1 00 00 00 00	 mov	 eax, DWORD PTR ?system_comms_model@@3W4COMMS_MODEL_TYPES@@A ; system_comms_model
  00126	8b 0c 82	 mov	 ecx, DWORD PTR [edx+eax*4]
  00129	ff d1		 call	 ecx

; 709  : 
; 710  : 	if (status)

  0012b	83 7d fc 00	 cmp	 DWORD PTR _status$[ebp], 0
  0012f	74 3b		 je	 SHORT $LN2@toggle_lob

; 711  : 	{
; 712  : 		play_client_server_cpg_message (get_gunship_entity (), 0.5, 1.0, SPEECH_CATEGORY_CPG_SYSTEMS, 1.0, SPEECH_CPG_SWITCHING_TO_LOAL);

  00131	6a 5a		 push	 90			; 0000005aH
  00133	51		 push	 ecx
  00134	f3 0f 10 05 00
	00 00 00	 movss	 xmm0, DWORD PTR __real@3f800000
  0013c	f3 0f 11 04 24	 movss	 DWORD PTR [esp], xmm0
  00141	6a 04		 push	 4
  00143	51		 push	 ecx
  00144	f3 0f 10 05 00
	00 00 00	 movss	 xmm0, DWORD PTR __real@3f800000
  0014c	f3 0f 11 04 24	 movss	 DWORD PTR [esp], xmm0
  00151	51		 push	 ecx
  00152	f3 0f 10 05 00
	00 00 00	 movss	 xmm0, DWORD PTR __real@3f000000
  0015a	f3 0f 11 04 24	 movss	 DWORD PTR [esp], xmm0
  0015f	a1 00 00 00 00	 mov	 eax, DWORD PTR ?gunship_entity@@3PAUENTITY@@A ; gunship_entity
  00164	50		 push	 eax
  00165	e8 00 00 00 00	 call	 ?play_client_server_cpg_message@@YGHPAUENTITY@@MMHMH@Z ; play_client_server_cpg_message

; 713  : 	}
; 714  : 	else

  0016a	eb 39		 jmp	 SHORT $LN3@toggle_lob
$LN2@toggle_lob:

; 715  : 	{
; 716  : 		play_client_server_cpg_message (get_gunship_entity (), 0.5, 1.0, SPEECH_CATEGORY_CPG_SYSTEMS, 1.0, SPEECH_CPG_SWITCHING_TO_LOBL);

  0016c	6a 5b		 push	 91			; 0000005bH
  0016e	51		 push	 ecx
  0016f	f3 0f 10 05 00
	00 00 00	 movss	 xmm0, DWORD PTR __real@3f800000
  00177	f3 0f 11 04 24	 movss	 DWORD PTR [esp], xmm0
  0017c	6a 04		 push	 4
  0017e	51		 push	 ecx
  0017f	f3 0f 10 05 00
	00 00 00	 movss	 xmm0, DWORD PTR __real@3f800000
  00187	f3 0f 11 04 24	 movss	 DWORD PTR [esp], xmm0
  0018c	51		 push	 ecx
  0018d	f3 0f 10 05 00
	00 00 00	 movss	 xmm0, DWORD PTR __real@3f000000
  00195	f3 0f 11 04 24	 movss	 DWORD PTR [esp], xmm0
  0019a	a1 00 00 00 00	 mov	 eax, DWORD PTR ?gunship_entity@@3PAUENTITY@@A ; gunship_entity
  0019f	50		 push	 eax
  001a0	e8 00 00 00 00	 call	 ?play_client_server_cpg_message@@YGHPAUENTITY@@MMHMH@Z ; play_client_server_cpg_message
$LN3@toggle_lob:

; 717  : 	}
; 718  : }

  001a5	5f		 pop	 edi
  001a6	5e		 pop	 esi
  001a7	5b		 pop	 ebx
  001a8	8b e5		 mov	 esp, ebp
  001aa	5d		 pop	 ebp
  001ab	c2 04 00	 ret	 4
?toggle_lobl_loal_event@@YGXPAUEVENT@@@Z ENDP		; toggle_lobl_loal_event
_TEXT	ENDS
; Function compile flags: /Odtp /ZI
; File c:\users\nhv90\projects\eech\aphavoc\source\gunships\avionics\default\df_avevn.c
;	COMDAT ?toggle_night_vision_system_event@@YGXPAUEVENT@@@Z
_TEXT	SEGMENT
_ev$ = 8						; size = 4
?toggle_night_vision_system_event@@YGXPAUEVENT@@@Z PROC	; toggle_night_vision_system_event, COMDAT

; 684  : {

  00000	55		 push	 ebp
  00001	8b ec		 mov	 ebp, esp
  00003	83 ec 40	 sub	 esp, 64			; 00000040H
  00006	53		 push	 ebx
  00007	56		 push	 esi
  00008	57		 push	 edi

; 685  : 	if (!default_damage.pnvs)

  00009	a1 00 00 00 00	 mov	 eax, DWORD PTR ?default_damage@@3TDEFAULT_DAMAGE_FLAGS@@A ; default_damage
  0000e	c1 e8 12	 shr	 eax, 18			; 00000012H
  00011	83 e0 01	 and	 eax, 1
  00014	75 0f		 jne	 SHORT $LN2@toggle_nig

; 686  : 	{
; 687  : 		night_vision_system_active ^= 1;

  00016	a1 00 00 00 00	 mov	 eax, DWORD PTR ?night_vision_system_active@@3HA ; night_vision_system_active
  0001b	83 f0 01	 xor	 eax, 1
  0001e	a3 00 00 00 00	 mov	 DWORD PTR ?night_vision_system_active@@3HA, eax ; night_vision_system_active

; 688  : 	}
; 689  : 	else

  00023	eb 39		 jmp	 SHORT $LN3@toggle_nig
$LN2@toggle_nig:

; 690  : 	{
; 691  : 		play_client_server_cpg_message (get_gunship_entity (), 0.5, 1.0, SPEECH_CATEGORY_CPG_SYSTEMS, 1.0, SPEECH_CPG_PNVS_DAMAGED);

  00025	6a 1c		 push	 28			; 0000001cH
  00027	51		 push	 ecx
  00028	f3 0f 10 05 00
	00 00 00	 movss	 xmm0, DWORD PTR __real@3f800000
  00030	f3 0f 11 04 24	 movss	 DWORD PTR [esp], xmm0
  00035	6a 04		 push	 4
  00037	51		 push	 ecx
  00038	f3 0f 10 05 00
	00 00 00	 movss	 xmm0, DWORD PTR __real@3f800000
  00040	f3 0f 11 04 24	 movss	 DWORD PTR [esp], xmm0
  00045	51		 push	 ecx
  00046	f3 0f 10 05 00
	00 00 00	 movss	 xmm0, DWORD PTR __real@3f000000
  0004e	f3 0f 11 04 24	 movss	 DWORD PTR [esp], xmm0
  00053	a1 00 00 00 00	 mov	 eax, DWORD PTR ?gunship_entity@@3PAUENTITY@@A ; gunship_entity
  00058	50		 push	 eax
  00059	e8 00 00 00 00	 call	 ?play_client_server_cpg_message@@YGHPAUENTITY@@MMHMH@Z ; play_client_server_cpg_message
$LN3@toggle_nig:

; 692  : 	}
; 693  : }

  0005e	5f		 pop	 edi
  0005f	5e		 pop	 esi
  00060	5b		 pop	 ebx
  00061	8b e5		 mov	 esp, ebp
  00063	5d		 pop	 ebp
  00064	c2 04 00	 ret	 4
?toggle_night_vision_system_event@@YGXPAUEVENT@@@Z ENDP	; toggle_night_vision_system_event
_TEXT	ENDS
; Function compile flags: /Odtp /ZI
; File c:\users\nhv90\projects\eech\aphavoc\source\gunships\avionics\default\df_avevn.c
;	COMDAT ?acknowledge_master_caution_event@@YGXPAUEVENT@@@Z
_TEXT	SEGMENT
_ev$ = 8						; size = 4
?acknowledge_master_caution_event@@YGXPAUEVENT@@@Z PROC	; acknowledge_master_caution_event, COMDAT

; 675  : {

  00000	55		 push	 ebp
  00001	8b ec		 mov	 ebp, esp
  00003	83 ec 40	 sub	 esp, 64			; 00000040H
  00006	53		 push	 ebx
  00007	56		 push	 esi
  00008	57		 push	 edi

; 676  : 	deactivate_default_master_caution ();

  00009	e8 00 00 00 00	 call	 ?deactivate_default_master_caution@@YGXXZ ; deactivate_default_master_caution

; 677  : }

  0000e	5f		 pop	 edi
  0000f	5e		 pop	 esi
  00010	5b		 pop	 ebx
  00011	8b e5		 mov	 esp, ebp
  00013	5d		 pop	 ebp
  00014	c2 04 00	 ret	 4
?acknowledge_master_caution_event@@YGXPAUEVENT@@@Z ENDP	; acknowledge_master_caution_event
_TEXT	ENDS
; Function compile flags: /Odtp /ZI
; File c:\users\nhv90\projects\eech\aphavoc\source\gunships\avionics\default\df_avevn.c
;	COMDAT ?toggle_ground_stabilisation_event@@YGXPAUEVENT@@@Z
_TEXT	SEGMENT
_ev$ = 8						; size = 4
?toggle_ground_stabilisation_event@@YGXPAUEVENT@@@Z PROC ; toggle_ground_stabilisation_event, COMDAT

; 666  : {

  00000	55		 push	 ebp
  00001	8b ec		 mov	 ebp, esp
  00003	83 ec 40	 sub	 esp, 64			; 00000040H
  00006	53		 push	 ebx
  00007	56		 push	 esi
  00008	57		 push	 edi

; 667  : 	toggle_ground_stabilisation_key++;

  00009	a1 00 00 00 00	 mov	 eax, DWORD PTR ?toggle_ground_stabilisation_key@@3HA ; toggle_ground_stabilisation_key
  0000e	83 c0 01	 add	 eax, 1
  00011	a3 00 00 00 00	 mov	 DWORD PTR ?toggle_ground_stabilisation_key@@3HA, eax ; toggle_ground_stabilisation_key

; 668  : }

  00016	5f		 pop	 edi
  00017	5e		 pop	 esi
  00018	5b		 pop	 ebx
  00019	8b e5		 mov	 esp, ebp
  0001b	5d		 pop	 ebp
  0001c	c2 04 00	 ret	 4
?toggle_ground_stabilisation_event@@YGXPAUEVENT@@@Z ENDP ; toggle_ground_stabilisation_event
_TEXT	ENDS
; Function compile flags: /Odtp /ZI
; File c:\users\nhv90\projects\eech\aphavoc\source\gunships\avionics\default\df_avevn.c
;	COMDAT ?target_acquisition_system_misc_function2_event@@YGXPAUEVENT@@@Z
_TEXT	SEGMENT
tv82 = -76						; size = 4
tv76 = -72						; size = 4
tv69 = -68						; size = 4
_ev$ = 8						; size = 4
?target_acquisition_system_misc_function2_event@@YGXPAUEVENT@@@Z PROC ; target_acquisition_system_misc_function2_event, COMDAT

; 648  : {

  00000	55		 push	 ebp
  00001	8b ec		 mov	 ebp, esp
  00003	83 ec 4c	 sub	 esp, 76			; 0000004cH
  00006	53		 push	 ebx
  00007	56		 push	 esi
  00008	57		 push	 edi

; 649  : 	switch (get_local_entity_int_value (get_gunship_entity (), INT_TYPE_ENTITY_SUB_TYPE))

  00009	83 3d 00 00 00
	00 00		 cmp	 DWORD PTR ?gunship_entity@@3PAUENTITY@@A, 0 ; gunship_entity
  00010	74 0c		 je	 SHORT $LN7@target_acq
  00012	a1 00 00 00 00	 mov	 eax, DWORD PTR ?gunship_entity@@3PAUENTITY@@A ; gunship_entity
  00017	8b 08		 mov	 ecx, DWORD PTR [eax]
  00019	89 4d bc	 mov	 DWORD PTR tv69[ebp], ecx
  0001c	eb 1d		 jmp	 SHORT $LN8@target_acq
$LN7@target_acq:
  0001e	68 89 02 00 00	 push	 649			; 00000289H
  00023	68 00 00 00 00	 push	 OFFSET ??_C@_0FB@CPPOAHBH@c?3?2users?2nhv90?2projects?2eech?2ap@
  00028	8b 15 00 00 00
	00		 mov	 edx, DWORD PTR ?null_entity_pointer_message@@3PBDB ; null_entity_pointer_message
  0002e	52		 push	 edx
  0002f	e8 00 00 00 00	 call	 ?process_assert@@YGXPBD0H@Z ; process_assert
  00034	c7 45 bc 00 00
	00 00		 mov	 DWORD PTR tv69[ebp], 0
$LN8@target_acq:
  0003b	b8 01 00 00 00	 mov	 eax, 1
  00040	85 c0		 test	 eax, eax
  00042	74 09		 je	 SHORT $LN9@target_acq
  00044	c7 45 b8 34 00
	00 00		 mov	 DWORD PTR tv76[ebp], 52	; 00000034H
  0004b	eb 1d		 jmp	 SHORT $LN10@target_acq
$LN9@target_acq:
  0004d	68 89 02 00 00	 push	 649			; 00000289H
  00052	68 00 00 00 00	 push	 OFFSET ??_C@_0FB@CPPOAHBH@c?3?2users?2nhv90?2projects?2eech?2ap@
  00057	8b 0d 00 00 00
	00		 mov	 ecx, DWORD PTR ?overload_invalid_int_type_message@@3PBDB ; overload_invalid_int_type_message
  0005d	51		 push	 ecx
  0005e	e8 00 00 00 00	 call	 ?process_assert@@YGXPBD0H@Z ; process_assert
  00063	c7 45 b8 00 00
	00 00		 mov	 DWORD PTR tv76[ebp], 0
$LN10@target_acq:
  0006a	6a 34		 push	 52			; 00000034H
  0006c	8b 15 00 00 00
	00		 mov	 edx, DWORD PTR ?gunship_entity@@3PAUENTITY@@A ; gunship_entity
  00072	52		 push	 edx
  00073	69 45 bc 5c 04
	00 00		 imul	 eax, DWORD PTR tv69[ebp], 1116
  0007a	8b 4d b8	 mov	 ecx, DWORD PTR tv76[ebp]
  0007d	8b 94 88 00 00
	00 00		 mov	 edx, DWORD PTR ?fn_get_local_entity_int_value@@3PAY0BBH@P6GHPAUENTITY@@W4INT_TYPES@@@ZA[eax+ecx*4]
  00084	ff d2		 call	 edx
  00086	89 45 b4	 mov	 DWORD PTR tv82[ebp], eax
  00089	83 7d b4 07	 cmp	 DWORD PTR tv82[ebp], 7
  0008d	74 02		 je	 SHORT $LN4@target_acq
  0008f	eb 05		 jmp	 SHORT $LN1@target_acq
$LN4@target_acq:

; 650  : 	{
; 651  : 		case ENTITY_SUB_TYPE_AIRCRAFT_KA29_HELIX_B:
; 652  : 	
; 653  : 	default_target_acquisition_system_misc_function2 ();

  00091	e8 00 00 00 00	 call	 ?default_target_acquisition_system_misc_function2@@YGXXZ ; default_target_acquisition_system_misc_function2
$LN1@target_acq:

; 654  : 
; 655  : 	break;
; 656  : 	default:
; 657  : 	break;
; 658  : 	}
; 659  : }

  00096	5f		 pop	 edi
  00097	5e		 pop	 esi
  00098	5b		 pop	 ebx
  00099	8b e5		 mov	 esp, ebp
  0009b	5d		 pop	 ebp
  0009c	c2 04 00	 ret	 4
?target_acquisition_system_misc_function2_event@@YGXPAUEVENT@@@Z ENDP ; target_acquisition_system_misc_function2_event
_TEXT	ENDS
; Function compile flags: /Odtp /ZI
; File c:\users\nhv90\projects\eech\aphavoc\source\gunships\avionics\default\df_avevn.c
;	COMDAT ?target_acquisition_system_misc_function1_event@@YGXPAUEVENT@@@Z
_TEXT	SEGMENT
tv82 = -76						; size = 4
tv76 = -72						; size = 4
tv69 = -68						; size = 4
_ev$ = 8						; size = 4
?target_acquisition_system_misc_function1_event@@YGXPAUEVENT@@@Z PROC ; target_acquisition_system_misc_function1_event, COMDAT

; 630  : {

  00000	55		 push	 ebp
  00001	8b ec		 mov	 ebp, esp
  00003	83 ec 4c	 sub	 esp, 76			; 0000004cH
  00006	53		 push	 ebx
  00007	56		 push	 esi
  00008	57		 push	 edi

; 631  : 	switch (get_local_entity_int_value (get_gunship_entity (), INT_TYPE_ENTITY_SUB_TYPE))

  00009	83 3d 00 00 00
	00 00		 cmp	 DWORD PTR ?gunship_entity@@3PAUENTITY@@A, 0 ; gunship_entity
  00010	74 0c		 je	 SHORT $LN7@target_acq
  00012	a1 00 00 00 00	 mov	 eax, DWORD PTR ?gunship_entity@@3PAUENTITY@@A ; gunship_entity
  00017	8b 08		 mov	 ecx, DWORD PTR [eax]
  00019	89 4d bc	 mov	 DWORD PTR tv69[ebp], ecx
  0001c	eb 1d		 jmp	 SHORT $LN8@target_acq
$LN7@target_acq:
  0001e	68 77 02 00 00	 push	 631			; 00000277H
  00023	68 00 00 00 00	 push	 OFFSET ??_C@_0FB@CPPOAHBH@c?3?2users?2nhv90?2projects?2eech?2ap@
  00028	8b 15 00 00 00
	00		 mov	 edx, DWORD PTR ?null_entity_pointer_message@@3PBDB ; null_entity_pointer_message
  0002e	52		 push	 edx
  0002f	e8 00 00 00 00	 call	 ?process_assert@@YGXPBD0H@Z ; process_assert
  00034	c7 45 bc 00 00
	00 00		 mov	 DWORD PTR tv69[ebp], 0
$LN8@target_acq:
  0003b	b8 01 00 00 00	 mov	 eax, 1
  00040	85 c0		 test	 eax, eax
  00042	74 09		 je	 SHORT $LN9@target_acq
  00044	c7 45 b8 34 00
	00 00		 mov	 DWORD PTR tv76[ebp], 52	; 00000034H
  0004b	eb 1d		 jmp	 SHORT $LN10@target_acq
$LN9@target_acq:
  0004d	68 77 02 00 00	 push	 631			; 00000277H
  00052	68 00 00 00 00	 push	 OFFSET ??_C@_0FB@CPPOAHBH@c?3?2users?2nhv90?2projects?2eech?2ap@
  00057	8b 0d 00 00 00
	00		 mov	 ecx, DWORD PTR ?overload_invalid_int_type_message@@3PBDB ; overload_invalid_int_type_message
  0005d	51		 push	 ecx
  0005e	e8 00 00 00 00	 call	 ?process_assert@@YGXPBD0H@Z ; process_assert
  00063	c7 45 b8 00 00
	00 00		 mov	 DWORD PTR tv76[ebp], 0
$LN10@target_acq:
  0006a	6a 34		 push	 52			; 00000034H
  0006c	8b 15 00 00 00
	00		 mov	 edx, DWORD PTR ?gunship_entity@@3PAUENTITY@@A ; gunship_entity
  00072	52		 push	 edx
  00073	69 45 bc 5c 04
	00 00		 imul	 eax, DWORD PTR tv69[ebp], 1116
  0007a	8b 4d b8	 mov	 ecx, DWORD PTR tv76[ebp]
  0007d	8b 94 88 00 00
	00 00		 mov	 edx, DWORD PTR ?fn_get_local_entity_int_value@@3PAY0BBH@P6GHPAUENTITY@@W4INT_TYPES@@@ZA[eax+ecx*4]
  00084	ff d2		 call	 edx
  00086	89 45 b4	 mov	 DWORD PTR tv82[ebp], eax
  00089	83 7d b4 07	 cmp	 DWORD PTR tv82[ebp], 7
  0008d	74 02		 je	 SHORT $LN4@target_acq
  0008f	eb 05		 jmp	 SHORT $LN1@target_acq
$LN4@target_acq:

; 632  : 	{
; 633  : 		case ENTITY_SUB_TYPE_AIRCRAFT_KA29_HELIX_B:
; 634  : 	
; 635  : 	default_target_acquisition_system_misc_function1 ();

  00091	e8 00 00 00 00	 call	 ?default_target_acquisition_system_misc_function1@@YGXXZ ; default_target_acquisition_system_misc_function1
$LN1@target_acq:

; 636  : 
; 637  : 	break;
; 638  : 	default:
; 639  : 	break;
; 640  : 	}
; 641  : }

  00096	5f		 pop	 edi
  00097	5e		 pop	 esi
  00098	5b		 pop	 ebx
  00099	8b e5		 mov	 esp, ebp
  0009b	5d		 pop	 ebp
  0009c	c2 04 00	 ret	 4
?target_acquisition_system_misc_function1_event@@YGXPAUEVENT@@@Z ENDP ; target_acquisition_system_misc_function1_event
_TEXT	ENDS
; Function compile flags: /Odtp /ZI
; File c:\users\nhv90\projects\eech\aphavoc\source\gunships\avionics\default\df_avevn.c
;	COMDAT ?toggle_lock_target_event@@YGXPAUEVENT@@@Z
_TEXT	SEGMENT
_ev$ = 8						; size = 4
?toggle_lock_target_event@@YGXPAUEVENT@@@Z PROC		; toggle_lock_target_event, COMDAT

; 621  : {

  00000	55		 push	 ebp
  00001	8b ec		 mov	 ebp, esp
  00003	83 ec 40	 sub	 esp, 64			; 00000040H
  00006	53		 push	 ebx
  00007	56		 push	 esi
  00008	57		 push	 edi

; 622  : 	toggle_default_lock_target ();

  00009	e8 00 00 00 00	 call	 ?toggle_default_lock_target@@YGXXZ ; toggle_default_lock_target

; 623  : }

  0000e	5f		 pop	 edi
  0000f	5e		 pop	 esi
  00010	5b		 pop	 ebx
  00011	8b e5		 mov	 esp, ebp
  00013	5d		 pop	 ebp
  00014	c2 04 00	 ret	 4
?toggle_lock_target_event@@YGXPAUEVENT@@@Z ENDP		; toggle_lock_target_event
_TEXT	ENDS
; Function compile flags: /Odtp /ZI
; File c:\users\nhv90\projects\eech\aphavoc\source\gunships\avionics\default\df_avevn.c
;	COMDAT ?toggle_auto_target_event@@YGXPAUEVENT@@@Z
_TEXT	SEGMENT
_ev$ = 8						; size = 4
?toggle_auto_target_event@@YGXPAUEVENT@@@Z PROC		; toggle_auto_target_event, COMDAT

; 612  : {

  00000	55		 push	 ebp
  00001	8b ec		 mov	 ebp, esp
  00003	83 ec 40	 sub	 esp, 64			; 00000040H
  00006	53		 push	 ebx
  00007	56		 push	 esi
  00008	57		 push	 edi

; 613  : 	toggle_default_auto_target ();

  00009	e8 00 00 00 00	 call	 ?toggle_default_auto_target@@YGXXZ ; toggle_default_auto_target

; 614  : }

  0000e	5f		 pop	 edi
  0000f	5e		 pop	 esi
  00010	5b		 pop	 ebx
  00011	8b e5		 mov	 esp, ebp
  00013	5d		 pop	 ebp
  00014	c2 04 00	 ret	 4
?toggle_auto_target_event@@YGXPAUEVENT@@@Z ENDP		; toggle_auto_target_event
_TEXT	ENDS
; Function compile flags: /Odtp /ZI
; File c:\users\nhv90\projects\eech\aphavoc\source\gunships\avionics\default\df_avevn.c
;	COMDAT ?select_previous_target_event@@YGXPAUEVENT@@@Z
_TEXT	SEGMENT
_ev$ = 8						; size = 4
?select_previous_target_event@@YGXPAUEVENT@@@Z PROC	; select_previous_target_event, COMDAT

; 567  : {

  00000	55		 push	 ebp
  00001	8b ec		 mov	 ebp, esp
  00003	83 ec 40	 sub	 esp, 64			; 00000040H
  00006	53		 push	 ebx
  00007	56		 push	 esi
  00008	57		 push	 edi

; 568  : 	single_target_acquisition_system_select_previous_target_key++;

  00009	a1 00 00 00 00	 mov	 eax, DWORD PTR ?single_target_acquisition_system_select_previous_target_key@@3HA ; single_target_acquisition_system_select_previous_target_key
  0000e	83 c0 01	 add	 eax, 1
  00011	a3 00 00 00 00	 mov	 DWORD PTR ?single_target_acquisition_system_select_previous_target_key@@3HA, eax ; single_target_acquisition_system_select_previous_target_key

; 569  : }

  00016	5f		 pop	 edi
  00017	5e		 pop	 esi
  00018	5b		 pop	 ebx
  00019	8b e5		 mov	 esp, ebp
  0001b	5d		 pop	 ebp
  0001c	c2 04 00	 ret	 4
?select_previous_target_event@@YGXPAUEVENT@@@Z ENDP	; select_previous_target_event
_TEXT	ENDS
; Function compile flags: /Odtp /ZI
; File c:\users\nhv90\projects\eech\aphavoc\source\gunships\avionics\default\df_avevn.c
;	COMDAT ?select_next_target_event@@YGXPAUEVENT@@@Z
_TEXT	SEGMENT
_ev$ = 8						; size = 4
?select_next_target_event@@YGXPAUEVENT@@@Z PROC		; select_next_target_event, COMDAT

; 558  : {

  00000	55		 push	 ebp
  00001	8b ec		 mov	 ebp, esp
  00003	83 ec 40	 sub	 esp, 64			; 00000040H
  00006	53		 push	 ebx
  00007	56		 push	 esi
  00008	57		 push	 edi

; 559  : 	single_target_acquisition_system_select_next_target_key++;

  00009	a1 00 00 00 00	 mov	 eax, DWORD PTR ?single_target_acquisition_system_select_next_target_key@@3HA ; single_target_acquisition_system_select_next_target_key
  0000e	83 c0 01	 add	 eax, 1
  00011	a3 00 00 00 00	 mov	 DWORD PTR ?single_target_acquisition_system_select_next_target_key@@3HA, eax ; single_target_acquisition_system_select_next_target_key

; 560  : }

  00016	5f		 pop	 edi
  00017	5e		 pop	 esi
  00018	5b		 pop	 ebx
  00019	8b e5		 mov	 esp, ebp
  0001b	5d		 pop	 ebp
  0001c	c2 04 00	 ret	 4
?select_next_target_event@@YGXPAUEVENT@@@Z ENDP		; select_next_target_event
_TEXT	ENDS
; Function compile flags: /Odtp /ZI
; File c:\users\nhv90\projects\eech\aphavoc\source\gunships\avionics\default\df_avevn.c
;	COMDAT ?dec_target_priority_fast_event@@YGXPAUEVENT@@@Z
_TEXT	SEGMENT
tv82 = -76						; size = 4
tv76 = -72						; size = 4
tv69 = -68						; size = 4
_ev$ = 8						; size = 4
?dec_target_priority_fast_event@@YGXPAUEVENT@@@Z PROC	; dec_target_priority_fast_event, COMDAT

; 540  : {

  00000	55		 push	 ebp
  00001	8b ec		 mov	 ebp, esp
  00003	83 ec 4c	 sub	 esp, 76			; 0000004cH
  00006	53		 push	 ebx
  00007	56		 push	 esi
  00008	57		 push	 edi

; 541  : 	switch (get_local_entity_int_value (get_gunship_entity (), INT_TYPE_ENTITY_SUB_TYPE))

  00009	83 3d 00 00 00
	00 00		 cmp	 DWORD PTR ?gunship_entity@@3PAUENTITY@@A, 0 ; gunship_entity
  00010	74 0c		 je	 SHORT $LN7@dec_target
  00012	a1 00 00 00 00	 mov	 eax, DWORD PTR ?gunship_entity@@3PAUENTITY@@A ; gunship_entity
  00017	8b 08		 mov	 ecx, DWORD PTR [eax]
  00019	89 4d bc	 mov	 DWORD PTR tv69[ebp], ecx
  0001c	eb 1d		 jmp	 SHORT $LN8@dec_target
$LN7@dec_target:
  0001e	68 1d 02 00 00	 push	 541			; 0000021dH
  00023	68 00 00 00 00	 push	 OFFSET ??_C@_0FB@CPPOAHBH@c?3?2users?2nhv90?2projects?2eech?2ap@
  00028	8b 15 00 00 00
	00		 mov	 edx, DWORD PTR ?null_entity_pointer_message@@3PBDB ; null_entity_pointer_message
  0002e	52		 push	 edx
  0002f	e8 00 00 00 00	 call	 ?process_assert@@YGXPBD0H@Z ; process_assert
  00034	c7 45 bc 00 00
	00 00		 mov	 DWORD PTR tv69[ebp], 0
$LN8@dec_target:
  0003b	b8 01 00 00 00	 mov	 eax, 1
  00040	85 c0		 test	 eax, eax
  00042	74 09		 je	 SHORT $LN9@dec_target
  00044	c7 45 b8 34 00
	00 00		 mov	 DWORD PTR tv76[ebp], 52	; 00000034H
  0004b	eb 1d		 jmp	 SHORT $LN10@dec_target
$LN9@dec_target:
  0004d	68 1d 02 00 00	 push	 541			; 0000021dH
  00052	68 00 00 00 00	 push	 OFFSET ??_C@_0FB@CPPOAHBH@c?3?2users?2nhv90?2projects?2eech?2ap@
  00057	8b 0d 00 00 00
	00		 mov	 ecx, DWORD PTR ?overload_invalid_int_type_message@@3PBDB ; overload_invalid_int_type_message
  0005d	51		 push	 ecx
  0005e	e8 00 00 00 00	 call	 ?process_assert@@YGXPBD0H@Z ; process_assert
  00063	c7 45 b8 00 00
	00 00		 mov	 DWORD PTR tv76[ebp], 0
$LN10@dec_target:
  0006a	6a 34		 push	 52			; 00000034H
  0006c	8b 15 00 00 00
	00		 mov	 edx, DWORD PTR ?gunship_entity@@3PAUENTITY@@A ; gunship_entity
  00072	52		 push	 edx
  00073	69 45 bc 5c 04
	00 00		 imul	 eax, DWORD PTR tv69[ebp], 1116
  0007a	8b 4d b8	 mov	 ecx, DWORD PTR tv76[ebp]
  0007d	8b 94 88 00 00
	00 00		 mov	 edx, DWORD PTR ?fn_get_local_entity_int_value@@3PAY0BBH@P6GHPAUENTITY@@W4INT_TYPES@@@ZA[eax+ecx*4]
  00084	ff d2		 call	 edx
  00086	89 45 b4	 mov	 DWORD PTR tv82[ebp], eax
  00089	83 7d b4 07	 cmp	 DWORD PTR tv82[ebp], 7
  0008d	74 02		 je	 SHORT $LN4@dec_target
  0008f	eb 0d		 jmp	 SHORT $LN1@dec_target
$LN4@dec_target:

; 542  : 	{
; 543  : 		case ENTITY_SUB_TYPE_AIRCRAFT_KA29_HELIX_B:
; 544  : 	
; 545  : 	single_target_acquisition_system_dec_target_priority_fast_key++;

  00091	a1 00 00 00 00	 mov	 eax, DWORD PTR ?single_target_acquisition_system_dec_target_priority_fast_key@@3HA ; single_target_acquisition_system_dec_target_priority_fast_key
  00096	83 c0 01	 add	 eax, 1
  00099	a3 00 00 00 00	 mov	 DWORD PTR ?single_target_acquisition_system_dec_target_priority_fast_key@@3HA, eax ; single_target_acquisition_system_dec_target_priority_fast_key
$LN1@dec_target:

; 546  : 
; 547  : 	break;
; 548  : 	default:
; 549  : 	break;
; 550  : 	}
; 551  : }

  0009e	5f		 pop	 edi
  0009f	5e		 pop	 esi
  000a0	5b		 pop	 ebx
  000a1	8b e5		 mov	 esp, ebp
  000a3	5d		 pop	 ebp
  000a4	c2 04 00	 ret	 4
?dec_target_priority_fast_event@@YGXPAUEVENT@@@Z ENDP	; dec_target_priority_fast_event
_TEXT	ENDS
; Function compile flags: /Odtp /ZI
; File c:\users\nhv90\projects\eech\aphavoc\source\gunships\avionics\default\df_avevn.c
;	COMDAT ?dec_target_priority_event@@YGXPAUEVENT@@@Z
_TEXT	SEGMENT
tv82 = -76						; size = 4
tv76 = -72						; size = 4
tv69 = -68						; size = 4
_ev$ = 8						; size = 4
?dec_target_priority_event@@YGXPAUEVENT@@@Z PROC	; dec_target_priority_event, COMDAT

; 522  : {

  00000	55		 push	 ebp
  00001	8b ec		 mov	 ebp, esp
  00003	83 ec 4c	 sub	 esp, 76			; 0000004cH
  00006	53		 push	 ebx
  00007	56		 push	 esi
  00008	57		 push	 edi

; 523  : 	switch (get_local_entity_int_value (get_gunship_entity (), INT_TYPE_ENTITY_SUB_TYPE))

  00009	83 3d 00 00 00
	00 00		 cmp	 DWORD PTR ?gunship_entity@@3PAUENTITY@@A, 0 ; gunship_entity
  00010	74 0c		 je	 SHORT $LN7@dec_target
  00012	a1 00 00 00 00	 mov	 eax, DWORD PTR ?gunship_entity@@3PAUENTITY@@A ; gunship_entity
  00017	8b 08		 mov	 ecx, DWORD PTR [eax]
  00019	89 4d bc	 mov	 DWORD PTR tv69[ebp], ecx
  0001c	eb 1d		 jmp	 SHORT $LN8@dec_target
$LN7@dec_target:
  0001e	68 0b 02 00 00	 push	 523			; 0000020bH
  00023	68 00 00 00 00	 push	 OFFSET ??_C@_0FB@CPPOAHBH@c?3?2users?2nhv90?2projects?2eech?2ap@
  00028	8b 15 00 00 00
	00		 mov	 edx, DWORD PTR ?null_entity_pointer_message@@3PBDB ; null_entity_pointer_message
  0002e	52		 push	 edx
  0002f	e8 00 00 00 00	 call	 ?process_assert@@YGXPBD0H@Z ; process_assert
  00034	c7 45 bc 00 00
	00 00		 mov	 DWORD PTR tv69[ebp], 0
$LN8@dec_target:
  0003b	b8 01 00 00 00	 mov	 eax, 1
  00040	85 c0		 test	 eax, eax
  00042	74 09		 je	 SHORT $LN9@dec_target
  00044	c7 45 b8 34 00
	00 00		 mov	 DWORD PTR tv76[ebp], 52	; 00000034H
  0004b	eb 1d		 jmp	 SHORT $LN10@dec_target
$LN9@dec_target:
  0004d	68 0b 02 00 00	 push	 523			; 0000020bH
  00052	68 00 00 00 00	 push	 OFFSET ??_C@_0FB@CPPOAHBH@c?3?2users?2nhv90?2projects?2eech?2ap@
  00057	8b 0d 00 00 00
	00		 mov	 ecx, DWORD PTR ?overload_invalid_int_type_message@@3PBDB ; overload_invalid_int_type_message
  0005d	51		 push	 ecx
  0005e	e8 00 00 00 00	 call	 ?process_assert@@YGXPBD0H@Z ; process_assert
  00063	c7 45 b8 00 00
	00 00		 mov	 DWORD PTR tv76[ebp], 0
$LN10@dec_target:
  0006a	6a 34		 push	 52			; 00000034H
  0006c	8b 15 00 00 00
	00		 mov	 edx, DWORD PTR ?gunship_entity@@3PAUENTITY@@A ; gunship_entity
  00072	52		 push	 edx
  00073	69 45 bc 5c 04
	00 00		 imul	 eax, DWORD PTR tv69[ebp], 1116
  0007a	8b 4d b8	 mov	 ecx, DWORD PTR tv76[ebp]
  0007d	8b 94 88 00 00
	00 00		 mov	 edx, DWORD PTR ?fn_get_local_entity_int_value@@3PAY0BBH@P6GHPAUENTITY@@W4INT_TYPES@@@ZA[eax+ecx*4]
  00084	ff d2		 call	 edx
  00086	89 45 b4	 mov	 DWORD PTR tv82[ebp], eax
  00089	83 7d b4 07	 cmp	 DWORD PTR tv82[ebp], 7
  0008d	74 02		 je	 SHORT $LN4@dec_target
  0008f	eb 0d		 jmp	 SHORT $LN1@dec_target
$LN4@dec_target:

; 524  : 	{
; 525  : 		case ENTITY_SUB_TYPE_AIRCRAFT_KA29_HELIX_B:
; 526  : 	
; 527  : 	single_target_acquisition_system_dec_target_priority_key++;

  00091	a1 00 00 00 00	 mov	 eax, DWORD PTR ?single_target_acquisition_system_dec_target_priority_key@@3HA ; single_target_acquisition_system_dec_target_priority_key
  00096	83 c0 01	 add	 eax, 1
  00099	a3 00 00 00 00	 mov	 DWORD PTR ?single_target_acquisition_system_dec_target_priority_key@@3HA, eax ; single_target_acquisition_system_dec_target_priority_key
$LN1@dec_target:

; 528  : 
; 529  : 	break;
; 530  : 	default:
; 531  : 	break;
; 532  : 	}
; 533  : }

  0009e	5f		 pop	 edi
  0009f	5e		 pop	 esi
  000a0	5b		 pop	 ebx
  000a1	8b e5		 mov	 esp, ebp
  000a3	5d		 pop	 ebp
  000a4	c2 04 00	 ret	 4
?dec_target_priority_event@@YGXPAUEVENT@@@Z ENDP	; dec_target_priority_event
_TEXT	ENDS
; Function compile flags: /Odtp /ZI
; File c:\users\nhv90\projects\eech\aphavoc\source\gunships\avionics\default\df_avevn.c
;	COMDAT ?inc_target_priority_fast_event@@YGXPAUEVENT@@@Z
_TEXT	SEGMENT
tv82 = -76						; size = 4
tv76 = -72						; size = 4
tv69 = -68						; size = 4
_ev$ = 8						; size = 4
?inc_target_priority_fast_event@@YGXPAUEVENT@@@Z PROC	; inc_target_priority_fast_event, COMDAT

; 504  : {

  00000	55		 push	 ebp
  00001	8b ec		 mov	 ebp, esp
  00003	83 ec 4c	 sub	 esp, 76			; 0000004cH
  00006	53		 push	 ebx
  00007	56		 push	 esi
  00008	57		 push	 edi

; 505  : 	switch (get_local_entity_int_value (get_gunship_entity (), INT_TYPE_ENTITY_SUB_TYPE))

  00009	83 3d 00 00 00
	00 00		 cmp	 DWORD PTR ?gunship_entity@@3PAUENTITY@@A, 0 ; gunship_entity
  00010	74 0c		 je	 SHORT $LN7@inc_target
  00012	a1 00 00 00 00	 mov	 eax, DWORD PTR ?gunship_entity@@3PAUENTITY@@A ; gunship_entity
  00017	8b 08		 mov	 ecx, DWORD PTR [eax]
  00019	89 4d bc	 mov	 DWORD PTR tv69[ebp], ecx
  0001c	eb 1d		 jmp	 SHORT $LN8@inc_target
$LN7@inc_target:
  0001e	68 f9 01 00 00	 push	 505			; 000001f9H
  00023	68 00 00 00 00	 push	 OFFSET ??_C@_0FB@CPPOAHBH@c?3?2users?2nhv90?2projects?2eech?2ap@
  00028	8b 15 00 00 00
	00		 mov	 edx, DWORD PTR ?null_entity_pointer_message@@3PBDB ; null_entity_pointer_message
  0002e	52		 push	 edx
  0002f	e8 00 00 00 00	 call	 ?process_assert@@YGXPBD0H@Z ; process_assert
  00034	c7 45 bc 00 00
	00 00		 mov	 DWORD PTR tv69[ebp], 0
$LN8@inc_target:
  0003b	b8 01 00 00 00	 mov	 eax, 1
  00040	85 c0		 test	 eax, eax
  00042	74 09		 je	 SHORT $LN9@inc_target
  00044	c7 45 b8 34 00
	00 00		 mov	 DWORD PTR tv76[ebp], 52	; 00000034H
  0004b	eb 1d		 jmp	 SHORT $LN10@inc_target
$LN9@inc_target:
  0004d	68 f9 01 00 00	 push	 505			; 000001f9H
  00052	68 00 00 00 00	 push	 OFFSET ??_C@_0FB@CPPOAHBH@c?3?2users?2nhv90?2projects?2eech?2ap@
  00057	8b 0d 00 00 00
	00		 mov	 ecx, DWORD PTR ?overload_invalid_int_type_message@@3PBDB ; overload_invalid_int_type_message
  0005d	51		 push	 ecx
  0005e	e8 00 00 00 00	 call	 ?process_assert@@YGXPBD0H@Z ; process_assert
  00063	c7 45 b8 00 00
	00 00		 mov	 DWORD PTR tv76[ebp], 0
$LN10@inc_target:
  0006a	6a 34		 push	 52			; 00000034H
  0006c	8b 15 00 00 00
	00		 mov	 edx, DWORD PTR ?gunship_entity@@3PAUENTITY@@A ; gunship_entity
  00072	52		 push	 edx
  00073	69 45 bc 5c 04
	00 00		 imul	 eax, DWORD PTR tv69[ebp], 1116
  0007a	8b 4d b8	 mov	 ecx, DWORD PTR tv76[ebp]
  0007d	8b 94 88 00 00
	00 00		 mov	 edx, DWORD PTR ?fn_get_local_entity_int_value@@3PAY0BBH@P6GHPAUENTITY@@W4INT_TYPES@@@ZA[eax+ecx*4]
  00084	ff d2		 call	 edx
  00086	89 45 b4	 mov	 DWORD PTR tv82[ebp], eax
  00089	83 7d b4 07	 cmp	 DWORD PTR tv82[ebp], 7
  0008d	74 02		 je	 SHORT $LN4@inc_target
  0008f	eb 0d		 jmp	 SHORT $LN1@inc_target
$LN4@inc_target:

; 506  : 	{
; 507  : 		case ENTITY_SUB_TYPE_AIRCRAFT_KA29_HELIX_B:
; 508  : 	
; 509  : 	single_target_acquisition_system_inc_target_priority_fast_key++;

  00091	a1 00 00 00 00	 mov	 eax, DWORD PTR ?single_target_acquisition_system_inc_target_priority_fast_key@@3HA ; single_target_acquisition_system_inc_target_priority_fast_key
  00096	83 c0 01	 add	 eax, 1
  00099	a3 00 00 00 00	 mov	 DWORD PTR ?single_target_acquisition_system_inc_target_priority_fast_key@@3HA, eax ; single_target_acquisition_system_inc_target_priority_fast_key
$LN1@inc_target:

; 510  : 
; 511  : 	break;
; 512  : 	default:
; 513  : 	break;
; 514  : 	}
; 515  : }

  0009e	5f		 pop	 edi
  0009f	5e		 pop	 esi
  000a0	5b		 pop	 ebx
  000a1	8b e5		 mov	 esp, ebp
  000a3	5d		 pop	 ebp
  000a4	c2 04 00	 ret	 4
?inc_target_priority_fast_event@@YGXPAUEVENT@@@Z ENDP	; inc_target_priority_fast_event
_TEXT	ENDS
; Function compile flags: /Odtp /ZI
; File c:\users\nhv90\projects\eech\aphavoc\source\gunships\avionics\default\df_avevn.c
;	COMDAT ?inc_target_priority_event@@YGXPAUEVENT@@@Z
_TEXT	SEGMENT
tv82 = -76						; size = 4
tv76 = -72						; size = 4
tv69 = -68						; size = 4
_ev$ = 8						; size = 4
?inc_target_priority_event@@YGXPAUEVENT@@@Z PROC	; inc_target_priority_event, COMDAT

; 486  : {

  00000	55		 push	 ebp
  00001	8b ec		 mov	 ebp, esp
  00003	83 ec 4c	 sub	 esp, 76			; 0000004cH
  00006	53		 push	 ebx
  00007	56		 push	 esi
  00008	57		 push	 edi

; 487  : 	switch (get_local_entity_int_value (get_gunship_entity (), INT_TYPE_ENTITY_SUB_TYPE))

  00009	83 3d 00 00 00
	00 00		 cmp	 DWORD PTR ?gunship_entity@@3PAUENTITY@@A, 0 ; gunship_entity
  00010	74 0c		 je	 SHORT $LN7@inc_target
  00012	a1 00 00 00 00	 mov	 eax, DWORD PTR ?gunship_entity@@3PAUENTITY@@A ; gunship_entity
  00017	8b 08		 mov	 ecx, DWORD PTR [eax]
  00019	89 4d bc	 mov	 DWORD PTR tv69[ebp], ecx
  0001c	eb 1d		 jmp	 SHORT $LN8@inc_target
$LN7@inc_target:
  0001e	68 e7 01 00 00	 push	 487			; 000001e7H
  00023	68 00 00 00 00	 push	 OFFSET ??_C@_0FB@CPPOAHBH@c?3?2users?2nhv90?2projects?2eech?2ap@
  00028	8b 15 00 00 00
	00		 mov	 edx, DWORD PTR ?null_entity_pointer_message@@3PBDB ; null_entity_pointer_message
  0002e	52		 push	 edx
  0002f	e8 00 00 00 00	 call	 ?process_assert@@YGXPBD0H@Z ; process_assert
  00034	c7 45 bc 00 00
	00 00		 mov	 DWORD PTR tv69[ebp], 0
$LN8@inc_target:
  0003b	b8 01 00 00 00	 mov	 eax, 1
  00040	85 c0		 test	 eax, eax
  00042	74 09		 je	 SHORT $LN9@inc_target
  00044	c7 45 b8 34 00
	00 00		 mov	 DWORD PTR tv76[ebp], 52	; 00000034H
  0004b	eb 1d		 jmp	 SHORT $LN10@inc_target
$LN9@inc_target:
  0004d	68 e7 01 00 00	 push	 487			; 000001e7H
  00052	68 00 00 00 00	 push	 OFFSET ??_C@_0FB@CPPOAHBH@c?3?2users?2nhv90?2projects?2eech?2ap@
  00057	8b 0d 00 00 00
	00		 mov	 ecx, DWORD PTR ?overload_invalid_int_type_message@@3PBDB ; overload_invalid_int_type_message
  0005d	51		 push	 ecx
  0005e	e8 00 00 00 00	 call	 ?process_assert@@YGXPBD0H@Z ; process_assert
  00063	c7 45 b8 00 00
	00 00		 mov	 DWORD PTR tv76[ebp], 0
$LN10@inc_target:
  0006a	6a 34		 push	 52			; 00000034H
  0006c	8b 15 00 00 00
	00		 mov	 edx, DWORD PTR ?gunship_entity@@3PAUENTITY@@A ; gunship_entity
  00072	52		 push	 edx
  00073	69 45 bc 5c 04
	00 00		 imul	 eax, DWORD PTR tv69[ebp], 1116
  0007a	8b 4d b8	 mov	 ecx, DWORD PTR tv76[ebp]
  0007d	8b 94 88 00 00
	00 00		 mov	 edx, DWORD PTR ?fn_get_local_entity_int_value@@3PAY0BBH@P6GHPAUENTITY@@W4INT_TYPES@@@ZA[eax+ecx*4]
  00084	ff d2		 call	 edx
  00086	89 45 b4	 mov	 DWORD PTR tv82[ebp], eax
  00089	83 7d b4 07	 cmp	 DWORD PTR tv82[ebp], 7
  0008d	74 02		 je	 SHORT $LN4@inc_target
  0008f	eb 0d		 jmp	 SHORT $LN1@inc_target
$LN4@inc_target:

; 488  : 	{
; 489  : 		case ENTITY_SUB_TYPE_AIRCRAFT_KA29_HELIX_B:
; 490  : 	
; 491  : 	single_target_acquisition_system_inc_target_priority_key++;

  00091	a1 00 00 00 00	 mov	 eax, DWORD PTR ?single_target_acquisition_system_inc_target_priority_key@@3HA ; single_target_acquisition_system_inc_target_priority_key
  00096	83 c0 01	 add	 eax, 1
  00099	a3 00 00 00 00	 mov	 DWORD PTR ?single_target_acquisition_system_inc_target_priority_key@@3HA, eax ; single_target_acquisition_system_inc_target_priority_key
$LN1@inc_target:

; 492  : 
; 493  : 	break;
; 494  : 	default:
; 495  : 	break;
; 496  : 	}
; 497  : }

  0009e	5f		 pop	 edi
  0009f	5e		 pop	 esi
  000a0	5b		 pop	 ebx
  000a1	8b e5		 mov	 esp, ebp
  000a3	5d		 pop	 ebp
  000a4	c2 04 00	 ret	 4
?inc_target_priority_event@@YGXPAUEVENT@@@Z ENDP	; inc_target_priority_event
_TEXT	ENDS
; Function compile flags: /Odtp /ZI
; File c:\users\nhv90\projects\eech\aphavoc\source\gunships\avionics\default\df_avevn.c
;	COMDAT ?toggle_show_allied_targets_event@@YGXPAUEVENT@@@Z
_TEXT	SEGMENT
tv82 = -76						; size = 4
tv76 = -72						; size = 4
tv69 = -68						; size = 4
_ev$ = 8						; size = 4
?toggle_show_allied_targets_event@@YGXPAUEVENT@@@Z PROC	; toggle_show_allied_targets_event, COMDAT

; 468  : {

  00000	55		 push	 ebp
  00001	8b ec		 mov	 ebp, esp
  00003	83 ec 4c	 sub	 esp, 76			; 0000004cH
  00006	53		 push	 ebx
  00007	56		 push	 esi
  00008	57		 push	 edi

; 469  : 	switch (get_local_entity_int_value (get_gunship_entity (), INT_TYPE_ENTITY_SUB_TYPE))

  00009	83 3d 00 00 00
	00 00		 cmp	 DWORD PTR ?gunship_entity@@3PAUENTITY@@A, 0 ; gunship_entity
  00010	74 0c		 je	 SHORT $LN7@toggle_sho
  00012	a1 00 00 00 00	 mov	 eax, DWORD PTR ?gunship_entity@@3PAUENTITY@@A ; gunship_entity
  00017	8b 08		 mov	 ecx, DWORD PTR [eax]
  00019	89 4d bc	 mov	 DWORD PTR tv69[ebp], ecx
  0001c	eb 1d		 jmp	 SHORT $LN8@toggle_sho
$LN7@toggle_sho:
  0001e	68 d5 01 00 00	 push	 469			; 000001d5H
  00023	68 00 00 00 00	 push	 OFFSET ??_C@_0FB@CPPOAHBH@c?3?2users?2nhv90?2projects?2eech?2ap@
  00028	8b 15 00 00 00
	00		 mov	 edx, DWORD PTR ?null_entity_pointer_message@@3PBDB ; null_entity_pointer_message
  0002e	52		 push	 edx
  0002f	e8 00 00 00 00	 call	 ?process_assert@@YGXPBD0H@Z ; process_assert
  00034	c7 45 bc 00 00
	00 00		 mov	 DWORD PTR tv69[ebp], 0
$LN8@toggle_sho:
  0003b	b8 01 00 00 00	 mov	 eax, 1
  00040	85 c0		 test	 eax, eax
  00042	74 09		 je	 SHORT $LN9@toggle_sho
  00044	c7 45 b8 34 00
	00 00		 mov	 DWORD PTR tv76[ebp], 52	; 00000034H
  0004b	eb 1d		 jmp	 SHORT $LN10@toggle_sho
$LN9@toggle_sho:
  0004d	68 d5 01 00 00	 push	 469			; 000001d5H
  00052	68 00 00 00 00	 push	 OFFSET ??_C@_0FB@CPPOAHBH@c?3?2users?2nhv90?2projects?2eech?2ap@
  00057	8b 0d 00 00 00
	00		 mov	 ecx, DWORD PTR ?overload_invalid_int_type_message@@3PBDB ; overload_invalid_int_type_message
  0005d	51		 push	 ecx
  0005e	e8 00 00 00 00	 call	 ?process_assert@@YGXPBD0H@Z ; process_assert
  00063	c7 45 b8 00 00
	00 00		 mov	 DWORD PTR tv76[ebp], 0
$LN10@toggle_sho:
  0006a	6a 34		 push	 52			; 00000034H
  0006c	8b 15 00 00 00
	00		 mov	 edx, DWORD PTR ?gunship_entity@@3PAUENTITY@@A ; gunship_entity
  00072	52		 push	 edx
  00073	69 45 bc 5c 04
	00 00		 imul	 eax, DWORD PTR tv69[ebp], 1116
  0007a	8b 4d b8	 mov	 ecx, DWORD PTR tv76[ebp]
  0007d	8b 94 88 00 00
	00 00		 mov	 edx, DWORD PTR ?fn_get_local_entity_int_value@@3PAY0BBH@P6GHPAUENTITY@@W4INT_TYPES@@@ZA[eax+ecx*4]
  00084	ff d2		 call	 edx
  00086	89 45 b4	 mov	 DWORD PTR tv82[ebp], eax
  00089	83 7d b4 07	 cmp	 DWORD PTR tv82[ebp], 7
  0008d	74 02		 je	 SHORT $LN4@toggle_sho
  0008f	eb 05		 jmp	 SHORT $LN1@toggle_sho
$LN4@toggle_sho:

; 470  : 	{
; 471  : 		case ENTITY_SUB_TYPE_AIRCRAFT_KA29_HELIX_B:
; 472  : 	
; 473  : 	toggle_default_show_allied_targets ();

  00091	e8 00 00 00 00	 call	 ?toggle_default_show_allied_targets@@YGXXZ ; toggle_default_show_allied_targets
$LN1@toggle_sho:

; 474  : 
; 475  : 	break;
; 476  : 	default:
; 477  : 	break;
; 478  : 	}
; 479  : }

  00096	5f		 pop	 edi
  00097	5e		 pop	 esi
  00098	5b		 pop	 ebx
  00099	8b e5		 mov	 esp, ebp
  0009b	5d		 pop	 ebp
  0009c	c2 04 00	 ret	 4
?toggle_show_allied_targets_event@@YGXPAUEVENT@@@Z ENDP	; toggle_show_allied_targets_event
_TEXT	ENDS
; Function compile flags: /Odtp /ZI
; File c:\users\nhv90\projects\eech\aphavoc\source\gunships\avionics\default\df_avevn.c
;	COMDAT ?steer_centre_event@@YGXPAUEVENT@@@Z
_TEXT	SEGMENT
_ev$ = 8						; size = 4
?steer_centre_event@@YGXPAUEVENT@@@Z PROC		; steer_centre_event, COMDAT

; 459  : {

  00000	55		 push	 ebp
  00001	8b ec		 mov	 ebp, esp
  00003	83 ec 40	 sub	 esp, 64			; 00000040H
  00006	53		 push	 ebx
  00007	56		 push	 esi
  00008	57		 push	 edi

; 460  : 	centre_default_target_acquisition_system ();

  00009	e8 00 00 00 00	 call	 ?centre_default_target_acquisition_system@@YGXXZ ; centre_default_target_acquisition_system

; 461  : }

  0000e	5f		 pop	 edi
  0000f	5e		 pop	 esi
  00010	5b		 pop	 ebx
  00011	8b e5		 mov	 esp, ebp
  00013	5d		 pop	 ebp
  00014	c2 04 00	 ret	 4
?steer_centre_event@@YGXPAUEVENT@@@Z ENDP		; steer_centre_event
_TEXT	ENDS
; Function compile flags: /Odtp /ZI
; File c:\users\nhv90\projects\eech\aphavoc\source\gunships\avionics\default\df_avevn.c
;	COMDAT ?unzoom_radar@@YGXPAUEVENT@@@Z
_TEXT	SEGMENT
tv82 = -76						; size = 4
tv76 = -72						; size = 4
tv69 = -68						; size = 4
_ev$ = 8						; size = 4
?unzoom_radar@@YGXPAUEVENT@@@Z PROC			; unzoom_radar, COMDAT

; 441  : {

  00000	55		 push	 ebp
  00001	8b ec		 mov	 ebp, esp
  00003	83 ec 4c	 sub	 esp, 76			; 0000004cH
  00006	53		 push	 ebx
  00007	56		 push	 esi
  00008	57		 push	 edi

; 442  : 	switch (get_local_entity_int_value (get_gunship_entity (), INT_TYPE_ENTITY_SUB_TYPE))

  00009	83 3d 00 00 00
	00 00		 cmp	 DWORD PTR ?gunship_entity@@3PAUENTITY@@A, 0 ; gunship_entity
  00010	74 0c		 je	 SHORT $LN7@unzoom_rad
  00012	a1 00 00 00 00	 mov	 eax, DWORD PTR ?gunship_entity@@3PAUENTITY@@A ; gunship_entity
  00017	8b 08		 mov	 ecx, DWORD PTR [eax]
  00019	89 4d bc	 mov	 DWORD PTR tv69[ebp], ecx
  0001c	eb 1d		 jmp	 SHORT $LN8@unzoom_rad
$LN7@unzoom_rad:
  0001e	68 ba 01 00 00	 push	 442			; 000001baH
  00023	68 00 00 00 00	 push	 OFFSET ??_C@_0FB@CPPOAHBH@c?3?2users?2nhv90?2projects?2eech?2ap@
  00028	8b 15 00 00 00
	00		 mov	 edx, DWORD PTR ?null_entity_pointer_message@@3PBDB ; null_entity_pointer_message
  0002e	52		 push	 edx
  0002f	e8 00 00 00 00	 call	 ?process_assert@@YGXPBD0H@Z ; process_assert
  00034	c7 45 bc 00 00
	00 00		 mov	 DWORD PTR tv69[ebp], 0
$LN8@unzoom_rad:
  0003b	b8 01 00 00 00	 mov	 eax, 1
  00040	85 c0		 test	 eax, eax
  00042	74 09		 je	 SHORT $LN9@unzoom_rad
  00044	c7 45 b8 34 00
	00 00		 mov	 DWORD PTR tv76[ebp], 52	; 00000034H
  0004b	eb 1d		 jmp	 SHORT $LN10@unzoom_rad
$LN9@unzoom_rad:
  0004d	68 ba 01 00 00	 push	 442			; 000001baH
  00052	68 00 00 00 00	 push	 OFFSET ??_C@_0FB@CPPOAHBH@c?3?2users?2nhv90?2projects?2eech?2ap@
  00057	8b 0d 00 00 00
	00		 mov	 ecx, DWORD PTR ?overload_invalid_int_type_message@@3PBDB ; overload_invalid_int_type_message
  0005d	51		 push	 ecx
  0005e	e8 00 00 00 00	 call	 ?process_assert@@YGXPBD0H@Z ; process_assert
  00063	c7 45 b8 00 00
	00 00		 mov	 DWORD PTR tv76[ebp], 0
$LN10@unzoom_rad:
  0006a	6a 34		 push	 52			; 00000034H
  0006c	8b 15 00 00 00
	00		 mov	 edx, DWORD PTR ?gunship_entity@@3PAUENTITY@@A ; gunship_entity
  00072	52		 push	 edx
  00073	69 45 bc 5c 04
	00 00		 imul	 eax, DWORD PTR tv69[ebp], 1116
  0007a	8b 4d b8	 mov	 ecx, DWORD PTR tv76[ebp]
  0007d	8b 94 88 00 00
	00 00		 mov	 edx, DWORD PTR ?fn_get_local_entity_int_value@@3PAY0BBH@P6GHPAUENTITY@@W4INT_TYPES@@@ZA[eax+ecx*4]
  00084	ff d2		 call	 edx
  00086	89 45 b4	 mov	 DWORD PTR tv82[ebp], eax
  00089	83 7d b4 07	 cmp	 DWORD PTR tv82[ebp], 7
  0008d	74 02		 je	 SHORT $LN4@unzoom_rad
  0008f	eb 07		 jmp	 SHORT $LN1@unzoom_rad
$LN4@unzoom_rad:

; 443  : 	{
; 444  : 		case ENTITY_SUB_TYPE_AIRCRAFT_KA29_HELIX_B:
; 445  : 
; 446  : 	set_default_radar_zoomed(FALSE);

  00091	6a 00		 push	 0
  00093	e8 00 00 00 00	 call	 ?set_default_radar_zoomed@@YGXH@Z ; set_default_radar_zoomed
$LN1@unzoom_rad:

; 447  : 
; 448  : 	break;
; 449  : 	default:
; 450  : 	break;
; 451  : 	}
; 452  : }

  00098	5f		 pop	 edi
  00099	5e		 pop	 esi
  0009a	5b		 pop	 ebx
  0009b	8b e5		 mov	 esp, ebp
  0009d	5d		 pop	 ebp
  0009e	c2 04 00	 ret	 4
?unzoom_radar@@YGXPAUEVENT@@@Z ENDP			; unzoom_radar
_TEXT	ENDS
; Function compile flags: /Odtp /ZI
; File c:\users\nhv90\projects\eech\aphavoc\source\gunships\avionics\default\df_avevn.c
;	COMDAT ?zoom_radar@@YGXPAUEVENT@@@Z
_TEXT	SEGMENT
tv82 = -76						; size = 4
tv76 = -72						; size = 4
tv69 = -68						; size = 4
_ev$ = 8						; size = 4
?zoom_radar@@YGXPAUEVENT@@@Z PROC			; zoom_radar, COMDAT

; 427  : {

  00000	55		 push	 ebp
  00001	8b ec		 mov	 ebp, esp
  00003	83 ec 4c	 sub	 esp, 76			; 0000004cH
  00006	53		 push	 ebx
  00007	56		 push	 esi
  00008	57		 push	 edi

; 428  : 	switch (get_local_entity_int_value (get_gunship_entity (), INT_TYPE_ENTITY_SUB_TYPE))

  00009	83 3d 00 00 00
	00 00		 cmp	 DWORD PTR ?gunship_entity@@3PAUENTITY@@A, 0 ; gunship_entity
  00010	74 0c		 je	 SHORT $LN7@zoom_radar
  00012	a1 00 00 00 00	 mov	 eax, DWORD PTR ?gunship_entity@@3PAUENTITY@@A ; gunship_entity
  00017	8b 08		 mov	 ecx, DWORD PTR [eax]
  00019	89 4d bc	 mov	 DWORD PTR tv69[ebp], ecx
  0001c	eb 1d		 jmp	 SHORT $LN8@zoom_radar
$LN7@zoom_radar:
  0001e	68 ac 01 00 00	 push	 428			; 000001acH
  00023	68 00 00 00 00	 push	 OFFSET ??_C@_0FB@CPPOAHBH@c?3?2users?2nhv90?2projects?2eech?2ap@
  00028	8b 15 00 00 00
	00		 mov	 edx, DWORD PTR ?null_entity_pointer_message@@3PBDB ; null_entity_pointer_message
  0002e	52		 push	 edx
  0002f	e8 00 00 00 00	 call	 ?process_assert@@YGXPBD0H@Z ; process_assert
  00034	c7 45 bc 00 00
	00 00		 mov	 DWORD PTR tv69[ebp], 0
$LN8@zoom_radar:
  0003b	b8 01 00 00 00	 mov	 eax, 1
  00040	85 c0		 test	 eax, eax
  00042	74 09		 je	 SHORT $LN9@zoom_radar
  00044	c7 45 b8 34 00
	00 00		 mov	 DWORD PTR tv76[ebp], 52	; 00000034H
  0004b	eb 1d		 jmp	 SHORT $LN10@zoom_radar
$LN9@zoom_radar:
  0004d	68 ac 01 00 00	 push	 428			; 000001acH
  00052	68 00 00 00 00	 push	 OFFSET ??_C@_0FB@CPPOAHBH@c?3?2users?2nhv90?2projects?2eech?2ap@
  00057	8b 0d 00 00 00
	00		 mov	 ecx, DWORD PTR ?overload_invalid_int_type_message@@3PBDB ; overload_invalid_int_type_message
  0005d	51		 push	 ecx
  0005e	e8 00 00 00 00	 call	 ?process_assert@@YGXPBD0H@Z ; process_assert
  00063	c7 45 b8 00 00
	00 00		 mov	 DWORD PTR tv76[ebp], 0
$LN10@zoom_radar:
  0006a	6a 34		 push	 52			; 00000034H
  0006c	8b 15 00 00 00
	00		 mov	 edx, DWORD PTR ?gunship_entity@@3PAUENTITY@@A ; gunship_entity
  00072	52		 push	 edx
  00073	69 45 bc 5c 04
	00 00		 imul	 eax, DWORD PTR tv69[ebp], 1116
  0007a	8b 4d b8	 mov	 ecx, DWORD PTR tv76[ebp]
  0007d	8b 94 88 00 00
	00 00		 mov	 edx, DWORD PTR ?fn_get_local_entity_int_value@@3PAY0BBH@P6GHPAUENTITY@@W4INT_TYPES@@@ZA[eax+ecx*4]
  00084	ff d2		 call	 edx
  00086	89 45 b4	 mov	 DWORD PTR tv82[ebp], eax
  00089	83 7d b4 07	 cmp	 DWORD PTR tv82[ebp], 7
  0008d	74 02		 je	 SHORT $LN4@zoom_radar
  0008f	eb 07		 jmp	 SHORT $LN1@zoom_radar
$LN4@zoom_radar:

; 429  : 	{
; 430  : 		case ENTITY_SUB_TYPE_AIRCRAFT_KA29_HELIX_B:
; 431  : 	
; 432  : 	set_default_radar_zoomed(TRUE);	

  00091	6a 01		 push	 1
  00093	e8 00 00 00 00	 call	 ?set_default_radar_zoomed@@YGXH@Z ; set_default_radar_zoomed
$LN1@zoom_radar:

; 433  : 	
; 434  : 	break;
; 435  : 	default:
; 436  : 	break;
; 437  : 	}
; 438  : }

  00098	5f		 pop	 edi
  00099	5e		 pop	 esi
  0009a	5b		 pop	 ebx
  0009b	8b e5		 mov	 esp, ebp
  0009d	5d		 pop	 ebp
  0009e	c2 04 00	 ret	 4
?zoom_radar@@YGXPAUEVENT@@@Z ENDP			; zoom_radar
_TEXT	ENDS
; Function compile flags: /Odtp /ZI
; File c:\users\nhv90\projects\eech\aphavoc\source\gunships\avionics\default\df_avevn.c
;	COMDAT ?toggle_eo_system_event@@YGXPAUEVENT@@@Z
_TEXT	SEGMENT
_ev$ = 8						; size = 4
?toggle_eo_system_event@@YGXPAUEVENT@@@Z PROC		; toggle_eo_system_event, COMDAT

; 418  : {

  00000	55		 push	 ebp
  00001	8b ec		 mov	 ebp, esp
  00003	83 ec 40	 sub	 esp, 64			; 00000040H
  00006	53		 push	 ebx
  00007	56		 push	 esi
  00008	57		 push	 edi

; 419  : 	toggle_default_eo_system();

  00009	e8 00 00 00 00	 call	 ?toggle_default_eo_system@@YGXXZ ; toggle_default_eo_system

; 420  : }

  0000e	5f		 pop	 edi
  0000f	5e		 pop	 esi
  00010	5b		 pop	 ebx
  00011	8b e5		 mov	 esp, ebp
  00013	5d		 pop	 ebp
  00014	c2 04 00	 ret	 4
?toggle_eo_system_event@@YGXPAUEVENT@@@Z ENDP		; toggle_eo_system_event
_TEXT	ENDS
; Function compile flags: /Odtp /ZI
; File c:\users\nhv90\projects\eech\aphavoc\source\gunships\avionics\default\df_avevn.c
;	COMDAT ?dec_eo_zoom_event@@YGXPAUEVENT@@@Z
_TEXT	SEGMENT
_ev$ = 8						; size = 4
?dec_eo_zoom_event@@YGXPAUEVENT@@@Z PROC		; dec_eo_zoom_event, COMDAT

; 409  : {

  00000	55		 push	 ebp
  00001	8b ec		 mov	 ebp, esp
  00003	83 ec 40	 sub	 esp, 64			; 00000040H
  00006	53		 push	 ebx
  00007	56		 push	 esi
  00008	57		 push	 edi

; 410  : 	dec_default_eo_zoom();

  00009	e8 00 00 00 00	 call	 ?dec_default_eo_zoom@@YGXXZ ; dec_default_eo_zoom

; 411  : }

  0000e	5f		 pop	 edi
  0000f	5e		 pop	 esi
  00010	5b		 pop	 ebx
  00011	8b e5		 mov	 esp, ebp
  00013	5d		 pop	 ebp
  00014	c2 04 00	 ret	 4
?dec_eo_zoom_event@@YGXPAUEVENT@@@Z ENDP		; dec_eo_zoom_event
_TEXT	ENDS
; Function compile flags: /Odtp /ZI
; File c:\users\nhv90\projects\eech\aphavoc\source\gunships\avionics\default\df_avevn.c
;	COMDAT ?inc_eo_zoom_event@@YGXPAUEVENT@@@Z
_TEXT	SEGMENT
_ev$ = 8						; size = 4
?inc_eo_zoom_event@@YGXPAUEVENT@@@Z PROC		; inc_eo_zoom_event, COMDAT

; 404  : {

  00000	55		 push	 ebp
  00001	8b ec		 mov	 ebp, esp
  00003	83 ec 40	 sub	 esp, 64			; 00000040H
  00006	53		 push	 ebx
  00007	56		 push	 esi
  00008	57		 push	 edi

; 405  : 	inc_default_eo_zoom();

  00009	e8 00 00 00 00	 call	 ?inc_default_eo_zoom@@YGXXZ ; inc_default_eo_zoom

; 406  : }

  0000e	5f		 pop	 edi
  0000f	5e		 pop	 esi
  00010	5b		 pop	 ebx
  00011	8b e5		 mov	 esp, ebp
  00013	5d		 pop	 ebp
  00014	c2 04 00	 ret	 4
?inc_eo_zoom_event@@YGXPAUEVENT@@@Z ENDP		; inc_eo_zoom_event
_TEXT	ENDS
; Function compile flags: /Odtp /ZI
; File c:\users\nhv90\projects\eech\aphavoc\source\gunships\avionics\default\df_avevn.c
;	COMDAT ?dec_range_event@@YGXPAUEVENT@@@Z
_TEXT	SEGMENT
_ev$ = 8						; size = 4
?dec_range_event@@YGXPAUEVENT@@@Z PROC			; dec_range_event, COMDAT

; 395  : {

  00000	55		 push	 ebp
  00001	8b ec		 mov	 ebp, esp
  00003	83 ec 40	 sub	 esp, 64			; 00000040H
  00006	53		 push	 ebx
  00007	56		 push	 esi
  00008	57		 push	 edi

; 396  : 	single_target_acquisition_system_dec_range_key++;

  00009	a1 00 00 00 00	 mov	 eax, DWORD PTR ?single_target_acquisition_system_dec_range_key@@3HA ; single_target_acquisition_system_dec_range_key
  0000e	83 c0 01	 add	 eax, 1
  00011	a3 00 00 00 00	 mov	 DWORD PTR ?single_target_acquisition_system_dec_range_key@@3HA, eax ; single_target_acquisition_system_dec_range_key

; 397  : }

  00016	5f		 pop	 edi
  00017	5e		 pop	 esi
  00018	5b		 pop	 ebx
  00019	8b e5		 mov	 esp, ebp
  0001b	5d		 pop	 ebp
  0001c	c2 04 00	 ret	 4
?dec_range_event@@YGXPAUEVENT@@@Z ENDP			; dec_range_event
_TEXT	ENDS
; Function compile flags: /Odtp /ZI
; File c:\users\nhv90\projects\eech\aphavoc\source\gunships\avionics\default\df_avevn.c
;	COMDAT ?inc_range_event@@YGXPAUEVENT@@@Z
_TEXT	SEGMENT
_ev$ = 8						; size = 4
?inc_range_event@@YGXPAUEVENT@@@Z PROC			; inc_range_event, COMDAT

; 382  : {

  00000	55		 push	 ebp
  00001	8b ec		 mov	 ebp, esp
  00003	83 ec 40	 sub	 esp, 64			; 00000040H
  00006	53		 push	 ebx
  00007	56		 push	 esi
  00008	57		 push	 edi

; 383  : 	single_target_acquisition_system_inc_range_key++;

  00009	a1 00 00 00 00	 mov	 eax, DWORD PTR ?single_target_acquisition_system_inc_range_key@@3HA ; single_target_acquisition_system_inc_range_key
  0000e	83 c0 01	 add	 eax, 1
  00011	a3 00 00 00 00	 mov	 DWORD PTR ?single_target_acquisition_system_inc_range_key@@3HA, eax ; single_target_acquisition_system_inc_range_key

; 384  : }

  00016	5f		 pop	 edi
  00017	5e		 pop	 esi
  00018	5b		 pop	 ebx
  00019	8b e5		 mov	 esp, ebp
  0001b	5d		 pop	 ebp
  0001c	c2 04 00	 ret	 4
?inc_range_event@@YGXPAUEVENT@@@Z ENDP			; inc_range_event
_TEXT	ENDS
; Function compile flags: /Odtp /ZI
; File c:\users\nhv90\projects\eech\aphavoc\source\gunships\avionics\default\df_avevn.c
;	COMDAT ?steer_down_fine_event@@YGXPAUEVENT@@@Z
_TEXT	SEGMENT
_ev$ = 8						; size = 4
?steer_down_fine_event@@YGXPAUEVENT@@@Z PROC		; steer_down_fine_event, COMDAT

; 366  : {

  00000	55		 push	 ebp
  00001	8b ec		 mov	 ebp, esp
  00003	83 ec 40	 sub	 esp, 64			; 00000040H
  00006	53		 push	 ebx
  00007	56		 push	 esi
  00008	57		 push	 edi

; 367  : 	if (ev->state == KEY_STATE_DOWN)

  00009	8b 45 08	 mov	 eax, DWORD PTR _ev$[ebp]
  0000c	0f b7 48 08	 movzx	 ecx, WORD PTR [eax+8]
  00010	83 f9 02	 cmp	 ecx, 2
  00013	75 0c		 jne	 SHORT $LN2@steer_down

; 368  : 	{
; 369  : 		continuous_target_acquisition_system_steer_down_fine_key = TRUE;

  00015	c7 05 00 00 00
	00 01 00 00 00	 mov	 DWORD PTR ?continuous_target_acquisition_system_steer_down_fine_key@@3HA, 1 ; continuous_target_acquisition_system_steer_down_fine_key

; 370  : 	}
; 371  : 	else

  0001f	eb 0a		 jmp	 SHORT $LN1@steer_down
$LN2@steer_down:

; 372  : 	{
; 373  : 		continuous_target_acquisition_system_steer_down_fine_key = FALSE;

  00021	c7 05 00 00 00
	00 00 00 00 00	 mov	 DWORD PTR ?continuous_target_acquisition_system_steer_down_fine_key@@3HA, 0 ; continuous_target_acquisition_system_steer_down_fine_key
$LN1@steer_down:

; 374  : 	}
; 375  : }

  0002b	5f		 pop	 edi
  0002c	5e		 pop	 esi
  0002d	5b		 pop	 ebx
  0002e	8b e5		 mov	 esp, ebp
  00030	5d		 pop	 ebp
  00031	c2 04 00	 ret	 4
?steer_down_fine_event@@YGXPAUEVENT@@@Z ENDP		; steer_down_fine_event
_TEXT	ENDS
; Function compile flags: /Odtp /ZI
; File c:\users\nhv90\projects\eech\aphavoc\source\gunships\avionics\default\df_avevn.c
;	COMDAT ?steer_down_fast_event@@YGXPAUEVENT@@@Z
_TEXT	SEGMENT
_ev$ = 8						; size = 4
?steer_down_fast_event@@YGXPAUEVENT@@@Z PROC		; steer_down_fast_event, COMDAT

; 348  : {

  00000	55		 push	 ebp
  00001	8b ec		 mov	 ebp, esp
  00003	83 ec 40	 sub	 esp, 64			; 00000040H
  00006	53		 push	 ebx
  00007	56		 push	 esi
  00008	57		 push	 edi

; 349  : 	if (ev->state == KEY_STATE_DOWN)

  00009	8b 45 08	 mov	 eax, DWORD PTR _ev$[ebp]
  0000c	0f b7 48 08	 movzx	 ecx, WORD PTR [eax+8]
  00010	83 f9 02	 cmp	 ecx, 2
  00013	75 19		 jne	 SHORT $LN2@steer_down

; 350  : 	{
; 351  : 		continuous_target_acquisition_system_steer_down_fast_key = TRUE;

  00015	c7 05 00 00 00
	00 01 00 00 00	 mov	 DWORD PTR ?continuous_target_acquisition_system_steer_down_fast_key@@3HA, 1 ; continuous_target_acquisition_system_steer_down_fast_key

; 352  : 
; 353  : 		single_target_acquisition_system_steer_down_fast_key++;

  0001f	a1 00 00 00 00	 mov	 eax, DWORD PTR ?single_target_acquisition_system_steer_down_fast_key@@3HA ; single_target_acquisition_system_steer_down_fast_key
  00024	83 c0 01	 add	 eax, 1
  00027	a3 00 00 00 00	 mov	 DWORD PTR ?single_target_acquisition_system_steer_down_fast_key@@3HA, eax ; single_target_acquisition_system_steer_down_fast_key

; 354  : 	}
; 355  : 	else

  0002c	eb 0a		 jmp	 SHORT $LN1@steer_down
$LN2@steer_down:

; 356  : 	{
; 357  : 		continuous_target_acquisition_system_steer_down_fast_key = FALSE;

  0002e	c7 05 00 00 00
	00 00 00 00 00	 mov	 DWORD PTR ?continuous_target_acquisition_system_steer_down_fast_key@@3HA, 0 ; continuous_target_acquisition_system_steer_down_fast_key
$LN1@steer_down:

; 358  : 	}
; 359  : }

  00038	5f		 pop	 edi
  00039	5e		 pop	 esi
  0003a	5b		 pop	 ebx
  0003b	8b e5		 mov	 esp, ebp
  0003d	5d		 pop	 ebp
  0003e	c2 04 00	 ret	 4
?steer_down_fast_event@@YGXPAUEVENT@@@Z ENDP		; steer_down_fast_event
_TEXT	ENDS
; Function compile flags: /Odtp /ZI
; File c:\users\nhv90\projects\eech\aphavoc\source\gunships\avionics\default\df_avevn.c
;	COMDAT ?steer_down_event@@YGXPAUEVENT@@@Z
_TEXT	SEGMENT
_ev$ = 8						; size = 4
?steer_down_event@@YGXPAUEVENT@@@Z PROC			; steer_down_event, COMDAT

; 330  : {

  00000	55		 push	 ebp
  00001	8b ec		 mov	 ebp, esp
  00003	83 ec 40	 sub	 esp, 64			; 00000040H
  00006	53		 push	 ebx
  00007	56		 push	 esi
  00008	57		 push	 edi

; 331  : 	if (ev->state == KEY_STATE_DOWN)

  00009	8b 45 08	 mov	 eax, DWORD PTR _ev$[ebp]
  0000c	0f b7 48 08	 movzx	 ecx, WORD PTR [eax+8]
  00010	83 f9 02	 cmp	 ecx, 2
  00013	75 19		 jne	 SHORT $LN2@steer_down

; 332  : 	{
; 333  : 		continuous_target_acquisition_system_steer_down_key = TRUE;

  00015	c7 05 00 00 00
	00 01 00 00 00	 mov	 DWORD PTR ?continuous_target_acquisition_system_steer_down_key@@3HA, 1 ; continuous_target_acquisition_system_steer_down_key

; 334  : 
; 335  : 		single_target_acquisition_system_steer_down_key++;

  0001f	a1 00 00 00 00	 mov	 eax, DWORD PTR ?single_target_acquisition_system_steer_down_key@@3HA ; single_target_acquisition_system_steer_down_key
  00024	83 c0 01	 add	 eax, 1
  00027	a3 00 00 00 00	 mov	 DWORD PTR ?single_target_acquisition_system_steer_down_key@@3HA, eax ; single_target_acquisition_system_steer_down_key

; 336  : 	}
; 337  : 	else

  0002c	eb 0a		 jmp	 SHORT $LN1@steer_down
$LN2@steer_down:

; 338  : 	{
; 339  : 		continuous_target_acquisition_system_steer_down_key = FALSE;

  0002e	c7 05 00 00 00
	00 00 00 00 00	 mov	 DWORD PTR ?continuous_target_acquisition_system_steer_down_key@@3HA, 0 ; continuous_target_acquisition_system_steer_down_key
$LN1@steer_down:

; 340  : 	}
; 341  : }

  00038	5f		 pop	 edi
  00039	5e		 pop	 esi
  0003a	5b		 pop	 ebx
  0003b	8b e5		 mov	 esp, ebp
  0003d	5d		 pop	 ebp
  0003e	c2 04 00	 ret	 4
?steer_down_event@@YGXPAUEVENT@@@Z ENDP			; steer_down_event
_TEXT	ENDS
; Function compile flags: /Odtp /ZI
; File c:\users\nhv90\projects\eech\aphavoc\source\gunships\avionics\default\df_avevn.c
;	COMDAT ?steer_up_fine_event@@YGXPAUEVENT@@@Z
_TEXT	SEGMENT
_ev$ = 8						; size = 4
?steer_up_fine_event@@YGXPAUEVENT@@@Z PROC		; steer_up_fine_event, COMDAT

; 314  : {

  00000	55		 push	 ebp
  00001	8b ec		 mov	 ebp, esp
  00003	83 ec 40	 sub	 esp, 64			; 00000040H
  00006	53		 push	 ebx
  00007	56		 push	 esi
  00008	57		 push	 edi

; 315  : 	if (ev->state == KEY_STATE_DOWN)

  00009	8b 45 08	 mov	 eax, DWORD PTR _ev$[ebp]
  0000c	0f b7 48 08	 movzx	 ecx, WORD PTR [eax+8]
  00010	83 f9 02	 cmp	 ecx, 2
  00013	75 0c		 jne	 SHORT $LN2@steer_up_f

; 316  : 	{
; 317  : 		continuous_target_acquisition_system_steer_up_fine_key = TRUE;

  00015	c7 05 00 00 00
	00 01 00 00 00	 mov	 DWORD PTR ?continuous_target_acquisition_system_steer_up_fine_key@@3HA, 1 ; continuous_target_acquisition_system_steer_up_fine_key

; 318  : 	}
; 319  : 	else

  0001f	eb 0a		 jmp	 SHORT $LN1@steer_up_f
$LN2@steer_up_f:

; 320  : 	{
; 321  : 		continuous_target_acquisition_system_steer_up_fine_key = FALSE;

  00021	c7 05 00 00 00
	00 00 00 00 00	 mov	 DWORD PTR ?continuous_target_acquisition_system_steer_up_fine_key@@3HA, 0 ; continuous_target_acquisition_system_steer_up_fine_key
$LN1@steer_up_f:

; 322  : 	}
; 323  : }

  0002b	5f		 pop	 edi
  0002c	5e		 pop	 esi
  0002d	5b		 pop	 ebx
  0002e	8b e5		 mov	 esp, ebp
  00030	5d		 pop	 ebp
  00031	c2 04 00	 ret	 4
?steer_up_fine_event@@YGXPAUEVENT@@@Z ENDP		; steer_up_fine_event
_TEXT	ENDS
; Function compile flags: /Odtp /ZI
; File c:\users\nhv90\projects\eech\aphavoc\source\gunships\avionics\default\df_avevn.c
;	COMDAT ?steer_up_fast_event@@YGXPAUEVENT@@@Z
_TEXT	SEGMENT
_ev$ = 8						; size = 4
?steer_up_fast_event@@YGXPAUEVENT@@@Z PROC		; steer_up_fast_event, COMDAT

; 296  : {

  00000	55		 push	 ebp
  00001	8b ec		 mov	 ebp, esp
  00003	83 ec 40	 sub	 esp, 64			; 00000040H
  00006	53		 push	 ebx
  00007	56		 push	 esi
  00008	57		 push	 edi

; 297  : 	if (ev->state == KEY_STATE_DOWN)

  00009	8b 45 08	 mov	 eax, DWORD PTR _ev$[ebp]
  0000c	0f b7 48 08	 movzx	 ecx, WORD PTR [eax+8]
  00010	83 f9 02	 cmp	 ecx, 2
  00013	75 19		 jne	 SHORT $LN2@steer_up_f

; 298  : 	{
; 299  : 		continuous_target_acquisition_system_steer_up_fast_key = TRUE;

  00015	c7 05 00 00 00
	00 01 00 00 00	 mov	 DWORD PTR ?continuous_target_acquisition_system_steer_up_fast_key@@3HA, 1 ; continuous_target_acquisition_system_steer_up_fast_key

; 300  : 
; 301  : 		single_target_acquisition_system_steer_up_fast_key++;

  0001f	a1 00 00 00 00	 mov	 eax, DWORD PTR ?single_target_acquisition_system_steer_up_fast_key@@3HA ; single_target_acquisition_system_steer_up_fast_key
  00024	83 c0 01	 add	 eax, 1
  00027	a3 00 00 00 00	 mov	 DWORD PTR ?single_target_acquisition_system_steer_up_fast_key@@3HA, eax ; single_target_acquisition_system_steer_up_fast_key

; 302  : 	}
; 303  : 	else

  0002c	eb 0a		 jmp	 SHORT $LN1@steer_up_f
$LN2@steer_up_f:

; 304  : 	{
; 305  : 		continuous_target_acquisition_system_steer_up_fast_key = FALSE;

  0002e	c7 05 00 00 00
	00 00 00 00 00	 mov	 DWORD PTR ?continuous_target_acquisition_system_steer_up_fast_key@@3HA, 0 ; continuous_target_acquisition_system_steer_up_fast_key
$LN1@steer_up_f:

; 306  : 	}
; 307  : }

  00038	5f		 pop	 edi
  00039	5e		 pop	 esi
  0003a	5b		 pop	 ebx
  0003b	8b e5		 mov	 esp, ebp
  0003d	5d		 pop	 ebp
  0003e	c2 04 00	 ret	 4
?steer_up_fast_event@@YGXPAUEVENT@@@Z ENDP		; steer_up_fast_event
_TEXT	ENDS
; Function compile flags: /Odtp /ZI
; File c:\users\nhv90\projects\eech\aphavoc\source\gunships\avionics\default\df_avevn.c
;	COMDAT ?steer_up_event@@YGXPAUEVENT@@@Z
_TEXT	SEGMENT
_ev$ = 8						; size = 4
?steer_up_event@@YGXPAUEVENT@@@Z PROC			; steer_up_event, COMDAT

; 278  : {

  00000	55		 push	 ebp
  00001	8b ec		 mov	 ebp, esp
  00003	83 ec 40	 sub	 esp, 64			; 00000040H
  00006	53		 push	 ebx
  00007	56		 push	 esi
  00008	57		 push	 edi

; 279  : 	if (ev->state == KEY_STATE_DOWN)

  00009	8b 45 08	 mov	 eax, DWORD PTR _ev$[ebp]
  0000c	0f b7 48 08	 movzx	 ecx, WORD PTR [eax+8]
  00010	83 f9 02	 cmp	 ecx, 2
  00013	75 19		 jne	 SHORT $LN2@steer_up_e

; 280  : 	{
; 281  : 		continuous_target_acquisition_system_steer_up_key = TRUE;

  00015	c7 05 00 00 00
	00 01 00 00 00	 mov	 DWORD PTR ?continuous_target_acquisition_system_steer_up_key@@3HA, 1 ; continuous_target_acquisition_system_steer_up_key

; 282  : 
; 283  : 		single_target_acquisition_system_steer_up_key++;

  0001f	a1 00 00 00 00	 mov	 eax, DWORD PTR ?single_target_acquisition_system_steer_up_key@@3HA ; single_target_acquisition_system_steer_up_key
  00024	83 c0 01	 add	 eax, 1
  00027	a3 00 00 00 00	 mov	 DWORD PTR ?single_target_acquisition_system_steer_up_key@@3HA, eax ; single_target_acquisition_system_steer_up_key

; 284  : 	}
; 285  : 	else

  0002c	eb 0a		 jmp	 SHORT $LN1@steer_up_e
$LN2@steer_up_e:

; 286  : 	{
; 287  : 		continuous_target_acquisition_system_steer_up_key = FALSE;

  0002e	c7 05 00 00 00
	00 00 00 00 00	 mov	 DWORD PTR ?continuous_target_acquisition_system_steer_up_key@@3HA, 0 ; continuous_target_acquisition_system_steer_up_key
$LN1@steer_up_e:

; 288  : 	}
; 289  : }

  00038	5f		 pop	 edi
  00039	5e		 pop	 esi
  0003a	5b		 pop	 ebx
  0003b	8b e5		 mov	 esp, ebp
  0003d	5d		 pop	 ebp
  0003e	c2 04 00	 ret	 4
?steer_up_event@@YGXPAUEVENT@@@Z ENDP			; steer_up_event
_TEXT	ENDS
; Function compile flags: /Odtp /ZI
; File c:\users\nhv90\projects\eech\aphavoc\source\gunships\avionics\default\df_avevn.c
;	COMDAT ?steer_right_fine_event@@YGXPAUEVENT@@@Z
_TEXT	SEGMENT
_ev$ = 8						; size = 4
?steer_right_fine_event@@YGXPAUEVENT@@@Z PROC		; steer_right_fine_event, COMDAT

; 262  : {

  00000	55		 push	 ebp
  00001	8b ec		 mov	 ebp, esp
  00003	83 ec 40	 sub	 esp, 64			; 00000040H
  00006	53		 push	 ebx
  00007	56		 push	 esi
  00008	57		 push	 edi

; 263  : 	if (ev->state == KEY_STATE_DOWN)

  00009	8b 45 08	 mov	 eax, DWORD PTR _ev$[ebp]
  0000c	0f b7 48 08	 movzx	 ecx, WORD PTR [eax+8]
  00010	83 f9 02	 cmp	 ecx, 2
  00013	75 0c		 jne	 SHORT $LN2@steer_righ

; 264  : 	{
; 265  : 		continuous_target_acquisition_system_steer_right_fine_key = TRUE;

  00015	c7 05 00 00 00
	00 01 00 00 00	 mov	 DWORD PTR ?continuous_target_acquisition_system_steer_right_fine_key@@3HA, 1 ; continuous_target_acquisition_system_steer_right_fine_key

; 266  : 	}
; 267  : 	else

  0001f	eb 0a		 jmp	 SHORT $LN1@steer_righ
$LN2@steer_righ:

; 268  : 	{
; 269  : 		continuous_target_acquisition_system_steer_right_fine_key = FALSE;

  00021	c7 05 00 00 00
	00 00 00 00 00	 mov	 DWORD PTR ?continuous_target_acquisition_system_steer_right_fine_key@@3HA, 0 ; continuous_target_acquisition_system_steer_right_fine_key
$LN1@steer_righ:

; 270  : 	}
; 271  : }

  0002b	5f		 pop	 edi
  0002c	5e		 pop	 esi
  0002d	5b		 pop	 ebx
  0002e	8b e5		 mov	 esp, ebp
  00030	5d		 pop	 ebp
  00031	c2 04 00	 ret	 4
?steer_right_fine_event@@YGXPAUEVENT@@@Z ENDP		; steer_right_fine_event
_TEXT	ENDS
; Function compile flags: /Odtp /ZI
; File c:\users\nhv90\projects\eech\aphavoc\source\gunships\avionics\default\df_avevn.c
;	COMDAT ?steer_right_fast_event@@YGXPAUEVENT@@@Z
_TEXT	SEGMENT
_ev$ = 8						; size = 4
?steer_right_fast_event@@YGXPAUEVENT@@@Z PROC		; steer_right_fast_event, COMDAT

; 244  : {

  00000	55		 push	 ebp
  00001	8b ec		 mov	 ebp, esp
  00003	83 ec 40	 sub	 esp, 64			; 00000040H
  00006	53		 push	 ebx
  00007	56		 push	 esi
  00008	57		 push	 edi

; 245  : 	if (ev->state == KEY_STATE_DOWN)

  00009	8b 45 08	 mov	 eax, DWORD PTR _ev$[ebp]
  0000c	0f b7 48 08	 movzx	 ecx, WORD PTR [eax+8]
  00010	83 f9 02	 cmp	 ecx, 2
  00013	75 19		 jne	 SHORT $LN2@steer_righ

; 246  : 	{
; 247  : 		continuous_target_acquisition_system_steer_right_fast_key = TRUE;

  00015	c7 05 00 00 00
	00 01 00 00 00	 mov	 DWORD PTR ?continuous_target_acquisition_system_steer_right_fast_key@@3HA, 1 ; continuous_target_acquisition_system_steer_right_fast_key

; 248  : 
; 249  : 		single_target_acquisition_system_steer_right_fast_key++;

  0001f	a1 00 00 00 00	 mov	 eax, DWORD PTR ?single_target_acquisition_system_steer_right_fast_key@@3HA ; single_target_acquisition_system_steer_right_fast_key
  00024	83 c0 01	 add	 eax, 1
  00027	a3 00 00 00 00	 mov	 DWORD PTR ?single_target_acquisition_system_steer_right_fast_key@@3HA, eax ; single_target_acquisition_system_steer_right_fast_key

; 250  : 	}
; 251  : 	else

  0002c	eb 0a		 jmp	 SHORT $LN1@steer_righ
$LN2@steer_righ:

; 252  : 	{
; 253  : 		continuous_target_acquisition_system_steer_right_fast_key = FALSE;

  0002e	c7 05 00 00 00
	00 00 00 00 00	 mov	 DWORD PTR ?continuous_target_acquisition_system_steer_right_fast_key@@3HA, 0 ; continuous_target_acquisition_system_steer_right_fast_key
$LN1@steer_righ:

; 254  : 	}
; 255  : }

  00038	5f		 pop	 edi
  00039	5e		 pop	 esi
  0003a	5b		 pop	 ebx
  0003b	8b e5		 mov	 esp, ebp
  0003d	5d		 pop	 ebp
  0003e	c2 04 00	 ret	 4
?steer_right_fast_event@@YGXPAUEVENT@@@Z ENDP		; steer_right_fast_event
_TEXT	ENDS
; Function compile flags: /Odtp /ZI
; File c:\users\nhv90\projects\eech\aphavoc\source\gunships\avionics\default\df_avevn.c
;	COMDAT ?steer_right_event@@YGXPAUEVENT@@@Z
_TEXT	SEGMENT
_ev$ = 8						; size = 4
?steer_right_event@@YGXPAUEVENT@@@Z PROC		; steer_right_event, COMDAT

; 226  : {

  00000	55		 push	 ebp
  00001	8b ec		 mov	 ebp, esp
  00003	83 ec 40	 sub	 esp, 64			; 00000040H
  00006	53		 push	 ebx
  00007	56		 push	 esi
  00008	57		 push	 edi

; 227  : 	if (ev->state == KEY_STATE_DOWN)

  00009	8b 45 08	 mov	 eax, DWORD PTR _ev$[ebp]
  0000c	0f b7 48 08	 movzx	 ecx, WORD PTR [eax+8]
  00010	83 f9 02	 cmp	 ecx, 2
  00013	75 19		 jne	 SHORT $LN2@steer_righ

; 228  : 	{
; 229  : 		continuous_target_acquisition_system_steer_right_key = TRUE;

  00015	c7 05 00 00 00
	00 01 00 00 00	 mov	 DWORD PTR ?continuous_target_acquisition_system_steer_right_key@@3HA, 1 ; continuous_target_acquisition_system_steer_right_key

; 230  : 
; 231  : 		single_target_acquisition_system_steer_right_key++;

  0001f	a1 00 00 00 00	 mov	 eax, DWORD PTR ?single_target_acquisition_system_steer_right_key@@3HA ; single_target_acquisition_system_steer_right_key
  00024	83 c0 01	 add	 eax, 1
  00027	a3 00 00 00 00	 mov	 DWORD PTR ?single_target_acquisition_system_steer_right_key@@3HA, eax ; single_target_acquisition_system_steer_right_key

; 232  : 	}
; 233  : 	else

  0002c	eb 0a		 jmp	 SHORT $LN1@steer_righ
$LN2@steer_righ:

; 234  : 	{
; 235  : 		continuous_target_acquisition_system_steer_right_key = FALSE;

  0002e	c7 05 00 00 00
	00 00 00 00 00	 mov	 DWORD PTR ?continuous_target_acquisition_system_steer_right_key@@3HA, 0 ; continuous_target_acquisition_system_steer_right_key
$LN1@steer_righ:

; 236  : 	}
; 237  : }

  00038	5f		 pop	 edi
  00039	5e		 pop	 esi
  0003a	5b		 pop	 ebx
  0003b	8b e5		 mov	 esp, ebp
  0003d	5d		 pop	 ebp
  0003e	c2 04 00	 ret	 4
?steer_right_event@@YGXPAUEVENT@@@Z ENDP		; steer_right_event
_TEXT	ENDS
; Function compile flags: /Odtp /ZI
; File c:\users\nhv90\projects\eech\aphavoc\source\gunships\avionics\default\df_avevn.c
;	COMDAT ?steer_left_fine_event@@YGXPAUEVENT@@@Z
_TEXT	SEGMENT
_ev$ = 8						; size = 4
?steer_left_fine_event@@YGXPAUEVENT@@@Z PROC		; steer_left_fine_event, COMDAT

; 210  : {

  00000	55		 push	 ebp
  00001	8b ec		 mov	 ebp, esp
  00003	83 ec 40	 sub	 esp, 64			; 00000040H
  00006	53		 push	 ebx
  00007	56		 push	 esi
  00008	57		 push	 edi

; 211  : 	if (ev->state == KEY_STATE_DOWN)

  00009	8b 45 08	 mov	 eax, DWORD PTR _ev$[ebp]
  0000c	0f b7 48 08	 movzx	 ecx, WORD PTR [eax+8]
  00010	83 f9 02	 cmp	 ecx, 2
  00013	75 0c		 jne	 SHORT $LN2@steer_left

; 212  : 	{
; 213  : 		continuous_target_acquisition_system_steer_left_fine_key = TRUE;

  00015	c7 05 00 00 00
	00 01 00 00 00	 mov	 DWORD PTR ?continuous_target_acquisition_system_steer_left_fine_key@@3HA, 1 ; continuous_target_acquisition_system_steer_left_fine_key

; 214  : 	}
; 215  : 	else

  0001f	eb 0a		 jmp	 SHORT $LN1@steer_left
$LN2@steer_left:

; 216  : 	{
; 217  : 		continuous_target_acquisition_system_steer_left_fine_key = FALSE;

  00021	c7 05 00 00 00
	00 00 00 00 00	 mov	 DWORD PTR ?continuous_target_acquisition_system_steer_left_fine_key@@3HA, 0 ; continuous_target_acquisition_system_steer_left_fine_key
$LN1@steer_left:

; 218  : 	}
; 219  : }

  0002b	5f		 pop	 edi
  0002c	5e		 pop	 esi
  0002d	5b		 pop	 ebx
  0002e	8b e5		 mov	 esp, ebp
  00030	5d		 pop	 ebp
  00031	c2 04 00	 ret	 4
?steer_left_fine_event@@YGXPAUEVENT@@@Z ENDP		; steer_left_fine_event
_TEXT	ENDS
; Function compile flags: /Odtp /ZI
; File c:\users\nhv90\projects\eech\aphavoc\source\gunships\avionics\default\df_avevn.c
;	COMDAT ?steer_left_fast_event@@YGXPAUEVENT@@@Z
_TEXT	SEGMENT
_ev$ = 8						; size = 4
?steer_left_fast_event@@YGXPAUEVENT@@@Z PROC		; steer_left_fast_event, COMDAT

; 192  : {

  00000	55		 push	 ebp
  00001	8b ec		 mov	 ebp, esp
  00003	83 ec 40	 sub	 esp, 64			; 00000040H
  00006	53		 push	 ebx
  00007	56		 push	 esi
  00008	57		 push	 edi

; 193  : 	if (ev->state == KEY_STATE_DOWN)

  00009	8b 45 08	 mov	 eax, DWORD PTR _ev$[ebp]
  0000c	0f b7 48 08	 movzx	 ecx, WORD PTR [eax+8]
  00010	83 f9 02	 cmp	 ecx, 2
  00013	75 19		 jne	 SHORT $LN2@steer_left

; 194  : 	{
; 195  : 		continuous_target_acquisition_system_steer_left_fast_key = TRUE;

  00015	c7 05 00 00 00
	00 01 00 00 00	 mov	 DWORD PTR ?continuous_target_acquisition_system_steer_left_fast_key@@3HA, 1 ; continuous_target_acquisition_system_steer_left_fast_key

; 196  : 
; 197  : 		single_target_acquisition_system_steer_left_fast_key++;

  0001f	a1 00 00 00 00	 mov	 eax, DWORD PTR ?single_target_acquisition_system_steer_left_fast_key@@3HA ; single_target_acquisition_system_steer_left_fast_key
  00024	83 c0 01	 add	 eax, 1
  00027	a3 00 00 00 00	 mov	 DWORD PTR ?single_target_acquisition_system_steer_left_fast_key@@3HA, eax ; single_target_acquisition_system_steer_left_fast_key

; 198  : 	}
; 199  : 	else

  0002c	eb 0a		 jmp	 SHORT $LN1@steer_left
$LN2@steer_left:

; 200  : 	{
; 201  : 		continuous_target_acquisition_system_steer_left_fast_key = FALSE;

  0002e	c7 05 00 00 00
	00 00 00 00 00	 mov	 DWORD PTR ?continuous_target_acquisition_system_steer_left_fast_key@@3HA, 0 ; continuous_target_acquisition_system_steer_left_fast_key
$LN1@steer_left:

; 202  : 	}
; 203  : }

  00038	5f		 pop	 edi
  00039	5e		 pop	 esi
  0003a	5b		 pop	 ebx
  0003b	8b e5		 mov	 esp, ebp
  0003d	5d		 pop	 ebp
  0003e	c2 04 00	 ret	 4
?steer_left_fast_event@@YGXPAUEVENT@@@Z ENDP		; steer_left_fast_event
_TEXT	ENDS
; Function compile flags: /Odtp /ZI
; File c:\users\nhv90\projects\eech\aphavoc\source\gunships\avionics\default\df_avevn.c
;	COMDAT ?steer_left_event@@YGXPAUEVENT@@@Z
_TEXT	SEGMENT
_ev$ = 8						; size = 4
?steer_left_event@@YGXPAUEVENT@@@Z PROC			; steer_left_event, COMDAT

; 174  : {

  00000	55		 push	 ebp
  00001	8b ec		 mov	 ebp, esp
  00003	83 ec 40	 sub	 esp, 64			; 00000040H
  00006	53		 push	 ebx
  00007	56		 push	 esi
  00008	57		 push	 edi

; 175  : 	if (ev->state == KEY_STATE_DOWN)

  00009	8b 45 08	 mov	 eax, DWORD PTR _ev$[ebp]
  0000c	0f b7 48 08	 movzx	 ecx, WORD PTR [eax+8]
  00010	83 f9 02	 cmp	 ecx, 2
  00013	75 19		 jne	 SHORT $LN2@steer_left

; 176  : 	{
; 177  : 		continuous_target_acquisition_system_steer_left_key = TRUE;

  00015	c7 05 00 00 00
	00 01 00 00 00	 mov	 DWORD PTR ?continuous_target_acquisition_system_steer_left_key@@3HA, 1 ; continuous_target_acquisition_system_steer_left_key

; 178  : 
; 179  : 		single_target_acquisition_system_steer_left_key++;

  0001f	a1 00 00 00 00	 mov	 eax, DWORD PTR ?single_target_acquisition_system_steer_left_key@@3HA ; single_target_acquisition_system_steer_left_key
  00024	83 c0 01	 add	 eax, 1
  00027	a3 00 00 00 00	 mov	 DWORD PTR ?single_target_acquisition_system_steer_left_key@@3HA, eax ; single_target_acquisition_system_steer_left_key

; 180  : 	}
; 181  : 	else

  0002c	eb 0a		 jmp	 SHORT $LN1@steer_left
$LN2@steer_left:

; 182  : 	{
; 183  : 		continuous_target_acquisition_system_steer_left_key = FALSE;

  0002e	c7 05 00 00 00
	00 00 00 00 00	 mov	 DWORD PTR ?continuous_target_acquisition_system_steer_left_key@@3HA, 0 ; continuous_target_acquisition_system_steer_left_key
$LN1@steer_left:

; 184  : 	}
; 185  : }

  00038	5f		 pop	 edi
  00039	5e		 pop	 esi
  0003a	5b		 pop	 ebx
  0003b	8b e5		 mov	 esp, ebp
  0003d	5d		 pop	 ebp
  0003e	c2 04 00	 ret	 4
?steer_left_event@@YGXPAUEVENT@@@Z ENDP			; steer_left_event
_TEXT	ENDS
; Function compile flags: /Odtp /ZI
; File c:\users\nhv90\projects\eech\aphavoc\source\gunships\avionics\default\df_avevn.c
;	COMDAT ?select_target_acquisition_system_ihadss_event@@YGXPAUEVENT@@@Z
_TEXT	SEGMENT
_ev$ = 8						; size = 4
?select_target_acquisition_system_ihadss_event@@YGXPAUEVENT@@@Z PROC ; select_target_acquisition_system_ihadss_event, COMDAT

; 162  : {

  00000	55		 push	 ebp
  00001	8b ec		 mov	 ebp, esp
  00003	83 ec 40	 sub	 esp, 64			; 00000040H
  00006	53		 push	 ebx
  00007	56		 push	 esi
  00008	57		 push	 edi

; 163  : 	if (!get_global_simple_avionics ())

  00009	83 3d 6c 03 00
	00 00		 cmp	 DWORD PTR ?global_options@@3UGLOBAL_OPTIONS_DATA@@A+876, 0
  00010	75 07		 jne	 SHORT $LN1@select_tar

; 164  : 	{
; 165  : 		select_default_target_acquisition_system (TARGET_ACQUISITION_SYSTEM_IHADSS);

  00012	6a 08		 push	 8
  00014	e8 00 00 00 00	 call	 ?select_default_target_acquisition_system@@YGXW4TARGET_ACQUISITION_SYSTEMS@@@Z ; select_default_target_acquisition_system
$LN1@select_tar:

; 166  : 	}
; 167  : }

  00019	5f		 pop	 edi
  0001a	5e		 pop	 esi
  0001b	5b		 pop	 ebx
  0001c	8b e5		 mov	 esp, ebp
  0001e	5d		 pop	 ebp
  0001f	c2 04 00	 ret	 4
?select_target_acquisition_system_ihadss_event@@YGXPAUEVENT@@@Z ENDP ; select_target_acquisition_system_ihadss_event
_TEXT	ENDS
; Function compile flags: /Odtp /ZI
; File c:\users\nhv90\projects\eech\aphavoc\source\gunships\avionics\default\df_avevn.c
;	COMDAT ?select_target_acquisition_system_dvo_event@@YGXPAUEVENT@@@Z
_TEXT	SEGMENT
_ev$ = 8						; size = 4
?select_target_acquisition_system_dvo_event@@YGXPAUEVENT@@@Z PROC ; select_target_acquisition_system_dvo_event, COMDAT

; 150  : {

  00000	55		 push	 ebp
  00001	8b ec		 mov	 ebp, esp
  00003	83 ec 40	 sub	 esp, 64			; 00000040H
  00006	53		 push	 ebx
  00007	56		 push	 esi
  00008	57		 push	 edi

; 151  : 	if (!get_global_simple_avionics ())

  00009	83 3d 6c 03 00
	00 00		 cmp	 DWORD PTR ?global_options@@3UGLOBAL_OPTIONS_DATA@@A+876, 0
  00010	75 07		 jne	 SHORT $LN1@select_tar

; 152  : 	{
; 153  : 		select_default_target_acquisition_system (TARGET_ACQUISITION_SYSTEM_DVO);

  00012	6a 05		 push	 5
  00014	e8 00 00 00 00	 call	 ?select_default_target_acquisition_system@@YGXW4TARGET_ACQUISITION_SYSTEMS@@@Z ; select_default_target_acquisition_system
$LN1@select_tar:

; 154  : 	}
; 155  : }

  00019	5f		 pop	 edi
  0001a	5e		 pop	 esi
  0001b	5b		 pop	 ebx
  0001c	8b e5		 mov	 esp, ebp
  0001e	5d		 pop	 ebp
  0001f	c2 04 00	 ret	 4
?select_target_acquisition_system_dvo_event@@YGXPAUEVENT@@@Z ENDP ; select_target_acquisition_system_dvo_event
_TEXT	ENDS
; Function compile flags: /Odtp /ZI
; File c:\users\nhv90\projects\eech\aphavoc\source\gunships\avionics\default\df_avevn.c
;	COMDAT ?select_target_acquisition_system_dtv_event@@YGXPAUEVENT@@@Z
_TEXT	SEGMENT
_ev$ = 8						; size = 4
?select_target_acquisition_system_dtv_event@@YGXPAUEVENT@@@Z PROC ; select_target_acquisition_system_dtv_event, COMDAT

; 138  : {

  00000	55		 push	 ebp
  00001	8b ec		 mov	 ebp, esp
  00003	83 ec 40	 sub	 esp, 64			; 00000040H
  00006	53		 push	 ebx
  00007	56		 push	 esi
  00008	57		 push	 edi

; 139  : 	if (!get_global_simple_avionics ())

  00009	83 3d 6c 03 00
	00 00		 cmp	 DWORD PTR ?global_options@@3UGLOBAL_OPTIONS_DATA@@A+876, 0
  00010	75 07		 jne	 SHORT $LN1@select_tar

; 140  : 	{
; 141  : 		select_default_target_acquisition_system (TARGET_ACQUISITION_SYSTEM_DTV);

  00012	6a 04		 push	 4
  00014	e8 00 00 00 00	 call	 ?select_default_target_acquisition_system@@YGXW4TARGET_ACQUISITION_SYSTEMS@@@Z ; select_default_target_acquisition_system
$LN1@select_tar:

; 142  : 	}
; 143  : }

  00019	5f		 pop	 edi
  0001a	5e		 pop	 esi
  0001b	5b		 pop	 ebx
  0001c	8b e5		 mov	 esp, ebp
  0001e	5d		 pop	 ebp
  0001f	c2 04 00	 ret	 4
?select_target_acquisition_system_dtv_event@@YGXPAUEVENT@@@Z ENDP ; select_target_acquisition_system_dtv_event
_TEXT	ENDS
; Function compile flags: /Odtp /ZI
; File c:\users\nhv90\projects\eech\aphavoc\source\gunships\avionics\default\df_avevn.c
;	COMDAT ?select_target_acquisition_system_flir_event@@YGXPAUEVENT@@@Z
_TEXT	SEGMENT
_ev$ = 8						; size = 4
?select_target_acquisition_system_flir_event@@YGXPAUEVENT@@@Z PROC ; select_target_acquisition_system_flir_event, COMDAT

; 126  : {

  00000	55		 push	 ebp
  00001	8b ec		 mov	 ebp, esp
  00003	83 ec 40	 sub	 esp, 64			; 00000040H
  00006	53		 push	 ebx
  00007	56		 push	 esi
  00008	57		 push	 edi

; 127  : 	if (!get_global_simple_avionics ())

  00009	83 3d 6c 03 00
	00 00		 cmp	 DWORD PTR ?global_options@@3UGLOBAL_OPTIONS_DATA@@A+876, 0
  00010	75 07		 jne	 SHORT $LN1@select_tar

; 128  : 	{
; 129  : 		select_default_target_acquisition_system (TARGET_ACQUISITION_SYSTEM_FLIR);

  00012	6a 03		 push	 3
  00014	e8 00 00 00 00	 call	 ?select_default_target_acquisition_system@@YGXW4TARGET_ACQUISITION_SYSTEMS@@@Z ; select_default_target_acquisition_system
$LN1@select_tar:

; 130  : 	}
; 131  : }

  00019	5f		 pop	 edi
  0001a	5e		 pop	 esi
  0001b	5b		 pop	 ebx
  0001c	8b e5		 mov	 esp, ebp
  0001e	5d		 pop	 ebp
  0001f	c2 04 00	 ret	 4
?select_target_acquisition_system_flir_event@@YGXPAUEVENT@@@Z ENDP ; select_target_acquisition_system_flir_event
_TEXT	ENDS
; Function compile flags: /Odtp /ZI
; File c:\users\nhv90\projects\eech\aphavoc\source\gunships\avionics\default\df_avevn.c
;	COMDAT ?select_target_acquisition_system_air_radar_event@@YGXPAUEVENT@@@Z
_TEXT	SEGMENT
tv82 = -76						; size = 4
tv76 = -72						; size = 4
tv69 = -68						; size = 4
_ev$ = 8						; size = 4
?select_target_acquisition_system_air_radar_event@@YGXPAUEVENT@@@Z PROC ; select_target_acquisition_system_air_radar_event, COMDAT

; 104  : {

  00000	55		 push	 ebp
  00001	8b ec		 mov	 ebp, esp
  00003	83 ec 4c	 sub	 esp, 76			; 0000004cH
  00006	53		 push	 ebx
  00007	56		 push	 esi
  00008	57		 push	 edi

; 105  : 	switch (get_local_entity_int_value (get_gunship_entity (), INT_TYPE_ENTITY_SUB_TYPE))

  00009	83 3d 00 00 00
	00 00		 cmp	 DWORD PTR ?gunship_entity@@3PAUENTITY@@A, 0 ; gunship_entity
  00010	74 0c		 je	 SHORT $LN8@select_tar
  00012	a1 00 00 00 00	 mov	 eax, DWORD PTR ?gunship_entity@@3PAUENTITY@@A ; gunship_entity
  00017	8b 08		 mov	 ecx, DWORD PTR [eax]
  00019	89 4d bc	 mov	 DWORD PTR tv69[ebp], ecx
  0001c	eb 1a		 jmp	 SHORT $LN9@select_tar
$LN8@select_tar:
  0001e	6a 69		 push	 105			; 00000069H
  00020	68 00 00 00 00	 push	 OFFSET ??_C@_0FB@CPPOAHBH@c?3?2users?2nhv90?2projects?2eech?2ap@
  00025	8b 15 00 00 00
	00		 mov	 edx, DWORD PTR ?null_entity_pointer_message@@3PBDB ; null_entity_pointer_message
  0002b	52		 push	 edx
  0002c	e8 00 00 00 00	 call	 ?process_assert@@YGXPBD0H@Z ; process_assert
  00031	c7 45 bc 00 00
	00 00		 mov	 DWORD PTR tv69[ebp], 0
$LN9@select_tar:
  00038	b8 01 00 00 00	 mov	 eax, 1
  0003d	85 c0		 test	 eax, eax
  0003f	74 09		 je	 SHORT $LN10@select_tar
  00041	c7 45 b8 34 00
	00 00		 mov	 DWORD PTR tv76[ebp], 52	; 00000034H
  00048	eb 1a		 jmp	 SHORT $LN11@select_tar
$LN10@select_tar:
  0004a	6a 69		 push	 105			; 00000069H
  0004c	68 00 00 00 00	 push	 OFFSET ??_C@_0FB@CPPOAHBH@c?3?2users?2nhv90?2projects?2eech?2ap@
  00051	8b 0d 00 00 00
	00		 mov	 ecx, DWORD PTR ?overload_invalid_int_type_message@@3PBDB ; overload_invalid_int_type_message
  00057	51		 push	 ecx
  00058	e8 00 00 00 00	 call	 ?process_assert@@YGXPBD0H@Z ; process_assert
  0005d	c7 45 b8 00 00
	00 00		 mov	 DWORD PTR tv76[ebp], 0
$LN11@select_tar:
  00064	6a 34		 push	 52			; 00000034H
  00066	8b 15 00 00 00
	00		 mov	 edx, DWORD PTR ?gunship_entity@@3PAUENTITY@@A ; gunship_entity
  0006c	52		 push	 edx
  0006d	69 45 bc 5c 04
	00 00		 imul	 eax, DWORD PTR tv69[ebp], 1116
  00074	8b 4d b8	 mov	 ecx, DWORD PTR tv76[ebp]
  00077	8b 94 88 00 00
	00 00		 mov	 edx, DWORD PTR ?fn_get_local_entity_int_value@@3PAY0BBH@P6GHPAUENTITY@@W4INT_TYPES@@@ZA[eax+ecx*4]
  0007e	ff d2		 call	 edx
  00080	89 45 b4	 mov	 DWORD PTR tv82[ebp], eax

; 106  : 	{
; 107  : 		case ENTITY_SUB_TYPE_AIRCRAFT_KA29_HELIX_B:
; 108  : 	
; 109  : 	if (!get_global_simple_avionics ())
; 110  : 	{
; 111  : 		// has no air radar, left for later use on other helis
; 112  : 		//select_default_target_acquisition_system (TARGET_ACQUISITION_SYSTEM_AIR_RADAR);
; 113  : 	}
; 114  : 
; 115  : 	break;
; 116  : 	default:
; 117  : 	break;
; 118  : 	}
; 119  : }

  00083	5f		 pop	 edi
  00084	5e		 pop	 esi
  00085	5b		 pop	 ebx
  00086	8b e5		 mov	 esp, ebp
  00088	5d		 pop	 ebp
  00089	c2 04 00	 ret	 4
?select_target_acquisition_system_air_radar_event@@YGXPAUEVENT@@@Z ENDP ; select_target_acquisition_system_air_radar_event
_TEXT	ENDS
; Function compile flags: /Odtp /ZI
; File c:\users\nhv90\projects\eech\aphavoc\source\gunships\avionics\default\df_avevn.c
;	COMDAT ?select_target_acquisition_system_ground_radar_event@@YGXPAUEVENT@@@Z
_TEXT	SEGMENT
tv82 = -76						; size = 4
tv76 = -72						; size = 4
tv69 = -68						; size = 4
_ev$ = 8						; size = 4
?select_target_acquisition_system_ground_radar_event@@YGXPAUEVENT@@@Z PROC ; select_target_acquisition_system_ground_radar_event, COMDAT

; 83   : {

  00000	55		 push	 ebp
  00001	8b ec		 mov	 ebp, esp
  00003	83 ec 4c	 sub	 esp, 76			; 0000004cH
  00006	53		 push	 ebx
  00007	56		 push	 esi
  00008	57		 push	 edi

; 84   : 	switch (get_local_entity_int_value (get_gunship_entity (), INT_TYPE_ENTITY_SUB_TYPE))

  00009	83 3d 00 00 00
	00 00		 cmp	 DWORD PTR ?gunship_entity@@3PAUENTITY@@A, 0 ; gunship_entity
  00010	74 0c		 je	 SHORT $LN8@select_tar
  00012	a1 00 00 00 00	 mov	 eax, DWORD PTR ?gunship_entity@@3PAUENTITY@@A ; gunship_entity
  00017	8b 08		 mov	 ecx, DWORD PTR [eax]
  00019	89 4d bc	 mov	 DWORD PTR tv69[ebp], ecx
  0001c	eb 1a		 jmp	 SHORT $LN9@select_tar
$LN8@select_tar:
  0001e	6a 54		 push	 84			; 00000054H
  00020	68 00 00 00 00	 push	 OFFSET ??_C@_0FB@CPPOAHBH@c?3?2users?2nhv90?2projects?2eech?2ap@
  00025	8b 15 00 00 00
	00		 mov	 edx, DWORD PTR ?null_entity_pointer_message@@3PBDB ; null_entity_pointer_message
  0002b	52		 push	 edx
  0002c	e8 00 00 00 00	 call	 ?process_assert@@YGXPBD0H@Z ; process_assert
  00031	c7 45 bc 00 00
	00 00		 mov	 DWORD PTR tv69[ebp], 0
$LN9@select_tar:
  00038	b8 01 00 00 00	 mov	 eax, 1
  0003d	85 c0		 test	 eax, eax
  0003f	74 09		 je	 SHORT $LN10@select_tar
  00041	c7 45 b8 34 00
	00 00		 mov	 DWORD PTR tv76[ebp], 52	; 00000034H
  00048	eb 1a		 jmp	 SHORT $LN11@select_tar
$LN10@select_tar:
  0004a	6a 54		 push	 84			; 00000054H
  0004c	68 00 00 00 00	 push	 OFFSET ??_C@_0FB@CPPOAHBH@c?3?2users?2nhv90?2projects?2eech?2ap@
  00051	8b 0d 00 00 00
	00		 mov	 ecx, DWORD PTR ?overload_invalid_int_type_message@@3PBDB ; overload_invalid_int_type_message
  00057	51		 push	 ecx
  00058	e8 00 00 00 00	 call	 ?process_assert@@YGXPBD0H@Z ; process_assert
  0005d	c7 45 b8 00 00
	00 00		 mov	 DWORD PTR tv76[ebp], 0
$LN11@select_tar:
  00064	6a 34		 push	 52			; 00000034H
  00066	8b 15 00 00 00
	00		 mov	 edx, DWORD PTR ?gunship_entity@@3PAUENTITY@@A ; gunship_entity
  0006c	52		 push	 edx
  0006d	69 45 bc 5c 04
	00 00		 imul	 eax, DWORD PTR tv69[ebp], 1116
  00074	8b 4d b8	 mov	 ecx, DWORD PTR tv76[ebp]
  00077	8b 94 88 00 00
	00 00		 mov	 edx, DWORD PTR ?fn_get_local_entity_int_value@@3PAY0BBH@P6GHPAUENTITY@@W4INT_TYPES@@@ZA[eax+ecx*4]
  0007e	ff d2		 call	 edx
  00080	89 45 b4	 mov	 DWORD PTR tv82[ebp], eax
  00083	83 7d b4 07	 cmp	 DWORD PTR tv82[ebp], 7
  00087	74 02		 je	 SHORT $LN4@select_tar
  00089	eb 10		 jmp	 SHORT $LN1@select_tar
$LN4@select_tar:

; 85   : 	{
; 86   : 		case ENTITY_SUB_TYPE_AIRCRAFT_KA29_HELIX_B:
; 87   : 		
; 88   : 	if (!get_global_simple_avionics ())

  0008b	83 3d 6c 03 00
	00 00		 cmp	 DWORD PTR ?global_options@@3UGLOBAL_OPTIONS_DATA@@A+876, 0
  00092	75 07		 jne	 SHORT $LN1@select_tar

; 89   : 	{
; 90   : 		select_default_target_acquisition_system (TARGET_ACQUISITION_SYSTEM_GROUND_RADAR);

  00094	6a 01		 push	 1
  00096	e8 00 00 00 00	 call	 ?select_default_target_acquisition_system@@YGXW4TARGET_ACQUISITION_SYSTEMS@@@Z ; select_default_target_acquisition_system
$LN1@select_tar:

; 91   : 	}
; 92   : 
; 93   : 	break;
; 94   : 	default:
; 95   : 	break;
; 96   : 	}
; 97   : }

  0009b	5f		 pop	 edi
  0009c	5e		 pop	 esi
  0009d	5b		 pop	 ebx
  0009e	8b e5		 mov	 esp, ebp
  000a0	5d		 pop	 ebp
  000a1	c2 04 00	 ret	 4
?select_target_acquisition_system_ground_radar_event@@YGXPAUEVENT@@@Z ENDP ; select_target_acquisition_system_ground_radar_event
_TEXT	ENDS
; Function compile flags: /Odtp /ZI
; File c:\users\nhv90\projects\eech\aphavoc\source\gunships\avionics\default\df_avevn.c
;	COMDAT ?select_target_acquisition_system_off_event@@YGXPAUEVENT@@@Z
_TEXT	SEGMENT
_ev$ = 8						; size = 4
?select_target_acquisition_system_off_event@@YGXPAUEVENT@@@Z PROC ; select_target_acquisition_system_off_event, COMDAT

; 74   : {

  00000	55		 push	 ebp
  00001	8b ec		 mov	 ebp, esp
  00003	83 ec 40	 sub	 esp, 64			; 00000040H
  00006	53		 push	 ebx
  00007	56		 push	 esi
  00008	57		 push	 edi

; 75   : 	select_default_target_acquisition_system (TARGET_ACQUISITION_SYSTEM_OFF);

  00009	6a 00		 push	 0
  0000b	e8 00 00 00 00	 call	 ?select_default_target_acquisition_system@@YGXW4TARGET_ACQUISITION_SYSTEMS@@@Z ; select_default_target_acquisition_system

; 76   : }

  00010	5f		 pop	 edi
  00011	5e		 pop	 esi
  00012	5b		 pop	 ebx
  00013	8b e5		 mov	 esp, ebp
  00015	5d		 pop	 ebp
  00016	c2 04 00	 ret	 4
?select_target_acquisition_system_off_event@@YGXPAUEVENT@@@Z ENDP ; select_target_acquisition_system_off_event
_TEXT	ENDS
; Function compile flags: /Odtp /ZI
; File c:\users\nhv90\projects\eech\aphavoc\source\gunships\avionics\default\df_avevn.c
;	COMDAT ?set_default_avionics_events@@YGXXZ
_TEXT	SEGMENT
?set_default_avionics_events@@YGXXZ PROC		; set_default_avionics_events, COMDAT

; 1238 : {

  00000	55		 push	 ebp
  00001	8b ec		 mov	 ebp, esp
  00003	83 ec 40	 sub	 esp, 64			; 00000040H
  00006	53		 push	 ebx
  00007	56		 push	 esi
  00008	57		 push	 edi

; 1239 : 	if (!get_gunship_entity ())

  00009	83 3d 00 00 00
	00 00		 cmp	 DWORD PTR ?gunship_entity@@3PAUENTITY@@A, 0 ; gunship_entity
  00010	75 05		 jne	 SHORT $LN2@set_defaul

; 1240 : 	{
; 1241 : 		return;

  00012	e9 ed 05 00 00	 jmp	 $LN1@set_defaul
$LN2@set_defaul:

; 1242 : 	}
; 1243 : 
; 1244 : 	////////////////////////////////////////
; 1245 : 	//
; 1246 : 	// KEYBOARD EVENTS
; 1247 : 	//
; 1248 : 	////////////////////////////////////////
; 1249 : 
; 1250 : 	set_event (DIK_G, MODIFIER_LEFT_CONTROL, KEY_STATE_DOWN, toggle_gear_event);

  00017	68 00 00 00 00	 push	 OFFSET ?toggle_gear_event@@YGXPAUEVENT@@@Z ; toggle_gear_event
  0001c	6a 02		 push	 2
  0001e	6a 02		 push	 2
  00020	6a 22		 push	 34			; 00000022H
  00022	e8 00 00 00 00	 call	 ?set_event@@YGXHHHP6GXPAUEVENT@@@Z@Z ; set_event

; 1251 : 	set_event (DIK_C, MODIFIER_LEFT_ALT, KEY_STATE_DOWN, toggle_door_event);

  00027	68 00 00 00 00	 push	 OFFSET ?toggle_door_event@@YGXPAUEVENT@@@Z ; toggle_door_event
  0002c	6a 02		 push	 2
  0002e	6a 03		 push	 3
  00030	6a 2e		 push	 46			; 0000002eH
  00032	e8 00 00 00 00	 call	 ?set_event@@YGXHHHP6GXPAUEVENT@@@Z@Z ; set_event

; 1252 : 	//
; 1253 : 	// select target acquisition system
; 1254 : 	//
; 1255 : 
; 1256 : 	set_event (DIK_DELETE, MODIFIER_LEFT_SHIFT, KEY_STATE_DOWN, select_target_acquisition_system_off_event);

  00037	68 00 00 00 00	 push	 OFFSET ?select_target_acquisition_system_off_event@@YGXPAUEVENT@@@Z ; select_target_acquisition_system_off_event
  0003c	6a 02		 push	 2
  0003e	6a 01		 push	 1
  00040	68 d3 00 00 00	 push	 211			; 000000d3H
  00045	e8 00 00 00 00	 call	 ?set_event@@YGXHHHP6GXPAUEVENT@@@Z@Z ; set_event

; 1257 : 
; 1258 : 	set_event (DIK_INSERT, MODIFIER_NONE, KEY_STATE_DOWN, select_target_acquisition_system_ground_radar_event);

  0004a	68 00 00 00 00	 push	 OFFSET ?select_target_acquisition_system_ground_radar_event@@YGXPAUEVENT@@@Z ; select_target_acquisition_system_ground_radar_event
  0004f	6a 02		 push	 2
  00051	6a 00		 push	 0
  00053	68 d2 00 00 00	 push	 210			; 000000d2H
  00058	e8 00 00 00 00	 call	 ?set_event@@YGXHHHP6GXPAUEVENT@@@Z@Z ; set_event

; 1259 : 
; 1260 : 	set_event (DIK_HOME, MODIFIER_NONE, KEY_STATE_DOWN, select_target_acquisition_system_air_radar_event);

  0005d	68 00 00 00 00	 push	 OFFSET ?select_target_acquisition_system_air_radar_event@@YGXPAUEVENT@@@Z ; select_target_acquisition_system_air_radar_event
  00062	6a 02		 push	 2
  00064	6a 00		 push	 0
  00066	68 c7 00 00 00	 push	 199			; 000000c7H
  0006b	e8 00 00 00 00	 call	 ?set_event@@YGXHHHP6GXPAUEVENT@@@Z@Z ; set_event

; 1261 : 
; 1262 : 	set_event (DIK_DELETE, MODIFIER_NONE, KEY_STATE_DOWN, select_target_acquisition_system_flir_event);

  00070	68 00 00 00 00	 push	 OFFSET ?select_target_acquisition_system_flir_event@@YGXPAUEVENT@@@Z ; select_target_acquisition_system_flir_event
  00075	6a 02		 push	 2
  00077	6a 00		 push	 0
  00079	68 d3 00 00 00	 push	 211			; 000000d3H
  0007e	e8 00 00 00 00	 call	 ?set_event@@YGXHHHP6GXPAUEVENT@@@Z@Z ; set_event

; 1263 : 
; 1264 : 	set_event (DIK_END, MODIFIER_NONE, KEY_STATE_DOWN, select_target_acquisition_system_dtv_event);

  00083	68 00 00 00 00	 push	 OFFSET ?select_target_acquisition_system_dtv_event@@YGXPAUEVENT@@@Z ; select_target_acquisition_system_dtv_event
  00088	6a 02		 push	 2
  0008a	6a 00		 push	 0
  0008c	68 cf 00 00 00	 push	 207			; 000000cfH
  00091	e8 00 00 00 00	 call	 ?set_event@@YGXHHHP6GXPAUEVENT@@@Z@Z ; set_event

; 1265 : 	set_event (DIK_END, MODIFIER_LEFT_SHIFT, KEY_STATE_DOWN, toggle_eo_system_event);

  00096	68 00 00 00 00	 push	 OFFSET ?toggle_eo_system_event@@YGXPAUEVENT@@@Z ; toggle_eo_system_event
  0009b	6a 02		 push	 2
  0009d	6a 01		 push	 1
  0009f	68 cf 00 00 00	 push	 207			; 000000cfH
  000a4	e8 00 00 00 00	 call	 ?set_event@@YGXHHHP6GXPAUEVENT@@@Z@Z ; set_event

; 1266 : 
; 1267 : 	set_event (DIK_NEXT, MODIFIER_NONE, KEY_STATE_DOWN, select_target_acquisition_system_dvo_event);

  000a9	68 00 00 00 00	 push	 OFFSET ?select_target_acquisition_system_dvo_event@@YGXPAUEVENT@@@Z ; select_target_acquisition_system_dvo_event
  000ae	6a 02		 push	 2
  000b0	6a 00		 push	 0
  000b2	68 d1 00 00 00	 push	 209			; 000000d1H
  000b7	e8 00 00 00 00	 call	 ?set_event@@YGXHHHP6GXPAUEVENT@@@Z@Z ; set_event

; 1268 : 
; 1269 : 	set_event (DIK_PRIOR, MODIFIER_NONE, KEY_STATE_DOWN, select_target_acquisition_system_ihadss_event);

  000bc	68 00 00 00 00	 push	 OFFSET ?select_target_acquisition_system_ihadss_event@@YGXPAUEVENT@@@Z ; select_target_acquisition_system_ihadss_event
  000c1	6a 02		 push	 2
  000c3	6a 00		 push	 0
  000c5	68 c9 00 00 00	 push	 201			; 000000c9H
  000ca	e8 00 00 00 00	 call	 ?set_event@@YGXHHHP6GXPAUEVENT@@@Z@Z ; set_event

; 1270 : 
; 1271 : 	//
; 1272 : 	// repeated for programmable joysticks ...
; 1273 : 	//
; 1274 : 
; 1275 : 	set_event (DIK_1, MODIFIER_LEFT_SHIFT, KEY_STATE_DOWN, select_target_acquisition_system_ground_radar_event);

  000cf	68 00 00 00 00	 push	 OFFSET ?select_target_acquisition_system_ground_radar_event@@YGXPAUEVENT@@@Z ; select_target_acquisition_system_ground_radar_event
  000d4	6a 02		 push	 2
  000d6	6a 01		 push	 1
  000d8	6a 02		 push	 2
  000da	e8 00 00 00 00	 call	 ?set_event@@YGXHHHP6GXPAUEVENT@@@Z@Z ; set_event

; 1276 : 
; 1277 : 	set_event (DIK_2, MODIFIER_LEFT_SHIFT, KEY_STATE_DOWN, select_target_acquisition_system_air_radar_event);

  000df	68 00 00 00 00	 push	 OFFSET ?select_target_acquisition_system_air_radar_event@@YGXPAUEVENT@@@Z ; select_target_acquisition_system_air_radar_event
  000e4	6a 02		 push	 2
  000e6	6a 01		 push	 1
  000e8	6a 03		 push	 3
  000ea	e8 00 00 00 00	 call	 ?set_event@@YGXHHHP6GXPAUEVENT@@@Z@Z ; set_event

; 1278 : 
; 1279 : 	set_event (DIK_3, MODIFIER_LEFT_SHIFT, KEY_STATE_DOWN, select_target_acquisition_system_ihadss_event);

  000ef	68 00 00 00 00	 push	 OFFSET ?select_target_acquisition_system_ihadss_event@@YGXPAUEVENT@@@Z ; select_target_acquisition_system_ihadss_event
  000f4	6a 02		 push	 2
  000f6	6a 01		 push	 1
  000f8	6a 04		 push	 4
  000fa	e8 00 00 00 00	 call	 ?set_event@@YGXHHHP6GXPAUEVENT@@@Z@Z ; set_event

; 1280 : 
; 1281 : 	set_event (DIK_4, MODIFIER_LEFT_SHIFT, KEY_STATE_DOWN, select_target_acquisition_system_flir_event);

  000ff	68 00 00 00 00	 push	 OFFSET ?select_target_acquisition_system_flir_event@@YGXPAUEVENT@@@Z ; select_target_acquisition_system_flir_event
  00104	6a 02		 push	 2
  00106	6a 01		 push	 1
  00108	6a 05		 push	 5
  0010a	e8 00 00 00 00	 call	 ?set_event@@YGXHHHP6GXPAUEVENT@@@Z@Z ; set_event

; 1282 : 
; 1283 : 	set_event (DIK_5, MODIFIER_LEFT_SHIFT, KEY_STATE_DOWN, select_target_acquisition_system_dtv_event);

  0010f	68 00 00 00 00	 push	 OFFSET ?select_target_acquisition_system_dtv_event@@YGXPAUEVENT@@@Z ; select_target_acquisition_system_dtv_event
  00114	6a 02		 push	 2
  00116	6a 01		 push	 1
  00118	6a 06		 push	 6
  0011a	e8 00 00 00 00	 call	 ?set_event@@YGXHHHP6GXPAUEVENT@@@Z@Z ; set_event

; 1284 : 
; 1285 : 	set_event (DIK_6, MODIFIER_LEFT_SHIFT, KEY_STATE_DOWN, select_target_acquisition_system_dvo_event);

  0011f	68 00 00 00 00	 push	 OFFSET ?select_target_acquisition_system_dvo_event@@YGXPAUEVENT@@@Z ; select_target_acquisition_system_dvo_event
  00124	6a 02		 push	 2
  00126	6a 01		 push	 1
  00128	6a 07		 push	 7
  0012a	e8 00 00 00 00	 call	 ?set_event@@YGXHHHP6GXPAUEVENT@@@Z@Z ; set_event

; 1286 : 
; 1287 : 	//
; 1288 : 	// target acquisition system control
; 1289 : 	//
; 1290 : 
; 1291 : 	set_event (DIK_NUMPAD4, MODIFIER_NONE, KEY_STATE_EITHER, steer_left_event);

  0012f	68 00 00 00 00	 push	 OFFSET ?steer_left_event@@YGXPAUEVENT@@@Z ; steer_left_event
  00134	6a 03		 push	 3
  00136	6a 00		 push	 0
  00138	6a 4b		 push	 75			; 0000004bH
  0013a	e8 00 00 00 00	 call	 ?set_event@@YGXHHHP6GXPAUEVENT@@@Z@Z ; set_event

; 1292 : 	set_event (DIK_NUMPAD4, MODIFIER_LEFT_SHIFT, KEY_STATE_EITHER, steer_left_fast_event);

  0013f	68 00 00 00 00	 push	 OFFSET ?steer_left_fast_event@@YGXPAUEVENT@@@Z ; steer_left_fast_event
  00144	6a 03		 push	 3
  00146	6a 01		 push	 1
  00148	6a 4b		 push	 75			; 0000004bH
  0014a	e8 00 00 00 00	 call	 ?set_event@@YGXHHHP6GXPAUEVENT@@@Z@Z ; set_event

; 1293 : 	set_event (DIK_NUMPAD4, MODIFIER_LEFT_ALT, KEY_STATE_EITHER, steer_left_fine_event);

  0014f	68 00 00 00 00	 push	 OFFSET ?steer_left_fine_event@@YGXPAUEVENT@@@Z ; steer_left_fine_event
  00154	6a 03		 push	 3
  00156	6a 03		 push	 3
  00158	6a 4b		 push	 75			; 0000004bH
  0015a	e8 00 00 00 00	 call	 ?set_event@@YGXHHHP6GXPAUEVENT@@@Z@Z ; set_event

; 1294 : 
; 1295 : 	set_event (DIK_NUMPAD6, MODIFIER_NONE, KEY_STATE_EITHER, steer_right_event);

  0015f	68 00 00 00 00	 push	 OFFSET ?steer_right_event@@YGXPAUEVENT@@@Z ; steer_right_event
  00164	6a 03		 push	 3
  00166	6a 00		 push	 0
  00168	6a 4d		 push	 77			; 0000004dH
  0016a	e8 00 00 00 00	 call	 ?set_event@@YGXHHHP6GXPAUEVENT@@@Z@Z ; set_event

; 1296 : 	set_event (DIK_NUMPAD6, MODIFIER_LEFT_SHIFT, KEY_STATE_EITHER, steer_right_fast_event);

  0016f	68 00 00 00 00	 push	 OFFSET ?steer_right_fast_event@@YGXPAUEVENT@@@Z ; steer_right_fast_event
  00174	6a 03		 push	 3
  00176	6a 01		 push	 1
  00178	6a 4d		 push	 77			; 0000004dH
  0017a	e8 00 00 00 00	 call	 ?set_event@@YGXHHHP6GXPAUEVENT@@@Z@Z ; set_event

; 1297 : 	set_event (DIK_NUMPAD6, MODIFIER_LEFT_ALT, KEY_STATE_EITHER, steer_right_fine_event);

  0017f	68 00 00 00 00	 push	 OFFSET ?steer_right_fine_event@@YGXPAUEVENT@@@Z ; steer_right_fine_event
  00184	6a 03		 push	 3
  00186	6a 03		 push	 3
  00188	6a 4d		 push	 77			; 0000004dH
  0018a	e8 00 00 00 00	 call	 ?set_event@@YGXHHHP6GXPAUEVENT@@@Z@Z ; set_event

; 1298 : 
; 1299 : 	set_event (DIK_NUMPAD8, MODIFIER_NONE, KEY_STATE_EITHER, steer_up_event);

  0018f	68 00 00 00 00	 push	 OFFSET ?steer_up_event@@YGXPAUEVENT@@@Z ; steer_up_event
  00194	6a 03		 push	 3
  00196	6a 00		 push	 0
  00198	6a 48		 push	 72			; 00000048H
  0019a	e8 00 00 00 00	 call	 ?set_event@@YGXHHHP6GXPAUEVENT@@@Z@Z ; set_event

; 1300 : 	set_event (DIK_NUMPAD8, MODIFIER_LEFT_SHIFT, KEY_STATE_EITHER, steer_up_fast_event);

  0019f	68 00 00 00 00	 push	 OFFSET ?steer_up_fast_event@@YGXPAUEVENT@@@Z ; steer_up_fast_event
  001a4	6a 03		 push	 3
  001a6	6a 01		 push	 1
  001a8	6a 48		 push	 72			; 00000048H
  001aa	e8 00 00 00 00	 call	 ?set_event@@YGXHHHP6GXPAUEVENT@@@Z@Z ; set_event

; 1301 : 	set_event (DIK_NUMPAD8, MODIFIER_LEFT_ALT, KEY_STATE_EITHER, steer_up_fine_event);

  001af	68 00 00 00 00	 push	 OFFSET ?steer_up_fine_event@@YGXPAUEVENT@@@Z ; steer_up_fine_event
  001b4	6a 03		 push	 3
  001b6	6a 03		 push	 3
  001b8	6a 48		 push	 72			; 00000048H
  001ba	e8 00 00 00 00	 call	 ?set_event@@YGXHHHP6GXPAUEVENT@@@Z@Z ; set_event

; 1302 : 
; 1303 : 	set_event (DIK_NUMPAD2, MODIFIER_NONE, KEY_STATE_EITHER, steer_down_event);

  001bf	68 00 00 00 00	 push	 OFFSET ?steer_down_event@@YGXPAUEVENT@@@Z ; steer_down_event
  001c4	6a 03		 push	 3
  001c6	6a 00		 push	 0
  001c8	6a 50		 push	 80			; 00000050H
  001ca	e8 00 00 00 00	 call	 ?set_event@@YGXHHHP6GXPAUEVENT@@@Z@Z ; set_event

; 1304 : 	set_event (DIK_NUMPAD2, MODIFIER_LEFT_SHIFT, KEY_STATE_EITHER, steer_down_fast_event);

  001cf	68 00 00 00 00	 push	 OFFSET ?steer_down_fast_event@@YGXPAUEVENT@@@Z ; steer_down_fast_event
  001d4	6a 03		 push	 3
  001d6	6a 01		 push	 1
  001d8	6a 50		 push	 80			; 00000050H
  001da	e8 00 00 00 00	 call	 ?set_event@@YGXHHHP6GXPAUEVENT@@@Z@Z ; set_event

; 1305 : 	set_event (DIK_NUMPAD2, MODIFIER_LEFT_ALT, KEY_STATE_EITHER, steer_down_fine_event);

  001df	68 00 00 00 00	 push	 OFFSET ?steer_down_fine_event@@YGXPAUEVENT@@@Z ; steer_down_fine_event
  001e4	6a 03		 push	 3
  001e6	6a 03		 push	 3
  001e8	6a 50		 push	 80			; 00000050H
  001ea	e8 00 00 00 00	 call	 ?set_event@@YGXHHHP6GXPAUEVENT@@@Z@Z ; set_event

; 1306 : 
; 1307 : 	set_event (DIK_ADD, MODIFIER_NONE, KEY_STATE_DOWN, inc_range_event);

  001ef	68 00 00 00 00	 push	 OFFSET ?inc_range_event@@YGXPAUEVENT@@@Z ; inc_range_event
  001f4	6a 02		 push	 2
  001f6	6a 00		 push	 0
  001f8	6a 4e		 push	 78			; 0000004eH
  001fa	e8 00 00 00 00	 call	 ?set_event@@YGXHHHP6GXPAUEVENT@@@Z@Z ; set_event

; 1308 : 	set_event (DIK_ADD, MODIFIER_LEFT_SHIFT, KEY_STATE_DOWN, unzoom_radar);

  001ff	68 00 00 00 00	 push	 OFFSET ?unzoom_radar@@YGXPAUEVENT@@@Z ; unzoom_radar
  00204	6a 02		 push	 2
  00206	6a 01		 push	 1
  00208	6a 4e		 push	 78			; 0000004eH
  0020a	e8 00 00 00 00	 call	 ?set_event@@YGXHHHP6GXPAUEVENT@@@Z@Z ; set_event

; 1309 : 	set_event (DIK_ADD, MODIFIER_LEFT_CONTROL, KEY_STATE_DOWN, inc_eo_zoom_event);

  0020f	68 00 00 00 00	 push	 OFFSET ?inc_eo_zoom_event@@YGXPAUEVENT@@@Z ; inc_eo_zoom_event
  00214	6a 02		 push	 2
  00216	6a 02		 push	 2
  00218	6a 4e		 push	 78			; 0000004eH
  0021a	e8 00 00 00 00	 call	 ?set_event@@YGXHHHP6GXPAUEVENT@@@Z@Z ; set_event

; 1310 : 
; 1311 : 	set_event (DIK_SUBTRACT, MODIFIER_NONE, KEY_STATE_DOWN, dec_range_event);

  0021f	68 00 00 00 00	 push	 OFFSET ?dec_range_event@@YGXPAUEVENT@@@Z ; dec_range_event
  00224	6a 02		 push	 2
  00226	6a 00		 push	 0
  00228	6a 4a		 push	 74			; 0000004aH
  0022a	e8 00 00 00 00	 call	 ?set_event@@YGXHHHP6GXPAUEVENT@@@Z@Z ; set_event

; 1312 : 	set_event (DIK_SUBTRACT, MODIFIER_LEFT_SHIFT, KEY_STATE_DOWN, zoom_radar);

  0022f	68 00 00 00 00	 push	 OFFSET ?zoom_radar@@YGXPAUEVENT@@@Z ; zoom_radar
  00234	6a 02		 push	 2
  00236	6a 01		 push	 1
  00238	6a 4a		 push	 74			; 0000004aH
  0023a	e8 00 00 00 00	 call	 ?set_event@@YGXHHHP6GXPAUEVENT@@@Z@Z ; set_event

; 1313 : 	set_event (DIK_SUBTRACT, MODIFIER_LEFT_CONTROL, KEY_STATE_DOWN, dec_eo_zoom_event);

  0023f	68 00 00 00 00	 push	 OFFSET ?dec_eo_zoom_event@@YGXPAUEVENT@@@Z ; dec_eo_zoom_event
  00244	6a 02		 push	 2
  00246	6a 02		 push	 2
  00248	6a 4a		 push	 74			; 0000004aH
  0024a	e8 00 00 00 00	 call	 ?set_event@@YGXHHHP6GXPAUEVENT@@@Z@Z ; set_event

; 1314 : 
; 1315 : 	set_event (DIK_NUMPAD5, MODIFIER_NONE, KEY_STATE_DOWN, steer_centre_event);

  0024f	68 00 00 00 00	 push	 OFFSET ?steer_centre_event@@YGXPAUEVENT@@@Z ; steer_centre_event
  00254	6a 02		 push	 2
  00256	6a 00		 push	 0
  00258	6a 4c		 push	 76			; 0000004cH
  0025a	e8 00 00 00 00	 call	 ?set_event@@YGXHHHP6GXPAUEVENT@@@Z@Z ; set_event

; 1316 : 	set_event (DIK_NUMPAD5, MODIFIER_LEFT_SHIFT, KEY_STATE_DOWN, steer_centre_event);

  0025f	68 00 00 00 00	 push	 OFFSET ?steer_centre_event@@YGXPAUEVENT@@@Z ; steer_centre_event
  00264	6a 02		 push	 2
  00266	6a 01		 push	 1
  00268	6a 4c		 push	 76			; 0000004cH
  0026a	e8 00 00 00 00	 call	 ?set_event@@YGXHHHP6GXPAUEVENT@@@Z@Z ; set_event

; 1317 : 
; 1318 : 	set_event (DIK_NUMPAD7, MODIFIER_NONE, KEY_STATE_DOWN, toggle_show_allied_targets_event);

  0026f	68 00 00 00 00	 push	 OFFSET ?toggle_show_allied_targets_event@@YGXPAUEVENT@@@Z ; toggle_show_allied_targets_event
  00274	6a 02		 push	 2
  00276	6a 00		 push	 0
  00278	6a 47		 push	 71			; 00000047H
  0027a	e8 00 00 00 00	 call	 ?set_event@@YGXHHHP6GXPAUEVENT@@@Z@Z ; set_event

; 1319 : 
; 1320 : 	set_event (DIK_NUMPAD9, MODIFIER_NONE, KEY_STATE_DOWN, inc_target_priority_event);

  0027f	68 00 00 00 00	 push	 OFFSET ?inc_target_priority_event@@YGXPAUEVENT@@@Z ; inc_target_priority_event
  00284	6a 02		 push	 2
  00286	6a 00		 push	 0
  00288	6a 49		 push	 73			; 00000049H
  0028a	e8 00 00 00 00	 call	 ?set_event@@YGXHHHP6GXPAUEVENT@@@Z@Z ; set_event

; 1321 : 	set_event (DIK_NUMPAD9, MODIFIER_LEFT_SHIFT, KEY_STATE_DOWN, inc_target_priority_fast_event);

  0028f	68 00 00 00 00	 push	 OFFSET ?inc_target_priority_fast_event@@YGXPAUEVENT@@@Z ; inc_target_priority_fast_event
  00294	6a 02		 push	 2
  00296	6a 01		 push	 1
  00298	6a 49		 push	 73			; 00000049H
  0029a	e8 00 00 00 00	 call	 ?set_event@@YGXHHHP6GXPAUEVENT@@@Z@Z ; set_event

; 1322 : 
; 1323 : 	set_event (DIK_NUMPAD3, MODIFIER_NONE, KEY_STATE_DOWN, dec_target_priority_event);

  0029f	68 00 00 00 00	 push	 OFFSET ?dec_target_priority_event@@YGXPAUEVENT@@@Z ; dec_target_priority_event
  002a4	6a 02		 push	 2
  002a6	6a 00		 push	 0
  002a8	6a 51		 push	 81			; 00000051H
  002aa	e8 00 00 00 00	 call	 ?set_event@@YGXHHHP6GXPAUEVENT@@@Z@Z ; set_event

; 1324 : 	set_event (DIK_NUMPAD3, MODIFIER_LEFT_SHIFT, KEY_STATE_DOWN, dec_target_priority_fast_event);

  002af	68 00 00 00 00	 push	 OFFSET ?dec_target_priority_fast_event@@YGXPAUEVENT@@@Z ; dec_target_priority_fast_event
  002b4	6a 02		 push	 2
  002b6	6a 01		 push	 1
  002b8	6a 51		 push	 81			; 00000051H
  002ba	e8 00 00 00 00	 call	 ?set_event@@YGXHHHP6GXPAUEVENT@@@Z@Z ; set_event

; 1325 : 
; 1326 : 	set_event (DIK_NUMPAD0, MODIFIER_NONE, KEY_STATE_DOWN, select_next_target_event);

  002bf	68 00 00 00 00	 push	 OFFSET ?select_next_target_event@@YGXPAUEVENT@@@Z ; select_next_target_event
  002c4	6a 02		 push	 2
  002c6	6a 00		 push	 0
  002c8	6a 52		 push	 82			; 00000052H
  002ca	e8 00 00 00 00	 call	 ?set_event@@YGXHHHP6GXPAUEVENT@@@Z@Z ; set_event

; 1327 : 	set_event (DIK_NUMPAD0, MODIFIER_LEFT_SHIFT, KEY_STATE_DOWN, select_previous_target_event);

  002cf	68 00 00 00 00	 push	 OFFSET ?select_previous_target_event@@YGXPAUEVENT@@@Z ; select_previous_target_event
  002d4	6a 02		 push	 2
  002d6	6a 01		 push	 1
  002d8	6a 52		 push	 82			; 00000052H
  002da	e8 00 00 00 00	 call	 ?set_event@@YGXHHHP6GXPAUEVENT@@@Z@Z ; set_event

; 1328 : 
; 1329 : 	set_event (DIK_NUMPAD1, MODIFIER_NONE, KEY_STATE_DOWN, toggle_auto_target_event);

  002df	68 00 00 00 00	 push	 OFFSET ?toggle_auto_target_event@@YGXPAUEVENT@@@Z ; toggle_auto_target_event
  002e4	6a 02		 push	 2
  002e6	6a 00		 push	 0
  002e8	6a 4f		 push	 79			; 0000004fH
  002ea	e8 00 00 00 00	 call	 ?set_event@@YGXHHHP6GXPAUEVENT@@@Z@Z ; set_event

; 1330 : 
; 1331 : 	set_event (DIK_NUMPADENTER, MODIFIER_NONE, KEY_STATE_DOWN, toggle_lock_target_event);

  002ef	68 00 00 00 00	 push	 OFFSET ?toggle_lock_target_event@@YGXPAUEVENT@@@Z ; toggle_lock_target_event
  002f4	6a 02		 push	 2
  002f6	6a 00		 push	 0
  002f8	68 9c 00 00 00	 push	 156			; 0000009cH
  002fd	e8 00 00 00 00	 call	 ?set_event@@YGXHHHP6GXPAUEVENT@@@Z@Z ; set_event

; 1332 : //	set_event (DIK_NUMPADENTER, MODIFIER_LEFT_ALT, KEY_STATE_DOWN, toggle_lock_target_event); // Jabberwock 031107 Designated targets
; 1333 : 	set_event (DIK_NUMPADENTER, MODIFIER_LEFT_SHIFT, KEY_STATE_DOWN, toggle_lock_target_event);

  00302	68 00 00 00 00	 push	 OFFSET ?toggle_lock_target_event@@YGXPAUEVENT@@@Z ; toggle_lock_target_event
  00307	6a 02		 push	 2
  00309	6a 01		 push	 1
  0030b	68 9c 00 00 00	 push	 156			; 0000009cH
  00310	e8 00 00 00 00	 call	 ?set_event@@YGXHHHP6GXPAUEVENT@@@Z@Z ; set_event

; 1334 : 
; 1335 : // arneh 2006-11-16 - manual radar/laser control
; 1336 : 	set_event (DIK_DIVIDE, MODIFIER_NONE, KEY_STATE_DOWN, target_acquisition_system_misc_function2_event);

  00315	68 00 00 00 00	 push	 OFFSET ?target_acquisition_system_misc_function2_event@@YGXPAUEVENT@@@Z ; target_acquisition_system_misc_function2_event
  0031a	6a 02		 push	 2
  0031c	6a 00		 push	 0
  0031e	68 b5 00 00 00	 push	 181			; 000000b5H
  00323	e8 00 00 00 00	 call	 ?set_event@@YGXHHHP6GXPAUEVENT@@@Z@Z ; set_event

; 1337 : 	set_event (DIK_DIVIDE, MODIFIER_LEFT_SHIFT, KEY_STATE_DOWN, target_acquisition_system_misc_function1_event);

  00328	68 00 00 00 00	 push	 OFFSET ?target_acquisition_system_misc_function1_event@@YGXPAUEVENT@@@Z ; target_acquisition_system_misc_function1_event
  0032d	6a 02		 push	 2
  0032f	6a 01		 push	 1
  00331	68 b5 00 00 00	 push	 181			; 000000b5H
  00336	e8 00 00 00 00	 call	 ?set_event@@YGXHHHP6GXPAUEVENT@@@Z@Z ; set_event

; 1338 : 
; 1339 : 	set_event (DIK_MULTIPLY, MODIFIER_NONE, KEY_STATE_DOWN, activate_laser_event);

  0033b	68 00 00 00 00	 push	 OFFSET ?activate_laser_event@@YGXPAUEVENT@@@Z ; activate_laser_event
  00340	6a 02		 push	 2
  00342	6a 00		 push	 0
  00344	6a 37		 push	 55			; 00000037H
  00346	e8 00 00 00 00	 call	 ?set_event@@YGXHHHP6GXPAUEVENT@@@Z@Z ; set_event

; 1340 : 
; 1341 : 	set_event (DIK_S, MODIFIER_LEFT_CONTROL, KEY_STATE_DOWN, toggle_ground_stabilisation_event);

  0034b	68 00 00 00 00	 push	 OFFSET ?toggle_ground_stabilisation_event@@YGXPAUEVENT@@@Z ; toggle_ground_stabilisation_event
  00350	6a 02		 push	 2
  00352	6a 02		 push	 2
  00354	6a 1f		 push	 31			; 0000001fH
  00356	e8 00 00 00 00	 call	 ?set_event@@YGXHHHP6GXPAUEVENT@@@Z@Z ; set_event

; 1342 : /*
; 1343 : 	set_event (DIK_DECIMAL, MODIFIER_NONE, KEY_STATE_DOWN, select_next_pfz_event);
; 1344 : 	set_event (DIK_DECIMAL, MODIFIER_LEFT_SHIFT, KEY_STATE_DOWN, select_previous_pfz_event);
; 1345 : 	set_event (DIK_DECIMAL, MODIFIER_LEFT_ALT, KEY_STATE_DOWN, deselect_pfz_event);
; 1346 : 
; 1347 : 	set_event (DIK_DECIMAL, MODIFIER_LEFT_CONTROL, KEY_STATE_DOWN, delete_current_pfz_event);
; 1348 : */
; 1349 : 	//
; 1350 : 	// miscellaneous
; 1351 : 	//
; 1352 : 
; 1353 : 	set_event (DIK_M, MODIFIER_NONE, KEY_STATE_DOWN, acknowledge_master_caution_event);

  0035b	68 00 00 00 00	 push	 OFFSET ?acknowledge_master_caution_event@@YGXPAUEVENT@@@Z ; acknowledge_master_caution_event
  00360	6a 02		 push	 2
  00362	6a 00		 push	 0
  00364	6a 32		 push	 50			; 00000032H
  00366	e8 00 00 00 00	 call	 ?set_event@@YGXHHHP6GXPAUEVENT@@@Z@Z ; set_event

; 1354 : 
; 1355 : 	set_event (DIK_A, MODIFIER_LEFT_CONTROL, KEY_STATE_DOWN, toggle_ase_auto_page_event);

  0036b	68 00 00 00 00	 push	 OFFSET ?toggle_ase_auto_page_event@@YGXPAUEVENT@@@Z ; toggle_ase_auto_page_event
  00370	6a 02		 push	 2
  00372	6a 02		 push	 2
  00374	6a 1e		 push	 30			; 0000001eH
  00376	e8 00 00 00 00	 call	 ?set_event@@YGXHHHP6GXPAUEVENT@@@Z@Z ; set_event

; 1356 : 
; 1357 : 	set_event (DIK_D, MODIFIER_NONE, KEY_STATE_DOWN, select_next_tsd_declutter_level_event);

  0037b	68 00 00 00 00	 push	 OFFSET ?select_next_tsd_declutter_level_event@@YGXPAUEVENT@@@Z ; select_next_tsd_declutter_level_event
  00380	6a 02		 push	 2
  00382	6a 00		 push	 0
  00384	6a 20		 push	 32			; 00000020H
  00386	e8 00 00 00 00	 call	 ?set_event@@YGXHHHP6GXPAUEVENT@@@Z@Z ; set_event

; 1358 : // have not GCsDriver  08-12-2007
; 1359 : //	set_event (DIK_D, MODIFIER_LEFT_SHIFT, KEY_STATE_DOWN, select_next_tsd_underlay_level_event);
; 1360 : 
; 1361 : 	set_event (DIK_E, MODIFIER_NONE, KEY_STATE_DOWN, select_next_tsd_ase_range_event);

  0038b	68 00 00 00 00	 push	 OFFSET ?select_next_tsd_ase_range_event@@YGXPAUEVENT@@@Z ; select_next_tsd_ase_range_event
  00390	6a 02		 push	 2
  00392	6a 00		 push	 0
  00394	6a 12		 push	 18			; 00000012H
  00396	e8 00 00 00 00	 call	 ?set_event@@YGXHHHP6GXPAUEVENT@@@Z@Z ; set_event

; 1362 : 
; 1363 : 	set_event (DIK_E, MODIFIER_LEFT_SHIFT, KEY_STATE_DOWN, select_previous_tsd_ase_range_event);

  0039b	68 00 00 00 00	 push	 OFFSET ?select_previous_tsd_ase_range_event@@YGXPAUEVENT@@@Z ; select_previous_tsd_ase_range_event
  003a0	6a 02		 push	 2
  003a2	6a 01		 push	 1
  003a4	6a 12		 push	 18			; 00000012H
  003a6	e8 00 00 00 00	 call	 ?set_event@@YGXHHHP6GXPAUEVENT@@@Z@Z ; set_event

; 1364 : 
; 1365 : 	set_event (DIK_L, MODIFIER_NONE, KEY_STATE_DOWN, toggle_lobl_loal_event);

  003ab	68 00 00 00 00	 push	 OFFSET ?toggle_lobl_loal_event@@YGXPAUEVENT@@@Z ; toggle_lobl_loal_event
  003b0	6a 02		 push	 2
  003b2	6a 00		 push	 0
  003b4	6a 26		 push	 38			; 00000026H
  003b6	e8 00 00 00 00	 call	 ?set_event@@YGXHHHP6GXPAUEVENT@@@Z@Z ; set_event

; 1366 : 
; 1367 : 	set_event (DIK_N, MODIFIER_NONE, KEY_STATE_DOWN, toggle_night_vision_system_event);

  003bb	68 00 00 00 00	 push	 OFFSET ?toggle_night_vision_system_event@@YGXPAUEVENT@@@Z ; toggle_night_vision_system_event
  003c0	6a 02		 push	 2
  003c2	6a 00		 push	 0
  003c4	6a 31		 push	 49			; 00000031H
  003c6	e8 00 00 00 00	 call	 ?set_event@@YGXHHHP6GXPAUEVENT@@@Z@Z ; set_event

; 1368 : 
; 1369 : 	set_event (DIK_O, MODIFIER_NONE, KEY_STATE_DOWN, set_hud_bob_up_overlay_event);

  003cb	68 00 00 00 00	 push	 OFFSET ?set_hud_bob_up_overlay_event@@YGXPAUEVENT@@@Z ; set_hud_bob_up_overlay_event
  003d0	6a 02		 push	 2
  003d2	6a 00		 push	 0
  003d4	6a 18		 push	 24			; 00000018H
  003d6	e8 00 00 00 00	 call	 ?set_event@@YGXHHHP6GXPAUEVENT@@@Z@Z ; set_event

; 1370 : 
; 1371 : 	set_event (DIK_O, MODIFIER_LEFT_SHIFT, KEY_STATE_DOWN, switch_hud_mode_event);

  003db	68 00 00 00 00	 push	 OFFSET ?switch_hud_mode_event@@YGXPAUEVENT@@@Z ; switch_hud_mode_event
  003e0	6a 02		 push	 2
  003e2	6a 01		 push	 1
  003e4	6a 18		 push	 24			; 00000018H
  003e6	e8 00 00 00 00	 call	 ?set_event@@YGXHHHP6GXPAUEVENT@@@Z@Z ; set_event

; 1372 : 
; 1373 : 	set_event (DIK_O, MODIFIER_LEFT_CONTROL, KEY_STATE_DOWN, clear_hud_bob_up_overlay_event);

  003eb	68 00 00 00 00	 push	 OFFSET ?clear_hud_bob_up_overlay_event@@YGXPAUEVENT@@@Z ; clear_hud_bob_up_overlay_event
  003f0	6a 02		 push	 2
  003f2	6a 02		 push	 2
  003f4	6a 18		 push	 24			; 00000018H
  003f6	e8 00 00 00 00	 call	 ?set_event@@YGXHHHP6GXPAUEVENT@@@Z@Z ; set_event

; 1374 : 
; 1375 : 	set_event (DIK_V, MODIFIER_NONE, KEY_STATE_DOWN, toggle_navigation_lights_event);

  003fb	68 00 00 00 00	 push	 OFFSET ?toggle_navigation_lights_event@@YGXPAUEVENT@@@Z ; toggle_navigation_lights_event
  00400	6a 02		 push	 2
  00402	6a 00		 push	 0
  00404	6a 2f		 push	 47			; 0000002fH
  00406	e8 00 00 00 00	 call	 ?set_event@@YGXHHHP6GXPAUEVENT@@@Z@Z ; set_event

; 1376 : 
; 1377 : 	set_event (DIK_1, MODIFIER_NONE, KEY_STATE_DOWN, virtual_cockpit_track_target_event);

  0040b	68 00 00 00 00	 push	 OFFSET ?virtual_cockpit_track_target_event@@YGXPAUEVENT@@@Z ; virtual_cockpit_track_target_event
  00410	6a 02		 push	 2
  00412	6a 00		 push	 0
  00414	6a 02		 push	 2
  00416	e8 00 00 00 00	 call	 ?set_event@@YGXHHHP6GXPAUEVENT@@@Z@Z ; set_event

; 1378 : 
; 1379 : 	set_event (DIK_NUMPADENTER, MODIFIER_LEFT_CONTROL, KEY_STATE_DOWN, virtual_cockpit_track_target_event);

  0041b	68 00 00 00 00	 push	 OFFSET ?virtual_cockpit_track_target_event@@YGXPAUEVENT@@@Z ; virtual_cockpit_track_target_event
  00420	6a 02		 push	 2
  00422	6a 02		 push	 2
  00424	68 9c 00 00 00	 push	 156			; 0000009cH
  00429	e8 00 00 00 00	 call	 ?set_event@@YGXHHHP6GXPAUEVENT@@@Z@Z ; set_event

; 1380 : 
; 1381 : 	set_event (DIK_BACKSPACE, MODIFIER_LEFT_ALT, KEY_STATE_DOWN, select_cannon_event);

  0042e	68 00 00 00 00	 push	 OFFSET ?select_cannon_event@@YGXPAUEVENT@@@Z ; select_cannon_event
  00433	6a 02		 push	 2
  00435	6a 03		 push	 3
  00437	6a 0e		 push	 14			; 0000000eH
  00439	e8 00 00 00 00	 call	 ?set_event@@YGXHHHP6GXPAUEVENT@@@Z@Z ; set_event

; 1382 : 
; 1383 : 	set_event (DIK_LBRACKET, MODIFIER_NONE, KEY_STATE_DOWN, select_next_lhs_mfd_event);

  0043e	68 00 00 00 00	 push	 OFFSET ?select_next_lhs_mfd_event@@YGXPAUEVENT@@@Z ; select_next_lhs_mfd_event
  00443	6a 02		 push	 2
  00445	6a 00		 push	 0
  00447	6a 1a		 push	 26			; 0000001aH
  00449	e8 00 00 00 00	 call	 ?set_event@@YGXHHHP6GXPAUEVENT@@@Z@Z ; set_event

; 1384 : 
; 1385 : 	set_event (DIK_LBRACKET, MODIFIER_LEFT_SHIFT, KEY_STATE_DOWN, select_previous_lhs_mfd_event);

  0044e	68 00 00 00 00	 push	 OFFSET ?select_previous_lhs_mfd_event@@YGXPAUEVENT@@@Z ; select_previous_lhs_mfd_event
  00453	6a 02		 push	 2
  00455	6a 01		 push	 1
  00457	6a 1a		 push	 26			; 0000001aH
  00459	e8 00 00 00 00	 call	 ?set_event@@YGXHHHP6GXPAUEVENT@@@Z@Z ; set_event

; 1386 : 
; 1387 : 	set_event (DIK_LBRACKET, MODIFIER_LEFT_CONTROL, KEY_STATE_DOWN, toggle_lhs_mfd_on_off_event);

  0045e	68 00 00 00 00	 push	 OFFSET ?toggle_lhs_mfd_on_off_event@@YGXPAUEVENT@@@Z ; toggle_lhs_mfd_on_off_event
  00463	6a 02		 push	 2
  00465	6a 02		 push	 2
  00467	6a 1a		 push	 26			; 0000001aH
  00469	e8 00 00 00 00	 call	 ?set_event@@YGXHHHP6GXPAUEVENT@@@Z@Z ; set_event

; 1388 : 
; 1389 : 	set_event (DIK_RBRACKET, MODIFIER_NONE, KEY_STATE_DOWN, select_next_rhs_mfd_event);

  0046e	68 00 00 00 00	 push	 OFFSET ?select_next_rhs_mfd_event@@YGXPAUEVENT@@@Z ; select_next_rhs_mfd_event
  00473	6a 02		 push	 2
  00475	6a 00		 push	 0
  00477	6a 1b		 push	 27			; 0000001bH
  00479	e8 00 00 00 00	 call	 ?set_event@@YGXHHHP6GXPAUEVENT@@@Z@Z ; set_event

; 1390 : 
; 1391 : 	set_event (DIK_RBRACKET, MODIFIER_LEFT_SHIFT, KEY_STATE_DOWN, select_previous_rhs_mfd_event);

  0047e	68 00 00 00 00	 push	 OFFSET ?select_previous_rhs_mfd_event@@YGXPAUEVENT@@@Z ; select_previous_rhs_mfd_event
  00483	6a 02		 push	 2
  00485	6a 01		 push	 1
  00487	6a 1b		 push	 27			; 0000001bH
  00489	e8 00 00 00 00	 call	 ?set_event@@YGXHHHP6GXPAUEVENT@@@Z@Z ; set_event

; 1392 : 
; 1393 : 	set_event (DIK_RBRACKET, MODIFIER_LEFT_CONTROL, KEY_STATE_DOWN, toggle_rhs_mfd_on_off_event);

  0048e	68 00 00 00 00	 push	 OFFSET ?toggle_rhs_mfd_on_off_event@@YGXPAUEVENT@@@Z ; toggle_rhs_mfd_on_off_event
  00493	6a 02		 push	 2
  00495	6a 02		 push	 2
  00497	6a 1b		 push	 27			; 0000001bH
  00499	e8 00 00 00 00	 call	 ?set_event@@YGXHHHP6GXPAUEVENT@@@Z@Z ; set_event

; 1394 : 
; 1395 : 	set_event (DIK_1, MODIFIER_LEFT_CONTROL, KEY_STATE_DOWN, select_lhs_ground_radar_mfd_event);

  0049e	68 00 00 00 00	 push	 OFFSET ?select_lhs_ground_radar_mfd_event@@YGXPAUEVENT@@@Z ; select_lhs_ground_radar_mfd_event
  004a3	6a 02		 push	 2
  004a5	6a 02		 push	 2
  004a7	6a 02		 push	 2
  004a9	e8 00 00 00 00	 call	 ?set_event@@YGXHHHP6GXPAUEVENT@@@Z@Z ; set_event

; 1396 : 
; 1397 : 	set_event (DIK_1, MODIFIER_LEFT_ALT, KEY_STATE_DOWN, select_rhs_ground_radar_mfd_event);

  004ae	68 00 00 00 00	 push	 OFFSET ?select_rhs_ground_radar_mfd_event@@YGXPAUEVENT@@@Z ; select_rhs_ground_radar_mfd_event
  004b3	6a 02		 push	 2
  004b5	6a 03		 push	 3
  004b7	6a 02		 push	 2
  004b9	e8 00 00 00 00	 call	 ?set_event@@YGXHHHP6GXPAUEVENT@@@Z@Z ; set_event

; 1398 : 
; 1399 : 	set_event (DIK_2, MODIFIER_LEFT_CONTROL, KEY_STATE_DOWN, select_lhs_air_radar_mfd_event);

  004be	68 00 00 00 00	 push	 OFFSET ?select_lhs_air_radar_mfd_event@@YGXPAUEVENT@@@Z ; select_lhs_air_radar_mfd_event
  004c3	6a 02		 push	 2
  004c5	6a 02		 push	 2
  004c7	6a 03		 push	 3
  004c9	e8 00 00 00 00	 call	 ?set_event@@YGXHHHP6GXPAUEVENT@@@Z@Z ; set_event

; 1400 : 
; 1401 : 	set_event (DIK_2, MODIFIER_LEFT_ALT, KEY_STATE_DOWN, select_rhs_air_radar_mfd_event);

  004ce	68 00 00 00 00	 push	 OFFSET ?select_rhs_air_radar_mfd_event@@YGXPAUEVENT@@@Z ; select_rhs_air_radar_mfd_event
  004d3	6a 02		 push	 2
  004d5	6a 03		 push	 3
  004d7	6a 03		 push	 3
  004d9	e8 00 00 00 00	 call	 ?set_event@@YGXHHHP6GXPAUEVENT@@@Z@Z ; set_event

; 1402 : 
; 1403 : 	set_event (DIK_3, MODIFIER_LEFT_CONTROL, KEY_STATE_DOWN, select_lhs_tads_mfd_event);

  004de	68 00 00 00 00	 push	 OFFSET ?select_lhs_tads_mfd_event@@YGXPAUEVENT@@@Z ; select_lhs_tads_mfd_event
  004e3	6a 02		 push	 2
  004e5	6a 02		 push	 2
  004e7	6a 04		 push	 4
  004e9	e8 00 00 00 00	 call	 ?set_event@@YGXHHHP6GXPAUEVENT@@@Z@Z ; set_event

; 1404 : 
; 1405 : 	set_event (DIK_3, MODIFIER_LEFT_ALT, KEY_STATE_DOWN, select_rhs_tads_mfd_event);

  004ee	68 00 00 00 00	 push	 OFFSET ?select_rhs_tads_mfd_event@@YGXPAUEVENT@@@Z ; select_rhs_tads_mfd_event
  004f3	6a 02		 push	 2
  004f5	6a 03		 push	 3
  004f7	6a 04		 push	 4
  004f9	e8 00 00 00 00	 call	 ?set_event@@YGXHHHP6GXPAUEVENT@@@Z@Z ; set_event

; 1406 : 
; 1407 : 	set_event (DIK_4, MODIFIER_LEFT_CONTROL, KEY_STATE_DOWN, select_lhs_tsd_mfd_event);

  004fe	68 00 00 00 00	 push	 OFFSET ?select_lhs_tsd_mfd_event@@YGXPAUEVENT@@@Z ; select_lhs_tsd_mfd_event
  00503	6a 02		 push	 2
  00505	6a 02		 push	 2
  00507	6a 05		 push	 5
  00509	e8 00 00 00 00	 call	 ?set_event@@YGXHHHP6GXPAUEVENT@@@Z@Z ; set_event

; 1408 : 
; 1409 : 	set_event (DIK_4, MODIFIER_LEFT_ALT, KEY_STATE_DOWN, select_rhs_tsd_mfd_event);

  0050e	68 00 00 00 00	 push	 OFFSET ?select_rhs_tsd_mfd_event@@YGXPAUEVENT@@@Z ; select_rhs_tsd_mfd_event
  00513	6a 02		 push	 2
  00515	6a 03		 push	 3
  00517	6a 05		 push	 5
  00519	e8 00 00 00 00	 call	 ?set_event@@YGXHHHP6GXPAUEVENT@@@Z@Z ; set_event

; 1410 : 
; 1411 : 	set_event (DIK_5, MODIFIER_LEFT_CONTROL, KEY_STATE_DOWN, select_lhs_ase_mfd_event);

  0051e	68 00 00 00 00	 push	 OFFSET ?select_lhs_ase_mfd_event@@YGXPAUEVENT@@@Z ; select_lhs_ase_mfd_event
  00523	6a 02		 push	 2
  00525	6a 02		 push	 2
  00527	6a 06		 push	 6
  00529	e8 00 00 00 00	 call	 ?set_event@@YGXHHHP6GXPAUEVENT@@@Z@Z ; set_event

; 1412 : 
; 1413 : 	set_event (DIK_5, MODIFIER_LEFT_ALT, KEY_STATE_DOWN, select_rhs_ase_mfd_event);

  0052e	68 00 00 00 00	 push	 OFFSET ?select_rhs_ase_mfd_event@@YGXPAUEVENT@@@Z ; select_rhs_ase_mfd_event
  00533	6a 02		 push	 2
  00535	6a 03		 push	 3
  00537	6a 06		 push	 6
  00539	e8 00 00 00 00	 call	 ?set_event@@YGXHHHP6GXPAUEVENT@@@Z@Z ; set_event

; 1414 : 
; 1415 : 	set_event (DIK_6, MODIFIER_LEFT_CONTROL, KEY_STATE_DOWN, select_lhs_weapon_mfd_event);

  0053e	68 00 00 00 00	 push	 OFFSET ?select_lhs_weapon_mfd_event@@YGXPAUEVENT@@@Z ; select_lhs_weapon_mfd_event
  00543	6a 02		 push	 2
  00545	6a 02		 push	 2
  00547	6a 07		 push	 7
  00549	e8 00 00 00 00	 call	 ?set_event@@YGXHHHP6GXPAUEVENT@@@Z@Z ; set_event

; 1416 : 
; 1417 : 	set_event (DIK_6, MODIFIER_LEFT_ALT, KEY_STATE_DOWN, select_rhs_weapon_mfd_event);

  0054e	68 00 00 00 00	 push	 OFFSET ?select_rhs_weapon_mfd_event@@YGXPAUEVENT@@@Z ; select_rhs_weapon_mfd_event
  00553	6a 02		 push	 2
  00555	6a 03		 push	 3
  00557	6a 07		 push	 7
  00559	e8 00 00 00 00	 call	 ?set_event@@YGXHHHP6GXPAUEVENT@@@Z@Z ; set_event

; 1418 : 
; 1419 : 	set_event (DIK_7, MODIFIER_LEFT_CONTROL, KEY_STATE_DOWN, select_lhs_system_mfd_event);

  0055e	68 00 00 00 00	 push	 OFFSET ?select_lhs_system_mfd_event@@YGXPAUEVENT@@@Z ; select_lhs_system_mfd_event
  00563	6a 02		 push	 2
  00565	6a 02		 push	 2
  00567	6a 08		 push	 8
  00569	e8 00 00 00 00	 call	 ?set_event@@YGXHHHP6GXPAUEVENT@@@Z@Z ; set_event

; 1420 : 
; 1421 : 	set_event (DIK_7, MODIFIER_LEFT_ALT, KEY_STATE_DOWN, select_rhs_system_mfd_event);

  0056e	68 00 00 00 00	 push	 OFFSET ?select_rhs_system_mfd_event@@YGXPAUEVENT@@@Z ; select_rhs_system_mfd_event
  00573	6a 02		 push	 2
  00575	6a 03		 push	 3
  00577	6a 08		 push	 8
  00579	e8 00 00 00 00	 call	 ?set_event@@YGXHHHP6GXPAUEVENT@@@Z@Z ; set_event

; 1422 : 
; 1423 : 	set_event (DIK_8, MODIFIER_LEFT_CONTROL, KEY_STATE_DOWN, select_lhs_engine_mfd_event);

  0057e	68 00 00 00 00	 push	 OFFSET ?select_lhs_engine_mfd_event@@YGXPAUEVENT@@@Z ; select_lhs_engine_mfd_event
  00583	6a 02		 push	 2
  00585	6a 02		 push	 2
  00587	6a 09		 push	 9
  00589	e8 00 00 00 00	 call	 ?set_event@@YGXHHHP6GXPAUEVENT@@@Z@Z ; set_event

; 1424 : 
; 1425 : 	set_event (DIK_8, MODIFIER_LEFT_ALT, KEY_STATE_DOWN, select_rhs_engine_mfd_event);

  0058e	68 00 00 00 00	 push	 OFFSET ?select_rhs_engine_mfd_event@@YGXPAUEVENT@@@Z ; select_rhs_engine_mfd_event
  00593	6a 02		 push	 2
  00595	6a 03		 push	 3
  00597	6a 09		 push	 9
  00599	e8 00 00 00 00	 call	 ?set_event@@YGXHHHP6GXPAUEVENT@@@Z@Z ; set_event

; 1426 : 
; 1427 : 	set_event (DIK_9, MODIFIER_LEFT_CONTROL, KEY_STATE_DOWN, select_lhs_flight_mfd_event);

  0059e	68 00 00 00 00	 push	 OFFSET ?select_lhs_flight_mfd_event@@YGXPAUEVENT@@@Z ; select_lhs_flight_mfd_event
  005a3	6a 02		 push	 2
  005a5	6a 02		 push	 2
  005a7	6a 0a		 push	 10			; 0000000aH
  005a9	e8 00 00 00 00	 call	 ?set_event@@YGXHHHP6GXPAUEVENT@@@Z@Z ; set_event

; 1428 : 
; 1429 : 	set_event (DIK_9, MODIFIER_LEFT_ALT, KEY_STATE_DOWN, select_rhs_flight_mfd_event);

  005ae	68 00 00 00 00	 push	 OFFSET ?select_rhs_flight_mfd_event@@YGXPAUEVENT@@@Z ; select_rhs_flight_mfd_event
  005b3	6a 02		 push	 2
  005b5	6a 03		 push	 3
  005b7	6a 0a		 push	 10			; 0000000aH
  005b9	e8 00 00 00 00	 call	 ?set_event@@YGXHHHP6GXPAUEVENT@@@Z@Z ; set_event

; 1430 : 
; 1431 : 	set_event (DIK_I, MODIFIER_NONE, KEY_STATE_DOWN, toggle_infra_red_jammer_event);

  005be	68 00 00 00 00	 push	 OFFSET ?toggle_infra_red_jammer_event@@YGXPAUEVENT@@@Z ; toggle_infra_red_jammer_event
  005c3	6a 02		 push	 2
  005c5	6a 00		 push	 0
  005c7	6a 17		 push	 23			; 00000017H
  005c9	e8 00 00 00 00	 call	 ?set_event@@YGXHHHP6GXPAUEVENT@@@Z@Z ; set_event

; 1432 : 
; 1433 : 	set_event (DIK_J, MODIFIER_NONE, KEY_STATE_DOWN, toggle_radar_jammer_event);

  005ce	68 00 00 00 00	 push	 OFFSET ?toggle_radar_jammer_event@@YGXPAUEVENT@@@Z ; toggle_radar_jammer_event
  005d3	6a 02		 push	 2
  005d5	6a 00		 push	 0
  005d7	6a 24		 push	 36			; 00000024H
  005d9	e8 00 00 00 00	 call	 ?set_event@@YGXHHHP6GXPAUEVENT@@@Z@Z ; set_event

; 1434 : 
; 1435 : 	////////////////////////////////////////
; 1436 : 	//
; 1437 : 	// JOYSTICK EVENTS
; 1438 : 	//
; 1439 : 	////////////////////////////////////////
; 1440 : 
; 1441 : 	set_event ((JOYSTICK_BUTTON + 3), MODIFIER_NONE, KEY_STATE_DOWN, select_next_target_event);

  005de	68 00 00 00 00	 push	 OFFSET ?select_next_target_event@@YGXPAUEVENT@@@Z ; select_next_target_event
  005e3	6a 02		 push	 2
  005e5	6a 00		 push	 0
  005e7	68 0e 01 00 00	 push	 270			; 0000010eH
  005ec	e8 00 00 00 00	 call	 ?set_event@@YGXHHHP6GXPAUEVENT@@@Z@Z ; set_event

; 1442 : 
; 1443 : 	set_event ((JOYSTICK_BUTTON + 4), MODIFIER_NONE, KEY_STATE_DOWN, virtual_cockpit_track_target_event);

  005f1	68 00 00 00 00	 push	 OFFSET ?virtual_cockpit_track_target_event@@YGXPAUEVENT@@@Z ; virtual_cockpit_track_target_event
  005f6	6a 02		 push	 2
  005f8	6a 00		 push	 0
  005fa	68 0f 01 00 00	 push	 271			; 0000010fH
  005ff	e8 00 00 00 00	 call	 ?set_event@@YGXHHHP6GXPAUEVENT@@@Z@Z ; set_event
$LN1@set_defaul:

; 1444 : 	
; 1445 : }

  00604	5f		 pop	 edi
  00605	5e		 pop	 esi
  00606	5b		 pop	 ebx
  00607	8b e5		 mov	 esp, ebp
  00609	5d		 pop	 ebp
  0060a	c3		 ret	 0
?set_default_avionics_events@@YGXXZ ENDP		; set_default_avionics_events
_TEXT	ENDS
END
