; Listing generated by Microsoft (R) Optimizing Compiler Version 19.16.27045.0 

	TITLE	C:\Users\nhv90\Projects\eech\aphavoc\source\gunships\avionics\default\df_eo.c
	.686P
	.XMM
	include listing.inc
	.model	flat

INCLUDELIB MSVCRTD
INCLUDELIB OLDNAMES

PUBLIC	?default_flir@@3UEO_PARAMS@@A			; default_flir
PUBLIC	?default_dtv@@3UEO_PARAMS@@A			; default_dtv
PUBLIC	?default_dvo@@3UEO_PARAMS@@A			; default_dvo
_BSS	SEGMENT
?default_flir@@3UEO_PARAMS@@A DB 0cH DUP (?)		; default_flir
?default_dtv@@3UEO_PARAMS@@A DB 0cH DUP (?)		; default_dtv
?default_dvo@@3UEO_PARAMS@@A DB 0cH DUP (?)		; default_dvo
_BSS	ENDS
PUBLIC	?initialise_default_eo@@YGXXZ			; initialise_default_eo
PUBLIC	?deinitialise_default_eo@@YGXXZ			; deinitialise_default_eo
PUBLIC	?get_default_eo_centred_viewpoint@@YGXPAUVIEWPOINT@@@Z ; get_default_eo_centred_viewpoint
PUBLIC	?update_default_eo@@YGXPAUEO_PARAMS@@@Z		; update_default_eo
PUBLIC	?centre_default_eo@@YGXXZ			; centre_default_eo
PUBLIC	?animate_default_eo@@YGXPAUOBJECT_3D_INSTANCE@@@Z ; animate_default_eo
PUBLIC	?slave_default_eo_to_current_target@@YGXXZ	; slave_default_eo_to_current_target
PUBLIC	?inc_default_eo_zoom@@YGXXZ			; inc_default_eo_zoom
PUBLIC	?dec_default_eo_zoom@@YGXXZ			; dec_default_eo_zoom
PUBLIC	?toggle_default_eo_system@@YGXXZ		; toggle_default_eo_system
PUBLIC	?__LINE__Var@?0??get_default_eo_centred_viewpoint@@YGXPAUVIEWPOINT@@@Z@4JA ; `get_default_eo_centred_viewpoint'::`1'::__LINE__Var
PUBLIC	??_C@_0EO@BPMJDFEC@c?3?2users?2nhv90?2projects?2eech?2ap@ ; `string'
PUBLIC	??_C@_02HPPNELPJ@vp@				; `string'
PUBLIC	??_C@_06DDNABPCD@inst3d@			; `string'
PUBLIC	??_C@_0DM@OPDFHCEJ@OBJECT_3D_SUB_OBJECT_AH64D_TADS@ ; `string'
PUBLIC	?__LINE__Var@?0??inc_eo_field_of_view@@YGXPAUEO_PARAMS@@@Z@4JA ; `inc_eo_field_of_view'::`1'::__LINE__Var
PUBLIC	??_C@_02KMMHFIEO@eo@				; `string'
PUBLIC	?__LINE__Var@?0??fast_inc_eo_field_of_view@@YGXPAUEO_PARAMS@@@Z@4JA ; `fast_inc_eo_field_of_view'::`1'::__LINE__Var
PUBLIC	?__LINE__Var@?0??dec_eo_field_of_view@@YGXPAUEO_PARAMS@@@Z@4JA ; `dec_eo_field_of_view'::`1'::__LINE__Var
PUBLIC	?__LINE__Var@?0??fast_dec_eo_field_of_view@@YGXPAUEO_PARAMS@@@Z@4JA ; `fast_dec_eo_field_of_view'::`1'::__LINE__Var
PUBLIC	?__LINE__Var@?0??update_default_eo@@YGXPAUEO_PARAMS@@@Z@4JA ; `update_default_eo'::`1'::__LINE__Var
PUBLIC	??_C@_0BL@MNOBOANG@Invalid?5field?5of?5view?5?$DN?5?$CFd@ ; `string'
PUBLIC	?__LINE__Var@?0??animate_default_eo@@YGXPAUOBJECT_3D_INSTANCE@@@Z@4JA ; `animate_default_eo'::`1'::__LINE__Var
PUBLIC	__real@3dd67750
PUBLIC	__real@3f060a92
PUBLIC	__real@3f567750
PUBLIC	__real@3f5c987100000000
PUBLIC	__real@3f71df46a0000000
PUBLIC	__real@3f81df46a0000000
PUBLIC	__real@3f860a92
PUBLIC	__real@3f91df46a0000000
PUBLIC	__real@3f957254c0000000
PUBLIC	__real@3fa1df46a0000000
PUBLIC	__real@3fa6571848000000
PUBLIC	__real@3fb1df46a0000000
PUBLIC	__real@3fc6571848000000
PUBLIC	__real@3fd6571848000000
PUBLIC	__real@3ff6571848000000
PUBLIC	__real@4014000000000000
PUBLIC	__real@45bb8000
PUBLIC	__real@bf860a92
PUBLIC	__xmm@80000000800000008000000080000000
EXTRN	_memcpy:PROC
EXTRN	?process_assert@@YGXPBD0H@Z:PROC		; process_assert
EXTRN	?debug_fatal@@YAXPBDZZ:PROC			; debug_fatal
EXTRN	?debug_log@@YAXPBDZZ:PROC			; debug_log
EXTRN	?get_3d_sub_object_world_viewpoint@@YGXPAUOBJECT_3D_SUB_INSTANCE@@PAUVIEWPOINT@@@Z:PROC ; get_3d_sub_object_world_viewpoint
EXTRN	?find_object_3d_sub_object@@YG?AW4SUB_OBJECT_SEARCH_RESULT_TYPES@@PAUOBJECT_3D_SUB_OBJECT_SEARCH_DATA@@@Z:PROC ; find_object_3d_sub_object
EXTRN	?find_object_3d_sub_object_from_sub_object@@YG?AW4SUB_OBJECT_SEARCH_RESULT_TYPES@@PAUOBJECT_3D_SUB_OBJECT_SEARCH_DATA@@0@Z:PROC ; find_object_3d_sub_object_from_sub_object
EXTRN	?keyboard_slew_eo_system@@YGXMMM@Z:PROC		; keyboard_slew_eo_system
EXTRN	?joystick_slew_eo_system@@YGXM@Z:PROC		; joystick_slew_eo_system
EXTRN	?get_eo_azimuth@@YGMMMMMMM@Z:PROC		; get_eo_azimuth
EXTRN	?get_eo_elevation@@YGMMMMMMM@Z:PROC		; get_eo_elevation
EXTRN	?get_old_eo_zoom@@YGMMMM@Z:PROC			; get_old_eo_zoom
EXTRN	?toggle_ground_stabilisation@@YGXXZ:PROC	; toggle_ground_stabilisation
EXTRN	?handle_ground_stabilisation@@YGXXZ:PROC	; handle_ground_stabilisation
EXTRN	__ftol2_sse:PROC
EXTRN	?system_delta_time@@3MA:DWORD			; system_delta_time
EXTRN	?command_line_mouse_look_speed@@3HA:DWORD	; command_line_mouse_look_speed
EXTRN	?command_line_eo_pan_joystick_index@@3HA:DWORD	; command_line_eo_pan_joystick_index
EXTRN	?command_line_manual_laser_radar@@3HA:DWORD	; command_line_manual_laser_radar
EXTRN	?null_entity_pointer_message@@3PBDB:DWORD	; null_entity_pointer_message
EXTRN	?fn_get_local_entity_attitude_matrix@@3PAP6GXPAUENTITY@@QAY02M@ZA:BYTE ; fn_get_local_entity_attitude_matrix
EXTRN	?overload_invalid_ptr_type_message@@3PBDB:DWORD	; overload_invalid_ptr_type_message
EXTRN	?fn_get_local_entity_ptr_value@@3PAY0BE@P6GPAXPAUENTITY@@W4PTR_TYPES@@@ZA:BYTE ; fn_get_local_entity_ptr_value
EXTRN	?overload_invalid_vec3d_type_message@@3PBDB:DWORD ; overload_invalid_vec3d_type_message
EXTRN	?fn_get_local_entity_vec3d@@3PAY0BI@P6GXPAUENTITY@@W4VEC3D_TYPES@@PAUVEC3D@@@ZA:BYTE ; fn_get_local_entity_vec3d
EXTRN	?gunship_entity@@3PAUENTITY@@A:DWORD		; gunship_entity
EXTRN	?pilot_head_heading@@3MA:DWORD			; pilot_head_heading
EXTRN	?target_acquisition_system@@3W4TARGET_ACQUISITION_SYSTEMS@@A:DWORD ; target_acquisition_system
EXTRN	?single_target_acquisition_system_inc_range_key@@3HA:DWORD ; single_target_acquisition_system_inc_range_key
EXTRN	?single_target_acquisition_system_dec_range_key@@3HA:DWORD ; single_target_acquisition_system_dec_range_key
EXTRN	?single_target_acquisition_system_inc_range_fast_key@@3HA:DWORD ; single_target_acquisition_system_inc_range_fast_key
EXTRN	?single_target_acquisition_system_dec_range_fast_key@@3HA:DWORD ; single_target_acquisition_system_dec_range_fast_key
EXTRN	?toggle_ground_stabilisation_key@@3HA:DWORD	; toggle_ground_stabilisation_key
EXTRN	?eo_on_target@@3HA:DWORD			; eo_on_target
EXTRN	?eo_ground_stabilised@@3HA:DWORD		; eo_ground_stabilised
EXTRN	?eo_sensor@@3W4TARGET_ACQUISITION_SYSTEMS@@A:DWORD ; eo_sensor
EXTRN	?eo_azimuth@@3MA:DWORD				; eo_azimuth
EXTRN	?eo_min_azimuth@@3MA:DWORD			; eo_min_azimuth
EXTRN	?eo_max_azimuth@@3MA:DWORD			; eo_max_azimuth
EXTRN	?eo_elevation@@3MA:DWORD			; eo_elevation
EXTRN	?eo_min_elevation@@3MA:DWORD			; eo_min_elevation
EXTRN	?eo_max_elevation@@3MA:DWORD			; eo_max_elevation
EXTRN	?eo_max_visual_range@@3MA:DWORD			; eo_max_visual_range
EXTRN	__fltused:DWORD
;	COMDAT __xmm@80000000800000008000000080000000
CONST	SEGMENT
__xmm@80000000800000008000000080000000 DB 00H, 00H, 00H, 080H, 00H, 00H, 00H
	DB	080H, 00H, 00H, 00H, 080H, 00H, 00H, 00H, 080H
CONST	ENDS
;	COMDAT __real@bf860a92
CONST	SEGMENT
__real@bf860a92 DD 0bf860a92r			; -1.0472
CONST	ENDS
;	COMDAT __real@45bb8000
CONST	SEGMENT
__real@45bb8000 DD 045bb8000r			; 6000
CONST	ENDS
;	COMDAT __real@4014000000000000
CONST	SEGMENT
__real@4014000000000000 DQ 04014000000000000r	; 5
CONST	ENDS
;	COMDAT __real@3ff6571848000000
CONST	SEGMENT
__real@3ff6571848000000 DQ 03ff6571848000000r	; 1.39626
CONST	ENDS
;	COMDAT __real@3fd6571848000000
CONST	SEGMENT
__real@3fd6571848000000 DQ 03fd6571848000000r	; 0.349066
CONST	ENDS
;	COMDAT __real@3fc6571848000000
CONST	SEGMENT
__real@3fc6571848000000 DQ 03fc6571848000000r	; 0.174533
CONST	ENDS
;	COMDAT __real@3fb1df46a0000000
CONST	SEGMENT
__real@3fb1df46a0000000 DQ 03fb1df46a0000000r	; 0.0698132
CONST	ENDS
;	COMDAT __real@3fa6571848000000
CONST	SEGMENT
__real@3fa6571848000000 DQ 03fa6571848000000r	; 0.0436332
CONST	ENDS
;	COMDAT __real@3fa1df46a0000000
CONST	SEGMENT
__real@3fa1df46a0000000 DQ 03fa1df46a0000000r	; 0.0349066
CONST	ENDS
;	COMDAT __real@3f957254c0000000
CONST	SEGMENT
__real@3f957254c0000000 DQ 03f957254c0000000r	; 0.020944
CONST	ENDS
;	COMDAT __real@3f91df46a0000000
CONST	SEGMENT
__real@3f91df46a0000000 DQ 03f91df46a0000000r	; 0.0174533
CONST	ENDS
;	COMDAT __real@3f860a92
CONST	SEGMENT
__real@3f860a92 DD 03f860a92r			; 1.0472
CONST	ENDS
;	COMDAT __real@3f81df46a0000000
CONST	SEGMENT
__real@3f81df46a0000000 DQ 03f81df46a0000000r	; 0.00872665
CONST	ENDS
;	COMDAT __real@3f71df46a0000000
CONST	SEGMENT
__real@3f71df46a0000000 DQ 03f71df46a0000000r	; 0.00436332
CONST	ENDS
;	COMDAT __real@3f5c987100000000
CONST	SEGMENT
__real@3f5c987100000000 DQ 03f5c987100000000r	; 0.00174533
CONST	ENDS
;	COMDAT __real@3f567750
CONST	SEGMENT
__real@3f567750 DD 03f567750r			; 0.837758
CONST	ENDS
;	COMDAT __real@3f060a92
CONST	SEGMENT
__real@3f060a92 DD 03f060a92r			; 0.523599
CONST	ENDS
;	COMDAT __real@3dd67750
CONST	SEGMENT
__real@3dd67750 DD 03dd67750r			; 0.10472
CONST	ENDS
;	COMDAT ?__LINE__Var@?0??animate_default_eo@@YGXPAUOBJECT_3D_INSTANCE@@@Z@4JA
_DATA	SEGMENT
?__LINE__Var@?0??animate_default_eo@@YGXPAUOBJECT_3D_INSTANCE@@@Z@4JA DD 0192H ; `animate_default_eo'::`1'::__LINE__Var
_DATA	ENDS
;	COMDAT ??_C@_0BL@MNOBOANG@Invalid?5field?5of?5view?5?$DN?5?$CFd@
CONST	SEGMENT
??_C@_0BL@MNOBOANG@Invalid?5field?5of?5view?5?$DN?5?$CFd@ DB 'Invalid fie'
	DB	'ld of view = %d', 00H			; `string'
CONST	ENDS
;	COMDAT ?__LINE__Var@?0??update_default_eo@@YGXPAUEO_PARAMS@@@Z@4JA
_DATA	SEGMENT
?__LINE__Var@?0??update_default_eo@@YGXPAUEO_PARAMS@@@Z@4JA DD 0dcH ; `update_default_eo'::`1'::__LINE__Var
_DATA	ENDS
;	COMDAT ?__LINE__Var@?0??fast_dec_eo_field_of_view@@YGXPAUEO_PARAMS@@@Z@4JA
_DATA	SEGMENT
?__LINE__Var@?0??fast_dec_eo_field_of_view@@YGXPAUEO_PARAMS@@@Z@4JA DD 0d1H ; `fast_dec_eo_field_of_view'::`1'::__LINE__Var
_DATA	ENDS
;	COMDAT ?__LINE__Var@?0??dec_eo_field_of_view@@YGXPAUEO_PARAMS@@@Z@4JA
_DATA	SEGMENT
?__LINE__Var@?0??dec_eo_field_of_view@@YGXPAUEO_PARAMS@@@Z@4JA DD 0c3H ; `dec_eo_field_of_view'::`1'::__LINE__Var
_DATA	ENDS
;	COMDAT ?__LINE__Var@?0??fast_inc_eo_field_of_view@@YGXPAUEO_PARAMS@@@Z@4JA
_DATA	SEGMENT
?__LINE__Var@?0??fast_inc_eo_field_of_view@@YGXPAUEO_PARAMS@@@Z@4JA DD 0b8H ; `fast_inc_eo_field_of_view'::`1'::__LINE__Var
_DATA	ENDS
;	COMDAT ??_C@_02KMMHFIEO@eo@
CONST	SEGMENT
??_C@_02KMMHFIEO@eo@ DB 'eo', 00H			; `string'
CONST	ENDS
;	COMDAT ?__LINE__Var@?0??inc_eo_field_of_view@@YGXPAUEO_PARAMS@@@Z@4JA
_DATA	SEGMENT
?__LINE__Var@?0??inc_eo_field_of_view@@YGXPAUEO_PARAMS@@@Z@4JA DD 0aaH ; `inc_eo_field_of_view'::`1'::__LINE__Var
_DATA	ENDS
;	COMDAT ??_C@_0DM@OPDFHCEJ@OBJECT_3D_SUB_OBJECT_AH64D_TADS@
CONST	SEGMENT
??_C@_0DM@OPDFHCEJ@OBJECT_3D_SUB_OBJECT_AH64D_TADS@ DB 'OBJECT_3D_SUB_OBJ'
	DB	'ECT_AH64D_TADS_HEADING missing from Apache', 00H ; `string'
CONST	ENDS
;	COMDAT ??_C@_06DDNABPCD@inst3d@
CONST	SEGMENT
??_C@_06DDNABPCD@inst3d@ DB 'inst3d', 00H		; `string'
CONST	ENDS
;	COMDAT ??_C@_02HPPNELPJ@vp@
CONST	SEGMENT
??_C@_02HPPNELPJ@vp@ DB 'vp', 00H			; `string'
CONST	ENDS
;	COMDAT ??_C@_0EO@BPMJDFEC@c?3?2users?2nhv90?2projects?2eech?2ap@
CONST	SEGMENT
??_C@_0EO@BPMJDFEC@c?3?2users?2nhv90?2projects?2eech?2ap@ DB 'c:\users\nh'
	DB	'v90\projects\eech\aphavoc\source\gunships\avionics\default\df'
	DB	'_eo.c', 00H					; `string'
CONST	ENDS
;	COMDAT ?__LINE__Var@?0??get_default_eo_centred_viewpoint@@YGXPAUVIEWPOINT@@@Z@4JA
_DATA	SEGMENT
?__LINE__Var@?0??get_default_eo_centred_viewpoint@@YGXPAUVIEWPOINT@@@Z@4JA DD 079H ; `get_default_eo_centred_viewpoint'::`1'::__LINE__Var
_DATA	ENDS
; Function compile flags: /Odtp /ZI
; File c:\users\nhv90\projects\eech\aphavoc\source\gunships\avionics\default\df_eo.c
;	COMDAT ?fast_dec_eo_field_of_view@@YGXPAUEO_PARAMS@@@Z
_TEXT	SEGMENT
_eo$ = 8						; size = 4
?fast_dec_eo_field_of_view@@YGXPAUEO_PARAMS@@@Z PROC	; fast_dec_eo_field_of_view, COMDAT

; 209  : {

  00000	55		 push	 ebp
  00001	8b ec		 mov	 ebp, esp
  00003	83 ec 40	 sub	 esp, 64			; 00000040H
  00006	53		 push	 ebx
  00007	56		 push	 esi
  00008	57		 push	 edi

; 210  : 	ASSERT (eo);

  00009	83 7d 08 00	 cmp	 DWORD PTR _eo$[ebp], 0
  0000d	75 18		 jne	 SHORT $LN2@fast_dec_e
  0000f	a1 00 00 00 00	 mov	 eax, DWORD PTR ?__LINE__Var@?0??fast_dec_eo_field_of_view@@YGXPAUEO_PARAMS@@@Z@4JA
  00014	83 c0 01	 add	 eax, 1
  00017	50		 push	 eax
  00018	68 00 00 00 00	 push	 OFFSET ??_C@_0EO@BPMJDFEC@c?3?2users?2nhv90?2projects?2eech?2ap@
  0001d	68 00 00 00 00	 push	 OFFSET ??_C@_02KMMHFIEO@eo@
  00022	e8 00 00 00 00	 call	 ?process_assert@@YGXPBD0H@Z ; process_assert
$LN2@fast_dec_e:

; 211  : 
; 212  : 	eo->field_of_view = eo->min_field_of_view;

  00027	8b 45 08	 mov	 eax, DWORD PTR _eo$[ebp]
  0002a	8b 4d 08	 mov	 ecx, DWORD PTR _eo$[ebp]
  0002d	8b 51 04	 mov	 edx, DWORD PTR [ecx+4]
  00030	89 10		 mov	 DWORD PTR [eax], edx

; 213  : }

  00032	5f		 pop	 edi
  00033	5e		 pop	 esi
  00034	5b		 pop	 ebx
  00035	8b e5		 mov	 esp, ebp
  00037	5d		 pop	 ebp
  00038	c2 04 00	 ret	 4
?fast_dec_eo_field_of_view@@YGXPAUEO_PARAMS@@@Z ENDP	; fast_dec_eo_field_of_view
_TEXT	ENDS
; Function compile flags: /Odtp /ZI
; File c:\users\nhv90\projects\eech\aphavoc\source\gunships\avionics\default\df_eo.c
;	COMDAT ?dec_eo_field_of_view@@YGXPAUEO_PARAMS@@@Z
_TEXT	SEGMENT
_eo$ = 8						; size = 4
?dec_eo_field_of_view@@YGXPAUEO_PARAMS@@@Z PROC		; dec_eo_field_of_view, COMDAT

; 195  : {

  00000	55		 push	 ebp
  00001	8b ec		 mov	 ebp, esp
  00003	83 ec 40	 sub	 esp, 64			; 00000040H
  00006	53		 push	 ebx
  00007	56		 push	 esi
  00008	57		 push	 edi

; 196  : 	ASSERT (eo);

  00009	83 7d 08 00	 cmp	 DWORD PTR _eo$[ebp], 0
  0000d	75 18		 jne	 SHORT $LN2@dec_eo_fie
  0000f	a1 00 00 00 00	 mov	 eax, DWORD PTR ?__LINE__Var@?0??dec_eo_field_of_view@@YGXPAUEO_PARAMS@@@Z@4JA
  00014	83 c0 01	 add	 eax, 1
  00017	50		 push	 eax
  00018	68 00 00 00 00	 push	 OFFSET ??_C@_0EO@BPMJDFEC@c?3?2users?2nhv90?2projects?2eech?2ap@
  0001d	68 00 00 00 00	 push	 OFFSET ??_C@_02KMMHFIEO@eo@
  00022	e8 00 00 00 00	 call	 ?process_assert@@YGXPBD0H@Z ; process_assert
$LN2@dec_eo_fie:

; 197  : 
; 198  : 	if (eo->field_of_view > eo->min_field_of_view)

  00027	8b 45 08	 mov	 eax, DWORD PTR _eo$[ebp]
  0002a	8b 4d 08	 mov	 ecx, DWORD PTR _eo$[ebp]
  0002d	8b 10		 mov	 edx, DWORD PTR [eax]
  0002f	3b 51 04	 cmp	 edx, DWORD PTR [ecx+4]
  00032	7e 0d		 jle	 SHORT $LN1@dec_eo_fie

; 199  : 	{
; 200  : 		eo->field_of_view--;

  00034	8b 45 08	 mov	 eax, DWORD PTR _eo$[ebp]
  00037	8b 08		 mov	 ecx, DWORD PTR [eax]
  00039	83 e9 01	 sub	 ecx, 1
  0003c	8b 55 08	 mov	 edx, DWORD PTR _eo$[ebp]
  0003f	89 0a		 mov	 DWORD PTR [edx], ecx
$LN1@dec_eo_fie:

; 201  : 	}
; 202  : }

  00041	5f		 pop	 edi
  00042	5e		 pop	 esi
  00043	5b		 pop	 ebx
  00044	8b e5		 mov	 esp, ebp
  00046	5d		 pop	 ebp
  00047	c2 04 00	 ret	 4
?dec_eo_field_of_view@@YGXPAUEO_PARAMS@@@Z ENDP		; dec_eo_field_of_view
_TEXT	ENDS
; Function compile flags: /Odtp /ZI
; File c:\users\nhv90\projects\eech\aphavoc\source\gunships\avionics\default\df_eo.c
;	COMDAT ?fast_inc_eo_field_of_view@@YGXPAUEO_PARAMS@@@Z
_TEXT	SEGMENT
_eo$ = 8						; size = 4
?fast_inc_eo_field_of_view@@YGXPAUEO_PARAMS@@@Z PROC	; fast_inc_eo_field_of_view, COMDAT

; 184  : {

  00000	55		 push	 ebp
  00001	8b ec		 mov	 ebp, esp
  00003	83 ec 40	 sub	 esp, 64			; 00000040H
  00006	53		 push	 ebx
  00007	56		 push	 esi
  00008	57		 push	 edi

; 185  : 	ASSERT (eo);

  00009	83 7d 08 00	 cmp	 DWORD PTR _eo$[ebp], 0
  0000d	75 18		 jne	 SHORT $LN2@fast_inc_e
  0000f	a1 00 00 00 00	 mov	 eax, DWORD PTR ?__LINE__Var@?0??fast_inc_eo_field_of_view@@YGXPAUEO_PARAMS@@@Z@4JA
  00014	83 c0 01	 add	 eax, 1
  00017	50		 push	 eax
  00018	68 00 00 00 00	 push	 OFFSET ??_C@_0EO@BPMJDFEC@c?3?2users?2nhv90?2projects?2eech?2ap@
  0001d	68 00 00 00 00	 push	 OFFSET ??_C@_02KMMHFIEO@eo@
  00022	e8 00 00 00 00	 call	 ?process_assert@@YGXPBD0H@Z ; process_assert
$LN2@fast_inc_e:

; 186  : 
; 187  : 	eo->field_of_view = eo->max_field_of_view;

  00027	8b 45 08	 mov	 eax, DWORD PTR _eo$[ebp]
  0002a	8b 4d 08	 mov	 ecx, DWORD PTR _eo$[ebp]
  0002d	8b 51 08	 mov	 edx, DWORD PTR [ecx+8]
  00030	89 10		 mov	 DWORD PTR [eax], edx

; 188  : }

  00032	5f		 pop	 edi
  00033	5e		 pop	 esi
  00034	5b		 pop	 ebx
  00035	8b e5		 mov	 esp, ebp
  00037	5d		 pop	 ebp
  00038	c2 04 00	 ret	 4
?fast_inc_eo_field_of_view@@YGXPAUEO_PARAMS@@@Z ENDP	; fast_inc_eo_field_of_view
_TEXT	ENDS
; Function compile flags: /Odtp /ZI
; File c:\users\nhv90\projects\eech\aphavoc\source\gunships\avionics\default\df_eo.c
;	COMDAT ?inc_eo_field_of_view@@YGXPAUEO_PARAMS@@@Z
_TEXT	SEGMENT
_eo$ = 8						; size = 4
?inc_eo_field_of_view@@YGXPAUEO_PARAMS@@@Z PROC		; inc_eo_field_of_view, COMDAT

; 170  : {

  00000	55		 push	 ebp
  00001	8b ec		 mov	 ebp, esp
  00003	83 ec 40	 sub	 esp, 64			; 00000040H
  00006	53		 push	 ebx
  00007	56		 push	 esi
  00008	57		 push	 edi

; 171  : 	ASSERT (eo);

  00009	83 7d 08 00	 cmp	 DWORD PTR _eo$[ebp], 0
  0000d	75 18		 jne	 SHORT $LN2@inc_eo_fie
  0000f	a1 00 00 00 00	 mov	 eax, DWORD PTR ?__LINE__Var@?0??inc_eo_field_of_view@@YGXPAUEO_PARAMS@@@Z@4JA
  00014	83 c0 01	 add	 eax, 1
  00017	50		 push	 eax
  00018	68 00 00 00 00	 push	 OFFSET ??_C@_0EO@BPMJDFEC@c?3?2users?2nhv90?2projects?2eech?2ap@
  0001d	68 00 00 00 00	 push	 OFFSET ??_C@_02KMMHFIEO@eo@
  00022	e8 00 00 00 00	 call	 ?process_assert@@YGXPBD0H@Z ; process_assert
$LN2@inc_eo_fie:

; 172  : 
; 173  : 	if (eo->field_of_view < eo->max_field_of_view)

  00027	8b 45 08	 mov	 eax, DWORD PTR _eo$[ebp]
  0002a	8b 4d 08	 mov	 ecx, DWORD PTR _eo$[ebp]
  0002d	8b 10		 mov	 edx, DWORD PTR [eax]
  0002f	3b 51 08	 cmp	 edx, DWORD PTR [ecx+8]
  00032	7d 0d		 jge	 SHORT $LN1@inc_eo_fie

; 174  : 	{
; 175  : 		eo->field_of_view++;

  00034	8b 45 08	 mov	 eax, DWORD PTR _eo$[ebp]
  00037	8b 08		 mov	 ecx, DWORD PTR [eax]
  00039	83 c1 01	 add	 ecx, 1
  0003c	8b 55 08	 mov	 edx, DWORD PTR _eo$[ebp]
  0003f	89 0a		 mov	 DWORD PTR [edx], ecx
$LN1@inc_eo_fie:

; 176  : 	}
; 177  : }

  00041	5f		 pop	 edi
  00042	5e		 pop	 esi
  00043	5b		 pop	 ebx
  00044	8b e5		 mov	 esp, ebp
  00046	5d		 pop	 ebp
  00047	c2 04 00	 ret	 4
?inc_eo_field_of_view@@YGXPAUEO_PARAMS@@@Z ENDP		; inc_eo_field_of_view
_TEXT	ENDS
; Function compile flags: /Odtp /ZI
; File c:\users\nhv90\projects\eech\aphavoc\source\gunships\avionics\default\df_eo.c
;	COMDAT ?toggle_default_eo_system@@YGXXZ
_TEXT	SEGMENT
tv64 = -68						; size = 4
?toggle_default_eo_system@@YGXXZ PROC			; toggle_default_eo_system, COMDAT

; 483  : {

  00000	55		 push	 ebp
  00001	8b ec		 mov	 ebp, esp
  00003	83 ec 44	 sub	 esp, 68			; 00000044H
  00006	53		 push	 ebx
  00007	56		 push	 esi
  00008	57		 push	 edi

; 484  : 	switch (eo_sensor)

  00009	a1 00 00 00 00	 mov	 eax, DWORD PTR ?eo_sensor@@3W4TARGET_ACQUISITION_SYSTEMS@@A ; eo_sensor
  0000e	89 45 bc	 mov	 DWORD PTR tv64[ebp], eax
  00011	83 7d bc 03	 cmp	 DWORD PTR tv64[ebp], 3
  00015	74 08		 je	 SHORT $LN4@toggle_def
  00017	83 7d bc 04	 cmp	 DWORD PTR tv64[ebp], 4
  0001b	74 21		 je	 SHORT $LN6@toggle_def
  0001d	eb 3c		 jmp	 SHORT $LN1@toggle_def
$LN4@toggle_def:

; 485  : 	{
; 486  : 	case TARGET_ACQUISITION_SYSTEM_FLIR:
; 487  : 		eo_sensor = TARGET_ACQUISITION_SYSTEM_DTV;

  0001f	c7 05 00 00 00
	00 04 00 00 00	 mov	 DWORD PTR ?eo_sensor@@3W4TARGET_ACQUISITION_SYSTEMS@@A, 4 ; eo_sensor

; 488  : 
; 489  : 		if (target_acquisition_system == TARGET_ACQUISITION_SYSTEM_FLIR)

  00029	83 3d 00 00 00
	00 03		 cmp	 DWORD PTR ?target_acquisition_system@@3W4TARGET_ACQUISITION_SYSTEMS@@A, 3 ; target_acquisition_system
  00030	75 0a		 jne	 SHORT $LN5@toggle_def

; 490  : 			target_acquisition_system = TARGET_ACQUISITION_SYSTEM_DTV;

  00032	c7 05 00 00 00
	00 04 00 00 00	 mov	 DWORD PTR ?target_acquisition_system@@3W4TARGET_ACQUISITION_SYSTEMS@@A, 4 ; target_acquisition_system
$LN5@toggle_def:

; 491  : 
; 492  : 		break;

  0003c	eb 1d		 jmp	 SHORT $LN1@toggle_def
$LN6@toggle_def:

; 493  : 	case TARGET_ACQUISITION_SYSTEM_DTV:
; 494  : 		eo_sensor = TARGET_ACQUISITION_SYSTEM_FLIR;

  0003e	c7 05 00 00 00
	00 03 00 00 00	 mov	 DWORD PTR ?eo_sensor@@3W4TARGET_ACQUISITION_SYSTEMS@@A, 3 ; eo_sensor

; 495  : 
; 496  : 		if (target_acquisition_system == TARGET_ACQUISITION_SYSTEM_DTV)

  00048	83 3d 00 00 00
	00 04		 cmp	 DWORD PTR ?target_acquisition_system@@3W4TARGET_ACQUISITION_SYSTEMS@@A, 4 ; target_acquisition_system
  0004f	75 0a		 jne	 SHORT $LN1@toggle_def

; 497  : 			target_acquisition_system = TARGET_ACQUISITION_SYSTEM_FLIR;

  00051	c7 05 00 00 00
	00 03 00 00 00	 mov	 DWORD PTR ?target_acquisition_system@@3W4TARGET_ACQUISITION_SYSTEMS@@A, 3 ; target_acquisition_system
$LN1@toggle_def:

; 498  : 
; 499  : 		break;
; 500  : 	}
; 501  : }

  0005b	5f		 pop	 edi
  0005c	5e		 pop	 esi
  0005d	5b		 pop	 ebx
  0005e	8b e5		 mov	 esp, ebp
  00060	5d		 pop	 ebp
  00061	c3		 ret	 0
?toggle_default_eo_system@@YGXXZ ENDP			; toggle_default_eo_system
_TEXT	ENDS
; Function compile flags: /Odtp /ZI
; File c:\users\nhv90\projects\eech\aphavoc\source\gunships\avionics\default\df_eo.c
;	COMDAT ?dec_default_eo_zoom@@YGXXZ
_TEXT	SEGMENT
tv64 = -68						; size = 4
?dec_default_eo_zoom@@YGXXZ PROC			; dec_default_eo_zoom, COMDAT

; 464  : {

  00000	55		 push	 ebp
  00001	8b ec		 mov	 ebp, esp
  00003	83 ec 44	 sub	 esp, 68			; 00000044H
  00006	53		 push	 ebx
  00007	56		 push	 esi
  00008	57		 push	 edi

; 465  : 	switch (eo_sensor)

  00009	a1 00 00 00 00	 mov	 eax, DWORD PTR ?eo_sensor@@3W4TARGET_ACQUISITION_SYSTEMS@@A ; eo_sensor
  0000e	89 45 bc	 mov	 DWORD PTR tv64[ebp], eax
  00011	83 7d bc 03	 cmp	 DWORD PTR tv64[ebp], 3
  00015	74 08		 je	 SHORT $LN4@dec_defaul
  00017	83 7d bc 04	 cmp	 DWORD PTR tv64[ebp], 4
  0001b	74 0e		 je	 SHORT $LN5@dec_defaul
  0001d	eb 16		 jmp	 SHORT $LN1@dec_defaul
$LN4@dec_defaul:

; 466  : 	{
; 467  : 		case TARGET_ACQUISITION_SYSTEM_FLIR:
; 468  : 			inc_eo_field_of_view(&default_flir);

  0001f	68 00 00 00 00	 push	 OFFSET ?default_flir@@3UEO_PARAMS@@A ; default_flir
  00024	e8 00 00 00 00	 call	 ?inc_eo_field_of_view@@YGXPAUEO_PARAMS@@@Z ; inc_eo_field_of_view

; 469  : 			break;

  00029	eb 0a		 jmp	 SHORT $LN1@dec_defaul
$LN5@dec_defaul:

; 470  : 		case TARGET_ACQUISITION_SYSTEM_DTV:
; 471  : 			inc_eo_field_of_view(&default_dtv);

  0002b	68 00 00 00 00	 push	 OFFSET ?default_dtv@@3UEO_PARAMS@@A ; default_dtv
  00030	e8 00 00 00 00	 call	 ?inc_eo_field_of_view@@YGXPAUEO_PARAMS@@@Z ; inc_eo_field_of_view
$LN1@dec_defaul:

; 472  : 			break;
; 473  : 		default:
; 474  : 			break;
; 475  : 	}
; 476  : }

  00035	5f		 pop	 edi
  00036	5e		 pop	 esi
  00037	5b		 pop	 ebx
  00038	8b e5		 mov	 esp, ebp
  0003a	5d		 pop	 ebp
  0003b	c3		 ret	 0
?dec_default_eo_zoom@@YGXXZ ENDP			; dec_default_eo_zoom
_TEXT	ENDS
; Function compile flags: /Odtp /ZI
; File c:\users\nhv90\projects\eech\aphavoc\source\gunships\avionics\default\df_eo.c
;	COMDAT ?inc_default_eo_zoom@@YGXXZ
_TEXT	SEGMENT
tv64 = -68						; size = 4
?inc_default_eo_zoom@@YGXXZ PROC			; inc_default_eo_zoom, COMDAT

; 449  : {

  00000	55		 push	 ebp
  00001	8b ec		 mov	 ebp, esp
  00003	83 ec 44	 sub	 esp, 68			; 00000044H
  00006	53		 push	 ebx
  00007	56		 push	 esi
  00008	57		 push	 edi

; 450  : 	switch (eo_sensor)

  00009	a1 00 00 00 00	 mov	 eax, DWORD PTR ?eo_sensor@@3W4TARGET_ACQUISITION_SYSTEMS@@A ; eo_sensor
  0000e	89 45 bc	 mov	 DWORD PTR tv64[ebp], eax
  00011	83 7d bc 03	 cmp	 DWORD PTR tv64[ebp], 3
  00015	74 08		 je	 SHORT $LN4@inc_defaul
  00017	83 7d bc 04	 cmp	 DWORD PTR tv64[ebp], 4
  0001b	74 0e		 je	 SHORT $LN5@inc_defaul
  0001d	eb 16		 jmp	 SHORT $LN1@inc_defaul
$LN4@inc_defaul:

; 451  : 	{
; 452  : 		case TARGET_ACQUISITION_SYSTEM_FLIR:
; 453  : 			dec_eo_field_of_view(&default_flir);

  0001f	68 00 00 00 00	 push	 OFFSET ?default_flir@@3UEO_PARAMS@@A ; default_flir
  00024	e8 00 00 00 00	 call	 ?dec_eo_field_of_view@@YGXPAUEO_PARAMS@@@Z ; dec_eo_field_of_view

; 454  : 			break;

  00029	eb 0a		 jmp	 SHORT $LN1@inc_defaul
$LN5@inc_defaul:

; 455  : 		case TARGET_ACQUISITION_SYSTEM_DTV:
; 456  : 			dec_eo_field_of_view(&default_dtv);

  0002b	68 00 00 00 00	 push	 OFFSET ?default_dtv@@3UEO_PARAMS@@A ; default_dtv
  00030	e8 00 00 00 00	 call	 ?dec_eo_field_of_view@@YGXPAUEO_PARAMS@@@Z ; dec_eo_field_of_view
$LN1@inc_defaul:

; 457  : 			break;
; 458  : 		default:
; 459  : 			break;
; 460  : 	}
; 461  : }

  00035	5f		 pop	 edi
  00036	5e		 pop	 esi
  00037	5b		 pop	 ebx
  00038	8b e5		 mov	 esp, ebp
  0003a	5d		 pop	 ebp
  0003b	c3		 ret	 0
?inc_default_eo_zoom@@YGXXZ ENDP			; inc_default_eo_zoom
_TEXT	ENDS
; Function compile flags: /Odtp /ZI
; File c:\users\nhv90\projects\eech\aphavoc\source\gunships\avionics\default\df_eo.c
;	COMDAT ?slave_default_eo_to_current_target@@YGXXZ
_TEXT	SEGMENT
tv70 = -68						; size = 4
tv66 = -68						; size = 4
?slave_default_eo_to_current_target@@YGXXZ PROC		; slave_default_eo_to_current_target, COMDAT

; 508  : {

  00000	55		 push	 ebp
  00001	8b ec		 mov	 ebp, esp
  00003	83 ec 44	 sub	 esp, 68			; 00000044H
  00006	53		 push	 ebx
  00007	56		 push	 esi
  00008	57		 push	 edi

; 509  : 	if (command_line_manual_laser_radar)

  00009	83 3d 00 00 00
	00 00		 cmp	 DWORD PTR ?command_line_manual_laser_radar@@3HA, 0 ; command_line_manual_laser_radar
  00010	74 05		 je	 SHORT $LN6@slave_defa

; 510  : 		return;

  00012	e9 87 00 00 00	 jmp	 $LN1@slave_defa
$LN6@slave_defa:

; 511  : 	
; 512  : 	if (eo_on_target)

  00017	83 3d 00 00 00
	00 00		 cmp	 DWORD PTR ?eo_on_target@@3HA, 0 ; eo_on_target
  0001e	74 40		 je	 SHORT $LN7@slave_defa

; 513  : 	{
; 514  : 		switch (eo_sensor)

  00020	a1 00 00 00 00	 mov	 eax, DWORD PTR ?eo_sensor@@3W4TARGET_ACQUISITION_SYSTEMS@@A ; eo_sensor
  00025	89 45 bc	 mov	 DWORD PTR tv66[ebp], eax
  00028	83 7d bc 03	 cmp	 DWORD PTR tv66[ebp], 3
  0002c	74 0e		 je	 SHORT $LN9@slave_defa
  0002e	83 7d bc 04	 cmp	 DWORD PTR tv66[ebp], 4
  00032	74 14		 je	 SHORT $LN10@slave_defa
  00034	83 7d bc 05	 cmp	 DWORD PTR tv66[ebp], 5
  00038	74 1a		 je	 SHORT $LN11@slave_defa
  0003a	eb 22		 jmp	 SHORT $LN2@slave_defa
$LN9@slave_defa:

; 515  : 		{
; 516  : 			case TARGET_ACQUISITION_SYSTEM_FLIR:
; 517  : 			{
; 518  : 				default_flir.field_of_view = default_flir.min_field_of_view;

  0003c	a1 04 00 00 00	 mov	 eax, DWORD PTR ?default_flir@@3UEO_PARAMS@@A+4
  00041	a3 00 00 00 00	 mov	 DWORD PTR ?default_flir@@3UEO_PARAMS@@A, eax

; 519  : 				break;

  00046	eb 16		 jmp	 SHORT $LN2@slave_defa
$LN10@slave_defa:

; 520  : 			}
; 521  : 			case TARGET_ACQUISITION_SYSTEM_DTV:
; 522  : 			{
; 523  : 				default_dtv.field_of_view = default_dtv.min_field_of_view;

  00048	a1 04 00 00 00	 mov	 eax, DWORD PTR ?default_dtv@@3UEO_PARAMS@@A+4
  0004d	a3 00 00 00 00	 mov	 DWORD PTR ?default_dtv@@3UEO_PARAMS@@A, eax

; 524  : 				break;

  00052	eb 0a		 jmp	 SHORT $LN2@slave_defa
$LN11@slave_defa:

; 525  : 			}
; 526  : 			case TARGET_ACQUISITION_SYSTEM_DVO:
; 527  : 			{
; 528  : 				default_dvo.field_of_view = default_dvo.min_field_of_view;

  00054	a1 04 00 00 00	 mov	 eax, DWORD PTR ?default_dvo@@3UEO_PARAMS@@A+4
  00059	a3 00 00 00 00	 mov	 DWORD PTR ?default_dvo@@3UEO_PARAMS@@A, eax
$LN2@slave_defa:

; 529  : 				break;
; 530  : 			}
; 531  : 		}
; 532  : 	}
; 533  : 	else

  0005e	eb 3e		 jmp	 SHORT $LN1@slave_defa
$LN7@slave_defa:

; 534  : 	{
; 535  : 		switch (eo_sensor)

  00060	a1 00 00 00 00	 mov	 eax, DWORD PTR ?eo_sensor@@3W4TARGET_ACQUISITION_SYSTEMS@@A ; eo_sensor
  00065	89 45 bc	 mov	 DWORD PTR tv70[ebp], eax
  00068	83 7d bc 03	 cmp	 DWORD PTR tv70[ebp], 3
  0006c	74 0e		 je	 SHORT $LN12@slave_defa
  0006e	83 7d bc 04	 cmp	 DWORD PTR tv70[ebp], 4
  00072	74 14		 je	 SHORT $LN13@slave_defa
  00074	83 7d bc 05	 cmp	 DWORD PTR tv70[ebp], 5
  00078	74 1a		 je	 SHORT $LN14@slave_defa
  0007a	eb 22		 jmp	 SHORT $LN1@slave_defa
$LN12@slave_defa:

; 536  : 		{
; 537  : 			case TARGET_ACQUISITION_SYSTEM_FLIR:
; 538  : 			{
; 539  : 				default_flir.field_of_view = default_flir.max_field_of_view;

  0007c	a1 08 00 00 00	 mov	 eax, DWORD PTR ?default_flir@@3UEO_PARAMS@@A+8
  00081	a3 00 00 00 00	 mov	 DWORD PTR ?default_flir@@3UEO_PARAMS@@A, eax

; 540  : 				break;

  00086	eb 16		 jmp	 SHORT $LN1@slave_defa
$LN13@slave_defa:

; 541  : 			}
; 542  : 			case TARGET_ACQUISITION_SYSTEM_DTV:
; 543  : 			{
; 544  : 				default_dtv.field_of_view = default_dtv.max_field_of_view;

  00088	a1 08 00 00 00	 mov	 eax, DWORD PTR ?default_dtv@@3UEO_PARAMS@@A+8
  0008d	a3 00 00 00 00	 mov	 DWORD PTR ?default_dtv@@3UEO_PARAMS@@A, eax

; 545  : 				break;

  00092	eb 0a		 jmp	 SHORT $LN1@slave_defa
$LN14@slave_defa:

; 546  : 			}
; 547  : 			case TARGET_ACQUISITION_SYSTEM_DVO:
; 548  : 			{
; 549  : 				default_dvo.field_of_view = default_dvo.max_field_of_view;

  00094	a1 08 00 00 00	 mov	 eax, DWORD PTR ?default_dvo@@3UEO_PARAMS@@A+8
  00099	a3 00 00 00 00	 mov	 DWORD PTR ?default_dvo@@3UEO_PARAMS@@A, eax
$LN1@slave_defa:

; 550  : 				break;
; 551  : 			}
; 552  : 		}
; 553  : 	}
; 554  : }

  0009e	5f		 pop	 edi
  0009f	5e		 pop	 esi
  000a0	5b		 pop	 ebx
  000a1	8b e5		 mov	 esp, ebp
  000a3	5d		 pop	 ebp
  000a4	c3		 ret	 0
?slave_default_eo_to_current_target@@YGXXZ ENDP		; slave_default_eo_to_current_target
_TEXT	ENDS
; Function compile flags: /Odtp /ZI
; File c:\users\nhv90\projects\eech\aphavoc\source\gunships\avionics\default\df_eo.c
;	COMDAT ?animate_default_eo@@YGXPAUOBJECT_3D_INSTANCE@@@Z
_TEXT	SEGMENT
_search_pitch$ = -112					; size = 56
_search_heading$ = -56					; size = 56
_inst3d$ = 8						; size = 4
?animate_default_eo@@YGXPAUOBJECT_3D_INSTANCE@@@Z PROC	; animate_default_eo, COMDAT

; 402  : {

  00000	55		 push	 ebp
  00001	8b ec		 mov	 ebp, esp
  00003	81 ec b0 00 00
	00		 sub	 esp, 176		; 000000b0H
  00009	53		 push	 ebx
  0000a	56		 push	 esi
  0000b	57		 push	 edi

; 403  : 	object_3d_sub_object_search_data
; 404  : 		search_heading,
; 405  : 		search_pitch;
; 406  : 
; 407  : 	ASSERT (inst3d);

  0000c	83 7d 08 00	 cmp	 DWORD PTR _inst3d$[ebp], 0
  00010	75 18		 jne	 SHORT $LN2@animate_de
  00012	a1 00 00 00 00	 mov	 eax, DWORD PTR ?__LINE__Var@?0??animate_default_eo@@YGXPAUOBJECT_3D_INSTANCE@@@Z@4JA
  00017	83 c0 05	 add	 eax, 5
  0001a	50		 push	 eax
  0001b	68 00 00 00 00	 push	 OFFSET ??_C@_0EO@BPMJDFEC@c?3?2users?2nhv90?2projects?2eech?2ap@
  00020	68 00 00 00 00	 push	 OFFSET ??_C@_06DDNABPCD@inst3d@
  00025	e8 00 00 00 00	 call	 ?process_assert@@YGXPBD0H@Z ; process_assert
$LN2@animate_de:

; 408  : 
; 409  : 	//
; 410  : 	// TADS
; 411  : 	//
; 412  : 
; 413  : 	search_heading.search_depth = 0;

  0002a	c7 45 d0 00 00
	00 00		 mov	 DWORD PTR _search_heading$[ebp+8], 0

; 414  : 	search_heading.search_object = inst3d;

  00031	8b 45 08	 mov	 eax, DWORD PTR _inst3d$[ebp]
  00034	89 45 c8	 mov	 DWORD PTR _search_heading$[ebp], eax

; 415  : 	search_heading.sub_object_index = OBJECT_3D_SUB_OBJECT_AH64D_TADS_HEADING;

  00037	c7 45 d4 0b 00
	00 00		 mov	 DWORD PTR _search_heading$[ebp+12], 11 ; 0000000bH

; 416  : 
; 417  : 	if (find_object_3d_sub_object (&search_heading) == SUB_OBJECT_SEARCH_RESULT_OBJECT_FOUND)

  0003e	8d 45 c8	 lea	 eax, DWORD PTR _search_heading$[ebp]
  00041	50		 push	 eax
  00042	e8 00 00 00 00	 call	 ?find_object_3d_sub_object@@YG?AW4SUB_OBJECT_SEARCH_RESULT_TYPES@@PAUOBJECT_3D_SUB_OBJECT_SEARCH_DATA@@@Z ; find_object_3d_sub_object
  00047	83 f8 01	 cmp	 eax, 1
  0004a	75 47		 jne	 SHORT $LN4@animate_de

; 418  : 	{
; 419  : 		search_heading.result_sub_object->relative_heading = eo_azimuth;

  0004c	8b 45 cc	 mov	 eax, DWORD PTR _search_heading$[ebp+4]
  0004f	f3 0f 10 05 00
	00 00 00	 movss	 xmm0, DWORD PTR ?eo_azimuth@@3MA
  00057	f3 0f 11 40 18	 movss	 DWORD PTR [eax+24], xmm0

; 420  : 
; 421  : 		search_pitch.search_depth = 0;

  0005c	c7 45 98 00 00
	00 00		 mov	 DWORD PTR _search_pitch$[ebp+8], 0

; 422  : 		search_pitch.sub_object_index = OBJECT_3D_SUB_OBJECT_AH64D_TADS_PITCH;

  00063	c7 45 9c 20 00
	00 00		 mov	 DWORD PTR _search_pitch$[ebp+12], 32 ; 00000020H

; 423  : 
; 424  : 		if (find_object_3d_sub_object_from_sub_object (&search_heading, &search_pitch) == SUB_OBJECT_SEARCH_RESULT_OBJECT_FOUND)

  0006a	8d 45 90	 lea	 eax, DWORD PTR _search_pitch$[ebp]
  0006d	50		 push	 eax
  0006e	8d 4d c8	 lea	 ecx, DWORD PTR _search_heading$[ebp]
  00071	51		 push	 ecx
  00072	e8 00 00 00 00	 call	 ?find_object_3d_sub_object_from_sub_object@@YG?AW4SUB_OBJECT_SEARCH_RESULT_TYPES@@PAUOBJECT_3D_SUB_OBJECT_SEARCH_DATA@@0@Z ; find_object_3d_sub_object_from_sub_object
  00077	83 f8 01	 cmp	 eax, 1
  0007a	75 17		 jne	 SHORT $LN4@animate_de

; 425  : 		{
; 426  : 			search_pitch.result_sub_object->relative_pitch = -eo_elevation;

  0007c	f3 0f 10 05 00
	00 00 00	 movss	 xmm0, DWORD PTR ?eo_elevation@@3MA
  00084	0f 57 05 00 00
	00 00		 xorps	 xmm0, DWORD PTR __xmm@80000000800000008000000080000000
  0008b	8b 45 94	 mov	 eax, DWORD PTR _search_pitch$[ebp+4]
  0008e	f3 0f 11 40 1c	 movss	 DWORD PTR [eax+28], xmm0
$LN4@animate_de:

; 427  : 		}
; 428  : 	}
; 429  : 
; 430  : 	//
; 431  : 	// PNVS
; 432  : 	//
; 433  : 
; 434  : 	search_heading.search_depth = 0;

  00093	c7 45 d0 00 00
	00 00		 mov	 DWORD PTR _search_heading$[ebp+8], 0

; 435  : 	search_heading.search_object = inst3d;

  0009a	8b 45 08	 mov	 eax, DWORD PTR _inst3d$[ebp]
  0009d	89 45 c8	 mov	 DWORD PTR _search_heading$[ebp], eax

; 436  : 	search_heading.sub_object_index = OBJECT_3D_SUB_OBJECT_AH64D_PNVS_HEADING;

  000a0	c7 45 d4 0a 00
	00 00		 mov	 DWORD PTR _search_heading$[ebp+12], 10 ; 0000000aH

; 437  : 
; 438  : 	if (find_object_3d_sub_object (&search_heading) == SUB_OBJECT_SEARCH_RESULT_OBJECT_FOUND)

  000a7	8d 45 c8	 lea	 eax, DWORD PTR _search_heading$[ebp]
  000aa	50		 push	 eax
  000ab	e8 00 00 00 00	 call	 ?find_object_3d_sub_object@@YG?AW4SUB_OBJECT_SEARCH_RESULT_TYPES@@PAUOBJECT_3D_SUB_OBJECT_SEARCH_DATA@@@Z ; find_object_3d_sub_object
  000b0	83 f8 01	 cmp	 eax, 1
  000b3	75 17		 jne	 SHORT $LN5@animate_de

; 439  : 	{
; 440  : 		search_heading.result_sub_object->relative_heading = -pilot_head_heading;

  000b5	f3 0f 10 05 00
	00 00 00	 movss	 xmm0, DWORD PTR ?pilot_head_heading@@3MA
  000bd	0f 57 05 00 00
	00 00		 xorps	 xmm0, DWORD PTR __xmm@80000000800000008000000080000000
  000c4	8b 45 cc	 mov	 eax, DWORD PTR _search_heading$[ebp+4]
  000c7	f3 0f 11 40 18	 movss	 DWORD PTR [eax+24], xmm0
$LN5@animate_de:

; 441  : 	}
; 442  : }

  000cc	5f		 pop	 edi
  000cd	5e		 pop	 esi
  000ce	5b		 pop	 ebx
  000cf	8b e5		 mov	 esp, ebp
  000d1	5d		 pop	 ebp
  000d2	c2 04 00	 ret	 4
?animate_default_eo@@YGXPAUOBJECT_3D_INSTANCE@@@Z ENDP	; animate_default_eo
_TEXT	ENDS
; Function compile flags: /Odtp /ZI
; File c:\users\nhv90\projects\eech\aphavoc\source\gunships\avionics\default\df_eo.c
;	COMDAT ?centre_default_eo@@YGXXZ
_TEXT	SEGMENT
?centre_default_eo@@YGXXZ PROC				; centre_default_eo, COMDAT

; 391  : {

  00000	55		 push	 ebp
  00001	8b ec		 mov	 ebp, esp
  00003	83 ec 40	 sub	 esp, 64			; 00000040H
  00006	53		 push	 ebx
  00007	56		 push	 esi
  00008	57		 push	 edi

; 392  : 	eo_azimuth = rad (0.0);

  00009	0f 57 c0	 xorps	 xmm0, xmm0
  0000c	f3 0f 11 05 00
	00 00 00	 movss	 DWORD PTR ?eo_azimuth@@3MA, xmm0

; 393  : 
; 394  : 	eo_elevation = rad (0.0);

  00014	0f 57 c0	 xorps	 xmm0, xmm0
  00017	f3 0f 11 05 00
	00 00 00	 movss	 DWORD PTR ?eo_elevation@@3MA, xmm0

; 395  : }

  0001f	5f		 pop	 edi
  00020	5e		 pop	 esi
  00021	5b		 pop	 ebx
  00022	8b e5		 mov	 esp, ebp
  00024	5d		 pop	 ebp
  00025	c3		 ret	 0
?centre_default_eo@@YGXXZ ENDP				; centre_default_eo
_TEXT	ENDS
; Function compile flags: /Odtp /ZI
; File c:\users\nhv90\projects\eech\aphavoc\source\gunships\avionics\default\df_eo.c
;	COMDAT ?update_default_eo@@YGXPAUEO_PARAMS@@@Z
_TEXT	SEGMENT
tv84 = -88						; size = 4
_ROTATE_RATE$1 = -20					; size = 4
_coarse_slew_rate$ = -16				; size = 4
_mouse_slew_rate$ = -12					; size = 4
_medium_slew_rate$ = -8					; size = 4
_fine_slew_rate$ = -4					; size = 4
_eo$ = 8						; size = 4
?update_default_eo@@YGXPAUEO_PARAMS@@@Z PROC		; update_default_eo, COMDAT

; 220  : {

  00000	55		 push	 ebp
  00001	8b ec		 mov	 ebp, esp
  00003	83 ec 58	 sub	 esp, 88			; 00000058H
  00006	53		 push	 ebx
  00007	56		 push	 esi
  00008	57		 push	 edi

; 221  : 	float
; 222  : 		fine_slew_rate,
; 223  : 		medium_slew_rate,
; 224  : 		mouse_slew_rate, // Jabberwock 030930
; 225  : 		coarse_slew_rate;
; 226  : 
; 227  : 	ASSERT (eo);

  00009	83 7d 08 00	 cmp	 DWORD PTR _eo$[ebp], 0
  0000d	75 18		 jne	 SHORT $LN14@update_def
  0000f	a1 00 00 00 00	 mov	 eax, DWORD PTR ?__LINE__Var@?0??update_default_eo@@YGXPAUEO_PARAMS@@@Z@4JA
  00014	83 c0 07	 add	 eax, 7
  00017	50		 push	 eax
  00018	68 00 00 00 00	 push	 OFFSET ??_C@_0EO@BPMJDFEC@c?3?2users?2nhv90?2projects?2eech?2ap@
  0001d	68 00 00 00 00	 push	 OFFSET ??_C@_02KMMHFIEO@eo@
  00022	e8 00 00 00 00	 call	 ?process_assert@@YGXPBD0H@Z ; process_assert
$LN14@update_def:

; 228  : 
; 229  : 	////////////////////////////////////////
; 230  : 	//
; 231  : 	// field of view
; 232  : 	//
; 233  : 	////////////////////////////////////////
; 234  : 
; 235  : 	while (single_target_acquisition_system_inc_range_key)

  00027	83 3d 00 00 00
	00 00		 cmp	 DWORD PTR ?single_target_acquisition_system_inc_range_key@@3HA, 0 ; single_target_acquisition_system_inc_range_key
  0002e	74 18		 je	 SHORT $LN3@update_def

; 236  : 	{
; 237  : 		dec_eo_field_of_view (eo);

  00030	8b 45 08	 mov	 eax, DWORD PTR _eo$[ebp]
  00033	50		 push	 eax
  00034	e8 00 00 00 00	 call	 ?dec_eo_field_of_view@@YGXPAUEO_PARAMS@@@Z ; dec_eo_field_of_view

; 238  : 
; 239  : 		single_target_acquisition_system_inc_range_key--;

  00039	a1 00 00 00 00	 mov	 eax, DWORD PTR ?single_target_acquisition_system_inc_range_key@@3HA ; single_target_acquisition_system_inc_range_key
  0003e	83 e8 01	 sub	 eax, 1
  00041	a3 00 00 00 00	 mov	 DWORD PTR ?single_target_acquisition_system_inc_range_key@@3HA, eax ; single_target_acquisition_system_inc_range_key

; 240  : 	}

  00046	eb df		 jmp	 SHORT $LN14@update_def
$LN3@update_def:

; 241  : 
; 242  : 	while (single_target_acquisition_system_inc_range_fast_key)

  00048	83 3d 00 00 00
	00 00		 cmp	 DWORD PTR ?single_target_acquisition_system_inc_range_fast_key@@3HA, 0 ; single_target_acquisition_system_inc_range_fast_key
  0004f	74 18		 je	 SHORT $LN5@update_def

; 243  : 	{
; 244  : 		fast_dec_eo_field_of_view (eo);

  00051	8b 45 08	 mov	 eax, DWORD PTR _eo$[ebp]
  00054	50		 push	 eax
  00055	e8 00 00 00 00	 call	 ?fast_dec_eo_field_of_view@@YGXPAUEO_PARAMS@@@Z ; fast_dec_eo_field_of_view

; 245  : 
; 246  : 		single_target_acquisition_system_inc_range_fast_key--;

  0005a	a1 00 00 00 00	 mov	 eax, DWORD PTR ?single_target_acquisition_system_inc_range_fast_key@@3HA ; single_target_acquisition_system_inc_range_fast_key
  0005f	83 e8 01	 sub	 eax, 1
  00062	a3 00 00 00 00	 mov	 DWORD PTR ?single_target_acquisition_system_inc_range_fast_key@@3HA, eax ; single_target_acquisition_system_inc_range_fast_key

; 247  : 	}

  00067	eb df		 jmp	 SHORT $LN3@update_def
$LN5@update_def:

; 248  : 
; 249  : 	////////////////////////////////////////
; 250  : 
; 251  : 	while (single_target_acquisition_system_dec_range_key)

  00069	83 3d 00 00 00
	00 00		 cmp	 DWORD PTR ?single_target_acquisition_system_dec_range_key@@3HA, 0 ; single_target_acquisition_system_dec_range_key
  00070	74 18		 je	 SHORT $LN7@update_def

; 252  : 	{
; 253  : 		inc_eo_field_of_view (eo);

  00072	8b 45 08	 mov	 eax, DWORD PTR _eo$[ebp]
  00075	50		 push	 eax
  00076	e8 00 00 00 00	 call	 ?inc_eo_field_of_view@@YGXPAUEO_PARAMS@@@Z ; inc_eo_field_of_view

; 254  : 
; 255  : 		single_target_acquisition_system_dec_range_key--;

  0007b	a1 00 00 00 00	 mov	 eax, DWORD PTR ?single_target_acquisition_system_dec_range_key@@3HA ; single_target_acquisition_system_dec_range_key
  00080	83 e8 01	 sub	 eax, 1
  00083	a3 00 00 00 00	 mov	 DWORD PTR ?single_target_acquisition_system_dec_range_key@@3HA, eax ; single_target_acquisition_system_dec_range_key

; 256  : 	}

  00088	eb df		 jmp	 SHORT $LN5@update_def
$LN7@update_def:

; 257  : 
; 258  : 	while (single_target_acquisition_system_dec_range_fast_key)

  0008a	83 3d 00 00 00
	00 00		 cmp	 DWORD PTR ?single_target_acquisition_system_dec_range_fast_key@@3HA, 0 ; single_target_acquisition_system_dec_range_fast_key
  00091	74 18		 je	 SHORT $LN9@update_def

; 259  : 	{
; 260  : 		fast_inc_eo_field_of_view (eo);

  00093	8b 45 08	 mov	 eax, DWORD PTR _eo$[ebp]
  00096	50		 push	 eax
  00097	e8 00 00 00 00	 call	 ?fast_inc_eo_field_of_view@@YGXPAUEO_PARAMS@@@Z ; fast_inc_eo_field_of_view

; 261  : 
; 262  : 		single_target_acquisition_system_dec_range_fast_key--;

  0009c	a1 00 00 00 00	 mov	 eax, DWORD PTR ?single_target_acquisition_system_dec_range_fast_key@@3HA ; single_target_acquisition_system_dec_range_fast_key
  000a1	83 e8 01	 sub	 eax, 1
  000a4	a3 00 00 00 00	 mov	 DWORD PTR ?single_target_acquisition_system_dec_range_fast_key@@3HA, eax ; single_target_acquisition_system_dec_range_fast_key

; 263  : 	}

  000a9	eb df		 jmp	 SHORT $LN7@update_def
$LN9@update_def:

; 264  : 
; 265  : 	////////////////////////////////////////
; 266  : 
; 267  : 	while (toggle_ground_stabilisation_key)

  000ab	83 3d 00 00 00
	00 00		 cmp	 DWORD PTR ?toggle_ground_stabilisation_key@@3HA, 0 ; toggle_ground_stabilisation_key
  000b2	74 14		 je	 SHORT $LN11@update_def

; 268  : 	{
; 269  : 		toggle_ground_stabilisation ();

  000b4	e8 00 00 00 00	 call	 ?toggle_ground_stabilisation@@YGXXZ ; toggle_ground_stabilisation

; 270  : 
; 271  : 		toggle_ground_stabilisation_key--;

  000b9	a1 00 00 00 00	 mov	 eax, DWORD PTR ?toggle_ground_stabilisation_key@@3HA ; toggle_ground_stabilisation_key
  000be	83 e8 01	 sub	 eax, 1
  000c1	a3 00 00 00 00	 mov	 DWORD PTR ?toggle_ground_stabilisation_key@@3HA, eax ; toggle_ground_stabilisation_key

; 272  : 	}

  000c6	eb e3		 jmp	 SHORT $LN9@update_def
$LN11@update_def:

; 273  : 
; 274  : 	////////////////////////////////////////
; 275  : 
; 276  : 	////////////////////////////////////////
; 277  : 	//
; 278  : 	// slew optics
; 279  : 	//
; 280  : 	////////////////////////////////////////
; 281  : 
; 282  : 	switch (eo->field_of_view)

  000c8	8b 45 08	 mov	 eax, DWORD PTR _eo$[ebp]
  000cb	8b 08		 mov	 ecx, DWORD PTR [eax]
  000cd	89 4d a8	 mov	 DWORD PTR tv84[ebp], ecx
  000d0	83 7d a8 03	 cmp	 DWORD PTR tv84[ebp], 3
  000d4	0f 87 a0 01 00
	00		 ja	 $LN19@update_def
  000da	8b 55 a8	 mov	 edx, DWORD PTR tv84[ebp]
  000dd	ff 24 95 00 00
	00 00		 jmp	 DWORD PTR $LN23@update_def[edx*4]
$LN15@update_def:

; 283  : 	{
; 284  : 		////////////////////////////////////////
; 285  : 		case EO_FOV_ZOOM:
; 286  : 		////////////////////////////////////////
; 287  : 		{
; 288  : 			fine_slew_rate = rad (0.1) * get_delta_time ();

  000e4	f3 0f 5a 05 00
	00 00 00	 cvtss2sd xmm0, DWORD PTR ?system_delta_time@@3MA
  000ec	f2 0f 59 05 00
	00 00 00	 mulsd	 xmm0, QWORD PTR __real@3f5c987100000000
  000f4	f2 0f 5a c0	 cvtsd2ss xmm0, xmm0
  000f8	f3 0f 11 45 fc	 movss	 DWORD PTR _fine_slew_rate$[ebp], xmm0

; 289  : 
; 290  : 			medium_slew_rate = rad (0.5) * get_delta_time ();

  000fd	f3 0f 5a 05 00
	00 00 00	 cvtss2sd xmm0, DWORD PTR ?system_delta_time@@3MA
  00105	f2 0f 59 05 00
	00 00 00	 mulsd	 xmm0, QWORD PTR __real@3f81df46a0000000
  0010d	f2 0f 5a c0	 cvtsd2ss xmm0, xmm0
  00111	f3 0f 11 45 f8	 movss	 DWORD PTR _medium_slew_rate$[ebp], xmm0

; 291  : 
; 292  : 			mouse_slew_rate = rad (1.2) * get_delta_time ();	// Jabberwock 030930

  00116	f3 0f 5a 05 00
	00 00 00	 cvtss2sd xmm0, DWORD PTR ?system_delta_time@@3MA
  0011e	f2 0f 59 05 00
	00 00 00	 mulsd	 xmm0, QWORD PTR __real@3f957254c0000000
  00126	f2 0f 5a c0	 cvtsd2ss xmm0, xmm0
  0012a	f3 0f 11 45 f4	 movss	 DWORD PTR _mouse_slew_rate$[ebp], xmm0

; 293  : 			
; 294  : 			coarse_slew_rate = rad (2.0) * get_delta_time ();

  0012f	f3 0f 5a 05 00
	00 00 00	 cvtss2sd xmm0, DWORD PTR ?system_delta_time@@3MA
  00137	f2 0f 59 05 00
	00 00 00	 mulsd	 xmm0, QWORD PTR __real@3fa1df46a0000000
  0013f	f2 0f 5a c0	 cvtsd2ss xmm0, xmm0
  00143	f3 0f 11 45 f0	 movss	 DWORD PTR _coarse_slew_rate$[ebp], xmm0

; 295  : 
; 296  : 			break;

  00148	e9 40 01 00 00	 jmp	 $LN12@update_def
$LN16@update_def:

; 297  : 		}
; 298  : 		////////////////////////////////////////
; 299  : 		case EO_FOV_NARROW:
; 300  : 		////////////////////////////////////////
; 301  : 		{
; 302  : 			fine_slew_rate = rad (0.25) * get_delta_time ();

  0014d	f3 0f 5a 05 00
	00 00 00	 cvtss2sd xmm0, DWORD PTR ?system_delta_time@@3MA
  00155	f2 0f 59 05 00
	00 00 00	 mulsd	 xmm0, QWORD PTR __real@3f71df46a0000000
  0015d	f2 0f 5a c0	 cvtsd2ss xmm0, xmm0
  00161	f3 0f 11 45 fc	 movss	 DWORD PTR _fine_slew_rate$[ebp], xmm0

; 303  : 
; 304  : 			medium_slew_rate = rad (1.0) * get_delta_time ();

  00166	f3 0f 5a 05 00
	00 00 00	 cvtss2sd xmm0, DWORD PTR ?system_delta_time@@3MA
  0016e	f2 0f 59 05 00
	00 00 00	 mulsd	 xmm0, QWORD PTR __real@3f91df46a0000000
  00176	f2 0f 5a c0	 cvtsd2ss xmm0, xmm0
  0017a	f3 0f 11 45 f8	 movss	 DWORD PTR _medium_slew_rate$[ebp], xmm0

; 305  : 
; 306  : 			mouse_slew_rate = rad (2.0) * get_delta_time ();	// Jabberwock 030930

  0017f	f3 0f 5a 05 00
	00 00 00	 cvtss2sd xmm0, DWORD PTR ?system_delta_time@@3MA
  00187	f2 0f 59 05 00
	00 00 00	 mulsd	 xmm0, QWORD PTR __real@3fa1df46a0000000
  0018f	f2 0f 5a c0	 cvtsd2ss xmm0, xmm0
  00193	f3 0f 11 45 f4	 movss	 DWORD PTR _mouse_slew_rate$[ebp], xmm0

; 307  : 			
; 308  : 			coarse_slew_rate = rad (4.0) * get_delta_time ();

  00198	f3 0f 5a 05 00
	00 00 00	 cvtss2sd xmm0, DWORD PTR ?system_delta_time@@3MA
  001a0	f2 0f 59 05 00
	00 00 00	 mulsd	 xmm0, QWORD PTR __real@3fb1df46a0000000
  001a8	f2 0f 5a c0	 cvtsd2ss xmm0, xmm0
  001ac	f3 0f 11 45 f0	 movss	 DWORD PTR _coarse_slew_rate$[ebp], xmm0

; 309  : 
; 310  : 			break;

  001b1	e9 d7 00 00 00	 jmp	 $LN12@update_def
$LN17@update_def:

; 311  : 		}
; 312  : 		////////////////////////////////////////
; 313  : 		case EO_FOV_MEDIUM:
; 314  : 		////////////////////////////////////////
; 315  : 		{
; 316  : 			fine_slew_rate = rad (0.5) * get_delta_time ();

  001b6	f3 0f 5a 05 00
	00 00 00	 cvtss2sd xmm0, DWORD PTR ?system_delta_time@@3MA
  001be	f2 0f 59 05 00
	00 00 00	 mulsd	 xmm0, QWORD PTR __real@3f81df46a0000000
  001c6	f2 0f 5a c0	 cvtsd2ss xmm0, xmm0
  001ca	f3 0f 11 45 fc	 movss	 DWORD PTR _fine_slew_rate$[ebp], xmm0

; 317  : 
; 318  : 			medium_slew_rate = rad (2.5) * get_delta_time ();

  001cf	f3 0f 5a 05 00
	00 00 00	 cvtss2sd xmm0, DWORD PTR ?system_delta_time@@3MA
  001d7	f2 0f 59 05 00
	00 00 00	 mulsd	 xmm0, QWORD PTR __real@3fa6571848000000
  001df	f2 0f 5a c0	 cvtsd2ss xmm0, xmm0
  001e3	f3 0f 11 45 f8	 movss	 DWORD PTR _medium_slew_rate$[ebp], xmm0

; 319  : 
; 320  : 			mouse_slew_rate = rad (6) * get_delta_time ();	// Jabberwock 030930

  001e8	f3 0f 10 05 00
	00 00 00	 movss	 xmm0, DWORD PTR __real@3dd67750
  001f0	f3 0f 59 05 00
	00 00 00	 mulss	 xmm0, DWORD PTR ?system_delta_time@@3MA
  001f8	f3 0f 11 45 f4	 movss	 DWORD PTR _mouse_slew_rate$[ebp], xmm0

; 321  : 			
; 322  : 			coarse_slew_rate = rad (10.0) * get_delta_time ();

  001fd	f3 0f 5a 05 00
	00 00 00	 cvtss2sd xmm0, DWORD PTR ?system_delta_time@@3MA
  00205	f2 0f 59 05 00
	00 00 00	 mulsd	 xmm0, QWORD PTR __real@3fc6571848000000
  0020d	f2 0f 5a c0	 cvtsd2ss xmm0, xmm0
  00211	f3 0f 11 45 f0	 movss	 DWORD PTR _coarse_slew_rate$[ebp], xmm0

; 323  : 
; 324  : 			break;

  00216	eb 75		 jmp	 SHORT $LN12@update_def
$LN18@update_def:

; 325  : 		}
; 326  : 		////////////////////////////////////////
; 327  : 		case EO_FOV_WIDE:
; 328  : 		////////////////////////////////////////
; 329  : 		{
; 330  : 			fine_slew_rate = rad (4.0) * get_delta_time ();

  00218	f3 0f 5a 05 00
	00 00 00	 cvtss2sd xmm0, DWORD PTR ?system_delta_time@@3MA
  00220	f2 0f 59 05 00
	00 00 00	 mulsd	 xmm0, QWORD PTR __real@3fb1df46a0000000
  00228	f2 0f 5a c0	 cvtsd2ss xmm0, xmm0
  0022c	f3 0f 11 45 fc	 movss	 DWORD PTR _fine_slew_rate$[ebp], xmm0

; 331  : 
; 332  : 			medium_slew_rate = rad (20.0) * get_delta_time ();

  00231	f3 0f 5a 05 00
	00 00 00	 cvtss2sd xmm0, DWORD PTR ?system_delta_time@@3MA
  00239	f2 0f 59 05 00
	00 00 00	 mulsd	 xmm0, QWORD PTR __real@3fd6571848000000
  00241	f2 0f 5a c0	 cvtsd2ss xmm0, xmm0
  00245	f3 0f 11 45 f8	 movss	 DWORD PTR _medium_slew_rate$[ebp], xmm0

; 333  : 
; 334  : 			mouse_slew_rate = rad (48) * get_delta_time ();	// Jabberwock 030930

  0024a	f3 0f 10 05 00
	00 00 00	 movss	 xmm0, DWORD PTR __real@3f567750
  00252	f3 0f 59 05 00
	00 00 00	 mulss	 xmm0, DWORD PTR ?system_delta_time@@3MA
  0025a	f3 0f 11 45 f4	 movss	 DWORD PTR _mouse_slew_rate$[ebp], xmm0

; 335  : 			
; 336  : 			coarse_slew_rate = rad (80.0) * get_delta_time ();

  0025f	f3 0f 5a 05 00
	00 00 00	 cvtss2sd xmm0, DWORD PTR ?system_delta_time@@3MA
  00267	f2 0f 59 05 00
	00 00 00	 mulsd	 xmm0, QWORD PTR __real@3ff6571848000000
  0026f	f2 0f 5a c0	 cvtsd2ss xmm0, xmm0
  00273	f3 0f 11 45 f0	 movss	 DWORD PTR _coarse_slew_rate$[ebp], xmm0

; 337  : 
; 338  : 			break;

  00278	eb 13		 jmp	 SHORT $LN12@update_def
$LN19@update_def:

; 339  : 		}
; 340  : 		////////////////////////////////////////
; 341  : 		default:
; 342  : 		////////////////////////////////////////
; 343  : 		{
; 344  : 			debug_fatal ("Invalid field of view = %d", eo->field_of_view);

  0027a	8b 45 08	 mov	 eax, DWORD PTR _eo$[ebp]
  0027d	8b 08		 mov	 ecx, DWORD PTR [eax]
  0027f	51		 push	 ecx
  00280	68 00 00 00 00	 push	 OFFSET ??_C@_0BL@MNOBOANG@Invalid?5field?5of?5view?5?$DN?5?$CFd@
  00285	e8 00 00 00 00	 call	 ?debug_fatal@@YAXPBDZZ	; debug_fatal
  0028a	83 c4 08	 add	 esp, 8
$LN12@update_def:

; 345  : 
; 346  : 			break;
; 347  : 		}
; 348  : 	}
; 349  : 
; 350  : 	keyboard_slew_eo_system(fine_slew_rate, medium_slew_rate, coarse_slew_rate);

  0028d	51		 push	 ecx
  0028e	f3 0f 10 45 f0	 movss	 xmm0, DWORD PTR _coarse_slew_rate$[ebp]
  00293	f3 0f 11 04 24	 movss	 DWORD PTR [esp], xmm0
  00298	51		 push	 ecx
  00299	f3 0f 10 45 f8	 movss	 xmm0, DWORD PTR _medium_slew_rate$[ebp]
  0029e	f3 0f 11 04 24	 movss	 DWORD PTR [esp], xmm0
  002a3	51		 push	 ecx
  002a4	f3 0f 10 45 fc	 movss	 xmm0, DWORD PTR _fine_slew_rate$[ebp]
  002a9	f3 0f 11 04 24	 movss	 DWORD PTR [esp], xmm0
  002ae	e8 00 00 00 00	 call	 ?keyboard_slew_eo_system@@YGXMMM@Z ; keyboard_slew_eo_system

; 351  : 
; 352  : // Jabberwock 031107 ends	
; 353  : 
; 354  : 	if ( command_line_eo_pan_joystick_index == -1 )

  002b3	83 3d 00 00 00
	00 ff		 cmp	 DWORD PTR ?command_line_eo_pan_joystick_index@@3HA, -1 ; command_line_eo_pan_joystick_index
  002ba	0f 85 c9 00 00
	00		 jne	 $LN20@update_def

; 355  : 	{						
; 356  : 		float ROTATE_RATE = (float) command_line_mouse_look_speed / 5.0;

  002c0	f3 0f 2a 05 00
	00 00 00	 cvtsi2ss xmm0, DWORD PTR ?command_line_mouse_look_speed@@3HA ; command_line_mouse_look_speed
  002c8	f3 0f 5a c0	 cvtss2sd xmm0, xmm0
  002cc	f2 0f 5e 05 00
	00 00 00	 divsd	 xmm0, QWORD PTR __real@4014000000000000
  002d4	f2 0f 5a c0	 cvtsd2ss xmm0, xmm0
  002d8	f3 0f 11 45 ec	 movss	 DWORD PTR _ROTATE_RATE$1[ebp], xmm0

; 357  : 
; 358  : 		eo_azimuth = get_eo_azimuth (ROTATE_RATE, coarse_slew_rate, eo_azimuth, eo_min_azimuth, eo_max_azimuth, mouse_slew_rate);

  002dd	51		 push	 ecx
  002de	f3 0f 10 45 f4	 movss	 xmm0, DWORD PTR _mouse_slew_rate$[ebp]
  002e3	f3 0f 11 04 24	 movss	 DWORD PTR [esp], xmm0
  002e8	51		 push	 ecx
  002e9	f3 0f 10 05 00
	00 00 00	 movss	 xmm0, DWORD PTR ?eo_max_azimuth@@3MA
  002f1	f3 0f 11 04 24	 movss	 DWORD PTR [esp], xmm0
  002f6	51		 push	 ecx
  002f7	f3 0f 10 05 00
	00 00 00	 movss	 xmm0, DWORD PTR ?eo_min_azimuth@@3MA
  002ff	f3 0f 11 04 24	 movss	 DWORD PTR [esp], xmm0
  00304	51		 push	 ecx
  00305	f3 0f 10 05 00
	00 00 00	 movss	 xmm0, DWORD PTR ?eo_azimuth@@3MA
  0030d	f3 0f 11 04 24	 movss	 DWORD PTR [esp], xmm0
  00312	51		 push	 ecx
  00313	f3 0f 10 45 f0	 movss	 xmm0, DWORD PTR _coarse_slew_rate$[ebp]
  00318	f3 0f 11 04 24	 movss	 DWORD PTR [esp], xmm0
  0031d	51		 push	 ecx
  0031e	f3 0f 10 45 ec	 movss	 xmm0, DWORD PTR _ROTATE_RATE$1[ebp]
  00323	f3 0f 11 04 24	 movss	 DWORD PTR [esp], xmm0
  00328	e8 00 00 00 00	 call	 ?get_eo_azimuth@@YGMMMMMMM@Z ; get_eo_azimuth
  0032d	d9 1d 00 00 00
	00		 fstp	 DWORD PTR ?eo_azimuth@@3MA ; eo_azimuth

; 359  : 		eo_elevation = get_eo_elevation (ROTATE_RATE, coarse_slew_rate, eo_elevation, eo_min_elevation, eo_max_elevation, mouse_slew_rate);

  00333	51		 push	 ecx
  00334	f3 0f 10 45 f4	 movss	 xmm0, DWORD PTR _mouse_slew_rate$[ebp]
  00339	f3 0f 11 04 24	 movss	 DWORD PTR [esp], xmm0
  0033e	51		 push	 ecx
  0033f	f3 0f 10 05 00
	00 00 00	 movss	 xmm0, DWORD PTR ?eo_max_elevation@@3MA
  00347	f3 0f 11 04 24	 movss	 DWORD PTR [esp], xmm0
  0034c	51		 push	 ecx
  0034d	f3 0f 10 05 00
	00 00 00	 movss	 xmm0, DWORD PTR ?eo_min_elevation@@3MA
  00355	f3 0f 11 04 24	 movss	 DWORD PTR [esp], xmm0
  0035a	51		 push	 ecx
  0035b	f3 0f 10 05 00
	00 00 00	 movss	 xmm0, DWORD PTR ?eo_elevation@@3MA
  00363	f3 0f 11 04 24	 movss	 DWORD PTR [esp], xmm0
  00368	51		 push	 ecx
  00369	f3 0f 10 45 f0	 movss	 xmm0, DWORD PTR _coarse_slew_rate$[ebp]
  0036e	f3 0f 11 04 24	 movss	 DWORD PTR [esp], xmm0
  00373	51		 push	 ecx
  00374	f3 0f 10 45 ec	 movss	 xmm0, DWORD PTR _ROTATE_RATE$1[ebp]
  00379	f3 0f 11 04 24	 movss	 DWORD PTR [esp], xmm0
  0037e	e8 00 00 00 00	 call	 ?get_eo_elevation@@YGMMMMMMM@Z ; get_eo_elevation
  00383	d9 1d 00 00 00
	00		 fstp	 DWORD PTR ?eo_elevation@@3MA ; eo_elevation
$LN20@update_def:

; 360  : 	}
; 361  : 	
; 362  : 	eo->field_of_view = get_old_eo_zoom(eo->field_of_view, eo->max_field_of_view, eo->min_field_of_view);

  00389	8b 45 08	 mov	 eax, DWORD PTR _eo$[ebp]
  0038c	f3 0f 2a 40 04	 cvtsi2ss xmm0, DWORD PTR [eax+4]
  00391	51		 push	 ecx
  00392	f3 0f 11 04 24	 movss	 DWORD PTR [esp], xmm0
  00397	8b 4d 08	 mov	 ecx, DWORD PTR _eo$[ebp]
  0039a	f3 0f 2a 41 08	 cvtsi2ss xmm0, DWORD PTR [ecx+8]
  0039f	51		 push	 ecx
  003a0	f3 0f 11 04 24	 movss	 DWORD PTR [esp], xmm0
  003a5	8b 55 08	 mov	 edx, DWORD PTR _eo$[ebp]
  003a8	f3 0f 2a 02	 cvtsi2ss xmm0, DWORD PTR [edx]
  003ac	51		 push	 ecx
  003ad	f3 0f 11 04 24	 movss	 DWORD PTR [esp], xmm0
  003b2	e8 00 00 00 00	 call	 ?get_old_eo_zoom@@YGMMMM@Z ; get_old_eo_zoom
  003b7	e8 00 00 00 00	 call	 __ftol2_sse
  003bc	8b 4d 08	 mov	 ecx, DWORD PTR _eo$[ebp]
  003bf	89 01		 mov	 DWORD PTR [ecx], eax

; 363  : 
; 364  : 	////////////////////////////////////////
; 365  : 
; 366  : 	// Retro 31Oct2004 - copy+paste of loke's COMANCHE EO slew code
; 367  : 	// loke 030315
; 368  : 	// added code to allow the user to slew the eo device using joystick axes
; 369  : 
; 370  : 	joystick_slew_eo_system(medium_slew_rate);

  003c1	51		 push	 ecx
  003c2	f3 0f 10 45 f8	 movss	 xmm0, DWORD PTR _medium_slew_rate$[ebp]
  003c7	f3 0f 11 04 24	 movss	 DWORD PTR [esp], xmm0
  003cc	e8 00 00 00 00	 call	 ?joystick_slew_eo_system@@YGXM@Z ; joystick_slew_eo_system

; 371  : 
; 372  : 	////////////////////////////////////////
; 373  : 
; 374  : 	// loke 030322
; 375  : 	// handle the ground stabilisation
; 376  : 
; 377  : 	if (eo_ground_stabilised)

  003d1	83 3d 00 00 00
	00 00		 cmp	 DWORD PTR ?eo_ground_stabilised@@3HA, 0 ; eo_ground_stabilised
  003d8	74 05		 je	 SHORT $LN21@update_def

; 378  : 	{
; 379  : 		handle_ground_stabilisation();

  003da	e8 00 00 00 00	 call	 ?handle_ground_stabilisation@@YGXXZ ; handle_ground_stabilisation
$LN21@update_def:

; 380  : 	}
; 381  : 
; 382  : 	////////////////////////////////////////
; 383  : 
; 384  : }

  003df	5f		 pop	 edi
  003e0	5e		 pop	 esi
  003e1	5b		 pop	 ebx
  003e2	8b e5		 mov	 esp, ebp
  003e4	5d		 pop	 ebp
  003e5	c2 04 00	 ret	 4
$LN23@update_def:
  003e8	00 00 00 00	 DD	 $LN15@update_def
  003ec	00 00 00 00	 DD	 $LN16@update_def
  003f0	00 00 00 00	 DD	 $LN17@update_def
  003f4	00 00 00 00	 DD	 $LN18@update_def
?update_default_eo@@YGXPAUEO_PARAMS@@@Z ENDP		; update_default_eo
_TEXT	ENDS
; Function compile flags: /Odtp /ZI
; File c:\users\nhv90\projects\eech\aphavoc\source\gunships\avionics\default\df_eo.c
;	COMDAT ?get_default_eo_centred_viewpoint@@YGXPAUVIEWPOINT@@@Z
_TEXT	SEGMENT
tv140 = -136						; size = 4
tv83 = -136						; size = 4
tv154 = -132						; size = 4
tv132 = -132						; size = 4
tv75 = -132						; size = 4
_search$ = -64						; size = 56
_inst3d$ = -8						; size = 4
_source$ = -4						; size = 4
_vp$ = 8						; size = 4
?get_default_eo_centred_viewpoint@@YGXPAUVIEWPOINT@@@Z PROC ; get_default_eo_centred_viewpoint, COMDAT

; 121  : {

  00000	55		 push	 ebp
  00001	8b ec		 mov	 ebp, esp
  00003	81 ec 88 00 00
	00		 sub	 esp, 136		; 00000088H
  00009	53		 push	 ebx
  0000a	56		 push	 esi
  0000b	57		 push	 edi

; 122  : 	entity
; 123  : 		*source;
; 124  : 
; 125  : 	object_3d_instance
; 126  : 		*inst3d;
; 127  : 
; 128  : 	object_3d_sub_object_search_data
; 129  : 		search;
; 130  : 
; 131  : 	ASSERT (vp);

  0000c	83 7d 08 00	 cmp	 DWORD PTR _vp$[ebp], 0
  00010	75 18		 jne	 SHORT $LN2@get_defaul
  00012	a1 00 00 00 00	 mov	 eax, DWORD PTR ?__LINE__Var@?0??get_default_eo_centred_viewpoint@@YGXPAUVIEWPOINT@@@Z@4JA
  00017	83 c0 0a	 add	 eax, 10			; 0000000aH
  0001a	50		 push	 eax
  0001b	68 00 00 00 00	 push	 OFFSET ??_C@_0EO@BPMJDFEC@c?3?2users?2nhv90?2projects?2eech?2ap@
  00020	68 00 00 00 00	 push	 OFFSET ??_C@_02HPPNELPJ@vp@
  00025	e8 00 00 00 00	 call	 ?process_assert@@YGXPBD0H@Z ; process_assert
$LN2@get_defaul:

; 132  : 
; 133  : 	source = get_gunship_entity ();

  0002a	a1 00 00 00 00	 mov	 eax, DWORD PTR ?gunship_entity@@3PAUENTITY@@A ; gunship_entity
  0002f	89 45 fc	 mov	 DWORD PTR _source$[ebp], eax

; 134  : 
; 135  : 	inst3d = (object_3d_instance *) get_local_entity_ptr_value (source, PTR_TYPE_INSTANCE_3D_OBJECT);

  00032	83 7d fc 00	 cmp	 DWORD PTR _source$[ebp], 0
  00036	74 0d		 je	 SHORT $LN7@get_defaul
  00038	8b 45 fc	 mov	 eax, DWORD PTR _source$[ebp]
  0003b	8b 08		 mov	 ecx, DWORD PTR [eax]
  0003d	89 8d 7c ff ff
	ff		 mov	 DWORD PTR tv75[ebp], ecx
  00043	eb 24		 jmp	 SHORT $LN8@get_defaul
$LN7@get_defaul:
  00045	8b 15 00 00 00
	00		 mov	 edx, DWORD PTR ?__LINE__Var@?0??get_default_eo_centred_viewpoint@@YGXPAUVIEWPOINT@@@Z@4JA
  0004b	83 c2 0e	 add	 edx, 14			; 0000000eH
  0004e	52		 push	 edx
  0004f	68 00 00 00 00	 push	 OFFSET ??_C@_0EO@BPMJDFEC@c?3?2users?2nhv90?2projects?2eech?2ap@
  00054	a1 00 00 00 00	 mov	 eax, DWORD PTR ?null_entity_pointer_message@@3PBDB ; null_entity_pointer_message
  00059	50		 push	 eax
  0005a	e8 00 00 00 00	 call	 ?process_assert@@YGXPBD0H@Z ; process_assert
  0005f	c7 85 7c ff ff
	ff 00 00 00 00	 mov	 DWORD PTR tv75[ebp], 0
$LN8@get_defaul:
  00069	b9 01 00 00 00	 mov	 ecx, 1
  0006e	85 c9		 test	 ecx, ecx
  00070	74 0c		 je	 SHORT $LN9@get_defaul
  00072	c7 85 78 ff ff
	ff 02 00 00 00	 mov	 DWORD PTR tv83[ebp], 2
  0007c	eb 24		 jmp	 SHORT $LN10@get_defaul
$LN9@get_defaul:
  0007e	8b 15 00 00 00
	00		 mov	 edx, DWORD PTR ?__LINE__Var@?0??get_default_eo_centred_viewpoint@@YGXPAUVIEWPOINT@@@Z@4JA
  00084	83 c2 0e	 add	 edx, 14			; 0000000eH
  00087	52		 push	 edx
  00088	68 00 00 00 00	 push	 OFFSET ??_C@_0EO@BPMJDFEC@c?3?2users?2nhv90?2projects?2eech?2ap@
  0008d	a1 00 00 00 00	 mov	 eax, DWORD PTR ?overload_invalid_ptr_type_message@@3PBDB ; overload_invalid_ptr_type_message
  00092	50		 push	 eax
  00093	e8 00 00 00 00	 call	 ?process_assert@@YGXPBD0H@Z ; process_assert
  00098	c7 85 78 ff ff
	ff 00 00 00 00	 mov	 DWORD PTR tv83[ebp], 0
$LN10@get_defaul:
  000a2	6a 02		 push	 2
  000a4	8b 4d fc	 mov	 ecx, DWORD PTR _source$[ebp]
  000a7	51		 push	 ecx
  000a8	6b 95 7c ff ff
	ff 50		 imul	 edx, DWORD PTR tv75[ebp], 80
  000af	8b 85 78 ff ff
	ff		 mov	 eax, DWORD PTR tv83[ebp]
  000b5	8b 8c 82 00 00
	00 00		 mov	 ecx, DWORD PTR ?fn_get_local_entity_ptr_value@@3PAY0BE@P6GPAXPAUENTITY@@W4PTR_TYPES@@@ZA[edx+eax*4]
  000bc	ff d1		 call	 ecx
  000be	89 45 f8	 mov	 DWORD PTR _inst3d$[ebp], eax

; 136  : 
; 137  : 	ASSERT (inst3d);

  000c1	83 7d f8 00	 cmp	 DWORD PTR _inst3d$[ebp], 0
  000c5	75 18		 jne	 SHORT $LN3@get_defaul
  000c7	a1 00 00 00 00	 mov	 eax, DWORD PTR ?__LINE__Var@?0??get_default_eo_centred_viewpoint@@YGXPAUVIEWPOINT@@@Z@4JA
  000cc	83 c0 10	 add	 eax, 16			; 00000010H
  000cf	50		 push	 eax
  000d0	68 00 00 00 00	 push	 OFFSET ??_C@_0EO@BPMJDFEC@c?3?2users?2nhv90?2projects?2eech?2ap@
  000d5	68 00 00 00 00	 push	 OFFSET ??_C@_06DDNABPCD@inst3d@
  000da	e8 00 00 00 00	 call	 ?process_assert@@YGXPBD0H@Z ; process_assert
$LN3@get_defaul:

; 138  : 
; 139  : 	get_local_entity_vec3d (source, VEC3D_TYPE_POSITION, &inst3d->vp.position);

  000df	83 7d fc 00	 cmp	 DWORD PTR _source$[ebp], 0
  000e3	74 0d		 je	 SHORT $LN11@get_defaul
  000e5	8b 45 fc	 mov	 eax, DWORD PTR _source$[ebp]
  000e8	8b 08		 mov	 ecx, DWORD PTR [eax]
  000ea	89 8d 7c ff ff
	ff		 mov	 DWORD PTR tv132[ebp], ecx
  000f0	eb 24		 jmp	 SHORT $LN12@get_defaul
$LN11@get_defaul:
  000f2	8b 15 00 00 00
	00		 mov	 edx, DWORD PTR ?__LINE__Var@?0??get_default_eo_centred_viewpoint@@YGXPAUVIEWPOINT@@@Z@4JA
  000f8	83 c2 12	 add	 edx, 18			; 00000012H
  000fb	52		 push	 edx
  000fc	68 00 00 00 00	 push	 OFFSET ??_C@_0EO@BPMJDFEC@c?3?2users?2nhv90?2projects?2eech?2ap@
  00101	a1 00 00 00 00	 mov	 eax, DWORD PTR ?null_entity_pointer_message@@3PBDB ; null_entity_pointer_message
  00106	50		 push	 eax
  00107	e8 00 00 00 00	 call	 ?process_assert@@YGXPBD0H@Z ; process_assert
  0010c	c7 85 7c ff ff
	ff 00 00 00 00	 mov	 DWORD PTR tv132[ebp], 0
$LN12@get_defaul:
  00116	b9 01 00 00 00	 mov	 ecx, 1
  0011b	85 c9		 test	 ecx, ecx
  0011d	74 0c		 je	 SHORT $LN13@get_defaul
  0011f	c7 85 78 ff ff
	ff 08 00 00 00	 mov	 DWORD PTR tv140[ebp], 8
  00129	eb 24		 jmp	 SHORT $LN14@get_defaul
$LN13@get_defaul:
  0012b	8b 15 00 00 00
	00		 mov	 edx, DWORD PTR ?__LINE__Var@?0??get_default_eo_centred_viewpoint@@YGXPAUVIEWPOINT@@@Z@4JA
  00131	83 c2 12	 add	 edx, 18			; 00000012H
  00134	52		 push	 edx
  00135	68 00 00 00 00	 push	 OFFSET ??_C@_0EO@BPMJDFEC@c?3?2users?2nhv90?2projects?2eech?2ap@
  0013a	a1 00 00 00 00	 mov	 eax, DWORD PTR ?overload_invalid_vec3d_type_message@@3PBDB ; overload_invalid_vec3d_type_message
  0013f	50		 push	 eax
  00140	e8 00 00 00 00	 call	 ?process_assert@@YGXPBD0H@Z ; process_assert
  00145	c7 85 78 ff ff
	ff 00 00 00 00	 mov	 DWORD PTR tv140[ebp], 0
$LN14@get_defaul:
  0014f	8b 4d f8	 mov	 ecx, DWORD PTR _inst3d$[ebp]
  00152	83 c1 08	 add	 ecx, 8
  00155	51		 push	 ecx
  00156	6a 08		 push	 8
  00158	8b 55 fc	 mov	 edx, DWORD PTR _source$[ebp]
  0015b	52		 push	 edx
  0015c	6b 85 7c ff ff
	ff 60		 imul	 eax, DWORD PTR tv132[ebp], 96
  00163	8b 8d 78 ff ff
	ff		 mov	 ecx, DWORD PTR tv140[ebp]
  00169	8b 94 88 00 00
	00 00		 mov	 edx, DWORD PTR ?fn_get_local_entity_vec3d@@3PAY0BI@P6GXPAUENTITY@@W4VEC3D_TYPES@@PAUVEC3D@@@ZA[eax+ecx*4]
  00170	ff d2		 call	 edx

; 140  : 
; 141  : 	get_local_entity_attitude_matrix (source, inst3d->vp.attitude);

  00172	83 7d fc 00	 cmp	 DWORD PTR _source$[ebp], 0
  00176	74 0d		 je	 SHORT $LN15@get_defaul
  00178	8b 45 fc	 mov	 eax, DWORD PTR _source$[ebp]
  0017b	8b 08		 mov	 ecx, DWORD PTR [eax]
  0017d	89 8d 7c ff ff
	ff		 mov	 DWORD PTR tv154[ebp], ecx
  00183	eb 24		 jmp	 SHORT $LN16@get_defaul
$LN15@get_defaul:
  00185	8b 15 00 00 00
	00		 mov	 edx, DWORD PTR ?__LINE__Var@?0??get_default_eo_centred_viewpoint@@YGXPAUVIEWPOINT@@@Z@4JA
  0018b	83 c2 14	 add	 edx, 20			; 00000014H
  0018e	52		 push	 edx
  0018f	68 00 00 00 00	 push	 OFFSET ??_C@_0EO@BPMJDFEC@c?3?2users?2nhv90?2projects?2eech?2ap@
  00194	a1 00 00 00 00	 mov	 eax, DWORD PTR ?null_entity_pointer_message@@3PBDB ; null_entity_pointer_message
  00199	50		 push	 eax
  0019a	e8 00 00 00 00	 call	 ?process_assert@@YGXPBD0H@Z ; process_assert
  0019f	c7 85 7c ff ff
	ff 00 00 00 00	 mov	 DWORD PTR tv154[ebp], 0
$LN16@get_defaul:
  001a9	8b 4d f8	 mov	 ecx, DWORD PTR _inst3d$[ebp]
  001ac	83 c1 14	 add	 ecx, 20			; 00000014H
  001af	51		 push	 ecx
  001b0	8b 55 fc	 mov	 edx, DWORD PTR _source$[ebp]
  001b3	52		 push	 edx
  001b4	8b 85 7c ff ff
	ff		 mov	 eax, DWORD PTR tv154[ebp]
  001ba	8b 0c 85 00 00
	00 00		 mov	 ecx, DWORD PTR ?fn_get_local_entity_attitude_matrix@@3PAP6GXPAUENTITY@@QAY02M@ZA[eax*4]
  001c1	ff d1		 call	 ecx

; 142  : 
; 143  : 	search.search_depth = 0;

  001c3	c7 45 c8 00 00
	00 00		 mov	 DWORD PTR _search$[ebp+8], 0

; 144  : 	search.search_object = inst3d;

  001ca	8b 45 f8	 mov	 eax, DWORD PTR _inst3d$[ebp]
  001cd	89 45 c0	 mov	 DWORD PTR _search$[ebp], eax

; 145  : 	search.sub_object_index = OBJECT_3D_SUB_OBJECT_AH64D_TADS_HEADING;

  001d0	c7 45 cc 0b 00
	00 00		 mov	 DWORD PTR _search$[ebp+12], 11 ; 0000000bH

; 146  : 
; 147  : 	if (find_object_3d_sub_object (&search) == SUB_OBJECT_SEARCH_RESULT_OBJECT_FOUND)

  001d7	8d 45 c0	 lea	 eax, DWORD PTR _search$[ebp]
  001da	50		 push	 eax
  001db	e8 00 00 00 00	 call	 ?find_object_3d_sub_object@@YG?AW4SUB_OBJECT_SEARCH_RESULT_TYPES@@PAUOBJECT_3D_SUB_OBJECT_SEARCH_DATA@@@Z ; find_object_3d_sub_object
  001e0	83 f8 01	 cmp	 eax, 1
  001e3	75 0f		 jne	 SHORT $LN4@get_defaul

; 148  : 	{
; 149  : 		get_3d_sub_object_world_viewpoint (search.result_sub_object, vp);

  001e5	8b 45 08	 mov	 eax, DWORD PTR _vp$[ebp]
  001e8	50		 push	 eax
  001e9	8b 4d c4	 mov	 ecx, DWORD PTR _search$[ebp+4]
  001ec	51		 push	 ecx
  001ed	e8 00 00 00 00	 call	 ?get_3d_sub_object_world_viewpoint@@YGXPAUOBJECT_3D_SUB_INSTANCE@@PAUVIEWPOINT@@@Z ; get_3d_sub_object_world_viewpoint

; 150  : 	}
; 151  : 	else

  001f2	eb 22		 jmp	 SHORT $LN5@get_defaul
$LN4@get_defaul:

; 152  : 	{
; 153  : 		//
; 154  : 		// can happpen if the object is being destroyed
; 155  : 		//
; 156  : 
; 157  : 		memcpy (&vp->position, &inst3d->vp.position, sizeof (vec3d));

  001f4	6a 0c		 push	 12			; 0000000cH
  001f6	8b 45 f8	 mov	 eax, DWORD PTR _inst3d$[ebp]
  001f9	83 c0 08	 add	 eax, 8
  001fc	50		 push	 eax
  001fd	8b 4d 08	 mov	 ecx, DWORD PTR _vp$[ebp]
  00200	51		 push	 ecx
  00201	e8 00 00 00 00	 call	 _memcpy
  00206	83 c4 0c	 add	 esp, 12			; 0000000cH

; 158  : 
; 159  : 		debug_log ("OBJECT_3D_SUB_OBJECT_AH64D_TADS_HEADING missing from Apache");

  00209	68 00 00 00 00	 push	 OFFSET ??_C@_0DM@OPDFHCEJ@OBJECT_3D_SUB_OBJECT_AH64D_TADS@
  0020e	e8 00 00 00 00	 call	 ?debug_log@@YAXPBDZZ	; debug_log
  00213	83 c4 04	 add	 esp, 4
$LN5@get_defaul:

; 160  : 	}
; 161  : 
; 162  : 	memcpy (&vp->attitude, &inst3d->vp.attitude, sizeof (matrix3x3));

  00216	6a 24		 push	 36			; 00000024H
  00218	8b 45 f8	 mov	 eax, DWORD PTR _inst3d$[ebp]
  0021b	83 c0 14	 add	 eax, 20			; 00000014H
  0021e	50		 push	 eax
  0021f	8b 4d 08	 mov	 ecx, DWORD PTR _vp$[ebp]
  00222	83 c1 0c	 add	 ecx, 12			; 0000000cH
  00225	51		 push	 ecx
  00226	e8 00 00 00 00	 call	 _memcpy
  0022b	83 c4 0c	 add	 esp, 12			; 0000000cH

; 163  : }

  0022e	5f		 pop	 edi
  0022f	5e		 pop	 esi
  00230	5b		 pop	 ebx
  00231	8b e5		 mov	 esp, ebp
  00233	5d		 pop	 ebp
  00234	c2 04 00	 ret	 4
?get_default_eo_centred_viewpoint@@YGXPAUVIEWPOINT@@@Z ENDP ; get_default_eo_centred_viewpoint
_TEXT	ENDS
; Function compile flags: /Odtp /ZI
; File c:\users\nhv90\projects\eech\aphavoc\source\gunships\avionics\default\df_eo.c
;	COMDAT ?deinitialise_default_eo@@YGXXZ
_TEXT	SEGMENT
?deinitialise_default_eo@@YGXXZ PROC			; deinitialise_default_eo, COMDAT

; 113  : {

  00000	55		 push	 ebp
  00001	8b ec		 mov	 ebp, esp
  00003	83 ec 40	 sub	 esp, 64			; 00000040H
  00006	53		 push	 ebx
  00007	56		 push	 esi
  00008	57		 push	 edi

; 114  : }

  00009	5f		 pop	 edi
  0000a	5e		 pop	 esi
  0000b	5b		 pop	 ebx
  0000c	8b e5		 mov	 esp, ebp
  0000e	5d		 pop	 ebp
  0000f	c3		 ret	 0
?deinitialise_default_eo@@YGXXZ ENDP			; deinitialise_default_eo
_TEXT	ENDS
; Function compile flags: /Odtp /ZI
; File c:\users\nhv90\projects\eech\aphavoc\source\gunships\avionics\default\df_eo.c
;	COMDAT ?initialise_default_eo@@YGXXZ
_TEXT	SEGMENT
?initialise_default_eo@@YGXXZ PROC			; initialise_default_eo, COMDAT

; 83   : {

  00000	55		 push	 ebp
  00001	8b ec		 mov	 ebp, esp
  00003	83 ec 40	 sub	 esp, 64			; 00000040H
  00006	53		 push	 ebx
  00007	56		 push	 esi
  00008	57		 push	 edi

; 84   : 	eo_sensor							= TARGET_ACQUISITION_SYSTEM_FLIR;

  00009	c7 05 00 00 00
	00 03 00 00 00	 mov	 DWORD PTR ?eo_sensor@@3W4TARGET_ACQUISITION_SYSTEMS@@A, 3 ; eo_sensor

; 85   : 
; 86   : 	eo_azimuth							= rad (0.0);

  00013	0f 57 c0	 xorps	 xmm0, xmm0
  00016	f3 0f 11 05 00
	00 00 00	 movss	 DWORD PTR ?eo_azimuth@@3MA, xmm0

; 87   : 	eo_min_azimuth						= rad (-60.0);

  0001e	f3 0f 10 05 00
	00 00 00	 movss	 xmm0, DWORD PTR __real@bf860a92
  00026	f3 0f 11 05 00
	00 00 00	 movss	 DWORD PTR ?eo_min_azimuth@@3MA, xmm0

; 88   : 	eo_max_azimuth						= rad (60.0);

  0002e	f3 0f 10 05 00
	00 00 00	 movss	 xmm0, DWORD PTR __real@3f860a92
  00036	f3 0f 11 05 00
	00 00 00	 movss	 DWORD PTR ?eo_max_azimuth@@3MA, xmm0

; 89   : 	eo_elevation						= rad (0.0);

  0003e	0f 57 c0	 xorps	 xmm0, xmm0
  00041	f3 0f 11 05 00
	00 00 00	 movss	 DWORD PTR ?eo_elevation@@3MA, xmm0

; 90   : 	eo_min_elevation					= rad (-60.0);

  00049	f3 0f 10 05 00
	00 00 00	 movss	 xmm0, DWORD PTR __real@bf860a92
  00051	f3 0f 11 05 00
	00 00 00	 movss	 DWORD PTR ?eo_min_elevation@@3MA, xmm0

; 91   : 	eo_max_elevation					= rad (30.0);

  00059	f3 0f 10 05 00
	00 00 00	 movss	 xmm0, DWORD PTR __real@3f060a92
  00061	f3 0f 11 05 00
	00 00 00	 movss	 DWORD PTR ?eo_max_elevation@@3MA, xmm0

; 92   : 	eo_max_visual_range				= 6000.0,

  00069	f3 0f 10 05 00
	00 00 00	 movss	 xmm0, DWORD PTR __real@45bb8000
  00071	f3 0f 11 05 00
	00 00 00	 movss	 DWORD PTR ?eo_max_visual_range@@3MA, xmm0
  00079	c7 05 00 00 00
	00 00 00 00 00	 mov	 DWORD PTR ?eo_ground_stabilised@@3HA, 0 ; eo_ground_stabilised

; 93   : 	eo_ground_stabilised					= 0;
; 94   : 
; 95   : 	default_flir.field_of_view		= EO_FOV_WIDE;

  00083	c7 05 00 00 00
	00 03 00 00 00	 mov	 DWORD PTR ?default_flir@@3UEO_PARAMS@@A, 3

; 96   : 	default_flir.min_field_of_view	= EO_FOV_ZOOM;

  0008d	c7 05 04 00 00
	00 00 00 00 00	 mov	 DWORD PTR ?default_flir@@3UEO_PARAMS@@A+4, 0

; 97   : 	default_flir.max_field_of_view	= EO_FOV_WIDE;

  00097	c7 05 08 00 00
	00 03 00 00 00	 mov	 DWORD PTR ?default_flir@@3UEO_PARAMS@@A+8, 3

; 98   : 
; 99   : 	default_dtv.field_of_view		= EO_FOV_MEDIUM;

  000a1	c7 05 00 00 00
	00 02 00 00 00	 mov	 DWORD PTR ?default_dtv@@3UEO_PARAMS@@A, 2

; 100  : 	default_dtv.min_field_of_view	= EO_FOV_NARROW;

  000ab	c7 05 04 00 00
	00 01 00 00 00	 mov	 DWORD PTR ?default_dtv@@3UEO_PARAMS@@A+4, 1

; 101  : 	default_dtv.max_field_of_view	= EO_FOV_MEDIUM;

  000b5	c7 05 08 00 00
	00 02 00 00 00	 mov	 DWORD PTR ?default_dtv@@3UEO_PARAMS@@A+8, 2

; 102  : 
; 103  : 	default_dvo.field_of_view		= EO_FOV_MEDIUM;

  000bf	c7 05 00 00 00
	00 02 00 00 00	 mov	 DWORD PTR ?default_dvo@@3UEO_PARAMS@@A, 2

; 104  : 	default_dvo.min_field_of_view	= EO_FOV_MEDIUM;

  000c9	c7 05 04 00 00
	00 02 00 00 00	 mov	 DWORD PTR ?default_dvo@@3UEO_PARAMS@@A+4, 2

; 105  : 	default_dvo.max_field_of_view	= EO_FOV_WIDE;

  000d3	c7 05 08 00 00
	00 03 00 00 00	 mov	 DWORD PTR ?default_dvo@@3UEO_PARAMS@@A+8, 3

; 106  : };

  000dd	5f		 pop	 edi
  000de	5e		 pop	 esi
  000df	5b		 pop	 ebx
  000e0	8b e5		 mov	 esp, ebp
  000e2	5d		 pop	 ebp
  000e3	c3		 ret	 0
?initialise_default_eo@@YGXXZ ENDP			; initialise_default_eo
_TEXT	ENDS
END
