; Listing generated by Microsoft (R) Optimizing Compiler Version 19.16.27045.0 

	TITLE	C:\Users\nhv90\Projects\eech\aphavoc\source\gunships\avionics\default\df_wpn.c
	.686P
	.XMM
	include listing.inc
	.model	flat

INCLUDELIB MSVCRTD
INCLUDELIB OLDNAMES

PUBLIC	?default_stinger_seeker_head_x_position@@3MA	; default_stinger_seeker_head_x_position
PUBLIC	?default_stinger_seeker_head_y_position@@3MA	; default_stinger_seeker_head_y_position
_BSS	SEGMENT
?default_stinger_seeker_head_x_position@@3MA DD 01H DUP (?) ; default_stinger_seeker_head_x_position
?default_stinger_seeker_head_y_position@@3MA DD 01H DUP (?) ; default_stinger_seeker_head_y_position
_BSS	ENDS
PUBLIC	_cosf
PUBLIC	_sinf
PUBLIC	?cos@@YGMM@Z					; cos
PUBLIC	?sin@@YGMM@Z					; sin
PUBLIC	?initialise_default_weapon_systems@@YGXXZ	; initialise_default_weapon_systems
PUBLIC	?update_default_weapon_systems@@YGXXZ		; update_default_weapon_systems
PUBLIC	?get_default_missile_flight_time@@YGMXZ		; get_default_missile_flight_time
PUBLIC	?toggle_default_radar_jammer_manual@@YGXXZ	; toggle_default_radar_jammer_manual
PUBLIC	?set_default_radar_jammer_manual@@YGXH@Z	; set_default_radar_jammer_manual
PUBLIC	?set_default_radar_jammer_auto@@YGXH@Z		; set_default_radar_jammer_auto
PUBLIC	?toggle_default_infra_red_jammer_manual@@YGXXZ	; toggle_default_infra_red_jammer_manual
PUBLIC	?set_default_infra_red_jammer_manual@@YGXH@Z	; set_default_infra_red_jammer_manual
PUBLIC	?set_default_infra_red_jammer_auto@@YGXH@Z	; set_default_infra_red_jammer_auto
PUBLIC	??$min@H@std@@YGABHABH0@Z			; std::min<int>
PUBLIC	??$max@H@std@@YGABHABH0@Z			; std::max<int>
PUBLIC	??_C@_02DKCKIIND@?$CFs@				; `string'
PUBLIC	?__LINE__Var@?0??apply_weapon_recoil_effect@@YGXPAUENTITY@@H@Z@4JA ; `apply_weapon_recoil_effect'::`1'::__LINE__Var
PUBLIC	??_C@_0EP@JJOFDEIA@c?3?2users?2nhv90?2projects?2eech?2ap@ ; `string'
PUBLIC	??_C@_02LFNMGJAP@en@				; `string'
PUBLIC	?__LINE__Var@?0??update_default_weapon_systems@@YGXXZ@4JA ; `update_default_weapon_systems'::`1'::__LINE__Var
PUBLIC	?__LINE__Var@?0??get_default_missile_flight_time@@YGMXZ@4JA ; `get_default_missile_flight_time'::`1'::__LINE__Var
PUBLIC	?__LINE__Var@?0??toggle_default_radar_jammer_manual@@YGXXZ@4JA ; `toggle_default_radar_jammer_manual'::`1'::__LINE__Var
PUBLIC	?__LINE__Var@?0??set_default_radar_jammer_manual@@YGXH@Z@4JA ; `set_default_radar_jammer_manual'::`1'::__LINE__Var
PUBLIC	?__LINE__Var@?0??set_default_radar_jammer_auto@@YGXH@Z@4JA ; `set_default_radar_jammer_auto'::`1'::__LINE__Var
PUBLIC	?__LINE__Var@?0??toggle_default_infra_red_jammer_manual@@YGXXZ@4JA ; `toggle_default_infra_red_jammer_manual'::`1'::__LINE__Var
PUBLIC	?__LINE__Var@?0??set_default_infra_red_jammer_manual@@YGXH@Z@4JA ; `set_default_infra_red_jammer_manual'::`1'::__LINE__Var
PUBLIC	?__LINE__Var@?0??set_default_infra_red_jammer_auto@@YGXH@Z@4JA ; `set_default_infra_red_jammer_auto'::`1'::__LINE__Var
PUBLIC	??_C@_0BD@FEEMDEPI@invalid?5comparator@		; `string'
PUBLIC	??_C@_0GK@JMBMHIBC@c?3?2program?5files?5?$CIx86?$CJ?2microsof@ ; `string'
PUBLIC	??_C@_1NE@FKBPBJEB@?$AAc?$AA?3?$AA?2?$AAp?$AAr?$AAo?$AAg?$AAr?$AAa?$AAm?$AA?5?$AAf?$AAi?$AAl?$AAe@ ; `string'
PUBLIC	??_C@_1BC@BLAPCBGI@?$AAs?$AAt?$AAd?$AA?3?$AA?3?$AAm?$AAi?$AAn@ ; `string'
PUBLIC	??_C@_1CK@NDNHPKPI@?$AA?$CC?$AAi?$AAn?$AAv?$AAa?$AAl?$AAi?$AAd?$AA?5?$AAc?$AAo?$AAm?$AAp?$AAa?$AAr@ ; `string'
PUBLIC	??_C@_1BC@ICCOKLEG@?$AAs?$AAt?$AAd?$AA?3?$AA?3?$AAm?$AAa?$AAx@ ; `string'
PUBLIC	__real@0000000000000000
PUBLIC	__real@3dcccccd
PUBLIC	__real@3e4ccccd
PUBLIC	__real@3e99999a
PUBLIC	__real@3ecccccd
PUBLIC	__real@3f000000
PUBLIC	__real@3f19999a
PUBLIC	__real@3f333333
PUBLIC	__real@3f800000
PUBLIC	__real@3fc0000000000000
PUBLIC	__real@3fd0000000000000
PUBLIC	__real@40000000
PUBLIC	__real@4000c15236000000
PUBLIC	__real@400921fb51000000
PUBLIC	__real@40200000
PUBLIC	__real@40400000
PUBLIC	__real@40f00000
PUBLIC	__real@41000000
PUBLIC	__real@41100000
PUBLIC	__real@41200000
EXTRN	__imp___invalid_parameter:PROC
EXTRN	__imp___CrtDbgReport:PROC
EXTRN	_cos:PROC
EXTRN	_sin:PROC
EXTRN	?process_assert@@YGXPBD0H@Z:PROC		; process_assert
EXTRN	?get_3d_range@@YGMPBUVEC3D@@0@Z:PROC		; get_3d_range
EXTRN	?launch_client_server_weapon@@YGXPAUENTITY@@H@Z:PROC ; launch_client_server_weapon
EXTRN	?get_local_entity_selected_weapon_viewpoint@@YGHPAUENTITY@@PAUVIEWPOINT@@@Z:PROC ; get_local_entity_selected_weapon_viewpoint
EXTRN	?play_client_server_cpg_message@@YGHPAUENTITY@@MMHMH@Z:PROC ; play_client_server_cpg_message
EXTRN	?pause_local_entity_sound_type@@YGHPAUENTITY@@HM@Z:PROC ; pause_local_entity_sound_type
EXTRN	?resume_local_entity_sound_type@@YGHPAUENTITY@@H@Z:PROC ; resume_local_entity_sound_type
EXTRN	?pfz_active@@YGHXZ:PROC				; pfz_active
EXTRN	?get_next_ground_radar_target@@YGXXZ:PROC	; get_next_ground_radar_target
EXTRN	?play_common_cpg_radar_jammer_speech@@YGXH@Z:PROC ; play_common_cpg_radar_jammer_speech
EXTRN	?play_common_cpg_infra_red_jammer_speech@@YGXH@Z:PROC ; play_common_cpg_infra_red_jammer_speech
EXTRN	?play_common_cpg_failed_launch_speech@@YGXW4WEAPON_LOCK_TYPES@@@Z:PROC ; play_common_cpg_failed_launch_speech
EXTRN	?update_good_tone@@YGXXZ:PROC			; update_good_tone
EXTRN	?reset_good_tone@@YGXXZ:PROC			; reset_good_tone
EXTRN	?add_dynamic_weapon_launch_force@@YGXPAUVEC3D@@0MM@Z:PROC ; add_dynamic_weapon_launch_force
EXTRN	?system_delta_time@@3MA:DWORD			; system_delta_time
EXTRN	?null_entity_pointer_message@@3PBDB:DWORD	; null_entity_pointer_message
EXTRN	?global_options@@3UGLOBAL_OPTIONS_DATA@@A:BYTE	; global_options
EXTRN	?system_comms_model@@3W4COMMS_MODEL_TYPES@@A:DWORD ; system_comms_model
EXTRN	?overload_invalid_list_type_message@@3PBDB:DWORD ; overload_invalid_list_type_message
EXTRN	?fn_get_local_entity_first_child@@3PAY0CN@P6GPAUENTITY@@PAU1@W4LIST_TYPES@@@ZA:BYTE ; fn_get_local_entity_first_child
EXTRN	?fn_get_local_entity_parent@@3PAY0CN@P6GPAUENTITY@@PAU1@W4LIST_TYPES@@@ZA:BYTE ; fn_get_local_entity_parent
EXTRN	?fn_get_local_entity_child_succ@@3PAY0CN@P6GPAUENTITY@@PAU1@W4LIST_TYPES@@@ZA:BYTE ; fn_get_local_entity_child_succ
EXTRN	?overload_invalid_float_type_message@@3PBDB:DWORD ; overload_invalid_float_type_message
EXTRN	?fn_get_local_entity_float_value@@3PAY0KP@P6GMPAUENTITY@@W4FLOAT_TYPES@@@ZA:BYTE ; fn_get_local_entity_float_value
EXTRN	?overload_invalid_int_type_message@@3PBDB:DWORD	; overload_invalid_int_type_message
EXTRN	?fn_set_client_server_entity_int_value@@3PAY1BBH@1P6GXPAUENTITY@@W4INT_TYPES@@H@ZA:BYTE ; fn_set_client_server_entity_int_value
EXTRN	?fn_get_local_entity_int_value@@3PAY0BBH@P6GHPAUENTITY@@W4INT_TYPES@@@ZA:BYTE ; fn_get_local_entity_int_value
EXTRN	?overload_invalid_vec3d_type_message@@3PBDB:DWORD ; overload_invalid_vec3d_type_message
EXTRN	?fn_get_local_entity_vec3d_ptr@@3PAY0BI@P6GPAUVEC3D@@PAUENTITY@@W4VEC3D_TYPES@@@ZA:BYTE ; fn_get_local_entity_vec3d_ptr
EXTRN	?weapon_database@@3PAUWEAPON_DATA@@A:BYTE	; weapon_database
EXTRN	?gunship_entity@@3PAUENTITY@@A:DWORD		; gunship_entity
EXTRN	?target_acquisition_system@@3W4TARGET_ACQUISITION_SYSTEMS@@A:DWORD ; target_acquisition_system
EXTRN	?weapon_lock_type@@3W4WEAPON_LOCK_TYPES@@A:DWORD ; weapon_lock_type
EXTRN	?fire_continuous_weapon@@3HA:DWORD		; fire_continuous_weapon
EXTRN	?fire_single_weapon@@3HA:DWORD			; fire_single_weapon
EXTRN	?rocket_salvo_size@@3HA:DWORD			; rocket_salvo_size
EXTRN	?rocket_salvo_count@@3HA:DWORD			; rocket_salvo_count
EXTRN	?default_damage@@3TDEFAULT_DAMAGE_FLAGS@@A:DWORD ; default_damage
EXTRN	__fltused:DWORD
_BSS	SEGMENT
?seeker_head_theta1@@3MA DD 01H DUP (?)			; seeker_head_theta1
?seeker_head_theta2@@3MA DD 01H DUP (?)			; seeker_head_theta2
_BSS	ENDS
;	COMDAT __real@41200000
CONST	SEGMENT
__real@41200000 DD 041200000r			; 10
CONST	ENDS
;	COMDAT __real@41100000
CONST	SEGMENT
__real@41100000 DD 041100000r			; 9
CONST	ENDS
;	COMDAT __real@41000000
CONST	SEGMENT
__real@41000000 DD 041000000r			; 8
CONST	ENDS
;	COMDAT __real@40f00000
CONST	SEGMENT
__real@40f00000 DD 040f00000r			; 7.5
CONST	ENDS
;	COMDAT __real@40400000
CONST	SEGMENT
__real@40400000 DD 040400000r			; 3
CONST	ENDS
;	COMDAT __real@40200000
CONST	SEGMENT
__real@40200000 DD 040200000r			; 2.5
CONST	ENDS
;	COMDAT __real@400921fb51000000
CONST	SEGMENT
__real@400921fb51000000 DQ 0400921fb51000000r	; 3.14159
CONST	ENDS
;	COMDAT __real@4000c15236000000
CONST	SEGMENT
__real@4000c15236000000 DQ 04000c15236000000r	; 2.0944
CONST	ENDS
;	COMDAT __real@40000000
CONST	SEGMENT
__real@40000000 DD 040000000r			; 2
CONST	ENDS
;	COMDAT __real@3fd0000000000000
CONST	SEGMENT
__real@3fd0000000000000 DQ 03fd0000000000000r	; 0.25
CONST	ENDS
;	COMDAT __real@3fc0000000000000
CONST	SEGMENT
__real@3fc0000000000000 DQ 03fc0000000000000r	; 0.125
CONST	ENDS
;	COMDAT __real@3f800000
CONST	SEGMENT
__real@3f800000 DD 03f800000r			; 1
CONST	ENDS
;	COMDAT __real@3f333333
CONST	SEGMENT
__real@3f333333 DD 03f333333r			; 0.7
CONST	ENDS
;	COMDAT __real@3f19999a
CONST	SEGMENT
__real@3f19999a DD 03f19999ar			; 0.6
CONST	ENDS
;	COMDAT __real@3f000000
CONST	SEGMENT
__real@3f000000 DD 03f000000r			; 0.5
CONST	ENDS
;	COMDAT __real@3ecccccd
CONST	SEGMENT
__real@3ecccccd DD 03ecccccdr			; 0.4
CONST	ENDS
;	COMDAT __real@3e99999a
CONST	SEGMENT
__real@3e99999a DD 03e99999ar			; 0.3
CONST	ENDS
;	COMDAT __real@3e4ccccd
CONST	SEGMENT
__real@3e4ccccd DD 03e4ccccdr			; 0.2
CONST	ENDS
;	COMDAT __real@3dcccccd
CONST	SEGMENT
__real@3dcccccd DD 03dcccccdr			; 0.1
CONST	ENDS
;	COMDAT __real@0000000000000000
CONST	SEGMENT
__real@0000000000000000 DQ 00000000000000000r	; 0
CONST	ENDS
;	COMDAT ??_C@_1BC@ICCOKLEG@?$AAs?$AAt?$AAd?$AA?3?$AA?3?$AAm?$AAa?$AAx@
CONST	SEGMENT
??_C@_1BC@ICCOKLEG@?$AAs?$AAt?$AAd?$AA?3?$AA?3?$AAm?$AAa?$AAx@ DB 's', 00H
	DB	't', 00H, 'd', 00H, ':', 00H, ':', 00H, 'm', 00H, 'a', 00H, 'x'
	DB	00H, 00H, 00H				; `string'
CONST	ENDS
;	COMDAT ??_C@_1CK@NDNHPKPI@?$AA?$CC?$AAi?$AAn?$AAv?$AAa?$AAl?$AAi?$AAd?$AA?5?$AAc?$AAo?$AAm?$AAp?$AAa?$AAr@
CONST	SEGMENT
??_C@_1CK@NDNHPKPI@?$AA?$CC?$AAi?$AAn?$AAv?$AAa?$AAl?$AAi?$AAd?$AA?5?$AAc?$AAo?$AAm?$AAp?$AAa?$AAr@ DB '"'
	DB	00H, 'i', 00H, 'n', 00H, 'v', 00H, 'a', 00H, 'l', 00H, 'i', 00H
	DB	'd', 00H, ' ', 00H, 'c', 00H, 'o', 00H, 'm', 00H, 'p', 00H, 'a'
	DB	00H, 'r', 00H, 'a', 00H, 't', 00H, 'o', 00H, 'r', 00H, '"', 00H
	DB	00H, 00H					; `string'
CONST	ENDS
;	COMDAT ??_C@_1BC@BLAPCBGI@?$AAs?$AAt?$AAd?$AA?3?$AA?3?$AAm?$AAi?$AAn@
CONST	SEGMENT
??_C@_1BC@BLAPCBGI@?$AAs?$AAt?$AAd?$AA?3?$AA?3?$AAm?$AAi?$AAn@ DB 's', 00H
	DB	't', 00H, 'd', 00H, ':', 00H, ':', 00H, 'm', 00H, 'i', 00H, 'n'
	DB	00H, 00H, 00H				; `string'
CONST	ENDS
;	COMDAT ??_C@_1NE@FKBPBJEB@?$AAc?$AA?3?$AA?2?$AAp?$AAr?$AAo?$AAg?$AAr?$AAa?$AAm?$AA?5?$AAf?$AAi?$AAl?$AAe@
CONST	SEGMENT
??_C@_1NE@FKBPBJEB@?$AAc?$AA?3?$AA?2?$AAp?$AAr?$AAo?$AAg?$AAr?$AAa?$AAm?$AA?5?$AAf?$AAi?$AAl?$AAe@ DB 'c'
	DB	00H, ':', 00H, '\', 00H, 'p', 00H, 'r', 00H, 'o', 00H, 'g', 00H
	DB	'r', 00H, 'a', 00H, 'm', 00H, ' ', 00H, 'f', 00H, 'i', 00H, 'l'
	DB	00H, 'e', 00H, 's', 00H, ' ', 00H, '(', 00H, 'x', 00H, '8', 00H
	DB	'6', 00H, ')', 00H, '\', 00H, 'm', 00H, 'i', 00H, 'c', 00H, 'r'
	DB	00H, 'o', 00H, 's', 00H, 'o', 00H, 'f', 00H, 't', 00H, ' ', 00H
	DB	'v', 00H, 'i', 00H, 's', 00H, 'u', 00H, 'a', 00H, 'l', 00H, ' '
	DB	00H, 's', 00H, 't', 00H, 'u', 00H, 'd', 00H, 'i', 00H, 'o', 00H
	DB	'\', 00H, '2', 00H, '0', 00H, '1', 00H, '7', 00H, '\', 00H, 'c'
	DB	00H, 'o', 00H, 'm', 00H, 'm', 00H, 'u', 00H, 'n', 00H, 'i', 00H
	DB	't', 00H, 'y', 00H, '\', 00H, 'v', 00H, 'c', 00H, '\', 00H, 't'
	DB	00H, 'o', 00H, 'o', 00H, 'l', 00H, 's', 00H, '\', 00H, 'm', 00H
	DB	's', 00H, 'v', 00H, 'c', 00H, '\', 00H, '1', 00H, '4', 00H, '.'
	DB	00H, '1', 00H, '6', 00H, '.', 00H, '2', 00H, '7', 00H, '0', 00H
	DB	'2', 00H, '3', 00H, '\', 00H, 'i', 00H, 'n', 00H, 'c', 00H, 'l'
	DB	00H, 'u', 00H, 'd', 00H, 'e', 00H, '\', 00H, 'a', 00H, 'l', 00H
	DB	'g', 00H, 'o', 00H, 'r', 00H, 'i', 00H, 't', 00H, 'h', 00H, 'm'
	DB	00H, 00H, 00H				; `string'
CONST	ENDS
;	COMDAT ??_C@_0GK@JMBMHIBC@c?3?2program?5files?5?$CIx86?$CJ?2microsof@
CONST	SEGMENT
??_C@_0GK@JMBMHIBC@c?3?2program?5files?5?$CIx86?$CJ?2microsof@ DB 'c:\pro'
	DB	'gram files (x86)\microsoft visual studio\2017\community\vc\to'
	DB	'ols\msvc\14.16.27023\include\algorithm', 00H ; `string'
CONST	ENDS
;	COMDAT ??_C@_0BD@FEEMDEPI@invalid?5comparator@
CONST	SEGMENT
??_C@_0BD@FEEMDEPI@invalid?5comparator@ DB 'invalid comparator', 00H ; `string'
CONST	ENDS
;	COMDAT ?__LINE__Var@?0??set_default_infra_red_jammer_auto@@YGXH@Z@4JA
_DATA	SEGMENT
?__LINE__Var@?0??set_default_infra_red_jammer_auto@@YGXH@Z@4JA DD 02f3H ; `set_default_infra_red_jammer_auto'::`1'::__LINE__Var
_DATA	ENDS
;	COMDAT ?__LINE__Var@?0??set_default_infra_red_jammer_manual@@YGXH@Z@4JA
_DATA	SEGMENT
?__LINE__Var@?0??set_default_infra_red_jammer_manual@@YGXH@Z@4JA DD 02e1H ; `set_default_infra_red_jammer_manual'::`1'::__LINE__Var
_DATA	ENDS
;	COMDAT ?__LINE__Var@?0??toggle_default_infra_red_jammer_manual@@YGXXZ@4JA
_DATA	SEGMENT
?__LINE__Var@?0??toggle_default_infra_red_jammer_manual@@YGXXZ@4JA DD 02c9H ; `toggle_default_infra_red_jammer_manual'::`1'::__LINE__Var
_DATA	ENDS
;	COMDAT ?__LINE__Var@?0??set_default_radar_jammer_auto@@YGXH@Z@4JA
_DATA	SEGMENT
?__LINE__Var@?0??set_default_radar_jammer_auto@@YGXH@Z@4JA DD 02b7H ; `set_default_radar_jammer_auto'::`1'::__LINE__Var
_DATA	ENDS
;	COMDAT ?__LINE__Var@?0??set_default_radar_jammer_manual@@YGXH@Z@4JA
_DATA	SEGMENT
?__LINE__Var@?0??set_default_radar_jammer_manual@@YGXH@Z@4JA DD 02a5H ; `set_default_radar_jammer_manual'::`1'::__LINE__Var
_DATA	ENDS
;	COMDAT ?__LINE__Var@?0??toggle_default_radar_jammer_manual@@YGXXZ@4JA
_DATA	SEGMENT
?__LINE__Var@?0??toggle_default_radar_jammer_manual@@YGXXZ@4JA DD 028dH ; `toggle_default_radar_jammer_manual'::`1'::__LINE__Var
_DATA	ENDS
;	COMDAT ?__LINE__Var@?0??get_default_missile_flight_time@@YGMXZ@4JA
_DATA	SEGMENT
?__LINE__Var@?0??get_default_missile_flight_time@@YGMXZ@4JA DD 0249H ; `get_default_missile_flight_time'::`1'::__LINE__Var
_DATA	ENDS
;	COMDAT ?__LINE__Var@?0??update_default_weapon_systems@@YGXXZ@4JA
_DATA	SEGMENT
?__LINE__Var@?0??update_default_weapon_systems@@YGXXZ@4JA DD 0feH ; `update_default_weapon_systems'::`1'::__LINE__Var
_DATA	ENDS
;	COMDAT ??_C@_02LFNMGJAP@en@
CONST	SEGMENT
??_C@_02LFNMGJAP@en@ DB 'en', 00H			; `string'
CONST	ENDS
;	COMDAT ??_C@_0EP@JJOFDEIA@c?3?2users?2nhv90?2projects?2eech?2ap@
CONST	SEGMENT
??_C@_0EP@JJOFDEIA@c?3?2users?2nhv90?2projects?2eech?2ap@ DB 'c:\users\nh'
	DB	'v90\projects\eech\aphavoc\source\gunships\avionics\default\df'
	DB	'_wpn.c', 00H				; `string'
CONST	ENDS
;	COMDAT ?__LINE__Var@?0??apply_weapon_recoil_effect@@YGXPAUENTITY@@H@Z@4JA
_DATA	SEGMENT
?__LINE__Var@?0??apply_weapon_recoil_effect@@YGXPAUENTITY@@H@Z@4JA DD 065H ; `apply_weapon_recoil_effect'::`1'::__LINE__Var
_DATA	ENDS
;	COMDAT ??_C@_02DKCKIIND@?$CFs@
CONST	SEGMENT
??_C@_02DKCKIIND@?$CFs@ DB '%s', 00H			; `string'
CONST	ENDS
; Function compile flags: /Odtp /ZI
; File c:\program files (x86)\microsoft visual studio\2017\community\vc\tools\msvc\14.16.27023\include\algorithm
;	COMDAT ??$max@H@std@@YGABHABH0@Z
_TEXT	SEGMENT
__Left$ = 8						; size = 4
__Right$ = 12						; size = 4
??$max@H@std@@YGABHABH0@Z PROC				; std::max<int>, COMDAT

; 5387 : 	{	// return larger of _Left and _Right

  00000	55		 push	 ebp
  00001	8b ec		 mov	 ebp, esp
  00003	83 ec 40	 sub	 esp, 64			; 00000040H
  00006	53		 push	 ebx
  00007	56		 push	 esi
  00008	57		 push	 edi

; 5388 : 	if (_Left < _Right)

  00009	8b 45 08	 mov	 eax, DWORD PTR __Left$[ebp]
  0000c	8b 4d 0c	 mov	 ecx, DWORD PTR __Right$[ebp]
  0000f	8b 10		 mov	 edx, DWORD PTR [eax]
  00011	3b 11		 cmp	 edx, DWORD PTR [ecx]
  00013	7d 61		 jge	 SHORT $LN8@max
$LN4@max:

; 5389 : 		{
; 5390 : 		_STL_ASSERT(!(_Right < _Left), "invalid comparator");

  00015	8b 45 0c	 mov	 eax, DWORD PTR __Right$[ebp]
  00018	8b 4d 08	 mov	 ecx, DWORD PTR __Left$[ebp]
  0001b	8b 10		 mov	 edx, DWORD PTR [eax]
  0001d	3b 11		 cmp	 edx, DWORD PTR [ecx]
  0001f	7c 02		 jl	 SHORT $LN7@max
  00021	eb 4a		 jmp	 SHORT $LN2@max
$LN7@max:
  00023	68 00 00 00 00	 push	 OFFSET ??_C@_0BD@FEEMDEPI@invalid?5comparator@
  00028	68 00 00 00 00	 push	 OFFSET ??_C@_02DKCKIIND@?$CFs@
  0002d	6a 00		 push	 0
  0002f	68 0e 15 00 00	 push	 5390			; 0000150eH
  00034	68 00 00 00 00	 push	 OFFSET ??_C@_0GK@JMBMHIBC@c?3?2program?5files?5?$CIx86?$CJ?2microsof@
  00039	6a 02		 push	 2
  0003b	ff 15 00 00 00
	00		 call	 DWORD PTR __imp___CrtDbgReport
  00041	83 c4 18	 add	 esp, 24			; 00000018H
  00044	83 f8 01	 cmp	 eax, 1
  00047	75 01		 jne	 SHORT $LN12@max
  00049	cc		 int	 3
$LN12@max:
  0004a	6a 00		 push	 0
  0004c	68 0e 15 00 00	 push	 5390			; 0000150eH
  00051	68 00 00 00 00	 push	 OFFSET ??_C@_1NE@FKBPBJEB@?$AAc?$AA?3?$AA?2?$AAp?$AAr?$AAo?$AAg?$AAr?$AAa?$AAm?$AA?5?$AAf?$AAi?$AAl?$AAe@
  00056	68 00 00 00 00	 push	 OFFSET ??_C@_1BC@ICCOKLEG@?$AAs?$AAt?$AAd?$AA?3?$AA?3?$AAm?$AAa?$AAx@
  0005b	68 00 00 00 00	 push	 OFFSET ??_C@_1CK@NDNHPKPI@?$AA?$CC?$AAi?$AAn?$AAv?$AAa?$AAl?$AAi?$AAd?$AA?5?$AAc?$AAo?$AAm?$AAp?$AAa?$AAr@
  00060	ff 15 00 00 00
	00		 call	 DWORD PTR __imp___invalid_parameter
  00066	83 c4 14	 add	 esp, 20			; 00000014H
  00069	33 c0		 xor	 eax, eax
  0006b	75 b6		 jne	 SHORT $LN7@max
$LN2@max:
  0006d	33 c0		 xor	 eax, eax
  0006f	75 a4		 jne	 SHORT $LN4@max

; 5391 : 		return (_Right);

  00071	8b 45 0c	 mov	 eax, DWORD PTR __Right$[ebp]
  00074	eb 03		 jmp	 SHORT $LN11@max
$LN8@max:

; 5392 : 		}
; 5393 : 
; 5394 : 	return (_Left);

  00076	8b 45 08	 mov	 eax, DWORD PTR __Left$[ebp]
$LN11@max:

; 5395 : 	}

  00079	5f		 pop	 edi
  0007a	5e		 pop	 esi
  0007b	5b		 pop	 ebx
  0007c	8b e5		 mov	 esp, ebp
  0007e	5d		 pop	 ebp
  0007f	c2 08 00	 ret	 8
??$max@H@std@@YGABHABH0@Z ENDP				; std::max<int>
_TEXT	ENDS
; Function compile flags: /Odtp /ZI
; File c:\program files (x86)\microsoft visual studio\2017\community\vc\tools\msvc\14.16.27023\include\algorithm
;	COMDAT ??$min@H@std@@YGABHABH0@Z
_TEXT	SEGMENT
__Left$ = 8						; size = 4
__Right$ = 12						; size = 4
??$min@H@std@@YGABHABH0@Z PROC				; std::min<int>, COMDAT

; 5427 : 	{	// return smaller of _Left and _Right

  00000	55		 push	 ebp
  00001	8b ec		 mov	 ebp, esp
  00003	83 ec 40	 sub	 esp, 64			; 00000040H
  00006	53		 push	 ebx
  00007	56		 push	 esi
  00008	57		 push	 edi

; 5428 : 	if (_Right < _Left)

  00009	8b 45 0c	 mov	 eax, DWORD PTR __Right$[ebp]
  0000c	8b 4d 08	 mov	 ecx, DWORD PTR __Left$[ebp]
  0000f	8b 10		 mov	 edx, DWORD PTR [eax]
  00011	3b 11		 cmp	 edx, DWORD PTR [ecx]
  00013	7d 61		 jge	 SHORT $LN8@min
$LN4@min:

; 5429 : 		{
; 5430 : 		_STL_ASSERT(!(_Left < _Right), "invalid comparator");

  00015	8b 45 08	 mov	 eax, DWORD PTR __Left$[ebp]
  00018	8b 4d 0c	 mov	 ecx, DWORD PTR __Right$[ebp]
  0001b	8b 10		 mov	 edx, DWORD PTR [eax]
  0001d	3b 11		 cmp	 edx, DWORD PTR [ecx]
  0001f	7c 02		 jl	 SHORT $LN7@min
  00021	eb 4a		 jmp	 SHORT $LN2@min
$LN7@min:
  00023	68 00 00 00 00	 push	 OFFSET ??_C@_0BD@FEEMDEPI@invalid?5comparator@
  00028	68 00 00 00 00	 push	 OFFSET ??_C@_02DKCKIIND@?$CFs@
  0002d	6a 00		 push	 0
  0002f	68 36 15 00 00	 push	 5430			; 00001536H
  00034	68 00 00 00 00	 push	 OFFSET ??_C@_0GK@JMBMHIBC@c?3?2program?5files?5?$CIx86?$CJ?2microsof@
  00039	6a 02		 push	 2
  0003b	ff 15 00 00 00
	00		 call	 DWORD PTR __imp___CrtDbgReport
  00041	83 c4 18	 add	 esp, 24			; 00000018H
  00044	83 f8 01	 cmp	 eax, 1
  00047	75 01		 jne	 SHORT $LN12@min
  00049	cc		 int	 3
$LN12@min:
  0004a	6a 00		 push	 0
  0004c	68 36 15 00 00	 push	 5430			; 00001536H
  00051	68 00 00 00 00	 push	 OFFSET ??_C@_1NE@FKBPBJEB@?$AAc?$AA?3?$AA?2?$AAp?$AAr?$AAo?$AAg?$AAr?$AAa?$AAm?$AA?5?$AAf?$AAi?$AAl?$AAe@
  00056	68 00 00 00 00	 push	 OFFSET ??_C@_1BC@BLAPCBGI@?$AAs?$AAt?$AAd?$AA?3?$AA?3?$AAm?$AAi?$AAn@
  0005b	68 00 00 00 00	 push	 OFFSET ??_C@_1CK@NDNHPKPI@?$AA?$CC?$AAi?$AAn?$AAv?$AAa?$AAl?$AAi?$AAd?$AA?5?$AAc?$AAo?$AAm?$AAp?$AAa?$AAr@
  00060	ff 15 00 00 00
	00		 call	 DWORD PTR __imp___invalid_parameter
  00066	83 c4 14	 add	 esp, 20			; 00000014H
  00069	33 c0		 xor	 eax, eax
  0006b	75 b6		 jne	 SHORT $LN7@min
$LN2@min:
  0006d	33 c0		 xor	 eax, eax
  0006f	75 a4		 jne	 SHORT $LN4@min

; 5431 : 		return (_Right);

  00071	8b 45 0c	 mov	 eax, DWORD PTR __Right$[ebp]
  00074	eb 03		 jmp	 SHORT $LN11@min
$LN8@min:

; 5432 : 		}
; 5433 : 
; 5434 : 	return (_Left);

  00076	8b 45 08	 mov	 eax, DWORD PTR __Left$[ebp]
$LN11@min:

; 5435 : 	}

  00079	5f		 pop	 edi
  0007a	5e		 pop	 esi
  0007b	5b		 pop	 ebx
  0007c	8b e5		 mov	 esp, ebp
  0007e	5d		 pop	 ebp
  0007f	c2 08 00	 ret	 8
??$min@H@std@@YGABHABH0@Z ENDP				; std::min<int>
_TEXT	ENDS
; Function compile flags: /Odtp /ZI
; File c:\users\nhv90\projects\eech\aphavoc\source\gunships\avionics\default\df_wpn.c
;	COMDAT ?apply_weapon_recoil_effect@@YGXPAUENTITY@@H@Z
_TEXT	SEGMENT
tv73 = -124						; size = 4
_vp$ = -56						; size = 48
_strength$ = -8						; size = 4
_duration$ = -4						; size = 4
_en$ = 8						; size = 4
_selected_weapon$ = 12					; size = 4
?apply_weapon_recoil_effect@@YGXPAUENTITY@@H@Z PROC	; apply_weapon_recoil_effect, COMDAT

; 101  : {

  00000	55		 push	 ebp
  00001	8b ec		 mov	 ebp, esp
  00003	83 ec 7c	 sub	 esp, 124		; 0000007cH
  00006	53		 push	 ebx
  00007	56		 push	 esi
  00008	57		 push	 edi

; 102  : 	float
; 103  : 		duration,
; 104  : 		strength;
; 105  : 
; 106  : 	viewpoint
; 107  : 		vp;
; 108  : 
; 109  : 	ASSERT (en);

  00009	83 7d 08 00	 cmp	 DWORD PTR _en$[ebp], 0
  0000d	75 18		 jne	 SHORT $LN4@apply_weap
  0000f	a1 00 00 00 00	 mov	 eax, DWORD PTR ?__LINE__Var@?0??apply_weapon_recoil_effect@@YGXPAUENTITY@@H@Z@4JA
  00014	83 c0 08	 add	 eax, 8
  00017	50		 push	 eax
  00018	68 00 00 00 00	 push	 OFFSET ??_C@_0EP@JJOFDEIA@c?3?2users?2nhv90?2projects?2eech?2ap@
  0001d	68 00 00 00 00	 push	 OFFSET ??_C@_02LFNMGJAP@en@
  00022	e8 00 00 00 00	 call	 ?process_assert@@YGXPBD0H@Z ; process_assert
$LN4@apply_weap:

; 110  : 
; 111  : 	if (get_local_entity_selected_weapon_viewpoint (en, &vp))

  00027	8d 45 c8	 lea	 eax, DWORD PTR _vp$[ebp]
  0002a	50		 push	 eax
  0002b	8b 4d 08	 mov	 ecx, DWORD PTR _en$[ebp]
  0002e	51		 push	 ecx
  0002f	e8 00 00 00 00	 call	 ?get_local_entity_selected_weapon_viewpoint@@YGHPAUENTITY@@PAUVIEWPOINT@@@Z ; get_local_entity_selected_weapon_viewpoint
  00034	85 c0		 test	 eax, eax
  00036	0f 84 a6 01 00
	00		 je	 $LN5@apply_weap

; 112  : 	{
; 113  : 		switch (selected_weapon)

  0003c	8b 45 0c	 mov	 eax, DWORD PTR _selected_weapon$[ebp]
  0003f	89 45 84	 mov	 DWORD PTR tv73[ebp], eax
  00042	8b 4d 84	 mov	 ecx, DWORD PTR tv73[ebp]
  00045	83 e9 01	 sub	 ecx, 1
  00048	89 4d 84	 mov	 DWORD PTR tv73[ebp], ecx
  0004b	83 7d 84 32	 cmp	 DWORD PTR tv73[ebp], 50	; 00000032H
  0004f	0f 87 5a 01 00
	00		 ja	 $LN17@apply_weap
  00055	8b 55 84	 mov	 edx, DWORD PTR tv73[ebp]
  00058	0f b6 82 00 00
	00 00		 movzx	 eax, BYTE PTR $LN19@apply_weap[edx]
  0005f	ff 24 85 00 00
	00 00		 jmp	 DWORD PTR $LN20@apply_weap[eax*4]
$LN6@apply_weap:

; 114  : 		{
; 115  : 			////////////////////////////////////////
; 116  : 			case ENTITY_SUB_TYPE_WEAPON_M230_30MM_ROUND:
; 117  : 			case ENTITY_SUB_TYPE_WEAPON_M197_20MM_ROUND:
; 118  : 			////////////////////////////////////////
; 119  : 			{
; 120  : 				duration = 0.2;

  00066	f3 0f 10 05 00
	00 00 00	 movss	 xmm0, DWORD PTR __real@3e4ccccd
  0006e	f3 0f 11 45 fc	 movss	 DWORD PTR _duration$[ebp], xmm0

; 121  : 
; 122  : 				strength = 3.0;

  00073	f3 0f 10 05 00
	00 00 00	 movss	 xmm0, DWORD PTR __real@40400000
  0007b	f3 0f 11 45 f8	 movss	 DWORD PTR _strength$[ebp], xmm0

; 123  : 
; 124  : 				break;

  00080	e9 3a 01 00 00	 jmp	 $LN2@apply_weap
$LN7@apply_weap:

; 125  : 			}
; 126  : 			////////////////////////////////////////
; 127  : 			case ENTITY_SUB_TYPE_WEAPON_AIM92_STINGER:
; 128  : 			case ENTITY_SUB_TYPE_WEAPON_AIM9M_SIDEWINDER:
; 129  : 			////////////////////////////////////////
; 130  : 			{
; 131  : 				duration = 0.6;

  00085	f3 0f 10 05 00
	00 00 00	 movss	 xmm0, DWORD PTR __real@3f19999a
  0008d	f3 0f 11 45 fc	 movss	 DWORD PTR _duration$[ebp], xmm0

; 132  : 
; 133  : 				strength = 10.0;

  00092	f3 0f 10 05 00
	00 00 00	 movss	 xmm0, DWORD PTR __real@41200000
  0009a	f3 0f 11 45 f8	 movss	 DWORD PTR _strength$[ebp], xmm0

; 134  : 
; 135  : 				break;

  0009f	e9 1b 01 00 00	 jmp	 $LN2@apply_weap
$LN8@apply_weap:

; 136  : 			}
; 137  : 			////////////////////////////////////////
; 138  : 			case ENTITY_SUB_TYPE_WEAPON_AGM114L_LONGBOW_HELLFIRE:
; 139  : 			case ENTITY_SUB_TYPE_WEAPON_AGM114K_HELLFIRE_II:
; 140  : 			////////////////////////////////////////
; 141  : 			{
; 142  : 				duration = 0.5;

  000a4	f3 0f 10 05 00
	00 00 00	 movss	 xmm0, DWORD PTR __real@3f000000
  000ac	f3 0f 11 45 fc	 movss	 DWORD PTR _duration$[ebp], xmm0

; 143  : 
; 144  : 				strength = 10.0;

  000b1	f3 0f 10 05 00
	00 00 00	 movss	 xmm0, DWORD PTR __real@41200000
  000b9	f3 0f 11 45 f8	 movss	 DWORD PTR _strength$[ebp], xmm0

; 145  : 
; 146  : 				break;

  000be	e9 fc 00 00 00	 jmp	 $LN2@apply_weap
$LN9@apply_weap:

; 147  : 			}
; 148  : 			////////////////////////////////////////
; 149  : 			case ENTITY_SUB_TYPE_WEAPON_HYDRA70_M255:
; 150  : 			case ENTITY_SUB_TYPE_WEAPON_HYDRA70_M261:
; 151  : 			////////////////////////////////////////
; 152  : 			{
; 153  : 				duration = 0.7;

  000c3	f3 0f 10 05 00
	00 00 00	 movss	 xmm0, DWORD PTR __real@3f333333
  000cb	f3 0f 11 45 fc	 movss	 DWORD PTR _duration$[ebp], xmm0

; 154  : 
; 155  : 				strength = 8.0;

  000d0	f3 0f 10 05 00
	00 00 00	 movss	 xmm0, DWORD PTR __real@41000000
  000d8	f3 0f 11 45 f8	 movss	 DWORD PTR _strength$[ebp], xmm0

; 156  : 
; 157  : 				break;

  000dd	e9 dd 00 00 00	 jmp	 $LN2@apply_weap
$LN10@apply_weap:

; 158  : 			}
; 159  : 			////////////////////////////////////////
; 160  : 			case ENTITY_SUB_TYPE_WEAPON_2A42_30MM_HE_ROUND:
; 161  : 			case ENTITY_SUB_TYPE_WEAPON_2A42_30MM_AP_ROUND:
; 162  : 			case ENTITY_SUB_TYPE_WEAPON_M2_12P7MM_ROUND:
; 163  : 			////////////////////////////////////////
; 164  : 			{
; 165  : 				duration = 0.3;

  000e2	f3 0f 10 05 00
	00 00 00	 movss	 xmm0, DWORD PTR __real@3e99999a
  000ea	f3 0f 11 45 fc	 movss	 DWORD PTR _duration$[ebp], xmm0

; 166  : 
; 167  : 				strength = 2.0;

  000ef	f3 0f 10 05 00
	00 00 00	 movss	 xmm0, DWORD PTR __real@40000000
  000f7	f3 0f 11 45 f8	 movss	 DWORD PTR _strength$[ebp], xmm0

; 168  : 
; 169  : 				break;

  000fc	e9 be 00 00 00	 jmp	 $LN2@apply_weap
$LN11@apply_weap:

; 170  : 			}
; 171  : 			////////////////////////////////////////
; 172  : 			case ENTITY_SUB_TYPE_WEAPON_IGLA_V:
; 173  : 			////////////////////////////////////////
; 174  : 			{
; 175  : 				duration = 0.6;

  00101	f3 0f 10 05 00
	00 00 00	 movss	 xmm0, DWORD PTR __real@3f19999a
  00109	f3 0f 11 45 fc	 movss	 DWORD PTR _duration$[ebp], xmm0

; 176  : 
; 177  : 				strength = 7.5;

  0010e	f3 0f 10 05 00
	00 00 00	 movss	 xmm0, DWORD PTR __real@40f00000
  00116	f3 0f 11 45 f8	 movss	 DWORD PTR _strength$[ebp], xmm0

; 178  : 
; 179  : 				break;

  0011b	e9 9f 00 00 00	 jmp	 $LN2@apply_weap
$LN12@apply_weap:

; 180  : 			}
; 181  : 			////////////////////////////////////////
; 182  : 			case ENTITY_SUB_TYPE_WEAPON_AT6_SPIRAL:
; 183  : 			case ENTITY_SUB_TYPE_WEAPON_ATAKA:
; 184  : 			case ENTITY_SUB_TYPE_WEAPON_VIKHR:
; 185  : 			////////////////////////////////////////
; 186  : 			{
; 187  : 				duration = 0.7;

  00120	f3 0f 10 05 00
	00 00 00	 movss	 xmm0, DWORD PTR __real@3f333333
  00128	f3 0f 11 45 fc	 movss	 DWORD PTR _duration$[ebp], xmm0

; 188  : 
; 189  : 				strength = 9.0;

  0012d	f3 0f 10 05 00
	00 00 00	 movss	 xmm0, DWORD PTR __real@41100000
  00135	f3 0f 11 45 f8	 movss	 DWORD PTR _strength$[ebp], xmm0

; 190  : 
; 191  : 				break;

  0013a	e9 80 00 00 00	 jmp	 $LN2@apply_weap
$LN13@apply_weap:

; 192  : 			}
; 193  : 			////////////////////////////////////////
; 194  : 			case ENTITY_SUB_TYPE_WEAPON_S5:
; 195  : 			////////////////////////////////////////
; 196  : 			{
; 197  : 				duration = 0.5;

  0013f	f3 0f 10 05 00
	00 00 00	 movss	 xmm0, DWORD PTR __real@3f000000
  00147	f3 0f 11 45 fc	 movss	 DWORD PTR _duration$[ebp], xmm0

; 198  : 
; 199  : 				strength = 7.5;

  0014c	f3 0f 10 05 00
	00 00 00	 movss	 xmm0, DWORD PTR __real@40f00000
  00154	f3 0f 11 45 f8	 movss	 DWORD PTR _strength$[ebp], xmm0

; 200  : 
; 201  : 				break;

  00159	eb 64		 jmp	 SHORT $LN2@apply_weap
$LN14@apply_weap:

; 202  : 			}
; 203  : 			////////////////////////////////////////
; 204  : 			case ENTITY_SUB_TYPE_WEAPON_S8:
; 205  : 			////////////////////////////////////////
; 206  : 			{
; 207  : 				duration = 0.4;

  0015b	f3 0f 10 05 00
	00 00 00	 movss	 xmm0, DWORD PTR __real@3ecccccd
  00163	f3 0f 11 45 fc	 movss	 DWORD PTR _duration$[ebp], xmm0

; 208  : 
; 209  : 				strength = 10.0;

  00168	f3 0f 10 05 00
	00 00 00	 movss	 xmm0, DWORD PTR __real@41200000
  00170	f3 0f 11 45 f8	 movss	 DWORD PTR _strength$[ebp], xmm0

; 210  : 
; 211  : 				break;

  00175	eb 48		 jmp	 SHORT $LN2@apply_weap
$LN15@apply_weap:

; 212  : 			}
; 213  : 			////////////////////////////////////////
; 214  : 			case ENTITY_SUB_TYPE_WEAPON_S13:
; 215  : 			////////////////////////////////////////
; 216  : 			{
; 217  : 				duration = 0.5;

  00177	f3 0f 10 05 00
	00 00 00	 movss	 xmm0, DWORD PTR __real@3f000000
  0017f	f3 0f 11 45 fc	 movss	 DWORD PTR _duration$[ebp], xmm0

; 218  : 
; 219  : 				strength = 7.5;

  00184	f3 0f 10 05 00
	00 00 00	 movss	 xmm0, DWORD PTR __real@40f00000
  0018c	f3 0f 11 45 f8	 movss	 DWORD PTR _strength$[ebp], xmm0

; 220  : 
; 221  : 				break;

  00191	eb 2c		 jmp	 SHORT $LN2@apply_weap
$LN16@apply_weap:

; 222  : 			}
; 223  : 			////////////////////////////////////////
; 224  : 			case ENTITY_SUB_TYPE_WEAPON_GSH23L_23MM_ROUND:
; 225  : 			////////////////////////////////////////
; 226  : 			{
; 227  : 				duration = 0.1;

  00193	f3 0f 10 05 00
	00 00 00	 movss	 xmm0, DWORD PTR __real@3dcccccd
  0019b	f3 0f 11 45 fc	 movss	 DWORD PTR _duration$[ebp], xmm0

; 228  : 
; 229  : 				strength = 2.5;

  001a0	f3 0f 10 05 00
	00 00 00	 movss	 xmm0, DWORD PTR __real@40200000
  001a8	f3 0f 11 45 f8	 movss	 DWORD PTR _strength$[ebp], xmm0

; 230  : 
; 231  : 				break;

  001ad	eb 10		 jmp	 SHORT $LN2@apply_weap
$LN17@apply_weap:

; 232  : 			}
; 233  : 			////////////////////////////////////////
; 234  : 			default:
; 235  : 			////////////////////////////////////////
; 236  : 			{
; 237  : 				duration = 0.0;

  001af	0f 57 c0	 xorps	 xmm0, xmm0
  001b2	f3 0f 11 45 fc	 movss	 DWORD PTR _duration$[ebp], xmm0

; 238  : 
; 239  : 				strength = 0.0;

  001b7	0f 57 c0	 xorps	 xmm0, xmm0
  001ba	f3 0f 11 45 f8	 movss	 DWORD PTR _strength$[ebp], xmm0
$LN2@apply_weap:

; 240  : 
; 241  : 				break;
; 242  : 			}
; 243  : 		}
; 244  : 
; 245  : 		add_dynamic_weapon_launch_force (&vp.position, &vp.zv, strength, duration);

  001bf	51		 push	 ecx
  001c0	f3 0f 10 45 fc	 movss	 xmm0, DWORD PTR _duration$[ebp]
  001c5	f3 0f 11 04 24	 movss	 DWORD PTR [esp], xmm0
  001ca	51		 push	 ecx
  001cb	f3 0f 10 45 f8	 movss	 xmm0, DWORD PTR _strength$[ebp]
  001d0	f3 0f 11 04 24	 movss	 DWORD PTR [esp], xmm0
  001d5	8d 45 ec	 lea	 eax, DWORD PTR _vp$[ebp+36]
  001d8	50		 push	 eax
  001d9	8d 4d c8	 lea	 ecx, DWORD PTR _vp$[ebp]
  001dc	51		 push	 ecx
  001dd	e8 00 00 00 00	 call	 ?add_dynamic_weapon_launch_force@@YGXPAUVEC3D@@0MM@Z ; add_dynamic_weapon_launch_force
$LN5@apply_weap:

; 246  : 	}
; 247  : }

  001e2	5f		 pop	 edi
  001e3	5e		 pop	 esi
  001e4	5b		 pop	 ebx
  001e5	8b e5		 mov	 esp, ebp
  001e7	5d		 pop	 ebp
  001e8	c2 08 00	 ret	 8
  001eb	90		 npad	 1
$LN20@apply_weap:
  001ec	00 00 00 00	 DD	 $LN10@apply_weap
  001f0	00 00 00 00	 DD	 $LN6@apply_weap
  001f4	00 00 00 00	 DD	 $LN16@apply_weap
  001f8	00 00 00 00	 DD	 $LN9@apply_weap
  001fc	00 00 00 00	 DD	 $LN13@apply_weap
  00200	00 00 00 00	 DD	 $LN14@apply_weap
  00204	00 00 00 00	 DD	 $LN15@apply_weap
  00208	00 00 00 00	 DD	 $LN7@apply_weap
  0020c	00 00 00 00	 DD	 $LN11@apply_weap
  00210	00 00 00 00	 DD	 $LN8@apply_weap
  00214	00 00 00 00	 DD	 $LN12@apply_weap
  00218	00 00 00 00	 DD	 $LN17@apply_weap
$LN19@apply_weap:
  0021c	00		 DB	 0
  0021d	0b		 DB	 11			; 0000000bH
  0021e	01		 DB	 1
  0021f	0b		 DB	 11			; 0000000bH
  00220	0b		 DB	 11			; 0000000bH
  00221	0b		 DB	 11			; 0000000bH
  00222	01		 DB	 1
  00223	0b		 DB	 11			; 0000000bH
  00224	0b		 DB	 11			; 0000000bH
  00225	0b		 DB	 11			; 0000000bH
  00226	0b		 DB	 11			; 0000000bH
  00227	0b		 DB	 11			; 0000000bH
  00228	0b		 DB	 11			; 0000000bH
  00229	0b		 DB	 11			; 0000000bH
  0022a	02		 DB	 2
  0022b	0b		 DB	 11			; 0000000bH
  0022c	0b		 DB	 11			; 0000000bH
  0022d	0b		 DB	 11			; 0000000bH
  0022e	00		 DB	 0
  0022f	00		 DB	 0
  00230	0b		 DB	 11			; 0000000bH
  00231	0b		 DB	 11			; 0000000bH
  00232	0b		 DB	 11			; 0000000bH
  00233	0b		 DB	 11			; 0000000bH
  00234	0b		 DB	 11			; 0000000bH
  00235	0b		 DB	 11			; 0000000bH
  00236	0b		 DB	 11			; 0000000bH
  00237	0b		 DB	 11			; 0000000bH
  00238	0b		 DB	 11			; 0000000bH
  00239	03		 DB	 3
  0023a	03		 DB	 3
  0023b	0b		 DB	 11			; 0000000bH
  0023c	04		 DB	 4
  0023d	05		 DB	 5
  0023e	06		 DB	 6
  0023f	07		 DB	 7
  00240	07		 DB	 7
  00241	0b		 DB	 11			; 0000000bH
  00242	08		 DB	 8
  00243	0b		 DB	 11			; 0000000bH
  00244	0b		 DB	 11			; 0000000bH
  00245	0b		 DB	 11			; 0000000bH
  00246	0b		 DB	 11			; 0000000bH
  00247	0b		 DB	 11			; 0000000bH
  00248	09		 DB	 9
  00249	09		 DB	 9
  0024a	0b		 DB	 11			; 0000000bH
  0024b	0b		 DB	 11			; 0000000bH
  0024c	0a		 DB	 10			; 0000000aH
  0024d	0a		 DB	 10			; 0000000aH
  0024e	0a		 DB	 10			; 0000000aH
?apply_weapon_recoil_effect@@YGXPAUENTITY@@H@Z ENDP	; apply_weapon_recoil_effect
_TEXT	ENDS
; Function compile flags: /Odtp /ZI
; File c:\users\nhv90\projects\eech\aphavoc\source\gunships\avionics\default\df_wpn.c
;	COMDAT ?set_default_infra_red_jammer_auto@@YGXH@Z
_TEXT	SEGMENT
tv133 = -72						; size = 4
tv80 = -72						; size = 4
tv93 = -68						; size = 4
tv73 = -68						; size = 4
_state$ = 8						; size = 4
?set_default_infra_red_jammer_auto@@YGXH@Z PROC		; set_default_infra_red_jammer_auto, COMDAT

; 755  : {

  00000	55		 push	 ebp
  00001	8b ec		 mov	 ebp, esp
  00003	83 ec 48	 sub	 esp, 72			; 00000048H
  00006	53		 push	 ebx
  00007	56		 push	 esi
  00008	57		 push	 edi

; 756  : 	if (!default_damage.infra_red_jammer)

  00009	a1 00 00 00 00	 mov	 eax, DWORD PTR ?default_damage@@3TDEFAULT_DAMAGE_FLAGS@@A ; default_damage
  0000e	c1 e8 08	 shr	 eax, 8
  00011	83 e0 01	 and	 eax, 1
  00014	0f 85 24 01 00
	00		 jne	 $LN1@set_defaul

; 757  : 	{
; 758  : 		if (get_global_auto_counter_measures ())

  0001a	83 3d 90 00 00
	00 00		 cmp	 DWORD PTR ?global_options@@3UGLOBAL_OPTIONS_DATA@@A+144, 0
  00021	0f 84 17 01 00
	00		 je	 $LN1@set_defaul

; 759  : 		{
; 760  : 			if (state != get_local_entity_int_value (get_gunship_entity (), INT_TYPE_INFRA_RED_JAMMER_ON))

  00027	83 3d 00 00 00
	00 00		 cmp	 DWORD PTR ?gunship_entity@@3PAUENTITY@@A, 0 ; gunship_entity
  0002e	74 0c		 je	 SHORT $LN6@set_defaul
  00030	a1 00 00 00 00	 mov	 eax, DWORD PTR ?gunship_entity@@3PAUENTITY@@A ; gunship_entity
  00035	8b 08		 mov	 ecx, DWORD PTR [eax]
  00037	89 4d bc	 mov	 DWORD PTR tv73[ebp], ecx
  0003a	eb 1d		 jmp	 SHORT $LN7@set_defaul
$LN6@set_defaul:
  0003c	68 f8 02 00 00	 push	 760			; 000002f8H
  00041	68 00 00 00 00	 push	 OFFSET ??_C@_0EP@JJOFDEIA@c?3?2users?2nhv90?2projects?2eech?2ap@
  00046	8b 15 00 00 00
	00		 mov	 edx, DWORD PTR ?null_entity_pointer_message@@3PBDB ; null_entity_pointer_message
  0004c	52		 push	 edx
  0004d	e8 00 00 00 00	 call	 ?process_assert@@YGXPBD0H@Z ; process_assert
  00052	c7 45 bc 00 00
	00 00		 mov	 DWORD PTR tv73[ebp], 0
$LN7@set_defaul:
  00059	b8 01 00 00 00	 mov	 eax, 1
  0005e	85 c0		 test	 eax, eax
  00060	74 09		 je	 SHORT $LN8@set_defaul
  00062	c7 45 b8 68 00
	00 00		 mov	 DWORD PTR tv80[ebp], 104 ; 00000068H
  00069	eb 1d		 jmp	 SHORT $LN9@set_defaul
$LN8@set_defaul:
  0006b	68 f8 02 00 00	 push	 760			; 000002f8H
  00070	68 00 00 00 00	 push	 OFFSET ??_C@_0EP@JJOFDEIA@c?3?2users?2nhv90?2projects?2eech?2ap@
  00075	8b 0d 00 00 00
	00		 mov	 ecx, DWORD PTR ?overload_invalid_int_type_message@@3PBDB ; overload_invalid_int_type_message
  0007b	51		 push	 ecx
  0007c	e8 00 00 00 00	 call	 ?process_assert@@YGXPBD0H@Z ; process_assert
  00081	c7 45 b8 00 00
	00 00		 mov	 DWORD PTR tv80[ebp], 0
$LN9@set_defaul:
  00088	6a 68		 push	 104			; 00000068H
  0008a	8b 15 00 00 00
	00		 mov	 edx, DWORD PTR ?gunship_entity@@3PAUENTITY@@A ; gunship_entity
  00090	52		 push	 edx
  00091	69 45 bc 5c 04
	00 00		 imul	 eax, DWORD PTR tv73[ebp], 1116
  00098	8b 4d b8	 mov	 ecx, DWORD PTR tv80[ebp]
  0009b	8b 94 88 00 00
	00 00		 mov	 edx, DWORD PTR ?fn_get_local_entity_int_value@@3PAY0BBH@P6GHPAUENTITY@@W4INT_TYPES@@@ZA[eax+ecx*4]
  000a2	ff d2		 call	 edx
  000a4	39 45 08	 cmp	 DWORD PTR _state$[ebp], eax
  000a7	0f 84 91 00 00
	00		 je	 $LN1@set_defaul

; 761  : 			{
; 762  : 				set_client_server_entity_int_value (get_gunship_entity (), INT_TYPE_INFRA_RED_JAMMER_ON, state);

  000ad	83 3d 00 00 00
	00 00		 cmp	 DWORD PTR ?gunship_entity@@3PAUENTITY@@A, 0 ; gunship_entity
  000b4	74 0c		 je	 SHORT $LN10@set_defaul
  000b6	a1 00 00 00 00	 mov	 eax, DWORD PTR ?gunship_entity@@3PAUENTITY@@A ; gunship_entity
  000bb	8b 08		 mov	 ecx, DWORD PTR [eax]
  000bd	89 4d bc	 mov	 DWORD PTR tv93[ebp], ecx
  000c0	eb 21		 jmp	 SHORT $LN11@set_defaul
$LN10@set_defaul:
  000c2	8b 15 00 00 00
	00		 mov	 edx, DWORD PTR ?__LINE__Var@?0??set_default_infra_red_jammer_auto@@YGXH@Z@4JA
  000c8	83 c2 07	 add	 edx, 7
  000cb	52		 push	 edx
  000cc	68 00 00 00 00	 push	 OFFSET ??_C@_0EP@JJOFDEIA@c?3?2users?2nhv90?2projects?2eech?2ap@
  000d1	a1 00 00 00 00	 mov	 eax, DWORD PTR ?null_entity_pointer_message@@3PBDB ; null_entity_pointer_message
  000d6	50		 push	 eax
  000d7	e8 00 00 00 00	 call	 ?process_assert@@YGXPBD0H@Z ; process_assert
  000dc	c7 45 bc 00 00
	00 00		 mov	 DWORD PTR tv93[ebp], 0
$LN11@set_defaul:
  000e3	b9 01 00 00 00	 mov	 ecx, 1
  000e8	85 c9		 test	 ecx, ecx
  000ea	74 09		 je	 SHORT $LN12@set_defaul
  000ec	c7 45 b8 68 00
	00 00		 mov	 DWORD PTR tv133[ebp], 104 ; 00000068H
  000f3	eb 21		 jmp	 SHORT $LN13@set_defaul
$LN12@set_defaul:
  000f5	8b 15 00 00 00
	00		 mov	 edx, DWORD PTR ?__LINE__Var@?0??set_default_infra_red_jammer_auto@@YGXH@Z@4JA
  000fb	83 c2 07	 add	 edx, 7
  000fe	52		 push	 edx
  000ff	68 00 00 00 00	 push	 OFFSET ??_C@_0EP@JJOFDEIA@c?3?2users?2nhv90?2projects?2eech?2ap@
  00104	a1 00 00 00 00	 mov	 eax, DWORD PTR ?overload_invalid_int_type_message@@3PBDB ; overload_invalid_int_type_message
  00109	50		 push	 eax
  0010a	e8 00 00 00 00	 call	 ?process_assert@@YGXPBD0H@Z ; process_assert
  0010f	c7 45 b8 00 00
	00 00		 mov	 DWORD PTR tv133[ebp], 0
$LN13@set_defaul:
  00116	8b 4d 08	 mov	 ecx, DWORD PTR _state$[ebp]
  00119	51		 push	 ecx
  0011a	6a 68		 push	 104			; 00000068H
  0011c	8b 15 00 00 00
	00		 mov	 edx, DWORD PTR ?gunship_entity@@3PAUENTITY@@A ; gunship_entity
  00122	52		 push	 edx
  00123	69 45 bc b8 08
	00 00		 imul	 eax, DWORD PTR tv93[ebp], 2232
  0012a	8b 4d b8	 mov	 ecx, DWORD PTR tv133[ebp]
  0012d	8d 94 c8 00 00
	00 00		 lea	 edx, DWORD PTR ?fn_set_client_server_entity_int_value@@3PAY1BBH@1P6GXPAUENTITY@@W4INT_TYPES@@H@ZA[eax+ecx*8]
  00134	a1 00 00 00 00	 mov	 eax, DWORD PTR ?system_comms_model@@3W4COMMS_MODEL_TYPES@@A ; system_comms_model
  00139	8b 0c 82	 mov	 ecx, DWORD PTR [edx+eax*4]
  0013c	ff d1		 call	 ecx
$LN1@set_defaul:

; 763  : 			}
; 764  : 		}
; 765  : 	}
; 766  : }

  0013e	5f		 pop	 edi
  0013f	5e		 pop	 esi
  00140	5b		 pop	 ebx
  00141	8b e5		 mov	 esp, ebp
  00143	5d		 pop	 ebp
  00144	c2 04 00	 ret	 4
?set_default_infra_red_jammer_auto@@YGXH@Z ENDP		; set_default_infra_red_jammer_auto
_TEXT	ENDS
; Function compile flags: /Odtp /ZI
; File c:\users\nhv90\projects\eech\aphavoc\source\gunships\avionics\default\df_wpn.c
;	COMDAT ?set_default_infra_red_jammer_manual@@YGXH@Z
_TEXT	SEGMENT
tv133 = -72						; size = 4
tv80 = -72						; size = 4
tv93 = -68						; size = 4
tv73 = -68						; size = 4
_state$ = 8						; size = 4
?set_default_infra_red_jammer_manual@@YGXH@Z PROC	; set_default_infra_red_jammer_manual, COMDAT

; 737  : {

  00000	55		 push	 ebp
  00001	8b ec		 mov	 ebp, esp
  00003	83 ec 48	 sub	 esp, 72			; 00000048H
  00006	53		 push	 ebx
  00007	56		 push	 esi
  00008	57		 push	 edi

; 738  : 	if (!default_damage.infra_red_jammer)

  00009	a1 00 00 00 00	 mov	 eax, DWORD PTR ?default_damage@@3TDEFAULT_DAMAGE_FLAGS@@A ; default_damage
  0000e	c1 e8 08	 shr	 eax, 8
  00011	83 e0 01	 and	 eax, 1
  00014	0f 85 24 01 00
	00		 jne	 $LN1@set_defaul

; 739  : 	{
; 740  : 		if (!get_global_auto_counter_measures ())

  0001a	83 3d 90 00 00
	00 00		 cmp	 DWORD PTR ?global_options@@3UGLOBAL_OPTIONS_DATA@@A+144, 0
  00021	0f 85 17 01 00
	00		 jne	 $LN1@set_defaul

; 741  : 		{
; 742  : 			if (state != get_local_entity_int_value (get_gunship_entity (), INT_TYPE_INFRA_RED_JAMMER_ON))

  00027	83 3d 00 00 00
	00 00		 cmp	 DWORD PTR ?gunship_entity@@3PAUENTITY@@A, 0 ; gunship_entity
  0002e	74 0c		 je	 SHORT $LN6@set_defaul
  00030	a1 00 00 00 00	 mov	 eax, DWORD PTR ?gunship_entity@@3PAUENTITY@@A ; gunship_entity
  00035	8b 08		 mov	 ecx, DWORD PTR [eax]
  00037	89 4d bc	 mov	 DWORD PTR tv73[ebp], ecx
  0003a	eb 1d		 jmp	 SHORT $LN7@set_defaul
$LN6@set_defaul:
  0003c	68 e6 02 00 00	 push	 742			; 000002e6H
  00041	68 00 00 00 00	 push	 OFFSET ??_C@_0EP@JJOFDEIA@c?3?2users?2nhv90?2projects?2eech?2ap@
  00046	8b 15 00 00 00
	00		 mov	 edx, DWORD PTR ?null_entity_pointer_message@@3PBDB ; null_entity_pointer_message
  0004c	52		 push	 edx
  0004d	e8 00 00 00 00	 call	 ?process_assert@@YGXPBD0H@Z ; process_assert
  00052	c7 45 bc 00 00
	00 00		 mov	 DWORD PTR tv73[ebp], 0
$LN7@set_defaul:
  00059	b8 01 00 00 00	 mov	 eax, 1
  0005e	85 c0		 test	 eax, eax
  00060	74 09		 je	 SHORT $LN8@set_defaul
  00062	c7 45 b8 68 00
	00 00		 mov	 DWORD PTR tv80[ebp], 104 ; 00000068H
  00069	eb 1d		 jmp	 SHORT $LN9@set_defaul
$LN8@set_defaul:
  0006b	68 e6 02 00 00	 push	 742			; 000002e6H
  00070	68 00 00 00 00	 push	 OFFSET ??_C@_0EP@JJOFDEIA@c?3?2users?2nhv90?2projects?2eech?2ap@
  00075	8b 0d 00 00 00
	00		 mov	 ecx, DWORD PTR ?overload_invalid_int_type_message@@3PBDB ; overload_invalid_int_type_message
  0007b	51		 push	 ecx
  0007c	e8 00 00 00 00	 call	 ?process_assert@@YGXPBD0H@Z ; process_assert
  00081	c7 45 b8 00 00
	00 00		 mov	 DWORD PTR tv80[ebp], 0
$LN9@set_defaul:
  00088	6a 68		 push	 104			; 00000068H
  0008a	8b 15 00 00 00
	00		 mov	 edx, DWORD PTR ?gunship_entity@@3PAUENTITY@@A ; gunship_entity
  00090	52		 push	 edx
  00091	69 45 bc 5c 04
	00 00		 imul	 eax, DWORD PTR tv73[ebp], 1116
  00098	8b 4d b8	 mov	 ecx, DWORD PTR tv80[ebp]
  0009b	8b 94 88 00 00
	00 00		 mov	 edx, DWORD PTR ?fn_get_local_entity_int_value@@3PAY0BBH@P6GHPAUENTITY@@W4INT_TYPES@@@ZA[eax+ecx*4]
  000a2	ff d2		 call	 edx
  000a4	39 45 08	 cmp	 DWORD PTR _state$[ebp], eax
  000a7	0f 84 91 00 00
	00		 je	 $LN1@set_defaul

; 743  : 			{
; 744  : 				set_client_server_entity_int_value (get_gunship_entity (), INT_TYPE_INFRA_RED_JAMMER_ON, state);

  000ad	83 3d 00 00 00
	00 00		 cmp	 DWORD PTR ?gunship_entity@@3PAUENTITY@@A, 0 ; gunship_entity
  000b4	74 0c		 je	 SHORT $LN10@set_defaul
  000b6	a1 00 00 00 00	 mov	 eax, DWORD PTR ?gunship_entity@@3PAUENTITY@@A ; gunship_entity
  000bb	8b 08		 mov	 ecx, DWORD PTR [eax]
  000bd	89 4d bc	 mov	 DWORD PTR tv93[ebp], ecx
  000c0	eb 21		 jmp	 SHORT $LN11@set_defaul
$LN10@set_defaul:
  000c2	8b 15 00 00 00
	00		 mov	 edx, DWORD PTR ?__LINE__Var@?0??set_default_infra_red_jammer_manual@@YGXH@Z@4JA
  000c8	83 c2 07	 add	 edx, 7
  000cb	52		 push	 edx
  000cc	68 00 00 00 00	 push	 OFFSET ??_C@_0EP@JJOFDEIA@c?3?2users?2nhv90?2projects?2eech?2ap@
  000d1	a1 00 00 00 00	 mov	 eax, DWORD PTR ?null_entity_pointer_message@@3PBDB ; null_entity_pointer_message
  000d6	50		 push	 eax
  000d7	e8 00 00 00 00	 call	 ?process_assert@@YGXPBD0H@Z ; process_assert
  000dc	c7 45 bc 00 00
	00 00		 mov	 DWORD PTR tv93[ebp], 0
$LN11@set_defaul:
  000e3	b9 01 00 00 00	 mov	 ecx, 1
  000e8	85 c9		 test	 ecx, ecx
  000ea	74 09		 je	 SHORT $LN12@set_defaul
  000ec	c7 45 b8 68 00
	00 00		 mov	 DWORD PTR tv133[ebp], 104 ; 00000068H
  000f3	eb 21		 jmp	 SHORT $LN13@set_defaul
$LN12@set_defaul:
  000f5	8b 15 00 00 00
	00		 mov	 edx, DWORD PTR ?__LINE__Var@?0??set_default_infra_red_jammer_manual@@YGXH@Z@4JA
  000fb	83 c2 07	 add	 edx, 7
  000fe	52		 push	 edx
  000ff	68 00 00 00 00	 push	 OFFSET ??_C@_0EP@JJOFDEIA@c?3?2users?2nhv90?2projects?2eech?2ap@
  00104	a1 00 00 00 00	 mov	 eax, DWORD PTR ?overload_invalid_int_type_message@@3PBDB ; overload_invalid_int_type_message
  00109	50		 push	 eax
  0010a	e8 00 00 00 00	 call	 ?process_assert@@YGXPBD0H@Z ; process_assert
  0010f	c7 45 b8 00 00
	00 00		 mov	 DWORD PTR tv133[ebp], 0
$LN13@set_defaul:
  00116	8b 4d 08	 mov	 ecx, DWORD PTR _state$[ebp]
  00119	51		 push	 ecx
  0011a	6a 68		 push	 104			; 00000068H
  0011c	8b 15 00 00 00
	00		 mov	 edx, DWORD PTR ?gunship_entity@@3PAUENTITY@@A ; gunship_entity
  00122	52		 push	 edx
  00123	69 45 bc b8 08
	00 00		 imul	 eax, DWORD PTR tv93[ebp], 2232
  0012a	8b 4d b8	 mov	 ecx, DWORD PTR tv133[ebp]
  0012d	8d 94 c8 00 00
	00 00		 lea	 edx, DWORD PTR ?fn_set_client_server_entity_int_value@@3PAY1BBH@1P6GXPAUENTITY@@W4INT_TYPES@@H@ZA[eax+ecx*8]
  00134	a1 00 00 00 00	 mov	 eax, DWORD PTR ?system_comms_model@@3W4COMMS_MODEL_TYPES@@A ; system_comms_model
  00139	8b 0c 82	 mov	 ecx, DWORD PTR [edx+eax*4]
  0013c	ff d1		 call	 ecx
$LN1@set_defaul:

; 745  : 			}
; 746  : 		}
; 747  : 	}
; 748  : }

  0013e	5f		 pop	 edi
  0013f	5e		 pop	 esi
  00140	5b		 pop	 ebx
  00141	8b e5		 mov	 esp, ebp
  00143	5d		 pop	 ebp
  00144	c2 04 00	 ret	 4
?set_default_infra_red_jammer_manual@@YGXH@Z ENDP	; set_default_infra_red_jammer_manual
_TEXT	ENDS
; Function compile flags: /Odtp /ZI
; File c:\users\nhv90\projects\eech\aphavoc\source\gunships\avionics\default\df_wpn.c
;	COMDAT ?toggle_default_infra_red_jammer_manual@@YGXXZ
_TEXT	SEGMENT
tv155 = -72						; size = 4
tv133 = -72						; size = 4
tv80 = -72						; size = 4
tv147 = -68						; size = 4
tv93 = -68						; size = 4
tv73 = -68						; size = 4
?toggle_default_infra_red_jammer_manual@@YGXXZ PROC	; toggle_default_infra_red_jammer_manual, COMDAT

; 713  : {

  00000	55		 push	 ebp
  00001	8b ec		 mov	 ebp, esp
  00003	83 ec 48	 sub	 esp, 72			; 00000048H
  00006	53		 push	 ebx
  00007	56		 push	 esi
  00008	57		 push	 edi

; 714  : 	if (!default_damage.infra_red_jammer)

  00009	a1 00 00 00 00	 mov	 eax, DWORD PTR ?default_damage@@3TDEFAULT_DAMAGE_FLAGS@@A ; default_damage
  0000e	c1 e8 08	 shr	 eax, 8
  00011	83 e0 01	 and	 eax, 1
  00014	0f 85 b7 01 00
	00		 jne	 $LN2@toggle_def

; 715  : 	{
; 716  : 		if (!get_global_auto_counter_measures ())

  0001a	83 3d 90 00 00
	00 00		 cmp	 DWORD PTR ?global_options@@3UGLOBAL_OPTIONS_DATA@@A+144, 0
  00021	0f 85 aa 01 00
	00		 jne	 $LN2@toggle_def

; 717  : 		{
; 718  : 			if (get_local_entity_int_value (get_gunship_entity (), INT_TYPE_INFRA_RED_JAMMER_ON))

  00027	83 3d 00 00 00
	00 00		 cmp	 DWORD PTR ?gunship_entity@@3PAUENTITY@@A, 0 ; gunship_entity
  0002e	74 0c		 je	 SHORT $LN7@toggle_def
  00030	a1 00 00 00 00	 mov	 eax, DWORD PTR ?gunship_entity@@3PAUENTITY@@A ; gunship_entity
  00035	8b 08		 mov	 ecx, DWORD PTR [eax]
  00037	89 4d bc	 mov	 DWORD PTR tv73[ebp], ecx
  0003a	eb 1d		 jmp	 SHORT $LN8@toggle_def
$LN7@toggle_def:
  0003c	68 ce 02 00 00	 push	 718			; 000002ceH
  00041	68 00 00 00 00	 push	 OFFSET ??_C@_0EP@JJOFDEIA@c?3?2users?2nhv90?2projects?2eech?2ap@
  00046	8b 15 00 00 00
	00		 mov	 edx, DWORD PTR ?null_entity_pointer_message@@3PBDB ; null_entity_pointer_message
  0004c	52		 push	 edx
  0004d	e8 00 00 00 00	 call	 ?process_assert@@YGXPBD0H@Z ; process_assert
  00052	c7 45 bc 00 00
	00 00		 mov	 DWORD PTR tv73[ebp], 0
$LN8@toggle_def:
  00059	b8 01 00 00 00	 mov	 eax, 1
  0005e	85 c0		 test	 eax, eax
  00060	74 09		 je	 SHORT $LN9@toggle_def
  00062	c7 45 b8 68 00
	00 00		 mov	 DWORD PTR tv80[ebp], 104 ; 00000068H
  00069	eb 1d		 jmp	 SHORT $LN10@toggle_def
$LN9@toggle_def:
  0006b	68 ce 02 00 00	 push	 718			; 000002ceH
  00070	68 00 00 00 00	 push	 OFFSET ??_C@_0EP@JJOFDEIA@c?3?2users?2nhv90?2projects?2eech?2ap@
  00075	8b 0d 00 00 00
	00		 mov	 ecx, DWORD PTR ?overload_invalid_int_type_message@@3PBDB ; overload_invalid_int_type_message
  0007b	51		 push	 ecx
  0007c	e8 00 00 00 00	 call	 ?process_assert@@YGXPBD0H@Z ; process_assert
  00081	c7 45 b8 00 00
	00 00		 mov	 DWORD PTR tv80[ebp], 0
$LN10@toggle_def:
  00088	6a 68		 push	 104			; 00000068H
  0008a	8b 15 00 00 00
	00		 mov	 edx, DWORD PTR ?gunship_entity@@3PAUENTITY@@A ; gunship_entity
  00090	52		 push	 edx
  00091	69 45 bc 5c 04
	00 00		 imul	 eax, DWORD PTR tv73[ebp], 1116
  00098	8b 4d b8	 mov	 ecx, DWORD PTR tv80[ebp]
  0009b	8b 94 88 00 00
	00 00		 mov	 edx, DWORD PTR ?fn_get_local_entity_int_value@@3PAY0BBH@P6GHPAUENTITY@@W4INT_TYPES@@@ZA[eax+ecx*4]
  000a2	ff d2		 call	 edx
  000a4	85 c0		 test	 eax, eax
  000a6	0f 84 95 00 00
	00		 je	 $LN4@toggle_def

; 719  : 			{
; 720  : 				set_client_server_entity_int_value (get_gunship_entity (), INT_TYPE_INFRA_RED_JAMMER_ON, FALSE);

  000ac	83 3d 00 00 00
	00 00		 cmp	 DWORD PTR ?gunship_entity@@3PAUENTITY@@A, 0 ; gunship_entity
  000b3	74 0c		 je	 SHORT $LN11@toggle_def
  000b5	a1 00 00 00 00	 mov	 eax, DWORD PTR ?gunship_entity@@3PAUENTITY@@A ; gunship_entity
  000ba	8b 08		 mov	 ecx, DWORD PTR [eax]
  000bc	89 4d bc	 mov	 DWORD PTR tv93[ebp], ecx
  000bf	eb 21		 jmp	 SHORT $LN12@toggle_def
$LN11@toggle_def:
  000c1	8b 15 00 00 00
	00		 mov	 edx, DWORD PTR ?__LINE__Var@?0??toggle_default_infra_red_jammer_manual@@YGXXZ@4JA
  000c7	83 c2 07	 add	 edx, 7
  000ca	52		 push	 edx
  000cb	68 00 00 00 00	 push	 OFFSET ??_C@_0EP@JJOFDEIA@c?3?2users?2nhv90?2projects?2eech?2ap@
  000d0	a1 00 00 00 00	 mov	 eax, DWORD PTR ?null_entity_pointer_message@@3PBDB ; null_entity_pointer_message
  000d5	50		 push	 eax
  000d6	e8 00 00 00 00	 call	 ?process_assert@@YGXPBD0H@Z ; process_assert
  000db	c7 45 bc 00 00
	00 00		 mov	 DWORD PTR tv93[ebp], 0
$LN12@toggle_def:
  000e2	b9 01 00 00 00	 mov	 ecx, 1
  000e7	85 c9		 test	 ecx, ecx
  000e9	74 09		 je	 SHORT $LN13@toggle_def
  000eb	c7 45 b8 68 00
	00 00		 mov	 DWORD PTR tv133[ebp], 104 ; 00000068H
  000f2	eb 21		 jmp	 SHORT $LN14@toggle_def
$LN13@toggle_def:
  000f4	8b 15 00 00 00
	00		 mov	 edx, DWORD PTR ?__LINE__Var@?0??toggle_default_infra_red_jammer_manual@@YGXXZ@4JA
  000fa	83 c2 07	 add	 edx, 7
  000fd	52		 push	 edx
  000fe	68 00 00 00 00	 push	 OFFSET ??_C@_0EP@JJOFDEIA@c?3?2users?2nhv90?2projects?2eech?2ap@
  00103	a1 00 00 00 00	 mov	 eax, DWORD PTR ?overload_invalid_int_type_message@@3PBDB ; overload_invalid_int_type_message
  00108	50		 push	 eax
  00109	e8 00 00 00 00	 call	 ?process_assert@@YGXPBD0H@Z ; process_assert
  0010e	c7 45 b8 00 00
	00 00		 mov	 DWORD PTR tv133[ebp], 0
$LN14@toggle_def:
  00115	6a 00		 push	 0
  00117	6a 68		 push	 104			; 00000068H
  00119	8b 0d 00 00 00
	00		 mov	 ecx, DWORD PTR ?gunship_entity@@3PAUENTITY@@A ; gunship_entity
  0011f	51		 push	 ecx
  00120	69 55 bc b8 08
	00 00		 imul	 edx, DWORD PTR tv93[ebp], 2232
  00127	8b 45 b8	 mov	 eax, DWORD PTR tv133[ebp]
  0012a	8d 8c c2 00 00
	00 00		 lea	 ecx, DWORD PTR ?fn_set_client_server_entity_int_value@@3PAY1BBH@1P6GXPAUENTITY@@W4INT_TYPES@@H@ZA[edx+eax*8]
  00131	8b 15 00 00 00
	00		 mov	 edx, DWORD PTR ?system_comms_model@@3W4COMMS_MODEL_TYPES@@A ; system_comms_model
  00137	8b 04 91	 mov	 eax, DWORD PTR [ecx+edx*4]
  0013a	ff d0		 call	 eax

; 721  : 			}
; 722  : 			else

  0013c	e9 90 00 00 00	 jmp	 $LN2@toggle_def
$LN4@toggle_def:

; 723  : 			{
; 724  : 				set_client_server_entity_int_value (get_gunship_entity (), INT_TYPE_INFRA_RED_JAMMER_ON, TRUE);

  00141	83 3d 00 00 00
	00 00		 cmp	 DWORD PTR ?gunship_entity@@3PAUENTITY@@A, 0 ; gunship_entity
  00148	74 0c		 je	 SHORT $LN15@toggle_def
  0014a	a1 00 00 00 00	 mov	 eax, DWORD PTR ?gunship_entity@@3PAUENTITY@@A ; gunship_entity
  0014f	8b 08		 mov	 ecx, DWORD PTR [eax]
  00151	89 4d bc	 mov	 DWORD PTR tv147[ebp], ecx
  00154	eb 21		 jmp	 SHORT $LN16@toggle_def
$LN15@toggle_def:
  00156	8b 15 00 00 00
	00		 mov	 edx, DWORD PTR ?__LINE__Var@?0??toggle_default_infra_red_jammer_manual@@YGXXZ@4JA
  0015c	83 c2 0b	 add	 edx, 11			; 0000000bH
  0015f	52		 push	 edx
  00160	68 00 00 00 00	 push	 OFFSET ??_C@_0EP@JJOFDEIA@c?3?2users?2nhv90?2projects?2eech?2ap@
  00165	a1 00 00 00 00	 mov	 eax, DWORD PTR ?null_entity_pointer_message@@3PBDB ; null_entity_pointer_message
  0016a	50		 push	 eax
  0016b	e8 00 00 00 00	 call	 ?process_assert@@YGXPBD0H@Z ; process_assert
  00170	c7 45 bc 00 00
	00 00		 mov	 DWORD PTR tv147[ebp], 0
$LN16@toggle_def:
  00177	b9 01 00 00 00	 mov	 ecx, 1
  0017c	85 c9		 test	 ecx, ecx
  0017e	74 09		 je	 SHORT $LN17@toggle_def
  00180	c7 45 b8 68 00
	00 00		 mov	 DWORD PTR tv155[ebp], 104 ; 00000068H
  00187	eb 21		 jmp	 SHORT $LN18@toggle_def
$LN17@toggle_def:
  00189	8b 15 00 00 00
	00		 mov	 edx, DWORD PTR ?__LINE__Var@?0??toggle_default_infra_red_jammer_manual@@YGXXZ@4JA
  0018f	83 c2 0b	 add	 edx, 11			; 0000000bH
  00192	52		 push	 edx
  00193	68 00 00 00 00	 push	 OFFSET ??_C@_0EP@JJOFDEIA@c?3?2users?2nhv90?2projects?2eech?2ap@
  00198	a1 00 00 00 00	 mov	 eax, DWORD PTR ?overload_invalid_int_type_message@@3PBDB ; overload_invalid_int_type_message
  0019d	50		 push	 eax
  0019e	e8 00 00 00 00	 call	 ?process_assert@@YGXPBD0H@Z ; process_assert
  001a3	c7 45 b8 00 00
	00 00		 mov	 DWORD PTR tv155[ebp], 0
$LN18@toggle_def:
  001aa	6a 01		 push	 1
  001ac	6a 68		 push	 104			; 00000068H
  001ae	8b 0d 00 00 00
	00		 mov	 ecx, DWORD PTR ?gunship_entity@@3PAUENTITY@@A ; gunship_entity
  001b4	51		 push	 ecx
  001b5	69 55 bc b8 08
	00 00		 imul	 edx, DWORD PTR tv147[ebp], 2232
  001bc	8b 45 b8	 mov	 eax, DWORD PTR tv155[ebp]
  001bf	8d 8c c2 00 00
	00 00		 lea	 ecx, DWORD PTR ?fn_set_client_server_entity_int_value@@3PAY1BBH@1P6GXPAUENTITY@@W4INT_TYPES@@H@ZA[edx+eax*8]
  001c6	8b 15 00 00 00
	00		 mov	 edx, DWORD PTR ?system_comms_model@@3W4COMMS_MODEL_TYPES@@A ; system_comms_model
  001cc	8b 04 91	 mov	 eax, DWORD PTR [ecx+edx*4]
  001cf	ff d0		 call	 eax
$LN2@toggle_def:

; 725  : 			}
; 726  : 		}
; 727  : 	}
; 728  : 
; 729  : 	play_common_cpg_infra_red_jammer_speech (default_damage.infra_red_jammer);

  001d1	a1 00 00 00 00	 mov	 eax, DWORD PTR ?default_damage@@3TDEFAULT_DAMAGE_FLAGS@@A ; default_damage
  001d6	c1 e8 08	 shr	 eax, 8
  001d9	83 e0 01	 and	 eax, 1
  001dc	50		 push	 eax
  001dd	e8 00 00 00 00	 call	 ?play_common_cpg_infra_red_jammer_speech@@YGXH@Z ; play_common_cpg_infra_red_jammer_speech

; 730  : }

  001e2	5f		 pop	 edi
  001e3	5e		 pop	 esi
  001e4	5b		 pop	 ebx
  001e5	8b e5		 mov	 esp, ebp
  001e7	5d		 pop	 ebp
  001e8	c3		 ret	 0
?toggle_default_infra_red_jammer_manual@@YGXXZ ENDP	; toggle_default_infra_red_jammer_manual
_TEXT	ENDS
; Function compile flags: /Odtp /ZI
; File c:\users\nhv90\projects\eech\aphavoc\source\gunships\avionics\default\df_wpn.c
;	COMDAT ?set_default_radar_jammer_auto@@YGXH@Z
_TEXT	SEGMENT
tv133 = -72						; size = 4
tv80 = -72						; size = 4
tv93 = -68						; size = 4
tv73 = -68						; size = 4
_state$ = 8						; size = 4
?set_default_radar_jammer_auto@@YGXH@Z PROC		; set_default_radar_jammer_auto, COMDAT

; 695  : {

  00000	55		 push	 ebp
  00001	8b ec		 mov	 ebp, esp
  00003	83 ec 48	 sub	 esp, 72			; 00000048H
  00006	53		 push	 ebx
  00007	56		 push	 esi
  00008	57		 push	 edi

; 696  : 	if (!default_damage.radar_jammer)

  00009	a1 00 00 00 00	 mov	 eax, DWORD PTR ?default_damage@@3TDEFAULT_DAMAGE_FLAGS@@A ; default_damage
  0000e	c1 e8 07	 shr	 eax, 7
  00011	83 e0 01	 and	 eax, 1
  00014	0f 85 2a 01 00
	00		 jne	 $LN1@set_defaul

; 697  : 	{
; 698  : 		if (get_global_auto_counter_measures ())

  0001a	83 3d 90 00 00
	00 00		 cmp	 DWORD PTR ?global_options@@3UGLOBAL_OPTIONS_DATA@@A+144, 0
  00021	0f 84 1d 01 00
	00		 je	 $LN1@set_defaul

; 699  : 		{
; 700  : 			if (state != get_local_entity_int_value (get_gunship_entity (), INT_TYPE_RADAR_JAMMER_ON))

  00027	83 3d 00 00 00
	00 00		 cmp	 DWORD PTR ?gunship_entity@@3PAUENTITY@@A, 0 ; gunship_entity
  0002e	74 0c		 je	 SHORT $LN6@set_defaul
  00030	a1 00 00 00 00	 mov	 eax, DWORD PTR ?gunship_entity@@3PAUENTITY@@A ; gunship_entity
  00035	8b 08		 mov	 ecx, DWORD PTR [eax]
  00037	89 4d bc	 mov	 DWORD PTR tv73[ebp], ecx
  0003a	eb 1d		 jmp	 SHORT $LN7@set_defaul
$LN6@set_defaul:
  0003c	68 bc 02 00 00	 push	 700			; 000002bcH
  00041	68 00 00 00 00	 push	 OFFSET ??_C@_0EP@JJOFDEIA@c?3?2users?2nhv90?2projects?2eech?2ap@
  00046	8b 15 00 00 00
	00		 mov	 edx, DWORD PTR ?null_entity_pointer_message@@3PBDB ; null_entity_pointer_message
  0004c	52		 push	 edx
  0004d	e8 00 00 00 00	 call	 ?process_assert@@YGXPBD0H@Z ; process_assert
  00052	c7 45 bc 00 00
	00 00		 mov	 DWORD PTR tv73[ebp], 0
$LN7@set_defaul:
  00059	b8 01 00 00 00	 mov	 eax, 1
  0005e	85 c0		 test	 eax, eax
  00060	74 09		 je	 SHORT $LN8@set_defaul
  00062	c7 45 b8 a8 00
	00 00		 mov	 DWORD PTR tv80[ebp], 168 ; 000000a8H
  00069	eb 1d		 jmp	 SHORT $LN9@set_defaul
$LN8@set_defaul:
  0006b	68 bc 02 00 00	 push	 700			; 000002bcH
  00070	68 00 00 00 00	 push	 OFFSET ??_C@_0EP@JJOFDEIA@c?3?2users?2nhv90?2projects?2eech?2ap@
  00075	8b 0d 00 00 00
	00		 mov	 ecx, DWORD PTR ?overload_invalid_int_type_message@@3PBDB ; overload_invalid_int_type_message
  0007b	51		 push	 ecx
  0007c	e8 00 00 00 00	 call	 ?process_assert@@YGXPBD0H@Z ; process_assert
  00081	c7 45 b8 00 00
	00 00		 mov	 DWORD PTR tv80[ebp], 0
$LN9@set_defaul:
  00088	68 a8 00 00 00	 push	 168			; 000000a8H
  0008d	8b 15 00 00 00
	00		 mov	 edx, DWORD PTR ?gunship_entity@@3PAUENTITY@@A ; gunship_entity
  00093	52		 push	 edx
  00094	69 45 bc 5c 04
	00 00		 imul	 eax, DWORD PTR tv73[ebp], 1116
  0009b	8b 4d b8	 mov	 ecx, DWORD PTR tv80[ebp]
  0009e	8b 94 88 00 00
	00 00		 mov	 edx, DWORD PTR ?fn_get_local_entity_int_value@@3PAY0BBH@P6GHPAUENTITY@@W4INT_TYPES@@@ZA[eax+ecx*4]
  000a5	ff d2		 call	 edx
  000a7	39 45 08	 cmp	 DWORD PTR _state$[ebp], eax
  000aa	0f 84 94 00 00
	00		 je	 $LN1@set_defaul

; 701  : 			{
; 702  : 				set_client_server_entity_int_value (get_gunship_entity (), INT_TYPE_RADAR_JAMMER_ON, state);

  000b0	83 3d 00 00 00
	00 00		 cmp	 DWORD PTR ?gunship_entity@@3PAUENTITY@@A, 0 ; gunship_entity
  000b7	74 0c		 je	 SHORT $LN10@set_defaul
  000b9	a1 00 00 00 00	 mov	 eax, DWORD PTR ?gunship_entity@@3PAUENTITY@@A ; gunship_entity
  000be	8b 08		 mov	 ecx, DWORD PTR [eax]
  000c0	89 4d bc	 mov	 DWORD PTR tv93[ebp], ecx
  000c3	eb 21		 jmp	 SHORT $LN11@set_defaul
$LN10@set_defaul:
  000c5	8b 15 00 00 00
	00		 mov	 edx, DWORD PTR ?__LINE__Var@?0??set_default_radar_jammer_auto@@YGXH@Z@4JA
  000cb	83 c2 07	 add	 edx, 7
  000ce	52		 push	 edx
  000cf	68 00 00 00 00	 push	 OFFSET ??_C@_0EP@JJOFDEIA@c?3?2users?2nhv90?2projects?2eech?2ap@
  000d4	a1 00 00 00 00	 mov	 eax, DWORD PTR ?null_entity_pointer_message@@3PBDB ; null_entity_pointer_message
  000d9	50		 push	 eax
  000da	e8 00 00 00 00	 call	 ?process_assert@@YGXPBD0H@Z ; process_assert
  000df	c7 45 bc 00 00
	00 00		 mov	 DWORD PTR tv93[ebp], 0
$LN11@set_defaul:
  000e6	b9 01 00 00 00	 mov	 ecx, 1
  000eb	85 c9		 test	 ecx, ecx
  000ed	74 09		 je	 SHORT $LN12@set_defaul
  000ef	c7 45 b8 a8 00
	00 00		 mov	 DWORD PTR tv133[ebp], 168 ; 000000a8H
  000f6	eb 21		 jmp	 SHORT $LN13@set_defaul
$LN12@set_defaul:
  000f8	8b 15 00 00 00
	00		 mov	 edx, DWORD PTR ?__LINE__Var@?0??set_default_radar_jammer_auto@@YGXH@Z@4JA
  000fe	83 c2 07	 add	 edx, 7
  00101	52		 push	 edx
  00102	68 00 00 00 00	 push	 OFFSET ??_C@_0EP@JJOFDEIA@c?3?2users?2nhv90?2projects?2eech?2ap@
  00107	a1 00 00 00 00	 mov	 eax, DWORD PTR ?overload_invalid_int_type_message@@3PBDB ; overload_invalid_int_type_message
  0010c	50		 push	 eax
  0010d	e8 00 00 00 00	 call	 ?process_assert@@YGXPBD0H@Z ; process_assert
  00112	c7 45 b8 00 00
	00 00		 mov	 DWORD PTR tv133[ebp], 0
$LN13@set_defaul:
  00119	8b 4d 08	 mov	 ecx, DWORD PTR _state$[ebp]
  0011c	51		 push	 ecx
  0011d	68 a8 00 00 00	 push	 168			; 000000a8H
  00122	8b 15 00 00 00
	00		 mov	 edx, DWORD PTR ?gunship_entity@@3PAUENTITY@@A ; gunship_entity
  00128	52		 push	 edx
  00129	69 45 bc b8 08
	00 00		 imul	 eax, DWORD PTR tv93[ebp], 2232
  00130	8b 4d b8	 mov	 ecx, DWORD PTR tv133[ebp]
  00133	8d 94 c8 00 00
	00 00		 lea	 edx, DWORD PTR ?fn_set_client_server_entity_int_value@@3PAY1BBH@1P6GXPAUENTITY@@W4INT_TYPES@@H@ZA[eax+ecx*8]
  0013a	a1 00 00 00 00	 mov	 eax, DWORD PTR ?system_comms_model@@3W4COMMS_MODEL_TYPES@@A ; system_comms_model
  0013f	8b 0c 82	 mov	 ecx, DWORD PTR [edx+eax*4]
  00142	ff d1		 call	 ecx
$LN1@set_defaul:

; 703  : 			}
; 704  : 		}
; 705  : 	}
; 706  : }

  00144	5f		 pop	 edi
  00145	5e		 pop	 esi
  00146	5b		 pop	 ebx
  00147	8b e5		 mov	 esp, ebp
  00149	5d		 pop	 ebp
  0014a	c2 04 00	 ret	 4
?set_default_radar_jammer_auto@@YGXH@Z ENDP		; set_default_radar_jammer_auto
_TEXT	ENDS
; Function compile flags: /Odtp /ZI
; File c:\users\nhv90\projects\eech\aphavoc\source\gunships\avionics\default\df_wpn.c
;	COMDAT ?set_default_radar_jammer_manual@@YGXH@Z
_TEXT	SEGMENT
tv133 = -72						; size = 4
tv80 = -72						; size = 4
tv93 = -68						; size = 4
tv73 = -68						; size = 4
_state$ = 8						; size = 4
?set_default_radar_jammer_manual@@YGXH@Z PROC		; set_default_radar_jammer_manual, COMDAT

; 677  : {

  00000	55		 push	 ebp
  00001	8b ec		 mov	 ebp, esp
  00003	83 ec 48	 sub	 esp, 72			; 00000048H
  00006	53		 push	 ebx
  00007	56		 push	 esi
  00008	57		 push	 edi

; 678  : 	if (!default_damage.radar_jammer)

  00009	a1 00 00 00 00	 mov	 eax, DWORD PTR ?default_damage@@3TDEFAULT_DAMAGE_FLAGS@@A ; default_damage
  0000e	c1 e8 07	 shr	 eax, 7
  00011	83 e0 01	 and	 eax, 1
  00014	0f 85 2a 01 00
	00		 jne	 $LN1@set_defaul

; 679  : 	{
; 680  : 		if (!get_global_auto_counter_measures ())

  0001a	83 3d 90 00 00
	00 00		 cmp	 DWORD PTR ?global_options@@3UGLOBAL_OPTIONS_DATA@@A+144, 0
  00021	0f 85 1d 01 00
	00		 jne	 $LN1@set_defaul

; 681  : 		{
; 682  : 			if (state != get_local_entity_int_value (get_gunship_entity (), INT_TYPE_RADAR_JAMMER_ON))

  00027	83 3d 00 00 00
	00 00		 cmp	 DWORD PTR ?gunship_entity@@3PAUENTITY@@A, 0 ; gunship_entity
  0002e	74 0c		 je	 SHORT $LN6@set_defaul
  00030	a1 00 00 00 00	 mov	 eax, DWORD PTR ?gunship_entity@@3PAUENTITY@@A ; gunship_entity
  00035	8b 08		 mov	 ecx, DWORD PTR [eax]
  00037	89 4d bc	 mov	 DWORD PTR tv73[ebp], ecx
  0003a	eb 1d		 jmp	 SHORT $LN7@set_defaul
$LN6@set_defaul:
  0003c	68 aa 02 00 00	 push	 682			; 000002aaH
  00041	68 00 00 00 00	 push	 OFFSET ??_C@_0EP@JJOFDEIA@c?3?2users?2nhv90?2projects?2eech?2ap@
  00046	8b 15 00 00 00
	00		 mov	 edx, DWORD PTR ?null_entity_pointer_message@@3PBDB ; null_entity_pointer_message
  0004c	52		 push	 edx
  0004d	e8 00 00 00 00	 call	 ?process_assert@@YGXPBD0H@Z ; process_assert
  00052	c7 45 bc 00 00
	00 00		 mov	 DWORD PTR tv73[ebp], 0
$LN7@set_defaul:
  00059	b8 01 00 00 00	 mov	 eax, 1
  0005e	85 c0		 test	 eax, eax
  00060	74 09		 je	 SHORT $LN8@set_defaul
  00062	c7 45 b8 a8 00
	00 00		 mov	 DWORD PTR tv80[ebp], 168 ; 000000a8H
  00069	eb 1d		 jmp	 SHORT $LN9@set_defaul
$LN8@set_defaul:
  0006b	68 aa 02 00 00	 push	 682			; 000002aaH
  00070	68 00 00 00 00	 push	 OFFSET ??_C@_0EP@JJOFDEIA@c?3?2users?2nhv90?2projects?2eech?2ap@
  00075	8b 0d 00 00 00
	00		 mov	 ecx, DWORD PTR ?overload_invalid_int_type_message@@3PBDB ; overload_invalid_int_type_message
  0007b	51		 push	 ecx
  0007c	e8 00 00 00 00	 call	 ?process_assert@@YGXPBD0H@Z ; process_assert
  00081	c7 45 b8 00 00
	00 00		 mov	 DWORD PTR tv80[ebp], 0
$LN9@set_defaul:
  00088	68 a8 00 00 00	 push	 168			; 000000a8H
  0008d	8b 15 00 00 00
	00		 mov	 edx, DWORD PTR ?gunship_entity@@3PAUENTITY@@A ; gunship_entity
  00093	52		 push	 edx
  00094	69 45 bc 5c 04
	00 00		 imul	 eax, DWORD PTR tv73[ebp], 1116
  0009b	8b 4d b8	 mov	 ecx, DWORD PTR tv80[ebp]
  0009e	8b 94 88 00 00
	00 00		 mov	 edx, DWORD PTR ?fn_get_local_entity_int_value@@3PAY0BBH@P6GHPAUENTITY@@W4INT_TYPES@@@ZA[eax+ecx*4]
  000a5	ff d2		 call	 edx
  000a7	39 45 08	 cmp	 DWORD PTR _state$[ebp], eax
  000aa	0f 84 94 00 00
	00		 je	 $LN1@set_defaul

; 683  : 			{
; 684  : 				set_client_server_entity_int_value (get_gunship_entity (), INT_TYPE_RADAR_JAMMER_ON, state);

  000b0	83 3d 00 00 00
	00 00		 cmp	 DWORD PTR ?gunship_entity@@3PAUENTITY@@A, 0 ; gunship_entity
  000b7	74 0c		 je	 SHORT $LN10@set_defaul
  000b9	a1 00 00 00 00	 mov	 eax, DWORD PTR ?gunship_entity@@3PAUENTITY@@A ; gunship_entity
  000be	8b 08		 mov	 ecx, DWORD PTR [eax]
  000c0	89 4d bc	 mov	 DWORD PTR tv93[ebp], ecx
  000c3	eb 21		 jmp	 SHORT $LN11@set_defaul
$LN10@set_defaul:
  000c5	8b 15 00 00 00
	00		 mov	 edx, DWORD PTR ?__LINE__Var@?0??set_default_radar_jammer_manual@@YGXH@Z@4JA
  000cb	83 c2 07	 add	 edx, 7
  000ce	52		 push	 edx
  000cf	68 00 00 00 00	 push	 OFFSET ??_C@_0EP@JJOFDEIA@c?3?2users?2nhv90?2projects?2eech?2ap@
  000d4	a1 00 00 00 00	 mov	 eax, DWORD PTR ?null_entity_pointer_message@@3PBDB ; null_entity_pointer_message
  000d9	50		 push	 eax
  000da	e8 00 00 00 00	 call	 ?process_assert@@YGXPBD0H@Z ; process_assert
  000df	c7 45 bc 00 00
	00 00		 mov	 DWORD PTR tv93[ebp], 0
$LN11@set_defaul:
  000e6	b9 01 00 00 00	 mov	 ecx, 1
  000eb	85 c9		 test	 ecx, ecx
  000ed	74 09		 je	 SHORT $LN12@set_defaul
  000ef	c7 45 b8 a8 00
	00 00		 mov	 DWORD PTR tv133[ebp], 168 ; 000000a8H
  000f6	eb 21		 jmp	 SHORT $LN13@set_defaul
$LN12@set_defaul:
  000f8	8b 15 00 00 00
	00		 mov	 edx, DWORD PTR ?__LINE__Var@?0??set_default_radar_jammer_manual@@YGXH@Z@4JA
  000fe	83 c2 07	 add	 edx, 7
  00101	52		 push	 edx
  00102	68 00 00 00 00	 push	 OFFSET ??_C@_0EP@JJOFDEIA@c?3?2users?2nhv90?2projects?2eech?2ap@
  00107	a1 00 00 00 00	 mov	 eax, DWORD PTR ?overload_invalid_int_type_message@@3PBDB ; overload_invalid_int_type_message
  0010c	50		 push	 eax
  0010d	e8 00 00 00 00	 call	 ?process_assert@@YGXPBD0H@Z ; process_assert
  00112	c7 45 b8 00 00
	00 00		 mov	 DWORD PTR tv133[ebp], 0
$LN13@set_defaul:
  00119	8b 4d 08	 mov	 ecx, DWORD PTR _state$[ebp]
  0011c	51		 push	 ecx
  0011d	68 a8 00 00 00	 push	 168			; 000000a8H
  00122	8b 15 00 00 00
	00		 mov	 edx, DWORD PTR ?gunship_entity@@3PAUENTITY@@A ; gunship_entity
  00128	52		 push	 edx
  00129	69 45 bc b8 08
	00 00		 imul	 eax, DWORD PTR tv93[ebp], 2232
  00130	8b 4d b8	 mov	 ecx, DWORD PTR tv133[ebp]
  00133	8d 94 c8 00 00
	00 00		 lea	 edx, DWORD PTR ?fn_set_client_server_entity_int_value@@3PAY1BBH@1P6GXPAUENTITY@@W4INT_TYPES@@H@ZA[eax+ecx*8]
  0013a	a1 00 00 00 00	 mov	 eax, DWORD PTR ?system_comms_model@@3W4COMMS_MODEL_TYPES@@A ; system_comms_model
  0013f	8b 0c 82	 mov	 ecx, DWORD PTR [edx+eax*4]
  00142	ff d1		 call	 ecx
$LN1@set_defaul:

; 685  : 			}
; 686  : 		}
; 687  : 	}
; 688  : }

  00144	5f		 pop	 edi
  00145	5e		 pop	 esi
  00146	5b		 pop	 ebx
  00147	8b e5		 mov	 esp, ebp
  00149	5d		 pop	 ebp
  0014a	c2 04 00	 ret	 4
?set_default_radar_jammer_manual@@YGXH@Z ENDP		; set_default_radar_jammer_manual
_TEXT	ENDS
; Function compile flags: /Odtp /ZI
; File c:\users\nhv90\projects\eech\aphavoc\source\gunships\avionics\default\df_wpn.c
;	COMDAT ?toggle_default_radar_jammer_manual@@YGXXZ
_TEXT	SEGMENT
tv155 = -72						; size = 4
tv133 = -72						; size = 4
tv80 = -72						; size = 4
tv147 = -68						; size = 4
tv93 = -68						; size = 4
tv73 = -68						; size = 4
?toggle_default_radar_jammer_manual@@YGXXZ PROC		; toggle_default_radar_jammer_manual, COMDAT

; 653  : {

  00000	55		 push	 ebp
  00001	8b ec		 mov	 ebp, esp
  00003	83 ec 48	 sub	 esp, 72			; 00000048H
  00006	53		 push	 ebx
  00007	56		 push	 esi
  00008	57		 push	 edi

; 654  : 	if (!default_damage.radar_jammer)

  00009	a1 00 00 00 00	 mov	 eax, DWORD PTR ?default_damage@@3TDEFAULT_DAMAGE_FLAGS@@A ; default_damage
  0000e	c1 e8 07	 shr	 eax, 7
  00011	83 e0 01	 and	 eax, 1
  00014	0f 85 c0 01 00
	00		 jne	 $LN2@toggle_def

; 655  : 	{
; 656  : 		if (!get_global_auto_counter_measures ())

  0001a	83 3d 90 00 00
	00 00		 cmp	 DWORD PTR ?global_options@@3UGLOBAL_OPTIONS_DATA@@A+144, 0
  00021	0f 85 b3 01 00
	00		 jne	 $LN2@toggle_def

; 657  : 		{
; 658  : 			if (get_local_entity_int_value (get_gunship_entity (), INT_TYPE_RADAR_JAMMER_ON))

  00027	83 3d 00 00 00
	00 00		 cmp	 DWORD PTR ?gunship_entity@@3PAUENTITY@@A, 0 ; gunship_entity
  0002e	74 0c		 je	 SHORT $LN7@toggle_def
  00030	a1 00 00 00 00	 mov	 eax, DWORD PTR ?gunship_entity@@3PAUENTITY@@A ; gunship_entity
  00035	8b 08		 mov	 ecx, DWORD PTR [eax]
  00037	89 4d bc	 mov	 DWORD PTR tv73[ebp], ecx
  0003a	eb 1d		 jmp	 SHORT $LN8@toggle_def
$LN7@toggle_def:
  0003c	68 92 02 00 00	 push	 658			; 00000292H
  00041	68 00 00 00 00	 push	 OFFSET ??_C@_0EP@JJOFDEIA@c?3?2users?2nhv90?2projects?2eech?2ap@
  00046	8b 15 00 00 00
	00		 mov	 edx, DWORD PTR ?null_entity_pointer_message@@3PBDB ; null_entity_pointer_message
  0004c	52		 push	 edx
  0004d	e8 00 00 00 00	 call	 ?process_assert@@YGXPBD0H@Z ; process_assert
  00052	c7 45 bc 00 00
	00 00		 mov	 DWORD PTR tv73[ebp], 0
$LN8@toggle_def:
  00059	b8 01 00 00 00	 mov	 eax, 1
  0005e	85 c0		 test	 eax, eax
  00060	74 09		 je	 SHORT $LN9@toggle_def
  00062	c7 45 b8 a8 00
	00 00		 mov	 DWORD PTR tv80[ebp], 168 ; 000000a8H
  00069	eb 1d		 jmp	 SHORT $LN10@toggle_def
$LN9@toggle_def:
  0006b	68 92 02 00 00	 push	 658			; 00000292H
  00070	68 00 00 00 00	 push	 OFFSET ??_C@_0EP@JJOFDEIA@c?3?2users?2nhv90?2projects?2eech?2ap@
  00075	8b 0d 00 00 00
	00		 mov	 ecx, DWORD PTR ?overload_invalid_int_type_message@@3PBDB ; overload_invalid_int_type_message
  0007b	51		 push	 ecx
  0007c	e8 00 00 00 00	 call	 ?process_assert@@YGXPBD0H@Z ; process_assert
  00081	c7 45 b8 00 00
	00 00		 mov	 DWORD PTR tv80[ebp], 0
$LN10@toggle_def:
  00088	68 a8 00 00 00	 push	 168			; 000000a8H
  0008d	8b 15 00 00 00
	00		 mov	 edx, DWORD PTR ?gunship_entity@@3PAUENTITY@@A ; gunship_entity
  00093	52		 push	 edx
  00094	69 45 bc 5c 04
	00 00		 imul	 eax, DWORD PTR tv73[ebp], 1116
  0009b	8b 4d b8	 mov	 ecx, DWORD PTR tv80[ebp]
  0009e	8b 94 88 00 00
	00 00		 mov	 edx, DWORD PTR ?fn_get_local_entity_int_value@@3PAY0BBH@P6GHPAUENTITY@@W4INT_TYPES@@@ZA[eax+ecx*4]
  000a5	ff d2		 call	 edx
  000a7	85 c0		 test	 eax, eax
  000a9	0f 84 98 00 00
	00		 je	 $LN4@toggle_def

; 659  : 			{
; 660  : 				set_client_server_entity_int_value (get_gunship_entity (), INT_TYPE_RADAR_JAMMER_ON, FALSE);

  000af	83 3d 00 00 00
	00 00		 cmp	 DWORD PTR ?gunship_entity@@3PAUENTITY@@A, 0 ; gunship_entity
  000b6	74 0c		 je	 SHORT $LN11@toggle_def
  000b8	a1 00 00 00 00	 mov	 eax, DWORD PTR ?gunship_entity@@3PAUENTITY@@A ; gunship_entity
  000bd	8b 08		 mov	 ecx, DWORD PTR [eax]
  000bf	89 4d bc	 mov	 DWORD PTR tv93[ebp], ecx
  000c2	eb 21		 jmp	 SHORT $LN12@toggle_def
$LN11@toggle_def:
  000c4	8b 15 00 00 00
	00		 mov	 edx, DWORD PTR ?__LINE__Var@?0??toggle_default_radar_jammer_manual@@YGXXZ@4JA
  000ca	83 c2 07	 add	 edx, 7
  000cd	52		 push	 edx
  000ce	68 00 00 00 00	 push	 OFFSET ??_C@_0EP@JJOFDEIA@c?3?2users?2nhv90?2projects?2eech?2ap@
  000d3	a1 00 00 00 00	 mov	 eax, DWORD PTR ?null_entity_pointer_message@@3PBDB ; null_entity_pointer_message
  000d8	50		 push	 eax
  000d9	e8 00 00 00 00	 call	 ?process_assert@@YGXPBD0H@Z ; process_assert
  000de	c7 45 bc 00 00
	00 00		 mov	 DWORD PTR tv93[ebp], 0
$LN12@toggle_def:
  000e5	b9 01 00 00 00	 mov	 ecx, 1
  000ea	85 c9		 test	 ecx, ecx
  000ec	74 09		 je	 SHORT $LN13@toggle_def
  000ee	c7 45 b8 a8 00
	00 00		 mov	 DWORD PTR tv133[ebp], 168 ; 000000a8H
  000f5	eb 21		 jmp	 SHORT $LN14@toggle_def
$LN13@toggle_def:
  000f7	8b 15 00 00 00
	00		 mov	 edx, DWORD PTR ?__LINE__Var@?0??toggle_default_radar_jammer_manual@@YGXXZ@4JA
  000fd	83 c2 07	 add	 edx, 7
  00100	52		 push	 edx
  00101	68 00 00 00 00	 push	 OFFSET ??_C@_0EP@JJOFDEIA@c?3?2users?2nhv90?2projects?2eech?2ap@
  00106	a1 00 00 00 00	 mov	 eax, DWORD PTR ?overload_invalid_int_type_message@@3PBDB ; overload_invalid_int_type_message
  0010b	50		 push	 eax
  0010c	e8 00 00 00 00	 call	 ?process_assert@@YGXPBD0H@Z ; process_assert
  00111	c7 45 b8 00 00
	00 00		 mov	 DWORD PTR tv133[ebp], 0
$LN14@toggle_def:
  00118	6a 00		 push	 0
  0011a	68 a8 00 00 00	 push	 168			; 000000a8H
  0011f	8b 0d 00 00 00
	00		 mov	 ecx, DWORD PTR ?gunship_entity@@3PAUENTITY@@A ; gunship_entity
  00125	51		 push	 ecx
  00126	69 55 bc b8 08
	00 00		 imul	 edx, DWORD PTR tv93[ebp], 2232
  0012d	8b 45 b8	 mov	 eax, DWORD PTR tv133[ebp]
  00130	8d 8c c2 00 00
	00 00		 lea	 ecx, DWORD PTR ?fn_set_client_server_entity_int_value@@3PAY1BBH@1P6GXPAUENTITY@@W4INT_TYPES@@H@ZA[edx+eax*8]
  00137	8b 15 00 00 00
	00		 mov	 edx, DWORD PTR ?system_comms_model@@3W4COMMS_MODEL_TYPES@@A ; system_comms_model
  0013d	8b 04 91	 mov	 eax, DWORD PTR [ecx+edx*4]
  00140	ff d0		 call	 eax

; 661  : 			}
; 662  : 			else

  00142	e9 93 00 00 00	 jmp	 $LN2@toggle_def
$LN4@toggle_def:

; 663  : 			{
; 664  : 				set_client_server_entity_int_value (get_gunship_entity (), INT_TYPE_RADAR_JAMMER_ON, TRUE);

  00147	83 3d 00 00 00
	00 00		 cmp	 DWORD PTR ?gunship_entity@@3PAUENTITY@@A, 0 ; gunship_entity
  0014e	74 0c		 je	 SHORT $LN15@toggle_def
  00150	a1 00 00 00 00	 mov	 eax, DWORD PTR ?gunship_entity@@3PAUENTITY@@A ; gunship_entity
  00155	8b 08		 mov	 ecx, DWORD PTR [eax]
  00157	89 4d bc	 mov	 DWORD PTR tv147[ebp], ecx
  0015a	eb 21		 jmp	 SHORT $LN16@toggle_def
$LN15@toggle_def:
  0015c	8b 15 00 00 00
	00		 mov	 edx, DWORD PTR ?__LINE__Var@?0??toggle_default_radar_jammer_manual@@YGXXZ@4JA
  00162	83 c2 0b	 add	 edx, 11			; 0000000bH
  00165	52		 push	 edx
  00166	68 00 00 00 00	 push	 OFFSET ??_C@_0EP@JJOFDEIA@c?3?2users?2nhv90?2projects?2eech?2ap@
  0016b	a1 00 00 00 00	 mov	 eax, DWORD PTR ?null_entity_pointer_message@@3PBDB ; null_entity_pointer_message
  00170	50		 push	 eax
  00171	e8 00 00 00 00	 call	 ?process_assert@@YGXPBD0H@Z ; process_assert
  00176	c7 45 bc 00 00
	00 00		 mov	 DWORD PTR tv147[ebp], 0
$LN16@toggle_def:
  0017d	b9 01 00 00 00	 mov	 ecx, 1
  00182	85 c9		 test	 ecx, ecx
  00184	74 09		 je	 SHORT $LN17@toggle_def
  00186	c7 45 b8 a8 00
	00 00		 mov	 DWORD PTR tv155[ebp], 168 ; 000000a8H
  0018d	eb 21		 jmp	 SHORT $LN18@toggle_def
$LN17@toggle_def:
  0018f	8b 15 00 00 00
	00		 mov	 edx, DWORD PTR ?__LINE__Var@?0??toggle_default_radar_jammer_manual@@YGXXZ@4JA
  00195	83 c2 0b	 add	 edx, 11			; 0000000bH
  00198	52		 push	 edx
  00199	68 00 00 00 00	 push	 OFFSET ??_C@_0EP@JJOFDEIA@c?3?2users?2nhv90?2projects?2eech?2ap@
  0019e	a1 00 00 00 00	 mov	 eax, DWORD PTR ?overload_invalid_int_type_message@@3PBDB ; overload_invalid_int_type_message
  001a3	50		 push	 eax
  001a4	e8 00 00 00 00	 call	 ?process_assert@@YGXPBD0H@Z ; process_assert
  001a9	c7 45 b8 00 00
	00 00		 mov	 DWORD PTR tv155[ebp], 0
$LN18@toggle_def:
  001b0	6a 01		 push	 1
  001b2	68 a8 00 00 00	 push	 168			; 000000a8H
  001b7	8b 0d 00 00 00
	00		 mov	 ecx, DWORD PTR ?gunship_entity@@3PAUENTITY@@A ; gunship_entity
  001bd	51		 push	 ecx
  001be	69 55 bc b8 08
	00 00		 imul	 edx, DWORD PTR tv147[ebp], 2232
  001c5	8b 45 b8	 mov	 eax, DWORD PTR tv155[ebp]
  001c8	8d 8c c2 00 00
	00 00		 lea	 ecx, DWORD PTR ?fn_set_client_server_entity_int_value@@3PAY1BBH@1P6GXPAUENTITY@@W4INT_TYPES@@H@ZA[edx+eax*8]
  001cf	8b 15 00 00 00
	00		 mov	 edx, DWORD PTR ?system_comms_model@@3W4COMMS_MODEL_TYPES@@A ; system_comms_model
  001d5	8b 04 91	 mov	 eax, DWORD PTR [ecx+edx*4]
  001d8	ff d0		 call	 eax
$LN2@toggle_def:

; 665  : 			}
; 666  : 		}
; 667  : 	}
; 668  : 
; 669  : 	play_common_cpg_radar_jammer_speech (default_damage.radar_jammer);

  001da	a1 00 00 00 00	 mov	 eax, DWORD PTR ?default_damage@@3TDEFAULT_DAMAGE_FLAGS@@A ; default_damage
  001df	c1 e8 07	 shr	 eax, 7
  001e2	83 e0 01	 and	 eax, 1
  001e5	50		 push	 eax
  001e6	e8 00 00 00 00	 call	 ?play_common_cpg_radar_jammer_speech@@YGXH@Z ; play_common_cpg_radar_jammer_speech

; 670  : }

  001eb	5f		 pop	 edi
  001ec	5e		 pop	 esi
  001ed	5b		 pop	 ebx
  001ee	8b e5		 mov	 esp, ebp
  001f0	5d		 pop	 ebp
  001f1	c3		 ret	 0
?toggle_default_radar_jammer_manual@@YGXXZ ENDP		; toggle_default_radar_jammer_manual
_TEXT	ENDS
; Function compile flags: /Odtp /ZI
; File c:\users\nhv90\projects\eech\aphavoc\source\gunships\avionics\default\df_wpn.c
;	COMDAT ?get_default_missile_flight_time@@YGMXZ
_TEXT	SEGMENT
tv243 = -108						; size = 4
tv220 = -108						; size = 4
tv197 = -108						; size = 4
tv177 = -108						; size = 4
tv156 = -108						; size = 4
tv131 = -108						; size = 4
tv78 = -108						; size = 4
tv235 = -104						; size = 4
tv212 = -104						; size = 4
tv189 = -104						; size = 4
tv169 = -104						; size = 4
tv148 = -104						; size = 4
tv91 = -104						; size = 4
tv70 = -104						; size = 4
_target_range$ = -36					; size = 4
_weapon_velocity$ = -32					; size = 4
_flight_time$ = -28					; size = 4
_target_position$ = -24					; size = 4
_weapon_position$ = -20					; size = 4
_target$ = -16						; size = 4
_weapon$ = -12						; size = 4
_en$ = -8						; size = 4
_weapon_sub_type$ = -4					; size = 4
?get_default_missile_flight_time@@YGMXZ PROC		; get_default_missile_flight_time, COMDAT

; 585  : {

  00000	55		 push	 ebp
  00001	8b ec		 mov	 ebp, esp
  00003	83 ec 6c	 sub	 esp, 108		; 0000006cH
  00006	53		 push	 ebx
  00007	56		 push	 esi
  00008	57		 push	 edi

; 586  : 	entity_sub_types
; 587  : 		weapon_sub_type;
; 588  : 
; 589  : 	entity
; 590  : 		*en,
; 591  : 		*weapon,
; 592  : 		*target;
; 593  : 
; 594  : 	vec3d
; 595  : 		*weapon_position,
; 596  : 		*target_position;
; 597  : 
; 598  : 	float
; 599  : 		flight_time,
; 600  : 		weapon_velocity,
; 601  : 		target_range;
; 602  : 
; 603  : 	flight_time = 0.0;

  00009	0f 57 c0	 xorps	 xmm0, xmm0
  0000c	f3 0f 11 45 e4	 movss	 DWORD PTR _flight_time$[ebp], xmm0

; 604  : 
; 605  : 	en = get_gunship_entity ();

  00011	a1 00 00 00 00	 mov	 eax, DWORD PTR ?gunship_entity@@3PAUENTITY@@A ; gunship_entity
  00016	89 45 f8	 mov	 DWORD PTR _en$[ebp], eax

; 606  : 
; 607  : 	//
; 608  : 	// find most recently launched Hellfire with a target (first found on list)
; 609  : 	//
; 610  : 
; 611  : 	weapon = get_local_entity_first_child (en, LIST_TYPE_LAUNCHED_WEAPON);

  00019	83 7d f8 00	 cmp	 DWORD PTR _en$[ebp], 0
  0001d	74 0a		 je	 SHORT $LN9@get_defaul
  0001f	8b 45 f8	 mov	 eax, DWORD PTR _en$[ebp]
  00022	8b 08		 mov	 ecx, DWORD PTR [eax]
  00024	89 4d 98	 mov	 DWORD PTR tv70[ebp], ecx
  00027	eb 21		 jmp	 SHORT $LN10@get_defaul
$LN9@get_defaul:
  00029	8b 15 00 00 00
	00		 mov	 edx, DWORD PTR ?__LINE__Var@?0??get_default_missile_flight_time@@YGMXZ@4JA
  0002f	83 c2 1a	 add	 edx, 26			; 0000001aH
  00032	52		 push	 edx
  00033	68 00 00 00 00	 push	 OFFSET ??_C@_0EP@JJOFDEIA@c?3?2users?2nhv90?2projects?2eech?2ap@
  00038	a1 00 00 00 00	 mov	 eax, DWORD PTR ?null_entity_pointer_message@@3PBDB ; null_entity_pointer_message
  0003d	50		 push	 eax
  0003e	e8 00 00 00 00	 call	 ?process_assert@@YGXPBD0H@Z ; process_assert
  00043	c7 45 98 00 00
	00 00		 mov	 DWORD PTR tv70[ebp], 0
$LN10@get_defaul:
  0004a	b9 01 00 00 00	 mov	 ecx, 1
  0004f	85 c9		 test	 ecx, ecx
  00051	74 09		 je	 SHORT $LN11@get_defaul
  00053	c7 45 94 18 00
	00 00		 mov	 DWORD PTR tv78[ebp], 24	; 00000018H
  0005a	eb 21		 jmp	 SHORT $LN12@get_defaul
$LN11@get_defaul:
  0005c	8b 15 00 00 00
	00		 mov	 edx, DWORD PTR ?__LINE__Var@?0??get_default_missile_flight_time@@YGMXZ@4JA
  00062	83 c2 1a	 add	 edx, 26			; 0000001aH
  00065	52		 push	 edx
  00066	68 00 00 00 00	 push	 OFFSET ??_C@_0EP@JJOFDEIA@c?3?2users?2nhv90?2projects?2eech?2ap@
  0006b	a1 00 00 00 00	 mov	 eax, DWORD PTR ?overload_invalid_list_type_message@@3PBDB ; overload_invalid_list_type_message
  00070	50		 push	 eax
  00071	e8 00 00 00 00	 call	 ?process_assert@@YGXPBD0H@Z ; process_assert
  00076	c7 45 94 00 00
	00 00		 mov	 DWORD PTR tv78[ebp], 0
$LN12@get_defaul:
  0007d	6a 18		 push	 24			; 00000018H
  0007f	8b 4d f8	 mov	 ecx, DWORD PTR _en$[ebp]
  00082	51		 push	 ecx
  00083	69 55 98 b4 00
	00 00		 imul	 edx, DWORD PTR tv70[ebp], 180
  0008a	8b 45 94	 mov	 eax, DWORD PTR tv78[ebp]
  0008d	8b 8c 82 00 00
	00 00		 mov	 ecx, DWORD PTR ?fn_get_local_entity_first_child@@3PAY0CN@P6GPAUENTITY@@PAU1@W4LIST_TYPES@@@ZA[edx+eax*4]
  00094	ff d1		 call	 ecx
  00096	89 45 f4	 mov	 DWORD PTR _weapon$[ebp], eax
$LN2@get_defaul:

; 612  : 
; 613  : 	while (weapon)

  00099	83 7d f4 00	 cmp	 DWORD PTR _weapon$[ebp], 0
  0009d	0f 84 61 03 00
	00		 je	 $LN3@get_defaul

; 614  : 	{
; 615  : 		weapon_sub_type = get_local_entity_int_value (weapon, INT_TYPE_ENTITY_SUB_TYPE);

  000a3	83 7d f4 00	 cmp	 DWORD PTR _weapon$[ebp], 0
  000a7	74 0a		 je	 SHORT $LN13@get_defaul
  000a9	8b 45 f4	 mov	 eax, DWORD PTR _weapon$[ebp]
  000ac	8b 08		 mov	 ecx, DWORD PTR [eax]
  000ae	89 4d 98	 mov	 DWORD PTR tv91[ebp], ecx
  000b1	eb 21		 jmp	 SHORT $LN14@get_defaul
$LN13@get_defaul:
  000b3	8b 15 00 00 00
	00		 mov	 edx, DWORD PTR ?__LINE__Var@?0??get_default_missile_flight_time@@YGMXZ@4JA
  000b9	83 c2 1e	 add	 edx, 30			; 0000001eH
  000bc	52		 push	 edx
  000bd	68 00 00 00 00	 push	 OFFSET ??_C@_0EP@JJOFDEIA@c?3?2users?2nhv90?2projects?2eech?2ap@
  000c2	a1 00 00 00 00	 mov	 eax, DWORD PTR ?null_entity_pointer_message@@3PBDB ; null_entity_pointer_message
  000c7	50		 push	 eax
  000c8	e8 00 00 00 00	 call	 ?process_assert@@YGXPBD0H@Z ; process_assert
  000cd	c7 45 98 00 00
	00 00		 mov	 DWORD PTR tv91[ebp], 0
$LN14@get_defaul:
  000d4	b9 01 00 00 00	 mov	 ecx, 1
  000d9	85 c9		 test	 ecx, ecx
  000db	74 09		 je	 SHORT $LN15@get_defaul
  000dd	c7 45 94 34 00
	00 00		 mov	 DWORD PTR tv131[ebp], 52 ; 00000034H
  000e4	eb 21		 jmp	 SHORT $LN16@get_defaul
$LN15@get_defaul:
  000e6	8b 15 00 00 00
	00		 mov	 edx, DWORD PTR ?__LINE__Var@?0??get_default_missile_flight_time@@YGMXZ@4JA
  000ec	83 c2 1e	 add	 edx, 30			; 0000001eH
  000ef	52		 push	 edx
  000f0	68 00 00 00 00	 push	 OFFSET ??_C@_0EP@JJOFDEIA@c?3?2users?2nhv90?2projects?2eech?2ap@
  000f5	a1 00 00 00 00	 mov	 eax, DWORD PTR ?overload_invalid_int_type_message@@3PBDB ; overload_invalid_int_type_message
  000fa	50		 push	 eax
  000fb	e8 00 00 00 00	 call	 ?process_assert@@YGXPBD0H@Z ; process_assert
  00100	c7 45 94 00 00
	00 00		 mov	 DWORD PTR tv131[ebp], 0
$LN16@get_defaul:
  00107	6a 34		 push	 52			; 00000034H
  00109	8b 4d f4	 mov	 ecx, DWORD PTR _weapon$[ebp]
  0010c	51		 push	 ecx
  0010d	69 55 98 5c 04
	00 00		 imul	 edx, DWORD PTR tv91[ebp], 1116
  00114	8b 45 94	 mov	 eax, DWORD PTR tv131[ebp]
  00117	8b 8c 82 00 00
	00 00		 mov	 ecx, DWORD PTR ?fn_get_local_entity_int_value@@3PAY0BBH@P6GHPAUENTITY@@W4INT_TYPES@@@ZA[edx+eax*4]
  0011e	ff d1		 call	 ecx
  00120	89 45 fc	 mov	 DWORD PTR _weapon_sub_type$[ebp], eax

; 616  : 
; 617  : 		if ((weapon_sub_type == ENTITY_SUB_TYPE_WEAPON_AGM114L_LONGBOW_HELLFIRE) || (weapon_sub_type == ENTITY_SUB_TYPE_WEAPON_AGM114K_HELLFIRE_II) ||
; 618  : 			(weapon_sub_type == ENTITY_SUB_TYPE_WEAPON_AT6_SPIRAL) || (weapon_sub_type == ENTITY_SUB_TYPE_WEAPON_ATAKA) || (weapon_sub_type == ENTITY_SUB_TYPE_WEAPON_VIKHR)

  00123	83 7d fc 2d	 cmp	 DWORD PTR _weapon_sub_type$[ebp], 45 ; 0000002dH
  00127	74 1c		 je	 SHORT $LN5@get_defaul
  00129	83 7d fc 2e	 cmp	 DWORD PTR _weapon_sub_type$[ebp], 46 ; 0000002eH
  0012d	74 16		 je	 SHORT $LN5@get_defaul
  0012f	83 7d fc 33	 cmp	 DWORD PTR _weapon_sub_type$[ebp], 51 ; 00000033H
  00133	74 10		 je	 SHORT $LN5@get_defaul
  00135	83 7d fc 31	 cmp	 DWORD PTR _weapon_sub_type$[ebp], 49 ; 00000031H
  00139	74 0a		 je	 SHORT $LN5@get_defaul
  0013b	83 7d fc 32	 cmp	 DWORD PTR _weapon_sub_type$[ebp], 50 ; 00000032H
  0013f	0f 85 3a 02 00
	00		 jne	 $LN7@get_defaul
$LN5@get_defaul:

; 619  : 		)
; 620  : 		{
; 621  : 			target = get_local_entity_parent (weapon, LIST_TYPE_TARGET);

  00145	83 7d f4 00	 cmp	 DWORD PTR _weapon$[ebp], 0
  00149	74 0a		 je	 SHORT $LN17@get_defaul
  0014b	8b 45 f4	 mov	 eax, DWORD PTR _weapon$[ebp]
  0014e	8b 08		 mov	 ecx, DWORD PTR [eax]
  00150	89 4d 98	 mov	 DWORD PTR tv148[ebp], ecx
  00153	eb 21		 jmp	 SHORT $LN18@get_defaul
$LN17@get_defaul:
  00155	8b 15 00 00 00
	00		 mov	 edx, DWORD PTR ?__LINE__Var@?0??get_default_missile_flight_time@@YGMXZ@4JA
  0015b	83 c2 24	 add	 edx, 36			; 00000024H
  0015e	52		 push	 edx
  0015f	68 00 00 00 00	 push	 OFFSET ??_C@_0EP@JJOFDEIA@c?3?2users?2nhv90?2projects?2eech?2ap@
  00164	a1 00 00 00 00	 mov	 eax, DWORD PTR ?null_entity_pointer_message@@3PBDB ; null_entity_pointer_message
  00169	50		 push	 eax
  0016a	e8 00 00 00 00	 call	 ?process_assert@@YGXPBD0H@Z ; process_assert
  0016f	c7 45 98 00 00
	00 00		 mov	 DWORD PTR tv148[ebp], 0
$LN18@get_defaul:
  00176	b9 01 00 00 00	 mov	 ecx, 1
  0017b	85 c9		 test	 ecx, ecx
  0017d	74 09		 je	 SHORT $LN19@get_defaul
  0017f	c7 45 94 26 00
	00 00		 mov	 DWORD PTR tv156[ebp], 38 ; 00000026H
  00186	eb 21		 jmp	 SHORT $LN20@get_defaul
$LN19@get_defaul:
  00188	8b 15 00 00 00
	00		 mov	 edx, DWORD PTR ?__LINE__Var@?0??get_default_missile_flight_time@@YGMXZ@4JA
  0018e	83 c2 24	 add	 edx, 36			; 00000024H
  00191	52		 push	 edx
  00192	68 00 00 00 00	 push	 OFFSET ??_C@_0EP@JJOFDEIA@c?3?2users?2nhv90?2projects?2eech?2ap@
  00197	a1 00 00 00 00	 mov	 eax, DWORD PTR ?overload_invalid_list_type_message@@3PBDB ; overload_invalid_list_type_message
  0019c	50		 push	 eax
  0019d	e8 00 00 00 00	 call	 ?process_assert@@YGXPBD0H@Z ; process_assert
  001a2	c7 45 94 00 00
	00 00		 mov	 DWORD PTR tv156[ebp], 0
$LN20@get_defaul:
  001a9	6a 26		 push	 38			; 00000026H
  001ab	8b 4d f4	 mov	 ecx, DWORD PTR _weapon$[ebp]
  001ae	51		 push	 ecx
  001af	69 55 98 b4 00
	00 00		 imul	 edx, DWORD PTR tv148[ebp], 180
  001b6	8b 45 94	 mov	 eax, DWORD PTR tv156[ebp]
  001b9	8b 8c 82 00 00
	00 00		 mov	 ecx, DWORD PTR ?fn_get_local_entity_parent@@3PAY0CN@P6GPAUENTITY@@PAU1@W4LIST_TYPES@@@ZA[edx+eax*4]
  001c0	ff d1		 call	 ecx
  001c2	89 45 f0	 mov	 DWORD PTR _target$[ebp], eax

; 622  : 
; 623  : 			if (target)

  001c5	83 7d f0 00	 cmp	 DWORD PTR _target$[ebp], 0
  001c9	0f 84 b0 01 00
	00		 je	 $LN7@get_defaul

; 624  : 			{
; 625  : 				weapon_position = get_local_entity_vec3d_ptr (weapon, VEC3D_TYPE_POSITION);

  001cf	83 7d f4 00	 cmp	 DWORD PTR _weapon$[ebp], 0
  001d3	74 0a		 je	 SHORT $LN21@get_defaul
  001d5	8b 45 f4	 mov	 eax, DWORD PTR _weapon$[ebp]
  001d8	8b 08		 mov	 ecx, DWORD PTR [eax]
  001da	89 4d 98	 mov	 DWORD PTR tv169[ebp], ecx
  001dd	eb 21		 jmp	 SHORT $LN22@get_defaul
$LN21@get_defaul:
  001df	8b 15 00 00 00
	00		 mov	 edx, DWORD PTR ?__LINE__Var@?0??get_default_missile_flight_time@@YGMXZ@4JA
  001e5	83 c2 28	 add	 edx, 40			; 00000028H
  001e8	52		 push	 edx
  001e9	68 00 00 00 00	 push	 OFFSET ??_C@_0EP@JJOFDEIA@c?3?2users?2nhv90?2projects?2eech?2ap@
  001ee	a1 00 00 00 00	 mov	 eax, DWORD PTR ?null_entity_pointer_message@@3PBDB ; null_entity_pointer_message
  001f3	50		 push	 eax
  001f4	e8 00 00 00 00	 call	 ?process_assert@@YGXPBD0H@Z ; process_assert
  001f9	c7 45 98 00 00
	00 00		 mov	 DWORD PTR tv169[ebp], 0
$LN22@get_defaul:
  00200	b9 01 00 00 00	 mov	 ecx, 1
  00205	85 c9		 test	 ecx, ecx
  00207	74 09		 je	 SHORT $LN23@get_defaul
  00209	c7 45 94 08 00
	00 00		 mov	 DWORD PTR tv177[ebp], 8
  00210	eb 21		 jmp	 SHORT $LN24@get_defaul
$LN23@get_defaul:
  00212	8b 15 00 00 00
	00		 mov	 edx, DWORD PTR ?__LINE__Var@?0??get_default_missile_flight_time@@YGMXZ@4JA
  00218	83 c2 28	 add	 edx, 40			; 00000028H
  0021b	52		 push	 edx
  0021c	68 00 00 00 00	 push	 OFFSET ??_C@_0EP@JJOFDEIA@c?3?2users?2nhv90?2projects?2eech?2ap@
  00221	a1 00 00 00 00	 mov	 eax, DWORD PTR ?overload_invalid_vec3d_type_message@@3PBDB ; overload_invalid_vec3d_type_message
  00226	50		 push	 eax
  00227	e8 00 00 00 00	 call	 ?process_assert@@YGXPBD0H@Z ; process_assert
  0022c	c7 45 94 00 00
	00 00		 mov	 DWORD PTR tv177[ebp], 0
$LN24@get_defaul:
  00233	6a 08		 push	 8
  00235	8b 4d f4	 mov	 ecx, DWORD PTR _weapon$[ebp]
  00238	51		 push	 ecx
  00239	6b 55 98 60	 imul	 edx, DWORD PTR tv169[ebp], 96
  0023d	8b 45 94	 mov	 eax, DWORD PTR tv177[ebp]
  00240	8b 8c 82 00 00
	00 00		 mov	 ecx, DWORD PTR ?fn_get_local_entity_vec3d_ptr@@3PAY0BI@P6GPAUVEC3D@@PAUENTITY@@W4VEC3D_TYPES@@@ZA[edx+eax*4]
  00247	ff d1		 call	 ecx
  00249	89 45 ec	 mov	 DWORD PTR _weapon_position$[ebp], eax

; 626  : 
; 627  : 				target_position = get_local_entity_vec3d_ptr (target, VEC3D_TYPE_POSITION);

  0024c	83 7d f0 00	 cmp	 DWORD PTR _target$[ebp], 0
  00250	74 0a		 je	 SHORT $LN25@get_defaul
  00252	8b 45 f0	 mov	 eax, DWORD PTR _target$[ebp]
  00255	8b 08		 mov	 ecx, DWORD PTR [eax]
  00257	89 4d 98	 mov	 DWORD PTR tv189[ebp], ecx
  0025a	eb 21		 jmp	 SHORT $LN26@get_defaul
$LN25@get_defaul:
  0025c	8b 15 00 00 00
	00		 mov	 edx, DWORD PTR ?__LINE__Var@?0??get_default_missile_flight_time@@YGMXZ@4JA
  00262	83 c2 2a	 add	 edx, 42			; 0000002aH
  00265	52		 push	 edx
  00266	68 00 00 00 00	 push	 OFFSET ??_C@_0EP@JJOFDEIA@c?3?2users?2nhv90?2projects?2eech?2ap@
  0026b	a1 00 00 00 00	 mov	 eax, DWORD PTR ?null_entity_pointer_message@@3PBDB ; null_entity_pointer_message
  00270	50		 push	 eax
  00271	e8 00 00 00 00	 call	 ?process_assert@@YGXPBD0H@Z ; process_assert
  00276	c7 45 98 00 00
	00 00		 mov	 DWORD PTR tv189[ebp], 0
$LN26@get_defaul:
  0027d	b9 01 00 00 00	 mov	 ecx, 1
  00282	85 c9		 test	 ecx, ecx
  00284	74 09		 je	 SHORT $LN27@get_defaul
  00286	c7 45 94 08 00
	00 00		 mov	 DWORD PTR tv197[ebp], 8
  0028d	eb 21		 jmp	 SHORT $LN28@get_defaul
$LN27@get_defaul:
  0028f	8b 15 00 00 00
	00		 mov	 edx, DWORD PTR ?__LINE__Var@?0??get_default_missile_flight_time@@YGMXZ@4JA
  00295	83 c2 2a	 add	 edx, 42			; 0000002aH
  00298	52		 push	 edx
  00299	68 00 00 00 00	 push	 OFFSET ??_C@_0EP@JJOFDEIA@c?3?2users?2nhv90?2projects?2eech?2ap@
  0029e	a1 00 00 00 00	 mov	 eax, DWORD PTR ?overload_invalid_vec3d_type_message@@3PBDB ; overload_invalid_vec3d_type_message
  002a3	50		 push	 eax
  002a4	e8 00 00 00 00	 call	 ?process_assert@@YGXPBD0H@Z ; process_assert
  002a9	c7 45 94 00 00
	00 00		 mov	 DWORD PTR tv197[ebp], 0
$LN28@get_defaul:
  002b0	6a 08		 push	 8
  002b2	8b 4d f0	 mov	 ecx, DWORD PTR _target$[ebp]
  002b5	51		 push	 ecx
  002b6	6b 55 98 60	 imul	 edx, DWORD PTR tv189[ebp], 96
  002ba	8b 45 94	 mov	 eax, DWORD PTR tv197[ebp]
  002bd	8b 8c 82 00 00
	00 00		 mov	 ecx, DWORD PTR ?fn_get_local_entity_vec3d_ptr@@3PAY0BI@P6GPAUVEC3D@@PAUENTITY@@W4VEC3D_TYPES@@@ZA[edx+eax*4]
  002c4	ff d1		 call	 ecx
  002c6	89 45 e8	 mov	 DWORD PTR _target_position$[ebp], eax

; 628  : 
; 629  : 				target_range = get_3d_range (weapon_position, target_position);

  002c9	8b 45 e8	 mov	 eax, DWORD PTR _target_position$[ebp]
  002cc	50		 push	 eax
  002cd	8b 4d ec	 mov	 ecx, DWORD PTR _weapon_position$[ebp]
  002d0	51		 push	 ecx
  002d1	e8 00 00 00 00	 call	 ?get_3d_range@@YGMPBUVEC3D@@0@Z ; get_3d_range
  002d6	d9 5d dc	 fstp	 DWORD PTR _target_range$[ebp]

; 630  : 
; 631  : 				weapon_velocity = get_local_entity_float_value (weapon, FLOAT_TYPE_VELOCITY);

  002d9	83 7d f4 00	 cmp	 DWORD PTR _weapon$[ebp], 0
  002dd	74 0a		 je	 SHORT $LN29@get_defaul
  002df	8b 45 f4	 mov	 eax, DWORD PTR _weapon$[ebp]
  002e2	8b 08		 mov	 ecx, DWORD PTR [eax]
  002e4	89 4d 98	 mov	 DWORD PTR tv212[ebp], ecx
  002e7	eb 21		 jmp	 SHORT $LN30@get_defaul
$LN29@get_defaul:
  002e9	8b 15 00 00 00
	00		 mov	 edx, DWORD PTR ?__LINE__Var@?0??get_default_missile_flight_time@@YGMXZ@4JA
  002ef	83 c2 2e	 add	 edx, 46			; 0000002eH
  002f2	52		 push	 edx
  002f3	68 00 00 00 00	 push	 OFFSET ??_C@_0EP@JJOFDEIA@c?3?2users?2nhv90?2projects?2eech?2ap@
  002f8	a1 00 00 00 00	 mov	 eax, DWORD PTR ?null_entity_pointer_message@@3PBDB ; null_entity_pointer_message
  002fd	50		 push	 eax
  002fe	e8 00 00 00 00	 call	 ?process_assert@@YGXPBD0H@Z ; process_assert
  00303	c7 45 98 00 00
	00 00		 mov	 DWORD PTR tv212[ebp], 0
$LN30@get_defaul:
  0030a	b9 01 00 00 00	 mov	 ecx, 1
  0030f	85 c9		 test	 ecx, ecx
  00311	74 09		 je	 SHORT $LN31@get_defaul
  00313	c7 45 94 93 00
	00 00		 mov	 DWORD PTR tv220[ebp], 147 ; 00000093H
  0031a	eb 21		 jmp	 SHORT $LN32@get_defaul
$LN31@get_defaul:
  0031c	8b 15 00 00 00
	00		 mov	 edx, DWORD PTR ?__LINE__Var@?0??get_default_missile_flight_time@@YGMXZ@4JA
  00322	83 c2 2e	 add	 edx, 46			; 0000002eH
  00325	52		 push	 edx
  00326	68 00 00 00 00	 push	 OFFSET ??_C@_0EP@JJOFDEIA@c?3?2users?2nhv90?2projects?2eech?2ap@
  0032b	a1 00 00 00 00	 mov	 eax, DWORD PTR ?overload_invalid_float_type_message@@3PBDB ; overload_invalid_float_type_message
  00330	50		 push	 eax
  00331	e8 00 00 00 00	 call	 ?process_assert@@YGXPBD0H@Z ; process_assert
  00336	c7 45 94 00 00
	00 00		 mov	 DWORD PTR tv220[ebp], 0
$LN32@get_defaul:
  0033d	68 93 00 00 00	 push	 147			; 00000093H
  00342	8b 4d f4	 mov	 ecx, DWORD PTR _weapon$[ebp]
  00345	51		 push	 ecx
  00346	69 55 98 bc 02
	00 00		 imul	 edx, DWORD PTR tv212[ebp], 700
  0034d	8b 45 94	 mov	 eax, DWORD PTR tv220[ebp]
  00350	8b 8c 82 00 00
	00 00		 mov	 ecx, DWORD PTR ?fn_get_local_entity_float_value@@3PAY0KP@P6GMPAUENTITY@@W4FLOAT_TYPES@@@ZA[edx+eax*4]
  00357	ff d1		 call	 ecx
  00359	d9 5d e0	 fstp	 DWORD PTR _weapon_velocity$[ebp]

; 632  : 
; 633  : 				if (weapon_velocity > 0.0)

  0035c	f3 0f 5a 45 e0	 cvtss2sd xmm0, DWORD PTR _weapon_velocity$[ebp]
  00361	66 0f 2f 05 00
	00 00 00	 comisd	 xmm0, QWORD PTR __real@0000000000000000
  00369	76 14		 jbe	 SHORT $LN7@get_defaul

; 634  : 				{
; 635  : 					flight_time = target_range / weapon_velocity;

  0036b	f3 0f 10 45 dc	 movss	 xmm0, DWORD PTR _target_range$[ebp]
  00370	f3 0f 5e 45 e0	 divss	 xmm0, DWORD PTR _weapon_velocity$[ebp]
  00375	f3 0f 11 45 e4	 movss	 DWORD PTR _flight_time$[ebp], xmm0

; 636  : 
; 637  : 					break;

  0037a	e9 85 00 00 00	 jmp	 $LN3@get_defaul
$LN7@get_defaul:

; 638  : 				}
; 639  : 			}
; 640  : 		}
; 641  : 
; 642  : 		weapon = get_local_entity_child_succ (weapon, LIST_TYPE_LAUNCHED_WEAPON);

  0037f	83 7d f4 00	 cmp	 DWORD PTR _weapon$[ebp], 0
  00383	74 0a		 je	 SHORT $LN33@get_defaul
  00385	8b 45 f4	 mov	 eax, DWORD PTR _weapon$[ebp]
  00388	8b 08		 mov	 ecx, DWORD PTR [eax]
  0038a	89 4d 98	 mov	 DWORD PTR tv235[ebp], ecx
  0038d	eb 21		 jmp	 SHORT $LN34@get_defaul
$LN33@get_defaul:
  0038f	8b 15 00 00 00
	00		 mov	 edx, DWORD PTR ?__LINE__Var@?0??get_default_missile_flight_time@@YGMXZ@4JA
  00395	83 c2 39	 add	 edx, 57			; 00000039H
  00398	52		 push	 edx
  00399	68 00 00 00 00	 push	 OFFSET ??_C@_0EP@JJOFDEIA@c?3?2users?2nhv90?2projects?2eech?2ap@
  0039e	a1 00 00 00 00	 mov	 eax, DWORD PTR ?null_entity_pointer_message@@3PBDB ; null_entity_pointer_message
  003a3	50		 push	 eax
  003a4	e8 00 00 00 00	 call	 ?process_assert@@YGXPBD0H@Z ; process_assert
  003a9	c7 45 98 00 00
	00 00		 mov	 DWORD PTR tv235[ebp], 0
$LN34@get_defaul:
  003b0	b9 01 00 00 00	 mov	 ecx, 1
  003b5	85 c9		 test	 ecx, ecx
  003b7	74 09		 je	 SHORT $LN35@get_defaul
  003b9	c7 45 94 18 00
	00 00		 mov	 DWORD PTR tv243[ebp], 24 ; 00000018H
  003c0	eb 21		 jmp	 SHORT $LN36@get_defaul
$LN35@get_defaul:
  003c2	8b 15 00 00 00
	00		 mov	 edx, DWORD PTR ?__LINE__Var@?0??get_default_missile_flight_time@@YGMXZ@4JA
  003c8	83 c2 39	 add	 edx, 57			; 00000039H
  003cb	52		 push	 edx
  003cc	68 00 00 00 00	 push	 OFFSET ??_C@_0EP@JJOFDEIA@c?3?2users?2nhv90?2projects?2eech?2ap@
  003d1	a1 00 00 00 00	 mov	 eax, DWORD PTR ?overload_invalid_list_type_message@@3PBDB ; overload_invalid_list_type_message
  003d6	50		 push	 eax
  003d7	e8 00 00 00 00	 call	 ?process_assert@@YGXPBD0H@Z ; process_assert
  003dc	c7 45 94 00 00
	00 00		 mov	 DWORD PTR tv243[ebp], 0
$LN36@get_defaul:
  003e3	6a 18		 push	 24			; 00000018H
  003e5	8b 4d f4	 mov	 ecx, DWORD PTR _weapon$[ebp]
  003e8	51		 push	 ecx
  003e9	69 55 98 b4 00
	00 00		 imul	 edx, DWORD PTR tv235[ebp], 180
  003f0	8b 45 94	 mov	 eax, DWORD PTR tv243[ebp]
  003f3	8b 8c 82 00 00
	00 00		 mov	 ecx, DWORD PTR ?fn_get_local_entity_child_succ@@3PAY0CN@P6GPAUENTITY@@PAU1@W4LIST_TYPES@@@ZA[edx+eax*4]
  003fa	ff d1		 call	 ecx
  003fc	89 45 f4	 mov	 DWORD PTR _weapon$[ebp], eax

; 643  : 	}

  003ff	e9 95 fc ff ff	 jmp	 $LN2@get_defaul
$LN3@get_defaul:

; 644  : 
; 645  : 	return (flight_time);

  00404	d9 45 e4	 fld	 DWORD PTR _flight_time$[ebp]

; 646  : }

  00407	5f		 pop	 edi
  00408	5e		 pop	 esi
  00409	5b		 pop	 ebx
  0040a	8b e5		 mov	 esp, ebp
  0040c	5d		 pop	 ebp
  0040d	c3		 ret	 0
?get_default_missile_flight_time@@YGMXZ ENDP		; get_default_missile_flight_time
_TEXT	ENDS
; Function compile flags: /Odtp /ZI
; File c:\users\nhv90\projects\eech\aphavoc\source\gunships\avionics\default\df_wpn.c
;	COMDAT ?update_default_weapon_systems@@YGXXZ
_TEXT	SEGMENT
tv356 = -96						; size = 8
tv348 = -96						; size = 8
tv340 = -96						; size = 8
tv332 = -96						; size = 8
tv280 = -96						; size = 4
tv243 = -96						; size = 4
tv187 = -96						; size = 4
tv78 = -96						; size = 4
tv273 = -92						; size = 4
tv235 = -92						; size = 4
tv180 = -92						; size = 4
tv160 = -92						; size = 4
tv84 = -92						; size = 4
tv70 = -92						; size = 4
$T1 = -88						; size = 4
$T2 = -84						; size = 4
_weapon_sub_type$ = -16					; size = 4
_target$ = -12						; size = 4
_en$ = -8						; size = 4
_inhibit_launch$ = -4					; size = 4
?update_default_weapon_systems@@YGXXZ PROC		; update_default_weapon_systems, COMDAT

; 254  : {

  00000	55		 push	 ebp
  00001	8b ec		 mov	 ebp, esp
  00003	83 ec 60	 sub	 esp, 96			; 00000060H
  00006	53		 push	 ebx
  00007	56		 push	 esi
  00008	57		 push	 edi

; 255  : 	int
; 256  : 		inhibit_launch;
; 257  : 
; 258  : 	entity
; 259  : 		*en,
; 260  : 		*target;
; 261  : 
; 262  : 	entity_sub_types
; 263  : 		weapon_sub_type;
; 264  : 
; 265  : 	en = get_gunship_entity ();

  00009	a1 00 00 00 00	 mov	 eax, DWORD PTR ?gunship_entity@@3PAUENTITY@@A ; gunship_entity
  0000e	89 45 f8	 mov	 DWORD PTR _en$[ebp], eax

; 266  : 
; 267  : 	weapon_sub_type = get_local_entity_int_value (en, INT_TYPE_SELECTED_WEAPON);

  00011	83 7d f8 00	 cmp	 DWORD PTR _en$[ebp], 0
  00015	74 0a		 je	 SHORT $LN43@update_def
  00017	8b 45 f8	 mov	 eax, DWORD PTR _en$[ebp]
  0001a	8b 08		 mov	 ecx, DWORD PTR [eax]
  0001c	89 4d a4	 mov	 DWORD PTR tv70[ebp], ecx
  0001f	eb 21		 jmp	 SHORT $LN44@update_def
$LN43@update_def:
  00021	8b 15 00 00 00
	00		 mov	 edx, DWORD PTR ?__LINE__Var@?0??update_default_weapon_systems@@YGXXZ@4JA
  00027	83 c2 0d	 add	 edx, 13			; 0000000dH
  0002a	52		 push	 edx
  0002b	68 00 00 00 00	 push	 OFFSET ??_C@_0EP@JJOFDEIA@c?3?2users?2nhv90?2projects?2eech?2ap@
  00030	a1 00 00 00 00	 mov	 eax, DWORD PTR ?null_entity_pointer_message@@3PBDB ; null_entity_pointer_message
  00035	50		 push	 eax
  00036	e8 00 00 00 00	 call	 ?process_assert@@YGXPBD0H@Z ; process_assert
  0003b	c7 45 a4 00 00
	00 00		 mov	 DWORD PTR tv70[ebp], 0
$LN44@update_def:
  00042	b9 01 00 00 00	 mov	 ecx, 1
  00047	85 c9		 test	 ecx, ecx
  00049	74 09		 je	 SHORT $LN45@update_def
  0004b	c7 45 a0 b8 00
	00 00		 mov	 DWORD PTR tv78[ebp], 184 ; 000000b8H
  00052	eb 21		 jmp	 SHORT $LN46@update_def
$LN45@update_def:
  00054	8b 15 00 00 00
	00		 mov	 edx, DWORD PTR ?__LINE__Var@?0??update_default_weapon_systems@@YGXXZ@4JA
  0005a	83 c2 0d	 add	 edx, 13			; 0000000dH
  0005d	52		 push	 edx
  0005e	68 00 00 00 00	 push	 OFFSET ??_C@_0EP@JJOFDEIA@c?3?2users?2nhv90?2projects?2eech?2ap@
  00063	a1 00 00 00 00	 mov	 eax, DWORD PTR ?overload_invalid_int_type_message@@3PBDB ; overload_invalid_int_type_message
  00068	50		 push	 eax
  00069	e8 00 00 00 00	 call	 ?process_assert@@YGXPBD0H@Z ; process_assert
  0006e	c7 45 a0 00 00
	00 00		 mov	 DWORD PTR tv78[ebp], 0
$LN46@update_def:
  00075	68 b8 00 00 00	 push	 184			; 000000b8H
  0007a	8b 4d f8	 mov	 ecx, DWORD PTR _en$[ebp]
  0007d	51		 push	 ecx
  0007e	69 55 a4 5c 04
	00 00		 imul	 edx, DWORD PTR tv70[ebp], 1116
  00085	8b 45 a0	 mov	 eax, DWORD PTR tv78[ebp]
  00088	8b 8c 82 00 00
	00 00		 mov	 ecx, DWORD PTR ?fn_get_local_entity_int_value@@3PAY0BBH@P6GHPAUENTITY@@W4INT_TYPES@@@ZA[edx+eax*4]
  0008f	ff d1		 call	 ecx
  00091	89 45 f0	 mov	 DWORD PTR _weapon_sub_type$[ebp], eax

; 268  : 
; 269  : 	////////////////////////////////////////
; 270  : 	//
; 271  : 	// Stinger/Igla lock tone
; 272  : 	//
; 273  : 	////////////////////////////////////////
; 274  : 
; 275  : 	switch (weapon_sub_type)

  00094	8b 45 f0	 mov	 eax, DWORD PTR _weapon_sub_type$[ebp]
  00097	89 45 a4	 mov	 DWORD PTR tv84[ebp], eax
  0009a	83 7d a4 24	 cmp	 DWORD PTR tv84[ebp], 36	; 00000024H
  0009e	7c 29		 jl	 SHORT $LN7@update_def
  000a0	83 7d a4 25	 cmp	 DWORD PTR tv84[ebp], 37	; 00000025H
  000a4	7e 08		 jle	 SHORT $LN6@update_def
  000a6	83 7d a4 27	 cmp	 DWORD PTR tv84[ebp], 39	; 00000027H
  000aa	74 02		 je	 SHORT $LN6@update_def
  000ac	eb 1b		 jmp	 SHORT $LN7@update_def
$LN6@update_def:

; 276  : 	{
; 277  : 	case ENTITY_SUB_TYPE_WEAPON_AIM92_STINGER:
; 278  : 	case ENTITY_SUB_TYPE_WEAPON_IGLA_V:
; 279  : 	case ENTITY_SUB_TYPE_WEAPON_AIM9M_SIDEWINDER:
; 280  : 	 if (weapon_lock_type == WEAPON_LOCK_VALID)

  000ae	83 3d 00 00 00
	00 09		 cmp	 DWORD PTR ?weapon_lock_type@@3W4WEAPON_LOCK_TYPES@@A, 9 ; weapon_lock_type
  000b5	75 12		 jne	 SHORT $LN7@update_def

; 281  : 	{
; 282  : 		resume_local_entity_sound_type (en, ENTITY_SUB_TYPE_EFFECT_SOUND_LOCK_ON_TONE);

  000b7	6a 18		 push	 24			; 00000018H
  000b9	8b 45 f8	 mov	 eax, DWORD PTR _en$[ebp]
  000bc	50		 push	 eax
  000bd	e8 00 00 00 00	 call	 ?resume_local_entity_sound_type@@YGHPAUENTITY@@H@Z ; resume_local_entity_sound_type

; 283  : 
; 284  : 		update_good_tone ();

  000c2	e8 00 00 00 00	 call	 ?update_good_tone@@YGXXZ ; update_good_tone

; 285  : 		break;

  000c7	eb 1e		 jmp	 SHORT $LN2@update_def
$LN7@update_def:

; 286  : 	}
; 287  : 	default:
; 288  : 	{
; 289  : 		pause_local_entity_sound_type (en, ENTITY_SUB_TYPE_EFFECT_SOUND_LOCK_ON_TONE, 0.5);

  000c9	51		 push	 ecx
  000ca	f3 0f 10 05 00
	00 00 00	 movss	 xmm0, DWORD PTR __real@3f000000
  000d2	f3 0f 11 04 24	 movss	 DWORD PTR [esp], xmm0
  000d7	6a 18		 push	 24			; 00000018H
  000d9	8b 45 f8	 mov	 eax, DWORD PTR _en$[ebp]
  000dc	50		 push	 eax
  000dd	e8 00 00 00 00	 call	 ?pause_local_entity_sound_type@@YGHPAUENTITY@@HM@Z ; pause_local_entity_sound_type

; 290  : 
; 291  : 		reset_good_tone ();

  000e2	e8 00 00 00 00	 call	 ?reset_good_tone@@YGXXZ	; reset_good_tone
$LN2@update_def:

; 292  : 	}
; 293  : 	}
; 294  : 
; 295  : 	
; 296  : 	////////////////////////////////////////
; 297  : 	//
; 298  : 	// Stinger seeker head position
; 299  : 	//
; 300  : 	////////////////////////////////////////
; 301  : 
; 302  : 	default_stinger_seeker_head_x_position = 0.25 * sin (seeker_head_theta1);

  000e7	51		 push	 ecx
  000e8	f3 0f 10 05 00
	00 00 00	 movss	 xmm0, DWORD PTR ?seeker_head_theta1@@3MA
  000f0	f3 0f 11 04 24	 movss	 DWORD PTR [esp], xmm0
  000f5	e8 00 00 00 00	 call	 ?sin@@YGMM@Z		; sin
  000fa	dd 5d a0	 fstp	 QWORD PTR tv332[ebp]
  000fd	f2 0f 10 45 a0	 movsd	 xmm0, QWORD PTR tv332[ebp]
  00102	f2 0f 59 05 00
	00 00 00	 mulsd	 xmm0, QWORD PTR __real@3fd0000000000000
  0010a	f2 0f 5a c0	 cvtsd2ss xmm0, xmm0
  0010e	f3 0f 11 05 00
	00 00 00	 movss	 DWORD PTR ?default_stinger_seeker_head_x_position@@3MA, xmm0

; 303  : 	default_stinger_seeker_head_y_position = 0.25 * cos (seeker_head_theta1);

  00116	51		 push	 ecx
  00117	f3 0f 10 05 00
	00 00 00	 movss	 xmm0, DWORD PTR ?seeker_head_theta1@@3MA
  0011f	f3 0f 11 04 24	 movss	 DWORD PTR [esp], xmm0
  00124	e8 00 00 00 00	 call	 ?cos@@YGMM@Z		; cos
  00129	dd 5d a0	 fstp	 QWORD PTR tv340[ebp]
  0012c	f2 0f 10 45 a0	 movsd	 xmm0, QWORD PTR tv340[ebp]
  00131	f2 0f 59 05 00
	00 00 00	 mulsd	 xmm0, QWORD PTR __real@3fd0000000000000
  00139	f2 0f 5a c0	 cvtsd2ss xmm0, xmm0
  0013d	f3 0f 11 05 00
	00 00 00	 movss	 DWORD PTR ?default_stinger_seeker_head_y_position@@3MA, xmm0

; 304  : 
; 305  : 	default_stinger_seeker_head_x_position += 0.125 * sin (seeker_head_theta2);

  00145	51		 push	 ecx
  00146	f3 0f 10 05 00
	00 00 00	 movss	 xmm0, DWORD PTR ?seeker_head_theta2@@3MA
  0014e	f3 0f 11 04 24	 movss	 DWORD PTR [esp], xmm0
  00153	e8 00 00 00 00	 call	 ?sin@@YGMM@Z		; sin
  00158	dd 5d a0	 fstp	 QWORD PTR tv348[ebp]
  0015b	f2 0f 10 45 a0	 movsd	 xmm0, QWORD PTR tv348[ebp]
  00160	f2 0f 59 05 00
	00 00 00	 mulsd	 xmm0, QWORD PTR __real@3fc0000000000000
  00168	f3 0f 5a 0d 00
	00 00 00	 cvtss2sd xmm1, DWORD PTR ?default_stinger_seeker_head_x_position@@3MA
  00170	f2 0f 58 c8	 addsd	 xmm1, xmm0
  00174	f2 0f 5a c1	 cvtsd2ss xmm0, xmm1
  00178	f3 0f 11 05 00
	00 00 00	 movss	 DWORD PTR ?default_stinger_seeker_head_x_position@@3MA, xmm0

; 306  : 	default_stinger_seeker_head_y_position += 0.125 * cos (seeker_head_theta2);

  00180	51		 push	 ecx
  00181	f3 0f 10 05 00
	00 00 00	 movss	 xmm0, DWORD PTR ?seeker_head_theta2@@3MA
  00189	f3 0f 11 04 24	 movss	 DWORD PTR [esp], xmm0
  0018e	e8 00 00 00 00	 call	 ?cos@@YGMM@Z		; cos
  00193	dd 5d a0	 fstp	 QWORD PTR tv356[ebp]
  00196	f2 0f 10 45 a0	 movsd	 xmm0, QWORD PTR tv356[ebp]
  0019b	f2 0f 59 05 00
	00 00 00	 mulsd	 xmm0, QWORD PTR __real@3fc0000000000000
  001a3	f3 0f 5a 0d 00
	00 00 00	 cvtss2sd xmm1, DWORD PTR ?default_stinger_seeker_head_y_position@@3MA
  001ab	f2 0f 58 c8	 addsd	 xmm1, xmm0
  001af	f2 0f 5a c1	 cvtsd2ss xmm0, xmm1
  001b3	f3 0f 11 05 00
	00 00 00	 movss	 DWORD PTR ?default_stinger_seeker_head_y_position@@3MA, xmm0

; 307  : 
; 308  : 	seeker_head_theta1 += rad (120.0) * get_delta_time ();

  001bb	f3 0f 5a 05 00
	00 00 00	 cvtss2sd xmm0, DWORD PTR ?system_delta_time@@3MA
  001c3	f2 0f 59 05 00
	00 00 00	 mulsd	 xmm0, QWORD PTR __real@4000c15236000000
  001cb	f3 0f 5a 0d 00
	00 00 00	 cvtss2sd xmm1, DWORD PTR ?seeker_head_theta1@@3MA
  001d3	f2 0f 58 c8	 addsd	 xmm1, xmm0
  001d7	f2 0f 5a c1	 cvtsd2ss xmm0, xmm1
  001db	f3 0f 11 05 00
	00 00 00	 movss	 DWORD PTR ?seeker_head_theta1@@3MA, xmm0

; 309  : 	seeker_head_theta2 -= rad (180.0) * get_delta_time ();

  001e3	f3 0f 5a 05 00
	00 00 00	 cvtss2sd xmm0, DWORD PTR ?system_delta_time@@3MA
  001eb	f2 0f 59 05 00
	00 00 00	 mulsd	 xmm0, QWORD PTR __real@400921fb51000000
  001f3	f3 0f 5a 0d 00
	00 00 00	 cvtss2sd xmm1, DWORD PTR ?seeker_head_theta2@@3MA
  001fb	f2 0f 5c c8	 subsd	 xmm1, xmm0
  001ff	f2 0f 5a c1	 cvtsd2ss xmm0, xmm1
  00203	f3 0f 11 05 00
	00 00 00	 movss	 DWORD PTR ?seeker_head_theta2@@3MA, xmm0

; 310  : 
; 311  : 	////////////////////////////////////////
; 312  : 	//
; 313  : 	// weapon launch interlocks
; 314  : 	//
; 315  : 	////////////////////////////////////////
; 316  : 
; 317  : 	inhibit_launch = FALSE;

  0020b	c7 45 fc 00 00
	00 00		 mov	 DWORD PTR _inhibit_launch$[ebp], 0

; 318  : 
; 319  : 	switch (weapon_sub_type)

  00212	8b 45 f0	 mov	 eax, DWORD PTR _weapon_sub_type$[ebp]
  00215	89 45 a4	 mov	 DWORD PTR tv160[ebp], eax
  00218	8b 4d a4	 mov	 ecx, DWORD PTR tv160[ebp]
  0021b	83 e9 01	 sub	 ecx, 1
  0021e	89 4d a4	 mov	 DWORD PTR tv160[ebp], ecx
  00221	83 7d a4 32	 cmp	 DWORD PTR tv160[ebp], 50 ; 00000032H
  00225	0f 87 7b 01 00
	00		 ja	 $LN4@update_def
  0022b	8b 55 a4	 mov	 edx, DWORD PTR tv160[ebp]
  0022e	0f b6 82 00 00
	00 00		 movzx	 eax, BYTE PTR $LN59@update_def[edx]
  00235	ff 24 85 00 00
	00 00		 jmp	 DWORD PTR $LN60@update_def[eax*4]
$LN9@update_def:

; 320  : 	{
; 321  : 		////////////////////////////////////////
; 322  : 		case ENTITY_SUB_TYPE_WEAPON_M230_30MM_ROUND:
; 323  : 		case ENTITY_SUB_TYPE_WEAPON_HYDRA70_M255:
; 324  : 		case ENTITY_SUB_TYPE_WEAPON_HYDRA70_M261:
; 325  : 		case ENTITY_SUB_TYPE_WEAPON_2A42_30MM_HE_ROUND:
; 326  : 		case ENTITY_SUB_TYPE_WEAPON_2A42_30MM_AP_ROUND:
; 327  : 		case ENTITY_SUB_TYPE_WEAPON_M2_12P7MM_ROUND:
; 328  : 		case ENTITY_SUB_TYPE_WEAPON_S5:
; 329  : 		case ENTITY_SUB_TYPE_WEAPON_S8:
; 330  : 		case ENTITY_SUB_TYPE_WEAPON_S13:
; 331  : 		case ENTITY_SUB_TYPE_WEAPON_GSH23L_23MM_ROUND:
; 332  : 		////////////////////////////////////////
; 333  : 		{
; 334  : 			if
; 335  : 			(
; 336  : 				//WEAPON_LOCK_NO_ACQUIRE
; 337  : 				(weapon_lock_type == WEAPON_LOCK_NO_WEAPON)

  0023c	83 3d 00 00 00
	00 01		 cmp	 DWORD PTR ?weapon_lock_type@@3W4WEAPON_LOCK_TYPES@@A, 1 ; weapon_lock_type
  00243	75 07		 jne	 SHORT $LN10@update_def

; 338  : 				//WEAPON_LOCK_NO_TARGET
; 339  : 				//WEAPON_LOCK_INVALID_TARGET
; 340  : 				//WEAPON_LOCK_SEEKER_LIMIT
; 341  : 				//WEAPON_LOCK_NO_LOS
; 342  : 				//WEAPON_LOCK_NO_BORESIGHT
; 343  : 				//WEAPON_LOCK_MIN_RANGE
; 344  : 				//WEAPON_LOCK_MAX_RANGE
; 345  : 				//WEAPON_LOCK_VALID
; 346  : 			)
; 347  : 			{
; 348  : 				inhibit_launch = TRUE;

  00245	c7 45 fc 01 00
	00 00		 mov	 DWORD PTR _inhibit_launch$[ebp], 1
$LN10@update_def:

; 349  : 			}
; 350  : 
; 351  : 			break;

  0024c	e9 55 01 00 00	 jmp	 $LN4@update_def
$LN11@update_def:

; 352  : 		}
; 353  : 		////////////////////////////////////////
; 354  : 		case ENTITY_SUB_TYPE_WEAPON_AIM92_STINGER:
; 355  : 		case ENTITY_SUB_TYPE_WEAPON_IGLA_V:
; 356  : 		case ENTITY_SUB_TYPE_WEAPON_AT6_SPIRAL:
; 357  : 		case ENTITY_SUB_TYPE_WEAPON_AIM9M_SIDEWINDER:
; 358  : 		////////////////////////////////////////
; 359  : 		{
; 360  : 			if
; 361  : 			(
; 362  : 				(weapon_lock_type == WEAPON_LOCK_NO_ACQUIRE) ||
; 363  : 				(weapon_lock_type == WEAPON_LOCK_NO_WEAPON) ||
; 364  : 				(weapon_lock_type == WEAPON_LOCK_NO_TARGET) ||
; 365  : 				(weapon_lock_type == WEAPON_LOCK_INVALID_TARGET) ||
; 366  : 				(weapon_lock_type == WEAPON_LOCK_SEEKER_LIMIT) ||
; 367  : 				(weapon_lock_type == WEAPON_LOCK_NO_LOS) ||

  00251	83 3d 00 00 00
	00 00		 cmp	 DWORD PTR ?weapon_lock_type@@3W4WEAPON_LOCK_TYPES@@A, 0 ; weapon_lock_type
  00258	74 36		 je	 SHORT $LN13@update_def
  0025a	83 3d 00 00 00
	00 01		 cmp	 DWORD PTR ?weapon_lock_type@@3W4WEAPON_LOCK_TYPES@@A, 1 ; weapon_lock_type
  00261	74 2d		 je	 SHORT $LN13@update_def
  00263	83 3d 00 00 00
	00 02		 cmp	 DWORD PTR ?weapon_lock_type@@3W4WEAPON_LOCK_TYPES@@A, 2 ; weapon_lock_type
  0026a	74 24		 je	 SHORT $LN13@update_def
  0026c	83 3d 00 00 00
	00 03		 cmp	 DWORD PTR ?weapon_lock_type@@3W4WEAPON_LOCK_TYPES@@A, 3 ; weapon_lock_type
  00273	74 1b		 je	 SHORT $LN13@update_def
  00275	83 3d 00 00 00
	00 04		 cmp	 DWORD PTR ?weapon_lock_type@@3W4WEAPON_LOCK_TYPES@@A, 4 ; weapon_lock_type
  0027c	74 12		 je	 SHORT $LN13@update_def
  0027e	83 3d 00 00 00
	00 05		 cmp	 DWORD PTR ?weapon_lock_type@@3W4WEAPON_LOCK_TYPES@@A, 5 ; weapon_lock_type
  00285	74 09		 je	 SHORT $LN13@update_def
  00287	83 3d 00 00 00
	00 08		 cmp	 DWORD PTR ?weapon_lock_type@@3W4WEAPON_LOCK_TYPES@@A, 8 ; weapon_lock_type
  0028e	75 07		 jne	 SHORT $LN12@update_def
$LN13@update_def:

; 368  : 				//WEAPON_LOCK_NO_BORESIGHT
; 369  : 				//WEAPON_LOCK_MIN_RANGE
; 370  : 				(weapon_lock_type == WEAPON_LOCK_MAX_RANGE)
; 371  : 				//WEAPON_LOCK_VALID
; 372  : 			)
; 373  : 			{
; 374  : 				inhibit_launch = TRUE;

  00290	c7 45 fc 01 00
	00 00		 mov	 DWORD PTR _inhibit_launch$[ebp], 1
$LN12@update_def:

; 375  : 			}
; 376  : 
; 377  : 			break;

  00297	e9 0a 01 00 00	 jmp	 $LN4@update_def
$LN14@update_def:

; 378  : 		}
; 379  : 		////////////////////////////////////////
; 380  : 		case ENTITY_SUB_TYPE_WEAPON_ATAKA:
; 381  : 		case ENTITY_SUB_TYPE_WEAPON_VIKHR:
; 382  : 		////////////////////////////////////////
; 383  : 		{
; 384  : 			if
; 385  : 			(
; 386  : 				(weapon_lock_type == WEAPON_LOCK_NO_ACQUIRE) ||
; 387  : 				(weapon_lock_type == WEAPON_LOCK_NO_WEAPON) ||
; 388  : 				(weapon_lock_type == WEAPON_LOCK_NO_TARGET) ||
; 389  : 				(weapon_lock_type == WEAPON_LOCK_INVALID_TARGET) ||
; 390  : 				(weapon_lock_type == WEAPON_LOCK_SEEKER_LIMIT) ||

  0029c	83 3d 00 00 00
	00 00		 cmp	 DWORD PTR ?weapon_lock_type@@3W4WEAPON_LOCK_TYPES@@A, 0 ; weapon_lock_type
  002a3	74 2d		 je	 SHORT $LN16@update_def
  002a5	83 3d 00 00 00
	00 01		 cmp	 DWORD PTR ?weapon_lock_type@@3W4WEAPON_LOCK_TYPES@@A, 1 ; weapon_lock_type
  002ac	74 24		 je	 SHORT $LN16@update_def
  002ae	83 3d 00 00 00
	00 02		 cmp	 DWORD PTR ?weapon_lock_type@@3W4WEAPON_LOCK_TYPES@@A, 2 ; weapon_lock_type
  002b5	74 1b		 je	 SHORT $LN16@update_def
  002b7	83 3d 00 00 00
	00 03		 cmp	 DWORD PTR ?weapon_lock_type@@3W4WEAPON_LOCK_TYPES@@A, 3 ; weapon_lock_type
  002be	74 12		 je	 SHORT $LN16@update_def
  002c0	83 3d 00 00 00
	00 04		 cmp	 DWORD PTR ?weapon_lock_type@@3W4WEAPON_LOCK_TYPES@@A, 4 ; weapon_lock_type
  002c7	74 09		 je	 SHORT $LN16@update_def
  002c9	83 3d 00 00 00
	00 08		 cmp	 DWORD PTR ?weapon_lock_type@@3W4WEAPON_LOCK_TYPES@@A, 8 ; weapon_lock_type
  002d0	75 07		 jne	 SHORT $LN15@update_def
$LN16@update_def:

; 391  : 				//WEAPON_LOCK_NO_LOS
; 392  : 				//WEAPON_LOCK_NO_BORESIGHT
; 393  : 				//WEAPON_LOCK_MIN_RANGE
; 394  : 				(weapon_lock_type == WEAPON_LOCK_MAX_RANGE)
; 395  : 				//WEAPON_LOCK_VALID
; 396  : 			)
; 397  : 			{
; 398  : 				inhibit_launch = TRUE;

  002d2	c7 45 fc 01 00
	00 00		 mov	 DWORD PTR _inhibit_launch$[ebp], 1
$LN15@update_def:

; 399  : 			}
; 400  : 
; 401  : 			break;

  002d9	e9 c8 00 00 00	 jmp	 $LN4@update_def
$LN17@update_def:

; 402  : 		}
; 403  : 		////////////////////////////////////////
; 404  : 		case ENTITY_SUB_TYPE_WEAPON_AGM114L_LONGBOW_HELLFIRE:
; 405  : 		case ENTITY_SUB_TYPE_WEAPON_AGM114K_HELLFIRE_II:
; 406  : 		////////////////////////////////////////
; 407  : 		{
; 408  : 			if (!get_local_entity_int_value (en, INT_TYPE_LOCK_ON_AFTER_LAUNCH))

  002de	83 7d f8 00	 cmp	 DWORD PTR _en$[ebp], 0
  002e2	74 0a		 je	 SHORT $LN47@update_def
  002e4	8b 45 f8	 mov	 eax, DWORD PTR _en$[ebp]
  002e7	8b 08		 mov	 ecx, DWORD PTR [eax]
  002e9	89 4d a4	 mov	 DWORD PTR tv180[ebp], ecx
  002ec	eb 1d		 jmp	 SHORT $LN48@update_def
$LN47@update_def:
  002ee	68 98 01 00 00	 push	 408			; 00000198H
  002f3	68 00 00 00 00	 push	 OFFSET ??_C@_0EP@JJOFDEIA@c?3?2users?2nhv90?2projects?2eech?2ap@
  002f8	8b 15 00 00 00
	00		 mov	 edx, DWORD PTR ?null_entity_pointer_message@@3PBDB ; null_entity_pointer_message
  002fe	52		 push	 edx
  002ff	e8 00 00 00 00	 call	 ?process_assert@@YGXPBD0H@Z ; process_assert
  00304	c7 45 a4 00 00
	00 00		 mov	 DWORD PTR tv180[ebp], 0
$LN48@update_def:
  0030b	b8 01 00 00 00	 mov	 eax, 1
  00310	85 c0		 test	 eax, eax
  00312	74 09		 je	 SHORT $LN49@update_def
  00314	c7 45 a0 7e 00
	00 00		 mov	 DWORD PTR tv187[ebp], 126 ; 0000007eH
  0031b	eb 1d		 jmp	 SHORT $LN50@update_def
$LN49@update_def:
  0031d	68 98 01 00 00	 push	 408			; 00000198H
  00322	68 00 00 00 00	 push	 OFFSET ??_C@_0EP@JJOFDEIA@c?3?2users?2nhv90?2projects?2eech?2ap@
  00327	8b 0d 00 00 00
	00		 mov	 ecx, DWORD PTR ?overload_invalid_int_type_message@@3PBDB ; overload_invalid_int_type_message
  0032d	51		 push	 ecx
  0032e	e8 00 00 00 00	 call	 ?process_assert@@YGXPBD0H@Z ; process_assert
  00333	c7 45 a0 00 00
	00 00		 mov	 DWORD PTR tv187[ebp], 0
$LN50@update_def:
  0033a	6a 7e		 push	 126			; 0000007eH
  0033c	8b 55 f8	 mov	 edx, DWORD PTR _en$[ebp]
  0033f	52		 push	 edx
  00340	69 45 a4 5c 04
	00 00		 imul	 eax, DWORD PTR tv180[ebp], 1116
  00347	8b 4d a0	 mov	 ecx, DWORD PTR tv187[ebp]
  0034a	8b 94 88 00 00
	00 00		 mov	 edx, DWORD PTR ?fn_get_local_entity_int_value@@3PAY0BBH@P6GHPAUENTITY@@W4INT_TYPES@@@ZA[eax+ecx*4]
  00351	ff d2		 call	 edx
  00353	85 c0		 test	 eax, eax
  00355	75 3f		 jne	 SHORT $LN18@update_def

; 409  : 			{
; 410  : 				if
; 411  : 				(
; 412  : 					(weapon_lock_type == WEAPON_LOCK_NO_ACQUIRE) ||
; 413  : 					(weapon_lock_type == WEAPON_LOCK_NO_WEAPON) ||
; 414  : 					(weapon_lock_type == WEAPON_LOCK_NO_TARGET) ||
; 415  : 					(weapon_lock_type == WEAPON_LOCK_INVALID_TARGET) ||
; 416  : 					(weapon_lock_type == WEAPON_LOCK_SEEKER_LIMIT) ||

  00357	83 3d 00 00 00
	00 00		 cmp	 DWORD PTR ?weapon_lock_type@@3W4WEAPON_LOCK_TYPES@@A, 0 ; weapon_lock_type
  0035e	74 2d		 je	 SHORT $LN21@update_def
  00360	83 3d 00 00 00
	00 01		 cmp	 DWORD PTR ?weapon_lock_type@@3W4WEAPON_LOCK_TYPES@@A, 1 ; weapon_lock_type
  00367	74 24		 je	 SHORT $LN21@update_def
  00369	83 3d 00 00 00
	00 02		 cmp	 DWORD PTR ?weapon_lock_type@@3W4WEAPON_LOCK_TYPES@@A, 2 ; weapon_lock_type
  00370	74 1b		 je	 SHORT $LN21@update_def
  00372	83 3d 00 00 00
	00 03		 cmp	 DWORD PTR ?weapon_lock_type@@3W4WEAPON_LOCK_TYPES@@A, 3 ; weapon_lock_type
  00379	74 12		 je	 SHORT $LN21@update_def
  0037b	83 3d 00 00 00
	00 04		 cmp	 DWORD PTR ?weapon_lock_type@@3W4WEAPON_LOCK_TYPES@@A, 4 ; weapon_lock_type
  00382	74 09		 je	 SHORT $LN21@update_def
  00384	83 3d 00 00 00
	00 08		 cmp	 DWORD PTR ?weapon_lock_type@@3W4WEAPON_LOCK_TYPES@@A, 8 ; weapon_lock_type
  0038b	75 07		 jne	 SHORT $LN20@update_def
$LN21@update_def:

; 417  : 					//WEAPON_LOCK_NO_LOS
; 418  : 					//WEAPON_LOCK_NO_BORESIGHT
; 419  : 					//WEAPON_LOCK_MIN_RANGE
; 420  : 					(weapon_lock_type == WEAPON_LOCK_MAX_RANGE)
; 421  : 					//WEAPON_LOCK_VALID
; 422  : 				)
; 423  : 				{
; 424  : 					inhibit_launch = TRUE;

  0038d	c7 45 fc 01 00
	00 00		 mov	 DWORD PTR _inhibit_launch$[ebp], 1
$LN20@update_def:

; 425  : 				}
; 426  : 			}
; 427  : 			else

  00394	eb 10		 jmp	 SHORT $LN22@update_def
$LN18@update_def:

; 428  : 			{
; 429  : 				if
; 430  : 				(
; 431  : 					//WEAPON_LOCK_NO_ACQUIRE
; 432  : 					(weapon_lock_type == WEAPON_LOCK_NO_WEAPON)

  00396	83 3d 00 00 00
	00 01		 cmp	 DWORD PTR ?weapon_lock_type@@3W4WEAPON_LOCK_TYPES@@A, 1 ; weapon_lock_type
  0039d	75 07		 jne	 SHORT $LN22@update_def

; 433  : 					//WEAPON_LOCK_NO_TARGET
; 434  : 					//WEAPON_LOCK_INVALID_TARGET
; 435  : 					//WEAPON_LOCK_SEEKER_LIMIT
; 436  : 					//WEAPON_LOCK_NO_LOS
; 437  : 					//WEAPON_LOCK_NO_BORESIGHT
; 438  : 					//WEAPON_LOCK_MIN_RANGE
; 439  : 					//WEAPON_LOCK_MAX_RANGE
; 440  : 					//WEAPON_LOCK_VALID
; 441  : 				)
; 442  : 				{
; 443  : 					inhibit_launch = TRUE;

  0039f	c7 45 fc 01 00
	00 00		 mov	 DWORD PTR _inhibit_launch$[ebp], 1
$LN22@update_def:
$LN4@update_def:

; 444  : 				}
; 445  : 			}
; 446  : 
; 447  : 			break;
; 448  : 		}
; 449  : 
; 450  : 	}
; 451  : 
; 452  : 	if (inhibit_launch)

  003a6	83 7d fc 00	 cmp	 DWORD PTR _inhibit_launch$[ebp], 0
  003aa	74 2d		 je	 SHORT $LN23@update_def

; 453  : 	{
; 454  : 		if (fire_single_weapon)

  003ac	83 3d 00 00 00
	00 00		 cmp	 DWORD PTR ?fire_single_weapon@@3HA, 0 ; fire_single_weapon
  003b3	74 0b		 je	 SHORT $LN24@update_def

; 455  : 		{
; 456  : 			play_common_cpg_failed_launch_speech (weapon_lock_type);

  003b5	a1 00 00 00 00	 mov	 eax, DWORD PTR ?weapon_lock_type@@3W4WEAPON_LOCK_TYPES@@A ; weapon_lock_type
  003ba	50		 push	 eax
  003bb	e8 00 00 00 00	 call	 ?play_common_cpg_failed_launch_speech@@YGXW4WEAPON_LOCK_TYPES@@@Z ; play_common_cpg_failed_launch_speech
$LN24@update_def:

; 457  : 		}
; 458  : 
; 459  : 		rocket_salvo_count = 0;

  003c0	c7 05 00 00 00
	00 00 00 00 00	 mov	 DWORD PTR ?rocket_salvo_count@@3HA, 0 ; rocket_salvo_count

; 460  : 
; 461  : 		fire_single_weapon = 0;

  003ca	c7 05 00 00 00
	00 00 00 00 00	 mov	 DWORD PTR ?fire_single_weapon@@3HA, 0 ; fire_single_weapon

; 462  : 
; 463  : 		return;

  003d4	e9 14 03 00 00	 jmp	 $LN1@update_def
$LN23@update_def:

; 464  : 	}
; 465  : 
; 466  : 	//
; 467  : 	// ensure that there is a selected weapon
; 468  : 	//
; 469  : 
; 470  : 	if (weapon_sub_type == ENTITY_SUB_TYPE_WEAPON_NO_WEAPON)

  003d9	83 7d f0 00	 cmp	 DWORD PTR _weapon_sub_type$[ebp], 0
  003dd	75 5b		 jne	 SHORT $LN25@update_def

; 471  : 	{
; 472  : 		if (fire_single_weapon)

  003df	83 3d 00 00 00
	00 00		 cmp	 DWORD PTR ?fire_single_weapon@@3HA, 0 ; fire_single_weapon
  003e6	74 39		 je	 SHORT $LN26@update_def

; 473  : 		{
; 474  : 			play_client_server_cpg_message (get_gunship_entity (), 0.5, 1.0, SPEECH_CATEGORY_CPG_SYSTEMS, 1.0, SPEECH_CPG_NO_WEAPON);

  003e8	6a 50		 push	 80			; 00000050H
  003ea	51		 push	 ecx
  003eb	f3 0f 10 05 00
	00 00 00	 movss	 xmm0, DWORD PTR __real@3f800000
  003f3	f3 0f 11 04 24	 movss	 DWORD PTR [esp], xmm0
  003f8	6a 04		 push	 4
  003fa	51		 push	 ecx
  003fb	f3 0f 10 05 00
	00 00 00	 movss	 xmm0, DWORD PTR __real@3f800000
  00403	f3 0f 11 04 24	 movss	 DWORD PTR [esp], xmm0
  00408	51		 push	 ecx
  00409	f3 0f 10 05 00
	00 00 00	 movss	 xmm0, DWORD PTR __real@3f000000
  00411	f3 0f 11 04 24	 movss	 DWORD PTR [esp], xmm0
  00416	a1 00 00 00 00	 mov	 eax, DWORD PTR ?gunship_entity@@3PAUENTITY@@A ; gunship_entity
  0041b	50		 push	 eax
  0041c	e8 00 00 00 00	 call	 ?play_client_server_cpg_message@@YGHPAUENTITY@@MMHMH@Z ; play_client_server_cpg_message
$LN26@update_def:

; 475  : 		}
; 476  : 
; 477  : 		rocket_salvo_count = 0;

  00421	c7 05 00 00 00
	00 00 00 00 00	 mov	 DWORD PTR ?rocket_salvo_count@@3HA, 0 ; rocket_salvo_count

; 478  : 
; 479  : 		fire_single_weapon = 0;

  0042b	c7 05 00 00 00
	00 00 00 00 00	 mov	 DWORD PTR ?fire_single_weapon@@3HA, 0 ; fire_single_weapon

; 480  : 
; 481  : 		return;

  00435	e9 b3 02 00 00	 jmp	 $LN1@update_def
$LN25@update_def:

; 482  : 	}
; 483  : 
; 484  : 	////////////////////////////////////////
; 485  : 	//
; 486  : 	// rocket salvo
; 487  : 	//
; 488  : 	////////////////////////////////////////
; 489  : 
; 490  : 	if ((weapon_sub_type == ENTITY_SUB_TYPE_WEAPON_HYDRA70_M255) || (weapon_sub_type == ENTITY_SUB_TYPE_WEAPON_HYDRA70_M261) ||
; 491  : 					 weapon_sub_type == ENTITY_SUB_TYPE_WEAPON_S5 ||
; 492  : 					 weapon_sub_type == ENTITY_SUB_TYPE_WEAPON_S8 ||

  0043a	83 7d f0 1e	 cmp	 DWORD PTR _weapon_sub_type$[ebp], 30 ; 0000001eH
  0043e	74 18		 je	 SHORT $LN29@update_def
  00440	83 7d f0 1f	 cmp	 DWORD PTR _weapon_sub_type$[ebp], 31 ; 0000001fH
  00444	74 12		 je	 SHORT $LN29@update_def
  00446	83 7d f0 21	 cmp	 DWORD PTR _weapon_sub_type$[ebp], 33 ; 00000021H
  0044a	74 0c		 je	 SHORT $LN29@update_def
  0044c	83 7d f0 22	 cmp	 DWORD PTR _weapon_sub_type$[ebp], 34 ; 00000022H
  00450	74 06		 je	 SHORT $LN29@update_def
  00452	83 7d f0 23	 cmp	 DWORD PTR _weapon_sub_type$[ebp], 35 ; 00000023H
  00456	75 6e		 jne	 SHORT $LN27@update_def
$LN29@update_def:

; 493  : 					 weapon_sub_type == ENTITY_SUB_TYPE_WEAPON_S13)
; 494  : 	{
; 495  : 		if (fire_single_weapon)

  00458	83 3d 00 00 00
	00 00		 cmp	 DWORD PTR ?fire_single_weapon@@3HA, 0 ; fire_single_weapon
  0045f	74 10		 je	 SHORT $LN30@update_def

; 496  : 		{
; 497  : 			rocket_salvo_count += rocket_salvo_size;

  00461	a1 00 00 00 00	 mov	 eax, DWORD PTR ?rocket_salvo_count@@3HA ; rocket_salvo_count
  00466	03 05 00 00 00
	00		 add	 eax, DWORD PTR ?rocket_salvo_size@@3HA ; rocket_salvo_size
  0046c	a3 00 00 00 00	 mov	 DWORD PTR ?rocket_salvo_count@@3HA, eax ; rocket_salvo_count
$LN30@update_def:

; 498  : 		}
; 499  : 
; 500  : 		if (rocket_salvo_count)

  00471	83 3d 00 00 00
	00 00		 cmp	 DWORD PTR ?rocket_salvo_count@@3HA, 0 ; rocket_salvo_count
  00478	74 4a		 je	 SHORT $LN31@update_def

; 501  : 		{
; 502  : 			fire_single_weapon = min (rocket_salvo_count, 2);

  0047a	c7 45 ac 02 00
	00 00		 mov	 DWORD PTR $T2[ebp], 2
  00481	8d 45 ac	 lea	 eax, DWORD PTR $T2[ebp]
  00484	50		 push	 eax
  00485	68 00 00 00 00	 push	 OFFSET ?rocket_salvo_count@@3HA ; rocket_salvo_count
  0048a	e8 00 00 00 00	 call	 ??$min@H@std@@YGABHABH0@Z ; std::min<int>
  0048f	8b 08		 mov	 ecx, DWORD PTR [eax]
  00491	89 0d 00 00 00
	00		 mov	 DWORD PTR ?fire_single_weapon@@3HA, ecx ; fire_single_weapon

; 503  : 
; 504  : 			rocket_salvo_count -= fire_single_weapon;

  00497	a1 00 00 00 00	 mov	 eax, DWORD PTR ?rocket_salvo_count@@3HA ; rocket_salvo_count
  0049c	2b 05 00 00 00
	00		 sub	 eax, DWORD PTR ?fire_single_weapon@@3HA ; fire_single_weapon
  004a2	a3 00 00 00 00	 mov	 DWORD PTR ?rocket_salvo_count@@3HA, eax ; rocket_salvo_count

; 505  : 
; 506  : 			rocket_salvo_count = max (rocket_salvo_count, 0);

  004a7	c7 45 a8 00 00
	00 00		 mov	 DWORD PTR $T1[ebp], 0
  004ae	8d 45 a8	 lea	 eax, DWORD PTR $T1[ebp]
  004b1	50		 push	 eax
  004b2	68 00 00 00 00	 push	 OFFSET ?rocket_salvo_count@@3HA ; rocket_salvo_count
  004b7	e8 00 00 00 00	 call	 ??$max@H@std@@YGABHABH0@Z ; std::max<int>
  004bc	8b 08		 mov	 ecx, DWORD PTR [eax]
  004be	89 0d 00 00 00
	00		 mov	 DWORD PTR ?rocket_salvo_count@@3HA, ecx ; rocket_salvo_count
$LN31@update_def:

; 507  : 		}
; 508  : 	}
; 509  : 	else

  004c4	eb 0a		 jmp	 SHORT $LN28@update_def
$LN27@update_def:

; 510  : 	{
; 511  : 		rocket_salvo_count = 0;

  004c6	c7 05 00 00 00
	00 00 00 00 00	 mov	 DWORD PTR ?rocket_salvo_count@@3HA, 0 ; rocket_salvo_count
$LN28@update_def:

; 512  : 	}
; 513  : 
; 514  : 	////////////////////////////////////////
; 515  : 	//
; 516  : 	// launch weapon(s)
; 517  : 	//
; 518  : 	////////////////////////////////////////
; 519  : 
; 520  : 	target = get_local_entity_parent (en, LIST_TYPE_TARGET);

  004d0	83 7d f8 00	 cmp	 DWORD PTR _en$[ebp], 0
  004d4	74 0a		 je	 SHORT $LN51@update_def
  004d6	8b 45 f8	 mov	 eax, DWORD PTR _en$[ebp]
  004d9	8b 08		 mov	 ecx, DWORD PTR [eax]
  004db	89 4d a4	 mov	 DWORD PTR tv235[ebp], ecx
  004de	eb 24		 jmp	 SHORT $LN52@update_def
$LN51@update_def:
  004e0	8b 15 00 00 00
	00		 mov	 edx, DWORD PTR ?__LINE__Var@?0??update_default_weapon_systems@@YGXXZ@4JA
  004e6	81 c2 0a 01 00
	00		 add	 edx, 266		; 0000010aH
  004ec	52		 push	 edx
  004ed	68 00 00 00 00	 push	 OFFSET ??_C@_0EP@JJOFDEIA@c?3?2users?2nhv90?2projects?2eech?2ap@
  004f2	a1 00 00 00 00	 mov	 eax, DWORD PTR ?null_entity_pointer_message@@3PBDB ; null_entity_pointer_message
  004f7	50		 push	 eax
  004f8	e8 00 00 00 00	 call	 ?process_assert@@YGXPBD0H@Z ; process_assert
  004fd	c7 45 a4 00 00
	00 00		 mov	 DWORD PTR tv235[ebp], 0
$LN52@update_def:
  00504	b9 01 00 00 00	 mov	 ecx, 1
  00509	85 c9		 test	 ecx, ecx
  0050b	74 09		 je	 SHORT $LN53@update_def
  0050d	c7 45 a0 26 00
	00 00		 mov	 DWORD PTR tv243[ebp], 38 ; 00000026H
  00514	eb 24		 jmp	 SHORT $LN54@update_def
$LN53@update_def:
  00516	8b 15 00 00 00
	00		 mov	 edx, DWORD PTR ?__LINE__Var@?0??update_default_weapon_systems@@YGXXZ@4JA
  0051c	81 c2 0a 01 00
	00		 add	 edx, 266		; 0000010aH
  00522	52		 push	 edx
  00523	68 00 00 00 00	 push	 OFFSET ??_C@_0EP@JJOFDEIA@c?3?2users?2nhv90?2projects?2eech?2ap@
  00528	a1 00 00 00 00	 mov	 eax, DWORD PTR ?overload_invalid_list_type_message@@3PBDB ; overload_invalid_list_type_message
  0052d	50		 push	 eax
  0052e	e8 00 00 00 00	 call	 ?process_assert@@YGXPBD0H@Z ; process_assert
  00533	c7 45 a0 00 00
	00 00		 mov	 DWORD PTR tv243[ebp], 0
$LN54@update_def:
  0053a	6a 26		 push	 38			; 00000026H
  0053c	8b 4d f8	 mov	 ecx, DWORD PTR _en$[ebp]
  0053f	51		 push	 ecx
  00540	69 55 a4 b4 00
	00 00		 imul	 edx, DWORD PTR tv235[ebp], 180
  00547	8b 45 a0	 mov	 eax, DWORD PTR tv243[ebp]
  0054a	8b 8c 82 00 00
	00 00		 mov	 ecx, DWORD PTR ?fn_get_local_entity_parent@@3PAY0CN@P6GPAUENTITY@@PAU1@W4LIST_TYPES@@@ZA[edx+eax*4]
  00551	ff d1		 call	 ecx
  00553	89 45 f4	 mov	 DWORD PTR _target$[ebp], eax

; 521  : 
; 522  : 	if (fire_continuous_weapon || fire_single_weapon)

  00556	83 3d 00 00 00
	00 00		 cmp	 DWORD PTR ?fire_continuous_weapon@@3HA, 0 ; fire_continuous_weapon
  0055d	75 0d		 jne	 SHORT $LN34@update_def
  0055f	83 3d 00 00 00
	00 00		 cmp	 DWORD PTR ?fire_single_weapon@@3HA, 0 ; fire_single_weapon
  00566	0f 84 67 01 00
	00		 je	 $LN32@update_def
$LN34@update_def:

; 523  : 	{
; 524  : 		if (weapon_database[weapon_sub_type].rate_of_fire == FIRE_SINGLE_WEAPON)

  0056c	69 45 f0 e0 00
	00 00		 imul	 eax, DWORD PTR _weapon_sub_type$[ebp], 224
  00573	f3 0f 5a 80 c8
	00 00 00	 cvtss2sd xmm0, DWORD PTR ?weapon_database@@3PAUWEAPON_DATA@@A[eax+200]
  0057b	66 0f 2e 05 00
	00 00 00	 ucomisd xmm0, QWORD PTR __real@0000000000000000
  00583	9f		 lahf
  00584	f6 c4 44	 test	 ah, 68			; 00000044H
  00587	0f 8a ee 00 00
	00		 jp	 $LN35@update_def

; 525  : 		{
; 526  : 			//
; 527  : 			// fire a maximum of two weapons per frame (one off of each stub wing)
; 528  : 			//
; 529  : 
; 530  : 			if (fire_single_weapon >= 2)

  0058d	83 3d 00 00 00
	00 02		 cmp	 DWORD PTR ?fire_single_weapon@@3HA, 2 ; fire_single_weapon
  00594	7c 1a		 jl	 SHORT $LN37@update_def

; 531  : 			{
; 532  : 				apply_weapon_recoil_effect (en, weapon_sub_type);

  00596	8b 45 f0	 mov	 eax, DWORD PTR _weapon_sub_type$[ebp]
  00599	50		 push	 eax
  0059a	8b 4d f8	 mov	 ecx, DWORD PTR _en$[ebp]
  0059d	51		 push	 ecx
  0059e	e8 00 00 00 00	 call	 ?apply_weapon_recoil_effect@@YGXPAUENTITY@@H@Z ; apply_weapon_recoil_effect

; 533  : 
; 534  : 				launch_client_server_weapon (en, weapon_sub_type);

  005a3	8b 45 f0	 mov	 eax, DWORD PTR _weapon_sub_type$[ebp]
  005a6	50		 push	 eax
  005a7	8b 4d f8	 mov	 ecx, DWORD PTR _en$[ebp]
  005aa	51		 push	 ecx
  005ab	e8 00 00 00 00	 call	 ?launch_client_server_weapon@@YGXPAUENTITY@@H@Z ; launch_client_server_weapon
$LN37@update_def:

; 535  : 			}
; 536  : 
; 537  : 			if (fire_single_weapon >= 1)

  005b0	83 3d 00 00 00
	00 01		 cmp	 DWORD PTR ?fire_single_weapon@@3HA, 1 ; fire_single_weapon
  005b7	7c 1a		 jl	 SHORT $LN38@update_def

; 538  : 			{
; 539  : 				apply_weapon_recoil_effect (en, weapon_sub_type);

  005b9	8b 45 f0	 mov	 eax, DWORD PTR _weapon_sub_type$[ebp]
  005bc	50		 push	 eax
  005bd	8b 4d f8	 mov	 ecx, DWORD PTR _en$[ebp]
  005c0	51		 push	 ecx
  005c1	e8 00 00 00 00	 call	 ?apply_weapon_recoil_effect@@YGXPAUENTITY@@H@Z ; apply_weapon_recoil_effect

; 540  : 
; 541  : 				launch_client_server_weapon (en, weapon_sub_type);

  005c6	8b 45 f0	 mov	 eax, DWORD PTR _weapon_sub_type$[ebp]
  005c9	50		 push	 eax
  005ca	8b 4d f8	 mov	 ecx, DWORD PTR _en$[ebp]
  005cd	51		 push	 ecx
  005ce	e8 00 00 00 00	 call	 ?launch_client_server_weapon@@YGXPAUENTITY@@H@Z ; launch_client_server_weapon
$LN38@update_def:

; 542  : 			}
; 543  : 			
; 544  : 			// when firing radar hellfires in PFZ mode automaticly select next target
; 545  : 			// after each launch
; 546  : 			if (weapon_sub_type == ENTITY_SUB_TYPE_WEAPON_AGM114L_LONGBOW_HELLFIRE
; 547  : 				&& target_acquisition_system == TARGET_ACQUISITION_SYSTEM_GROUND_RADAR
; 548  : 				&& get_local_entity_int_value (get_gunship_entity (), INT_TYPE_LOCK_ON_AFTER_LAUNCH)  // TODO: remove this once radar hellfires get their target upon launch, not 3 seconds later
; 549  : 				&& pfz_active())

  005d3	83 7d f0 2d	 cmp	 DWORD PTR _weapon_sub_type$[ebp], 45 ; 0000002dH
  005d7	0f 85 9c 00 00
	00		 jne	 $LN39@update_def
  005dd	83 3d 00 00 00
	00 01		 cmp	 DWORD PTR ?target_acquisition_system@@3W4TARGET_ACQUISITION_SYSTEMS@@A, 1 ; target_acquisition_system
  005e4	0f 85 8f 00 00
	00		 jne	 $LN39@update_def
  005ea	83 3d 00 00 00
	00 00		 cmp	 DWORD PTR ?gunship_entity@@3PAUENTITY@@A, 0 ; gunship_entity
  005f1	74 0c		 je	 SHORT $LN55@update_def
  005f3	a1 00 00 00 00	 mov	 eax, DWORD PTR ?gunship_entity@@3PAUENTITY@@A ; gunship_entity
  005f8	8b 08		 mov	 ecx, DWORD PTR [eax]
  005fa	89 4d a4	 mov	 DWORD PTR tv273[ebp], ecx
  005fd	eb 1d		 jmp	 SHORT $LN56@update_def
$LN55@update_def:
  005ff	68 24 02 00 00	 push	 548			; 00000224H
  00604	68 00 00 00 00	 push	 OFFSET ??_C@_0EP@JJOFDEIA@c?3?2users?2nhv90?2projects?2eech?2ap@
  00609	8b 15 00 00 00
	00		 mov	 edx, DWORD PTR ?null_entity_pointer_message@@3PBDB ; null_entity_pointer_message
  0060f	52		 push	 edx
  00610	e8 00 00 00 00	 call	 ?process_assert@@YGXPBD0H@Z ; process_assert
  00615	c7 45 a4 00 00
	00 00		 mov	 DWORD PTR tv273[ebp], 0
$LN56@update_def:
  0061c	b8 01 00 00 00	 mov	 eax, 1
  00621	85 c0		 test	 eax, eax
  00623	74 09		 je	 SHORT $LN57@update_def
  00625	c7 45 a0 7e 00
	00 00		 mov	 DWORD PTR tv280[ebp], 126 ; 0000007eH
  0062c	eb 1d		 jmp	 SHORT $LN58@update_def
$LN57@update_def:
  0062e	68 24 02 00 00	 push	 548			; 00000224H
  00633	68 00 00 00 00	 push	 OFFSET ??_C@_0EP@JJOFDEIA@c?3?2users?2nhv90?2projects?2eech?2ap@
  00638	8b 0d 00 00 00
	00		 mov	 ecx, DWORD PTR ?overload_invalid_int_type_message@@3PBDB ; overload_invalid_int_type_message
  0063e	51		 push	 ecx
  0063f	e8 00 00 00 00	 call	 ?process_assert@@YGXPBD0H@Z ; process_assert
  00644	c7 45 a0 00 00
	00 00		 mov	 DWORD PTR tv280[ebp], 0
$LN58@update_def:
  0064b	6a 7e		 push	 126			; 0000007eH
  0064d	8b 15 00 00 00
	00		 mov	 edx, DWORD PTR ?gunship_entity@@3PAUENTITY@@A ; gunship_entity
  00653	52		 push	 edx
  00654	69 45 a4 5c 04
	00 00		 imul	 eax, DWORD PTR tv273[ebp], 1116
  0065b	8b 4d a0	 mov	 ecx, DWORD PTR tv280[ebp]
  0065e	8b 94 88 00 00
	00 00		 mov	 edx, DWORD PTR ?fn_get_local_entity_int_value@@3PAY0BBH@P6GHPAUENTITY@@W4INT_TYPES@@@ZA[eax+ecx*4]
  00665	ff d2		 call	 edx
  00667	85 c0		 test	 eax, eax
  00669	74 0e		 je	 SHORT $LN39@update_def
  0066b	e8 00 00 00 00	 call	 ?pfz_active@@YGHXZ	; pfz_active
  00670	85 c0		 test	 eax, eax
  00672	74 05		 je	 SHORT $LN39@update_def

; 550  : 			{
; 551  : 				get_next_ground_radar_target();	

  00674	e8 00 00 00 00	 call	 ?get_next_ground_radar_target@@YGXXZ ; get_next_ground_radar_target
$LN39@update_def:

; 552  : 			}
; 553  : 		}
; 554  : 		else

  00679	eb 56		 jmp	 SHORT $LN41@update_def
$LN35@update_def:

; 555  : 		{
; 556  : 			if (weapon_sub_type == ENTITY_SUB_TYPE_WEAPON_GSH23L_23MM_ROUND)

  0067b	83 7d f0 0f	 cmp	 DWORD PTR _weapon_sub_type$[ebp], 15 ; 0000000fH
  0067f	75 36		 jne	 SHORT $LN40@update_def

; 557  : 			{
; 558  : 				apply_weapon_recoil_effect (en, weapon_sub_type);

  00681	8b 45 f0	 mov	 eax, DWORD PTR _weapon_sub_type$[ebp]
  00684	50		 push	 eax
  00685	8b 4d f8	 mov	 ecx, DWORD PTR _en$[ebp]
  00688	51		 push	 ecx
  00689	e8 00 00 00 00	 call	 ?apply_weapon_recoil_effect@@YGXPAUENTITY@@H@Z ; apply_weapon_recoil_effect

; 559  : 
; 560  : 				launch_client_server_weapon (en, weapon_sub_type);

  0068e	8b 45 f0	 mov	 eax, DWORD PTR _weapon_sub_type$[ebp]
  00691	50		 push	 eax
  00692	8b 4d f8	 mov	 ecx, DWORD PTR _en$[ebp]
  00695	51		 push	 ecx
  00696	e8 00 00 00 00	 call	 ?launch_client_server_weapon@@YGXPAUENTITY@@H@Z ; launch_client_server_weapon

; 561  : 
; 562  : 				apply_weapon_recoil_effect (en, weapon_sub_type);

  0069b	8b 45 f0	 mov	 eax, DWORD PTR _weapon_sub_type$[ebp]
  0069e	50		 push	 eax
  0069f	8b 4d f8	 mov	 ecx, DWORD PTR _en$[ebp]
  006a2	51		 push	 ecx
  006a3	e8 00 00 00 00	 call	 ?apply_weapon_recoil_effect@@YGXPAUENTITY@@H@Z ; apply_weapon_recoil_effect

; 563  : 
; 564  : 				launch_client_server_weapon (en, weapon_sub_type);

  006a8	8b 45 f0	 mov	 eax, DWORD PTR _weapon_sub_type$[ebp]
  006ab	50		 push	 eax
  006ac	8b 4d f8	 mov	 ecx, DWORD PTR _en$[ebp]
  006af	51		 push	 ecx
  006b0	e8 00 00 00 00	 call	 ?launch_client_server_weapon@@YGXPAUENTITY@@H@Z ; launch_client_server_weapon

; 565  : 			}
; 566  : 			else

  006b5	eb 1a		 jmp	 SHORT $LN41@update_def
$LN40@update_def:

; 567  : 			{
; 568  : 				apply_weapon_recoil_effect (en, weapon_sub_type);

  006b7	8b 45 f0	 mov	 eax, DWORD PTR _weapon_sub_type$[ebp]
  006ba	50		 push	 eax
  006bb	8b 4d f8	 mov	 ecx, DWORD PTR _en$[ebp]
  006be	51		 push	 ecx
  006bf	e8 00 00 00 00	 call	 ?apply_weapon_recoil_effect@@YGXPAUENTITY@@H@Z ; apply_weapon_recoil_effect

; 569  : 
; 570  : 				launch_client_server_weapon (en, weapon_sub_type);

  006c4	8b 45 f0	 mov	 eax, DWORD PTR _weapon_sub_type$[ebp]
  006c7	50		 push	 eax
  006c8	8b 4d f8	 mov	 ecx, DWORD PTR _en$[ebp]
  006cb	51		 push	 ecx
  006cc	e8 00 00 00 00	 call	 ?launch_client_server_weapon@@YGXPAUENTITY@@H@Z ; launch_client_server_weapon
$LN41@update_def:

; 571  : 			}
; 572  : 		}
; 573  : 	}
; 574  : 	else

  006d1	eb 10		 jmp	 SHORT $LN33@update_def
$LN32@update_def:

; 575  : 		((helicopter*)get_local_entity_data(en))->ac.weapon_salvo_timer = 0.0;

  006d3	8b 45 f8	 mov	 eax, DWORD PTR _en$[ebp]
  006d6	8b 48 04	 mov	 ecx, DWORD PTR [eax+4]
  006d9	c7 81 30 01 00
	00 00 00 00 00	 mov	 DWORD PTR [ecx+304], 0
$LN33@update_def:

; 576  : 
; 577  : 	fire_single_weapon = 0;

  006e3	c7 05 00 00 00
	00 00 00 00 00	 mov	 DWORD PTR ?fire_single_weapon@@3HA, 0 ; fire_single_weapon
$LN1@update_def:

; 578  : }

  006ed	5f		 pop	 edi
  006ee	5e		 pop	 esi
  006ef	5b		 pop	 ebx
  006f0	8b e5		 mov	 esp, ebp
  006f2	5d		 pop	 ebp
  006f3	c3		 ret	 0
$LN60@update_def:
  006f4	00 00 00 00	 DD	 $LN9@update_def
  006f8	00 00 00 00	 DD	 $LN11@update_def
  006fc	00 00 00 00	 DD	 $LN17@update_def
  00700	00 00 00 00	 DD	 $LN14@update_def
  00704	00 00 00 00	 DD	 $LN4@update_def
$LN59@update_def:
  00708	00		 DB	 0
  00709	04		 DB	 4
  0070a	04		 DB	 4
  0070b	04		 DB	 4
  0070c	04		 DB	 4
  0070d	04		 DB	 4
  0070e	00		 DB	 0
  0070f	04		 DB	 4
  00710	04		 DB	 4
  00711	04		 DB	 4
  00712	04		 DB	 4
  00713	04		 DB	 4
  00714	04		 DB	 4
  00715	04		 DB	 4
  00716	00		 DB	 0
  00717	04		 DB	 4
  00718	04		 DB	 4
  00719	04		 DB	 4
  0071a	00		 DB	 0
  0071b	00		 DB	 0
  0071c	04		 DB	 4
  0071d	04		 DB	 4
  0071e	04		 DB	 4
  0071f	04		 DB	 4
  00720	04		 DB	 4
  00721	04		 DB	 4
  00722	04		 DB	 4
  00723	04		 DB	 4
  00724	04		 DB	 4
  00725	00		 DB	 0
  00726	00		 DB	 0
  00727	04		 DB	 4
  00728	00		 DB	 0
  00729	00		 DB	 0
  0072a	00		 DB	 0
  0072b	01		 DB	 1
  0072c	01		 DB	 1
  0072d	04		 DB	 4
  0072e	01		 DB	 1
  0072f	04		 DB	 4
  00730	04		 DB	 4
  00731	04		 DB	 4
  00732	04		 DB	 4
  00733	04		 DB	 4
  00734	02		 DB	 2
  00735	02		 DB	 2
  00736	04		 DB	 4
  00737	04		 DB	 4
  00738	03		 DB	 3
  00739	03		 DB	 3
  0073a	01		 DB	 1
?update_default_weapon_systems@@YGXXZ ENDP		; update_default_weapon_systems
_TEXT	ENDS
; Function compile flags: /Odtp /ZI
; File c:\users\nhv90\projects\eech\aphavoc\source\gunships\avionics\default\df_wpn.c
;	COMDAT ?initialise_default_weapon_systems@@YGXXZ
_TEXT	SEGMENT
?initialise_default_weapon_systems@@YGXXZ PROC		; initialise_default_weapon_systems, COMDAT

; 86   : {

  00000	55		 push	 ebp
  00001	8b ec		 mov	 ebp, esp
  00003	83 ec 40	 sub	 esp, 64			; 00000040H
  00006	53		 push	 ebx
  00007	56		 push	 esi
  00008	57		 push	 edi

; 87   : 	seeker_head_theta1 = 0.0;

  00009	0f 57 c0	 xorps	 xmm0, xmm0
  0000c	f3 0f 11 05 00
	00 00 00	 movss	 DWORD PTR ?seeker_head_theta1@@3MA, xmm0

; 88   : 
; 89   : 	seeker_head_theta2 = 0.0;

  00014	0f 57 c0	 xorps	 xmm0, xmm0
  00017	f3 0f 11 05 00
	00 00 00	 movss	 DWORD PTR ?seeker_head_theta2@@3MA, xmm0

; 90   : 
; 91   : 	default_stinger_seeker_head_x_position = 0.0;

  0001f	0f 57 c0	 xorps	 xmm0, xmm0
  00022	f3 0f 11 05 00
	00 00 00	 movss	 DWORD PTR ?default_stinger_seeker_head_x_position@@3MA, xmm0

; 92   : 
; 93   : 	default_stinger_seeker_head_y_position = 0.0;

  0002a	0f 57 c0	 xorps	 xmm0, xmm0
  0002d	f3 0f 11 05 00
	00 00 00	 movss	 DWORD PTR ?default_stinger_seeker_head_y_position@@3MA, xmm0

; 94   : }

  00035	5f		 pop	 edi
  00036	5e		 pop	 esi
  00037	5b		 pop	 ebx
  00038	8b e5		 mov	 esp, ebp
  0003a	5d		 pop	 ebp
  0003b	c3		 ret	 0
?initialise_default_weapon_systems@@YGXXZ ENDP		; initialise_default_weapon_systems
_TEXT	ENDS
; Function compile flags: /Odtp /ZI
; File c:\program files (x86)\microsoft visual studio\2017\community\vc\tools\msvc\14.16.27023\include\cmath
;	COMDAT ?sin@@YGMM@Z
_TEXT	SEGMENT
__Xx$ = 8						; size = 4
?sin@@YGMM@Z PROC					; sin, COMDAT

; 284  : 	{

  00000	55		 push	 ebp
  00001	8b ec		 mov	 ebp, esp
  00003	83 ec 40	 sub	 esp, 64			; 00000040H
  00006	53		 push	 ebx
  00007	56		 push	 esi
  00008	57		 push	 edi

; 285  : 	return (_CSTD sinf(_Xx));

  00009	51		 push	 ecx
  0000a	f3 0f 10 45 08	 movss	 xmm0, DWORD PTR __Xx$[ebp]
  0000f	f3 0f 11 04 24	 movss	 DWORD PTR [esp], xmm0
  00014	e8 00 00 00 00	 call	 _sinf
  00019	83 c4 04	 add	 esp, 4

; 286  : 	}

  0001c	5f		 pop	 edi
  0001d	5e		 pop	 esi
  0001e	5b		 pop	 ebx
  0001f	8b e5		 mov	 esp, ebp
  00021	5d		 pop	 ebp
  00022	c2 04 00	 ret	 4
?sin@@YGMM@Z ENDP					; sin
_TEXT	ENDS
; Function compile flags: /Odtp /ZI
; File c:\program files (x86)\microsoft visual studio\2017\community\vc\tools\msvc\14.16.27023\include\cmath
;	COMDAT ?cos@@YGMM@Z
_TEXT	SEGMENT
__Xx$ = 8						; size = 4
?cos@@YGMM@Z PROC					; cos, COMDAT

; 77   : 	{

  00000	55		 push	 ebp
  00001	8b ec		 mov	 ebp, esp
  00003	83 ec 40	 sub	 esp, 64			; 00000040H
  00006	53		 push	 ebx
  00007	56		 push	 esi
  00008	57		 push	 edi

; 78   : 	return (_CSTD cosf(_Xx));

  00009	51		 push	 ecx
  0000a	f3 0f 10 45 08	 movss	 xmm0, DWORD PTR __Xx$[ebp]
  0000f	f3 0f 11 04 24	 movss	 DWORD PTR [esp], xmm0
  00014	e8 00 00 00 00	 call	 _cosf
  00019	83 c4 04	 add	 esp, 4

; 79   : 	}

  0001c	5f		 pop	 edi
  0001d	5e		 pop	 esi
  0001e	5b		 pop	 ebx
  0001f	8b e5		 mov	 esp, ebp
  00021	5d		 pop	 ebp
  00022	c2 04 00	 ret	 4
?cos@@YGMM@Z ENDP					; cos
_TEXT	ENDS
; Function compile flags: /Odtp /ZI
; File c:\program files (x86)\windows kits\10\include\10.0.18362.0\ucrt\corecrt_math.h
;	COMDAT _sinf
_TEXT	SEGMENT
tv71 = -68						; size = 4
__X$ = 8						; size = 4
_sinf	PROC						; COMDAT

; 749  :         {

  00000	55		 push	 ebp
  00001	8b ec		 mov	 ebp, esp
  00003	83 ec 44	 sub	 esp, 68			; 00000044H
  00006	53		 push	 ebx
  00007	56		 push	 esi
  00008	57		 push	 edi

; 750  :             return (float)sin(_X);

  00009	f3 0f 5a 45 08	 cvtss2sd xmm0, DWORD PTR __X$[ebp]
  0000e	83 ec 08	 sub	 esp, 8
  00011	f2 0f 11 04 24	 movsd	 QWORD PTR [esp], xmm0
  00016	e8 00 00 00 00	 call	 _sin
  0001b	83 c4 08	 add	 esp, 8
  0001e	d9 5d bc	 fstp	 DWORD PTR tv71[ebp]
  00021	d9 45 bc	 fld	 DWORD PTR tv71[ebp]

; 751  :         }

  00024	5f		 pop	 edi
  00025	5e		 pop	 esi
  00026	5b		 pop	 ebx
  00027	8b e5		 mov	 esp, ebp
  00029	5d		 pop	 ebp
  0002a	c3		 ret	 0
_sinf	ENDP
_TEXT	ENDS
; Function compile flags: /Odtp /ZI
; File c:\program files (x86)\windows kits\10\include\10.0.18362.0\ucrt\corecrt_math.h
;	COMDAT _cosf
_TEXT	SEGMENT
tv71 = -68						; size = 4
__X$ = 8						; size = 4
_cosf	PROC						; COMDAT

; 648  :         {

  00000	55		 push	 ebp
  00001	8b ec		 mov	 ebp, esp
  00003	83 ec 44	 sub	 esp, 68			; 00000044H
  00006	53		 push	 ebx
  00007	56		 push	 esi
  00008	57		 push	 edi

; 649  :             return (float)cos(_X);

  00009	f3 0f 5a 45 08	 cvtss2sd xmm0, DWORD PTR __X$[ebp]
  0000e	83 ec 08	 sub	 esp, 8
  00011	f2 0f 11 04 24	 movsd	 QWORD PTR [esp], xmm0
  00016	e8 00 00 00 00	 call	 _cos
  0001b	83 c4 08	 add	 esp, 8
  0001e	d9 5d bc	 fstp	 DWORD PTR tv71[ebp]
  00021	d9 45 bc	 fld	 DWORD PTR tv71[ebp]

; 650  :         }

  00024	5f		 pop	 edi
  00025	5e		 pop	 esi
  00026	5b		 pop	 ebx
  00027	8b e5		 mov	 esp, ebp
  00029	5d		 pop	 ebp
  0002a	c3		 ret	 0
_cosf	ENDP
_TEXT	ENDS
END
