; Listing generated by Microsoft (R) Optimizing Compiler Version 19.16.27045.0 

	TITLE	C:\Users\nhv90\Projects\eech\aphavoc\source\entity\special\division\dv_dstry.c
	.686P
	.XMM
	include listing.inc
	.model	flat

INCLUDELIB MSVCRTD
INCLUDELIB OLDNAMES

PUBLIC	?overload_division_destroy_functions@@YGXXZ	; overload_division_destroy_functions
PUBLIC	?__LINE__Var@?0??destroy_server@@YGXPAUENTITY@@@Z@4JA ; `destroy_server'::`1'::__LINE__Var
PUBLIC	??_C@_0EP@LGAIAOIN@c?3?2users?2nhv90?2projects?2eech?2ap@ ; `string'
PUBLIC	??_C@_0CC@BNNNEGEG@assert_client_server_remote_fn?5@ ; `string'
PUBLIC	??_C@_0CB@CFOCLFOK@assert_client_server_local_fn?5?$CI@ ; `string'
PUBLIC	?__LINE__Var@?0??destroy_client@@YGXPAUENTITY@@@Z@4JA ; `destroy_client'::`1'::__LINE__Var
PUBLIC	?__LINE__Var@?0??destroy_server_family@@YGXPAUENTITY@@@Z@4JA ; `destroy_server_family'::`1'::__LINE__Var
EXTRN	?process_assert@@YGXPBD0H@Z:PROC		; process_assert
EXTRN	?free_mem@@YGXPAX@Z:PROC			; free_mem
EXTRN	?delete_local_entity_from_parents_child_list@@YGXPAUENTITY@@W4LIST_TYPES@@@Z:PROC ; delete_local_entity_from_parents_child_list
EXTRN	?unlink_local_entity_children@@YGXPAUENTITY@@W4LIST_TYPES@@@Z:PROC ; unlink_local_entity_children
EXTRN	?destroy_local_entity@@YGXPAUENTITY@@@Z:PROC	; destroy_local_entity
EXTRN	?transmit_entity_comms_message@@YAXW4ENTITY_COMMS_MESSAGES@@PAUENTITY@@ZZ:PROC ; transmit_entity_comms_message
EXTRN	?assert_client_server_local_fn@@YGHXZ:PROC	; assert_client_server_local_fn
EXTRN	?assert_client_server_remote_fn@@YGHXZ:PROC	; assert_client_server_remote_fn
EXTRN	?set_free_entity@@YGXPAUENTITY@@@Z:PROC		; set_free_entity
EXTRN	?null_entity_pointer_message@@3PBDB:DWORD	; null_entity_pointer_message
EXTRN	?system_comms_model@@3W4COMMS_MODEL_TYPES@@A:DWORD ; system_comms_model
EXTRN	?system_comms_data_flow@@3W4COMMS_DATA_FLOW_TYPES@@A:DWORD ; system_comms_data_flow
EXTRN	?fn_destroy_local_entity@@3PAP6GXPAUENTITY@@@ZA:BYTE ; fn_destroy_local_entity
EXTRN	?fn_destroy_client_server_entity@@3PAY01P6GXPAUENTITY@@@ZA:BYTE ; fn_destroy_client_server_entity
EXTRN	?fn_destroy_local_entity_family@@3PAP6GXPAUENTITY@@@ZA:BYTE ; fn_destroy_local_entity_family
EXTRN	?fn_destroy_client_server_entity_family@@3PAY01P6GXPAUENTITY@@@ZA:BYTE ; fn_destroy_client_server_entity_family
EXTRN	?fn_kill_local_entity@@3PAP6GXPAUENTITY@@@ZA:BYTE ; fn_kill_local_entity
EXTRN	?fn_kill_client_server_entity@@3PAY01P6GXPAUENTITY@@@ZA:BYTE ; fn_kill_client_server_entity
;	COMDAT ?__LINE__Var@?0??destroy_server_family@@YGXPAUENTITY@@@Z@4JA
_DATA	SEGMENT
?__LINE__Var@?0??destroy_server_family@@YGXPAUENTITY@@@Z@4JA DD 0d1H ; `destroy_server_family'::`1'::__LINE__Var
_DATA	ENDS
;	COMDAT ?__LINE__Var@?0??destroy_client@@YGXPAUENTITY@@@Z@4JA
_DATA	SEGMENT
?__LINE__Var@?0??destroy_client@@YGXPAUENTITY@@@Z@4JA DD 0b0H ; `destroy_client'::`1'::__LINE__Var
_DATA	ENDS
;	COMDAT ??_C@_0CB@CFOCLFOK@assert_client_server_local_fn?5?$CI@
CONST	SEGMENT
??_C@_0CB@CFOCLFOK@assert_client_server_local_fn?5?$CI@ DB 'assert_client'
	DB	'_server_local_fn ()', 00H			; `string'
CONST	ENDS
;	COMDAT ??_C@_0CC@BNNNEGEG@assert_client_server_remote_fn?5@
CONST	SEGMENT
??_C@_0CC@BNNNEGEG@assert_client_server_remote_fn?5@ DB 'assert_client_se'
	DB	'rver_remote_fn ()', 00H			; `string'
CONST	ENDS
;	COMDAT ??_C@_0EP@LGAIAOIN@c?3?2users?2nhv90?2projects?2eech?2ap@
CONST	SEGMENT
??_C@_0EP@LGAIAOIN@c?3?2users?2nhv90?2projects?2eech?2ap@ DB 'c:\users\nh'
	DB	'v90\projects\eech\aphavoc\source\entity\special\division\dv_d'
	DB	'stry.c', 00H				; `string'
CONST	ENDS
;	COMDAT ?__LINE__Var@?0??destroy_server@@YGXPAUENTITY@@@Z@4JA
_DATA	SEGMENT
?__LINE__Var@?0??destroy_server@@YGXPAUENTITY@@@Z@4JA DD 099H ; `destroy_server'::`1'::__LINE__Var
_DATA	ENDS
; Function compile flags: /Odtp /ZI
; File c:\users\nhv90\projects\eech\aphavoc\source\entity\special\division\dv_dstry.c
;	COMDAT ?destroy_client_family@@YGXPAUENTITY@@@Z
_TEXT	SEGMENT
_en$ = 8						; size = 4
?destroy_client_family@@YGXPAUENTITY@@@Z PROC		; destroy_client_family, COMDAT

; 218  : {

  00000	55		 push	 ebp
  00001	8b ec		 mov	 ebp, esp
  00003	83 ec 40	 sub	 esp, 64			; 00000040H
  00006	53		 push	 ebx
  00007	56		 push	 esi
  00008	57		 push	 edi

; 219  : 	#if DEBUG_MODULE
; 220  : 
; 221  : 	debug_log_entity_args (ENTITY_DEBUG_REMOTE, ENTITY_DEBUG_DESTROY_FAMILY, en);
; 222  : 
; 223  : 	#endif
; 224  : 
; 225  : 	transmit_entity_comms_message (ENTITY_COMMS_DESTROY_FAMILY, en);

  00009	8b 45 08	 mov	 eax, DWORD PTR _en$[ebp]
  0000c	50		 push	 eax
  0000d	6a 13		 push	 19			; 00000013H
  0000f	e8 00 00 00 00	 call	 ?transmit_entity_comms_message@@YAXW4ENTITY_COMMS_MESSAGES@@PAUENTITY@@ZZ ; transmit_entity_comms_message
  00014	83 c4 08	 add	 esp, 8

; 226  : }

  00017	5f		 pop	 edi
  00018	5e		 pop	 esi
  00019	5b		 pop	 ebx
  0001a	8b e5		 mov	 esp, ebp
  0001c	5d		 pop	 ebp
  0001d	c2 04 00	 ret	 4
?destroy_client_family@@YGXPAUENTITY@@@Z ENDP		; destroy_client_family
_TEXT	ENDS
; Function compile flags: /Odtp /ZI
; File c:\users\nhv90\projects\eech\aphavoc\source\entity\special\division\dv_dstry.c
;	COMDAT ?destroy_server_family@@YGXPAUENTITY@@@Z
_TEXT	SEGMENT
tv70 = -68						; size = 4
_en$ = 8						; size = 4
?destroy_server_family@@YGXPAUENTITY@@@Z PROC		; destroy_server_family, COMDAT

; 209  : {

  00000	55		 push	 ebp
  00001	8b ec		 mov	 ebp, esp
  00003	83 ec 44	 sub	 esp, 68			; 00000044H
  00006	53		 push	 ebx
  00007	56		 push	 esi
  00008	57		 push	 edi

; 210  : 	destroy_client_server_entity (en);

  00009	83 7d 08 00	 cmp	 DWORD PTR _en$[ebp], 0
  0000d	74 0a		 je	 SHORT $LN3@destroy_se
  0000f	8b 45 08	 mov	 eax, DWORD PTR _en$[ebp]
  00012	8b 08		 mov	 ecx, DWORD PTR [eax]
  00014	89 4d bc	 mov	 DWORD PTR tv70[ebp], ecx
  00017	eb 21		 jmp	 SHORT $LN4@destroy_se
$LN3@destroy_se:
  00019	8b 15 00 00 00
	00		 mov	 edx, DWORD PTR ?__LINE__Var@?0??destroy_server_family@@YGXPAUENTITY@@@Z@4JA
  0001f	83 c2 01	 add	 edx, 1
  00022	52		 push	 edx
  00023	68 00 00 00 00	 push	 OFFSET ??_C@_0EP@LGAIAOIN@c?3?2users?2nhv90?2projects?2eech?2ap@
  00028	a1 00 00 00 00	 mov	 eax, DWORD PTR ?null_entity_pointer_message@@3PBDB ; null_entity_pointer_message
  0002d	50		 push	 eax
  0002e	e8 00 00 00 00	 call	 ?process_assert@@YGXPBD0H@Z ; process_assert
  00033	c7 45 bc 00 00
	00 00		 mov	 DWORD PTR tv70[ebp], 0
$LN4@destroy_se:
  0003a	8b 4d 08	 mov	 ecx, DWORD PTR _en$[ebp]
  0003d	51		 push	 ecx
  0003e	8b 15 00 00 00
	00		 mov	 edx, DWORD PTR ?system_comms_model@@3W4COMMS_MODEL_TYPES@@A ; system_comms_model
  00044	c1 e2 02	 shl	 edx, 2
  00047	8b 45 bc	 mov	 eax, DWORD PTR tv70[ebp]
  0004a	8b 8c c2 00 00
	00 00		 mov	 ecx, DWORD PTR ?fn_destroy_client_server_entity@@3PAY01P6GXPAUENTITY@@@ZA[edx+eax*8]
  00051	ff d1		 call	 ecx

; 211  : }

  00053	5f		 pop	 edi
  00054	5e		 pop	 esi
  00055	5b		 pop	 ebx
  00056	8b e5		 mov	 esp, ebp
  00058	5d		 pop	 ebp
  00059	c2 04 00	 ret	 4
?destroy_server_family@@YGXPAUENTITY@@@Z ENDP		; destroy_server_family
_TEXT	ENDS
; Function compile flags: /Odtp /ZI
; File c:\users\nhv90\projects\eech\aphavoc\source\entity\special\division\dv_dstry.c
;	COMDAT ?destroy_local_family@@YGXPAUENTITY@@@Z
_TEXT	SEGMENT
_en$ = 8						; size = 4
?destroy_local_family@@YGXPAUENTITY@@@Z PROC		; destroy_local_family, COMDAT

; 200  : {

  00000	55		 push	 ebp
  00001	8b ec		 mov	 ebp, esp
  00003	83 ec 40	 sub	 esp, 64			; 00000040H
  00006	53		 push	 ebx
  00007	56		 push	 esi
  00008	57		 push	 edi

; 201  : 	destroy_local_entity (en);

  00009	8b 45 08	 mov	 eax, DWORD PTR _en$[ebp]
  0000c	50		 push	 eax
  0000d	e8 00 00 00 00	 call	 ?destroy_local_entity@@YGXPAUENTITY@@@Z ; destroy_local_entity

; 202  : }

  00012	5f		 pop	 edi
  00013	5e		 pop	 esi
  00014	5b		 pop	 ebx
  00015	8b e5		 mov	 esp, ebp
  00017	5d		 pop	 ebp
  00018	c2 04 00	 ret	 4
?destroy_local_family@@YGXPAUENTITY@@@Z ENDP		; destroy_local_family
_TEXT	ENDS
; Function compile flags: /Odtp /ZI
; File c:\users\nhv90\projects\eech\aphavoc\source\entity\special\division\dv_dstry.c
;	COMDAT ?destroy_client@@YGXPAUENTITY@@@Z
_TEXT	SEGMENT
_en$ = 8						; size = 4
?destroy_client@@YGXPAUENTITY@@@Z PROC			; destroy_client, COMDAT

; 176  : {

  00000	55		 push	 ebp
  00001	8b ec		 mov	 ebp, esp
  00003	83 ec 40	 sub	 esp, 64			; 00000040H
  00006	53		 push	 ebx
  00007	56		 push	 esi
  00008	57		 push	 edi

; 177  : 	if (get_comms_data_flow () == COMMS_DATA_FLOW_TX)

  00009	83 3d 00 00 00
	00 00		 cmp	 DWORD PTR ?system_comms_data_flow@@3W4COMMS_DATA_FLOW_TYPES@@A, 0 ; system_comms_data_flow
  00010	75 2c		 jne	 SHORT $LN2@destroy_cl

; 178  : 	{
; 179  : 		validate_client_server_remote_fn ();

  00012	e8 00 00 00 00	 call	 ?assert_client_server_remote_fn@@YGHXZ ; assert_client_server_remote_fn
  00017	85 c0		 test	 eax, eax
  00019	75 18		 jne	 SHORT $LN4@destroy_cl
  0001b	a1 00 00 00 00	 mov	 eax, DWORD PTR ?__LINE__Var@?0??destroy_client@@YGXPAUENTITY@@@Z@4JA
  00020	83 c0 03	 add	 eax, 3
  00023	50		 push	 eax
  00024	68 00 00 00 00	 push	 OFFSET ??_C@_0EP@LGAIAOIN@c?3?2users?2nhv90?2projects?2eech?2ap@
  00029	68 00 00 00 00	 push	 OFFSET ??_C@_0CC@BNNNEGEG@assert_client_server_remote_fn?5@
  0002e	e8 00 00 00 00	 call	 ?process_assert@@YGXPBD0H@Z ; process_assert
$LN4@destroy_cl:

; 180  : 
; 181  : 		destroy_remote (en);

  00033	8b 45 08	 mov	 eax, DWORD PTR _en$[ebp]
  00036	50		 push	 eax
  00037	e8 00 00 00 00	 call	 ?destroy_remote@@YGXPAUENTITY@@@Z ; destroy_remote

; 182  : 	}
; 183  : 	else

  0003c	eb 2a		 jmp	 SHORT $LN1@destroy_cl
$LN2@destroy_cl:

; 184  : 	{
; 185  : 		validate_client_server_local_fn ();

  0003e	e8 00 00 00 00	 call	 ?assert_client_server_local_fn@@YGHXZ ; assert_client_server_local_fn
  00043	85 c0		 test	 eax, eax
  00045	75 18		 jne	 SHORT $LN5@destroy_cl
  00047	a1 00 00 00 00	 mov	 eax, DWORD PTR ?__LINE__Var@?0??destroy_client@@YGXPAUENTITY@@@Z@4JA
  0004c	83 c0 09	 add	 eax, 9
  0004f	50		 push	 eax
  00050	68 00 00 00 00	 push	 OFFSET ??_C@_0EP@LGAIAOIN@c?3?2users?2nhv90?2projects?2eech?2ap@
  00055	68 00 00 00 00	 push	 OFFSET ??_C@_0CB@CFOCLFOK@assert_client_server_local_fn?5?$CI@
  0005a	e8 00 00 00 00	 call	 ?process_assert@@YGXPBD0H@Z ; process_assert
$LN5@destroy_cl:

; 186  : 
; 187  : 		//
; 188  : 		// destroy local using 'full' function
; 189  : 		//
; 190  : 
; 191  : 		destroy_local_entity (en);

  0005f	8b 45 08	 mov	 eax, DWORD PTR _en$[ebp]
  00062	50		 push	 eax
  00063	e8 00 00 00 00	 call	 ?destroy_local_entity@@YGXPAUENTITY@@@Z ; destroy_local_entity
$LN1@destroy_cl:

; 192  : 	}
; 193  : }

  00068	5f		 pop	 edi
  00069	5e		 pop	 esi
  0006a	5b		 pop	 ebx
  0006b	8b e5		 mov	 esp, ebp
  0006d	5d		 pop	 ebp
  0006e	c2 04 00	 ret	 4
?destroy_client@@YGXPAUENTITY@@@Z ENDP			; destroy_client
_TEXT	ENDS
; Function compile flags: /Odtp /ZI
; File c:\users\nhv90\projects\eech\aphavoc\source\entity\special\division\dv_dstry.c
;	COMDAT ?destroy_server@@YGXPAUENTITY@@@Z
_TEXT	SEGMENT
_en$ = 8						; size = 4
?destroy_server@@YGXPAUENTITY@@@Z PROC			; destroy_server, COMDAT

; 153  : {

  00000	55		 push	 ebp
  00001	8b ec		 mov	 ebp, esp
  00003	83 ec 40	 sub	 esp, 64			; 00000040H
  00006	53		 push	 ebx
  00007	56		 push	 esi
  00008	57		 push	 edi

; 154  : 	//
; 155  : 	// destroy remote entity first (keeping local entity valid)
; 156  : 	//
; 157  : 
; 158  : 	validate_client_server_remote_fn ();

  00009	e8 00 00 00 00	 call	 ?assert_client_server_remote_fn@@YGHXZ ; assert_client_server_remote_fn
  0000e	85 c0		 test	 eax, eax
  00010	75 18		 jne	 SHORT $LN2@destroy_se
  00012	a1 00 00 00 00	 mov	 eax, DWORD PTR ?__LINE__Var@?0??destroy_server@@YGXPAUENTITY@@@Z@4JA
  00017	83 c0 05	 add	 eax, 5
  0001a	50		 push	 eax
  0001b	68 00 00 00 00	 push	 OFFSET ??_C@_0EP@LGAIAOIN@c?3?2users?2nhv90?2projects?2eech?2ap@
  00020	68 00 00 00 00	 push	 OFFSET ??_C@_0CC@BNNNEGEG@assert_client_server_remote_fn?5@
  00025	e8 00 00 00 00	 call	 ?process_assert@@YGXPBD0H@Z ; process_assert
$LN2@destroy_se:

; 159  : 
; 160  : 	destroy_remote (en);

  0002a	8b 45 08	 mov	 eax, DWORD PTR _en$[ebp]
  0002d	50		 push	 eax
  0002e	e8 00 00 00 00	 call	 ?destroy_remote@@YGXPAUENTITY@@@Z ; destroy_remote

; 161  : 
; 162  : 	validate_client_server_local_fn ();

  00033	e8 00 00 00 00	 call	 ?assert_client_server_local_fn@@YGHXZ ; assert_client_server_local_fn
  00038	85 c0		 test	 eax, eax
  0003a	75 18		 jne	 SHORT $LN3@destroy_se
  0003c	a1 00 00 00 00	 mov	 eax, DWORD PTR ?__LINE__Var@?0??destroy_server@@YGXPAUENTITY@@@Z@4JA
  00041	83 c0 09	 add	 eax, 9
  00044	50		 push	 eax
  00045	68 00 00 00 00	 push	 OFFSET ??_C@_0EP@LGAIAOIN@c?3?2users?2nhv90?2projects?2eech?2ap@
  0004a	68 00 00 00 00	 push	 OFFSET ??_C@_0CB@CFOCLFOK@assert_client_server_local_fn?5?$CI@
  0004f	e8 00 00 00 00	 call	 ?process_assert@@YGXPBD0H@Z ; process_assert
$LN3@destroy_se:

; 163  : 
; 164  : 	//
; 165  : 	// destroy local using 'full' function
; 166  : 	//
; 167  : 
; 168  : 	destroy_local_entity (en);

  00054	8b 45 08	 mov	 eax, DWORD PTR _en$[ebp]
  00057	50		 push	 eax
  00058	e8 00 00 00 00	 call	 ?destroy_local_entity@@YGXPAUENTITY@@@Z ; destroy_local_entity

; 169  : }

  0005d	5f		 pop	 edi
  0005e	5e		 pop	 esi
  0005f	5b		 pop	 ebx
  00060	8b e5		 mov	 esp, ebp
  00062	5d		 pop	 ebp
  00063	c2 04 00	 ret	 4
?destroy_server@@YGXPAUENTITY@@@Z ENDP			; destroy_server
_TEXT	ENDS
; Function compile flags: /Odtp /ZI
; File c:\users\nhv90\projects\eech\aphavoc\source\entity\special\division\dv_dstry.c
;	COMDAT ?destroy_remote@@YGXPAUENTITY@@@Z
_TEXT	SEGMENT
_en$ = 8						; size = 4
?destroy_remote@@YGXPAUENTITY@@@Z PROC			; destroy_remote, COMDAT

; 138  : {

  00000	55		 push	 ebp
  00001	8b ec		 mov	 ebp, esp
  00003	83 ec 40	 sub	 esp, 64			; 00000040H
  00006	53		 push	 ebx
  00007	56		 push	 esi
  00008	57		 push	 edi

; 139  : 	#if DEBUG_MODULE
; 140  : 
; 141  : 	debug_log_entity_args (ENTITY_DEBUG_REMOTE, ENTITY_DEBUG_DESTROY, en);
; 142  : 
; 143  : 	#endif
; 144  : 
; 145  : 	transmit_entity_comms_message (ENTITY_COMMS_DESTROY, en);

  00009	8b 45 08	 mov	 eax, DWORD PTR _en$[ebp]
  0000c	50		 push	 eax
  0000d	6a 12		 push	 18			; 00000012H
  0000f	e8 00 00 00 00	 call	 ?transmit_entity_comms_message@@YAXW4ENTITY_COMMS_MESSAGES@@PAUENTITY@@ZZ ; transmit_entity_comms_message
  00014	83 c4 08	 add	 esp, 8

; 146  : }

  00017	5f		 pop	 edi
  00018	5e		 pop	 esi
  00019	5b		 pop	 ebx
  0001a	8b e5		 mov	 esp, ebp
  0001c	5d		 pop	 ebp
  0001d	c2 04 00	 ret	 4
?destroy_remote@@YGXPAUENTITY@@@Z ENDP			; destroy_remote
_TEXT	ENDS
; Function compile flags: /Odtp /ZI
; File c:\users\nhv90\projects\eech\aphavoc\source\entity\special\division\dv_dstry.c
;	COMDAT ?destroy_local@@YGXPAUENTITY@@@Z
_TEXT	SEGMENT
_raw$ = -4						; size = 4
_en$ = 8						; size = 4
?destroy_local@@YGXPAUENTITY@@@Z PROC			; destroy_local, COMDAT

; 80   : {

  00000	55		 push	 ebp
  00001	8b ec		 mov	 ebp, esp
  00003	83 ec 44	 sub	 esp, 68			; 00000044H
  00006	53		 push	 ebx
  00007	56		 push	 esi
  00008	57		 push	 edi

; 81   : 	division
; 82   : 		*raw;
; 83   : 
; 84   : 	////////////////////////////////////////
; 85   : 	//
; 86   : 	// PRE-AMBLE
; 87   : 	//
; 88   : 	////////////////////////////////////////
; 89   : 
; 90   : 	#if DEBUG_MODULE
; 91   : 
; 92   : 	debug_log_entity_args (ENTITY_DEBUG_LOCAL, ENTITY_DEBUG_DESTROY, en);
; 93   : 
; 94   : 	#endif
; 95   : 
; 96   : 	raw = (division *) get_local_entity_data (en);

  00009	8b 45 08	 mov	 eax, DWORD PTR _en$[ebp]
  0000c	8b 48 04	 mov	 ecx, DWORD PTR [eax+4]
  0000f	89 4d fc	 mov	 DWORD PTR _raw$[ebp], ecx

; 97   : 
; 98   : 	////////////////////////////////////////
; 99   : 	//
; 100  : 	// VALIDATE
; 101  : 	//
; 102  : 	////////////////////////////////////////
; 103  : 
; 104  : 	////////////////////////////////////////
; 105  : 	//
; 106  : 	// DESTROY COMPONENTS
; 107  : 	//
; 108  : 	////////////////////////////////////////
; 109  : 
; 110  : 	////////////////////////////////////////
; 111  : 	//
; 112  : 	// UNLINK FROM SYSTEM
; 113  : 	//
; 114  : 	////////////////////////////////////////
; 115  : 
; 116  : 	unlink_local_entity_children (en, LIST_TYPE_DIVISION);

  00012	6a 0b		 push	 11			; 0000000bH
  00014	8b 45 08	 mov	 eax, DWORD PTR _en$[ebp]
  00017	50		 push	 eax
  00018	e8 00 00 00 00	 call	 ?unlink_local_entity_children@@YGXPAUENTITY@@W4LIST_TYPES@@@Z ; unlink_local_entity_children

; 117  : 
; 118  : 	delete_local_entity_from_parents_child_list (en, LIST_TYPE_DIVISION);

  0001d	6a 0b		 push	 11			; 0000000bH
  0001f	8b 45 08	 mov	 eax, DWORD PTR _en$[ebp]
  00022	50		 push	 eax
  00023	e8 00 00 00 00	 call	 ?delete_local_entity_from_parents_child_list@@YGXPAUENTITY@@W4LIST_TYPES@@@Z ; delete_local_entity_from_parents_child_list

; 119  : 
; 120  : 	delete_local_entity_from_parents_child_list (en, LIST_TYPE_DIVISION_HEADQUARTERS);

  00028	6a 0c		 push	 12			; 0000000cH
  0002a	8b 45 08	 mov	 eax, DWORD PTR _en$[ebp]
  0002d	50		 push	 eax
  0002e	e8 00 00 00 00	 call	 ?delete_local_entity_from_parents_child_list@@YGXPAUENTITY@@W4LIST_TYPES@@@Z ; delete_local_entity_from_parents_child_list

; 121  : 
; 122  : 	////////////////////////////////////////
; 123  : 	//
; 124  : 	// FREE ENTITY DATA
; 125  : 	//
; 126  : 	////////////////////////////////////////
; 127  : 
; 128  : 	free_mem (raw);

  00033	8b 45 fc	 mov	 eax, DWORD PTR _raw$[ebp]
  00036	50		 push	 eax
  00037	e8 00 00 00 00	 call	 ?free_mem@@YGXPAX@Z	; free_mem

; 129  : 
; 130  : 	set_free_entity (en);

  0003c	8b 45 08	 mov	 eax, DWORD PTR _en$[ebp]
  0003f	50		 push	 eax
  00040	e8 00 00 00 00	 call	 ?set_free_entity@@YGXPAUENTITY@@@Z ; set_free_entity

; 131  : }

  00045	5f		 pop	 edi
  00046	5e		 pop	 esi
  00047	5b		 pop	 ebx
  00048	8b e5		 mov	 esp, ebp
  0004a	5d		 pop	 ebp
  0004b	c2 04 00	 ret	 4
?destroy_local@@YGXPAUENTITY@@@Z ENDP			; destroy_local
_TEXT	ENDS
; Function compile flags: /Odtp /ZI
; File c:\users\nhv90\projects\eech\aphavoc\source\entity\special\division\dv_dstry.c
;	COMDAT ?overload_division_destroy_functions@@YGXXZ
_TEXT	SEGMENT
?overload_division_destroy_functions@@YGXXZ PROC	; overload_division_destroy_functions, COMDAT

; 233  : {

  00000	55		 push	 ebp
  00001	8b ec		 mov	 ebp, esp
  00003	83 ec 40	 sub	 esp, 64			; 00000040H
  00006	53		 push	 ebx
  00007	56		 push	 esi
  00008	57		 push	 edi

; 234  : 	fn_destroy_local_entity						[ENTITY_TYPE_DIVISION]								= destroy_local;

  00009	b8 04 00 00 00	 mov	 eax, 4
  0000e	c1 e0 03	 shl	 eax, 3
  00011	c7 80 00 00 00
	00 00 00 00 00	 mov	 DWORD PTR ?fn_destroy_local_entity@@3PAP6GXPAUENTITY@@@ZA[eax], OFFSET ?destroy_local@@YGXPAUENTITY@@@Z ; destroy_local

; 235  : 	fn_destroy_client_server_entity			[ENTITY_TYPE_DIVISION][COMMS_MODEL_SERVER]	= destroy_server;

  0001b	b8 08 00 00 00	 mov	 eax, 8
  00020	c1 e0 03	 shl	 eax, 3
  00023	b9 04 00 00 00	 mov	 ecx, 4
  00028	6b d1 00	 imul	 edx, ecx, 0
  0002b	c7 84 10 00 00
	00 00 00 00 00
	00		 mov	 DWORD PTR ?fn_destroy_client_server_entity@@3PAY01P6GXPAUENTITY@@@ZA[eax+edx], OFFSET ?destroy_server@@YGXPAUENTITY@@@Z ; destroy_server

; 236  : 	fn_destroy_client_server_entity			[ENTITY_TYPE_DIVISION][COMMS_MODEL_CLIENT]	= destroy_client;

  00036	b8 08 00 00 00	 mov	 eax, 8
  0003b	c1 e0 03	 shl	 eax, 3
  0003e	b9 04 00 00 00	 mov	 ecx, 4
  00043	c1 e1 00	 shl	 ecx, 0
  00046	c7 84 08 00 00
	00 00 00 00 00
	00		 mov	 DWORD PTR ?fn_destroy_client_server_entity@@3PAY01P6GXPAUENTITY@@@ZA[eax+ecx], OFFSET ?destroy_client@@YGXPAUENTITY@@@Z ; destroy_client

; 237  : 
; 238  : 	fn_destroy_local_entity_family			[ENTITY_TYPE_DIVISION]								= destroy_local_family;

  00051	b8 04 00 00 00	 mov	 eax, 4
  00056	c1 e0 03	 shl	 eax, 3
  00059	c7 80 00 00 00
	00 00 00 00 00	 mov	 DWORD PTR ?fn_destroy_local_entity_family@@3PAP6GXPAUENTITY@@@ZA[eax], OFFSET ?destroy_local_family@@YGXPAUENTITY@@@Z ; destroy_local_family

; 239  : 	fn_destroy_client_server_entity_family	[ENTITY_TYPE_DIVISION][COMMS_MODEL_SERVER]	= destroy_server_family;

  00063	b8 08 00 00 00	 mov	 eax, 8
  00068	c1 e0 03	 shl	 eax, 3
  0006b	b9 04 00 00 00	 mov	 ecx, 4
  00070	6b d1 00	 imul	 edx, ecx, 0
  00073	c7 84 10 00 00
	00 00 00 00 00
	00		 mov	 DWORD PTR ?fn_destroy_client_server_entity_family@@3PAY01P6GXPAUENTITY@@@ZA[eax+edx], OFFSET ?destroy_server_family@@YGXPAUENTITY@@@Z ; destroy_server_family

; 240  : 	fn_destroy_client_server_entity_family	[ENTITY_TYPE_DIVISION][COMMS_MODEL_CLIENT]	= destroy_client_family;

  0007e	b8 08 00 00 00	 mov	 eax, 8
  00083	c1 e0 03	 shl	 eax, 3
  00086	b9 04 00 00 00	 mov	 ecx, 4
  0008b	c1 e1 00	 shl	 ecx, 0
  0008e	c7 84 08 00 00
	00 00 00 00 00
	00		 mov	 DWORD PTR ?fn_destroy_client_server_entity_family@@3PAY01P6GXPAUENTITY@@@ZA[eax+ecx], OFFSET ?destroy_client_family@@YGXPAUENTITY@@@Z ; destroy_client_family

; 241  : 
; 242  : 	fn_kill_local_entity							[ENTITY_TYPE_DIVISION]								= destroy_local;

  00099	b8 04 00 00 00	 mov	 eax, 4
  0009e	c1 e0 03	 shl	 eax, 3
  000a1	c7 80 00 00 00
	00 00 00 00 00	 mov	 DWORD PTR ?fn_kill_local_entity@@3PAP6GXPAUENTITY@@@ZA[eax], OFFSET ?destroy_local@@YGXPAUENTITY@@@Z ; destroy_local

; 243  : 	fn_kill_client_server_entity				[ENTITY_TYPE_DIVISION][COMMS_MODEL_SERVER]	= destroy_server;

  000ab	b8 08 00 00 00	 mov	 eax, 8
  000b0	c1 e0 03	 shl	 eax, 3
  000b3	b9 04 00 00 00	 mov	 ecx, 4
  000b8	6b d1 00	 imul	 edx, ecx, 0
  000bb	c7 84 10 00 00
	00 00 00 00 00
	00		 mov	 DWORD PTR ?fn_kill_client_server_entity@@3PAY01P6GXPAUENTITY@@@ZA[eax+edx], OFFSET ?destroy_server@@YGXPAUENTITY@@@Z ; destroy_server

; 244  : 	fn_kill_client_server_entity				[ENTITY_TYPE_DIVISION][COMMS_MODEL_CLIENT]	= destroy_client;

  000c6	b8 08 00 00 00	 mov	 eax, 8
  000cb	c1 e0 03	 shl	 eax, 3
  000ce	b9 04 00 00 00	 mov	 ecx, 4
  000d3	c1 e1 00	 shl	 ecx, 0
  000d6	c7 84 08 00 00
	00 00 00 00 00
	00		 mov	 DWORD PTR ?fn_kill_client_server_entity@@3PAY01P6GXPAUENTITY@@@ZA[eax+ecx], OFFSET ?destroy_client@@YGXPAUENTITY@@@Z ; destroy_client

; 245  : }

  000e1	5f		 pop	 edi
  000e2	5e		 pop	 esi
  000e3	5b		 pop	 ebx
  000e4	8b e5		 mov	 esp, ebp
  000e6	5d		 pop	 ebp
  000e7	c3		 ret	 0
?overload_division_destroy_functions@@YGXXZ ENDP	; overload_division_destroy_functions
_TEXT	ENDS
END
