; Listing generated by Microsoft (R) Optimizing Compiler Version 19.16.27045.0 

	TITLE	C:\Users\nhv90\Projects\eech\aphavoc\source\entity\special\division\dv_dbase.c
	.686P
	.XMM
	include listing.inc
	.model	flat

INCLUDELIB MSVCRTD
INCLUDELIB OLDNAMES

PUBLIC	?division_database@@3QBUDIVISION_DATA@@B	; division_database
PUBLIC	??_C@_0BF@BEGBEBCD@?$CFs?5Airborne?5Division@	; `string'
PUBLIC	??_C@_0BF@CGOAHKNF@?$CFs?5Armoured?5Division@	; `string'
PUBLIC	??_C@_0BC@CHFGDEBD@?$CFs?5Naval?5Division@	; `string'
PUBLIC	??_C@_0BF@JANNEDNO@?$CFs?5Infantry?5Division@	; `string'
PUBLIC	??_C@_0BC@DPHFNJJA@?$CFs?5Aviation?5Group@	; `string'
PUBLIC	??_C@_0BD@FMCGEPEN@?$CFs?5Transport?5Group@	; `string'
PUBLIC	??_C@_0BD@DMOMEBPL@?$CFs?5Attack?5Squadron@	; `string'
PUBLIC	??_C@_0BE@FPHCKIAC@?$CFs?5Fighter?5Squadron@	; `string'
PUBLIC	??_C@_0BG@BFEHMMAK@?$CFs?5Transport?5Squadron@	; `string'
PUBLIC	??_C@_0BD@MPOHLKAG@?$CFs?5SAM?5Brigade?5ADA@	; `string'
PUBLIC	??_C@_0BE@HFGBBODO@?$CFs?5Armoured?5Brigade@	; `string'
PUBLIC	??_C@_0BF@FEKIPBBH@?$CFs?5Artillery?5Brigade@	; `string'
PUBLIC	??_C@_0BG@BNDMONI@?$CFs?5Carrier?5Task?5Force@	; `string'
PUBLIC	??_C@_0BE@COHFCIAB@?$CFs?5Infantry?5Brigade@	; `string'
PUBLIC	??_C@_0BK@PIGALBPK@?$CFs?5Special?5Forces?5Brigade@ ; `string'
;	COMDAT ??_C@_0BK@PIGALBPK@?$CFs?5Special?5Forces?5Brigade@
CONST	SEGMENT
??_C@_0BK@PIGALBPK@?$CFs?5Special?5Forces?5Brigade@ DB '%s Special Forces'
	DB	' Brigade', 00H				; `string'
CONST	ENDS
;	COMDAT ??_C@_0BE@COHFCIAB@?$CFs?5Infantry?5Brigade@
CONST	SEGMENT
??_C@_0BE@COHFCIAB@?$CFs?5Infantry?5Brigade@ DB '%s Infantry Brigade', 00H ; `string'
CONST	ENDS
;	COMDAT ??_C@_0BG@BNDMONI@?$CFs?5Carrier?5Task?5Force@
CONST	SEGMENT
??_C@_0BG@BNDMONI@?$CFs?5Carrier?5Task?5Force@ DB '%s Carrier Task Force', 00H ; `string'
CONST	ENDS
;	COMDAT ??_C@_0BF@FEKIPBBH@?$CFs?5Artillery?5Brigade@
CONST	SEGMENT
??_C@_0BF@FEKIPBBH@?$CFs?5Artillery?5Brigade@ DB '%s Artillery Brigade', 00H ; `string'
CONST	ENDS
;	COMDAT ??_C@_0BE@HFGBBODO@?$CFs?5Armoured?5Brigade@
CONST	SEGMENT
??_C@_0BE@HFGBBODO@?$CFs?5Armoured?5Brigade@ DB '%s Armoured Brigade', 00H ; `string'
CONST	ENDS
;	COMDAT ??_C@_0BD@MPOHLKAG@?$CFs?5SAM?5Brigade?5ADA@
CONST	SEGMENT
??_C@_0BD@MPOHLKAG@?$CFs?5SAM?5Brigade?5ADA@ DB '%s SAM Brigade ADA', 00H ; `string'
CONST	ENDS
;	COMDAT ??_C@_0BG@BFEHMMAK@?$CFs?5Transport?5Squadron@
CONST	SEGMENT
??_C@_0BG@BFEHMMAK@?$CFs?5Transport?5Squadron@ DB '%s Transport Squadron', 00H ; `string'
CONST	ENDS
;	COMDAT ??_C@_0BE@FPHCKIAC@?$CFs?5Fighter?5Squadron@
CONST	SEGMENT
??_C@_0BE@FPHCKIAC@?$CFs?5Fighter?5Squadron@ DB '%s Fighter Squadron', 00H ; `string'
CONST	ENDS
;	COMDAT ??_C@_0BD@DMOMEBPL@?$CFs?5Attack?5Squadron@
CONST	SEGMENT
??_C@_0BD@DMOMEBPL@?$CFs?5Attack?5Squadron@ DB '%s Attack Squadron', 00H ; `string'
CONST	ENDS
;	COMDAT ??_C@_0BD@FMCGEPEN@?$CFs?5Transport?5Group@
CONST	SEGMENT
??_C@_0BD@FMCGEPEN@?$CFs?5Transport?5Group@ DB '%s Transport Group', 00H ; `string'
CONST	ENDS
;	COMDAT ??_C@_0BC@DPHFNJJA@?$CFs?5Aviation?5Group@
CONST	SEGMENT
??_C@_0BC@DPHFNJJA@?$CFs?5Aviation?5Group@ DB '%s Aviation Group', 00H ; `string'
CONST	ENDS
;	COMDAT ??_C@_0BF@JANNEDNO@?$CFs?5Infantry?5Division@
CONST	SEGMENT
??_C@_0BF@JANNEDNO@?$CFs?5Infantry?5Division@ DB '%s Infantry Division', 00H ; `string'
CONST	ENDS
;	COMDAT ??_C@_0BC@CHFGDEBD@?$CFs?5Naval?5Division@
CONST	SEGMENT
??_C@_0BC@CHFGDEBD@?$CFs?5Naval?5Division@ DB '%s Naval Division', 00H ; `string'
CONST	ENDS
;	COMDAT ??_C@_0BF@CGOAHKNF@?$CFs?5Armoured?5Division@
CONST	SEGMENT
??_C@_0BF@CGOAHKNF@?$CFs?5Armoured?5Division@ DB '%s Armoured Division', 00H ; `string'
CONST	ENDS
;	COMDAT ??_C@_0BF@BEGBEBCD@?$CFs?5Airborne?5Division@
CONST	SEGMENT
??_C@_0BF@BEGBEBCD@?$CFs?5Airborne?5Division@ DB '%s Airborne Division', 00H ; `string'
CONST	ENDS
CONST	SEGMENT
?division_database@@3QBUDIVISION_DATA@@B DD FLAT:??_C@_0BF@BEGBEBCD@?$CFs?5Airborne?5Division@ ; division_database
	DD	011H
	DD	00H
	DD	FLAT:??_C@_0BF@BEGBEBCD@?$CFs?5Airborne?5Division@
	DD	011H
	DD	00H
	DD	FLAT:??_C@_0BF@BEGBEBCD@?$CFs?5Airborne?5Division@
	DD	011H
	DD	00H
	DD	FLAT:??_C@_0BF@CGOAHKNF@?$CFs?5Armoured?5Division@
	DD	011H
	DD	00H
	DD	FLAT:??_C@_0BC@CHFGDEBD@?$CFs?5Naval?5Division@
	DD	011H
	DD	00H
	DD	FLAT:??_C@_0BF@JANNEDNO@?$CFs?5Infantry?5Division@
	DD	011H
	DD	00H
	DD	FLAT:??_C@_0BC@DPHFNJJA@?$CFs?5Aviation?5Group@
	DD	00H
	DD	00H
	DD	FLAT:??_C@_0BD@FMCGEPEN@?$CFs?5Transport?5Group@
	DD	02H
	DD	00H
	DD	FLAT:??_C@_0BD@DMOMEBPL@?$CFs?5Attack?5Squadron@
	DD	01H
	DD	00H
	DD	FLAT:??_C@_0BE@FPHCKIAC@?$CFs?5Fighter?5Squadron@
	DD	01H
	DD	00H
	DD	FLAT:??_C@_0BG@BFEHMMAK@?$CFs?5Transport?5Squadron@
	DD	02H
	DD	00H
	DD	FLAT:??_C@_0BD@MPOHLKAG@?$CFs?5SAM?5Brigade?5ADA@
	DD	03H
	DD	00H
	DD	FLAT:??_C@_0BE@HFGBBODO@?$CFs?5Armoured?5Brigade@
	DD	03H
	DD	04H
	DD	FLAT:??_C@_0BF@FEKIPBBH@?$CFs?5Artillery?5Brigade@
	DD	03H
	DD	02H
	DD	FLAT:??_C@_0BG@BNDMONI@?$CFs?5Carrier?5Task?5Force@
	DD	04H
	DD	00H
	DD	FLAT:??_C@_0BE@COHFCIAB@?$CFs?5Infantry?5Brigade@
	DD	05H
	DD	00H
	DD	FLAT:??_C@_0BK@PIGALBPK@?$CFs?5Special?5Forces?5Brigade@
	DD	05H
	DD	00H
CONST	ENDS
END
