; Listing generated by Microsoft (R) Optimizing Compiler Version 19.16.27045.0 

	TITLE	C:\Users\nhv90\Projects\eech\aphavoc\source\entity\special\division\dv_pack.c
	.686P
	.XMM
	include listing.inc
	.model	flat

INCLUDELIB MSVCRTD
INCLUDELIB OLDNAMES

PUBLIC	?overload_division_pack_functions@@YGXXZ	; overload_division_pack_functions
PUBLIC	?__LINE__Var@?0??pack_local_data@@YGXPAUENTITY@@W4PACK_MODES@@@Z@4JA ; `pack_local_data'::`1'::__LINE__Var
PUBLIC	??_C@_0EO@LEOCMBGK@c?3?2users?2nhv90?2projects?2eech?2ap@ ; `string'
PUBLIC	??_C@_0CH@MMFDPOBJ@?$CImode?5?$DO?$DN?50?$CJ?5?$CG?$CG?5?$CImode?5?$DM?5NUM_PACK@ ; `string'
PUBLIC	?__LINE__Var@?0??unpack_local_data@@YGXPAUENTITY@@W4ENTITY_TYPES@@W4PACK_MODES@@@Z@4JA ; `unpack_local_data'::`1'::__LINE__Var
EXTRN	_memset:PROC
EXTRN	?process_assert@@YGXPBD0H@Z:PROC		; process_assert
EXTRN	?malloc_fast_memory@@YGPAXI@Z:PROC		; malloc_fast_memory
EXTRN	?pack_entity_type@@YGXW4ENTITY_TYPES@@@Z:PROC	; pack_entity_type
EXTRN	?pack_list_root@@YGXPAUENTITY@@W4LIST_TYPES@@PAULIST_ROOT@@@Z:PROC ; pack_list_root
EXTRN	?unpack_list_root@@YGXPAUENTITY@@W4LIST_TYPES@@PAULIST_ROOT@@@Z:PROC ; unpack_list_root
EXTRN	?pack_list_link@@YGXPAUENTITY@@W4LIST_TYPES@@PAULIST_LINK@@@Z:PROC ; pack_list_link
EXTRN	?unpack_list_link@@YGXPAUENTITY@@W4LIST_TYPES@@PAULIST_LINK@@@Z:PROC ; unpack_list_link
EXTRN	?pack_int_value@@YGXPAUENTITY@@W4INT_TYPES@@H@Z:PROC ; pack_int_value
EXTRN	?unpack_int_value@@YGHPAUENTITY@@W4INT_TYPES@@@Z:PROC ; unpack_int_value
EXTRN	?get_free_entity@@YGPAUENTITY@@H@Z:PROC		; get_free_entity
EXTRN	?unpack_entity_safe_index@@YGHXZ:PROC		; unpack_entity_safe_index
EXTRN	?pack_entity_safe_ptr@@YGXPAUENTITY@@@Z:PROC	; pack_entity_safe_ptr
EXTRN	?set_local_division_name@@YGHPAUENTITY@@PAD@Z:PROC ; set_local_division_name
EXTRN	?null_entity_pointer_message@@3PBDB:DWORD	; null_entity_pointer_message
EXTRN	?fn_pack_local_entity_data@@3PAP6GXPAUENTITY@@W4PACK_MODES@@@ZA:BYTE ; fn_pack_local_entity_data
EXTRN	?fn_unpack_local_entity_data@@3PAP6GXPAUENTITY@@W4ENTITY_TYPES@@W4PACK_MODES@@@ZA:BYTE ; fn_unpack_local_entity_data
;	COMDAT ?__LINE__Var@?0??unpack_local_data@@YGXPAUENTITY@@W4ENTITY_TYPES@@W4PACK_MODES@@@Z@4JA
_DATA	SEGMENT
?__LINE__Var@?0??unpack_local_data@@YGXPAUENTITY@@W4ENTITY_TYPES@@W4PACK_MODES@@@Z@4JA DD 087H ; `unpack_local_data'::`1'::__LINE__Var
_DATA	ENDS
;	COMDAT ??_C@_0CH@MMFDPOBJ@?$CImode?5?$DO?$DN?50?$CJ?5?$CG?$CG?5?$CImode?5?$DM?5NUM_PACK@
CONST	SEGMENT
??_C@_0CH@MMFDPOBJ@?$CImode?5?$DO?$DN?50?$CJ?5?$CG?$CG?5?$CImode?5?$DM?5NUM_PACK@ DB '('
	DB	'mode >= 0) && (mode < NUM_PACK_MODES)', 00H	; `string'
CONST	ENDS
;	COMDAT ??_C@_0EO@LEOCMBGK@c?3?2users?2nhv90?2projects?2eech?2ap@
CONST	SEGMENT
??_C@_0EO@LEOCMBGK@c?3?2users?2nhv90?2projects?2eech?2ap@ DB 'c:\users\nh'
	DB	'v90\projects\eech\aphavoc\source\entity\special\division\dv_p'
	DB	'ack.c', 00H					; `string'
CONST	ENDS
;	COMDAT ?__LINE__Var@?0??pack_local_data@@YGXPAUENTITY@@W4PACK_MODES@@@Z@4JA
_DATA	SEGMENT
?__LINE__Var@?0??pack_local_data@@YGXPAUENTITY@@W4PACK_MODES@@@Z@4JA DD 050H ; `pack_local_data'::`1'::__LINE__Var
_DATA	ENDS
; Function compile flags: /Odtp /ZI
; File c:\users\nhv90\projects\eech\aphavoc\source\entity\special\division\dv_pack.c
;	COMDAT ?unpack_local_data@@YGXPAUENTITY@@W4ENTITY_TYPES@@W4PACK_MODES@@@Z
_TEXT	SEGMENT
tv70 = -76						; size = 4
_raw$1 = -8						; size = 4
_index$2 = -4						; size = 4
_en$ = 8						; size = 4
_type$ = 12						; size = 4
_mode$ = 16						; size = 4
?unpack_local_data@@YGXPAUENTITY@@W4ENTITY_TYPES@@W4PACK_MODES@@@Z PROC ; unpack_local_data, COMDAT

; 135  : {

  00000	55		 push	 ebp
  00001	8b ec		 mov	 ebp, esp
  00003	83 ec 4c	 sub	 esp, 76			; 0000004cH
  00006	53		 push	 ebx
  00007	56		 push	 esi
  00008	57		 push	 edi

; 136  : 	ASSERT ((mode >= 0) && (mode < NUM_PACK_MODES));

  00009	83 7d 10 00	 cmp	 DWORD PTR _mode$[ebp], 0
  0000d	7c 06		 jl	 SHORT $LN5@unpack_loc
  0000f	83 7d 10 04	 cmp	 DWORD PTR _mode$[ebp], 4
  00013	7c 18		 jl	 SHORT $LN4@unpack_loc
$LN5@unpack_loc:
  00015	a1 00 00 00 00	 mov	 eax, DWORD PTR ?__LINE__Var@?0??unpack_local_data@@YGXPAUENTITY@@W4ENTITY_TYPES@@W4PACK_MODES@@@Z@4JA
  0001a	83 c0 01	 add	 eax, 1
  0001d	50		 push	 eax
  0001e	68 00 00 00 00	 push	 OFFSET ??_C@_0EO@LEOCMBGK@c?3?2users?2nhv90?2projects?2eech?2ap@
  00023	68 00 00 00 00	 push	 OFFSET ??_C@_0CH@MMFDPOBJ@?$CImode?5?$DO?$DN?50?$CJ?5?$CG?$CG?5?$CImode?5?$DM?5NUM_PACK@
  00028	e8 00 00 00 00	 call	 ?process_assert@@YGXPBD0H@Z ; process_assert
$LN4@unpack_loc:

; 137  : 
; 138  : 	switch (mode)

  0002d	8b 45 10	 mov	 eax, DWORD PTR _mode$[ebp]
  00030	89 45 b4	 mov	 DWORD PTR tv70[ebp], eax
  00033	83 7d b4 00	 cmp	 DWORD PTR tv70[ebp], 0
  00037	0f 8c b1 00 00
	00		 jl	 $LN1@unpack_loc
  0003d	83 7d b4 01	 cmp	 DWORD PTR tv70[ebp], 1
  00041	7e 05		 jle	 SHORT $LN6@unpack_loc
  00043	e9 a6 00 00 00	 jmp	 $LN1@unpack_loc
$LN6@unpack_loc:

; 139  : 	{
; 140  : 		////////////////////////////////////////
; 141  : 		case PACK_MODE_SERVER_SESSION:
; 142  : 		case PACK_MODE_CLIENT_SESSION:
; 143  : 		////////////////////////////////////////
; 144  : 		{
; 145  : 			int
; 146  : 				index;
; 147  : 
; 148  : 			division
; 149  : 				*raw;
; 150  : 
; 151  : 			//
; 152  : 			// create entity
; 153  : 			//
; 154  : 
; 155  : 			index = unpack_entity_safe_index ();

  00048	e8 00 00 00 00	 call	 ?unpack_entity_safe_index@@YGHXZ ; unpack_entity_safe_index
  0004d	89 45 fc	 mov	 DWORD PTR _index$2[ebp], eax

; 156  : 
; 157  : 			en = get_free_entity (index);

  00050	8b 45 fc	 mov	 eax, DWORD PTR _index$2[ebp]
  00053	50		 push	 eax
  00054	e8 00 00 00 00	 call	 ?get_free_entity@@YGPAUENTITY@@H@Z ; get_free_entity
  00059	89 45 08	 mov	 DWORD PTR _en$[ebp], eax

; 158  : 
; 159  : 			set_local_entity_type (en, type);

  0005c	8b 45 08	 mov	 eax, DWORD PTR _en$[ebp]
  0005f	8b 4d 0c	 mov	 ecx, DWORD PTR _type$[ebp]
  00062	89 08		 mov	 DWORD PTR [eax], ecx

; 160  : 
; 161  : 			raw = (division *) malloc_fast_mem (sizeof (division));

  00064	6a 58		 push	 88			; 00000058H
  00066	e8 00 00 00 00	 call	 ?malloc_fast_memory@@YGPAXI@Z ; malloc_fast_memory
  0006b	89 45 f8	 mov	 DWORD PTR _raw$1[ebp], eax

; 162  : 
; 163  : 			set_local_entity_data (en, raw);

  0006e	8b 45 08	 mov	 eax, DWORD PTR _en$[ebp]
  00071	8b 4d f8	 mov	 ecx, DWORD PTR _raw$1[ebp]
  00074	89 48 04	 mov	 DWORD PTR [eax+4], ecx

; 164  : 
; 165  : 			memset (raw, 0, sizeof (division));

  00077	6a 58		 push	 88			; 00000058H
  00079	6a 00		 push	 0
  0007b	8b 45 f8	 mov	 eax, DWORD PTR _raw$1[ebp]
  0007e	50		 push	 eax
  0007f	e8 00 00 00 00	 call	 _memset
  00084	83 c4 0c	 add	 esp, 12			; 0000000cH

; 166  : 
; 167  : 			//
; 168  : 			// unpack data (in exactly the same order as the data was packed)
; 169  : 			//
; 170  : 
; 171  : 			raw->sub_type = unpack_int_value (en, INT_TYPE_ENTITY_SUB_TYPE);

  00087	6a 34		 push	 52			; 00000034H
  00089	8b 45 08	 mov	 eax, DWORD PTR _en$[ebp]
  0008c	50		 push	 eax
  0008d	e8 00 00 00 00	 call	 ?unpack_int_value@@YGHPAUENTITY@@W4INT_TYPES@@@Z ; unpack_int_value
  00092	8b 4d f8	 mov	 ecx, DWORD PTR _raw$1[ebp]
  00095	89 01		 mov	 DWORD PTR [ecx], eax

; 172  : 
; 173  : 			raw->division_id = unpack_int_value (en, INT_TYPE_DIVISION_ID);

  00097	6a 30		 push	 48			; 00000030H
  00099	8b 45 08	 mov	 eax, DWORD PTR _en$[ebp]
  0009c	50		 push	 eax
  0009d	e8 00 00 00 00	 call	 ?unpack_int_value@@YGHPAUENTITY@@W4INT_TYPES@@@Z ; unpack_int_value
  000a2	8b 4d f8	 mov	 ecx, DWORD PTR _raw$1[ebp]
  000a5	89 41 04	 mov	 DWORD PTR [ecx+4], eax

; 174  : 
; 175  : 			unpack_list_root (en, LIST_TYPE_DIVISION, &raw->division_root);

  000a8	8b 45 f8	 mov	 eax, DWORD PTR _raw$1[ebp]
  000ab	83 c0 08	 add	 eax, 8
  000ae	50		 push	 eax
  000af	6a 0b		 push	 11			; 0000000bH
  000b1	8b 4d 08	 mov	 ecx, DWORD PTR _en$[ebp]
  000b4	51		 push	 ecx
  000b5	e8 00 00 00 00	 call	 ?unpack_list_root@@YGXPAUENTITY@@W4LIST_TYPES@@PAULIST_ROOT@@@Z ; unpack_list_root

; 176  : 
; 177  : 			unpack_list_link (en, LIST_TYPE_DIVISION, &raw->division_link);

  000ba	8b 45 f8	 mov	 eax, DWORD PTR _raw$1[ebp]
  000bd	83 c0 0c	 add	 eax, 12			; 0000000cH
  000c0	50		 push	 eax
  000c1	6a 0b		 push	 11			; 0000000bH
  000c3	8b 4d 08	 mov	 ecx, DWORD PTR _en$[ebp]
  000c6	51		 push	 ecx
  000c7	e8 00 00 00 00	 call	 ?unpack_list_link@@YGXPAUENTITY@@W4LIST_TYPES@@PAULIST_LINK@@@Z ; unpack_list_link

; 178  : 
; 179  : 			unpack_list_link (en, LIST_TYPE_DIVISION_HEADQUARTERS, &raw->division_headquarters_link);

  000cc	8b 45 f8	 mov	 eax, DWORD PTR _raw$1[ebp]
  000cf	83 c0 18	 add	 eax, 24			; 00000018H
  000d2	50		 push	 eax
  000d3	6a 0c		 push	 12			; 0000000cH
  000d5	8b 4d 08	 mov	 ecx, DWORD PTR _en$[ebp]
  000d8	51		 push	 ecx
  000d9	e8 00 00 00 00	 call	 ?unpack_list_link@@YGXPAUENTITY@@W4LIST_TYPES@@PAULIST_LINK@@@Z ; unpack_list_link

; 180  : 
; 181  : 			set_local_division_name (en, raw->division_name);

  000de	8b 45 f8	 mov	 eax, DWORD PTR _raw$1[ebp]
  000e1	83 c0 24	 add	 eax, 36			; 00000024H
  000e4	50		 push	 eax
  000e5	8b 4d 08	 mov	 ecx, DWORD PTR _en$[ebp]
  000e8	51		 push	 ecx
  000e9	e8 00 00 00 00	 call	 ?set_local_division_name@@YGHPAUENTITY@@PAD@Z ; set_local_division_name
$LN1@unpack_loc:

; 182  : 
; 183  : 			break;
; 184  : 		}
; 185  : 		////////////////////////////////////////
; 186  : 		case PACK_MODE_BROWSE_SESSION:
; 187  : 		////////////////////////////////////////
; 188  : 		{
; 189  : 			break;
; 190  : 		}
; 191  : 		////////////////////////////////////////
; 192  : 		case PACK_MODE_UPDATE_ENTITY:
; 193  : 		////////////////////////////////////////
; 194  : 		{
; 195  : 			//
; 196  : 			// always use access functions to set the data
; 197  : 			//
; 198  : 
; 199  : 			break;
; 200  : 		}
; 201  : 	}
; 202  : }

  000ee	5f		 pop	 edi
  000ef	5e		 pop	 esi
  000f0	5b		 pop	 ebx
  000f1	8b e5		 mov	 esp, ebp
  000f3	5d		 pop	 ebp
  000f4	c2 0c 00	 ret	 12			; 0000000cH
?unpack_local_data@@YGXPAUENTITY@@W4ENTITY_TYPES@@W4PACK_MODES@@@Z ENDP ; unpack_local_data
_TEXT	ENDS
; Function compile flags: /Odtp /ZI
; File c:\users\nhv90\projects\eech\aphavoc\source\entity\special\division\dv_pack.c
;	COMDAT ?pack_local_data@@YGXPAUENTITY@@W4PACK_MODES@@@Z
_TEXT	SEGMENT
tv78 = -72						; size = 4
tv70 = -72						; size = 4
_raw$1 = -4						; size = 4
_en$ = 8						; size = 4
_mode$ = 12						; size = 4
?pack_local_data@@YGXPAUENTITY@@W4PACK_MODES@@@Z PROC	; pack_local_data, COMDAT

; 80   : {

  00000	55		 push	 ebp
  00001	8b ec		 mov	 ebp, esp
  00003	83 ec 48	 sub	 esp, 72			; 00000048H
  00006	53		 push	 ebx
  00007	56		 push	 esi
  00008	57		 push	 edi

; 81   : 	ASSERT ((mode >= 0) && (mode < NUM_PACK_MODES));

  00009	83 7d 0c 00	 cmp	 DWORD PTR _mode$[ebp], 0
  0000d	7c 06		 jl	 SHORT $LN5@pack_local
  0000f	83 7d 0c 04	 cmp	 DWORD PTR _mode$[ebp], 4
  00013	7c 18		 jl	 SHORT $LN4@pack_local
$LN5@pack_local:
  00015	a1 00 00 00 00	 mov	 eax, DWORD PTR ?__LINE__Var@?0??pack_local_data@@YGXPAUENTITY@@W4PACK_MODES@@@Z@4JA
  0001a	83 c0 01	 add	 eax, 1
  0001d	50		 push	 eax
  0001e	68 00 00 00 00	 push	 OFFSET ??_C@_0EO@LEOCMBGK@c?3?2users?2nhv90?2projects?2eech?2ap@
  00023	68 00 00 00 00	 push	 OFFSET ??_C@_0CH@MMFDPOBJ@?$CImode?5?$DO?$DN?50?$CJ?5?$CG?$CG?5?$CImode?5?$DM?5NUM_PACK@
  00028	e8 00 00 00 00	 call	 ?process_assert@@YGXPBD0H@Z ; process_assert
$LN4@pack_local:

; 82   : 
; 83   : 	switch (mode)

  0002d	8b 45 0c	 mov	 eax, DWORD PTR _mode$[ebp]
  00030	89 45 b8	 mov	 DWORD PTR tv70[ebp], eax
  00033	83 7d b8 00	 cmp	 DWORD PTR tv70[ebp], 0
  00037	0f 8c b0 00 00
	00		 jl	 $LN1@pack_local
  0003d	83 7d b8 01	 cmp	 DWORD PTR tv70[ebp], 1
  00041	7e 05		 jle	 SHORT $LN6@pack_local
  00043	e9 a5 00 00 00	 jmp	 $LN1@pack_local
$LN6@pack_local:

; 84   : 	{
; 85   : 		////////////////////////////////////////
; 86   : 		case PACK_MODE_SERVER_SESSION:
; 87   : 		case PACK_MODE_CLIENT_SESSION:
; 88   : 		////////////////////////////////////////
; 89   : 		{
; 90   : 			division
; 91   : 				*raw;
; 92   : 
; 93   : 			raw = (division *) get_local_entity_data (en);

  00048	8b 45 08	 mov	 eax, DWORD PTR _en$[ebp]
  0004b	8b 48 04	 mov	 ecx, DWORD PTR [eax+4]
  0004e	89 4d fc	 mov	 DWORD PTR _raw$1[ebp], ecx

; 94   : 
; 95   : 			pack_entity_type (get_local_entity_type (en));

  00051	83 7d 08 00	 cmp	 DWORD PTR _en$[ebp], 0
  00055	74 0a		 je	 SHORT $LN10@pack_local
  00057	8b 45 08	 mov	 eax, DWORD PTR _en$[ebp]
  0005a	8b 08		 mov	 ecx, DWORD PTR [eax]
  0005c	89 4d b8	 mov	 DWORD PTR tv78[ebp], ecx
  0005f	eb 21		 jmp	 SHORT $LN11@pack_local
$LN10@pack_local:
  00061	8b 15 00 00 00
	00		 mov	 edx, DWORD PTR ?__LINE__Var@?0??pack_local_data@@YGXPAUENTITY@@W4PACK_MODES@@@Z@4JA
  00067	83 c2 0f	 add	 edx, 15			; 0000000fH
  0006a	52		 push	 edx
  0006b	68 00 00 00 00	 push	 OFFSET ??_C@_0EO@LEOCMBGK@c?3?2users?2nhv90?2projects?2eech?2ap@
  00070	a1 00 00 00 00	 mov	 eax, DWORD PTR ?null_entity_pointer_message@@3PBDB ; null_entity_pointer_message
  00075	50		 push	 eax
  00076	e8 00 00 00 00	 call	 ?process_assert@@YGXPBD0H@Z ; process_assert
  0007b	c7 45 b8 00 00
	00 00		 mov	 DWORD PTR tv78[ebp], 0
$LN11@pack_local:
  00082	8b 4d b8	 mov	 ecx, DWORD PTR tv78[ebp]
  00085	51		 push	 ecx
  00086	e8 00 00 00 00	 call	 ?pack_entity_type@@YGXW4ENTITY_TYPES@@@Z ; pack_entity_type

; 96   : 
; 97   : 			pack_entity_safe_ptr (en);

  0008b	8b 45 08	 mov	 eax, DWORD PTR _en$[ebp]
  0008e	50		 push	 eax
  0008f	e8 00 00 00 00	 call	 ?pack_entity_safe_ptr@@YGXPAUENTITY@@@Z ; pack_entity_safe_ptr

; 98   : 
; 99   : 			//
; 100  : 			// pack data (in exactly the same order as the data is unpacked)
; 101  : 			//
; 102  : 
; 103  : 			pack_int_value (en, INT_TYPE_ENTITY_SUB_TYPE, raw->sub_type);

  00094	8b 45 fc	 mov	 eax, DWORD PTR _raw$1[ebp]
  00097	8b 08		 mov	 ecx, DWORD PTR [eax]
  00099	51		 push	 ecx
  0009a	6a 34		 push	 52			; 00000034H
  0009c	8b 55 08	 mov	 edx, DWORD PTR _en$[ebp]
  0009f	52		 push	 edx
  000a0	e8 00 00 00 00	 call	 ?pack_int_value@@YGXPAUENTITY@@W4INT_TYPES@@H@Z ; pack_int_value

; 104  : 
; 105  : 			pack_int_value (en, INT_TYPE_DIVISION_ID, raw->division_id);

  000a5	8b 45 fc	 mov	 eax, DWORD PTR _raw$1[ebp]
  000a8	8b 48 04	 mov	 ecx, DWORD PTR [eax+4]
  000ab	51		 push	 ecx
  000ac	6a 30		 push	 48			; 00000030H
  000ae	8b 55 08	 mov	 edx, DWORD PTR _en$[ebp]
  000b1	52		 push	 edx
  000b2	e8 00 00 00 00	 call	 ?pack_int_value@@YGXPAUENTITY@@W4INT_TYPES@@H@Z ; pack_int_value

; 106  : 
; 107  : 			pack_list_root (en, LIST_TYPE_DIVISION, &raw->division_root);

  000b7	8b 45 fc	 mov	 eax, DWORD PTR _raw$1[ebp]
  000ba	83 c0 08	 add	 eax, 8
  000bd	50		 push	 eax
  000be	6a 0b		 push	 11			; 0000000bH
  000c0	8b 4d 08	 mov	 ecx, DWORD PTR _en$[ebp]
  000c3	51		 push	 ecx
  000c4	e8 00 00 00 00	 call	 ?pack_list_root@@YGXPAUENTITY@@W4LIST_TYPES@@PAULIST_ROOT@@@Z ; pack_list_root

; 108  : 
; 109  : 			pack_list_link (en, LIST_TYPE_DIVISION, &raw->division_link);

  000c9	8b 45 fc	 mov	 eax, DWORD PTR _raw$1[ebp]
  000cc	83 c0 0c	 add	 eax, 12			; 0000000cH
  000cf	50		 push	 eax
  000d0	6a 0b		 push	 11			; 0000000bH
  000d2	8b 4d 08	 mov	 ecx, DWORD PTR _en$[ebp]
  000d5	51		 push	 ecx
  000d6	e8 00 00 00 00	 call	 ?pack_list_link@@YGXPAUENTITY@@W4LIST_TYPES@@PAULIST_LINK@@@Z ; pack_list_link

; 110  : 
; 111  : 			pack_list_link (en, LIST_TYPE_DIVISION_HEADQUARTERS, &raw->division_headquarters_link);

  000db	8b 45 fc	 mov	 eax, DWORD PTR _raw$1[ebp]
  000de	83 c0 18	 add	 eax, 24			; 00000018H
  000e1	50		 push	 eax
  000e2	6a 0c		 push	 12			; 0000000cH
  000e4	8b 4d 08	 mov	 ecx, DWORD PTR _en$[ebp]
  000e7	51		 push	 ecx
  000e8	e8 00 00 00 00	 call	 ?pack_list_link@@YGXPAUENTITY@@W4LIST_TYPES@@PAULIST_LINK@@@Z ; pack_list_link
$LN1@pack_local:

; 112  : 
; 113  : 			break;
; 114  : 		}
; 115  : 		////////////////////////////////////////
; 116  : 		case PACK_MODE_BROWSE_SESSION:
; 117  : 		////////////////////////////////////////
; 118  : 		{
; 119  : 			break;
; 120  : 		}
; 121  : 		////////////////////////////////////////
; 122  : 		case PACK_MODE_UPDATE_ENTITY:
; 123  : 		////////////////////////////////////////
; 124  : 		{
; 125  : 			break;
; 126  : 		}
; 127  : 	}
; 128  : }

  000ed	5f		 pop	 edi
  000ee	5e		 pop	 esi
  000ef	5b		 pop	 ebx
  000f0	8b e5		 mov	 esp, ebp
  000f2	5d		 pop	 ebp
  000f3	c2 08 00	 ret	 8
?pack_local_data@@YGXPAUENTITY@@W4PACK_MODES@@@Z ENDP	; pack_local_data
_TEXT	ENDS
; Function compile flags: /Odtp /ZI
; File c:\users\nhv90\projects\eech\aphavoc\source\entity\special\division\dv_pack.c
;	COMDAT ?overload_division_pack_functions@@YGXXZ
_TEXT	SEGMENT
?overload_division_pack_functions@@YGXXZ PROC		; overload_division_pack_functions, COMDAT

; 209  : {

  00000	55		 push	 ebp
  00001	8b ec		 mov	 ebp, esp
  00003	83 ec 40	 sub	 esp, 64			; 00000040H
  00006	53		 push	 ebx
  00007	56		 push	 esi
  00008	57		 push	 edi

; 210  : 	fn_pack_local_entity_data[ENTITY_TYPE_DIVISION]		= pack_local_data;

  00009	b8 04 00 00 00	 mov	 eax, 4
  0000e	c1 e0 03	 shl	 eax, 3
  00011	c7 80 00 00 00
	00 00 00 00 00	 mov	 DWORD PTR ?fn_pack_local_entity_data@@3PAP6GXPAUENTITY@@W4PACK_MODES@@@ZA[eax], OFFSET ?pack_local_data@@YGXPAUENTITY@@W4PACK_MODES@@@Z ; pack_local_data

; 211  : 
; 212  : 	fn_unpack_local_entity_data[ENTITY_TYPE_DIVISION]	= unpack_local_data;

  0001b	b8 04 00 00 00	 mov	 eax, 4
  00020	c1 e0 03	 shl	 eax, 3
  00023	c7 80 00 00 00
	00 00 00 00 00	 mov	 DWORD PTR ?fn_unpack_local_entity_data@@3PAP6GXPAUENTITY@@W4ENTITY_TYPES@@W4PACK_MODES@@@ZA[eax], OFFSET ?unpack_local_data@@YGXPAUENTITY@@W4ENTITY_TYPES@@W4PACK_MODES@@@Z ; unpack_local_data

; 213  : }

  0002d	5f		 pop	 edi
  0002e	5e		 pop	 esi
  0002f	5b		 pop	 ebx
  00030	8b e5		 mov	 esp, ebp
  00032	5d		 pop	 ebp
  00033	c3		 ret	 0
?overload_division_pack_functions@@YGXXZ ENDP		; overload_division_pack_functions
_TEXT	ENDS
END
