; Listing generated by Microsoft (R) Optimizing Compiler Version 19.16.27045.0 

	TITLE	C:\Users\nhv90\Projects\eech\aphavoc\source\entity\special\effect\ef_int.c
	.686P
	.XMM
	include listing.inc
	.model	flat

INCLUDELIB MSVCRTD
INCLUDELIB OLDNAMES

PUBLIC	?overload_effect_int_value_functions@@YGXW4ENTITY_TYPES@@@Z ; overload_effect_int_value_functions
PUBLIC	?__LINE__Var@?0??set_local_int_value@@YGXPAUENTITY@@W4INT_TYPES@@H@Z@4JA ; `set_local_int_value'::`1'::__LINE__Var
PUBLIC	??_C@_0EL@EMHGJCN@c?3?2users?2nhv90?2projects?2eech?2ap@ ; `string'
PUBLIC	?__LINE__Var@?0??set_server_int_value@@YGXPAUENTITY@@W4INT_TYPES@@H@Z@4JA ; `set_server_int_value'::`1'::__LINE__Var
PUBLIC	??_C@_0CB@CFOCLFOK@assert_client_server_local_fn?5?$CI@ ; `string'
PUBLIC	??_C@_0CC@BNNNEGEG@assert_client_server_remote_fn?5@ ; `string'
PUBLIC	?__LINE__Var@?0??set_client_int_value@@YGXPAUENTITY@@W4INT_TYPES@@H@Z@4JA ; `set_client_int_value'::`1'::__LINE__Var
PUBLIC	?__LINE__Var@?0??get_local_int_value@@YGHPAUENTITY@@W4INT_TYPES@@@Z@4JA ; `get_local_int_value'::`1'::__LINE__Var
EXTRN	?process_assert@@YGXPBD0H@Z:PROC		; process_assert
EXTRN	?debug_fatal@@YAXPBDZZ:PROC			; debug_fatal
EXTRN	?transmit_entity_comms_message@@YAXW4ENTITY_COMMS_MESSAGES@@PAUENTITY@@ZZ:PROC ; transmit_entity_comms_message
EXTRN	?assert_client_server_local_fn@@YGHXZ:PROC	; assert_client_server_local_fn
EXTRN	?assert_client_server_remote_fn@@YGHXZ:PROC	; assert_client_server_remote_fn
EXTRN	?null_entity_pointer_message@@3PBDB:DWORD	; null_entity_pointer_message
EXTRN	?entity_type_database@@3PAUENTITY_TYPE_DATA@@A:BYTE ; entity_type_database
EXTRN	?system_comms_data_flow@@3W4COMMS_DATA_FLOW_TYPES@@A:DWORD ; system_comms_data_flow
EXTRN	?int_type_database@@3PAUINT_TYPE_DATA@@A:BYTE	; int_type_database
EXTRN	?debug_fatal_invalid_int_type_message@@3PBDB:DWORD ; debug_fatal_invalid_int_type_message
EXTRN	?fn_set_local_entity_raw_int_value@@3PAY0BBH@P6GXPAUENTITY@@W4INT_TYPES@@H@ZA:BYTE ; fn_set_local_entity_raw_int_value
EXTRN	?fn_set_local_entity_int_value@@3PAY0BBH@P6GXPAUENTITY@@W4INT_TYPES@@H@ZA:BYTE ; fn_set_local_entity_int_value
EXTRN	?fn_set_client_server_entity_int_value@@3PAY1BBH@1P6GXPAUENTITY@@W4INT_TYPES@@H@ZA:BYTE ; fn_set_client_server_entity_int_value
EXTRN	?fn_get_local_entity_int_value@@3PAY0BBH@P6GHPAUENTITY@@W4INT_TYPES@@@ZA:BYTE ; fn_get_local_entity_int_value
EXTRN	?entities@@3PAUENTITY@@A:DWORD			; entities
;	COMDAT ?__LINE__Var@?0??get_local_int_value@@YGHPAUENTITY@@W4INT_TYPES@@@Z@4JA
_DATA	SEGMENT
?__LINE__Var@?0??get_local_int_value@@YGHPAUENTITY@@W4INT_TYPES@@@Z@4JA DD 0a8H ; `get_local_int_value'::`1'::__LINE__Var
_DATA	ENDS
;	COMDAT ?__LINE__Var@?0??set_client_int_value@@YGXPAUENTITY@@W4INT_TYPES@@H@Z@4JA
_DATA	SEGMENT
?__LINE__Var@?0??set_client_int_value@@YGXPAUENTITY@@W4INT_TYPES@@H@Z@4JA DD 094H ; `set_client_int_value'::`1'::__LINE__Var
_DATA	ENDS
;	COMDAT ??_C@_0CC@BNNNEGEG@assert_client_server_remote_fn?5@
CONST	SEGMENT
??_C@_0CC@BNNNEGEG@assert_client_server_remote_fn?5@ DB 'assert_client_se'
	DB	'rver_remote_fn ()', 00H			; `string'
CONST	ENDS
;	COMDAT ??_C@_0CB@CFOCLFOK@assert_client_server_local_fn?5?$CI@
CONST	SEGMENT
??_C@_0CB@CFOCLFOK@assert_client_server_local_fn?5?$CI@ DB 'assert_client'
	DB	'_server_local_fn ()', 00H			; `string'
CONST	ENDS
;	COMDAT ?__LINE__Var@?0??set_server_int_value@@YGXPAUENTITY@@W4INT_TYPES@@H@Z@4JA
_DATA	SEGMENT
?__LINE__Var@?0??set_server_int_value@@YGXPAUENTITY@@W4INT_TYPES@@H@Z@4JA DD 085H ; `set_server_int_value'::`1'::__LINE__Var
_DATA	ENDS
;	COMDAT ??_C@_0EL@EMHGJCN@c?3?2users?2nhv90?2projects?2eech?2ap@
CONST	SEGMENT
??_C@_0EL@EMHGJCN@c?3?2users?2nhv90?2projects?2eech?2ap@ DB 'c:\users\nhv'
	DB	'90\projects\eech\aphavoc\source\entity\special\effect\ef_int.'
	DB	'c', 00H					; `string'
CONST	ENDS
;	COMDAT ?__LINE__Var@?0??set_local_int_value@@YGXPAUENTITY@@W4INT_TYPES@@H@Z@4JA
_DATA	SEGMENT
?__LINE__Var@?0??set_local_int_value@@YGXPAUENTITY@@W4INT_TYPES@@H@Z@4JA DD 050H ; `set_local_int_value'::`1'::__LINE__Var
_DATA	ENDS
; Function compile flags: /Odtp /ZI
; File c:\users\nhv90\projects\eech\aphavoc\source\entity\special\effect\ef_int.c
;	COMDAT ?get_local_int_value@@YGHPAUENTITY@@W4INT_TYPES@@@Z
_TEXT	SEGMENT
tv83 = -76						; size = 4
tv65 = -76						; size = 4
_value$ = -8						; size = 4
_raw$ = -4						; size = 4
_en$ = 8						; size = 4
_type$ = 12						; size = 4
?get_local_int_value@@YGHPAUENTITY@@W4INT_TYPES@@@Z PROC ; get_local_int_value, COMDAT

; 168  : {

  00000	55		 push	 ebp
  00001	8b ec		 mov	 ebp, esp
  00003	83 ec 4c	 sub	 esp, 76			; 0000004cH
  00006	53		 push	 ebx
  00007	56		 push	 esi
  00008	57		 push	 edi

; 169  : 	effect
; 170  : 		*raw;
; 171  : 
; 172  : 	int
; 173  : 		value;
; 174  : 
; 175  : 	raw = (effect *) get_local_entity_data (en);

  00009	8b 45 08	 mov	 eax, DWORD PTR _en$[ebp]
  0000c	8b 48 04	 mov	 ecx, DWORD PTR [eax+4]
  0000f	89 4d fc	 mov	 DWORD PTR _raw$[ebp], ecx

; 176  : 
; 177  : 	switch (type)

  00012	8b 45 0c	 mov	 eax, DWORD PTR _type$[ebp]
  00015	89 45 b4	 mov	 DWORD PTR tv65[ebp], eax
  00018	83 7d b4 34	 cmp	 DWORD PTR tv65[ebp], 52	; 00000034H
  0001c	74 02		 je	 SHORT $LN4@get_local_
  0001e	eb 0a		 jmp	 SHORT $LN5@get_local_
$LN4@get_local_:

; 178  : 	{
; 179  : 		////////////////////////////////////////
; 180  : 		case INT_TYPE_ENTITY_SUB_TYPE:
; 181  : 		////////////////////////////////////////
; 182  : 		{
; 183  : 			value = raw->sub_type;

  00020	8b 45 fc	 mov	 eax, DWORD PTR _raw$[ebp]
  00023	8b 08		 mov	 ecx, DWORD PTR [eax]
  00025	89 4d f8	 mov	 DWORD PTR _value$[ebp], ecx

; 184  : 
; 185  : 			break;

  00028	eb 72		 jmp	 SHORT $LN2@get_local_
$LN5@get_local_:

; 186  : 		}
; 187  : 		////////////////////////////////////////
; 188  : 		default:
; 189  : 		////////////////////////////////////////
; 190  : 		{
; 191  : 			debug_fatal_invalid_int_type (en, type);

  0002a	83 7d 08 00	 cmp	 DWORD PTR _en$[ebp], 0
  0002e	74 0a		 je	 SHORT $LN7@get_local_
  00030	8b 45 08	 mov	 eax, DWORD PTR _en$[ebp]
  00033	8b 08		 mov	 ecx, DWORD PTR [eax]
  00035	89 4d b4	 mov	 DWORD PTR tv83[ebp], ecx
  00038	eb 21		 jmp	 SHORT $LN8@get_local_
$LN7@get_local_:
  0003a	8b 15 00 00 00
	00		 mov	 edx, DWORD PTR ?__LINE__Var@?0??get_local_int_value@@YGHPAUENTITY@@W4INT_TYPES@@@Z@4JA
  00040	83 c2 17	 add	 edx, 23			; 00000017H
  00043	52		 push	 edx
  00044	68 00 00 00 00	 push	 OFFSET ??_C@_0EL@EMHGJCN@c?3?2users?2nhv90?2projects?2eech?2ap@
  00049	a1 00 00 00 00	 mov	 eax, DWORD PTR ?null_entity_pointer_message@@3PBDB ; null_entity_pointer_message
  0004e	50		 push	 eax
  0004f	e8 00 00 00 00	 call	 ?process_assert@@YGXPBD0H@Z ; process_assert
  00054	c7 45 b4 00 00
	00 00		 mov	 DWORD PTR tv83[ebp], 0
$LN8@get_local_:
  0005b	8b 0d 00 00 00
	00		 mov	 ecx, DWORD PTR ?__LINE__Var@?0??get_local_int_value@@YGHPAUENTITY@@W4INT_TYPES@@@Z@4JA
  00061	83 c1 17	 add	 ecx, 23			; 00000017H
  00064	51		 push	 ecx
  00065	68 00 00 00 00	 push	 OFFSET ??_C@_0EL@EMHGJCN@c?3?2users?2nhv90?2projects?2eech?2ap@
  0006a	6b 55 0c 14	 imul	 edx, DWORD PTR _type$[ebp], 20
  0006e	8b 82 00 00 00
	00		 mov	 eax, DWORD PTR ?int_type_database@@3PAUINT_TYPE_DATA@@A[edx]
  00074	50		 push	 eax
  00075	8b 4d 08	 mov	 ecx, DWORD PTR _en$[ebp]
  00078	2b 0d 00 00 00
	00		 sub	 ecx, DWORD PTR ?entities@@3PAUENTITY@@A ; entities
  0007e	c1 f9 04	 sar	 ecx, 4
  00081	51		 push	 ecx
  00082	6b 55 b4 0c	 imul	 edx, DWORD PTR tv83[ebp], 12
  00086	8b 82 00 00 00
	00		 mov	 eax, DWORD PTR ?entity_type_database@@3PAUENTITY_TYPE_DATA@@A[edx]
  0008c	50		 push	 eax
  0008d	8b 0d 00 00 00
	00		 mov	 ecx, DWORD PTR ?debug_fatal_invalid_int_type_message@@3PBDB ; debug_fatal_invalid_int_type_message
  00093	51		 push	 ecx
  00094	e8 00 00 00 00	 call	 ?debug_fatal@@YAXPBDZZ	; debug_fatal
  00099	83 c4 18	 add	 esp, 24			; 00000018H
$LN2@get_local_:

; 192  : 
; 193  : 			break;
; 194  : 		}
; 195  : 	}
; 196  : 
; 197  : 	return (value);

  0009c	8b 45 f8	 mov	 eax, DWORD PTR _value$[ebp]

; 198  : }

  0009f	5f		 pop	 edi
  000a0	5e		 pop	 esi
  000a1	5b		 pop	 ebx
  000a2	8b e5		 mov	 esp, ebp
  000a4	5d		 pop	 ebp
  000a5	c2 08 00	 ret	 8
?get_local_int_value@@YGHPAUENTITY@@W4INT_TYPES@@@Z ENDP ; get_local_int_value
_TEXT	ENDS
; Function compile flags: /Odtp /ZI
; File c:\users\nhv90\projects\eech\aphavoc\source\entity\special\effect\ef_int.c
;	COMDAT ?set_client_int_value@@YGXPAUENTITY@@W4INT_TYPES@@H@Z
_TEXT	SEGMENT
_en$ = 8						; size = 4
_type$ = 12						; size = 4
_value$ = 16						; size = 4
?set_client_int_value@@YGXPAUENTITY@@W4INT_TYPES@@H@Z PROC ; set_client_int_value, COMDAT

; 148  : {

  00000	55		 push	 ebp
  00001	8b ec		 mov	 ebp, esp
  00003	83 ec 40	 sub	 esp, 64			; 00000040H
  00006	53		 push	 ebx
  00007	56		 push	 esi
  00008	57		 push	 edi

; 149  : 	if (get_comms_data_flow () == COMMS_DATA_FLOW_TX)

  00009	83 3d 00 00 00
	00 00		 cmp	 DWORD PTR ?system_comms_data_flow@@3W4COMMS_DATA_FLOW_TYPES@@A, 0 ; system_comms_data_flow
  00010	75 34		 jne	 SHORT $LN2@set_client

; 150  : 	{
; 151  : 		validate_client_server_remote_fn ();

  00012	e8 00 00 00 00	 call	 ?assert_client_server_remote_fn@@YGHXZ ; assert_client_server_remote_fn
  00017	85 c0		 test	 eax, eax
  00019	75 18		 jne	 SHORT $LN4@set_client
  0001b	a1 00 00 00 00	 mov	 eax, DWORD PTR ?__LINE__Var@?0??set_client_int_value@@YGXPAUENTITY@@W4INT_TYPES@@H@Z@4JA
  00020	83 c0 03	 add	 eax, 3
  00023	50		 push	 eax
  00024	68 00 00 00 00	 push	 OFFSET ??_C@_0EL@EMHGJCN@c?3?2users?2nhv90?2projects?2eech?2ap@
  00029	68 00 00 00 00	 push	 OFFSET ??_C@_0CC@BNNNEGEG@assert_client_server_remote_fn?5@
  0002e	e8 00 00 00 00	 call	 ?process_assert@@YGXPBD0H@Z ; process_assert
$LN4@set_client:

; 152  : 
; 153  : 		set_remote_int_value (en, type, value);

  00033	8b 45 10	 mov	 eax, DWORD PTR _value$[ebp]
  00036	50		 push	 eax
  00037	8b 4d 0c	 mov	 ecx, DWORD PTR _type$[ebp]
  0003a	51		 push	 ecx
  0003b	8b 55 08	 mov	 edx, DWORD PTR _en$[ebp]
  0003e	52		 push	 edx
  0003f	e8 00 00 00 00	 call	 ?set_remote_int_value@@YGXPAUENTITY@@W4INT_TYPES@@H@Z ; set_remote_int_value

; 154  : 	}
; 155  : 	else

  00044	eb 32		 jmp	 SHORT $LN1@set_client
$LN2@set_client:

; 156  : 	{
; 157  : 		validate_client_server_local_fn ();

  00046	e8 00 00 00 00	 call	 ?assert_client_server_local_fn@@YGHXZ ; assert_client_server_local_fn
  0004b	85 c0		 test	 eax, eax
  0004d	75 18		 jne	 SHORT $LN5@set_client
  0004f	a1 00 00 00 00	 mov	 eax, DWORD PTR ?__LINE__Var@?0??set_client_int_value@@YGXPAUENTITY@@W4INT_TYPES@@H@Z@4JA
  00054	83 c0 09	 add	 eax, 9
  00057	50		 push	 eax
  00058	68 00 00 00 00	 push	 OFFSET ??_C@_0EL@EMHGJCN@c?3?2users?2nhv90?2projects?2eech?2ap@
  0005d	68 00 00 00 00	 push	 OFFSET ??_C@_0CB@CFOCLFOK@assert_client_server_local_fn?5?$CI@
  00062	e8 00 00 00 00	 call	 ?process_assert@@YGXPBD0H@Z ; process_assert
$LN5@set_client:

; 158  : 
; 159  : 		set_local_int_value (en, type, value);

  00067	8b 45 10	 mov	 eax, DWORD PTR _value$[ebp]
  0006a	50		 push	 eax
  0006b	8b 4d 0c	 mov	 ecx, DWORD PTR _type$[ebp]
  0006e	51		 push	 ecx
  0006f	8b 55 08	 mov	 edx, DWORD PTR _en$[ebp]
  00072	52		 push	 edx
  00073	e8 00 00 00 00	 call	 ?set_local_int_value@@YGXPAUENTITY@@W4INT_TYPES@@H@Z ; set_local_int_value
$LN1@set_client:

; 160  : 	}
; 161  : }

  00078	5f		 pop	 edi
  00079	5e		 pop	 esi
  0007a	5b		 pop	 ebx
  0007b	8b e5		 mov	 esp, ebp
  0007d	5d		 pop	 ebp
  0007e	c2 0c 00	 ret	 12			; 0000000cH
?set_client_int_value@@YGXPAUENTITY@@W4INT_TYPES@@H@Z ENDP ; set_client_int_value
_TEXT	ENDS
; Function compile flags: /Odtp /ZI
; File c:\users\nhv90\projects\eech\aphavoc\source\entity\special\effect\ef_int.c
;	COMDAT ?set_server_int_value@@YGXPAUENTITY@@W4INT_TYPES@@H@Z
_TEXT	SEGMENT
_en$ = 8						; size = 4
_type$ = 12						; size = 4
_value$ = 16						; size = 4
?set_server_int_value@@YGXPAUENTITY@@W4INT_TYPES@@H@Z PROC ; set_server_int_value, COMDAT

; 133  : {

  00000	55		 push	 ebp
  00001	8b ec		 mov	 ebp, esp
  00003	83 ec 40	 sub	 esp, 64			; 00000040H
  00006	53		 push	 ebx
  00007	56		 push	 esi
  00008	57		 push	 edi

; 134  : 	validate_client_server_local_fn ();

  00009	e8 00 00 00 00	 call	 ?assert_client_server_local_fn@@YGHXZ ; assert_client_server_local_fn
  0000e	85 c0		 test	 eax, eax
  00010	75 18		 jne	 SHORT $LN2@set_server
  00012	a1 00 00 00 00	 mov	 eax, DWORD PTR ?__LINE__Var@?0??set_server_int_value@@YGXPAUENTITY@@W4INT_TYPES@@H@Z@4JA
  00017	83 c0 01	 add	 eax, 1
  0001a	50		 push	 eax
  0001b	68 00 00 00 00	 push	 OFFSET ??_C@_0EL@EMHGJCN@c?3?2users?2nhv90?2projects?2eech?2ap@
  00020	68 00 00 00 00	 push	 OFFSET ??_C@_0CB@CFOCLFOK@assert_client_server_local_fn?5?$CI@
  00025	e8 00 00 00 00	 call	 ?process_assert@@YGXPBD0H@Z ; process_assert
$LN2@set_server:

; 135  : 
; 136  : 	set_local_int_value (en, type, value);

  0002a	8b 45 10	 mov	 eax, DWORD PTR _value$[ebp]
  0002d	50		 push	 eax
  0002e	8b 4d 0c	 mov	 ecx, DWORD PTR _type$[ebp]
  00031	51		 push	 ecx
  00032	8b 55 08	 mov	 edx, DWORD PTR _en$[ebp]
  00035	52		 push	 edx
  00036	e8 00 00 00 00	 call	 ?set_local_int_value@@YGXPAUENTITY@@W4INT_TYPES@@H@Z ; set_local_int_value

; 137  : 
; 138  : 	validate_client_server_remote_fn ();

  0003b	e8 00 00 00 00	 call	 ?assert_client_server_remote_fn@@YGHXZ ; assert_client_server_remote_fn
  00040	85 c0		 test	 eax, eax
  00042	75 18		 jne	 SHORT $LN3@set_server
  00044	a1 00 00 00 00	 mov	 eax, DWORD PTR ?__LINE__Var@?0??set_server_int_value@@YGXPAUENTITY@@W4INT_TYPES@@H@Z@4JA
  00049	83 c0 05	 add	 eax, 5
  0004c	50		 push	 eax
  0004d	68 00 00 00 00	 push	 OFFSET ??_C@_0EL@EMHGJCN@c?3?2users?2nhv90?2projects?2eech?2ap@
  00052	68 00 00 00 00	 push	 OFFSET ??_C@_0CC@BNNNEGEG@assert_client_server_remote_fn?5@
  00057	e8 00 00 00 00	 call	 ?process_assert@@YGXPBD0H@Z ; process_assert
$LN3@set_server:

; 139  : 
; 140  : 	set_remote_int_value (en, type, value);

  0005c	8b 45 10	 mov	 eax, DWORD PTR _value$[ebp]
  0005f	50		 push	 eax
  00060	8b 4d 0c	 mov	 ecx, DWORD PTR _type$[ebp]
  00063	51		 push	 ecx
  00064	8b 55 08	 mov	 edx, DWORD PTR _en$[ebp]
  00067	52		 push	 edx
  00068	e8 00 00 00 00	 call	 ?set_remote_int_value@@YGXPAUENTITY@@W4INT_TYPES@@H@Z ; set_remote_int_value

; 141  : }

  0006d	5f		 pop	 edi
  0006e	5e		 pop	 esi
  0006f	5b		 pop	 ebx
  00070	8b e5		 mov	 esp, ebp
  00072	5d		 pop	 ebp
  00073	c2 0c 00	 ret	 12			; 0000000cH
?set_server_int_value@@YGXPAUENTITY@@W4INT_TYPES@@H@Z ENDP ; set_server_int_value
_TEXT	ENDS
; Function compile flags: /Odtp /ZI
; File c:\users\nhv90\projects\eech\aphavoc\source\entity\special\effect\ef_int.c
;	COMDAT ?set_remote_int_value@@YGXPAUENTITY@@W4INT_TYPES@@H@Z
_TEXT	SEGMENT
_en$ = 8						; size = 4
_type$ = 12						; size = 4
_value$ = 16						; size = 4
?set_remote_int_value@@YGXPAUENTITY@@W4INT_TYPES@@H@Z PROC ; set_remote_int_value, COMDAT

; 118  : {

  00000	55		 push	 ebp
  00001	8b ec		 mov	 ebp, esp
  00003	83 ec 40	 sub	 esp, 64			; 00000040H
  00006	53		 push	 ebx
  00007	56		 push	 esi
  00008	57		 push	 edi

; 119  : 	#if DEBUG_MODULE
; 120  : 
; 121  : 	debug_log_entity_args (ENTITY_DEBUG_REMOTE, ENTITY_DEBUG_INT_VALUE, en, type, value);
; 122  : 
; 123  : 	#endif
; 124  : 
; 125  : 	transmit_entity_comms_message (ENTITY_COMMS_INT_VALUE, en, type, value);

  00009	8b 45 10	 mov	 eax, DWORD PTR _value$[ebp]
  0000c	50		 push	 eax
  0000d	8b 4d 0c	 mov	 ecx, DWORD PTR _type$[ebp]
  00010	51		 push	 ecx
  00011	8b 55 08	 mov	 edx, DWORD PTR _en$[ebp]
  00014	52		 push	 edx
  00015	6a 17		 push	 23			; 00000017H
  00017	e8 00 00 00 00	 call	 ?transmit_entity_comms_message@@YAXW4ENTITY_COMMS_MESSAGES@@PAUENTITY@@ZZ ; transmit_entity_comms_message
  0001c	83 c4 10	 add	 esp, 16			; 00000010H

; 126  : }

  0001f	5f		 pop	 edi
  00020	5e		 pop	 esi
  00021	5b		 pop	 ebx
  00022	8b e5		 mov	 esp, ebp
  00024	5d		 pop	 ebp
  00025	c2 0c 00	 ret	 12			; 0000000cH
?set_remote_int_value@@YGXPAUENTITY@@W4INT_TYPES@@H@Z ENDP ; set_remote_int_value
_TEXT	ENDS
; Function compile flags: /Odtp /ZI
; File c:\users\nhv90\projects\eech\aphavoc\source\entity\special\effect\ef_int.c
;	COMDAT ?set_local_int_value@@YGXPAUENTITY@@W4INT_TYPES@@H@Z
_TEXT	SEGMENT
tv83 = -72						; size = 4
tv65 = -72						; size = 4
_raw$ = -4						; size = 4
_en$ = 8						; size = 4
_type$ = 12						; size = 4
_value$ = 16						; size = 4
?set_local_int_value@@YGXPAUENTITY@@W4INT_TYPES@@H@Z PROC ; set_local_int_value, COMDAT

; 80   : {

  00000	55		 push	 ebp
  00001	8b ec		 mov	 ebp, esp
  00003	83 ec 48	 sub	 esp, 72			; 00000048H
  00006	53		 push	 ebx
  00007	56		 push	 esi
  00008	57		 push	 edi

; 81   : 	effect
; 82   : 		*raw;
; 83   : 
; 84   : 	#if DEBUG_MODULE
; 85   : 
; 86   : 	debug_log_entity_args (ENTITY_DEBUG_LOCAL, ENTITY_DEBUG_INT_VALUE, en, type, value);
; 87   : 
; 88   : 	#endif
; 89   : 
; 90   : 	raw = (effect *) get_local_entity_data (en);

  00009	8b 45 08	 mov	 eax, DWORD PTR _en$[ebp]
  0000c	8b 48 04	 mov	 ecx, DWORD PTR [eax+4]
  0000f	89 4d fc	 mov	 DWORD PTR _raw$[ebp], ecx

; 91   : 
; 92   : 	switch (type)

  00012	8b 45 0c	 mov	 eax, DWORD PTR _type$[ebp]
  00015	89 45 b8	 mov	 DWORD PTR tv65[ebp], eax
  00018	83 7d b8 34	 cmp	 DWORD PTR tv65[ebp], 52	; 00000034H
  0001c	74 02		 je	 SHORT $LN4@set_local_
  0001e	eb 0a		 jmp	 SHORT $LN5@set_local_
$LN4@set_local_:

; 93   : 	{
; 94   : 		////////////////////////////////////////
; 95   : 		case INT_TYPE_ENTITY_SUB_TYPE:
; 96   : 		////////////////////////////////////////
; 97   : 		{
; 98   : 			raw->sub_type = value;

  00020	8b 45 fc	 mov	 eax, DWORD PTR _raw$[ebp]
  00023	8b 4d 10	 mov	 ecx, DWORD PTR _value$[ebp]
  00026	89 08		 mov	 DWORD PTR [eax], ecx

; 99   : 
; 100  : 			break;

  00028	eb 72		 jmp	 SHORT $LN1@set_local_
$LN5@set_local_:

; 101  : 		}
; 102  : 		////////////////////////////////////////
; 103  : 		default:
; 104  : 		////////////////////////////////////////
; 105  : 		{
; 106  : 			debug_fatal_invalid_int_type (en, type);

  0002a	83 7d 08 00	 cmp	 DWORD PTR _en$[ebp], 0
  0002e	74 0a		 je	 SHORT $LN7@set_local_
  00030	8b 45 08	 mov	 eax, DWORD PTR _en$[ebp]
  00033	8b 08		 mov	 ecx, DWORD PTR [eax]
  00035	89 4d b8	 mov	 DWORD PTR tv83[ebp], ecx
  00038	eb 21		 jmp	 SHORT $LN8@set_local_
$LN7@set_local_:
  0003a	8b 15 00 00 00
	00		 mov	 edx, DWORD PTR ?__LINE__Var@?0??set_local_int_value@@YGXPAUENTITY@@W4INT_TYPES@@H@Z@4JA
  00040	83 c2 1a	 add	 edx, 26			; 0000001aH
  00043	52		 push	 edx
  00044	68 00 00 00 00	 push	 OFFSET ??_C@_0EL@EMHGJCN@c?3?2users?2nhv90?2projects?2eech?2ap@
  00049	a1 00 00 00 00	 mov	 eax, DWORD PTR ?null_entity_pointer_message@@3PBDB ; null_entity_pointer_message
  0004e	50		 push	 eax
  0004f	e8 00 00 00 00	 call	 ?process_assert@@YGXPBD0H@Z ; process_assert
  00054	c7 45 b8 00 00
	00 00		 mov	 DWORD PTR tv83[ebp], 0
$LN8@set_local_:
  0005b	8b 0d 00 00 00
	00		 mov	 ecx, DWORD PTR ?__LINE__Var@?0??set_local_int_value@@YGXPAUENTITY@@W4INT_TYPES@@H@Z@4JA
  00061	83 c1 1a	 add	 ecx, 26			; 0000001aH
  00064	51		 push	 ecx
  00065	68 00 00 00 00	 push	 OFFSET ??_C@_0EL@EMHGJCN@c?3?2users?2nhv90?2projects?2eech?2ap@
  0006a	6b 55 0c 14	 imul	 edx, DWORD PTR _type$[ebp], 20
  0006e	8b 82 00 00 00
	00		 mov	 eax, DWORD PTR ?int_type_database@@3PAUINT_TYPE_DATA@@A[edx]
  00074	50		 push	 eax
  00075	8b 4d 08	 mov	 ecx, DWORD PTR _en$[ebp]
  00078	2b 0d 00 00 00
	00		 sub	 ecx, DWORD PTR ?entities@@3PAUENTITY@@A ; entities
  0007e	c1 f9 04	 sar	 ecx, 4
  00081	51		 push	 ecx
  00082	6b 55 b8 0c	 imul	 edx, DWORD PTR tv83[ebp], 12
  00086	8b 82 00 00 00
	00		 mov	 eax, DWORD PTR ?entity_type_database@@3PAUENTITY_TYPE_DATA@@A[edx]
  0008c	50		 push	 eax
  0008d	8b 0d 00 00 00
	00		 mov	 ecx, DWORD PTR ?debug_fatal_invalid_int_type_message@@3PBDB ; debug_fatal_invalid_int_type_message
  00093	51		 push	 ecx
  00094	e8 00 00 00 00	 call	 ?debug_fatal@@YAXPBDZZ	; debug_fatal
  00099	83 c4 18	 add	 esp, 24			; 00000018H
$LN1@set_local_:

; 107  : 
; 108  : 			break;
; 109  : 		}
; 110  : 	}
; 111  : }

  0009c	5f		 pop	 edi
  0009d	5e		 pop	 esi
  0009e	5b		 pop	 ebx
  0009f	8b e5		 mov	 esp, ebp
  000a1	5d		 pop	 ebp
  000a2	c2 0c 00	 ret	 12			; 0000000cH
?set_local_int_value@@YGXPAUENTITY@@W4INT_TYPES@@H@Z ENDP ; set_local_int_value
_TEXT	ENDS
; Function compile flags: /Odtp /ZI
; File c:\users\nhv90\projects\eech\aphavoc\source\entity\special\effect\ef_int.c
;	COMDAT ?overload_effect_int_value_functions@@YGXW4ENTITY_TYPES@@@Z
_TEXT	SEGMENT
_type$ = 8						; size = 4
?overload_effect_int_value_functions@@YGXW4ENTITY_TYPES@@@Z PROC ; overload_effect_int_value_functions, COMDAT

; 205  : {

  00000	55		 push	 ebp
  00001	8b ec		 mov	 ebp, esp
  00003	83 ec 40	 sub	 esp, 64			; 00000040H
  00006	53		 push	 ebx
  00007	56		 push	 esi
  00008	57		 push	 edi

; 206  : 	fn_set_local_entity_raw_int_value		[type][INT_TYPE_ENTITY_SUB_TYPE]								= set_local_int_value;

  00009	69 45 08 5c 04
	00 00		 imul	 eax, DWORD PTR _type$[ebp], 1116
  00010	b9 04 00 00 00	 mov	 ecx, 4
  00015	6b d1 34	 imul	 edx, ecx, 52
  00018	c7 84 10 00 00
	00 00 00 00 00
	00		 mov	 DWORD PTR ?fn_set_local_entity_raw_int_value@@3PAY0BBH@P6GXPAUENTITY@@W4INT_TYPES@@H@ZA[eax+edx], OFFSET ?set_local_int_value@@YGXPAUENTITY@@W4INT_TYPES@@H@Z ; set_local_int_value

; 207  : 	fn_set_local_entity_int_value				[type][INT_TYPE_ENTITY_SUB_TYPE]								= set_local_int_value;

  00023	69 45 08 5c 04
	00 00		 imul	 eax, DWORD PTR _type$[ebp], 1116
  0002a	b9 04 00 00 00	 mov	 ecx, 4
  0002f	6b d1 34	 imul	 edx, ecx, 52
  00032	c7 84 10 00 00
	00 00 00 00 00
	00		 mov	 DWORD PTR ?fn_set_local_entity_int_value@@3PAY0BBH@P6GXPAUENTITY@@W4INT_TYPES@@H@ZA[eax+edx], OFFSET ?set_local_int_value@@YGXPAUENTITY@@W4INT_TYPES@@H@Z ; set_local_int_value

; 208  : 	fn_set_client_server_entity_int_value	[type][INT_TYPE_ENTITY_SUB_TYPE][COMMS_MODEL_SERVER]	= set_server_int_value;

  0003d	69 45 08 b8 08
	00 00		 imul	 eax, DWORD PTR _type$[ebp], 2232
  00044	b9 08 00 00 00	 mov	 ecx, 8
  00049	6b d1 34	 imul	 edx, ecx, 52
  0004c	8d 84 10 00 00
	00 00		 lea	 eax, DWORD PTR ?fn_set_client_server_entity_int_value@@3PAY1BBH@1P6GXPAUENTITY@@W4INT_TYPES@@H@ZA[eax+edx]
  00053	b9 04 00 00 00	 mov	 ecx, 4
  00058	6b d1 00	 imul	 edx, ecx, 0
  0005b	c7 04 10 00 00
	00 00		 mov	 DWORD PTR [eax+edx], OFFSET ?set_server_int_value@@YGXPAUENTITY@@W4INT_TYPES@@H@Z ; set_server_int_value

; 209  : 	fn_set_client_server_entity_int_value	[type][INT_TYPE_ENTITY_SUB_TYPE][COMMS_MODEL_CLIENT]	= set_client_int_value;

  00062	69 45 08 b8 08
	00 00		 imul	 eax, DWORD PTR _type$[ebp], 2232
  00069	b9 08 00 00 00	 mov	 ecx, 8
  0006e	6b d1 34	 imul	 edx, ecx, 52
  00071	8d 84 10 00 00
	00 00		 lea	 eax, DWORD PTR ?fn_set_client_server_entity_int_value@@3PAY1BBH@1P6GXPAUENTITY@@W4INT_TYPES@@H@ZA[eax+edx]
  00078	b9 04 00 00 00	 mov	 ecx, 4
  0007d	c1 e1 00	 shl	 ecx, 0
  00080	c7 04 08 00 00
	00 00		 mov	 DWORD PTR [eax+ecx], OFFSET ?set_client_int_value@@YGXPAUENTITY@@W4INT_TYPES@@H@Z ; set_client_int_value

; 210  : 	fn_get_local_entity_int_value				[type][INT_TYPE_ENTITY_SUB_TYPE]								= get_local_int_value;

  00087	69 45 08 5c 04
	00 00		 imul	 eax, DWORD PTR _type$[ebp], 1116
  0008e	b9 04 00 00 00	 mov	 ecx, 4
  00093	6b d1 34	 imul	 edx, ecx, 52
  00096	c7 84 10 00 00
	00 00 00 00 00
	00		 mov	 DWORD PTR ?fn_get_local_entity_int_value@@3PAY0BBH@P6GHPAUENTITY@@W4INT_TYPES@@@ZA[eax+edx], OFFSET ?get_local_int_value@@YGHPAUENTITY@@W4INT_TYPES@@@Z ; get_local_int_value

; 211  : }

  000a1	5f		 pop	 edi
  000a2	5e		 pop	 esi
  000a3	5b		 pop	 ebx
  000a4	8b e5		 mov	 esp, ebp
  000a6	5d		 pop	 ebp
  000a7	c2 04 00	 ret	 4
?overload_effect_int_value_functions@@YGXW4ENTITY_TYPES@@@Z ENDP ; overload_effect_int_value_functions
_TEXT	ENDS
END
