; Listing generated by Microsoft (R) Optimizing Compiler Version 19.16.27045.0 

	TITLE	C:\Users\nhv90\Projects\eech\aphavoc\source\entity\special\effect\ef_vec3d.c
	.686P
	.XMM
	include listing.inc
	.model	flat

INCLUDELIB MSVCRTD
INCLUDELIB OLDNAMES

PUBLIC	?overload_effect_vec3d_functions@@YGXW4ENTITY_TYPES@@@Z ; overload_effect_vec3d_functions
PUBLIC	?__LINE__Var@?0??set_local_raw_vec3d@@YGXPAUENTITY@@W4VEC3D_TYPES@@PAUVEC3D@@@Z@4JA ; `set_local_raw_vec3d'::`1'::__LINE__Var
PUBLIC	??_C@_0EN@NEKPPKIO@c?3?2users?2nhv90?2projects?2eech?2ap@ ; `string'
PUBLIC	??_C@_01MHEDDDHA@v@				; `string'
PUBLIC	?__LINE__Var@?0??set_local_vec3d@@YGXPAUENTITY@@W4VEC3D_TYPES@@PAUVEC3D@@@Z@4JA ; `set_local_vec3d'::`1'::__LINE__Var
PUBLIC	?__LINE__Var@?0??set_remote_vec3d@@YGXPAUENTITY@@W4VEC3D_TYPES@@PAUVEC3D@@@Z@4JA ; `set_remote_vec3d'::`1'::__LINE__Var
PUBLIC	?__LINE__Var@?0??set_server_vec3d@@YGXPAUENTITY@@W4VEC3D_TYPES@@PAUVEC3D@@@Z@4JA ; `set_server_vec3d'::`1'::__LINE__Var
PUBLIC	??_C@_0CB@CFOCLFOK@assert_client_server_local_fn?5?$CI@ ; `string'
PUBLIC	??_C@_0CC@BNNNEGEG@assert_client_server_remote_fn?5@ ; `string'
PUBLIC	?__LINE__Var@?0??set_client_vec3d@@YGXPAUENTITY@@W4VEC3D_TYPES@@PAUVEC3D@@@Z@4JA ; `set_client_vec3d'::`1'::__LINE__Var
PUBLIC	?__LINE__Var@?0??get_local_vec3d@@YGXPAUENTITY@@W4VEC3D_TYPES@@PAUVEC3D@@@Z@4JA ; `get_local_vec3d'::`1'::__LINE__Var
PUBLIC	?__LINE__Var@?0??get_local_vec3d_ptr@@YGPAUVEC3D@@PAUENTITY@@W4VEC3D_TYPES@@@Z@4JA ; `get_local_vec3d_ptr'::`1'::__LINE__Var
EXTRN	?process_assert@@YGXPBD0H@Z:PROC		; process_assert
EXTRN	?convert_float_to_int@@YGXMPAH@Z:PROC		; convert_float_to_int
EXTRN	?debug_fatal@@YAXPBDZZ:PROC			; debug_fatal
EXTRN	?insert_local_entity_into_parents_child_list@@YGXPAUENTITY@@W4LIST_TYPES@@00@Z:PROC ; insert_local_entity_into_parents_child_list
EXTRN	?delete_local_entity_from_parents_child_list@@YGXPAUENTITY@@W4LIST_TYPES@@@Z:PROC ; delete_local_entity_from_parents_child_list
EXTRN	?transmit_entity_comms_message@@YAXW4ENTITY_COMMS_MESSAGES@@PAUENTITY@@ZZ:PROC ; transmit_entity_comms_message
EXTRN	?assert_client_server_local_fn@@YGHXZ:PROC	; assert_client_server_local_fn
EXTRN	?assert_client_server_remote_fn@@YGHXZ:PROC	; assert_client_server_remote_fn
EXTRN	?null_entity_pointer_message@@3PBDB:DWORD	; null_entity_pointer_message
EXTRN	?entity_type_database@@3PAUENTITY_TYPE_DATA@@A:BYTE ; entity_type_database
EXTRN	?system_comms_data_flow@@3W4COMMS_DATA_FLOW_TYPES@@A:DWORD ; system_comms_data_flow
EXTRN	?world_map@@3UWORLD_MAP_DATA@@A:BYTE		; world_map
EXTRN	?vec3d_type_database@@3PAUVEC3D_TYPE_DATA@@A:BYTE ; vec3d_type_database
EXTRN	?debug_fatal_invalid_vec3d_type_message@@3PBDB:DWORD ; debug_fatal_invalid_vec3d_type_message
EXTRN	?fn_set_local_entity_raw_vec3d@@3PAY0BI@P6GXPAUENTITY@@W4VEC3D_TYPES@@PAUVEC3D@@@ZA:BYTE ; fn_set_local_entity_raw_vec3d
EXTRN	?fn_set_local_entity_vec3d@@3PAY0BI@P6GXPAUENTITY@@W4VEC3D_TYPES@@PAUVEC3D@@@ZA:BYTE ; fn_set_local_entity_vec3d
EXTRN	?fn_set_client_server_entity_vec3d@@3PAY1BI@1P6GXPAUENTITY@@W4VEC3D_TYPES@@PAUVEC3D@@@ZA:BYTE ; fn_set_client_server_entity_vec3d
EXTRN	?fn_get_local_entity_vec3d@@3PAY0BI@P6GXPAUENTITY@@W4VEC3D_TYPES@@PAUVEC3D@@@ZA:BYTE ; fn_get_local_entity_vec3d
EXTRN	?fn_get_local_entity_vec3d_ptr@@3PAY0BI@P6GPAUVEC3D@@PAUENTITY@@W4VEC3D_TYPES@@@ZA:BYTE ; fn_get_local_entity_vec3d_ptr
EXTRN	?entities@@3PAUENTITY@@A:DWORD			; entities
EXTRN	?entity_sector_map@@3PAPAUENTITY@@A:DWORD	; entity_sector_map
EXTRN	?null_sector_entity_map_pointer_message@@3PBDB:DWORD ; null_sector_entity_map_pointer_message
EXTRN	__fltused:DWORD
;	COMDAT ?__LINE__Var@?0??get_local_vec3d_ptr@@YGPAUVEC3D@@PAUENTITY@@W4VEC3D_TYPES@@@Z@4JA
_DATA	SEGMENT
?__LINE__Var@?0??get_local_vec3d_ptr@@YGPAUVEC3D@@PAUENTITY@@W4VEC3D_TYPES@@@Z@4JA DD 0116H ; `get_local_vec3d_ptr'::`1'::__LINE__Var
_DATA	ENDS
;	COMDAT ?__LINE__Var@?0??get_local_vec3d@@YGXPAUENTITY@@W4VEC3D_TYPES@@PAUVEC3D@@@Z@4JA
_DATA	SEGMENT
?__LINE__Var@?0??get_local_vec3d@@YGXPAUENTITY@@W4VEC3D_TYPES@@PAUVEC3D@@@Z@4JA DD 0f4H ; `get_local_vec3d'::`1'::__LINE__Var
_DATA	ENDS
;	COMDAT ?__LINE__Var@?0??set_client_vec3d@@YGXPAUENTITY@@W4VEC3D_TYPES@@PAUVEC3D@@@Z@4JA
_DATA	SEGMENT
?__LINE__Var@?0??set_client_vec3d@@YGXPAUENTITY@@W4VEC3D_TYPES@@PAUVEC3D@@@Z@4JA DD 0deH ; `set_client_vec3d'::`1'::__LINE__Var
_DATA	ENDS
;	COMDAT ??_C@_0CC@BNNNEGEG@assert_client_server_remote_fn?5@
CONST	SEGMENT
??_C@_0CC@BNNNEGEG@assert_client_server_remote_fn?5@ DB 'assert_client_se'
	DB	'rver_remote_fn ()', 00H			; `string'
CONST	ENDS
;	COMDAT ??_C@_0CB@CFOCLFOK@assert_client_server_local_fn?5?$CI@
CONST	SEGMENT
??_C@_0CB@CFOCLFOK@assert_client_server_local_fn?5?$CI@ DB 'assert_client'
	DB	'_server_local_fn ()', 00H			; `string'
CONST	ENDS
;	COMDAT ?__LINE__Var@?0??set_server_vec3d@@YGXPAUENTITY@@W4VEC3D_TYPES@@PAUVEC3D@@@Z@4JA
_DATA	SEGMENT
?__LINE__Var@?0??set_server_vec3d@@YGXPAUENTITY@@W4VEC3D_TYPES@@PAUVEC3D@@@Z@4JA DD 0cdH ; `set_server_vec3d'::`1'::__LINE__Var
_DATA	ENDS
;	COMDAT ?__LINE__Var@?0??set_remote_vec3d@@YGXPAUENTITY@@W4VEC3D_TYPES@@PAUVEC3D@@@Z@4JA
_DATA	SEGMENT
?__LINE__Var@?0??set_remote_vec3d@@YGXPAUENTITY@@W4VEC3D_TYPES@@PAUVEC3D@@@Z@4JA DD 0bcH ; `set_remote_vec3d'::`1'::__LINE__Var
_DATA	ENDS
;	COMDAT ?__LINE__Var@?0??set_local_vec3d@@YGXPAUENTITY@@W4VEC3D_TYPES@@PAUVEC3D@@@Z@4JA
_DATA	SEGMENT
?__LINE__Var@?0??set_local_vec3d@@YGXPAUENTITY@@W4VEC3D_TYPES@@PAUVEC3D@@@Z@4JA DD 078H ; `set_local_vec3d'::`1'::__LINE__Var
_DATA	ENDS
;	COMDAT ??_C@_01MHEDDDHA@v@
CONST	SEGMENT
??_C@_01MHEDDDHA@v@ DB 'v', 00H				; `string'
CONST	ENDS
;	COMDAT ??_C@_0EN@NEKPPKIO@c?3?2users?2nhv90?2projects?2eech?2ap@
CONST	SEGMENT
??_C@_0EN@NEKPPKIO@c?3?2users?2nhv90?2projects?2eech?2ap@ DB 'c:\users\nh'
	DB	'v90\projects\eech\aphavoc\source\entity\special\effect\ef_vec'
	DB	'3d.c', 00H					; `string'
CONST	ENDS
;	COMDAT ?__LINE__Var@?0??set_local_raw_vec3d@@YGXPAUENTITY@@W4VEC3D_TYPES@@PAUVEC3D@@@Z@4JA
_DATA	SEGMENT
?__LINE__Var@?0??set_local_raw_vec3d@@YGXPAUENTITY@@W4VEC3D_TYPES@@PAUVEC3D@@@Z@4JA DD 050H ; `set_local_raw_vec3d'::`1'::__LINE__Var
_DATA	ENDS
; Function compile flags: /Odtp /ZI
; File c:\users\nhv90\projects\eech\aphavoc\source\entity\special\effect\ef_vec3d.c
;	COMDAT ?get_local_vec3d_ptr@@YGPAUVEC3D@@PAUENTITY@@W4VEC3D_TYPES@@@Z
_TEXT	SEGMENT
tv83 = -76						; size = 4
tv65 = -76						; size = 4
_v$ = -8						; size = 4
_raw$ = -4						; size = 4
_en$ = 8						; size = 4
_type$ = 12						; size = 4
?get_local_vec3d_ptr@@YGPAUVEC3D@@PAUENTITY@@W4VEC3D_TYPES@@@Z PROC ; get_local_vec3d_ptr, COMDAT

; 278  : {

  00000	55		 push	 ebp
  00001	8b ec		 mov	 ebp, esp
  00003	83 ec 4c	 sub	 esp, 76			; 0000004cH
  00006	53		 push	 ebx
  00007	56		 push	 esi
  00008	57		 push	 edi

; 279  : 	effect
; 280  : 		*raw;
; 281  : 
; 282  : 	vec3d
; 283  : 		*v;
; 284  : 
; 285  : 	raw = (effect *) get_local_entity_data (en);

  00009	8b 45 08	 mov	 eax, DWORD PTR _en$[ebp]
  0000c	8b 48 04	 mov	 ecx, DWORD PTR [eax+4]
  0000f	89 4d fc	 mov	 DWORD PTR _raw$[ebp], ecx

; 286  : 
; 287  : 	switch (type)

  00012	8b 45 0c	 mov	 eax, DWORD PTR _type$[ebp]
  00015	89 45 b4	 mov	 DWORD PTR tv65[ebp], eax
  00018	83 7d b4 08	 cmp	 DWORD PTR tv65[ebp], 8
  0001c	74 02		 je	 SHORT $LN4@get_local_
  0001e	eb 0b		 jmp	 SHORT $LN5@get_local_
$LN4@get_local_:

; 288  : 	{
; 289  : 		////////////////////////////////////////
; 290  : 		case VEC3D_TYPE_POSITION:
; 291  : 		////////////////////////////////////////
; 292  : 		{
; 293  : 			v = &raw->position;

  00020	8b 45 fc	 mov	 eax, DWORD PTR _raw$[ebp]
  00023	83 c0 04	 add	 eax, 4
  00026	89 45 f8	 mov	 DWORD PTR _v$[ebp], eax

; 294  : 
; 295  : 			break;

  00029	eb 72		 jmp	 SHORT $LN2@get_local_
$LN5@get_local_:

; 296  : 		}
; 297  : 		////////////////////////////////////////
; 298  : 		default:
; 299  : 		////////////////////////////////////////
; 300  : 		{
; 301  : 			debug_fatal_invalid_vec3d_type (en, type);

  0002b	83 7d 08 00	 cmp	 DWORD PTR _en$[ebp], 0
  0002f	74 0a		 je	 SHORT $LN7@get_local_
  00031	8b 45 08	 mov	 eax, DWORD PTR _en$[ebp]
  00034	8b 08		 mov	 ecx, DWORD PTR [eax]
  00036	89 4d b4	 mov	 DWORD PTR tv83[ebp], ecx
  00039	eb 21		 jmp	 SHORT $LN8@get_local_
$LN7@get_local_:
  0003b	8b 15 00 00 00
	00		 mov	 edx, DWORD PTR ?__LINE__Var@?0??get_local_vec3d_ptr@@YGPAUVEC3D@@PAUENTITY@@W4VEC3D_TYPES@@@Z@4JA
  00041	83 c2 17	 add	 edx, 23			; 00000017H
  00044	52		 push	 edx
  00045	68 00 00 00 00	 push	 OFFSET ??_C@_0EN@NEKPPKIO@c?3?2users?2nhv90?2projects?2eech?2ap@
  0004a	a1 00 00 00 00	 mov	 eax, DWORD PTR ?null_entity_pointer_message@@3PBDB ; null_entity_pointer_message
  0004f	50		 push	 eax
  00050	e8 00 00 00 00	 call	 ?process_assert@@YGXPBD0H@Z ; process_assert
  00055	c7 45 b4 00 00
	00 00		 mov	 DWORD PTR tv83[ebp], 0
$LN8@get_local_:
  0005c	8b 0d 00 00 00
	00		 mov	 ecx, DWORD PTR ?__LINE__Var@?0??get_local_vec3d_ptr@@YGPAUVEC3D@@PAUENTITY@@W4VEC3D_TYPES@@@Z@4JA
  00062	83 c1 17	 add	 ecx, 23			; 00000017H
  00065	51		 push	 ecx
  00066	68 00 00 00 00	 push	 OFFSET ??_C@_0EN@NEKPPKIO@c?3?2users?2nhv90?2projects?2eech?2ap@
  0006b	6b 55 0c 0c	 imul	 edx, DWORD PTR _type$[ebp], 12
  0006f	8b 82 00 00 00
	00		 mov	 eax, DWORD PTR ?vec3d_type_database@@3PAUVEC3D_TYPE_DATA@@A[edx]
  00075	50		 push	 eax
  00076	8b 4d 08	 mov	 ecx, DWORD PTR _en$[ebp]
  00079	2b 0d 00 00 00
	00		 sub	 ecx, DWORD PTR ?entities@@3PAUENTITY@@A ; entities
  0007f	c1 f9 04	 sar	 ecx, 4
  00082	51		 push	 ecx
  00083	6b 55 b4 0c	 imul	 edx, DWORD PTR tv83[ebp], 12
  00087	8b 82 00 00 00
	00		 mov	 eax, DWORD PTR ?entity_type_database@@3PAUENTITY_TYPE_DATA@@A[edx]
  0008d	50		 push	 eax
  0008e	8b 0d 00 00 00
	00		 mov	 ecx, DWORD PTR ?debug_fatal_invalid_vec3d_type_message@@3PBDB ; debug_fatal_invalid_vec3d_type_message
  00094	51		 push	 ecx
  00095	e8 00 00 00 00	 call	 ?debug_fatal@@YAXPBDZZ	; debug_fatal
  0009a	83 c4 18	 add	 esp, 24			; 00000018H
$LN2@get_local_:

; 302  : 
; 303  : 			break;
; 304  : 		}
; 305  : 	}
; 306  : 
; 307  : 	return (v);

  0009d	8b 45 f8	 mov	 eax, DWORD PTR _v$[ebp]

; 308  : }

  000a0	5f		 pop	 edi
  000a1	5e		 pop	 esi
  000a2	5b		 pop	 ebx
  000a3	8b e5		 mov	 esp, ebp
  000a5	5d		 pop	 ebp
  000a6	c2 08 00	 ret	 8
?get_local_vec3d_ptr@@YGPAUVEC3D@@PAUENTITY@@W4VEC3D_TYPES@@@Z ENDP ; get_local_vec3d_ptr
_TEXT	ENDS
; Function compile flags: /Odtp /ZI
; File c:\users\nhv90\projects\eech\aphavoc\source\entity\special\effect\ef_vec3d.c
;	COMDAT ?get_local_vec3d@@YGXPAUENTITY@@W4VEC3D_TYPES@@PAUVEC3D@@@Z
_TEXT	SEGMENT
tv89 = -72						; size = 4
tv70 = -72						; size = 4
_raw$ = -4						; size = 4
_en$ = 8						; size = 4
_type$ = 12						; size = 4
_v$ = 16						; size = 4
?get_local_vec3d@@YGXPAUENTITY@@W4VEC3D_TYPES@@PAUVEC3D@@@Z PROC ; get_local_vec3d, COMDAT

; 244  : {

  00000	55		 push	 ebp
  00001	8b ec		 mov	 ebp, esp
  00003	83 ec 48	 sub	 esp, 72			; 00000048H
  00006	53		 push	 ebx
  00007	56		 push	 esi
  00008	57		 push	 edi

; 245  : 	effect
; 246  : 		*raw;
; 247  : 
; 248  : 	ASSERT (v);

  00009	83 7d 10 00	 cmp	 DWORD PTR _v$[ebp], 0
  0000d	75 18		 jne	 SHORT $LN4@get_local_
  0000f	a1 00 00 00 00	 mov	 eax, DWORD PTR ?__LINE__Var@?0??get_local_vec3d@@YGXPAUENTITY@@W4VEC3D_TYPES@@PAUVEC3D@@@Z@4JA
  00014	83 c0 04	 add	 eax, 4
  00017	50		 push	 eax
  00018	68 00 00 00 00	 push	 OFFSET ??_C@_0EN@NEKPPKIO@c?3?2users?2nhv90?2projects?2eech?2ap@
  0001d	68 00 00 00 00	 push	 OFFSET ??_C@_01MHEDDDHA@v@
  00022	e8 00 00 00 00	 call	 ?process_assert@@YGXPBD0H@Z ; process_assert
$LN4@get_local_:

; 249  : 
; 250  : 	raw = (effect *) get_local_entity_data (en);

  00027	8b 45 08	 mov	 eax, DWORD PTR _en$[ebp]
  0002a	8b 48 04	 mov	 ecx, DWORD PTR [eax+4]
  0002d	89 4d fc	 mov	 DWORD PTR _raw$[ebp], ecx

; 251  : 
; 252  : 	switch (type)

  00030	8b 45 0c	 mov	 eax, DWORD PTR _type$[ebp]
  00033	89 45 b8	 mov	 DWORD PTR tv70[ebp], eax
  00036	83 7d b8 08	 cmp	 DWORD PTR tv70[ebp], 8
  0003a	74 02		 je	 SHORT $LN5@get_local_
  0003c	eb 1b		 jmp	 SHORT $LN6@get_local_
$LN5@get_local_:

; 253  : 	{
; 254  : 		////////////////////////////////////////
; 255  : 		case VEC3D_TYPE_POSITION:
; 256  : 		////////////////////////////////////////
; 257  : 		{
; 258  : 			*v = raw->position;

  0003e	8b 45 fc	 mov	 eax, DWORD PTR _raw$[ebp]
  00041	83 c0 04	 add	 eax, 4
  00044	8b 4d 10	 mov	 ecx, DWORD PTR _v$[ebp]
  00047	8b 10		 mov	 edx, DWORD PTR [eax]
  00049	89 11		 mov	 DWORD PTR [ecx], edx
  0004b	8b 50 04	 mov	 edx, DWORD PTR [eax+4]
  0004e	89 51 04	 mov	 DWORD PTR [ecx+4], edx
  00051	8b 40 08	 mov	 eax, DWORD PTR [eax+8]
  00054	89 41 08	 mov	 DWORD PTR [ecx+8], eax

; 259  : 
; 260  : 			break;

  00057	eb 72		 jmp	 SHORT $LN1@get_local_
$LN6@get_local_:

; 261  : 		}
; 262  : 		////////////////////////////////////////
; 263  : 		default:
; 264  : 		////////////////////////////////////////
; 265  : 		{
; 266  : 			debug_fatal_invalid_vec3d_type (en, type);

  00059	83 7d 08 00	 cmp	 DWORD PTR _en$[ebp], 0
  0005d	74 0a		 je	 SHORT $LN8@get_local_
  0005f	8b 45 08	 mov	 eax, DWORD PTR _en$[ebp]
  00062	8b 08		 mov	 ecx, DWORD PTR [eax]
  00064	89 4d b8	 mov	 DWORD PTR tv89[ebp], ecx
  00067	eb 21		 jmp	 SHORT $LN9@get_local_
$LN8@get_local_:
  00069	8b 15 00 00 00
	00		 mov	 edx, DWORD PTR ?__LINE__Var@?0??get_local_vec3d@@YGXPAUENTITY@@W4VEC3D_TYPES@@PAUVEC3D@@@Z@4JA
  0006f	83 c2 16	 add	 edx, 22			; 00000016H
  00072	52		 push	 edx
  00073	68 00 00 00 00	 push	 OFFSET ??_C@_0EN@NEKPPKIO@c?3?2users?2nhv90?2projects?2eech?2ap@
  00078	a1 00 00 00 00	 mov	 eax, DWORD PTR ?null_entity_pointer_message@@3PBDB ; null_entity_pointer_message
  0007d	50		 push	 eax
  0007e	e8 00 00 00 00	 call	 ?process_assert@@YGXPBD0H@Z ; process_assert
  00083	c7 45 b8 00 00
	00 00		 mov	 DWORD PTR tv89[ebp], 0
$LN9@get_local_:
  0008a	8b 0d 00 00 00
	00		 mov	 ecx, DWORD PTR ?__LINE__Var@?0??get_local_vec3d@@YGXPAUENTITY@@W4VEC3D_TYPES@@PAUVEC3D@@@Z@4JA
  00090	83 c1 16	 add	 ecx, 22			; 00000016H
  00093	51		 push	 ecx
  00094	68 00 00 00 00	 push	 OFFSET ??_C@_0EN@NEKPPKIO@c?3?2users?2nhv90?2projects?2eech?2ap@
  00099	6b 55 0c 0c	 imul	 edx, DWORD PTR _type$[ebp], 12
  0009d	8b 82 00 00 00
	00		 mov	 eax, DWORD PTR ?vec3d_type_database@@3PAUVEC3D_TYPE_DATA@@A[edx]
  000a3	50		 push	 eax
  000a4	8b 4d 08	 mov	 ecx, DWORD PTR _en$[ebp]
  000a7	2b 0d 00 00 00
	00		 sub	 ecx, DWORD PTR ?entities@@3PAUENTITY@@A ; entities
  000ad	c1 f9 04	 sar	 ecx, 4
  000b0	51		 push	 ecx
  000b1	6b 55 b8 0c	 imul	 edx, DWORD PTR tv89[ebp], 12
  000b5	8b 82 00 00 00
	00		 mov	 eax, DWORD PTR ?entity_type_database@@3PAUENTITY_TYPE_DATA@@A[edx]
  000bb	50		 push	 eax
  000bc	8b 0d 00 00 00
	00		 mov	 ecx, DWORD PTR ?debug_fatal_invalid_vec3d_type_message@@3PBDB ; debug_fatal_invalid_vec3d_type_message
  000c2	51		 push	 ecx
  000c3	e8 00 00 00 00	 call	 ?debug_fatal@@YAXPBDZZ	; debug_fatal
  000c8	83 c4 18	 add	 esp, 24			; 00000018H
$LN1@get_local_:

; 267  : 
; 268  : 			break;
; 269  : 		}
; 270  : 	}
; 271  : }

  000cb	5f		 pop	 edi
  000cc	5e		 pop	 esi
  000cd	5b		 pop	 ebx
  000ce	8b e5		 mov	 esp, ebp
  000d0	5d		 pop	 ebp
  000d1	c2 0c 00	 ret	 12			; 0000000cH
?get_local_vec3d@@YGXPAUENTITY@@W4VEC3D_TYPES@@PAUVEC3D@@@Z ENDP ; get_local_vec3d
_TEXT	ENDS
; Function compile flags: /Odtp /ZI
; File c:\users\nhv90\projects\eech\aphavoc\source\entity\special\effect\ef_vec3d.c
;	COMDAT ?set_client_vec3d@@YGXPAUENTITY@@W4VEC3D_TYPES@@PAUVEC3D@@@Z
_TEXT	SEGMENT
_en$ = 8						; size = 4
_type$ = 12						; size = 4
_v$ = 16						; size = 4
?set_client_vec3d@@YGXPAUENTITY@@W4VEC3D_TYPES@@PAUVEC3D@@@Z PROC ; set_client_vec3d, COMDAT

; 222  : {

  00000	55		 push	 ebp
  00001	8b ec		 mov	 ebp, esp
  00003	83 ec 40	 sub	 esp, 64			; 00000040H
  00006	53		 push	 ebx
  00007	56		 push	 esi
  00008	57		 push	 edi

; 223  : 	ASSERT (v);

  00009	83 7d 10 00	 cmp	 DWORD PTR _v$[ebp], 0
  0000d	75 18		 jne	 SHORT $LN2@set_client
  0000f	a1 00 00 00 00	 mov	 eax, DWORD PTR ?__LINE__Var@?0??set_client_vec3d@@YGXPAUENTITY@@W4VEC3D_TYPES@@PAUVEC3D@@@Z@4JA
  00014	83 c0 01	 add	 eax, 1
  00017	50		 push	 eax
  00018	68 00 00 00 00	 push	 OFFSET ??_C@_0EN@NEKPPKIO@c?3?2users?2nhv90?2projects?2eech?2ap@
  0001d	68 00 00 00 00	 push	 OFFSET ??_C@_01MHEDDDHA@v@
  00022	e8 00 00 00 00	 call	 ?process_assert@@YGXPBD0H@Z ; process_assert
$LN2@set_client:

; 224  : 
; 225  : 	if (get_comms_data_flow () == COMMS_DATA_FLOW_TX)

  00027	83 3d 00 00 00
	00 00		 cmp	 DWORD PTR ?system_comms_data_flow@@3W4COMMS_DATA_FLOW_TYPES@@A, 0 ; system_comms_data_flow
  0002e	75 34		 jne	 SHORT $LN3@set_client

; 226  : 	{
; 227  : 		validate_client_server_remote_fn ();

  00030	e8 00 00 00 00	 call	 ?assert_client_server_remote_fn@@YGHXZ ; assert_client_server_remote_fn
  00035	85 c0		 test	 eax, eax
  00037	75 18		 jne	 SHORT $LN5@set_client
  00039	a1 00 00 00 00	 mov	 eax, DWORD PTR ?__LINE__Var@?0??set_client_vec3d@@YGXPAUENTITY@@W4VEC3D_TYPES@@PAUVEC3D@@@Z@4JA
  0003e	83 c0 05	 add	 eax, 5
  00041	50		 push	 eax
  00042	68 00 00 00 00	 push	 OFFSET ??_C@_0EN@NEKPPKIO@c?3?2users?2nhv90?2projects?2eech?2ap@
  00047	68 00 00 00 00	 push	 OFFSET ??_C@_0CC@BNNNEGEG@assert_client_server_remote_fn?5@
  0004c	e8 00 00 00 00	 call	 ?process_assert@@YGXPBD0H@Z ; process_assert
$LN5@set_client:

; 228  : 
; 229  : 		set_remote_vec3d (en, type, v);

  00051	8b 45 10	 mov	 eax, DWORD PTR _v$[ebp]
  00054	50		 push	 eax
  00055	8b 4d 0c	 mov	 ecx, DWORD PTR _type$[ebp]
  00058	51		 push	 ecx
  00059	8b 55 08	 mov	 edx, DWORD PTR _en$[ebp]
  0005c	52		 push	 edx
  0005d	e8 00 00 00 00	 call	 ?set_remote_vec3d@@YGXPAUENTITY@@W4VEC3D_TYPES@@PAUVEC3D@@@Z ; set_remote_vec3d

; 230  : 	}
; 231  : 	else

  00062	eb 32		 jmp	 SHORT $LN1@set_client
$LN3@set_client:

; 232  : 	{
; 233  : 		validate_client_server_local_fn ();

  00064	e8 00 00 00 00	 call	 ?assert_client_server_local_fn@@YGHXZ ; assert_client_server_local_fn
  00069	85 c0		 test	 eax, eax
  0006b	75 18		 jne	 SHORT $LN6@set_client
  0006d	a1 00 00 00 00	 mov	 eax, DWORD PTR ?__LINE__Var@?0??set_client_vec3d@@YGXPAUENTITY@@W4VEC3D_TYPES@@PAUVEC3D@@@Z@4JA
  00072	83 c0 0b	 add	 eax, 11			; 0000000bH
  00075	50		 push	 eax
  00076	68 00 00 00 00	 push	 OFFSET ??_C@_0EN@NEKPPKIO@c?3?2users?2nhv90?2projects?2eech?2ap@
  0007b	68 00 00 00 00	 push	 OFFSET ??_C@_0CB@CFOCLFOK@assert_client_server_local_fn?5?$CI@
  00080	e8 00 00 00 00	 call	 ?process_assert@@YGXPBD0H@Z ; process_assert
$LN6@set_client:

; 234  : 
; 235  : 		set_local_vec3d (en, type, v);

  00085	8b 45 10	 mov	 eax, DWORD PTR _v$[ebp]
  00088	50		 push	 eax
  00089	8b 4d 0c	 mov	 ecx, DWORD PTR _type$[ebp]
  0008c	51		 push	 ecx
  0008d	8b 55 08	 mov	 edx, DWORD PTR _en$[ebp]
  00090	52		 push	 edx
  00091	e8 00 00 00 00	 call	 ?set_local_vec3d@@YGXPAUENTITY@@W4VEC3D_TYPES@@PAUVEC3D@@@Z ; set_local_vec3d
$LN1@set_client:

; 236  : 	}
; 237  : }

  00096	5f		 pop	 edi
  00097	5e		 pop	 esi
  00098	5b		 pop	 ebx
  00099	8b e5		 mov	 esp, ebp
  0009b	5d		 pop	 ebp
  0009c	c2 0c 00	 ret	 12			; 0000000cH
?set_client_vec3d@@YGXPAUENTITY@@W4VEC3D_TYPES@@PAUVEC3D@@@Z ENDP ; set_client_vec3d
_TEXT	ENDS
; Function compile flags: /Odtp /ZI
; File c:\users\nhv90\projects\eech\aphavoc\source\entity\special\effect\ef_vec3d.c
;	COMDAT ?set_server_vec3d@@YGXPAUENTITY@@W4VEC3D_TYPES@@PAUVEC3D@@@Z
_TEXT	SEGMENT
_en$ = 8						; size = 4
_type$ = 12						; size = 4
_v$ = 16						; size = 4
?set_server_vec3d@@YGXPAUENTITY@@W4VEC3D_TYPES@@PAUVEC3D@@@Z PROC ; set_server_vec3d, COMDAT

; 205  : {

  00000	55		 push	 ebp
  00001	8b ec		 mov	 ebp, esp
  00003	83 ec 40	 sub	 esp, 64			; 00000040H
  00006	53		 push	 ebx
  00007	56		 push	 esi
  00008	57		 push	 edi

; 206  : 	ASSERT (v);

  00009	83 7d 10 00	 cmp	 DWORD PTR _v$[ebp], 0
  0000d	75 18		 jne	 SHORT $LN2@set_server
  0000f	a1 00 00 00 00	 mov	 eax, DWORD PTR ?__LINE__Var@?0??set_server_vec3d@@YGXPAUENTITY@@W4VEC3D_TYPES@@PAUVEC3D@@@Z@4JA
  00014	83 c0 01	 add	 eax, 1
  00017	50		 push	 eax
  00018	68 00 00 00 00	 push	 OFFSET ??_C@_0EN@NEKPPKIO@c?3?2users?2nhv90?2projects?2eech?2ap@
  0001d	68 00 00 00 00	 push	 OFFSET ??_C@_01MHEDDDHA@v@
  00022	e8 00 00 00 00	 call	 ?process_assert@@YGXPBD0H@Z ; process_assert
$LN2@set_server:

; 207  : 
; 208  : 	validate_client_server_local_fn ();

  00027	e8 00 00 00 00	 call	 ?assert_client_server_local_fn@@YGHXZ ; assert_client_server_local_fn
  0002c	85 c0		 test	 eax, eax
  0002e	75 18		 jne	 SHORT $LN3@set_server
  00030	a1 00 00 00 00	 mov	 eax, DWORD PTR ?__LINE__Var@?0??set_server_vec3d@@YGXPAUENTITY@@W4VEC3D_TYPES@@PAUVEC3D@@@Z@4JA
  00035	83 c0 03	 add	 eax, 3
  00038	50		 push	 eax
  00039	68 00 00 00 00	 push	 OFFSET ??_C@_0EN@NEKPPKIO@c?3?2users?2nhv90?2projects?2eech?2ap@
  0003e	68 00 00 00 00	 push	 OFFSET ??_C@_0CB@CFOCLFOK@assert_client_server_local_fn?5?$CI@
  00043	e8 00 00 00 00	 call	 ?process_assert@@YGXPBD0H@Z ; process_assert
$LN3@set_server:

; 209  : 
; 210  : 	set_local_vec3d (en, type, v);

  00048	8b 45 10	 mov	 eax, DWORD PTR _v$[ebp]
  0004b	50		 push	 eax
  0004c	8b 4d 0c	 mov	 ecx, DWORD PTR _type$[ebp]
  0004f	51		 push	 ecx
  00050	8b 55 08	 mov	 edx, DWORD PTR _en$[ebp]
  00053	52		 push	 edx
  00054	e8 00 00 00 00	 call	 ?set_local_vec3d@@YGXPAUENTITY@@W4VEC3D_TYPES@@PAUVEC3D@@@Z ; set_local_vec3d

; 211  : 
; 212  : 	validate_client_server_remote_fn ();

  00059	e8 00 00 00 00	 call	 ?assert_client_server_remote_fn@@YGHXZ ; assert_client_server_remote_fn
  0005e	85 c0		 test	 eax, eax
  00060	75 18		 jne	 SHORT $LN4@set_server
  00062	a1 00 00 00 00	 mov	 eax, DWORD PTR ?__LINE__Var@?0??set_server_vec3d@@YGXPAUENTITY@@W4VEC3D_TYPES@@PAUVEC3D@@@Z@4JA
  00067	83 c0 07	 add	 eax, 7
  0006a	50		 push	 eax
  0006b	68 00 00 00 00	 push	 OFFSET ??_C@_0EN@NEKPPKIO@c?3?2users?2nhv90?2projects?2eech?2ap@
  00070	68 00 00 00 00	 push	 OFFSET ??_C@_0CC@BNNNEGEG@assert_client_server_remote_fn?5@
  00075	e8 00 00 00 00	 call	 ?process_assert@@YGXPBD0H@Z ; process_assert
$LN4@set_server:

; 213  : 
; 214  : 	set_remote_vec3d (en, type, v);

  0007a	8b 45 10	 mov	 eax, DWORD PTR _v$[ebp]
  0007d	50		 push	 eax
  0007e	8b 4d 0c	 mov	 ecx, DWORD PTR _type$[ebp]
  00081	51		 push	 ecx
  00082	8b 55 08	 mov	 edx, DWORD PTR _en$[ebp]
  00085	52		 push	 edx
  00086	e8 00 00 00 00	 call	 ?set_remote_vec3d@@YGXPAUENTITY@@W4VEC3D_TYPES@@PAUVEC3D@@@Z ; set_remote_vec3d

; 215  : }

  0008b	5f		 pop	 edi
  0008c	5e		 pop	 esi
  0008d	5b		 pop	 ebx
  0008e	8b e5		 mov	 esp, ebp
  00090	5d		 pop	 ebp
  00091	c2 0c 00	 ret	 12			; 0000000cH
?set_server_vec3d@@YGXPAUENTITY@@W4VEC3D_TYPES@@PAUVEC3D@@@Z ENDP ; set_server_vec3d
_TEXT	ENDS
; Function compile flags: /Odtp /ZI
; File c:\users\nhv90\projects\eech\aphavoc\source\entity\special\effect\ef_vec3d.c
;	COMDAT ?set_remote_vec3d@@YGXPAUENTITY@@W4VEC3D_TYPES@@PAUVEC3D@@@Z
_TEXT	SEGMENT
_en$ = 8						; size = 4
_type$ = 12						; size = 4
_v$ = 16						; size = 4
?set_remote_vec3d@@YGXPAUENTITY@@W4VEC3D_TYPES@@PAUVEC3D@@@Z PROC ; set_remote_vec3d, COMDAT

; 188  : {

  00000	55		 push	 ebp
  00001	8b ec		 mov	 ebp, esp
  00003	83 ec 40	 sub	 esp, 64			; 00000040H
  00006	53		 push	 ebx
  00007	56		 push	 esi
  00008	57		 push	 edi

; 189  : 	ASSERT (v);

  00009	83 7d 10 00	 cmp	 DWORD PTR _v$[ebp], 0
  0000d	75 18		 jne	 SHORT $LN2@set_remote
  0000f	a1 00 00 00 00	 mov	 eax, DWORD PTR ?__LINE__Var@?0??set_remote_vec3d@@YGXPAUENTITY@@W4VEC3D_TYPES@@PAUVEC3D@@@Z@4JA
  00014	83 c0 01	 add	 eax, 1
  00017	50		 push	 eax
  00018	68 00 00 00 00	 push	 OFFSET ??_C@_0EN@NEKPPKIO@c?3?2users?2nhv90?2projects?2eech?2ap@
  0001d	68 00 00 00 00	 push	 OFFSET ??_C@_01MHEDDDHA@v@
  00022	e8 00 00 00 00	 call	 ?process_assert@@YGXPBD0H@Z ; process_assert
$LN2@set_remote:

; 190  : 
; 191  : 	#if DEBUG_MODULE
; 192  : 
; 193  : 	debug_log_entity_args (ENTITY_DEBUG_REMOTE, ENTITY_DEBUG_VEC3D, en, type, v);
; 194  : 
; 195  : 	#endif
; 196  : 
; 197  : 	transmit_entity_comms_message (ENTITY_COMMS_VEC3D, en, type, v);

  00027	8b 45 10	 mov	 eax, DWORD PTR _v$[ebp]
  0002a	50		 push	 eax
  0002b	8b 4d 0c	 mov	 ecx, DWORD PTR _type$[ebp]
  0002e	51		 push	 ecx
  0002f	8b 55 08	 mov	 edx, DWORD PTR _en$[ebp]
  00032	52		 push	 edx
  00033	6a 42		 push	 66			; 00000042H
  00035	e8 00 00 00 00	 call	 ?transmit_entity_comms_message@@YAXW4ENTITY_COMMS_MESSAGES@@PAUENTITY@@ZZ ; transmit_entity_comms_message
  0003a	83 c4 10	 add	 esp, 16			; 00000010H

; 198  : }

  0003d	5f		 pop	 edi
  0003e	5e		 pop	 esi
  0003f	5b		 pop	 ebx
  00040	8b e5		 mov	 esp, ebp
  00042	5d		 pop	 ebp
  00043	c2 0c 00	 ret	 12			; 0000000cH
?set_remote_vec3d@@YGXPAUENTITY@@W4VEC3D_TYPES@@PAUVEC3D@@@Z ENDP ; set_remote_vec3d
_TEXT	ENDS
; Function compile flags: /Odtp /ZI
; File c:\users\nhv90\projects\eech\aphavoc\source\entity\special\effect\ef_vec3d.c
;	COMDAT ?set_local_vec3d@@YGXPAUENTITY@@W4VEC3D_TYPES@@PAUVEC3D@@@Z
_TEXT	SEGMENT
tv167 = -92						; size = 4
tv144 = -92						; size = 4
tv70 = -92						; size = 4
_parent$1 = -24						; size = 4
_new_z_sec$2 = -20					; size = 4
_new_x_sec$3 = -16					; size = 4
_old_z_sec$4 = -12					; size = 4
_old_x_sec$5 = -8					; size = 4
_raw$ = -4						; size = 4
_en$ = 8						; size = 4
_type$ = 12						; size = 4
_v$ = 16						; size = 4
?set_local_vec3d@@YGXPAUENTITY@@W4VEC3D_TYPES@@PAUVEC3D@@@Z PROC ; set_local_vec3d, COMDAT

; 120  : {

  00000	55		 push	 ebp
  00001	8b ec		 mov	 ebp, esp
  00003	83 ec 5c	 sub	 esp, 92			; 0000005cH
  00006	53		 push	 ebx
  00007	56		 push	 esi
  00008	57		 push	 edi

; 121  : 	effect
; 122  : 		*raw;
; 123  : 
; 124  : 	ASSERT (v);

  00009	83 7d 10 00	 cmp	 DWORD PTR _v$[ebp], 0
  0000d	75 18		 jne	 SHORT $LN4@set_local_
  0000f	a1 00 00 00 00	 mov	 eax, DWORD PTR ?__LINE__Var@?0??set_local_vec3d@@YGXPAUENTITY@@W4VEC3D_TYPES@@PAUVEC3D@@@Z@4JA
  00014	83 c0 04	 add	 eax, 4
  00017	50		 push	 eax
  00018	68 00 00 00 00	 push	 OFFSET ??_C@_0EN@NEKPPKIO@c?3?2users?2nhv90?2projects?2eech?2ap@
  0001d	68 00 00 00 00	 push	 OFFSET ??_C@_01MHEDDDHA@v@
  00022	e8 00 00 00 00	 call	 ?process_assert@@YGXPBD0H@Z ; process_assert
$LN4@set_local_:

; 125  : 
; 126  : 	#if DEBUG_MODULE
; 127  : 
; 128  : 	debug_log_entity_args (ENTITY_DEBUG_LOCAL, ENTITY_DEBUG_VEC3D, en, type, v);
; 129  : 
; 130  : 	#endif
; 131  : 
; 132  : 	raw = (effect *) get_local_entity_data (en);

  00027	8b 45 08	 mov	 eax, DWORD PTR _en$[ebp]
  0002a	8b 48 04	 mov	 ecx, DWORD PTR [eax+4]
  0002d	89 4d fc	 mov	 DWORD PTR _raw$[ebp], ecx

; 133  : 
; 134  : 	switch (type)

  00030	8b 45 0c	 mov	 eax, DWORD PTR _type$[ebp]
  00033	89 45 a4	 mov	 DWORD PTR tv70[ebp], eax
  00036	83 7d a4 08	 cmp	 DWORD PTR tv70[ebp], 8
  0003a	74 05		 je	 SHORT $LN5@set_local_
  0003c	e9 4f 01 00 00	 jmp	 $LN9@set_local_
$LN5@set_local_:

; 135  : 	{
; 136  : 		////////////////////////////////////////
; 137  : 		case VEC3D_TYPE_POSITION:
; 138  : 		////////////////////////////////////////
; 139  : 		{
; 140  : 			int
; 141  : 				old_x_sec,
; 142  : 				old_z_sec,
; 143  : 				new_x_sec,
; 144  : 				new_z_sec;
; 145  : 
; 146  : 			entity
; 147  : 				*parent;
; 148  : 
; 149  : 			get_x_sector (old_x_sec, raw->position.x);

  00041	8d 45 f8	 lea	 eax, DWORD PTR _old_x_sec$5[ebp]
  00044	50		 push	 eax
  00045	8b 4d fc	 mov	 ecx, DWORD PTR _raw$[ebp]
  00048	f3 0f 10 41 04	 movss	 xmm0, DWORD PTR [ecx+4]
  0004d	51		 push	 ecx
  0004e	f3 0f 11 04 24	 movss	 DWORD PTR [esp], xmm0
  00053	e8 00 00 00 00	 call	 ?convert_float_to_int@@YGXMPAH@Z ; convert_float_to_int
  00058	8b 45 f8	 mov	 eax, DWORD PTR _old_x_sec$5[ebp]
  0005b	99		 cdq
  0005c	f7 3d 00 00 00
	00		 idiv	 DWORD PTR ?world_map@@3UWORLD_MAP_DATA@@A
  00062	89 45 f8	 mov	 DWORD PTR _old_x_sec$5[ebp], eax

; 150  : 			get_z_sector (old_z_sec, raw->position.z);

  00065	8d 45 f4	 lea	 eax, DWORD PTR _old_z_sec$4[ebp]
  00068	50		 push	 eax
  00069	8b 4d fc	 mov	 ecx, DWORD PTR _raw$[ebp]
  0006c	f3 0f 10 41 0c	 movss	 xmm0, DWORD PTR [ecx+12]
  00071	51		 push	 ecx
  00072	f3 0f 11 04 24	 movss	 DWORD PTR [esp], xmm0
  00077	e8 00 00 00 00	 call	 ?convert_float_to_int@@YGXMPAH@Z ; convert_float_to_int
  0007c	8b 45 f4	 mov	 eax, DWORD PTR _old_z_sec$4[ebp]
  0007f	99		 cdq
  00080	f7 3d 00 00 00
	00		 idiv	 DWORD PTR ?world_map@@3UWORLD_MAP_DATA@@A
  00086	89 45 f4	 mov	 DWORD PTR _old_z_sec$4[ebp], eax

; 151  : 
; 152  : 			get_x_sector (new_x_sec, v->x);

  00089	8d 45 f0	 lea	 eax, DWORD PTR _new_x_sec$3[ebp]
  0008c	50		 push	 eax
  0008d	8b 4d 10	 mov	 ecx, DWORD PTR _v$[ebp]
  00090	f3 0f 10 01	 movss	 xmm0, DWORD PTR [ecx]
  00094	51		 push	 ecx
  00095	f3 0f 11 04 24	 movss	 DWORD PTR [esp], xmm0
  0009a	e8 00 00 00 00	 call	 ?convert_float_to_int@@YGXMPAH@Z ; convert_float_to_int
  0009f	8b 45 f0	 mov	 eax, DWORD PTR _new_x_sec$3[ebp]
  000a2	99		 cdq
  000a3	f7 3d 00 00 00
	00		 idiv	 DWORD PTR ?world_map@@3UWORLD_MAP_DATA@@A
  000a9	89 45 f0	 mov	 DWORD PTR _new_x_sec$3[ebp], eax

; 153  : 			get_z_sector (new_z_sec, v->z);

  000ac	8d 45 ec	 lea	 eax, DWORD PTR _new_z_sec$2[ebp]
  000af	50		 push	 eax
  000b0	8b 4d 10	 mov	 ecx, DWORD PTR _v$[ebp]
  000b3	f3 0f 10 41 08	 movss	 xmm0, DWORD PTR [ecx+8]
  000b8	51		 push	 ecx
  000b9	f3 0f 11 04 24	 movss	 DWORD PTR [esp], xmm0
  000be	e8 00 00 00 00	 call	 ?convert_float_to_int@@YGXMPAH@Z ; convert_float_to_int
  000c3	8b 45 ec	 mov	 eax, DWORD PTR _new_z_sec$2[ebp]
  000c6	99		 cdq
  000c7	f7 3d 00 00 00
	00		 idiv	 DWORD PTR ?world_map@@3UWORLD_MAP_DATA@@A
  000cd	89 45 ec	 mov	 DWORD PTR _new_z_sec$2[ebp], eax

; 154  : 
; 155  : 			if ((old_x_sec != new_x_sec) || (old_z_sec != new_z_sec))

  000d0	8b 45 f8	 mov	 eax, DWORD PTR _old_x_sec$5[ebp]
  000d3	3b 45 f0	 cmp	 eax, DWORD PTR _new_x_sec$3[ebp]
  000d6	75 0c		 jne	 SHORT $LN8@set_local_
  000d8	8b 45 f4	 mov	 eax, DWORD PTR _old_z_sec$4[ebp]
  000db	3b 45 ec	 cmp	 eax, DWORD PTR _new_z_sec$2[ebp]
  000de	0f 84 91 00 00
	00		 je	 $LN6@set_local_
$LN8@set_local_:

; 156  : 			{
; 157  : 				delete_local_entity_from_parents_child_list (en, LIST_TYPE_SECTOR);

  000e4	6a 21		 push	 33			; 00000021H
  000e6	8b 45 08	 mov	 eax, DWORD PTR _en$[ebp]
  000e9	50		 push	 eax
  000ea	e8 00 00 00 00	 call	 ?delete_local_entity_from_parents_child_list@@YGXPAUENTITY@@W4LIST_TYPES@@@Z ; delete_local_entity_from_parents_child_list

; 158  : 
; 159  : 				raw->position = *v;

  000ef	8b 45 fc	 mov	 eax, DWORD PTR _raw$[ebp]
  000f2	83 c0 04	 add	 eax, 4
  000f5	8b 4d 10	 mov	 ecx, DWORD PTR _v$[ebp]
  000f8	8b 11		 mov	 edx, DWORD PTR [ecx]
  000fa	89 10		 mov	 DWORD PTR [eax], edx
  000fc	8b 51 04	 mov	 edx, DWORD PTR [ecx+4]
  000ff	89 50 04	 mov	 DWORD PTR [eax+4], edx
  00102	8b 49 08	 mov	 ecx, DWORD PTR [ecx+8]
  00105	89 48 08	 mov	 DWORD PTR [eax+8], ecx

; 160  : 
; 161  : 				parent = get_local_raw_sector_entity (new_x_sec, new_z_sec);

  00108	8b 45 ec	 mov	 eax, DWORD PTR _new_z_sec$2[ebp]
  0010b	0f af 05 08 00
	00 00		 imul	 eax, DWORD PTR ?world_map@@3UWORLD_MAP_DATA@@A+8
  00112	03 45 f0	 add	 eax, DWORD PTR _new_x_sec$3[ebp]
  00115	8b 0d 00 00 00
	00		 mov	 ecx, DWORD PTR ?entity_sector_map@@3PAPAUENTITY@@A ; entity_sector_map
  0011b	83 3c 81 00	 cmp	 DWORD PTR [ecx+eax*4], 0
  0011f	74 1a		 je	 SHORT $LN11@set_local_
  00121	8b 55 ec	 mov	 edx, DWORD PTR _new_z_sec$2[ebp]
  00124	0f af 15 08 00
	00 00		 imul	 edx, DWORD PTR ?world_map@@3UWORLD_MAP_DATA@@A+8
  0012b	03 55 f0	 add	 edx, DWORD PTR _new_x_sec$3[ebp]
  0012e	a1 00 00 00 00	 mov	 eax, DWORD PTR ?entity_sector_map@@3PAPAUENTITY@@A ; entity_sector_map
  00133	8b 0c 90	 mov	 ecx, DWORD PTR [eax+edx*4]
  00136	89 4d a4	 mov	 DWORD PTR tv144[ebp], ecx
  00139	eb 21		 jmp	 SHORT $LN12@set_local_
$LN11@set_local_:
  0013b	8b 15 00 00 00
	00		 mov	 edx, DWORD PTR ?__LINE__Var@?0??set_local_vec3d@@YGXPAUENTITY@@W4VEC3D_TYPES@@PAUVEC3D@@@Z@4JA
  00141	83 c2 29	 add	 edx, 41			; 00000029H
  00144	52		 push	 edx
  00145	68 00 00 00 00	 push	 OFFSET ??_C@_0EN@NEKPPKIO@c?3?2users?2nhv90?2projects?2eech?2ap@
  0014a	a1 00 00 00 00	 mov	 eax, DWORD PTR ?null_sector_entity_map_pointer_message@@3PBDB ; null_sector_entity_map_pointer_message
  0014f	50		 push	 eax
  00150	e8 00 00 00 00	 call	 ?process_assert@@YGXPBD0H@Z ; process_assert
  00155	c7 45 a4 00 00
	00 00		 mov	 DWORD PTR tv144[ebp], 0
$LN12@set_local_:
  0015c	8b 4d a4	 mov	 ecx, DWORD PTR tv144[ebp]
  0015f	89 4d e8	 mov	 DWORD PTR _parent$1[ebp], ecx

; 162  : 
; 163  : 				insert_local_entity_into_parents_child_list (en, LIST_TYPE_SECTOR, parent, NULL);

  00162	6a 00		 push	 0
  00164	8b 45 e8	 mov	 eax, DWORD PTR _parent$1[ebp]
  00167	50		 push	 eax
  00168	6a 21		 push	 33			; 00000021H
  0016a	8b 4d 08	 mov	 ecx, DWORD PTR _en$[ebp]
  0016d	51		 push	 ecx
  0016e	e8 00 00 00 00	 call	 ?insert_local_entity_into_parents_child_list@@YGXPAUENTITY@@W4LIST_TYPES@@00@Z ; insert_local_entity_into_parents_child_list

; 164  : 			}
; 165  : 			else

  00173	eb 19		 jmp	 SHORT $LN7@set_local_
$LN6@set_local_:

; 166  : 			{
; 167  : 				raw->position = *v;

  00175	8b 45 fc	 mov	 eax, DWORD PTR _raw$[ebp]
  00178	83 c0 04	 add	 eax, 4
  0017b	8b 4d 10	 mov	 ecx, DWORD PTR _v$[ebp]
  0017e	8b 11		 mov	 edx, DWORD PTR [ecx]
  00180	89 10		 mov	 DWORD PTR [eax], edx
  00182	8b 51 04	 mov	 edx, DWORD PTR [ecx+4]
  00185	89 50 04	 mov	 DWORD PTR [eax+4], edx
  00188	8b 49 08	 mov	 ecx, DWORD PTR [ecx+8]
  0018b	89 48 08	 mov	 DWORD PTR [eax+8], ecx
$LN7@set_local_:

; 168  : 			}
; 169  : 
; 170  : 			break;

  0018e	eb 72		 jmp	 SHORT $LN2@set_local_
$LN9@set_local_:

; 171  : 		}
; 172  : 		////////////////////////////////////////
; 173  : 		default:
; 174  : 		////////////////////////////////////////
; 175  : 		{
; 176  : 			debug_fatal_invalid_vec3d_type (en, type);

  00190	83 7d 08 00	 cmp	 DWORD PTR _en$[ebp], 0
  00194	74 0a		 je	 SHORT $LN13@set_local_
  00196	8b 45 08	 mov	 eax, DWORD PTR _en$[ebp]
  00199	8b 08		 mov	 ecx, DWORD PTR [eax]
  0019b	89 4d a4	 mov	 DWORD PTR tv167[ebp], ecx
  0019e	eb 21		 jmp	 SHORT $LN14@set_local_
$LN13@set_local_:
  001a0	8b 15 00 00 00
	00		 mov	 edx, DWORD PTR ?__LINE__Var@?0??set_local_vec3d@@YGXPAUENTITY@@W4VEC3D_TYPES@@PAUVEC3D@@@Z@4JA
  001a6	83 c2 38	 add	 edx, 56			; 00000038H
  001a9	52		 push	 edx
  001aa	68 00 00 00 00	 push	 OFFSET ??_C@_0EN@NEKPPKIO@c?3?2users?2nhv90?2projects?2eech?2ap@
  001af	a1 00 00 00 00	 mov	 eax, DWORD PTR ?null_entity_pointer_message@@3PBDB ; null_entity_pointer_message
  001b4	50		 push	 eax
  001b5	e8 00 00 00 00	 call	 ?process_assert@@YGXPBD0H@Z ; process_assert
  001ba	c7 45 a4 00 00
	00 00		 mov	 DWORD PTR tv167[ebp], 0
$LN14@set_local_:
  001c1	8b 0d 00 00 00
	00		 mov	 ecx, DWORD PTR ?__LINE__Var@?0??set_local_vec3d@@YGXPAUENTITY@@W4VEC3D_TYPES@@PAUVEC3D@@@Z@4JA
  001c7	83 c1 38	 add	 ecx, 56			; 00000038H
  001ca	51		 push	 ecx
  001cb	68 00 00 00 00	 push	 OFFSET ??_C@_0EN@NEKPPKIO@c?3?2users?2nhv90?2projects?2eech?2ap@
  001d0	6b 55 0c 0c	 imul	 edx, DWORD PTR _type$[ebp], 12
  001d4	8b 82 00 00 00
	00		 mov	 eax, DWORD PTR ?vec3d_type_database@@3PAUVEC3D_TYPE_DATA@@A[edx]
  001da	50		 push	 eax
  001db	8b 4d 08	 mov	 ecx, DWORD PTR _en$[ebp]
  001de	2b 0d 00 00 00
	00		 sub	 ecx, DWORD PTR ?entities@@3PAUENTITY@@A ; entities
  001e4	c1 f9 04	 sar	 ecx, 4
  001e7	51		 push	 ecx
  001e8	6b 55 a4 0c	 imul	 edx, DWORD PTR tv167[ebp], 12
  001ec	8b 82 00 00 00
	00		 mov	 eax, DWORD PTR ?entity_type_database@@3PAUENTITY_TYPE_DATA@@A[edx]
  001f2	50		 push	 eax
  001f3	8b 0d 00 00 00
	00		 mov	 ecx, DWORD PTR ?debug_fatal_invalid_vec3d_type_message@@3PBDB ; debug_fatal_invalid_vec3d_type_message
  001f9	51		 push	 ecx
  001fa	e8 00 00 00 00	 call	 ?debug_fatal@@YAXPBDZZ	; debug_fatal
  001ff	83 c4 18	 add	 esp, 24			; 00000018H
$LN2@set_local_:

; 177  : 
; 178  : 			break;
; 179  : 		}
; 180  : 	}
; 181  : }

  00202	5f		 pop	 edi
  00203	5e		 pop	 esi
  00204	5b		 pop	 ebx
  00205	8b e5		 mov	 esp, ebp
  00207	5d		 pop	 ebp
  00208	c2 0c 00	 ret	 12			; 0000000cH
?set_local_vec3d@@YGXPAUENTITY@@W4VEC3D_TYPES@@PAUVEC3D@@@Z ENDP ; set_local_vec3d
_TEXT	ENDS
; Function compile flags: /Odtp /ZI
; File c:\users\nhv90\projects\eech\aphavoc\source\entity\special\effect\ef_vec3d.c
;	COMDAT ?set_local_raw_vec3d@@YGXPAUENTITY@@W4VEC3D_TYPES@@PAUVEC3D@@@Z
_TEXT	SEGMENT
tv89 = -72						; size = 4
tv70 = -72						; size = 4
_raw$ = -4						; size = 4
_en$ = 8						; size = 4
_type$ = 12						; size = 4
_v$ = 16						; size = 4
?set_local_raw_vec3d@@YGXPAUENTITY@@W4VEC3D_TYPES@@PAUVEC3D@@@Z PROC ; set_local_raw_vec3d, COMDAT

; 80   : {

  00000	55		 push	 ebp
  00001	8b ec		 mov	 ebp, esp
  00003	83 ec 48	 sub	 esp, 72			; 00000048H
  00006	53		 push	 ebx
  00007	56		 push	 esi
  00008	57		 push	 edi

; 81   : 	effect
; 82   : 		*raw;
; 83   : 
; 84   : 	ASSERT (v);

  00009	83 7d 10 00	 cmp	 DWORD PTR _v$[ebp], 0
  0000d	75 18		 jne	 SHORT $LN4@set_local_
  0000f	a1 00 00 00 00	 mov	 eax, DWORD PTR ?__LINE__Var@?0??set_local_raw_vec3d@@YGXPAUENTITY@@W4VEC3D_TYPES@@PAUVEC3D@@@Z@4JA
  00014	83 c0 04	 add	 eax, 4
  00017	50		 push	 eax
  00018	68 00 00 00 00	 push	 OFFSET ??_C@_0EN@NEKPPKIO@c?3?2users?2nhv90?2projects?2eech?2ap@
  0001d	68 00 00 00 00	 push	 OFFSET ??_C@_01MHEDDDHA@v@
  00022	e8 00 00 00 00	 call	 ?process_assert@@YGXPBD0H@Z ; process_assert
$LN4@set_local_:

; 85   : 
; 86   : 	#if DEBUG_MODULE
; 87   : 
; 88   : 	debug_log_entity_args (ENTITY_DEBUG_LOCAL, ENTITY_DEBUG_VEC3D, en, type, v);
; 89   : 
; 90   : 	#endif
; 91   : 
; 92   : 	raw = (effect *) get_local_entity_data (en);

  00027	8b 45 08	 mov	 eax, DWORD PTR _en$[ebp]
  0002a	8b 48 04	 mov	 ecx, DWORD PTR [eax+4]
  0002d	89 4d fc	 mov	 DWORD PTR _raw$[ebp], ecx

; 93   : 
; 94   : 	switch (type)

  00030	8b 45 0c	 mov	 eax, DWORD PTR _type$[ebp]
  00033	89 45 b8	 mov	 DWORD PTR tv70[ebp], eax
  00036	83 7d b8 08	 cmp	 DWORD PTR tv70[ebp], 8
  0003a	74 02		 je	 SHORT $LN5@set_local_
  0003c	eb 1b		 jmp	 SHORT $LN6@set_local_
$LN5@set_local_:

; 95   : 	{
; 96   : 		////////////////////////////////////////
; 97   : 		case VEC3D_TYPE_POSITION:
; 98   : 		////////////////////////////////////////
; 99   : 		{
; 100  : 			raw->position = *v;

  0003e	8b 45 fc	 mov	 eax, DWORD PTR _raw$[ebp]
  00041	83 c0 04	 add	 eax, 4
  00044	8b 4d 10	 mov	 ecx, DWORD PTR _v$[ebp]
  00047	8b 11		 mov	 edx, DWORD PTR [ecx]
  00049	89 10		 mov	 DWORD PTR [eax], edx
  0004b	8b 51 04	 mov	 edx, DWORD PTR [ecx+4]
  0004e	89 50 04	 mov	 DWORD PTR [eax+4], edx
  00051	8b 49 08	 mov	 ecx, DWORD PTR [ecx+8]
  00054	89 48 08	 mov	 DWORD PTR [eax+8], ecx

; 101  : 
; 102  : 			break;

  00057	eb 72		 jmp	 SHORT $LN1@set_local_
$LN6@set_local_:

; 103  : 		}
; 104  : 		////////////////////////////////////////
; 105  : 		default:
; 106  : 		////////////////////////////////////////
; 107  : 		{
; 108  : 			debug_fatal_invalid_vec3d_type (en, type);

  00059	83 7d 08 00	 cmp	 DWORD PTR _en$[ebp], 0
  0005d	74 0a		 je	 SHORT $LN8@set_local_
  0005f	8b 45 08	 mov	 eax, DWORD PTR _en$[ebp]
  00062	8b 08		 mov	 ecx, DWORD PTR [eax]
  00064	89 4d b8	 mov	 DWORD PTR tv89[ebp], ecx
  00067	eb 21		 jmp	 SHORT $LN9@set_local_
$LN8@set_local_:
  00069	8b 15 00 00 00
	00		 mov	 edx, DWORD PTR ?__LINE__Var@?0??set_local_raw_vec3d@@YGXPAUENTITY@@W4VEC3D_TYPES@@PAUVEC3D@@@Z@4JA
  0006f	83 c2 1c	 add	 edx, 28			; 0000001cH
  00072	52		 push	 edx
  00073	68 00 00 00 00	 push	 OFFSET ??_C@_0EN@NEKPPKIO@c?3?2users?2nhv90?2projects?2eech?2ap@
  00078	a1 00 00 00 00	 mov	 eax, DWORD PTR ?null_entity_pointer_message@@3PBDB ; null_entity_pointer_message
  0007d	50		 push	 eax
  0007e	e8 00 00 00 00	 call	 ?process_assert@@YGXPBD0H@Z ; process_assert
  00083	c7 45 b8 00 00
	00 00		 mov	 DWORD PTR tv89[ebp], 0
$LN9@set_local_:
  0008a	8b 0d 00 00 00
	00		 mov	 ecx, DWORD PTR ?__LINE__Var@?0??set_local_raw_vec3d@@YGXPAUENTITY@@W4VEC3D_TYPES@@PAUVEC3D@@@Z@4JA
  00090	83 c1 1c	 add	 ecx, 28			; 0000001cH
  00093	51		 push	 ecx
  00094	68 00 00 00 00	 push	 OFFSET ??_C@_0EN@NEKPPKIO@c?3?2users?2nhv90?2projects?2eech?2ap@
  00099	6b 55 0c 0c	 imul	 edx, DWORD PTR _type$[ebp], 12
  0009d	8b 82 00 00 00
	00		 mov	 eax, DWORD PTR ?vec3d_type_database@@3PAUVEC3D_TYPE_DATA@@A[edx]
  000a3	50		 push	 eax
  000a4	8b 4d 08	 mov	 ecx, DWORD PTR _en$[ebp]
  000a7	2b 0d 00 00 00
	00		 sub	 ecx, DWORD PTR ?entities@@3PAUENTITY@@A ; entities
  000ad	c1 f9 04	 sar	 ecx, 4
  000b0	51		 push	 ecx
  000b1	6b 55 b8 0c	 imul	 edx, DWORD PTR tv89[ebp], 12
  000b5	8b 82 00 00 00
	00		 mov	 eax, DWORD PTR ?entity_type_database@@3PAUENTITY_TYPE_DATA@@A[edx]
  000bb	50		 push	 eax
  000bc	8b 0d 00 00 00
	00		 mov	 ecx, DWORD PTR ?debug_fatal_invalid_vec3d_type_message@@3PBDB ; debug_fatal_invalid_vec3d_type_message
  000c2	51		 push	 ecx
  000c3	e8 00 00 00 00	 call	 ?debug_fatal@@YAXPBDZZ	; debug_fatal
  000c8	83 c4 18	 add	 esp, 24			; 00000018H
$LN1@set_local_:

; 109  : 
; 110  : 			break;
; 111  : 		}
; 112  : 	}
; 113  : }

  000cb	5f		 pop	 edi
  000cc	5e		 pop	 esi
  000cd	5b		 pop	 ebx
  000ce	8b e5		 mov	 esp, ebp
  000d0	5d		 pop	 ebp
  000d1	c2 0c 00	 ret	 12			; 0000000cH
?set_local_raw_vec3d@@YGXPAUENTITY@@W4VEC3D_TYPES@@PAUVEC3D@@@Z ENDP ; set_local_raw_vec3d
_TEXT	ENDS
; Function compile flags: /Odtp /ZI
; File c:\users\nhv90\projects\eech\aphavoc\source\entity\special\effect\ef_vec3d.c
;	COMDAT ?overload_effect_vec3d_functions@@YGXW4ENTITY_TYPES@@@Z
_TEXT	SEGMENT
_type$ = 8						; size = 4
?overload_effect_vec3d_functions@@YGXW4ENTITY_TYPES@@@Z PROC ; overload_effect_vec3d_functions, COMDAT

; 315  : {

  00000	55		 push	 ebp
  00001	8b ec		 mov	 ebp, esp
  00003	83 ec 40	 sub	 esp, 64			; 00000040H
  00006	53		 push	 ebx
  00007	56		 push	 esi
  00008	57		 push	 edi

; 316  : 	////////////////////////////////////////
; 317  : 	//
; 318  : 	// VEC3D_TYPE_POSITION
; 319  : 	//
; 320  : 	////////////////////////////////////////
; 321  : 
; 322  : 	fn_set_local_entity_raw_vec3d			[type][VEC3D_TYPE_POSITION]									= set_local_raw_vec3d;

  00009	6b 45 08 60	 imul	 eax, DWORD PTR _type$[ebp], 96
  0000d	b9 04 00 00 00	 mov	 ecx, 4
  00012	c1 e1 03	 shl	 ecx, 3
  00015	c7 84 08 00 00
	00 00 00 00 00
	00		 mov	 DWORD PTR ?fn_set_local_entity_raw_vec3d@@3PAY0BI@P6GXPAUENTITY@@W4VEC3D_TYPES@@PAUVEC3D@@@ZA[eax+ecx], OFFSET ?set_local_raw_vec3d@@YGXPAUENTITY@@W4VEC3D_TYPES@@PAUVEC3D@@@Z ; set_local_raw_vec3d

; 323  : 	fn_set_local_entity_vec3d				[type][VEC3D_TYPE_POSITION]									= set_local_vec3d;

  00020	6b 45 08 60	 imul	 eax, DWORD PTR _type$[ebp], 96
  00024	b9 04 00 00 00	 mov	 ecx, 4
  00029	c1 e1 03	 shl	 ecx, 3
  0002c	c7 84 08 00 00
	00 00 00 00 00
	00		 mov	 DWORD PTR ?fn_set_local_entity_vec3d@@3PAY0BI@P6GXPAUENTITY@@W4VEC3D_TYPES@@PAUVEC3D@@@ZA[eax+ecx], OFFSET ?set_local_vec3d@@YGXPAUENTITY@@W4VEC3D_TYPES@@PAUVEC3D@@@Z ; set_local_vec3d

; 324  : 	fn_set_client_server_entity_vec3d	[type][VEC3D_TYPE_POSITION][COMMS_MODEL_SERVER]			= set_server_vec3d;

  00037	69 45 08 c0 00
	00 00		 imul	 eax, DWORD PTR _type$[ebp], 192
  0003e	b9 08 00 00 00	 mov	 ecx, 8
  00043	c1 e1 03	 shl	 ecx, 3
  00046	8d 94 08 00 00
	00 00		 lea	 edx, DWORD PTR ?fn_set_client_server_entity_vec3d@@3PAY1BI@1P6GXPAUENTITY@@W4VEC3D_TYPES@@PAUVEC3D@@@ZA[eax+ecx]
  0004d	b8 04 00 00 00	 mov	 eax, 4
  00052	6b c8 00	 imul	 ecx, eax, 0
  00055	c7 04 0a 00 00
	00 00		 mov	 DWORD PTR [edx+ecx], OFFSET ?set_server_vec3d@@YGXPAUENTITY@@W4VEC3D_TYPES@@PAUVEC3D@@@Z ; set_server_vec3d

; 325  : 	fn_set_client_server_entity_vec3d	[type][VEC3D_TYPE_POSITION][COMMS_MODEL_CLIENT]			= set_client_vec3d;

  0005c	69 45 08 c0 00
	00 00		 imul	 eax, DWORD PTR _type$[ebp], 192
  00063	b9 08 00 00 00	 mov	 ecx, 8
  00068	c1 e1 03	 shl	 ecx, 3
  0006b	8d 94 08 00 00
	00 00		 lea	 edx, DWORD PTR ?fn_set_client_server_entity_vec3d@@3PAY1BI@1P6GXPAUENTITY@@W4VEC3D_TYPES@@PAUVEC3D@@@ZA[eax+ecx]
  00072	b8 04 00 00 00	 mov	 eax, 4
  00077	c1 e0 00	 shl	 eax, 0
  0007a	c7 04 02 00 00
	00 00		 mov	 DWORD PTR [edx+eax], OFFSET ?set_client_vec3d@@YGXPAUENTITY@@W4VEC3D_TYPES@@PAUVEC3D@@@Z ; set_client_vec3d

; 326  : 	fn_get_local_entity_vec3d				[type][VEC3D_TYPE_POSITION]							 		= get_local_vec3d;

  00081	6b 45 08 60	 imul	 eax, DWORD PTR _type$[ebp], 96
  00085	b9 04 00 00 00	 mov	 ecx, 4
  0008a	c1 e1 03	 shl	 ecx, 3
  0008d	c7 84 08 00 00
	00 00 00 00 00
	00		 mov	 DWORD PTR ?fn_get_local_entity_vec3d@@3PAY0BI@P6GXPAUENTITY@@W4VEC3D_TYPES@@PAUVEC3D@@@ZA[eax+ecx], OFFSET ?get_local_vec3d@@YGXPAUENTITY@@W4VEC3D_TYPES@@PAUVEC3D@@@Z ; get_local_vec3d

; 327  : 	fn_get_local_entity_vec3d_ptr			[type][VEC3D_TYPE_POSITION]									= get_local_vec3d_ptr;

  00098	6b 45 08 60	 imul	 eax, DWORD PTR _type$[ebp], 96
  0009c	b9 04 00 00 00	 mov	 ecx, 4
  000a1	c1 e1 03	 shl	 ecx, 3
  000a4	c7 84 08 00 00
	00 00 00 00 00
	00		 mov	 DWORD PTR ?fn_get_local_entity_vec3d_ptr@@3PAY0BI@P6GPAUVEC3D@@PAUENTITY@@W4VEC3D_TYPES@@@ZA[eax+ecx], OFFSET ?get_local_vec3d_ptr@@YGPAUVEC3D@@PAUENTITY@@W4VEC3D_TYPES@@@Z ; get_local_vec3d_ptr

; 328  : }

  000af	5f		 pop	 edi
  000b0	5e		 pop	 esi
  000b1	5b		 pop	 ebx
  000b2	8b e5		 mov	 esp, ebp
  000b4	5d		 pop	 ebp
  000b5	c2 04 00	 ret	 4
?overload_effect_vec3d_functions@@YGXW4ENTITY_TYPES@@@Z ENDP ; overload_effect_vec3d_functions
_TEXT	ENDS
END
