; Listing generated by Microsoft (R) Optimizing Compiler Version 19.16.27045.0 

	TITLE	C:\Users\nhv90\Projects\eech\aphavoc\source\entity\system\en_funcs\en_att.c
	.686P
	.XMM
	include listing.inc
	.model	flat

INCLUDELIB MSVCRTD
INCLUDELIB OLDNAMES

PUBLIC	?fn_set_local_entity_raw_attitude_matrix@@3PAP6GXPAUENTITY@@QAY02M@ZA ; fn_set_local_entity_raw_attitude_matrix
PUBLIC	?fn_set_local_entity_attitude_matrix@@3PAP6GXPAUENTITY@@QAY02M@ZA ; fn_set_local_entity_attitude_matrix
PUBLIC	?fn_set_client_server_entity_attitude_matrix@@3PAY01P6GXPAUENTITY@@QAY02M@ZA ; fn_set_client_server_entity_attitude_matrix
PUBLIC	?fn_get_local_entity_attitude_matrix@@3PAP6GXPAUENTITY@@QAY02M@ZA ; fn_get_local_entity_attitude_matrix
PUBLIC	?fn_get_local_entity_attitude_matrix_ptr@@3PAP6GPAY122MPAUENTITY@@@ZA ; fn_get_local_entity_attitude_matrix_ptr
PUBLIC	?fn_set_local_entity_raw_attitude_angles@@3PAP6GXPAUENTITY@@MMM@ZA ; fn_set_local_entity_raw_attitude_angles
PUBLIC	?fn_set_local_entity_attitude_angles@@3PAP6GXPAUENTITY@@MMM@ZA ; fn_set_local_entity_attitude_angles
PUBLIC	?fn_set_client_server_entity_attitude_angles@@3PAY01P6GXPAUENTITY@@MMM@ZA ; fn_set_client_server_entity_attitude_angles
PUBLIC	?fn_get_local_entity_attitude_angles@@3PAP6GXPAUENTITY@@PAM11@ZA ; fn_get_local_entity_attitude_angles
_BSS	SEGMENT
?fn_set_local_entity_raw_attitude_matrix@@3PAP6GXPAUENTITY@@QAY02M@ZA DD 026H DUP (?) ; fn_set_local_entity_raw_attitude_matrix
?fn_set_local_entity_attitude_matrix@@3PAP6GXPAUENTITY@@QAY02M@ZA DD 026H DUP (?) ; fn_set_local_entity_attitude_matrix
?fn_set_client_server_entity_attitude_matrix@@3PAY01P6GXPAUENTITY@@QAY02M@ZA DD 04cH DUP (?) ; fn_set_client_server_entity_attitude_matrix
?fn_get_local_entity_attitude_matrix@@3PAP6GXPAUENTITY@@QAY02M@ZA DD 026H DUP (?) ; fn_get_local_entity_attitude_matrix
?fn_get_local_entity_attitude_matrix_ptr@@3PAP6GPAY122MPAUENTITY@@@ZA DD 026H DUP (?) ; fn_get_local_entity_attitude_matrix_ptr
?fn_set_local_entity_raw_attitude_angles@@3PAP6GXPAUENTITY@@MMM@ZA DD 026H DUP (?) ; fn_set_local_entity_raw_attitude_angles
?fn_set_local_entity_attitude_angles@@3PAP6GXPAUENTITY@@MMM@ZA DD 026H DUP (?) ; fn_set_local_entity_attitude_angles
?fn_set_client_server_entity_attitude_angles@@3PAY01P6GXPAUENTITY@@MMM@ZA DD 04cH DUP (?) ; fn_set_client_server_entity_attitude_angles
?fn_get_local_entity_attitude_angles@@3PAP6GXPAUENTITY@@PAM11@ZA DD 026H DUP (?) ; fn_get_local_entity_attitude_angles
_BSS	ENDS
PUBLIC	_asinf
PUBLIC	_atan2f
PUBLIC	?asin@@YGMM@Z					; asin
PUBLIC	?atan2@@YGMMM@Z					; atan2
PUBLIC	?initialise_entity_attitude_default_functions@@YGXXZ ; initialise_entity_attitude_default_functions
PUBLIC	?pack_attitude_matrix@@YGXPAUENTITY@@QAY02M@Z	; pack_attitude_matrix
PUBLIC	?unpack_attitude_matrix@@YGXPAUENTITY@@QAY02M@Z	; unpack_attitude_matrix
PUBLIC	?pack_attitude_angles@@YGXPAUENTITY@@MMM@Z	; pack_attitude_angles
PUBLIC	?unpack_attitude_angles@@YGXPAUENTITY@@PAM11@Z	; unpack_attitude_angles
PUBLIC	?__LINE__Var@?0??default_set_entity_attitude_matrix@@YGXPAUENTITY@@QAY02M@Z@4JA ; `default_set_entity_attitude_matrix'::`1'::__LINE__Var
PUBLIC	??_C@_0EM@PFCAJCEA@c?3?2users?2nhv90?2projects?2eech?2ap@ ; `string'
PUBLIC	??_C@_08EKMPKBMJ@attitude@			; `string'
PUBLIC	?__LINE__Var@?0??default_get_entity_attitude_matrix@@YGXPAUENTITY@@QAY02M@Z@4JA ; `default_get_entity_attitude_matrix'::`1'::__LINE__Var
PUBLIC	?__LINE__Var@?0??default_get_entity_attitude_angles@@YGXPAUENTITY@@PAM11@Z@4JA ; `default_get_entity_attitude_angles'::`1'::__LINE__Var
PUBLIC	??_C@_07MBJMFGGL@heading@			; `string'
PUBLIC	??_C@_05NCNFOFLM@pitch@				; `string'
PUBLIC	??_C@_04FBAPEKPH@roll@				; `string'
PUBLIC	?__LINE__Var@?0??pack_attitude_matrix@@YGXPAUENTITY@@QAY02M@Z@4JA ; `pack_attitude_matrix'::`1'::__LINE__Var
PUBLIC	?__LINE__Var@?0??unpack_attitude_matrix@@YGXPAUENTITY@@QAY02M@Z@4JA ; `unpack_attitude_matrix'::`1'::__LINE__Var
PUBLIC	?__LINE__Var@?0??unpack_attitude_angles@@YGXPAUENTITY@@PAM11@Z@4JA ; `unpack_attitude_angles'::`1'::__LINE__Var
PUBLIC	__xmm@80000000800000008000000080000000
EXTRN	_asin:PROC
EXTRN	_atan2:PROC
EXTRN	?process_assert@@YGXPBD0H@Z:PROC		; process_assert
EXTRN	?get_3d_transformation_matrix@@YGXQAY02MMMM@Z:PROC ; get_3d_transformation_matrix
EXTRN	?get_identity_matrix3x3@@YGXQAY02M@Z:PROC	; get_identity_matrix3x3
EXTRN	?pack_float_value@@YGXPAUENTITY@@W4FLOAT_TYPES@@M@Z:PROC ; pack_float_value
EXTRN	?unpack_float_value@@YGMPAUENTITY@@W4FLOAT_TYPES@@@Z:PROC ; unpack_float_value
EXTRN	__fltused:DWORD
;	COMDAT __xmm@80000000800000008000000080000000
CONST	SEGMENT
__xmm@80000000800000008000000080000000 DB 00H, 00H, 00H, 080H, 00H, 00H, 00H
	DB	080H, 00H, 00H, 00H, 080H, 00H, 00H, 00H, 080H
CONST	ENDS
;	COMDAT ?__LINE__Var@?0??unpack_attitude_angles@@YGXPAUENTITY@@PAM11@Z@4JA
_DATA	SEGMENT
?__LINE__Var@?0??unpack_attitude_angles@@YGXPAUENTITY@@PAM11@Z@4JA DD 010aH ; `unpack_attitude_angles'::`1'::__LINE__Var
_DATA	ENDS
;	COMDAT ?__LINE__Var@?0??unpack_attitude_matrix@@YGXPAUENTITY@@QAY02M@Z@4JA
_DATA	SEGMENT
?__LINE__Var@?0??unpack_attitude_matrix@@YGXPAUENTITY@@QAY02M@Z@4JA DD 0e7H ; `unpack_attitude_matrix'::`1'::__LINE__Var
_DATA	ENDS
;	COMDAT ?__LINE__Var@?0??pack_attitude_matrix@@YGXPAUENTITY@@QAY02M@Z@4JA
_DATA	SEGMENT
?__LINE__Var@?0??pack_attitude_matrix@@YGXPAUENTITY@@QAY02M@Z@4JA DD 0cdH ; `pack_attitude_matrix'::`1'::__LINE__Var
_DATA	ENDS
;	COMDAT ??_C@_04FBAPEKPH@roll@
CONST	SEGMENT
??_C@_04FBAPEKPH@roll@ DB 'roll', 00H			; `string'
CONST	ENDS
;	COMDAT ??_C@_05NCNFOFLM@pitch@
CONST	SEGMENT
??_C@_05NCNFOFLM@pitch@ DB 'pitch', 00H			; `string'
CONST	ENDS
;	COMDAT ??_C@_07MBJMFGGL@heading@
CONST	SEGMENT
??_C@_07MBJMFGGL@heading@ DB 'heading', 00H		; `string'
CONST	ENDS
;	COMDAT ?__LINE__Var@?0??default_get_entity_attitude_angles@@YGXPAUENTITY@@PAM11@Z@4JA
_DATA	SEGMENT
?__LINE__Var@?0??default_get_entity_attitude_angles@@YGXPAUENTITY@@PAM11@Z@4JA DD 08fH ; `default_get_entity_attitude_angles'::`1'::__LINE__Var
_DATA	ENDS
;	COMDAT ?__LINE__Var@?0??default_get_entity_attitude_matrix@@YGXPAUENTITY@@QAY02M@Z@4JA
_DATA	SEGMENT
?__LINE__Var@?0??default_get_entity_attitude_matrix@@YGXPAUENTITY@@QAY02M@Z@4JA DD 073H ; `default_get_entity_attitude_matrix'::`1'::__LINE__Var
_DATA	ENDS
;	COMDAT ??_C@_08EKMPKBMJ@attitude@
CONST	SEGMENT
??_C@_08EKMPKBMJ@attitude@ DB 'attitude', 00H		; `string'
CONST	ENDS
;	COMDAT ??_C@_0EM@PFCAJCEA@c?3?2users?2nhv90?2projects?2eech?2ap@
CONST	SEGMENT
??_C@_0EM@PFCAJCEA@c?3?2users?2nhv90?2projects?2eech?2ap@ DB 'c:\users\nh'
	DB	'v90\projects\eech\aphavoc\source\entity\system\en_funcs\en_at'
	DB	't.c', 00H					; `string'
CONST	ENDS
;	COMDAT ?__LINE__Var@?0??default_set_entity_attitude_matrix@@YGXPAUENTITY@@QAY02M@Z@4JA
_DATA	SEGMENT
?__LINE__Var@?0??default_set_entity_attitude_matrix@@YGXPAUENTITY@@QAY02M@Z@4JA DD 06aH ; `default_set_entity_attitude_matrix'::`1'::__LINE__Var
_DATA	ENDS
; Function compile flags: /Odtp /ZI
; File c:\users\nhv90\projects\eech\aphavoc\source\entity\system\en_funcs\en_att.c
;	COMDAT ?default_get_entity_attitude_angles@@YGXPAUENTITY@@PAM11@Z
_TEXT	SEGMENT
_en$ = 8						; size = 4
_heading$ = 12						; size = 4
_pitch$ = 16						; size = 4
_roll$ = 20						; size = 4
?default_get_entity_attitude_angles@@YGXPAUENTITY@@PAM11@Z PROC ; default_get_entity_attitude_angles, COMDAT

; 143  : {

  00000	55		 push	 ebp
  00001	8b ec		 mov	 ebp, esp
  00003	83 ec 40	 sub	 esp, 64			; 00000040H
  00006	53		 push	 ebx
  00007	56		 push	 esi
  00008	57		 push	 edi

; 144  : 	ASSERT (heading);

  00009	83 7d 0c 00	 cmp	 DWORD PTR _heading$[ebp], 0
  0000d	75 18		 jne	 SHORT $LN2@default_ge
  0000f	a1 00 00 00 00	 mov	 eax, DWORD PTR ?__LINE__Var@?0??default_get_entity_attitude_angles@@YGXPAUENTITY@@PAM11@Z@4JA
  00014	83 c0 01	 add	 eax, 1
  00017	50		 push	 eax
  00018	68 00 00 00 00	 push	 OFFSET ??_C@_0EM@PFCAJCEA@c?3?2users?2nhv90?2projects?2eech?2ap@
  0001d	68 00 00 00 00	 push	 OFFSET ??_C@_07MBJMFGGL@heading@
  00022	e8 00 00 00 00	 call	 ?process_assert@@YGXPBD0H@Z ; process_assert
$LN2@default_ge:

; 145  : 
; 146  : 	ASSERT (pitch);

  00027	83 7d 10 00	 cmp	 DWORD PTR _pitch$[ebp], 0
  0002b	75 18		 jne	 SHORT $LN3@default_ge
  0002d	a1 00 00 00 00	 mov	 eax, DWORD PTR ?__LINE__Var@?0??default_get_entity_attitude_angles@@YGXPAUENTITY@@PAM11@Z@4JA
  00032	83 c0 03	 add	 eax, 3
  00035	50		 push	 eax
  00036	68 00 00 00 00	 push	 OFFSET ??_C@_0EM@PFCAJCEA@c?3?2users?2nhv90?2projects?2eech?2ap@
  0003b	68 00 00 00 00	 push	 OFFSET ??_C@_05NCNFOFLM@pitch@
  00040	e8 00 00 00 00	 call	 ?process_assert@@YGXPBD0H@Z ; process_assert
$LN3@default_ge:

; 147  : 
; 148  : 	ASSERT (roll);

  00045	83 7d 14 00	 cmp	 DWORD PTR _roll$[ebp], 0
  00049	75 18		 jne	 SHORT $LN4@default_ge
  0004b	a1 00 00 00 00	 mov	 eax, DWORD PTR ?__LINE__Var@?0??default_get_entity_attitude_angles@@YGXPAUENTITY@@PAM11@Z@4JA
  00050	83 c0 05	 add	 eax, 5
  00053	50		 push	 eax
  00054	68 00 00 00 00	 push	 OFFSET ??_C@_0EM@PFCAJCEA@c?3?2users?2nhv90?2projects?2eech?2ap@
  00059	68 00 00 00 00	 push	 OFFSET ??_C@_04FBAPEKPH@roll@
  0005e	e8 00 00 00 00	 call	 ?process_assert@@YGXPBD0H@Z ; process_assert
$LN4@default_ge:

; 149  : 
; 150  : 	*heading = 0.0;

  00063	8b 45 0c	 mov	 eax, DWORD PTR _heading$[ebp]
  00066	0f 57 c0	 xorps	 xmm0, xmm0
  00069	f3 0f 11 00	 movss	 DWORD PTR [eax], xmm0

; 151  : 
; 152  : 	*pitch = 0.0;

  0006d	8b 45 10	 mov	 eax, DWORD PTR _pitch$[ebp]
  00070	0f 57 c0	 xorps	 xmm0, xmm0
  00073	f3 0f 11 00	 movss	 DWORD PTR [eax], xmm0

; 153  : 
; 154  : 	*roll = 0.0;

  00077	8b 45 14	 mov	 eax, DWORD PTR _roll$[ebp]
  0007a	0f 57 c0	 xorps	 xmm0, xmm0
  0007d	f3 0f 11 00	 movss	 DWORD PTR [eax], xmm0

; 155  : }

  00081	5f		 pop	 edi
  00082	5e		 pop	 esi
  00083	5b		 pop	 ebx
  00084	8b e5		 mov	 esp, ebp
  00086	5d		 pop	 ebp
  00087	c2 10 00	 ret	 16			; 00000010H
?default_get_entity_attitude_angles@@YGXPAUENTITY@@PAM11@Z ENDP ; default_get_entity_attitude_angles
_TEXT	ENDS
; Function compile flags: /Odtp /ZI
; File c:\users\nhv90\projects\eech\aphavoc\source\entity\system\en_funcs\en_att.c
;	COMDAT ?default_set_entity_attitude_angles@@YGXPAUENTITY@@MMM@Z
_TEXT	SEGMENT
_en$ = 8						; size = 4
_heading$ = 12						; size = 4
_pitch$ = 16						; size = 4
_roll$ = 20						; size = 4
?default_set_entity_attitude_angles@@YGXPAUENTITY@@MMM@Z PROC ; default_set_entity_attitude_angles, COMDAT

; 135  : {

  00000	55		 push	 ebp
  00001	8b ec		 mov	 ebp, esp
  00003	83 ec 40	 sub	 esp, 64			; 00000040H
  00006	53		 push	 ebx
  00007	56		 push	 esi
  00008	57		 push	 edi

; 136  : }

  00009	5f		 pop	 edi
  0000a	5e		 pop	 esi
  0000b	5b		 pop	 ebx
  0000c	8b e5		 mov	 esp, ebp
  0000e	5d		 pop	 ebp
  0000f	c2 10 00	 ret	 16			; 00000010H
?default_set_entity_attitude_angles@@YGXPAUENTITY@@MMM@Z ENDP ; default_set_entity_attitude_angles
_TEXT	ENDS
; Function compile flags: /Odtp /ZI
; File c:\users\nhv90\projects\eech\aphavoc\source\entity\system\en_funcs\en_att.c
;	COMDAT ?default_get_entity_attitude_matrix_ptr@@YGPAY122MPAUENTITY@@@Z
_TEXT	SEGMENT
_en$ = 8						; size = 4
?default_get_entity_attitude_matrix_ptr@@YGPAY122MPAUENTITY@@@Z PROC ; default_get_entity_attitude_matrix_ptr, COMDAT

; 126  : {

  00000	55		 push	 ebp
  00001	8b ec		 mov	 ebp, esp
  00003	83 ec 40	 sub	 esp, 64			; 00000040H
  00006	53		 push	 ebx
  00007	56		 push	 esi
  00008	57		 push	 edi

; 127  : 	return (NULL);

  00009	33 c0		 xor	 eax, eax

; 128  : }

  0000b	5f		 pop	 edi
  0000c	5e		 pop	 esi
  0000d	5b		 pop	 ebx
  0000e	8b e5		 mov	 esp, ebp
  00010	5d		 pop	 ebp
  00011	c2 04 00	 ret	 4
?default_get_entity_attitude_matrix_ptr@@YGPAY122MPAUENTITY@@@Z ENDP ; default_get_entity_attitude_matrix_ptr
_TEXT	ENDS
; Function compile flags: /Odtp /ZI
; File c:\users\nhv90\projects\eech\aphavoc\source\entity\system\en_funcs\en_att.c
;	COMDAT ?default_get_entity_attitude_matrix@@YGXPAUENTITY@@QAY02M@Z
_TEXT	SEGMENT
_en$ = 8						; size = 4
_attitude$ = 12						; size = 4
?default_get_entity_attitude_matrix@@YGXPAUENTITY@@QAY02M@Z PROC ; default_get_entity_attitude_matrix, COMDAT

; 115  : {

  00000	55		 push	 ebp
  00001	8b ec		 mov	 ebp, esp
  00003	83 ec 40	 sub	 esp, 64			; 00000040H
  00006	53		 push	 ebx
  00007	56		 push	 esi
  00008	57		 push	 edi

; 116  : 	ASSERT (attitude);

  00009	83 7d 0c 00	 cmp	 DWORD PTR _attitude$[ebp], 0
  0000d	75 18		 jne	 SHORT $LN2@default_ge
  0000f	a1 00 00 00 00	 mov	 eax, DWORD PTR ?__LINE__Var@?0??default_get_entity_attitude_matrix@@YGXPAUENTITY@@QAY02M@Z@4JA
  00014	83 c0 01	 add	 eax, 1
  00017	50		 push	 eax
  00018	68 00 00 00 00	 push	 OFFSET ??_C@_0EM@PFCAJCEA@c?3?2users?2nhv90?2projects?2eech?2ap@
  0001d	68 00 00 00 00	 push	 OFFSET ??_C@_08EKMPKBMJ@attitude@
  00022	e8 00 00 00 00	 call	 ?process_assert@@YGXPBD0H@Z ; process_assert
$LN2@default_ge:

; 117  : 
; 118  : 	get_identity_matrix3x3 (attitude);

  00027	8b 45 0c	 mov	 eax, DWORD PTR _attitude$[ebp]
  0002a	50		 push	 eax
  0002b	e8 00 00 00 00	 call	 ?get_identity_matrix3x3@@YGXQAY02M@Z ; get_identity_matrix3x3

; 119  : }

  00030	5f		 pop	 edi
  00031	5e		 pop	 esi
  00032	5b		 pop	 ebx
  00033	8b e5		 mov	 esp, ebp
  00035	5d		 pop	 ebp
  00036	c2 08 00	 ret	 8
?default_get_entity_attitude_matrix@@YGXPAUENTITY@@QAY02M@Z ENDP ; default_get_entity_attitude_matrix
_TEXT	ENDS
; Function compile flags: /Odtp /ZI
; File c:\users\nhv90\projects\eech\aphavoc\source\entity\system\en_funcs\en_att.c
;	COMDAT ?default_set_entity_attitude_matrix@@YGXPAUENTITY@@QAY02M@Z
_TEXT	SEGMENT
_en$ = 8						; size = 4
_attitude$ = 12						; size = 4
?default_set_entity_attitude_matrix@@YGXPAUENTITY@@QAY02M@Z PROC ; default_set_entity_attitude_matrix, COMDAT

; 106  : {

  00000	55		 push	 ebp
  00001	8b ec		 mov	 ebp, esp
  00003	83 ec 40	 sub	 esp, 64			; 00000040H
  00006	53		 push	 ebx
  00007	56		 push	 esi
  00008	57		 push	 edi

; 107  : 	ASSERT (attitude);

  00009	83 7d 0c 00	 cmp	 DWORD PTR _attitude$[ebp], 0
  0000d	75 18		 jne	 SHORT $LN1@default_se
  0000f	a1 00 00 00 00	 mov	 eax, DWORD PTR ?__LINE__Var@?0??default_set_entity_attitude_matrix@@YGXPAUENTITY@@QAY02M@Z@4JA
  00014	83 c0 01	 add	 eax, 1
  00017	50		 push	 eax
  00018	68 00 00 00 00	 push	 OFFSET ??_C@_0EM@PFCAJCEA@c?3?2users?2nhv90?2projects?2eech?2ap@
  0001d	68 00 00 00 00	 push	 OFFSET ??_C@_08EKMPKBMJ@attitude@
  00022	e8 00 00 00 00	 call	 ?process_assert@@YGXPBD0H@Z ; process_assert
$LN1@default_se:

; 108  : }

  00027	5f		 pop	 edi
  00028	5e		 pop	 esi
  00029	5b		 pop	 ebx
  0002a	8b e5		 mov	 esp, ebp
  0002c	5d		 pop	 ebp
  0002d	c2 08 00	 ret	 8
?default_set_entity_attitude_matrix@@YGXPAUENTITY@@QAY02M@Z ENDP ; default_set_entity_attitude_matrix
_TEXT	ENDS
; Function compile flags: /Odtp /ZI
; File c:\users\nhv90\projects\eech\aphavoc\source\entity\system\en_funcs\en_att.c
;	COMDAT ?unpack_attitude_angles@@YGXPAUENTITY@@PAM11@Z
_TEXT	SEGMENT
_en$ = 8						; size = 4
_heading$ = 12						; size = 4
_pitch$ = 16						; size = 4
_roll$ = 20						; size = 4
?unpack_attitude_angles@@YGXPAUENTITY@@PAM11@Z PROC	; unpack_attitude_angles, COMDAT

; 266  : {

  00000	55		 push	 ebp
  00001	8b ec		 mov	 ebp, esp
  00003	83 ec 40	 sub	 esp, 64			; 00000040H
  00006	53		 push	 ebx
  00007	56		 push	 esi
  00008	57		 push	 edi

; 267  : 	ASSERT (heading);

  00009	83 7d 0c 00	 cmp	 DWORD PTR _heading$[ebp], 0
  0000d	75 18		 jne	 SHORT $LN2@unpack_att
  0000f	a1 00 00 00 00	 mov	 eax, DWORD PTR ?__LINE__Var@?0??unpack_attitude_angles@@YGXPAUENTITY@@PAM11@Z@4JA
  00014	83 c0 01	 add	 eax, 1
  00017	50		 push	 eax
  00018	68 00 00 00 00	 push	 OFFSET ??_C@_0EM@PFCAJCEA@c?3?2users?2nhv90?2projects?2eech?2ap@
  0001d	68 00 00 00 00	 push	 OFFSET ??_C@_07MBJMFGGL@heading@
  00022	e8 00 00 00 00	 call	 ?process_assert@@YGXPBD0H@Z ; process_assert
$LN2@unpack_att:

; 268  : 
; 269  : 	ASSERT (pitch);

  00027	83 7d 10 00	 cmp	 DWORD PTR _pitch$[ebp], 0
  0002b	75 18		 jne	 SHORT $LN3@unpack_att
  0002d	a1 00 00 00 00	 mov	 eax, DWORD PTR ?__LINE__Var@?0??unpack_attitude_angles@@YGXPAUENTITY@@PAM11@Z@4JA
  00032	83 c0 03	 add	 eax, 3
  00035	50		 push	 eax
  00036	68 00 00 00 00	 push	 OFFSET ??_C@_0EM@PFCAJCEA@c?3?2users?2nhv90?2projects?2eech?2ap@
  0003b	68 00 00 00 00	 push	 OFFSET ??_C@_05NCNFOFLM@pitch@
  00040	e8 00 00 00 00	 call	 ?process_assert@@YGXPBD0H@Z ; process_assert
$LN3@unpack_att:

; 270  : 
; 271  : 	ASSERT (roll);

  00045	83 7d 14 00	 cmp	 DWORD PTR _roll$[ebp], 0
  00049	75 18		 jne	 SHORT $LN4@unpack_att
  0004b	a1 00 00 00 00	 mov	 eax, DWORD PTR ?__LINE__Var@?0??unpack_attitude_angles@@YGXPAUENTITY@@PAM11@Z@4JA
  00050	83 c0 05	 add	 eax, 5
  00053	50		 push	 eax
  00054	68 00 00 00 00	 push	 OFFSET ??_C@_0EM@PFCAJCEA@c?3?2users?2nhv90?2projects?2eech?2ap@
  00059	68 00 00 00 00	 push	 OFFSET ??_C@_04FBAPEKPH@roll@
  0005e	e8 00 00 00 00	 call	 ?process_assert@@YGXPBD0H@Z ; process_assert
$LN4@unpack_att:

; 272  : 
; 273  : 	*heading = unpack_float_value (en, FLOAT_TYPE_HEADING);

  00063	6a 34		 push	 52			; 00000034H
  00065	8b 45 08	 mov	 eax, DWORD PTR _en$[ebp]
  00068	50		 push	 eax
  00069	e8 00 00 00 00	 call	 ?unpack_float_value@@YGMPAUENTITY@@W4FLOAT_TYPES@@@Z ; unpack_float_value
  0006e	8b 4d 0c	 mov	 ecx, DWORD PTR _heading$[ebp]
  00071	d9 19		 fstp	 DWORD PTR [ecx]

; 274  : 
; 275  : 	*pitch = unpack_float_value (en, FLOAT_TYPE_PITCH);

  00073	6a 54		 push	 84			; 00000054H
  00075	8b 45 08	 mov	 eax, DWORD PTR _en$[ebp]
  00078	50		 push	 eax
  00079	e8 00 00 00 00	 call	 ?unpack_float_value@@YGMPAUENTITY@@W4FLOAT_TYPES@@@Z ; unpack_float_value
  0007e	8b 4d 10	 mov	 ecx, DWORD PTR _pitch$[ebp]
  00081	d9 19		 fstp	 DWORD PTR [ecx]

; 276  : 
; 277  : 	*roll = unpack_float_value (en, FLOAT_TYPE_ROLL);

  00083	6a 71		 push	 113			; 00000071H
  00085	8b 45 08	 mov	 eax, DWORD PTR _en$[ebp]
  00088	50		 push	 eax
  00089	e8 00 00 00 00	 call	 ?unpack_float_value@@YGMPAUENTITY@@W4FLOAT_TYPES@@@Z ; unpack_float_value
  0008e	8b 4d 14	 mov	 ecx, DWORD PTR _roll$[ebp]
  00091	d9 19		 fstp	 DWORD PTR [ecx]

; 278  : }

  00093	5f		 pop	 edi
  00094	5e		 pop	 esi
  00095	5b		 pop	 ebx
  00096	8b e5		 mov	 esp, ebp
  00098	5d		 pop	 ebp
  00099	c2 10 00	 ret	 16			; 00000010H
?unpack_attitude_angles@@YGXPAUENTITY@@PAM11@Z ENDP	; unpack_attitude_angles
_TEXT	ENDS
; Function compile flags: /Odtp /ZI
; File c:\users\nhv90\projects\eech\aphavoc\source\entity\system\en_funcs\en_att.c
;	COMDAT ?pack_attitude_angles@@YGXPAUENTITY@@MMM@Z
_TEXT	SEGMENT
_en$ = 8						; size = 4
_heading$ = 12						; size = 4
_pitch$ = 16						; size = 4
_roll$ = 20						; size = 4
?pack_attitude_angles@@YGXPAUENTITY@@MMM@Z PROC		; pack_attitude_angles, COMDAT

; 253  : {

  00000	55		 push	 ebp
  00001	8b ec		 mov	 ebp, esp
  00003	83 ec 40	 sub	 esp, 64			; 00000040H
  00006	53		 push	 ebx
  00007	56		 push	 esi
  00008	57		 push	 edi

; 254  : 	pack_float_value (en, FLOAT_TYPE_HEADING, heading);

  00009	51		 push	 ecx
  0000a	f3 0f 10 45 0c	 movss	 xmm0, DWORD PTR _heading$[ebp]
  0000f	f3 0f 11 04 24	 movss	 DWORD PTR [esp], xmm0
  00014	6a 34		 push	 52			; 00000034H
  00016	8b 45 08	 mov	 eax, DWORD PTR _en$[ebp]
  00019	50		 push	 eax
  0001a	e8 00 00 00 00	 call	 ?pack_float_value@@YGXPAUENTITY@@W4FLOAT_TYPES@@M@Z ; pack_float_value

; 255  : 
; 256  : 	pack_float_value (en, FLOAT_TYPE_PITCH, pitch);

  0001f	51		 push	 ecx
  00020	f3 0f 10 45 10	 movss	 xmm0, DWORD PTR _pitch$[ebp]
  00025	f3 0f 11 04 24	 movss	 DWORD PTR [esp], xmm0
  0002a	6a 54		 push	 84			; 00000054H
  0002c	8b 45 08	 mov	 eax, DWORD PTR _en$[ebp]
  0002f	50		 push	 eax
  00030	e8 00 00 00 00	 call	 ?pack_float_value@@YGXPAUENTITY@@W4FLOAT_TYPES@@M@Z ; pack_float_value

; 257  : 
; 258  : 	pack_float_value (en, FLOAT_TYPE_ROLL, roll);

  00035	51		 push	 ecx
  00036	f3 0f 10 45 14	 movss	 xmm0, DWORD PTR _roll$[ebp]
  0003b	f3 0f 11 04 24	 movss	 DWORD PTR [esp], xmm0
  00040	6a 71		 push	 113			; 00000071H
  00042	8b 45 08	 mov	 eax, DWORD PTR _en$[ebp]
  00045	50		 push	 eax
  00046	e8 00 00 00 00	 call	 ?pack_float_value@@YGXPAUENTITY@@W4FLOAT_TYPES@@M@Z ; pack_float_value

; 259  : }

  0004b	5f		 pop	 edi
  0004c	5e		 pop	 esi
  0004d	5b		 pop	 ebx
  0004e	8b e5		 mov	 esp, ebp
  00050	5d		 pop	 ebp
  00051	c2 10 00	 ret	 16			; 00000010H
?pack_attitude_angles@@YGXPAUENTITY@@MMM@Z ENDP		; pack_attitude_angles
_TEXT	ENDS
; Function compile flags: /Odtp /ZI
; File c:\users\nhv90\projects\eech\aphavoc\source\entity\system\en_funcs\en_att.c
;	COMDAT ?unpack_attitude_matrix@@YGXPAUENTITY@@QAY02M@Z
_TEXT	SEGMENT
_roll$ = -12						; size = 4
_pitch$ = -8						; size = 4
_heading$ = -4						; size = 4
_en$ = 8						; size = 4
_attitude$ = 12						; size = 4
?unpack_attitude_matrix@@YGXPAUENTITY@@QAY02M@Z PROC	; unpack_attitude_matrix, COMDAT

; 231  : {

  00000	55		 push	 ebp
  00001	8b ec		 mov	 ebp, esp
  00003	83 ec 4c	 sub	 esp, 76			; 0000004cH
  00006	53		 push	 ebx
  00007	56		 push	 esi
  00008	57		 push	 edi

; 232  : 	float
; 233  : 		heading,
; 234  : 		pitch,
; 235  : 		roll;
; 236  : 
; 237  : 	ASSERT (attitude);

  00009	83 7d 0c 00	 cmp	 DWORD PTR _attitude$[ebp], 0
  0000d	75 18		 jne	 SHORT $LN2@unpack_att
  0000f	a1 00 00 00 00	 mov	 eax, DWORD PTR ?__LINE__Var@?0??unpack_attitude_matrix@@YGXPAUENTITY@@QAY02M@Z@4JA
  00014	83 c0 06	 add	 eax, 6
  00017	50		 push	 eax
  00018	68 00 00 00 00	 push	 OFFSET ??_C@_0EM@PFCAJCEA@c?3?2users?2nhv90?2projects?2eech?2ap@
  0001d	68 00 00 00 00	 push	 OFFSET ??_C@_08EKMPKBMJ@attitude@
  00022	e8 00 00 00 00	 call	 ?process_assert@@YGXPBD0H@Z ; process_assert
$LN2@unpack_att:

; 238  : 
; 239  : 	heading = unpack_float_value (en, FLOAT_TYPE_HEADING);

  00027	6a 34		 push	 52			; 00000034H
  00029	8b 45 08	 mov	 eax, DWORD PTR _en$[ebp]
  0002c	50		 push	 eax
  0002d	e8 00 00 00 00	 call	 ?unpack_float_value@@YGMPAUENTITY@@W4FLOAT_TYPES@@@Z ; unpack_float_value
  00032	d9 5d fc	 fstp	 DWORD PTR _heading$[ebp]

; 240  : 
; 241  : 	pitch = unpack_float_value (en, FLOAT_TYPE_PITCH);

  00035	6a 54		 push	 84			; 00000054H
  00037	8b 45 08	 mov	 eax, DWORD PTR _en$[ebp]
  0003a	50		 push	 eax
  0003b	e8 00 00 00 00	 call	 ?unpack_float_value@@YGMPAUENTITY@@W4FLOAT_TYPES@@@Z ; unpack_float_value
  00040	d9 5d f8	 fstp	 DWORD PTR _pitch$[ebp]

; 242  : 
; 243  : 	roll = unpack_float_value (en, FLOAT_TYPE_ROLL);

  00043	6a 71		 push	 113			; 00000071H
  00045	8b 45 08	 mov	 eax, DWORD PTR _en$[ebp]
  00048	50		 push	 eax
  00049	e8 00 00 00 00	 call	 ?unpack_float_value@@YGMPAUENTITY@@W4FLOAT_TYPES@@@Z ; unpack_float_value
  0004e	d9 5d f4	 fstp	 DWORD PTR _roll$[ebp]

; 244  : 
; 245  : 	get_3d_transformation_matrix (attitude, heading, pitch, roll);

  00051	51		 push	 ecx
  00052	f3 0f 10 45 f4	 movss	 xmm0, DWORD PTR _roll$[ebp]
  00057	f3 0f 11 04 24	 movss	 DWORD PTR [esp], xmm0
  0005c	51		 push	 ecx
  0005d	f3 0f 10 45 f8	 movss	 xmm0, DWORD PTR _pitch$[ebp]
  00062	f3 0f 11 04 24	 movss	 DWORD PTR [esp], xmm0
  00067	51		 push	 ecx
  00068	f3 0f 10 45 fc	 movss	 xmm0, DWORD PTR _heading$[ebp]
  0006d	f3 0f 11 04 24	 movss	 DWORD PTR [esp], xmm0
  00072	8b 45 0c	 mov	 eax, DWORD PTR _attitude$[ebp]
  00075	50		 push	 eax
  00076	e8 00 00 00 00	 call	 ?get_3d_transformation_matrix@@YGXQAY02MMMM@Z ; get_3d_transformation_matrix

; 246  : }

  0007b	5f		 pop	 edi
  0007c	5e		 pop	 esi
  0007d	5b		 pop	 ebx
  0007e	8b e5		 mov	 esp, ebp
  00080	5d		 pop	 ebp
  00081	c2 08 00	 ret	 8
?unpack_attitude_matrix@@YGXPAUENTITY@@QAY02M@Z ENDP	; unpack_attitude_matrix
_TEXT	ENDS
; Function compile flags: /Odtp /ZI
; File c:\users\nhv90\projects\eech\aphavoc\source\entity\system\en_funcs\en_att.c
;	COMDAT ?pack_attitude_matrix@@YGXPAUENTITY@@QAY02M@Z
_TEXT	SEGMENT
_roll$ = -12						; size = 4
_pitch$ = -8						; size = 4
_heading$ = -4						; size = 4
_en$ = 8						; size = 4
_attitude$ = 12						; size = 4
?pack_attitude_matrix@@YGXPAUENTITY@@QAY02M@Z PROC	; pack_attitude_matrix, COMDAT

; 205  : {

  00000	55		 push	 ebp
  00001	8b ec		 mov	 ebp, esp
  00003	83 ec 4c	 sub	 esp, 76			; 0000004cH
  00006	53		 push	 ebx
  00007	56		 push	 esi
  00008	57		 push	 edi

; 206  : 	float
; 207  : 		heading,
; 208  : 		pitch,
; 209  : 		roll;
; 210  : 
; 211  : 	ASSERT (attitude);

  00009	83 7d 0c 00	 cmp	 DWORD PTR _attitude$[ebp], 0
  0000d	75 18		 jne	 SHORT $LN2@pack_attit
  0000f	a1 00 00 00 00	 mov	 eax, DWORD PTR ?__LINE__Var@?0??pack_attitude_matrix@@YGXPAUENTITY@@QAY02M@Z@4JA
  00014	83 c0 06	 add	 eax, 6
  00017	50		 push	 eax
  00018	68 00 00 00 00	 push	 OFFSET ??_C@_0EM@PFCAJCEA@c?3?2users?2nhv90?2projects?2eech?2ap@
  0001d	68 00 00 00 00	 push	 OFFSET ??_C@_08EKMPKBMJ@attitude@
  00022	e8 00 00 00 00	 call	 ?process_assert@@YGXPBD0H@Z ; process_assert
$LN2@pack_attit:

; 212  : 
; 213  : 	heading = get_heading_from_attitude_matrix (attitude);

  00027	b8 0c 00 00 00	 mov	 eax, 12			; 0000000cH
  0002c	d1 e0		 shl	 eax, 1
  0002e	03 45 0c	 add	 eax, DWORD PTR _attitude$[ebp]
  00031	b9 04 00 00 00	 mov	 ecx, 4
  00036	d1 e1		 shl	 ecx, 1
  00038	51		 push	 ecx
  00039	f3 0f 10 04 08	 movss	 xmm0, DWORD PTR [eax+ecx]
  0003e	f3 0f 11 04 24	 movss	 DWORD PTR [esp], xmm0
  00043	ba 0c 00 00 00	 mov	 edx, 12			; 0000000cH
  00048	d1 e2		 shl	 edx, 1
  0004a	03 55 0c	 add	 edx, DWORD PTR _attitude$[ebp]
  0004d	b8 04 00 00 00	 mov	 eax, 4
  00052	6b c8 00	 imul	 ecx, eax, 0
  00055	51		 push	 ecx
  00056	f3 0f 10 04 0a	 movss	 xmm0, DWORD PTR [edx+ecx]
  0005b	f3 0f 11 04 24	 movss	 DWORD PTR [esp], xmm0
  00060	e8 00 00 00 00	 call	 ?atan2@@YGMMM@Z		; atan2
  00065	d9 5d fc	 fstp	 DWORD PTR _heading$[ebp]

; 214  : 
; 215  : 	pack_float_value (en, FLOAT_TYPE_HEADING, heading);

  00068	51		 push	 ecx
  00069	f3 0f 10 45 fc	 movss	 xmm0, DWORD PTR _heading$[ebp]
  0006e	f3 0f 11 04 24	 movss	 DWORD PTR [esp], xmm0
  00073	6a 34		 push	 52			; 00000034H
  00075	8b 45 08	 mov	 eax, DWORD PTR _en$[ebp]
  00078	50		 push	 eax
  00079	e8 00 00 00 00	 call	 ?pack_float_value@@YGXPAUENTITY@@W4FLOAT_TYPES@@M@Z ; pack_float_value

; 216  : 
; 217  : 	pitch = get_pitch_from_attitude_matrix (attitude);

  0007e	b8 0c 00 00 00	 mov	 eax, 12			; 0000000cH
  00083	d1 e0		 shl	 eax, 1
  00085	03 45 0c	 add	 eax, DWORD PTR _attitude$[ebp]
  00088	b9 04 00 00 00	 mov	 ecx, 4
  0008d	c1 e1 00	 shl	 ecx, 0
  00090	51		 push	 ecx
  00091	f3 0f 10 04 08	 movss	 xmm0, DWORD PTR [eax+ecx]
  00096	f3 0f 11 04 24	 movss	 DWORD PTR [esp], xmm0
  0009b	e8 00 00 00 00	 call	 ?asin@@YGMM@Z		; asin
  000a0	d9 5d f8	 fstp	 DWORD PTR _pitch$[ebp]

; 218  : 
; 219  : 	pack_float_value (en, FLOAT_TYPE_PITCH, pitch);

  000a3	51		 push	 ecx
  000a4	f3 0f 10 45 f8	 movss	 xmm0, DWORD PTR _pitch$[ebp]
  000a9	f3 0f 11 04 24	 movss	 DWORD PTR [esp], xmm0
  000ae	6a 54		 push	 84			; 00000054H
  000b0	8b 45 08	 mov	 eax, DWORD PTR _en$[ebp]
  000b3	50		 push	 eax
  000b4	e8 00 00 00 00	 call	 ?pack_float_value@@YGXPAUENTITY@@W4FLOAT_TYPES@@M@Z ; pack_float_value

; 220  : 
; 221  : 	roll = get_roll_from_attitude_matrix (attitude);

  000b9	b8 0c 00 00 00	 mov	 eax, 12			; 0000000cH
  000be	c1 e0 00	 shl	 eax, 0
  000c1	03 45 0c	 add	 eax, DWORD PTR _attitude$[ebp]
  000c4	b9 04 00 00 00	 mov	 ecx, 4
  000c9	c1 e1 00	 shl	 ecx, 0
  000cc	51		 push	 ecx
  000cd	f3 0f 10 04 08	 movss	 xmm0, DWORD PTR [eax+ecx]
  000d2	f3 0f 11 04 24	 movss	 DWORD PTR [esp], xmm0
  000d7	ba 0c 00 00 00	 mov	 edx, 12			; 0000000cH
  000dc	6b c2 00	 imul	 eax, edx, 0
  000df	03 45 0c	 add	 eax, DWORD PTR _attitude$[ebp]
  000e2	b9 04 00 00 00	 mov	 ecx, 4
  000e7	c1 e1 00	 shl	 ecx, 0
  000ea	f3 0f 10 04 08	 movss	 xmm0, DWORD PTR [eax+ecx]
  000ef	0f 57 05 00 00
	00 00		 xorps	 xmm0, DWORD PTR __xmm@80000000800000008000000080000000
  000f6	51		 push	 ecx
  000f7	f3 0f 11 04 24	 movss	 DWORD PTR [esp], xmm0
  000fc	e8 00 00 00 00	 call	 ?atan2@@YGMMM@Z		; atan2
  00101	d9 5d f4	 fstp	 DWORD PTR _roll$[ebp]

; 222  : 
; 223  : 	pack_float_value (en, FLOAT_TYPE_ROLL, roll);

  00104	51		 push	 ecx
  00105	f3 0f 10 45 f4	 movss	 xmm0, DWORD PTR _roll$[ebp]
  0010a	f3 0f 11 04 24	 movss	 DWORD PTR [esp], xmm0
  0010f	6a 71		 push	 113			; 00000071H
  00111	8b 45 08	 mov	 eax, DWORD PTR _en$[ebp]
  00114	50		 push	 eax
  00115	e8 00 00 00 00	 call	 ?pack_float_value@@YGXPAUENTITY@@W4FLOAT_TYPES@@M@Z ; pack_float_value

; 224  : }

  0011a	5f		 pop	 edi
  0011b	5e		 pop	 esi
  0011c	5b		 pop	 ebx
  0011d	8b e5		 mov	 esp, ebp
  0011f	5d		 pop	 ebp
  00120	c2 08 00	 ret	 8
?pack_attitude_matrix@@YGXPAUENTITY@@QAY02M@Z ENDP	; pack_attitude_matrix
_TEXT	ENDS
; Function compile flags: /Odtp /ZI
; File c:\users\nhv90\projects\eech\aphavoc\source\entity\system\en_funcs\en_att.c
;	COMDAT ?initialise_entity_attitude_default_functions@@YGXXZ
_TEXT	SEGMENT
_i$ = -4						; size = 4
?initialise_entity_attitude_default_functions@@YGXXZ PROC ; initialise_entity_attitude_default_functions, COMDAT

; 162  : {

  00000	55		 push	 ebp
  00001	8b ec		 mov	 ebp, esp
  00003	83 ec 44	 sub	 esp, 68			; 00000044H
  00006	53		 push	 ebx
  00007	56		 push	 esi
  00008	57		 push	 edi

; 163  : 	int
; 164  : 		i;
; 165  : 
; 166  : 	for (i = 0; i < NUM_ENTITY_TYPES; i++)

  00009	c7 45 fc 00 00
	00 00		 mov	 DWORD PTR _i$[ebp], 0
  00010	eb 09		 jmp	 SHORT $LN4@initialise
$LN2@initialise:
  00012	8b 45 fc	 mov	 eax, DWORD PTR _i$[ebp]
  00015	83 c0 01	 add	 eax, 1
  00018	89 45 fc	 mov	 DWORD PTR _i$[ebp], eax
$LN4@initialise:
  0001b	83 7d fc 26	 cmp	 DWORD PTR _i$[ebp], 38	; 00000026H
  0001f	0f 8d bf 00 00
	00		 jge	 $LN1@initialise

; 167  : 	{
; 168  : 		//
; 169  : 		// matrix
; 170  : 		//
; 171  : 
; 172  : 		fn_set_local_entity_raw_attitude_matrix[i]									= default_set_entity_attitude_matrix;

  00025	8b 45 fc	 mov	 eax, DWORD PTR _i$[ebp]
  00028	c7 04 85 00 00
	00 00 00 00 00
	00		 mov	 DWORD PTR ?fn_set_local_entity_raw_attitude_matrix@@3PAP6GXPAUENTITY@@QAY02M@ZA[eax*4], OFFSET ?default_set_entity_attitude_matrix@@YGXPAUENTITY@@QAY02M@Z ; default_set_entity_attitude_matrix

; 173  : 
; 174  : 		fn_set_local_entity_attitude_matrix[i]											= default_set_entity_attitude_matrix;

  00033	8b 45 fc	 mov	 eax, DWORD PTR _i$[ebp]
  00036	c7 04 85 00 00
	00 00 00 00 00
	00		 mov	 DWORD PTR ?fn_set_local_entity_attitude_matrix@@3PAP6GXPAUENTITY@@QAY02M@ZA[eax*4], OFFSET ?default_set_entity_attitude_matrix@@YGXPAUENTITY@@QAY02M@Z ; default_set_entity_attitude_matrix

; 175  : 
; 176  : 		fn_set_client_server_entity_attitude_matrix[i][COMMS_MODEL_SERVER]	= default_set_entity_attitude_matrix;

  00041	b8 04 00 00 00	 mov	 eax, 4
  00046	6b c8 00	 imul	 ecx, eax, 0
  00049	8b 55 fc	 mov	 edx, DWORD PTR _i$[ebp]
  0004c	c7 84 d1 00 00
	00 00 00 00 00
	00		 mov	 DWORD PTR ?fn_set_client_server_entity_attitude_matrix@@3PAY01P6GXPAUENTITY@@QAY02M@ZA[ecx+edx*8], OFFSET ?default_set_entity_attitude_matrix@@YGXPAUENTITY@@QAY02M@Z ; default_set_entity_attitude_matrix

; 177  : 
; 178  : 		fn_set_client_server_entity_attitude_matrix[i][COMMS_MODEL_CLIENT]	= default_set_entity_attitude_matrix;

  00057	b8 04 00 00 00	 mov	 eax, 4
  0005c	c1 e0 00	 shl	 eax, 0
  0005f	8b 4d fc	 mov	 ecx, DWORD PTR _i$[ebp]
  00062	c7 84 c8 00 00
	00 00 00 00 00
	00		 mov	 DWORD PTR ?fn_set_client_server_entity_attitude_matrix@@3PAY01P6GXPAUENTITY@@QAY02M@ZA[eax+ecx*8], OFFSET ?default_set_entity_attitude_matrix@@YGXPAUENTITY@@QAY02M@Z ; default_set_entity_attitude_matrix

; 179  : 
; 180  : 		fn_get_local_entity_attitude_matrix[i]					  						= default_get_entity_attitude_matrix;

  0006d	8b 45 fc	 mov	 eax, DWORD PTR _i$[ebp]
  00070	c7 04 85 00 00
	00 00 00 00 00
	00		 mov	 DWORD PTR ?fn_get_local_entity_attitude_matrix@@3PAP6GXPAUENTITY@@QAY02M@ZA[eax*4], OFFSET ?default_get_entity_attitude_matrix@@YGXPAUENTITY@@QAY02M@Z ; default_get_entity_attitude_matrix

; 181  : 
; 182  : 		fn_get_local_entity_attitude_matrix_ptr[i]									= default_get_entity_attitude_matrix_ptr;

  0007b	8b 45 fc	 mov	 eax, DWORD PTR _i$[ebp]
  0007e	c7 04 85 00 00
	00 00 00 00 00
	00		 mov	 DWORD PTR ?fn_get_local_entity_attitude_matrix_ptr@@3PAP6GPAY122MPAUENTITY@@@ZA[eax*4], OFFSET ?default_get_entity_attitude_matrix_ptr@@YGPAY122MPAUENTITY@@@Z ; default_get_entity_attitude_matrix_ptr

; 183  : 
; 184  : 		//
; 185  : 		// angles
; 186  : 		//
; 187  : 
; 188  : 		fn_set_local_entity_raw_attitude_angles[i]	  								= default_set_entity_attitude_angles;

  00089	8b 45 fc	 mov	 eax, DWORD PTR _i$[ebp]
  0008c	c7 04 85 00 00
	00 00 00 00 00
	00		 mov	 DWORD PTR ?fn_set_local_entity_raw_attitude_angles@@3PAP6GXPAUENTITY@@MMM@ZA[eax*4], OFFSET ?default_set_entity_attitude_angles@@YGXPAUENTITY@@MMM@Z ; default_set_entity_attitude_angles

; 189  : 
; 190  : 		fn_set_local_entity_attitude_angles[i]											= default_set_entity_attitude_angles;

  00097	8b 45 fc	 mov	 eax, DWORD PTR _i$[ebp]
  0009a	c7 04 85 00 00
	00 00 00 00 00
	00		 mov	 DWORD PTR ?fn_set_local_entity_attitude_angles@@3PAP6GXPAUENTITY@@MMM@ZA[eax*4], OFFSET ?default_set_entity_attitude_angles@@YGXPAUENTITY@@MMM@Z ; default_set_entity_attitude_angles

; 191  : 
; 192  : 		fn_set_client_server_entity_attitude_angles[i][COMMS_MODEL_SERVER]	= default_set_entity_attitude_angles;

  000a5	b8 04 00 00 00	 mov	 eax, 4
  000aa	6b c8 00	 imul	 ecx, eax, 0
  000ad	8b 55 fc	 mov	 edx, DWORD PTR _i$[ebp]
  000b0	c7 84 d1 00 00
	00 00 00 00 00
	00		 mov	 DWORD PTR ?fn_set_client_server_entity_attitude_angles@@3PAY01P6GXPAUENTITY@@MMM@ZA[ecx+edx*8], OFFSET ?default_set_entity_attitude_angles@@YGXPAUENTITY@@MMM@Z ; default_set_entity_attitude_angles

; 193  : 
; 194  : 		fn_set_client_server_entity_attitude_angles[i][COMMS_MODEL_CLIENT]	= default_set_entity_attitude_angles;

  000bb	b8 04 00 00 00	 mov	 eax, 4
  000c0	c1 e0 00	 shl	 eax, 0
  000c3	8b 4d fc	 mov	 ecx, DWORD PTR _i$[ebp]
  000c6	c7 84 c8 00 00
	00 00 00 00 00
	00		 mov	 DWORD PTR ?fn_set_client_server_entity_attitude_angles@@3PAY01P6GXPAUENTITY@@MMM@ZA[eax+ecx*8], OFFSET ?default_set_entity_attitude_angles@@YGXPAUENTITY@@MMM@Z ; default_set_entity_attitude_angles

; 195  : 
; 196  : 		fn_get_local_entity_attitude_angles[i]					  						= default_get_entity_attitude_angles;

  000d1	8b 45 fc	 mov	 eax, DWORD PTR _i$[ebp]
  000d4	c7 04 85 00 00
	00 00 00 00 00
	00		 mov	 DWORD PTR ?fn_get_local_entity_attitude_angles@@3PAP6GXPAUENTITY@@PAM11@ZA[eax*4], OFFSET ?default_get_entity_attitude_angles@@YGXPAUENTITY@@PAM11@Z ; default_get_entity_attitude_angles

; 197  : 	}

  000df	e9 2e ff ff ff	 jmp	 $LN2@initialise
$LN1@initialise:

; 198  : }

  000e4	5f		 pop	 edi
  000e5	5e		 pop	 esi
  000e6	5b		 pop	 ebx
  000e7	8b e5		 mov	 esp, ebp
  000e9	5d		 pop	 ebp
  000ea	c3		 ret	 0
?initialise_entity_attitude_default_functions@@YGXXZ ENDP ; initialise_entity_attitude_default_functions
_TEXT	ENDS
; Function compile flags: /Odtp /ZI
; File c:\program files (x86)\microsoft visual studio\2017\community\vc\tools\msvc\14.16.27023\include\cmath
;	COMDAT ?atan2@@YGMMM@Z
_TEXT	SEGMENT
__Yx$ = 8						; size = 4
__Xx$ = 12						; size = 4
?atan2@@YGMMM@Z PROC					; atan2, COMDAT

; 56   : 	{

  00000	55		 push	 ebp
  00001	8b ec		 mov	 ebp, esp
  00003	83 ec 40	 sub	 esp, 64			; 00000040H
  00006	53		 push	 ebx
  00007	56		 push	 esi
  00008	57		 push	 edi

; 57   : 	return (_CSTD atan2f(_Yx, _Xx));

  00009	51		 push	 ecx
  0000a	f3 0f 10 45 0c	 movss	 xmm0, DWORD PTR __Xx$[ebp]
  0000f	f3 0f 11 04 24	 movss	 DWORD PTR [esp], xmm0
  00014	51		 push	 ecx
  00015	f3 0f 10 45 08	 movss	 xmm0, DWORD PTR __Yx$[ebp]
  0001a	f3 0f 11 04 24	 movss	 DWORD PTR [esp], xmm0
  0001f	e8 00 00 00 00	 call	 _atan2f
  00024	83 c4 08	 add	 esp, 8

; 58   : 	}

  00027	5f		 pop	 edi
  00028	5e		 pop	 esi
  00029	5b		 pop	 ebx
  0002a	8b e5		 mov	 esp, ebp
  0002c	5d		 pop	 ebp
  0002d	c2 08 00	 ret	 8
?atan2@@YGMMM@Z ENDP					; atan2
_TEXT	ENDS
; Function compile flags: /Odtp /ZI
; File c:\program files (x86)\microsoft visual studio\2017\community\vc\tools\msvc\14.16.27023\include\cmath
;	COMDAT ?asin@@YGMM@Z
_TEXT	SEGMENT
__Xx$ = 8						; size = 4
?asin@@YGMM@Z PROC					; asin, COMDAT

; 36   : 	{

  00000	55		 push	 ebp
  00001	8b ec		 mov	 ebp, esp
  00003	83 ec 40	 sub	 esp, 64			; 00000040H
  00006	53		 push	 ebx
  00007	56		 push	 esi
  00008	57		 push	 edi

; 37   : 	return (_CSTD asinf(_Xx));

  00009	51		 push	 ecx
  0000a	f3 0f 10 45 08	 movss	 xmm0, DWORD PTR __Xx$[ebp]
  0000f	f3 0f 11 04 24	 movss	 DWORD PTR [esp], xmm0
  00014	e8 00 00 00 00	 call	 _asinf
  00019	83 c4 04	 add	 esp, 4

; 38   : 	}

  0001c	5f		 pop	 edi
  0001d	5e		 pop	 esi
  0001e	5b		 pop	 ebx
  0001f	8b e5		 mov	 esp, ebp
  00021	5d		 pop	 ebp
  00022	c2 04 00	 ret	 4
?asin@@YGMM@Z ENDP					; asin
_TEXT	ENDS
; Function compile flags: /Odtp /ZI
; File c:\program files (x86)\windows kits\10\include\10.0.18362.0\ucrt\corecrt_math.h
;	COMDAT _atan2f
_TEXT	SEGMENT
tv74 = -68						; size = 4
__Y$ = 8						; size = 4
__X$ = 12						; size = 4
_atan2f	PROC						; COMDAT

; 633  :         {

  00000	55		 push	 ebp
  00001	8b ec		 mov	 ebp, esp
  00003	83 ec 44	 sub	 esp, 68			; 00000044H
  00006	53		 push	 ebx
  00007	56		 push	 esi
  00008	57		 push	 edi

; 634  :             return (float)atan2(_Y, _X);

  00009	f3 0f 5a 45 0c	 cvtss2sd xmm0, DWORD PTR __X$[ebp]
  0000e	83 ec 08	 sub	 esp, 8
  00011	f2 0f 11 04 24	 movsd	 QWORD PTR [esp], xmm0
  00016	f3 0f 5a 45 08	 cvtss2sd xmm0, DWORD PTR __Y$[ebp]
  0001b	83 ec 08	 sub	 esp, 8
  0001e	f2 0f 11 04 24	 movsd	 QWORD PTR [esp], xmm0
  00023	e8 00 00 00 00	 call	 _atan2
  00028	83 c4 10	 add	 esp, 16			; 00000010H
  0002b	d9 5d bc	 fstp	 DWORD PTR tv74[ebp]
  0002e	d9 45 bc	 fld	 DWORD PTR tv74[ebp]

; 635  :         }

  00031	5f		 pop	 edi
  00032	5e		 pop	 esi
  00033	5b		 pop	 ebx
  00034	8b e5		 mov	 esp, ebp
  00036	5d		 pop	 ebp
  00037	c3		 ret	 0
_atan2f	ENDP
_TEXT	ENDS
; Function compile flags: /Odtp /ZI
; File c:\program files (x86)\windows kits\10\include\10.0.18362.0\ucrt\corecrt_math.h
;	COMDAT _asinf
_TEXT	SEGMENT
tv71 = -68						; size = 4
__X$ = 8						; size = 4
_asinf	PROC						; COMDAT

; 628  :         {

  00000	55		 push	 ebp
  00001	8b ec		 mov	 ebp, esp
  00003	83 ec 44	 sub	 esp, 68			; 00000044H
  00006	53		 push	 ebx
  00007	56		 push	 esi
  00008	57		 push	 edi

; 629  :             return (float)asin(_X);

  00009	f3 0f 5a 45 08	 cvtss2sd xmm0, DWORD PTR __X$[ebp]
  0000e	83 ec 08	 sub	 esp, 8
  00011	f2 0f 11 04 24	 movsd	 QWORD PTR [esp], xmm0
  00016	e8 00 00 00 00	 call	 _asin
  0001b	83 c4 08	 add	 esp, 8
  0001e	d9 5d bc	 fstp	 DWORD PTR tv71[ebp]
  00021	d9 45 bc	 fld	 DWORD PTR tv71[ebp]

; 630  :         }

  00024	5f		 pop	 edi
  00025	5e		 pop	 esi
  00026	5b		 pop	 ebx
  00027	8b e5		 mov	 esp, ebp
  00029	5d		 pop	 ebp
  0002a	c3		 ret	 0
_asinf	ENDP
_TEXT	ENDS
END
