; Listing generated by Microsoft (R) Optimizing Compiler Version 19.16.27045.0 

	TITLE	C:\Users\nhv90\Projects\eech\aphavoc\source\entity\system\en_attrs\en_attrs.c
	.686P
	.XMM
	include listing.inc
	.model	flat

INCLUDELIB MSVCRTD
INCLUDELIB OLDNAMES

PUBLIC	?entity_attribute_database@@3PAUENTITY_ATTRIBUTE_DATA@@A ; entity_attribute_database
PUBLIC	??_C@_0BA@GGAECIGC@ENTITY_ATTR_END@		; `string'
PUBLIC	??_C@_0BM@MHGMOKPM@ENTITY_ATTR_ATTITUDE_ANGLES@	; `string'
PUBLIC	??_C@_0BH@PIEGGMKL@ENTITY_ATTR_CHAR_VALUE@	; `string'
PUBLIC	??_C@_0BH@IAACHIPJ@ENTITY_ATTR_CHILD_PRED@	; `string'
PUBLIC	??_C@_0BI@HAIKNJKL@ENTITY_ATTR_FLOAT_VALUE@	; `string'
PUBLIC	??_C@_0BG@ENFAIICH@ENTITY_ATTR_INT_VALUE@	; `string'
PUBLIC	??_C@_0BD@DCGKIGJA@ENTITY_ATTR_PARENT@		; `string'
PUBLIC	??_C@_0BG@GJGKODGN@ENTITY_ATTR_PTR_VALUE@	; `string'
PUBLIC	??_C@_0BD@HLKAPBAP@ENTITY_ATTR_STRING@		; `string'
PUBLIC	??_C@_0BC@LPADGPIO@ENTITY_ATTR_VEC3D@		; `string'
;	COMDAT ??_C@_0BC@LPADGPIO@ENTITY_ATTR_VEC3D@
CONST	SEGMENT
??_C@_0BC@LPADGPIO@ENTITY_ATTR_VEC3D@ DB 'ENTITY_ATTR_VEC3D', 00H ; `string'
CONST	ENDS
;	COMDAT ??_C@_0BD@HLKAPBAP@ENTITY_ATTR_STRING@
CONST	SEGMENT
??_C@_0BD@HLKAPBAP@ENTITY_ATTR_STRING@ DB 'ENTITY_ATTR_STRING', 00H ; `string'
CONST	ENDS
;	COMDAT ??_C@_0BG@GJGKODGN@ENTITY_ATTR_PTR_VALUE@
CONST	SEGMENT
??_C@_0BG@GJGKODGN@ENTITY_ATTR_PTR_VALUE@ DB 'ENTITY_ATTR_PTR_VALUE', 00H ; `string'
CONST	ENDS
;	COMDAT ??_C@_0BD@DCGKIGJA@ENTITY_ATTR_PARENT@
CONST	SEGMENT
??_C@_0BD@DCGKIGJA@ENTITY_ATTR_PARENT@ DB 'ENTITY_ATTR_PARENT', 00H ; `string'
CONST	ENDS
;	COMDAT ??_C@_0BG@ENFAIICH@ENTITY_ATTR_INT_VALUE@
CONST	SEGMENT
??_C@_0BG@ENFAIICH@ENTITY_ATTR_INT_VALUE@ DB 'ENTITY_ATTR_INT_VALUE', 00H ; `string'
CONST	ENDS
;	COMDAT ??_C@_0BI@HAIKNJKL@ENTITY_ATTR_FLOAT_VALUE@
CONST	SEGMENT
??_C@_0BI@HAIKNJKL@ENTITY_ATTR_FLOAT_VALUE@ DB 'ENTITY_ATTR_FLOAT_VALUE', 00H ; `string'
CONST	ENDS
;	COMDAT ??_C@_0BH@IAACHIPJ@ENTITY_ATTR_CHILD_PRED@
CONST	SEGMENT
??_C@_0BH@IAACHIPJ@ENTITY_ATTR_CHILD_PRED@ DB 'ENTITY_ATTR_CHILD_PRED', 00H ; `string'
CONST	ENDS
;	COMDAT ??_C@_0BH@PIEGGMKL@ENTITY_ATTR_CHAR_VALUE@
CONST	SEGMENT
??_C@_0BH@PIEGGMKL@ENTITY_ATTR_CHAR_VALUE@ DB 'ENTITY_ATTR_CHAR_VALUE', 00H ; `string'
CONST	ENDS
;	COMDAT ??_C@_0BM@MHGMOKPM@ENTITY_ATTR_ATTITUDE_ANGLES@
CONST	SEGMENT
??_C@_0BM@MHGMOKPM@ENTITY_ATTR_ATTITUDE_ANGLES@ DB 'ENTITY_ATTR_ATTITUDE_'
	DB	'ANGLES', 00H				; `string'
CONST	ENDS
;	COMDAT ??_C@_0BA@GGAECIGC@ENTITY_ATTR_END@
CONST	SEGMENT
??_C@_0BA@GGAECIGC@ENTITY_ATTR_END@ DB 'ENTITY_ATTR_END', 00H ; `string'
CONST	ENDS
_DATA	SEGMENT
?entity_attribute_database@@3PAUENTITY_ATTRIBUTE_DATA@@A DD FLAT:??_C@_0BA@GGAECIGC@ENTITY_ATTR_END@ ; entity_attribute_database
	DD	00H
	DD	FLAT:??_C@_0BM@MHGMOKPM@ENTITY_ATTR_ATTITUDE_ANGLES@
	DD	00H
	DD	FLAT:??_C@_0BH@PIEGGMKL@ENTITY_ATTR_CHAR_VALUE@
	DD	00H
	DD	FLAT:??_C@_0BH@IAACHIPJ@ENTITY_ATTR_CHILD_PRED@
	DD	00H
	DD	FLAT:??_C@_0BI@HAIKNJKL@ENTITY_ATTR_FLOAT_VALUE@
	DD	00H
	DD	FLAT:??_C@_0BG@ENFAIICH@ENTITY_ATTR_INT_VALUE@
	DD	00H
	DD	FLAT:??_C@_0BD@DCGKIGJA@ENTITY_ATTR_PARENT@
	DD	00H
	DD	FLAT:??_C@_0BG@GJGKODGN@ENTITY_ATTR_PTR_VALUE@
	DD	00H
	DD	FLAT:??_C@_0BD@HLKAPBAP@ENTITY_ATTR_STRING@
	DD	00H
	DD	FLAT:??_C@_0BC@LPADGPIO@ENTITY_ATTR_VEC3D@
	DD	00H
_DATA	ENDS
PUBLIC	?set_local_entity_attributes@@YGXPAUENTITY@@PAD@Z ; set_local_entity_attributes
PUBLIC	?pack_entity_attributes@@YGXPBD@Z		; pack_entity_attributes
PUBLIC	?unpack_entity_attributes@@YGHPAD@Z		; unpack_entity_attributes
PUBLIC	?pack_entity_attribute@@YGXW4ENTITY_ATTRIBUTES@@@Z ; pack_entity_attribute
PUBLIC	?unpack_entity_attribute@@YG?AW4ENTITY_ATTRIBUTES@@XZ ; unpack_entity_attribute
PUBLIC	?__LINE__Var@?0??set_local_entity_attributes@@YGXPAUENTITY@@PAD@Z@4JA ; `set_local_entity_attributes'::`1'::__LINE__Var
PUBLIC	??_C@_0EO@GJKLLMAP@c?3?2users?2nhv90?2projects?2eech?2ap@ ; `string'
PUBLIC	??_C@_02LFNMGJAP@en@				; `string'
PUBLIC	??_C@_05GJPBJCOH@pargs@				; `string'
PUBLIC	??_C@_0BO@NPHHLKPA@Invalid?5entity?5attribute?5?$DN?5?$CFd@ ; `string'
PUBLIC	?__LINE__Var@?0??pack_entity_attributes@@YGXPBD@Z@4JA ; `pack_entity_attributes'::`1'::__LINE__Var
PUBLIC	??_C@_06HOHPNJLC@buffer@			; `string'
PUBLIC	??_C@_0CC@FBEOHMKE@Cannot?5pack?5entity?5attribute?5?$DN?5@ ; `string'
PUBLIC	?__LINE__Var@?0??unpack_entity_attributes@@YGHPAD@Z@4JA ; `unpack_entity_attributes'::`1'::__LINE__Var
PUBLIC	??_C@_0CE@JBGKCIBP@Cannot?5unpack?5entity?5attribute?5@ ; `string'
PUBLIC	?__LINE__Var@?0??pack_entity_attribute@@YGXW4ENTITY_ATTRIBUTES@@@Z@4JA ; `pack_entity_attribute'::`1'::__LINE__Var
PUBLIC	??_C@_0CO@KNNBDEI@?$CIattr?5?$DO?$DN?50?$CJ?5?$CG?$CG?5?$CIattr?5?$DM?5NUM_ENTI@ ; `string'
PUBLIC	??_C@_0CK@CCNDLGFC@?$CB?$CIattr?5?$DO?$DO?5NUM_ENTITY_ATTRIBUTE_@ ; `string'
PUBLIC	?__LINE__Var@?0??unpack_entity_attribute@@YG?AW4ENTITY_ATTRIBUTES@@XZ@4JA ; `unpack_entity_attribute'::`1'::__LINE__Var
EXTRN	?process_assert@@YGXPBD0H@Z:PROC		; process_assert
EXTRN	?debug_fatal@@YAXPBDZZ:PROC			; debug_fatal
EXTRN	?pack_unsigned_data@@YGXIH@Z:PROC		; pack_unsigned_data
EXTRN	?unpack_unsigned_data@@YGIH@Z:PROC		; unpack_unsigned_data
EXTRN	?pack_list_type@@YGXW4LIST_TYPES@@@Z:PROC	; pack_list_type
EXTRN	?unpack_list_type@@YG?AW4LIST_TYPES@@XZ:PROC	; unpack_list_type
EXTRN	?pack_attitude_angles@@YGXPAUENTITY@@MMM@Z:PROC	; pack_attitude_angles
EXTRN	?unpack_attitude_angles@@YGXPAUENTITY@@PAM11@Z:PROC ; unpack_attitude_angles
EXTRN	?pack_char_value@@YGXPAUENTITY@@W4CHAR_TYPES@@D@Z:PROC ; pack_char_value
EXTRN	?unpack_char_value@@YGDPAUENTITY@@W4CHAR_TYPES@@@Z:PROC ; unpack_char_value
EXTRN	?pack_char_type@@YGXW4CHAR_TYPES@@@Z:PROC	; pack_char_type
EXTRN	?unpack_char_type@@YG?AW4CHAR_TYPES@@XZ:PROC	; unpack_char_type
EXTRN	?pack_float_value@@YGXPAUENTITY@@W4FLOAT_TYPES@@M@Z:PROC ; pack_float_value
EXTRN	?unpack_float_value@@YGMPAUENTITY@@W4FLOAT_TYPES@@@Z:PROC ; unpack_float_value
EXTRN	?pack_float_type@@YGXW4FLOAT_TYPES@@@Z:PROC	; pack_float_type
EXTRN	?unpack_float_type@@YG?AW4FLOAT_TYPES@@XZ:PROC	; unpack_float_type
EXTRN	?pack_int_value@@YGXPAUENTITY@@W4INT_TYPES@@H@Z:PROC ; pack_int_value
EXTRN	?unpack_int_value@@YGHPAUENTITY@@W4INT_TYPES@@@Z:PROC ; unpack_int_value
EXTRN	?pack_int_type@@YGXW4INT_TYPES@@@Z:PROC		; pack_int_type
EXTRN	?unpack_int_type@@YG?AW4INT_TYPES@@XZ:PROC	; unpack_int_type
EXTRN	?pack_string@@YGXPAUENTITY@@W4STRING_TYPES@@PBD@Z:PROC ; pack_string
EXTRN	?unpack_string@@YGXPAUENTITY@@W4STRING_TYPES@@PAD@Z:PROC ; unpack_string
EXTRN	?pack_string_type@@YGXW4STRING_TYPES@@@Z:PROC	; pack_string_type
EXTRN	?unpack_string_type@@YG?AW4STRING_TYPES@@XZ:PROC ; unpack_string_type
EXTRN	?pack_vec3d@@YGXPAUENTITY@@W4VEC3D_TYPES@@PAUVEC3D@@@Z:PROC ; pack_vec3d
EXTRN	?unpack_vec3d@@YGXPAUENTITY@@W4VEC3D_TYPES@@PAUVEC3D@@@Z:PROC ; unpack_vec3d
EXTRN	?pack_vec3d_type@@YGXW4VEC3D_TYPES@@@Z:PROC	; pack_vec3d_type
EXTRN	?unpack_vec3d_type@@YG?AW4VEC3D_TYPES@@XZ:PROC	; unpack_vec3d_type
EXTRN	?pack_entity_safe_ptr@@YGXPAUENTITY@@@Z:PROC	; pack_entity_safe_ptr
EXTRN	?unpack_entity_safe_ptr@@YGPAUENTITY@@XZ:PROC	; unpack_entity_safe_ptr
EXTRN	?null_entity_pointer_message@@3PBDB:DWORD	; null_entity_pointer_message
EXTRN	?overload_invalid_list_type_message@@3PBDB:DWORD ; overload_invalid_list_type_message
EXTRN	?fn_set_local_entity_parent@@3PAY0CN@P6GXPAUENTITY@@W4LIST_TYPES@@0@ZA:BYTE ; fn_set_local_entity_parent
EXTRN	?fn_set_local_entity_child_pred@@3PAY0CN@P6GXPAUENTITY@@W4LIST_TYPES@@0@ZA:BYTE ; fn_set_local_entity_child_pred
EXTRN	?fn_set_local_entity_raw_attitude_angles@@3PAP6GXPAUENTITY@@MMM@ZA:BYTE ; fn_set_local_entity_raw_attitude_angles
EXTRN	?overload_invalid_char_type_message@@3PBDB:DWORD ; overload_invalid_char_type_message
EXTRN	?fn_set_local_entity_raw_char_value@@3PAY01P6GXPAUENTITY@@W4CHAR_TYPES@@D@ZA:BYTE ; fn_set_local_entity_raw_char_value
EXTRN	?overload_invalid_float_type_message@@3PBDB:DWORD ; overload_invalid_float_type_message
EXTRN	?fn_set_local_entity_raw_float_value@@3PAY0KP@P6GXPAUENTITY@@W4FLOAT_TYPES@@M@ZA:BYTE ; fn_set_local_entity_raw_float_value
EXTRN	?overload_invalid_int_type_message@@3PBDB:DWORD	; overload_invalid_int_type_message
EXTRN	?fn_set_local_entity_raw_int_value@@3PAY0BBH@P6GXPAUENTITY@@W4INT_TYPES@@H@ZA:BYTE ; fn_set_local_entity_raw_int_value
EXTRN	?overload_invalid_ptr_type_message@@3PBDB:DWORD	; overload_invalid_ptr_type_message
EXTRN	?fn_set_local_entity_ptr_value@@3PAY0BE@P6GXPAUENTITY@@W4PTR_TYPES@@PAX@ZA:BYTE ; fn_set_local_entity_ptr_value
EXTRN	?overload_invalid_string_type_message@@3PBDB:DWORD ; overload_invalid_string_type_message
EXTRN	?fn_set_local_entity_raw_string@@3PAY0N@P6GXPAUENTITY@@W4STRING_TYPES@@PBD@ZA:BYTE ; fn_set_local_entity_raw_string
EXTRN	?overload_invalid_vec3d_type_message@@3PBDB:DWORD ; overload_invalid_vec3d_type_message
EXTRN	?fn_set_local_entity_raw_vec3d@@3PAY0BI@P6GXPAUENTITY@@W4VEC3D_TYPES@@PAUVEC3D@@@ZA:BYTE ; fn_set_local_entity_raw_vec3d
EXTRN	__fltused:DWORD
_BSS	SEGMENT
?string_buffer@@3PAY0BAA@DA DB 0d00H DUP (?)		; string_buffer
_BSS	ENDS
;	COMDAT ?__LINE__Var@?0??unpack_entity_attribute@@YG?AW4ENTITY_ATTRIBUTES@@XZ@4JA
_DATA	SEGMENT
?__LINE__Var@?0??unpack_entity_attribute@@YG?AW4ENTITY_ATTRIBUTES@@XZ@4JA DD 0325H ; `unpack_entity_attribute'::`1'::__LINE__Var
_DATA	ENDS
;	COMDAT ??_C@_0CK@CCNDLGFC@?$CB?$CIattr?5?$DO?$DO?5NUM_ENTITY_ATTRIBUTE_@
CONST	SEGMENT
??_C@_0CK@CCNDLGFC@?$CB?$CIattr?5?$DO?$DO?5NUM_ENTITY_ATTRIBUTE_@ DB '!(a'
	DB	'ttr >> NUM_ENTITY_ATTRIBUTE_PACK_BITS)', 00H ; `string'
CONST	ENDS
;	COMDAT ??_C@_0CO@KNNBDEI@?$CIattr?5?$DO?$DN?50?$CJ?5?$CG?$CG?5?$CIattr?5?$DM?5NUM_ENTI@
CONST	SEGMENT
??_C@_0CO@KNNBDEI@?$CIattr?5?$DO?$DN?50?$CJ?5?$CG?$CG?5?$CIattr?5?$DM?5NUM_ENTI@ DB '('
	DB	'attr >= 0) && (attr < NUM_ENTITY_ATTRIBUTES)', 00H ; `string'
CONST	ENDS
;	COMDAT ?__LINE__Var@?0??pack_entity_attribute@@YGXW4ENTITY_ATTRIBUTES@@@Z@4JA
_DATA	SEGMENT
?__LINE__Var@?0??pack_entity_attribute@@YGXW4ENTITY_ATTRIBUTES@@@Z@4JA DD 0310H ; `pack_entity_attribute'::`1'::__LINE__Var
_DATA	ENDS
;	COMDAT ??_C@_0CE@JBGKCIBP@Cannot?5unpack?5entity?5attribute?5@
CONST	SEGMENT
??_C@_0CE@JBGKCIBP@Cannot?5unpack?5entity?5attribute?5@ DB 'Cannot unpack'
	DB	' entity attribute = %s', 00H		; `string'
CONST	ENDS
;	COMDAT ?__LINE__Var@?0??unpack_entity_attributes@@YGHPAD@Z@4JA
_DATA	SEGMENT
?__LINE__Var@?0??unpack_entity_attributes@@YGHPAD@Z@4JA DD 023aH ; `unpack_entity_attributes'::`1'::__LINE__Var
_DATA	ENDS
;	COMDAT ??_C@_0CC@FBEOHMKE@Cannot?5pack?5entity?5attribute?5?$DN?5@
CONST	SEGMENT
??_C@_0CC@FBEOHMKE@Cannot?5pack?5entity?5attribute?5?$DN?5@ DB 'Cannot pa'
	DB	'ck entity attribute = %s', 00H		; `string'
CONST	ENDS
;	COMDAT ??_C@_06HOHPNJLC@buffer@
CONST	SEGMENT
??_C@_06HOHPNJLC@buffer@ DB 'buffer', 00H		; `string'
CONST	ENDS
;	COMDAT ?__LINE__Var@?0??pack_entity_attributes@@YGXPBD@Z@4JA
_DATA	SEGMENT
?__LINE__Var@?0??pack_entity_attributes@@YGXPBD@Z@4JA DD 0166H ; `pack_entity_attributes'::`1'::__LINE__Var
_DATA	ENDS
;	COMDAT ??_C@_0BO@NPHHLKPA@Invalid?5entity?5attribute?5?$DN?5?$CFd@
CONST	SEGMENT
??_C@_0BO@NPHHLKPA@Invalid?5entity?5attribute?5?$DN?5?$CFd@ DB 'Invalid e'
	DB	'ntity attribute = %d', 00H			; `string'
CONST	ENDS
;	COMDAT ??_C@_05GJPBJCOH@pargs@
CONST	SEGMENT
??_C@_05GJPBJCOH@pargs@ DB 'pargs', 00H			; `string'
CONST	ENDS
;	COMDAT ??_C@_02LFNMGJAP@en@
CONST	SEGMENT
??_C@_02LFNMGJAP@en@ DB 'en', 00H			; `string'
CONST	ENDS
;	COMDAT ??_C@_0EO@GJKLLMAP@c?3?2users?2nhv90?2projects?2eech?2ap@
CONST	SEGMENT
??_C@_0EO@GJKLLMAP@c?3?2users?2nhv90?2projects?2eech?2ap@ DB 'c:\users\nh'
	DB	'v90\projects\eech\aphavoc\source\entity\system\en_attrs\en_at'
	DB	'trs.c', 00H					; `string'
CONST	ENDS
;	COMDAT ?__LINE__Var@?0??set_local_entity_attributes@@YGXPAUENTITY@@PAD@Z@4JA
_DATA	SEGMENT
?__LINE__Var@?0??set_local_entity_attributes@@YGXPAUENTITY@@PAD@Z@4JA DD 09aH ; `set_local_entity_attributes'::`1'::__LINE__Var
_DATA	ENDS
; Function compile flags: /Odtp /ZI
; File c:\users\nhv90\projects\eech\aphavoc\source\entity\system\en_attrs\en_attrs.c
;	COMDAT ?unpack_entity_attribute@@YG?AW4ENTITY_ATTRIBUTES@@XZ
_TEXT	SEGMENT
_attr$ = -4						; size = 4
?unpack_entity_attribute@@YG?AW4ENTITY_ATTRIBUTES@@XZ PROC ; unpack_entity_attribute, COMDAT

; 805  : {

  00000	55		 push	 ebp
  00001	8b ec		 mov	 ebp, esp
  00003	83 ec 44	 sub	 esp, 68			; 00000044H
  00006	53		 push	 ebx
  00007	56		 push	 esi
  00008	57		 push	 edi

; 806  : 	entity_attributes
; 807  : 		attr;
; 808  : 
; 809  : 	attr = (entity_attributes) unpack_unsigned_data (NUM_ENTITY_ATTRIBUTE_PACK_BITS);

  00009	6a 04		 push	 4
  0000b	e8 00 00 00 00	 call	 ?unpack_unsigned_data@@YGIH@Z ; unpack_unsigned_data
  00010	89 45 fc	 mov	 DWORD PTR _attr$[ebp], eax

; 810  : 
; 811  : 	ASSERT ((attr >= 0) && (attr < NUM_ENTITY_ATTRIBUTES));

  00013	83 7d fc 00	 cmp	 DWORD PTR _attr$[ebp], 0
  00017	7c 06		 jl	 SHORT $LN3@unpack_ent
  00019	83 7d fc 0a	 cmp	 DWORD PTR _attr$[ebp], 10 ; 0000000aH
  0001d	7c 18		 jl	 SHORT $LN2@unpack_ent
$LN3@unpack_ent:
  0001f	a1 00 00 00 00	 mov	 eax, DWORD PTR ?__LINE__Var@?0??unpack_entity_attribute@@YG?AW4ENTITY_ATTRIBUTES@@XZ@4JA
  00024	83 c0 06	 add	 eax, 6
  00027	50		 push	 eax
  00028	68 00 00 00 00	 push	 OFFSET ??_C@_0EO@GJKLLMAP@c?3?2users?2nhv90?2projects?2eech?2ap@
  0002d	68 00 00 00 00	 push	 OFFSET ??_C@_0CO@KNNBDEI@?$CIattr?5?$DO?$DN?50?$CJ?5?$CG?$CG?5?$CIattr?5?$DM?5NUM_ENTI@
  00032	e8 00 00 00 00	 call	 ?process_assert@@YGXPBD0H@Z ; process_assert
$LN2@unpack_ent:

; 812  : 
; 813  : 	#if (DEBUG_MODULE_PACK_ONE || DEBUG_MODULE_PACK_ALL)
; 814  : 
; 815  : 	if (entity_attribute_database[attr].debug_pack)
; 816  : 	{
; 817  : 		debug_log_entity_args (ENTITY_DEBUG_UNPACK, ENTITY_DEBUG_ENTITY_ATTRIBUTE, NULL, attr);
; 818  : 	}
; 819  : 
; 820  : 	#endif
; 821  : 
; 822  : 	return (attr);

  00037	8b 45 fc	 mov	 eax, DWORD PTR _attr$[ebp]

; 823  : }

  0003a	5f		 pop	 edi
  0003b	5e		 pop	 esi
  0003c	5b		 pop	 ebx
  0003d	8b e5		 mov	 esp, ebp
  0003f	5d		 pop	 ebp
  00040	c3		 ret	 0
?unpack_entity_attribute@@YG?AW4ENTITY_ATTRIBUTES@@XZ ENDP ; unpack_entity_attribute
_TEXT	ENDS
; Function compile flags: /Odtp /ZI
; File c:\users\nhv90\projects\eech\aphavoc\source\entity\system\en_attrs\en_attrs.c
;	COMDAT ?pack_entity_attribute@@YGXW4ENTITY_ATTRIBUTES@@@Z
_TEXT	SEGMENT
_attr$ = 8						; size = 4
?pack_entity_attribute@@YGXW4ENTITY_ATTRIBUTES@@@Z PROC	; pack_entity_attribute, COMDAT

; 784  : {

  00000	55		 push	 ebp
  00001	8b ec		 mov	 ebp, esp
  00003	83 ec 40	 sub	 esp, 64			; 00000040H
  00006	53		 push	 ebx
  00007	56		 push	 esi
  00008	57		 push	 edi

; 785  : 	ASSERT ((attr >= 0) && (attr < NUM_ENTITY_ATTRIBUTES));

  00009	83 7d 08 00	 cmp	 DWORD PTR _attr$[ebp], 0
  0000d	7c 06		 jl	 SHORT $LN3@pack_entit
  0000f	83 7d 08 0a	 cmp	 DWORD PTR _attr$[ebp], 10 ; 0000000aH
  00013	7c 18		 jl	 SHORT $LN2@pack_entit
$LN3@pack_entit:
  00015	a1 00 00 00 00	 mov	 eax, DWORD PTR ?__LINE__Var@?0??pack_entity_attribute@@YGXW4ENTITY_ATTRIBUTES@@@Z@4JA
  0001a	83 c0 01	 add	 eax, 1
  0001d	50		 push	 eax
  0001e	68 00 00 00 00	 push	 OFFSET ??_C@_0EO@GJKLLMAP@c?3?2users?2nhv90?2projects?2eech?2ap@
  00023	68 00 00 00 00	 push	 OFFSET ??_C@_0CO@KNNBDEI@?$CIattr?5?$DO?$DN?50?$CJ?5?$CG?$CG?5?$CIattr?5?$DM?5NUM_ENTI@
  00028	e8 00 00 00 00	 call	 ?process_assert@@YGXPBD0H@Z ; process_assert
$LN2@pack_entit:

; 786  : 	ASSERT (!(attr >> NUM_ENTITY_ATTRIBUTE_PACK_BITS));

  0002d	8b 45 08	 mov	 eax, DWORD PTR _attr$[ebp]
  00030	c1 f8 04	 sar	 eax, 4
  00033	85 c0		 test	 eax, eax
  00035	74 18		 je	 SHORT $LN4@pack_entit
  00037	a1 00 00 00 00	 mov	 eax, DWORD PTR ?__LINE__Var@?0??pack_entity_attribute@@YGXW4ENTITY_ATTRIBUTES@@@Z@4JA
  0003c	83 c0 02	 add	 eax, 2
  0003f	50		 push	 eax
  00040	68 00 00 00 00	 push	 OFFSET ??_C@_0EO@GJKLLMAP@c?3?2users?2nhv90?2projects?2eech?2ap@
  00045	68 00 00 00 00	 push	 OFFSET ??_C@_0CK@CCNDLGFC@?$CB?$CIattr?5?$DO?$DO?5NUM_ENTITY_ATTRIBUTE_@
  0004a	e8 00 00 00 00	 call	 ?process_assert@@YGXPBD0H@Z ; process_assert
$LN4@pack_entit:

; 787  : 
; 788  : 	#if (DEBUG_MODULE_PACK_ONE || DEBUG_MODULE_PACK_ALL)
; 789  : 
; 790  : 	if (entity_attribute_database[attr].debug_pack)
; 791  : 	{
; 792  : 		debug_log_entity_args (ENTITY_DEBUG_PACK, ENTITY_DEBUG_ENTITY_ATTRIBUTE, NULL, attr);
; 793  : 	}
; 794  : 
; 795  : 	#endif
; 796  : 
; 797  : 	pack_unsigned_data (attr, NUM_ENTITY_ATTRIBUTE_PACK_BITS);

  0004f	6a 04		 push	 4
  00051	8b 45 08	 mov	 eax, DWORD PTR _attr$[ebp]
  00054	50		 push	 eax
  00055	e8 00 00 00 00	 call	 ?pack_unsigned_data@@YGXIH@Z ; pack_unsigned_data

; 798  : }

  0005a	5f		 pop	 edi
  0005b	5e		 pop	 esi
  0005c	5b		 pop	 ebx
  0005d	8b e5		 mov	 esp, ebp
  0005f	5d		 pop	 ebp
  00060	c2 04 00	 ret	 4
?pack_entity_attribute@@YGXW4ENTITY_ATTRIBUTES@@@Z ENDP	; pack_entity_attribute
_TEXT	ENDS
; Function compile flags: /Odtp /ZI
; File c:\users\nhv90\projects\eech\aphavoc\source\entity\system\en_attrs\en_attrs.c
;	COMDAT ?unpack_entity_attributes@@YGHPAD@Z
_TEXT	SEGMENT
tv74 = -148						; size = 4
_v$1 = -80						; size = 12
_type$2 = -68						; size = 4
_type$3 = -64						; size = 4
_parent$4 = -60						; size = 4
_type$5 = -56						; size = 4
_value$6 = -52						; size = 4
_type$7 = -48						; size = 4
_value$8 = -44						; size = 4
_type$9 = -40						; size = 4
_child_pred$10 = -36					; size = 4
_type$11 = -32						; size = 4
_value$12 = -25						; size = 1
_type$13 = -24						; size = 4
_roll$14 = -20						; size = 4
_pitch$15 = -16						; size = 4
_heading$16 = -12					; size = 4
_attr$ = -8						; size = 4
_num_bytes$ = -4					; size = 4
_buffer$ = 8						; size = 4
?unpack_entity_attributes@@YGHPAD@Z PROC		; unpack_entity_attributes, COMDAT

; 570  : {

  00000	55		 push	 ebp
  00001	8b ec		 mov	 ebp, esp
  00003	81 ec 94 00 00
	00		 sub	 esp, 148		; 00000094H
  00009	53		 push	 ebx
  0000a	56		 push	 esi
  0000b	57		 push	 edi

; 571  : 	int
; 572  : 		num_bytes;
; 573  : 
; 574  : 	entity_attributes
; 575  : 		attr;
; 576  : 
; 577  : 	ASSERT (buffer);

  0000c	83 7d 08 00	 cmp	 DWORD PTR _buffer$[ebp], 0
  00010	75 18		 jne	 SHORT $LN6@unpack_ent
  00012	a1 00 00 00 00	 mov	 eax, DWORD PTR ?__LINE__Var@?0??unpack_entity_attributes@@YGHPAD@Z@4JA
  00017	83 c0 07	 add	 eax, 7
  0001a	50		 push	 eax
  0001b	68 00 00 00 00	 push	 OFFSET ??_C@_0EO@GJKLLMAP@c?3?2users?2nhv90?2projects?2eech?2ap@
  00020	68 00 00 00 00	 push	 OFFSET ??_C@_06HOHPNJLC@buffer@
  00025	e8 00 00 00 00	 call	 ?process_assert@@YGXPBD0H@Z ; process_assert
$LN6@unpack_ent:

; 578  : 
; 579  : 	num_bytes = 0;

  0002a	c7 45 fc 00 00
	00 00		 mov	 DWORD PTR _num_bytes$[ebp], 0
$LN2@unpack_ent:

; 580  : 
; 581  : 	while (TRUE)

  00031	b8 01 00 00 00	 mov	 eax, 1
  00036	85 c0		 test	 eax, eax
  00038	0f 84 78 03 00
	00		 je	 $LN3@unpack_ent

; 582  : 	{
; 583  : 		attr = unpack_entity_attribute ();

  0003e	e8 00 00 00 00	 call	 ?unpack_entity_attribute@@YG?AW4ENTITY_ATTRIBUTES@@XZ ; unpack_entity_attribute
  00043	89 45 f8	 mov	 DWORD PTR _attr$[ebp], eax

; 584  : 
; 585  : 		num_bytes += set_list_item (buffer, entity_attributes, attr);

  00046	8b 45 08	 mov	 eax, DWORD PTR _buffer$[ebp]
  00049	83 c0 04	 add	 eax, 4
  0004c	89 45 08	 mov	 DWORD PTR _buffer$[ebp], eax
  0004f	8b 4d 08	 mov	 ecx, DWORD PTR _buffer$[ebp]
  00052	8b 55 f8	 mov	 edx, DWORD PTR _attr$[ebp]
  00055	89 51 fc	 mov	 DWORD PTR [ecx-4], edx
  00058	8b 45 fc	 mov	 eax, DWORD PTR _num_bytes$[ebp]
  0005b	83 c0 04	 add	 eax, 4
  0005e	89 45 fc	 mov	 DWORD PTR _num_bytes$[ebp], eax

; 586  : 
; 587  : 		switch (attr)

  00061	8b 45 f8	 mov	 eax, DWORD PTR _attr$[ebp]
  00064	89 85 6c ff ff
	ff		 mov	 DWORD PTR tv74[ebp], eax
  0006a	83 bd 6c ff ff
	ff 09		 cmp	 DWORD PTR tv74[ebp], 9
  00071	0f 87 29 03 00
	00		 ja	 $LN17@unpack_ent
  00077	8b 8d 6c ff ff
	ff		 mov	 ecx, DWORD PTR tv74[ebp]
  0007d	ff 24 8d 00 00
	00 00		 jmp	 DWORD PTR $LN19@unpack_ent[ecx*4]
$LN7@unpack_ent:

; 588  : 		{
; 589  : 			////////////////////////////////////////
; 590  : 			case entity_attr_end:
; 591  : 			////////////////////////////////////////
; 592  : 			{
; 593  : 				return (num_bytes);

  00084	8b 45 fc	 mov	 eax, DWORD PTR _num_bytes$[ebp]
  00087	e9 2a 03 00 00	 jmp	 $LN3@unpack_ent
$LN8@unpack_ent:

; 594  : 			}
; 595  : 			////////////////////////////////////////
; 596  : 			case entity_attr_attitude_angles:
; 597  : 			////////////////////////////////////////
; 598  : 			{
; 599  : 				float
; 600  : 					heading,
; 601  : 					pitch,
; 602  : 					roll;
; 603  : 
; 604  : 				unpack_attitude_angles (NULL, &heading, &pitch, &roll);

  0008c	8d 45 ec	 lea	 eax, DWORD PTR _roll$14[ebp]
  0008f	50		 push	 eax
  00090	8d 4d f0	 lea	 ecx, DWORD PTR _pitch$15[ebp]
  00093	51		 push	 ecx
  00094	8d 55 f4	 lea	 edx, DWORD PTR _heading$16[ebp]
  00097	52		 push	 edx
  00098	6a 00		 push	 0
  0009a	e8 00 00 00 00	 call	 ?unpack_attitude_angles@@YGXPAUENTITY@@PAM11@Z ; unpack_attitude_angles

; 605  : 
; 606  : 				num_bytes += set_list_item (buffer, double, heading);

  0009f	8b 45 08	 mov	 eax, DWORD PTR _buffer$[ebp]
  000a2	83 c0 08	 add	 eax, 8
  000a5	89 45 08	 mov	 DWORD PTR _buffer$[ebp], eax
  000a8	f3 0f 5a 45 f4	 cvtss2sd xmm0, DWORD PTR _heading$16[ebp]
  000ad	8b 4d 08	 mov	 ecx, DWORD PTR _buffer$[ebp]
  000b0	f2 0f 11 41 f8	 movsd	 QWORD PTR [ecx-8], xmm0
  000b5	8b 55 fc	 mov	 edx, DWORD PTR _num_bytes$[ebp]
  000b8	83 c2 08	 add	 edx, 8
  000bb	89 55 fc	 mov	 DWORD PTR _num_bytes$[ebp], edx

; 607  : 
; 608  : 				num_bytes += set_list_item (buffer, double, pitch);

  000be	8b 45 08	 mov	 eax, DWORD PTR _buffer$[ebp]
  000c1	83 c0 08	 add	 eax, 8
  000c4	89 45 08	 mov	 DWORD PTR _buffer$[ebp], eax
  000c7	f3 0f 5a 45 f0	 cvtss2sd xmm0, DWORD PTR _pitch$15[ebp]
  000cc	8b 4d 08	 mov	 ecx, DWORD PTR _buffer$[ebp]
  000cf	f2 0f 11 41 f8	 movsd	 QWORD PTR [ecx-8], xmm0
  000d4	8b 55 fc	 mov	 edx, DWORD PTR _num_bytes$[ebp]
  000d7	83 c2 08	 add	 edx, 8
  000da	89 55 fc	 mov	 DWORD PTR _num_bytes$[ebp], edx

; 609  : 
; 610  : 				num_bytes += set_list_item (buffer, double, roll);

  000dd	8b 45 08	 mov	 eax, DWORD PTR _buffer$[ebp]
  000e0	83 c0 08	 add	 eax, 8
  000e3	89 45 08	 mov	 DWORD PTR _buffer$[ebp], eax
  000e6	f3 0f 5a 45 ec	 cvtss2sd xmm0, DWORD PTR _roll$14[ebp]
  000eb	8b 4d 08	 mov	 ecx, DWORD PTR _buffer$[ebp]
  000ee	f2 0f 11 41 f8	 movsd	 QWORD PTR [ecx-8], xmm0
  000f3	8b 55 fc	 mov	 edx, DWORD PTR _num_bytes$[ebp]
  000f6	83 c2 08	 add	 edx, 8
  000f9	89 55 fc	 mov	 DWORD PTR _num_bytes$[ebp], edx

; 611  : 
; 612  : 				break;

  000fc	e9 b0 02 00 00	 jmp	 $LN4@unpack_ent
$LN9@unpack_ent:

; 613  : 			}
; 614  : 			////////////////////////////////////////
; 615  : 			case entity_attr_char_value:
; 616  : 			////////////////////////////////////////
; 617  : 			{
; 618  : 				char_types
; 619  : 					type;
; 620  : 
; 621  : 				char
; 622  : 					value;
; 623  : 
; 624  : 				type = unpack_char_type ();

  00101	e8 00 00 00 00	 call	 ?unpack_char_type@@YG?AW4CHAR_TYPES@@XZ ; unpack_char_type
  00106	89 45 e8	 mov	 DWORD PTR _type$13[ebp], eax

; 625  : 
; 626  : 				num_bytes += set_list_item (buffer, char_types, type);

  00109	8b 45 08	 mov	 eax, DWORD PTR _buffer$[ebp]
  0010c	83 c0 04	 add	 eax, 4
  0010f	89 45 08	 mov	 DWORD PTR _buffer$[ebp], eax
  00112	8b 4d 08	 mov	 ecx, DWORD PTR _buffer$[ebp]
  00115	8b 55 e8	 mov	 edx, DWORD PTR _type$13[ebp]
  00118	89 51 fc	 mov	 DWORD PTR [ecx-4], edx
  0011b	8b 45 fc	 mov	 eax, DWORD PTR _num_bytes$[ebp]
  0011e	83 c0 04	 add	 eax, 4
  00121	89 45 fc	 mov	 DWORD PTR _num_bytes$[ebp], eax

; 627  : 
; 628  : 				value = unpack_char_value (NULL, type);

  00124	8b 45 e8	 mov	 eax, DWORD PTR _type$13[ebp]
  00127	50		 push	 eax
  00128	6a 00		 push	 0
  0012a	e8 00 00 00 00	 call	 ?unpack_char_value@@YGDPAUENTITY@@W4CHAR_TYPES@@@Z ; unpack_char_value
  0012f	88 45 e7	 mov	 BYTE PTR _value$12[ebp], al

; 629  : 
; 630  : 				num_bytes += set_list_item (buffer, int, value);

  00132	8b 45 08	 mov	 eax, DWORD PTR _buffer$[ebp]
  00135	83 c0 04	 add	 eax, 4
  00138	89 45 08	 mov	 DWORD PTR _buffer$[ebp], eax
  0013b	0f b6 4d e7	 movzx	 ecx, BYTE PTR _value$12[ebp]
  0013f	8b 55 08	 mov	 edx, DWORD PTR _buffer$[ebp]
  00142	89 4a fc	 mov	 DWORD PTR [edx-4], ecx
  00145	8b 45 fc	 mov	 eax, DWORD PTR _num_bytes$[ebp]
  00148	83 c0 04	 add	 eax, 4
  0014b	89 45 fc	 mov	 DWORD PTR _num_bytes$[ebp], eax

; 631  : 
; 632  : 				break;

  0014e	e9 5e 02 00 00	 jmp	 $LN4@unpack_ent
$LN10@unpack_ent:

; 633  : 			}
; 634  : 			////////////////////////////////////////
; 635  : 			case entity_attr_child_pred:
; 636  : 			////////////////////////////////////////
; 637  : 			{
; 638  : 				list_types
; 639  : 					type;
; 640  : 
; 641  : 				entity
; 642  : 					*child_pred;
; 643  : 
; 644  : 				type = unpack_list_type ();

  00153	e8 00 00 00 00	 call	 ?unpack_list_type@@YG?AW4LIST_TYPES@@XZ ; unpack_list_type
  00158	89 45 e0	 mov	 DWORD PTR _type$11[ebp], eax

; 645  : 
; 646  : 				num_bytes += set_list_item (buffer, list_types, type);

  0015b	8b 45 08	 mov	 eax, DWORD PTR _buffer$[ebp]
  0015e	83 c0 04	 add	 eax, 4
  00161	89 45 08	 mov	 DWORD PTR _buffer$[ebp], eax
  00164	8b 4d 08	 mov	 ecx, DWORD PTR _buffer$[ebp]
  00167	8b 55 e0	 mov	 edx, DWORD PTR _type$11[ebp]
  0016a	89 51 fc	 mov	 DWORD PTR [ecx-4], edx
  0016d	8b 45 fc	 mov	 eax, DWORD PTR _num_bytes$[ebp]
  00170	83 c0 04	 add	 eax, 4
  00173	89 45 fc	 mov	 DWORD PTR _num_bytes$[ebp], eax

; 647  : 
; 648  : 				child_pred = unpack_entity_safe_ptr ();

  00176	e8 00 00 00 00	 call	 ?unpack_entity_safe_ptr@@YGPAUENTITY@@XZ ; unpack_entity_safe_ptr
  0017b	89 45 dc	 mov	 DWORD PTR _child_pred$10[ebp], eax

; 649  : 
; 650  : 				num_bytes += set_list_item (buffer, entity *, child_pred);

  0017e	8b 45 08	 mov	 eax, DWORD PTR _buffer$[ebp]
  00181	83 c0 04	 add	 eax, 4
  00184	89 45 08	 mov	 DWORD PTR _buffer$[ebp], eax
  00187	8b 4d 08	 mov	 ecx, DWORD PTR _buffer$[ebp]
  0018a	8b 55 dc	 mov	 edx, DWORD PTR _child_pred$10[ebp]
  0018d	89 51 fc	 mov	 DWORD PTR [ecx-4], edx
  00190	8b 45 fc	 mov	 eax, DWORD PTR _num_bytes$[ebp]
  00193	83 c0 04	 add	 eax, 4
  00196	89 45 fc	 mov	 DWORD PTR _num_bytes$[ebp], eax

; 651  : 
; 652  : 				break;

  00199	e9 13 02 00 00	 jmp	 $LN4@unpack_ent
$LN11@unpack_ent:

; 653  : 			}
; 654  : 			////////////////////////////////////////
; 655  : 			case entity_attr_float_value:
; 656  : 			////////////////////////////////////////
; 657  : 			{
; 658  : 				float_types
; 659  : 					type;
; 660  : 
; 661  : 				float
; 662  : 					value;
; 663  : 
; 664  : 				type = unpack_float_type ();

  0019e	e8 00 00 00 00	 call	 ?unpack_float_type@@YG?AW4FLOAT_TYPES@@XZ ; unpack_float_type
  001a3	89 45 d8	 mov	 DWORD PTR _type$9[ebp], eax

; 665  : 
; 666  : 				num_bytes += set_list_item (buffer, float_types, type);

  001a6	8b 45 08	 mov	 eax, DWORD PTR _buffer$[ebp]
  001a9	83 c0 04	 add	 eax, 4
  001ac	89 45 08	 mov	 DWORD PTR _buffer$[ebp], eax
  001af	8b 4d 08	 mov	 ecx, DWORD PTR _buffer$[ebp]
  001b2	8b 55 d8	 mov	 edx, DWORD PTR _type$9[ebp]
  001b5	89 51 fc	 mov	 DWORD PTR [ecx-4], edx
  001b8	8b 45 fc	 mov	 eax, DWORD PTR _num_bytes$[ebp]
  001bb	83 c0 04	 add	 eax, 4
  001be	89 45 fc	 mov	 DWORD PTR _num_bytes$[ebp], eax

; 667  : 
; 668  : 				value = unpack_float_value (NULL, type);

  001c1	8b 45 d8	 mov	 eax, DWORD PTR _type$9[ebp]
  001c4	50		 push	 eax
  001c5	6a 00		 push	 0
  001c7	e8 00 00 00 00	 call	 ?unpack_float_value@@YGMPAUENTITY@@W4FLOAT_TYPES@@@Z ; unpack_float_value
  001cc	d9 5d d4	 fstp	 DWORD PTR _value$8[ebp]

; 669  : 
; 670  : 				num_bytes += set_list_item (buffer, double, value);

  001cf	8b 45 08	 mov	 eax, DWORD PTR _buffer$[ebp]
  001d2	83 c0 08	 add	 eax, 8
  001d5	89 45 08	 mov	 DWORD PTR _buffer$[ebp], eax
  001d8	f3 0f 5a 45 d4	 cvtss2sd xmm0, DWORD PTR _value$8[ebp]
  001dd	8b 4d 08	 mov	 ecx, DWORD PTR _buffer$[ebp]
  001e0	f2 0f 11 41 f8	 movsd	 QWORD PTR [ecx-8], xmm0
  001e5	8b 55 fc	 mov	 edx, DWORD PTR _num_bytes$[ebp]
  001e8	83 c2 08	 add	 edx, 8
  001eb	89 55 fc	 mov	 DWORD PTR _num_bytes$[ebp], edx

; 671  : 
; 672  : 				break;

  001ee	e9 be 01 00 00	 jmp	 $LN4@unpack_ent
$LN12@unpack_ent:

; 673  : 			}
; 674  : 			////////////////////////////////////////
; 675  : 			case entity_attr_int_value:
; 676  : 			////////////////////////////////////////
; 677  : 			{
; 678  : 				int_types
; 679  : 					type;
; 680  : 
; 681  : 				int
; 682  : 					value;
; 683  : 
; 684  : 				type = unpack_int_type ();

  001f3	e8 00 00 00 00	 call	 ?unpack_int_type@@YG?AW4INT_TYPES@@XZ ; unpack_int_type
  001f8	89 45 d0	 mov	 DWORD PTR _type$7[ebp], eax

; 685  : 
; 686  : 				num_bytes += set_list_item (buffer, int_types, type);

  001fb	8b 45 08	 mov	 eax, DWORD PTR _buffer$[ebp]
  001fe	83 c0 04	 add	 eax, 4
  00201	89 45 08	 mov	 DWORD PTR _buffer$[ebp], eax
  00204	8b 4d 08	 mov	 ecx, DWORD PTR _buffer$[ebp]
  00207	8b 55 d0	 mov	 edx, DWORD PTR _type$7[ebp]
  0020a	89 51 fc	 mov	 DWORD PTR [ecx-4], edx
  0020d	8b 45 fc	 mov	 eax, DWORD PTR _num_bytes$[ebp]
  00210	83 c0 04	 add	 eax, 4
  00213	89 45 fc	 mov	 DWORD PTR _num_bytes$[ebp], eax

; 687  : 
; 688  : 				value = unpack_int_value (NULL, type);

  00216	8b 45 d0	 mov	 eax, DWORD PTR _type$7[ebp]
  00219	50		 push	 eax
  0021a	6a 00		 push	 0
  0021c	e8 00 00 00 00	 call	 ?unpack_int_value@@YGHPAUENTITY@@W4INT_TYPES@@@Z ; unpack_int_value
  00221	89 45 cc	 mov	 DWORD PTR _value$6[ebp], eax

; 689  : 
; 690  : 				num_bytes += set_list_item (buffer, int, value);

  00224	8b 45 08	 mov	 eax, DWORD PTR _buffer$[ebp]
  00227	83 c0 04	 add	 eax, 4
  0022a	89 45 08	 mov	 DWORD PTR _buffer$[ebp], eax
  0022d	8b 4d 08	 mov	 ecx, DWORD PTR _buffer$[ebp]
  00230	8b 55 cc	 mov	 edx, DWORD PTR _value$6[ebp]
  00233	89 51 fc	 mov	 DWORD PTR [ecx-4], edx
  00236	8b 45 fc	 mov	 eax, DWORD PTR _num_bytes$[ebp]
  00239	83 c0 04	 add	 eax, 4
  0023c	89 45 fc	 mov	 DWORD PTR _num_bytes$[ebp], eax

; 691  : 
; 692  : 				break;

  0023f	e9 6d 01 00 00	 jmp	 $LN4@unpack_ent
$LN13@unpack_ent:

; 693  : 			}
; 694  : 			////////////////////////////////////////
; 695  : 			case entity_attr_parent:
; 696  : 			////////////////////////////////////////
; 697  : 			{
; 698  : 				list_types
; 699  : 					type;
; 700  : 
; 701  : 				entity
; 702  : 					*parent;
; 703  : 
; 704  : 				type = unpack_list_type ();

  00244	e8 00 00 00 00	 call	 ?unpack_list_type@@YG?AW4LIST_TYPES@@XZ ; unpack_list_type
  00249	89 45 c8	 mov	 DWORD PTR _type$5[ebp], eax

; 705  : 
; 706  : 				num_bytes += set_list_item (buffer, list_types, type);

  0024c	8b 45 08	 mov	 eax, DWORD PTR _buffer$[ebp]
  0024f	83 c0 04	 add	 eax, 4
  00252	89 45 08	 mov	 DWORD PTR _buffer$[ebp], eax
  00255	8b 4d 08	 mov	 ecx, DWORD PTR _buffer$[ebp]
  00258	8b 55 c8	 mov	 edx, DWORD PTR _type$5[ebp]
  0025b	89 51 fc	 mov	 DWORD PTR [ecx-4], edx
  0025e	8b 45 fc	 mov	 eax, DWORD PTR _num_bytes$[ebp]
  00261	83 c0 04	 add	 eax, 4
  00264	89 45 fc	 mov	 DWORD PTR _num_bytes$[ebp], eax

; 707  : 
; 708  : 				parent = unpack_entity_safe_ptr ();

  00267	e8 00 00 00 00	 call	 ?unpack_entity_safe_ptr@@YGPAUENTITY@@XZ ; unpack_entity_safe_ptr
  0026c	89 45 c4	 mov	 DWORD PTR _parent$4[ebp], eax

; 709  : 
; 710  : 				num_bytes += set_list_item (buffer, entity *, parent);

  0026f	8b 45 08	 mov	 eax, DWORD PTR _buffer$[ebp]
  00272	83 c0 04	 add	 eax, 4
  00275	89 45 08	 mov	 DWORD PTR _buffer$[ebp], eax
  00278	8b 4d 08	 mov	 ecx, DWORD PTR _buffer$[ebp]
  0027b	8b 55 c4	 mov	 edx, DWORD PTR _parent$4[ebp]
  0027e	89 51 fc	 mov	 DWORD PTR [ecx-4], edx
  00281	8b 45 fc	 mov	 eax, DWORD PTR _num_bytes$[ebp]
  00284	83 c0 04	 add	 eax, 4
  00287	89 45 fc	 mov	 DWORD PTR _num_bytes$[ebp], eax

; 711  : 
; 712  : 				break;

  0028a	e9 22 01 00 00	 jmp	 $LN4@unpack_ent
$LN14@unpack_ent:

; 713  : 			}
; 714  : 			////////////////////////////////////////
; 715  : 			case entity_attr_ptr_value:
; 716  : 			////////////////////////////////////////
; 717  : 			{
; 718  : 				debug_fatal ("Cannot unpack entity attribute = %s", get_entity_attribute_name (attr));

  0028f	8b 45 f8	 mov	 eax, DWORD PTR _attr$[ebp]
  00292	8b 0c c5 00 00
	00 00		 mov	 ecx, DWORD PTR ?entity_attribute_database@@3PAUENTITY_ATTRIBUTE_DATA@@A[eax*8]
  00299	51		 push	 ecx
  0029a	68 00 00 00 00	 push	 OFFSET ??_C@_0CE@JBGKCIBP@Cannot?5unpack?5entity?5attribute?5@
  0029f	e8 00 00 00 00	 call	 ?debug_fatal@@YAXPBDZZ	; debug_fatal
  002a4	83 c4 08	 add	 esp, 8

; 719  : 
; 720  : 				break;

  002a7	e9 05 01 00 00	 jmp	 $LN4@unpack_ent
$LN15@unpack_ent:

; 721  : 			}
; 722  : 			////////////////////////////////////////
; 723  : 			case entity_attr_string:
; 724  : 			////////////////////////////////////////
; 725  : 			{
; 726  : 				string_types
; 727  : 					type;
; 728  : 
; 729  : 				type = unpack_string_type ();

  002ac	e8 00 00 00 00	 call	 ?unpack_string_type@@YG?AW4STRING_TYPES@@XZ ; unpack_string_type
  002b1	89 45 c0	 mov	 DWORD PTR _type$3[ebp], eax

; 730  : 
; 731  : 				num_bytes += set_list_item (buffer, string_types, type);

  002b4	8b 45 08	 mov	 eax, DWORD PTR _buffer$[ebp]
  002b7	83 c0 04	 add	 eax, 4
  002ba	89 45 08	 mov	 DWORD PTR _buffer$[ebp], eax
  002bd	8b 4d 08	 mov	 ecx, DWORD PTR _buffer$[ebp]
  002c0	8b 55 c0	 mov	 edx, DWORD PTR _type$3[ebp]
  002c3	89 51 fc	 mov	 DWORD PTR [ecx-4], edx
  002c6	8b 45 fc	 mov	 eax, DWORD PTR _num_bytes$[ebp]
  002c9	83 c0 04	 add	 eax, 4
  002cc	89 45 fc	 mov	 DWORD PTR _num_bytes$[ebp], eax

; 732  : 
; 733  : 				//
; 734  : 				// unpack the string into the string buffer and put the address of this buffer into the attributes buffer
; 735  : 				//
; 736  : 
; 737  : 				unpack_string (NULL, type, string_buffer[type]);

  002cf	8b 45 c0	 mov	 eax, DWORD PTR _type$3[ebp]
  002d2	c1 e0 08	 shl	 eax, 8
  002d5	05 00 00 00 00	 add	 eax, OFFSET ?string_buffer@@3PAY0BAA@DA
  002da	50		 push	 eax
  002db	8b 4d c0	 mov	 ecx, DWORD PTR _type$3[ebp]
  002de	51		 push	 ecx
  002df	6a 00		 push	 0
  002e1	e8 00 00 00 00	 call	 ?unpack_string@@YGXPAUENTITY@@W4STRING_TYPES@@PAD@Z ; unpack_string

; 738  : 
; 739  : 				num_bytes += set_list_item (buffer, char *, string_buffer[type]);

  002e6	8b 45 08	 mov	 eax, DWORD PTR _buffer$[ebp]
  002e9	83 c0 04	 add	 eax, 4
  002ec	89 45 08	 mov	 DWORD PTR _buffer$[ebp], eax
  002ef	8b 4d c0	 mov	 ecx, DWORD PTR _type$3[ebp]
  002f2	c1 e1 08	 shl	 ecx, 8
  002f5	81 c1 00 00 00
	00		 add	 ecx, OFFSET ?string_buffer@@3PAY0BAA@DA
  002fb	8b 55 08	 mov	 edx, DWORD PTR _buffer$[ebp]
  002fe	89 4a fc	 mov	 DWORD PTR [edx-4], ecx
  00301	8b 45 fc	 mov	 eax, DWORD PTR _num_bytes$[ebp]
  00304	83 c0 04	 add	 eax, 4
  00307	89 45 fc	 mov	 DWORD PTR _num_bytes$[ebp], eax

; 740  : 
; 741  : 				break;

  0030a	e9 a2 00 00 00	 jmp	 $LN4@unpack_ent
$LN16@unpack_ent:

; 742  : 			}
; 743  : 			////////////////////////////////////////
; 744  : 			case entity_attr_vec3d:
; 745  : 			////////////////////////////////////////
; 746  : 			{
; 747  : 				vec3d_types
; 748  : 					type;
; 749  : 
; 750  : 				vec3d
; 751  : 					v;
; 752  : 
; 753  : 				type = unpack_vec3d_type ();

  0030f	e8 00 00 00 00	 call	 ?unpack_vec3d_type@@YG?AW4VEC3D_TYPES@@XZ ; unpack_vec3d_type
  00314	89 45 bc	 mov	 DWORD PTR _type$2[ebp], eax

; 754  : 
; 755  : 				num_bytes += set_list_item (buffer, vec3d_types, type);

  00317	8b 45 08	 mov	 eax, DWORD PTR _buffer$[ebp]
  0031a	83 c0 04	 add	 eax, 4
  0031d	89 45 08	 mov	 DWORD PTR _buffer$[ebp], eax
  00320	8b 4d 08	 mov	 ecx, DWORD PTR _buffer$[ebp]
  00323	8b 55 bc	 mov	 edx, DWORD PTR _type$2[ebp]
  00326	89 51 fc	 mov	 DWORD PTR [ecx-4], edx
  00329	8b 45 fc	 mov	 eax, DWORD PTR _num_bytes$[ebp]
  0032c	83 c0 04	 add	 eax, 4
  0032f	89 45 fc	 mov	 DWORD PTR _num_bytes$[ebp], eax

; 756  : 
; 757  : 				unpack_vec3d (NULL, type, &v);

  00332	8d 45 b0	 lea	 eax, DWORD PTR _v$1[ebp]
  00335	50		 push	 eax
  00336	8b 4d bc	 mov	 ecx, DWORD PTR _type$2[ebp]
  00339	51		 push	 ecx
  0033a	6a 00		 push	 0
  0033c	e8 00 00 00 00	 call	 ?unpack_vec3d@@YGXPAUENTITY@@W4VEC3D_TYPES@@PAUVEC3D@@@Z ; unpack_vec3d

; 758  : 
; 759  : 				num_bytes += set_list_item (buffer, double, v.x);

  00341	8b 45 08	 mov	 eax, DWORD PTR _buffer$[ebp]
  00344	83 c0 08	 add	 eax, 8
  00347	89 45 08	 mov	 DWORD PTR _buffer$[ebp], eax
  0034a	f3 0f 5a 45 b0	 cvtss2sd xmm0, DWORD PTR _v$1[ebp]
  0034f	8b 4d 08	 mov	 ecx, DWORD PTR _buffer$[ebp]
  00352	f2 0f 11 41 f8	 movsd	 QWORD PTR [ecx-8], xmm0
  00357	8b 55 fc	 mov	 edx, DWORD PTR _num_bytes$[ebp]
  0035a	83 c2 08	 add	 edx, 8
  0035d	89 55 fc	 mov	 DWORD PTR _num_bytes$[ebp], edx

; 760  : 
; 761  : 				num_bytes += set_list_item (buffer, double, v.y);

  00360	8b 45 08	 mov	 eax, DWORD PTR _buffer$[ebp]
  00363	83 c0 08	 add	 eax, 8
  00366	89 45 08	 mov	 DWORD PTR _buffer$[ebp], eax
  00369	f3 0f 5a 45 b4	 cvtss2sd xmm0, DWORD PTR _v$1[ebp+4]
  0036e	8b 4d 08	 mov	 ecx, DWORD PTR _buffer$[ebp]
  00371	f2 0f 11 41 f8	 movsd	 QWORD PTR [ecx-8], xmm0
  00376	8b 55 fc	 mov	 edx, DWORD PTR _num_bytes$[ebp]
  00379	83 c2 08	 add	 edx, 8
  0037c	89 55 fc	 mov	 DWORD PTR _num_bytes$[ebp], edx

; 762  : 
; 763  : 				num_bytes += set_list_item (buffer, double, v.z);

  0037f	8b 45 08	 mov	 eax, DWORD PTR _buffer$[ebp]
  00382	83 c0 08	 add	 eax, 8
  00385	89 45 08	 mov	 DWORD PTR _buffer$[ebp], eax
  00388	f3 0f 5a 45 b8	 cvtss2sd xmm0, DWORD PTR _v$1[ebp+8]
  0038d	8b 4d 08	 mov	 ecx, DWORD PTR _buffer$[ebp]
  00390	f2 0f 11 41 f8	 movsd	 QWORD PTR [ecx-8], xmm0
  00395	8b 55 fc	 mov	 edx, DWORD PTR _num_bytes$[ebp]
  00398	83 c2 08	 add	 edx, 8
  0039b	89 55 fc	 mov	 DWORD PTR _num_bytes$[ebp], edx

; 764  : 
; 765  : 				break;

  0039e	eb 11		 jmp	 SHORT $LN4@unpack_ent
$LN17@unpack_ent:

; 766  : 			}
; 767  : 			////////////////////////////////////////
; 768  : 			default:
; 769  : 			////////////////////////////////////////
; 770  : 			{
; 771  : 				debug_fatal ("Invalid entity attribute = %d", attr);

  003a0	8b 45 f8	 mov	 eax, DWORD PTR _attr$[ebp]
  003a3	50		 push	 eax
  003a4	68 00 00 00 00	 push	 OFFSET ??_C@_0BO@NPHHLKPA@Invalid?5entity?5attribute?5?$DN?5?$CFd@
  003a9	e8 00 00 00 00	 call	 ?debug_fatal@@YAXPBDZZ	; debug_fatal
  003ae	83 c4 08	 add	 esp, 8
$LN4@unpack_ent:

; 772  : 
; 773  : 				break;
; 774  : 			}
; 775  : 		}
; 776  : 	}

  003b1	e9 7b fc ff ff	 jmp	 $LN2@unpack_ent
$LN3@unpack_ent:

; 777  : }

  003b6	5f		 pop	 edi
  003b7	5e		 pop	 esi
  003b8	5b		 pop	 ebx
  003b9	8b e5		 mov	 esp, ebp
  003bb	5d		 pop	 ebp
  003bc	c2 04 00	 ret	 4
  003bf	90		 npad	 1
$LN19@unpack_ent:
  003c0	00 00 00 00	 DD	 $LN7@unpack_ent
  003c4	00 00 00 00	 DD	 $LN8@unpack_ent
  003c8	00 00 00 00	 DD	 $LN9@unpack_ent
  003cc	00 00 00 00	 DD	 $LN10@unpack_ent
  003d0	00 00 00 00	 DD	 $LN11@unpack_ent
  003d4	00 00 00 00	 DD	 $LN12@unpack_ent
  003d8	00 00 00 00	 DD	 $LN13@unpack_ent
  003dc	00 00 00 00	 DD	 $LN14@unpack_ent
  003e0	00 00 00 00	 DD	 $LN15@unpack_ent
  003e4	00 00 00 00	 DD	 $LN16@unpack_ent
?unpack_entity_attributes@@YGHPAD@Z ENDP		; unpack_entity_attributes
_TEXT	ENDS
; Function compile flags: /Odtp /ZI
; File c:\users\nhv90\projects\eech\aphavoc\source\entity\system\en_attrs\en_attrs.c
;	COMDAT ?pack_entity_attributes@@YGXPBD@Z
_TEXT	SEGMENT
tv73 = -148						; size = 4
_v$1 = -80						; size = 12
_type$2 = -68						; size = 4
_s$3 = -64						; size = 4
_type$4 = -60						; size = 4
_parent$5 = -56						; size = 4
_type$6 = -52						; size = 4
_value$7 = -48						; size = 4
_type$8 = -44						; size = 4
_value$9 = -40						; size = 4
_type$10 = -36						; size = 4
_child_pred$11 = -32					; size = 4
_type$12 = -28						; size = 4
_value$13 = -21						; size = 1
_type$14 = -20						; size = 4
_roll$15 = -16						; size = 4
_pitch$16 = -12						; size = 4
_heading$17 = -8					; size = 4
_attr$ = -4						; size = 4
_buffer$ = 8						; size = 4
?pack_entity_attributes@@YGXPBD@Z PROC			; pack_entity_attributes, COMDAT

; 358  : {

  00000	55		 push	 ebp
  00001	8b ec		 mov	 ebp, esp
  00003	81 ec 94 00 00
	00		 sub	 esp, 148		; 00000094H
  00009	53		 push	 ebx
  0000a	56		 push	 esi
  0000b	57		 push	 edi

; 359  : 	entity_attributes
; 360  : 		attr;
; 361  : 
; 362  : 	ASSERT (buffer);

  0000c	83 7d 08 00	 cmp	 DWORD PTR _buffer$[ebp], 0
  00010	75 18		 jne	 SHORT $LN6@pack_entit
  00012	a1 00 00 00 00	 mov	 eax, DWORD PTR ?__LINE__Var@?0??pack_entity_attributes@@YGXPBD@Z@4JA
  00017	83 c0 04	 add	 eax, 4
  0001a	50		 push	 eax
  0001b	68 00 00 00 00	 push	 OFFSET ??_C@_0EO@GJKLLMAP@c?3?2users?2nhv90?2projects?2eech?2ap@
  00020	68 00 00 00 00	 push	 OFFSET ??_C@_06HOHPNJLC@buffer@
  00025	e8 00 00 00 00	 call	 ?process_assert@@YGXPBD0H@Z ; process_assert
$LN6@pack_entit:

; 363  : 
; 364  : 	while (TRUE)

  0002a	b8 01 00 00 00	 mov	 eax, 1
  0002f	85 c0		 test	 eax, eax
  00031	0f 84 d6 02 00
	00		 je	 $LN3@pack_entit

; 365  : 	{
; 366  : 		attr = get_list_item (buffer, entity_attributes);

  00037	8b 45 08	 mov	 eax, DWORD PTR _buffer$[ebp]
  0003a	83 c0 04	 add	 eax, 4
  0003d	89 45 08	 mov	 DWORD PTR _buffer$[ebp], eax
  00040	8b 4d 08	 mov	 ecx, DWORD PTR _buffer$[ebp]
  00043	8b 51 fc	 mov	 edx, DWORD PTR [ecx-4]
  00046	89 55 fc	 mov	 DWORD PTR _attr$[ebp], edx

; 367  : 
; 368  : 		pack_entity_attribute (attr);

  00049	8b 45 fc	 mov	 eax, DWORD PTR _attr$[ebp]
  0004c	50		 push	 eax
  0004d	e8 00 00 00 00	 call	 ?pack_entity_attribute@@YGXW4ENTITY_ATTRIBUTES@@@Z ; pack_entity_attribute

; 369  : 
; 370  : 		switch (attr)

  00052	8b 45 fc	 mov	 eax, DWORD PTR _attr$[ebp]
  00055	89 85 6c ff ff
	ff		 mov	 DWORD PTR tv73[ebp], eax
  0005b	83 bd 6c ff ff
	ff 09		 cmp	 DWORD PTR tv73[ebp], 9
  00062	0f 87 8f 02 00
	00		 ja	 $LN17@pack_entit
  00068	8b 8d 6c ff ff
	ff		 mov	 ecx, DWORD PTR tv73[ebp]
  0006e	ff 24 8d 00 00
	00 00		 jmp	 DWORD PTR $LN19@pack_entit[ecx*4]
$LN7@pack_entit:

; 371  : 		{
; 372  : 			////////////////////////////////////////
; 373  : 			case entity_attr_end:
; 374  : 			////////////////////////////////////////
; 375  : 			{
; 376  : 				return;

  00075	e9 93 02 00 00	 jmp	 $LN1@pack_entit
$LN8@pack_entit:

; 377  : 			}
; 378  : 			////////////////////////////////////////
; 379  : 			case entity_attr_attitude_angles:
; 380  : 			////////////////////////////////////////
; 381  : 			{
; 382  : 				float
; 383  : 					heading,
; 384  : 					pitch,
; 385  : 					roll;
; 386  : 
; 387  : 				heading = get_list_item (buffer, double);

  0007a	8b 45 08	 mov	 eax, DWORD PTR _buffer$[ebp]
  0007d	83 c0 08	 add	 eax, 8
  00080	89 45 08	 mov	 DWORD PTR _buffer$[ebp], eax
  00083	8b 4d 08	 mov	 ecx, DWORD PTR _buffer$[ebp]
  00086	f2 0f 5a 41 f8	 cvtsd2ss xmm0, QWORD PTR [ecx-8]
  0008b	f3 0f 11 45 f8	 movss	 DWORD PTR _heading$17[ebp], xmm0

; 388  : 
; 389  : 				pitch = get_list_item (buffer, double);

  00090	8b 45 08	 mov	 eax, DWORD PTR _buffer$[ebp]
  00093	83 c0 08	 add	 eax, 8
  00096	89 45 08	 mov	 DWORD PTR _buffer$[ebp], eax
  00099	8b 4d 08	 mov	 ecx, DWORD PTR _buffer$[ebp]
  0009c	f2 0f 5a 41 f8	 cvtsd2ss xmm0, QWORD PTR [ecx-8]
  000a1	f3 0f 11 45 f4	 movss	 DWORD PTR _pitch$16[ebp], xmm0

; 390  : 
; 391  : 				roll = get_list_item (buffer, double);

  000a6	8b 45 08	 mov	 eax, DWORD PTR _buffer$[ebp]
  000a9	83 c0 08	 add	 eax, 8
  000ac	89 45 08	 mov	 DWORD PTR _buffer$[ebp], eax
  000af	8b 4d 08	 mov	 ecx, DWORD PTR _buffer$[ebp]
  000b2	f2 0f 5a 41 f8	 cvtsd2ss xmm0, QWORD PTR [ecx-8]
  000b7	f3 0f 11 45 f0	 movss	 DWORD PTR _roll$15[ebp], xmm0

; 392  : 
; 393  : 				pack_attitude_angles (NULL, heading, pitch, roll);

  000bc	51		 push	 ecx
  000bd	f3 0f 10 45 f0	 movss	 xmm0, DWORD PTR _roll$15[ebp]
  000c2	f3 0f 11 04 24	 movss	 DWORD PTR [esp], xmm0
  000c7	51		 push	 ecx
  000c8	f3 0f 10 45 f4	 movss	 xmm0, DWORD PTR _pitch$16[ebp]
  000cd	f3 0f 11 04 24	 movss	 DWORD PTR [esp], xmm0
  000d2	51		 push	 ecx
  000d3	f3 0f 10 45 f8	 movss	 xmm0, DWORD PTR _heading$17[ebp]
  000d8	f3 0f 11 04 24	 movss	 DWORD PTR [esp], xmm0
  000dd	6a 00		 push	 0
  000df	e8 00 00 00 00	 call	 ?pack_attitude_angles@@YGXPAUENTITY@@MMM@Z ; pack_attitude_angles

; 394  : 
; 395  : 				break;

  000e4	e9 1f 02 00 00	 jmp	 $LN4@pack_entit
$LN9@pack_entit:

; 396  : 			}
; 397  : 			////////////////////////////////////////
; 398  : 			case entity_attr_char_value:
; 399  : 			////////////////////////////////////////
; 400  : 			{
; 401  : 				char_types
; 402  : 					type;
; 403  : 
; 404  : 				char
; 405  : 					value;
; 406  : 
; 407  : 				type = get_list_item (buffer, char_types);

  000e9	8b 45 08	 mov	 eax, DWORD PTR _buffer$[ebp]
  000ec	83 c0 04	 add	 eax, 4
  000ef	89 45 08	 mov	 DWORD PTR _buffer$[ebp], eax
  000f2	8b 4d 08	 mov	 ecx, DWORD PTR _buffer$[ebp]
  000f5	8b 51 fc	 mov	 edx, DWORD PTR [ecx-4]
  000f8	89 55 ec	 mov	 DWORD PTR _type$14[ebp], edx

; 408  : 
; 409  : 				pack_char_type (type);

  000fb	8b 45 ec	 mov	 eax, DWORD PTR _type$14[ebp]
  000fe	50		 push	 eax
  000ff	e8 00 00 00 00	 call	 ?pack_char_type@@YGXW4CHAR_TYPES@@@Z ; pack_char_type

; 410  : 
; 411  : 				value = get_list_item (buffer, int);

  00104	8b 45 08	 mov	 eax, DWORD PTR _buffer$[ebp]
  00107	83 c0 04	 add	 eax, 4
  0010a	89 45 08	 mov	 DWORD PTR _buffer$[ebp], eax
  0010d	8b 4d 08	 mov	 ecx, DWORD PTR _buffer$[ebp]
  00110	8a 51 fc	 mov	 dl, BYTE PTR [ecx-4]
  00113	88 55 eb	 mov	 BYTE PTR _value$13[ebp], dl

; 412  : 
; 413  : 				pack_char_value (NULL, type, value);

  00116	0f b6 45 eb	 movzx	 eax, BYTE PTR _value$13[ebp]
  0011a	50		 push	 eax
  0011b	8b 4d ec	 mov	 ecx, DWORD PTR _type$14[ebp]
  0011e	51		 push	 ecx
  0011f	6a 00		 push	 0
  00121	e8 00 00 00 00	 call	 ?pack_char_value@@YGXPAUENTITY@@W4CHAR_TYPES@@D@Z ; pack_char_value

; 414  : 
; 415  : 				break;

  00126	e9 dd 01 00 00	 jmp	 $LN4@pack_entit
$LN10@pack_entit:

; 416  : 			}
; 417  : 			////////////////////////////////////////
; 418  : 			case entity_attr_child_pred:
; 419  : 			////////////////////////////////////////
; 420  : 			{
; 421  : 				list_types
; 422  : 					type;
; 423  : 
; 424  : 				entity
; 425  : 					*child_pred;
; 426  : 
; 427  : 				type = get_list_item (buffer, list_types);

  0012b	8b 45 08	 mov	 eax, DWORD PTR _buffer$[ebp]
  0012e	83 c0 04	 add	 eax, 4
  00131	89 45 08	 mov	 DWORD PTR _buffer$[ebp], eax
  00134	8b 4d 08	 mov	 ecx, DWORD PTR _buffer$[ebp]
  00137	8b 51 fc	 mov	 edx, DWORD PTR [ecx-4]
  0013a	89 55 e4	 mov	 DWORD PTR _type$12[ebp], edx

; 428  : 
; 429  : 				pack_list_type (type);

  0013d	8b 45 e4	 mov	 eax, DWORD PTR _type$12[ebp]
  00140	50		 push	 eax
  00141	e8 00 00 00 00	 call	 ?pack_list_type@@YGXW4LIST_TYPES@@@Z ; pack_list_type

; 430  : 
; 431  : 				child_pred = get_list_item (buffer, entity *);

  00146	8b 45 08	 mov	 eax, DWORD PTR _buffer$[ebp]
  00149	83 c0 04	 add	 eax, 4
  0014c	89 45 08	 mov	 DWORD PTR _buffer$[ebp], eax
  0014f	8b 4d 08	 mov	 ecx, DWORD PTR _buffer$[ebp]
  00152	8b 51 fc	 mov	 edx, DWORD PTR [ecx-4]
  00155	89 55 e0	 mov	 DWORD PTR _child_pred$11[ebp], edx

; 432  : 
; 433  : 				pack_entity_safe_ptr (child_pred);

  00158	8b 45 e0	 mov	 eax, DWORD PTR _child_pred$11[ebp]
  0015b	50		 push	 eax
  0015c	e8 00 00 00 00	 call	 ?pack_entity_safe_ptr@@YGXPAUENTITY@@@Z ; pack_entity_safe_ptr

; 434  : 
; 435  : 				break;

  00161	e9 a2 01 00 00	 jmp	 $LN4@pack_entit
$LN11@pack_entit:

; 436  : 			}
; 437  : 			////////////////////////////////////////
; 438  : 			case entity_attr_float_value:
; 439  : 			////////////////////////////////////////
; 440  : 			{
; 441  : 				float_types
; 442  : 					type;
; 443  : 
; 444  : 				float
; 445  : 					value;
; 446  : 
; 447  : 				type = get_list_item (buffer, float_types);

  00166	8b 45 08	 mov	 eax, DWORD PTR _buffer$[ebp]
  00169	83 c0 04	 add	 eax, 4
  0016c	89 45 08	 mov	 DWORD PTR _buffer$[ebp], eax
  0016f	8b 4d 08	 mov	 ecx, DWORD PTR _buffer$[ebp]
  00172	8b 51 fc	 mov	 edx, DWORD PTR [ecx-4]
  00175	89 55 dc	 mov	 DWORD PTR _type$10[ebp], edx

; 448  : 
; 449  : 				pack_float_type (type);

  00178	8b 45 dc	 mov	 eax, DWORD PTR _type$10[ebp]
  0017b	50		 push	 eax
  0017c	e8 00 00 00 00	 call	 ?pack_float_type@@YGXW4FLOAT_TYPES@@@Z ; pack_float_type

; 450  : 
; 451  : 				value = get_list_item (buffer, double);

  00181	8b 45 08	 mov	 eax, DWORD PTR _buffer$[ebp]
  00184	83 c0 08	 add	 eax, 8
  00187	89 45 08	 mov	 DWORD PTR _buffer$[ebp], eax
  0018a	8b 4d 08	 mov	 ecx, DWORD PTR _buffer$[ebp]
  0018d	f2 0f 5a 41 f8	 cvtsd2ss xmm0, QWORD PTR [ecx-8]
  00192	f3 0f 11 45 d8	 movss	 DWORD PTR _value$9[ebp], xmm0

; 452  : 
; 453  : 				pack_float_value (NULL, type, value);

  00197	51		 push	 ecx
  00198	f3 0f 10 45 d8	 movss	 xmm0, DWORD PTR _value$9[ebp]
  0019d	f3 0f 11 04 24	 movss	 DWORD PTR [esp], xmm0
  001a2	8b 45 dc	 mov	 eax, DWORD PTR _type$10[ebp]
  001a5	50		 push	 eax
  001a6	6a 00		 push	 0
  001a8	e8 00 00 00 00	 call	 ?pack_float_value@@YGXPAUENTITY@@W4FLOAT_TYPES@@M@Z ; pack_float_value

; 454  : 
; 455  : 				break;

  001ad	e9 56 01 00 00	 jmp	 $LN4@pack_entit
$LN12@pack_entit:

; 456  : 			}
; 457  : 			////////////////////////////////////////
; 458  : 			case entity_attr_int_value:
; 459  : 			////////////////////////////////////////
; 460  : 			{
; 461  : 				int_types
; 462  : 					type;
; 463  : 
; 464  : 				int
; 465  : 					value;
; 466  : 
; 467  : 				type = get_list_item (buffer, int_types);

  001b2	8b 45 08	 mov	 eax, DWORD PTR _buffer$[ebp]
  001b5	83 c0 04	 add	 eax, 4
  001b8	89 45 08	 mov	 DWORD PTR _buffer$[ebp], eax
  001bb	8b 4d 08	 mov	 ecx, DWORD PTR _buffer$[ebp]
  001be	8b 51 fc	 mov	 edx, DWORD PTR [ecx-4]
  001c1	89 55 d4	 mov	 DWORD PTR _type$8[ebp], edx

; 468  : 
; 469  : 				pack_int_type (type);

  001c4	8b 45 d4	 mov	 eax, DWORD PTR _type$8[ebp]
  001c7	50		 push	 eax
  001c8	e8 00 00 00 00	 call	 ?pack_int_type@@YGXW4INT_TYPES@@@Z ; pack_int_type

; 470  : 
; 471  : 				value = get_list_item (buffer, int);

  001cd	8b 45 08	 mov	 eax, DWORD PTR _buffer$[ebp]
  001d0	83 c0 04	 add	 eax, 4
  001d3	89 45 08	 mov	 DWORD PTR _buffer$[ebp], eax
  001d6	8b 4d 08	 mov	 ecx, DWORD PTR _buffer$[ebp]
  001d9	8b 51 fc	 mov	 edx, DWORD PTR [ecx-4]
  001dc	89 55 d0	 mov	 DWORD PTR _value$7[ebp], edx

; 472  : 
; 473  : 				pack_int_value (NULL, type, value);

  001df	8b 45 d0	 mov	 eax, DWORD PTR _value$7[ebp]
  001e2	50		 push	 eax
  001e3	8b 4d d4	 mov	 ecx, DWORD PTR _type$8[ebp]
  001e6	51		 push	 ecx
  001e7	6a 00		 push	 0
  001e9	e8 00 00 00 00	 call	 ?pack_int_value@@YGXPAUENTITY@@W4INT_TYPES@@H@Z ; pack_int_value

; 474  : 
; 475  : 				break;

  001ee	e9 15 01 00 00	 jmp	 $LN4@pack_entit
$LN13@pack_entit:

; 476  : 			}
; 477  : 			////////////////////////////////////////
; 478  : 			case entity_attr_parent:
; 479  : 			////////////////////////////////////////
; 480  : 			{
; 481  : 				list_types
; 482  : 					type;
; 483  : 
; 484  : 				entity
; 485  : 					*parent;
; 486  : 
; 487  : 				type = get_list_item (buffer, list_types);

  001f3	8b 45 08	 mov	 eax, DWORD PTR _buffer$[ebp]
  001f6	83 c0 04	 add	 eax, 4
  001f9	89 45 08	 mov	 DWORD PTR _buffer$[ebp], eax
  001fc	8b 4d 08	 mov	 ecx, DWORD PTR _buffer$[ebp]
  001ff	8b 51 fc	 mov	 edx, DWORD PTR [ecx-4]
  00202	89 55 cc	 mov	 DWORD PTR _type$6[ebp], edx

; 488  : 
; 489  : 				pack_list_type (type);

  00205	8b 45 cc	 mov	 eax, DWORD PTR _type$6[ebp]
  00208	50		 push	 eax
  00209	e8 00 00 00 00	 call	 ?pack_list_type@@YGXW4LIST_TYPES@@@Z ; pack_list_type

; 490  : 
; 491  : 				parent = get_list_item (buffer, entity *);

  0020e	8b 45 08	 mov	 eax, DWORD PTR _buffer$[ebp]
  00211	83 c0 04	 add	 eax, 4
  00214	89 45 08	 mov	 DWORD PTR _buffer$[ebp], eax
  00217	8b 4d 08	 mov	 ecx, DWORD PTR _buffer$[ebp]
  0021a	8b 51 fc	 mov	 edx, DWORD PTR [ecx-4]
  0021d	89 55 c8	 mov	 DWORD PTR _parent$5[ebp], edx

; 492  : 
; 493  : 				pack_entity_safe_ptr (parent);

  00220	8b 45 c8	 mov	 eax, DWORD PTR _parent$5[ebp]
  00223	50		 push	 eax
  00224	e8 00 00 00 00	 call	 ?pack_entity_safe_ptr@@YGXPAUENTITY@@@Z ; pack_entity_safe_ptr

; 494  : 
; 495  : 				break;

  00229	e9 da 00 00 00	 jmp	 $LN4@pack_entit
$LN14@pack_entit:

; 496  : 			}
; 497  : 			////////////////////////////////////////
; 498  : 			case entity_attr_ptr_value:
; 499  : 			////////////////////////////////////////
; 500  : 			{
; 501  : 				debug_fatal ("Cannot pack entity attribute = %s", get_entity_attribute_name (attr));

  0022e	8b 45 fc	 mov	 eax, DWORD PTR _attr$[ebp]
  00231	8b 0c c5 00 00
	00 00		 mov	 ecx, DWORD PTR ?entity_attribute_database@@3PAUENTITY_ATTRIBUTE_DATA@@A[eax*8]
  00238	51		 push	 ecx
  00239	68 00 00 00 00	 push	 OFFSET ??_C@_0CC@FBEOHMKE@Cannot?5pack?5entity?5attribute?5?$DN?5@
  0023e	e8 00 00 00 00	 call	 ?debug_fatal@@YAXPBDZZ	; debug_fatal
  00243	83 c4 08	 add	 esp, 8

; 502  : 
; 503  : 				break;

  00246	e9 bd 00 00 00	 jmp	 $LN4@pack_entit
$LN15@pack_entit:

; 504  : 			}
; 505  : 			////////////////////////////////////////
; 506  : 			case entity_attr_string:
; 507  : 			////////////////////////////////////////
; 508  : 			{
; 509  : 				string_types
; 510  : 					type;
; 511  : 
; 512  : 				const char
; 513  : 					*s;
; 514  : 
; 515  : 				type = get_list_item (buffer, string_types);

  0024b	8b 45 08	 mov	 eax, DWORD PTR _buffer$[ebp]
  0024e	83 c0 04	 add	 eax, 4
  00251	89 45 08	 mov	 DWORD PTR _buffer$[ebp], eax
  00254	8b 4d 08	 mov	 ecx, DWORD PTR _buffer$[ebp]
  00257	8b 51 fc	 mov	 edx, DWORD PTR [ecx-4]
  0025a	89 55 c4	 mov	 DWORD PTR _type$4[ebp], edx

; 516  : 
; 517  : 				pack_string_type (type);

  0025d	8b 45 c4	 mov	 eax, DWORD PTR _type$4[ebp]
  00260	50		 push	 eax
  00261	e8 00 00 00 00	 call	 ?pack_string_type@@YGXW4STRING_TYPES@@@Z ; pack_string_type

; 518  : 
; 519  : 				s = get_list_item (buffer, const char *);

  00266	8b 45 08	 mov	 eax, DWORD PTR _buffer$[ebp]
  00269	83 c0 04	 add	 eax, 4
  0026c	89 45 08	 mov	 DWORD PTR _buffer$[ebp], eax
  0026f	8b 4d 08	 mov	 ecx, DWORD PTR _buffer$[ebp]
  00272	8b 51 fc	 mov	 edx, DWORD PTR [ecx-4]
  00275	89 55 c0	 mov	 DWORD PTR _s$3[ebp], edx

; 520  : 
; 521  : 				//
; 522  : 				// pack the string contents not the string pointer
; 523  : 				//
; 524  : 
; 525  : 				pack_string (NULL, type, s);

  00278	8b 45 c0	 mov	 eax, DWORD PTR _s$3[ebp]
  0027b	50		 push	 eax
  0027c	8b 4d c4	 mov	 ecx, DWORD PTR _type$4[ebp]
  0027f	51		 push	 ecx
  00280	6a 00		 push	 0
  00282	e8 00 00 00 00	 call	 ?pack_string@@YGXPAUENTITY@@W4STRING_TYPES@@PBD@Z ; pack_string

; 526  : 
; 527  : 				break;

  00287	eb 7f		 jmp	 SHORT $LN4@pack_entit
$LN16@pack_entit:

; 528  : 			}
; 529  : 			////////////////////////////////////////
; 530  : 			case entity_attr_vec3d:
; 531  : 			////////////////////////////////////////
; 532  : 			{
; 533  : 				vec3d_types
; 534  : 					type;
; 535  : 
; 536  : 				vec3d
; 537  : 					v;
; 538  : 
; 539  : 				type = get_list_item (buffer, vec3d_types);

  00289	8b 45 08	 mov	 eax, DWORD PTR _buffer$[ebp]
  0028c	83 c0 04	 add	 eax, 4
  0028f	89 45 08	 mov	 DWORD PTR _buffer$[ebp], eax
  00292	8b 4d 08	 mov	 ecx, DWORD PTR _buffer$[ebp]
  00295	8b 51 fc	 mov	 edx, DWORD PTR [ecx-4]
  00298	89 55 bc	 mov	 DWORD PTR _type$2[ebp], edx

; 540  : 
; 541  : 				pack_vec3d_type (type);

  0029b	8b 45 bc	 mov	 eax, DWORD PTR _type$2[ebp]
  0029e	50		 push	 eax
  0029f	e8 00 00 00 00	 call	 ?pack_vec3d_type@@YGXW4VEC3D_TYPES@@@Z ; pack_vec3d_type

; 542  : 
; 543  : 				v.x = get_list_item (buffer, double);

  002a4	8b 45 08	 mov	 eax, DWORD PTR _buffer$[ebp]
  002a7	83 c0 08	 add	 eax, 8
  002aa	89 45 08	 mov	 DWORD PTR _buffer$[ebp], eax
  002ad	8b 4d 08	 mov	 ecx, DWORD PTR _buffer$[ebp]
  002b0	f2 0f 5a 41 f8	 cvtsd2ss xmm0, QWORD PTR [ecx-8]
  002b5	f3 0f 11 45 b0	 movss	 DWORD PTR _v$1[ebp], xmm0

; 544  : 
; 545  : 				v.y = get_list_item (buffer, double);

  002ba	8b 45 08	 mov	 eax, DWORD PTR _buffer$[ebp]
  002bd	83 c0 08	 add	 eax, 8
  002c0	89 45 08	 mov	 DWORD PTR _buffer$[ebp], eax
  002c3	8b 4d 08	 mov	 ecx, DWORD PTR _buffer$[ebp]
  002c6	f2 0f 5a 41 f8	 cvtsd2ss xmm0, QWORD PTR [ecx-8]
  002cb	f3 0f 11 45 b4	 movss	 DWORD PTR _v$1[ebp+4], xmm0

; 546  : 
; 547  : 				v.z = get_list_item (buffer, double);

  002d0	8b 45 08	 mov	 eax, DWORD PTR _buffer$[ebp]
  002d3	83 c0 08	 add	 eax, 8
  002d6	89 45 08	 mov	 DWORD PTR _buffer$[ebp], eax
  002d9	8b 4d 08	 mov	 ecx, DWORD PTR _buffer$[ebp]
  002dc	f2 0f 5a 41 f8	 cvtsd2ss xmm0, QWORD PTR [ecx-8]
  002e1	f3 0f 11 45 b8	 movss	 DWORD PTR _v$1[ebp+8], xmm0

; 548  : 
; 549  : 				pack_vec3d (NULL, type, &v);

  002e6	8d 45 b0	 lea	 eax, DWORD PTR _v$1[ebp]
  002e9	50		 push	 eax
  002ea	8b 4d bc	 mov	 ecx, DWORD PTR _type$2[ebp]
  002ed	51		 push	 ecx
  002ee	6a 00		 push	 0
  002f0	e8 00 00 00 00	 call	 ?pack_vec3d@@YGXPAUENTITY@@W4VEC3D_TYPES@@PAUVEC3D@@@Z ; pack_vec3d

; 550  : 
; 551  : 				break;

  002f5	eb 11		 jmp	 SHORT $LN4@pack_entit
$LN17@pack_entit:

; 552  : 			}
; 553  : 			////////////////////////////////////////
; 554  : 			default:
; 555  : 			////////////////////////////////////////
; 556  : 			{
; 557  : 				debug_fatal ("Invalid entity attribute = %d", attr);

  002f7	8b 45 fc	 mov	 eax, DWORD PTR _attr$[ebp]
  002fa	50		 push	 eax
  002fb	68 00 00 00 00	 push	 OFFSET ??_C@_0BO@NPHHLKPA@Invalid?5entity?5attribute?5?$DN?5?$CFd@
  00300	e8 00 00 00 00	 call	 ?debug_fatal@@YAXPBDZZ	; debug_fatal
  00305	83 c4 08	 add	 esp, 8
$LN4@pack_entit:

; 558  : 
; 559  : 				break;
; 560  : 			}
; 561  : 		}
; 562  : 	}

  00308	e9 1d fd ff ff	 jmp	 $LN6@pack_entit
$LN3@pack_entit:
$LN1@pack_entit:

; 563  : }

  0030d	5f		 pop	 edi
  0030e	5e		 pop	 esi
  0030f	5b		 pop	 ebx
  00310	8b e5		 mov	 esp, ebp
  00312	5d		 pop	 ebp
  00313	c2 04 00	 ret	 4
  00316	66 90		 npad	 2
$LN19@pack_entit:
  00318	00 00 00 00	 DD	 $LN7@pack_entit
  0031c	00 00 00 00	 DD	 $LN8@pack_entit
  00320	00 00 00 00	 DD	 $LN9@pack_entit
  00324	00 00 00 00	 DD	 $LN10@pack_entit
  00328	00 00 00 00	 DD	 $LN11@pack_entit
  0032c	00 00 00 00	 DD	 $LN12@pack_entit
  00330	00 00 00 00	 DD	 $LN13@pack_entit
  00334	00 00 00 00	 DD	 $LN14@pack_entit
  00338	00 00 00 00	 DD	 $LN15@pack_entit
  0033c	00 00 00 00	 DD	 $LN16@pack_entit
?pack_entity_attributes@@YGXPBD@Z ENDP			; pack_entity_attributes
_TEXT	ENDS
; Function compile flags: /Odtp /ZI
; File c:\users\nhv90\projects\eech\aphavoc\source\entity\system\en_attrs\en_attrs.c
;	COMDAT ?set_local_entity_attributes@@YGXPAUENTITY@@PAD@Z
_TEXT	SEGMENT
tv334 = -160						; size = 4
tv302 = -160						; size = 4
tv277 = -160						; size = 4
tv252 = -160						; size = 4
tv227 = -160						; size = 4
tv202 = -160						; size = 4
tv176 = -160						; size = 4
tv151 = -160						; size = 4
tv325 = -156						; size = 4
tv293 = -156						; size = 4
tv268 = -156						; size = 4
tv243 = -156						; size = 4
tv218 = -156						; size = 4
tv193 = -156						; size = 4
tv167 = -156						; size = 4
tv142 = -156						; size = 4
tv93 = -156						; size = 4
tv77 = -156						; size = 4
_v$1 = -88						; size = 12
_type$2 = -76						; size = 4
_s$3 = -72						; size = 4
_type$4 = -68						; size = 4
_ptr$5 = -64						; size = 4
_type$6 = -60						; size = 4
_parent$7 = -56						; size = 4
_type$8 = -52						; size = 4
_value$9 = -48						; size = 4
_type$10 = -44						; size = 4
_value$11 = -40						; size = 4
_type$12 = -36						; size = 4
_child_pred$13 = -32					; size = 4
_type$14 = -28						; size = 4
_value$15 = -21						; size = 1
_type$16 = -20						; size = 4
_roll$17 = -16						; size = 4
_pitch$18 = -12						; size = 4
_heading$19 = -8					; size = 4
_attr$ = -4						; size = 4
_en$ = 8						; size = 4
_pargs$ = 12						; size = 4
?set_local_entity_attributes@@YGXPAUENTITY@@PAD@Z PROC	; set_local_entity_attributes, COMDAT

; 154  : {

  00000	55		 push	 ebp
  00001	8b ec		 mov	 ebp, esp
  00003	81 ec a0 00 00
	00		 sub	 esp, 160		; 000000a0H
  00009	53		 push	 ebx
  0000a	56		 push	 esi
  0000b	57		 push	 edi

; 155  : 	entity_attributes
; 156  : 		attr;
; 157  : 
; 158  : 	ASSERT (en);

  0000c	83 7d 08 00	 cmp	 DWORD PTR _en$[ebp], 0
  00010	75 18		 jne	 SHORT $LN6@set_local_
  00012	a1 00 00 00 00	 mov	 eax, DWORD PTR ?__LINE__Var@?0??set_local_entity_attributes@@YGXPAUENTITY@@PAD@Z@4JA
  00017	83 c0 04	 add	 eax, 4
  0001a	50		 push	 eax
  0001b	68 00 00 00 00	 push	 OFFSET ??_C@_0EO@GJKLLMAP@c?3?2users?2nhv90?2projects?2eech?2ap@
  00020	68 00 00 00 00	 push	 OFFSET ??_C@_02LFNMGJAP@en@
  00025	e8 00 00 00 00	 call	 ?process_assert@@YGXPBD0H@Z ; process_assert
$LN6@set_local_:

; 159  : 
; 160  : 	ASSERT (pargs);

  0002a	83 7d 0c 00	 cmp	 DWORD PTR _pargs$[ebp], 0
  0002e	75 18		 jne	 SHORT $LN7@set_local_
  00030	a1 00 00 00 00	 mov	 eax, DWORD PTR ?__LINE__Var@?0??set_local_entity_attributes@@YGXPAUENTITY@@PAD@Z@4JA
  00035	83 c0 06	 add	 eax, 6
  00038	50		 push	 eax
  00039	68 00 00 00 00	 push	 OFFSET ??_C@_0EO@GJKLLMAP@c?3?2users?2nhv90?2projects?2eech?2ap@
  0003e	68 00 00 00 00	 push	 OFFSET ??_C@_05GJPBJCOH@pargs@
  00043	e8 00 00 00 00	 call	 ?process_assert@@YGXPBD0H@Z ; process_assert
$LN7@set_local_:

; 161  : 
; 162  : 	while (TRUE)

  00048	b8 01 00 00 00	 mov	 eax, 1
  0004d	85 c0		 test	 eax, eax
  0004f	0f 84 49 07 00
	00		 je	 $LN3@set_local_

; 163  : 	{
; 164  : 		attr = get_list_item (pargs, entity_attributes);

  00055	8b 45 0c	 mov	 eax, DWORD PTR _pargs$[ebp]
  00058	83 c0 04	 add	 eax, 4
  0005b	89 45 0c	 mov	 DWORD PTR _pargs$[ebp], eax
  0005e	8b 4d 0c	 mov	 ecx, DWORD PTR _pargs$[ebp]
  00061	8b 51 fc	 mov	 edx, DWORD PTR [ecx-4]
  00064	89 55 fc	 mov	 DWORD PTR _attr$[ebp], edx

; 165  : 
; 166  : 		switch (attr)

  00067	8b 45 fc	 mov	 eax, DWORD PTR _attr$[ebp]
  0006a	89 85 64 ff ff
	ff		 mov	 DWORD PTR tv77[ebp], eax
  00070	83 bd 64 ff ff
	ff 09		 cmp	 DWORD PTR tv77[ebp], 9
  00077	0f 87 0b 07 00
	00		 ja	 $LN18@set_local_
  0007d	8b 8d 64 ff ff
	ff		 mov	 ecx, DWORD PTR tv77[ebp]
  00083	ff 24 8d 00 00
	00 00		 jmp	 DWORD PTR $LN54@set_local_[ecx*4]
$LN8@set_local_:

; 167  : 		{
; 168  : 			////////////////////////////////////////
; 169  : 			case entity_attr_end:
; 170  : 			////////////////////////////////////////
; 171  : 			{
; 172  : 				return;

  0008a	e9 0f 07 00 00	 jmp	 $LN1@set_local_
$LN9@set_local_:

; 173  : 			}
; 174  : 			////////////////////////////////////////
; 175  : 			case entity_attr_attitude_angles:
; 176  : 			////////////////////////////////////////
; 177  : 			{
; 178  : 				float
; 179  : 					heading,
; 180  : 					pitch,
; 181  : 					roll;
; 182  : 
; 183  : 				heading = get_list_item (pargs, double);

  0008f	8b 45 0c	 mov	 eax, DWORD PTR _pargs$[ebp]
  00092	83 c0 08	 add	 eax, 8
  00095	89 45 0c	 mov	 DWORD PTR _pargs$[ebp], eax
  00098	8b 4d 0c	 mov	 ecx, DWORD PTR _pargs$[ebp]
  0009b	f2 0f 5a 41 f8	 cvtsd2ss xmm0, QWORD PTR [ecx-8]
  000a0	f3 0f 11 45 f8	 movss	 DWORD PTR _heading$19[ebp], xmm0

; 184  : 
; 185  : 				pitch = get_list_item (pargs, double);

  000a5	8b 45 0c	 mov	 eax, DWORD PTR _pargs$[ebp]
  000a8	83 c0 08	 add	 eax, 8
  000ab	89 45 0c	 mov	 DWORD PTR _pargs$[ebp], eax
  000ae	8b 4d 0c	 mov	 ecx, DWORD PTR _pargs$[ebp]
  000b1	f2 0f 5a 41 f8	 cvtsd2ss xmm0, QWORD PTR [ecx-8]
  000b6	f3 0f 11 45 f4	 movss	 DWORD PTR _pitch$18[ebp], xmm0

; 186  : 
; 187  : 				roll = get_list_item (pargs, double);

  000bb	8b 45 0c	 mov	 eax, DWORD PTR _pargs$[ebp]
  000be	83 c0 08	 add	 eax, 8
  000c1	89 45 0c	 mov	 DWORD PTR _pargs$[ebp], eax
  000c4	8b 4d 0c	 mov	 ecx, DWORD PTR _pargs$[ebp]
  000c7	f2 0f 5a 41 f8	 cvtsd2ss xmm0, QWORD PTR [ecx-8]
  000cc	f3 0f 11 45 f0	 movss	 DWORD PTR _roll$17[ebp], xmm0

; 188  : 
; 189  : 				set_local_entity_raw_attitude_angles (en, heading, pitch, roll);

  000d1	83 7d 08 00	 cmp	 DWORD PTR _en$[ebp], 0
  000d5	74 0d		 je	 SHORT $LN20@set_local_
  000d7	8b 45 08	 mov	 eax, DWORD PTR _en$[ebp]
  000da	8b 08		 mov	 ecx, DWORD PTR [eax]
  000dc	89 8d 64 ff ff
	ff		 mov	 DWORD PTR tv93[ebp], ecx
  000e2	eb 24		 jmp	 SHORT $LN21@set_local_
$LN20@set_local_:
  000e4	8b 15 00 00 00
	00		 mov	 edx, DWORD PTR ?__LINE__Var@?0??set_local_entity_attributes@@YGXPAUENTITY@@PAD@Z@4JA
  000ea	83 c2 23	 add	 edx, 35			; 00000023H
  000ed	52		 push	 edx
  000ee	68 00 00 00 00	 push	 OFFSET ??_C@_0EO@GJKLLMAP@c?3?2users?2nhv90?2projects?2eech?2ap@
  000f3	a1 00 00 00 00	 mov	 eax, DWORD PTR ?null_entity_pointer_message@@3PBDB ; null_entity_pointer_message
  000f8	50		 push	 eax
  000f9	e8 00 00 00 00	 call	 ?process_assert@@YGXPBD0H@Z ; process_assert
  000fe	c7 85 64 ff ff
	ff 00 00 00 00	 mov	 DWORD PTR tv93[ebp], 0
$LN21@set_local_:
  00108	51		 push	 ecx
  00109	f3 0f 10 45 f0	 movss	 xmm0, DWORD PTR _roll$17[ebp]
  0010e	f3 0f 11 04 24	 movss	 DWORD PTR [esp], xmm0
  00113	51		 push	 ecx
  00114	f3 0f 10 45 f4	 movss	 xmm0, DWORD PTR _pitch$18[ebp]
  00119	f3 0f 11 04 24	 movss	 DWORD PTR [esp], xmm0
  0011e	51		 push	 ecx
  0011f	f3 0f 10 45 f8	 movss	 xmm0, DWORD PTR _heading$19[ebp]
  00124	f3 0f 11 04 24	 movss	 DWORD PTR [esp], xmm0
  00129	8b 4d 08	 mov	 ecx, DWORD PTR _en$[ebp]
  0012c	51		 push	 ecx
  0012d	8b 95 64 ff ff
	ff		 mov	 edx, DWORD PTR tv93[ebp]
  00133	8b 04 95 00 00
	00 00		 mov	 eax, DWORD PTR ?fn_set_local_entity_raw_attitude_angles@@3PAP6GXPAUENTITY@@MMM@ZA[edx*4]
  0013a	ff d0		 call	 eax

; 190  : 
; 191  : 				break;

  0013c	e9 58 06 00 00	 jmp	 $LN4@set_local_
$LN10@set_local_:

; 192  : 			}
; 193  : 			////////////////////////////////////////
; 194  : 			case entity_attr_char_value:
; 195  : 			////////////////////////////////////////
; 196  : 			{
; 197  : 				char_types
; 198  : 					type;
; 199  : 
; 200  : 				char
; 201  : 					value;
; 202  : 
; 203  : 				type = get_list_item (pargs, char_types);

  00141	8b 45 0c	 mov	 eax, DWORD PTR _pargs$[ebp]
  00144	83 c0 04	 add	 eax, 4
  00147	89 45 0c	 mov	 DWORD PTR _pargs$[ebp], eax
  0014a	8b 4d 0c	 mov	 ecx, DWORD PTR _pargs$[ebp]
  0014d	8b 51 fc	 mov	 edx, DWORD PTR [ecx-4]
  00150	89 55 ec	 mov	 DWORD PTR _type$16[ebp], edx

; 204  : 
; 205  : 				value = get_list_item (pargs, int);

  00153	8b 45 0c	 mov	 eax, DWORD PTR _pargs$[ebp]
  00156	83 c0 04	 add	 eax, 4
  00159	89 45 0c	 mov	 DWORD PTR _pargs$[ebp], eax
  0015c	8b 4d 0c	 mov	 ecx, DWORD PTR _pargs$[ebp]
  0015f	8a 51 fc	 mov	 dl, BYTE PTR [ecx-4]
  00162	88 55 eb	 mov	 BYTE PTR _value$15[ebp], dl

; 206  : 
; 207  : 				set_local_entity_raw_char_value (en, type, value);

  00165	83 7d 08 00	 cmp	 DWORD PTR _en$[ebp], 0
  00169	74 0d		 je	 SHORT $LN22@set_local_
  0016b	8b 45 08	 mov	 eax, DWORD PTR _en$[ebp]
  0016e	8b 08		 mov	 ecx, DWORD PTR [eax]
  00170	89 8d 64 ff ff
	ff		 mov	 DWORD PTR tv142[ebp], ecx
  00176	eb 24		 jmp	 SHORT $LN23@set_local_
$LN22@set_local_:
  00178	8b 15 00 00 00
	00		 mov	 edx, DWORD PTR ?__LINE__Var@?0??set_local_entity_attributes@@YGXPAUENTITY@@PAD@Z@4JA
  0017e	83 c2 35	 add	 edx, 53			; 00000035H
  00181	52		 push	 edx
  00182	68 00 00 00 00	 push	 OFFSET ??_C@_0EO@GJKLLMAP@c?3?2users?2nhv90?2projects?2eech?2ap@
  00187	a1 00 00 00 00	 mov	 eax, DWORD PTR ?null_entity_pointer_message@@3PBDB ; null_entity_pointer_message
  0018c	50		 push	 eax
  0018d	e8 00 00 00 00	 call	 ?process_assert@@YGXPBD0H@Z ; process_assert
  00192	c7 85 64 ff ff
	ff 00 00 00 00	 mov	 DWORD PTR tv142[ebp], 0
$LN23@set_local_:
  0019c	83 7d ec 00	 cmp	 DWORD PTR _type$16[ebp], 0
  001a0	7c 11		 jl	 SHORT $LN24@set_local_
  001a2	83 7d ec 02	 cmp	 DWORD PTR _type$16[ebp], 2
  001a6	7d 0b		 jge	 SHORT $LN24@set_local_
  001a8	8b 4d ec	 mov	 ecx, DWORD PTR _type$16[ebp]
  001ab	89 8d 60 ff ff
	ff		 mov	 DWORD PTR tv151[ebp], ecx
  001b1	eb 24		 jmp	 SHORT $LN25@set_local_
$LN24@set_local_:
  001b3	8b 15 00 00 00
	00		 mov	 edx, DWORD PTR ?__LINE__Var@?0??set_local_entity_attributes@@YGXPAUENTITY@@PAD@Z@4JA
  001b9	83 c2 35	 add	 edx, 53			; 00000035H
  001bc	52		 push	 edx
  001bd	68 00 00 00 00	 push	 OFFSET ??_C@_0EO@GJKLLMAP@c?3?2users?2nhv90?2projects?2eech?2ap@
  001c2	a1 00 00 00 00	 mov	 eax, DWORD PTR ?overload_invalid_char_type_message@@3PBDB ; overload_invalid_char_type_message
  001c7	50		 push	 eax
  001c8	e8 00 00 00 00	 call	 ?process_assert@@YGXPBD0H@Z ; process_assert
  001cd	c7 85 60 ff ff
	ff 00 00 00 00	 mov	 DWORD PTR tv151[ebp], 0
$LN25@set_local_:
  001d7	0f b6 4d eb	 movzx	 ecx, BYTE PTR _value$15[ebp]
  001db	51		 push	 ecx
  001dc	8b 55 ec	 mov	 edx, DWORD PTR _type$16[ebp]
  001df	52		 push	 edx
  001e0	8b 45 08	 mov	 eax, DWORD PTR _en$[ebp]
  001e3	50		 push	 eax
  001e4	8b 8d 60 ff ff
	ff		 mov	 ecx, DWORD PTR tv151[ebp]
  001ea	c1 e1 02	 shl	 ecx, 2
  001ed	8b 95 64 ff ff
	ff		 mov	 edx, DWORD PTR tv142[ebp]
  001f3	8b 84 d1 00 00
	00 00		 mov	 eax, DWORD PTR ?fn_set_local_entity_raw_char_value@@3PAY01P6GXPAUENTITY@@W4CHAR_TYPES@@D@ZA[ecx+edx*8]
  001fa	ff d0		 call	 eax

; 208  : 
; 209  : 				break;

  001fc	e9 98 05 00 00	 jmp	 $LN4@set_local_
$LN11@set_local_:

; 210  : 			}
; 211  : 			////////////////////////////////////////
; 212  : 			case entity_attr_child_pred:
; 213  : 			////////////////////////////////////////
; 214  : 			{
; 215  : 				list_types
; 216  : 					type;
; 217  : 
; 218  : 				entity
; 219  : 					*child_pred;
; 220  : 
; 221  : 				type = get_list_item (pargs, list_types);

  00201	8b 45 0c	 mov	 eax, DWORD PTR _pargs$[ebp]
  00204	83 c0 04	 add	 eax, 4
  00207	89 45 0c	 mov	 DWORD PTR _pargs$[ebp], eax
  0020a	8b 4d 0c	 mov	 ecx, DWORD PTR _pargs$[ebp]
  0020d	8b 51 fc	 mov	 edx, DWORD PTR [ecx-4]
  00210	89 55 e4	 mov	 DWORD PTR _type$14[ebp], edx

; 222  : 
; 223  : 				child_pred = get_list_item (pargs, entity *);

  00213	8b 45 0c	 mov	 eax, DWORD PTR _pargs$[ebp]
  00216	83 c0 04	 add	 eax, 4
  00219	89 45 0c	 mov	 DWORD PTR _pargs$[ebp], eax
  0021c	8b 4d 0c	 mov	 ecx, DWORD PTR _pargs$[ebp]
  0021f	8b 51 fc	 mov	 edx, DWORD PTR [ecx-4]
  00222	89 55 e0	 mov	 DWORD PTR _child_pred$13[ebp], edx

; 224  : 
; 225  : 				set_local_entity_child_pred (en, type, child_pred);

  00225	83 7d 08 00	 cmp	 DWORD PTR _en$[ebp], 0
  00229	74 0d		 je	 SHORT $LN26@set_local_
  0022b	8b 45 08	 mov	 eax, DWORD PTR _en$[ebp]
  0022e	8b 08		 mov	 ecx, DWORD PTR [eax]
  00230	89 8d 64 ff ff
	ff		 mov	 DWORD PTR tv167[ebp], ecx
  00236	eb 24		 jmp	 SHORT $LN27@set_local_
$LN26@set_local_:
  00238	8b 15 00 00 00
	00		 mov	 edx, DWORD PTR ?__LINE__Var@?0??set_local_entity_attributes@@YGXPAUENTITY@@PAD@Z@4JA
  0023e	83 c2 47	 add	 edx, 71			; 00000047H
  00241	52		 push	 edx
  00242	68 00 00 00 00	 push	 OFFSET ??_C@_0EO@GJKLLMAP@c?3?2users?2nhv90?2projects?2eech?2ap@
  00247	a1 00 00 00 00	 mov	 eax, DWORD PTR ?null_entity_pointer_message@@3PBDB ; null_entity_pointer_message
  0024c	50		 push	 eax
  0024d	e8 00 00 00 00	 call	 ?process_assert@@YGXPBD0H@Z ; process_assert
  00252	c7 85 64 ff ff
	ff 00 00 00 00	 mov	 DWORD PTR tv167[ebp], 0
$LN27@set_local_:
  0025c	83 7d e4 00	 cmp	 DWORD PTR _type$14[ebp], 0
  00260	7c 11		 jl	 SHORT $LN28@set_local_
  00262	83 7d e4 2d	 cmp	 DWORD PTR _type$14[ebp], 45 ; 0000002dH
  00266	7d 0b		 jge	 SHORT $LN28@set_local_
  00268	8b 4d e4	 mov	 ecx, DWORD PTR _type$14[ebp]
  0026b	89 8d 60 ff ff
	ff		 mov	 DWORD PTR tv176[ebp], ecx
  00271	eb 24		 jmp	 SHORT $LN29@set_local_
$LN28@set_local_:
  00273	8b 15 00 00 00
	00		 mov	 edx, DWORD PTR ?__LINE__Var@?0??set_local_entity_attributes@@YGXPAUENTITY@@PAD@Z@4JA
  00279	83 c2 47	 add	 edx, 71			; 00000047H
  0027c	52		 push	 edx
  0027d	68 00 00 00 00	 push	 OFFSET ??_C@_0EO@GJKLLMAP@c?3?2users?2nhv90?2projects?2eech?2ap@
  00282	a1 00 00 00 00	 mov	 eax, DWORD PTR ?overload_invalid_list_type_message@@3PBDB ; overload_invalid_list_type_message
  00287	50		 push	 eax
  00288	e8 00 00 00 00	 call	 ?process_assert@@YGXPBD0H@Z ; process_assert
  0028d	c7 85 60 ff ff
	ff 00 00 00 00	 mov	 DWORD PTR tv176[ebp], 0
$LN29@set_local_:
  00297	8b 4d e0	 mov	 ecx, DWORD PTR _child_pred$13[ebp]
  0029a	51		 push	 ecx
  0029b	8b 55 e4	 mov	 edx, DWORD PTR _type$14[ebp]
  0029e	52		 push	 edx
  0029f	8b 45 08	 mov	 eax, DWORD PTR _en$[ebp]
  002a2	50		 push	 eax
  002a3	69 8d 64 ff ff
	ff b4 00 00 00	 imul	 ecx, DWORD PTR tv167[ebp], 180
  002ad	8b 95 60 ff ff
	ff		 mov	 edx, DWORD PTR tv176[ebp]
  002b3	8b 84 91 00 00
	00 00		 mov	 eax, DWORD PTR ?fn_set_local_entity_child_pred@@3PAY0CN@P6GXPAUENTITY@@W4LIST_TYPES@@0@ZA[ecx+edx*4]
  002ba	ff d0		 call	 eax

; 226  : 
; 227  : 				break;

  002bc	e9 d8 04 00 00	 jmp	 $LN4@set_local_
$LN12@set_local_:

; 228  : 			}
; 229  : 			////////////////////////////////////////
; 230  : 			case entity_attr_float_value:
; 231  : 			////////////////////////////////////////
; 232  : 			{
; 233  : 				float_types
; 234  : 					type;
; 235  : 
; 236  : 				float
; 237  : 					value;
; 238  : 
; 239  : 				type = get_list_item (pargs, float_types);

  002c1	8b 45 0c	 mov	 eax, DWORD PTR _pargs$[ebp]
  002c4	83 c0 04	 add	 eax, 4
  002c7	89 45 0c	 mov	 DWORD PTR _pargs$[ebp], eax
  002ca	8b 4d 0c	 mov	 ecx, DWORD PTR _pargs$[ebp]
  002cd	8b 51 fc	 mov	 edx, DWORD PTR [ecx-4]
  002d0	89 55 dc	 mov	 DWORD PTR _type$12[ebp], edx

; 240  : 
; 241  : 				value = get_list_item (pargs, double);

  002d3	8b 45 0c	 mov	 eax, DWORD PTR _pargs$[ebp]
  002d6	83 c0 08	 add	 eax, 8
  002d9	89 45 0c	 mov	 DWORD PTR _pargs$[ebp], eax
  002dc	8b 4d 0c	 mov	 ecx, DWORD PTR _pargs$[ebp]
  002df	f2 0f 5a 41 f8	 cvtsd2ss xmm0, QWORD PTR [ecx-8]
  002e4	f3 0f 11 45 d8	 movss	 DWORD PTR _value$11[ebp], xmm0

; 242  : 
; 243  : 				set_local_entity_raw_float_value (en, type, value);

  002e9	83 7d 08 00	 cmp	 DWORD PTR _en$[ebp], 0
  002ed	74 0d		 je	 SHORT $LN30@set_local_
  002ef	8b 45 08	 mov	 eax, DWORD PTR _en$[ebp]
  002f2	8b 08		 mov	 ecx, DWORD PTR [eax]
  002f4	89 8d 64 ff ff
	ff		 mov	 DWORD PTR tv193[ebp], ecx
  002fa	eb 24		 jmp	 SHORT $LN31@set_local_
$LN30@set_local_:
  002fc	8b 15 00 00 00
	00		 mov	 edx, DWORD PTR ?__LINE__Var@?0??set_local_entity_attributes@@YGXPAUENTITY@@PAD@Z@4JA
  00302	83 c2 59	 add	 edx, 89			; 00000059H
  00305	52		 push	 edx
  00306	68 00 00 00 00	 push	 OFFSET ??_C@_0EO@GJKLLMAP@c?3?2users?2nhv90?2projects?2eech?2ap@
  0030b	a1 00 00 00 00	 mov	 eax, DWORD PTR ?null_entity_pointer_message@@3PBDB ; null_entity_pointer_message
  00310	50		 push	 eax
  00311	e8 00 00 00 00	 call	 ?process_assert@@YGXPBD0H@Z ; process_assert
  00316	c7 85 64 ff ff
	ff 00 00 00 00	 mov	 DWORD PTR tv193[ebp], 0
$LN31@set_local_:
  00320	83 7d dc 00	 cmp	 DWORD PTR _type$12[ebp], 0
  00324	7c 14		 jl	 SHORT $LN32@set_local_
  00326	81 7d dc af 00
	00 00		 cmp	 DWORD PTR _type$12[ebp], 175 ; 000000afH
  0032d	7d 0b		 jge	 SHORT $LN32@set_local_
  0032f	8b 4d dc	 mov	 ecx, DWORD PTR _type$12[ebp]
  00332	89 8d 60 ff ff
	ff		 mov	 DWORD PTR tv202[ebp], ecx
  00338	eb 24		 jmp	 SHORT $LN33@set_local_
$LN32@set_local_:
  0033a	8b 15 00 00 00
	00		 mov	 edx, DWORD PTR ?__LINE__Var@?0??set_local_entity_attributes@@YGXPAUENTITY@@PAD@Z@4JA
  00340	83 c2 59	 add	 edx, 89			; 00000059H
  00343	52		 push	 edx
  00344	68 00 00 00 00	 push	 OFFSET ??_C@_0EO@GJKLLMAP@c?3?2users?2nhv90?2projects?2eech?2ap@
  00349	a1 00 00 00 00	 mov	 eax, DWORD PTR ?overload_invalid_float_type_message@@3PBDB ; overload_invalid_float_type_message
  0034e	50		 push	 eax
  0034f	e8 00 00 00 00	 call	 ?process_assert@@YGXPBD0H@Z ; process_assert
  00354	c7 85 60 ff ff
	ff 00 00 00 00	 mov	 DWORD PTR tv202[ebp], 0
$LN33@set_local_:
  0035e	51		 push	 ecx
  0035f	f3 0f 10 45 d8	 movss	 xmm0, DWORD PTR _value$11[ebp]
  00364	f3 0f 11 04 24	 movss	 DWORD PTR [esp], xmm0
  00369	8b 4d dc	 mov	 ecx, DWORD PTR _type$12[ebp]
  0036c	51		 push	 ecx
  0036d	8b 55 08	 mov	 edx, DWORD PTR _en$[ebp]
  00370	52		 push	 edx
  00371	69 85 64 ff ff
	ff bc 02 00 00	 imul	 eax, DWORD PTR tv193[ebp], 700
  0037b	8b 8d 60 ff ff
	ff		 mov	 ecx, DWORD PTR tv202[ebp]
  00381	8b 94 88 00 00
	00 00		 mov	 edx, DWORD PTR ?fn_set_local_entity_raw_float_value@@3PAY0KP@P6GXPAUENTITY@@W4FLOAT_TYPES@@M@ZA[eax+ecx*4]
  00388	ff d2		 call	 edx

; 244  : 
; 245  : 				break;

  0038a	e9 0a 04 00 00	 jmp	 $LN4@set_local_
$LN13@set_local_:

; 246  : 			}
; 247  : 			////////////////////////////////////////
; 248  : 			case entity_attr_int_value:
; 249  : 			////////////////////////////////////////
; 250  : 			{
; 251  : 				int_types
; 252  : 					type;
; 253  : 
; 254  : 				int
; 255  : 					value;
; 256  : 
; 257  : 				type = get_list_item (pargs, int_types);

  0038f	8b 45 0c	 mov	 eax, DWORD PTR _pargs$[ebp]
  00392	83 c0 04	 add	 eax, 4
  00395	89 45 0c	 mov	 DWORD PTR _pargs$[ebp], eax
  00398	8b 4d 0c	 mov	 ecx, DWORD PTR _pargs$[ebp]
  0039b	8b 51 fc	 mov	 edx, DWORD PTR [ecx-4]
  0039e	89 55 d4	 mov	 DWORD PTR _type$10[ebp], edx

; 258  : 
; 259  : 				value = get_list_item (pargs, int);

  003a1	8b 45 0c	 mov	 eax, DWORD PTR _pargs$[ebp]
  003a4	83 c0 04	 add	 eax, 4
  003a7	89 45 0c	 mov	 DWORD PTR _pargs$[ebp], eax
  003aa	8b 4d 0c	 mov	 ecx, DWORD PTR _pargs$[ebp]
  003ad	8b 51 fc	 mov	 edx, DWORD PTR [ecx-4]
  003b0	89 55 d0	 mov	 DWORD PTR _value$9[ebp], edx

; 260  : 
; 261  : 				set_local_entity_raw_int_value (en, type, value);

  003b3	83 7d 08 00	 cmp	 DWORD PTR _en$[ebp], 0
  003b7	74 0d		 je	 SHORT $LN34@set_local_
  003b9	8b 45 08	 mov	 eax, DWORD PTR _en$[ebp]
  003bc	8b 08		 mov	 ecx, DWORD PTR [eax]
  003be	89 8d 64 ff ff
	ff		 mov	 DWORD PTR tv218[ebp], ecx
  003c4	eb 24		 jmp	 SHORT $LN35@set_local_
$LN34@set_local_:
  003c6	8b 15 00 00 00
	00		 mov	 edx, DWORD PTR ?__LINE__Var@?0??set_local_entity_attributes@@YGXPAUENTITY@@PAD@Z@4JA
  003cc	83 c2 6b	 add	 edx, 107		; 0000006bH
  003cf	52		 push	 edx
  003d0	68 00 00 00 00	 push	 OFFSET ??_C@_0EO@GJKLLMAP@c?3?2users?2nhv90?2projects?2eech?2ap@
  003d5	a1 00 00 00 00	 mov	 eax, DWORD PTR ?null_entity_pointer_message@@3PBDB ; null_entity_pointer_message
  003da	50		 push	 eax
  003db	e8 00 00 00 00	 call	 ?process_assert@@YGXPBD0H@Z ; process_assert
  003e0	c7 85 64 ff ff
	ff 00 00 00 00	 mov	 DWORD PTR tv218[ebp], 0
$LN35@set_local_:
  003ea	83 7d d4 00	 cmp	 DWORD PTR _type$10[ebp], 0
  003ee	7c 14		 jl	 SHORT $LN36@set_local_
  003f0	81 7d d4 17 01
	00 00		 cmp	 DWORD PTR _type$10[ebp], 279 ; 00000117H
  003f7	7d 0b		 jge	 SHORT $LN36@set_local_
  003f9	8b 4d d4	 mov	 ecx, DWORD PTR _type$10[ebp]
  003fc	89 8d 60 ff ff
	ff		 mov	 DWORD PTR tv227[ebp], ecx
  00402	eb 24		 jmp	 SHORT $LN37@set_local_
$LN36@set_local_:
  00404	8b 15 00 00 00
	00		 mov	 edx, DWORD PTR ?__LINE__Var@?0??set_local_entity_attributes@@YGXPAUENTITY@@PAD@Z@4JA
  0040a	83 c2 6b	 add	 edx, 107		; 0000006bH
  0040d	52		 push	 edx
  0040e	68 00 00 00 00	 push	 OFFSET ??_C@_0EO@GJKLLMAP@c?3?2users?2nhv90?2projects?2eech?2ap@
  00413	a1 00 00 00 00	 mov	 eax, DWORD PTR ?overload_invalid_int_type_message@@3PBDB ; overload_invalid_int_type_message
  00418	50		 push	 eax
  00419	e8 00 00 00 00	 call	 ?process_assert@@YGXPBD0H@Z ; process_assert
  0041e	c7 85 60 ff ff
	ff 00 00 00 00	 mov	 DWORD PTR tv227[ebp], 0
$LN37@set_local_:
  00428	8b 4d d0	 mov	 ecx, DWORD PTR _value$9[ebp]
  0042b	51		 push	 ecx
  0042c	8b 55 d4	 mov	 edx, DWORD PTR _type$10[ebp]
  0042f	52		 push	 edx
  00430	8b 45 08	 mov	 eax, DWORD PTR _en$[ebp]
  00433	50		 push	 eax
  00434	69 8d 64 ff ff
	ff 5c 04 00 00	 imul	 ecx, DWORD PTR tv218[ebp], 1116
  0043e	8b 95 60 ff ff
	ff		 mov	 edx, DWORD PTR tv227[ebp]
  00444	8b 84 91 00 00
	00 00		 mov	 eax, DWORD PTR ?fn_set_local_entity_raw_int_value@@3PAY0BBH@P6GXPAUENTITY@@W4INT_TYPES@@H@ZA[ecx+edx*4]
  0044b	ff d0		 call	 eax

; 262  : 
; 263  : 				break;

  0044d	e9 47 03 00 00	 jmp	 $LN4@set_local_
$LN14@set_local_:

; 264  : 			}
; 265  : 			////////////////////////////////////////
; 266  : 			case entity_attr_parent:
; 267  : 			////////////////////////////////////////
; 268  : 			{
; 269  : 				list_types
; 270  : 					type;
; 271  : 
; 272  : 				entity
; 273  : 					*parent;
; 274  : 
; 275  : 				type = get_list_item (pargs, list_types);

  00452	8b 45 0c	 mov	 eax, DWORD PTR _pargs$[ebp]
  00455	83 c0 04	 add	 eax, 4
  00458	89 45 0c	 mov	 DWORD PTR _pargs$[ebp], eax
  0045b	8b 4d 0c	 mov	 ecx, DWORD PTR _pargs$[ebp]
  0045e	8b 51 fc	 mov	 edx, DWORD PTR [ecx-4]
  00461	89 55 cc	 mov	 DWORD PTR _type$8[ebp], edx

; 276  : 
; 277  : 				parent = get_list_item (pargs, entity *);

  00464	8b 45 0c	 mov	 eax, DWORD PTR _pargs$[ebp]
  00467	83 c0 04	 add	 eax, 4
  0046a	89 45 0c	 mov	 DWORD PTR _pargs$[ebp], eax
  0046d	8b 4d 0c	 mov	 ecx, DWORD PTR _pargs$[ebp]
  00470	8b 51 fc	 mov	 edx, DWORD PTR [ecx-4]
  00473	89 55 c8	 mov	 DWORD PTR _parent$7[ebp], edx

; 278  : 
; 279  : 				set_local_entity_parent (en, type, parent);

  00476	83 7d 08 00	 cmp	 DWORD PTR _en$[ebp], 0
  0047a	74 0d		 je	 SHORT $LN38@set_local_
  0047c	8b 45 08	 mov	 eax, DWORD PTR _en$[ebp]
  0047f	8b 08		 mov	 ecx, DWORD PTR [eax]
  00481	89 8d 64 ff ff
	ff		 mov	 DWORD PTR tv243[ebp], ecx
  00487	eb 24		 jmp	 SHORT $LN39@set_local_
$LN38@set_local_:
  00489	8b 15 00 00 00
	00		 mov	 edx, DWORD PTR ?__LINE__Var@?0??set_local_entity_attributes@@YGXPAUENTITY@@PAD@Z@4JA
  0048f	83 c2 7d	 add	 edx, 125		; 0000007dH
  00492	52		 push	 edx
  00493	68 00 00 00 00	 push	 OFFSET ??_C@_0EO@GJKLLMAP@c?3?2users?2nhv90?2projects?2eech?2ap@
  00498	a1 00 00 00 00	 mov	 eax, DWORD PTR ?null_entity_pointer_message@@3PBDB ; null_entity_pointer_message
  0049d	50		 push	 eax
  0049e	e8 00 00 00 00	 call	 ?process_assert@@YGXPBD0H@Z ; process_assert
  004a3	c7 85 64 ff ff
	ff 00 00 00 00	 mov	 DWORD PTR tv243[ebp], 0
$LN39@set_local_:
  004ad	83 7d cc 00	 cmp	 DWORD PTR _type$8[ebp], 0
  004b1	7c 11		 jl	 SHORT $LN40@set_local_
  004b3	83 7d cc 2d	 cmp	 DWORD PTR _type$8[ebp], 45 ; 0000002dH
  004b7	7d 0b		 jge	 SHORT $LN40@set_local_
  004b9	8b 4d cc	 mov	 ecx, DWORD PTR _type$8[ebp]
  004bc	89 8d 60 ff ff
	ff		 mov	 DWORD PTR tv252[ebp], ecx
  004c2	eb 24		 jmp	 SHORT $LN41@set_local_
$LN40@set_local_:
  004c4	8b 15 00 00 00
	00		 mov	 edx, DWORD PTR ?__LINE__Var@?0??set_local_entity_attributes@@YGXPAUENTITY@@PAD@Z@4JA
  004ca	83 c2 7d	 add	 edx, 125		; 0000007dH
  004cd	52		 push	 edx
  004ce	68 00 00 00 00	 push	 OFFSET ??_C@_0EO@GJKLLMAP@c?3?2users?2nhv90?2projects?2eech?2ap@
  004d3	a1 00 00 00 00	 mov	 eax, DWORD PTR ?overload_invalid_list_type_message@@3PBDB ; overload_invalid_list_type_message
  004d8	50		 push	 eax
  004d9	e8 00 00 00 00	 call	 ?process_assert@@YGXPBD0H@Z ; process_assert
  004de	c7 85 60 ff ff
	ff 00 00 00 00	 mov	 DWORD PTR tv252[ebp], 0
$LN41@set_local_:
  004e8	8b 4d c8	 mov	 ecx, DWORD PTR _parent$7[ebp]
  004eb	51		 push	 ecx
  004ec	8b 55 cc	 mov	 edx, DWORD PTR _type$8[ebp]
  004ef	52		 push	 edx
  004f0	8b 45 08	 mov	 eax, DWORD PTR _en$[ebp]
  004f3	50		 push	 eax
  004f4	69 8d 64 ff ff
	ff b4 00 00 00	 imul	 ecx, DWORD PTR tv243[ebp], 180
  004fe	8b 95 60 ff ff
	ff		 mov	 edx, DWORD PTR tv252[ebp]
  00504	8b 84 91 00 00
	00 00		 mov	 eax, DWORD PTR ?fn_set_local_entity_parent@@3PAY0CN@P6GXPAUENTITY@@W4LIST_TYPES@@0@ZA[ecx+edx*4]
  0050b	ff d0		 call	 eax

; 280  : 
; 281  : 				break;

  0050d	e9 87 02 00 00	 jmp	 $LN4@set_local_
$LN15@set_local_:

; 282  : 			}
; 283  : 			////////////////////////////////////////
; 284  : 			case entity_attr_ptr_value:
; 285  : 			////////////////////////////////////////
; 286  : 			{
; 287  : 				ptr_types
; 288  : 					type;
; 289  : 
; 290  : 				void
; 291  : 					*ptr;
; 292  : 
; 293  : 				type = get_list_item (pargs, ptr_types);

  00512	8b 45 0c	 mov	 eax, DWORD PTR _pargs$[ebp]
  00515	83 c0 04	 add	 eax, 4
  00518	89 45 0c	 mov	 DWORD PTR _pargs$[ebp], eax
  0051b	8b 4d 0c	 mov	 ecx, DWORD PTR _pargs$[ebp]
  0051e	8b 51 fc	 mov	 edx, DWORD PTR [ecx-4]
  00521	89 55 c4	 mov	 DWORD PTR _type$6[ebp], edx

; 294  : 
; 295  : 				ptr = get_list_item (pargs, void *);

  00524	8b 45 0c	 mov	 eax, DWORD PTR _pargs$[ebp]
  00527	83 c0 04	 add	 eax, 4
  0052a	89 45 0c	 mov	 DWORD PTR _pargs$[ebp], eax
  0052d	8b 4d 0c	 mov	 ecx, DWORD PTR _pargs$[ebp]
  00530	8b 51 fc	 mov	 edx, DWORD PTR [ecx-4]
  00533	89 55 c0	 mov	 DWORD PTR _ptr$5[ebp], edx

; 296  : 
; 297  : 				set_local_entity_ptr_value (en, type, ptr);

  00536	83 7d 08 00	 cmp	 DWORD PTR _en$[ebp], 0
  0053a	74 0d		 je	 SHORT $LN42@set_local_
  0053c	8b 45 08	 mov	 eax, DWORD PTR _en$[ebp]
  0053f	8b 08		 mov	 ecx, DWORD PTR [eax]
  00541	89 8d 64 ff ff
	ff		 mov	 DWORD PTR tv268[ebp], ecx
  00547	eb 27		 jmp	 SHORT $LN43@set_local_
$LN42@set_local_:
  00549	8b 15 00 00 00
	00		 mov	 edx, DWORD PTR ?__LINE__Var@?0??set_local_entity_attributes@@YGXPAUENTITY@@PAD@Z@4JA
  0054f	81 c2 8f 00 00
	00		 add	 edx, 143		; 0000008fH
  00555	52		 push	 edx
  00556	68 00 00 00 00	 push	 OFFSET ??_C@_0EO@GJKLLMAP@c?3?2users?2nhv90?2projects?2eech?2ap@
  0055b	a1 00 00 00 00	 mov	 eax, DWORD PTR ?null_entity_pointer_message@@3PBDB ; null_entity_pointer_message
  00560	50		 push	 eax
  00561	e8 00 00 00 00	 call	 ?process_assert@@YGXPBD0H@Z ; process_assert
  00566	c7 85 64 ff ff
	ff 00 00 00 00	 mov	 DWORD PTR tv268[ebp], 0
$LN43@set_local_:
  00570	83 7d c4 00	 cmp	 DWORD PTR _type$6[ebp], 0
  00574	7c 11		 jl	 SHORT $LN44@set_local_
  00576	83 7d c4 14	 cmp	 DWORD PTR _type$6[ebp], 20 ; 00000014H
  0057a	7d 0b		 jge	 SHORT $LN44@set_local_
  0057c	8b 4d c4	 mov	 ecx, DWORD PTR _type$6[ebp]
  0057f	89 8d 60 ff ff
	ff		 mov	 DWORD PTR tv277[ebp], ecx
  00585	eb 27		 jmp	 SHORT $LN45@set_local_
$LN44@set_local_:
  00587	8b 15 00 00 00
	00		 mov	 edx, DWORD PTR ?__LINE__Var@?0??set_local_entity_attributes@@YGXPAUENTITY@@PAD@Z@4JA
  0058d	81 c2 8f 00 00
	00		 add	 edx, 143		; 0000008fH
  00593	52		 push	 edx
  00594	68 00 00 00 00	 push	 OFFSET ??_C@_0EO@GJKLLMAP@c?3?2users?2nhv90?2projects?2eech?2ap@
  00599	a1 00 00 00 00	 mov	 eax, DWORD PTR ?overload_invalid_ptr_type_message@@3PBDB ; overload_invalid_ptr_type_message
  0059e	50		 push	 eax
  0059f	e8 00 00 00 00	 call	 ?process_assert@@YGXPBD0H@Z ; process_assert
  005a4	c7 85 60 ff ff
	ff 00 00 00 00	 mov	 DWORD PTR tv277[ebp], 0
$LN45@set_local_:
  005ae	8b 4d c0	 mov	 ecx, DWORD PTR _ptr$5[ebp]
  005b1	51		 push	 ecx
  005b2	8b 55 c4	 mov	 edx, DWORD PTR _type$6[ebp]
  005b5	52		 push	 edx
  005b6	8b 45 08	 mov	 eax, DWORD PTR _en$[ebp]
  005b9	50		 push	 eax
  005ba	6b 8d 64 ff ff
	ff 50		 imul	 ecx, DWORD PTR tv268[ebp], 80
  005c1	8b 95 60 ff ff
	ff		 mov	 edx, DWORD PTR tv277[ebp]
  005c7	8b 84 91 00 00
	00 00		 mov	 eax, DWORD PTR ?fn_set_local_entity_ptr_value@@3PAY0BE@P6GXPAUENTITY@@W4PTR_TYPES@@PAX@ZA[ecx+edx*4]
  005ce	ff d0		 call	 eax

; 298  : 
; 299  : 				break;

  005d0	e9 c4 01 00 00	 jmp	 $LN4@set_local_
$LN16@set_local_:

; 300  : 			}
; 301  : 			////////////////////////////////////////
; 302  : 			case entity_attr_string:
; 303  : 			////////////////////////////////////////
; 304  : 			{
; 305  : 				string_types
; 306  : 					type;
; 307  : 
; 308  : 				const char
; 309  : 					*s;
; 310  : 
; 311  : 				type = get_list_item (pargs, string_types);

  005d5	8b 45 0c	 mov	 eax, DWORD PTR _pargs$[ebp]
  005d8	83 c0 04	 add	 eax, 4
  005db	89 45 0c	 mov	 DWORD PTR _pargs$[ebp], eax
  005de	8b 4d 0c	 mov	 ecx, DWORD PTR _pargs$[ebp]
  005e1	8b 51 fc	 mov	 edx, DWORD PTR [ecx-4]
  005e4	89 55 bc	 mov	 DWORD PTR _type$4[ebp], edx

; 312  : 
; 313  : 				s = get_list_item (pargs, const char *);

  005e7	8b 45 0c	 mov	 eax, DWORD PTR _pargs$[ebp]
  005ea	83 c0 04	 add	 eax, 4
  005ed	89 45 0c	 mov	 DWORD PTR _pargs$[ebp], eax
  005f0	8b 4d 0c	 mov	 ecx, DWORD PTR _pargs$[ebp]
  005f3	8b 51 fc	 mov	 edx, DWORD PTR [ecx-4]
  005f6	89 55 b8	 mov	 DWORD PTR _s$3[ebp], edx

; 314  : 
; 315  : 				set_local_entity_raw_string (en, type, s);

  005f9	83 7d 08 00	 cmp	 DWORD PTR _en$[ebp], 0
  005fd	74 0d		 je	 SHORT $LN46@set_local_
  005ff	8b 45 08	 mov	 eax, DWORD PTR _en$[ebp]
  00602	8b 08		 mov	 ecx, DWORD PTR [eax]
  00604	89 8d 64 ff ff
	ff		 mov	 DWORD PTR tv293[ebp], ecx
  0060a	eb 27		 jmp	 SHORT $LN47@set_local_
$LN46@set_local_:
  0060c	8b 15 00 00 00
	00		 mov	 edx, DWORD PTR ?__LINE__Var@?0??set_local_entity_attributes@@YGXPAUENTITY@@PAD@Z@4JA
  00612	81 c2 a1 00 00
	00		 add	 edx, 161		; 000000a1H
  00618	52		 push	 edx
  00619	68 00 00 00 00	 push	 OFFSET ??_C@_0EO@GJKLLMAP@c?3?2users?2nhv90?2projects?2eech?2ap@
  0061e	a1 00 00 00 00	 mov	 eax, DWORD PTR ?null_entity_pointer_message@@3PBDB ; null_entity_pointer_message
  00623	50		 push	 eax
  00624	e8 00 00 00 00	 call	 ?process_assert@@YGXPBD0H@Z ; process_assert
  00629	c7 85 64 ff ff
	ff 00 00 00 00	 mov	 DWORD PTR tv293[ebp], 0
$LN47@set_local_:
  00633	83 7d bc 00	 cmp	 DWORD PTR _type$4[ebp], 0
  00637	7c 11		 jl	 SHORT $LN48@set_local_
  00639	83 7d bc 0d	 cmp	 DWORD PTR _type$4[ebp], 13 ; 0000000dH
  0063d	7d 0b		 jge	 SHORT $LN48@set_local_
  0063f	8b 4d bc	 mov	 ecx, DWORD PTR _type$4[ebp]
  00642	89 8d 60 ff ff
	ff		 mov	 DWORD PTR tv302[ebp], ecx
  00648	eb 27		 jmp	 SHORT $LN49@set_local_
$LN48@set_local_:
  0064a	8b 15 00 00 00
	00		 mov	 edx, DWORD PTR ?__LINE__Var@?0??set_local_entity_attributes@@YGXPAUENTITY@@PAD@Z@4JA
  00650	81 c2 a1 00 00
	00		 add	 edx, 161		; 000000a1H
  00656	52		 push	 edx
  00657	68 00 00 00 00	 push	 OFFSET ??_C@_0EO@GJKLLMAP@c?3?2users?2nhv90?2projects?2eech?2ap@
  0065c	a1 00 00 00 00	 mov	 eax, DWORD PTR ?overload_invalid_string_type_message@@3PBDB ; overload_invalid_string_type_message
  00661	50		 push	 eax
  00662	e8 00 00 00 00	 call	 ?process_assert@@YGXPBD0H@Z ; process_assert
  00667	c7 85 60 ff ff
	ff 00 00 00 00	 mov	 DWORD PTR tv302[ebp], 0
$LN49@set_local_:
  00671	8b 4d b8	 mov	 ecx, DWORD PTR _s$3[ebp]
  00674	51		 push	 ecx
  00675	8b 55 bc	 mov	 edx, DWORD PTR _type$4[ebp]
  00678	52		 push	 edx
  00679	8b 45 08	 mov	 eax, DWORD PTR _en$[ebp]
  0067c	50		 push	 eax
  0067d	6b 8d 64 ff ff
	ff 34		 imul	 ecx, DWORD PTR tv293[ebp], 52
  00684	8b 95 60 ff ff
	ff		 mov	 edx, DWORD PTR tv302[ebp]
  0068a	8b 84 91 00 00
	00 00		 mov	 eax, DWORD PTR ?fn_set_local_entity_raw_string@@3PAY0N@P6GXPAUENTITY@@W4STRING_TYPES@@PBD@ZA[ecx+edx*4]
  00691	ff d0		 call	 eax

; 316  : 
; 317  : 				break;

  00693	e9 01 01 00 00	 jmp	 $LN4@set_local_
$LN17@set_local_:

; 318  : 			}
; 319  : 			////////////////////////////////////////
; 320  : 			case entity_attr_vec3d:
; 321  : 			////////////////////////////////////////
; 322  : 			{
; 323  : 				vec3d_types
; 324  : 					type;
; 325  : 
; 326  : 				vec3d
; 327  : 					v;
; 328  : 
; 329  : 				type = get_list_item (pargs, vec3d_types);

  00698	8b 45 0c	 mov	 eax, DWORD PTR _pargs$[ebp]
  0069b	83 c0 04	 add	 eax, 4
  0069e	89 45 0c	 mov	 DWORD PTR _pargs$[ebp], eax
  006a1	8b 4d 0c	 mov	 ecx, DWORD PTR _pargs$[ebp]
  006a4	8b 51 fc	 mov	 edx, DWORD PTR [ecx-4]
  006a7	89 55 b4	 mov	 DWORD PTR _type$2[ebp], edx

; 330  : 
; 331  : 				v.x = get_list_item (pargs, double);

  006aa	8b 45 0c	 mov	 eax, DWORD PTR _pargs$[ebp]
  006ad	83 c0 08	 add	 eax, 8
  006b0	89 45 0c	 mov	 DWORD PTR _pargs$[ebp], eax
  006b3	8b 4d 0c	 mov	 ecx, DWORD PTR _pargs$[ebp]
  006b6	f2 0f 5a 41 f8	 cvtsd2ss xmm0, QWORD PTR [ecx-8]
  006bb	f3 0f 11 45 a8	 movss	 DWORD PTR _v$1[ebp], xmm0

; 332  : 
; 333  : 				v.y = get_list_item (pargs, double);

  006c0	8b 45 0c	 mov	 eax, DWORD PTR _pargs$[ebp]
  006c3	83 c0 08	 add	 eax, 8
  006c6	89 45 0c	 mov	 DWORD PTR _pargs$[ebp], eax
  006c9	8b 4d 0c	 mov	 ecx, DWORD PTR _pargs$[ebp]
  006cc	f2 0f 5a 41 f8	 cvtsd2ss xmm0, QWORD PTR [ecx-8]
  006d1	f3 0f 11 45 ac	 movss	 DWORD PTR _v$1[ebp+4], xmm0

; 334  : 
; 335  : 				v.z = get_list_item (pargs, double);

  006d6	8b 45 0c	 mov	 eax, DWORD PTR _pargs$[ebp]
  006d9	83 c0 08	 add	 eax, 8
  006dc	89 45 0c	 mov	 DWORD PTR _pargs$[ebp], eax
  006df	8b 4d 0c	 mov	 ecx, DWORD PTR _pargs$[ebp]
  006e2	f2 0f 5a 41 f8	 cvtsd2ss xmm0, QWORD PTR [ecx-8]
  006e7	f3 0f 11 45 b0	 movss	 DWORD PTR _v$1[ebp+8], xmm0

; 336  : 
; 337  : 				set_local_entity_raw_vec3d (en, type, &v);

  006ec	83 7d 08 00	 cmp	 DWORD PTR _en$[ebp], 0
  006f0	74 0d		 je	 SHORT $LN50@set_local_
  006f2	8b 45 08	 mov	 eax, DWORD PTR _en$[ebp]
  006f5	8b 08		 mov	 ecx, DWORD PTR [eax]
  006f7	89 8d 64 ff ff
	ff		 mov	 DWORD PTR tv325[ebp], ecx
  006fd	eb 27		 jmp	 SHORT $LN51@set_local_
$LN50@set_local_:
  006ff	8b 15 00 00 00
	00		 mov	 edx, DWORD PTR ?__LINE__Var@?0??set_local_entity_attributes@@YGXPAUENTITY@@PAD@Z@4JA
  00705	81 c2 b7 00 00
	00		 add	 edx, 183		; 000000b7H
  0070b	52		 push	 edx
  0070c	68 00 00 00 00	 push	 OFFSET ??_C@_0EO@GJKLLMAP@c?3?2users?2nhv90?2projects?2eech?2ap@
  00711	a1 00 00 00 00	 mov	 eax, DWORD PTR ?null_entity_pointer_message@@3PBDB ; null_entity_pointer_message
  00716	50		 push	 eax
  00717	e8 00 00 00 00	 call	 ?process_assert@@YGXPBD0H@Z ; process_assert
  0071c	c7 85 64 ff ff
	ff 00 00 00 00	 mov	 DWORD PTR tv325[ebp], 0
$LN51@set_local_:
  00726	83 7d b4 00	 cmp	 DWORD PTR _type$2[ebp], 0
  0072a	7c 11		 jl	 SHORT $LN52@set_local_
  0072c	83 7d b4 18	 cmp	 DWORD PTR _type$2[ebp], 24 ; 00000018H
  00730	7d 0b		 jge	 SHORT $LN52@set_local_
  00732	8b 4d b4	 mov	 ecx, DWORD PTR _type$2[ebp]
  00735	89 8d 60 ff ff
	ff		 mov	 DWORD PTR tv334[ebp], ecx
  0073b	eb 27		 jmp	 SHORT $LN53@set_local_
$LN52@set_local_:
  0073d	8b 15 00 00 00
	00		 mov	 edx, DWORD PTR ?__LINE__Var@?0??set_local_entity_attributes@@YGXPAUENTITY@@PAD@Z@4JA
  00743	81 c2 b7 00 00
	00		 add	 edx, 183		; 000000b7H
  00749	52		 push	 edx
  0074a	68 00 00 00 00	 push	 OFFSET ??_C@_0EO@GJKLLMAP@c?3?2users?2nhv90?2projects?2eech?2ap@
  0074f	a1 00 00 00 00	 mov	 eax, DWORD PTR ?overload_invalid_vec3d_type_message@@3PBDB ; overload_invalid_vec3d_type_message
  00754	50		 push	 eax
  00755	e8 00 00 00 00	 call	 ?process_assert@@YGXPBD0H@Z ; process_assert
  0075a	c7 85 60 ff ff
	ff 00 00 00 00	 mov	 DWORD PTR tv334[ebp], 0
$LN53@set_local_:
  00764	8d 4d a8	 lea	 ecx, DWORD PTR _v$1[ebp]
  00767	51		 push	 ecx
  00768	8b 55 b4	 mov	 edx, DWORD PTR _type$2[ebp]
  0076b	52		 push	 edx
  0076c	8b 45 08	 mov	 eax, DWORD PTR _en$[ebp]
  0076f	50		 push	 eax
  00770	6b 8d 64 ff ff
	ff 60		 imul	 ecx, DWORD PTR tv325[ebp], 96
  00777	8b 95 60 ff ff
	ff		 mov	 edx, DWORD PTR tv334[ebp]
  0077d	8b 84 91 00 00
	00 00		 mov	 eax, DWORD PTR ?fn_set_local_entity_raw_vec3d@@3PAY0BI@P6GXPAUENTITY@@W4VEC3D_TYPES@@PAUVEC3D@@@ZA[ecx+edx*4]
  00784	ff d0		 call	 eax

; 338  : 
; 339  : 				break;

  00786	eb 11		 jmp	 SHORT $LN4@set_local_
$LN18@set_local_:

; 340  : 			}
; 341  : 			////////////////////////////////////////
; 342  : 			default:
; 343  : 			////////////////////////////////////////
; 344  : 			{
; 345  : 				debug_fatal ("Invalid entity attribute = %d", attr);

  00788	8b 45 fc	 mov	 eax, DWORD PTR _attr$[ebp]
  0078b	50		 push	 eax
  0078c	68 00 00 00 00	 push	 OFFSET ??_C@_0BO@NPHHLKPA@Invalid?5entity?5attribute?5?$DN?5?$CFd@
  00791	e8 00 00 00 00	 call	 ?debug_fatal@@YAXPBDZZ	; debug_fatal
  00796	83 c4 08	 add	 esp, 8
$LN4@set_local_:

; 346  : 
; 347  : 				break;
; 348  : 			}
; 349  : 		}
; 350  : 	}

  00799	e9 aa f8 ff ff	 jmp	 $LN7@set_local_
$LN3@set_local_:
$LN1@set_local_:

; 351  : }

  0079e	5f		 pop	 edi
  0079f	5e		 pop	 esi
  007a0	5b		 pop	 ebx
  007a1	8b e5		 mov	 esp, ebp
  007a3	5d		 pop	 ebp
  007a4	c2 08 00	 ret	 8
  007a7	90		 npad	 1
$LN54@set_local_:
  007a8	00 00 00 00	 DD	 $LN8@set_local_
  007ac	00 00 00 00	 DD	 $LN9@set_local_
  007b0	00 00 00 00	 DD	 $LN10@set_local_
  007b4	00 00 00 00	 DD	 $LN11@set_local_
  007b8	00 00 00 00	 DD	 $LN12@set_local_
  007bc	00 00 00 00	 DD	 $LN13@set_local_
  007c0	00 00 00 00	 DD	 $LN14@set_local_
  007c4	00 00 00 00	 DD	 $LN15@set_local_
  007c8	00 00 00 00	 DD	 $LN16@set_local_
  007cc	00 00 00 00	 DD	 $LN17@set_local_
?set_local_entity_attributes@@YGXPAUENTITY@@PAD@Z ENDP	; set_local_entity_attributes
_TEXT	ENDS
END
