; Listing generated by Microsoft (R) Optimizing Compiler Version 19.16.27045.0 

	TITLE	C:\Users\nhv90\Projects\eech\aphavoc\source\entity\system\en_comms\en_comms.c
	.686P
	.XMM
	include listing.inc
	.model	flat

INCLUDELIB MSVCRTD
INCLUDELIB OLDNAMES

PUBLIC	?entity_comms_message_database@@3PAUENTITY_COMMS_MESSAGE_DATA@@A ; entity_comms_message_database
PUBLIC	??_C@_0BC@BAEMGHBC@ENTITY_COMMS_ZERO@		; `string'
PUBLIC	??_C@_0CC@NLAFMKFC@ENTITY_COMMS_ADD_PLANNER_WAYPOI@ ; `string'
PUBLIC	??_C@_0CD@NAGEICJO@ENTITY_COMMS_ADVISE_TRANSMIT_RE@ ; `string'
PUBLIC	??_C@_0BN@CKMAEBII@ENTITY_COMMS_ATTITUDE_ANGLES@ ; `string'
PUBLIC	??_C@_0BN@GBFOHEHI@ENTITY_COMMS_ATTITUDE_MATRIX@ ; `string'
PUBLIC	??_C@_0CA@NFDIOEHE@ENTITY_COMMS_CAMPAIGN_COMPLETED@ ; `string'
PUBLIC	??_C@_0BN@OFBPGCKM@ENTITY_COMMS_CAPTURE_KEYSITE@ ; `string'
PUBLIC	??_C@_0BI@KGDMNEFL@ENTITY_COMMS_CHAR_VALUE@	; `string'
PUBLIC	??_C@_0BE@JDBDHONH@ENTITY_COMMS_CREATE@		; `string'
PUBLIC	??_C@_0CD@EBIBKGKF@ENTITY_COMMS_CREATE_META_EXPLOS@ ; `string'
PUBLIC	??_C@_0DF@NBHPNIFF@ENTITY_COMMS_CREATE_META_SMOKE_@ ; `string'
PUBLIC	??_C@_0DG@MLBOLLNL@ENTITY_COMMS_CREATE_META_SMOKE_@ ; `string'
PUBLIC	??_C@_0CB@BNOKDDDF@ENTITY_COMMS_CREATE_SOUND_EFFEC@ ; `string'
PUBLIC	??_C@_0CD@OBKNILKG@ENTITY_COMMS_CREATE_WAYPOINT_RO@ ; `string'
PUBLIC	??_C@_0BL@FJLKIJMD@ENTITY_COMMS_CREATE_WEAPON@	; `string'
PUBLIC	??_C@_0BL@ILGPFNEF@ENTITY_COMMS_DAMAGE_PLAYER@	; `string'
PUBLIC	??_C@_0CE@IMBIAMAK@ENTITY_COMMS_DAMAGE_PLAYER_AVIO@ ; `string'
PUBLIC	??_C@_0CD@MAFIGLA@ENTITY_COMMS_DAMAGE_WEAPON_PACK@ ; `string'
PUBLIC	??_C@_0BF@IOJCDKDD@ENTITY_COMMS_DESTROY@	; `string'
PUBLIC	??_C@_0BM@KBHFEPGK@ENTITY_COMMS_DESTROY_FAMILY@	; `string'
PUBLIC	??_C@_0CC@BEGONDGM@ENTITY_COMMS_DESTROY_LOCAL_FAMI@ ; `string'
PUBLIC	??_C@_0BB@GIMJAJGE@ENTITY_COMMS_END@		; `string'
PUBLIC	??_C@_0BJ@MNGJFBAP@ENTITY_COMMS_FLOAT_VALUE@	; `string'
PUBLIC	??_C@_0BH@OJBBHGFP@ENTITY_COMMS_INT_VALUE@	; `string'
PUBLIC	??_C@_0BC@DKIPLLCB@ENTITY_COMMS_KILL@		; `string'
PUBLIC	??_C@_0BJ@JPJLMJFL@ENTITY_COMMS_MOBILE_KILL@	; `string'
PUBLIC	??_C@_0BJ@CDFCGDMC@ENTITY_COMMS_MOBILE_LAND@	; `string'
PUBLIC	??_C@_0BM@IKCOIJLG@ENTITY_COMMS_MOBILE_TAKEOFF@	; `string'
PUBLIC	??_C@_0CD@NOHMADOE@ENTITY_COMMS_MOVE_PLANNER_WAYPO@ ; `string'
PUBLIC	??_C@_0BO@DDBLOHLC@ENTITY_COMMS_PAUSE_SOUND_TYPE@ ; `string'
PUBLIC	??_C@_0CF@MPNINOHL@ENTITY_COMMS_PAUSE_WEAPON_SOUND@ ; `string'
PUBLIC	??_C@_0CB@IMCOMLOF@ENTITY_COMMS_PILOT_COMMUNICATIO@ ; `string'
PUBLIC	??_C@_0CA@PJHJKJMB@ENTITY_COMMS_PILOT_PFZ_TRANSFER@ ; `string'
PUBLIC	??_C@_0CE@BPOHHPCK@ENTITY_COMMS_PILOT_REQUEST_ACCE@ ; `string'
PUBLIC	??_C@_0CG@LAKLDEPI@ENTITY_COMMS_PLAY_CPG_CONTACT_M@ ; `string'
PUBLIC	??_C@_0BO@NPPHJDAP@ENTITY_COMMS_PLAY_CPG_MESSAGE@ ; `string'
PUBLIC	??_C@_0CC@PHIBJEDL@ENTITY_COMMS_PLAY_WARNING_MESSA@ ; `string'
PUBLIC	??_C@_0BJ@GOAPADFB@ENTITY_COMMS_PLAYER_KILL@	; `string'
PUBLIC	??_C@_0CD@OJKBALMO@ENTITY_COMMS_PLAYER_TASK_COMPLE@ ; `string'
PUBLIC	??_C@_0CE@JFJALBDN@ENTITY_COMMS_PLAYER_TASK_TERMIN@ ; `string'
PUBLIC	??_C@_0BL@GIDOKHEL@ENTITY_COMMS_RADIO_MESSAGE@	; `string'
PUBLIC	??_C@_0CI@NMFEHPP@ENTITY_COMMS_REPAIR_ANTI_AIRCRA@ ; `string'
PUBLIC	??_C@_0CC@OIJNGFBD@ENTITY_COMMS_REPAIR_BRIDGE_ENTI@ ; `string'
PUBLIC	??_C@_0CB@IMBAOKE@ENTITY_COMMS_REQUEST_TARGET_LIS@ ; `string'
PUBLIC	??_C@_0BM@IFFAJJFF@ENTITY_COMMS_RESTORE_ENTITY@	; `string'
PUBLIC	??_C@_0CC@BHFPJJBN@ENTITY_COMMS_RESTORE_FIXED_ENTI@ ; `string'
PUBLIC	??_C@_0BP@KMLAEFAI@ENTITY_COMMS_RESUME_SOUND_TYPE@ ; `string'
PUBLIC	??_C@_0CH@EJBGMHEM@ENTITY_COMMS_ROUTED_VEHICLE_ROU@ ; `string'
PUBLIC	??_C@_0BO@BPMNLAPG@ENTITY_COMMS_SEND_TARGET_LIST@ ; `string'
PUBLIC	??_C@_0CG@JNPGAFPD@ENTITY_COMMS_SET_EXTERNAL_VIEW_@ ; `string'
PUBLIC	??_C@_0CA@DFBCMJCM@ENTITY_COMMS_SET_GUIDE_CRITERIA@ ; `string'
PUBLIC	??_C@_0CH@JPOLAEHG@ENTITY_COMMS_SET_GUIDE_POSITION@ ; `string'
PUBLIC	??_C@_0BP@MNGLEKGG@ENTITY_COMMS_SET_TASK_POINTERS@ ; `string'
PUBLIC	??_C@_0BK@PBNAPCAB@ENTITY_COMMS_SET_WAYPOINT@	; `string'
PUBLIC	??_C@_0BM@FAMIBALJ@ENTITY_COMMS_SPEECH_MESSAGE@	; `string'
PUBLIC	??_C@_0BE@BGGHCGFN@ENTITY_COMMS_STRING@		; `string'
PUBLIC	??_C@_0BJ@FEFOFPIO@ENTITY_COMMS_SWITCH_LIST@	; `string'
PUBLIC	??_C@_0BL@GDOPPIPJ@ENTITY_COMMS_SWITCH_PARENT@	; `string'
PUBLIC	??_C@_0CB@MNFPAOIB@ENTITY_COMMS_TASK_ASSIGN_REQUES@ ; `string'
PUBLIC	??_C@_0CA@NOFOHJDA@ENTITY_COMMS_TASK_ASSIGN_RESULT@ ; `string'
PUBLIC	??_C@_0BH@OFPIJIPP@ENTITY_COMMS_TASK_KILL@	; `string'
PUBLIC	??_C@_0BH@KIJDPBOA@ENTITY_COMMS_TASK_LOSS@	; `string'
PUBLIC	??_C@_0BE@OHLFFPJI@ENTITY_COMMS_UPDATE@		; `string'
PUBLIC	??_C@_0BP@PHHFPKOH@ENTITY_COMMS_UPDATE_FOG_OF_WAR@ ; `string'
PUBLIC	??_C@_0CA@PFDDKMJO@ENTITY_COMMS_UPDATE_SECTOR_SIDE@ ; `string'
PUBLIC	??_C@_0CG@BNNIAKNO@ENTITY_COMMS_UPDATE_SECTOR_SIDE@ ; `string'
PUBLIC	??_C@_0BD@KFDANGJL@ENTITY_COMMS_VEC3D@		; `string'
PUBLIC	??_C@_0CD@INNBAGGM@ENTITY_COMMS_ZERO_DESIRED_VELOC@ ; `string'
PUBLIC	??_C@_0BL@HEGJAFJI@ENTITY_COMMS_ZERO_VELOCITY@	; `string'
;	COMDAT ??_C@_0BL@HEGJAFJI@ENTITY_COMMS_ZERO_VELOCITY@
CONST	SEGMENT
??_C@_0BL@HEGJAFJI@ENTITY_COMMS_ZERO_VELOCITY@ DB 'ENTITY_COMMS_ZERO_VELO'
	DB	'CITY', 00H					; `string'
CONST	ENDS
;	COMDAT ??_C@_0CD@INNBAGGM@ENTITY_COMMS_ZERO_DESIRED_VELOC@
CONST	SEGMENT
??_C@_0CD@INNBAGGM@ENTITY_COMMS_ZERO_DESIRED_VELOC@ DB 'ENTITY_COMMS_ZERO'
	DB	'_DESIRED_VELOCITY', 00H			; `string'
CONST	ENDS
;	COMDAT ??_C@_0BD@KFDANGJL@ENTITY_COMMS_VEC3D@
CONST	SEGMENT
??_C@_0BD@KFDANGJL@ENTITY_COMMS_VEC3D@ DB 'ENTITY_COMMS_VEC3D', 00H ; `string'
CONST	ENDS
;	COMDAT ??_C@_0CG@BNNIAKNO@ENTITY_COMMS_UPDATE_SECTOR_SIDE@
CONST	SEGMENT
??_C@_0CG@BNNIAKNO@ENTITY_COMMS_UPDATE_SECTOR_SIDE@ DB 'ENTITY_COMMS_UPDA'
	DB	'TE_SECTOR_SIDE_COUNT', 00H			; `string'
CONST	ENDS
;	COMDAT ??_C@_0CA@PFDDKMJO@ENTITY_COMMS_UPDATE_SECTOR_SIDE@
CONST	SEGMENT
??_C@_0CA@PFDDKMJO@ENTITY_COMMS_UPDATE_SECTOR_SIDE@ DB 'ENTITY_COMMS_UPDA'
	DB	'TE_SECTOR_SIDE', 00H			; `string'
CONST	ENDS
;	COMDAT ??_C@_0BP@PHHFPKOH@ENTITY_COMMS_UPDATE_FOG_OF_WAR@
CONST	SEGMENT
??_C@_0BP@PHHFPKOH@ENTITY_COMMS_UPDATE_FOG_OF_WAR@ DB 'ENTITY_COMMS_UPDAT'
	DB	'E_FOG_OF_WAR', 00H				; `string'
CONST	ENDS
;	COMDAT ??_C@_0BE@OHLFFPJI@ENTITY_COMMS_UPDATE@
CONST	SEGMENT
??_C@_0BE@OHLFFPJI@ENTITY_COMMS_UPDATE@ DB 'ENTITY_COMMS_UPDATE', 00H ; `string'
CONST	ENDS
;	COMDAT ??_C@_0BH@KIJDPBOA@ENTITY_COMMS_TASK_LOSS@
CONST	SEGMENT
??_C@_0BH@KIJDPBOA@ENTITY_COMMS_TASK_LOSS@ DB 'ENTITY_COMMS_TASK_LOSS', 00H ; `string'
CONST	ENDS
;	COMDAT ??_C@_0BH@OFPIJIPP@ENTITY_COMMS_TASK_KILL@
CONST	SEGMENT
??_C@_0BH@OFPIJIPP@ENTITY_COMMS_TASK_KILL@ DB 'ENTITY_COMMS_TASK_KILL', 00H ; `string'
CONST	ENDS
;	COMDAT ??_C@_0CA@NOFOHJDA@ENTITY_COMMS_TASK_ASSIGN_RESULT@
CONST	SEGMENT
??_C@_0CA@NOFOHJDA@ENTITY_COMMS_TASK_ASSIGN_RESULT@ DB 'ENTITY_COMMS_TASK'
	DB	'_ASSIGN_RESULT', 00H			; `string'
CONST	ENDS
;	COMDAT ??_C@_0CB@MNFPAOIB@ENTITY_COMMS_TASK_ASSIGN_REQUES@
CONST	SEGMENT
??_C@_0CB@MNFPAOIB@ENTITY_COMMS_TASK_ASSIGN_REQUES@ DB 'ENTITY_COMMS_TASK'
	DB	'_ASSIGN_REQUEST', 00H			; `string'
CONST	ENDS
;	COMDAT ??_C@_0BL@GDOPPIPJ@ENTITY_COMMS_SWITCH_PARENT@
CONST	SEGMENT
??_C@_0BL@GDOPPIPJ@ENTITY_COMMS_SWITCH_PARENT@ DB 'ENTITY_COMMS_SWITCH_PA'
	DB	'RENT', 00H					; `string'
CONST	ENDS
;	COMDAT ??_C@_0BJ@FEFOFPIO@ENTITY_COMMS_SWITCH_LIST@
CONST	SEGMENT
??_C@_0BJ@FEFOFPIO@ENTITY_COMMS_SWITCH_LIST@ DB 'ENTITY_COMMS_SWITCH_LIST'
	DB	00H						; `string'
CONST	ENDS
;	COMDAT ??_C@_0BE@BGGHCGFN@ENTITY_COMMS_STRING@
CONST	SEGMENT
??_C@_0BE@BGGHCGFN@ENTITY_COMMS_STRING@ DB 'ENTITY_COMMS_STRING', 00H ; `string'
CONST	ENDS
;	COMDAT ??_C@_0BM@FAMIBALJ@ENTITY_COMMS_SPEECH_MESSAGE@
CONST	SEGMENT
??_C@_0BM@FAMIBALJ@ENTITY_COMMS_SPEECH_MESSAGE@ DB 'ENTITY_COMMS_SPEECH_M'
	DB	'ESSAGE', 00H				; `string'
CONST	ENDS
;	COMDAT ??_C@_0BK@PBNAPCAB@ENTITY_COMMS_SET_WAYPOINT@
CONST	SEGMENT
??_C@_0BK@PBNAPCAB@ENTITY_COMMS_SET_WAYPOINT@ DB 'ENTITY_COMMS_SET_WAYPOI'
	DB	'NT', 00H					; `string'
CONST	ENDS
;	COMDAT ??_C@_0BP@MNGLEKGG@ENTITY_COMMS_SET_TASK_POINTERS@
CONST	SEGMENT
??_C@_0BP@MNGLEKGG@ENTITY_COMMS_SET_TASK_POINTERS@ DB 'ENTITY_COMMS_SET_T'
	DB	'ASK_POINTERS', 00H				; `string'
CONST	ENDS
;	COMDAT ??_C@_0CH@JPOLAEHG@ENTITY_COMMS_SET_GUIDE_POSITION@
CONST	SEGMENT
??_C@_0CH@JPOLAEHG@ENTITY_COMMS_SET_GUIDE_POSITION@ DB 'ENTITY_COMMS_SET_'
	DB	'GUIDE_POSITION_ENTITY', 00H			; `string'
CONST	ENDS
;	COMDAT ??_C@_0CA@DFBCMJCM@ENTITY_COMMS_SET_GUIDE_CRITERIA@
CONST	SEGMENT
??_C@_0CA@DFBCMJCM@ENTITY_COMMS_SET_GUIDE_CRITERIA@ DB 'ENTITY_COMMS_SET_'
	DB	'GUIDE_CRITERIA', 00H			; `string'
CONST	ENDS
;	COMDAT ??_C@_0CG@JNPGAFPD@ENTITY_COMMS_SET_EXTERNAL_VIEW_@
CONST	SEGMENT
??_C@_0CG@JNPGAFPD@ENTITY_COMMS_SET_EXTERNAL_VIEW_@ DB 'ENTITY_COMMS_SET_'
	DB	'EXTERNAL_VIEW_ENTITY', 00H			; `string'
CONST	ENDS
;	COMDAT ??_C@_0BO@BPMNLAPG@ENTITY_COMMS_SEND_TARGET_LIST@
CONST	SEGMENT
??_C@_0BO@BPMNLAPG@ENTITY_COMMS_SEND_TARGET_LIST@ DB 'ENTITY_COMMS_SEND_T'
	DB	'ARGET_LIST', 00H				; `string'
CONST	ENDS
;	COMDAT ??_C@_0CH@EJBGMHEM@ENTITY_COMMS_ROUTED_VEHICLE_ROU@
CONST	SEGMENT
??_C@_0CH@EJBGMHEM@ENTITY_COMMS_ROUTED_VEHICLE_ROU@ DB 'ENTITY_COMMS_ROUT'
	DB	'ED_VEHICLE_ROUTE_DATA', 00H			; `string'
CONST	ENDS
;	COMDAT ??_C@_0BP@KMLAEFAI@ENTITY_COMMS_RESUME_SOUND_TYPE@
CONST	SEGMENT
??_C@_0BP@KMLAEFAI@ENTITY_COMMS_RESUME_SOUND_TYPE@ DB 'ENTITY_COMMS_RESUM'
	DB	'E_SOUND_TYPE', 00H				; `string'
CONST	ENDS
;	COMDAT ??_C@_0CC@BHFPJJBN@ENTITY_COMMS_RESTORE_FIXED_ENTI@
CONST	SEGMENT
??_C@_0CC@BHFPJJBN@ENTITY_COMMS_RESTORE_FIXED_ENTI@ DB 'ENTITY_COMMS_REST'
	DB	'ORE_FIXED_ENTITY', 00H			; `string'
CONST	ENDS
;	COMDAT ??_C@_0BM@IFFAJJFF@ENTITY_COMMS_RESTORE_ENTITY@
CONST	SEGMENT
??_C@_0BM@IFFAJJFF@ENTITY_COMMS_RESTORE_ENTITY@ DB 'ENTITY_COMMS_RESTORE_'
	DB	'ENTITY', 00H				; `string'
CONST	ENDS
;	COMDAT ??_C@_0CB@IMBAOKE@ENTITY_COMMS_REQUEST_TARGET_LIS@
CONST	SEGMENT
??_C@_0CB@IMBAOKE@ENTITY_COMMS_REQUEST_TARGET_LIS@ DB 'ENTITY_COMMS_REQUE'
	DB	'ST_TARGET_LIST', 00H			; `string'
CONST	ENDS
;	COMDAT ??_C@_0CC@OIJNGFBD@ENTITY_COMMS_REPAIR_BRIDGE_ENTI@
CONST	SEGMENT
??_C@_0CC@OIJNGFBD@ENTITY_COMMS_REPAIR_BRIDGE_ENTI@ DB 'ENTITY_COMMS_REPA'
	DB	'IR_BRIDGE_ENTITY', 00H			; `string'
CONST	ENDS
;	COMDAT ??_C@_0CI@NMFEHPP@ENTITY_COMMS_REPAIR_ANTI_AIRCRA@
CONST	SEGMENT
??_C@_0CI@NMFEHPP@ENTITY_COMMS_REPAIR_ANTI_AIRCRA@ DB 'ENTITY_COMMS_REPAI'
	DB	'R_ANTI_AIRCRAFT_GROUP', 00H			; `string'
CONST	ENDS
;	COMDAT ??_C@_0BL@GIDOKHEL@ENTITY_COMMS_RADIO_MESSAGE@
CONST	SEGMENT
??_C@_0BL@GIDOKHEL@ENTITY_COMMS_RADIO_MESSAGE@ DB 'ENTITY_COMMS_RADIO_MES'
	DB	'SAGE', 00H					; `string'
CONST	ENDS
;	COMDAT ??_C@_0CE@JFJALBDN@ENTITY_COMMS_PLAYER_TASK_TERMIN@
CONST	SEGMENT
??_C@_0CE@JFJALBDN@ENTITY_COMMS_PLAYER_TASK_TERMIN@ DB 'ENTITY_COMMS_PLAY'
	DB	'ER_TASK_TERMINATED', 00H			; `string'
CONST	ENDS
;	COMDAT ??_C@_0CD@OJKBALMO@ENTITY_COMMS_PLAYER_TASK_COMPLE@
CONST	SEGMENT
??_C@_0CD@OJKBALMO@ENTITY_COMMS_PLAYER_TASK_COMPLE@ DB 'ENTITY_COMMS_PLAY'
	DB	'ER_TASK_COMPLETED', 00H			; `string'
CONST	ENDS
;	COMDAT ??_C@_0BJ@GOAPADFB@ENTITY_COMMS_PLAYER_KILL@
CONST	SEGMENT
??_C@_0BJ@GOAPADFB@ENTITY_COMMS_PLAYER_KILL@ DB 'ENTITY_COMMS_PLAYER_KILL'
	DB	00H						; `string'
CONST	ENDS
;	COMDAT ??_C@_0CC@PHIBJEDL@ENTITY_COMMS_PLAY_WARNING_MESSA@
CONST	SEGMENT
??_C@_0CC@PHIBJEDL@ENTITY_COMMS_PLAY_WARNING_MESSA@ DB 'ENTITY_COMMS_PLAY'
	DB	'_WARNING_MESSAGE', 00H			; `string'
CONST	ENDS
;	COMDAT ??_C@_0BO@NPPHJDAP@ENTITY_COMMS_PLAY_CPG_MESSAGE@
CONST	SEGMENT
??_C@_0BO@NPPHJDAP@ENTITY_COMMS_PLAY_CPG_MESSAGE@ DB 'ENTITY_COMMS_PLAY_C'
	DB	'PG_MESSAGE', 00H				; `string'
CONST	ENDS
;	COMDAT ??_C@_0CG@LAKLDEPI@ENTITY_COMMS_PLAY_CPG_CONTACT_M@
CONST	SEGMENT
??_C@_0CG@LAKLDEPI@ENTITY_COMMS_PLAY_CPG_CONTACT_M@ DB 'ENTITY_COMMS_PLAY'
	DB	'_CPG_CONTACT_MESSAGE', 00H			; `string'
CONST	ENDS
;	COMDAT ??_C@_0CE@BPOHHPCK@ENTITY_COMMS_PILOT_REQUEST_ACCE@
CONST	SEGMENT
??_C@_0CE@BPOHHPCK@ENTITY_COMMS_PILOT_REQUEST_ACCE@ DB 'ENTITY_COMMS_PILO'
	DB	'T_REQUEST_ACCEPTED', 00H			; `string'
CONST	ENDS
;	COMDAT ??_C@_0CA@PJHJKJMB@ENTITY_COMMS_PILOT_PFZ_TRANSFER@
CONST	SEGMENT
??_C@_0CA@PJHJKJMB@ENTITY_COMMS_PILOT_PFZ_TRANSFER@ DB 'ENTITY_COMMS_PILO'
	DB	'T_PFZ_TRANSFER', 00H			; `string'
CONST	ENDS
;	COMDAT ??_C@_0CB@IMCOMLOF@ENTITY_COMMS_PILOT_COMMUNICATIO@
CONST	SEGMENT
??_C@_0CB@IMCOMLOF@ENTITY_COMMS_PILOT_COMMUNICATIO@ DB 'ENTITY_COMMS_PILO'
	DB	'T_COMMUNICATION', 00H			; `string'
CONST	ENDS
;	COMDAT ??_C@_0CF@MPNINOHL@ENTITY_COMMS_PAUSE_WEAPON_SOUND@
CONST	SEGMENT
??_C@_0CF@MPNINOHL@ENTITY_COMMS_PAUSE_WEAPON_SOUND@ DB 'ENTITY_COMMS_PAUS'
	DB	'E_WEAPON_SOUND_TYPE', 00H			; `string'
CONST	ENDS
;	COMDAT ??_C@_0BO@DDBLOHLC@ENTITY_COMMS_PAUSE_SOUND_TYPE@
CONST	SEGMENT
??_C@_0BO@DDBLOHLC@ENTITY_COMMS_PAUSE_SOUND_TYPE@ DB 'ENTITY_COMMS_PAUSE_'
	DB	'SOUND_TYPE', 00H				; `string'
CONST	ENDS
;	COMDAT ??_C@_0CD@NOHMADOE@ENTITY_COMMS_MOVE_PLANNER_WAYPO@
CONST	SEGMENT
??_C@_0CD@NOHMADOE@ENTITY_COMMS_MOVE_PLANNER_WAYPO@ DB 'ENTITY_COMMS_MOVE'
	DB	'_PLANNER_WAYPOINT', 00H			; `string'
CONST	ENDS
;	COMDAT ??_C@_0BM@IKCOIJLG@ENTITY_COMMS_MOBILE_TAKEOFF@
CONST	SEGMENT
??_C@_0BM@IKCOIJLG@ENTITY_COMMS_MOBILE_TAKEOFF@ DB 'ENTITY_COMMS_MOBILE_T'
	DB	'AKEOFF', 00H				; `string'
CONST	ENDS
;	COMDAT ??_C@_0BJ@CDFCGDMC@ENTITY_COMMS_MOBILE_LAND@
CONST	SEGMENT
??_C@_0BJ@CDFCGDMC@ENTITY_COMMS_MOBILE_LAND@ DB 'ENTITY_COMMS_MOBILE_LAND'
	DB	00H						; `string'
CONST	ENDS
;	COMDAT ??_C@_0BJ@JPJLMJFL@ENTITY_COMMS_MOBILE_KILL@
CONST	SEGMENT
??_C@_0BJ@JPJLMJFL@ENTITY_COMMS_MOBILE_KILL@ DB 'ENTITY_COMMS_MOBILE_KILL'
	DB	00H						; `string'
CONST	ENDS
;	COMDAT ??_C@_0BC@DKIPLLCB@ENTITY_COMMS_KILL@
CONST	SEGMENT
??_C@_0BC@DKIPLLCB@ENTITY_COMMS_KILL@ DB 'ENTITY_COMMS_KILL', 00H ; `string'
CONST	ENDS
;	COMDAT ??_C@_0BH@OJBBHGFP@ENTITY_COMMS_INT_VALUE@
CONST	SEGMENT
??_C@_0BH@OJBBHGFP@ENTITY_COMMS_INT_VALUE@ DB 'ENTITY_COMMS_INT_VALUE', 00H ; `string'
CONST	ENDS
;	COMDAT ??_C@_0BJ@MNGJFBAP@ENTITY_COMMS_FLOAT_VALUE@
CONST	SEGMENT
??_C@_0BJ@MNGJFBAP@ENTITY_COMMS_FLOAT_VALUE@ DB 'ENTITY_COMMS_FLOAT_VALUE'
	DB	00H						; `string'
CONST	ENDS
;	COMDAT ??_C@_0BB@GIMJAJGE@ENTITY_COMMS_END@
CONST	SEGMENT
??_C@_0BB@GIMJAJGE@ENTITY_COMMS_END@ DB 'ENTITY_COMMS_END', 00H ; `string'
CONST	ENDS
;	COMDAT ??_C@_0CC@BEGONDGM@ENTITY_COMMS_DESTROY_LOCAL_FAMI@
CONST	SEGMENT
??_C@_0CC@BEGONDGM@ENTITY_COMMS_DESTROY_LOCAL_FAMI@ DB 'ENTITY_COMMS_DEST'
	DB	'ROY_LOCAL_FAMILY', 00H			; `string'
CONST	ENDS
;	COMDAT ??_C@_0BM@KBHFEPGK@ENTITY_COMMS_DESTROY_FAMILY@
CONST	SEGMENT
??_C@_0BM@KBHFEPGK@ENTITY_COMMS_DESTROY_FAMILY@ DB 'ENTITY_COMMS_DESTROY_'
	DB	'FAMILY', 00H				; `string'
CONST	ENDS
;	COMDAT ??_C@_0BF@IOJCDKDD@ENTITY_COMMS_DESTROY@
CONST	SEGMENT
??_C@_0BF@IOJCDKDD@ENTITY_COMMS_DESTROY@ DB 'ENTITY_COMMS_DESTROY', 00H ; `string'
CONST	ENDS
;	COMDAT ??_C@_0CD@MAFIGLA@ENTITY_COMMS_DAMAGE_WEAPON_PACK@
CONST	SEGMENT
??_C@_0CD@MAFIGLA@ENTITY_COMMS_DAMAGE_WEAPON_PACK@ DB 'ENTITY_COMMS_DAMAG'
	DB	'E_WEAPON_PACKAGE', 00H			; `string'
CONST	ENDS
;	COMDAT ??_C@_0CE@IMBIAMAK@ENTITY_COMMS_DAMAGE_PLAYER_AVIO@
CONST	SEGMENT
??_C@_0CE@IMBIAMAK@ENTITY_COMMS_DAMAGE_PLAYER_AVIO@ DB 'ENTITY_COMMS_DAMA'
	DB	'GE_PLAYER_AVIONICS', 00H			; `string'
CONST	ENDS
;	COMDAT ??_C@_0BL@ILGPFNEF@ENTITY_COMMS_DAMAGE_PLAYER@
CONST	SEGMENT
??_C@_0BL@ILGPFNEF@ENTITY_COMMS_DAMAGE_PLAYER@ DB 'ENTITY_COMMS_DAMAGE_PL'
	DB	'AYER', 00H					; `string'
CONST	ENDS
;	COMDAT ??_C@_0BL@FJLKIJMD@ENTITY_COMMS_CREATE_WEAPON@
CONST	SEGMENT
??_C@_0BL@FJLKIJMD@ENTITY_COMMS_CREATE_WEAPON@ DB 'ENTITY_COMMS_CREATE_WE'
	DB	'APON', 00H					; `string'
CONST	ENDS
;	COMDAT ??_C@_0CD@OBKNILKG@ENTITY_COMMS_CREATE_WAYPOINT_RO@
CONST	SEGMENT
??_C@_0CD@OBKNILKG@ENTITY_COMMS_CREATE_WAYPOINT_RO@ DB 'ENTITY_COMMS_CREA'
	DB	'TE_WAYPOINT_ROUTE', 00H			; `string'
CONST	ENDS
;	COMDAT ??_C@_0CB@BNOKDDDF@ENTITY_COMMS_CREATE_SOUND_EFFEC@
CONST	SEGMENT
??_C@_0CB@BNOKDDDF@ENTITY_COMMS_CREATE_SOUND_EFFEC@ DB 'ENTITY_COMMS_CREA'
	DB	'TE_SOUND_EFFECT', 00H			; `string'
CONST	ENDS
;	COMDAT ??_C@_0DG@MLBOLLNL@ENTITY_COMMS_CREATE_META_SMOKE_@
CONST	SEGMENT
??_C@_0DG@MLBOLLNL@ENTITY_COMMS_CREATE_META_SMOKE_@ DB 'ENTITY_COMMS_CREA'
	DB	'TE_META_SMOKE_LIST_SUB_OBJECT_OFFSET', 00H	; `string'
CONST	ENDS
;	COMDAT ??_C@_0DF@NBHPNIFF@ENTITY_COMMS_CREATE_META_SMOKE_@
CONST	SEGMENT
??_C@_0DF@NBHPNIFF@ENTITY_COMMS_CREATE_META_SMOKE_@ DB 'ENTITY_COMMS_CREA'
	DB	'TE_META_SMOKE_LIST_SPECIFIED_OFFSET', 00H	; `string'
CONST	ENDS
;	COMDAT ??_C@_0CD@EBIBKGKF@ENTITY_COMMS_CREATE_META_EXPLOS@
CONST	SEGMENT
??_C@_0CD@EBIBKGKF@ENTITY_COMMS_CREATE_META_EXPLOS@ DB 'ENTITY_COMMS_CREA'
	DB	'TE_META_EXPLOSION', 00H			; `string'
CONST	ENDS
;	COMDAT ??_C@_0BE@JDBDHONH@ENTITY_COMMS_CREATE@
CONST	SEGMENT
??_C@_0BE@JDBDHONH@ENTITY_COMMS_CREATE@ DB 'ENTITY_COMMS_CREATE', 00H ; `string'
CONST	ENDS
;	COMDAT ??_C@_0BI@KGDMNEFL@ENTITY_COMMS_CHAR_VALUE@
CONST	SEGMENT
??_C@_0BI@KGDMNEFL@ENTITY_COMMS_CHAR_VALUE@ DB 'ENTITY_COMMS_CHAR_VALUE', 00H ; `string'
CONST	ENDS
;	COMDAT ??_C@_0BN@OFBPGCKM@ENTITY_COMMS_CAPTURE_KEYSITE@
CONST	SEGMENT
??_C@_0BN@OFBPGCKM@ENTITY_COMMS_CAPTURE_KEYSITE@ DB 'ENTITY_COMMS_CAPTURE'
	DB	'_KEYSITE', 00H				; `string'
CONST	ENDS
;	COMDAT ??_C@_0CA@NFDIOEHE@ENTITY_COMMS_CAMPAIGN_COMPLETED@
CONST	SEGMENT
??_C@_0CA@NFDIOEHE@ENTITY_COMMS_CAMPAIGN_COMPLETED@ DB 'ENTITY_COMMS_CAMP'
	DB	'AIGN_COMPLETED', 00H			; `string'
CONST	ENDS
;	COMDAT ??_C@_0BN@GBFOHEHI@ENTITY_COMMS_ATTITUDE_MATRIX@
CONST	SEGMENT
??_C@_0BN@GBFOHEHI@ENTITY_COMMS_ATTITUDE_MATRIX@ DB 'ENTITY_COMMS_ATTITUD'
	DB	'E_MATRIX', 00H				; `string'
CONST	ENDS
;	COMDAT ??_C@_0BN@CKMAEBII@ENTITY_COMMS_ATTITUDE_ANGLES@
CONST	SEGMENT
??_C@_0BN@CKMAEBII@ENTITY_COMMS_ATTITUDE_ANGLES@ DB 'ENTITY_COMMS_ATTITUD'
	DB	'E_ANGLES', 00H				; `string'
CONST	ENDS
;	COMDAT ??_C@_0CD@NAGEICJO@ENTITY_COMMS_ADVISE_TRANSMIT_RE@
CONST	SEGMENT
??_C@_0CD@NAGEICJO@ENTITY_COMMS_ADVISE_TRANSMIT_RE@ DB 'ENTITY_COMMS_ADVI'
	DB	'SE_TRANSMIT_RECON', 00H			; `string'
CONST	ENDS
;	COMDAT ??_C@_0CC@NLAFMKFC@ENTITY_COMMS_ADD_PLANNER_WAYPOI@
CONST	SEGMENT
??_C@_0CC@NLAFMKFC@ENTITY_COMMS_ADD_PLANNER_WAYPOI@ DB 'ENTITY_COMMS_ADD_'
	DB	'PLANNER_WAYPOINT', 00H			; `string'
CONST	ENDS
;	COMDAT ??_C@_0BC@BAEMGHBC@ENTITY_COMMS_ZERO@
CONST	SEGMENT
??_C@_0BC@BAEMGHBC@ENTITY_COMMS_ZERO@ DB 'ENTITY_COMMS_ZERO', 00H ; `string'
CONST	ENDS
_DATA	SEGMENT
?entity_comms_message_database@@3PAUENTITY_COMMS_MESSAGE_DATA@@A DD FLAT:??_C@_0BC@BAEMGHBC@ENTITY_COMMS_ZERO@ ; entity_comms_message_database
	DD	00H
	DD	FLAT:??_C@_0CC@NLAFMKFC@ENTITY_COMMS_ADD_PLANNER_WAYPOI@
	DD	00H
	DD	FLAT:??_C@_0CD@NAGEICJO@ENTITY_COMMS_ADVISE_TRANSMIT_RE@
	DD	00H
	DD	FLAT:??_C@_0BN@CKMAEBII@ENTITY_COMMS_ATTITUDE_ANGLES@
	DD	00H
	DD	FLAT:??_C@_0BN@GBFOHEHI@ENTITY_COMMS_ATTITUDE_MATRIX@
	DD	00H
	DD	FLAT:??_C@_0CA@NFDIOEHE@ENTITY_COMMS_CAMPAIGN_COMPLETED@
	DD	00H
	DD	FLAT:??_C@_0BN@OFBPGCKM@ENTITY_COMMS_CAPTURE_KEYSITE@
	DD	00H
	DD	FLAT:??_C@_0BI@KGDMNEFL@ENTITY_COMMS_CHAR_VALUE@
	DD	00H
	DD	FLAT:??_C@_0BE@JDBDHONH@ENTITY_COMMS_CREATE@
	DD	00H
	DD	FLAT:??_C@_0CD@EBIBKGKF@ENTITY_COMMS_CREATE_META_EXPLOS@
	DD	00H
	DD	FLAT:??_C@_0DF@NBHPNIFF@ENTITY_COMMS_CREATE_META_SMOKE_@
	DD	00H
	DD	FLAT:??_C@_0DG@MLBOLLNL@ENTITY_COMMS_CREATE_META_SMOKE_@
	DD	00H
	DD	FLAT:??_C@_0CB@BNOKDDDF@ENTITY_COMMS_CREATE_SOUND_EFFEC@
	DD	00H
	DD	FLAT:??_C@_0CD@OBKNILKG@ENTITY_COMMS_CREATE_WAYPOINT_RO@
	DD	00H
	DD	FLAT:??_C@_0BL@FJLKIJMD@ENTITY_COMMS_CREATE_WEAPON@
	DD	00H
	DD	FLAT:??_C@_0BL@ILGPFNEF@ENTITY_COMMS_DAMAGE_PLAYER@
	DD	00H
	DD	FLAT:??_C@_0CE@IMBIAMAK@ENTITY_COMMS_DAMAGE_PLAYER_AVIO@
	DD	00H
	DD	FLAT:??_C@_0CD@MAFIGLA@ENTITY_COMMS_DAMAGE_WEAPON_PACK@
	DD	00H
	DD	FLAT:??_C@_0BF@IOJCDKDD@ENTITY_COMMS_DESTROY@
	DD	00H
	DD	FLAT:??_C@_0BM@KBHFEPGK@ENTITY_COMMS_DESTROY_FAMILY@
	DD	00H
	DD	FLAT:??_C@_0CC@BEGONDGM@ENTITY_COMMS_DESTROY_LOCAL_FAMI@
	DD	00H
	DD	FLAT:??_C@_0BB@GIMJAJGE@ENTITY_COMMS_END@
	DD	00H
	DD	FLAT:??_C@_0BJ@MNGJFBAP@ENTITY_COMMS_FLOAT_VALUE@
	DD	00H
	DD	FLAT:??_C@_0BH@OJBBHGFP@ENTITY_COMMS_INT_VALUE@
	DD	00H
	DD	FLAT:??_C@_0BC@DKIPLLCB@ENTITY_COMMS_KILL@
	DD	00H
	DD	FLAT:??_C@_0BJ@JPJLMJFL@ENTITY_COMMS_MOBILE_KILL@
	DD	00H
	DD	FLAT:??_C@_0BJ@CDFCGDMC@ENTITY_COMMS_MOBILE_LAND@
	DD	00H
	DD	FLAT:??_C@_0BM@IKCOIJLG@ENTITY_COMMS_MOBILE_TAKEOFF@
	DD	00H
	DD	FLAT:??_C@_0CD@NOHMADOE@ENTITY_COMMS_MOVE_PLANNER_WAYPO@
	DD	00H
	DD	FLAT:??_C@_0BO@DDBLOHLC@ENTITY_COMMS_PAUSE_SOUND_TYPE@
	DD	00H
	DD	FLAT:??_C@_0CF@MPNINOHL@ENTITY_COMMS_PAUSE_WEAPON_SOUND@
	DD	00H
	DD	FLAT:??_C@_0CB@IMCOMLOF@ENTITY_COMMS_PILOT_COMMUNICATIO@
	DD	00H
	DD	FLAT:??_C@_0CA@PJHJKJMB@ENTITY_COMMS_PILOT_PFZ_TRANSFER@
	DD	00H
	DD	FLAT:??_C@_0CE@BPOHHPCK@ENTITY_COMMS_PILOT_REQUEST_ACCE@
	DD	00H
	DD	FLAT:??_C@_0CG@LAKLDEPI@ENTITY_COMMS_PLAY_CPG_CONTACT_M@
	DD	00H
	DD	FLAT:??_C@_0BO@NPPHJDAP@ENTITY_COMMS_PLAY_CPG_MESSAGE@
	DD	00H
	DD	FLAT:??_C@_0CC@PHIBJEDL@ENTITY_COMMS_PLAY_WARNING_MESSA@
	DD	00H
	DD	FLAT:??_C@_0BJ@GOAPADFB@ENTITY_COMMS_PLAYER_KILL@
	DD	00H
	DD	FLAT:??_C@_0CD@OJKBALMO@ENTITY_COMMS_PLAYER_TASK_COMPLE@
	DD	00H
	DD	FLAT:??_C@_0CE@JFJALBDN@ENTITY_COMMS_PLAYER_TASK_TERMIN@
	DD	00H
	DD	FLAT:??_C@_0BL@GIDOKHEL@ENTITY_COMMS_RADIO_MESSAGE@
	DD	00H
	DD	FLAT:??_C@_0CI@NMFEHPP@ENTITY_COMMS_REPAIR_ANTI_AIRCRA@
	DD	00H
	DD	FLAT:??_C@_0CC@OIJNGFBD@ENTITY_COMMS_REPAIR_BRIDGE_ENTI@
	DD	00H
	DD	FLAT:??_C@_0CB@IMBAOKE@ENTITY_COMMS_REQUEST_TARGET_LIS@
	DD	00H
	DD	FLAT:??_C@_0BM@IFFAJJFF@ENTITY_COMMS_RESTORE_ENTITY@
	DD	00H
	DD	FLAT:??_C@_0CC@BHFPJJBN@ENTITY_COMMS_RESTORE_FIXED_ENTI@
	DD	00H
	DD	FLAT:??_C@_0BP@KMLAEFAI@ENTITY_COMMS_RESUME_SOUND_TYPE@
	DD	00H
	DD	FLAT:??_C@_0CH@EJBGMHEM@ENTITY_COMMS_ROUTED_VEHICLE_ROU@
	DD	00H
	DD	FLAT:??_C@_0BO@BPMNLAPG@ENTITY_COMMS_SEND_TARGET_LIST@
	DD	00H
	DD	FLAT:??_C@_0CG@JNPGAFPD@ENTITY_COMMS_SET_EXTERNAL_VIEW_@
	DD	00H
	DD	FLAT:??_C@_0CA@DFBCMJCM@ENTITY_COMMS_SET_GUIDE_CRITERIA@
	DD	00H
	DD	FLAT:??_C@_0CH@JPOLAEHG@ENTITY_COMMS_SET_GUIDE_POSITION@
	DD	00H
	DD	FLAT:??_C@_0BP@MNGLEKGG@ENTITY_COMMS_SET_TASK_POINTERS@
	DD	00H
	DD	FLAT:??_C@_0BK@PBNAPCAB@ENTITY_COMMS_SET_WAYPOINT@
	DD	00H
	DD	FLAT:??_C@_0BM@FAMIBALJ@ENTITY_COMMS_SPEECH_MESSAGE@
	DD	00H
	DD	FLAT:??_C@_0BE@BGGHCGFN@ENTITY_COMMS_STRING@
	DD	00H
	DD	FLAT:??_C@_0BJ@FEFOFPIO@ENTITY_COMMS_SWITCH_LIST@
	DD	00H
	DD	FLAT:??_C@_0BL@GDOPPIPJ@ENTITY_COMMS_SWITCH_PARENT@
	DD	00H
	DD	FLAT:??_C@_0CB@MNFPAOIB@ENTITY_COMMS_TASK_ASSIGN_REQUES@
	DD	00H
	DD	FLAT:??_C@_0CA@NOFOHJDA@ENTITY_COMMS_TASK_ASSIGN_RESULT@
	DD	00H
	DD	FLAT:??_C@_0BH@OFPIJIPP@ENTITY_COMMS_TASK_KILL@
	DD	00H
	DD	FLAT:??_C@_0BH@KIJDPBOA@ENTITY_COMMS_TASK_LOSS@
	DD	00H
	DD	FLAT:??_C@_0BE@OHLFFPJI@ENTITY_COMMS_UPDATE@
	DD	00H
	DD	FLAT:??_C@_0BP@PHHFPKOH@ENTITY_COMMS_UPDATE_FOG_OF_WAR@
	DD	00H
	DD	FLAT:??_C@_0CA@PFDDKMJO@ENTITY_COMMS_UPDATE_SECTOR_SIDE@
	DD	00H
	DD	FLAT:??_C@_0CG@BNNIAKNO@ENTITY_COMMS_UPDATE_SECTOR_SIDE@
	DD	00H
	DD	FLAT:??_C@_0BD@KFDANGJL@ENTITY_COMMS_VEC3D@
	DD	00H
	DD	FLAT:??_C@_0CD@INNBAGGM@ENTITY_COMMS_ZERO_DESIRED_VELOC@
	DD	00H
	DD	FLAT:??_C@_0BL@HEGJAFJI@ENTITY_COMMS_ZERO_VELOCITY@
	DD	00H
_DATA	ENDS
PUBLIC	___local_stdio_printf_options
PUBLIC	__vsnprintf_l
PUBLIC	__vsprintf_l
PUBLIC	_sprintf
PUBLIC	?enable_entity_comms_messages@@YGXXZ		; enable_entity_comms_messages
PUBLIC	?disable_entity_comms_messages@@YGXXZ		; disable_entity_comms_messages
PUBLIC	?transmit_entity_comms_message@@YAXW4ENTITY_COMMS_MESSAGES@@PAUENTITY@@ZZ ; transmit_entity_comms_message
PUBLIC	?transmit_pfz@@YGXPAUENTITY@@0MMMMMMMMQAPAU1@@Z	; transmit_pfz
PUBLIC	?process_received_entity_comms_messages@@YGXXZ	; process_received_entity_comms_messages
PUBLIC	?pack_entity_comms_message@@YGXW4ENTITY_COMMS_MESSAGES@@@Z ; pack_entity_comms_message
PUBLIC	?unpack_entity_comms_message@@YG?AW4ENTITY_COMMS_MESSAGES@@XZ ; unpack_entity_comms_message
PUBLIC	??$min@H@std@@YGABHABH0@Z			; std::min<int>
PUBLIC	?_OptionsStorage@?1??__local_stdio_printf_options@@9@4_KA ; `__local_stdio_printf_options'::`2'::_OptionsStorage
PUBLIC	??_C@_02DKCKIIND@?$CFs@				; `string'
PUBLIC	??_C@_0CC@ONCEHADK@Setting?5comms?5messages?5to?5ENABL@ ; `string'
PUBLIC	??_C@_0CD@PKGFAOAM@Setting?5comms?5messages?5to?5DISAB@ ; `string'
PUBLIC	?__LINE__Var@?0??transmit_entity_comms_message@@YAXW4ENTITY_COMMS_MESSAGES@@PAUENTITY@@ZZ@4JA ; `transmit_entity_comms_message'::`1'::__LINE__Var
PUBLIC	??_C@_0CO@GJCCLBOC@ENTITY_COMMS_ZERO?5encountered?5d@ ; `string'
PUBLIC	??_C@_0EO@OCMIKFBI@c?3?2users?2nhv90?2projects?2eech?2ap@ ; `string'
PUBLIC	??_C@_02LFNMGJAP@en@				; `string'
PUBLIC	??_C@_0CJ@DMBLBJBK@get_comms_model?5?$CI?$CJ?5?$DN?$DN?5COMMS_MOD@ ; `string'
PUBLIC	??_C@_03HDFHKHFK@?$CBen@			; `string'
PUBLIC	??_C@_08EAFLGIKM@launcher@			; `string'
PUBLIC	??_C@_0CP@MAFEAOFK@entity_sub_type_weapon_valid?5?$CIw@ ; `string'
PUBLIC	??_C@_0P@DFFDGLE@burst_size?5?$DO?50@		; `string'
PUBLIC	??_C@_0CD@KEKOAANN@burst_size?5?$DN?$DN?5BURST_SIZE_DONT_C@ ; `string'
PUBLIC	??_C@_0CO@CCKHDPGI@smoke_trail_type?5?$CB?$DN?5META_SMOKE_@ ; `string'
PUBLIC	??_C@_0BN@OGACAFKK@num_smoke_trail_entities?5?$DO?50@ ; `string'
PUBLIC	??_C@_06GPEKEEBB@victim@			; `string'
PUBLIC	??_C@_02HODPCBMO@wp@				; `string'
PUBLIC	??_C@_07ONPBMBOP@message@			; `string'
PUBLIC	??_C@_0BA@FCGNACJO@message?5?$DN?$DN?5NULL@	; `string'
PUBLIC	??_C@_0BM@ELIHFJKD@Use?5transmit_pfz?$CI?$CJ?5function@ ; `string'
PUBLIC	??_C@_0BP@BKAJBABJ@?$CB?$CCUse?5transmit_pfz?$CI?$CJ?5function?$CC@ ; `string'
PUBLIC	??_C@_0DN@PHCNGHE@EN_COMMS?3?5sending?5Pilot?5request@ ; `string'
PUBLIC	??_C@_0DM@IPDNEBDA@EN_COMMS?3?5sending?5player?5task?5?$CF@ ; `string'
PUBLIC	??_C@_0DN@IGCFFEGL@EN_COMMS?3?5sending?5player?5task?5?$CF@ ; `string'
PUBLIC	??_C@_0DA@LNAMKNMB@get_local_entity_type?5?$CIen?$CJ?5?$DN?$DN?5E@ ; `string'
PUBLIC	??_C@_0DB@ENGEBKMD@get_local_entity_type?5?$CIen?$CJ?5?$DN?$DN?5E@ ; `string'
PUBLIC	??_C@_0M@BLMAJMLK@destination@			; `string'
PUBLIC	??_C@_0BB@OCHIJAA@target_count?5?$DO?50@	; `string'
PUBLIC	??_C@_0L@MMBMMAEK@index_list@			; `string'
PUBLIC	??_C@_0DA@BGABFO@get_local_entity_type?5?$CIen?$CJ?5?$DN?$DN?5E@ ; `string'
PUBLIC	??_C@_0CJ@HDFJMCJJ@get_comms_model?5?$CI?$CJ?5?$DN?$DN?5COMMS_MOD@ ; `string'
PUBLIC	??_C@_0DA@NDIHHFDN@get_local_entity_type?5?$CIen?$CJ?5?$DN?$DN?5E@ ; `string'
PUBLIC	??_C@_0DA@INDMAMHB@EN_COMMS?3?5sending?5assign?5task?5r@ ; `string'
PUBLIC	??_C@_0DB@DBNDGDFO@EN_COMMS?3?5sending?5assign?5task?5?$CF@ ; `string'
PUBLIC	??_C@_0CN@EGPAMJPG@EN_COMMS?3?5sending?5assign?5task?5r@ ; `string'
PUBLIC	??_C@_0EL@HBMCHNPH@EN_COMMS?3?5sending?5task?5kill?5for@ ; `string'
PUBLIC	??_C@_0EL@LLAFPFKC@EN_COMMS?3?5sending?5task?5loss?5for@ ; `string'
PUBLIC	??_C@_0CL@GFMDOBCA@Transmit?5invalid?5entity?5comms?5m@ ; `string'
PUBLIC	?__LINE__Var@?0??process_received_entity_comms_messages@@YGXXZ@4JA ; `process_received_entity_comms_messages'::`1'::__LINE__Var
PUBLIC	??_C@_0DO@NKOCAKEK@direct_play_get_comms_mode?5?$CI?$CJ?5?$DN@ ; `string'
PUBLIC	??_C@_0CN@KOHHCGAN@ENTITY_COMMS_ZERO?5encountered?5d@ ; `string'
PUBLIC	??_C@_0BG@PFNEBFLH@ADVISE_TRANSMIT_RECON@	; `string'
PUBLIC	??_C@_0CD@GAOMIKLP@num_bytes?5?$DM?$DN?5ATTRIBUTE_BUFFER_S@ ; `string'
PUBLIC	??_C@_0BB@CNAIJEEO@sample_count?5?$DO?50@	; `string'
PUBLIC	??_C@_0CP@NOFCFJBB@EN_COMMS?3?5created?5route?5on?5clie@ ; `string'
PUBLIC	??_C@_0DA@GDENJLMD@get_local_entity_type?5?$CIen?$CJ?5?$DN?$DN?5E@ ; `string'
PUBLIC	??_C@_0O@DEGLOFLI@Attack?5PFZ?5?$CFd@		; `string'
PUBLIC	??_C@_0DO@PIAHAFOJ@EN_COMMS?3?5received?5Pilot?5reques@ ; `string'
PUBLIC	??_C@_04GGKLLKOO@task@				; `string'
PUBLIC	??_C@_0DN@JILJIBKE@EN_COMMS?3?5received?5player?5task?5@ ; `string'
PUBLIC	??_C@_0DO@HBFAIHPG@EN_COMMS?3?5received?5player?5task?5@ ; `string'
PUBLIC	??_C@_0DB@FPHBFJNE@get_local_entity_type?5?$CItask?$CJ?5?$DN?$DN@ ; `string'
PUBLIC	??_C@_0DB@IKKJPGJC@EN_COMMS?3?5received?5assign?5task?5@ ; `string'
PUBLIC	??_C@_0CM@EEJKLHIL@?$CBforce_local_entity_create_stac@ ; `string'
PUBLIC	??_C@_06INMLIBCJ@mobile@			; `string'
PUBLIC	??_C@_0DC@INHEFGG@EN_COMMS?3?5received?5assign?5task?5@ ; `string'
PUBLIC	??_C@_0CO@KBPHBAEN@EN_COMMS?3?5received?5assign?5task?5@ ; `string'
PUBLIC	??_C@_0EM@CLMCCEIB@EN_COMMS?3?5received?5task?5kill?5fo@ ; `string'
PUBLIC	??_C@_0EM@OBAFKMNE@EN_COMMS?3?5received?5task?5loss?5fo@ ; `string'
PUBLIC	??_C@_0CL@BOMDEDKH@Received?5invalid?5entity?5comms?5m@ ; `string'
PUBLIC	?__LINE__Var@?0??pack_entity_comms_message@@YGXW4ENTITY_COMMS_MESSAGES@@@Z@4JA ; `pack_entity_comms_message'::`1'::__LINE__Var
PUBLIC	??_C@_0DI@FBBPJLNA@?$CImessage?5?$DO?$DN?50?$CJ?5?$CG?$CG?5?$CImessage?5?$DM?5NU@ ; `string'
PUBLIC	??_C@_0DB@ILMOKKE@?$CB?$CImessage?5?$DO?$DO?5NUM_ENTITY_COMMS_M@ ; `string'
PUBLIC	?__LINE__Var@?0??unpack_entity_comms_message@@YG?AW4ENTITY_COMMS_MESSAGES@@XZ@4JA ; `unpack_entity_comms_message'::`1'::__LINE__Var
PUBLIC	??_C@_0BD@FEEMDEPI@invalid?5comparator@		; `string'
PUBLIC	??_C@_0GK@JMBMHIBC@c?3?2program?5files?5?$CIx86?$CJ?2microsof@ ; `string'
PUBLIC	??_C@_1NE@FKBPBJEB@?$AAc?$AA?3?$AA?2?$AAp?$AAr?$AAo?$AAg?$AAr?$AAa?$AAm?$AA?5?$AAf?$AAi?$AAl?$AAe@ ; `string'
PUBLIC	??_C@_1BC@BLAPCBGI@?$AAs?$AAt?$AAd?$AA?3?$AA?3?$AAm?$AAi?$AAn@ ; `string'
PUBLIC	??_C@_1CK@NDNHPKPI@?$AA?$CC?$AAi?$AAn?$AAv?$AAa?$AAl?$AAi?$AAd?$AA?5?$AAc?$AAo?$AAm?$AAp?$AAa?$AAr@ ; `string'
PUBLIC	__real@0000000000000000
PUBLIC	__real@447a0000
PUBLIC	__xmm@41f00000000000000000000000000000
EXTRN	__imp___invalid_parameter:PROC
EXTRN	__imp____stdio_common_vsprintf:PROC
EXTRN	_memset:PROC
EXTRN	__imp___CrtDbgReport:PROC
EXTRN	?process_assert@@YGXPBD0H@Z:PROC		; process_assert
EXTRN	?debug_fatal@@YAXPBDZZ:PROC			; debug_fatal
EXTRN	?debug_log@@YAXPBDZZ:PROC			; debug_log
EXTRN	?get_system_time@@YGIXZ:PROC			; get_system_time
EXTRN	?malloc_fast_memory@@YGPAXI@Z:PROC		; malloc_fast_memory
EXTRN	?malloc_heap_memory@@YGPAXI@Z:PROC		; malloc_heap_memory
EXTRN	?free_mem@@YGXPAX@Z:PROC			; free_mem
EXTRN	?direct_play_get_player_id@@YGHXZ:PROC		; direct_play_get_player_id
EXTRN	?pack_entity_type@@YGXW4ENTITY_TYPES@@@Z:PROC	; pack_entity_type
EXTRN	?unpack_entity_type@@YG?AW4ENTITY_TYPES@@XZ:PROC ; unpack_entity_type
EXTRN	?set_comms_data_flow@@YGXW4COMMS_DATA_FLOW_TYPES@@@Z:PROC ; set_comms_data_flow
EXTRN	?notify_local_entity@@YAHW4ENTITY_MESSAGES@@PAUENTITY@@1ZZ:PROC ; notify_local_entity
EXTRN	?pack_entity_attributes@@YGXPBD@Z:PROC		; pack_entity_attributes
EXTRN	?unpack_entity_attributes@@YGHPAD@Z:PROC	; unpack_entity_attributes
EXTRN	?unpack_client_server_entity_data@@YGXPAUENTITY@@@Z:PROC ; unpack_client_server_entity_data
EXTRN	?pack_unsigned_data@@YGXIH@Z:PROC		; pack_unsigned_data
EXTRN	?unpack_unsigned_data@@YGIH@Z:PROC		; unpack_unsigned_data
EXTRN	?insert_local_entity_into_parents_child_list@@YGXPAUENTITY@@W4LIST_TYPES@@00@Z:PROC ; insert_local_entity_into_parents_child_list
EXTRN	?delete_local_entity_from_parents_child_list@@YGXPAUENTITY@@W4LIST_TYPES@@@Z:PROC ; delete_local_entity_from_parents_child_list
EXTRN	?pack_list_type@@YGXW4LIST_TYPES@@@Z:PROC	; pack_list_type
EXTRN	?unpack_list_type@@YG?AW4LIST_TYPES@@XZ:PROC	; unpack_list_type
EXTRN	?set_client_server_entity_parent@@YGXPAUENTITY@@W4LIST_TYPES@@0@Z:PROC ; set_client_server_entity_parent
EXTRN	?pack_attitude_matrix@@YGXPAUENTITY@@QAY02M@Z:PROC ; pack_attitude_matrix
EXTRN	?unpack_attitude_matrix@@YGXPAUENTITY@@QAY02M@Z:PROC ; unpack_attitude_matrix
EXTRN	?pack_attitude_angles@@YGXPAUENTITY@@MMM@Z:PROC	; pack_attitude_angles
EXTRN	?unpack_attitude_angles@@YGXPAUENTITY@@PAM11@Z:PROC ; unpack_attitude_angles
EXTRN	?pack_char_value@@YGXPAUENTITY@@W4CHAR_TYPES@@D@Z:PROC ; pack_char_value
EXTRN	?unpack_char_value@@YGDPAUENTITY@@W4CHAR_TYPES@@@Z:PROC ; unpack_char_value
EXTRN	?pack_char_type@@YGXW4CHAR_TYPES@@@Z:PROC	; pack_char_type
EXTRN	?unpack_char_type@@YG?AW4CHAR_TYPES@@XZ:PROC	; unpack_char_type
EXTRN	?create_client_server_entity@@YAPAUENTITY@@W4ENTITY_TYPES@@HZZ:PROC ; create_client_server_entity
EXTRN	?pack_float_value@@YGXPAUENTITY@@W4FLOAT_TYPES@@M@Z:PROC ; pack_float_value
EXTRN	?unpack_float_value@@YGMPAUENTITY@@W4FLOAT_TYPES@@@Z:PROC ; unpack_float_value
EXTRN	?pack_float_type@@YGXW4FLOAT_TYPES@@@Z:PROC	; pack_float_type
EXTRN	?unpack_float_type@@YG?AW4FLOAT_TYPES@@XZ:PROC	; unpack_float_type
EXTRN	?pack_int_value@@YGXPAUENTITY@@W4INT_TYPES@@H@Z:PROC ; pack_int_value
EXTRN	?unpack_int_value@@YGHPAUENTITY@@W4INT_TYPES@@@Z:PROC ; unpack_int_value
EXTRN	?pack_int_type@@YGXW4INT_TYPES@@@Z:PROC		; pack_int_type
EXTRN	?unpack_int_type@@YG?AW4INT_TYPES@@XZ:PROC	; unpack_int_type
EXTRN	?pack_string@@YGXPAUENTITY@@W4STRING_TYPES@@PBD@Z:PROC ; pack_string
EXTRN	?unpack_string@@YGXPAUENTITY@@W4STRING_TYPES@@PAD@Z:PROC ; unpack_string
EXTRN	?pack_string_type@@YGXW4STRING_TYPES@@@Z:PROC	; pack_string_type
EXTRN	?unpack_string_type@@YG?AW4STRING_TYPES@@XZ:PROC ; unpack_string_type
EXTRN	?pack_vec3d@@YGXPAUENTITY@@W4VEC3D_TYPES@@PAUVEC3D@@@Z:PROC ; pack_vec3d
EXTRN	?unpack_vec3d@@YGXPAUENTITY@@W4VEC3D_TYPES@@PAUVEC3D@@@Z:PROC ; unpack_vec3d
EXTRN	?pack_vec3d_type@@YGXW4VEC3D_TYPES@@@Z:PROC	; pack_vec3d_type
EXTRN	?unpack_vec3d_type@@YG?AW4VEC3D_TYPES@@XZ:PROC	; unpack_vec3d_type
EXTRN	?pack_entity_safe_index@@YGXH@Z:PROC		; pack_entity_safe_index
EXTRN	?unpack_entity_safe_index@@YGHXZ:PROC		; unpack_entity_safe_index
EXTRN	?pack_entity_safe_ptr@@YGXPAUENTITY@@@Z:PROC	; pack_entity_safe_ptr
EXTRN	?unpack_entity_safe_ptr@@YGPAUENTITY@@XZ:PROC	; unpack_entity_safe_ptr
EXTRN	?restore_local_fixed_entity@@YGXPAUENTITY@@@Z:PROC ; restore_local_fixed_entity
EXTRN	?create_client_server_entity_weapon@@YGXPAUENTITY@@HHHPAH@Z:PROC ; create_client_server_entity_weapon
EXTRN	?set_client_server_entity_weapon_damage@@YGXPAUENTITY@@HHH@Z:PROC ; set_client_server_entity_weapon_damage
EXTRN	?restore_helicopter_entity@@YGXPAUENTITY@@PAUVEC3D@@W4OPERATIONAL_STATE_TYPES@@@Z:PROC ; restore_helicopter_entity
EXTRN	?notify_gunship_entity_mission_completed@@YGXPAUENTITY@@0@Z:PROC ; notify_gunship_entity_mission_completed
EXTRN	?notify_gunship_entity_mission_terminated@@YGXPAUENTITY@@0@Z:PROC ; notify_gunship_entity_mission_terminated
EXTRN	?repair_local_bridge_entity@@YGXPAUENTITY@@@Z:PROC ; repair_local_bridge_entity
EXTRN	?set_external_view_entity@@YGXPAUENTITY@@@Z:PROC ; set_external_view_entity
EXTRN	?create_meta_explosion@@YGHW4META_EXPLOSION_TYPES@@PAUVEC3D@@PAUENTITY@@PAH@Z:PROC ; create_meta_explosion
EXTRN	?count_entities_in_meta_explosion@@YGHW4META_EXPLOSION_TYPES@@@Z:PROC ; count_entities_in_meta_explosion
EXTRN	?create_meta_smoke_list_sub_object_offset@@YGHW4META_SMOKE_LIST_TYPES@@PAUENTITY@@HHPAH@Z:PROC ; create_meta_smoke_list_sub_object_offset
EXTRN	?create_meta_smoke_list_specified_offset@@YGHW4META_SMOKE_LIST_TYPES@@PAUENTITY@@PAUVEC3D@@PAH@Z:PROC ; create_meta_smoke_list_specified_offset
EXTRN	?count_entities_in_meta_smoke_list@@YGHW4META_SMOKE_LIST_TYPES@@@Z:PROC ; count_entities_in_meta_smoke_list
EXTRN	?play_client_server_cpg_message@@YGHPAUENTITY@@MMHMH@Z:PROC ; play_client_server_cpg_message
EXTRN	?play_client_server_cpg_contact_message@@YGHPAUENTITY@@HHH@Z:PROC ; play_client_server_cpg_contact_message
EXTRN	?play_client_server_warning_message@@YGHPAUENTITY@@H@Z:PROC ; play_client_server_warning_message
EXTRN	?pause_local_entity_sound_type@@YGHPAUENTITY@@HM@Z:PROC ; pause_local_entity_sound_type
EXTRN	?resume_local_entity_sound_type@@YGHPAUENTITY@@H@Z:PROC ; resume_local_entity_sound_type
EXTRN	?pause_local_continuous_weapon_sound_effect@@YGXPAUENTITY@@H@Z:PROC ; pause_local_continuous_weapon_sound_effect
EXTRN	?create_local_sound_effect_entity@@YGPAUENTITY@@HPAU1@W4ENTITY_SIDES@@HW4SOUND_CHANNEL_TYPES@@W4SOUND_LOCALITY_TYPES@@PAUVEC3D@@MMHHHPAH@Z:PROC ; create_local_sound_effect_entity
EXTRN	?add_mobile_to_force_kills_stats@@YGXPAUENTITY@@0@Z:PROC ; add_mobile_to_force_kills_stats
EXTRN	?set_guide_new_waypoint@@YGHPAUENTITY@@0@Z:PROC	; set_guide_new_waypoint
EXTRN	?set_local_guide_criteria_valid@@YGXPAUENTITY@@W4GUIDE_CRITERIA_TYPES@@HM@Z:PROC ; set_local_guide_criteria_valid
EXTRN	?change_local_keysite_building_sides@@YGXPAUENTITY@@W4ENTITY_SIDES@@@Z:PROC ; change_local_keysite_building_sides
EXTRN	?set_pilot_entity@@YGXPAUENTITY@@@Z:PROC	; set_pilot_entity
EXTRN	?update_sector_fog_of_war@@YGXXZ:PROC		; update_sector_fog_of_war
EXTRN	?update_sector_side_count@@YGXXZ:PROC		; update_sector_side_count
EXTRN	?add_kill_to_task@@YGXPAUENTITY@@00@Z:PROC	; add_kill_to_task
EXTRN	?add_loss_to_task@@YGXPAUENTITY@@00@Z:PROC	; add_loss_to_task
EXTRN	?set_status_message@@YGXPBDW4STATUS_MESSAGE_TYPES@@@Z:PROC ; set_status_message
EXTRN	?get_number_of_valid_gunship_targets@@YGHPAUENTITY@@@Z:PROC ; get_number_of_valid_gunship_targets
EXTRN	?get_valid_gunship_target_safe_index@@YGHPAUENTITY@@H@Z:PROC ; get_valid_gunship_target_safe_index
EXTRN	?set_valid_gunship_target_safe_index@@YGXH@Z:PROC ; set_valid_gunship_target_safe_index
EXTRN	?damage_gunship@@YGXW4GUNSHIP_DAMAGE_LEVELS@@@Z:PROC ; damage_gunship
EXTRN	?add_pfz@@YGXPAUVEC3D@@000@Z:PROC		; add_pfz
EXTRN	?dynamics_damage_model@@YGXIH@Z:PROC		; dynamics_damage_model
EXTRN	?message_text_type_send_string@@YGHW4MESSAGE_TEXT_TYPES@@@Z:PROC ; message_text_type_send_string
EXTRN	?set_incoming_message@@YGXPAUENTITY@@0W4MESSAGE_TEXT_TYPES@@PAD@Z:PROC ; set_incoming_message
EXTRN	?process_radio_message@@YGXPAUENTITY@@W4MESSAGE_CATEGORIES@@H@Z:PROC ; process_radio_message
EXTRN	?get_trans@@YGPBDPBD@Z:PROC			; get_trans
EXTRN	?get_current_player_log@@YGPAUPLAYER_LOG_TYPE@@XZ:PROC ; get_current_player_log
EXTRN	?inc_player_log_kills@@YGXHPAUPLAYER_LOG_TYPE@@PAUENTITY@@@Z:PROC ; inc_player_log_kills
EXTRN	?map_add_waypoint@@YGXPAUENTITY@@PAUVEC3D@@@Z:PROC ; map_add_waypoint
EXTRN	?player_assigned_new_task@@YGXPAUENTITY@@0@Z:PROC ; player_assigned_new_task
EXTRN	?campaign_completed@@YGXW4ENTITY_SIDES@@W4CAMPAIGN_COMPLETED_TYPES@@@Z:PROC ; campaign_completed
EXTRN	?notify_clear_current_selections@@YGXPAUUI_OBJECT@@PAX@Z:PROC ; notify_clear_current_selections
EXTRN	?get_road_sub_route@@YGPAUNODE_LINK_DATA@@HHPAHPAU1@@Z:PROC ; get_road_sub_route
EXTRN	?respond_to_player_task_assign_request@@YGXPAUENTITY@@00@Z:PROC ; respond_to_player_task_assign_request
EXTRN	?engage_specific_targets@@YGXPAUENTITY@@QAPAU1@@Z:PROC ; engage_specific_targets
EXTRN	?create_generic_waypoint_route@@YGHPAUENTITY@@00PAUVEC3D@@1PAIH@Z:PROC ; create_generic_waypoint_route
EXTRN	?update_imap_sector_side@@YGXPAUENTITY@@H@Z:PROC ; update_imap_sector_side
EXTRN	?direct_play_comms_mode@@3W4DIRECT_PLAY_COMMS_MODE_TYPES@@A:DWORD ; direct_play_comms_mode
EXTRN	?null_entity_pointer_message@@3PBDB:DWORD	; null_entity_pointer_message
EXTRN	?global_options@@3UGLOBAL_OPTIONS_DATA@@A:BYTE	; global_options
EXTRN	?system_comms_model@@3W4COMMS_MODEL_TYPES@@A:DWORD ; system_comms_model
EXTRN	?comms_weapon_lag_timing@@3HA:DWORD		; comms_weapon_lag_timing
EXTRN	?comms_weapon_lag_time@@3MA:DWORD		; comms_weapon_lag_time
EXTRN	?fn_pack_local_entity_data@@3PAP6GXPAUENTITY@@W4PACK_MODES@@@ZA:BYTE ; fn_pack_local_entity_data
EXTRN	?overload_invalid_list_type_message@@3PBDB:DWORD ; overload_invalid_list_type_message
EXTRN	?fn_get_local_entity_first_child@@3PAY0CN@P6GPAUENTITY@@PAU1@W4LIST_TYPES@@@ZA:BYTE ; fn_get_local_entity_first_child
EXTRN	?fn_get_local_entity_parent@@3PAY0CN@P6GPAUENTITY@@PAU1@W4LIST_TYPES@@@ZA:BYTE ; fn_get_local_entity_parent
EXTRN	?fn_get_local_entity_child_succ@@3PAY0CN@P6GPAUENTITY@@PAU1@W4LIST_TYPES@@@ZA:BYTE ; fn_get_local_entity_child_succ
EXTRN	?fn_set_client_server_entity_attitude_matrix@@3PAY01P6GXPAUENTITY@@QAY02M@ZA:BYTE ; fn_set_client_server_entity_attitude_matrix
EXTRN	?fn_set_client_server_entity_attitude_angles@@3PAY01P6GXPAUENTITY@@MMM@ZA:BYTE ; fn_set_client_server_entity_attitude_angles
EXTRN	?overload_invalid_char_type_message@@3PBDB:DWORD ; overload_invalid_char_type_message
EXTRN	?fn_set_client_server_entity_char_value@@3PAY111P6GXPAUENTITY@@W4CHAR_TYPES@@D@ZA:BYTE ; fn_set_client_server_entity_char_value
EXTRN	?force_local_entity_create_stack_attributes@@3HA:DWORD ; force_local_entity_create_stack_attributes
EXTRN	?fn_destroy_client_server_entity@@3PAY01P6GXPAUENTITY@@@ZA:BYTE ; fn_destroy_client_server_entity
EXTRN	?fn_destroy_local_entity_family@@3PAP6GXPAUENTITY@@@ZA:BYTE ; fn_destroy_local_entity_family
EXTRN	?fn_destroy_client_server_entity_family@@3PAY01P6GXPAUENTITY@@@ZA:BYTE ; fn_destroy_client_server_entity_family
EXTRN	?fn_kill_client_server_entity@@3PAY01P6GXPAUENTITY@@@ZA:BYTE ; fn_kill_client_server_entity
EXTRN	?float_type_database@@3PAUFLOAT_TYPE_DATA@@A:BYTE ; float_type_database
EXTRN	?overload_invalid_float_type_message@@3PBDB:DWORD ; overload_invalid_float_type_message
EXTRN	?fn_set_local_entity_float_value@@3PAY0KP@P6GXPAUENTITY@@W4FLOAT_TYPES@@M@ZA:BYTE ; fn_set_local_entity_float_value
EXTRN	?fn_set_client_server_entity_float_value@@3PAY1KP@1P6GXPAUENTITY@@W4FLOAT_TYPES@@M@ZA:BYTE ; fn_set_client_server_entity_float_value
EXTRN	?int_type_database@@3PAUINT_TYPE_DATA@@A:BYTE	; int_type_database
EXTRN	?overload_invalid_int_type_message@@3PBDB:DWORD	; overload_invalid_int_type_message
EXTRN	?fn_set_local_entity_int_value@@3PAY0BBH@P6GXPAUENTITY@@W4INT_TYPES@@H@ZA:BYTE ; fn_set_local_entity_int_value
EXTRN	?fn_set_client_server_entity_int_value@@3PAY1BBH@1P6GXPAUENTITY@@W4INT_TYPES@@H@ZA:BYTE ; fn_set_client_server_entity_int_value
EXTRN	?fn_get_local_entity_int_value@@3PAY0BBH@P6GHPAUENTITY@@W4INT_TYPES@@@ZA:BYTE ; fn_get_local_entity_int_value
EXTRN	?overload_invalid_ptr_type_message@@3PBDB:DWORD	; overload_invalid_ptr_type_message
EXTRN	?fn_set_local_entity_ptr_value@@3PAY0BE@P6GXPAUENTITY@@W4PTR_TYPES@@PAX@ZA:BYTE ; fn_set_local_entity_ptr_value
EXTRN	?overload_invalid_string_type_message@@3PBDB:DWORD ; overload_invalid_string_type_message
EXTRN	?fn_set_client_server_entity_string@@3PAY1N@1P6GXPAUENTITY@@W4STRING_TYPES@@PBD@ZA:BYTE ; fn_set_client_server_entity_string
EXTRN	?fn_get_local_entity_string@@3PAY0N@P6GPBDPAUENTITY@@W4STRING_TYPES@@@ZA:BYTE ; fn_get_local_entity_string
EXTRN	?overload_invalid_vec3d_type_message@@3PBDB:DWORD ; overload_invalid_vec3d_type_message
EXTRN	?fn_set_client_server_entity_vec3d@@3PAY1BI@1P6GXPAUENTITY@@W4VEC3D_TYPES@@PAUVEC3D@@@ZA:BYTE ; fn_set_client_server_entity_vec3d
EXTRN	?entities@@3PAUENTITY@@A:DWORD			; entities
EXTRN	?weapon_database@@3PAUWEAPON_DATA@@A:BYTE	; weapon_database
EXTRN	?gunship_entity@@3PAUENTITY@@A:DWORD		; gunship_entity
EXTRN	?pilot_entity@@3PAUENTITY@@A:DWORD		; pilot_entity
EXTRN	?next_free_pfz@@3IA:DWORD			; next_free_pfz
EXTRN	__fltused:DWORD
;	COMDAT ?_OptionsStorage@?1??__local_stdio_printf_options@@9@4_KA
_BSS	SEGMENT
?_OptionsStorage@?1??__local_stdio_printf_options@@9@4_KA DQ 01H DUP (?) ; `__local_stdio_printf_options'::`2'::_OptionsStorage
_BSS	ENDS
_BSS	SEGMENT
?attribute_buffer@@3PADA DB 03e8H DUP (?)		; attribute_buffer
_BSS	ENDS
;	COMDAT __xmm@41f00000000000000000000000000000
CONST	SEGMENT
__xmm@41f00000000000000000000000000000 DB 00H, 00H, 00H, 00H, 00H, 00H, 00H
	DB	00H, 00H, 00H, 00H, 00H, 00H, 00H, 0f0H, 'A'
CONST	ENDS
;	COMDAT __real@447a0000
CONST	SEGMENT
__real@447a0000 DD 0447a0000r			; 1000
CONST	ENDS
;	COMDAT __real@0000000000000000
CONST	SEGMENT
__real@0000000000000000 DQ 00000000000000000r	; 0
CONST	ENDS
;	COMDAT ??_C@_1CK@NDNHPKPI@?$AA?$CC?$AAi?$AAn?$AAv?$AAa?$AAl?$AAi?$AAd?$AA?5?$AAc?$AAo?$AAm?$AAp?$AAa?$AAr@
CONST	SEGMENT
??_C@_1CK@NDNHPKPI@?$AA?$CC?$AAi?$AAn?$AAv?$AAa?$AAl?$AAi?$AAd?$AA?5?$AAc?$AAo?$AAm?$AAp?$AAa?$AAr@ DB '"'
	DB	00H, 'i', 00H, 'n', 00H, 'v', 00H, 'a', 00H, 'l', 00H, 'i', 00H
	DB	'd', 00H, ' ', 00H, 'c', 00H, 'o', 00H, 'm', 00H, 'p', 00H, 'a'
	DB	00H, 'r', 00H, 'a', 00H, 't', 00H, 'o', 00H, 'r', 00H, '"', 00H
	DB	00H, 00H					; `string'
CONST	ENDS
;	COMDAT ??_C@_1BC@BLAPCBGI@?$AAs?$AAt?$AAd?$AA?3?$AA?3?$AAm?$AAi?$AAn@
CONST	SEGMENT
??_C@_1BC@BLAPCBGI@?$AAs?$AAt?$AAd?$AA?3?$AA?3?$AAm?$AAi?$AAn@ DB 's', 00H
	DB	't', 00H, 'd', 00H, ':', 00H, ':', 00H, 'm', 00H, 'i', 00H, 'n'
	DB	00H, 00H, 00H				; `string'
CONST	ENDS
;	COMDAT ??_C@_1NE@FKBPBJEB@?$AAc?$AA?3?$AA?2?$AAp?$AAr?$AAo?$AAg?$AAr?$AAa?$AAm?$AA?5?$AAf?$AAi?$AAl?$AAe@
CONST	SEGMENT
??_C@_1NE@FKBPBJEB@?$AAc?$AA?3?$AA?2?$AAp?$AAr?$AAo?$AAg?$AAr?$AAa?$AAm?$AA?5?$AAf?$AAi?$AAl?$AAe@ DB 'c'
	DB	00H, ':', 00H, '\', 00H, 'p', 00H, 'r', 00H, 'o', 00H, 'g', 00H
	DB	'r', 00H, 'a', 00H, 'm', 00H, ' ', 00H, 'f', 00H, 'i', 00H, 'l'
	DB	00H, 'e', 00H, 's', 00H, ' ', 00H, '(', 00H, 'x', 00H, '8', 00H
	DB	'6', 00H, ')', 00H, '\', 00H, 'm', 00H, 'i', 00H, 'c', 00H, 'r'
	DB	00H, 'o', 00H, 's', 00H, 'o', 00H, 'f', 00H, 't', 00H, ' ', 00H
	DB	'v', 00H, 'i', 00H, 's', 00H, 'u', 00H, 'a', 00H, 'l', 00H, ' '
	DB	00H, 's', 00H, 't', 00H, 'u', 00H, 'd', 00H, 'i', 00H, 'o', 00H
	DB	'\', 00H, '2', 00H, '0', 00H, '1', 00H, '7', 00H, '\', 00H, 'c'
	DB	00H, 'o', 00H, 'm', 00H, 'm', 00H, 'u', 00H, 'n', 00H, 'i', 00H
	DB	't', 00H, 'y', 00H, '\', 00H, 'v', 00H, 'c', 00H, '\', 00H, 't'
	DB	00H, 'o', 00H, 'o', 00H, 'l', 00H, 's', 00H, '\', 00H, 'm', 00H
	DB	's', 00H, 'v', 00H, 'c', 00H, '\', 00H, '1', 00H, '4', 00H, '.'
	DB	00H, '1', 00H, '6', 00H, '.', 00H, '2', 00H, '7', 00H, '0', 00H
	DB	'2', 00H, '3', 00H, '\', 00H, 'i', 00H, 'n', 00H, 'c', 00H, 'l'
	DB	00H, 'u', 00H, 'd', 00H, 'e', 00H, '\', 00H, 'a', 00H, 'l', 00H
	DB	'g', 00H, 'o', 00H, 'r', 00H, 'i', 00H, 't', 00H, 'h', 00H, 'm'
	DB	00H, 00H, 00H				; `string'
CONST	ENDS
;	COMDAT ??_C@_0GK@JMBMHIBC@c?3?2program?5files?5?$CIx86?$CJ?2microsof@
CONST	SEGMENT
??_C@_0GK@JMBMHIBC@c?3?2program?5files?5?$CIx86?$CJ?2microsof@ DB 'c:\pro'
	DB	'gram files (x86)\microsoft visual studio\2017\community\vc\to'
	DB	'ols\msvc\14.16.27023\include\algorithm', 00H ; `string'
CONST	ENDS
;	COMDAT ??_C@_0BD@FEEMDEPI@invalid?5comparator@
CONST	SEGMENT
??_C@_0BD@FEEMDEPI@invalid?5comparator@ DB 'invalid comparator', 00H ; `string'
CONST	ENDS
;	COMDAT ?__LINE__Var@?0??unpack_entity_comms_message@@YG?AW4ENTITY_COMMS_MESSAGES@@XZ@4JA
_DATA	SEGMENT
?__LINE__Var@?0??unpack_entity_comms_message@@YG?AW4ENTITY_COMMS_MESSAGES@@XZ@4JA DD 01606H ; `unpack_entity_comms_message'::`1'::__LINE__Var
_DATA	ENDS
;	COMDAT ??_C@_0DB@ILMOKKE@?$CB?$CImessage?5?$DO?$DO?5NUM_ENTITY_COMMS_M@
CONST	SEGMENT
??_C@_0DB@ILMOKKE@?$CB?$CImessage?5?$DO?$DO?5NUM_ENTITY_COMMS_M@ DB '!(me'
	DB	'ssage >> NUM_ENTITY_COMMS_MESSAGE_PACK_BITS)', 00H ; `string'
CONST	ENDS
;	COMDAT ??_C@_0DI@FBBPJLNA@?$CImessage?5?$DO?$DN?50?$CJ?5?$CG?$CG?5?$CImessage?5?$DM?5NU@
CONST	SEGMENT
??_C@_0DI@FBBPJLNA@?$CImessage?5?$DO?$DN?50?$CJ?5?$CG?$CG?5?$CImessage?5?$DM?5NU@ DB '('
	DB	'message >= 0) && (message < NUM_ENTITY_COMMS_MESSAGES)', 00H ; `string'
CONST	ENDS
;	COMDAT ?__LINE__Var@?0??pack_entity_comms_message@@YGXW4ENTITY_COMMS_MESSAGES@@@Z@4JA
_DATA	SEGMENT
?__LINE__Var@?0??pack_entity_comms_message@@YGXW4ENTITY_COMMS_MESSAGES@@@Z@4JA DD 015f1H ; `pack_entity_comms_message'::`1'::__LINE__Var
_DATA	ENDS
;	COMDAT ??_C@_0CL@BOMDEDKH@Received?5invalid?5entity?5comms?5m@
CONST	SEGMENT
??_C@_0CL@BOMDEDKH@Received?5invalid?5entity?5comms?5m@ DB 'Received inva'
	DB	'lid entity comms message = %d', 00H		; `string'
CONST	ENDS
;	COMDAT ??_C@_0EM@OBAFKMNE@EN_COMMS?3?5received?5task?5loss?5fo@
CONST	SEGMENT
??_C@_0EM@OBAFKMNE@EN_COMMS?3?5received?5task?5loss?5fo@ DB 'EN_COMMS: re'
	DB	'ceived task loss for %s (%d), victim %s (%d), aggressor %s (%'
	DB	'd)', 00H					; `string'
CONST	ENDS
;	COMDAT ??_C@_0EM@CLMCCEIB@EN_COMMS?3?5received?5task?5kill?5fo@
CONST	SEGMENT
??_C@_0EM@CLMCCEIB@EN_COMMS?3?5received?5task?5kill?5fo@ DB 'EN_COMMS: re'
	DB	'ceived task kill for %s (%d), victim %s (%d), aggressor %s (%'
	DB	'd)', 00H					; `string'
CONST	ENDS
;	COMDAT ??_C@_0CO@KBPHBAEN@EN_COMMS?3?5received?5assign?5task?5@
CONST	SEGMENT
??_C@_0CO@KBPHBAEN@EN_COMMS?3?5received?5assign?5task?5@ DB 'EN_COMMS: re'
	DB	'ceived assign task refused for %s', 00H	; `string'
CONST	ENDS
;	COMDAT ??_C@_0DC@INHEFGG@EN_COMMS?3?5received?5assign?5task?5@
CONST	SEGMENT
??_C@_0DC@INHEFGG@EN_COMMS?3?5received?5assign?5task?5@ DB 'EN_COMMS: rec'
	DB	'eived assign task %s accepted for %s', 00H	; `string'
CONST	ENDS
;	COMDAT ??_C@_06INMLIBCJ@mobile@
CONST	SEGMENT
??_C@_06INMLIBCJ@mobile@ DB 'mobile', 00H		; `string'
CONST	ENDS
;	COMDAT ??_C@_0CM@EEJKLHIL@?$CBforce_local_entity_create_stac@
CONST	SEGMENT
??_C@_0CM@EEJKLHIL@?$CBforce_local_entity_create_stac@ DB '!force_local_e'
	DB	'ntity_create_stack_attributes', 00H		; `string'
CONST	ENDS
;	COMDAT ??_C@_0DB@IKKJPGJC@EN_COMMS?3?5received?5assign?5task?5@
CONST	SEGMENT
??_C@_0DB@IKKJPGJC@EN_COMMS?3?5received?5assign?5task?5@ DB 'EN_COMMS: re'
	DB	'ceived assign task request %s for %s', 00H	; `string'
CONST	ENDS
;	COMDAT ??_C@_0DB@FPHBFJNE@get_local_entity_type?5?$CItask?$CJ?5?$DN?$DN@
CONST	SEGMENT
??_C@_0DB@FPHBFJNE@get_local_entity_type?5?$CItask?$CJ?5?$DN?$DN@ DB 'get'
	DB	'_local_entity_type (task) == ENTITY_TYPE_TASK', 00H ; `string'
CONST	ENDS
;	COMDAT ??_C@_0DO@HBFAIHPG@EN_COMMS?3?5received?5player?5task?5@
CONST	SEGMENT
??_C@_0DO@HBFAIHPG@EN_COMMS?3?5received?5player?5task?5@ DB 'EN_COMMS: re'
	DB	'ceived player task %s (%d) terminated for %s (%d)', 00H ; `string'
CONST	ENDS
;	COMDAT ??_C@_0DN@JILJIBKE@EN_COMMS?3?5received?5player?5task?5@
CONST	SEGMENT
??_C@_0DN@JILJIBKE@EN_COMMS?3?5received?5player?5task?5@ DB 'EN_COMMS: re'
	DB	'ceived player task %s (%d) completed for %s (%d)', 00H ; `string'
CONST	ENDS
;	COMDAT ??_C@_04GGKLLKOO@task@
CONST	SEGMENT
??_C@_04GGKLLKOO@task@ DB 'task', 00H			; `string'
CONST	ENDS
;	COMDAT ??_C@_0DO@PIAHAFOJ@EN_COMMS?3?5received?5Pilot?5reques@
CONST	SEGMENT
??_C@_0DO@PIAHAFOJ@EN_COMMS?3?5received?5Pilot?5reques@ DB 'EN_COMMS: rec'
	DB	'eived Pilot request accepted to %d for entity %d', 00H ; `string'
CONST	ENDS
;	COMDAT ??_C@_0O@DEGLOFLI@Attack?5PFZ?5?$CFd@
CONST	SEGMENT
??_C@_0O@DEGLOFLI@Attack?5PFZ?5?$CFd@ DB 'Attack PFZ %d', 00H ; `string'
CONST	ENDS
;	COMDAT ??_C@_0DA@GDENJLMD@get_local_entity_type?5?$CIen?$CJ?5?$DN?$DN?5E@
CONST	SEGMENT
??_C@_0DA@GDENJLMD@get_local_entity_type?5?$CIen?$CJ?5?$DN?$DN?5E@ DB 'ge'
	DB	't_local_entity_type (en) == ENTITY_TYPE_FORCE', 00H ; `string'
CONST	ENDS
;	COMDAT ??_C@_0CP@NOFCFJBB@EN_COMMS?3?5created?5route?5on?5clie@
CONST	SEGMENT
??_C@_0CP@NOFCFJBB@EN_COMMS?3?5created?5route?5on?5clie@ DB 'EN_COMMS: cr'
	DB	'eated route on client successfully', 00H	; `string'
CONST	ENDS
;	COMDAT ??_C@_0BB@CNAIJEEO@sample_count?5?$DO?50@
CONST	SEGMENT
??_C@_0BB@CNAIJEEO@sample_count?5?$DO?50@ DB 'sample_count > 0', 00H ; `string'
CONST	ENDS
;	COMDAT ??_C@_0CD@GAOMIKLP@num_bytes?5?$DM?$DN?5ATTRIBUTE_BUFFER_S@
CONST	SEGMENT
??_C@_0CD@GAOMIKLP@num_bytes?5?$DM?$DN?5ATTRIBUTE_BUFFER_S@ DB 'num_bytes'
	DB	' <= ATTRIBUTE_BUFFER_SIZE', 00H		; `string'
CONST	ENDS
;	COMDAT ??_C@_0BG@PFNEBFLH@ADVISE_TRANSMIT_RECON@
CONST	SEGMENT
??_C@_0BG@PFNEBFLH@ADVISE_TRANSMIT_RECON@ DB 'ADVISE_TRANSMIT_RECON', 00H ; `string'
CONST	ENDS
;	COMDAT ??_C@_0CN@KOHHCGAN@ENTITY_COMMS_ZERO?5encountered?5d@
CONST	SEGMENT
??_C@_0CN@KOHHCGAN@ENTITY_COMMS_ZERO?5encountered?5d@ DB 'ENTITY_COMMS_ZE'
	DB	'RO encountered during receive', 00H		; `string'
CONST	ENDS
;	COMDAT ??_C@_0DO@NKOCAKEK@direct_play_get_comms_mode?5?$CI?$CJ?5?$DN@
CONST	SEGMENT
??_C@_0DO@NKOCAKEK@direct_play_get_comms_mode?5?$CI?$CJ?5?$DN@ DB 'direct'
	DB	'_play_get_comms_mode () == DIRECT_PLAY_COMMS_MODE_MULTI', 00H ; `string'
CONST	ENDS
;	COMDAT ?__LINE__Var@?0??process_received_entity_comms_messages@@YGXXZ@4JA
_DATA	SEGMENT
?__LINE__Var@?0??process_received_entity_comms_messages@@YGXXZ@4JA DD 0b4aH ; `process_received_entity_comms_messages'::`1'::__LINE__Var
_DATA	ENDS
;	COMDAT ??_C@_0CL@GFMDOBCA@Transmit?5invalid?5entity?5comms?5m@
CONST	SEGMENT
??_C@_0CL@GFMDOBCA@Transmit?5invalid?5entity?5comms?5m@ DB 'Transmit inva'
	DB	'lid entity comms message = %d', 00H		; `string'
CONST	ENDS
;	COMDAT ??_C@_0EL@LLAFPFKC@EN_COMMS?3?5sending?5task?5loss?5for@
CONST	SEGMENT
??_C@_0EL@LLAFPFKC@EN_COMMS?3?5sending?5task?5loss?5for@ DB 'EN_COMMS: se'
	DB	'nding task loss for %s (%d), victim %s (%d), aggressor %s (%d'
	DB	')', 00H					; `string'
CONST	ENDS
;	COMDAT ??_C@_0EL@HBMCHNPH@EN_COMMS?3?5sending?5task?5kill?5for@
CONST	SEGMENT
??_C@_0EL@HBMCHNPH@EN_COMMS?3?5sending?5task?5kill?5for@ DB 'EN_COMMS: se'
	DB	'nding task kill for %s (%d), victim %s (%d), aggressor %s (%d'
	DB	')', 00H					; `string'
CONST	ENDS
;	COMDAT ??_C@_0CN@EGPAMJPG@EN_COMMS?3?5sending?5assign?5task?5r@
CONST	SEGMENT
??_C@_0CN@EGPAMJPG@EN_COMMS?3?5sending?5assign?5task?5r@ DB 'EN_COMMS: se'
	DB	'nding assign task refused for %s', 00H	; `string'
CONST	ENDS
;	COMDAT ??_C@_0DB@DBNDGDFO@EN_COMMS?3?5sending?5assign?5task?5?$CF@
CONST	SEGMENT
??_C@_0DB@DBNDGDFO@EN_COMMS?3?5sending?5assign?5task?5?$CF@ DB 'EN_COMMS:'
	DB	' sending assign task %s accepted for %s', 00H ; `string'
CONST	ENDS
;	COMDAT ??_C@_0DA@INDMAMHB@EN_COMMS?3?5sending?5assign?5task?5r@
CONST	SEGMENT
??_C@_0DA@INDMAMHB@EN_COMMS?3?5sending?5assign?5task?5r@ DB 'EN_COMMS: se'
	DB	'nding assign task request %s for %s', 00H	; `string'
CONST	ENDS
;	COMDAT ??_C@_0DA@NDIHHFDN@get_local_entity_type?5?$CIen?$CJ?5?$DN?$DN?5E@
CONST	SEGMENT
??_C@_0DA@NDIHHFDN@get_local_entity_type?5?$CIen?$CJ?5?$DN?$DN?5E@ DB 'ge'
	DB	't_local_entity_type (en) == ENTITY_TYPE_PILOT', 00H ; `string'
CONST	ENDS
;	COMDAT ??_C@_0CJ@HDFJMCJJ@get_comms_model?5?$CI?$CJ?5?$DN?$DN?5COMMS_MOD@
CONST	SEGMENT
??_C@_0CJ@HDFJMCJJ@get_comms_model?5?$CI?$CJ?5?$DN?$DN?5COMMS_MOD@ DB 'ge'
	DB	't_comms_model () == COMMS_MODEL_CLIENT', 00H ; `string'
CONST	ENDS
;	COMDAT ??_C@_0DA@BGABFO@get_local_entity_type?5?$CIen?$CJ?5?$DN?$DN?5E@
CONST	SEGMENT
??_C@_0DA@BGABFO@get_local_entity_type?5?$CIen?$CJ?5?$DN?$DN?5E@ DB 'get_'
	DB	'local_entity_type (en) == ENTITY_TYPE_GUIDE', 00H ; `string'
CONST	ENDS
;	COMDAT ??_C@_0L@MMBMMAEK@index_list@
CONST	SEGMENT
??_C@_0L@MMBMMAEK@index_list@ DB 'index_list', 00H	; `string'
CONST	ENDS
;	COMDAT ??_C@_0BB@OCHIJAA@target_count?5?$DO?50@
CONST	SEGMENT
??_C@_0BB@OCHIJAA@target_count?5?$DO?50@ DB 'target_count > 0', 00H ; `string'
CONST	ENDS
;	COMDAT ??_C@_0M@BLMAJMLK@destination@
CONST	SEGMENT
??_C@_0M@BLMAJMLK@destination@ DB 'destination', 00H	; `string'
CONST	ENDS
;	COMDAT ??_C@_0DB@ENGEBKMD@get_local_entity_type?5?$CIen?$CJ?5?$DN?$DN?5E@
CONST	SEGMENT
??_C@_0DB@ENGEBKMD@get_local_entity_type?5?$CIen?$CJ?5?$DN?$DN?5E@ DB 'ge'
	DB	't_local_entity_type (en) == ENTITY_TYPE_BRIDGE', 00H ; `string'
CONST	ENDS
;	COMDAT ??_C@_0DA@LNAMKNMB@get_local_entity_type?5?$CIen?$CJ?5?$DN?$DN?5E@
CONST	SEGMENT
??_C@_0DA@LNAMKNMB@get_local_entity_type?5?$CIen?$CJ?5?$DN?$DN?5E@ DB 'ge'
	DB	't_local_entity_type (en) == ENTITY_TYPE_GROUP', 00H ; `string'
CONST	ENDS
;	COMDAT ??_C@_0DN@IGCFFEGL@EN_COMMS?3?5sending?5player?5task?5?$CF@
CONST	SEGMENT
??_C@_0DN@IGCFFEGL@EN_COMMS?3?5sending?5player?5task?5?$CF@ DB 'EN_COMMS:'
	DB	' sending player task %s (%d) terminated for %s (%d)', 00H ; `string'
CONST	ENDS
;	COMDAT ??_C@_0DM@IPDNEBDA@EN_COMMS?3?5sending?5player?5task?5?$CF@
CONST	SEGMENT
??_C@_0DM@IPDNEBDA@EN_COMMS?3?5sending?5player?5task?5?$CF@ DB 'EN_COMMS:'
	DB	' sending player task %s (%d) completed for %s (%d)', 00H ; `string'
CONST	ENDS
;	COMDAT ??_C@_0DN@PHCNGHE@EN_COMMS?3?5sending?5Pilot?5request@
CONST	SEGMENT
??_C@_0DN@PHCNGHE@EN_COMMS?3?5sending?5Pilot?5request@ DB 'EN_COMMS: send'
	DB	'ing Pilot request accepted to %d for entity %d', 00H ; `string'
CONST	ENDS
;	COMDAT ??_C@_0BP@BKAJBABJ@?$CB?$CCUse?5transmit_pfz?$CI?$CJ?5function?$CC@
CONST	SEGMENT
??_C@_0BP@BKAJBABJ@?$CB?$CCUse?5transmit_pfz?$CI?$CJ?5function?$CC@ DB '!'
	DB	'"Use transmit_pfz() function"', 00H		; `string'
CONST	ENDS
;	COMDAT ??_C@_0BM@ELIHFJKD@Use?5transmit_pfz?$CI?$CJ?5function@
CONST	SEGMENT
??_C@_0BM@ELIHFJKD@Use?5transmit_pfz?$CI?$CJ?5function@ DB 'Use transmit_'
	DB	'pfz() function', 00H			; `string'
CONST	ENDS
;	COMDAT ??_C@_0BA@FCGNACJO@message?5?$DN?$DN?5NULL@
CONST	SEGMENT
??_C@_0BA@FCGNACJO@message?5?$DN?$DN?5NULL@ DB 'message == NULL', 00H ; `string'
CONST	ENDS
;	COMDAT ??_C@_07ONPBMBOP@message@
CONST	SEGMENT
??_C@_07ONPBMBOP@message@ DB 'message', 00H		; `string'
CONST	ENDS
;	COMDAT ??_C@_02HODPCBMO@wp@
CONST	SEGMENT
??_C@_02HODPCBMO@wp@ DB 'wp', 00H			; `string'
CONST	ENDS
;	COMDAT ??_C@_06GPEKEEBB@victim@
CONST	SEGMENT
??_C@_06GPEKEEBB@victim@ DB 'victim', 00H		; `string'
CONST	ENDS
;	COMDAT ??_C@_0BN@OGACAFKK@num_smoke_trail_entities?5?$DO?50@
CONST	SEGMENT
??_C@_0BN@OGACAFKK@num_smoke_trail_entities?5?$DO?50@ DB 'num_smoke_trail'
	DB	'_entities > 0', 00H				; `string'
CONST	ENDS
;	COMDAT ??_C@_0CO@CCKHDPGI@smoke_trail_type?5?$CB?$DN?5META_SMOKE_@
CONST	SEGMENT
??_C@_0CO@CCKHDPGI@smoke_trail_type?5?$CB?$DN?5META_SMOKE_@ DB 'smoke_tra'
	DB	'il_type != META_SMOKE_LIST_TYPE_NONE', 00H	; `string'
CONST	ENDS
;	COMDAT ??_C@_0CD@KEKOAANN@burst_size?5?$DN?$DN?5BURST_SIZE_DONT_C@
CONST	SEGMENT
??_C@_0CD@KEKOAANN@burst_size?5?$DN?$DN?5BURST_SIZE_DONT_C@ DB 'burst_siz'
	DB	'e == BURST_SIZE_DONT_CARE', 00H		; `string'
CONST	ENDS
;	COMDAT ??_C@_0P@DFFDGLE@burst_size?5?$DO?50@
CONST	SEGMENT
??_C@_0P@DFFDGLE@burst_size?5?$DO?50@ DB 'burst_size > 0', 00H ; `string'
CONST	ENDS
;	COMDAT ??_C@_0CP@MAFEAOFK@entity_sub_type_weapon_valid?5?$CIw@
CONST	SEGMENT
??_C@_0CP@MAFEAOFK@entity_sub_type_weapon_valid?5?$CIw@ DB 'entity_sub_ty'
	DB	'pe_weapon_valid (weapon_sub_type)', 00H	; `string'
CONST	ENDS
;	COMDAT ??_C@_08EAFLGIKM@launcher@
CONST	SEGMENT
??_C@_08EAFLGIKM@launcher@ DB 'launcher', 00H		; `string'
CONST	ENDS
;	COMDAT ??_C@_03HDFHKHFK@?$CBen@
CONST	SEGMENT
??_C@_03HDFHKHFK@?$CBen@ DB '!en', 00H			; `string'
CONST	ENDS
;	COMDAT ??_C@_0CJ@DMBLBJBK@get_comms_model?5?$CI?$CJ?5?$DN?$DN?5COMMS_MOD@
CONST	SEGMENT
??_C@_0CJ@DMBLBJBK@get_comms_model?5?$CI?$CJ?5?$DN?$DN?5COMMS_MOD@ DB 'ge'
	DB	't_comms_model () == COMMS_MODEL_SERVER', 00H ; `string'
CONST	ENDS
;	COMDAT ??_C@_02LFNMGJAP@en@
CONST	SEGMENT
??_C@_02LFNMGJAP@en@ DB 'en', 00H			; `string'
CONST	ENDS
;	COMDAT ??_C@_0EO@OCMIKFBI@c?3?2users?2nhv90?2projects?2eech?2ap@
CONST	SEGMENT
??_C@_0EO@OCMIKFBI@c?3?2users?2nhv90?2projects?2eech?2ap@ DB 'c:\users\nh'
	DB	'v90\projects\eech\aphavoc\source\entity\system\en_comms\en_co'
	DB	'mms.c', 00H					; `string'
CONST	ENDS
;	COMDAT ??_C@_0CO@GJCCLBOC@ENTITY_COMMS_ZERO?5encountered?5d@
CONST	SEGMENT
??_C@_0CO@GJCCLBOC@ENTITY_COMMS_ZERO?5encountered?5d@ DB 'ENTITY_COMMS_ZE'
	DB	'RO encountered during transmit', 00H	; `string'
CONST	ENDS
;	COMDAT ?__LINE__Var@?0??transmit_entity_comms_message@@YAXW4ENTITY_COMMS_MESSAGES@@PAUENTITY@@ZZ@4JA
_DATA	SEGMENT
?__LINE__Var@?0??transmit_entity_comms_message@@YAXW4ENTITY_COMMS_MESSAGES@@PAUENTITY@@ZZ@4JA DD 01d9H ; `transmit_entity_comms_message'::`1'::__LINE__Var
_DATA	ENDS
;	COMDAT ??_C@_0CD@PKGFAOAM@Setting?5comms?5messages?5to?5DISAB@
CONST	SEGMENT
??_C@_0CD@PKGFAOAM@Setting?5comms?5messages?5to?5DISAB@ DB 'Setting comms'
	DB	' messages to DISABLED', 00H			; `string'
CONST	ENDS
;	COMDAT ??_C@_0CC@ONCEHADK@Setting?5comms?5messages?5to?5ENABL@
CONST	SEGMENT
??_C@_0CC@ONCEHADK@Setting?5comms?5messages?5to?5ENABL@ DB 'Setting comms'
	DB	' messages to ENABLED', 00H			; `string'
CONST	ENDS
_DATA	SEGMENT
?comms_messages_enabled@@3HA DD 01H			; comms_messages_enabled
_DATA	ENDS
;	COMDAT ??_C@_02DKCKIIND@?$CFs@
CONST	SEGMENT
??_C@_02DKCKIIND@?$CFs@ DB '%s', 00H			; `string'
CONST	ENDS
; Function compile flags: /Odtp /ZI
; File c:\program files (x86)\microsoft visual studio\2017\community\vc\tools\msvc\14.16.27023\include\algorithm
;	COMDAT ??$min@H@std@@YGABHABH0@Z
_TEXT	SEGMENT
__Left$ = 8						; size = 4
__Right$ = 12						; size = 4
??$min@H@std@@YGABHABH0@Z PROC				; std::min<int>, COMDAT

; 5427 : 	{	// return smaller of _Left and _Right

  00000	55		 push	 ebp
  00001	8b ec		 mov	 ebp, esp
  00003	83 ec 40	 sub	 esp, 64			; 00000040H
  00006	53		 push	 ebx
  00007	56		 push	 esi
  00008	57		 push	 edi

; 5428 : 	if (_Right < _Left)

  00009	8b 45 0c	 mov	 eax, DWORD PTR __Right$[ebp]
  0000c	8b 4d 08	 mov	 ecx, DWORD PTR __Left$[ebp]
  0000f	8b 10		 mov	 edx, DWORD PTR [eax]
  00011	3b 11		 cmp	 edx, DWORD PTR [ecx]
  00013	7d 61		 jge	 SHORT $LN8@min
$LN4@min:

; 5429 : 		{
; 5430 : 		_STL_ASSERT(!(_Left < _Right), "invalid comparator");

  00015	8b 45 08	 mov	 eax, DWORD PTR __Left$[ebp]
  00018	8b 4d 0c	 mov	 ecx, DWORD PTR __Right$[ebp]
  0001b	8b 10		 mov	 edx, DWORD PTR [eax]
  0001d	3b 11		 cmp	 edx, DWORD PTR [ecx]
  0001f	7c 02		 jl	 SHORT $LN7@min
  00021	eb 4a		 jmp	 SHORT $LN2@min
$LN7@min:
  00023	68 00 00 00 00	 push	 OFFSET ??_C@_0BD@FEEMDEPI@invalid?5comparator@
  00028	68 00 00 00 00	 push	 OFFSET ??_C@_02DKCKIIND@?$CFs@
  0002d	6a 00		 push	 0
  0002f	68 36 15 00 00	 push	 5430			; 00001536H
  00034	68 00 00 00 00	 push	 OFFSET ??_C@_0GK@JMBMHIBC@c?3?2program?5files?5?$CIx86?$CJ?2microsof@
  00039	6a 02		 push	 2
  0003b	ff 15 00 00 00
	00		 call	 DWORD PTR __imp___CrtDbgReport
  00041	83 c4 18	 add	 esp, 24			; 00000018H
  00044	83 f8 01	 cmp	 eax, 1
  00047	75 01		 jne	 SHORT $LN12@min
  00049	cc		 int	 3
$LN12@min:
  0004a	6a 00		 push	 0
  0004c	68 36 15 00 00	 push	 5430			; 00001536H
  00051	68 00 00 00 00	 push	 OFFSET ??_C@_1NE@FKBPBJEB@?$AAc?$AA?3?$AA?2?$AAp?$AAr?$AAo?$AAg?$AAr?$AAa?$AAm?$AA?5?$AAf?$AAi?$AAl?$AAe@
  00056	68 00 00 00 00	 push	 OFFSET ??_C@_1BC@BLAPCBGI@?$AAs?$AAt?$AAd?$AA?3?$AA?3?$AAm?$AAi?$AAn@
  0005b	68 00 00 00 00	 push	 OFFSET ??_C@_1CK@NDNHPKPI@?$AA?$CC?$AAi?$AAn?$AAv?$AAa?$AAl?$AAi?$AAd?$AA?5?$AAc?$AAo?$AAm?$AAp?$AAa?$AAr@
  00060	ff 15 00 00 00
	00		 call	 DWORD PTR __imp___invalid_parameter
  00066	83 c4 14	 add	 esp, 20			; 00000014H
  00069	33 c0		 xor	 eax, eax
  0006b	75 b6		 jne	 SHORT $LN7@min
$LN2@min:
  0006d	33 c0		 xor	 eax, eax
  0006f	75 a4		 jne	 SHORT $LN4@min

; 5431 : 		return (_Right);

  00071	8b 45 0c	 mov	 eax, DWORD PTR __Right$[ebp]
  00074	eb 03		 jmp	 SHORT $LN11@min
$LN8@min:

; 5432 : 		}
; 5433 : 
; 5434 : 	return (_Left);

  00076	8b 45 08	 mov	 eax, DWORD PTR __Left$[ebp]
$LN11@min:

; 5435 : 	}

  00079	5f		 pop	 edi
  0007a	5e		 pop	 esi
  0007b	5b		 pop	 ebx
  0007c	8b e5		 mov	 esp, ebp
  0007e	5d		 pop	 ebp
  0007f	c2 08 00	 ret	 8
??$min@H@std@@YGABHABH0@Z ENDP				; std::min<int>
_TEXT	ENDS
; Function compile flags: /Odtp /ZI
; File c:\users\nhv90\projects\eech\aphavoc\source\entity\system\en_comms\en_comms.c
;	COMDAT ?unpack_entity_comms_message@@YG?AW4ENTITY_COMMS_MESSAGES@@XZ
_TEXT	SEGMENT
_message$ = -4						; size = 4
?unpack_entity_comms_message@@YG?AW4ENTITY_COMMS_MESSAGES@@XZ PROC ; unpack_entity_comms_message, COMDAT

; 5638 : {

  00000	55		 push	 ebp
  00001	8b ec		 mov	 ebp, esp
  00003	83 ec 44	 sub	 esp, 68			; 00000044H
  00006	53		 push	 ebx
  00007	56		 push	 esi
  00008	57		 push	 edi

; 5639 : 	entity_comms_messages
; 5640 : 		message;
; 5641 : 
; 5642 : 	message = (entity_comms_messages) unpack_unsigned_data (NUM_ENTITY_COMMS_MESSAGE_PACK_BITS);

  00009	6a 07		 push	 7
  0000b	e8 00 00 00 00	 call	 ?unpack_unsigned_data@@YGIH@Z ; unpack_unsigned_data
  00010	89 45 fc	 mov	 DWORD PTR _message$[ebp], eax

; 5643 : 
; 5644 : 	ASSERT ((message >= 0) && (message < NUM_ENTITY_COMMS_MESSAGES));

  00013	83 7d fc 00	 cmp	 DWORD PTR _message$[ebp], 0
  00017	7c 06		 jl	 SHORT $LN3@unpack_ent
  00019	83 7d fc 45	 cmp	 DWORD PTR _message$[ebp], 69 ; 00000045H
  0001d	7c 18		 jl	 SHORT $LN2@unpack_ent
$LN3@unpack_ent:
  0001f	a1 00 00 00 00	 mov	 eax, DWORD PTR ?__LINE__Var@?0??unpack_entity_comms_message@@YG?AW4ENTITY_COMMS_MESSAGES@@XZ@4JA
  00024	83 c0 06	 add	 eax, 6
  00027	50		 push	 eax
  00028	68 00 00 00 00	 push	 OFFSET ??_C@_0EO@OCMIKFBI@c?3?2users?2nhv90?2projects?2eech?2ap@
  0002d	68 00 00 00 00	 push	 OFFSET ??_C@_0DI@FBBPJLNA@?$CImessage?5?$DO?$DN?50?$CJ?5?$CG?$CG?5?$CImessage?5?$DM?5NU@
  00032	e8 00 00 00 00	 call	 ?process_assert@@YGXPBD0H@Z ; process_assert
$LN2@unpack_ent:

; 5645 : 
; 5646 : 	#if (DEBUG_MODULE_PACK_ONE || DEBUG_MODULE_PACK_ALL)
; 5647 : 
; 5648 : 	if (entity_comms_message_database[message].debug_pack)
; 5649 : 	{
; 5650 : 		debug_log_entity_args (ENTITY_DEBUG_UNPACK, ENTITY_DEBUG_ENTITY_COMMS_MESSAGE, NULL, message);
; 5651 : 	}
; 5652 : 
; 5653 : 	#endif
; 5654 : 
; 5655 : 	return (message);

  00037	8b 45 fc	 mov	 eax, DWORD PTR _message$[ebp]

; 5656 : }

  0003a	5f		 pop	 edi
  0003b	5e		 pop	 esi
  0003c	5b		 pop	 ebx
  0003d	8b e5		 mov	 esp, ebp
  0003f	5d		 pop	 ebp
  00040	c3		 ret	 0
?unpack_entity_comms_message@@YG?AW4ENTITY_COMMS_MESSAGES@@XZ ENDP ; unpack_entity_comms_message
_TEXT	ENDS
; Function compile flags: /Odtp /ZI
; File c:\users\nhv90\projects\eech\aphavoc\source\entity\system\en_comms\en_comms.c
;	COMDAT ?pack_entity_comms_message@@YGXW4ENTITY_COMMS_MESSAGES@@@Z
_TEXT	SEGMENT
_message$ = 8						; size = 4
?pack_entity_comms_message@@YGXW4ENTITY_COMMS_MESSAGES@@@Z PROC ; pack_entity_comms_message, COMDAT

; 5617 : {

  00000	55		 push	 ebp
  00001	8b ec		 mov	 ebp, esp
  00003	83 ec 40	 sub	 esp, 64			; 00000040H
  00006	53		 push	 ebx
  00007	56		 push	 esi
  00008	57		 push	 edi

; 5618 : 	ASSERT ((message >= 0) && (message < NUM_ENTITY_COMMS_MESSAGES));

  00009	83 7d 08 00	 cmp	 DWORD PTR _message$[ebp], 0
  0000d	7c 06		 jl	 SHORT $LN3@pack_entit
  0000f	83 7d 08 45	 cmp	 DWORD PTR _message$[ebp], 69 ; 00000045H
  00013	7c 18		 jl	 SHORT $LN2@pack_entit
$LN3@pack_entit:
  00015	a1 00 00 00 00	 mov	 eax, DWORD PTR ?__LINE__Var@?0??pack_entity_comms_message@@YGXW4ENTITY_COMMS_MESSAGES@@@Z@4JA
  0001a	83 c0 01	 add	 eax, 1
  0001d	50		 push	 eax
  0001e	68 00 00 00 00	 push	 OFFSET ??_C@_0EO@OCMIKFBI@c?3?2users?2nhv90?2projects?2eech?2ap@
  00023	68 00 00 00 00	 push	 OFFSET ??_C@_0DI@FBBPJLNA@?$CImessage?5?$DO?$DN?50?$CJ?5?$CG?$CG?5?$CImessage?5?$DM?5NU@
  00028	e8 00 00 00 00	 call	 ?process_assert@@YGXPBD0H@Z ; process_assert
$LN2@pack_entit:

; 5619 : 	ASSERT (!(message >> NUM_ENTITY_COMMS_MESSAGE_PACK_BITS));

  0002d	8b 45 08	 mov	 eax, DWORD PTR _message$[ebp]
  00030	c1 f8 07	 sar	 eax, 7
  00033	85 c0		 test	 eax, eax
  00035	74 18		 je	 SHORT $LN4@pack_entit
  00037	a1 00 00 00 00	 mov	 eax, DWORD PTR ?__LINE__Var@?0??pack_entity_comms_message@@YGXW4ENTITY_COMMS_MESSAGES@@@Z@4JA
  0003c	83 c0 02	 add	 eax, 2
  0003f	50		 push	 eax
  00040	68 00 00 00 00	 push	 OFFSET ??_C@_0EO@OCMIKFBI@c?3?2users?2nhv90?2projects?2eech?2ap@
  00045	68 00 00 00 00	 push	 OFFSET ??_C@_0DB@ILMOKKE@?$CB?$CImessage?5?$DO?$DO?5NUM_ENTITY_COMMS_M@
  0004a	e8 00 00 00 00	 call	 ?process_assert@@YGXPBD0H@Z ; process_assert
$LN4@pack_entit:

; 5620 : 
; 5621 : 	#if (DEBUG_MODULE_PACK_ONE || DEBUG_MODULE_PACK_ALL)
; 5622 : 
; 5623 : 	if (entity_comms_message_database[message].debug_pack)
; 5624 : 	{
; 5625 : 		debug_log_entity_args (ENTITY_DEBUG_PACK, ENTITY_DEBUG_ENTITY_COMMS_MESSAGE, NULL, message);
; 5626 : 	}
; 5627 : 
; 5628 : 	#endif
; 5629 : 
; 5630 : 	pack_unsigned_data (message, NUM_ENTITY_COMMS_MESSAGE_PACK_BITS);

  0004f	6a 07		 push	 7
  00051	8b 45 08	 mov	 eax, DWORD PTR _message$[ebp]
  00054	50		 push	 eax
  00055	e8 00 00 00 00	 call	 ?pack_unsigned_data@@YGXIH@Z ; pack_unsigned_data

; 5631 : }

  0005a	5f		 pop	 edi
  0005b	5e		 pop	 esi
  0005c	5b		 pop	 ebx
  0005d	8b e5		 mov	 esp, ebp
  0005f	5d		 pop	 ebp
  00060	c2 04 00	 ret	 4
?pack_entity_comms_message@@YGXW4ENTITY_COMMS_MESSAGES@@@Z ENDP ; pack_entity_comms_message
_TEXT	ENDS
; Function compile flags: /Odtp /ZI
; File c:\users\nhv90\projects\eech\aphavoc\source\entity\system\en_comms\en_comms.c
;	COMDAT ?process_received_entity_comms_messages@@YGXXZ
_TEXT	SEGMENT
tv2404 = -1876						; size = 4
tv2288 = -1876						; size = 4
tv1374 = -1876						; size = 4
tv1256 = -1876						; size = 4
tv2396 = -1872						; size = 4
tv2280 = -1872						; size = 4
tv1366 = -1872						; size = 4
tv1248 = -1872						; size = 4
tv2380 = -1868						; size = 4
tv2264 = -1868						; size = 4
tv2182 = -1868						; size = 4
tv2111 = -1868						; size = 4
tv1358 = -1868						; size = 4
tv1240 = -1868						; size = 4
tv2714 = -1864						; size = 8
tv2372 = -1864						; size = 4
tv2256 = -1864						; size = 4
tv2174 = -1864						; size = 4
tv2103 = -1864						; size = 4
tv1348 = -1864						; size = 4
tv1230 = -1864						; size = 4
tv2486 = -1860						; size = 4
tv2465 = -1860						; size = 4
tv2442 = -1860						; size = 4
tv2356 = -1860						; size = 4
tv2240 = -1860						; size = 4
tv2204 = -1860						; size = 4
tv2161 = -1860						; size = 4
tv2090 = -1860						; size = 4
tv2019 = -1860						; size = 4
tv1857 = -1860						; size = 4
tv1663 = -1860						; size = 4
tv1640 = -1860						; size = 4
tv1620 = -1860						; size = 4
tv1600 = -1860						; size = 4
tv1579 = -1860						; size = 4
tv1559 = -1860						; size = 4
tv1394 = -1860						; size = 4
tv1308 = -1860						; size = 4
tv1276 = -1860						; size = 4
tv1222 = -1860						; size = 4
tv1188 = -1860						; size = 4
tv1168 = -1860						; size = 4
tv1068 = -1860						; size = 4
tv1013 = -1860						; size = 4
tv875 = -1860						; size = 4
tv854 = -1860						; size = 4
tv832 = -1860						; size = 4
tv797 = -1860						; size = 4
tv775 = -1860						; size = 4
tv718 = -1860						; size = 4
tv620 = -1860						; size = 4
tv194 = -1860						; size = 4
tv2711 = -1856						; size = 4
tv2478 = -1856						; size = 4
tv2457 = -1856						; size = 4
tv2433 = -1856						; size = 4
tv2348 = -1856						; size = 4
tv2232 = -1856						; size = 4
tv2196 = -1856						; size = 4
tv2153 = -1856						; size = 4
tv2082 = -1856						; size = 4
tv2069 = -1856						; size = 4
tv2056 = -1856						; size = 4
tv2010 = -1856						; size = 4
tv1986 = -1856						; size = 4
tv1817 = -1856						; size = 4
tv1799 = -1856						; size = 4
tv1763 = -1856						; size = 4
tv1655 = -1856						; size = 4
tv1632 = -1856						; size = 4
tv1612 = -1856						; size = 4
tv1592 = -1856						; size = 4
tv1571 = -1856						; size = 4
tv1551 = -1856						; size = 4
tv1510 = -1856						; size = 4
tv1448 = -1856						; size = 4
tv1430 = -1856						; size = 4
tv1387 = -1856						; size = 4
tv1300 = -1856						; size = 4
tv1269 = -1856						; size = 4
tv1214 = -1856						; size = 4
tv1181 = -1856						; size = 4
tv1161 = -1856						; size = 4
tv1092 = -1856						; size = 4
tv1061 = -1856						; size = 4
tv1006 = -1856						; size = 4
tv867 = -1856						; size = 4
tv846 = -1856						; size = 4
tv824 = -1856						; size = 4
tv789 = -1856						; size = 4
tv767 = -1856						; size = 4
tv747 = -1856						; size = 4
tv733 = -1856						; size = 4
tv709 = -1856						; size = 4
tv611 = -1856						; size = 4
tv590 = -1856						; size = 4
tv577 = -1856						; size = 4
tv564 = -1856						; size = 4
tv185 = -1856						; size = 4
tv152 = -1856						; size = 4
tv134 = -1856						; size = 4
tv72 = -1856						; size = 4
$T1 = -1852						; size = 4
_en$2 = -1592						; size = 4
_en$3 = -1588						; size = 4
_v$4 = -1584						; size = 12
_type$5 = -1572						; size = 4
_en$6 = -1568						; size = 4
_en$7 = -1564						; size = 4
_in_use$8 = -1560					; size = 4
_en$9 = -1556						; size = 4
_en$10 = -1552						; size = 4
_en$11 = -1548						; size = 4
_aggressor$12 = -1544					; size = 4
_victim$13 = -1540					; size = 4
_task_en$14 = -1536					; size = 4
_aggressor$15 = -1532					; size = 4
_victim$16 = -1528					; size = 4
_task_en$17 = -1524					; size = 4
_mobile$18 = -1520					; size = 4
_task$19 = -1516					; size = 4
_en$20 = -1512						; size = 4
_task$21 = -1508					; size = 4
_mobile$22 = -1504					; size = 4
_en$23 = -1500						; size = 4
_type$24 = -1496					; size = 4
_parent$25 = -1492					; size = 4
_en$26 = -1488						; size = 4
_type2$27 = -1484					; size = 4
_type1$28 = -1480					; size = 4
_parent$29 = -1476					; size = 4
_en$30 = -1472						; size = 4
_s$31 = -1468						; size = 256
_type$32 = -1212					; size = 4
_en$33 = -1208						; size = 4
_wp$34 = -1204						; size = 4
_en$35 = -1200						; size = 4
_loop$36 = -1196					; size = 4
_raw$37 = -1192						; size = 4
_en$38 = -1188						; size = 4
_position_entity$39 = -1184				; size = 4
_en$40 = -1180						; size = 4
_value$41 = -1176					; size = 4
_valid$42 = -1172					; size = 4
_type$43 = -1168					; size = 4
_en$44 = -1164						; size = 4
_en$45 = -1160						; size = 4
_target_count$46 = -1156				; size = 4
_index_list$47 = -1152					; size = 4
_loop$48 = -1148					; size = 4
_destination$49 = -1144					; size = 4
_en$50 = -1140						; size = 4
_raw$51 = -1136						; size = 4
_mb$52 = -1132						; size = 4
_group$53 = -1128					; size = 4
_en$54 = -1124						; size = 4
_next_index$55 = -1120					; size = 4
_this_index$56 = -1116					; size = 4
_count$57 = -1112					; size = 4
_sub_route_node$58 = -1108				; size = 4
_type$59 = -1104					; size = 4
_en$60 = -1100						; size = 4
_en$61 = -1096						; size = 4
_pos$62 = -1092						; size = 12
_operational_state$63 = -1080				; size = 4
_en$64 = -1076						; size = 4
_target_count$65 = -1072				; size = 4
_index_list$66 = -1068					; size = 4
_loop$67 = -1064					; size = 4
_destination$68 = -1060					; size = 4
_en$69 = -1056						; size = 4
_en$70 = -1052						; size = 4
_en$71 = -1048						; size = 4
_create_stack_attributes$72 = -1044			; size = 4
_message_value$73 = -1040				; size = 4
_message_type$74 = -1036				; size = 4
_en$75 = -1032						; size = 4
_en$76 = -1028						; size = 4
_task$77 = -1024					; size = 4
_en$78 = -1020						; size = 4
_task$79 = -1016					; size = 4
_victim$80 = -1012					; size = 4
_aggressor$81 = -1008					; size = 4
_speech_index$82 = -1004				; size = 4
_en$83 = -1000						; size = 4
_category_silence_timer$84 = -996			; size = 4
_expire_time$85 = -992					; size = 4
_priority$86 = -988					; size = 4
_speech_category$87 = -984				; size = 4
_speech_index$88 = -980					; size = 4
_en$89 = -976						; size = 4
_speech_index3$90 = -972				; size = 4
_speech_index2$91 = -968				; size = 4
_speech_index1$92 = -964				; size = 4
_en$93 = -960						; size = 4
_destination_id$94 = -956				; size = 4
_pilot_index$95 = -952					; size = 4
_en$96 = -948						; size = 4
_attack_message$97 = -944				; size = 100
_pfz_number$98 = -844					; size = 4
_corner4$99 = -840					; size = 12
_corner3$100 = -828					; size = 12
_corner2$101 = -816					; size = 12
_corner1$102 = -804					; size = 12
_i$103 = -792						; size = 4
_targets$104 = -788					; size = 68
_wingman$105 = -720					; size = 4
_sender$106 = -716					; size = 4
_message$107 = -712					; size = 160
_string$108 = -552					; size = 4
_type$109 = -548					; size = 4
_target$110 = -544					; size = 4
_sender$111 = -540					; size = 4
_weapon_sub_type$112 = -536				; size = 4
_en$113 = -532						; size = 4
_delay$114 = -528					; size = 4
_type$115 = -524					; size = 4
_en$116 = -520						; size = 4
_pos$117 = -516						; size = 12
_wp$118 = -504						; size = 4
_member$119 = -500					; size = 4
_landing_en$120 = -496					; size = 4
_en$121 = -492						; size = 4
_en$122 = -488						; size = 4
_wp$123 = -484						; size = 4
_victim$124 = -480					; size = 4
_en$125 = -476						; size = 4
_create_stack_attributes$126 = -472			; size = 4
_en$127 = -468						; size = 4
_value$128 = -464					; size = 4
_type$129 = -460					; size = 4
_en$130 = -456						; size = 4
_value$131 = -452					; size = 4
_type$132 = -448					; size = 4
_en$133 = -444						; size = 4
_en$134 = -440						; size = 4
_en$135 = -436						; size = 4
_en$136 = -432						; size = 4
_weapon_sub_type$137 = -428				; size = 4
_weapon_package_damaged$138 = -424			; size = 4
_weapon_package_heading_depth$139 = -420		; size = 4
_en$140 = -416						; size = 4
_damage_level$141 = -412				; size = 4
_en$142 = -408						; size = 4
_damage$143 = -404					; size = 4
_random$144 = -400					; size = 4
_en$145 = -396						; size = 4
_smoke_trail_type$146 = -392				; size = 4
_i$147 = -388						; size = 4
_num_smoke_trail_entities$148 = -384			; size = 4
_smoke_trail_indices$149 = -380				; size = 4
_burst_size$150 = -376					; size = 4
_weapon_index$151 = -372				; size = 4
_weapon_sub_type$152 = -368				; size = 4
_launcher$153 = -364					; size = 4
_check_sum$154 = -360					; size = 4
_count$155 = -356					; size = 4
_loop$156 = -352					; size = 4
_waypoint_indices$157 = -348				; size = 4
_return_keysite$158 = -344				; size = 4
_group$159 = -340					; size = 4
_task$160 = -336					; size = 4
_stop$161 = -332					; size = 12
_start$162 = -320					; size = 12
_stop_ptr$163 = -308					; size = 4
_start_ptr$164 = -304					; size = 4
_position$165 = -300					; size = 12
_pos$166 = -288						; size = 4
_pitch$167 = -284					; size = 4
_amp$168 = -280						; size = 4
_create_stack_attributes$169 = -276			; size = 4
_sample_index_list$170 = -272				; size = 4
_sample_count$171 = -268				; size = 4
_valid_position$172 = -264				; size = 4
_looping$173 = -260					; size = 4
_locality$174 = -256					; size = 4
_channel$175 = -252					; size = 4
_side$176 = -248					; size = 4
_valid$177 = -244					; size = 4
_index$178 = -240					; size = 4
_loop$179 = -236					; size = 4
_sub_type$180 = -232					; size = 4
_parent$181 = -228					; size = 4
_entity_index_list$182 = -224				; size = 4
_sub_object_depth$183 = -220				; size = 4
_sub_object_type$184 = -216				; size = 4
_list_count$185 = -212					; size = 4
_loop$186 = -208					; size = 4
_type$187 = -204					; size = 4
_parent$188 = -200					; size = 4
_rel_pos$189 = -196					; size = 12
_entity_index_list$190 = -184				; size = 4
_list_count$191 = -180					; size = 4
_loop$192 = -176					; size = 4
_type$193 = -172					; size = 4
_parent$194 = -168					; size = 4
_position$195 = -164					; size = 12
_entity_index_list$196 = -152				; size = 4
_list_count$197 = -148					; size = 4
_loop$198 = -144					; size = 4
_type$199 = -140					; size = 4
_parent$200 = -136					; size = 4
_num_bytes$201 = -132					; size = 4
_index$202 = -128					; size = 4
_type$203 = -124					; size = 4
_value$204 = -117					; size = 1
_type$205 = -116					; size = 4
_en$206 = -112						; size = 4
_side$207 = -108					; size = 4
_en$208 = -104						; size = 4
_complete$209 = -100					; size = 4
_side$210 = -96						; size = 4
_en$211 = -92						; size = 4
_attitude$212 = -88					; size = 36
_en$213 = -52						; size = 4
_roll$214 = -48						; size = 4
_pitch$215 = -44					; size = 4
_heading$216 = -40					; size = 4
_en$217 = -36						; size = 4
_en$218 = -32						; size = 4
_create_stack_attributes$219 = -28			; size = 4
_pos$220 = -24						; size = 12
_wp$221 = -12						; size = 4
_message$ = -8						; size = 4
_done$ = -4						; size = 4
?process_received_entity_comms_messages@@YGXXZ PROC	; process_received_entity_comms_messages, COMDAT

; 2890 : {

  00000	55		 push	 ebp
  00001	8b ec		 mov	 ebp, esp
  00003	81 ec 54 07 00
	00		 sub	 esp, 1876		; 00000754H
  00009	53		 push	 ebx
  0000a	56		 push	 esi
  0000b	57		 push	 edi

; 2891 : 	int
; 2892 : 		done;
; 2893 : 
; 2894 : 	entity_comms_messages
; 2895 : 		message;
; 2896 : 
; 2897 : 	////////////////////////////////////////
; 2898 : 	//
; 2899 : 	// trap single player
; 2900 : 	//
; 2901 : 	////////////////////////////////////////
; 2902 : 
; 2903 : 	ASSERT (direct_play_get_comms_mode () == DIRECT_PLAY_COMMS_MODE_MULTI);

  0000c	83 3d 00 00 00
	00 01		 cmp	 DWORD PTR ?direct_play_comms_mode@@3W4DIRECT_PLAY_COMMS_MODE_TYPES@@A, 1 ; direct_play_comms_mode
  00013	74 18		 je	 SHORT $LN52@process_re
  00015	a1 00 00 00 00	 mov	 eax, DWORD PTR ?__LINE__Var@?0??process_received_entity_comms_messages@@YGXXZ@4JA
  0001a	83 c0 0d	 add	 eax, 13			; 0000000dH
  0001d	50		 push	 eax
  0001e	68 00 00 00 00	 push	 OFFSET ??_C@_0EO@OCMIKFBI@c?3?2users?2nhv90?2projects?2eech?2ap@
  00023	68 00 00 00 00	 push	 OFFSET ??_C@_0DO@NKOCAKEK@direct_play_get_comms_mode?5?$CI?$CJ?5?$DN@
  00028	e8 00 00 00 00	 call	 ?process_assert@@YGXPBD0H@Z ; process_assert
$LN52@process_re:

; 2904 : 
; 2905 : 	////////////////////////////////////////
; 2906 : 	//
; 2907 : 	// process messages
; 2908 : 	//
; 2909 : 	////////////////////////////////////////
; 2910 : 
; 2911 : 	set_comms_data_flow (COMMS_DATA_FLOW_RX);

  0002d	6a 01		 push	 1
  0002f	e8 00 00 00 00	 call	 ?set_comms_data_flow@@YGXW4COMMS_DATA_FLOW_TYPES@@@Z ; set_comms_data_flow

; 2912 : 
; 2913 : 	done = FALSE;

  00034	c7 45 fc 00 00
	00 00		 mov	 DWORD PTR _done$[ebp], 0
$LN2@process_re:

; 2914 : 
; 2915 : 	while (!done)

  0003b	83 7d fc 00	 cmp	 DWORD PTR _done$[ebp], 0
  0003f	0f 85 39 44 00
	00		 jne	 $LN3@process_re

; 2916 : 	{
; 2917 : 		message = unpack_entity_comms_message ();

  00045	e8 00 00 00 00	 call	 ?unpack_entity_comms_message@@YG?AW4ENTITY_COMMS_MESSAGES@@XZ ; unpack_entity_comms_message
  0004a	89 45 f8	 mov	 DWORD PTR _message$[ebp], eax

; 2918 : 
; 2919 : 		switch (message)

  0004d	8b 45 f8	 mov	 eax, DWORD PTR _message$[ebp]
  00050	89 85 c0 f8 ff
	ff		 mov	 DWORD PTR tv72[ebp], eax
  00056	83 bd c0 f8 ff
	ff 44		 cmp	 DWORD PTR tv72[ebp], 68	; 00000044H
  0005d	0f 87 05 44 00
	00		 ja	 $LN230@process_re
  00063	8b 8d c0 f8 ff
	ff		 mov	 ecx, DWORD PTR tv72[ebp]
  00069	ff 24 8d 00 00
	00 00		 jmp	 DWORD PTR $LN432@process_re[ecx*4]
$LN53@process_re:

; 2920 : 		{
; 2921 : 			////////////////////////////////////////
; 2922 : 			case ENTITY_COMMS_ZERO:
; 2923 : 			////////////////////////////////////////
; 2924 : 			{
; 2925 : 				debug_fatal ("ENTITY_COMMS_ZERO encountered during receive");

  00070	68 00 00 00 00	 push	 OFFSET ??_C@_0CN@KOHHCGAN@ENTITY_COMMS_ZERO?5encountered?5d@
  00075	e8 00 00 00 00	 call	 ?debug_fatal@@YAXPBDZZ	; debug_fatal
  0007a	83 c4 04	 add	 esp, 4

; 2926 : 
; 2927 : 				break;

  0007d	e9 f7 43 00 00	 jmp	 $LN4@process_re
$LN54@process_re:

; 2928 : 			}
; 2929 : 			////////////////////////////////////////
; 2930 : 			case ENTITY_COMMS_ADD_PLANNER_WAYPOINT:
; 2931 : 			////////////////////////////////////////
; 2932 : 			{
; 2933 : 				entity
; 2934 : 					*wp;
; 2935 : 
; 2936 : 				vec3d
; 2937 : 					pos;
; 2938 : 
; 2939 : 				int
; 2940 : 					create_stack_attributes;
; 2941 : 
; 2942 : 				ASSERT (get_comms_model () == COMMS_MODEL_SERVER);

  00082	83 3d 00 00 00
	00 00		 cmp	 DWORD PTR ?system_comms_model@@3W4COMMS_MODEL_TYPES@@A, 0 ; system_comms_model
  00089	74 18		 je	 SHORT $LN55@process_re
  0008b	a1 00 00 00 00	 mov	 eax, DWORD PTR ?__LINE__Var@?0??process_received_entity_comms_messages@@YGXXZ@4JA
  00090	83 c0 34	 add	 eax, 52			; 00000034H
  00093	50		 push	 eax
  00094	68 00 00 00 00	 push	 OFFSET ??_C@_0EO@OCMIKFBI@c?3?2users?2nhv90?2projects?2eech?2ap@
  00099	68 00 00 00 00	 push	 OFFSET ??_C@_0CJ@DMBLBJBK@get_comms_model?5?$CI?$CJ?5?$DN?$DN?5COMMS_MOD@
  0009e	e8 00 00 00 00	 call	 ?process_assert@@YGXPBD0H@Z ; process_assert
$LN55@process_re:

; 2943 : 
; 2944 : 				wp = unpack_entity_safe_ptr ();

  000a3	e8 00 00 00 00	 call	 ?unpack_entity_safe_ptr@@YGPAUENTITY@@XZ ; unpack_entity_safe_ptr
  000a8	89 45 f4	 mov	 DWORD PTR _wp$221[ebp], eax

; 2945 : 
; 2946 : 				unpack_vec3d (wp, VEC3D_TYPE_POSITION, &pos);

  000ab	8d 45 e8	 lea	 eax, DWORD PTR _pos$220[ebp]
  000ae	50		 push	 eax
  000af	6a 08		 push	 8
  000b1	8b 4d f4	 mov	 ecx, DWORD PTR _wp$221[ebp]
  000b4	51		 push	 ecx
  000b5	e8 00 00 00 00	 call	 ?unpack_vec3d@@YGXPAUENTITY@@W4VEC3D_TYPES@@PAUVEC3D@@@Z ; unpack_vec3d

; 2947 : 
; 2948 : 				#if DEBUG_MODULE_MESSAGE_TEXT
; 2949 : 
; 2950 : 				debug_log ("EN_COMMS: received add planner waypoint at %f, %f, %f", pos.x, pos.y, pos.z);
; 2951 : 
; 2952 : 				#endif
; 2953 : 
; 2954 : 				create_stack_attributes = force_local_entity_create_stack_attributes;

  000ba	a1 00 00 00 00	 mov	 eax, DWORD PTR ?force_local_entity_create_stack_attributes@@3HA ; force_local_entity_create_stack_attributes
  000bf	89 45 e4	 mov	 DWORD PTR _create_stack_attributes$219[ebp], eax

; 2955 : 
; 2956 : 				set_force_local_entity_create_stack_attributes (TRUE);

  000c2	c7 05 00 00 00
	00 01 00 00 00	 mov	 DWORD PTR ?force_local_entity_create_stack_attributes@@3HA, 1 ; force_local_entity_create_stack_attributes

; 2957 : 
; 2958 : 				map_add_waypoint (wp, &pos);

  000cc	8d 45 e8	 lea	 eax, DWORD PTR _pos$220[ebp]
  000cf	50		 push	 eax
  000d0	8b 4d f4	 mov	 ecx, DWORD PTR _wp$221[ebp]
  000d3	51		 push	 ecx
  000d4	e8 00 00 00 00	 call	 ?map_add_waypoint@@YGXPAUENTITY@@PAUVEC3D@@@Z ; map_add_waypoint

; 2959 : 
; 2960 : 				set_force_local_entity_create_stack_attributes (create_stack_attributes);

  000d9	8b 45 e4	 mov	 eax, DWORD PTR _create_stack_attributes$219[ebp]
  000dc	a3 00 00 00 00	 mov	 DWORD PTR ?force_local_entity_create_stack_attributes@@3HA, eax ; force_local_entity_create_stack_attributes

; 2961 : 
; 2962 : 				break;

  000e1	e9 93 43 00 00	 jmp	 $LN4@process_re
$LN56@process_re:

; 2963 : 			}
; 2964 : 			////////////////////////////////////////
; 2965 : 			case ENTITY_COMMS_ADVISE_TRANSMIT_RECON:
; 2966 : 			////////////////////////////////////////
; 2967 : 			{
; 2968 : 				entity
; 2969 : 					*en;
; 2970 : 
; 2971 : 				en = unpack_entity_safe_ptr ();

  000e6	e8 00 00 00 00	 call	 ?unpack_entity_safe_ptr@@YGPAUENTITY@@XZ ; unpack_entity_safe_ptr
  000eb	89 45 e0	 mov	 DWORD PTR _en$218[ebp], eax

; 2972 : 
; 2973 : 				#if DEBUG_MODULE_MESSAGE_TEXT
; 2974 : 
; 2975 : 				debug_log ("EN_COMMS: received advise transmit recon");
; 2976 : 
; 2977 : 				#endif
; 2978 : 
; 2979 : 				if (en == get_gunship_entity ())

  000ee	8b 45 e0	 mov	 eax, DWORD PTR _en$218[ebp]
  000f1	3b 05 00 00 00
	00		 cmp	 eax, DWORD PTR ?gunship_entity@@3PAUENTITY@@A ; gunship_entity
  000f7	75 12		 jne	 SHORT $LN57@process_re

; 2980 : 				{
; 2981 : 					set_status_message (get_trans ("ADVISE_TRANSMIT_RECON"), STATUS_MESSAGE_TYPE_ALERT);

  000f9	6a 01		 push	 1
  000fb	68 00 00 00 00	 push	 OFFSET ??_C@_0BG@PFNEBFLH@ADVISE_TRANSMIT_RECON@
  00100	e8 00 00 00 00	 call	 ?get_trans@@YGPBDPBD@Z	; get_trans
  00105	50		 push	 eax
  00106	e8 00 00 00 00	 call	 ?set_status_message@@YGXPBDW4STATUS_MESSAGE_TYPES@@@Z ; set_status_message
$LN57@process_re:

; 2982 : 				}
; 2983 : 
; 2984 : 				break;

  0010b	e9 69 43 00 00	 jmp	 $LN4@process_re
$LN58@process_re:

; 2985 : 			}
; 2986 : 			////////////////////////////////////////
; 2987 : 			case ENTITY_COMMS_ATTITUDE_ANGLES:
; 2988 : 			////////////////////////////////////////
; 2989 : 			{
; 2990 : 				entity
; 2991 : 					*en;
; 2992 : 
; 2993 : 				float
; 2994 : 					heading,
; 2995 : 					pitch,
; 2996 : 					roll;
; 2997 : 
; 2998 : 				en = unpack_entity_safe_ptr ();

  00110	e8 00 00 00 00	 call	 ?unpack_entity_safe_ptr@@YGPAUENTITY@@XZ ; unpack_entity_safe_ptr
  00115	89 45 dc	 mov	 DWORD PTR _en$217[ebp], eax

; 2999 : 
; 3000 : 				unpack_attitude_angles (en, &heading, &pitch, &roll);

  00118	8d 45 d0	 lea	 eax, DWORD PTR _roll$214[ebp]
  0011b	50		 push	 eax
  0011c	8d 4d d4	 lea	 ecx, DWORD PTR _pitch$215[ebp]
  0011f	51		 push	 ecx
  00120	8d 55 d8	 lea	 edx, DWORD PTR _heading$216[ebp]
  00123	52		 push	 edx
  00124	8b 45 dc	 mov	 eax, DWORD PTR _en$217[ebp]
  00127	50		 push	 eax
  00128	e8 00 00 00 00	 call	 ?unpack_attitude_angles@@YGXPAUENTITY@@PAM11@Z ; unpack_attitude_angles

; 3001 : 
; 3002 : 				set_client_server_entity_attitude_angles (en, heading, pitch, roll);

  0012d	83 7d dc 00	 cmp	 DWORD PTR _en$217[ebp], 0
  00131	74 0d		 je	 SHORT $LN232@process_re
  00133	8b 45 dc	 mov	 eax, DWORD PTR _en$217[ebp]
  00136	8b 08		 mov	 ecx, DWORD PTR [eax]
  00138	89 8d c0 f8 ff
	ff		 mov	 DWORD PTR tv134[ebp], ecx
  0013e	eb 24		 jmp	 SHORT $LN233@process_re
$LN232@process_re:
  00140	8b 15 00 00 00
	00		 mov	 edx, DWORD PTR ?__LINE__Var@?0??process_received_entity_comms_messages@@YGXXZ@4JA
  00146	83 c2 70	 add	 edx, 112		; 00000070H
  00149	52		 push	 edx
  0014a	68 00 00 00 00	 push	 OFFSET ??_C@_0EO@OCMIKFBI@c?3?2users?2nhv90?2projects?2eech?2ap@
  0014f	a1 00 00 00 00	 mov	 eax, DWORD PTR ?null_entity_pointer_message@@3PBDB ; null_entity_pointer_message
  00154	50		 push	 eax
  00155	e8 00 00 00 00	 call	 ?process_assert@@YGXPBD0H@Z ; process_assert
  0015a	c7 85 c0 f8 ff
	ff 00 00 00 00	 mov	 DWORD PTR tv134[ebp], 0
$LN233@process_re:
  00164	51		 push	 ecx
  00165	f3 0f 10 45 d0	 movss	 xmm0, DWORD PTR _roll$214[ebp]
  0016a	f3 0f 11 04 24	 movss	 DWORD PTR [esp], xmm0
  0016f	51		 push	 ecx
  00170	f3 0f 10 45 d4	 movss	 xmm0, DWORD PTR _pitch$215[ebp]
  00175	f3 0f 11 04 24	 movss	 DWORD PTR [esp], xmm0
  0017a	51		 push	 ecx
  0017b	f3 0f 10 45 d8	 movss	 xmm0, DWORD PTR _heading$216[ebp]
  00180	f3 0f 11 04 24	 movss	 DWORD PTR [esp], xmm0
  00185	8b 4d dc	 mov	 ecx, DWORD PTR _en$217[ebp]
  00188	51		 push	 ecx
  00189	8b 15 00 00 00
	00		 mov	 edx, DWORD PTR ?system_comms_model@@3W4COMMS_MODEL_TYPES@@A ; system_comms_model
  0018f	c1 e2 02	 shl	 edx, 2
  00192	8b 85 c0 f8 ff
	ff		 mov	 eax, DWORD PTR tv134[ebp]
  00198	8b 8c c2 00 00
	00 00		 mov	 ecx, DWORD PTR ?fn_set_client_server_entity_attitude_angles@@3PAY01P6GXPAUENTITY@@MMM@ZA[edx+eax*8]
  0019f	ff d1		 call	 ecx

; 3003 : 
; 3004 : 				#if DEBUG_MODULE_MESSAGE_TEXT
; 3005 : 
; 3006 : 				debug_log ("EN_COMMS: received attitude angle for %s (%d)", get_local_entity_type_name (en), get_local_entity_index (en));
; 3007 : 
; 3008 : 				#endif
; 3009 : 
; 3010 : 				break;

  001a1	e9 d3 42 00 00	 jmp	 $LN4@process_re
$LN59@process_re:

; 3011 : 			}
; 3012 : 			////////////////////////////////////////
; 3013 : 			case ENTITY_COMMS_ATTITUDE_MATRIX:
; 3014 : 			////////////////////////////////////////
; 3015 : 			{
; 3016 : 				entity
; 3017 : 					*en;
; 3018 : 
; 3019 : 				matrix3x3
; 3020 : 					attitude;
; 3021 : 
; 3022 : 				en = unpack_entity_safe_ptr ();

  001a6	e8 00 00 00 00	 call	 ?unpack_entity_safe_ptr@@YGPAUENTITY@@XZ ; unpack_entity_safe_ptr
  001ab	89 45 cc	 mov	 DWORD PTR _en$213[ebp], eax

; 3023 : 
; 3024 : 				unpack_attitude_matrix (en, attitude);

  001ae	8d 45 a8	 lea	 eax, DWORD PTR _attitude$212[ebp]
  001b1	50		 push	 eax
  001b2	8b 4d cc	 mov	 ecx, DWORD PTR _en$213[ebp]
  001b5	51		 push	 ecx
  001b6	e8 00 00 00 00	 call	 ?unpack_attitude_matrix@@YGXPAUENTITY@@QAY02M@Z ; unpack_attitude_matrix

; 3025 : 
; 3026 : 				set_client_server_entity_attitude_matrix (en, attitude);

  001bb	83 7d cc 00	 cmp	 DWORD PTR _en$213[ebp], 0
  001bf	74 0d		 je	 SHORT $LN234@process_re
  001c1	8b 45 cc	 mov	 eax, DWORD PTR _en$213[ebp]
  001c4	8b 08		 mov	 ecx, DWORD PTR [eax]
  001c6	89 8d c0 f8 ff
	ff		 mov	 DWORD PTR tv152[ebp], ecx
  001cc	eb 27		 jmp	 SHORT $LN235@process_re
$LN234@process_re:
  001ce	8b 15 00 00 00
	00		 mov	 edx, DWORD PTR ?__LINE__Var@?0??process_received_entity_comms_messages@@YGXXZ@4JA
  001d4	81 c2 88 00 00
	00		 add	 edx, 136		; 00000088H
  001da	52		 push	 edx
  001db	68 00 00 00 00	 push	 OFFSET ??_C@_0EO@OCMIKFBI@c?3?2users?2nhv90?2projects?2eech?2ap@
  001e0	a1 00 00 00 00	 mov	 eax, DWORD PTR ?null_entity_pointer_message@@3PBDB ; null_entity_pointer_message
  001e5	50		 push	 eax
  001e6	e8 00 00 00 00	 call	 ?process_assert@@YGXPBD0H@Z ; process_assert
  001eb	c7 85 c0 f8 ff
	ff 00 00 00 00	 mov	 DWORD PTR tv152[ebp], 0
$LN235@process_re:
  001f5	8d 4d a8	 lea	 ecx, DWORD PTR _attitude$212[ebp]
  001f8	51		 push	 ecx
  001f9	8b 55 cc	 mov	 edx, DWORD PTR _en$213[ebp]
  001fc	52		 push	 edx
  001fd	a1 00 00 00 00	 mov	 eax, DWORD PTR ?system_comms_model@@3W4COMMS_MODEL_TYPES@@A ; system_comms_model
  00202	c1 e0 02	 shl	 eax, 2
  00205	8b 8d c0 f8 ff
	ff		 mov	 ecx, DWORD PTR tv152[ebp]
  0020b	8b 94 c8 00 00
	00 00		 mov	 edx, DWORD PTR ?fn_set_client_server_entity_attitude_matrix@@3PAY01P6GXPAUENTITY@@QAY02M@ZA[eax+ecx*8]
  00212	ff d2		 call	 edx

; 3027 : 
; 3028 : 				#if DEBUG_MODULE_MESSAGE_TEXT
; 3029 : 
; 3030 : 				debug_log ("EN_COMMS: received attitude matrix for %s (%d)", get_local_entity_type_name (en), get_local_entity_index (en));
; 3031 : 
; 3032 : 				#endif
; 3033 : 
; 3034 : 				break;

  00214	e9 60 42 00 00	 jmp	 $LN4@process_re
$LN60@process_re:

; 3035 : 			}
; 3036 : 			////////////////////////////////////////
; 3037 : 			case ENTITY_COMMS_CAMPAIGN_COMPLETED:
; 3038 : 			////////////////////////////////////////
; 3039 : 			{
; 3040 : 				//
; 3041 : 				// (entity_comms_messages message, entity *en, int side)
; 3042 : 				//
; 3043 : 
; 3044 : 				entity
; 3045 : 					*en;
; 3046 : 
; 3047 : 				entity_sides
; 3048 : 					side;
; 3049 : 
; 3050 : 				campaign_completed_types
; 3051 : 					complete;
; 3052 : 
; 3053 : 				en = unpack_entity_safe_ptr ();

  00219	e8 00 00 00 00	 call	 ?unpack_entity_safe_ptr@@YGPAUENTITY@@XZ ; unpack_entity_safe_ptr
  0021e	89 45 a4	 mov	 DWORD PTR _en$211[ebp], eax

; 3054 : 
; 3055 : 				side = (entity_sides) unpack_int_value (en, INT_TYPE_SIDE);

  00221	68 bb 00 00 00	 push	 187			; 000000bbH
  00226	8b 45 a4	 mov	 eax, DWORD PTR _en$211[ebp]
  00229	50		 push	 eax
  0022a	e8 00 00 00 00	 call	 ?unpack_int_value@@YGHPAUENTITY@@W4INT_TYPES@@@Z ; unpack_int_value
  0022f	89 45 a0	 mov	 DWORD PTR _side$210[ebp], eax

; 3056 : 
; 3057 : 				complete = (campaign_completed_types) unpack_int_value (en, INT_TYPE_SESSION_COMPLETE);

  00232	68 ba 00 00 00	 push	 186			; 000000baH
  00237	8b 45 a4	 mov	 eax, DWORD PTR _en$211[ebp]
  0023a	50		 push	 eax
  0023b	e8 00 00 00 00	 call	 ?unpack_int_value@@YGHPAUENTITY@@W4INT_TYPES@@@Z ; unpack_int_value
  00240	89 45 9c	 mov	 DWORD PTR _complete$209[ebp], eax

; 3058 : 
; 3059 : 				campaign_completed (side, complete);

  00243	8b 45 9c	 mov	 eax, DWORD PTR _complete$209[ebp]
  00246	50		 push	 eax
  00247	8b 4d a0	 mov	 ecx, DWORD PTR _side$210[ebp]
  0024a	51		 push	 ecx
  0024b	e8 00 00 00 00	 call	 ?campaign_completed@@YGXW4ENTITY_SIDES@@W4CAMPAIGN_COMPLETED_TYPES@@@Z ; campaign_completed

; 3060 : 
; 3061 : 				#if DEBUG_MODULE_MESSAGE_TEXT
; 3062 : 
; 3063 : 				debug_log ("EN_COMMS: received campaign completed by %s", entity_side_names [side]);
; 3064 : 
; 3065 : 				#endif
; 3066 : 
; 3067 : 				break;

  00250	e9 24 42 00 00	 jmp	 $LN4@process_re
$LN61@process_re:

; 3068 : 			}
; 3069 : 			////////////////////////////////////////
; 3070 : 			case ENTITY_COMMS_CAPTURE_KEYSITE:
; 3071 : 			////////////////////////////////////////
; 3072 : 			{
; 3073 : 				//
; 3074 : 				// (entity_comms_messages message, entity *en, int side)
; 3075 : 				//
; 3076 : 
; 3077 : 				entity
; 3078 : 					*en;
; 3079 : 
; 3080 : 				entity_sides
; 3081 : 					side;
; 3082 : 
; 3083 : 				en = unpack_entity_safe_ptr ();

  00255	e8 00 00 00 00	 call	 ?unpack_entity_safe_ptr@@YGPAUENTITY@@XZ ; unpack_entity_safe_ptr
  0025a	89 45 98	 mov	 DWORD PTR _en$208[ebp], eax

; 3084 : 
; 3085 : 				side = (entity_sides) unpack_int_value (en, INT_TYPE_SIDE);

  0025d	68 bb 00 00 00	 push	 187			; 000000bbH
  00262	8b 45 98	 mov	 eax, DWORD PTR _en$208[ebp]
  00265	50		 push	 eax
  00266	e8 00 00 00 00	 call	 ?unpack_int_value@@YGHPAUENTITY@@W4INT_TYPES@@@Z ; unpack_int_value
  0026b	89 45 94	 mov	 DWORD PTR _side$207[ebp], eax

; 3086 : 
; 3087 : 				change_local_keysite_building_sides (en, side);

  0026e	8b 45 94	 mov	 eax, DWORD PTR _side$207[ebp]
  00271	50		 push	 eax
  00272	8b 4d 98	 mov	 ecx, DWORD PTR _en$208[ebp]
  00275	51		 push	 ecx
  00276	e8 00 00 00 00	 call	 ?change_local_keysite_building_sides@@YGXPAUENTITY@@W4ENTITY_SIDES@@@Z ; change_local_keysite_building_sides

; 3088 : 
; 3089 : 				#if DEBUG_MODULE_MESSAGE_TEXT
; 3090 : 
; 3091 : 				debug_log ("EN_COMMS: received captured keysite for %s", entity_side_names [side]);
; 3092 : 
; 3093 : 				#endif
; 3094 : 
; 3095 : 				break;

  0027b	e9 f9 41 00 00	 jmp	 $LN4@process_re
$LN62@process_re:

; 3096 : 			}
; 3097 : 			////////////////////////////////////////
; 3098 : 			case ENTITY_COMMS_CHAR_VALUE:
; 3099 : 			////////////////////////////////////////
; 3100 : 			{
; 3101 : 				entity
; 3102 : 					*en;
; 3103 : 
; 3104 : 				char_types
; 3105 : 					type;
; 3106 : 
; 3107 : 				char
; 3108 : 					value;
; 3109 : 
; 3110 : 				en = unpack_entity_safe_ptr ();

  00280	e8 00 00 00 00	 call	 ?unpack_entity_safe_ptr@@YGPAUENTITY@@XZ ; unpack_entity_safe_ptr
  00285	89 45 90	 mov	 DWORD PTR _en$206[ebp], eax

; 3111 : 
; 3112 : 				type = unpack_char_type ();

  00288	e8 00 00 00 00	 call	 ?unpack_char_type@@YG?AW4CHAR_TYPES@@XZ ; unpack_char_type
  0028d	89 45 8c	 mov	 DWORD PTR _type$205[ebp], eax

; 3113 : 
; 3114 : 				value = unpack_char_value (en, type);

  00290	8b 45 8c	 mov	 eax, DWORD PTR _type$205[ebp]
  00293	50		 push	 eax
  00294	8b 4d 90	 mov	 ecx, DWORD PTR _en$206[ebp]
  00297	51		 push	 ecx
  00298	e8 00 00 00 00	 call	 ?unpack_char_value@@YGDPAUENTITY@@W4CHAR_TYPES@@@Z ; unpack_char_value
  0029d	88 45 8b	 mov	 BYTE PTR _value$204[ebp], al

; 3115 : 
; 3116 : 				set_client_server_entity_char_value (en, type, value);

  002a0	83 7d 90 00	 cmp	 DWORD PTR _en$206[ebp], 0
  002a4	74 0d		 je	 SHORT $LN236@process_re
  002a6	8b 45 90	 mov	 eax, DWORD PTR _en$206[ebp]
  002a9	8b 08		 mov	 ecx, DWORD PTR [eax]
  002ab	89 8d c0 f8 ff
	ff		 mov	 DWORD PTR tv185[ebp], ecx
  002b1	eb 27		 jmp	 SHORT $LN237@process_re
$LN236@process_re:
  002b3	8b 15 00 00 00
	00		 mov	 edx, DWORD PTR ?__LINE__Var@?0??process_received_entity_comms_messages@@YGXXZ@4JA
  002b9	81 c2 e2 00 00
	00		 add	 edx, 226		; 000000e2H
  002bf	52		 push	 edx
  002c0	68 00 00 00 00	 push	 OFFSET ??_C@_0EO@OCMIKFBI@c?3?2users?2nhv90?2projects?2eech?2ap@
  002c5	a1 00 00 00 00	 mov	 eax, DWORD PTR ?null_entity_pointer_message@@3PBDB ; null_entity_pointer_message
  002ca	50		 push	 eax
  002cb	e8 00 00 00 00	 call	 ?process_assert@@YGXPBD0H@Z ; process_assert
  002d0	c7 85 c0 f8 ff
	ff 00 00 00 00	 mov	 DWORD PTR tv185[ebp], 0
$LN237@process_re:
  002da	83 7d 8c 00	 cmp	 DWORD PTR _type$205[ebp], 0
  002de	7c 11		 jl	 SHORT $LN238@process_re
  002e0	83 7d 8c 02	 cmp	 DWORD PTR _type$205[ebp], 2
  002e4	7d 0b		 jge	 SHORT $LN238@process_re
  002e6	8b 4d 8c	 mov	 ecx, DWORD PTR _type$205[ebp]
  002e9	89 8d bc f8 ff
	ff		 mov	 DWORD PTR tv194[ebp], ecx
  002ef	eb 27		 jmp	 SHORT $LN239@process_re
$LN238@process_re:
  002f1	8b 15 00 00 00
	00		 mov	 edx, DWORD PTR ?__LINE__Var@?0??process_received_entity_comms_messages@@YGXXZ@4JA
  002f7	81 c2 e2 00 00
	00		 add	 edx, 226		; 000000e2H
  002fd	52		 push	 edx
  002fe	68 00 00 00 00	 push	 OFFSET ??_C@_0EO@OCMIKFBI@c?3?2users?2nhv90?2projects?2eech?2ap@
  00303	a1 00 00 00 00	 mov	 eax, DWORD PTR ?overload_invalid_char_type_message@@3PBDB ; overload_invalid_char_type_message
  00308	50		 push	 eax
  00309	e8 00 00 00 00	 call	 ?process_assert@@YGXPBD0H@Z ; process_assert
  0030e	c7 85 bc f8 ff
	ff 00 00 00 00	 mov	 DWORD PTR tv194[ebp], 0
$LN239@process_re:
  00318	0f b6 4d 8b	 movzx	 ecx, BYTE PTR _value$204[ebp]
  0031c	51		 push	 ecx
  0031d	8b 55 8c	 mov	 edx, DWORD PTR _type$205[ebp]
  00320	52		 push	 edx
  00321	8b 45 90	 mov	 eax, DWORD PTR _en$206[ebp]
  00324	50		 push	 eax
  00325	8b 8d c0 f8 ff
	ff		 mov	 ecx, DWORD PTR tv185[ebp]
  0032b	c1 e1 04	 shl	 ecx, 4
  0032e	8b 95 bc f8 ff
	ff		 mov	 edx, DWORD PTR tv194[ebp]
  00334	8d 84 d1 00 00
	00 00		 lea	 eax, DWORD PTR ?fn_set_client_server_entity_char_value@@3PAY111P6GXPAUENTITY@@W4CHAR_TYPES@@D@ZA[ecx+edx*8]
  0033b	8b 0d 00 00 00
	00		 mov	 ecx, DWORD PTR ?system_comms_model@@3W4COMMS_MODEL_TYPES@@A ; system_comms_model
  00341	8b 14 88	 mov	 edx, DWORD PTR [eax+ecx*4]
  00344	ff d2		 call	 edx

; 3117 : 
; 3118 : 				#if DEBUG_MODULE_MESSAGE_TEXT
; 3119 : 
; 3120 : 				debug_log ("EN_COMMS: received char for %s (%d)", get_local_entity_type_name (en), get_local_entity_index (en));
; 3121 : 
; 3122 : 				#endif
; 3123 : 
; 3124 : 				break;

  00346	e9 2e 41 00 00	 jmp	 $LN4@process_re
$LN63@process_re:

; 3125 : 			}
; 3126 : 			////////////////////////////////////////
; 3127 : 			case ENTITY_COMMS_CREATE:
; 3128 : 			////////////////////////////////////////
; 3129 : 			{
; 3130 : 				entity_types
; 3131 : 					type;
; 3132 : 
; 3133 : 				int
; 3134 : 					index,
; 3135 : 					num_bytes;
; 3136 : 
; 3137 : 				type = unpack_entity_type ();

  0034b	e8 00 00 00 00	 call	 ?unpack_entity_type@@YG?AW4ENTITY_TYPES@@XZ ; unpack_entity_type
  00350	89 45 84	 mov	 DWORD PTR _type$203[ebp], eax

; 3138 : 
; 3139 : 				index = unpack_entity_safe_index ();

  00353	e8 00 00 00 00	 call	 ?unpack_entity_safe_index@@YGHXZ ; unpack_entity_safe_index
  00358	89 45 80	 mov	 DWORD PTR _index$202[ebp], eax

; 3140 : 
; 3141 : 				num_bytes = unpack_entity_attributes (attribute_buffer);

  0035b	68 00 00 00 00	 push	 OFFSET ?attribute_buffer@@3PADA
  00360	e8 00 00 00 00	 call	 ?unpack_entity_attributes@@YGHPAD@Z ; unpack_entity_attributes
  00365	89 85 7c ff ff
	ff		 mov	 DWORD PTR _num_bytes$201[ebp], eax

; 3142 : 
; 3143 : 				ASSERT (num_bytes <= ATTRIBUTE_BUFFER_SIZE);

  0036b	81 bd 7c ff ff
	ff e8 03 00 00	 cmp	 DWORD PTR _num_bytes$201[ebp], 1000 ; 000003e8H
  00375	7e 1a		 jle	 SHORT $LN64@process_re
  00377	a1 00 00 00 00	 mov	 eax, DWORD PTR ?__LINE__Var@?0??process_received_entity_comms_messages@@YGXXZ@4JA
  0037c	05 fd 00 00 00	 add	 eax, 253		; 000000fdH
  00381	50		 push	 eax
  00382	68 00 00 00 00	 push	 OFFSET ??_C@_0EO@OCMIKFBI@c?3?2users?2nhv90?2projects?2eech?2ap@
  00387	68 00 00 00 00	 push	 OFFSET ??_C@_0CD@GAOMIKLP@num_bytes?5?$DM?$DN?5ATTRIBUTE_BUFFER_S@
  0038c	e8 00 00 00 00	 call	 ?process_assert@@YGXPBD0H@Z ; process_assert
$LN64@process_re:

; 3144 : 
; 3145 : 				create_client_server_entity (type, index, attribute_buffer);

  00391	68 00 00 00 00	 push	 OFFSET ?attribute_buffer@@3PADA
  00396	8b 45 80	 mov	 eax, DWORD PTR _index$202[ebp]
  00399	50		 push	 eax
  0039a	8b 4d 84	 mov	 ecx, DWORD PTR _type$203[ebp]
  0039d	51		 push	 ecx
  0039e	e8 00 00 00 00	 call	 ?create_client_server_entity@@YAPAUENTITY@@W4ENTITY_TYPES@@HZZ ; create_client_server_entity
  003a3	83 c4 0c	 add	 esp, 12			; 0000000cH

; 3146 : 
; 3147 : 				#if DEBUG_MODULE_MESSAGE_TEXT
; 3148 : 
; 3149 : 				debug_log ("EN_COMMS: received create for %s (index %d)", entity_type_names [type], index);
; 3150 : 
; 3151 : 				#endif
; 3152 : 
; 3153 : 				break;

  003a6	e9 ce 40 00 00	 jmp	 $LN4@process_re
$LN65@process_re:

; 3154 : 			}
; 3155 : 			////////////////////////////////////////
; 3156 : 			case ENTITY_COMMS_CREATE_META_EXPLOSION:
; 3157 : 			////////////////////////////////////////
; 3158 : 			{
; 3159 : 				entity
; 3160 : 					*parent;
; 3161 : 
; 3162 : 				meta_explosion_types
; 3163 : 					type;
; 3164 : 
; 3165 : 				int
; 3166 : 					loop,
; 3167 : 					list_count,
; 3168 : 					*entity_index_list;
; 3169 : 
; 3170 : 				vec3d
; 3171 : 					position;
; 3172 : 
; 3173 : 				type = (meta_explosion_types) unpack_int_value (NULL, INT_TYPE_META_EXPLOSION_TYPE);

  003ab	68 88 00 00 00	 push	 136			; 00000088H
  003b0	6a 00		 push	 0
  003b2	e8 00 00 00 00	 call	 ?unpack_int_value@@YGHPAUENTITY@@W4INT_TYPES@@@Z ; unpack_int_value
  003b7	89 85 74 ff ff
	ff		 mov	 DWORD PTR _type$199[ebp], eax

; 3174 : 
; 3175 : 				unpack_vec3d (NULL, VEC3D_TYPE_POSITION, &position);

  003bd	8d 85 5c ff ff
	ff		 lea	 eax, DWORD PTR _position$195[ebp]
  003c3	50		 push	 eax
  003c4	6a 08		 push	 8
  003c6	6a 00		 push	 0
  003c8	e8 00 00 00 00	 call	 ?unpack_vec3d@@YGXPAUENTITY@@W4VEC3D_TYPES@@PAUVEC3D@@@Z ; unpack_vec3d

; 3176 : 
; 3177 : 				parent = unpack_entity_safe_ptr ();

  003cd	e8 00 00 00 00	 call	 ?unpack_entity_safe_ptr@@YGPAUENTITY@@XZ ; unpack_entity_safe_ptr
  003d2	89 85 78 ff ff
	ff		 mov	 DWORD PTR _parent$200[ebp], eax

; 3178 : 
; 3179 : 				list_count = count_entities_in_meta_explosion (type);

  003d8	8b 85 74 ff ff
	ff		 mov	 eax, DWORD PTR _type$199[ebp]
  003de	50		 push	 eax
  003df	e8 00 00 00 00	 call	 ?count_entities_in_meta_explosion@@YGHW4META_EXPLOSION_TYPES@@@Z ; count_entities_in_meta_explosion
  003e4	89 85 6c ff ff
	ff		 mov	 DWORD PTR _list_count$197[ebp], eax

; 3180 : 
; 3181 : 				entity_index_list = (int *) malloc_fast_mem (sizeof (int) * list_count);

  003ea	8b 85 6c ff ff
	ff		 mov	 eax, DWORD PTR _list_count$197[ebp]
  003f0	c1 e0 02	 shl	 eax, 2
  003f3	50		 push	 eax
  003f4	e8 00 00 00 00	 call	 ?malloc_fast_memory@@YGPAXI@Z ; malloc_fast_memory
  003f9	89 85 68 ff ff
	ff		 mov	 DWORD PTR _entity_index_list$196[ebp], eax

; 3182 : 
; 3183 : 				for (loop = 0; loop < list_count; loop ++)

  003ff	c7 85 70 ff ff
	ff 00 00 00 00	 mov	 DWORD PTR _loop$198[ebp], 0
  00409	eb 0f		 jmp	 SHORT $LN8@process_re
$LN6@process_re:
  0040b	8b 85 70 ff ff
	ff		 mov	 eax, DWORD PTR _loop$198[ebp]
  00411	83 c0 01	 add	 eax, 1
  00414	89 85 70 ff ff
	ff		 mov	 DWORD PTR _loop$198[ebp], eax
$LN8@process_re:
  0041a	8b 85 70 ff ff
	ff		 mov	 eax, DWORD PTR _loop$198[ebp]
  00420	3b 85 6c ff ff
	ff		 cmp	 eax, DWORD PTR _list_count$197[ebp]
  00426	7d 16		 jge	 SHORT $LN7@process_re

; 3184 : 				{
; 3185 : 					entity_index_list [loop] = unpack_entity_safe_index ();

  00428	e8 00 00 00 00	 call	 ?unpack_entity_safe_index@@YGHXZ ; unpack_entity_safe_index
  0042d	8b 8d 70 ff ff
	ff		 mov	 ecx, DWORD PTR _loop$198[ebp]
  00433	8b 95 68 ff ff
	ff		 mov	 edx, DWORD PTR _entity_index_list$196[ebp]
  00439	89 04 8a	 mov	 DWORD PTR [edx+ecx*4], eax

; 3186 : 				}

  0043c	eb cd		 jmp	 SHORT $LN6@process_re
$LN7@process_re:

; 3187 : 
; 3188 : 				create_meta_explosion (type, &position, parent, entity_index_list);

  0043e	8b 85 68 ff ff
	ff		 mov	 eax, DWORD PTR _entity_index_list$196[ebp]
  00444	50		 push	 eax
  00445	8b 8d 78 ff ff
	ff		 mov	 ecx, DWORD PTR _parent$200[ebp]
  0044b	51		 push	 ecx
  0044c	8d 95 5c ff ff
	ff		 lea	 edx, DWORD PTR _position$195[ebp]
  00452	52		 push	 edx
  00453	8b 85 74 ff ff
	ff		 mov	 eax, DWORD PTR _type$199[ebp]
  00459	50		 push	 eax
  0045a	e8 00 00 00 00	 call	 ?create_meta_explosion@@YGHW4META_EXPLOSION_TYPES@@PAUVEC3D@@PAUENTITY@@PAH@Z ; create_meta_explosion

; 3189 : 
; 3190 : 				free_mem (entity_index_list);

  0045f	8b 85 68 ff ff
	ff		 mov	 eax, DWORD PTR _entity_index_list$196[ebp]
  00465	50		 push	 eax
  00466	e8 00 00 00 00	 call	 ?free_mem@@YGXPAX@Z	; free_mem

; 3191 : 
; 3192 : 				#if DEBUG_MODULE_MESSAGE_TEXT
; 3193 : 
; 3194 : 				if (parent)
; 3195 : 				{
; 3196 : 
; 3197 : 					debug_log ("EN_COMMS: received create meta explosion for %s (%d)", entity_type_names [parent->type], get_local_entity_index (parent));
; 3198 : 				}
; 3199 : 				else
; 3200 : 				{
; 3201 : 
; 3202 : 					debug_log ("EN_COMMS: received create meta explosion");
; 3203 : 				}
; 3204 : 
; 3205 : 				#endif
; 3206 : 
; 3207 : 				break;

  0046b	e9 09 40 00 00	 jmp	 $LN4@process_re
$LN66@process_re:

; 3208 : 			}
; 3209 : 			////////////////////////////////////////
; 3210 : 			case ENTITY_COMMS_CREATE_META_SMOKE_LIST_SPECIFIED_OFFSET:
; 3211 : 			////////////////////////////////////////
; 3212 : 			{
; 3213 : 				entity
; 3214 : 					*parent;
; 3215 : 
; 3216 : 				meta_smoke_list_types
; 3217 : 					type;
; 3218 : 
; 3219 : 				int
; 3220 : 					loop,
; 3221 : 					list_count,
; 3222 : 					*entity_index_list;
; 3223 : 
; 3224 : 				vec3d
; 3225 : 					rel_pos;
; 3226 : 
; 3227 : 				type = (meta_smoke_list_types) unpack_int_value (NULL, INT_TYPE_META_SMOKE_LIST_TYPE);

  00470	68 89 00 00 00	 push	 137			; 00000089H
  00475	6a 00		 push	 0
  00477	e8 00 00 00 00	 call	 ?unpack_int_value@@YGHPAUENTITY@@W4INT_TYPES@@@Z ; unpack_int_value
  0047c	89 85 54 ff ff
	ff		 mov	 DWORD PTR _type$193[ebp], eax

; 3228 : 
; 3229 : 				parent = unpack_entity_safe_ptr ();

  00482	e8 00 00 00 00	 call	 ?unpack_entity_safe_ptr@@YGPAUENTITY@@XZ ; unpack_entity_safe_ptr
  00487	89 85 58 ff ff
	ff		 mov	 DWORD PTR _parent$194[ebp], eax

; 3230 : 
; 3231 : 				if (parent)

  0048d	83 bd 58 ff ff
	ff 00		 cmp	 DWORD PTR _parent$194[ebp], 0
  00494	74 12		 je	 SHORT $LN67@process_re

; 3232 : 				{
; 3233 : 					unpack_vec3d (NULL, VEC3D_TYPE_RELATIVE_POSITION, &rel_pos);

  00496	8d 85 3c ff ff
	ff		 lea	 eax, DWORD PTR _rel_pos$189[ebp]
  0049c	50		 push	 eax
  0049d	6a 09		 push	 9
  0049f	6a 00		 push	 0
  004a1	e8 00 00 00 00	 call	 ?unpack_vec3d@@YGXPAUENTITY@@W4VEC3D_TYPES@@PAUVEC3D@@@Z ; unpack_vec3d

; 3234 : 				}
; 3235 : 				else

  004a6	eb 10		 jmp	 SHORT $LN68@process_re
$LN67@process_re:

; 3236 : 				{
; 3237 : 					unpack_vec3d (NULL, VEC3D_TYPE_POSITION, &rel_pos);

  004a8	8d 85 3c ff ff
	ff		 lea	 eax, DWORD PTR _rel_pos$189[ebp]
  004ae	50		 push	 eax
  004af	6a 08		 push	 8
  004b1	6a 00		 push	 0
  004b3	e8 00 00 00 00	 call	 ?unpack_vec3d@@YGXPAUENTITY@@W4VEC3D_TYPES@@PAUVEC3D@@@Z ; unpack_vec3d
$LN68@process_re:

; 3238 : 				}
; 3239 : 
; 3240 : 				list_count = count_entities_in_meta_smoke_list (type);

  004b8	8b 85 54 ff ff
	ff		 mov	 eax, DWORD PTR _type$193[ebp]
  004be	50		 push	 eax
  004bf	e8 00 00 00 00	 call	 ?count_entities_in_meta_smoke_list@@YGHW4META_SMOKE_LIST_TYPES@@@Z ; count_entities_in_meta_smoke_list
  004c4	89 85 4c ff ff
	ff		 mov	 DWORD PTR _list_count$191[ebp], eax

; 3241 : 
; 3242 : 				entity_index_list = (int *) malloc_fast_mem (sizeof (int) * list_count);

  004ca	8b 85 4c ff ff
	ff		 mov	 eax, DWORD PTR _list_count$191[ebp]
  004d0	c1 e0 02	 shl	 eax, 2
  004d3	50		 push	 eax
  004d4	e8 00 00 00 00	 call	 ?malloc_fast_memory@@YGPAXI@Z ; malloc_fast_memory
  004d9	89 85 48 ff ff
	ff		 mov	 DWORD PTR _entity_index_list$190[ebp], eax

; 3243 : 
; 3244 : 				for (loop = 0; loop < list_count; loop ++)

  004df	c7 85 50 ff ff
	ff 00 00 00 00	 mov	 DWORD PTR _loop$192[ebp], 0
  004e9	eb 0f		 jmp	 SHORT $LN11@process_re
$LN9@process_re:
  004eb	8b 85 50 ff ff
	ff		 mov	 eax, DWORD PTR _loop$192[ebp]
  004f1	83 c0 01	 add	 eax, 1
  004f4	89 85 50 ff ff
	ff		 mov	 DWORD PTR _loop$192[ebp], eax
$LN11@process_re:
  004fa	8b 85 50 ff ff
	ff		 mov	 eax, DWORD PTR _loop$192[ebp]
  00500	3b 85 4c ff ff
	ff		 cmp	 eax, DWORD PTR _list_count$191[ebp]
  00506	7d 16		 jge	 SHORT $LN10@process_re

; 3245 : 				{
; 3246 : 					entity_index_list [loop] = unpack_entity_safe_index ();

  00508	e8 00 00 00 00	 call	 ?unpack_entity_safe_index@@YGHXZ ; unpack_entity_safe_index
  0050d	8b 8d 50 ff ff
	ff		 mov	 ecx, DWORD PTR _loop$192[ebp]
  00513	8b 95 48 ff ff
	ff		 mov	 edx, DWORD PTR _entity_index_list$190[ebp]
  00519	89 04 8a	 mov	 DWORD PTR [edx+ecx*4], eax

; 3247 : 				}

  0051c	eb cd		 jmp	 SHORT $LN9@process_re
$LN10@process_re:

; 3248 : 
; 3249 : 				create_meta_smoke_list_specified_offset (type, parent, &rel_pos, entity_index_list);

  0051e	8b 85 48 ff ff
	ff		 mov	 eax, DWORD PTR _entity_index_list$190[ebp]
  00524	50		 push	 eax
  00525	8d 8d 3c ff ff
	ff		 lea	 ecx, DWORD PTR _rel_pos$189[ebp]
  0052b	51		 push	 ecx
  0052c	8b 95 58 ff ff
	ff		 mov	 edx, DWORD PTR _parent$194[ebp]
  00532	52		 push	 edx
  00533	8b 85 54 ff ff
	ff		 mov	 eax, DWORD PTR _type$193[ebp]
  00539	50		 push	 eax
  0053a	e8 00 00 00 00	 call	 ?create_meta_smoke_list_specified_offset@@YGHW4META_SMOKE_LIST_TYPES@@PAUENTITY@@PAUVEC3D@@PAH@Z ; create_meta_smoke_list_specified_offset

; 3250 : 
; 3251 : 				free_mem (entity_index_list);

  0053f	8b 85 48 ff ff
	ff		 mov	 eax, DWORD PTR _entity_index_list$190[ebp]
  00545	50		 push	 eax
  00546	e8 00 00 00 00	 call	 ?free_mem@@YGXPAX@Z	; free_mem

; 3252 : 
; 3253 : 				#if DEBUG_MODULE_MESSAGE_TEXT
; 3254 : 
; 3255 : 				if (parent)
; 3256 : 				{
; 3257 : 
; 3258 : 					debug_log ("EN_COMMS: received create smoke list ( spec offset ) for %s (%d)", entity_type_names [parent->type], get_local_entity_index (parent));
; 3259 : 				}
; 3260 : 				else
; 3261 : 				{
; 3262 : 
; 3263 : 					debug_log ("EN_COMMS: received create smoke list ( sub offset )");
; 3264 : 				}
; 3265 : 
; 3266 : 				#endif
; 3267 : 
; 3268 : 				break;

  0054b	e9 29 3f 00 00	 jmp	 $LN4@process_re
$LN69@process_re:

; 3269 : 			}
; 3270 : 			////////////////////////////////////////
; 3271 : 			case ENTITY_COMMS_CREATE_META_SMOKE_LIST_SUB_OBJECT_OFFSET:
; 3272 : 			////////////////////////////////////////
; 3273 : 			{
; 3274 : 				entity
; 3275 : 					*parent;
; 3276 : 
; 3277 : 				meta_smoke_list_types
; 3278 : 					type;
; 3279 : 
; 3280 : 				int
; 3281 : 					loop,
; 3282 : 					list_count,
; 3283 : 					sub_object_type,
; 3284 : 					sub_object_depth,
; 3285 : 					*entity_index_list;
; 3286 : 
; 3287 : 				type = (meta_smoke_list_types) unpack_int_value (NULL, INT_TYPE_META_SMOKE_LIST_TYPE);

  00550	68 89 00 00 00	 push	 137			; 00000089H
  00555	6a 00		 push	 0
  00557	e8 00 00 00 00	 call	 ?unpack_int_value@@YGHPAUENTITY@@W4INT_TYPES@@@Z ; unpack_int_value
  0055c	89 85 34 ff ff
	ff		 mov	 DWORD PTR _type$187[ebp], eax

; 3288 : 
; 3289 : 				parent = unpack_entity_safe_ptr ();

  00562	e8 00 00 00 00	 call	 ?unpack_entity_safe_ptr@@YGPAUENTITY@@XZ ; unpack_entity_safe_ptr
  00567	89 85 38 ff ff
	ff		 mov	 DWORD PTR _parent$188[ebp], eax

; 3290 : 
; 3291 : 				sub_object_type = unpack_int_value (NULL, INT_TYPE_SUB_OBJECT_TYPE);

  0056d	68 ce 00 00 00	 push	 206			; 000000ceH
  00572	6a 00		 push	 0
  00574	e8 00 00 00 00	 call	 ?unpack_int_value@@YGHPAUENTITY@@W4INT_TYPES@@@Z ; unpack_int_value
  00579	89 85 28 ff ff
	ff		 mov	 DWORD PTR _sub_object_type$184[ebp], eax

; 3292 : 
; 3293 : 				sub_object_depth = unpack_int_value (NULL, INT_TYPE_SUB_OBJECT_DEPTH);

  0057f	68 cd 00 00 00	 push	 205			; 000000cdH
  00584	6a 00		 push	 0
  00586	e8 00 00 00 00	 call	 ?unpack_int_value@@YGHPAUENTITY@@W4INT_TYPES@@@Z ; unpack_int_value
  0058b	89 85 24 ff ff
	ff		 mov	 DWORD PTR _sub_object_depth$183[ebp], eax

; 3294 : 
; 3295 : 				list_count = count_entities_in_meta_smoke_list (type);

  00591	8b 85 34 ff ff
	ff		 mov	 eax, DWORD PTR _type$187[ebp]
  00597	50		 push	 eax
  00598	e8 00 00 00 00	 call	 ?count_entities_in_meta_smoke_list@@YGHW4META_SMOKE_LIST_TYPES@@@Z ; count_entities_in_meta_smoke_list
  0059d	89 85 2c ff ff
	ff		 mov	 DWORD PTR _list_count$185[ebp], eax

; 3296 : 
; 3297 : 				entity_index_list = (int *) malloc_fast_mem (sizeof (int) * list_count);

  005a3	8b 85 2c ff ff
	ff		 mov	 eax, DWORD PTR _list_count$185[ebp]
  005a9	c1 e0 02	 shl	 eax, 2
  005ac	50		 push	 eax
  005ad	e8 00 00 00 00	 call	 ?malloc_fast_memory@@YGPAXI@Z ; malloc_fast_memory
  005b2	89 85 20 ff ff
	ff		 mov	 DWORD PTR _entity_index_list$182[ebp], eax

; 3298 : 
; 3299 : 				for (loop = 0; loop < list_count; loop ++)

  005b8	c7 85 30 ff ff
	ff 00 00 00 00	 mov	 DWORD PTR _loop$186[ebp], 0
  005c2	eb 0f		 jmp	 SHORT $LN14@process_re
$LN12@process_re:
  005c4	8b 85 30 ff ff
	ff		 mov	 eax, DWORD PTR _loop$186[ebp]
  005ca	83 c0 01	 add	 eax, 1
  005cd	89 85 30 ff ff
	ff		 mov	 DWORD PTR _loop$186[ebp], eax
$LN14@process_re:
  005d3	8b 85 30 ff ff
	ff		 mov	 eax, DWORD PTR _loop$186[ebp]
  005d9	3b 85 2c ff ff
	ff		 cmp	 eax, DWORD PTR _list_count$185[ebp]
  005df	7d 16		 jge	 SHORT $LN13@process_re

; 3300 : 				{
; 3301 : 					entity_index_list [loop] = unpack_entity_safe_index ();

  005e1	e8 00 00 00 00	 call	 ?unpack_entity_safe_index@@YGHXZ ; unpack_entity_safe_index
  005e6	8b 8d 30 ff ff
	ff		 mov	 ecx, DWORD PTR _loop$186[ebp]
  005ec	8b 95 20 ff ff
	ff		 mov	 edx, DWORD PTR _entity_index_list$182[ebp]
  005f2	89 04 8a	 mov	 DWORD PTR [edx+ecx*4], eax

; 3302 : 				}

  005f5	eb cd		 jmp	 SHORT $LN12@process_re
$LN13@process_re:

; 3303 : 
; 3304 : 				create_meta_smoke_list_sub_object_offset (type, parent, sub_object_type, sub_object_depth, entity_index_list);

  005f7	8b 85 20 ff ff
	ff		 mov	 eax, DWORD PTR _entity_index_list$182[ebp]
  005fd	50		 push	 eax
  005fe	8b 8d 24 ff ff
	ff		 mov	 ecx, DWORD PTR _sub_object_depth$183[ebp]
  00604	51		 push	 ecx
  00605	8b 95 28 ff ff
	ff		 mov	 edx, DWORD PTR _sub_object_type$184[ebp]
  0060b	52		 push	 edx
  0060c	8b 85 38 ff ff
	ff		 mov	 eax, DWORD PTR _parent$188[ebp]
  00612	50		 push	 eax
  00613	8b 8d 34 ff ff
	ff		 mov	 ecx, DWORD PTR _type$187[ebp]
  00619	51		 push	 ecx
  0061a	e8 00 00 00 00	 call	 ?create_meta_smoke_list_sub_object_offset@@YGHW4META_SMOKE_LIST_TYPES@@PAUENTITY@@HHPAH@Z ; create_meta_smoke_list_sub_object_offset

; 3305 : 
; 3306 : 				free_mem (entity_index_list);

  0061f	8b 85 20 ff ff
	ff		 mov	 eax, DWORD PTR _entity_index_list$182[ebp]
  00625	50		 push	 eax
  00626	e8 00 00 00 00	 call	 ?free_mem@@YGXPAX@Z	; free_mem

; 3307 : 
; 3308 : 				#if DEBUG_MODULE_MESSAGE_TEXT
; 3309 : 
; 3310 : 				if (parent)
; 3311 : 				{
; 3312 : 
; 3313 : 					debug_log ("EN_COMMS: received create smoke list ( spec offset ) for %s (%d)", entity_type_names [parent->type], get_local_entity_index (parent));
; 3314 : 				}
; 3315 : 				else
; 3316 : 				{
; 3317 : 
; 3318 : 					debug_log ("EN_COMMS: received create smoke list ( sub offset )");
; 3319 : 				}
; 3320 : 
; 3321 : 				#endif
; 3322 : 
; 3323 : 				break;

  0062b	e9 49 3e 00 00	 jmp	 $LN4@process_re
$LN70@process_re:

; 3324 : 			}
; 3325 : 			////////////////////////////////////////
; 3326 : 			case ENTITY_COMMS_CREATE_SOUND_EFFECT:
; 3327 : 			////////////////////////////////////////
; 3328 : 			{
; 3329 : 				entity
; 3330 : 					*parent;
; 3331 : 
; 3332 : 				entity_sub_types
; 3333 : 					sub_type;
; 3334 : 
; 3335 : 				int
; 3336 : 					loop,
; 3337 : 					index,
; 3338 : 					valid,
; 3339 : 					side,
; 3340 : 					channel,
; 3341 : 					locality,
; 3342 : 					looping,
; 3343 : 					valid_position,
; 3344 : 					sample_count,
; 3345 : 					*sample_index_list,
; 3346 : 					create_stack_attributes;
; 3347 : 
; 3348 : 				float
; 3349 : 					amp, pitch;
; 3350 : 
; 3351 : 				vec3d
; 3352 : 					*pos,
; 3353 : 					position;
; 3354 : 
; 3355 : 				index = unpack_entity_safe_index ();

  00630	e8 00 00 00 00	 call	 ?unpack_entity_safe_index@@YGHXZ ; unpack_entity_safe_index
  00635	89 85 10 ff ff
	ff		 mov	 DWORD PTR _index$178[ebp], eax

; 3356 : 
; 3357 : 				parent = unpack_entity_safe_ptr ();

  0063b	e8 00 00 00 00	 call	 ?unpack_entity_safe_ptr@@YGPAUENTITY@@XZ ; unpack_entity_safe_ptr
  00640	89 85 1c ff ff
	ff		 mov	 DWORD PTR _parent$181[ebp], eax

; 3358 : 
; 3359 : 				side = unpack_int_value (NULL, INT_TYPE_SIDE);

  00646	68 bb 00 00 00	 push	 187			; 000000bbH
  0064b	6a 00		 push	 0
  0064d	e8 00 00 00 00	 call	 ?unpack_int_value@@YGHPAUENTITY@@W4INT_TYPES@@@Z ; unpack_int_value
  00652	89 85 08 ff ff
	ff		 mov	 DWORD PTR _side$176[ebp], eax

; 3360 : 
; 3361 : 				sub_type = unpack_int_value (NULL, INT_TYPE_ENTITY_SUB_TYPE);

  00658	6a 34		 push	 52			; 00000034H
  0065a	6a 00		 push	 0
  0065c	e8 00 00 00 00	 call	 ?unpack_int_value@@YGHPAUENTITY@@W4INT_TYPES@@@Z ; unpack_int_value
  00661	89 85 18 ff ff
	ff		 mov	 DWORD PTR _sub_type$180[ebp], eax

; 3362 : 
; 3363 : 				channel = unpack_int_value (NULL, INT_TYPE_SOUND_CHANNEL);

  00667	68 c0 00 00 00	 push	 192			; 000000c0H
  0066c	6a 00		 push	 0
  0066e	e8 00 00 00 00	 call	 ?unpack_int_value@@YGHPAUENTITY@@W4INT_TYPES@@@Z ; unpack_int_value
  00673	89 85 04 ff ff
	ff		 mov	 DWORD PTR _channel$175[ebp], eax

; 3364 : 
; 3365 : 				locality = unpack_int_value (NULL, INT_TYPE_SOUND_LOCALITY);

  00679	68 c7 00 00 00	 push	 199			; 000000c7H
  0067e	6a 00		 push	 0
  00680	e8 00 00 00 00	 call	 ?unpack_int_value@@YGHPAUENTITY@@W4INT_TYPES@@@Z ; unpack_int_value
  00685	89 85 00 ff ff
	ff		 mov	 DWORD PTR _locality$174[ebp], eax

; 3366 : 
; 3367 : 				valid_position = unpack_int_value (NULL, INT_TYPE_VALID);

  0068b	68 ef 00 00 00	 push	 239			; 000000efH
  00690	6a 00		 push	 0
  00692	e8 00 00 00 00	 call	 ?unpack_int_value@@YGHPAUENTITY@@W4INT_TYPES@@@Z ; unpack_int_value
  00697	89 85 f8 fe ff
	ff		 mov	 DWORD PTR _valid_position$172[ebp], eax

; 3368 : 
; 3369 : 				if (valid_position)

  0069d	83 bd f8 fe ff
	ff 00		 cmp	 DWORD PTR _valid_position$172[ebp], 0
  006a4	74 1e		 je	 SHORT $LN71@process_re

; 3370 : 				{
; 3371 : 					unpack_vec3d (NULL, VEC3D_TYPE_POSITION, &position);

  006a6	8d 85 d4 fe ff
	ff		 lea	 eax, DWORD PTR _position$165[ebp]
  006ac	50		 push	 eax
  006ad	6a 08		 push	 8
  006af	6a 00		 push	 0
  006b1	e8 00 00 00 00	 call	 ?unpack_vec3d@@YGXPAUENTITY@@W4VEC3D_TYPES@@PAUVEC3D@@@Z ; unpack_vec3d

; 3372 : 
; 3373 : 					pos = &position;

  006b6	8d 85 d4 fe ff
	ff		 lea	 eax, DWORD PTR _position$165[ebp]
  006bc	89 85 e0 fe ff
	ff		 mov	 DWORD PTR _pos$166[ebp], eax

; 3374 : 				}
; 3375 : 				else

  006c2	eb 0a		 jmp	 SHORT $LN72@process_re
$LN71@process_re:

; 3376 : 				{
; 3377 : 					pos = NULL;

  006c4	c7 85 e0 fe ff
	ff 00 00 00 00	 mov	 DWORD PTR _pos$166[ebp], 0
$LN72@process_re:

; 3378 : 				}
; 3379 : 
; 3380 : 				amp = unpack_float_value (NULL, FLOAT_TYPE_AMPLIFICATION);

  006ce	6a 09		 push	 9
  006d0	6a 00		 push	 0
  006d2	e8 00 00 00 00	 call	 ?unpack_float_value@@YGMPAUENTITY@@W4FLOAT_TYPES@@@Z ; unpack_float_value
  006d7	d9 9d e8 fe ff
	ff		 fstp	 DWORD PTR _amp$168[ebp]

; 3381 : 
; 3382 : 				pitch = unpack_float_value (NULL, FLOAT_TYPE_SOUNDPITCH);

  006dd	6a 0a		 push	 10			; 0000000aH
  006df	6a 00		 push	 0
  006e1	e8 00 00 00 00	 call	 ?unpack_float_value@@YGMPAUENTITY@@W4FLOAT_TYPES@@@Z ; unpack_float_value
  006e6	d9 9d e4 fe ff
	ff		 fstp	 DWORD PTR _pitch$167[ebp]

; 3383 : 
; 3384 : 				valid = unpack_int_value (NULL, INT_TYPE_VALID_SOUND_EFFECT);

  006ec	68 f1 00 00 00	 push	 241			; 000000f1H
  006f1	6a 00		 push	 0
  006f3	e8 00 00 00 00	 call	 ?unpack_int_value@@YGHPAUENTITY@@W4INT_TYPES@@@Z ; unpack_int_value
  006f8	89 85 0c ff ff
	ff		 mov	 DWORD PTR _valid$177[ebp], eax

; 3385 : 
; 3386 : 				looping = unpack_int_value (NULL, INT_TYPE_SOUND_EFFECT_LOOPING);

  006fe	68 c2 00 00 00	 push	 194			; 000000c2H
  00703	6a 00		 push	 0
  00705	e8 00 00 00 00	 call	 ?unpack_int_value@@YGHPAUENTITY@@W4INT_TYPES@@@Z ; unpack_int_value
  0070a	89 85 fc fe ff
	ff		 mov	 DWORD PTR _looping$173[ebp], eax

; 3387 : 
; 3388 : 				sample_count = unpack_int_value (NULL, INT_TYPE_SOUND_EFFECT_SEQUENCE_COUNT);

  00710	68 c5 00 00 00	 push	 197			; 000000c5H
  00715	6a 00		 push	 0
  00717	e8 00 00 00 00	 call	 ?unpack_int_value@@YGHPAUENTITY@@W4INT_TYPES@@@Z ; unpack_int_value
  0071c	89 85 f4 fe ff
	ff		 mov	 DWORD PTR _sample_count$171[ebp], eax

; 3389 : 
; 3390 : 				ASSERT (sample_count > 0);

  00722	83 bd f4 fe ff
	ff 00		 cmp	 DWORD PTR _sample_count$171[ebp], 0
  00729	7f 1a		 jg	 SHORT $LN73@process_re
  0072b	a1 00 00 00 00	 mov	 eax, DWORD PTR ?__LINE__Var@?0??process_received_entity_comms_messages@@YGXXZ@4JA
  00730	05 f4 01 00 00	 add	 eax, 500		; 000001f4H
  00735	50		 push	 eax
  00736	68 00 00 00 00	 push	 OFFSET ??_C@_0EO@OCMIKFBI@c?3?2users?2nhv90?2projects?2eech?2ap@
  0073b	68 00 00 00 00	 push	 OFFSET ??_C@_0BB@CNAIJEEO@sample_count?5?$DO?50@
  00740	e8 00 00 00 00	 call	 ?process_assert@@YGXPBD0H@Z ; process_assert
$LN73@process_re:

; 3391 : 
; 3392 : 				sample_index_list = (int *) malloc_fast_mem (sizeof (sound_sample_indices) * sample_count);

  00745	8b 85 f4 fe ff
	ff		 mov	 eax, DWORD PTR _sample_count$171[ebp]
  0074b	c1 e0 02	 shl	 eax, 2
  0074e	50		 push	 eax
  0074f	e8 00 00 00 00	 call	 ?malloc_fast_memory@@YGPAXI@Z ; malloc_fast_memory
  00754	89 85 f0 fe ff
	ff		 mov	 DWORD PTR _sample_index_list$170[ebp], eax

; 3393 : 
; 3394 : 				for (loop = 0; loop < sample_count; loop ++)

  0075a	c7 85 14 ff ff
	ff 00 00 00 00	 mov	 DWORD PTR _loop$179[ebp], 0
  00764	eb 0f		 jmp	 SHORT $LN17@process_re
$LN15@process_re:
  00766	8b 85 14 ff ff
	ff		 mov	 eax, DWORD PTR _loop$179[ebp]
  0076c	83 c0 01	 add	 eax, 1
  0076f	89 85 14 ff ff
	ff		 mov	 DWORD PTR _loop$179[ebp], eax
$LN17@process_re:
  00775	8b 85 14 ff ff
	ff		 mov	 eax, DWORD PTR _loop$179[ebp]
  0077b	3b 85 f4 fe ff
	ff		 cmp	 eax, DWORD PTR _sample_count$171[ebp]
  00781	7d 1d		 jge	 SHORT $LN16@process_re

; 3395 : 				{
; 3396 : 					sample_index_list [loop] = unpack_int_value (NULL, INT_TYPE_SOUND_EFFECT_INDEX);

  00783	68 c1 00 00 00	 push	 193			; 000000c1H
  00788	6a 00		 push	 0
  0078a	e8 00 00 00 00	 call	 ?unpack_int_value@@YGHPAUENTITY@@W4INT_TYPES@@@Z ; unpack_int_value
  0078f	8b 8d 14 ff ff
	ff		 mov	 ecx, DWORD PTR _loop$179[ebp]
  00795	8b 95 f0 fe ff
	ff		 mov	 edx, DWORD PTR _sample_index_list$170[ebp]
  0079b	89 04 8a	 mov	 DWORD PTR [edx+ecx*4], eax

; 3397 : 				}

  0079e	eb c6		 jmp	 SHORT $LN15@process_re
$LN16@process_re:

; 3398 : 
; 3399 : 				create_stack_attributes = force_local_entity_create_stack_attributes;

  007a0	a1 00 00 00 00	 mov	 eax, DWORD PTR ?force_local_entity_create_stack_attributes@@3HA ; force_local_entity_create_stack_attributes
  007a5	89 85 ec fe ff
	ff		 mov	 DWORD PTR _create_stack_attributes$169[ebp], eax

; 3400 : 
; 3401 : 				set_force_local_entity_create_stack_attributes (TRUE);

  007ab	c7 05 00 00 00
	00 01 00 00 00	 mov	 DWORD PTR ?force_local_entity_create_stack_attributes@@3HA, 1 ; force_local_entity_create_stack_attributes

; 3402 : 
; 3403 : 				create_local_sound_effect_entity

  007b5	8b 85 f0 fe ff
	ff		 mov	 eax, DWORD PTR _sample_index_list$170[ebp]
  007bb	50		 push	 eax
  007bc	8b 8d f4 fe ff
	ff		 mov	 ecx, DWORD PTR _sample_count$171[ebp]
  007c2	51		 push	 ecx
  007c3	8b 95 fc fe ff
	ff		 mov	 edx, DWORD PTR _looping$173[ebp]
  007c9	52		 push	 edx
  007ca	8b 85 0c ff ff
	ff		 mov	 eax, DWORD PTR _valid$177[ebp]
  007d0	50		 push	 eax
  007d1	51		 push	 ecx
  007d2	f3 0f 10 85 e4
	fe ff ff	 movss	 xmm0, DWORD PTR _pitch$167[ebp]
  007da	f3 0f 11 04 24	 movss	 DWORD PTR [esp], xmm0
  007df	51		 push	 ecx
  007e0	f3 0f 10 85 e8
	fe ff ff	 movss	 xmm0, DWORD PTR _amp$168[ebp]
  007e8	f3 0f 11 04 24	 movss	 DWORD PTR [esp], xmm0
  007ed	8b 8d e0 fe ff
	ff		 mov	 ecx, DWORD PTR _pos$166[ebp]
  007f3	51		 push	 ecx
  007f4	8b 95 00 ff ff
	ff		 mov	 edx, DWORD PTR _locality$174[ebp]
  007fa	52		 push	 edx
  007fb	8b 85 04 ff ff
	ff		 mov	 eax, DWORD PTR _channel$175[ebp]
  00801	50		 push	 eax
  00802	8b 8d 18 ff ff
	ff		 mov	 ecx, DWORD PTR _sub_type$180[ebp]
  00808	51		 push	 ecx
  00809	8b 95 08 ff ff
	ff		 mov	 edx, DWORD PTR _side$176[ebp]
  0080f	52		 push	 edx
  00810	8b 85 1c ff ff
	ff		 mov	 eax, DWORD PTR _parent$181[ebp]
  00816	50		 push	 eax
  00817	8b 8d 10 ff ff
	ff		 mov	 ecx, DWORD PTR _index$178[ebp]
  0081d	51		 push	 ecx
  0081e	e8 00 00 00 00	 call	 ?create_local_sound_effect_entity@@YGPAUENTITY@@HPAU1@W4ENTITY_SIDES@@HW4SOUND_CHANNEL_TYPES@@W4SOUND_LOCALITY_TYPES@@PAUVEC3D@@MMHHHPAH@Z ; create_local_sound_effect_entity

; 3404 : 				(
; 3405 : 					index,
; 3406 : 					parent,
; 3407 : 					(entity_sides) side,
; 3408 : 					sub_type,
; 3409 : 					(sound_channel_types) channel,
; 3410 : 					(sound_locality_types) locality,
; 3411 : 					pos,
; 3412 : 					amp,
; 3413 : 					pitch,
; 3414 : 					valid,
; 3415 : 					looping,
; 3416 : 					sample_count,
; 3417 : 					sample_index_list
; 3418 : 				);
; 3419 : 
; 3420 : 				set_force_local_entity_create_stack_attributes (create_stack_attributes);

  00823	8b 85 ec fe ff
	ff		 mov	 eax, DWORD PTR _create_stack_attributes$169[ebp]
  00829	a3 00 00 00 00	 mov	 DWORD PTR ?force_local_entity_create_stack_attributes@@3HA, eax ; force_local_entity_create_stack_attributes

; 3421 : 
; 3422 : 				free_mem (sample_index_list);

  0082e	8b 85 f0 fe ff
	ff		 mov	 eax, DWORD PTR _sample_index_list$170[ebp]
  00834	50		 push	 eax
  00835	e8 00 00 00 00	 call	 ?free_mem@@YGXPAX@Z	; free_mem

; 3423 : 
; 3424 : 				#if DEBUG_MODULE_MESSAGE_TEXT
; 3425 : 
; 3426 : 				debug_log ("EN_COMMS: received create sound effect for %s (%d)", entity_type_names [parent->type], get_local_entity_index (parent));
; 3427 : 
; 3428 : 				#endif
; 3429 : 
; 3430 : 				break;

  0083a	e9 3a 3c 00 00	 jmp	 $LN4@process_re
$LN74@process_re:

; 3431 : 			}
; 3432 : 			////////////////////////////////////////
; 3433 : 			case ENTITY_COMMS_CREATE_WAYPOINT_ROUTE:
; 3434 : 			////////////////////////////////////////
; 3435 : 			{
; 3436 : 				//
; 3437 : 				// (entity_comms_messages message, entity *en, unsigned int check_sum)
; 3438 : 				//
; 3439 : 
; 3440 : 				vec3d
; 3441 : 					*start_ptr,
; 3442 : 					*stop_ptr,
; 3443 : 					start,
; 3444 : 					stop;
; 3445 : 
; 3446 : 				entity
; 3447 : 					*task,
; 3448 : 					*group,
; 3449 : 					*return_keysite;
; 3450 : 	
; 3451 : 				unsigned int
; 3452 : 					*waypoint_indices,
; 3453 : 					loop,
; 3454 : 					count,
; 3455 : 					check_sum;
; 3456 : 	
; 3457 : 				task = unpack_entity_safe_ptr ();

  0083f	e8 00 00 00 00	 call	 ?unpack_entity_safe_ptr@@YGPAUENTITY@@XZ ; unpack_entity_safe_ptr
  00844	89 85 b0 fe ff
	ff		 mov	 DWORD PTR _task$160[ebp], eax

; 3458 : 
; 3459 : 				group = unpack_entity_safe_ptr ();

  0084a	e8 00 00 00 00	 call	 ?unpack_entity_safe_ptr@@YGPAUENTITY@@XZ ; unpack_entity_safe_ptr
  0084f	89 85 ac fe ff
	ff		 mov	 DWORD PTR _group$159[ebp], eax

; 3460 : 
; 3461 : 				return_keysite = unpack_entity_safe_ptr ();

  00855	e8 00 00 00 00	 call	 ?unpack_entity_safe_ptr@@YGPAUENTITY@@XZ ; unpack_entity_safe_ptr
  0085a	89 85 a8 fe ff
	ff		 mov	 DWORD PTR _return_keysite$158[ebp], eax

; 3462 : 
; 3463 : 				start_ptr = NULL;

  00860	c7 85 d0 fe ff
	ff 00 00 00 00	 mov	 DWORD PTR _start_ptr$164[ebp], 0

; 3464 : 				stop_ptr = NULL;

  0086a	c7 85 cc fe ff
	ff 00 00 00 00	 mov	 DWORD PTR _stop_ptr$163[ebp], 0

; 3465 : 
; 3466 : 				if (unpack_int_value (NULL, INT_TYPE_VALID))

  00874	68 ef 00 00 00	 push	 239			; 000000efH
  00879	6a 00		 push	 0
  0087b	e8 00 00 00 00	 call	 ?unpack_int_value@@YGHPAUENTITY@@W4INT_TYPES@@@Z ; unpack_int_value
  00880	85 c0		 test	 eax, eax
  00882	74 1c		 je	 SHORT $LN75@process_re

; 3467 : 				{
; 3468 : 
; 3469 : 					unpack_vec3d (NULL, VEC3D_TYPE_POSITION, &start);

  00884	8d 85 c0 fe ff
	ff		 lea	 eax, DWORD PTR _start$162[ebp]
  0088a	50		 push	 eax
  0088b	6a 08		 push	 8
  0088d	6a 00		 push	 0
  0088f	e8 00 00 00 00	 call	 ?unpack_vec3d@@YGXPAUENTITY@@W4VEC3D_TYPES@@PAUVEC3D@@@Z ; unpack_vec3d

; 3470 : 
; 3471 : 					start_ptr = &start;

  00894	8d 85 c0 fe ff
	ff		 lea	 eax, DWORD PTR _start$162[ebp]
  0089a	89 85 d0 fe ff
	ff		 mov	 DWORD PTR _start_ptr$164[ebp], eax
$LN75@process_re:

; 3472 : 				}
; 3473 : 
; 3474 : 				if (unpack_int_value (NULL, INT_TYPE_VALID))

  008a0	68 ef 00 00 00	 push	 239			; 000000efH
  008a5	6a 00		 push	 0
  008a7	e8 00 00 00 00	 call	 ?unpack_int_value@@YGHPAUENTITY@@W4INT_TYPES@@@Z ; unpack_int_value
  008ac	85 c0		 test	 eax, eax
  008ae	74 1c		 je	 SHORT $LN76@process_re

; 3475 : 				{
; 3476 : 
; 3477 : 					unpack_vec3d (NULL, VEC3D_TYPE_POSITION, &stop);

  008b0	8d 85 b4 fe ff
	ff		 lea	 eax, DWORD PTR _stop$161[ebp]
  008b6	50		 push	 eax
  008b7	6a 08		 push	 8
  008b9	6a 00		 push	 0
  008bb	e8 00 00 00 00	 call	 ?unpack_vec3d@@YGXPAUENTITY@@W4VEC3D_TYPES@@PAUVEC3D@@@Z ; unpack_vec3d

; 3478 : 
; 3479 : 					stop_ptr = &stop;

  008c0	8d 85 b4 fe ff
	ff		 lea	 eax, DWORD PTR _stop$161[ebp]
  008c6	89 85 cc fe ff
	ff		 mov	 DWORD PTR _stop_ptr$163[ebp], eax
$LN76@process_re:

; 3480 : 				}
; 3481 : 	
; 3482 : 				////////////////////////////////////////
; 3483 : 	
; 3484 : 				check_sum = unpack_int_value (NULL, INT_TYPE_ROUTE_CHECK_SUM);

  008cc	68 b2 00 00 00	 push	 178			; 000000b2H
  008d1	6a 00		 push	 0
  008d3	e8 00 00 00 00	 call	 ?unpack_int_value@@YGHPAUENTITY@@W4INT_TYPES@@@Z ; unpack_int_value
  008d8	89 85 98 fe ff
	ff		 mov	 DWORD PTR _check_sum$154[ebp], eax

; 3485 : 	
; 3486 : 				////////////////////////////////////////
; 3487 : 
; 3488 : 				count = unpack_int_value (NULL, INT_TYPE_ROUTE_LENGTH);

  008de	68 b3 00 00 00	 push	 179			; 000000b3H
  008e3	6a 00		 push	 0
  008e5	e8 00 00 00 00	 call	 ?unpack_int_value@@YGHPAUENTITY@@W4INT_TYPES@@@Z ; unpack_int_value
  008ea	89 85 9c fe ff
	ff		 mov	 DWORD PTR _count$155[ebp], eax

; 3489 : 
; 3490 : 				waypoint_indices = (unsigned int *) malloc_heap_mem (sizeof (unsigned int) * count);

  008f0	8b 85 9c fe ff
	ff		 mov	 eax, DWORD PTR _count$155[ebp]
  008f6	c1 e0 02	 shl	 eax, 2
  008f9	50		 push	 eax
  008fa	e8 00 00 00 00	 call	 ?malloc_heap_memory@@YGPAXI@Z ; malloc_heap_memory
  008ff	89 85 a4 fe ff
	ff		 mov	 DWORD PTR _waypoint_indices$157[ebp], eax

; 3491 : 
; 3492 : 				for (loop = 0; loop < count; loop ++)

  00905	c7 85 a0 fe ff
	ff 00 00 00 00	 mov	 DWORD PTR _loop$156[ebp], 0
  0090f	eb 0f		 jmp	 SHORT $LN20@process_re
$LN18@process_re:
  00911	8b 85 a0 fe ff
	ff		 mov	 eax, DWORD PTR _loop$156[ebp]
  00917	83 c0 01	 add	 eax, 1
  0091a	89 85 a0 fe ff
	ff		 mov	 DWORD PTR _loop$156[ebp], eax
$LN20@process_re:
  00920	8b 85 a0 fe ff
	ff		 mov	 eax, DWORD PTR _loop$156[ebp]
  00926	3b 85 9c fe ff
	ff		 cmp	 eax, DWORD PTR _count$155[ebp]
  0092c	73 16		 jae	 SHORT $LN19@process_re

; 3493 : 				{
; 3494 : 
; 3495 : 					waypoint_indices [loop] = unpack_entity_safe_index ();

  0092e	e8 00 00 00 00	 call	 ?unpack_entity_safe_index@@YGHXZ ; unpack_entity_safe_index
  00933	8b 8d a0 fe ff
	ff		 mov	 ecx, DWORD PTR _loop$156[ebp]
  00939	8b 95 a4 fe ff
	ff		 mov	 edx, DWORD PTR _waypoint_indices$157[ebp]
  0093f	89 04 8a	 mov	 DWORD PTR [edx+ecx*4], eax

; 3496 : 				}

  00942	eb cd		 jmp	 SHORT $LN18@process_re
$LN19@process_re:

; 3497 : 
; 3498 : 				if (create_generic_waypoint_route (group, task, return_keysite, start_ptr, stop_ptr, waypoint_indices, count))

  00944	8b 85 9c fe ff
	ff		 mov	 eax, DWORD PTR _count$155[ebp]
  0094a	50		 push	 eax
  0094b	8b 8d a4 fe ff
	ff		 mov	 ecx, DWORD PTR _waypoint_indices$157[ebp]
  00951	51		 push	 ecx
  00952	8b 95 cc fe ff
	ff		 mov	 edx, DWORD PTR _stop_ptr$163[ebp]
  00958	52		 push	 edx
  00959	8b 85 d0 fe ff
	ff		 mov	 eax, DWORD PTR _start_ptr$164[ebp]
  0095f	50		 push	 eax
  00960	8b 8d a8 fe ff
	ff		 mov	 ecx, DWORD PTR _return_keysite$158[ebp]
  00966	51		 push	 ecx
  00967	8b 95 b0 fe ff
	ff		 mov	 edx, DWORD PTR _task$160[ebp]
  0096d	52		 push	 edx
  0096e	8b 85 ac fe ff
	ff		 mov	 eax, DWORD PTR _group$159[ebp]
  00974	50		 push	 eax
  00975	e8 00 00 00 00	 call	 ?create_generic_waypoint_route@@YGHPAUENTITY@@00PAUVEC3D@@1PAIH@Z ; create_generic_waypoint_route
  0097a	85 c0		 test	 eax, eax
  0097c	74 0d		 je	 SHORT $LN77@process_re

; 3499 : 				{
; 3500 : 
; 3501 : 					debug_log ("EN_COMMS: created route on client successfully");

  0097e	68 00 00 00 00	 push	 OFFSET ??_C@_0CP@NOFCFJBB@EN_COMMS?3?5created?5route?5on?5clie@
  00983	e8 00 00 00 00	 call	 ?debug_log@@YAXPBDZZ	; debug_log
  00988	83 c4 04	 add	 esp, 4
$LN77@process_re:

; 3502 : 				}
; 3503 : 
; 3504 : 				free_mem (waypoint_indices);

  0098b	8b 85 a4 fe ff
	ff		 mov	 eax, DWORD PTR _waypoint_indices$157[ebp]
  00991	50		 push	 eax
  00992	e8 00 00 00 00	 call	 ?free_mem@@YGXPAX@Z	; free_mem

; 3505 : 	
; 3506 : 				#if DEBUG_MODULE_MESSAGE_TEXT
; 3507 : 	
; 3508 : 				debug_log ("EN_COMMS: received create waypoint route for %s (%d) check_sum %d", get_local_entity_string (task, STRING_TYPE_FULL_NAME), get_local_entity_index (task), check_sum);
; 3509 : 	
; 3510 : 				#endif
; 3511 : 	
; 3512 : 				break;

  00997	e9 dd 3a 00 00	 jmp	 $LN4@process_re
$LN78@process_re:

; 3513 : 			}
; 3514 : 			////////////////////////////////////////
; 3515 : 			case ENTITY_COMMS_CREATE_WEAPON:
; 3516 : 			////////////////////////////////////////
; 3517 : 			{
; 3518 : 				entity
; 3519 : 					*launcher;
; 3520 : 
; 3521 : 				entity_sub_types
; 3522 : 					weapon_sub_type;
; 3523 : 
; 3524 : 				int
; 3525 : 					weapon_index,
; 3526 : 					burst_size,
; 3527 : 					*smoke_trail_indices,
; 3528 : 					num_smoke_trail_entities,
; 3529 : 					i;
; 3530 : 
; 3531 : 				meta_smoke_list_types
; 3532 : 					smoke_trail_type;
; 3533 : 
; 3534 : 				launcher = unpack_entity_safe_ptr ();

  0099c	e8 00 00 00 00	 call	 ?unpack_entity_safe_ptr@@YGPAUENTITY@@XZ ; unpack_entity_safe_ptr
  009a1	89 85 94 fe ff
	ff		 mov	 DWORD PTR _launcher$153[ebp], eax

; 3535 : 	
; 3536 : 				////////////////////////////////////////
; 3537 : 				// DEBUG COMMS WEAPON LAG TIMING
; 3538 : 				////////////////////////////////////////
; 3539 : 				if (get_comms_model () == COMMS_MODEL_CLIENT)

  009a7	83 3d 00 00 00
	00 01		 cmp	 DWORD PTR ?system_comms_model@@3W4COMMS_MODEL_TYPES@@A, 1 ; system_comms_model
  009ae	75 65		 jne	 SHORT $LN80@process_re

; 3540 : 				{
; 3541 : 	
; 3542 : 					if (launcher == get_gunship_entity ())

  009b0	8b 85 94 fe ff
	ff		 mov	 eax, DWORD PTR _launcher$153[ebp]
  009b6	3b 05 00 00 00
	00		 cmp	 eax, DWORD PTR ?gunship_entity@@3PAUENTITY@@A ; gunship_entity
  009bc	75 57		 jne	 SHORT $LN80@process_re

; 3543 : 					{
; 3544 : 
; 3545 : 						comms_weapon_lag_timing = FALSE;

  009be	c7 05 00 00 00
	00 00 00 00 00	 mov	 DWORD PTR ?comms_weapon_lag_timing@@3HA, 0 ; comms_weapon_lag_timing

; 3546 : 	
; 3547 : 						comms_weapon_lag_time = ((float) get_system_time () / (float) TIME_1_SECOND) - comms_weapon_lag_time;

  009c8	e8 00 00 00 00	 call	 ?get_system_time@@YGIXZ	; get_system_time
  009cd	89 85 c0 f8 ff
	ff		 mov	 DWORD PTR tv2711[ebp], eax
  009d3	f2 0f 2a 85 c0
	f8 ff ff	 cvtsi2sd xmm0, DWORD PTR tv2711[ebp]
  009db	8b 85 c0 f8 ff
	ff		 mov	 eax, DWORD PTR tv2711[ebp]
  009e1	c1 e8 1f	 shr	 eax, 31			; 0000001fH
  009e4	f2 0f 58 04 c5
	00 00 00 00	 addsd	 xmm0, QWORD PTR __xmm@41f00000000000000000000000000000[eax*8]
  009ed	f2 0f 11 85 b8
	f8 ff ff	 movsd	 QWORD PTR tv2714[ebp], xmm0
  009f5	f2 0f 5a 85 b8
	f8 ff ff	 cvtsd2ss xmm0, QWORD PTR tv2714[ebp]
  009fd	f3 0f 5e 05 00
	00 00 00	 divss	 xmm0, DWORD PTR __real@447a0000
  00a05	f3 0f 5c 05 00
	00 00 00	 subss	 xmm0, DWORD PTR ?comms_weapon_lag_time@@3MA
  00a0d	f3 0f 11 05 00
	00 00 00	 movss	 DWORD PTR ?comms_weapon_lag_time@@3MA, xmm0
$LN80@process_re:

; 3548 : 					}
; 3549 : 				}
; 3550 : 				////////////////////////////////////////
; 3551 : 				// DEBUG COMMS WEAPON LAG TIMING
; 3552 : 				////////////////////////////////////////
; 3553 : 	
; 3554 : 				////////////////////////////////////////
; 3555 : 
; 3556 : 				weapon_sub_type = unpack_int_value (NULL, INT_TYPE_ENTITY_SUB_TYPE);

  00a15	6a 34		 push	 52			; 00000034H
  00a17	6a 00		 push	 0
  00a19	e8 00 00 00 00	 call	 ?unpack_int_value@@YGHPAUENTITY@@W4INT_TYPES@@@Z ; unpack_int_value
  00a1e	89 85 90 fe ff
	ff		 mov	 DWORD PTR _weapon_sub_type$152[ebp], eax

; 3557 : 
; 3558 : 				ASSERT (entity_sub_type_weapon_valid (weapon_sub_type));

  00a24	83 bd 90 fe ff
	ff 00		 cmp	 DWORD PTR _weapon_sub_type$152[ebp], 0
  00a2b	7c 09		 jl	 SHORT $LN82@process_re
  00a2d	83 bd 90 fe ff
	ff 4c		 cmp	 DWORD PTR _weapon_sub_type$152[ebp], 76 ; 0000004cH
  00a34	7c 1a		 jl	 SHORT $LN81@process_re
$LN82@process_re:
  00a36	a1 00 00 00 00	 mov	 eax, DWORD PTR ?__LINE__Var@?0??process_received_entity_comms_messages@@YGXXZ@4JA
  00a3b	05 9c 02 00 00	 add	 eax, 668		; 0000029cH
  00a40	50		 push	 eax
  00a41	68 00 00 00 00	 push	 OFFSET ??_C@_0EO@OCMIKFBI@c?3?2users?2nhv90?2projects?2eech?2ap@
  00a46	68 00 00 00 00	 push	 OFFSET ??_C@_0CP@MAFEAOFK@entity_sub_type_weapon_valid?5?$CIw@
  00a4b	e8 00 00 00 00	 call	 ?process_assert@@YGXPBD0H@Z ; process_assert
$LN81@process_re:

; 3559 : 
; 3560 : 				////////////////////////////////////////
; 3561 : 
; 3562 : 				weapon_index = unpack_entity_safe_index ();

  00a50	e8 00 00 00 00	 call	 ?unpack_entity_safe_index@@YGHXZ ; unpack_entity_safe_index
  00a55	89 85 8c fe ff
	ff		 mov	 DWORD PTR _weapon_index$151[ebp], eax

; 3563 : 
; 3564 : 				////////////////////////////////////////
; 3565 : 
; 3566 : 				if (get_comms_model () == COMMS_MODEL_SERVER)

  00a5b	83 3d 00 00 00
	00 00		 cmp	 DWORD PTR ?system_comms_model@@3W4COMMS_MODEL_TYPES@@A, 0 ; system_comms_model
  00a62	75 0c		 jne	 SHORT $LN83@process_re

; 3567 : 				{
; 3568 : 					burst_size = BURST_SIZE_DONT_CARE;

  00a64	c7 85 88 fe ff
	ff 00 00 00 00	 mov	 DWORD PTR _burst_size$150[ebp], 0

; 3569 : 				}
; 3570 : 				else

  00a6e	eb 3e		 jmp	 SHORT $LN86@process_re
$LN83@process_re:

; 3571 : 				{
; 3572 : 					if (weapon_database[weapon_sub_type].rate_of_fire != FIRE_SINGLE_WEAPON)

  00a70	69 85 90 fe ff
	ff e0 00 00 00	 imul	 eax, DWORD PTR _weapon_sub_type$152[ebp], 224
  00a7a	f3 0f 5a 80 c8
	00 00 00	 cvtss2sd xmm0, DWORD PTR ?weapon_database@@3PAUWEAPON_DATA@@A[eax+200]
  00a82	66 0f 2e 05 00
	00 00 00	 ucomisd xmm0, QWORD PTR __real@0000000000000000
  00a8a	9f		 lahf
  00a8b	f6 c4 44	 test	 ah, 68			; 00000044H
  00a8e	7b 14		 jnp	 SHORT $LN85@process_re

; 3573 : 					{
; 3574 : 						burst_size = unpack_int_value (NULL, INT_TYPE_WEAPON_BURST_SIZE);

  00a90	68 03 01 00 00	 push	 259			; 00000103H
  00a95	6a 00		 push	 0
  00a97	e8 00 00 00 00	 call	 ?unpack_int_value@@YGHPAUENTITY@@W4INT_TYPES@@@Z ; unpack_int_value
  00a9c	89 85 88 fe ff
	ff		 mov	 DWORD PTR _burst_size$150[ebp], eax

; 3575 : 					}
; 3576 : 					else

  00aa2	eb 0a		 jmp	 SHORT $LN86@process_re
$LN85@process_re:

; 3577 : 					{
; 3578 : 						burst_size = 1;

  00aa4	c7 85 88 fe ff
	ff 01 00 00 00	 mov	 DWORD PTR _burst_size$150[ebp], 1
$LN86@process_re:

; 3579 : 					}
; 3580 : 				}
; 3581 : 
; 3582 : 				////////////////////////////////////////
; 3583 : 
; 3584 : 				smoke_trail_indices = NULL;

  00aae	c7 85 84 fe ff
	ff 00 00 00 00	 mov	 DWORD PTR _smoke_trail_indices$149[ebp], 0

; 3585 : 
; 3586 : 				if (get_comms_model () == COMMS_MODEL_CLIENT)

  00ab8	83 3d 00 00 00
	00 01		 cmp	 DWORD PTR ?system_comms_model@@3W4COMMS_MODEL_TYPES@@A, 1 ; system_comms_model
  00abf	0f 85 ac 00 00
	00		 jne	 $LN22@process_re

; 3587 : 				{
; 3588 : 					smoke_trail_type = (meta_smoke_list_types) weapon_database[weapon_sub_type].smoke_trail_type;

  00ac5	69 85 90 fe ff
	ff e0 00 00 00	 imul	 eax, DWORD PTR _weapon_sub_type$152[ebp], 224
  00acf	8b 88 60 00 00
	00		 mov	 ecx, DWORD PTR ?weapon_database@@3PAUWEAPON_DATA@@A[eax+96]
  00ad5	89 8d 78 fe ff
	ff		 mov	 DWORD PTR _smoke_trail_type$146[ebp], ecx

; 3589 : 
; 3590 : 					if (smoke_trail_type != META_SMOKE_LIST_TYPE_NONE)

  00adb	83 bd 78 fe ff
	ff 00		 cmp	 DWORD PTR _smoke_trail_type$146[ebp], 0
  00ae2	0f 84 89 00 00
	00		 je	 $LN22@process_re

; 3591 : 					{
; 3592 : 						num_smoke_trail_entities = count_entities_in_meta_smoke_list (smoke_trail_type);

  00ae8	8b 85 78 fe ff
	ff		 mov	 eax, DWORD PTR _smoke_trail_type$146[ebp]
  00aee	50		 push	 eax
  00aef	e8 00 00 00 00	 call	 ?count_entities_in_meta_smoke_list@@YGHW4META_SMOKE_LIST_TYPES@@@Z ; count_entities_in_meta_smoke_list
  00af4	89 85 80 fe ff
	ff		 mov	 DWORD PTR _num_smoke_trail_entities$148[ebp], eax

; 3593 : 
; 3594 : 						ASSERT (num_smoke_trail_entities > 0);

  00afa	83 bd 80 fe ff
	ff 00		 cmp	 DWORD PTR _num_smoke_trail_entities$148[ebp], 0
  00b01	7f 1a		 jg	 SHORT $LN89@process_re
  00b03	a1 00 00 00 00	 mov	 eax, DWORD PTR ?__LINE__Var@?0??process_received_entity_comms_messages@@YGXXZ@4JA
  00b08	05 c0 02 00 00	 add	 eax, 704		; 000002c0H
  00b0d	50		 push	 eax
  00b0e	68 00 00 00 00	 push	 OFFSET ??_C@_0EO@OCMIKFBI@c?3?2users?2nhv90?2projects?2eech?2ap@
  00b13	68 00 00 00 00	 push	 OFFSET ??_C@_0BN@OGACAFKK@num_smoke_trail_entities?5?$DO?50@
  00b18	e8 00 00 00 00	 call	 ?process_assert@@YGXPBD0H@Z ; process_assert
$LN89@process_re:

; 3595 : 
; 3596 : 						smoke_trail_indices = (int *) malloc_fast_mem (sizeof (int) * num_smoke_trail_entities);

  00b1d	8b 85 80 fe ff
	ff		 mov	 eax, DWORD PTR _num_smoke_trail_entities$148[ebp]
  00b23	c1 e0 02	 shl	 eax, 2
  00b26	50		 push	 eax
  00b27	e8 00 00 00 00	 call	 ?malloc_fast_memory@@YGPAXI@Z ; malloc_fast_memory
  00b2c	89 85 84 fe ff
	ff		 mov	 DWORD PTR _smoke_trail_indices$149[ebp], eax

; 3597 : 
; 3598 : 						for (i = 0; i < num_smoke_trail_entities; i++)

  00b32	c7 85 7c fe ff
	ff 00 00 00 00	 mov	 DWORD PTR _i$147[ebp], 0
  00b3c	eb 0f		 jmp	 SHORT $LN23@process_re
$LN21@process_re:
  00b3e	8b 85 7c fe ff
	ff		 mov	 eax, DWORD PTR _i$147[ebp]
  00b44	83 c0 01	 add	 eax, 1
  00b47	89 85 7c fe ff
	ff		 mov	 DWORD PTR _i$147[ebp], eax
$LN23@process_re:
  00b4d	8b 85 7c fe ff
	ff		 mov	 eax, DWORD PTR _i$147[ebp]
  00b53	3b 85 80 fe ff
	ff		 cmp	 eax, DWORD PTR _num_smoke_trail_entities$148[ebp]
  00b59	7d 16		 jge	 SHORT $LN22@process_re

; 3599 : 						{
; 3600 : 							smoke_trail_indices[i] = unpack_entity_safe_index ();

  00b5b	e8 00 00 00 00	 call	 ?unpack_entity_safe_index@@YGHXZ ; unpack_entity_safe_index
  00b60	8b 8d 7c fe ff
	ff		 mov	 ecx, DWORD PTR _i$147[ebp]
  00b66	8b 95 84 fe ff
	ff		 mov	 edx, DWORD PTR _smoke_trail_indices$149[ebp]
  00b6c	89 04 8a	 mov	 DWORD PTR [edx+ecx*4], eax

; 3601 : 						}

  00b6f	eb cd		 jmp	 SHORT $LN21@process_re
$LN22@process_re:

; 3602 : 					}
; 3603 : 				}
; 3604 : 
; 3605 : 				////////////////////////////////////////
; 3606 : 
; 3607 : 				create_client_server_entity_weapon (launcher, weapon_sub_type, weapon_index, burst_size, smoke_trail_indices);

  00b71	8b 85 84 fe ff
	ff		 mov	 eax, DWORD PTR _smoke_trail_indices$149[ebp]
  00b77	50		 push	 eax
  00b78	8b 8d 88 fe ff
	ff		 mov	 ecx, DWORD PTR _burst_size$150[ebp]
  00b7e	51		 push	 ecx
  00b7f	8b 95 8c fe ff
	ff		 mov	 edx, DWORD PTR _weapon_index$151[ebp]
  00b85	52		 push	 edx
  00b86	8b 85 90 fe ff
	ff		 mov	 eax, DWORD PTR _weapon_sub_type$152[ebp]
  00b8c	50		 push	 eax
  00b8d	8b 8d 94 fe ff
	ff		 mov	 ecx, DWORD PTR _launcher$153[ebp]
  00b93	51		 push	 ecx
  00b94	e8 00 00 00 00	 call	 ?create_client_server_entity_weapon@@YGXPAUENTITY@@HHHPAH@Z ; create_client_server_entity_weapon

; 3608 : 
; 3609 : 				////////////////////////////////////////
; 3610 : 
; 3611 : 				if (smoke_trail_indices)

  00b99	83 bd 84 fe ff
	ff 00		 cmp	 DWORD PTR _smoke_trail_indices$149[ebp], 0
  00ba0	74 0c		 je	 SHORT $LN90@process_re

; 3612 : 				{
; 3613 : 					free_mem (smoke_trail_indices);

  00ba2	8b 85 84 fe ff
	ff		 mov	 eax, DWORD PTR _smoke_trail_indices$149[ebp]
  00ba8	50		 push	 eax
  00ba9	e8 00 00 00 00	 call	 ?free_mem@@YGXPAX@Z	; free_mem
$LN90@process_re:

; 3614 : 				}
; 3615 : 
; 3616 : 				#if DEBUG_MODULE_MESSAGE_TEXT
; 3617 : 
; 3618 : 				debug_log ("EN_COMMS: received create weapon %s for %s (%d)", entity_sub_type_weapon_names [weapon_sub_type], entity_type_names [launcher->type], get_local_entity_index (launcher));
; 3619 : 
; 3620 : 				#endif
; 3621 : 
; 3622 : 				break;

  00bae	e9 c6 38 00 00	 jmp	 $LN4@process_re
$LN91@process_re:

; 3623 : 			}
; 3624 : 			////////////////////////////////////////
; 3625 : 			case ENTITY_COMMS_DAMAGE_PLAYER:
; 3626 : 			////////////////////////////////////////
; 3627 : 			{
; 3628 : 				//
; 3629 : 				// (entity_comms_messages message, entity *en, int damage, int random);
; 3630 : 				//
; 3631 : 
; 3632 : 				entity
; 3633 : 					*en;
; 3634 : 
; 3635 : 				unsigned int
; 3636 : 					random,
; 3637 : 					damage;
; 3638 : 
; 3639 : 				en = unpack_entity_safe_ptr ();

  00bb3	e8 00 00 00 00	 call	 ?unpack_entity_safe_ptr@@YGPAUENTITY@@XZ ; unpack_entity_safe_ptr
  00bb8	89 85 74 fe ff
	ff		 mov	 DWORD PTR _en$145[ebp], eax

; 3640 : 
; 3641 : 				ASSERT (en);

  00bbe	83 bd 74 fe ff
	ff 00		 cmp	 DWORD PTR _en$145[ebp], 0
  00bc5	75 1a		 jne	 SHORT $LN92@process_re
  00bc7	a1 00 00 00 00	 mov	 eax, DWORD PTR ?__LINE__Var@?0??process_received_entity_comms_messages@@YGXXZ@4JA
  00bcc	05 ef 02 00 00	 add	 eax, 751		; 000002efH
  00bd1	50		 push	 eax
  00bd2	68 00 00 00 00	 push	 OFFSET ??_C@_0EO@OCMIKFBI@c?3?2users?2nhv90?2projects?2eech?2ap@
  00bd7	68 00 00 00 00	 push	 OFFSET ??_C@_02LFNMGJAP@en@
  00bdc	e8 00 00 00 00	 call	 ?process_assert@@YGXPBD0H@Z ; process_assert
$LN92@process_re:

; 3642 : 
; 3643 : 				damage = unpack_int_value (en, INT_TYPE_HELICOPTER_DAMAGE_FLAGS);

  00be1	6a 54		 push	 84			; 00000054H
  00be3	8b 85 74 fe ff
	ff		 mov	 eax, DWORD PTR _en$145[ebp]
  00be9	50		 push	 eax
  00bea	e8 00 00 00 00	 call	 ?unpack_int_value@@YGHPAUENTITY@@W4INT_TYPES@@@Z ; unpack_int_value
  00bef	89 85 6c fe ff
	ff		 mov	 DWORD PTR _damage$143[ebp], eax

; 3644 : 
; 3645 : 				random = unpack_int_value (en, INT_TYPE_VALID);

  00bf5	68 ef 00 00 00	 push	 239			; 000000efH
  00bfa	8b 85 74 fe ff
	ff		 mov	 eax, DWORD PTR _en$145[ebp]
  00c00	50		 push	 eax
  00c01	e8 00 00 00 00	 call	 ?unpack_int_value@@YGHPAUENTITY@@W4INT_TYPES@@@Z ; unpack_int_value
  00c06	89 85 70 fe ff
	ff		 mov	 DWORD PTR _random$144[ebp], eax

; 3646 : 
; 3647 : 				//
; 3648 : 				// Only damage correct player
; 3649 : 				//
; 3650 : 
; 3651 : 				if (en == get_gunship_entity ())

  00c0c	8b 85 74 fe ff
	ff		 mov	 eax, DWORD PTR _en$145[ebp]
  00c12	3b 05 00 00 00
	00		 cmp	 eax, DWORD PTR ?gunship_entity@@3PAUENTITY@@A ; gunship_entity
  00c18	75 13		 jne	 SHORT $LN93@process_re

; 3652 : 				{
; 3653 : 
; 3654 : 					dynamics_damage_model (damage, random);

  00c1a	8b 85 70 fe ff
	ff		 mov	 eax, DWORD PTR _random$144[ebp]
  00c20	50		 push	 eax
  00c21	8b 8d 6c fe ff
	ff		 mov	 ecx, DWORD PTR _damage$143[ebp]
  00c27	51		 push	 ecx
  00c28	e8 00 00 00 00	 call	 ?dynamics_damage_model@@YGXIH@Z ; dynamics_damage_model
$LN93@process_re:

; 3655 : 
; 3656 : 					#if DEBUG_MODULE_MESSAGE_TEXT
; 3657 : 
; 3658 : 					debug_log ("EN_COMMS: received damage helicopter dynamics %d for %s (%d)", damage, get_local_entity_type_name (en), get_local_entity_index (en));
; 3659 : 
; 3660 : 					#endif
; 3661 : 				}
; 3662 : 
; 3663 : 				break;

  00c2d	e9 47 38 00 00	 jmp	 $LN4@process_re
$LN94@process_re:

; 3664 : 			}
; 3665 : 			////////////////////////////////////////
; 3666 : 			case ENTITY_COMMS_DAMAGE_PLAYER_AVIONICS:
; 3667 : 			////////////////////////////////////////
; 3668 : 			{
; 3669 : 				entity
; 3670 : 					*en;
; 3671 : 
; 3672 : 				gunship_damage_levels
; 3673 : 					damage_level;
; 3674 : 
; 3675 : 				en = unpack_entity_safe_ptr ();

  00c32	e8 00 00 00 00	 call	 ?unpack_entity_safe_ptr@@YGPAUENTITY@@XZ ; unpack_entity_safe_ptr
  00c37	89 85 68 fe ff
	ff		 mov	 DWORD PTR _en$142[ebp], eax

; 3676 : 
; 3677 : 				ASSERT (en);

  00c3d	83 bd 68 fe ff
	ff 00		 cmp	 DWORD PTR _en$142[ebp], 0
  00c44	75 1a		 jne	 SHORT $LN95@process_re
  00c46	a1 00 00 00 00	 mov	 eax, DWORD PTR ?__LINE__Var@?0??process_received_entity_comms_messages@@YGXXZ@4JA
  00c4b	05 13 03 00 00	 add	 eax, 787		; 00000313H
  00c50	50		 push	 eax
  00c51	68 00 00 00 00	 push	 OFFSET ??_C@_0EO@OCMIKFBI@c?3?2users?2nhv90?2projects?2eech?2ap@
  00c56	68 00 00 00 00	 push	 OFFSET ??_C@_02LFNMGJAP@en@
  00c5b	e8 00 00 00 00	 call	 ?process_assert@@YGXPBD0H@Z ; process_assert
$LN95@process_re:

; 3678 : 
; 3679 : 				damage_level = (gunship_damage_levels) unpack_int_value (en, INT_TYPE_HELICOPTER_DAMAGE_LEVEL);

  00c60	6a 55		 push	 85			; 00000055H
  00c62	8b 85 68 fe ff
	ff		 mov	 eax, DWORD PTR _en$142[ebp]
  00c68	50		 push	 eax
  00c69	e8 00 00 00 00	 call	 ?unpack_int_value@@YGHPAUENTITY@@W4INT_TYPES@@@Z ; unpack_int_value
  00c6e	89 85 64 fe ff
	ff		 mov	 DWORD PTR _damage_level$141[ebp], eax

; 3680 : 
; 3681 : 				if (en == get_gunship_entity ())

  00c74	8b 85 68 fe ff
	ff		 mov	 eax, DWORD PTR _en$142[ebp]
  00c7a	3b 05 00 00 00
	00		 cmp	 eax, DWORD PTR ?gunship_entity@@3PAUENTITY@@A ; gunship_entity
  00c80	75 0c		 jne	 SHORT $LN96@process_re

; 3682 : 				{
; 3683 : 					damage_gunship (damage_level);

  00c82	8b 85 64 fe ff
	ff		 mov	 eax, DWORD PTR _damage_level$141[ebp]
  00c88	50		 push	 eax
  00c89	e8 00 00 00 00	 call	 ?damage_gunship@@YGXW4GUNSHIP_DAMAGE_LEVELS@@@Z ; damage_gunship
$LN96@process_re:

; 3684 : 
; 3685 : 					#if DEBUG_MODULE_MESSAGE_TEXT
; 3686 : 
; 3687 : 					debug_log ("EN_COMMS: received damage helicopter avionics %d for %s (%d)", damage_level, get_local_entity_type_name (en), get_local_entity_index (en));
; 3688 : 
; 3689 : 					#endif
; 3690 : 				}
; 3691 : 
; 3692 : 				break;

  00c8e	e9 e6 37 00 00	 jmp	 $LN4@process_re
$LN97@process_re:

; 3693 : 			}
; 3694 : 			////////////////////////////////////////
; 3695 : 			case ENTITY_COMMS_DAMAGE_WEAPON_PACKAGE:
; 3696 : 			////////////////////////////////////////
; 3697 : 			{
; 3698 : 				entity
; 3699 : 					*en;
; 3700 : 
; 3701 : 				int
; 3702 : 					weapon_package_heading_depth,
; 3703 : 					weapon_package_damaged;
; 3704 : 
; 3705 : 				entity_sub_types
; 3706 : 					weapon_sub_type;
; 3707 : 
; 3708 : 				en = unpack_entity_safe_ptr ();

  00c93	e8 00 00 00 00	 call	 ?unpack_entity_safe_ptr@@YGPAUENTITY@@XZ ; unpack_entity_safe_ptr
  00c98	89 85 60 fe ff
	ff		 mov	 DWORD PTR _en$140[ebp], eax

; 3709 : 
; 3710 : 				ASSERT (en);

  00c9e	83 bd 60 fe ff
	ff 00		 cmp	 DWORD PTR _en$140[ebp], 0
  00ca5	75 1a		 jne	 SHORT $LN98@process_re
  00ca7	a1 00 00 00 00	 mov	 eax, DWORD PTR ?__LINE__Var@?0??process_received_entity_comms_messages@@YGXXZ@4JA
  00cac	05 34 03 00 00	 add	 eax, 820		; 00000334H
  00cb1	50		 push	 eax
  00cb2	68 00 00 00 00	 push	 OFFSET ??_C@_0EO@OCMIKFBI@c?3?2users?2nhv90?2projects?2eech?2ap@
  00cb7	68 00 00 00 00	 push	 OFFSET ??_C@_02LFNMGJAP@en@
  00cbc	e8 00 00 00 00	 call	 ?process_assert@@YGXPBD0H@Z ; process_assert
$LN98@process_re:

; 3711 : 
; 3712 : 				weapon_package_heading_depth = unpack_int_value (en, INT_TYPE_WEAPON_PACKAGE_HEADING_DEPTH);

  00cc1	68 0c 01 00 00	 push	 268			; 0000010cH
  00cc6	8b 85 60 fe ff
	ff		 mov	 eax, DWORD PTR _en$140[ebp]
  00ccc	50		 push	 eax
  00ccd	e8 00 00 00 00	 call	 ?unpack_int_value@@YGHPAUENTITY@@W4INT_TYPES@@@Z ; unpack_int_value
  00cd2	89 85 5c fe ff
	ff		 mov	 DWORD PTR _weapon_package_heading_depth$139[ebp], eax

; 3713 : 
; 3714 : 				weapon_sub_type = unpack_int_value (en, INT_TYPE_ENTITY_SUB_TYPE);

  00cd8	6a 34		 push	 52			; 00000034H
  00cda	8b 85 60 fe ff
	ff		 mov	 eax, DWORD PTR _en$140[ebp]
  00ce0	50		 push	 eax
  00ce1	e8 00 00 00 00	 call	 ?unpack_int_value@@YGHPAUENTITY@@W4INT_TYPES@@@Z ; unpack_int_value
  00ce6	89 85 54 fe ff
	ff		 mov	 DWORD PTR _weapon_sub_type$137[ebp], eax

; 3715 : 
; 3716 : 				weapon_package_damaged = unpack_int_value (en, INT_TYPE_WEAPON_PACKAGE_DAMAGED);

  00cec	68 0b 01 00 00	 push	 267			; 0000010bH
  00cf1	8b 85 60 fe ff
	ff		 mov	 eax, DWORD PTR _en$140[ebp]
  00cf7	50		 push	 eax
  00cf8	e8 00 00 00 00	 call	 ?unpack_int_value@@YGHPAUENTITY@@W4INT_TYPES@@@Z ; unpack_int_value
  00cfd	89 85 58 fe ff
	ff		 mov	 DWORD PTR _weapon_package_damaged$138[ebp], eax

; 3717 : 
; 3718 : 				#if DEBUG_MODULE_MESSAGE_TEXT
; 3719 : 
; 3720 : 				debug_log
; 3721 : 				(
; 3722 : 					"EN_COMMS: receiving damage weapon package for %s (%d), heading_depth = %d, weapon_sub_type = %d, damaged = %d",
; 3723 : 					get_local_entity_string (en, STRING_TYPE_FULL_NAME),
; 3724 : 					get_local_entity_index (en),
; 3725 : 					weapon_package_heading_depth,
; 3726 : 					weapon_sub_type,
; 3727 : 					weapon_package_damaged
; 3728 : 				);
; 3729 : 
; 3730 : 				#endif
; 3731 : 
; 3732 : 				set_client_server_entity_weapon_damage (en, weapon_package_heading_depth, weapon_sub_type, weapon_package_damaged);

  00d03	8b 85 58 fe ff
	ff		 mov	 eax, DWORD PTR _weapon_package_damaged$138[ebp]
  00d09	50		 push	 eax
  00d0a	8b 8d 54 fe ff
	ff		 mov	 ecx, DWORD PTR _weapon_sub_type$137[ebp]
  00d10	51		 push	 ecx
  00d11	8b 95 5c fe ff
	ff		 mov	 edx, DWORD PTR _weapon_package_heading_depth$139[ebp]
  00d17	52		 push	 edx
  00d18	8b 85 60 fe ff
	ff		 mov	 eax, DWORD PTR _en$140[ebp]
  00d1e	50		 push	 eax
  00d1f	e8 00 00 00 00	 call	 ?set_client_server_entity_weapon_damage@@YGXPAUENTITY@@HHH@Z ; set_client_server_entity_weapon_damage

; 3733 : 
; 3734 : 				break;

  00d24	e9 50 37 00 00	 jmp	 $LN4@process_re
$LN99@process_re:

; 3735 : 			}
; 3736 : 			////////////////////////////////////////
; 3737 : 			case ENTITY_COMMS_DESTROY:
; 3738 : 			////////////////////////////////////////
; 3739 : 			{
; 3740 : 				entity
; 3741 : 					*en;
; 3742 : 
; 3743 : 				en = unpack_entity_safe_ptr ();

  00d29	e8 00 00 00 00	 call	 ?unpack_entity_safe_ptr@@YGPAUENTITY@@XZ ; unpack_entity_safe_ptr
  00d2e	89 85 50 fe ff
	ff		 mov	 DWORD PTR _en$136[ebp], eax

; 3744 : 
; 3745 : 				#if DEBUG_MODULE_MESSAGE_TEXT
; 3746 : 
; 3747 : 				debug_log ("EN_COMMS: received destroy entity %s index %d", get_local_entity_type_name (en), get_local_entity_index (en));
; 3748 : 
; 3749 : 				#endif
; 3750 : 
; 3751 : 				destroy_client_server_entity (en);

  00d34	83 bd 50 fe ff
	ff 00		 cmp	 DWORD PTR _en$136[ebp], 0
  00d3b	74 10		 je	 SHORT $LN240@process_re
  00d3d	8b 85 50 fe ff
	ff		 mov	 eax, DWORD PTR _en$136[ebp]
  00d43	8b 08		 mov	 ecx, DWORD PTR [eax]
  00d45	89 8d c0 f8 ff
	ff		 mov	 DWORD PTR tv564[ebp], ecx
  00d4b	eb 27		 jmp	 SHORT $LN241@process_re
$LN240@process_re:
  00d4d	8b 15 00 00 00
	00		 mov	 edx, DWORD PTR ?__LINE__Var@?0??process_received_entity_comms_messages@@YGXXZ@4JA
  00d53	81 c2 5d 03 00
	00		 add	 edx, 861		; 0000035dH
  00d59	52		 push	 edx
  00d5a	68 00 00 00 00	 push	 OFFSET ??_C@_0EO@OCMIKFBI@c?3?2users?2nhv90?2projects?2eech?2ap@
  00d5f	a1 00 00 00 00	 mov	 eax, DWORD PTR ?null_entity_pointer_message@@3PBDB ; null_entity_pointer_message
  00d64	50		 push	 eax
  00d65	e8 00 00 00 00	 call	 ?process_assert@@YGXPBD0H@Z ; process_assert
  00d6a	c7 85 c0 f8 ff
	ff 00 00 00 00	 mov	 DWORD PTR tv564[ebp], 0
$LN241@process_re:
  00d74	8b 8d 50 fe ff
	ff		 mov	 ecx, DWORD PTR _en$136[ebp]
  00d7a	51		 push	 ecx
  00d7b	8b 15 00 00 00
	00		 mov	 edx, DWORD PTR ?system_comms_model@@3W4COMMS_MODEL_TYPES@@A ; system_comms_model
  00d81	c1 e2 02	 shl	 edx, 2
  00d84	8b 85 c0 f8 ff
	ff		 mov	 eax, DWORD PTR tv564[ebp]
  00d8a	8b 8c c2 00 00
	00 00		 mov	 ecx, DWORD PTR ?fn_destroy_client_server_entity@@3PAY01P6GXPAUENTITY@@@ZA[edx+eax*8]
  00d91	ff d1		 call	 ecx

; 3752 : 
; 3753 : 				break;

  00d93	e9 e1 36 00 00	 jmp	 $LN4@process_re
$LN100@process_re:

; 3754 : 			}
; 3755 : 			////////////////////////////////////////
; 3756 : 			case ENTITY_COMMS_DESTROY_FAMILY:
; 3757 : 			////////////////////////////////////////
; 3758 : 			{
; 3759 : 				entity
; 3760 : 					*en;
; 3761 : 
; 3762 : 				en = unpack_entity_safe_ptr ();

  00d98	e8 00 00 00 00	 call	 ?unpack_entity_safe_ptr@@YGPAUENTITY@@XZ ; unpack_entity_safe_ptr
  00d9d	89 85 4c fe ff
	ff		 mov	 DWORD PTR _en$135[ebp], eax

; 3763 : 
; 3764 : 				#if DEBUG_MODULE_MESSAGE_TEXT
; 3765 : 
; 3766 : 				debug_log ("EN_COMMS: received destroy entity family %s index %d", get_local_entity_type_name (en), get_local_entity_index (en));
; 3767 : 
; 3768 : 				#endif
; 3769 : 
; 3770 : 				destroy_client_server_entity_family (en);

  00da3	83 bd 4c fe ff
	ff 00		 cmp	 DWORD PTR _en$135[ebp], 0
  00daa	74 10		 je	 SHORT $LN242@process_re
  00dac	8b 85 4c fe ff
	ff		 mov	 eax, DWORD PTR _en$135[ebp]
  00db2	8b 08		 mov	 ecx, DWORD PTR [eax]
  00db4	89 8d c0 f8 ff
	ff		 mov	 DWORD PTR tv577[ebp], ecx
  00dba	eb 27		 jmp	 SHORT $LN243@process_re
$LN242@process_re:
  00dbc	8b 15 00 00 00
	00		 mov	 edx, DWORD PTR ?__LINE__Var@?0??process_received_entity_comms_messages@@YGXXZ@4JA
  00dc2	81 c2 70 03 00
	00		 add	 edx, 880		; 00000370H
  00dc8	52		 push	 edx
  00dc9	68 00 00 00 00	 push	 OFFSET ??_C@_0EO@OCMIKFBI@c?3?2users?2nhv90?2projects?2eech?2ap@
  00dce	a1 00 00 00 00	 mov	 eax, DWORD PTR ?null_entity_pointer_message@@3PBDB ; null_entity_pointer_message
  00dd3	50		 push	 eax
  00dd4	e8 00 00 00 00	 call	 ?process_assert@@YGXPBD0H@Z ; process_assert
  00dd9	c7 85 c0 f8 ff
	ff 00 00 00 00	 mov	 DWORD PTR tv577[ebp], 0
$LN243@process_re:
  00de3	8b 8d 4c fe ff
	ff		 mov	 ecx, DWORD PTR _en$135[ebp]
  00de9	51		 push	 ecx
  00dea	8b 15 00 00 00
	00		 mov	 edx, DWORD PTR ?system_comms_model@@3W4COMMS_MODEL_TYPES@@A ; system_comms_model
  00df0	c1 e2 02	 shl	 edx, 2
  00df3	8b 85 c0 f8 ff
	ff		 mov	 eax, DWORD PTR tv577[ebp]
  00df9	8b 8c c2 00 00
	00 00		 mov	 ecx, DWORD PTR ?fn_destroy_client_server_entity_family@@3PAY01P6GXPAUENTITY@@@ZA[edx+eax*8]
  00e00	ff d1		 call	 ecx

; 3771 : 
; 3772 : 				break;

  00e02	e9 72 36 00 00	 jmp	 $LN4@process_re
$LN101@process_re:

; 3773 : 			}
; 3774 : 			////////////////////////////////////////
; 3775 : 			case ENTITY_COMMS_DESTROY_LOCAL_FAMILY:
; 3776 : 			////////////////////////////////////////
; 3777 : 			{
; 3778 : 				entity
; 3779 : 					*en;
; 3780 : 
; 3781 : 				en = unpack_entity_safe_ptr ();

  00e07	e8 00 00 00 00	 call	 ?unpack_entity_safe_ptr@@YGPAUENTITY@@XZ ; unpack_entity_safe_ptr
  00e0c	89 85 48 fe ff
	ff		 mov	 DWORD PTR _en$134[ebp], eax

; 3782 : 
; 3783 : 				#if DEBUG_MODULE_MESSAGE_TEXT
; 3784 : 
; 3785 : 				debug_log ("EN_COMMS: received destroy local entity family %s index %d", get_local_entity_type_name (en), get_local_entity_index (en));
; 3786 : 
; 3787 : 				#endif
; 3788 : 
; 3789 : 				destroy_local_entity_family (en);

  00e12	83 bd 48 fe ff
	ff 00		 cmp	 DWORD PTR _en$134[ebp], 0
  00e19	74 10		 je	 SHORT $LN244@process_re
  00e1b	8b 85 48 fe ff
	ff		 mov	 eax, DWORD PTR _en$134[ebp]
  00e21	8b 08		 mov	 ecx, DWORD PTR [eax]
  00e23	89 8d c0 f8 ff
	ff		 mov	 DWORD PTR tv590[ebp], ecx
  00e29	eb 27		 jmp	 SHORT $LN245@process_re
$LN244@process_re:
  00e2b	8b 15 00 00 00
	00		 mov	 edx, DWORD PTR ?__LINE__Var@?0??process_received_entity_comms_messages@@YGXXZ@4JA
  00e31	81 c2 83 03 00
	00		 add	 edx, 899		; 00000383H
  00e37	52		 push	 edx
  00e38	68 00 00 00 00	 push	 OFFSET ??_C@_0EO@OCMIKFBI@c?3?2users?2nhv90?2projects?2eech?2ap@
  00e3d	a1 00 00 00 00	 mov	 eax, DWORD PTR ?null_entity_pointer_message@@3PBDB ; null_entity_pointer_message
  00e42	50		 push	 eax
  00e43	e8 00 00 00 00	 call	 ?process_assert@@YGXPBD0H@Z ; process_assert
  00e48	c7 85 c0 f8 ff
	ff 00 00 00 00	 mov	 DWORD PTR tv590[ebp], 0
$LN245@process_re:
  00e52	8b 8d 48 fe ff
	ff		 mov	 ecx, DWORD PTR _en$134[ebp]
  00e58	51		 push	 ecx
  00e59	8b 95 c0 f8 ff
	ff		 mov	 edx, DWORD PTR tv590[ebp]
  00e5f	8b 04 95 00 00
	00 00		 mov	 eax, DWORD PTR ?fn_destroy_local_entity_family@@3PAP6GXPAUENTITY@@@ZA[edx*4]
  00e66	ff d0		 call	 eax

; 3790 : 
; 3791 : 				break;

  00e68	e9 0c 36 00 00	 jmp	 $LN4@process_re
$LN102@process_re:

; 3792 : 			}
; 3793 : 			////////////////////////////////////////
; 3794 : 			case ENTITY_COMMS_END:
; 3795 : 			////////////////////////////////////////
; 3796 : 			{
; 3797 : 				done = TRUE;

  00e6d	c7 45 fc 01 00
	00 00		 mov	 DWORD PTR _done$[ebp], 1

; 3798 : 
; 3799 : 				break;

  00e74	e9 00 36 00 00	 jmp	 $LN4@process_re
$LN103@process_re:

; 3800 : 			}
; 3801 : 			////////////////////////////////////////
; 3802 : 			case ENTITY_COMMS_FLOAT_VALUE:
; 3803 : 			////////////////////////////////////////
; 3804 : 			{
; 3805 : 				entity
; 3806 : 					*en;
; 3807 : 
; 3808 : 				float_types
; 3809 : 					type;
; 3810 : 
; 3811 : 				float
; 3812 : 					value;
; 3813 : 
; 3814 : 				en = unpack_entity_safe_ptr ();

  00e79	e8 00 00 00 00	 call	 ?unpack_entity_safe_ptr@@YGPAUENTITY@@XZ ; unpack_entity_safe_ptr
  00e7e	89 85 44 fe ff
	ff		 mov	 DWORD PTR _en$133[ebp], eax

; 3815 : 
; 3816 : 				type = unpack_float_type ();

  00e84	e8 00 00 00 00	 call	 ?unpack_float_type@@YG?AW4FLOAT_TYPES@@XZ ; unpack_float_type
  00e89	89 85 40 fe ff
	ff		 mov	 DWORD PTR _type$132[ebp], eax

; 3817 : 
; 3818 : 				value = unpack_float_value (en, type);

  00e8f	8b 85 40 fe ff
	ff		 mov	 eax, DWORD PTR _type$132[ebp]
  00e95	50		 push	 eax
  00e96	8b 8d 44 fe ff
	ff		 mov	 ecx, DWORD PTR _en$133[ebp]
  00e9c	51		 push	 ecx
  00e9d	e8 00 00 00 00	 call	 ?unpack_float_value@@YGMPAUENTITY@@W4FLOAT_TYPES@@@Z ; unpack_float_value
  00ea2	d9 9d 3c fe ff
	ff		 fstp	 DWORD PTR _value$131[ebp]

; 3819 : 
; 3820 : 				#if FAST_TRACK
; 3821 : 
; 3822 : 				if ((float_type_database[type].fast_track) && (get_comms_model () == COMMS_MODEL_CLIENT) && (en == get_gunship_entity ()))

  00ea8	6b 85 40 fe ff
	ff 18		 imul	 eax, DWORD PTR _type$132[ebp], 24
  00eaf	83 b8 14 00 00
	00 00		 cmp	 DWORD PTR ?float_type_database@@3PAUFLOAT_TYPE_DATA@@A[eax+20], 0
  00eb6	74 1c		 je	 SHORT $LN104@process_re
  00eb8	83 3d 00 00 00
	00 01		 cmp	 DWORD PTR ?system_comms_model@@3W4COMMS_MODEL_TYPES@@A, 1 ; system_comms_model
  00ebf	75 13		 jne	 SHORT $LN104@process_re
  00ec1	8b 85 44 fe ff
	ff		 mov	 eax, DWORD PTR _en$133[ebp]
  00ec7	3b 05 00 00 00
	00		 cmp	 eax, DWORD PTR ?gunship_entity@@3PAUENTITY@@A ; gunship_entity
  00ecd	75 05		 jne	 SHORT $LN104@process_re

; 3823 : 				{
; 3824 : 					#if DEBUG_MODULE_MESSAGE_TEXT
; 3825 : 
; 3826 : 					debug_log ("EN_COMMS: ignore received fast_track float %s = %f for %s (%d)", float_type_database [type].name, value, get_local_entity_type_name (en), get_local_entity_index (en));
; 3827 : 
; 3828 : 					#endif
; 3829 : 				}
; 3830 : 				else

  00ecf	e9 c7 00 00 00	 jmp	 $LN105@process_re
$LN104@process_re:

; 3831 : 				{
; 3832 : 					set_client_server_entity_float_value (en, type, value);

  00ed4	83 bd 44 fe ff
	ff 00		 cmp	 DWORD PTR _en$133[ebp], 0
  00edb	74 10		 je	 SHORT $LN246@process_re
  00edd	8b 85 44 fe ff
	ff		 mov	 eax, DWORD PTR _en$133[ebp]
  00ee3	8b 08		 mov	 ecx, DWORD PTR [eax]
  00ee5	89 8d c0 f8 ff
	ff		 mov	 DWORD PTR tv611[ebp], ecx
  00eeb	eb 27		 jmp	 SHORT $LN247@process_re
$LN246@process_re:
  00eed	8b 15 00 00 00
	00		 mov	 edx, DWORD PTR ?__LINE__Var@?0??process_received_entity_comms_messages@@YGXXZ@4JA
  00ef3	81 c2 ae 03 00
	00		 add	 edx, 942		; 000003aeH
  00ef9	52		 push	 edx
  00efa	68 00 00 00 00	 push	 OFFSET ??_C@_0EO@OCMIKFBI@c?3?2users?2nhv90?2projects?2eech?2ap@
  00eff	a1 00 00 00 00	 mov	 eax, DWORD PTR ?null_entity_pointer_message@@3PBDB ; null_entity_pointer_message
  00f04	50		 push	 eax
  00f05	e8 00 00 00 00	 call	 ?process_assert@@YGXPBD0H@Z ; process_assert
  00f0a	c7 85 c0 f8 ff
	ff 00 00 00 00	 mov	 DWORD PTR tv611[ebp], 0
$LN247@process_re:
  00f14	83 bd 40 fe ff
	ff 00		 cmp	 DWORD PTR _type$132[ebp], 0
  00f1b	7c 1a		 jl	 SHORT $LN248@process_re
  00f1d	81 bd 40 fe ff
	ff af 00 00 00	 cmp	 DWORD PTR _type$132[ebp], 175 ; 000000afH
  00f27	7d 0e		 jge	 SHORT $LN248@process_re
  00f29	8b 8d 40 fe ff
	ff		 mov	 ecx, DWORD PTR _type$132[ebp]
  00f2f	89 8d bc f8 ff
	ff		 mov	 DWORD PTR tv620[ebp], ecx
  00f35	eb 27		 jmp	 SHORT $LN249@process_re
$LN248@process_re:
  00f37	8b 15 00 00 00
	00		 mov	 edx, DWORD PTR ?__LINE__Var@?0??process_received_entity_comms_messages@@YGXXZ@4JA
  00f3d	81 c2 ae 03 00
	00		 add	 edx, 942		; 000003aeH
  00f43	52		 push	 edx
  00f44	68 00 00 00 00	 push	 OFFSET ??_C@_0EO@OCMIKFBI@c?3?2users?2nhv90?2projects?2eech?2ap@
  00f49	a1 00 00 00 00	 mov	 eax, DWORD PTR ?overload_invalid_float_type_message@@3PBDB ; overload_invalid_float_type_message
  00f4e	50		 push	 eax
  00f4f	e8 00 00 00 00	 call	 ?process_assert@@YGXPBD0H@Z ; process_assert
  00f54	c7 85 bc f8 ff
	ff 00 00 00 00	 mov	 DWORD PTR tv620[ebp], 0
$LN249@process_re:
  00f5e	51		 push	 ecx
  00f5f	f3 0f 10 85 3c
	fe ff ff	 movss	 xmm0, DWORD PTR _value$131[ebp]
  00f67	f3 0f 11 04 24	 movss	 DWORD PTR [esp], xmm0
  00f6c	8b 8d 40 fe ff
	ff		 mov	 ecx, DWORD PTR _type$132[ebp]
  00f72	51		 push	 ecx
  00f73	8b 95 44 fe ff
	ff		 mov	 edx, DWORD PTR _en$133[ebp]
  00f79	52		 push	 edx
  00f7a	69 85 c0 f8 ff
	ff 78 05 00 00	 imul	 eax, DWORD PTR tv611[ebp], 1400
  00f84	8b 8d bc f8 ff
	ff		 mov	 ecx, DWORD PTR tv620[ebp]
  00f8a	8d 94 c8 00 00
	00 00		 lea	 edx, DWORD PTR ?fn_set_client_server_entity_float_value@@3PAY1KP@1P6GXPAUENTITY@@W4FLOAT_TYPES@@M@ZA[eax+ecx*8]
  00f91	a1 00 00 00 00	 mov	 eax, DWORD PTR ?system_comms_model@@3W4COMMS_MODEL_TYPES@@A ; system_comms_model
  00f96	8b 0c 82	 mov	 ecx, DWORD PTR [edx+eax*4]
  00f99	ff d1		 call	 ecx
$LN105@process_re:

; 3833 : 
; 3834 : 					#if DEBUG_MODULE_MESSAGE_TEXT
; 3835 : 
; 3836 : 					debug_log ("EN_COMMS: received float %s = %f for %s (%d)", float_type_database [type].name, value, get_local_entity_type_name (en), get_local_entity_index (en));
; 3837 : 
; 3838 : 					#endif
; 3839 : 				}
; 3840 : 
; 3841 : 				#else
; 3842 : 
; 3843 : 				set_client_server_entity_float_value (en, type, value);
; 3844 : 
; 3845 : 				#if DEBUG_MODULE_MESSAGE_TEXT
; 3846 : 
; 3847 : 				debug_log ("EN_COMMS: received float %s = %f for %s (%d)", float_type_database [type].name, value, get_local_entity_type_name (en), get_local_entity_index (en));
; 3848 : 
; 3849 : 				#endif
; 3850 : 
; 3851 : 				#endif
; 3852 : 
; 3853 : 				break;

  00f9b	e9 d9 34 00 00	 jmp	 $LN4@process_re
$LN106@process_re:

; 3854 : 			}
; 3855 : 			////////////////////////////////////////
; 3856 : 			case ENTITY_COMMS_INT_VALUE:
; 3857 : 			////////////////////////////////////////
; 3858 : 			{
; 3859 : 				entity
; 3860 : 					*en;
; 3861 : 
; 3862 : 				int_types
; 3863 : 					type;
; 3864 : 
; 3865 : 				int
; 3866 : 					value;
; 3867 : 
; 3868 : 				en = unpack_entity_safe_ptr ();

  00fa0	e8 00 00 00 00	 call	 ?unpack_entity_safe_ptr@@YGPAUENTITY@@XZ ; unpack_entity_safe_ptr
  00fa5	89 85 38 fe ff
	ff		 mov	 DWORD PTR _en$130[ebp], eax

; 3869 : 
; 3870 : 				type = unpack_int_type ();

  00fab	e8 00 00 00 00	 call	 ?unpack_int_type@@YG?AW4INT_TYPES@@XZ ; unpack_int_type
  00fb0	89 85 34 fe ff
	ff		 mov	 DWORD PTR _type$129[ebp], eax

; 3871 : 
; 3872 : 				value = unpack_int_value (en, type);

  00fb6	8b 85 34 fe ff
	ff		 mov	 eax, DWORD PTR _type$129[ebp]
  00fbc	50		 push	 eax
  00fbd	8b 8d 38 fe ff
	ff		 mov	 ecx, DWORD PTR _en$130[ebp]
  00fc3	51		 push	 ecx
  00fc4	e8 00 00 00 00	 call	 ?unpack_int_value@@YGHPAUENTITY@@W4INT_TYPES@@@Z ; unpack_int_value
  00fc9	89 85 30 fe ff
	ff		 mov	 DWORD PTR _value$128[ebp], eax

; 3873 : 
; 3874 : 				#if FAST_TRACK
; 3875 : 
; 3876 : 				if ((int_type_database[type].fast_track) && (get_comms_model () == COMMS_MODEL_CLIENT) && (en == get_gunship_entity ()))

  00fcf	6b 85 34 fe ff
	ff 14		 imul	 eax, DWORD PTR _type$129[ebp], 20
  00fd6	83 b8 10 00 00
	00 00		 cmp	 DWORD PTR ?int_type_database@@3PAUINT_TYPE_DATA@@A[eax+16], 0
  00fdd	74 1c		 je	 SHORT $LN107@process_re
  00fdf	83 3d 00 00 00
	00 01		 cmp	 DWORD PTR ?system_comms_model@@3W4COMMS_MODEL_TYPES@@A, 1 ; system_comms_model
  00fe6	75 13		 jne	 SHORT $LN107@process_re
  00fe8	8b 85 38 fe ff
	ff		 mov	 eax, DWORD PTR _en$130[ebp]
  00fee	3b 05 00 00 00
	00		 cmp	 eax, DWORD PTR ?gunship_entity@@3PAUENTITY@@A ; gunship_entity
  00ff4	75 05		 jne	 SHORT $LN107@process_re

; 3877 : 				{
; 3878 : 					#if DEBUG_MODULE_MESSAGE_TEXT
; 3879 : 
; 3880 : 					debug_log ("EN_COMMS: ignore received fast_track int value %s = %d for %s (%d)", int_type_database [type].name, value, get_local_entity_type_name (en), get_local_entity_index (en));
; 3881 : 
; 3882 : 					#endif
; 3883 : 				}
; 3884 : 				else

  00ff6	e9 c1 00 00 00	 jmp	 $LN108@process_re
$LN107@process_re:

; 3885 : 				{
; 3886 : 					set_client_server_entity_int_value (en, type, value);

  00ffb	83 bd 38 fe ff
	ff 00		 cmp	 DWORD PTR _en$130[ebp], 0
  01002	74 10		 je	 SHORT $LN250@process_re
  01004	8b 85 38 fe ff
	ff		 mov	 eax, DWORD PTR _en$130[ebp]
  0100a	8b 08		 mov	 ecx, DWORD PTR [eax]
  0100c	89 8d c0 f8 ff
	ff		 mov	 DWORD PTR tv709[ebp], ecx
  01012	eb 27		 jmp	 SHORT $LN251@process_re
$LN250@process_re:
  01014	8b 15 00 00 00
	00		 mov	 edx, DWORD PTR ?__LINE__Var@?0??process_received_entity_comms_messages@@YGXXZ@4JA
  0101a	81 c2 e4 03 00
	00		 add	 edx, 996		; 000003e4H
  01020	52		 push	 edx
  01021	68 00 00 00 00	 push	 OFFSET ??_C@_0EO@OCMIKFBI@c?3?2users?2nhv90?2projects?2eech?2ap@
  01026	a1 00 00 00 00	 mov	 eax, DWORD PTR ?null_entity_pointer_message@@3PBDB ; null_entity_pointer_message
  0102b	50		 push	 eax
  0102c	e8 00 00 00 00	 call	 ?process_assert@@YGXPBD0H@Z ; process_assert
  01031	c7 85 c0 f8 ff
	ff 00 00 00 00	 mov	 DWORD PTR tv709[ebp], 0
$LN251@process_re:
  0103b	83 bd 34 fe ff
	ff 00		 cmp	 DWORD PTR _type$129[ebp], 0
  01042	7c 1a		 jl	 SHORT $LN252@process_re
  01044	81 bd 34 fe ff
	ff 17 01 00 00	 cmp	 DWORD PTR _type$129[ebp], 279 ; 00000117H
  0104e	7d 0e		 jge	 SHORT $LN252@process_re
  01050	8b 8d 34 fe ff
	ff		 mov	 ecx, DWORD PTR _type$129[ebp]
  01056	89 8d bc f8 ff
	ff		 mov	 DWORD PTR tv718[ebp], ecx
  0105c	eb 27		 jmp	 SHORT $LN253@process_re
$LN252@process_re:
  0105e	8b 15 00 00 00
	00		 mov	 edx, DWORD PTR ?__LINE__Var@?0??process_received_entity_comms_messages@@YGXXZ@4JA
  01064	81 c2 e4 03 00
	00		 add	 edx, 996		; 000003e4H
  0106a	52		 push	 edx
  0106b	68 00 00 00 00	 push	 OFFSET ??_C@_0EO@OCMIKFBI@c?3?2users?2nhv90?2projects?2eech?2ap@
  01070	a1 00 00 00 00	 mov	 eax, DWORD PTR ?overload_invalid_int_type_message@@3PBDB ; overload_invalid_int_type_message
  01075	50		 push	 eax
  01076	e8 00 00 00 00	 call	 ?process_assert@@YGXPBD0H@Z ; process_assert
  0107b	c7 85 bc f8 ff
	ff 00 00 00 00	 mov	 DWORD PTR tv718[ebp], 0
$LN253@process_re:
  01085	8b 8d 30 fe ff
	ff		 mov	 ecx, DWORD PTR _value$128[ebp]
  0108b	51		 push	 ecx
  0108c	8b 95 34 fe ff
	ff		 mov	 edx, DWORD PTR _type$129[ebp]
  01092	52		 push	 edx
  01093	8b 85 38 fe ff
	ff		 mov	 eax, DWORD PTR _en$130[ebp]
  01099	50		 push	 eax
  0109a	69 8d c0 f8 ff
	ff b8 08 00 00	 imul	 ecx, DWORD PTR tv709[ebp], 2232
  010a4	8b 95 bc f8 ff
	ff		 mov	 edx, DWORD PTR tv718[ebp]
  010aa	8d 84 d1 00 00
	00 00		 lea	 eax, DWORD PTR ?fn_set_client_server_entity_int_value@@3PAY1BBH@1P6GXPAUENTITY@@W4INT_TYPES@@H@ZA[ecx+edx*8]
  010b1	8b 0d 00 00 00
	00		 mov	 ecx, DWORD PTR ?system_comms_model@@3W4COMMS_MODEL_TYPES@@A ; system_comms_model
  010b7	8b 14 88	 mov	 edx, DWORD PTR [eax+ecx*4]
  010ba	ff d2		 call	 edx
$LN108@process_re:

; 3887 : 
; 3888 : 					#if DEBUG_MODULE_MESSAGE_TEXT
; 3889 : 
; 3890 : 					debug_log ("EN_COMMS: received int value %s = %d for %s (%d)", int_type_database [type].name, value, get_local_entity_type_name (en), get_local_entity_index (en));
; 3891 : 
; 3892 : 					#endif
; 3893 : 				}
; 3894 : 
; 3895 : 				#else
; 3896 : 
; 3897 : 				set_client_server_entity_int_value (en, type, value);
; 3898 : 
; 3899 : 				#if DEBUG_MODULE_MESSAGE_TEXT
; 3900 : 
; 3901 : 				debug_log ("EN_COMMS: received int value %s = %d for %s (%d)", int_type_database [type].name, value, get_local_entity_type_name (en), get_local_entity_index (en));
; 3902 : 
; 3903 : 				#endif
; 3904 : 
; 3905 : 				#endif
; 3906 : 
; 3907 : 				break;

  010bc	e9 b8 33 00 00	 jmp	 $LN4@process_re
$LN109@process_re:

; 3908 : 			}
; 3909 : 			////////////////////////////////////////
; 3910 : 			case ENTITY_COMMS_KILL:
; 3911 : 			////////////////////////////////////////
; 3912 : 			{
; 3913 : 				entity
; 3914 : 					*en;
; 3915 : 
; 3916 : 				int
; 3917 : 					create_stack_attributes;
; 3918 : 
; 3919 : 				en = unpack_entity_safe_ptr ();

  010c1	e8 00 00 00 00	 call	 ?unpack_entity_safe_ptr@@YGPAUENTITY@@XZ ; unpack_entity_safe_ptr
  010c6	89 85 2c fe ff
	ff		 mov	 DWORD PTR _en$127[ebp], eax

; 3920 : 
; 3921 : 				#if DEBUG_MODULE_MESSAGE_TEXT
; 3922 : 
; 3923 : 				debug_log ("EN_COMMS: received kill for %s (%d)", get_local_entity_type_name (en), get_local_entity_index (en));
; 3924 : 
; 3925 : 				#endif
; 3926 : 
; 3927 : 				create_stack_attributes = force_local_entity_create_stack_attributes;

  010cc	a1 00 00 00 00	 mov	 eax, DWORD PTR ?force_local_entity_create_stack_attributes@@3HA ; force_local_entity_create_stack_attributes
  010d1	89 85 28 fe ff
	ff		 mov	 DWORD PTR _create_stack_attributes$126[ebp], eax

; 3928 : 
; 3929 : 				set_force_local_entity_create_stack_attributes (TRUE);

  010d7	c7 05 00 00 00
	00 01 00 00 00	 mov	 DWORD PTR ?force_local_entity_create_stack_attributes@@3HA, 1 ; force_local_entity_create_stack_attributes

; 3930 : 
; 3931 : 				kill_client_server_entity (en);

  010e1	83 bd 2c fe ff
	ff 00		 cmp	 DWORD PTR _en$127[ebp], 0
  010e8	74 10		 je	 SHORT $LN254@process_re
  010ea	8b 85 2c fe ff
	ff		 mov	 eax, DWORD PTR _en$127[ebp]
  010f0	8b 08		 mov	 ecx, DWORD PTR [eax]
  010f2	89 8d c0 f8 ff
	ff		 mov	 DWORD PTR tv733[ebp], ecx
  010f8	eb 27		 jmp	 SHORT $LN255@process_re
$LN254@process_re:
  010fa	8b 15 00 00 00
	00		 mov	 edx, DWORD PTR ?__LINE__Var@?0??process_received_entity_comms_messages@@YGXXZ@4JA
  01100	81 c2 11 04 00
	00		 add	 edx, 1041		; 00000411H
  01106	52		 push	 edx
  01107	68 00 00 00 00	 push	 OFFSET ??_C@_0EO@OCMIKFBI@c?3?2users?2nhv90?2projects?2eech?2ap@
  0110c	a1 00 00 00 00	 mov	 eax, DWORD PTR ?null_entity_pointer_message@@3PBDB ; null_entity_pointer_message
  01111	50		 push	 eax
  01112	e8 00 00 00 00	 call	 ?process_assert@@YGXPBD0H@Z ; process_assert
  01117	c7 85 c0 f8 ff
	ff 00 00 00 00	 mov	 DWORD PTR tv733[ebp], 0
$LN255@process_re:
  01121	8b 8d 2c fe ff
	ff		 mov	 ecx, DWORD PTR _en$127[ebp]
  01127	51		 push	 ecx
  01128	8b 15 00 00 00
	00		 mov	 edx, DWORD PTR ?system_comms_model@@3W4COMMS_MODEL_TYPES@@A ; system_comms_model
  0112e	c1 e2 02	 shl	 edx, 2
  01131	8b 85 c0 f8 ff
	ff		 mov	 eax, DWORD PTR tv733[ebp]
  01137	8b 8c c2 00 00
	00 00		 mov	 ecx, DWORD PTR ?fn_kill_client_server_entity@@3PAY01P6GXPAUENTITY@@@ZA[edx+eax*8]
  0113e	ff d1		 call	 ecx

; 3932 : 
; 3933 : 				set_force_local_entity_create_stack_attributes (create_stack_attributes);

  01140	8b 85 28 fe ff
	ff		 mov	 eax, DWORD PTR _create_stack_attributes$126[ebp]
  01146	a3 00 00 00 00	 mov	 DWORD PTR ?force_local_entity_create_stack_attributes@@3HA, eax ; force_local_entity_create_stack_attributes

; 3934 : 
; 3935 : 				break;

  0114b	e9 29 33 00 00	 jmp	 $LN4@process_re
$LN110@process_re:

; 3936 : 			}
; 3937 : 			////////////////////////////////////////
; 3938 : 			case ENTITY_COMMS_MOBILE_KILL:
; 3939 : 			////////////////////////////////////////
; 3940 : 			{
; 3941 : 				entity
; 3942 : 					*en,
; 3943 : 					*victim;
; 3944 : 
; 3945 : 				en = unpack_entity_safe_ptr ();

  01150	e8 00 00 00 00	 call	 ?unpack_entity_safe_ptr@@YGPAUENTITY@@XZ ; unpack_entity_safe_ptr
  01155	89 85 24 fe ff
	ff		 mov	 DWORD PTR _en$125[ebp], eax

; 3946 : 
; 3947 : 				victim = unpack_entity_safe_ptr ();

  0115b	e8 00 00 00 00	 call	 ?unpack_entity_safe_ptr@@YGPAUENTITY@@XZ ; unpack_entity_safe_ptr
  01160	89 85 20 fe ff
	ff		 mov	 DWORD PTR _victim$124[ebp], eax

; 3948 : 
; 3949 : 				#if DEBUG_MODULE_MESSAGE_TEXT
; 3950 : 
; 3951 : 				debug_log ("EN_COMMS: received mobile kill for %s (%d)", get_local_entity_type_name (victim), get_local_entity_index (victim));
; 3952 : 
; 3953 : 				#endif
; 3954 : 
; 3955 : 				ASSERT (get_local_entity_type (en) == ENTITY_TYPE_FORCE);

  01166	83 bd 24 fe ff
	ff 00		 cmp	 DWORD PTR _en$125[ebp], 0
  0116d	74 10		 je	 SHORT $LN256@process_re
  0116f	8b 85 24 fe ff
	ff		 mov	 eax, DWORD PTR _en$125[ebp]
  01175	8b 08		 mov	 ecx, DWORD PTR [eax]
  01177	89 8d c0 f8 ff
	ff		 mov	 DWORD PTR tv747[ebp], ecx
  0117d	eb 27		 jmp	 SHORT $LN257@process_re
$LN256@process_re:
  0117f	8b 15 00 00 00
	00		 mov	 edx, DWORD PTR ?__LINE__Var@?0??process_received_entity_comms_messages@@YGXXZ@4JA
  01185	81 c2 29 04 00
	00		 add	 edx, 1065		; 00000429H
  0118b	52		 push	 edx
  0118c	68 00 00 00 00	 push	 OFFSET ??_C@_0EO@OCMIKFBI@c?3?2users?2nhv90?2projects?2eech?2ap@
  01191	a1 00 00 00 00	 mov	 eax, DWORD PTR ?null_entity_pointer_message@@3PBDB ; null_entity_pointer_message
  01196	50		 push	 eax
  01197	e8 00 00 00 00	 call	 ?process_assert@@YGXPBD0H@Z ; process_assert
  0119c	c7 85 c0 f8 ff
	ff 00 00 00 00	 mov	 DWORD PTR tv747[ebp], 0
$LN257@process_re:
  011a6	83 bd c0 f8 ff
	ff 0b		 cmp	 DWORD PTR tv747[ebp], 11 ; 0000000bH
  011ad	74 1a		 je	 SHORT $LN111@process_re
  011af	a1 00 00 00 00	 mov	 eax, DWORD PTR ?__LINE__Var@?0??process_received_entity_comms_messages@@YGXXZ@4JA
  011b4	05 29 04 00 00	 add	 eax, 1065		; 00000429H
  011b9	50		 push	 eax
  011ba	68 00 00 00 00	 push	 OFFSET ??_C@_0EO@OCMIKFBI@c?3?2users?2nhv90?2projects?2eech?2ap@
  011bf	68 00 00 00 00	 push	 OFFSET ??_C@_0DA@GDENJLMD@get_local_entity_type?5?$CIen?$CJ?5?$DN?$DN?5E@
  011c4	e8 00 00 00 00	 call	 ?process_assert@@YGXPBD0H@Z ; process_assert
$LN111@process_re:

; 3956 : 	
; 3957 : 				add_mobile_to_force_kills_stats (en, victim);

  011c9	8b 85 20 fe ff
	ff		 mov	 eax, DWORD PTR _victim$124[ebp]
  011cf	50		 push	 eax
  011d0	8b 8d 24 fe ff
	ff		 mov	 ecx, DWORD PTR _en$125[ebp]
  011d6	51		 push	 ecx
  011d7	e8 00 00 00 00	 call	 ?add_mobile_to_force_kills_stats@@YGXPAUENTITY@@0@Z ; add_mobile_to_force_kills_stats

; 3958 : 
; 3959 : 				break;

  011dc	e9 98 32 00 00	 jmp	 $LN4@process_re
$LN112@process_re:

; 3960 : 			}
; 3961 : 			////////////////////////////////////////
; 3962 : 			case ENTITY_COMMS_MOBILE_LAND:
; 3963 : 			////////////////////////////////////////
; 3964 : 			{
; 3965 : 				entity
; 3966 : 					*wp,
; 3967 : 					*en;
; 3968 : 
; 3969 : 				en = unpack_entity_safe_ptr ();

  011e1	e8 00 00 00 00	 call	 ?unpack_entity_safe_ptr@@YGPAUENTITY@@XZ ; unpack_entity_safe_ptr
  011e6	89 85 18 fe ff
	ff		 mov	 DWORD PTR _en$122[ebp], eax

; 3970 : 
; 3971 : 				wp = unpack_entity_safe_ptr ();

  011ec	e8 00 00 00 00	 call	 ?unpack_entity_safe_ptr@@YGPAUENTITY@@XZ ; unpack_entity_safe_ptr
  011f1	89 85 1c fe ff
	ff		 mov	 DWORD PTR _wp$123[ebp], eax

; 3972 : 
; 3973 : 				insert_local_entity_into_parents_child_list (en, LIST_TYPE_CURRENT_WAYPOINT, wp, NULL);

  011f7	6a 00		 push	 0
  011f9	8b 85 1c fe ff
	ff		 mov	 eax, DWORD PTR _wp$123[ebp]
  011ff	50		 push	 eax
  01200	6a 09		 push	 9
  01202	8b 8d 18 fe ff
	ff		 mov	 ecx, DWORD PTR _en$122[ebp]
  01208	51		 push	 ecx
  01209	e8 00 00 00 00	 call	 ?insert_local_entity_into_parents_child_list@@YGXPAUENTITY@@W4LIST_TYPES@@00@Z ; insert_local_entity_into_parents_child_list

; 3974 : 
; 3975 : 				#if DEBUG_MODULE_MESSAGE_TEXT
; 3976 : 
; 3977 : 				debug_log ("EN_COMMS: received mobile land for %s (%d)", get_local_entity_type_name (en), get_local_entity_index (en));
; 3978 : 
; 3979 : 				#endif
; 3980 : 
; 3981 : 				set_local_entity_int_value (en, INT_TYPE_OPERATIONAL_STATE, OPERATIONAL_STATE_LANDED);

  0120e	83 bd 18 fe ff
	ff 00		 cmp	 DWORD PTR _en$122[ebp], 0
  01215	74 10		 je	 SHORT $LN258@process_re
  01217	8b 85 18 fe ff
	ff		 mov	 eax, DWORD PTR _en$122[ebp]
  0121d	8b 08		 mov	 ecx, DWORD PTR [eax]
  0121f	89 8d c0 f8 ff
	ff		 mov	 DWORD PTR tv767[ebp], ecx
  01225	eb 27		 jmp	 SHORT $LN259@process_re
$LN258@process_re:
  01227	8b 15 00 00 00
	00		 mov	 edx, DWORD PTR ?__LINE__Var@?0??process_received_entity_comms_messages@@YGXXZ@4JA
  0122d	81 c2 43 04 00
	00		 add	 edx, 1091		; 00000443H
  01233	52		 push	 edx
  01234	68 00 00 00 00	 push	 OFFSET ??_C@_0EO@OCMIKFBI@c?3?2users?2nhv90?2projects?2eech?2ap@
  01239	a1 00 00 00 00	 mov	 eax, DWORD PTR ?null_entity_pointer_message@@3PBDB ; null_entity_pointer_message
  0123e	50		 push	 eax
  0123f	e8 00 00 00 00	 call	 ?process_assert@@YGXPBD0H@Z ; process_assert
  01244	c7 85 c0 f8 ff
	ff 00 00 00 00	 mov	 DWORD PTR tv767[ebp], 0
$LN259@process_re:
  0124e	b9 01 00 00 00	 mov	 ecx, 1
  01253	85 c9		 test	 ecx, ecx
  01255	74 0c		 je	 SHORT $LN260@process_re
  01257	c7 85 bc f8 ff
	ff 97 00 00 00	 mov	 DWORD PTR tv775[ebp], 151 ; 00000097H
  01261	eb 27		 jmp	 SHORT $LN261@process_re
$LN260@process_re:
  01263	8b 15 00 00 00
	00		 mov	 edx, DWORD PTR ?__LINE__Var@?0??process_received_entity_comms_messages@@YGXXZ@4JA
  01269	81 c2 43 04 00
	00		 add	 edx, 1091		; 00000443H
  0126f	52		 push	 edx
  01270	68 00 00 00 00	 push	 OFFSET ??_C@_0EO@OCMIKFBI@c?3?2users?2nhv90?2projects?2eech?2ap@
  01275	a1 00 00 00 00	 mov	 eax, DWORD PTR ?overload_invalid_int_type_message@@3PBDB ; overload_invalid_int_type_message
  0127a	50		 push	 eax
  0127b	e8 00 00 00 00	 call	 ?process_assert@@YGXPBD0H@Z ; process_assert
  01280	c7 85 bc f8 ff
	ff 00 00 00 00	 mov	 DWORD PTR tv775[ebp], 0
$LN261@process_re:
  0128a	6a 04		 push	 4
  0128c	68 97 00 00 00	 push	 151			; 00000097H
  01291	8b 8d 18 fe ff
	ff		 mov	 ecx, DWORD PTR _en$122[ebp]
  01297	51		 push	 ecx
  01298	69 95 c0 f8 ff
	ff 5c 04 00 00	 imul	 edx, DWORD PTR tv767[ebp], 1116
  012a2	8b 85 bc f8 ff
	ff		 mov	 eax, DWORD PTR tv775[ebp]
  012a8	8b 8c 82 00 00
	00 00		 mov	 ecx, DWORD PTR ?fn_set_local_entity_int_value@@3PAY0BBH@P6GXPAUENTITY@@W4INT_TYPES@@H@ZA[edx+eax*4]
  012af	ff d1		 call	 ecx

; 3982 : 
; 3983 : 				break;

  012b1	e9 c3 31 00 00	 jmp	 $LN4@process_re
$LN113@process_re:

; 3984 : 			}
; 3985 : 			////////////////////////////////////////
; 3986 : 			case ENTITY_COMMS_MOBILE_TAKEOFF:
; 3987 : 			////////////////////////////////////////
; 3988 : 			{
; 3989 : 				entity
; 3990 : 					*en,
; 3991 : //					*cwp,
; 3992 : //					*group,
; 3993 : 					*landing_en;
; 3994 : //					*landing_task;
; 3995 : 
; 3996 : 				en = unpack_entity_safe_ptr ();

  012b6	e8 00 00 00 00	 call	 ?unpack_entity_safe_ptr@@YGPAUENTITY@@XZ ; unpack_entity_safe_ptr
  012bb	89 85 14 fe ff
	ff		 mov	 DWORD PTR _en$121[ebp], eax

; 3997 : 
; 3998 : 				if (get_comms_model () == COMMS_MODEL_SERVER)

  012c1	83 3d 00 00 00
	00 00		 cmp	 DWORD PTR ?system_comms_model@@3W4COMMS_MODEL_TYPES@@A, 0 ; system_comms_model
  012c8	0f 85 dc 00 00
	00		 jne	 $LN115@process_re

; 3999 : 				{
; 4000 : 
; 4001 : 					set_local_entity_int_value (en, INT_TYPE_OPERATIONAL_STATE, OPERATIONAL_STATE_NAVIGATING);

  012ce	83 bd 14 fe ff
	ff 00		 cmp	 DWORD PTR _en$121[ebp], 0
  012d5	74 10		 je	 SHORT $LN262@process_re
  012d7	8b 85 14 fe ff
	ff		 mov	 eax, DWORD PTR _en$121[ebp]
  012dd	8b 08		 mov	 ecx, DWORD PTR [eax]
  012df	89 8d c0 f8 ff
	ff		 mov	 DWORD PTR tv789[ebp], ecx
  012e5	eb 27		 jmp	 SHORT $LN263@process_re
$LN262@process_re:
  012e7	8b 15 00 00 00
	00		 mov	 edx, DWORD PTR ?__LINE__Var@?0??process_received_entity_comms_messages@@YGXXZ@4JA
  012ed	81 c2 57 04 00
	00		 add	 edx, 1111		; 00000457H
  012f3	52		 push	 edx
  012f4	68 00 00 00 00	 push	 OFFSET ??_C@_0EO@OCMIKFBI@c?3?2users?2nhv90?2projects?2eech?2ap@
  012f9	a1 00 00 00 00	 mov	 eax, DWORD PTR ?null_entity_pointer_message@@3PBDB ; null_entity_pointer_message
  012fe	50		 push	 eax
  012ff	e8 00 00 00 00	 call	 ?process_assert@@YGXPBD0H@Z ; process_assert
  01304	c7 85 c0 f8 ff
	ff 00 00 00 00	 mov	 DWORD PTR tv789[ebp], 0
$LN263@process_re:
  0130e	b9 01 00 00 00	 mov	 ecx, 1
  01313	85 c9		 test	 ecx, ecx
  01315	74 0c		 je	 SHORT $LN264@process_re
  01317	c7 85 bc f8 ff
	ff 97 00 00 00	 mov	 DWORD PTR tv797[ebp], 151 ; 00000097H
  01321	eb 27		 jmp	 SHORT $LN265@process_re
$LN264@process_re:
  01323	8b 15 00 00 00
	00		 mov	 edx, DWORD PTR ?__LINE__Var@?0??process_received_entity_comms_messages@@YGXXZ@4JA
  01329	81 c2 57 04 00
	00		 add	 edx, 1111		; 00000457H
  0132f	52		 push	 edx
  01330	68 00 00 00 00	 push	 OFFSET ??_C@_0EO@OCMIKFBI@c?3?2users?2nhv90?2projects?2eech?2ap@
  01335	a1 00 00 00 00	 mov	 eax, DWORD PTR ?overload_invalid_int_type_message@@3PBDB ; overload_invalid_int_type_message
  0133a	50		 push	 eax
  0133b	e8 00 00 00 00	 call	 ?process_assert@@YGXPBD0H@Z ; process_assert
  01340	c7 85 bc f8 ff
	ff 00 00 00 00	 mov	 DWORD PTR tv797[ebp], 0
$LN265@process_re:
  0134a	6a 07		 push	 7
  0134c	68 97 00 00 00	 push	 151			; 00000097H
  01351	8b 8d 14 fe ff
	ff		 mov	 ecx, DWORD PTR _en$121[ebp]
  01357	51		 push	 ecx
  01358	69 95 c0 f8 ff
	ff 5c 04 00 00	 imul	 edx, DWORD PTR tv789[ebp], 1116
  01362	8b 85 bc f8 ff
	ff		 mov	 eax, DWORD PTR tv797[ebp]
  01368	8b 8c 82 00 00
	00 00		 mov	 ecx, DWORD PTR ?fn_set_local_entity_int_value@@3PAY0BBH@P6GXPAUENTITY@@W4INT_TYPES@@H@ZA[edx+eax*4]
  0136f	ff d1		 call	 ecx

; 4002 : 
; 4003 : 					delete_local_entity_from_parents_child_list (en, LIST_TYPE_MOVEMENT_DEPENDENT);

  01371	6a 1a		 push	 26			; 0000001aH
  01373	8b 85 14 fe ff
	ff		 mov	 eax, DWORD PTR _en$121[ebp]
  01379	50		 push	 eax
  0137a	e8 00 00 00 00	 call	 ?delete_local_entity_from_parents_child_list@@YGXPAUENTITY@@W4LIST_TYPES@@@Z ; delete_local_entity_from_parents_child_list

; 4004 : 
; 4005 : 					//
; 4006 : 					// Unlock landing lock if group doesn't have task (ie it wouldn't have been unlocked automatically be task assignment)
; 4007 : 					//
; 4008 : 
; 4009 : 					landing_en = NULL;//get_local_group_member_landing_entity (en);

  0137f	c7 85 10 fe ff
	ff 00 00 00 00	 mov	 DWORD PTR _landing_en$120[ebp], 0

; 4010 : 
; 4011 : //					group = get_local_entity_parent (en, LIST_TYPE_MEMBER);
; 4012 : 
; 4013 : //					if ((group) && (!get_local_entity_first_child (group, LIST_TYPE_TASK_STACK)))
; 4014 : 					{
; 4015 : 
; 4016 : //						cwp = get_local_entity_parent (en, LIST_TYPE_CURRENT_WAYPOINT);
; 4017 : 
; 4018 : //						if (cwp)
; 4019 : //						{
; 4020 : 
; 4021 : //							landing_task = get_local_entity_parent (cwp, LIST_TYPE_WAYPOINT);
; 4022 : 
; 4023 : //							landing_en = get_local_entity_parent (landing_task, LIST_TYPE_GENERIC_TASK);
; 4024 : 
; 4025 : 							if (landing_en)

  01389	83 bd 10 fe ff
	ff 00		 cmp	 DWORD PTR _landing_en$120[ebp], 0
  01390	74 18		 je	 SHORT $LN115@process_re

; 4026 : 							{
; 4027 : 
; 4028 : 								notify_local_entity (ENTITY_MESSAGE_UNLOCK_LANDING_SITE, landing_en, en);

  01392	8b 85 14 fe ff
	ff		 mov	 eax, DWORD PTR _en$121[ebp]
  01398	50		 push	 eax
  01399	8b 8d 10 fe ff
	ff		 mov	 ecx, DWORD PTR _landing_en$120[ebp]
  0139f	51		 push	 ecx
  013a0	6a 3a		 push	 58			; 0000003aH
  013a2	e8 00 00 00 00	 call	 ?notify_local_entity@@YAHW4ENTITY_MESSAGES@@PAUENTITY@@1ZZ ; notify_local_entity
  013a7	83 c4 0c	 add	 esp, 12			; 0000000cH
$LN115@process_re:

; 4029 : 
; 4030 : //								delete_local_entity_from_parents_child_list (en, LIST_TYPE_CURRENT_WAYPOINT);
; 4031 : 							}
; 4032 : //						}
; 4033 : 					}
; 4034 : 				}
; 4035 : 
; 4036 : 				#if DEBUG_MODULE_MESSAGE_TEXT
; 4037 : 
; 4038 : 				debug_log ("EN_COMMS: received mobile takeoff for %s (%d)", get_local_entity_type_name (en), get_local_entity_index (en));
; 4039 : 
; 4040 : 				#endif
; 4041 : 
; 4042 : 				break;

  013aa	e9 ca 30 00 00	 jmp	 $LN4@process_re
$LN116@process_re:

; 4043 : 			}
; 4044 : 			////////////////////////////////////////
; 4045 : 			case ENTITY_COMMS_MOVE_PLANNER_WAYPOINT:
; 4046 : 			////////////////////////////////////////
; 4047 : 			{
; 4048 : 				entity
; 4049 : 					*member,
; 4050 : 					*wp;
; 4051 : 
; 4052 : 				vec3d
; 4053 : 					pos;
; 4054 : 
; 4055 : 				ASSERT (get_comms_model () == COMMS_MODEL_SERVER);

  013af	83 3d 00 00 00
	00 00		 cmp	 DWORD PTR ?system_comms_model@@3W4COMMS_MODEL_TYPES@@A, 0 ; system_comms_model
  013b6	74 1a		 je	 SHORT $LN117@process_re
  013b8	a1 00 00 00 00	 mov	 eax, DWORD PTR ?__LINE__Var@?0??process_received_entity_comms_messages@@YGXXZ@4JA
  013bd	05 8d 04 00 00	 add	 eax, 1165		; 0000048dH
  013c2	50		 push	 eax
  013c3	68 00 00 00 00	 push	 OFFSET ??_C@_0EO@OCMIKFBI@c?3?2users?2nhv90?2projects?2eech?2ap@
  013c8	68 00 00 00 00	 push	 OFFSET ??_C@_0CJ@DMBLBJBK@get_comms_model?5?$CI?$CJ?5?$DN?$DN?5COMMS_MOD@
  013cd	e8 00 00 00 00	 call	 ?process_assert@@YGXPBD0H@Z ; process_assert
$LN117@process_re:

; 4056 : 
; 4057 : 				wp = unpack_entity_safe_ptr ();

  013d2	e8 00 00 00 00	 call	 ?unpack_entity_safe_ptr@@YGPAUENTITY@@XZ ; unpack_entity_safe_ptr
  013d7	89 85 08 fe ff
	ff		 mov	 DWORD PTR _wp$118[ebp], eax

; 4058 : 
; 4059 : 				unpack_vec3d (wp, VEC3D_TYPE_POSITION, &pos);

  013dd	8d 85 fc fd ff
	ff		 lea	 eax, DWORD PTR _pos$117[ebp]
  013e3	50		 push	 eax
  013e4	6a 08		 push	 8
  013e6	8b 8d 08 fe ff
	ff		 mov	 ecx, DWORD PTR _wp$118[ebp]
  013ec	51		 push	 ecx
  013ed	e8 00 00 00 00	 call	 ?unpack_vec3d@@YGXPAUENTITY@@W4VEC3D_TYPES@@PAUVEC3D@@@Z ; unpack_vec3d

; 4060 : 
; 4061 : 				#if DEBUG_MODULE_MESSAGE_TEXT
; 4062 : 
; 4063 : 				debug_log ("EN_COMMS: received move planner waypoint for %s (%d) to %f, %f, %f", get_local_entity_type_name (wp), get_local_entity_index (wp), pos.x, pos.y, pos.z);
; 4064 : 
; 4065 : 				#endif
; 4066 : 
; 4067 : 				set_client_server_entity_vec3d (wp, VEC3D_TYPE_POSITION, &pos);

  013f2	83 bd 08 fe ff
	ff 00		 cmp	 DWORD PTR _wp$118[ebp], 0
  013f9	74 10		 je	 SHORT $LN266@process_re
  013fb	8b 85 08 fe ff
	ff		 mov	 eax, DWORD PTR _wp$118[ebp]
  01401	8b 08		 mov	 ecx, DWORD PTR [eax]
  01403	89 8d c0 f8 ff
	ff		 mov	 DWORD PTR tv824[ebp], ecx
  01409	eb 27		 jmp	 SHORT $LN267@process_re
$LN266@process_re:
  0140b	8b 15 00 00 00
	00		 mov	 edx, DWORD PTR ?__LINE__Var@?0??process_received_entity_comms_messages@@YGXXZ@4JA
  01411	81 c2 99 04 00
	00		 add	 edx, 1177		; 00000499H
  01417	52		 push	 edx
  01418	68 00 00 00 00	 push	 OFFSET ??_C@_0EO@OCMIKFBI@c?3?2users?2nhv90?2projects?2eech?2ap@
  0141d	a1 00 00 00 00	 mov	 eax, DWORD PTR ?null_entity_pointer_message@@3PBDB ; null_entity_pointer_message
  01422	50		 push	 eax
  01423	e8 00 00 00 00	 call	 ?process_assert@@YGXPBD0H@Z ; process_assert
  01428	c7 85 c0 f8 ff
	ff 00 00 00 00	 mov	 DWORD PTR tv824[ebp], 0
$LN267@process_re:
  01432	b9 01 00 00 00	 mov	 ecx, 1
  01437	85 c9		 test	 ecx, ecx
  01439	74 0c		 je	 SHORT $LN268@process_re
  0143b	c7 85 bc f8 ff
	ff 08 00 00 00	 mov	 DWORD PTR tv832[ebp], 8
  01445	eb 27		 jmp	 SHORT $LN269@process_re
$LN268@process_re:
  01447	8b 15 00 00 00
	00		 mov	 edx, DWORD PTR ?__LINE__Var@?0??process_received_entity_comms_messages@@YGXXZ@4JA
  0144d	81 c2 99 04 00
	00		 add	 edx, 1177		; 00000499H
  01453	52		 push	 edx
  01454	68 00 00 00 00	 push	 OFFSET ??_C@_0EO@OCMIKFBI@c?3?2users?2nhv90?2projects?2eech?2ap@
  01459	a1 00 00 00 00	 mov	 eax, DWORD PTR ?overload_invalid_vec3d_type_message@@3PBDB ; overload_invalid_vec3d_type_message
  0145e	50		 push	 eax
  0145f	e8 00 00 00 00	 call	 ?process_assert@@YGXPBD0H@Z ; process_assert
  01464	c7 85 bc f8 ff
	ff 00 00 00 00	 mov	 DWORD PTR tv832[ebp], 0
$LN269@process_re:
  0146e	8d 8d fc fd ff
	ff		 lea	 ecx, DWORD PTR _pos$117[ebp]
  01474	51		 push	 ecx
  01475	6a 08		 push	 8
  01477	8b 95 08 fe ff
	ff		 mov	 edx, DWORD PTR _wp$118[ebp]
  0147d	52		 push	 edx
  0147e	69 85 c0 f8 ff
	ff c0 00 00 00	 imul	 eax, DWORD PTR tv824[ebp], 192
  01488	8b 8d bc f8 ff
	ff		 mov	 ecx, DWORD PTR tv832[ebp]
  0148e	8d 94 c8 00 00
	00 00		 lea	 edx, DWORD PTR ?fn_set_client_server_entity_vec3d@@3PAY1BI@1P6GXPAUENTITY@@W4VEC3D_TYPES@@PAUVEC3D@@@ZA[eax+ecx*8]
  01495	a1 00 00 00 00	 mov	 eax, DWORD PTR ?system_comms_model@@3W4COMMS_MODEL_TYPES@@A ; system_comms_model
  0149a	8b 0c 82	 mov	 ecx, DWORD PTR [edx+eax*4]
  0149d	ff d1		 call	 ecx

; 4068 : 
; 4069 : 				member = get_local_entity_first_child (wp, LIST_TYPE_CURRENT_WAYPOINT);

  0149f	83 bd 08 fe ff
	ff 00		 cmp	 DWORD PTR _wp$118[ebp], 0
  014a6	74 10		 je	 SHORT $LN270@process_re
  014a8	8b 85 08 fe ff
	ff		 mov	 eax, DWORD PTR _wp$118[ebp]
  014ae	8b 08		 mov	 ecx, DWORD PTR [eax]
  014b0	89 8d c0 f8 ff
	ff		 mov	 DWORD PTR tv846[ebp], ecx
  014b6	eb 27		 jmp	 SHORT $LN271@process_re
$LN270@process_re:
  014b8	8b 15 00 00 00
	00		 mov	 edx, DWORD PTR ?__LINE__Var@?0??process_received_entity_comms_messages@@YGXXZ@4JA
  014be	81 c2 9b 04 00
	00		 add	 edx, 1179		; 0000049bH
  014c4	52		 push	 edx
  014c5	68 00 00 00 00	 push	 OFFSET ??_C@_0EO@OCMIKFBI@c?3?2users?2nhv90?2projects?2eech?2ap@
  014ca	a1 00 00 00 00	 mov	 eax, DWORD PTR ?null_entity_pointer_message@@3PBDB ; null_entity_pointer_message
  014cf	50		 push	 eax
  014d0	e8 00 00 00 00	 call	 ?process_assert@@YGXPBD0H@Z ; process_assert
  014d5	c7 85 c0 f8 ff
	ff 00 00 00 00	 mov	 DWORD PTR tv846[ebp], 0
$LN271@process_re:
  014df	b9 01 00 00 00	 mov	 ecx, 1
  014e4	85 c9		 test	 ecx, ecx
  014e6	74 0c		 je	 SHORT $LN272@process_re
  014e8	c7 85 bc f8 ff
	ff 09 00 00 00	 mov	 DWORD PTR tv854[ebp], 9
  014f2	eb 27		 jmp	 SHORT $LN273@process_re
$LN272@process_re:
  014f4	8b 15 00 00 00
	00		 mov	 edx, DWORD PTR ?__LINE__Var@?0??process_received_entity_comms_messages@@YGXXZ@4JA
  014fa	81 c2 9b 04 00
	00		 add	 edx, 1179		; 0000049bH
  01500	52		 push	 edx
  01501	68 00 00 00 00	 push	 OFFSET ??_C@_0EO@OCMIKFBI@c?3?2users?2nhv90?2projects?2eech?2ap@
  01506	a1 00 00 00 00	 mov	 eax, DWORD PTR ?overload_invalid_list_type_message@@3PBDB ; overload_invalid_list_type_message
  0150b	50		 push	 eax
  0150c	e8 00 00 00 00	 call	 ?process_assert@@YGXPBD0H@Z ; process_assert
  01511	c7 85 bc f8 ff
	ff 00 00 00 00	 mov	 DWORD PTR tv854[ebp], 0
$LN273@process_re:
  0151b	6a 09		 push	 9
  0151d	8b 8d 08 fe ff
	ff		 mov	 ecx, DWORD PTR _wp$118[ebp]
  01523	51		 push	 ecx
  01524	69 95 c0 f8 ff
	ff b4 00 00 00	 imul	 edx, DWORD PTR tv846[ebp], 180
  0152e	8b 85 bc f8 ff
	ff		 mov	 eax, DWORD PTR tv854[ebp]
  01534	8b 8c 82 00 00
	00 00		 mov	 ecx, DWORD PTR ?fn_get_local_entity_first_child@@3PAY0CN@P6GPAUENTITY@@PAU1@W4LIST_TYPES@@@ZA[edx+eax*4]
  0153b	ff d1		 call	 ecx
  0153d	89 85 0c fe ff
	ff		 mov	 DWORD PTR _member$119[ebp], eax
$LN24@process_re:

; 4070 : 
; 4071 : 				while (member)

  01543	83 bd 0c fe ff
	ff 00		 cmp	 DWORD PTR _member$119[ebp], 0
  0154a	0f 84 a9 00 00
	00		 je	 $LN25@process_re

; 4072 : 				{
; 4073 : 
; 4074 : //					set_client_server_mobile_internal_waypoint (member, wp);
; 4075 : 
; 4076 : 					#if DEBUG_MODULE_MESSAGE_TEXT
; 4077 : 
; 4078 : 					debug_log ("EN_COMMS:     setting internal waypoint for %s (%d) to %f, %f, %f", get_local_entity_type_name (member), get_local_entity_index (member), pos.x, pos.y, pos.z);
; 4079 : 
; 4080 : 					#endif
; 4081 : 
; 4082 : 					member = get_local_entity_child_succ (member, LIST_TYPE_CURRENT_WAYPOINT);

  01550	83 bd 0c fe ff
	ff 00		 cmp	 DWORD PTR _member$119[ebp], 0
  01557	74 10		 je	 SHORT $LN274@process_re
  01559	8b 85 0c fe ff
	ff		 mov	 eax, DWORD PTR _member$119[ebp]
  0155f	8b 08		 mov	 ecx, DWORD PTR [eax]
  01561	89 8d c0 f8 ff
	ff		 mov	 DWORD PTR tv867[ebp], ecx
  01567	eb 27		 jmp	 SHORT $LN275@process_re
$LN274@process_re:
  01569	8b 15 00 00 00
	00		 mov	 edx, DWORD PTR ?__LINE__Var@?0??process_received_entity_comms_messages@@YGXXZ@4JA
  0156f	81 c2 a8 04 00
	00		 add	 edx, 1192		; 000004a8H
  01575	52		 push	 edx
  01576	68 00 00 00 00	 push	 OFFSET ??_C@_0EO@OCMIKFBI@c?3?2users?2nhv90?2projects?2eech?2ap@
  0157b	a1 00 00 00 00	 mov	 eax, DWORD PTR ?null_entity_pointer_message@@3PBDB ; null_entity_pointer_message
  01580	50		 push	 eax
  01581	e8 00 00 00 00	 call	 ?process_assert@@YGXPBD0H@Z ; process_assert
  01586	c7 85 c0 f8 ff
	ff 00 00 00 00	 mov	 DWORD PTR tv867[ebp], 0
$LN275@process_re:
  01590	b9 01 00 00 00	 mov	 ecx, 1
  01595	85 c9		 test	 ecx, ecx
  01597	74 0c		 je	 SHORT $LN276@process_re
  01599	c7 85 bc f8 ff
	ff 09 00 00 00	 mov	 DWORD PTR tv875[ebp], 9
  015a3	eb 27		 jmp	 SHORT $LN277@process_re
$LN276@process_re:
  015a5	8b 15 00 00 00
	00		 mov	 edx, DWORD PTR ?__LINE__Var@?0??process_received_entity_comms_messages@@YGXXZ@4JA
  015ab	81 c2 a8 04 00
	00		 add	 edx, 1192		; 000004a8H
  015b1	52		 push	 edx
  015b2	68 00 00 00 00	 push	 OFFSET ??_C@_0EO@OCMIKFBI@c?3?2users?2nhv90?2projects?2eech?2ap@
  015b7	a1 00 00 00 00	 mov	 eax, DWORD PTR ?overload_invalid_list_type_message@@3PBDB ; overload_invalid_list_type_message
  015bc	50		 push	 eax
  015bd	e8 00 00 00 00	 call	 ?process_assert@@YGXPBD0H@Z ; process_assert
  015c2	c7 85 bc f8 ff
	ff 00 00 00 00	 mov	 DWORD PTR tv875[ebp], 0
$LN277@process_re:
  015cc	6a 09		 push	 9
  015ce	8b 8d 0c fe ff
	ff		 mov	 ecx, DWORD PTR _member$119[ebp]
  015d4	51		 push	 ecx
  015d5	69 95 c0 f8 ff
	ff b4 00 00 00	 imul	 edx, DWORD PTR tv867[ebp], 180
  015df	8b 85 bc f8 ff
	ff		 mov	 eax, DWORD PTR tv875[ebp]
  015e5	8b 8c 82 00 00
	00 00		 mov	 ecx, DWORD PTR ?fn_get_local_entity_child_succ@@3PAY0CN@P6GPAUENTITY@@PAU1@W4LIST_TYPES@@@ZA[edx+eax*4]
  015ec	ff d1		 call	 ecx
  015ee	89 85 0c fe ff
	ff		 mov	 DWORD PTR _member$119[ebp], eax

; 4083 : 				}

  015f4	e9 4a ff ff ff	 jmp	 $LN24@process_re
$LN25@process_re:

; 4084 : 
; 4085 : 				break;

  015f9	e9 7b 2e 00 00	 jmp	 $LN4@process_re
$LN118@process_re:

; 4086 : 			}
; 4087 : 			////////////////////////////////////////
; 4088 : 			case ENTITY_COMMS_PAUSE_SOUND_TYPE:
; 4089 : 			////////////////////////////////////////
; 4090 : 			{
; 4091 : 				entity
; 4092 : 					*en;
; 4093 : 
; 4094 : 				entity_sub_types
; 4095 : 					type;
; 4096 : 
; 4097 : 				float
; 4098 : 					delay;
; 4099 : 
; 4100 : 				//
; 4101 : 				// (entity_comms_messages message, entity *en, entity_sub_types type, float delay)
; 4102 : 				//
; 4103 : 
; 4104 : 				en = unpack_entity_safe_ptr ();

  015fe	e8 00 00 00 00	 call	 ?unpack_entity_safe_ptr@@YGPAUENTITY@@XZ ; unpack_entity_safe_ptr
  01603	89 85 f8 fd ff
	ff		 mov	 DWORD PTR _en$116[ebp], eax

; 4105 : 
; 4106 : 				ASSERT (en);

  01609	83 bd f8 fd ff
	ff 00		 cmp	 DWORD PTR _en$116[ebp], 0
  01610	75 1a		 jne	 SHORT $LN119@process_re
  01612	a1 00 00 00 00	 mov	 eax, DWORD PTR ?__LINE__Var@?0??process_received_entity_comms_messages@@YGXXZ@4JA
  01617	05 c0 04 00 00	 add	 eax, 1216		; 000004c0H
  0161c	50		 push	 eax
  0161d	68 00 00 00 00	 push	 OFFSET ??_C@_0EO@OCMIKFBI@c?3?2users?2nhv90?2projects?2eech?2ap@
  01622	68 00 00 00 00	 push	 OFFSET ??_C@_02LFNMGJAP@en@
  01627	e8 00 00 00 00	 call	 ?process_assert@@YGXPBD0H@Z ; process_assert
$LN119@process_re:

; 4107 : 
; 4108 : 				type = unpack_int_value (en, INT_TYPE_ENTITY_SUB_TYPE);

  0162c	6a 34		 push	 52			; 00000034H
  0162e	8b 85 f8 fd ff
	ff		 mov	 eax, DWORD PTR _en$116[ebp]
  01634	50		 push	 eax
  01635	e8 00 00 00 00	 call	 ?unpack_int_value@@YGHPAUENTITY@@W4INT_TYPES@@@Z ; unpack_int_value
  0163a	89 85 f4 fd ff
	ff		 mov	 DWORD PTR _type$115[ebp], eax

; 4109 : 
; 4110 : 				delay = unpack_float_value (en, FLOAT_TYPE_VALID_EFFECT_LIFETIME);

  01640	68 92 00 00 00	 push	 146			; 00000092H
  01645	8b 85 f8 fd ff
	ff		 mov	 eax, DWORD PTR _en$116[ebp]
  0164b	50		 push	 eax
  0164c	e8 00 00 00 00	 call	 ?unpack_float_value@@YGMPAUENTITY@@W4FLOAT_TYPES@@@Z ; unpack_float_value
  01651	d9 9d f0 fd ff
	ff		 fstp	 DWORD PTR _delay$114[ebp]

; 4111 : 
; 4112 : 				pause_local_entity_sound_type (en, type, delay);

  01657	51		 push	 ecx
  01658	f3 0f 10 85 f0
	fd ff ff	 movss	 xmm0, DWORD PTR _delay$114[ebp]
  01660	f3 0f 11 04 24	 movss	 DWORD PTR [esp], xmm0
  01665	8b 85 f4 fd ff
	ff		 mov	 eax, DWORD PTR _type$115[ebp]
  0166b	50		 push	 eax
  0166c	8b 8d f8 fd ff
	ff		 mov	 ecx, DWORD PTR _en$116[ebp]
  01672	51		 push	 ecx
  01673	e8 00 00 00 00	 call	 ?pause_local_entity_sound_type@@YGHPAUENTITY@@HM@Z ; pause_local_entity_sound_type

; 4113 : 
; 4114 : 				#if DEBUG_MODULE_MESSAGE_TEXT
; 4115 : 
; 4116 : 				debug_log ("EN_COMMS: received pause sound type for %s (%d)", get_local_entity_type_name (en), get_local_entity_index (en));
; 4117 : 
; 4118 : 				#endif
; 4119 : 
; 4120 : 				break;

  01678	e9 fc 2d 00 00	 jmp	 $LN4@process_re
$LN120@process_re:

; 4121 : 			}
; 4122 : 			////////////////////////////////////////
; 4123 : 			case ENTITY_COMMS_PAUSE_WEAPON_SOUND_TYPE:
; 4124 : 			////////////////////////////////////////
; 4125 : 			{
; 4126 : 				entity
; 4127 : 					*en;
; 4128 : 
; 4129 : 				entity_sub_types
; 4130 : 					weapon_sub_type;
; 4131 : 
; 4132 : 				//
; 4133 : 				// (entity_comms_messages message, entity *en, entity_sub_types weapon_sub_type)
; 4134 : 				//
; 4135 : 
; 4136 : 				en = unpack_entity_safe_ptr ();

  0167d	e8 00 00 00 00	 call	 ?unpack_entity_safe_ptr@@YGPAUENTITY@@XZ ; unpack_entity_safe_ptr
  01682	89 85 ec fd ff
	ff		 mov	 DWORD PTR _en$113[ebp], eax

; 4137 : 
; 4138 : 				ASSERT (en);

  01688	83 bd ec fd ff
	ff 00		 cmp	 DWORD PTR _en$113[ebp], 0
  0168f	75 1a		 jne	 SHORT $LN121@process_re
  01691	a1 00 00 00 00	 mov	 eax, DWORD PTR ?__LINE__Var@?0??process_received_entity_comms_messages@@YGXXZ@4JA
  01696	05 e0 04 00 00	 add	 eax, 1248		; 000004e0H
  0169b	50		 push	 eax
  0169c	68 00 00 00 00	 push	 OFFSET ??_C@_0EO@OCMIKFBI@c?3?2users?2nhv90?2projects?2eech?2ap@
  016a1	68 00 00 00 00	 push	 OFFSET ??_C@_02LFNMGJAP@en@
  016a6	e8 00 00 00 00	 call	 ?process_assert@@YGXPBD0H@Z ; process_assert
$LN121@process_re:

; 4139 : 
; 4140 : 				weapon_sub_type = unpack_int_value (en, INT_TYPE_ENTITY_SUB_TYPE);

  016ab	6a 34		 push	 52			; 00000034H
  016ad	8b 85 ec fd ff
	ff		 mov	 eax, DWORD PTR _en$113[ebp]
  016b3	50		 push	 eax
  016b4	e8 00 00 00 00	 call	 ?unpack_int_value@@YGHPAUENTITY@@W4INT_TYPES@@@Z ; unpack_int_value
  016b9	89 85 e8 fd ff
	ff		 mov	 DWORD PTR _weapon_sub_type$112[ebp], eax

; 4141 : 
; 4142 : 				pause_local_continuous_weapon_sound_effect (en, weapon_sub_type);

  016bf	8b 85 e8 fd ff
	ff		 mov	 eax, DWORD PTR _weapon_sub_type$112[ebp]
  016c5	50		 push	 eax
  016c6	8b 8d ec fd ff
	ff		 mov	 ecx, DWORD PTR _en$113[ebp]
  016cc	51		 push	 ecx
  016cd	e8 00 00 00 00	 call	 ?pause_local_continuous_weapon_sound_effect@@YGXPAUENTITY@@H@Z ; pause_local_continuous_weapon_sound_effect

; 4143 : 
; 4144 : 				#if DEBUG_MODULE_MESSAGE_TEXT
; 4145 : 
; 4146 : 				debug_log ("EN_COMMS: received pause weapon sound type for %s (%d)", get_local_entity_type_name (en), get_local_entity_index (en));
; 4147 : 
; 4148 : 				#endif
; 4149 : 
; 4150 : 				break;

  016d2	e9 a2 2d 00 00	 jmp	 $LN4@process_re
$LN122@process_re:

; 4151 : 			}
; 4152 : 			////////////////////////////////////////
; 4153 : 			case ENTITY_COMMS_PILOT_COMMUNICATION:
; 4154 : 			////////////////////////////////////////
; 4155 : 			{
; 4156 : 				//
; 4157 : 				// (entity_comms_messages message, entity *sender, entity *target, int type, char *message)
; 4158 : 				//
; 4159 : 
; 4160 : 				entity
; 4161 : 					*sender,
; 4162 : 					*target;
; 4163 : 
; 4164 : 				message_text_types
; 4165 : 					type;
; 4166 : 
; 4167 : 				char
; 4168 : 					*string,
; 4169 : 					message [STRING_TYPE_MESSAGE_LENGTH];
; 4170 : 
; 4171 : 				sender = unpack_entity_safe_ptr ();

  016d7	e8 00 00 00 00	 call	 ?unpack_entity_safe_ptr@@YGPAUENTITY@@XZ ; unpack_entity_safe_ptr
  016dc	89 85 e4 fd ff
	ff		 mov	 DWORD PTR _sender$111[ebp], eax

; 4172 : 
; 4173 : 				target = unpack_entity_safe_ptr ();

  016e2	e8 00 00 00 00	 call	 ?unpack_entity_safe_ptr@@YGPAUENTITY@@XZ ; unpack_entity_safe_ptr
  016e7	89 85 e0 fd ff
	ff		 mov	 DWORD PTR _target$110[ebp], eax

; 4174 : 
; 4175 : 				type = (message_text_types) unpack_int_value (NULL, INT_TYPE_MESSAGE_TEXT_TYPE);

  016ed	68 87 00 00 00	 push	 135			; 00000087H
  016f2	6a 00		 push	 0
  016f4	e8 00 00 00 00	 call	 ?unpack_int_value@@YGHPAUENTITY@@W4INT_TYPES@@@Z ; unpack_int_value
  016f9	89 85 dc fd ff
	ff		 mov	 DWORD PTR _type$109[ebp], eax

; 4176 : 
; 4177 : 				if (message_text_type_send_string (type))

  016ff	8b 85 dc fd ff
	ff		 mov	 eax, DWORD PTR _type$109[ebp]
  01705	50		 push	 eax
  01706	e8 00 00 00 00	 call	 ?message_text_type_send_string@@YGHW4MESSAGE_TEXT_TYPES@@@Z ; message_text_type_send_string
  0170b	85 c0		 test	 eax, eax
  0170d	74 1e		 je	 SHORT $LN123@process_re

; 4178 : 				{
; 4179 : 					unpack_string (NULL, STRING_TYPE_PILOT_MESSAGE, message);

  0170f	8d 85 38 fd ff
	ff		 lea	 eax, DWORD PTR _message$107[ebp]
  01715	50		 push	 eax
  01716	6a 09		 push	 9
  01718	6a 00		 push	 0
  0171a	e8 00 00 00 00	 call	 ?unpack_string@@YGXPAUENTITY@@W4STRING_TYPES@@PAD@Z ; unpack_string

; 4180 : 
; 4181 : 					string = message;

  0171f	8d 85 38 fd ff
	ff		 lea	 eax, DWORD PTR _message$107[ebp]
  01725	89 85 d8 fd ff
	ff		 mov	 DWORD PTR _string$108[ebp], eax

; 4182 : 
; 4183 : 					#if DEBUG_MODULE_MESSAGE_TEXT
; 4184 : 
; 4185 : 					debug_log ("EN_COMMS: received communication message %s", message);
; 4186 : 
; 4187 : 					#endif
; 4188 : 				}
; 4189 : 				else

  0172b	eb 0a		 jmp	 SHORT $LN124@process_re
$LN123@process_re:

; 4190 : 				{
; 4191 : 					string = NULL;

  0172d	c7 85 d8 fd ff
	ff 00 00 00 00	 mov	 DWORD PTR _string$108[ebp], 0
$LN124@process_re:

; 4192 : 				}
; 4193 : 
; 4194 : 				//
; 4195 : 				// notify messaging system of received message
; 4196 : 				//
; 4197 : 
; 4198 : 				set_incoming_message (sender, target, type, string);

  01737	8b 85 d8 fd ff
	ff		 mov	 eax, DWORD PTR _string$108[ebp]
  0173d	50		 push	 eax
  0173e	8b 8d dc fd ff
	ff		 mov	 ecx, DWORD PTR _type$109[ebp]
  01744	51		 push	 ecx
  01745	8b 95 e0 fd ff
	ff		 mov	 edx, DWORD PTR _target$110[ebp]
  0174b	52		 push	 edx
  0174c	8b 85 e4 fd ff
	ff		 mov	 eax, DWORD PTR _sender$111[ebp]
  01752	50		 push	 eax
  01753	e8 00 00 00 00	 call	 ?set_incoming_message@@YGXPAUENTITY@@0W4MESSAGE_TEXT_TYPES@@PAD@Z ; set_incoming_message

; 4199 : 
; 4200 : 				//
; 4201 : 				// server needs to forward any messages on to clients (unless it was only meant for him)
; 4202 : 				//
; 4203 : 
; 4204 : 				if (get_comms_model () == COMMS_MODEL_SERVER)

  01758	83 3d 00 00 00
	00 00		 cmp	 DWORD PTR ?system_comms_model@@3W4COMMS_MODEL_TYPES@@A, 0 ; system_comms_model
  0175f	75 34		 jne	 SHORT $LN125@process_re

; 4205 : 				{
; 4206 : 					//
; 4207 : 					// very dodgy stuff indeed...
; 4208 : 					//
; 4209 : 
; 4210 : 					set_comms_data_flow (COMMS_DATA_FLOW_TX);

  01761	6a 00		 push	 0
  01763	e8 00 00 00 00	 call	 ?set_comms_data_flow@@YGXW4COMMS_DATA_FLOW_TYPES@@@Z ; set_comms_data_flow

; 4211 : 
; 4212 : 					transmit_entity_comms_message (ENTITY_COMMS_PILOT_COMMUNICATION, sender, target, type, string);

  01768	8b 85 d8 fd ff
	ff		 mov	 eax, DWORD PTR _string$108[ebp]
  0176e	50		 push	 eax
  0176f	8b 8d dc fd ff
	ff		 mov	 ecx, DWORD PTR _type$109[ebp]
  01775	51		 push	 ecx
  01776	8b 95 e0 fd ff
	ff		 mov	 edx, DWORD PTR _target$110[ebp]
  0177c	52		 push	 edx
  0177d	8b 85 e4 fd ff
	ff		 mov	 eax, DWORD PTR _sender$111[ebp]
  01783	50		 push	 eax
  01784	6a 1f		 push	 31			; 0000001fH
  01786	e8 00 00 00 00	 call	 ?transmit_entity_comms_message@@YAXW4ENTITY_COMMS_MESSAGES@@PAUENTITY@@ZZ ; transmit_entity_comms_message
  0178b	83 c4 14	 add	 esp, 20			; 00000014H

; 4213 : 
; 4214 : 					set_comms_data_flow (COMMS_DATA_FLOW_RX);

  0178e	6a 01		 push	 1
  01790	e8 00 00 00 00	 call	 ?set_comms_data_flow@@YGXW4COMMS_DATA_FLOW_TYPES@@@Z ; set_comms_data_flow
$LN125@process_re:

; 4215 : 				}
; 4216 : 
; 4217 : 				break;

  01795	e9 df 2c 00 00	 jmp	 $LN4@process_re
$LN126@process_re:

; 4218 : 			}
; 4219 : 			////////////////////////////////////////
; 4220 : 			case ENTITY_COMMS_PILOT_PFZ_TRANSFER:
; 4221 : 			////////////////////////////////////////
; 4222 : 			{
; 4223 : 				//
; 4224 : 				// (entity_comms_messages message, entity *sender, entity *target, int type, char *message)
; 4225 : 				//
; 4226 : 
; 4227 : 				entity
; 4228 : 					*sender,
; 4229 : 					*wingman;
; 4230 : 
; 4231 : 				entity
; 4232 : 					*targets[17];
; 4233 : 				
; 4234 : 				unsigned int i;
; 4235 : 
; 4236 : 				vec3d corner1, corner2, corner3, corner4;
; 4237 : 
; 4238 : 				sender = unpack_entity_safe_ptr ();

  0179a	e8 00 00 00 00	 call	 ?unpack_entity_safe_ptr@@YGPAUENTITY@@XZ ; unpack_entity_safe_ptr
  0179f	89 85 34 fd ff
	ff		 mov	 DWORD PTR _sender$106[ebp], eax

; 4239 : 				wingman = unpack_entity_safe_ptr ();

  017a5	e8 00 00 00 00	 call	 ?unpack_entity_safe_ptr@@YGPAUENTITY@@XZ ; unpack_entity_safe_ptr
  017aa	89 85 30 fd ff
	ff		 mov	 DWORD PTR _wingman$105[ebp], eax

; 4240 : 
; 4241 : 				corner1.x = unpack_float_value(NULL, FLOAT_TYPE_PFZ_X1);

  017b0	68 a7 00 00 00	 push	 167			; 000000a7H
  017b5	6a 00		 push	 0
  017b7	e8 00 00 00 00	 call	 ?unpack_float_value@@YGMPAUENTITY@@W4FLOAT_TYPES@@@Z ; unpack_float_value
  017bc	d9 9d dc fc ff
	ff		 fstp	 DWORD PTR _corner1$102[ebp]

; 4242 : 				corner1.z = unpack_float_value(NULL, FLOAT_TYPE_PFZ_Y1);

  017c2	68 a8 00 00 00	 push	 168			; 000000a8H
  017c7	6a 00		 push	 0
  017c9	e8 00 00 00 00	 call	 ?unpack_float_value@@YGMPAUENTITY@@W4FLOAT_TYPES@@@Z ; unpack_float_value
  017ce	d9 9d e4 fc ff
	ff		 fstp	 DWORD PTR _corner1$102[ebp+8]

; 4243 : 				corner2.x = unpack_float_value(NULL, FLOAT_TYPE_PFZ_X2);

  017d4	68 a9 00 00 00	 push	 169			; 000000a9H
  017d9	6a 00		 push	 0
  017db	e8 00 00 00 00	 call	 ?unpack_float_value@@YGMPAUENTITY@@W4FLOAT_TYPES@@@Z ; unpack_float_value
  017e0	d9 9d d0 fc ff
	ff		 fstp	 DWORD PTR _corner2$101[ebp]

; 4244 : 				corner2.z = unpack_float_value(NULL, FLOAT_TYPE_PFZ_Y2);

  017e6	68 aa 00 00 00	 push	 170			; 000000aaH
  017eb	6a 00		 push	 0
  017ed	e8 00 00 00 00	 call	 ?unpack_float_value@@YGMPAUENTITY@@W4FLOAT_TYPES@@@Z ; unpack_float_value
  017f2	d9 9d d8 fc ff
	ff		 fstp	 DWORD PTR _corner2$101[ebp+8]

; 4245 : 				corner3.x = unpack_float_value(NULL, FLOAT_TYPE_PFZ_X3);

  017f8	68 ab 00 00 00	 push	 171			; 000000abH
  017fd	6a 00		 push	 0
  017ff	e8 00 00 00 00	 call	 ?unpack_float_value@@YGMPAUENTITY@@W4FLOAT_TYPES@@@Z ; unpack_float_value
  01804	d9 9d c4 fc ff
	ff		 fstp	 DWORD PTR _corner3$100[ebp]

; 4246 : 				corner3.z = unpack_float_value(NULL, FLOAT_TYPE_PFZ_Y3);

  0180a	68 ac 00 00 00	 push	 172			; 000000acH
  0180f	6a 00		 push	 0
  01811	e8 00 00 00 00	 call	 ?unpack_float_value@@YGMPAUENTITY@@W4FLOAT_TYPES@@@Z ; unpack_float_value
  01816	d9 9d cc fc ff
	ff		 fstp	 DWORD PTR _corner3$100[ebp+8]

; 4247 : 				corner4.x = unpack_float_value(NULL, FLOAT_TYPE_PFZ_X4);

  0181c	68 ad 00 00 00	 push	 173			; 000000adH
  01821	6a 00		 push	 0
  01823	e8 00 00 00 00	 call	 ?unpack_float_value@@YGMPAUENTITY@@W4FLOAT_TYPES@@@Z ; unpack_float_value
  01828	d9 9d b8 fc ff
	ff		 fstp	 DWORD PTR _corner4$99[ebp]

; 4248 : 				corner4.z = unpack_float_value(NULL, FLOAT_TYPE_PFZ_Y4);

  0182e	68 ae 00 00 00	 push	 174			; 000000aeH
  01833	6a 00		 push	 0
  01835	e8 00 00 00 00	 call	 ?unpack_float_value@@YGMPAUENTITY@@W4FLOAT_TYPES@@@Z ; unpack_float_value
  0183a	d9 9d c0 fc ff
	ff		 fstp	 DWORD PTR _corner4$99[ebp+8]

; 4249 : 
; 4250 : 				for (i=0; i < 16; i++)

  01840	c7 85 e8 fc ff
	ff 00 00 00 00	 mov	 DWORD PTR _i$103[ebp], 0
  0184a	eb 0f		 jmp	 SHORT $LN28@process_re
$LN26@process_re:
  0184c	8b 85 e8 fc ff
	ff		 mov	 eax, DWORD PTR _i$103[ebp]
  01852	83 c0 01	 add	 eax, 1
  01855	89 85 e8 fc ff
	ff		 mov	 DWORD PTR _i$103[ebp], eax
$LN28@process_re:
  0185b	83 bd e8 fc ff
	ff 10		 cmp	 DWORD PTR _i$103[ebp], 16 ; 00000010H
  01862	0f 83 03 01 00
	00		 jae	 $LN27@process_re

; 4251 : 				{
; 4252 : 					targets[i] = unpack_entity_safe_ptr();

  01868	e8 00 00 00 00	 call	 ?unpack_entity_safe_ptr@@YGPAUENTITY@@XZ ; unpack_entity_safe_ptr
  0186d	8b 8d e8 fc ff
	ff		 mov	 ecx, DWORD PTR _i$103[ebp]
  01873	89 84 8d ec fc
	ff ff		 mov	 DWORD PTR _targets$104[ebp+ecx*4], eax

; 4253 : 					if (!targets[i])

  0187a	8b 85 e8 fc ff
	ff		 mov	 eax, DWORD PTR _i$103[ebp]
  01880	83 bc 85 ec fc
	ff ff 00	 cmp	 DWORD PTR _targets$104[ebp+eax*4], 0
  01888	75 05		 jne	 SHORT $LN127@process_re

; 4254 : 						break;

  0188a	e9 dc 00 00 00	 jmp	 $LN27@process_re
$LN127@process_re:

; 4255 : 
; 4256 : 					if (get_gunship_entity() == wingman)  // add targets to radar

  0188f	a1 00 00 00 00	 mov	 eax, DWORD PTR ?gunship_entity@@3PAUENTITY@@A ; gunship_entity
  01894	3b 85 30 fd ff
	ff		 cmp	 eax, DWORD PTR _wingman$105[ebp]
  0189a	0f 85 c6 00 00
	00		 jne	 $LN129@process_re

; 4257 : 						if (!get_local_entity_parent (targets[i], LIST_TYPE_GUNSHIP_TARGET))  // target we don't have already

  018a0	8b 85 e8 fc ff
	ff		 mov	 eax, DWORD PTR _i$103[ebp]
  018a6	83 bc 85 ec fc
	ff ff 00	 cmp	 DWORD PTR _targets$104[ebp+eax*4], 0
  018ae	74 17		 je	 SHORT $LN278@process_re
  018b0	8b 8d e8 fc ff
	ff		 mov	 ecx, DWORD PTR _i$103[ebp]
  018b6	8b 94 8d ec fc
	ff ff		 mov	 edx, DWORD PTR _targets$104[ebp+ecx*4]
  018bd	8b 02		 mov	 eax, DWORD PTR [edx]
  018bf	89 85 c0 f8 ff
	ff		 mov	 DWORD PTR tv1006[ebp], eax
  018c5	eb 20		 jmp	 SHORT $LN279@process_re
$LN278@process_re:
  018c7	68 a1 10 00 00	 push	 4257			; 000010a1H
  018cc	68 00 00 00 00	 push	 OFFSET ??_C@_0EO@OCMIKFBI@c?3?2users?2nhv90?2projects?2eech?2ap@
  018d1	8b 0d 00 00 00
	00		 mov	 ecx, DWORD PTR ?null_entity_pointer_message@@3PBDB ; null_entity_pointer_message
  018d7	51		 push	 ecx
  018d8	e8 00 00 00 00	 call	 ?process_assert@@YGXPBD0H@Z ; process_assert
  018dd	c7 85 c0 f8 ff
	ff 00 00 00 00	 mov	 DWORD PTR tv1006[ebp], 0
$LN279@process_re:
  018e7	ba 01 00 00 00	 mov	 edx, 1
  018ec	85 d2		 test	 edx, edx
  018ee	74 0c		 je	 SHORT $LN280@process_re
  018f0	c7 85 bc f8 ff
	ff 12 00 00 00	 mov	 DWORD PTR tv1013[ebp], 18 ; 00000012H
  018fa	eb 1f		 jmp	 SHORT $LN281@process_re
$LN280@process_re:
  018fc	68 a1 10 00 00	 push	 4257			; 000010a1H
  01901	68 00 00 00 00	 push	 OFFSET ??_C@_0EO@OCMIKFBI@c?3?2users?2nhv90?2projects?2eech?2ap@
  01906	a1 00 00 00 00	 mov	 eax, DWORD PTR ?overload_invalid_list_type_message@@3PBDB ; overload_invalid_list_type_message
  0190b	50		 push	 eax
  0190c	e8 00 00 00 00	 call	 ?process_assert@@YGXPBD0H@Z ; process_assert
  01911	c7 85 bc f8 ff
	ff 00 00 00 00	 mov	 DWORD PTR tv1013[ebp], 0
$LN281@process_re:
  0191b	6a 12		 push	 18			; 00000012H
  0191d	8b 8d e8 fc ff
	ff		 mov	 ecx, DWORD PTR _i$103[ebp]
  01923	8b 94 8d ec fc
	ff ff		 mov	 edx, DWORD PTR _targets$104[ebp+ecx*4]
  0192a	52		 push	 edx
  0192b	69 85 c0 f8 ff
	ff b4 00 00 00	 imul	 eax, DWORD PTR tv1006[ebp], 180
  01935	8b 8d bc f8 ff
	ff		 mov	 ecx, DWORD PTR tv1013[ebp]
  0193b	8b 94 88 00 00
	00 00		 mov	 edx, DWORD PTR ?fn_get_local_entity_parent@@3PAY0CN@P6GPAUENTITY@@PAU1@W4LIST_TYPES@@@ZA[eax+ecx*4]
  01942	ff d2		 call	 edx
  01944	85 c0		 test	 eax, eax
  01946	75 1e		 jne	 SHORT $LN129@process_re

; 4258 : 							insert_local_entity_into_parents_child_list (targets[i], LIST_TYPE_GUNSHIP_TARGET, wingman, NULL);	

  01948	6a 00		 push	 0
  0194a	8b 85 30 fd ff
	ff		 mov	 eax, DWORD PTR _wingman$105[ebp]
  01950	50		 push	 eax
  01951	6a 12		 push	 18			; 00000012H
  01953	8b 8d e8 fc ff
	ff		 mov	 ecx, DWORD PTR _i$103[ebp]
  01959	8b 94 8d ec fc
	ff ff		 mov	 edx, DWORD PTR _targets$104[ebp+ecx*4]
  01960	52		 push	 edx
  01961	e8 00 00 00 00	 call	 ?insert_local_entity_into_parents_child_list@@YGXPAUENTITY@@W4LIST_TYPES@@00@Z ; insert_local_entity_into_parents_child_list
$LN129@process_re:

; 4259 : 				}

  01966	e9 e1 fe ff ff	 jmp	 $LN26@process_re
$LN27@process_re:

; 4260 : 
; 4261 : 				// be sure to terminate
; 4262 : 				targets[i] = NULL;

  0196b	8b 85 e8 fc ff
	ff		 mov	 eax, DWORD PTR _i$103[ebp]
  01971	c7 84 85 ec fc
	ff ff 00 00 00
	00		 mov	 DWORD PTR _targets$104[ebp+eax*4], 0

; 4263 : 
; 4264 : 				//
; 4265 : 				// notify messaging system of received message
; 4266 : 				//
; 4267 : 
; 4268 : 				if (get_gunship_entity() == wingman)

  0197c	a1 00 00 00 00	 mov	 eax, DWORD PTR ?gunship_entity@@3PAUENTITY@@A ; gunship_entity
  01981	3b 85 30 fd ff
	ff		 cmp	 eax, DWORD PTR _wingman$105[ebp]
  01987	75 63		 jne	 SHORT $LN130@process_re

; 4269 : 				{	// someone has sent us a pfz, create it
; 4270 : 					int pfz_number;
; 4271 : 					char attack_message[100];
; 4272 : 
; 4273 : 					add_pfz(&corner1, &corner2, &corner3, &corner4);

  01989	8d 85 b8 fc ff
	ff		 lea	 eax, DWORD PTR _corner4$99[ebp]
  0198f	50		 push	 eax
  01990	8d 8d c4 fc ff
	ff		 lea	 ecx, DWORD PTR _corner3$100[ebp]
  01996	51		 push	 ecx
  01997	8d 95 d0 fc ff
	ff		 lea	 edx, DWORD PTR _corner2$101[ebp]
  0199d	52		 push	 edx
  0199e	8d 85 dc fc ff
	ff		 lea	 eax, DWORD PTR _corner1$102[ebp]
  019a4	50		 push	 eax
  019a5	e8 00 00 00 00	 call	 ?add_pfz@@YGXPAUVEC3D@@000@Z ; add_pfz

; 4274 : 					pfz_number = next_free_pfz;

  019aa	a1 00 00 00 00	 mov	 eax, DWORD PTR ?next_free_pfz@@3IA ; next_free_pfz
  019af	89 85 b4 fc ff
	ff		 mov	 DWORD PTR _pfz_number$98[ebp], eax

; 4275 : 
; 4276 : 					sprintf(attack_message, "Attack PFZ %d", pfz_number);

  019b5	8b 85 b4 fc ff
	ff		 mov	 eax, DWORD PTR _pfz_number$98[ebp]
  019bb	50		 push	 eax
  019bc	68 00 00 00 00	 push	 OFFSET ??_C@_0O@DEGLOFLI@Attack?5PFZ?5?$CFd@
  019c1	8d 8d 50 fc ff
	ff		 lea	 ecx, DWORD PTR _attack_message$97[ebp]
  019c7	51		 push	 ecx
  019c8	e8 00 00 00 00	 call	 _sprintf
  019cd	83 c4 0c	 add	 esp, 12			; 0000000cH

; 4277 : 
; 4278 : 					set_incoming_message(sender, get_pilot_entity(), MESSAGE_TEXT_LOCAL_MESSAGE, attack_message);

  019d0	8d 85 50 fc ff
	ff		 lea	 eax, DWORD PTR _attack_message$97[ebp]
  019d6	50		 push	 eax
  019d7	6a 0b		 push	 11			; 0000000bH
  019d9	8b 0d 00 00 00
	00		 mov	 ecx, DWORD PTR ?pilot_entity@@3PAUENTITY@@A ; pilot_entity
  019df	51		 push	 ecx
  019e0	8b 95 34 fd ff
	ff		 mov	 edx, DWORD PTR _sender$106[ebp]
  019e6	52		 push	 edx
  019e7	e8 00 00 00 00	 call	 ?set_incoming_message@@YGXPAUENTITY@@0W4MESSAGE_TEXT_TYPES@@PAD@Z ; set_incoming_message
$LN130@process_re:

; 4279 : 				}
; 4280 : 
; 4281 : 				//
; 4282 : 				// server needs to forward any messages on to clients (unless it was only meant for him)
; 4283 : 				//
; 4284 : 
; 4285 : 				if (get_comms_model () == COMMS_MODEL_SERVER)

  019ec	83 3d 00 00 00
	00 00		 cmp	 DWORD PTR ?system_comms_model@@3W4COMMS_MODEL_TYPES@@A, 0 ; system_comms_model
  019f3	0f 85 42 01 00
	00		 jne	 $LN132@process_re

; 4286 : 				{
; 4287 : 					//
; 4288 : 					// very dodgy stuff indeed...
; 4289 : 					//
; 4290 : 
; 4291 : 					set_comms_data_flow (COMMS_DATA_FLOW_TX);

  019f9	6a 00		 push	 0
  019fb	e8 00 00 00 00	 call	 ?set_comms_data_flow@@YGXW4COMMS_DATA_FLOW_TYPES@@@Z ; set_comms_data_flow

; 4292 : 
; 4293 : 					transmit_pfz(sender, wingman,

  01a00	8d 85 ec fc ff
	ff		 lea	 eax, DWORD PTR _targets$104[ebp]
  01a06	50		 push	 eax
  01a07	51		 push	 ecx
  01a08	f3 0f 10 85 c0
	fc ff ff	 movss	 xmm0, DWORD PTR _corner4$99[ebp+8]
  01a10	f3 0f 11 04 24	 movss	 DWORD PTR [esp], xmm0
  01a15	51		 push	 ecx
  01a16	f3 0f 10 85 b8
	fc ff ff	 movss	 xmm0, DWORD PTR _corner4$99[ebp]
  01a1e	f3 0f 11 04 24	 movss	 DWORD PTR [esp], xmm0
  01a23	51		 push	 ecx
  01a24	f3 0f 10 85 cc
	fc ff ff	 movss	 xmm0, DWORD PTR _corner3$100[ebp+8]
  01a2c	f3 0f 11 04 24	 movss	 DWORD PTR [esp], xmm0
  01a31	51		 push	 ecx
  01a32	f3 0f 10 85 c4
	fc ff ff	 movss	 xmm0, DWORD PTR _corner3$100[ebp]
  01a3a	f3 0f 11 04 24	 movss	 DWORD PTR [esp], xmm0
  01a3f	51		 push	 ecx
  01a40	f3 0f 10 85 d8
	fc ff ff	 movss	 xmm0, DWORD PTR _corner2$101[ebp+8]
  01a48	f3 0f 11 04 24	 movss	 DWORD PTR [esp], xmm0
  01a4d	51		 push	 ecx
  01a4e	f3 0f 10 85 d0
	fc ff ff	 movss	 xmm0, DWORD PTR _corner2$101[ebp]
  01a56	f3 0f 11 04 24	 movss	 DWORD PTR [esp], xmm0
  01a5b	51		 push	 ecx
  01a5c	f3 0f 10 85 e4
	fc ff ff	 movss	 xmm0, DWORD PTR _corner1$102[ebp+8]
  01a64	f3 0f 11 04 24	 movss	 DWORD PTR [esp], xmm0
  01a69	51		 push	 ecx
  01a6a	f3 0f 10 85 dc
	fc ff ff	 movss	 xmm0, DWORD PTR _corner1$102[ebp]
  01a72	f3 0f 11 04 24	 movss	 DWORD PTR [esp], xmm0
  01a77	8b 8d 30 fd ff
	ff		 mov	 ecx, DWORD PTR _wingman$105[ebp]
  01a7d	51		 push	 ecx
  01a7e	8b 95 34 fd ff
	ff		 mov	 edx, DWORD PTR _sender$106[ebp]
  01a84	52		 push	 edx
  01a85	e8 00 00 00 00	 call	 ?transmit_pfz@@YGXPAUENTITY@@0MMMMMMMMQAPAU1@@Z ; transmit_pfz

; 4294 : 						corner1.x, corner1.z,
; 4295 : 						corner2.x, corner2.z,
; 4296 : 						corner3.x, corner3.z,
; 4297 : 						corner4.x, corner4.z,
; 4298 : 						targets);
; 4299 : 
; 4300 : 					set_comms_data_flow (COMMS_DATA_FLOW_RX);

  01a8a	6a 01		 push	 1
  01a8c	e8 00 00 00 00	 call	 ?set_comms_data_flow@@YGXW4COMMS_DATA_FLOW_TYPES@@@Z ; set_comms_data_flow

; 4301 : 
; 4302 : 					// if message is for AI wingman create engage tasks
; 4303 : /*					if (get_local_entity_int_value (wingman, INT_TYPE_PLAYER) == ENTITY_PLAYER_AI)
; 4304 : 					{
; 4305 : 						entity
; 4306 : 							*target,
; 4307 : 							*group;
; 4308 : 
; 4309 : 						unsigned int valid_members = 0, member_number;
; 4310 : 
; 4311 : 						group = get_local_entity_parent(wingman, LIST_TYPE_MEMBER);
; 4312 : 
; 4313 : 						member_number = get_local_entity_int_value(wingman, INT_TYPE_GROUP_MEMBER_NUMBER);
; 4314 : 						valid_members = (1 << member_number);
; 4315 : 						
; 4316 : 			//			clear_local_entity_list(wingman, LIST_TYPE_DESIGNATED_TARGET);
; 4317 : 				
; 4318 : 						for (target = targets[0];
; 4319 : 							 target;
; 4320 : 							 target++)
; 4321 : 						{
; 4322 : 							debug_log("adding engage task for %p", target);
; 4323 : 			//					insert_local_ry_into_parents_child_list(target, LIST_TYPE_DESIGNATED_TARGET, wingman, NULL);
; 4324 : 							engage_specific_target(group, target, valid_members, FALSE);
; 4325 : 						}
; 4326 : 					}*/
; 4327 : 					if (get_local_entity_int_value (wingman, INT_TYPE_PLAYER) == ENTITY_PLAYER_AI)

  01a91	83 bd 30 fd ff
	ff 00		 cmp	 DWORD PTR _wingman$105[ebp], 0
  01a98	74 10		 je	 SHORT $LN282@process_re
  01a9a	8b 85 30 fd ff
	ff		 mov	 eax, DWORD PTR _wingman$105[ebp]
  01aa0	8b 08		 mov	 ecx, DWORD PTR [eax]
  01aa2	89 8d c0 f8 ff
	ff		 mov	 DWORD PTR tv1061[ebp], ecx
  01aa8	eb 20		 jmp	 SHORT $LN283@process_re
$LN282@process_re:
  01aaa	68 e7 10 00 00	 push	 4327			; 000010e7H
  01aaf	68 00 00 00 00	 push	 OFFSET ??_C@_0EO@OCMIKFBI@c?3?2users?2nhv90?2projects?2eech?2ap@
  01ab4	8b 15 00 00 00
	00		 mov	 edx, DWORD PTR ?null_entity_pointer_message@@3PBDB ; null_entity_pointer_message
  01aba	52		 push	 edx
  01abb	e8 00 00 00 00	 call	 ?process_assert@@YGXPBD0H@Z ; process_assert
  01ac0	c7 85 c0 f8 ff
	ff 00 00 00 00	 mov	 DWORD PTR tv1061[ebp], 0
$LN283@process_re:
  01aca	b8 01 00 00 00	 mov	 eax, 1
  01acf	85 c0		 test	 eax, eax
  01ad1	74 0c		 je	 SHORT $LN284@process_re
  01ad3	c7 85 bc f8 ff
	ff 9c 00 00 00	 mov	 DWORD PTR tv1068[ebp], 156 ; 0000009cH
  01add	eb 20		 jmp	 SHORT $LN285@process_re
$LN284@process_re:
  01adf	68 e7 10 00 00	 push	 4327			; 000010e7H
  01ae4	68 00 00 00 00	 push	 OFFSET ??_C@_0EO@OCMIKFBI@c?3?2users?2nhv90?2projects?2eech?2ap@
  01ae9	8b 0d 00 00 00
	00		 mov	 ecx, DWORD PTR ?overload_invalid_int_type_message@@3PBDB ; overload_invalid_int_type_message
  01aef	51		 push	 ecx
  01af0	e8 00 00 00 00	 call	 ?process_assert@@YGXPBD0H@Z ; process_assert
  01af5	c7 85 bc f8 ff
	ff 00 00 00 00	 mov	 DWORD PTR tv1068[ebp], 0
$LN285@process_re:
  01aff	68 9c 00 00 00	 push	 156			; 0000009cH
  01b04	8b 95 30 fd ff
	ff		 mov	 edx, DWORD PTR _wingman$105[ebp]
  01b0a	52		 push	 edx
  01b0b	69 85 c0 f8 ff
	ff 5c 04 00 00	 imul	 eax, DWORD PTR tv1061[ebp], 1116
  01b15	8b 8d bc f8 ff
	ff		 mov	 ecx, DWORD PTR tv1068[ebp]
  01b1b	8b 94 88 00 00
	00 00		 mov	 edx, DWORD PTR ?fn_get_local_entity_int_value@@3PAY0BBH@P6GHPAUENTITY@@W4INT_TYPES@@@ZA[eax+ecx*4]
  01b22	ff d2		 call	 edx
  01b24	85 c0		 test	 eax, eax
  01b26	75 13		 jne	 SHORT $LN132@process_re

; 4328 : 						engage_specific_targets(wingman, targets);

  01b28	8d 85 ec fc ff
	ff		 lea	 eax, DWORD PTR _targets$104[ebp]
  01b2e	50		 push	 eax
  01b2f	8b 8d 30 fd ff
	ff		 mov	 ecx, DWORD PTR _wingman$105[ebp]
  01b35	51		 push	 ecx
  01b36	e8 00 00 00 00	 call	 ?engage_specific_targets@@YGXPAUENTITY@@QAPAU1@@Z ; engage_specific_targets
$LN132@process_re:

; 4329 : 				}
; 4330 : 
; 4331 : 				break;

  01b3b	e9 39 29 00 00	 jmp	 $LN4@process_re
$LN133@process_re:

; 4332 : 			}
; 4333 : 			////////////////////////////////////////
; 4334 : 			case ENTITY_COMMS_PILOT_REQUEST_ACCEPTED:
; 4335 : 			////////////////////////////////////////
; 4336 : 			{
; 4337 : 
; 4338 : 				entity
; 4339 : 					*en;
; 4340 : 	
; 4341 : 				int
; 4342 : 					pilot_index,
; 4343 : 					destination_id;
; 4344 : 				//
; 4345 : 				// (entity_comms_messages message, int destination_id, int index)
; 4346 : 				//
; 4347 : 
; 4348 : 				en = unpack_entity_safe_ptr ();

  01b40	e8 00 00 00 00	 call	 ?unpack_entity_safe_ptr@@YGPAUENTITY@@XZ ; unpack_entity_safe_ptr
  01b45	89 85 4c fc ff
	ff		 mov	 DWORD PTR _en$96[ebp], eax

; 4349 : 	
; 4350 : 				destination_id = unpack_int_value (en, INT_TYPE_VALUE);

  01b4b	68 f2 00 00 00	 push	 242			; 000000f2H
  01b50	8b 85 4c fc ff
	ff		 mov	 eax, DWORD PTR _en$96[ebp]
  01b56	50		 push	 eax
  01b57	e8 00 00 00 00	 call	 ?unpack_int_value@@YGHPAUENTITY@@W4INT_TYPES@@@Z ; unpack_int_value
  01b5c	89 85 44 fc ff
	ff		 mov	 DWORD PTR _destination_id$94[ebp], eax

; 4351 : 	
; 4352 : 				pilot_index = unpack_int_value (en, INT_TYPE_VALUE);

  01b62	68 f2 00 00 00	 push	 242			; 000000f2H
  01b67	8b 85 4c fc ff
	ff		 mov	 eax, DWORD PTR _en$96[ebp]
  01b6d	50		 push	 eax
  01b6e	e8 00 00 00 00	 call	 ?unpack_int_value@@YGHPAUENTITY@@W4INT_TYPES@@@Z ; unpack_int_value
  01b73	89 85 48 fc ff
	ff		 mov	 DWORD PTR _pilot_index$95[ebp], eax

; 4353 : 
; 4354 : 				//#if DEBUG_MODULE_MESSAGE_TEXT
; 4355 : 		
; 4356 : 				debug_log ("EN_COMMS: received Pilot request accepted to %d for entity %d", destination_id, pilot_index);

  01b79	8b 85 48 fc ff
	ff		 mov	 eax, DWORD PTR _pilot_index$95[ebp]
  01b7f	50		 push	 eax
  01b80	8b 8d 44 fc ff
	ff		 mov	 ecx, DWORD PTR _destination_id$94[ebp]
  01b86	51		 push	 ecx
  01b87	68 00 00 00 00	 push	 OFFSET ??_C@_0DO@PIAHAFOJ@EN_COMMS?3?5received?5Pilot?5reques@
  01b8c	e8 00 00 00 00	 call	 ?debug_log@@YAXPBDZZ	; debug_log
  01b91	83 c4 0c	 add	 esp, 12			; 0000000cH

; 4357 : 		
; 4358 : 				//#endif
; 4359 : 
; 4360 : 				if (destination_id == direct_play_get_player_id ())

  01b94	e8 00 00 00 00	 call	 ?direct_play_get_player_id@@YGHXZ ; direct_play_get_player_id
  01b99	39 85 44 fc ff
	ff		 cmp	 DWORD PTR _destination_id$94[ebp], eax
  01b9f	75 36		 jne	 SHORT $LN134@process_re

; 4361 : 				{
; 4362 : 
; 4363 : 					set_pilot_entity (get_local_entity_safe_ptr (pilot_index));

  01ba1	83 bd 48 fc ff
	ff ff		 cmp	 DWORD PTR _pilot_index$95[ebp], -1
  01ba8	74 17		 je	 SHORT $LN286@process_re
  01baa	8b 85 48 fc ff
	ff		 mov	 eax, DWORD PTR _pilot_index$95[ebp]
  01bb0	c1 e0 04	 shl	 eax, 4
  01bb3	03 05 00 00 00
	00		 add	 eax, DWORD PTR ?entities@@3PAUENTITY@@A ; entities
  01bb9	89 85 c0 f8 ff
	ff		 mov	 DWORD PTR tv1092[ebp], eax
  01bbf	eb 0a		 jmp	 SHORT $LN287@process_re
$LN286@process_re:
  01bc1	c7 85 c0 f8 ff
	ff 00 00 00 00	 mov	 DWORD PTR tv1092[ebp], 0
$LN287@process_re:
  01bcb	8b 8d c0 f8 ff
	ff		 mov	 ecx, DWORD PTR tv1092[ebp]
  01bd1	51		 push	 ecx
  01bd2	e8 00 00 00 00	 call	 ?set_pilot_entity@@YGXPAUENTITY@@@Z ; set_pilot_entity
$LN134@process_re:

; 4364 : 				}
; 4365 : 	
; 4366 : 				break;

  01bd7	e9 9d 28 00 00	 jmp	 $LN4@process_re
$LN135@process_re:

; 4367 : 			}
; 4368 : 			////////////////////////////////////////
; 4369 : 			case ENTITY_COMMS_PLAY_CPG_CONTACT_MESSAGE:
; 4370 : 			////////////////////////////////////////
; 4371 : 			{
; 4372 : 				entity
; 4373 : 					*en;
; 4374 : 
; 4375 : 				int
; 4376 : 					speech_index1,
; 4377 : 					speech_index2,
; 4378 : 					speech_index3;
; 4379 : 
; 4380 : 				//
; 4381 : 				// (entity_comms_messages message, entity *en, int speech_index1, int speech_index2, int speech_index3)
; 4382 : 				//
; 4383 : 
; 4384 : 				en = unpack_entity_safe_ptr ();

  01bdc	e8 00 00 00 00	 call	 ?unpack_entity_safe_ptr@@YGPAUENTITY@@XZ ; unpack_entity_safe_ptr
  01be1	89 85 40 fc ff
	ff		 mov	 DWORD PTR _en$93[ebp], eax

; 4385 : 
; 4386 : 				ASSERT (en);

  01be7	83 bd 40 fc ff
	ff 00		 cmp	 DWORD PTR _en$93[ebp], 0
  01bee	75 1a		 jne	 SHORT $LN136@process_re
  01bf0	a1 00 00 00 00	 mov	 eax, DWORD PTR ?__LINE__Var@?0??process_received_entity_comms_messages@@YGXXZ@4JA
  01bf5	05 d8 05 00 00	 add	 eax, 1496		; 000005d8H
  01bfa	50		 push	 eax
  01bfb	68 00 00 00 00	 push	 OFFSET ??_C@_0EO@OCMIKFBI@c?3?2users?2nhv90?2projects?2eech?2ap@
  01c00	68 00 00 00 00	 push	 OFFSET ??_C@_02LFNMGJAP@en@
  01c05	e8 00 00 00 00	 call	 ?process_assert@@YGXPBD0H@Z ; process_assert
$LN136@process_re:

; 4387 : 
; 4388 : 				speech_index1 = unpack_int_value (en, INT_TYPE_SPEECH_INDEX);

  01c0a	68 c9 00 00 00	 push	 201			; 000000c9H
  01c0f	8b 85 40 fc ff
	ff		 mov	 eax, DWORD PTR _en$93[ebp]
  01c15	50		 push	 eax
  01c16	e8 00 00 00 00	 call	 ?unpack_int_value@@YGHPAUENTITY@@W4INT_TYPES@@@Z ; unpack_int_value
  01c1b	89 85 3c fc ff
	ff		 mov	 DWORD PTR _speech_index1$92[ebp], eax

; 4389 : 
; 4390 : 				speech_index2 = unpack_int_value (en, INT_TYPE_SPEECH_INDEX);

  01c21	68 c9 00 00 00	 push	 201			; 000000c9H
  01c26	8b 85 40 fc ff
	ff		 mov	 eax, DWORD PTR _en$93[ebp]
  01c2c	50		 push	 eax
  01c2d	e8 00 00 00 00	 call	 ?unpack_int_value@@YGHPAUENTITY@@W4INT_TYPES@@@Z ; unpack_int_value
  01c32	89 85 38 fc ff
	ff		 mov	 DWORD PTR _speech_index2$91[ebp], eax

; 4391 : 
; 4392 : 				speech_index3 = unpack_int_value (en, INT_TYPE_SPEECH_INDEX);

  01c38	68 c9 00 00 00	 push	 201			; 000000c9H
  01c3d	8b 85 40 fc ff
	ff		 mov	 eax, DWORD PTR _en$93[ebp]
  01c43	50		 push	 eax
  01c44	e8 00 00 00 00	 call	 ?unpack_int_value@@YGHPAUENTITY@@W4INT_TYPES@@@Z ; unpack_int_value
  01c49	89 85 34 fc ff
	ff		 mov	 DWORD PTR _speech_index3$90[ebp], eax

; 4393 : 
; 4394 : 				if (get_comms_model () == COMMS_MODEL_SERVER)

  01c4f	83 3d 00 00 00
	00 00		 cmp	 DWORD PTR ?system_comms_model@@3W4COMMS_MODEL_TYPES@@A, 0 ; system_comms_model
  01c56	75 21		 jne	 SHORT $LN137@process_re

; 4395 : 				{
; 4396 : 					play_client_server_cpg_contact_message (en, speech_index1, speech_index2, speech_index3);

  01c58	8b 85 34 fc ff
	ff		 mov	 eax, DWORD PTR _speech_index3$90[ebp]
  01c5e	50		 push	 eax
  01c5f	8b 8d 38 fc ff
	ff		 mov	 ecx, DWORD PTR _speech_index2$91[ebp]
  01c65	51		 push	 ecx
  01c66	8b 95 3c fc ff
	ff		 mov	 edx, DWORD PTR _speech_index1$92[ebp]
  01c6c	52		 push	 edx
  01c6d	8b 85 40 fc ff
	ff		 mov	 eax, DWORD PTR _en$93[ebp]
  01c73	50		 push	 eax
  01c74	e8 00 00 00 00	 call	 ?play_client_server_cpg_contact_message@@YGHPAUENTITY@@HHH@Z ; play_client_server_cpg_contact_message
$LN137@process_re:

; 4397 : 				}
; 4398 : 
; 4399 : 				break;

  01c79	e9 fb 27 00 00	 jmp	 $LN4@process_re
$LN138@process_re:

; 4400 : 			}
; 4401 : 			////////////////////////////////////////
; 4402 : 			case ENTITY_COMMS_PLAY_CPG_MESSAGE:
; 4403 : 			////////////////////////////////////////
; 4404 : 			{
; 4405 : 				entity
; 4406 : 					*en;
; 4407 : 
; 4408 : 				int
; 4409 : 					speech_index,
; 4410 : 					speech_category;
; 4411 : 
; 4412 : 				float
; 4413 : 					priority,
; 4414 : 					expire_time,
; 4415 : 					category_silence_timer;
; 4416 : 
; 4417 : 				en = unpack_entity_safe_ptr ();

  01c7e	e8 00 00 00 00	 call	 ?unpack_entity_safe_ptr@@YGPAUENTITY@@XZ ; unpack_entity_safe_ptr
  01c83	89 85 30 fc ff
	ff		 mov	 DWORD PTR _en$89[ebp], eax

; 4418 : 
; 4419 : 				ASSERT (en);

  01c89	83 bd 30 fc ff
	ff 00		 cmp	 DWORD PTR _en$89[ebp], 0
  01c90	75 1a		 jne	 SHORT $LN139@process_re
  01c92	a1 00 00 00 00	 mov	 eax, DWORD PTR ?__LINE__Var@?0??process_received_entity_comms_messages@@YGXXZ@4JA
  01c97	05 f9 05 00 00	 add	 eax, 1529		; 000005f9H
  01c9c	50		 push	 eax
  01c9d	68 00 00 00 00	 push	 OFFSET ??_C@_0EO@OCMIKFBI@c?3?2users?2nhv90?2projects?2eech?2ap@
  01ca2	68 00 00 00 00	 push	 OFFSET ??_C@_02LFNMGJAP@en@
  01ca7	e8 00 00 00 00	 call	 ?process_assert@@YGXPBD0H@Z ; process_assert
$LN139@process_re:

; 4420 : 
; 4421 : 				priority = unpack_float_value (en, FLOAT_TYPE_SPEECH_PRIORITY);

  01cac	6a 7a		 push	 122			; 0000007aH
  01cae	8b 85 30 fc ff
	ff		 mov	 eax, DWORD PTR _en$89[ebp]
  01cb4	50		 push	 eax
  01cb5	e8 00 00 00 00	 call	 ?unpack_float_value@@YGMPAUENTITY@@W4FLOAT_TYPES@@@Z ; unpack_float_value
  01cba	d9 9d 24 fc ff
	ff		 fstp	 DWORD PTR _priority$86[ebp]

; 4422 : 
; 4423 : 				expire_time = unpack_float_value (en, FLOAT_TYPE_SPEECH_EXPIRE_TIME);

  01cc0	6a 79		 push	 121			; 00000079H
  01cc2	8b 85 30 fc ff
	ff		 mov	 eax, DWORD PTR _en$89[ebp]
  01cc8	50		 push	 eax
  01cc9	e8 00 00 00 00	 call	 ?unpack_float_value@@YGMPAUENTITY@@W4FLOAT_TYPES@@@Z ; unpack_float_value
  01cce	d9 9d 20 fc ff
	ff		 fstp	 DWORD PTR _expire_time$85[ebp]

; 4424 : 
; 4425 : 				speech_category = unpack_int_value (en, INT_TYPE_SPEECH_CATEGORY);

  01cd4	68 c8 00 00 00	 push	 200			; 000000c8H
  01cd9	8b 85 30 fc ff
	ff		 mov	 eax, DWORD PTR _en$89[ebp]
  01cdf	50		 push	 eax
  01ce0	e8 00 00 00 00	 call	 ?unpack_int_value@@YGHPAUENTITY@@W4INT_TYPES@@@Z ; unpack_int_value
  01ce5	89 85 28 fc ff
	ff		 mov	 DWORD PTR _speech_category$87[ebp], eax

; 4426 : 
; 4427 : 				category_silence_timer = unpack_float_value (en, FLOAT_TYPE_SPEECH_CATEGORY_SILENCE_TIMER);

  01ceb	6a 78		 push	 120			; 00000078H
  01ced	8b 85 30 fc ff
	ff		 mov	 eax, DWORD PTR _en$89[ebp]
  01cf3	50		 push	 eax
  01cf4	e8 00 00 00 00	 call	 ?unpack_float_value@@YGMPAUENTITY@@W4FLOAT_TYPES@@@Z ; unpack_float_value
  01cf9	d9 9d 1c fc ff
	ff		 fstp	 DWORD PTR _category_silence_timer$84[ebp]

; 4428 : 
; 4429 : 				speech_index = unpack_int_value (en, INT_TYPE_SPEECH_INDEX);

  01cff	68 c9 00 00 00	 push	 201			; 000000c9H
  01d04	8b 85 30 fc ff
	ff		 mov	 eax, DWORD PTR _en$89[ebp]
  01d0a	50		 push	 eax
  01d0b	e8 00 00 00 00	 call	 ?unpack_int_value@@YGHPAUENTITY@@W4INT_TYPES@@@Z ; unpack_int_value
  01d10	89 85 2c fc ff
	ff		 mov	 DWORD PTR _speech_index$88[ebp], eax

; 4430 : 
; 4431 : 				#if DEBUG_MODULE_MESSAGE_TEXT
; 4432 : 
; 4433 : 				debug_log ("EN_COMMS: received play cpg message for %s (%d)", get_local_entity_type_name (en), get_local_entity_index (en));
; 4434 : 
; 4435 : 				#endif
; 4436 : 
; 4437 : 				if (get_comms_model () == COMMS_MODEL_SERVER)

  01d16	83 3d 00 00 00
	00 00		 cmp	 DWORD PTR ?system_comms_model@@3W4COMMS_MODEL_TYPES@@A, 0 ; system_comms_model
  01d1d	75 44		 jne	 SHORT $LN140@process_re

; 4438 : 				{
; 4439 : 					play_client_server_cpg_message (en, priority, expire_time, speech_category, category_silence_timer, speech_index);

  01d1f	8b 85 2c fc ff
	ff		 mov	 eax, DWORD PTR _speech_index$88[ebp]
  01d25	50		 push	 eax
  01d26	51		 push	 ecx
  01d27	f3 0f 10 85 1c
	fc ff ff	 movss	 xmm0, DWORD PTR _category_silence_timer$84[ebp]
  01d2f	f3 0f 11 04 24	 movss	 DWORD PTR [esp], xmm0
  01d34	8b 8d 28 fc ff
	ff		 mov	 ecx, DWORD PTR _speech_category$87[ebp]
  01d3a	51		 push	 ecx
  01d3b	51		 push	 ecx
  01d3c	f3 0f 10 85 20
	fc ff ff	 movss	 xmm0, DWORD PTR _expire_time$85[ebp]
  01d44	f3 0f 11 04 24	 movss	 DWORD PTR [esp], xmm0
  01d49	51		 push	 ecx
  01d4a	f3 0f 10 85 24
	fc ff ff	 movss	 xmm0, DWORD PTR _priority$86[ebp]
  01d52	f3 0f 11 04 24	 movss	 DWORD PTR [esp], xmm0
  01d57	8b 95 30 fc ff
	ff		 mov	 edx, DWORD PTR _en$89[ebp]
  01d5d	52		 push	 edx
  01d5e	e8 00 00 00 00	 call	 ?play_client_server_cpg_message@@YGHPAUENTITY@@MMHMH@Z ; play_client_server_cpg_message
$LN140@process_re:

; 4440 : 				}
; 4441 : 
; 4442 : 				break;

  01d63	e9 11 27 00 00	 jmp	 $LN4@process_re
$LN141@process_re:

; 4443 : 			}
; 4444 : 			////////////////////////////////////////
; 4445 : 			case ENTITY_COMMS_PLAY_WARNING_MESSAGE:
; 4446 : 			////////////////////////////////////////
; 4447 : 			{
; 4448 : 				entity
; 4449 : 					*en;
; 4450 : 
; 4451 : 				int
; 4452 : 					speech_index;
; 4453 : 
; 4454 : 				en = unpack_entity_safe_ptr ();

  01d68	e8 00 00 00 00	 call	 ?unpack_entity_safe_ptr@@YGPAUENTITY@@XZ ; unpack_entity_safe_ptr
  01d6d	89 85 18 fc ff
	ff		 mov	 DWORD PTR _en$83[ebp], eax

; 4455 : 
; 4456 : 				ASSERT (en);

  01d73	83 bd 18 fc ff
	ff 00		 cmp	 DWORD PTR _en$83[ebp], 0
  01d7a	75 1a		 jne	 SHORT $LN142@process_re
  01d7c	a1 00 00 00 00	 mov	 eax, DWORD PTR ?__LINE__Var@?0??process_received_entity_comms_messages@@YGXXZ@4JA
  01d81	05 1e 06 00 00	 add	 eax, 1566		; 0000061eH
  01d86	50		 push	 eax
  01d87	68 00 00 00 00	 push	 OFFSET ??_C@_0EO@OCMIKFBI@c?3?2users?2nhv90?2projects?2eech?2ap@
  01d8c	68 00 00 00 00	 push	 OFFSET ??_C@_02LFNMGJAP@en@
  01d91	e8 00 00 00 00	 call	 ?process_assert@@YGXPBD0H@Z ; process_assert
$LN142@process_re:

; 4457 : 
; 4458 : 				speech_index = unpack_int_value (en, INT_TYPE_SPEECH_INDEX);

  01d96	68 c9 00 00 00	 push	 201			; 000000c9H
  01d9b	8b 85 18 fc ff
	ff		 mov	 eax, DWORD PTR _en$83[ebp]
  01da1	50		 push	 eax
  01da2	e8 00 00 00 00	 call	 ?unpack_int_value@@YGHPAUENTITY@@W4INT_TYPES@@@Z ; unpack_int_value
  01da7	89 85 14 fc ff
	ff		 mov	 DWORD PTR _speech_index$82[ebp], eax

; 4459 : 
; 4460 : 				#if DEBUG_MODULE_MESSAGE_TEXT
; 4461 : 
; 4462 : 				debug_log ("EN_COMMS: received play warning message for %s (%d)", get_local_entity_type_name (en), get_local_entity_index (en));
; 4463 : 
; 4464 : 				#endif
; 4465 : 
; 4466 : 				if (get_comms_model () == COMMS_MODEL_SERVER)

  01dad	83 3d 00 00 00
	00 00		 cmp	 DWORD PTR ?system_comms_model@@3W4COMMS_MODEL_TYPES@@A, 0 ; system_comms_model
  01db4	75 13		 jne	 SHORT $LN143@process_re

; 4467 : 				{
; 4468 : 					play_client_server_warning_message (en, speech_index);

  01db6	8b 85 14 fc ff
	ff		 mov	 eax, DWORD PTR _speech_index$82[ebp]
  01dbc	50		 push	 eax
  01dbd	8b 8d 18 fc ff
	ff		 mov	 ecx, DWORD PTR _en$83[ebp]
  01dc3	51		 push	 ecx
  01dc4	e8 00 00 00 00	 call	 ?play_client_server_warning_message@@YGHPAUENTITY@@H@Z ; play_client_server_warning_message
$LN143@process_re:

; 4469 : 				}
; 4470 : 
; 4471 : 				break;

  01dc9	e9 ab 26 00 00	 jmp	 $LN4@process_re
$LN144@process_re:

; 4472 : 			}
; 4473 : 			////////////////////////////////////////
; 4474 : 			case ENTITY_COMMS_PLAYER_KILL:
; 4475 : 			////////////////////////////////////////
; 4476 : 			{
; 4477 : 				entity
; 4478 : 					*aggressor,
; 4479 : 					*victim;
; 4480 : 
; 4481 : 				aggressor = unpack_entity_safe_ptr ();

  01dce	e8 00 00 00 00	 call	 ?unpack_entity_safe_ptr@@YGPAUENTITY@@XZ ; unpack_entity_safe_ptr
  01dd3	89 85 10 fc ff
	ff		 mov	 DWORD PTR _aggressor$81[ebp], eax

; 4482 : 
; 4483 : 				victim = unpack_entity_safe_ptr ();

  01dd9	e8 00 00 00 00	 call	 ?unpack_entity_safe_ptr@@YGPAUENTITY@@XZ ; unpack_entity_safe_ptr
  01dde	89 85 0c fc ff
	ff		 mov	 DWORD PTR _victim$80[ebp], eax

; 4484 : 
; 4485 : 				#if DEBUG_MODULE_MESSAGE_TEXT
; 4486 : 
; 4487 : 				debug_log ("EN_COMMS: received player kill for %s (%d)", get_local_entity_type_name (victim), get_local_entity_index (victim));
; 4488 : 
; 4489 : 				#endif
; 4490 : 
; 4491 : 				if ((get_local_entity_int_value (victim, INT_TYPE_PLAYER) == ENTITY_PLAYER_LOCAL) ||

  01de4	83 bd 0c fc ff
	ff 00		 cmp	 DWORD PTR _victim$80[ebp], 0
  01deb	74 10		 je	 SHORT $LN288@process_re
  01ded	8b 85 0c fc ff
	ff		 mov	 eax, DWORD PTR _victim$80[ebp]
  01df3	8b 08		 mov	 ecx, DWORD PTR [eax]
  01df5	89 8d c0 f8 ff
	ff		 mov	 DWORD PTR tv1161[ebp], ecx
  01dfb	eb 20		 jmp	 SHORT $LN289@process_re
$LN288@process_re:
  01dfd	68 8b 11 00 00	 push	 4491			; 0000118bH
  01e02	68 00 00 00 00	 push	 OFFSET ??_C@_0EO@OCMIKFBI@c?3?2users?2nhv90?2projects?2eech?2ap@
  01e07	8b 15 00 00 00
	00		 mov	 edx, DWORD PTR ?null_entity_pointer_message@@3PBDB ; null_entity_pointer_message
  01e0d	52		 push	 edx
  01e0e	e8 00 00 00 00	 call	 ?process_assert@@YGXPBD0H@Z ; process_assert
  01e13	c7 85 c0 f8 ff
	ff 00 00 00 00	 mov	 DWORD PTR tv1161[ebp], 0
$LN289@process_re:
  01e1d	b8 01 00 00 00	 mov	 eax, 1
  01e22	85 c0		 test	 eax, eax
  01e24	74 0c		 je	 SHORT $LN290@process_re
  01e26	c7 85 bc f8 ff
	ff 9c 00 00 00	 mov	 DWORD PTR tv1168[ebp], 156 ; 0000009cH
  01e30	eb 20		 jmp	 SHORT $LN291@process_re
$LN290@process_re:
  01e32	68 8b 11 00 00	 push	 4491			; 0000118bH
  01e37	68 00 00 00 00	 push	 OFFSET ??_C@_0EO@OCMIKFBI@c?3?2users?2nhv90?2projects?2eech?2ap@
  01e3c	8b 0d 00 00 00
	00		 mov	 ecx, DWORD PTR ?overload_invalid_int_type_message@@3PBDB ; overload_invalid_int_type_message
  01e42	51		 push	 ecx
  01e43	e8 00 00 00 00	 call	 ?process_assert@@YGXPBD0H@Z ; process_assert
  01e48	c7 85 bc f8 ff
	ff 00 00 00 00	 mov	 DWORD PTR tv1168[ebp], 0
$LN291@process_re:
  01e52	68 9c 00 00 00	 push	 156			; 0000009cH
  01e57	8b 95 0c fc ff
	ff		 mov	 edx, DWORD PTR _victim$80[ebp]
  01e5d	52		 push	 edx
  01e5e	69 85 c0 f8 ff
	ff 5c 04 00 00	 imul	 eax, DWORD PTR tv1161[ebp], 1116
  01e68	8b 8d bc f8 ff
	ff		 mov	 ecx, DWORD PTR tv1168[ebp]
  01e6e	8b 94 88 00 00
	00 00		 mov	 edx, DWORD PTR ?fn_get_local_entity_int_value@@3PAY0BBH@P6GHPAUENTITY@@W4INT_TYPES@@@ZA[eax+ecx*4]
  01e75	ff d2		 call	 edx
  01e77	83 f8 01	 cmp	 eax, 1
  01e7a	0f 84 a5 00 00
	00		 je	 $LN146@process_re
  01e80	83 bd 10 fc ff
	ff 00		 cmp	 DWORD PTR _aggressor$81[ebp], 0
  01e87	0f 84 b1 00 00
	00		 je	 $LN145@process_re
  01e8d	83 bd 10 fc ff
	ff 00		 cmp	 DWORD PTR _aggressor$81[ebp], 0
  01e94	74 10		 je	 SHORT $LN292@process_re
  01e96	8b 85 10 fc ff
	ff		 mov	 eax, DWORD PTR _aggressor$81[ebp]
  01e9c	8b 08		 mov	 ecx, DWORD PTR [eax]
  01e9e	89 8d c0 f8 ff
	ff		 mov	 DWORD PTR tv1181[ebp], ecx
  01ea4	eb 20		 jmp	 SHORT $LN293@process_re
$LN292@process_re:
  01ea6	68 8c 11 00 00	 push	 4492			; 0000118cH
  01eab	68 00 00 00 00	 push	 OFFSET ??_C@_0EO@OCMIKFBI@c?3?2users?2nhv90?2projects?2eech?2ap@
  01eb0	8b 15 00 00 00
	00		 mov	 edx, DWORD PTR ?null_entity_pointer_message@@3PBDB ; null_entity_pointer_message
  01eb6	52		 push	 edx
  01eb7	e8 00 00 00 00	 call	 ?process_assert@@YGXPBD0H@Z ; process_assert
  01ebc	c7 85 c0 f8 ff
	ff 00 00 00 00	 mov	 DWORD PTR tv1181[ebp], 0
$LN293@process_re:
  01ec6	b8 01 00 00 00	 mov	 eax, 1
  01ecb	85 c0		 test	 eax, eax
  01ecd	74 0c		 je	 SHORT $LN294@process_re
  01ecf	c7 85 bc f8 ff
	ff 9c 00 00 00	 mov	 DWORD PTR tv1188[ebp], 156 ; 0000009cH
  01ed9	eb 20		 jmp	 SHORT $LN295@process_re
$LN294@process_re:
  01edb	68 8c 11 00 00	 push	 4492			; 0000118cH
  01ee0	68 00 00 00 00	 push	 OFFSET ??_C@_0EO@OCMIKFBI@c?3?2users?2nhv90?2projects?2eech?2ap@
  01ee5	8b 0d 00 00 00
	00		 mov	 ecx, DWORD PTR ?overload_invalid_int_type_message@@3PBDB ; overload_invalid_int_type_message
  01eeb	51		 push	 ecx
  01eec	e8 00 00 00 00	 call	 ?process_assert@@YGXPBD0H@Z ; process_assert
  01ef1	c7 85 bc f8 ff
	ff 00 00 00 00	 mov	 DWORD PTR tv1188[ebp], 0
$LN295@process_re:
  01efb	68 9c 00 00 00	 push	 156			; 0000009cH
  01f00	8b 95 10 fc ff
	ff		 mov	 edx, DWORD PTR _aggressor$81[ebp]
  01f06	52		 push	 edx
  01f07	69 85 c0 f8 ff
	ff 5c 04 00 00	 imul	 eax, DWORD PTR tv1181[ebp], 1116
  01f11	8b 8d bc f8 ff
	ff		 mov	 ecx, DWORD PTR tv1188[ebp]
  01f17	8b 94 88 00 00
	00 00		 mov	 edx, DWORD PTR ?fn_get_local_entity_int_value@@3PAY0BBH@P6GHPAUENTITY@@W4INT_TYPES@@@ZA[eax+ecx*4]
  01f1e	ff d2		 call	 edx
  01f20	83 f8 01	 cmp	 eax, 1
  01f23	75 19		 jne	 SHORT $LN145@process_re
$LN146@process_re:

; 4492 : 					((aggressor) && (get_local_entity_int_value (aggressor, INT_TYPE_PLAYER) == ENTITY_PLAYER_LOCAL)))
; 4493 : 				{
; 4494 : 					inc_player_log_kills (get_global_gunship_side (), get_current_player_log (), victim);

  01f25	8b 85 0c fc ff
	ff		 mov	 eax, DWORD PTR _victim$80[ebp]
  01f2b	50		 push	 eax
  01f2c	e8 00 00 00 00	 call	 ?get_current_player_log@@YGPAUPLAYER_LOG_TYPE@@XZ ; get_current_player_log
  01f31	50		 push	 eax
  01f32	8b 0d 08 00 00
	00		 mov	 ecx, DWORD PTR ?global_options@@3UGLOBAL_OPTIONS_DATA@@A+8
  01f38	51		 push	 ecx
  01f39	e8 00 00 00 00	 call	 ?inc_player_log_kills@@YGXHPAUPLAYER_LOG_TYPE@@PAUENTITY@@@Z ; inc_player_log_kills
$LN145@process_re:

; 4495 : 				}
; 4496 : /*
; 4497 : 				if (victim == get_gunship_entity ())
; 4498 : 				{
; 4499 : 					start_game_exit (GAME_EXIT_CRASH, FALSE);
; 4500 : 				}
; 4501 : */
; 4502 : 				break;

  01f3e	e9 36 25 00 00	 jmp	 $LN4@process_re
$LN147@process_re:

; 4503 : 			}
; 4504 : 			////////////////////////////////////////
; 4505 : 			case ENTITY_COMMS_PLAYER_TASK_COMPLETED:
; 4506 : 			////////////////////////////////////////
; 4507 : 			{
; 4508 : 				entity
; 4509 : 					*task,
; 4510 : 					*en;
; 4511 : 
; 4512 : 				en = unpack_entity_safe_ptr ();

  01f43	e8 00 00 00 00	 call	 ?unpack_entity_safe_ptr@@YGPAUENTITY@@XZ ; unpack_entity_safe_ptr
  01f48	89 85 04 fc ff
	ff		 mov	 DWORD PTR _en$78[ebp], eax

; 4513 : 
; 4514 : 				task = unpack_entity_safe_ptr ();

  01f4e	e8 00 00 00 00	 call	 ?unpack_entity_safe_ptr@@YGPAUENTITY@@XZ ; unpack_entity_safe_ptr
  01f53	89 85 08 fc ff
	ff		 mov	 DWORD PTR _task$79[ebp], eax

; 4515 : 
; 4516 : 				ASSERT (en);

  01f59	83 bd 04 fc ff
	ff 00		 cmp	 DWORD PTR _en$78[ebp], 0
  01f60	75 1a		 jne	 SHORT $LN148@process_re
  01f62	a1 00 00 00 00	 mov	 eax, DWORD PTR ?__LINE__Var@?0??process_received_entity_comms_messages@@YGXXZ@4JA
  01f67	05 5a 06 00 00	 add	 eax, 1626		; 0000065aH
  01f6c	50		 push	 eax
  01f6d	68 00 00 00 00	 push	 OFFSET ??_C@_0EO@OCMIKFBI@c?3?2users?2nhv90?2projects?2eech?2ap@
  01f72	68 00 00 00 00	 push	 OFFSET ??_C@_02LFNMGJAP@en@
  01f77	e8 00 00 00 00	 call	 ?process_assert@@YGXPBD0H@Z ; process_assert
$LN148@process_re:

; 4517 : 
; 4518 : 				ASSERT (task);

  01f7c	83 bd 08 fc ff
	ff 00		 cmp	 DWORD PTR _task$79[ebp], 0
  01f83	75 1a		 jne	 SHORT $LN149@process_re
  01f85	a1 00 00 00 00	 mov	 eax, DWORD PTR ?__LINE__Var@?0??process_received_entity_comms_messages@@YGXXZ@4JA
  01f8a	05 5c 06 00 00	 add	 eax, 1628		; 0000065cH
  01f8f	50		 push	 eax
  01f90	68 00 00 00 00	 push	 OFFSET ??_C@_0EO@OCMIKFBI@c?3?2users?2nhv90?2projects?2eech?2ap@
  01f95	68 00 00 00 00	 push	 OFFSET ??_C@_04GGKLLKOO@task@
  01f9a	e8 00 00 00 00	 call	 ?process_assert@@YGXPBD0H@Z ; process_assert
$LN149@process_re:

; 4519 : 
; 4520 : //				#if DEBUG_MODULE_MESSAGE_TEXT
; 4521 : 
; 4522 : 				debug_log ("EN_COMMS: received player task %s (%d) completed for %s (%d)",

  01f9f	83 bd 04 fc ff
	ff 00		 cmp	 DWORD PTR _en$78[ebp], 0
  01fa6	74 17		 je	 SHORT $LN296@process_re
  01fa8	8b 85 04 fc ff
	ff		 mov	 eax, DWORD PTR _en$78[ebp]
  01fae	2b 05 00 00 00
	00		 sub	 eax, DWORD PTR ?entities@@3PAUENTITY@@A ; entities
  01fb4	c1 f8 04	 sar	 eax, 4
  01fb7	89 85 c0 f8 ff
	ff		 mov	 DWORD PTR tv1214[ebp], eax
  01fbd	eb 0a		 jmp	 SHORT $LN297@process_re
$LN296@process_re:
  01fbf	c7 85 c0 f8 ff
	ff ff ff ff ff	 mov	 DWORD PTR tv1214[ebp], -1
$LN297@process_re:
  01fc9	83 bd 04 fc ff
	ff 00		 cmp	 DWORD PTR _en$78[ebp], 0
  01fd0	74 10		 je	 SHORT $LN298@process_re
  01fd2	8b 8d 04 fc ff
	ff		 mov	 ecx, DWORD PTR _en$78[ebp]
  01fd8	8b 11		 mov	 edx, DWORD PTR [ecx]
  01fda	89 95 bc f8 ff
	ff		 mov	 DWORD PTR tv1222[ebp], edx
  01fe0	eb 26		 jmp	 SHORT $LN299@process_re
$LN298@process_re:
  01fe2	a1 00 00 00 00	 mov	 eax, DWORD PTR ?__LINE__Var@?0??process_received_entity_comms_messages@@YGXXZ@4JA
  01fe7	05 63 06 00 00	 add	 eax, 1635		; 00000663H
  01fec	50		 push	 eax
  01fed	68 00 00 00 00	 push	 OFFSET ??_C@_0EO@OCMIKFBI@c?3?2users?2nhv90?2projects?2eech?2ap@
  01ff2	8b 0d 00 00 00
	00		 mov	 ecx, DWORD PTR ?null_entity_pointer_message@@3PBDB ; null_entity_pointer_message
  01ff8	51		 push	 ecx
  01ff9	e8 00 00 00 00	 call	 ?process_assert@@YGXPBD0H@Z ; process_assert
  01ffe	c7 85 bc f8 ff
	ff 00 00 00 00	 mov	 DWORD PTR tv1222[ebp], 0
$LN299@process_re:
  02008	ba 01 00 00 00	 mov	 edx, 1
  0200d	85 d2		 test	 edx, edx
  0200f	74 0c		 je	 SHORT $LN300@process_re
  02011	c7 85 b8 f8 ff
	ff 03 00 00 00	 mov	 DWORD PTR tv1230[ebp], 3
  0201b	eb 26		 jmp	 SHORT $LN301@process_re
$LN300@process_re:
  0201d	a1 00 00 00 00	 mov	 eax, DWORD PTR ?__LINE__Var@?0??process_received_entity_comms_messages@@YGXXZ@4JA
  02022	05 63 06 00 00	 add	 eax, 1635		; 00000663H
  02027	50		 push	 eax
  02028	68 00 00 00 00	 push	 OFFSET ??_C@_0EO@OCMIKFBI@c?3?2users?2nhv90?2projects?2eech?2ap@
  0202d	8b 0d 00 00 00
	00		 mov	 ecx, DWORD PTR ?overload_invalid_string_type_message@@3PBDB ; overload_invalid_string_type_message
  02033	51		 push	 ecx
  02034	e8 00 00 00 00	 call	 ?process_assert@@YGXPBD0H@Z ; process_assert
  02039	c7 85 b8 f8 ff
	ff 00 00 00 00	 mov	 DWORD PTR tv1230[ebp], 0
$LN301@process_re:
  02043	83 bd 08 fc ff
	ff 00		 cmp	 DWORD PTR _task$79[ebp], 0
  0204a	74 17		 je	 SHORT $LN302@process_re
  0204c	8b 95 08 fc ff
	ff		 mov	 edx, DWORD PTR _task$79[ebp]
  02052	2b 15 00 00 00
	00		 sub	 edx, DWORD PTR ?entities@@3PAUENTITY@@A ; entities
  02058	c1 fa 04	 sar	 edx, 4
  0205b	89 95 b4 f8 ff
	ff		 mov	 DWORD PTR tv1240[ebp], edx
  02061	eb 0a		 jmp	 SHORT $LN303@process_re
$LN302@process_re:
  02063	c7 85 b4 f8 ff
	ff ff ff ff ff	 mov	 DWORD PTR tv1240[ebp], -1
$LN303@process_re:
  0206d	83 bd 08 fc ff
	ff 00		 cmp	 DWORD PTR _task$79[ebp], 0
  02074	74 10		 je	 SHORT $LN304@process_re
  02076	8b 85 08 fc ff
	ff		 mov	 eax, DWORD PTR _task$79[ebp]
