; Listing generated by Microsoft (R) Optimizing Compiler Version 19.16.27045.0 

	TITLE	C:\Users\nhv90\Projects\eech\aphavoc\source\entity\system\en_comms\en_comms.c
	.686P
	.XMM
	include listing.inc
	.model	flat

INCLUDELIB MSVCRTD
INCLUDELIB OLDNAMES

PUBLIC	?entity_comms_message_database@@3PAUENTITY_COMMS_MESSAGE_DATA@@A ; entity_comms_message_database
PUBLIC	??_C@_0BC@BAEMGHBC@ENTITY_COMMS_ZERO@		; `string'
PUBLIC	??_C@_0CC@NLAFMKFC@ENTITY_COMMS_ADD_PLANNER_WAYPOI@ ; `string'
PUBLIC	??_C@_0CD@NAGEICJO@ENTITY_COMMS_ADVISE_TRANSMIT_RE@ ; `string'
PUBLIC	??_C@_0BN@CKMAEBII@ENTITY_COMMS_ATTITUDE_ANGLES@ ; `string'
PUBLIC	??_C@_0BN@GBFOHEHI@ENTITY_COMMS_ATTITUDE_MATRIX@ ; `string'
PUBLIC	??_C@_0CA@NFDIOEHE@ENTITY_COMMS_CAMPAIGN_COMPLETED@ ; `string'
PUBLIC	??_C@_0BN@OFBPGCKM@ENTITY_COMMS_CAPTURE_KEYSITE@ ; `string'
PUBLIC	??_C@_0BI@KGDMNEFL@ENTITY_COMMS_CHAR_VALUE@	; `string'
PUBLIC	??_C@_0BE@JDBDHONH@ENTITY_COMMS_CREATE@		; `string'
PUBLIC	??_C@_0CD@EBIBKGKF@ENTITY_COMMS_CREATE_META_EXPLOS@ ; `string'
PUBLIC	??_C@_0DF@NBHPNIFF@ENTITY_COMMS_CREATE_META_SMOKE_@ ; `string'
PUBLIC	??_C@_0DG@MLBOLLNL@ENTITY_COMMS_CREATE_META_SMOKE_@ ; `string'
PUBLIC	??_C@_0CB@BNOKDDDF@ENTITY_COMMS_CREATE_SOUND_EFFEC@ ; `string'
PUBLIC	??_C@_0CD@OBKNILKG@ENTITY_COMMS_CREATE_WAYPOINT_RO@ ; `string'
PUBLIC	??_C@_0BL@FJLKIJMD@ENTITY_COMMS_CREATE_WEAPON@	; `string'
PUBLIC	??_C@_0BL@ILGPFNEF@ENTITY_COMMS_DAMAGE_PLAYER@	; `string'
PUBLIC	??_C@_0CE@IMBIAMAK@ENTITY_COMMS_DAMAGE_PLAYER_AVIO@ ; `string'
PUBLIC	??_C@_0CD@MAFIGLA@ENTITY_COMMS_DAMAGE_WEAPON_PACK@ ; `string'
PUBLIC	??_C@_0BF@IOJCDKDD@ENTITY_COMMS_DESTROY@	; `string'
PUBLIC	??_C@_0BM@KBHFEPGK@ENTITY_COMMS_DESTROY_FAMILY@	; `string'
PUBLIC	??_C@_0CC@BEGONDGM@ENTITY_COMMS_DESTROY_LOCAL_FAMI@ ; `string'
PUBLIC	??_C@_0BB@GIMJAJGE@ENTITY_COMMS_END@		; `string'
PUBLIC	??_C@_0BJ@MNGJFBAP@ENTITY_COMMS_FLOAT_VALUE@	; `string'
PUBLIC	??_C@_0BH@OJBBHGFP@ENTITY_COMMS_INT_VALUE@	; `string'
PUBLIC	??_C@_0BC@DKIPLLCB@ENTITY_COMMS_KILL@		; `string'
PUBLIC	??_C@_0BJ@JPJLMJFL@ENTITY_COMMS_MOBILE_KILL@	; `string'
PUBLIC	??_C@_0BJ@CDFCGDMC@ENTITY_COMMS_MOBILE_LAND@	; `string'
PUBLIC	??_C@_0BM@IKCOIJLG@ENTITY_COMMS_MOBILE_TAKEOFF@	; `string'
PUBLIC	??_C@_0CD@NOHMADOE@ENTITY_COMMS_MOVE_PLANNER_WAYPO@ ; `string'
PUBLIC	??_C@_0BO@DDBLOHLC@ENTITY_COMMS_PAUSE_SOUND_TYPE@ ; `string'
PUBLIC	??_C@_0CF@MPNINOHL@ENTITY_COMMS_PAUSE_WEAPON_SOUND@ ; `string'
PUBLIC	??_C@_0CB@IMCOMLOF@ENTITY_COMMS_PILOT_COMMUNICATIO@ ; `string'
PUBLIC	??_C@_0CA@PJHJKJMB@ENTITY_COMMS_PILOT_PFZ_TRANSFER@ ; `string'
PUBLIC	??_C@_0CE@BPOHHPCK@ENTITY_COMMS_PILOT_REQUEST_ACCE@ ; `string'
PUBLIC	??_C@_0CG@LAKLDEPI@ENTITY_COMMS_PLAY_CPG_CONTACT_M@ ; `string'
PUBLIC	??_C@_0BO@NPPHJDAP@ENTITY_COMMS_PLAY_CPG_MESSAGE@ ; `string'
PUBLIC	??_C@_0CC@PHIBJEDL@ENTITY_COMMS_PLAY_WARNING_MESSA@ ; `string'
PUBLIC	??_C@_0BJ@GOAPADFB@ENTITY_COMMS_PLAYER_KILL@	; `string'
PUBLIC	??_C@_0CD@OJKBALMO@ENTITY_COMMS_PLAYER_TASK_COMPLE@ ; `string'
PUBLIC	??_C@_0CE@JFJALBDN@ENTITY_COMMS_PLAYER_TASK_TERMIN@ ; `string'
PUBLIC	??_C@_0BL@GIDOKHEL@ENTITY_COMMS_RADIO_MESSAGE@	; `string'
PUBLIC	??_C@_0CI@NMFEHPP@ENTITY_COMMS_REPAIR_ANTI_AIRCRA@ ; `string'
PUBLIC	??_C@_0CC@OIJNGFBD@ENTITY_COMMS_REPAIR_BRIDGE_ENTI@ ; `string'
PUBLIC	??_C@_0CB@IMBAOKE@ENTITY_COMMS_REQUEST_TARGET_LIS@ ; `string'
PUBLIC	??_C@_0BM@IFFAJJFF@ENTITY_COMMS_RESTORE_ENTITY@	; `string'
PUBLIC	??_C@_0CC@BHFPJJBN@ENTITY_COMMS_RESTORE_FIXED_ENTI@ ; `string'
PUBLIC	??_C@_0BP@KMLAEFAI@ENTITY_COMMS_RESUME_SOUND_TYPE@ ; `string'
PUBLIC	??_C@_0CH@EJBGMHEM@ENTITY_COMMS_ROUTED_VEHICLE_ROU@ ; `string'
PUBLIC	??_C@_0BO@BPMNLAPG@ENTITY_COMMS_SEND_TARGET_LIST@ ; `string'
PUBLIC	??_C@_0CG@JNPGAFPD@ENTITY_COMMS_SET_EXTERNAL_VIEW_@ ; `string'
PUBLIC	??_C@_0CA@DFBCMJCM@ENTITY_COMMS_SET_GUIDE_CRITERIA@ ; `string'
PUBLIC	??_C@_0CH@JPOLAEHG@ENTITY_COMMS_SET_GUIDE_POSITION@ ; `string'
PUBLIC	??_C@_0BP@MNGLEKGG@ENTITY_COMMS_SET_TASK_POINTERS@ ; `string'
PUBLIC	??_C@_0BK@PBNAPCAB@ENTITY_COMMS_SET_WAYPOINT@	; `string'
PUBLIC	??_C@_0BM@FAMIBALJ@ENTITY_COMMS_SPEECH_MESSAGE@	; `string'
PUBLIC	??_C@_0BE@BGGHCGFN@ENTITY_COMMS_STRING@		; `string'
PUBLIC	??_C@_0BJ@FEFOFPIO@ENTITY_COMMS_SWITCH_LIST@	; `string'
PUBLIC	??_C@_0BL@GDOPPIPJ@ENTITY_COMMS_SWITCH_PARENT@	; `string'
PUBLIC	??_C@_0CB@MNFPAOIB@ENTITY_COMMS_TASK_ASSIGN_REQUES@ ; `string'
PUBLIC	??_C@_0CA@NOFOHJDA@ENTITY_COMMS_TASK_ASSIGN_RESULT@ ; `string'
PUBLIC	??_C@_0BH@OFPIJIPP@ENTITY_COMMS_TASK_KILL@	; `string'
PUBLIC	??_C@_0BH@KIJDPBOA@ENTITY_COMMS_TASK_LOSS@	; `string'
PUBLIC	??_C@_0BE@OHLFFPJI@ENTITY_COMMS_UPDATE@		; `string'
PUBLIC	??_C@_0BP@PHHFPKOH@ENTITY_COMMS_UPDATE_FOG_OF_WAR@ ; `string'
PUBLIC	??_C@_0CA@PFDDKMJO@ENTITY_COMMS_UPDATE_SECTOR_SIDE@ ; `string'
PUBLIC	??_C@_0CG@BNNIAKNO@ENTITY_COMMS_UPDATE_SECTOR_SIDE@ ; `string'
PUBLIC	??_C@_0BD@KFDANGJL@ENTITY_COMMS_VEC3D@		; `string'
PUBLIC	??_C@_0CD@INNBAGGM@ENTITY_COMMS_ZERO_DESIRED_VELOC@ ; `string'
PUBLIC	??_C@_0BL@HEGJAFJI@ENTITY_COMMS_ZERO_VELOCITY@	; `string'
;	COMDAT ??_C@_0BL@HEGJAFJI@ENTITY_COMMS_ZERO_VELOCITY@
CONST	SEGMENT
??_C@_0BL@HEGJAFJI@ENTITY_COMMS_ZERO_VELOCITY@ DB 'ENTITY_COMMS_ZERO_VELO'
	DB	'CITY', 00H					; `string'
CONST	ENDS
;	COMDAT ??_C@_0CD@INNBAGGM@ENTITY_COMMS_ZERO_DESIRED_VELOC@
CONST	SEGMENT
??_C@_0CD@INNBAGGM@ENTITY_COMMS_ZERO_DESIRED_VELOC@ DB 'ENTITY_COMMS_ZERO'
	DB	'_DESIRED_VELOCITY', 00H			; `string'
CONST	ENDS
;	COMDAT ??_C@_0BD@KFDANGJL@ENTITY_COMMS_VEC3D@
CONST	SEGMENT
??_C@_0BD@KFDANGJL@ENTITY_COMMS_VEC3D@ DB 'ENTITY_COMMS_VEC3D', 00H ; `string'
CONST	ENDS
;	COMDAT ??_C@_0CG@BNNIAKNO@ENTITY_COMMS_UPDATE_SECTOR_SIDE@
CONST	SEGMENT
??_C@_0CG@BNNIAKNO@ENTITY_COMMS_UPDATE_SECTOR_SIDE@ DB 'ENTITY_COMMS_UPDA'
	DB	'TE_SECTOR_SIDE_COUNT', 00H			; `string'
CONST	ENDS
;	COMDAT ??_C@_0CA@PFDDKMJO@ENTITY_COMMS_UPDATE_SECTOR_SIDE@
CONST	SEGMENT
??_C@_0CA@PFDDKMJO@ENTITY_COMMS_UPDATE_SECTOR_SIDE@ DB 'ENTITY_COMMS_UPDA'
	DB	'TE_SECTOR_SIDE', 00H			; `string'
CONST	ENDS
;	COMDAT ??_C@_0BP@PHHFPKOH@ENTITY_COMMS_UPDATE_FOG_OF_WAR@
CONST	SEGMENT
??_C@_0BP@PHHFPKOH@ENTITY_COMMS_UPDATE_FOG_OF_WAR@ DB 'ENTITY_COMMS_UPDAT'
	DB	'E_FOG_OF_WAR', 00H				; `string'
CONST	ENDS
;	COMDAT ??_C@_0BE@OHLFFPJI@ENTITY_COMMS_UPDATE@
CONST	SEGMENT
??_C@_0BE@OHLFFPJI@ENTITY_COMMS_UPDATE@ DB 'ENTITY_COMMS_UPDATE', 00H ; `string'
CONST	ENDS
;	COMDAT ??_C@_0BH@KIJDPBOA@ENTITY_COMMS_TASK_LOSS@
CONST	SEGMENT
??_C@_0BH@KIJDPBOA@ENTITY_COMMS_TASK_LOSS@ DB 'ENTITY_COMMS_TASK_LOSS', 00H ; `string'
CONST	ENDS
;	COMDAT ??_C@_0BH@OFPIJIPP@ENTITY_COMMS_TASK_KILL@
CONST	SEGMENT
??_C@_0BH@OFPIJIPP@ENTITY_COMMS_TASK_KILL@ DB 'ENTITY_COMMS_TASK_KILL', 00H ; `string'
CONST	ENDS
;	COMDAT ??_C@_0CA@NOFOHJDA@ENTITY_COMMS_TASK_ASSIGN_RESULT@
CONST	SEGMENT
??_C@_0CA@NOFOHJDA@ENTITY_COMMS_TASK_ASSIGN_RESULT@ DB 'ENTITY_COMMS_TASK'
	DB	'_ASSIGN_RESULT', 00H			; `string'
CONST	ENDS
;	COMDAT ??_C@_0CB@MNFPAOIB@ENTITY_COMMS_TASK_ASSIGN_REQUES@
CONST	SEGMENT
??_C@_0CB@MNFPAOIB@ENTITY_COMMS_TASK_ASSIGN_REQUES@ DB 'ENTITY_COMMS_TASK'
	DB	'_ASSIGN_REQUEST', 00H			; `string'
CONST	ENDS
;	COMDAT ??_C@_0BL@GDOPPIPJ@ENTITY_COMMS_SWITCH_PARENT@
CONST	SEGMENT
??_C@_0BL@GDOPPIPJ@ENTITY_COMMS_SWITCH_PARENT@ DB 'ENTITY_COMMS_SWITCH_PA'
	DB	'RENT', 00H					; `string'
CONST	ENDS
;	COMDAT ??_C@_0BJ@FEFOFPIO@ENTITY_COMMS_SWITCH_LIST@
CONST	SEGMENT
??_C@_0BJ@FEFOFPIO@ENTITY_COMMS_SWITCH_LIST@ DB 'ENTITY_COMMS_SWITCH_LIST'
	DB	00H						; `string'
CONST	ENDS
;	COMDAT ??_C@_0BE@BGGHCGFN@ENTITY_COMMS_STRING@
CONST	SEGMENT
??_C@_0BE@BGGHCGFN@ENTITY_COMMS_STRING@ DB 'ENTITY_COMMS_STRING', 00H ; `string'
CONST	ENDS
;	COMDAT ??_C@_0BM@FAMIBALJ@ENTITY_COMMS_SPEECH_MESSAGE@
CONST	SEGMENT
??_C@_0BM@FAMIBALJ@ENTITY_COMMS_SPEECH_MESSAGE@ DB 'ENTITY_COMMS_SPEECH_M'
	DB	'ESSAGE', 00H				; `string'
CONST	ENDS
;	COMDAT ??_C@_0BK@PBNAPCAB@ENTITY_COMMS_SET_WAYPOINT@
CONST	SEGMENT
??_C@_0BK@PBNAPCAB@ENTITY_COMMS_SET_WAYPOINT@ DB 'ENTITY_COMMS_SET_WAYPOI'
	DB	'NT', 00H					; `string'
CONST	ENDS
;	COMDAT ??_C@_0BP@MNGLEKGG@ENTITY_COMMS_SET_TASK_POINTERS@
CONST	SEGMENT
??_C@_0BP@MNGLEKGG@ENTITY_COMMS_SET_TASK_POINTERS@ DB 'ENTITY_COMMS_SET_T'
	DB	'ASK_POINTERS', 00H				; `string'
CONST	ENDS
;	COMDAT ??_C@_0CH@JPOLAEHG@ENTITY_COMMS_SET_GUIDE_POSITION@
CONST	SEGMENT
??_C@_0CH@JPOLAEHG@ENTITY_COMMS_SET_GUIDE_POSITION@ DB 'ENTITY_COMMS_SET_'
	DB	'GUIDE_POSITION_ENTITY', 00H			; `string'
CONST	ENDS
;	COMDAT ??_C@_0CA@DFBCMJCM@ENTITY_COMMS_SET_GUIDE_CRITERIA@
CONST	SEGMENT
??_C@_0CA@DFBCMJCM@ENTITY_COMMS_SET_GUIDE_CRITERIA@ DB 'ENTITY_COMMS_SET_'
	DB	'GUIDE_CRITERIA', 00H			; `string'
CONST	ENDS
;	COMDAT ??_C@_0CG@JNPGAFPD@ENTITY_COMMS_SET_EXTERNAL_VIEW_@
CONST	SEGMENT
??_C@_0CG@JNPGAFPD@ENTITY_COMMS_SET_EXTERNAL_VIEW_@ DB 'ENTITY_COMMS_SET_'
	DB	'EXTERNAL_VIEW_ENTITY', 00H			; `string'
CONST	ENDS
;	COMDAT ??_C@_0BO@BPMNLAPG@ENTITY_COMMS_SEND_TARGET_LIST@
CONST	SEGMENT
??_C@_0BO@BPMNLAPG@ENTITY_COMMS_SEND_TARGET_LIST@ DB 'ENTITY_COMMS_SEND_T'
	DB	'ARGET_LIST', 00H				; `string'
CONST	ENDS
;	COMDAT ??_C@_0CH@EJBGMHEM@ENTITY_COMMS_ROUTED_VEHICLE_ROU@
CONST	SEGMENT
??_C@_0CH@EJBGMHEM@ENTITY_COMMS_ROUTED_VEHICLE_ROU@ DB 'ENTITY_COMMS_ROUT'
	DB	'ED_VEHICLE_ROUTE_DATA', 00H			; `string'
CONST	ENDS
;	COMDAT ??_C@_0BP@KMLAEFAI@ENTITY_COMMS_RESUME_SOUND_TYPE@
CONST	SEGMENT
??_C@_0BP@KMLAEFAI@ENTITY_COMMS_RESUME_SOUND_TYPE@ DB 'ENTITY_COMMS_RESUM'
	DB	'E_SOUND_TYPE', 00H				; `string'
CONST	ENDS
;	COMDAT ??_C@_0CC@BHFPJJBN@ENTITY_COMMS_RESTORE_FIXED_ENTI@
CONST	SEGMENT
??_C@_0CC@BHFPJJBN@ENTITY_COMMS_RESTORE_FIXED_ENTI@ DB 'ENTITY_COMMS_REST'
	DB	'ORE_FIXED_ENTITY', 00H			; `string'
CONST	ENDS
;	COMDAT ??_C@_0BM@IFFAJJFF@ENTITY_COMMS_RESTORE_ENTITY@
CONST	SEGMENT
??_C@_0BM@IFFAJJFF@ENTITY_COMMS_RESTORE_ENTITY@ DB 'ENTITY_COMMS_RESTORE_'
	DB	'ENTITY', 00H				; `string'
CONST	ENDS
;	COMDAT ??_C@_0CB@IMBAOKE@ENTITY_COMMS_REQUEST_TARGET_LIS@
CONST	SEGMENT
??_C@_0CB@IMBAOKE@ENTITY_COMMS_REQUEST_TARGET_LIS@ DB 'ENTITY_COMMS_REQUE'
	DB	'ST_TARGET_LIST', 00H			; `string'
CONST	ENDS
;	COMDAT ??_C@_0CC@OIJNGFBD@ENTITY_COMMS_REPAIR_BRIDGE_ENTI@
CONST	SEGMENT
??_C@_0CC@OIJNGFBD@ENTITY_COMMS_REPAIR_BRIDGE_ENTI@ DB 'ENTITY_COMMS_REPA'
	DB	'IR_BRIDGE_ENTITY', 00H			; `string'
CONST	ENDS
;	COMDAT ??_C@_0CI@NMFEHPP@ENTITY_COMMS_REPAIR_ANTI_AIRCRA@
CONST	SEGMENT
??_C@_0CI@NMFEHPP@ENTITY_COMMS_REPAIR_ANTI_AIRCRA@ DB 'ENTITY_COMMS_REPAI'
	DB	'R_ANTI_AIRCRAFT_GROUP', 00H			; `string'
CONST	ENDS
;	COMDAT ??_C@_0BL@GIDOKHEL@ENTITY_COMMS_RADIO_MESSAGE@
CONST	SEGMENT
??_C@_0BL@GIDOKHEL@ENTITY_COMMS_RADIO_MESSAGE@ DB 'ENTITY_COMMS_RADIO_MES'
	DB	'SAGE', 00H					; `string'
CONST	ENDS
;	COMDAT ??_C@_0CE@JFJALBDN@ENTITY_COMMS_PLAYER_TASK_TERMIN@
CONST	SEGMENT
??_C@_0CE@JFJALBDN@ENTITY_COMMS_PLAYER_TASK_TERMIN@ DB 'ENTITY_COMMS_PLAY'
	DB	'ER_TASK_TERMINATED', 00H			; `string'
CONST	ENDS
;	COMDAT ??_C@_0CD@OJKBALMO@ENTITY_COMMS_PLAYER_TASK_COMPLE@
CONST	SEGMENT
??_C@_0CD@OJKBALMO@ENTITY_COMMS_PLAYER_TASK_COMPLE@ DB 'ENTITY_COMMS_PLAY'
	DB	'ER_TASK_COMPLETED', 00H			; `string'
CONST	ENDS
;	COMDAT ??_C@_0BJ@GOAPADFB@ENTITY_COMMS_PLAYER_KILL@
CONST	SEGMENT
??_C@_0BJ@GOAPADFB@ENTITY_COMMS_PLAYER_KILL@ DB 'ENTITY_COMMS_PLAYER_KILL'
	DB	00H						; `string'
CONST	ENDS
;	COMDAT ??_C@_0CC@PHIBJEDL@ENTITY_COMMS_PLAY_WARNING_MESSA@
CONST	SEGMENT
??_C@_0CC@PHIBJEDL@ENTITY_COMMS_PLAY_WARNING_MESSA@ DB 'ENTITY_COMMS_PLAY'
	DB	'_WARNING_MESSAGE', 00H			; `string'
CONST	ENDS
;	COMDAT ??_C@_0BO@NPPHJDAP@ENTITY_COMMS_PLAY_CPG_MESSAGE@
CONST	SEGMENT
??_C@_0BO@NPPHJDAP@ENTITY_COMMS_PLAY_CPG_MESSAGE@ DB 'ENTITY_COMMS_PLAY_C'
	DB	'PG_MESSAGE', 00H				; `string'
CONST	ENDS
;	COMDAT ??_C@_0CG@LAKLDEPI@ENTITY_COMMS_PLAY_CPG_CONTACT_M@
CONST	SEGMENT
??_C@_0CG@LAKLDEPI@ENTITY_COMMS_PLAY_CPG_CONTACT_M@ DB 'ENTITY_COMMS_PLAY'
	DB	'_CPG_CONTACT_MESSAGE', 00H			; `string'
CONST	ENDS
;	COMDAT ??_C@_0CE@BPOHHPCK@ENTITY_COMMS_PILOT_REQUEST_ACCE@
CONST	SEGMENT
??_C@_0CE@BPOHHPCK@ENTITY_COMMS_PILOT_REQUEST_ACCE@ DB 'ENTITY_COMMS_PILO'
	DB	'T_REQUEST_ACCEPTED', 00H			; `string'
CONST	ENDS
;	COMDAT ??_C@_0CA@PJHJKJMB@ENTITY_COMMS_PILOT_PFZ_TRANSFER@
CONST	SEGMENT
??_C@_0CA@PJHJKJMB@ENTITY_COMMS_PILOT_PFZ_TRANSFER@ DB 'ENTITY_COMMS_PILO'
	DB	'T_PFZ_TRANSFER', 00H			; `string'
CONST	ENDS
;	COMDAT ??_C@_0CB@IMCOMLOF@ENTITY_COMMS_PILOT_COMMUNICATIO@
CONST	SEGMENT
??_C@_0CB@IMCOMLOF@ENTITY_COMMS_PILOT_COMMUNICATIO@ DB 'ENTITY_COMMS_PILO'
	DB	'T_COMMUNICATION', 00H			; `string'
CONST	ENDS
;	COMDAT ??_C@_0CF@MPNINOHL@ENTITY_COMMS_PAUSE_WEAPON_SOUND@
CONST	SEGMENT
??_C@_0CF@MPNINOHL@ENTITY_COMMS_PAUSE_WEAPON_SOUND@ DB 'ENTITY_COMMS_PAUS'
	DB	'E_WEAPON_SOUND_TYPE', 00H			; `string'
CONST	ENDS
;	COMDAT ??_C@_0BO@DDBLOHLC@ENTITY_COMMS_PAUSE_SOUND_TYPE@
CONST	SEGMENT
??_C@_0BO@DDBLOHLC@ENTITY_COMMS_PAUSE_SOUND_TYPE@ DB 'ENTITY_COMMS_PAUSE_'
	DB	'SOUND_TYPE', 00H				; `string'
CONST	ENDS
;	COMDAT ??_C@_0CD@NOHMADOE@ENTITY_COMMS_MOVE_PLANNER_WAYPO@
CONST	SEGMENT
??_C@_0CD@NOHMADOE@ENTITY_COMMS_MOVE_PLANNER_WAYPO@ DB 'ENTITY_COMMS_MOVE'
	DB	'_PLANNER_WAYPOINT', 00H			; `string'
CONST	ENDS
;	COMDAT ??_C@_0BM@IKCOIJLG@ENTITY_COMMS_MOBILE_TAKEOFF@
CONST	SEGMENT
??_C@_0BM@IKCOIJLG@ENTITY_COMMS_MOBILE_TAKEOFF@ DB 'ENTITY_COMMS_MOBILE_T'
	DB	'AKEOFF', 00H				; `string'
CONST	ENDS
;	COMDAT ??_C@_0BJ@CDFCGDMC@ENTITY_COMMS_MOBILE_LAND@
CONST	SEGMENT
??_C@_0BJ@CDFCGDMC@ENTITY_COMMS_MOBILE_LAND@ DB 'ENTITY_COMMS_MOBILE_LAND'
	DB	00H						; `string'
CONST	ENDS
;	COMDAT ??_C@_0BJ@JPJLMJFL@ENTITY_COMMS_MOBILE_KILL@
CONST	SEGMENT
??_C@_0BJ@JPJLMJFL@ENTITY_COMMS_MOBILE_KILL@ DB 'ENTITY_COMMS_MOBILE_KILL'
	DB	00H						; `string'
CONST	ENDS
;	COMDAT ??_C@_0BC@DKIPLLCB@ENTITY_COMMS_KILL@
CONST	SEGMENT
??_C@_0BC@DKIPLLCB@ENTITY_COMMS_KILL@ DB 'ENTITY_COMMS_KILL', 00H ; `string'
CONST	ENDS
;	COMDAT ??_C@_0BH@OJBBHGFP@ENTITY_COMMS_INT_VALUE@
CONST	SEGMENT
??_C@_0BH@OJBBHGFP@ENTITY_COMMS_INT_VALUE@ DB 'ENTITY_COMMS_INT_VALUE', 00H ; `string'
CONST	ENDS
;	COMDAT ??_C@_0BJ@MNGJFBAP@ENTITY_COMMS_FLOAT_VALUE@
CONST	SEGMENT
??_C@_0BJ@MNGJFBAP@ENTITY_COMMS_FLOAT_VALUE@ DB 'ENTITY_COMMS_FLOAT_VALUE'
	DB	00H						; `string'
CONST	ENDS
;	COMDAT ??_C@_0BB@GIMJAJGE@ENTITY_COMMS_END@
CONST	SEGMENT
??_C@_0BB@GIMJAJGE@ENTITY_COMMS_END@ DB 'ENTITY_COMMS_END', 00H ; `string'
CONST	ENDS
;	COMDAT ??_C@_0CC@BEGONDGM@ENTITY_COMMS_DESTROY_LOCAL_FAMI@
CONST	SEGMENT
??_C@_0CC@BEGONDGM@ENTITY_COMMS_DESTROY_LOCAL_FAMI@ DB 'ENTITY_COMMS_DEST'
	DB	'ROY_LOCAL_FAMILY', 00H			; `string'
CONST	ENDS
;	COMDAT ??_C@_0BM@KBHFEPGK@ENTITY_COMMS_DESTROY_FAMILY@
CONST	SEGMENT
??_C@_0BM@KBHFEPGK@ENTITY_COMMS_DESTROY_FAMILY@ DB 'ENTITY_COMMS_DESTROY_'
	DB	'FAMILY', 00H				; `string'
CONST	ENDS
;	COMDAT ??_C@_0BF@IOJCDKDD@ENTITY_COMMS_DESTROY@
CONST	SEGMENT
??_C@_0BF@IOJCDKDD@ENTITY_COMMS_DESTROY@ DB 'ENTITY_COMMS_DESTROY', 00H ; `string'
CONST	ENDS
;	COMDAT ??_C@_0CD@MAFIGLA@ENTITY_COMMS_DAMAGE_WEAPON_PACK@
CONST	SEGMENT
??_C@_0CD@MAFIGLA@ENTITY_COMMS_DAMAGE_WEAPON_PACK@ DB 'ENTITY_COMMS_DAMAG'
	DB	'E_WEAPON_PACKAGE', 00H			; `string'
CONST	ENDS
;	COMDAT ??_C@_0CE@IMBIAMAK@ENTITY_COMMS_DAMAGE_PLAYER_AVIO@
CONST	SEGMENT
??_C@_0CE@IMBIAMAK@ENTITY_COMMS_DAMAGE_PLAYER_AVIO@ DB 'ENTITY_COMMS_DAMA'
	DB	'GE_PLAYER_AVIONICS', 00H			; `string'
CONST	ENDS
;	COMDAT ??_C@_0BL@ILGPFNEF@ENTITY_COMMS_DAMAGE_PLAYER@
CONST	SEGMENT
??_C@_0BL@ILGPFNEF@ENTITY_COMMS_DAMAGE_PLAYER@ DB 'ENTITY_COMMS_DAMAGE_PL'
	DB	'AYER', 00H					; `string'
CONST	ENDS
;	COMDAT ??_C@_0BL@FJLKIJMD@ENTITY_COMMS_CREATE_WEAPON@
CONST	SEGMENT
??_C@_0BL@FJLKIJMD@ENTITY_COMMS_CREATE_WEAPON@ DB 'ENTITY_COMMS_CREATE_WE'
	DB	'APON', 00H					; `string'
CONST	ENDS
;	COMDAT ??_C@_0CD@OBKNILKG@ENTITY_COMMS_CREATE_WAYPOINT_RO@
CONST	SEGMENT
??_C@_0CD@OBKNILKG@ENTITY_COMMS_CREATE_WAYPOINT_RO@ DB 'ENTITY_COMMS_CREA'
	DB	'TE_WAYPOINT_ROUTE', 00H			; `string'
CONST	ENDS
;	COMDAT ??_C@_0CB@BNOKDDDF@ENTITY_COMMS_CREATE_SOUND_EFFEC@
CONST	SEGMENT
??_C@_0CB@BNOKDDDF@ENTITY_COMMS_CREATE_SOUND_EFFEC@ DB 'ENTITY_COMMS_CREA'
	DB	'TE_SOUND_EFFECT', 00H			; `string'
CONST	ENDS
;	COMDAT ??_C@_0DG@MLBOLLNL@ENTITY_COMMS_CREATE_META_SMOKE_@
CONST	SEGMENT
??_C@_0DG@MLBOLLNL@ENTITY_COMMS_CREATE_META_SMOKE_@ DB 'ENTITY_COMMS_CREA'
	DB	'TE_META_SMOKE_LIST_SUB_OBJECT_OFFSET', 00H	; `string'
CONST	ENDS
;	COMDAT ??_C@_0DF@NBHPNIFF@ENTITY_COMMS_CREATE_META_SMOKE_@
CONST	SEGMENT
??_C@_0DF@NBHPNIFF@ENTITY_COMMS_CREATE_META_SMOKE_@ DB 'ENTITY_COMMS_CREA'
	DB	'TE_META_SMOKE_LIST_SPECIFIED_OFFSET', 00H	; `string'
CONST	ENDS
;	COMDAT ??_C@_0CD@EBIBKGKF@ENTITY_COMMS_CREATE_META_EXPLOS@
CONST	SEGMENT
??_C@_0CD@EBIBKGKF@ENTITY_COMMS_CREATE_META_EXPLOS@ DB 'ENTITY_COMMS_CREA'
	DB	'TE_META_EXPLOSION', 00H			; `string'
CONST	ENDS
;	COMDAT ??_C@_0BE@JDBDHONH@ENTITY_COMMS_CREATE@
CONST	SEGMENT
??_C@_0BE@JDBDHONH@ENTITY_COMMS_CREATE@ DB 'ENTITY_COMMS_CREATE', 00H ; `string'
CONST	ENDS
;	COMDAT ??_C@_0BI@KGDMNEFL@ENTITY_COMMS_CHAR_VALUE@
CONST	SEGMENT
??_C@_0BI@KGDMNEFL@ENTITY_COMMS_CHAR_VALUE@ DB 'ENTITY_COMMS_CHAR_VALUE', 00H ; `string'
CONST	ENDS
;	COMDAT ??_C@_0BN@OFBPGCKM@ENTITY_COMMS_CAPTURE_KEYSITE@
CONST	SEGMENT
??_C@_0BN@OFBPGCKM@ENTITY_COMMS_CAPTURE_KEYSITE@ DB 'ENTITY_COMMS_CAPTURE'
	DB	'_KEYSITE', 00H				; `string'
CONST	ENDS
;	COMDAT ??_C@_0CA@NFDIOEHE@ENTITY_COMMS_CAMPAIGN_COMPLETED@
CONST	SEGMENT
??_C@_0CA@NFDIOEHE@ENTITY_COMMS_CAMPAIGN_COMPLETED@ DB 'ENTITY_COMMS_CAMP'
	DB	'AIGN_COMPLETED', 00H			; `string'
CONST	ENDS
;	COMDAT ??_C@_0BN@GBFOHEHI@ENTITY_COMMS_ATTITUDE_MATRIX@
CONST	SEGMENT
??_C@_0BN@GBFOHEHI@ENTITY_COMMS_ATTITUDE_MATRIX@ DB 'ENTITY_COMMS_ATTITUD'
	DB	'E_MATRIX', 00H				; `string'
CONST	ENDS
;	COMDAT ??_C@_0BN@CKMAEBII@ENTITY_COMMS_ATTITUDE_ANGLES@
CONST	SEGMENT
??_C@_0BN@CKMAEBII@ENTITY_COMMS_ATTITUDE_ANGLES@ DB 'ENTITY_COMMS_ATTITUD'
	DB	'E_ANGLES', 00H				; `string'
CONST	ENDS
;	COMDAT ??_C@_0CD@NAGEICJO@ENTITY_COMMS_ADVISE_TRANSMIT_RE@
CONST	SEGMENT
??_C@_0CD@NAGEICJO@ENTITY_COMMS_ADVISE_TRANSMIT_RE@ DB 'ENTITY_COMMS_ADVI'
	DB	'SE_TRANSMIT_RECON', 00H			; `string'
CONST	ENDS
;	COMDAT ??_C@_0CC@NLAFMKFC@ENTITY_COMMS_ADD_PLANNER_WAYPOI@
CONST	SEGMENT
??_C@_0CC@NLAFMKFC@ENTITY_COMMS_ADD_PLANNER_WAYPOI@ DB 'ENTITY_COMMS_ADD_'
	DB	'PLANNER_WAYPOINT', 00H			; `string'
CONST	ENDS
;	COMDAT ??_C@_0BC@BAEMGHBC@ENTITY_COMMS_ZERO@
CONST	SEGMENT
??_C@_0BC@BAEMGHBC@ENTITY_COMMS_ZERO@ DB 'ENTITY_COMMS_ZERO', 00H ; `string'
CONST	ENDS
_DATA	SEGMENT
?entity_comms_message_database@@3PAUENTITY_COMMS_MESSAGE_DATA@@A DD FLAT:??_C@_0BC@BAEMGHBC@ENTITY_COMMS_ZERO@ ; entity_comms_message_database
	DD	00H
	DD	FLAT:??_C@_0CC@NLAFMKFC@ENTITY_COMMS_ADD_PLANNER_WAYPOI@
	DD	00H
	DD	FLAT:??_C@_0CD@NAGEICJO@ENTITY_COMMS_ADVISE_TRANSMIT_RE@
	DD	00H
	DD	FLAT:??_C@_0BN@CKMAEBII@ENTITY_COMMS_ATTITUDE_ANGLES@
	DD	00H
	DD	FLAT:??_C@_0BN@GBFOHEHI@ENTITY_COMMS_ATTITUDE_MATRIX@
	DD	00H
	DD	FLAT:??_C@_0CA@NFDIOEHE@ENTITY_COMMS_CAMPAIGN_COMPLETED@
	DD	00H
	DD	FLAT:??_C@_0BN@OFBPGCKM@ENTITY_COMMS_CAPTURE_KEYSITE@
	DD	00H
	DD	FLAT:??_C@_0BI@KGDMNEFL@ENTITY_COMMS_CHAR_VALUE@
	DD	00H
	DD	FLAT:??_C@_0BE@JDBDHONH@ENTITY_COMMS_CREATE@
	DD	00H
	DD	FLAT:??_C@_0CD@EBIBKGKF@ENTITY_COMMS_CREATE_META_EXPLOS@
	DD	00H
	DD	FLAT:??_C@_0DF@NBHPNIFF@ENTITY_COMMS_CREATE_META_SMOKE_@
	DD	00H
	DD	FLAT:??_C@_0DG@MLBOLLNL@ENTITY_COMMS_CREATE_META_SMOKE_@
	DD	00H
	DD	FLAT:??_C@_0CB@BNOKDDDF@ENTITY_COMMS_CREATE_SOUND_EFFEC@
	DD	00H
	DD	FLAT:??_C@_0CD@OBKNILKG@ENTITY_COMMS_CREATE_WAYPOINT_RO@
	DD	00H
	DD	FLAT:??_C@_0BL@FJLKIJMD@ENTITY_COMMS_CREATE_WEAPON@
	DD	00H
	DD	FLAT:??_C@_0BL@ILGPFNEF@ENTITY_COMMS_DAMAGE_PLAYER@
	DD	00H
	DD	FLAT:??_C@_0CE@IMBIAMAK@ENTITY_COMMS_DAMAGE_PLAYER_AVIO@
	DD	00H
	DD	FLAT:??_C@_0CD@MAFIGLA@ENTITY_COMMS_DAMAGE_WEAPON_PACK@
	DD	00H
	DD	FLAT:??_C@_0BF@IOJCDKDD@ENTITY_COMMS_DESTROY@
	DD	00H
	DD	FLAT:??_C@_0BM@KBHFEPGK@ENTITY_COMMS_DESTROY_FAMILY@
	DD	00H
	DD	FLAT:??_C@_0CC@BEGONDGM@ENTITY_COMMS_DESTROY_LOCAL_FAMI@
	DD	00H
	DD	FLAT:??_C@_0BB@GIMJAJGE@ENTITY_COMMS_END@
	DD	00H
	DD	FLAT:??_C@_0BJ@MNGJFBAP@ENTITY_COMMS_FLOAT_VALUE@
	DD	00H
	DD	FLAT:??_C@_0BH@OJBBHGFP@ENTITY_COMMS_INT_VALUE@
	DD	00H
	DD	FLAT:??_C@_0BC@DKIPLLCB@ENTITY_COMMS_KILL@
	DD	00H
	DD	FLAT:??_C@_0BJ@JPJLMJFL@ENTITY_COMMS_MOBILE_KILL@
	DD	00H
	DD	FLAT:??_C@_0BJ@CDFCGDMC@ENTITY_COMMS_MOBILE_LAND@
	DD	00H
	DD	FLAT:??_C@_0BM@IKCOIJLG@ENTITY_COMMS_MOBILE_TAKEOFF@
	DD	00H
	DD	FLAT:??_C@_0CD@NOHMADOE@ENTITY_COMMS_MOVE_PLANNER_WAYPO@
	DD	00H
	DD	FLAT:??_C@_0BO@DDBLOHLC@ENTITY_COMMS_PAUSE_SOUND_TYPE@
	DD	00H
	DD	FLAT:??_C@_0CF@MPNINOHL@ENTITY_COMMS_PAUSE_WEAPON_SOUND@
	DD	00H
	DD	FLAT:??_C@_0CB@IMCOMLOF@ENTITY_COMMS_PILOT_COMMUNICATIO@
	DD	00H
	DD	FLAT:??_C@_0CA@PJHJKJMB@ENTITY_COMMS_PILOT_PFZ_TRANSFER@
	DD	00H
	DD	FLAT:??_C@_0CE@BPOHHPCK@ENTITY_COMMS_PILOT_REQUEST_ACCE@
	DD	00H
	DD	FLAT:??_C@_0CG@LAKLDEPI@ENTITY_COMMS_PLAY_CPG_CONTACT_M@
	DD	00H
	DD	FLAT:??_C@_0BO@NPPHJDAP@ENTITY_COMMS_PLAY_CPG_MESSAGE@
	DD	00H
	DD	FLAT:??_C@_0CC@PHIBJEDL@ENTITY_COMMS_PLAY_WARNING_MESSA@
	DD	00H
	DD	FLAT:??_C@_0BJ@GOAPADFB@ENTITY_COMMS_PLAYER_KILL@
	DD	00H
	DD	FLAT:??_C@_0CD@OJKBALMO@ENTITY_COMMS_PLAYER_TASK_COMPLE@
	DD	00H
	DD	FLAT:??_C@_0CE@JFJALBDN@ENTITY_COMMS_PLAYER_TASK_TERMIN@
	DD	00H
	DD	FLAT:??_C@_0BL@GIDOKHEL@ENTITY_COMMS_RADIO_MESSAGE@
	DD	00H
	DD	FLAT:??_C@_0CI@NMFEHPP@ENTITY_COMMS_REPAIR_ANTI_AIRCRA@
	DD	00H
	DD	FLAT:??_C@_0CC@OIJNGFBD@ENTITY_COMMS_REPAIR_BRIDGE_ENTI@
	DD	00H
	DD	FLAT:??_C@_0CB@IMBAOKE@ENTITY_COMMS_REQUEST_TARGET_LIS@
	DD	00H
	DD	FLAT:??_C@_0BM@IFFAJJFF@ENTITY_COMMS_RESTORE_ENTITY@
	DD	00H
	DD	FLAT:??_C@_0CC@BHFPJJBN@ENTITY_COMMS_RESTORE_FIXED_ENTI@
	DD	00H
	DD	FLAT:??_C@_0BP@KMLAEFAI@ENTITY_COMMS_RESUME_SOUND_TYPE@
	DD	00H
	DD	FLAT:??_C@_0CH@EJBGMHEM@ENTITY_COMMS_ROUTED_VEHICLE_ROU@
	DD	00H
	DD	FLAT:??_C@_0BO@BPMNLAPG@ENTITY_COMMS_SEND_TARGET_LIST@
	DD	00H
	DD	FLAT:??_C@_0CG@JNPGAFPD@ENTITY_COMMS_SET_EXTERNAL_VIEW_@
	DD	00H
	DD	FLAT:??_C@_0CA@DFBCMJCM@ENTITY_COMMS_SET_GUIDE_CRITERIA@
	DD	00H
	DD	FLAT:??_C@_0CH@JPOLAEHG@ENTITY_COMMS_SET_GUIDE_POSITION@
	DD	00H
	DD	FLAT:??_C@_0BP@MNGLEKGG@ENTITY_COMMS_SET_TASK_POINTERS@
	DD	00H
	DD	FLAT:??_C@_0BK@PBNAPCAB@ENTITY_COMMS_SET_WAYPOINT@
	DD	00H
	DD	FLAT:??_C@_0BM@FAMIBALJ@ENTITY_COMMS_SPEECH_MESSAGE@
	DD	00H
	DD	FLAT:??_C@_0BE@BGGHCGFN@ENTITY_COMMS_STRING@
	DD	00H
	DD	FLAT:??_C@_0BJ@FEFOFPIO@ENTITY_COMMS_SWITCH_LIST@
	DD	00H
	DD	FLAT:??_C@_0BL@GDOPPIPJ@ENTITY_COMMS_SWITCH_PARENT@
	DD	00H
	DD	FLAT:??_C@_0CB@MNFPAOIB@ENTITY_COMMS_TASK_ASSIGN_REQUES@
	DD	00H
	DD	FLAT:??_C@_0CA@NOFOHJDA@ENTITY_COMMS_TASK_ASSIGN_RESULT@
	DD	00H
	DD	FLAT:??_C@_0BH@OFPIJIPP@ENTITY_COMMS_TASK_KILL@
	DD	00H
	DD	FLAT:??_C@_0BH@KIJDPBOA@ENTITY_COMMS_TASK_LOSS@
	DD	00H
	DD	FLAT:??_C@_0BE@OHLFFPJI@ENTITY_COMMS_UPDATE@
	DD	00H
	DD	FLAT:??_C@_0BP@PHHFPKOH@ENTITY_COMMS_UPDATE_FOG_OF_WAR@
	DD	00H
	DD	FLAT:??_C@_0CA@PFDDKMJO@ENTITY_COMMS_UPDATE_SECTOR_SIDE@
	DD	00H
	DD	FLAT:??_C@_0CG@BNNIAKNO@ENTITY_COMMS_UPDATE_SECTOR_SIDE@
	DD	00H
	DD	FLAT:??_C@_0BD@KFDANGJL@ENTITY_COMMS_VEC3D@
	DD	00H
	DD	FLAT:??_C@_0CD@INNBAGGM@ENTITY_COMMS_ZERO_DESIRED_VELOC@
	DD	00H
	DD	FLAT:??_C@_0BL@HEGJAFJI@ENTITY_COMMS_ZERO_VELOCITY@
	DD	00H
_DATA	ENDS
PUBLIC	___local_stdio_printf_options
PUBLIC	__vsnprintf_l
PUBLIC	__vsprintf_l
PUBLIC	_sprintf
PUBLIC	?enable_entity_comms_messages@@YGXXZ		; enable_entity_comms_messages
PUBLIC	?disable_entity_comms_messages@@YGXXZ		; disable_entity_comms_messages
PUBLIC	?transmit_entity_comms_message@@YAXW4ENTITY_COMMS_MESSAGES@@PAUENTITY@@ZZ ; transmit_entity_comms_message
PUBLIC	?transmit_pfz@@YGXPAUENTITY@@0MMMMMMMMQAPAU1@@Z	; transmit_pfz
PUBLIC	?process_received_entity_comms_messages@@YGXXZ	; process_received_entity_comms_messages
PUBLIC	?pack_entity_comms_message@@YGXW4ENTITY_COMMS_MESSAGES@@@Z ; pack_entity_comms_message
PUBLIC	?unpack_entity_comms_message@@YG?AW4ENTITY_COMMS_MESSAGES@@XZ ; unpack_entity_comms_message
PUBLIC	??$min@H@std@@YGABHABH0@Z			; std::min<int>
PUBLIC	?_OptionsStorage@?1??__local_stdio_printf_options@@9@4_KA ; `__local_stdio_printf_options'::`2'::_OptionsStorage
PUBLIC	??_C@_02DKCKIIND@?$CFs@				; `string'
PUBLIC	??_C@_0CC@ONCEHADK@Setting?5comms?5messages?5to?5ENABL@ ; `string'
PUBLIC	??_C@_0CD@PKGFAOAM@Setting?5comms?5messages?5to?5DISAB@ ; `string'
PUBLIC	?__LINE__Var@?0??transmit_entity_comms_message@@YAXW4ENTITY_COMMS_MESSAGES@@PAUENTITY@@ZZ@4JA ; `transmit_entity_comms_message'::`1'::__LINE__Var
PUBLIC	??_C@_0CO@GJCCLBOC@ENTITY_COMMS_ZERO?5encountered?5d@ ; `string'
PUBLIC	??_C@_0EO@OCMIKFBI@c?3?2users?2nhv90?2projects?2eech?2ap@ ; `string'
PUBLIC	??_C@_02LFNMGJAP@en@				; `string'
PUBLIC	??_C@_0CJ@DMBLBJBK@get_comms_model?5?$CI?$CJ?5?$DN?$DN?5COMMS_MOD@ ; `string'
PUBLIC	??_C@_03HDFHKHFK@?$CBen@			; `string'
PUBLIC	??_C@_08EAFLGIKM@launcher@			; `string'
PUBLIC	??_C@_0CP@MAFEAOFK@entity_sub_type_weapon_valid?5?$CIw@ ; `string'
PUBLIC	??_C@_0P@DFFDGLE@burst_size?5?$DO?50@		; `string'
PUBLIC	??_C@_0CD@KEKOAANN@burst_size?5?$DN?$DN?5BURST_SIZE_DONT_C@ ; `string'
PUBLIC	??_C@_0CO@CCKHDPGI@smoke_trail_type?5?$CB?$DN?5META_SMOKE_@ ; `string'
PUBLIC	??_C@_0BN@OGACAFKK@num_smoke_trail_entities?5?$DO?50@ ; `string'
PUBLIC	??_C@_06GPEKEEBB@victim@			; `string'
PUBLIC	??_C@_02HODPCBMO@wp@				; `string'
PUBLIC	??_C@_07ONPBMBOP@message@			; `string'
PUBLIC	??_C@_0BA@FCGNACJO@message?5?$DN?$DN?5NULL@	; `string'
PUBLIC	??_C@_0BM@ELIHFJKD@Use?5transmit_pfz?$CI?$CJ?5function@ ; `string'
PUBLIC	??_C@_0BP@BKAJBABJ@?$CB?$CCUse?5transmit_pfz?$CI?$CJ?5function?$CC@ ; `string'
PUBLIC	??_C@_0DN@PHCNGHE@EN_COMMS?3?5sending?5Pilot?5request@ ; `string'
PUBLIC	??_C@_0DM@IPDNEBDA@EN_COMMS?3?5sending?5player?5task?5?$CF@ ; `string'
PUBLIC	??_C@_0DN@IGCFFEGL@EN_COMMS?3?5sending?5player?5task?5?$CF@ ; `string'
PUBLIC	??_C@_0DA@LNAMKNMB@get_local_entity_type?5?$CIen?$CJ?5?$DN?$DN?5E@ ; `string'
PUBLIC	??_C@_0DB@ENGEBKMD@get_local_entity_type?5?$CIen?$CJ?5?$DN?$DN?5E@ ; `string'
PUBLIC	??_C@_0M@BLMAJMLK@destination@			; `string'
PUBLIC	??_C@_0BB@OCHIJAA@target_count?5?$DO?50@	; `string'
PUBLIC	??_C@_0L@MMBMMAEK@index_list@			; `string'
PUBLIC	??_C@_0DA@BGABFO@get_local_entity_type?5?$CIen?$CJ?5?$DN?$DN?5E@ ; `string'
PUBLIC	??_C@_0CJ@HDFJMCJJ@get_comms_model?5?$CI?$CJ?5?$DN?$DN?5COMMS_MOD@ ; `string'
PUBLIC	??_C@_0DA@NDIHHFDN@get_local_entity_type?5?$CIen?$CJ?5?$DN?$DN?5E@ ; `string'
PUBLIC	??_C@_0DA@INDMAMHB@EN_COMMS?3?5sending?5assign?5task?5r@ ; `string'
PUBLIC	??_C@_0DB@DBNDGDFO@EN_COMMS?3?5sending?5assign?5task?5?$CF@ ; `string'
PUBLIC	??_C@_0CN@EGPAMJPG@EN_COMMS?3?5sending?5assign?5task?5r@ ; `string'
PUBLIC	??_C@_0EL@HBMCHNPH@EN_COMMS?3?5sending?5task?5kill?5for@ ; `string'
PUBLIC	??_C@_0EL@LLAFPFKC@EN_COMMS?3?5sending?5task?5loss?5for@ ; `string'
PUBLIC	??_C@_0CL@GFMDOBCA@Transmit?5invalid?5entity?5comms?5m@ ; `string'
PUBLIC	?__LINE__Var@?0??process_received_entity_comms_messages@@YGXXZ@4JA ; `process_received_entity_comms_messages'::`1'::__LINE__Var
PUBLIC	??_C@_0DO@NKOCAKEK@direct_play_get_comms_mode?5?$CI?$CJ?5?$DN@ ; `string'
PUBLIC	??_C@_0CN@KOHHCGAN@ENTITY_COMMS_ZERO?5encountered?5d@ ; `string'
PUBLIC	??_C@_0BG@PFNEBFLH@ADVISE_TRANSMIT_RECON@	; `string'
PUBLIC	??_C@_0CD@GAOMIKLP@num_bytes?5?$DM?$DN?5ATTRIBUTE_BUFFER_S@ ; `string'
PUBLIC	??_C@_0BB@CNAIJEEO@sample_count?5?$DO?50@	; `string'
PUBLIC	??_C@_0CP@NOFCFJBB@EN_COMMS?3?5created?5route?5on?5clie@ ; `string'
PUBLIC	??_C@_0DA@GDENJLMD@get_local_entity_type?5?$CIen?$CJ?5?$DN?$DN?5E@ ; `string'
PUBLIC	??_C@_0O@DEGLOFLI@Attack?5PFZ?5?$CFd@		; `string'
PUBLIC	??_C@_0DO@PIAHAFOJ@EN_COMMS?3?5received?5Pilot?5reques@ ; `string'
PUBLIC	??_C@_04GGKLLKOO@task@				; `string'
PUBLIC	??_C@_0DN@JILJIBKE@EN_COMMS?3?5received?5player?5task?5@ ; `string'
PUBLIC	??_C@_0DO@HBFAIHPG@EN_COMMS?3?5received?5player?5task?5@ ; `string'
PUBLIC	??_C@_0DB@FPHBFJNE@get_local_entity_type?5?$CItask?$CJ?5?$DN?$DN@ ; `string'
PUBLIC	??_C@_0DB@IKKJPGJC@EN_COMMS?3?5received?5assign?5task?5@ ; `string'
PUBLIC	??_C@_0CM@EEJKLHIL@?$CBforce_local_entity_create_stac@ ; `string'
PUBLIC	??_C@_06INMLIBCJ@mobile@			; `string'
PUBLIC	??_C@_0DC@INHEFGG@EN_COMMS?3?5received?5assign?5task?5@ ; `string'
PUBLIC	??_C@_0CO@KBPHBAEN@EN_COMMS?3?5received?5assign?5task?5@ ; `string'
PUBLIC	??_C@_0EM@CLMCCEIB@EN_COMMS?3?5received?5task?5kill?5fo@ ; `string'
PUBLIC	??_C@_0EM@OBAFKMNE@EN_COMMS?3?5received?5task?5loss?5fo@ ; `string'
PUBLIC	??_C@_0CL@BOMDEDKH@Received?5invalid?5entity?5comms?5m@ ; `string'
PUBLIC	?__LINE__Var@?0??pack_entity_comms_message@@YGXW4ENTITY_COMMS_MESSAGES@@@Z@4JA ; `pack_entity_comms_message'::`1'::__LINE__Var
PUBLIC	??_C@_0DI@FBBPJLNA@?$CImessage?5?$DO?$DN?50?$CJ?5?$CG?$CG?5?$CImessage?5?$DM?5NU@ ; `string'
PUBLIC	??_C@_0DB@ILMOKKE@?$CB?$CImessage?5?$DO?$DO?5NUM_ENTITY_COMMS_M@ ; `string'
PUBLIC	?__LINE__Var@?0??unpack_entity_comms_message@@YG?AW4ENTITY_COMMS_MESSAGES@@XZ@4JA ; `unpack_entity_comms_message'::`1'::__LINE__Var
PUBLIC	??_C@_0BD@FEEMDEPI@invalid?5comparator@		; `string'
PUBLIC	??_C@_0GK@JMBMHIBC@c?3?2program?5files?5?$CIx86?$CJ?2microsof@ ; `string'
PUBLIC	??_C@_1NE@FKBPBJEB@?$AAc?$AA?3?$AA?2?$AAp?$AAr?$AAo?$AAg?$AAr?$AAa?$AAm?$AA?5?$AAf?$AAi?$AAl?$AAe@ ; `string'
PUBLIC	??_C@_1BC@BLAPCBGI@?$AAs?$AAt?$AAd?$AA?3?$AA?3?$AAm?$AAi?$AAn@ ; `string'
PUBLIC	??_C@_1CK@NDNHPKPI@?$AA?$CC?$AAi?$AAn?$AAv?$AAa?$AAl?$AAi?$AAd?$AA?5?$AAc?$AAo?$AAm?$AAp?$AAa?$AAr@ ; `string'
PUBLIC	__real@0000000000000000
PUBLIC	__real@447a0000
PUBLIC	__xmm@41f00000000000000000000000000000
EXTRN	__imp___invalid_parameter:PROC
EXTRN	__imp____stdio_common_vsprintf:PROC
EXTRN	_memset:PROC
EXTRN	__imp___CrtDbgReport:PROC
EXTRN	?process_assert@@YGXPBD0H@Z:PROC		; process_assert
EXTRN	?debug_fatal@@YAXPBDZZ:PROC			; debug_fatal
EXTRN	?debug_log@@YAXPBDZZ:PROC			; debug_log
EXTRN	?get_system_time@@YGIXZ:PROC			; get_system_time
EXTRN	?malloc_fast_memory@@YGPAXI@Z:PROC		; malloc_fast_memory
EXTRN	?malloc_heap_memory@@YGPAXI@Z:PROC		; malloc_heap_memory
EXTRN	?free_mem@@YGXPAX@Z:PROC			; free_mem
EXTRN	?direct_play_get_player_id@@YGHXZ:PROC		; direct_play_get_player_id
EXTRN	?pack_entity_type@@YGXW4ENTITY_TYPES@@@Z:PROC	; pack_entity_type
EXTRN	?unpack_entity_type@@YG?AW4ENTITY_TYPES@@XZ:PROC ; unpack_entity_type
EXTRN	?set_comms_data_flow@@YGXW4COMMS_DATA_FLOW_TYPES@@@Z:PROC ; set_comms_data_flow
EXTRN	?notify_local_entity@@YAHW4ENTITY_MESSAGES@@PAUENTITY@@1ZZ:PROC ; notify_local_entity
EXTRN	?pack_entity_attributes@@YGXPBD@Z:PROC		; pack_entity_attributes
EXTRN	?unpack_entity_attributes@@YGHPAD@Z:PROC	; unpack_entity_attributes
EXTRN	?unpack_client_server_entity_data@@YGXPAUENTITY@@@Z:PROC ; unpack_client_server_entity_data
EXTRN	?pack_unsigned_data@@YGXIH@Z:PROC		; pack_unsigned_data
EXTRN	?unpack_unsigned_data@@YGIH@Z:PROC		; unpack_unsigned_data
EXTRN	?insert_local_entity_into_parents_child_list@@YGXPAUENTITY@@W4LIST_TYPES@@00@Z:PROC ; insert_local_entity_into_parents_child_list
EXTRN	?delete_local_entity_from_parents_child_list@@YGXPAUENTITY@@W4LIST_TYPES@@@Z:PROC ; delete_local_entity_from_parents_child_list
EXTRN	?pack_list_type@@YGXW4LIST_TYPES@@@Z:PROC	; pack_list_type
EXTRN	?unpack_list_type@@YG?AW4LIST_TYPES@@XZ:PROC	; unpack_list_type
EXTRN	?set_client_server_entity_parent@@YGXPAUENTITY@@W4LIST_TYPES@@0@Z:PROC ; set_client_server_entity_parent
EXTRN	?pack_attitude_matrix@@YGXPAUENTITY@@QAY02M@Z:PROC ; pack_attitude_matrix
EXTRN	?unpack_attitude_matrix@@YGXPAUENTITY@@QAY02M@Z:PROC ; unpack_attitude_matrix
EXTRN	?pack_attitude_angles@@YGXPAUENTITY@@MMM@Z:PROC	; pack_attitude_angles
EXTRN	?unpack_attitude_angles@@YGXPAUENTITY@@PAM11@Z:PROC ; unpack_attitude_angles
EXTRN	?pack_char_value@@YGXPAUENTITY@@W4CHAR_TYPES@@D@Z:PROC ; pack_char_value
EXTRN	?unpack_char_value@@YGDPAUENTITY@@W4CHAR_TYPES@@@Z:PROC ; unpack_char_value
EXTRN	?pack_char_type@@YGXW4CHAR_TYPES@@@Z:PROC	; pack_char_type
EXTRN	?unpack_char_type@@YG?AW4CHAR_TYPES@@XZ:PROC	; unpack_char_type
EXTRN	?create_client_server_entity@@YAPAUENTITY@@W4ENTITY_TYPES@@HZZ:PROC ; create_client_server_entity
EXTRN	?pack_float_value@@YGXPAUENTITY@@W4FLOAT_TYPES@@M@Z:PROC ; pack_float_value
EXTRN	?unpack_float_value@@YGMPAUENTITY@@W4FLOAT_TYPES@@@Z:PROC ; unpack_float_value
EXTRN	?pack_float_type@@YGXW4FLOAT_TYPES@@@Z:PROC	; pack_float_type
EXTRN	?unpack_float_type@@YG?AW4FLOAT_TYPES@@XZ:PROC	; unpack_float_type
EXTRN	?pack_int_value@@YGXPAUENTITY@@W4INT_TYPES@@H@Z:PROC ; pack_int_value
EXTRN	?unpack_int_value@@YGHPAUENTITY@@W4INT_TYPES@@@Z:PROC ; unpack_int_value
EXTRN	?pack_int_type@@YGXW4INT_TYPES@@@Z:PROC		; pack_int_type
EXTRN	?unpack_int_type@@YG?AW4INT_TYPES@@XZ:PROC	; unpack_int_type
EXTRN	?pack_string@@YGXPAUENTITY@@W4STRING_TYPES@@PBD@Z:PROC ; pack_string
EXTRN	?unpack_string@@YGXPAUENTITY@@W4STRING_TYPES@@PAD@Z:PROC ; unpack_string
EXTRN	?pack_string_type@@YGXW4STRING_TYPES@@@Z:PROC	; pack_string_type
EXTRN	?unpack_string_type@@YG?AW4STRING_TYPES@@XZ:PROC ; unpack_string_type
EXTRN	?pack_vec3d@@YGXPAUENTITY@@W4VEC3D_TYPES@@PAUVEC3D@@@Z:PROC ; pack_vec3d
EXTRN	?unpack_vec3d@@YGXPAUENTITY@@W4VEC3D_TYPES@@PAUVEC3D@@@Z:PROC ; unpack_vec3d
EXTRN	?pack_vec3d_type@@YGXW4VEC3D_TYPES@@@Z:PROC	; pack_vec3d_type
EXTRN	?unpack_vec3d_type@@YG?AW4VEC3D_TYPES@@XZ:PROC	; unpack_vec3d_type
EXTRN	?pack_entity_safe_index@@YGXH@Z:PROC		; pack_entity_safe_index
EXTRN	?unpack_entity_safe_index@@YGHXZ:PROC		; unpack_entity_safe_index
EXTRN	?pack_entity_safe_ptr@@YGXPAUENTITY@@@Z:PROC	; pack_entity_safe_ptr
EXTRN	?unpack_entity_safe_ptr@@YGPAUENTITY@@XZ:PROC	; unpack_entity_safe_ptr
EXTRN	?restore_local_fixed_entity@@YGXPAUENTITY@@@Z:PROC ; restore_local_fixed_entity
EXTRN	?create_client_server_entity_weapon@@YGXPAUENTITY@@HHHPAH@Z:PROC ; create_client_server_entity_weapon
EXTRN	?set_client_server_entity_weapon_damage@@YGXPAUENTITY@@HHH@Z:PROC ; set_client_server_entity_weapon_damage
EXTRN	?restore_helicopter_entity@@YGXPAUENTITY@@PAUVEC3D@@W4OPERATIONAL_STATE_TYPES@@@Z:PROC ; restore_helicopter_entity
EXTRN	?notify_gunship_entity_mission_completed@@YGXPAUENTITY@@0@Z:PROC ; notify_gunship_entity_mission_completed
EXTRN	?notify_gunship_entity_mission_terminated@@YGXPAUENTITY@@0@Z:PROC ; notify_gunship_entity_mission_terminated
EXTRN	?repair_local_bridge_entity@@YGXPAUENTITY@@@Z:PROC ; repair_local_bridge_entity
EXTRN	?set_external_view_entity@@YGXPAUENTITY@@@Z:PROC ; set_external_view_entity
EXTRN	?create_meta_explosion@@YGHW4META_EXPLOSION_TYPES@@PAUVEC3D@@PAUENTITY@@PAH@Z:PROC ; create_meta_explosion
EXTRN	?count_entities_in_meta_explosion@@YGHW4META_EXPLOSION_TYPES@@@Z:PROC ; count_entities_in_meta_explosion
EXTRN	?create_meta_smoke_list_sub_object_offset@@YGHW4META_SMOKE_LIST_TYPES@@PAUENTITY@@HHPAH@Z:PROC ; create_meta_smoke_list_sub_object_offset
EXTRN	?create_meta_smoke_list_specified_offset@@YGHW4META_SMOKE_LIST_TYPES@@PAUENTITY@@PAUVEC3D@@PAH@Z:PROC ; create_meta_smoke_list_specified_offset
EXTRN	?count_entities_in_meta_smoke_list@@YGHW4META_SMOKE_LIST_TYPES@@@Z:PROC ; count_entities_in_meta_smoke_list
EXTRN	?play_client_server_cpg_message@@YGHPAUENTITY@@MMHMH@Z:PROC ; play_client_server_cpg_message
EXTRN	?play_client_server_cpg_contact_message@@YGHPAUENTITY@@HHH@Z:PROC ; play_client_server_cpg_contact_message
EXTRN	?play_client_server_warning_message@@YGHPAUENTITY@@H@Z:PROC ; play_client_server_warning_message
EXTRN	?pause_local_entity_sound_type@@YGHPAUENTITY@@HM@Z:PROC ; pause_local_entity_sound_type
EXTRN	?resume_local_entity_sound_type@@YGHPAUENTITY@@H@Z:PROC ; resume_local_entity_sound_type
EXTRN	?pause_local_continuous_weapon_sound_effect@@YGXPAUENTITY@@H@Z:PROC ; pause_local_continuous_weapon_sound_effect
EXTRN	?create_local_sound_effect_entity@@YGPAUENTITY@@HPAU1@W4ENTITY_SIDES@@HW4SOUND_CHANNEL_TYPES@@W4SOUND_LOCALITY_TYPES@@PAUVEC3D@@MMHHHPAH@Z:PROC ; create_local_sound_effect_entity
EXTRN	?add_mobile_to_force_kills_stats@@YGXPAUENTITY@@0@Z:PROC ; add_mobile_to_force_kills_stats
EXTRN	?set_guide_new_waypoint@@YGHPAUENTITY@@0@Z:PROC	; set_guide_new_waypoint
EXTRN	?set_local_guide_criteria_valid@@YGXPAUENTITY@@W4GUIDE_CRITERIA_TYPES@@HM@Z:PROC ; set_local_guide_criteria_valid
EXTRN	?change_local_keysite_building_sides@@YGXPAUENTITY@@W4ENTITY_SIDES@@@Z:PROC ; change_local_keysite_building_sides
EXTRN	?set_pilot_entity@@YGXPAUENTITY@@@Z:PROC	; set_pilot_entity
EXTRN	?update_sector_fog_of_war@@YGXXZ:PROC		; update_sector_fog_of_war
EXTRN	?update_sector_side_count@@YGXXZ:PROC		; update_sector_side_count
EXTRN	?add_kill_to_task@@YGXPAUENTITY@@00@Z:PROC	; add_kill_to_task
EXTRN	?add_loss_to_task@@YGXPAUENTITY@@00@Z:PROC	; add_loss_to_task
EXTRN	?set_status_message@@YGXPBDW4STATUS_MESSAGE_TYPES@@@Z:PROC ; set_status_message
EXTRN	?get_number_of_valid_gunship_targets@@YGHPAUENTITY@@@Z:PROC ; get_number_of_valid_gunship_targets
EXTRN	?get_valid_gunship_target_safe_index@@YGHPAUENTITY@@H@Z:PROC ; get_valid_gunship_target_safe_index
EXTRN	?set_valid_gunship_target_safe_index@@YGXH@Z:PROC ; set_valid_gunship_target_safe_index
EXTRN	?damage_gunship@@YGXW4GUNSHIP_DAMAGE_LEVELS@@@Z:PROC ; damage_gunship
EXTRN	?add_pfz@@YGXPAUVEC3D@@000@Z:PROC		; add_pfz
EXTRN	?dynamics_damage_model@@YGXIH@Z:PROC		; dynamics_damage_model
EXTRN	?message_text_type_send_string@@YGHW4MESSAGE_TEXT_TYPES@@@Z:PROC ; message_text_type_send_string
EXTRN	?set_incoming_message@@YGXPAUENTITY@@0W4MESSAGE_TEXT_TYPES@@PAD@Z:PROC ; set_incoming_message
EXTRN	?process_radio_message@@YGXPAUENTITY@@W4MESSAGE_CATEGORIES@@H@Z:PROC ; process_radio_message
EXTRN	?get_trans@@YGPBDPBD@Z:PROC			; get_trans
EXTRN	?get_current_player_log@@YGPAUPLAYER_LOG_TYPE@@XZ:PROC ; get_current_player_log
EXTRN	?inc_player_log_kills@@YGXHPAUPLAYER_LOG_TYPE@@PAUENTITY@@@Z:PROC ; inc_player_log_kills
EXTRN	?map_add_waypoint@@YGXPAUENTITY@@PAUVEC3D@@@Z:PROC ; map_add_waypoint
EXTRN	?player_assigned_new_task@@YGXPAUENTITY@@0@Z:PROC ; player_assigned_new_task
EXTRN	?campaign_completed@@YGXW4ENTITY_SIDES@@W4CAMPAIGN_COMPLETED_TYPES@@@Z:PROC ; campaign_completed
EXTRN	?notify_clear_current_selections@@YGXPAUUI_OBJECT@@PAX@Z:PROC ; notify_clear_current_selections
EXTRN	?get_road_sub_route@@YGPAUNODE_LINK_DATA@@HHPAHPAU1@@Z:PROC ; get_road_sub_route
EXTRN	?respond_to_player_task_assign_request@@YGXPAUENTITY@@00@Z:PROC ; respond_to_player_task_assign_request
EXTRN	?engage_specific_targets@@YGXPAUENTITY@@QAPAU1@@Z:PROC ; engage_specific_targets
EXTRN	?create_generic_waypoint_route@@YGHPAUENTITY@@00PAUVEC3D@@1PAIH@Z:PROC ; create_generic_waypoint_route
EXTRN	?update_imap_sector_side@@YGXPAUENTITY@@H@Z:PROC ; update_imap_sector_side
EXTRN	?direct_play_comms_mode@@3W4DIRECT_PLAY_COMMS_MODE_TYPES@@A:DWORD ; direct_play_comms_mode
EXTRN	?null_entity_pointer_message@@3PBDB:DWORD	; null_entity_pointer_message
EXTRN	?global_options@@3UGLOBAL_OPTIONS_DATA@@A:BYTE	; global_options
EXTRN	?system_comms_model@@3W4COMMS_MODEL_TYPES@@A:DWORD ; system_comms_model
EXTRN	?comms_weapon_lag_timing@@3HA:DWORD		; comms_weapon_lag_timing
EXTRN	?comms_weapon_lag_time@@3MA:DWORD		; comms_weapon_lag_time
EXTRN	?fn_pack_local_entity_data@@3PAP6GXPAUENTITY@@W4PACK_MODES@@@ZA:BYTE ; fn_pack_local_entity_data
EXTRN	?overload_invalid_list_type_message@@3PBDB:DWORD ; overload_invalid_list_type_message
EXTRN	?fn_get_local_entity_first_child@@3PAY0CN@P6GPAUENTITY@@PAU1@W4LIST_TYPES@@@ZA:BYTE ; fn_get_local_entity_first_child
EXTRN	?fn_get_local_entity_parent@@3PAY0CN@P6GPAUENTITY@@PAU1@W4LIST_TYPES@@@ZA:BYTE ; fn_get_local_entity_parent
EXTRN	?fn_get_local_entity_child_succ@@3PAY0CN@P6GPAUENTITY@@PAU1@W4LIST_TYPES@@@ZA:BYTE ; fn_get_local_entity_child_succ
EXTRN	?fn_set_client_server_entity_attitude_matrix@@3PAY01P6GXPAUENTITY@@QAY02M@ZA:BYTE ; fn_set_client_server_entity_attitude_matrix
EXTRN	?fn_set_client_server_entity_attitude_angles@@3PAY01P6GXPAUENTITY@@MMM@ZA:BYTE ; fn_set_client_server_entity_attitude_angles
EXTRN	?overload_invalid_char_type_message@@3PBDB:DWORD ; overload_invalid_char_type_message
EXTRN	?fn_set_client_server_entity_char_value@@3PAY111P6GXPAUENTITY@@W4CHAR_TYPES@@D@ZA:BYTE ; fn_set_client_server_entity_char_value
EXTRN	?force_local_entity_create_stack_attributes@@3HA:DWORD ; force_local_entity_create_stack_attributes
EXTRN	?fn_destroy_client_server_entity@@3PAY01P6GXPAUENTITY@@@ZA:BYTE ; fn_destroy_client_server_entity
EXTRN	?fn_destroy_local_entity_family@@3PAP6GXPAUENTITY@@@ZA:BYTE ; fn_destroy_local_entity_family
EXTRN	?fn_destroy_client_server_entity_family@@3PAY01P6GXPAUENTITY@@@ZA:BYTE ; fn_destroy_client_server_entity_family
EXTRN	?fn_kill_client_server_entity@@3PAY01P6GXPAUENTITY@@@ZA:BYTE ; fn_kill_client_server_entity
EXTRN	?float_type_database@@3PAUFLOAT_TYPE_DATA@@A:BYTE ; float_type_database
EXTRN	?overload_invalid_float_type_message@@3PBDB:DWORD ; overload_invalid_float_type_message
EXTRN	?fn_set_local_entity_float_value@@3PAY0KP@P6GXPAUENTITY@@W4FLOAT_TYPES@@M@ZA:BYTE ; fn_set_local_entity_float_value
EXTRN	?fn_set_client_server_entity_float_value@@3PAY1KP@1P6GXPAUENTITY@@W4FLOAT_TYPES@@M@ZA:BYTE ; fn_set_client_server_entity_float_value
EXTRN	?int_type_database@@3PAUINT_TYPE_DATA@@A:BYTE	; int_type_database
EXTRN	?overload_invalid_int_type_message@@3PBDB:DWORD	; overload_invalid_int_type_message
EXTRN	?fn_set_local_entity_int_value@@3PAY0BBH@P6GXPAUENTITY@@W4INT_TYPES@@H@ZA:BYTE ; fn_set_local_entity_int_value
EXTRN	?fn_set_client_server_entity_int_value@@3PAY1BBH@1P6GXPAUENTITY@@W4INT_TYPES@@H@ZA:BYTE ; fn_set_client_server_entity_int_value
EXTRN	?fn_get_local_entity_int_value@@3PAY0BBH@P6GHPAUENTITY@@W4INT_TYPES@@@ZA:BYTE ; fn_get_local_entity_int_value
EXTRN	?overload_invalid_ptr_type_message@@3PBDB:DWORD	; overload_invalid_ptr_type_message
EXTRN	?fn_set_local_entity_ptr_value@@3PAY0BE@P6GXPAUENTITY@@W4PTR_TYPES@@PAX@ZA:BYTE ; fn_set_local_entity_ptr_value
EXTRN	?overload_invalid_string_type_message@@3PBDB:DWORD ; overload_invalid_string_type_message
EXTRN	?fn_set_client_server_entity_string@@3PAY1N@1P6GXPAUENTITY@@W4STRING_TYPES@@PBD@ZA:BYTE ; fn_set_client_server_entity_string
EXTRN	?fn_get_local_entity_string@@3PAY0N@P6GPBDPAUENTITY@@W4STRING_TYPES@@@ZA:BYTE ; fn_get_local_entity_string
EXTRN	?overload_invalid_vec3d_type_message@@3PBDB:DWORD ; overload_invalid_vec3d_type_message
EXTRN	?fn_set_client_server_entity_vec3d@@3PAY1BI@1P6GXPAUENTITY@@W4VEC3D_TYPES@@PAUVEC3D@@@ZA:BYTE ; fn_set_client_server_entity_vec3d
EXTRN	?entities@@3PAUENTITY@@A:DWORD			; entities
EXTRN	?weapon_database@@3PAUWEAPON_DATA@@A:BYTE	; weapon_database
EXTRN	?gunship_entity@@3PAUENTITY@@A:DWORD		; gunship_entity
EXTRN	?pilot_entity@@3PAUENTITY@@A:DWORD		; pilot_entity
EXTRN	?next_free_pfz@@3IA:DWORD			; next_free_pfz
EXTRN	__fltused:DWORD
;	COMDAT ?_OptionsStorage@?1??__local_stdio_printf_options@@9@4_KA
_BSS	SEGMENT
?_OptionsStorage@?1??__local_stdio_printf_options@@9@4_KA DQ 01H DUP (?) ; `__local_stdio_printf_options'::`2'::_OptionsStorage
_BSS	ENDS
_BSS	SEGMENT
?attribute_buffer@@3PADA DB 03e8H DUP (?)		; attribute_buffer
_BSS	ENDS
;	COMDAT __xmm@41f00000000000000000000000000000
CONST	SEGMENT
__xmm@41f00000000000000000000000000000 DB 00H, 00H, 00H, 00H, 00H, 00H, 00H
	DB	00H, 00H, 00H, 00H, 00H, 00H, 00H, 0f0H, 'A'
CONST	ENDS
;	COMDAT __real@447a0000
CONST	SEGMENT
__real@447a0000 DD 0447a0000r			; 1000
CONST	ENDS
;	COMDAT __real@0000000000000000
CONST	SEGMENT
__real@0000000000000000 DQ 00000000000000000r	; 0
CONST	ENDS
;	COMDAT ??_C@_1CK@NDNHPKPI@?$AA?$CC?$AAi?$AAn?$AAv?$AAa?$AAl?$AAi?$AAd?$AA?5?$AAc?$AAo?$AAm?$AAp?$AAa?$AAr@
CONST	SEGMENT
??_C@_1CK@NDNHPKPI@?$AA?$CC?$AAi?$AAn?$AAv?$AAa?$AAl?$AAi?$AAd?$AA?5?$AAc?$AAo?$AAm?$AAp?$AAa?$AAr@ DB '"'
	DB	00H, 'i', 00H, 'n', 00H, 'v', 00H, 'a', 00H, 'l', 00H, 'i', 00H
	DB	'd', 00H, ' ', 00H, 'c', 00H, 'o', 00H, 'm', 00H, 'p', 00H, 'a'
	DB	00H, 'r', 00H, 'a', 00H, 't', 00H, 'o', 00H, 'r', 00H, '"', 00H
	DB	00H, 00H					; `string'
CONST	ENDS
;	COMDAT ??_C@_1BC@BLAPCBGI@?$AAs?$AAt?$AAd?$AA?3?$AA?3?$AAm?$AAi?$AAn@
CONST	SEGMENT
??_C@_1BC@BLAPCBGI@?$AAs?$AAt?$AAd?$AA?3?$AA?3?$AAm?$AAi?$AAn@ DB 's', 00H
	DB	't', 00H, 'd', 00H, ':', 00H, ':', 00H, 'm', 00H, 'i', 00H, 'n'
	DB	00H, 00H, 00H				; `string'
CONST	ENDS
;	COMDAT ??_C@_1NE@FKBPBJEB@?$AAc?$AA?3?$AA?2?$AAp?$AAr?$AAo?$AAg?$AAr?$AAa?$AAm?$AA?5?$AAf?$AAi?$AAl?$AAe@
CONST	SEGMENT
??_C@_1NE@FKBPBJEB@?$AAc?$AA?3?$AA?2?$AAp?$AAr?$AAo?$AAg?$AAr?$AAa?$AAm?$AA?5?$AAf?$AAi?$AAl?$AAe@ DB 'c'
	DB	00H, ':', 00H, '\', 00H, 'p', 00H, 'r', 00H, 'o', 00H, 'g', 00H
	DB	'r', 00H, 'a', 00H, 'm', 00H, ' ', 00H, 'f', 00H, 'i', 00H, 'l'
	DB	00H, 'e', 00H, 's', 00H, ' ', 00H, '(', 00H, 'x', 00H, '8', 00H
	DB	'6', 00H, ')', 00H, '\', 00H, 'm', 00H, 'i', 00H, 'c', 00H, 'r'
	DB	00H, 'o', 00H, 's', 00H, 'o', 00H, 'f', 00H, 't', 00H, ' ', 00H
	DB	'v', 00H, 'i', 00H, 's', 00H, 'u', 00H, 'a', 00H, 'l', 00H, ' '
	DB	00H, 's', 00H, 't', 00H, 'u', 00H, 'd', 00H, 'i', 00H, 'o', 00H
	DB	'\', 00H, '2', 00H, '0', 00H, '1', 00H, '7', 00H, '\', 00H, 'c'
	DB	00H, 'o', 00H, 'm', 00H, 'm', 00H, 'u', 00H, 'n', 00H, 'i', 00H
	DB	't', 00H, 'y', 00H, '\', 00H, 'v', 00H, 'c', 00H, '\', 00H, 't'
	DB	00H, 'o', 00H, 'o', 00H, 'l', 00H, 's', 00H, '\', 00H, 'm', 00H
	DB	's', 00H, 'v', 00H, 'c', 00H, '\', 00H, '1', 00H, '4', 00H, '.'
	DB	00H, '1', 00H, '6', 00H, '.', 00H, '2', 00H, '7', 00H, '0', 00H
	DB	'2', 00H, '3', 00H, '\', 00H, 'i', 00H, 'n', 00H, 'c', 00H, 'l'
	DB	00H, 'u', 00H, 'd', 00H, 'e', 00H, '\', 00H, 'a', 00H, 'l', 00H
	DB	'g', 00H, 'o', 00H, 'r', 00H, 'i', 00H, 't', 00H, 'h', 00H, 'm'
	DB	00H, 00H, 00H				; `string'
CONST	ENDS
;	COMDAT ??_C@_0GK@JMBMHIBC@c?3?2program?5files?5?$CIx86?$CJ?2microsof@
CONST	SEGMENT
??_C@_0GK@JMBMHIBC@c?3?2program?5files?5?$CIx86?$CJ?2microsof@ DB 'c:\pro'
	DB	'gram files (x86)\microsoft visual studio\2017\community\vc\to'
	DB	'ols\msvc\14.16.27023\include\algorithm', 00H ; `string'
CONST	ENDS
;	COMDAT ??_C@_0BD@FEEMDEPI@invalid?5comparator@
CONST	SEGMENT
??_C@_0BD@FEEMDEPI@invalid?5comparator@ DB 'invalid comparator', 00H ; `string'
CONST	ENDS
;	COMDAT ?__LINE__Var@?0??unpack_entity_comms_message@@YG?AW4ENTITY_COMMS_MESSAGES@@XZ@4JA
_DATA	SEGMENT
?__LINE__Var@?0??unpack_entity_comms_message@@YG?AW4ENTITY_COMMS_MESSAGES@@XZ@4JA DD 01606H ; `unpack_entity_comms_message'::`1'::__LINE__Var
_DATA	ENDS
;	COMDAT ??_C@_0DB@ILMOKKE@?$CB?$CImessage?5?$DO?$DO?5NUM_ENTITY_COMMS_M@
CONST	SEGMENT
??_C@_0DB@ILMOKKE@?$CB?$CImessage?5?$DO?$DO?5NUM_ENTITY_COMMS_M@ DB '!(me'
	DB	'ssage >> NUM_ENTITY_COMMS_MESSAGE_PACK_BITS)', 00H ; `string'
CONST	ENDS
;	COMDAT ??_C@_0DI@FBBPJLNA@?$CImessage?5?$DO?$DN?50?$CJ?5?$CG?$CG?5?$CImessage?5?$DM?5NU@
CONST	SEGMENT
??_C@_0DI@FBBPJLNA@?$CImessage?5?$DO?$DN?50?$CJ?5?$CG?$CG?5?$CImessage?5?$DM?5NU@ DB '('
	DB	'message >= 0) && (message < NUM_ENTITY_COMMS_MESSAGES)', 00H ; `string'
CONST	ENDS
;	COMDAT ?__LINE__Var@?0??pack_entity_comms_message@@YGXW4ENTITY_COMMS_MESSAGES@@@Z@4JA
_DATA	SEGMENT
?__LINE__Var@?0??pack_entity_comms_message@@YGXW4ENTITY_COMMS_MESSAGES@@@Z@4JA DD 015f1H ; `pack_entity_comms_message'::`1'::__LINE__Var
_DATA	ENDS
;	COMDAT ??_C@_0CL@BOMDEDKH@Received?5invalid?5entity?5comms?5m@
CONST	SEGMENT
??_C@_0CL@BOMDEDKH@Received?5invalid?5entity?5comms?5m@ DB 'Received inva'
	DB	'lid entity comms message = %d', 00H		; `string'
CONST	ENDS
;	COMDAT ??_C@_0EM@OBAFKMNE@EN_COMMS?3?5received?5task?5loss?5fo@
CONST	SEGMENT
??_C@_0EM@OBAFKMNE@EN_COMMS?3?5received?5task?5loss?5fo@ DB 'EN_COMMS: re'
	DB	'ceived task loss for %s (%d), victim %s (%d), aggressor %s (%'
	DB	'd)', 00H					; `string'
CONST	ENDS
;	COMDAT ??_C@_0EM@CLMCCEIB@EN_COMMS?3?5received?5task?5kill?5fo@
CONST	SEGMENT
??_C@_0EM@CLMCCEIB@EN_COMMS?3?5received?5task?5kill?5fo@ DB 'EN_COMMS: re'
	DB	'ceived task kill for %s (%d), victim %s (%d), aggressor %s (%'
	DB	'd)', 00H					; `string'
CONST	ENDS
;	COMDAT ??_C@_0CO@KBPHBAEN@EN_COMMS?3?5received?5assign?5task?5@
CONST	SEGMENT
??_C@_0CO@KBPHBAEN@EN_COMMS?3?5received?5assign?5task?5@ DB 'EN_COMMS: re'
	DB	'ceived assign task refused for %s', 00H	; `string'
CONST	ENDS
;	COMDAT ??_C@_0DC@INHEFGG@EN_COMMS?3?5received?5assign?5task?5@
CONST	SEGMENT
??_C@_0DC@INHEFGG@EN_COMMS?3?5received?5assign?5task?5@ DB 'EN_COMMS: rec'
	DB	'eived assign task %s accepted for %s', 00H	; `string'
CONST	ENDS
;	COMDAT ??_C@_06INMLIBCJ@mobile@
CONST	SEGMENT
??_C@_06INMLIBCJ@mobile@ DB 'mobile', 00H		; `string'
CONST	ENDS
;	COMDAT ??_C@_0CM@EEJKLHIL@?$CBforce_local_entity_create_stac@
CONST	SEGMENT
??_C@_0CM@EEJKLHIL@?$CBforce_local_entity_create_stac@ DB '!force_local_e'
	DB	'ntity_create_stack_attributes', 00H		; `string'
CONST	ENDS
;	COMDAT ??_C@_0DB@IKKJPGJC@EN_COMMS?3?5received?5assign?5task?5@
CONST	SEGMENT
??_C@_0DB@IKKJPGJC@EN_COMMS?3?5received?5assign?5task?5@ DB 'EN_COMMS: re'
	DB	'ceived assign task request %s for %s', 00H	; `string'
CONST	ENDS
;	COMDAT ??_C@_0DB@FPHBFJNE@get_local_entity_type?5?$CItask?$CJ?5?$DN?$DN@
CONST	SEGMENT
??_C@_0DB@FPHBFJNE@get_local_entity_type?5?$CItask?$CJ?5?$DN?$DN@ DB 'get'
	DB	'_local_entity_type (task) == ENTITY_TYPE_TASK', 00H ; `string'
CONST	ENDS
;	COMDAT ??_C@_0DO@HBFAIHPG@EN_COMMS?3?5received?5player?5task?5@
CONST	SEGMENT
??_C@_0DO@HBFAIHPG@EN_COMMS?3?5received?5player?5task?5@ DB 'EN_COMMS: re'
	DB	'ceived player task %s (%d) terminated for %s (%d)', 00H ; `string'
CONST	ENDS
;	COMDAT ??_C@_0DN@JILJIBKE@EN_COMMS?3?5received?5player?5task?5@
CONST	SEGMENT
??_C@_0DN@JILJIBKE@EN_COMMS?3?5received?5player?5task?5@ DB 'EN_COMMS: re'
	DB	'ceived player task %s (%d) completed for %s (%d)', 00H ; `string'
CONST	ENDS
;	COMDAT ??_C@_04GGKLLKOO@task@
CONST	SEGMENT
??_C@_04GGKLLKOO@task@ DB 'task', 00H			; `string'
CONST	ENDS
;	COMDAT ??_C@_0DO@PIAHAFOJ@EN_COMMS?3?5received?5Pilot?5reques@
CONST	SEGMENT
??_C@_0DO@PIAHAFOJ@EN_COMMS?3?5received?5Pilot?5reques@ DB 'EN_COMMS: rec'
	DB	'eived Pilot request accepted to %d for entity %d', 00H ; `string'
CONST	ENDS
;	COMDAT ??_C@_0O@DEGLOFLI@Attack?5PFZ?5?$CFd@
CONST	SEGMENT
??_C@_0O@DEGLOFLI@Attack?5PFZ?5?$CFd@ DB 'Attack PFZ %d', 00H ; `string'
CONST	ENDS
;	COMDAT ??_C@_0DA@GDENJLMD@get_local_entity_type?5?$CIen?$CJ?5?$DN?$DN?5E@
CONST	SEGMENT
??_C@_0DA@GDENJLMD@get_local_entity_type?5?$CIen?$CJ?5?$DN?$DN?5E@ DB 'ge'
	DB	't_local_entity_type (en) == ENTITY_TYPE_FORCE', 00H ; `string'
CONST	ENDS
;	COMDAT ??_C@_0CP@NOFCFJBB@EN_COMMS?3?5created?5route?5on?5clie@
CONST	SEGMENT
??_C@_0CP@NOFCFJBB@EN_COMMS?3?5created?5route?5on?5clie@ DB 'EN_COMMS: cr'
	DB	'eated route on client successfully', 00H	; `string'
CONST	ENDS
;	COMDAT ??_C@_0BB@CNAIJEEO@sample_count?5?$DO?50@
CONST	SEGMENT
??_C@_0BB@CNAIJEEO@sample_count?5?$DO?50@ DB 'sample_count > 0', 00H ; `string'
CONST	ENDS
;	COMDAT ??_C@_0CD@GAOMIKLP@num_bytes?5?$DM?$DN?5ATTRIBUTE_BUFFER_S@
CONST	SEGMENT
??_C@_0CD@GAOMIKLP@num_bytes?5?$DM?$DN?5ATTRIBUTE_BUFFER_S@ DB 'num_bytes'
	DB	' <= ATTRIBUTE_BUFFER_SIZE', 00H		; `string'
CONST	ENDS
;	COMDAT ??_C@_0BG@PFNEBFLH@ADVISE_TRANSMIT_RECON@
CONST	SEGMENT
??_C@_0BG@PFNEBFLH@ADVISE_TRANSMIT_RECON@ DB 'ADVISE_TRANSMIT_RECON', 00H ; `string'
CONST	ENDS
;	COMDAT ??_C@_0CN@KOHHCGAN@ENTITY_COMMS_ZERO?5encountered?5d@
CONST	SEGMENT
??_C@_0CN@KOHHCGAN@ENTITY_COMMS_ZERO?5encountered?5d@ DB 'ENTITY_COMMS_ZE'
	DB	'RO encountered during receive', 00H		; `string'
CONST	ENDS
;	COMDAT ??_C@_0DO@NKOCAKEK@direct_play_get_comms_mode?5?$CI?$CJ?5?$DN@
CONST	SEGMENT
??_C@_0DO@NKOCAKEK@direct_play_get_comms_mode?5?$CI?$CJ?5?$DN@ DB 'direct'
	DB	'_play_get_comms_mode () == DIRECT_PLAY_COMMS_MODE_MULTI', 00H ; `string'
CONST	ENDS
;	COMDAT ?__LINE__Var@?0??process_received_entity_comms_messages@@YGXXZ@4JA
_DATA	SEGMENT
?__LINE__Var@?0??process_received_entity_comms_messages@@YGXXZ@4JA DD 0b4aH ; `process_received_entity_comms_messages'::`1'::__LINE__Var
_DATA	ENDS
;	COMDAT ??_C@_0CL@GFMDOBCA@Transmit?5invalid?5entity?5comms?5m@
CONST	SEGMENT
??_C@_0CL@GFMDOBCA@Transmit?5invalid?5entity?5comms?5m@ DB 'Transmit inva'
	DB	'lid entity comms message = %d', 00H		; `string'
CONST	ENDS
;	COMDAT ??_C@_0EL@LLAFPFKC@EN_COMMS?3?5sending?5task?5loss?5for@
CONST	SEGMENT
??_C@_0EL@LLAFPFKC@EN_COMMS?3?5sending?5task?5loss?5for@ DB 'EN_COMMS: se'
	DB	'nding task loss for %s (%d), victim %s (%d), aggressor %s (%d'
	DB	')', 00H					; `string'
CONST	ENDS
;	COMDAT ??_C@_0EL@HBMCHNPH@EN_COMMS?3?5sending?5task?5kill?5for@
CONST	SEGMENT
??_C@_0EL@HBMCHNPH@EN_COMMS?3?5sending?5task?5kill?5for@ DB 'EN_COMMS: se'
	DB	'nding task kill for %s (%d), victim %s (%d), aggressor %s (%d'
	DB	')', 00H					; `string'
CONST	ENDS
;	COMDAT ??_C@_0CN@EGPAMJPG@EN_COMMS?3?5sending?5assign?5task?5r@
CONST	SEGMENT
??_C@_0CN@EGPAMJPG@EN_COMMS?3?5sending?5assign?5task?5r@ DB 'EN_COMMS: se'
	DB	'nding assign task refused for %s', 00H	; `string'
CONST	ENDS
;	COMDAT ??_C@_0DB@DBNDGDFO@EN_COMMS?3?5sending?5assign?5task?5?$CF@
CONST	SEGMENT
??_C@_0DB@DBNDGDFO@EN_COMMS?3?5sending?5assign?5task?5?$CF@ DB 'EN_COMMS:'
	DB	' sending assign task %s accepted for %s', 00H ; `string'
CONST	ENDS
;	COMDAT ??_C@_0DA@INDMAMHB@EN_COMMS?3?5sending?5assign?5task?5r@
CONST	SEGMENT
??_C@_0DA@INDMAMHB@EN_COMMS?3?5sending?5assign?5task?5r@ DB 'EN_COMMS: se'
	DB	'nding assign task request %s for %s', 00H	; `string'
CONST	ENDS
;	COMDAT ??_C@_0DA@NDIHHFDN@get_local_entity_type?5?$CIen?$CJ?5?$DN?$DN?5E@
CONST	SEGMENT
??_C@_0DA@NDIHHFDN@get_local_entity_type?5?$CIen?$CJ?5?$DN?$DN?5E@ DB 'ge'
	DB	't_local_entity_type (en) == ENTITY_TYPE_PILOT', 00H ; `string'
CONST	ENDS
;	COMDAT ??_C@_0CJ@HDFJMCJJ@get_comms_model?5?$CI?$CJ?5?$DN?$DN?5COMMS_MOD@
CONST	SEGMENT
??_C@_0CJ@HDFJMCJJ@get_comms_model?5?$CI?$CJ?5?$DN?$DN?5COMMS_MOD@ DB 'ge'
	DB	't_comms_model () == COMMS_MODEL_CLIENT', 00H ; `string'
CONST	ENDS
;	COMDAT ??_C@_0DA@BGABFO@get_local_entity_type?5?$CIen?$CJ?5?$DN?$DN?5E@
CONST	SEGMENT
??_C@_0DA@BGABFO@get_local_entity_type?5?$CIen?$CJ?5?$DN?$DN?5E@ DB 'get_'
	DB	'local_entity_type (en) == ENTITY_TYPE_GUIDE', 00H ; `string'
CONST	ENDS
;	COMDAT ??_C@_0L@MMBMMAEK@index_list@
CONST	SEGMENT
??_C@_0L@MMBMMAEK@index_list@ DB 'index_list', 00H	; `string'
CONST	ENDS
;	COMDAT ??_C@_0BB@OCHIJAA@target_count?5?$DO?50@
CONST	SEGMENT
??_C@_0BB@OCHIJAA@target_count?5?$DO?50@ DB 'target_count > 0', 00H ; `string'
CONST	ENDS
;	COMDAT ??_C@_0M@BLMAJMLK@destination@
CONST	SEGMENT
??_C@_0M@BLMAJMLK@destination@ DB 'destination', 00H	; `string'
CONST	ENDS
;	COMDAT ??_C@_0DB@ENGEBKMD@get_local_entity_type?5?$CIen?$CJ?5?$DN?$DN?5E@
CONST	SEGMENT
??_C@_0DB@ENGEBKMD@get_local_entity_type?5?$CIen?$CJ?5?$DN?$DN?5E@ DB 'ge'
	DB	't_local_entity_type (en) == ENTITY_TYPE_BRIDGE', 00H ; `string'
CONST	ENDS
;	COMDAT ??_C@_0DA@LNAMKNMB@get_local_entity_type?5?$CIen?$CJ?5?$DN?$DN?5E@
CONST	SEGMENT
??_C@_0DA@LNAMKNMB@get_local_entity_type?5?$CIen?$CJ?5?$DN?$DN?5E@ DB 'ge'
	DB	't_local_entity_type (en) == ENTITY_TYPE_GROUP', 00H ; `string'
CONST	ENDS
;	COMDAT ??_C@_0DN@IGCFFEGL@EN_COMMS?3?5sending?5player?5task?5?$CF@
CONST	SEGMENT
??_C@_0DN@IGCFFEGL@EN_COMMS?3?5sending?5player?5task?5?$CF@ DB 'EN_COMMS:'
	DB	' sending player task %s (%d) terminated for %s (%d)', 00H ; `string'
CONST	ENDS
;	COMDAT ??_C@_0DM@IPDNEBDA@EN_COMMS?3?5sending?5player?5task?5?$CF@
CONST	SEGMENT
??_C@_0DM@IPDNEBDA@EN_COMMS?3?5sending?5player?5task?5?$CF@ DB 'EN_COMMS:'
	DB	' sending player task %s (%d) completed for %s (%d)', 00H ; `string'
CONST	ENDS
;	COMDAT ??_C@_0DN@PHCNGHE@EN_COMMS?3?5sending?5Pilot?5request@
CONST	SEGMENT
??_C@_0DN@PHCNGHE@EN_COMMS?3?5sending?5Pilot?5request@ DB 'EN_COMMS: send'
	DB	'ing Pilot request accepted to %d for entity %d', 00H ; `string'
CONST	ENDS
;	COMDAT ??_C@_0BP@BKAJBABJ@?$CB?$CCUse?5transmit_pfz?$CI?$CJ?5function?$CC@
CONST	SEGMENT
??_C@_0BP@BKAJBABJ@?$CB?$CCUse?5transmit_pfz?$CI?$CJ?5function?$CC@ DB '!'
	DB	'"Use transmit_pfz() function"', 00H		; `string'
CONST	ENDS
;	COMDAT ??_C@_0BM@ELIHFJKD@Use?5transmit_pfz?$CI?$CJ?5function@
CONST	SEGMENT
??_C@_0BM@ELIHFJKD@Use?5transmit_pfz?$CI?$CJ?5function@ DB 'Use transmit_'
	DB	'pfz() function', 00H			; `string'
CONST	ENDS
;	COMDAT ??_C@_0BA@FCGNACJO@message?5?$DN?$DN?5NULL@
CONST	SEGMENT
??_C@_0BA@FCGNACJO@message?5?$DN?$DN?5NULL@ DB 'message == NULL', 00H ; `string'
CONST	ENDS
;	COMDAT ??_C@_07ONPBMBOP@message@
CONST	SEGMENT
??_C@_07ONPBMBOP@message@ DB 'message', 00H		; `string'
CONST	ENDS
;	COMDAT ??_C@_02HODPCBMO@wp@
CONST	SEGMENT
??_C@_02HODPCBMO@wp@ DB 'wp', 00H			; `string'
CONST	ENDS
;	COMDAT ??_C@_06GPEKEEBB@victim@
CONST	SEGMENT
??_C@_06GPEKEEBB@victim@ DB 'victim', 00H		; `string'
CONST	ENDS
;	COMDAT ??_C@_0BN@OGACAFKK@num_smoke_trail_entities?5?$DO?50@
CONST	SEGMENT
??_C@_0BN@OGACAFKK@num_smoke_trail_entities?5?$DO?50@ DB 'num_smoke_trail'
	DB	'_entities > 0', 00H				; `string'
CONST	ENDS
;	COMDAT ??_C@_0CO@CCKHDPGI@smoke_trail_type?5?$CB?$DN?5META_SMOKE_@
CONST	SEGMENT
??_C@_0CO@CCKHDPGI@smoke_trail_type?5?$CB?$DN?5META_SMOKE_@ DB 'smoke_tra'
	DB	'il_type != META_SMOKE_LIST_TYPE_NONE', 00H	; `string'
CONST	ENDS
;	COMDAT ??_C@_0CD@KEKOAANN@burst_size?5?$DN?$DN?5BURST_SIZE_DONT_C@
CONST	SEGMENT
??_C@_0CD@KEKOAANN@burst_size?5?$DN?$DN?5BURST_SIZE_DONT_C@ DB 'burst_siz'
	DB	'e == BURST_SIZE_DONT_CARE', 00H		; `string'
CONST	ENDS
;	COMDAT ??_C@_0P@DFFDGLE@burst_size?5?$DO?50@
CONST	SEGMENT
??_C@_0P@DFFDGLE@burst_size?5?$DO?50@ DB 'burst_size > 0', 00H ; `string'
CONST	ENDS
;	COMDAT ??_C@_0CP@MAFEAOFK@entity_sub_type_weapon_valid?5?$CIw@
CONST	SEGMENT
??_C@_0CP@MAFEAOFK@entity_sub_type_weapon_valid?5?$CIw@ DB 'entity_sub_ty'
	DB	'pe_weapon_valid (weapon_sub_type)', 00H	; `string'
CONST	ENDS
;	COMDAT ??_C@_08EAFLGIKM@launcher@
CONST	SEGMENT
??_C@_08EAFLGIKM@launcher@ DB 'launcher', 00H		; `string'
CONST	ENDS
;	COMDAT ??_C@_03HDFHKHFK@?$CBen@
CONST	SEGMENT
??_C@_03HDFHKHFK@?$CBen@ DB '!en', 00H			; `string'
CONST	ENDS
;	COMDAT ??_C@_0CJ@DMBLBJBK@get_comms_model?5?$CI?$CJ?5?$DN?$DN?5COMMS_MOD@
CONST	SEGMENT
??_C@_0CJ@DMBLBJBK@get_comms_model?5?$CI?$CJ?5?$DN?$DN?5COMMS_MOD@ DB 'ge'
	DB	't_comms_model () == COMMS_MODEL_SERVER', 00H ; `string'
CONST	ENDS
;	COMDAT ??_C@_02LFNMGJAP@en@
CONST	SEGMENT
??_C@_02LFNMGJAP@en@ DB 'en', 00H			; `string'
CONST	ENDS
;	COMDAT ??_C@_0EO@OCMIKFBI@c?3?2users?2nhv90?2projects?2eech?2ap@
CONST	SEGMENT
??_C@_0EO@OCMIKFBI@c?3?2users?2nhv90?2projects?2eech?2ap@ DB 'c:\users\nh'
	DB	'v90\projects\eech\aphavoc\source\entity\system\en_comms\en_co'
	DB	'mms.c', 00H					; `string'
CONST	ENDS
;	COMDAT ??_C@_0CO@GJCCLBOC@ENTITY_COMMS_ZERO?5encountered?5d@
CONST	SEGMENT
??_C@_0CO@GJCCLBOC@ENTITY_COMMS_ZERO?5encountered?5d@ DB 'ENTITY_COMMS_ZE'
	DB	'RO encountered during transmit', 00H	; `string'
CONST	ENDS
;	COMDAT ?__LINE__Var@?0??transmit_entity_comms_message@@YAXW4ENTITY_COMMS_MESSAGES@@PAUENTITY@@ZZ@4JA
_DATA	SEGMENT
?__LINE__Var@?0??transmit_entity_comms_message@@YAXW4ENTITY_COMMS_MESSAGES@@PAUENTITY@@ZZ@4JA DD 01d9H ; `transmit_entity_comms_message'::`1'::__LINE__Var
_DATA	ENDS
;	COMDAT ??_C@_0CD@PKGFAOAM@Setting?5comms?5messages?5to?5DISAB@
CONST	SEGMENT
??_C@_0CD@PKGFAOAM@Setting?5comms?5messages?5to?5DISAB@ DB 'Setting comms'
	DB	' messages to DISABLED', 00H			; `string'
CONST	ENDS
;	COMDAT ??_C@_0CC@ONCEHADK@Setting?5comms?5messages?5to?5ENABL@
CONST	SEGMENT
??_C@_0CC@ONCEHADK@Setting?5comms?5messages?5to?5ENABL@ DB 'Setting comms'
	DB	' messages to ENABLED', 00H			; `string'
CONST	ENDS
_DATA	SEGMENT
?comms_messages_enabled@@3HA DD 01H			; comms_messages_enabled
_DATA	ENDS
;	COMDAT ??_C@_02DKCKIIND@?$CFs@
CONST	SEGMENT
??_C@_02DKCKIIND@?$CFs@ DB '%s', 00H			; `string'
CONST	ENDS
; Function compile flags: /Odtp /ZI
; File c:\program files (x86)\microsoft visual studio\2017\community\vc\tools\msvc\14.16.27023\include\algorithm
;	COMDAT ??$min@H@std@@YGABHABH0@Z
_TEXT	SEGMENT
__Left$ = 8						; size = 4
__Right$ = 12						; size = 4
??$min@H@std@@YGABHABH0@Z PROC				; std::min<int>, COMDAT

; 5427 : 	{	// return smaller of _Left and _Right

  00000	55		 push	 ebp
  00001	8b ec		 mov	 ebp, esp
  00003	83 ec 40	 sub	 esp, 64			; 00000040H
  00006	53		 push	 ebx
  00007	56		 push	 esi
  00008	57		 push	 edi

; 5428 : 	if (_Right < _Left)

  00009	8b 45 0c	 mov	 eax, DWORD PTR __Right$[ebp]
  0000c	8b 4d 08	 mov	 ecx, DWORD PTR __Left$[ebp]
  0000f	8b 10		 mov	 edx, DWORD PTR [eax]
  00011	3b 11		 cmp	 edx, DWORD PTR [ecx]
  00013	7d 61		 jge	 SHORT $LN8@min
$LN4@min:

; 5429 : 		{
; 5430 : 		_STL_ASSERT(!(_Left < _Right), "invalid comparator");

  00015	8b 45 08	 mov	 eax, DWORD PTR __Left$[ebp]
  00018	8b 4d 0c	 mov	 ecx, DWORD PTR __Right$[ebp]
  0001b	8b 10		 mov	 edx, DWORD PTR [eax]
  0001d	3b 11		 cmp	 edx, DWORD PTR [ecx]
  0001f	7c 02		 jl	 SHORT $LN7@min
  00021	eb 4a		 jmp	 SHORT $LN2@min
$LN7@min:
  00023	68 00 00 00 00	 push	 OFFSET ??_C@_0BD@FEEMDEPI@invalid?5comparator@
  00028	68 00 00 00 00	 push	 OFFSET ??_C@_02DKCKIIND@?$CFs@
  0002d	6a 00		 push	 0
  0002f	68 36 15 00 00	 push	 5430			; 00001536H
  00034	68 00 00 00 00	 push	 OFFSET ??_C@_0GK@JMBMHIBC@c?3?2program?5files?5?$CIx86?$CJ?2microsof@
  00039	6a 02		 push	 2
  0003b	ff 15 00 00 00
	00		 call	 DWORD PTR __imp___CrtDbgReport
  00041	83 c4 18	 add	 esp, 24			; 00000018H
  00044	83 f8 01	 cmp	 eax, 1
  00047	75 01		 jne	 SHORT $LN12@min
  00049	cc		 int	 3
$LN12@min:
  0004a	6a 00		 push	 0
  0004c	68 36 15 00 00	 push	 5430			; 00001536H
  00051	68 00 00 00 00	 push	 OFFSET ??_C@_1NE@FKBPBJEB@?$AAc?$AA?3?$AA?2?$AAp?$AAr?$AAo?$AAg?$AAr?$AAa?$AAm?$AA?5?$AAf?$AAi?$AAl?$AAe@
  00056	68 00 00 00 00	 push	 OFFSET ??_C@_1BC@BLAPCBGI@?$AAs?$AAt?$AAd?$AA?3?$AA?3?$AAm?$AAi?$AAn@
  0005b	68 00 00 00 00	 push	 OFFSET ??_C@_1CK@NDNHPKPI@?$AA?$CC?$AAi?$AAn?$AAv?$AAa?$AAl?$AAi?$AAd?$AA?5?$AAc?$AAo?$AAm?$AAp?$AAa?$AAr@
  00060	ff 15 00 00 00
	00		 call	 DWORD PTR __imp___invalid_parameter
  00066	83 c4 14	 add	 esp, 20			; 00000014H
  00069	33 c0		 xor	 eax, eax
  0006b	75 b6		 jne	 SHORT $LN7@min
$LN2@min:
  0006d	33 c0		 xor	 eax, eax
  0006f	75 a4		 jne	 SHORT $LN4@min

; 5431 : 		return (_Right);

  00071	8b 45 0c	 mov	 eax, DWORD PTR __Right$[ebp]
  00074	eb 03		 jmp	 SHORT $LN11@min
$LN8@min:

; 5432 : 		}
; 5433 : 
; 5434 : 	return (_Left);

  00076	8b 45 08	 mov	 eax, DWORD PTR __Left$[ebp]
$LN11@min:

; 5435 : 	}

  00079	5f		 pop	 edi
  0007a	5e		 pop	 esi
  0007b	5b		 pop	 ebx
  0007c	8b e5		 mov	 esp, ebp
  0007e	5d		 pop	 ebp
  0007f	c2 08 00	 ret	 8
??$min@H@std@@YGABHABH0@Z ENDP				; std::min<int>
_TEXT	ENDS
; Function compile flags: /Odtp /ZI
; File c:\users\nhv90\projects\eech\aphavoc\source\entity\system\en_comms\en_comms.c
;	COMDAT ?unpack_entity_comms_message@@YG?AW4ENTITY_COMMS_MESSAGES@@XZ
_TEXT	SEGMENT
_message$ = -4						; size = 4
?unpack_entity_comms_message@@YG?AW4ENTITY_COMMS_MESSAGES@@XZ PROC ; unpack_entity_comms_message, COMDAT

; 5638 : {

  00000	55		 push	 ebp
  00001	8b ec		 mov	 ebp, esp
  00003	83 ec 44	 sub	 esp, 68			; 00000044H
  00006	53		 push	 ebx
  00007	56		 push	 esi
  00008	57		 push	 edi

; 5639 : 	entity_comms_messages
; 5640 : 		message;
; 5641 : 
; 5642 : 	message = (entity_comms_messages) unpack_unsigned_data (NUM_ENTITY_COMMS_MESSAGE_PACK_BITS);

  00009	6a 07		 push	 7
  0000b	e8 00 00 00 00	 call	 ?unpack_unsigned_data@@YGIH@Z ; unpack_unsigned_data
  00010	89 45 fc	 mov	 DWORD PTR _message$[ebp], eax

; 5643 : 
; 5644 : 	ASSERT ((message >= 0) && (message < NUM_ENTITY_COMMS_MESSAGES));

  00013	83 7d fc 00	 cmp	 DWORD PTR _message$[ebp], 0
  00017	7c 06		 jl	 SHORT $LN3@unpack_ent
  00019	83 7d fc 45	 cmp	 DWORD PTR _message$[ebp], 69 ; 00000045H
  0001d	7c 18		 jl	 SHORT $LN2@unpack_ent
$LN3@unpack_ent:
  0001f	a1 00 00 00 00	 mov	 eax, DWORD PTR ?__LINE__Var@?0??unpack_entity_comms_message@@YG?AW4ENTITY_COMMS_MESSAGES@@XZ@4JA
  00024	83 c0 06	 add	 eax, 6
  00027	50		 push	 eax
  00028	68 00 00 00 00	 push	 OFFSET ??_C@_0EO@OCMIKFBI@c?3?2users?2nhv90?2projects?2eech?2ap@
  0002d	68 00 00 00 00	 push	 OFFSET ??_C@_0DI@FBBPJLNA@?$CImessage?5?$DO?$DN?50?$CJ?5?$CG?$CG?5?$CImessage?5?$DM?5NU@
  00032	e8 00 00 00 00	 call	 ?process_assert@@YGXPBD0H@Z ; process_assert
$LN2@unpack_ent:

; 5645 : 
; 5646 : 	#if (DEBUG_MODULE_PACK_ONE || DEBUG_MODULE_PACK_ALL)
; 5647 : 
; 5648 : 	if (entity_comms_message_database[message].debug_pack)
; 5649 : 	{
; 5650 : 		debug_log_entity_args (ENTITY_DEBUG_UNPACK, ENTITY_DEBUG_ENTITY_COMMS_MESSAGE, NULL, message);
; 5651 : 	}
; 5652 : 
; 5653 : 	#endif
; 5654 : 
; 5655 : 	return (message);

  00037	8b 45 fc	 mov	 eax, DWORD PTR _message$[ebp]

; 5656 : }

  0003a	5f		 pop	 edi
  0003b	5e		 pop	 esi
  0003c	5b		 pop	 ebx
  0003d	8b e5		 mov	 esp, ebp
  0003f	5d		 pop	 ebp
  00040	c3		 ret	 0
?unpack_entity_comms_message@@YG?AW4ENTITY_COMMS_MESSAGES@@XZ ENDP ; unpack_entity_comms_message
_TEXT	ENDS
; Function compile flags: /Odtp /ZI
; File c:\users\nhv90\projects\eech\aphavoc\source\entity\system\en_comms\en_comms.c
;	COMDAT ?pack_entity_comms_message@@YGXW4ENTITY_COMMS_MESSAGES@@@Z
_TEXT	SEGMENT
_message$ = 8						; size = 4
?pack_entity_comms_message@@YGXW4ENTITY_COMMS_MESSAGES@@@Z PROC ; pack_entity_comms_message, COMDAT

; 5617 : {

  00000	55		 push	 ebp
  00001	8b ec		 mov	 ebp, esp
  00003	83 ec 40	 sub	 esp, 64			; 00000040H
  00006	53		 push	 ebx
  00007	56		 push	 esi
  00008	57		 push	 edi

; 5618 : 	ASSERT ((message >= 0) && (message < NUM_ENTITY_COMMS_MESSAGES));

  00009	83 7d 08 00	 cmp	 DWORD PTR _message$[ebp], 0
  0000d	7c 06		 jl	 SHORT $LN3@pack_entit
  0000f	83 7d 08 45	 cmp	 DWORD PTR _message$[ebp], 69 ; 00000045H
  00013	7c 18		 jl	 SHORT $LN2@pack_entit
$LN3@pack_entit:
  00015	a1 00 00 00 00	 mov	 eax, DWORD PTR ?__LINE__Var@?0??pack_entity_comms_message@@YGXW4ENTITY_COMMS_MESSAGES@@@Z@4JA
  0001a	83 c0 01	 add	 eax, 1
  0001d	50		 push	 eax
  0001e	68 00 00 00 00	 push	 OFFSET ??_C@_0EO@OCMIKFBI@c?3?2users?2nhv90?2projects?2eech?2ap@
  00023	68 00 00 00 00	 push	 OFFSET ??_C@_0DI@FBBPJLNA@?$CImessage?5?$DO?$DN?50?$CJ?5?$CG?$CG?5?$CImessage?5?$DM?5NU@
  00028	e8 00 00 00 00	 call	 ?process_assert@@YGXPBD0H@Z ; process_assert
$LN2@pack_entit:

; 5619 : 	ASSERT (!(message >> NUM_ENTITY_COMMS_MESSAGE_PACK_BITS));

  0002d	8b 45 08	 mov	 eax, DWORD PTR _message$[ebp]
  00030	c1 f8 07	 sar	 eax, 7
  00033	85 c0		 test	 eax, eax
  00035	74 18		 je	 SHORT $LN4@pack_entit
  00037	a1 00 00 00 00	 mov	 eax, DWORD PTR ?__LINE__Var@?0??pack_entity_comms_message@@YGXW4ENTITY_COMMS_MESSAGES@@@Z@4JA
  0003c	83 c0 02	 add	 eax, 2
  0003f	50		 push	 eax
  00040	68 00 00 00 00	 push	 OFFSET ??_C@_0EO@OCMIKFBI@c?3?2users?2nhv90?2projects?2eech?2ap@
  00045	68 00 00 00 00	 push	 OFFSET ??_C@_0DB@ILMOKKE@?$CB?$CImessage?5?$DO?$DO?5NUM_ENTITY_COMMS_M@
  0004a	e8 00 00 00 00	 call	 ?process_assert@@YGXPBD0H@Z ; process_assert
$LN4@pack_entit:

; 5620 : 
; 5621 : 	#if (DEBUG_MODULE_PACK_ONE || DEBUG_MODULE_PACK_ALL)
; 5622 : 
; 5623 : 	if (entity_comms_message_database[message].debug_pack)
; 5624 : 	{
; 5625 : 		debug_log_entity_args (ENTITY_DEBUG_PACK, ENTITY_DEBUG_ENTITY_COMMS_MESSAGE, NULL, message);
; 5626 : 	}
; 5627 : 
; 5628 : 	#endif
; 5629 : 
; 5630 : 	pack_unsigned_data (message, NUM_ENTITY_COMMS_MESSAGE_PACK_BITS);

  0004f	6a 07		 push	 7
  00051	8b 45 08	 mov	 eax, DWORD PTR _message$[ebp]
  00054	50		 push	 eax
  00055	e8 00 00 00 00	 call	 ?pack_unsigned_data@@YGXIH@Z ; pack_unsigned_data

; 5631 : }

  0005a	5f		 pop	 edi
  0005b	5e		 pop	 esi
  0005c	5b		 pop	 ebx
  0005d	8b e5		 mov	 esp, ebp
  0005f	5d		 pop	 ebp
  00060	c2 04 00	 ret	 4
?pack_entity_comms_message@@YGXW4ENTITY_COMMS_MESSAGES@@@Z ENDP ; pack_entity_comms_message
_TEXT	ENDS
; Function compile flags: /Odtp /ZI
; File c:\users\nhv90\projects\eech\aphavoc\source\entity\system\en_comms\en_comms.c
;	COMDAT ?process_received_entity_comms_messages@@YGXXZ
_TEXT	SEGMENT
tv2404 = -1876						; size = 4
tv2288 = -1876						; size = 4
tv1374 = -1876						; size = 4
tv1256 = -1876						; size = 4
tv2396 = -1872						; size = 4
tv2280 = -1872						; size = 4
tv1366 = -1872						; size = 4
tv1248 = -1872						; size = 4
tv2380 = -1868						; size = 4
tv2264 = -1868						; size = 4
tv2182 = -1868						; size = 4
tv2111 = -1868						; size = 4
tv1358 = -1868						; size = 4
tv1240 = -1868						; size = 4
tv2714 = -1864						; size = 8
tv2372 = -1864						; size = 4
tv2256 = -1864						; size = 4
tv2174 = -1864						; size = 4
tv2103 = -1864						; size = 4
tv1348 = -1864						; size = 4
tv1230 = -1864						; size = 4
tv2486 = -1860						; size = 4
tv2465 = -1860						; size = 4
tv2442 = -1860						; size = 4
tv2356 = -1860						; size = 4
tv2240 = -1860						; size = 4
tv2204 = -1860						; size = 4
tv2161 = -1860						; size = 4
tv2090 = -1860						; size = 4
tv2019 = -1860						; size = 4
tv1857 = -1860						; size = 4
tv1663 = -1860						; size = 4
tv1640 = -1860						; size = 4
tv1620 = -1860						; size = 4
tv1600 = -1860						; size = 4
tv1579 = -1860						; size = 4
tv1559 = -1860						; size = 4
tv1394 = -1860						; size = 4
tv1308 = -1860						; size = 4
tv1276 = -1860						; size = 4
tv1222 = -1860						; size = 4
tv1188 = -1860						; size = 4
tv1168 = -1860						; size = 4
tv1068 = -1860						; size = 4
tv1013 = -1860						; size = 4
tv875 = -1860						; size = 4
tv854 = -1860						; size = 4
tv832 = -1860						; size = 4
tv797 = -1860						; size = 4
tv775 = -1860						; size = 4
tv718 = -1860						; size = 4
tv620 = -1860						; size = 4
tv194 = -1860						; size = 4
tv2711 = -1856						; size = 4
tv2478 = -1856						; size = 4
tv2457 = -1856						; size = 4
tv2433 = -1856						; size = 4
tv2348 = -1856						; size = 4
tv2232 = -1856						; size = 4
tv2196 = -1856						; size = 4
tv2153 = -1856						; size = 4
tv2082 = -1856						; size = 4
tv2069 = -1856						; size = 4
tv2056 = -1856						; size = 4
tv2010 = -1856						; size = 4
tv1986 = -1856						; size = 4
tv1817 = -1856						; size = 4
tv1799 = -1856						; size = 4
tv1763 = -1856						; size = 4
tv1655 = -1856						; size = 4
tv1632 = -1856						; size = 4
tv1612 = -1856						; size = 4
tv1592 = -1856						; size = 4
tv1571 = -1856						; size = 4
tv1551 = -1856						; size = 4
tv1510 = -1856						; size = 4
tv1448 = -1856						; size = 4
tv1430 = -1856						; size = 4
tv1387 = -1856						; size = 4
tv1300 = -1856						; size = 4
tv1269 = -1856						; size = 4
tv1214 = -1856						; size = 4
tv1181 = -1856						; size = 4
tv1161 = -1856						; size = 4
tv1092 = -1856						; size = 4
tv1061 = -1856						; size = 4
tv1006 = -1856						; size = 4
tv867 = -1856						; size = 4
tv846 = -1856						; size = 4
tv824 = -1856						; size = 4
tv789 = -1856						; size = 4
tv767 = -1856						; size = 4
tv747 = -1856						; size = 4
tv733 = -1856						; size = 4
tv709 = -1856						; size = 4
tv611 = -1856						; size = 4
tv590 = -1856						; size = 4
tv577 = -1856						; size = 4
tv564 = -1856						; size = 4
tv185 = -1856						; size = 4
tv152 = -1856						; size = 4
tv134 = -1856						; size = 4
tv72 = -1856						; size = 4
$T1 = -1852						; size = 4
_en$2 = -1592						; size = 4
_en$3 = -1588						; size = 4
_v$4 = -1584						; size = 12
_type$5 = -1572						; size = 4
_en$6 = -1568						; size = 4
_en$7 = -1564						; size = 4
_in_use$8 = -1560					; size = 4
_en$9 = -1556						; size = 4
_en$10 = -1552						; size = 4
_en$11 = -1548						; size = 4
_aggressor$12 = -1544					; size = 4
_victim$13 = -1540					; size = 4
_task_en$14 = -1536					; size = 4
_aggressor$15 = -1532					; size = 4
_victim$16 = -1528					; size = 4
_task_en$17 = -1524					; size = 4
_mobile$18 = -1520					; size = 4
_task$19 = -1516					; size = 4
_en$20 = -1512						; size = 4
_task$21 = -1508					; size = 4
_mobile$22 = -1504					; size = 4
_en$23 = -1500						; size = 4
_type$24 = -1496					; size = 4
_parent$25 = -1492					; size = 4
_en$26 = -1488						; size = 4
_type2$27 = -1484					; size = 4
_type1$28 = -1480					; size = 4
_parent$29 = -1476					; size = 4
_en$30 = -1472						; size = 4
_s$31 = -1468						; size = 256
_type$32 = -1212					; size = 4
_en$33 = -1208						; size = 4
_wp$34 = -1204						; size = 4
_en$35 = -1200						; size = 4
_loop$36 = -1196					; size = 4
_raw$37 = -1192						; size = 4
_en$38 = -1188						; size = 4
_position_entity$39 = -1184				; size = 4
_en$40 = -1180						; size = 4
_value$41 = -1176					; size = 4
_valid$42 = -1172					; size = 4
_type$43 = -1168					; size = 4
_en$44 = -1164						; size = 4
_en$45 = -1160						; size = 4
_target_count$46 = -1156				; size = 4
_index_list$47 = -1152					; size = 4
_loop$48 = -1148					; size = 4
_destination$49 = -1144					; size = 4
_en$50 = -1140						; size = 4
_raw$51 = -1136						; size = 4
_mb$52 = -1132						; size = 4
_group$53 = -1128					; size = 4
_en$54 = -1124						; size = 4
_next_index$55 = -1120					; size = 4
_this_index$56 = -1116					; size = 4
_count$57 = -1112					; size = 4
_sub_route_node$58 = -1108				; size = 4
_type$59 = -1104					; size = 4
_en$60 = -1100						; size = 4
_en$61 = -1096						; size = 4
_pos$62 = -1092						; size = 12
_operational_state$63 = -1080				; size = 4
_en$64 = -1076						; size = 4
_target_count$65 = -1072				; size = 4
_index_list$66 = -1068					; size = 4
_loop$67 = -1064					; size = 4
_destination$68 = -1060					; size = 4
_en$69 = -1056						; size = 4
_en$70 = -1052						; size = 4
_en$71 = -1048						; size = 4
_create_stack_attributes$72 = -1044			; size = 4
_message_value$73 = -1040				; size = 4
_message_type$74 = -1036				; size = 4
_en$75 = -1032						; size = 4
_en$76 = -1028						; size = 4
_task$77 = -1024					; size = 4
_en$78 = -1020						; size = 4
_task$79 = -1016					; size = 4
_victim$80 = -1012					; size = 4
_aggressor$81 = -1008					; size = 4
_speech_index$82 = -1004				; size = 4
_en$83 = -1000						; size = 4
_category_silence_timer$84 = -996			; size = 4
_expire_time$85 = -992					; size = 4
_priority$86 = -988					; size = 4
_speech_category$87 = -984				; size = 4
_speech_index$88 = -980					; size = 4
_en$89 = -976						; size = 4
_speech_index3$90 = -972				; size = 4
_speech_index2$91 = -968				; size = 4
_speech_index1$92 = -964				; size = 4
_en$93 = -960						; size = 4
_destination_id$94 = -956				; size = 4
_pilot_index$95 = -952					; size = 4
_en$96 = -948						; size = 4
_attack_message$97 = -944				; size = 100
_pfz_number$98 = -844					; size = 4
_corner4$99 = -840					; size = 12
_corner3$100 = -828					; size = 12
_corner2$101 = -816					; size = 12
_corner1$102 = -804					; size = 12
_i$103 = -792						; size = 4
_targets$104 = -788					; size = 68
_wingman$105 = -720					; size = 4
_sender$106 = -716					; size = 4
_message$107 = -712					; size = 160
_string$108 = -552					; size = 4
_type$109 = -548					; size = 4
_target$110 = -544					; size = 4
_sender$111 = -540					; size = 4
_weapon_sub_type$112 = -536				; size = 4
_en$113 = -532						; size = 4
_delay$114 = -528					; size = 4
_type$115 = -524					; size = 4
_en$116 = -520						; size = 4
_pos$117 = -516						; size = 12
_wp$118 = -504						; size = 4
_member$119 = -500					; size = 4
_landing_en$120 = -496					; size = 4
_en$121 = -492						; size = 4
_en$122 = -488						; size = 4
_wp$123 = -484						; size = 4
_victim$124 = -480					; size = 4
_en$125 = -476						; size = 4
_create_stack_attributes$126 = -472			; size = 4
_en$127 = -468						; size = 4
_value$128 = -464					; size = 4
_type$129 = -460					; size = 4
_en$130 = -456						; size = 4
_value$131 = -452					; size = 4
_type$132 = -448					; size = 4
_en$133 = -444						; size = 4
_en$134 = -440						; size = 4
_en$135 = -436						; size = 4
_en$136 = -432						; size = 4
_weapon_sub_type$137 = -428				; size = 4
_weapon_package_damaged$138 = -424			; size = 4
_weapon_package_heading_depth$139 = -420		; size = 4
_en$140 = -416						; size = 4
_damage_level$141 = -412				; size = 4
_en$142 = -408						; size = 4
_damage$143 = -404					; size = 4
_random$144 = -400					; size = 4
_en$145 = -396						; size = 4
_smoke_trail_type$146 = -392				; size = 4
_i$147 = -388						; size = 4
_num_smoke_trail_entities$148 = -384			; size = 4
_smoke_trail_indices$149 = -380				; size = 4
_burst_size$150 = -376					; size = 4
_weapon_index$151 = -372				; size = 4
_weapon_sub_type$152 = -368				; size = 4
_launcher$153 = -364					; size = 4
_check_sum$154 = -360					; size = 4
_count$155 = -356					; size = 4
_loop$156 = -352					; size = 4
_waypoint_indices$157 = -348				; size = 4
_return_keysite$158 = -344				; size = 4
_group$159 = -340					; size = 4
_task$160 = -336					; size = 4
_stop$161 = -332					; size = 12
_start$162 = -320					; size = 12
_stop_ptr$163 = -308					; size = 4
_start_ptr$164 = -304					; size = 4
_position$165 = -300					; size = 12
_pos$166 = -288						; size = 4
_pitch$167 = -284					; size = 4
_amp$168 = -280						; size = 4
_create_stack_attributes$169 = -276			; size = 4
_sample_index_list$170 = -272				; size = 4
_sample_count$171 = -268				; size = 4
_valid_position$172 = -264				; size = 4
_looping$173 = -260					; size = 4
_locality$174 = -256					; size = 4
_channel$175 = -252					; size = 4
_side$176 = -248					; size = 4
_valid$177 = -244					; size = 4
_index$178 = -240					; size = 4
_loop$179 = -236					; size = 4
_sub_type$180 = -232					; size = 4
_parent$181 = -228					; size = 4
_entity_index_list$182 = -224				; size = 4
_sub_object_depth$183 = -220				; size = 4
_sub_object_type$184 = -216				; size = 4
_list_count$185 = -212					; size = 4
_loop$186 = -208					; size = 4
_type$187 = -204					; size = 4
_parent$188 = -200					; size = 4
_rel_pos$189 = -196					; size = 12
_entity_index_list$190 = -184				; size = 4
_list_count$191 = -180					; size = 4
_loop$192 = -176					; size = 4
_type$193 = -172					; size = 4
_parent$194 = -168					; size = 4
_position$195 = -164					; size = 12
_entity_index_list$196 = -152				; size = 4
_list_count$197 = -148					; size = 4
_loop$198 = -144					; size = 4
_type$199 = -140					; size = 4
_parent$200 = -136					; size = 4
_num_bytes$201 = -132					; size = 4
_index$202 = -128					; size = 4
_type$203 = -124					; size = 4
_value$204 = -117					; size = 1
_type$205 = -116					; size = 4
_en$206 = -112						; size = 4
_side$207 = -108					; size = 4
_en$208 = -104						; size = 4
_complete$209 = -100					; size = 4
_side$210 = -96						; size = 4
_en$211 = -92						; size = 4
_attitude$212 = -88					; size = 36
_en$213 = -52						; size = 4
_roll$214 = -48						; size = 4
_pitch$215 = -44					; size = 4
_heading$216 = -40					; size = 4
_en$217 = -36						; size = 4
_en$218 = -32						; size = 4
_create_stack_attributes$219 = -28			; size = 4
_pos$220 = -24						; size = 12
_wp$221 = -12						; size = 4
_message$ = -8						; size = 4
_done$ = -4						; size = 4
?process_received_entity_comms_messages@@YGXXZ PROC	; process_received_entity_comms_messages, COMDAT

; 2890 : {

  00000	55		 push	 ebp
  00001	8b ec		 mov	 ebp, esp
  00003	81 ec 54 07 00
	00		 sub	 esp, 1876		; 00000754H
  00009	53		 push	 ebx
  0000a	56		 push	 esi
  0000b	57		 push	 edi

; 2891 : 	int
; 2892 : 		done;
; 2893 : 
; 2894 : 	entity_comms_messages
; 2895 : 		message;
; 2896 : 
; 2897 : 	////////////////////////////////////////
; 2898 : 	//
; 2899 : 	// trap single player
; 2900 : 	//
; 2901 : 	////////////////////////////////////////
; 2902 : 
; 2903 : 	ASSERT (direct_play_get_comms_mode () == DIRECT_PLAY_COMMS_MODE_MULTI);

  0000c	83 3d 00 00 00
	00 01		 cmp	 DWORD PTR ?direct_play_comms_mode@@3W4DIRECT_PLAY_COMMS_MODE_TYPES@@A, 1 ; direct_play_comms_mode
  00013	74 18		 je	 SHORT $LN52@process_re
  00015	a1 00 00 00 00	 mov	 eax, DWORD PTR ?__LINE__Var@?0??process_received_entity_comms_messages@@YGXXZ@4JA
  0001a	83 c0 0d	 add	 eax, 13			; 0000000dH
  0001d	50		 push	 eax
  0001e	68 00 00 00 00	 push	 OFFSET ??_C@_0EO@OCMIKFBI@c?3?2users?2nhv90?2projects?2eech?2ap@
  00023	68 00 00 00 00	 push	 OFFSET ??_C@_0DO@NKOCAKEK@direct_play_get_comms_mode?5?$CI?$CJ?5?$DN@
  00028	e8 00 00 00 00	 call	 ?process_assert@@YGXPBD0H@Z ; process_assert
$LN52@process_re:

; 2904 : 
; 2905 : 	////////////////////////////////////////
; 2906 : 	//
; 2907 : 	// process messages
; 2908 : 	//
; 2909 : 	////////////////////////////////////////
; 2910 : 
; 2911 : 	set_comms_data_flow (COMMS_DATA_FLOW_RX);

  0002d	6a 01		 push	 1
  0002f	e8 00 00 00 00	 call	 ?set_comms_data_flow@@YGXW4COMMS_DATA_FLOW_TYPES@@@Z ; set_comms_data_flow

; 2912 : 
; 2913 : 	done = FALSE;

  00034	c7 45 fc 00 00
	00 00		 mov	 DWORD PTR _done$[ebp], 0
$LN2@process_re:

; 2914 : 
; 2915 : 	while (!done)

  0003b	83 7d fc 00	 cmp	 DWORD PTR _done$[ebp], 0
  0003f	0f 85 39 44 00
	00		 jne	 $LN3@process_re

; 2916 : 	{
; 2917 : 		message = unpack_entity_comms_message ();

  00045	e8 00 00 00 00	 call	 ?unpack_entity_comms_message@@YG?AW4ENTITY_COMMS_MESSAGES@@XZ ; unpack_entity_comms_message
  0004a	89 45 f8	 mov	 DWORD PTR _message$[ebp], eax

; 2918 : 
; 2919 : 		switch (message)

  0004d	8b 45 f8	 mov	 eax, DWORD PTR _message$[ebp]
  00050	89 85 c0 f8 ff
	ff		 mov	 DWORD PTR tv72[ebp], eax
  00056	83 bd c0 f8 ff
	ff 44		 cmp	 DWORD PTR tv72[ebp], 68	; 00000044H
  0005d	0f 87 05 44 00
	00		 ja	 $LN230@process_re
  00063	8b 8d c0 f8 ff
	ff		 mov	 ecx, DWORD PTR tv72[ebp]
  00069	ff 24 8d 00 00
	00 00		 jmp	 DWORD PTR $LN432@process_re[ecx*4]
$LN53@process_re:

; 2920 : 		{
; 2921 : 			////////////////////////////////////////
; 2922 : 			case ENTITY_COMMS_ZERO:
; 2923 : 			////////////////////////////////////////
; 2924 : 			{
; 2925 : 				debug_fatal ("ENTITY_COMMS_ZERO encountered during receive");

  00070	68 00 00 00 00	 push	 OFFSET ??_C@_0CN@KOHHCGAN@ENTITY_COMMS_ZERO?5encountered?5d@
  00075	e8 00 00 00 00	 call	 ?debug_fatal@@YAXPBDZZ	; debug_fatal
  0007a	83 c4 04	 add	 esp, 4

; 2926 : 
; 2927 : 				break;

  0007d	e9 f7 43 00 00	 jmp	 $LN4@process_re
$LN54@process_re:

; 2928 : 			}
; 2929 : 			////////////////////////////////////////
; 2930 : 			case ENTITY_COMMS_ADD_PLANNER_WAYPOINT:
; 2931 : 			////////////////////////////////////////
; 2932 : 			{
; 2933 : 				entity
; 2934 : 					*wp;
; 2935 : 
; 2936 : 				vec3d
; 2937 : 					pos;
; 2938 : 
; 2939 : 				int
; 2940 : 					create_stack_attributes;
; 2941 : 
; 2942 : 				ASSERT (get_comms_model () == COMMS_MODEL_SERVER);

  00082	83 3d 00 00 00
	00 00		 cmp	 DWORD PTR ?system_comms_model@@3W4COMMS_MODEL_TYPES@@A, 0 ; system_comms_model
  00089	74 18		 je	 SHORT $LN55@process_re
  0008b	a1 00 00 00 00	 mov	 eax, DWORD PTR ?__LINE__Var@?0??process_received_entity_comms_messages@@YGXXZ@4JA
  00090	83 c0 34	 add	 eax, 52			; 00000034H
  00093	50		 push	 eax
  00094	68 00 00 00 00	 push	 OFFSET ??_C@_0EO@OCMIKFBI@c?3?2users?2nhv90?2projects?2eech?2ap@
  00099	68 00 00 00 00	 push	 OFFSET ??_C@_0CJ@DMBLBJBK@get_comms_model?5?$CI?$CJ?5?$DN?$DN?5COMMS_MOD@
  0009e	e8 00 00 00 00	 call	 ?process_assert@@YGXPBD0H@Z ; process_assert
$LN55@process_re:

; 2943 : 
; 2944 : 				wp = unpack_entity_safe_ptr ();

  000a3	e8 00 00 00 00	 call	 ?unpack_entity_safe_ptr@@YGPAUENTITY@@XZ ; unpack_entity_safe_ptr
  000a8	89 45 f4	 mov	 DWORD PTR _wp$221[ebp], eax

; 2945 : 
; 2946 : 				unpack_vec3d (wp, VEC3D_TYPE_POSITION, &pos);

  000ab	8d 45 e8	 lea	 eax, DWORD PTR _pos$220[ebp]
  000ae	50		 push	 eax
  000af	6a 08		 push	 8
  000b1	8b 4d f4	 mov	 ecx, DWORD PTR _wp$221[ebp]
  000b4	51		 push	 ecx
  000b5	e8 00 00 00 00	 call	 ?unpack_vec3d@@YGXPAUENTITY@@W4VEC3D_TYPES@@PAUVEC3D@@@Z ; unpack_vec3d

; 2947 : 
; 2948 : 				#if DEBUG_MODULE_MESSAGE_TEXT
; 2949 : 
; 2950 : 				debug_log ("EN_COMMS: received add planner waypoint at %f, %f, %f", pos.x, pos.y, pos.z);
; 2951 : 
; 2952 : 				#endif
; 2953 : 
; 2954 : 				create_stack_attributes = force_local_entity_create_stack_attributes;

  000ba	a1 00 00 00 00	 mov	 eax, DWORD PTR ?force_local_entity_create_stack_attributes@@3HA ; force_local_entity_create_stack_attributes
  000bf	89 45 e4	 mov	 DWORD PTR _create_stack_attributes$219[ebp], eax

; 2955 : 
; 2956 : 				set_force_local_entity_create_stack_attributes (TRUE);

  000c2	c7 05 00 00 00
	00 01 00 00 00	 mov	 DWORD PTR ?force_local_entity_create_stack_attributes@@3HA, 1 ; force_local_entity_create_stack_attributes

; 2957 : 
; 2958 : 				map_add_waypoint (wp, &pos);

  000cc	8d 45 e8	 lea	 eax, DWORD PTR _pos$220[ebp]
  000cf	50		 push	 eax
  000d0	8b 4d f4	 mov	 ecx, DWORD PTR _wp$221[ebp]
  000d3	51		 push	 ecx
  000d4	e8 00 00 00 00	 call	 ?map_add_waypoint@@YGXPAUENTITY@@PAUVEC3D@@@Z ; map_add_waypoint

; 2959 : 
; 2960 : 				set_force_local_entity_create_stack_attributes (create_stack_attributes);

  000d9	8b 45 e4	 mov	 eax, DWORD PTR _create_stack_attributes$219[ebp]
  000dc	a3 00 00 00 00	 mov	 DWORD PTR ?force_local_entity_create_stack_attributes@@3HA, eax ; force_local_entity_create_stack_attributes

; 2961 : 
; 2962 : 				break;

  000e1	e9 93 43 00 00	 jmp	 $LN4@process_re
$LN56@process_re:

; 2963 : 			}
; 2964 : 			////////////////////////////////////////
; 2965 : 			case ENTITY_COMMS_ADVISE_TRANSMIT_RECON:
; 2966 : 			////////////////////////////////////////
; 2967 : 			{
; 2968 : 				entity
; 2969 : 					*en;
; 2970 : 
; 2971 : 				en = unpack_entity_safe_ptr ();

  000e6	e8 00 00 00 00	 call	 ?unpack_entity_safe_ptr@@YGPAUENTITY@@XZ ; unpack_entity_safe_ptr
  000eb	89 45 e0	 mov	 DWORD PTR _en$218[ebp], eax

; 2972 : 
; 2973 : 				#if DEBUG_MODULE_MESSAGE_TEXT
; 2974 : 
; 2975 : 				debug_log ("EN_COMMS: received advise transmit recon");
; 2976 : 
; 2977 : 				#endif
; 2978 : 
; 2979 : 				if (en == get_gunship_entity ())

  000ee	8b 45 e0	 mov	 eax, DWORD PTR _en$218[ebp]
  000f1	3b 05 00 00 00
	00		 cmp	 eax, DWORD PTR ?gunship_entity@@3PAUENTITY@@A ; gunship_entity
  000f7	75 12		 jne	 SHORT $LN57@process_re

; 2980 : 				{
; 2981 : 					set_status_message (get_trans ("ADVISE_TRANSMIT_RECON"), STATUS_MESSAGE_TYPE_ALERT);

  000f9	6a 01		 push	 1
  000fb	68 00 00 00 00	 push	 OFFSET ??_C@_0BG@PFNEBFLH@ADVISE_TRANSMIT_RECON@
  00100	e8 00 00 00 00	 call	 ?get_trans@@YGPBDPBD@Z	; get_trans
  00105	50		 push	 eax
  00106	e8 00 00 00 00	 call	 ?set_status_message@@YGXPBDW4STATUS_MESSAGE_TYPES@@@Z ; set_status_message
$LN57@process_re:

; 2982 : 				}
; 2983 : 
; 2984 : 				break;

  0010b	e9 69 43 00 00	 jmp	 $LN4@process_re
$LN58@process_re:

; 2985 : 			}
; 2986 : 			////////////////////////////////////////
; 2987 : 			case ENTITY_COMMS_ATTITUDE_ANGLES:
; 2988 : 			////////////////////////////////////////
; 2989 : 			{
; 2990 : 				entity
; 2991 : 					*en;
; 2992 : 
; 2993 : 				float
; 2994 : 					heading,
; 2995 : 					pitch,
; 2996 : 					roll;
; 2997 : 
; 2998 : 				en = unpack_entity_safe_ptr ();

  00110	e8 00 00 00 00	 call	 ?unpack_entity_safe_ptr@@YGPAUENTITY@@XZ ; unpack_entity_safe_ptr
  00115	89 45 dc	 mov	 DWORD PTR _en$217[ebp], eax

; 2999 : 
; 3000 : 				unpack_attitude_angles (en, &heading, &pitch, &roll);

  00118	8d 45 d0	 lea	 eax, DWORD PTR _roll$214[ebp]
  0011b	50		 push	 eax
  0011c	8d 4d d4	 lea	 ecx, DWORD PTR _pitch$215[ebp]
  0011f	51		 push	 ecx
  00120	8d 55 d8	 lea	 edx, DWORD PTR _heading$216[ebp]
  00123	52		 push	 edx
  00124	8b 45 dc	 mov	 eax, DWORD PTR _en$217[ebp]
  00127	50		 push	 eax
  00128	e8 00 00 00 00	 call	 ?unpack_attitude_angles@@YGXPAUENTITY@@PAM11@Z ; unpack_attitude_angles

; 3001 : 
; 3002 : 				set_client_server_entity_attitude_angles (en, heading, pitch, roll);

  0012d	83 7d dc 00	 cmp	 DWORD PTR _en$217[ebp], 0
  00131	74 0d		 je	 SHORT $LN232@process_re
  00133	8b 45 dc	 mov	 eax, DWORD PTR _en$217[ebp]
  00136	8b 08		 mov	 ecx, DWORD PTR [eax]
  00138	89 8d c0 f8 ff
	ff		 mov	 DWORD PTR tv134[ebp], ecx
  0013e	eb 24		 jmp	 SHORT $LN233@process_re
$LN232@process_re:
  00140	8b 15 00 00 00
	00		 mov	 edx, DWORD PTR ?__LINE__Var@?0??process_received_entity_comms_messages@@YGXXZ@4JA
  00146	83 c2 70	 add	 edx, 112		; 00000070H
  00149	52		 push	 edx
  0014a	68 00 00 00 00	 push	 OFFSET ??_C@_0EO@OCMIKFBI@c?3?2users?2nhv90?2projects?2eech?2ap@
  0014f	a1 00 00 00 00	 mov	 eax, DWORD PTR ?null_entity_pointer_message@@3PBDB ; null_entity_pointer_message
  00154	50		 push	 eax
  00155	e8 00 00 00 00	 call	 ?process_assert@@YGXPBD0H@Z ; process_assert
  0015a	c7 85 c0 f8 ff
	ff 00 00 00 00	 mov	 DWORD PTR tv134[ebp], 0
$LN233@process_re:
  00164	51		 push	 ecx
  00165	f3 0f 10 45 d0	 movss	 xmm0, DWORD PTR _roll$214[ebp]
  0016a	f3 0f 11 04 24	 movss	 DWORD PTR [esp], xmm0
  0016f	51		 push	 ecx
  00170	f3 0f 10 45 d4	 movss	 xmm0, DWORD PTR _pitch$215[ebp]
  00175	f3 0f 11 04 24	 movss	 DWORD PTR [esp], xmm0
  0017a	51		 push	 ecx
  0017b	f3 0f 10 45 d8	 movss	 xmm0, DWORD PTR _heading$216[ebp]
  00180	f3 0f 11 04 24	 movss	 DWORD PTR [esp], xmm0
  00185	8b 4d dc	 mov	 ecx, DWORD PTR _en$217[ebp]
  00188	51		 push	 ecx
  00189	8b 15 00 00 00
	00		 mov	 edx, DWORD PTR ?system_comms_model@@3W4COMMS_MODEL_TYPES@@A ; system_comms_model
  0018f	c1 e2 02	 shl	 edx, 2
  00192	8b 85 c0 f8 ff
	ff		 mov	 eax, DWORD PTR tv134[ebp]
  00198	8b 8c c2 00 00
	00 00		 mov	 ecx, DWORD PTR ?fn_set_client_server_entity_attitude_angles@@3PAY01P6GXPAUENTITY@@MMM@ZA[edx+eax*8]
  0019f	ff d1		 call	 ecx

; 3003 : 
; 3004 : 				#if DEBUG_MODULE_MESSAGE_TEXT
; 3005 : 
; 3006 : 				debug_log ("EN_COMMS: received attitude angle for %s (%d)", get_local_entity_type_name (en), get_local_entity_index (en));
; 3007 : 
; 3008 : 				#endif
; 3009 : 
; 3010 : 				break;

  001a1	e9 d3 42 00 00	 jmp	 $LN4@process_re
$LN59@process_re:

; 3011 : 			}
; 3012 : 			////////////////////////////////////////
; 3013 : 			case ENTITY_COMMS_ATTITUDE_MATRIX:
; 3014 : 			////////////////////////////////////////
; 3015 : 			{
; 3016 : 				entity
; 3017 : 					*en;
; 3018 : 
; 3019 : 				matrix3x3
; 3020 : 					attitude;
; 3021 : 
; 3022 : 				en = unpack_entity_safe_ptr ();

  001a6	e8 00 00 00 00	 call	 ?unpack_entity_safe_ptr@@YGPAUENTITY@@XZ ; unpack_entity_safe_ptr
  001ab	89 45 cc	 mov	 DWORD PTR _en$213[ebp], eax

; 3023 : 
; 3024 : 				unpack_attitude_matrix (en, attitude);

  001ae	8d 45 a8	 lea	 eax, DWORD PTR _attitude$212[ebp]
  001b1	50		 push	 eax
  001b2	8b 4d cc	 mov	 ecx, DWORD PTR _en$213[ebp]
  001b5	51		 push	 ecx
  001b6	e8 00 00 00 00	 call	 ?unpack_attitude_matrix@@YGXPAUENTITY@@QAY02M@Z ; unpack_attitude_matrix

; 3025 : 
; 3026 : 				set_client_server_entity_attitude_matrix (en, attitude);

  001bb	83 7d cc 00	 cmp	 DWORD PTR _en$213[ebp], 0
  001bf	74 0d		 je	 SHORT $LN234@process_re
  001c1	8b 45 cc	 mov	 eax, DWORD PTR _en$213[ebp]
  001c4	8b 08		 mov	 ecx, DWORD PTR [eax]
  001c6	89 8d c0 f8 ff
	ff		 mov	 DWORD PTR tv152[ebp], ecx
  001cc	eb 27		 jmp	 SHORT $LN235@process_re
$LN234@process_re:
  001ce	8b 15 00 00 00
	00		 mov	 edx, DWORD PTR ?__LINE__Var@?0??process_received_entity_comms_messages@@YGXXZ@4JA
  001d4	81 c2 88 00 00
	00		 add	 edx, 136		; 00000088H
  001da	52		 push	 edx
  001db	68 00 00 00 00	 push	 OFFSET ??_C@_0EO@OCMIKFBI@c?3?2users?2nhv90?2projects?2eech?2ap@
  001e0	a1 00 00 00 00	 mov	 eax, DWORD PTR ?null_entity_pointer_message@@3PBDB ; null_entity_pointer_message
  001e5	50		 push	 eax
  001e6	e8 00 00 00 00	 call	 ?process_assert@@YGXPBD0H@Z ; process_assert
  001eb	c7 85 c0 f8 ff
	ff 00 00 00 00	 mov	 DWORD PTR tv152[ebp], 0
$LN235@process_re:
  001f5	8d 4d a8	 lea	 ecx, DWORD PTR _attitude$212[ebp]
  001f8	51		 push	 ecx
  001f9	8b 55 cc	 mov	 edx, DWORD PTR _en$213[ebp]
  001fc	52		 push	 edx
  001fd	a1 00 00 00 00	 mov	 eax, DWORD PTR ?system_comms_model@@3W4COMMS_MODEL_TYPES@@A ; system_comms_model
  00202	c1 e0 02	 shl	 eax, 2
  00205	8b 8d c0 f8 ff
	ff		 mov	 ecx, DWORD PTR tv152[ebp]
  0020b	8b 94 c8 00 00
	00 00		 mov	 edx, DWORD PTR ?fn_set_client_server_entity_attitude_matrix@@3PAY01P6GXPAUENTITY@@QAY02M@ZA[eax+ecx*8]
  00212	ff d2		 call	 edx

; 3027 : 
; 3028 : 				#if DEBUG_MODULE_MESSAGE_TEXT
; 3029 : 
; 3030 : 				debug_log ("EN_COMMS: received attitude matrix for %s (%d)", get_local_entity_type_name (en), get_local_entity_index (en));
; 3031 : 
; 3032 : 				#endif
; 3033 : 
; 3034 : 				break;

  00214	e9 60 42 00 00	 jmp	 $LN4@process_re
$LN60@process_re:

; 3035 : 			}
; 3036 : 			////////////////////////////////////////
; 3037 : 			case ENTITY_COMMS_CAMPAIGN_COMPLETED:
; 3038 : 			////////////////////////////////////////
; 3039 : 			{
; 3040 : 				//
; 3041 : 				// (entity_comms_messages message, entity *en, int side)
; 3042 : 				//
; 3043 : 
; 3044 : 				entity
; 3045 : 					*en;
; 3046 : 
; 3047 : 				entity_sides
; 3048 : 					side;
; 3049 : 
; 3050 : 				campaign_completed_types
; 3051 : 					complete;
; 3052 : 
; 3053 : 				en = unpack_entity_safe_ptr ();

  00219	e8 00 00 00 00	 call	 ?unpack_entity_safe_ptr@@YGPAUENTITY@@XZ ; unpack_entity_safe_ptr
  0021e	89 45 a4	 mov	 DWORD PTR _en$211[ebp], eax

; 3054 : 
; 3055 : 				side = (entity_sides) unpack_int_value (en, INT_TYPE_SIDE);

  00221	68 bb 00 00 00	 push	 187			; 000000bbH
  00226	8b 45 a4	 mov	 eax, DWORD PTR _en$211[ebp]
  00229	50		 push	 eax
  0022a	e8 00 00 00 00	 call	 ?unpack_int_value@@YGHPAUENTITY@@W4INT_TYPES@@@Z ; unpack_int_value
  0022f	89 45 a0	 mov	 DWORD PTR _side$210[ebp], eax

; 3056 : 
; 3057 : 				complete = (campaign_completed_types) unpack_int_value (en, INT_TYPE_SESSION_COMPLETE);

  00232	68 ba 00 00 00	 push	 186			; 000000baH
  00237	8b 45 a4	 mov	 eax, DWORD PTR _en$211[ebp]
  0023a	50		 push	 eax
  0023b	e8 00 00 00 00	 call	 ?unpack_int_value@@YGHPAUENTITY@@W4INT_TYPES@@@Z ; unpack_int_value
  00240	89 45 9c	 mov	 DWORD PTR _complete$209[ebp], eax

; 3058 : 
; 3059 : 				campaign_completed (side, complete);

  00243	8b 45 9c	 mov	 eax, DWORD PTR _complete$209[ebp]
  00246	50		 push	 eax
  00247	8b 4d a0	 mov	 ecx, DWORD PTR _side$210[ebp]
  0024a	51		 push	 ecx
  0024b	e8 00 00 00 00	 call	 ?campaign_completed@@YGXW4ENTITY_SIDES@@W4CAMPAIGN_COMPLETED_TYPES@@@Z ; campaign_completed

; 3060 : 
; 3061 : 				#if DEBUG_MODULE_MESSAGE_TEXT
; 3062 : 
; 3063 : 				debug_log ("EN_COMMS: received campaign completed by %s", entity_side_names [side]);
; 3064 : 
; 3065 : 				#endif
; 3066 : 
; 3067 : 				break;

  00250	e9 24 42 00 00	 jmp	 $LN4@process_re
$LN61@process_re:

; 3068 : 			}
; 3069 : 			////////////////////////////////////////
; 3070 : 			case ENTITY_COMMS_CAPTURE_KEYSITE:
; 3071 : 			////////////////////////////////////////
; 3072 : 			{
; 3073 : 				//
; 3074 : 				// (entity_comms_messages message, entity *en, int side)
; 3075 : 				//
; 3076 : 
; 3077 : 				entity
; 3078 : 					*en;
; 3079 : 
; 3080 : 				entity_sides
; 3081 : 					side;
; 3082 : 
; 3083 : 				en = unpack_entity_safe_ptr ();

  00255	e8 00 00 00 00	 call	 ?unpack_entity_safe_ptr@@YGPAUENTITY@@XZ ; unpack_entity_safe_ptr
  0025a	89 45 98	 mov	 DWORD PTR _en$208[ebp], eax

; 3084 : 
; 3085 : 				side = (entity_sides) unpack_int_value (en, INT_TYPE_SIDE);

  0025d	68 bb 00 00 00	 push	 187			; 000000bbH
  00262	8b 45 98	 mov	 eax, DWORD PTR _en$208[ebp]
  00265	50		 push	 eax
  00266	e8 00 00 00 00	 call	 ?unpack_int_value@@YGHPAUENTITY@@W4INT_TYPES@@@Z ; unpack_int_value
  0026b	89 45 94	 mov	 DWORD PTR _side$207[ebp], eax

; 3086 : 
; 3087 : 				change_local_keysite_building_sides (en, side);

  0026e	8b 45 94	 mov	 eax, DWORD PTR _side$207[ebp]
  00271	50		 push	 eax
  00272	8b 4d 98	 mov	 ecx, DWORD PTR _en$208[ebp]
  00275	51		 push	 ecx
  00276	e8 00 00 00 00	 call	 ?change_local_keysite_building_sides@@YGXPAUENTITY@@W4ENTITY_SIDES@@@Z ; change_local_keysite_building_sides

; 3088 : 
; 3089 : 				#if DEBUG_MODULE_MESSAGE_TEXT
; 3090 : 
; 3091 : 				debug_log ("EN_COMMS: received captured keysite for %s", entity_side_names [side]);
; 3092 : 
; 3093 : 				#endif
; 3094 : 
; 3095 : 				break;

  0027b	e9 f9 41 00 00	 jmp	 $LN4@process_re
$LN62@process_re:

; 3096 : 			}
; 3097 : 			////////////////////////////////////////
; 3098 : 			case ENTITY_COMMS_CHAR_VALUE:
; 3099 : 			////////////////////////////////////////
; 3100 : 			{
; 3101 : 				entity
; 3102 : 					*en;
; 3103 : 
; 3104 : 				char_types
; 3105 : 					type;
; 3106 : 
; 3107 : 				char
; 3108 : 					value;
; 3109 : 
; 3110 : 				en = unpack_entity_safe_ptr ();

  00280	e8 00 00 00 00	 call	 ?unpack_entity_safe_ptr@@YGPAUENTITY@@XZ ; unpack_entity_safe_ptr
  00285	89 45 90	 mov	 DWORD PTR _en$206[ebp], eax

; 3111 : 
; 3112 : 				type = unpack_char_type ();

  00288	e8 00 00 00 00	 call	 ?unpack_char_type@@YG?AW4CHAR_TYPES@@XZ ; unpack_char_type
  0028d	89 45 8c	 mov	 DWORD PTR _type$205[ebp], eax

; 3113 : 
; 3114 : 				value = unpack_char_value (en, type);

  00290	8b 45 8c	 mov	 eax, DWORD PTR _type$205[ebp]
  00293	50		 push	 eax
  00294	8b 4d 90	 mov	 ecx, DWORD PTR _en$206[ebp]
  00297	51		 push	 ecx
  00298	e8 00 00 00 00	 call	 ?unpack_char_value@@YGDPAUENTITY@@W4CHAR_TYPES@@@Z ; unpack_char_value
  0029d	88 45 8b	 mov	 BYTE PTR _value$204[ebp], al

; 3115 : 
; 3116 : 				set_client_server_entity_char_value (en, type, value);

  002a0	83 7d 90 00	 cmp	 DWORD PTR _en$206[ebp], 0
  002a4	74 0d		 je	 SHORT $LN236@process_re
  002a6	8b 45 90	 mov	 eax, DWORD PTR _en$206[ebp]
  002a9	8b 08		 mov	 ecx, DWORD PTR [eax]
  002ab	89 8d c0 f8 ff
	ff		 mov	 DWORD PTR tv185[ebp], ecx
  002b1	eb 27		 jmp	 SHORT $LN237@process_re
$LN236@process_re:
  002b3	8b 15 00 00 00
	00		 mov	 edx, DWORD PTR ?__LINE__Var@?0??process_received_entity_comms_messages@@YGXXZ@4JA
  002b9	81 c2 e2 00 00
	00		 add	 edx, 226		; 000000e2H
  002bf	52		 push	 edx
  002c0	68 00 00 00 00	 push	 OFFSET ??_C@_0EO@OCMIKFBI@c?3?2users?2nhv90?2projects?2eech?2ap@
  002c5	a1 00 00 00 00	 mov	 eax, DWORD PTR ?null_entity_pointer_message@@3PBDB ; null_entity_pointer_message
  002ca	50		 push	 eax
  002cb	e8 00 00 00 00	 call	 ?process_assert@@YGXPBD0H@Z ; process_assert
  002d0	c7 85 c0 f8 ff
	ff 00 00 00 00	 mov	 DWORD PTR tv185[ebp], 0
$LN237@process_re:
  002da	83 7d 8c 00	 cmp	 DWORD PTR _type$205[ebp], 0
  002de	7c 11		 jl	 SHORT $LN238@process_re
  002e0	83 7d 8c 02	 cmp	 DWORD PTR _type$205[ebp], 2
  002e4	7d 0b		 jge	 SHORT $LN238@process_re
  002e6	8b 4d 8c	 mov	 ecx, DWORD PTR _type$205[ebp]
  002e9	89 8d bc f8 ff
	ff		 mov	 DWORD PTR tv194[ebp], ecx
  002ef	eb 27		 jmp	 SHORT $LN239@process_re
$LN238@process_re:
  002f1	8b 15 00 00 00
	00		 mov	 edx, DWORD PTR ?__LINE__Var@?0??process_received_entity_comms_messages@@YGXXZ@4JA
  002f7	81 c2 e2 00 00
	00		 add	 edx, 226		; 000000e2H
  002fd	52		 push	 edx
  002fe	68 00 00 00 00	 push	 OFFSET ??_C@_0EO@OCMIKFBI@c?3?2users?2nhv90?2projects?2eech?2ap@
  00303	a1 00 00 00 00	 mov	 eax, DWORD PTR ?overload_invalid_char_type_message@@3PBDB ; overload_invalid_char_type_message
  00308	50		 push	 eax
  00309	e8 00 00 00 00	 call	 ?process_assert@@YGXPBD0H@Z ; process_assert
  0030e	c7 85 bc f8 ff
	ff 00 00 00 00	 mov	 DWORD PTR tv194[ebp], 0
$LN239@process_re:
  00318	0f b6 4d 8b	 movzx	 ecx, BYTE PTR _value$204[ebp]
  0031c	51		 push	 ecx
  0031d	8b 55 8c	 mov	 edx, DWORD PTR _type$205[ebp]
  00320	52		 push	 edx
  00321	8b 45 90	 mov	 eax, DWORD PTR _en$206[ebp]
  00324	50		 push	 eax
  00325	8b 8d c0 f8 ff
	ff		 mov	 ecx, DWORD PTR tv185[ebp]
  0032b	c1 e1 04	 shl	 ecx, 4
  0032e	8b 95 bc f8 ff
	ff		 mov	 edx, DWORD PTR tv194[ebp]
  00334	8d 84 d1 00 00
	00 00		 lea	 eax, DWORD PTR ?fn_set_client_server_entity_char_value@@3PAY111P6GXPAUENTITY@@W4CHAR_TYPES@@D@ZA[ecx+edx*8]
  0033b	8b 0d 00 00 00
	00		 mov	 ecx, DWORD PTR ?system_comms_model@@3W4COMMS_MODEL_TYPES@@A ; system_comms_model
  00341	8b 14 88	 mov	 edx, DWORD PTR [eax+ecx*4]
  00344	ff d2		 call	 edx

; 3117 : 
; 3118 : 				#if DEBUG_MODULE_MESSAGE_TEXT
; 3119 : 
; 3120 : 				debug_log ("EN_COMMS: received char for %s (%d)", get_local_entity_type_name (en), get_local_entity_index (en));
; 3121 : 
; 3122 : 				#endif
; 3123 : 
; 3124 : 				break;

  00346	e9 2e 41 00 00	 jmp	 $LN4@process_re
$LN63@process_re:

; 3125 : 			}
; 3126 : 			////////////////////////////////////////
; 3127 : 			case ENTITY_COMMS_CREATE:
; 3128 : 			////////////////////////////////////////
; 3129 : 			{
; 3130 : 				entity_types
; 3131 : 					type;
; 3132 : 
; 3133 : 				int
; 3134 : 					index,
; 3135 : 					num_bytes;
; 3136 : 
; 3137 : 				type = unpack_entity_type ();

  0034b	e8 00 00 00 00	 call	 ?unpack_entity_type@@YG?AW4ENTITY_TYPES@@XZ ; unpack_entity_type
  00350	89 45 84	 mov	 DWORD PTR _type$203[ebp], eax

; 3138 : 
; 3139 : 				index = unpack_entity_safe_index ();

  00353	e8 00 00 00 00	 call	 ?unpack_entity_safe_index@@YGHXZ ; unpack_entity_safe_index
  00358	89 45 80	 mov	 DWORD PTR _index$202[ebp], eax

; 3140 : 
; 3141 : 				num_bytes = unpack_entity_attributes (attribute_buffer);

  0035b	68 00 00 00 00	 push	 OFFSET ?attribute_buffer@@3PADA
  00360	e8 00 00 00 00	 call	 ?unpack_entity_attributes@@YGHPAD@Z ; unpack_entity_attributes
  00365	89 85 7c ff ff
	ff		 mov	 DWORD PTR _num_bytes$201[ebp], eax

; 3142 : 
; 3143 : 				ASSERT (num_bytes <= ATTRIBUTE_BUFFER_SIZE);

  0036b	81 bd 7c ff ff
	ff e8 03 00 00	 cmp	 DWORD PTR _num_bytes$201[ebp], 1000 ; 000003e8H
  00375	7e 1a		 jle	 SHORT $LN64@process_re
  00377	a1 00 00 00 00	 mov	 eax, DWORD PTR ?__LINE__Var@?0??process_received_entity_comms_messages@@YGXXZ@4JA
  0037c	05 fd 00 00 00	 add	 eax, 253		; 000000fdH
  00381	50		 push	 eax
  00382	68 00 00 00 00	 push	 OFFSET ??_C@_0EO@OCMIKFBI@c?3?2users?2nhv90?2projects?2eech?2ap@
  00387	68 00 00 00 00	 push	 OFFSET ??_C@_0CD@GAOMIKLP@num_bytes?5?$DM?$DN?5ATTRIBUTE_BUFFER_S@
  0038c	e8 00 00 00 00	 call	 ?process_assert@@YGXPBD0H@Z ; process_assert
$LN64@process_re:

; 3144 : 
; 3145 : 				create_client_server_entity (type, index, attribute_buffer);

  00391	68 00 00 00 00	 push	 OFFSET ?attribute_buffer@@3PADA
  00396	8b 45 80	 mov	 eax, DWORD PTR _index$202[ebp]
  00399	50		 push	 eax
  0039a	8b 4d 84	 mov	 ecx, DWORD PTR _type$203[ebp]
  0039d	51		 push	 ecx
  0039e	e8 00 00 00 00	 call	 ?create_client_server_entity@@YAPAUENTITY@@W4ENTITY_TYPES@@HZZ ; create_client_server_entity
  003a3	83 c4 0c	 add	 esp, 12			; 0000000cH

; 3146 : 
; 3147 : 				#if DEBUG_MODULE_MESSAGE_TEXT
; 3148 : 
; 3149 : 				debug_log ("EN_COMMS: received create for %s (index %d)", entity_type_names [type], index);
; 3150 : 
; 3151 : 				#endif
; 3152 : 
; 3153 : 				break;

  003a6	e9 ce 40 00 00	 jmp	 $LN4@process_re
$LN65@process_re:

; 3154 : 			}
; 3155 : 			////////////////////////////////////////
; 3156 : 			case ENTITY_COMMS_CREATE_META_EXPLOSION:
; 3157 : 			////////////////////////////////////////
; 3158 : 			{
; 3159 : 				entity
; 3160 : 					*parent;
; 3161 : 
; 3162 : 				meta_explosion_types
; 3163 : 					type;
; 3164 : 
; 3165 : 				int
; 3166 : 					loop,
; 3167 : 					list_count,
; 3168 : 					*entity_index_list;
; 3169 : 
; 3170 : 				vec3d
; 3171 : 					position;
; 3172 : 
; 3173 : 				type = (meta_explosion_types) unpack_int_value (NULL, INT_TYPE_META_EXPLOSION_TYPE);

  003ab	68 88 00 00 00	 push	 136			; 00000088H
  003b0	6a 00		 push	 0
  003b2	e8 00 00 00 00	 call	 ?unpack_int_value@@YGHPAUENTITY@@W4INT_TYPES@@@Z ; unpack_int_value
  003b7	89 85 74 ff ff
	ff		 mov	 DWORD PTR _type$199[ebp], eax

; 3174 : 
; 3175 : 				unpack_vec3d (NULL, VEC3D_TYPE_POSITION, &position);

  003bd	8d 85 5c ff ff
	ff		 lea	 eax, DWORD PTR _position$195[ebp]
  003c3	50		 push	 eax
  003c4	6a 08		 push	 8
  003c6	6a 00		 push	 0
  003c8	e8 00 00 00 00	 call	 ?unpack_vec3d@@YGXPAUENTITY@@W4VEC3D_TYPES@@PAUVEC3D@@@Z ; unpack_vec3d

; 3176 : 
; 3177 : 				parent = unpack_entity_safe_ptr ();

  003cd	e8 00 00 00 00	 call	 ?unpack_entity_safe_ptr@@YGPAUENTITY@@XZ ; unpack_entity_safe_ptr
  003d2	89 85 78 ff ff
	ff		 mov	 DWORD PTR _parent$200[ebp], eax

; 3178 : 
; 3179 : 				list_count = count_entities_in_meta_explosion (type);

  003d8	8b 85 74 ff ff
	ff		 mov	 eax, DWORD PTR _type$199[ebp]
  003de	50		 push	 eax
  003df	e8 00 00 00 00	 call	 ?count_entities_in_meta_explosion@@YGHW4META_EXPLOSION_TYPES@@@Z ; count_entities_in_meta_explosion
  003e4	89 85 6c ff ff
	ff		 mov	 DWORD PTR _list_count$197[ebp], eax

; 3180 : 
; 3181 : 				entity_index_list = (int *) malloc_fast_mem (sizeof (int) * list_count);

  003ea	8b 85 6c ff ff
	ff		 mov	 eax, DWORD PTR _list_count$197[ebp]
  003f0	c1 e0 02	 shl	 eax, 2
  003f3	50		 push	 eax
  003f4	e8 00 00 00 00	 call	 ?malloc_fast_memory@@YGPAXI@Z ; malloc_fast_memory
  003f9	89 85 68 ff ff
	ff		 mov	 DWORD PTR _entity_index_list$196[ebp], eax

; 3182 : 
; 3183 : 				for (loop = 0; loop < list_count; loop ++)

  003ff	c7 85 70 ff ff
	ff 00 00 00 00	 mov	 DWORD PTR _loop$198[ebp], 0
  00409	eb 0f		 jmp	 SHORT $LN8@process_re
$LN6@process_re:
  0040b	8b 85 70 ff ff
	ff		 mov	 eax, DWORD PTR _loop$198[ebp]
  00411	83 c0 01	 add	 eax, 1
  00414	89 85 70 ff ff
	ff		 mov	 DWORD PTR _loop$198[ebp], eax
$LN8@process_re:
  0041a	8b 85 70 ff ff
	ff		 mov	 eax, DWORD PTR _loop$198[ebp]
  00420	3b 85 6c ff ff
	ff		 cmp	 eax, DWORD PTR _list_count$197[ebp]
  00426	7d 16		 jge	 SHORT $LN7@process_re

; 3184 : 				{
; 3185 : 					entity_index_list [loop] = unpack_entity_safe_index ();

  00428	e8 00 00 00 00	 call	 ?unpack_entity_safe_index@@YGHXZ ; unpack_entity_safe_index
  0042d	8b 8d 70 ff ff
	ff		 mov	 ecx, DWORD PTR _loop$198[ebp]
  00433	8b 95 68 ff ff
	ff		 mov	 edx, DWORD PTR _entity_index_list$196[ebp]
  00439	89 04 8a	 mov	 DWORD PTR [edx+ecx*4], eax

; 3186 : 				}

  0043c	eb cd		 jmp	 SHORT $LN6@process_re
$LN7@process_re:

; 3187 : 
; 3188 : 				create_meta_explosion (type, &position, parent, entity_index_list);

  0043e	8b 85 68 ff ff
	ff		 mov	 eax, DWORD PTR _entity_index_list$196[ebp]
  00444	50		 push	 eax
  00445	8b 8d 78 ff ff
	ff		 mov	 ecx, DWORD PTR _parent$200[ebp]
  0044b	51		 push	 ecx
  0044c	8d 95 5c ff ff
	ff		 lea	 edx, DWORD PTR _position$195[ebp]
  00452	52		 push	 edx
  00453	8b 85 74 ff ff
	ff		 mov	 eax, DWORD PTR _type$199[ebp]
  00459	50		 push	 eax
  0045a	e8 00 00 00 00	 call	 ?create_meta_explosion@@YGHW4META_EXPLOSION_TYPES@@PAUVEC3D@@PAUENTITY@@PAH@Z ; create_meta_explosion

; 3189 : 
; 3190 : 				free_mem (entity_index_list);

  0045f	8b 85 68 ff ff
	ff		 mov	 eax, DWORD PTR _entity_index_list$196[ebp]
  00465	50		 push	 eax
  00466	e8 00 00 00 00	 call	 ?free_mem@@YGXPAX@Z	; free_mem

; 3191 : 
; 3192 : 				#if DEBUG_MODULE_MESSAGE_TEXT
; 3193 : 
; 3194 : 				if (parent)
; 3195 : 				{
; 3196 : 
; 3197 : 					debug_log ("EN_COMMS: received create meta explosion for %s (%d)", entity_type_names [parent->type], get_local_entity_index (parent));
; 3198 : 				}
; 3199 : 				else
; 3200 : 				{
; 3201 : 
; 3202 : 					debug_log ("EN_COMMS: received create meta explosion");
; 3203 : 				}
; 3204 : 
; 3205 : 				#endif
; 3206 : 
; 3207 : 				break;

  0046b	e9 09 40 00 00	 jmp	 $LN4@process_re
$LN66@process_re:

; 3208 : 			}
; 3209 : 			////////////////////////////////////////
; 3210 : 			case ENTITY_COMMS_CREATE_META_SMOKE_LIST_SPECIFIED_OFFSET:
; 3211 : 			////////////////////////////////////////
; 3212 : 			{
; 3213 : 				entity
; 3214 : 					*parent;
; 3215 : 
; 3216 : 				meta_smoke_list_types
; 3217 : 					type;
; 3218 : 
; 3219 : 				int
; 3220 : 					loop,
; 3221 : 					list_count,
; 3222 : 					*entity_index_list;
; 3223 : 
; 3224 : 				vec3d
; 3225 : 					rel_pos;
; 3226 : 
; 3227 : 				type = (meta_smoke_list_types) unpack_int_value (NULL, INT_TYPE_META_SMOKE_LIST_TYPE);

  00470	68 89 00 00 00	 push	 137			; 00000089H
  00475	6a 00		 push	 0
  00477	e8 00 00 00 00	 call	 ?unpack_int_value@@YGHPAUENTITY@@W4INT_TYPES@@@Z ; unpack_int_value
  0047c	89 85 54 ff ff
	ff		 mov	 DWORD PTR _type$193[ebp], eax

; 3228 : 
; 3229 : 				parent = unpack_entity_safe_ptr ();

  00482	e8 00 00 00 00	 call	 ?unpack_entity_safe_ptr@@YGPAUENTITY@@XZ ; unpack_entity_safe_ptr
  00487	89 85 58 ff ff
	ff		 mov	 DWORD PTR _parent$194[ebp], eax

; 3230 : 
; 3231 : 				if (parent)

  0048d	83 bd 58 ff ff
	ff 00		 cmp	 DWORD PTR _parent$194[ebp], 0
  00494	74 12		 je	 SHORT $LN67@process_re

; 3232 : 				{
; 3233 : 					unpack_vec3d (NULL, VEC3D_TYPE_RELATIVE_POSITION, &rel_pos);

  00496	8d 85 3c ff ff
	ff		 lea	 eax, DWORD PTR _rel_pos$189[ebp]
  0049c	50		 push	 eax
  0049d	6a 09		 push	 9
  0049f	6a 00		 push	 0
  004a1	e8 00 00 00 00	 call	 ?unpack_vec3d@@YGXPAUENTITY@@W4VEC3D_TYPES@@PAUVEC3D@@@Z ; unpack_vec3d

; 3234 : 				}
; 3235 : 				else

  004a6	eb 10		 jmp	 SHORT $LN68@process_re
$LN67@process_re:

; 3236 : 				{
; 3237 : 					unpack_vec3d (NULL, VEC3D_TYPE_POSITION, &rel_pos);

  004a8	8d 85 3c ff ff
	ff		 lea	 eax, DWORD PTR _rel_pos$189[ebp]
  004ae	50		 push	 eax
  004af	6a 08		 push	 8
  004b1	6a 00		 push	 0
  004b3	e8 00 00 00 00	 call	 ?unpack_vec3d@@YGXPAUENTITY@@W4VEC3D_TYPES@@PAUVEC3D@@@Z ; unpack_vec3d
$LN68@process_re:

; 3238 : 				}
; 3239 : 
; 3240 : 				list_count = count_entities_in_meta_smoke_list (type);

  004b8	8b 85 54 ff ff
	ff		 mov	 eax, DWORD PTR _type$193[ebp]
  004be	50		 push	 eax
  004bf	e8 00 00 00 00	 call	 ?count_entities_in_meta_smoke_list@@YGHW4META_SMOKE_LIST_TYPES@@@Z ; count_entities_in_meta_smoke_list
  004c4	89 85 4c ff ff
	ff		 mov	 DWORD PTR _list_count$191[ebp], eax

; 3241 : 
; 3242 : 				entity_index_list = (int *) malloc_fast_mem (sizeof (int) * list_count);

  004ca	8b 85 4c ff ff
	ff		 mov	 eax, DWORD PTR _list_count$191[ebp]
  004d0	c1 e0 02	 shl	 eax, 2
  004d3	50		 push	 eax
  004d4	e8 00 00 00 00	 call	 ?malloc_fast_memory@@YGPAXI@Z ; malloc_fast_memory
  004d9	89 85 48 ff ff
	ff		 mov	 DWORD PTR _entity_index_list$190[ebp], eax

; 3243 : 
; 3244 : 				for (loop = 0; loop < list_count; loop ++)

  004df	c7 85 50 ff ff
	ff 00 00 00 00	 mov	 DWORD PTR _loop$192[ebp], 0
  004e9	eb 0f		 jmp	 SHORT $LN11@process_re
$LN9@process_re:
  004eb	8b 85 50 ff ff
	ff		 mov	 eax, DWORD PTR _loop$192[ebp]
  004f1	83 c0 01	 add	 eax, 1
  004f4	89 85 50 ff ff
	ff		 mov	 DWORD PTR _loop$192[ebp], eax
$LN11@process_re:
  004fa	8b 85 50 ff ff
	ff		 mov	 eax, DWORD PTR _loop$192[ebp]
  00500	3b 85 4c ff ff
	ff		 cmp	 eax, DWORD PTR _list_count$191[ebp]
  00506	7d 16		 jge	 SHORT $LN10@process_re

; 3245 : 				{
; 3246 : 					entity_index_list [loop] = unpack_entity_safe_index ();

  00508	e8 00 00 00 00	 call	 ?unpack_entity_safe_index@@YGHXZ ; unpack_entity_safe_index
  0050d	8b 8d 50 ff ff
	ff		 mov	 ecx, DWORD PTR _loop$192[ebp]
  00513	8b 95 48 ff ff
	ff		 mov	 edx, DWORD PTR _entity_index_list$190[ebp]
  00519	89 04 8a	 mov	 DWORD PTR [edx+ecx*4], eax

; 3247 : 				}

  0051c	eb cd		 jmp	 SHORT $LN9@process_re
$LN10@process_re:

; 3248 : 
; 3249 : 				create_meta_smoke_list_specified_offset (type, parent, &rel_pos, entity_index_list);

  0051e	8b 85 48 ff ff
	ff		 mov	 eax, DWORD PTR _entity_index_list$190[ebp]
  00524	50		 push	 eax
  00525	8d 8d 3c ff ff
	ff		 lea	 ecx, DWORD PTR _rel_pos$189[ebp]
  0052b	51		 push	 ecx
  0052c	8b 95 58 ff ff
	ff		 mov	 edx, DWORD PTR _parent$194[ebp]
  00532	52		 push	 edx
  00533	8b 85 54 ff ff
	ff		 mov	 eax, DWORD PTR _type$193[ebp]
  00539	50		 push	 eax
  0053a	e8 00 00 00 00	 call	 ?create_meta_smoke_list_specified_offset@@YGHW4META_SMOKE_LIST_TYPES@@PAUENTITY@@PAUVEC3D@@PAH@Z ; create_meta_smoke_list_specified_offset

; 3250 : 
; 3251 : 				free_mem (entity_index_list);

  0053f	8b 85 48 ff ff
	ff		 mov	 eax, DWORD PTR _entity_index_list$190[ebp]
  00545	50		 push	 eax
  00546	e8 00 00 00 00	 call	 ?free_mem@@YGXPAX@Z	; free_mem

; 3252 : 
; 3253 : 				#if DEBUG_MODULE_MESSAGE_TEXT
; 3254 : 
; 3255 : 				if (parent)
; 3256 : 				{
; 3257 : 
; 3258 : 					debug_log ("EN_COMMS: received create smoke list ( spec offset ) for %s (%d)", entity_type_names [parent->type], get_local_entity_index (parent));
; 3259 : 				}
; 3260 : 				else
; 3261 : 				{
; 3262 : 
; 3263 : 					debug_log ("EN_COMMS: received create smoke list ( sub offset )");
; 3264 : 				}
; 3265 : 
; 3266 : 				#endif
; 3267 : 
; 3268 : 				break;

  0054b	e9 29 3f 00 00	 jmp	 $LN4@process_re
$LN69@process_re:

; 3269 : 			}
; 3270 : 			////////////////////////////////////////
; 3271 : 			case ENTITY_COMMS_CREATE_META_SMOKE_LIST_SUB_OBJECT_OFFSET:
; 3272 : 			////////////////////////////////////////
; 3273 : 			{
; 3274 : 				entity
; 3275 : 					*parent;
; 3276 : 
; 3277 : 				meta_smoke_list_types
; 3278 : 					type;
; 3279 : 
; 3280 : 				int
; 3281 : 					loop,
; 3282 : 					list_count,
; 3283 : 					sub_object_type,
; 3284 : 					sub_object_depth,
; 3285 : 					*entity_index_list;
; 3286 : 
; 3287 : 				type = (meta_smoke_list_types) unpack_int_value (NULL, INT_TYPE_META_SMOKE_LIST_TYPE);

  00550	68 89 00 00 00	 push	 137			; 00000089H
  00555	6a 00		 push	 0
  00557	e8 00 00 00 00	 call	 ?unpack_int_value@@YGHPAUENTITY@@W4INT_TYPES@@@Z ; unpack_int_value
  0055c	89 85 34 ff ff
	ff		 mov	 DWORD PTR _type$187[ebp], eax

; 3288 : 
; 3289 : 				parent = unpack_entity_safe_ptr ();

  00562	e8 00 00 00 00	 call	 ?unpack_entity_safe_ptr@@YGPAUENTITY@@XZ ; unpack_entity_safe_ptr
  00567	89 85 38 ff ff
	ff		 mov	 DWORD PTR _parent$188[ebp], eax

; 3290 : 
; 3291 : 				sub_object_type = unpack_int_value (NULL, INT_TYPE_SUB_OBJECT_TYPE);

  0056d	68 ce 00 00 00	 push	 206			; 000000ceH
  00572	6a 00		 push	 0
  00574	e8 00 00 00 00	 call	 ?unpack_int_value@@YGHPAUENTITY@@W4INT_TYPES@@@Z ; unpack_int_value
  00579	89 85 28 ff ff
	ff		 mov	 DWORD PTR _sub_object_type$184[ebp], eax

; 3292 : 
; 3293 : 				sub_object_depth = unpack_int_value (NULL, INT_TYPE_SUB_OBJECT_DEPTH);

  0057f	68 cd 00 00 00	 push	 205			; 000000cdH
  00584	6a 00		 push	 0
  00586	e8 00 00 00 00	 call	 ?unpack_int_value@@YGHPAUENTITY@@W4INT_TYPES@@@Z ; unpack_int_value
  0058b	89 85 24 ff ff
	ff		 mov	 DWORD PTR _sub_object_depth$183[ebp], eax

; 3294 : 
; 3295 : 				list_count = count_entities_in_meta_smoke_list (type);

  00591	8b 85 34 ff ff
	ff		 mov	 eax, DWORD PTR _type$187[ebp]
  00597	50		 push	 eax
  00598	e8 00 00 00 00	 call	 ?count_entities_in_meta_smoke_list@@YGHW4META_SMOKE_LIST_TYPES@@@Z ; count_entities_in_meta_smoke_list
  0059d	89 85 2c ff ff
	ff		 mov	 DWORD PTR _list_count$185[ebp], eax

; 3296 : 
; 3297 : 				entity_index_list = (int *) malloc_fast_mem (sizeof (int) * list_count);

  005a3	8b 85 2c ff ff
	ff		 mov	 eax, DWORD PTR _list_count$185[ebp]
  005a9	c1 e0 02	 shl	 eax, 2
  005ac	50		 push	 eax
  005ad	e8 00 00 00 00	 call	 ?malloc_fast_memory@@YGPAXI@Z ; malloc_fast_memory
  005b2	89 85 20 ff ff
	ff		 mov	 DWORD PTR _entity_index_list$182[ebp], eax

; 3298 : 
; 3299 : 				for (loop = 0; loop < list_count; loop ++)

  005b8	c7 85 30 ff ff
	ff 00 00 00 00	 mov	 DWORD PTR _loop$186[ebp], 0
  005c2	eb 0f		 jmp	 SHORT $LN14@process_re
$LN12@process_re:
  005c4	8b 85 30 ff ff
	ff		 mov	 eax, DWORD PTR _loop$186[ebp]
  005ca	83 c0 01	 add	 eax, 1
  005cd	89 85 30 ff ff
	ff		 mov	 DWORD PTR _loop$186[ebp], eax
$LN14@process_re:
  005d3	8b 85 30 ff ff
	ff		 mov	 eax, DWORD PTR _loop$186[ebp]
  005d9	3b 85 2c ff ff
	ff		 cmp	 eax, DWORD PTR _list_count$185[ebp]
  005df	7d 16		 jge	 SHORT $LN13@process_re

; 3300 : 				{
; 3301 : 					entity_index_list [loop] = unpack_entity_safe_index ();

  005e1	e8 00 00 00 00	 call	 ?unpack_entity_safe_index@@YGHXZ ; unpack_entity_safe_index
  005e6	8b 8d 30 ff ff
	ff		 mov	 ecx, DWORD PTR _loop$186[ebp]
  005ec	8b 95 20 ff ff
	ff		 mov	 edx, DWORD PTR _entity_index_list$182[ebp]
  005f2	89 04 8a	 mov	 DWORD PTR [edx+ecx*4], eax

; 3302 : 				}

  005f5	eb cd		 jmp	 SHORT $LN12@process_re
$LN13@process_re:

; 3303 : 
; 3304 : 				create_meta_smoke_list_sub_object_offset (type, parent, sub_object_type, sub_object_depth, entity_index_list);

  005f7	8b 85 20 ff ff
	ff		 mov	 eax, DWORD PTR _entity_index_list$182[ebp]
  005fd	50		 push	 eax
  005fe	8b 8d 24 ff ff
	ff		 mov	 ecx, DWORD PTR _sub_object_depth$183[ebp]
  00604	51		 push	 ecx
  00605	8b 95 28 ff ff
	ff		 mov	 edx, DWORD PTR _sub_object_type$184[ebp]
  0060b	52		 push	 edx
  0060c	8b 85 38 ff ff
	ff		 mov	 eax, DWORD PTR _parent$188[ebp]
  00612	50		 push	 eax
  00613	8b 8d 34 ff ff
	ff		 mov	 ecx, DWORD PTR _type$187[ebp]
  00619	51		 push	 ecx
  0061a	e8 00 00 00 00	 call	 ?create_meta_smoke_list_sub_object_offset@@YGHW4META_SMOKE_LIST_TYPES@@PAUENTITY@@HHPAH@Z ; create_meta_smoke_list_sub_object_offset

; 3305 : 
; 3306 : 				free_mem (entity_index_list);

  0061f	8b 85 20 ff ff
	ff		 mov	 eax, DWORD PTR _entity_index_list$182[ebp]
  00625	50		 push	 eax
  00626	e8 00 00 00 00	 call	 ?free_mem@@YGXPAX@Z	; free_mem

; 3307 : 
; 3308 : 				#if DEBUG_MODULE_MESSAGE_TEXT
; 3309 : 
; 3310 : 				if (parent)
; 3311 : 				{
; 3312 : 
; 3313 : 					debug_log ("EN_COMMS: received create smoke list ( spec offset ) for %s (%d)", entity_type_names [parent->type], get_local_entity_index (parent));
; 3314 : 				}
; 3315 : 				else
; 3316 : 				{
; 3317 : 
; 3318 : 					debug_log ("EN_COMMS: received create smoke list ( sub offset )");
; 3319 : 				}
; 3320 : 
; 3321 : 				#endif
; 3322 : 
; 3323 : 				break;

  0062b	e9 49 3e 00 00	 jmp	 $LN4@process_re
$LN70@process_re:

; 3324 : 			}
; 3325 : 			////////////////////////////////////////
; 3326 : 			case ENTITY_COMMS_CREATE_SOUND_EFFECT:
; 3327 : 			////////////////////////////////////////
; 3328 : 			{
; 3329 : 				entity
; 3330 : 					*parent;
; 3331 : 
; 3332 : 				entity_sub_types
; 3333 : 					sub_type;
; 3334 : 
; 3335 : 				int
; 3336 : 					loop,
; 3337 : 					index,
; 3338 : 					valid,
; 3339 : 					side,
; 3340 : 					channel,
; 3341 : 					locality,
; 3342 : 					looping,
; 3343 : 					valid_position,
; 3344 : 					sample_count,
; 3345 : 					*sample_index_list,
; 3346 : 					create_stack_attributes;
; 3347 : 
; 3348 : 				float
; 3349 : 					amp, pitch;
; 3350 : 
; 3351 : 				vec3d
; 3352 : 					*pos,
; 3353 : 					position;
; 3354 : 
; 3355 : 				index = unpack_entity_safe_index ();

  00630	e8 00 00 00 00	 call	 ?unpack_entity_safe_index@@YGHXZ ; unpack_entity_safe_index
  00635	89 85 10 ff ff
	ff		 mov	 DWORD PTR _index$178[ebp], eax

; 3356 : 
; 3357 : 				parent = unpack_entity_safe_ptr ();

  0063b	e8 00 00 00 00	 call	 ?unpack_entity_safe_ptr@@YGPAUENTITY@@XZ ; unpack_entity_safe_ptr
  00640	89 85 1c ff ff
	ff		 mov	 DWORD PTR _parent$181[ebp], eax

; 3358 : 
; 3359 : 				side = unpack_int_value (NULL, INT_TYPE_SIDE);

  00646	68 bb 00 00 00	 push	 187			; 000000bbH
  0064b	6a 00		 push	 0
  0064d	e8 00 00 00 00	 call	 ?unpack_int_value@@YGHPAUENTITY@@W4INT_TYPES@@@Z ; unpack_int_value
  00652	89 85 08 ff ff
	ff		 mov	 DWORD PTR _side$176[ebp], eax

; 3360 : 
; 3361 : 				sub_type = unpack_int_value (NULL, INT_TYPE_ENTITY_SUB_TYPE);

  00658	6a 34		 push	 52			; 00000034H
  0065a	6a 00		 push	 0
  0065c	e8 00 00 00 00	 call	 ?unpack_int_value@@YGHPAUENTITY@@W4INT_TYPES@@@Z ; unpack_int_value
  00661	89 85 18 ff ff
	ff		 mov	 DWORD PTR _sub_type$180[ebp], eax

; 3362 : 
; 3363 : 				channel = unpack_int_value (NULL, INT_TYPE_SOUND_CHANNEL);

  00667	68 c0 00 00 00	 push	 192			; 000000c0H
  0066c	6a 00		 push	 0
  0066e	e8 00 00 00 00	 call	 ?unpack_int_value@@YGHPAUENTITY@@W4INT_TYPES@@@Z ; unpack_int_value
  00673	89 85 04 ff ff
	ff		 mov	 DWORD PTR _channel$175[ebp], eax

; 3364 : 
; 3365 : 				locality = unpack_int_value (NULL, INT_TYPE_SOUND_LOCALITY);

  00679	68 c7 00 00 00	 push	 199			; 000000c7H
  0067e	6a 00		 push	 0
  00680	e8 00 00 00 00	 call	 ?unpack_int_value@@YGHPAUENTITY@@W4INT_TYPES@@@Z ; unpack_int_value
  00685	89 85 00 ff ff
	ff		 mov	 DWORD PTR _locality$174[ebp], eax

; 3366 : 
; 3367 : 				valid_position = unpack_int_value (NULL, INT_TYPE_VALID);

  0068b	68 ef 00 00 00	 push	 239			; 000000efH
  00690	6a 00		 push	 0
  00692	e8 00 00 00 00	 call	 ?unpack_int_value@@YGHPAUENTITY@@W4INT_TYPES@@@Z ; unpack_int_value
  00697	89 85 f8 fe ff
	ff		 mov	 DWORD PTR _valid_position$172[ebp], eax

; 3368 : 
; 3369 : 				if (valid_position)

  0069d	83 bd f8 fe ff
	ff 00		 cmp	 DWORD PTR _valid_position$172[ebp], 0
  006a4	74 1e		 je	 SHORT $LN71@process_re

; 3370 : 				{
; 3371 : 					unpack_vec3d (NULL, VEC3D_TYPE_POSITION, &position);

  006a6	8d 85 d4 fe ff
	ff		 lea	 eax, DWORD PTR _position$165[ebp]
  006ac	50		 push	 eax
  006ad	6a 08		 push	 8
  006af	6a 00		 push	 0
  006b1	e8 00 00 00 00	 call	 ?unpack_vec3d@@YGXPAUENTITY@@W4VEC3D_TYPES@@PAUVEC3D@@@Z ; unpack_vec3d

; 3372 : 
; 3373 : 					pos = &position;

  006b6	8d 85 d4 fe ff
	ff		 lea	 eax, DWORD PTR _position$165[ebp]
  006bc	89 85 e0 fe ff
	ff		 mov	 DWORD PTR _pos$166[ebp], eax

; 3374 : 				}
; 3375 : 				else

  006c2	eb 0a		 jmp	 SHORT $LN72@process_re
$LN71@process_re:

; 3376 : 				{
; 3377 : 					pos = NULL;

  006c4	c7 85 e0 fe ff
	ff 00 00 00 00	 mov	 DWORD PTR _pos$166[ebp], 0
$LN72@process_re:

; 3378 : 				}
; 3379 : 
; 3380 : 				amp = unpack_float_value (NULL, FLOAT_TYPE_AMPLIFICATION);

  006ce	6a 09		 push	 9
  006d0	6a 00		 push	 0
  006d2	e8 00 00 00 00	 call	 ?unpack_float_value@@YGMPAUENTITY@@W4FLOAT_TYPES@@@Z ; unpack_float_value
  006d7	d9 9d e8 fe ff
	ff		 fstp	 DWORD PTR _amp$168[ebp]

; 3381 : 
; 3382 : 				pitch = unpack_float_value (NULL, FLOAT_TYPE_SOUNDPITCH);

  006dd	6a 0a		 push	 10			; 0000000aH
  006df	6a 00		 push	 0
  006e1	e8 00 00 00 00	 call	 ?unpack_float_value@@YGMPAUENTITY@@W4FLOAT_TYPES@@@Z ; unpack_float_value
  006e6	d9 9d e4 fe ff
	ff		 fstp	 DWORD PTR _pitch$167[ebp]

; 3383 : 
; 3384 : 				valid = unpack_int_value (NULL, INT_TYPE_VALID_SOUND_EFFECT);

  006ec	68 f1 00 00 00	 push	 241			; 000000f1H
  006f1	6a 00		 push	 0
  006f3	e8 00 00 00 00	 call	 ?unpack_int_value@@YGHPAUENTITY@@W4INT_TYPES@@@Z ; unpack_int_value
  006f8	89 85 0c ff ff
	ff		 mov	 DWORD PTR _valid$177[ebp], eax

; 3385 : 
; 3386 : 				looping = unpack_int_value (NULL, INT_TYPE_SOUND_EFFECT_LOOPING);

  006fe	68 c2 00 00 00	 push	 194			; 000000c2H
  00703	6a 00		 push	 0
  00705	e8 00 00 00 00	 call	 ?unpack_int_value@@YGHPAUENTITY@@W4INT_TYPES@@@Z ; unpack_int_value
  0070a	89 85 fc fe ff
	ff		 mov	 DWORD PTR _looping$173[ebp], eax

; 3387 : 
; 3388 : 				sample_count = unpack_int_value (NULL, INT_TYPE_SOUND_EFFECT_SEQUENCE_COUNT);

  00710	68 c5 00 00 00	 push	 197			; 000000c5H
  00715	6a 00		 push	 0
  00717	e8 00 00 00 00	 call	 ?unpack_int_value@@YGHPAUENTITY@@W4INT_TYPES@@@Z ; unpack_int_value
  0071c	89 85 f4 fe ff
	ff		 mov	 DWORD PTR _sample_count$171[ebp], eax

; 3389 : 
; 3390 : 				ASSERT (sample_count > 0);

  00722	83 bd f4 fe ff
	ff 00		 cmp	 DWORD PTR _sample_count$171[ebp], 0
  00729	7f 1a		 jg	 SHORT $LN73@process_re
  0072b	a1 00 00 00 00	 mov	 eax, DWORD PTR ?__LINE__Var@?0??process_received_entity_comms_messages@@YGXXZ@4JA
  00730	05 f4 01 00 00	 add	 eax, 500		; 000001f4H
  00735	50		 push	 eax
  00736	68 00 00 00 00	 push	 OFFSET ??_C@_0EO@OCMIKFBI@c?3?2users?2nhv90?2projects?2eech?2ap@
  0073b	68 00 00 00 00	 push	 OFFSET ??_C@_0BB@CNAIJEEO@sample_count?5?$DO?50@
  00740	e8 00 00 00 00	 call	 ?process_assert@@YGXPBD0H@Z ; process_assert
$LN73@process_re:

; 3391 : 
; 3392 : 				sample_index_list = (int *) malloc_fast_mem (sizeof (sound_sample_indices) * sample_count);

  00745	8b 85 f4 fe ff
	ff		 mov	 eax, DWORD PTR _sample_count$171[ebp]
  0074b	c1 e0 02	 shl	 eax, 2
  0074e	50		 push	 eax
  0074f	e8 00 00 00 00	 call	 ?malloc_fast_memory@@YGPAXI@Z ; malloc_fast_memory
  00754	89 85 f0 fe ff
	ff		 mov	 DWORD PTR _sample_index_list$170[ebp], eax

; 3393 : 
; 3394 : 				for (loop = 0; loop < sample_count; loop ++)

  0075a	c7 85 14 ff ff
	ff 00 00 00 00	 mov	 DWORD PTR _loop$179[ebp], 0
  00764	eb 0f		 jmp	 SHORT $LN17@process_re
$LN15@process_re:
  00766	8b 85 14 ff ff
	ff		 mov	 eax, DWORD PTR _loop$179[ebp]
  0076c	83 c0 01	 add	 eax, 1
  0076f	89 85 14 ff ff
	ff		 mov	 DWORD PTR _loop$179[ebp], eax
$LN17@process_re:
  00775	8b 85 14 ff ff
	ff		 mov	 eax, DWORD PTR _loop$179[ebp]
  0077b	3b 85 f4 fe ff
	ff		 cmp	 eax, DWORD PTR _sample_count$171[ebp]
  00781	7d 1d		 jge	 SHORT $LN16@process_re

; 3395 : 				{
; 3396 : 					sample_index_list [loop] = unpack_int_value (NULL, INT_TYPE_SOUND_EFFECT_INDEX);

  00783	68 c1 00 00 00	 push	 193			; 000000c1H
  00788	6a 00		 push	 0
  0078a	e8 00 00 00 00	 call	 ?unpack_int_value@@YGHPAUENTITY@@W4INT_TYPES@@@Z ; unpack_int_value
  0078f	8b 8d 14 ff ff
	ff		 mov	 ecx, DWORD PTR _loop$179[ebp]
  00795	8b 95 f0 fe ff
	ff		 mov	 edx, DWORD PTR _sample_index_list$170[ebp]
  0079b	89 04 8a	 mov	 DWORD PTR [edx+ecx*4], eax

; 3397 : 				}

  0079e	eb c6		 jmp	 SHORT $LN15@process_re
$LN16@process_re:

; 3398 : 
; 3399 : 				create_stack_attributes = force_local_entity_create_stack_attributes;

  007a0	a1 00 00 00 00	 mov	 eax, DWORD PTR ?force_local_entity_create_stack_attributes@@3HA ; force_local_entity_create_stack_attributes
  007a5	89 85 ec fe ff
	ff		 mov	 DWORD PTR _create_stack_attributes$169[ebp], eax

; 3400 : 
; 3401 : 				set_force_local_entity_create_stack_attributes (TRUE);

  007ab	c7 05 00 00 00
	00 01 00 00 00	 mov	 DWORD PTR ?force_local_entity_create_stack_attributes@@3HA, 1 ; force_local_entity_create_stack_attributes

; 3402 : 
; 3403 : 				create_local_sound_effect_entity

  007b5	8b 85 f0 fe ff
	ff		 mov	 eax, DWORD PTR _sample_index_list$170[ebp]
  007bb	50		 push	 eax
  007bc	8b 8d f4 fe ff
	ff		 mov	 ecx, DWORD PTR _sample_count$171[ebp]
  007c2	51		 push	 ecx
  007c3	8b 95 fc fe ff
	ff		 mov	 edx, DWORD PTR _looping$173[ebp]
  007c9	52		 push	 edx
  007ca	8b 85 0c ff ff
	ff		 mov	 eax, DWORD PTR _valid$177[ebp]
  007d0	50		 push	 eax
  007d1	51		 push	 ecx
  007d2	f3 0f 10 85 e4
	fe ff ff	 movss	 xmm0, DWORD PTR _pitch$167[ebp]
  007da	f3 0f 11 04 24	 movss	 DWORD PTR [esp], xmm0
  007df	51		 push	 ecx
  007e0	f3 0f 10 85 e8
	fe ff ff	 movss	 xmm0, DWORD PTR _amp$168[ebp]
  007e8	f3 0f 11 04 24	 movss	 DWORD PTR [esp], xmm0
  007ed	8b 8d e0 fe ff
	ff		 mov	 ecx, DWORD PTR _pos$166[ebp]
  007f3	51		 push	 ecx
  007f4	8b 95 00 ff ff
	ff		 mov	 edx, DWORD PTR _locality$174[ebp]
  007fa	52		 push	 edx
  007fb	8b 85 04 ff ff
	ff		 mov	 eax, DWORD PTR _channel$175[ebp]
  00801	50		 push	 eax
  00802	8b 8d 18 ff ff
	ff		 mov	 ecx, DWORD PTR _sub_type$180[ebp]
  00808	51		 push	 ecx
  00809	8b 95 08 ff ff
	ff		 mov	 edx, DWORD PTR _side$176[ebp]
  0080f	52		 push	 edx
  00810	8b 85 1c ff ff
	ff		 mov	 eax, DWORD PTR _parent$181[ebp]
  00816	50		 push	 eax
  00817	8b 8d 10 ff ff
	ff		 mov	 ecx, DWORD PTR _index$178[ebp]
  0081d	51		 push	 ecx
  0081e	e8 00 00 00 00	 call	 ?create_local_sound_effect_entity@@YGPAUENTITY@@HPAU1@W4ENTITY_SIDES@@HW4SOUND_CHANNEL_TYPES@@W4SOUND_LOCALITY_TYPES@@PAUVEC3D@@MMHHHPAH@Z ; create_local_sound_effect_entity

; 3404 : 				(
; 3405 : 					index,
; 3406 : 					parent,
; 3407 : 					(entity_sides) side,
; 3408 : 					sub_type,
; 3409 : 					(sound_channel_types) channel,
; 3410 : 					(sound_locality_types) locality,
; 3411 : 					pos,
; 3412 : 					amp,
; 3413 : 					pitch,
; 3414 : 					valid,
; 3415 : 					looping,
; 3416 : 					sample_count,
; 3417 : 					sample_index_list
; 3418 : 				);
; 3419 : 
; 3420 : 				set_force_local_entity_create_stack_attributes (create_stack_attributes);

  00823	8b 85 ec fe ff
	ff		 mov	 eax, DWORD PTR _create_stack_attributes$169[ebp]
  00829	a3 00 00 00 00	 mov	 DWORD PTR ?force_local_entity_create_stack_attributes@@3HA, eax ; force_local_entity_create_stack_attributes

; 3421 : 
; 3422 : 				free_mem (sample_index_list);

  0082e	8b 85 f0 fe ff
	ff		 mov	 eax, DWORD PTR _sample_index_list$170[ebp]
  00834	50		 push	 eax
  00835	e8 00 00 00 00	 call	 ?free_mem@@YGXPAX@Z	; free_mem

; 3423 : 
; 3424 : 				#if DEBUG_MODULE_MESSAGE_TEXT
; 3425 : 
; 3426 : 				debug_log ("EN_COMMS: received create sound effect for %s (%d)", entity_type_names [parent->type], get_local_entity_index (parent));
; 3427 : 
; 3428 : 				#endif
; 3429 : 
; 3430 : 				break;

  0083a	e9 3a 3c 00 00	 jmp	 $LN4@process_re
$LN74@process_re:

; 3431 : 			}
; 3432 : 			////////////////////////////////////////
; 3433 : 			case ENTITY_COMMS_CREATE_WAYPOINT_ROUTE:
; 3434 : 			////////////////////////////////////////
; 3435 : 			{
; 3436 : 				//
; 3437 : 				// (entity_comms_messages message, entity *en, unsigned int check_sum)
; 3438 : 				//
; 3439 : 
; 3440 : 				vec3d
; 3441 : 					*start_ptr,
; 3442 : 					*stop_ptr,
; 3443 : 					start,
; 3444 : 					stop;
; 3445 : 
; 3446 : 				entity
; 3447 : 					*task,
; 3448 : 					*group,
; 3449 : 					*return_keysite;
; 3450 : 	
; 3451 : 				unsigned int
; 3452 : 					*waypoint_indices,
; 3453 : 					loop,
; 3454 : 					count,
; 3455 : 					check_sum;
; 3456 : 	
; 3457 : 				task = unpack_entity_safe_ptr ();

  0083f	e8 00 00 00 00	 call	 ?unpack_entity_safe_ptr@@YGPAUENTITY@@XZ ; unpack_entity_safe_ptr
  00844	89 85 b0 fe ff
	ff		 mov	 DWORD PTR _task$160[ebp], eax

; 3458 : 
; 3459 : 				group = unpack_entity_safe_ptr ();

  0084a	e8 00 00 00 00	 call	 ?unpack_entity_safe_ptr@@YGPAUENTITY@@XZ ; unpack_entity_safe_ptr
  0084f	89 85 ac fe ff
	ff		 mov	 DWORD PTR _group$159[ebp], eax

; 3460 : 
; 3461 : 				return_keysite = unpack_entity_safe_ptr ();

  00855	e8 00 00 00 00	 call	 ?unpack_entity_safe_ptr@@YGPAUENTITY@@XZ ; unpack_entity_safe_ptr
  0085a	89 85 a8 fe ff
	ff		 mov	 DWORD PTR _return_keysite$158[ebp], eax

; 3462 : 
; 3463 : 				start_ptr = NULL;

  00860	c7 85 d0 fe ff
	ff 00 00 00 00	 mov	 DWORD PTR _start_ptr$164[ebp], 0

; 3464 : 				stop_ptr = NULL;

  0086a	c7 85 cc fe ff
	ff 00 00 00 00	 mov	 DWORD PTR _stop_ptr$163[ebp], 0

; 3465 : 
; 3466 : 				if (unpack_int_value (NULL, INT_TYPE_VALID))

  00874	68 ef 00 00 00	 push	 239			; 000000efH
  00879	6a 00		 push	 0
  0087b	e8 00 00 00 00	 call	 ?unpack_int_value@@YGHPAUENTITY@@W4INT_TYPES@@@Z ; unpack_int_value
  00880	85 c0		 test	 eax, eax
  00882	74 1c		 je	 SHORT $LN75@process_re

; 3467 : 				{
; 3468 : 
; 3469 : 					unpack_vec3d (NULL, VEC3D_TYPE_POSITION, &start);

  00884	8d 85 c0 fe ff
	ff		 lea	 eax, DWORD PTR _start$162[ebp]
  0088a	50		 push	 eax
  0088b	6a 08		 push	 8
  0088d	6a 00		 push	 0
  0088f	e8 00 00 00 00	 call	 ?unpack_vec3d@@YGXPAUENTITY@@W4VEC3D_TYPES@@PAUVEC3D@@@Z ; unpack_vec3d

; 3470 : 
; 3471 : 					start_ptr = &start;

  00894	8d 85 c0 fe ff
	ff		 lea	 eax, DWORD PTR _start$162[ebp]
  0089a	89 85 d0 fe ff
	ff		 mov	 DWORD PTR _start_ptr$164[ebp], eax
$LN75@process_re:

; 3472 : 				}
; 3473 : 
; 3474 : 				if (unpack_int_value (NULL, INT_TYPE_VALID))

  008a0	68 ef 00 00 00	 push	 239			; 000000efH
  008a5	6a 00		 push	 0
  008a7	e8 00 00 00 00	 call	 ?unpack_int_value@@YGHPAUENTITY@@W4INT_TYPES@@@Z ; unpack_int_value
  008ac	85 c0		 test	 eax, eax
  008ae	74 1c		 je	 SHORT $LN76@process_re

; 3475 : 				{
; 3476 : 
; 3477 : 					unpack_vec3d (NULL, VEC3D_TYPE_POSITION, &stop);

  008b0	8d 85 b4 fe ff
	ff		 lea	 eax, DWORD PTR _stop$161[ebp]
  008b6	50		 push	 eax
  008b7	6a 08		 push	 8
  008b9	6a 00		 push	 0
  008bb	e8 00 00 00 00	 call	 ?unpack_vec3d@@YGXPAUENTITY@@W4VEC3D_TYPES@@PAUVEC3D@@@Z ; unpack_vec3d

; 3478 : 
; 3479 : 					stop_ptr = &stop;

  008c0	8d 85 b4 fe ff
	ff		 lea	 eax, DWORD PTR _stop$161[ebp]
  008c6	89 85 cc fe ff
	ff		 mov	 DWORD PTR _stop_ptr$163[ebp], eax
$LN76@process_re:

; 3480 : 				}
; 3481 : 	
; 3482 : 				////////////////////////////////////////
; 3483 : 	
; 3484 : 				check_sum = unpack_int_value (NULL, INT_TYPE_ROUTE_CHECK_SUM);

  008cc	68 b2 00 00 00	 push	 178			; 000000b2H
  008d1	6a 00		 push	 0
  008d3	e8 00 00 00 00	 call	 ?unpack_int_value@@YGHPAUENTITY@@W4INT_TYPES@@@Z ; unpack_int_value
  008d8	89 85 98 fe ff
	ff		 mov	 DWORD PTR _check_sum$154[ebp], eax

; 3485 : 	
; 3486 : 				////////////////////////////////////////
; 3487 : 
; 3488 : 				count = unpack_int_value (NULL, INT_TYPE_ROUTE_LENGTH);

  008de	68 b3 00 00 00	 push	 179			; 000000b3H
  008e3	6a 00		 push	 0
  008e5	e8 00 00 00 00	 call	 ?unpack_int_value@@YGHPAUENTITY@@W4INT_TYPES@@@Z ; unpack_int_value
  008ea	89 85 9c fe ff
	ff		 mov	 DWORD PTR _count$155[ebp], eax

; 3489 : 
; 3490 : 				waypoint_indices = (unsigned int *) malloc_heap_mem (sizeof (unsigned int) * count);

  008f0	8b 85 9c fe ff
	ff		 mov	 eax, DWORD PTR _count$155[ebp]
  008f6	c1 e0 02	 shl	 eax, 2
  008f9	50		 push	 eax
  008fa	e8 00 00 00 00	 call	 ?malloc_heap_memory@@YGPAXI@Z ; malloc_heap_memory
  008ff	89 85 a4 fe ff
	ff		 mov	 DWORD PTR _waypoint_indices$157[ebp], eax

; 3491 : 
; 3492 : 				for (loop = 0; loop < count; loop ++)

  00905	c7 85 a0 fe ff
	ff 00 00 00 00	 mov	 DWORD PTR _loop$156[ebp], 0
  0090f	eb 0f		 jmp	 SHORT $LN20@process_re
$LN18@process_re:
  00911	8b 85 a0 fe ff
	ff		 mov	 eax, DWORD PTR _loop$156[ebp]
  00917	83 c0 01	 add	 eax, 1
  0091a	89 85 a0 fe ff
	ff		 mov	 DWORD PTR _loop$156[ebp], eax
$LN20@process_re:
  00920	8b 85 a0 fe ff
	ff		 mov	 eax, DWORD PTR _loop$156[ebp]
  00926	3b 85 9c fe ff
	ff		 cmp	 eax, DWORD PTR _count$155[ebp]
  0092c	73 16		 jae	 SHORT $LN19@process_re

; 3493 : 				{
; 3494 : 
; 3495 : 					waypoint_indices [loop] = unpack_entity_safe_index ();

  0092e	e8 00 00 00 00	 call	 ?unpack_entity_safe_index@@YGHXZ ; unpack_entity_safe_index
  00933	8b 8d a0 fe ff
	ff		 mov	 ecx, DWORD PTR _loop$156[ebp]
  00939	8b 95 a4 fe ff
	ff		 mov	 edx, DWORD PTR _waypoint_indices$157[ebp]
  0093f	89 04 8a	 mov	 DWORD PTR [edx+ecx*4], eax

; 3496 : 				}

  00942	eb cd		 jmp	 SHORT $LN18@process_re
$LN19@process_re:

; 3497 : 
; 3498 : 				if (create_generic_waypoint_route (group, task, return_keysite, start_ptr, stop_ptr, waypoint_indices, count))

  00944	8b 85 9c fe ff
	ff		 mov	 eax, DWORD PTR _count$155[ebp]
  0094a	50		 push	 eax
  0094b	8b 8d a4 fe ff
	ff		 mov	 ecx, DWORD PTR _waypoint_indices$157[ebp]
  00951	51		 push	 ecx
  00952	8b 95 cc fe ff
	ff		 mov	 edx, DWORD PTR _stop_ptr$163[ebp]
  00958	52		 push	 edx
  00959	8b 85 d0 fe ff
	ff		 mov	 eax, DWORD PTR _start_ptr$164[ebp]
  0095f	50		 push	 eax
  00960	8b 8d a8 fe ff
	ff		 mov	 ecx, DWORD PTR _return_keysite$158[ebp]
  00966	51		 push	 ecx
  00967	8b 95 b0 fe ff
	ff		 mov	 edx, DWORD PTR _task$160[ebp]
  0096d	52		 push	 edx
  0096e	8b 85 ac fe ff
	ff		 mov	 eax, DWORD PTR _group$159[ebp]
  00974	50		 push	 eax
  00975	e8 00 00 00 00	 call	 ?create_generic_waypoint_route@@YGHPAUENTITY@@00PAUVEC3D@@1PAIH@Z ; create_generic_waypoint_route
  0097a	85 c0		 test	 eax, eax
  0097c	74 0d		 je	 SHORT $LN77@process_re

; 3499 : 				{
; 3500 : 
; 3501 : 					debug_log ("EN_COMMS: created route on client successfully");

  0097e	68 00 00 00 00	 push	 OFFSET ??_C@_0CP@NOFCFJBB@EN_COMMS?3?5created?5route?5on?5clie@
  00983	e8 00 00 00 00	 call	 ?debug_log@@YAXPBDZZ	; debug_log
  00988	83 c4 04	 add	 esp, 4
$LN77@process_re:

; 3502 : 				}
; 3503 : 
; 3504 : 				free_mem (waypoint_indices);

  0098b	8b 85 a4 fe ff
	ff		 mov	 eax, DWORD PTR _waypoint_indices$157[ebp]
  00991	50		 push	 eax
  00992	e8 00 00 00 00	 call	 ?free_mem@@YGXPAX@Z	; free_mem

; 3505 : 	
; 3506 : 				#if DEBUG_MODULE_MESSAGE_TEXT
; 3507 : 	
; 3508 : 				debug_log ("EN_COMMS: received create waypoint route for %s (%d) check_sum %d", get_local_entity_string (task, STRING_TYPE_FULL_NAME), get_local_entity_index (task), check_sum);
; 3509 : 	
; 3510 : 				#endif
; 3511 : 	
; 3512 : 				break;

  00997	e9 dd 3a 00 00	 jmp	 $LN4@process_re
$LN78@process_re:

; 3513 : 			}
; 3514 : 			////////////////////////////////////////
; 3515 : 			case ENTITY_COMMS_CREATE_WEAPON:
; 3516 : 			////////////////////////////////////////
; 3517 : 			{
; 3518 : 				entity
; 3519 : 					*launcher;
; 3520 : 
; 3521 : 				entity_sub_types
; 3522 : 					weapon_sub_type;
; 3523 : 
; 3524 : 				int
; 3525 : 					weapon_index,
; 3526 : 					burst_size,
; 3527 : 					*smoke_trail_indices,
; 3528 : 					num_smoke_trail_entities,
; 3529 : 					i;
; 3530 : 
; 3531 : 				meta_smoke_list_types
; 3532 : 					smoke_trail_type;
; 3533 : 
; 3534 : 				launcher = unpack_entity_safe_ptr ();

  0099c	e8 00 00 00 00	 call	 ?unpack_entity_safe_ptr@@YGPAUENTITY@@XZ ; unpack_entity_safe_ptr
  009a1	89 85 94 fe ff
	ff		 mov	 DWORD PTR _launcher$153[ebp], eax

; 3535 : 	
; 3536 : 				////////////////////////////////////////
; 3537 : 				// DEBUG COMMS WEAPON LAG TIMING
; 3538 : 				////////////////////////////////////////
; 3539 : 				if (get_comms_model () == COMMS_MODEL_CLIENT)

  009a7	83 3d 00 00 00
	00 01		 cmp	 DWORD PTR ?system_comms_model@@3W4COMMS_MODEL_TYPES@@A, 1 ; system_comms_model
  009ae	75 65		 jne	 SHORT $LN80@process_re

; 3540 : 				{
; 3541 : 	
; 3542 : 					if (launcher == get_gunship_entity ())

  009b0	8b 85 94 fe ff
	ff		 mov	 eax, DWORD PTR _launcher$153[ebp]
  009b6	3b 05 00 00 00
	00		 cmp	 eax, DWORD PTR ?gunship_entity@@3PAUENTITY@@A ; gunship_entity
  009bc	75 57		 jne	 SHORT $LN80@process_re

; 3543 : 					{
; 3544 : 
; 3545 : 						comms_weapon_lag_timing = FALSE;

  009be	c7 05 00 00 00
	00 00 00 00 00	 mov	 DWORD PTR ?comms_weapon_lag_timing@@3HA, 0 ; comms_weapon_lag_timing

; 3546 : 	
; 3547 : 						comms_weapon_lag_time = ((float) get_system_time () / (float) TIME_1_SECOND) - comms_weapon_lag_time;

  009c8	e8 00 00 00 00	 call	 ?get_system_time@@YGIXZ	; get_system_time
  009cd	89 85 c0 f8 ff
	ff		 mov	 DWORD PTR tv2711[ebp], eax
  009d3	f2 0f 2a 85 c0
	f8 ff ff	 cvtsi2sd xmm0, DWORD PTR tv2711[ebp]
  009db	8b 85 c0 f8 ff
	ff		 mov	 eax, DWORD PTR tv2711[ebp]
  009e1	c1 e8 1f	 shr	 eax, 31			; 0000001fH
  009e4	f2 0f 58 04 c5
	00 00 00 00	 addsd	 xmm0, QWORD PTR __xmm@41f00000000000000000000000000000[eax*8]
  009ed	f2 0f 11 85 b8
	f8 ff ff	 movsd	 QWORD PTR tv2714[ebp], xmm0
  009f5	f2 0f 5a 85 b8
	f8 ff ff	 cvtsd2ss xmm0, QWORD PTR tv2714[ebp]
  009fd	f3 0f 5e 05 00
	00 00 00	 divss	 xmm0, DWORD PTR __real@447a0000
  00a05	f3 0f 5c 05 00
	00 00 00	 subss	 xmm0, DWORD PTR ?comms_weapon_lag_time@@3MA
  00a0d	f3 0f 11 05 00
	00 00 00	 movss	 DWORD PTR ?comms_weapon_lag_time@@3MA, xmm0
$LN80@process_re:

; 3548 : 					}
; 3549 : 				}
; 3550 : 				////////////////////////////////////////
; 3551 : 				// DEBUG COMMS WEAPON LAG TIMING
; 3552 : 				////////////////////////////////////////
; 3553 : 	
; 3554 : 				////////////////////////////////////////
; 3555 : 
; 3556 : 				weapon_sub_type = unpack_int_value (NULL, INT_TYPE_ENTITY_SUB_TYPE);

  00a15	6a 34		 push	 52			; 00000034H
  00a17	6a 00		 push	 0
  00a19	e8 00 00 00 00	 call	 ?unpack_int_value@@YGHPAUENTITY@@W4INT_TYPES@@@Z ; unpack_int_value
  00a1e	89 85 90 fe ff
	ff		 mov	 DWORD PTR _weapon_sub_type$152[ebp], eax

; 3557 : 
; 3558 : 				ASSERT (entity_sub_type_weapon_valid (weapon_sub_type));

  00a24	83 bd 90 fe ff
	ff 00		 cmp	 DWORD PTR _weapon_sub_type$152[ebp], 0
  00a2b	7c 09		 jl	 SHORT $LN82@process_re
  00a2d	83 bd 90 fe ff
	ff 4c		 cmp	 DWORD PTR _weapon_sub_type$152[ebp], 76 ; 0000004cH
  00a34	7c 1a		 jl	 SHORT $LN81@process_re
$LN82@process_re:
  00a36	a1 00 00 00 00	 mov	 eax, DWORD PTR ?__LINE__Var@?0??process_received_entity_comms_messages@@YGXXZ@4JA
  00a3b	05 9c 02 00 00	 add	 eax, 668		; 0000029cH
  00a40	50		 push	 eax
  00a41	68 00 00 00 00	 push	 OFFSET ??_C@_0EO@OCMIKFBI@c?3?2users?2nhv90?2projects?2eech?2ap@
  00a46	68 00 00 00 00	 push	 OFFSET ??_C@_0CP@MAFEAOFK@entity_sub_type_weapon_valid?5?$CIw@
  00a4b	e8 00 00 00 00	 call	 ?process_assert@@YGXPBD0H@Z ; process_assert
$LN81@process_re:

; 3559 : 
; 3560 : 				////////////////////////////////////////
; 3561 : 
; 3562 : 				weapon_index = unpack_entity_safe_index ();

  00a50	e8 00 00 00 00	 call	 ?unpack_entity_safe_index@@YGHXZ ; unpack_entity_safe_index
  00a55	89 85 8c fe ff
	ff		 mov	 DWORD PTR _weapon_index$151[ebp], eax

; 3563 : 
; 3564 : 				////////////////////////////////////////
; 3565 : 
; 3566 : 				if (get_comms_model () == COMMS_MODEL_SERVER)

  00a5b	83 3d 00 00 00
	00 00		 cmp	 DWORD PTR ?system_comms_model@@3W4COMMS_MODEL_TYPES@@A, 0 ; system_comms_model
  00a62	75 0c		 jne	 SHORT $LN83@process_re

; 3567 : 				{
; 3568 : 					burst_size = BURST_SIZE_DONT_CARE;

  00a64	c7 85 88 fe ff
	ff 00 00 00 00	 mov	 DWORD PTR _burst_size$150[ebp], 0

; 3569 : 				}
; 3570 : 				else

  00a6e	eb 3e		 jmp	 SHORT $LN86@process_re
$LN83@process_re:

; 3571 : 				{
; 3572 : 					if (weapon_database[weapon_sub_type].rate_of_fire != FIRE_SINGLE_WEAPON)

  00a70	69 85 90 fe ff
	ff e0 00 00 00	 imul	 eax, DWORD PTR _weapon_sub_type$152[ebp], 224
  00a7a	f3 0f 5a 80 c8
	00 00 00	 cvtss2sd xmm0, DWORD PTR ?weapon_database@@3PAUWEAPON_DATA@@A[eax+200]
  00a82	66 0f 2e 05 00
	00 00 00	 ucomisd xmm0, QWORD PTR __real@0000000000000000
  00a8a	9f		 lahf
  00a8b	f6 c4 44	 test	 ah, 68			; 00000044H
  00a8e	7b 14		 jnp	 SHORT $LN85@process_re

; 3573 : 					{
; 3574 : 						burst_size = unpack_int_value (NULL, INT_TYPE_WEAPON_BURST_SIZE);

  00a90	68 03 01 00 00	 push	 259			; 00000103H
  00a95	6a 00		 push	 0
  00a97	e8 00 00 00 00	 call	 ?unpack_int_value@@YGHPAUENTITY@@W4INT_TYPES@@@Z ; unpack_int_value
  00a9c	89 85 88 fe ff
	ff		 mov	 DWORD PTR _burst_size$150[ebp], eax

; 3575 : 					}
; 3576 : 					else

  00aa2	eb 0a		 jmp	 SHORT $LN86@process_re
$LN85@process_re:

; 3577 : 					{
; 3578 : 						burst_size = 1;

  00aa4	c7 85 88 fe ff
	ff 01 00 00 00	 mov	 DWORD PTR _burst_size$150[ebp], 1
$LN86@process_re:

; 3579 : 					}
; 3580 : 				}
; 3581 : 
; 3582 : 				////////////////////////////////////////
; 3583 : 
; 3584 : 				smoke_trail_indices = NULL;

  00aae	c7 85 84 fe ff
	ff 00 00 00 00	 mov	 DWORD PTR _smoke_trail_indices$149[ebp], 0

; 3585 : 
; 3586 : 				if (get_comms_model () == COMMS_MODEL_CLIENT)

  00ab8	83 3d 00 00 00
	00 01		 cmp	 DWORD PTR ?system_comms_model@@3W4COMMS_MODEL_TYPES@@A, 1 ; system_comms_model
  00abf	0f 85 ac 00 00
	00		 jne	 $LN22@process_re

; 3587 : 				{
; 3588 : 					smoke_trail_type = (meta_smoke_list_types) weapon_database[weapon_sub_type].smoke_trail_type;

  00ac5	69 85 90 fe ff
	ff e0 00 00 00	 imul	 eax, DWORD PTR _weapon_sub_type$152[ebp], 224
  00acf	8b 88 60 00 00
	00		 mov	 ecx, DWORD PTR ?weapon_database@@3PAUWEAPON_DATA@@A[eax+96]
  00ad5	89 8d 78 fe ff
	ff		 mov	 DWORD PTR _smoke_trail_type$146[ebp], ecx

; 3589 : 
; 3590 : 					if (smoke_trail_type != META_SMOKE_LIST_TYPE_NONE)

  00adb	83 bd 78 fe ff
	ff 00		 cmp	 DWORD PTR _smoke_trail_type$146[ebp], 0
  00ae2	0f 84 89 00 00
	00		 je	 $LN22@process_re

; 3591 : 					{
; 3592 : 						num_smoke_trail_entities = count_entities_in_meta_smoke_list (smoke_trail_type);

  00ae8	8b 85 78 fe ff
	ff		 mov	 eax, DWORD PTR _smoke_trail_type$146[ebp]
  00aee	50		 push	 eax
  00aef	e8 00 00 00 00	 call	 ?count_entities_in_meta_smoke_list@@YGHW4META_SMOKE_LIST_TYPES@@@Z ; count_entities_in_meta_smoke_list
  00af4	89 85 80 fe ff
	ff		 mov	 DWORD PTR _num_smoke_trail_entities$148[ebp], eax

; 3593 : 
; 3594 : 						ASSERT (num_smoke_trail_entities > 0);

  00afa	83 bd 80 fe ff
	ff 00		 cmp	 DWORD PTR _num_smoke_trail_entities$148[ebp], 0
  00b01	7f 1a		 jg	 SHORT $LN89@process_re
  00b03	a1 00 00 00 00	 mov	 eax, DWORD PTR ?__LINE__Var@?0??process_received_entity_comms_messages@@YGXXZ@4JA
  00b08	05 c0 02 00 00	 add	 eax, 704		; 000002c0H
  00b0d	50		 push	 eax
  00b0e	68 00 00 00 00	 push	 OFFSET ??_C@_0EO@OCMIKFBI@c?3?2users?2nhv90?2projects?2eech?2ap@
  00b13	68 00 00 00 00	 push	 OFFSET ??_C@_0BN@OGACAFKK@num_smoke_trail_entities?5?$DO?50@
  00b18	e8 00 00 00 00	 call	 ?process_assert@@YGXPBD0H@Z ; process_assert
$LN89@process_re:

; 3595 : 
; 3596 : 						smoke_trail_indices = (int *) malloc_fast_mem (sizeof (int) * num_smoke_trail_entities);

  00b1d	8b 85 80 fe ff
	ff		 mov	 eax, DWORD PTR _num_smoke_trail_entities$148[ebp]
  00b23	c1 e0 02	 shl	 eax, 2
  00b26	50		 push	 eax
  00b27	e8 00 00 00 00	 call	 ?malloc_fast_memory@@YGPAXI@Z ; malloc_fast_memory
  00b2c	89 85 84 fe ff
	ff		 mov	 DWORD PTR _smoke_trail_indices$149[ebp], eax

; 3597 : 
; 3598 : 						for (i = 0; i < num_smoke_trail_entities; i++)

  00b32	c7 85 7c fe ff
	ff 00 00 00 00	 mov	 DWORD PTR _i$147[ebp], 0
  00b3c	eb 0f		 jmp	 SHORT $LN23@process_re
$LN21@process_re:
  00b3e	8b 85 7c fe ff
	ff		 mov	 eax, DWORD PTR _i$147[ebp]
  00b44	83 c0 01	 add	 eax, 1
  00b47	89 85 7c fe ff
	ff		 mov	 DWORD PTR _i$147[ebp], eax
$LN23@process_re:
  00b4d	8b 85 7c fe ff
	ff		 mov	 eax, DWORD PTR _i$147[ebp]
  00b53	3b 85 80 fe ff
	ff		 cmp	 eax, DWORD PTR _num_smoke_trail_entities$148[ebp]
  00b59	7d 16		 jge	 SHORT $LN22@process_re

; 3599 : 						{
; 3600 : 							smoke_trail_indices[i] = unpack_entity_safe_index ();

  00b5b	e8 00 00 00 00	 call	 ?unpack_entity_safe_index@@YGHXZ ; unpack_entity_safe_index
  00b60	8b 8d 7c fe ff
	ff		 mov	 ecx, DWORD PTR _i$147[ebp]
  00b66	8b 95 84 fe ff
	ff		 mov	 edx, DWORD PTR _smoke_trail_indices$149[ebp]
  00b6c	89 04 8a	 mov	 DWORD PTR [edx+ecx*4], eax

; 3601 : 						}

  00b6f	eb cd		 jmp	 SHORT $LN21@process_re
$LN22@process_re:

; 3602 : 					}
; 3603 : 				}
; 3604 : 
; 3605 : 				////////////////////////////////////////
; 3606 : 
; 3607 : 				create_client_server_entity_weapon (launcher, weapon_sub_type, weapon_index, burst_size, smoke_trail_indices);

  00b71	8b 85 84 fe ff
	ff		 mov	 eax, DWORD PTR _smoke_trail_indices$149[ebp]
  00b77	50		 push	 eax
  00b78	8b 8d 88 fe ff
	ff		 mov	 ecx, DWORD PTR _burst_size$150[ebp]
  00b7e	51		 push	 ecx
  00b7f	8b 95 8c fe ff
	ff		 mov	 edx, DWORD PTR _weapon_index$151[ebp]
  00b85	52		 push	 edx
  00b86	8b 85 90 fe ff
	ff		 mov	 eax, DWORD PTR _weapon_sub_type$152[ebp]
  00b8c	50		 push	 eax
  00b8d	8b 8d 94 fe ff
	ff		 mov	 ecx, DWORD PTR _launcher$153[ebp]
  00b93	51		 push	 ecx
  00b94	e8 00 00 00 00	 call	 ?create_client_server_entity_weapon@@YGXPAUENTITY@@HHHPAH@Z ; create_client_server_entity_weapon

; 3608 : 
; 3609 : 				////////////////////////////////////////
; 3610 : 
; 3611 : 				if (smoke_trail_indices)

  00b99	83 bd 84 fe ff
	ff 00		 cmp	 DWORD PTR _smoke_trail_indices$149[ebp], 0
  00ba0	74 0c		 je	 SHORT $LN90@process_re

; 3612 : 				{
; 3613 : 					free_mem (smoke_trail_indices);

  00ba2	8b 85 84 fe ff
	ff		 mov	 eax, DWORD PTR _smoke_trail_indices$149[ebp]
  00ba8	50		 push	 eax
  00ba9	e8 00 00 00 00	 call	 ?free_mem@@YGXPAX@Z	; free_mem
$LN90@process_re:

; 3614 : 				}
; 3615 : 
; 3616 : 				#if DEBUG_MODULE_MESSAGE_TEXT
; 3617 : 
; 3618 : 				debug_log ("EN_COMMS: received create weapon %s for %s (%d)", entity_sub_type_weapon_names [weapon_sub_type], entity_type_names [launcher->type], get_local_entity_index (launcher));
; 3619 : 
; 3620 : 				#endif
; 3621 : 
; 3622 : 				break;

  00bae	e9 c6 38 00 00	 jmp	 $LN4@process_re
$LN91@process_re:

; 3623 : 			}
; 3624 : 			////////////////////////////////////////
; 3625 : 			case ENTITY_COMMS_DAMAGE_PLAYER:
; 3626 : 			////////////////////////////////////////
; 3627 : 			{
; 3628 : 				//
; 3629 : 				// (entity_comms_messages message, entity *en, int damage, int random);
; 3630 : 				//
; 3631 : 
; 3632 : 				entity
; 3633 : 					*en;
; 3634 : 
; 3635 : 				unsigned int
; 3636 : 					random,
; 3637 : 					damage;
; 3638 : 
; 3639 : 				en = unpack_entity_safe_ptr ();

  00bb3	e8 00 00 00 00	 call	 ?unpack_entity_safe_ptr@@YGPAUENTITY@@XZ ; unpack_entity_safe_ptr
  00bb8	89 85 74 fe ff
	ff		 mov	 DWORD PTR _en$145[ebp], eax

; 3640 : 
; 3641 : 				ASSERT (en);

  00bbe	83 bd 74 fe ff
	ff 00		 cmp	 DWORD PTR _en$145[ebp], 0
  00bc5	75 1a		 jne	 SHORT $LN92@process_re
  00bc7	a1 00 00 00 00	 mov	 eax, DWORD PTR ?__LINE__Var@?0??process_received_entity_comms_messages@@YGXXZ@4JA
  00bcc	05 ef 02 00 00	 add	 eax, 751		; 000002efH
  00bd1	50		 push	 eax
  00bd2	68 00 00 00 00	 push	 OFFSET ??_C@_0EO@OCMIKFBI@c?3?2users?2nhv90?2projects?2eech?2ap@
  00bd7	68 00 00 00 00	 push	 OFFSET ??_C@_02LFNMGJAP@en@
  00bdc	e8 00 00 00 00	 call	 ?process_assert@@YGXPBD0H@Z ; process_assert
$LN92@process_re:

; 3642 : 
; 3643 : 				damage = unpack_int_value (en, INT_TYPE_HELICOPTER_DAMAGE_FLAGS);

  00be1	6a 54		 push	 84			; 00000054H
  00be3	8b 85 74 fe ff
	ff		 mov	 eax, DWORD PTR _en$145[ebp]
  00be9	50		 push	 eax
  00bea	e8 00 00 00 00	 call	 ?unpack_int_value@@YGHPAUENTITY@@W4INT_TYPES@@@Z ; unpack_int_value
  00bef	89 85 6c fe ff
	ff		 mov	 DWORD PTR _damage$143[ebp], eax

; 3644 : 
; 3645 : 				random = unpack_int_value (en, INT_TYPE_VALID);

  00bf5	68 ef 00 00 00	 push	 239			; 000000efH
  00bfa	8b 85 74 fe ff
	ff		 mov	 eax, DWORD PTR _en$145[ebp]
  00c00	50		 push	 eax
  00c01	e8 00 00 00 00	 call	 ?unpack_int_value@@YGHPAUENTITY@@W4INT_TYPES@@@Z ; unpack_int_value
  00c06	89 85 70 fe ff
	ff		 mov	 DWORD PTR _random$144[ebp], eax

; 3646 : 
; 3647 : 				//
; 3648 : 				// Only damage correct player
; 3649 : 				//
; 3650 : 
; 3651 : 				if (en == get_gunship_entity ())

  00c0c	8b 85 74 fe ff
	ff		 mov	 eax, DWORD PTR _en$145[ebp]
  00c12	3b 05 00 00 00
	00		 cmp	 eax, DWORD PTR ?gunship_entity@@3PAUENTITY@@A ; gunship_entity
  00c18	75 13		 jne	 SHORT $LN93@process_re

; 3652 : 				{
; 3653 : 
; 3654 : 					dynamics_damage_model (damage, random);

  00c1a	8b 85 70 fe ff
	ff		 mov	 eax, DWORD PTR _random$144[ebp]
  00c20	50		 push	 eax
  00c21	8b 8d 6c fe ff
	ff		 mov	 ecx, DWORD PTR _damage$143[ebp]
  00c27	51		 push	 ecx
  00c28	e8 00 00 00 00	 call	 ?dynamics_damage_model@@YGXIH@Z ; dynamics_damage_model
$LN93@process_re:

; 3655 : 
; 3656 : 					#if DEBUG_MODULE_MESSAGE_TEXT
; 3657 : 
; 3658 : 					debug_log ("EN_COMMS: received damage helicopter dynamics %d for %s (%d)", damage, get_local_entity_type_name (en), get_local_entity_index (en));
; 3659 : 
; 3660 : 					#endif
; 3661 : 				}
; 3662 : 
; 3663 : 				break;

  00c2d	e9 47 38 00 00	 jmp	 $LN4@process_re
$LN94@process_re:

; 3664 : 			}
; 3665 : 			////////////////////////////////////////
; 3666 : 			case ENTITY_COMMS_DAMAGE_PLAYER_AVIONICS:
; 3667 : 			////////////////////////////////////////
; 3668 : 			{
; 3669 : 				entity
; 3670 : 					*en;
; 3671 : 
; 3672 : 				gunship_damage_levels
; 3673 : 					damage_level;
; 3674 : 
; 3675 : 				en = unpack_entity_safe_ptr ();

  00c32	e8 00 00 00 00	 call	 ?unpack_entity_safe_ptr@@YGPAUENTITY@@XZ ; unpack_entity_safe_ptr
  00c37	89 85 68 fe ff
	ff		 mov	 DWORD PTR _en$142[ebp], eax

; 3676 : 
; 3677 : 				ASSERT (en);

  00c3d	83 bd 68 fe ff
	ff 00		 cmp	 DWORD PTR _en$142[ebp], 0
  00c44	75 1a		 jne	 SHORT $LN95@process_re
  00c46	a1 00 00 00 00	 mov	 eax, DWORD PTR ?__LINE__Var@?0??process_received_entity_comms_messages@@YGXXZ@4JA
  00c4b	05 13 03 00 00	 add	 eax, 787		; 00000313H
  00c50	50		 push	 eax
  00c51	68 00 00 00 00	 push	 OFFSET ??_C@_0EO@OCMIKFBI@c?3?2users?2nhv90?2projects?2eech?2ap@
  00c56	68 00 00 00 00	 push	 OFFSET ??_C@_02LFNMGJAP@en@
  00c5b	e8 00 00 00 00	 call	 ?process_assert@@YGXPBD0H@Z ; process_assert
$LN95@process_re:

; 3678 : 
; 3679 : 				damage_level = (gunship_damage_levels) unpack_int_value (en, INT_TYPE_HELICOPTER_DAMAGE_LEVEL);

  00c60	6a 55		 push	 85			; 00000055H
  00c62	8b 85 68 fe ff
	ff		 mov	 eax, DWORD PTR _en$142[ebp]
  00c68	50		 push	 eax
  00c69	e8 00 00 00 00	 call	 ?unpack_int_value@@YGHPAUENTITY@@W4INT_TYPES@@@Z ; unpack_int_value
  00c6e	89 85 64 fe ff
	ff		 mov	 DWORD PTR _damage_level$141[ebp], eax

; 3680 : 
; 3681 : 				if (en == get_gunship_entity ())

  00c74	8b 85 68 fe ff
	ff		 mov	 eax, DWORD PTR _en$142[ebp]
  00c7a	3b 05 00 00 00
	00		 cmp	 eax, DWORD PTR ?gunship_entity@@3PAUENTITY@@A ; gunship_entity
  00c80	75 0c		 jne	 SHORT $LN96@process_re

; 3682 : 				{
; 3683 : 					damage_gunship (damage_level);

  00c82	8b 85 64 fe ff
	ff		 mov	 eax, DWORD PTR _damage_level$141[ebp]
  00c88	50		 push	 eax
  00c89	e8 00 00 00 00	 call	 ?damage_gunship@@YGXW4GUNSHIP_DAMAGE_LEVELS@@@Z ; damage_gunship
$LN96@process_re:

; 3684 : 
; 3685 : 					#if DEBUG_MODULE_MESSAGE_TEXT
; 3686 : 
; 3687 : 					debug_log ("EN_COMMS: received damage helicopter avionics %d for %s (%d)", damage_level, get_local_entity_type_name (en), get_local_entity_index (en));
; 3688 : 
; 3689 : 					#endif
; 3690 : 				}
; 3691 : 
; 3692 : 				break;

  00c8e	e9 e6 37 00 00	 jmp	 $LN4@process_re
$LN97@process_re:

; 3693 : 			}
; 3694 : 			////////////////////////////////////////
; 3695 : 			case ENTITY_COMMS_DAMAGE_WEAPON_PACKAGE:
; 3696 : 			////////////////////////////////////////
; 3697 : 			{
; 3698 : 				entity
; 3699 : 					*en;
; 3700 : 
; 3701 : 				int
; 3702 : 					weapon_package_heading_depth,
; 3703 : 					weapon_package_damaged;
; 3704 : 
; 3705 : 				entity_sub_types
; 3706 : 					weapon_sub_type;
; 3707 : 
; 3708 : 				en = unpack_entity_safe_ptr ();

  00c93	e8 00 00 00 00	 call	 ?unpack_entity_safe_ptr@@YGPAUENTITY@@XZ ; unpack_entity_safe_ptr
  00c98	89 85 60 fe ff
	ff		 mov	 DWORD PTR _en$140[ebp], eax

; 3709 : 
; 3710 : 				ASSERT (en);

  00c9e	83 bd 60 fe ff
	ff 00		 cmp	 DWORD PTR _en$140[ebp], 0
  00ca5	75 1a		 jne	 SHORT $LN98@process_re
  00ca7	a1 00 00 00 00	 mov	 eax, DWORD PTR ?__LINE__Var@?0??process_received_entity_comms_messages@@YGXXZ@4JA
  00cac	05 34 03 00 00	 add	 eax, 820		; 00000334H
  00cb1	50		 push	 eax
  00cb2	68 00 00 00 00	 push	 OFFSET ??_C@_0EO@OCMIKFBI@c?3?2users?2nhv90?2projects?2eech?2ap@
  00cb7	68 00 00 00 00	 push	 OFFSET ??_C@_02LFNMGJAP@en@
  00cbc	e8 00 00 00 00	 call	 ?process_assert@@YGXPBD0H@Z ; process_assert
$LN98@process_re:

; 3711 : 
; 3712 : 				weapon_package_heading_depth = unpack_int_value (en, INT_TYPE_WEAPON_PACKAGE_HEADING_DEPTH);

  00cc1	68 0c 01 00 00	 push	 268			; 0000010cH
  00cc6	8b 85 60 fe ff
	ff		 mov	 eax, DWORD PTR _en$140[ebp]
  00ccc	50		 push	 eax
  00ccd	e8 00 00 00 00	 call	 ?unpack_int_value@@YGHPAUENTITY@@W4INT_TYPES@@@Z ; unpack_int_value
  00cd2	89 85 5c fe ff
	ff		 mov	 DWORD PTR _weapon_package_heading_depth$139[ebp], eax

; 3713 : 
; 3714 : 				weapon_sub_type = unpack_int_value (en, INT_TYPE_ENTITY_SUB_TYPE);

  00cd8	6a 34		 push	 52			; 00000034H
  00cda	8b 85 60 fe ff
	ff		 mov	 eax, DWORD PTR _en$140[ebp]
  00ce0	50		 push	 eax
  00ce1	e8 00 00 00 00	 call	 ?unpack_int_value@@YGHPAUENTITY@@W4INT_TYPES@@@Z ; unpack_int_value
  00ce6	89 85 54 fe ff
	ff		 mov	 DWORD PTR _weapon_sub_type$137[ebp], eax

; 3715 : 
; 3716 : 				weapon_package_damaged = unpack_int_value (en, INT_TYPE_WEAPON_PACKAGE_DAMAGED);

  00cec	68 0b 01 00 00	 push	 267			; 0000010bH
  00cf1	8b 85 60 fe ff
	ff		 mov	 eax, DWORD PTR _en$140[ebp]
  00cf7	50		 push	 eax
  00cf8	e8 00 00 00 00	 call	 ?unpack_int_value@@YGHPAUENTITY@@W4INT_TYPES@@@Z ; unpack_int_value
  00cfd	89 85 58 fe ff
	ff		 mov	 DWORD PTR _weapon_package_damaged$138[ebp], eax

; 3717 : 
; 3718 : 				#if DEBUG_MODULE_MESSAGE_TEXT
; 3719 : 
; 3720 : 				debug_log
; 3721 : 				(
; 3722 : 					"EN_COMMS: receiving damage weapon package for %s (%d), heading_depth = %d, weapon_sub_type = %d, damaged = %d",
; 3723 : 					get_local_entity_string (en, STRING_TYPE_FULL_NAME),
; 3724 : 					get_local_entity_index (en),
; 3725 : 					weapon_package_heading_depth,
; 3726 : 					weapon_sub_type,
; 3727 : 					weapon_package_damaged
; 3728 : 				);
; 3729 : 
; 3730 : 				#endif
; 3731 : 
; 3732 : 				set_client_server_entity_weapon_damage (en, weapon_package_heading_depth, weapon_sub_type, weapon_package_damaged);

  00d03	8b 85 58 fe ff
	ff		 mov	 eax, DWORD PTR _weapon_package_damaged$138[ebp]
  00d09	50		 push	 eax
  00d0a	8b 8d 54 fe ff
	ff		 mov	 ecx, DWORD PTR _weapon_sub_type$137[ebp]
  00d10	51		 push	 ecx
  00d11	8b 95 5c fe ff
	ff		 mov	 edx, DWORD PTR _weapon_package_heading_depth$139[ebp]
  00d17	52		 push	 edx
  00d18	8b 85 60 fe ff
	ff		 mov	 eax, DWORD PTR _en$140[ebp]
  00d1e	50		 push	 eax
  00d1f	e8 00 00 00 00	 call	 ?set_client_server_entity_weapon_damage@@YGXPAUENTITY@@HHH@Z ; set_client_server_entity_weapon_damage

; 3733 : 
; 3734 : 				break;

  00d24	e9 50 37 00 00	 jmp	 $LN4@process_re
$LN99@process_re:

; 3735 : 			}
; 3736 : 			////////////////////////////////////////
; 3737 : 			case ENTITY_COMMS_DESTROY:
; 3738 : 			////////////////////////////////////////
; 3739 : 			{
; 3740 : 				entity
; 3741 : 					*en;
; 3742 : 
; 3743 : 				en = unpack_entity_safe_ptr ();

  00d29	e8 00 00 00 00	 call	 ?unpack_entity_safe_ptr@@YGPAUENTITY@@XZ ; unpack_entity_safe_ptr
  00d2e	89 85 50 fe ff
	ff		 mov	 DWORD PTR _en$136[ebp], eax

; 3744 : 
; 3745 : 				#if DEBUG_MODULE_MESSAGE_TEXT
; 3746 : 
; 3747 : 				debug_log ("EN_COMMS: received destroy entity %s index %d", get_local_entity_type_name (en), get_local_entity_index (en));
; 3748 : 
; 3749 : 				#endif
; 3750 : 
; 3751 : 				destroy_client_server_entity (en);

  00d34	83 bd 50 fe ff
	ff 00		 cmp	 DWORD PTR _en$136[ebp], 0
  00d3b	74 10		 je	 SHORT $LN240@process_re
  00d3d	8b 85 50 fe ff
	ff		 mov	 eax, DWORD PTR _en$136[ebp]
  00d43	8b 08		 mov	 ecx, DWORD PTR [eax]
  00d45	89 8d c0 f8 ff
	ff		 mov	 DWORD PTR tv564[ebp], ecx
  00d4b	eb 27		 jmp	 SHORT $LN241@process_re
$LN240@process_re:
  00d4d	8b 15 00 00 00
	00		 mov	 edx, DWORD PTR ?__LINE__Var@?0??process_received_entity_comms_messages@@YGXXZ@4JA
  00d53	81 c2 5d 03 00
	00		 add	 edx, 861		; 0000035dH
  00d59	52		 push	 edx
  00d5a	68 00 00 00 00	 push	 OFFSET ??_C@_0EO@OCMIKFBI@c?3?2users?2nhv90?2projects?2eech?2ap@
  00d5f	a1 00 00 00 00	 mov	 eax, DWORD PTR ?null_entity_pointer_message@@3PBDB ; null_entity_pointer_message
  00d64	50		 push	 eax
  00d65	e8 00 00 00 00	 call	 ?process_assert@@YGXPBD0H@Z ; process_assert
  00d6a	c7 85 c0 f8 ff
	ff 00 00 00 00	 mov	 DWORD PTR tv564[ebp], 0
$LN241@process_re:
  00d74	8b 8d 50 fe ff
	ff		 mov	 ecx, DWORD PTR _en$136[ebp]
  00d7a	51		 push	 ecx
  00d7b	8b 15 00 00 00
	00		 mov	 edx, DWORD PTR ?system_comms_model@@3W4COMMS_MODEL_TYPES@@A ; system_comms_model
  00d81	c1 e2 02	 shl	 edx, 2
  00d84	8b 85 c0 f8 ff
	ff		 mov	 eax, DWORD PTR tv564[ebp]
  00d8a	8b 8c c2 00 00
	00 00		 mov	 ecx, DWORD PTR ?fn_destroy_client_server_entity@@3PAY01P6GXPAUENTITY@@@ZA[edx+eax*8]
  00d91	ff d1		 call	 ecx

; 3752 : 
; 3753 : 				break;

  00d93	e9 e1 36 00 00	 jmp	 $LN4@process_re
$LN100@process_re:

; 3754 : 			}
; 3755 : 			////////////////////////////////////////
; 3756 : 			case ENTITY_COMMS_DESTROY_FAMILY:
; 3757 : 			////////////////////////////////////////
; 3758 : 			{
; 3759 : 				entity
; 3760 : 					*en;
; 3761 : 
; 3762 : 				en = unpack_entity_safe_ptr ();

  00d98	e8 00 00 00 00	 call	 ?unpack_entity_safe_ptr@@YGPAUENTITY@@XZ ; unpack_entity_safe_ptr
  00d9d	89 85 4c fe ff
	ff		 mov	 DWORD PTR _en$135[ebp], eax

; 3763 : 
; 3764 : 				#if DEBUG_MODULE_MESSAGE_TEXT
; 3765 : 
; 3766 : 				debug_log ("EN_COMMS: received destroy entity family %s index %d", get_local_entity_type_name (en), get_local_entity_index (en));
; 3767 : 
; 3768 : 				#endif
; 3769 : 
; 3770 : 				destroy_client_server_entity_family (en);

  00da3	83 bd 4c fe ff
	ff 00		 cmp	 DWORD PTR _en$135[ebp], 0
  00daa	74 10		 je	 SHORT $LN242@process_re
  00dac	8b 85 4c fe ff
	ff		 mov	 eax, DWORD PTR _en$135[ebp]
  00db2	8b 08		 mov	 ecx, DWORD PTR [eax]
  00db4	89 8d c0 f8 ff
	ff		 mov	 DWORD PTR tv577[ebp], ecx
  00dba	eb 27		 jmp	 SHORT $LN243@process_re
$LN242@process_re:
  00dbc	8b 15 00 00 00
	00		 mov	 edx, DWORD PTR ?__LINE__Var@?0??process_received_entity_comms_messages@@YGXXZ@4JA
  00dc2	81 c2 70 03 00
	00		 add	 edx, 880		; 00000370H
  00dc8	52		 push	 edx
  00dc9	68 00 00 00 00	 push	 OFFSET ??_C@_0EO@OCMIKFBI@c?3?2users?2nhv90?2projects?2eech?2ap@
  00dce	a1 00 00 00 00	 mov	 eax, DWORD PTR ?null_entity_pointer_message@@3PBDB ; null_entity_pointer_message
  00dd3	50		 push	 eax
  00dd4	e8 00 00 00 00	 call	 ?process_assert@@YGXPBD0H@Z ; process_assert
  00dd9	c7 85 c0 f8 ff
	ff 00 00 00 00	 mov	 DWORD PTR tv577[ebp], 0
$LN243@process_re:
  00de3	8b 8d 4c fe ff
	ff		 mov	 ecx, DWORD PTR _en$135[ebp]
  00de9	51		 push	 ecx
  00dea	8b 15 00 00 00
	00		 mov	 edx, DWORD PTR ?system_comms_model@@3W4COMMS_MODEL_TYPES@@A ; system_comms_model
  00df0	c1 e2 02	 shl	 edx, 2
  00df3	8b 85 c0 f8 ff
	ff		 mov	 eax, DWORD PTR tv577[ebp]
  00df9	8b 8c c2 00 00
	00 00		 mov	 ecx, DWORD PTR ?fn_destroy_client_server_entity_family@@3PAY01P6GXPAUENTITY@@@ZA[edx+eax*8]
  00e00	ff d1		 call	 ecx

; 3771 : 
; 3772 : 				break;

  00e02	e9 72 36 00 00	 jmp	 $LN4@process_re
$LN101@process_re:

; 3773 : 			}
; 3774 : 			////////////////////////////////////////
; 3775 : 			case ENTITY_COMMS_DESTROY_LOCAL_FAMILY:
; 3776 : 			////////////////////////////////////////
; 3777 : 			{
; 3778 : 				entity
; 3779 : 					*en;
; 3780 : 
; 3781 : 				en = unpack_entity_safe_ptr ();

  00e07	e8 00 00 00 00	 call	 ?unpack_entity_safe_ptr@@YGPAUENTITY@@XZ ; unpack_entity_safe_ptr
  00e0c	89 85 48 fe ff
	ff		 mov	 DWORD PTR _en$134[ebp], eax

; 3782 : 
; 3783 : 				#if DEBUG_MODULE_MESSAGE_TEXT
; 3784 : 
; 3785 : 				debug_log ("EN_COMMS: received destroy local entity family %s index %d", get_local_entity_type_name (en), get_local_entity_index (en));
; 3786 : 
; 3787 : 				#endif
; 3788 : 
; 3789 : 				destroy_local_entity_family (en);

  00e12	83 bd 48 fe ff
	ff 00		 cmp	 DWORD PTR _en$134[ebp], 0
  00e19	74 10		 je	 SHORT $LN244@process_re
  00e1b	8b 85 48 fe ff
	ff		 mov	 eax, DWORD PTR _en$134[ebp]
  00e21	8b 08		 mov	 ecx, DWORD PTR [eax]
  00e23	89 8d c0 f8 ff
	ff		 mov	 DWORD PTR tv590[ebp], ecx
  00e29	eb 27		 jmp	 SHORT $LN245@process_re
$LN244@process_re:
  00e2b	8b 15 00 00 00
	00		 mov	 edx, DWORD PTR ?__LINE__Var@?0??process_received_entity_comms_messages@@YGXXZ@4JA
  00e31	81 c2 83 03 00
	00		 add	 edx, 899		; 00000383H
  00e37	52		 push	 edx
  00e38	68 00 00 00 00	 push	 OFFSET ??_C@_0EO@OCMIKFBI@c?3?2users?2nhv90?2projects?2eech?2ap@
  00e3d	a1 00 00 00 00	 mov	 eax, DWORD PTR ?null_entity_pointer_message@@3PBDB ; null_entity_pointer_message
  00e42	50		 push	 eax
  00e43	e8 00 00 00 00	 call	 ?process_assert@@YGXPBD0H@Z ; process_assert
  00e48	c7 85 c0 f8 ff
	ff 00 00 00 00	 mov	 DWORD PTR tv590[ebp], 0
$LN245@process_re:
  00e52	8b 8d 48 fe ff
	ff		 mov	 ecx, DWORD PTR _en$134[ebp]
  00e58	51		 push	 ecx
  00e59	8b 95 c0 f8 ff
	ff		 mov	 edx, DWORD PTR tv590[ebp]
  00e5f	8b 04 95 00 00
	00 00		 mov	 eax, DWORD PTR ?fn_destroy_local_entity_family@@3PAP6GXPAUENTITY@@@ZA[edx*4]
  00e66	ff d0		 call	 eax

; 3790 : 
; 3791 : 				break;

  00e68	e9 0c 36 00 00	 jmp	 $LN4@process_re
$LN102@process_re:

; 3792 : 			}
; 3793 : 			////////////////////////////////////////
; 3794 : 			case ENTITY_COMMS_END:
; 3795 : 			////////////////////////////////////////
; 3796 : 			{
; 3797 : 				done = TRUE;

  00e6d	c7 45 fc 01 00
	00 00		 mov	 DWORD PTR _done$[ebp], 1

; 3798 : 
; 3799 : 				break;

  00e74	e9 00 36 00 00	 jmp	 $LN4@process_re
$LN103@process_re:

; 3800 : 			}
; 3801 : 			////////////////////////////////////////
; 3802 : 			case ENTITY_COMMS_FLOAT_VALUE:
; 3803 : 			////////////////////////////////////////
; 3804 : 			{
; 3805 : 				entity
; 3806 : 					*en;
; 3807 : 
; 3808 : 				float_types
; 3809 : 					type;
; 3810 : 
; 3811 : 				float
; 3812 : 					value;
; 3813 : 
; 3814 : 				en = unpack_entity_safe_ptr ();

  00e79	e8 00 00 00 00	 call	 ?unpack_entity_safe_ptr@@YGPAUENTITY@@XZ ; unpack_entity_safe_ptr
  00e7e	89 85 44 fe ff
	ff		 mov	 DWORD PTR _en$133[ebp], eax

; 3815 : 
; 3816 : 				type = unpack_float_type ();

  00e84	e8 00 00 00 00	 call	 ?unpack_float_type@@YG?AW4FLOAT_TYPES@@XZ ; unpack_float_type
  00e89	89 85 40 fe ff
	ff		 mov	 DWORD PTR _type$132[ebp], eax

; 3817 : 
; 3818 : 				value = unpack_float_value (en, type);

  00e8f	8b 85 40 fe ff
	ff		 mov	 eax, DWORD PTR _type$132[ebp]
  00e95	50		 push	 eax
  00e96	8b 8d 44 fe ff
	ff		 mov	 ecx, DWORD PTR _en$133[ebp]
  00e9c	51		 push	 ecx
  00e9d	e8 00 00 00 00	 call	 ?unpack_float_value@@YGMPAUENTITY@@W4FLOAT_TYPES@@@Z ; unpack_float_value
  00ea2	d9 9d 3c fe ff
	ff		 fstp	 DWORD PTR _value$131[ebp]

; 3819 : 
; 3820 : 				#if FAST_TRACK
; 3821 : 
; 3822 : 				if ((float_type_database[type].fast_track) && (get_comms_model () == COMMS_MODEL_CLIENT) && (en == get_gunship_entity ()))

  00ea8	6b 85 40 fe ff
	ff 18		 imul	 eax, DWORD PTR _type$132[ebp], 24
  00eaf	83 b8 14 00 00
	00 00		 cmp	 DWORD PTR ?float_type_database@@3PAUFLOAT_TYPE_DATA@@A[eax+20], 0
  00eb6	74 1c		 je	 SHORT $LN104@process_re
  00eb8	83 3d 00 00 00
	00 01		 cmp	 DWORD PTR ?system_comms_model@@3W4COMMS_MODEL_TYPES@@A, 1 ; system_comms_model
  00ebf	75 13		 jne	 SHORT $LN104@process_re
  00ec1	8b 85 44 fe ff
	ff		 mov	 eax, DWORD PTR _en$133[ebp]
  00ec7	3b 05 00 00 00
	00		 cmp	 eax, DWORD PTR ?gunship_entity@@3PAUENTITY@@A ; gunship_entity
  00ecd	75 05		 jne	 SHORT $LN104@process_re

; 3823 : 				{
; 3824 : 					#if DEBUG_MODULE_MESSAGE_TEXT
; 3825 : 
; 3826 : 					debug_log ("EN_COMMS: ignore received fast_track float %s = %f for %s (%d)", float_type_database [type].name, value, get_local_entity_type_name (en), get_local_entity_index (en));
; 3827 : 
; 3828 : 					#endif
; 3829 : 				}
; 3830 : 				else

  00ecf	e9 c7 00 00 00	 jmp	 $LN105@process_re
$LN104@process_re:

; 3831 : 				{
; 3832 : 					set_client_server_entity_float_value (en, type, value);

  00ed4	83 bd 44 fe ff
	ff 00		 cmp	 DWORD PTR _en$133[ebp], 0
  00edb	74 10		 je	 SHORT $LN246@process_re
  00edd	8b 85 44 fe ff
	ff		 mov	 eax, DWORD PTR _en$133[ebp]
  00ee3	8b 08		 mov	 ecx, DWORD PTR [eax]
  00ee5	89 8d c0 f8 ff
	ff		 mov	 DWORD PTR tv611[ebp], ecx
  00eeb	eb 27		 jmp	 SHORT $LN247@process_re
$LN246@process_re:
  00eed	8b 15 00 00 00
	00		 mov	 edx, DWORD PTR ?__LINE__Var@?0??process_received_entity_comms_messages@@YGXXZ@4JA
  00ef3	81 c2 ae 03 00
	00		 add	 edx, 942		; 000003aeH
  00ef9	52		 push	 edx
  00efa	68 00 00 00 00	 push	 OFFSET ??_C@_0EO@OCMIKFBI@c?3?2users?2nhv90?2projects?2eech?2ap@
  00eff	a1 00 00 00 00	 mov	 eax, DWORD PTR ?null_entity_pointer_message@@3PBDB ; null_entity_pointer_message
  00f04	50		 push	 eax
  00f05	e8 00 00 00 00	 call	 ?process_assert@@YGXPBD0H@Z ; process_assert
  00f0a	c7 85 c0 f8 ff
	ff 00 00 00 00	 mov	 DWORD PTR tv611[ebp], 0
$LN247@process_re:
  00f14	83 bd 40 fe ff
	ff 00		 cmp	 DWORD PTR _type$132[ebp], 0
  00f1b	7c 1a		 jl	 SHORT $LN248@process_re
  00f1d	81 bd 40 fe ff
	ff af 00 00 00	 cmp	 DWORD PTR _type$132[ebp], 175 ; 000000afH
  00f27	7d 0e		 jge	 SHORT $LN248@process_re
  00f29	8b 8d 40 fe ff
	ff		 mov	 ecx, DWORD PTR _type$132[ebp]
  00f2f	89 8d bc f8 ff
	ff		 mov	 DWORD PTR tv620[ebp], ecx
  00f35	eb 27		 jmp	 SHORT $LN249@process_re
$LN248@process_re:
  00f37	8b 15 00 00 00
	00		 mov	 edx, DWORD PTR ?__LINE__Var@?0??process_received_entity_comms_messages@@YGXXZ@4JA
  00f3d	81 c2 ae 03 00
	00		 add	 edx, 942		; 000003aeH
  00f43	52		 push	 edx
  00f44	68 00 00 00 00	 push	 OFFSET ??_C@_0EO@OCMIKFBI@c?3?2users?2nhv90?2projects?2eech?2ap@
  00f49	a1 00 00 00 00	 mov	 eax, DWORD PTR ?overload_invalid_float_type_message@@3PBDB ; overload_invalid_float_type_message
  00f4e	50		 push	 eax
  00f4f	e8 00 00 00 00	 call	 ?process_assert@@YGXPBD0H@Z ; process_assert
  00f54	c7 85 bc f8 ff
	ff 00 00 00 00	 mov	 DWORD PTR tv620[ebp], 0
$LN249@process_re:
  00f5e	51		 push	 ecx
  00f5f	f3 0f 10 85 3c
	fe ff ff	 movss	 xmm0, DWORD PTR _value$131[ebp]
  00f67	f3 0f 11 04 24	 movss	 DWORD PTR [esp], xmm0
  00f6c	8b 8d 40 fe ff
	ff		 mov	 ecx, DWORD PTR _type$132[ebp]
  00f72	51		 push	 ecx
  00f73	8b 95 44 fe ff
	ff		 mov	 edx, DWORD PTR _en$133[ebp]
  00f79	52		 push	 edx
  00f7a	69 85 c0 f8 ff
	ff 78 05 00 00	 imul	 eax, DWORD PTR tv611[ebp], 1400
  00f84	8b 8d bc f8 ff
	ff		 mov	 ecx, DWORD PTR tv620[ebp]
  00f8a	8d 94 c8 00 00
	00 00		 lea	 edx, DWORD PTR ?fn_set_client_server_entity_float_value@@3PAY1KP@1P6GXPAUENTITY@@W4FLOAT_TYPES@@M@ZA[eax+ecx*8]
  00f91	a1 00 00 00 00	 mov	 eax, DWORD PTR ?system_comms_model@@3W4COMMS_MODEL_TYPES@@A ; system_comms_model
  00f96	8b 0c 82	 mov	 ecx, DWORD PTR [edx+eax*4]
  00f99	ff d1		 call	 ecx
$LN105@process_re:

; 3833 : 
; 3834 : 					#if DEBUG_MODULE_MESSAGE_TEXT
; 3835 : 
; 3836 : 					debug_log ("EN_COMMS: received float %s = %f for %s (%d)", float_type_database [type].name, value, get_local_entity_type_name (en), get_local_entity_index (en));
; 3837 : 
; 3838 : 					#endif
; 3839 : 				}
; 3840 : 
; 3841 : 				#else
; 3842 : 
; 3843 : 				set_client_server_entity_float_value (en, type, value);
; 3844 : 
; 3845 : 				#if DEBUG_MODULE_MESSAGE_TEXT
; 3846 : 
; 3847 : 				debug_log ("EN_COMMS: received float %s = %f for %s (%d)", float_type_database [type].name, value, get_local_entity_type_name (en), get_local_entity_index (en));
; 3848 : 
; 3849 : 				#endif
; 3850 : 
; 3851 : 				#endif
; 3852 : 
; 3853 : 				break;

  00f9b	e9 d9 34 00 00	 jmp	 $LN4@process_re
$LN106@process_re:

; 3854 : 			}
; 3855 : 			////////////////////////////////////////
; 3856 : 			case ENTITY_COMMS_INT_VALUE:
; 3857 : 			////////////////////////////////////////
; 3858 : 			{
; 3859 : 				entity
; 3860 : 					*en;
; 3861 : 
; 3862 : 				int_types
; 3863 : 					type;
; 3864 : 
; 3865 : 				int
; 3866 : 					value;
; 3867 : 
; 3868 : 				en = unpack_entity_safe_ptr ();

  00fa0	e8 00 00 00 00	 call	 ?unpack_entity_safe_ptr@@YGPAUENTITY@@XZ ; unpack_entity_safe_ptr
  00fa5	89 85 38 fe ff
	ff		 mov	 DWORD PTR _en$130[ebp], eax

; 3869 : 
; 3870 : 				type = unpack_int_type ();

  00fab	e8 00 00 00 00	 call	 ?unpack_int_type@@YG?AW4INT_TYPES@@XZ ; unpack_int_type
  00fb0	89 85 34 fe ff
	ff		 mov	 DWORD PTR _type$129[ebp], eax

; 3871 : 
; 3872 : 				value = unpack_int_value (en, type);

  00fb6	8b 85 34 fe ff
	ff		 mov	 eax, DWORD PTR _type$129[ebp]
  00fbc	50		 push	 eax
  00fbd	8b 8d 38 fe ff
	ff		 mov	 ecx, DWORD PTR _en$130[ebp]
  00fc3	51		 push	 ecx
  00fc4	e8 00 00 00 00	 call	 ?unpack_int_value@@YGHPAUENTITY@@W4INT_TYPES@@@Z ; unpack_int_value
  00fc9	89 85 30 fe ff
	ff		 mov	 DWORD PTR _value$128[ebp], eax

; 3873 : 
; 3874 : 				#if FAST_TRACK
; 3875 : 
; 3876 : 				if ((int_type_database[type].fast_track) && (get_comms_model () == COMMS_MODEL_CLIENT) && (en == get_gunship_entity ()))

  00fcf	6b 85 34 fe ff
	ff 14		 imul	 eax, DWORD PTR _type$129[ebp], 20
  00fd6	83 b8 10 00 00
	00 00		 cmp	 DWORD PTR ?int_type_database@@3PAUINT_TYPE_DATA@@A[eax+16], 0
  00fdd	74 1c		 je	 SHORT $LN107@process_re
  00fdf	83 3d 00 00 00
	00 01		 cmp	 DWORD PTR ?system_comms_model@@3W4COMMS_MODEL_TYPES@@A, 1 ; system_comms_model
  00fe6	75 13		 jne	 SHORT $LN107@process_re
  00fe8	8b 85 38 fe ff
	ff		 mov	 eax, DWORD PTR _en$130[ebp]
  00fee	3b 05 00 00 00
	00		 cmp	 eax, DWORD PTR ?gunship_entity@@3PAUENTITY@@A ; gunship_entity
  00ff4	75 05		 jne	 SHORT $LN107@process_re

; 3877 : 				{
; 3878 : 					#if DEBUG_MODULE_MESSAGE_TEXT
; 3879 : 
; 3880 : 					debug_log ("EN_COMMS: ignore received fast_track int value %s = %d for %s (%d)", int_type_database [type].name, value, get_local_entity_type_name (en), get_local_entity_index (en));
; 3881 : 
; 3882 : 					#endif
; 3883 : 				}
; 3884 : 				else

  00ff6	e9 c1 00 00 00	 jmp	 $LN108@process_re
$LN107@process_re:

; 3885 : 				{
; 3886 : 					set_client_server_entity_int_value (en, type, value);

  00ffb	83 bd 38 fe ff
	ff 00		 cmp	 DWORD PTR _en$130[ebp], 0
  01002	74 10		 je	 SHORT $LN250@process_re
  01004	8b 85 38 fe ff
	ff		 mov	 eax, DWORD PTR _en$130[ebp]
  0100a	8b 08		 mov	 ecx, DWORD PTR [eax]
  0100c	89 8d c0 f8 ff
	ff		 mov	 DWORD PTR tv709[ebp], ecx
  01012	eb 27		 jmp	 SHORT $LN251@process_re
$LN250@process_re:
  01014	8b 15 00 00 00
	00		 mov	 edx, DWORD PTR ?__LINE__Var@?0??process_received_entity_comms_messages@@YGXXZ@4JA
  0101a	81 c2 e4 03 00
	00		 add	 edx, 996		; 000003e4H
  01020	52		 push	 edx
  01021	68 00 00 00 00	 push	 OFFSET ??_C@_0EO@OCMIKFBI@c?3?2users?2nhv90?2projects?2eech?2ap@
  01026	a1 00 00 00 00	 mov	 eax, DWORD PTR ?null_entity_pointer_message@@3PBDB ; null_entity_pointer_message
  0102b	50		 push	 eax
  0102c	e8 00 00 00 00	 call	 ?process_assert@@YGXPBD0H@Z ; process_assert
  01031	c7 85 c0 f8 ff
	ff 00 00 00 00	 mov	 DWORD PTR tv709[ebp], 0
$LN251@process_re:
  0103b	83 bd 34 fe ff
	ff 00		 cmp	 DWORD PTR _type$129[ebp], 0
  01042	7c 1a		 jl	 SHORT $LN252@process_re
  01044	81 bd 34 fe ff
	ff 17 01 00 00	 cmp	 DWORD PTR _type$129[ebp], 279 ; 00000117H
  0104e	7d 0e		 jge	 SHORT $LN252@process_re
  01050	8b 8d 34 fe ff
	ff		 mov	 ecx, DWORD PTR _type$129[ebp]
  01056	89 8d bc f8 ff
	ff		 mov	 DWORD PTR tv718[ebp], ecx
  0105c	eb 27		 jmp	 SHORT $LN253@process_re
$LN252@process_re:
  0105e	8b 15 00 00 00
	00		 mov	 edx, DWORD PTR ?__LINE__Var@?0??process_received_entity_comms_messages@@YGXXZ@4JA
  01064	81 c2 e4 03 00
	00		 add	 edx, 996		; 000003e4H
  0106a	52		 push	 edx
  0106b	68 00 00 00 00	 push	 OFFSET ??_C@_0EO@OCMIKFBI@c?3?2users?2nhv90?2projects?2eech?2ap@
  01070	a1 00 00 00 00	 mov	 eax, DWORD PTR ?overload_invalid_int_type_message@@3PBDB ; overload_invalid_int_type_message
  01075	50		 push	 eax
  01076	e8 00 00 00 00	 call	 ?process_assert@@YGXPBD0H@Z ; process_assert
  0107b	c7 85 bc f8 ff
	ff 00 00 00 00	 mov	 DWORD PTR tv718[ebp], 0
$LN253@process_re:
  01085	8b 8d 30 fe ff
	ff		 mov	 ecx, DWORD PTR _value$128[ebp]
  0108b	51		 push	 ecx
  0108c	8b 95 34 fe ff
	ff		 mov	 edx, DWORD PTR _type$129[ebp]
  01092	52		 push	 edx
  01093	8b 85 38 fe ff
	ff		 mov	 eax, DWORD PTR _en$130[ebp]
  01099	50		 push	 eax
  0109a	69 8d c0 f8 ff
	ff b8 08 00 00	 imul	 ecx, DWORD PTR tv709[ebp], 2232
  010a4	8b 95 bc f8 ff
	ff		 mov	 edx, DWORD PTR tv718[ebp]
  010aa	8d 84 d1 00 00
	00 00		 lea	 eax, DWORD PTR ?fn_set_client_server_entity_int_value@@3PAY1BBH@1P6GXPAUENTITY@@W4INT_TYPES@@H@ZA[ecx+edx*8]
  010b1	8b 0d 00 00 00
	00		 mov	 ecx, DWORD PTR ?system_comms_model@@3W4COMMS_MODEL_TYPES@@A ; system_comms_model
  010b7	8b 14 88	 mov	 edx, DWORD PTR [eax+ecx*4]
  010ba	ff d2		 call	 edx
$LN108@process_re:

; 3887 : 
; 3888 : 					#if DEBUG_MODULE_MESSAGE_TEXT
; 3889 : 
; 3890 : 					debug_log ("EN_COMMS: received int value %s = %d for %s (%d)", int_type_database [type].name, value, get_local_entity_type_name (en), get_local_entity_index (en));
; 3891 : 
; 3892 : 					#endif
; 3893 : 				}
; 3894 : 
; 3895 : 				#else
; 3896 : 
; 3897 : 				set_client_server_entity_int_value (en, type, value);
; 3898 : 
; 3899 : 				#if DEBUG_MODULE_MESSAGE_TEXT
; 3900 : 
; 3901 : 				debug_log ("EN_COMMS: received int value %s = %d for %s (%d)", int_type_database [type].name, value, get_local_entity_type_name (en), get_local_entity_index (en));
; 3902 : 
; 3903 : 				#endif
; 3904 : 
; 3905 : 				#endif
; 3906 : 
; 3907 : 				break;

  010bc	e9 b8 33 00 00	 jmp	 $LN4@process_re
$LN109@process_re:

; 3908 : 			}
; 3909 : 			////////////////////////////////////////
; 3910 : 			case ENTITY_COMMS_KILL:
; 3911 : 			////////////////////////////////////////
; 3912 : 			{
; 3913 : 				entity
; 3914 : 					*en;
; 3915 : 
; 3916 : 				int
; 3917 : 					create_stack_attributes;
; 3918 : 
; 3919 : 				en = unpack_entity_safe_ptr ();

  010c1	e8 00 00 00 00	 call	 ?unpack_entity_safe_ptr@@YGPAUENTITY@@XZ ; unpack_entity_safe_ptr
  010c6	89 85 2c fe ff
	ff		 mov	 DWORD PTR _en$127[ebp], eax

; 3920 : 
; 3921 : 				#if DEBUG_MODULE_MESSAGE_TEXT
; 3922 : 
; 3923 : 				debug_log ("EN_COMMS: received kill for %s (%d)", get_local_entity_type_name (en), get_local_entity_index (en));
; 3924 : 
; 3925 : 				#endif
; 3926 : 
; 3927 : 				create_stack_attributes = force_local_entity_create_stack_attributes;

  010cc	a1 00 00 00 00	 mov	 eax, DWORD PTR ?force_local_entity_create_stack_attributes@@3HA ; force_local_entity_create_stack_attributes
  010d1	89 85 28 fe ff
	ff		 mov	 DWORD PTR _create_stack_attributes$126[ebp], eax

; 3928 : 
; 3929 : 				set_force_local_entity_create_stack_attributes (TRUE);

  010d7	c7 05 00 00 00
	00 01 00 00 00	 mov	 DWORD PTR ?force_local_entity_create_stack_attributes@@3HA, 1 ; force_local_entity_create_stack_attributes

; 3930 : 
; 3931 : 				kill_client_server_entity (en);

  010e1	83 bd 2c fe ff
	ff 00		 cmp	 DWORD PTR _en$127[ebp], 0
  010e8	74 10		 je	 SHORT $LN254@process_re
  010ea	8b 85 2c fe ff
	ff		 mov	 eax, DWORD PTR _en$127[ebp]
  010f0	8b 08		 mov	 ecx, DWORD PTR [eax]
  010f2	89 8d c0 f8 ff
	ff		 mov	 DWORD PTR tv733[ebp], ecx
  010f8	eb 27		 jmp	 SHORT $LN255@process_re
$LN254@process_re:
  010fa	8b 15 00 00 00
	00		 mov	 edx, DWORD PTR ?__LINE__Var@?0??process_received_entity_comms_messages@@YGXXZ@4JA
  01100	81 c2 11 04 00
	00		 add	 edx, 1041		; 00000411H
  01106	52		 push	 edx
  01107	68 00 00 00 00	 push	 OFFSET ??_C@_0EO@OCMIKFBI@c?3?2users?2nhv90?2projects?2eech?2ap@
  0110c	a1 00 00 00 00	 mov	 eax, DWORD PTR ?null_entity_pointer_message@@3PBDB ; null_entity_pointer_message
  01111	50		 push	 eax
  01112	e8 00 00 00 00	 call	 ?process_assert@@YGXPBD0H@Z ; process_assert
  01117	c7 85 c0 f8 ff
	ff 00 00 00 00	 mov	 DWORD PTR tv733[ebp], 0
$LN255@process_re:
  01121	8b 8d 2c fe ff
	ff		 mov	 ecx, DWORD PTR _en$127[ebp]
  01127	51		 push	 ecx
  01128	8b 15 00 00 00
	00		 mov	 edx, DWORD PTR ?system_comms_model@@3W4COMMS_MODEL_TYPES@@A ; system_comms_model
  0112e	c1 e2 02	 shl	 edx, 2
  01131	8b 85 c0 f8 ff
	ff		 mov	 eax, DWORD PTR tv733[ebp]
  01137	8b 8c c2 00 00
	00 00		 mov	 ecx, DWORD PTR ?fn_kill_client_server_entity@@3PAY01P6GXPAUENTITY@@@ZA[edx+eax*8]
  0113e	ff d1		 call	 ecx

; 3932 : 
; 3933 : 				set_force_local_entity_create_stack_attributes (create_stack_attributes);

  01140	8b 85 28 fe ff
	ff		 mov	 eax, DWORD PTR _create_stack_attributes$126[ebp]
  01146	a3 00 00 00 00	 mov	 DWORD PTR ?force_local_entity_create_stack_attributes@@3HA, eax ; force_local_entity_create_stack_attributes

; 3934 : 
; 3935 : 				break;

  0114b	e9 29 33 00 00	 jmp	 $LN4@process_re
$LN110@process_re:

; 3936 : 			}
; 3937 : 			////////////////////////////////////////
; 3938 : 			case ENTITY_COMMS_MOBILE_KILL:
; 3939 : 			////////////////////////////////////////
; 3940 : 			{
; 3941 : 				entity
; 3942 : 					*en,
; 3943 : 					*victim;
; 3944 : 
; 3945 : 				en = unpack_entity_safe_ptr ();

  01150	e8 00 00 00 00	 call	 ?unpack_entity_safe_ptr@@YGPAUENTITY@@XZ ; unpack_entity_safe_ptr
  01155	89 85 24 fe ff
	ff		 mov	 DWORD PTR _en$125[ebp], eax

; 3946 : 
; 3947 : 				victim = unpack_entity_safe_ptr ();

  0115b	e8 00 00 00 00	 call	 ?unpack_entity_safe_ptr@@YGPAUENTITY@@XZ ; unpack_entity_safe_ptr
  01160	89 85 20 fe ff
	ff		 mov	 DWORD PTR _victim$124[ebp], eax

; 3948 : 
; 3949 : 				#if DEBUG_MODULE_MESSAGE_TEXT
; 3950 : 
; 3951 : 				debug_log ("EN_COMMS: received mobile kill for %s (%d)", get_local_entity_type_name (victim), get_local_entity_index (victim));
; 3952 : 
; 3953 : 				#endif
; 3954 : 
; 3955 : 				ASSERT (get_local_entity_type (en) == ENTITY_TYPE_FORCE);

  01166	83 bd 24 fe ff
	ff 00		 cmp	 DWORD PTR _en$125[ebp], 0
  0116d	74 10		 je	 SHORT $LN256@process_re
  0116f	8b 85 24 fe ff
	ff		 mov	 eax, DWORD PTR _en$125[ebp]
  01175	8b 08		 mov	 ecx, DWORD PTR [eax]
  01177	89 8d c0 f8 ff
	ff		 mov	 DWORD PTR tv747[ebp], ecx
  0117d	eb 27		 jmp	 SHORT $LN257@process_re
$LN256@process_re:
  0117f	8b 15 00 00 00
	00		 mov	 edx, DWORD PTR ?__LINE__Var@?0??process_received_entity_comms_messages@@YGXXZ@4JA
  01185	81 c2 29 04 00
	00		 add	 edx, 1065		; 00000429H
  0118b	52		 push	 edx
  0118c	68 00 00 00 00	 push	 OFFSET ??_C@_0EO@OCMIKFBI@c?3?2users?2nhv90?2projects?2eech?2ap@
  01191	a1 00 00 00 00	 mov	 eax, DWORD PTR ?null_entity_pointer_message@@3PBDB ; null_entity_pointer_message
  01196	50		 push	 eax
  01197	e8 00 00 00 00	 call	 ?process_assert@@YGXPBD0H@Z ; process_assert
  0119c	c7 85 c0 f8 ff
	ff 00 00 00 00	 mov	 DWORD PTR tv747[ebp], 0
$LN257@process_re:
  011a6	83 bd c0 f8 ff
	ff 0b		 cmp	 DWORD PTR tv747[ebp], 11 ; 0000000bH
  011ad	74 1a		 je	 SHORT $LN111@process_re
  011af	a1 00 00 00 00	 mov	 eax, DWORD PTR ?__LINE__Var@?0??process_received_entity_comms_messages@@YGXXZ@4JA
  011b4	05 29 04 00 00	 add	 eax, 1065		; 00000429H
  011b9	50		 push	 eax
  011ba	68 00 00 00 00	 push	 OFFSET ??_C@_0EO@OCMIKFBI@c?3?2users?2nhv90?2projects?2eech?2ap@
  011bf	68 00 00 00 00	 push	 OFFSET ??_C@_0DA@GDENJLMD@get_local_entity_type?5?$CIen?$CJ?5?$DN?$DN?5E@
  011c4	e8 00 00 00 00	 call	 ?process_assert@@YGXPBD0H@Z ; process_assert
$LN111@process_re:

; 3956 : 	
; 3957 : 				add_mobile_to_force_kills_stats (en, victim);

  011c9	8b 85 20 fe ff
	ff		 mov	 eax, DWORD PTR _victim$124[ebp]
  011cf	50		 push	 eax
  011d0	8b 8d 24 fe ff
	ff		 mov	 ecx, DWORD PTR _en$125[ebp]
  011d6	51		 push	 ecx
  011d7	e8 00 00 00 00	 call	 ?add_mobile_to_force_kills_stats@@YGXPAUENTITY@@0@Z ; add_mobile_to_force_kills_stats

; 3958 : 
; 3959 : 				break;

  011dc	e9 98 32 00 00	 jmp	 $LN4@process_re
$LN112@process_re:

; 3960 : 			}
; 3961 : 			////////////////////////////////////////
; 3962 : 			case ENTITY_COMMS_MOBILE_LAND:
; 3963 : 			////////////////////////////////////////
; 3964 : 			{
; 3965 : 				entity
; 3966 : 					*wp,
; 3967 : 					*en;
; 3968 : 
; 3969 : 				en = unpack_entity_safe_ptr ();

  011e1	e8 00 00 00 00	 call	 ?unpack_entity_safe_ptr@@YGPAUENTITY@@XZ ; unpack_entity_safe_ptr
  011e6	89 85 18 fe ff
	ff		 mov	 DWORD PTR _en$122[ebp], eax

; 3970 : 
; 3971 : 				wp = unpack_entity_safe_ptr ();

  011ec	e8 00 00 00 00	 call	 ?unpack_entity_safe_ptr@@YGPAUENTITY@@XZ ; unpack_entity_safe_ptr
  011f1	89 85 1c fe ff
	ff		 mov	 DWORD PTR _wp$123[ebp], eax

; 3972 : 
; 3973 : 				insert_local_entity_into_parents_child_list (en, LIST_TYPE_CURRENT_WAYPOINT, wp, NULL);

  011f7	6a 00		 push	 0
  011f9	8b 85 1c fe ff
	ff		 mov	 eax, DWORD PTR _wp$123[ebp]
  011ff	50		 push	 eax
  01200	6a 09		 push	 9
  01202	8b 8d 18 fe ff
	ff		 mov	 ecx, DWORD PTR _en$122[ebp]
  01208	51		 push	 ecx
  01209	e8 00 00 00 00	 call	 ?insert_local_entity_into_parents_child_list@@YGXPAUENTITY@@W4LIST_TYPES@@00@Z ; insert_local_entity_into_parents_child_list

; 3974 : 
; 3975 : 				#if DEBUG_MODULE_MESSAGE_TEXT
; 3976 : 
; 3977 : 				debug_log ("EN_COMMS: received mobile land for %s (%d)", get_local_entity_type_name (en), get_local_entity_index (en));
; 3978 : 
; 3979 : 				#endif
; 3980 : 
; 3981 : 				set_local_entity_int_value (en, INT_TYPE_OPERATIONAL_STATE, OPERATIONAL_STATE_LANDED);

  0120e	83 bd 18 fe ff
	ff 00		 cmp	 DWORD PTR _en$122[ebp], 0
  01215	74 10		 je	 SHORT $LN258@process_re
  01217	8b 85 18 fe ff
	ff		 mov	 eax, DWORD PTR _en$122[ebp]
  0121d	8b 08		 mov	 ecx, DWORD PTR [eax]
  0121f	89 8d c0 f8 ff
	ff		 mov	 DWORD PTR tv767[ebp], ecx
  01225	eb 27		 jmp	 SHORT $LN259@process_re
$LN258@process_re:
  01227	8b 15 00 00 00
	00		 mov	 edx, DWORD PTR ?__LINE__Var@?0??process_received_entity_comms_messages@@YGXXZ@4JA
  0122d	81 c2 43 04 00
	00		 add	 edx, 1091		; 00000443H
  01233	52		 push	 edx
  01234	68 00 00 00 00	 push	 OFFSET ??_C@_0EO@OCMIKFBI@c?3?2users?2nhv90?2projects?2eech?2ap@
  01239	a1 00 00 00 00	 mov	 eax, DWORD PTR ?null_entity_pointer_message@@3PBDB ; null_entity_pointer_message
  0123e	50		 push	 eax
  0123f	e8 00 00 00 00	 call	 ?process_assert@@YGXPBD0H@Z ; process_assert
  01244	c7 85 c0 f8 ff
	ff 00 00 00 00	 mov	 DWORD PTR tv767[ebp], 0
$LN259@process_re:
  0124e	b9 01 00 00 00	 mov	 ecx, 1
  01253	85 c9		 test	 ecx, ecx
  01255	74 0c		 je	 SHORT $LN260@process_re
  01257	c7 85 bc f8 ff
	ff 97 00 00 00	 mov	 DWORD PTR tv775[ebp], 151 ; 00000097H
  01261	eb 27		 jmp	 SHORT $LN261@process_re
$LN260@process_re:
  01263	8b 15 00 00 00
	00		 mov	 edx, DWORD PTR ?__LINE__Var@?0??process_received_entity_comms_messages@@YGXXZ@4JA
  01269	81 c2 43 04 00
	00		 add	 edx, 1091		; 00000443H
  0126f	52		 push	 edx
  01270	68 00 00 00 00	 push	 OFFSET ??_C@_0EO@OCMIKFBI@c?3?2users?2nhv90?2projects?2eech?2ap@
  01275	a1 00 00 00 00	 mov	 eax, DWORD PTR ?overload_invalid_int_type_message@@3PBDB ; overload_invalid_int_type_message
  0127a	50		 push	 eax
  0127b	e8 00 00 00 00	 call	 ?process_assert@@YGXPBD0H@Z ; process_assert
  01280	c7 85 bc f8 ff
	ff 00 00 00 00	 mov	 DWORD PTR tv775[ebp], 0
$LN261@process_re:
  0128a	6a 04		 push	 4
  0128c	68 97 00 00 00	 push	 151			; 00000097H
  01291	8b 8d 18 fe ff
	ff		 mov	 ecx, DWORD PTR _en$122[ebp]
  01297	51		 push	 ecx
  01298	69 95 c0 f8 ff
	ff 5c 04 00 00	 imul	 edx, DWORD PTR tv767[ebp], 1116
  012a2	8b 85 bc f8 ff
	ff		 mov	 eax, DWORD PTR tv775[ebp]
  012a8	8b 8c 82 00 00
	00 00		 mov	 ecx, DWORD PTR ?fn_set_local_entity_int_value@@3PAY0BBH@P6GXPAUENTITY@@W4INT_TYPES@@H@ZA[edx+eax*4]
  012af	ff d1		 call	 ecx

; 3982 : 
; 3983 : 				break;

  012b1	e9 c3 31 00 00	 jmp	 $LN4@process_re
$LN113@process_re:

; 3984 : 			}
; 3985 : 			////////////////////////////////////////
; 3986 : 			case ENTITY_COMMS_MOBILE_TAKEOFF:
; 3987 : 			////////////////////////////////////////
; 3988 : 			{
; 3989 : 				entity
; 3990 : 					*en,
; 3991 : //					*cwp,
; 3992 : //					*group,
; 3993 : 					*landing_en;
; 3994 : //					*landing_task;
; 3995 : 
; 3996 : 				en = unpack_entity_safe_ptr ();

  012b6	e8 00 00 00 00	 call	 ?unpack_entity_safe_ptr@@YGPAUENTITY@@XZ ; unpack_entity_safe_ptr
  012bb	89 85 14 fe ff
	ff		 mov	 DWORD PTR _en$121[ebp], eax

; 3997 : 
; 3998 : 				if (get_comms_model () == COMMS_MODEL_SERVER)

  012c1	83 3d 00 00 00
	00 00		 cmp	 DWORD PTR ?system_comms_model@@3W4COMMS_MODEL_TYPES@@A, 0 ; system_comms_model
  012c8	0f 85 dc 00 00
	00		 jne	 $LN115@process_re

; 3999 : 				{
; 4000 : 
; 4001 : 					set_local_entity_int_value (en, INT_TYPE_OPERATIONAL_STATE, OPERATIONAL_STATE_NAVIGATING);

  012ce	83 bd 14 fe ff
	ff 00		 cmp	 DWORD PTR _en$121[ebp], 0
  012d5	74 10		 je	 SHORT $LN262@process_re
  012d7	8b 85 14 fe ff
	ff		 mov	 eax, DWORD PTR _en$121[ebp]
  012dd	8b 08		 mov	 ecx, DWORD PTR [eax]
  012df	89 8d c0 f8 ff
	ff		 mov	 DWORD PTR tv789[ebp], ecx
  012e5	eb 27		 jmp	 SHORT $LN263@process_re
$LN262@process_re:
  012e7	8b 15 00 00 00
	00		 mov	 edx, DWORD PTR ?__LINE__Var@?0??process_received_entity_comms_messages@@YGXXZ@4JA
  012ed	81 c2 57 04 00
	00		 add	 edx, 1111		; 00000457H
  012f3	52		 push	 edx
  012f4	68 00 00 00 00	 push	 OFFSET ??_C@_0EO@OCMIKFBI@c?3?2users?2nhv90?2projects?2eech?2ap@
  012f9	a1 00 00 00 00	 mov	 eax, DWORD PTR ?null_entity_pointer_message@@3PBDB ; null_entity_pointer_message
  012fe	50		 push	 eax
  012ff	e8 00 00 00 00	 call	 ?process_assert@@YGXPBD0H@Z ; process_assert
  01304	c7 85 c0 f8 ff
	ff 00 00 00 00	 mov	 DWORD PTR tv789[ebp], 0
$LN263@process_re:
  0130e	b9 01 00 00 00	 mov	 ecx, 1
  01313	85 c9		 test	 ecx, ecx
  01315	74 0c		 je	 SHORT $LN264@process_re
  01317	c7 85 bc f8 ff
	ff 97 00 00 00	 mov	 DWORD PTR tv797[ebp], 151 ; 00000097H
  01321	eb 27		 jmp	 SHORT $LN265@process_re
$LN264@process_re:
  01323	8b 15 00 00 00
	00		 mov	 edx, DWORD PTR ?__LINE__Var@?0??process_received_entity_comms_messages@@YGXXZ@4JA
  01329	81 c2 57 04 00
	00		 add	 edx, 1111		; 00000457H
  0132f	52		 push	 edx
  01330	68 00 00 00 00	 push	 OFFSET ??_C@_0EO@OCMIKFBI@c?3?2users?2nhv90?2projects?2eech?2ap@
  01335	a1 00 00 00 00	 mov	 eax, DWORD PTR ?overload_invalid_int_type_message@@3PBDB ; overload_invalid_int_type_message
  0133a	50		 push	 eax
  0133b	e8 00 00 00 00	 call	 ?process_assert@@YGXPBD0H@Z ; process_assert
  01340	c7 85 bc f8 ff
	ff 00 00 00 00	 mov	 DWORD PTR tv797[ebp], 0
$LN265@process_re:
  0134a	6a 07		 push	 7
  0134c	68 97 00 00 00	 push	 151			; 00000097H
  01351	8b 8d 14 fe ff
	ff		 mov	 ecx, DWORD PTR _en$121[ebp]
  01357	51		 push	 ecx
  01358	69 95 c0 f8 ff
	ff 5c 04 00 00	 imul	 edx, DWORD PTR tv789[ebp], 1116
  01362	8b 85 bc f8 ff
	ff		 mov	 eax, DWORD PTR tv797[ebp]
  01368	8b 8c 82 00 00
	00 00		 mov	 ecx, DWORD PTR ?fn_set_local_entity_int_value@@3PAY0BBH@P6GXPAUENTITY@@W4INT_TYPES@@H@ZA[edx+eax*4]
  0136f	ff d1		 call	 ecx

; 4002 : 
; 4003 : 					delete_local_entity_from_parents_child_list (en, LIST_TYPE_MOVEMENT_DEPENDENT);

  01371	6a 1a		 push	 26			; 0000001aH
  01373	8b 85 14 fe ff
	ff		 mov	 eax, DWORD PTR _en$121[ebp]
  01379	50		 push	 eax
  0137a	e8 00 00 00 00	 call	 ?delete_local_entity_from_parents_child_list@@YGXPAUENTITY@@W4LIST_TYPES@@@Z ; delete_local_entity_from_parents_child_list

; 4004 : 
; 4005 : 					//
; 4006 : 					// Unlock landing lock if group doesn't have task (ie it wouldn't have been unlocked automatically be task assignment)
; 4007 : 					//
; 4008 : 
; 4009 : 					landing_en = NULL;//get_local_group_member_landing_entity (en);

  0137f	c7 85 10 fe ff
	ff 00 00 00 00	 mov	 DWORD PTR _landing_en$120[ebp], 0

; 4010 : 
; 4011 : //					group = get_local_entity_parent (en, LIST_TYPE_MEMBER);
; 4012 : 
; 4013 : //					if ((group) && (!get_local_entity_first_child (group, LIST_TYPE_TASK_STACK)))
; 4014 : 					{
; 4015 : 
; 4016 : //						cwp = get_local_entity_parent (en, LIST_TYPE_CURRENT_WAYPOINT);
; 4017 : 
; 4018 : //						if (cwp)
; 4019 : //						{
; 4020 : 
; 4021 : //							landing_task = get_local_entity_parent (cwp, LIST_TYPE_WAYPOINT);
; 4022 : 
; 4023 : //							landing_en = get_local_entity_parent (landing_task, LIST_TYPE_GENERIC_TASK);
; 4024 : 
; 4025 : 							if (landing_en)

  01389	83 bd 10 fe ff
	ff 00		 cmp	 DWORD PTR _landing_en$120[ebp], 0
  01390	74 18		 je	 SHORT $LN115@process_re

; 4026 : 							{
; 4027 : 
; 4028 : 								notify_local_entity (ENTITY_MESSAGE_UNLOCK_LANDING_SITE, landing_en, en);

  01392	8b 85 14 fe ff
	ff		 mov	 eax, DWORD PTR _en$121[ebp]
  01398	50		 push	 eax
  01399	8b 8d 10 fe ff
	ff		 mov	 ecx, DWORD PTR _landing_en$120[ebp]
  0139f	51		 push	 ecx
  013a0	6a 3a		 push	 58			; 0000003aH
  013a2	e8 00 00 00 00	 call	 ?notify_local_entity@@YAHW4ENTITY_MESSAGES@@PAUENTITY@@1ZZ ; notify_local_entity
  013a7	83 c4 0c	 add	 esp, 12			; 0000000cH
$LN115@process_re:

; 4029 : 
; 4030 : //								delete_local_entity_from_parents_child_list (en, LIST_TYPE_CURRENT_WAYPOINT);
; 4031 : 							}
; 4032 : //						}
; 4033 : 					}
; 4034 : 				}
; 4035 : 
; 4036 : 				#if DEBUG_MODULE_MESSAGE_TEXT
; 4037 : 
; 4038 : 				debug_log ("EN_COMMS: received mobile takeoff for %s (%d)", get_local_entity_type_name (en), get_local_entity_index (en));
; 4039 : 
; 4040 : 				#endif
; 4041 : 
; 4042 : 				break;

  013aa	e9 ca 30 00 00	 jmp	 $LN4@process_re
$LN116@process_re:

; 4043 : 			}
; 4044 : 			////////////////////////////////////////
; 4045 : 			case ENTITY_COMMS_MOVE_PLANNER_WAYPOINT:
; 4046 : 			////////////////////////////////////////
; 4047 : 			{
; 4048 : 				entity
; 4049 : 					*member,
; 4050 : 					*wp;
; 4051 : 
; 4052 : 				vec3d
; 4053 : 					pos;
; 4054 : 
; 4055 : 				ASSERT (get_comms_model () == COMMS_MODEL_SERVER);

  013af	83 3d 00 00 00
	00 00		 cmp	 DWORD PTR ?system_comms_model@@3W4COMMS_MODEL_TYPES@@A, 0 ; system_comms_model
  013b6	74 1a		 je	 SHORT $LN117@process_re
  013b8	a1 00 00 00 00	 mov	 eax, DWORD PTR ?__LINE__Var@?0??process_received_entity_comms_messages@@YGXXZ@4JA
  013bd	05 8d 04 00 00	 add	 eax, 1165		; 0000048dH
  013c2	50		 push	 eax
  013c3	68 00 00 00 00	 push	 OFFSET ??_C@_0EO@OCMIKFBI@c?3?2users?2nhv90?2projects?2eech?2ap@
  013c8	68 00 00 00 00	 push	 OFFSET ??_C@_0CJ@DMBLBJBK@get_comms_model?5?$CI?$CJ?5?$DN?$DN?5COMMS_MOD@
  013cd	e8 00 00 00 00	 call	 ?process_assert@@YGXPBD0H@Z ; process_assert
$LN117@process_re:

; 4056 : 
; 4057 : 				wp = unpack_entity_safe_ptr ();

  013d2	e8 00 00 00 00	 call	 ?unpack_entity_safe_ptr@@YGPAUENTITY@@XZ ; unpack_entity_safe_ptr
  013d7	89 85 08 fe ff
	ff		 mov	 DWORD PTR _wp$118[ebp], eax

; 4058 : 
; 4059 : 				unpack_vec3d (wp, VEC3D_TYPE_POSITION, &pos);

  013dd	8d 85 fc fd ff
	ff		 lea	 eax, DWORD PTR _pos$117[ebp]
  013e3	50		 push	 eax
  013e4	6a 08		 push	 8
  013e6	8b 8d 08 fe ff
	ff		 mov	 ecx, DWORD PTR _wp$118[ebp]
  013ec	51		 push	 ecx
  013ed	e8 00 00 00 00	 call	 ?unpack_vec3d@@YGXPAUENTITY@@W4VEC3D_TYPES@@PAUVEC3D@@@Z ; unpack_vec3d

; 4060 : 
; 4061 : 				#if DEBUG_MODULE_MESSAGE_TEXT
; 4062 : 
; 4063 : 				debug_log ("EN_COMMS: received move planner waypoint for %s (%d) to %f, %f, %f", get_local_entity_type_name (wp), get_local_entity_index (wp), pos.x, pos.y, pos.z);
; 4064 : 
; 4065 : 				#endif
; 4066 : 
; 4067 : 				set_client_server_entity_vec3d (wp, VEC3D_TYPE_POSITION, &pos);

  013f2	83 bd 08 fe ff
	ff 00		 cmp	 DWORD PTR _wp$118[ebp], 0
  013f9	74 10		 je	 SHORT $LN266@process_re
  013fb	8b 85 08 fe ff
	ff		 mov	 eax, DWORD PTR _wp$118[ebp]
  01401	8b 08		 mov	 ecx, DWORD PTR [eax]
  01403	89 8d c0 f8 ff
	ff		 mov	 DWORD PTR tv824[ebp], ecx
  01409	eb 27		 jmp	 SHORT $LN267@process_re
$LN266@process_re:
  0140b	8b 15 00 00 00
	00		 mov	 edx, DWORD PTR ?__LINE__Var@?0??process_received_entity_comms_messages@@YGXXZ@4JA
  01411	81 c2 99 04 00
	00		 add	 edx, 1177		; 00000499H
  01417	52		 push	 edx
  01418	68 00 00 00 00	 push	 OFFSET ??_C@_0EO@OCMIKFBI@c?3?2users?2nhv90?2projects?2eech?2ap@
  0141d	a1 00 00 00 00	 mov	 eax, DWORD PTR ?null_entity_pointer_message@@3PBDB ; null_entity_pointer_message
  01422	50		 push	 eax
  01423	e8 00 00 00 00	 call	 ?process_assert@@YGXPBD0H@Z ; process_assert
  01428	c7 85 c0 f8 ff
	ff 00 00 00 00	 mov	 DWORD PTR tv824[ebp], 0
$LN267@process_re:
  01432	b9 01 00 00 00	 mov	 ecx, 1
  01437	85 c9		 test	 ecx, ecx
  01439	74 0c		 je	 SHORT $LN268@process_re
  0143b	c7 85 bc f8 ff
	ff 08 00 00 00	 mov	 DWORD PTR tv832[ebp], 8
  01445	eb 27		 jmp	 SHORT $LN269@process_re
$LN268@process_re:
  01447	8b 15 00 00 00
	00		 mov	 edx, DWORD PTR ?__LINE__Var@?0??process_received_entity_comms_messages@@YGXXZ@4JA
  0144d	81 c2 99 04 00
	00		 add	 edx, 1177		; 00000499H
  01453	52		 push	 edx
  01454	68 00 00 00 00	 push	 OFFSET ??_C@_0EO@OCMIKFBI@c?3?2users?2nhv90?2projects?2eech?2ap@
  01459	a1 00 00 00 00	 mov	 eax, DWORD PTR ?overload_invalid_vec3d_type_message@@3PBDB ; overload_invalid_vec3d_type_message
  0145e	50		 push	 eax
  0145f	e8 00 00 00 00	 call	 ?process_assert@@YGXPBD0H@Z ; process_assert
  01464	c7 85 bc f8 ff
	ff 00 00 00 00	 mov	 DWORD PTR tv832[ebp], 0
$LN269@process_re:
  0146e	8d 8d fc fd ff
	ff		 lea	 ecx, DWORD PTR _pos$117[ebp]
  01474	51		 push	 ecx
  01475	6a 08		 push	 8
  01477	8b 95 08 fe ff
	ff		 mov	 edx, DWORD PTR _wp$118[ebp]
  0147d	52		 push	 edx
  0147e	69 85 c0 f8 ff
	ff c0 00 00 00	 imul	 eax, DWORD PTR tv824[ebp], 192
  01488	8b 8d bc f8 ff
	ff		 mov	 ecx, DWORD PTR tv832[ebp]
  0148e	8d 94 c8 00 00
	00 00		 lea	 edx, DWORD PTR ?fn_set_client_server_entity_vec3d@@3PAY1BI@1P6GXPAUENTITY@@W4VEC3D_TYPES@@PAUVEC3D@@@ZA[eax+ecx*8]
  01495	a1 00 00 00 00	 mov	 eax, DWORD PTR ?system_comms_model@@3W4COMMS_MODEL_TYPES@@A ; system_comms_model
  0149a	8b 0c 82	 mov	 ecx, DWORD PTR [edx+eax*4]
  0149d	ff d1		 call	 ecx

; 4068 : 
; 4069 : 				member = get_local_entity_first_child (wp, LIST_TYPE_CURRENT_WAYPOINT);

  0149f	83 bd 08 fe ff
	ff 00		 cmp	 DWORD PTR _wp$118[ebp], 0
  014a6	74 10		 je	 SHORT $LN270@process_re
  014a8	8b 85 08 fe ff
	ff		 mov	 eax, DWORD PTR _wp$118[ebp]
  014ae	8b 08		 mov	 ecx, DWORD PTR [eax]
  014b0	89 8d c0 f8 ff
	ff		 mov	 DWORD PTR tv846[ebp], ecx
  014b6	eb 27		 jmp	 SHORT $LN271@process_re
$LN270@process_re:
  014b8	8b 15 00 00 00
	00		 mov	 edx, DWORD PTR ?__LINE__Var@?0??process_received_entity_comms_messages@@YGXXZ@4JA
  014be	81 c2 9b 04 00
	00		 add	 edx, 1179		; 0000049bH
  014c4	52		 push	 edx
  014c5	68 00 00 00 00	 push	 OFFSET ??_C@_0EO@OCMIKFBI@c?3?2users?2nhv90?2projects?2eech?2ap@
  014ca	a1 00 00 00 00	 mov	 eax, DWORD PTR ?null_entity_pointer_message@@3PBDB ; null_entity_pointer_message
  014cf	50		 push	 eax
  014d0	e8 00 00 00 00	 call	 ?process_assert@@YGXPBD0H@Z ; process_assert
  014d5	c7 85 c0 f8 ff
	ff 00 00 00 00	 mov	 DWORD PTR tv846[ebp], 0
$LN271@process_re:
  014df	b9 01 00 00 00	 mov	 ecx, 1
  014e4	85 c9		 test	 ecx, ecx
  014e6	74 0c		 je	 SHORT $LN272@process_re
  014e8	c7 85 bc f8 ff
	ff 09 00 00 00	 mov	 DWORD PTR tv854[ebp], 9
  014f2	eb 27		 jmp	 SHORT $LN273@process_re
$LN272@process_re:
  014f4	8b 15 00 00 00
	00		 mov	 edx, DWORD PTR ?__LINE__Var@?0??process_received_entity_comms_messages@@YGXXZ@4JA
  014fa	81 c2 9b 04 00
	00		 add	 edx, 1179		; 0000049bH
  01500	52		 push	 edx
  01501	68 00 00 00 00	 push	 OFFSET ??_C@_0EO@OCMIKFBI@c?3?2users?2nhv90?2projects?2eech?2ap@
  01506	a1 00 00 00 00	 mov	 eax, DWORD PTR ?overload_invalid_list_type_message@@3PBDB ; overload_invalid_list_type_message
  0150b	50		 push	 eax
  0150c	e8 00 00 00 00	 call	 ?process_assert@@YGXPBD0H@Z ; process_assert
  01511	c7 85 bc f8 ff
	ff 00 00 00 00	 mov	 DWORD PTR tv854[ebp], 0
$LN273@process_re:
  0151b	6a 09		 push	 9
  0151d	8b 8d 08 fe ff
	ff		 mov	 ecx, DWORD PTR _wp$118[ebp]
  01523	51		 push	 ecx
  01524	69 95 c0 f8 ff
	ff b4 00 00 00	 imul	 edx, DWORD PTR tv846[ebp], 180
  0152e	8b 85 bc f8 ff
	ff		 mov	 eax, DWORD PTR tv854[ebp]
  01534	8b 8c 82 00 00
	00 00		 mov	 ecx, DWORD PTR ?fn_get_local_entity_first_child@@3PAY0CN@P6GPAUENTITY@@PAU1@W4LIST_TYPES@@@ZA[edx+eax*4]
  0153b	ff d1		 call	 ecx
  0153d	89 85 0c fe ff
	ff		 mov	 DWORD PTR _member$119[ebp], eax
$LN24@process_re:

; 4070 : 
; 4071 : 				while (member)

  01543	83 bd 0c fe ff
	ff 00		 cmp	 DWORD PTR _member$119[ebp], 0
  0154a	0f 84 a9 00 00
	00		 je	 $LN25@process_re

; 4072 : 				{
; 4073 : 
; 4074 : //					set_client_server_mobile_internal_waypoint (member, wp);
; 4075 : 
; 4076 : 					#if DEBUG_MODULE_MESSAGE_TEXT
; 4077 : 
; 4078 : 					debug_log ("EN_COMMS:     setting internal waypoint for %s (%d) to %f, %f, %f", get_local_entity_type_name (member), get_local_entity_index (member), pos.x, pos.y, pos.z);
; 4079 : 
; 4080 : 					#endif
; 4081 : 
; 4082 : 					member = get_local_entity_child_succ (member, LIST_TYPE_CURRENT_WAYPOINT);

  01550	83 bd 0c fe ff
	ff 00		 cmp	 DWORD PTR _member$119[ebp], 0
  01557	74 10		 je	 SHORT $LN274@process_re
  01559	8b 85 0c fe ff
	ff		 mov	 eax, DWORD PTR _member$119[ebp]
  0155f	8b 08		 mov	 ecx, DWORD PTR [eax]
  01561	89 8d c0 f8 ff
	ff		 mov	 DWORD PTR tv867[ebp], ecx
  01567	eb 27		 jmp	 SHORT $LN275@process_re
$LN274@process_re:
  01569	8b 15 00 00 00
	00		 mov	 edx, DWORD PTR ?__LINE__Var@?0??process_received_entity_comms_messages@@YGXXZ@4JA
  0156f	81 c2 a8 04 00
	00		 add	 edx, 1192		; 000004a8H
  01575	52		 push	 edx
  01576	68 00 00 00 00	 push	 OFFSET ??_C@_0EO@OCMIKFBI@c?3?2users?2nhv90?2projects?2eech?2ap@
  0157b	a1 00 00 00 00	 mov	 eax, DWORD PTR ?null_entity_pointer_message@@3PBDB ; null_entity_pointer_message
  01580	50		 push	 eax
  01581	e8 00 00 00 00	 call	 ?process_assert@@YGXPBD0H@Z ; process_assert
  01586	c7 85 c0 f8 ff
	ff 00 00 00 00	 mov	 DWORD PTR tv867[ebp], 0
$LN275@process_re:
  01590	b9 01 00 00 00	 mov	 ecx, 1
  01595	85 c9		 test	 ecx, ecx
  01597	74 0c		 je	 SHORT $LN276@process_re
  01599	c7 85 bc f8 ff
	ff 09 00 00 00	 mov	 DWORD PTR tv875[ebp], 9
  015a3	eb 27		 jmp	 SHORT $LN277@process_re
$LN276@process_re:
  015a5	8b 15 00 00 00
	00		 mov	 edx, DWORD PTR ?__LINE__Var@?0??process_received_entity_comms_messages@@YGXXZ@4JA
  015ab	81 c2 a8 04 00
	00		 add	 edx, 1192		; 000004a8H
  015b1	52		 push	 edx
  015b2	68 00 00 00 00	 push	 OFFSET ??_C@_0EO@OCMIKFBI@c?3?2users?2nhv90?2projects?2eech?2ap@
  015b7	a1 00 00 00 00	 mov	 eax, DWORD PTR ?overload_invalid_list_type_message@@3PBDB ; overload_invalid_list_type_message
  015bc	50		 push	 eax
  015bd	e8 00 00 00 00	 call	 ?process_assert@@YGXPBD0H@Z ; process_assert
  015c2	c7 85 bc f8 ff
	ff 00 00 00 00	 mov	 DWORD PTR tv875[ebp], 0
$LN277@process_re:
  015cc	6a 09		 push	 9
  015ce	8b 8d 0c fe ff
	ff		 mov	 ecx, DWORD PTR _member$119[ebp]
  015d4	51		 push	 ecx
  015d5	69 95 c0 f8 ff
	ff b4 00 00 00	 imul	 edx, DWORD PTR tv867[ebp], 180
  015df	8b 85 bc f8 ff
	ff		 mov	 eax, DWORD PTR tv875[ebp]
  015e5	8b 8c 82 00 00
	00 00		 mov	 ecx, DWORD PTR ?fn_get_local_entity_child_succ@@3PAY0CN@P6GPAUENTITY@@PAU1@W4LIST_TYPES@@@ZA[edx+eax*4]
  015ec	ff d1		 call	 ecx
  015ee	89 85 0c fe ff
	ff		 mov	 DWORD PTR _member$119[ebp], eax

; 4083 : 				}

  015f4	e9 4a ff ff ff	 jmp	 $LN24@process_re
$LN25@process_re:

; 4084 : 
; 4085 : 				break;

  015f9	e9 7b 2e 00 00	 jmp	 $LN4@process_re
$LN118@process_re:

; 4086 : 			}
; 4087 : 			////////////////////////////////////////
; 4088 : 			case ENTITY_COMMS_PAUSE_SOUND_TYPE:
; 4089 : 			////////////////////////////////////////
; 4090 : 			{
; 4091 : 				entity
; 4092 : 					*en;
; 4093 : 
; 4094 : 				entity_sub_types
; 4095 : 					type;
; 4096 : 
; 4097 : 				float
; 4098 : 					delay;
; 4099 : 
; 4100 : 				//
; 4101 : 				// (entity_comms_messages message, entity *en, entity_sub_types type, float delay)
; 4102 : 				//
; 4103 : 
; 4104 : 				en = unpack_entity_safe_ptr ();

  015fe	e8 00 00 00 00	 call	 ?unpack_entity_safe_ptr@@YGPAUENTITY@@XZ ; unpack_entity_safe_ptr
  01603	89 85 f8 fd ff
	ff		 mov	 DWORD PTR _en$116[ebp], eax

; 4105 : 
; 4106 : 				ASSERT (en);

  01609	83 bd f8 fd ff
	ff 00		 cmp	 DWORD PTR _en$116[ebp], 0
  01610	75 1a		 jne	 SHORT $LN119@process_re
  01612	a1 00 00 00 00	 mov	 eax, DWORD PTR ?__LINE__Var@?0??process_received_entity_comms_messages@@YGXXZ@4JA
  01617	05 c0 04 00 00	 add	 eax, 1216		; 000004c0H
  0161c	50		 push	 eax
  0161d	68 00 00 00 00	 push	 OFFSET ??_C@_0EO@OCMIKFBI@c?3?2users?2nhv90?2projects?2eech?2ap@
  01622	68 00 00 00 00	 push	 OFFSET ??_C@_02LFNMGJAP@en@
  01627	e8 00 00 00 00	 call	 ?process_assert@@YGXPBD0H@Z ; process_assert
$LN119@process_re:

; 4107 : 
; 4108 : 				type = unpack_int_value (en, INT_TYPE_ENTITY_SUB_TYPE);

  0162c	6a 34		 push	 52			; 00000034H
  0162e	8b 85 f8 fd ff
	ff		 mov	 eax, DWORD PTR _en$116[ebp]
  01634	50		 push	 eax
  01635	e8 00 00 00 00	 call	 ?unpack_int_value@@YGHPAUENTITY@@W4INT_TYPES@@@Z ; unpack_int_value
  0163a	89 85 f4 fd ff
	ff		 mov	 DWORD PTR _type$115[ebp], eax

; 4109 : 
; 4110 : 				delay = unpack_float_value (en, FLOAT_TYPE_VALID_EFFECT_LIFETIME);

  01640	68 92 00 00 00	 push	 146			; 00000092H
  01645	8b 85 f8 fd ff
	ff		 mov	 eax, DWORD PTR _en$116[ebp]
  0164b	50		 push	 eax
  0164c	e8 00 00 00 00	 call	 ?unpack_float_value@@YGMPAUENTITY@@W4FLOAT_TYPES@@@Z ; unpack_float_value
  01651	d9 9d f0 fd ff
	ff		 fstp	 DWORD PTR _delay$114[ebp]

; 4111 : 
; 4112 : 				pause_local_entity_sound_type (en, type, delay);

  01657	51		 push	 ecx
  01658	f3 0f 10 85 f0
	fd ff ff	 movss	 xmm0, DWORD PTR _delay$114[ebp]
  01660	f3 0f 11 04 24	 movss	 DWORD PTR [esp], xmm0
  01665	8b 85 f4 fd ff
	ff		 mov	 eax, DWORD PTR _type$115[ebp]
  0166b	50		 push	 eax
  0166c	8b 8d f8 fd ff
	ff		 mov	 ecx, DWORD PTR _en$116[ebp]
  01672	51		 push	 ecx
  01673	e8 00 00 00 00	 call	 ?pause_local_entity_sound_type@@YGHPAUENTITY@@HM@Z ; pause_local_entity_sound_type

; 4113 : 
; 4114 : 				#if DEBUG_MODULE_MESSAGE_TEXT
; 4115 : 
; 4116 : 				debug_log ("EN_COMMS: received pause sound type for %s (%d)", get_local_entity_type_name (en), get_local_entity_index (en));
; 4117 : 
; 4118 : 				#endif
; 4119 : 
; 4120 : 				break;

  01678	e9 fc 2d 00 00	 jmp	 $LN4@process_re
$LN120@process_re:

; 4121 : 			}
; 4122 : 			////////////////////////////////////////
; 4123 : 			case ENTITY_COMMS_PAUSE_WEAPON_SOUND_TYPE:
; 4124 : 			////////////////////////////////////////
; 4125 : 			{
; 4126 : 				entity
; 4127 : 					*en;
; 4128 : 
; 4129 : 				entity_sub_types
; 4130 : 					weapon_sub_type;
; 4131 : 
; 4132 : 				//
; 4133 : 				// (entity_comms_messages message, entity *en, entity_sub_types weapon_sub_type)
; 4134 : 				//
; 4135 : 
; 4136 : 				en = unpack_entity_safe_ptr ();

  0167d	e8 00 00 00 00	 call	 ?unpack_entity_safe_ptr@@YGPAUENTITY@@XZ ; unpack_entity_safe_ptr
  01682	89 85 ec fd ff
	ff		 mov	 DWORD PTR _en$113[ebp], eax

; 4137 : 
; 4138 : 				ASSERT (en);

  01688	83 bd ec fd ff
	ff 00		 cmp	 DWORD PTR _en$113[ebp], 0
  0168f	75 1a		 jne	 SHORT $LN121@process_re
  01691	a1 00 00 00 00	 mov	 eax, DWORD PTR ?__LINE__Var@?0??process_received_entity_comms_messages@@YGXXZ@4JA
  01696	05 e0 04 00 00	 add	 eax, 1248		; 000004e0H
  0169b	50		 push	 eax
  0169c	68 00 00 00 00	 push	 OFFSET ??_C@_0EO@OCMIKFBI@c?3?2users?2nhv90?2projects?2eech?2ap@
  016a1	68 00 00 00 00	 push	 OFFSET ??_C@_02LFNMGJAP@en@
  016a6	e8 00 00 00 00	 call	 ?process_assert@@YGXPBD0H@Z ; process_assert
$LN121@process_re:

; 4139 : 
; 4140 : 				weapon_sub_type = unpack_int_value (en, INT_TYPE_ENTITY_SUB_TYPE);

  016ab	6a 34		 push	 52			; 00000034H
  016ad	8b 85 ec fd ff
	ff		 mov	 eax, DWORD PTR _en$113[ebp]
  016b3	50		 push	 eax
  016b4	e8 00 00 00 00	 call	 ?unpack_int_value@@YGHPAUENTITY@@W4INT_TYPES@@@Z ; unpack_int_value
  016b9	89 85 e8 fd ff
	ff		 mov	 DWORD PTR _weapon_sub_type$112[ebp], eax

; 4141 : 
; 4142 : 				pause_local_continuous_weapon_sound_effect (en, weapon_sub_type);

  016bf	8b 85 e8 fd ff
	ff		 mov	 eax, DWORD PTR _weapon_sub_type$112[ebp]
  016c5	50		 push	 eax
  016c6	8b 8d ec fd ff
	ff		 mov	 ecx, DWORD PTR _en$113[ebp]
  016cc	51		 push	 ecx
  016cd	e8 00 00 00 00	 call	 ?pause_local_continuous_weapon_sound_effect@@YGXPAUENTITY@@H@Z ; pause_local_continuous_weapon_sound_effect

; 4143 : 
; 4144 : 				#if DEBUG_MODULE_MESSAGE_TEXT
; 4145 : 
; 4146 : 				debug_log ("EN_COMMS: received pause weapon sound type for %s (%d)", get_local_entity_type_name (en), get_local_entity_index (en));
; 4147 : 
; 4148 : 				#endif
; 4149 : 
; 4150 : 				break;

  016d2	e9 a2 2d 00 00	 jmp	 $LN4@process_re
$LN122@process_re:

; 4151 : 			}
; 4152 : 			////////////////////////////////////////
; 4153 : 			case ENTITY_COMMS_PILOT_COMMUNICATION:
; 4154 : 			////////////////////////////////////////
; 4155 : 			{
; 4156 : 				//
; 4157 : 				// (entity_comms_messages message, entity *sender, entity *target, int type, char *message)
; 4158 : 				//
; 4159 : 
; 4160 : 				entity
; 4161 : 					*sender,
; 4162 : 					*target;
; 4163 : 
; 4164 : 				message_text_types
; 4165 : 					type;
; 4166 : 
; 4167 : 				char
; 4168 : 					*string,
; 4169 : 					message [STRING_TYPE_MESSAGE_LENGTH];
; 4170 : 
; 4171 : 				sender = unpack_entity_safe_ptr ();

  016d7	e8 00 00 00 00	 call	 ?unpack_entity_safe_ptr@@YGPAUENTITY@@XZ ; unpack_entity_safe_ptr
  016dc	89 85 e4 fd ff
	ff		 mov	 DWORD PTR _sender$111[ebp], eax

; 4172 : 
; 4173 : 				target = unpack_entity_safe_ptr ();

  016e2	e8 00 00 00 00	 call	 ?unpack_entity_safe_ptr@@YGPAUENTITY@@XZ ; unpack_entity_safe_ptr
  016e7	89 85 e0 fd ff
	ff		 mov	 DWORD PTR _target$110[ebp], eax

; 4174 : 
; 4175 : 				type = (message_text_types) unpack_int_value (NULL, INT_TYPE_MESSAGE_TEXT_TYPE);

  016ed	68 87 00 00 00	 push	 135			; 00000087H
  016f2	6a 00		 push	 0
  016f4	e8 00 00 00 00	 call	 ?unpack_int_value@@YGHPAUENTITY@@W4INT_TYPES@@@Z ; unpack_int_value
  016f9	89 85 dc fd ff
	ff		 mov	 DWORD PTR _type$109[ebp], eax

; 4176 : 
; 4177 : 				if (message_text_type_send_string (type))

  016ff	8b 85 dc fd ff
	ff		 mov	 eax, DWORD PTR _type$109[ebp]
  01705	50		 push	 eax
  01706	e8 00 00 00 00	 call	 ?message_text_type_send_string@@YGHW4MESSAGE_TEXT_TYPES@@@Z ; message_text_type_send_string
  0170b	85 c0		 test	 eax, eax
  0170d	74 1e		 je	 SHORT $LN123@process_re

; 4178 : 				{
; 4179 : 					unpack_string (NULL, STRING_TYPE_PILOT_MESSAGE, message);

  0170f	8d 85 38 fd ff
	ff		 lea	 eax, DWORD PTR _message$107[ebp]
  01715	50		 push	 eax
  01716	6a 09		 push	 9
  01718	6a 00		 push	 0
  0171a	e8 00 00 00 00	 call	 ?unpack_string@@YGXPAUENTITY@@W4STRING_TYPES@@PAD@Z ; unpack_string

; 4180 : 
; 4181 : 					string = message;

  0171f	8d 85 38 fd ff
	ff		 lea	 eax, DWORD PTR _message$107[ebp]
  01725	89 85 d8 fd ff
	ff		 mov	 DWORD PTR _string$108[ebp], eax

; 4182 : 
; 4183 : 					#if DEBUG_MODULE_MESSAGE_TEXT
; 4184 : 
; 4185 : 					debug_log ("EN_COMMS: received communication message %s", message);
; 4186 : 
; 4187 : 					#endif
; 4188 : 				}
; 4189 : 				else

  0172b	eb 0a		 jmp	 SHORT $LN124@process_re
$LN123@process_re:

; 4190 : 				{
; 4191 : 					string = NULL;

  0172d	c7 85 d8 fd ff
	ff 00 00 00 00	 mov	 DWORD PTR _string$108[ebp], 0
$LN124@process_re:

; 4192 : 				}
; 4193 : 
; 4194 : 				//
; 4195 : 				// notify messaging system of received message
; 4196 : 				//
; 4197 : 
; 4198 : 				set_incoming_message (sender, target, type, string);

  01737	8b 85 d8 fd ff
	ff		 mov	 eax, DWORD PTR _string$108[ebp]
  0173d	50		 push	 eax
  0173e	8b 8d dc fd ff
	ff		 mov	 ecx, DWORD PTR _type$109[ebp]
  01744	51		 push	 ecx
  01745	8b 95 e0 fd ff
	ff		 mov	 edx, DWORD PTR _target$110[ebp]
  0174b	52		 push	 edx
  0174c	8b 85 e4 fd ff
	ff		 mov	 eax, DWORD PTR _sender$111[ebp]
  01752	50		 push	 eax
  01753	e8 00 00 00 00	 call	 ?set_incoming_message@@YGXPAUENTITY@@0W4MESSAGE_TEXT_TYPES@@PAD@Z ; set_incoming_message

; 4199 : 
; 4200 : 				//
; 4201 : 				// server needs to forward any messages on to clients (unless it was only meant for him)
; 4202 : 				//
; 4203 : 
; 4204 : 				if (get_comms_model () == COMMS_MODEL_SERVER)

  01758	83 3d 00 00 00
	00 00		 cmp	 DWORD PTR ?system_comms_model@@3W4COMMS_MODEL_TYPES@@A, 0 ; system_comms_model
  0175f	75 34		 jne	 SHORT $LN125@process_re

; 4205 : 				{
; 4206 : 					//
; 4207 : 					// very dodgy stuff indeed...
; 4208 : 					//
; 4209 : 
; 4210 : 					set_comms_data_flow (COMMS_DATA_FLOW_TX);

  01761	6a 00		 push	 0
  01763	e8 00 00 00 00	 call	 ?set_comms_data_flow@@YGXW4COMMS_DATA_FLOW_TYPES@@@Z ; set_comms_data_flow

; 4211 : 
; 4212 : 					transmit_entity_comms_message (ENTITY_COMMS_PILOT_COMMUNICATION, sender, target, type, string);

  01768	8b 85 d8 fd ff
	ff		 mov	 eax, DWORD PTR _string$108[ebp]
  0176e	50		 push	 eax
  0176f	8b 8d dc fd ff
	ff		 mov	 ecx, DWORD PTR _type$109[ebp]
  01775	51		 push	 ecx
  01776	8b 95 e0 fd ff
	ff		 mov	 edx, DWORD PTR _target$110[ebp]
  0177c	52		 push	 edx
  0177d	8b 85 e4 fd ff
	ff		 mov	 eax, DWORD PTR _sender$111[ebp]
  01783	50		 push	 eax
  01784	6a 1f		 push	 31			; 0000001fH
  01786	e8 00 00 00 00	 call	 ?transmit_entity_comms_message@@YAXW4ENTITY_COMMS_MESSAGES@@PAUENTITY@@ZZ ; transmit_entity_comms_message
  0178b	83 c4 14	 add	 esp, 20			; 00000014H

; 4213 : 
; 4214 : 					set_comms_data_flow (COMMS_DATA_FLOW_RX);

  0178e	6a 01		 push	 1
  01790	e8 00 00 00 00	 call	 ?set_comms_data_flow@@YGXW4COMMS_DATA_FLOW_TYPES@@@Z ; set_comms_data_flow
$LN125@process_re:

; 4215 : 				}
; 4216 : 
; 4217 : 				break;

  01795	e9 df 2c 00 00	 jmp	 $LN4@process_re
$LN126@process_re:

; 4218 : 			}
; 4219 : 			////////////////////////////////////////
; 4220 : 			case ENTITY_COMMS_PILOT_PFZ_TRANSFER:
; 4221 : 			////////////////////////////////////////
; 4222 : 			{
; 4223 : 				//
; 4224 : 				// (entity_comms_messages message, entity *sender, entity *target, int type, char *message)
; 4225 : 				//
; 4226 : 
; 4227 : 				entity
; 4228 : 					*sender,
; 4229 : 					*wingman;
; 4230 : 
; 4231 : 				entity
; 4232 : 					*targets[17];
; 4233 : 				
; 4234 : 				unsigned int i;
; 4235 : 
; 4236 : 				vec3d corner1, corner2, corner3, corner4;
; 4237 : 
; 4238 : 				sender = unpack_entity_safe_ptr ();

  0179a	e8 00 00 00 00	 call	 ?unpack_entity_safe_ptr@@YGPAUENTITY@@XZ ; unpack_entity_safe_ptr
  0179f	89 85 34 fd ff
	ff		 mov	 DWORD PTR _sender$106[ebp], eax

; 4239 : 				wingman = unpack_entity_safe_ptr ();

  017a5	e8 00 00 00 00	 call	 ?unpack_entity_safe_ptr@@YGPAUENTITY@@XZ ; unpack_entity_safe_ptr
  017aa	89 85 30 fd ff
	ff		 mov	 DWORD PTR _wingman$105[ebp], eax

; 4240 : 
; 4241 : 				corner1.x = unpack_float_value(NULL, FLOAT_TYPE_PFZ_X1);

  017b0	68 a7 00 00 00	 push	 167			; 000000a7H
  017b5	6a 00		 push	 0
  017b7	e8 00 00 00 00	 call	 ?unpack_float_value@@YGMPAUENTITY@@W4FLOAT_TYPES@@@Z ; unpack_float_value
  017bc	d9 9d dc fc ff
	ff		 fstp	 DWORD PTR _corner1$102[ebp]

; 4242 : 				corner1.z = unpack_float_value(NULL, FLOAT_TYPE_PFZ_Y1);

  017c2	68 a8 00 00 00	 push	 168			; 000000a8H
  017c7	6a 00		 push	 0
  017c9	e8 00 00 00 00	 call	 ?unpack_float_value@@YGMPAUENTITY@@W4FLOAT_TYPES@@@Z ; unpack_float_value
  017ce	d9 9d e4 fc ff
	ff		 fstp	 DWORD PTR _corner1$102[ebp+8]

; 4243 : 				corner2.x = unpack_float_value(NULL, FLOAT_TYPE_PFZ_X2);

  017d4	68 a9 00 00 00	 push	 169			; 000000a9H
  017d9	6a 00		 push	 0
  017db	e8 00 00 00 00	 call	 ?unpack_float_value@@YGMPAUENTITY@@W4FLOAT_TYPES@@@Z ; unpack_float_value
  017e0	d9 9d d0 fc ff
	ff		 fstp	 DWORD PTR _corner2$101[ebp]

; 4244 : 				corner2.z = unpack_float_value(NULL, FLOAT_TYPE_PFZ_Y2);

  017e6	68 aa 00 00 00	 push	 170			; 000000aaH
  017eb	6a 00		 push	 0
  017ed	e8 00 00 00 00	 call	 ?unpack_float_value@@YGMPAUENTITY@@W4FLOAT_TYPES@@@Z ; unpack_float_value
  017f2	d9 9d d8 fc ff
	ff		 fstp	 DWORD PTR _corner2$101[ebp+8]

; 4245 : 				corner3.x = unpack_float_value(NULL, FLOAT_TYPE_PFZ_X3);

  017f8	68 ab 00 00 00	 push	 171			; 000000abH
  017fd	6a 00		 push	 0
  017ff	e8 00 00 00 00	 call	 ?unpack_float_value@@YGMPAUENTITY@@W4FLOAT_TYPES@@@Z ; unpack_float_value
  01804	d9 9d c4 fc ff
	ff		 fstp	 DWORD PTR _corner3$100[ebp]

; 4246 : 				corner3.z = unpack_float_value(NULL, FLOAT_TYPE_PFZ_Y3);

  0180a	68 ac 00 00 00	 push	 172			; 000000acH
  0180f	6a 00		 push	 0
  01811	e8 00 00 00 00	 call	 ?unpack_float_value@@YGMPAUENTITY@@W4FLOAT_TYPES@@@Z ; unpack_float_value
  01816	d9 9d cc fc ff
	ff		 fstp	 DWORD PTR _corner3$100[ebp+8]

; 4247 : 				corner4.x = unpack_float_value(NULL, FLOAT_TYPE_PFZ_X4);

  0181c	68 ad 00 00 00	 push	 173			; 000000adH
  01821	6a 00		 push	 0
  01823	e8 00 00 00 00	 call	 ?unpack_float_value@@YGMPAUENTITY@@W4FLOAT_TYPES@@@Z ; unpack_float_value
  01828	d9 9d b8 fc ff
	ff		 fstp	 DWORD PTR _corner4$99[ebp]

; 4248 : 				corner4.z = unpack_float_value(NULL, FLOAT_TYPE_PFZ_Y4);

  0182e	68 ae 00 00 00	 push	 174			; 000000aeH
  01833	6a 00		 push	 0
  01835	e8 00 00 00 00	 call	 ?unpack_float_value@@YGMPAUENTITY@@W4FLOAT_TYPES@@@Z ; unpack_float_value
  0183a	d9 9d c0 fc ff
	ff		 fstp	 DWORD PTR _corner4$99[ebp+8]

; 4249 : 
; 4250 : 				for (i=0; i < 16; i++)

  01840	c7 85 e8 fc ff
	ff 00 00 00 00	 mov	 DWORD PTR _i$103[ebp], 0
  0184a	eb 0f		 jmp	 SHORT $LN28@process_re
$LN26@process_re:
  0184c	8b 85 e8 fc ff
	ff		 mov	 eax, DWORD PTR _i$103[ebp]
  01852	83 c0 01	 add	 eax, 1
  01855	89 85 e8 fc ff
	ff		 mov	 DWORD PTR _i$103[ebp], eax
$LN28@process_re:
  0185b	83 bd e8 fc ff
	ff 10		 cmp	 DWORD PTR _i$103[ebp], 16 ; 00000010H
  01862	0f 83 03 01 00
	00		 jae	 $LN27@process_re

; 4251 : 				{
; 4252 : 					targets[i] = unpack_entity_safe_ptr();

  01868	e8 00 00 00 00	 call	 ?unpack_entity_safe_ptr@@YGPAUENTITY@@XZ ; unpack_entity_safe_ptr
  0186d	8b 8d e8 fc ff
	ff		 mov	 ecx, DWORD PTR _i$103[ebp]
  01873	89 84 8d ec fc
	ff ff		 mov	 DWORD PTR _targets$104[ebp+ecx*4], eax

; 4253 : 					if (!targets[i])

  0187a	8b 85 e8 fc ff
	ff		 mov	 eax, DWORD PTR _i$103[ebp]
  01880	83 bc 85 ec fc
	ff ff 00	 cmp	 DWORD PTR _targets$104[ebp+eax*4], 0
  01888	75 05		 jne	 SHORT $LN127@process_re

; 4254 : 						break;

  0188a	e9 dc 00 00 00	 jmp	 $LN27@process_re
$LN127@process_re:

; 4255 : 
; 4256 : 					if (get_gunship_entity() == wingman)  // add targets to radar

  0188f	a1 00 00 00 00	 mov	 eax, DWORD PTR ?gunship_entity@@3PAUENTITY@@A ; gunship_entity
  01894	3b 85 30 fd ff
	ff		 cmp	 eax, DWORD PTR _wingman$105[ebp]
  0189a	0f 85 c6 00 00
	00		 jne	 $LN129@process_re

; 4257 : 						if (!get_local_entity_parent (targets[i], LIST_TYPE_GUNSHIP_TARGET))  // target we don't have already

  018a0	8b 85 e8 fc ff
	ff		 mov	 eax, DWORD PTR _i$103[ebp]
  018a6	83 bc 85 ec fc
	ff ff 00	 cmp	 DWORD PTR _targets$104[ebp+eax*4], 0
  018ae	74 17		 je	 SHORT $LN278@process_re
  018b0	8b 8d e8 fc ff
	ff		 mov	 ecx, DWORD PTR _i$103[ebp]
  018b6	8b 94 8d ec fc
	ff ff		 mov	 edx, DWORD PTR _targets$104[ebp+ecx*4]
  018bd	8b 02		 mov	 eax, DWORD PTR [edx]
  018bf	89 85 c0 f8 ff
	ff		 mov	 DWORD PTR tv1006[ebp], eax
  018c5	eb 20		 jmp	 SHORT $LN279@process_re
$LN278@process_re:
  018c7	68 a1 10 00 00	 push	 4257			; 000010a1H
  018cc	68 00 00 00 00	 push	 OFFSET ??_C@_0EO@OCMIKFBI@c?3?2users?2nhv90?2projects?2eech?2ap@
  018d1	8b 0d 00 00 00
	00		 mov	 ecx, DWORD PTR ?null_entity_pointer_message@@3PBDB ; null_entity_pointer_message
  018d7	51		 push	 ecx
  018d8	e8 00 00 00 00	 call	 ?process_assert@@YGXPBD0H@Z ; process_assert
  018dd	c7 85 c0 f8 ff
	ff 00 00 00 00	 mov	 DWORD PTR tv1006[ebp], 0
$LN279@process_re:
  018e7	ba 01 00 00 00	 mov	 edx, 1
  018ec	85 d2		 test	 edx, edx
  018ee	74 0c		 je	 SHORT $LN280@process_re
  018f0	c7 85 bc f8 ff
	ff 12 00 00 00	 mov	 DWORD PTR tv1013[ebp], 18 ; 00000012H
  018fa	eb 1f		 jmp	 SHORT $LN281@process_re
$LN280@process_re:
  018fc	68 a1 10 00 00	 push	 4257			; 000010a1H
  01901	68 00 00 00 00	 push	 OFFSET ??_C@_0EO@OCMIKFBI@c?3?2users?2nhv90?2projects?2eech?2ap@
  01906	a1 00 00 00 00	 mov	 eax, DWORD PTR ?overload_invalid_list_type_message@@3PBDB ; overload_invalid_list_type_message
  0190b	50		 push	 eax
  0190c	e8 00 00 00 00	 call	 ?process_assert@@YGXPBD0H@Z ; process_assert
  01911	c7 85 bc f8 ff
	ff 00 00 00 00	 mov	 DWORD PTR tv1013[ebp], 0
$LN281@process_re:
  0191b	6a 12		 push	 18			; 00000012H
  0191d	8b 8d e8 fc ff
	ff		 mov	 ecx, DWORD PTR _i$103[ebp]
  01923	8b 94 8d ec fc
	ff ff		 mov	 edx, DWORD PTR _targets$104[ebp+ecx*4]
  0192a	52		 push	 edx
  0192b	69 85 c0 f8 ff
	ff b4 00 00 00	 imul	 eax, DWORD PTR tv1006[ebp], 180
  01935	8b 8d bc f8 ff
	ff		 mov	 ecx, DWORD PTR tv1013[ebp]
  0193b	8b 94 88 00 00
	00 00		 mov	 edx, DWORD PTR ?fn_get_local_entity_parent@@3PAY0CN@P6GPAUENTITY@@PAU1@W4LIST_TYPES@@@ZA[eax+ecx*4]
  01942	ff d2		 call	 edx
  01944	85 c0		 test	 eax, eax
  01946	75 1e		 jne	 SHORT $LN129@process_re

; 4258 : 							insert_local_entity_into_parents_child_list (targets[i], LIST_TYPE_GUNSHIP_TARGET, wingman, NULL);	

  01948	6a 00		 push	 0
  0194a	8b 85 30 fd ff
	ff		 mov	 eax, DWORD PTR _wingman$105[ebp]
  01950	50		 push	 eax
  01951	6a 12		 push	 18			; 00000012H
  01953	8b 8d e8 fc ff
	ff		 mov	 ecx, DWORD PTR _i$103[ebp]
  01959	8b 94 8d ec fc
	ff ff		 mov	 edx, DWORD PTR _targets$104[ebp+ecx*4]
  01960	52		 push	 edx
  01961	e8 00 00 00 00	 call	 ?insert_local_entity_into_parents_child_list@@YGXPAUENTITY@@W4LIST_TYPES@@00@Z ; insert_local_entity_into_parents_child_list
$LN129@process_re:

; 4259 : 				}

  01966	e9 e1 fe ff ff	 jmp	 $LN26@process_re
$LN27@process_re:

; 4260 : 
; 4261 : 				// be sure to terminate
; 4262 : 				targets[i] = NULL;

  0196b	8b 85 e8 fc ff
	ff		 mov	 eax, DWORD PTR _i$103[ebp]
  01971	c7 84 85 ec fc
	ff ff 00 00 00
	00		 mov	 DWORD PTR _targets$104[ebp+eax*4], 0

; 4263 : 
; 4264 : 				//
; 4265 : 				// notify messaging system of received message
; 4266 : 				//
; 4267 : 
; 4268 : 				if (get_gunship_entity() == wingman)

  0197c	a1 00 00 00 00	 mov	 eax, DWORD PTR ?gunship_entity@@3PAUENTITY@@A ; gunship_entity
  01981	3b 85 30 fd ff
	ff		 cmp	 eax, DWORD PTR _wingman$105[ebp]
  01987	75 63		 jne	 SHORT $LN130@process_re

; 4269 : 				{	// someone has sent us a pfz, create it
; 4270 : 					int pfz_number;
; 4271 : 					char attack_message[100];
; 4272 : 
; 4273 : 					add_pfz(&corner1, &corner2, &corner3, &corner4);

  01989	8d 85 b8 fc ff
	ff		 lea	 eax, DWORD PTR _corner4$99[ebp]
  0198f	50		 push	 eax
  01990	8d 8d c4 fc ff
	ff		 lea	 ecx, DWORD PTR _corner3$100[ebp]
  01996	51		 push	 ecx
  01997	8d 95 d0 fc ff
	ff		 lea	 edx, DWORD PTR _corner2$101[ebp]
  0199d	52		 push	 edx
  0199e	8d 85 dc fc ff
	ff		 lea	 eax, DWORD PTR _corner1$102[ebp]
  019a4	50		 push	 eax
  019a5	e8 00 00 00 00	 call	 ?add_pfz@@YGXPAUVEC3D@@000@Z ; add_pfz

; 4274 : 					pfz_number = next_free_pfz;

  019aa	a1 00 00 00 00	 mov	 eax, DWORD PTR ?next_free_pfz@@3IA ; next_free_pfz
  019af	89 85 b4 fc ff
	ff		 mov	 DWORD PTR _pfz_number$98[ebp], eax

; 4275 : 
; 4276 : 					sprintf(attack_message, "Attack PFZ %d", pfz_number);

  019b5	8b 85 b4 fc ff
	ff		 mov	 eax, DWORD PTR _pfz_number$98[ebp]
  019bb	50		 push	 eax
  019bc	68 00 00 00 00	 push	 OFFSET ??_C@_0O@DEGLOFLI@Attack?5PFZ?5?$CFd@
  019c1	8d 8d 50 fc ff
	ff		 lea	 ecx, DWORD PTR _attack_message$97[ebp]
  019c7	51		 push	 ecx
  019c8	e8 00 00 00 00	 call	 _sprintf
  019cd	83 c4 0c	 add	 esp, 12			; 0000000cH

; 4277 : 
; 4278 : 					set_incoming_message(sender, get_pilot_entity(), MESSAGE_TEXT_LOCAL_MESSAGE, attack_message);

  019d0	8d 85 50 fc ff
	ff		 lea	 eax, DWORD PTR _attack_message$97[ebp]
  019d6	50		 push	 eax
  019d7	6a 0b		 push	 11			; 0000000bH
  019d9	8b 0d 00 00 00
	00		 mov	 ecx, DWORD PTR ?pilot_entity@@3PAUENTITY@@A ; pilot_entity
  019df	51		 push	 ecx
  019e0	8b 95 34 fd ff
	ff		 mov	 edx, DWORD PTR _sender$106[ebp]
  019e6	52		 push	 edx
  019e7	e8 00 00 00 00	 call	 ?set_incoming_message@@YGXPAUENTITY@@0W4MESSAGE_TEXT_TYPES@@PAD@Z ; set_incoming_message
$LN130@process_re:

; 4279 : 				}
; 4280 : 
; 4281 : 				//
; 4282 : 				// server needs to forward any messages on to clients (unless it was only meant for him)
; 4283 : 				//
; 4284 : 
; 4285 : 				if (get_comms_model () == COMMS_MODEL_SERVER)

  019ec	83 3d 00 00 00
	00 00		 cmp	 DWORD PTR ?system_comms_model@@3W4COMMS_MODEL_TYPES@@A, 0 ; system_comms_model
  019f3	0f 85 42 01 00
	00		 jne	 $LN132@process_re

; 4286 : 				{
; 4287 : 					//
; 4288 : 					// very dodgy stuff indeed...
; 4289 : 					//
; 4290 : 
; 4291 : 					set_comms_data_flow (COMMS_DATA_FLOW_TX);

  019f9	6a 00		 push	 0
  019fb	e8 00 00 00 00	 call	 ?set_comms_data_flow@@YGXW4COMMS_DATA_FLOW_TYPES@@@Z ; set_comms_data_flow

; 4292 : 
; 4293 : 					transmit_pfz(sender, wingman,

  01a00	8d 85 ec fc ff
	ff		 lea	 eax, DWORD PTR _targets$104[ebp]
  01a06	50		 push	 eax
  01a07	51		 push	 ecx
  01a08	f3 0f 10 85 c0
	fc ff ff	 movss	 xmm0, DWORD PTR _corner4$99[ebp+8]
  01a10	f3 0f 11 04 24	 movss	 DWORD PTR [esp], xmm0
  01a15	51		 push	 ecx
  01a16	f3 0f 10 85 b8
	fc ff ff	 movss	 xmm0, DWORD PTR _corner4$99[ebp]
  01a1e	f3 0f 11 04 24	 movss	 DWORD PTR [esp], xmm0
  01a23	51		 push	 ecx
  01a24	f3 0f 10 85 cc
	fc ff ff	 movss	 xmm0, DWORD PTR _corner3$100[ebp+8]
  01a2c	f3 0f 11 04 24	 movss	 DWORD PTR [esp], xmm0
  01a31	51		 push	 ecx
  01a32	f3 0f 10 85 c4
	fc ff ff	 movss	 xmm0, DWORD PTR _corner3$100[ebp]
  01a3a	f3 0f 11 04 24	 movss	 DWORD PTR [esp], xmm0
  01a3f	51		 push	 ecx
  01a40	f3 0f 10 85 d8
	fc ff ff	 movss	 xmm0, DWORD PTR _corner2$101[ebp+8]
  01a48	f3 0f 11 04 24	 movss	 DWORD PTR [esp], xmm0
  01a4d	51		 push	 ecx
  01a4e	f3 0f 10 85 d0
	fc ff ff	 movss	 xmm0, DWORD PTR _corner2$101[ebp]
  01a56	f3 0f 11 04 24	 movss	 DWORD PTR [esp], xmm0
  01a5b	51		 push	 ecx
  01a5c	f3 0f 10 85 e4
	fc ff ff	 movss	 xmm0, DWORD PTR _corner1$102[ebp+8]
  01a64	f3 0f 11 04 24	 movss	 DWORD PTR [esp], xmm0
  01a69	51		 push	 ecx
  01a6a	f3 0f 10 85 dc
	fc ff ff	 movss	 xmm0, DWORD PTR _corner1$102[ebp]
  01a72	f3 0f 11 04 24	 movss	 DWORD PTR [esp], xmm0
  01a77	8b 8d 30 fd ff
	ff		 mov	 ecx, DWORD PTR _wingman$105[ebp]
  01a7d	51		 push	 ecx
  01a7e	8b 95 34 fd ff
	ff		 mov	 edx, DWORD PTR _sender$106[ebp]
  01a84	52		 push	 edx
  01a85	e8 00 00 00 00	 call	 ?transmit_pfz@@YGXPAUENTITY@@0MMMMMMMMQAPAU1@@Z ; transmit_pfz

; 4294 : 						corner1.x, corner1.z,
; 4295 : 						corner2.x, corner2.z,
; 4296 : 						corner3.x, corner3.z,
; 4297 : 						corner4.x, corner4.z,
; 4298 : 						targets);
; 4299 : 
; 4300 : 					set_comms_data_flow (COMMS_DATA_FLOW_RX);

  01a8a	6a 01		 push	 1
  01a8c	e8 00 00 00 00	 call	 ?set_comms_data_flow@@YGXW4COMMS_DATA_FLOW_TYPES@@@Z ; set_comms_data_flow

; 4301 : 
; 4302 : 					// if message is for AI wingman create engage tasks
; 4303 : /*					if (get_local_entity_int_value (wingman, INT_TYPE_PLAYER) == ENTITY_PLAYER_AI)
; 4304 : 					{
; 4305 : 						entity
; 4306 : 							*target,
; 4307 : 							*group;
; 4308 : 
; 4309 : 						unsigned int valid_members = 0, member_number;
; 4310 : 
; 4311 : 						group = get_local_entity_parent(wingman, LIST_TYPE_MEMBER);
; 4312 : 
; 4313 : 						member_number = get_local_entity_int_value(wingman, INT_TYPE_GROUP_MEMBER_NUMBER);
; 4314 : 						valid_members = (1 << member_number);
; 4315 : 						
; 4316 : 			//			clear_local_entity_list(wingman, LIST_TYPE_DESIGNATED_TARGET);
; 4317 : 				
; 4318 : 						for (target = targets[0];
; 4319 : 							 target;
; 4320 : 							 target++)
; 4321 : 						{
; 4322 : 							debug_log("adding engage task for %p", target);
; 4323 : 			//					insert_local_ry_into_parents_child_list(target, LIST_TYPE_DESIGNATED_TARGET, wingman, NULL);
; 4324 : 							engage_specific_target(group, target, valid_members, FALSE);
; 4325 : 						}
; 4326 : 					}*/
; 4327 : 					if (get_local_entity_int_value (wingman, INT_TYPE_PLAYER) == ENTITY_PLAYER_AI)

  01a91	83 bd 30 fd ff
	ff 00		 cmp	 DWORD PTR _wingman$105[ebp], 0
  01a98	74 10		 je	 SHORT $LN282@process_re
  01a9a	8b 85 30 fd ff
	ff		 mov	 eax, DWORD PTR _wingman$105[ebp]
  01aa0	8b 08		 mov	 ecx, DWORD PTR [eax]
  01aa2	89 8d c0 f8 ff
	ff		 mov	 DWORD PTR tv1061[ebp], ecx
  01aa8	eb 20		 jmp	 SHORT $LN283@process_re
$LN282@process_re:
  01aaa	68 e7 10 00 00	 push	 4327			; 000010e7H
  01aaf	68 00 00 00 00	 push	 OFFSET ??_C@_0EO@OCMIKFBI@c?3?2users?2nhv90?2projects?2eech?2ap@
  01ab4	8b 15 00 00 00
	00		 mov	 edx, DWORD PTR ?null_entity_pointer_message@@3PBDB ; null_entity_pointer_message
  01aba	52		 push	 edx
  01abb	e8 00 00 00 00	 call	 ?process_assert@@YGXPBD0H@Z ; process_assert
  01ac0	c7 85 c0 f8 ff
	ff 00 00 00 00	 mov	 DWORD PTR tv1061[ebp], 0
$LN283@process_re:
  01aca	b8 01 00 00 00	 mov	 eax, 1
  01acf	85 c0		 test	 eax, eax
  01ad1	74 0c		 je	 SHORT $LN284@process_re
  01ad3	c7 85 bc f8 ff
	ff 9c 00 00 00	 mov	 DWORD PTR tv1068[ebp], 156 ; 0000009cH
  01add	eb 20		 jmp	 SHORT $LN285@process_re
$LN284@process_re:
  01adf	68 e7 10 00 00	 push	 4327			; 000010e7H
  01ae4	68 00 00 00 00	 push	 OFFSET ??_C@_0EO@OCMIKFBI@c?3?2users?2nhv90?2projects?2eech?2ap@
  01ae9	8b 0d 00 00 00
	00		 mov	 ecx, DWORD PTR ?overload_invalid_int_type_message@@3PBDB ; overload_invalid_int_type_message
  01aef	51		 push	 ecx
  01af0	e8 00 00 00 00	 call	 ?process_assert@@YGXPBD0H@Z ; process_assert
  01af5	c7 85 bc f8 ff
	ff 00 00 00 00	 mov	 DWORD PTR tv1068[ebp], 0
$LN285@process_re:
  01aff	68 9c 00 00 00	 push	 156			; 0000009cH
  01b04	8b 95 30 fd ff
	ff		 mov	 edx, DWORD PTR _wingman$105[ebp]
  01b0a	52		 push	 edx
  01b0b	69 85 c0 f8 ff
	ff 5c 04 00 00	 imul	 eax, DWORD PTR tv1061[ebp], 1116
  01b15	8b 8d bc f8 ff
	ff		 mov	 ecx, DWORD PTR tv1068[ebp]
  01b1b	8b 94 88 00 00
	00 00		 mov	 edx, DWORD PTR ?fn_get_local_entity_int_value@@3PAY0BBH@P6GHPAUENTITY@@W4INT_TYPES@@@ZA[eax+ecx*4]
  01b22	ff d2		 call	 edx
  01b24	85 c0		 test	 eax, eax
  01b26	75 13		 jne	 SHORT $LN132@process_re

; 4328 : 						engage_specific_targets(wingman, targets);

  01b28	8d 85 ec fc ff
	ff		 lea	 eax, DWORD PTR _targets$104[ebp]
  01b2e	50		 push	 eax
  01b2f	8b 8d 30 fd ff
	ff		 mov	 ecx, DWORD PTR _wingman$105[ebp]
  01b35	51		 push	 ecx
  01b36	e8 00 00 00 00	 call	 ?engage_specific_targets@@YGXPAUENTITY@@QAPAU1@@Z ; engage_specific_targets
$LN132@process_re:

; 4329 : 				}
; 4330 : 
; 4331 : 				break;

  01b3b	e9 39 29 00 00	 jmp	 $LN4@process_re
$LN133@process_re:

; 4332 : 			}
; 4333 : 			////////////////////////////////////////
; 4334 : 			case ENTITY_COMMS_PILOT_REQUEST_ACCEPTED:
; 4335 : 			////////////////////////////////////////
; 4336 : 			{
; 4337 : 
; 4338 : 				entity
; 4339 : 					*en;
; 4340 : 	
; 4341 : 				int
; 4342 : 					pilot_index,
; 4343 : 					destination_id;
; 4344 : 				//
; 4345 : 				// (entity_comms_messages message, int destination_id, int index)
; 4346 : 				//
; 4347 : 
; 4348 : 				en = unpack_entity_safe_ptr ();

  01b40	e8 00 00 00 00	 call	 ?unpack_entity_safe_ptr@@YGPAUENTITY@@XZ ; unpack_entity_safe_ptr
  01b45	89 85 4c fc ff
	ff		 mov	 DWORD PTR _en$96[ebp], eax

; 4349 : 	
; 4350 : 				destination_id = unpack_int_value (en, INT_TYPE_VALUE);

  01b4b	68 f2 00 00 00	 push	 242			; 000000f2H
  01b50	8b 85 4c fc ff
	ff		 mov	 eax, DWORD PTR _en$96[ebp]
  01b56	50		 push	 eax
  01b57	e8 00 00 00 00	 call	 ?unpack_int_value@@YGHPAUENTITY@@W4INT_TYPES@@@Z ; unpack_int_value
  01b5c	89 85 44 fc ff
	ff		 mov	 DWORD PTR _destination_id$94[ebp], eax

; 4351 : 	
; 4352 : 				pilot_index = unpack_int_value (en, INT_TYPE_VALUE);

  01b62	68 f2 00 00 00	 push	 242			; 000000f2H
  01b67	8b 85 4c fc ff
	ff		 mov	 eax, DWORD PTR _en$96[ebp]
  01b6d	50		 push	 eax
  01b6e	e8 00 00 00 00	 call	 ?unpack_int_value@@YGHPAUENTITY@@W4INT_TYPES@@@Z ; unpack_int_value
  01b73	89 85 48 fc ff
	ff		 mov	 DWORD PTR _pilot_index$95[ebp], eax

; 4353 : 
; 4354 : 				//#if DEBUG_MODULE_MESSAGE_TEXT
; 4355 : 		
; 4356 : 				debug_log ("EN_COMMS: received Pilot request accepted to %d for entity %d", destination_id, pilot_index);

  01b79	8b 85 48 fc ff
	ff		 mov	 eax, DWORD PTR _pilot_index$95[ebp]
  01b7f	50		 push	 eax
  01b80	8b 8d 44 fc ff
	ff		 mov	 ecx, DWORD PTR _destination_id$94[ebp]
  01b86	51		 push	 ecx
  01b87	68 00 00 00 00	 push	 OFFSET ??_C@_0DO@PIAHAFOJ@EN_COMMS?3?5received?5Pilot?5reques@
  01b8c	e8 00 00 00 00	 call	 ?debug_log@@YAXPBDZZ	; debug_log
  01b91	83 c4 0c	 add	 esp, 12			; 0000000cH

; 4357 : 		
; 4358 : 				//#endif
; 4359 : 
; 4360 : 				if (destination_id == direct_play_get_player_id ())

  01b94	e8 00 00 00 00	 call	 ?direct_play_get_player_id@@YGHXZ ; direct_play_get_player_id
  01b99	39 85 44 fc ff
	ff		 cmp	 DWORD PTR _destination_id$94[ebp], eax
  01b9f	75 36		 jne	 SHORT $LN134@process_re

; 4361 : 				{
; 4362 : 
; 4363 : 					set_pilot_entity (get_local_entity_safe_ptr (pilot_index));

  01ba1	83 bd 48 fc ff
	ff ff		 cmp	 DWORD PTR _pilot_index$95[ebp], -1
  01ba8	74 17		 je	 SHORT $LN286@process_re
  01baa	8b 85 48 fc ff
	ff		 mov	 eax, DWORD PTR _pilot_index$95[ebp]
  01bb0	c1 e0 04	 shl	 eax, 4
  01bb3	03 05 00 00 00
	00		 add	 eax, DWORD PTR ?entities@@3PAUENTITY@@A ; entities
  01bb9	89 85 c0 f8 ff
	ff		 mov	 DWORD PTR tv1092[ebp], eax
  01bbf	eb 0a		 jmp	 SHORT $LN287@process_re
$LN286@process_re:
  01bc1	c7 85 c0 f8 ff
	ff 00 00 00 00	 mov	 DWORD PTR tv1092[ebp], 0
$LN287@process_re:
  01bcb	8b 8d c0 f8 ff
	ff		 mov	 ecx, DWORD PTR tv1092[ebp]
  01bd1	51		 push	 ecx
  01bd2	e8 00 00 00 00	 call	 ?set_pilot_entity@@YGXPAUENTITY@@@Z ; set_pilot_entity
$LN134@process_re:

; 4364 : 				}
; 4365 : 	
; 4366 : 				break;

  01bd7	e9 9d 28 00 00	 jmp	 $LN4@process_re
$LN135@process_re:

; 4367 : 			}
; 4368 : 			////////////////////////////////////////
; 4369 : 			case ENTITY_COMMS_PLAY_CPG_CONTACT_MESSAGE:
; 4370 : 			////////////////////////////////////////
; 4371 : 			{
; 4372 : 				entity
; 4373 : 					*en;
; 4374 : 
; 4375 : 				int
; 4376 : 					speech_index1,
; 4377 : 					speech_index2,
; 4378 : 					speech_index3;
; 4379 : 
; 4380 : 				//
; 4381 : 				// (entity_comms_messages message, entity *en, int speech_index1, int speech_index2, int speech_index3)
; 4382 : 				//
; 4383 : 
; 4384 : 				en = unpack_entity_safe_ptr ();

  01bdc	e8 00 00 00 00	 call	 ?unpack_entity_safe_ptr@@YGPAUENTITY@@XZ ; unpack_entity_safe_ptr
  01be1	89 85 40 fc ff
	ff		 mov	 DWORD PTR _en$93[ebp], eax

; 4385 : 
; 4386 : 				ASSERT (en);

  01be7	83 bd 40 fc ff
	ff 00		 cmp	 DWORD PTR _en$93[ebp], 0
  01bee	75 1a		 jne	 SHORT $LN136@process_re
  01bf0	a1 00 00 00 00	 mov	 eax, DWORD PTR ?__LINE__Var@?0??process_received_entity_comms_messages@@YGXXZ@4JA
  01bf5	05 d8 05 00 00	 add	 eax, 1496		; 000005d8H
  01bfa	50		 push	 eax
  01bfb	68 00 00 00 00	 push	 OFFSET ??_C@_0EO@OCMIKFBI@c?3?2users?2nhv90?2projects?2eech?2ap@
  01c00	68 00 00 00 00	 push	 OFFSET ??_C@_02LFNMGJAP@en@
  01c05	e8 00 00 00 00	 call	 ?process_assert@@YGXPBD0H@Z ; process_assert
$LN136@process_re:

; 4387 : 
; 4388 : 				speech_index1 = unpack_int_value (en, INT_TYPE_SPEECH_INDEX);

  01c0a	68 c9 00 00 00	 push	 201			; 000000c9H
  01c0f	8b 85 40 fc ff
	ff		 mov	 eax, DWORD PTR _en$93[ebp]
  01c15	50		 push	 eax
  01c16	e8 00 00 00 00	 call	 ?unpack_int_value@@YGHPAUENTITY@@W4INT_TYPES@@@Z ; unpack_int_value
  01c1b	89 85 3c fc ff
	ff		 mov	 DWORD PTR _speech_index1$92[ebp], eax

; 4389 : 
; 4390 : 				speech_index2 = unpack_int_value (en, INT_TYPE_SPEECH_INDEX);

  01c21	68 c9 00 00 00	 push	 201			; 000000c9H
  01c26	8b 85 40 fc ff
	ff		 mov	 eax, DWORD PTR _en$93[ebp]
  01c2c	50		 push	 eax
  01c2d	e8 00 00 00 00	 call	 ?unpack_int_value@@YGHPAUENTITY@@W4INT_TYPES@@@Z ; unpack_int_value
  01c32	89 85 38 fc ff
	ff		 mov	 DWORD PTR _speech_index2$91[ebp], eax

; 4391 : 
; 4392 : 				speech_index3 = unpack_int_value (en, INT_TYPE_SPEECH_INDEX);

  01c38	68 c9 00 00 00	 push	 201			; 000000c9H
  01c3d	8b 85 40 fc ff
	ff		 mov	 eax, DWORD PTR _en$93[ebp]
  01c43	50		 push	 eax
  01c44	e8 00 00 00 00	 call	 ?unpack_int_value@@YGHPAUENTITY@@W4INT_TYPES@@@Z ; unpack_int_value
  01c49	89 85 34 fc ff
	ff		 mov	 DWORD PTR _speech_index3$90[ebp], eax

; 4393 : 
; 4394 : 				if (get_comms_model () == COMMS_MODEL_SERVER)

  01c4f	83 3d 00 00 00
	00 00		 cmp	 DWORD PTR ?system_comms_model@@3W4COMMS_MODEL_TYPES@@A, 0 ; system_comms_model
  01c56	75 21		 jne	 SHORT $LN137@process_re

; 4395 : 				{
; 4396 : 					play_client_server_cpg_contact_message (en, speech_index1, speech_index2, speech_index3);

  01c58	8b 85 34 fc ff
	ff		 mov	 eax, DWORD PTR _speech_index3$90[ebp]
  01c5e	50		 push	 eax
  01c5f	8b 8d 38 fc ff
	ff		 mov	 ecx, DWORD PTR _speech_index2$91[ebp]
  01c65	51		 push	 ecx
  01c66	8b 95 3c fc ff
	ff		 mov	 edx, DWORD PTR _speech_index1$92[ebp]
  01c6c	52		 push	 edx
  01c6d	8b 85 40 fc ff
	ff		 mov	 eax, DWORD PTR _en$93[ebp]
  01c73	50		 push	 eax
  01c74	e8 00 00 00 00	 call	 ?play_client_server_cpg_contact_message@@YGHPAUENTITY@@HHH@Z ; play_client_server_cpg_contact_message
$LN137@process_re:

; 4397 : 				}
; 4398 : 
; 4399 : 				break;

  01c79	e9 fb 27 00 00	 jmp	 $LN4@process_re
$LN138@process_re:

; 4400 : 			}
; 4401 : 			////////////////////////////////////////
; 4402 : 			case ENTITY_COMMS_PLAY_CPG_MESSAGE:
; 4403 : 			////////////////////////////////////////
; 4404 : 			{
; 4405 : 				entity
; 4406 : 					*en;
; 4407 : 
; 4408 : 				int
; 4409 : 					speech_index,
; 4410 : 					speech_category;
; 4411 : 
; 4412 : 				float
; 4413 : 					priority,
; 4414 : 					expire_time,
; 4415 : 					category_silence_timer;
; 4416 : 
; 4417 : 				en = unpack_entity_safe_ptr ();

  01c7e	e8 00 00 00 00	 call	 ?unpack_entity_safe_ptr@@YGPAUENTITY@@XZ ; unpack_entity_safe_ptr
  01c83	89 85 30 fc ff
	ff		 mov	 DWORD PTR _en$89[ebp], eax

; 4418 : 
; 4419 : 				ASSERT (en);

  01c89	83 bd 30 fc ff
	ff 00		 cmp	 DWORD PTR _en$89[ebp], 0
  01c90	75 1a		 jne	 SHORT $LN139@process_re
  01c92	a1 00 00 00 00	 mov	 eax, DWORD PTR ?__LINE__Var@?0??process_received_entity_comms_messages@@YGXXZ@4JA
  01c97	05 f9 05 00 00	 add	 eax, 1529		; 000005f9H
  01c9c	50		 push	 eax
  01c9d	68 00 00 00 00	 push	 OFFSET ??_C@_0EO@OCMIKFBI@c?3?2users?2nhv90?2projects?2eech?2ap@
  01ca2	68 00 00 00 00	 push	 OFFSET ??_C@_02LFNMGJAP@en@
  01ca7	e8 00 00 00 00	 call	 ?process_assert@@YGXPBD0H@Z ; process_assert
$LN139@process_re:

; 4420 : 
; 4421 : 				priority = unpack_float_value (en, FLOAT_TYPE_SPEECH_PRIORITY);

  01cac	6a 7a		 push	 122			; 0000007aH
  01cae	8b 85 30 fc ff
	ff		 mov	 eax, DWORD PTR _en$89[ebp]
  01cb4	50		 push	 eax
  01cb5	e8 00 00 00 00	 call	 ?unpack_float_value@@YGMPAUENTITY@@W4FLOAT_TYPES@@@Z ; unpack_float_value
  01cba	d9 9d 24 fc ff
	ff		 fstp	 DWORD PTR _priority$86[ebp]

; 4422 : 
; 4423 : 				expire_time = unpack_float_value (en, FLOAT_TYPE_SPEECH_EXPIRE_TIME);

  01cc0	6a 79		 push	 121			; 00000079H
  01cc2	8b 85 30 fc ff
	ff		 mov	 eax, DWORD PTR _en$89[ebp]
  01cc8	50		 push	 eax
  01cc9	e8 00 00 00 00	 call	 ?unpack_float_value@@YGMPAUENTITY@@W4FLOAT_TYPES@@@Z ; unpack_float_value
  01cce	d9 9d 20 fc ff
	ff		 fstp	 DWORD PTR _expire_time$85[ebp]

; 4424 : 
; 4425 : 				speech_category = unpack_int_value (en, INT_TYPE_SPEECH_CATEGORY);

  01cd4	68 c8 00 00 00	 push	 200			; 000000c8H
  01cd9	8b 85 30 fc ff
	ff		 mov	 eax, DWORD PTR _en$89[ebp]
  01cdf	50		 push	 eax
  01ce0	e8 00 00 00 00	 call	 ?unpack_int_value@@YGHPAUENTITY@@W4INT_TYPES@@@Z ; unpack_int_value
  01ce5	89 85 28 fc ff
	ff		 mov	 DWORD PTR _speech_category$87[ebp], eax

; 4426 : 
; 4427 : 				category_silence_timer = unpack_float_value (en, FLOAT_TYPE_SPEECH_CATEGORY_SILENCE_TIMER);

  01ceb	6a 78		 push	 120			; 00000078H
  01ced	8b 85 30 fc ff
	ff		 mov	 eax, DWORD PTR _en$89[ebp]
  01cf3	50		 push	 eax
  01cf4	e8 00 00 00 00	 call	 ?unpack_float_value@@YGMPAUENTITY@@W4FLOAT_TYPES@@@Z ; unpack_float_value
  01cf9	d9 9d 1c fc ff
	ff		 fstp	 DWORD PTR _category_silence_timer$84[ebp]

; 4428 : 
; 4429 : 				speech_index = unpack_int_value (en, INT_TYPE_SPEECH_INDEX);

  01cff	68 c9 00 00 00	 push	 201			; 000000c9H
  01d04	8b 85 30 fc ff
	ff		 mov	 eax, DWORD PTR _en$89[ebp]
  01d0a	50		 push	 eax
  01d0b	e8 00 00 00 00	 call	 ?unpack_int_value@@YGHPAUENTITY@@W4INT_TYPES@@@Z ; unpack_int_value
  01d10	89 85 2c fc ff
	ff		 mov	 DWORD PTR _speech_index$88[ebp], eax

; 4430 : 
; 4431 : 				#if DEBUG_MODULE_MESSAGE_TEXT
; 4432 : 
; 4433 : 				debug_log ("EN_COMMS: received play cpg message for %s (%d)", get_local_entity_type_name (en), get_local_entity_index (en));
; 4434 : 
; 4435 : 				#endif
; 4436 : 
; 4437 : 				if (get_comms_model () == COMMS_MODEL_SERVER)

  01d16	83 3d 00 00 00
	00 00		 cmp	 DWORD PTR ?system_comms_model@@3W4COMMS_MODEL_TYPES@@A, 0 ; system_comms_model
  01d1d	75 44		 jne	 SHORT $LN140@process_re

; 4438 : 				{
; 4439 : 					play_client_server_cpg_message (en, priority, expire_time, speech_category, category_silence_timer, speech_index);

  01d1f	8b 85 2c fc ff
	ff		 mov	 eax, DWORD PTR _speech_index$88[ebp]
  01d25	50		 push	 eax
  01d26	51		 push	 ecx
  01d27	f3 0f 10 85 1c
	fc ff ff	 movss	 xmm0, DWORD PTR _category_silence_timer$84[ebp]
  01d2f	f3 0f 11 04 24	 movss	 DWORD PTR [esp], xmm0
  01d34	8b 8d 28 fc ff
	ff		 mov	 ecx, DWORD PTR _speech_category$87[ebp]
  01d3a	51		 push	 ecx
  01d3b	51		 push	 ecx
  01d3c	f3 0f 10 85 20
	fc ff ff	 movss	 xmm0, DWORD PTR _expire_time$85[ebp]
  01d44	f3 0f 11 04 24	 movss	 DWORD PTR [esp], xmm0
  01d49	51		 push	 ecx
  01d4a	f3 0f 10 85 24
	fc ff ff	 movss	 xmm0, DWORD PTR _priority$86[ebp]
  01d52	f3 0f 11 04 24	 movss	 DWORD PTR [esp], xmm0
  01d57	8b 95 30 fc ff
	ff		 mov	 edx, DWORD PTR _en$89[ebp]
  01d5d	52		 push	 edx
  01d5e	e8 00 00 00 00	 call	 ?play_client_server_cpg_message@@YGHPAUENTITY@@MMHMH@Z ; play_client_server_cpg_message
$LN140@process_re:

; 4440 : 				}
; 4441 : 
; 4442 : 				break;

  01d63	e9 11 27 00 00	 jmp	 $LN4@process_re
$LN141@process_re:

; 4443 : 			}
; 4444 : 			////////////////////////////////////////
; 4445 : 			case ENTITY_COMMS_PLAY_WARNING_MESSAGE:
; 4446 : 			////////////////////////////////////////
; 4447 : 			{
; 4448 : 				entity
; 4449 : 					*en;
; 4450 : 
; 4451 : 				int
; 4452 : 					speech_index;
; 4453 : 
; 4454 : 				en = unpack_entity_safe_ptr ();

  01d68	e8 00 00 00 00	 call	 ?unpack_entity_safe_ptr@@YGPAUENTITY@@XZ ; unpack_entity_safe_ptr
  01d6d	89 85 18 fc ff
	ff		 mov	 DWORD PTR _en$83[ebp], eax

; 4455 : 
; 4456 : 				ASSERT (en);

  01d73	83 bd 18 fc ff
	ff 00		 cmp	 DWORD PTR _en$83[ebp], 0
  01d7a	75 1a		 jne	 SHORT $LN142@process_re
  01d7c	a1 00 00 00 00	 mov	 eax, DWORD PTR ?__LINE__Var@?0??process_received_entity_comms_messages@@YGXXZ@4JA
  01d81	05 1e 06 00 00	 add	 eax, 1566		; 0000061eH
  01d86	50		 push	 eax
  01d87	68 00 00 00 00	 push	 OFFSET ??_C@_0EO@OCMIKFBI@c?3?2users?2nhv90?2projects?2eech?2ap@
  01d8c	68 00 00 00 00	 push	 OFFSET ??_C@_02LFNMGJAP@en@
  01d91	e8 00 00 00 00	 call	 ?process_assert@@YGXPBD0H@Z ; process_assert
$LN142@process_re:

; 4457 : 
; 4458 : 				speech_index = unpack_int_value (en, INT_TYPE_SPEECH_INDEX);

  01d96	68 c9 00 00 00	 push	 201			; 000000c9H
  01d9b	8b 85 18 fc ff
	ff		 mov	 eax, DWORD PTR _en$83[ebp]
  01da1	50		 push	 eax
  01da2	e8 00 00 00 00	 call	 ?unpack_int_value@@YGHPAUENTITY@@W4INT_TYPES@@@Z ; unpack_int_value
  01da7	89 85 14 fc ff
	ff		 mov	 DWORD PTR _speech_index$82[ebp], eax

; 4459 : 
; 4460 : 				#if DEBUG_MODULE_MESSAGE_TEXT
; 4461 : 
; 4462 : 				debug_log ("EN_COMMS: received play warning message for %s (%d)", get_local_entity_type_name (en), get_local_entity_index (en));
; 4463 : 
; 4464 : 				#endif
; 4465 : 
; 4466 : 				if (get_comms_model () == COMMS_MODEL_SERVER)

  01dad	83 3d 00 00 00
	00 00		 cmp	 DWORD PTR ?system_comms_model@@3W4COMMS_MODEL_TYPES@@A, 0 ; system_comms_model
  01db4	75 13		 jne	 SHORT $LN143@process_re

; 4467 : 				{
; 4468 : 					play_client_server_warning_message (en, speech_index);

  01db6	8b 85 14 fc ff
	ff		 mov	 eax, DWORD PTR _speech_index$82[ebp]
  01dbc	50		 push	 eax
  01dbd	8b 8d 18 fc ff
	ff		 mov	 ecx, DWORD PTR _en$83[ebp]
  01dc3	51		 push	 ecx
  01dc4	e8 00 00 00 00	 call	 ?play_client_server_warning_message@@YGHPAUENTITY@@H@Z ; play_client_server_warning_message
$LN143@process_re:

; 4469 : 				}
; 4470 : 
; 4471 : 				break;

  01dc9	e9 ab 26 00 00	 jmp	 $LN4@process_re
$LN144@process_re:

; 4472 : 			}
; 4473 : 			////////////////////////////////////////
; 4474 : 			case ENTITY_COMMS_PLAYER_KILL:
; 4475 : 			////////////////////////////////////////
; 4476 : 			{
; 4477 : 				entity
; 4478 : 					*aggressor,
; 4479 : 					*victim;
; 4480 : 
; 4481 : 				aggressor = unpack_entity_safe_ptr ();

  01dce	e8 00 00 00 00	 call	 ?unpack_entity_safe_ptr@@YGPAUENTITY@@XZ ; unpack_entity_safe_ptr
  01dd3	89 85 10 fc ff
	ff		 mov	 DWORD PTR _aggressor$81[ebp], eax

; 4482 : 
; 4483 : 				victim = unpack_entity_safe_ptr ();

  01dd9	e8 00 00 00 00	 call	 ?unpack_entity_safe_ptr@@YGPAUENTITY@@XZ ; unpack_entity_safe_ptr
  01dde	89 85 0c fc ff
	ff		 mov	 DWORD PTR _victim$80[ebp], eax

; 4484 : 
; 4485 : 				#if DEBUG_MODULE_MESSAGE_TEXT
; 4486 : 
; 4487 : 				debug_log ("EN_COMMS: received player kill for %s (%d)", get_local_entity_type_name (victim), get_local_entity_index (victim));
; 4488 : 
; 4489 : 				#endif
; 4490 : 
; 4491 : 				if ((get_local_entity_int_value (victim, INT_TYPE_PLAYER) == ENTITY_PLAYER_LOCAL) ||

  01de4	83 bd 0c fc ff
	ff 00		 cmp	 DWORD PTR _victim$80[ebp], 0
  01deb	74 10		 je	 SHORT $LN288@process_re
  01ded	8b 85 0c fc ff
	ff		 mov	 eax, DWORD PTR _victim$80[ebp]
  01df3	8b 08		 mov	 ecx, DWORD PTR [eax]
  01df5	89 8d c0 f8 ff
	ff		 mov	 DWORD PTR tv1161[ebp], ecx
  01dfb	eb 20		 jmp	 SHORT $LN289@process_re
$LN288@process_re:
  01dfd	68 8b 11 00 00	 push	 4491			; 0000118bH
  01e02	68 00 00 00 00	 push	 OFFSET ??_C@_0EO@OCMIKFBI@c?3?2users?2nhv90?2projects?2eech?2ap@
  01e07	8b 15 00 00 00
	00		 mov	 edx, DWORD PTR ?null_entity_pointer_message@@3PBDB ; null_entity_pointer_message
  01e0d	52		 push	 edx
  01e0e	e8 00 00 00 00	 call	 ?process_assert@@YGXPBD0H@Z ; process_assert
  01e13	c7 85 c0 f8 ff
	ff 00 00 00 00	 mov	 DWORD PTR tv1161[ebp], 0
$LN289@process_re:
  01e1d	b8 01 00 00 00	 mov	 eax, 1
  01e22	85 c0		 test	 eax, eax
  01e24	74 0c		 je	 SHORT $LN290@process_re
  01e26	c7 85 bc f8 ff
	ff 9c 00 00 00	 mov	 DWORD PTR tv1168[ebp], 156 ; 0000009cH
  01e30	eb 20		 jmp	 SHORT $LN291@process_re
$LN290@process_re:
  01e32	68 8b 11 00 00	 push	 4491			; 0000118bH
  01e37	68 00 00 00 00	 push	 OFFSET ??_C@_0EO@OCMIKFBI@c?3?2users?2nhv90?2projects?2eech?2ap@
  01e3c	8b 0d 00 00 00
	00		 mov	 ecx, DWORD PTR ?overload_invalid_int_type_message@@3PBDB ; overload_invalid_int_type_message
  01e42	51		 push	 ecx
  01e43	e8 00 00 00 00	 call	 ?process_assert@@YGXPBD0H@Z ; process_assert
  01e48	c7 85 bc f8 ff
	ff 00 00 00 00	 mov	 DWORD PTR tv1168[ebp], 0
$LN291@process_re:
  01e52	68 9c 00 00 00	 push	 156			; 0000009cH
  01e57	8b 95 0c fc ff
	ff		 mov	 edx, DWORD PTR _victim$80[ebp]
  01e5d	52		 push	 edx
  01e5e	69 85 c0 f8 ff
	ff 5c 04 00 00	 imul	 eax, DWORD PTR tv1161[ebp], 1116
  01e68	8b 8d bc f8 ff
	ff		 mov	 ecx, DWORD PTR tv1168[ebp]
  01e6e	8b 94 88 00 00
	00 00		 mov	 edx, DWORD PTR ?fn_get_local_entity_int_value@@3PAY0BBH@P6GHPAUENTITY@@W4INT_TYPES@@@ZA[eax+ecx*4]
  01e75	ff d2		 call	 edx
  01e77	83 f8 01	 cmp	 eax, 1
  01e7a	0f 84 a5 00 00
	00		 je	 $LN146@process_re
  01e80	83 bd 10 fc ff
	ff 00		 cmp	 DWORD PTR _aggressor$81[ebp], 0
  01e87	0f 84 b1 00 00
	00		 je	 $LN145@process_re
  01e8d	83 bd 10 fc ff
	ff 00		 cmp	 DWORD PTR _aggressor$81[ebp], 0
  01e94	74 10		 je	 SHORT $LN292@process_re
  01e96	8b 85 10 fc ff
	ff		 mov	 eax, DWORD PTR _aggressor$81[ebp]
  01e9c	8b 08		 mov	 ecx, DWORD PTR [eax]
  01e9e	89 8d c0 f8 ff
	ff		 mov	 DWORD PTR tv1181[ebp], ecx
  01ea4	eb 20		 jmp	 SHORT $LN293@process_re
$LN292@process_re:
  01ea6	68 8c 11 00 00	 push	 4492			; 0000118cH
  01eab	68 00 00 00 00	 push	 OFFSET ??_C@_0EO@OCMIKFBI@c?3?2users?2nhv90?2projects?2eech?2ap@
  01eb0	8b 15 00 00 00
	00		 mov	 edx, DWORD PTR ?null_entity_pointer_message@@3PBDB ; null_entity_pointer_message
  01eb6	52		 push	 edx
  01eb7	e8 00 00 00 00	 call	 ?process_assert@@YGXPBD0H@Z ; process_assert
  01ebc	c7 85 c0 f8 ff
	ff 00 00 00 00	 mov	 DWORD PTR tv1181[ebp], 0
$LN293@process_re:
  01ec6	b8 01 00 00 00	 mov	 eax, 1
  01ecb	85 c0		 test	 eax, eax
  01ecd	74 0c		 je	 SHORT $LN294@process_re
  01ecf	c7 85 bc f8 ff
	ff 9c 00 00 00	 mov	 DWORD PTR tv1188[ebp], 156 ; 0000009cH
  01ed9	eb 20		 jmp	 SHORT $LN295@process_re
$LN294@process_re:
  01edb	68 8c 11 00 00	 push	 4492			; 0000118cH
  01ee0	68 00 00 00 00	 push	 OFFSET ??_C@_0EO@OCMIKFBI@c?3?2users?2nhv90?2projects?2eech?2ap@
  01ee5	8b 0d 00 00 00
	00		 mov	 ecx, DWORD PTR ?overload_invalid_int_type_message@@3PBDB ; overload_invalid_int_type_message
  01eeb	51		 push	 ecx
  01eec	e8 00 00 00 00	 call	 ?process_assert@@YGXPBD0H@Z ; process_assert
  01ef1	c7 85 bc f8 ff
	ff 00 00 00 00	 mov	 DWORD PTR tv1188[ebp], 0
$LN295@process_re:
  01efb	68 9c 00 00 00	 push	 156			; 0000009cH
  01f00	8b 95 10 fc ff
	ff		 mov	 edx, DWORD PTR _aggressor$81[ebp]
  01f06	52		 push	 edx
  01f07	69 85 c0 f8 ff
	ff 5c 04 00 00	 imul	 eax, DWORD PTR tv1181[ebp], 1116
  01f11	8b 8d bc f8 ff
	ff		 mov	 ecx, DWORD PTR tv1188[ebp]
  01f17	8b 94 88 00 00
	00 00		 mov	 edx, DWORD PTR ?fn_get_local_entity_int_value@@3PAY0BBH@P6GHPAUENTITY@@W4INT_TYPES@@@ZA[eax+ecx*4]
  01f1e	ff d2		 call	 edx
  01f20	83 f8 01	 cmp	 eax, 1
  01f23	75 19		 jne	 SHORT $LN145@process_re
$LN146@process_re:

; 4492 : 					((aggressor) && (get_local_entity_int_value (aggressor, INT_TYPE_PLAYER) == ENTITY_PLAYER_LOCAL)))
; 4493 : 				{
; 4494 : 					inc_player_log_kills (get_global_gunship_side (), get_current_player_log (), victim);

  01f25	8b 85 0c fc ff
	ff		 mov	 eax, DWORD PTR _victim$80[ebp]
  01f2b	50		 push	 eax
  01f2c	e8 00 00 00 00	 call	 ?get_current_player_log@@YGPAUPLAYER_LOG_TYPE@@XZ ; get_current_player_log
  01f31	50		 push	 eax
  01f32	8b 0d 08 00 00
	00		 mov	 ecx, DWORD PTR ?global_options@@3UGLOBAL_OPTIONS_DATA@@A+8
  01f38	51		 push	 ecx
  01f39	e8 00 00 00 00	 call	 ?inc_player_log_kills@@YGXHPAUPLAYER_LOG_TYPE@@PAUENTITY@@@Z ; inc_player_log_kills
$LN145@process_re:

; 4495 : 				}
; 4496 : /*
; 4497 : 				if (victim == get_gunship_entity ())
; 4498 : 				{
; 4499 : 					start_game_exit (GAME_EXIT_CRASH, FALSE);
; 4500 : 				}
; 4501 : */
; 4502 : 				break;

  01f3e	e9 36 25 00 00	 jmp	 $LN4@process_re
$LN147@process_re:

; 4503 : 			}
; 4504 : 			////////////////////////////////////////
; 4505 : 			case ENTITY_COMMS_PLAYER_TASK_COMPLETED:
; 4506 : 			////////////////////////////////////////
; 4507 : 			{
; 4508 : 				entity
; 4509 : 					*task,
; 4510 : 					*en;
; 4511 : 
; 4512 : 				en = unpack_entity_safe_ptr ();

  01f43	e8 00 00 00 00	 call	 ?unpack_entity_safe_ptr@@YGPAUENTITY@@XZ ; unpack_entity_safe_ptr
  01f48	89 85 04 fc ff
	ff		 mov	 DWORD PTR _en$78[ebp], eax

; 4513 : 
; 4514 : 				task = unpack_entity_safe_ptr ();

  01f4e	e8 00 00 00 00	 call	 ?unpack_entity_safe_ptr@@YGPAUENTITY@@XZ ; unpack_entity_safe_ptr
  01f53	89 85 08 fc ff
	ff		 mov	 DWORD PTR _task$79[ebp], eax

; 4515 : 
; 4516 : 				ASSERT (en);

  01f59	83 bd 04 fc ff
	ff 00		 cmp	 DWORD PTR _en$78[ebp], 0
  01f60	75 1a		 jne	 SHORT $LN148@process_re
  01f62	a1 00 00 00 00	 mov	 eax, DWORD PTR ?__LINE__Var@?0??process_received_entity_comms_messages@@YGXXZ@4JA
  01f67	05 5a 06 00 00	 add	 eax, 1626		; 0000065aH
  01f6c	50		 push	 eax
  01f6d	68 00 00 00 00	 push	 OFFSET ??_C@_0EO@OCMIKFBI@c?3?2users?2nhv90?2projects?2eech?2ap@
  01f72	68 00 00 00 00	 push	 OFFSET ??_C@_02LFNMGJAP@en@
  01f77	e8 00 00 00 00	 call	 ?process_assert@@YGXPBD0H@Z ; process_assert
$LN148@process_re:

; 4517 : 
; 4518 : 				ASSERT (task);

  01f7c	83 bd 08 fc ff
	ff 00		 cmp	 DWORD PTR _task$79[ebp], 0
  01f83	75 1a		 jne	 SHORT $LN149@process_re
  01f85	a1 00 00 00 00	 mov	 eax, DWORD PTR ?__LINE__Var@?0??process_received_entity_comms_messages@@YGXXZ@4JA
  01f8a	05 5c 06 00 00	 add	 eax, 1628		; 0000065cH
  01f8f	50		 push	 eax
  01f90	68 00 00 00 00	 push	 OFFSET ??_C@_0EO@OCMIKFBI@c?3?2users?2nhv90?2projects?2eech?2ap@
  01f95	68 00 00 00 00	 push	 OFFSET ??_C@_04GGKLLKOO@task@
  01f9a	e8 00 00 00 00	 call	 ?process_assert@@YGXPBD0H@Z ; process_assert
$LN149@process_re:

; 4519 : 
; 4520 : //				#if DEBUG_MODULE_MESSAGE_TEXT
; 4521 : 
; 4522 : 				debug_log ("EN_COMMS: received player task %s (%d) completed for %s (%d)",

  01f9f	83 bd 04 fc ff
	ff 00		 cmp	 DWORD PTR _en$78[ebp], 0
  01fa6	74 17		 je	 SHORT $LN296@process_re
  01fa8	8b 85 04 fc ff
	ff		 mov	 eax, DWORD PTR _en$78[ebp]
  01fae	2b 05 00 00 00
	00		 sub	 eax, DWORD PTR ?entities@@3PAUENTITY@@A ; entities
  01fb4	c1 f8 04	 sar	 eax, 4
  01fb7	89 85 c0 f8 ff
	ff		 mov	 DWORD PTR tv1214[ebp], eax
  01fbd	eb 0a		 jmp	 SHORT $LN297@process_re
$LN296@process_re:
  01fbf	c7 85 c0 f8 ff
	ff ff ff ff ff	 mov	 DWORD PTR tv1214[ebp], -1
$LN297@process_re:
  01fc9	83 bd 04 fc ff
	ff 00		 cmp	 DWORD PTR _en$78[ebp], 0
  01fd0	74 10		 je	 SHORT $LN298@process_re
  01fd2	8b 8d 04 fc ff
	ff		 mov	 ecx, DWORD PTR _en$78[ebp]
  01fd8	8b 11		 mov	 edx, DWORD PTR [ecx]
  01fda	89 95 bc f8 ff
	ff		 mov	 DWORD PTR tv1222[ebp], edx
  01fe0	eb 26		 jmp	 SHORT $LN299@process_re
$LN298@process_re:
  01fe2	a1 00 00 00 00	 mov	 eax, DWORD PTR ?__LINE__Var@?0??process_received_entity_comms_messages@@YGXXZ@4JA
  01fe7	05 63 06 00 00	 add	 eax, 1635		; 00000663H
  01fec	50		 push	 eax
  01fed	68 00 00 00 00	 push	 OFFSET ??_C@_0EO@OCMIKFBI@c?3?2users?2nhv90?2projects?2eech?2ap@
  01ff2	8b 0d 00 00 00
	00		 mov	 ecx, DWORD PTR ?null_entity_pointer_message@@3PBDB ; null_entity_pointer_message
  01ff8	51		 push	 ecx
  01ff9	e8 00 00 00 00	 call	 ?process_assert@@YGXPBD0H@Z ; process_assert
  01ffe	c7 85 bc f8 ff
	ff 00 00 00 00	 mov	 DWORD PTR tv1222[ebp], 0
$LN299@process_re:
  02008	ba 01 00 00 00	 mov	 edx, 1
  0200d	85 d2		 test	 edx, edx
  0200f	74 0c		 je	 SHORT $LN300@process_re
  02011	c7 85 b8 f8 ff
	ff 03 00 00 00	 mov	 DWORD PTR tv1230[ebp], 3
  0201b	eb 26		 jmp	 SHORT $LN301@process_re
$LN300@process_re:
  0201d	a1 00 00 00 00	 mov	 eax, DWORD PTR ?__LINE__Var@?0??process_received_entity_comms_messages@@YGXXZ@4JA
  02022	05 63 06 00 00	 add	 eax, 1635		; 00000663H
  02027	50		 push	 eax
  02028	68 00 00 00 00	 push	 OFFSET ??_C@_0EO@OCMIKFBI@c?3?2users?2nhv90?2projects?2eech?2ap@
  0202d	8b 0d 00 00 00
	00		 mov	 ecx, DWORD PTR ?overload_invalid_string_type_message@@3PBDB ; overload_invalid_string_type_message
  02033	51		 push	 ecx
  02034	e8 00 00 00 00	 call	 ?process_assert@@YGXPBD0H@Z ; process_assert
  02039	c7 85 b8 f8 ff
	ff 00 00 00 00	 mov	 DWORD PTR tv1230[ebp], 0
$LN301@process_re:
  02043	83 bd 08 fc ff
	ff 00		 cmp	 DWORD PTR _task$79[ebp], 0
  0204a	74 17		 je	 SHORT $LN302@process_re
  0204c	8b 95 08 fc ff
	ff		 mov	 edx, DWORD PTR _task$79[ebp]
  02052	2b 15 00 00 00
	00		 sub	 edx, DWORD PTR ?entities@@3PAUENTITY@@A ; entities
  02058	c1 fa 04	 sar	 edx, 4
  0205b	89 95 b4 f8 ff
	ff		 mov	 DWORD PTR tv1240[ebp], edx
  02061	eb 0a		 jmp	 SHORT $LN303@process_re
$LN302@process_re:
  02063	c7 85 b4 f8 ff
	ff ff ff ff ff	 mov	 DWORD PTR tv1240[ebp], -1
$LN303@process_re:
  0206d	83 bd 08 fc ff
	ff 00		 cmp	 DWORD PTR _task$79[ebp], 0
  02074	74 10		 je	 SHORT $LN304@process_re
  02076	8b 85 08 fc ff
	ff		 mov	 eax, DWORD PTR _task$79[ebp]
  0207c	8b 08		 mov	 ecx, DWORD PTR [eax]
  0207e	89 8d b0 f8 ff
	ff		 mov	 DWORD PTR tv1248[ebp], ecx
  02084	eb 27		 jmp	 SHORT $LN305@process_re
$LN304@process_re:
  02086	8b 15 00 00 00
	00		 mov	 edx, DWORD PTR ?__LINE__Var@?0??process_received_entity_comms_messages@@YGXXZ@4JA
  0208c	81 c2 61 06 00
	00		 add	 edx, 1633		; 00000661H
  02092	52		 push	 edx
  02093	68 00 00 00 00	 push	 OFFSET ??_C@_0EO@OCMIKFBI@c?3?2users?2nhv90?2projects?2eech?2ap@
  02098	a1 00 00 00 00	 mov	 eax, DWORD PTR ?null_entity_pointer_message@@3PBDB ; null_entity_pointer_message
  0209d	50		 push	 eax
  0209e	e8 00 00 00 00	 call	 ?process_assert@@YGXPBD0H@Z ; process_assert
  020a3	c7 85 b0 f8 ff
	ff 00 00 00 00	 mov	 DWORD PTR tv1248[ebp], 0
$LN305@process_re:
  020ad	b9 01 00 00 00	 mov	 ecx, 1
  020b2	85 c9		 test	 ecx, ecx
  020b4	74 0c		 je	 SHORT $LN306@process_re
  020b6	c7 85 ac f8 ff
	ff 03 00 00 00	 mov	 DWORD PTR tv1256[ebp], 3
  020c0	eb 27		 jmp	 SHORT $LN307@process_re
$LN306@process_re:
  020c2	8b 15 00 00 00
	00		 mov	 edx, DWORD PTR ?__LINE__Var@?0??process_received_entity_comms_messages@@YGXXZ@4JA
  020c8	81 c2 61 06 00
	00		 add	 edx, 1633		; 00000661H
  020ce	52		 push	 edx
  020cf	68 00 00 00 00	 push	 OFFSET ??_C@_0EO@OCMIKFBI@c?3?2users?2nhv90?2projects?2eech?2ap@
  020d4	a1 00 00 00 00	 mov	 eax, DWORD PTR ?overload_invalid_string_type_message@@3PBDB ; overload_invalid_string_type_message
  020d9	50		 push	 eax
  020da	e8 00 00 00 00	 call	 ?process_assert@@YGXPBD0H@Z ; process_assert
  020df	c7 85 ac f8 ff
	ff 00 00 00 00	 mov	 DWORD PTR tv1256[ebp], 0
$LN307@process_re:
  020e9	8b 8d c0 f8 ff
	ff		 mov	 ecx, DWORD PTR tv1214[ebp]
  020ef	51		 push	 ecx
  020f0	6a 03		 push	 3
  020f2	8b 95 04 fc ff
	ff		 mov	 edx, DWORD PTR _en$78[ebp]
  020f8	52		 push	 edx
  020f9	6b 85 bc f8 ff
	ff 34		 imul	 eax, DWORD PTR tv1222[ebp], 52
  02100	8b 8d b8 f8 ff
	ff		 mov	 ecx, DWORD PTR tv1230[ebp]
  02106	8b 94 88 00 00
	00 00		 mov	 edx, DWORD PTR ?fn_get_local_entity_string@@3PAY0N@P6GPBDPAUENTITY@@W4STRING_TYPES@@@ZA[eax+ecx*4]
  0210d	ff d2		 call	 edx
  0210f	50		 push	 eax
  02110	8b 85 b4 f8 ff
	ff		 mov	 eax, DWORD PTR tv1240[ebp]
  02116	50		 push	 eax
  02117	6a 03		 push	 3
  02119	8b 8d 08 fc ff
	ff		 mov	 ecx, DWORD PTR _task$79[ebp]
  0211f	51		 push	 ecx
  02120	6b 95 b0 f8 ff
	ff 34		 imul	 edx, DWORD PTR tv1248[ebp], 52
  02127	8b 85 ac f8 ff
	ff		 mov	 eax, DWORD PTR tv1256[ebp]
  0212d	8b 8c 82 00 00
	00 00		 mov	 ecx, DWORD PTR ?fn_get_local_entity_string@@3PAY0N@P6GPBDPAUENTITY@@W4STRING_TYPES@@@ZA[edx+eax*4]
  02134	ff d1		 call	 ecx
  02136	50		 push	 eax
  02137	68 00 00 00 00	 push	 OFFSET ??_C@_0DN@JILJIBKE@EN_COMMS?3?5received?5player?5task?5@
  0213c	e8 00 00 00 00	 call	 ?debug_log@@YAXPBDZZ	; debug_log
  02141	83 c4 14	 add	 esp, 20			; 00000014H

; 4523 : 							get_local_entity_string (task, STRING_TYPE_FULL_NAME),
; 4524 : 							get_local_entity_safe_index (task),
; 4525 : 							get_local_entity_string (en, STRING_TYPE_FULL_NAME),
; 4526 : 							get_local_entity_safe_index (en));
; 4527 : 
; 4528 : //				#endif
; 4529 : 
; 4530 : 				if (get_local_entity_int_value (en, INT_TYPE_PLAYER) == ENTITY_PLAYER_LOCAL)

  02144	83 bd 04 fc ff
	ff 00		 cmp	 DWORD PTR _en$78[ebp], 0
  0214b	74 10		 je	 SHORT $LN308@process_re
  0214d	8b 85 04 fc ff
	ff		 mov	 eax, DWORD PTR _en$78[ebp]
  02153	8b 08		 mov	 ecx, DWORD PTR [eax]
  02155	89 8d c0 f8 ff
	ff		 mov	 DWORD PTR tv1269[ebp], ecx
  0215b	eb 20		 jmp	 SHORT $LN309@process_re
$LN308@process_re:
  0215d	68 b2 11 00 00	 push	 4530			; 000011b2H
  02162	68 00 00 00 00	 push	 OFFSET ??_C@_0EO@OCMIKFBI@c?3?2users?2nhv90?2projects?2eech?2ap@
  02167	8b 15 00 00 00
	00		 mov	 edx, DWORD PTR ?null_entity_pointer_message@@3PBDB ; null_entity_pointer_message
  0216d	52		 push	 edx
  0216e	e8 00 00 00 00	 call	 ?process_assert@@YGXPBD0H@Z ; process_assert
  02173	c7 85 c0 f8 ff
	ff 00 00 00 00	 mov	 DWORD PTR tv1269[ebp], 0
$LN309@process_re:
  0217d	b8 01 00 00 00	 mov	 eax, 1
  02182	85 c0		 test	 eax, eax
  02184	74 0c		 je	 SHORT $LN310@process_re
  02186	c7 85 bc f8 ff
	ff 9c 00 00 00	 mov	 DWORD PTR tv1276[ebp], 156 ; 0000009cH
  02190	eb 20		 jmp	 SHORT $LN311@process_re
$LN310@process_re:
  02192	68 b2 11 00 00	 push	 4530			; 000011b2H
  02197	68 00 00 00 00	 push	 OFFSET ??_C@_0EO@OCMIKFBI@c?3?2users?2nhv90?2projects?2eech?2ap@
  0219c	8b 0d 00 00 00
	00		 mov	 ecx, DWORD PTR ?overload_invalid_int_type_message@@3PBDB ; overload_invalid_int_type_message
  021a2	51		 push	 ecx
  021a3	e8 00 00 00 00	 call	 ?process_assert@@YGXPBD0H@Z ; process_assert
  021a8	c7 85 bc f8 ff
	ff 00 00 00 00	 mov	 DWORD PTR tv1276[ebp], 0
$LN311@process_re:
  021b2	68 9c 00 00 00	 push	 156			; 0000009cH
  021b7	8b 95 04 fc ff
	ff		 mov	 edx, DWORD PTR _en$78[ebp]
  021bd	52		 push	 edx
  021be	69 85 c0 f8 ff
	ff 5c 04 00 00	 imul	 eax, DWORD PTR tv1269[ebp], 1116
  021c8	8b 8d bc f8 ff
	ff		 mov	 ecx, DWORD PTR tv1276[ebp]
  021ce	8b 94 88 00 00
	00 00		 mov	 edx, DWORD PTR ?fn_get_local_entity_int_value@@3PAY0BBH@P6GHPAUENTITY@@W4INT_TYPES@@@ZA[eax+ecx*4]
  021d5	ff d2		 call	 edx
  021d7	83 f8 01	 cmp	 eax, 1
  021da	75 13		 jne	 SHORT $LN150@process_re

; 4531 : 				{
; 4532 : 					notify_gunship_entity_mission_completed (en, task);

  021dc	8b 85 08 fc ff
	ff		 mov	 eax, DWORD PTR _task$79[ebp]
  021e2	50		 push	 eax
  021e3	8b 8d 04 fc ff
	ff		 mov	 ecx, DWORD PTR _en$78[ebp]
  021e9	51		 push	 ecx
  021ea	e8 00 00 00 00	 call	 ?notify_gunship_entity_mission_completed@@YGXPAUENTITY@@0@Z ; notify_gunship_entity_mission_completed
$LN150@process_re:

; 4533 : 				}
; 4534 : 
; 4535 : 				break;

  021ef	e9 85 22 00 00	 jmp	 $LN4@process_re
$LN151@process_re:

; 4536 : 			}
; 4537 : 			////////////////////////////////////////
; 4538 : 			case ENTITY_COMMS_PLAYER_TASK_TERMINATED:
; 4539 : 			////////////////////////////////////////
; 4540 : 			{
; 4541 : 				entity
; 4542 : 					*task,
; 4543 : 					*en;
; 4544 : 
; 4545 : 				en = unpack_entity_safe_ptr ();

  021f4	e8 00 00 00 00	 call	 ?unpack_entity_safe_ptr@@YGPAUENTITY@@XZ ; unpack_entity_safe_ptr
  021f9	89 85 fc fb ff
	ff		 mov	 DWORD PTR _en$76[ebp], eax

; 4546 : 
; 4547 : 				task = unpack_entity_safe_ptr ();

  021ff	e8 00 00 00 00	 call	 ?unpack_entity_safe_ptr@@YGPAUENTITY@@XZ ; unpack_entity_safe_ptr
  02204	89 85 00 fc ff
	ff		 mov	 DWORD PTR _task$77[ebp], eax

; 4548 : 
; 4549 : 				ASSERT (en);

  0220a	83 bd fc fb ff
	ff 00		 cmp	 DWORD PTR _en$76[ebp], 0
  02211	75 1a		 jne	 SHORT $LN152@process_re
  02213	a1 00 00 00 00	 mov	 eax, DWORD PTR ?__LINE__Var@?0??process_received_entity_comms_messages@@YGXXZ@4JA
  02218	05 7b 06 00 00	 add	 eax, 1659		; 0000067bH
  0221d	50		 push	 eax
  0221e	68 00 00 00 00	 push	 OFFSET ??_C@_0EO@OCMIKFBI@c?3?2users?2nhv90?2projects?2eech?2ap@
  02223	68 00 00 00 00	 push	 OFFSET ??_C@_02LFNMGJAP@en@
  02228	e8 00 00 00 00	 call	 ?process_assert@@YGXPBD0H@Z ; process_assert
$LN152@process_re:

; 4550 : 
; 4551 : 				ASSERT (task);

  0222d	83 bd 00 fc ff
	ff 00		 cmp	 DWORD PTR _task$77[ebp], 0
  02234	75 1a		 jne	 SHORT $LN153@process_re
  02236	a1 00 00 00 00	 mov	 eax, DWORD PTR ?__LINE__Var@?0??process_received_entity_comms_messages@@YGXXZ@4JA
  0223b	05 7d 06 00 00	 add	 eax, 1661		; 0000067dH
  02240	50		 push	 eax
  02241	68 00 00 00 00	 push	 OFFSET ??_C@_0EO@OCMIKFBI@c?3?2users?2nhv90?2projects?2eech?2ap@
  02246	68 00 00 00 00	 push	 OFFSET ??_C@_04GGKLLKOO@task@
  0224b	e8 00 00 00 00	 call	 ?process_assert@@YGXPBD0H@Z ; process_assert
$LN153@process_re:

; 4552 : 
; 4553 : //				#if DEBUG_MODULE_MESSAGE_TEXT
; 4554 : 
; 4555 : 				debug_log ("EN_COMMS: received player task %s (%d) terminated for %s (%d)",

  02250	83 bd fc fb ff
	ff 00		 cmp	 DWORD PTR _en$76[ebp], 0
  02257	74 17		 je	 SHORT $LN312@process_re
  02259	8b 85 fc fb ff
	ff		 mov	 eax, DWORD PTR _en$76[ebp]
  0225f	2b 05 00 00 00
	00		 sub	 eax, DWORD PTR ?entities@@3PAUENTITY@@A ; entities
  02265	c1 f8 04	 sar	 eax, 4
  02268	89 85 c0 f8 ff
	ff		 mov	 DWORD PTR tv1300[ebp], eax
  0226e	eb 0a		 jmp	 SHORT $LN313@process_re
$LN312@process_re:
  02270	c7 85 c0 f8 ff
	ff ff ff ff ff	 mov	 DWORD PTR tv1300[ebp], -1
$LN313@process_re:
  0227a	83 bd fc fb ff
	ff 00		 cmp	 DWORD PTR _en$76[ebp], 0
  02281	74 10		 je	 SHORT $LN314@process_re
  02283	8b 8d fc fb ff
	ff		 mov	 ecx, DWORD PTR _en$76[ebp]
  02289	8b 11		 mov	 edx, DWORD PTR [ecx]
  0228b	89 95 bc f8 ff
	ff		 mov	 DWORD PTR tv1308[ebp], edx
  02291	eb 26		 jmp	 SHORT $LN315@process_re
$LN314@process_re:
  02293	a1 00 00 00 00	 mov	 eax, DWORD PTR ?__LINE__Var@?0??process_received_entity_comms_messages@@YGXXZ@4JA
  02298	05 84 06 00 00	 add	 eax, 1668		; 00000684H
  0229d	50		 push	 eax
  0229e	68 00 00 00 00	 push	 OFFSET ??_C@_0EO@OCMIKFBI@c?3?2users?2nhv90?2projects?2eech?2ap@
  022a3	8b 0d 00 00 00
	00		 mov	 ecx, DWORD PTR ?null_entity_pointer_message@@3PBDB ; null_entity_pointer_message
  022a9	51		 push	 ecx
  022aa	e8 00 00 00 00	 call	 ?process_assert@@YGXPBD0H@Z ; process_assert
  022af	c7 85 bc f8 ff
	ff 00 00 00 00	 mov	 DWORD PTR tv1308[ebp], 0
$LN315@process_re:
  022b9	ba 01 00 00 00	 mov	 edx, 1
  022be	85 d2		 test	 edx, edx
  022c0	74 0c		 je	 SHORT $LN316@process_re
  022c2	c7 85 b8 f8 ff
	ff 03 00 00 00	 mov	 DWORD PTR tv1348[ebp], 3
  022cc	eb 26		 jmp	 SHORT $LN317@process_re
$LN316@process_re:
  022ce	a1 00 00 00 00	 mov	 eax, DWORD PTR ?__LINE__Var@?0??process_received_entity_comms_messages@@YGXXZ@4JA
  022d3	05 84 06 00 00	 add	 eax, 1668		; 00000684H
  022d8	50		 push	 eax
  022d9	68 00 00 00 00	 push	 OFFSET ??_C@_0EO@OCMIKFBI@c?3?2users?2nhv90?2projects?2eech?2ap@
  022de	8b 0d 00 00 00
	00		 mov	 ecx, DWORD PTR ?overload_invalid_string_type_message@@3PBDB ; overload_invalid_string_type_message
  022e4	51		 push	 ecx
  022e5	e8 00 00 00 00	 call	 ?process_assert@@YGXPBD0H@Z ; process_assert
  022ea	c7 85 b8 f8 ff
	ff 00 00 00 00	 mov	 DWORD PTR tv1348[ebp], 0
$LN317@process_re:
  022f4	83 bd 00 fc ff
	ff 00		 cmp	 DWORD PTR _task$77[ebp], 0
  022fb	74 17		 je	 SHORT $LN318@process_re
  022fd	8b 95 00 fc ff
	ff		 mov	 edx, DWORD PTR _task$77[ebp]
  02303	2b 15 00 00 00
	00		 sub	 edx, DWORD PTR ?entities@@3PAUENTITY@@A ; entities
  02309	c1 fa 04	 sar	 edx, 4
  0230c	89 95 b4 f8 ff
	ff		 mov	 DWORD PTR tv1358[ebp], edx
  02312	eb 0a		 jmp	 SHORT $LN319@process_re
$LN318@process_re:
  02314	c7 85 b4 f8 ff
	ff ff ff ff ff	 mov	 DWORD PTR tv1358[ebp], -1
$LN319@process_re:
  0231e	83 bd 00 fc ff
	ff 00		 cmp	 DWORD PTR _task$77[ebp], 0
  02325	74 10		 je	 SHORT $LN320@process_re
  02327	8b 85 00 fc ff
	ff		 mov	 eax, DWORD PTR _task$77[ebp]
  0232d	8b 08		 mov	 ecx, DWORD PTR [eax]
  0232f	89 8d b0 f8 ff
	ff		 mov	 DWORD PTR tv1366[ebp], ecx
  02335	eb 27		 jmp	 SHORT $LN321@process_re
$LN320@process_re:
  02337	8b 15 00 00 00
	00		 mov	 edx, DWORD PTR ?__LINE__Var@?0??process_received_entity_comms_messages@@YGXXZ@4JA
  0233d	81 c2 82 06 00
	00		 add	 edx, 1666		; 00000682H
  02343	52		 push	 edx
  02344	68 00 00 00 00	 push	 OFFSET ??_C@_0EO@OCMIKFBI@c?3?2users?2nhv90?2projects?2eech?2ap@
  02349	a1 00 00 00 00	 mov	 eax, DWORD PTR ?null_entity_pointer_message@@3PBDB ; null_entity_pointer_message
  0234e	50		 push	 eax
  0234f	e8 00 00 00 00	 call	 ?process_assert@@YGXPBD0H@Z ; process_assert
  02354	c7 85 b0 f8 ff
	ff 00 00 00 00	 mov	 DWORD PTR tv1366[ebp], 0
$LN321@process_re:
  0235e	b9 01 00 00 00	 mov	 ecx, 1
  02363	85 c9		 test	 ecx, ecx
  02365	74 0c		 je	 SHORT $LN322@process_re
  02367	c7 85 ac f8 ff
	ff 03 00 00 00	 mov	 DWORD PTR tv1374[ebp], 3
  02371	eb 27		 jmp	 SHORT $LN323@process_re
$LN322@process_re:
  02373	8b 15 00 00 00
	00		 mov	 edx, DWORD PTR ?__LINE__Var@?0??process_received_entity_comms_messages@@YGXXZ@4JA
  02379	81 c2 82 06 00
	00		 add	 edx, 1666		; 00000682H
  0237f	52		 push	 edx
  02380	68 00 00 00 00	 push	 OFFSET ??_C@_0EO@OCMIKFBI@c?3?2users?2nhv90?2projects?2eech?2ap@
  02385	a1 00 00 00 00	 mov	 eax, DWORD PTR ?overload_invalid_string_type_message@@3PBDB ; overload_invalid_string_type_message
  0238a	50		 push	 eax
  0238b	e8 00 00 00 00	 call	 ?process_assert@@YGXPBD0H@Z ; process_assert
  02390	c7 85 ac f8 ff
	ff 00 00 00 00	 mov	 DWORD PTR tv1374[ebp], 0
$LN323@process_re:
  0239a	8b 8d c0 f8 ff
	ff		 mov	 ecx, DWORD PTR tv1300[ebp]
  023a0	51		 push	 ecx
  023a1	6a 03		 push	 3
  023a3	8b 95 fc fb ff
	ff		 mov	 edx, DWORD PTR _en$76[ebp]
  023a9	52		 push	 edx
  023aa	6b 85 bc f8 ff
	ff 34		 imul	 eax, DWORD PTR tv1308[ebp], 52
  023b1	8b 8d b8 f8 ff
	ff		 mov	 ecx, DWORD PTR tv1348[ebp]
  023b7	8b 94 88 00 00
	00 00		 mov	 edx, DWORD PTR ?fn_get_local_entity_string@@3PAY0N@P6GPBDPAUENTITY@@W4STRING_TYPES@@@ZA[eax+ecx*4]
  023be	ff d2		 call	 edx
  023c0	50		 push	 eax
  023c1	8b 85 b4 f8 ff
	ff		 mov	 eax, DWORD PTR tv1358[ebp]
  023c7	50		 push	 eax
  023c8	6a 03		 push	 3
  023ca	8b 8d 00 fc ff
	ff		 mov	 ecx, DWORD PTR _task$77[ebp]
  023d0	51		 push	 ecx
  023d1	6b 95 b0 f8 ff
	ff 34		 imul	 edx, DWORD PTR tv1366[ebp], 52
  023d8	8b 85 ac f8 ff
	ff		 mov	 eax, DWORD PTR tv1374[ebp]
  023de	8b 8c 82 00 00
	00 00		 mov	 ecx, DWORD PTR ?fn_get_local_entity_string@@3PAY0N@P6GPBDPAUENTITY@@W4STRING_TYPES@@@ZA[edx+eax*4]
  023e5	ff d1		 call	 ecx
  023e7	50		 push	 eax
  023e8	68 00 00 00 00	 push	 OFFSET ??_C@_0DO@HBFAIHPG@EN_COMMS?3?5received?5player?5task?5@
  023ed	e8 00 00 00 00	 call	 ?debug_log@@YAXPBDZZ	; debug_log
  023f2	83 c4 14	 add	 esp, 20			; 00000014H

; 4556 : 							get_local_entity_string (task, STRING_TYPE_FULL_NAME),
; 4557 : 							get_local_entity_safe_index (task),
; 4558 : 							get_local_entity_string (en, STRING_TYPE_FULL_NAME),
; 4559 : 							get_local_entity_safe_index (en));
; 4560 : 
; 4561 : //				#endif
; 4562 : 
; 4563 : 				if (get_local_entity_int_value (en, INT_TYPE_PLAYER) == ENTITY_PLAYER_LOCAL)

  023f5	83 bd fc fb ff
	ff 00		 cmp	 DWORD PTR _en$76[ebp], 0
  023fc	74 10		 je	 SHORT $LN324@process_re
  023fe	8b 85 fc fb ff
	ff		 mov	 eax, DWORD PTR _en$76[ebp]
  02404	8b 08		 mov	 ecx, DWORD PTR [eax]
  02406	89 8d c0 f8 ff
	ff		 mov	 DWORD PTR tv1387[ebp], ecx
  0240c	eb 20		 jmp	 SHORT $LN325@process_re
$LN324@process_re:
  0240e	68 d3 11 00 00	 push	 4563			; 000011d3H
  02413	68 00 00 00 00	 push	 OFFSET ??_C@_0EO@OCMIKFBI@c?3?2users?2nhv90?2projects?2eech?2ap@
  02418	8b 15 00 00 00
	00		 mov	 edx, DWORD PTR ?null_entity_pointer_message@@3PBDB ; null_entity_pointer_message
  0241e	52		 push	 edx
  0241f	e8 00 00 00 00	 call	 ?process_assert@@YGXPBD0H@Z ; process_assert
  02424	c7 85 c0 f8 ff
	ff 00 00 00 00	 mov	 DWORD PTR tv1387[ebp], 0
$LN325@process_re:
  0242e	b8 01 00 00 00	 mov	 eax, 1
  02433	85 c0		 test	 eax, eax
  02435	74 0c		 je	 SHORT $LN326@process_re
  02437	c7 85 bc f8 ff
	ff 9c 00 00 00	 mov	 DWORD PTR tv1394[ebp], 156 ; 0000009cH
  02441	eb 20		 jmp	 SHORT $LN327@process_re
$LN326@process_re:
  02443	68 d3 11 00 00	 push	 4563			; 000011d3H
  02448	68 00 00 00 00	 push	 OFFSET ??_C@_0EO@OCMIKFBI@c?3?2users?2nhv90?2projects?2eech?2ap@
  0244d	8b 0d 00 00 00
	00		 mov	 ecx, DWORD PTR ?overload_invalid_int_type_message@@3PBDB ; overload_invalid_int_type_message
  02453	51		 push	 ecx
  02454	e8 00 00 00 00	 call	 ?process_assert@@YGXPBD0H@Z ; process_assert
  02459	c7 85 bc f8 ff
	ff 00 00 00 00	 mov	 DWORD PTR tv1394[ebp], 0
$LN327@process_re:
  02463	68 9c 00 00 00	 push	 156			; 0000009cH
  02468	8b 95 fc fb ff
	ff		 mov	 edx, DWORD PTR _en$76[ebp]
  0246e	52		 push	 edx
  0246f	69 85 c0 f8 ff
	ff 5c 04 00 00	 imul	 eax, DWORD PTR tv1387[ebp], 1116
  02479	8b 8d bc f8 ff
	ff		 mov	 ecx, DWORD PTR tv1394[ebp]
  0247f	8b 94 88 00 00
	00 00		 mov	 edx, DWORD PTR ?fn_get_local_entity_int_value@@3PAY0BBH@P6GHPAUENTITY@@W4INT_TYPES@@@ZA[eax+ecx*4]
  02486	ff d2		 call	 edx
  02488	83 f8 01	 cmp	 eax, 1
  0248b	75 13		 jne	 SHORT $LN154@process_re

; 4564 : 				{
; 4565 : 					notify_gunship_entity_mission_terminated (en, task);

  0248d	8b 85 00 fc ff
	ff		 mov	 eax, DWORD PTR _task$77[ebp]
  02493	50		 push	 eax
  02494	8b 8d fc fb ff
	ff		 mov	 ecx, DWORD PTR _en$76[ebp]
  0249a	51		 push	 ecx
  0249b	e8 00 00 00 00	 call	 ?notify_gunship_entity_mission_terminated@@YGXPAUENTITY@@0@Z ; notify_gunship_entity_mission_terminated
$LN154@process_re:

; 4566 : 				}
; 4567 : 
; 4568 : 				break;

  024a0	e9 d4 1f 00 00	 jmp	 $LN4@process_re
$LN155@process_re:

; 4569 : 			}
; 4570 : 			////////////////////////////////////////
; 4571 : 			case ENTITY_COMMS_RADIO_MESSAGE:
; 4572 : 			////////////////////////////////////////
; 4573 : 			{
; 4574 : 				entity
; 4575 : 					*en;
; 4576 : 
; 4577 : 				int
; 4578 : 					message_type,
; 4579 : 					message_value,
; 4580 : 					create_stack_attributes;
; 4581 : 
; 4582 : 				//
; 4583 : 				// (entity_comms_messages message, entity *en, int message_type, int message_value)
; 4584 : 				//
; 4585 : 
; 4586 : 				en = unpack_entity_safe_ptr ();

  024a5	e8 00 00 00 00	 call	 ?unpack_entity_safe_ptr@@YGPAUENTITY@@XZ ; unpack_entity_safe_ptr
  024aa	89 85 f8 fb ff
	ff		 mov	 DWORD PTR _en$75[ebp], eax

; 4587 : 
; 4588 : 				ASSERT (en);

  024b0	83 bd f8 fb ff
	ff 00		 cmp	 DWORD PTR _en$75[ebp], 0
  024b7	75 1a		 jne	 SHORT $LN156@process_re
  024b9	a1 00 00 00 00	 mov	 eax, DWORD PTR ?__LINE__Var@?0??process_received_entity_comms_messages@@YGXXZ@4JA
  024be	05 a2 06 00 00	 add	 eax, 1698		; 000006a2H
  024c3	50		 push	 eax
  024c4	68 00 00 00 00	 push	 OFFSET ??_C@_0EO@OCMIKFBI@c?3?2users?2nhv90?2projects?2eech?2ap@
  024c9	68 00 00 00 00	 push	 OFFSET ??_C@_02LFNMGJAP@en@
  024ce	e8 00 00 00 00	 call	 ?process_assert@@YGXPBD0H@Z ; process_assert
$LN156@process_re:

; 4589 : 
; 4590 : 				message_type = unpack_int_value (en, INT_TYPE_RADIO_MESSAGE_TYPE);

  024d3	68 aa 00 00 00	 push	 170			; 000000aaH
  024d8	8b 85 f8 fb ff
	ff		 mov	 eax, DWORD PTR _en$75[ebp]
  024de	50		 push	 eax
  024df	e8 00 00 00 00	 call	 ?unpack_int_value@@YGHPAUENTITY@@W4INT_TYPES@@@Z ; unpack_int_value
  024e4	89 85 f4 fb ff
	ff		 mov	 DWORD PTR _message_type$74[ebp], eax

; 4591 : 
; 4592 : 				message_value = unpack_int_value (en, INT_TYPE_RADIO_MESSAGE_VALUE);

  024ea	68 ab 00 00 00	 push	 171			; 000000abH
  024ef	8b 85 f8 fb ff
	ff		 mov	 eax, DWORD PTR _en$75[ebp]
  024f5	50		 push	 eax
  024f6	e8 00 00 00 00	 call	 ?unpack_int_value@@YGHPAUENTITY@@W4INT_TYPES@@@Z ; unpack_int_value
  024fb	89 85 f0 fb ff
	ff		 mov	 DWORD PTR _message_value$73[ebp], eax

; 4593 : 
; 4594 : 				create_stack_attributes = force_local_entity_create_stack_attributes;

  02501	a1 00 00 00 00	 mov	 eax, DWORD PTR ?force_local_entity_create_stack_attributes@@3HA ; force_local_entity_create_stack_attributes
  02506	89 85 ec fb ff
	ff		 mov	 DWORD PTR _create_stack_attributes$72[ebp], eax

; 4595 : 
; 4596 : 				set_force_local_entity_create_stack_attributes (TRUE);

  0250c	c7 05 00 00 00
	00 01 00 00 00	 mov	 DWORD PTR ?force_local_entity_create_stack_attributes@@3HA, 1 ; force_local_entity_create_stack_attributes

; 4597 : 
; 4598 : 				process_radio_message (en, (message_categories) message_type, message_value);

  02516	8b 85 f0 fb ff
	ff		 mov	 eax, DWORD PTR _message_value$73[ebp]
  0251c	50		 push	 eax
  0251d	8b 8d f4 fb ff
	ff		 mov	 ecx, DWORD PTR _message_type$74[ebp]
  02523	51		 push	 ecx
  02524	8b 95 f8 fb ff
	ff		 mov	 edx, DWORD PTR _en$75[ebp]
  0252a	52		 push	 edx
  0252b	e8 00 00 00 00	 call	 ?process_radio_message@@YGXPAUENTITY@@W4MESSAGE_CATEGORIES@@H@Z ; process_radio_message

; 4599 : 
; 4600 : 				set_force_local_entity_create_stack_attributes (create_stack_attributes);

  02530	8b 85 ec fb ff
	ff		 mov	 eax, DWORD PTR _create_stack_attributes$72[ebp]
  02536	a3 00 00 00 00	 mov	 DWORD PTR ?force_local_entity_create_stack_attributes@@3HA, eax ; force_local_entity_create_stack_attributes

; 4601 : 
; 4602 : 				#if DEBUG_MODULE_MESSAGE_TEXT
; 4603 : 
; 4604 : 				debug_log ("EN_COMMS: received radio message for %s (%d)", get_local_entity_type_name (en), get_local_entity_index (en));
; 4605 : 
; 4606 : 				#endif
; 4607 : 
; 4608 : 				break;

  0253b	e9 39 1f 00 00	 jmp	 $LN4@process_re
$LN157@process_re:

; 4609 : 			}
; 4610 : 			////////////////////////////////////////
; 4611 : 			case ENTITY_COMMS_REPAIR_ANTI_AIRCRAFT_GROUP:
; 4612 : 			////////////////////////////////////////
; 4613 : 			{
; 4614 : 				entity
; 4615 : 					*en;
; 4616 : 
; 4617 : 				//
; 4618 : 				// (entity_comms_messages message, entity *en)
; 4619 : 				//
; 4620 : 
; 4621 : 				en = unpack_entity_safe_ptr ();

  02540	e8 00 00 00 00	 call	 ?unpack_entity_safe_ptr@@YGPAUENTITY@@XZ ; unpack_entity_safe_ptr
  02545	89 85 e8 fb ff
	ff		 mov	 DWORD PTR _en$71[ebp], eax

; 4622 : 				
; 4623 : 				ASSERT (en);

  0254b	83 bd e8 fb ff
	ff 00		 cmp	 DWORD PTR _en$71[ebp], 0
  02552	75 1a		 jne	 SHORT $LN158@process_re
  02554	a1 00 00 00 00	 mov	 eax, DWORD PTR ?__LINE__Var@?0??process_received_entity_comms_messages@@YGXXZ@4JA
  02559	05 c5 06 00 00	 add	 eax, 1733		; 000006c5H
  0255e	50		 push	 eax
  0255f	68 00 00 00 00	 push	 OFFSET ??_C@_0EO@OCMIKFBI@c?3?2users?2nhv90?2projects?2eech?2ap@
  02564	68 00 00 00 00	 push	 OFFSET ??_C@_02LFNMGJAP@en@
  02569	e8 00 00 00 00	 call	 ?process_assert@@YGXPBD0H@Z ; process_assert
$LN158@process_re:

; 4624 : 
; 4625 : 				ASSERT (get_local_entity_type (en) == ENTITY_TYPE_GROUP);

  0256e	83 bd e8 fb ff
	ff 00		 cmp	 DWORD PTR _en$71[ebp], 0
  02575	74 10		 je	 SHORT $LN328@process_re
  02577	8b 85 e8 fb ff
	ff		 mov	 eax, DWORD PTR _en$71[ebp]
  0257d	8b 08		 mov	 ecx, DWORD PTR [eax]
  0257f	89 8d c0 f8 ff
	ff		 mov	 DWORD PTR tv1430[ebp], ecx
  02585	eb 27		 jmp	 SHORT $LN329@process_re
$LN328@process_re:
  02587	8b 15 00 00 00
	00		 mov	 edx, DWORD PTR ?__LINE__Var@?0??process_received_entity_comms_messages@@YGXXZ@4JA
  0258d	81 c2 c7 06 00
	00		 add	 edx, 1735		; 000006c7H
  02593	52		 push	 edx
  02594	68 00 00 00 00	 push	 OFFSET ??_C@_0EO@OCMIKFBI@c?3?2users?2nhv90?2projects?2eech?2ap@
  02599	a1 00 00 00 00	 mov	 eax, DWORD PTR ?null_entity_pointer_message@@3PBDB ; null_entity_pointer_message
  0259e	50		 push	 eax
  0259f	e8 00 00 00 00	 call	 ?process_assert@@YGXPBD0H@Z ; process_assert
  025a4	c7 85 c0 f8 ff
	ff 00 00 00 00	 mov	 DWORD PTR tv1430[ebp], 0
$LN329@process_re:
  025ae	83 bd c0 f8 ff
	ff 0c		 cmp	 DWORD PTR tv1430[ebp], 12 ; 0000000cH
  025b5	74 1a		 je	 SHORT $LN159@process_re
  025b7	a1 00 00 00 00	 mov	 eax, DWORD PTR ?__LINE__Var@?0??process_received_entity_comms_messages@@YGXXZ@4JA
  025bc	05 c7 06 00 00	 add	 eax, 1735		; 000006c7H
  025c1	50		 push	 eax
  025c2	68 00 00 00 00	 push	 OFFSET ??_C@_0EO@OCMIKFBI@c?3?2users?2nhv90?2projects?2eech?2ap@
  025c7	68 00 00 00 00	 push	 OFFSET ??_C@_0DA@LNAMKNMB@get_local_entity_type?5?$CIen?$CJ?5?$DN?$DN?5E@
  025cc	e8 00 00 00 00	 call	 ?process_assert@@YGXPBD0H@Z ; process_assert
$LN159@process_re:

; 4626 : 
; 4627 : 				#if DEBUG_MODULE_MESSAGE_TEXT
; 4628 : 
; 4629 : 				debug_log ("EN_COMMS: Received Repair AA Group for (%d)", get_local_entity_index (en));
; 4630 : 
; 4631 : 				#endif
; 4632 : 
; 4633 : 				break;

  025d1	e9 a3 1e 00 00	 jmp	 $LN4@process_re
$LN160@process_re:

; 4634 : 			}
; 4635 : 			////////////////////////////////////////
; 4636 : 			case ENTITY_COMMS_REPAIR_BRIDGE_ENTITY:
; 4637 : 			////////////////////////////////////////
; 4638 : 			{
; 4639 : 				entity
; 4640 : 					*en;
; 4641 : 
; 4642 : 				//
; 4643 : 				// (entity_comms_messages message, entity *en)
; 4644 : 				//
; 4645 : 
; 4646 : 				en = unpack_entity_safe_ptr ();

  025d6	e8 00 00 00 00	 call	 ?unpack_entity_safe_ptr@@YGPAUENTITY@@XZ ; unpack_entity_safe_ptr
  025db	89 85 e4 fb ff
	ff		 mov	 DWORD PTR _en$70[ebp], eax

; 4647 : 				
; 4648 : 				ASSERT (en);

  025e1	83 bd e4 fb ff
	ff 00		 cmp	 DWORD PTR _en$70[ebp], 0
  025e8	75 1a		 jne	 SHORT $LN161@process_re
  025ea	a1 00 00 00 00	 mov	 eax, DWORD PTR ?__LINE__Var@?0??process_received_entity_comms_messages@@YGXXZ@4JA
  025ef	05 de 06 00 00	 add	 eax, 1758		; 000006deH
  025f4	50		 push	 eax
  025f5	68 00 00 00 00	 push	 OFFSET ??_C@_0EO@OCMIKFBI@c?3?2users?2nhv90?2projects?2eech?2ap@
  025fa	68 00 00 00 00	 push	 OFFSET ??_C@_02LFNMGJAP@en@
  025ff	e8 00 00 00 00	 call	 ?process_assert@@YGXPBD0H@Z ; process_assert
$LN161@process_re:

; 4649 : 
; 4650 : 				ASSERT (get_local_entity_type (en) == ENTITY_TYPE_BRIDGE);

  02604	83 bd e4 fb ff
	ff 00		 cmp	 DWORD PTR _en$70[ebp], 0
  0260b	74 10		 je	 SHORT $LN330@process_re
  0260d	8b 85 e4 fb ff
	ff		 mov	 eax, DWORD PTR _en$70[ebp]
  02613	8b 08		 mov	 ecx, DWORD PTR [eax]
  02615	89 8d c0 f8 ff
	ff		 mov	 DWORD PTR tv1448[ebp], ecx
  0261b	eb 27		 jmp	 SHORT $LN331@process_re
$LN330@process_re:
  0261d	8b 15 00 00 00
	00		 mov	 edx, DWORD PTR ?__LINE__Var@?0??process_received_entity_comms_messages@@YGXXZ@4JA
  02623	81 c2 e0 06 00
	00		 add	 edx, 1760		; 000006e0H
  02629	52		 push	 edx
  0262a	68 00 00 00 00	 push	 OFFSET ??_C@_0EO@OCMIKFBI@c?3?2users?2nhv90?2projects?2eech?2ap@
  0262f	a1 00 00 00 00	 mov	 eax, DWORD PTR ?null_entity_pointer_message@@3PBDB ; null_entity_pointer_message
  02634	50		 push	 eax
  02635	e8 00 00 00 00	 call	 ?process_assert@@YGXPBD0H@Z ; process_assert
  0263a	c7 85 c0 f8 ff
	ff 00 00 00 00	 mov	 DWORD PTR tv1448[ebp], 0
$LN331@process_re:
  02644	83 bd c0 f8 ff
	ff 02		 cmp	 DWORD PTR tv1448[ebp], 2
  0264b	74 1a		 je	 SHORT $LN162@process_re
  0264d	a1 00 00 00 00	 mov	 eax, DWORD PTR ?__LINE__Var@?0??process_received_entity_comms_messages@@YGXXZ@4JA
  02652	05 e0 06 00 00	 add	 eax, 1760		; 000006e0H
  02657	50		 push	 eax
  02658	68 00 00 00 00	 push	 OFFSET ??_C@_0EO@OCMIKFBI@c?3?2users?2nhv90?2projects?2eech?2ap@
  0265d	68 00 00 00 00	 push	 OFFSET ??_C@_0DB@ENGEBKMD@get_local_entity_type?5?$CIen?$CJ?5?$DN?$DN?5E@
  02662	e8 00 00 00 00	 call	 ?process_assert@@YGXPBD0H@Z ; process_assert
$LN162@process_re:

; 4651 : 
; 4652 : 				#if DEBUG_MODULE_MESSAGE_TEXT
; 4653 : 
; 4654 : 				debug_log ("EN_COMMS: Received Repair Bridge for (%d)", get_local_entity_index (en));
; 4655 : 
; 4656 : 				#endif
; 4657 : 
; 4658 : 				repair_local_bridge_entity (en);

  02667	8b 85 e4 fb ff
	ff		 mov	 eax, DWORD PTR _en$70[ebp]
  0266d	50		 push	 eax
  0266e	e8 00 00 00 00	 call	 ?repair_local_bridge_entity@@YGXPAUENTITY@@@Z ; repair_local_bridge_entity

; 4659 : 
; 4660 : 				break;

  02673	e9 01 1e 00 00	 jmp	 $LN4@process_re
$LN163@process_re:

; 4661 : 			}
; 4662 : 			////////////////////////////////////////
; 4663 : 			case ENTITY_COMMS_REQUEST_TARGET_LIST:
; 4664 : 			////////////////////////////////////////
; 4665 : 			{
; 4666 : 				entity
; 4667 : 					*en,
; 4668 : 					*destination;
; 4669 : 
; 4670 : 				//
; 4671 : 				// (entity_comms_messages message, entity *en, entity *destination)
; 4672 : 				//
; 4673 : 
; 4674 : 				en = unpack_entity_safe_ptr ();

  02678	e8 00 00 00 00	 call	 ?unpack_entity_safe_ptr@@YGPAUENTITY@@XZ ; unpack_entity_safe_ptr
  0267d	89 85 e0 fb ff
	ff		 mov	 DWORD PTR _en$69[ebp], eax

; 4675 : 
; 4676 : 				ASSERT (en);

  02683	83 bd e0 fb ff
	ff 00		 cmp	 DWORD PTR _en$69[ebp], 0
  0268a	75 1a		 jne	 SHORT $LN164@process_re
  0268c	a1 00 00 00 00	 mov	 eax, DWORD PTR ?__LINE__Var@?0??process_received_entity_comms_messages@@YGXXZ@4JA
  02691	05 fa 06 00 00	 add	 eax, 1786		; 000006faH
  02696	50		 push	 eax
  02697	68 00 00 00 00	 push	 OFFSET ??_C@_0EO@OCMIKFBI@c?3?2users?2nhv90?2projects?2eech?2ap@
  0269c	68 00 00 00 00	 push	 OFFSET ??_C@_02LFNMGJAP@en@
  026a1	e8 00 00 00 00	 call	 ?process_assert@@YGXPBD0H@Z ; process_assert
$LN164@process_re:

; 4677 : 
; 4678 : 				destination = unpack_entity_safe_ptr ();

  026a6	e8 00 00 00 00	 call	 ?unpack_entity_safe_ptr@@YGPAUENTITY@@XZ ; unpack_entity_safe_ptr
  026ab	89 85 dc fb ff
	ff		 mov	 DWORD PTR _destination$68[ebp], eax

; 4679 : 
; 4680 : 				ASSERT (destination);

  026b1	83 bd dc fb ff
	ff 00		 cmp	 DWORD PTR _destination$68[ebp], 0
  026b8	75 1a		 jne	 SHORT $LN165@process_re
  026ba	a1 00 00 00 00	 mov	 eax, DWORD PTR ?__LINE__Var@?0??process_received_entity_comms_messages@@YGXXZ@4JA
  026bf	05 fe 06 00 00	 add	 eax, 1790		; 000006feH
  026c4	50		 push	 eax
  026c5	68 00 00 00 00	 push	 OFFSET ??_C@_0EO@OCMIKFBI@c?3?2users?2nhv90?2projects?2eech?2ap@
  026ca	68 00 00 00 00	 push	 OFFSET ??_C@_0M@BLMAJMLK@destination@
  026cf	e8 00 00 00 00	 call	 ?process_assert@@YGXPBD0H@Z ; process_assert
$LN165@process_re:

; 4681 : 
; 4682 : 				#if DEBUG_MODULE_MESSAGE_TEXT
; 4683 : 
; 4684 : 				debug_log ("EN_COMMS: received request target list from %s (%d) to %s (%d)",
; 4685 : 								get_local_entity_string (en, STRING_TYPE_FULL_NAME), get_local_entity_index (en),
; 4686 : 								get_local_entity_string (destination, STRING_TYPE_FULL_NAME), get_local_entity_index (destination));
; 4687 : 
; 4688 : 				#endif
; 4689 : 
; 4690 : 				if (destination == get_gunship_entity ())

  026d4	8b 85 dc fb ff
	ff		 mov	 eax, DWORD PTR _destination$68[ebp]
  026da	3b 05 00 00 00
	00		 cmp	 eax, DWORD PTR ?gunship_entity@@3PAUENTITY@@A ; gunship_entity
  026e0	0f 85 e8 00 00
	00		 jne	 $LN166@process_re

; 4691 : 				{
; 4692 : 					int
; 4693 : 						loop,
; 4694 : 						*index_list,
; 4695 : 						target_count;
; 4696 : 
; 4697 : 					target_count = get_number_of_valid_gunship_targets (en);

  026e6	8b 85 e0 fb ff
	ff		 mov	 eax, DWORD PTR _en$69[ebp]
  026ec	50		 push	 eax
  026ed	e8 00 00 00 00	 call	 ?get_number_of_valid_gunship_targets@@YGHPAUENTITY@@@Z ; get_number_of_valid_gunship_targets
  026f2	89 85 d0 fb ff
	ff		 mov	 DWORD PTR _target_count$65[ebp], eax

; 4698 : 
; 4699 : 					if (target_count > 0)

  026f8	83 bd d0 fb ff
	ff 00		 cmp	 DWORD PTR _target_count$65[ebp], 0
  026ff	0f 8e c7 00 00
	00		 jle	 $LN168@process_re

; 4700 : 					{
; 4701 : 						target_count = min (target_count, 255);

  02705	c7 85 c4 f8 ff
	ff ff 00 00 00	 mov	 DWORD PTR $T1[ebp], 255	; 000000ffH
  0270f	8d 85 c4 f8 ff
	ff		 lea	 eax, DWORD PTR $T1[ebp]
  02715	50		 push	 eax
  02716	8d 8d d0 fb ff
	ff		 lea	 ecx, DWORD PTR _target_count$65[ebp]
  0271c	51		 push	 ecx
  0271d	e8 00 00 00 00	 call	 ??$min@H@std@@YGABHABH0@Z ; std::min<int>
  02722	8b 10		 mov	 edx, DWORD PTR [eax]
  02724	89 95 d0 fb ff
	ff		 mov	 DWORD PTR _target_count$65[ebp], edx

; 4702 : 
; 4703 : 						index_list = (int *) malloc_fast_mem (sizeof (int) * target_count);

  0272a	8b 85 d0 fb ff
	ff		 mov	 eax, DWORD PTR _target_count$65[ebp]
  02730	c1 e0 02	 shl	 eax, 2
  02733	50		 push	 eax
  02734	e8 00 00 00 00	 call	 ?malloc_fast_memory@@YGPAXI@Z ; malloc_fast_memory
  02739	89 85 d4 fb ff
	ff		 mov	 DWORD PTR _index_list$66[ebp], eax

; 4704 : 
; 4705 : 						for (loop = 0; loop < target_count; loop ++)

  0273f	c7 85 d8 fb ff
	ff 00 00 00 00	 mov	 DWORD PTR _loop$67[ebp], 0
  02749	eb 0f		 jmp	 SHORT $LN31@process_re
$LN29@process_re:
  0274b	8b 85 d8 fb ff
	ff		 mov	 eax, DWORD PTR _loop$67[ebp]
  02751	83 c0 01	 add	 eax, 1
  02754	89 85 d8 fb ff
	ff		 mov	 DWORD PTR _loop$67[ebp], eax
$LN31@process_re:
  0275a	8b 85 d8 fb ff
	ff		 mov	 eax, DWORD PTR _loop$67[ebp]
  02760	3b 85 d0 fb ff
	ff		 cmp	 eax, DWORD PTR _target_count$65[ebp]
  02766	7d 24		 jge	 SHORT $LN30@process_re

; 4706 : 						{
; 4707 : 							index_list [loop] = get_valid_gunship_target_safe_index (en, loop);

  02768	8b 85 d8 fb ff
	ff		 mov	 eax, DWORD PTR _loop$67[ebp]
  0276e	50		 push	 eax
  0276f	8b 8d e0 fb ff
	ff		 mov	 ecx, DWORD PTR _en$69[ebp]
  02775	51		 push	 ecx
  02776	e8 00 00 00 00	 call	 ?get_valid_gunship_target_safe_index@@YGHPAUENTITY@@H@Z ; get_valid_gunship_target_safe_index
  0277b	8b 95 d8 fb ff
	ff		 mov	 edx, DWORD PTR _loop$67[ebp]
  02781	8b 8d d4 fb ff
	ff		 mov	 ecx, DWORD PTR _index_list$66[ebp]
  02787	89 04 91	 mov	 DWORD PTR [ecx+edx*4], eax

; 4708 : 						}

  0278a	eb bf		 jmp	 SHORT $LN29@process_re
$LN30@process_re:

; 4709 : 
; 4710 : 						set_comms_data_flow (COMMS_DATA_FLOW_TX);

  0278c	6a 00		 push	 0
  0278e	e8 00 00 00 00	 call	 ?set_comms_data_flow@@YGXW4COMMS_DATA_FLOW_TYPES@@@Z ; set_comms_data_flow

; 4711 : 
; 4712 : 						transmit_entity_comms_message (ENTITY_COMMS_SEND_TARGET_LIST, destination, en, target_count, index_list);

  02793	8b 85 d4 fb ff
	ff		 mov	 eax, DWORD PTR _index_list$66[ebp]
  02799	50		 push	 eax
  0279a	8b 8d d0 fb ff
	ff		 mov	 ecx, DWORD PTR _target_count$65[ebp]
  027a0	51		 push	 ecx
  027a1	8b 95 e0 fb ff
	ff		 mov	 edx, DWORD PTR _en$69[ebp]
  027a7	52		 push	 edx
  027a8	8b 85 dc fb ff
	ff		 mov	 eax, DWORD PTR _destination$68[ebp]
  027ae	50		 push	 eax
  027af	6a 30		 push	 48			; 00000030H
  027b1	e8 00 00 00 00	 call	 ?transmit_entity_comms_message@@YAXW4ENTITY_COMMS_MESSAGES@@PAUENTITY@@ZZ ; transmit_entity_comms_message
  027b6	83 c4 14	 add	 esp, 20			; 00000014H

; 4713 : 
; 4714 : 						set_comms_data_flow (COMMS_DATA_FLOW_RX);

  027b9	6a 01		 push	 1
  027bb	e8 00 00 00 00	 call	 ?set_comms_data_flow@@YGXW4COMMS_DATA_FLOW_TYPES@@@Z ; set_comms_data_flow

; 4715 : 
; 4716 : 						free_mem (index_list);

  027c0	8b 85 d4 fb ff
	ff		 mov	 eax, DWORD PTR _index_list$66[ebp]
  027c6	50		 push	 eax
  027c7	e8 00 00 00 00	 call	 ?free_mem@@YGXPAX@Z	; free_mem
$LN168@process_re:

; 4717 : 					}
; 4718 : 				}
; 4719 : 				else

  027cc	eb 2f		 jmp	 SHORT $LN169@process_re
$LN166@process_re:

; 4720 : 				{
; 4721 : 					//
; 4722 : 					// server needs to forward any messages on to clients
; 4723 : 					//
; 4724 : 
; 4725 : 					if (get_comms_model () == COMMS_MODEL_SERVER)

  027ce	83 3d 00 00 00
	00 00		 cmp	 DWORD PTR ?system_comms_model@@3W4COMMS_MODEL_TYPES@@A, 0 ; system_comms_model
  027d5	75 26		 jne	 SHORT $LN169@process_re

; 4726 : 					{
; 4727 : 						set_comms_data_flow (COMMS_DATA_FLOW_TX);

  027d7	6a 00		 push	 0
  027d9	e8 00 00 00 00	 call	 ?set_comms_data_flow@@YGXW4COMMS_DATA_FLOW_TYPES@@@Z ; set_comms_data_flow

; 4728 : 
; 4729 : 						transmit_entity_comms_message (ENTITY_COMMS_REQUEST_TARGET_LIST, en, destination);

  027de	8b 85 dc fb ff
	ff		 mov	 eax, DWORD PTR _destination$68[ebp]
  027e4	50		 push	 eax
  027e5	8b 8d e0 fb ff
	ff		 mov	 ecx, DWORD PTR _en$69[ebp]
  027eb	51		 push	 ecx
  027ec	6a 2b		 push	 43			; 0000002bH
  027ee	e8 00 00 00 00	 call	 ?transmit_entity_comms_message@@YAXW4ENTITY_COMMS_MESSAGES@@PAUENTITY@@ZZ ; transmit_entity_comms_message
  027f3	83 c4 0c	 add	 esp, 12			; 0000000cH

; 4730 : 
; 4731 : 						set_comms_data_flow (COMMS_DATA_FLOW_RX);

  027f6	6a 01		 push	 1
  027f8	e8 00 00 00 00	 call	 ?set_comms_data_flow@@YGXW4COMMS_DATA_FLOW_TYPES@@@Z ; set_comms_data_flow
$LN169@process_re:

; 4732 : 					}
; 4733 : 				}
; 4734 : 
; 4735 : 				break;

  027fd	e9 77 1c 00 00	 jmp	 $LN4@process_re
$LN170@process_re:

; 4736 : 			}
; 4737 : 			////////////////////////////////////////
; 4738 : 			case ENTITY_COMMS_RESTORE_ENTITY:
; 4739 : 			////////////////////////////////////////
; 4740 : 			{
; 4741 : 				entity
; 4742 : 					*en;
; 4743 : 
; 4744 : 				int
; 4745 : 					operational_state;
; 4746 : 
; 4747 : 				vec3d
; 4748 : 					pos;
; 4749 : 
; 4750 : 				en = unpack_entity_safe_ptr ();

  02802	e8 00 00 00 00	 call	 ?unpack_entity_safe_ptr@@YGPAUENTITY@@XZ ; unpack_entity_safe_ptr
  02807	89 85 cc fb ff
	ff		 mov	 DWORD PTR _en$64[ebp], eax

; 4751 : 
; 4752 : 				unpack_vec3d (en, VEC3D_TYPE_POSITION, &pos);

  0280d	8d 85 bc fb ff
	ff		 lea	 eax, DWORD PTR _pos$62[ebp]
  02813	50		 push	 eax
  02814	6a 08		 push	 8
  02816	8b 8d cc fb ff
	ff		 mov	 ecx, DWORD PTR _en$64[ebp]
  0281c	51		 push	 ecx
  0281d	e8 00 00 00 00	 call	 ?unpack_vec3d@@YGXPAUENTITY@@W4VEC3D_TYPES@@PAUVEC3D@@@Z ; unpack_vec3d

; 4753 : 
; 4754 : 				operational_state = unpack_int_value (en, INT_TYPE_OPERATIONAL_STATE);

  02822	68 97 00 00 00	 push	 151			; 00000097H
  02827	8b 85 cc fb ff
	ff		 mov	 eax, DWORD PTR _en$64[ebp]
  0282d	50		 push	 eax
  0282e	e8 00 00 00 00	 call	 ?unpack_int_value@@YGHPAUENTITY@@W4INT_TYPES@@@Z ; unpack_int_value
  02833	89 85 c8 fb ff
	ff		 mov	 DWORD PTR _operational_state$63[ebp], eax

; 4755 : 
; 4756 : 				//
; 4757 : 				// currently only for helicopters, but could make it more generic if possible
; 4758 : 				//
; 4759 : 
; 4760 : 				if (get_local_entity_type (en) == ENTITY_TYPE_HELICOPTER)

  02839	83 bd cc fb ff
	ff 00		 cmp	 DWORD PTR _en$64[ebp], 0
  02840	74 10		 je	 SHORT $LN332@process_re
  02842	8b 85 cc fb ff
	ff		 mov	 eax, DWORD PTR _en$64[ebp]
  02848	8b 08		 mov	 ecx, DWORD PTR [eax]
  0284a	89 8d c0 f8 ff
	ff		 mov	 DWORD PTR tv1510[ebp], ecx
  02850	eb 20		 jmp	 SHORT $LN333@process_re
$LN332@process_re:
  02852	68 98 12 00 00	 push	 4760			; 00001298H
  02857	68 00 00 00 00	 push	 OFFSET ??_C@_0EO@OCMIKFBI@c?3?2users?2nhv90?2projects?2eech?2ap@
  0285c	8b 15 00 00 00
	00		 mov	 edx, DWORD PTR ?null_entity_pointer_message@@3PBDB ; null_entity_pointer_message
  02862	52		 push	 edx
  02863	e8 00 00 00 00	 call	 ?process_assert@@YGXPBD0H@Z ; process_assert
  02868	c7 85 c0 f8 ff
	ff 00 00 00 00	 mov	 DWORD PTR tv1510[ebp], 0
$LN333@process_re:
  02872	83 bd c0 f8 ff
	ff 0e		 cmp	 DWORD PTR tv1510[ebp], 14 ; 0000000eH
  02879	75 1a		 jne	 SHORT $LN171@process_re

; 4761 : 				{
; 4762 : 					restore_helicopter_entity (en, &pos, (operational_state_types) operational_state);

  0287b	8b 85 c8 fb ff
	ff		 mov	 eax, DWORD PTR _operational_state$63[ebp]
  02881	50		 push	 eax
  02882	8d 8d bc fb ff
	ff		 lea	 ecx, DWORD PTR _pos$62[ebp]
  02888	51		 push	 ecx
  02889	8b 95 cc fb ff
	ff		 mov	 edx, DWORD PTR _en$64[ebp]
  0288f	52		 push	 edx
  02890	e8 00 00 00 00	 call	 ?restore_helicopter_entity@@YGXPAUENTITY@@PAUVEC3D@@W4OPERATIONAL_STATE_TYPES@@@Z ; restore_helicopter_entity
$LN171@process_re:

; 4763 : 				}
; 4764 : 
; 4765 : 				#if DEBUG_MODULE_MESSAGE_TEXT
; 4766 : 
; 4767 : 				debug_log ("EN_COMMS: received restore entity for %s (%d)", get_local_entity_type_name (en), get_local_entity_index (en));
; 4768 : 
; 4769 : 				#endif
; 4770 : 
; 4771 : 				break;

  02895	e9 df 1b 00 00	 jmp	 $LN4@process_re
$LN172@process_re:

; 4772 : 			}
; 4773 : 			////////////////////////////////////////
; 4774 : 			case ENTITY_COMMS_RESTORE_FIXED_ENTITY:
; 4775 : 			////////////////////////////////////////
; 4776 : 			{
; 4777 : 				entity
; 4778 : 					*en;
; 4779 : 
; 4780 : 				en = unpack_entity_safe_ptr ();

  0289a	e8 00 00 00 00	 call	 ?unpack_entity_safe_ptr@@YGPAUENTITY@@XZ ; unpack_entity_safe_ptr
  0289f	89 85 b8 fb ff
	ff		 mov	 DWORD PTR _en$61[ebp], eax

; 4781 : 
; 4782 : 				restore_local_fixed_entity (en);

  028a5	8b 85 b8 fb ff
	ff		 mov	 eax, DWORD PTR _en$61[ebp]
  028ab	50		 push	 eax
  028ac	e8 00 00 00 00	 call	 ?restore_local_fixed_entity@@YGXPAUENTITY@@@Z ; restore_local_fixed_entity

; 4783 : 
; 4784 : 				#if DEBUG_MODULE_MESSAGE_TEXT
; 4785 : 
; 4786 : 				debug_log ("EN_COMMS: received restore entity for %s (%d)", get_local_entity_type_name (en), get_local_entity_index (en));
; 4787 : 
; 4788 : 				#endif
; 4789 : 
; 4790 : 				break;

  028b1	e9 c3 1b 00 00	 jmp	 $LN4@process_re
$LN173@process_re:

; 4791 : 			}
; 4792 : 			////////////////////////////////////////
; 4793 : 			case ENTITY_COMMS_RESUME_SOUND_TYPE:
; 4794 : 			////////////////////////////////////////
; 4795 : 			{
; 4796 : 				entity
; 4797 : 					*en;
; 4798 : 
; 4799 : 				entity_sub_types
; 4800 : 					type;
; 4801 : 
; 4802 : 				//
; 4803 : 				// (entity_comms_messages message, entity *en, entity_sub_types type)
; 4804 : 				//
; 4805 : 
; 4806 : 				en = unpack_entity_safe_ptr ();

  028b6	e8 00 00 00 00	 call	 ?unpack_entity_safe_ptr@@YGPAUENTITY@@XZ ; unpack_entity_safe_ptr
  028bb	89 85 b4 fb ff
	ff		 mov	 DWORD PTR _en$60[ebp], eax

; 4807 : 
; 4808 : 				ASSERT (en);

  028c1	83 bd b4 fb ff
	ff 00		 cmp	 DWORD PTR _en$60[ebp], 0
  028c8	75 1a		 jne	 SHORT $LN174@process_re
  028ca	a1 00 00 00 00	 mov	 eax, DWORD PTR ?__LINE__Var@?0??process_received_entity_comms_messages@@YGXXZ@4JA
  028cf	05 7e 07 00 00	 add	 eax, 1918		; 0000077eH
  028d4	50		 push	 eax
  028d5	68 00 00 00 00	 push	 OFFSET ??_C@_0EO@OCMIKFBI@c?3?2users?2nhv90?2projects?2eech?2ap@
  028da	68 00 00 00 00	 push	 OFFSET ??_C@_02LFNMGJAP@en@
  028df	e8 00 00 00 00	 call	 ?process_assert@@YGXPBD0H@Z ; process_assert
$LN174@process_re:

; 4809 : 
; 4810 : 				type = unpack_int_value (en, INT_TYPE_ENTITY_SUB_TYPE);

  028e4	6a 34		 push	 52			; 00000034H
  028e6	8b 85 b4 fb ff
	ff		 mov	 eax, DWORD PTR _en$60[ebp]
  028ec	50		 push	 eax
  028ed	e8 00 00 00 00	 call	 ?unpack_int_value@@YGHPAUENTITY@@W4INT_TYPES@@@Z ; unpack_int_value
  028f2	89 85 b0 fb ff
	ff		 mov	 DWORD PTR _type$59[ebp], eax

; 4811 : 
; 4812 : 				resume_local_entity_sound_type (en, type);

  028f8	8b 85 b0 fb ff
	ff		 mov	 eax, DWORD PTR _type$59[ebp]
  028fe	50		 push	 eax
  028ff	8b 8d b4 fb ff
	ff		 mov	 ecx, DWORD PTR _en$60[ebp]
  02905	51		 push	 ecx
  02906	e8 00 00 00 00	 call	 ?resume_local_entity_sound_type@@YGHPAUENTITY@@H@Z ; resume_local_entity_sound_type

; 4813 : 
; 4814 : 				#if DEBUG_MODULE_MESSAGE_TEXT
; 4815 : 
; 4816 : 				debug_log ("EN_COMMS: received resume sound type for %s (%d)", get_local_entity_type_name (en), get_local_entity_index (en));
; 4817 : 
; 4818 : 				#endif
; 4819 : 
; 4820 : 				break;

  0290b	e9 69 1b 00 00	 jmp	 $LN4@process_re
$LN175@process_re:

; 4821 : 			}
; 4822 : 			////////////////////////////////////////
; 4823 : 			case ENTITY_COMMS_ROUTED_VEHICLE_ROUTE_DATA:
; 4824 : 			////////////////////////////////////////
; 4825 : 			{
; 4826 : 				//
; 4827 : 				// (entity_comms_messages message, entity *en, vec3d *pos, int operational_state)
; 4828 : 				//
; 4829 : 	
; 4830 : 				node_link_data
; 4831 : 					*sub_route_node;
; 4832 : 
; 4833 : 				int
; 4834 : 					count,
; 4835 : 					this_index,
; 4836 : 					next_index;
; 4837 : 
; 4838 : 				entity
; 4839 : 					*en,
; 4840 : 					*group,
; 4841 : 					*mb;
; 4842 : 
; 4843 : 				// unpack group data
; 4844 : 	
; 4845 : 				en = unpack_entity_safe_ptr ();

  02910	e8 00 00 00 00	 call	 ?unpack_entity_safe_ptr@@YGPAUENTITY@@XZ ; unpack_entity_safe_ptr
  02915	89 85 9c fb ff
	ff		 mov	 DWORD PTR _en$54[ebp], eax

; 4846 : 	
; 4847 : 				ASSERT (en);

  0291b	83 bd 9c fb ff
	ff 00		 cmp	 DWORD PTR _en$54[ebp], 0
  02922	75 1a		 jne	 SHORT $LN176@process_re
  02924	a1 00 00 00 00	 mov	 eax, DWORD PTR ?__LINE__Var@?0??process_received_entity_comms_messages@@YGXXZ@4JA
  02929	05 a5 07 00 00	 add	 eax, 1957		; 000007a5H
  0292e	50		 push	 eax
  0292f	68 00 00 00 00	 push	 OFFSET ??_C@_0EO@OCMIKFBI@c?3?2users?2nhv90?2projects?2eech?2ap@
  02934	68 00 00 00 00	 push	 OFFSET ??_C@_02LFNMGJAP@en@
  02939	e8 00 00 00 00	 call	 ?process_assert@@YGXPBD0H@Z ; process_assert
$LN176@process_re:

; 4848 : 	
; 4849 : 				this_index = unpack_int_value (en, INT_TYPE_WAYPOINT_THIS_INDEX);

  0293e	68 01 01 00 00	 push	 257			; 00000101H
  02943	8b 85 9c fb ff
	ff		 mov	 eax, DWORD PTR _en$54[ebp]
  02949	50		 push	 eax
  0294a	e8 00 00 00 00	 call	 ?unpack_int_value@@YGHPAUENTITY@@W4INT_TYPES@@@Z ; unpack_int_value
  0294f	89 85 a4 fb ff
	ff		 mov	 DWORD PTR _this_index$56[ebp], eax

; 4850 : 				next_index = unpack_int_value (en, INT_TYPE_WAYPOINT_NEXT_INDEX);

  02955	68 00 01 00 00	 push	 256			; 00000100H
  0295a	8b 85 9c fb ff
	ff		 mov	 eax, DWORD PTR _en$54[ebp]
  02960	50		 push	 eax
  02961	e8 00 00 00 00	 call	 ?unpack_int_value@@YGHPAUENTITY@@W4INT_TYPES@@@Z ; unpack_int_value
  02966	89 85 a0 fb ff
	ff		 mov	 DWORD PTR _next_index$55[ebp], eax

; 4851 : 	
; 4852 : 				sub_route_node = get_road_sub_route (this_index, next_index, &count, NULL);

  0296c	6a 00		 push	 0
  0296e	8d 85 a8 fb ff
	ff		 lea	 eax, DWORD PTR _count$57[ebp]
  02974	50		 push	 eax
  02975	8b 8d a0 fb ff
	ff		 mov	 ecx, DWORD PTR _next_index$55[ebp]
  0297b	51		 push	 ecx
  0297c	8b 95 a4 fb ff
	ff		 mov	 edx, DWORD PTR _this_index$56[ebp]
  02982	52		 push	 edx
  02983	e8 00 00 00 00	 call	 ?get_road_sub_route@@YGPAUNODE_LINK_DATA@@HHPAHPAU1@@Z ; get_road_sub_route
  02988	89 85 ac fb ff
	ff		 mov	 DWORD PTR _sub_route_node$58[ebp], eax

; 4853 : 
; 4854 : 				// loop each member
; 4855 : 
; 4856 : 				group = get_local_entity_parent (en, LIST_TYPE_MEMBER);

  0298e	83 bd 9c fb ff
	ff 00		 cmp	 DWORD PTR _en$54[ebp], 0
  02995	74 10		 je	 SHORT $LN334@process_re
  02997	8b 85 9c fb ff
	ff		 mov	 eax, DWORD PTR _en$54[ebp]
  0299d	8b 08		 mov	 ecx, DWORD PTR [eax]
  0299f	89 8d c0 f8 ff
	ff		 mov	 DWORD PTR tv1551[ebp], ecx
  029a5	eb 27		 jmp	 SHORT $LN335@process_re
$LN334@process_re:
  029a7	8b 15 00 00 00
	00		 mov	 edx, DWORD PTR ?__LINE__Var@?0??process_received_entity_comms_messages@@YGXXZ@4JA
  029ad	81 c2 ae 07 00
	00		 add	 edx, 1966		; 000007aeH
  029b3	52		 push	 edx
  029b4	68 00 00 00 00	 push	 OFFSET ??_C@_0EO@OCMIKFBI@c?3?2users?2nhv90?2projects?2eech?2ap@
  029b9	a1 00 00 00 00	 mov	 eax, DWORD PTR ?null_entity_pointer_message@@3PBDB ; null_entity_pointer_message
  029be	50		 push	 eax
  029bf	e8 00 00 00 00	 call	 ?process_assert@@YGXPBD0H@Z ; process_assert
  029c4	c7 85 c0 f8 ff
	ff 00 00 00 00	 mov	 DWORD PTR tv1551[ebp], 0
$LN335@process_re:
  029ce	b9 01 00 00 00	 mov	 ecx, 1
  029d3	85 c9		 test	 ecx, ecx
  029d5	74 0c		 je	 SHORT $LN336@process_re
  029d7	c7 85 bc f8 ff
	ff 19 00 00 00	 mov	 DWORD PTR tv1559[ebp], 25 ; 00000019H
  029e1	eb 27		 jmp	 SHORT $LN337@process_re
$LN336@process_re:
  029e3	8b 15 00 00 00
	00		 mov	 edx, DWORD PTR ?__LINE__Var@?0??process_received_entity_comms_messages@@YGXXZ@4JA
  029e9	81 c2 ae 07 00
	00		 add	 edx, 1966		; 000007aeH
  029ef	52		 push	 edx
  029f0	68 00 00 00 00	 push	 OFFSET ??_C@_0EO@OCMIKFBI@c?3?2users?2nhv90?2projects?2eech?2ap@
  029f5	a1 00 00 00 00	 mov	 eax, DWORD PTR ?overload_invalid_list_type_message@@3PBDB ; overload_invalid_list_type_message
  029fa	50		 push	 eax
  029fb	e8 00 00 00 00	 call	 ?process_assert@@YGXPBD0H@Z ; process_assert
  02a00	c7 85 bc f8 ff
	ff 00 00 00 00	 mov	 DWORD PTR tv1559[ebp], 0
$LN337@process_re:
  02a0a	6a 19		 push	 25			; 00000019H
  02a0c	8b 8d 9c fb ff
	ff		 mov	 ecx, DWORD PTR _en$54[ebp]
  02a12	51		 push	 ecx
  02a13	69 95 c0 f8 ff
	ff b4 00 00 00	 imul	 edx, DWORD PTR tv1551[ebp], 180
  02a1d	8b 85 bc f8 ff
	ff		 mov	 eax, DWORD PTR tv1559[ebp]
  02a23	8b 8c 82 00 00
	00 00		 mov	 ecx, DWORD PTR ?fn_get_local_entity_parent@@3PAY0CN@P6GPAUENTITY@@PAU1@W4LIST_TYPES@@@ZA[edx+eax*4]
  02a2a	ff d1		 call	 ecx
  02a2c	89 85 98 fb ff
	ff		 mov	 DWORD PTR _group$53[ebp], eax

; 4857 : 
; 4858 : 				mb = get_local_entity_first_child (group, LIST_TYPE_MEMBER);

  02a32	83 bd 98 fb ff
	ff 00		 cmp	 DWORD PTR _group$53[ebp], 0
  02a39	74 10		 je	 SHORT $LN338@process_re
  02a3b	8b 85 98 fb ff
	ff		 mov	 eax, DWORD PTR _group$53[ebp]
  02a41	8b 08		 mov	 ecx, DWORD PTR [eax]
  02a43	89 8d c0 f8 ff
	ff		 mov	 DWORD PTR tv1571[ebp], ecx
  02a49	eb 27		 jmp	 SHORT $LN339@process_re
$LN338@process_re:
  02a4b	8b 15 00 00 00
	00		 mov	 edx, DWORD PTR ?__LINE__Var@?0??process_received_entity_comms_messages@@YGXXZ@4JA
  02a51	81 c2 b0 07 00
	00		 add	 edx, 1968		; 000007b0H
  02a57	52		 push	 edx
  02a58	68 00 00 00 00	 push	 OFFSET ??_C@_0EO@OCMIKFBI@c?3?2users?2nhv90?2projects?2eech?2ap@
  02a5d	a1 00 00 00 00	 mov	 eax, DWORD PTR ?null_entity_pointer_message@@3PBDB ; null_entity_pointer_message
  02a62	50		 push	 eax
  02a63	e8 00 00 00 00	 call	 ?process_assert@@YGXPBD0H@Z ; process_assert
  02a68	c7 85 c0 f8 ff
	ff 00 00 00 00	 mov	 DWORD PTR tv1571[ebp], 0
$LN339@process_re:
  02a72	b9 01 00 00 00	 mov	 ecx, 1
  02a77	85 c9		 test	 ecx, ecx
  02a79	74 0c		 je	 SHORT $LN340@process_re
  02a7b	c7 85 bc f8 ff
	ff 19 00 00 00	 mov	 DWORD PTR tv1579[ebp], 25 ; 00000019H
  02a85	eb 27		 jmp	 SHORT $LN341@process_re
$LN340@process_re:
  02a87	8b 15 00 00 00
	00		 mov	 edx, DWORD PTR ?__LINE__Var@?0??process_received_entity_comms_messages@@YGXXZ@4JA
  02a8d	81 c2 b0 07 00
	00		 add	 edx, 1968		; 000007b0H
  02a93	52		 push	 edx
  02a94	68 00 00 00 00	 push	 OFFSET ??_C@_0EO@OCMIKFBI@c?3?2users?2nhv90?2projects?2eech?2ap@
  02a99	a1 00 00 00 00	 mov	 eax, DWORD PTR ?overload_invalid_list_type_message@@3PBDB ; overload_invalid_list_type_message
  02a9e	50		 push	 eax
  02a9f	e8 00 00 00 00	 call	 ?process_assert@@YGXPBD0H@Z ; process_assert
  02aa4	c7 85 bc f8 ff
	ff 00 00 00 00	 mov	 DWORD PTR tv1579[ebp], 0
$LN341@process_re:
  02aae	6a 19		 push	 25			; 00000019H
  02ab0	8b 8d 98 fb ff
	ff		 mov	 ecx, DWORD PTR _group$53[ebp]
  02ab6	51		 push	 ecx
  02ab7	69 95 c0 f8 ff
	ff b4 00 00 00	 imul	 edx, DWORD PTR tv1571[ebp], 180
  02ac1	8b 85 bc f8 ff
	ff		 mov	 eax, DWORD PTR tv1579[ebp]
  02ac7	8b 8c 82 00 00
	00 00		 mov	 ecx, DWORD PTR ?fn_get_local_entity_first_child@@3PAY0CN@P6GPAUENTITY@@PAU1@W4LIST_TYPES@@@ZA[edx+eax*4]
  02ace	ff d1		 call	 ecx
  02ad0	89 85 94 fb ff
	ff		 mov	 DWORD PTR _mb$52[ebp], eax
$LN32@process_re:

; 4859 : 
; 4860 : 				while (mb)

  02ad6	83 bd 94 fb ff
	ff 00		 cmp	 DWORD PTR _mb$52[ebp], 0
  02add	0f 84 cb 02 00
	00		 je	 $LN33@process_re

; 4861 : 				{
; 4862 : 	
; 4863 : 					routed_vehicle
; 4864 : 						*raw;
; 4865 : 	
; 4866 : 					set_local_entity_int_value (mb, INT_TYPE_WAYPOINT_THIS_INDEX, this_index);

  02ae3	83 bd 94 fb ff
	ff 00		 cmp	 DWORD PTR _mb$52[ebp], 0
  02aea	74 10		 je	 SHORT $LN342@process_re
  02aec	8b 85 94 fb ff
	ff		 mov	 eax, DWORD PTR _mb$52[ebp]
  02af2	8b 08		 mov	 ecx, DWORD PTR [eax]
  02af4	89 8d c0 f8 ff
	ff		 mov	 DWORD PTR tv1592[ebp], ecx
  02afa	eb 27		 jmp	 SHORT $LN343@process_re
$LN342@process_re:
  02afc	8b 15 00 00 00
	00		 mov	 edx, DWORD PTR ?__LINE__Var@?0??process_received_entity_comms_messages@@YGXXZ@4JA
  02b02	81 c2 b8 07 00
	00		 add	 edx, 1976		; 000007b8H
  02b08	52		 push	 edx
  02b09	68 00 00 00 00	 push	 OFFSET ??_C@_0EO@OCMIKFBI@c?3?2users?2nhv90?2projects?2eech?2ap@
  02b0e	a1 00 00 00 00	 mov	 eax, DWORD PTR ?null_entity_pointer_message@@3PBDB ; null_entity_pointer_message
  02b13	50		 push	 eax
  02b14	e8 00 00 00 00	 call	 ?process_assert@@YGXPBD0H@Z ; process_assert
  02b19	c7 85 c0 f8 ff
	ff 00 00 00 00	 mov	 DWORD PTR tv1592[ebp], 0
$LN343@process_re:
  02b23	b9 01 00 00 00	 mov	 ecx, 1
  02b28	85 c9		 test	 ecx, ecx
  02b2a	74 0c		 je	 SHORT $LN344@process_re
  02b2c	c7 85 bc f8 ff
	ff 01 01 00 00	 mov	 DWORD PTR tv1600[ebp], 257 ; 00000101H
  02b36	eb 27		 jmp	 SHORT $LN345@process_re
$LN344@process_re:
  02b38	8b 15 00 00 00
	00		 mov	 edx, DWORD PTR ?__LINE__Var@?0??process_received_entity_comms_messages@@YGXXZ@4JA
  02b3e	81 c2 b8 07 00
	00		 add	 edx, 1976		; 000007b8H
  02b44	52		 push	 edx
  02b45	68 00 00 00 00	 push	 OFFSET ??_C@_0EO@OCMIKFBI@c?3?2users?2nhv90?2projects?2eech?2ap@
  02b4a	a1 00 00 00 00	 mov	 eax, DWORD PTR ?overload_invalid_int_type_message@@3PBDB ; overload_invalid_int_type_message
  02b4f	50		 push	 eax
  02b50	e8 00 00 00 00	 call	 ?process_assert@@YGXPBD0H@Z ; process_assert
  02b55	c7 85 bc f8 ff
	ff 00 00 00 00	 mov	 DWORD PTR tv1600[ebp], 0
$LN345@process_re:
  02b5f	8b 8d a4 fb ff
	ff		 mov	 ecx, DWORD PTR _this_index$56[ebp]
  02b65	51		 push	 ecx
  02b66	68 01 01 00 00	 push	 257			; 00000101H
  02b6b	8b 95 94 fb ff
	ff		 mov	 edx, DWORD PTR _mb$52[ebp]
  02b71	52		 push	 edx
  02b72	69 85 c0 f8 ff
	ff 5c 04 00 00	 imul	 eax, DWORD PTR tv1592[ebp], 1116
  02b7c	8b 8d bc f8 ff
	ff		 mov	 ecx, DWORD PTR tv1600[ebp]
  02b82	8b 94 88 00 00
	00 00		 mov	 edx, DWORD PTR ?fn_set_local_entity_int_value@@3PAY0BBH@P6GXPAUENTITY@@W4INT_TYPES@@H@ZA[eax+ecx*4]
  02b89	ff d2		 call	 edx

; 4867 : 					set_local_entity_int_value (mb, INT_TYPE_WAYPOINT_NEXT_INDEX, next_index);

  02b8b	83 bd 94 fb ff
	ff 00		 cmp	 DWORD PTR _mb$52[ebp], 0
  02b92	74 10		 je	 SHORT $LN346@process_re
  02b94	8b 85 94 fb ff
	ff		 mov	 eax, DWORD PTR _mb$52[ebp]
  02b9a	8b 08		 mov	 ecx, DWORD PTR [eax]
  02b9c	89 8d c0 f8 ff
	ff		 mov	 DWORD PTR tv1612[ebp], ecx
  02ba2	eb 27		 jmp	 SHORT $LN347@process_re
$LN346@process_re:
  02ba4	8b 15 00 00 00
	00		 mov	 edx, DWORD PTR ?__LINE__Var@?0??process_received_entity_comms_messages@@YGXXZ@4JA
  02baa	81 c2 b9 07 00
	00		 add	 edx, 1977		; 000007b9H
  02bb0	52		 push	 edx
  02bb1	68 00 00 00 00	 push	 OFFSET ??_C@_0EO@OCMIKFBI@c?3?2users?2nhv90?2projects?2eech?2ap@
  02bb6	a1 00 00 00 00	 mov	 eax, DWORD PTR ?null_entity_pointer_message@@3PBDB ; null_entity_pointer_message
  02bbb	50		 push	 eax
  02bbc	e8 00 00 00 00	 call	 ?process_assert@@YGXPBD0H@Z ; process_assert
  02bc1	c7 85 c0 f8 ff
	ff 00 00 00 00	 mov	 DWORD PTR tv1612[ebp], 0
$LN347@process_re:
  02bcb	b9 01 00 00 00	 mov	 ecx, 1
  02bd0	85 c9		 test	 ecx, ecx
  02bd2	74 0c		 je	 SHORT $LN348@process_re
  02bd4	c7 85 bc f8 ff
	ff 00 01 00 00	 mov	 DWORD PTR tv1620[ebp], 256 ; 00000100H
  02bde	eb 27		 jmp	 SHORT $LN349@process_re
$LN348@process_re:
  02be0	8b 15 00 00 00
	00		 mov	 edx, DWORD PTR ?__LINE__Var@?0??process_received_entity_comms_messages@@YGXXZ@4JA
  02be6	81 c2 b9 07 00
	00		 add	 edx, 1977		; 000007b9H
  02bec	52		 push	 edx
  02bed	68 00 00 00 00	 push	 OFFSET ??_C@_0EO@OCMIKFBI@c?3?2users?2nhv90?2projects?2eech?2ap@
  02bf2	a1 00 00 00 00	 mov	 eax, DWORD PTR ?overload_invalid_int_type_message@@3PBDB ; overload_invalid_int_type_message
  02bf7	50		 push	 eax
  02bf8	e8 00 00 00 00	 call	 ?process_assert@@YGXPBD0H@Z ; process_assert
  02bfd	c7 85 bc f8 ff
	ff 00 00 00 00	 mov	 DWORD PTR tv1620[ebp], 0
$LN349@process_re:
  02c07	8b 8d a0 fb ff
	ff		 mov	 ecx, DWORD PTR _next_index$55[ebp]
  02c0d	51		 push	 ecx
  02c0e	68 00 01 00 00	 push	 256			; 00000100H
  02c13	8b 95 94 fb ff
	ff		 mov	 edx, DWORD PTR _mb$52[ebp]
  02c19	52		 push	 edx
  02c1a	69 85 c0 f8 ff
	ff 5c 04 00 00	 imul	 eax, DWORD PTR tv1612[ebp], 1116
  02c24	8b 8d bc f8 ff
	ff		 mov	 ecx, DWORD PTR tv1620[ebp]
  02c2a	8b 94 88 00 00
	00 00		 mov	 edx, DWORD PTR ?fn_set_local_entity_int_value@@3PAY0BBH@P6GXPAUENTITY@@W4INT_TYPES@@H@ZA[eax+ecx*4]
  02c31	ff d2		 call	 edx

; 4868 : 					set_local_entity_int_value (mb, INT_TYPE_SUB_WAYPOINT_COUNT, count);

  02c33	83 bd 94 fb ff
	ff 00		 cmp	 DWORD PTR _mb$52[ebp], 0
  02c3a	74 10		 je	 SHORT $LN350@process_re
  02c3c	8b 85 94 fb ff
	ff		 mov	 eax, DWORD PTR _mb$52[ebp]
  02c42	8b 08		 mov	 ecx, DWORD PTR [eax]
  02c44	89 8d c0 f8 ff
	ff		 mov	 DWORD PTR tv1632[ebp], ecx
  02c4a	eb 27		 jmp	 SHORT $LN351@process_re
$LN350@process_re:
  02c4c	8b 15 00 00 00
	00		 mov	 edx, DWORD PTR ?__LINE__Var@?0??process_received_entity_comms_messages@@YGXXZ@4JA
  02c52	81 c2 ba 07 00
	00		 add	 edx, 1978		; 000007baH
  02c58	52		 push	 edx
  02c59	68 00 00 00 00	 push	 OFFSET ??_C@_0EO@OCMIKFBI@c?3?2users?2nhv90?2projects?2eech?2ap@
  02c5e	a1 00 00 00 00	 mov	 eax, DWORD PTR ?null_entity_pointer_message@@3PBDB ; null_entity_pointer_message
  02c63	50		 push	 eax
  02c64	e8 00 00 00 00	 call	 ?process_assert@@YGXPBD0H@Z ; process_assert
  02c69	c7 85 c0 f8 ff
	ff 00 00 00 00	 mov	 DWORD PTR tv1632[ebp], 0
$LN351@process_re:
  02c73	b9 01 00 00 00	 mov	 ecx, 1
  02c78	85 c9		 test	 ecx, ecx
  02c7a	74 0c		 je	 SHORT $LN352@process_re
  02c7c	c7 85 bc f8 ff
	ff cf 00 00 00	 mov	 DWORD PTR tv1640[ebp], 207 ; 000000cfH
  02c86	eb 27		 jmp	 SHORT $LN353@process_re
$LN352@process_re:
  02c88	8b 15 00 00 00
	00		 mov	 edx, DWORD PTR ?__LINE__Var@?0??process_received_entity_comms_messages@@YGXXZ@4JA
  02c8e	81 c2 ba 07 00
	00		 add	 edx, 1978		; 000007baH
  02c94	52		 push	 edx
  02c95	68 00 00 00 00	 push	 OFFSET ??_C@_0EO@OCMIKFBI@c?3?2users?2nhv90?2projects?2eech?2ap@
  02c9a	a1 00 00 00 00	 mov	 eax, DWORD PTR ?overload_invalid_int_type_message@@3PBDB ; overload_invalid_int_type_message
  02c9f	50		 push	 eax
  02ca0	e8 00 00 00 00	 call	 ?process_assert@@YGXPBD0H@Z ; process_assert
  02ca5	c7 85 bc f8 ff
	ff 00 00 00 00	 mov	 DWORD PTR tv1640[ebp], 0
$LN353@process_re:
  02caf	8b 8d a8 fb ff
	ff		 mov	 ecx, DWORD PTR _count$57[ebp]
  02cb5	51		 push	 ecx
  02cb6	68 cf 00 00 00	 push	 207			; 000000cfH
  02cbb	8b 95 94 fb ff
	ff		 mov	 edx, DWORD PTR _mb$52[ebp]
  02cc1	52		 push	 edx
  02cc2	69 85 c0 f8 ff
	ff 5c 04 00 00	 imul	 eax, DWORD PTR tv1632[ebp], 1116
  02ccc	8b 8d bc f8 ff
	ff		 mov	 ecx, DWORD PTR tv1640[ebp]
  02cd2	8b 94 88 00 00
	00 00		 mov	 edx, DWORD PTR ?fn_set_local_entity_int_value@@3PAY0BBH@P6GXPAUENTITY@@W4INT_TYPES@@H@ZA[eax+ecx*4]
  02cd9	ff d2		 call	 edx

; 4869 : 	
; 4870 : 					if (sub_route_node)

  02cdb	83 bd ac fb ff
	ff 00		 cmp	 DWORD PTR _sub_route_node$58[ebp], 0
  02ce2	74 21		 je	 SHORT $LN177@process_re

; 4871 : 					{
; 4872 : 	
; 4873 : 						raw = (routed_vehicle *) get_local_entity_data (mb);

  02ce4	8b 85 94 fb ff
	ff		 mov	 eax, DWORD PTR _mb$52[ebp]
  02cea	8b 48 04	 mov	 ecx, DWORD PTR [eax+4]
  02ced	89 8d 90 fb ff
	ff		 mov	 DWORD PTR _raw$51[ebp], ecx

; 4874 : 		
; 4875 : 						raw->sub_route = sub_route_node;

  02cf3	8b 85 90 fb ff
	ff		 mov	 eax, DWORD PTR _raw$51[ebp]
  02cf9	8b 8d ac fb ff
	ff		 mov	 ecx, DWORD PTR _sub_route_node$58[ebp]
  02cff	89 88 80 01 00
	00		 mov	 DWORD PTR [eax+384], ecx
$LN177@process_re:

; 4876 : 					}
; 4877 : 	
; 4878 : 					#if DEBUG_MODULE_MESSAGE_TEXT
; 4879 : 	
; 4880 : 					debug_log ("EN_COMMS: received routed_vehicle %d route between %d and %d", get_local_entity_index (mb), raw->waypoint_this_index, raw->waypoint_next_index);
; 4881 : 	
; 4882 : 					#endif
; 4883 : 	
; 4884 : 					mb = get_local_entity_child_succ (mb, LIST_TYPE_MEMBER);

  02d05	83 bd 94 fb ff
	ff 00		 cmp	 DWORD PTR _mb$52[ebp], 0
  02d0c	74 10		 je	 SHORT $LN354@process_re
  02d0e	8b 85 94 fb ff
	ff		 mov	 eax, DWORD PTR _mb$52[ebp]
  02d14	8b 08		 mov	 ecx, DWORD PTR [eax]
  02d16	89 8d c0 f8 ff
	ff		 mov	 DWORD PTR tv1655[ebp], ecx
  02d1c	eb 27		 jmp	 SHORT $LN355@process_re
$LN354@process_re:
  02d1e	8b 15 00 00 00
	00		 mov	 edx, DWORD PTR ?__LINE__Var@?0??process_received_entity_comms_messages@@YGXXZ@4JA
  02d24	81 c2 ca 07 00
	00		 add	 edx, 1994		; 000007caH
  02d2a	52		 push	 edx
  02d2b	68 00 00 00 00	 push	 OFFSET ??_C@_0EO@OCMIKFBI@c?3?2users?2nhv90?2projects?2eech?2ap@
  02d30	a1 00 00 00 00	 mov	 eax, DWORD PTR ?null_entity_pointer_message@@3PBDB ; null_entity_pointer_message
  02d35	50		 push	 eax
  02d36	e8 00 00 00 00	 call	 ?process_assert@@YGXPBD0H@Z ; process_assert
  02d3b	c7 85 c0 f8 ff
	ff 00 00 00 00	 mov	 DWORD PTR tv1655[ebp], 0
$LN355@process_re:
  02d45	b9 01 00 00 00	 mov	 ecx, 1
  02d4a	85 c9		 test	 ecx, ecx
  02d4c	74 0c		 je	 SHORT $LN356@process_re
  02d4e	c7 85 bc f8 ff
	ff 19 00 00 00	 mov	 DWORD PTR tv1663[ebp], 25 ; 00000019H
  02d58	eb 27		 jmp	 SHORT $LN357@process_re
$LN356@process_re:
  02d5a	8b 15 00 00 00
	00		 mov	 edx, DWORD PTR ?__LINE__Var@?0??process_received_entity_comms_messages@@YGXXZ@4JA
  02d60	81 c2 ca 07 00
	00		 add	 edx, 1994		; 000007caH
  02d66	52		 push	 edx
  02d67	68 00 00 00 00	 push	 OFFSET ??_C@_0EO@OCMIKFBI@c?3?2users?2nhv90?2projects?2eech?2ap@
  02d6c	a1 00 00 00 00	 mov	 eax, DWORD PTR ?overload_invalid_list_type_message@@3PBDB ; overload_invalid_list_type_message
  02d71	50		 push	 eax
  02d72	e8 00 00 00 00	 call	 ?process_assert@@YGXPBD0H@Z ; process_assert
  02d77	c7 85 bc f8 ff
	ff 00 00 00 00	 mov	 DWORD PTR tv1663[ebp], 0
$LN357@process_re:
  02d81	6a 19		 push	 25			; 00000019H
  02d83	8b 8d 94 fb ff
	ff		 mov	 ecx, DWORD PTR _mb$52[ebp]
  02d89	51		 push	 ecx
  02d8a	69 95 c0 f8 ff
	ff b4 00 00 00	 imul	 edx, DWORD PTR tv1655[ebp], 180
  02d94	8b 85 bc f8 ff
	ff		 mov	 eax, DWORD PTR tv1663[ebp]
  02d9a	8b 8c 82 00 00
	00 00		 mov	 ecx, DWORD PTR ?fn_get_local_entity_child_succ@@3PAY0CN@P6GPAUENTITY@@PAU1@W4LIST_TYPES@@@ZA[edx+eax*4]
  02da1	ff d1		 call	 ecx
  02da3	89 85 94 fb ff
	ff		 mov	 DWORD PTR _mb$52[ebp], eax

; 4885 : 				}

  02da9	e9 28 fd ff ff	 jmp	 $LN32@process_re
$LN33@process_re:

; 4886 : 	
; 4887 : 				break;

  02dae	e9 c6 16 00 00	 jmp	 $LN4@process_re
$LN178@process_re:

; 4888 : 			}
; 4889 : 			////////////////////////////////////////
; 4890 : 			case ENTITY_COMMS_SEND_TARGET_LIST:
; 4891 : 			////////////////////////////////////////
; 4892 : 			{
; 4893 : 				entity
; 4894 : 					*en,
; 4895 : 					*destination;
; 4896 : 
; 4897 : 				int
; 4898 : 					loop,
; 4899 : 					*index_list,
; 4900 : 					target_count;
; 4901 : 
; 4902 : 				//
; 4903 : 				// (entity_comms_messages message, entity *en, entity *destination, int target_count, int index_list [target_count])
; 4904 : 				//
; 4905 : 
; 4906 : 				en = unpack_entity_safe_ptr ();

  02db3	e8 00 00 00 00	 call	 ?unpack_entity_safe_ptr@@YGPAUENTITY@@XZ ; unpack_entity_safe_ptr
  02db8	89 85 8c fb ff
	ff		 mov	 DWORD PTR _en$50[ebp], eax

; 4907 : 
; 4908 : 				ASSERT (en);

  02dbe	83 bd 8c fb ff
	ff 00		 cmp	 DWORD PTR _en$50[ebp], 0
  02dc5	75 1a		 jne	 SHORT $LN179@process_re
  02dc7	a1 00 00 00 00	 mov	 eax, DWORD PTR ?__LINE__Var@?0??process_received_entity_comms_messages@@YGXXZ@4JA
  02dcc	05 e2 07 00 00	 add	 eax, 2018		; 000007e2H
  02dd1	50		 push	 eax
  02dd2	68 00 00 00 00	 push	 OFFSET ??_C@_0EO@OCMIKFBI@c?3?2users?2nhv90?2projects?2eech?2ap@
  02dd7	68 00 00 00 00	 push	 OFFSET ??_C@_02LFNMGJAP@en@
  02ddc	e8 00 00 00 00	 call	 ?process_assert@@YGXPBD0H@Z ; process_assert
$LN179@process_re:

; 4909 : 
; 4910 : 				destination = unpack_entity_safe_ptr ();

  02de1	e8 00 00 00 00	 call	 ?unpack_entity_safe_ptr@@YGPAUENTITY@@XZ ; unpack_entity_safe_ptr
  02de6	89 85 88 fb ff
	ff		 mov	 DWORD PTR _destination$49[ebp], eax

; 4911 : 
; 4912 : 				ASSERT (destination);

  02dec	83 bd 88 fb ff
	ff 00		 cmp	 DWORD PTR _destination$49[ebp], 0
  02df3	75 1a		 jne	 SHORT $LN180@process_re
  02df5	a1 00 00 00 00	 mov	 eax, DWORD PTR ?__LINE__Var@?0??process_received_entity_comms_messages@@YGXXZ@4JA
  02dfa	05 e6 07 00 00	 add	 eax, 2022		; 000007e6H
  02dff	50		 push	 eax
  02e00	68 00 00 00 00	 push	 OFFSET ??_C@_0EO@OCMIKFBI@c?3?2users?2nhv90?2projects?2eech?2ap@
  02e05	68 00 00 00 00	 push	 OFFSET ??_C@_0M@BLMAJMLK@destination@
  02e0a	e8 00 00 00 00	 call	 ?process_assert@@YGXPBD0H@Z ; process_assert
$LN180@process_re:

; 4913 : 
; 4914 : 				target_count = unpack_int_value (en, INT_TYPE_HAND_OFF_TARGET_COUNT);

  02e0f	6a 52		 push	 82			; 00000052H
  02e11	8b 85 8c fb ff
	ff		 mov	 eax, DWORD PTR _en$50[ebp]
  02e17	50		 push	 eax
  02e18	e8 00 00 00 00	 call	 ?unpack_int_value@@YGHPAUENTITY@@W4INT_TYPES@@@Z ; unpack_int_value
  02e1d	89 85 7c fb ff
	ff		 mov	 DWORD PTR _target_count$46[ebp], eax

; 4915 : 
; 4916 : 				#if DEBUG_MODULE_MESSAGE_TEXT
; 4917 : 
; 4918 : 				debug_log ("EN_COMMS: received %d targets from %s (%d) to %s (%d)", target_count,
; 4919 : 								get_local_entity_string (en, STRING_TYPE_FULL_NAME), get_local_entity_index (en),
; 4920 : 								get_local_entity_string (destination, STRING_TYPE_FULL_NAME), get_local_entity_index (destination));
; 4921 : 
; 4922 : 				#endif
; 4923 : 
; 4924 : 				ASSERT (target_count > 0);

  02e23	83 bd 7c fb ff
	ff 00		 cmp	 DWORD PTR _target_count$46[ebp], 0
  02e2a	7f 1a		 jg	 SHORT $LN181@process_re
  02e2c	a1 00 00 00 00	 mov	 eax, DWORD PTR ?__LINE__Var@?0??process_received_entity_comms_messages@@YGXXZ@4JA
  02e31	05 f2 07 00 00	 add	 eax, 2034		; 000007f2H
  02e36	50		 push	 eax
  02e37	68 00 00 00 00	 push	 OFFSET ??_C@_0EO@OCMIKFBI@c?3?2users?2nhv90?2projects?2eech?2ap@
  02e3c	68 00 00 00 00	 push	 OFFSET ??_C@_0BB@OCHIJAA@target_count?5?$DO?50@
  02e41	e8 00 00 00 00	 call	 ?process_assert@@YGXPBD0H@Z ; process_assert
$LN181@process_re:

; 4925 : 
; 4926 : 				index_list = (int *) malloc_fast_mem (sizeof (int) * target_count);

  02e46	8b 85 7c fb ff
	ff		 mov	 eax, DWORD PTR _target_count$46[ebp]
  02e4c	c1 e0 02	 shl	 eax, 2
  02e4f	50		 push	 eax
  02e50	e8 00 00 00 00	 call	 ?malloc_fast_memory@@YGPAXI@Z ; malloc_fast_memory
  02e55	89 85 80 fb ff
	ff		 mov	 DWORD PTR _index_list$47[ebp], eax

; 4927 : 
; 4928 : 				for (loop = 0; loop < target_count; loop ++)

  02e5b	c7 85 84 fb ff
	ff 00 00 00 00	 mov	 DWORD PTR _loop$48[ebp], 0
  02e65	eb 0f		 jmp	 SHORT $LN36@process_re
$LN34@process_re:
  02e67	8b 85 84 fb ff
	ff		 mov	 eax, DWORD PTR _loop$48[ebp]
  02e6d	83 c0 01	 add	 eax, 1
  02e70	89 85 84 fb ff
	ff		 mov	 DWORD PTR _loop$48[ebp], eax
$LN36@process_re:
  02e76	8b 85 84 fb ff
	ff		 mov	 eax, DWORD PTR _loop$48[ebp]
  02e7c	3b 85 7c fb ff
	ff		 cmp	 eax, DWORD PTR _target_count$46[ebp]
  02e82	7d 16		 jge	 SHORT $LN35@process_re

; 4929 : 				{
; 4930 : 					index_list [loop] = unpack_entity_safe_index ();

  02e84	e8 00 00 00 00	 call	 ?unpack_entity_safe_index@@YGHXZ ; unpack_entity_safe_index
  02e89	8b 8d 84 fb ff
	ff		 mov	 ecx, DWORD PTR _loop$48[ebp]
  02e8f	8b 95 80 fb ff
	ff		 mov	 edx, DWORD PTR _index_list$47[ebp]
  02e95	89 04 8a	 mov	 DWORD PTR [edx+ecx*4], eax

; 4931 : 				}

  02e98	eb cd		 jmp	 SHORT $LN34@process_re
$LN35@process_re:

; 4932 : 
; 4933 : 				if (destination == get_gunship_entity ())

  02e9a	8b 85 88 fb ff
	ff		 mov	 eax, DWORD PTR _destination$49[ebp]
  02ea0	3b 05 00 00 00
	00		 cmp	 eax, DWORD PTR ?gunship_entity@@3PAUENTITY@@A ; gunship_entity
  02ea6	75 42		 jne	 SHORT $LN182@process_re

; 4934 : 				{
; 4935 : 					for (loop = 0; loop < target_count; loop ++)

  02ea8	c7 85 84 fb ff
	ff 00 00 00 00	 mov	 DWORD PTR _loop$48[ebp], 0
  02eb2	eb 0f		 jmp	 SHORT $LN39@process_re
$LN37@process_re:
  02eb4	8b 85 84 fb ff
	ff		 mov	 eax, DWORD PTR _loop$48[ebp]
  02eba	83 c0 01	 add	 eax, 1
  02ebd	89 85 84 fb ff
	ff		 mov	 DWORD PTR _loop$48[ebp], eax
$LN39@process_re:
  02ec3	8b 85 84 fb ff
	ff		 mov	 eax, DWORD PTR _loop$48[ebp]
  02ec9	3b 85 7c fb ff
	ff		 cmp	 eax, DWORD PTR _target_count$46[ebp]
  02ecf	7d 17		 jge	 SHORT $LN38@process_re

; 4936 : 					{
; 4937 : 						set_valid_gunship_target_safe_index (index_list [loop]);

  02ed1	8b 85 84 fb ff
	ff		 mov	 eax, DWORD PTR _loop$48[ebp]
  02ed7	8b 8d 80 fb ff
	ff		 mov	 ecx, DWORD PTR _index_list$47[ebp]
  02edd	8b 14 81	 mov	 edx, DWORD PTR [ecx+eax*4]
  02ee0	52		 push	 edx
  02ee1	e8 00 00 00 00	 call	 ?set_valid_gunship_target_safe_index@@YGXH@Z ; set_valid_gunship_target_safe_index

; 4938 : 					}

  02ee6	eb cc		 jmp	 SHORT $LN37@process_re
$LN38@process_re:

; 4939 : 				}
; 4940 : 				else

  02ee8	eb 3d		 jmp	 SHORT $LN184@process_re
$LN182@process_re:

; 4941 : 				{
; 4942 : 					//
; 4943 : 					// server needs to forward any messages on to clients
; 4944 : 					//
; 4945 : 
; 4946 : 					if (get_comms_model () == COMMS_MODEL_SERVER)

  02eea	83 3d 00 00 00
	00 00		 cmp	 DWORD PTR ?system_comms_model@@3W4COMMS_MODEL_TYPES@@A, 0 ; system_comms_model
  02ef1	75 34		 jne	 SHORT $LN184@process_re

; 4947 : 					{
; 4948 : 						set_comms_data_flow (COMMS_DATA_FLOW_TX);

  02ef3	6a 00		 push	 0
  02ef5	e8 00 00 00 00	 call	 ?set_comms_data_flow@@YGXW4COMMS_DATA_FLOW_TYPES@@@Z ; set_comms_data_flow

; 4949 : 
; 4950 : 						transmit_entity_comms_message (ENTITY_COMMS_SEND_TARGET_LIST, en, destination, target_count, index_list);

  02efa	8b 85 80 fb ff
	ff		 mov	 eax, DWORD PTR _index_list$47[ebp]
  02f00	50		 push	 eax
  02f01	8b 8d 7c fb ff
	ff		 mov	 ecx, DWORD PTR _target_count$46[ebp]
  02f07	51		 push	 ecx
  02f08	8b 95 88 fb ff
	ff		 mov	 edx, DWORD PTR _destination$49[ebp]
  02f0e	52		 push	 edx
  02f0f	8b 85 8c fb ff
	ff		 mov	 eax, DWORD PTR _en$50[ebp]
  02f15	50		 push	 eax
  02f16	6a 30		 push	 48			; 00000030H
  02f18	e8 00 00 00 00	 call	 ?transmit_entity_comms_message@@YAXW4ENTITY_COMMS_MESSAGES@@PAUENTITY@@ZZ ; transmit_entity_comms_message
  02f1d	83 c4 14	 add	 esp, 20			; 00000014H

; 4951 : 
; 4952 : 						set_comms_data_flow (COMMS_DATA_FLOW_RX);

  02f20	6a 01		 push	 1
  02f22	e8 00 00 00 00	 call	 ?set_comms_data_flow@@YGXW4COMMS_DATA_FLOW_TYPES@@@Z ; set_comms_data_flow
$LN184@process_re:

; 4953 : 					}
; 4954 : 				}
; 4955 : 
; 4956 : 				free_mem (index_list);

  02f27	8b 85 80 fb ff
	ff		 mov	 eax, DWORD PTR _index_list$47[ebp]
  02f2d	50		 push	 eax
  02f2e	e8 00 00 00 00	 call	 ?free_mem@@YGXPAX@Z	; free_mem

; 4957 : 
; 4958 : 				break;

  02f33	e9 41 15 00 00	 jmp	 $LN4@process_re
$LN185@process_re:

; 4959 : 			}
; 4960 : 			////////////////////////////////////////
; 4961 : 			case ENTITY_COMMS_SET_EXTERNAL_VIEW_ENTITY:
; 4962 : 			////////////////////////////////////////
; 4963 : 			{
; 4964 : 				//
; 4965 : 				// (entity_comms_messages message, entity *en)
; 4966 : 				//
; 4967 : 
; 4968 : 				entity
; 4969 : 					*en;
; 4970 : 
; 4971 : 				en = unpack_entity_safe_ptr ();

  02f38	e8 00 00 00 00	 call	 ?unpack_entity_safe_ptr@@YGPAUENTITY@@XZ ; unpack_entity_safe_ptr
  02f3d	89 85 78 fb ff
	ff		 mov	 DWORD PTR _en$45[ebp], eax

; 4972 : 
; 4973 : 				ASSERT (en);

  02f43	83 bd 78 fb ff
	ff 00		 cmp	 DWORD PTR _en$45[ebp], 0
  02f4a	75 1a		 jne	 SHORT $LN186@process_re
  02f4c	a1 00 00 00 00	 mov	 eax, DWORD PTR ?__LINE__Var@?0??process_received_entity_comms_messages@@YGXXZ@4JA
  02f51	05 23 08 00 00	 add	 eax, 2083		; 00000823H
  02f56	50		 push	 eax
  02f57	68 00 00 00 00	 push	 OFFSET ??_C@_0EO@OCMIKFBI@c?3?2users?2nhv90?2projects?2eech?2ap@
  02f5c	68 00 00 00 00	 push	 OFFSET ??_C@_02LFNMGJAP@en@
  02f61	e8 00 00 00 00	 call	 ?process_assert@@YGXPBD0H@Z ; process_assert
$LN186@process_re:

; 4974 : 
; 4975 : 				#if DEBUG_MODULE
; 4976 : 
; 4977 : 				debug_log ("EN_COMMS: sending set external view entity to %s (%d)", get_local_entity_string (en, STRING_TYPE_FULL_NAME), get_local_entity_index (en));
; 4978 : 
; 4979 : 				#endif
; 4980 : 
; 4981 : 				set_external_view_entity (en);

  02f66	8b 85 78 fb ff
	ff		 mov	 eax, DWORD PTR _en$45[ebp]
  02f6c	50		 push	 eax
  02f6d	e8 00 00 00 00	 call	 ?set_external_view_entity@@YGXPAUENTITY@@@Z ; set_external_view_entity

; 4982 : 
; 4983 : 				break;

  02f72	e9 02 15 00 00	 jmp	 $LN4@process_re
$LN187@process_re:

; 4984 : 			}
; 4985 : 			////////////////////////////////////////
; 4986 : 			case ENTITY_COMMS_SET_GUIDE_CRITERIA:
; 4987 : 			////////////////////////////////////////
; 4988 : 			{
; 4989 : 				//
; 4990 : 				// (entity_comms_messages message, entity *en, int type, int valid, float value)
; 4991 : 				//
; 4992 : 
; 4993 : 				entity
; 4994 : 					*en;
; 4995 : 	
; 4996 : 				int
; 4997 : 					type,
; 4998 : 					valid;
; 4999 : 	
; 5000 : 				float
; 5001 : 					value;
; 5002 : 	
; 5003 : 				en = unpack_entity_safe_ptr ();

  02f77	e8 00 00 00 00	 call	 ?unpack_entity_safe_ptr@@YGPAUENTITY@@XZ ; unpack_entity_safe_ptr
  02f7c	89 85 74 fb ff
	ff		 mov	 DWORD PTR _en$44[ebp], eax

; 5004 : 
; 5005 : 				ASSERT (en);

  02f82	83 bd 74 fb ff
	ff 00		 cmp	 DWORD PTR _en$44[ebp], 0
  02f89	75 1a		 jne	 SHORT $LN188@process_re
  02f8b	a1 00 00 00 00	 mov	 eax, DWORD PTR ?__LINE__Var@?0??process_received_entity_comms_messages@@YGXXZ@4JA
  02f90	05 43 08 00 00	 add	 eax, 2115		; 00000843H
  02f95	50		 push	 eax
  02f96	68 00 00 00 00	 push	 OFFSET ??_C@_0EO@OCMIKFBI@c?3?2users?2nhv90?2projects?2eech?2ap@
  02f9b	68 00 00 00 00	 push	 OFFSET ??_C@_02LFNMGJAP@en@
  02fa0	e8 00 00 00 00	 call	 ?process_assert@@YGXPBD0H@Z ; process_assert
$LN188@process_re:

; 5006 : 	
; 5007 : 				ASSERT (get_local_entity_type (en) == ENTITY_TYPE_GUIDE);

  02fa5	83 bd 74 fb ff
	ff 00		 cmp	 DWORD PTR _en$44[ebp], 0
  02fac	74 10		 je	 SHORT $LN358@process_re
  02fae	8b 85 74 fb ff
	ff		 mov	 eax, DWORD PTR _en$44[ebp]
  02fb4	8b 08		 mov	 ecx, DWORD PTR [eax]
  02fb6	89 8d c0 f8 ff
	ff		 mov	 DWORD PTR tv1763[ebp], ecx
  02fbc	eb 27		 jmp	 SHORT $LN359@process_re
$LN358@process_re:
  02fbe	8b 15 00 00 00
	00		 mov	 edx, DWORD PTR ?__LINE__Var@?0??process_received_entity_comms_messages@@YGXXZ@4JA
  02fc4	81 c2 45 08 00
	00		 add	 edx, 2117		; 00000845H
  02fca	52		 push	 edx
  02fcb	68 00 00 00 00	 push	 OFFSET ??_C@_0EO@OCMIKFBI@c?3?2users?2nhv90?2projects?2eech?2ap@
  02fd0	a1 00 00 00 00	 mov	 eax, DWORD PTR ?null_entity_pointer_message@@3PBDB ; null_entity_pointer_message
  02fd5	50		 push	 eax
  02fd6	e8 00 00 00 00	 call	 ?process_assert@@YGXPBD0H@Z ; process_assert
  02fdb	c7 85 c0 f8 ff
	ff 00 00 00 00	 mov	 DWORD PTR tv1763[ebp], 0
$LN359@process_re:
  02fe5	83 bd c0 f8 ff
	ff 0d		 cmp	 DWORD PTR tv1763[ebp], 13 ; 0000000dH
  02fec	74 1a		 je	 SHORT $LN189@process_re
  02fee	a1 00 00 00 00	 mov	 eax, DWORD PTR ?__LINE__Var@?0??process_received_entity_comms_messages@@YGXXZ@4JA
  02ff3	05 45 08 00 00	 add	 eax, 2117		; 00000845H
  02ff8	50		 push	 eax
  02ff9	68 00 00 00 00	 push	 OFFSET ??_C@_0EO@OCMIKFBI@c?3?2users?2nhv90?2projects?2eech?2ap@
  02ffe	68 00 00 00 00	 push	 OFFSET ??_C@_0DA@BGABFO@get_local_entity_type?5?$CIen?$CJ?5?$DN?$DN?5E@
  03003	e8 00 00 00 00	 call	 ?process_assert@@YGXPBD0H@Z ; process_assert
$LN189@process_re:

; 5008 : 
; 5009 : 				ASSERT (get_comms_model () == COMMS_MODEL_CLIENT);

  03008	83 3d 00 00 00
	00 01		 cmp	 DWORD PTR ?system_comms_model@@3W4COMMS_MODEL_TYPES@@A, 1 ; system_comms_model
  0300f	74 1a		 je	 SHORT $LN190@process_re
  03011	a1 00 00 00 00	 mov	 eax, DWORD PTR ?__LINE__Var@?0??process_received_entity_comms_messages@@YGXXZ@4JA
  03016	05 47 08 00 00	 add	 eax, 2119		; 00000847H
  0301b	50		 push	 eax
  0301c	68 00 00 00 00	 push	 OFFSET ??_C@_0EO@OCMIKFBI@c?3?2users?2nhv90?2projects?2eech?2ap@
  03021	68 00 00 00 00	 push	 OFFSET ??_C@_0CJ@HDFJMCJJ@get_comms_model?5?$CI?$CJ?5?$DN?$DN?5COMMS_MOD@
  03026	e8 00 00 00 00	 call	 ?process_assert@@YGXPBD0H@Z ; process_assert
$LN190@process_re:

; 5010 : 	
; 5011 : 				type = unpack_int_value (en, INT_TYPE_GUIDE_CRITERIA_TYPE);

  0302b	6a 4e		 push	 78			; 0000004eH
  0302d	8b 85 74 fb ff
	ff		 mov	 eax, DWORD PTR _en$44[ebp]
  03033	50		 push	 eax
  03034	e8 00 00 00 00	 call	 ?unpack_int_value@@YGHPAUENTITY@@W4INT_TYPES@@@Z ; unpack_int_value
  03039	89 85 70 fb ff
	ff		 mov	 DWORD PTR _type$43[ebp], eax

; 5012 : 
; 5013 : 				valid = unpack_int_value (en, INT_TYPE_VALID);

  0303f	68 ef 00 00 00	 push	 239			; 000000efH
  03044	8b 85 74 fb ff
	ff		 mov	 eax, DWORD PTR _en$44[ebp]
  0304a	50		 push	 eax
  0304b	e8 00 00 00 00	 call	 ?unpack_int_value@@YGHPAUENTITY@@W4INT_TYPES@@@Z ; unpack_int_value
  03050	89 85 6c fb ff
	ff		 mov	 DWORD PTR _valid$42[ebp], eax

; 5014 : 	
; 5015 : 				value = unpack_float_value (en, FLOAT_TYPE_GUIDE_CRITERIA_VALUE);

  03056	6a 33		 push	 51			; 00000033H
  03058	8b 85 74 fb ff
	ff		 mov	 eax, DWORD PTR _en$44[ebp]
  0305e	50		 push	 eax
  0305f	e8 00 00 00 00	 call	 ?unpack_float_value@@YGMPAUENTITY@@W4FLOAT_TYPES@@@Z ; unpack_float_value
  03064	d9 9d 68 fb ff
	ff		 fstp	 DWORD PTR _value$41[ebp]

; 5016 : 	
; 5017 : 				#if DEBUG_MODULE
; 5018 : 	
; 5019 : 				debug_log ("EN_COMMS: received set guide criteria for %d", get_local_entity_index (en));
; 5020 : 	
; 5021 : 				#endif
; 5022 : 	
; 5023 : 				set_local_guide_criteria_valid (en, (guide_criteria_types) type, valid, value);

  0306a	51		 push	 ecx
  0306b	f3 0f 10 85 68
	fb ff ff	 movss	 xmm0, DWORD PTR _value$41[ebp]
  03073	f3 0f 11 04 24	 movss	 DWORD PTR [esp], xmm0
  03078	8b 85 6c fb ff
	ff		 mov	 eax, DWORD PTR _valid$42[ebp]
  0307e	50		 push	 eax
  0307f	8b 8d 70 fb ff
	ff		 mov	 ecx, DWORD PTR _type$43[ebp]
  03085	51		 push	 ecx
  03086	8b 95 74 fb ff
	ff		 mov	 edx, DWORD PTR _en$44[ebp]
  0308c	52		 push	 edx
  0308d	e8 00 00 00 00	 call	 ?set_local_guide_criteria_valid@@YGXPAUENTITY@@W4GUIDE_CRITERIA_TYPES@@HM@Z ; set_local_guide_criteria_valid

; 5024 : 
; 5025 : 				break;

  03092	e9 e2 13 00 00	 jmp	 $LN4@process_re
$LN191@process_re:

; 5026 : 			}
; 5027 : 			////////////////////////////////////////
; 5028 : 			case ENTITY_COMMS_SET_GUIDE_POSITION_ENTITY:
; 5029 : 			////////////////////////////////////////
; 5030 : 			{
; 5031 : 				//
; 5032 : 				// (entity_comms_messages message, entity *en, entity *position_entity)
; 5033 : 				//
; 5034 : 
; 5035 : 				entity
; 5036 : 					*en,
; 5037 : 					*position_entity;
; 5038 : 	
; 5039 : 				en = unpack_entity_safe_ptr ();

  03097	e8 00 00 00 00	 call	 ?unpack_entity_safe_ptr@@YGPAUENTITY@@XZ ; unpack_entity_safe_ptr
  0309c	89 85 64 fb ff
	ff		 mov	 DWORD PTR _en$40[ebp], eax

; 5040 : 
; 5041 : 				ASSERT (en);

  030a2	83 bd 64 fb ff
	ff 00		 cmp	 DWORD PTR _en$40[ebp], 0
  030a9	75 1a		 jne	 SHORT $LN192@process_re
  030ab	a1 00 00 00 00	 mov	 eax, DWORD PTR ?__LINE__Var@?0??process_received_entity_comms_messages@@YGXXZ@4JA
  030b0	05 67 08 00 00	 add	 eax, 2151		; 00000867H
  030b5	50		 push	 eax
  030b6	68 00 00 00 00	 push	 OFFSET ??_C@_0EO@OCMIKFBI@c?3?2users?2nhv90?2projects?2eech?2ap@
  030bb	68 00 00 00 00	 push	 OFFSET ??_C@_02LFNMGJAP@en@
  030c0	e8 00 00 00 00	 call	 ?process_assert@@YGXPBD0H@Z ; process_assert
$LN192@process_re:

; 5042 : 	
; 5043 : 				ASSERT (get_local_entity_type (en) == ENTITY_TYPE_GUIDE);

  030c5	83 bd 64 fb ff
	ff 00		 cmp	 DWORD PTR _en$40[ebp], 0
  030cc	74 10		 je	 SHORT $LN360@process_re
  030ce	8b 85 64 fb ff
	ff		 mov	 eax, DWORD PTR _en$40[ebp]
  030d4	8b 08		 mov	 ecx, DWORD PTR [eax]
  030d6	89 8d c0 f8 ff
	ff		 mov	 DWORD PTR tv1799[ebp], ecx
  030dc	eb 27		 jmp	 SHORT $LN361@process_re
$LN360@process_re:
  030de	8b 15 00 00 00
	00		 mov	 edx, DWORD PTR ?__LINE__Var@?0??process_received_entity_comms_messages@@YGXXZ@4JA
  030e4	81 c2 69 08 00
	00		 add	 edx, 2153		; 00000869H
  030ea	52		 push	 edx
  030eb	68 00 00 00 00	 push	 OFFSET ??_C@_0EO@OCMIKFBI@c?3?2users?2nhv90?2projects?2eech?2ap@
  030f0	a1 00 00 00 00	 mov	 eax, DWORD PTR ?null_entity_pointer_message@@3PBDB ; null_entity_pointer_message
  030f5	50		 push	 eax
  030f6	e8 00 00 00 00	 call	 ?process_assert@@YGXPBD0H@Z ; process_assert
  030fb	c7 85 c0 f8 ff
	ff 00 00 00 00	 mov	 DWORD PTR tv1799[ebp], 0
$LN361@process_re:
  03105	83 bd c0 f8 ff
	ff 0d		 cmp	 DWORD PTR tv1799[ebp], 13 ; 0000000dH
  0310c	74 1a		 je	 SHORT $LN193@process_re
  0310e	a1 00 00 00 00	 mov	 eax, DWORD PTR ?__LINE__Var@?0??process_received_entity_comms_messages@@YGXXZ@4JA
  03113	05 69 08 00 00	 add	 eax, 2153		; 00000869H
  03118	50		 push	 eax
  03119	68 00 00 00 00	 push	 OFFSET ??_C@_0EO@OCMIKFBI@c?3?2users?2nhv90?2projects?2eech?2ap@
  0311e	68 00 00 00 00	 push	 OFFSET ??_C@_0DA@BGABFO@get_local_entity_type?5?$CIen?$CJ?5?$DN?$DN?5E@
  03123	e8 00 00 00 00	 call	 ?process_assert@@YGXPBD0H@Z ; process_assert
$LN193@process_re:

; 5044 : 
; 5045 : 				ASSERT (get_comms_model () == COMMS_MODEL_CLIENT);

  03128	83 3d 00 00 00
	00 01		 cmp	 DWORD PTR ?system_comms_model@@3W4COMMS_MODEL_TYPES@@A, 1 ; system_comms_model
  0312f	74 1a		 je	 SHORT $LN194@process_re
  03131	a1 00 00 00 00	 mov	 eax, DWORD PTR ?__LINE__Var@?0??process_received_entity_comms_messages@@YGXXZ@4JA
  03136	05 6b 08 00 00	 add	 eax, 2155		; 0000086bH
  0313b	50		 push	 eax
  0313c	68 00 00 00 00	 push	 OFFSET ??_C@_0EO@OCMIKFBI@c?3?2users?2nhv90?2projects?2eech?2ap@
  03141	68 00 00 00 00	 push	 OFFSET ??_C@_0CJ@HDFJMCJJ@get_comms_model?5?$CI?$CJ?5?$DN?$DN?5COMMS_MOD@
  03146	e8 00 00 00 00	 call	 ?process_assert@@YGXPBD0H@Z ; process_assert
$LN194@process_re:

; 5046 : 	
; 5047 : 				position_entity = unpack_entity_safe_ptr ();

  0314b	e8 00 00 00 00	 call	 ?unpack_entity_safe_ptr@@YGPAUENTITY@@XZ ; unpack_entity_safe_ptr
  03150	89 85 60 fb ff
	ff		 mov	 DWORD PTR _position_entity$39[ebp], eax

; 5048 : 
; 5049 : 				#if DEBUG_MODULE
; 5050 : 	
; 5051 : 				debug_log ("EN_COMMS: received set guide position entity for %d", get_local_entity_index (en));
; 5052 : 	
; 5053 : 				#endif
; 5054 : 	
; 5055 : 				set_local_entity_ptr_value (en, PTR_TYPE_POSITION_ENTITY, position_entity);

  03156	83 bd 64 fb ff
	ff 00		 cmp	 DWORD PTR _en$40[ebp], 0
  0315d	74 10		 je	 SHORT $LN362@process_re
  0315f	8b 85 64 fb ff
	ff		 mov	 eax, DWORD PTR _en$40[ebp]
  03165	8b 08		 mov	 ecx, DWORD PTR [eax]
  03167	89 8d c0 f8 ff
	ff		 mov	 DWORD PTR tv1817[ebp], ecx
  0316d	eb 27		 jmp	 SHORT $LN363@process_re
$LN362@process_re:
  0316f	8b 15 00 00 00
	00		 mov	 edx, DWORD PTR ?__LINE__Var@?0??process_received_entity_comms_messages@@YGXXZ@4JA
  03175	81 c2 75 08 00
	00		 add	 edx, 2165		; 00000875H
  0317b	52		 push	 edx
  0317c	68 00 00 00 00	 push	 OFFSET ??_C@_0EO@OCMIKFBI@c?3?2users?2nhv90?2projects?2eech?2ap@
  03181	a1 00 00 00 00	 mov	 eax, DWORD PTR ?null_entity_pointer_message@@3PBDB ; null_entity_pointer_message
  03186	50		 push	 eax
  03187	e8 00 00 00 00	 call	 ?process_assert@@YGXPBD0H@Z ; process_assert
  0318c	c7 85 c0 f8 ff
	ff 00 00 00 00	 mov	 DWORD PTR tv1817[ebp], 0
$LN363@process_re:
  03196	b9 01 00 00 00	 mov	 ecx, 1
  0319b	85 c9		 test	 ecx, ecx
  0319d	74 0c		 je	 SHORT $LN364@process_re
  0319f	c7 85 bc f8 ff
	ff 03 00 00 00	 mov	 DWORD PTR tv1857[ebp], 3
  031a9	eb 27		 jmp	 SHORT $LN365@process_re
$LN364@process_re:
  031ab	8b 15 00 00 00
	00		 mov	 edx, DWORD PTR ?__LINE__Var@?0??process_received_entity_comms_messages@@YGXXZ@4JA
  031b1	81 c2 75 08 00
	00		 add	 edx, 2165		; 00000875H
  031b7	52		 push	 edx
  031b8	68 00 00 00 00	 push	 OFFSET ??_C@_0EO@OCMIKFBI@c?3?2users?2nhv90?2projects?2eech?2ap@
  031bd	a1 00 00 00 00	 mov	 eax, DWORD PTR ?overload_invalid_ptr_type_message@@3PBDB ; overload_invalid_ptr_type_message
  031c2	50		 push	 eax
  031c3	e8 00 00 00 00	 call	 ?process_assert@@YGXPBD0H@Z ; process_assert
  031c8	c7 85 bc f8 ff
	ff 00 00 00 00	 mov	 DWORD PTR tv1857[ebp], 0
$LN365@process_re:
  031d2	8b 8d 60 fb ff
	ff		 mov	 ecx, DWORD PTR _position_entity$39[ebp]
  031d8	51		 push	 ecx
  031d9	6a 03		 push	 3
  031db	8b 95 64 fb ff
	ff		 mov	 edx, DWORD PTR _en$40[ebp]
  031e1	52		 push	 edx
  031e2	6b 85 c0 f8 ff
	ff 50		 imul	 eax, DWORD PTR tv1817[ebp], 80
  031e9	8b 8d bc f8 ff
	ff		 mov	 ecx, DWORD PTR tv1857[ebp]
  031ef	8b 94 88 00 00
	00 00		 mov	 edx, DWORD PTR ?fn_set_local_entity_ptr_value@@3PAY0BE@P6GXPAUENTITY@@W4PTR_TYPES@@PAX@ZA[eax+ecx*4]
  031f6	ff d2		 call	 edx

; 5056 : 
; 5057 : 				break;

  031f8	e9 7c 12 00 00	 jmp	 $LN4@process_re
$LN195@process_re:

; 5058 : 			}
; 5059 : 			////////////////////////////////////////
; 5060 : 			case ENTITY_COMMS_SET_TASK_POINTERS:
; 5061 : 			////////////////////////////////////////
; 5062 : 			{
; 5063 : 
; 5064 : 				entity
; 5065 : 					*en;
; 5066 : 
; 5067 : 				task
; 5068 : 					*raw;
; 5069 : 
; 5070 : 				unsigned int
; 5071 : 					loop;
; 5072 : 
; 5073 : 				//
; 5074 : 				// (entity_comms_messages message, entity *en)
; 5075 : 				//
; 5076 : 	
; 5077 : 				en = unpack_entity_safe_ptr ();

  031fd	e8 00 00 00 00	 call	 ?unpack_entity_safe_ptr@@YGPAUENTITY@@XZ ; unpack_entity_safe_ptr
  03202	89 85 5c fb ff
	ff		 mov	 DWORD PTR _en$38[ebp], eax

; 5078 : 	
; 5079 : 				raw = (task *) get_local_entity_data (en);

  03208	8b 85 5c fb ff
	ff		 mov	 eax, DWORD PTR _en$38[ebp]
  0320e	8b 48 04	 mov	 ecx, DWORD PTR [eax+4]
  03211	89 8d 58 fb ff
	ff		 mov	 DWORD PTR _raw$37[ebp], ecx

; 5080 : 
; 5081 : 				// malloc memory
; 5082 : 
; 5083 : 				raw->route_nodes = (vec3d *) malloc_heap_mem (sizeof (vec3d) * raw->route_length);

  03217	8b 85 58 fb ff
	ff		 mov	 eax, DWORD PTR _raw$37[ebp]
  0321d	8b 88 a4 00 00
	00		 mov	 ecx, DWORD PTR [eax+164]
  03223	c1 e9 10	 shr	 ecx, 16			; 00000010H
  03226	81 e1 ff ff 00
	00		 and	 ecx, 65535		; 0000ffffH
  0322c	6b d1 0c	 imul	 edx, ecx, 12
  0322f	52		 push	 edx
  03230	e8 00 00 00 00	 call	 ?malloc_heap_memory@@YGPAXI@Z ; malloc_heap_memory
  03235	8b 8d 58 fb ff
	ff		 mov	 ecx, DWORD PTR _raw$37[ebp]
  0323b	89 41 14	 mov	 DWORD PTR [ecx+20], eax

; 5084 : 				memset (raw->route_nodes, 0, sizeof (vec3d) * raw->route_length);

  0323e	8b 85 58 fb ff
	ff		 mov	 eax, DWORD PTR _raw$37[ebp]
  03244	8b 88 a4 00 00
	00		 mov	 ecx, DWORD PTR [eax+164]
  0324a	c1 e9 10	 shr	 ecx, 16			; 00000010H
  0324d	81 e1 ff ff 00
	00		 and	 ecx, 65535		; 0000ffffH
  03253	6b d1 0c	 imul	 edx, ecx, 12
  03256	52		 push	 edx
  03257	6a 00		 push	 0
  03259	8b 85 58 fb ff
	ff		 mov	 eax, DWORD PTR _raw$37[ebp]
  0325f	8b 48 14	 mov	 ecx, DWORD PTR [eax+20]
  03262	51		 push	 ecx
  03263	e8 00 00 00 00	 call	 _memset
  03268	83 c4 0c	 add	 esp, 12			; 0000000cH

; 5085 : 			
; 5086 : 				raw->route_dependents = (entity **) malloc_heap_mem (sizeof (entity *) * raw->route_length);

  0326b	8b 85 58 fb ff
	ff		 mov	 eax, DWORD PTR _raw$37[ebp]
  03271	8b 88 a4 00 00
	00		 mov	 ecx, DWORD PTR [eax+164]
  03277	c1 e9 10	 shr	 ecx, 16			; 00000010H
  0327a	81 e1 ff ff 00
	00		 and	 ecx, 65535		; 0000ffffH
  03280	c1 e1 02	 shl	 ecx, 2
  03283	51		 push	 ecx
  03284	e8 00 00 00 00	 call	 ?malloc_heap_memory@@YGPAXI@Z ; malloc_heap_memory
  03289	8b 95 58 fb ff
	ff		 mov	 edx, DWORD PTR _raw$37[ebp]
  0328f	89 42 34	 mov	 DWORD PTR [edx+52], eax

; 5087 : 				memset (raw->route_dependents, 0, sizeof (entity *) * raw->route_length);

  03292	8b 85 58 fb ff
	ff		 mov	 eax, DWORD PTR _raw$37[ebp]
  03298	8b 88 a4 00 00
	00		 mov	 ecx, DWORD PTR [eax+164]
  0329e	c1 e9 10	 shr	 ecx, 16			; 00000010H
  032a1	81 e1 ff ff 00
	00		 and	 ecx, 65535		; 0000ffffH
  032a7	c1 e1 02	 shl	 ecx, 2
  032aa	51		 push	 ecx
  032ab	6a 00		 push	 0
  032ad	8b 95 58 fb ff
	ff		 mov	 edx, DWORD PTR _raw$37[ebp]
  032b3	8b 42 34	 mov	 eax, DWORD PTR [edx+52]
  032b6	50		 push	 eax
  032b7	e8 00 00 00 00	 call	 _memset
  032bc	83 c4 0c	 add	 esp, 12			; 0000000cH

; 5088 : 			
; 5089 : 				raw->route_waypoint_types = (entity_sub_types *) malloc_heap_mem (sizeof (entity_sub_types) * raw->route_length);

  032bf	8b 85 58 fb ff
	ff		 mov	 eax, DWORD PTR _raw$37[ebp]
  032c5	8b 88 a4 00 00
	00		 mov	 ecx, DWORD PTR [eax+164]
  032cb	c1 e9 10	 shr	 ecx, 16			; 00000010H
  032ce	81 e1 ff ff 00
	00		 and	 ecx, 65535		; 0000ffffH
  032d4	c1 e1 02	 shl	 ecx, 2
  032d7	51		 push	 ecx
  032d8	e8 00 00 00 00	 call	 ?malloc_heap_memory@@YGPAXI@Z ; malloc_heap_memory
  032dd	8b 95 58 fb ff
	ff		 mov	 edx, DWORD PTR _raw$37[ebp]
  032e3	89 42 3c	 mov	 DWORD PTR [edx+60], eax

; 5090 : 				memset (raw->route_waypoint_types, 0, sizeof (entity_sub_types) * raw->route_length);

  032e6	8b 85 58 fb ff
	ff		 mov	 eax, DWORD PTR _raw$37[ebp]
  032ec	8b 88 a4 00 00
	00		 mov	 ecx, DWORD PTR [eax+164]
  032f2	c1 e9 10	 shr	 ecx, 16			; 00000010H
  032f5	81 e1 ff ff 00
	00		 and	 ecx, 65535		; 0000ffffH
  032fb	c1 e1 02	 shl	 ecx, 2
  032fe	51		 push	 ecx
  032ff	6a 00		 push	 0
  03301	8b 95 58 fb ff
	ff		 mov	 edx, DWORD PTR _raw$37[ebp]
  03307	8b 42 3c	 mov	 eax, DWORD PTR [edx+60]
  0330a	50		 push	 eax
  0330b	e8 00 00 00 00	 call	 _memset
  03310	83 c4 0c	 add	 esp, 12			; 0000000cH

; 5091 : 			
; 5092 : 				raw->route_formation_types = (formation_types *) malloc_heap_mem (sizeof (entity_sub_types) * raw->route_length);

  03313	8b 85 58 fb ff
	ff		 mov	 eax, DWORD PTR _raw$37[ebp]
  03319	8b 88 a4 00 00
	00		 mov	 ecx, DWORD PTR [eax+164]
  0331f	c1 e9 10	 shr	 ecx, 16			; 00000010H
  03322	81 e1 ff ff 00
	00		 and	 ecx, 65535		; 0000ffffH
  03328	c1 e1 02	 shl	 ecx, 2
  0332b	51		 push	 ecx
  0332c	e8 00 00 00 00	 call	 ?malloc_heap_memory@@YGPAXI@Z ; malloc_heap_memory
  03331	8b 95 58 fb ff
	ff		 mov	 edx, DWORD PTR _raw$37[ebp]
  03337	89 42 38	 mov	 DWORD PTR [edx+56], eax

; 5093 : 				memset (raw->route_formation_types, 0, sizeof (entity_sub_types) * raw->route_length);

  0333a	8b 85 58 fb ff
	ff		 mov	 eax, DWORD PTR _raw$37[ebp]
  03340	8b 88 a4 00 00
	00		 mov	 ecx, DWORD PTR [eax+164]
  03346	c1 e9 10	 shr	 ecx, 16			; 00000010H
  03349	81 e1 ff ff 00
	00		 and	 ecx, 65535		; 0000ffffH
  0334f	c1 e1 02	 shl	 ecx, 2
  03352	51		 push	 ecx
  03353	6a 00		 push	 0
  03355	8b 95 58 fb ff
	ff		 mov	 edx, DWORD PTR _raw$37[ebp]
  0335b	8b 42 38	 mov	 eax, DWORD PTR [edx+56]
  0335e	50		 push	 eax
  0335f	e8 00 00 00 00	 call	 _memset
  03364	83 c4 0c	 add	 esp, 12			; 0000000cH

; 5094 : 				
; 5095 : 				// positions
; 5096 : 	
; 5097 : 				for (loop = 0; loop < raw->route_length; loop ++)

  03367	c7 85 54 fb ff
	ff 00 00 00 00	 mov	 DWORD PTR _loop$36[ebp], 0
  03371	eb 0f		 jmp	 SHORT $LN42@process_re
$LN40@process_re:
  03373	8b 85 54 fb ff
	ff		 mov	 eax, DWORD PTR _loop$36[ebp]
  03379	83 c0 01	 add	 eax, 1
  0337c	89 85 54 fb ff
	ff		 mov	 DWORD PTR _loop$36[ebp], eax
$LN42@process_re:
  03382	8b 85 58 fb ff
	ff		 mov	 eax, DWORD PTR _raw$37[ebp]
  03388	8b 88 a4 00 00
	00		 mov	 ecx, DWORD PTR [eax+164]
  0338e	c1 e9 10	 shr	 ecx, 16			; 00000010H
  03391	81 e1 ff ff 00
	00		 and	 ecx, 65535		; 0000ffffH
  03397	39 8d 54 fb ff
	ff		 cmp	 DWORD PTR _loop$36[ebp], ecx
  0339d	73 21		 jae	 SHORT $LN41@process_re

; 5098 : 				{
; 5099 : 	
; 5100 : 					unpack_vec3d (en, VEC3D_TYPE_POSITION, &raw->route_nodes [loop]);

  0339f	6b 85 54 fb ff
	ff 0c		 imul	 eax, DWORD PTR _loop$36[ebp], 12
  033a6	8b 8d 58 fb ff
	ff		 mov	 ecx, DWORD PTR _raw$37[ebp]
  033ac	03 41 14	 add	 eax, DWORD PTR [ecx+20]
  033af	50		 push	 eax
  033b0	6a 08		 push	 8
  033b2	8b 95 5c fb ff
	ff		 mov	 edx, DWORD PTR _en$38[ebp]
  033b8	52		 push	 edx
  033b9	e8 00 00 00 00	 call	 ?unpack_vec3d@@YGXPAUENTITY@@W4VEC3D_TYPES@@PAUVEC3D@@@Z ; unpack_vec3d

; 5101 : 				}

  033be	eb b3		 jmp	 SHORT $LN40@process_re
$LN41@process_re:

; 5102 : 	
; 5103 : 				// formations
; 5104 : 	
; 5105 : 				for (loop = 0; loop < raw->route_length; loop ++)

  033c0	c7 85 54 fb ff
	ff 00 00 00 00	 mov	 DWORD PTR _loop$36[ebp], 0
  033ca	eb 0f		 jmp	 SHORT $LN45@process_re
$LN43@process_re:
  033cc	8b 85 54 fb ff
	ff		 mov	 eax, DWORD PTR _loop$36[ebp]
  033d2	83 c0 01	 add	 eax, 1
  033d5	89 85 54 fb ff
	ff		 mov	 DWORD PTR _loop$36[ebp], eax
$LN45@process_re:
  033db	8b 85 58 fb ff
	ff		 mov	 eax, DWORD PTR _raw$37[ebp]
  033e1	8b 88 a4 00 00
	00		 mov	 ecx, DWORD PTR [eax+164]
  033e7	c1 e9 10	 shr	 ecx, 16			; 00000010H
  033ea	81 e1 ff ff 00
	00		 and	 ecx, 65535		; 0000ffffH
  033f0	39 8d 54 fb ff
	ff		 cmp	 DWORD PTR _loop$36[ebp], ecx
  033f6	73 25		 jae	 SHORT $LN44@process_re

; 5106 : 				{
; 5107 : 
; 5108 : 					raw->route_formation_types [loop] = (formation_types) unpack_int_value (en, INT_TYPE_WAYPOINT_FORMATION);

  033f8	68 fe 00 00 00	 push	 254			; 000000feH
  033fd	8b 85 5c fb ff
	ff		 mov	 eax, DWORD PTR _en$38[ebp]
  03403	50		 push	 eax
  03404	e8 00 00 00 00	 call	 ?unpack_int_value@@YGHPAUENTITY@@W4INT_TYPES@@@Z ; unpack_int_value
  03409	8b 8d 58 fb ff
	ff		 mov	 ecx, DWORD PTR _raw$37[ebp]
  0340f	8b 51 38	 mov	 edx, DWORD PTR [ecx+56]
  03412	8b 8d 54 fb ff
	ff		 mov	 ecx, DWORD PTR _loop$36[ebp]
  03418	89 04 8a	 mov	 DWORD PTR [edx+ecx*4], eax

; 5109 : 				}

  0341b	eb af		 jmp	 SHORT $LN43@process_re
$LN44@process_re:

; 5110 : 	
; 5111 : 				// waypoint types
; 5112 : 	
; 5113 : 				for (loop = 0; loop < raw->route_length; loop ++)

  0341d	c7 85 54 fb ff
	ff 00 00 00 00	 mov	 DWORD PTR _loop$36[ebp], 0
  03427	eb 0f		 jmp	 SHORT $LN48@process_re
$LN46@process_re:
  03429	8b 85 54 fb ff
	ff		 mov	 eax, DWORD PTR _loop$36[ebp]
  0342f	83 c0 01	 add	 eax, 1
  03432	89 85 54 fb ff
	ff		 mov	 DWORD PTR _loop$36[ebp], eax
$LN48@process_re:
  03438	8b 85 58 fb ff
	ff		 mov	 eax, DWORD PTR _raw$37[ebp]
  0343e	8b 88 a4 00 00
	00		 mov	 ecx, DWORD PTR [eax+164]
  03444	c1 e9 10	 shr	 ecx, 16			; 00000010H
  03447	81 e1 ff ff 00
	00		 and	 ecx, 65535		; 0000ffffH
  0344d	39 8d 54 fb ff
	ff		 cmp	 DWORD PTR _loop$36[ebp], ecx
  03453	73 22		 jae	 SHORT $LN47@process_re

; 5114 : 				{
; 5115 : 
; 5116 : 					raw->route_waypoint_types [loop] = unpack_int_value (en, INT_TYPE_ENTITY_SUB_TYPE);

  03455	6a 34		 push	 52			; 00000034H
  03457	8b 85 5c fb ff
	ff		 mov	 eax, DWORD PTR _en$38[ebp]
  0345d	50		 push	 eax
  0345e	e8 00 00 00 00	 call	 ?unpack_int_value@@YGHPAUENTITY@@W4INT_TYPES@@@Z ; unpack_int_value
  03463	8b 8d 58 fb ff
	ff		 mov	 ecx, DWORD PTR _raw$37[ebp]
  03469	8b 51 3c	 mov	 edx, DWORD PTR [ecx+60]
  0346c	8b 8d 54 fb ff
	ff		 mov	 ecx, DWORD PTR _loop$36[ebp]
  03472	89 04 8a	 mov	 DWORD PTR [edx+ecx*4], eax

; 5117 : 				}

  03475	eb b2		 jmp	 SHORT $LN46@process_re
$LN47@process_re:

; 5118 : 	
; 5119 : 				// dependents
; 5120 : 	
; 5121 : 				for (loop = 0; loop < raw->route_length; loop ++)

  03477	c7 85 54 fb ff
	ff 00 00 00 00	 mov	 DWORD PTR _loop$36[ebp], 0
  03481	eb 0f		 jmp	 SHORT $LN51@process_re
$LN49@process_re:
  03483	8b 85 54 fb ff
	ff		 mov	 eax, DWORD PTR _loop$36[ebp]
  03489	83 c0 01	 add	 eax, 1
  0348c	89 85 54 fb ff
	ff		 mov	 DWORD PTR _loop$36[ebp], eax
$LN51@process_re:
  03492	8b 85 58 fb ff
	ff		 mov	 eax, DWORD PTR _raw$37[ebp]
  03498	8b 88 a4 00 00
	00		 mov	 ecx, DWORD PTR [eax+164]
  0349e	c1 e9 10	 shr	 ecx, 16			; 00000010H
  034a1	81 e1 ff ff 00
	00		 and	 ecx, 65535		; 0000ffffH
  034a7	39 8d 54 fb ff
	ff		 cmp	 DWORD PTR _loop$36[ebp], ecx
  034ad	73 2e		 jae	 SHORT $LN50@process_re

; 5122 : 				{
; 5123 : 
; 5124 : 					if (unpack_int_value (en, INT_TYPE_VALID))

  034af	68 ef 00 00 00	 push	 239			; 000000efH
  034b4	8b 85 5c fb ff
	ff		 mov	 eax, DWORD PTR _en$38[ebp]
  034ba	50		 push	 eax
  034bb	e8 00 00 00 00	 call	 ?unpack_int_value@@YGHPAUENTITY@@W4INT_TYPES@@@Z ; unpack_int_value
  034c0	85 c0		 test	 eax, eax
  034c2	74 17		 je	 SHORT $LN196@process_re

; 5125 : 					{
; 5126 : 	
; 5127 : 						raw->route_dependents [loop] = unpack_entity_safe_ptr ();

  034c4	e8 00 00 00 00	 call	 ?unpack_entity_safe_ptr@@YGPAUENTITY@@XZ ; unpack_entity_safe_ptr
  034c9	8b 8d 58 fb ff
	ff		 mov	 ecx, DWORD PTR _raw$37[ebp]
  034cf	8b 51 34	 mov	 edx, DWORD PTR [ecx+52]
  034d2	8b 8d 54 fb ff
	ff		 mov	 ecx, DWORD PTR _loop$36[ebp]
  034d8	89 04 8a	 mov	 DWORD PTR [edx+ecx*4], eax
$LN196@process_re:

; 5128 : 					}
; 5129 : 				}

  034db	eb a6		 jmp	 SHORT $LN49@process_re
$LN50@process_re:

; 5130 : 	
; 5131 : 				// return keysite
; 5132 : 	
; 5133 : 				raw->return_keysite = unpack_entity_safe_ptr ();

  034dd	e8 00 00 00 00	 call	 ?unpack_entity_safe_ptr@@YGPAUENTITY@@XZ ; unpack_entity_safe_ptr
  034e2	8b 8d 58 fb ff
	ff		 mov	 ecx, DWORD PTR _raw$37[ebp]
  034e8	89 41 30	 mov	 DWORD PTR [ecx+48], eax

; 5134 : 	
; 5135 : 				#if DEBUG_MODULE
; 5136 : 	
; 5137 : 				debug_log ("EN_COMMS: received set task pointers entity %s %d", get_local_entity_string (en, STRING_TYPE_FULL_NAME), get_local_entity_index (en));
; 5138 : 	
; 5139 : 				#endif
; 5140 : 	
; 5141 : 				break;

  034eb	e9 89 0f 00 00	 jmp	 $LN4@process_re
$LN197@process_re:

; 5142 : 			}
; 5143 : 			////////////////////////////////////////
; 5144 : 			case ENTITY_COMMS_SET_WAYPOINT:
; 5145 : 			////////////////////////////////////////
; 5146 : 			{
; 5147 : 				//
; 5148 : 				// (entity_comms_messages message, entity *en, entity *wp)
; 5149 : 				//
; 5150 : 
; 5151 : 				entity
; 5152 : 					*en,
; 5153 : 					*wp;
; 5154 : 	
; 5155 : 				en = unpack_entity_safe_ptr ();

  034f0	e8 00 00 00 00	 call	 ?unpack_entity_safe_ptr@@YGPAUENTITY@@XZ ; unpack_entity_safe_ptr
  034f5	89 85 50 fb ff
	ff		 mov	 DWORD PTR _en$35[ebp], eax

; 5156 : 
; 5157 : 				wp = unpack_entity_safe_ptr ();

  034fb	e8 00 00 00 00	 call	 ?unpack_entity_safe_ptr@@YGPAUENTITY@@XZ ; unpack_entity_safe_ptr
  03500	89 85 4c fb ff
	ff		 mov	 DWORD PTR _wp$34[ebp], eax

; 5158 : 
; 5159 : 				ASSERT (en);

  03506	83 bd 50 fb ff
	ff 00		 cmp	 DWORD PTR _en$35[ebp], 0
  0350d	75 1a		 jne	 SHORT $LN198@process_re
  0350f	a1 00 00 00 00	 mov	 eax, DWORD PTR ?__LINE__Var@?0??process_received_entity_comms_messages@@YGXXZ@4JA
  03514	05 dd 08 00 00	 add	 eax, 2269		; 000008ddH
  03519	50		 push	 eax
  0351a	68 00 00 00 00	 push	 OFFSET ??_C@_0EO@OCMIKFBI@c?3?2users?2nhv90?2projects?2eech?2ap@
  0351f	68 00 00 00 00	 push	 OFFSET ??_C@_02LFNMGJAP@en@
  03524	e8 00 00 00 00	 call	 ?process_assert@@YGXPBD0H@Z ; process_assert
$LN198@process_re:

; 5160 : 	
; 5161 : 				ASSERT (get_local_entity_type (en) == ENTITY_TYPE_GUIDE);

  03529	83 bd 50 fb ff
	ff 00		 cmp	 DWORD PTR _en$35[ebp], 0
  03530	74 10		 je	 SHORT $LN366@process_re
  03532	8b 85 50 fb ff
	ff		 mov	 eax, DWORD PTR _en$35[ebp]
  03538	8b 08		 mov	 ecx, DWORD PTR [eax]
  0353a	89 8d c0 f8 ff
	ff		 mov	 DWORD PTR tv1986[ebp], ecx
  03540	eb 27		 jmp	 SHORT $LN367@process_re
$LN366@process_re:
  03542	8b 15 00 00 00
	00		 mov	 edx, DWORD PTR ?__LINE__Var@?0??process_received_entity_comms_messages@@YGXXZ@4JA
  03548	81 c2 df 08 00
	00		 add	 edx, 2271		; 000008dfH
  0354e	52		 push	 edx
  0354f	68 00 00 00 00	 push	 OFFSET ??_C@_0EO@OCMIKFBI@c?3?2users?2nhv90?2projects?2eech?2ap@
  03554	a1 00 00 00 00	 mov	 eax, DWORD PTR ?null_entity_pointer_message@@3PBDB ; null_entity_pointer_message
  03559	50		 push	 eax
  0355a	e8 00 00 00 00	 call	 ?process_assert@@YGXPBD0H@Z ; process_assert
  0355f	c7 85 c0 f8 ff
	ff 00 00 00 00	 mov	 DWORD PTR tv1986[ebp], 0
$LN367@process_re:
  03569	83 bd c0 f8 ff
	ff 0d		 cmp	 DWORD PTR tv1986[ebp], 13 ; 0000000dH
  03570	74 1a		 je	 SHORT $LN199@process_re
  03572	a1 00 00 00 00	 mov	 eax, DWORD PTR ?__LINE__Var@?0??process_received_entity_comms_messages@@YGXXZ@4JA
  03577	05 df 08 00 00	 add	 eax, 2271		; 000008dfH
  0357c	50		 push	 eax
  0357d	68 00 00 00 00	 push	 OFFSET ??_C@_0EO@OCMIKFBI@c?3?2users?2nhv90?2projects?2eech?2ap@
  03582	68 00 00 00 00	 push	 OFFSET ??_C@_0DA@BGABFO@get_local_entity_type?5?$CIen?$CJ?5?$DN?$DN?5E@
  03587	e8 00 00 00 00	 call	 ?process_assert@@YGXPBD0H@Z ; process_assert
$LN199@process_re:

; 5162 : 
; 5163 : 				ASSERT (get_comms_model () == COMMS_MODEL_SERVER);

  0358c	83 3d 00 00 00
	00 00		 cmp	 DWORD PTR ?system_comms_model@@3W4COMMS_MODEL_TYPES@@A, 0 ; system_comms_model
  03593	74 1a		 je	 SHORT $LN200@process_re
  03595	a1 00 00 00 00	 mov	 eax, DWORD PTR ?__LINE__Var@?0??process_received_entity_comms_messages@@YGXXZ@4JA
  0359a	05 e1 08 00 00	 add	 eax, 2273		; 000008e1H
  0359f	50		 push	 eax
  035a0	68 00 00 00 00	 push	 OFFSET ??_C@_0EO@OCMIKFBI@c?3?2users?2nhv90?2projects?2eech?2ap@
  035a5	68 00 00 00 00	 push	 OFFSET ??_C@_0CJ@DMBLBJBK@get_comms_model?5?$CI?$CJ?5?$DN?$DN?5COMMS_MOD@
  035aa	e8 00 00 00 00	 call	 ?process_assert@@YGXPBD0H@Z ; process_assert
$LN200@process_re:

; 5164 : 
; 5165 : 				#if DEBUG_MODULE
; 5166 : 	
; 5167 : 				debug_log ("EN_COMMS: received set waypoint");
; 5168 : 	
; 5169 : 				#endif
; 5170 : 	
; 5171 : 				set_guide_new_waypoint (en, wp);

  035af	8b 85 4c fb ff
	ff		 mov	 eax, DWORD PTR _wp$34[ebp]
  035b5	50		 push	 eax
  035b6	8b 8d 50 fb ff
	ff		 mov	 ecx, DWORD PTR _en$35[ebp]
  035bc	51		 push	 ecx
  035bd	e8 00 00 00 00	 call	 ?set_guide_new_waypoint@@YGHPAUENTITY@@0@Z ; set_guide_new_waypoint

; 5172 : 
; 5173 : 				break;

  035c2	e9 b2 0e 00 00	 jmp	 $LN4@process_re
$LN201@process_re:

; 5174 : 			}
; 5175 : 			////////////////////////////////////////
; 5176 : 			case ENTITY_COMMS_STRING:
; 5177 : 			////////////////////////////////////////
; 5178 : 			{
; 5179 : 				entity
; 5180 : 					*en;
; 5181 : 
; 5182 : 				string_types
; 5183 : 					type;
; 5184 : 
; 5185 : 				char
; 5186 : 					s[STRING_TYPE_MAX_LENGTH+1];
; 5187 : 
; 5188 : 				en = unpack_entity_safe_ptr ();

  035c7	e8 00 00 00 00	 call	 ?unpack_entity_safe_ptr@@YGPAUENTITY@@XZ ; unpack_entity_safe_ptr
  035cc	89 85 48 fb ff
	ff		 mov	 DWORD PTR _en$33[ebp], eax

; 5189 : 
; 5190 : 				type = unpack_string_type ();

  035d2	e8 00 00 00 00	 call	 ?unpack_string_type@@YG?AW4STRING_TYPES@@XZ ; unpack_string_type
  035d7	89 85 44 fb ff
	ff		 mov	 DWORD PTR _type$32[ebp], eax

; 5191 : 
; 5192 : 				unpack_string (en, type, s);

  035dd	8d 85 44 fa ff
	ff		 lea	 eax, DWORD PTR _s$31[ebp]
  035e3	50		 push	 eax
  035e4	8b 8d 44 fb ff
	ff		 mov	 ecx, DWORD PTR _type$32[ebp]
  035ea	51		 push	 ecx
  035eb	8b 95 48 fb ff
	ff		 mov	 edx, DWORD PTR _en$33[ebp]
  035f1	52		 push	 edx
  035f2	e8 00 00 00 00	 call	 ?unpack_string@@YGXPAUENTITY@@W4STRING_TYPES@@PAD@Z ; unpack_string

; 5193 : 
; 5194 : 				set_client_server_entity_string (en, type, s);

  035f7	83 bd 48 fb ff
	ff 00		 cmp	 DWORD PTR _en$33[ebp], 0
  035fe	74 10		 je	 SHORT $LN368@process_re
  03600	8b 85 48 fb ff
	ff		 mov	 eax, DWORD PTR _en$33[ebp]
  03606	8b 08		 mov	 ecx, DWORD PTR [eax]
  03608	89 8d c0 f8 ff
	ff		 mov	 DWORD PTR tv2010[ebp], ecx
  0360e	eb 27		 jmp	 SHORT $LN369@process_re
$LN368@process_re:
  03610	8b 15 00 00 00
	00		 mov	 edx, DWORD PTR ?__LINE__Var@?0??process_received_entity_comms_messages@@YGXXZ@4JA
  03616	81 c2 00 09 00
	00		 add	 edx, 2304		; 00000900H
  0361c	52		 push	 edx
  0361d	68 00 00 00 00	 push	 OFFSET ??_C@_0EO@OCMIKFBI@c?3?2users?2nhv90?2projects?2eech?2ap@
  03622	a1 00 00 00 00	 mov	 eax, DWORD PTR ?null_entity_pointer_message@@3PBDB ; null_entity_pointer_message
  03627	50		 push	 eax
  03628	e8 00 00 00 00	 call	 ?process_assert@@YGXPBD0H@Z ; process_assert
  0362d	c7 85 c0 f8 ff
	ff 00 00 00 00	 mov	 DWORD PTR tv2010[ebp], 0
$LN369@process_re:
  03637	83 bd 44 fb ff
	ff 00		 cmp	 DWORD PTR _type$32[ebp], 0
  0363e	7c 17		 jl	 SHORT $LN370@process_re
  03640	83 bd 44 fb ff
	ff 0d		 cmp	 DWORD PTR _type$32[ebp], 13 ; 0000000dH
  03647	7d 0e		 jge	 SHORT $LN370@process_re
  03649	8b 8d 44 fb ff
	ff		 mov	 ecx, DWORD PTR _type$32[ebp]
  0364f	89 8d bc f8 ff
	ff		 mov	 DWORD PTR tv2019[ebp], ecx
  03655	eb 27		 jmp	 SHORT $LN371@process_re
$LN370@process_re:
  03657	8b 15 00 00 00
	00		 mov	 edx, DWORD PTR ?__LINE__Var@?0??process_received_entity_comms_messages@@YGXXZ@4JA
  0365d	81 c2 00 09 00
	00		 add	 edx, 2304		; 00000900H
  03663	52		 push	 edx
  03664	68 00 00 00 00	 push	 OFFSET ??_C@_0EO@OCMIKFBI@c?3?2users?2nhv90?2projects?2eech?2ap@
  03669	a1 00 00 00 00	 mov	 eax, DWORD PTR ?overload_invalid_string_type_message@@3PBDB ; overload_invalid_string_type_message
  0366e	50		 push	 eax
  0366f	e8 00 00 00 00	 call	 ?process_assert@@YGXPBD0H@Z ; process_assert
  03674	c7 85 bc f8 ff
	ff 00 00 00 00	 mov	 DWORD PTR tv2019[ebp], 0
$LN371@process_re:
  0367e	8d 8d 44 fa ff
	ff		 lea	 ecx, DWORD PTR _s$31[ebp]
  03684	51		 push	 ecx
  03685	8b 95 44 fb ff
	ff		 mov	 edx, DWORD PTR _type$32[ebp]
  0368b	52		 push	 edx
  0368c	8b 85 48 fb ff
	ff		 mov	 eax, DWORD PTR _en$33[ebp]
  03692	50		 push	 eax
  03693	6b 8d c0 f8 ff
	ff 68		 imul	 ecx, DWORD PTR tv2010[ebp], 104
  0369a	8b 95 bc f8 ff
	ff		 mov	 edx, DWORD PTR tv2019[ebp]
  036a0	8d 84 d1 00 00
	00 00		 lea	 eax, DWORD PTR ?fn_set_client_server_entity_string@@3PAY1N@1P6GXPAUENTITY@@W4STRING_TYPES@@PBD@ZA[ecx+edx*8]
  036a7	8b 0d 00 00 00
	00		 mov	 ecx, DWORD PTR ?system_comms_model@@3W4COMMS_MODEL_TYPES@@A ; system_comms_model
  036ad	8b 14 88	 mov	 edx, DWORD PTR [eax+ecx*4]
  036b0	ff d2		 call	 edx

; 5195 : 
; 5196 : 				#if DEBUG_MODULE_MESSAGE_TEXT
; 5197 : 
; 5198 : 				debug_log ("EN_COMMS: received string %s for %s (%d)", s, get_local_entity_type_name (en), get_local_entity_index (en));
; 5199 : 
; 5200 : 				#endif
; 5201 : 
; 5202 : 				break;

  036b2	e9 c2 0d 00 00	 jmp	 $LN4@process_re
$LN202@process_re:

; 5203 : 			}
; 5204 : 			////////////////////////////////////////
; 5205 : 			case ENTITY_COMMS_SWITCH_LIST:
; 5206 : 			////////////////////////////////////////
; 5207 : 			{
; 5208 : 				entity
; 5209 : 					*en,
; 5210 : 					*parent;
; 5211 : 
; 5212 : 				list_types
; 5213 : 					type1,
; 5214 : 					type2;
; 5215 : 
; 5216 : 				en = unpack_entity_safe_ptr ();

  036b7	e8 00 00 00 00	 call	 ?unpack_entity_safe_ptr@@YGPAUENTITY@@XZ ; unpack_entity_safe_ptr
  036bc	89 85 40 fa ff
	ff		 mov	 DWORD PTR _en$30[ebp], eax

; 5217 : 
; 5218 : 				type1 = unpack_list_type ();

  036c2	e8 00 00 00 00	 call	 ?unpack_list_type@@YG?AW4LIST_TYPES@@XZ ; unpack_list_type
  036c7	89 85 38 fa ff
	ff		 mov	 DWORD PTR _type1$28[ebp], eax

; 5219 : 
; 5220 : 				parent = unpack_entity_safe_ptr ();

  036cd	e8 00 00 00 00	 call	 ?unpack_entity_safe_ptr@@YGPAUENTITY@@XZ ; unpack_entity_safe_ptr
  036d2	89 85 3c fa ff
	ff		 mov	 DWORD PTR _parent$29[ebp], eax

; 5221 : 
; 5222 : 				type2 = unpack_list_type ();

  036d8	e8 00 00 00 00	 call	 ?unpack_list_type@@YG?AW4LIST_TYPES@@XZ ; unpack_list_type
  036dd	89 85 34 fa ff
	ff		 mov	 DWORD PTR _type2$27[ebp], eax

; 5223 : 
; 5224 : 				delete_local_entity_from_parents_child_list (en, type1);

  036e3	8b 85 38 fa ff
	ff		 mov	 eax, DWORD PTR _type1$28[ebp]
  036e9	50		 push	 eax
  036ea	8b 8d 40 fa ff
	ff		 mov	 ecx, DWORD PTR _en$30[ebp]
  036f0	51		 push	 ecx
  036f1	e8 00 00 00 00	 call	 ?delete_local_entity_from_parents_child_list@@YGXPAUENTITY@@W4LIST_TYPES@@@Z ; delete_local_entity_from_parents_child_list

; 5225 : 
; 5226 : 				if (parent)

  036f6	83 bd 3c fa ff
	ff 00		 cmp	 DWORD PTR _parent$29[ebp], 0
  036fd	74 1c		 je	 SHORT $LN203@process_re

; 5227 : 				{
; 5228 : 
; 5229 : 					#if DEBUG_MODULE_MESSAGE_TEXT
; 5230 : 
; 5231 : 					debug_log ("EN_COMMS: received switch list for %s (%d) list %s to list %s (parent %s (%d))",
; 5232 : 								get_local_entity_type_name (en), get_local_entity_index (en), get_list_type_name (type1),
; 5233 : 								get_list_type_name (type2), get_local_entity_type_name (parent), get_local_entity_index (en));
; 5234 : 
; 5235 : 					#endif
; 5236 : 
; 5237 : 					insert_local_entity_into_parents_child_list (en, type2, parent, NULL);

  036ff	6a 00		 push	 0
  03701	8b 85 3c fa ff
	ff		 mov	 eax, DWORD PTR _parent$29[ebp]
  03707	50		 push	 eax
  03708	8b 8d 34 fa ff
	ff		 mov	 ecx, DWORD PTR _type2$27[ebp]
  0370e	51		 push	 ecx
  0370f	8b 95 40 fa ff
	ff		 mov	 edx, DWORD PTR _en$30[ebp]
  03715	52		 push	 edx
  03716	e8 00 00 00 00	 call	 ?insert_local_entity_into_parents_child_list@@YGXPAUENTITY@@W4LIST_TYPES@@00@Z ; insert_local_entity_into_parents_child_list
$LN203@process_re:

; 5238 : 				}
; 5239 : 				else
; 5240 : 				{
; 5241 : 
; 5242 : 					#if DEBUG_MODULE_MESSAGE_TEXT
; 5243 : 
; 5244 : 					debug_log ("EN_COMMS: received switch list for %s (%d) list %s to no list",
; 5245 : 								get_local_entity_type_name (en), get_local_entity_index (en), get_list_type_name (type1));
; 5246 : 
; 5247 : 					#endif
; 5248 : 				}
; 5249 : 
; 5250 : 				break;

  0371b	e9 59 0d 00 00	 jmp	 $LN4@process_re
$LN205@process_re:

; 5251 : 			}
; 5252 : 			////////////////////////////////////////
; 5253 : 			case ENTITY_COMMS_SWITCH_PARENT:
; 5254 : 			////////////////////////////////////////
; 5255 : 			{
; 5256 : 				entity
; 5257 : 					*en,
; 5258 : 					*parent;
; 5259 : 
; 5260 : 				list_types
; 5261 : 					type;
; 5262 : 
; 5263 : 				en = unpack_entity_safe_ptr ();

  03720	e8 00 00 00 00	 call	 ?unpack_entity_safe_ptr@@YGPAUENTITY@@XZ ; unpack_entity_safe_ptr
  03725	89 85 30 fa ff
	ff		 mov	 DWORD PTR _en$26[ebp], eax

; 5264 : 
; 5265 : 				type = unpack_list_type ();

  0372b	e8 00 00 00 00	 call	 ?unpack_list_type@@YG?AW4LIST_TYPES@@XZ ; unpack_list_type
  03730	89 85 28 fa ff
	ff		 mov	 DWORD PTR _type$24[ebp], eax

; 5266 : 
; 5267 : 				parent = unpack_entity_safe_ptr ();

  03736	e8 00 00 00 00	 call	 ?unpack_entity_safe_ptr@@YGPAUENTITY@@XZ ; unpack_entity_safe_ptr
  0373b	89 85 2c fa ff
	ff		 mov	 DWORD PTR _parent$25[ebp], eax

; 5268 : 
; 5269 : 				set_client_server_entity_parent (en, type, parent);

  03741	8b 85 2c fa ff
	ff		 mov	 eax, DWORD PTR _parent$25[ebp]
  03747	50		 push	 eax
  03748	8b 8d 28 fa ff
	ff		 mov	 ecx, DWORD PTR _type$24[ebp]
  0374e	51		 push	 ecx
  0374f	8b 95 30 fa ff
	ff		 mov	 edx, DWORD PTR _en$26[ebp]
  03755	52		 push	 edx
  03756	e8 00 00 00 00	 call	 ?set_client_server_entity_parent@@YGXPAUENTITY@@W4LIST_TYPES@@0@Z ; set_client_server_entity_parent

; 5270 : 
; 5271 : 				//
; 5272 : 				// add radar_swept targets to map
; 5273 : 				//
; 5274 : /*
; 5275 : 				if ((type == LIST_TYPE_TARGET) || (type == LIST_TYPE_GUNSHIP_TARGET))
; 5276 : 				{
; 5277 : 
; 5278 : 					if (get_local_entity_int_value (en, INT_TYPE_SIDE) == get_global_gunship_side ())
; 5279 : 					{
; 5280 : 
; 5281 : 						set_planner_icon_update (parent, FALSE);
; 5282 : 					}
; 5283 : 				}
; 5284 : */
; 5285 : 				#if DEBUG_MODULE_MESSAGE_TEXT
; 5286 : 
; 5287 : 				debug_log ("EN_COMMS: received switch list %s parent for %s (%d)",
; 5288 : 								get_list_type_name (type),
; 5289 : 								get_local_entity_type_name (en), get_local_entity_index (en));
; 5290 : 
; 5291 : 				#endif
; 5292 : 
; 5293 : 				break;

  0375b	e9 19 0d 00 00	 jmp	 $LN4@process_re
$LN206@process_re:

; 5294 : 			}
; 5295 : 			////////////////////////////////////////
; 5296 : 			case ENTITY_COMMS_TASK_ASSIGN_REQUEST:
; 5297 : 			////////////////////////////////////////
; 5298 : 			{
; 5299 : 				//
; 5300 : 				// (entity_comms_messages message, entity *en (pilot_entity), entity *task, entity *mobile)
; 5301 : 				//
; 5302 : 
; 5303 : 				entity
; 5304 : 					*en,
; 5305 : 					*mobile,
; 5306 : 					*task;
; 5307 : 
; 5308 : 				ASSERT (get_comms_model () == COMMS_MODEL_SERVER);

  03760	83 3d 00 00 00
	00 00		 cmp	 DWORD PTR ?system_comms_model@@3W4COMMS_MODEL_TYPES@@A, 0 ; system_comms_model
  03767	74 1a		 je	 SHORT $LN207@process_re
  03769	a1 00 00 00 00	 mov	 eax, DWORD PTR ?__LINE__Var@?0??process_received_entity_comms_messages@@YGXXZ@4JA
  0376e	05 72 09 00 00	 add	 eax, 2418		; 00000972H
  03773	50		 push	 eax
  03774	68 00 00 00 00	 push	 OFFSET ??_C@_0EO@OCMIKFBI@c?3?2users?2nhv90?2projects?2eech?2ap@
  03779	68 00 00 00 00	 push	 OFFSET ??_C@_0CJ@DMBLBJBK@get_comms_model?5?$CI?$CJ?5?$DN?$DN?5COMMS_MOD@
  0377e	e8 00 00 00 00	 call	 ?process_assert@@YGXPBD0H@Z ; process_assert
$LN207@process_re:

; 5309 : 
; 5310 : 				en = unpack_entity_safe_ptr ();

  03783	e8 00 00 00 00	 call	 ?unpack_entity_safe_ptr@@YGPAUENTITY@@XZ ; unpack_entity_safe_ptr
  03788	89 85 24 fa ff
	ff		 mov	 DWORD PTR _en$23[ebp], eax

; 5311 : 
; 5312 : 				ASSERT (get_local_entity_type (en) == ENTITY_TYPE_PILOT);

  0378e	83 bd 24 fa ff
	ff 00		 cmp	 DWORD PTR _en$23[ebp], 0
  03795	74 10		 je	 SHORT $LN372@process_re
  03797	8b 85 24 fa ff
	ff		 mov	 eax, DWORD PTR _en$23[ebp]
  0379d	8b 08		 mov	 ecx, DWORD PTR [eax]
  0379f	89 8d c0 f8 ff
	ff		 mov	 DWORD PTR tv2056[ebp], ecx
  037a5	eb 27		 jmp	 SHORT $LN373@process_re
$LN372@process_re:
  037a7	8b 15 00 00 00
	00		 mov	 edx, DWORD PTR ?__LINE__Var@?0??process_received_entity_comms_messages@@YGXXZ@4JA
  037ad	81 c2 76 09 00
	00		 add	 edx, 2422		; 00000976H
  037b3	52		 push	 edx
  037b4	68 00 00 00 00	 push	 OFFSET ??_C@_0EO@OCMIKFBI@c?3?2users?2nhv90?2projects?2eech?2ap@
  037b9	a1 00 00 00 00	 mov	 eax, DWORD PTR ?null_entity_pointer_message@@3PBDB ; null_entity_pointer_message
  037be	50		 push	 eax
  037bf	e8 00 00 00 00	 call	 ?process_assert@@YGXPBD0H@Z ; process_assert
  037c4	c7 85 c0 f8 ff
	ff 00 00 00 00	 mov	 DWORD PTR tv2056[ebp], 0
$LN373@process_re:
  037ce	83 bd c0 f8 ff
	ff 14		 cmp	 DWORD PTR tv2056[ebp], 20 ; 00000014H
  037d5	74 1a		 je	 SHORT $LN208@process_re
  037d7	a1 00 00 00 00	 mov	 eax, DWORD PTR ?__LINE__Var@?0??process_received_entity_comms_messages@@YGXXZ@4JA
  037dc	05 76 09 00 00	 add	 eax, 2422		; 00000976H
  037e1	50		 push	 eax
  037e2	68 00 00 00 00	 push	 OFFSET ??_C@_0EO@OCMIKFBI@c?3?2users?2nhv90?2projects?2eech?2ap@
  037e7	68 00 00 00 00	 push	 OFFSET ??_C@_0DA@NDIHHFDN@get_local_entity_type?5?$CIen?$CJ?5?$DN?$DN?5E@
  037ec	e8 00 00 00 00	 call	 ?process_assert@@YGXPBD0H@Z ; process_assert
$LN208@process_re:

; 5313 : 
; 5314 : 				task = unpack_entity_safe_ptr ();

  037f1	e8 00 00 00 00	 call	 ?unpack_entity_safe_ptr@@YGPAUENTITY@@XZ ; unpack_entity_safe_ptr
  037f6	89 85 1c fa ff
	ff		 mov	 DWORD PTR _task$21[ebp], eax

; 5315 : 
; 5316 : 				ASSERT (get_local_entity_type (task) == ENTITY_TYPE_TASK);

  037fc	83 bd 1c fa ff
	ff 00		 cmp	 DWORD PTR _task$21[ebp], 0
  03803	74 10		 je	 SHORT $LN374@process_re
  03805	8b 85 1c fa ff
	ff		 mov	 eax, DWORD PTR _task$21[ebp]
  0380b	8b 08		 mov	 ecx, DWORD PTR [eax]
  0380d	89 8d c0 f8 ff
	ff		 mov	 DWORD PTR tv2069[ebp], ecx
  03813	eb 27		 jmp	 SHORT $LN375@process_re
$LN374@process_re:
  03815	8b 15 00 00 00
	00		 mov	 edx, DWORD PTR ?__LINE__Var@?0??process_received_entity_comms_messages@@YGXXZ@4JA
  0381b	81 c2 7a 09 00
	00		 add	 edx, 2426		; 0000097aH
  03821	52		 push	 edx
  03822	68 00 00 00 00	 push	 OFFSET ??_C@_0EO@OCMIKFBI@c?3?2users?2nhv90?2projects?2eech?2ap@
  03827	a1 00 00 00 00	 mov	 eax, DWORD PTR ?null_entity_pointer_message@@3PBDB ; null_entity_pointer_message
  0382c	50		 push	 eax
  0382d	e8 00 00 00 00	 call	 ?process_assert@@YGXPBD0H@Z ; process_assert
  03832	c7 85 c0 f8 ff
	ff 00 00 00 00	 mov	 DWORD PTR tv2069[ebp], 0
$LN375@process_re:
  0383c	83 bd c0 f8 ff
	ff 22		 cmp	 DWORD PTR tv2069[ebp], 34 ; 00000022H
  03843	74 1a		 je	 SHORT $LN209@process_re
  03845	a1 00 00 00 00	 mov	 eax, DWORD PTR ?__LINE__Var@?0??process_received_entity_comms_messages@@YGXXZ@4JA
  0384a	05 7a 09 00 00	 add	 eax, 2426		; 0000097aH
  0384f	50		 push	 eax
  03850	68 00 00 00 00	 push	 OFFSET ??_C@_0EO@OCMIKFBI@c?3?2users?2nhv90?2projects?2eech?2ap@
  03855	68 00 00 00 00	 push	 OFFSET ??_C@_0DB@FPHBFJNE@get_local_entity_type?5?$CItask?$CJ?5?$DN?$DN@
  0385a	e8 00 00 00 00	 call	 ?process_assert@@YGXPBD0H@Z ; process_assert
$LN209@process_re:

; 5317 : 
; 5318 : 				mobile = unpack_entity_safe_ptr ();

  0385f	e8 00 00 00 00	 call	 ?unpack_entity_safe_ptr@@YGPAUENTITY@@XZ ; unpack_entity_safe_ptr
  03864	89 85 20 fa ff
	ff		 mov	 DWORD PTR _mobile$22[ebp], eax

; 5319 : 
; 5320 : //				#if DEBUG_MODULE_MESSAGE_TEXT
; 5321 : 
; 5322 : 				debug_log ("EN_COMMS: received assign task request %s for %s", get_local_entity_string (task, STRING_TYPE_FULL_NAME), get_local_entity_string (en, STRING_TYPE_PILOTS_NAME));

  0386a	83 bd 24 fa ff
	ff 00		 cmp	 DWORD PTR _en$23[ebp], 0
  03871	74 10		 je	 SHORT $LN376@process_re
  03873	8b 85 24 fa ff
	ff		 mov	 eax, DWORD PTR _en$23[ebp]
  03879	8b 08		 mov	 ecx, DWORD PTR [eax]
  0387b	89 8d c0 f8 ff
	ff		 mov	 DWORD PTR tv2082[ebp], ecx
  03881	eb 27		 jmp	 SHORT $LN377@process_re
$LN376@process_re:
  03883	8b 15 00 00 00
	00		 mov	 edx, DWORD PTR ?__LINE__Var@?0??process_received_entity_comms_messages@@YGXXZ@4JA
  03889	81 c2 80 09 00
	00		 add	 edx, 2432		; 00000980H
  0388f	52		 push	 edx
  03890	68 00 00 00 00	 push	 OFFSET ??_C@_0EO@OCMIKFBI@c?3?2users?2nhv90?2projects?2eech?2ap@
  03895	a1 00 00 00 00	 mov	 eax, DWORD PTR ?null_entity_pointer_message@@3PBDB ; null_entity_pointer_message
  0389a	50		 push	 eax
  0389b	e8 00 00 00 00	 call	 ?process_assert@@YGXPBD0H@Z ; process_assert
  038a0	c7 85 c0 f8 ff
	ff 00 00 00 00	 mov	 DWORD PTR tv2082[ebp], 0
$LN377@process_re:
  038aa	b9 01 00 00 00	 mov	 ecx, 1
  038af	85 c9		 test	 ecx, ecx
  038b1	74 0c		 je	 SHORT $LN378@process_re
  038b3	c7 85 bc f8 ff
	ff 0a 00 00 00	 mov	 DWORD PTR tv2090[ebp], 10 ; 0000000aH
  038bd	eb 27		 jmp	 SHORT $LN379@process_re
$LN378@process_re:
  038bf	8b 15 00 00 00
	00		 mov	 edx, DWORD PTR ?__LINE__Var@?0??process_received_entity_comms_messages@@YGXXZ@4JA
  038c5	81 c2 80 09 00
	00		 add	 edx, 2432		; 00000980H
  038cb	52		 push	 edx
  038cc	68 00 00 00 00	 push	 OFFSET ??_C@_0EO@OCMIKFBI@c?3?2users?2nhv90?2projects?2eech?2ap@
  038d1	a1 00 00 00 00	 mov	 eax, DWORD PTR ?overload_invalid_string_type_message@@3PBDB ; overload_invalid_string_type_message
  038d6	50		 push	 eax
  038d7	e8 00 00 00 00	 call	 ?process_assert@@YGXPBD0H@Z ; process_assert
  038dc	c7 85 bc f8 ff
	ff 00 00 00 00	 mov	 DWORD PTR tv2090[ebp], 0
$LN379@process_re:
  038e6	83 bd 1c fa ff
	ff 00		 cmp	 DWORD PTR _task$21[ebp], 0
  038ed	74 10		 je	 SHORT $LN380@process_re
  038ef	8b 8d 1c fa ff
	ff		 mov	 ecx, DWORD PTR _task$21[ebp]
  038f5	8b 11		 mov	 edx, DWORD PTR [ecx]
  038f7	89 95 b8 f8 ff
	ff		 mov	 DWORD PTR tv2103[ebp], edx
  038fd	eb 26		 jmp	 SHORT $LN381@process_re
$LN380@process_re:
  038ff	a1 00 00 00 00	 mov	 eax, DWORD PTR ?__LINE__Var@?0??process_received_entity_comms_messages@@YGXXZ@4JA
  03904	05 80 09 00 00	 add	 eax, 2432		; 00000980H
  03909	50		 push	 eax
  0390a	68 00 00 00 00	 push	 OFFSET ??_C@_0EO@OCMIKFBI@c?3?2users?2nhv90?2projects?2eech?2ap@
  0390f	8b 0d 00 00 00
	00		 mov	 ecx, DWORD PTR ?null_entity_pointer_message@@3PBDB ; null_entity_pointer_message
  03915	51		 push	 ecx
  03916	e8 00 00 00 00	 call	 ?process_assert@@YGXPBD0H@Z ; process_assert
  0391b	c7 85 b8 f8 ff
	ff 00 00 00 00	 mov	 DWORD PTR tv2103[ebp], 0
$LN381@process_re:
  03925	ba 01 00 00 00	 mov	 edx, 1
  0392a	85 d2		 test	 edx, edx
  0392c	74 0c		 je	 SHORT $LN382@process_re
  0392e	c7 85 b4 f8 ff
	ff 03 00 00 00	 mov	 DWORD PTR tv2111[ebp], 3
  03938	eb 26		 jmp	 SHORT $LN383@process_re
$LN382@process_re:
  0393a	a1 00 00 00 00	 mov	 eax, DWORD PTR ?__LINE__Var@?0??process_received_entity_comms_messages@@YGXXZ@4JA
  0393f	05 80 09 00 00	 add	 eax, 2432		; 00000980H
  03944	50		 push	 eax
  03945	68 00 00 00 00	 push	 OFFSET ??_C@_0EO@OCMIKFBI@c?3?2users?2nhv90?2projects?2eech?2ap@
  0394a	8b 0d 00 00 00
	00		 mov	 ecx, DWORD PTR ?overload_invalid_string_type_message@@3PBDB ; overload_invalid_string_type_message
  03950	51		 push	 ecx
  03951	e8 00 00 00 00	 call	 ?process_assert@@YGXPBD0H@Z ; process_assert
  03956	c7 85 b4 f8 ff
	ff 00 00 00 00	 mov	 DWORD PTR tv2111[ebp], 0
$LN383@process_re:
  03960	6a 0a		 push	 10			; 0000000aH
  03962	8b 95 24 fa ff
	ff		 mov	 edx, DWORD PTR _en$23[ebp]
  03968	52		 push	 edx
  03969	6b 85 c0 f8 ff
	ff 34		 imul	 eax, DWORD PTR tv2082[ebp], 52
  03970	8b 8d bc f8 ff
	ff		 mov	 ecx, DWORD PTR tv2090[ebp]
  03976	8b 94 88 00 00
	00 00		 mov	 edx, DWORD PTR ?fn_get_local_entity_string@@3PAY0N@P6GPBDPAUENTITY@@W4STRING_TYPES@@@ZA[eax+ecx*4]
  0397d	ff d2		 call	 edx
  0397f	50		 push	 eax
  03980	6a 03		 push	 3
  03982	8b 85 1c fa ff
	ff		 mov	 eax, DWORD PTR _task$21[ebp]
  03988	50		 push	 eax
  03989	6b 8d b8 f8 ff
	ff 34		 imul	 ecx, DWORD PTR tv2103[ebp], 52
  03990	8b 95 b4 f8 ff
	ff		 mov	 edx, DWORD PTR tv2111[ebp]
  03996	8b 84 91 00 00
	00 00		 mov	 eax, DWORD PTR ?fn_get_local_entity_string@@3PAY0N@P6GPBDPAUENTITY@@W4STRING_TYPES@@@ZA[ecx+edx*4]
  0399d	ff d0		 call	 eax
  0399f	50		 push	 eax
  039a0	68 00 00 00 00	 push	 OFFSET ??_C@_0DB@IKKJPGJC@EN_COMMS?3?5received?5assign?5task?5@
  039a5	e8 00 00 00 00	 call	 ?debug_log@@YAXPBDZZ	; debug_log
  039aa	83 c4 0c	 add	 esp, 12			; 0000000cH

; 5323 : 
; 5324 : //				#endif
; 5325 : 
; 5326 : 				ASSERT (!force_local_entity_create_stack_attributes);

  039ad	83 3d 00 00 00
	00 00		 cmp	 DWORD PTR ?force_local_entity_create_stack_attributes@@3HA, 0 ; force_local_entity_create_stack_attributes
  039b4	74 1a		 je	 SHORT $LN210@process_re
  039b6	a1 00 00 00 00	 mov	 eax, DWORD PTR ?__LINE__Var@?0??process_received_entity_comms_messages@@YGXXZ@4JA
  039bb	05 84 09 00 00	 add	 eax, 2436		; 00000984H
  039c0	50		 push	 eax
  039c1	68 00 00 00 00	 push	 OFFSET ??_C@_0EO@OCMIKFBI@c?3?2users?2nhv90?2projects?2eech?2ap@
  039c6	68 00 00 00 00	 push	 OFFSET ??_C@_0CM@EEJKLHIL@?$CBforce_local_entity_create_stac@
  039cb	e8 00 00 00 00	 call	 ?process_assert@@YGXPBD0H@Z ; process_assert
$LN210@process_re:

; 5327 : 
; 5328 : 				set_force_local_entity_create_stack_attributes (TRUE);

  039d0	c7 05 00 00 00
	00 01 00 00 00	 mov	 DWORD PTR ?force_local_entity_create_stack_attributes@@3HA, 1 ; force_local_entity_create_stack_attributes

; 5329 : 
; 5330 : 				respond_to_player_task_assign_request (en, task, mobile);

  039da	8b 85 20 fa ff
	ff		 mov	 eax, DWORD PTR _mobile$22[ebp]
  039e0	50		 push	 eax
  039e1	8b 8d 1c fa ff
	ff		 mov	 ecx, DWORD PTR _task$21[ebp]
  039e7	51		 push	 ecx
  039e8	8b 95 24 fa ff
	ff		 mov	 edx, DWORD PTR _en$23[ebp]
  039ee	52		 push	 edx
  039ef	e8 00 00 00 00	 call	 ?respond_to_player_task_assign_request@@YGXPAUENTITY@@00@Z ; respond_to_player_task_assign_request

; 5331 : 
; 5332 : 				set_force_local_entity_create_stack_attributes (FALSE);

  039f4	c7 05 00 00 00
	00 00 00 00 00	 mov	 DWORD PTR ?force_local_entity_create_stack_attributes@@3HA, 0 ; force_local_entity_create_stack_attributes

; 5333 : 
; 5334 : 				break;

  039fe	e9 76 0a 00 00	 jmp	 $LN4@process_re
$LN211@process_re:

; 5335 : 			}
; 5336 : 			////////////////////////////////////////
; 5337 : 			case ENTITY_COMMS_TASK_ASSIGN_RESULT:
; 5338 : 			////////////////////////////////////////
; 5339 : 			{
; 5340 : 				//
; 5341 : 				// (entity_comms_messages message, entity *pilot, entity *task, entity *mobile)
; 5342 : 				//
; 5343 : 
; 5344 : 				entity
; 5345 : 					*en,
; 5346 : 					*task,
; 5347 : 					*mobile;
; 5348 : 
; 5349 : 				ASSERT (get_comms_model () == COMMS_MODEL_CLIENT);

  03a03	83 3d 00 00 00
	00 01		 cmp	 DWORD PTR ?system_comms_model@@3W4COMMS_MODEL_TYPES@@A, 1 ; system_comms_model
  03a0a	74 1a		 je	 SHORT $LN212@process_re
  03a0c	a1 00 00 00 00	 mov	 eax, DWORD PTR ?__LINE__Var@?0??process_received_entity_comms_messages@@YGXXZ@4JA
  03a11	05 9b 09 00 00	 add	 eax, 2459		; 0000099bH
  03a16	50		 push	 eax
  03a17	68 00 00 00 00	 push	 OFFSET ??_C@_0EO@OCMIKFBI@c?3?2users?2nhv90?2projects?2eech?2ap@
  03a1c	68 00 00 00 00	 push	 OFFSET ??_C@_0CJ@HDFJMCJJ@get_comms_model?5?$CI?$CJ?5?$DN?$DN?5COMMS_MOD@
  03a21	e8 00 00 00 00	 call	 ?process_assert@@YGXPBD0H@Z ; process_assert
$LN212@process_re:

; 5350 : 
; 5351 : 				en = unpack_entity_safe_ptr ();

  03a26	e8 00 00 00 00	 call	 ?unpack_entity_safe_ptr@@YGPAUENTITY@@XZ ; unpack_entity_safe_ptr
  03a2b	89 85 18 fa ff
	ff		 mov	 DWORD PTR _en$20[ebp], eax

; 5352 : 
; 5353 : 				task = unpack_entity_safe_ptr ();

  03a31	e8 00 00 00 00	 call	 ?unpack_entity_safe_ptr@@YGPAUENTITY@@XZ ; unpack_entity_safe_ptr
  03a36	89 85 14 fa ff
	ff		 mov	 DWORD PTR _task$19[ebp], eax

; 5354 : 
; 5355 : 				mobile = unpack_entity_safe_ptr ();

  03a3c	e8 00 00 00 00	 call	 ?unpack_entity_safe_ptr@@YGPAUENTITY@@XZ ; unpack_entity_safe_ptr
  03a41	89 85 10 fa ff
	ff		 mov	 DWORD PTR _mobile$18[ebp], eax

; 5356 : 
; 5357 : 				if (en == get_pilot_entity ())

  03a47	8b 85 18 fa ff
	ff		 mov	 eax, DWORD PTR _en$20[ebp]
  03a4d	3b 05 00 00 00
	00		 cmp	 eax, DWORD PTR ?pilot_entity@@3PAUENTITY@@A ; pilot_entity
  03a53	75 4a		 jne	 SHORT $LN215@process_re

; 5358 : 				{
; 5359 : 					if (task)

  03a55	83 bd 14 fa ff
	ff 00		 cmp	 DWORD PTR _task$19[ebp], 0
  03a5c	74 38		 je	 SHORT $LN214@process_re

; 5360 : 					{
; 5361 : 						ASSERT (mobile);

  03a5e	83 bd 10 fa ff
	ff 00		 cmp	 DWORD PTR _mobile$18[ebp], 0
  03a65	75 1a		 jne	 SHORT $LN216@process_re
  03a67	a1 00 00 00 00	 mov	 eax, DWORD PTR ?__LINE__Var@?0??process_received_entity_comms_messages@@YGXXZ@4JA
  03a6c	05 a7 09 00 00	 add	 eax, 2471		; 000009a7H
  03a71	50		 push	 eax
  03a72	68 00 00 00 00	 push	 OFFSET ??_C@_0EO@OCMIKFBI@c?3?2users?2nhv90?2projects?2eech?2ap@
  03a77	68 00 00 00 00	 push	 OFFSET ??_C@_06INMLIBCJ@mobile@
  03a7c	e8 00 00 00 00	 call	 ?process_assert@@YGXPBD0H@Z ; process_assert
$LN216@process_re:

; 5362 : 
; 5363 : 						player_assigned_new_task (mobile, task);

  03a81	8b 85 14 fa ff
	ff		 mov	 eax, DWORD PTR _task$19[ebp]
  03a87	50		 push	 eax
  03a88	8b 8d 10 fa ff
	ff		 mov	 ecx, DWORD PTR _mobile$18[ebp]
  03a8e	51		 push	 ecx
  03a8f	e8 00 00 00 00	 call	 ?player_assigned_new_task@@YGXPAUENTITY@@0@Z ; player_assigned_new_task

; 5364 : 					}
; 5365 : 					else

  03a94	eb 09		 jmp	 SHORT $LN215@process_re
$LN214@process_re:

; 5366 : 					{
; 5367 : 						notify_clear_current_selections (NULL, NULL);

  03a96	6a 00		 push	 0
  03a98	6a 00		 push	 0
  03a9a	e8 00 00 00 00	 call	 ?notify_clear_current_selections@@YGXPAUUI_OBJECT@@PAX@Z ; notify_clear_current_selections
$LN215@process_re:

; 5368 : 					}
; 5369 : 				}
; 5370 : 
; 5371 : //				#if DEBUG_MODULE_MESSAGE_TEXT
; 5372 : 				
; 5373 : 				if (task)

  03a9f	83 bd 14 fa ff
	ff 00		 cmp	 DWORD PTR _task$19[ebp], 0
  03aa6	0f 84 48 01 00
	00		 je	 $LN217@process_re

; 5374 : 				{
; 5375 : 
; 5376 : 					debug_log ("EN_COMMS: received assign task %s accepted for %s", get_local_entity_string (task, STRING_TYPE_FULL_NAME), get_local_entity_string (en, STRING_TYPE_PILOTS_NAME));

  03aac	83 bd 18 fa ff
	ff 00		 cmp	 DWORD PTR _en$20[ebp], 0
  03ab3	74 10		 je	 SHORT $LN384@process_re
  03ab5	8b 85 18 fa ff
	ff		 mov	 eax, DWORD PTR _en$20[ebp]
  03abb	8b 08		 mov	 ecx, DWORD PTR [eax]
  03abd	89 8d c0 f8 ff
	ff		 mov	 DWORD PTR tv2153[ebp], ecx
  03ac3	eb 27		 jmp	 SHORT $LN385@process_re
$LN384@process_re:
  03ac5	8b 15 00 00 00
	00		 mov	 edx, DWORD PTR ?__LINE__Var@?0??process_received_entity_comms_messages@@YGXXZ@4JA
  03acb	81 c2 b6 09 00
	00		 add	 edx, 2486		; 000009b6H
  03ad1	52		 push	 edx
  03ad2	68 00 00 00 00	 push	 OFFSET ??_C@_0EO@OCMIKFBI@c?3?2users?2nhv90?2projects?2eech?2ap@
  03ad7	a1 00 00 00 00	 mov	 eax, DWORD PTR ?null_entity_pointer_message@@3PBDB ; null_entity_pointer_message
  03adc	50		 push	 eax
  03add	e8 00 00 00 00	 call	 ?process_assert@@YGXPBD0H@Z ; process_assert
  03ae2	c7 85 c0 f8 ff
	ff 00 00 00 00	 mov	 DWORD PTR tv2153[ebp], 0
$LN385@process_re:
  03aec	b9 01 00 00 00	 mov	 ecx, 1
  03af1	85 c9		 test	 ecx, ecx
  03af3	74 0c		 je	 SHORT $LN386@process_re
  03af5	c7 85 bc f8 ff
	ff 0a 00 00 00	 mov	 DWORD PTR tv2161[ebp], 10 ; 0000000aH
  03aff	eb 27		 jmp	 SHORT $LN387@process_re
$LN386@process_re:
  03b01	8b 15 00 00 00
	00		 mov	 edx, DWORD PTR ?__LINE__Var@?0??process_received_entity_comms_messages@@YGXXZ@4JA
  03b07	81 c2 b6 09 00
	00		 add	 edx, 2486		; 000009b6H
  03b0d	52		 push	 edx
  03b0e	68 00 00 00 00	 push	 OFFSET ??_C@_0EO@OCMIKFBI@c?3?2users?2nhv90?2projects?2eech?2ap@
  03b13	a1 00 00 00 00	 mov	 eax, DWORD PTR ?overload_invalid_string_type_message@@3PBDB ; overload_invalid_string_type_message
  03b18	50		 push	 eax
  03b19	e8 00 00 00 00	 call	 ?process_assert@@YGXPBD0H@Z ; process_assert
  03b1e	c7 85 bc f8 ff
	ff 00 00 00 00	 mov	 DWORD PTR tv2161[ebp], 0
$LN387@process_re:
  03b28	83 bd 14 fa ff
	ff 00		 cmp	 DWORD PTR _task$19[ebp], 0
  03b2f	74 10		 je	 SHORT $LN388@process_re
  03b31	8b 8d 14 fa ff
	ff		 mov	 ecx, DWORD PTR _task$19[ebp]
  03b37	8b 11		 mov	 edx, DWORD PTR [ecx]
  03b39	89 95 b8 f8 ff
	ff		 mov	 DWORD PTR tv2174[ebp], edx
  03b3f	eb 26		 jmp	 SHORT $LN389@process_re
$LN388@process_re:
  03b41	a1 00 00 00 00	 mov	 eax, DWORD PTR ?__LINE__Var@?0??process_received_entity_comms_messages@@YGXXZ@4JA
  03b46	05 b6 09 00 00	 add	 eax, 2486		; 000009b6H
  03b4b	50		 push	 eax
  03b4c	68 00 00 00 00	 push	 OFFSET ??_C@_0EO@OCMIKFBI@c?3?2users?2nhv90?2projects?2eech?2ap@
  03b51	8b 0d 00 00 00
	00		 mov	 ecx, DWORD PTR ?null_entity_pointer_message@@3PBDB ; null_entity_pointer_message
  03b57	51		 push	 ecx
  03b58	e8 00 00 00 00	 call	 ?process_assert@@YGXPBD0H@Z ; process_assert
  03b5d	c7 85 b8 f8 ff
	ff 00 00 00 00	 mov	 DWORD PTR tv2174[ebp], 0
$LN389@process_re:
  03b67	ba 01 00 00 00	 mov	 edx, 1
  03b6c	85 d2		 test	 edx, edx
  03b6e	74 0c		 je	 SHORT $LN390@process_re
  03b70	c7 85 b4 f8 ff
	ff 03 00 00 00	 mov	 DWORD PTR tv2182[ebp], 3
  03b7a	eb 26		 jmp	 SHORT $LN391@process_re
$LN390@process_re:
  03b7c	a1 00 00 00 00	 mov	 eax, DWORD PTR ?__LINE__Var@?0??process_received_entity_comms_messages@@YGXXZ@4JA
  03b81	05 b6 09 00 00	 add	 eax, 2486		; 000009b6H
  03b86	50		 push	 eax
  03b87	68 00 00 00 00	 push	 OFFSET ??_C@_0EO@OCMIKFBI@c?3?2users?2nhv90?2projects?2eech?2ap@
  03b8c	8b 0d 00 00 00
	00		 mov	 ecx, DWORD PTR ?overload_invalid_string_type_message@@3PBDB ; overload_invalid_string_type_message
  03b92	51		 push	 ecx
  03b93	e8 00 00 00 00	 call	 ?process_assert@@YGXPBD0H@Z ; process_assert
  03b98	c7 85 b4 f8 ff
	ff 00 00 00 00	 mov	 DWORD PTR tv2182[ebp], 0
$LN391@process_re:
  03ba2	6a 0a		 push	 10			; 0000000aH
  03ba4	8b 95 18 fa ff
	ff		 mov	 edx, DWORD PTR _en$20[ebp]
  03baa	52		 push	 edx
  03bab	6b 85 c0 f8 ff
	ff 34		 imul	 eax, DWORD PTR tv2153[ebp], 52
  03bb2	8b 8d bc f8 ff
	ff		 mov	 ecx, DWORD PTR tv2161[ebp]
  03bb8	8b 94 88 00 00
	00 00		 mov	 edx, DWORD PTR ?fn_get_local_entity_string@@3PAY0N@P6GPBDPAUENTITY@@W4STRING_TYPES@@@ZA[eax+ecx*4]
  03bbf	ff d2		 call	 edx
  03bc1	50		 push	 eax
  03bc2	6a 03		 push	 3
  03bc4	8b 85 14 fa ff
	ff		 mov	 eax, DWORD PTR _task$19[ebp]
  03bca	50		 push	 eax
  03bcb	6b 8d b8 f8 ff
	ff 34		 imul	 ecx, DWORD PTR tv2174[ebp], 52
  03bd2	8b 95 b4 f8 ff
	ff		 mov	 edx, DWORD PTR tv2182[ebp]
  03bd8	8b 84 91 00 00
	00 00		 mov	 eax, DWORD PTR ?fn_get_local_entity_string@@3PAY0N@P6GPBDPAUENTITY@@W4STRING_TYPES@@@ZA[ecx+edx*4]
  03bdf	ff d0		 call	 eax
  03be1	50		 push	 eax
  03be2	68 00 00 00 00	 push	 OFFSET ??_C@_0DC@INHEFGG@EN_COMMS?3?5received?5assign?5task?5@
  03be7	e8 00 00 00 00	 call	 ?debug_log@@YAXPBDZZ	; debug_log
  03bec	83 c4 0c	 add	 esp, 12			; 0000000cH

; 5377 : 				}
; 5378 : 				else

  03bef	e9 a9 00 00 00	 jmp	 $LN218@process_re
$LN217@process_re:

; 5379 : 				{
; 5380 : 
; 5381 : 					debug_log ("EN_COMMS: received assign task refused for %s", get_local_entity_string (en, STRING_TYPE_PILOTS_NAME));

  03bf4	83 bd 18 fa ff
	ff 00		 cmp	 DWORD PTR _en$20[ebp], 0
  03bfb	74 10		 je	 SHORT $LN392@process_re
  03bfd	8b 85 18 fa ff
	ff		 mov	 eax, DWORD PTR _en$20[ebp]
  03c03	8b 08		 mov	 ecx, DWORD PTR [eax]
  03c05	89 8d c0 f8 ff
	ff		 mov	 DWORD PTR tv2196[ebp], ecx
  03c0b	eb 27		 jmp	 SHORT $LN393@process_re
$LN392@process_re:
  03c0d	8b 15 00 00 00
	00		 mov	 edx, DWORD PTR ?__LINE__Var@?0??process_received_entity_comms_messages@@YGXXZ@4JA
  03c13	81 c2 bb 09 00
	00		 add	 edx, 2491		; 000009bbH
  03c19	52		 push	 edx
  03c1a	68 00 00 00 00	 push	 OFFSET ??_C@_0EO@OCMIKFBI@c?3?2users?2nhv90?2projects?2eech?2ap@
  03c1f	a1 00 00 00 00	 mov	 eax, DWORD PTR ?null_entity_pointer_message@@3PBDB ; null_entity_pointer_message
  03c24	50		 push	 eax
  03c25	e8 00 00 00 00	 call	 ?process_assert@@YGXPBD0H@Z ; process_assert
  03c2a	c7 85 c0 f8 ff
	ff 00 00 00 00	 mov	 DWORD PTR tv2196[ebp], 0
$LN393@process_re:
  03c34	b9 01 00 00 00	 mov	 ecx, 1
  03c39	85 c9		 test	 ecx, ecx
  03c3b	74 0c		 je	 SHORT $LN394@process_re
  03c3d	c7 85 bc f8 ff
	ff 0a 00 00 00	 mov	 DWORD PTR tv2204[ebp], 10 ; 0000000aH
  03c47	eb 27		 jmp	 SHORT $LN395@process_re
$LN394@process_re:
  03c49	8b 15 00 00 00
	00		 mov	 edx, DWORD PTR ?__LINE__Var@?0??process_received_entity_comms_messages@@YGXXZ@4JA
  03c4f	81 c2 bb 09 00
	00		 add	 edx, 2491		; 000009bbH
  03c55	52		 push	 edx
  03c56	68 00 00 00 00	 push	 OFFSET ??_C@_0EO@OCMIKFBI@c?3?2users?2nhv90?2projects?2eech?2ap@
  03c5b	a1 00 00 00 00	 mov	 eax, DWORD PTR ?overload_invalid_string_type_message@@3PBDB ; overload_invalid_string_type_message
  03c60	50		 push	 eax
  03c61	e8 00 00 00 00	 call	 ?process_assert@@YGXPBD0H@Z ; process_assert
  03c66	c7 85 bc f8 ff
	ff 00 00 00 00	 mov	 DWORD PTR tv2204[ebp], 0
$LN395@process_re:
  03c70	6a 0a		 push	 10			; 0000000aH
  03c72	8b 8d 18 fa ff
	ff		 mov	 ecx, DWORD PTR _en$20[ebp]
  03c78	51		 push	 ecx
  03c79	6b 95 c0 f8 ff
	ff 34		 imul	 edx, DWORD PTR tv2196[ebp], 52
  03c80	8b 85 bc f8 ff
	ff		 mov	 eax, DWORD PTR tv2204[ebp]
  03c86	8b 8c 82 00 00
	00 00		 mov	 ecx, DWORD PTR ?fn_get_local_entity_string@@3PAY0N@P6GPBDPAUENTITY@@W4STRING_TYPES@@@ZA[edx+eax*4]
  03c8d	ff d1		 call	 ecx
  03c8f	50		 push	 eax
  03c90	68 00 00 00 00	 push	 OFFSET ??_C@_0CO@KBPHBAEN@EN_COMMS?3?5received?5assign?5task?5@
  03c95	e8 00 00 00 00	 call	 ?debug_log@@YAXPBDZZ	; debug_log
  03c9a	83 c4 08	 add	 esp, 8
$LN218@process_re:

; 5382 : 				}
; 5383 : 
; 5384 : //				#endif
; 5385 : 
; 5386 : 				break;

  03c9d	e9 d7 07 00 00	 jmp	 $LN4@process_re
$LN219@process_re:

; 5387 : 			}
; 5388 : 			////////////////////////////////////////
; 5389 : 			case ENTITY_COMMS_TASK_KILL:
; 5390 : 			////////////////////////////////////////
; 5391 : 			{
; 5392 : 	
; 5393 : 				entity
; 5394 : 					*task_en,
; 5395 : 					*victim,
; 5396 : 					*aggressor;
; 5397 : 	
; 5398 : 				//
; 5399 : 				// (entity_comms_messages message, entity *task, entity *victim, entity *aggressor)
; 5400 : 				//
; 5401 : 	
; 5402 : 				ASSERT (get_comms_model () == COMMS_MODEL_CLIENT);

  03ca2	83 3d 00 00 00
	00 01		 cmp	 DWORD PTR ?system_comms_model@@3W4COMMS_MODEL_TYPES@@A, 1 ; system_comms_model
  03ca9	74 1a		 je	 SHORT $LN220@process_re
  03cab	a1 00 00 00 00	 mov	 eax, DWORD PTR ?__LINE__Var@?0??process_received_entity_comms_messages@@YGXXZ@4JA
  03cb0	05 d0 09 00 00	 add	 eax, 2512		; 000009d0H
  03cb5	50		 push	 eax
  03cb6	68 00 00 00 00	 push	 OFFSET ??_C@_0EO@OCMIKFBI@c?3?2users?2nhv90?2projects?2eech?2ap@
  03cbb	68 00 00 00 00	 push	 OFFSET ??_C@_0CJ@HDFJMCJJ@get_comms_model?5?$CI?$CJ?5?$DN?$DN?5COMMS_MOD@
  03cc0	e8 00 00 00 00	 call	 ?process_assert@@YGXPBD0H@Z ; process_assert
$LN220@process_re:

; 5403 : 	
; 5404 : 				task_en = unpack_entity_safe_ptr ();

  03cc5	e8 00 00 00 00	 call	 ?unpack_entity_safe_ptr@@YGPAUENTITY@@XZ ; unpack_entity_safe_ptr
  03cca	89 85 0c fa ff
	ff		 mov	 DWORD PTR _task_en$17[ebp], eax

; 5405 : 				victim = unpack_entity_safe_ptr ();

  03cd0	e8 00 00 00 00	 call	 ?unpack_entity_safe_ptr@@YGPAUENTITY@@XZ ; unpack_entity_safe_ptr
  03cd5	89 85 08 fa ff
	ff		 mov	 DWORD PTR _victim$16[ebp], eax

; 5406 : 				aggressor = unpack_entity_safe_ptr ();

  03cdb	e8 00 00 00 00	 call	 ?unpack_entity_safe_ptr@@YGPAUENTITY@@XZ ; unpack_entity_safe_ptr
  03ce0	89 85 04 fa ff
	ff		 mov	 DWORD PTR _aggressor$15[ebp], eax

; 5407 : 	
; 5408 : 				add_kill_to_task (task_en, victim, aggressor);

  03ce6	8b 85 04 fa ff
	ff		 mov	 eax, DWORD PTR _aggressor$15[ebp]
  03cec	50		 push	 eax
  03ced	8b 8d 08 fa ff
	ff		 mov	 ecx, DWORD PTR _victim$16[ebp]
  03cf3	51		 push	 ecx
  03cf4	8b 95 0c fa ff
	ff		 mov	 edx, DWORD PTR _task_en$17[ebp]
  03cfa	52		 push	 edx
  03cfb	e8 00 00 00 00	 call	 ?add_kill_to_task@@YGXPAUENTITY@@00@Z ; add_kill_to_task

; 5409 : 	
; 5410 : 				debug_log ("EN_COMMS: received task kill for %s (%d), victim %s (%d), aggressor %s (%d)",

  03d00	83 bd 04 fa ff
	ff 00		 cmp	 DWORD PTR _aggressor$15[ebp], 0
  03d07	74 10		 je	 SHORT $LN396@process_re
  03d09	8b 85 04 fa ff
	ff		 mov	 eax, DWORD PTR _aggressor$15[ebp]
  03d0f	8b 08		 mov	 ecx, DWORD PTR [eax]
  03d11	89 8d c0 f8 ff
	ff		 mov	 DWORD PTR tv2232[ebp], ecx
  03d17	eb 27		 jmp	 SHORT $LN397@process_re
$LN396@process_re:
  03d19	8b 15 00 00 00
	00		 mov	 edx, DWORD PTR ?__LINE__Var@?0??process_received_entity_comms_messages@@YGXXZ@4JA
  03d1f	81 c2 db 09 00
	00		 add	 edx, 2523		; 000009dbH
  03d25	52		 push	 edx
  03d26	68 00 00 00 00	 push	 OFFSET ??_C@_0EO@OCMIKFBI@c?3?2users?2nhv90?2projects?2eech?2ap@
  03d2b	a1 00 00 00 00	 mov	 eax, DWORD PTR ?null_entity_pointer_message@@3PBDB ; null_entity_pointer_message
  03d30	50		 push	 eax
  03d31	e8 00 00 00 00	 call	 ?process_assert@@YGXPBD0H@Z ; process_assert
  03d36	c7 85 c0 f8 ff
	ff 00 00 00 00	 mov	 DWORD PTR tv2232[ebp], 0
$LN397@process_re:
  03d40	b9 01 00 00 00	 mov	 ecx, 1
  03d45	85 c9		 test	 ecx, ecx
  03d47	74 0c		 je	 SHORT $LN398@process_re
  03d49	c7 85 bc f8 ff
	ff 03 00 00 00	 mov	 DWORD PTR tv2240[ebp], 3
  03d53	eb 27		 jmp	 SHORT $LN399@process_re
$LN398@process_re:
  03d55	8b 15 00 00 00
	00		 mov	 edx, DWORD PTR ?__LINE__Var@?0??process_received_entity_comms_messages@@YGXXZ@4JA
  03d5b	81 c2 db 09 00
	00		 add	 edx, 2523		; 000009dbH
  03d61	52		 push	 edx
  03d62	68 00 00 00 00	 push	 OFFSET ??_C@_0EO@OCMIKFBI@c?3?2users?2nhv90?2projects?2eech?2ap@
  03d67	a1 00 00 00 00	 mov	 eax, DWORD PTR ?overload_invalid_string_type_message@@3PBDB ; overload_invalid_string_type_message
  03d6c	50		 push	 eax
  03d6d	e8 00 00 00 00	 call	 ?process_assert@@YGXPBD0H@Z ; process_assert
  03d72	c7 85 bc f8 ff
	ff 00 00 00 00	 mov	 DWORD PTR tv2240[ebp], 0
$LN399@process_re:
  03d7c	83 bd 08 fa ff
	ff 00		 cmp	 DWORD PTR _victim$16[ebp], 0
  03d83	74 10		 je	 SHORT $LN400@process_re
  03d85	8b 8d 08 fa ff
	ff		 mov	 ecx, DWORD PTR _victim$16[ebp]
  03d8b	8b 11		 mov	 edx, DWORD PTR [ecx]
  03d8d	89 95 b8 f8 ff
	ff		 mov	 DWORD PTR tv2256[ebp], edx
  03d93	eb 26		 jmp	 SHORT $LN401@process_re
$LN400@process_re:
  03d95	a1 00 00 00 00	 mov	 eax, DWORD PTR ?__LINE__Var@?0??process_received_entity_comms_messages@@YGXXZ@4JA
  03d9a	05 da 09 00 00	 add	 eax, 2522		; 000009daH
  03d9f	50		 push	 eax
  03da0	68 00 00 00 00	 push	 OFFSET ??_C@_0EO@OCMIKFBI@c?3?2users?2nhv90?2projects?2eech?2ap@
  03da5	8b 0d 00 00 00
	00		 mov	 ecx, DWORD PTR ?null_entity_pointer_message@@3PBDB ; null_entity_pointer_message
  03dab	51		 push	 ecx
  03dac	e8 00 00 00 00	 call	 ?process_assert@@YGXPBD0H@Z ; process_assert
  03db1	c7 85 b8 f8 ff
	ff 00 00 00 00	 mov	 DWORD PTR tv2256[ebp], 0
$LN401@process_re:
  03dbb	ba 01 00 00 00	 mov	 edx, 1
  03dc0	85 d2		 test	 edx, edx
  03dc2	74 0c		 je	 SHORT $LN402@process_re
  03dc4	c7 85 b4 f8 ff
	ff 03 00 00 00	 mov	 DWORD PTR tv2264[ebp], 3
  03dce	eb 26		 jmp	 SHORT $LN403@process_re
$LN402@process_re:
  03dd0	a1 00 00 00 00	 mov	 eax, DWORD PTR ?__LINE__Var@?0??process_received_entity_comms_messages@@YGXXZ@4JA
  03dd5	05 da 09 00 00	 add	 eax, 2522		; 000009daH
  03dda	50		 push	 eax
  03ddb	68 00 00 00 00	 push	 OFFSET ??_C@_0EO@OCMIKFBI@c?3?2users?2nhv90?2projects?2eech?2ap@
  03de0	8b 0d 00 00 00
	00		 mov	 ecx, DWORD PTR ?overload_invalid_string_type_message@@3PBDB ; overload_invalid_string_type_message
  03de6	51		 push	 ecx
  03de7	e8 00 00 00 00	 call	 ?process_assert@@YGXPBD0H@Z ; process_assert
  03dec	c7 85 b4 f8 ff
	ff 00 00 00 00	 mov	 DWORD PTR tv2264[ebp], 0
$LN403@process_re:
  03df6	83 bd 0c fa ff
	ff 00		 cmp	 DWORD PTR _task_en$17[ebp], 0
  03dfd	74 10		 je	 SHORT $LN404@process_re
  03dff	8b 95 0c fa ff
	ff		 mov	 edx, DWORD PTR _task_en$17[ebp]
  03e05	8b 02		 mov	 eax, DWORD PTR [edx]
  03e07	89 85 b0 f8 ff
	ff		 mov	 DWORD PTR tv2280[ebp], eax
  03e0d	eb 28		 jmp	 SHORT $LN405@process_re
$LN404@process_re:
  03e0f	8b 0d 00 00 00
	00		 mov	 ecx, DWORD PTR ?__LINE__Var@?0??process_received_entity_comms_messages@@YGXXZ@4JA
  03e15	81 c1 d9 09 00
	00		 add	 ecx, 2521		; 000009d9H
  03e1b	51		 push	 ecx
  03e1c	68 00 00 00 00	 push	 OFFSET ??_C@_0EO@OCMIKFBI@c?3?2users?2nhv90?2projects?2eech?2ap@
  03e21	8b 15 00 00 00
	00		 mov	 edx, DWORD PTR ?null_entity_pointer_message@@3PBDB ; null_entity_pointer_message
  03e27	52		 push	 edx
  03e28	e8 00 00 00 00	 call	 ?process_assert@@YGXPBD0H@Z ; process_assert
  03e2d	c7 85 b0 f8 ff
	ff 00 00 00 00	 mov	 DWORD PTR tv2280[ebp], 0
$LN405@process_re:
  03e37	b8 01 00 00 00	 mov	 eax, 1
  03e3c	85 c0		 test	 eax, eax
  03e3e	74 0c		 je	 SHORT $LN406@process_re
  03e40	c7 85 ac f8 ff
	ff 03 00 00 00	 mov	 DWORD PTR tv2288[ebp], 3
  03e4a	eb 28		 jmp	 SHORT $LN407@process_re
$LN406@process_re:
  03e4c	8b 0d 00 00 00
	00		 mov	 ecx, DWORD PTR ?__LINE__Var@?0??process_received_entity_comms_messages@@YGXXZ@4JA
  03e52	81 c1 d9 09 00
	00		 add	 ecx, 2521		; 000009d9H
  03e58	51		 push	 ecx
  03e59	68 00 00 00 00	 push	 OFFSET ??_C@_0EO@OCMIKFBI@c?3?2users?2nhv90?2projects?2eech?2ap@
  03e5e	8b 15 00 00 00
	00		 mov	 edx, DWORD PTR ?overload_invalid_string_type_message@@3PBDB ; overload_invalid_string_type_message
  03e64	52		 push	 edx
  03e65	e8 00 00 00 00	 call	 ?process_assert@@YGXPBD0H@Z ; process_assert
  03e6a	c7 85 ac f8 ff
	ff 00 00 00 00	 mov	 DWORD PTR tv2288[ebp], 0
$LN407@process_re:
  03e74	8b 85 04 fa ff
	ff		 mov	 eax, DWORD PTR _aggressor$15[ebp]
  03e7a	2b 05 00 00 00
	00		 sub	 eax, DWORD PTR ?entities@@3PAUENTITY@@A ; entities
  03e80	c1 f8 04	 sar	 eax, 4
  03e83	50		 push	 eax
  03e84	6a 03		 push	 3
  03e86	8b 8d 04 fa ff
	ff		 mov	 ecx, DWORD PTR _aggressor$15[ebp]
  03e8c	51		 push	 ecx
  03e8d	6b 95 c0 f8 ff
	ff 34		 imul	 edx, DWORD PTR tv2232[ebp], 52
  03e94	8b 85 bc f8 ff
	ff		 mov	 eax, DWORD PTR tv2240[ebp]
  03e9a	8b 8c 82 00 00
	00 00		 mov	 ecx, DWORD PTR ?fn_get_local_entity_string@@3PAY0N@P6GPBDPAUENTITY@@W4STRING_TYPES@@@ZA[edx+eax*4]
  03ea1	ff d1		 call	 ecx
  03ea3	50		 push	 eax
  03ea4	8b 95 08 fa ff
	ff		 mov	 edx, DWORD PTR _victim$16[ebp]
  03eaa	2b 15 00 00 00
	00		 sub	 edx, DWORD PTR ?entities@@3PAUENTITY@@A ; entities
  03eb0	c1 fa 04	 sar	 edx, 4
  03eb3	52		 push	 edx
  03eb4	6a 03		 push	 3
  03eb6	8b 85 08 fa ff
	ff		 mov	 eax, DWORD PTR _victim$16[ebp]
  03ebc	50		 push	 eax
  03ebd	6b 8d b8 f8 ff
	ff 34		 imul	 ecx, DWORD PTR tv2256[ebp], 52
  03ec4	8b 95 b4 f8 ff
	ff		 mov	 edx, DWORD PTR tv2264[ebp]
  03eca	8b 84 91 00 00
	00 00		 mov	 eax, DWORD PTR ?fn_get_local_entity_string@@3PAY0N@P6GPBDPAUENTITY@@W4STRING_TYPES@@@ZA[ecx+edx*4]
  03ed1	ff d0		 call	 eax
  03ed3	50		 push	 eax
  03ed4	8b 8d 0c fa ff
	ff		 mov	 ecx, DWORD PTR _task_en$17[ebp]
  03eda	2b 0d 00 00 00
	00		 sub	 ecx, DWORD PTR ?entities@@3PAUENTITY@@A ; entities
  03ee0	c1 f9 04	 sar	 ecx, 4
  03ee3	51		 push	 ecx
  03ee4	6a 03		 push	 3
  03ee6	8b 95 0c fa ff
	ff		 mov	 edx, DWORD PTR _task_en$17[ebp]
  03eec	52		 push	 edx
  03eed	6b 85 b0 f8 ff
	ff 34		 imul	 eax, DWORD PTR tv2280[ebp], 52
  03ef4	8b 8d ac f8 ff
	ff		 mov	 ecx, DWORD PTR tv2288[ebp]
  03efa	8b 94 88 00 00
	00 00		 mov	 edx, DWORD PTR ?fn_get_local_entity_string@@3PAY0N@P6GPBDPAUENTITY@@W4STRING_TYPES@@@ZA[eax+ecx*4]
  03f01	ff d2		 call	 edx
  03f03	50		 push	 eax
  03f04	68 00 00 00 00	 push	 OFFSET ??_C@_0EM@CLMCCEIB@EN_COMMS?3?5received?5task?5kill?5fo@
  03f09	e8 00 00 00 00	 call	 ?debug_log@@YAXPBDZZ	; debug_log
  03f0e	83 c4 1c	 add	 esp, 28			; 0000001cH

; 5411 : 								get_local_entity_string (task_en, STRING_TYPE_FULL_NAME), get_local_entity_index (task_en),
; 5412 : 								get_local_entity_string (victim, STRING_TYPE_FULL_NAME), get_local_entity_index (victim),
; 5413 : 								get_local_entity_string (aggressor, STRING_TYPE_FULL_NAME), get_local_entity_index (aggressor));
; 5414 : 	
; 5415 : 				break;

  03f11	e9 63 05 00 00	 jmp	 $LN4@process_re
$LN221@process_re:

; 5416 : 			}
; 5417 : 			////////////////////////////////////////
; 5418 : 			case ENTITY_COMMS_TASK_LOSS:
; 5419 : 			////////////////////////////////////////
; 5420 : 			{
; 5421 : 	
; 5422 : 				entity
; 5423 : 					*task_en,
; 5424 : 					*victim,
; 5425 : 					*aggressor;
; 5426 : 	
; 5427 : 				//
; 5428 : 				// (entity_comms_messages message, entity *task, entity *victim, entity *aggressor)
; 5429 : 				//
; 5430 : 	
; 5431 : 				ASSERT (get_comms_model () == COMMS_MODEL_CLIENT);

  03f16	83 3d 00 00 00
	00 01		 cmp	 DWORD PTR ?system_comms_model@@3W4COMMS_MODEL_TYPES@@A, 1 ; system_comms_model
  03f1d	74 1a		 je	 SHORT $LN222@process_re
  03f1f	a1 00 00 00 00	 mov	 eax, DWORD PTR ?__LINE__Var@?0??process_received_entity_comms_messages@@YGXXZ@4JA
  03f24	05 ed 09 00 00	 add	 eax, 2541		; 000009edH
  03f29	50		 push	 eax
  03f2a	68 00 00 00 00	 push	 OFFSET ??_C@_0EO@OCMIKFBI@c?3?2users?2nhv90?2projects?2eech?2ap@
  03f2f	68 00 00 00 00	 push	 OFFSET ??_C@_0CJ@HDFJMCJJ@get_comms_model?5?$CI?$CJ?5?$DN?$DN?5COMMS_MOD@
  03f34	e8 00 00 00 00	 call	 ?process_assert@@YGXPBD0H@Z ; process_assert
$LN222@process_re:

; 5432 : 	
; 5433 : 				task_en = unpack_entity_safe_ptr ();

  03f39	e8 00 00 00 00	 call	 ?unpack_entity_safe_ptr@@YGPAUENTITY@@XZ ; unpack_entity_safe_ptr
  03f3e	89 85 00 fa ff
	ff		 mov	 DWORD PTR _task_en$14[ebp], eax

; 5434 : 				victim = unpack_entity_safe_ptr ();

  03f44	e8 00 00 00 00	 call	 ?unpack_entity_safe_ptr@@YGPAUENTITY@@XZ ; unpack_entity_safe_ptr
  03f49	89 85 fc f9 ff
	ff		 mov	 DWORD PTR _victim$13[ebp], eax

; 5435 : 				aggressor = unpack_entity_safe_ptr ();

  03f4f	e8 00 00 00 00	 call	 ?unpack_entity_safe_ptr@@YGPAUENTITY@@XZ ; unpack_entity_safe_ptr
  03f54	89 85 f8 f9 ff
	ff		 mov	 DWORD PTR _aggressor$12[ebp], eax

; 5436 : 	
; 5437 : 				add_loss_to_task (task_en, victim, aggressor);

  03f5a	8b 85 f8 f9 ff
	ff		 mov	 eax, DWORD PTR _aggressor$12[ebp]
  03f60	50		 push	 eax
  03f61	8b 8d fc f9 ff
	ff		 mov	 ecx, DWORD PTR _victim$13[ebp]
  03f67	51		 push	 ecx
  03f68	8b 95 00 fa ff
	ff		 mov	 edx, DWORD PTR _task_en$14[ebp]
  03f6e	52		 push	 edx
  03f6f	e8 00 00 00 00	 call	 ?add_loss_to_task@@YGXPAUENTITY@@00@Z ; add_loss_to_task

; 5438 : 	
; 5439 : 				debug_log ("EN_COMMS: received task loss for %s (%d), victim %s (%d), aggressor %s (%d)",

  03f74	83 bd f8 f9 ff
	ff 00		 cmp	 DWORD PTR _aggressor$12[ebp], 0
  03f7b	74 10		 je	 SHORT $LN408@process_re
  03f7d	8b 85 f8 f9 ff
	ff		 mov	 eax, DWORD PTR _aggressor$12[ebp]
  03f83	8b 08		 mov	 ecx, DWORD PTR [eax]
  03f85	89 8d c0 f8 ff
	ff		 mov	 DWORD PTR tv2348[ebp], ecx
  03f8b	eb 27		 jmp	 SHORT $LN409@process_re
$LN408@process_re:
  03f8d	8b 15 00 00 00
	00		 mov	 edx, DWORD PTR ?__LINE__Var@?0??process_received_entity_comms_messages@@YGXXZ@4JA
  03f93	81 c2 f8 09 00
	00		 add	 edx, 2552		; 000009f8H
  03f99	52		 push	 edx
  03f9a	68 00 00 00 00	 push	 OFFSET ??_C@_0EO@OCMIKFBI@c?3?2users?2nhv90?2projects?2eech?2ap@
  03f9f	a1 00 00 00 00	 mov	 eax, DWORD PTR ?null_entity_pointer_message@@3PBDB ; null_entity_pointer_message
  03fa4	50		 push	 eax
  03fa5	e8 00 00 00 00	 call	 ?process_assert@@YGXPBD0H@Z ; process_assert
  03faa	c7 85 c0 f8 ff
	ff 00 00 00 00	 mov	 DWORD PTR tv2348[ebp], 0
$LN409@process_re:
  03fb4	b9 01 00 00 00	 mov	 ecx, 1
  03fb9	85 c9		 test	 ecx, ecx
  03fbb	74 0c		 je	 SHORT $LN410@process_re
  03fbd	c7 85 bc f8 ff
	ff 03 00 00 00	 mov	 DWORD PTR tv2356[ebp], 3
  03fc7	eb 27		 jmp	 SHORT $LN411@process_re
$LN410@process_re:
  03fc9	8b 15 00 00 00
	00		 mov	 edx, DWORD PTR ?__LINE__Var@?0??process_received_entity_comms_messages@@YGXXZ@4JA
  03fcf	81 c2 f8 09 00
	00		 add	 edx, 2552		; 000009f8H
  03fd5	52		 push	 edx
  03fd6	68 00 00 00 00	 push	 OFFSET ??_C@_0EO@OCMIKFBI@c?3?2users?2nhv90?2projects?2eech?2ap@
  03fdb	a1 00 00 00 00	 mov	 eax, DWORD PTR ?overload_invalid_string_type_message@@3PBDB ; overload_invalid_string_type_message
  03fe0	50		 push	 eax
  03fe1	e8 00 00 00 00	 call	 ?process_assert@@YGXPBD0H@Z ; process_assert
  03fe6	c7 85 bc f8 ff
	ff 00 00 00 00	 mov	 DWORD PTR tv2356[ebp], 0
$LN411@process_re:
  03ff0	83 bd fc f9 ff
	ff 00		 cmp	 DWORD PTR _victim$13[ebp], 0
  03ff7	74 10		 je	 SHORT $LN412@process_re
  03ff9	8b 8d fc f9 ff
	ff		 mov	 ecx, DWORD PTR _victim$13[ebp]
  03fff	8b 11		 mov	 edx, DWORD PTR [ecx]
  04001	89 95 b8 f8 ff
	ff		 mov	 DWORD PTR tv2372[ebp], edx
  04007	eb 26		 jmp	 SHORT $LN413@process_re
$LN412@process_re:
  04009	a1 00 00 00 00	 mov	 eax, DWORD PTR ?__LINE__Var@?0??process_received_entity_comms_messages@@YGXXZ@4JA
  0400e	05 f7 09 00 00	 add	 eax, 2551		; 000009f7H
  04013	50		 push	 eax
  04014	68 00 00 00 00	 push	 OFFSET ??_C@_0EO@OCMIKFBI@c?3?2users?2nhv90?2projects?2eech?2ap@
  04019	8b 0d 00 00 00
	00		 mov	 ecx, DWORD PTR ?null_entity_pointer_message@@3PBDB ; null_entity_pointer_message
  0401f	51		 push	 ecx
  04020	e8 00 00 00 00	 call	 ?process_assert@@YGXPBD0H@Z ; process_assert
  04025	c7 85 b8 f8 ff
	ff 00 00 00 00	 mov	 DWORD PTR tv2372[ebp], 0
$LN413@process_re:
  0402f	ba 01 00 00 00	 mov	 edx, 1
  04034	85 d2		 test	 edx, edx
  04036	74 0c		 je	 SHORT $LN414@process_re
  04038	c7 85 b4 f8 ff
	ff 03 00 00 00	 mov	 DWORD PTR tv2380[ebp], 3
  04042	eb 26		 jmp	 SHORT $LN415@process_re
$LN414@process_re:
  04044	a1 00 00 00 00	 mov	 eax, DWORD PTR ?__LINE__Var@?0??process_received_entity_comms_messages@@YGXXZ@4JA
  04049	05 f7 09 00 00	 add	 eax, 2551		; 000009f7H
  0404e	50		 push	 eax
  0404f	68 00 00 00 00	 push	 OFFSET ??_C@_0EO@OCMIKFBI@c?3?2users?2nhv90?2projects?2eech?2ap@
  04054	8b 0d 00 00 00
	00		 mov	 ecx, DWORD PTR ?overload_invalid_string_type_message@@3PBDB ; overload_invalid_string_type_message
  0405a	51		 push	 ecx
  0405b	e8 00 00 00 00	 call	 ?process_assert@@YGXPBD0H@Z ; process_assert
  04060	c7 85 b4 f8 ff
	ff 00 00 00 00	 mov	 DWORD PTR tv2380[ebp], 0
$LN415@process_re:
  0406a	83 bd 00 fa ff
	ff 00		 cmp	 DWORD PTR _task_en$14[ebp], 0
  04071	74 10		 je	 SHORT $LN416@process_re
  04073	8b 95 00 fa ff
	ff		 mov	 edx, DWORD PTR _task_en$14[ebp]
  04079	8b 02		 mov	 eax, DWORD PTR [edx]
  0407b	89 85 b0 f8 ff
	ff		 mov	 DWORD PTR tv2396[ebp], eax
  04081	eb 28		 jmp	 SHORT $LN417@process_re
$LN416@process_re:
  04083	8b 0d 00 00 00
	00		 mov	 ecx, DWORD PTR ?__LINE__Var@?0??process_received_entity_comms_messages@@YGXXZ@4JA
  04089	81 c1 f6 09 00
	00		 add	 ecx, 2550		; 000009f6H
  0408f	51		 push	 ecx
  04090	68 00 00 00 00	 push	 OFFSET ??_C@_0EO@OCMIKFBI@c?3?2users?2nhv90?2projects?2eech?2ap@
  04095	8b 15 00 00 00
	00		 mov	 edx, DWORD PTR ?null_entity_pointer_message@@3PBDB ; null_entity_pointer_message
  0409b	52		 push	 edx
  0409c	e8 00 00 00 00	 call	 ?process_assert@@YGXPBD0H@Z ; process_assert
  040a1	c7 85 b0 f8 ff
	ff 00 00 00 00	 mov	 DWORD PTR tv2396[ebp], 0
$LN417@process_re:
  040ab	b8 01 00 00 00	 mov	 eax, 1
  040b0	85 c0		 test	 eax, eax
  040b2	74 0c		 je	 SHORT $LN418@process_re
  040b4	c7 85 ac f8 ff
	ff 03 00 00 00	 mov	 DWORD PTR tv2404[ebp], 3
  040be	eb 28		 jmp	 SHORT $LN419@process_re
$LN418@process_re:
  040c0	8b 0d 00 00 00
	00		 mov	 ecx, DWORD PTR ?__LINE__Var@?0??process_received_entity_comms_messages@@YGXXZ@4JA
  040c6	81 c1 f6 09 00
	00		 add	 ecx, 2550		; 000009f6H
  040cc	51		 push	 ecx
  040cd	68 00 00 00 00	 push	 OFFSET ??_C@_0EO@OCMIKFBI@c?3?2users?2nhv90?2projects?2eech?2ap@
  040d2	8b 15 00 00 00
	00		 mov	 edx, DWORD PTR ?overload_invalid_string_type_message@@3PBDB ; overload_invalid_string_type_message
  040d8	52		 push	 edx
  040d9	e8 00 00 00 00	 call	 ?process_assert@@YGXPBD0H@Z ; process_assert
  040de	c7 85 ac f8 ff
	ff 00 00 00 00	 mov	 DWORD PTR tv2404[ebp], 0
$LN419@process_re:
  040e8	8b 85 f8 f9 ff
	ff		 mov	 eax, DWORD PTR _aggressor$12[ebp]
  040ee	2b 05 00 00 00
	00		 sub	 eax, DWORD PTR ?entities@@3PAUENTITY@@A ; entities
  040f4	c1 f8 04	 sar	 eax, 4
  040f7	50		 push	 eax
  040f8	6a 03		 push	 3
  040fa	8b 8d f8 f9 ff
	ff		 mov	 ecx, DWORD PTR _aggressor$12[ebp]
  04100	51		 push	 ecx
  04101	6b 95 c0 f8 ff
	ff 34		 imul	 edx, DWORD PTR tv2348[ebp], 52
  04108	8b 85 bc f8 ff
	ff		 mov	 eax, DWORD PTR tv2356[ebp]
  0410e	8b 8c 82 00 00
	00 00		 mov	 ecx, DWORD PTR ?fn_get_local_entity_string@@3PAY0N@P6GPBDPAUENTITY@@W4STRING_TYPES@@@ZA[edx+eax*4]
  04115	ff d1		 call	 ecx
  04117	50		 push	 eax
  04118	8b 95 fc f9 ff
	ff		 mov	 edx, DWORD PTR _victim$13[ebp]
  0411e	2b 15 00 00 00
	00		 sub	 edx, DWORD PTR ?entities@@3PAUENTITY@@A ; entities
  04124	c1 fa 04	 sar	 edx, 4
  04127	52		 push	 edx
  04128	6a 03		 push	 3
  0412a	8b 85 fc f9 ff
	ff		 mov	 eax, DWORD PTR _victim$13[ebp]
  04130	50		 push	 eax
  04131	6b 8d b8 f8 ff
	ff 34		 imul	 ecx, DWORD PTR tv2372[ebp], 52
  04138	8b 95 b4 f8 ff
	ff		 mov	 edx, DWORD PTR tv2380[ebp]
  0413e	8b 84 91 00 00
	00 00		 mov	 eax, DWORD PTR ?fn_get_local_entity_string@@3PAY0N@P6GPBDPAUENTITY@@W4STRING_TYPES@@@ZA[ecx+edx*4]
  04145	ff d0		 call	 eax
  04147	50		 push	 eax
  04148	8b 8d 00 fa ff
	ff		 mov	 ecx, DWORD PTR _task_en$14[ebp]
  0414e	2b 0d 00 00 00
	00		 sub	 ecx, DWORD PTR ?entities@@3PAUENTITY@@A ; entities
  04154	c1 f9 04	 sar	 ecx, 4
  04157	51		 push	 ecx
  04158	6a 03		 push	 3
  0415a	8b 95 00 fa ff
	ff		 mov	 edx, DWORD PTR _task_en$14[ebp]
  04160	52		 push	 edx
  04161	6b 85 b0 f8 ff
	ff 34		 imul	 eax, DWORD PTR tv2396[ebp], 52
  04168	8b 8d ac f8 ff
	ff		 mov	 ecx, DWORD PTR tv2404[ebp]
  0416e	8b 94 88 00 00
	00 00		 mov	 edx, DWORD PTR ?fn_get_local_entity_string@@3PAY0N@P6GPBDPAUENTITY@@W4STRING_TYPES@@@ZA[eax+ecx*4]
  04175	ff d2		 call	 edx
  04177	50		 push	 eax
  04178	68 00 00 00 00	 push	 OFFSET ??_C@_0EM@OBAFKMNE@EN_COMMS?3?5received?5task?5loss?5fo@
  0417d	e8 00 00 00 00	 call	 ?debug_log@@YAXPBDZZ	; debug_log
  04182	83 c4 1c	 add	 esp, 28			; 0000001cH

; 5440 : 								get_local_entity_string (task_en, STRING_TYPE_FULL_NAME), get_local_entity_index (task_en),
; 5441 : 								get_local_entity_string (victim, STRING_TYPE_FULL_NAME), get_local_entity_index (victim),
; 5442 : 								get_local_entity_string (aggressor, STRING_TYPE_FULL_NAME), get_local_entity_index (aggressor));
; 5443 : 	
; 5444 : 				break;

  04185	e9 ef 02 00 00	 jmp	 $LN4@process_re
$LN223@process_re:

; 5445 : 			}
; 5446 : 			////////////////////////////////////////
; 5447 : 			case ENTITY_COMMS_UPDATE:
; 5448 : 			////////////////////////////////////////
; 5449 : 			{
; 5450 : 				entity
; 5451 : 					*en;
; 5452 : 
; 5453 : 				en = unpack_entity_safe_ptr ();

  0418a	e8 00 00 00 00	 call	 ?unpack_entity_safe_ptr@@YGPAUENTITY@@XZ ; unpack_entity_safe_ptr
  0418f	89 85 f4 f9 ff
	ff		 mov	 DWORD PTR _en$11[ebp], eax

; 5454 : 
; 5455 : 				// The local player always ignores echoed update data.
; 5456 : 				//
; 5457 : 				// This is handled in the unpack functions because the data must still be unpacked.
; 5458 : 
; 5459 : 				unpack_client_server_entity_data (en);

  04195	8b 85 f4 f9 ff
	ff		 mov	 eax, DWORD PTR _en$11[ebp]
  0419b	50		 push	 eax
  0419c	e8 00 00 00 00	 call	 ?unpack_client_server_entity_data@@YGXPAUENTITY@@@Z ; unpack_client_server_entity_data

; 5460 : 
; 5461 : 				#if DEBUG_MODULE_MESSAGE_TEXT
; 5462 : 
; 5463 : 				debug_log ("EN_COMMS: received update for %s (%d)", get_local_entity_type_name (en), get_local_entity_index (en));
; 5464 : 
; 5465 : 				#endif
; 5466 : 
; 5467 : 				break;

  041a1	e9 d3 02 00 00	 jmp	 $LN4@process_re
$LN224@process_re:

; 5468 : 			}
; 5469 : 			////////////////////////////////////////
; 5470 : 			case ENTITY_COMMS_UPDATE_FOG_OF_WAR:
; 5471 : 			////////////////////////////////////////
; 5472 : 			{
; 5473 : 				entity
; 5474 : 					*en;
; 5475 : 
; 5476 : 				en = unpack_entity_safe_ptr ();

  041a6	e8 00 00 00 00	 call	 ?unpack_entity_safe_ptr@@YGPAUENTITY@@XZ ; unpack_entity_safe_ptr
  041ab	89 85 f0 f9 ff
	ff		 mov	 DWORD PTR _en$10[ebp], eax

; 5477 : 	
; 5478 : 				#if DEBUG_MODULE_MESSAGE_TEXT
; 5479 : 	
; 5480 : 				debug_log ("EN_COMMS: received update fog of war");
; 5481 : 	
; 5482 : 				#endif
; 5483 : 	
; 5484 : 				update_sector_fog_of_war ();

  041b1	e8 00 00 00 00	 call	 ?update_sector_fog_of_war@@YGXXZ ; update_sector_fog_of_war

; 5485 : 
; 5486 : 				break;

  041b6	e9 be 02 00 00	 jmp	 $LN4@process_re
$LN225@process_re:

; 5487 : 			}
; 5488 : 			////////////////////////////////////////
; 5489 : 			case ENTITY_COMMS_UPDATE_SECTOR_SIDE:
; 5490 : 			////////////////////////////////////////
; 5491 : 			{
; 5492 : 				entity
; 5493 : 					*en;
; 5494 : 
; 5495 : 				int
; 5496 : 					in_use;
; 5497 : 
; 5498 : 				en = unpack_entity_safe_ptr ();

  041bb	e8 00 00 00 00	 call	 ?unpack_entity_safe_ptr@@YGPAUENTITY@@XZ ; unpack_entity_safe_ptr
  041c0	89 85 ec f9 ff
	ff		 mov	 DWORD PTR _en$9[ebp], eax

; 5499 : 
; 5500 : 				in_use = unpack_int_value (en, INT_TYPE_IN_USE);

  041c6	6a 6d		 push	 109			; 0000006dH
  041c8	8b 85 ec f9 ff
	ff		 mov	 eax, DWORD PTR _en$9[ebp]
  041ce	50		 push	 eax
  041cf	e8 00 00 00 00	 call	 ?unpack_int_value@@YGHPAUENTITY@@W4INT_TYPES@@@Z ; unpack_int_value
  041d4	89 85 e8 f9 ff
	ff		 mov	 DWORD PTR _in_use$8[ebp], eax

; 5501 : 
; 5502 : 				update_imap_sector_side (en, in_use);

  041da	8b 85 e8 f9 ff
	ff		 mov	 eax, DWORD PTR _in_use$8[ebp]
  041e0	50		 push	 eax
  041e1	8b 8d ec f9 ff
	ff		 mov	 ecx, DWORD PTR _en$9[ebp]
  041e7	51		 push	 ecx
  041e8	e8 00 00 00 00	 call	 ?update_imap_sector_side@@YGXPAUENTITY@@H@Z ; update_imap_sector_side

; 5503 : 
; 5504 : 				#if DEBUG_MODULE_MESSAGE_TEXT
; 5505 : 
; 5506 : 				debug_log ("EN_COMMS: received update sector side for %s (%d) - in_use", get_local_entity_string (en, STRING_TYPE_FULL_NAME), get_local_entity_index (en), in_use);
; 5507 : 
; 5508 : 				#endif
; 5509 : 
; 5510 : 				break;

  041ed	e9 87 02 00 00	 jmp	 $LN4@process_re
$LN226@process_re:

; 5511 : 			}
; 5512 : 			////////////////////////////////////////
; 5513 : 			case ENTITY_COMMS_UPDATE_SECTOR_SIDE_COUNT:
; 5514 : 			////////////////////////////////////////
; 5515 : 			{
; 5516 : 				entity
; 5517 : 					*en;
; 5518 : 
; 5519 : 				en = unpack_entity_safe_ptr ();

  041f2	e8 00 00 00 00	 call	 ?unpack_entity_safe_ptr@@YGPAUENTITY@@XZ ; unpack_entity_safe_ptr
  041f7	89 85 e4 f9 ff
	ff		 mov	 DWORD PTR _en$7[ebp], eax

; 5520 : 	
; 5521 : 				#if DEBUG_MODULE_MESSAGE_TEXT
; 5522 : 	
; 5523 : 				debug_log ("EN_COMMS: received update sector side count");
; 5524 : 	
; 5525 : 				#endif
; 5526 : 	
; 5527 : 				update_sector_side_count ();

  041fd	e8 00 00 00 00	 call	 ?update_sector_side_count@@YGXXZ ; update_sector_side_count

; 5528 : 
; 5529 : 				break;

  04202	e9 72 02 00 00	 jmp	 $LN4@process_re
$LN227@process_re:

; 5530 : 			}
; 5531 : 			////////////////////////////////////////
; 5532 : 			case ENTITY_COMMS_VEC3D:
; 5533 : 			////////////////////////////////////////
; 5534 : 			{
; 5535 : 				entity
; 5536 : 					*en;
; 5537 : 
; 5538 : 				vec3d_types
; 5539 : 					type;
; 5540 : 
; 5541 : 				vec3d
; 5542 : 					v;
; 5543 : 
; 5544 : 				en = unpack_entity_safe_ptr ();

  04207	e8 00 00 00 00	 call	 ?unpack_entity_safe_ptr@@YGPAUENTITY@@XZ ; unpack_entity_safe_ptr
  0420c	89 85 e0 f9 ff
	ff		 mov	 DWORD PTR _en$6[ebp], eax

; 5545 : 
; 5546 : 				type = unpack_vec3d_type ();

  04212	e8 00 00 00 00	 call	 ?unpack_vec3d_type@@YG?AW4VEC3D_TYPES@@XZ ; unpack_vec3d_type
  04217	89 85 dc f9 ff
	ff		 mov	 DWORD PTR _type$5[ebp], eax

; 5547 : 
; 5548 : 				unpack_vec3d (en, type, &v);

  0421d	8d 85 d0 f9 ff
	ff		 lea	 eax, DWORD PTR _v$4[ebp]
  04223	50		 push	 eax
  04224	8b 8d dc f9 ff
	ff		 mov	 ecx, DWORD PTR _type$5[ebp]
  0422a	51		 push	 ecx
  0422b	8b 95 e0 f9 ff
	ff		 mov	 edx, DWORD PTR _en$6[ebp]
  04231	52		 push	 edx
  04232	e8 00 00 00 00	 call	 ?unpack_vec3d@@YGXPAUENTITY@@W4VEC3D_TYPES@@PAUVEC3D@@@Z ; unpack_vec3d

; 5549 : 
; 5550 : 				set_client_server_entity_vec3d (en, type, &v);

  04237	83 bd e0 f9 ff
	ff 00		 cmp	 DWORD PTR _en$6[ebp], 0
  0423e	74 10		 je	 SHORT $LN420@process_re
  04240	8b 85 e0 f9 ff
	ff		 mov	 eax, DWORD PTR _en$6[ebp]
  04246	8b 08		 mov	 ecx, DWORD PTR [eax]
  04248	89 8d c0 f8 ff
	ff		 mov	 DWORD PTR tv2433[ebp], ecx
  0424e	eb 27		 jmp	 SHORT $LN421@process_re
$LN420@process_re:
  04250	8b 15 00 00 00
	00		 mov	 edx, DWORD PTR ?__LINE__Var@?0??process_received_entity_comms_messages@@YGXXZ@4JA
  04256	81 c2 64 0a 00
	00		 add	 edx, 2660		; 00000a64H
  0425c	52		 push	 edx
  0425d	68 00 00 00 00	 push	 OFFSET ??_C@_0EO@OCMIKFBI@c?3?2users?2nhv90?2projects?2eech?2ap@
  04262	a1 00 00 00 00	 mov	 eax, DWORD PTR ?null_entity_pointer_message@@3PBDB ; null_entity_pointer_message
  04267	50		 push	 eax
  04268	e8 00 00 00 00	 call	 ?process_assert@@YGXPBD0H@Z ; process_assert
  0426d	c7 85 c0 f8 ff
	ff 00 00 00 00	 mov	 DWORD PTR tv2433[ebp], 0
$LN421@process_re:
  04277	83 bd dc f9 ff
	ff 00		 cmp	 DWORD PTR _type$5[ebp], 0
  0427e	7c 17		 jl	 SHORT $LN422@process_re
  04280	83 bd dc f9 ff
	ff 18		 cmp	 DWORD PTR _type$5[ebp], 24 ; 00000018H
  04287	7d 0e		 jge	 SHORT $LN422@process_re
  04289	8b 8d dc f9 ff
	ff		 mov	 ecx, DWORD PTR _type$5[ebp]
  0428f	89 8d bc f8 ff
	ff		 mov	 DWORD PTR tv2442[ebp], ecx
  04295	eb 27		 jmp	 SHORT $LN423@process_re
$LN422@process_re:
  04297	8b 15 00 00 00
	00		 mov	 edx, DWORD PTR ?__LINE__Var@?0??process_received_entity_comms_messages@@YGXXZ@4JA
  0429d	81 c2 64 0a 00
	00		 add	 edx, 2660		; 00000a64H
  042a3	52		 push	 edx
  042a4	68 00 00 00 00	 push	 OFFSET ??_C@_0EO@OCMIKFBI@c?3?2users?2nhv90?2projects?2eech?2ap@
  042a9	a1 00 00 00 00	 mov	 eax, DWORD PTR ?overload_invalid_vec3d_type_message@@3PBDB ; overload_invalid_vec3d_type_message
  042ae	50		 push	 eax
  042af	e8 00 00 00 00	 call	 ?process_assert@@YGXPBD0H@Z ; process_assert
  042b4	c7 85 bc f8 ff
	ff 00 00 00 00	 mov	 DWORD PTR tv2442[ebp], 0
$LN423@process_re:
  042be	8d 8d d0 f9 ff
	ff		 lea	 ecx, DWORD PTR _v$4[ebp]
  042c4	51		 push	 ecx
  042c5	8b 95 dc f9 ff
	ff		 mov	 edx, DWORD PTR _type$5[ebp]
  042cb	52		 push	 edx
  042cc	8b 85 e0 f9 ff
	ff		 mov	 eax, DWORD PTR _en$6[ebp]
  042d2	50		 push	 eax
  042d3	69 8d c0 f8 ff
	ff c0 00 00 00	 imul	 ecx, DWORD PTR tv2433[ebp], 192
  042dd	8b 95 bc f8 ff
	ff		 mov	 edx, DWORD PTR tv2442[ebp]
  042e3	8d 84 d1 00 00
	00 00		 lea	 eax, DWORD PTR ?fn_set_client_server_entity_vec3d@@3PAY1BI@1P6GXPAUENTITY@@W4VEC3D_TYPES@@PAUVEC3D@@@ZA[ecx+edx*8]
  042ea	8b 0d 00 00 00
	00		 mov	 ecx, DWORD PTR ?system_comms_model@@3W4COMMS_MODEL_TYPES@@A ; system_comms_model
  042f0	8b 14 88	 mov	 edx, DWORD PTR [eax+ecx*4]
  042f3	ff d2		 call	 edx

; 5551 : 
; 5552 : 				#if DEBUG_MODULE_MESSAGE_TEXT
; 5553 : 
; 5554 : 				debug_log ("EN_COMMS: received vec3d for %s (%d)", get_local_entity_type_name (en), get_local_entity_index (en));
; 5555 : 
; 5556 : 				#endif
; 5557 : 
; 5558 : 				break;

  042f5	e9 7f 01 00 00	 jmp	 $LN4@process_re
$LN228@process_re:

; 5559 : 			}
; 5560 : 			////////////////////////////////////////
; 5561 : 			case ENTITY_COMMS_ZERO_DESIRED_VELOCITY:
; 5562 : 			////////////////////////////////////////
; 5563 : 			{
; 5564 : 				entity
; 5565 : 					*en;
; 5566 : 
; 5567 : 				en = unpack_entity_safe_ptr ();

  042fa	e8 00 00 00 00	 call	 ?unpack_entity_safe_ptr@@YGPAUENTITY@@XZ ; unpack_entity_safe_ptr
  042ff	89 85 cc f9 ff
	ff		 mov	 DWORD PTR _en$3[ebp], eax

; 5568 : 
; 5569 : 				set_local_entity_float_value (en, FLOAT_TYPE_DESIRED_VELOCITY, 0.0);

  04305	83 bd cc f9 ff
	ff 00		 cmp	 DWORD PTR _en$3[ebp], 0
  0430c	74 10		 je	 SHORT $LN424@process_re
  0430e	8b 85 cc f9 ff
	ff		 mov	 eax, DWORD PTR _en$3[ebp]
  04314	8b 08		 mov	 ecx, DWORD PTR [eax]
  04316	89 8d c0 f8 ff
	ff		 mov	 DWORD PTR tv2457[ebp], ecx
  0431c	eb 27		 jmp	 SHORT $LN425@process_re
$LN424@process_re:
  0431e	8b 15 00 00 00
	00		 mov	 edx, DWORD PTR ?__LINE__Var@?0??process_received_entity_comms_messages@@YGXXZ@4JA
  04324	81 c2 77 0a 00
	00		 add	 edx, 2679		; 00000a77H
  0432a	52		 push	 edx
  0432b	68 00 00 00 00	 push	 OFFSET ??_C@_0EO@OCMIKFBI@c?3?2users?2nhv90?2projects?2eech?2ap@
  04330	a1 00 00 00 00	 mov	 eax, DWORD PTR ?null_entity_pointer_message@@3PBDB ; null_entity_pointer_message
  04335	50		 push	 eax
  04336	e8 00 00 00 00	 call	 ?process_assert@@YGXPBD0H@Z ; process_assert
  0433b	c7 85 c0 f8 ff
	ff 00 00 00 00	 mov	 DWORD PTR tv2457[ebp], 0
$LN425@process_re:
  04345	b9 01 00 00 00	 mov	 ecx, 1
  0434a	85 c9		 test	 ecx, ecx
  0434c	74 0c		 je	 SHORT $LN426@process_re
  0434e	c7 85 bc f8 ff
	ff 1e 00 00 00	 mov	 DWORD PTR tv2465[ebp], 30 ; 0000001eH
  04358	eb 27		 jmp	 SHORT $LN427@process_re
$LN426@process_re:
  0435a	8b 15 00 00 00
	00		 mov	 edx, DWORD PTR ?__LINE__Var@?0??process_received_entity_comms_messages@@YGXXZ@4JA
  04360	81 c2 77 0a 00
	00		 add	 edx, 2679		; 00000a77H
  04366	52		 push	 edx
  04367	68 00 00 00 00	 push	 OFFSET ??_C@_0EO@OCMIKFBI@c?3?2users?2nhv90?2projects?2eech?2ap@
  0436c	a1 00 00 00 00	 mov	 eax, DWORD PTR ?overload_invalid_float_type_message@@3PBDB ; overload_invalid_float_type_message
  04371	50		 push	 eax
  04372	e8 00 00 00 00	 call	 ?process_assert@@YGXPBD0H@Z ; process_assert
  04377	c7 85 bc f8 ff
	ff 00 00 00 00	 mov	 DWORD PTR tv2465[ebp], 0
$LN427@process_re:
  04381	51		 push	 ecx
  04382	0f 57 c0	 xorps	 xmm0, xmm0
  04385	f3 0f 11 04 24	 movss	 DWORD PTR [esp], xmm0
  0438a	6a 1e		 push	 30			; 0000001eH
  0438c	8b 8d cc f9 ff
	ff		 mov	 ecx, DWORD PTR _en$3[ebp]
  04392	51		 push	 ecx
  04393	69 95 c0 f8 ff
	ff bc 02 00 00	 imul	 edx, DWORD PTR tv2457[ebp], 700
  0439d	8b 85 bc f8 ff
	ff		 mov	 eax, DWORD PTR tv2465[ebp]
  043a3	8b 8c 82 00 00
	00 00		 mov	 ecx, DWORD PTR ?fn_set_local_entity_float_value@@3PAY0KP@P6GXPAUENTITY@@W4FLOAT_TYPES@@M@ZA[edx+eax*4]
  043aa	ff d1		 call	 ecx

; 5570 : 
; 5571 : 				#if DEBUG_MODULE_MESSAGE_TEXT
; 5572 : 
; 5573 : 				debug_log ("EN_COMMS: received zero desired velocity for %s (%d)", get_local_entity_type_name (en), get_local_entity_index (en));
; 5574 : 
; 5575 : 				#endif
; 5576 : 
; 5577 : 				break;

  043ac	e9 c8 00 00 00	 jmp	 $LN4@process_re
$LN229@process_re:

; 5578 : 			}
; 5579 : 			////////////////////////////////////////
; 5580 : 			case ENTITY_COMMS_ZERO_VELOCITY:
; 5581 : 			////////////////////////////////////////
; 5582 : 			{
; 5583 : 				entity
; 5584 : 					*en;
; 5585 : 
; 5586 : 				en = unpack_entity_safe_ptr ();

  043b1	e8 00 00 00 00	 call	 ?unpack_entity_safe_ptr@@YGPAUENTITY@@XZ ; unpack_entity_safe_ptr
  043b6	89 85 c8 f9 ff
	ff		 mov	 DWORD PTR _en$2[ebp], eax

; 5587 : 
; 5588 : 				set_local_entity_float_value (en, FLOAT_TYPE_VELOCITY, 0.0);

  043bc	83 bd c8 f9 ff
	ff 00		 cmp	 DWORD PTR _en$2[ebp], 0
  043c3	74 10		 je	 SHORT $LN428@process_re
  043c5	8b 85 c8 f9 ff
	ff		 mov	 eax, DWORD PTR _en$2[ebp]
  043cb	8b 08		 mov	 ecx, DWORD PTR [eax]
  043cd	89 8d c0 f8 ff
	ff		 mov	 DWORD PTR tv2478[ebp], ecx
  043d3	eb 27		 jmp	 SHORT $LN429@process_re
$LN428@process_re:
  043d5	8b 15 00 00 00
	00		 mov	 edx, DWORD PTR ?__LINE__Var@?0??process_received_entity_comms_messages@@YGXXZ@4JA
  043db	81 c2 8a 0a 00
	00		 add	 edx, 2698		; 00000a8aH
  043e1	52		 push	 edx
  043e2	68 00 00 00 00	 push	 OFFSET ??_C@_0EO@OCMIKFBI@c?3?2users?2nhv90?2projects?2eech?2ap@
  043e7	a1 00 00 00 00	 mov	 eax, DWORD PTR ?null_entity_pointer_message@@3PBDB ; null_entity_pointer_message
  043ec	50		 push	 eax
  043ed	e8 00 00 00 00	 call	 ?process_assert@@YGXPBD0H@Z ; process_assert
  043f2	c7 85 c0 f8 ff
	ff 00 00 00 00	 mov	 DWORD PTR tv2478[ebp], 0
$LN429@process_re:
  043fc	b9 01 00 00 00	 mov	 ecx, 1
  04401	85 c9		 test	 ecx, ecx
  04403	74 0c		 je	 SHORT $LN430@process_re
  04405	c7 85 bc f8 ff
	ff 93 00 00 00	 mov	 DWORD PTR tv2486[ebp], 147 ; 00000093H
  0440f	eb 27		 jmp	 SHORT $LN431@process_re
$LN430@process_re:
  04411	8b 15 00 00 00
	00		 mov	 edx, DWORD PTR ?__LINE__Var@?0??process_received_entity_comms_messages@@YGXXZ@4JA
  04417	81 c2 8a 0a 00
	00		 add	 edx, 2698		; 00000a8aH
  0441d	52		 push	 edx
  0441e	68 00 00 00 00	 push	 OFFSET ??_C@_0EO@OCMIKFBI@c?3?2users?2nhv90?2projects?2eech?2ap@
  04423	a1 00 00 00 00	 mov	 eax, DWORD PTR ?overload_invalid_float_type_message@@3PBDB ; overload_invalid_float_type_message
  04428	50		 push	 eax
  04429	e8 00 00 00 00	 call	 ?process_assert@@YGXPBD0H@Z ; process_assert
  0442e	c7 85 bc f8 ff
	ff 00 00 00 00	 mov	 DWORD PTR tv2486[ebp], 0
$LN431@process_re:
  04438	51		 push	 ecx
  04439	0f 57 c0	 xorps	 xmm0, xmm0
  0443c	f3 0f 11 04 24	 movss	 DWORD PTR [esp], xmm0
  04441	68 93 00 00 00	 push	 147			; 00000093H
  04446	8b 8d c8 f9 ff
	ff		 mov	 ecx, DWORD PTR _en$2[ebp]
  0444c	51		 push	 ecx
  0444d	69 95 c0 f8 ff
	ff bc 02 00 00	 imul	 edx, DWORD PTR tv2478[ebp], 700
  04457	8b 85 bc f8 ff
	ff		 mov	 eax, DWORD PTR tv2486[ebp]
  0445d	8b 8c 82 00 00
	00 00		 mov	 ecx, DWORD PTR ?fn_set_local_entity_float_value@@3PAY0KP@P6GXPAUENTITY@@W4FLOAT_TYPES@@M@ZA[edx+eax*4]
  04464	ff d1		 call	 ecx

; 5589 : 
; 5590 : 				#if DEBUG_MODULE_MESSAGE_TEXT
; 5591 : 
; 5592 : 				debug_log ("EN_COMMS: received zero velocity for %s (%d)", get_local_entity_type_name (en), get_local_entity_index (en));
; 5593 : 
; 5594 : 				#endif
; 5595 : 
; 5596 : 				break;

  04466	eb 11		 jmp	 SHORT $LN4@process_re
$LN230@process_re:

; 5597 : 			}
; 5598 : 			////////////////////////////////////////
; 5599 : 			default:
; 5600 : 			////////////////////////////////////////
; 5601 : 			{
; 5602 : 				debug_fatal ("Received invalid entity comms message = %d", message);

  04468	8b 45 f8	 mov	 eax, DWORD PTR _message$[ebp]
  0446b	50		 push	 eax
  0446c	68 00 00 00 00	 push	 OFFSET ??_C@_0CL@BOMDEDKH@Received?5invalid?5entity?5comms?5m@
  04471	e8 00 00 00 00	 call	 ?debug_fatal@@YAXPBDZZ	; debug_fatal
  04476	83 c4 08	 add	 esp, 8
$LN4@process_re:

; 5603 : 
; 5604 : 				break;
; 5605 : 			}
; 5606 : 		}
; 5607 : 	}

  04479	e9 bd bb ff ff	 jmp	 $LN2@process_re
$LN3@process_re:

; 5608 : 
; 5609 : 	set_comms_data_flow (COMMS_DATA_FLOW_TX);

  0447e	6a 00		 push	 0
  04480	e8 00 00 00 00	 call	 ?set_comms_data_flow@@YGXW4COMMS_DATA_FLOW_TYPES@@@Z ; set_comms_data_flow

; 5610 : }

  04485	5f		 pop	 edi
  04486	5e		 pop	 esi
  04487	5b		 pop	 ebx
  04488	8b e5		 mov	 esp, ebp
  0448a	5d		 pop	 ebp
  0448b	c3		 ret	 0
$LN432@process_re:
  0448c	00 00 00 00	 DD	 $LN53@process_re
  04490	00 00 00 00	 DD	 $LN54@process_re
  04494	00 00 00 00	 DD	 $LN56@process_re
  04498	00 00 00 00	 DD	 $LN58@process_re
  0449c	00 00 00 00	 DD	 $LN59@process_re
  044a0	00 00 00 00	 DD	 $LN60@process_re
  044a4	00 00 00 00	 DD	 $LN61@process_re
  044a8	00 00 00 00	 DD	 $LN62@process_re
  044ac	00 00 00 00	 DD	 $LN63@process_re
  044b0	00 00 00 00	 DD	 $LN65@process_re
  044b4	00 00 00 00	 DD	 $LN66@process_re
  044b8	00 00 00 00	 DD	 $LN69@process_re
  044bc	00 00 00 00	 DD	 $LN70@process_re
  044c0	00 00 00 00	 DD	 $LN74@process_re
  044c4	00 00 00 00	 DD	 $LN78@process_re
  044c8	00 00 00 00	 DD	 $LN91@process_re
  044cc	00 00 00 00	 DD	 $LN94@process_re
  044d0	00 00 00 00	 DD	 $LN97@process_re
  044d4	00 00 00 00	 DD	 $LN99@process_re
  044d8	00 00 00 00	 DD	 $LN100@process_re
  044dc	00 00 00 00	 DD	 $LN101@process_re
  044e0	00 00 00 00	 DD	 $LN102@process_re
  044e4	00 00 00 00	 DD	 $LN103@process_re
  044e8	00 00 00 00	 DD	 $LN106@process_re
  044ec	00 00 00 00	 DD	 $LN109@process_re
  044f0	00 00 00 00	 DD	 $LN110@process_re
  044f4	00 00 00 00	 DD	 $LN112@process_re
  044f8	00 00 00 00	 DD	 $LN113@process_re
  044fc	00 00 00 00	 DD	 $LN116@process_re
  04500	00 00 00 00	 DD	 $LN118@process_re
  04504	00 00 00 00	 DD	 $LN120@process_re
  04508	00 00 00 00	 DD	 $LN122@process_re
  0450c	00 00 00 00	 DD	 $LN126@process_re
  04510	00 00 00 00	 DD	 $LN133@process_re
  04514	00 00 00 00	 DD	 $LN135@process_re
  04518	00 00 00 00	 DD	 $LN138@process_re
  0451c	00 00 00 00	 DD	 $LN141@process_re
  04520	00 00 00 00	 DD	 $LN144@process_re
  04524	00 00 00 00	 DD	 $LN147@process_re
  04528	00 00 00 00	 DD	 $LN151@process_re
  0452c	00 00 00 00	 DD	 $LN155@process_re
  04530	00 00 00 00	 DD	 $LN157@process_re
  04534	00 00 00 00	 DD	 $LN160@process_re
  04538	00 00 00 00	 DD	 $LN163@process_re
  0453c	00 00 00 00	 DD	 $LN170@process_re
  04540	00 00 00 00	 DD	 $LN172@process_re
  04544	00 00 00 00	 DD	 $LN173@process_re
  04548	00 00 00 00	 DD	 $LN175@process_re
  0454c	00 00 00 00	 DD	 $LN178@process_re
  04550	00 00 00 00	 DD	 $LN185@process_re
  04554	00 00 00 00	 DD	 $LN187@process_re
  04558	00 00 00 00	 DD	 $LN191@process_re
  0455c	00 00 00 00	 DD	 $LN195@process_re
  04560	00 00 00 00	 DD	 $LN197@process_re
  04564	00 00 00 00	 DD	 $LN230@process_re
  04568	00 00 00 00	 DD	 $LN201@process_re
  0456c	00 00 00 00	 DD	 $LN202@process_re
  04570	00 00 00 00	 DD	 $LN205@process_re
  04574	00 00 00 00	 DD	 $LN206@process_re
  04578	00 00 00 00	 DD	 $LN211@process_re
  0457c	00 00 00 00	 DD	 $LN219@process_re
  04580	00 00 00 00	 DD	 $LN221@process_re
  04584	00 00 00 00	 DD	 $LN223@process_re
  04588	00 00 00 00	 DD	 $LN224@process_re
  0458c	00 00 00 00	 DD	 $LN225@process_re
  04590	00 00 00 00	 DD	 $LN226@process_re
  04594	00 00 00 00	 DD	 $LN227@process_re
  04598	00 00 00 00	 DD	 $LN228@process_re
  0459c	00 00 00 00	 DD	 $LN229@process_re
?process_received_entity_comms_messages@@YGXXZ ENDP	; process_received_entity_comms_messages
_TEXT	ENDS
; Function compile flags: /Odtp /ZI
; File c:\users\nhv90\projects\eech\aphavoc\source\entity\system\en_comms\en_comms.c
;	COMDAT ?transmit_pfz@@YGXPAUENTITY@@0MMMMMMMMQAPAU1@@Z
_TEXT	SEGMENT
_i$ = -8						; size = 4
_target$ = -4						; size = 4
_sender$ = 8						; size = 4
_receiver$ = 12						; size = 4
_x1$ = 16						; size = 4
_y1$ = 20						; size = 4
_x2$ = 24						; size = 4
_y2$ = 28						; size = 4
_x3$ = 32						; size = 4
_y3$ = 36						; size = 4
_x4$ = 40						; size = 4
_y4$ = 44						; size = 4
_targets$ = 48						; size = 4
?transmit_pfz@@YGXPAUENTITY@@0MMMMMMMMQAPAU1@@Z PROC	; transmit_pfz, COMDAT

; 416  : {

  00000	55		 push	 ebp
  00001	8b ec		 mov	 ebp, esp
  00003	83 ec 48	 sub	 esp, 72			; 00000048H
  00006	53		 push	 ebx
  00007	56		 push	 esi
  00008	57		 push	 edi

; 417  : 	entity* target;
; 418  : 	int i;
; 419  : 
; 420  : 	////////////////////////////////////////
; 421  : 	//
; 422  : 	// trap single player or comms messages disabled
; 423  : 	//
; 424  : 	////////////////////////////////////////
; 425  : 
; 426  : 	if ((direct_play_get_comms_mode () == DIRECT_PLAY_COMMS_MODE_NONE) || (!comms_messages_enabled))

  00009	83 3d 00 00 00
	00 00		 cmp	 DWORD PTR ?direct_play_comms_mode@@3W4DIRECT_PLAY_COMMS_MODE_TYPES@@A, 0 ; direct_play_comms_mode
  00010	74 09		 je	 SHORT $LN6@transmit_p
  00012	83 3d 00 00 00
	00 00		 cmp	 DWORD PTR ?comms_messages_enabled@@3HA, 0
  00019	75 05		 jne	 SHORT $LN5@transmit_p
$LN6@transmit_p:

; 427  : 	{
; 428  : 		return;

  0001b	e9 2e 01 00 00	 jmp	 $LN1@transmit_p
$LN5@transmit_p:

; 429  : 	}
; 430  : 
; 431  : 	////////////////////////////////////////
; 432  : 	//
; 433  : 	// build message
; 434  : 	//
; 435  : 	////////////////////////////////////////
; 436  : 
; 437  : 	pack_entity_comms_message (ENTITY_COMMS_PILOT_PFZ_TRANSFER);

  00020	6a 20		 push	 32			; 00000020H
  00022	e8 00 00 00 00	 call	 ?pack_entity_comms_message@@YGXW4ENTITY_COMMS_MESSAGES@@@Z ; pack_entity_comms_message

; 438  : 
; 439  : 	pack_entity_safe_ptr (sender);

  00027	8b 45 08	 mov	 eax, DWORD PTR _sender$[ebp]
  0002a	50		 push	 eax
  0002b	e8 00 00 00 00	 call	 ?pack_entity_safe_ptr@@YGXPAUENTITY@@@Z ; pack_entity_safe_ptr

; 440  : 	pack_entity_safe_ptr (receiver);

  00030	8b 45 0c	 mov	 eax, DWORD PTR _receiver$[ebp]
  00033	50		 push	 eax
  00034	e8 00 00 00 00	 call	 ?pack_entity_safe_ptr@@YGXPAUENTITY@@@Z ; pack_entity_safe_ptr

; 441  : 
; 442  : 	pack_float_value(NULL, FLOAT_TYPE_PFZ_X1, x1);

  00039	51		 push	 ecx
  0003a	f3 0f 10 45 10	 movss	 xmm0, DWORD PTR _x1$[ebp]
  0003f	f3 0f 11 04 24	 movss	 DWORD PTR [esp], xmm0
  00044	68 a7 00 00 00	 push	 167			; 000000a7H
  00049	6a 00		 push	 0
  0004b	e8 00 00 00 00	 call	 ?pack_float_value@@YGXPAUENTITY@@W4FLOAT_TYPES@@M@Z ; pack_float_value

; 443  : 	pack_float_value(NULL, FLOAT_TYPE_PFZ_Y1, y1);

  00050	51		 push	 ecx
  00051	f3 0f 10 45 14	 movss	 xmm0, DWORD PTR _y1$[ebp]
  00056	f3 0f 11 04 24	 movss	 DWORD PTR [esp], xmm0
  0005b	68 a8 00 00 00	 push	 168			; 000000a8H
  00060	6a 00		 push	 0
  00062	e8 00 00 00 00	 call	 ?pack_float_value@@YGXPAUENTITY@@W4FLOAT_TYPES@@M@Z ; pack_float_value

; 444  : 	pack_float_value(NULL, FLOAT_TYPE_PFZ_X2, x2);

  00067	51		 push	 ecx
  00068	f3 0f 10 45 18	 movss	 xmm0, DWORD PTR _x2$[ebp]
  0006d	f3 0f 11 04 24	 movss	 DWORD PTR [esp], xmm0
  00072	68 a9 00 00 00	 push	 169			; 000000a9H
  00077	6a 00		 push	 0
  00079	e8 00 00 00 00	 call	 ?pack_float_value@@YGXPAUENTITY@@W4FLOAT_TYPES@@M@Z ; pack_float_value

; 445  : 	pack_float_value(NULL, FLOAT_TYPE_PFZ_Y2, y2);

  0007e	51		 push	 ecx
  0007f	f3 0f 10 45 1c	 movss	 xmm0, DWORD PTR _y2$[ebp]
  00084	f3 0f 11 04 24	 movss	 DWORD PTR [esp], xmm0
  00089	68 aa 00 00 00	 push	 170			; 000000aaH
  0008e	6a 00		 push	 0
  00090	e8 00 00 00 00	 call	 ?pack_float_value@@YGXPAUENTITY@@W4FLOAT_TYPES@@M@Z ; pack_float_value

; 446  : 	pack_float_value(NULL, FLOAT_TYPE_PFZ_X3, x3);

  00095	51		 push	 ecx
  00096	f3 0f 10 45 20	 movss	 xmm0, DWORD PTR _x3$[ebp]
  0009b	f3 0f 11 04 24	 movss	 DWORD PTR [esp], xmm0
  000a0	68 ab 00 00 00	 push	 171			; 000000abH
  000a5	6a 00		 push	 0
  000a7	e8 00 00 00 00	 call	 ?pack_float_value@@YGXPAUENTITY@@W4FLOAT_TYPES@@M@Z ; pack_float_value

; 447  : 	pack_float_value(NULL, FLOAT_TYPE_PFZ_Y3, y3);

  000ac	51		 push	 ecx
  000ad	f3 0f 10 45 24	 movss	 xmm0, DWORD PTR _y3$[ebp]
  000b2	f3 0f 11 04 24	 movss	 DWORD PTR [esp], xmm0
  000b7	68 ac 00 00 00	 push	 172			; 000000acH
  000bc	6a 00		 push	 0
  000be	e8 00 00 00 00	 call	 ?pack_float_value@@YGXPAUENTITY@@W4FLOAT_TYPES@@M@Z ; pack_float_value

; 448  : 	pack_float_value(NULL, FLOAT_TYPE_PFZ_X4, x4);

  000c3	51		 push	 ecx
  000c4	f3 0f 10 45 28	 movss	 xmm0, DWORD PTR _x4$[ebp]
  000c9	f3 0f 11 04 24	 movss	 DWORD PTR [esp], xmm0
  000ce	68 ad 00 00 00	 push	 173			; 000000adH
  000d3	6a 00		 push	 0
  000d5	e8 00 00 00 00	 call	 ?pack_float_value@@YGXPAUENTITY@@W4FLOAT_TYPES@@M@Z ; pack_float_value

; 449  : 	pack_float_value(NULL, FLOAT_TYPE_PFZ_Y1, y4);

  000da	51		 push	 ecx
  000db	f3 0f 10 45 2c	 movss	 xmm0, DWORD PTR _y4$[ebp]
  000e0	f3 0f 11 04 24	 movss	 DWORD PTR [esp], xmm0
  000e5	68 a8 00 00 00	 push	 168			; 000000a8H
  000ea	6a 00		 push	 0
  000ec	e8 00 00 00 00	 call	 ?pack_float_value@@YGXPAUENTITY@@W4FLOAT_TYPES@@M@Z ; pack_float_value

; 450  : 
; 451  : 	// pack list of targets
; 452  : 	for (target = targets[0], i=0; target && i < 16; target = targets[i], i++)

  000f1	b8 04 00 00 00	 mov	 eax, 4
  000f6	6b c8 00	 imul	 ecx, eax, 0
  000f9	8b 55 30	 mov	 edx, DWORD PTR _targets$[ebp]
  000fc	8b 04 0a	 mov	 eax, DWORD PTR [edx+ecx]
  000ff	89 45 fc	 mov	 DWORD PTR _target$[ebp], eax
  00102	c7 45 f8 00 00
	00 00		 mov	 DWORD PTR _i$[ebp], 0
  00109	eb 15		 jmp	 SHORT $LN4@transmit_p
$LN2@transmit_p:
  0010b	8b 45 f8	 mov	 eax, DWORD PTR _i$[ebp]
  0010e	8b 4d 30	 mov	 ecx, DWORD PTR _targets$[ebp]
  00111	8b 14 81	 mov	 edx, DWORD PTR [ecx+eax*4]
  00114	89 55 fc	 mov	 DWORD PTR _target$[ebp], edx
  00117	8b 45 f8	 mov	 eax, DWORD PTR _i$[ebp]
  0011a	83 c0 01	 add	 eax, 1
  0011d	89 45 f8	 mov	 DWORD PTR _i$[ebp], eax
$LN4@transmit_p:
  00120	83 7d fc 00	 cmp	 DWORD PTR _target$[ebp], 0
  00124	74 21		 je	 SHORT $LN3@transmit_p
  00126	83 7d f8 10	 cmp	 DWORD PTR _i$[ebp], 16	; 00000010H
  0012a	7d 1b		 jge	 SHORT $LN3@transmit_p

; 453  : 		if (target != sender && target != receiver)

  0012c	8b 45 fc	 mov	 eax, DWORD PTR _target$[ebp]
  0012f	3b 45 08	 cmp	 eax, DWORD PTR _sender$[ebp]
  00132	74 11		 je	 SHORT $LN7@transmit_p
  00134	8b 45 fc	 mov	 eax, DWORD PTR _target$[ebp]
  00137	3b 45 0c	 cmp	 eax, DWORD PTR _receiver$[ebp]
  0013a	74 09		 je	 SHORT $LN7@transmit_p

; 454  : 			pack_entity_safe_ptr(target);

  0013c	8b 45 fc	 mov	 eax, DWORD PTR _target$[ebp]
  0013f	50		 push	 eax
  00140	e8 00 00 00 00	 call	 ?pack_entity_safe_ptr@@YGXPAUENTITY@@@Z ; pack_entity_safe_ptr
$LN7@transmit_p:

; 455  : 
; 456  : 	// end marker
; 457  : 	pack_entity_safe_ptr(NULL);

  00145	eb c4		 jmp	 SHORT $LN2@transmit_p
$LN3@transmit_p:
  00147	6a 00		 push	 0
  00149	e8 00 00 00 00	 call	 ?pack_entity_safe_ptr@@YGXPAUENTITY@@@Z ; pack_entity_safe_ptr
$LN1@transmit_p:

; 458  : }

  0014e	5f		 pop	 edi
  0014f	5e		 pop	 esi
  00150	5b		 pop	 ebx
  00151	8b e5		 mov	 esp, ebp
  00153	5d		 pop	 ebp
  00154	c2 2c 00	 ret	 44			; 0000002cH
?transmit_pfz@@YGXPAUENTITY@@0MMMMMMMMQAPAU1@@Z ENDP	; transmit_pfz
_TEXT	ENDS
; Function compile flags: /Odtp /ZI
; File c:\users\nhv90\projects\eech\aphavoc\source\entity\system\en_comms\en_comms.c
;	COMDAT ?transmit_entity_comms_message@@YAXW4ENTITY_COMMS_MESSAGES@@PAUENTITY@@ZZ
_TEXT	SEGMENT
tv1897 = -720						; size = 4
tv1807 = -720						; size = 4
tv1182 = -720						; size = 4
tv1120 = -720						; size = 4
tv1889 = -716						; size = 4
tv1799 = -716						; size = 4
tv1174 = -716						; size = 4
tv1112 = -716						; size = 4
tv1873 = -712						; size = 4
tv1783 = -712						; size = 4
tv1695 = -712						; size = 4
tv1634 = -712						; size = 4
tv1166 = -712						; size = 4
tv1104 = -712						; size = 4
tv2320 = -708						; size = 8
tv1865 = -708						; size = 4
tv1775 = -708						; size = 4
tv1687 = -708						; size = 4
tv1626 = -708						; size = 4
tv1156 = -708						; size = 4
tv1094 = -708						; size = 4
tv1849 = -704						; size = 4
tv1759 = -704						; size = 4
tv1717 = -704						; size = 4
tv1674 = -704						; size = 4
tv1613 = -704						; size = 4
tv1148 = -704						; size = 4
tv1086 = -704						; size = 4
tv801 = -704						; size = 4
tv760 = -704						; size = 4
tv574 = -704						; size = 4
tv550 = -704						; size = 4
tv527 = -704						; size = 4
tv505 = -704						; size = 4
tv2317 = -700						; size = 4
tv1917 = -700						; size = 4
tv1841 = -700						; size = 4
tv1751 = -700						; size = 4
tv1709 = -700						; size = 4
tv1666 = -700						; size = 4
tv1605 = -700						; size = 4
tv1586 = -700						; size = 4
tv1514 = -700						; size = 4
tv1400 = -700						; size = 4
tv1361 = -700						; size = 4
tv1235 = -700						; size = 4
tv1217 = -700						; size = 4
tv1140 = -700						; size = 4
tv1078 = -700						; size = 4
tv792 = -700						; size = 4
tv751 = -700						; size = 4
tv566 = -700						; size = 4
tv542 = -700						; size = 4
tv519 = -700						; size = 4
tv497 = -700						; size = 4
tv68 = -700						; size = 4
_v$1 = -564						; size = 4
_type$2 = -560						; size = 4
_in_use$3 = -556					; size = 4
_aggressor$4 = -552					; size = 4
_victim$5 = -548					; size = 4
_aggressor$6 = -544					; size = 4
_victim$7 = -540					; size = 4
_mobile$8 = -536					; size = 4
_task$9 = -532						; size = 4
_mobile$10 = -528					; size = 4
_task$11 = -524						; size = 4
_parent$12 = -520					; size = 4
_type$13 = -516						; size = 4
_parent$14 = -512					; size = 4
_type2$15 = -508					; size = 4
_type1$16 = -504					; size = 4
_s$17 = -500						; size = 4
_type$18 = -496						; size = 4
_wp$19 = -492						; size = 4
_loop$20 = -488						; size = 4
_raw$21 = -484						; size = 4
_position_entity$22 = -480				; size = 4
_value$23 = -476					; size = 4
_valid$24 = -472					; size = 4
_type$25 = -468						; size = 4
_target_count$26 = -464					; size = 4
_index_list$27 = -460					; size = 4
_loop$28 = -456						; size = 4
_destination$29 = -452					; size = 4
_raw$30 = -448						; size = 4
_type$31 = -444						; size = 4
_operational_state$32 = -440				; size = 4
_pos$33 = -436						; size = 4
_destination$34 = -432					; size = 4
_message_value$35 = -428				; size = 4
_message_type$36 = -424					; size = 4
_task$37 = -420						; size = 4
_task$38 = -416						; size = 4
_victim$39 = -412					; size = 4
_aggressor$40 = -408					; size = 4
_speech_index$41 = -404					; size = 4
_category_silence_timer$42 = -400			; size = 4
_expire_time$43 = -396					; size = 4
_priority$44 = -392					; size = 4
_speech_category$45 = -388				; size = 4
_speech_index$46 = -384					; size = 4
_speech_index3$47 = -380				; size = 4
_speech_index2$48 = -376				; size = 4
_speech_index1$49 = -372				; size = 4
_destination_id$50 = -368				; size = 4
_pilot_index$51 = -364					; size = 4
_type$52 = -360						; size = 4
_target$53 = -356					; size = 4
_message$54 = -352					; size = 4
_weapon_sub_type$55 = -348				; size = 4
_delay$56 = -344					; size = 4
_type$57 = -340						; size = 4
_pos$58 = -336						; size = 4
_wp$59 = -332						; size = 4
_victim$60 = -328					; size = 4
_value$61 = -324					; size = 4
_type$62 = -320						; size = 4
_value$63 = -316					; size = 4
_type$64 = -312						; size = 4
_weapon_sub_type$65 = -308				; size = 4
_weapon_package_damaged$66 = -304			; size = 4
_weapon_package_heading_depth$67 = -300			; size = 4
_damage_level$68 = -296					; size = 4
_index$69 = -292					; size = 4
_damage$70 = -288					; size = 4
_random$71 = -284					; size = 4
_index$72 = -280					; size = 4
_smoke_trail_type$73 = -276				; size = 4
_i$74 = -272						; size = 4
_num_smoke_trail_entities$75 = -268			; size = 4
_smoke_trail_indices$76 = -264				; size = 4
_burst_size$77 = -260					; size = 4
_weapon_index$78 = -256					; size = 4
_weapon_sub_type$79 = -252				; size = 4
_launcher$80 = -248					; size = 4
_check_sum$81 = -244					; size = 4
_count$82 = -240					; size = 4
_return_keysite$83 = -236				; size = 4
_group$84 = -232					; size = 4
_wp$85 = -228						; size = 4
_stop$86 = -224						; size = 4
_start$87 = -220					; size = 4
_position$88 = -216					; size = 4
_pitch$89 = -212					; size = 4
_amp$90 = -208						; size = 4
_sample_index_list$91 = -204				; size = 4
_sample_count$92 = -200					; size = 4
_position_valid$93 = -196				; size = 4
_looping$94 = -192					; size = 4
_locality$95 = -188					; size = 4
_channel$96 = -184					; size = 4
_side$97 = -180						; size = 4
_valid$98 = -176					; size = 4
_index$99 = -172					; size = 4
_loop$100 = -168					; size = 4
_sub_type$101 = -164					; size = 4
_parent$102 = -160					; size = 4
_entity_index_list$103 = -156				; size = 4
_sub_object_depth$104 = -152				; size = 4
_sub_object_type$105 = -148				; size = 4
_list_count$106 = -144					; size = 4
_index$107 = -140					; size = 4
_loop$108 = -136					; size = 4
_type$109 = -132					; size = 4
_parent$110 = -128					; size = 4
_def_pos$111 = -124					; size = 12
_rel_pos$112 = -112					; size = 4
_entity_index_list$113 = -108				; size = 4
_list_count$114 = -104					; size = 4
_index$115 = -100					; size = 4
_loop$116 = -96						; size = 4
_type$117 = -92						; size = 4
_parent$118 = -88					; size = 4
_position$119 = -84					; size = 4
_entity_index_list$120 = -80				; size = 4
_list_count$121 = -76					; size = 4
_index$122 = -72					; size = 4
_loop$123 = -68						; size = 4
_type$124 = -64						; size = 4
_parent$125 = -60					; size = 4
_buffer$126 = -56					; size = 4
_index$127 = -52					; size = 4
_type$128 = -48						; size = 4
_value$129 = -41					; size = 1
_type$130 = -40						; size = 4
_side$131 = -36						; size = 4
_complete$132 = -32					; size = 4
_side$133 = -28						; size = 4
_attitude$134 = -24					; size = 4
_roll$135 = -20						; size = 4
_pitch$136 = -16					; size = 4
_heading$137 = -12					; size = 4
_pos$138 = -8						; size = 4
_pargs$ = -4						; size = 4
_message$ = 8						; size = 4
_en$ = 12						; size = 4
?transmit_entity_comms_message@@YAXW4ENTITY_COMMS_MESSAGES@@PAUENTITY@@ZZ PROC ; transmit_entity_comms_message, COMDAT

; 473  : {

  00000	55		 push	 ebp
  00001	8b ec		 mov	 ebp, esp
  00003	81 ec d0 02 00
	00		 sub	 esp, 720		; 000002d0H
  00009	53		 push	 ebx
  0000a	56		 push	 esi
  0000b	57		 push	 edi

; 474  : 	va_list
; 475  : 		pargs;
; 476  : 
; 477  : 	////////////////////////////////////////
; 478  : 	//
; 479  : 	// trap single player or comms messages disabled
; 480  : 	//
; 481  : 	////////////////////////////////////////
; 482  : 
; 483  : 	if ((direct_play_get_comms_mode () == DIRECT_PLAY_COMMS_MODE_NONE) || (!comms_messages_enabled))

  0000c	83 3d 00 00 00
	00 00		 cmp	 DWORD PTR ?direct_play_comms_mode@@3W4DIRECT_PLAY_COMMS_MODE_TYPES@@A, 0 ; direct_play_comms_mode
  00013	74 09		 je	 SHORT $LN39@transmit_e
  00015	83 3d 00 00 00
	00 00		 cmp	 DWORD PTR ?comms_messages_enabled@@3HA, 0
  0001c	75 05		 jne	 SHORT $LN38@transmit_e
$LN39@transmit_e:

; 484  : 	{
; 485  : 		return;

  0001e	e9 a9 35 00 00	 jmp	 $LN1@transmit_e
$LN38@transmit_e:

; 486  : 	}
; 487  : 
; 488  : 	////////////////////////////////////////
; 489  : 	//
; 490  : 	// build message
; 491  : 	//
; 492  : 	////////////////////////////////////////
; 493  : 
; 494  : 	va_start (pargs, en);

  00023	8d 45 10	 lea	 eax, DWORD PTR _en$[ebp+4]
  00026	89 45 fc	 mov	 DWORD PTR _pargs$[ebp], eax

; 495  : 
; 496  : 	pack_entity_comms_message (message);

  00029	8b 45 08	 mov	 eax, DWORD PTR _message$[ebp]
  0002c	50		 push	 eax
  0002d	e8 00 00 00 00	 call	 ?pack_entity_comms_message@@YGXW4ENTITY_COMMS_MESSAGES@@@Z ; pack_entity_comms_message

; 497  : 
; 498  : 	switch (message)

  00032	8b 45 08	 mov	 eax, DWORD PTR _message$[ebp]
  00035	89 85 44 fd ff
	ff		 mov	 DWORD PTR tv68[ebp], eax
  0003b	83 bd 44 fd ff
	ff 44		 cmp	 DWORD PTR tv68[ebp], 68	; 00000044H
  00042	0f 87 6c 35 00
	00		 ja	 $LN218@transmit_e
  00048	8b 8d 44 fd ff
	ff		 mov	 ecx, DWORD PTR tv68[ebp]
  0004e	ff 24 8d 00 00
	00 00		 jmp	 DWORD PTR $LN326@transmit_e[ecx*4]
$LN40@transmit_e:

; 499  : 	{
; 500  : 		////////////////////////////////////////
; 501  : 		case ENTITY_COMMS_ZERO:
; 502  : 		////////////////////////////////////////
; 503  : 		{
; 504  : 			debug_fatal ("ENTITY_COMMS_ZERO encountered during transmit");

  00055	68 00 00 00 00	 push	 OFFSET ??_C@_0CO@GJCCLBOC@ENTITY_COMMS_ZERO?5encountered?5d@
  0005a	e8 00 00 00 00	 call	 ?debug_fatal@@YAXPBDZZ	; debug_fatal
  0005f	83 c4 04	 add	 esp, 4

; 505  : 
; 506  : 			break;

  00062	e9 5e 35 00 00	 jmp	 $LN2@transmit_e
$LN41@transmit_e:

; 507  : 		}
; 508  : 		////////////////////////////////////////
; 509  : 		case ENTITY_COMMS_ADD_PLANNER_WAYPOINT:
; 510  : 		////////////////////////////////////////
; 511  : 		{
; 512  : 			vec3d
; 513  : 				*pos;
; 514  : 
; 515  : 			//
; 516  : 			// (entity_comms_messages message, entity *wp, vec3d *pos)
; 517  : 			//
; 518  : 
; 519  : 			ASSERT (en);

  00067	83 7d 0c 00	 cmp	 DWORD PTR _en$[ebp], 0
  0006b	75 18		 jne	 SHORT $LN42@transmit_e
  0006d	a1 00 00 00 00	 mov	 eax, DWORD PTR ?__LINE__Var@?0??transmit_entity_comms_message@@YAXW4ENTITY_COMMS_MESSAGES@@PAUENTITY@@ZZ@4JA
  00072	83 c0 2e	 add	 eax, 46			; 0000002eH
  00075	50		 push	 eax
  00076	68 00 00 00 00	 push	 OFFSET ??_C@_0EO@OCMIKFBI@c?3?2users?2nhv90?2projects?2eech?2ap@
  0007b	68 00 00 00 00	 push	 OFFSET ??_C@_02LFNMGJAP@en@
  00080	e8 00 00 00 00	 call	 ?process_assert@@YGXPBD0H@Z ; process_assert
$LN42@transmit_e:

; 520  : 
; 521  : 			pack_entity_safe_ptr (en);

  00085	8b 45 0c	 mov	 eax, DWORD PTR _en$[ebp]
  00088	50		 push	 eax
  00089	e8 00 00 00 00	 call	 ?pack_entity_safe_ptr@@YGXPAUENTITY@@@Z ; pack_entity_safe_ptr

; 522  : 
; 523  : 			pos = va_arg (pargs, vec3d *);

  0008e	8b 45 fc	 mov	 eax, DWORD PTR _pargs$[ebp]
  00091	83 c0 04	 add	 eax, 4
  00094	89 45 fc	 mov	 DWORD PTR _pargs$[ebp], eax
  00097	8b 4d fc	 mov	 ecx, DWORD PTR _pargs$[ebp]
  0009a	8b 51 fc	 mov	 edx, DWORD PTR [ecx-4]
  0009d	89 55 f8	 mov	 DWORD PTR _pos$138[ebp], edx

; 524  : 
; 525  : 			pack_vec3d (en, VEC3D_TYPE_POSITION, pos);

  000a0	8b 45 f8	 mov	 eax, DWORD PTR _pos$138[ebp]
  000a3	50		 push	 eax
  000a4	6a 08		 push	 8
  000a6	8b 4d 0c	 mov	 ecx, DWORD PTR _en$[ebp]
  000a9	51		 push	 ecx
  000aa	e8 00 00 00 00	 call	 ?pack_vec3d@@YGXPAUENTITY@@W4VEC3D_TYPES@@PAUVEC3D@@@Z ; pack_vec3d

; 526  : 
; 527  : 			#if DEBUG_MODULE_MESSAGE_TEXT
; 528  : 
; 529  : 			debug_log ("EN_COMMS: sending add planner waypoint at %f, %f, %f", pos->x, pos->y, pos->z);
; 530  : 
; 531  : 			#endif
; 532  : 
; 533  : 			break;

  000af	e9 11 35 00 00	 jmp	 $LN2@transmit_e
$LN43@transmit_e:

; 534  : 		}
; 535  : 		////////////////////////////////////////
; 536  : 		case ENTITY_COMMS_ADVISE_TRANSMIT_RECON:
; 537  : 		////////////////////////////////////////
; 538  : 		{
; 539  : 			//
; 540  : 			// (entity_comms_messages message, entity *wp)
; 541  : 			//
; 542  : 
; 543  : 			ASSERT (en);

  000b4	83 7d 0c 00	 cmp	 DWORD PTR _en$[ebp], 0
  000b8	75 18		 jne	 SHORT $LN44@transmit_e
  000ba	a1 00 00 00 00	 mov	 eax, DWORD PTR ?__LINE__Var@?0??transmit_entity_comms_message@@YAXW4ENTITY_COMMS_MESSAGES@@PAUENTITY@@ZZ@4JA
  000bf	83 c0 46	 add	 eax, 70			; 00000046H
  000c2	50		 push	 eax
  000c3	68 00 00 00 00	 push	 OFFSET ??_C@_0EO@OCMIKFBI@c?3?2users?2nhv90?2projects?2eech?2ap@
  000c8	68 00 00 00 00	 push	 OFFSET ??_C@_02LFNMGJAP@en@
  000cd	e8 00 00 00 00	 call	 ?process_assert@@YGXPBD0H@Z ; process_assert
$LN44@transmit_e:

; 544  : 
; 545  : 			pack_entity_safe_ptr (en);

  000d2	8b 45 0c	 mov	 eax, DWORD PTR _en$[ebp]
  000d5	50		 push	 eax
  000d6	e8 00 00 00 00	 call	 ?pack_entity_safe_ptr@@YGXPAUENTITY@@@Z ; pack_entity_safe_ptr

; 546  : 
; 547  : 			#if DEBUG_MODULE_MESSAGE_TEXT
; 548  : 
; 549  : 			debug_log ("EN_COMMS: sending advise transmit recon");
; 550  : 
; 551  : 			#endif
; 552  : 
; 553  : 			break;

  000db	e9 e5 34 00 00	 jmp	 $LN2@transmit_e
$LN45@transmit_e:

; 554  : 		}
; 555  : 		////////////////////////////////////////
; 556  : 		case ENTITY_COMMS_ATTITUDE_ANGLES:
; 557  : 		////////////////////////////////////////
; 558  : 		{
; 559  : 			//
; 560  : 			// (entity_comms_messages message, entity *en, float heading, float pitch, float roll)
; 561  : 			//
; 562  : 
; 563  : 			float
; 564  : 				heading,
; 565  : 				pitch,
; 566  : 				roll;
; 567  : 
; 568  : 			ASSERT (en);

  000e0	83 7d 0c 00	 cmp	 DWORD PTR _en$[ebp], 0
  000e4	75 18		 jne	 SHORT $LN46@transmit_e
  000e6	a1 00 00 00 00	 mov	 eax, DWORD PTR ?__LINE__Var@?0??transmit_entity_comms_message@@YAXW4ENTITY_COMMS_MESSAGES@@PAUENTITY@@ZZ@4JA
  000eb	83 c0 5f	 add	 eax, 95			; 0000005fH
  000ee	50		 push	 eax
  000ef	68 00 00 00 00	 push	 OFFSET ??_C@_0EO@OCMIKFBI@c?3?2users?2nhv90?2projects?2eech?2ap@
  000f4	68 00 00 00 00	 push	 OFFSET ??_C@_02LFNMGJAP@en@
  000f9	e8 00 00 00 00	 call	 ?process_assert@@YGXPBD0H@Z ; process_assert
$LN46@transmit_e:

; 569  : 
; 570  : 			pack_entity_safe_ptr (en);

  000fe	8b 45 0c	 mov	 eax, DWORD PTR _en$[ebp]
  00101	50		 push	 eax
  00102	e8 00 00 00 00	 call	 ?pack_entity_safe_ptr@@YGXPAUENTITY@@@Z ; pack_entity_safe_ptr

; 571  : 
; 572  : 			heading = va_arg (pargs, double);

  00107	8b 45 fc	 mov	 eax, DWORD PTR _pargs$[ebp]
  0010a	83 c0 08	 add	 eax, 8
  0010d	89 45 fc	 mov	 DWORD PTR _pargs$[ebp], eax
  00110	8b 4d fc	 mov	 ecx, DWORD PTR _pargs$[ebp]
  00113	f2 0f 5a 41 f8	 cvtsd2ss xmm0, QWORD PTR [ecx-8]
  00118	f3 0f 11 45 f4	 movss	 DWORD PTR _heading$137[ebp], xmm0

; 573  : 
; 574  : 			pitch = va_arg (pargs, double);

  0011d	8b 45 fc	 mov	 eax, DWORD PTR _pargs$[ebp]
  00120	83 c0 08	 add	 eax, 8
  00123	89 45 fc	 mov	 DWORD PTR _pargs$[ebp], eax
  00126	8b 4d fc	 mov	 ecx, DWORD PTR _pargs$[ebp]
  00129	f2 0f 5a 41 f8	 cvtsd2ss xmm0, QWORD PTR [ecx-8]
  0012e	f3 0f 11 45 f0	 movss	 DWORD PTR _pitch$136[ebp], xmm0

; 575  : 
; 576  : 			roll = va_arg (pargs, double);

  00133	8b 45 fc	 mov	 eax, DWORD PTR _pargs$[ebp]
  00136	83 c0 08	 add	 eax, 8
  00139	89 45 fc	 mov	 DWORD PTR _pargs$[ebp], eax
  0013c	8b 4d fc	 mov	 ecx, DWORD PTR _pargs$[ebp]
  0013f	f2 0f 5a 41 f8	 cvtsd2ss xmm0, QWORD PTR [ecx-8]
  00144	f3 0f 11 45 ec	 movss	 DWORD PTR _roll$135[ebp], xmm0

; 577  : 
; 578  : 			pack_attitude_angles (en, heading, pitch, roll);

  00149	51		 push	 ecx
  0014a	f3 0f 10 45 ec	 movss	 xmm0, DWORD PTR _roll$135[ebp]
  0014f	f3 0f 11 04 24	 movss	 DWORD PTR [esp], xmm0
  00154	51		 push	 ecx
  00155	f3 0f 10 45 f0	 movss	 xmm0, DWORD PTR _pitch$136[ebp]
  0015a	f3 0f 11 04 24	 movss	 DWORD PTR [esp], xmm0
  0015f	51		 push	 ecx
  00160	f3 0f 10 45 f4	 movss	 xmm0, DWORD PTR _heading$137[ebp]
  00165	f3 0f 11 04 24	 movss	 DWORD PTR [esp], xmm0
  0016a	8b 45 0c	 mov	 eax, DWORD PTR _en$[ebp]
  0016d	50		 push	 eax
  0016e	e8 00 00 00 00	 call	 ?pack_attitude_angles@@YGXPAUENTITY@@MMM@Z ; pack_attitude_angles

; 579  : 
; 580  : 			#if DEBUG_MODULE_MESSAGE_TEXT
; 581  : 
; 582  : 			debug_log ("EN_COMMS: sending attitude angle for %s (%d)", get_local_entity_type_name (en), get_local_entity_index (en));
; 583  : 
; 584  : 			#endif
; 585  : 
; 586  : 			break;

  00173	e9 4d 34 00 00	 jmp	 $LN2@transmit_e
$LN47@transmit_e:

; 587  : 		}
; 588  : 		////////////////////////////////////////
; 589  : 		case ENTITY_COMMS_ATTITUDE_MATRIX:
; 590  : 		////////////////////////////////////////
; 591  : 		{
; 592  : 			//
; 593  : 			// (entity_comms_messages message, entity *en, matrix3x3 attitude)
; 594  : 			//
; 595  : 
; 596  : 			matrix3x3
; 597  : 				*attitude;
; 598  : 
; 599  : 			ASSERT (en);

  00178	83 7d 0c 00	 cmp	 DWORD PTR _en$[ebp], 0
  0017c	75 18		 jne	 SHORT $LN48@transmit_e
  0017e	a1 00 00 00 00	 mov	 eax, DWORD PTR ?__LINE__Var@?0??transmit_entity_comms_message@@YAXW4ENTITY_COMMS_MESSAGES@@PAUENTITY@@ZZ@4JA
  00183	83 c0 7e	 add	 eax, 126		; 0000007eH
  00186	50		 push	 eax
  00187	68 00 00 00 00	 push	 OFFSET ??_C@_0EO@OCMIKFBI@c?3?2users?2nhv90?2projects?2eech?2ap@
  0018c	68 00 00 00 00	 push	 OFFSET ??_C@_02LFNMGJAP@en@
  00191	e8 00 00 00 00	 call	 ?process_assert@@YGXPBD0H@Z ; process_assert
$LN48@transmit_e:

; 600  : 
; 601  : 			pack_entity_safe_ptr (en);

  00196	8b 45 0c	 mov	 eax, DWORD PTR _en$[ebp]
  00199	50		 push	 eax
  0019a	e8 00 00 00 00	 call	 ?pack_entity_safe_ptr@@YGXPAUENTITY@@@Z ; pack_entity_safe_ptr

; 602  : 
; 603  : 			attitude = va_arg (pargs, matrix3x3 *);

  0019f	8b 45 fc	 mov	 eax, DWORD PTR _pargs$[ebp]
  001a2	83 c0 04	 add	 eax, 4
  001a5	89 45 fc	 mov	 DWORD PTR _pargs$[ebp], eax
  001a8	8b 4d fc	 mov	 ecx, DWORD PTR _pargs$[ebp]
  001ab	8b 51 fc	 mov	 edx, DWORD PTR [ecx-4]
  001ae	89 55 e8	 mov	 DWORD PTR _attitude$134[ebp], edx

; 604  : 
; 605  : 			pack_attitude_matrix (en, *attitude);

  001b1	8b 45 e8	 mov	 eax, DWORD PTR _attitude$134[ebp]
  001b4	50		 push	 eax
  001b5	8b 4d 0c	 mov	 ecx, DWORD PTR _en$[ebp]
  001b8	51		 push	 ecx
  001b9	e8 00 00 00 00	 call	 ?pack_attitude_matrix@@YGXPAUENTITY@@QAY02M@Z ; pack_attitude_matrix

; 606  : 
; 607  : 			#if DEBUG_MODULE_MESSAGE_TEXT
; 608  : 
; 609  : 			debug_log ("EN_COMMS: sending attitude matrix for %s (%d)", get_local_entity_type_name (en), get_local_entity_index (en));
; 610  : 
; 611  : 			#endif
; 612  : 
; 613  : 			break;

  001be	e9 02 34 00 00	 jmp	 $LN2@transmit_e
$LN49@transmit_e:

; 614  : 		}
; 615  : 		////////////////////////////////////////
; 616  : 		case ENTITY_COMMS_CAMPAIGN_COMPLETED:
; 617  : 		////////////////////////////////////////
; 618  : 		{
; 619  : 			//
; 620  : 			// (entity_comms_messages message, entity *en, int side)
; 621  : 			//
; 622  : 
; 623  : 			entity_sides
; 624  : 				side;
; 625  : 
; 626  : 			campaign_completed_types
; 627  : 				complete;
; 628  : 
; 629  : 			ASSERT (get_comms_model () == COMMS_MODEL_SERVER);

  001c3	83 3d 00 00 00
	00 00		 cmp	 DWORD PTR ?system_comms_model@@3W4COMMS_MODEL_TYPES@@A, 0 ; system_comms_model
  001ca	74 1a		 je	 SHORT $LN50@transmit_e
  001cc	a1 00 00 00 00	 mov	 eax, DWORD PTR ?__LINE__Var@?0??transmit_entity_comms_message@@YAXW4ENTITY_COMMS_MESSAGES@@PAUENTITY@@ZZ@4JA
  001d1	05 9c 00 00 00	 add	 eax, 156		; 0000009cH
  001d6	50		 push	 eax
  001d7	68 00 00 00 00	 push	 OFFSET ??_C@_0EO@OCMIKFBI@c?3?2users?2nhv90?2projects?2eech?2ap@
  001dc	68 00 00 00 00	 push	 OFFSET ??_C@_0CJ@DMBLBJBK@get_comms_model?5?$CI?$CJ?5?$DN?$DN?5COMMS_MOD@
  001e1	e8 00 00 00 00	 call	 ?process_assert@@YGXPBD0H@Z ; process_assert
$LN50@transmit_e:

; 630  : 
; 631  : 			ASSERT (en);

  001e6	83 7d 0c 00	 cmp	 DWORD PTR _en$[ebp], 0
  001ea	75 1a		 jne	 SHORT $LN51@transmit_e
  001ec	a1 00 00 00 00	 mov	 eax, DWORD PTR ?__LINE__Var@?0??transmit_entity_comms_message@@YAXW4ENTITY_COMMS_MESSAGES@@PAUENTITY@@ZZ@4JA
  001f1	05 9e 00 00 00	 add	 eax, 158		; 0000009eH
  001f6	50		 push	 eax
  001f7	68 00 00 00 00	 push	 OFFSET ??_C@_0EO@OCMIKFBI@c?3?2users?2nhv90?2projects?2eech?2ap@
  001fc	68 00 00 00 00	 push	 OFFSET ??_C@_02LFNMGJAP@en@
  00201	e8 00 00 00 00	 call	 ?process_assert@@YGXPBD0H@Z ; process_assert
$LN51@transmit_e:

; 632  : 
; 633  : 			pack_entity_safe_ptr (en);

  00206	8b 45 0c	 mov	 eax, DWORD PTR _en$[ebp]
  00209	50		 push	 eax
  0020a	e8 00 00 00 00	 call	 ?pack_entity_safe_ptr@@YGXPAUENTITY@@@Z ; pack_entity_safe_ptr

; 634  : 
; 635  : 			side = va_arg (pargs, entity_sides);

  0020f	8b 45 fc	 mov	 eax, DWORD PTR _pargs$[ebp]
  00212	83 c0 04	 add	 eax, 4
  00215	89 45 fc	 mov	 DWORD PTR _pargs$[ebp], eax
  00218	8b 4d fc	 mov	 ecx, DWORD PTR _pargs$[ebp]
  0021b	8b 51 fc	 mov	 edx, DWORD PTR [ecx-4]
  0021e	89 55 e4	 mov	 DWORD PTR _side$133[ebp], edx

; 636  : 
; 637  : 			pack_int_value (en, INT_TYPE_SIDE, side);

  00221	8b 45 e4	 mov	 eax, DWORD PTR _side$133[ebp]
  00224	50		 push	 eax
  00225	68 bb 00 00 00	 push	 187			; 000000bbH
  0022a	8b 4d 0c	 mov	 ecx, DWORD PTR _en$[ebp]
  0022d	51		 push	 ecx
  0022e	e8 00 00 00 00	 call	 ?pack_int_value@@YGXPAUENTITY@@W4INT_TYPES@@H@Z ; pack_int_value

; 638  : 
; 639  : 			complete = (campaign_completed_types) va_arg (pargs, int);

  00233	8b 45 fc	 mov	 eax, DWORD PTR _pargs$[ebp]
  00236	83 c0 04	 add	 eax, 4
  00239	89 45 fc	 mov	 DWORD PTR _pargs$[ebp], eax
  0023c	8b 4d fc	 mov	 ecx, DWORD PTR _pargs$[ebp]
  0023f	8b 51 fc	 mov	 edx, DWORD PTR [ecx-4]
  00242	89 55 e0	 mov	 DWORD PTR _complete$132[ebp], edx

; 640  : 
; 641  : 			pack_int_value (en, INT_TYPE_SESSION_COMPLETE, complete);

  00245	8b 45 e0	 mov	 eax, DWORD PTR _complete$132[ebp]
  00248	50		 push	 eax
  00249	68 ba 00 00 00	 push	 186			; 000000baH
  0024e	8b 4d 0c	 mov	 ecx, DWORD PTR _en$[ebp]
  00251	51		 push	 ecx
  00252	e8 00 00 00 00	 call	 ?pack_int_value@@YGXPAUENTITY@@W4INT_TYPES@@H@Z ; pack_int_value

; 642  : 
; 643  : 			#if DEBUG_MODULE_MESSAGE_TEXT
; 644  : 
; 645  : 			debug_log ("EN_COMMS: sending campaign completed by %s", entity_side_names [side]);
; 646  : 
; 647  : 			#endif
; 648  : 
; 649  : 			break;

  00257	e9 69 33 00 00	 jmp	 $LN2@transmit_e
$LN52@transmit_e:

; 650  : 		}
; 651  : 		////////////////////////////////////////
; 652  : 		case ENTITY_COMMS_CAPTURE_KEYSITE:
; 653  : 		////////////////////////////////////////
; 654  : 		{
; 655  : 			//
; 656  : 			// (entity_comms_messages message, entity *en, int side)
; 657  : 			//
; 658  : 
; 659  : 			entity_sides
; 660  : 				side;
; 661  : 
; 662  : 			ASSERT (get_comms_model () == COMMS_MODEL_SERVER);

  0025c	83 3d 00 00 00
	00 00		 cmp	 DWORD PTR ?system_comms_model@@3W4COMMS_MODEL_TYPES@@A, 0 ; system_comms_model
  00263	74 1a		 je	 SHORT $LN53@transmit_e
  00265	a1 00 00 00 00	 mov	 eax, DWORD PTR ?__LINE__Var@?0??transmit_entity_comms_message@@YAXW4ENTITY_COMMS_MESSAGES@@PAUENTITY@@ZZ@4JA
  0026a	05 bd 00 00 00	 add	 eax, 189		; 000000bdH
  0026f	50		 push	 eax
  00270	68 00 00 00 00	 push	 OFFSET ??_C@_0EO@OCMIKFBI@c?3?2users?2nhv90?2projects?2eech?2ap@
  00275	68 00 00 00 00	 push	 OFFSET ??_C@_0CJ@DMBLBJBK@get_comms_model?5?$CI?$CJ?5?$DN?$DN?5COMMS_MOD@
  0027a	e8 00 00 00 00	 call	 ?process_assert@@YGXPBD0H@Z ; process_assert
$LN53@transmit_e:

; 663  : 
; 664  : 			ASSERT (en);

  0027f	83 7d 0c 00	 cmp	 DWORD PTR _en$[ebp], 0
  00283	75 1a		 jne	 SHORT $LN54@transmit_e
  00285	a1 00 00 00 00	 mov	 eax, DWORD PTR ?__LINE__Var@?0??transmit_entity_comms_message@@YAXW4ENTITY_COMMS_MESSAGES@@PAUENTITY@@ZZ@4JA
  0028a	05 bf 00 00 00	 add	 eax, 191		; 000000bfH
  0028f	50		 push	 eax
  00290	68 00 00 00 00	 push	 OFFSET ??_C@_0EO@OCMIKFBI@c?3?2users?2nhv90?2projects?2eech?2ap@
  00295	68 00 00 00 00	 push	 OFFSET ??_C@_02LFNMGJAP@en@
  0029a	e8 00 00 00 00	 call	 ?process_assert@@YGXPBD0H@Z ; process_assert
$LN54@transmit_e:

; 665  : 
; 666  : 			pack_entity_safe_ptr (en);

  0029f	8b 45 0c	 mov	 eax, DWORD PTR _en$[ebp]
  002a2	50		 push	 eax
  002a3	e8 00 00 00 00	 call	 ?pack_entity_safe_ptr@@YGXPAUENTITY@@@Z ; pack_entity_safe_ptr

; 667  : 
; 668  : 			side = va_arg (pargs, entity_sides);

  002a8	8b 45 fc	 mov	 eax, DWORD PTR _pargs$[ebp]
  002ab	83 c0 04	 add	 eax, 4
  002ae	89 45 fc	 mov	 DWORD PTR _pargs$[ebp], eax
  002b1	8b 4d fc	 mov	 ecx, DWORD PTR _pargs$[ebp]
  002b4	8b 51 fc	 mov	 edx, DWORD PTR [ecx-4]
  002b7	89 55 dc	 mov	 DWORD PTR _side$131[ebp], edx

; 669  : 
; 670  : 			pack_int_value (en, INT_TYPE_SIDE, side);

  002ba	8b 45 dc	 mov	 eax, DWORD PTR _side$131[ebp]
  002bd	50		 push	 eax
  002be	68 bb 00 00 00	 push	 187			; 000000bbH
  002c3	8b 4d 0c	 mov	 ecx, DWORD PTR _en$[ebp]
  002c6	51		 push	 ecx
  002c7	e8 00 00 00 00	 call	 ?pack_int_value@@YGXPAUENTITY@@W4INT_TYPES@@H@Z ; pack_int_value

; 671  : 
; 672  : 			#if DEBUG_MODULE_MESSAGE_TEXT
; 673  : 
; 674  : 			debug_log ("EN_COMMS: sending captured keysite for %s", entity_side_names [side]);
; 675  : 
; 676  : 			#endif
; 677  : 
; 678  : 			break;

  002cc	e9 f4 32 00 00	 jmp	 $LN2@transmit_e
$LN55@transmit_e:

; 679  : 		}
; 680  : 		////////////////////////////////////////
; 681  : 		case ENTITY_COMMS_CHAR_VALUE:
; 682  : 		////////////////////////////////////////
; 683  : 		{
; 684  : 			//
; 685  : 			// (entity_comms_messages message, entity *en, char_types type, char value)
; 686  : 			//
; 687  : 
; 688  : 			char_types
; 689  : 				type;
; 690  : 
; 691  : 			char
; 692  : 				value;
; 693  : 
; 694  : 			ASSERT (en);

  002d1	83 7d 0c 00	 cmp	 DWORD PTR _en$[ebp], 0
  002d5	75 1a		 jne	 SHORT $LN56@transmit_e
  002d7	a1 00 00 00 00	 mov	 eax, DWORD PTR ?__LINE__Var@?0??transmit_entity_comms_message@@YAXW4ENTITY_COMMS_MESSAGES@@PAUENTITY@@ZZ@4JA
  002dc	05 dd 00 00 00	 add	 eax, 221		; 000000ddH
  002e1	50		 push	 eax
  002e2	68 00 00 00 00	 push	 OFFSET ??_C@_0EO@OCMIKFBI@c?3?2users?2nhv90?2projects?2eech?2ap@
  002e7	68 00 00 00 00	 push	 OFFSET ??_C@_02LFNMGJAP@en@
  002ec	e8 00 00 00 00	 call	 ?process_assert@@YGXPBD0H@Z ; process_assert
$LN56@transmit_e:

; 695  : 
; 696  : 			pack_entity_safe_ptr (en);

  002f1	8b 45 0c	 mov	 eax, DWORD PTR _en$[ebp]
  002f4	50		 push	 eax
  002f5	e8 00 00 00 00	 call	 ?pack_entity_safe_ptr@@YGXPAUENTITY@@@Z ; pack_entity_safe_ptr

; 697  : 
; 698  : 			type = va_arg (pargs, char_types);

  002fa	8b 45 fc	 mov	 eax, DWORD PTR _pargs$[ebp]
  002fd	83 c0 04	 add	 eax, 4
  00300	89 45 fc	 mov	 DWORD PTR _pargs$[ebp], eax
  00303	8b 4d fc	 mov	 ecx, DWORD PTR _pargs$[ebp]
  00306	8b 51 fc	 mov	 edx, DWORD PTR [ecx-4]
  00309	89 55 d8	 mov	 DWORD PTR _type$130[ebp], edx

; 699  : 
; 700  : 			pack_char_type (type);

  0030c	8b 45 d8	 mov	 eax, DWORD PTR _type$130[ebp]
  0030f	50		 push	 eax
  00310	e8 00 00 00 00	 call	 ?pack_char_type@@YGXW4CHAR_TYPES@@@Z ; pack_char_type

; 701  : 
; 702  : 			value = va_arg (pargs, int);

  00315	8b 45 fc	 mov	 eax, DWORD PTR _pargs$[ebp]
  00318	83 c0 04	 add	 eax, 4
  0031b	89 45 fc	 mov	 DWORD PTR _pargs$[ebp], eax
  0031e	8b 4d fc	 mov	 ecx, DWORD PTR _pargs$[ebp]
  00321	8a 51 fc	 mov	 dl, BYTE PTR [ecx-4]
  00324	88 55 d7	 mov	 BYTE PTR _value$129[ebp], dl

; 703  : 
; 704  : 			pack_char_value (en, type, value);

  00327	0f b6 45 d7	 movzx	 eax, BYTE PTR _value$129[ebp]
  0032b	50		 push	 eax
  0032c	8b 4d d8	 mov	 ecx, DWORD PTR _type$130[ebp]
  0032f	51		 push	 ecx
  00330	8b 55 0c	 mov	 edx, DWORD PTR _en$[ebp]
  00333	52		 push	 edx
  00334	e8 00 00 00 00	 call	 ?pack_char_value@@YGXPAUENTITY@@W4CHAR_TYPES@@D@Z ; pack_char_value

; 705  : 
; 706  : 			#if DEBUG_MODULE_MESSAGE_TEXT
; 707  : 
; 708  : 			debug_log ("EN_COMMS: sending char for %s (%d)", get_local_entity_type_name (en), get_local_entity_index (en));
; 709  : 
; 710  : 			#endif
; 711  : 
; 712  : 			break;

  00339	e9 87 32 00 00	 jmp	 $LN2@transmit_e
$LN57@transmit_e:

; 713  : 		}
; 714  : 		////////////////////////////////////////
; 715  : 		case ENTITY_COMMS_CREATE:
; 716  : 		////////////////////////////////////////
; 717  : 		{
; 718  : 			//
; 719  : 			// (entity_comms_messages message, entity *en, entity_types type, int index, char *pargs)
; 720  : 			//
; 721  : 
; 722  : 			entity_types
; 723  : 				type;
; 724  : 
; 725  : 			int
; 726  : 				index;
; 727  : 
; 728  : 			const char
; 729  : 				*buffer;
; 730  : 
; 731  : 			ASSERT (!en);

  0033e	83 7d 0c 00	 cmp	 DWORD PTR _en$[ebp], 0
  00342	74 1a		 je	 SHORT $LN58@transmit_e
  00344	a1 00 00 00 00	 mov	 eax, DWORD PTR ?__LINE__Var@?0??transmit_entity_comms_message@@YAXW4ENTITY_COMMS_MESSAGES@@PAUENTITY@@ZZ@4JA
  00349	05 02 01 00 00	 add	 eax, 258		; 00000102H
  0034e	50		 push	 eax
  0034f	68 00 00 00 00	 push	 OFFSET ??_C@_0EO@OCMIKFBI@c?3?2users?2nhv90?2projects?2eech?2ap@
  00354	68 00 00 00 00	 push	 OFFSET ??_C@_03HDFHKHFK@?$CBen@
  00359	e8 00 00 00 00	 call	 ?process_assert@@YGXPBD0H@Z ; process_assert
$LN58@transmit_e:

; 732  : 
; 733  : 			type = va_arg (pargs, entity_types);

  0035e	8b 45 fc	 mov	 eax, DWORD PTR _pargs$[ebp]
  00361	83 c0 04	 add	 eax, 4
  00364	89 45 fc	 mov	 DWORD PTR _pargs$[ebp], eax
  00367	8b 4d fc	 mov	 ecx, DWORD PTR _pargs$[ebp]
  0036a	8b 51 fc	 mov	 edx, DWORD PTR [ecx-4]
  0036d	89 55 d0	 mov	 DWORD PTR _type$128[ebp], edx

; 734  : 
; 735  : 			pack_entity_type (type);

  00370	8b 45 d0	 mov	 eax, DWORD PTR _type$128[ebp]
  00373	50		 push	 eax
  00374	e8 00 00 00 00	 call	 ?pack_entity_type@@YGXW4ENTITY_TYPES@@@Z ; pack_entity_type

; 736  : 
; 737  : 			index = va_arg (pargs, int);

  00379	8b 45 fc	 mov	 eax, DWORD PTR _pargs$[ebp]
  0037c	83 c0 04	 add	 eax, 4
  0037f	89 45 fc	 mov	 DWORD PTR _pargs$[ebp], eax
  00382	8b 4d fc	 mov	 ecx, DWORD PTR _pargs$[ebp]
  00385	8b 51 fc	 mov	 edx, DWORD PTR [ecx-4]
  00388	89 55 cc	 mov	 DWORD PTR _index$127[ebp], edx

; 738  : 
; 739  : 			pack_entity_safe_index (index);

  0038b	8b 45 cc	 mov	 eax, DWORD PTR _index$127[ebp]
  0038e	50		 push	 eax
  0038f	e8 00 00 00 00	 call	 ?pack_entity_safe_index@@YGXH@Z ; pack_entity_safe_index

; 740  : 
; 741  : 			buffer = va_arg (pargs, const char *);

  00394	8b 45 fc	 mov	 eax, DWORD PTR _pargs$[ebp]
  00397	83 c0 04	 add	 eax, 4
  0039a	89 45 fc	 mov	 DWORD PTR _pargs$[ebp], eax
  0039d	8b 4d fc	 mov	 ecx, DWORD PTR _pargs$[ebp]
  003a0	8b 51 fc	 mov	 edx, DWORD PTR [ecx-4]
  003a3	89 55 c8	 mov	 DWORD PTR _buffer$126[ebp], edx

; 742  : 
; 743  : 			pack_entity_attributes (buffer);

  003a6	8b 45 c8	 mov	 eax, DWORD PTR _buffer$126[ebp]
  003a9	50		 push	 eax
  003aa	e8 00 00 00 00	 call	 ?pack_entity_attributes@@YGXPBD@Z ; pack_entity_attributes

; 744  : 
; 745  : 			#if DEBUG_MODULE_MESSAGE_TEXT
; 746  : 
; 747  : 			debug_log ("EN_COMMS: sending create for %s (index %d)", entity_type_names [type], index);
; 748  : 
; 749  : 			#endif
; 750  : 
; 751  : 			break;

  003af	e9 11 32 00 00	 jmp	 $LN2@transmit_e
$LN59@transmit_e:

; 752  : 		}
; 753  : 		////////////////////////////////////////
; 754  : 		case ENTITY_COMMS_CREATE_META_EXPLOSION:
; 755  : 		////////////////////////////////////////
; 756  : 		{
; 757  : 			//
; 758  : 			// (entity_comms_messages message, entity *en, meta_explosion_types type, vec3d *position, entity *parent, int entity_index_list[])
; 759  : 			//
; 760  : 
; 761  : 			entity
; 762  : 				*parent;
; 763  : 
; 764  : 			meta_explosion_types
; 765  : 				type;
; 766  : 
; 767  : 			int
; 768  : 				loop,
; 769  : 				index,
; 770  : 				list_count,
; 771  : 				*entity_index_list;
; 772  : 
; 773  : 			vec3d
; 774  : 				*position;
; 775  : 
; 776  : 			ASSERT (!en);

  003b4	83 7d 0c 00	 cmp	 DWORD PTR _en$[ebp], 0
  003b8	74 1a		 je	 SHORT $LN60@transmit_e
  003ba	a1 00 00 00 00	 mov	 eax, DWORD PTR ?__LINE__Var@?0??transmit_entity_comms_message@@YAXW4ENTITY_COMMS_MESSAGES@@PAUENTITY@@ZZ@4JA
  003bf	05 2f 01 00 00	 add	 eax, 303		; 0000012fH
  003c4	50		 push	 eax
  003c5	68 00 00 00 00	 push	 OFFSET ??_C@_0EO@OCMIKFBI@c?3?2users?2nhv90?2projects?2eech?2ap@
  003ca	68 00 00 00 00	 push	 OFFSET ??_C@_03HDFHKHFK@?$CBen@
  003cf	e8 00 00 00 00	 call	 ?process_assert@@YGXPBD0H@Z ; process_assert
$LN60@transmit_e:

; 777  : 
; 778  : 			type = (meta_explosion_types) va_arg (pargs, int);

  003d4	8b 45 fc	 mov	 eax, DWORD PTR _pargs$[ebp]
  003d7	83 c0 04	 add	 eax, 4
  003da	89 45 fc	 mov	 DWORD PTR _pargs$[ebp], eax
  003dd	8b 4d fc	 mov	 ecx, DWORD PTR _pargs$[ebp]
  003e0	8b 51 fc	 mov	 edx, DWORD PTR [ecx-4]
  003e3	89 55 c0	 mov	 DWORD PTR _type$124[ebp], edx

; 779  : 
; 780  : 			pack_int_value (en, INT_TYPE_META_EXPLOSION_TYPE, type);

  003e6	8b 45 c0	 mov	 eax, DWORD PTR _type$124[ebp]
  003e9	50		 push	 eax
  003ea	68 88 00 00 00	 push	 136			; 00000088H
  003ef	8b 4d 0c	 mov	 ecx, DWORD PTR _en$[ebp]
  003f2	51		 push	 ecx
  003f3	e8 00 00 00 00	 call	 ?pack_int_value@@YGXPAUENTITY@@W4INT_TYPES@@H@Z ; pack_int_value

; 781  : 
; 782  : 			position = va_arg (pargs, vec3d *);

  003f8	8b 45 fc	 mov	 eax, DWORD PTR _pargs$[ebp]
  003fb	83 c0 04	 add	 eax, 4
  003fe	89 45 fc	 mov	 DWORD PTR _pargs$[ebp], eax
  00401	8b 4d fc	 mov	 ecx, DWORD PTR _pargs$[ebp]
  00404	8b 51 fc	 mov	 edx, DWORD PTR [ecx-4]
  00407	89 55 ac	 mov	 DWORD PTR _position$119[ebp], edx

; 783  : 
; 784  : 			pack_vec3d (en, VEC3D_TYPE_POSITION, position);

  0040a	8b 45 ac	 mov	 eax, DWORD PTR _position$119[ebp]
  0040d	50		 push	 eax
  0040e	6a 08		 push	 8
  00410	8b 4d 0c	 mov	 ecx, DWORD PTR _en$[ebp]
  00413	51		 push	 ecx
  00414	e8 00 00 00 00	 call	 ?pack_vec3d@@YGXPAUENTITY@@W4VEC3D_TYPES@@PAUVEC3D@@@Z ; pack_vec3d

; 785  : 
; 786  : 			parent = va_arg (pargs, entity *);

  00419	8b 45 fc	 mov	 eax, DWORD PTR _pargs$[ebp]
  0041c	83 c0 04	 add	 eax, 4
  0041f	89 45 fc	 mov	 DWORD PTR _pargs$[ebp], eax
  00422	8b 4d fc	 mov	 ecx, DWORD PTR _pargs$[ebp]
  00425	8b 51 fc	 mov	 edx, DWORD PTR [ecx-4]
  00428	89 55 c4	 mov	 DWORD PTR _parent$125[ebp], edx

; 787  : 
; 788  : 			pack_entity_safe_ptr (parent);

  0042b	8b 45 c4	 mov	 eax, DWORD PTR _parent$125[ebp]
  0042e	50		 push	 eax
  0042f	e8 00 00 00 00	 call	 ?pack_entity_safe_ptr@@YGXPAUENTITY@@@Z ; pack_entity_safe_ptr

; 789  : 
; 790  : 			list_count = count_entities_in_meta_explosion (type);

  00434	8b 45 c0	 mov	 eax, DWORD PTR _type$124[ebp]
  00437	50		 push	 eax
  00438	e8 00 00 00 00	 call	 ?count_entities_in_meta_explosion@@YGHW4META_EXPLOSION_TYPES@@@Z ; count_entities_in_meta_explosion
  0043d	89 45 b4	 mov	 DWORD PTR _list_count$121[ebp], eax

; 791  : 
; 792  : 			entity_index_list = va_arg (pargs, int *);

  00440	8b 45 fc	 mov	 eax, DWORD PTR _pargs$[ebp]
  00443	83 c0 04	 add	 eax, 4
  00446	89 45 fc	 mov	 DWORD PTR _pargs$[ebp], eax
  00449	8b 4d fc	 mov	 ecx, DWORD PTR _pargs$[ebp]
  0044c	8b 51 fc	 mov	 edx, DWORD PTR [ecx-4]
  0044f	89 55 b0	 mov	 DWORD PTR _entity_index_list$120[ebp], edx

; 793  : 
; 794  : 			for (loop = 0; loop < list_count; loop ++)

  00452	c7 45 bc 00 00
	00 00		 mov	 DWORD PTR _loop$123[ebp], 0
  00459	eb 09		 jmp	 SHORT $LN6@transmit_e
$LN4@transmit_e:
  0045b	8b 45 bc	 mov	 eax, DWORD PTR _loop$123[ebp]
  0045e	83 c0 01	 add	 eax, 1
  00461	89 45 bc	 mov	 DWORD PTR _loop$123[ebp], eax
$LN6@transmit_e:
  00464	8b 45 bc	 mov	 eax, DWORD PTR _loop$123[ebp]
  00467	3b 45 b4	 cmp	 eax, DWORD PTR _list_count$121[ebp]
  0046a	7d 17		 jge	 SHORT $LN5@transmit_e

; 795  : 			{
; 796  : 				index = entity_index_list [loop];

  0046c	8b 45 bc	 mov	 eax, DWORD PTR _loop$123[ebp]
  0046f	8b 4d b0	 mov	 ecx, DWORD PTR _entity_index_list$120[ebp]
  00472	8b 14 81	 mov	 edx, DWORD PTR [ecx+eax*4]
  00475	89 55 b8	 mov	 DWORD PTR _index$122[ebp], edx

; 797  : 
; 798  : 				pack_entity_safe_index (index);

  00478	8b 45 b8	 mov	 eax, DWORD PTR _index$122[ebp]
  0047b	50		 push	 eax
  0047c	e8 00 00 00 00	 call	 ?pack_entity_safe_index@@YGXH@Z ; pack_entity_safe_index

; 799  : 			}

  00481	eb d8		 jmp	 SHORT $LN4@transmit_e
$LN5@transmit_e:

; 800  : 
; 801  : 			#if DEBUG_MODULE_MESSAGE_TEXT
; 802  : 
; 803  : 			if (parent)
; 804  : 			{
; 805  : 
; 806  : 				debug_log ("EN_COMMS: sending create meta explosion for %s (%d)", entity_type_names [parent->type], get_local_entity_index (parent));
; 807  : 			}
; 808  : 			else
; 809  : 			{
; 810  : 
; 811  : 				debug_log ("EN_COMMS: sending create meta explosion");
; 812  : 			}
; 813  : 
; 814  : 			#endif
; 815  : 
; 816  : 			break;

  00483	e9 3d 31 00 00	 jmp	 $LN2@transmit_e
$LN61@transmit_e:

; 817  : 		}
; 818  : 		////////////////////////////////////////
; 819  : 		case ENTITY_COMMS_CREATE_META_SMOKE_LIST_SPECIFIED_OFFSET:
; 820  : 		////////////////////////////////////////
; 821  : 		{
; 822  : 			//
; 823  : 			// (entity_comms_messages message, entity *en, meta_smoke_list_types type, entity *parent, vec3d *rel_pos, int entity_index_list[])
; 824  : 			//
; 825  : 
; 826  : 			entity
; 827  : 				*parent;
; 828  : 
; 829  : 			meta_smoke_list_types
; 830  : 				type;
; 831  : 
; 832  : 			int
; 833  : 				loop,
; 834  : 				index,
; 835  : 				list_count,
; 836  : 				*entity_index_list;
; 837  : 
; 838  : 			vec3d
; 839  : 				*rel_pos;
; 840  : 
; 841  : 			ASSERT (!en);

  00488	83 7d 0c 00	 cmp	 DWORD PTR _en$[ebp], 0
  0048c	74 1a		 je	 SHORT $LN62@transmit_e
  0048e	a1 00 00 00 00	 mov	 eax, DWORD PTR ?__LINE__Var@?0??transmit_entity_comms_message@@YAXW4ENTITY_COMMS_MESSAGES@@PAUENTITY@@ZZ@4JA
  00493	05 70 01 00 00	 add	 eax, 368		; 00000170H
  00498	50		 push	 eax
  00499	68 00 00 00 00	 push	 OFFSET ??_C@_0EO@OCMIKFBI@c?3?2users?2nhv90?2projects?2eech?2ap@
  0049e	68 00 00 00 00	 push	 OFFSET ??_C@_03HDFHKHFK@?$CBen@
  004a3	e8 00 00 00 00	 call	 ?process_assert@@YGXPBD0H@Z ; process_assert
$LN62@transmit_e:

; 842  : 
; 843  : 			type = va_arg (pargs, meta_smoke_list_types);

  004a8	8b 45 fc	 mov	 eax, DWORD PTR _pargs$[ebp]
  004ab	83 c0 04	 add	 eax, 4
  004ae	89 45 fc	 mov	 DWORD PTR _pargs$[ebp], eax
  004b1	8b 4d fc	 mov	 ecx, DWORD PTR _pargs$[ebp]
  004b4	8b 51 fc	 mov	 edx, DWORD PTR [ecx-4]
  004b7	89 55 a4	 mov	 DWORD PTR _type$117[ebp], edx

; 844  : 
; 845  : 			pack_int_value (en, INT_TYPE_META_SMOKE_LIST_TYPE, type);

  004ba	8b 45 a4	 mov	 eax, DWORD PTR _type$117[ebp]
  004bd	50		 push	 eax
  004be	68 89 00 00 00	 push	 137			; 00000089H
  004c3	8b 4d 0c	 mov	 ecx, DWORD PTR _en$[ebp]
  004c6	51		 push	 ecx
  004c7	e8 00 00 00 00	 call	 ?pack_int_value@@YGXPAUENTITY@@W4INT_TYPES@@H@Z ; pack_int_value

; 846  : 
; 847  : 			parent = va_arg (pargs, entity *);

  004cc	8b 45 fc	 mov	 eax, DWORD PTR _pargs$[ebp]
  004cf	83 c0 04	 add	 eax, 4
  004d2	89 45 fc	 mov	 DWORD PTR _pargs$[ebp], eax
  004d5	8b 4d fc	 mov	 ecx, DWORD PTR _pargs$[ebp]
  004d8	8b 51 fc	 mov	 edx, DWORD PTR [ecx-4]
  004db	89 55 a8	 mov	 DWORD PTR _parent$118[ebp], edx

; 848  : 
; 849  : 			pack_entity_safe_ptr (parent);

  004de	8b 45 a8	 mov	 eax, DWORD PTR _parent$118[ebp]
  004e1	50		 push	 eax
  004e2	e8 00 00 00 00	 call	 ?pack_entity_safe_ptr@@YGXPAUENTITY@@@Z ; pack_entity_safe_ptr

; 850  : 
; 851  : 			rel_pos = va_arg (pargs, vec3d *);

  004e7	8b 45 fc	 mov	 eax, DWORD PTR _pargs$[ebp]
  004ea	83 c0 04	 add	 eax, 4
  004ed	89 45 fc	 mov	 DWORD PTR _pargs$[ebp], eax
  004f0	8b 4d fc	 mov	 ecx, DWORD PTR _pargs$[ebp]
  004f3	8b 51 fc	 mov	 edx, DWORD PTR [ecx-4]
  004f6	89 55 90	 mov	 DWORD PTR _rel_pos$112[ebp], edx

; 852  : 
; 853  : 			if (rel_pos)

  004f9	83 7d 90 00	 cmp	 DWORD PTR _rel_pos$112[ebp], 0
  004fd	74 28		 je	 SHORT $LN63@transmit_e

; 854  : 			{
; 855  : 				if (parent)

  004ff	83 7d a8 00	 cmp	 DWORD PTR _parent$118[ebp], 0
  00503	74 11		 je	 SHORT $LN65@transmit_e

; 856  : 				{
; 857  : 					pack_vec3d (en, VEC3D_TYPE_RELATIVE_POSITION, rel_pos);

  00505	8b 45 90	 mov	 eax, DWORD PTR _rel_pos$112[ebp]
  00508	50		 push	 eax
  00509	6a 09		 push	 9
  0050b	8b 4d 0c	 mov	 ecx, DWORD PTR _en$[ebp]
  0050e	51		 push	 ecx
  0050f	e8 00 00 00 00	 call	 ?pack_vec3d@@YGXPAUENTITY@@W4VEC3D_TYPES@@PAUVEC3D@@@Z ; pack_vec3d

; 858  : 				}
; 859  : 				else

  00514	eb 0f		 jmp	 SHORT $LN66@transmit_e
$LN65@transmit_e:

; 860  : 				{
; 861  : 					pack_vec3d (en, VEC3D_TYPE_POSITION, rel_pos);

  00516	8b 45 90	 mov	 eax, DWORD PTR _rel_pos$112[ebp]
  00519	50		 push	 eax
  0051a	6a 08		 push	 8
  0051c	8b 4d 0c	 mov	 ecx, DWORD PTR _en$[ebp]
  0051f	51		 push	 ecx
  00520	e8 00 00 00 00	 call	 ?pack_vec3d@@YGXPAUENTITY@@W4VEC3D_TYPES@@PAUVEC3D@@@Z ; pack_vec3d
$LN66@transmit_e:

; 862  : 				}
; 863  : 			}
; 864  : 			else

  00525	eb 27		 jmp	 SHORT $LN64@transmit_e
$LN63@transmit_e:

; 865  : 			{
; 866  : 				vec3d
; 867  : 					def_pos;
; 868  : 
; 869  : 				def_pos.x = 0.0;

  00527	0f 57 c0	 xorps	 xmm0, xmm0
  0052a	f3 0f 11 45 84	 movss	 DWORD PTR _def_pos$111[ebp], xmm0

; 870  : 				def_pos.y = 0.0;

  0052f	0f 57 c0	 xorps	 xmm0, xmm0
  00532	f3 0f 11 45 88	 movss	 DWORD PTR _def_pos$111[ebp+4], xmm0

; 871  : 				def_pos.z = 0.0;

  00537	0f 57 c0	 xorps	 xmm0, xmm0
  0053a	f3 0f 11 45 8c	 movss	 DWORD PTR _def_pos$111[ebp+8], xmm0

; 872  : 
; 873  : 				pack_vec3d (en, VEC3D_TYPE_RELATIVE_POSITION, &def_pos);

  0053f	8d 45 84	 lea	 eax, DWORD PTR _def_pos$111[ebp]
  00542	50		 push	 eax
  00543	6a 09		 push	 9
  00545	8b 4d 0c	 mov	 ecx, DWORD PTR _en$[ebp]
  00548	51		 push	 ecx
  00549	e8 00 00 00 00	 call	 ?pack_vec3d@@YGXPAUENTITY@@W4VEC3D_TYPES@@PAUVEC3D@@@Z ; pack_vec3d
$LN64@transmit_e:

; 874  : 			}
; 875  : 
; 876  : 			list_count = count_entities_in_meta_smoke_list (type);

  0054e	8b 45 a4	 mov	 eax, DWORD PTR _type$117[ebp]
  00551	50		 push	 eax
  00552	e8 00 00 00 00	 call	 ?count_entities_in_meta_smoke_list@@YGHW4META_SMOKE_LIST_TYPES@@@Z ; count_entities_in_meta_smoke_list
  00557	89 45 98	 mov	 DWORD PTR _list_count$114[ebp], eax

; 877  : 
; 878  : 			entity_index_list = va_arg (pargs, int *);

  0055a	8b 45 fc	 mov	 eax, DWORD PTR _pargs$[ebp]
  0055d	83 c0 04	 add	 eax, 4
  00560	89 45 fc	 mov	 DWORD PTR _pargs$[ebp], eax
  00563	8b 4d fc	 mov	 ecx, DWORD PTR _pargs$[ebp]
  00566	8b 51 fc	 mov	 edx, DWORD PTR [ecx-4]
  00569	89 55 94	 mov	 DWORD PTR _entity_index_list$113[ebp], edx

; 879  : 
; 880  : 			for (loop = 0; loop < list_count; loop ++)

  0056c	c7 45 a0 00 00
	00 00		 mov	 DWORD PTR _loop$116[ebp], 0
  00573	eb 09		 jmp	 SHORT $LN9@transmit_e
$LN7@transmit_e:
  00575	8b 45 a0	 mov	 eax, DWORD PTR _loop$116[ebp]
  00578	83 c0 01	 add	 eax, 1
  0057b	89 45 a0	 mov	 DWORD PTR _loop$116[ebp], eax
$LN9@transmit_e:
  0057e	8b 45 a0	 mov	 eax, DWORD PTR _loop$116[ebp]
  00581	3b 45 98	 cmp	 eax, DWORD PTR _list_count$114[ebp]
  00584	7d 17		 jge	 SHORT $LN8@transmit_e

; 881  : 			{
; 882  : 				index = entity_index_list [loop];

  00586	8b 45 a0	 mov	 eax, DWORD PTR _loop$116[ebp]
  00589	8b 4d 94	 mov	 ecx, DWORD PTR _entity_index_list$113[ebp]
  0058c	8b 14 81	 mov	 edx, DWORD PTR [ecx+eax*4]
  0058f	89 55 9c	 mov	 DWORD PTR _index$115[ebp], edx

; 883  : 
; 884  : 				pack_entity_safe_index (index);

  00592	8b 45 9c	 mov	 eax, DWORD PTR _index$115[ebp]
  00595	50		 push	 eax
  00596	e8 00 00 00 00	 call	 ?pack_entity_safe_index@@YGXH@Z ; pack_entity_safe_index

; 885  : 			}

  0059b	eb d8		 jmp	 SHORT $LN7@transmit_e
$LN8@transmit_e:

; 886  : 
; 887  : 			#if DEBUG_MODULE_MESSAGE_TEXT
; 888  : 
; 889  : 			if (parent)
; 890  : 			{
; 891  : 
; 892  : 				debug_log ("EN_COMMS: sending create meta smoke ( spec pos ) for %s (%d)", entity_type_names [parent->type], get_local_entity_index (parent));
; 893  : 			}
; 894  : 			else
; 895  : 			{
; 896  : 
; 897  : 				debug_log ("EN_COMMS: sending create meta smoke");
; 898  : 			}
; 899  : 
; 900  : 			#endif
; 901  : 
; 902  : 			break;

  0059d	e9 23 30 00 00	 jmp	 $LN2@transmit_e
$LN67@transmit_e:

; 903  : 		}
; 904  : 		////////////////////////////////////////
; 905  : 		case ENTITY_COMMS_CREATE_META_SMOKE_LIST_SUB_OBJECT_OFFSET:
; 906  : 		////////////////////////////////////////
; 907  : 		{
; 908  : 			//
; 909  : 			// (entity_comms_messages message, entity *en, meta_smoke_list_types type, entity *parent, int sub_object_type, int sub_object_depth, int entity_index_list[])
; 910  : 			//
; 911  : 
; 912  : 			entity
; 913  : 				*parent;
; 914  : 
; 915  : 			meta_smoke_list_types
; 916  : 				type;
; 917  : 
; 918  : 			int
; 919  : 				loop,
; 920  : 				index,
; 921  : 				list_count,
; 922  : 				sub_object_type,
; 923  : 				sub_object_depth,
; 924  : 				*entity_index_list;
; 925  : 
; 926  : 			ASSERT (!en);

  005a2	83 7d 0c 00	 cmp	 DWORD PTR _en$[ebp], 0
  005a6	74 1a		 je	 SHORT $LN68@transmit_e
  005a8	a1 00 00 00 00	 mov	 eax, DWORD PTR ?__LINE__Var@?0??transmit_entity_comms_message@@YAXW4ENTITY_COMMS_MESSAGES@@PAUENTITY@@ZZ@4JA
  005ad	05 c5 01 00 00	 add	 eax, 453		; 000001c5H
  005b2	50		 push	 eax
  005b3	68 00 00 00 00	 push	 OFFSET ??_C@_0EO@OCMIKFBI@c?3?2users?2nhv90?2projects?2eech?2ap@
  005b8	68 00 00 00 00	 push	 OFFSET ??_C@_03HDFHKHFK@?$CBen@
  005bd	e8 00 00 00 00	 call	 ?process_assert@@YGXPBD0H@Z ; process_assert
$LN68@transmit_e:

; 927  : 
; 928  : 			type = va_arg (pargs, meta_smoke_list_types);

  005c2	8b 45 fc	 mov	 eax, DWORD PTR _pargs$[ebp]
  005c5	83 c0 04	 add	 eax, 4
  005c8	89 45 fc	 mov	 DWORD PTR _pargs$[ebp], eax
  005cb	8b 4d fc	 mov	 ecx, DWORD PTR _pargs$[ebp]
  005ce	8b 51 fc	 mov	 edx, DWORD PTR [ecx-4]
  005d1	89 95 7c ff ff
	ff		 mov	 DWORD PTR _type$109[ebp], edx

; 929  : 
; 930  : 			pack_int_value (en, INT_TYPE_META_SMOKE_LIST_TYPE, type);

  005d7	8b 85 7c ff ff
	ff		 mov	 eax, DWORD PTR _type$109[ebp]
  005dd	50		 push	 eax
  005de	68 89 00 00 00	 push	 137			; 00000089H
  005e3	8b 4d 0c	 mov	 ecx, DWORD PTR _en$[ebp]
  005e6	51		 push	 ecx
  005e7	e8 00 00 00 00	 call	 ?pack_int_value@@YGXPAUENTITY@@W4INT_TYPES@@H@Z ; pack_int_value

; 931  : 
; 932  : 			parent = va_arg (pargs, entity *);

  005ec	8b 45 fc	 mov	 eax, DWORD PTR _pargs$[ebp]
  005ef	83 c0 04	 add	 eax, 4
  005f2	89 45 fc	 mov	 DWORD PTR _pargs$[ebp], eax
  005f5	8b 4d fc	 mov	 ecx, DWORD PTR _pargs$[ebp]
  005f8	8b 51 fc	 mov	 edx, DWORD PTR [ecx-4]
  005fb	89 55 80	 mov	 DWORD PTR _parent$110[ebp], edx

; 933  : 
; 934  : 			pack_entity_safe_ptr (parent);

  005fe	8b 45 80	 mov	 eax, DWORD PTR _parent$110[ebp]
  00601	50		 push	 eax
  00602	e8 00 00 00 00	 call	 ?pack_entity_safe_ptr@@YGXPAUENTITY@@@Z ; pack_entity_safe_ptr

; 935  : 
; 936  : 			sub_object_type = va_arg (pargs, int);

  00607	8b 45 fc	 mov	 eax, DWORD PTR _pargs$[ebp]
  0060a	83 c0 04	 add	 eax, 4
  0060d	89 45 fc	 mov	 DWORD PTR _pargs$[ebp], eax
  00610	8b 4d fc	 mov	 ecx, DWORD PTR _pargs$[ebp]
  00613	8b 51 fc	 mov	 edx, DWORD PTR [ecx-4]
  00616	89 95 6c ff ff
	ff		 mov	 DWORD PTR _sub_object_type$105[ebp], edx

; 937  : 
; 938  : 			pack_int_value (en, INT_TYPE_SUB_OBJECT_TYPE, sub_object_type);

  0061c	8b 85 6c ff ff
	ff		 mov	 eax, DWORD PTR _sub_object_type$105[ebp]
  00622	50		 push	 eax
  00623	68 ce 00 00 00	 push	 206			; 000000ceH
  00628	8b 4d 0c	 mov	 ecx, DWORD PTR _en$[ebp]
  0062b	51		 push	 ecx
  0062c	e8 00 00 00 00	 call	 ?pack_int_value@@YGXPAUENTITY@@W4INT_TYPES@@H@Z ; pack_int_value

; 939  : 
; 940  : 			sub_object_depth = va_arg (pargs, int);

  00631	8b 45 fc	 mov	 eax, DWORD PTR _pargs$[ebp]
  00634	83 c0 04	 add	 eax, 4
  00637	89 45 fc	 mov	 DWORD PTR _pargs$[ebp], eax
  0063a	8b 4d fc	 mov	 ecx, DWORD PTR _pargs$[ebp]
  0063d	8b 51 fc	 mov	 edx, DWORD PTR [ecx-4]
  00640	89 95 68 ff ff
	ff		 mov	 DWORD PTR _sub_object_depth$104[ebp], edx

; 941  : 
; 942  : 			pack_int_value (en, INT_TYPE_SUB_OBJECT_DEPTH, sub_object_depth);

  00646	8b 85 68 ff ff
	ff		 mov	 eax, DWORD PTR _sub_object_depth$104[ebp]
  0064c	50		 push	 eax
  0064d	68 cd 00 00 00	 push	 205			; 000000cdH
  00652	8b 4d 0c	 mov	 ecx, DWORD PTR _en$[ebp]
  00655	51		 push	 ecx
  00656	e8 00 00 00 00	 call	 ?pack_int_value@@YGXPAUENTITY@@W4INT_TYPES@@H@Z ; pack_int_value

; 943  : 
; 944  : 			list_count = count_entities_in_meta_smoke_list (type);

  0065b	8b 85 7c ff ff
	ff		 mov	 eax, DWORD PTR _type$109[ebp]
  00661	50		 push	 eax
  00662	e8 00 00 00 00	 call	 ?count_entities_in_meta_smoke_list@@YGHW4META_SMOKE_LIST_TYPES@@@Z ; count_entities_in_meta_smoke_list
  00667	89 85 70 ff ff
	ff		 mov	 DWORD PTR _list_count$106[ebp], eax

; 945  : 
; 946  : 			entity_index_list = va_arg (pargs, int *);

  0066d	8b 45 fc	 mov	 eax, DWORD PTR _pargs$[ebp]
  00670	83 c0 04	 add	 eax, 4
  00673	89 45 fc	 mov	 DWORD PTR _pargs$[ebp], eax
  00676	8b 4d fc	 mov	 ecx, DWORD PTR _pargs$[ebp]
  00679	8b 51 fc	 mov	 edx, DWORD PTR [ecx-4]
  0067c	89 95 64 ff ff
	ff		 mov	 DWORD PTR _entity_index_list$103[ebp], edx

; 947  : 
; 948  : 			for (loop = 0; loop < list_count; loop ++)

  00682	c7 85 78 ff ff
	ff 00 00 00 00	 mov	 DWORD PTR _loop$108[ebp], 0
  0068c	eb 0f		 jmp	 SHORT $LN12@transmit_e
$LN10@transmit_e:
  0068e	8b 85 78 ff ff
	ff		 mov	 eax, DWORD PTR _loop$108[ebp]
  00694	83 c0 01	 add	 eax, 1
  00697	89 85 78 ff ff
	ff		 mov	 DWORD PTR _loop$108[ebp], eax
$LN12@transmit_e:
  0069d	8b 85 78 ff ff
	ff		 mov	 eax, DWORD PTR _loop$108[ebp]
  006a3	3b 85 70 ff ff
	ff		 cmp	 eax, DWORD PTR _list_count$106[ebp]
  006a9	7d 23		 jge	 SHORT $LN11@transmit_e

; 949  : 			{
; 950  : 				index = entity_index_list [loop];

  006ab	8b 85 78 ff ff
	ff		 mov	 eax, DWORD PTR _loop$108[ebp]
  006b1	8b 8d 64 ff ff
	ff		 mov	 ecx, DWORD PTR _entity_index_list$103[ebp]
  006b7	8b 14 81	 mov	 edx, DWORD PTR [ecx+eax*4]
  006ba	89 95 74 ff ff
	ff		 mov	 DWORD PTR _index$107[ebp], edx

; 951  : 
; 952  : 				pack_entity_safe_index (index);

  006c0	8b 85 74 ff ff
	ff		 mov	 eax, DWORD PTR _index$107[ebp]
  006c6	50		 push	 eax
  006c7	e8 00 00 00 00	 call	 ?pack_entity_safe_index@@YGXH@Z ; pack_entity_safe_index

; 953  : 			}

  006cc	eb c0		 jmp	 SHORT $LN10@transmit_e
$LN11@transmit_e:

; 954  : 
; 955  : 			#if DEBUG_MODULE_MESSAGE_TEXT
; 956  : 
; 957  : 			if (parent)
; 958  : 			{
; 959  : 
; 960  : 				debug_log ("EN_COMMS: sending create meta smoke ( sub pos ) for %s (%d)", entity_type_names [parent->type], get_local_entity_index (parent));
; 961  : 			}
; 962  : 			else
; 963  : 			{
; 964  : 
; 965  : 				debug_log ("EN_COMMS: sending create meta smoke");
; 966  : 			}
; 967  : 
; 968  : 			#endif
; 969  : 
; 970  : 			break;

  006ce	e9 f2 2e 00 00	 jmp	 $LN2@transmit_e
$LN69@transmit_e:

; 971  : 		}
; 972  : 		////////////////////////////////////////
; 973  : 		case ENTITY_COMMS_CREATE_SOUND_EFFECT:
; 974  : 		////////////////////////////////////////
; 975  : 		{
; 976  : 			entity
; 977  : 				*parent;
; 978  : 
; 979  : 			entity_sub_types
; 980  : 				sub_type;
; 981  : 
; 982  : 			int
; 983  : 				loop,
; 984  : 				index,
; 985  : 				valid,
; 986  : 				side,
; 987  : 				channel,
; 988  : 				locality,
; 989  : 				looping,
; 990  : 				position_valid,
; 991  : 				sample_count,
; 992  : 				*sample_index_list;
; 993  : 
; 994  : 			float
; 995  : 				amp, pitch;
; 996  : 
; 997  : 			vec3d
; 998  : 				*position;
; 999  : 
; 1000 : 			ASSERT (!en);

  006d3	83 7d 0c 00	 cmp	 DWORD PTR _en$[ebp], 0
  006d7	74 1a		 je	 SHORT $LN70@transmit_e
  006d9	a1 00 00 00 00	 mov	 eax, DWORD PTR ?__LINE__Var@?0??transmit_entity_comms_message@@YAXW4ENTITY_COMMS_MESSAGES@@PAUENTITY@@ZZ@4JA
  006de	05 0f 02 00 00	 add	 eax, 527		; 0000020fH
  006e3	50		 push	 eax
  006e4	68 00 00 00 00	 push	 OFFSET ??_C@_0EO@OCMIKFBI@c?3?2users?2nhv90?2projects?2eech?2ap@
  006e9	68 00 00 00 00	 push	 OFFSET ??_C@_03HDFHKHFK@?$CBen@
  006ee	e8 00 00 00 00	 call	 ?process_assert@@YGXPBD0H@Z ; process_assert
$LN70@transmit_e:

; 1001 : 
; 1002 : 			index = va_arg (pargs, int);

  006f3	8b 45 fc	 mov	 eax, DWORD PTR _pargs$[ebp]
  006f6	83 c0 04	 add	 eax, 4
  006f9	89 45 fc	 mov	 DWORD PTR _pargs$[ebp], eax
  006fc	8b 4d fc	 mov	 ecx, DWORD PTR _pargs$[ebp]
  006ff	8b 51 fc	 mov	 edx, DWORD PTR [ecx-4]
  00702	89 95 54 ff ff
	ff		 mov	 DWORD PTR _index$99[ebp], edx

; 1003 : 			pack_entity_safe_index (index);

  00708	8b 85 54 ff ff
	ff		 mov	 eax, DWORD PTR _index$99[ebp]
  0070e	50		 push	 eax
  0070f	e8 00 00 00 00	 call	 ?pack_entity_safe_index@@YGXH@Z ; pack_entity_safe_index

; 1004 : 
; 1005 : 			parent = va_arg (pargs, entity *);

  00714	8b 45 fc	 mov	 eax, DWORD PTR _pargs$[ebp]
  00717	83 c0 04	 add	 eax, 4
  0071a	89 45 fc	 mov	 DWORD PTR _pargs$[ebp], eax
  0071d	8b 4d fc	 mov	 ecx, DWORD PTR _pargs$[ebp]
  00720	8b 51 fc	 mov	 edx, DWORD PTR [ecx-4]
  00723	89 95 60 ff ff
	ff		 mov	 DWORD PTR _parent$102[ebp], edx

; 1006 : 			pack_entity_safe_ptr (parent);

  00729	8b 85 60 ff ff
	ff		 mov	 eax, DWORD PTR _parent$102[ebp]
  0072f	50		 push	 eax
  00730	e8 00 00 00 00	 call	 ?pack_entity_safe_ptr@@YGXPAUENTITY@@@Z ; pack_entity_safe_ptr

; 1007 : 
; 1008 : 			side = va_arg (pargs, entity_sides);

  00735	8b 45 fc	 mov	 eax, DWORD PTR _pargs$[ebp]
  00738	83 c0 04	 add	 eax, 4
  0073b	89 45 fc	 mov	 DWORD PTR _pargs$[ebp], eax
  0073e	8b 4d fc	 mov	 ecx, DWORD PTR _pargs$[ebp]
  00741	8b 51 fc	 mov	 edx, DWORD PTR [ecx-4]
  00744	89 95 4c ff ff
	ff		 mov	 DWORD PTR _side$97[ebp], edx

; 1009 : 			pack_int_value (en, INT_TYPE_SIDE, side);

  0074a	8b 85 4c ff ff
	ff		 mov	 eax, DWORD PTR _side$97[ebp]
  00750	50		 push	 eax
  00751	68 bb 00 00 00	 push	 187			; 000000bbH
  00756	8b 4d 0c	 mov	 ecx, DWORD PTR _en$[ebp]
  00759	51		 push	 ecx
  0075a	e8 00 00 00 00	 call	 ?pack_int_value@@YGXPAUENTITY@@W4INT_TYPES@@H@Z ; pack_int_value

; 1010 : 
; 1011 : 			sub_type = va_arg (pargs, entity_sub_types);

  0075f	8b 45 fc	 mov	 eax, DWORD PTR _pargs$[ebp]
  00762	83 c0 04	 add	 eax, 4
  00765	89 45 fc	 mov	 DWORD PTR _pargs$[ebp], eax
  00768	8b 4d fc	 mov	 ecx, DWORD PTR _pargs$[ebp]
  0076b	8b 51 fc	 mov	 edx, DWORD PTR [ecx-4]
  0076e	89 95 5c ff ff
	ff		 mov	 DWORD PTR _sub_type$101[ebp], edx

; 1012 : 			pack_int_value (en, INT_TYPE_ENTITY_SUB_TYPE, sub_type);

  00774	8b 85 5c ff ff
	ff		 mov	 eax, DWORD PTR _sub_type$101[ebp]
  0077a	50		 push	 eax
  0077b	6a 34		 push	 52			; 00000034H
  0077d	8b 4d 0c	 mov	 ecx, DWORD PTR _en$[ebp]
  00780	51		 push	 ecx
  00781	e8 00 00 00 00	 call	 ?pack_int_value@@YGXPAUENTITY@@W4INT_TYPES@@H@Z ; pack_int_value

; 1013 : 
; 1014 : 			channel = va_arg (pargs, int);

  00786	8b 45 fc	 mov	 eax, DWORD PTR _pargs$[ebp]
  00789	83 c0 04	 add	 eax, 4
  0078c	89 45 fc	 mov	 DWORD PTR _pargs$[ebp], eax
  0078f	8b 4d fc	 mov	 ecx, DWORD PTR _pargs$[ebp]
  00792	8b 51 fc	 mov	 edx, DWORD PTR [ecx-4]
  00795	89 95 48 ff ff
	ff		 mov	 DWORD PTR _channel$96[ebp], edx

; 1015 : 			pack_int_value (en, INT_TYPE_SOUND_CHANNEL, channel);

  0079b	8b 85 48 ff ff
	ff		 mov	 eax, DWORD PTR _channel$96[ebp]
  007a1	50		 push	 eax
  007a2	68 c0 00 00 00	 push	 192			; 000000c0H
  007a7	8b 4d 0c	 mov	 ecx, DWORD PTR _en$[ebp]
  007aa	51		 push	 ecx
  007ab	e8 00 00 00 00	 call	 ?pack_int_value@@YGXPAUENTITY@@W4INT_TYPES@@H@Z ; pack_int_value

; 1016 : 
; 1017 : 			locality = va_arg (pargs, int);

  007b0	8b 45 fc	 mov	 eax, DWORD PTR _pargs$[ebp]
  007b3	83 c0 04	 add	 eax, 4
  007b6	89 45 fc	 mov	 DWORD PTR _pargs$[ebp], eax
  007b9	8b 4d fc	 mov	 ecx, DWORD PTR _pargs$[ebp]
  007bc	8b 51 fc	 mov	 edx, DWORD PTR [ecx-4]
  007bf	89 95 44 ff ff
	ff		 mov	 DWORD PTR _locality$95[ebp], edx

; 1018 : 			pack_int_value (en, INT_TYPE_SOUND_LOCALITY, locality);

  007c5	8b 85 44 ff ff
	ff		 mov	 eax, DWORD PTR _locality$95[ebp]
  007cb	50		 push	 eax
  007cc	68 c7 00 00 00	 push	 199			; 000000c7H
  007d1	8b 4d 0c	 mov	 ecx, DWORD PTR _en$[ebp]
  007d4	51		 push	 ecx
  007d5	e8 00 00 00 00	 call	 ?pack_int_value@@YGXPAUENTITY@@W4INT_TYPES@@H@Z ; pack_int_value

; 1019 : 
; 1020 : 			position = va_arg (pargs, vec3d *);

  007da	8b 45 fc	 mov	 eax, DWORD PTR _pargs$[ebp]
  007dd	83 c0 04	 add	 eax, 4
  007e0	89 45 fc	 mov	 DWORD PTR _pargs$[ebp], eax
  007e3	8b 4d fc	 mov	 ecx, DWORD PTR _pargs$[ebp]
  007e6	8b 51 fc	 mov	 edx, DWORD PTR [ecx-4]
  007e9	89 95 28 ff ff
	ff		 mov	 DWORD PTR _position$88[ebp], edx

; 1021 : 			if (position)

  007ef	83 bd 28 ff ff
	ff 00		 cmp	 DWORD PTR _position$88[ebp], 0
  007f6	74 33		 je	 SHORT $LN71@transmit_e

; 1022 : 			{
; 1023 : 				position_valid = TRUE;

  007f8	c7 85 3c ff ff
	ff 01 00 00 00	 mov	 DWORD PTR _position_valid$93[ebp], 1

; 1024 : 
; 1025 : 				pack_int_value (en, INT_TYPE_VALID, position_valid);

  00802	8b 85 3c ff ff
	ff		 mov	 eax, DWORD PTR _position_valid$93[ebp]
  00808	50		 push	 eax
  00809	68 ef 00 00 00	 push	 239			; 000000efH
  0080e	8b 4d 0c	 mov	 ecx, DWORD PTR _en$[ebp]
  00811	51		 push	 ecx
  00812	e8 00 00 00 00	 call	 ?pack_int_value@@YGXPAUENTITY@@W4INT_TYPES@@H@Z ; pack_int_value

; 1026 : 
; 1027 : 				pack_vec3d (en, VEC3D_TYPE_POSITION, position);

  00817	8b 85 28 ff ff
	ff		 mov	 eax, DWORD PTR _position$88[ebp]
  0081d	50		 push	 eax
  0081e	6a 08		 push	 8
  00820	8b 4d 0c	 mov	 ecx, DWORD PTR _en$[ebp]
  00823	51		 push	 ecx
  00824	e8 00 00 00 00	 call	 ?pack_vec3d@@YGXPAUENTITY@@W4VEC3D_TYPES@@PAUVEC3D@@@Z ; pack_vec3d

; 1028 : 			}
; 1029 : 			else

  00829	eb 1f		 jmp	 SHORT $LN72@transmit_e
$LN71@transmit_e:

; 1030 : 			{
; 1031 : 				position_valid = FALSE;

  0082b	c7 85 3c ff ff
	ff 00 00 00 00	 mov	 DWORD PTR _position_valid$93[ebp], 0

; 1032 : 
; 1033 : 				pack_int_value (en, INT_TYPE_VALID, position_valid);

  00835	8b 85 3c ff ff
	ff		 mov	 eax, DWORD PTR _position_valid$93[ebp]
  0083b	50		 push	 eax
  0083c	68 ef 00 00 00	 push	 239			; 000000efH
  00841	8b 4d 0c	 mov	 ecx, DWORD PTR _en$[ebp]
  00844	51		 push	 ecx
  00845	e8 00 00 00 00	 call	 ?pack_int_value@@YGXPAUENTITY@@W4INT_TYPES@@H@Z ; pack_int_value
$LN72@transmit_e:

; 1034 : 			}
; 1035 : 
; 1036 : 			amp = va_arg (pargs, double);

  0084a	8b 45 fc	 mov	 eax, DWORD PTR _pargs$[ebp]
  0084d	83 c0 08	 add	 eax, 8
  00850	89 45 fc	 mov	 DWORD PTR _pargs$[ebp], eax
  00853	8b 4d fc	 mov	 ecx, DWORD PTR _pargs$[ebp]
  00856	f2 0f 5a 41 f8	 cvtsd2ss xmm0, QWORD PTR [ecx-8]
  0085b	f3 0f 11 85 30
	ff ff ff	 movss	 DWORD PTR _amp$90[ebp], xmm0

; 1037 : 			pack_float_value (en, FLOAT_TYPE_AMPLIFICATION, amp);

  00863	51		 push	 ecx
  00864	f3 0f 10 85 30
	ff ff ff	 movss	 xmm0, DWORD PTR _amp$90[ebp]
  0086c	f3 0f 11 04 24	 movss	 DWORD PTR [esp], xmm0
  00871	6a 09		 push	 9
  00873	8b 45 0c	 mov	 eax, DWORD PTR _en$[ebp]
  00876	50		 push	 eax
  00877	e8 00 00 00 00	 call	 ?pack_float_value@@YGXPAUENTITY@@W4FLOAT_TYPES@@M@Z ; pack_float_value

; 1038 : 
; 1039 : 			pitch = va_arg (pargs, double);

  0087c	8b 45 fc	 mov	 eax, DWORD PTR _pargs$[ebp]
  0087f	83 c0 08	 add	 eax, 8
  00882	89 45 fc	 mov	 DWORD PTR _pargs$[ebp], eax
  00885	8b 4d fc	 mov	 ecx, DWORD PTR _pargs$[ebp]
  00888	f2 0f 5a 41 f8	 cvtsd2ss xmm0, QWORD PTR [ecx-8]
  0088d	f3 0f 11 85 2c
	ff ff ff	 movss	 DWORD PTR _pitch$89[ebp], xmm0

; 1040 : 			pack_float_value (en, FLOAT_TYPE_SOUNDPITCH, pitch);

  00895	51		 push	 ecx
  00896	f3 0f 10 85 2c
	ff ff ff	 movss	 xmm0, DWORD PTR _pitch$89[ebp]
  0089e	f3 0f 11 04 24	 movss	 DWORD PTR [esp], xmm0
  008a3	6a 0a		 push	 10			; 0000000aH
  008a5	8b 45 0c	 mov	 eax, DWORD PTR _en$[ebp]
  008a8	50		 push	 eax
  008a9	e8 00 00 00 00	 call	 ?pack_float_value@@YGXPAUENTITY@@W4FLOAT_TYPES@@M@Z ; pack_float_value

; 1041 : 
; 1042 : 			valid = va_arg (pargs, int);

  008ae	8b 45 fc	 mov	 eax, DWORD PTR _pargs$[ebp]
  008b1	83 c0 04	 add	 eax, 4
  008b4	89 45 fc	 mov	 DWORD PTR _pargs$[ebp], eax
  008b7	8b 4d fc	 mov	 ecx, DWORD PTR _pargs$[ebp]
  008ba	8b 51 fc	 mov	 edx, DWORD PTR [ecx-4]
  008bd	89 95 50 ff ff
	ff		 mov	 DWORD PTR _valid$98[ebp], edx

; 1043 : 			pack_int_value (en, INT_TYPE_VALID_SOUND_EFFECT, valid);

  008c3	8b 85 50 ff ff
	ff		 mov	 eax, DWORD PTR _valid$98[ebp]
  008c9	50		 push	 eax
  008ca	68 f1 00 00 00	 push	 241			; 000000f1H
  008cf	8b 4d 0c	 mov	 ecx, DWORD PTR _en$[ebp]
  008d2	51		 push	 ecx
  008d3	e8 00 00 00 00	 call	 ?pack_int_value@@YGXPAUENTITY@@W4INT_TYPES@@H@Z ; pack_int_value

; 1044 : 
; 1045 : 			looping = va_arg (pargs, int);

  008d8	8b 45 fc	 mov	 eax, DWORD PTR _pargs$[ebp]
  008db	83 c0 04	 add	 eax, 4
  008de	89 45 fc	 mov	 DWORD PTR _pargs$[ebp], eax
  008e1	8b 4d fc	 mov	 ecx, DWORD PTR _pargs$[ebp]
  008e4	8b 51 fc	 mov	 edx, DWORD PTR [ecx-4]
  008e7	89 95 40 ff ff
	ff		 mov	 DWORD PTR _looping$94[ebp], edx

; 1046 : 			pack_int_value (en, INT_TYPE_SOUND_EFFECT_LOOPING, looping);

  008ed	8b 85 40 ff ff
	ff		 mov	 eax, DWORD PTR _looping$94[ebp]
  008f3	50		 push	 eax
  008f4	68 c2 00 00 00	 push	 194			; 000000c2H
  008f9	8b 4d 0c	 mov	 ecx, DWORD PTR _en$[ebp]
  008fc	51		 push	 ecx
  008fd	e8 00 00 00 00	 call	 ?pack_int_value@@YGXPAUENTITY@@W4INT_TYPES@@H@Z ; pack_int_value

; 1047 : 
; 1048 : 			sample_count = va_arg (pargs, int);

  00902	8b 45 fc	 mov	 eax, DWORD PTR _pargs$[ebp]
  00905	83 c0 04	 add	 eax, 4
  00908	89 45 fc	 mov	 DWORD PTR _pargs$[ebp], eax
  0090b	8b 4d fc	 mov	 ecx, DWORD PTR _pargs$[ebp]
  0090e	8b 51 fc	 mov	 edx, DWORD PTR [ecx-4]
  00911	89 95 38 ff ff
	ff		 mov	 DWORD PTR _sample_count$92[ebp], edx

; 1049 : 			pack_int_value (en, INT_TYPE_SOUND_EFFECT_SEQUENCE_COUNT, sample_count);

  00917	8b 85 38 ff ff
	ff		 mov	 eax, DWORD PTR _sample_count$92[ebp]
  0091d	50		 push	 eax
  0091e	68 c5 00 00 00	 push	 197			; 000000c5H
  00923	8b 4d 0c	 mov	 ecx, DWORD PTR _en$[ebp]
  00926	51		 push	 ecx
  00927	e8 00 00 00 00	 call	 ?pack_int_value@@YGXPAUENTITY@@W4INT_TYPES@@H@Z ; pack_int_value

; 1050 : 
; 1051 : 			sample_index_list = va_arg (pargs, int *);

  0092c	8b 45 fc	 mov	 eax, DWORD PTR _pargs$[ebp]
  0092f	83 c0 04	 add	 eax, 4
  00932	89 45 fc	 mov	 DWORD PTR _pargs$[ebp], eax
  00935	8b 4d fc	 mov	 ecx, DWORD PTR _pargs$[ebp]
  00938	8b 51 fc	 mov	 edx, DWORD PTR [ecx-4]
  0093b	89 95 34 ff ff
	ff		 mov	 DWORD PTR _sample_index_list$91[ebp], edx

; 1052 : 
; 1053 : 			for (loop = 0; loop < sample_count; loop ++)

  00941	c7 85 58 ff ff
	ff 00 00 00 00	 mov	 DWORD PTR _loop$100[ebp], 0
  0094b	eb 0f		 jmp	 SHORT $LN15@transmit_e
$LN13@transmit_e:
  0094d	8b 85 58 ff ff
	ff		 mov	 eax, DWORD PTR _loop$100[ebp]
  00953	83 c0 01	 add	 eax, 1
  00956	89 85 58 ff ff
	ff		 mov	 DWORD PTR _loop$100[ebp], eax
$LN15@transmit_e:
  0095c	8b 85 58 ff ff
	ff		 mov	 eax, DWORD PTR _loop$100[ebp]
  00962	3b 85 38 ff ff
	ff		 cmp	 eax, DWORD PTR _sample_count$92[ebp]
  00968	7d 2c		 jge	 SHORT $LN14@transmit_e

; 1054 : 			{
; 1055 : 				index = sample_index_list [loop];

  0096a	8b 85 58 ff ff
	ff		 mov	 eax, DWORD PTR _loop$100[ebp]
  00970	8b 8d 34 ff ff
	ff		 mov	 ecx, DWORD PTR _sample_index_list$91[ebp]
  00976	8b 14 81	 mov	 edx, DWORD PTR [ecx+eax*4]
  00979	89 95 54 ff ff
	ff		 mov	 DWORD PTR _index$99[ebp], edx

; 1056 : 
; 1057 : 				pack_int_value (en, INT_TYPE_SOUND_EFFECT_INDEX, index);

  0097f	8b 85 54 ff ff
	ff		 mov	 eax, DWORD PTR _index$99[ebp]
  00985	50		 push	 eax
  00986	68 c1 00 00 00	 push	 193			; 000000c1H
  0098b	8b 4d 0c	 mov	 ecx, DWORD PTR _en$[ebp]
  0098e	51		 push	 ecx
  0098f	e8 00 00 00 00	 call	 ?pack_int_value@@YGXPAUENTITY@@W4INT_TYPES@@H@Z ; pack_int_value

; 1058 : 			}

  00994	eb b7		 jmp	 SHORT $LN13@transmit_e
$LN14@transmit_e:

; 1059 : 
; 1060 : 			#if DEBUG_MODULE_MESSAGE_TEXT
; 1061 : 
; 1062 : 			debug_log ("EN_COMMS: sending create sound effect for %s (%d)", entity_type_names [parent->type], get_local_entity_index (parent));
; 1063 : 
; 1064 : 			#endif
; 1065 : 
; 1066 : 			break;

  00996	e9 2a 2c 00 00	 jmp	 $LN2@transmit_e
$LN73@transmit_e:

; 1067 : 		}
; 1068 : 		////////////////////////////////////////
; 1069 : 		case ENTITY_COMMS_CREATE_WAYPOINT_ROUTE:
; 1070 : 		////////////////////////////////////////
; 1071 : 		{
; 1072 : 			//
; 1073 : 			// (entity_comms_messages message, entity *en, unsigned int check_sum)
; 1074 : 			//
; 1075 : 
; 1076 : 			vec3d
; 1077 : 				*start,
; 1078 : 				*stop;
; 1079 : 
; 1080 : 			entity
; 1081 : 				*wp,
; 1082 : 				*group,
; 1083 : 				*return_keysite;
; 1084 : 
; 1085 : 			unsigned int
; 1086 : 				count,
; 1087 : 				check_sum;
; 1088 : 
; 1089 : 			////////////////////////////////////////
; 1090 : 
; 1091 : 			ASSERT (en);

  0099b	83 7d 0c 00	 cmp	 DWORD PTR _en$[ebp], 0
  0099f	75 1a		 jne	 SHORT $LN74@transmit_e
  009a1	a1 00 00 00 00	 mov	 eax, DWORD PTR ?__LINE__Var@?0??transmit_entity_comms_message@@YAXW4ENTITY_COMMS_MESSAGES@@PAUENTITY@@ZZ@4JA
  009a6	05 6a 02 00 00	 add	 eax, 618		; 0000026aH
  009ab	50		 push	 eax
  009ac	68 00 00 00 00	 push	 OFFSET ??_C@_0EO@OCMIKFBI@c?3?2users?2nhv90?2projects?2eech?2ap@
  009b1	68 00 00 00 00	 push	 OFFSET ??_C@_02LFNMGJAP@en@
  009b6	e8 00 00 00 00	 call	 ?process_assert@@YGXPBD0H@Z ; process_assert
$LN74@transmit_e:

; 1092 : 			pack_entity_safe_ptr (en);

  009bb	8b 45 0c	 mov	 eax, DWORD PTR _en$[ebp]
  009be	50		 push	 eax
  009bf	e8 00 00 00 00	 call	 ?pack_entity_safe_ptr@@YGXPAUENTITY@@@Z ; pack_entity_safe_ptr

; 1093 : 
; 1094 : 			group = va_arg (pargs, entity *);

  009c4	8b 45 fc	 mov	 eax, DWORD PTR _pargs$[ebp]
  009c7	83 c0 04	 add	 eax, 4
  009ca	89 45 fc	 mov	 DWORD PTR _pargs$[ebp], eax
  009cd	8b 4d fc	 mov	 ecx, DWORD PTR _pargs$[ebp]
  009d0	8b 51 fc	 mov	 edx, DWORD PTR [ecx-4]
  009d3	89 95 18 ff ff
	ff		 mov	 DWORD PTR _group$84[ebp], edx

; 1095 : 			pack_entity_safe_ptr (group);

  009d9	8b 85 18 ff ff
	ff		 mov	 eax, DWORD PTR _group$84[ebp]
  009df	50		 push	 eax
  009e0	e8 00 00 00 00	 call	 ?pack_entity_safe_ptr@@YGXPAUENTITY@@@Z ; pack_entity_safe_ptr

; 1096 : 
; 1097 : 			return_keysite = va_arg (pargs, entity *);

  009e5	8b 45 fc	 mov	 eax, DWORD PTR _pargs$[ebp]
  009e8	83 c0 04	 add	 eax, 4
  009eb	89 45 fc	 mov	 DWORD PTR _pargs$[ebp], eax
  009ee	8b 4d fc	 mov	 ecx, DWORD PTR _pargs$[ebp]
  009f1	8b 51 fc	 mov	 edx, DWORD PTR [ecx-4]
  009f4	89 95 14 ff ff
	ff		 mov	 DWORD PTR _return_keysite$83[ebp], edx

; 1098 : 			pack_entity_safe_ptr (return_keysite);

  009fa	8b 85 14 ff ff
	ff		 mov	 eax, DWORD PTR _return_keysite$83[ebp]
  00a00	50		 push	 eax
  00a01	e8 00 00 00 00	 call	 ?pack_entity_safe_ptr@@YGXPAUENTITY@@@Z ; pack_entity_safe_ptr

; 1099 : 
; 1100 : 			start = va_arg (pargs, vec3d *);

  00a06	8b 45 fc	 mov	 eax, DWORD PTR _pargs$[ebp]
  00a09	83 c0 04	 add	 eax, 4
  00a0c	89 45 fc	 mov	 DWORD PTR _pargs$[ebp], eax
  00a0f	8b 4d fc	 mov	 ecx, DWORD PTR _pargs$[ebp]
  00a12	8b 51 fc	 mov	 edx, DWORD PTR [ecx-4]
  00a15	89 95 24 ff ff
	ff		 mov	 DWORD PTR _start$87[ebp], edx

; 1101 : 
; 1102 : 			if (start)

  00a1b	83 bd 24 ff ff
	ff 00		 cmp	 DWORD PTR _start$87[ebp], 0
  00a22	74 20		 je	 SHORT $LN75@transmit_e

; 1103 : 			{
; 1104 : 
; 1105 : 				pack_int_value (NULL, INT_TYPE_VALID, TRUE);

  00a24	6a 01		 push	 1
  00a26	68 ef 00 00 00	 push	 239			; 000000efH
  00a2b	6a 00		 push	 0
  00a2d	e8 00 00 00 00	 call	 ?pack_int_value@@YGXPAUENTITY@@W4INT_TYPES@@H@Z ; pack_int_value

; 1106 : 				pack_vec3d (NULL, VEC3D_TYPE_POSITION, start);

  00a32	8b 85 24 ff ff
	ff		 mov	 eax, DWORD PTR _start$87[ebp]
  00a38	50		 push	 eax
  00a39	6a 08		 push	 8
  00a3b	6a 00		 push	 0
  00a3d	e8 00 00 00 00	 call	 ?pack_vec3d@@YGXPAUENTITY@@W4VEC3D_TYPES@@PAUVEC3D@@@Z ; pack_vec3d

; 1107 : 			}
; 1108 : 			else

  00a42	eb 0e		 jmp	 SHORT $LN76@transmit_e
$LN75@transmit_e:

; 1109 : 			{
; 1110 : 
; 1111 : 				pack_int_value (NULL, INT_TYPE_VALID, FALSE);

  00a44	6a 00		 push	 0
  00a46	68 ef 00 00 00	 push	 239			; 000000efH
  00a4b	6a 00		 push	 0
  00a4d	e8 00 00 00 00	 call	 ?pack_int_value@@YGXPAUENTITY@@W4INT_TYPES@@H@Z ; pack_int_value
$LN76@transmit_e:

; 1112 : 			}
; 1113 : 
; 1114 : 			stop = va_arg (pargs, vec3d *);

  00a52	8b 45 fc	 mov	 eax, DWORD PTR _pargs$[ebp]
  00a55	83 c0 04	 add	 eax, 4
  00a58	89 45 fc	 mov	 DWORD PTR _pargs$[ebp], eax
  00a5b	8b 4d fc	 mov	 ecx, DWORD PTR _pargs$[ebp]
  00a5e	8b 51 fc	 mov	 edx, DWORD PTR [ecx-4]
  00a61	89 95 20 ff ff
	ff		 mov	 DWORD PTR _stop$86[ebp], edx

; 1115 : 
; 1116 : 			if (stop)

  00a67	83 bd 20 ff ff
	ff 00		 cmp	 DWORD PTR _stop$86[ebp], 0
  00a6e	74 20		 je	 SHORT $LN77@transmit_e

; 1117 : 			{
; 1118 : 
; 1119 : 				pack_int_value (NULL, INT_TYPE_VALID, TRUE);

  00a70	6a 01		 push	 1
  00a72	68 ef 00 00 00	 push	 239			; 000000efH
  00a77	6a 00		 push	 0
  00a79	e8 00 00 00 00	 call	 ?pack_int_value@@YGXPAUENTITY@@W4INT_TYPES@@H@Z ; pack_int_value

; 1120 : 				pack_vec3d (NULL, VEC3D_TYPE_POSITION, stop);

  00a7e	8b 85 20 ff ff
	ff		 mov	 eax, DWORD PTR _stop$86[ebp]
  00a84	50		 push	 eax
  00a85	6a 08		 push	 8
  00a87	6a 00		 push	 0
  00a89	e8 00 00 00 00	 call	 ?pack_vec3d@@YGXPAUENTITY@@W4VEC3D_TYPES@@PAUVEC3D@@@Z ; pack_vec3d

; 1121 : 			}
; 1122 : 			else

  00a8e	eb 0e		 jmp	 SHORT $LN78@transmit_e
$LN77@transmit_e:

; 1123 : 			{
; 1124 : 
; 1125 : 				pack_int_value (NULL, INT_TYPE_VALID, FALSE);

  00a90	6a 00		 push	 0
  00a92	68 ef 00 00 00	 push	 239			; 000000efH
  00a97	6a 00		 push	 0
  00a99	e8 00 00 00 00	 call	 ?pack_int_value@@YGXPAUENTITY@@W4INT_TYPES@@H@Z ; pack_int_value
$LN78@transmit_e:

; 1126 : 			}
; 1127 : 
; 1128 : 			////////////////////////////////////////
; 1129 : 
; 1130 : 			check_sum = va_arg (pargs, unsigned int);

  00a9e	8b 45 fc	 mov	 eax, DWORD PTR _pargs$[ebp]
  00aa1	83 c0 04	 add	 eax, 4
  00aa4	89 45 fc	 mov	 DWORD PTR _pargs$[ebp], eax
  00aa7	8b 4d fc	 mov	 ecx, DWORD PTR _pargs$[ebp]
  00aaa	8b 51 fc	 mov	 edx, DWORD PTR [ecx-4]
  00aad	89 95 0c ff ff
	ff		 mov	 DWORD PTR _check_sum$81[ebp], edx

; 1131 : 
; 1132 : 			pack_int_value (en, INT_TYPE_ROUTE_CHECK_SUM, check_sum);

  00ab3	8b 85 0c ff ff
	ff		 mov	 eax, DWORD PTR _check_sum$81[ebp]
  00ab9	50		 push	 eax
  00aba	68 b2 00 00 00	 push	 178			; 000000b2H
  00abf	8b 4d 0c	 mov	 ecx, DWORD PTR _en$[ebp]
  00ac2	51		 push	 ecx
  00ac3	e8 00 00 00 00	 call	 ?pack_int_value@@YGXPAUENTITY@@W4INT_TYPES@@H@Z ; pack_int_value

; 1133 : 
; 1134 : 			////////////////////////////////////////
; 1135 : 			
; 1136 : 			count = 0;

  00ac8	c7 85 10 ff ff
	ff 00 00 00 00	 mov	 DWORD PTR _count$82[ebp], 0

; 1137 : 
; 1138 : 			wp = get_local_entity_first_child (en, LIST_TYPE_WAYPOINT);

  00ad2	83 7d 0c 00	 cmp	 DWORD PTR _en$[ebp], 0
  00ad6	74 0d		 je	 SHORT $LN220@transmit_e
  00ad8	8b 45 0c	 mov	 eax, DWORD PTR _en$[ebp]
  00adb	8b 08		 mov	 ecx, DWORD PTR [eax]
  00add	89 8d 44 fd ff
	ff		 mov	 DWORD PTR tv497[ebp], ecx
  00ae3	eb 27		 jmp	 SHORT $LN221@transmit_e
$LN220@transmit_e:
  00ae5	8b 15 00 00 00
	00		 mov	 edx, DWORD PTR ?__LINE__Var@?0??transmit_entity_comms_message@@YAXW4ENTITY_COMMS_MESSAGES@@PAUENTITY@@ZZ@4JA
  00aeb	81 c2 99 02 00
	00		 add	 edx, 665		; 00000299H
  00af1	52		 push	 edx
  00af2	68 00 00 00 00	 push	 OFFSET ??_C@_0EO@OCMIKFBI@c?3?2users?2nhv90?2projects?2eech?2ap@
  00af7	a1 00 00 00 00	 mov	 eax, DWORD PTR ?null_entity_pointer_message@@3PBDB ; null_entity_pointer_message
  00afc	50		 push	 eax
  00afd	e8 00 00 00 00	 call	 ?process_assert@@YGXPBD0H@Z ; process_assert
  00b02	c7 85 44 fd ff
	ff 00 00 00 00	 mov	 DWORD PTR tv497[ebp], 0
$LN221@transmit_e:
  00b0c	b9 01 00 00 00	 mov	 ecx, 1
  00b11	85 c9		 test	 ecx, ecx
  00b13	74 0c		 je	 SHORT $LN222@transmit_e
  00b15	c7 85 40 fd ff
	ff 2c 00 00 00	 mov	 DWORD PTR tv505[ebp], 44 ; 0000002cH
  00b1f	eb 27		 jmp	 SHORT $LN223@transmit_e
$LN222@transmit_e:
  00b21	8b 15 00 00 00
	00		 mov	 edx, DWORD PTR ?__LINE__Var@?0??transmit_entity_comms_message@@YAXW4ENTITY_COMMS_MESSAGES@@PAUENTITY@@ZZ@4JA
  00b27	81 c2 99 02 00
	00		 add	 edx, 665		; 00000299H
  00b2d	52		 push	 edx
  00b2e	68 00 00 00 00	 push	 OFFSET ??_C@_0EO@OCMIKFBI@c?3?2users?2nhv90?2projects?2eech?2ap@
  00b33	a1 00 00 00 00	 mov	 eax, DWORD PTR ?overload_invalid_list_type_message@@3PBDB ; overload_invalid_list_type_message
  00b38	50		 push	 eax
  00b39	e8 00 00 00 00	 call	 ?process_assert@@YGXPBD0H@Z ; process_assert
  00b3e	c7 85 40 fd ff
	ff 00 00 00 00	 mov	 DWORD PTR tv505[ebp], 0
$LN223@transmit_e:
  00b48	6a 2c		 push	 44			; 0000002cH
  00b4a	8b 4d 0c	 mov	 ecx, DWORD PTR _en$[ebp]
  00b4d	51		 push	 ecx
  00b4e	69 95 44 fd ff
	ff b4 00 00 00	 imul	 edx, DWORD PTR tv497[ebp], 180
  00b58	8b 85 40 fd ff
	ff		 mov	 eax, DWORD PTR tv505[ebp]
  00b5e	8b 8c 82 00 00
	00 00		 mov	 ecx, DWORD PTR ?fn_get_local_entity_first_child@@3PAY0CN@P6GPAUENTITY@@PAU1@W4LIST_TYPES@@@ZA[edx+eax*4]
  00b65	ff d1		 call	 ecx
  00b67	89 85 1c ff ff
	ff		 mov	 DWORD PTR _wp$85[ebp], eax
$LN16@transmit_e:

; 1139 : 
; 1140 : 			while (wp)

  00b6d	83 bd 1c ff ff
	ff 00		 cmp	 DWORD PTR _wp$85[ebp], 0
  00b74	0f 84 b8 00 00
	00		 je	 $LN17@transmit_e

; 1141 : 			{
; 1142 : 
; 1143 : 				count ++;

  00b7a	8b 85 10 ff ff
	ff		 mov	 eax, DWORD PTR _count$82[ebp]
  00b80	83 c0 01	 add	 eax, 1
  00b83	89 85 10 ff ff
	ff		 mov	 DWORD PTR _count$82[ebp], eax

; 1144 : 
; 1145 : 				wp = get_local_entity_child_succ (wp, LIST_TYPE_WAYPOINT);

  00b89	83 bd 1c ff ff
	ff 00		 cmp	 DWORD PTR _wp$85[ebp], 0
  00b90	74 10		 je	 SHORT $LN224@transmit_e
  00b92	8b 85 1c ff ff
	ff		 mov	 eax, DWORD PTR _wp$85[ebp]
  00b98	8b 08		 mov	 ecx, DWORD PTR [eax]
  00b9a	89 8d 44 fd ff
	ff		 mov	 DWORD PTR tv519[ebp], ecx
  00ba0	eb 27		 jmp	 SHORT $LN225@transmit_e
$LN224@transmit_e:
  00ba2	8b 15 00 00 00
	00		 mov	 edx, DWORD PTR ?__LINE__Var@?0??transmit_entity_comms_message@@YAXW4ENTITY_COMMS_MESSAGES@@PAUENTITY@@ZZ@4JA
  00ba8	81 c2 a0 02 00
	00		 add	 edx, 672		; 000002a0H
  00bae	52		 push	 edx
  00baf	68 00 00 00 00	 push	 OFFSET ??_C@_0EO@OCMIKFBI@c?3?2users?2nhv90?2projects?2eech?2ap@
  00bb4	a1 00 00 00 00	 mov	 eax, DWORD PTR ?null_entity_pointer_message@@3PBDB ; null_entity_pointer_message
  00bb9	50		 push	 eax
  00bba	e8 00 00 00 00	 call	 ?process_assert@@YGXPBD0H@Z ; process_assert
  00bbf	c7 85 44 fd ff
	ff 00 00 00 00	 mov	 DWORD PTR tv519[ebp], 0
$LN225@transmit_e:
  00bc9	b9 01 00 00 00	 mov	 ecx, 1
  00bce	85 c9		 test	 ecx, ecx
  00bd0	74 0c		 je	 SHORT $LN226@transmit_e
  00bd2	c7 85 40 fd ff
	ff 2c 00 00 00	 mov	 DWORD PTR tv527[ebp], 44 ; 0000002cH
  00bdc	eb 27		 jmp	 SHORT $LN227@transmit_e
$LN226@transmit_e:
  00bde	8b 15 00 00 00
	00		 mov	 edx, DWORD PTR ?__LINE__Var@?0??transmit_entity_comms_message@@YAXW4ENTITY_COMMS_MESSAGES@@PAUENTITY@@ZZ@4JA
  00be4	81 c2 a0 02 00
	00		 add	 edx, 672		; 000002a0H
  00bea	52		 push	 edx
  00beb	68 00 00 00 00	 push	 OFFSET ??_C@_0EO@OCMIKFBI@c?3?2users?2nhv90?2projects?2eech?2ap@
  00bf0	a1 00 00 00 00	 mov	 eax, DWORD PTR ?overload_invalid_list_type_message@@3PBDB ; overload_invalid_list_type_message
  00bf5	50		 push	 eax
  00bf6	e8 00 00 00 00	 call	 ?process_assert@@YGXPBD0H@Z ; process_assert
  00bfb	c7 85 40 fd ff
	ff 00 00 00 00	 mov	 DWORD PTR tv527[ebp], 0
$LN227@transmit_e:
  00c05	6a 2c		 push	 44			; 0000002cH
  00c07	8b 8d 1c ff ff
	ff		 mov	 ecx, DWORD PTR _wp$85[ebp]
  00c0d	51		 push	 ecx
  00c0e	69 95 44 fd ff
	ff b4 00 00 00	 imul	 edx, DWORD PTR tv519[ebp], 180
  00c18	8b 85 40 fd ff
	ff		 mov	 eax, DWORD PTR tv527[ebp]
  00c1e	8b 8c 82 00 00
	00 00		 mov	 ecx, DWORD PTR ?fn_get_local_entity_child_succ@@3PAY0CN@P6GPAUENTITY@@PAU1@W4LIST_TYPES@@@ZA[edx+eax*4]
  00c25	ff d1		 call	 ecx
  00c27	89 85 1c ff ff
	ff		 mov	 DWORD PTR _wp$85[ebp], eax

; 1146 : 			}

  00c2d	e9 3b ff ff ff	 jmp	 $LN16@transmit_e
$LN17@transmit_e:

; 1147 : 
; 1148 : 			pack_int_value (en, INT_TYPE_ROUTE_LENGTH, count);

  00c32	8b 85 10 ff ff
	ff		 mov	 eax, DWORD PTR _count$82[ebp]
  00c38	50		 push	 eax
  00c39	68 b3 00 00 00	 push	 179			; 000000b3H
  00c3e	8b 4d 0c	 mov	 ecx, DWORD PTR _en$[ebp]
  00c41	51		 push	 ecx
  00c42	e8 00 00 00 00	 call	 ?pack_int_value@@YGXPAUENTITY@@W4INT_TYPES@@H@Z ; pack_int_value

; 1149 : 
; 1150 : 			////////////////////////////////////////
; 1151 : 
; 1152 : 			wp = get_local_entity_first_child (en, LIST_TYPE_WAYPOINT);

  00c47	83 7d 0c 00	 cmp	 DWORD PTR _en$[ebp], 0
  00c4b	74 0d		 je	 SHORT $LN228@transmit_e
  00c4d	8b 45 0c	 mov	 eax, DWORD PTR _en$[ebp]
  00c50	8b 08		 mov	 ecx, DWORD PTR [eax]
  00c52	89 8d 44 fd ff
	ff		 mov	 DWORD PTR tv542[ebp], ecx
  00c58	eb 27		 jmp	 SHORT $LN229@transmit_e
$LN228@transmit_e:
  00c5a	8b 15 00 00 00
	00		 mov	 edx, DWORD PTR ?__LINE__Var@?0??transmit_entity_comms_message@@YAXW4ENTITY_COMMS_MESSAGES@@PAUENTITY@@ZZ@4JA
  00c60	81 c2 a7 02 00
	00		 add	 edx, 679		; 000002a7H
  00c66	52		 push	 edx
  00c67	68 00 00 00 00	 push	 OFFSET ??_C@_0EO@OCMIKFBI@c?3?2users?2nhv90?2projects?2eech?2ap@
  00c6c	a1 00 00 00 00	 mov	 eax, DWORD PTR ?null_entity_pointer_message@@3PBDB ; null_entity_pointer_message
  00c71	50		 push	 eax
  00c72	e8 00 00 00 00	 call	 ?process_assert@@YGXPBD0H@Z ; process_assert
  00c77	c7 85 44 fd ff
	ff 00 00 00 00	 mov	 DWORD PTR tv542[ebp], 0
$LN229@transmit_e:
  00c81	b9 01 00 00 00	 mov	 ecx, 1
  00c86	85 c9		 test	 ecx, ecx
  00c88	74 0c		 je	 SHORT $LN230@transmit_e
  00c8a	c7 85 40 fd ff
	ff 2c 00 00 00	 mov	 DWORD PTR tv550[ebp], 44 ; 0000002cH
  00c94	eb 27		 jmp	 SHORT $LN231@transmit_e
$LN230@transmit_e:
  00c96	8b 15 00 00 00
	00		 mov	 edx, DWORD PTR ?__LINE__Var@?0??transmit_entity_comms_message@@YAXW4ENTITY_COMMS_MESSAGES@@PAUENTITY@@ZZ@4JA
  00c9c	81 c2 a7 02 00
	00		 add	 edx, 679		; 000002a7H
  00ca2	52		 push	 edx
  00ca3	68 00 00 00 00	 push	 OFFSET ??_C@_0EO@OCMIKFBI@c?3?2users?2nhv90?2projects?2eech?2ap@
  00ca8	a1 00 00 00 00	 mov	 eax, DWORD PTR ?overload_invalid_list_type_message@@3PBDB ; overload_invalid_list_type_message
  00cad	50		 push	 eax
  00cae	e8 00 00 00 00	 call	 ?process_assert@@YGXPBD0H@Z ; process_assert
  00cb3	c7 85 40 fd ff
	ff 00 00 00 00	 mov	 DWORD PTR tv550[ebp], 0
$LN231@transmit_e:
  00cbd	6a 2c		 push	 44			; 0000002cH
  00cbf	8b 4d 0c	 mov	 ecx, DWORD PTR _en$[ebp]
  00cc2	51		 push	 ecx
  00cc3	69 95 44 fd ff
	ff b4 00 00 00	 imul	 edx, DWORD PTR tv542[ebp], 180
  00ccd	8b 85 40 fd ff
	ff		 mov	 eax, DWORD PTR tv550[ebp]
  00cd3	8b 8c 82 00 00
	00 00		 mov	 ecx, DWORD PTR ?fn_get_local_entity_first_child@@3PAY0CN@P6GPAUENTITY@@PAU1@W4LIST_TYPES@@@ZA[edx+eax*4]
  00cda	ff d1		 call	 ecx
  00cdc	89 85 1c ff ff
	ff		 mov	 DWORD PTR _wp$85[ebp], eax
$LN18@transmit_e:

; 1153 : 
; 1154 : 			while (wp)

  00ce2	83 bd 1c ff ff
	ff 00		 cmp	 DWORD PTR _wp$85[ebp], 0
  00ce9	0f 84 be 00 00
	00		 je	 $LN19@transmit_e

; 1155 : 			{
; 1156 : 
; 1157 : 				pack_entity_safe_index (get_local_entity_index (wp));

  00cef	8b 85 1c ff ff
	ff		 mov	 eax, DWORD PTR _wp$85[ebp]
  00cf5	2b 05 00 00 00
	00		 sub	 eax, DWORD PTR ?entities@@3PAUENTITY@@A ; entities
  00cfb	c1 f8 04	 sar	 eax, 4
  00cfe	50		 push	 eax
  00cff	e8 00 00 00 00	 call	 ?pack_entity_safe_index@@YGXH@Z ; pack_entity_safe_index

; 1158 : 
; 1159 : 				wp = get_local_entity_child_succ (wp, LIST_TYPE_WAYPOINT);

  00d04	83 bd 1c ff ff
	ff 00		 cmp	 DWORD PTR _wp$85[ebp], 0
  00d0b	74 10		 je	 SHORT $LN232@transmit_e
  00d0d	8b 85 1c ff ff
	ff		 mov	 eax, DWORD PTR _wp$85[ebp]
  00d13	8b 08		 mov	 ecx, DWORD PTR [eax]
  00d15	89 8d 44 fd ff
	ff		 mov	 DWORD PTR tv566[ebp], ecx
  00d1b	eb 27		 jmp	 SHORT $LN233@transmit_e
$LN232@transmit_e:
  00d1d	8b 15 00 00 00
	00		 mov	 edx, DWORD PTR ?__LINE__Var@?0??transmit_entity_comms_message@@YAXW4ENTITY_COMMS_MESSAGES@@PAUENTITY@@ZZ@4JA
  00d23	81 c2 ae 02 00
	00		 add	 edx, 686		; 000002aeH
  00d29	52		 push	 edx
  00d2a	68 00 00 00 00	 push	 OFFSET ??_C@_0EO@OCMIKFBI@c?3?2users?2nhv90?2projects?2eech?2ap@
  00d2f	a1 00 00 00 00	 mov	 eax, DWORD PTR ?null_entity_pointer_message@@3PBDB ; null_entity_pointer_message
  00d34	50		 push	 eax
  00d35	e8 00 00 00 00	 call	 ?process_assert@@YGXPBD0H@Z ; process_assert
  00d3a	c7 85 44 fd ff
	ff 00 00 00 00	 mov	 DWORD PTR tv566[ebp], 0
$LN233@transmit_e:
  00d44	b9 01 00 00 00	 mov	 ecx, 1
  00d49	85 c9		 test	 ecx, ecx
  00d4b	74 0c		 je	 SHORT $LN234@transmit_e
  00d4d	c7 85 40 fd ff
	ff 2c 00 00 00	 mov	 DWORD PTR tv574[ebp], 44 ; 0000002cH
  00d57	eb 27		 jmp	 SHORT $LN235@transmit_e
$LN234@transmit_e:
  00d59	8b 15 00 00 00
	00		 mov	 edx, DWORD PTR ?__LINE__Var@?0??transmit_entity_comms_message@@YAXW4ENTITY_COMMS_MESSAGES@@PAUENTITY@@ZZ@4JA
  00d5f	81 c2 ae 02 00
	00		 add	 edx, 686		; 000002aeH
  00d65	52		 push	 edx
  00d66	68 00 00 00 00	 push	 OFFSET ??_C@_0EO@OCMIKFBI@c?3?2users?2nhv90?2projects?2eech?2ap@
  00d6b	a1 00 00 00 00	 mov	 eax, DWORD PTR ?overload_invalid_list_type_message@@3PBDB ; overload_invalid_list_type_message
  00d70	50		 push	 eax
  00d71	e8 00 00 00 00	 call	 ?process_assert@@YGXPBD0H@Z ; process_assert
  00d76	c7 85 40 fd ff
	ff 00 00 00 00	 mov	 DWORD PTR tv574[ebp], 0
$LN235@transmit_e:
  00d80	6a 2c		 push	 44			; 0000002cH
  00d82	8b 8d 1c ff ff
	ff		 mov	 ecx, DWORD PTR _wp$85[ebp]
  00d88	51		 push	 ecx
  00d89	69 95 44 fd ff
	ff b4 00 00 00	 imul	 edx, DWORD PTR tv566[ebp], 180
  00d93	8b 85 40 fd ff
	ff		 mov	 eax, DWORD PTR tv574[ebp]
  00d99	8b 8c 82 00 00
	00 00		 mov	 ecx, DWORD PTR ?fn_get_local_entity_child_succ@@3PAY0CN@P6GPAUENTITY@@PAU1@W4LIST_TYPES@@@ZA[edx+eax*4]
  00da0	ff d1		 call	 ecx
  00da2	89 85 1c ff ff
	ff		 mov	 DWORD PTR _wp$85[ebp], eax

; 1160 : 			}

  00da8	e9 35 ff ff ff	 jmp	 $LN18@transmit_e
$LN19@transmit_e:

; 1161 : 
; 1162 : 			#if DEBUG_MODULE_MESSAGE_TEXT
; 1163 : 
; 1164 : 			debug_log ("EN_COMMS: sending create waypoint route for %s (%d) check_sum %d", get_local_entity_string (en, STRING_TYPE_FULL_NAME), get_local_entity_index (en), check_sum);
; 1165 : 
; 1166 : 			#endif
; 1167 : 
; 1168 : 			break;

  00dad	e9 13 28 00 00	 jmp	 $LN2@transmit_e
$LN79@transmit_e:

; 1169 : 		}
; 1170 : 		////////////////////////////////////////
; 1171 : 		case ENTITY_COMMS_CREATE_WEAPON:
; 1172 : 		////////////////////////////////////////
; 1173 : 		{
; 1174 : 			//
; 1175 : 			// (entity_comms_messages message, entity *en, entity *launcher, entity_sub_type weapon_sub_type, int weapon_index, int burst_size, int *smoke_trail_indices)
; 1176 : 			//
; 1177 : 
; 1178 : 			entity
; 1179 : 				*launcher;
; 1180 : 
; 1181 : 			entity_sub_types
; 1182 : 				weapon_sub_type;
; 1183 : 
; 1184 : 			int
; 1185 : 				weapon_index,
; 1186 : 				burst_size,
; 1187 : 				*smoke_trail_indices,
; 1188 : 				num_smoke_trail_entities,
; 1189 : 				i;
; 1190 : 
; 1191 : 			meta_smoke_list_types
; 1192 : 				smoke_trail_type;
; 1193 : 
; 1194 : 			ASSERT (!en);

  00db2	83 7d 0c 00	 cmp	 DWORD PTR _en$[ebp], 0
  00db6	74 1a		 je	 SHORT $LN80@transmit_e
  00db8	a1 00 00 00 00	 mov	 eax, DWORD PTR ?__LINE__Var@?0??transmit_entity_comms_message@@YAXW4ENTITY_COMMS_MESSAGES@@PAUENTITY@@ZZ@4JA
  00dbd	05 d1 02 00 00	 add	 eax, 721		; 000002d1H
  00dc2	50		 push	 eax
  00dc3	68 00 00 00 00	 push	 OFFSET ??_C@_0EO@OCMIKFBI@c?3?2users?2nhv90?2projects?2eech?2ap@
  00dc8	68 00 00 00 00	 push	 OFFSET ??_C@_03HDFHKHFK@?$CBen@
  00dcd	e8 00 00 00 00	 call	 ?process_assert@@YGXPBD0H@Z ; process_assert
$LN80@transmit_e:

; 1195 : 
; 1196 : 			////////////////////////////////////////
; 1197 : 
; 1198 : 			launcher = va_arg (pargs, entity *);

  00dd2	8b 45 fc	 mov	 eax, DWORD PTR _pargs$[ebp]
  00dd5	83 c0 04	 add	 eax, 4
  00dd8	89 45 fc	 mov	 DWORD PTR _pargs$[ebp], eax
  00ddb	8b 4d fc	 mov	 ecx, DWORD PTR _pargs$[ebp]
  00dde	8b 51 fc	 mov	 edx, DWORD PTR [ecx-4]
  00de1	89 95 08 ff ff
	ff		 mov	 DWORD PTR _launcher$80[ebp], edx

; 1199 : 
; 1200 : 			ASSERT (launcher);

  00de7	83 bd 08 ff ff
	ff 00		 cmp	 DWORD PTR _launcher$80[ebp], 0
  00dee	75 1a		 jne	 SHORT $LN81@transmit_e
  00df0	a1 00 00 00 00	 mov	 eax, DWORD PTR ?__LINE__Var@?0??transmit_entity_comms_message@@YAXW4ENTITY_COMMS_MESSAGES@@PAUENTITY@@ZZ@4JA
  00df5	05 d7 02 00 00	 add	 eax, 727		; 000002d7H
  00dfa	50		 push	 eax
  00dfb	68 00 00 00 00	 push	 OFFSET ??_C@_0EO@OCMIKFBI@c?3?2users?2nhv90?2projects?2eech?2ap@
  00e00	68 00 00 00 00	 push	 OFFSET ??_C@_08EAFLGIKM@launcher@
  00e05	e8 00 00 00 00	 call	 ?process_assert@@YGXPBD0H@Z ; process_assert
$LN81@transmit_e:

; 1201 : 
; 1202 : 			////////////////////////////////////////
; 1203 : 			// DEBUG COMMS WEAPON LAG TIMING
; 1204 : 			////////////////////////////////////////
; 1205 : 			if (get_comms_model () == COMMS_MODEL_CLIENT)

  00e0a	83 3d 00 00 00
	00 01		 cmp	 DWORD PTR ?system_comms_model@@3W4COMMS_MODEL_TYPES@@A, 1 ; system_comms_model
  00e11	75 5d		 jne	 SHORT $LN83@transmit_e

; 1206 : 			{
; 1207 : 
; 1208 : 				if (launcher == get_gunship_entity ())

  00e13	8b 85 08 ff ff
	ff		 mov	 eax, DWORD PTR _launcher$80[ebp]
  00e19	3b 05 00 00 00
	00		 cmp	 eax, DWORD PTR ?gunship_entity@@3PAUENTITY@@A ; gunship_entity
  00e1f	75 4f		 jne	 SHORT $LN83@transmit_e

; 1209 : 				{
; 1210 : 
; 1211 : 					comms_weapon_lag_timing = TRUE;

  00e21	c7 05 00 00 00
	00 01 00 00 00	 mov	 DWORD PTR ?comms_weapon_lag_timing@@3HA, 1 ; comms_weapon_lag_timing

; 1212 : 
; 1213 : 					comms_weapon_lag_time = ((float) get_system_time () / (float) TIME_1_SECOND);

  00e2b	e8 00 00 00 00	 call	 ?get_system_time@@YGIXZ	; get_system_time
  00e30	89 85 44 fd ff
	ff		 mov	 DWORD PTR tv2317[ebp], eax
  00e36	f2 0f 2a 85 44
	fd ff ff	 cvtsi2sd xmm0, DWORD PTR tv2317[ebp]
  00e3e	8b 85 44 fd ff
	ff		 mov	 eax, DWORD PTR tv2317[ebp]
  00e44	c1 e8 1f	 shr	 eax, 31			; 0000001fH
  00e47	f2 0f 58 04 c5
	00 00 00 00	 addsd	 xmm0, QWORD PTR __xmm@41f00000000000000000000000000000[eax*8]
  00e50	f2 0f 11 85 3c
	fd ff ff	 movsd	 QWORD PTR tv2320[ebp], xmm0
  00e58	f2 0f 5a 85 3c
	fd ff ff	 cvtsd2ss xmm0, QWORD PTR tv2320[ebp]
  00e60	f3 0f 5e 05 00
	00 00 00	 divss	 xmm0, DWORD PTR __real@447a0000
  00e68	f3 0f 11 05 00
	00 00 00	 movss	 DWORD PTR ?comms_weapon_lag_time@@3MA, xmm0
$LN83@transmit_e:

; 1214 : 				}
; 1215 : 			}
; 1216 : 			////////////////////////////////////////
; 1217 : 			// DEBUG COMMS WEAPON LAG TIMING
; 1218 : 			////////////////////////////////////////
; 1219 : 
; 1220 : 			pack_entity_safe_ptr (launcher);

  00e70	8b 85 08 ff ff
	ff		 mov	 eax, DWORD PTR _launcher$80[ebp]
  00e76	50		 push	 eax
  00e77	e8 00 00 00 00	 call	 ?pack_entity_safe_ptr@@YGXPAUENTITY@@@Z ; pack_entity_safe_ptr

; 1221 : 
; 1222 : 			////////////////////////////////////////
; 1223 : 
; 1224 : 			weapon_sub_type = va_arg (pargs, entity_sub_types);

  00e7c	8b 45 fc	 mov	 eax, DWORD PTR _pargs$[ebp]
  00e7f	83 c0 04	 add	 eax, 4
  00e82	89 45 fc	 mov	 DWORD PTR _pargs$[ebp], eax
  00e85	8b 4d fc	 mov	 ecx, DWORD PTR _pargs$[ebp]
  00e88	8b 51 fc	 mov	 edx, DWORD PTR [ecx-4]
  00e8b	89 95 04 ff ff
	ff		 mov	 DWORD PTR _weapon_sub_type$79[ebp], edx

; 1225 : 
; 1226 : 			ASSERT (entity_sub_type_weapon_valid (weapon_sub_type));

  00e91	83 bd 04 ff ff
	ff 00		 cmp	 DWORD PTR _weapon_sub_type$79[ebp], 0
  00e98	7c 09		 jl	 SHORT $LN85@transmit_e
  00e9a	83 bd 04 ff ff
	ff 4c		 cmp	 DWORD PTR _weapon_sub_type$79[ebp], 76 ; 0000004cH
  00ea1	7c 1a		 jl	 SHORT $LN84@transmit_e
$LN85@transmit_e:
  00ea3	a1 00 00 00 00	 mov	 eax, DWORD PTR ?__LINE__Var@?0??transmit_entity_comms_message@@YAXW4ENTITY_COMMS_MESSAGES@@PAUENTITY@@ZZ@4JA
  00ea8	05 f1 02 00 00	 add	 eax, 753		; 000002f1H
  00ead	50		 push	 eax
  00eae	68 00 00 00 00	 push	 OFFSET ??_C@_0EO@OCMIKFBI@c?3?2users?2nhv90?2projects?2eech?2ap@
  00eb3	68 00 00 00 00	 push	 OFFSET ??_C@_0CP@MAFEAOFK@entity_sub_type_weapon_valid?5?$CIw@
  00eb8	e8 00 00 00 00	 call	 ?process_assert@@YGXPBD0H@Z ; process_assert
$LN84@transmit_e:

; 1227 : 
; 1228 : 			pack_int_value (en, INT_TYPE_ENTITY_SUB_TYPE, weapon_sub_type);

  00ebd	8b 85 04 ff ff
	ff		 mov	 eax, DWORD PTR _weapon_sub_type$79[ebp]
  00ec3	50		 push	 eax
  00ec4	6a 34		 push	 52			; 00000034H
  00ec6	8b 4d 0c	 mov	 ecx, DWORD PTR _en$[ebp]
  00ec9	51		 push	 ecx
  00eca	e8 00 00 00 00	 call	 ?pack_int_value@@YGXPAUENTITY@@W4INT_TYPES@@H@Z ; pack_int_value

; 1229 : 
; 1230 : 			////////////////////////////////////////
; 1231 : 
; 1232 : 			weapon_index = va_arg (pargs, int);

  00ecf	8b 45 fc	 mov	 eax, DWORD PTR _pargs$[ebp]
  00ed2	83 c0 04	 add	 eax, 4
  00ed5	89 45 fc	 mov	 DWORD PTR _pargs$[ebp], eax
  00ed8	8b 4d fc	 mov	 ecx, DWORD PTR _pargs$[ebp]
  00edb	8b 51 fc	 mov	 edx, DWORD PTR [ecx-4]
  00ede	89 95 00 ff ff
	ff		 mov	 DWORD PTR _weapon_index$78[ebp], edx

; 1233 : 
; 1234 : 			pack_entity_safe_index (weapon_index);

  00ee4	8b 85 00 ff ff
	ff		 mov	 eax, DWORD PTR _weapon_index$78[ebp]
  00eea	50		 push	 eax
  00eeb	e8 00 00 00 00	 call	 ?pack_entity_safe_index@@YGXH@Z ; pack_entity_safe_index

; 1235 : 
; 1236 : 			////////////////////////////////////////
; 1237 : 
; 1238 : 			burst_size = va_arg (pargs, int);

  00ef0	8b 45 fc	 mov	 eax, DWORD PTR _pargs$[ebp]
  00ef3	83 c0 04	 add	 eax, 4
  00ef6	89 45 fc	 mov	 DWORD PTR _pargs$[ebp], eax
  00ef9	8b 4d fc	 mov	 ecx, DWORD PTR _pargs$[ebp]
  00efc	8b 51 fc	 mov	 edx, DWORD PTR [ecx-4]
  00eff	89 95 fc fe ff
	ff		 mov	 DWORD PTR _burst_size$77[ebp], edx

; 1239 : 
; 1240 : 			if (get_comms_model () == COMMS_MODEL_SERVER)

  00f05	83 3d 00 00 00
	00 00		 cmp	 DWORD PTR ?system_comms_model@@3W4COMMS_MODEL_TYPES@@A, 0 ; system_comms_model
  00f0c	75 5a		 jne	 SHORT $LN86@transmit_e

; 1241 : 			{
; 1242 : 				ASSERT (burst_size > 0);

  00f0e	83 bd fc fe ff
	ff 00		 cmp	 DWORD PTR _burst_size$77[ebp], 0
  00f15	7f 1a		 jg	 SHORT $LN88@transmit_e
  00f17	a1 00 00 00 00	 mov	 eax, DWORD PTR ?__LINE__Var@?0??transmit_entity_comms_message@@YAXW4ENTITY_COMMS_MESSAGES@@PAUENTITY@@ZZ@4JA
  00f1c	05 01 03 00 00	 add	 eax, 769		; 00000301H
  00f21	50		 push	 eax
  00f22	68 00 00 00 00	 push	 OFFSET ??_C@_0EO@OCMIKFBI@c?3?2users?2nhv90?2projects?2eech?2ap@
  00f27	68 00 00 00 00	 push	 OFFSET ??_C@_0P@DFFDGLE@burst_size?5?$DO?50@
  00f2c	e8 00 00 00 00	 call	 ?process_assert@@YGXPBD0H@Z ; process_assert
$LN88@transmit_e:

; 1243 : 
; 1244 : 				if (weapon_database[weapon_sub_type].rate_of_fire != FIRE_SINGLE_WEAPON)

  00f31	69 85 04 ff ff
	ff e0 00 00 00	 imul	 eax, DWORD PTR _weapon_sub_type$79[ebp], 224
  00f3b	f3 0f 5a 80 c8
	00 00 00	 cvtss2sd xmm0, DWORD PTR ?weapon_database@@3PAUWEAPON_DATA@@A[eax+200]
  00f43	66 0f 2e 05 00
	00 00 00	 ucomisd xmm0, QWORD PTR __real@0000000000000000
  00f4b	9f		 lahf
  00f4c	f6 c4 44	 test	 ah, 68			; 00000044H
  00f4f	7b 15		 jnp	 SHORT $LN89@transmit_e

; 1245 : 				{
; 1246 : 					pack_int_value (en, INT_TYPE_WEAPON_BURST_SIZE, burst_size);

  00f51	8b 85 fc fe ff
	ff		 mov	 eax, DWORD PTR _burst_size$77[ebp]
  00f57	50		 push	 eax
  00f58	68 03 01 00 00	 push	 259			; 00000103H
  00f5d	8b 4d 0c	 mov	 ecx, DWORD PTR _en$[ebp]
  00f60	51		 push	 ecx
  00f61	e8 00 00 00 00	 call	 ?pack_int_value@@YGXPAUENTITY@@W4INT_TYPES@@H@Z ; pack_int_value
$LN89@transmit_e:

; 1247 : 				}
; 1248 : 			}
; 1249 : 			else

  00f66	eb 23		 jmp	 SHORT $LN90@transmit_e
$LN86@transmit_e:

; 1250 : 			{
; 1251 : 				ASSERT (burst_size == BURST_SIZE_DONT_CARE);

  00f68	83 bd fc fe ff
	ff 00		 cmp	 DWORD PTR _burst_size$77[ebp], 0
  00f6f	74 1a		 je	 SHORT $LN90@transmit_e
  00f71	a1 00 00 00 00	 mov	 eax, DWORD PTR ?__LINE__Var@?0??transmit_entity_comms_message@@YAXW4ENTITY_COMMS_MESSAGES@@PAUENTITY@@ZZ@4JA
  00f76	05 0a 03 00 00	 add	 eax, 778		; 0000030aH
  00f7b	50		 push	 eax
  00f7c	68 00 00 00 00	 push	 OFFSET ??_C@_0EO@OCMIKFBI@c?3?2users?2nhv90?2projects?2eech?2ap@
  00f81	68 00 00 00 00	 push	 OFFSET ??_C@_0CD@KEKOAANN@burst_size?5?$DN?$DN?5BURST_SIZE_DONT_C@
  00f86	e8 00 00 00 00	 call	 ?process_assert@@YGXPBD0H@Z ; process_assert
$LN90@transmit_e:

; 1252 : 			}
; 1253 : 
; 1254 : 			////////////////////////////////////////
; 1255 : 
; 1256 : 			smoke_trail_indices = va_arg (pargs, int *);

  00f8b	8b 45 fc	 mov	 eax, DWORD PTR _pargs$[ebp]
  00f8e	83 c0 04	 add	 eax, 4
  00f91	89 45 fc	 mov	 DWORD PTR _pargs$[ebp], eax
  00f94	8b 4d fc	 mov	 ecx, DWORD PTR _pargs$[ebp]
  00f97	8b 51 fc	 mov	 edx, DWORD PTR [ecx-4]
  00f9a	89 95 f8 fe ff
	ff		 mov	 DWORD PTR _smoke_trail_indices$76[ebp], edx

; 1257 : 
; 1258 : 			if (smoke_trail_indices)

  00fa0	83 bd f8 fe ff
	ff 00		 cmp	 DWORD PTR _smoke_trail_indices$76[ebp], 0
  00fa7	0f 84 d1 00 00
	00		 je	 $LN21@transmit_e

; 1259 : 			{
; 1260 : 				ASSERT (get_comms_model () == COMMS_MODEL_SERVER);

  00fad	83 3d 00 00 00
	00 00		 cmp	 DWORD PTR ?system_comms_model@@3W4COMMS_MODEL_TYPES@@A, 0 ; system_comms_model
  00fb4	74 1a		 je	 SHORT $LN92@transmit_e
  00fb6	a1 00 00 00 00	 mov	 eax, DWORD PTR ?__LINE__Var@?0??transmit_entity_comms_message@@YAXW4ENTITY_COMMS_MESSAGES@@PAUENTITY@@ZZ@4JA
  00fbb	05 13 03 00 00	 add	 eax, 787		; 00000313H
  00fc0	50		 push	 eax
  00fc1	68 00 00 00 00	 push	 OFFSET ??_C@_0EO@OCMIKFBI@c?3?2users?2nhv90?2projects?2eech?2ap@
  00fc6	68 00 00 00 00	 push	 OFFSET ??_C@_0CJ@DMBLBJBK@get_comms_model?5?$CI?$CJ?5?$DN?$DN?5COMMS_MOD@
  00fcb	e8 00 00 00 00	 call	 ?process_assert@@YGXPBD0H@Z ; process_assert
$LN92@transmit_e:

; 1261 : 
; 1262 : 				smoke_trail_type = (meta_smoke_list_types) weapon_database[weapon_sub_type].smoke_trail_type;

  00fd0	69 85 04 ff ff
	ff e0 00 00 00	 imul	 eax, DWORD PTR _weapon_sub_type$79[ebp], 224
  00fda	8b 88 60 00 00
	00		 mov	 ecx, DWORD PTR ?weapon_database@@3PAUWEAPON_DATA@@A[eax+96]
  00fe0	89 8d ec fe ff
	ff		 mov	 DWORD PTR _smoke_trail_type$73[ebp], ecx

; 1263 : 
; 1264 : 				ASSERT (smoke_trail_type != META_SMOKE_LIST_TYPE_NONE);

  00fe6	83 bd ec fe ff
	ff 00		 cmp	 DWORD PTR _smoke_trail_type$73[ebp], 0
  00fed	75 1a		 jne	 SHORT $LN93@transmit_e
  00fef	a1 00 00 00 00	 mov	 eax, DWORD PTR ?__LINE__Var@?0??transmit_entity_comms_message@@YAXW4ENTITY_COMMS_MESSAGES@@PAUENTITY@@ZZ@4JA
  00ff4	05 17 03 00 00	 add	 eax, 791		; 00000317H
  00ff9	50		 push	 eax
  00ffa	68 00 00 00 00	 push	 OFFSET ??_C@_0EO@OCMIKFBI@c?3?2users?2nhv90?2projects?2eech?2ap@
  00fff	68 00 00 00 00	 push	 OFFSET ??_C@_0CO@CCKHDPGI@smoke_trail_type?5?$CB?$DN?5META_SMOKE_@
  01004	e8 00 00 00 00	 call	 ?process_assert@@YGXPBD0H@Z ; process_assert
$LN93@transmit_e:

; 1265 : 
; 1266 : 				num_smoke_trail_entities = count_entities_in_meta_smoke_list (smoke_trail_type);

  01009	8b 85 ec fe ff
	ff		 mov	 eax, DWORD PTR _smoke_trail_type$73[ebp]
  0100f	50		 push	 eax
  01010	e8 00 00 00 00	 call	 ?count_entities_in_meta_smoke_list@@YGHW4META_SMOKE_LIST_TYPES@@@Z ; count_entities_in_meta_smoke_list
  01015	89 85 f4 fe ff
	ff		 mov	 DWORD PTR _num_smoke_trail_entities$75[ebp], eax

; 1267 : 
; 1268 : 				ASSERT (num_smoke_trail_entities > 0);

  0101b	83 bd f4 fe ff
	ff 00		 cmp	 DWORD PTR _num_smoke_trail_entities$75[ebp], 0
  01022	7f 1a		 jg	 SHORT $LN94@transmit_e
  01024	a1 00 00 00 00	 mov	 eax, DWORD PTR ?__LINE__Var@?0??transmit_entity_comms_message@@YAXW4ENTITY_COMMS_MESSAGES@@PAUENTITY@@ZZ@4JA
  01029	05 1b 03 00 00	 add	 eax, 795		; 0000031bH
  0102e	50		 push	 eax
  0102f	68 00 00 00 00	 push	 OFFSET ??_C@_0EO@OCMIKFBI@c?3?2users?2nhv90?2projects?2eech?2ap@
  01034	68 00 00 00 00	 push	 OFFSET ??_C@_0BN@OGACAFKK@num_smoke_trail_entities?5?$DO?50@
  01039	e8 00 00 00 00	 call	 ?process_assert@@YGXPBD0H@Z ; process_assert
$LN94@transmit_e:

; 1269 : 
; 1270 : 				for (i = 0; i < num_smoke_trail_entities; i++)

  0103e	c7 85 f0 fe ff
	ff 00 00 00 00	 mov	 DWORD PTR _i$74[ebp], 0
  01048	eb 0f		 jmp	 SHORT $LN22@transmit_e
$LN20@transmit_e:
  0104a	8b 85 f0 fe ff
	ff		 mov	 eax, DWORD PTR _i$74[ebp]
  01050	83 c0 01	 add	 eax, 1
  01053	89 85 f0 fe ff
	ff		 mov	 DWORD PTR _i$74[ebp], eax
$LN22@transmit_e:
  01059	8b 85 f0 fe ff
	ff		 mov	 eax, DWORD PTR _i$74[ebp]
  0105f	3b 85 f4 fe ff
	ff		 cmp	 eax, DWORD PTR _num_smoke_trail_entities$75[ebp]
  01065	7d 17		 jge	 SHORT $LN21@transmit_e

; 1271 : 				{
; 1272 : 					pack_entity_safe_index (smoke_trail_indices[i]);

  01067	8b 85 f0 fe ff
	ff		 mov	 eax, DWORD PTR _i$74[ebp]
  0106d	8b 8d f8 fe ff
	ff		 mov	 ecx, DWORD PTR _smoke_trail_indices$76[ebp]
  01073	8b 14 81	 mov	 edx, DWORD PTR [ecx+eax*4]
  01076	52		 push	 edx
  01077	e8 00 00 00 00	 call	 ?pack_entity_safe_index@@YGXH@Z ; pack_entity_safe_index

; 1273 : 				}

  0107c	eb cc		 jmp	 SHORT $LN20@transmit_e
$LN21@transmit_e:

; 1274 : 			}
; 1275 : 
; 1276 : 			#if DEBUG_MODULE_MESSAGE_TEXT
; 1277 : 
; 1278 : 			debug_log ("EN_COMMS: sending create weapon for %s (%d)", entity_sub_type_weapon_names [weapon_sub_type], entity_type_names [launcher->type], get_local_entity_index (launcher));
; 1279 : 
; 1280 : 			#endif
; 1281 : 
; 1282 : 			break;

  0107e	e9 42 25 00 00	 jmp	 $LN2@transmit_e
$LN95@transmit_e:

; 1283 : 		}
; 1284 : 		////////////////////////////////////////
; 1285 : 		case ENTITY_COMMS_DAMAGE_PLAYER:
; 1286 : 		////////////////////////////////////////
; 1287 : 		{
; 1288 : 			//
; 1289 : 			// (entity_comms_messages message, entity *en, int damage, int random);
; 1290 : 			//
; 1291 : 
; 1292 : 			unsigned int
; 1293 : 				index,
; 1294 : 				random,
; 1295 : 				damage;
; 1296 : 
; 1297 : 			ASSERT (en);

  01083	83 7d 0c 00	 cmp	 DWORD PTR _en$[ebp], 0
  01087	75 1a		 jne	 SHORT $LN96@transmit_e
  01089	a1 00 00 00 00	 mov	 eax, DWORD PTR ?__LINE__Var@?0??transmit_entity_comms_message@@YAXW4ENTITY_COMMS_MESSAGES@@PAUENTITY@@ZZ@4JA
  0108e	05 38 03 00 00	 add	 eax, 824		; 00000338H
  01093	50		 push	 eax
  01094	68 00 00 00 00	 push	 OFFSET ??_C@_0EO@OCMIKFBI@c?3?2users?2nhv90?2projects?2eech?2ap@
  01099	68 00 00 00 00	 push	 OFFSET ??_C@_02LFNMGJAP@en@
  0109e	e8 00 00 00 00	 call	 ?process_assert@@YGXPBD0H@Z ; process_assert
$LN96@transmit_e:

; 1298 : 
; 1299 : 			index = get_local_entity_index (en);

  010a3	8b 45 0c	 mov	 eax, DWORD PTR _en$[ebp]
  010a6	2b 05 00 00 00
	00		 sub	 eax, DWORD PTR ?entities@@3PAUENTITY@@A ; entities
  010ac	c1 f8 04	 sar	 eax, 4
  010af	89 85 e8 fe ff
	ff		 mov	 DWORD PTR _index$72[ebp], eax

; 1300 : 
; 1301 : 			pack_entity_safe_index (index);

  010b5	8b 85 e8 fe ff
	ff		 mov	 eax, DWORD PTR _index$72[ebp]
  010bb	50		 push	 eax
  010bc	e8 00 00 00 00	 call	 ?pack_entity_safe_index@@YGXH@Z ; pack_entity_safe_index

; 1302 : 
; 1303 : 			damage = va_arg (pargs, unsigned int);

  010c1	8b 45 fc	 mov	 eax, DWORD PTR _pargs$[ebp]
  010c4	83 c0 04	 add	 eax, 4
  010c7	89 45 fc	 mov	 DWORD PTR _pargs$[ebp], eax
  010ca	8b 4d fc	 mov	 ecx, DWORD PTR _pargs$[ebp]
  010cd	8b 51 fc	 mov	 edx, DWORD PTR [ecx-4]
  010d0	89 95 e0 fe ff
	ff		 mov	 DWORD PTR _damage$70[ebp], edx

; 1304 : 
; 1305 : 			random = va_arg (pargs, unsigned int);

  010d6	8b 45 fc	 mov	 eax, DWORD PTR _pargs$[ebp]
  010d9	83 c0 04	 add	 eax, 4
  010dc	89 45 fc	 mov	 DWORD PTR _pargs$[ebp], eax
  010df	8b 4d fc	 mov	 ecx, DWORD PTR _pargs$[ebp]
  010e2	8b 51 fc	 mov	 edx, DWORD PTR [ecx-4]
  010e5	89 95 e4 fe ff
	ff		 mov	 DWORD PTR _random$71[ebp], edx

; 1306 : 
; 1307 : 			//DEBUG// mis-using INT_TYPE_HELICOPTER_DAMAGE_FLAGS
; 1308 : 			pack_int_value (en, INT_TYPE_HELICOPTER_DAMAGE_FLAGS, damage);

  010eb	8b 85 e0 fe ff
	ff		 mov	 eax, DWORD PTR _damage$70[ebp]
  010f1	50		 push	 eax
  010f2	6a 54		 push	 84			; 00000054H
  010f4	8b 4d 0c	 mov	 ecx, DWORD PTR _en$[ebp]
  010f7	51		 push	 ecx
  010f8	e8 00 00 00 00	 call	 ?pack_int_value@@YGXPAUENTITY@@W4INT_TYPES@@H@Z ; pack_int_value

; 1309 : 			//DEBUG// mis-using INT_TYPE_HELICOPTER_DAMAGE_FLAGS
; 1310 : 
; 1311 : 			pack_int_value (en, INT_TYPE_VALID, random);

  010fd	8b 85 e4 fe ff
	ff		 mov	 eax, DWORD PTR _random$71[ebp]
  01103	50		 push	 eax
  01104	68 ef 00 00 00	 push	 239			; 000000efH
  01109	8b 4d 0c	 mov	 ecx, DWORD PTR _en$[ebp]
  0110c	51		 push	 ecx
  0110d	e8 00 00 00 00	 call	 ?pack_int_value@@YGXPAUENTITY@@W4INT_TYPES@@H@Z ; pack_int_value

; 1312 : 
; 1313 : 			#if DEBUG_MODULE_MESSAGE_TEXT
; 1314 : 
; 1315 : 			debug_log ("EN_COMMS: sending damage helicopter dynamics %d for %s (%d)", damage, get_local_entity_type_name (en), get_local_entity_index (en));
; 1316 : 
; 1317 : 			#endif
; 1318 : 
; 1319 : 			break;

  01112	e9 ae 24 00 00	 jmp	 $LN2@transmit_e
$LN97@transmit_e:

; 1320 : 		}
; 1321 : 		////////////////////////////////////////
; 1322 : 		case ENTITY_COMMS_DAMAGE_PLAYER_AVIONICS:
; 1323 : 		////////////////////////////////////////
; 1324 : 		{
; 1325 : 			//
; 1326 : 			// (entity_comms_messages message, entity *en, gunship_damage_levels damage_level)
; 1327 : 			//
; 1328 : 
; 1329 : 			int
; 1330 : 				index;
; 1331 : 
; 1332 : 			gunship_damage_levels
; 1333 : 				damage_level;
; 1334 : 
; 1335 : 			ASSERT (en);

  01117	83 7d 0c 00	 cmp	 DWORD PTR _en$[ebp], 0
  0111b	75 1a		 jne	 SHORT $LN98@transmit_e
  0111d	a1 00 00 00 00	 mov	 eax, DWORD PTR ?__LINE__Var@?0??transmit_entity_comms_message@@YAXW4ENTITY_COMMS_MESSAGES@@PAUENTITY@@ZZ@4JA
  01122	05 5e 03 00 00	 add	 eax, 862		; 0000035eH
  01127	50		 push	 eax
  01128	68 00 00 00 00	 push	 OFFSET ??_C@_0EO@OCMIKFBI@c?3?2users?2nhv90?2projects?2eech?2ap@
  0112d	68 00 00 00 00	 push	 OFFSET ??_C@_02LFNMGJAP@en@
  01132	e8 00 00 00 00	 call	 ?process_assert@@YGXPBD0H@Z ; process_assert
$LN98@transmit_e:

; 1336 : 
; 1337 : 			index = get_local_entity_index (en);

  01137	8b 45 0c	 mov	 eax, DWORD PTR _en$[ebp]
  0113a	2b 05 00 00 00
	00		 sub	 eax, DWORD PTR ?entities@@3PAUENTITY@@A ; entities
  01140	c1 f8 04	 sar	 eax, 4
  01143	89 85 dc fe ff
	ff		 mov	 DWORD PTR _index$69[ebp], eax

; 1338 : 
; 1339 : 			pack_entity_safe_index (index);

  01149	8b 85 dc fe ff
	ff		 mov	 eax, DWORD PTR _index$69[ebp]
  0114f	50		 push	 eax
  01150	e8 00 00 00 00	 call	 ?pack_entity_safe_index@@YGXH@Z ; pack_entity_safe_index

; 1340 : 
; 1341 : 			damage_level = va_arg (pargs, gunship_damage_levels);

  01155	8b 45 fc	 mov	 eax, DWORD PTR _pargs$[ebp]
  01158	83 c0 04	 add	 eax, 4
  0115b	89 45 fc	 mov	 DWORD PTR _pargs$[ebp], eax
  0115e	8b 4d fc	 mov	 ecx, DWORD PTR _pargs$[ebp]
  01161	8b 51 fc	 mov	 edx, DWORD PTR [ecx-4]
  01164	89 95 d8 fe ff
	ff		 mov	 DWORD PTR _damage_level$68[ebp], edx

; 1342 : 
; 1343 : 			pack_int_value (en, INT_TYPE_HELICOPTER_DAMAGE_LEVEL, damage_level);

  0116a	8b 85 d8 fe ff
	ff		 mov	 eax, DWORD PTR _damage_level$68[ebp]
  01170	50		 push	 eax
  01171	6a 55		 push	 85			; 00000055H
  01173	8b 4d 0c	 mov	 ecx, DWORD PTR _en$[ebp]
  01176	51		 push	 ecx
  01177	e8 00 00 00 00	 call	 ?pack_int_value@@YGXPAUENTITY@@W4INT_TYPES@@H@Z ; pack_int_value

; 1344 : 
; 1345 : 			#if DEBUG_MODULE_MESSAGE_TEXT
; 1346 : 
; 1347 : 			debug_log ("EN_COMMS: sending damage helicopter avionics %d for %s (%d)", damage_level, get_local_entity_type_name (en), get_local_entity_index (en));
; 1348 : 
; 1349 : 			#endif
; 1350 : 
; 1351 : 			break;

  0117c	e9 44 24 00 00	 jmp	 $LN2@transmit_e
$LN99@transmit_e:

; 1352 : 		}
; 1353 : 		////////////////////////////////////////
; 1354 : 		case ENTITY_COMMS_DAMAGE_WEAPON_PACKAGE:
; 1355 : 		////////////////////////////////////////
; 1356 : 		{
; 1357 : 			int
; 1358 : 				weapon_package_heading_depth,
; 1359 : 				weapon_package_damaged;
; 1360 : 
; 1361 : 			entity_sub_types
; 1362 : 				weapon_sub_type;
; 1363 : 
; 1364 : 			//
; 1365 : 		 	// (entity_comms_messages message, entity *en, int weapon_package_heading_depth, entity_sub_types weapon_sub_type, int weapon_package_damaged)
; 1366 : 			//
; 1367 : 
; 1368 : 			ASSERT (en);

  01181	83 7d 0c 00	 cmp	 DWORD PTR _en$[ebp], 0
  01185	75 1a		 jne	 SHORT $LN100@transmit_e
  01187	a1 00 00 00 00	 mov	 eax, DWORD PTR ?__LINE__Var@?0??transmit_entity_comms_message@@YAXW4ENTITY_COMMS_MESSAGES@@PAUENTITY@@ZZ@4JA
  0118c	05 7f 03 00 00	 add	 eax, 895		; 0000037fH
  01191	50		 push	 eax
  01192	68 00 00 00 00	 push	 OFFSET ??_C@_0EO@OCMIKFBI@c?3?2users?2nhv90?2projects?2eech?2ap@
  01197	68 00 00 00 00	 push	 OFFSET ??_C@_02LFNMGJAP@en@
  0119c	e8 00 00 00 00	 call	 ?process_assert@@YGXPBD0H@Z ; process_assert
$LN100@transmit_e:

; 1369 : 
; 1370 : 			pack_entity_safe_ptr (en);

  011a1	8b 45 0c	 mov	 eax, DWORD PTR _en$[ebp]
  011a4	50		 push	 eax
  011a5	e8 00 00 00 00	 call	 ?pack_entity_safe_ptr@@YGXPAUENTITY@@@Z ; pack_entity_safe_ptr

; 1371 : 
; 1372 : 			weapon_package_heading_depth = va_arg (pargs, int);

  011aa	8b 45 fc	 mov	 eax, DWORD PTR _pargs$[ebp]
  011ad	83 c0 04	 add	 eax, 4
  011b0	89 45 fc	 mov	 DWORD PTR _pargs$[ebp], eax
  011b3	8b 4d fc	 mov	 ecx, DWORD PTR _pargs$[ebp]
  011b6	8b 51 fc	 mov	 edx, DWORD PTR [ecx-4]
  011b9	89 95 d4 fe ff
	ff		 mov	 DWORD PTR _weapon_package_heading_depth$67[ebp], edx

; 1373 : 
; 1374 : 			pack_int_value (en, INT_TYPE_WEAPON_PACKAGE_HEADING_DEPTH, weapon_package_heading_depth);

  011bf	8b 85 d4 fe ff
	ff		 mov	 eax, DWORD PTR _weapon_package_heading_depth$67[ebp]
  011c5	50		 push	 eax
  011c6	68 0c 01 00 00	 push	 268			; 0000010cH
  011cb	8b 4d 0c	 mov	 ecx, DWORD PTR _en$[ebp]
  011ce	51		 push	 ecx
  011cf	e8 00 00 00 00	 call	 ?pack_int_value@@YGXPAUENTITY@@W4INT_TYPES@@H@Z ; pack_int_value

; 1375 : 
; 1376 : 			weapon_sub_type = va_arg (pargs, int);

  011d4	8b 45 fc	 mov	 eax, DWORD PTR _pargs$[ebp]
  011d7	83 c0 04	 add	 eax, 4
  011da	89 45 fc	 mov	 DWORD PTR _pargs$[ebp], eax
  011dd	8b 4d fc	 mov	 ecx, DWORD PTR _pargs$[ebp]
  011e0	8b 51 fc	 mov	 edx, DWORD PTR [ecx-4]
  011e3	89 95 cc fe ff
	ff		 mov	 DWORD PTR _weapon_sub_type$65[ebp], edx

; 1377 : 
; 1378 : 			pack_int_value (en, INT_TYPE_ENTITY_SUB_TYPE, weapon_sub_type);

  011e9	8b 85 cc fe ff
	ff		 mov	 eax, DWORD PTR _weapon_sub_type$65[ebp]
  011ef	50		 push	 eax
  011f0	6a 34		 push	 52			; 00000034H
  011f2	8b 4d 0c	 mov	 ecx, DWORD PTR _en$[ebp]
  011f5	51		 push	 ecx
  011f6	e8 00 00 00 00	 call	 ?pack_int_value@@YGXPAUENTITY@@W4INT_TYPES@@H@Z ; pack_int_value

; 1379 : 
; 1380 : 			weapon_package_damaged = va_arg (pargs, int);

  011fb	8b 45 fc	 mov	 eax, DWORD PTR _pargs$[ebp]
  011fe	83 c0 04	 add	 eax, 4
  01201	89 45 fc	 mov	 DWORD PTR _pargs$[ebp], eax
  01204	8b 4d fc	 mov	 ecx, DWORD PTR _pargs$[ebp]
  01207	8b 51 fc	 mov	 edx, DWORD PTR [ecx-4]
  0120a	89 95 d0 fe ff
	ff		 mov	 DWORD PTR _weapon_package_damaged$66[ebp], edx

; 1381 : 
; 1382 : 			pack_int_value (en, INT_TYPE_WEAPON_PACKAGE_DAMAGED, weapon_package_damaged);

  01210	8b 85 d0 fe ff
	ff		 mov	 eax, DWORD PTR _weapon_package_damaged$66[ebp]
  01216	50		 push	 eax
  01217	68 0b 01 00 00	 push	 267			; 0000010bH
  0121c	8b 4d 0c	 mov	 ecx, DWORD PTR _en$[ebp]
  0121f	51		 push	 ecx
  01220	e8 00 00 00 00	 call	 ?pack_int_value@@YGXPAUENTITY@@W4INT_TYPES@@H@Z ; pack_int_value

; 1383 : 
; 1384 : 			#if DEBUG_MODULE_MESSAGE_TEXT
; 1385 : 
; 1386 : 			debug_log
; 1387 : 			(
; 1388 : 				"EN_COMMS: sending damage weapon package for %s (%d), heading_depth = %d, weapon_sub_type = %d, damaged = %d",
; 1389 : 				get_local_entity_string (en, STRING_TYPE_FULL_NAME),
; 1390 : 				get_local_entity_index (en),
; 1391 : 				weapon_package_heading_depth,
; 1392 : 				weapon_sub_type,
; 1393 : 				weapon_package_damaged
; 1394 : 			);
; 1395 : 
; 1396 : 			#endif
; 1397 : 
; 1398 : 			break;

  01225	e9 9b 23 00 00	 jmp	 $LN2@transmit_e
$LN101@transmit_e:

; 1399 : 		}
; 1400 : 		////////////////////////////////////////
; 1401 : 		case ENTITY_COMMS_DESTROY:
; 1402 : 		case ENTITY_COMMS_DESTROY_FAMILY:
; 1403 : 		case ENTITY_COMMS_DESTROY_LOCAL_FAMILY:
; 1404 : 		////////////////////////////////////////
; 1405 : 		{
; 1406 : 			//
; 1407 : 			// (entity_comms_messages message, entity *en)
; 1408 : 			//
; 1409 : 
; 1410 : 			ASSERT (en);

  0122a	83 7d 0c 00	 cmp	 DWORD PTR _en$[ebp], 0
  0122e	75 1a		 jne	 SHORT $LN102@transmit_e
  01230	a1 00 00 00 00	 mov	 eax, DWORD PTR ?__LINE__Var@?0??transmit_entity_comms_message@@YAXW4ENTITY_COMMS_MESSAGES@@PAUENTITY@@ZZ@4JA
  01235	05 a9 03 00 00	 add	 eax, 937		; 000003a9H
  0123a	50		 push	 eax
  0123b	68 00 00 00 00	 push	 OFFSET ??_C@_0EO@OCMIKFBI@c?3?2users?2nhv90?2projects?2eech?2ap@
  01240	68 00 00 00 00	 push	 OFFSET ??_C@_02LFNMGJAP@en@
  01245	e8 00 00 00 00	 call	 ?process_assert@@YGXPBD0H@Z ; process_assert
$LN102@transmit_e:

; 1411 : 
; 1412 : 			pack_entity_safe_ptr (en);

  0124a	8b 45 0c	 mov	 eax, DWORD PTR _en$[ebp]
  0124d	50		 push	 eax
  0124e	e8 00 00 00 00	 call	 ?pack_entity_safe_ptr@@YGXPAUENTITY@@@Z ; pack_entity_safe_ptr

; 1413 : 
; 1414 : 			#if DEBUG_MODULE_MESSAGE_TEXT
; 1415 : 
; 1416 : 			debug_log ("EN_COMMS: sending destroy for %s (%d)", get_local_entity_type_name (en), get_local_entity_index (en));
; 1417 : 
; 1418 : 			#endif
; 1419 : 
; 1420 : 			break;

  01253	e9 6d 23 00 00	 jmp	 $LN2@transmit_e
$LN103@transmit_e:

; 1421 : 		}
; 1422 : 		////////////////////////////////////////
; 1423 : 		case ENTITY_COMMS_END:
; 1424 : 		////////////////////////////////////////
; 1425 : 		{
; 1426 : 			//
; 1427 : 			// (entity_comms_messages message, entity *en)
; 1428 : 			//
; 1429 : 
; 1430 : 			ASSERT (!en);

  01258	83 7d 0c 00	 cmp	 DWORD PTR _en$[ebp], 0
  0125c	74 1a		 je	 SHORT $LN104@transmit_e
  0125e	a1 00 00 00 00	 mov	 eax, DWORD PTR ?__LINE__Var@?0??transmit_entity_comms_message@@YAXW4ENTITY_COMMS_MESSAGES@@PAUENTITY@@ZZ@4JA
  01263	05 bd 03 00 00	 add	 eax, 957		; 000003bdH
  01268	50		 push	 eax
  01269	68 00 00 00 00	 push	 OFFSET ??_C@_0EO@OCMIKFBI@c?3?2users?2nhv90?2projects?2eech?2ap@
  0126e	68 00 00 00 00	 push	 OFFSET ??_C@_03HDFHKHFK@?$CBen@
  01273	e8 00 00 00 00	 call	 ?process_assert@@YGXPBD0H@Z ; process_assert
$LN104@transmit_e:

; 1431 : 
; 1432 : 			break;

  01278	e9 48 23 00 00	 jmp	 $LN2@transmit_e
$LN105@transmit_e:

; 1433 : 		}
; 1434 : 		////////////////////////////////////////
; 1435 : 		case ENTITY_COMMS_FLOAT_VALUE:
; 1436 : 		////////////////////////////////////////
; 1437 : 		{
; 1438 : 			//
; 1439 : 			// (entity_comms_messages message, entity *en, float_types type, float value)
; 1440 : 			//
; 1441 : 
; 1442 : 			float_types
; 1443 : 				type;
; 1444 : 
; 1445 : 			float
; 1446 : 				value;
; 1447 : 
; 1448 : 			ASSERT (en);

  0127d	83 7d 0c 00	 cmp	 DWORD PTR _en$[ebp], 0
  01281	75 1a		 jne	 SHORT $LN106@transmit_e
  01283	a1 00 00 00 00	 mov	 eax, DWORD PTR ?__LINE__Var@?0??transmit_entity_comms_message@@YAXW4ENTITY_COMMS_MESSAGES@@PAUENTITY@@ZZ@4JA
  01288	05 cf 03 00 00	 add	 eax, 975		; 000003cfH
  0128d	50		 push	 eax
  0128e	68 00 00 00 00	 push	 OFFSET ??_C@_0EO@OCMIKFBI@c?3?2users?2nhv90?2projects?2eech?2ap@
  01293	68 00 00 00 00	 push	 OFFSET ??_C@_02LFNMGJAP@en@
  01298	e8 00 00 00 00	 call	 ?process_assert@@YGXPBD0H@Z ; process_assert
$LN106@transmit_e:

; 1449 : 
; 1450 : 			pack_entity_safe_ptr (en);

  0129d	8b 45 0c	 mov	 eax, DWORD PTR _en$[ebp]
  012a0	50		 push	 eax
  012a1	e8 00 00 00 00	 call	 ?pack_entity_safe_ptr@@YGXPAUENTITY@@@Z ; pack_entity_safe_ptr

; 1451 : 
; 1452 : 			type = va_arg (pargs, float_types);

  012a6	8b 45 fc	 mov	 eax, DWORD PTR _pargs$[ebp]
  012a9	83 c0 04	 add	 eax, 4
  012ac	89 45 fc	 mov	 DWORD PTR _pargs$[ebp], eax
  012af	8b 4d fc	 mov	 ecx, DWORD PTR _pargs$[ebp]
  012b2	8b 51 fc	 mov	 edx, DWORD PTR [ecx-4]
  012b5	89 95 c8 fe ff
	ff		 mov	 DWORD PTR _type$64[ebp], edx

; 1453 : 
; 1454 : 			pack_float_type (type);

  012bb	8b 85 c8 fe ff
	ff		 mov	 eax, DWORD PTR _type$64[ebp]
  012c1	50		 push	 eax
  012c2	e8 00 00 00 00	 call	 ?pack_float_type@@YGXW4FLOAT_TYPES@@@Z ; pack_float_type

; 1455 : 
; 1456 : 			value = va_arg (pargs, double);

  012c7	8b 45 fc	 mov	 eax, DWORD PTR _pargs$[ebp]
  012ca	83 c0 08	 add	 eax, 8
  012cd	89 45 fc	 mov	 DWORD PTR _pargs$[ebp], eax
  012d0	8b 4d fc	 mov	 ecx, DWORD PTR _pargs$[ebp]
  012d3	f2 0f 5a 41 f8	 cvtsd2ss xmm0, QWORD PTR [ecx-8]
  012d8	f3 0f 11 85 c4
	fe ff ff	 movss	 DWORD PTR _value$63[ebp], xmm0

; 1457 : 
; 1458 : 			pack_float_value (en, type, value);

  012e0	51		 push	 ecx
  012e1	f3 0f 10 85 c4
	fe ff ff	 movss	 xmm0, DWORD PTR _value$63[ebp]
  012e9	f3 0f 11 04 24	 movss	 DWORD PTR [esp], xmm0
  012ee	8b 85 c8 fe ff
	ff		 mov	 eax, DWORD PTR _type$64[ebp]
  012f4	50		 push	 eax
  012f5	8b 4d 0c	 mov	 ecx, DWORD PTR _en$[ebp]
  012f8	51		 push	 ecx
  012f9	e8 00 00 00 00	 call	 ?pack_float_value@@YGXPAUENTITY@@W4FLOAT_TYPES@@M@Z ; pack_float_value

; 1459 : 
; 1460 : 			#if FAST_TRACK
; 1461 : 
; 1462 : 			if ((float_type_database[type].fast_track) && (get_comms_model () == COMMS_MODEL_CLIENT) && (en == get_gunship_entity ()))

  012fe	6b 85 c8 fe ff
	ff 18		 imul	 eax, DWORD PTR _type$64[ebp], 24
  01305	83 b8 14 00 00
	00 00		 cmp	 DWORD PTR ?float_type_database@@3PAUFLOAT_TYPE_DATA@@A[eax+20], 0
  0130c	0f 84 d2 00 00
	00		 je	 $LN107@transmit_e
  01312	83 3d 00 00 00
	00 01		 cmp	 DWORD PTR ?system_comms_model@@3W4COMMS_MODEL_TYPES@@A, 1 ; system_comms_model
  01319	0f 85 c5 00 00
	00		 jne	 $LN107@transmit_e
  0131f	8b 45 0c	 mov	 eax, DWORD PTR _en$[ebp]
  01322	3b 05 00 00 00
	00		 cmp	 eax, DWORD PTR ?gunship_entity@@3PAUENTITY@@A ; gunship_entity
  01328	0f 85 b6 00 00
	00		 jne	 $LN107@transmit_e

; 1463 : 			{
; 1464 : 				set_local_entity_float_value (en, type, value);

  0132e	83 7d 0c 00	 cmp	 DWORD PTR _en$[ebp], 0
  01332	74 0d		 je	 SHORT $LN236@transmit_e
  01334	8b 45 0c	 mov	 eax, DWORD PTR _en$[ebp]
  01337	8b 08		 mov	 ecx, DWORD PTR [eax]
  01339	89 8d 44 fd ff
	ff		 mov	 DWORD PTR tv751[ebp], ecx
  0133f	eb 27		 jmp	 SHORT $LN237@transmit_e
$LN236@transmit_e:
  01341	8b 15 00 00 00
	00		 mov	 edx, DWORD PTR ?__LINE__Var@?0??transmit_entity_comms_message@@YAXW4ENTITY_COMMS_MESSAGES@@PAUENTITY@@ZZ@4JA
  01347	81 c2 df 03 00
	00		 add	 edx, 991		; 000003dfH
  0134d	52		 push	 edx
  0134e	68 00 00 00 00	 push	 OFFSET ??_C@_0EO@OCMIKFBI@c?3?2users?2nhv90?2projects?2eech?2ap@
  01353	a1 00 00 00 00	 mov	 eax, DWORD PTR ?null_entity_pointer_message@@3PBDB ; null_entity_pointer_message
  01358	50		 push	 eax
  01359	e8 00 00 00 00	 call	 ?process_assert@@YGXPBD0H@Z ; process_assert
  0135e	c7 85 44 fd ff
	ff 00 00 00 00	 mov	 DWORD PTR tv751[ebp], 0
$LN237@transmit_e:
  01368	83 bd c8 fe ff
	ff 00		 cmp	 DWORD PTR _type$64[ebp], 0
  0136f	7c 1a		 jl	 SHORT $LN238@transmit_e
  01371	81 bd c8 fe ff
	ff af 00 00 00	 cmp	 DWORD PTR _type$64[ebp], 175 ; 000000afH
  0137b	7d 0e		 jge	 SHORT $LN238@transmit_e
  0137d	8b 8d c8 fe ff
	ff		 mov	 ecx, DWORD PTR _type$64[ebp]
  01383	89 8d 40 fd ff
	ff		 mov	 DWORD PTR tv760[ebp], ecx
  01389	eb 27		 jmp	 SHORT $LN239@transmit_e
$LN238@transmit_e:
  0138b	8b 15 00 00 00
	00		 mov	 edx, DWORD PTR ?__LINE__Var@?0??transmit_entity_comms_message@@YAXW4ENTITY_COMMS_MESSAGES@@PAUENTITY@@ZZ@4JA
  01391	81 c2 df 03 00
	00		 add	 edx, 991		; 000003dfH
  01397	52		 push	 edx
  01398	68 00 00 00 00	 push	 OFFSET ??_C@_0EO@OCMIKFBI@c?3?2users?2nhv90?2projects?2eech?2ap@
  0139d	a1 00 00 00 00	 mov	 eax, DWORD PTR ?overload_invalid_float_type_message@@3PBDB ; overload_invalid_float_type_message
  013a2	50		 push	 eax
  013a3	e8 00 00 00 00	 call	 ?process_assert@@YGXPBD0H@Z ; process_assert
  013a8	c7 85 40 fd ff
	ff 00 00 00 00	 mov	 DWORD PTR tv760[ebp], 0
$LN239@transmit_e:
  013b2	51		 push	 ecx
  013b3	f3 0f 10 85 c4
	fe ff ff	 movss	 xmm0, DWORD PTR _value$63[ebp]
  013bb	f3 0f 11 04 24	 movss	 DWORD PTR [esp], xmm0
  013c0	8b 8d c8 fe ff
	ff		 mov	 ecx, DWORD PTR _type$64[ebp]
  013c6	51		 push	 ecx
  013c7	8b 55 0c	 mov	 edx, DWORD PTR _en$[ebp]
  013ca	52		 push	 edx
  013cb	69 85 44 fd ff
	ff bc 02 00 00	 imul	 eax, DWORD PTR tv751[ebp], 700
  013d5	8b 8d 40 fd ff
	ff		 mov	 ecx, DWORD PTR tv760[ebp]
  013db	8b 94 88 00 00
	00 00		 mov	 edx, DWORD PTR ?fn_set_local_entity_float_value@@3PAY0KP@P6GXPAUENTITY@@W4FLOAT_TYPES@@M@ZA[eax+ecx*4]
  013e2	ff d2		 call	 edx
$LN107@transmit_e:

; 1465 : 
; 1466 : 				#if DEBUG_MODULE_MESSAGE_TEXT
; 1467 : 
; 1468 : 				debug_log ("EN_COMMS: sending fast_track float value %s = %f for %s (%d)", float_type_database [type].name, value, get_local_entity_type_name (en), get_local_entity_index (en));
; 1469 : 
; 1470 : 				#endif
; 1471 : 			}
; 1472 : 
; 1473 : 			#endif
; 1474 : 
; 1475 : 			#if DEBUG_MODULE_MESSAGE_TEXT
; 1476 : 
; 1477 : 			debug_log ("EN_COMMS: sending float value %s = %f for %s (%d)", float_type_database [type].name, value, get_local_entity_type_name (en), get_local_entity_index (en));
; 1478 : 
; 1479 : 			#endif
; 1480 : 
; 1481 : 			break;

  013e4	e9 dc 21 00 00	 jmp	 $LN2@transmit_e
$LN108@transmit_e:

; 1482 : 		}
; 1483 : 		////////////////////////////////////////
; 1484 : 		case ENTITY_COMMS_INT_VALUE:
; 1485 : 		////////////////////////////////////////
; 1486 : 		{
; 1487 : 			//
; 1488 : 			// (entity_comms_messages message, entity *en, int_types type, int value)
; 1489 : 			//
; 1490 : 
; 1491 : 			int_types
; 1492 : 				type;
; 1493 : 
; 1494 : 			int
; 1495 : 				value;
; 1496 : 
; 1497 : 			ASSERT (en);

  013e9	83 7d 0c 00	 cmp	 DWORD PTR _en$[ebp], 0
  013ed	75 1a		 jne	 SHORT $LN109@transmit_e
  013ef	a1 00 00 00 00	 mov	 eax, DWORD PTR ?__LINE__Var@?0??transmit_entity_comms_message@@YAXW4ENTITY_COMMS_MESSAGES@@PAUENTITY@@ZZ@4JA
  013f4	05 00 04 00 00	 add	 eax, 1024		; 00000400H
  013f9	50		 push	 eax
  013fa	68 00 00 00 00	 push	 OFFSET ??_C@_0EO@OCMIKFBI@c?3?2users?2nhv90?2projects?2eech?2ap@
  013ff	68 00 00 00 00	 push	 OFFSET ??_C@_02LFNMGJAP@en@
  01404	e8 00 00 00 00	 call	 ?process_assert@@YGXPBD0H@Z ; process_assert
$LN109@transmit_e:

; 1498 : 
; 1499 : 			pack_entity_safe_ptr (en);

  01409	8b 45 0c	 mov	 eax, DWORD PTR _en$[ebp]
  0140c	50		 push	 eax
  0140d	e8 00 00 00 00	 call	 ?pack_entity_safe_ptr@@YGXPAUENTITY@@@Z ; pack_entity_safe_ptr

; 1500 : 
; 1501 : 			type = va_arg (pargs, int_types);

  01412	8b 45 fc	 mov	 eax, DWORD PTR _pargs$[ebp]
  01415	83 c0 04	 add	 eax, 4
  01418	89 45 fc	 mov	 DWORD PTR _pargs$[ebp], eax
  0141b	8b 4d fc	 mov	 ecx, DWORD PTR _pargs$[ebp]
  0141e	8b 51 fc	 mov	 edx, DWORD PTR [ecx-4]
  01421	89 95 c0 fe ff
	ff		 mov	 DWORD PTR _type$62[ebp], edx

; 1502 : 
; 1503 : 			pack_int_type (type);

  01427	8b 85 c0 fe ff
	ff		 mov	 eax, DWORD PTR _type$62[ebp]
  0142d	50		 push	 eax
  0142e	e8 00 00 00 00	 call	 ?pack_int_type@@YGXW4INT_TYPES@@@Z ; pack_int_type

; 1504 : 
; 1505 : 			value = va_arg (pargs, int);

  01433	8b 45 fc	 mov	 eax, DWORD PTR _pargs$[ebp]
  01436	83 c0 04	 add	 eax, 4
  01439	89 45 fc	 mov	 DWORD PTR _pargs$[ebp], eax
  0143c	8b 4d fc	 mov	 ecx, DWORD PTR _pargs$[ebp]
  0143f	8b 51 fc	 mov	 edx, DWORD PTR [ecx-4]
  01442	89 95 bc fe ff
	ff		 mov	 DWORD PTR _value$61[ebp], edx

; 1506 : 
; 1507 : 			pack_int_value (en, type, value);

  01448	8b 85 bc fe ff
	ff		 mov	 eax, DWORD PTR _value$61[ebp]
  0144e	50		 push	 eax
  0144f	8b 8d c0 fe ff
	ff		 mov	 ecx, DWORD PTR _type$62[ebp]
  01455	51		 push	 ecx
  01456	8b 55 0c	 mov	 edx, DWORD PTR _en$[ebp]
  01459	52		 push	 edx
  0145a	e8 00 00 00 00	 call	 ?pack_int_value@@YGXPAUENTITY@@W4INT_TYPES@@H@Z ; pack_int_value

; 1508 : 
; 1509 : 			#if FAST_TRACK
; 1510 : 
; 1511 : 			if ((int_type_database[type].fast_track) && (get_comms_model () == COMMS_MODEL_CLIENT) && (en == get_gunship_entity ()))

  0145f	6b 85 c0 fe ff
	ff 14		 imul	 eax, DWORD PTR _type$62[ebp], 20
  01466	83 b8 10 00 00
	00 00		 cmp	 DWORD PTR ?int_type_database@@3PAUINT_TYPE_DATA@@A[eax+16], 0
  0146d	0f 84 cb 00 00
	00		 je	 $LN110@transmit_e
  01473	83 3d 00 00 00
	00 01		 cmp	 DWORD PTR ?system_comms_model@@3W4COMMS_MODEL_TYPES@@A, 1 ; system_comms_model
  0147a	0f 85 be 00 00
	00		 jne	 $LN110@transmit_e
  01480	8b 45 0c	 mov	 eax, DWORD PTR _en$[ebp]
  01483	3b 05 00 00 00
	00		 cmp	 eax, DWORD PTR ?gunship_entity@@3PAUENTITY@@A ; gunship_entity
  01489	0f 85 af 00 00
	00		 jne	 $LN110@transmit_e

; 1512 : 			{
; 1513 : 				set_local_entity_int_value (en, type, value);

  0148f	83 7d 0c 00	 cmp	 DWORD PTR _en$[ebp], 0
  01493	74 0d		 je	 SHORT $LN240@transmit_e
  01495	8b 45 0c	 mov	 eax, DWORD PTR _en$[ebp]
  01498	8b 08		 mov	 ecx, DWORD PTR [eax]
  0149a	89 8d 44 fd ff
	ff		 mov	 DWORD PTR tv792[ebp], ecx
  014a0	eb 27		 jmp	 SHORT $LN241@transmit_e
$LN240@transmit_e:
  014a2	8b 15 00 00 00
	00		 mov	 edx, DWORD PTR ?__LINE__Var@?0??transmit_entity_comms_message@@YAXW4ENTITY_COMMS_MESSAGES@@PAUENTITY@@ZZ@4JA
  014a8	81 c2 10 04 00
	00		 add	 edx, 1040		; 00000410H
  014ae	52		 push	 edx
  014af	68 00 00 00 00	 push	 OFFSET ??_C@_0EO@OCMIKFBI@c?3?2users?2nhv90?2projects?2eech?2ap@
  014b4	a1 00 00 00 00	 mov	 eax, DWORD PTR ?null_entity_pointer_message@@3PBDB ; null_entity_pointer_message
  014b9	50		 push	 eax
  014ba	e8 00 00 00 00	 call	 ?process_assert@@YGXPBD0H@Z ; process_assert
  014bf	c7 85 44 fd ff
	ff 00 00 00 00	 mov	 DWORD PTR tv792[ebp], 0
$LN241@transmit_e:
  014c9	83 bd c0 fe ff
	ff 00		 cmp	 DWORD PTR _type$62[ebp], 0
  014d0	7c 1a		 jl	 SHORT $LN242@transmit_e
  014d2	81 bd c0 fe ff
	ff 17 01 00 00	 cmp	 DWORD PTR _type$62[ebp], 279 ; 00000117H
  014dc	7d 0e		 jge	 SHORT $LN242@transmit_e
  014de	8b 8d c0 fe ff
	ff		 mov	 ecx, DWORD PTR _type$62[ebp]
  014e4	89 8d 40 fd ff
	ff		 mov	 DWORD PTR tv801[ebp], ecx
  014ea	eb 27		 jmp	 SHORT $LN243@transmit_e
$LN242@transmit_e:
  014ec	8b 15 00 00 00
	00		 mov	 edx, DWORD PTR ?__LINE__Var@?0??transmit_entity_comms_message@@YAXW4ENTITY_COMMS_MESSAGES@@PAUENTITY@@ZZ@4JA
  014f2	81 c2 10 04 00
	00		 add	 edx, 1040		; 00000410H
  014f8	52		 push	 edx
  014f9	68 00 00 00 00	 push	 OFFSET ??_C@_0EO@OCMIKFBI@c?3?2users?2nhv90?2projects?2eech?2ap@
  014fe	a1 00 00 00 00	 mov	 eax, DWORD PTR ?overload_invalid_int_type_message@@3PBDB ; overload_invalid_int_type_message
  01503	50		 push	 eax
  01504	e8 00 00 00 00	 call	 ?process_assert@@YGXPBD0H@Z ; process_assert
  01509	c7 85 40 fd ff
	ff 00 00 00 00	 mov	 DWORD PTR tv801[ebp], 0
$LN243@transmit_e:
  01513	8b 8d bc fe ff
	ff		 mov	 ecx, DWORD PTR _value$61[ebp]
  01519	51		 push	 ecx
  0151a	8b 95 c0 fe ff
	ff		 mov	 edx, DWORD PTR _type$62[ebp]
  01520	52		 push	 edx
  01521	8b 45 0c	 mov	 eax, DWORD PTR _en$[ebp]
  01524	50		 push	 eax
  01525	69 8d 44 fd ff
	ff 5c 04 00 00	 imul	 ecx, DWORD PTR tv792[ebp], 1116
  0152f	8b 95 40 fd ff
	ff		 mov	 edx, DWORD PTR tv801[ebp]
  01535	8b 84 91 00 00
	00 00		 mov	 eax, DWORD PTR ?fn_set_local_entity_int_value@@3PAY0BBH@P6GXPAUENTITY@@W4INT_TYPES@@H@ZA[ecx+edx*4]
  0153c	ff d0		 call	 eax
$LN110@transmit_e:

; 1514 : 
; 1515 : 				#if DEBUG_MODULE_MESSAGE_TEXT
; 1516 : 
; 1517 : 				debug_log ("EN_COMMS: sending fast_track int value %s = %d for %s (%d)", int_type_database [type].name, value, get_local_entity_type_name (en), get_local_entity_index (en));
; 1518 : 
; 1519 : 				#endif
; 1520 : 			}
; 1521 : 
; 1522 : 			#endif
; 1523 : 
; 1524 : 			#if DEBUG_MODULE_MESSAGE_TEXT
; 1525 : 
; 1526 : 			debug_log ("EN_COMMS: sending int value %s = %d for %s (%d)", int_type_database [type].name, value, get_local_entity_type_name (en), get_local_entity_index (en));
; 1527 : 
; 1528 : 			#endif
; 1529 : 
; 1530 : 			break;

  0153e	e9 82 20 00 00	 jmp	 $LN2@transmit_e
$LN111@transmit_e:

; 1531 : 		}
; 1532 : 		////////////////////////////////////////
; 1533 : 		case ENTITY_COMMS_KILL:
; 1534 : 		////////////////////////////////////////
; 1535 : 		{
; 1536 : 			//
; 1537 : 			// (entity_comms_messages message, entity *en)
; 1538 : 			//
; 1539 : 
; 1540 : 			ASSERT (en);

  01543	83 7d 0c 00	 cmp	 DWORD PTR _en$[ebp], 0
  01547	75 1a		 jne	 SHORT $LN112@transmit_e
  01549	a1 00 00 00 00	 mov	 eax, DWORD PTR ?__LINE__Var@?0??transmit_entity_comms_message@@YAXW4ENTITY_COMMS_MESSAGES@@PAUENTITY@@ZZ@4JA
  0154e	05 2b 04 00 00	 add	 eax, 1067		; 0000042bH
  01553	50		 push	 eax
  01554	68 00 00 00 00	 push	 OFFSET ??_C@_0EO@OCMIKFBI@c?3?2users?2nhv90?2projects?2eech?2ap@
  01559	68 00 00 00 00	 push	 OFFSET ??_C@_02LFNMGJAP@en@
  0155e	e8 00 00 00 00	 call	 ?process_assert@@YGXPBD0H@Z ; process_assert
$LN112@transmit_e:

; 1541 : 
; 1542 : 			pack_entity_safe_ptr (en);

  01563	8b 45 0c	 mov	 eax, DWORD PTR _en$[ebp]
  01566	50		 push	 eax
  01567	e8 00 00 00 00	 call	 ?pack_entity_safe_ptr@@YGXPAUENTITY@@@Z ; pack_entity_safe_ptr

; 1543 : 
; 1544 : 			#if DEBUG_MODULE_MESSAGE_TEXT
; 1545 : 
; 1546 : 			debug_log ("EN_COMMS: sending kill for %s (%d)", get_local_entity_type_name (en), get_local_entity_index (en));
; 1547 : 
; 1548 : 			#endif
; 1549 : 
; 1550 : 			break;

  0156c	e9 54 20 00 00	 jmp	 $LN2@transmit_e
$LN113@transmit_e:

; 1551 : 		}
; 1552 : 		////////////////////////////////////////
; 1553 : 		case ENTITY_COMMS_MOBILE_KILL:
; 1554 : 		////////////////////////////////////////
; 1555 : 		{
; 1556 : 			entity
; 1557 : 				*victim;
; 1558 : 
; 1559 : 			//
; 1560 : 			// (entity_comms_messages message, entity *force, entity *victim)
; 1561 : 			//
; 1562 : 
; 1563 : 			victim = va_arg (pargs, entity *);

  01571	8b 45 fc	 mov	 eax, DWORD PTR _pargs$[ebp]
  01574	83 c0 04	 add	 eax, 4
  01577	89 45 fc	 mov	 DWORD PTR _pargs$[ebp], eax
  0157a	8b 4d fc	 mov	 ecx, DWORD PTR _pargs$[ebp]
  0157d	8b 51 fc	 mov	 edx, DWORD PTR [ecx-4]
  01580	89 95 b8 fe ff
	ff		 mov	 DWORD PTR _victim$60[ebp], edx

; 1564 : 
; 1565 : 			ASSERT (victim);

  01586	83 bd b8 fe ff
	ff 00		 cmp	 DWORD PTR _victim$60[ebp], 0
  0158d	75 1a		 jne	 SHORT $LN114@transmit_e
  0158f	a1 00 00 00 00	 mov	 eax, DWORD PTR ?__LINE__Var@?0??transmit_entity_comms_message@@YAXW4ENTITY_COMMS_MESSAGES@@PAUENTITY@@ZZ@4JA
  01594	05 44 04 00 00	 add	 eax, 1092		; 00000444H
  01599	50		 push	 eax
  0159a	68 00 00 00 00	 push	 OFFSET ??_C@_0EO@OCMIKFBI@c?3?2users?2nhv90?2projects?2eech?2ap@
  0159f	68 00 00 00 00	 push	 OFFSET ??_C@_06GPEKEEBB@victim@
  015a4	e8 00 00 00 00	 call	 ?process_assert@@YGXPBD0H@Z ; process_assert
$LN114@transmit_e:

; 1566 : 
; 1567 : 			pack_entity_safe_ptr (en);

  015a9	8b 45 0c	 mov	 eax, DWORD PTR _en$[ebp]
  015ac	50		 push	 eax
  015ad	e8 00 00 00 00	 call	 ?pack_entity_safe_ptr@@YGXPAUENTITY@@@Z ; pack_entity_safe_ptr

; 1568 : 
; 1569 : 			pack_entity_safe_ptr (victim);

  015b2	8b 85 b8 fe ff
	ff		 mov	 eax, DWORD PTR _victim$60[ebp]
  015b8	50		 push	 eax
  015b9	e8 00 00 00 00	 call	 ?pack_entity_safe_ptr@@YGXPAUENTITY@@@Z ; pack_entity_safe_ptr

; 1570 : 
; 1571 : 			#if DEBUG_MODULE_MESSAGE_TEXT
; 1572 : 
; 1573 : 			debug_log ("EN_COMMS: sending mobile kill for %s (%d)", get_local_entity_type_name (victim), get_local_entity_index (victim));
; 1574 : 
; 1575 : 			#endif
; 1576 : 
; 1577 : 			break;

  015be	e9 02 20 00 00	 jmp	 $LN2@transmit_e
$LN115@transmit_e:

; 1578 : 		}
; 1579 : 		////////////////////////////////////////
; 1580 : 		case ENTITY_COMMS_MOBILE_LAND:
; 1581 : 		////////////////////////////////////////
; 1582 : 		{
; 1583 : 
; 1584 : 			entity
; 1585 : 				*wp;
; 1586 : 
; 1587 : 			//
; 1588 : 			// (entity_comms_messages message, entity *en, entity *wp)
; 1589 : 			//
; 1590 : 
; 1591 : 			ASSERT (en);

  015c3	83 7d 0c 00	 cmp	 DWORD PTR _en$[ebp], 0
  015c7	75 1a		 jne	 SHORT $LN116@transmit_e
  015c9	a1 00 00 00 00	 mov	 eax, DWORD PTR ?__LINE__Var@?0??transmit_entity_comms_message@@YAXW4ENTITY_COMMS_MESSAGES@@PAUENTITY@@ZZ@4JA
  015ce	05 5e 04 00 00	 add	 eax, 1118		; 0000045eH
  015d3	50		 push	 eax
  015d4	68 00 00 00 00	 push	 OFFSET ??_C@_0EO@OCMIKFBI@c?3?2users?2nhv90?2projects?2eech?2ap@
  015d9	68 00 00 00 00	 push	 OFFSET ??_C@_02LFNMGJAP@en@
  015de	e8 00 00 00 00	 call	 ?process_assert@@YGXPBD0H@Z ; process_assert
$LN116@transmit_e:

; 1592 : 
; 1593 : 			wp = va_arg (pargs, entity *);

  015e3	8b 45 fc	 mov	 eax, DWORD PTR _pargs$[ebp]
  015e6	83 c0 04	 add	 eax, 4
  015e9	89 45 fc	 mov	 DWORD PTR _pargs$[ebp], eax
  015ec	8b 4d fc	 mov	 ecx, DWORD PTR _pargs$[ebp]
  015ef	8b 51 fc	 mov	 edx, DWORD PTR [ecx-4]
  015f2	89 95 b4 fe ff
	ff		 mov	 DWORD PTR _wp$59[ebp], edx

; 1594 : 
; 1595 : 			ASSERT (wp);

  015f8	83 bd b4 fe ff
	ff 00		 cmp	 DWORD PTR _wp$59[ebp], 0
  015ff	75 1a		 jne	 SHORT $LN117@transmit_e
  01601	a1 00 00 00 00	 mov	 eax, DWORD PTR ?__LINE__Var@?0??transmit_entity_comms_message@@YAXW4ENTITY_COMMS_MESSAGES@@PAUENTITY@@ZZ@4JA
  01606	05 62 04 00 00	 add	 eax, 1122		; 00000462H
  0160b	50		 push	 eax
  0160c	68 00 00 00 00	 push	 OFFSET ??_C@_0EO@OCMIKFBI@c?3?2users?2nhv90?2projects?2eech?2ap@
  01611	68 00 00 00 00	 push	 OFFSET ??_C@_02HODPCBMO@wp@
  01616	e8 00 00 00 00	 call	 ?process_assert@@YGXPBD0H@Z ; process_assert
$LN117@transmit_e:

; 1596 : 
; 1597 : 			pack_entity_safe_ptr (en);

  0161b	8b 45 0c	 mov	 eax, DWORD PTR _en$[ebp]
  0161e	50		 push	 eax
  0161f	e8 00 00 00 00	 call	 ?pack_entity_safe_ptr@@YGXPAUENTITY@@@Z ; pack_entity_safe_ptr

; 1598 : 
; 1599 : 			pack_entity_safe_ptr (wp);

  01624	8b 85 b4 fe ff
	ff		 mov	 eax, DWORD PTR _wp$59[ebp]
  0162a	50		 push	 eax
  0162b	e8 00 00 00 00	 call	 ?pack_entity_safe_ptr@@YGXPAUENTITY@@@Z ; pack_entity_safe_ptr

; 1600 : 
; 1601 : 			#if DEBUG_MODULE_MESSAGE_TEXT
; 1602 : 
; 1603 : 			debug_log ("EN_COMMS: sending mobile land for %s (%d)", get_local_entity_type_name (en), get_local_entity_index (en));
; 1604 : 
; 1605 : 			#endif
; 1606 : 
; 1607 : 			break;

  01630	e9 90 1f 00 00	 jmp	 $LN2@transmit_e
$LN118@transmit_e:

; 1608 : 		}
; 1609 : 		////////////////////////////////////////
; 1610 : 		case ENTITY_COMMS_MOBILE_TAKEOFF:
; 1611 : 		////////////////////////////////////////
; 1612 : 		{
; 1613 : 			//
; 1614 : 			// (entity_comms_messages message, entity *en, entity *wp)
; 1615 : 			//
; 1616 : 
; 1617 : 			ASSERT (en);

  01635	83 7d 0c 00	 cmp	 DWORD PTR _en$[ebp], 0
  01639	75 1a		 jne	 SHORT $LN119@transmit_e
  0163b	a1 00 00 00 00	 mov	 eax, DWORD PTR ?__LINE__Var@?0??transmit_entity_comms_message@@YAXW4ENTITY_COMMS_MESSAGES@@PAUENTITY@@ZZ@4JA
  01640	05 78 04 00 00	 add	 eax, 1144		; 00000478H
  01645	50		 push	 eax
  01646	68 00 00 00 00	 push	 OFFSET ??_C@_0EO@OCMIKFBI@c?3?2users?2nhv90?2projects?2eech?2ap@
  0164b	68 00 00 00 00	 push	 OFFSET ??_C@_02LFNMGJAP@en@
  01650	e8 00 00 00 00	 call	 ?process_assert@@YGXPBD0H@Z ; process_assert
$LN119@transmit_e:

; 1618 : 
; 1619 : 			pack_entity_safe_ptr (en);

  01655	8b 45 0c	 mov	 eax, DWORD PTR _en$[ebp]
  01658	50		 push	 eax
  01659	e8 00 00 00 00	 call	 ?pack_entity_safe_ptr@@YGXPAUENTITY@@@Z ; pack_entity_safe_ptr

; 1620 : 
; 1621 : 			#if DEBUG_MODULE_MESSAGE_TEXT
; 1622 : 
; 1623 : 			debug_log ("EN_COMMS: sending mobile takeoff for %s (%d)", get_local_entity_type_name (en), get_local_entity_index (en));
; 1624 : 
; 1625 : 			#endif
; 1626 : 
; 1627 : 			break;

  0165e	e9 62 1f 00 00	 jmp	 $LN2@transmit_e
$LN120@transmit_e:

; 1628 : 		}
; 1629 : 		////////////////////////////////////////
; 1630 : 		case ENTITY_COMMS_MOVE_PLANNER_WAYPOINT:
; 1631 : 		////////////////////////////////////////
; 1632 : 		{
; 1633 : 			vec3d
; 1634 : 				*pos;
; 1635 : 
; 1636 : 			//
; 1637 : 			// (entity_comms_messages message, entity *wp, vec3d *pos)
; 1638 : 			//
; 1639 : 
; 1640 : 			ASSERT (en);

  01663	83 7d 0c 00	 cmp	 DWORD PTR _en$[ebp], 0
  01667	75 1a		 jne	 SHORT $LN121@transmit_e
  01669	a1 00 00 00 00	 mov	 eax, DWORD PTR ?__LINE__Var@?0??transmit_entity_comms_message@@YAXW4ENTITY_COMMS_MESSAGES@@PAUENTITY@@ZZ@4JA
  0166e	05 8f 04 00 00	 add	 eax, 1167		; 0000048fH
  01673	50		 push	 eax
  01674	68 00 00 00 00	 push	 OFFSET ??_C@_0EO@OCMIKFBI@c?3?2users?2nhv90?2projects?2eech?2ap@
  01679	68 00 00 00 00	 push	 OFFSET ??_C@_02LFNMGJAP@en@
  0167e	e8 00 00 00 00	 call	 ?process_assert@@YGXPBD0H@Z ; process_assert
$LN121@transmit_e:

; 1641 : 
; 1642 : 			pack_entity_safe_ptr (en);

  01683	8b 45 0c	 mov	 eax, DWORD PTR _en$[ebp]
  01686	50		 push	 eax
  01687	e8 00 00 00 00	 call	 ?pack_entity_safe_ptr@@YGXPAUENTITY@@@Z ; pack_entity_safe_ptr

; 1643 : 
; 1644 : 			pos = va_arg (pargs, vec3d *);

  0168c	8b 45 fc	 mov	 eax, DWORD PTR _pargs$[ebp]
  0168f	83 c0 04	 add	 eax, 4
  01692	89 45 fc	 mov	 DWORD PTR _pargs$[ebp], eax
  01695	8b 4d fc	 mov	 ecx, DWORD PTR _pargs$[ebp]
  01698	8b 51 fc	 mov	 edx, DWORD PTR [ecx-4]
  0169b	89 95 b0 fe ff
	ff		 mov	 DWORD PTR _pos$58[ebp], edx

; 1645 : 
; 1646 : 			pack_vec3d (en, VEC3D_TYPE_POSITION, pos);

  016a1	8b 85 b0 fe ff
	ff		 mov	 eax, DWORD PTR _pos$58[ebp]
  016a7	50		 push	 eax
  016a8	6a 08		 push	 8
  016aa	8b 4d 0c	 mov	 ecx, DWORD PTR _en$[ebp]
  016ad	51		 push	 ecx
  016ae	e8 00 00 00 00	 call	 ?pack_vec3d@@YGXPAUENTITY@@W4VEC3D_TYPES@@PAUVEC3D@@@Z ; pack_vec3d

; 1647 : 
; 1648 : 			#if DEBUG_MODULE_MESSAGE_TEXT
; 1649 : 
; 1650 : 			debug_log ("EN_COMMS: sending move planner_waypoint for %s (%d) to %f, %f, %f", get_local_entity_type_name (en), get_local_entity_index (en), pos->x, pos->y, pos->z);
; 1651 : 
; 1652 : 			#endif
; 1653 : 
; 1654 : 			break;

  016b3	e9 0d 1f 00 00	 jmp	 $LN2@transmit_e
$LN122@transmit_e:

; 1655 : 		}
; 1656 : 		////////////////////////////////////////
; 1657 : 		case ENTITY_COMMS_PAUSE_SOUND_TYPE:
; 1658 : 		////////////////////////////////////////
; 1659 : 		{
; 1660 : 			entity_sub_types
; 1661 : 				type;
; 1662 : 
; 1663 : 			float
; 1664 : 				delay;
; 1665 : 
; 1666 : 			//
; 1667 : 			// (entity_comms_messages message, entity *en, entity_sub_types type, float delay)
; 1668 : 			//
; 1669 : 
; 1670 : 			ASSERT (en);

  016b8	83 7d 0c 00	 cmp	 DWORD PTR _en$[ebp], 0
  016bc	75 1a		 jne	 SHORT $LN123@transmit_e
  016be	a1 00 00 00 00	 mov	 eax, DWORD PTR ?__LINE__Var@?0??transmit_entity_comms_message@@YAXW4ENTITY_COMMS_MESSAGES@@PAUENTITY@@ZZ@4JA
  016c3	05 ad 04 00 00	 add	 eax, 1197		; 000004adH
  016c8	50		 push	 eax
  016c9	68 00 00 00 00	 push	 OFFSET ??_C@_0EO@OCMIKFBI@c?3?2users?2nhv90?2projects?2eech?2ap@
  016ce	68 00 00 00 00	 push	 OFFSET ??_C@_02LFNMGJAP@en@
  016d3	e8 00 00 00 00	 call	 ?process_assert@@YGXPBD0H@Z ; process_assert
$LN123@transmit_e:

; 1671 : 
; 1672 : 			pack_entity_safe_ptr (en);

  016d8	8b 45 0c	 mov	 eax, DWORD PTR _en$[ebp]
  016db	50		 push	 eax
  016dc	e8 00 00 00 00	 call	 ?pack_entity_safe_ptr@@YGXPAUENTITY@@@Z ; pack_entity_safe_ptr

; 1673 : 
; 1674 : 			type = va_arg (pargs, int);

  016e1	8b 45 fc	 mov	 eax, DWORD PTR _pargs$[ebp]
  016e4	83 c0 04	 add	 eax, 4
  016e7	89 45 fc	 mov	 DWORD PTR _pargs$[ebp], eax
  016ea	8b 4d fc	 mov	 ecx, DWORD PTR _pargs$[ebp]
  016ed	8b 51 fc	 mov	 edx, DWORD PTR [ecx-4]
  016f0	89 95 ac fe ff
	ff		 mov	 DWORD PTR _type$57[ebp], edx

; 1675 : 
; 1676 : 			pack_int_value (en, INT_TYPE_ENTITY_SUB_TYPE, type);

  016f6	8b 85 ac fe ff
	ff		 mov	 eax, DWORD PTR _type$57[ebp]
  016fc	50		 push	 eax
  016fd	6a 34		 push	 52			; 00000034H
  016ff	8b 4d 0c	 mov	 ecx, DWORD PTR _en$[ebp]
  01702	51		 push	 ecx
  01703	e8 00 00 00 00	 call	 ?pack_int_value@@YGXPAUENTITY@@W4INT_TYPES@@H@Z ; pack_int_value

; 1677 : 
; 1678 : 			delay = va_arg (pargs, double);

  01708	8b 45 fc	 mov	 eax, DWORD PTR _pargs$[ebp]
  0170b	83 c0 08	 add	 eax, 8
  0170e	89 45 fc	 mov	 DWORD PTR _pargs$[ebp], eax
  01711	8b 4d fc	 mov	 ecx, DWORD PTR _pargs$[ebp]
  01714	f2 0f 5a 41 f8	 cvtsd2ss xmm0, QWORD PTR [ecx-8]
  01719	f3 0f 11 85 a8
	fe ff ff	 movss	 DWORD PTR _delay$56[ebp], xmm0

; 1679 : 
; 1680 : 			pack_float_value (en, FLOAT_TYPE_VALID_EFFECT_LIFETIME, delay);

  01721	51		 push	 ecx
  01722	f3 0f 10 85 a8
	fe ff ff	 movss	 xmm0, DWORD PTR _delay$56[ebp]
  0172a	f3 0f 11 04 24	 movss	 DWORD PTR [esp], xmm0
  0172f	68 92 00 00 00	 push	 146			; 00000092H
  01734	8b 45 0c	 mov	 eax, DWORD PTR _en$[ebp]
  01737	50		 push	 eax
  01738	e8 00 00 00 00	 call	 ?pack_float_value@@YGXPAUENTITY@@W4FLOAT_TYPES@@M@Z ; pack_float_value

; 1681 : 
; 1682 : 			#if DEBUG_MODULE_MESSAGE_TEXT
; 1683 : 
; 1684 : 			debug_log ("EN_COMMS: sending pause sound type %s for %s (%d)", entity_sub_type_effect_names [type], get_local_entity_type_name (en), get_local_entity_index (en));
; 1685 : 
; 1686 : 			#endif
; 1687 : 
; 1688 : 			break;

  0173d	e9 83 1e 00 00	 jmp	 $LN2@transmit_e
$LN124@transmit_e:

; 1689 : 		}
; 1690 : 		////////////////////////////////////////
; 1691 : 		case ENTITY_COMMS_PAUSE_WEAPON_SOUND_TYPE:
; 1692 : 		////////////////////////////////////////
; 1693 : 		{
; 1694 : 			entity_sub_types
; 1695 : 				weapon_sub_type;
; 1696 : 
; 1697 : 			//
; 1698 : 			// (entity_comms_messages message, entity *en, entity_sub_types weapon_sub_type)
; 1699 : 			//
; 1700 : 
; 1701 : 			ASSERT (en);

  01742	83 7d 0c 00	 cmp	 DWORD PTR _en$[ebp], 0
  01746	75 1a		 jne	 SHORT $LN125@transmit_e
  01748	a1 00 00 00 00	 mov	 eax, DWORD PTR ?__LINE__Var@?0??transmit_entity_comms_message@@YAXW4ENTITY_COMMS_MESSAGES@@PAUENTITY@@ZZ@4JA
  0174d	05 cc 04 00 00	 add	 eax, 1228		; 000004ccH
  01752	50		 push	 eax
  01753	68 00 00 00 00	 push	 OFFSET ??_C@_0EO@OCMIKFBI@c?3?2users?2nhv90?2projects?2eech?2ap@
  01758	68 00 00 00 00	 push	 OFFSET ??_C@_02LFNMGJAP@en@
  0175d	e8 00 00 00 00	 call	 ?process_assert@@YGXPBD0H@Z ; process_assert
$LN125@transmit_e:

; 1702 : 
; 1703 : 			pack_entity_safe_ptr (en);

  01762	8b 45 0c	 mov	 eax, DWORD PTR _en$[ebp]
  01765	50		 push	 eax
  01766	e8 00 00 00 00	 call	 ?pack_entity_safe_ptr@@YGXPAUENTITY@@@Z ; pack_entity_safe_ptr

; 1704 : 
; 1705 : 			weapon_sub_type = va_arg (pargs, int);

  0176b	8b 45 fc	 mov	 eax, DWORD PTR _pargs$[ebp]
  0176e	83 c0 04	 add	 eax, 4
  01771	89 45 fc	 mov	 DWORD PTR _pargs$[ebp], eax
  01774	8b 4d fc	 mov	 ecx, DWORD PTR _pargs$[ebp]
  01777	8b 51 fc	 mov	 edx, DWORD PTR [ecx-4]
  0177a	89 95 a4 fe ff
	ff		 mov	 DWORD PTR _weapon_sub_type$55[ebp], edx

; 1706 : 
; 1707 : 			pack_int_value (en, INT_TYPE_ENTITY_SUB_TYPE, weapon_sub_type);

  01780	8b 85 a4 fe ff
	ff		 mov	 eax, DWORD PTR _weapon_sub_type$55[ebp]
  01786	50		 push	 eax
  01787	6a 34		 push	 52			; 00000034H
  01789	8b 4d 0c	 mov	 ecx, DWORD PTR _en$[ebp]
  0178c	51		 push	 ecx
  0178d	e8 00 00 00 00	 call	 ?pack_int_value@@YGXPAUENTITY@@W4INT_TYPES@@H@Z ; pack_int_value

; 1708 : 
; 1709 : 			#if DEBUG_MODULE_MESSAGE_TEXT
; 1710 : 
; 1711 : 			debug_log ("EN_COMMS: sending pause weapon sound type for %s (%d)", get_local_entity_type_name (en), get_local_entity_index (en));
; 1712 : 
; 1713 : 			#endif
; 1714 : 
; 1715 : 			break;

  01792	e9 2e 1e 00 00	 jmp	 $LN2@transmit_e
$LN126@transmit_e:

; 1716 : 		}
; 1717 : 		////////////////////////////////////////
; 1718 : 		case ENTITY_COMMS_PILOT_COMMUNICATION:
; 1719 : 		////////////////////////////////////////
; 1720 : 		{
; 1721 : 			//
; 1722 : 			// (entity_comms_messages message, entity *sender, entity *target, int type, char *message)
; 1723 : 			//
; 1724 : 
; 1725 : 			const char
; 1726 : 				*message;
; 1727 : 
; 1728 : 			entity
; 1729 : 				*target;
; 1730 : 
; 1731 : 			message_text_types
; 1732 : 				type;
; 1733 : 
; 1734 : 			pack_entity_safe_ptr (en);

  01797	8b 45 0c	 mov	 eax, DWORD PTR _en$[ebp]
  0179a	50		 push	 eax
  0179b	e8 00 00 00 00	 call	 ?pack_entity_safe_ptr@@YGXPAUENTITY@@@Z ; pack_entity_safe_ptr

; 1735 : 
; 1736 : 			target = va_arg (pargs, entity *);

  017a0	8b 45 fc	 mov	 eax, DWORD PTR _pargs$[ebp]
  017a3	83 c0 04	 add	 eax, 4
  017a6	89 45 fc	 mov	 DWORD PTR _pargs$[ebp], eax
  017a9	8b 4d fc	 mov	 ecx, DWORD PTR _pargs$[ebp]
  017ac	8b 51 fc	 mov	 edx, DWORD PTR [ecx-4]
  017af	89 95 9c fe ff
	ff		 mov	 DWORD PTR _target$53[ebp], edx

; 1737 : 
; 1738 : 			pack_entity_safe_ptr (target);

  017b5	8b 85 9c fe ff
	ff		 mov	 eax, DWORD PTR _target$53[ebp]
  017bb	50		 push	 eax
  017bc	e8 00 00 00 00	 call	 ?pack_entity_safe_ptr@@YGXPAUENTITY@@@Z ; pack_entity_safe_ptr

; 1739 : 
; 1740 : 			type = (message_text_types) va_arg (pargs, int);

  017c1	8b 45 fc	 mov	 eax, DWORD PTR _pargs$[ebp]
  017c4	83 c0 04	 add	 eax, 4
  017c7	89 45 fc	 mov	 DWORD PTR _pargs$[ebp], eax
  017ca	8b 4d fc	 mov	 ecx, DWORD PTR _pargs$[ebp]
  017cd	8b 51 fc	 mov	 edx, DWORD PTR [ecx-4]
  017d0	89 95 98 fe ff
	ff		 mov	 DWORD PTR _type$52[ebp], edx

; 1741 : 
; 1742 : 			pack_int_value (en, INT_TYPE_MESSAGE_TEXT_TYPE, type);

  017d6	8b 85 98 fe ff
	ff		 mov	 eax, DWORD PTR _type$52[ebp]
  017dc	50		 push	 eax
  017dd	68 87 00 00 00	 push	 135			; 00000087H
  017e2	8b 4d 0c	 mov	 ecx, DWORD PTR _en$[ebp]
  017e5	51		 push	 ecx
  017e6	e8 00 00 00 00	 call	 ?pack_int_value@@YGXPAUENTITY@@W4INT_TYPES@@H@Z ; pack_int_value

; 1743 : 
; 1744 : 			message = va_arg (pargs, const char *);

  017eb	8b 45 fc	 mov	 eax, DWORD PTR _pargs$[ebp]
  017ee	83 c0 04	 add	 eax, 4
  017f1	89 45 fc	 mov	 DWORD PTR _pargs$[ebp], eax
  017f4	8b 4d fc	 mov	 ecx, DWORD PTR _pargs$[ebp]
  017f7	8b 51 fc	 mov	 edx, DWORD PTR [ecx-4]
  017fa	89 95 a0 fe ff
	ff		 mov	 DWORD PTR _message$54[ebp], edx

; 1745 : 
; 1746 : 			if (message_text_type_send_string (type))

  01800	8b 85 98 fe ff
	ff		 mov	 eax, DWORD PTR _type$52[ebp]
  01806	50		 push	 eax
  01807	e8 00 00 00 00	 call	 ?message_text_type_send_string@@YGHW4MESSAGE_TEXT_TYPES@@@Z ; message_text_type_send_string
  0180c	85 c0		 test	 eax, eax
  0180e	74 37		 je	 SHORT $LN127@transmit_e

; 1747 : 			{
; 1748 : 				ASSERT (message);

  01810	83 bd a0 fe ff
	ff 00		 cmp	 DWORD PTR _message$54[ebp], 0
  01817	75 1a		 jne	 SHORT $LN129@transmit_e
  01819	a1 00 00 00 00	 mov	 eax, DWORD PTR ?__LINE__Var@?0??transmit_entity_comms_message@@YAXW4ENTITY_COMMS_MESSAGES@@PAUENTITY@@ZZ@4JA
  0181e	05 fb 04 00 00	 add	 eax, 1275		; 000004fbH
  01823	50		 push	 eax
  01824	68 00 00 00 00	 push	 OFFSET ??_C@_0EO@OCMIKFBI@c?3?2users?2nhv90?2projects?2eech?2ap@
  01829	68 00 00 00 00	 push	 OFFSET ??_C@_07ONPBMBOP@message@
  0182e	e8 00 00 00 00	 call	 ?process_assert@@YGXPBD0H@Z ; process_assert
$LN129@transmit_e:

; 1749 : 
; 1750 : 				pack_string (en, STRING_TYPE_PILOT_MESSAGE, message);

  01833	8b 85 a0 fe ff
	ff		 mov	 eax, DWORD PTR _message$54[ebp]
  01839	50		 push	 eax
  0183a	6a 09		 push	 9
  0183c	8b 4d 0c	 mov	 ecx, DWORD PTR _en$[ebp]
  0183f	51		 push	 ecx
  01840	e8 00 00 00 00	 call	 ?pack_string@@YGXPAUENTITY@@W4STRING_TYPES@@PBD@Z ; pack_string

; 1751 : 
; 1752 : 				#if DEBUG_MODULE_MESSAGE_TEXT
; 1753 : 
; 1754 : 				debug_log ("EN_COMMS: sending communication message %s", message);
; 1755 : 
; 1756 : 				#endif
; 1757 : 			}
; 1758 : 			else

  01845	eb 23		 jmp	 SHORT $LN130@transmit_e
$LN127@transmit_e:

; 1759 : 			{
; 1760 : 				ASSERT (message == NULL);

  01847	83 bd a0 fe ff
	ff 00		 cmp	 DWORD PTR _message$54[ebp], 0
  0184e	74 1a		 je	 SHORT $LN130@transmit_e
  01850	a1 00 00 00 00	 mov	 eax, DWORD PTR ?__LINE__Var@?0??transmit_entity_comms_message@@YAXW4ENTITY_COMMS_MESSAGES@@PAUENTITY@@ZZ@4JA
  01855	05 07 05 00 00	 add	 eax, 1287		; 00000507H
  0185a	50		 push	 eax
  0185b	68 00 00 00 00	 push	 OFFSET ??_C@_0EO@OCMIKFBI@c?3?2users?2nhv90?2projects?2eech?2ap@
  01860	68 00 00 00 00	 push	 OFFSET ??_C@_0BA@FCGNACJO@message?5?$DN?$DN?5NULL@
  01865	e8 00 00 00 00	 call	 ?process_assert@@YGXPBD0H@Z ; process_assert
$LN130@transmit_e:

; 1761 : 			}
; 1762 : 
; 1763 : 			break;

  0186a	e9 56 1d 00 00	 jmp	 $LN2@transmit_e
$LN131@transmit_e:

; 1764 : 		}
; 1765 : 		////////////////////////////////////////
; 1766 : 		case ENTITY_COMMS_PILOT_PFZ_TRANSFER:
; 1767 : 		////////////////////////////////////////
; 1768 : 		{
; 1769 : 			ASSERT(!"Use transmit_pfz() function");

  0186f	b8 00 00 00 00	 mov	 eax, OFFSET ??_C@_0BM@ELIHFJKD@Use?5transmit_pfz?$CI?$CJ?5function@
  01874	85 c0		 test	 eax, eax
  01876	74 1a		 je	 SHORT $LN132@transmit_e
  01878	a1 00 00 00 00	 mov	 eax, DWORD PTR ?__LINE__Var@?0??transmit_entity_comms_message@@YAXW4ENTITY_COMMS_MESSAGES@@PAUENTITY@@ZZ@4JA
  0187d	05 10 05 00 00	 add	 eax, 1296		; 00000510H
  01882	50		 push	 eax
  01883	68 00 00 00 00	 push	 OFFSET ??_C@_0EO@OCMIKFBI@c?3?2users?2nhv90?2projects?2eech?2ap@
  01888	68 00 00 00 00	 push	 OFFSET ??_C@_0BP@BKAJBABJ@?$CB?$CCUse?5transmit_pfz?$CI?$CJ?5function?$CC@
  0188d	e8 00 00 00 00	 call	 ?process_assert@@YGXPBD0H@Z ; process_assert
$LN132@transmit_e:

; 1770 : 
; 1771 : 			break;

  01892	e9 2e 1d 00 00	 jmp	 $LN2@transmit_e
$LN133@transmit_e:

; 1772 : 		}
; 1773 : 		////////////////////////////////////////
; 1774 : 		case ENTITY_COMMS_PILOT_REQUEST_ACCEPTED:
; 1775 : 		////////////////////////////////////////
; 1776 : 		{
; 1777 : 
; 1778 : 			int
; 1779 : 				pilot_index,
; 1780 : 				destination_id;
; 1781 : 			//
; 1782 : 			// (entity_comms_messages message, int destination_id, int index)
; 1783 : 			//
; 1784 : 
; 1785 : 			pack_entity_safe_ptr (en);

  01897	8b 45 0c	 mov	 eax, DWORD PTR _en$[ebp]
  0189a	50		 push	 eax
  0189b	e8 00 00 00 00	 call	 ?pack_entity_safe_ptr@@YGXPAUENTITY@@@Z ; pack_entity_safe_ptr

; 1786 : 
; 1787 : 			destination_id = va_arg (pargs, int);

  018a0	8b 45 fc	 mov	 eax, DWORD PTR _pargs$[ebp]
  018a3	83 c0 04	 add	 eax, 4
  018a6	89 45 fc	 mov	 DWORD PTR _pargs$[ebp], eax
  018a9	8b 4d fc	 mov	 ecx, DWORD PTR _pargs$[ebp]
  018ac	8b 51 fc	 mov	 edx, DWORD PTR [ecx-4]
  018af	89 95 90 fe ff
	ff		 mov	 DWORD PTR _destination_id$50[ebp], edx

; 1788 : 
; 1789 : 			pilot_index = va_arg (pargs, int);

  018b5	8b 45 fc	 mov	 eax, DWORD PTR _pargs$[ebp]
  018b8	83 c0 04	 add	 eax, 4
  018bb	89 45 fc	 mov	 DWORD PTR _pargs$[ebp], eax
  018be	8b 4d fc	 mov	 ecx, DWORD PTR _pargs$[ebp]
  018c1	8b 51 fc	 mov	 edx, DWORD PTR [ecx-4]
  018c4	89 95 94 fe ff
	ff		 mov	 DWORD PTR _pilot_index$51[ebp], edx

; 1790 : 
; 1791 : 			pack_int_value (NULL, INT_TYPE_VALUE, destination_id);

  018ca	8b 85 90 fe ff
	ff		 mov	 eax, DWORD PTR _destination_id$50[ebp]
  018d0	50		 push	 eax
  018d1	68 f2 00 00 00	 push	 242			; 000000f2H
  018d6	6a 00		 push	 0
  018d8	e8 00 00 00 00	 call	 ?pack_int_value@@YGXPAUENTITY@@W4INT_TYPES@@H@Z ; pack_int_value

; 1792 : 
; 1793 : 			pack_int_value (NULL, INT_TYPE_VALUE, pilot_index);

  018dd	8b 85 94 fe ff
	ff		 mov	 eax, DWORD PTR _pilot_index$51[ebp]
  018e3	50		 push	 eax
  018e4	68 f2 00 00 00	 push	 242			; 000000f2H
  018e9	6a 00		 push	 0
  018eb	e8 00 00 00 00	 call	 ?pack_int_value@@YGXPAUENTITY@@W4INT_TYPES@@H@Z ; pack_int_value

; 1794 : 
; 1795 : 			//#if DEBUG_MODULE_MESSAGE_TEXT
; 1796 : 
; 1797 : 			debug_log ("EN_COMMS: sending Pilot request accepted to %d for entity %d", destination_id, pilot_index);

  018f0	8b 85 94 fe ff
	ff		 mov	 eax, DWORD PTR _pilot_index$51[ebp]
  018f6	50		 push	 eax
  018f7	8b 8d 90 fe ff
	ff		 mov	 ecx, DWORD PTR _destination_id$50[ebp]
  018fd	51		 push	 ecx
  018fe	68 00 00 00 00	 push	 OFFSET ??_C@_0DN@PHCNGHE@EN_COMMS?3?5sending?5Pilot?5request@
  01903	e8 00 00 00 00	 call	 ?debug_log@@YAXPBDZZ	; debug_log
  01908	83 c4 0c	 add	 esp, 12			; 0000000cH

; 1798 : 
; 1799 : 			//#endif
; 1800 : 
; 1801 : 			break;

  0190b	e9 b5 1c 00 00	 jmp	 $LN2@transmit_e
$LN134@transmit_e:

; 1802 : 		}
; 1803 : 		////////////////////////////////////////
; 1804 : 		case ENTITY_COMMS_PLAY_CPG_CONTACT_MESSAGE:
; 1805 : 		////////////////////////////////////////
; 1806 : 		{
; 1807 : 			int
; 1808 : 				speech_index1,
; 1809 : 				speech_index2,
; 1810 : 				speech_index3;
; 1811 : 
; 1812 : 			//
; 1813 : 			// (entity_comms_messages message, entity *en, int speech_index1, int speech_index2, int speech_index3)
; 1814 : 			//
; 1815 : 
; 1816 : 			speech_index1 = va_arg (pargs, int);

  01910	8b 45 fc	 mov	 eax, DWORD PTR _pargs$[ebp]
  01913	83 c0 04	 add	 eax, 4
  01916	89 45 fc	 mov	 DWORD PTR _pargs$[ebp], eax
  01919	8b 4d fc	 mov	 ecx, DWORD PTR _pargs$[ebp]
  0191c	8b 51 fc	 mov	 edx, DWORD PTR [ecx-4]
  0191f	89 95 8c fe ff
	ff		 mov	 DWORD PTR _speech_index1$49[ebp], edx

; 1817 : 
; 1818 : 			speech_index2 = va_arg (pargs, int);

  01925	8b 45 fc	 mov	 eax, DWORD PTR _pargs$[ebp]
  01928	83 c0 04	 add	 eax, 4
  0192b	89 45 fc	 mov	 DWORD PTR _pargs$[ebp], eax
  0192e	8b 4d fc	 mov	 ecx, DWORD PTR _pargs$[ebp]
  01931	8b 51 fc	 mov	 edx, DWORD PTR [ecx-4]
  01934	89 95 88 fe ff
	ff		 mov	 DWORD PTR _speech_index2$48[ebp], edx

; 1819 : 
; 1820 : 			speech_index3 = va_arg (pargs, int);

  0193a	8b 45 fc	 mov	 eax, DWORD PTR _pargs$[ebp]
  0193d	83 c0 04	 add	 eax, 4
  01940	89 45 fc	 mov	 DWORD PTR _pargs$[ebp], eax
  01943	8b 4d fc	 mov	 ecx, DWORD PTR _pargs$[ebp]
  01946	8b 51 fc	 mov	 edx, DWORD PTR [ecx-4]
  01949	89 95 84 fe ff
	ff		 mov	 DWORD PTR _speech_index3$47[ebp], edx

; 1821 : 
; 1822 : 			ASSERT (en);

  0194f	83 7d 0c 00	 cmp	 DWORD PTR _en$[ebp], 0
  01953	75 1a		 jne	 SHORT $LN135@transmit_e
  01955	a1 00 00 00 00	 mov	 eax, DWORD PTR ?__LINE__Var@?0??transmit_entity_comms_message@@YAXW4ENTITY_COMMS_MESSAGES@@PAUENTITY@@ZZ@4JA
  0195a	05 45 05 00 00	 add	 eax, 1349		; 00000545H
  0195f	50		 push	 eax
  01960	68 00 00 00 00	 push	 OFFSET ??_C@_0EO@OCMIKFBI@c?3?2users?2nhv90?2projects?2eech?2ap@
  01965	68 00 00 00 00	 push	 OFFSET ??_C@_02LFNMGJAP@en@
  0196a	e8 00 00 00 00	 call	 ?process_assert@@YGXPBD0H@Z ; process_assert
$LN135@transmit_e:

; 1823 : 
; 1824 : 			pack_entity_safe_ptr (en);

  0196f	8b 45 0c	 mov	 eax, DWORD PTR _en$[ebp]
  01972	50		 push	 eax
  01973	e8 00 00 00 00	 call	 ?pack_entity_safe_ptr@@YGXPAUENTITY@@@Z ; pack_entity_safe_ptr

; 1825 : 
; 1826 : 			pack_int_value (en, INT_TYPE_SPEECH_INDEX, speech_index1);

  01978	8b 85 8c fe ff
	ff		 mov	 eax, DWORD PTR _speech_index1$49[ebp]
  0197e	50		 push	 eax
  0197f	68 c9 00 00 00	 push	 201			; 000000c9H
  01984	8b 4d 0c	 mov	 ecx, DWORD PTR _en$[ebp]
  01987	51		 push	 ecx
  01988	e8 00 00 00 00	 call	 ?pack_int_value@@YGXPAUENTITY@@W4INT_TYPES@@H@Z ; pack_int_value

; 1827 : 
; 1828 : 			pack_int_value (en, INT_TYPE_SPEECH_INDEX, speech_index2);

  0198d	8b 85 88 fe ff
	ff		 mov	 eax, DWORD PTR _speech_index2$48[ebp]
  01993	50		 push	 eax
  01994	68 c9 00 00 00	 push	 201			; 000000c9H
  01999	8b 4d 0c	 mov	 ecx, DWORD PTR _en$[ebp]
  0199c	51		 push	 ecx
  0199d	e8 00 00 00 00	 call	 ?pack_int_value@@YGXPAUENTITY@@W4INT_TYPES@@H@Z ; pack_int_value

; 1829 : 
; 1830 : 			pack_int_value (en, INT_TYPE_SPEECH_INDEX, speech_index3);

  019a2	8b 85 84 fe ff
	ff		 mov	 eax, DWORD PTR _speech_index3$47[ebp]
  019a8	50		 push	 eax
  019a9	68 c9 00 00 00	 push	 201			; 000000c9H
  019ae	8b 4d 0c	 mov	 ecx, DWORD PTR _en$[ebp]
  019b1	51		 push	 ecx
  019b2	e8 00 00 00 00	 call	 ?pack_int_value@@YGXPAUENTITY@@W4INT_TYPES@@H@Z ; pack_int_value

; 1831 : 
; 1832 : 			break;

  019b7	e9 09 1c 00 00	 jmp	 $LN2@transmit_e
$LN136@transmit_e:

; 1833 : 		}
; 1834 : 		////////////////////////////////////////
; 1835 : 		case ENTITY_COMMS_PLAY_CPG_MESSAGE:
; 1836 : 		////////////////////////////////////////
; 1837 : 		{
; 1838 : 			int
; 1839 : 				speech_index,
; 1840 : 				speech_category;
; 1841 : 
; 1842 : 			float
; 1843 : 				priority,
; 1844 : 				expire_time,
; 1845 : 				category_silence_timer;
; 1846 : 
; 1847 : 			//
; 1848 : 			// (entity_comms_messages message, entity *en, float priority, float expire_time, int speech_category, float category_silence_timer, int speech_index)
; 1849 : 			//
; 1850 : 
; 1851 : 			priority = va_arg (pargs, double);

  019bc	8b 45 fc	 mov	 eax, DWORD PTR _pargs$[ebp]
  019bf	83 c0 08	 add	 eax, 8
  019c2	89 45 fc	 mov	 DWORD PTR _pargs$[ebp], eax
  019c5	8b 4d fc	 mov	 ecx, DWORD PTR _pargs$[ebp]
  019c8	f2 0f 5a 41 f8	 cvtsd2ss xmm0, QWORD PTR [ecx-8]
  019cd	f3 0f 11 85 78
	fe ff ff	 movss	 DWORD PTR _priority$44[ebp], xmm0

; 1852 : 
; 1853 : 			expire_time = va_arg (pargs, double);

  019d5	8b 45 fc	 mov	 eax, DWORD PTR _pargs$[ebp]
  019d8	83 c0 08	 add	 eax, 8
  019db	89 45 fc	 mov	 DWORD PTR _pargs$[ebp], eax
  019de	8b 4d fc	 mov	 ecx, DWORD PTR _pargs$[ebp]
  019e1	f2 0f 5a 41 f8	 cvtsd2ss xmm0, QWORD PTR [ecx-8]
  019e6	f3 0f 11 85 74
	fe ff ff	 movss	 DWORD PTR _expire_time$43[ebp], xmm0

; 1854 : 
; 1855 : 			speech_category = va_arg (pargs, int);

  019ee	8b 45 fc	 mov	 eax, DWORD PTR _pargs$[ebp]
  019f1	83 c0 04	 add	 eax, 4
  019f4	89 45 fc	 mov	 DWORD PTR _pargs$[ebp], eax
  019f7	8b 4d fc	 mov	 ecx, DWORD PTR _pargs$[ebp]
  019fa	8b 51 fc	 mov	 edx, DWORD PTR [ecx-4]
  019fd	89 95 7c fe ff
	ff		 mov	 DWORD PTR _speech_category$45[ebp], edx

; 1856 : 
; 1857 : 			category_silence_timer = va_arg (pargs, double);

  01a03	8b 45 fc	 mov	 eax, DWORD PTR _pargs$[ebp]
  01a06	83 c0 08	 add	 eax, 8
  01a09	89 45 fc	 mov	 DWORD PTR _pargs$[ebp], eax
  01a0c	8b 4d fc	 mov	 ecx, DWORD PTR _pargs$[ebp]
  01a0f	f2 0f 5a 41 f8	 cvtsd2ss xmm0, QWORD PTR [ecx-8]
  01a14	f3 0f 11 85 70
	fe ff ff	 movss	 DWORD PTR _category_silence_timer$42[ebp], xmm0

; 1858 : 
; 1859 : 			speech_index = va_arg (pargs, int);

  01a1c	8b 45 fc	 mov	 eax, DWORD PTR _pargs$[ebp]
  01a1f	83 c0 04	 add	 eax, 4
  01a22	89 45 fc	 mov	 DWORD PTR _pargs$[ebp], eax
  01a25	8b 4d fc	 mov	 ecx, DWORD PTR _pargs$[ebp]
  01a28	8b 51 fc	 mov	 edx, DWORD PTR [ecx-4]
  01a2b	89 95 80 fe ff
	ff		 mov	 DWORD PTR _speech_index$46[ebp], edx

; 1860 : 
; 1861 : 			ASSERT (en);

  01a31	83 7d 0c 00	 cmp	 DWORD PTR _en$[ebp], 0
  01a35	75 1a		 jne	 SHORT $LN137@transmit_e
  01a37	a1 00 00 00 00	 mov	 eax, DWORD PTR ?__LINE__Var@?0??transmit_entity_comms_message@@YAXW4ENTITY_COMMS_MESSAGES@@PAUENTITY@@ZZ@4JA
  01a3c	05 6c 05 00 00	 add	 eax, 1388		; 0000056cH
  01a41	50		 push	 eax
  01a42	68 00 00 00 00	 push	 OFFSET ??_C@_0EO@OCMIKFBI@c?3?2users?2nhv90?2projects?2eech?2ap@
  01a47	68 00 00 00 00	 push	 OFFSET ??_C@_02LFNMGJAP@en@
  01a4c	e8 00 00 00 00	 call	 ?process_assert@@YGXPBD0H@Z ; process_assert
$LN137@transmit_e:

; 1862 : 
; 1863 : 			pack_entity_safe_ptr (en);

  01a51	8b 45 0c	 mov	 eax, DWORD PTR _en$[ebp]
  01a54	50		 push	 eax
  01a55	e8 00 00 00 00	 call	 ?pack_entity_safe_ptr@@YGXPAUENTITY@@@Z ; pack_entity_safe_ptr

; 1864 : 
; 1865 : 			pack_float_value (en, FLOAT_TYPE_SPEECH_PRIORITY, priority);

  01a5a	51		 push	 ecx
  01a5b	f3 0f 10 85 78
	fe ff ff	 movss	 xmm0, DWORD PTR _priority$44[ebp]
  01a63	f3 0f 11 04 24	 movss	 DWORD PTR [esp], xmm0
  01a68	6a 7a		 push	 122			; 0000007aH
  01a6a	8b 45 0c	 mov	 eax, DWORD PTR _en$[ebp]
  01a6d	50		 push	 eax
  01a6e	e8 00 00 00 00	 call	 ?pack_float_value@@YGXPAUENTITY@@W4FLOAT_TYPES@@M@Z ; pack_float_value

; 1866 : 
; 1867 : 			pack_float_value (en, FLOAT_TYPE_SPEECH_EXPIRE_TIME, expire_time);

  01a73	51		 push	 ecx
  01a74	f3 0f 10 85 74
	fe ff ff	 movss	 xmm0, DWORD PTR _expire_time$43[ebp]
  01a7c	f3 0f 11 04 24	 movss	 DWORD PTR [esp], xmm0
  01a81	6a 79		 push	 121			; 00000079H
  01a83	8b 45 0c	 mov	 eax, DWORD PTR _en$[ebp]
  01a86	50		 push	 eax
  01a87	e8 00 00 00 00	 call	 ?pack_float_value@@YGXPAUENTITY@@W4FLOAT_TYPES@@M@Z ; pack_float_value

; 1868 : 
; 1869 : 			pack_int_value (en, INT_TYPE_SPEECH_CATEGORY, speech_category);

  01a8c	8b 85 7c fe ff
	ff		 mov	 eax, DWORD PTR _speech_category$45[ebp]
  01a92	50		 push	 eax
  01a93	68 c8 00 00 00	 push	 200			; 000000c8H
  01a98	8b 4d 0c	 mov	 ecx, DWORD PTR _en$[ebp]
  01a9b	51		 push	 ecx
  01a9c	e8 00 00 00 00	 call	 ?pack_int_value@@YGXPAUENTITY@@W4INT_TYPES@@H@Z ; pack_int_value

; 1870 : 
; 1871 : 			pack_float_value (en, FLOAT_TYPE_SPEECH_CATEGORY_SILENCE_TIMER, category_silence_timer);

  01aa1	51		 push	 ecx
  01aa2	f3 0f 10 85 70
	fe ff ff	 movss	 xmm0, DWORD PTR _category_silence_timer$42[ebp]
  01aaa	f3 0f 11 04 24	 movss	 DWORD PTR [esp], xmm0
  01aaf	6a 78		 push	 120			; 00000078H
  01ab1	8b 45 0c	 mov	 eax, DWORD PTR _en$[ebp]
  01ab4	50		 push	 eax
  01ab5	e8 00 00 00 00	 call	 ?pack_float_value@@YGXPAUENTITY@@W4FLOAT_TYPES@@M@Z ; pack_float_value

; 1872 : 
; 1873 : 			pack_int_value (en, INT_TYPE_SPEECH_INDEX, speech_index);

  01aba	8b 85 80 fe ff
	ff		 mov	 eax, DWORD PTR _speech_index$46[ebp]
  01ac0	50		 push	 eax
  01ac1	68 c9 00 00 00	 push	 201			; 000000c9H
  01ac6	8b 4d 0c	 mov	 ecx, DWORD PTR _en$[ebp]
  01ac9	51		 push	 ecx
  01aca	e8 00 00 00 00	 call	 ?pack_int_value@@YGXPAUENTITY@@W4INT_TYPES@@H@Z ; pack_int_value

; 1874 : 
; 1875 : 			#if DEBUG_MODULE_MESSAGE_TEXT
; 1876 : 
; 1877 : 			debug_log ("EN_COMMS: sending play cpg message for %s (%d)", get_local_entity_type_name (en), get_local_entity_index (en));
; 1878 : 
; 1879 : 			#endif
; 1880 : 
; 1881 : 			break;

  01acf	e9 f1 1a 00 00	 jmp	 $LN2@transmit_e
$LN138@transmit_e:

; 1882 : 		}
; 1883 : 		////////////////////////////////////////
; 1884 : 		case ENTITY_COMMS_PLAY_WARNING_MESSAGE:
; 1885 : 		////////////////////////////////////////
; 1886 : 		{
; 1887 : 			int
; 1888 : 				speech_index;
; 1889 : 
; 1890 : 			//
; 1891 : 			// (entity_comms_messages message, entity *en, int speech_index)
; 1892 : 			//
; 1893 : 
; 1894 : 			speech_index = va_arg (pargs, int);

  01ad4	8b 45 fc	 mov	 eax, DWORD PTR _pargs$[ebp]
  01ad7	83 c0 04	 add	 eax, 4
  01ada	89 45 fc	 mov	 DWORD PTR _pargs$[ebp], eax
  01add	8b 4d fc	 mov	 ecx, DWORD PTR _pargs$[ebp]
  01ae0	8b 51 fc	 mov	 edx, DWORD PTR [ecx-4]
  01ae3	89 95 6c fe ff
	ff		 mov	 DWORD PTR _speech_index$41[ebp], edx

; 1895 : 
; 1896 : 			ASSERT (en);

  01ae9	83 7d 0c 00	 cmp	 DWORD PTR _en$[ebp], 0
  01aed	75 1a		 jne	 SHORT $LN139@transmit_e
  01aef	a1 00 00 00 00	 mov	 eax, DWORD PTR ?__LINE__Var@?0??transmit_entity_comms_message@@YAXW4ENTITY_COMMS_MESSAGES@@PAUENTITY@@ZZ@4JA
  01af4	05 8f 05 00 00	 add	 eax, 1423		; 0000058fH
  01af9	50		 push	 eax
  01afa	68 00 00 00 00	 push	 OFFSET ??_C@_0EO@OCMIKFBI@c?3?2users?2nhv90?2projects?2eech?2ap@
  01aff	68 00 00 00 00	 push	 OFFSET ??_C@_02LFNMGJAP@en@
  01b04	e8 00 00 00 00	 call	 ?process_assert@@YGXPBD0H@Z ; process_assert
$LN139@transmit_e:

; 1897 : 
; 1898 : 			pack_entity_safe_ptr (en);

  01b09	8b 45 0c	 mov	 eax, DWORD PTR _en$[ebp]
  01b0c	50		 push	 eax
  01b0d	e8 00 00 00 00	 call	 ?pack_entity_safe_ptr@@YGXPAUENTITY@@@Z ; pack_entity_safe_ptr

; 1899 : 
; 1900 : 			pack_int_value (en, INT_TYPE_SPEECH_INDEX, speech_index);

  01b12	8b 85 6c fe ff
	ff		 mov	 eax, DWORD PTR _speech_index$41[ebp]
  01b18	50		 push	 eax
  01b19	68 c9 00 00 00	 push	 201			; 000000c9H
  01b1e	8b 4d 0c	 mov	 ecx, DWORD PTR _en$[ebp]
  01b21	51		 push	 ecx
  01b22	e8 00 00 00 00	 call	 ?pack_int_value@@YGXPAUENTITY@@W4INT_TYPES@@H@Z ; pack_int_value

; 1901 : 
; 1902 : 			#if DEBUG_MODULE_MESSAGE_TEXT
; 1903 : 
; 1904 : 			debug_log ("EN_COMMS: sending play warning message for %s (%d)", get_local_entity_type_name (en), get_local_entity_index (en));
; 1905 : 
; 1906 : 			#endif
; 1907 : 
; 1908 : 			break;

  01b27	e9 99 1a 00 00	 jmp	 $LN2@transmit_e
$LN140@transmit_e:

; 1909 : 		}
; 1910 : 		////////////////////////////////////////
; 1911 : 		case ENTITY_COMMS_PLAYER_KILL:
; 1912 : 		////////////////////////////////////////
; 1913 : 		{
; 1914 : 			entity
; 1915 : 				*aggressor,
; 1916 : 				*victim;
; 1917 : 
; 1918 : 			//
; 1919 : 			// (entity_comms_messages message, entity *aggressor, entity *victim)
; 1920 : 			//
; 1921 : 
; 1922 : 			aggressor = en;

  01b2c	8b 45 0c	 mov	 eax, DWORD PTR _en$[ebp]
  01b2f	89 85 68 fe ff
	ff		 mov	 DWORD PTR _aggressor$40[ebp], eax

; 1923 : 
; 1924 : 			victim = va_arg (pargs, entity *);

  01b35	8b 45 fc	 mov	 eax, DWORD PTR _pargs$[ebp]
  01b38	83 c0 04	 add	 eax, 4
  01b3b	89 45 fc	 mov	 DWORD PTR _pargs$[ebp], eax
  01b3e	8b 4d fc	 mov	 ecx, DWORD PTR _pargs$[ebp]
  01b41	8b 51 fc	 mov	 edx, DWORD PTR [ecx-4]
  01b44	89 95 64 fe ff
	ff		 mov	 DWORD PTR _victim$39[ebp], edx

; 1925 : 
; 1926 : 			ASSERT (victim);

  01b4a	83 bd 64 fe ff
	ff 00		 cmp	 DWORD PTR _victim$39[ebp], 0
  01b51	75 1a		 jne	 SHORT $LN141@transmit_e
  01b53	a1 00 00 00 00	 mov	 eax, DWORD PTR ?__LINE__Var@?0??transmit_entity_comms_message@@YAXW4ENTITY_COMMS_MESSAGES@@PAUENTITY@@ZZ@4JA
  01b58	05 ad 05 00 00	 add	 eax, 1453		; 000005adH
  01b5d	50		 push	 eax
  01b5e	68 00 00 00 00	 push	 OFFSET ??_C@_0EO@OCMIKFBI@c?3?2users?2nhv90?2projects?2eech?2ap@
  01b63	68 00 00 00 00	 push	 OFFSET ??_C@_06GPEKEEBB@victim@
  01b68	e8 00 00 00 00	 call	 ?process_assert@@YGXPBD0H@Z ; process_assert
$LN141@transmit_e:

; 1927 : 
; 1928 : 			pack_entity_safe_ptr (aggressor);

  01b6d	8b 85 68 fe ff
	ff		 mov	 eax, DWORD PTR _aggressor$40[ebp]
  01b73	50		 push	 eax
  01b74	e8 00 00 00 00	 call	 ?pack_entity_safe_ptr@@YGXPAUENTITY@@@Z ; pack_entity_safe_ptr

; 1929 : 
; 1930 : 			pack_entity_safe_ptr (victim);

  01b79	8b 85 64 fe ff
	ff		 mov	 eax, DWORD PTR _victim$39[ebp]
  01b7f	50		 push	 eax
  01b80	e8 00 00 00 00	 call	 ?pack_entity_safe_ptr@@YGXPAUENTITY@@@Z ; pack_entity_safe_ptr

; 1931 : 
; 1932 : 			#if DEBUG_MODULE_MESSAGE_TEXT
; 1933 : 
; 1934 : 			debug_log ("EN_COMMS: sending player kill for %s (%d)", get_local_entity_type_name (victim), get_local_entity_index (victim));
; 1935 : 
; 1936 : 			#endif
; 1937 : 
; 1938 : 			break;

  01b85	e9 3b 1a 00 00	 jmp	 $LN2@transmit_e
$LN142@transmit_e:

; 1939 : 		}
; 1940 : 		////////////////////////////////////////
; 1941 : 		case ENTITY_COMMS_PLAYER_TASK_COMPLETED:
; 1942 : 		////////////////////////////////////////
; 1943 : 		{
; 1944 : 			entity
; 1945 : 				*task;
; 1946 : 
; 1947 : 			//
; 1948 : 			// (entity_comms_messages message, entity *en, entity *task)
; 1949 : 			//
; 1950 : 
; 1951 : 			ASSERT (en);

  01b8a	83 7d 0c 00	 cmp	 DWORD PTR _en$[ebp], 0
  01b8e	75 1a		 jne	 SHORT $LN143@transmit_e
  01b90	a1 00 00 00 00	 mov	 eax, DWORD PTR ?__LINE__Var@?0??transmit_entity_comms_message@@YAXW4ENTITY_COMMS_MESSAGES@@PAUENTITY@@ZZ@4JA
  01b95	05 c6 05 00 00	 add	 eax, 1478		; 000005c6H
  01b9a	50		 push	 eax
  01b9b	68 00 00 00 00	 push	 OFFSET ??_C@_0EO@OCMIKFBI@c?3?2users?2nhv90?2projects?2eech?2ap@
  01ba0	68 00 00 00 00	 push	 OFFSET ??_C@_02LFNMGJAP@en@
  01ba5	e8 00 00 00 00	 call	 ?process_assert@@YGXPBD0H@Z ; process_assert
$LN143@transmit_e:

; 1952 : 
; 1953 : 			task = va_arg (pargs, entity *);

  01baa	8b 45 fc	 mov	 eax, DWORD PTR _pargs$[ebp]
  01bad	83 c0 04	 add	 eax, 4
  01bb0	89 45 fc	 mov	 DWORD PTR _pargs$[ebp], eax
  01bb3	8b 4d fc	 mov	 ecx, DWORD PTR _pargs$[ebp]
  01bb6	8b 51 fc	 mov	 edx, DWORD PTR [ecx-4]
  01bb9	89 95 60 fe ff
	ff		 mov	 DWORD PTR _task$38[ebp], edx

; 1954 : 
; 1955 : 			pack_entity_safe_ptr (en);

  01bbf	8b 45 0c	 mov	 eax, DWORD PTR _en$[ebp]
  01bc2	50		 push	 eax
  01bc3	e8 00 00 00 00	 call	 ?pack_entity_safe_ptr@@YGXPAUENTITY@@@Z ; pack_entity_safe_ptr

; 1956 : 
; 1957 : 			pack_entity_safe_ptr (task);

  01bc8	8b 85 60 fe ff
	ff		 mov	 eax, DWORD PTR _task$38[ebp]
  01bce	50		 push	 eax
  01bcf	e8 00 00 00 00	 call	 ?pack_entity_safe_ptr@@YGXPAUENTITY@@@Z ; pack_entity_safe_ptr

; 1958 : 
; 1959 : //			#if DEBUG_MODULE_MESSAGE_TEXT
; 1960 : 
; 1961 : 			debug_log ("EN_COMMS: sending player task %s (%d) completed for %s (%d)",

  01bd4	83 7d 0c 00	 cmp	 DWORD PTR _en$[ebp], 0
  01bd8	74 14		 je	 SHORT $LN244@transmit_e
  01bda	8b 45 0c	 mov	 eax, DWORD PTR _en$[ebp]
  01bdd	2b 05 00 00 00
	00		 sub	 eax, DWORD PTR ?entities@@3PAUENTITY@@A ; entities
  01be3	c1 f8 04	 sar	 eax, 4
  01be6	89 85 44 fd ff
	ff		 mov	 DWORD PTR tv1078[ebp], eax
  01bec	eb 0a		 jmp	 SHORT $LN245@transmit_e
$LN244@transmit_e:
  01bee	c7 85 44 fd ff
	ff ff ff ff ff	 mov	 DWORD PTR tv1078[ebp], -1
$LN245@transmit_e:
  01bf8	83 7d 0c 00	 cmp	 DWORD PTR _en$[ebp], 0
  01bfc	74 0d		 je	 SHORT $LN246@transmit_e
  01bfe	8b 4d 0c	 mov	 ecx, DWORD PTR _en$[ebp]
  01c01	8b 11		 mov	 edx, DWORD PTR [ecx]
  01c03	89 95 40 fd ff
	ff		 mov	 DWORD PTR tv1086[ebp], edx
  01c09	eb 26		 jmp	 SHORT $LN247@transmit_e
$LN246@transmit_e:
  01c0b	a1 00 00 00 00	 mov	 eax, DWORD PTR ?__LINE__Var@?0??transmit_entity_comms_message@@YAXW4ENTITY_COMMS_MESSAGES@@PAUENTITY@@ZZ@4JA
  01c10	05 d3 05 00 00	 add	 eax, 1491		; 000005d3H
  01c15	50		 push	 eax
  01c16	68 00 00 00 00	 push	 OFFSET ??_C@_0EO@OCMIKFBI@c?3?2users?2nhv90?2projects?2eech?2ap@
  01c1b	8b 0d 00 00 00
	00		 mov	 ecx, DWORD PTR ?null_entity_pointer_message@@3PBDB ; null_entity_pointer_message
  01c21	51		 push	 ecx
  01c22	e8 00 00 00 00	 call	 ?process_assert@@YGXPBD0H@Z ; process_assert
  01c27	c7 85 40 fd ff
	ff 00 00 00 00	 mov	 DWORD PTR tv1086[ebp], 0
$LN247@transmit_e:
  01c31	ba 01 00 00 00	 mov	 edx, 1
  01c36	85 d2		 test	 edx, edx
  01c38	74 0c		 je	 SHORT $LN248@transmit_e
  01c3a	c7 85 3c fd ff
	ff 03 00 00 00	 mov	 DWORD PTR tv1094[ebp], 3
  01c44	eb 26		 jmp	 SHORT $LN249@transmit_e
$LN248@transmit_e:
  01c46	a1 00 00 00 00	 mov	 eax, DWORD PTR ?__LINE__Var@?0??transmit_entity_comms_message@@YAXW4ENTITY_COMMS_MESSAGES@@PAUENTITY@@ZZ@4JA
  01c4b	05 d3 05 00 00	 add	 eax, 1491		; 000005d3H
  01c50	50		 push	 eax
  01c51	68 00 00 00 00	 push	 OFFSET ??_C@_0EO@OCMIKFBI@c?3?2users?2nhv90?2projects?2eech?2ap@
  01c56	8b 0d 00 00 00
	00		 mov	 ecx, DWORD PTR ?overload_invalid_string_type_message@@3PBDB ; overload_invalid_string_type_message
  01c5c	51		 push	 ecx
  01c5d	e8 00 00 00 00	 call	 ?process_assert@@YGXPBD0H@Z ; process_assert
  01c62	c7 85 3c fd ff
	ff 00 00 00 00	 mov	 DWORD PTR tv1094[ebp], 0
$LN249@transmit_e:
  01c6c	83 bd 60 fe ff
	ff 00		 cmp	 DWORD PTR _task$38[ebp], 0
  01c73	74 17		 je	 SHORT $LN250@transmit_e
  01c75	8b 95 60 fe ff
	ff		 mov	 edx, DWORD PTR _task$38[ebp]
  01c7b	2b 15 00 00 00
	00		 sub	 edx, DWORD PTR ?entities@@3PAUENTITY@@A ; entities
  01c81	c1 fa 04	 sar	 edx, 4
  01c84	89 95 38 fd ff
	ff		 mov	 DWORD PTR tv1104[ebp], edx
  01c8a	eb 0a		 jmp	 SHORT $LN251@transmit_e
$LN250@transmit_e:
  01c8c	c7 85 38 fd ff
	ff ff ff ff ff	 mov	 DWORD PTR tv1104[ebp], -1
$LN251@transmit_e:
  01c96	83 bd 60 fe ff
	ff 00		 cmp	 DWORD PTR _task$38[ebp], 0
  01c9d	74 10		 je	 SHORT $LN252@transmit_e
  01c9f	8b 85 60 fe ff
	ff		 mov	 eax, DWORD PTR _task$38[ebp]
  01ca5	8b 08		 mov	 ecx, DWORD PTR [eax]
  01ca7	89 8d 34 fd ff
	ff		 mov	 DWORD PTR tv1112[ebp], ecx
  01cad	eb 27		 jmp	 SHORT $LN253@transmit_e
$LN252@transmit_e:
  01caf	8b 15 00 00 00
	00		 mov	 edx, DWORD PTR ?__LINE__Var@?0??transmit_entity_comms_message@@YAXW4ENTITY_COMMS_MESSAGES@@PAUENTITY@@ZZ@4JA
  01cb5	81 c2 d1 05 00
	00		 add	 edx, 1489		; 000005d1H
  01cbb	52		 push	 edx
  01cbc	68 00 00 00 00	 push	 OFFSET ??_C@_0EO@OCMIKFBI@c?3?2users?2nhv90?2projects?2eech?2ap@
  01cc1	a1 00 00 00 00	 mov	 eax, DWORD PTR ?null_entity_pointer_message@@3PBDB ; null_entity_pointer_message
  01cc6	50		 push	 eax
  01cc7	e8 00 00 00 00	 call	 ?process_assert@@YGXPBD0H@Z ; process_assert
  01ccc	c7 85 34 fd ff
	ff 00 00 00 00	 mov	 DWORD PTR tv1112[ebp], 0
$LN253@transmit_e:
  01cd6	b9 01 00 00 00	 mov	 ecx, 1
  01cdb	85 c9		 test	 ecx, ecx
  01cdd	74 0c		 je	 SHORT $LN254@transmit_e
  01cdf	c7 85 30 fd ff
	ff 03 00 00 00	 mov	 DWORD PTR tv1120[ebp], 3
  01ce9	eb 27		 jmp	 SHORT $LN255@transmit_e
$LN254@transmit_e:
  01ceb	8b 15 00 00 00
	00		 mov	 edx, DWORD PTR ?__LINE__Var@?0??transmit_entity_comms_message@@YAXW4ENTITY_COMMS_MESSAGES@@PAUENTITY@@ZZ@4JA
  01cf1	81 c2 d1 05 00
	00		 add	 edx, 1489		; 000005d1H
  01cf7	52		 push	 edx
  01cf8	68 00 00 00 00	 push	 OFFSET ??_C@_0EO@OCMIKFBI@c?3?2users?2nhv90?2projects?2eech?2ap@
  01cfd	a1 00 00 00 00	 mov	 eax, DWORD PTR ?overload_invalid_string_type_message@@3PBDB ; overload_invalid_string_type_message
  01d02	50		 push	 eax
  01d03	e8 00 00 00 00	 call	 ?process_assert@@YGXPBD0H@Z ; process_assert
  01d08	c7 85 30 fd ff
	ff 00 00 00 00	 mov	 DWORD PTR tv1120[ebp], 0
$LN255@transmit_e:
  01d12	8b 8d 44 fd ff
	ff		 mov	 ecx, DWORD PTR tv1078[ebp]
  01d18	51		 push	 ecx
  01d19	6a 03		 push	 3
  01d1b	8b 55 0c	 mov	 edx, DWORD PTR _en$[ebp]
  01d1e	52		 push	 edx
  01d1f	6b 85 40 fd ff
	ff 34		 imul	 eax, DWORD PTR tv1086[ebp], 52
  01d26	8b 8d 3c fd ff
	ff		 mov	 ecx, DWORD PTR tv1094[ebp]
  01d2c	8b 94 88 00 00
	00 00		 mov	 edx, DWORD PTR ?fn_get_local_entity_string@@3PAY0N@P6GPBDPAUENTITY@@W4STRING_TYPES@@@ZA[eax+ecx*4]
  01d33	ff d2		 call	 edx
  01d35	50		 push	 eax
  01d36	8b 85 38 fd ff
	ff		 mov	 eax, DWORD PTR tv1104[ebp]
  01d3c	50		 push	 eax
  01d3d	6a 03		 push	 3
  01d3f	8b 8d 60 fe ff
	ff		 mov	 ecx, DWORD PTR _task$38[ebp]
  01d45	51		 push	 ecx
  01d46	6b 95 34 fd ff
	ff 34		 imul	 edx, DWORD PTR tv1112[ebp], 52
  01d4d	8b 85 30 fd ff
	ff		 mov	 eax, DWORD PTR tv1120[ebp]
  01d53	8b 8c 82 00 00
	00 00		 mov	 ecx, DWORD PTR ?fn_get_local_entity_string@@3PAY0N@P6GPBDPAUENTITY@@W4STRING_TYPES@@@ZA[edx+eax*4]
  01d5a	ff d1		 call	 ecx
  01d5c	50		 push	 eax
  01d5d	68 00 00 00 00	 push	 OFFSET ??_C@_0DM@IPDNEBDA@EN_COMMS?3?5sending?5player?5task?5?$CF@
  01d62	e8 00 00 00 00	 call	 ?debug_log@@YAXPBDZZ	; debug_log
  01d67	83 c4 14	 add	 esp, 20			; 00000014H

; 1962 : 							get_local_entity_string (task, STRING_TYPE_FULL_NAME),
; 1963 : 							get_local_entity_safe_index (task),
; 1964 : 							get_local_entity_string (en, STRING_TYPE_FULL_NAME),
; 1965 : 							get_local_entity_safe_index (en));
; 1966 : 
; 1967 : //			#endif
; 1968 : 
; 1969 : 			break;

  01d6a	e9 56 18 00 00	 jmp	 $LN2@transmit_e
$LN144@transmit_e:

; 1970 : 		}
; 1971 : 		////////////////////////////////////////
; 1972 : 		case ENTITY_COMMS_PLAYER_TASK_TERMINATED:
; 1973 : 		////////////////////////////////////////
; 1974 : 		{
; 1975 : 
; 1976 : 			entity
; 1977 : 				*task;
; 1978 : 
; 1979 : 			//
; 1980 : 			// (entity_comms_messages message, entity *en, entity *task)
; 1981 : 			//
; 1982 : 
; 1983 : 			ASSERT (en);

  01d6f	83 7d 0c 00	 cmp	 DWORD PTR _en$[ebp], 0
  01d73	75 1a		 jne	 SHORT $LN145@transmit_e
  01d75	a1 00 00 00 00	 mov	 eax, DWORD PTR ?__LINE__Var@?0??transmit_entity_comms_message@@YAXW4ENTITY_COMMS_MESSAGES@@PAUENTITY@@ZZ@4JA
  01d7a	05 e6 05 00 00	 add	 eax, 1510		; 000005e6H
  01d7f	50		 push	 eax
  01d80	68 00 00 00 00	 push	 OFFSET ??_C@_0EO@OCMIKFBI@c?3?2users?2nhv90?2projects?2eech?2ap@
  01d85	68 00 00 00 00	 push	 OFFSET ??_C@_02LFNMGJAP@en@
  01d8a	e8 00 00 00 00	 call	 ?process_assert@@YGXPBD0H@Z ; process_assert
$LN145@transmit_e:

; 1984 : 
; 1985 : 			task = va_arg (pargs, entity *);

  01d8f	8b 45 fc	 mov	 eax, DWORD PTR _pargs$[ebp]
  01d92	83 c0 04	 add	 eax, 4
  01d95	89 45 fc	 mov	 DWORD PTR _pargs$[ebp], eax
  01d98	8b 4d fc	 mov	 ecx, DWORD PTR _pargs$[ebp]
  01d9b	8b 51 fc	 mov	 edx, DWORD PTR [ecx-4]
  01d9e	89 95 5c fe ff
	ff		 mov	 DWORD PTR _task$37[ebp], edx

; 1986 : 
; 1987 : 			pack_entity_safe_ptr (en);

  01da4	8b 45 0c	 mov	 eax, DWORD PTR _en$[ebp]
  01da7	50		 push	 eax
  01da8	e8 00 00 00 00	 call	 ?pack_entity_safe_ptr@@YGXPAUENTITY@@@Z ; pack_entity_safe_ptr

; 1988 : 
; 1989 : 			pack_entity_safe_ptr (task);

  01dad	8b 85 5c fe ff
	ff		 mov	 eax, DWORD PTR _task$37[ebp]
  01db3	50		 push	 eax
  01db4	e8 00 00 00 00	 call	 ?pack_entity_safe_ptr@@YGXPAUENTITY@@@Z ; pack_entity_safe_ptr

; 1990 : 
; 1991 : //			#if DEBUG_MODULE_MESSAGE_TEXT
; 1992 : 
; 1993 : 			debug_log ("EN_COMMS: sending player task %s (%d) terminated for %s (%d)",

  01db9	83 7d 0c 00	 cmp	 DWORD PTR _en$[ebp], 0
  01dbd	74 14		 je	 SHORT $LN256@transmit_e
  01dbf	8b 45 0c	 mov	 eax, DWORD PTR _en$[ebp]
  01dc2	2b 05 00 00 00
	00		 sub	 eax, DWORD PTR ?entities@@3PAUENTITY@@A ; entities
  01dc8	c1 f8 04	 sar	 eax, 4
  01dcb	89 85 44 fd ff
	ff		 mov	 DWORD PTR tv1140[ebp], eax
  01dd1	eb 0a		 jmp	 SHORT $LN257@transmit_e
$LN256@transmit_e:
  01dd3	c7 85 44 fd ff
	ff ff ff ff ff	 mov	 DWORD PTR tv1140[ebp], -1
$LN257@transmit_e:
  01ddd	83 7d 0c 00	 cmp	 DWORD PTR _en$[ebp], 0
  01de1	74 0d		 je	 SHORT $LN258@transmit_e
  01de3	8b 4d 0c	 mov	 ecx, DWORD PTR _en$[ebp]
  01de6	8b 11		 mov	 edx, DWORD PTR [ecx]
  01de8	89 95 40 fd ff
	ff		 mov	 DWORD PTR tv1148[ebp], edx
  01dee	eb 26		 jmp	 SHORT $LN259@transmit_e
$LN258@transmit_e:
  01df0	a1 00 00 00 00	 mov	 eax, DWORD PTR ?__LINE__Var@?0??transmit_entity_comms_message@@YAXW4ENTITY_COMMS_MESSAGES@@PAUENTITY@@ZZ@4JA
  01df5	05 f3 05 00 00	 add	 eax, 1523		; 000005f3H
  01dfa	50		 push	 eax
  01dfb	68 00 00 00 00	 push	 OFFSET ??_C@_0EO@OCMIKFBI@c?3?2users?2nhv90?2projects?2eech?2ap@
  01e00	8b 0d 00 00 00
	00		 mov	 ecx, DWORD PTR ?null_entity_pointer_message@@3PBDB ; null_entity_pointer_message
  01e06	51		 push	 ecx
  01e07	e8 00 00 00 00	 call	 ?process_assert@@YGXPBD0H@Z ; process_assert
  01e0c	c7 85 40 fd ff
	ff 00 00 00 00	 mov	 DWORD PTR tv1148[ebp], 0
$LN259@transmit_e:
  01e16	ba 01 00 00 00	 mov	 edx, 1
  01e1b	85 d2		 test	 edx, edx
  01e1d	74 0c		 je	 SHORT $LN260@transmit_e
  01e1f	c7 85 3c fd ff
	ff 03 00 00 00	 mov	 DWORD PTR tv1156[ebp], 3
  01e29	eb 26		 jmp	 SHORT $LN261@transmit_e
$LN260@transmit_e:
  01e2b	a1 00 00 00 00	 mov	 eax, DWORD PTR ?__LINE__Var@?0??transmit_entity_comms_message@@YAXW4ENTITY_COMMS_MESSAGES@@PAUENTITY@@ZZ@4JA
  01e30	05 f3 05 00 00	 add	 eax, 1523		; 000005f3H
  01e35	50		 push	 eax
  01e36	68 00 00 00 00	 push	 OFFSET ??_C@_0EO@OCMIKFBI@c?3?2users?2nhv90?2projects?2eech?2ap@
  01e3b	8b 0d 00 00 00
	00		 mov	 ecx, DWORD PTR ?overload_invalid_string_type_message@@3PBDB ; overload_invalid_string_type_message
  01e41	51		 push	 ecx
  01e42	e8 00 00 00 00	 call	 ?process_assert@@YGXPBD0H@Z ; process_assert
  01e47	c7 85 3c fd ff
	ff 00 00 00 00	 mov	 DWORD PTR tv1156[ebp], 0
$LN261@transmit_e:
  01e51	83 bd 5c fe ff
	ff 00		 cmp	 DWORD PTR _task$37[ebp], 0
  01e58	74 17		 je	 SHORT $LN262@transmit_e
  01e5a	8b 95 5c fe ff
	ff		 mov	 edx, DWORD PTR _task$37[ebp]
  01e60	2b 15 00 00 00
	00		 sub	 edx, DWORD PTR ?entities@@3PAUENTITY@@A ; entities
  01e66	c1 fa 04	 sar	 edx, 4
  01e69	89 95 38 fd ff
	ff		 mov	 DWORD PTR tv1166[ebp], edx
  01e6f	eb 0a		 jmp	 SHORT $LN263@transmit_e
$LN262@transmit_e:
  01e71	c7 85 38 fd ff
	ff ff ff ff ff	 mov	 DWORD PTR tv1166[ebp], -1
$LN263@transmit_e:
  01e7b	83 bd 5c fe ff
	ff 00		 cmp	 DWORD PTR _task$37[ebp], 0
  01e82	74 10		 je	 SHORT $LN264@transmit_e
  01e84	8b 85 5c fe ff
	ff		 mov	 eax, DWORD PTR _task$37[ebp]
  01e8a	8b 08		 mov	 ecx, DWORD PTR [eax]
  01e8c	89 8d 34 fd ff
	ff		 mov	 DWORD PTR tv1174[ebp], ecx
  01e92	eb 27		 jmp	 SHORT $LN265@transmit_e
$LN264@transmit_e:
  01e94	8b 15 00 00 00
	00		 mov	 edx, DWORD PTR ?__LINE__Var@?0??transmit_entity_comms_message@@YAXW4ENTITY_COMMS_MESSAGES@@PAUENTITY@@ZZ@4JA
  01e9a	81 c2 f1 05 00
	00		 add	 edx, 1521		; 000005f1H
  01ea0	52		 push	 edx
  01ea1	68 00 00 00 00	 push	 OFFSET ??_C@_0EO@OCMIKFBI@c?3?2users?2nhv90?2projects?2eech?2ap@
  01ea6	a1 00 00 00 00	 mov	 eax, DWORD PTR ?null_entity_pointer_message@@3PBDB ; null_entity_pointer_message
  01eab	50		 push	 eax
  01eac	e8 00 00 00 00	 call	 ?process_assert@@YGXPBD0H@Z ; process_assert
  01eb1	c7 85 34 fd ff
	ff 00 00 00 00	 mov	 DWORD PTR tv1174[ebp], 0
$LN265@transmit_e:
  01ebb	b9 01 00 00 00	 mov	 ecx, 1
  01ec0	85 c9		 test	 ecx, ecx
  01ec2	74 0c		 je	 SHORT $LN266@transmit_e
  01ec4	c7 85 30 fd ff
	ff 03 00 00 00	 mov	 DWORD PTR tv1182[ebp], 3
  01ece	eb 27		 jmp	 SHORT $LN267@transmit_e
$LN266@transmit_e:
  01ed0	8b 15 00 00 00
	00		 mov	 edx, DWORD PTR ?__LINE__Var@?0??transmit_entity_comms_message@@YAXW4ENTITY_COMMS_MESSAGES@@PAUENTITY@@ZZ@4JA
  01ed6	81 c2 f1 05 00
	00		 add	 edx, 1521		; 000005f1H
  01edc	52		 push	 edx
  01edd	68 00 00 00 00	 push	 OFFSET ??_C@_0EO@OCMIKFBI@c?3?2users?2nhv90?2projects?2eech?2ap@
  01ee2	a1 00 00 00 00	 mov	 eax, DWORD PTR ?overload_invalid_string_type_message@@3PBDB ; overload_invalid_string_type_message
  01ee7	50		 push	 eax
  01ee8	e8 00 00 00 00	 call	 ?process_assert@@YGXPBD0H@Z ; process_assert
  01eed	c7 85 30 fd ff
	ff 00 00 00 00	 mov	 DWORD PTR tv1182[ebp], 0
$LN267@transmit_e:
  01ef7	8b 8d 44 fd ff
	ff		 mov	 ecx, DWORD PTR tv1140[ebp]
  01efd	51		 push	 ecx
  01efe	6a 03		 push	 3
  01f00	8b 55 0c	 mov	 edx, DWORD PTR _en$[ebp]
  01f03	52		 push	 edx
  01f04	6b 85 40 fd ff
	ff 34		 imul	 eax, DWORD PTR tv1148[ebp], 52
  01f0b	8b 8d 3c fd ff
	ff		 mov	 ecx, DWORD PTR tv1156[ebp]
  01f11	8b 94 88 00 00
	00 00		 mov	 edx, DWORD PTR ?fn_get_local_entity_string@@3PAY0N@P6GPBDPAUENTITY@@W4STRING_TYPES@@@ZA[eax+ecx*4]
  01f18	ff d2		 call	 edx
  01f1a	50		 push	 eax
  01f1b	8b 85 38 fd ff
	ff		 mov	 eax, DWORD PTR tv1166[ebp]
  01f21	50		 push	 eax
  01f22	6a 03		 push	 3
  01f24	8b 8d 5c fe ff
	ff		 mov	 ecx, DWORD PTR _task$37[ebp]
  01f2a	51		 push	 ecx
  01f2b	6b 95 34 fd ff
	ff 34		 imul	 edx, DWORD PTR tv1174[ebp], 52
  01f32	8b 85 30 fd ff
	ff		 mov	 eax, DWORD PTR tv1182[ebp]
  01f38	8b 8c 82 00 00
	00 00		 mov	 ecx, DWORD PTR ?fn_get_local_entity_string@@3PAY0N@P6GPBDPAUENTITY@@W4STRING_TYPES@@@ZA[edx+eax*4]
  01f3f	ff d1		 call	 ecx
  01f41	50		 push	 eax
  01f42	68 00 00 00 00	 push	 OFFSET ??_C@_0DN@IGCFFEGL@EN_COMMS?3?5sending?5player?5task?5?$CF@
  01f47	e8 00 00 00 00	 call	 ?debug_log@@YAXPBDZZ	; debug_log
  01f4c	83 c4 14	 add	 esp, 20			; 00000014H

; 1994 : 							get_local_entity_string (task, STRING_TYPE_FULL_NAME),
; 1995 : 							get_local_entity_safe_index (task),
; 1996 : 							get_local_entity_string (en, STRING_TYPE_FULL_NAME),
; 1997 : 							get_local_entity_safe_index (en));
; 1998 : 
; 1999 : //			#endif
; 2000 : 
; 2001 : 			break;

  01f4f	e9 71 16 00 00	 jmp	 $LN2@transmit_e
$LN146@transmit_e:

; 2002 : 		}
; 2003 : 		////////////////////////////////////////
; 2004 : 		case ENTITY_COMMS_RADIO_MESSAGE:
; 2005 : 		////////////////////////////////////////
; 2006 : 		{
; 2007 : 
; 2008 : 			int
; 2009 : 				message_type,
; 2010 : 				message_value;
; 2011 : 
; 2012 : 			//
; 2013 : 			// (entity_comms_messages message, entity *en, int message_type, int message_value)
; 2014 : 			//
; 2015 : 
; 2016 : 			ASSERT (en);

  01f54	83 7d 0c 00	 cmp	 DWORD PTR _en$[ebp], 0
  01f58	75 1a		 jne	 SHORT $LN147@transmit_e
  01f5a	a1 00 00 00 00	 mov	 eax, DWORD PTR ?__LINE__Var@?0??transmit_entity_comms_message@@YAXW4ENTITY_COMMS_MESSAGES@@PAUENTITY@@ZZ@4JA
  01f5f	05 07 06 00 00	 add	 eax, 1543		; 00000607H
  01f64	50		 push	 eax
  01f65	68 00 00 00 00	 push	 OFFSET ??_C@_0EO@OCMIKFBI@c?3?2users?2nhv90?2projects?2eech?2ap@
  01f6a	68 00 00 00 00	 push	 OFFSET ??_C@_02LFNMGJAP@en@
  01f6f	e8 00 00 00 00	 call	 ?process_assert@@YGXPBD0H@Z ; process_assert
$LN147@transmit_e:

; 2017 : 
; 2018 : 			message_type = va_arg (pargs, int);

  01f74	8b 45 fc	 mov	 eax, DWORD PTR _pargs$[ebp]
  01f77	83 c0 04	 add	 eax, 4
  01f7a	89 45 fc	 mov	 DWORD PTR _pargs$[ebp], eax
  01f7d	8b 4d fc	 mov	 ecx, DWORD PTR _pargs$[ebp]
  01f80	8b 51 fc	 mov	 edx, DWORD PTR [ecx-4]
  01f83	89 95 58 fe ff
	ff		 mov	 DWORD PTR _message_type$36[ebp], edx

; 2019 : 
; 2020 : 			message_value = va_arg (pargs, int);

  01f89	8b 45 fc	 mov	 eax, DWORD PTR _pargs$[ebp]
  01f8c	83 c0 04	 add	 eax, 4
  01f8f	89 45 fc	 mov	 DWORD PTR _pargs$[ebp], eax
  01f92	8b 4d fc	 mov	 ecx, DWORD PTR _pargs$[ebp]
  01f95	8b 51 fc	 mov	 edx, DWORD PTR [ecx-4]
  01f98	89 95 54 fe ff
	ff		 mov	 DWORD PTR _message_value$35[ebp], edx

; 2021 : 
; 2022 : 			pack_entity_safe_ptr (en);

  01f9e	8b 45 0c	 mov	 eax, DWORD PTR _en$[ebp]
  01fa1	50		 push	 eax
  01fa2	e8 00 00 00 00	 call	 ?pack_entity_safe_ptr@@YGXPAUENTITY@@@Z ; pack_entity_safe_ptr

; 2023 : 
; 2024 : 			pack_int_value (en, INT_TYPE_RADIO_MESSAGE_TYPE, message_type);

  01fa7	8b 85 58 fe ff
	ff		 mov	 eax, DWORD PTR _message_type$36[ebp]
  01fad	50		 push	 eax
  01fae	68 aa 00 00 00	 push	 170			; 000000aaH
  01fb3	8b 4d 0c	 mov	 ecx, DWORD PTR _en$[ebp]
  01fb6	51		 push	 ecx
  01fb7	e8 00 00 00 00	 call	 ?pack_int_value@@YGXPAUENTITY@@W4INT_TYPES@@H@Z ; pack_int_value

; 2025 : 
; 2026 : 			pack_int_value (en, INT_TYPE_RADIO_MESSAGE_VALUE, message_value);

  01fbc	8b 85 54 fe ff
	ff		 mov	 eax, DWORD PTR _message_value$35[ebp]
  01fc2	50		 push	 eax
  01fc3	68 ab 00 00 00	 push	 171			; 000000abH
  01fc8	8b 4d 0c	 mov	 ecx, DWORD PTR _en$[ebp]
  01fcb	51		 push	 ecx
  01fcc	e8 00 00 00 00	 call	 ?pack_int_value@@YGXPAUENTITY@@W4INT_TYPES@@H@Z ; pack_int_value

; 2027 : 
; 2028 : 			#if DEBUG_MODULE_MESSAGE_TEXT
; 2029 : 
; 2030 : 			debug_log ("EN_COMMS: sending radio message for %s (%d)", get_local_entity_type_name (en), get_local_entity_index (en));
; 2031 : 
; 2032 : 			#endif
; 2033 : 
; 2034 : 			break;

  01fd1	e9 ef 15 00 00	 jmp	 $LN2@transmit_e
$LN148@transmit_e:

; 2035 : 		}
; 2036 : 		////////////////////////////////////////
; 2037 : 		case ENTITY_COMMS_REPAIR_ANTI_AIRCRAFT_GROUP:
; 2038 : 		////////////////////////////////////////
; 2039 : 		{
; 2040 : 			//
; 2041 : 			// (entity_comms_messages message, entity *en)
; 2042 : 			//
; 2043 : 
; 2044 : 			ASSERT (en);

  01fd6	83 7d 0c 00	 cmp	 DWORD PTR _en$[ebp], 0
  01fda	75 1a		 jne	 SHORT $LN149@transmit_e
  01fdc	a1 00 00 00 00	 mov	 eax, DWORD PTR ?__LINE__Var@?0??transmit_entity_comms_message@@YAXW4ENTITY_COMMS_MESSAGES@@PAUENTITY@@ZZ@4JA
  01fe1	05 23 06 00 00	 add	 eax, 1571		; 00000623H
  01fe6	50		 push	 eax
  01fe7	68 00 00 00 00	 push	 OFFSET ??_C@_0EO@OCMIKFBI@c?3?2users?2nhv90?2projects?2eech?2ap@
  01fec	68 00 00 00 00	 push	 OFFSET ??_C@_02LFNMGJAP@en@
  01ff1	e8 00 00 00 00	 call	 ?process_assert@@YGXPBD0H@Z ; process_assert
$LN149@transmit_e:

; 2045 : 
; 2046 : 			ASSERT (get_local_entity_type (en) == ENTITY_TYPE_GROUP);

  01ff6	83 7d 0c 00	 cmp	 DWORD PTR _en$[ebp], 0
  01ffa	74 0d		 je	 SHORT $LN268@transmit_e
  01ffc	8b 45 0c	 mov	 eax, DWORD PTR _en$[ebp]
  01fff	8b 08		 mov	 ecx, DWORD PTR [eax]
  02001	89 8d 44 fd ff
	ff		 mov	 DWORD PTR tv1217[ebp], ecx
  02007	eb 27		 jmp	 SHORT $LN269@transmit_e
$LN268@transmit_e:
  02009	8b 15 00 00 00
	00		 mov	 edx, DWORD PTR ?__LINE__Var@?0??transmit_entity_comms_message@@YAXW4ENTITY_COMMS_MESSAGES@@PAUENTITY@@ZZ@4JA
  0200f	81 c2 25 06 00
	00		 add	 edx, 1573		; 00000625H
  02015	52		 push	 edx
  02016	68 00 00 00 00	 push	 OFFSET ??_C@_0EO@OCMIKFBI@c?3?2users?2nhv90?2projects?2eech?2ap@
  0201b	a1 00 00 00 00	 mov	 eax, DWORD PTR ?null_entity_pointer_message@@3PBDB ; null_entity_pointer_message
  02020	50		 push	 eax
  02021	e8 00 00 00 00	 call	 ?process_assert@@YGXPBD0H@Z ; process_assert
  02026	c7 85 44 fd ff
	ff 00 00 00 00	 mov	 DWORD PTR tv1217[ebp], 0
$LN269@transmit_e:
  02030	83 bd 44 fd ff
	ff 0c		 cmp	 DWORD PTR tv1217[ebp], 12 ; 0000000cH
  02037	74 1a		 je	 SHORT $LN150@transmit_e
  02039	a1 00 00 00 00	 mov	 eax, DWORD PTR ?__LINE__Var@?0??transmit_entity_comms_message@@YAXW4ENTITY_COMMS_MESSAGES@@PAUENTITY@@ZZ@4JA
  0203e	05 25 06 00 00	 add	 eax, 1573		; 00000625H
  02043	50		 push	 eax
  02044	68 00 00 00 00	 push	 OFFSET ??_C@_0EO@OCMIKFBI@c?3?2users?2nhv90?2projects?2eech?2ap@
  02049	68 00 00 00 00	 push	 OFFSET ??_C@_0DA@LNAMKNMB@get_local_entity_type?5?$CIen?$CJ?5?$DN?$DN?5E@
  0204e	e8 00 00 00 00	 call	 ?process_assert@@YGXPBD0H@Z ; process_assert
$LN150@transmit_e:

; 2047 : 
; 2048 : 			pack_entity_safe_ptr (en);

  02053	8b 45 0c	 mov	 eax, DWORD PTR _en$[ebp]
  02056	50		 push	 eax
  02057	e8 00 00 00 00	 call	 ?pack_entity_safe_ptr@@YGXPAUENTITY@@@Z ; pack_entity_safe_ptr

; 2049 : 
; 2050 : 			#if DEBUG_MODULE_MESSAGE_TEXT
; 2051 : 
; 2052 : 			debug_log ("EN_COMMS: sending Repair AA Group for (%d)", get_local_entity_index (en));
; 2053 : 
; 2054 : 			#endif
; 2055 : 
; 2056 : 			break;

  0205c	e9 64 15 00 00	 jmp	 $LN2@transmit_e
$LN151@transmit_e:

; 2057 : 		}
; 2058 : 		////////////////////////////////////////
; 2059 : 		case ENTITY_COMMS_REPAIR_BRIDGE_ENTITY:
; 2060 : 		////////////////////////////////////////
; 2061 : 		{
; 2062 : 			//
; 2063 : 			// (entity_comms_messages message, entity *en)
; 2064 : 			//
; 2065 : 
; 2066 : 			ASSERT (en);

  02061	83 7d 0c 00	 cmp	 DWORD PTR _en$[ebp], 0
  02065	75 1a		 jne	 SHORT $LN152@transmit_e
  02067	a1 00 00 00 00	 mov	 eax, DWORD PTR ?__LINE__Var@?0??transmit_entity_comms_message@@YAXW4ENTITY_COMMS_MESSAGES@@PAUENTITY@@ZZ@4JA
  0206c	05 39 06 00 00	 add	 eax, 1593		; 00000639H
  02071	50		 push	 eax
  02072	68 00 00 00 00	 push	 OFFSET ??_C@_0EO@OCMIKFBI@c?3?2users?2nhv90?2projects?2eech?2ap@
  02077	68 00 00 00 00	 push	 OFFSET ??_C@_02LFNMGJAP@en@
  0207c	e8 00 00 00 00	 call	 ?process_assert@@YGXPBD0H@Z ; process_assert
$LN152@transmit_e:

; 2067 : 
; 2068 : 			ASSERT (get_local_entity_type (en) == ENTITY_TYPE_BRIDGE);

  02081	83 7d 0c 00	 cmp	 DWORD PTR _en$[ebp], 0
  02085	74 0d		 je	 SHORT $LN270@transmit_e
  02087	8b 45 0c	 mov	 eax, DWORD PTR _en$[ebp]
  0208a	8b 08		 mov	 ecx, DWORD PTR [eax]
  0208c	89 8d 44 fd ff
	ff		 mov	 DWORD PTR tv1235[ebp], ecx
  02092	eb 27		 jmp	 SHORT $LN271@transmit_e
$LN270@transmit_e:
  02094	8b 15 00 00 00
	00		 mov	 edx, DWORD PTR ?__LINE__Var@?0??transmit_entity_comms_message@@YAXW4ENTITY_COMMS_MESSAGES@@PAUENTITY@@ZZ@4JA
  0209a	81 c2 3b 06 00
	00		 add	 edx, 1595		; 0000063bH
  020a0	52		 push	 edx
  020a1	68 00 00 00 00	 push	 OFFSET ??_C@_0EO@OCMIKFBI@c?3?2users?2nhv90?2projects?2eech?2ap@
  020a6	a1 00 00 00 00	 mov	 eax, DWORD PTR ?null_entity_pointer_message@@3PBDB ; null_entity_pointer_message
  020ab	50		 push	 eax
  020ac	e8 00 00 00 00	 call	 ?process_assert@@YGXPBD0H@Z ; process_assert
  020b1	c7 85 44 fd ff
	ff 00 00 00 00	 mov	 DWORD PTR tv1235[ebp], 0
$LN271@transmit_e:
  020bb	83 bd 44 fd ff
	ff 02		 cmp	 DWORD PTR tv1235[ebp], 2
  020c2	74 1a		 je	 SHORT $LN153@transmit_e
  020c4	a1 00 00 00 00	 mov	 eax, DWORD PTR ?__LINE__Var@?0??transmit_entity_comms_message@@YAXW4ENTITY_COMMS_MESSAGES@@PAUENTITY@@ZZ@4JA
  020c9	05 3b 06 00 00	 add	 eax, 1595		; 0000063bH
  020ce	50		 push	 eax
  020cf	68 00 00 00 00	 push	 OFFSET ??_C@_0EO@OCMIKFBI@c?3?2users?2nhv90?2projects?2eech?2ap@
  020d4	68 00 00 00 00	 push	 OFFSET ??_C@_0DB@ENGEBKMD@get_local_entity_type?5?$CIen?$CJ?5?$DN?$DN?5E@
  020d9	e8 00 00 00 00	 call	 ?process_assert@@YGXPBD0H@Z ; process_assert
$LN153@transmit_e:

; 2069 : 
; 2070 : 			pack_entity_safe_ptr (en);

  020de	8b 45 0c	 mov	 eax, DWORD PTR _en$[ebp]
  020e1	50		 push	 eax
  020e2	e8 00 00 00 00	 call	 ?pack_entity_safe_ptr@@YGXPAUENTITY@@@Z ; pack_entity_safe_ptr

; 2071 : 
; 2072 : 			#if DEBUG_MODULE_MESSAGE_TEXT
; 2073 : 
; 2074 : 			debug_log ("EN_COMMS: sending Repair Bridge for (%d)", get_local_entity_index (en));
; 2075 : 
; 2076 : 			#endif
; 2077 : 
; 2078 : 			break;

  020e7	e9 d9 14 00 00	 jmp	 $LN2@transmit_e
$LN154@transmit_e:

; 2079 : 		}
; 2080 : 		////////////////////////////////////////
; 2081 : 		case ENTITY_COMMS_REQUEST_TARGET_LIST:
; 2082 : 		////////////////////////////////////////
; 2083 : 		{
; 2084 : 			entity
; 2085 : 				*destination;
; 2086 : 
; 2087 : 			//
; 2088 : 			// (entity_comms_messages message, entity *en, entity *destination)
; 2089 : 			//
; 2090 : 
; 2091 : 			ASSERT (en);

  020ec	83 7d 0c 00	 cmp	 DWORD PTR _en$[ebp], 0
  020f0	75 1a		 jne	 SHORT $LN155@transmit_e
  020f2	a1 00 00 00 00	 mov	 eax, DWORD PTR ?__LINE__Var@?0??transmit_entity_comms_message@@YAXW4ENTITY_COMMS_MESSAGES@@PAUENTITY@@ZZ@4JA
  020f7	05 52 06 00 00	 add	 eax, 1618		; 00000652H
  020fc	50		 push	 eax
  020fd	68 00 00 00 00	 push	 OFFSET ??_C@_0EO@OCMIKFBI@c?3?2users?2nhv90?2projects?2eech?2ap@
  02102	68 00 00 00 00	 push	 OFFSET ??_C@_02LFNMGJAP@en@
  02107	e8 00 00 00 00	 call	 ?process_assert@@YGXPBD0H@Z ; process_assert
$LN155@transmit_e:

; 2092 : 
; 2093 : 			pack_entity_safe_ptr (en);

  0210c	8b 45 0c	 mov	 eax, DWORD PTR _en$[ebp]
  0210f	50		 push	 eax
  02110	e8 00 00 00 00	 call	 ?pack_entity_safe_ptr@@YGXPAUENTITY@@@Z ; pack_entity_safe_ptr

; 2094 : 
; 2095 : 			destination = va_arg (pargs, entity *);

  02115	8b 45 fc	 mov	 eax, DWORD PTR _pargs$[ebp]
  02118	83 c0 04	 add	 eax, 4
  0211b	89 45 fc	 mov	 DWORD PTR _pargs$[ebp], eax
  0211e	8b 4d fc	 mov	 ecx, DWORD PTR _pargs$[ebp]
  02121	8b 51 fc	 mov	 edx, DWORD PTR [ecx-4]
  02124	89 95 50 fe ff
	ff		 mov	 DWORD PTR _destination$34[ebp], edx

; 2096 : 
; 2097 : 			ASSERT (destination);

  0212a	83 bd 50 fe ff
	ff 00		 cmp	 DWORD PTR _destination$34[ebp], 0
  02131	75 1a		 jne	 SHORT $LN156@transmit_e
  02133	a1 00 00 00 00	 mov	 eax, DWORD PTR ?__LINE__Var@?0??transmit_entity_comms_message@@YAXW4ENTITY_COMMS_MESSAGES@@PAUENTITY@@ZZ@4JA
  02138	05 58 06 00 00	 add	 eax, 1624		; 00000658H
  0213d	50		 push	 eax
  0213e	68 00 00 00 00	 push	 OFFSET ??_C@_0EO@OCMIKFBI@c?3?2users?2nhv90?2projects?2eech?2ap@
  02143	68 00 00 00 00	 push	 OFFSET ??_C@_0M@BLMAJMLK@destination@
  02148	e8 00 00 00 00	 call	 ?process_assert@@YGXPBD0H@Z ; process_assert
$LN156@transmit_e:

; 2098 : 
; 2099 : 			pack_entity_safe_ptr (destination);

  0214d	8b 85 50 fe ff
	ff		 mov	 eax, DWORD PTR _destination$34[ebp]
  02153	50		 push	 eax
  02154	e8 00 00 00 00	 call	 ?pack_entity_safe_ptr@@YGXPAUENTITY@@@Z ; pack_entity_safe_ptr

; 2100 : 
; 2101 : 			#if DEBUG_MODULE_MESSAGE_TEXT
; 2102 : 
; 2103 : 			debug_log ("EN_COMMS: sending request target list from %s (%d) to %s (%d)",
; 2104 : 							get_local_entity_string (en, STRING_TYPE_FULL_NAME), get_local_entity_index (en),
; 2105 : 							get_local_entity_string (destination, STRING_TYPE_FULL_NAME), get_local_entity_index (destination));
; 2106 : 
; 2107 : 			#endif
; 2108 : 
; 2109 : 			break;

  02159	e9 67 14 00 00	 jmp	 $LN2@transmit_e
$LN157@transmit_e:

; 2110 : 		}
; 2111 : 		////////////////////////////////////////
; 2112 : 		case ENTITY_COMMS_RESTORE_ENTITY:
; 2113 : 		////////////////////////////////////////
; 2114 : 		{
; 2115 : 			//
; 2116 : 			// (entity_comms_messages message, entity *en, vec3d *pos, int operational_state)
; 2117 : 			//
; 2118 : 
; 2119 : 			vec3d
; 2120 : 				*pos;
; 2121 : 
; 2122 : 			int
; 2123 : 				operational_state;
; 2124 : 
; 2125 : 			ASSERT (en);

  0215e	83 7d 0c 00	 cmp	 DWORD PTR _en$[ebp], 0
  02162	75 1a		 jne	 SHORT $LN158@transmit_e
  02164	a1 00 00 00 00	 mov	 eax, DWORD PTR ?__LINE__Var@?0??transmit_entity_comms_message@@YAXW4ENTITY_COMMS_MESSAGES@@PAUENTITY@@ZZ@4JA
  02169	05 74 06 00 00	 add	 eax, 1652		; 00000674H
  0216e	50		 push	 eax
  0216f	68 00 00 00 00	 push	 OFFSET ??_C@_0EO@OCMIKFBI@c?3?2users?2nhv90?2projects?2eech?2ap@
  02174	68 00 00 00 00	 push	 OFFSET ??_C@_02LFNMGJAP@en@
  02179	e8 00 00 00 00	 call	 ?process_assert@@YGXPBD0H@Z ; process_assert
$LN158@transmit_e:

; 2126 : 
; 2127 : 			pack_entity_safe_ptr (en);

  0217e	8b 45 0c	 mov	 eax, DWORD PTR _en$[ebp]
  02181	50		 push	 eax
  02182	e8 00 00 00 00	 call	 ?pack_entity_safe_ptr@@YGXPAUENTITY@@@Z ; pack_entity_safe_ptr

; 2128 : 
; 2129 : 			pos = va_arg (pargs, vec3d *);

  02187	8b 45 fc	 mov	 eax, DWORD PTR _pargs$[ebp]
  0218a	83 c0 04	 add	 eax, 4
  0218d	89 45 fc	 mov	 DWORD PTR _pargs$[ebp], eax
  02190	8b 4d fc	 mov	 ecx, DWORD PTR _pargs$[ebp]
  02193	8b 51 fc	 mov	 edx, DWORD PTR [ecx-4]
  02196	89 95 4c fe ff
	ff		 mov	 DWORD PTR _pos$33[ebp], edx

; 2130 : 
; 2131 : 			pack_vec3d (en, VEC3D_TYPE_POSITION, pos);

  0219c	8b 85 4c fe ff
	ff		 mov	 eax, DWORD PTR _pos$33[ebp]
  021a2	50		 push	 eax
  021a3	6a 08		 push	 8
  021a5	8b 4d 0c	 mov	 ecx, DWORD PTR _en$[ebp]
  021a8	51		 push	 ecx
  021a9	e8 00 00 00 00	 call	 ?pack_vec3d@@YGXPAUENTITY@@W4VEC3D_TYPES@@PAUVEC3D@@@Z ; pack_vec3d

; 2132 : 
; 2133 : 			operational_state = va_arg (pargs, int);

  021ae	8b 45 fc	 mov	 eax, DWORD PTR _pargs$[ebp]
  021b1	83 c0 04	 add	 eax, 4
  021b4	89 45 fc	 mov	 DWORD PTR _pargs$[ebp], eax
  021b7	8b 4d fc	 mov	 ecx, DWORD PTR _pargs$[ebp]
  021ba	8b 51 fc	 mov	 edx, DWORD PTR [ecx-4]
  021bd	89 95 48 fe ff
	ff		 mov	 DWORD PTR _operational_state$32[ebp], edx

; 2134 : 
; 2135 : 			pack_int_value (en, INT_TYPE_OPERATIONAL_STATE, operational_state);

  021c3	8b 85 48 fe ff
	ff		 mov	 eax, DWORD PTR _operational_state$32[ebp]
  021c9	50		 push	 eax
  021ca	68 97 00 00 00	 push	 151			; 00000097H
  021cf	8b 4d 0c	 mov	 ecx, DWORD PTR _en$[ebp]
  021d2	51		 push	 ecx
  021d3	e8 00 00 00 00	 call	 ?pack_int_value@@YGXPAUENTITY@@W4INT_TYPES@@H@Z ; pack_int_value

; 2136 : 
; 2137 : 			#if DEBUG_MODULE_MESSAGE_TEXT
; 2138 : 
; 2139 : 			debug_log ("EN_COMMS: sending restore entity for %s (%d)", get_local_entity_type_name (en), get_local_entity_index (en));
; 2140 : 
; 2141 : 			#endif
; 2142 : 
; 2143 : 			break;

  021d8	e9 e8 13 00 00	 jmp	 $LN2@transmit_e
$LN159@transmit_e:

; 2144 : 		}
; 2145 : 		////////////////////////////////////////
; 2146 : 		case ENTITY_COMMS_RESTORE_FIXED_ENTITY:
; 2147 : 		////////////////////////////////////////
; 2148 : 		{
; 2149 : 			//
; 2150 : 			// (entity_comms_messages message, entity *en)
; 2151 : 			//
; 2152 : 
; 2153 : 			ASSERT (en);

  021dd	83 7d 0c 00	 cmp	 DWORD PTR _en$[ebp], 0
  021e1	75 1a		 jne	 SHORT $LN160@transmit_e
  021e3	a1 00 00 00 00	 mov	 eax, DWORD PTR ?__LINE__Var@?0??transmit_entity_comms_message@@YAXW4ENTITY_COMMS_MESSAGES@@PAUENTITY@@ZZ@4JA
  021e8	05 90 06 00 00	 add	 eax, 1680		; 00000690H
  021ed	50		 push	 eax
  021ee	68 00 00 00 00	 push	 OFFSET ??_C@_0EO@OCMIKFBI@c?3?2users?2nhv90?2projects?2eech?2ap@
  021f3	68 00 00 00 00	 push	 OFFSET ??_C@_02LFNMGJAP@en@
  021f8	e8 00 00 00 00	 call	 ?process_assert@@YGXPBD0H@Z ; process_assert
$LN160@transmit_e:

; 2154 : 
; 2155 : 			pack_entity_safe_ptr (en);

  021fd	8b 45 0c	 mov	 eax, DWORD PTR _en$[ebp]
  02200	50		 push	 eax
  02201	e8 00 00 00 00	 call	 ?pack_entity_safe_ptr@@YGXPAUENTITY@@@Z ; pack_entity_safe_ptr

; 2156 : 
; 2157 : 			#if DEBUG_MODULE_MESSAGE_TEXT
; 2158 : 
; 2159 : 			debug_log ("EN_COMMS: sending restore entity for %s (%d)", get_local_entity_type_name (en), get_local_entity_index (en));
; 2160 : 
; 2161 : 			#endif
; 2162 : 
; 2163 : 			break;

  02206	e9 ba 13 00 00	 jmp	 $LN2@transmit_e
$LN161@transmit_e:

; 2164 : 		}
; 2165 : 		////////////////////////////////////////
; 2166 : 		case ENTITY_COMMS_RESUME_SOUND_TYPE:
; 2167 : 		////////////////////////////////////////
; 2168 : 		{
; 2169 : 			entity_sub_types
; 2170 : 				type;
; 2171 : 
; 2172 : 			//
; 2173 : 			// (entity_comms_messages message, entity *en, entity_sub_types type)
; 2174 : 			//
; 2175 : 
; 2176 : 			ASSERT (en);

  0220b	83 7d 0c 00	 cmp	 DWORD PTR _en$[ebp], 0
  0220f	75 1a		 jne	 SHORT $LN162@transmit_e
  02211	a1 00 00 00 00	 mov	 eax, DWORD PTR ?__LINE__Var@?0??transmit_entity_comms_message@@YAXW4ENTITY_COMMS_MESSAGES@@PAUENTITY@@ZZ@4JA
  02216	05 a7 06 00 00	 add	 eax, 1703		; 000006a7H
  0221b	50		 push	 eax
  0221c	68 00 00 00 00	 push	 OFFSET ??_C@_0EO@OCMIKFBI@c?3?2users?2nhv90?2projects?2eech?2ap@
  02221	68 00 00 00 00	 push	 OFFSET ??_C@_02LFNMGJAP@en@
  02226	e8 00 00 00 00	 call	 ?process_assert@@YGXPBD0H@Z ; process_assert
$LN162@transmit_e:

; 2177 : 
; 2178 : 			pack_entity_safe_ptr (en);

  0222b	8b 45 0c	 mov	 eax, DWORD PTR _en$[ebp]
  0222e	50		 push	 eax
  0222f	e8 00 00 00 00	 call	 ?pack_entity_safe_ptr@@YGXPAUENTITY@@@Z ; pack_entity_safe_ptr

; 2179 : 
; 2180 : 			type = va_arg (pargs, int);

  02234	8b 45 fc	 mov	 eax, DWORD PTR _pargs$[ebp]
  02237	83 c0 04	 add	 eax, 4
  0223a	89 45 fc	 mov	 DWORD PTR _pargs$[ebp], eax
  0223d	8b 4d fc	 mov	 ecx, DWORD PTR _pargs$[ebp]
  02240	8b 51 fc	 mov	 edx, DWORD PTR [ecx-4]
  02243	89 95 44 fe ff
	ff		 mov	 DWORD PTR _type$31[ebp], edx

; 2181 : 
; 2182 : 			pack_int_value (en, INT_TYPE_ENTITY_SUB_TYPE, type);

  02249	8b 85 44 fe ff
	ff		 mov	 eax, DWORD PTR _type$31[ebp]
  0224f	50		 push	 eax
  02250	6a 34		 push	 52			; 00000034H
  02252	8b 4d 0c	 mov	 ecx, DWORD PTR _en$[ebp]
  02255	51		 push	 ecx
  02256	e8 00 00 00 00	 call	 ?pack_int_value@@YGXPAUENTITY@@W4INT_TYPES@@H@Z ; pack_int_value

; 2183 : 
; 2184 : 			#if DEBUG_MODULE_MESSAGE_TEXT
; 2185 : 
; 2186 : 			debug_log ("EN_COMMS: sending resume sound type %s for %s (%d)", entity_sub_type_effect_names [type], get_local_entity_type_name (en), get_local_entity_index (en));
; 2187 : 
; 2188 : 			#endif
; 2189 : 
; 2190 : 			break;

  0225b	e9 65 13 00 00	 jmp	 $LN2@transmit_e
$LN163@transmit_e:

; 2191 : 		}
; 2192 : 		////////////////////////////////////////
; 2193 : 		case ENTITY_COMMS_ROUTED_VEHICLE_ROUTE_DATA:
; 2194 : 		////////////////////////////////////////
; 2195 : 		{
; 2196 : 			//
; 2197 : 			// (entity_comms_messages message, entity *en, vec3d *pos, int operational_state)
; 2198 : 			//
; 2199 : 
; 2200 : 			routed_vehicle
; 2201 : 				*raw;
; 2202 : 
; 2203 : 			ASSERT (en);

  02260	83 7d 0c 00	 cmp	 DWORD PTR _en$[ebp], 0
  02264	75 1a		 jne	 SHORT $LN164@transmit_e
  02266	a1 00 00 00 00	 mov	 eax, DWORD PTR ?__LINE__Var@?0??transmit_entity_comms_message@@YAXW4ENTITY_COMMS_MESSAGES@@PAUENTITY@@ZZ@4JA
  0226b	05 c2 06 00 00	 add	 eax, 1730		; 000006c2H
  02270	50		 push	 eax
  02271	68 00 00 00 00	 push	 OFFSET ??_C@_0EO@OCMIKFBI@c?3?2users?2nhv90?2projects?2eech?2ap@
  02276	68 00 00 00 00	 push	 OFFSET ??_C@_02LFNMGJAP@en@
  0227b	e8 00 00 00 00	 call	 ?process_assert@@YGXPBD0H@Z ; process_assert
$LN164@transmit_e:

; 2204 : 
; 2205 : 			pack_entity_safe_ptr (en);

  02280	8b 45 0c	 mov	 eax, DWORD PTR _en$[ebp]
  02283	50		 push	 eax
  02284	e8 00 00 00 00	 call	 ?pack_entity_safe_ptr@@YGXPAUENTITY@@@Z ; pack_entity_safe_ptr

; 2206 : 
; 2207 : 			raw = (routed_vehicle *) get_local_entity_data (en);

  02289	8b 45 0c	 mov	 eax, DWORD PTR _en$[ebp]
  0228c	8b 48 04	 mov	 ecx, DWORD PTR [eax+4]
  0228f	89 8d 40 fe ff
	ff		 mov	 DWORD PTR _raw$30[ebp], ecx

; 2208 : 
; 2209 : 			pack_int_value (en, INT_TYPE_WAYPOINT_THIS_INDEX, raw->waypoint_this_index);

  02295	8b 85 40 fe ff
	ff		 mov	 eax, DWORD PTR _raw$30[ebp]
  0229b	8b 88 7c 01 00
	00		 mov	 ecx, DWORD PTR [eax+380]
  022a1	c1 e9 14	 shr	 ecx, 20			; 00000014H
  022a4	81 e1 ff 03 00
	00		 and	 ecx, 1023		; 000003ffH
  022aa	51		 push	 ecx
  022ab	68 01 01 00 00	 push	 257			; 00000101H
  022b0	8b 55 0c	 mov	 edx, DWORD PTR _en$[ebp]
  022b3	52		 push	 edx
  022b4	e8 00 00 00 00	 call	 ?pack_int_value@@YGXPAUENTITY@@W4INT_TYPES@@H@Z ; pack_int_value

; 2210 : 
; 2211 : 			pack_int_value (en, INT_TYPE_WAYPOINT_NEXT_INDEX, raw->waypoint_next_index);

  022b9	8b 85 40 fe ff
	ff		 mov	 eax, DWORD PTR _raw$30[ebp]
  022bf	8b 88 7c 01 00
	00		 mov	 ecx, DWORD PTR [eax+380]
  022c5	c1 e9 0a	 shr	 ecx, 10			; 0000000aH
  022c8	81 e1 ff 03 00
	00		 and	 ecx, 1023		; 000003ffH
  022ce	51		 push	 ecx
  022cf	68 00 01 00 00	 push	 256			; 00000100H
  022d4	8b 55 0c	 mov	 edx, DWORD PTR _en$[ebp]
  022d7	52		 push	 edx
  022d8	e8 00 00 00 00	 call	 ?pack_int_value@@YGXPAUENTITY@@W4INT_TYPES@@H@Z ; pack_int_value

; 2212 : 
; 2213 : 			#if DEBUG_MODULE_MESSAGE_TEXT
; 2214 : 
; 2215 : 			debug_log ("EN_COMMS: sending routed_vehicle %d route between %d and %d", get_local_entity_index (en), raw->waypoint_this_index, raw->waypoint_next_index);
; 2216 : 
; 2217 : 			#endif
; 2218 : 
; 2219 : 			break;

  022dd	e9 e3 12 00 00	 jmp	 $LN2@transmit_e
$LN165@transmit_e:

; 2220 : 		}
; 2221 : 		////////////////////////////////////////
; 2222 : 		case ENTITY_COMMS_SEND_TARGET_LIST:
; 2223 : 		////////////////////////////////////////
; 2224 : 		{
; 2225 : 			entity
; 2226 : 				*destination;
; 2227 : 
; 2228 : 			int
; 2229 : 				loop,
; 2230 : 				*index_list,
; 2231 : 				target_count;
; 2232 : 
; 2233 : 			//
; 2234 : 			// (entity_comms_messages message, entity *en, entity *destination, int target_count, int index_list [target_count])
; 2235 : 			//
; 2236 : 
; 2237 : 			ASSERT (en);

  022e2	83 7d 0c 00	 cmp	 DWORD PTR _en$[ebp], 0
  022e6	75 1a		 jne	 SHORT $LN166@transmit_e
  022e8	a1 00 00 00 00	 mov	 eax, DWORD PTR ?__LINE__Var@?0??transmit_entity_comms_message@@YAXW4ENTITY_COMMS_MESSAGES@@PAUENTITY@@ZZ@4JA
  022ed	05 e4 06 00 00	 add	 eax, 1764		; 000006e4H
  022f2	50		 push	 eax
  022f3	68 00 00 00 00	 push	 OFFSET ??_C@_0EO@OCMIKFBI@c?3?2users?2nhv90?2projects?2eech?2ap@
  022f8	68 00 00 00 00	 push	 OFFSET ??_C@_02LFNMGJAP@en@
  022fd	e8 00 00 00 00	 call	 ?process_assert@@YGXPBD0H@Z ; process_assert
$LN166@transmit_e:

; 2238 : 
; 2239 : 			pack_entity_safe_ptr (en);

  02302	8b 45 0c	 mov	 eax, DWORD PTR _en$[ebp]
  02305	50		 push	 eax
  02306	e8 00 00 00 00	 call	 ?pack_entity_safe_ptr@@YGXPAUENTITY@@@Z ; pack_entity_safe_ptr

; 2240 : 
; 2241 : 			destination = va_arg (pargs, entity *);

  0230b	8b 45 fc	 mov	 eax, DWORD PTR _pargs$[ebp]
  0230e	83 c0 04	 add	 eax, 4
  02311	89 45 fc	 mov	 DWORD PTR _pargs$[ebp], eax
  02314	8b 4d fc	 mov	 ecx, DWORD PTR _pargs$[ebp]
  02317	8b 51 fc	 mov	 edx, DWORD PTR [ecx-4]
  0231a	89 95 3c fe ff
	ff		 mov	 DWORD PTR _destination$29[ebp], edx

; 2242 : 
; 2243 : 			ASSERT (destination);

  02320	83 bd 3c fe ff
	ff 00		 cmp	 DWORD PTR _destination$29[ebp], 0
  02327	75 1a		 jne	 SHORT $LN167@transmit_e
  02329	a1 00 00 00 00	 mov	 eax, DWORD PTR ?__LINE__Var@?0??transmit_entity_comms_message@@YAXW4ENTITY_COMMS_MESSAGES@@PAUENTITY@@ZZ@4JA
  0232e	05 ea 06 00 00	 add	 eax, 1770		; 000006eaH
  02333	50		 push	 eax
  02334	68 00 00 00 00	 push	 OFFSET ??_C@_0EO@OCMIKFBI@c?3?2users?2nhv90?2projects?2eech?2ap@
  02339	68 00 00 00 00	 push	 OFFSET ??_C@_0M@BLMAJMLK@destination@
  0233e	e8 00 00 00 00	 call	 ?process_assert@@YGXPBD0H@Z ; process_assert
$LN167@transmit_e:

; 2244 : 
; 2245 : 			pack_entity_safe_ptr (destination);

  02343	8b 85 3c fe ff
	ff		 mov	 eax, DWORD PTR _destination$29[ebp]
  02349	50		 push	 eax
  0234a	e8 00 00 00 00	 call	 ?pack_entity_safe_ptr@@YGXPAUENTITY@@@Z ; pack_entity_safe_ptr

; 2246 : 
; 2247 : 			target_count = va_arg (pargs, int);

  0234f	8b 45 fc	 mov	 eax, DWORD PTR _pargs$[ebp]
  02352	83 c0 04	 add	 eax, 4
  02355	89 45 fc	 mov	 DWORD PTR _pargs$[ebp], eax
  02358	8b 4d fc	 mov	 ecx, DWORD PTR _pargs$[ebp]
  0235b	8b 51 fc	 mov	 edx, DWORD PTR [ecx-4]
  0235e	89 95 30 fe ff
	ff		 mov	 DWORD PTR _target_count$26[ebp], edx

; 2248 : 
; 2249 : 			#if DEBUG_MODULE_MESSAGE_TEXT
; 2250 : 
; 2251 : 			debug_log ("EN_COMMS: sending %d targets from %s (%d) to %s (%d)", target_count,
; 2252 : 							get_local_entity_string (en, STRING_TYPE_FULL_NAME), get_local_entity_index (en),
; 2253 : 							get_local_entity_string (destination, STRING_TYPE_FULL_NAME), get_local_entity_index (destination));
; 2254 : 
; 2255 : 			#endif
; 2256 : 
; 2257 : 			ASSERT (target_count > 0);

  02364	83 bd 30 fe ff
	ff 00		 cmp	 DWORD PTR _target_count$26[ebp], 0
  0236b	7f 1a		 jg	 SHORT $LN168@transmit_e
  0236d	a1 00 00 00 00	 mov	 eax, DWORD PTR ?__LINE__Var@?0??transmit_entity_comms_message@@YAXW4ENTITY_COMMS_MESSAGES@@PAUENTITY@@ZZ@4JA
  02372	05 f8 06 00 00	 add	 eax, 1784		; 000006f8H
  02377	50		 push	 eax
  02378	68 00 00 00 00	 push	 OFFSET ??_C@_0EO@OCMIKFBI@c?3?2users?2nhv90?2projects?2eech?2ap@
  0237d	68 00 00 00 00	 push	 OFFSET ??_C@_0BB@OCHIJAA@target_count?5?$DO?50@
  02382	e8 00 00 00 00	 call	 ?process_assert@@YGXPBD0H@Z ; process_assert
$LN168@transmit_e:

; 2258 : 
; 2259 : 			pack_int_value (en, INT_TYPE_HAND_OFF_TARGET_COUNT, target_count);

  02387	8b 85 30 fe ff
	ff		 mov	 eax, DWORD PTR _target_count$26[ebp]
  0238d	50		 push	 eax
  0238e	6a 52		 push	 82			; 00000052H
  02390	8b 4d 0c	 mov	 ecx, DWORD PTR _en$[ebp]
  02393	51		 push	 ecx
  02394	e8 00 00 00 00	 call	 ?pack_int_value@@YGXPAUENTITY@@W4INT_TYPES@@H@Z ; pack_int_value

; 2260 : 
; 2261 : 			index_list = va_arg (pargs, int *);

  02399	8b 45 fc	 mov	 eax, DWORD PTR _pargs$[ebp]
  0239c	83 c0 04	 add	 eax, 4
  0239f	89 45 fc	 mov	 DWORD PTR _pargs$[ebp], eax
  023a2	8b 4d fc	 mov	 ecx, DWORD PTR _pargs$[ebp]
  023a5	8b 51 fc	 mov	 edx, DWORD PTR [ecx-4]
  023a8	89 95 34 fe ff
	ff		 mov	 DWORD PTR _index_list$27[ebp], edx

; 2262 : 
; 2263 : 			ASSERT (index_list);

  023ae	83 bd 34 fe ff
	ff 00		 cmp	 DWORD PTR _index_list$27[ebp], 0
  023b5	75 1a		 jne	 SHORT $LN169@transmit_e
  023b7	a1 00 00 00 00	 mov	 eax, DWORD PTR ?__LINE__Var@?0??transmit_entity_comms_message@@YAXW4ENTITY_COMMS_MESSAGES@@PAUENTITY@@ZZ@4JA
  023bc	05 fe 06 00 00	 add	 eax, 1790		; 000006feH
  023c1	50		 push	 eax
  023c2	68 00 00 00 00	 push	 OFFSET ??_C@_0EO@OCMIKFBI@c?3?2users?2nhv90?2projects?2eech?2ap@
  023c7	68 00 00 00 00	 push	 OFFSET ??_C@_0L@MMBMMAEK@index_list@
  023cc	e8 00 00 00 00	 call	 ?process_assert@@YGXPBD0H@Z ; process_assert
$LN169@transmit_e:

; 2264 : 
; 2265 : 			for (loop = 0; loop < target_count; loop ++)

  023d1	c7 85 38 fe ff
	ff 00 00 00 00	 mov	 DWORD PTR _loop$28[ebp], 0
  023db	eb 0f		 jmp	 SHORT $LN25@transmit_e
$LN23@transmit_e:
  023dd	8b 85 38 fe ff
	ff		 mov	 eax, DWORD PTR _loop$28[ebp]
  023e3	83 c0 01	 add	 eax, 1
  023e6	89 85 38 fe ff
	ff		 mov	 DWORD PTR _loop$28[ebp], eax
$LN25@transmit_e:
  023ec	8b 85 38 fe ff
	ff		 mov	 eax, DWORD PTR _loop$28[ebp]
  023f2	3b 85 30 fe ff
	ff		 cmp	 eax, DWORD PTR _target_count$26[ebp]
  023f8	7d 17		 jge	 SHORT $LN24@transmit_e

; 2266 : 			{
; 2267 : 				pack_entity_safe_index (index_list [loop]);

  023fa	8b 85 38 fe ff
	ff		 mov	 eax, DWORD PTR _loop$28[ebp]
  02400	8b 8d 34 fe ff
	ff		 mov	 ecx, DWORD PTR _index_list$27[ebp]
  02406	8b 14 81	 mov	 edx, DWORD PTR [ecx+eax*4]
  02409	52		 push	 edx
  0240a	e8 00 00 00 00	 call	 ?pack_entity_safe_index@@YGXH@Z ; pack_entity_safe_index

; 2268 : 			}

  0240f	eb cc		 jmp	 SHORT $LN23@transmit_e
$LN24@transmit_e:

; 2269 : 
; 2270 : 			break;

  02411	e9 af 11 00 00	 jmp	 $LN2@transmit_e
$LN170@transmit_e:

; 2271 : 		}
; 2272 : 		////////////////////////////////////////
; 2273 : 		case ENTITY_COMMS_SET_EXTERNAL_VIEW_ENTITY:
; 2274 : 		////////////////////////////////////////
; 2275 : 		{
; 2276 : 			//
; 2277 : 			// (entity_comms_messages message, entity *en)
; 2278 : 			//
; 2279 : 
; 2280 : 			ASSERT (en);

  02416	83 7d 0c 00	 cmp	 DWORD PTR _en$[ebp], 0
  0241a	75 1a		 jne	 SHORT $LN171@transmit_e
  0241c	a1 00 00 00 00	 mov	 eax, DWORD PTR ?__LINE__Var@?0??transmit_entity_comms_message@@YAXW4ENTITY_COMMS_MESSAGES@@PAUENTITY@@ZZ@4JA
  02421	05 0f 07 00 00	 add	 eax, 1807		; 0000070fH
  02426	50		 push	 eax
  02427	68 00 00 00 00	 push	 OFFSET ??_C@_0EO@OCMIKFBI@c?3?2users?2nhv90?2projects?2eech?2ap@
  0242c	68 00 00 00 00	 push	 OFFSET ??_C@_02LFNMGJAP@en@
  02431	e8 00 00 00 00	 call	 ?process_assert@@YGXPBD0H@Z ; process_assert
$LN171@transmit_e:

; 2281 : 
; 2282 : 			pack_entity_safe_ptr (en);

  02436	8b 45 0c	 mov	 eax, DWORD PTR _en$[ebp]
  02439	50		 push	 eax
  0243a	e8 00 00 00 00	 call	 ?pack_entity_safe_ptr@@YGXPAUENTITY@@@Z ; pack_entity_safe_ptr

; 2283 : 
; 2284 : 			#if DEBUG_MODULE
; 2285 : 
; 2286 : 			debug_log ("EN_COMMS: sending set external view entity to %s (%d)", get_local_entity_string (en, STRING_TYPE_FULL_NAME), get_local_entity_index (en));
; 2287 : 
; 2288 : 			#endif
; 2289 : 
; 2290 : 			break;

  0243f	e9 81 11 00 00	 jmp	 $LN2@transmit_e
$LN172@transmit_e:

; 2291 : 		}
; 2292 : 		////////////////////////////////////////
; 2293 : 		case ENTITY_COMMS_SET_GUIDE_CRITERIA:
; 2294 : 		////////////////////////////////////////
; 2295 : 		{
; 2296 : 			//
; 2297 : 			// (entity_comms_messages message, entity *en, int type, int valid, float value)
; 2298 : 			//
; 2299 : 
; 2300 : 			int
; 2301 : 				type,
; 2302 : 				valid;
; 2303 : 
; 2304 : 			float
; 2305 : 				value;
; 2306 : 
; 2307 : 			ASSERT (en);

  02444	83 7d 0c 00	 cmp	 DWORD PTR _en$[ebp], 0
  02448	75 1a		 jne	 SHORT $LN173@transmit_e
  0244a	a1 00 00 00 00	 mov	 eax, DWORD PTR ?__LINE__Var@?0??transmit_entity_comms_message@@YAXW4ENTITY_COMMS_MESSAGES@@PAUENTITY@@ZZ@4JA
  0244f	05 2a 07 00 00	 add	 eax, 1834		; 0000072aH
  02454	50		 push	 eax
  02455	68 00 00 00 00	 push	 OFFSET ??_C@_0EO@OCMIKFBI@c?3?2users?2nhv90?2projects?2eech?2ap@
  0245a	68 00 00 00 00	 push	 OFFSET ??_C@_02LFNMGJAP@en@
  0245f	e8 00 00 00 00	 call	 ?process_assert@@YGXPBD0H@Z ; process_assert
$LN173@transmit_e:

; 2308 : 
; 2309 : 			ASSERT (get_local_entity_type (en) == ENTITY_TYPE_GUIDE);

  02464	83 7d 0c 00	 cmp	 DWORD PTR _en$[ebp], 0
  02468	74 0d		 je	 SHORT $LN272@transmit_e
  0246a	8b 45 0c	 mov	 eax, DWORD PTR _en$[ebp]
  0246d	8b 08		 mov	 ecx, DWORD PTR [eax]
  0246f	89 8d 44 fd ff
	ff		 mov	 DWORD PTR tv1361[ebp], ecx
  02475	eb 27		 jmp	 SHORT $LN273@transmit_e
$LN272@transmit_e:
  02477	8b 15 00 00 00
	00		 mov	 edx, DWORD PTR ?__LINE__Var@?0??transmit_entity_comms_message@@YAXW4ENTITY_COMMS_MESSAGES@@PAUENTITY@@ZZ@4JA
  0247d	81 c2 2c 07 00
	00		 add	 edx, 1836		; 0000072cH
  02483	52		 push	 edx
  02484	68 00 00 00 00	 push	 OFFSET ??_C@_0EO@OCMIKFBI@c?3?2users?2nhv90?2projects?2eech?2ap@
  02489	a1 00 00 00 00	 mov	 eax, DWORD PTR ?null_entity_pointer_message@@3PBDB ; null_entity_pointer_message
  0248e	50		 push	 eax
  0248f	e8 00 00 00 00	 call	 ?process_assert@@YGXPBD0H@Z ; process_assert
  02494	c7 85 44 fd ff
	ff 00 00 00 00	 mov	 DWORD PTR tv1361[ebp], 0
$LN273@transmit_e:
  0249e	83 bd 44 fd ff
	ff 0d		 cmp	 DWORD PTR tv1361[ebp], 13 ; 0000000dH
  024a5	74 1a		 je	 SHORT $LN174@transmit_e
  024a7	a1 00 00 00 00	 mov	 eax, DWORD PTR ?__LINE__Var@?0??transmit_entity_comms_message@@YAXW4ENTITY_COMMS_MESSAGES@@PAUENTITY@@ZZ@4JA
  024ac	05 2c 07 00 00	 add	 eax, 1836		; 0000072cH
  024b1	50		 push	 eax
  024b2	68 00 00 00 00	 push	 OFFSET ??_C@_0EO@OCMIKFBI@c?3?2users?2nhv90?2projects?2eech?2ap@
  024b7	68 00 00 00 00	 push	 OFFSET ??_C@_0DA@BGABFO@get_local_entity_type?5?$CIen?$CJ?5?$DN?$DN?5E@
  024bc	e8 00 00 00 00	 call	 ?process_assert@@YGXPBD0H@Z ; process_assert
$LN174@transmit_e:

; 2310 : 
; 2311 : 			ASSERT (get_comms_model () == COMMS_MODEL_SERVER);

  024c1	83 3d 00 00 00
	00 00		 cmp	 DWORD PTR ?system_comms_model@@3W4COMMS_MODEL_TYPES@@A, 0 ; system_comms_model
  024c8	74 1a		 je	 SHORT $LN175@transmit_e
  024ca	a1 00 00 00 00	 mov	 eax, DWORD PTR ?__LINE__Var@?0??transmit_entity_comms_message@@YAXW4ENTITY_COMMS_MESSAGES@@PAUENTITY@@ZZ@4JA
  024cf	05 2e 07 00 00	 add	 eax, 1838		; 0000072eH
  024d4	50		 push	 eax
  024d5	68 00 00 00 00	 push	 OFFSET ??_C@_0EO@OCMIKFBI@c?3?2users?2nhv90?2projects?2eech?2ap@
  024da	68 00 00 00 00	 push	 OFFSET ??_C@_0CJ@DMBLBJBK@get_comms_model?5?$CI?$CJ?5?$DN?$DN?5COMMS_MOD@
  024df	e8 00 00 00 00	 call	 ?process_assert@@YGXPBD0H@Z ; process_assert
$LN175@transmit_e:

; 2312 : 	
; 2313 : 			pack_entity_safe_ptr (en);

  024e4	8b 45 0c	 mov	 eax, DWORD PTR _en$[ebp]
  024e7	50		 push	 eax
  024e8	e8 00 00 00 00	 call	 ?pack_entity_safe_ptr@@YGXPAUENTITY@@@Z ; pack_entity_safe_ptr

; 2314 : 
; 2315 : 			type = va_arg (pargs, int);

  024ed	8b 45 fc	 mov	 eax, DWORD PTR _pargs$[ebp]
  024f0	83 c0 04	 add	 eax, 4
  024f3	89 45 fc	 mov	 DWORD PTR _pargs$[ebp], eax
  024f6	8b 4d fc	 mov	 ecx, DWORD PTR _pargs$[ebp]
  024f9	8b 51 fc	 mov	 edx, DWORD PTR [ecx-4]
  024fc	89 95 2c fe ff
	ff		 mov	 DWORD PTR _type$25[ebp], edx

; 2316 : 
; 2317 : 			valid = va_arg (pargs, int);

  02502	8b 45 fc	 mov	 eax, DWORD PTR _pargs$[ebp]
  02505	83 c0 04	 add	 eax, 4
  02508	89 45 fc	 mov	 DWORD PTR _pargs$[ebp], eax
  0250b	8b 4d fc	 mov	 ecx, DWORD PTR _pargs$[ebp]
  0250e	8b 51 fc	 mov	 edx, DWORD PTR [ecx-4]
  02511	89 95 28 fe ff
	ff		 mov	 DWORD PTR _valid$24[ebp], edx

; 2318 : 
; 2319 : 			value = va_arg (pargs, double);

  02517	8b 45 fc	 mov	 eax, DWORD PTR _pargs$[ebp]
  0251a	83 c0 08	 add	 eax, 8
  0251d	89 45 fc	 mov	 DWORD PTR _pargs$[ebp], eax
  02520	8b 4d fc	 mov	 ecx, DWORD PTR _pargs$[ebp]
  02523	f2 0f 5a 41 f8	 cvtsd2ss xmm0, QWORD PTR [ecx-8]
  02528	f3 0f 11 85 24
	fe ff ff	 movss	 DWORD PTR _value$23[ebp], xmm0

; 2320 : 
; 2321 : 			pack_int_value (en, INT_TYPE_GUIDE_CRITERIA_TYPE, type);

  02530	8b 85 2c fe ff
	ff		 mov	 eax, DWORD PTR _type$25[ebp]
  02536	50		 push	 eax
  02537	6a 4e		 push	 78			; 0000004eH
  02539	8b 4d 0c	 mov	 ecx, DWORD PTR _en$[ebp]
  0253c	51		 push	 ecx
  0253d	e8 00 00 00 00	 call	 ?pack_int_value@@YGXPAUENTITY@@W4INT_TYPES@@H@Z ; pack_int_value

; 2322 : 
; 2323 : 			pack_int_value (en, INT_TYPE_VALID, valid);

  02542	8b 85 28 fe ff
	ff		 mov	 eax, DWORD PTR _valid$24[ebp]
  02548	50		 push	 eax
  02549	68 ef 00 00 00	 push	 239			; 000000efH
  0254e	8b 4d 0c	 mov	 ecx, DWORD PTR _en$[ebp]
  02551	51		 push	 ecx
  02552	e8 00 00 00 00	 call	 ?pack_int_value@@YGXPAUENTITY@@W4INT_TYPES@@H@Z ; pack_int_value

; 2324 : 
; 2325 : 			pack_float_value (en, FLOAT_TYPE_GUIDE_CRITERIA_VALUE, value);

  02557	51		 push	 ecx
  02558	f3 0f 10 85 24
	fe ff ff	 movss	 xmm0, DWORD PTR _value$23[ebp]
  02560	f3 0f 11 04 24	 movss	 DWORD PTR [esp], xmm0
  02565	6a 33		 push	 51			; 00000033H
  02567	8b 45 0c	 mov	 eax, DWORD PTR _en$[ebp]
  0256a	50		 push	 eax
  0256b	e8 00 00 00 00	 call	 ?pack_float_value@@YGXPAUENTITY@@W4FLOAT_TYPES@@M@Z ; pack_float_value

; 2326 : 
; 2327 : 			#if DEBUG_MODULE
; 2328 : 
; 2329 : 			debug_log ("EN_COMMS: sending set guide criteria for %d", get_local_entity_index (en));
; 2330 : 
; 2331 : 			#endif
; 2332 : 
; 2333 : 			break;

  02570	e9 50 10 00 00	 jmp	 $LN2@transmit_e
$LN176@transmit_e:

; 2334 : 		}
; 2335 : 		////////////////////////////////////////
; 2336 : 		case ENTITY_COMMS_SET_GUIDE_POSITION_ENTITY:
; 2337 : 		////////////////////////////////////////
; 2338 : 		{
; 2339 : 			//
; 2340 : 			// (entity_comms_messages message, entity *en, entity *position_entity)
; 2341 : 			//
; 2342 : 
; 2343 : 			entity
; 2344 : 				*position_entity;
; 2345 : 
; 2346 : 			ASSERT (en);

  02575	83 7d 0c 00	 cmp	 DWORD PTR _en$[ebp], 0
  02579	75 1a		 jne	 SHORT $LN177@transmit_e
  0257b	a1 00 00 00 00	 mov	 eax, DWORD PTR ?__LINE__Var@?0??transmit_entity_comms_message@@YAXW4ENTITY_COMMS_MESSAGES@@PAUENTITY@@ZZ@4JA
  02580	05 51 07 00 00	 add	 eax, 1873		; 00000751H
  02585	50		 push	 eax
  02586	68 00 00 00 00	 push	 OFFSET ??_C@_0EO@OCMIKFBI@c?3?2users?2nhv90?2projects?2eech?2ap@
  0258b	68 00 00 00 00	 push	 OFFSET ??_C@_02LFNMGJAP@en@
  02590	e8 00 00 00 00	 call	 ?process_assert@@YGXPBD0H@Z ; process_assert
$LN177@transmit_e:

; 2347 : 
; 2348 : 			ASSERT (get_local_entity_type (en) == ENTITY_TYPE_GUIDE);

  02595	83 7d 0c 00	 cmp	 DWORD PTR _en$[ebp], 0
  02599	74 0d		 je	 SHORT $LN274@transmit_e
  0259b	8b 45 0c	 mov	 eax, DWORD PTR _en$[ebp]
  0259e	8b 08		 mov	 ecx, DWORD PTR [eax]
  025a0	89 8d 44 fd ff
	ff		 mov	 DWORD PTR tv1400[ebp], ecx
  025a6	eb 27		 jmp	 SHORT $LN275@transmit_e
$LN274@transmit_e:
  025a8	8b 15 00 00 00
	00		 mov	 edx, DWORD PTR ?__LINE__Var@?0??transmit_entity_comms_message@@YAXW4ENTITY_COMMS_MESSAGES@@PAUENTITY@@ZZ@4JA
  025ae	81 c2 53 07 00
	00		 add	 edx, 1875		; 00000753H
  025b4	52		 push	 edx
  025b5	68 00 00 00 00	 push	 OFFSET ??_C@_0EO@OCMIKFBI@c?3?2users?2nhv90?2projects?2eech?2ap@
  025ba	a1 00 00 00 00	 mov	 eax, DWORD PTR ?null_entity_pointer_message@@3PBDB ; null_entity_pointer_message
  025bf	50		 push	 eax
  025c0	e8 00 00 00 00	 call	 ?process_assert@@YGXPBD0H@Z ; process_assert
  025c5	c7 85 44 fd ff
	ff 00 00 00 00	 mov	 DWORD PTR tv1400[ebp], 0
$LN275@transmit_e:
  025cf	83 bd 44 fd ff
	ff 0d		 cmp	 DWORD PTR tv1400[ebp], 13 ; 0000000dH
  025d6	74 1a		 je	 SHORT $LN178@transmit_e
  025d8	a1 00 00 00 00	 mov	 eax, DWORD PTR ?__LINE__Var@?0??transmit_entity_comms_message@@YAXW4ENTITY_COMMS_MESSAGES@@PAUENTITY@@ZZ@4JA
  025dd	05 53 07 00 00	 add	 eax, 1875		; 00000753H
  025e2	50		 push	 eax
  025e3	68 00 00 00 00	 push	 OFFSET ??_C@_0EO@OCMIKFBI@c?3?2users?2nhv90?2projects?2eech?2ap@
  025e8	68 00 00 00 00	 push	 OFFSET ??_C@_0DA@BGABFO@get_local_entity_type?5?$CIen?$CJ?5?$DN?$DN?5E@
  025ed	e8 00 00 00 00	 call	 ?process_assert@@YGXPBD0H@Z ; process_assert
$LN178@transmit_e:

; 2349 : 
; 2350 : 			ASSERT (get_comms_model () == COMMS_MODEL_SERVER);

  025f2	83 3d 00 00 00
	00 00		 cmp	 DWORD PTR ?system_comms_model@@3W4COMMS_MODEL_TYPES@@A, 0 ; system_comms_model
  025f9	74 1a		 je	 SHORT $LN179@transmit_e
  025fb	a1 00 00 00 00	 mov	 eax, DWORD PTR ?__LINE__Var@?0??transmit_entity_comms_message@@YAXW4ENTITY_COMMS_MESSAGES@@PAUENTITY@@ZZ@4JA
  02600	05 55 07 00 00	 add	 eax, 1877		; 00000755H
  02605	50		 push	 eax
  02606	68 00 00 00 00	 push	 OFFSET ??_C@_0EO@OCMIKFBI@c?3?2users?2nhv90?2projects?2eech?2ap@
  0260b	68 00 00 00 00	 push	 OFFSET ??_C@_0CJ@DMBLBJBK@get_comms_model?5?$CI?$CJ?5?$DN?$DN?5COMMS_MOD@
  02610	e8 00 00 00 00	 call	 ?process_assert@@YGXPBD0H@Z ; process_assert
$LN179@transmit_e:

; 2351 : 	
; 2352 : 			pack_entity_safe_ptr (en);

  02615	8b 45 0c	 mov	 eax, DWORD PTR _en$[ebp]
  02618	50		 push	 eax
  02619	e8 00 00 00 00	 call	 ?pack_entity_safe_ptr@@YGXPAUENTITY@@@Z ; pack_entity_safe_ptr

; 2353 : 
; 2354 : 			position_entity = va_arg (pargs, entity *);

  0261e	8b 45 fc	 mov	 eax, DWORD PTR _pargs$[ebp]
  02621	83 c0 04	 add	 eax, 4
  02624	89 45 fc	 mov	 DWORD PTR _pargs$[ebp], eax
  02627	8b 4d fc	 mov	 ecx, DWORD PTR _pargs$[ebp]
  0262a	8b 51 fc	 mov	 edx, DWORD PTR [ecx-4]
  0262d	89 95 20 fe ff
	ff		 mov	 DWORD PTR _position_entity$22[ebp], edx

; 2355 : 
; 2356 : 			pack_entity_safe_ptr (position_entity);

  02633	8b 85 20 fe ff
	ff		 mov	 eax, DWORD PTR _position_entity$22[ebp]
  02639	50		 push	 eax
  0263a	e8 00 00 00 00	 call	 ?pack_entity_safe_ptr@@YGXPAUENTITY@@@Z ; pack_entity_safe_ptr

; 2357 : 
; 2358 : 			#if DEBUG_MODULE
; 2359 : 
; 2360 : 			debug_log ("EN_COMMS: sending set guide position entity for %d", get_local_entity_index (en));
; 2361 : 
; 2362 : 			#endif
; 2363 : 
; 2364 : 			break;

  0263f	e9 81 0f 00 00	 jmp	 $LN2@transmit_e
$LN180@transmit_e:

; 2365 : 		}
; 2366 : 		////////////////////////////////////////
; 2367 : 		case ENTITY_COMMS_SET_TASK_POINTERS:
; 2368 : 		////////////////////////////////////////
; 2369 : 		{
; 2370 : 
; 2371 : 			task
; 2372 : 				*raw;
; 2373 : 
; 2374 : 			unsigned int
; 2375 : 				loop;
; 2376 : 
; 2377 : 			//
; 2378 : 			// (entity_comms_messages message, entity *en)
; 2379 : 			//
; 2380 : 
; 2381 : 			pack_entity_safe_ptr (en);

  02644	8b 45 0c	 mov	 eax, DWORD PTR _en$[ebp]
  02647	50		 push	 eax
  02648	e8 00 00 00 00	 call	 ?pack_entity_safe_ptr@@YGXPAUENTITY@@@Z ; pack_entity_safe_ptr

; 2382 : 
; 2383 : 			raw = (task *) get_local_entity_data (en);

  0264d	8b 45 0c	 mov	 eax, DWORD PTR _en$[ebp]
  02650	8b 48 04	 mov	 ecx, DWORD PTR [eax+4]
  02653	89 8d 1c fe ff
	ff		 mov	 DWORD PTR _raw$21[ebp], ecx

; 2384 : 
; 2385 : 			// positions
; 2386 : 
; 2387 : 			for (loop = 0; loop < raw->route_length; loop ++)

  02659	c7 85 18 fe ff
	ff 00 00 00 00	 mov	 DWORD PTR _loop$20[ebp], 0
  02663	eb 0f		 jmp	 SHORT $LN28@transmit_e
$LN26@transmit_e:
  02665	8b 85 18 fe ff
	ff		 mov	 eax, DWORD PTR _loop$20[ebp]
  0266b	83 c0 01	 add	 eax, 1
  0266e	89 85 18 fe ff
	ff		 mov	 DWORD PTR _loop$20[ebp], eax
$LN28@transmit_e:
  02674	8b 85 1c fe ff
	ff		 mov	 eax, DWORD PTR _raw$21[ebp]
  0267a	8b 88 a4 00 00
	00		 mov	 ecx, DWORD PTR [eax+164]
  02680	c1 e9 10	 shr	 ecx, 16			; 00000010H
  02683	81 e1 ff ff 00
	00		 and	 ecx, 65535		; 0000ffffH
  02689	39 8d 18 fe ff
	ff		 cmp	 DWORD PTR _loop$20[ebp], ecx
  0268f	73 1e		 jae	 SHORT $LN27@transmit_e

; 2388 : 			{
; 2389 : 
; 2390 : 				pack_vec3d (en, VEC3D_TYPE_POSITION, &raw->route_nodes [loop]);

  02691	6b 85 18 fe ff
	ff 0c		 imul	 eax, DWORD PTR _loop$20[ebp], 12
  02698	8b 8d 1c fe ff
	ff		 mov	 ecx, DWORD PTR _raw$21[ebp]
  0269e	03 41 14	 add	 eax, DWORD PTR [ecx+20]
  026a1	50		 push	 eax
  026a2	6a 08		 push	 8
  026a4	8b 55 0c	 mov	 edx, DWORD PTR _en$[ebp]
  026a7	52		 push	 edx
  026a8	e8 00 00 00 00	 call	 ?pack_vec3d@@YGXPAUENTITY@@W4VEC3D_TYPES@@PAUVEC3D@@@Z ; pack_vec3d

; 2391 : 			}

  026ad	eb b6		 jmp	 SHORT $LN26@transmit_e
$LN27@transmit_e:

; 2392 : 
; 2393 : 			// formations
; 2394 : 
; 2395 : 			for (loop = 0; loop < raw->route_length; loop ++)

  026af	c7 85 18 fe ff
	ff 00 00 00 00	 mov	 DWORD PTR _loop$20[ebp], 0
  026b9	eb 0f		 jmp	 SHORT $LN31@transmit_e
$LN29@transmit_e:
  026bb	8b 85 18 fe ff
	ff		 mov	 eax, DWORD PTR _loop$20[ebp]
  026c1	83 c0 01	 add	 eax, 1
  026c4	89 85 18 fe ff
	ff		 mov	 DWORD PTR _loop$20[ebp], eax
$LN31@transmit_e:
  026ca	8b 85 1c fe ff
	ff		 mov	 eax, DWORD PTR _raw$21[ebp]
  026d0	8b 88 a4 00 00
	00		 mov	 ecx, DWORD PTR [eax+164]
  026d6	c1 e9 10	 shr	 ecx, 16			; 00000010H
  026d9	81 e1 ff ff 00
	00		 and	 ecx, 65535		; 0000ffffH
  026df	39 8d 18 fe ff
	ff		 cmp	 DWORD PTR _loop$20[ebp], ecx
  026e5	73 23		 jae	 SHORT $LN30@transmit_e

; 2396 : 			{
; 2397 : 
; 2398 : 				pack_int_value (en, INT_TYPE_WAYPOINT_FORMATION, raw->route_formation_types [loop]);

  026e7	8b 85 1c fe ff
	ff		 mov	 eax, DWORD PTR _raw$21[ebp]
  026ed	8b 48 38	 mov	 ecx, DWORD PTR [eax+56]
  026f0	8b 95 18 fe ff
	ff		 mov	 edx, DWORD PTR _loop$20[ebp]
  026f6	8b 04 91	 mov	 eax, DWORD PTR [ecx+edx*4]
  026f9	50		 push	 eax
  026fa	68 fe 00 00 00	 push	 254			; 000000feH
  026ff	8b 4d 0c	 mov	 ecx, DWORD PTR _en$[ebp]
  02702	51		 push	 ecx
  02703	e8 00 00 00 00	 call	 ?pack_int_value@@YGXPAUENTITY@@W4INT_TYPES@@H@Z ; pack_int_value

; 2399 : 			}

  02708	eb b1		 jmp	 SHORT $LN29@transmit_e
$LN30@transmit_e:

; 2400 : 
; 2401 : 			// waypoint types
; 2402 : 
; 2403 : 			for (loop = 0; loop < raw->route_length; loop ++)

  0270a	c7 85 18 fe ff
	ff 00 00 00 00	 mov	 DWORD PTR _loop$20[ebp], 0
  02714	eb 0f		 jmp	 SHORT $LN34@transmit_e
$LN32@transmit_e:
  02716	8b 85 18 fe ff
	ff		 mov	 eax, DWORD PTR _loop$20[ebp]
  0271c	83 c0 01	 add	 eax, 1
  0271f	89 85 18 fe ff
	ff		 mov	 DWORD PTR _loop$20[ebp], eax
$LN34@transmit_e:
  02725	8b 85 1c fe ff
	ff		 mov	 eax, DWORD PTR _raw$21[ebp]
  0272b	8b 88 a4 00 00
	00		 mov	 ecx, DWORD PTR [eax+164]
  02731	c1 e9 10	 shr	 ecx, 16			; 00000010H
  02734	81 e1 ff ff 00
	00		 and	 ecx, 65535		; 0000ffffH
  0273a	39 8d 18 fe ff
	ff		 cmp	 DWORD PTR _loop$20[ebp], ecx
  02740	73 20		 jae	 SHORT $LN33@transmit_e

; 2404 : 			{
; 2405 : 
; 2406 : 				pack_int_value (en, INT_TYPE_ENTITY_SUB_TYPE, raw->route_waypoint_types [loop]);

  02742	8b 85 1c fe ff
	ff		 mov	 eax, DWORD PTR _raw$21[ebp]
  02748	8b 48 3c	 mov	 ecx, DWORD PTR [eax+60]
  0274b	8b 95 18 fe ff
	ff		 mov	 edx, DWORD PTR _loop$20[ebp]
  02751	8b 04 91	 mov	 eax, DWORD PTR [ecx+edx*4]
  02754	50		 push	 eax
  02755	6a 34		 push	 52			; 00000034H
  02757	8b 4d 0c	 mov	 ecx, DWORD PTR _en$[ebp]
  0275a	51		 push	 ecx
  0275b	e8 00 00 00 00	 call	 ?pack_int_value@@YGXPAUENTITY@@W4INT_TYPES@@H@Z ; pack_int_value

; 2407 : 			}

  02760	eb b4		 jmp	 SHORT $LN32@transmit_e
$LN33@transmit_e:

; 2408 : 
; 2409 : 			// dependents
; 2410 : 
; 2411 : 			for (loop = 0; loop < raw->route_length; loop ++)

  02762	c7 85 18 fe ff
	ff 00 00 00 00	 mov	 DWORD PTR _loop$20[ebp], 0
  0276c	eb 0f		 jmp	 SHORT $LN37@transmit_e
$LN35@transmit_e:
  0276e	8b 85 18 fe ff
	ff		 mov	 eax, DWORD PTR _loop$20[ebp]
  02774	83 c0 01	 add	 eax, 1
  02777	89 85 18 fe ff
	ff		 mov	 DWORD PTR _loop$20[ebp], eax
$LN37@transmit_e:
  0277d	8b 85 1c fe ff
	ff		 mov	 eax, DWORD PTR _raw$21[ebp]
  02783	8b 88 a4 00 00
	00		 mov	 ecx, DWORD PTR [eax+164]
  02789	c1 e9 10	 shr	 ecx, 16			; 00000010H
  0278c	81 e1 ff ff 00
	00		 and	 ecx, 65535		; 0000ffffH
  02792	39 8d 18 fe ff
	ff		 cmp	 DWORD PTR _loop$20[ebp], ecx
  02798	73 51		 jae	 SHORT $LN36@transmit_e

; 2412 : 			{
; 2413 : 
; 2414 : 				if (raw->route_dependents [loop])

  0279a	8b 85 1c fe ff
	ff		 mov	 eax, DWORD PTR _raw$21[ebp]
  027a0	8b 48 34	 mov	 ecx, DWORD PTR [eax+52]
  027a3	8b 95 18 fe ff
	ff		 mov	 edx, DWORD PTR _loop$20[ebp]
  027a9	83 3c 91 00	 cmp	 DWORD PTR [ecx+edx*4], 0
  027ad	74 2a		 je	 SHORT $LN181@transmit_e

; 2415 : 				{
; 2416 : 
; 2417 : 					pack_int_value (en, INT_TYPE_VALID, TRUE);

  027af	6a 01		 push	 1
  027b1	68 ef 00 00 00	 push	 239			; 000000efH
  027b6	8b 45 0c	 mov	 eax, DWORD PTR _en$[ebp]
  027b9	50		 push	 eax
  027ba	e8 00 00 00 00	 call	 ?pack_int_value@@YGXPAUENTITY@@W4INT_TYPES@@H@Z ; pack_int_value

; 2418 : 
; 2419 : 					pack_entity_safe_ptr (raw->route_dependents [loop]);

  027bf	8b 85 1c fe ff
	ff		 mov	 eax, DWORD PTR _raw$21[ebp]
  027c5	8b 48 34	 mov	 ecx, DWORD PTR [eax+52]
  027c8	8b 95 18 fe ff
	ff		 mov	 edx, DWORD PTR _loop$20[ebp]
  027ce	8b 04 91	 mov	 eax, DWORD PTR [ecx+edx*4]
  027d1	50		 push	 eax
  027d2	e8 00 00 00 00	 call	 ?pack_entity_safe_ptr@@YGXPAUENTITY@@@Z ; pack_entity_safe_ptr

; 2420 : 				}
; 2421 : 				else

  027d7	eb 10		 jmp	 SHORT $LN182@transmit_e
$LN181@transmit_e:

; 2422 : 				{
; 2423 : 
; 2424 : 					pack_int_value (en, INT_TYPE_VALID, FALSE);

  027d9	6a 00		 push	 0
  027db	68 ef 00 00 00	 push	 239			; 000000efH
  027e0	8b 45 0c	 mov	 eax, DWORD PTR _en$[ebp]
  027e3	50		 push	 eax
  027e4	e8 00 00 00 00	 call	 ?pack_int_value@@YGXPAUENTITY@@W4INT_TYPES@@H@Z ; pack_int_value
$LN182@transmit_e:

; 2425 : 				}
; 2426 : 			}

  027e9	eb 83		 jmp	 SHORT $LN35@transmit_e
$LN36@transmit_e:

; 2427 : 
; 2428 : 			// return keysite
; 2429 : 
; 2430 : 			pack_entity_safe_ptr (raw->return_keysite);

  027eb	8b 85 1c fe ff
	ff		 mov	 eax, DWORD PTR _raw$21[ebp]
  027f1	8b 48 30	 mov	 ecx, DWORD PTR [eax+48]
  027f4	51		 push	 ecx
  027f5	e8 00 00 00 00	 call	 ?pack_entity_safe_ptr@@YGXPAUENTITY@@@Z ; pack_entity_safe_ptr

; 2431 : 
; 2432 : 			#if DEBUG_MODULE
; 2433 : 
; 2434 : 			debug_log ("EN_COMMS: sending set task pointers entity %s %d", get_local_entity_string (en, STRING_TYPE_FULL_NAME), get_local_entity_index (en));
; 2435 : 
; 2436 : 			#endif
; 2437 : 
; 2438 : 			break;

  027fa	e9 c6 0d 00 00	 jmp	 $LN2@transmit_e
$LN183@transmit_e:

; 2439 : 		}
; 2440 : 		////////////////////////////////////////
; 2441 : 		case ENTITY_COMMS_SET_WAYPOINT:
; 2442 : 		////////////////////////////////////////
; 2443 : 		{
; 2444 : 			entity
; 2445 : 				*wp;
; 2446 : 
; 2447 : 			//
; 2448 : 			// (entity_comms_messages message, entity *en, entity *wp)
; 2449 : 			//
; 2450 : 
; 2451 : 			ASSERT (en);

  027ff	83 7d 0c 00	 cmp	 DWORD PTR _en$[ebp], 0
  02803	75 1a		 jne	 SHORT $LN184@transmit_e
  02805	a1 00 00 00 00	 mov	 eax, DWORD PTR ?__LINE__Var@?0??transmit_entity_comms_message@@YAXW4ENTITY_COMMS_MESSAGES@@PAUENTITY@@ZZ@4JA
  0280a	05 ba 07 00 00	 add	 eax, 1978		; 000007baH
  0280f	50		 push	 eax
  02810	68 00 00 00 00	 push	 OFFSET ??_C@_0EO@OCMIKFBI@c?3?2users?2nhv90?2projects?2eech?2ap@
  02815	68 00 00 00 00	 push	 OFFSET ??_C@_02LFNMGJAP@en@
  0281a	e8 00 00 00 00	 call	 ?process_assert@@YGXPBD0H@Z ; process_assert
$LN184@transmit_e:

; 2452 : 
; 2453 : 			ASSERT (get_local_entity_type (en) == ENTITY_TYPE_GUIDE);

  0281f	83 7d 0c 00	 cmp	 DWORD PTR _en$[ebp], 0
  02823	74 0d		 je	 SHORT $LN276@transmit_e
  02825	8b 45 0c	 mov	 eax, DWORD PTR _en$[ebp]
  02828	8b 08		 mov	 ecx, DWORD PTR [eax]
  0282a	89 8d 44 fd ff
	ff		 mov	 DWORD PTR tv1514[ebp], ecx
  02830	eb 27		 jmp	 SHORT $LN277@transmit_e
$LN276@transmit_e:
  02832	8b 15 00 00 00
	00		 mov	 edx, DWORD PTR ?__LINE__Var@?0??transmit_entity_comms_message@@YAXW4ENTITY_COMMS_MESSAGES@@PAUENTITY@@ZZ@4JA
  02838	81 c2 bc 07 00
	00		 add	 edx, 1980		; 000007bcH
  0283e	52		 push	 edx
  0283f	68 00 00 00 00	 push	 OFFSET ??_C@_0EO@OCMIKFBI@c?3?2users?2nhv90?2projects?2eech?2ap@
  02844	a1 00 00 00 00	 mov	 eax, DWORD PTR ?null_entity_pointer_message@@3PBDB ; null_entity_pointer_message
  02849	50		 push	 eax
  0284a	e8 00 00 00 00	 call	 ?process_assert@@YGXPBD0H@Z ; process_assert
  0284f	c7 85 44 fd ff
	ff 00 00 00 00	 mov	 DWORD PTR tv1514[ebp], 0
$LN277@transmit_e:
  02859	83 bd 44 fd ff
	ff 0d		 cmp	 DWORD PTR tv1514[ebp], 13 ; 0000000dH
  02860	74 1a		 je	 SHORT $LN185@transmit_e
  02862	a1 00 00 00 00	 mov	 eax, DWORD PTR ?__LINE__Var@?0??transmit_entity_comms_message@@YAXW4ENTITY_COMMS_MESSAGES@@PAUENTITY@@ZZ@4JA
  02867	05 bc 07 00 00	 add	 eax, 1980		; 000007bcH
  0286c	50		 push	 eax
  0286d	68 00 00 00 00	 push	 OFFSET ??_C@_0EO@OCMIKFBI@c?3?2users?2nhv90?2projects?2eech?2ap@
  02872	68 00 00 00 00	 push	 OFFSET ??_C@_0DA@BGABFO@get_local_entity_type?5?$CIen?$CJ?5?$DN?$DN?5E@
  02877	e8 00 00 00 00	 call	 ?process_assert@@YGXPBD0H@Z ; process_assert
$LN185@transmit_e:

; 2454 : 
; 2455 : 			wp = va_arg (pargs, entity *);

  0287c	8b 45 fc	 mov	 eax, DWORD PTR _pargs$[ebp]
  0287f	83 c0 04	 add	 eax, 4
  02882	89 45 fc	 mov	 DWORD PTR _pargs$[ebp], eax
  02885	8b 4d fc	 mov	 ecx, DWORD PTR _pargs$[ebp]
  02888	8b 51 fc	 mov	 edx, DWORD PTR [ecx-4]
  0288b	89 95 14 fe ff
	ff		 mov	 DWORD PTR _wp$19[ebp], edx

; 2456 : 
; 2457 : 			ASSERT (wp);

  02891	83 bd 14 fe ff
	ff 00		 cmp	 DWORD PTR _wp$19[ebp], 0
  02898	75 1a		 jne	 SHORT $LN186@transmit_e
  0289a	a1 00 00 00 00	 mov	 eax, DWORD PTR ?__LINE__Var@?0??transmit_entity_comms_message@@YAXW4ENTITY_COMMS_MESSAGES@@PAUENTITY@@ZZ@4JA
  0289f	05 c0 07 00 00	 add	 eax, 1984		; 000007c0H
  028a4	50		 push	 eax
  028a5	68 00 00 00 00	 push	 OFFSET ??_C@_0EO@OCMIKFBI@c?3?2users?2nhv90?2projects?2eech?2ap@
  028aa	68 00 00 00 00	 push	 OFFSET ??_C@_02HODPCBMO@wp@
  028af	e8 00 00 00 00	 call	 ?process_assert@@YGXPBD0H@Z ; process_assert
$LN186@transmit_e:

; 2458 : 
; 2459 : 			pack_entity_safe_ptr (en);

  028b4	8b 45 0c	 mov	 eax, DWORD PTR _en$[ebp]
  028b7	50		 push	 eax
  028b8	e8 00 00 00 00	 call	 ?pack_entity_safe_ptr@@YGXPAUENTITY@@@Z ; pack_entity_safe_ptr

; 2460 : 
; 2461 : 			pack_entity_safe_ptr (wp);

  028bd	8b 85 14 fe ff
	ff		 mov	 eax, DWORD PTR _wp$19[ebp]
  028c3	50		 push	 eax
  028c4	e8 00 00 00 00	 call	 ?pack_entity_safe_ptr@@YGXPAUENTITY@@@Z ; pack_entity_safe_ptr

; 2462 : 
; 2463 : 			#if DEBUG_MODULE
; 2464 : 
; 2465 : 			debug_log ("EN_COMMS: sending set waypoint");
; 2466 : 
; 2467 : 			#endif
; 2468 : 
; 2469 : 			break;

  028c9	e9 f7 0c 00 00	 jmp	 $LN2@transmit_e
$LN187@transmit_e:

; 2470 : 		}
; 2471 : 		////////////////////////////////////////
; 2472 : 		case ENTITY_COMMS_STRING:
; 2473 : 		////////////////////////////////////////
; 2474 : 		{
; 2475 : 			//
; 2476 : 			// (entity_comms_messages message, entity *en, string_types type, char *s)
; 2477 : 			//
; 2478 : 
; 2479 : 			string_types
; 2480 : 				type;
; 2481 : 
; 2482 : 			const char
; 2483 : 				*s;
; 2484 : 
; 2485 : 			ASSERT (en);

  028ce	83 7d 0c 00	 cmp	 DWORD PTR _en$[ebp], 0
  028d2	75 1a		 jne	 SHORT $LN188@transmit_e
  028d4	a1 00 00 00 00	 mov	 eax, DWORD PTR ?__LINE__Var@?0??transmit_entity_comms_message@@YAXW4ENTITY_COMMS_MESSAGES@@PAUENTITY@@ZZ@4JA
  028d9	05 dc 07 00 00	 add	 eax, 2012		; 000007dcH
  028de	50		 push	 eax
  028df	68 00 00 00 00	 push	 OFFSET ??_C@_0EO@OCMIKFBI@c?3?2users?2nhv90?2projects?2eech?2ap@
  028e4	68 00 00 00 00	 push	 OFFSET ??_C@_02LFNMGJAP@en@
  028e9	e8 00 00 00 00	 call	 ?process_assert@@YGXPBD0H@Z ; process_assert
$LN188@transmit_e:

; 2486 : 
; 2487 : 			pack_entity_safe_ptr (en);

  028ee	8b 45 0c	 mov	 eax, DWORD PTR _en$[ebp]
  028f1	50		 push	 eax
  028f2	e8 00 00 00 00	 call	 ?pack_entity_safe_ptr@@YGXPAUENTITY@@@Z ; pack_entity_safe_ptr

; 2488 : 
; 2489 : 			type = va_arg (pargs, string_types);

  028f7	8b 45 fc	 mov	 eax, DWORD PTR _pargs$[ebp]
  028fa	83 c0 04	 add	 eax, 4
  028fd	89 45 fc	 mov	 DWORD PTR _pargs$[ebp], eax
  02900	8b 4d fc	 mov	 ecx, DWORD PTR _pargs$[ebp]
  02903	8b 51 fc	 mov	 edx, DWORD PTR [ecx-4]
  02906	89 95 10 fe ff
	ff		 mov	 DWORD PTR _type$18[ebp], edx

; 2490 : 
; 2491 : 			pack_string_type (type);

  0290c	8b 85 10 fe ff
	ff		 mov	 eax, DWORD PTR _type$18[ebp]
  02912	50		 push	 eax
  02913	e8 00 00 00 00	 call	 ?pack_string_type@@YGXW4STRING_TYPES@@@Z ; pack_string_type

; 2492 : 
; 2493 : 			s = va_arg (pargs, const char *);

  02918	8b 45 fc	 mov	 eax, DWORD PTR _pargs$[ebp]
  0291b	83 c0 04	 add	 eax, 4
  0291e	89 45 fc	 mov	 DWORD PTR _pargs$[ebp], eax
  02921	8b 4d fc	 mov	 ecx, DWORD PTR _pargs$[ebp]
  02924	8b 51 fc	 mov	 edx, DWORD PTR [ecx-4]
  02927	89 95 0c fe ff
	ff		 mov	 DWORD PTR _s$17[ebp], edx

; 2494 : 
; 2495 : 			pack_string (en, type, s);

  0292d	8b 85 0c fe ff
	ff		 mov	 eax, DWORD PTR _s$17[ebp]
  02933	50		 push	 eax
  02934	8b 8d 10 fe ff
	ff		 mov	 ecx, DWORD PTR _type$18[ebp]
  0293a	51		 push	 ecx
  0293b	8b 55 0c	 mov	 edx, DWORD PTR _en$[ebp]
  0293e	52		 push	 edx
  0293f	e8 00 00 00 00	 call	 ?pack_string@@YGXPAUENTITY@@W4STRING_TYPES@@PBD@Z ; pack_string

; 2496 : 
; 2497 : 			#if DEBUG_MODULE_MESSAGE_TEXT
; 2498 : 
; 2499 : 			debug_log ("EN_COMMS: sending string %s for %s (%d)", s, get_local_entity_type_name (en), get_local_entity_index (en));
; 2500 : 
; 2501 : 			#endif
; 2502 : 
; 2503 : 			break;

  02944	e9 7c 0c 00 00	 jmp	 $LN2@transmit_e
$LN189@transmit_e:

; 2504 : 		}
; 2505 : 		////////////////////////////////////////
; 2506 : 		case ENTITY_COMMS_SWITCH_LIST:
; 2507 : 		////////////////////////////////////////
; 2508 : 		{
; 2509 : 			//
; 2510 : 			// (entity_comms_messages message, entity *en, list_types type, entity *parent)
; 2511 : 			//
; 2512 : 
; 2513 : 			list_types
; 2514 : 				type1,
; 2515 : 				type2;
; 2516 : 
; 2517 : 			entity
; 2518 : 				*parent;
; 2519 : 
; 2520 : 			ASSERT (en);

  02949	83 7d 0c 00	 cmp	 DWORD PTR _en$[ebp], 0
  0294d	75 1a		 jne	 SHORT $LN190@transmit_e
  0294f	a1 00 00 00 00	 mov	 eax, DWORD PTR ?__LINE__Var@?0??transmit_entity_comms_message@@YAXW4ENTITY_COMMS_MESSAGES@@PAUENTITY@@ZZ@4JA
  02954	05 ff 07 00 00	 add	 eax, 2047		; 000007ffH
  02959	50		 push	 eax
  0295a	68 00 00 00 00	 push	 OFFSET ??_C@_0EO@OCMIKFBI@c?3?2users?2nhv90?2projects?2eech?2ap@
  0295f	68 00 00 00 00	 push	 OFFSET ??_C@_02LFNMGJAP@en@
  02964	e8 00 00 00 00	 call	 ?process_assert@@YGXPBD0H@Z ; process_assert
$LN190@transmit_e:

; 2521 : 
; 2522 : 			pack_entity_safe_ptr (en);

  02969	8b 45 0c	 mov	 eax, DWORD PTR _en$[ebp]
  0296c	50		 push	 eax
  0296d	e8 00 00 00 00	 call	 ?pack_entity_safe_ptr@@YGXPAUENTITY@@@Z ; pack_entity_safe_ptr

; 2523 : 
; 2524 : 			type1 = va_arg (pargs, list_types);

  02972	8b 45 fc	 mov	 eax, DWORD PTR _pargs$[ebp]
  02975	83 c0 04	 add	 eax, 4
  02978	89 45 fc	 mov	 DWORD PTR _pargs$[ebp], eax
  0297b	8b 4d fc	 mov	 ecx, DWORD PTR _pargs$[ebp]
  0297e	8b 51 fc	 mov	 edx, DWORD PTR [ecx-4]
  02981	89 95 08 fe ff
	ff		 mov	 DWORD PTR _type1$16[ebp], edx

; 2525 : 
; 2526 : 			pack_list_type (type1);

  02987	8b 85 08 fe ff
	ff		 mov	 eax, DWORD PTR _type1$16[ebp]
  0298d	50		 push	 eax
  0298e	e8 00 00 00 00	 call	 ?pack_list_type@@YGXW4LIST_TYPES@@@Z ; pack_list_type

; 2527 : 
; 2528 : 			parent = va_arg (pargs, entity *);

  02993	8b 45 fc	 mov	 eax, DWORD PTR _pargs$[ebp]
  02996	83 c0 04	 add	 eax, 4
  02999	89 45 fc	 mov	 DWORD PTR _pargs$[ebp], eax
  0299c	8b 4d fc	 mov	 ecx, DWORD PTR _pargs$[ebp]
  0299f	8b 51 fc	 mov	 edx, DWORD PTR [ecx-4]
  029a2	89 95 00 fe ff
	ff		 mov	 DWORD PTR _parent$14[ebp], edx

; 2529 : 
; 2530 : 			pack_entity_safe_ptr (parent);

  029a8	8b 85 00 fe ff
	ff		 mov	 eax, DWORD PTR _parent$14[ebp]
  029ae	50		 push	 eax
  029af	e8 00 00 00 00	 call	 ?pack_entity_safe_ptr@@YGXPAUENTITY@@@Z ; pack_entity_safe_ptr

; 2531 : 
; 2532 : 			type2 = va_arg (pargs, list_types);

  029b4	8b 45 fc	 mov	 eax, DWORD PTR _pargs$[ebp]
  029b7	83 c0 04	 add	 eax, 4
  029ba	89 45 fc	 mov	 DWORD PTR _pargs$[ebp], eax
  029bd	8b 4d fc	 mov	 ecx, DWORD PTR _pargs$[ebp]
  029c0	8b 51 fc	 mov	 edx, DWORD PTR [ecx-4]
  029c3	89 95 04 fe ff
	ff		 mov	 DWORD PTR _type2$15[ebp], edx

; 2533 : 
; 2534 : 			pack_list_type (type2);

  029c9	8b 85 04 fe ff
	ff		 mov	 eax, DWORD PTR _type2$15[ebp]
  029cf	50		 push	 eax
  029d0	e8 00 00 00 00	 call	 ?pack_list_type@@YGXW4LIST_TYPES@@@Z ; pack_list_type

; 2535 : 
; 2536 : 			#if DEBUG_MODULE_MESSAGE_TEXT
; 2537 : 
; 2538 : 			if (parent)
; 2539 : 			{
; 2540 : 
; 2541 : 				debug_log ("EN_COMMS: sending switch list for %s (%d) list %s to list %s (parent %s (%d))",
; 2542 : 							get_local_entity_type_name (en), get_local_entity_index (en), get_list_type_name (type1),
; 2543 : 							get_list_type_name (type2), get_local_entity_type_name (parent), get_local_entity_index (parent));
; 2544 : 			}
; 2545 : 			else
; 2546 : 			{
; 2547 : 
; 2548 : 				debug_log ("EN_COMMS: sending switch list for %s (%d) list %s to list %s (parent NULL)",
; 2549 : 							get_local_entity_type_name (en), get_local_entity_index (en), get_list_type_name (type1),
; 2550 : 							get_list_type_name (type2));
; 2551 : 			}
; 2552 : 
; 2553 : 			#endif
; 2554 : 
; 2555 : 			break;

  029d5	e9 eb 0b 00 00	 jmp	 $LN2@transmit_e
$LN191@transmit_e:

; 2556 : 		}
; 2557 : 		////////////////////////////////////////
; 2558 : 		case ENTITY_COMMS_SWITCH_PARENT:
; 2559 : 		////////////////////////////////////////
; 2560 : 		{
; 2561 : 			//
; 2562 : 			// (entity_comms_messages message, entity *en, list_types type, entity *parent)
; 2563 : 			//
; 2564 : 
; 2565 : 			list_types
; 2566 : 				type;
; 2567 : 
; 2568 : 			entity
; 2569 : 				*parent;
; 2570 : 
; 2571 : 			ASSERT (en);

  029da	83 7d 0c 00	 cmp	 DWORD PTR _en$[ebp], 0
  029de	75 1a		 jne	 SHORT $LN192@transmit_e
  029e0	a1 00 00 00 00	 mov	 eax, DWORD PTR ?__LINE__Var@?0??transmit_entity_comms_message@@YAXW4ENTITY_COMMS_MESSAGES@@PAUENTITY@@ZZ@4JA
  029e5	05 32 08 00 00	 add	 eax, 2098		; 00000832H
  029ea	50		 push	 eax
  029eb	68 00 00 00 00	 push	 OFFSET ??_C@_0EO@OCMIKFBI@c?3?2users?2nhv90?2projects?2eech?2ap@
  029f0	68 00 00 00 00	 push	 OFFSET ??_C@_02LFNMGJAP@en@
  029f5	e8 00 00 00 00	 call	 ?process_assert@@YGXPBD0H@Z ; process_assert
$LN192@transmit_e:

; 2572 : 
; 2573 : 			pack_entity_safe_ptr (en);

  029fa	8b 45 0c	 mov	 eax, DWORD PTR _en$[ebp]
  029fd	50		 push	 eax
  029fe	e8 00 00 00 00	 call	 ?pack_entity_safe_ptr@@YGXPAUENTITY@@@Z ; pack_entity_safe_ptr

; 2574 : 
; 2575 : 			type = va_arg (pargs, list_types);

  02a03	8b 45 fc	 mov	 eax, DWORD PTR _pargs$[ebp]
  02a06	83 c0 04	 add	 eax, 4
  02a09	89 45 fc	 mov	 DWORD PTR _pargs$[ebp], eax
  02a0c	8b 4d fc	 mov	 ecx, DWORD PTR _pargs$[ebp]
  02a0f	8b 51 fc	 mov	 edx, DWORD PTR [ecx-4]
  02a12	89 95 fc fd ff
	ff		 mov	 DWORD PTR _type$13[ebp], edx

; 2576 : 
; 2577 : 			pack_list_type (type);

  02a18	8b 85 fc fd ff
	ff		 mov	 eax, DWORD PTR _type$13[ebp]
  02a1e	50		 push	 eax
  02a1f	e8 00 00 00 00	 call	 ?pack_list_type@@YGXW4LIST_TYPES@@@Z ; pack_list_type

; 2578 : 
; 2579 : 			parent = va_arg (pargs, entity *);

  02a24	8b 45 fc	 mov	 eax, DWORD PTR _pargs$[ebp]
  02a27	83 c0 04	 add	 eax, 4
  02a2a	89 45 fc	 mov	 DWORD PTR _pargs$[ebp], eax
  02a2d	8b 4d fc	 mov	 ecx, DWORD PTR _pargs$[ebp]
  02a30	8b 51 fc	 mov	 edx, DWORD PTR [ecx-4]
  02a33	89 95 f8 fd ff
	ff		 mov	 DWORD PTR _parent$12[ebp], edx

; 2580 : 
; 2581 : 			pack_entity_safe_ptr (parent);

  02a39	8b 85 f8 fd ff
	ff		 mov	 eax, DWORD PTR _parent$12[ebp]
  02a3f	50		 push	 eax
  02a40	e8 00 00 00 00	 call	 ?pack_entity_safe_ptr@@YGXPAUENTITY@@@Z ; pack_entity_safe_ptr

; 2582 : 
; 2583 : 			#if DEBUG_MODULE_MESSAGE_TEXT
; 2584 : 
; 2585 : 			debug_log ("EN_COMMS: sending switch parent for %s (%d)", get_local_entity_type_name (en), get_local_entity_index (en));
; 2586 : 
; 2587 : 			#endif
; 2588 : 
; 2589 : 			break;

  02a45	e9 7b 0b 00 00	 jmp	 $LN2@transmit_e
$LN193@transmit_e:

; 2590 : 		}
; 2591 : 		////////////////////////////////////////
; 2592 : 		case ENTITY_COMMS_TASK_ASSIGN_REQUEST:
; 2593 : 		////////////////////////////////////////
; 2594 : 		{
; 2595 : 			//
; 2596 : 			// (entity_comms_messages message, entity *en (pilot_entity), entity *task, entity *mobile)
; 2597 : 			//
; 2598 : 
; 2599 : 			entity
; 2600 : 				*task,
; 2601 : 				*mobile;;
; 2602 : 
; 2603 : 			ASSERT (en);

  02a4a	83 7d 0c 00	 cmp	 DWORD PTR _en$[ebp], 0
  02a4e	75 1a		 jne	 SHORT $LN194@transmit_e
  02a50	a1 00 00 00 00	 mov	 eax, DWORD PTR ?__LINE__Var@?0??transmit_entity_comms_message@@YAXW4ENTITY_COMMS_MESSAGES@@PAUENTITY@@ZZ@4JA
  02a55	05 52 08 00 00	 add	 eax, 2130		; 00000852H
  02a5a	50		 push	 eax
  02a5b	68 00 00 00 00	 push	 OFFSET ??_C@_0EO@OCMIKFBI@c?3?2users?2nhv90?2projects?2eech?2ap@
  02a60	68 00 00 00 00	 push	 OFFSET ??_C@_02LFNMGJAP@en@
  02a65	e8 00 00 00 00	 call	 ?process_assert@@YGXPBD0H@Z ; process_assert
$LN194@transmit_e:

; 2604 : 
; 2605 : 			ASSERT (get_comms_model () == COMMS_MODEL_CLIENT);

  02a6a	83 3d 00 00 00
	00 01		 cmp	 DWORD PTR ?system_comms_model@@3W4COMMS_MODEL_TYPES@@A, 1 ; system_comms_model
  02a71	74 1a		 je	 SHORT $LN195@transmit_e
  02a73	a1 00 00 00 00	 mov	 eax, DWORD PTR ?__LINE__Var@?0??transmit_entity_comms_message@@YAXW4ENTITY_COMMS_MESSAGES@@PAUENTITY@@ZZ@4JA
  02a78	05 54 08 00 00	 add	 eax, 2132		; 00000854H
  02a7d	50		 push	 eax
  02a7e	68 00 00 00 00	 push	 OFFSET ??_C@_0EO@OCMIKFBI@c?3?2users?2nhv90?2projects?2eech?2ap@
  02a83	68 00 00 00 00	 push	 OFFSET ??_C@_0CJ@HDFJMCJJ@get_comms_model?5?$CI?$CJ?5?$DN?$DN?5COMMS_MOD@
  02a88	e8 00 00 00 00	 call	 ?process_assert@@YGXPBD0H@Z ; process_assert
$LN195@transmit_e:

; 2606 : 
; 2607 : 			ASSERT (get_local_entity_type (en) == ENTITY_TYPE_PILOT);

  02a8d	83 7d 0c 00	 cmp	 DWORD PTR _en$[ebp], 0
  02a91	74 0d		 je	 SHORT $LN278@transmit_e
  02a93	8b 45 0c	 mov	 eax, DWORD PTR _en$[ebp]
  02a96	8b 08		 mov	 ecx, DWORD PTR [eax]
  02a98	89 8d 44 fd ff
	ff		 mov	 DWORD PTR tv1586[ebp], ecx
  02a9e	eb 27		 jmp	 SHORT $LN279@transmit_e
$LN278@transmit_e:
  02aa0	8b 15 00 00 00
	00		 mov	 edx, DWORD PTR ?__LINE__Var@?0??transmit_entity_comms_message@@YAXW4ENTITY_COMMS_MESSAGES@@PAUENTITY@@ZZ@4JA
  02aa6	81 c2 56 08 00
	00		 add	 edx, 2134		; 00000856H
  02aac	52		 push	 edx
  02aad	68 00 00 00 00	 push	 OFFSET ??_C@_0EO@OCMIKFBI@c?3?2users?2nhv90?2projects?2eech?2ap@
  02ab2	a1 00 00 00 00	 mov	 eax, DWORD PTR ?null_entity_pointer_message@@3PBDB ; null_entity_pointer_message
  02ab7	50		 push	 eax
  02ab8	e8 00 00 00 00	 call	 ?process_assert@@YGXPBD0H@Z ; process_assert
  02abd	c7 85 44 fd ff
	ff 00 00 00 00	 mov	 DWORD PTR tv1586[ebp], 0
$LN279@transmit_e:
  02ac7	83 bd 44 fd ff
	ff 14		 cmp	 DWORD PTR tv1586[ebp], 20 ; 00000014H
  02ace	74 1a		 je	 SHORT $LN196@transmit_e
  02ad0	a1 00 00 00 00	 mov	 eax, DWORD PTR ?__LINE__Var@?0??transmit_entity_comms_message@@YAXW4ENTITY_COMMS_MESSAGES@@PAUENTITY@@ZZ@4JA
  02ad5	05 56 08 00 00	 add	 eax, 2134		; 00000856H
  02ada	50		 push	 eax
  02adb	68 00 00 00 00	 push	 OFFSET ??_C@_0EO@OCMIKFBI@c?3?2users?2nhv90?2projects?2eech?2ap@
  02ae0	68 00 00 00 00	 push	 OFFSET ??_C@_0DA@NDIHHFDN@get_local_entity_type?5?$CIen?$CJ?5?$DN?$DN?5E@
  02ae5	e8 00 00 00 00	 call	 ?process_assert@@YGXPBD0H@Z ; process_assert
$LN196@transmit_e:

; 2608 : 
; 2609 : 			pack_entity_safe_ptr (en);

  02aea	8b 45 0c	 mov	 eax, DWORD PTR _en$[ebp]
  02aed	50		 push	 eax
  02aee	e8 00 00 00 00	 call	 ?pack_entity_safe_ptr@@YGXPAUENTITY@@@Z ; pack_entity_safe_ptr

; 2610 : 
; 2611 : 			task = va_arg (pargs, entity *);

  02af3	8b 45 fc	 mov	 eax, DWORD PTR _pargs$[ebp]
  02af6	83 c0 04	 add	 eax, 4
  02af9	89 45 fc	 mov	 DWORD PTR _pargs$[ebp], eax
  02afc	8b 4d fc	 mov	 ecx, DWORD PTR _pargs$[ebp]
  02aff	8b 51 fc	 mov	 edx, DWORD PTR [ecx-4]
  02b02	89 95 f4 fd ff
	ff		 mov	 DWORD PTR _task$11[ebp], edx

; 2612 : 
; 2613 : 			pack_entity_safe_ptr (task);

  02b08	8b 85 f4 fd ff
	ff		 mov	 eax, DWORD PTR _task$11[ebp]
  02b0e	50		 push	 eax
  02b0f	e8 00 00 00 00	 call	 ?pack_entity_safe_ptr@@YGXPAUENTITY@@@Z ; pack_entity_safe_ptr

; 2614 : 
; 2615 : 			mobile = va_arg (pargs, entity *);

  02b14	8b 45 fc	 mov	 eax, DWORD PTR _pargs$[ebp]
  02b17	83 c0 04	 add	 eax, 4
  02b1a	89 45 fc	 mov	 DWORD PTR _pargs$[ebp], eax
  02b1d	8b 4d fc	 mov	 ecx, DWORD PTR _pargs$[ebp]
  02b20	8b 51 fc	 mov	 edx, DWORD PTR [ecx-4]
  02b23	89 95 f0 fd ff
	ff		 mov	 DWORD PTR _mobile$10[ebp], edx

; 2616 : 
; 2617 : 			pack_entity_safe_ptr (mobile);

  02b29	8b 85 f0 fd ff
	ff		 mov	 eax, DWORD PTR _mobile$10[ebp]
  02b2f	50		 push	 eax
  02b30	e8 00 00 00 00	 call	 ?pack_entity_safe_ptr@@YGXPAUENTITY@@@Z ; pack_entity_safe_ptr

; 2618 : 
; 2619 : //			#if DEBUG_MODULE_MESSAGE_TEXT
; 2620 : 
; 2621 : 			debug_log ("EN_COMMS: sending assign task request %s for %s", get_local_entity_string (task, STRING_TYPE_FULL_NAME), get_local_entity_string (en, STRING_TYPE_PILOTS_NAME));

  02b35	83 7d 0c 00	 cmp	 DWORD PTR _en$[ebp], 0
  02b39	74 0d		 je	 SHORT $LN280@transmit_e
  02b3b	8b 45 0c	 mov	 eax, DWORD PTR _en$[ebp]
  02b3e	8b 08		 mov	 ecx, DWORD PTR [eax]
  02b40	89 8d 44 fd ff
	ff		 mov	 DWORD PTR tv1605[ebp], ecx
  02b46	eb 27		 jmp	 SHORT $LN281@transmit_e
$LN280@transmit_e:
  02b48	8b 15 00 00 00
	00		 mov	 edx, DWORD PTR ?__LINE__Var@?0??transmit_entity_comms_message@@YAXW4ENTITY_COMMS_MESSAGES@@PAUENTITY@@ZZ@4JA
  02b4e	81 c2 64 08 00
	00		 add	 edx, 2148		; 00000864H
  02b54	52		 push	 edx
  02b55	68 00 00 00 00	 push	 OFFSET ??_C@_0EO@OCMIKFBI@c?3?2users?2nhv90?2projects?2eech?2ap@
  02b5a	a1 00 00 00 00	 mov	 eax, DWORD PTR ?null_entity_pointer_message@@3PBDB ; null_entity_pointer_message
  02b5f	50		 push	 eax
  02b60	e8 00 00 00 00	 call	 ?process_assert@@YGXPBD0H@Z ; process_assert
  02b65	c7 85 44 fd ff
	ff 00 00 00 00	 mov	 DWORD PTR tv1605[ebp], 0
$LN281@transmit_e:
  02b6f	b9 01 00 00 00	 mov	 ecx, 1
  02b74	85 c9		 test	 ecx, ecx
  02b76	74 0c		 je	 SHORT $LN282@transmit_e
  02b78	c7 85 40 fd ff
	ff 0a 00 00 00	 mov	 DWORD PTR tv1613[ebp], 10 ; 0000000aH
  02b82	eb 27		 jmp	 SHORT $LN283@transmit_e
$LN282@transmit_e:
  02b84	8b 15 00 00 00
	00		 mov	 edx, DWORD PTR ?__LINE__Var@?0??transmit_entity_comms_message@@YAXW4ENTITY_COMMS_MESSAGES@@PAUENTITY@@ZZ@4JA
  02b8a	81 c2 64 08 00
	00		 add	 edx, 2148		; 00000864H
  02b90	52		 push	 edx
  02b91	68 00 00 00 00	 push	 OFFSET ??_C@_0EO@OCMIKFBI@c?3?2users?2nhv90?2projects?2eech?2ap@
  02b96	a1 00 00 00 00	 mov	 eax, DWORD PTR ?overload_invalid_string_type_message@@3PBDB ; overload_invalid_string_type_message
  02b9b	50		 push	 eax
  02b9c	e8 00 00 00 00	 call	 ?process_assert@@YGXPBD0H@Z ; process_assert
  02ba1	c7 85 40 fd ff
	ff 00 00 00 00	 mov	 DWORD PTR tv1613[ebp], 0
$LN283@transmit_e:
  02bab	83 bd f4 fd ff
	ff 00		 cmp	 DWORD PTR _task$11[ebp], 0
  02bb2	74 10		 je	 SHORT $LN284@transmit_e
  02bb4	8b 8d f4 fd ff
	ff		 mov	 ecx, DWORD PTR _task$11[ebp]
  02bba	8b 11		 mov	 edx, DWORD PTR [ecx]
  02bbc	89 95 3c fd ff
	ff		 mov	 DWORD PTR tv1626[ebp], edx
  02bc2	eb 26		 jmp	 SHORT $LN285@transmit_e
$LN284@transmit_e:
  02bc4	a1 00 00 00 00	 mov	 eax, DWORD PTR ?__LINE__Var@?0??transmit_entity_comms_message@@YAXW4ENTITY_COMMS_MESSAGES@@PAUENTITY@@ZZ@4JA
  02bc9	05 64 08 00 00	 add	 eax, 2148		; 00000864H
  02bce	50		 push	 eax
  02bcf	68 00 00 00 00	 push	 OFFSET ??_C@_0EO@OCMIKFBI@c?3?2users?2nhv90?2projects?2eech?2ap@
  02bd4	8b 0d 00 00 00
	00		 mov	 ecx, DWORD PTR ?null_entity_pointer_message@@3PBDB ; null_entity_pointer_message
  02bda	51		 push	 ecx
  02bdb	e8 00 00 00 00	 call	 ?process_assert@@YGXPBD0H@Z ; process_assert
  02be0	c7 85 3c fd ff
	ff 00 00 00 00	 mov	 DWORD PTR tv1626[ebp], 0
$LN285@transmit_e:
  02bea	ba 01 00 00 00	 mov	 edx, 1
  02bef	85 d2		 test	 edx, edx
  02bf1	74 0c		 je	 SHORT $LN286@transmit_e
  02bf3	c7 85 38 fd ff
	ff 03 00 00 00	 mov	 DWORD PTR tv1634[ebp], 3
  02bfd	eb 26		 jmp	 SHORT $LN287@transmit_e
$LN286@transmit_e:
  02bff	a1 00 00 00 00	 mov	 eax, DWORD PTR ?__LINE__Var@?0??transmit_entity_comms_message@@YAXW4ENTITY_COMMS_MESSAGES@@PAUENTITY@@ZZ@4JA
  02c04	05 64 08 00 00	 add	 eax, 2148		; 00000864H
  02c09	50		 push	 eax
  02c0a	68 00 00 00 00	 push	 OFFSET ??_C@_0EO@OCMIKFBI@c?3?2users?2nhv90?2projects?2eech?2ap@
  02c0f	8b 0d 00 00 00
	00		 mov	 ecx, DWORD PTR ?overload_invalid_string_type_message@@3PBDB ; overload_invalid_string_type_message
  02c15	51		 push	 ecx
  02c16	e8 00 00 00 00	 call	 ?process_assert@@YGXPBD0H@Z ; process_assert
  02c1b	c7 85 38 fd ff
	ff 00 00 00 00	 mov	 DWORD PTR tv1634[ebp], 0
$LN287@transmit_e:
  02c25	6a 0a		 push	 10			; 0000000aH
  02c27	8b 55 0c	 mov	 edx, DWORD PTR _en$[ebp]
  02c2a	52		 push	 edx
  02c2b	6b 85 44 fd ff
	ff 34		 imul	 eax, DWORD PTR tv1605[ebp], 52
  02c32	8b 8d 40 fd ff
	ff		 mov	 ecx, DWORD PTR tv1613[ebp]
  02c38	8b 94 88 00 00
	00 00		 mov	 edx, DWORD PTR ?fn_get_local_entity_string@@3PAY0N@P6GPBDPAUENTITY@@W4STRING_TYPES@@@ZA[eax+ecx*4]
  02c3f	ff d2		 call	 edx
  02c41	50		 push	 eax
  02c42	6a 03		 push	 3
  02c44	8b 85 f4 fd ff
	ff		 mov	 eax, DWORD PTR _task$11[ebp]
  02c4a	50		 push	 eax
  02c4b	6b 8d 3c fd ff
	ff 34		 imul	 ecx, DWORD PTR tv1626[ebp], 52
  02c52	8b 95 38 fd ff
	ff		 mov	 edx, DWORD PTR tv1634[ebp]
  02c58	8b 84 91 00 00
	00 00		 mov	 eax, DWORD PTR ?fn_get_local_entity_string@@3PAY0N@P6GPBDPAUENTITY@@W4STRING_TYPES@@@ZA[ecx+edx*4]
  02c5f	ff d0		 call	 eax
  02c61	50		 push	 eax
  02c62	68 00 00 00 00	 push	 OFFSET ??_C@_0DA@INDMAMHB@EN_COMMS?3?5sending?5assign?5task?5r@
  02c67	e8 00 00 00 00	 call	 ?debug_log@@YAXPBDZZ	; debug_log
  02c6c	83 c4 0c	 add	 esp, 12			; 0000000cH

; 2622 : 
; 2623 : //			#endif
; 2624 : 
; 2625 : 			break;

  02c6f	e9 51 09 00 00	 jmp	 $LN2@transmit_e
$LN197@transmit_e:

; 2626 : 		}
; 2627 : 		////////////////////////////////////////
; 2628 : 		case ENTITY_COMMS_TASK_ASSIGN_RESULT:
; 2629 : 		////////////////////////////////////////
; 2630 : 		{
; 2631 : 			entity
; 2632 : 				*task,
; 2633 : 				*mobile;
; 2634 : 
; 2635 : 			//
; 2636 : 			// (entity_comms_messages message, entity *pilot, entity *task, entity *mobile)
; 2637 : 			//
; 2638 : 
; 2639 : 			ASSERT (get_comms_model () == COMMS_MODEL_SERVER);

  02c74	83 3d 00 00 00
	00 00		 cmp	 DWORD PTR ?system_comms_model@@3W4COMMS_MODEL_TYPES@@A, 0 ; system_comms_model
  02c7b	74 1a		 je	 SHORT $LN198@transmit_e
  02c7d	a1 00 00 00 00	 mov	 eax, DWORD PTR ?__LINE__Var@?0??transmit_entity_comms_message@@YAXW4ENTITY_COMMS_MESSAGES@@PAUENTITY@@ZZ@4JA
  02c82	05 76 08 00 00	 add	 eax, 2166		; 00000876H
  02c87	50		 push	 eax
  02c88	68 00 00 00 00	 push	 OFFSET ??_C@_0EO@OCMIKFBI@c?3?2users?2nhv90?2projects?2eech?2ap@
  02c8d	68 00 00 00 00	 push	 OFFSET ??_C@_0CJ@DMBLBJBK@get_comms_model?5?$CI?$CJ?5?$DN?$DN?5COMMS_MOD@
  02c92	e8 00 00 00 00	 call	 ?process_assert@@YGXPBD0H@Z ; process_assert
$LN198@transmit_e:

; 2640 : 
; 2641 : 			ASSERT (en);

  02c97	83 7d 0c 00	 cmp	 DWORD PTR _en$[ebp], 0
  02c9b	75 1a		 jne	 SHORT $LN199@transmit_e
  02c9d	a1 00 00 00 00	 mov	 eax, DWORD PTR ?__LINE__Var@?0??transmit_entity_comms_message@@YAXW4ENTITY_COMMS_MESSAGES@@PAUENTITY@@ZZ@4JA
  02ca2	05 78 08 00 00	 add	 eax, 2168		; 00000878H
  02ca7	50		 push	 eax
  02ca8	68 00 00 00 00	 push	 OFFSET ??_C@_0EO@OCMIKFBI@c?3?2users?2nhv90?2projects?2eech?2ap@
  02cad	68 00 00 00 00	 push	 OFFSET ??_C@_02LFNMGJAP@en@
  02cb2	e8 00 00 00 00	 call	 ?process_assert@@YGXPBD0H@Z ; process_assert
$LN199@transmit_e:

; 2642 : 
; 2643 : 			pack_entity_safe_ptr (en);

  02cb7	8b 45 0c	 mov	 eax, DWORD PTR _en$[ebp]
  02cba	50		 push	 eax
  02cbb	e8 00 00 00 00	 call	 ?pack_entity_safe_ptr@@YGXPAUENTITY@@@Z ; pack_entity_safe_ptr

; 2644 : 
; 2645 : 			task = va_arg (pargs, entity *);

  02cc0	8b 45 fc	 mov	 eax, DWORD PTR _pargs$[ebp]
  02cc3	83 c0 04	 add	 eax, 4
  02cc6	89 45 fc	 mov	 DWORD PTR _pargs$[ebp], eax
  02cc9	8b 4d fc	 mov	 ecx, DWORD PTR _pargs$[ebp]
  02ccc	8b 51 fc	 mov	 edx, DWORD PTR [ecx-4]
  02ccf	89 95 ec fd ff
	ff		 mov	 DWORD PTR _task$9[ebp], edx

; 2646 : 
; 2647 : 			pack_entity_safe_ptr (task);

  02cd5	8b 85 ec fd ff
	ff		 mov	 eax, DWORD PTR _task$9[ebp]
  02cdb	50		 push	 eax
  02cdc	e8 00 00 00 00	 call	 ?pack_entity_safe_ptr@@YGXPAUENTITY@@@Z ; pack_entity_safe_ptr

; 2648 : 
; 2649 : 			mobile = va_arg (pargs, entity *);

  02ce1	8b 45 fc	 mov	 eax, DWORD PTR _pargs$[ebp]
  02ce4	83 c0 04	 add	 eax, 4
  02ce7	89 45 fc	 mov	 DWORD PTR _pargs$[ebp], eax
  02cea	8b 4d fc	 mov	 ecx, DWORD PTR _pargs$[ebp]
  02ced	8b 51 fc	 mov	 edx, DWORD PTR [ecx-4]
  02cf0	89 95 e8 fd ff
	ff		 mov	 DWORD PTR _mobile$8[ebp], edx

; 2650 : 
; 2651 : 			pack_entity_safe_ptr (mobile);

  02cf6	8b 85 e8 fd ff
	ff		 mov	 eax, DWORD PTR _mobile$8[ebp]
  02cfc	50		 push	 eax
  02cfd	e8 00 00 00 00	 call	 ?pack_entity_safe_ptr@@YGXPAUENTITY@@@Z ; pack_entity_safe_ptr

; 2652 : 
; 2653 : //			#if DEBUG_MODULE_MESSAGE_TEXT
; 2654 : 
; 2655 : 			if (task)

  02d02	83 bd ec fd ff
	ff 00		 cmp	 DWORD PTR _task$9[ebp], 0
  02d09	0f 84 3f 01 00
	00		 je	 $LN200@transmit_e

; 2656 : 			{
; 2657 : 
; 2658 : 				debug_log ("EN_COMMS: sending assign task %s accepted for %s", get_local_entity_string (task, STRING_TYPE_FULL_NAME), get_local_entity_string (en, STRING_TYPE_PILOTS_NAME));

  02d0f	83 7d 0c 00	 cmp	 DWORD PTR _en$[ebp], 0
  02d13	74 0d		 je	 SHORT $LN288@transmit_e
  02d15	8b 45 0c	 mov	 eax, DWORD PTR _en$[ebp]
  02d18	8b 08		 mov	 ecx, DWORD PTR [eax]
  02d1a	89 8d 44 fd ff
	ff		 mov	 DWORD PTR tv1666[ebp], ecx
  02d20	eb 27		 jmp	 SHORT $LN289@transmit_e
$LN288@transmit_e:
  02d22	8b 15 00 00 00
	00		 mov	 edx, DWORD PTR ?__LINE__Var@?0??transmit_entity_comms_message@@YAXW4ENTITY_COMMS_MESSAGES@@PAUENTITY@@ZZ@4JA
  02d28	81 c2 89 08 00
	00		 add	 edx, 2185		; 00000889H
  02d2e	52		 push	 edx
  02d2f	68 00 00 00 00	 push	 OFFSET ??_C@_0EO@OCMIKFBI@c?3?2users?2nhv90?2projects?2eech?2ap@
  02d34	a1 00 00 00 00	 mov	 eax, DWORD PTR ?null_entity_pointer_message@@3PBDB ; null_entity_pointer_message
  02d39	50		 push	 eax
  02d3a	e8 00 00 00 00	 call	 ?process_assert@@YGXPBD0H@Z ; process_assert
  02d3f	c7 85 44 fd ff
	ff 00 00 00 00	 mov	 DWORD PTR tv1666[ebp], 0
$LN289@transmit_e:
  02d49	b9 01 00 00 00	 mov	 ecx, 1
  02d4e	85 c9		 test	 ecx, ecx
  02d50	74 0c		 je	 SHORT $LN290@transmit_e
  02d52	c7 85 40 fd ff
	ff 0a 00 00 00	 mov	 DWORD PTR tv1674[ebp], 10 ; 0000000aH
  02d5c	eb 27		 jmp	 SHORT $LN291@transmit_e
$LN290@transmit_e:
  02d5e	8b 15 00 00 00
	00		 mov	 edx, DWORD PTR ?__LINE__Var@?0??transmit_entity_comms_message@@YAXW4ENTITY_COMMS_MESSAGES@@PAUENTITY@@ZZ@4JA
  02d64	81 c2 89 08 00
	00		 add	 edx, 2185		; 00000889H
  02d6a	52		 push	 edx
  02d6b	68 00 00 00 00	 push	 OFFSET ??_C@_0EO@OCMIKFBI@c?3?2users?2nhv90?2projects?2eech?2ap@
  02d70	a1 00 00 00 00	 mov	 eax, DWORD PTR ?overload_invalid_string_type_message@@3PBDB ; overload_invalid_string_type_message
  02d75	50		 push	 eax
  02d76	e8 00 00 00 00	 call	 ?process_assert@@YGXPBD0H@Z ; process_assert
  02d7b	c7 85 40 fd ff
	ff 00 00 00 00	 mov	 DWORD PTR tv1674[ebp], 0
$LN291@transmit_e:
  02d85	83 bd ec fd ff
	ff 00		 cmp	 DWORD PTR _task$9[ebp], 0
  02d8c	74 10		 je	 SHORT $LN292@transmit_e
  02d8e	8b 8d ec fd ff
	ff		 mov	 ecx, DWORD PTR _task$9[ebp]
  02d94	8b 11		 mov	 edx, DWORD PTR [ecx]
  02d96	89 95 3c fd ff
	ff		 mov	 DWORD PTR tv1687[ebp], edx
  02d9c	eb 26		 jmp	 SHORT $LN293@transmit_e
$LN292@transmit_e:
  02d9e	a1 00 00 00 00	 mov	 eax, DWORD PTR ?__LINE__Var@?0??transmit_entity_comms_message@@YAXW4ENTITY_COMMS_MESSAGES@@PAUENTITY@@ZZ@4JA
  02da3	05 89 08 00 00	 add	 eax, 2185		; 00000889H
  02da8	50		 push	 eax
  02da9	68 00 00 00 00	 push	 OFFSET ??_C@_0EO@OCMIKFBI@c?3?2users?2nhv90?2projects?2eech?2ap@
  02dae	8b 0d 00 00 00
	00		 mov	 ecx, DWORD PTR ?null_entity_pointer_message@@3PBDB ; null_entity_pointer_message
  02db4	51		 push	 ecx
  02db5	e8 00 00 00 00	 call	 ?process_assert@@YGXPBD0H@Z ; process_assert
  02dba	c7 85 3c fd ff
	ff 00 00 00 00	 mov	 DWORD PTR tv1687[ebp], 0
$LN293@transmit_e:
  02dc4	ba 01 00 00 00	 mov	 edx, 1
  02dc9	85 d2		 test	 edx, edx
  02dcb	74 0c		 je	 SHORT $LN294@transmit_e
  02dcd	c7 85 38 fd ff
	ff 03 00 00 00	 mov	 DWORD PTR tv1695[ebp], 3
  02dd7	eb 26		 jmp	 SHORT $LN295@transmit_e
$LN294@transmit_e:
  02dd9	a1 00 00 00 00	 mov	 eax, DWORD PTR ?__LINE__Var@?0??transmit_entity_comms_message@@YAXW4ENTITY_COMMS_MESSAGES@@PAUENTITY@@ZZ@4JA
  02dde	05 89 08 00 00	 add	 eax, 2185		; 00000889H
  02de3	50		 push	 eax
  02de4	68 00 00 00 00	 push	 OFFSET ??_C@_0EO@OCMIKFBI@c?3?2users?2nhv90?2projects?2eech?2ap@
  02de9	8b 0d 00 00 00
	00		 mov	 ecx, DWORD PTR ?overload_invalid_string_type_message@@3PBDB ; overload_invalid_string_type_message
  02def	51		 push	 ecx
  02df0	e8 00 00 00 00	 call	 ?process_assert@@YGXPBD0H@Z ; process_assert
  02df5	c7 85 38 fd ff
	ff 00 00 00 00	 mov	 DWORD PTR tv1695[ebp], 0
$LN295@transmit_e:
  02dff	6a 0a		 push	 10			; 0000000aH
  02e01	8b 55 0c	 mov	 edx, DWORD PTR _en$[ebp]
  02e04	52		 push	 edx
  02e05	6b 85 44 fd ff
	ff 34		 imul	 eax, DWORD PTR tv1666[ebp], 52
  02e0c	8b 8d 40 fd ff
	ff		 mov	 ecx, DWORD PTR tv1674[ebp]
  02e12	8b 94 88 00 00
	00 00		 mov	 edx, DWORD PTR ?fn_get_local_entity_string@@3PAY0N@P6GPBDPAUENTITY@@W4STRING_TYPES@@@ZA[eax+ecx*4]
  02e19	ff d2		 call	 edx
  02e1b	50		 push	 eax
  02e1c	6a 03		 push	 3
  02e1e	8b 85 ec fd ff
	ff		 mov	 eax, DWORD PTR _task$9[ebp]
  02e24	50		 push	 eax
  02e25	6b 8d 3c fd ff
	ff 34		 imul	 ecx, DWORD PTR tv1687[ebp], 52
  02e2c	8b 95 38 fd ff
	ff		 mov	 edx, DWORD PTR tv1695[ebp]
  02e32	8b 84 91 00 00
	00 00		 mov	 eax, DWORD PTR ?fn_get_local_entity_string@@3PAY0N@P6GPBDPAUENTITY@@W4STRING_TYPES@@@ZA[ecx+edx*4]
  02e39	ff d0		 call	 eax
  02e3b	50		 push	 eax
  02e3c	68 00 00 00 00	 push	 OFFSET ??_C@_0DB@DBNDGDFO@EN_COMMS?3?5sending?5assign?5task?5?$CF@
  02e41	e8 00 00 00 00	 call	 ?debug_log@@YAXPBDZZ	; debug_log
  02e46	83 c4 0c	 add	 esp, 12			; 0000000cH

; 2659 : 			}
; 2660 : 			else

  02e49	e9 a0 00 00 00	 jmp	 $LN201@transmit_e
$LN200@transmit_e:

; 2661 : 			{
; 2662 : 
; 2663 : 				debug_log ("EN_COMMS: sending assign task refused for %s", get_local_entity_string (en, STRING_TYPE_PILOTS_NAME));

  02e4e	83 7d 0c 00	 cmp	 DWORD PTR _en$[ebp], 0
  02e52	74 0d		 je	 SHORT $LN296@transmit_e
  02e54	8b 45 0c	 mov	 eax, DWORD PTR _en$[ebp]
  02e57	8b 08		 mov	 ecx, DWORD PTR [eax]
  02e59	89 8d 44 fd ff
	ff		 mov	 DWORD PTR tv1709[ebp], ecx
  02e5f	eb 27		 jmp	 SHORT $LN297@transmit_e
$LN296@transmit_e:
  02e61	8b 15 00 00 00
	00		 mov	 edx, DWORD PTR ?__LINE__Var@?0??transmit_entity_comms_message@@YAXW4ENTITY_COMMS_MESSAGES@@PAUENTITY@@ZZ@4JA
  02e67	81 c2 8e 08 00
	00		 add	 edx, 2190		; 0000088eH
  02e6d	52		 push	 edx
  02e6e	68 00 00 00 00	 push	 OFFSET ??_C@_0EO@OCMIKFBI@c?3?2users?2nhv90?2projects?2eech?2ap@
  02e73	a1 00 00 00 00	 mov	 eax, DWORD PTR ?null_entity_pointer_message@@3PBDB ; null_entity_pointer_message
  02e78	50		 push	 eax
  02e79	e8 00 00 00 00	 call	 ?process_assert@@YGXPBD0H@Z ; process_assert
  02e7e	c7 85 44 fd ff
	ff 00 00 00 00	 mov	 DWORD PTR tv1709[ebp], 0
$LN297@transmit_e:
  02e88	b9 01 00 00 00	 mov	 ecx, 1
  02e8d	85 c9		 test	 ecx, ecx
  02e8f	74 0c		 je	 SHORT $LN298@transmit_e
  02e91	c7 85 40 fd ff
	ff 0a 00 00 00	 mov	 DWORD PTR tv1717[ebp], 10 ; 0000000aH
  02e9b	eb 27		 jmp	 SHORT $LN299@transmit_e
$LN298@transmit_e:
  02e9d	8b 15 00 00 00
	00		 mov	 edx, DWORD PTR ?__LINE__Var@?0??transmit_entity_comms_message@@YAXW4ENTITY_COMMS_MESSAGES@@PAUENTITY@@ZZ@4JA
  02ea3	81 c2 8e 08 00
	00		 add	 edx, 2190		; 0000088eH
  02ea9	52		 push	 edx
  02eaa	68 00 00 00 00	 push	 OFFSET ??_C@_0EO@OCMIKFBI@c?3?2users?2nhv90?2projects?2eech?2ap@
  02eaf	a1 00 00 00 00	 mov	 eax, DWORD PTR ?overload_invalid_string_type_message@@3PBDB ; overload_invalid_string_type_message
  02eb4	50		 push	 eax
  02eb5	e8 00 00 00 00	 call	 ?process_assert@@YGXPBD0H@Z ; process_assert
  02eba	c7 85 40 fd ff
	ff 00 00 00 00	 mov	 DWORD PTR tv1717[ebp], 0
$LN299@transmit_e:
  02ec4	6a 0a		 push	 10			; 0000000aH
  02ec6	8b 4d 0c	 mov	 ecx, DWORD PTR _en$[ebp]
  02ec9	51		 push	 ecx
  02eca	6b 95 44 fd ff
	ff 34		 imul	 edx, DWORD PTR tv1709[ebp], 52
  02ed1	8b 85 40 fd ff
	ff		 mov	 eax, DWORD PTR tv1717[ebp]
  02ed7	8b 8c 82 00 00
	00 00		 mov	 ecx, DWORD PTR ?fn_get_local_entity_string@@3PAY0N@P6GPBDPAUENTITY@@W4STRING_TYPES@@@ZA[edx+eax*4]
  02ede	ff d1		 call	 ecx
  02ee0	50		 push	 eax
  02ee1	68 00 00 00 00	 push	 OFFSET ??_C@_0CN@EGPAMJPG@EN_COMMS?3?5sending?5assign?5task?5r@
  02ee6	e8 00 00 00 00	 call	 ?debug_log@@YAXPBDZZ	; debug_log
  02eeb	83 c4 08	 add	 esp, 8
$LN201@transmit_e:

; 2664 : 			}
; 2665 : 
; 2666 : //			#endif
; 2667 : 
; 2668 : 			break;

  02eee	e9 d2 06 00 00	 jmp	 $LN2@transmit_e
$LN202@transmit_e:

; 2669 : 		}
; 2670 : 		////////////////////////////////////////
; 2671 : 		case ENTITY_COMMS_TASK_KILL:
; 2672 : 		////////////////////////////////////////
; 2673 : 		{
; 2674 : 			entity
; 2675 : 				*victim,
; 2676 : 				*aggressor;
; 2677 : 
; 2678 : 			//
; 2679 : 			// (entity_comms_messages message, entity *task, entity *victim, entity *aggressor)
; 2680 : 			//
; 2681 : 
; 2682 : 			ASSERT (get_comms_model () == COMMS_MODEL_SERVER);

  02ef3	83 3d 00 00 00
	00 00		 cmp	 DWORD PTR ?system_comms_model@@3W4COMMS_MODEL_TYPES@@A, 0 ; system_comms_model
  02efa	74 1a		 je	 SHORT $LN203@transmit_e
  02efc	a1 00 00 00 00	 mov	 eax, DWORD PTR ?__LINE__Var@?0??transmit_entity_comms_message@@YAXW4ENTITY_COMMS_MESSAGES@@PAUENTITY@@ZZ@4JA
  02f01	05 a1 08 00 00	 add	 eax, 2209		; 000008a1H
  02f06	50		 push	 eax
  02f07	68 00 00 00 00	 push	 OFFSET ??_C@_0EO@OCMIKFBI@c?3?2users?2nhv90?2projects?2eech?2ap@
  02f0c	68 00 00 00 00	 push	 OFFSET ??_C@_0CJ@DMBLBJBK@get_comms_model?5?$CI?$CJ?5?$DN?$DN?5COMMS_MOD@
  02f11	e8 00 00 00 00	 call	 ?process_assert@@YGXPBD0H@Z ; process_assert
$LN203@transmit_e:

; 2683 : 
; 2684 : 			ASSERT (en);

  02f16	83 7d 0c 00	 cmp	 DWORD PTR _en$[ebp], 0
  02f1a	75 1a		 jne	 SHORT $LN204@transmit_e
  02f1c	a1 00 00 00 00	 mov	 eax, DWORD PTR ?__LINE__Var@?0??transmit_entity_comms_message@@YAXW4ENTITY_COMMS_MESSAGES@@PAUENTITY@@ZZ@4JA
  02f21	05 a3 08 00 00	 add	 eax, 2211		; 000008a3H
  02f26	50		 push	 eax
  02f27	68 00 00 00 00	 push	 OFFSET ??_C@_0EO@OCMIKFBI@c?3?2users?2nhv90?2projects?2eech?2ap@
  02f2c	68 00 00 00 00	 push	 OFFSET ??_C@_02LFNMGJAP@en@
  02f31	e8 00 00 00 00	 call	 ?process_assert@@YGXPBD0H@Z ; process_assert
$LN204@transmit_e:

; 2685 : 
; 2686 : 			victim = va_arg (pargs, entity *);

  02f36	8b 45 fc	 mov	 eax, DWORD PTR _pargs$[ebp]
  02f39	83 c0 04	 add	 eax, 4
  02f3c	89 45 fc	 mov	 DWORD PTR _pargs$[ebp], eax
  02f3f	8b 4d fc	 mov	 ecx, DWORD PTR _pargs$[ebp]
  02f42	8b 51 fc	 mov	 edx, DWORD PTR [ecx-4]
  02f45	89 95 e4 fd ff
	ff		 mov	 DWORD PTR _victim$7[ebp], edx

; 2687 : 
; 2688 : 			aggressor = va_arg (pargs, entity *);

  02f4b	8b 45 fc	 mov	 eax, DWORD PTR _pargs$[ebp]
  02f4e	83 c0 04	 add	 eax, 4
  02f51	89 45 fc	 mov	 DWORD PTR _pargs$[ebp], eax
  02f54	8b 4d fc	 mov	 ecx, DWORD PTR _pargs$[ebp]
  02f57	8b 51 fc	 mov	 edx, DWORD PTR [ecx-4]
  02f5a	89 95 e0 fd ff
	ff		 mov	 DWORD PTR _aggressor$6[ebp], edx

; 2689 : 
; 2690 : 			pack_entity_safe_ptr (en);

  02f60	8b 45 0c	 mov	 eax, DWORD PTR _en$[ebp]
  02f63	50		 push	 eax
  02f64	e8 00 00 00 00	 call	 ?pack_entity_safe_ptr@@YGXPAUENTITY@@@Z ; pack_entity_safe_ptr

; 2691 : 			pack_entity_safe_ptr (victim);

  02f69	8b 85 e4 fd ff
	ff		 mov	 eax, DWORD PTR _victim$7[ebp]
  02f6f	50		 push	 eax
  02f70	e8 00 00 00 00	 call	 ?pack_entity_safe_ptr@@YGXPAUENTITY@@@Z ; pack_entity_safe_ptr

; 2692 : 			pack_entity_safe_ptr (aggressor);

  02f75	8b 85 e0 fd ff
	ff		 mov	 eax, DWORD PTR _aggressor$6[ebp]
  02f7b	50		 push	 eax
  02f7c	e8 00 00 00 00	 call	 ?pack_entity_safe_ptr@@YGXPAUENTITY@@@Z ; pack_entity_safe_ptr

; 2693 : 
; 2694 : 			debug_log ("EN_COMMS: sending task kill for %s (%d), victim %s (%d), aggressor %s (%d)",

  02f81	83 bd e0 fd ff
	ff 00		 cmp	 DWORD PTR _aggressor$6[ebp], 0
  02f88	74 10		 je	 SHORT $LN300@transmit_e
  02f8a	8b 85 e0 fd ff
	ff		 mov	 eax, DWORD PTR _aggressor$6[ebp]
  02f90	8b 08		 mov	 ecx, DWORD PTR [eax]
  02f92	89 8d 44 fd ff
	ff		 mov	 DWORD PTR tv1751[ebp], ecx
  02f98	eb 27		 jmp	 SHORT $LN301@transmit_e
$LN300@transmit_e:
  02f9a	8b 15 00 00 00
	00		 mov	 edx, DWORD PTR ?__LINE__Var@?0??transmit_entity_comms_message@@YAXW4ENTITY_COMMS_MESSAGES@@PAUENTITY@@ZZ@4JA
  02fa0	81 c2 b0 08 00
	00		 add	 edx, 2224		; 000008b0H
  02fa6	52		 push	 edx
  02fa7	68 00 00 00 00	 push	 OFFSET ??_C@_0EO@OCMIKFBI@c?3?2users?2nhv90?2projects?2eech?2ap@
  02fac	a1 00 00 00 00	 mov	 eax, DWORD PTR ?null_entity_pointer_message@@3PBDB ; null_entity_pointer_message
  02fb1	50		 push	 eax
  02fb2	e8 00 00 00 00	 call	 ?process_assert@@YGXPBD0H@Z ; process_assert
  02fb7	c7 85 44 fd ff
	ff 00 00 00 00	 mov	 DWORD PTR tv1751[ebp], 0
$LN301@transmit_e:
  02fc1	b9 01 00 00 00	 mov	 ecx, 1
  02fc6	85 c9		 test	 ecx, ecx
  02fc8	74 0c		 je	 SHORT $LN302@transmit_e
  02fca	c7 85 40 fd ff
	ff 03 00 00 00	 mov	 DWORD PTR tv1759[ebp], 3
  02fd4	eb 27		 jmp	 SHORT $LN303@transmit_e
$LN302@transmit_e:
  02fd6	8b 15 00 00 00
	00		 mov	 edx, DWORD PTR ?__LINE__Var@?0??transmit_entity_comms_message@@YAXW4ENTITY_COMMS_MESSAGES@@PAUENTITY@@ZZ@4JA
  02fdc	81 c2 b0 08 00
	00		 add	 edx, 2224		; 000008b0H
  02fe2	52		 push	 edx
  02fe3	68 00 00 00 00	 push	 OFFSET ??_C@_0EO@OCMIKFBI@c?3?2users?2nhv90?2projects?2eech?2ap@
  02fe8	a1 00 00 00 00	 mov	 eax, DWORD PTR ?overload_invalid_string_type_message@@3PBDB ; overload_invalid_string_type_message
  02fed	50		 push	 eax
  02fee	e8 00 00 00 00	 call	 ?process_assert@@YGXPBD0H@Z ; process_assert
  02ff3	c7 85 40 fd ff
	ff 00 00 00 00	 mov	 DWORD PTR tv1759[ebp], 0
$LN303@transmit_e:
  02ffd	83 bd e4 fd ff
	ff 00		 cmp	 DWORD PTR _victim$7[ebp], 0
  03004	74 10		 je	 SHORT $LN304@transmit_e
  03006	8b 8d e4 fd ff
	ff		 mov	 ecx, DWORD PTR _victim$7[ebp]
  0300c	8b 11		 mov	 edx, DWORD PTR [ecx]
  0300e	89 95 3c fd ff
	ff		 mov	 DWORD PTR tv1775[ebp], edx
  03014	eb 26		 jmp	 SHORT $LN305@transmit_e
$LN304@transmit_e:
  03016	a1 00 00 00 00	 mov	 eax, DWORD PTR ?__LINE__Var@?0??transmit_entity_comms_message@@YAXW4ENTITY_COMMS_MESSAGES@@PAUENTITY@@ZZ@4JA
  0301b	05 af 08 00 00	 add	 eax, 2223		; 000008afH
  03020	50		 push	 eax
  03021	68 00 00 00 00	 push	 OFFSET ??_C@_0EO@OCMIKFBI@c?3?2users?2nhv90?2projects?2eech?2ap@
  03026	8b 0d 00 00 00
	00		 mov	 ecx, DWORD PTR ?null_entity_pointer_message@@3PBDB ; null_entity_pointer_message
  0302c	51		 push	 ecx
  0302d	e8 00 00 00 00	 call	 ?process_assert@@YGXPBD0H@Z ; process_assert
  03032	c7 85 3c fd ff
	ff 00 00 00 00	 mov	 DWORD PTR tv1775[ebp], 0
$LN305@transmit_e:
  0303c	ba 01 00 00 00	 mov	 edx, 1
  03041	85 d2		 test	 edx, edx
  03043	74 0c		 je	 SHORT $LN306@transmit_e
  03045	c7 85 38 fd ff
	ff 03 00 00 00	 mov	 DWORD PTR tv1783[ebp], 3
  0304f	eb 26		 jmp	 SHORT $LN307@transmit_e
$LN306@transmit_e:
  03051	a1 00 00 00 00	 mov	 eax, DWORD PTR ?__LINE__Var@?0??transmit_entity_comms_message@@YAXW4ENTITY_COMMS_MESSAGES@@PAUENTITY@@ZZ@4JA
  03056	05 af 08 00 00	 add	 eax, 2223		; 000008afH
  0305b	50		 push	 eax
  0305c	68 00 00 00 00	 push	 OFFSET ??_C@_0EO@OCMIKFBI@c?3?2users?2nhv90?2projects?2eech?2ap@
  03061	8b 0d 00 00 00
	00		 mov	 ecx, DWORD PTR ?overload_invalid_string_type_message@@3PBDB ; overload_invalid_string_type_message
  03067	51		 push	 ecx
  03068	e8 00 00 00 00	 call	 ?process_assert@@YGXPBD0H@Z ; process_assert
  0306d	c7 85 38 fd ff
	ff 00 00 00 00	 mov	 DWORD PTR tv1783[ebp], 0
$LN307@transmit_e:
  03077	83 7d 0c 00	 cmp	 DWORD PTR _en$[ebp], 0
  0307b	74 0d		 je	 SHORT $LN308@transmit_e
  0307d	8b 55 0c	 mov	 edx, DWORD PTR _en$[ebp]
  03080	8b 02		 mov	 eax, DWORD PTR [edx]
  03082	89 85 34 fd ff
	ff		 mov	 DWORD PTR tv1799[ebp], eax
  03088	eb 28		 jmp	 SHORT $LN309@transmit_e
$LN308@transmit_e:
  0308a	8b 0d 00 00 00
	00		 mov	 ecx, DWORD PTR ?__LINE__Var@?0??transmit_entity_comms_message@@YAXW4ENTITY_COMMS_MESSAGES@@PAUENTITY@@ZZ@4JA
  03090	81 c1 ae 08 00
	00		 add	 ecx, 2222		; 000008aeH
  03096	51		 push	 ecx
  03097	68 00 00 00 00	 push	 OFFSET ??_C@_0EO@OCMIKFBI@c?3?2users?2nhv90?2projects?2eech?2ap@
  0309c	8b 15 00 00 00
	00		 mov	 edx, DWORD PTR ?null_entity_pointer_message@@3PBDB ; null_entity_pointer_message
  030a2	52		 push	 edx
  030a3	e8 00 00 00 00	 call	 ?process_assert@@YGXPBD0H@Z ; process_assert
  030a8	c7 85 34 fd ff
	ff 00 00 00 00	 mov	 DWORD PTR tv1799[ebp], 0
$LN309@transmit_e:
  030b2	b8 01 00 00 00	 mov	 eax, 1
  030b7	85 c0		 test	 eax, eax
  030b9	74 0c		 je	 SHORT $LN310@transmit_e
  030bb	c7 85 30 fd ff
	ff 03 00 00 00	 mov	 DWORD PTR tv1807[ebp], 3
  030c5	eb 28		 jmp	 SHORT $LN311@transmit_e
$LN310@transmit_e:
  030c7	8b 0d 00 00 00
	00		 mov	 ecx, DWORD PTR ?__LINE__Var@?0??transmit_entity_comms_message@@YAXW4ENTITY_COMMS_MESSAGES@@PAUENTITY@@ZZ@4JA
  030cd	81 c1 ae 08 00
	00		 add	 ecx, 2222		; 000008aeH
  030d3	51		 push	 ecx
  030d4	68 00 00 00 00	 push	 OFFSET ??_C@_0EO@OCMIKFBI@c?3?2users?2nhv90?2projects?2eech?2ap@
  030d9	8b 15 00 00 00
	00		 mov	 edx, DWORD PTR ?overload_invalid_string_type_message@@3PBDB ; overload_invalid_string_type_message
  030df	52		 push	 edx
  030e0	e8 00 00 00 00	 call	 ?process_assert@@YGXPBD0H@Z ; process_assert
  030e5	c7 85 30 fd ff
	ff 00 00 00 00	 mov	 DWORD PTR tv1807[ebp], 0
$LN311@transmit_e:
  030ef	8b 85 e0 fd ff
	ff		 mov	 eax, DWORD PTR _aggressor$6[ebp]
  030f5	2b 05 00 00 00
	00		 sub	 eax, DWORD PTR ?entities@@3PAUENTITY@@A ; entities
  030fb	c1 f8 04	 sar	 eax, 4
  030fe	50		 push	 eax
  030ff	6a 03		 push	 3
  03101	8b 8d e0 fd ff
	ff		 mov	 ecx, DWORD PTR _aggressor$6[ebp]
  03107	51		 push	 ecx
  03108	6b 95 44 fd ff
	ff 34		 imul	 edx, DWORD PTR tv1751[ebp], 52
  0310f	8b 85 40 fd ff
	ff		 mov	 eax, DWORD PTR tv1759[ebp]
  03115	8b 8c 82 00 00
	00 00		 mov	 ecx, DWORD PTR ?fn_get_local_entity_string@@3PAY0N@P6GPBDPAUENTITY@@W4STRING_TYPES@@@ZA[edx+eax*4]
  0311c	ff d1		 call	 ecx
  0311e	50		 push	 eax
  0311f	8b 95 e4 fd ff
	ff		 mov	 edx, DWORD PTR _victim$7[ebp]
  03125	2b 15 00 00 00
	00		 sub	 edx, DWORD PTR ?entities@@3PAUENTITY@@A ; entities
  0312b	c1 fa 04	 sar	 edx, 4
  0312e	52		 push	 edx
  0312f	6a 03		 push	 3
  03131	8b 85 e4 fd ff
	ff		 mov	 eax, DWORD PTR _victim$7[ebp]
  03137	50		 push	 eax
  03138	6b 8d 3c fd ff
	ff 34		 imul	 ecx, DWORD PTR tv1775[ebp], 52
  0313f	8b 95 38 fd ff
	ff		 mov	 edx, DWORD PTR tv1783[ebp]
  03145	8b 84 91 00 00
	00 00		 mov	 eax, DWORD PTR ?fn_get_local_entity_string@@3PAY0N@P6GPBDPAUENTITY@@W4STRING_TYPES@@@ZA[ecx+edx*4]
  0314c	ff d0		 call	 eax
  0314e	50		 push	 eax
  0314f	8b 4d 0c	 mov	 ecx, DWORD PTR _en$[ebp]
  03152	2b 0d 00 00 00
	00		 sub	 ecx, DWORD PTR ?entities@@3PAUENTITY@@A ; entities
  03158	c1 f9 04	 sar	 ecx, 4
  0315b	51		 push	 ecx
  0315c	6a 03		 push	 3
  0315e	8b 55 0c	 mov	 edx, DWORD PTR _en$[ebp]
  03161	52		 push	 edx
  03162	6b 85 34 fd ff
	ff 34		 imul	 eax, DWORD PTR tv1799[ebp], 52
  03169	8b 8d 30 fd ff
	ff		 mov	 ecx, DWORD PTR tv1807[ebp]
  0316f	8b 94 88 00 00
	00 00		 mov	 edx, DWORD PTR ?fn_get_local_entity_string@@3PAY0N@P6GPBDPAUENTITY@@W4STRING_TYPES@@@ZA[eax+ecx*4]
  03176	ff d2		 call	 edx
  03178	50		 push	 eax
  03179	68 00 00 00 00	 push	 OFFSET ??_C@_0EL@HBMCHNPH@EN_COMMS?3?5sending?5task?5kill?5for@
  0317e	e8 00 00 00 00	 call	 ?debug_log@@YAXPBDZZ	; debug_log
  03183	83 c4 1c	 add	 esp, 28			; 0000001cH

; 2695 : 							get_local_entity_string (en, STRING_TYPE_FULL_NAME), get_local_entity_index (en),
; 2696 : 							get_local_entity_string (victim, STRING_TYPE_FULL_NAME), get_local_entity_index (victim),
; 2697 : 							get_local_entity_string (aggressor, STRING_TYPE_FULL_NAME), get_local_entity_index (aggressor));
; 2698 : 
; 2699 : 			break;

  03186	e9 3a 04 00 00	 jmp	 $LN2@transmit_e
$LN205@transmit_e:

; 2700 : 		}
; 2701 : 		////////////////////////////////////////
; 2702 : 		case ENTITY_COMMS_TASK_LOSS:
; 2703 : 		////////////////////////////////////////
; 2704 : 		{
; 2705 : 			entity
; 2706 : 				*victim,
; 2707 : 				*aggressor;
; 2708 : 
; 2709 : 			//
; 2710 : 			// (entity_comms_messages message, entity *task, entity *victim, entity *aggressor)
; 2711 : 			//
; 2712 : 
; 2713 : 			ASSERT (get_comms_model () == COMMS_MODEL_SERVER);

  0318b	83 3d 00 00 00
	00 00		 cmp	 DWORD PTR ?system_comms_model@@3W4COMMS_MODEL_TYPES@@A, 0 ; system_comms_model
  03192	74 1a		 je	 SHORT $LN206@transmit_e
  03194	a1 00 00 00 00	 mov	 eax, DWORD PTR ?__LINE__Var@?0??transmit_entity_comms_message@@YAXW4ENTITY_COMMS_MESSAGES@@PAUENTITY@@ZZ@4JA
  03199	05 c0 08 00 00	 add	 eax, 2240		; 000008c0H
  0319e	50		 push	 eax
  0319f	68 00 00 00 00	 push	 OFFSET ??_C@_0EO@OCMIKFBI@c?3?2users?2nhv90?2projects?2eech?2ap@
  031a4	68 00 00 00 00	 push	 OFFSET ??_C@_0CJ@DMBLBJBK@get_comms_model?5?$CI?$CJ?5?$DN?$DN?5COMMS_MOD@
  031a9	e8 00 00 00 00	 call	 ?process_assert@@YGXPBD0H@Z ; process_assert
$LN206@transmit_e:

; 2714 : 
; 2715 : 			ASSERT (en);

  031ae	83 7d 0c 00	 cmp	 DWORD PTR _en$[ebp], 0
  031b2	75 1a		 jne	 SHORT $LN207@transmit_e
  031b4	a1 00 00 00 00	 mov	 eax, DWORD PTR ?__LINE__Var@?0??transmit_entity_comms_message@@YAXW4ENTITY_COMMS_MESSAGES@@PAUENTITY@@ZZ@4JA
  031b9	05 c2 08 00 00	 add	 eax, 2242		; 000008c2H
  031be	50		 push	 eax
  031bf	68 00 00 00 00	 push	 OFFSET ??_C@_0EO@OCMIKFBI@c?3?2users?2nhv90?2projects?2eech?2ap@
  031c4	68 00 00 00 00	 push	 OFFSET ??_C@_02LFNMGJAP@en@
  031c9	e8 00 00 00 00	 call	 ?process_assert@@YGXPBD0H@Z ; process_assert
$LN207@transmit_e:

; 2716 : 
; 2717 : 			victim = va_arg (pargs, entity *);

  031ce	8b 45 fc	 mov	 eax, DWORD PTR _pargs$[ebp]
  031d1	83 c0 04	 add	 eax, 4
  031d4	89 45 fc	 mov	 DWORD PTR _pargs$[ebp], eax
  031d7	8b 4d fc	 mov	 ecx, DWORD PTR _pargs$[ebp]
  031da	8b 51 fc	 mov	 edx, DWORD PTR [ecx-4]
  031dd	89 95 dc fd ff
	ff		 mov	 DWORD PTR _victim$5[ebp], edx

; 2718 : 
; 2719 : 			aggressor = va_arg (pargs, entity *);

  031e3	8b 45 fc	 mov	 eax, DWORD PTR _pargs$[ebp]
  031e6	83 c0 04	 add	 eax, 4
  031e9	89 45 fc	 mov	 DWORD PTR _pargs$[ebp], eax
  031ec	8b 4d fc	 mov	 ecx, DWORD PTR _pargs$[ebp]
  031ef	8b 51 fc	 mov	 edx, DWORD PTR [ecx-4]
  031f2	89 95 d8 fd ff
	ff		 mov	 DWORD PTR _aggressor$4[ebp], edx

; 2720 : 
; 2721 : 			pack_entity_safe_ptr (en);

  031f8	8b 45 0c	 mov	 eax, DWORD PTR _en$[ebp]
  031fb	50		 push	 eax
  031fc	e8 00 00 00 00	 call	 ?pack_entity_safe_ptr@@YGXPAUENTITY@@@Z ; pack_entity_safe_ptr

; 2722 : 			pack_entity_safe_ptr (victim);

  03201	8b 85 dc fd ff
	ff		 mov	 eax, DWORD PTR _victim$5[ebp]
  03207	50		 push	 eax
  03208	e8 00 00 00 00	 call	 ?pack_entity_safe_ptr@@YGXPAUENTITY@@@Z ; pack_entity_safe_ptr

; 2723 : 			pack_entity_safe_ptr (aggressor);

  0320d	8b 85 d8 fd ff
	ff		 mov	 eax, DWORD PTR _aggressor$4[ebp]
  03213	50		 push	 eax
  03214	e8 00 00 00 00	 call	 ?pack_entity_safe_ptr@@YGXPAUENTITY@@@Z ; pack_entity_safe_ptr

; 2724 : 
; 2725 : 			debug_log ("EN_COMMS: sending task loss for %s (%d), victim %s (%d), aggressor %s (%d)",

  03219	83 bd d8 fd ff
	ff 00		 cmp	 DWORD PTR _aggressor$4[ebp], 0
  03220	74 10		 je	 SHORT $LN312@transmit_e
  03222	8b 85 d8 fd ff
	ff		 mov	 eax, DWORD PTR _aggressor$4[ebp]
  03228	8b 08		 mov	 ecx, DWORD PTR [eax]
  0322a	89 8d 44 fd ff
	ff		 mov	 DWORD PTR tv1841[ebp], ecx
  03230	eb 27		 jmp	 SHORT $LN313@transmit_e
$LN312@transmit_e:
  03232	8b 15 00 00 00
	00		 mov	 edx, DWORD PTR ?__LINE__Var@?0??transmit_entity_comms_message@@YAXW4ENTITY_COMMS_MESSAGES@@PAUENTITY@@ZZ@4JA
  03238	81 c2 cf 08 00
	00		 add	 edx, 2255		; 000008cfH
  0323e	52		 push	 edx
  0323f	68 00 00 00 00	 push	 OFFSET ??_C@_0EO@OCMIKFBI@c?3?2users?2nhv90?2projects?2eech?2ap@
  03244	a1 00 00 00 00	 mov	 eax, DWORD PTR ?null_entity_pointer_message@@3PBDB ; null_entity_pointer_message
  03249	50		 push	 eax
  0324a	e8 00 00 00 00	 call	 ?process_assert@@YGXPBD0H@Z ; process_assert
  0324f	c7 85 44 fd ff
	ff 00 00 00 00	 mov	 DWORD PTR tv1841[ebp], 0
$LN313@transmit_e:
  03259	b9 01 00 00 00	 mov	 ecx, 1
  0325e	85 c9		 test	 ecx, ecx
  03260	74 0c		 je	 SHORT $LN314@transmit_e
  03262	c7 85 40 fd ff
	ff 03 00 00 00	 mov	 DWORD PTR tv1849[ebp], 3
  0326c	eb 27		 jmp	 SHORT $LN315@transmit_e
$LN314@transmit_e:
  0326e	8b 15 00 00 00
	00		 mov	 edx, DWORD PTR ?__LINE__Var@?0??transmit_entity_comms_message@@YAXW4ENTITY_COMMS_MESSAGES@@PAUENTITY@@ZZ@4JA
  03274	81 c2 cf 08 00
	00		 add	 edx, 2255		; 000008cfH
  0327a	52		 push	 edx
  0327b	68 00 00 00 00	 push	 OFFSET ??_C@_0EO@OCMIKFBI@c?3?2users?2nhv90?2projects?2eech?2ap@
  03280	a1 00 00 00 00	 mov	 eax, DWORD PTR ?overload_invalid_string_type_message@@3PBDB ; overload_invalid_string_type_message
  03285	50		 push	 eax
  03286	e8 00 00 00 00	 call	 ?process_assert@@YGXPBD0H@Z ; process_assert
  0328b	c7 85 40 fd ff
	ff 00 00 00 00	 mov	 DWORD PTR tv1849[ebp], 0
$LN315@transmit_e:
  03295	83 bd dc fd ff
	ff 00		 cmp	 DWORD PTR _victim$5[ebp], 0
  0329c	74 10		 je	 SHORT $LN316@transmit_e
  0329e	8b 8d dc fd ff
	ff		 mov	 ecx, DWORD PTR _victim$5[ebp]
  032a4	8b 11		 mov	 edx, DWORD PTR [ecx]
  032a6	89 95 3c fd ff
	ff		 mov	 DWORD PTR tv1865[ebp], edx
  032ac	eb 26		 jmp	 SHORT $LN317@transmit_e
$LN316@transmit_e:
  032ae	a1 00 00 00 00	 mov	 eax, DWORD PTR ?__LINE__Var@?0??transmit_entity_comms_message@@YAXW4ENTITY_COMMS_MESSAGES@@PAUENTITY@@ZZ@4JA
  032b3	05 ce 08 00 00	 add	 eax, 2254		; 000008ceH
  032b8	50		 push	 eax
  032b9	68 00 00 00 00	 push	 OFFSET ??_C@_0EO@OCMIKFBI@c?3?2users?2nhv90?2projects?2eech?2ap@
  032be	8b 0d 00 00 00
	00		 mov	 ecx, DWORD PTR ?null_entity_pointer_message@@3PBDB ; null_entity_pointer_message
  032c4	51		 push	 ecx
  032c5	e8 00 00 00 00	 call	 ?process_assert@@YGXPBD0H@Z ; process_assert
  032ca	c7 85 3c fd ff
	ff 00 00 00 00	 mov	 DWORD PTR tv1865[ebp], 0
$LN317@transmit_e:
  032d4	ba 01 00 00 00	 mov	 edx, 1
  032d9	85 d2		 test	 edx, edx
  032db	74 0c		 je	 SHORT $LN318@transmit_e
  032dd	c7 85 38 fd ff
	ff 03 00 00 00	 mov	 DWORD PTR tv1873[ebp], 3
  032e7	eb 26		 jmp	 SHORT $LN319@transmit_e
$LN318@transmit_e:
  032e9	a1 00 00 00 00	 mov	 eax, DWORD PTR ?__LINE__Var@?0??transmit_entity_comms_message@@YAXW4ENTITY_COMMS_MESSAGES@@PAUENTITY@@ZZ@4JA
  032ee	05 ce 08 00 00	 add	 eax, 2254		; 000008ceH
  032f3	50		 push	 eax
  032f4	68 00 00 00 00	 push	 OFFSET ??_C@_0EO@OCMIKFBI@c?3?2users?2nhv90?2projects?2eech?2ap@
  032f9	8b 0d 00 00 00
	00		 mov	 ecx, DWORD PTR ?overload_invalid_string_type_message@@3PBDB ; overload_invalid_string_type_message
  032ff	51		 push	 ecx
  03300	e8 00 00 00 00	 call	 ?process_assert@@YGXPBD0H@Z ; process_assert
  03305	c7 85 38 fd ff
	ff 00 00 00 00	 mov	 DWORD PTR tv1873[ebp], 0
$LN319@transmit_e:
  0330f	83 7d 0c 00	 cmp	 DWORD PTR _en$[ebp], 0
  03313	74 0d		 je	 SHORT $LN320@transmit_e
  03315	8b 55 0c	 mov	 edx, DWORD PTR _en$[ebp]
  03318	8b 02		 mov	 eax, DWORD PTR [edx]
  0331a	89 85 34 fd ff
	ff		 mov	 DWORD PTR tv1889[ebp], eax
  03320	eb 28		 jmp	 SHORT $LN321@transmit_e
$LN320@transmit_e:
  03322	8b 0d 00 00 00
	00		 mov	 ecx, DWORD PTR ?__LINE__Var@?0??transmit_entity_comms_message@@YAXW4ENTITY_COMMS_MESSAGES@@PAUENTITY@@ZZ@4JA
  03328	81 c1 cd 08 00
	00		 add	 ecx, 2253		; 000008cdH
  0332e	51		 push	 ecx
  0332f	68 00 00 00 00	 push	 OFFSET ??_C@_0EO@OCMIKFBI@c?3?2users?2nhv90?2projects?2eech?2ap@
  03334	8b 15 00 00 00
	00		 mov	 edx, DWORD PTR ?null_entity_pointer_message@@3PBDB ; null_entity_pointer_message
  0333a	52		 push	 edx
  0333b	e8 00 00 00 00	 call	 ?process_assert@@YGXPBD0H@Z ; process_assert
  03340	c7 85 34 fd ff
	ff 00 00 00 00	 mov	 DWORD PTR tv1889[ebp], 0
$LN321@transmit_e:
  0334a	b8 01 00 00 00	 mov	 eax, 1
  0334f	85 c0		 test	 eax, eax
  03351	74 0c		 je	 SHORT $LN322@transmit_e
  03353	c7 85 30 fd ff
	ff 03 00 00 00	 mov	 DWORD PTR tv1897[ebp], 3
  0335d	eb 28		 jmp	 SHORT $LN323@transmit_e
$LN322@transmit_e:
  0335f	8b 0d 00 00 00
	00		 mov	 ecx, DWORD PTR ?__LINE__Var@?0??transmit_entity_comms_message@@YAXW4ENTITY_COMMS_MESSAGES@@PAUENTITY@@ZZ@4JA
  03365	81 c1 cd 08 00
	00		 add	 ecx, 2253		; 000008cdH
  0336b	51		 push	 ecx
  0336c	68 00 00 00 00	 push	 OFFSET ??_C@_0EO@OCMIKFBI@c?3?2users?2nhv90?2projects?2eech?2ap@
  03371	8b 15 00 00 00
	00		 mov	 edx, DWORD PTR ?overload_invalid_string_type_message@@3PBDB ; overload_invalid_string_type_message
  03377	52		 push	 edx
  03378	e8 00 00 00 00	 call	 ?process_assert@@YGXPBD0H@Z ; process_assert
  0337d	c7 85 30 fd ff
	ff 00 00 00 00	 mov	 DWORD PTR tv1897[ebp], 0
$LN323@transmit_e:
  03387	8b 85 d8 fd ff
	ff		 mov	 eax, DWORD PTR _aggressor$4[ebp]
  0338d	2b 05 00 00 00
	00		 sub	 eax, DWORD PTR ?entities@@3PAUENTITY@@A ; entities
  03393	c1 f8 04	 sar	 eax, 4
  03396	50		 push	 eax
  03397	6a 03		 push	 3
  03399	8b 8d d8 fd ff
	ff		 mov	 ecx, DWORD PTR _aggressor$4[ebp]
  0339f	51		 push	 ecx
  033a0	6b 95 44 fd ff
	ff 34		 imul	 edx, DWORD PTR tv1841[ebp], 52
  033a7	8b 85 40 fd ff
	ff		 mov	 eax, DWORD PTR tv1849[ebp]
  033ad	8b 8c 82 00 00
	00 00		 mov	 ecx, DWORD PTR ?fn_get_local_entity_string@@3PAY0N@P6GPBDPAUENTITY@@W4STRING_TYPES@@@ZA[edx+eax*4]
  033b4	ff d1		 call	 ecx
  033b6	50		 push	 eax
  033b7	8b 95 dc fd ff
	ff		 mov	 edx, DWORD PTR _victim$5[ebp]
  033bd	2b 15 00 00 00
	00		 sub	 edx, DWORD PTR ?entities@@3PAUENTITY@@A ; entities
  033c3	c1 fa 04	 sar	 edx, 4
  033c6	52		 push	 edx
  033c7	6a 03		 push	 3
  033c9	8b 85 dc fd ff
	ff		 mov	 eax, DWORD PTR _victim$5[ebp]
  033cf	50		 push	 eax
  033d0	6b 8d 3c fd ff
	ff 34		 imul	 ecx, DWORD PTR tv1865[ebp], 52
  033d7	8b 95 38 fd ff
	ff		 mov	 edx, DWORD PTR tv1873[ebp]
  033dd	8b 84 91 00 00
	00 00		 mov	 eax, DWORD PTR ?fn_get_local_entity_string@@3PAY0N@P6GPBDPAUENTITY@@W4STRING_TYPES@@@ZA[ecx+edx*4]
  033e4	ff d0		 call	 eax
  033e6	50		 push	 eax
  033e7	8b 4d 0c	 mov	 ecx, DWORD PTR _en$[ebp]
  033ea	2b 0d 00 00 00
	00		 sub	 ecx, DWORD PTR ?entities@@3PAUENTITY@@A ; entities
  033f0	c1 f9 04	 sar	 ecx, 4
  033f3	51		 push	 ecx
  033f4	6a 03		 push	 3
  033f6	8b 55 0c	 mov	 edx, DWORD PTR _en$[ebp]
  033f9	52		 push	 edx
  033fa	6b 85 34 fd ff
	ff 34		 imul	 eax, DWORD PTR tv1889[ebp], 52
  03401	8b 8d 30 fd ff
	ff		 mov	 ecx, DWORD PTR tv1897[ebp]
  03407	8b 94 88 00 00
	00 00		 mov	 edx, DWORD PTR ?fn_get_local_entity_string@@3PAY0N@P6GPBDPAUENTITY@@W4STRING_TYPES@@@ZA[eax+ecx*4]
  0340e	ff d2		 call	 edx
  03410	50		 push	 eax
  03411	68 00 00 00 00	 push	 OFFSET ??_C@_0EL@LLAFPFKC@EN_COMMS?3?5sending?5task?5loss?5for@
  03416	e8 00 00 00 00	 call	 ?debug_log@@YAXPBDZZ	; debug_log
  0341b	83 c4 1c	 add	 esp, 28			; 0000001cH

; 2726 : 							get_local_entity_string (en, STRING_TYPE_FULL_NAME), get_local_entity_index (en),
; 2727 : 							get_local_entity_string (victim, STRING_TYPE_FULL_NAME), get_local_entity_index (victim),
; 2728 : 							get_local_entity_string (aggressor, STRING_TYPE_FULL_NAME), get_local_entity_index (aggressor));
; 2729 : 
; 2730 : 			break;

  0341e	e9 a2 01 00 00	 jmp	 $LN2@transmit_e
$LN208@transmit_e:

; 2731 : 		}
; 2732 : 		////////////////////////////////////////
; 2733 : 		case ENTITY_COMMS_UPDATE:
; 2734 : 		////////////////////////////////////////
; 2735 : 		{
; 2736 : 			//
; 2737 : 			// (entity_comms_messages message, entity *en)
; 2738 : 			//
; 2739 : 
; 2740 : 			ASSERT (en);

  03423	83 7d 0c 00	 cmp	 DWORD PTR _en$[ebp], 0
  03427	75 1a		 jne	 SHORT $LN209@transmit_e
  03429	a1 00 00 00 00	 mov	 eax, DWORD PTR ?__LINE__Var@?0??transmit_entity_comms_message@@YAXW4ENTITY_COMMS_MESSAGES@@PAUENTITY@@ZZ@4JA
  0342e	05 db 08 00 00	 add	 eax, 2267		; 000008dbH
  03433	50		 push	 eax
  03434	68 00 00 00 00	 push	 OFFSET ??_C@_0EO@OCMIKFBI@c?3?2users?2nhv90?2projects?2eech?2ap@
  03439	68 00 00 00 00	 push	 OFFSET ??_C@_02LFNMGJAP@en@
  0343e	e8 00 00 00 00	 call	 ?process_assert@@YGXPBD0H@Z ; process_assert
$LN209@transmit_e:

; 2741 : 
; 2742 : 			pack_entity_safe_ptr (en);

  03443	8b 45 0c	 mov	 eax, DWORD PTR _en$[ebp]
  03446	50		 push	 eax
  03447	e8 00 00 00 00	 call	 ?pack_entity_safe_ptr@@YGXPAUENTITY@@@Z ; pack_entity_safe_ptr

; 2743 : 
; 2744 : 			pack_local_entity_data (en, PACK_MODE_UPDATE_ENTITY);

  0344c	83 7d 0c 00	 cmp	 DWORD PTR _en$[ebp], 0
  03450	74 0d		 je	 SHORT $LN324@transmit_e
  03452	8b 45 0c	 mov	 eax, DWORD PTR _en$[ebp]
  03455	8b 08		 mov	 ecx, DWORD PTR [eax]
  03457	89 8d 44 fd ff
	ff		 mov	 DWORD PTR tv1917[ebp], ecx
  0345d	eb 27		 jmp	 SHORT $LN325@transmit_e
$LN324@transmit_e:
  0345f	8b 15 00 00 00
	00		 mov	 edx, DWORD PTR ?__LINE__Var@?0??transmit_entity_comms_message@@YAXW4ENTITY_COMMS_MESSAGES@@PAUENTITY@@ZZ@4JA
  03465	81 c2 df 08 00
	00		 add	 edx, 2271		; 000008dfH
  0346b	52		 push	 edx
  0346c	68 00 00 00 00	 push	 OFFSET ??_C@_0EO@OCMIKFBI@c?3?2users?2nhv90?2projects?2eech?2ap@
  03471	a1 00 00 00 00	 mov	 eax, DWORD PTR ?null_entity_pointer_message@@3PBDB ; null_entity_pointer_message
  03476	50		 push	 eax
  03477	e8 00 00 00 00	 call	 ?process_assert@@YGXPBD0H@Z ; process_assert
  0347c	c7 85 44 fd ff
	ff 00 00 00 00	 mov	 DWORD PTR tv1917[ebp], 0
$LN325@transmit_e:
  03486	6a 03		 push	 3
  03488	8b 4d 0c	 mov	 ecx, DWORD PTR _en$[ebp]
  0348b	51		 push	 ecx
  0348c	8b 95 44 fd ff
	ff		 mov	 edx, DWORD PTR tv1917[ebp]
  03492	8b 04 95 00 00
	00 00		 mov	 eax, DWORD PTR ?fn_pack_local_entity_data@@3PAP6GXPAUENTITY@@W4PACK_MODES@@@ZA[edx*4]
  03499	ff d0		 call	 eax

; 2745 : 
; 2746 : 			#if DEBUG_MODULE_MESSAGE_TEXT
; 2747 : 
; 2748 : 			debug_log ("EN_COMMS: sending update for %s (%d)", get_local_entity_type_name (en), get_local_entity_index (en));
; 2749 : 
; 2750 : 			#endif
; 2751 : 
; 2752 : 			break;

  0349b	e9 25 01 00 00	 jmp	 $LN2@transmit_e
$LN210@transmit_e:

; 2753 : 		}
; 2754 : 		////////////////////////////////////////
; 2755 : 		case ENTITY_COMMS_UPDATE_FOG_OF_WAR:
; 2756 : 		////////////////////////////////////////
; 2757 : 		{
; 2758 : 			//
; 2759 : 			// (entity_comms_messages message, entity *en, int in_use)
; 2760 : 			//
; 2761 : 
; 2762 : 			pack_entity_safe_ptr (en);

  034a0	8b 45 0c	 mov	 eax, DWORD PTR _en$[ebp]
  034a3	50		 push	 eax
  034a4	e8 00 00 00 00	 call	 ?pack_entity_safe_ptr@@YGXPAUENTITY@@@Z ; pack_entity_safe_ptr

; 2763 : 
; 2764 : 			#if DEBUG_MODULE_MESSAGE_TEXT
; 2765 : 
; 2766 : 			debug_log ("EN_COMMS: sending update fog of war");
; 2767 : 
; 2768 : 			#endif
; 2769 : 
; 2770 : 			break;

  034a9	e9 17 01 00 00	 jmp	 $LN2@transmit_e
$LN211@transmit_e:

; 2771 : 		}
; 2772 : 		////////////////////////////////////////
; 2773 : 		case ENTITY_COMMS_UPDATE_SECTOR_SIDE:
; 2774 : 		////////////////////////////////////////
; 2775 : 		{
; 2776 : 			int
; 2777 : 				in_use;
; 2778 : 
; 2779 : 			//
; 2780 : 			// (entity_comms_messages message, entity *en, int in_use)
; 2781 : 			//
; 2782 : 
; 2783 : 			ASSERT (en);

  034ae	83 7d 0c 00	 cmp	 DWORD PTR _en$[ebp], 0
  034b2	75 1a		 jne	 SHORT $LN212@transmit_e
  034b4	a1 00 00 00 00	 mov	 eax, DWORD PTR ?__LINE__Var@?0??transmit_entity_comms_message@@YAXW4ENTITY_COMMS_MESSAGES@@PAUENTITY@@ZZ@4JA
  034b9	05 06 09 00 00	 add	 eax, 2310		; 00000906H
  034be	50		 push	 eax
  034bf	68 00 00 00 00	 push	 OFFSET ??_C@_0EO@OCMIKFBI@c?3?2users?2nhv90?2projects?2eech?2ap@
  034c4	68 00 00 00 00	 push	 OFFSET ??_C@_02LFNMGJAP@en@
  034c9	e8 00 00 00 00	 call	 ?process_assert@@YGXPBD0H@Z ; process_assert
$LN212@transmit_e:

; 2784 : 
; 2785 : 			pack_entity_safe_ptr (en);

  034ce	8b 45 0c	 mov	 eax, DWORD PTR _en$[ebp]
  034d1	50		 push	 eax
  034d2	e8 00 00 00 00	 call	 ?pack_entity_safe_ptr@@YGXPAUENTITY@@@Z ; pack_entity_safe_ptr

; 2786 : 
; 2787 : 			in_use = va_arg (pargs, int);

  034d7	8b 45 fc	 mov	 eax, DWORD PTR _pargs$[ebp]
  034da	83 c0 04	 add	 eax, 4
  034dd	89 45 fc	 mov	 DWORD PTR _pargs$[ebp], eax
  034e0	8b 4d fc	 mov	 ecx, DWORD PTR _pargs$[ebp]
  034e3	8b 51 fc	 mov	 edx, DWORD PTR [ecx-4]
  034e6	89 95 d4 fd ff
	ff		 mov	 DWORD PTR _in_use$3[ebp], edx

; 2788 : 
; 2789 : 			pack_int_value (en, INT_TYPE_IN_USE, in_use);

  034ec	8b 85 d4 fd ff
	ff		 mov	 eax, DWORD PTR _in_use$3[ebp]
  034f2	50		 push	 eax
  034f3	6a 6d		 push	 109			; 0000006dH
  034f5	8b 4d 0c	 mov	 ecx, DWORD PTR _en$[ebp]
  034f8	51		 push	 ecx
  034f9	e8 00 00 00 00	 call	 ?pack_int_value@@YGXPAUENTITY@@W4INT_TYPES@@H@Z ; pack_int_value

; 2790 : 
; 2791 : 			#if DEBUG_MODULE_MESSAGE_TEXT
; 2792 : 
; 2793 : 			debug_log ("EN_COMMS: sending update sector side for %s (%d) - in use %d", get_local_entity_string (en, STRING_TYPE_FULL_NAME), get_local_entity_index (en), in_use);
; 2794 : 
; 2795 : 			#endif
; 2796 : 
; 2797 : 			break;

  034fe	e9 c2 00 00 00	 jmp	 $LN2@transmit_e
$LN213@transmit_e:

; 2798 : 		}
; 2799 : 		////////////////////////////////////////
; 2800 : 		case ENTITY_COMMS_UPDATE_SECTOR_SIDE_COUNT:
; 2801 : 		////////////////////////////////////////
; 2802 : 		{
; 2803 : 			//
; 2804 : 			// (entity_comms_messages message, entity *en)
; 2805 : 			//
; 2806 : 
; 2807 : 			pack_entity_safe_ptr (en);

  03503	8b 45 0c	 mov	 eax, DWORD PTR _en$[ebp]
  03506	50		 push	 eax
  03507	e8 00 00 00 00	 call	 ?pack_entity_safe_ptr@@YGXPAUENTITY@@@Z ; pack_entity_safe_ptr

; 2808 : 
; 2809 : 			#if DEBUG_MODULE_MESSAGE_TEXT
; 2810 : 
; 2811 : 			debug_log ("EN_COMMS: sending update sector side count");
; 2812 : 
; 2813 : 			#endif
; 2814 : 
; 2815 : 			break;

  0350c	e9 b4 00 00 00	 jmp	 $LN2@transmit_e
$LN214@transmit_e:

; 2816 : 		}
; 2817 : 		////////////////////////////////////////
; 2818 : 		case ENTITY_COMMS_VEC3D:
; 2819 : 		////////////////////////////////////////
; 2820 : 		{
; 2821 : 			//
; 2822 : 			// (entity_comms_messages message, entity *en, vec3d_types type, vec3d *v)
; 2823 : 			//
; 2824 : 
; 2825 : 			vec3d_types
; 2826 : 				type;
; 2827 : 
; 2828 : 			vec3d
; 2829 : 				*v;
; 2830 : 
; 2831 : 			ASSERT (en);

  03511	83 7d 0c 00	 cmp	 DWORD PTR _en$[ebp], 0
  03515	75 1a		 jne	 SHORT $LN215@transmit_e
  03517	a1 00 00 00 00	 mov	 eax, DWORD PTR ?__LINE__Var@?0??transmit_entity_comms_message@@YAXW4ENTITY_COMMS_MESSAGES@@PAUENTITY@@ZZ@4JA
  0351c	05 36 09 00 00	 add	 eax, 2358		; 00000936H
  03521	50		 push	 eax
  03522	68 00 00 00 00	 push	 OFFSET ??_C@_0EO@OCMIKFBI@c?3?2users?2nhv90?2projects?2eech?2ap@
  03527	68 00 00 00 00	 push	 OFFSET ??_C@_02LFNMGJAP@en@
  0352c	e8 00 00 00 00	 call	 ?process_assert@@YGXPBD0H@Z ; process_assert
$LN215@transmit_e:

; 2832 : 
; 2833 : 			pack_entity_safe_ptr (en);

  03531	8b 45 0c	 mov	 eax, DWORD PTR _en$[ebp]
  03534	50		 push	 eax
  03535	e8 00 00 00 00	 call	 ?pack_entity_safe_ptr@@YGXPAUENTITY@@@Z ; pack_entity_safe_ptr

; 2834 : 
; 2835 : 			type = va_arg (pargs, vec3d_types);

  0353a	8b 45 fc	 mov	 eax, DWORD PTR _pargs$[ebp]
  0353d	83 c0 04	 add	 eax, 4
  03540	89 45 fc	 mov	 DWORD PTR _pargs$[ebp], eax
  03543	8b 4d fc	 mov	 ecx, DWORD PTR _pargs$[ebp]
  03546	8b 51 fc	 mov	 edx, DWORD PTR [ecx-4]
  03549	89 95 d0 fd ff
	ff		 mov	 DWORD PTR _type$2[ebp], edx

; 2836 : 
; 2837 : 			pack_vec3d_type (type);

  0354f	8b 85 d0 fd ff
	ff		 mov	 eax, DWORD PTR _type$2[ebp]
  03555	50		 push	 eax
  03556	e8 00 00 00 00	 call	 ?pack_vec3d_type@@YGXW4VEC3D_TYPES@@@Z ; pack_vec3d_type

; 2838 : 
; 2839 : 			v = va_arg (pargs, vec3d *);

  0355b	8b 45 fc	 mov	 eax, DWORD PTR _pargs$[ebp]
  0355e	83 c0 04	 add	 eax, 4
  03561	89 45 fc	 mov	 DWORD PTR _pargs$[ebp], eax
  03564	8b 4d fc	 mov	 ecx, DWORD PTR _pargs$[ebp]
  03567	8b 51 fc	 mov	 edx, DWORD PTR [ecx-4]
  0356a	89 95 cc fd ff
	ff		 mov	 DWORD PTR _v$1[ebp], edx

; 2840 : 
; 2841 : 			pack_vec3d (en, type, v);

  03570	8b 85 cc fd ff
	ff		 mov	 eax, DWORD PTR _v$1[ebp]
  03576	50		 push	 eax
  03577	8b 8d d0 fd ff
	ff		 mov	 ecx, DWORD PTR _type$2[ebp]
  0357d	51		 push	 ecx
  0357e	8b 55 0c	 mov	 edx, DWORD PTR _en$[ebp]
  03581	52		 push	 edx
  03582	e8 00 00 00 00	 call	 ?pack_vec3d@@YGXPAUENTITY@@W4VEC3D_TYPES@@PAUVEC3D@@@Z ; pack_vec3d

; 2842 : 
; 2843 : 			#if DEBUG_MODULE_MESSAGE_TEXT
; 2844 : 
; 2845 : 			debug_log ("EN_COMMS: sending vec3d for %s (%d)", get_local_entity_type_name (en), get_local_entity_index (en));
; 2846 : 
; 2847 : 			#endif
; 2848 : 
; 2849 : 			break;

  03587	eb 3c		 jmp	 SHORT $LN2@transmit_e
$LN216@transmit_e:

; 2850 : 		}
; 2851 : 		////////////////////////////////////////
; 2852 : 		case ENTITY_COMMS_ZERO_DESIRED_VELOCITY:
; 2853 : 		case ENTITY_COMMS_ZERO_VELOCITY:
; 2854 : 		////////////////////////////////////////
; 2855 : 		{
; 2856 : 			//
; 2857 : 			// (entity_comms_messages message, entity *en)
; 2858 : 			//
; 2859 : 
; 2860 : 			ASSERT (en);

  03589	83 7d 0c 00	 cmp	 DWORD PTR _en$[ebp], 0
  0358d	75 1a		 jne	 SHORT $LN217@transmit_e
  0358f	a1 00 00 00 00	 mov	 eax, DWORD PTR ?__LINE__Var@?0??transmit_entity_comms_message@@YAXW4ENTITY_COMMS_MESSAGES@@PAUENTITY@@ZZ@4JA
  03594	05 53 09 00 00	 add	 eax, 2387		; 00000953H
  03599	50		 push	 eax
  0359a	68 00 00 00 00	 push	 OFFSET ??_C@_0EO@OCMIKFBI@c?3?2users?2nhv90?2projects?2eech?2ap@
  0359f	68 00 00 00 00	 push	 OFFSET ??_C@_02LFNMGJAP@en@
  035a4	e8 00 00 00 00	 call	 ?process_assert@@YGXPBD0H@Z ; process_assert
$LN217@transmit_e:

; 2861 : 
; 2862 : 			pack_entity_safe_ptr (en);

  035a9	8b 45 0c	 mov	 eax, DWORD PTR _en$[ebp]
  035ac	50		 push	 eax
  035ad	e8 00 00 00 00	 call	 ?pack_entity_safe_ptr@@YGXPAUENTITY@@@Z ; pack_entity_safe_ptr

; 2863 : 
; 2864 : 			#if DEBUG_MODULE_MESSAGE_TEXT
; 2865 : 
; 2866 : 			debug_log ("EN_COMMS: sending zero velocity for %s (%d)", get_local_entity_type_name (en), get_local_entity_index (en));
; 2867 : 
; 2868 : 			#endif
; 2869 : 
; 2870 : 			break;

  035b2	eb 11		 jmp	 SHORT $LN2@transmit_e
$LN218@transmit_e:

; 2871 : 		}
; 2872 : 		////////////////////////////////////////
; 2873 : 		default:
; 2874 : 		////////////////////////////////////////
; 2875 : 		{
; 2876 : 			debug_fatal ("Transmit invalid entity comms message = %d", message);

  035b4	8b 45 08	 mov	 eax, DWORD PTR _message$[ebp]
  035b7	50		 push	 eax
  035b8	68 00 00 00 00	 push	 OFFSET ??_C@_0CL@GFMDOBCA@Transmit?5invalid?5entity?5comms?5m@
  035bd	e8 00 00 00 00	 call	 ?debug_fatal@@YAXPBDZZ	; debug_fatal
  035c2	83 c4 08	 add	 esp, 8
$LN2@transmit_e:

; 2877 : 
; 2878 : 			break;
; 2879 : 		}
; 2880 : 	}
; 2881 : 
; 2882 : 	va_end (pargs);

  035c5	c7 45 fc 00 00
	00 00		 mov	 DWORD PTR _pargs$[ebp], 0
$LN1@transmit_e:

; 2883 : }

  035cc	5f		 pop	 edi
  035cd	5e		 pop	 esi
  035ce	5b		 pop	 ebx
  035cf	8b e5		 mov	 esp, ebp
  035d1	5d		 pop	 ebp
  035d2	c3		 ret	 0
  035d3	90		 npad	 1
$LN326@transmit_e:
  035d4	00 00 00 00	 DD	 $LN40@transmit_e
  035d8	00 00 00 00	 DD	 $LN41@transmit_e
  035dc	00 00 00 00	 DD	 $LN43@transmit_e
  035e0	00 00 00 00	 DD	 $LN45@transmit_e
  035e4	00 00 00 00	 DD	 $LN47@transmit_e
  035e8	00 00 00 00	 DD	 $LN49@transmit_e
  035ec	00 00 00 00	 DD	 $LN52@transmit_e
  035f0	00 00 00 00	 DD	 $LN55@transmit_e
  035f4	00 00 00 00	 DD	 $LN57@transmit_e
  035f8	00 00 00 00	 DD	 $LN59@transmit_e
  035fc	00 00 00 00	 DD	 $LN61@transmit_e
  03600	00 00 00 00	 DD	 $LN67@transmit_e
  03604	00 00 00 00	 DD	 $LN69@transmit_e
  03608	00 00 00 00	 DD	 $LN73@transmit_e
  0360c	00 00 00 00	 DD	 $LN79@transmit_e
  03610	00 00 00 00	 DD	 $LN95@transmit_e
  03614	00 00 00 00	 DD	 $LN97@transmit_e
  03618	00 00 00 00	 DD	 $LN99@transmit_e
  0361c	00 00 00 00	 DD	 $LN101@transmit_e
  03620	00 00 00 00	 DD	 $LN101@transmit_e
  03624	00 00 00 00	 DD	 $LN101@transmit_e
  03628	00 00 00 00	 DD	 $LN103@transmit_e
  0362c	00 00 00 00	 DD	 $LN105@transmit_e
  03630	00 00 00 00	 DD	 $LN108@transmit_e
  03634	00 00 00 00	 DD	 $LN111@transmit_e
  03638	00 00 00 00	 DD	 $LN113@transmit_e
  0363c	00 00 00 00	 DD	 $LN115@transmit_e
  03640	00 00 00 00	 DD	 $LN118@transmit_e
  03644	00 00 00 00	 DD	 $LN120@transmit_e
  03648	00 00 00 00	 DD	 $LN122@transmit_e
  0364c	00 00 00 00	 DD	 $LN124@transmit_e
  03650	00 00 00 00	 DD	 $LN126@transmit_e
  03654	00 00 00 00	 DD	 $LN131@transmit_e
  03658	00 00 00 00	 DD	 $LN133@transmit_e
  0365c	00 00 00 00	 DD	 $LN134@transmit_e
  03660	00 00 00 00	 DD	 $LN136@transmit_e
  03664	00 00 00 00	 DD	 $LN138@transmit_e
  03668	00 00 00 00	 DD	 $LN140@transmit_e
  0366c	00 00 00 00	 DD	 $LN142@transmit_e
  03670	00 00 00 00	 DD	 $LN144@transmit_e
  03674	00 00 00 00	 DD	 $LN146@transmit_e
  03678	00 00 00 00	 DD	 $LN148@transmit_e
  0367c	00 00 00 00	 DD	 $LN151@transmit_e
  03680	00 00 00 00	 DD	 $LN154@transmit_e
  03684	00 00 00 00	 DD	 $LN157@transmit_e
  03688	00 00 00 00	 DD	 $LN159@transmit_e
  0368c	00 00 00 00	 DD	 $LN161@transmit_e
  03690	00 00 00 00	 DD	 $LN163@transmit_e
  03694	00 00 00 00	 DD	 $LN165@transmit_e
  03698	00 00 00 00	 DD	 $LN170@transmit_e
  0369c	00 00 00 00	 DD	 $LN172@transmit_e
  036a0	00 00 00 00	 DD	 $LN176@transmit_e
  036a4	00 00 00 00	 DD	 $LN180@transmit_e
  036a8	00 00 00 00	 DD	 $LN183@transmit_e
  036ac	00 00 00 00	 DD	 $LN218@transmit_e
  036b0	00 00 00 00	 DD	 $LN187@transmit_e
  036b4	00 00 00 00	 DD	 $LN189@transmit_e
  036b8	00 00 00 00	 DD	 $LN191@transmit_e
  036bc	00 00 00 00	 DD	 $LN193@transmit_e
  036c0	00 00 00 00	 DD	 $LN197@transmit_e
  036c4	00 00 00 00	 DD	 $LN202@transmit_e
  036c8	00 00 00 00	 DD	 $LN205@transmit_e
  036cc	00 00 00 00	 DD	 $LN208@transmit_e
  036d0	00 00 00 00	 DD	 $LN210@transmit_e
  036d4	00 00 00 00	 DD	 $LN211@transmit_e
  036d8	00 00 00 00	 DD	 $LN213@transmit_e
  036dc	00 00 00 00	 DD	 $LN214@transmit_e
  036e0	00 00 00 00	 DD	 $LN216@transmit_e
  036e4	00 00 00 00	 DD	 $LN216@transmit_e
?transmit_entity_comms_message@@YAXW4ENTITY_COMMS_MESSAGES@@PAUENTITY@@ZZ ENDP ; transmit_entity_comms_message
_TEXT	ENDS
; Function compile flags: /Odtp /ZI
; File c:\users\nhv90\projects\eech\aphavoc\source\entity\system\en_comms\en_comms.c
;	COMDAT ?disable_entity_comms_messages@@YGXXZ
_TEXT	SEGMENT
?disable_entity_comms_messages@@YGXXZ PROC		; disable_entity_comms_messages, COMDAT

; 404  : {

  00000	55		 push	 ebp
  00001	8b ec		 mov	 ebp, esp
  00003	83 ec 40	 sub	 esp, 64			; 00000040H
  00006	53		 push	 ebx
  00007	56		 push	 esi
  00008	57		 push	 edi

; 405  : 	debug_log ("Setting comms messages to DISABLED");

  00009	68 00 00 00 00	 push	 OFFSET ??_C@_0CD@PKGFAOAM@Setting?5comms?5messages?5to?5DISAB@
  0000e	e8 00 00 00 00	 call	 ?debug_log@@YAXPBDZZ	; debug_log
  00013	83 c4 04	 add	 esp, 4

; 406  : 
; 407  : 	comms_messages_enabled = FALSE;

  00016	c7 05 00 00 00
	00 00 00 00 00	 mov	 DWORD PTR ?comms_messages_enabled@@3HA, 0

; 408  : }

  00020	5f		 pop	 edi
  00021	5e		 pop	 esi
  00022	5b		 pop	 ebx
  00023	8b e5		 mov	 esp, ebp
  00025	5d		 pop	 ebp
  00026	c3		 ret	 0
?disable_entity_comms_messages@@YGXXZ ENDP		; disable_entity_comms_messages
_TEXT	ENDS
; Function compile flags: /Odtp /ZI
; File c:\users\nhv90\projects\eech\aphavoc\source\entity\system\en_comms\en_comms.c
;	COMDAT ?enable_entity_comms_messages@@YGXXZ
_TEXT	SEGMENT
?enable_entity_comms_messages@@YGXXZ PROC		; enable_entity_comms_messages, COMDAT

; 393  : {

  00000	55		 push	 ebp
  00001	8b ec		 mov	 ebp, esp
  00003	83 ec 40	 sub	 esp, 64			; 00000040H
  00006	53		 push	 ebx
  00007	56		 push	 esi
  00008	57		 push	 edi

; 394  : 	debug_log ("Setting comms messages to ENABLED");

  00009	68 00 00 00 00	 push	 OFFSET ??_C@_0CC@ONCEHADK@Setting?5comms?5messages?5to?5ENABL@
  0000e	e8 00 00 00 00	 call	 ?debug_log@@YAXPBDZZ	; debug_log
  00013	83 c4 04	 add	 esp, 4

; 395  : 
; 396  : 	comms_messages_enabled = TRUE;

  00016	c7 05 00 00 00
	00 01 00 00 00	 mov	 DWORD PTR ?comms_messages_enabled@@3HA, 1

; 397  : }

  00020	5f		 pop	 edi
  00021	5e		 pop	 esi
  00022	5b		 pop	 ebx
  00023	8b e5		 mov	 esp, ebp
  00025	5d		 pop	 ebp
  00026	c3		 ret	 0
?enable_entity_comms_messages@@YGXXZ ENDP		; enable_entity_comms_messages
_TEXT	ENDS
; Function compile flags: /Odtp /ZI
; File c:\program files (x86)\windows kits\10\include\10.0.18362.0\ucrt\stdio.h
;	COMDAT _sprintf
_TEXT	SEGMENT
__ArgList$ = -8						; size = 4
__Result$ = -4						; size = 4
__Buffer$ = 8						; size = 4
__Format$ = 12						; size = 4
_sprintf PROC						; COMDAT

; 1781 :     {

  00000	55		 push	 ebp
  00001	8b ec		 mov	 ebp, esp
  00003	83 ec 4c	 sub	 esp, 76			; 0000004cH
  00006	53		 push	 ebx
  00007	56		 push	 esi
  00008	57		 push	 edi

; 1782 :         int _Result;
; 1783 :         va_list _ArgList;
; 1784 :         __crt_va_start(_ArgList, _Format);

  00009	8d 45 10	 lea	 eax, DWORD PTR __Format$[ebp+4]
  0000c	89 45 f8	 mov	 DWORD PTR __ArgList$[ebp], eax

; 1785 : 
; 1786 :         #pragma warning(push)
; 1787 :         #pragma warning(disable: 4996) // Deprecation
; 1788 :         _Result = _vsprintf_l(_Buffer, _Format, NULL, _ArgList);

  0000f	8b 45 f8	 mov	 eax, DWORD PTR __ArgList$[ebp]
  00012	50		 push	 eax
  00013	6a 00		 push	 0
  00015	8b 4d 0c	 mov	 ecx, DWORD PTR __Format$[ebp]
  00018	51		 push	 ecx
  00019	8b 55 08	 mov	 edx, DWORD PTR __Buffer$[ebp]
  0001c	52		 push	 edx
  0001d	e8 00 00 00 00	 call	 __vsprintf_l
  00022	83 c4 10	 add	 esp, 16			; 00000010H
  00025	89 45 fc	 mov	 DWORD PTR __Result$[ebp], eax

; 1789 :         #pragma warning(pop)
; 1790 : 
; 1791 :         __crt_va_end(_ArgList);

  00028	c7 45 f8 00 00
	00 00		 mov	 DWORD PTR __ArgList$[ebp], 0

; 1792 :         return _Result;

  0002f	8b 45 fc	 mov	 eax, DWORD PTR __Result$[ebp]

; 1793 :     }

  00032	5f		 pop	 edi
  00033	5e		 pop	 esi
  00034	5b		 pop	 ebx
  00035	8b e5		 mov	 esp, ebp
  00037	5d		 pop	 ebp
  00038	c3		 ret	 0
_sprintf ENDP
_TEXT	ENDS
; Function compile flags: /Odtp /ZI
; File c:\program files (x86)\windows kits\10\include\10.0.18362.0\ucrt\stdio.h
;	COMDAT __vsprintf_l
_TEXT	SEGMENT
__Buffer$ = 8						; size = 4
__Format$ = 12						; size = 4
__Locale$ = 16						; size = 4
__ArgList$ = 20						; size = 4
__vsprintf_l PROC					; COMDAT

; 1459 :     {

  00000	55		 push	 ebp
  00001	8b ec		 mov	 ebp, esp
  00003	83 ec 40	 sub	 esp, 64			; 00000040H
  00006	53		 push	 ebx
  00007	56		 push	 esi
  00008	57		 push	 edi

; 1460 :         #pragma warning(push)
; 1461 :         #pragma warning(disable: 4996) // Deprecation
; 1462 :         return _vsnprintf_l(_Buffer, (size_t)-1, _Format, _Locale, _ArgList);

  00009	8b 45 14	 mov	 eax, DWORD PTR __ArgList$[ebp]
  0000c	50		 push	 eax
  0000d	8b 4d 10	 mov	 ecx, DWORD PTR __Locale$[ebp]
  00010	51		 push	 ecx
  00011	8b 55 0c	 mov	 edx, DWORD PTR __Format$[ebp]
  00014	52		 push	 edx
  00015	6a ff		 push	 -1
  00017	8b 45 08	 mov	 eax, DWORD PTR __Buffer$[ebp]
  0001a	50		 push	 eax
  0001b	e8 00 00 00 00	 call	 __vsnprintf_l
  00020	83 c4 14	 add	 esp, 20			; 00000014H

; 1463 :         #pragma warning(pop)
; 1464 :     }

  00023	5f		 pop	 edi
  00024	5e		 pop	 esi
  00025	5b		 pop	 ebx
  00026	8b e5		 mov	 esp, ebp
  00028	5d		 pop	 ebp
  00029	c3		 ret	 0
__vsprintf_l ENDP
_TEXT	ENDS
; Function compile flags: /Odtp /ZI
; File c:\program files (x86)\windows kits\10\include\10.0.18362.0\ucrt\stdio.h
;	COMDAT __vsnprintf_l
_TEXT	SEGMENT
tv74 = -72						; size = 4
__Result$ = -4						; size = 4
__Buffer$ = 8						; size = 4
__BufferCount$ = 12					; size = 4
__Format$ = 16						; size = 4
__Locale$ = 20						; size = 4
__ArgList$ = 24						; size = 4
__vsnprintf_l PROC					; COMDAT

; 1389 :     {

  00000	55		 push	 ebp
  00001	8b ec		 mov	 ebp, esp
  00003	83 ec 48	 sub	 esp, 72			; 00000048H
  00006	53		 push	 ebx
  00007	56		 push	 esi
  00008	57		 push	 edi

; 1390 :         int const _Result = __stdio_common_vsprintf(

  00009	8b 45 18	 mov	 eax, DWORD PTR __ArgList$[ebp]
  0000c	50		 push	 eax
  0000d	8b 4d 14	 mov	 ecx, DWORD PTR __Locale$[ebp]
  00010	51		 push	 ecx
  00011	8b 55 10	 mov	 edx, DWORD PTR __Format$[ebp]
  00014	52		 push	 edx
  00015	8b 45 0c	 mov	 eax, DWORD PTR __BufferCount$[ebp]
  00018	50		 push	 eax
  00019	8b 4d 08	 mov	 ecx, DWORD PTR __Buffer$[ebp]
  0001c	51		 push	 ecx
  0001d	e8 00 00 00 00	 call	 ___local_stdio_printf_options
  00022	8b 10		 mov	 edx, DWORD PTR [eax]
  00024	83 ca 01	 or	 edx, 1
  00027	8b 40 04	 mov	 eax, DWORD PTR [eax+4]
  0002a	50		 push	 eax
  0002b	52		 push	 edx
  0002c	ff 15 00 00 00
	00		 call	 DWORD PTR __imp____stdio_common_vsprintf
  00032	83 c4 1c	 add	 esp, 28			; 0000001cH
  00035	89 45 fc	 mov	 DWORD PTR __Result$[ebp], eax

; 1391 :             _CRT_INTERNAL_LOCAL_PRINTF_OPTIONS | _CRT_INTERNAL_PRINTF_LEGACY_VSPRINTF_NULL_TERMINATION,
; 1392 :             _Buffer, _BufferCount, _Format, _Locale, _ArgList);
; 1393 : 
; 1394 :         return _Result < 0 ? -1 : _Result;

  00038	83 7d fc 00	 cmp	 DWORD PTR __Result$[ebp], 0
  0003c	7d 09		 jge	 SHORT $LN3@vsnprintf_
  0003e	c7 45 b8 ff ff
	ff ff		 mov	 DWORD PTR tv74[ebp], -1
  00045	eb 06		 jmp	 SHORT $LN4@vsnprintf_
$LN3@vsnprintf_:
  00047	8b 45 fc	 mov	 eax, DWORD PTR __Result$[ebp]
  0004a	89 45 b8	 mov	 DWORD PTR tv74[ebp], eax
$LN4@vsnprintf_:
  0004d	8b 45 b8	 mov	 eax, DWORD PTR tv74[ebp]

; 1395 :     }

  00050	5f		 pop	 edi
  00051	5e		 pop	 esi
  00052	5b		 pop	 ebx
  00053	8b e5		 mov	 esp, ebp
  00055	5d		 pop	 ebp
  00056	c3		 ret	 0
__vsnprintf_l ENDP
_TEXT	ENDS
; Function compile flags: /Odtp /ZI
; File c:\program files (x86)\windows kits\10\include\10.0.18362.0\ucrt\corecrt_stdio_config.h
;	COMDAT ___local_stdio_printf_options
_TEXT	SEGMENT
___local_stdio_printf_options PROC			; COMDAT

; 86   :     {

  00000	55		 push	 ebp
  00001	8b ec		 mov	 ebp, esp
  00003	83 ec 40	 sub	 esp, 64			; 00000040H
  00006	53		 push	 ebx
  00007	56		 push	 esi
  00008	57		 push	 edi

; 87   :         static unsigned __int64 _OptionsStorage;
; 88   :         return &_OptionsStorage;

  00009	b8 00 00 00 00	 mov	 eax, OFFSET ?_OptionsStorage@?1??__local_stdio_printf_options@@9@4_KA ; `__local_stdio_printf_options'::`2'::_OptionsStorage

; 89   :     }

  0000e	5f		 pop	 edi
  0000f	5e		 pop	 esi
  00010	5b		 pop	 ebx
  00011	8b e5		 mov	 esp, ebp
  00013	5d		 pop	 ebp
  00014	c3		 ret	 0
___local_stdio_printf_options ENDP
_TEXT	ENDS
END
