; Listing generated by Microsoft (R) Optimizing Compiler Version 19.16.27045.0 

	TITLE	C:\Users\nhv90\Projects\eech\aphavoc\source\entity\system\en_funcs\en_draw.c
	.686P
	.XMM
	include listing.inc
	.model	flat

INCLUDELIB MSVCRTD
INCLUDELIB OLDNAMES

PUBLIC	?draw_eo_3d_scene@@3HA				; draw_eo_3d_scene
PUBLIC	?fn_draw_local_entity_3d_object@@3PAP6GXPAUENTITY@@M@ZA ; fn_draw_local_entity_3d_object
_BSS	SEGMENT
?draw_eo_3d_scene@@3HA DD 01H DUP (?)			; draw_eo_3d_scene
?fn_draw_local_entity_3d_object@@3PAP6GXPAUENTITY@@M@ZA DD 026H DUP (?) ; fn_draw_local_entity_3d_object
_BSS	ENDS
PUBLIC	?reset_local_entity_drawn_flags@@YGXXZ		; reset_local_entity_drawn_flags
PUBLIC	?scan_local_entity_3d_objects@@YGXPAUVIEWPOINT@@@Z ; scan_local_entity_3d_objects
PUBLIC	?initialise_entity_draw_default_functions@@YGXXZ ; initialise_entity_draw_default_functions
PUBLIC	?get_local_entity_valid_3d_draw_function@@YGHPAUENTITY@@@Z ; get_local_entity_valid_3d_draw_function
PUBLIC	??$max@H@std@@YGABHABH0@Z			; std::max<int>
PUBLIC	??$min@H@std@@YGABHABH0@Z			; std::min<int>
PUBLIC	??_C@_02DKCKIIND@?$CFs@				; `string'
PUBLIC	?__LINE__Var@?0??reset_local_entity_drawn_flags@@YGXXZ@4JA ; `reset_local_entity_drawn_flags'::`1'::__LINE__Var
PUBLIC	??_C@_0EN@NKNPNDJF@c?3?2users?2nhv90?2projects?2eech?2ap@ ; `string'
PUBLIC	??_C@_0BF@NHFKMCKI@get_update_entity?5?$CI?$CJ@	; `string'
PUBLIC	?__LINE__Var@?0??scan_local_entity_3d_objects@@YGXPAUVIEWPOINT@@@Z@4JA ; `scan_local_entity_3d_objects'::`1'::__LINE__Var
PUBLIC	??_C@_02HPPNELPJ@vp@				; `string'
PUBLIC	??_C@_03OJGPBPII@env@				; `string'
PUBLIC	??_C@_0BD@FEEMDEPI@invalid?5comparator@		; `string'
PUBLIC	??_C@_0GK@JMBMHIBC@c?3?2program?5files?5?$CIx86?$CJ?2microsof@ ; `string'
PUBLIC	??_C@_1NE@FKBPBJEB@?$AAc?$AA?3?$AA?2?$AAp?$AAr?$AAo?$AAg?$AAr?$AAa?$AAm?$AA?5?$AAf?$AAi?$AAl?$AAe@ ; `string'
PUBLIC	??_C@_1BC@ICCOKLEG@?$AAs?$AAt?$AAd?$AA?3?$AA?3?$AAm?$AAa?$AAx@ ; `string'
PUBLIC	??_C@_1CK@NDNHPKPI@?$AA?$CC?$AAi?$AAn?$AAv?$AAa?$AAl?$AAi?$AAd?$AA?5?$AAc?$AAo?$AAm?$AAp?$AAa?$AAr@ ; `string'
PUBLIC	??_C@_1BC@BLAPCBGI@?$AAs?$AAt?$AAd?$AA?3?$AA?3?$AAm?$AAi?$AAn@ ; `string'
PUBLIC	__real@0000000000000000
PUBLIC	__real@45bb8000
PUBLIC	__real@45fa0000
PUBLIC	__real@461c4000
EXTRN	__imp___invalid_parameter:PROC
EXTRN	__imp___CrtDbgReport:PROC
EXTRN	?process_assert@@YGXPBD0H@Z:PROC		; process_assert
EXTRN	?convert_float_to_int@@YGXMPAH@Z:PROC		; convert_float_to_int
EXTRN	?get_approx_3d_range@@YGMPBUVEC3D@@0@Z:PROC	; get_approx_3d_range
EXTRN	?get_3d_active_environment@@YGPAUENV_3D@@XZ:PROC ; get_3d_active_environment
EXTRN	?get_3d_view_distances@@YGXPAUENV_3D@@PAM1@Z:PROC ; get_3d_view_distances
EXTRN	?get_3d_fog_distances@@YGXPAUENV_3D@@PAM1@Z:PROC ; get_3d_fog_distances
EXTRN	?bound_position_to_map_area@@YGHPAUVEC3D@@@Z:PROC ; bound_position_to_map_area
EXTRN	?draw_debug_3d_objects@@YGXPAUVIEWPOINT@@M@Z:PROC ; draw_debug_3d_objects
EXTRN	?draw_debug_3d_lines@@YGXPAUVIEWPOINT@@M@Z:PROC	; draw_debug_3d_lines
EXTRN	?object_3d_information_database@@3PAUOBJECT_3D_INFORMATION@@A:DWORD ; object_3d_information_database
EXTRN	?command_line_eo_full_range@@3HA:DWORD		; command_line_eo_full_range
EXTRN	?null_entity_pointer_message@@3PBDB:DWORD	; null_entity_pointer_message
EXTRN	?world_map@@3UWORLD_MAP_DATA@@A:BYTE		; world_map
EXTRN	?overload_invalid_list_type_message@@3PBDB:DWORD ; overload_invalid_list_type_message
EXTRN	?fn_get_local_entity_first_child@@3PAY0CN@P6GPAUENTITY@@PAU1@W4LIST_TYPES@@@ZA:BYTE ; fn_get_local_entity_first_child
EXTRN	?fn_get_local_entity_child_succ@@3PAY0CN@P6GPAUENTITY@@PAU1@W4LIST_TYPES@@@ZA:BYTE ; fn_get_local_entity_child_succ
EXTRN	?overload_invalid_float_type_message@@3PBDB:DWORD ; overload_invalid_float_type_message
EXTRN	?fn_get_local_entity_float_value@@3PAY0KP@P6GMPAUENTITY@@W4FLOAT_TYPES@@@ZA:BYTE ; fn_get_local_entity_float_value
EXTRN	?overload_invalid_int_type_message@@3PBDB:DWORD	; overload_invalid_int_type_message
EXTRN	?fn_set_local_entity_int_value@@3PAY0BBH@P6GXPAUENTITY@@W4INT_TYPES@@H@ZA:BYTE ; fn_set_local_entity_int_value
EXTRN	?overload_invalid_vec3d_type_message@@3PBDB:DWORD ; overload_invalid_vec3d_type_message
EXTRN	?fn_get_local_entity_vec3d_ptr@@3PAY0BI@P6GPAUVEC3D@@PAUENTITY@@W4VEC3D_TYPES@@@ZA:BYTE ; fn_get_local_entity_vec3d_ptr
EXTRN	?entity_sector_map@@3PAPAUENTITY@@A:DWORD	; entity_sector_map
EXTRN	?null_sector_entity_map_pointer_message@@3PBDB:DWORD ; null_sector_entity_map_pointer_message
EXTRN	?update_entity@@3PAUENTITY@@A:DWORD		; update_entity
EXTRN	__fltused:DWORD
;	COMDAT __real@461c4000
CONST	SEGMENT
__real@461c4000 DD 0461c4000r			; 10000
CONST	ENDS
;	COMDAT __real@45fa0000
CONST	SEGMENT
__real@45fa0000 DD 045fa0000r			; 8000
CONST	ENDS
;	COMDAT __real@45bb8000
CONST	SEGMENT
__real@45bb8000 DD 045bb8000r			; 6000
CONST	ENDS
;	COMDAT __real@0000000000000000
CONST	SEGMENT
__real@0000000000000000 DQ 00000000000000000r	; 0
CONST	ENDS
;	COMDAT ??_C@_1BC@BLAPCBGI@?$AAs?$AAt?$AAd?$AA?3?$AA?3?$AAm?$AAi?$AAn@
CONST	SEGMENT
??_C@_1BC@BLAPCBGI@?$AAs?$AAt?$AAd?$AA?3?$AA?3?$AAm?$AAi?$AAn@ DB 's', 00H
	DB	't', 00H, 'd', 00H, ':', 00H, ':', 00H, 'm', 00H, 'i', 00H, 'n'
	DB	00H, 00H, 00H				; `string'
CONST	ENDS
;	COMDAT ??_C@_1CK@NDNHPKPI@?$AA?$CC?$AAi?$AAn?$AAv?$AAa?$AAl?$AAi?$AAd?$AA?5?$AAc?$AAo?$AAm?$AAp?$AAa?$AAr@
CONST	SEGMENT
??_C@_1CK@NDNHPKPI@?$AA?$CC?$AAi?$AAn?$AAv?$AAa?$AAl?$AAi?$AAd?$AA?5?$AAc?$AAo?$AAm?$AAp?$AAa?$AAr@ DB '"'
	DB	00H, 'i', 00H, 'n', 00H, 'v', 00H, 'a', 00H, 'l', 00H, 'i', 00H
	DB	'd', 00H, ' ', 00H, 'c', 00H, 'o', 00H, 'm', 00H, 'p', 00H, 'a'
	DB	00H, 'r', 00H, 'a', 00H, 't', 00H, 'o', 00H, 'r', 00H, '"', 00H
	DB	00H, 00H					; `string'
CONST	ENDS
;	COMDAT ??_C@_1BC@ICCOKLEG@?$AAs?$AAt?$AAd?$AA?3?$AA?3?$AAm?$AAa?$AAx@
CONST	SEGMENT
??_C@_1BC@ICCOKLEG@?$AAs?$AAt?$AAd?$AA?3?$AA?3?$AAm?$AAa?$AAx@ DB 's', 00H
	DB	't', 00H, 'd', 00H, ':', 00H, ':', 00H, 'm', 00H, 'a', 00H, 'x'
	DB	00H, 00H, 00H				; `string'
CONST	ENDS
;	COMDAT ??_C@_1NE@FKBPBJEB@?$AAc?$AA?3?$AA?2?$AAp?$AAr?$AAo?$AAg?$AAr?$AAa?$AAm?$AA?5?$AAf?$AAi?$AAl?$AAe@
CONST	SEGMENT
??_C@_1NE@FKBPBJEB@?$AAc?$AA?3?$AA?2?$AAp?$AAr?$AAo?$AAg?$AAr?$AAa?$AAm?$AA?5?$AAf?$AAi?$AAl?$AAe@ DB 'c'
	DB	00H, ':', 00H, '\', 00H, 'p', 00H, 'r', 00H, 'o', 00H, 'g', 00H
	DB	'r', 00H, 'a', 00H, 'm', 00H, ' ', 00H, 'f', 00H, 'i', 00H, 'l'
	DB	00H, 'e', 00H, 's', 00H, ' ', 00H, '(', 00H, 'x', 00H, '8', 00H
	DB	'6', 00H, ')', 00H, '\', 00H, 'm', 00H, 'i', 00H, 'c', 00H, 'r'
	DB	00H, 'o', 00H, 's', 00H, 'o', 00H, 'f', 00H, 't', 00H, ' ', 00H
	DB	'v', 00H, 'i', 00H, 's', 00H, 'u', 00H, 'a', 00H, 'l', 00H, ' '
	DB	00H, 's', 00H, 't', 00H, 'u', 00H, 'd', 00H, 'i', 00H, 'o', 00H
	DB	'\', 00H, '2', 00H, '0', 00H, '1', 00H, '7', 00H, '\', 00H, 'c'
	DB	00H, 'o', 00H, 'm', 00H, 'm', 00H, 'u', 00H, 'n', 00H, 'i', 00H
	DB	't', 00H, 'y', 00H, '\', 00H, 'v', 00H, 'c', 00H, '\', 00H, 't'
	DB	00H, 'o', 00H, 'o', 00H, 'l', 00H, 's', 00H, '\', 00H, 'm', 00H
	DB	's', 00H, 'v', 00H, 'c', 00H, '\', 00H, '1', 00H, '4', 00H, '.'
	DB	00H, '1', 00H, '6', 00H, '.', 00H, '2', 00H, '7', 00H, '0', 00H
	DB	'2', 00H, '3', 00H, '\', 00H, 'i', 00H, 'n', 00H, 'c', 00H, 'l'
	DB	00H, 'u', 00H, 'd', 00H, 'e', 00H, '\', 00H, 'a', 00H, 'l', 00H
	DB	'g', 00H, 'o', 00H, 'r', 00H, 'i', 00H, 't', 00H, 'h', 00H, 'm'
	DB	00H, 00H, 00H				; `string'
CONST	ENDS
;	COMDAT ??_C@_0GK@JMBMHIBC@c?3?2program?5files?5?$CIx86?$CJ?2microsof@
CONST	SEGMENT
??_C@_0GK@JMBMHIBC@c?3?2program?5files?5?$CIx86?$CJ?2microsof@ DB 'c:\pro'
	DB	'gram files (x86)\microsoft visual studio\2017\community\vc\to'
	DB	'ols\msvc\14.16.27023\include\algorithm', 00H ; `string'
CONST	ENDS
;	COMDAT ??_C@_0BD@FEEMDEPI@invalid?5comparator@
CONST	SEGMENT
??_C@_0BD@FEEMDEPI@invalid?5comparator@ DB 'invalid comparator', 00H ; `string'
CONST	ENDS
;	COMDAT ??_C@_03OJGPBPII@env@
CONST	SEGMENT
??_C@_03OJGPBPII@env@ DB 'env', 00H			; `string'
CONST	ENDS
;	COMDAT ??_C@_02HPPNELPJ@vp@
CONST	SEGMENT
??_C@_02HPPNELPJ@vp@ DB 'vp', 00H			; `string'
CONST	ENDS
;	COMDAT ?__LINE__Var@?0??scan_local_entity_3d_objects@@YGXPAUVIEWPOINT@@@Z@4JA
_DATA	SEGMENT
?__LINE__Var@?0??scan_local_entity_3d_objects@@YGXPAUVIEWPOINT@@@Z@4JA DD 074H ; `scan_local_entity_3d_objects'::`1'::__LINE__Var
_DATA	ENDS
;	COMDAT ??_C@_0BF@NHFKMCKI@get_update_entity?5?$CI?$CJ@
CONST	SEGMENT
??_C@_0BF@NHFKMCKI@get_update_entity?5?$CI?$CJ@ DB 'get_update_entity ()', 00H ; `string'
CONST	ENDS
;	COMDAT ??_C@_0EN@NKNPNDJF@c?3?2users?2nhv90?2projects?2eech?2ap@
CONST	SEGMENT
??_C@_0EN@NKNPNDJF@c?3?2users?2nhv90?2projects?2eech?2ap@ DB 'c:\users\nh'
	DB	'v90\projects\eech\aphavoc\source\entity\system\en_funcs\en_dr'
	DB	'aw.c', 00H					; `string'
CONST	ENDS
;	COMDAT ?__LINE__Var@?0??reset_local_entity_drawn_flags@@YGXXZ@4JA
_DATA	SEGMENT
?__LINE__Var@?0??reset_local_entity_drawn_flags@@YGXXZ@4JA DD 05fH ; `reset_local_entity_drawn_flags'::`1'::__LINE__Var
_DATA	ENDS
;	COMDAT ??_C@_02DKCKIIND@?$CFs@
CONST	SEGMENT
??_C@_02DKCKIIND@?$CFs@ DB '%s', 00H			; `string'
CONST	ENDS
; Function compile flags: /Odtp /ZI
; File c:\users\nhv90\projects\eech\aphavoc\source\entity\system\en_funcs\en_draw.c
;	COMDAT ?default_draw_entity_3d_object@@YGXPAUENTITY@@M@Z
_TEXT	SEGMENT
_en$ = 8						; size = 4
_range$ = 12						; size = 4
?default_draw_entity_3d_object@@YGXPAUENTITY@@M@Z PROC	; default_draw_entity_3d_object, COMDAT

; 260  : {

  00000	55		 push	 ebp
  00001	8b ec		 mov	 ebp, esp
  00003	83 ec 40	 sub	 esp, 64			; 00000040H
  00006	53		 push	 ebx
  00007	56		 push	 esi
  00008	57		 push	 edi

; 261  : }

  00009	5f		 pop	 edi
  0000a	5e		 pop	 esi
  0000b	5b		 pop	 ebx
  0000c	8b e5		 mov	 esp, ebp
  0000e	5d		 pop	 ebp
  0000f	c2 08 00	 ret	 8
?default_draw_entity_3d_object@@YGXPAUENTITY@@M@Z ENDP	; default_draw_entity_3d_object
_TEXT	ENDS
; Function compile flags: /Odtp /ZI
; File c:\program files (x86)\microsoft visual studio\2017\community\vc\tools\msvc\14.16.27023\include\algorithm
;	COMDAT ??$min@H@std@@YGABHABH0@Z
_TEXT	SEGMENT
__Left$ = 8						; size = 4
__Right$ = 12						; size = 4
??$min@H@std@@YGABHABH0@Z PROC				; std::min<int>, COMDAT

; 5427 : 	{	// return smaller of _Left and _Right

  00000	55		 push	 ebp
  00001	8b ec		 mov	 ebp, esp
  00003	83 ec 40	 sub	 esp, 64			; 00000040H
  00006	53		 push	 ebx
  00007	56		 push	 esi
  00008	57		 push	 edi

; 5428 : 	if (_Right < _Left)

  00009	8b 45 0c	 mov	 eax, DWORD PTR __Right$[ebp]
  0000c	8b 4d 08	 mov	 ecx, DWORD PTR __Left$[ebp]
  0000f	8b 10		 mov	 edx, DWORD PTR [eax]
  00011	3b 11		 cmp	 edx, DWORD PTR [ecx]
  00013	7d 61		 jge	 SHORT $LN8@min
$LN4@min:

; 5429 : 		{
; 5430 : 		_STL_ASSERT(!(_Left < _Right), "invalid comparator");

  00015	8b 45 08	 mov	 eax, DWORD PTR __Left$[ebp]
  00018	8b 4d 0c	 mov	 ecx, DWORD PTR __Right$[ebp]
  0001b	8b 10		 mov	 edx, DWORD PTR [eax]
  0001d	3b 11		 cmp	 edx, DWORD PTR [ecx]
  0001f	7c 02		 jl	 SHORT $LN7@min
  00021	eb 4a		 jmp	 SHORT $LN2@min
$LN7@min:
  00023	68 00 00 00 00	 push	 OFFSET ??_C@_0BD@FEEMDEPI@invalid?5comparator@
  00028	68 00 00 00 00	 push	 OFFSET ??_C@_02DKCKIIND@?$CFs@
  0002d	6a 00		 push	 0
  0002f	68 36 15 00 00	 push	 5430			; 00001536H
  00034	68 00 00 00 00	 push	 OFFSET ??_C@_0GK@JMBMHIBC@c?3?2program?5files?5?$CIx86?$CJ?2microsof@
  00039	6a 02		 push	 2
  0003b	ff 15 00 00 00
	00		 call	 DWORD PTR __imp___CrtDbgReport
  00041	83 c4 18	 add	 esp, 24			; 00000018H
  00044	83 f8 01	 cmp	 eax, 1
  00047	75 01		 jne	 SHORT $LN12@min
  00049	cc		 int	 3
$LN12@min:
  0004a	6a 00		 push	 0
  0004c	68 36 15 00 00	 push	 5430			; 00001536H
  00051	68 00 00 00 00	 push	 OFFSET ??_C@_1NE@FKBPBJEB@?$AAc?$AA?3?$AA?2?$AAp?$AAr?$AAo?$AAg?$AAr?$AAa?$AAm?$AA?5?$AAf?$AAi?$AAl?$AAe@
  00056	68 00 00 00 00	 push	 OFFSET ??_C@_1BC@BLAPCBGI@?$AAs?$AAt?$AAd?$AA?3?$AA?3?$AAm?$AAi?$AAn@
  0005b	68 00 00 00 00	 push	 OFFSET ??_C@_1CK@NDNHPKPI@?$AA?$CC?$AAi?$AAn?$AAv?$AAa?$AAl?$AAi?$AAd?$AA?5?$AAc?$AAo?$AAm?$AAp?$AAa?$AAr@
  00060	ff 15 00 00 00
	00		 call	 DWORD PTR __imp___invalid_parameter
  00066	83 c4 14	 add	 esp, 20			; 00000014H
  00069	33 c0		 xor	 eax, eax
  0006b	75 b6		 jne	 SHORT $LN7@min
$LN2@min:
  0006d	33 c0		 xor	 eax, eax
  0006f	75 a4		 jne	 SHORT $LN4@min

; 5431 : 		return (_Right);

  00071	8b 45 0c	 mov	 eax, DWORD PTR __Right$[ebp]
  00074	eb 03		 jmp	 SHORT $LN11@min
$LN8@min:

; 5432 : 		}
; 5433 : 
; 5434 : 	return (_Left);

  00076	8b 45 08	 mov	 eax, DWORD PTR __Left$[ebp]
$LN11@min:

; 5435 : 	}

  00079	5f		 pop	 edi
  0007a	5e		 pop	 esi
  0007b	5b		 pop	 ebx
  0007c	8b e5		 mov	 esp, ebp
  0007e	5d		 pop	 ebp
  0007f	c2 08 00	 ret	 8
??$min@H@std@@YGABHABH0@Z ENDP				; std::min<int>
_TEXT	ENDS
; Function compile flags: /Odtp /ZI
; File c:\program files (x86)\microsoft visual studio\2017\community\vc\tools\msvc\14.16.27023\include\algorithm
;	COMDAT ??$max@H@std@@YGABHABH0@Z
_TEXT	SEGMENT
__Left$ = 8						; size = 4
__Right$ = 12						; size = 4
??$max@H@std@@YGABHABH0@Z PROC				; std::max<int>, COMDAT

; 5387 : 	{	// return larger of _Left and _Right

  00000	55		 push	 ebp
  00001	8b ec		 mov	 ebp, esp
  00003	83 ec 40	 sub	 esp, 64			; 00000040H
  00006	53		 push	 ebx
  00007	56		 push	 esi
  00008	57		 push	 edi

; 5388 : 	if (_Left < _Right)

  00009	8b 45 08	 mov	 eax, DWORD PTR __Left$[ebp]
  0000c	8b 4d 0c	 mov	 ecx, DWORD PTR __Right$[ebp]
  0000f	8b 10		 mov	 edx, DWORD PTR [eax]
  00011	3b 11		 cmp	 edx, DWORD PTR [ecx]
  00013	7d 61		 jge	 SHORT $LN8@max
$LN4@max:

; 5389 : 		{
; 5390 : 		_STL_ASSERT(!(_Right < _Left), "invalid comparator");

  00015	8b 45 0c	 mov	 eax, DWORD PTR __Right$[ebp]
  00018	8b 4d 08	 mov	 ecx, DWORD PTR __Left$[ebp]
  0001b	8b 10		 mov	 edx, DWORD PTR [eax]
  0001d	3b 11		 cmp	 edx, DWORD PTR [ecx]
  0001f	7c 02		 jl	 SHORT $LN7@max
  00021	eb 4a		 jmp	 SHORT $LN2@max
$LN7@max:
  00023	68 00 00 00 00	 push	 OFFSET ??_C@_0BD@FEEMDEPI@invalid?5comparator@
  00028	68 00 00 00 00	 push	 OFFSET ??_C@_02DKCKIIND@?$CFs@
  0002d	6a 00		 push	 0
  0002f	68 0e 15 00 00	 push	 5390			; 0000150eH
  00034	68 00 00 00 00	 push	 OFFSET ??_C@_0GK@JMBMHIBC@c?3?2program?5files?5?$CIx86?$CJ?2microsof@
  00039	6a 02		 push	 2
  0003b	ff 15 00 00 00
	00		 call	 DWORD PTR __imp___CrtDbgReport
  00041	83 c4 18	 add	 esp, 24			; 00000018H
  00044	83 f8 01	 cmp	 eax, 1
  00047	75 01		 jne	 SHORT $LN12@max
  00049	cc		 int	 3
$LN12@max:
  0004a	6a 00		 push	 0
  0004c	68 0e 15 00 00	 push	 5390			; 0000150eH
  00051	68 00 00 00 00	 push	 OFFSET ??_C@_1NE@FKBPBJEB@?$AAc?$AA?3?$AA?2?$AAp?$AAr?$AAo?$AAg?$AAr?$AAa?$AAm?$AA?5?$AAf?$AAi?$AAl?$AAe@
  00056	68 00 00 00 00	 push	 OFFSET ??_C@_1BC@ICCOKLEG@?$AAs?$AAt?$AAd?$AA?3?$AA?3?$AAm?$AAa?$AAx@
  0005b	68 00 00 00 00	 push	 OFFSET ??_C@_1CK@NDNHPKPI@?$AA?$CC?$AAi?$AAn?$AAv?$AAa?$AAl?$AAi?$AAd?$AA?5?$AAc?$AAo?$AAm?$AAp?$AAa?$AAr@
  00060	ff 15 00 00 00
	00		 call	 DWORD PTR __imp___invalid_parameter
  00066	83 c4 14	 add	 esp, 20			; 00000014H
  00069	33 c0		 xor	 eax, eax
  0006b	75 b6		 jne	 SHORT $LN7@max
$LN2@max:
  0006d	33 c0		 xor	 eax, eax
  0006f	75 a4		 jne	 SHORT $LN4@max

; 5391 : 		return (_Right);

  00071	8b 45 0c	 mov	 eax, DWORD PTR __Right$[ebp]
  00074	eb 03		 jmp	 SHORT $LN11@max
$LN8@max:

; 5392 : 		}
; 5393 : 
; 5394 : 	return (_Left);

  00076	8b 45 08	 mov	 eax, DWORD PTR __Left$[ebp]
$LN11@max:

; 5395 : 	}

  00079	5f		 pop	 edi
  0007a	5e		 pop	 esi
  0007b	5b		 pop	 ebx
  0007c	8b e5		 mov	 esp, ebp
  0007e	5d		 pop	 ebp
  0007f	c2 08 00	 ret	 8
??$max@H@std@@YGABHABH0@Z ENDP				; std::max<int>
_TEXT	ENDS
; Function compile flags: /Odtp /ZI
; File c:\users\nhv90\projects\eech\aphavoc\source\entity\system\en_funcs\en_draw.c
;	COMDAT ?get_local_entity_valid_3d_draw_function@@YGHPAUENTITY@@@Z
_TEXT	SEGMENT
tv69 = -68						; size = 4
_en$ = 8						; size = 4
?get_local_entity_valid_3d_draw_function@@YGHPAUENTITY@@@Z PROC ; get_local_entity_valid_3d_draw_function, COMDAT

; 301  : {

  00000	55		 push	 ebp
  00001	8b ec		 mov	 ebp, esp
  00003	83 ec 44	 sub	 esp, 68			; 00000044H
  00006	53		 push	 ebx
  00007	56		 push	 esi
  00008	57		 push	 edi

; 302  : 
; 303  : 	if (fn_draw_local_entity_3d_object[get_local_entity_type (en)] != default_draw_entity_3d_object)

  00009	83 7d 08 00	 cmp	 DWORD PTR _en$[ebp], 0
  0000d	74 0a		 je	 SHORT $LN4@get_local_
  0000f	8b 45 08	 mov	 eax, DWORD PTR _en$[ebp]
  00012	8b 08		 mov	 ecx, DWORD PTR [eax]
  00014	89 4d bc	 mov	 DWORD PTR tv69[ebp], ecx
  00017	eb 1d		 jmp	 SHORT $LN5@get_local_
$LN4@get_local_:
  00019	68 2f 01 00 00	 push	 303			; 0000012fH
  0001e	68 00 00 00 00	 push	 OFFSET ??_C@_0EN@NKNPNDJF@c?3?2users?2nhv90?2projects?2eech?2ap@
  00023	8b 15 00 00 00
	00		 mov	 edx, DWORD PTR ?null_entity_pointer_message@@3PBDB ; null_entity_pointer_message
  00029	52		 push	 edx
  0002a	e8 00 00 00 00	 call	 ?process_assert@@YGXPBD0H@Z ; process_assert
  0002f	c7 45 bc 00 00
	00 00		 mov	 DWORD PTR tv69[ebp], 0
$LN5@get_local_:
  00036	8b 45 bc	 mov	 eax, DWORD PTR tv69[ebp]
  00039	81 3c 85 00 00
	00 00 00 00 00
	00		 cmp	 DWORD PTR ?fn_draw_local_entity_3d_object@@3PAP6GXPAUENTITY@@M@ZA[eax*4], OFFSET ?default_draw_entity_3d_object@@YGXPAUENTITY@@M@Z ; default_draw_entity_3d_object
  00044	74 07		 je	 SHORT $LN2@get_local_

; 304  : 	{
; 305  : 
; 306  : 		return TRUE;

  00046	b8 01 00 00 00	 mov	 eax, 1
  0004b	eb 02		 jmp	 SHORT $LN1@get_local_
$LN2@get_local_:

; 307  : 	}
; 308  : 
; 309  : 	return FALSE;

  0004d	33 c0		 xor	 eax, eax
$LN1@get_local_:

; 310  : }

  0004f	5f		 pop	 edi
  00050	5e		 pop	 esi
  00051	5b		 pop	 ebx
  00052	8b e5		 mov	 esp, ebp
  00054	5d		 pop	 ebp
  00055	c2 04 00	 ret	 4
?get_local_entity_valid_3d_draw_function@@YGHPAUENTITY@@@Z ENDP ; get_local_entity_valid_3d_draw_function
_TEXT	ENDS
; Function compile flags: /Odtp /ZI
; File c:\users\nhv90\projects\eech\aphavoc\source\entity\system\en_funcs\en_draw.c
;	COMDAT ?initialise_entity_draw_default_functions@@YGXXZ
_TEXT	SEGMENT
_i$ = -4						; size = 4
?initialise_entity_draw_default_functions@@YGXXZ PROC	; initialise_entity_draw_default_functions, COMDAT

; 268  : {

  00000	55		 push	 ebp
  00001	8b ec		 mov	 ebp, esp
  00003	83 ec 44	 sub	 esp, 68			; 00000044H
  00006	53		 push	 ebx
  00007	56		 push	 esi
  00008	57		 push	 edi

; 269  : 	int
; 270  : 		i;
; 271  : 
; 272  : 	draw_eo_3d_scene = FALSE;

  00009	c7 05 00 00 00
	00 00 00 00 00	 mov	 DWORD PTR ?draw_eo_3d_scene@@3HA, 0 ; draw_eo_3d_scene

; 273  : 
; 274  : 	for (i = 0; i < NUM_ENTITY_TYPES; i++)

  00013	c7 45 fc 00 00
	00 00		 mov	 DWORD PTR _i$[ebp], 0
  0001a	eb 09		 jmp	 SHORT $LN4@initialise
$LN2@initialise:
  0001c	8b 45 fc	 mov	 eax, DWORD PTR _i$[ebp]
  0001f	83 c0 01	 add	 eax, 1
  00022	89 45 fc	 mov	 DWORD PTR _i$[ebp], eax
$LN4@initialise:
  00025	83 7d fc 26	 cmp	 DWORD PTR _i$[ebp], 38	; 00000026H
  00029	7d 10		 jge	 SHORT $LN3@initialise

; 275  : 	{
; 276  : 		fn_draw_local_entity_3d_object[i]	= default_draw_entity_3d_object;

  0002b	8b 45 fc	 mov	 eax, DWORD PTR _i$[ebp]
  0002e	c7 04 85 00 00
	00 00 00 00 00
	00		 mov	 DWORD PTR ?fn_draw_local_entity_3d_object@@3PAP6GXPAUENTITY@@M@ZA[eax*4], OFFSET ?default_draw_entity_3d_object@@YGXPAUENTITY@@M@Z ; default_draw_entity_3d_object

; 277  : 	}

  00039	eb e1		 jmp	 SHORT $LN2@initialise
$LN3@initialise:

; 278  : 
; 279  : 	//
; 280  : 	// initialise maximum 3D object visual range
; 281  : 	//
; 282  : 
; 283  : 	for (i = OBJECT_3D_INVALID_OBJECT_INDEX + 1; i < OBJECT_3D_LAST; i++)

  0003b	c7 45 fc 01 00
	00 00		 mov	 DWORD PTR _i$[ebp], 1
  00042	eb 09		 jmp	 SHORT $LN7@initialise
$LN5@initialise:
  00044	8b 45 fc	 mov	 eax, DWORD PTR _i$[ebp]
  00047	83 c0 01	 add	 eax, 1
  0004a	89 45 fc	 mov	 DWORD PTR _i$[ebp], eax
$LN7@initialise:
  0004d	81 7d fc e4 0a
	00 00		 cmp	 DWORD PTR _i$[ebp], 2788 ; 00000ae4H
  00054	7d 36		 jge	 SHORT $LN6@initialise

; 284  : 	{
; 285  : 		//
; 286  : 		// if maximum_distance == 0.0 (no approximations) then set to nominal value
; 287  : 		//
; 288  : 
; 289  : 		if (object_3d_information_database[i].maximum_distance == 0.0)

  00056	8b 45 fc	 mov	 eax, DWORD PTR _i$[ebp]
  00059	8b 0d 00 00 00
	00		 mov	 ecx, DWORD PTR ?object_3d_information_database@@3PAUOBJECT_3D_INFORMATION@@A ; object_3d_information_database
  0005f	f3 0f 5a 44 c1
	04		 cvtss2sd xmm0, DWORD PTR [ecx+eax*8+4]
  00065	66 0f 2e 05 00
	00 00 00	 ucomisd xmm0, QWORD PTR __real@0000000000000000
  0006d	9f		 lahf
  0006e	f6 c4 44	 test	 ah, 68			; 00000044H
  00071	7a 17		 jp	 SHORT $LN8@initialise

; 290  : 		{
; 291  : 			object_3d_information_database[i].maximum_distance = NOMINAL_3D_OBJECT_VISUAL_RANGE;

  00073	8b 45 fc	 mov	 eax, DWORD PTR _i$[ebp]
  00076	8b 0d 00 00 00
	00		 mov	 ecx, DWORD PTR ?object_3d_information_database@@3PAUOBJECT_3D_INFORMATION@@A ; object_3d_information_database
  0007c	f3 0f 10 05 00
	00 00 00	 movss	 xmm0, DWORD PTR __real@45fa0000
  00084	f3 0f 11 44 c1
	04		 movss	 DWORD PTR [ecx+eax*8+4], xmm0
$LN8@initialise:

; 292  : 		}
; 293  : 	}

  0008a	eb b8		 jmp	 SHORT $LN5@initialise
$LN6@initialise:

; 294  : }

  0008c	5f		 pop	 edi
  0008d	5e		 pop	 esi
  0008e	5b		 pop	 ebx
  0008f	8b e5		 mov	 esp, ebp
  00091	5d		 pop	 ebp
  00092	c3		 ret	 0
?initialise_entity_draw_default_functions@@YGXXZ ENDP	; initialise_entity_draw_default_functions
_TEXT	ENDS
; Function compile flags: /Odtp /ZI
; File c:\users\nhv90\projects\eech\aphavoc\source\entity\system\en_funcs\en_draw.c
;	COMDAT ?scan_local_entity_3d_objects@@YGXPAUVIEWPOINT@@@Z
_TEXT	SEGMENT
tv289 = -156						; size = 4
tv269 = -156						; size = 4
tv237 = -156						; size = 4
tv207 = -156						; size = 4
tv183 = -156						; size = 4
tv281 = -152						; size = 4
tv261 = -152						; size = 4
tv250 = -152						; size = 4
tv229 = -152						; size = 4
tv199 = -152						; size = 4
tv175 = -152						; size = 4
tv168 = -152						; size = 4
_env$ = -84						; size = 4
_position$ = -80					; size = 4
_scan_origin$ = -76					; size = 12
_en$ = -64						; size = 4
_sctr$ = -60						; size = 4
_fog_end$ = -56						; size = 4
_fog_start$ = -52					; size = 4
_object_max_range$ = -48				; size = 4
_env_max_range$ = -44					; size = 4
_range$ = -40						; size = 4
_hither$ = -36						; size = 4
_z_sec$ = -32						; size = 4
_x_sec$ = -28						; size = 4
_z_sec_max$ = -24					; size = 4
_x_sec_max$ = -20					; size = 4
_z_sec_min$ = -16					; size = 4
_x_sec_min$ = -12					; size = 4
_z_sec_org$ = -8					; size = 4
_x_sec_org$ = -4					; size = 4
_vp$ = 8						; size = 4
?scan_local_entity_3d_objects@@YGXPAUVIEWPOINT@@@Z PROC	; scan_local_entity_3d_objects, COMDAT

; 116  : {

  00000	55		 push	 ebp
  00001	8b ec		 mov	 ebp, esp
  00003	81 ec 9c 00 00
	00		 sub	 esp, 156		; 0000009cH
  00009	53		 push	 ebx
  0000a	56		 push	 esi
  0000b	57		 push	 edi

; 117  :    int
; 118  :       x_sec_org,
; 119  :       z_sec_org,
; 120  :       x_sec_min,
; 121  :       z_sec_min,
; 122  :       x_sec_max,
; 123  :       z_sec_max,
; 124  :       x_sec,
; 125  :       z_sec;
; 126  : 
; 127  :    float
; 128  : 		hither,
; 129  :       range,
; 130  : 		env_max_range,
; 131  : 		object_max_range,
; 132  : 		fog_start, 
; 133  : 		fog_end;
; 134  : 
; 135  :    entity
; 136  :       *sctr,
; 137  :       *en;
; 138  : 
; 139  :    vec3d
; 140  : 		scan_origin,
; 141  :       *position;
; 142  : 
; 143  : 	env_3d
; 144  : 		*env;
; 145  : 
; 146  :    ASSERT (vp);

  0000c	83 7d 08 00	 cmp	 DWORD PTR _vp$[ebp], 0
  00010	75 18		 jne	 SHORT $LN10@scan_local
  00012	a1 00 00 00 00	 mov	 eax, DWORD PTR ?__LINE__Var@?0??scan_local_entity_3d_objects@@YGXPAUVIEWPOINT@@@Z@4JA
  00017	83 c0 1e	 add	 eax, 30			; 0000001eH
  0001a	50		 push	 eax
  0001b	68 00 00 00 00	 push	 OFFSET ??_C@_0EN@NKNPNDJF@c?3?2users?2nhv90?2projects?2eech?2ap@
  00020	68 00 00 00 00	 push	 OFFSET ??_C@_02HPPNELPJ@vp@
  00025	e8 00 00 00 00	 call	 ?process_assert@@YGXPBD0H@Z ; process_assert
$LN10@scan_local:

; 147  : 
; 148  : 	//
; 149  : 	// get active 3D environment max range
; 150  : 	//
; 151  : 
; 152  : 	env = get_3d_active_environment ();

  0002a	e8 00 00 00 00	 call	 ?get_3d_active_environment@@YGPAUENV_3D@@XZ ; get_3d_active_environment
  0002f	89 45 ac	 mov	 DWORD PTR _env$[ebp], eax

; 153  : 
; 154  : 	ASSERT (env);

  00032	83 7d ac 00	 cmp	 DWORD PTR _env$[ebp], 0
  00036	75 18		 jne	 SHORT $LN11@scan_local
  00038	a1 00 00 00 00	 mov	 eax, DWORD PTR ?__LINE__Var@?0??scan_local_entity_3d_objects@@YGXPAUVIEWPOINT@@@Z@4JA
  0003d	83 c0 26	 add	 eax, 38			; 00000026H
  00040	50		 push	 eax
  00041	68 00 00 00 00	 push	 OFFSET ??_C@_0EN@NKNPNDJF@c?3?2users?2nhv90?2projects?2eech?2ap@
  00046	68 00 00 00 00	 push	 OFFSET ??_C@_03OJGPBPII@env@
  0004b	e8 00 00 00 00	 call	 ?process_assert@@YGXPBD0H@Z ; process_assert
$LN11@scan_local:

; 155  : 
; 156  : 	get_3d_view_distances (env, &env_max_range, &hither);

  00050	8d 45 dc	 lea	 eax, DWORD PTR _hither$[ebp]
  00053	50		 push	 eax
  00054	8d 4d d4	 lea	 ecx, DWORD PTR _env_max_range$[ebp]
  00057	51		 push	 ecx
  00058	8b 55 ac	 mov	 edx, DWORD PTR _env$[ebp]
  0005b	52		 push	 edx
  0005c	e8 00 00 00 00	 call	 ?get_3d_view_distances@@YGXPAUENV_3D@@PAM1@Z ; get_3d_view_distances

; 157  : 
; 158  : 	//
; 159  : 	// get sector scan limits
; 160  : 	//
; 161  : 
; 162  : 	scan_origin = vp->position;

  00061	8b 45 08	 mov	 eax, DWORD PTR _vp$[ebp]
  00064	8b 08		 mov	 ecx, DWORD PTR [eax]
  00066	89 4d b4	 mov	 DWORD PTR _scan_origin$[ebp], ecx
  00069	8b 50 04	 mov	 edx, DWORD PTR [eax+4]
  0006c	89 55 b8	 mov	 DWORD PTR _scan_origin$[ebp+4], edx
  0006f	8b 40 08	 mov	 eax, DWORD PTR [eax+8]
  00072	89 45 bc	 mov	 DWORD PTR _scan_origin$[ebp+8], eax

; 163  : 
; 164  : 	bound_position_to_map_area (&scan_origin);

  00075	8d 45 b4	 lea	 eax, DWORD PTR _scan_origin$[ebp]
  00078	50		 push	 eax
  00079	e8 00 00 00 00	 call	 ?bound_position_to_map_area@@YGHPAUVEC3D@@@Z ; bound_position_to_map_area

; 165  : 
; 166  :    get_x_sector (x_sec_org, scan_origin.x);

  0007e	8d 45 fc	 lea	 eax, DWORD PTR _x_sec_org$[ebp]
  00081	50		 push	 eax
  00082	51		 push	 ecx
  00083	f3 0f 10 45 b4	 movss	 xmm0, DWORD PTR _scan_origin$[ebp]
  00088	f3 0f 11 04 24	 movss	 DWORD PTR [esp], xmm0
  0008d	e8 00 00 00 00	 call	 ?convert_float_to_int@@YGXMPAH@Z ; convert_float_to_int
  00092	8b 45 fc	 mov	 eax, DWORD PTR _x_sec_org$[ebp]
  00095	99		 cdq
  00096	f7 3d 00 00 00
	00		 idiv	 DWORD PTR ?world_map@@3UWORLD_MAP_DATA@@A
  0009c	89 45 fc	 mov	 DWORD PTR _x_sec_org$[ebp], eax

; 167  :    get_z_sector (z_sec_org, scan_origin.z);

  0009f	8d 45 f8	 lea	 eax, DWORD PTR _z_sec_org$[ebp]
  000a2	50		 push	 eax
  000a3	51		 push	 ecx
  000a4	f3 0f 10 45 bc	 movss	 xmm0, DWORD PTR _scan_origin$[ebp+8]
  000a9	f3 0f 11 04 24	 movss	 DWORD PTR [esp], xmm0
  000ae	e8 00 00 00 00	 call	 ?convert_float_to_int@@YGXMPAH@Z ; convert_float_to_int
  000b3	8b 45 f8	 mov	 eax, DWORD PTR _z_sec_org$[ebp]
  000b6	99		 cdq
  000b7	f7 3d 00 00 00
	00		 idiv	 DWORD PTR ?world_map@@3UWORLD_MAP_DATA@@A
  000bd	89 45 f8	 mov	 DWORD PTR _z_sec_org$[ebp], eax

; 168  : 
; 169  :    get_x_sector (x_sec_min, scan_origin.x - env_max_range);

  000c0	8d 45 f4	 lea	 eax, DWORD PTR _x_sec_min$[ebp]
  000c3	50		 push	 eax
  000c4	f3 0f 10 45 b4	 movss	 xmm0, DWORD PTR _scan_origin$[ebp]
  000c9	f3 0f 5c 45 d4	 subss	 xmm0, DWORD PTR _env_max_range$[ebp]
  000ce	51		 push	 ecx
  000cf	f3 0f 11 04 24	 movss	 DWORD PTR [esp], xmm0
  000d4	e8 00 00 00 00	 call	 ?convert_float_to_int@@YGXMPAH@Z ; convert_float_to_int
  000d9	8b 45 f4	 mov	 eax, DWORD PTR _x_sec_min$[ebp]
  000dc	99		 cdq
  000dd	f7 3d 00 00 00
	00		 idiv	 DWORD PTR ?world_map@@3UWORLD_MAP_DATA@@A
  000e3	89 45 f4	 mov	 DWORD PTR _x_sec_min$[ebp], eax

; 170  :    get_z_sector (z_sec_min, scan_origin.z - env_max_range);

  000e6	8d 45 f0	 lea	 eax, DWORD PTR _z_sec_min$[ebp]
  000e9	50		 push	 eax
  000ea	f3 0f 10 45 bc	 movss	 xmm0, DWORD PTR _scan_origin$[ebp+8]
  000ef	f3 0f 5c 45 d4	 subss	 xmm0, DWORD PTR _env_max_range$[ebp]
  000f4	51		 push	 ecx
  000f5	f3 0f 11 04 24	 movss	 DWORD PTR [esp], xmm0
  000fa	e8 00 00 00 00	 call	 ?convert_float_to_int@@YGXMPAH@Z ; convert_float_to_int
  000ff	8b 45 f0	 mov	 eax, DWORD PTR _z_sec_min$[ebp]
  00102	99		 cdq
  00103	f7 3d 00 00 00
	00		 idiv	 DWORD PTR ?world_map@@3UWORLD_MAP_DATA@@A
  00109	89 45 f0	 mov	 DWORD PTR _z_sec_min$[ebp], eax

; 171  : 
; 172  :    get_x_sector (x_sec_max, scan_origin.x + env_max_range);

  0010c	8d 45 ec	 lea	 eax, DWORD PTR _x_sec_max$[ebp]
  0010f	50		 push	 eax
  00110	f3 0f 10 45 b4	 movss	 xmm0, DWORD PTR _scan_origin$[ebp]
  00115	f3 0f 58 45 d4	 addss	 xmm0, DWORD PTR _env_max_range$[ebp]
  0011a	51		 push	 ecx
  0011b	f3 0f 11 04 24	 movss	 DWORD PTR [esp], xmm0
  00120	e8 00 00 00 00	 call	 ?convert_float_to_int@@YGXMPAH@Z ; convert_float_to_int
  00125	8b 45 ec	 mov	 eax, DWORD PTR _x_sec_max$[ebp]
  00128	99		 cdq
  00129	f7 3d 00 00 00
	00		 idiv	 DWORD PTR ?world_map@@3UWORLD_MAP_DATA@@A
  0012f	89 45 ec	 mov	 DWORD PTR _x_sec_max$[ebp], eax

; 173  :    get_z_sector (z_sec_max, scan_origin.z + env_max_range);

  00132	8d 45 e8	 lea	 eax, DWORD PTR _z_sec_max$[ebp]
  00135	50		 push	 eax
  00136	f3 0f 10 45 bc	 movss	 xmm0, DWORD PTR _scan_origin$[ebp+8]
  0013b	f3 0f 58 45 d4	 addss	 xmm0, DWORD PTR _env_max_range$[ebp]
  00140	51		 push	 ecx
  00141	f3 0f 11 04 24	 movss	 DWORD PTR [esp], xmm0
  00146	e8 00 00 00 00	 call	 ?convert_float_to_int@@YGXMPAH@Z ; convert_float_to_int
  0014b	8b 45 e8	 mov	 eax, DWORD PTR _z_sec_max$[ebp]
  0014e	99		 cdq
  0014f	f7 3d 00 00 00
	00		 idiv	 DWORD PTR ?world_map@@3UWORLD_MAP_DATA@@A
  00155	89 45 e8	 mov	 DWORD PTR _z_sec_max$[ebp], eax

; 174  : 
; 175  :    x_sec_min = max (x_sec_min, MIN_MAP_X_SECTOR);

  00158	68 14 00 00 00	 push	 OFFSET ?world_map@@3UWORLD_MAP_DATA@@A+20
  0015d	8d 45 f4	 lea	 eax, DWORD PTR _x_sec_min$[ebp]
  00160	50		 push	 eax
  00161	e8 00 00 00 00	 call	 ??$max@H@std@@YGABHABH0@Z ; std::max<int>
  00166	8b 08		 mov	 ecx, DWORD PTR [eax]
  00168	89 4d f4	 mov	 DWORD PTR _x_sec_min$[ebp], ecx

; 176  :    z_sec_min = max (z_sec_min, MIN_MAP_Z_SECTOR);

  0016b	68 18 00 00 00	 push	 OFFSET ?world_map@@3UWORLD_MAP_DATA@@A+24
  00170	8d 45 f0	 lea	 eax, DWORD PTR _z_sec_min$[ebp]
  00173	50		 push	 eax
  00174	e8 00 00 00 00	 call	 ??$max@H@std@@YGABHABH0@Z ; std::max<int>
  00179	8b 08		 mov	 ecx, DWORD PTR [eax]
  0017b	89 4d f0	 mov	 DWORD PTR _z_sec_min$[ebp], ecx

; 177  : 
; 178  :    x_sec_max = min (x_sec_max, MAX_MAP_X_SECTOR);

  0017e	68 1c 00 00 00	 push	 OFFSET ?world_map@@3UWORLD_MAP_DATA@@A+28
  00183	8d 45 ec	 lea	 eax, DWORD PTR _x_sec_max$[ebp]
  00186	50		 push	 eax
  00187	e8 00 00 00 00	 call	 ??$min@H@std@@YGABHABH0@Z ; std::min<int>
  0018c	8b 08		 mov	 ecx, DWORD PTR [eax]
  0018e	89 4d ec	 mov	 DWORD PTR _x_sec_max$[ebp], ecx

; 179  :    z_sec_max = min (z_sec_max, MAX_MAP_Z_SECTOR);

  00191	68 20 00 00 00	 push	 OFFSET ?world_map@@3UWORLD_MAP_DATA@@A+32
  00196	8d 45 e8	 lea	 eax, DWORD PTR _z_sec_max$[ebp]
  00199	50		 push	 eax
  0019a	e8 00 00 00 00	 call	 ??$min@H@std@@YGABHABH0@Z ; std::min<int>
  0019f	8b 08		 mov	 ecx, DWORD PTR [eax]
  001a1	89 4d e8	 mov	 DWORD PTR _z_sec_max$[ebp], ecx

; 180  : 
; 181  : 	//
; 182  : 	// scan sectors
; 183  : 	//
; 184  : 
; 185  :    for (z_sec = z_sec_min; z_sec <= z_sec_max; z_sec++)

  001a4	8b 45 f0	 mov	 eax, DWORD PTR _z_sec_min$[ebp]
  001a7	89 45 e0	 mov	 DWORD PTR _z_sec$[ebp], eax
  001aa	eb 09		 jmp	 SHORT $LN4@scan_local
$LN2@scan_local:
  001ac	8b 45 e0	 mov	 eax, DWORD PTR _z_sec$[ebp]
  001af	83 c0 01	 add	 eax, 1
  001b2	89 45 e0	 mov	 DWORD PTR _z_sec$[ebp], eax
$LN4@scan_local:
  001b5	8b 45 e0	 mov	 eax, DWORD PTR _z_sec$[ebp]
  001b8	3b 45 e8	 cmp	 eax, DWORD PTR _z_sec_max$[ebp]
  001bb	0f 8f 47 04 00
	00		 jg	 $LN3@scan_local

; 186  :    {
; 187  :       for (x_sec = x_sec_min; x_sec <= x_sec_max; x_sec++)

  001c1	8b 45 f4	 mov	 eax, DWORD PTR _x_sec_min$[ebp]
  001c4	89 45 e4	 mov	 DWORD PTR _x_sec$[ebp], eax
  001c7	eb 09		 jmp	 SHORT $LN7@scan_local
$LN5@scan_local:
  001c9	8b 45 e4	 mov	 eax, DWORD PTR _x_sec$[ebp]
  001cc	83 c0 01	 add	 eax, 1
  001cf	89 45 e4	 mov	 DWORD PTR _x_sec$[ebp], eax
$LN7@scan_local:
  001d2	8b 45 e4	 mov	 eax, DWORD PTR _x_sec$[ebp]
  001d5	3b 45 ec	 cmp	 eax, DWORD PTR _x_sec_max$[ebp]
  001d8	0f 8f 25 04 00
	00		 jg	 $LN6@scan_local

; 188  :       {
; 189  :          sctr = get_local_raw_sector_entity (x_sec, z_sec);

  001de	8b 45 e0	 mov	 eax, DWORD PTR _z_sec$[ebp]
  001e1	0f af 05 08 00
	00 00		 imul	 eax, DWORD PTR ?world_map@@3UWORLD_MAP_DATA@@A+8
  001e8	03 45 e4	 add	 eax, DWORD PTR _x_sec$[ebp]
  001eb	8b 0d 00 00 00
	00		 mov	 ecx, DWORD PTR ?entity_sector_map@@3PAPAUENTITY@@A ; entity_sector_map
  001f1	83 3c 81 00	 cmp	 DWORD PTR [ecx+eax*4], 0
  001f5	74 1d		 je	 SHORT $LN20@scan_local
  001f7	8b 55 e0	 mov	 edx, DWORD PTR _z_sec$[ebp]
  001fa	0f af 15 08 00
	00 00		 imul	 edx, DWORD PTR ?world_map@@3UWORLD_MAP_DATA@@A+8
  00201	03 55 e4	 add	 edx, DWORD PTR _x_sec$[ebp]
  00204	a1 00 00 00 00	 mov	 eax, DWORD PTR ?entity_sector_map@@3PAPAUENTITY@@A ; entity_sector_map
  00209	8b 0c 90	 mov	 ecx, DWORD PTR [eax+edx*4]
  0020c	89 8d 68 ff ff
	ff		 mov	 DWORD PTR tv168[ebp], ecx
  00212	eb 24		 jmp	 SHORT $LN21@scan_local
$LN20@scan_local:
  00214	8b 15 00 00 00
	00		 mov	 edx, DWORD PTR ?__LINE__Var@?0??scan_local_entity_3d_objects@@YGXPAUVIEWPOINT@@@Z@4JA
  0021a	83 c2 49	 add	 edx, 73			; 00000049H
  0021d	52		 push	 edx
  0021e	68 00 00 00 00	 push	 OFFSET ??_C@_0EN@NKNPNDJF@c?3?2users?2nhv90?2projects?2eech?2ap@
  00223	a1 00 00 00 00	 mov	 eax, DWORD PTR ?null_sector_entity_map_pointer_message@@3PBDB ; null_sector_entity_map_pointer_message
  00228	50		 push	 eax
  00229	e8 00 00 00 00	 call	 ?process_assert@@YGXPBD0H@Z ; process_assert
  0022e	c7 85 68 ff ff
	ff 00 00 00 00	 mov	 DWORD PTR tv168[ebp], 0
$LN21@scan_local:
  00238	8b 8d 68 ff ff
	ff		 mov	 ecx, DWORD PTR tv168[ebp]
  0023e	89 4d c4	 mov	 DWORD PTR _sctr$[ebp], ecx

; 190  : 
; 191  :          en = get_local_entity_first_child (sctr, LIST_TYPE_SECTOR);

  00241	83 7d c4 00	 cmp	 DWORD PTR _sctr$[ebp], 0
  00245	74 0d		 je	 SHORT $LN22@scan_local
  00247	8b 45 c4	 mov	 eax, DWORD PTR _sctr$[ebp]
  0024a	8b 08		 mov	 ecx, DWORD PTR [eax]
  0024c	89 8d 68 ff ff
	ff		 mov	 DWORD PTR tv175[ebp], ecx
  00252	eb 24		 jmp	 SHORT $LN23@scan_local
$LN22@scan_local:
  00254	8b 15 00 00 00
	00		 mov	 edx, DWORD PTR ?__LINE__Var@?0??scan_local_entity_3d_objects@@YGXPAUVIEWPOINT@@@Z@4JA
  0025a	83 c2 4b	 add	 edx, 75			; 0000004bH
  0025d	52		 push	 edx
  0025e	68 00 00 00 00	 push	 OFFSET ??_C@_0EN@NKNPNDJF@c?3?2users?2nhv90?2projects?2eech?2ap@
  00263	a1 00 00 00 00	 mov	 eax, DWORD PTR ?null_entity_pointer_message@@3PBDB ; null_entity_pointer_message
  00268	50		 push	 eax
  00269	e8 00 00 00 00	 call	 ?process_assert@@YGXPBD0H@Z ; process_assert
  0026e	c7 85 68 ff ff
	ff 00 00 00 00	 mov	 DWORD PTR tv175[ebp], 0
$LN23@scan_local:
  00278	b9 01 00 00 00	 mov	 ecx, 1
  0027d	85 c9		 test	 ecx, ecx
  0027f	74 0c		 je	 SHORT $LN24@scan_local
  00281	c7 85 64 ff ff
	ff 21 00 00 00	 mov	 DWORD PTR tv183[ebp], 33 ; 00000021H
  0028b	eb 24		 jmp	 SHORT $LN25@scan_local
$LN24@scan_local:
  0028d	8b 15 00 00 00
	00		 mov	 edx, DWORD PTR ?__LINE__Var@?0??scan_local_entity_3d_objects@@YGXPAUVIEWPOINT@@@Z@4JA
  00293	83 c2 4b	 add	 edx, 75			; 0000004bH
  00296	52		 push	 edx
  00297	68 00 00 00 00	 push	 OFFSET ??_C@_0EN@NKNPNDJF@c?3?2users?2nhv90?2projects?2eech?2ap@
  0029c	a1 00 00 00 00	 mov	 eax, DWORD PTR ?overload_invalid_list_type_message@@3PBDB ; overload_invalid_list_type_message
  002a1	50		 push	 eax
  002a2	e8 00 00 00 00	 call	 ?process_assert@@YGXPBD0H@Z ; process_assert
  002a7	c7 85 64 ff ff
	ff 00 00 00 00	 mov	 DWORD PTR tv183[ebp], 0
$LN25@scan_local:
  002b1	6a 21		 push	 33			; 00000021H
  002b3	8b 4d c4	 mov	 ecx, DWORD PTR _sctr$[ebp]
  002b6	51		 push	 ecx
  002b7	69 95 68 ff ff
	ff b4 00 00 00	 imul	 edx, DWORD PTR tv175[ebp], 180
  002c1	8b 85 64 ff ff
	ff		 mov	 eax, DWORD PTR tv183[ebp]
  002c7	8b 8c 82 00 00
	00 00		 mov	 ecx, DWORD PTR ?fn_get_local_entity_first_child@@3PAY0CN@P6GPAUENTITY@@PAU1@W4LIST_TYPES@@@ZA[edx+eax*4]
  002ce	ff d1		 call	 ecx
  002d0	89 45 c0	 mov	 DWORD PTR _en$[ebp], eax
$LN8@scan_local:

; 192  : 
; 193  :          while (en)

  002d3	83 7d c0 00	 cmp	 DWORD PTR _en$[ebp], 0
  002d7	0f 84 21 03 00
	00		 je	 $LN9@scan_local

; 194  :          {
; 195  : 
; 196  : 				if (get_local_entity_valid_3d_draw_function (en))

  002dd	8b 45 c0	 mov	 eax, DWORD PTR _en$[ebp]
  002e0	50		 push	 eax
  002e1	e8 00 00 00 00	 call	 ?get_local_entity_valid_3d_draw_function@@YGHPAUENTITY@@@Z ; get_local_entity_valid_3d_draw_function
  002e6	85 c0		 test	 eax, eax
  002e8	0f 84 79 02 00
	00		 je	 $LN18@scan_local

; 197  : 				{
; 198  : 					position = get_local_entity_vec3d_ptr (en, VEC3D_TYPE_POSITION);

  002ee	83 7d c0 00	 cmp	 DWORD PTR _en$[ebp], 0
  002f2	74 0d		 je	 SHORT $LN26@scan_local
  002f4	8b 45 c0	 mov	 eax, DWORD PTR _en$[ebp]
  002f7	8b 08		 mov	 ecx, DWORD PTR [eax]
  002f9	89 8d 68 ff ff
	ff		 mov	 DWORD PTR tv199[ebp], ecx
  002ff	eb 24		 jmp	 SHORT $LN27@scan_local
$LN26@scan_local:
  00301	8b 15 00 00 00
	00		 mov	 edx, DWORD PTR ?__LINE__Var@?0??scan_local_entity_3d_objects@@YGXPAUVIEWPOINT@@@Z@4JA
  00307	83 c2 52	 add	 edx, 82			; 00000052H
  0030a	52		 push	 edx
  0030b	68 00 00 00 00	 push	 OFFSET ??_C@_0EN@NKNPNDJF@c?3?2users?2nhv90?2projects?2eech?2ap@
  00310	a1 00 00 00 00	 mov	 eax, DWORD PTR ?null_entity_pointer_message@@3PBDB ; null_entity_pointer_message
  00315	50		 push	 eax
  00316	e8 00 00 00 00	 call	 ?process_assert@@YGXPBD0H@Z ; process_assert
  0031b	c7 85 68 ff ff
	ff 00 00 00 00	 mov	 DWORD PTR tv199[ebp], 0
$LN27@scan_local:
  00325	b9 01 00 00 00	 mov	 ecx, 1
  0032a	85 c9		 test	 ecx, ecx
  0032c	74 0c		 je	 SHORT $LN28@scan_local
  0032e	c7 85 64 ff ff
	ff 08 00 00 00	 mov	 DWORD PTR tv207[ebp], 8
  00338	eb 24		 jmp	 SHORT $LN29@scan_local
$LN28@scan_local:
  0033a	8b 15 00 00 00
	00		 mov	 edx, DWORD PTR ?__LINE__Var@?0??scan_local_entity_3d_objects@@YGXPAUVIEWPOINT@@@Z@4JA
  00340	83 c2 52	 add	 edx, 82			; 00000052H
  00343	52		 push	 edx
  00344	68 00 00 00 00	 push	 OFFSET ??_C@_0EN@NKNPNDJF@c?3?2users?2nhv90?2projects?2eech?2ap@
  00349	a1 00 00 00 00	 mov	 eax, DWORD PTR ?overload_invalid_vec3d_type_message@@3PBDB ; overload_invalid_vec3d_type_message
  0034e	50		 push	 eax
  0034f	e8 00 00 00 00	 call	 ?process_assert@@YGXPBD0H@Z ; process_assert
  00354	c7 85 64 ff ff
	ff 00 00 00 00	 mov	 DWORD PTR tv207[ebp], 0
$LN29@scan_local:
  0035e	6a 08		 push	 8
  00360	8b 4d c0	 mov	 ecx, DWORD PTR _en$[ebp]
  00363	51		 push	 ecx
  00364	6b 95 68 ff ff
	ff 60		 imul	 edx, DWORD PTR tv199[ebp], 96
  0036b	8b 85 64 ff ff
	ff		 mov	 eax, DWORD PTR tv207[ebp]
  00371	8b 8c 82 00 00
	00 00		 mov	 ecx, DWORD PTR ?fn_get_local_entity_vec3d_ptr@@3PAY0BI@P6GPAUVEC3D@@PAUENTITY@@W4VEC3D_TYPES@@@ZA[edx+eax*4]
  00378	ff d1		 call	 ecx
  0037a	89 45 b0	 mov	 DWORD PTR _position$[ebp], eax

; 199  : 
; 200  : 					range = get_approx_3d_range (&vp->position, position);

  0037d	8b 45 b0	 mov	 eax, DWORD PTR _position$[ebp]
  00380	50		 push	 eax
  00381	8b 4d 08	 mov	 ecx, DWORD PTR _vp$[ebp]
  00384	51		 push	 ecx
  00385	e8 00 00 00 00	 call	 ?get_approx_3d_range@@YGMPBUVEC3D@@0@Z ; get_approx_3d_range
  0038a	d9 5d d8	 fstp	 DWORD PTR _range$[ebp]

; 201  : 
; 202  : 					if (range < env_max_range)

  0038d	f3 0f 10 45 d4	 movss	 xmm0, DWORD PTR _env_max_range$[ebp]
  00392	0f 2f 45 d8	 comiss	 xmm0, DWORD PTR _range$[ebp]
  00396	0f 86 cb 01 00
	00		 jbe	 $LN18@scan_local

; 203  : 					{
; 204  : 						if (draw_eo_3d_scene)

  0039c	83 3d 00 00 00
	00 00		 cmp	 DWORD PTR ?draw_eo_3d_scene@@3HA, 0 ; draw_eo_3d_scene
  003a3	74 38		 je	 SHORT $LN14@scan_local

; 205  : 						{
; 206  : 							// start full_eo_range by GCsDriver  08-12-2007
; 207  : 							// this is for object rendering up to max fog distance
; 208  : 							if (command_line_eo_full_range)

  003a5	83 3d 00 00 00
	00 00		 cmp	 DWORD PTR ?command_line_eo_full_range@@3HA, 0 ; command_line_eo_full_range
  003ac	74 1d		 je	 SHORT $LN16@scan_local

; 209  : 							{
; 210  : 								get_3d_fog_distances (env, &fog_start, &fog_end);

  003ae	8d 45 c8	 lea	 eax, DWORD PTR _fog_end$[ebp]
  003b1	50		 push	 eax
  003b2	8d 4d cc	 lea	 ecx, DWORD PTR _fog_start$[ebp]
  003b5	51		 push	 ecx
  003b6	8b 55 ac	 mov	 edx, DWORD PTR _env$[ebp]
  003b9	52		 push	 edx
  003ba	e8 00 00 00 00	 call	 ?get_3d_fog_distances@@YGXPAUENV_3D@@PAM1@Z ; get_3d_fog_distances

; 211  : 								object_max_range = fog_end;

  003bf	f3 0f 10 45 c8	 movss	 xmm0, DWORD PTR _fog_end$[ebp]
  003c4	f3 0f 11 45 d0	 movss	 DWORD PTR _object_max_range$[ebp], xmm0

; 212  : 							}
; 213  : 							else

  003c9	eb 0d		 jmp	 SHORT $LN17@scan_local
$LN16@scan_local:

; 214  : 							{
; 215  : 								//original hardcoded value
; 216  : 								object_max_range = 6000.0;

  003cb	f3 0f 10 05 00
	00 00 00	 movss	 xmm0, DWORD PTR __real@45bb8000
  003d3	f3 0f 11 45 d0	 movss	 DWORD PTR _object_max_range$[ebp], xmm0
$LN17@scan_local:

; 217  : 							}
; 218  : 							// end full_eo_range by GCsDriver  08-12-2007
; 219  : 						}
; 220  : 						else

  003d8	e9 92 00 00 00	 jmp	 $LN15@scan_local
$LN14@scan_local:

; 221  : 						{
; 222  : 							object_max_range = get_local_entity_float_value (en, FLOAT_TYPE_MAX_3D_OBJECT_VISUAL_RANGE);

  003dd	83 7d c0 00	 cmp	 DWORD PTR _en$[ebp], 0
  003e1	74 0d		 je	 SHORT $LN30@scan_local
  003e3	8b 45 c0	 mov	 eax, DWORD PTR _en$[ebp]
  003e6	8b 08		 mov	 ecx, DWORD PTR [eax]
  003e8	89 8d 68 ff ff
	ff		 mov	 DWORD PTR tv229[ebp], ecx
  003ee	eb 24		 jmp	 SHORT $LN31@scan_local
$LN30@scan_local:
  003f0	8b 15 00 00 00
	00		 mov	 edx, DWORD PTR ?__LINE__Var@?0??scan_local_entity_3d_objects@@YGXPAUVIEWPOINT@@@Z@4JA
  003f6	83 c2 6a	 add	 edx, 106		; 0000006aH
  003f9	52		 push	 edx
  003fa	68 00 00 00 00	 push	 OFFSET ??_C@_0EN@NKNPNDJF@c?3?2users?2nhv90?2projects?2eech?2ap@
  003ff	a1 00 00 00 00	 mov	 eax, DWORD PTR ?null_entity_pointer_message@@3PBDB ; null_entity_pointer_message
  00404	50		 push	 eax
  00405	e8 00 00 00 00	 call	 ?process_assert@@YGXPBD0H@Z ; process_assert
  0040a	c7 85 68 ff ff
	ff 00 00 00 00	 mov	 DWORD PTR tv229[ebp], 0
$LN31@scan_local:
  00414	b9 01 00 00 00	 mov	 ecx, 1
  00419	85 c9		 test	 ecx, ecx
  0041b	74 0c		 je	 SHORT $LN32@scan_local
  0041d	c7 85 64 ff ff
	ff 4b 00 00 00	 mov	 DWORD PTR tv237[ebp], 75 ; 0000004bH
  00427	eb 24		 jmp	 SHORT $LN33@scan_local
$LN32@scan_local:
  00429	8b 15 00 00 00
	00		 mov	 edx, DWORD PTR ?__LINE__Var@?0??scan_local_entity_3d_objects@@YGXPAUVIEWPOINT@@@Z@4JA
  0042f	83 c2 6a	 add	 edx, 106		; 0000006aH
  00432	52		 push	 edx
  00433	68 00 00 00 00	 push	 OFFSET ??_C@_0EN@NKNPNDJF@c?3?2users?2nhv90?2projects?2eech?2ap@
  00438	a1 00 00 00 00	 mov	 eax, DWORD PTR ?overload_invalid_float_type_message@@3PBDB ; overload_invalid_float_type_message
  0043d	50		 push	 eax
  0043e	e8 00 00 00 00	 call	 ?process_assert@@YGXPBD0H@Z ; process_assert
  00443	c7 85 64 ff ff
	ff 00 00 00 00	 mov	 DWORD PTR tv237[ebp], 0
$LN33@scan_local:
  0044d	6a 4b		 push	 75			; 0000004bH
  0044f	8b 4d c0	 mov	 ecx, DWORD PTR _en$[ebp]
  00452	51		 push	 ecx
  00453	69 95 68 ff ff
	ff bc 02 00 00	 imul	 edx, DWORD PTR tv229[ebp], 700
  0045d	8b 85 64 ff ff
	ff		 mov	 eax, DWORD PTR tv237[ebp]
  00463	8b 8c 82 00 00
	00 00		 mov	 ecx, DWORD PTR ?fn_get_local_entity_float_value@@3PAY0KP@P6GMPAUENTITY@@W4FLOAT_TYPES@@@ZA[edx+eax*4]
  0046a	ff d1		 call	 ecx
  0046c	d9 5d d0	 fstp	 DWORD PTR _object_max_range$[ebp]
$LN15@scan_local:

; 223  : 						}
; 224  : 
; 225  : 	            	if (range < object_max_range)

  0046f	f3 0f 10 45 d0	 movss	 xmm0, DWORD PTR _object_max_range$[ebp]
  00474	0f 2f 45 d8	 comiss	 xmm0, DWORD PTR _range$[ebp]
  00478	0f 86 e9 00 00
	00		 jbe	 $LN18@scan_local

; 226  : 						{
; 227  : 
; 228  : 							draw_local_entity_3d_object (en, range);

  0047e	83 7d c0 00	 cmp	 DWORD PTR _en$[ebp], 0
  00482	74 0d		 je	 SHORT $LN34@scan_local
  00484	8b 45 c0	 mov	 eax, DWORD PTR _en$[ebp]
  00487	8b 08		 mov	 ecx, DWORD PTR [eax]
  00489	89 8d 68 ff ff
	ff		 mov	 DWORD PTR tv250[ebp], ecx
  0048f	eb 24		 jmp	 SHORT $LN35@scan_local
$LN34@scan_local:
  00491	8b 15 00 00 00
	00		 mov	 edx, DWORD PTR ?__LINE__Var@?0??scan_local_entity_3d_objects@@YGXPAUVIEWPOINT@@@Z@4JA
  00497	83 c2 70	 add	 edx, 112		; 00000070H
  0049a	52		 push	 edx
  0049b	68 00 00 00 00	 push	 OFFSET ??_C@_0EN@NKNPNDJF@c?3?2users?2nhv90?2projects?2eech?2ap@
  004a0	a1 00 00 00 00	 mov	 eax, DWORD PTR ?null_entity_pointer_message@@3PBDB ; null_entity_pointer_message
  004a5	50		 push	 eax
  004a6	e8 00 00 00 00	 call	 ?process_assert@@YGXPBD0H@Z ; process_assert
  004ab	c7 85 68 ff ff
	ff 00 00 00 00	 mov	 DWORD PTR tv250[ebp], 0
$LN35@scan_local:
  004b5	51		 push	 ecx
  004b6	f3 0f 10 45 d8	 movss	 xmm0, DWORD PTR _range$[ebp]
  004bb	f3 0f 11 04 24	 movss	 DWORD PTR [esp], xmm0
  004c0	8b 4d c0	 mov	 ecx, DWORD PTR _en$[ebp]
  004c3	51		 push	 ecx
  004c4	8b 95 68 ff ff
	ff		 mov	 edx, DWORD PTR tv250[ebp]
  004ca	8b 04 95 00 00
	00 00		 mov	 eax, DWORD PTR ?fn_draw_local_entity_3d_object@@3PAP6GXPAUENTITY@@M@ZA[edx*4]
  004d1	ff d0		 call	 eax

; 229  : 
; 230  : 							set_local_entity_int_value (en, INT_TYPE_OBJECT_DRAWN_ONCE_THIS_FRAME, TRUE);

  004d3	83 7d c0 00	 cmp	 DWORD PTR _en$[ebp], 0
  004d7	74 0d		 je	 SHORT $LN36@scan_local
  004d9	8b 45 c0	 mov	 eax, DWORD PTR _en$[ebp]
  004dc	8b 08		 mov	 ecx, DWORD PTR [eax]
  004de	89 8d 68 ff ff
	ff		 mov	 DWORD PTR tv261[ebp], ecx
  004e4	eb 24		 jmp	 SHORT $LN37@scan_local
$LN36@scan_local:
  004e6	8b 15 00 00 00
	00		 mov	 edx, DWORD PTR ?__LINE__Var@?0??scan_local_entity_3d_objects@@YGXPAUVIEWPOINT@@@Z@4JA
  004ec	83 c2 72	 add	 edx, 114		; 00000072H
  004ef	52		 push	 edx
  004f0	68 00 00 00 00	 push	 OFFSET ??_C@_0EN@NKNPNDJF@c?3?2users?2nhv90?2projects?2eech?2ap@
  004f5	a1 00 00 00 00	 mov	 eax, DWORD PTR ?null_entity_pointer_message@@3PBDB ; null_entity_pointer_message
  004fa	50		 push	 eax
  004fb	e8 00 00 00 00	 call	 ?process_assert@@YGXPBD0H@Z ; process_assert
  00500	c7 85 68 ff ff
	ff 00 00 00 00	 mov	 DWORD PTR tv261[ebp], 0
$LN37@scan_local:
  0050a	b9 01 00 00 00	 mov	 ecx, 1
  0050f	85 c9		 test	 ecx, ecx
  00511	74 0c		 je	 SHORT $LN38@scan_local
  00513	c7 85 64 ff ff
	ff 93 00 00 00	 mov	 DWORD PTR tv269[ebp], 147 ; 00000093H
  0051d	eb 24		 jmp	 SHORT $LN39@scan_local
$LN38@scan_local:
  0051f	8b 15 00 00 00
	00		 mov	 edx, DWORD PTR ?__LINE__Var@?0??scan_local_entity_3d_objects@@YGXPAUVIEWPOINT@@@Z@4JA
  00525	83 c2 72	 add	 edx, 114		; 00000072H
  00528	52		 push	 edx
  00529	68 00 00 00 00	 push	 OFFSET ??_C@_0EN@NKNPNDJF@c?3?2users?2nhv90?2projects?2eech?2ap@
  0052e	a1 00 00 00 00	 mov	 eax, DWORD PTR ?overload_invalid_int_type_message@@3PBDB ; overload_invalid_int_type_message
  00533	50		 push	 eax
  00534	e8 00 00 00 00	 call	 ?process_assert@@YGXPBD0H@Z ; process_assert
  00539	c7 85 64 ff ff
	ff 00 00 00 00	 mov	 DWORD PTR tv269[ebp], 0
$LN39@scan_local:
  00543	6a 01		 push	 1
  00545	68 93 00 00 00	 push	 147			; 00000093H
  0054a	8b 4d c0	 mov	 ecx, DWORD PTR _en$[ebp]
  0054d	51		 push	 ecx
  0054e	69 95 68 ff ff
	ff 5c 04 00 00	 imul	 edx, DWORD PTR tv261[ebp], 1116
  00558	8b 85 64 ff ff
	ff		 mov	 eax, DWORD PTR tv269[ebp]
  0055e	8b 8c 82 00 00
	00 00		 mov	 ecx, DWORD PTR ?fn_set_local_entity_int_value@@3PAY0BBH@P6GXPAUENTITY@@W4INT_TYPES@@H@ZA[edx+eax*4]
  00565	ff d1		 call	 ecx
$LN18@scan_local:

; 231  : 						}
; 232  : 					}
; 233  : 				}
; 234  : 
; 235  :             en = get_local_entity_child_succ (en, LIST_TYPE_SECTOR);

  00567	83 7d c0 00	 cmp	 DWORD PTR _en$[ebp], 0
  0056b	74 0d		 je	 SHORT $LN40@scan_local
  0056d	8b 45 c0	 mov	 eax, DWORD PTR _en$[ebp]
  00570	8b 08		 mov	 ecx, DWORD PTR [eax]
  00572	89 8d 68 ff ff
	ff		 mov	 DWORD PTR tv281[ebp], ecx
  00578	eb 24		 jmp	 SHORT $LN41@scan_local
$LN40@scan_local:
  0057a	8b 15 00 00 00
	00		 mov	 edx, DWORD PTR ?__LINE__Var@?0??scan_local_entity_3d_objects@@YGXPAUVIEWPOINT@@@Z@4JA
  00580	83 c2 77	 add	 edx, 119		; 00000077H
  00583	52		 push	 edx
  00584	68 00 00 00 00	 push	 OFFSET ??_C@_0EN@NKNPNDJF@c?3?2users?2nhv90?2projects?2eech?2ap@
  00589	a1 00 00 00 00	 mov	 eax, DWORD PTR ?null_entity_pointer_message@@3PBDB ; null_entity_pointer_message
  0058e	50		 push	 eax
  0058f	e8 00 00 00 00	 call	 ?process_assert@@YGXPBD0H@Z ; process_assert
  00594	c7 85 68 ff ff
	ff 00 00 00 00	 mov	 DWORD PTR tv281[ebp], 0
$LN41@scan_local:
  0059e	b9 01 00 00 00	 mov	 ecx, 1
  005a3	85 c9		 test	 ecx, ecx
  005a5	74 0c		 je	 SHORT $LN42@scan_local
  005a7	c7 85 64 ff ff
	ff 21 00 00 00	 mov	 DWORD PTR tv289[ebp], 33 ; 00000021H
  005b1	eb 24		 jmp	 SHORT $LN43@scan_local
$LN42@scan_local:
  005b3	8b 15 00 00 00
	00		 mov	 edx, DWORD PTR ?__LINE__Var@?0??scan_local_entity_3d_objects@@YGXPAUVIEWPOINT@@@Z@4JA
  005b9	83 c2 77	 add	 edx, 119		; 00000077H
  005bc	52		 push	 edx
  005bd	68 00 00 00 00	 push	 OFFSET ??_C@_0EN@NKNPNDJF@c?3?2users?2nhv90?2projects?2eech?2ap@
  005c2	a1 00 00 00 00	 mov	 eax, DWORD PTR ?overload_invalid_list_type_message@@3PBDB ; overload_invalid_list_type_message
  005c7	50		 push	 eax
  005c8	e8 00 00 00 00	 call	 ?process_assert@@YGXPBD0H@Z ; process_assert
  005cd	c7 85 64 ff ff
	ff 00 00 00 00	 mov	 DWORD PTR tv289[ebp], 0
$LN43@scan_local:
  005d7	6a 21		 push	 33			; 00000021H
  005d9	8b 4d c0	 mov	 ecx, DWORD PTR _en$[ebp]
  005dc	51		 push	 ecx
  005dd	69 95 68 ff ff
	ff b4 00 00 00	 imul	 edx, DWORD PTR tv281[ebp], 180
  005e7	8b 85 64 ff ff
	ff		 mov	 eax, DWORD PTR tv289[ebp]
  005ed	8b 8c 82 00 00
	00 00		 mov	 ecx, DWORD PTR ?fn_get_local_entity_child_succ@@3PAY0CN@P6GPAUENTITY@@PAU1@W4LIST_TYPES@@@ZA[edx+eax*4]
  005f4	ff d1		 call	 ecx
  005f6	89 45 c0	 mov	 DWORD PTR _en$[ebp], eax

; 236  :          }

  005f9	e9 d5 fc ff ff	 jmp	 $LN8@scan_local
$LN9@scan_local:

; 237  :       }

  005fe	e9 c6 fb ff ff	 jmp	 $LN5@scan_local
$LN6@scan_local:

; 238  :    }

  00603	e9 a4 fb ff ff	 jmp	 $LN2@scan_local
$LN3@scan_local:

; 239  : 
; 240  :    //
; 241  :    // debug
; 242  :    //
; 243  : 
; 244  :    draw_debug_3d_objects (vp, DEBUG_3D_OBJECT_VISUAL_RANGE);

  00608	51		 push	 ecx
  00609	f3 0f 10 05 00
	00 00 00	 movss	 xmm0, DWORD PTR __real@461c4000
  00611	f3 0f 11 04 24	 movss	 DWORD PTR [esp], xmm0
  00616	8b 45 08	 mov	 eax, DWORD PTR _vp$[ebp]
  00619	50		 push	 eax
  0061a	e8 00 00 00 00	 call	 ?draw_debug_3d_objects@@YGXPAUVIEWPOINT@@M@Z ; draw_debug_3d_objects

; 245  : 
; 246  :    draw_debug_3d_lines (vp, DEBUG_3D_LINE_VISUAL_RANGE);

  0061f	51		 push	 ecx
  00620	f3 0f 10 05 00
	00 00 00	 movss	 xmm0, DWORD PTR __real@461c4000
  00628	f3 0f 11 04 24	 movss	 DWORD PTR [esp], xmm0
  0062d	8b 45 08	 mov	 eax, DWORD PTR _vp$[ebp]
  00630	50		 push	 eax
  00631	e8 00 00 00 00	 call	 ?draw_debug_3d_lines@@YGXPAUVIEWPOINT@@M@Z ; draw_debug_3d_lines

; 247  : }

  00636	5f		 pop	 edi
  00637	5e		 pop	 esi
  00638	5b		 pop	 ebx
  00639	8b e5		 mov	 esp, ebp
  0063b	5d		 pop	 ebp
  0063c	c2 04 00	 ret	 4
?scan_local_entity_3d_objects@@YGXPAUVIEWPOINT@@@Z ENDP	; scan_local_entity_3d_objects
_TEXT	ENDS
; Function compile flags: /Odtp /ZI
; File c:\users\nhv90\projects\eech\aphavoc\source\entity\system\en_funcs\en_draw.c
;	COMDAT ?reset_local_entity_drawn_flags@@YGXXZ
_TEXT	SEGMENT
tv156 = -76						; size = 4
tv136 = -76						; size = 4
tv83 = -76						; size = 4
tv148 = -72						; size = 4
tv128 = -72						; size = 4
tv75 = -72						; size = 4
_en$ = -4						; size = 4
?reset_local_entity_drawn_flags@@YGXXZ PROC		; reset_local_entity_drawn_flags, COMDAT

; 95   : {

  00000	55		 push	 ebp
  00001	8b ec		 mov	 ebp, esp
  00003	83 ec 4c	 sub	 esp, 76			; 0000004cH
  00006	53		 push	 ebx
  00007	56		 push	 esi
  00008	57		 push	 edi

; 96   : 	entity
; 97   : 		*en;
; 98   : 
; 99   : 	ASSERT (get_update_entity ());

  00009	83 3d 00 00 00
	00 00		 cmp	 DWORD PTR ?update_entity@@3PAUENTITY@@A, 0 ; update_entity
  00010	75 18		 jne	 SHORT $LN4@reset_loca
  00012	a1 00 00 00 00	 mov	 eax, DWORD PTR ?__LINE__Var@?0??reset_local_entity_drawn_flags@@YGXXZ@4JA
  00017	83 c0 04	 add	 eax, 4
  0001a	50		 push	 eax
  0001b	68 00 00 00 00	 push	 OFFSET ??_C@_0EN@NKNPNDJF@c?3?2users?2nhv90?2projects?2eech?2ap@
  00020	68 00 00 00 00	 push	 OFFSET ??_C@_0BF@NHFKMCKI@get_update_entity?5?$CI?$CJ@
  00025	e8 00 00 00 00	 call	 ?process_assert@@YGXPBD0H@Z ; process_assert
$LN4@reset_loca:

; 100  : 
; 101  : 	en = get_local_entity_first_child (get_update_entity (), LIST_TYPE_UPDATE);

  0002a	83 3d 00 00 00
	00 00		 cmp	 DWORD PTR ?update_entity@@3PAUENTITY@@A, 0 ; update_entity
  00031	74 0c		 je	 SHORT $LN6@reset_loca
  00033	a1 00 00 00 00	 mov	 eax, DWORD PTR ?update_entity@@3PAUENTITY@@A ; update_entity
  00038	8b 08		 mov	 ecx, DWORD PTR [eax]
  0003a	89 4d b8	 mov	 DWORD PTR tv75[ebp], ecx
  0003d	eb 21		 jmp	 SHORT $LN7@reset_loca
$LN6@reset_loca:
  0003f	8b 15 00 00 00
	00		 mov	 edx, DWORD PTR ?__LINE__Var@?0??reset_local_entity_drawn_flags@@YGXXZ@4JA
  00045	83 c2 06	 add	 edx, 6
  00048	52		 push	 edx
  00049	68 00 00 00 00	 push	 OFFSET ??_C@_0EN@NKNPNDJF@c?3?2users?2nhv90?2projects?2eech?2ap@
  0004e	a1 00 00 00 00	 mov	 eax, DWORD PTR ?null_entity_pointer_message@@3PBDB ; null_entity_pointer_message
  00053	50		 push	 eax
  00054	e8 00 00 00 00	 call	 ?process_assert@@YGXPBD0H@Z ; process_assert
  00059	c7 45 b8 00 00
	00 00		 mov	 DWORD PTR tv75[ebp], 0
$LN7@reset_loca:
  00060	b9 01 00 00 00	 mov	 ecx, 1
  00065	85 c9		 test	 ecx, ecx
  00067	74 09		 je	 SHORT $LN8@reset_loca
  00069	c7 45 b4 29 00
	00 00		 mov	 DWORD PTR tv83[ebp], 41	; 00000029H
  00070	eb 21		 jmp	 SHORT $LN9@reset_loca
$LN8@reset_loca:
  00072	8b 15 00 00 00
	00		 mov	 edx, DWORD PTR ?__LINE__Var@?0??reset_local_entity_drawn_flags@@YGXXZ@4JA
  00078	83 c2 06	 add	 edx, 6
  0007b	52		 push	 edx
  0007c	68 00 00 00 00	 push	 OFFSET ??_C@_0EN@NKNPNDJF@c?3?2users?2nhv90?2projects?2eech?2ap@
  00081	a1 00 00 00 00	 mov	 eax, DWORD PTR ?overload_invalid_list_type_message@@3PBDB ; overload_invalid_list_type_message
  00086	50		 push	 eax
  00087	e8 00 00 00 00	 call	 ?process_assert@@YGXPBD0H@Z ; process_assert
  0008c	c7 45 b4 00 00
	00 00		 mov	 DWORD PTR tv83[ebp], 0
$LN9@reset_loca:
  00093	6a 29		 push	 41			; 00000029H
  00095	8b 0d 00 00 00
	00		 mov	 ecx, DWORD PTR ?update_entity@@3PAUENTITY@@A ; update_entity
  0009b	51		 push	 ecx
  0009c	69 55 b8 b4 00
	00 00		 imul	 edx, DWORD PTR tv75[ebp], 180
  000a3	8b 45 b4	 mov	 eax, DWORD PTR tv83[ebp]
  000a6	8b 8c 82 00 00
	00 00		 mov	 ecx, DWORD PTR ?fn_get_local_entity_first_child@@3PAY0CN@P6GPAUENTITY@@PAU1@W4LIST_TYPES@@@ZA[edx+eax*4]
  000ad	ff d1		 call	 ecx
  000af	89 45 fc	 mov	 DWORD PTR _en$[ebp], eax
$LN2@reset_loca:

; 102  : 
; 103  : 	while (en)

  000b2	83 7d fc 00	 cmp	 DWORD PTR _en$[ebp], 0
  000b6	0f 84 07 01 00
	00		 je	 $LN1@reset_loca

; 104  : 	{
; 105  : 		set_local_entity_int_value (en, INT_TYPE_OBJECT_DRAWN_ONCE_THIS_FRAME, FALSE);

  000bc	83 7d fc 00	 cmp	 DWORD PTR _en$[ebp], 0
  000c0	74 0a		 je	 SHORT $LN10@reset_loca
  000c2	8b 45 fc	 mov	 eax, DWORD PTR _en$[ebp]
  000c5	8b 08		 mov	 ecx, DWORD PTR [eax]
  000c7	89 4d b8	 mov	 DWORD PTR tv128[ebp], ecx
  000ca	eb 21		 jmp	 SHORT $LN11@reset_loca
$LN10@reset_loca:
  000cc	8b 15 00 00 00
	00		 mov	 edx, DWORD PTR ?__LINE__Var@?0??reset_local_entity_drawn_flags@@YGXXZ@4JA
  000d2	83 c2 0a	 add	 edx, 10			; 0000000aH
  000d5	52		 push	 edx
  000d6	68 00 00 00 00	 push	 OFFSET ??_C@_0EN@NKNPNDJF@c?3?2users?2nhv90?2projects?2eech?2ap@
  000db	a1 00 00 00 00	 mov	 eax, DWORD PTR ?null_entity_pointer_message@@3PBDB ; null_entity_pointer_message
  000e0	50		 push	 eax
  000e1	e8 00 00 00 00	 call	 ?process_assert@@YGXPBD0H@Z ; process_assert
  000e6	c7 45 b8 00 00
	00 00		 mov	 DWORD PTR tv128[ebp], 0
$LN11@reset_loca:
  000ed	b9 01 00 00 00	 mov	 ecx, 1
  000f2	85 c9		 test	 ecx, ecx
  000f4	74 09		 je	 SHORT $LN12@reset_loca
  000f6	c7 45 b4 93 00
	00 00		 mov	 DWORD PTR tv136[ebp], 147 ; 00000093H
  000fd	eb 21		 jmp	 SHORT $LN13@reset_loca
$LN12@reset_loca:
  000ff	8b 15 00 00 00
	00		 mov	 edx, DWORD PTR ?__LINE__Var@?0??reset_local_entity_drawn_flags@@YGXXZ@4JA
  00105	83 c2 0a	 add	 edx, 10			; 0000000aH
  00108	52		 push	 edx
  00109	68 00 00 00 00	 push	 OFFSET ??_C@_0EN@NKNPNDJF@c?3?2users?2nhv90?2projects?2eech?2ap@
  0010e	a1 00 00 00 00	 mov	 eax, DWORD PTR ?overload_invalid_int_type_message@@3PBDB ; overload_invalid_int_type_message
  00113	50		 push	 eax
  00114	e8 00 00 00 00	 call	 ?process_assert@@YGXPBD0H@Z ; process_assert
  00119	c7 45 b4 00 00
	00 00		 mov	 DWORD PTR tv136[ebp], 0
$LN13@reset_loca:
  00120	6a 00		 push	 0
  00122	68 93 00 00 00	 push	 147			; 00000093H
  00127	8b 4d fc	 mov	 ecx, DWORD PTR _en$[ebp]
  0012a	51		 push	 ecx
  0012b	69 55 b8 5c 04
	00 00		 imul	 edx, DWORD PTR tv128[ebp], 1116
  00132	8b 45 b4	 mov	 eax, DWORD PTR tv136[ebp]
  00135	8b 8c 82 00 00
	00 00		 mov	 ecx, DWORD PTR ?fn_set_local_entity_int_value@@3PAY0BBH@P6GXPAUENTITY@@W4INT_TYPES@@H@ZA[edx+eax*4]
  0013c	ff d1		 call	 ecx

; 106  : 
; 107  : 		en = get_local_entity_child_succ (en, LIST_TYPE_UPDATE);

  0013e	83 7d fc 00	 cmp	 DWORD PTR _en$[ebp], 0
  00142	74 0a		 je	 SHORT $LN14@reset_loca
  00144	8b 45 fc	 mov	 eax, DWORD PTR _en$[ebp]
  00147	8b 08		 mov	 ecx, DWORD PTR [eax]
  00149	89 4d b8	 mov	 DWORD PTR tv148[ebp], ecx
  0014c	eb 21		 jmp	 SHORT $LN15@reset_loca
$LN14@reset_loca:
  0014e	8b 15 00 00 00
	00		 mov	 edx, DWORD PTR ?__LINE__Var@?0??reset_local_entity_drawn_flags@@YGXXZ@4JA
  00154	83 c2 0c	 add	 edx, 12			; 0000000cH
  00157	52		 push	 edx
  00158	68 00 00 00 00	 push	 OFFSET ??_C@_0EN@NKNPNDJF@c?3?2users?2nhv90?2projects?2eech?2ap@
  0015d	a1 00 00 00 00	 mov	 eax, DWORD PTR ?null_entity_pointer_message@@3PBDB ; null_entity_pointer_message
  00162	50		 push	 eax
  00163	e8 00 00 00 00	 call	 ?process_assert@@YGXPBD0H@Z ; process_assert
  00168	c7 45 b8 00 00
	00 00		 mov	 DWORD PTR tv148[ebp], 0
$LN15@reset_loca:
  0016f	b9 01 00 00 00	 mov	 ecx, 1
  00174	85 c9		 test	 ecx, ecx
  00176	74 09		 je	 SHORT $LN16@reset_loca
  00178	c7 45 b4 29 00
	00 00		 mov	 DWORD PTR tv156[ebp], 41 ; 00000029H
  0017f	eb 21		 jmp	 SHORT $LN17@reset_loca
$LN16@reset_loca:
  00181	8b 15 00 00 00
	00		 mov	 edx, DWORD PTR ?__LINE__Var@?0??reset_local_entity_drawn_flags@@YGXXZ@4JA
  00187	83 c2 0c	 add	 edx, 12			; 0000000cH
  0018a	52		 push	 edx
  0018b	68 00 00 00 00	 push	 OFFSET ??_C@_0EN@NKNPNDJF@c?3?2users?2nhv90?2projects?2eech?2ap@
  00190	a1 00 00 00 00	 mov	 eax, DWORD PTR ?overload_invalid_list_type_message@@3PBDB ; overload_invalid_list_type_message
  00195	50		 push	 eax
  00196	e8 00 00 00 00	 call	 ?process_assert@@YGXPBD0H@Z ; process_assert
  0019b	c7 45 b4 00 00
	00 00		 mov	 DWORD PTR tv156[ebp], 0
$LN17@reset_loca:
  001a2	6a 29		 push	 41			; 00000029H
  001a4	8b 4d fc	 mov	 ecx, DWORD PTR _en$[ebp]
  001a7	51		 push	 ecx
  001a8	69 55 b8 b4 00
	00 00		 imul	 edx, DWORD PTR tv148[ebp], 180
  001af	8b 45 b4	 mov	 eax, DWORD PTR tv156[ebp]
  001b2	8b 8c 82 00 00
	00 00		 mov	 ecx, DWORD PTR ?fn_get_local_entity_child_succ@@3PAY0CN@P6GPAUENTITY@@PAU1@W4LIST_TYPES@@@ZA[edx+eax*4]
  001b9	ff d1		 call	 ecx
  001bb	89 45 fc	 mov	 DWORD PTR _en$[ebp], eax

; 108  : 	}

  001be	e9 ef fe ff ff	 jmp	 $LN2@reset_loca
$LN1@reset_loca:

; 109  : }

  001c3	5f		 pop	 edi
  001c4	5e		 pop	 esi
  001c5	5b		 pop	 ebx
  001c6	8b e5		 mov	 esp, ebp
  001c8	5d		 pop	 ebp
  001c9	c3		 ret	 0
?reset_local_entity_drawn_flags@@YGXXZ ENDP		; reset_local_entity_drawn_flags
_TEXT	ENDS
END
