; Listing generated by Microsoft (R) Optimizing Compiler Version 19.16.27045.0 

	TITLE	C:\Users\nhv90\Projects\eech\aphavoc\source\entity\system\en_types\en_group.c
	.686P
	.XMM
	include listing.inc
	.model	flat

INCLUDELIB MSVCRTD
INCLUDELIB OLDNAMES

PUBLIC	?group_category_names@@3PAPBDA			; group_category_names
PUBLIC	??_C@_0M@NDKIFAEF@Helicopters@			; `string'
PUBLIC	??_C@_08ONKNNDNK@Aircraft@			; `string'
PUBLIC	??_C@_06ILNBBHOA@Armour@			; `string'
PUBLIC	??_C@_08FKEKBPMG@Warships@			; `string'
PUBLIC	??_C@_0BJ@DBLACCIE@NUM_GROUP_CATEGORY_TYPES@	; `string'
;	COMDAT ??_C@_0BJ@DBLACCIE@NUM_GROUP_CATEGORY_TYPES@
CONST	SEGMENT
??_C@_0BJ@DBLACCIE@NUM_GROUP_CATEGORY_TYPES@ DB 'NUM_GROUP_CATEGORY_TYPES'
	DB	00H						; `string'
CONST	ENDS
;	COMDAT ??_C@_08FKEKBPMG@Warships@
CONST	SEGMENT
??_C@_08FKEKBPMG@Warships@ DB 'Warships', 00H		; `string'
CONST	ENDS
;	COMDAT ??_C@_06ILNBBHOA@Armour@
CONST	SEGMENT
??_C@_06ILNBBHOA@Armour@ DB 'Armour', 00H		; `string'
CONST	ENDS
;	COMDAT ??_C@_08ONKNNDNK@Aircraft@
CONST	SEGMENT
??_C@_08ONKNNDNK@Aircraft@ DB 'Aircraft', 00H		; `string'
CONST	ENDS
;	COMDAT ??_C@_0M@NDKIFAEF@Helicopters@
CONST	SEGMENT
??_C@_0M@NDKIFAEF@Helicopters@ DB 'Helicopters', 00H	; `string'
CONST	ENDS
_DATA	SEGMENT
?group_category_names@@3PAPBDA DD FLAT:??_C@_0M@NDKIFAEF@Helicopters@ ; group_category_names
	DD	FLAT:??_C@_08ONKNNDNK@Aircraft@
	DD	FLAT:??_C@_06ILNBBHOA@Armour@
	DD	FLAT:??_C@_08FKEKBPMG@Warships@
	DD	FLAT:??_C@_0BJ@DBLACCIE@NUM_GROUP_CATEGORY_TYPES@
_DATA	ENDS
END
