; Listing generated by Microsoft (R) Optimizing Compiler Version 19.16.27045.0 

	TITLE	C:\Users\nhv90\Projects\eech\aphavoc\source\entity\system\en_funcs\en_int.c
	.686P
	.XMM
	include listing.inc
	.model	flat

INCLUDELIB MSVCRTD
INCLUDELIB OLDNAMES

PUBLIC	?int_type_database@@3PAUINT_TYPE_DATA@@A	; int_type_database
PUBLIC	?overload_invalid_int_type_message@@3PBDB	; overload_invalid_int_type_message
PUBLIC	?debug_fatal_invalid_int_type_message@@3PBDB	; debug_fatal_invalid_int_type_message
PUBLIC	?fn_set_local_entity_raw_int_value@@3PAY0BBH@P6GXPAUENTITY@@W4INT_TYPES@@H@ZA ; fn_set_local_entity_raw_int_value
PUBLIC	?fn_set_local_entity_int_value@@3PAY0BBH@P6GXPAUENTITY@@W4INT_TYPES@@H@ZA ; fn_set_local_entity_int_value
PUBLIC	?fn_set_client_server_entity_int_value@@3PAY1BBH@1P6GXPAUENTITY@@W4INT_TYPES@@H@ZA ; fn_set_client_server_entity_int_value
PUBLIC	?fn_get_local_entity_int_value@@3PAY0BBH@P6GHPAUENTITY@@W4INT_TYPES@@@ZA ; fn_get_local_entity_int_value
PUBLIC	??_C@_0BC@FBCPGLAJ@INT_TYPE_ADDITIVE@		; `string'
PUBLIC	??_C@_0BN@NCIIBGC@INT_TYPE_AIR_ATTACK_STRENGTH@	; `string'
PUBLIC	??_C@_0CH@OMINJOND@INT_TYPE_AIR_TO_AIR_WEAPON_CONF@ ; `string'
PUBLIC	??_C@_0CL@NPCLNPIJ@INT_TYPE_AIR_TO_SURFACE_WEAPON_@ ; `string'
PUBLIC	??_C@_0BL@JHLABGDH@INT_TYPE_AIRBORNE_AIRCRAFT@	; `string'
PUBLIC	??_C@_0BI@GEPGDCHA@INT_TYPE_AIRCRAFT_GROUP@	; `string'
PUBLIC	??_C@_0BM@NJAJECAE@INT_TYPE_ALIGN_WITH_TERRAIN@	; `string'
PUBLIC	??_C@_0P@IIKLCPBA@INT_TYPE_ALIVE@		; `string'
PUBLIC	??_C@_0BK@MODAFBGC@INT_TYPE_ANIMATED_TEXTURE@	; `string'
PUBLIC	??_C@_0CH@NDELLEIG@INT_TYPE_APPROXIMATION_OBJECT_3@ ; `string'
PUBLIC	??_C@_0BI@GAOFLLOB@INT_TYPE_ASSESS_LANDING@	; `string'
PUBLIC	??_C@_0BN@CCIPKPKJ@INT_TYPE_AUTO_ASSIGN_GUNSHIP@ ; `string'
PUBLIC	??_C@_0BE@LFBGOJEL@INT_TYPE_AUTO_PILOT@		; `string'
PUBLIC	??_C@_0BI@OBLHFIPI@INT_TYPE_AWARDED_MEDALS@	; `string'
PUBLIC	??_C@_0BL@NLBPJBEH@INT_TYPE_AWARDED_PROMOTION@	; `string'
PUBLIC	??_C@_0BN@ECIBNGJD@INT_TYPE_BRIDGE_SEGMENT_TYPE@ ; `string'
PUBLIC	??_C@_0BF@HOFBNFDG@INT_TYPE_CAMERA_MODE@	; `string'
PUBLIC	??_C@_0CB@CJPMMFPO@INT_TYPE_CAMPAIGN_CRITERIA_COUN@ ; `string'
PUBLIC	??_C@_0CC@POKENIGE@INT_TYPE_CAMPAIGN_CRITERIA_RESU@ ; `string'
PUBLIC	??_C@_0CA@LIHKLGF@INT_TYPE_CAMPAIGN_CRITERIA_TYPE@ ; `string'
PUBLIC	??_C@_0CB@KLGMJPCD@INT_TYPE_CAMPAIGN_CRITERIA_VALU@ ; `string'
PUBLIC	??_C@_0BI@JABJLDKO@INT_TYPE_CAMPAIGN_MEDAL@	; `string'
PUBLIC	??_C@_0CI@IHPPDALN@INT_TYPE_CAMPAIGN_REQUIRES_APAC@ ; `string'
PUBLIC	??_C@_0BI@FIIBDKKN@INT_TYPE_CHEATS_ENABLED@	; `string'
PUBLIC	??_C@_0BP@MJIOIIIA@INT_TYPE_CHECK_WAYPOINT_ACTION@ ; `string'
PUBLIC	??_C@_0BF@ECFPKCBA@INT_TYPE_CHILD_COUNT@	; `string'
PUBLIC	??_C@_0BO@ENCJOKKN@INT_TYPE_COLLISION_TEST_FIXED@ ; `string'
PUBLIC	??_C@_0BP@JPOPJLDL@INT_TYPE_COLLISION_TEST_MOBILE@ ; `string'
PUBLIC	??_C@_0BA@HNGONDAP@INT_TYPE_COLOUR@		; `string'
PUBLIC	??_C@_0BG@GIKPJECO@INT_TYPE_COLOUR_ALPHA@	; `string'
PUBLIC	??_C@_0BF@IHDJGBKC@INT_TYPE_COLOUR_BLUE@	; `string'
PUBLIC	??_C@_0BG@IJKBHGOB@INT_TYPE_COLOUR_GREEN@	; `string'
PUBLIC	??_C@_0BE@DLGFIKIO@INT_TYPE_COLOUR_RED@		; `string'
PUBLIC	??_C@_0P@NJOAMNDE@INT_TYPE_COUNT@		; `string'
PUBLIC	??_C@_0BI@KBCIEDKF@INT_TYPE_CPG_IDENTIFIED@	; `string'
PUBLIC	??_C@_0BD@ILNAFFIO@INT_TYPE_CREW_ROLE@		; `string'
PUBLIC	??_C@_0BH@LFMLFNEC@INT_TYPE_CRITICAL_TASK@	; `string'
PUBLIC	??_C@_0BG@POHBDPLD@INT_TYPE_DAMAGE_LEVEL@	; `string'
PUBLIC	??_C@_0N@DODKCJNG@INT_TYPE_DAY@			; `string'
PUBLIC	??_C@_0BK@NBDOLEEL@INT_TYPE_DAY_SEGMENT_TYPE@	; `string'
PUBLIC	??_C@_0BP@PIHBDMNK@INT_TYPE_DELAY_TASK_ASSIGNMENT@ ; `string'
PUBLIC	??_C@_0BK@MGMOOMEE@INT_TYPE_DEFAULT_3D_SHAPE@	; `string'
PUBLIC	??_C@_0BO@KBDBEDOD@INT_TYPE_DEFAULT_ENGAGE_ENEMY@ ; `string'
PUBLIC	??_C@_0CB@DJKEODKM@INT_TYPE_DEFAULT_GROUP_LIST_TYP@ ; `string'
PUBLIC	??_C@_0CE@CEKICBPJ@INT_TYPE_DEFAULT_WEAPON_CONFIG_@ ; `string'
PUBLIC	??_C@_0BN@BEFINDGL@INT_TYPE_DEFAULT_WEAPON_TYPE@ ; `string'
PUBLIC	??_C@_0BM@BCBCJDBO@INT_TYPE_DESTROYED_3D_SHAPE@	; `string'
PUBLIC	??_C@_0BK@IGFCPJKL@INT_TYPE_DIFFICULTY_LEVEL@	; `string'
PUBLIC	??_C@_0BF@HDJJJHMI@INT_TYPE_DIVISION_ID@	; `string'
PUBLIC	??_C@_0BB@NDKKLBDK@INT_TYPE_EJECTED@		; `string'
PUBLIC	??_C@_0BC@FIBFGAKK@INT_TYPE_END_NODE@		; `string'
PUBLIC	??_C@_0BG@JIAJAOMH@INT_TYPE_ENGAGE_ENEMY@	; `string'
PUBLIC	??_C@_0BJ@DGJACMFM@INT_TYPE_ENTITY_SUB_TYPE@	; `string'
PUBLIC	??_C@_0BE@JFJEDPCH@INT_TYPE_EVADE_FIRE@		; `string'
PUBLIC	??_C@_0BJ@MIOMLECC@INT_TYPE_EXPLOSIVE_POWER@	; `string'
PUBLIC	??_C@_0BL@DLPBAJFP@INT_TYPE_EXPLOSIVE_QUALITY@	; `string'
PUBLIC	??_C@_0BI@LBNAPDDA@INT_TYPE_EXPOSURE_LEVEL@	; `string'
PUBLIC	??_C@_0BK@LLMKCGHK@INT_TYPE_FOLLOW_FORMATION@	; `string'
PUBLIC	??_C@_0P@EPPLNEHN@INT_TYPE_FORCE@		; `string'
PUBLIC	??_C@_0BI@HPEGCDIE@INT_TYPE_FORCE_ATTITUDE@	; `string'
PUBLIC	??_C@_0BN@NIFELFAJ@INT_TYPE_FORCE_INFO_CATAGORY@ ; `string'
PUBLIC	??_C@_0BM@DNKBMCOH@INT_TYPE_FORCE_SECTOR_COUNT@	; `string'
PUBLIC	??_C@_0BM@MBJAMKLP@INT_TYPE_FORMATION_POSITION@	; `string'
PUBLIC	??_C@_0BN@MKIJDAEA@INT_TYPE_FORMATION_POSITIONS@ ; `string'
PUBLIC	??_C@_0BM@LHPJEMBI@INT_TYPE_FREE_LANDING_SITES@	; `string'
PUBLIC	??_C@_0BD@JNIHAJIN@INT_TYPE_FRONTLINE@		; `string'
PUBLIC	??_C@_0BO@DNAEDGCL@INT_TYPE_GROUND_RADAR_CLUTTER@ ; `string'
PUBLIC	??_C@_0BK@MFMDMGAD@INT_TYPE_GROUP_AMALGAMATE@	; `string'
PUBLIC	??_C@_0BI@IPFGFFBM@INT_TYPE_GROUP_CALLSIGN@	; `string'
PUBLIC	??_C@_0BI@FDANFNOO@INT_TYPE_GROUP_CATEGORY@	; `string'
PUBLIC	??_C@_0CB@MJLOFLFO@INT_TYPE_GROUP_DEFAULT_FORMATIO@ ; `string'
PUBLIC	??_C@_0BJ@KMKKLNEN@INT_TYPE_GROUP_FORMATION@	; `string'
PUBLIC	??_C@_0BG@MBCGCHOJ@INT_TYPE_GROUP_LEADER@	; `string'
PUBLIC	??_C@_0BJ@GLDFIEHP@INT_TYPE_GROUP_LIST_TYPE@	; `string'
PUBLIC	??_C@_0BJ@NHGLEIH@INT_TYPE_GROUP_MEMBER_ID@	; `string'
PUBLIC	??_C@_0BN@NHICOJIA@INT_TYPE_GROUP_MEMBER_NUMBER@ ; `string'
PUBLIC	??_C@_0BM@NKALAGLG@INT_TYPE_GROUP_MEMBER_STATE@	; `string'
PUBLIC	??_C@_0BE@MDDGMONN@INT_TYPE_GROUP_MODE@		; `string'
PUBLIC	??_C@_0BN@MAGCAEEO@INT_TYPE_GUIDE_CRITERIA_TYPE@ ; `string'
PUBLIC	??_C@_0BN@HMAJBIBI@INT_TYPE_GUIDE_POSITION_TYPE@ ; `string'
PUBLIC	??_C@_0CB@FMPDOHMI@INT_TYPE_GUNSHIP_RADAR_LOS_CLEA@ ; `string'
PUBLIC	??_C@_0BG@MDMMBMNO@INT_TYPE_GUNSHIP_TYPE@	; `string'
PUBLIC	??_C@_0BP@KHGNMCLJ@INT_TYPE_HAND_OFF_TARGET_COUNT@ ; `string'
PUBLIC	??_C@_0CA@MCCAMKLF@INT_TYPE_HARD_DAMAGE_CAPABILITY@ ; `string'
PUBLIC	??_C@_0CB@MBIBKCAB@INT_TYPE_HELICOPTER_DAMAGE_FLAG@ ; `string'
PUBLIC	??_C@_0CB@GOBKFGMA@INT_TYPE_HELICOPTER_DAMAGE_LEVE@ ; `string'
PUBLIC	??_C@_0BO@GNAHNBMP@INT_TYPE_HIDDEN_BY_FOG_OF_WAR@ ; `string'
PUBLIC	??_C@_0BL@BENAEKCM@INT_TYPE_IDENTIFY_AIRCRAFT@	; `string'
PUBLIC	??_C@_0CA@COCHHNDA@INT_TYPE_IDENTIFY_ANTI_AIRCRAFT@ ; `string'
PUBLIC	??_C@_0BI@OHGDOJCA@INT_TYPE_IDENTIFY_CARGO@	; `string'
PUBLIC	??_C@_0BI@IBDNOJD@INT_TYPE_IDENTIFY_FIXED@	; `string'
PUBLIC	??_C@_0BN@NCFPMDAN@INT_TYPE_IDENTIFY_FIXED_WING@ ; `string'
PUBLIC	??_C@_0BN@NBFEGIAF@INT_TYPE_IDENTIFY_HELICOPTER@ ; `string'
PUBLIC	??_C@_0BJ@FOMLLMKE@INT_TYPE_IDENTIFY_MOBILE@	; `string'
PUBLIC	??_C@_0BJ@KJCEJOJN@INT_TYPE_IDENTIFY_ROUTED@	; `string'
PUBLIC	??_C@_0BP@OILKCKHP@INT_TYPE_IDENTIFY_SHIP_VEHICLE@ ; `string'
PUBLIC	??_C@_0BK@CPGDGNIB@INT_TYPE_IDENTIFY_VEHICLE@	; `string'
PUBLIC	??_C@_0BL@MMHNGEMJ@INT_TYPE_IDENTIFY_WAYPOINT@	; `string'
PUBLIC	??_C@_0BJ@LHPNFJBF@INT_TYPE_IDENTIFY_WEAPON@	; `string'
PUBLIC	??_C@_0BD@OHAGEOLD@INT_TYPE_ID_NUMBER@		; `string'
PUBLIC	??_C@_0CG@NHKODKBL@INT_TYPE_ID_NUMBER_SIGNIFICANT_@ ; `string'
PUBLIC	??_C@_0BH@BKDHCIBB@INT_TYPE_INFINITE_FUEL@	; `string'
PUBLIC	??_C@_0BM@LBAOPFDM@INT_TYPE_INFINITE_GENERATOR@	; `string'
PUBLIC	??_C@_0BK@DJKPLBCA@INT_TYPE_INFINITE_WEAPONS@	; `string'
PUBLIC	??_C@_0BN@KGAHCFBH@INT_TYPE_INFRA_RED_JAMMER_ON@ ; `string'
PUBLIC	??_C@_0BO@NEMECMDA@INT_TYPE_INITIAL_DAMAGE_LEVEL@ ; `string'
PUBLIC	??_C@_0BH@GDNDIMIL@INT_TYPE_INSIDE_HANGAR@	; `string'
PUBLIC	??_C@_0CG@ENEDAOJ@INT_TYPE_INVULNERABLE_FROM_COLL@ ; `string'
PUBLIC	??_C@_0CD@ELKJJPHG@INT_TYPE_INVULNERABLE_FROM_WEAP@ ; `string'
PUBLIC	??_C@_0BA@LKIPNGJ@INT_TYPE_IN_USE@		; `string'
PUBLIC	??_C@_0BH@BFODCGJO@INT_TYPE_KEYSITE_COUNT@	; `string'
PUBLIC	??_C@_0BE@PMMAGDGF@INT_TYPE_KEYSITE_ID@		; `string'
PUBLIC	??_C@_0BO@FODANLMN@INT_TYPE_KEYSITE_USABLE_STATE@ ; `string'
PUBLIC	??_C@_0BK@NFJFFAPC@INT_TYPE_KILL_NEXT_UPDATE@	; `string'
PUBLIC	??_C@_0P@NLCHOAEF@INT_TYPE_KILLS@		; `string'
PUBLIC	??_C@_0BA@BMFDAAFA@INT_TYPE_LANDED@		; `string'
PUBLIC	??_C@_0BF@HCGDOACJ@INT_TYPE_LANDED_LOCK@	; `string'
PUBLIC	??_C@_0BL@GAIJPMMN@INT_TYPE_LANDED_ON_CARRIER@	; `string'
PUBLIC	??_C@_0BG@PEKPLENC@INT_TYPE_LANDING_LOCK@	; `string'
PUBLIC	??_C@_0BH@LBKICFHE@INT_TYPE_LANDING_TYPES@	; `string'
PUBLIC	??_C@_0BC@DHAKFMNG@INT_TYPE_LASER_ON@		; `string'
PUBLIC	??_C@_0BA@CECGGLOD@INT_TYPE_LENGTH@		; `string'
PUBLIC	??_C@_0BD@GBPBNAIL@INT_TYPE_LIGHTS_ON@		; `string'
PUBLIC	??_C@_0BM@NLINKOFB@INT_TYPE_LOCAL_EFFECT_COUNT@	; `string'
PUBLIC	??_C@_0BK@EBFHCJIG@INT_TYPE_LOCAL_ONLY_GROUP@	; `string'
PUBLIC	??_C@_0BN@MGMMDOL@INT_TYPE_LOCAL_WEATHER_MODEL@	; `string'
PUBLIC	??_C@_0BO@GAOHPEKE@INT_TYPE_LOCK_ON_AFTER_LAUNCH@ ; `string'
PUBLIC	??_C@_0BA@HGGENJKD@INT_TYPE_LOSSES@		; `string'
PUBLIC	??_C@_0BH@JKBILNPO@INT_TYPE_LOS_TO_TARGET@	; `string'
PUBLIC	??_C@_0BM@BHDBGKLH@INT_TYPE_MAIN_ROTOR_DAMAGED@	; `string'
PUBLIC	??_C@_0BC@LOCLDNEB@INT_TYPE_MAP_ICON@		; `string'
PUBLIC	??_C@_0BO@ELNOBGDH@INT_TYPE_MAXIMUM_MEMBER_COUNT@ ; `string'
PUBLIC	??_C@_0BI@LCHJNFIL@INT_TYPE_MAXIMUM_VOLUME@	; `string'
PUBLIC	??_C@_0CA@BGBCLAML@INT_TYPE_MAX_WEAPON_CONFIG_TYPE@ ; `string'
PUBLIC	??_C@_0BG@OOEANHLB@INT_TYPE_MEMBER_COUNT@	; `string'
PUBLIC	??_C@_0BL@EBJOLAME@INT_TYPE_MESSAGE_TEXT_TYPE@	; `string'
PUBLIC	??_C@_0BN@PEMKFENG@INT_TYPE_META_EXPLOSION_TYPE@ ; `string'
PUBLIC	??_C@_0BO@IFJFMIC@INT_TYPE_META_SMOKE_LIST_TYPE@ ; `string'
PUBLIC	??_C@_0BM@NAFCMKDO@INT_TYPE_MINIMUM_IDLE_COUNT@	; `string'
PUBLIC	??_C@_0BO@FIJLPAJM@INT_TYPE_MINIMUM_MEMBER_COUNT@ ; `string'
PUBLIC	??_C@_0CA@BCIIIBOB@INT_TYPE_MIN_WEAPON_CONFIG_TYPE@ ; `string'
PUBLIC	??_C@_0CH@HANHHPFM@INT_TYPE_MOBILE_FOLLOW_WAYPOINT@ ; `string'
PUBLIC	??_C@_0BH@MHBHHPPM@INT_TYPE_MOBILE_MOVING@	; `string'
PUBLIC	??_C@_0BE@BPCNBHMB@INT_TYPE_MOVED_TYPE@		; `string'
PUBLIC	??_C@_0BH@GCAHFCLC@INT_TYPE_MOVEMENT_TYPE@	; `string'
PUBLIC	??_C@_0BL@HMPHIOIH@INT_TYPE_MULTIPLAYER_GROUP@	; `string'
PUBLIC	??_C@_0BJ@KOFFCOGA@INT_TYPE_OBJECT_3D_SHAPE@	; `string'
PUBLIC	??_C@_0CG@CLGHGPGM@INT_TYPE_OBJECT_DRAWN_ONCE_THIS@ ; `string'
PUBLIC	??_C@_0BG@FAKIGPED@INT_TYPE_OBJECT_INDEX@	; `string'
PUBLIC	??_C@_0BI@PKLBMGLE@INT_TYPE_OBJECT_SCALING@	; `string'
PUBLIC	??_C@_0BO@LOFFCOHL@INT_TYPE_OFFENSIVE_CAPABILITY@ ; `string'
PUBLIC	??_C@_0BL@HLDJFNKL@INT_TYPE_OPERATIONAL_STATE@	; `string'
PUBLIC	??_C@_0BI@DGPBGLEA@INT_TYPE_PARTICLE_COUNT@	; `string'
PUBLIC	??_C@_0BJ@BEALBFMH@INT_TYPE_PERFORM_DEBRIEF@	; `string'
PUBLIC	??_C@_0BE@CKHHIPIH@INT_TYPE_PILOT_RANK@		; `string'
PUBLIC	??_C@_0BK@LLCODJKA@INT_TYPE_PLANNER_MOVEABLE@	; `string'
PUBLIC	??_C@_0BA@DMAIEIHA@INT_TYPE_PLAYER@		; `string'
PUBLIC	??_C@_0BN@LEFBMCCN@INT_TYPE_PLAYER_CONTROLLABLE@ ; `string'
PUBLIC	??_C@_0BF@LEAGFCAM@INT_TYPE_PLAYER_TASK@	; `string'
PUBLIC	??_C@_0BG@KIDIGGAJ@INT_TYPE_POINTS_VALUE@	; `string'
PUBLIC	??_C@_0BH@MPDIHIOP@INT_TYPE_POSITION_HOLD@	; `string'
PUBLIC	??_C@_0BH@BDHNGBHK@INT_TYPE_POSITION_TYPE@	; `string'
PUBLIC	??_C@_0CG@FAHNHPAI@INT_TYPE_POTENTIAL_CAMPAIGN_OBJ@ ; `string'
PUBLIC	??_C@_0BG@HPPOMDFJ@INT_TYPE_PRIMARY_TASK@	; `string'
PUBLIC	??_C@_0BF@CFGBPJEF@INT_TYPE_PROTOTYPE_1@	; `string'
PUBLIC	??_C@_0BF@OEMKKIG@INT_TYPE_PROTOTYPE_2@		; `string'
PUBLIC	??_C@_0BF@BHFHJLMH@INT_TYPE_PROTOTYPE_3@	; `string'
PUBLIC	??_C@_0BF@FIBGANAA@INT_TYPE_PROTOTYPE_4@	; `string'
PUBLIC	??_C@_0BJ@KELAGFKD@INT_TYPE_RADAR_JAMMER_ON@	; `string'
PUBLIC	??_C@_0BC@GKOACFGD@INT_TYPE_RADAR_ON@		; `string'
PUBLIC	??_C@_0BM@KMBACLON@INT_TYPE_RADIO_MESSAGE_TYPE@	; `string'
PUBLIC	??_C@_0BN@EIKIADLB@INT_TYPE_RADIO_MESSAGE_VALUE@ ; `string'
PUBLIC	??_C@_0BC@HOBCKNGF@INT_TYPE_REARMING@		; `string'
PUBLIC	??_C@_0CB@LPNKCFCO@INT_TYPE_REGEN_CREATION_SUB_TYP@ ; `string'
PUBLIC	??_C@_0BM@HONHDLKK@INT_TYPE_REGISTRY_LIST_TYPE@	; `string'
PUBLIC	??_C@_0CA@DKDODGJG@INT_TYPE_RESERVED_LANDING_SITES@ ; `string'
PUBLIC	??_C@_0BJ@DOIIHGJG@INT_TYPE_RESUPPLY_SOURCE@	; `string'
PUBLIC	??_C@_0BB@EFKGCEPB@INT_TYPE_ROTATED@		; `string'
PUBLIC	??_C@_0BJ@CGKCDBD@INT_TYPE_ROUTE_CHECK_SUM@	; `string'
PUBLIC	??_C@_0BG@ICFJCFNO@INT_TYPE_ROUTE_LENGTH@	; `string'
PUBLIC	??_C@_0BE@EJMFKNME@INT_TYPE_ROUTE_NODE@		; `string'
PUBLIC	??_C@_0BN@DBEDMPNJ@INT_TYPE_RULES_OF_ENGAGEMENT@ ; `string'
PUBLIC	??_C@_0CC@KJFMAFNO@INT_TYPE_SCOUT_WEAPON_CONFIG_TY@ ; `string'
PUBLIC	??_C@_0BF@CMNBPJFP@INT_TYPE_SECTOR_SIDE@	; `string'
PUBLIC	??_C@_0BJ@POFHNFDG@INT_TYPE_SELECTED_WEAPON@	; `string'
PUBLIC	??_C@_0CG@BEDKFHGL@INT_TYPE_SELECTED_WEAPON_SYSTEM@ ; `string'
PUBLIC	??_C@_0BK@LCLJDIGI@INT_TYPE_SESSION_COMPLETE@	; `string'
PUBLIC	??_C@_0O@OBAKKFNG@INT_TYPE_SIDE@		; `string'
PUBLIC	??_C@_0BJ@NIOPFIIO@INT_TYPE_SKIP_NIGHT_TIME@	; `string'
PUBLIC	??_C@_0BE@FEMGMFJN@INT_TYPE_SMOKE_TYPE@		; `string'
PUBLIC	??_C@_0CA@MHGHPHBA@INT_TYPE_SOFT_DAMAGE_CAPABILITY@ ; `string'
PUBLIC	??_C@_0BD@FMOJPDJC@INT_TYPE_SOLO_TASK@		; `string'
PUBLIC	??_C@_0BH@HAHMDHJI@INT_TYPE_SOUND_CHANNEL@	; `string'
PUBLIC	??_C@_0BM@KOOIBMJM@INT_TYPE_SOUND_EFFECT_INDEX@	; `string'
PUBLIC	??_C@_0BO@MIDMJDKC@INT_TYPE_SOUND_EFFECT_LOOPING@ ; `string'
PUBLIC	??_C@_0BO@KHJLDGNN@INT_TYPE_SOUND_EFFECT_PANNING@ ; `string'
PUBLIC	??_C@_0BL@PLDBKJL@INT_TYPE_SOUND_EFFECT_RATE@	; `string'
PUBLIC	??_C@_0CF@GAAIIILL@INT_TYPE_SOUND_EFFECT_SEQUENCE_@ ; `string'
PUBLIC	??_C@_0BK@KPCEFEMC@INT_TYPE_SOUND_LIST_VALID@	; `string'
PUBLIC	??_C@_0BI@EELPKHI@INT_TYPE_SOUND_LOCALITY@	; `string'
PUBLIC	??_C@_0BJ@BJHLBOAO@INT_TYPE_SPEECH_CATEGORY@	; `string'
PUBLIC	??_C@_0BG@CGNKNDKD@INT_TYPE_SPEECH_INDEX@	; `string'
PUBLIC	??_C@_0BE@KBOPIFJL@INT_TYPE_START_NODE@		; `string'
PUBLIC	??_C@_0BC@PGLKDAOO@INT_TYPE_STRATEGY@		; `string'
PUBLIC	??_C@_0BI@LHAGPIME@INT_TYPE_STRATEGY_LEVEL@	; `string'
PUBLIC	??_C@_0BK@KLEDDEGK@INT_TYPE_SUB_OBJECT_DEPTH@	; `string'
PUBLIC	??_C@_0BJ@MDPIKGDI@INT_TYPE_SUB_OBJECT_TYPE@	; `string'
PUBLIC	??_C@_0BM@JMGMKHEI@INT_TYPE_SUB_WAYPOINT_COUNT@	; `string'
PUBLIC	??_C@_0BK@KBKJDPDE@INT_TYPE_SUPPRESS_AI_FIRE@	; `string'
PUBLIC	??_C@_0BJ@MHJGDBHA@INT_TYPE_TACVIEW_LOGGING@	; `string'
PUBLIC	??_C@_0BM@FNJAOJAD@INT_TYPE_TAIL_ROTOR_DAMAGED@	; `string'
PUBLIC	??_C@_0BG@ICLGGPJC@INT_TYPE_TAKEOFF_LOCK@	; `string'
PUBLIC	??_C@_0BO@OKIFHMKG@INT_TYPE_TARGET_PRIORITY_TYPE@ ; `string'
PUBLIC	??_C@_0BM@BKFKGOCK@INT_TYPE_TARGET_SYMBOL_TYPE@	; `string'
PUBLIC	??_C@_0BF@LOLHFOOB@INT_TYPE_TARGET_TYPE@	; `string'
PUBLIC	??_C@_0BN@FDEIHKCG@INT_TYPE_TARGET_WEATHER_MODE@ ; `string'
PUBLIC	??_C@_0BH@GDNLGBE@INT_TYPE_TASK_CATEGORY@	; `string'
PUBLIC	??_C@_0BI@DJMMJL@INT_TYPE_TASK_COMPLETED@	; `string'
PUBLIC	??_C@_0BJ@MICPFPFI@INT_TYPE_TASK_DIFFICULTY@	; `string'
PUBLIC	??_C@_0BJ@EJPJAEJG@INT_TYPE_TASK_GENERATION@	; `string'
PUBLIC	??_C@_0BB@FKFIAAFH@INT_TYPE_TASK_ID@		; `string'
PUBLIC	??_C@_0BF@LJFLGKMB@INT_TYPE_TASK_LEADER@	; `string'
PUBLIC	??_C@_0CF@HNLOGCJL@INT_TYPE_TASK_OBJECTIVE_PREVIEW@ ; `string'
PUBLIC	??_C@_0CG@NFLCCPFK@INT_TYPE_TASK_PASS_PERCENTAGE_P@ ; `string'
PUBLIC	??_C@_0CG@EKMIMMPA@INT_TYPE_TASK_PASS_PERCENTAGE_S@ ; `string'
PUBLIC	??_C@_0BL@NKKEKGAL@INT_TYPE_TASK_ROUTE_SEARCH@	; `string'
PUBLIC	??_C@_0BE@DNGPBFLB@INT_TYPE_TASK_SCORE@		; `string'
PUBLIC	??_C@_0BE@LPNFFKC@INT_TYPE_TASK_STATE@		; `string'
PUBLIC	??_C@_0BL@DFGNEELF@INT_TYPE_TASK_TARGET_CLASS@	; `string'
PUBLIC	??_C@_0BM@OGIAIKDA@INT_TYPE_TASK_TARGET_SOURCE@	; `string'
PUBLIC	??_C@_0BK@JOPFNPMJ@INT_TYPE_TASK_TARGET_TYPE@	; `string'
PUBLIC	??_C@_0BJ@IOHIIMIB@INT_TYPE_TASK_TERMINATED@	; `string'
PUBLIC	??_C@_0BN@BLLJPHAP@INT_TYPE_TERRAIN_FOLLOW_MODE@ ; `string'
PUBLIC	??_C@_0BF@GPEGEGBI@INT_TYPE_THREAT_TYPE@	; `string'
PUBLIC	??_C@_0P@IHNBDNKA@INT_TYPE_TIMER@		; `string'
PUBLIC	??_C@_0BN@PJLONLEL@INT_TYPE_TOTAL_LANDING_SITES@ ; `string'
PUBLIC	??_C@_0BN@BJHKEEAB@INT_TYPE_TRACK_ENTITY_ON_MAP@ ; `string'
PUBLIC	??_C@_0BD@ODHJPJPA@INT_TYPE_UNIQUE_ID@		; `string'
PUBLIC	??_C@_0BB@NNCDMDFE@INT_TYPE_UPDATED@		; `string'
PUBLIC	??_C@_0P@FHFHPMLM@INT_TYPE_VALID@		; `string'
PUBLIC	??_C@_0BN@IMLDJLL@INT_TYPE_VALID_GUIDE_MEMBERS@	; `string'
PUBLIC	??_C@_0BM@GPOJGDAB@INT_TYPE_VALID_SOUND_EFFECT@	; `string'
PUBLIC	??_C@_0P@FLHAJHOJ@INT_TYPE_VALUE@		; `string'
PUBLIC	??_C@_0BH@FHCPAIJO@INT_TYPE_VEHICLE_GROUP@	; `string'
PUBLIC	??_C@_0CD@GBNOANDF@INT_TYPE_VERBOSE_OPERATIONAL_ST@ ; `string'
PUBLIC	??_C@_0BI@FJKJDOBA@INT_TYPE_VERSION_NUMBER@	; `string'
PUBLIC	??_C@_0BH@PKJJLPME@INT_TYPE_VIEW_CATEGORY@	; `string'
PUBLIC	??_C@_0BD@ILMMGEHJ@INT_TYPE_VIEW_TYPE@		; `string'
PUBLIC	??_C@_0BC@PDJAIAGK@INT_TYPE_VIEWABLE@		; `string'
PUBLIC	??_C@_0BJ@PKOAOCIL@INT_TYPE_VIEWABLE_WEAPON@	; `string'
PUBLIC	??_C@_0BG@BHOBIACF@INT_TYPE_VISIBLE_TASK@	; `string'
PUBLIC	??_C@_0BL@PKLLCDAJ@INT_TYPE_WAIT_FOR_END_TASK@	; `string'
PUBLIC	??_C@_0CB@CBIBNOPD@INT_TYPE_WARHEAD_EFFECTIVE_CLAS@ ; `string'
PUBLIC	??_C@_0BI@CIEPKDDP@INT_TYPE_WAYPOINT_COUNT@	; `string'
PUBLIC	??_C@_0BM@IBIOGNNM@INT_TYPE_WAYPOINT_FORMATION@	; `string'
PUBLIC	??_C@_0BN@KHAAKDGO@INT_TYPE_WAYPOINT_GUIDE_TYPE@ ; `string'
PUBLIC	??_C@_0BN@EHGAFEPK@INT_TYPE_WAYPOINT_NEXT_INDEX@ ; `string'
PUBLIC	??_C@_0BN@EPLJBMCO@INT_TYPE_WAYPOINT_THIS_INDEX@ ; `string'
PUBLIC	??_C@_0CJ@DECJLDLA@INT_TYPE_WEAPON_AND_TARGET_VECT@ ; `string'
PUBLIC	??_C@_0BL@FHKGNNGH@INT_TYPE_WEAPON_BURST_SIZE@	; `string'
PUBLIC	??_C@_0BO@PJKJDOBC@INT_TYPE_WEAPON_CAMERA_PRIMED@ ; `string'
PUBLIC	??_C@_0BM@GNDPEHA@INT_TYPE_WEAPON_CONFIG_TYPE@	; `string'
PUBLIC	??_C@_0BL@IGGLILAD@INT_TYPE_WEAPON_DECOY_TYPE@	; `string'
PUBLIC	??_C@_0BO@KDICCLDC@INT_TYPE_WEAPON_GUIDANCE_TYPE@ ; `string'
PUBLIC	??_C@_0BK@JGACFNFA@INT_TYPE_WEAPON_KILL_CODE@	; `string'
PUBLIC	??_C@_0BO@MFKHJBFH@INT_TYPE_WEAPON_MISSILE_PHASE@ ; `string'
PUBLIC	??_C@_0BK@FJPNAPGC@INT_TYPE_WEAPON_ON_GROUND@	; `string'
PUBLIC	??_C@_0CA@LHELNGPN@INT_TYPE_WEAPON_PACKAGE_DAMAGED@ ; `string'
PUBLIC	??_C@_0CG@OGOAEOLM@INT_TYPE_WEAPON_PACKAGE_HEADING@ ; `string'
PUBLIC	??_C@_0BP@KPLOKDCC@INT_TYPE_WEAPON_PACKAGE_NUMBER@ ; `string'
PUBLIC	??_C@_0CB@IPKKAGMM@INT_TYPE_WEAPON_SMOKE_TRAIL_TYP@ ; `string'
PUBLIC	??_C@_0BN@MHLLFOIF@INT_TYPE_WEAPON_SYSTEM_READY@ ; `string'
PUBLIC	??_C@_0BN@EKJHEIKB@INT_TYPE_WEAPON_WARHEAD_TYPE@ ; `string'
PUBLIC	??_C@_0BG@IABFHPOF@INT_TYPE_WEAPONS_HOLD@	; `string'
PUBLIC	??_C@_0BM@KDOCPLMH@INT_TYPE_WEATHER_INCREASING@	; `string'
PUBLIC	??_C@_0BG@MJGKEKDN@INT_TYPE_WEATHER_MODE@	; `string'
PUBLIC	??_C@_0BJ@LEHOEFFL@INT_TYPE_WIND_INCREASING@	; `string'
PUBLIC	??_C@_0BC@MDOBAINM@INT_TYPE_X_SECTOR@		; `string'
PUBLIC	??_C@_0BC@ONBHCAFK@INT_TYPE_Z_SECTOR@		; `string'
PUBLIC	??_C@_0DJ@FLGDIBMJ@Overloaded?5entity?5function?5invo@ ; `string'
PUBLIC	??_C@_0FF@HEPOOFIJ@Invalid?5int?5type?5?$CIentity?5type?5?$DN@ ; `string'
_BSS	SEGMENT
?fn_set_local_entity_raw_int_value@@3PAY0BBH@P6GXPAUENTITY@@W4INT_TYPES@@H@ZA DD 0296aH DUP (?) ; fn_set_local_entity_raw_int_value
?fn_set_local_entity_int_value@@3PAY0BBH@P6GXPAUENTITY@@W4INT_TYPES@@H@ZA DD 0296aH DUP (?) ; fn_set_local_entity_int_value
?fn_set_client_server_entity_int_value@@3PAY1BBH@1P6GXPAUENTITY@@W4INT_TYPES@@H@ZA DD 052d4H DUP (?) ; fn_set_client_server_entity_int_value
?fn_get_local_entity_int_value@@3PAY0BBH@P6GHPAUENTITY@@W4INT_TYPES@@@ZA DD 0296aH DUP (?) ; fn_get_local_entity_int_value
_BSS	ENDS
;	COMDAT ??_C@_0FF@HEPOOFIJ@Invalid?5int?5type?5?$CIentity?5type?5?$DN@
CONST	SEGMENT
??_C@_0FF@HEPOOFIJ@Invalid?5int?5type?5?$CIentity?5type?5?$DN@ DB 'Invali'
	DB	'd int type (entity type = %s, index = %d, int type = %s, file'
	DB	' = %s, line = %d)', 00H			; `string'
CONST	ENDS
;	COMDAT ??_C@_0DJ@FLGDIBMJ@Overloaded?5entity?5function?5invo@
CONST	SEGMENT
??_C@_0DJ@FLGDIBMJ@Overloaded?5entity?5function?5invo@ DB 'Overloaded ent'
	DB	'ity function invoked with invalid int type', 00H ; `string'
CONST	ENDS
;	COMDAT ??_C@_0BC@ONBHCAFK@INT_TYPE_Z_SECTOR@
CONST	SEGMENT
??_C@_0BC@ONBHCAFK@INT_TYPE_Z_SECTOR@ DB 'INT_TYPE_Z_SECTOR', 00H ; `string'
CONST	ENDS
;	COMDAT ??_C@_0BC@MDOBAINM@INT_TYPE_X_SECTOR@
CONST	SEGMENT
??_C@_0BC@MDOBAINM@INT_TYPE_X_SECTOR@ DB 'INT_TYPE_X_SECTOR', 00H ; `string'
CONST	ENDS
;	COMDAT ??_C@_0BJ@LEHOEFFL@INT_TYPE_WIND_INCREASING@
CONST	SEGMENT
??_C@_0BJ@LEHOEFFL@INT_TYPE_WIND_INCREASING@ DB 'INT_TYPE_WIND_INCREASING'
	DB	00H						; `string'
CONST	ENDS
;	COMDAT ??_C@_0BG@MJGKEKDN@INT_TYPE_WEATHER_MODE@
CONST	SEGMENT
??_C@_0BG@MJGKEKDN@INT_TYPE_WEATHER_MODE@ DB 'INT_TYPE_WEATHER_MODE', 00H ; `string'
CONST	ENDS
;	COMDAT ??_C@_0BM@KDOCPLMH@INT_TYPE_WEATHER_INCREASING@
CONST	SEGMENT
??_C@_0BM@KDOCPLMH@INT_TYPE_WEATHER_INCREASING@ DB 'INT_TYPE_WEATHER_INCR'
	DB	'EASING', 00H				; `string'
CONST	ENDS
;	COMDAT ??_C@_0BG@IABFHPOF@INT_TYPE_WEAPONS_HOLD@
CONST	SEGMENT
??_C@_0BG@IABFHPOF@INT_TYPE_WEAPONS_HOLD@ DB 'INT_TYPE_WEAPONS_HOLD', 00H ; `string'
CONST	ENDS
;	COMDAT ??_C@_0BN@EKJHEIKB@INT_TYPE_WEAPON_WARHEAD_TYPE@
CONST	SEGMENT
??_C@_0BN@EKJHEIKB@INT_TYPE_WEAPON_WARHEAD_TYPE@ DB 'INT_TYPE_WEAPON_WARH'
	DB	'EAD_TYPE', 00H				; `string'
CONST	ENDS
;	COMDAT ??_C@_0BN@MHLLFOIF@INT_TYPE_WEAPON_SYSTEM_READY@
CONST	SEGMENT
??_C@_0BN@MHLLFOIF@INT_TYPE_WEAPON_SYSTEM_READY@ DB 'INT_TYPE_WEAPON_SYST'
	DB	'EM_READY', 00H				; `string'
CONST	ENDS
;	COMDAT ??_C@_0CB@IPKKAGMM@INT_TYPE_WEAPON_SMOKE_TRAIL_TYP@
CONST	SEGMENT
??_C@_0CB@IPKKAGMM@INT_TYPE_WEAPON_SMOKE_TRAIL_TYP@ DB 'INT_TYPE_WEAPON_S'
	DB	'MOKE_TRAIL_TYPE', 00H			; `string'
CONST	ENDS
;	COMDAT ??_C@_0BP@KPLOKDCC@INT_TYPE_WEAPON_PACKAGE_NUMBER@
CONST	SEGMENT
??_C@_0BP@KPLOKDCC@INT_TYPE_WEAPON_PACKAGE_NUMBER@ DB 'INT_TYPE_WEAPON_PA'
	DB	'CKAGE_NUMBER', 00H				; `string'
CONST	ENDS
;	COMDAT ??_C@_0CG@OGOAEOLM@INT_TYPE_WEAPON_PACKAGE_HEADING@
CONST	SEGMENT
??_C@_0CG@OGOAEOLM@INT_TYPE_WEAPON_PACKAGE_HEADING@ DB 'INT_TYPE_WEAPON_P'
	DB	'ACKAGE_HEADING_DEPTH', 00H			; `string'
CONST	ENDS
;	COMDAT ??_C@_0CA@LHELNGPN@INT_TYPE_WEAPON_PACKAGE_DAMAGED@
CONST	SEGMENT
??_C@_0CA@LHELNGPN@INT_TYPE_WEAPON_PACKAGE_DAMAGED@ DB 'INT_TYPE_WEAPON_P'
	DB	'ACKAGE_DAMAGED', 00H			; `string'
CONST	ENDS
;	COMDAT ??_C@_0BK@FJPNAPGC@INT_TYPE_WEAPON_ON_GROUND@
CONST	SEGMENT
??_C@_0BK@FJPNAPGC@INT_TYPE_WEAPON_ON_GROUND@ DB 'INT_TYPE_WEAPON_ON_GROU'
	DB	'ND', 00H					; `string'
CONST	ENDS
;	COMDAT ??_C@_0BO@MFKHJBFH@INT_TYPE_WEAPON_MISSILE_PHASE@
CONST	SEGMENT
??_C@_0BO@MFKHJBFH@INT_TYPE_WEAPON_MISSILE_PHASE@ DB 'INT_TYPE_WEAPON_MIS'
	DB	'SILE_PHASE', 00H				; `string'
CONST	ENDS
;	COMDAT ??_C@_0BK@JGACFNFA@INT_TYPE_WEAPON_KILL_CODE@
CONST	SEGMENT
??_C@_0BK@JGACFNFA@INT_TYPE_WEAPON_KILL_CODE@ DB 'INT_TYPE_WEAPON_KILL_CO'
	DB	'DE', 00H					; `string'
CONST	ENDS
;	COMDAT ??_C@_0BO@KDICCLDC@INT_TYPE_WEAPON_GUIDANCE_TYPE@
CONST	SEGMENT
??_C@_0BO@KDICCLDC@INT_TYPE_WEAPON_GUIDANCE_TYPE@ DB 'INT_TYPE_WEAPON_GUI'
	DB	'DANCE_TYPE', 00H				; `string'
CONST	ENDS
;	COMDAT ??_C@_0BL@IGGLILAD@INT_TYPE_WEAPON_DECOY_TYPE@
CONST	SEGMENT
??_C@_0BL@IGGLILAD@INT_TYPE_WEAPON_DECOY_TYPE@ DB 'INT_TYPE_WEAPON_DECOY_'
	DB	'TYPE', 00H					; `string'
CONST	ENDS
;	COMDAT ??_C@_0BM@GNDPEHA@INT_TYPE_WEAPON_CONFIG_TYPE@
CONST	SEGMENT
??_C@_0BM@GNDPEHA@INT_TYPE_WEAPON_CONFIG_TYPE@ DB 'INT_TYPE_WEAPON_CONFIG'
	DB	'_TYPE', 00H					; `string'
CONST	ENDS
;	COMDAT ??_C@_0BO@PJKJDOBC@INT_TYPE_WEAPON_CAMERA_PRIMED@
CONST	SEGMENT
??_C@_0BO@PJKJDOBC@INT_TYPE_WEAPON_CAMERA_PRIMED@ DB 'INT_TYPE_WEAPON_CAM'
	DB	'ERA_PRIMED', 00H				; `string'
CONST	ENDS
;	COMDAT ??_C@_0BL@FHKGNNGH@INT_TYPE_WEAPON_BURST_SIZE@
CONST	SEGMENT
??_C@_0BL@FHKGNNGH@INT_TYPE_WEAPON_BURST_SIZE@ DB 'INT_TYPE_WEAPON_BURST_'
	DB	'SIZE', 00H					; `string'
CONST	ENDS
;	COMDAT ??_C@_0CJ@DECJLDLA@INT_TYPE_WEAPON_AND_TARGET_VECT@
CONST	SEGMENT
??_C@_0CJ@DECJLDLA@INT_TYPE_WEAPON_AND_TARGET_VECT@ DB 'INT_TYPE_WEAPON_A'
	DB	'ND_TARGET_VECTORS_VALID', 00H		; `string'
CONST	ENDS
;	COMDAT ??_C@_0BN@EPLJBMCO@INT_TYPE_WAYPOINT_THIS_INDEX@
CONST	SEGMENT
??_C@_0BN@EPLJBMCO@INT_TYPE_WAYPOINT_THIS_INDEX@ DB 'INT_TYPE_WAYPOINT_TH'
	DB	'IS_INDEX', 00H				; `string'
CONST	ENDS
;	COMDAT ??_C@_0BN@EHGAFEPK@INT_TYPE_WAYPOINT_NEXT_INDEX@
CONST	SEGMENT
??_C@_0BN@EHGAFEPK@INT_TYPE_WAYPOINT_NEXT_INDEX@ DB 'INT_TYPE_WAYPOINT_NE'
	DB	'XT_INDEX', 00H				; `string'
CONST	ENDS
;	COMDAT ??_C@_0BN@KHAAKDGO@INT_TYPE_WAYPOINT_GUIDE_TYPE@
CONST	SEGMENT
??_C@_0BN@KHAAKDGO@INT_TYPE_WAYPOINT_GUIDE_TYPE@ DB 'INT_TYPE_WAYPOINT_GU'
	DB	'IDE_TYPE', 00H				; `string'
CONST	ENDS
;	COMDAT ??_C@_0BM@IBIOGNNM@INT_TYPE_WAYPOINT_FORMATION@
CONST	SEGMENT
??_C@_0BM@IBIOGNNM@INT_TYPE_WAYPOINT_FORMATION@ DB 'INT_TYPE_WAYPOINT_FOR'
	DB	'MATION', 00H				; `string'
CONST	ENDS
;	COMDAT ??_C@_0BI@CIEPKDDP@INT_TYPE_WAYPOINT_COUNT@
CONST	SEGMENT
??_C@_0BI@CIEPKDDP@INT_TYPE_WAYPOINT_COUNT@ DB 'INT_TYPE_WAYPOINT_COUNT', 00H ; `string'
CONST	ENDS
;	COMDAT ??_C@_0CB@CBIBNOPD@INT_TYPE_WARHEAD_EFFECTIVE_CLAS@
CONST	SEGMENT
??_C@_0CB@CBIBNOPD@INT_TYPE_WARHEAD_EFFECTIVE_CLAS@ DB 'INT_TYPE_WARHEAD_'
	DB	'EFFECTIVE_CLASS', 00H			; `string'
CONST	ENDS
;	COMDAT ??_C@_0BL@PKLLCDAJ@INT_TYPE_WAIT_FOR_END_TASK@
CONST	SEGMENT
??_C@_0BL@PKLLCDAJ@INT_TYPE_WAIT_FOR_END_TASK@ DB 'INT_TYPE_WAIT_FOR_END_'
	DB	'TASK', 00H					; `string'
CONST	ENDS
;	COMDAT ??_C@_0BG@BHOBIACF@INT_TYPE_VISIBLE_TASK@
CONST	SEGMENT
??_C@_0BG@BHOBIACF@INT_TYPE_VISIBLE_TASK@ DB 'INT_TYPE_VISIBLE_TASK', 00H ; `string'
CONST	ENDS
;	COMDAT ??_C@_0BJ@PKOAOCIL@INT_TYPE_VIEWABLE_WEAPON@
CONST	SEGMENT
??_C@_0BJ@PKOAOCIL@INT_TYPE_VIEWABLE_WEAPON@ DB 'INT_TYPE_VIEWABLE_WEAPON'
	DB	00H						; `string'
CONST	ENDS
;	COMDAT ??_C@_0BC@PDJAIAGK@INT_TYPE_VIEWABLE@
CONST	SEGMENT
??_C@_0BC@PDJAIAGK@INT_TYPE_VIEWABLE@ DB 'INT_TYPE_VIEWABLE', 00H ; `string'
CONST	ENDS
;	COMDAT ??_C@_0BD@ILMMGEHJ@INT_TYPE_VIEW_TYPE@
CONST	SEGMENT
??_C@_0BD@ILMMGEHJ@INT_TYPE_VIEW_TYPE@ DB 'INT_TYPE_VIEW_TYPE', 00H ; `string'
CONST	ENDS
;	COMDAT ??_C@_0BH@PKJJLPME@INT_TYPE_VIEW_CATEGORY@
CONST	SEGMENT
??_C@_0BH@PKJJLPME@INT_TYPE_VIEW_CATEGORY@ DB 'INT_TYPE_VIEW_CATEGORY', 00H ; `string'
CONST	ENDS
;	COMDAT ??_C@_0BI@FJKJDOBA@INT_TYPE_VERSION_NUMBER@
CONST	SEGMENT
??_C@_0BI@FJKJDOBA@INT_TYPE_VERSION_NUMBER@ DB 'INT_TYPE_VERSION_NUMBER', 00H ; `string'
CONST	ENDS
;	COMDAT ??_C@_0CD@GBNOANDF@INT_TYPE_VERBOSE_OPERATIONAL_ST@
CONST	SEGMENT
??_C@_0CD@GBNOANDF@INT_TYPE_VERBOSE_OPERATIONAL_ST@ DB 'INT_TYPE_VERBOSE_'
	DB	'OPERATIONAL_STATE', 00H			; `string'
CONST	ENDS
;	COMDAT ??_C@_0BH@FHCPAIJO@INT_TYPE_VEHICLE_GROUP@
CONST	SEGMENT
??_C@_0BH@FHCPAIJO@INT_TYPE_VEHICLE_GROUP@ DB 'INT_TYPE_VEHICLE_GROUP', 00H ; `string'
CONST	ENDS
;	COMDAT ??_C@_0P@FLHAJHOJ@INT_TYPE_VALUE@
CONST	SEGMENT
??_C@_0P@FLHAJHOJ@INT_TYPE_VALUE@ DB 'INT_TYPE_VALUE', 00H ; `string'
CONST	ENDS
;	COMDAT ??_C@_0BM@GPOJGDAB@INT_TYPE_VALID_SOUND_EFFECT@
CONST	SEGMENT
??_C@_0BM@GPOJGDAB@INT_TYPE_VALID_SOUND_EFFECT@ DB 'INT_TYPE_VALID_SOUND_'
	DB	'EFFECT', 00H				; `string'
CONST	ENDS
;	COMDAT ??_C@_0BN@IMLDJLL@INT_TYPE_VALID_GUIDE_MEMBERS@
CONST	SEGMENT
??_C@_0BN@IMLDJLL@INT_TYPE_VALID_GUIDE_MEMBERS@ DB 'INT_TYPE_VALID_GUIDE_'
	DB	'MEMBERS', 00H				; `string'
CONST	ENDS
;	COMDAT ??_C@_0P@FHFHPMLM@INT_TYPE_VALID@
CONST	SEGMENT
??_C@_0P@FHFHPMLM@INT_TYPE_VALID@ DB 'INT_TYPE_VALID', 00H ; `string'
CONST	ENDS
;	COMDAT ??_C@_0BB@NNCDMDFE@INT_TYPE_UPDATED@
CONST	SEGMENT
??_C@_0BB@NNCDMDFE@INT_TYPE_UPDATED@ DB 'INT_TYPE_UPDATED', 00H ; `string'
CONST	ENDS
;	COMDAT ??_C@_0BD@ODHJPJPA@INT_TYPE_UNIQUE_ID@
CONST	SEGMENT
??_C@_0BD@ODHJPJPA@INT_TYPE_UNIQUE_ID@ DB 'INT_TYPE_UNIQUE_ID', 00H ; `string'
CONST	ENDS
;	COMDAT ??_C@_0BN@BJHKEEAB@INT_TYPE_TRACK_ENTITY_ON_MAP@
CONST	SEGMENT
??_C@_0BN@BJHKEEAB@INT_TYPE_TRACK_ENTITY_ON_MAP@ DB 'INT_TYPE_TRACK_ENTIT'
	DB	'Y_ON_MAP', 00H				; `string'
CONST	ENDS
;	COMDAT ??_C@_0BN@PJLONLEL@INT_TYPE_TOTAL_LANDING_SITES@
CONST	SEGMENT
??_C@_0BN@PJLONLEL@INT_TYPE_TOTAL_LANDING_SITES@ DB 'INT_TYPE_TOTAL_LANDI'
	DB	'NG_SITES', 00H				; `string'
CONST	ENDS
;	COMDAT ??_C@_0P@IHNBDNKA@INT_TYPE_TIMER@
CONST	SEGMENT
??_C@_0P@IHNBDNKA@INT_TYPE_TIMER@ DB 'INT_TYPE_TIMER', 00H ; `string'
CONST	ENDS
;	COMDAT ??_C@_0BF@GPEGEGBI@INT_TYPE_THREAT_TYPE@
CONST	SEGMENT
??_C@_0BF@GPEGEGBI@INT_TYPE_THREAT_TYPE@ DB 'INT_TYPE_THREAT_TYPE', 00H ; `string'
CONST	ENDS
;	COMDAT ??_C@_0BN@BLLJPHAP@INT_TYPE_TERRAIN_FOLLOW_MODE@
CONST	SEGMENT
??_C@_0BN@BLLJPHAP@INT_TYPE_TERRAIN_FOLLOW_MODE@ DB 'INT_TYPE_TERRAIN_FOL'
	DB	'LOW_MODE', 00H				; `string'
CONST	ENDS
;	COMDAT ??_C@_0BJ@IOHIIMIB@INT_TYPE_TASK_TERMINATED@
CONST	SEGMENT
??_C@_0BJ@IOHIIMIB@INT_TYPE_TASK_TERMINATED@ DB 'INT_TYPE_TASK_TERMINATED'
	DB	00H						; `string'
CONST	ENDS
;	COMDAT ??_C@_0BK@JOPFNPMJ@INT_TYPE_TASK_TARGET_TYPE@
CONST	SEGMENT
??_C@_0BK@JOPFNPMJ@INT_TYPE_TASK_TARGET_TYPE@ DB 'INT_TYPE_TASK_TARGET_TY'
	DB	'PE', 00H					; `string'
CONST	ENDS
;	COMDAT ??_C@_0BM@OGIAIKDA@INT_TYPE_TASK_TARGET_SOURCE@
CONST	SEGMENT
??_C@_0BM@OGIAIKDA@INT_TYPE_TASK_TARGET_SOURCE@ DB 'INT_TYPE_TASK_TARGET_'
	DB	'SOURCE', 00H				; `string'
CONST	ENDS
;	COMDAT ??_C@_0BL@DFGNEELF@INT_TYPE_TASK_TARGET_CLASS@
CONST	SEGMENT
??_C@_0BL@DFGNEELF@INT_TYPE_TASK_TARGET_CLASS@ DB 'INT_TYPE_TASK_TARGET_C'
	DB	'LASS', 00H					; `string'
CONST	ENDS
;	COMDAT ??_C@_0BE@LPNFFKC@INT_TYPE_TASK_STATE@
CONST	SEGMENT
??_C@_0BE@LPNFFKC@INT_TYPE_TASK_STATE@ DB 'INT_TYPE_TASK_STATE', 00H ; `string'
CONST	ENDS
;	COMDAT ??_C@_0BE@DNGPBFLB@INT_TYPE_TASK_SCORE@
CONST	SEGMENT
??_C@_0BE@DNGPBFLB@INT_TYPE_TASK_SCORE@ DB 'INT_TYPE_TASK_SCORE', 00H ; `string'
CONST	ENDS
;	COMDAT ??_C@_0BL@NKKEKGAL@INT_TYPE_TASK_ROUTE_SEARCH@
CONST	SEGMENT
??_C@_0BL@NKKEKGAL@INT_TYPE_TASK_ROUTE_SEARCH@ DB 'INT_TYPE_TASK_ROUTE_SE'
	DB	'ARCH', 00H					; `string'
CONST	ENDS
;	COMDAT ??_C@_0CG@EKMIMMPA@INT_TYPE_TASK_PASS_PERCENTAGE_S@
CONST	SEGMENT
??_C@_0CG@EKMIMMPA@INT_TYPE_TASK_PASS_PERCENTAGE_S@ DB 'INT_TYPE_TASK_PAS'
	DB	'S_PERCENTAGE_SUCCESS', 00H			; `string'
CONST	ENDS
;	COMDAT ??_C@_0CG@NFLCCPFK@INT_TYPE_TASK_PASS_PERCENTAGE_P@
CONST	SEGMENT
??_C@_0CG@NFLCCPFK@INT_TYPE_TASK_PASS_PERCENTAGE_P@ DB 'INT_TYPE_TASK_PAS'
	DB	'S_PERCENTAGE_PARTIAL', 00H			; `string'
CONST	ENDS
;	COMDAT ??_C@_0CF@HNLOGCJL@INT_TYPE_TASK_OBJECTIVE_PREVIEW@
CONST	SEGMENT
??_C@_0CF@HNLOGCJL@INT_TYPE_TASK_OBJECTIVE_PREVIEW@ DB 'INT_TYPE_TASK_OBJ'
	DB	'ECTIVE_PREVIEW_TYPE', 00H			; `string'
CONST	ENDS
;	COMDAT ??_C@_0BF@LJFLGKMB@INT_TYPE_TASK_LEADER@
CONST	SEGMENT
??_C@_0BF@LJFLGKMB@INT_TYPE_TASK_LEADER@ DB 'INT_TYPE_TASK_LEADER', 00H ; `string'
CONST	ENDS
;	COMDAT ??_C@_0BB@FKFIAAFH@INT_TYPE_TASK_ID@
CONST	SEGMENT
??_C@_0BB@FKFIAAFH@INT_TYPE_TASK_ID@ DB 'INT_TYPE_TASK_ID', 00H ; `string'
CONST	ENDS
;	COMDAT ??_C@_0BJ@EJPJAEJG@INT_TYPE_TASK_GENERATION@
CONST	SEGMENT
??_C@_0BJ@EJPJAEJG@INT_TYPE_TASK_GENERATION@ DB 'INT_TYPE_TASK_GENERATION'
	DB	00H						; `string'
CONST	ENDS
;	COMDAT ??_C@_0BJ@MICPFPFI@INT_TYPE_TASK_DIFFICULTY@
CONST	SEGMENT
??_C@_0BJ@MICPFPFI@INT_TYPE_TASK_DIFFICULTY@ DB 'INT_TYPE_TASK_DIFFICULTY'
	DB	00H						; `string'
CONST	ENDS
;	COMDAT ??_C@_0BI@DJMMJL@INT_TYPE_TASK_COMPLETED@
CONST	SEGMENT
??_C@_0BI@DJMMJL@INT_TYPE_TASK_COMPLETED@ DB 'INT_TYPE_TASK_COMPLETED', 00H ; `string'
CONST	ENDS
;	COMDAT ??_C@_0BH@GDNLGBE@INT_TYPE_TASK_CATEGORY@
CONST	SEGMENT
??_C@_0BH@GDNLGBE@INT_TYPE_TASK_CATEGORY@ DB 'INT_TYPE_TASK_CATEGORY', 00H ; `string'
CONST	ENDS
;	COMDAT ??_C@_0BN@FDEIHKCG@INT_TYPE_TARGET_WEATHER_MODE@
CONST	SEGMENT
??_C@_0BN@FDEIHKCG@INT_TYPE_TARGET_WEATHER_MODE@ DB 'INT_TYPE_TARGET_WEAT'
	DB	'HER_MODE', 00H				; `string'
CONST	ENDS
;	COMDAT ??_C@_0BF@LOLHFOOB@INT_TYPE_TARGET_TYPE@
CONST	SEGMENT
??_C@_0BF@LOLHFOOB@INT_TYPE_TARGET_TYPE@ DB 'INT_TYPE_TARGET_TYPE', 00H ; `string'
CONST	ENDS
;	COMDAT ??_C@_0BM@BKFKGOCK@INT_TYPE_TARGET_SYMBOL_TYPE@
CONST	SEGMENT
??_C@_0BM@BKFKGOCK@INT_TYPE_TARGET_SYMBOL_TYPE@ DB 'INT_TYPE_TARGET_SYMBO'
	DB	'L_TYPE', 00H				; `string'
CONST	ENDS
;	COMDAT ??_C@_0BO@OKIFHMKG@INT_TYPE_TARGET_PRIORITY_TYPE@
CONST	SEGMENT
??_C@_0BO@OKIFHMKG@INT_TYPE_TARGET_PRIORITY_TYPE@ DB 'INT_TYPE_TARGET_PRI'
	DB	'ORITY_TYPE', 00H				; `string'
CONST	ENDS
;	COMDAT ??_C@_0BG@ICLGGPJC@INT_TYPE_TAKEOFF_LOCK@
CONST	SEGMENT
??_C@_0BG@ICLGGPJC@INT_TYPE_TAKEOFF_LOCK@ DB 'INT_TYPE_TAKEOFF_LOCK', 00H ; `string'
CONST	ENDS
;	COMDAT ??_C@_0BM@FNJAOJAD@INT_TYPE_TAIL_ROTOR_DAMAGED@
CONST	SEGMENT
??_C@_0BM@FNJAOJAD@INT_TYPE_TAIL_ROTOR_DAMAGED@ DB 'INT_TYPE_TAIL_ROTOR_D'
	DB	'AMAGED', 00H				; `string'
CONST	ENDS
;	COMDAT ??_C@_0BJ@MHJGDBHA@INT_TYPE_TACVIEW_LOGGING@
CONST	SEGMENT
??_C@_0BJ@MHJGDBHA@INT_TYPE_TACVIEW_LOGGING@ DB 'INT_TYPE_TACVIEW_LOGGING'
	DB	00H						; `string'
CONST	ENDS
;	COMDAT ??_C@_0BK@KBKJDPDE@INT_TYPE_SUPPRESS_AI_FIRE@
CONST	SEGMENT
??_C@_0BK@KBKJDPDE@INT_TYPE_SUPPRESS_AI_FIRE@ DB 'INT_TYPE_SUPPRESS_AI_FI'
	DB	'RE', 00H					; `string'
CONST	ENDS
;	COMDAT ??_C@_0BM@JMGMKHEI@INT_TYPE_SUB_WAYPOINT_COUNT@
CONST	SEGMENT
??_C@_0BM@JMGMKHEI@INT_TYPE_SUB_WAYPOINT_COUNT@ DB 'INT_TYPE_SUB_WAYPOINT'
	DB	'_COUNT', 00H				; `string'
CONST	ENDS
;	COMDAT ??_C@_0BJ@MDPIKGDI@INT_TYPE_SUB_OBJECT_TYPE@
CONST	SEGMENT
??_C@_0BJ@MDPIKGDI@INT_TYPE_SUB_OBJECT_TYPE@ DB 'INT_TYPE_SUB_OBJECT_TYPE'
	DB	00H						; `string'
CONST	ENDS
;	COMDAT ??_C@_0BK@KLEDDEGK@INT_TYPE_SUB_OBJECT_DEPTH@
CONST	SEGMENT
??_C@_0BK@KLEDDEGK@INT_TYPE_SUB_OBJECT_DEPTH@ DB 'INT_TYPE_SUB_OBJECT_DEP'
	DB	'TH', 00H					; `string'
CONST	ENDS
;	COMDAT ??_C@_0BI@LHAGPIME@INT_TYPE_STRATEGY_LEVEL@
CONST	SEGMENT
??_C@_0BI@LHAGPIME@INT_TYPE_STRATEGY_LEVEL@ DB 'INT_TYPE_STRATEGY_LEVEL', 00H ; `string'
CONST	ENDS
;	COMDAT ??_C@_0BC@PGLKDAOO@INT_TYPE_STRATEGY@
CONST	SEGMENT
??_C@_0BC@PGLKDAOO@INT_TYPE_STRATEGY@ DB 'INT_TYPE_STRATEGY', 00H ; `string'
CONST	ENDS
;	COMDAT ??_C@_0BE@KBOPIFJL@INT_TYPE_START_NODE@
CONST	SEGMENT
??_C@_0BE@KBOPIFJL@INT_TYPE_START_NODE@ DB 'INT_TYPE_START_NODE', 00H ; `string'
CONST	ENDS
;	COMDAT ??_C@_0BG@CGNKNDKD@INT_TYPE_SPEECH_INDEX@
CONST	SEGMENT
??_C@_0BG@CGNKNDKD@INT_TYPE_SPEECH_INDEX@ DB 'INT_TYPE_SPEECH_INDEX', 00H ; `string'
CONST	ENDS
;	COMDAT ??_C@_0BJ@BJHLBOAO@INT_TYPE_SPEECH_CATEGORY@
CONST	SEGMENT
??_C@_0BJ@BJHLBOAO@INT_TYPE_SPEECH_CATEGORY@ DB 'INT_TYPE_SPEECH_CATEGORY'
	DB	00H						; `string'
CONST	ENDS
;	COMDAT ??_C@_0BI@EELPKHI@INT_TYPE_SOUND_LOCALITY@
CONST	SEGMENT
??_C@_0BI@EELPKHI@INT_TYPE_SOUND_LOCALITY@ DB 'INT_TYPE_SOUND_LOCALITY', 00H ; `string'
CONST	ENDS
;	COMDAT ??_C@_0BK@KPCEFEMC@INT_TYPE_SOUND_LIST_VALID@
CONST	SEGMENT
??_C@_0BK@KPCEFEMC@INT_TYPE_SOUND_LIST_VALID@ DB 'INT_TYPE_SOUND_LIST_VAL'
	DB	'ID', 00H					; `string'
CONST	ENDS
;	COMDAT ??_C@_0CF@GAAIIILL@INT_TYPE_SOUND_EFFECT_SEQUENCE_@
CONST	SEGMENT
??_C@_0CF@GAAIIILL@INT_TYPE_SOUND_EFFECT_SEQUENCE_@ DB 'INT_TYPE_SOUND_EF'
	DB	'FECT_SEQUENCE_COUNT', 00H			; `string'
CONST	ENDS
;	COMDAT ??_C@_0BL@PLDBKJL@INT_TYPE_SOUND_EFFECT_RATE@
CONST	SEGMENT
??_C@_0BL@PLDBKJL@INT_TYPE_SOUND_EFFECT_RATE@ DB 'INT_TYPE_SOUND_EFFECT_R'
	DB	'ATE', 00H					; `string'
CONST	ENDS
;	COMDAT ??_C@_0BO@KHJLDGNN@INT_TYPE_SOUND_EFFECT_PANNING@
CONST	SEGMENT
??_C@_0BO@KHJLDGNN@INT_TYPE_SOUND_EFFECT_PANNING@ DB 'INT_TYPE_SOUND_EFFE'
	DB	'CT_PANNING', 00H				; `string'
CONST	ENDS
;	COMDAT ??_C@_0BO@MIDMJDKC@INT_TYPE_SOUND_EFFECT_LOOPING@
CONST	SEGMENT
??_C@_0BO@MIDMJDKC@INT_TYPE_SOUND_EFFECT_LOOPING@ DB 'INT_TYPE_SOUND_EFFE'
	DB	'CT_LOOPING', 00H				; `string'
CONST	ENDS
;	COMDAT ??_C@_0BM@KOOIBMJM@INT_TYPE_SOUND_EFFECT_INDEX@
CONST	SEGMENT
??_C@_0BM@KOOIBMJM@INT_TYPE_SOUND_EFFECT_INDEX@ DB 'INT_TYPE_SOUND_EFFECT'
	DB	'_INDEX', 00H				; `string'
CONST	ENDS
;	COMDAT ??_C@_0BH@HAHMDHJI@INT_TYPE_SOUND_CHANNEL@
CONST	SEGMENT
??_C@_0BH@HAHMDHJI@INT_TYPE_SOUND_CHANNEL@ DB 'INT_TYPE_SOUND_CHANNEL', 00H ; `string'
CONST	ENDS
;	COMDAT ??_C@_0BD@FMOJPDJC@INT_TYPE_SOLO_TASK@
CONST	SEGMENT
??_C@_0BD@FMOJPDJC@INT_TYPE_SOLO_TASK@ DB 'INT_TYPE_SOLO_TASK', 00H ; `string'
CONST	ENDS
;	COMDAT ??_C@_0CA@MHGHPHBA@INT_TYPE_SOFT_DAMAGE_CAPABILITY@
CONST	SEGMENT
??_C@_0CA@MHGHPHBA@INT_TYPE_SOFT_DAMAGE_CAPABILITY@ DB 'INT_TYPE_SOFT_DAM'
	DB	'AGE_CAPABILITY', 00H			; `string'
CONST	ENDS
;	COMDAT ??_C@_0BE@FEMGMFJN@INT_TYPE_SMOKE_TYPE@
CONST	SEGMENT
??_C@_0BE@FEMGMFJN@INT_TYPE_SMOKE_TYPE@ DB 'INT_TYPE_SMOKE_TYPE', 00H ; `string'
CONST	ENDS
;	COMDAT ??_C@_0BJ@NIOPFIIO@INT_TYPE_SKIP_NIGHT_TIME@
CONST	SEGMENT
??_C@_0BJ@NIOPFIIO@INT_TYPE_SKIP_NIGHT_TIME@ DB 'INT_TYPE_SKIP_NIGHT_TIME'
	DB	00H						; `string'
CONST	ENDS
;	COMDAT ??_C@_0O@OBAKKFNG@INT_TYPE_SIDE@
CONST	SEGMENT
??_C@_0O@OBAKKFNG@INT_TYPE_SIDE@ DB 'INT_TYPE_SIDE', 00H ; `string'
CONST	ENDS
;	COMDAT ??_C@_0BK@LCLJDIGI@INT_TYPE_SESSION_COMPLETE@
CONST	SEGMENT
??_C@_0BK@LCLJDIGI@INT_TYPE_SESSION_COMPLETE@ DB 'INT_TYPE_SESSION_COMPLE'
	DB	'TE', 00H					; `string'
CONST	ENDS
;	COMDAT ??_C@_0CG@BEDKFHGL@INT_TYPE_SELECTED_WEAPON_SYSTEM@
CONST	SEGMENT
??_C@_0CG@BEDKFHGL@INT_TYPE_SELECTED_WEAPON_SYSTEM@ DB 'INT_TYPE_SELECTED'
	DB	'_WEAPON_SYSTEM_READY', 00H			; `string'
CONST	ENDS
;	COMDAT ??_C@_0BJ@POFHNFDG@INT_TYPE_SELECTED_WEAPON@
CONST	SEGMENT
??_C@_0BJ@POFHNFDG@INT_TYPE_SELECTED_WEAPON@ DB 'INT_TYPE_SELECTED_WEAPON'
	DB	00H						; `string'
CONST	ENDS
;	COMDAT ??_C@_0BF@CMNBPJFP@INT_TYPE_SECTOR_SIDE@
CONST	SEGMENT
??_C@_0BF@CMNBPJFP@INT_TYPE_SECTOR_SIDE@ DB 'INT_TYPE_SECTOR_SIDE', 00H ; `string'
CONST	ENDS
;	COMDAT ??_C@_0CC@KJFMAFNO@INT_TYPE_SCOUT_WEAPON_CONFIG_TY@
CONST	SEGMENT
??_C@_0CC@KJFMAFNO@INT_TYPE_SCOUT_WEAPON_CONFIG_TY@ DB 'INT_TYPE_SCOUT_WE'
	DB	'APON_CONFIG_TYPE', 00H			; `string'
CONST	ENDS
;	COMDAT ??_C@_0BN@DBEDMPNJ@INT_TYPE_RULES_OF_ENGAGEMENT@
CONST	SEGMENT
??_C@_0BN@DBEDMPNJ@INT_TYPE_RULES_OF_ENGAGEMENT@ DB 'INT_TYPE_RULES_OF_EN'
	DB	'GAGEMENT', 00H				; `string'
CONST	ENDS
;	COMDAT ??_C@_0BE@EJMFKNME@INT_TYPE_ROUTE_NODE@
CONST	SEGMENT
??_C@_0BE@EJMFKNME@INT_TYPE_ROUTE_NODE@ DB 'INT_TYPE_ROUTE_NODE', 00H ; `string'
CONST	ENDS
;	COMDAT ??_C@_0BG@ICFJCFNO@INT_TYPE_ROUTE_LENGTH@
CONST	SEGMENT
??_C@_0BG@ICFJCFNO@INT_TYPE_ROUTE_LENGTH@ DB 'INT_TYPE_ROUTE_LENGTH', 00H ; `string'
CONST	ENDS
;	COMDAT ??_C@_0BJ@CGKCDBD@INT_TYPE_ROUTE_CHECK_SUM@
CONST	SEGMENT
??_C@_0BJ@CGKCDBD@INT_TYPE_ROUTE_CHECK_SUM@ DB 'INT_TYPE_ROUTE_CHECK_SUM', 00H ; `string'
CONST	ENDS
;	COMDAT ??_C@_0BB@EFKGCEPB@INT_TYPE_ROTATED@
CONST	SEGMENT
??_C@_0BB@EFKGCEPB@INT_TYPE_ROTATED@ DB 'INT_TYPE_ROTATED', 00H ; `string'
CONST	ENDS
;	COMDAT ??_C@_0BJ@DOIIHGJG@INT_TYPE_RESUPPLY_SOURCE@
CONST	SEGMENT
??_C@_0BJ@DOIIHGJG@INT_TYPE_RESUPPLY_SOURCE@ DB 'INT_TYPE_RESUPPLY_SOURCE'
	DB	00H						; `string'
CONST	ENDS
;	COMDAT ??_C@_0CA@DKDODGJG@INT_TYPE_RESERVED_LANDING_SITES@
CONST	SEGMENT
??_C@_0CA@DKDODGJG@INT_TYPE_RESERVED_LANDING_SITES@ DB 'INT_TYPE_RESERVED'
	DB	'_LANDING_SITES', 00H			; `string'
CONST	ENDS
;	COMDAT ??_C@_0BM@HONHDLKK@INT_TYPE_REGISTRY_LIST_TYPE@
CONST	SEGMENT
??_C@_0BM@HONHDLKK@INT_TYPE_REGISTRY_LIST_TYPE@ DB 'INT_TYPE_REGISTRY_LIS'
	DB	'T_TYPE', 00H				; `string'
CONST	ENDS
;	COMDAT ??_C@_0CB@LPNKCFCO@INT_TYPE_REGEN_CREATION_SUB_TYP@
CONST	SEGMENT
??_C@_0CB@LPNKCFCO@INT_TYPE_REGEN_CREATION_SUB_TYP@ DB 'INT_TYPE_REGEN_CR'
	DB	'EATION_SUB_TYPE', 00H			; `string'
CONST	ENDS
;	COMDAT ??_C@_0BC@HOBCKNGF@INT_TYPE_REARMING@
CONST	SEGMENT
??_C@_0BC@HOBCKNGF@INT_TYPE_REARMING@ DB 'INT_TYPE_REARMING', 00H ; `string'
CONST	ENDS
;	COMDAT ??_C@_0BN@EIKIADLB@INT_TYPE_RADIO_MESSAGE_VALUE@
CONST	SEGMENT
??_C@_0BN@EIKIADLB@INT_TYPE_RADIO_MESSAGE_VALUE@ DB 'INT_TYPE_RADIO_MESSA'
	DB	'GE_VALUE', 00H				; `string'
CONST	ENDS
;	COMDAT ??_C@_0BM@KMBACLON@INT_TYPE_RADIO_MESSAGE_TYPE@
CONST	SEGMENT
??_C@_0BM@KMBACLON@INT_TYPE_RADIO_MESSAGE_TYPE@ DB 'INT_TYPE_RADIO_MESSAG'
	DB	'E_TYPE', 00H				; `string'
CONST	ENDS
;	COMDAT ??_C@_0BC@GKOACFGD@INT_TYPE_RADAR_ON@
CONST	SEGMENT
??_C@_0BC@GKOACFGD@INT_TYPE_RADAR_ON@ DB 'INT_TYPE_RADAR_ON', 00H ; `string'
CONST	ENDS
;	COMDAT ??_C@_0BJ@KELAGFKD@INT_TYPE_RADAR_JAMMER_ON@
CONST	SEGMENT
??_C@_0BJ@KELAGFKD@INT_TYPE_RADAR_JAMMER_ON@ DB 'INT_TYPE_RADAR_JAMMER_ON'
	DB	00H						; `string'
CONST	ENDS
;	COMDAT ??_C@_0BF@FIBGANAA@INT_TYPE_PROTOTYPE_4@
CONST	SEGMENT
??_C@_0BF@FIBGANAA@INT_TYPE_PROTOTYPE_4@ DB 'INT_TYPE_PROTOTYPE_4', 00H ; `string'
CONST	ENDS
;	COMDAT ??_C@_0BF@BHFHJLMH@INT_TYPE_PROTOTYPE_3@
CONST	SEGMENT
??_C@_0BF@BHFHJLMH@INT_TYPE_PROTOTYPE_3@ DB 'INT_TYPE_PROTOTYPE_3', 00H ; `string'
CONST	ENDS
;	COMDAT ??_C@_0BF@OEMKKIG@INT_TYPE_PROTOTYPE_2@
CONST	SEGMENT
??_C@_0BF@OEMKKIG@INT_TYPE_PROTOTYPE_2@ DB 'INT_TYPE_PROTOTYPE_2', 00H ; `string'
CONST	ENDS
;	COMDAT ??_C@_0BF@CFGBPJEF@INT_TYPE_PROTOTYPE_1@
CONST	SEGMENT
??_C@_0BF@CFGBPJEF@INT_TYPE_PROTOTYPE_1@ DB 'INT_TYPE_PROTOTYPE_1', 00H ; `string'
CONST	ENDS
;	COMDAT ??_C@_0BG@HPPOMDFJ@INT_TYPE_PRIMARY_TASK@
CONST	SEGMENT
??_C@_0BG@HPPOMDFJ@INT_TYPE_PRIMARY_TASK@ DB 'INT_TYPE_PRIMARY_TASK', 00H ; `string'
CONST	ENDS
;	COMDAT ??_C@_0CG@FAHNHPAI@INT_TYPE_POTENTIAL_CAMPAIGN_OBJ@
CONST	SEGMENT
??_C@_0CG@FAHNHPAI@INT_TYPE_POTENTIAL_CAMPAIGN_OBJ@ DB 'INT_TYPE_POTENTIA'
	DB	'L_CAMPAIGN_OBJECTIVE', 00H			; `string'
CONST	ENDS
;	COMDAT ??_C@_0BH@BDHNGBHK@INT_TYPE_POSITION_TYPE@
CONST	SEGMENT
??_C@_0BH@BDHNGBHK@INT_TYPE_POSITION_TYPE@ DB 'INT_TYPE_POSITION_TYPE', 00H ; `string'
CONST	ENDS
;	COMDAT ??_C@_0BH@MPDIHIOP@INT_TYPE_POSITION_HOLD@
CONST	SEGMENT
??_C@_0BH@MPDIHIOP@INT_TYPE_POSITION_HOLD@ DB 'INT_TYPE_POSITION_HOLD', 00H ; `string'
CONST	ENDS
;	COMDAT ??_C@_0BG@KIDIGGAJ@INT_TYPE_POINTS_VALUE@
CONST	SEGMENT
??_C@_0BG@KIDIGGAJ@INT_TYPE_POINTS_VALUE@ DB 'INT_TYPE_POINTS_VALUE', 00H ; `string'
CONST	ENDS
;	COMDAT ??_C@_0BF@LEAGFCAM@INT_TYPE_PLAYER_TASK@
CONST	SEGMENT
??_C@_0BF@LEAGFCAM@INT_TYPE_PLAYER_TASK@ DB 'INT_TYPE_PLAYER_TASK', 00H ; `string'
CONST	ENDS
;	COMDAT ??_C@_0BN@LEFBMCCN@INT_TYPE_PLAYER_CONTROLLABLE@
CONST	SEGMENT
??_C@_0BN@LEFBMCCN@INT_TYPE_PLAYER_CONTROLLABLE@ DB 'INT_TYPE_PLAYER_CONT'
	DB	'ROLLABLE', 00H				; `string'
CONST	ENDS
;	COMDAT ??_C@_0BA@DMAIEIHA@INT_TYPE_PLAYER@
CONST	SEGMENT
??_C@_0BA@DMAIEIHA@INT_TYPE_PLAYER@ DB 'INT_TYPE_PLAYER', 00H ; `string'
CONST	ENDS
;	COMDAT ??_C@_0BK@LLCODJKA@INT_TYPE_PLANNER_MOVEABLE@
CONST	SEGMENT
??_C@_0BK@LLCODJKA@INT_TYPE_PLANNER_MOVEABLE@ DB 'INT_TYPE_PLANNER_MOVEAB'
	DB	'LE', 00H					; `string'
CONST	ENDS
;	COMDAT ??_C@_0BE@CKHHIPIH@INT_TYPE_PILOT_RANK@
CONST	SEGMENT
??_C@_0BE@CKHHIPIH@INT_TYPE_PILOT_RANK@ DB 'INT_TYPE_PILOT_RANK', 00H ; `string'
CONST	ENDS
;	COMDAT ??_C@_0BJ@BEALBFMH@INT_TYPE_PERFORM_DEBRIEF@
CONST	SEGMENT
??_C@_0BJ@BEALBFMH@INT_TYPE_PERFORM_DEBRIEF@ DB 'INT_TYPE_PERFORM_DEBRIEF'
	DB	00H						; `string'
CONST	ENDS
;	COMDAT ??_C@_0BI@DGPBGLEA@INT_TYPE_PARTICLE_COUNT@
CONST	SEGMENT
??_C@_0BI@DGPBGLEA@INT_TYPE_PARTICLE_COUNT@ DB 'INT_TYPE_PARTICLE_COUNT', 00H ; `string'
CONST	ENDS
;	COMDAT ??_C@_0BL@HLDJFNKL@INT_TYPE_OPERATIONAL_STATE@
CONST	SEGMENT
??_C@_0BL@HLDJFNKL@INT_TYPE_OPERATIONAL_STATE@ DB 'INT_TYPE_OPERATIONAL_S'
	DB	'TATE', 00H					; `string'
CONST	ENDS
;	COMDAT ??_C@_0BO@LOFFCOHL@INT_TYPE_OFFENSIVE_CAPABILITY@
CONST	SEGMENT
??_C@_0BO@LOFFCOHL@INT_TYPE_OFFENSIVE_CAPABILITY@ DB 'INT_TYPE_OFFENSIVE_'
	DB	'CAPABILITY', 00H				; `string'
CONST	ENDS
;	COMDAT ??_C@_0BI@PKLBMGLE@INT_TYPE_OBJECT_SCALING@
CONST	SEGMENT
??_C@_0BI@PKLBMGLE@INT_TYPE_OBJECT_SCALING@ DB 'INT_TYPE_OBJECT_SCALING', 00H ; `string'
CONST	ENDS
;	COMDAT ??_C@_0BG@FAKIGPED@INT_TYPE_OBJECT_INDEX@
CONST	SEGMENT
??_C@_0BG@FAKIGPED@INT_TYPE_OBJECT_INDEX@ DB 'INT_TYPE_OBJECT_INDEX', 00H ; `string'
CONST	ENDS
;	COMDAT ??_C@_0CG@CLGHGPGM@INT_TYPE_OBJECT_DRAWN_ONCE_THIS@
CONST	SEGMENT
??_C@_0CG@CLGHGPGM@INT_TYPE_OBJECT_DRAWN_ONCE_THIS@ DB 'INT_TYPE_OBJECT_D'
	DB	'RAWN_ONCE_THIS_FRAME', 00H			; `string'
CONST	ENDS
;	COMDAT ??_C@_0BJ@KOFFCOGA@INT_TYPE_OBJECT_3D_SHAPE@
CONST	SEGMENT
??_C@_0BJ@KOFFCOGA@INT_TYPE_OBJECT_3D_SHAPE@ DB 'INT_TYPE_OBJECT_3D_SHAPE'
	DB	00H						; `string'
CONST	ENDS
;	COMDAT ??_C@_0BL@HMPHIOIH@INT_TYPE_MULTIPLAYER_GROUP@
CONST	SEGMENT
??_C@_0BL@HMPHIOIH@INT_TYPE_MULTIPLAYER_GROUP@ DB 'INT_TYPE_MULTIPLAYER_G'
	DB	'ROUP', 00H					; `string'
CONST	ENDS
;	COMDAT ??_C@_0BH@GCAHFCLC@INT_TYPE_MOVEMENT_TYPE@
CONST	SEGMENT
??_C@_0BH@GCAHFCLC@INT_TYPE_MOVEMENT_TYPE@ DB 'INT_TYPE_MOVEMENT_TYPE', 00H ; `string'
CONST	ENDS
;	COMDAT ??_C@_0BE@BPCNBHMB@INT_TYPE_MOVED_TYPE@
CONST	SEGMENT
??_C@_0BE@BPCNBHMB@INT_TYPE_MOVED_TYPE@ DB 'INT_TYPE_MOVED_TYPE', 00H ; `string'
CONST	ENDS
;	COMDAT ??_C@_0BH@MHBHHPPM@INT_TYPE_MOBILE_MOVING@
CONST	SEGMENT
??_C@_0BH@MHBHHPPM@INT_TYPE_MOBILE_MOVING@ DB 'INT_TYPE_MOBILE_MOVING', 00H ; `string'
CONST	ENDS
;	COMDAT ??_C@_0CH@HANHHPFM@INT_TYPE_MOBILE_FOLLOW_WAYPOINT@
CONST	SEGMENT
??_C@_0CH@HANHHPFM@INT_TYPE_MOBILE_FOLLOW_WAYPOINT@ DB 'INT_TYPE_MOBILE_F'
	DB	'OLLOW_WAYPOINT_OFFSET', 00H			; `string'
CONST	ENDS
;	COMDAT ??_C@_0CA@BCIIIBOB@INT_TYPE_MIN_WEAPON_CONFIG_TYPE@
CONST	SEGMENT
??_C@_0CA@BCIIIBOB@INT_TYPE_MIN_WEAPON_CONFIG_TYPE@ DB 'INT_TYPE_MIN_WEAP'
	DB	'ON_CONFIG_TYPE', 00H			; `string'
CONST	ENDS
;	COMDAT ??_C@_0BO@FIJLPAJM@INT_TYPE_MINIMUM_MEMBER_COUNT@
CONST	SEGMENT
??_C@_0BO@FIJLPAJM@INT_TYPE_MINIMUM_MEMBER_COUNT@ DB 'INT_TYPE_MINIMUM_ME'
	DB	'MBER_COUNT', 00H				; `string'
CONST	ENDS
;	COMDAT ??_C@_0BM@NAFCMKDO@INT_TYPE_MINIMUM_IDLE_COUNT@
CONST	SEGMENT
??_C@_0BM@NAFCMKDO@INT_TYPE_MINIMUM_IDLE_COUNT@ DB 'INT_TYPE_MINIMUM_IDLE'
	DB	'_COUNT', 00H				; `string'
CONST	ENDS
;	COMDAT ??_C@_0BO@IFJFMIC@INT_TYPE_META_SMOKE_LIST_TYPE@
CONST	SEGMENT
??_C@_0BO@IFJFMIC@INT_TYPE_META_SMOKE_LIST_TYPE@ DB 'INT_TYPE_META_SMOKE_'
	DB	'LIST_TYPE', 00H				; `string'
CONST	ENDS
;	COMDAT ??_C@_0BN@PEMKFENG@INT_TYPE_META_EXPLOSION_TYPE@
CONST	SEGMENT
??_C@_0BN@PEMKFENG@INT_TYPE_META_EXPLOSION_TYPE@ DB 'INT_TYPE_META_EXPLOS'
	DB	'ION_TYPE', 00H				; `string'
CONST	ENDS
;	COMDAT ??_C@_0BL@EBJOLAME@INT_TYPE_MESSAGE_TEXT_TYPE@
CONST	SEGMENT
??_C@_0BL@EBJOLAME@INT_TYPE_MESSAGE_TEXT_TYPE@ DB 'INT_TYPE_MESSAGE_TEXT_'
	DB	'TYPE', 00H					; `string'
CONST	ENDS
;	COMDAT ??_C@_0BG@OOEANHLB@INT_TYPE_MEMBER_COUNT@
CONST	SEGMENT
??_C@_0BG@OOEANHLB@INT_TYPE_MEMBER_COUNT@ DB 'INT_TYPE_MEMBER_COUNT', 00H ; `string'
CONST	ENDS
;	COMDAT ??_C@_0CA@BGBCLAML@INT_TYPE_MAX_WEAPON_CONFIG_TYPE@
CONST	SEGMENT
??_C@_0CA@BGBCLAML@INT_TYPE_MAX_WEAPON_CONFIG_TYPE@ DB 'INT_TYPE_MAX_WEAP'
	DB	'ON_CONFIG_TYPE', 00H			; `string'
CONST	ENDS
;	COMDAT ??_C@_0BI@LCHJNFIL@INT_TYPE_MAXIMUM_VOLUME@
CONST	SEGMENT
??_C@_0BI@LCHJNFIL@INT_TYPE_MAXIMUM_VOLUME@ DB 'INT_TYPE_MAXIMUM_VOLUME', 00H ; `string'
CONST	ENDS
;	COMDAT ??_C@_0BO@ELNOBGDH@INT_TYPE_MAXIMUM_MEMBER_COUNT@
CONST	SEGMENT
??_C@_0BO@ELNOBGDH@INT_TYPE_MAXIMUM_MEMBER_COUNT@ DB 'INT_TYPE_MAXIMUM_ME'
	DB	'MBER_COUNT', 00H				; `string'
CONST	ENDS
;	COMDAT ??_C@_0BC@LOCLDNEB@INT_TYPE_MAP_ICON@
CONST	SEGMENT
??_C@_0BC@LOCLDNEB@INT_TYPE_MAP_ICON@ DB 'INT_TYPE_MAP_ICON', 00H ; `string'
CONST	ENDS
;	COMDAT ??_C@_0BM@BHDBGKLH@INT_TYPE_MAIN_ROTOR_DAMAGED@
CONST	SEGMENT
??_C@_0BM@BHDBGKLH@INT_TYPE_MAIN_ROTOR_DAMAGED@ DB 'INT_TYPE_MAIN_ROTOR_D'
	DB	'AMAGED', 00H				; `string'
CONST	ENDS
;	COMDAT ??_C@_0BH@JKBILNPO@INT_TYPE_LOS_TO_TARGET@
CONST	SEGMENT
??_C@_0BH@JKBILNPO@INT_TYPE_LOS_TO_TARGET@ DB 'INT_TYPE_LOS_TO_TARGET', 00H ; `string'
CONST	ENDS
;	COMDAT ??_C@_0BA@HGGENJKD@INT_TYPE_LOSSES@
CONST	SEGMENT
??_C@_0BA@HGGENJKD@INT_TYPE_LOSSES@ DB 'INT_TYPE_LOSSES', 00H ; `string'
CONST	ENDS
;	COMDAT ??_C@_0BO@GAOHPEKE@INT_TYPE_LOCK_ON_AFTER_LAUNCH@
CONST	SEGMENT
??_C@_0BO@GAOHPEKE@INT_TYPE_LOCK_ON_AFTER_LAUNCH@ DB 'INT_TYPE_LOCK_ON_AF'
	DB	'TER_LAUNCH', 00H				; `string'
CONST	ENDS
;	COMDAT ??_C@_0BN@MGMMDOL@INT_TYPE_LOCAL_WEATHER_MODEL@
CONST	SEGMENT
??_C@_0BN@MGMMDOL@INT_TYPE_LOCAL_WEATHER_MODEL@ DB 'INT_TYPE_LOCAL_WEATHE'
	DB	'R_MODEL', 00H				; `string'
CONST	ENDS
;	COMDAT ??_C@_0BK@EBFHCJIG@INT_TYPE_LOCAL_ONLY_GROUP@
CONST	SEGMENT
??_C@_0BK@EBFHCJIG@INT_TYPE_LOCAL_ONLY_GROUP@ DB 'INT_TYPE_LOCAL_ONLY_GRO'
	DB	'UP', 00H					; `string'
CONST	ENDS
;	COMDAT ??_C@_0BM@NLINKOFB@INT_TYPE_LOCAL_EFFECT_COUNT@
CONST	SEGMENT
??_C@_0BM@NLINKOFB@INT_TYPE_LOCAL_EFFECT_COUNT@ DB 'INT_TYPE_LOCAL_EFFECT'
	DB	'_COUNT', 00H				; `string'
CONST	ENDS
;	COMDAT ??_C@_0BD@GBPBNAIL@INT_TYPE_LIGHTS_ON@
CONST	SEGMENT
??_C@_0BD@GBPBNAIL@INT_TYPE_LIGHTS_ON@ DB 'INT_TYPE_LIGHTS_ON', 00H ; `string'
CONST	ENDS
;	COMDAT ??_C@_0BA@CECGGLOD@INT_TYPE_LENGTH@
CONST	SEGMENT
??_C@_0BA@CECGGLOD@INT_TYPE_LENGTH@ DB 'INT_TYPE_LENGTH', 00H ; `string'
CONST	ENDS
;	COMDAT ??_C@_0BC@DHAKFMNG@INT_TYPE_LASER_ON@
CONST	SEGMENT
??_C@_0BC@DHAKFMNG@INT_TYPE_LASER_ON@ DB 'INT_TYPE_LASER_ON', 00H ; `string'
CONST	ENDS
;	COMDAT ??_C@_0BH@LBKICFHE@INT_TYPE_LANDING_TYPES@
CONST	SEGMENT
??_C@_0BH@LBKICFHE@INT_TYPE_LANDING_TYPES@ DB 'INT_TYPE_LANDING_TYPES', 00H ; `string'
CONST	ENDS
;	COMDAT ??_C@_0BG@PEKPLENC@INT_TYPE_LANDING_LOCK@
CONST	SEGMENT
??_C@_0BG@PEKPLENC@INT_TYPE_LANDING_LOCK@ DB 'INT_TYPE_LANDING_LOCK', 00H ; `string'
CONST	ENDS
;	COMDAT ??_C@_0BL@GAIJPMMN@INT_TYPE_LANDED_ON_CARRIER@
CONST	SEGMENT
??_C@_0BL@GAIJPMMN@INT_TYPE_LANDED_ON_CARRIER@ DB 'INT_TYPE_LANDED_ON_CAR'
	DB	'RIER', 00H					; `string'
CONST	ENDS
;	COMDAT ??_C@_0BF@HCGDOACJ@INT_TYPE_LANDED_LOCK@
CONST	SEGMENT
??_C@_0BF@HCGDOACJ@INT_TYPE_LANDED_LOCK@ DB 'INT_TYPE_LANDED_LOCK', 00H ; `string'
CONST	ENDS
;	COMDAT ??_C@_0BA@BMFDAAFA@INT_TYPE_LANDED@
CONST	SEGMENT
??_C@_0BA@BMFDAAFA@INT_TYPE_LANDED@ DB 'INT_TYPE_LANDED', 00H ; `string'
CONST	ENDS
;	COMDAT ??_C@_0P@NLCHOAEF@INT_TYPE_KILLS@
CONST	SEGMENT
??_C@_0P@NLCHOAEF@INT_TYPE_KILLS@ DB 'INT_TYPE_KILLS', 00H ; `string'
CONST	ENDS
;	COMDAT ??_C@_0BK@NFJFFAPC@INT_TYPE_KILL_NEXT_UPDATE@
CONST	SEGMENT
??_C@_0BK@NFJFFAPC@INT_TYPE_KILL_NEXT_UPDATE@ DB 'INT_TYPE_KILL_NEXT_UPDA'
	DB	'TE', 00H					; `string'
CONST	ENDS
;	COMDAT ??_C@_0BO@FODANLMN@INT_TYPE_KEYSITE_USABLE_STATE@
CONST	SEGMENT
??_C@_0BO@FODANLMN@INT_TYPE_KEYSITE_USABLE_STATE@ DB 'INT_TYPE_KEYSITE_US'
	DB	'ABLE_STATE', 00H				; `string'
CONST	ENDS
;	COMDAT ??_C@_0BE@PMMAGDGF@INT_TYPE_KEYSITE_ID@
CONST	SEGMENT
??_C@_0BE@PMMAGDGF@INT_TYPE_KEYSITE_ID@ DB 'INT_TYPE_KEYSITE_ID', 00H ; `string'
CONST	ENDS
;	COMDAT ??_C@_0BH@BFODCGJO@INT_TYPE_KEYSITE_COUNT@
CONST	SEGMENT
??_C@_0BH@BFODCGJO@INT_TYPE_KEYSITE_COUNT@ DB 'INT_TYPE_KEYSITE_COUNT', 00H ; `string'
CONST	ENDS
;	COMDAT ??_C@_0BA@LKIPNGJ@INT_TYPE_IN_USE@
CONST	SEGMENT
??_C@_0BA@LKIPNGJ@INT_TYPE_IN_USE@ DB 'INT_TYPE_IN_USE', 00H ; `string'
CONST	ENDS
;	COMDAT ??_C@_0CD@ELKJJPHG@INT_TYPE_INVULNERABLE_FROM_WEAP@
CONST	SEGMENT
??_C@_0CD@ELKJJPHG@INT_TYPE_INVULNERABLE_FROM_WEAP@ DB 'INT_TYPE_INVULNER'
	DB	'ABLE_FROM_WEAPONS', 00H			; `string'
CONST	ENDS
;	COMDAT ??_C@_0CG@ENEDAOJ@INT_TYPE_INVULNERABLE_FROM_COLL@
CONST	SEGMENT
??_C@_0CG@ENEDAOJ@INT_TYPE_INVULNERABLE_FROM_COLL@ DB 'INT_TYPE_INVULNERA'
	DB	'BLE_FROM_COLLISIONS', 00H			; `string'
CONST	ENDS
;	COMDAT ??_C@_0BH@GDNDIMIL@INT_TYPE_INSIDE_HANGAR@
CONST	SEGMENT
??_C@_0BH@GDNDIMIL@INT_TYPE_INSIDE_HANGAR@ DB 'INT_TYPE_INSIDE_HANGAR', 00H ; `string'
CONST	ENDS
;	COMDAT ??_C@_0BO@NEMECMDA@INT_TYPE_INITIAL_DAMAGE_LEVEL@
CONST	SEGMENT
??_C@_0BO@NEMECMDA@INT_TYPE_INITIAL_DAMAGE_LEVEL@ DB 'INT_TYPE_INITIAL_DA'
	DB	'MAGE_LEVEL', 00H				; `string'
CONST	ENDS
;	COMDAT ??_C@_0BN@KGAHCFBH@INT_TYPE_INFRA_RED_JAMMER_ON@
CONST	SEGMENT
??_C@_0BN@KGAHCFBH@INT_TYPE_INFRA_RED_JAMMER_ON@ DB 'INT_TYPE_INFRA_RED_J'
	DB	'AMMER_ON', 00H				; `string'
CONST	ENDS
;	COMDAT ??_C@_0BK@DJKPLBCA@INT_TYPE_INFINITE_WEAPONS@
CONST	SEGMENT
??_C@_0BK@DJKPLBCA@INT_TYPE_INFINITE_WEAPONS@ DB 'INT_TYPE_INFINITE_WEAPO'
	DB	'NS', 00H					; `string'
CONST	ENDS
;	COMDAT ??_C@_0BM@LBAOPFDM@INT_TYPE_INFINITE_GENERATOR@
CONST	SEGMENT
??_C@_0BM@LBAOPFDM@INT_TYPE_INFINITE_GENERATOR@ DB 'INT_TYPE_INFINITE_GEN'
	DB	'ERATOR', 00H				; `string'
CONST	ENDS
;	COMDAT ??_C@_0BH@BKDHCIBB@INT_TYPE_INFINITE_FUEL@
CONST	SEGMENT
??_C@_0BH@BKDHCIBB@INT_TYPE_INFINITE_FUEL@ DB 'INT_TYPE_INFINITE_FUEL', 00H ; `string'
CONST	ENDS
;	COMDAT ??_C@_0CG@NHKODKBL@INT_TYPE_ID_NUMBER_SIGNIFICANT_@
CONST	SEGMENT
??_C@_0CG@NHKODKBL@INT_TYPE_ID_NUMBER_SIGNIFICANT_@ DB 'INT_TYPE_ID_NUMBE'
	DB	'R_SIGNIFICANT_DIGITS', 00H			; `string'
CONST	ENDS
;	COMDAT ??_C@_0BD@OHAGEOLD@INT_TYPE_ID_NUMBER@
CONST	SEGMENT
??_C@_0BD@OHAGEOLD@INT_TYPE_ID_NUMBER@ DB 'INT_TYPE_ID_NUMBER', 00H ; `string'
CONST	ENDS
;	COMDAT ??_C@_0BJ@LHPNFJBF@INT_TYPE_IDENTIFY_WEAPON@
CONST	SEGMENT
??_C@_0BJ@LHPNFJBF@INT_TYPE_IDENTIFY_WEAPON@ DB 'INT_TYPE_IDENTIFY_WEAPON'
	DB	00H						; `string'
CONST	ENDS
;	COMDAT ??_C@_0BL@MMHNGEMJ@INT_TYPE_IDENTIFY_WAYPOINT@
CONST	SEGMENT
??_C@_0BL@MMHNGEMJ@INT_TYPE_IDENTIFY_WAYPOINT@ DB 'INT_TYPE_IDENTIFY_WAYP'
	DB	'OINT', 00H					; `string'
CONST	ENDS
;	COMDAT ??_C@_0BK@CPGDGNIB@INT_TYPE_IDENTIFY_VEHICLE@
CONST	SEGMENT
??_C@_0BK@CPGDGNIB@INT_TYPE_IDENTIFY_VEHICLE@ DB 'INT_TYPE_IDENTIFY_VEHIC'
	DB	'LE', 00H					; `string'
CONST	ENDS
;	COMDAT ??_C@_0BP@OILKCKHP@INT_TYPE_IDENTIFY_SHIP_VEHICLE@
CONST	SEGMENT
??_C@_0BP@OILKCKHP@INT_TYPE_IDENTIFY_SHIP_VEHICLE@ DB 'INT_TYPE_IDENTIFY_'
	DB	'SHIP_VEHICLE', 00H				; `string'
CONST	ENDS
;	COMDAT ??_C@_0BJ@KJCEJOJN@INT_TYPE_IDENTIFY_ROUTED@
CONST	SEGMENT
??_C@_0BJ@KJCEJOJN@INT_TYPE_IDENTIFY_ROUTED@ DB 'INT_TYPE_IDENTIFY_ROUTED'
	DB	00H						; `string'
CONST	ENDS
;	COMDAT ??_C@_0BJ@FOMLLMKE@INT_TYPE_IDENTIFY_MOBILE@
CONST	SEGMENT
??_C@_0BJ@FOMLLMKE@INT_TYPE_IDENTIFY_MOBILE@ DB 'INT_TYPE_IDENTIFY_MOBILE'
	DB	00H						; `string'
CONST	ENDS
;	COMDAT ??_C@_0BN@NBFEGIAF@INT_TYPE_IDENTIFY_HELICOPTER@
CONST	SEGMENT
??_C@_0BN@NBFEGIAF@INT_TYPE_IDENTIFY_HELICOPTER@ DB 'INT_TYPE_IDENTIFY_HE'
	DB	'LICOPTER', 00H				; `string'
CONST	ENDS
;	COMDAT ??_C@_0BN@NCFPMDAN@INT_TYPE_IDENTIFY_FIXED_WING@
CONST	SEGMENT
??_C@_0BN@NCFPMDAN@INT_TYPE_IDENTIFY_FIXED_WING@ DB 'INT_TYPE_IDENTIFY_FI'
	DB	'XED_WING', 00H				; `string'
CONST	ENDS
;	COMDAT ??_C@_0BI@IBDNOJD@INT_TYPE_IDENTIFY_FIXED@
CONST	SEGMENT
??_C@_0BI@IBDNOJD@INT_TYPE_IDENTIFY_FIXED@ DB 'INT_TYPE_IDENTIFY_FIXED', 00H ; `string'
CONST	ENDS
;	COMDAT ??_C@_0BI@OHGDOJCA@INT_TYPE_IDENTIFY_CARGO@
CONST	SEGMENT
??_C@_0BI@OHGDOJCA@INT_TYPE_IDENTIFY_CARGO@ DB 'INT_TYPE_IDENTIFY_CARGO', 00H ; `string'
CONST	ENDS
;	COMDAT ??_C@_0CA@COCHHNDA@INT_TYPE_IDENTIFY_ANTI_AIRCRAFT@
CONST	SEGMENT
??_C@_0CA@COCHHNDA@INT_TYPE_IDENTIFY_ANTI_AIRCRAFT@ DB 'INT_TYPE_IDENTIFY'
	DB	'_ANTI_AIRCRAFT', 00H			; `string'
CONST	ENDS
;	COMDAT ??_C@_0BL@BENAEKCM@INT_TYPE_IDENTIFY_AIRCRAFT@
CONST	SEGMENT
??_C@_0BL@BENAEKCM@INT_TYPE_IDENTIFY_AIRCRAFT@ DB 'INT_TYPE_IDENTIFY_AIRC'
	DB	'RAFT', 00H					; `string'
CONST	ENDS
;	COMDAT ??_C@_0BO@GNAHNBMP@INT_TYPE_HIDDEN_BY_FOG_OF_WAR@
CONST	SEGMENT
??_C@_0BO@GNAHNBMP@INT_TYPE_HIDDEN_BY_FOG_OF_WAR@ DB 'INT_TYPE_HIDDEN_BY_'
	DB	'FOG_OF_WAR', 00H				; `string'
CONST	ENDS
;	COMDAT ??_C@_0CB@GOBKFGMA@INT_TYPE_HELICOPTER_DAMAGE_LEVE@
CONST	SEGMENT
??_C@_0CB@GOBKFGMA@INT_TYPE_HELICOPTER_DAMAGE_LEVE@ DB 'INT_TYPE_HELICOPT'
	DB	'ER_DAMAGE_LEVEL', 00H			; `string'
CONST	ENDS
;	COMDAT ??_C@_0CB@MBIBKCAB@INT_TYPE_HELICOPTER_DAMAGE_FLAG@
CONST	SEGMENT
??_C@_0CB@MBIBKCAB@INT_TYPE_HELICOPTER_DAMAGE_FLAG@ DB 'INT_TYPE_HELICOPT'
	DB	'ER_DAMAGE_FLAGS', 00H			; `string'
CONST	ENDS
;	COMDAT ??_C@_0CA@MCCAMKLF@INT_TYPE_HARD_DAMAGE_CAPABILITY@
CONST	SEGMENT
??_C@_0CA@MCCAMKLF@INT_TYPE_HARD_DAMAGE_CAPABILITY@ DB 'INT_TYPE_HARD_DAM'
	DB	'AGE_CAPABILITY', 00H			; `string'
CONST	ENDS
;	COMDAT ??_C@_0BP@KHGNMCLJ@INT_TYPE_HAND_OFF_TARGET_COUNT@
CONST	SEGMENT
??_C@_0BP@KHGNMCLJ@INT_TYPE_HAND_OFF_TARGET_COUNT@ DB 'INT_TYPE_HAND_OFF_'
	DB	'TARGET_COUNT', 00H				; `string'
CONST	ENDS
;	COMDAT ??_C@_0BG@MDMMBMNO@INT_TYPE_GUNSHIP_TYPE@
CONST	SEGMENT
??_C@_0BG@MDMMBMNO@INT_TYPE_GUNSHIP_TYPE@ DB 'INT_TYPE_GUNSHIP_TYPE', 00H ; `string'
CONST	ENDS
;	COMDAT ??_C@_0CB@FMPDOHMI@INT_TYPE_GUNSHIP_RADAR_LOS_CLEA@
CONST	SEGMENT
??_C@_0CB@FMPDOHMI@INT_TYPE_GUNSHIP_RADAR_LOS_CLEA@ DB 'INT_TYPE_GUNSHIP_'
	DB	'RADAR_LOS_CLEAR', 00H			; `string'
CONST	ENDS
;	COMDAT ??_C@_0BN@HMAJBIBI@INT_TYPE_GUIDE_POSITION_TYPE@
CONST	SEGMENT
??_C@_0BN@HMAJBIBI@INT_TYPE_GUIDE_POSITION_TYPE@ DB 'INT_TYPE_GUIDE_POSIT'
	DB	'ION_TYPE', 00H				; `string'
CONST	ENDS
;	COMDAT ??_C@_0BN@MAGCAEEO@INT_TYPE_GUIDE_CRITERIA_TYPE@
CONST	SEGMENT
??_C@_0BN@MAGCAEEO@INT_TYPE_GUIDE_CRITERIA_TYPE@ DB 'INT_TYPE_GUIDE_CRITE'
	DB	'RIA_TYPE', 00H				; `string'
CONST	ENDS
;	COMDAT ??_C@_0BE@MDDGMONN@INT_TYPE_GROUP_MODE@
CONST	SEGMENT
??_C@_0BE@MDDGMONN@INT_TYPE_GROUP_MODE@ DB 'INT_TYPE_GROUP_MODE', 00H ; `string'
CONST	ENDS
;	COMDAT ??_C@_0BM@NKALAGLG@INT_TYPE_GROUP_MEMBER_STATE@
CONST	SEGMENT
??_C@_0BM@NKALAGLG@INT_TYPE_GROUP_MEMBER_STATE@ DB 'INT_TYPE_GROUP_MEMBER'
	DB	'_STATE', 00H				; `string'
CONST	ENDS
;	COMDAT ??_C@_0BN@NHICOJIA@INT_TYPE_GROUP_MEMBER_NUMBER@
CONST	SEGMENT
??_C@_0BN@NHICOJIA@INT_TYPE_GROUP_MEMBER_NUMBER@ DB 'INT_TYPE_GROUP_MEMBE'
	DB	'R_NUMBER', 00H				; `string'
CONST	ENDS
;	COMDAT ??_C@_0BJ@NHGLEIH@INT_TYPE_GROUP_MEMBER_ID@
CONST	SEGMENT
??_C@_0BJ@NHGLEIH@INT_TYPE_GROUP_MEMBER_ID@ DB 'INT_TYPE_GROUP_MEMBER_ID', 00H ; `string'
CONST	ENDS
;	COMDAT ??_C@_0BJ@GLDFIEHP@INT_TYPE_GROUP_LIST_TYPE@
CONST	SEGMENT
??_C@_0BJ@GLDFIEHP@INT_TYPE_GROUP_LIST_TYPE@ DB 'INT_TYPE_GROUP_LIST_TYPE'
	DB	00H						; `string'
CONST	ENDS
;	COMDAT ??_C@_0BG@MBCGCHOJ@INT_TYPE_GROUP_LEADER@
CONST	SEGMENT
??_C@_0BG@MBCGCHOJ@INT_TYPE_GROUP_LEADER@ DB 'INT_TYPE_GROUP_LEADER', 00H ; `string'
CONST	ENDS
;	COMDAT ??_C@_0BJ@KMKKLNEN@INT_TYPE_GROUP_FORMATION@
CONST	SEGMENT
??_C@_0BJ@KMKKLNEN@INT_TYPE_GROUP_FORMATION@ DB 'INT_TYPE_GROUP_FORMATION'
	DB	00H						; `string'
CONST	ENDS
;	COMDAT ??_C@_0CB@MJLOFLFO@INT_TYPE_GROUP_DEFAULT_FORMATIO@
CONST	SEGMENT
??_C@_0CB@MJLOFLFO@INT_TYPE_GROUP_DEFAULT_FORMATIO@ DB 'INT_TYPE_GROUP_DE'
	DB	'FAULT_FORMATION', 00H			; `string'
CONST	ENDS
;	COMDAT ??_C@_0BI@FDANFNOO@INT_TYPE_GROUP_CATEGORY@
CONST	SEGMENT
??_C@_0BI@FDANFNOO@INT_TYPE_GROUP_CATEGORY@ DB 'INT_TYPE_GROUP_CATEGORY', 00H ; `string'
CONST	ENDS
;	COMDAT ??_C@_0BI@IPFGFFBM@INT_TYPE_GROUP_CALLSIGN@
CONST	SEGMENT
??_C@_0BI@IPFGFFBM@INT_TYPE_GROUP_CALLSIGN@ DB 'INT_TYPE_GROUP_CALLSIGN', 00H ; `string'
CONST	ENDS
;	COMDAT ??_C@_0BK@MFMDMGAD@INT_TYPE_GROUP_AMALGAMATE@
CONST	SEGMENT
??_C@_0BK@MFMDMGAD@INT_TYPE_GROUP_AMALGAMATE@ DB 'INT_TYPE_GROUP_AMALGAMA'
	DB	'TE', 00H					; `string'
CONST	ENDS
;	COMDAT ??_C@_0BO@DNAEDGCL@INT_TYPE_GROUND_RADAR_CLUTTER@
CONST	SEGMENT
??_C@_0BO@DNAEDGCL@INT_TYPE_GROUND_RADAR_CLUTTER@ DB 'INT_TYPE_GROUND_RAD'
	DB	'AR_CLUTTER', 00H				; `string'
CONST	ENDS
;	COMDAT ??_C@_0BD@JNIHAJIN@INT_TYPE_FRONTLINE@
CONST	SEGMENT
??_C@_0BD@JNIHAJIN@INT_TYPE_FRONTLINE@ DB 'INT_TYPE_FRONTLINE', 00H ; `string'
CONST	ENDS
;	COMDAT ??_C@_0BM@LHPJEMBI@INT_TYPE_FREE_LANDING_SITES@
CONST	SEGMENT
??_C@_0BM@LHPJEMBI@INT_TYPE_FREE_LANDING_SITES@ DB 'INT_TYPE_FREE_LANDING'
	DB	'_SITES', 00H				; `string'
CONST	ENDS
;	COMDAT ??_C@_0BN@MKIJDAEA@INT_TYPE_FORMATION_POSITIONS@
CONST	SEGMENT
??_C@_0BN@MKIJDAEA@INT_TYPE_FORMATION_POSITIONS@ DB 'INT_TYPE_FORMATION_P'
	DB	'OSITIONS', 00H				; `string'
CONST	ENDS
;	COMDAT ??_C@_0BM@MBJAMKLP@INT_TYPE_FORMATION_POSITION@
CONST	SEGMENT
??_C@_0BM@MBJAMKLP@INT_TYPE_FORMATION_POSITION@ DB 'INT_TYPE_FORMATION_PO'
	DB	'SITION', 00H				; `string'
CONST	ENDS
;	COMDAT ??_C@_0BM@DNKBMCOH@INT_TYPE_FORCE_SECTOR_COUNT@
CONST	SEGMENT
??_C@_0BM@DNKBMCOH@INT_TYPE_FORCE_SECTOR_COUNT@ DB 'INT_TYPE_FORCE_SECTOR'
	DB	'_COUNT', 00H				; `string'
CONST	ENDS
;	COMDAT ??_C@_0BN@NIFELFAJ@INT_TYPE_FORCE_INFO_CATAGORY@
CONST	SEGMENT
??_C@_0BN@NIFELFAJ@INT_TYPE_FORCE_INFO_CATAGORY@ DB 'INT_TYPE_FORCE_INFO_'
	DB	'CATAGORY', 00H				; `string'
CONST	ENDS
;	COMDAT ??_C@_0BI@HPEGCDIE@INT_TYPE_FORCE_ATTITUDE@
CONST	SEGMENT
??_C@_0BI@HPEGCDIE@INT_TYPE_FORCE_ATTITUDE@ DB 'INT_TYPE_FORCE_ATTITUDE', 00H ; `string'
CONST	ENDS
;	COMDAT ??_C@_0P@EPPLNEHN@INT_TYPE_FORCE@
CONST	SEGMENT
??_C@_0P@EPPLNEHN@INT_TYPE_FORCE@ DB 'INT_TYPE_FORCE', 00H ; `string'
CONST	ENDS
;	COMDAT ??_C@_0BK@LLMKCGHK@INT_TYPE_FOLLOW_FORMATION@
CONST	SEGMENT
??_C@_0BK@LLMKCGHK@INT_TYPE_FOLLOW_FORMATION@ DB 'INT_TYPE_FOLLOW_FORMATI'
	DB	'ON', 00H					; `string'
CONST	ENDS
;	COMDAT ??_C@_0BI@LBNAPDDA@INT_TYPE_EXPOSURE_LEVEL@
CONST	SEGMENT
??_C@_0BI@LBNAPDDA@INT_TYPE_EXPOSURE_LEVEL@ DB 'INT_TYPE_EXPOSURE_LEVEL', 00H ; `string'
CONST	ENDS
;	COMDAT ??_C@_0BL@DLPBAJFP@INT_TYPE_EXPLOSIVE_QUALITY@
CONST	SEGMENT
??_C@_0BL@DLPBAJFP@INT_TYPE_EXPLOSIVE_QUALITY@ DB 'INT_TYPE_EXPLOSIVE_QUA'
	DB	'LITY', 00H					; `string'
CONST	ENDS
;	COMDAT ??_C@_0BJ@MIOMLECC@INT_TYPE_EXPLOSIVE_POWER@
CONST	SEGMENT
??_C@_0BJ@MIOMLECC@INT_TYPE_EXPLOSIVE_POWER@ DB 'INT_TYPE_EXPLOSIVE_POWER'
	DB	00H						; `string'
CONST	ENDS
;	COMDAT ??_C@_0BE@JFJEDPCH@INT_TYPE_EVADE_FIRE@
CONST	SEGMENT
??_C@_0BE@JFJEDPCH@INT_TYPE_EVADE_FIRE@ DB 'INT_TYPE_EVADE_FIRE', 00H ; `string'
CONST	ENDS
;	COMDAT ??_C@_0BJ@DGJACMFM@INT_TYPE_ENTITY_SUB_TYPE@
CONST	SEGMENT
??_C@_0BJ@DGJACMFM@INT_TYPE_ENTITY_SUB_TYPE@ DB 'INT_TYPE_ENTITY_SUB_TYPE'
	DB	00H						; `string'
CONST	ENDS
;	COMDAT ??_C@_0BG@JIAJAOMH@INT_TYPE_ENGAGE_ENEMY@
CONST	SEGMENT
??_C@_0BG@JIAJAOMH@INT_TYPE_ENGAGE_ENEMY@ DB 'INT_TYPE_ENGAGE_ENEMY', 00H ; `string'
CONST	ENDS
;	COMDAT ??_C@_0BC@FIBFGAKK@INT_TYPE_END_NODE@
CONST	SEGMENT
??_C@_0BC@FIBFGAKK@INT_TYPE_END_NODE@ DB 'INT_TYPE_END_NODE', 00H ; `string'
CONST	ENDS
;	COMDAT ??_C@_0BB@NDKKLBDK@INT_TYPE_EJECTED@
CONST	SEGMENT
??_C@_0BB@NDKKLBDK@INT_TYPE_EJECTED@ DB 'INT_TYPE_EJECTED', 00H ; `string'
CONST	ENDS
;	COMDAT ??_C@_0BF@HDJJJHMI@INT_TYPE_DIVISION_ID@
CONST	SEGMENT
??_C@_0BF@HDJJJHMI@INT_TYPE_DIVISION_ID@ DB 'INT_TYPE_DIVISION_ID', 00H ; `string'
CONST	ENDS
;	COMDAT ??_C@_0BK@IGFCPJKL@INT_TYPE_DIFFICULTY_LEVEL@
CONST	SEGMENT
??_C@_0BK@IGFCPJKL@INT_TYPE_DIFFICULTY_LEVEL@ DB 'INT_TYPE_DIFFICULTY_LEV'
	DB	'EL', 00H					; `string'
CONST	ENDS
;	COMDAT ??_C@_0BM@BCBCJDBO@INT_TYPE_DESTROYED_3D_SHAPE@
CONST	SEGMENT
??_C@_0BM@BCBCJDBO@INT_TYPE_DESTROYED_3D_SHAPE@ DB 'INT_TYPE_DESTROYED_3D'
	DB	'_SHAPE', 00H				; `string'
CONST	ENDS
;	COMDAT ??_C@_0BN@BEFINDGL@INT_TYPE_DEFAULT_WEAPON_TYPE@
CONST	SEGMENT
??_C@_0BN@BEFINDGL@INT_TYPE_DEFAULT_WEAPON_TYPE@ DB 'INT_TYPE_DEFAULT_WEA'
	DB	'PON_TYPE', 00H				; `string'
CONST	ENDS
;	COMDAT ??_C@_0CE@CEKICBPJ@INT_TYPE_DEFAULT_WEAPON_CONFIG_@
CONST	SEGMENT
??_C@_0CE@CEKICBPJ@INT_TYPE_DEFAULT_WEAPON_CONFIG_@ DB 'INT_TYPE_DEFAULT_'
	DB	'WEAPON_CONFIG_TYPE', 00H			; `string'
CONST	ENDS
;	COMDAT ??_C@_0CB@DJKEODKM@INT_TYPE_DEFAULT_GROUP_LIST_TYP@
CONST	SEGMENT
??_C@_0CB@DJKEODKM@INT_TYPE_DEFAULT_GROUP_LIST_TYP@ DB 'INT_TYPE_DEFAULT_'
	DB	'GROUP_LIST_TYPE', 00H			; `string'
CONST	ENDS
;	COMDAT ??_C@_0BO@KBDBEDOD@INT_TYPE_DEFAULT_ENGAGE_ENEMY@
CONST	SEGMENT
??_C@_0BO@KBDBEDOD@INT_TYPE_DEFAULT_ENGAGE_ENEMY@ DB 'INT_TYPE_DEFAULT_EN'
	DB	'GAGE_ENEMY', 00H				; `string'
CONST	ENDS
;	COMDAT ??_C@_0BK@MGMOOMEE@INT_TYPE_DEFAULT_3D_SHAPE@
CONST	SEGMENT
??_C@_0BK@MGMOOMEE@INT_TYPE_DEFAULT_3D_SHAPE@ DB 'INT_TYPE_DEFAULT_3D_SHA'
	DB	'PE', 00H					; `string'
CONST	ENDS
;	COMDAT ??_C@_0BP@PIHBDMNK@INT_TYPE_DELAY_TASK_ASSIGNMENT@
CONST	SEGMENT
??_C@_0BP@PIHBDMNK@INT_TYPE_DELAY_TASK_ASSIGNMENT@ DB 'INT_TYPE_DELAY_TAS'
	DB	'K_ASSIGNMENT', 00H				; `string'
CONST	ENDS
;	COMDAT ??_C@_0BK@NBDOLEEL@INT_TYPE_DAY_SEGMENT_TYPE@
CONST	SEGMENT
??_C@_0BK@NBDOLEEL@INT_TYPE_DAY_SEGMENT_TYPE@ DB 'INT_TYPE_DAY_SEGMENT_TY'
	DB	'PE', 00H					; `string'
CONST	ENDS
;	COMDAT ??_C@_0N@DODKCJNG@INT_TYPE_DAY@
CONST	SEGMENT
??_C@_0N@DODKCJNG@INT_TYPE_DAY@ DB 'INT_TYPE_DAY', 00H	; `string'
CONST	ENDS
;	COMDAT ??_C@_0BG@POHBDPLD@INT_TYPE_DAMAGE_LEVEL@
CONST	SEGMENT
??_C@_0BG@POHBDPLD@INT_TYPE_DAMAGE_LEVEL@ DB 'INT_TYPE_DAMAGE_LEVEL', 00H ; `string'
CONST	ENDS
;	COMDAT ??_C@_0BH@LFMLFNEC@INT_TYPE_CRITICAL_TASK@
CONST	SEGMENT
??_C@_0BH@LFMLFNEC@INT_TYPE_CRITICAL_TASK@ DB 'INT_TYPE_CRITICAL_TASK', 00H ; `string'
CONST	ENDS
;	COMDAT ??_C@_0BD@ILNAFFIO@INT_TYPE_CREW_ROLE@
CONST	SEGMENT
??_C@_0BD@ILNAFFIO@INT_TYPE_CREW_ROLE@ DB 'INT_TYPE_CREW_ROLE', 00H ; `string'
CONST	ENDS
;	COMDAT ??_C@_0BI@KBCIEDKF@INT_TYPE_CPG_IDENTIFIED@
CONST	SEGMENT
??_C@_0BI@KBCIEDKF@INT_TYPE_CPG_IDENTIFIED@ DB 'INT_TYPE_CPG_IDENTIFIED', 00H ; `string'
CONST	ENDS
;	COMDAT ??_C@_0P@NJOAMNDE@INT_TYPE_COUNT@
CONST	SEGMENT
??_C@_0P@NJOAMNDE@INT_TYPE_COUNT@ DB 'INT_TYPE_COUNT', 00H ; `string'
CONST	ENDS
;	COMDAT ??_C@_0BE@DLGFIKIO@INT_TYPE_COLOUR_RED@
CONST	SEGMENT
??_C@_0BE@DLGFIKIO@INT_TYPE_COLOUR_RED@ DB 'INT_TYPE_COLOUR_RED', 00H ; `string'
CONST	ENDS
;	COMDAT ??_C@_0BG@IJKBHGOB@INT_TYPE_COLOUR_GREEN@
CONST	SEGMENT
??_C@_0BG@IJKBHGOB@INT_TYPE_COLOUR_GREEN@ DB 'INT_TYPE_COLOUR_GREEN', 00H ; `string'
CONST	ENDS
;	COMDAT ??_C@_0BF@IHDJGBKC@INT_TYPE_COLOUR_BLUE@
CONST	SEGMENT
??_C@_0BF@IHDJGBKC@INT_TYPE_COLOUR_BLUE@ DB 'INT_TYPE_COLOUR_BLUE', 00H ; `string'
CONST	ENDS
;	COMDAT ??_C@_0BG@GIKPJECO@INT_TYPE_COLOUR_ALPHA@
CONST	SEGMENT
??_C@_0BG@GIKPJECO@INT_TYPE_COLOUR_ALPHA@ DB 'INT_TYPE_COLOUR_ALPHA', 00H ; `string'
CONST	ENDS
;	COMDAT ??_C@_0BA@HNGONDAP@INT_TYPE_COLOUR@
CONST	SEGMENT
??_C@_0BA@HNGONDAP@INT_TYPE_COLOUR@ DB 'INT_TYPE_COLOUR', 00H ; `string'
CONST	ENDS
;	COMDAT ??_C@_0BP@JPOPJLDL@INT_TYPE_COLLISION_TEST_MOBILE@
CONST	SEGMENT
??_C@_0BP@JPOPJLDL@INT_TYPE_COLLISION_TEST_MOBILE@ DB 'INT_TYPE_COLLISION'
	DB	'_TEST_MOBILE', 00H				; `string'
CONST	ENDS
;	COMDAT ??_C@_0BO@ENCJOKKN@INT_TYPE_COLLISION_TEST_FIXED@
CONST	SEGMENT
??_C@_0BO@ENCJOKKN@INT_TYPE_COLLISION_TEST_FIXED@ DB 'INT_TYPE_COLLISION_'
	DB	'TEST_FIXED', 00H				; `string'
CONST	ENDS
;	COMDAT ??_C@_0BF@ECFPKCBA@INT_TYPE_CHILD_COUNT@
CONST	SEGMENT
??_C@_0BF@ECFPKCBA@INT_TYPE_CHILD_COUNT@ DB 'INT_TYPE_CHILD_COUNT', 00H ; `string'
CONST	ENDS
;	COMDAT ??_C@_0BP@MJIOIIIA@INT_TYPE_CHECK_WAYPOINT_ACTION@
CONST	SEGMENT
??_C@_0BP@MJIOIIIA@INT_TYPE_CHECK_WAYPOINT_ACTION@ DB 'INT_TYPE_CHECK_WAY'
	DB	'POINT_ACTION', 00H				; `string'
CONST	ENDS
;	COMDAT ??_C@_0BI@FIIBDKKN@INT_TYPE_CHEATS_ENABLED@
CONST	SEGMENT
??_C@_0BI@FIIBDKKN@INT_TYPE_CHEATS_ENABLED@ DB 'INT_TYPE_CHEATS_ENABLED', 00H ; `string'
CONST	ENDS
;	COMDAT ??_C@_0CI@IHPPDALN@INT_TYPE_CAMPAIGN_REQUIRES_APAC@
CONST	SEGMENT
??_C@_0CI@IHPPDALN@INT_TYPE_CAMPAIGN_REQUIRES_APAC@ DB 'INT_TYPE_CAMPAIGN'
	DB	'_REQUIRES_APACHE_HAVOC', 00H		; `string'
CONST	ENDS
;	COMDAT ??_C@_0BI@JABJLDKO@INT_TYPE_CAMPAIGN_MEDAL@
CONST	SEGMENT
??_C@_0BI@JABJLDKO@INT_TYPE_CAMPAIGN_MEDAL@ DB 'INT_TYPE_CAMPAIGN_MEDAL', 00H ; `string'
CONST	ENDS
;	COMDAT ??_C@_0CB@KLGMJPCD@INT_TYPE_CAMPAIGN_CRITERIA_VALU@
CONST	SEGMENT
??_C@_0CB@KLGMJPCD@INT_TYPE_CAMPAIGN_CRITERIA_VALU@ DB 'INT_TYPE_CAMPAIGN'
	DB	'_CRITERIA_VALUE', 00H			; `string'
CONST	ENDS
;	COMDAT ??_C@_0CA@LIHKLGF@INT_TYPE_CAMPAIGN_CRITERIA_TYPE@
CONST	SEGMENT
??_C@_0CA@LIHKLGF@INT_TYPE_CAMPAIGN_CRITERIA_TYPE@ DB 'INT_TYPE_CAMPAIGN_'
	DB	'CRITERIA_TYPE', 00H				; `string'
CONST	ENDS
;	COMDAT ??_C@_0CC@POKENIGE@INT_TYPE_CAMPAIGN_CRITERIA_RESU@
CONST	SEGMENT
??_C@_0CC@POKENIGE@INT_TYPE_CAMPAIGN_CRITERIA_RESU@ DB 'INT_TYPE_CAMPAIGN'
	DB	'_CRITERIA_RESULT', 00H			; `string'
CONST	ENDS
;	COMDAT ??_C@_0CB@CJPMMFPO@INT_TYPE_CAMPAIGN_CRITERIA_COUN@
CONST	SEGMENT
??_C@_0CB@CJPMMFPO@INT_TYPE_CAMPAIGN_CRITERIA_COUN@ DB 'INT_TYPE_CAMPAIGN'
	DB	'_CRITERIA_COUNT', 00H			; `string'
CONST	ENDS
;	COMDAT ??_C@_0BF@HOFBNFDG@INT_TYPE_CAMERA_MODE@
CONST	SEGMENT
??_C@_0BF@HOFBNFDG@INT_TYPE_CAMERA_MODE@ DB 'INT_TYPE_CAMERA_MODE', 00H ; `string'
CONST	ENDS
;	COMDAT ??_C@_0BN@ECIBNGJD@INT_TYPE_BRIDGE_SEGMENT_TYPE@
CONST	SEGMENT
??_C@_0BN@ECIBNGJD@INT_TYPE_BRIDGE_SEGMENT_TYPE@ DB 'INT_TYPE_BRIDGE_SEGM'
	DB	'ENT_TYPE', 00H				; `string'
CONST	ENDS
;	COMDAT ??_C@_0BL@NLBPJBEH@INT_TYPE_AWARDED_PROMOTION@
CONST	SEGMENT
??_C@_0BL@NLBPJBEH@INT_TYPE_AWARDED_PROMOTION@ DB 'INT_TYPE_AWARDED_PROMO'
	DB	'TION', 00H					; `string'
CONST	ENDS
;	COMDAT ??_C@_0BI@OBLHFIPI@INT_TYPE_AWARDED_MEDALS@
CONST	SEGMENT
??_C@_0BI@OBLHFIPI@INT_TYPE_AWARDED_MEDALS@ DB 'INT_TYPE_AWARDED_MEDALS', 00H ; `string'
CONST	ENDS
;	COMDAT ??_C@_0BE@LFBGOJEL@INT_TYPE_AUTO_PILOT@
CONST	SEGMENT
??_C@_0BE@LFBGOJEL@INT_TYPE_AUTO_PILOT@ DB 'INT_TYPE_AUTO_PILOT', 00H ; `string'
CONST	ENDS
;	COMDAT ??_C@_0BN@CCIPKPKJ@INT_TYPE_AUTO_ASSIGN_GUNSHIP@
CONST	SEGMENT
??_C@_0BN@CCIPKPKJ@INT_TYPE_AUTO_ASSIGN_GUNSHIP@ DB 'INT_TYPE_AUTO_ASSIGN'
	DB	'_GUNSHIP', 00H				; `string'
CONST	ENDS
;	COMDAT ??_C@_0BI@GAOFLLOB@INT_TYPE_ASSESS_LANDING@
CONST	SEGMENT
??_C@_0BI@GAOFLLOB@INT_TYPE_ASSESS_LANDING@ DB 'INT_TYPE_ASSESS_LANDING', 00H ; `string'
CONST	ENDS
;	COMDAT ??_C@_0CH@NDELLEIG@INT_TYPE_APPROXIMATION_OBJECT_3@
CONST	SEGMENT
??_C@_0CH@NDELLEIG@INT_TYPE_APPROXIMATION_OBJECT_3@ DB 'INT_TYPE_APPROXIM'
	DB	'ATION_OBJECT_3D_SHAPE', 00H			; `string'
CONST	ENDS
;	COMDAT ??_C@_0BK@MODAFBGC@INT_TYPE_ANIMATED_TEXTURE@
CONST	SEGMENT
??_C@_0BK@MODAFBGC@INT_TYPE_ANIMATED_TEXTURE@ DB 'INT_TYPE_ANIMATED_TEXTU'
	DB	'RE', 00H					; `string'
CONST	ENDS
;	COMDAT ??_C@_0P@IIKLCPBA@INT_TYPE_ALIVE@
CONST	SEGMENT
??_C@_0P@IIKLCPBA@INT_TYPE_ALIVE@ DB 'INT_TYPE_ALIVE', 00H ; `string'
CONST	ENDS
;	COMDAT ??_C@_0BM@NJAJECAE@INT_TYPE_ALIGN_WITH_TERRAIN@
CONST	SEGMENT
??_C@_0BM@NJAJECAE@INT_TYPE_ALIGN_WITH_TERRAIN@ DB 'INT_TYPE_ALIGN_WITH_T'
	DB	'ERRAIN', 00H				; `string'
CONST	ENDS
;	COMDAT ??_C@_0BI@GEPGDCHA@INT_TYPE_AIRCRAFT_GROUP@
CONST	SEGMENT
??_C@_0BI@GEPGDCHA@INT_TYPE_AIRCRAFT_GROUP@ DB 'INT_TYPE_AIRCRAFT_GROUP', 00H ; `string'
CONST	ENDS
;	COMDAT ??_C@_0BL@JHLABGDH@INT_TYPE_AIRBORNE_AIRCRAFT@
CONST	SEGMENT
??_C@_0BL@JHLABGDH@INT_TYPE_AIRBORNE_AIRCRAFT@ DB 'INT_TYPE_AIRBORNE_AIRC'
	DB	'RAFT', 00H					; `string'
CONST	ENDS
;	COMDAT ??_C@_0CL@NPCLNPIJ@INT_TYPE_AIR_TO_SURFACE_WEAPON_@
CONST	SEGMENT
??_C@_0CL@NPCLNPIJ@INT_TYPE_AIR_TO_SURFACE_WEAPON_@ DB 'INT_TYPE_AIR_TO_S'
	DB	'URFACE_WEAPON_CONFIG_TYPE', 00H		; `string'
CONST	ENDS
;	COMDAT ??_C@_0CH@OMINJOND@INT_TYPE_AIR_TO_AIR_WEAPON_CONF@
CONST	SEGMENT
??_C@_0CH@OMINJOND@INT_TYPE_AIR_TO_AIR_WEAPON_CONF@ DB 'INT_TYPE_AIR_TO_A'
	DB	'IR_WEAPON_CONFIG_TYPE', 00H			; `string'
CONST	ENDS
;	COMDAT ??_C@_0BN@NCIIBGC@INT_TYPE_AIR_ATTACK_STRENGTH@
CONST	SEGMENT
??_C@_0BN@NCIIBGC@INT_TYPE_AIR_ATTACK_STRENGTH@ DB 'INT_TYPE_AIR_ATTACK_S'
	DB	'TRENGTH', 00H				; `string'
CONST	ENDS
;	COMDAT ??_C@_0BC@FBCPGLAJ@INT_TYPE_ADDITIVE@
CONST	SEGMENT
??_C@_0BC@FBCPGLAJ@INT_TYPE_ADDITIVE@ DB 'INT_TYPE_ADDITIVE', 00H ; `string'
CONST	ENDS
_DATA	SEGMENT
?int_type_database@@3PAUINT_TYPE_DATA@@A DD FLAT:??_C@_0BC@FBCPGLAJ@INT_TYPE_ADDITIVE@ ; int_type_database
	DD	01H
	DD	01H
	DD	00H
	DD	00H
	DD	FLAT:??_C@_0BN@NCIIBGC@INT_TYPE_AIR_ATTACK_STRENGTH@
	DD	01H
	DD	020H
	DD	00H
	DD	00H
	DD	FLAT:??_C@_0CH@OMINJOND@INT_TYPE_AIR_TO_AIR_WEAPON_CONF@
	DD	01H
	DD	0aH
	DD	00H
	DD	00H
	DD	FLAT:??_C@_0CL@NPCLNPIJ@INT_TYPE_AIR_TO_SURFACE_WEAPON_@
	DD	01H
	DD	0aH
	DD	00H
	DD	00H
	DD	FLAT:??_C@_0BL@JHLABGDH@INT_TYPE_AIRBORNE_AIRCRAFT@
	DD	01H
	DD	01H
	DD	00H
	DD	00H
	DD	FLAT:??_C@_0BI@GEPGDCHA@INT_TYPE_AIRCRAFT_GROUP@
	DD	01H
	DD	020H
	DD	00H
	DD	00H
	DD	FLAT:??_C@_0BM@NJAJECAE@INT_TYPE_ALIGN_WITH_TERRAIN@
	DD	01H
	DD	01H
	DD	00H
	DD	00H
	DD	FLAT:??_C@_0P@IIKLCPBA@INT_TYPE_ALIVE@
	DD	01H
	DD	01H
	DD	00H
	DD	00H
	DD	FLAT:??_C@_0BK@MODAFBGC@INT_TYPE_ANIMATED_TEXTURE@
	DD	01H
	DD	08H
	DD	00H
	DD	00H
	DD	FLAT:??_C@_0CH@NDELLEIG@INT_TYPE_APPROXIMATION_OBJECT_3@
	DD	01H
	DD	0cH
	DD	00H
	DD	00H
	DD	FLAT:??_C@_0BI@GAOFLLOB@INT_TYPE_ASSESS_LANDING@
	DD	01H
	DD	01H
	DD	00H
	DD	00H
	DD	FLAT:??_C@_0BN@CCIPKPKJ@INT_TYPE_AUTO_ASSIGN_GUNSHIP@
	DD	01H
	DD	01H
	DD	00H
	DD	00H
	DD	FLAT:??_C@_0BE@LFBGOJEL@INT_TYPE_AUTO_PILOT@
	DD	01H
	DD	01H
	DD	00H
	DD	00H
	DD	FLAT:??_C@_0BI@OBLHFIPI@INT_TYPE_AWARDED_MEDALS@
	DD	01H
	DD	010H
	DD	00H
	DD	00H
	DD	FLAT:??_C@_0BL@NLBPJBEH@INT_TYPE_AWARDED_PROMOTION@
	DD	01H
	DD	010H
	DD	00H
	DD	00H
	DD	FLAT:??_C@_0BN@ECIBNGJD@INT_TYPE_BRIDGE_SEGMENT_TYPE@
	DD	01H
	DD	020H
	DD	00H
	DD	00H
	DD	FLAT:??_C@_0BF@HOFBNFDG@INT_TYPE_CAMERA_MODE@
	DD	01H
	DD	020H
	DD	00H
	DD	00H
	DD	FLAT:??_C@_0CB@CJPMMFPO@INT_TYPE_CAMPAIGN_CRITERIA_COUN@
	DD	01H
	DD	08H
	DD	00H
	DD	00H
	DD	FLAT:??_C@_0CC@POKENIGE@INT_TYPE_CAMPAIGN_CRITERIA_RESU@
	DD	01H
	DD	08H
	DD	00H
	DD	00H
	DD	FLAT:??_C@_0CA@LIHKLGF@INT_TYPE_CAMPAIGN_CRITERIA_TYPE@
	DD	01H
	DD	08H
	DD	00H
	DD	00H
	DD	FLAT:??_C@_0CB@KLGMJPCD@INT_TYPE_CAMPAIGN_CRITERIA_VALU@
	DD	01H
	DD	010H
	DD	00H
	DD	00H
	DD	FLAT:??_C@_0BI@JABJLDKO@INT_TYPE_CAMPAIGN_MEDAL@
	DD	01H
	DD	010H
	DD	00H
	DD	00H
	DD	FLAT:??_C@_0CI@IHPPDALN@INT_TYPE_CAMPAIGN_REQUIRES_APAC@
	DD	01H
	DD	01H
	DD	00H
	DD	00H
	DD	FLAT:??_C@_0BI@FIIBDKKN@INT_TYPE_CHEATS_ENABLED@
	DD	01H
	DD	01H
	DD	00H
	DD	00H
	DD	FLAT:??_C@_0BP@MJIOIIIA@INT_TYPE_CHECK_WAYPOINT_ACTION@
	DD	01H
	DD	01H
	DD	00H
	DD	00H
	DD	FLAT:??_C@_0BF@ECFPKCBA@INT_TYPE_CHILD_COUNT@
	DD	01H
	DD	010H
	DD	00H
	DD	00H
	DD	FLAT:??_C@_0BO@ENCJOKKN@INT_TYPE_COLLISION_TEST_FIXED@
	DD	01H
	DD	020H
	DD	00H
	DD	00H
	DD	FLAT:??_C@_0BP@JPOPJLDL@INT_TYPE_COLLISION_TEST_MOBILE@
	DD	01H
	DD	020H
	DD	00H
	DD	00H
	DD	FLAT:??_C@_0BA@HNGONDAP@INT_TYPE_COLOUR@
	DD	01H
	DD	04H
	DD	00H
	DD	00H
	DD	FLAT:??_C@_0BG@GIKPJECO@INT_TYPE_COLOUR_ALPHA@
	DD	01H
	DD	08H
	DD	00H
	DD	00H
	DD	FLAT:??_C@_0BF@IHDJGBKC@INT_TYPE_COLOUR_BLUE@
	DD	01H
	DD	08H
	DD	00H
	DD	00H
	DD	FLAT:??_C@_0BG@IJKBHGOB@INT_TYPE_COLOUR_GREEN@
	DD	01H
	DD	08H
	DD	00H
	DD	00H
	DD	FLAT:??_C@_0BE@DLGFIKIO@INT_TYPE_COLOUR_RED@
	DD	01H
	DD	08H
	DD	00H
	DD	00H
	DD	FLAT:??_C@_0P@NJOAMNDE@INT_TYPE_COUNT@
	DD	01H
	DD	020H
	DD	00H
	DD	00H
	DD	FLAT:??_C@_0BI@KBCIEDKF@INT_TYPE_CPG_IDENTIFIED@
	DD	01H
	DD	01H
	DD	00H
	DD	00H
	DD	FLAT:??_C@_0BD@ILNAFFIO@INT_TYPE_CREW_ROLE@
	DD	01H
	DD	01H
	DD	00H
	DD	00H
	DD	FLAT:??_C@_0BH@LFMLFNEC@INT_TYPE_CRITICAL_TASK@
	DD	01H
	DD	01H
	DD	00H
	DD	00H
	DD	FLAT:??_C@_0BG@POHBDPLD@INT_TYPE_DAMAGE_LEVEL@
	DD	01H
	DD	020H
	DD	00H
	DD	00H
	DD	FLAT:??_C@_0N@DODKCJNG@INT_TYPE_DAY@
	DD	01H
	DD	010H
	DD	00H
	DD	00H
	DD	FLAT:??_C@_0BK@NBDOLEEL@INT_TYPE_DAY_SEGMENT_TYPE@
	DD	01H
	DD	03H
	DD	00H
	DD	00H
	DD	FLAT:??_C@_0BP@PIHBDMNK@INT_TYPE_DELAY_TASK_ASSIGNMENT@
	DD	01H
	DD	01H
	DD	00H
	DD	00H
	DD	FLAT:??_C@_0BK@MGMOOMEE@INT_TYPE_DEFAULT_3D_SHAPE@
	DD	01H
	DD	020H
	DD	00H
	DD	00H
	DD	FLAT:??_C@_0BO@KBDBEDOD@INT_TYPE_DEFAULT_ENGAGE_ENEMY@
	DD	01H
	DD	01H
	DD	00H
	DD	00H
	DD	FLAT:??_C@_0CB@DJKEODKM@INT_TYPE_DEFAULT_GROUP_LIST_TYP@
	DD	01H
	DD	020H
	DD	00H
	DD	00H
	DD	FLAT:??_C@_0CE@CEKICBPJ@INT_TYPE_DEFAULT_WEAPON_CONFIG_@
	DD	01H
	DD	0aH
	DD	00H
	DD	00H
	DD	FLAT:??_C@_0BN@BEFINDGL@INT_TYPE_DEFAULT_WEAPON_TYPE@
	DD	01H
	DD	020H
	DD	00H
	DD	00H
	DD	FLAT:??_C@_0BM@BCBCJDBO@INT_TYPE_DESTROYED_3D_SHAPE@
	DD	01H
	DD	020H
	DD	00H
	DD	00H
	DD	FLAT:??_C@_0BK@IGFCPJKL@INT_TYPE_DIFFICULTY_LEVEL@
	DD	01H
	DD	02H
	DD	00H
	DD	00H
	DD	FLAT:??_C@_0BF@HDJJJHMI@INT_TYPE_DIVISION_ID@
	DD	01H
	DD	0cH
	DD	00H
	DD	00H
	DD	FLAT:??_C@_0BB@NDKKLBDK@INT_TYPE_EJECTED@
	DD	01H
	DD	01H
	DD	00H
	DD	01H
	DD	FLAT:??_C@_0BC@FIBFGAKK@INT_TYPE_END_NODE@
	DD	01H
	DD	020H
	DD	00H
	DD	00H
	DD	FLAT:??_C@_0BG@JIAJAOMH@INT_TYPE_ENGAGE_ENEMY@
	DD	01H
	DD	01H
	DD	00H
	DD	00H
	DD	FLAT:??_C@_0BJ@DGJACMFM@INT_TYPE_ENTITY_SUB_TYPE@
	DD	01H
	DD	0aH
	DD	00H
	DD	00H
	DD	FLAT:??_C@_0BE@JFJEDPCH@INT_TYPE_EVADE_FIRE@
	DD	01H
	DD	020H
	DD	00H
	DD	00H
	DD	FLAT:??_C@_0BJ@MIOMLECC@INT_TYPE_EXPLOSIVE_POWER@
	DD	01H
	DD	04H
	DD	00H
	DD	00H
	DD	FLAT:??_C@_0BL@DLPBAJFP@INT_TYPE_EXPLOSIVE_QUALITY@
	DD	01H
	DD	04H
	DD	00H
	DD	00H
	DD	FLAT:??_C@_0BI@LBNAPDDA@INT_TYPE_EXPOSURE_LEVEL@
	DD	01H
	DD	08H
	DD	00H
	DD	00H
	DD	FLAT:??_C@_0BK@LLMKCGHK@INT_TYPE_FOLLOW_FORMATION@
	DD	01H
	DD	020H
	DD	00H
	DD	00H
	DD	FLAT:??_C@_0P@EPPLNEHN@INT_TYPE_FORCE@
	DD	00H
	DD	020H
	DD	00H
	DD	00H
	DD	FLAT:??_C@_0BI@HPEGCDIE@INT_TYPE_FORCE_ATTITUDE@
	DD	00H
	DD	08H
	DD	00H
	DD	00H
	DD	FLAT:??_C@_0BN@NIFELFAJ@INT_TYPE_FORCE_INFO_CATAGORY@
	DD	01H
	DD	05H
	DD	00H
	DD	00H
	DD	FLAT:??_C@_0BM@DNKBMCOH@INT_TYPE_FORCE_SECTOR_COUNT@
	DD	01H
	DD	010H
	DD	00H
	DD	00H
	DD	FLAT:??_C@_0BM@MBJAMKLP@INT_TYPE_FORMATION_POSITION@
	DD	01H
	DD	020H
	DD	00H
	DD	00H
	DD	FLAT:??_C@_0BN@MKIJDAEA@INT_TYPE_FORMATION_POSITIONS@
	DD	01H
	DD	020H
	DD	00H
	DD	00H
	DD	FLAT:??_C@_0BM@LHPJEMBI@INT_TYPE_FREE_LANDING_SITES@
	DD	01H
	DD	020H
	DD	00H
	DD	00H
	DD	FLAT:??_C@_0BD@JNIHAJIN@INT_TYPE_FRONTLINE@
	DD	01H
	DD	02H
	DD	00H
	DD	00H
	DD	FLAT:??_C@_0BO@DNAEDGCL@INT_TYPE_GROUND_RADAR_CLUTTER@
	DD	01H
	DD	020H
	DD	00H
	DD	00H
	DD	FLAT:??_C@_0BK@MFMDMGAD@INT_TYPE_GROUP_AMALGAMATE@
	DD	01H
	DD	020H
	DD	00H
	DD	00H
	DD	FLAT:??_C@_0BI@IPFGFFBM@INT_TYPE_GROUP_CALLSIGN@
	DD	01H
	DD	08H
	DD	00H
	DD	00H
	DD	FLAT:??_C@_0BI@FDANFNOO@INT_TYPE_GROUP_CATEGORY@
	DD	01H
	DD	020H
	DD	00H
	DD	00H
	DD	FLAT:??_C@_0CB@MJLOFLFO@INT_TYPE_GROUP_DEFAULT_FORMATIO@
	DD	01H
	DD	010H
	DD	00H
	DD	00H
	DD	FLAT:??_C@_0BJ@KMKKLNEN@INT_TYPE_GROUP_FORMATION@
	DD	01H
	DD	010H
	DD	00H
	DD	00H
	DD	FLAT:??_C@_0BG@MBCGCHOJ@INT_TYPE_GROUP_LEADER@
	DD	01H
	DD	01H
	DD	00H
	DD	00H
	DD	FLAT:??_C@_0BJ@GLDFIEHP@INT_TYPE_GROUP_LIST_TYPE@
	DD	01H
	DD	06H
	DD	00H
	DD	00H
	DD	FLAT:??_C@_0BJ@NHGLEIH@INT_TYPE_GROUP_MEMBER_ID@
	DD	01H
	DD	020H
	DD	00H
	DD	00H
	DD	FLAT:??_C@_0BN@NHICOJIA@INT_TYPE_GROUP_MEMBER_NUMBER@
	DD	01H
	DD	05H
	DD	00H
	DD	00H
	DD	FLAT:??_C@_0BM@NKALAGLG@INT_TYPE_GROUP_MEMBER_STATE@
	DD	01H
	DD	020H
	DD	00H
	DD	00H
	DD	FLAT:??_C@_0BE@MDDGMONN@INT_TYPE_GROUP_MODE@
	DD	01H
	DD	02H
	DD	00H
	DD	00H
	DD	FLAT:??_C@_0BN@MAGCAEEO@INT_TYPE_GUIDE_CRITERIA_TYPE@
	DD	01H
	DD	03H
	DD	00H
	DD	00H
	DD	FLAT:??_C@_0BN@HMAJBIBI@INT_TYPE_GUIDE_POSITION_TYPE@
	DD	01H
	DD	03H
	DD	00H
	DD	00H
	DD	FLAT:??_C@_0CB@FMPDOHMI@INT_TYPE_GUNSHIP_RADAR_LOS_CLEA@
	DD	01H
	DD	01H
	DD	00H
	DD	00H
	DD	FLAT:??_C@_0BG@MDMMBMNO@INT_TYPE_GUNSHIP_TYPE@
	DD	01H
	DD	05H
	DD	00H
	DD	00H
	DD	FLAT:??_C@_0BP@KHGNMCLJ@INT_TYPE_HAND_OFF_TARGET_COUNT@
	DD	01H
	DD	08H
	DD	00H
	DD	00H
	DD	FLAT:??_C@_0CA@MCCAMKLF@INT_TYPE_HARD_DAMAGE_CAPABILITY@
	DD	01H
	DD	020H
	DD	00H
	DD	00H
	DD	FLAT:??_C@_0CB@MBIBKCAB@INT_TYPE_HELICOPTER_DAMAGE_FLAG@
	DD	01H
	DD	020H
	DD	00H
	DD	00H
	DD	FLAT:??_C@_0CB@GOBKFGMA@INT_TYPE_HELICOPTER_DAMAGE_LEVE@
	DD	01H
	DD	02H
	DD	00H
	DD	00H
	DD	FLAT:??_C@_0BO@GNAHNBMP@INT_TYPE_HIDDEN_BY_FOG_OF_WAR@
	DD	01H
	DD	01H
	DD	00H
	DD	00H
	DD	FLAT:??_C@_0BL@BENAEKCM@INT_TYPE_IDENTIFY_AIRCRAFT@
	DD	01H
	DD	01H
	DD	00H
	DD	00H
	DD	FLAT:??_C@_0CA@COCHHNDA@INT_TYPE_IDENTIFY_ANTI_AIRCRAFT@
	DD	01H
	DD	01H
	DD	00H
	DD	00H
	DD	FLAT:??_C@_0BI@OHGDOJCA@INT_TYPE_IDENTIFY_CARGO@
	DD	01H
	DD	01H
	DD	00H
	DD	00H
	DD	FLAT:??_C@_0BI@IBDNOJD@INT_TYPE_IDENTIFY_FIXED@
	DD	01H
	DD	01H
	DD	00H
	DD	00H
	DD	FLAT:??_C@_0BN@NCFPMDAN@INT_TYPE_IDENTIFY_FIXED_WING@
	DD	01H
	DD	01H
	DD	00H
	DD	00H
	DD	FLAT:??_C@_0BN@NBFEGIAF@INT_TYPE_IDENTIFY_HELICOPTER@
	DD	01H
	DD	01H
	DD	00H
	DD	00H
	DD	FLAT:??_C@_0BJ@FOMLLMKE@INT_TYPE_IDENTIFY_MOBILE@
	DD	01H
	DD	01H
	DD	00H
	DD	00H
	DD	FLAT:??_C@_0BJ@KJCEJOJN@INT_TYPE_IDENTIFY_ROUTED@
	DD	01H
	DD	01H
	DD	00H
	DD	00H
	DD	FLAT:??_C@_0BP@OILKCKHP@INT_TYPE_IDENTIFY_SHIP_VEHICLE@
	DD	01H
	DD	01H
	DD	00H
	DD	00H
	DD	FLAT:??_C@_0BK@CPGDGNIB@INT_TYPE_IDENTIFY_VEHICLE@
	DD	01H
	DD	01H
	DD	00H
	DD	00H
	DD	FLAT:??_C@_0BL@MMHNGEMJ@INT_TYPE_IDENTIFY_WAYPOINT@
	DD	01H
	DD	01H
	DD	00H
	DD	00H
	DD	FLAT:??_C@_0BJ@LHPNFJBF@INT_TYPE_IDENTIFY_WEAPON@
	DD	01H
	DD	01H
	DD	00H
	DD	00H
	DD	FLAT:??_C@_0BD@OHAGEOLD@INT_TYPE_ID_NUMBER@
	DD	01H
	DD	020H
	DD	00H
	DD	00H
	DD	FLAT:??_C@_0CG@NHKODKBL@INT_TYPE_ID_NUMBER_SIGNIFICANT_@
	DD	01H
	DD	020H
	DD	00H
	DD	00H
	DD	FLAT:??_C@_0BH@BKDHCIBB@INT_TYPE_INFINITE_FUEL@
	DD	01H
	DD	01H
	DD	00H
	DD	00H
	DD	FLAT:??_C@_0BM@LBAOPFDM@INT_TYPE_INFINITE_GENERATOR@
	DD	01H
	DD	01H
	DD	00H
	DD	00H
	DD	FLAT:??_C@_0BK@DJKPLBCA@INT_TYPE_INFINITE_WEAPONS@
	DD	01H
	DD	01H
	DD	00H
	DD	00H
	DD	FLAT:??_C@_0BN@KGAHCFBH@INT_TYPE_INFRA_RED_JAMMER_ON@
	DD	01H
	DD	01H
	DD	00H
	DD	00H
	DD	FLAT:??_C@_0BO@NEMECMDA@INT_TYPE_INITIAL_DAMAGE_LEVEL@
	DD	01H
	DD	020H
	DD	00H
	DD	00H
	DD	FLAT:??_C@_0BH@GDNDIMIL@INT_TYPE_INSIDE_HANGAR@
	DD	01H
	DD	01H
	DD	00H
	DD	00H
	DD	FLAT:??_C@_0CG@ENEDAOJ@INT_TYPE_INVULNERABLE_FROM_COLL@
	DD	01H
	DD	01H
	DD	00H
	DD	00H
	DD	FLAT:??_C@_0CD@ELKJJPHG@INT_TYPE_INVULNERABLE_FROM_WEAP@
	DD	01H
	DD	01H
	DD	00H
	DD	00H
	DD	FLAT:??_C@_0BA@LKIPNGJ@INT_TYPE_IN_USE@
	DD	01H
	DD	01H
	DD	00H
	DD	00H
	DD	FLAT:??_C@_0BH@BFODCGJO@INT_TYPE_KEYSITE_COUNT@
	DD	01H
	DD	08H
	DD	00H
	DD	00H
	DD	FLAT:??_C@_0BE@PMMAGDGF@INT_TYPE_KEYSITE_ID@
	DD	01H
	DD	08H
	DD	00H
	DD	00H
	DD	FLAT:??_C@_0BO@FODANLMN@INT_TYPE_KEYSITE_USABLE_STATE@
	DD	01H
	DD	03H
	DD	00H
	DD	00H
	DD	FLAT:??_C@_0BK@NFJFFAPC@INT_TYPE_KILL_NEXT_UPDATE@
	DD	01H
	DD	02H
	DD	00H
	DD	00H
	DD	FLAT:??_C@_0P@NLCHOAEF@INT_TYPE_KILLS@
	DD	00H
	DD	0cH
	DD	00H
	DD	00H
	DD	FLAT:??_C@_0BA@BMFDAAFA@INT_TYPE_LANDED@
	DD	01H
	DD	01H
	DD	00H
	DD	00H
	DD	FLAT:??_C@_0BF@HCGDOACJ@INT_TYPE_LANDED_LOCK@
	DD	01H
	DD	020H
	DD	00H
	DD	00H
	DD	FLAT:??_C@_0BL@GAIJPMMN@INT_TYPE_LANDED_ON_CARRIER@
	DD	01H
	DD	01H
	DD	00H
	DD	00H
	DD	FLAT:??_C@_0BG@PEKPLENC@INT_TYPE_LANDING_LOCK@
	DD	01H
	DD	020H
	DD	00H
	DD	00H
	DD	FLAT:??_C@_0BH@LBKICFHE@INT_TYPE_LANDING_TYPES@
	DD	01H
	DD	04H
	DD	00H
	DD	00H
	DD	FLAT:??_C@_0BC@DHAKFMNG@INT_TYPE_LASER_ON@
	DD	01H
	DD	01H
	DD	00H
	DD	00H
	DD	FLAT:??_C@_0BA@CECGGLOD@INT_TYPE_LENGTH@
	DD	01H
	DD	010H
	DD	00H
	DD	00H
	DD	FLAT:??_C@_0BD@GBPBNAIL@INT_TYPE_LIGHTS_ON@
	DD	01H
	DD	01H
	DD	00H
	DD	00H
	DD	FLAT:??_C@_0BM@NLINKOFB@INT_TYPE_LOCAL_EFFECT_COUNT@
	DD	01H
	DD	04H
	DD	00H
	DD	00H
	DD	FLAT:??_C@_0BK@EBFHCJIG@INT_TYPE_LOCAL_ONLY_GROUP@
	DD	01H
	DD	01H
	DD	00H
	DD	00H
	DD	FLAT:??_C@_0BN@MGMMDOL@INT_TYPE_LOCAL_WEATHER_MODEL@
	DD	01H
	DD	01H
	DD	00H
	DD	00H
	DD	FLAT:??_C@_0BO@GAOHPEKE@INT_TYPE_LOCK_ON_AFTER_LAUNCH@
	DD	01H
	DD	01H
	DD	00H
	DD	00H
	DD	FLAT:??_C@_0BA@HGGENJKD@INT_TYPE_LOSSES@
	DD	01H
	DD	0aH
	DD	00H
	DD	00H
	DD	FLAT:??_C@_0BH@JKBILNPO@INT_TYPE_LOS_TO_TARGET@
	DD	01H
	DD	01H
	DD	00H
	DD	00H
	DD	FLAT:??_C@_0BM@BHDBGKLH@INT_TYPE_MAIN_ROTOR_DAMAGED@
	DD	01H
	DD	01H
	DD	00H
	DD	00H
	DD	FLAT:??_C@_0BC@LOCLDNEB@INT_TYPE_MAP_ICON@
	DD	01H
	DD	020H
	DD	00H
	DD	00H
	DD	FLAT:??_C@_0BO@ELNOBGDH@INT_TYPE_MAXIMUM_MEMBER_COUNT@
	DD	01H
	DD	020H
	DD	00H
	DD	00H
	DD	FLAT:??_C@_0BI@LCHJNFIL@INT_TYPE_MAXIMUM_VOLUME@
	DD	01H
	DD	020H
	DD	00H
	DD	00H
	DD	FLAT:??_C@_0CA@BGBCLAML@INT_TYPE_MAX_WEAPON_CONFIG_TYPE@
	DD	01H
	DD	0aH
	DD	00H
	DD	00H
	DD	FLAT:??_C@_0BG@OOEANHLB@INT_TYPE_MEMBER_COUNT@
	DD	01H
	DD	06H
	DD	00H
	DD	00H
	DD	FLAT:??_C@_0BL@EBJOLAME@INT_TYPE_MESSAGE_TEXT_TYPE@
	DD	01H
	DD	04H
	DD	00H
	DD	00H
	DD	FLAT:??_C@_0BN@PEMKFENG@INT_TYPE_META_EXPLOSION_TYPE@
	DD	01H
	DD	06H
	DD	00H
	DD	00H
	DD	FLAT:??_C@_0BO@IFJFMIC@INT_TYPE_META_SMOKE_LIST_TYPE@
	DD	01H
	DD	06H
	DD	00H
	DD	00H
	DD	FLAT:??_C@_0BM@NAFCMKDO@INT_TYPE_MINIMUM_IDLE_COUNT@
	DD	01H
	DD	020H
	DD	00H
	DD	00H
	DD	FLAT:??_C@_0BO@FIJLPAJM@INT_TYPE_MINIMUM_MEMBER_COUNT@
	DD	01H
	DD	020H
	DD	00H
	DD	00H
	DD	FLAT:??_C@_0CA@BCIIIBOB@INT_TYPE_MIN_WEAPON_CONFIG_TYPE@
	DD	01H
	DD	0aH
	DD	00H
	DD	00H
	DD	FLAT:??_C@_0CH@HANHHPFM@INT_TYPE_MOBILE_FOLLOW_WAYPOINT@
	DD	01H
	DD	020H
	DD	00H
	DD	00H
	DD	FLAT:??_C@_0BH@MHBHHPPM@INT_TYPE_MOBILE_MOVING@
	DD	01H
	DD	01H
	DD	00H
	DD	00H
	DD	FLAT:??_C@_0BE@BPCNBHMB@INT_TYPE_MOVED_TYPE@
	DD	00H
	DD	01H
	DD	00H
	DD	00H
	DD	FLAT:??_C@_0BH@GCAHFCLC@INT_TYPE_MOVEMENT_TYPE@
	DD	00H
	DD	03H
	DD	00H
	DD	00H
	DD	FLAT:??_C@_0BL@HMPHIOIH@INT_TYPE_MULTIPLAYER_GROUP@
	DD	01H
	DD	01H
	DD	00H
	DD	00H
	DD	FLAT:??_C@_0BJ@KOFFCOGA@INT_TYPE_OBJECT_3D_SHAPE@
	DD	01H
	DD	0cH
	DD	00H
	DD	00H
	DD	FLAT:??_C@_0CG@CLGHGPGM@INT_TYPE_OBJECT_DRAWN_ONCE_THIS@
	DD	01H
	DD	01H
	DD	00H
	DD	00H
	DD	FLAT:??_C@_0BG@FAKIGPED@INT_TYPE_OBJECT_INDEX@
	DD	00H
	DD	0cH
	DD	00H
	DD	00H
	DD	FLAT:??_C@_0BI@PKLBMGLE@INT_TYPE_OBJECT_SCALING@
	DD	00H
	DD	020H
	DD	00H
	DD	00H
	DD	FLAT:??_C@_0BO@LOFFCOHL@INT_TYPE_OFFENSIVE_CAPABILITY@
	DD	01H
	DD	01H
	DD	00H
	DD	00H
	DD	FLAT:??_C@_0BL@HLDJFNKL@INT_TYPE_OPERATIONAL_STATE@
	DD	01H
	DD	05H
	DD	00H
	DD	00H
	DD	FLAT:??_C@_0BI@DGPBGLEA@INT_TYPE_PARTICLE_COUNT@
	DD	01H
	DD	06H
	DD	00H
	DD	00H
	DD	FLAT:??_C@_0BJ@BEALBFMH@INT_TYPE_PERFORM_DEBRIEF@
	DD	01H
	DD	01H
	DD	00H
	DD	00H
	DD	FLAT:??_C@_0BE@CKHHIPIH@INT_TYPE_PILOT_RANK@
	DD	01H
	DD	03H
	DD	00H
	DD	00H
	DD	FLAT:??_C@_0BK@LLCODJKA@INT_TYPE_PLANNER_MOVEABLE@
	DD	01H
	DD	01H
	DD	00H
	DD	00H
	DD	FLAT:??_C@_0BA@DMAIEIHA@INT_TYPE_PLAYER@
	DD	01H
	DD	020H
	DD	00H
	DD	00H
	DD	FLAT:??_C@_0BN@LEFBMCCN@INT_TYPE_PLAYER_CONTROLLABLE@
	DD	01H
	DD	02H
	DD	00H
	DD	00H
	DD	FLAT:??_C@_0BF@LEAGFCAM@INT_TYPE_PLAYER_TASK@
	DD	01H
	DD	01H
	DD	00H
	DD	00H
	DD	FLAT:??_C@_0BG@KIDIGGAJ@INT_TYPE_POINTS_VALUE@
	DD	01H
	DD	020H
	DD	00H
	DD	00H
	DD	FLAT:??_C@_0BH@MPDIHIOP@INT_TYPE_POSITION_HOLD@
	DD	01H
	DD	01H
	DD	00H
	DD	00H
	DD	FLAT:??_C@_0BH@BDHNGBHK@INT_TYPE_POSITION_TYPE@
	DD	01H
	DD	02H
	DD	00H
	DD	00H
	DD	FLAT:??_C@_0CG@FAHNHPAI@INT_TYPE_POTENTIAL_CAMPAIGN_OBJ@
	DD	01H
	DD	01H
	DD	00H
	DD	00H
	DD	FLAT:??_C@_0BG@HPPOMDFJ@INT_TYPE_PRIMARY_TASK@
	DD	01H
	DD	020H
	DD	00H
	DD	00H
	DD	FLAT:??_C@_0BF@CFGBPJEF@INT_TYPE_PROTOTYPE_1@
	DD	01H
	DD	020H
	DD	00H
	DD	00H
	DD	FLAT:??_C@_0BF@OEMKKIG@INT_TYPE_PROTOTYPE_2@
	DD	01H
	DD	020H
	DD	00H
	DD	00H
	DD	FLAT:??_C@_0BF@BHFHJLMH@INT_TYPE_PROTOTYPE_3@
	DD	01H
	DD	020H
	DD	00H
	DD	00H
	DD	FLAT:??_C@_0BF@FIBGANAA@INT_TYPE_PROTOTYPE_4@
	DD	01H
	DD	020H
	DD	00H
	DD	00H
	DD	FLAT:??_C@_0BJ@KELAGFKD@INT_TYPE_RADAR_JAMMER_ON@
	DD	01H
	DD	01H
	DD	00H
	DD	00H
	DD	FLAT:??_C@_0BC@GKOACFGD@INT_TYPE_RADAR_ON@
	DD	01H
	DD	01H
	DD	00H
	DD	00H
	DD	FLAT:??_C@_0BM@KMBACLON@INT_TYPE_RADIO_MESSAGE_TYPE@
	DD	01H
	DD	08H
	DD	00H
	DD	00H
	DD	FLAT:??_C@_0BN@EIKIADLB@INT_TYPE_RADIO_MESSAGE_VALUE@
	DD	01H
	DD	020H
	DD	00H
	DD	00H
	DD	FLAT:??_C@_0BC@HOBCKNGF@INT_TYPE_REARMING@
	DD	01H
	DD	01H
	DD	00H
	DD	00H
	DD	FLAT:??_C@_0CB@LPNKCFCO@INT_TYPE_REGEN_CREATION_SUB_TYP@
	DD	01H
	DD	0aH
	DD	00H
	DD	00H
	DD	FLAT:??_C@_0BM@HONHDLKK@INT_TYPE_REGISTRY_LIST_TYPE@
	DD	01H
	DD	020H
	DD	00H
	DD	00H
	DD	FLAT:??_C@_0CA@DKDODGJG@INT_TYPE_RESERVED_LANDING_SITES@
	DD	01H
	DD	020H
	DD	00H
	DD	00H
	DD	FLAT:??_C@_0BJ@DOIIHGJG@INT_TYPE_RESUPPLY_SOURCE@
	DD	01H
	DD	03H
	DD	00H
	DD	00H
	DD	FLAT:??_C@_0BB@EFKGCEPB@INT_TYPE_ROTATED@
	DD	00H
	DD	01H
	DD	00H
	DD	00H
	DD	FLAT:??_C@_0BJ@CGKCDBD@INT_TYPE_ROUTE_CHECK_SUM@
	DD	01H
	DD	08H
	DD	00H
	DD	00H
	DD	FLAT:??_C@_0BG@ICFJCFNO@INT_TYPE_ROUTE_LENGTH@
	DD	01H
	DD	010H
	DD	00H
	DD	00H
	DD	FLAT:??_C@_0BE@EJMFKNME@INT_TYPE_ROUTE_NODE@
	DD	01H
	DD	0aH
	DD	00H
	DD	00H
	DD	FLAT:??_C@_0BN@DBEDMPNJ@INT_TYPE_RULES_OF_ENGAGEMENT@
	DD	01H
	DD	02H
	DD	00H
	DD	00H
	DD	FLAT:??_C@_0CC@KJFMAFNO@INT_TYPE_SCOUT_WEAPON_CONFIG_TY@
	DD	01H
	DD	020H
	DD	00H
	DD	00H
	DD	FLAT:??_C@_0BF@CMNBPJFP@INT_TYPE_SECTOR_SIDE@
	DD	01H
	DD	020H
	DD	00H
	DD	00H
	DD	FLAT:??_C@_0BJ@POFHNFDG@INT_TYPE_SELECTED_WEAPON@
	DD	01H
	DD	07H
	DD	00H
	DD	01H
	DD	FLAT:??_C@_0CG@BEDKFHGL@INT_TYPE_SELECTED_WEAPON_SYSTEM@
	DD	01H
	DD	01H
	DD	00H
	DD	00H
	DD	FLAT:??_C@_0BK@LCLJDIGI@INT_TYPE_SESSION_COMPLETE@
	DD	01H
	DD	02H
	DD	00H
	DD	00H
	DD	FLAT:??_C@_0O@OBAKKFNG@INT_TYPE_SIDE@
	DD	01H
	DD	02H
	DD	00H
	DD	00H
	DD	FLAT:??_C@_0BJ@NIOPFIIO@INT_TYPE_SKIP_NIGHT_TIME@
	DD	01H
	DD	01H
	DD	00H
	DD	00H
	DD	FLAT:??_C@_0BE@FEMGMFJN@INT_TYPE_SMOKE_TYPE@
	DD	01H
	DD	06H
	DD	00H
	DD	00H
	DD	FLAT:??_C@_0CA@MHGHPHBA@INT_TYPE_SOFT_DAMAGE_CAPABILITY@
	DD	01H
	DD	020H
	DD	00H
	DD	00H
	DD	FLAT:??_C@_0BD@FMOJPDJC@INT_TYPE_SOLO_TASK@
	DD	01H
	DD	020H
	DD	00H
	DD	00H
	DD	FLAT:??_C@_0BH@HAHMDHJI@INT_TYPE_SOUND_CHANNEL@
	DD	01H
	DD	04H
	DD	00H
	DD	00H
	DD	FLAT:??_C@_0BM@KOOIBMJM@INT_TYPE_SOUND_EFFECT_INDEX@
	DD	01H
	DD	010H
	DD	00H
	DD	00H
	DD	FLAT:??_C@_0BO@MIDMJDKC@INT_TYPE_SOUND_EFFECT_LOOPING@
	DD	01H
	DD	01H
	DD	00H
	DD	00H
	DD	FLAT:??_C@_0BO@KHJLDGNN@INT_TYPE_SOUND_EFFECT_PANNING@
	DD	01H
	DD	01H
	DD	00H
	DD	00H
	DD	FLAT:??_C@_0BL@PLDBKJL@INT_TYPE_SOUND_EFFECT_RATE@
	DD	00H
	DD	010H
	DD	00H
	DD	00H
	DD	FLAT:??_C@_0CF@GAAIIILL@INT_TYPE_SOUND_EFFECT_SEQUENCE_@
	DD	01H
	DD	04H
	DD	00H
	DD	00H
	DD	FLAT:??_C@_0BK@KPCEFEMC@INT_TYPE_SOUND_LIST_VALID@
	DD	01H
	DD	020H
	DD	00H
	DD	00H
	DD	FLAT:??_C@_0BI@EELPKHI@INT_TYPE_SOUND_LOCALITY@
	DD	01H
	DD	02H
	DD	00H
	DD	00H
	DD	FLAT:??_C@_0BJ@BJHLBOAO@INT_TYPE_SPEECH_CATEGORY@
	DD	01H
	DD	05H
	DD	00H
	DD	00H
	DD	FLAT:??_C@_0BG@CGNKNDKD@INT_TYPE_SPEECH_INDEX@
	DD	01H
	DD	08H
	DD	00H
	DD	00H
	DD	FLAT:??_C@_0BE@KBOPIFJL@INT_TYPE_START_NODE@
	DD	01H
	DD	020H
	DD	00H
	DD	00H
	DD	FLAT:??_C@_0BC@PGLKDAOO@INT_TYPE_STRATEGY@
	DD	00H
	DD	020H
	DD	00H
	DD	00H
	DD	FLAT:??_C@_0BI@LHAGPIME@INT_TYPE_STRATEGY_LEVEL@
	DD	00H
	DD	020H
	DD	00H
	DD	00H
	DD	FLAT:??_C@_0BK@KLEDDEGK@INT_TYPE_SUB_OBJECT_DEPTH@
	DD	01H
	DD	020H
	DD	00H
	DD	00H
	DD	FLAT:??_C@_0BJ@MDPIKGDI@INT_TYPE_SUB_OBJECT_TYPE@
	DD	01H
	DD	020H
	DD	00H
	DD	00H
	DD	FLAT:??_C@_0BM@JMGMKHEI@INT_TYPE_SUB_WAYPOINT_COUNT@
	DD	01H
	DD	0aH
	DD	00H
	DD	00H
	DD	FLAT:??_C@_0BK@KBKJDPDE@INT_TYPE_SUPPRESS_AI_FIRE@
	DD	01H
	DD	01H
	DD	00H
	DD	00H
	DD	FLAT:??_C@_0BJ@MHJGDBHA@INT_TYPE_TACVIEW_LOGGING@
	DD	00H
	DD	01H
	DD	00H
	DD	00H
	DD	FLAT:??_C@_0BM@FNJAOJAD@INT_TYPE_TAIL_ROTOR_DAMAGED@
	DD	01H
	DD	01H
	DD	00H
	DD	00H
	DD	FLAT:??_C@_0BG@ICLGGPJC@INT_TYPE_TAKEOFF_LOCK@
	DD	01H
	DD	020H
	DD	00H
	DD	00H
	DD	FLAT:??_C@_0BO@OKIFHMKG@INT_TYPE_TARGET_PRIORITY_TYPE@
	DD	01H
	DD	020H
	DD	00H
	DD	00H
	DD	FLAT:??_C@_0BM@BKFKGOCK@INT_TYPE_TARGET_SYMBOL_TYPE@
	DD	01H
	DD	020H
	DD	00H
	DD	00H
	DD	FLAT:??_C@_0BF@LOLHFOOB@INT_TYPE_TARGET_TYPE@
	DD	01H
	DD	020H
	DD	00H
	DD	00H
	DD	FLAT:??_C@_0BN@FDEIHKCG@INT_TYPE_TARGET_WEATHER_MODE@
	DD	01H
	DD	03H
	DD	00H
	DD	00H
	DD	FLAT:??_C@_0BH@GDNLGBE@INT_TYPE_TASK_CATEGORY@
	DD	01H
	DD	020H
	DD	00H
	DD	00H
	DD	FLAT:??_C@_0BI@DJMMJL@INT_TYPE_TASK_COMPLETED@
	DD	01H
	DD	03H
	DD	00H
	DD	00H
	DD	FLAT:??_C@_0BJ@MICPFPFI@INT_TYPE_TASK_DIFFICULTY@
	DD	01H
	DD	04H
	DD	00H
	DD	00H
	DD	FLAT:??_C@_0BJ@EJPJAEJG@INT_TYPE_TASK_GENERATION@
	DD	01H
	DD	020H
	DD	00H
	DD	00H
	DD	FLAT:??_C@_0BB@FKFIAAFH@INT_TYPE_TASK_ID@
	DD	01H
	DD	0cH
	DD	00H
	DD	00H
	DD	FLAT:??_C@_0BF@LJFLGKMB@INT_TYPE_TASK_LEADER@
	DD	01H
	DD	01H
	DD	00H
	DD	00H
	DD	FLAT:??_C@_0CF@HNLOGCJL@INT_TYPE_TASK_OBJECTIVE_PREVIEW@
	DD	01H
	DD	020H
	DD	00H
	DD	00H
	DD	FLAT:??_C@_0CG@NFLCCPFK@INT_TYPE_TASK_PASS_PERCENTAGE_P@
	DD	01H
	DD	020H
	DD	00H
	DD	00H
	DD	FLAT:??_C@_0CG@EKMIMMPA@INT_TYPE_TASK_PASS_PERCENTAGE_S@
	DD	01H
	DD	020H
	DD	00H
	DD	00H
	DD	FLAT:??_C@_0BL@NKKEKGAL@INT_TYPE_TASK_ROUTE_SEARCH@
	DD	01H
	DD	01H
	DD	00H
	DD	00H
	DD	FLAT:??_C@_0BE@DNGPBFLB@INT_TYPE_TASK_SCORE@
	DD	01H
	DD	010H
	DD	00H
	DD	00H
	DD	FLAT:??_C@_0BE@LPNFFKC@INT_TYPE_TASK_STATE@
	DD	01H
	DD	02H
	DD	00H
	DD	00H
	DD	FLAT:??_C@_0BL@DFGNEELF@INT_TYPE_TASK_TARGET_CLASS@
	DD	01H
	DD	02H
	DD	00H
	DD	00H
	DD	FLAT:??_C@_0BM@OGIAIKDA@INT_TYPE_TASK_TARGET_SOURCE@
	DD	01H
	DD	04H
	DD	00H
	DD	00H
	DD	FLAT:??_C@_0BK@JOPFNPMJ@INT_TYPE_TASK_TARGET_TYPE@
	DD	01H
	DD	020H
	DD	00H
	DD	00H
	DD	FLAT:??_C@_0BJ@IOHIIMIB@INT_TYPE_TASK_TERMINATED@
	DD	01H
	DD	04H
	DD	00H
	DD	00H
	DD	FLAT:??_C@_0BN@BLLJPHAP@INT_TYPE_TERRAIN_FOLLOW_MODE@
	DD	01H
	DD	020H
	DD	00H
	DD	00H
	DD	FLAT:??_C@_0BF@GPEGEGBI@INT_TYPE_THREAT_TYPE@
	DD	01H
	DD	020H
	DD	00H
	DD	00H
	DD	FLAT:??_C@_0P@IHNBDNKA@INT_TYPE_TIMER@
	DD	01H
	DD	020H
	DD	00H
	DD	00H
	DD	FLAT:??_C@_0BN@PJLONLEL@INT_TYPE_TOTAL_LANDING_SITES@
	DD	01H
	DD	020H
	DD	00H
	DD	00H
	DD	FLAT:??_C@_0BN@BJHKEEAB@INT_TYPE_TRACK_ENTITY_ON_MAP@
	DD	01H
	DD	020H
	DD	00H
	DD	00H
	DD	FLAT:??_C@_0BD@ODHJPJPA@INT_TYPE_UNIQUE_ID@
	DD	00H
	DD	020H
	DD	00H
	DD	00H
	DD	FLAT:??_C@_0BB@NNCDMDFE@INT_TYPE_UPDATED@
	DD	01H
	DD	020H
	DD	00H
	DD	00H
	DD	FLAT:??_C@_0P@FHFHPMLM@INT_TYPE_VALID@
	DD	01H
	DD	01H
	DD	00H
	DD	00H
	DD	FLAT:??_C@_0BN@IMLDJLL@INT_TYPE_VALID_GUIDE_MEMBERS@
	DD	01H
	DD	020H
	DD	00H
	DD	00H
	DD	FLAT:??_C@_0BM@GPOJGDAB@INT_TYPE_VALID_SOUND_EFFECT@
	DD	01H
	DD	01H
	DD	00H
	DD	00H
	DD	FLAT:??_C@_0P@FLHAJHOJ@INT_TYPE_VALUE@
	DD	00H
	DD	020H
	DD	00H
	DD	00H
	DD	FLAT:??_C@_0BH@FHCPAIJO@INT_TYPE_VEHICLE_GROUP@
	DD	01H
	DD	020H
	DD	00H
	DD	00H
	DD	FLAT:??_C@_0CD@GBNOANDF@INT_TYPE_VERBOSE_OPERATIONAL_ST@
	DD	01H
	DD	06H
	DD	00H
	DD	00H
	DD	FLAT:??_C@_0BI@FJKJDOBA@INT_TYPE_VERSION_NUMBER@
	DD	01H
	DD	010H
	DD	00H
	DD	00H
	DD	FLAT:??_C@_0BH@PKJJLPME@INT_TYPE_VIEW_CATEGORY@
	DD	01H
	DD	020H
	DD	00H
	DD	00H
	DD	FLAT:??_C@_0BD@ILMMGEHJ@INT_TYPE_VIEW_TYPE@
	DD	01H
	DD	020H
	DD	00H
	DD	00H
	DD	FLAT:??_C@_0BC@PDJAIAGK@INT_TYPE_VIEWABLE@
	DD	01H
	DD	020H
	DD	00H
	DD	00H
	DD	FLAT:??_C@_0BJ@PKOAOCIL@INT_TYPE_VIEWABLE_WEAPON@
	DD	01H
	DD	020H
	DD	00H
	DD	00H
	DD	FLAT:??_C@_0BG@BHOBIACF@INT_TYPE_VISIBLE_TASK@
	DD	01H
	DD	020H
	DD	00H
	DD	00H
	DD	FLAT:??_C@_0BL@PKLLCDAJ@INT_TYPE_WAIT_FOR_END_TASK@
	DD	01H
	DD	020H
	DD	00H
	DD	00H
	DD	FLAT:??_C@_0CB@CBIBNOPD@INT_TYPE_WARHEAD_EFFECTIVE_CLAS@
	DD	01H
	DD	020H
	DD	00H
	DD	00H
	DD	FLAT:??_C@_0BI@CIEPKDDP@INT_TYPE_WAYPOINT_COUNT@
	DD	01H
	DD	08H
	DD	00H
	DD	00H
	DD	FLAT:??_C@_0BM@IBIOGNNM@INT_TYPE_WAYPOINT_FORMATION@
	DD	01H
	DD	010H
	DD	00H
	DD	00H
	DD	FLAT:??_C@_0BN@KHAAKDGO@INT_TYPE_WAYPOINT_GUIDE_TYPE@
	DD	01H
	DD	020H
	DD	00H
	DD	00H
	DD	FLAT:??_C@_0BN@EHGAFEPK@INT_TYPE_WAYPOINT_NEXT_INDEX@
	DD	01H
	DD	0aH
	DD	00H
	DD	00H
	DD	FLAT:??_C@_0BN@EPLJBMCO@INT_TYPE_WAYPOINT_THIS_INDEX@
	DD	01H
	DD	0aH
	DD	00H
	DD	00H
	DD	FLAT:??_C@_0CJ@DECJLDLA@INT_TYPE_WEAPON_AND_TARGET_VECT@
	DD	01H
	DD	01H
	DD	00H
	DD	00H
	DD	FLAT:??_C@_0BL@FHKGNNGH@INT_TYPE_WEAPON_BURST_SIZE@
	DD	01H
	DD	0cH
	DD	00H
	DD	00H
	DD	FLAT:??_C@_0BO@PJKJDOBC@INT_TYPE_WEAPON_CAMERA_PRIMED@
	DD	01H
	DD	020H
	DD	00H
	DD	00H
	DD	FLAT:??_C@_0BM@GNDPEHA@INT_TYPE_WEAPON_CONFIG_TYPE@
	DD	01H
	DD	0aH
	DD	00H
	DD	00H
	DD	FLAT:??_C@_0BL@IGGLILAD@INT_TYPE_WEAPON_DECOY_TYPE@
	DD	01H
	DD	020H
	DD	00H
	DD	00H
	DD	FLAT:??_C@_0BO@KDICCLDC@INT_TYPE_WEAPON_GUIDANCE_TYPE@
	DD	01H
	DD	020H
	DD	00H
	DD	00H
	DD	FLAT:??_C@_0BK@JGACFNFA@INT_TYPE_WEAPON_KILL_CODE@
	DD	01H
	DD	03H
	DD	00H
	DD	00H
	DD	FLAT:??_C@_0BO@MFKHJBFH@INT_TYPE_WEAPON_MISSILE_PHASE@
	DD	01H
	DD	03H
	DD	00H
	DD	00H
	DD	FLAT:??_C@_0BK@FJPNAPGC@INT_TYPE_WEAPON_ON_GROUND@
	DD	01H
	DD	01H
	DD	00H
	DD	00H
	DD	FLAT:??_C@_0CA@LHELNGPN@INT_TYPE_WEAPON_PACKAGE_DAMAGED@
	DD	01H
	DD	01H
	DD	00H
	DD	00H
	DD	FLAT:??_C@_0CG@OGOAEOLM@INT_TYPE_WEAPON_PACKAGE_HEADING@
	DD	01H
	DD	05H
	DD	00H
	DD	00H
	DD	FLAT:??_C@_0BP@KPLOKDCC@INT_TYPE_WEAPON_PACKAGE_NUMBER@
	DD	01H
	DD	0cH
	DD	00H
	DD	00H
	DD	FLAT:??_C@_0CB@IPKKAGMM@INT_TYPE_WEAPON_SMOKE_TRAIL_TYP@
	DD	01H
	DD	020H
	DD	00H
	DD	00H
	DD	FLAT:??_C@_0BN@MHLLFOIF@INT_TYPE_WEAPON_SYSTEM_READY@
	DD	01H
	DD	01H
	DD	00H
	DD	00H
	DD	FLAT:??_C@_0BN@EKJHEIKB@INT_TYPE_WEAPON_WARHEAD_TYPE@
	DD	01H
	DD	020H
	DD	00H
	DD	00H
	DD	FLAT:??_C@_0BG@IABFHPOF@INT_TYPE_WEAPONS_HOLD@
	DD	01H
	DD	01H
	DD	00H
	DD	00H
	DD	FLAT:??_C@_0BM@KDOCPLMH@INT_TYPE_WEATHER_INCREASING@
	DD	01H
	DD	01H
	DD	00H
	DD	00H
	DD	FLAT:??_C@_0BG@MJGKEKDN@INT_TYPE_WEATHER_MODE@
	DD	01H
	DD	03H
	DD	00H
	DD	00H
	DD	FLAT:??_C@_0BJ@LEHOEFFL@INT_TYPE_WIND_INCREASING@
	DD	01H
	DD	01H
	DD	00H
	DD	00H
	DD	FLAT:??_C@_0BC@MDOBAINM@INT_TYPE_X_SECTOR@
	DD	00H
	DD	08H
	DD	00H
	DD	00H
	DD	FLAT:??_C@_0BC@ONBHCAFK@INT_TYPE_Z_SECTOR@
	DD	00H
	DD	08H
	DD	00H
	DD	00H
?overload_invalid_int_type_message@@3PBDB DD FLAT:??_C@_0DJ@FLGDIBMJ@Overloaded?5entity?5function?5invo@ ; overload_invalid_int_type_message
?debug_fatal_invalid_int_type_message@@3PBDB DD FLAT:??_C@_0FF@HEPOOFIJ@Invalid?5int?5type?5?$CIentity?5type?5?$DN@ ; debug_fatal_invalid_int_type_message
_DATA	ENDS
PUBLIC	___local_stdio_printf_options
PUBLIC	__vfprintf_l
PUBLIC	_fprintf
PUBLIC	?debug_log_pack_overflow@@YGXPBD0IHM@Z		; debug_log_pack_overflow
PUBLIC	?initialise_entity_int_value_default_functions@@YGXXZ ; initialise_entity_int_value_default_functions
PUBLIC	?pack_int_value@@YGXPAUENTITY@@W4INT_TYPES@@H@Z	; pack_int_value
PUBLIC	?unpack_int_value@@YGHPAUENTITY@@W4INT_TYPES@@@Z ; unpack_int_value
PUBLIC	?pack_int_type@@YGXW4INT_TYPES@@@Z		; pack_int_type
PUBLIC	?unpack_int_type@@YG?AW4INT_TYPES@@XZ		; unpack_int_type
PUBLIC	?debug_check_pack_types@@YGXXZ			; debug_check_pack_types
PUBLIC	?_OptionsStorage@?1??__local_stdio_printf_options@@9@4_KA ; `__local_stdio_printf_options'::`2'::_OptionsStorage
PUBLIC	?__LINE__Var@?0??debug_log_pack_overflow@@YGXPBD0IHM@Z@4JA ; `debug_log_pack_overflow'::`1'::__LINE__Var
PUBLIC	??_C@_0CJ@CFKNHPFI@Overflow?5?9?5type?3?5?$CFs?0?5width?5?$CFd?0?5@ ; `string'
PUBLIC	??_C@_01MCMALHOG@a@				; `string'
PUBLIC	??_C@_0BG@MNKDADNM@debug?9save?9errors?4txt@	; `string'
PUBLIC	??_C@_0CF@PGFJOLHH@Could?5not?5open?5debug?5errors?5fil@ ; `string'
PUBLIC	??_C@_0EM@DDCDJPAO@c?3?2users?2nhv90?2projects?2eech?2ap@ ; `string'
PUBLIC	??_C@_0BA@GMCOCEGM@debug_pack_file@		; `string'
PUBLIC	??_C@_0EA@KHKPDKCJ@Overflow?5?$CFs?5type?3?5?$CFs?0?5width?5?$CFd?0@ ; `string'
PUBLIC	?__LINE__Var@?0??initialise_entity_int_value_default_functions@@YGXXZ@4JA ; `initialise_entity_int_value_default_functions'::`1'::__LINE__Var
PUBLIC	??_C@_0HJ@GKLAAJCD@int_type_database?$FLINT_TYPE_Z_SE@ ; `string'
PUBLIC	?__LINE__Var@?0??pack_int_value@@YGXPAUENTITY@@W4INT_TYPES@@H@Z@4JA ; `pack_int_value'::`1'::__LINE__Var
PUBLIC	??_C@_0CG@MBAJKDMP@?$CItype?5?$DO?$DN?50?$CJ?5?$CG?$CG?5?$CItype?5?$DM?5NUM_INT_@ ; `string'
PUBLIC	??_C@_0CB@OBHFPLIM@pack_bits?5?$DO?50?5?$CG?$CG?5pack_bits?5?$DM?$DN?53@ ; `string'
PUBLIC	??_C@_0L@OHDHOIOE@signed?5int@			; `string'
PUBLIC	??_C@_0CH@IIHPDMNI@Overflow?5when?5packing?5signed?5in@ ; `string'
PUBLIC	??_C@_0CK@BLFIHHLB@?$CB?$CCOverflow?5when?5packing?5signed?5@ ; `string'
PUBLIC	??_C@_0N@OFHMGPAL@unsigned?5int@		; `string'
PUBLIC	??_C@_0CJ@LOKALEDJ@Overflow?5when?5packing?5unsigned?5@ ; `string'
PUBLIC	??_C@_0CM@PBFOBIEF@?$CB?$CCOverflow?5when?5packing?5unsigne@ ; `string'
PUBLIC	??_C@_0BL@MGJHPCK@Invalid?5int?5pack?5type?5?$DN?5?$CFd@ ; `string'
PUBLIC	?__LINE__Var@?0??unpack_int_value@@YGHPAUENTITY@@W4INT_TYPES@@@Z@4JA ; `unpack_int_value'::`1'::__LINE__Var
PUBLIC	?__LINE__Var@?0??pack_int_type@@YGXW4INT_TYPES@@@Z@4JA ; `pack_int_type'::`1'::__LINE__Var
PUBLIC	??_C@_0CC@CNCFLKND@?$CB?$CItype?5?$DO?$DO?5NUM_INT_TYPE_PACK_BIT@ ; `string'
PUBLIC	?__LINE__Var@?0??unpack_int_type@@YG?AW4INT_TYPES@@XZ@4JA ; `unpack_int_type'::`1'::__LINE__Var
EXTRN	__imp__fclose:PROC
EXTRN	__imp__fopen:PROC
EXTRN	__imp____stdio_common_vfprintf:PROC
EXTRN	__imp___errno:PROC
EXTRN	_strcmp:PROC
EXTRN	__imp__strerror:PROC
EXTRN	?process_assert@@YGXPBD0H@Z:PROC		; process_assert
EXTRN	?debug_fatal@@YAXPBDZZ:PROC			; debug_fatal
EXTRN	?debug_log@@YAXPBDZZ:PROC			; debug_log
EXTRN	?pack_signed_data@@YGXHH@Z:PROC			; pack_signed_data
EXTRN	?pack_unsigned_data@@YGXIH@Z:PROC		; pack_unsigned_data
EXTRN	?unpack_signed_data@@YGHH@Z:PROC		; unpack_signed_data
EXTRN	?unpack_unsigned_data@@YGIH@Z:PROC		; unpack_unsigned_data
EXTRN	?world_map@@3UWORLD_MAP_DATA@@A:BYTE		; world_map
EXTRN	__fltused:DWORD
;	COMDAT ?_OptionsStorage@?1??__local_stdio_printf_options@@9@4_KA
_BSS	SEGMENT
?_OptionsStorage@?1??__local_stdio_printf_options@@9@4_KA DQ 01H DUP (?) ; `__local_stdio_printf_options'::`2'::_OptionsStorage
_BSS	ENDS
_BSS	SEGMENT
?debug_pack_file@@3PAU_iobuf@@A DD 01H DUP (?)		; debug_pack_file
_BSS	ENDS
;	COMDAT ?__LINE__Var@?0??unpack_int_type@@YG?AW4INT_TYPES@@XZ@4JA
_DATA	SEGMENT
?__LINE__Var@?0??unpack_int_type@@YG?AW4INT_TYPES@@XZ@4JA DD 0a5dH ; `unpack_int_type'::`1'::__LINE__Var
_DATA	ENDS
;	COMDAT ??_C@_0CC@CNCFLKND@?$CB?$CItype?5?$DO?$DO?5NUM_INT_TYPE_PACK_BIT@
CONST	SEGMENT
??_C@_0CC@CNCFLKND@?$CB?$CItype?5?$DO?$DO?5NUM_INT_TYPE_PACK_BIT@ DB '!(t'
	DB	'ype >> NUM_INT_TYPE_PACK_BITS)', 00H	; `string'
CONST	ENDS
;	COMDAT ?__LINE__Var@?0??pack_int_type@@YGXW4INT_TYPES@@@Z@4JA
_DATA	SEGMENT
?__LINE__Var@?0??pack_int_type@@YGXW4INT_TYPES@@@Z@4JA DD 0a47H ; `pack_int_type'::`1'::__LINE__Var
_DATA	ENDS
;	COMDAT ?__LINE__Var@?0??unpack_int_value@@YGHPAUENTITY@@W4INT_TYPES@@@Z@4JA
_DATA	SEGMENT
?__LINE__Var@?0??unpack_int_value@@YGHPAUENTITY@@W4INT_TYPES@@@Z@4JA DD 0a14H ; `unpack_int_value'::`1'::__LINE__Var
_DATA	ENDS
;	COMDAT ??_C@_0BL@MGJHPCK@Invalid?5int?5pack?5type?5?$DN?5?$CFd@
CONST	SEGMENT
??_C@_0BL@MGJHPCK@Invalid?5int?5pack?5type?5?$DN?5?$CFd@ DB 'Invalid int '
	DB	'pack type = %d', 00H			; `string'
CONST	ENDS
;	COMDAT ??_C@_0CM@PBFOBIEF@?$CB?$CCOverflow?5when?5packing?5unsigne@
CONST	SEGMENT
??_C@_0CM@PBFOBIEF@?$CB?$CCOverflow?5when?5packing?5unsigne@ DB '!"Overfl'
	DB	'ow when packing unsigned int type!"', 00H	; `string'
CONST	ENDS
;	COMDAT ??_C@_0CJ@LOKALEDJ@Overflow?5when?5packing?5unsigned?5@
CONST	SEGMENT
??_C@_0CJ@LOKALEDJ@Overflow?5when?5packing?5unsigned?5@ DB 'Overflow when'
	DB	' packing unsigned int type!', 00H		; `string'
CONST	ENDS
;	COMDAT ??_C@_0N@OFHMGPAL@unsigned?5int@
CONST	SEGMENT
??_C@_0N@OFHMGPAL@unsigned?5int@ DB 'unsigned int', 00H	; `string'
CONST	ENDS
;	COMDAT ??_C@_0CK@BLFIHHLB@?$CB?$CCOverflow?5when?5packing?5signed?5@
CONST	SEGMENT
??_C@_0CK@BLFIHHLB@?$CB?$CCOverflow?5when?5packing?5signed?5@ DB '!"Overf'
	DB	'low when packing signed int type!"', 00H	; `string'
CONST	ENDS
;	COMDAT ??_C@_0CH@IIHPDMNI@Overflow?5when?5packing?5signed?5in@
CONST	SEGMENT
??_C@_0CH@IIHPDMNI@Overflow?5when?5packing?5signed?5in@ DB 'Overflow when'
	DB	' packing signed int type!', 00H		; `string'
CONST	ENDS
;	COMDAT ??_C@_0L@OHDHOIOE@signed?5int@
CONST	SEGMENT
??_C@_0L@OHDHOIOE@signed?5int@ DB 'signed int', 00H	; `string'
CONST	ENDS
;	COMDAT ??_C@_0CB@OBHFPLIM@pack_bits?5?$DO?50?5?$CG?$CG?5pack_bits?5?$DM?$DN?53@
CONST	SEGMENT
??_C@_0CB@OBHFPLIM@pack_bits?5?$DO?50?5?$CG?$CG?5pack_bits?5?$DM?$DN?53@ DB 'p'
	DB	'ack_bits > 0 && pack_bits <= 32', 00H	; `string'
CONST	ENDS
;	COMDAT ??_C@_0CG@MBAJKDMP@?$CItype?5?$DO?$DN?50?$CJ?5?$CG?$CG?5?$CItype?5?$DM?5NUM_INT_@
CONST	SEGMENT
??_C@_0CG@MBAJKDMP@?$CItype?5?$DO?$DN?50?$CJ?5?$CG?$CG?5?$CItype?5?$DM?5NUM_INT_@ DB '('
	DB	'type >= 0) && (type < NUM_INT_TYPES)', 00H	; `string'
CONST	ENDS
;	COMDAT ?__LINE__Var@?0??pack_int_value@@YGXPAUENTITY@@W4INT_TYPES@@H@Z@4JA
_DATA	SEGMENT
?__LINE__Var@?0??pack_int_value@@YGXPAUENTITY@@W4INT_TYPES@@H@Z@4JA DD 09c5H ; `pack_int_value'::`1'::__LINE__Var
_DATA	ENDS
;	COMDAT ??_C@_0HJ@GKLAAJCD@int_type_database?$FLINT_TYPE_Z_SE@
CONST	SEGMENT
??_C@_0HJ@GKLAAJCD@int_type_database?$FLINT_TYPE_Z_SE@ DB 'int_type_datab'
	DB	'ase[INT_TYPE_Z_SECTOR].name && strcmp(int_type_database[INT_T'
	DB	'YPE_Z_SECTOR].name, "INT_TYPE_Z_SECTOR") == 0', 00H ; `string'
CONST	ENDS
;	COMDAT ?__LINE__Var@?0??initialise_entity_int_value_default_functions@@YGXXZ@4JA
_DATA	SEGMENT
?__LINE__Var@?0??initialise_entity_int_value_default_functions@@YGXXZ@4JA DD 09a6H ; `initialise_entity_int_value_default_functions'::`1'::__LINE__Var
_DATA	ENDS
;	COMDAT ??_C@_0EA@KHKPDKCJ@Overflow?5?$CFs?5type?3?5?$CFs?0?5width?5?$CFd?0@
CONST	SEGMENT
??_C@_0EA@KHKPDKCJ@Overflow?5?$CFs?5type?3?5?$CFs?0?5width?5?$CFd?0@ DB 'O'
	DB	'verflow %s type: %s, width %d, int value: %d, float value: %f'
	DB	0aH, 00H					; `string'
CONST	ENDS
;	COMDAT ??_C@_0BA@GMCOCEGM@debug_pack_file@
CONST	SEGMENT
??_C@_0BA@GMCOCEGM@debug_pack_file@ DB 'debug_pack_file', 00H ; `string'
CONST	ENDS
;	COMDAT ??_C@_0EM@DDCDJPAO@c?3?2users?2nhv90?2projects?2eech?2ap@
CONST	SEGMENT
??_C@_0EM@DDCDJPAO@c?3?2users?2nhv90?2projects?2eech?2ap@ DB 'c:\users\nh'
	DB	'v90\projects\eech\aphavoc\source\entity\system\en_funcs\en_in'
	DB	't.c', 00H					; `string'
CONST	ENDS
;	COMDAT ??_C@_0CF@PGFJOLHH@Could?5not?5open?5debug?5errors?5fil@
CONST	SEGMENT
??_C@_0CF@PGFJOLHH@Could?5not?5open?5debug?5errors?5fil@ DB 'Could not op'
	DB	'en debug errors file: %s', 00H		; `string'
CONST	ENDS
;	COMDAT ??_C@_0BG@MNKDADNM@debug?9save?9errors?4txt@
CONST	SEGMENT
??_C@_0BG@MNKDADNM@debug?9save?9errors?4txt@ DB 'debug-save-errors.txt', 00H ; `string'
CONST	ENDS
;	COMDAT ??_C@_01MCMALHOG@a@
CONST	SEGMENT
??_C@_01MCMALHOG@a@ DB 'a', 00H				; `string'
CONST	ENDS
;	COMDAT ??_C@_0CJ@CFKNHPFI@Overflow?5?9?5type?3?5?$CFs?0?5width?5?$CFd?0?5@
CONST	SEGMENT
??_C@_0CJ@CFKNHPFI@Overflow?5?9?5type?3?5?$CFs?0?5width?5?$CFd?0?5@ DB 'O'
	DB	'verflow - type: %s, width %d, value: %d', 00H ; `string'
CONST	ENDS
;	COMDAT ?__LINE__Var@?0??debug_log_pack_overflow@@YGXPBD0IHM@Z@4JA
_DATA	SEGMENT
?__LINE__Var@?0??debug_log_pack_overflow@@YGXPBD0IHM@Z@4JA DD 0826H ; `debug_log_pack_overflow'::`1'::__LINE__Var
_DATA	ENDS
; Function compile flags: /Odtp /ZI
; File c:\users\nhv90\projects\eech\aphavoc\source\entity\system\en_funcs\en_int.c
;	COMDAT ?debug_check_pack_types@@YGXXZ
_TEXT	SEGMENT
_l__array$1 = -35					; size = 1
_l__array$2 = -34					; size = 1
_l__array$3 = -33					; size = 1
_l__array$4 = -32					; size = 1
_l__array$5 = -31					; size = 1
_l__array$6 = -30					; size = 1
_l__array$7 = -29					; size = 1
_l__array$8 = -28					; size = 1
_l__array$9 = -27					; size = 1
_l__array$10 = -26					; size = 1
_l__array$11 = -25					; size = 1
_l__array$12 = -24					; size = 1
_l__array$13 = -23					; size = 1
_l__array$14 = -22					; size = 1
_l__array$15 = -21					; size = 1
_l__array$16 = -20					; size = 1
_l__array$17 = -19					; size = 1
_l__array$18 = -18					; size = 1
_l__array$19 = -17					; size = 1
_l__array$20 = -16					; size = 1
_l__array$21 = -15					; size = 1
_l__array$22 = -14					; size = 1
_l__array$23 = -13					; size = 1
_l__array$24 = -12					; size = 1
_l__array$25 = -11					; size = 1
_l__array$26 = -10					; size = 1
_l__array$27 = -9					; size = 1
_l__array$28 = -8					; size = 1
_l__array$29 = -7					; size = 1
_l__array$30 = -6					; size = 1
_l__array$31 = -5					; size = 1
_l__array$32 = -4					; size = 1
_l__array$33 = -3					; size = 1
_l__array$34 = -2					; size = 1
_l__array$35 = -1					; size = 1
?debug_check_pack_types@@YGXXZ PROC			; debug_check_pack_types, COMDAT

; 2407 : {

  00000	55		 push	 ebp
  00001	8b ec		 mov	 ebp, esp
  00003	83 ec 64	 sub	 esp, 100		; 00000064H
  00006	53		 push	 ebx
  00007	56		 push	 esi
  00008	57		 push	 edi

; 2408 : 	// arneh - june 2006
; 2409 : 	// If you get an assert in this function there is a enum which has more
; 2410 : 	// values than bits available for storing it.
; 2411 : 	// You can increase the number of bits by changing its corresponding
; 2412 : 	// value above.  But this makes this exe incompatible with previous
; 2413 : 	// save games.  So if you do it, check if there are any warnings for
; 2414 : 	// any other values as well (i.e. they're close to exceeding the limit)
; 2415 : 	// and change them at the same time, so that we won't have to change save
; 2416 : 	// format too often (you can find warnings in the debug log).  And remember
; 2417 : 	// to mention it in the release notes, and on the dev mailing list.
; 2418 : 
; 2419 : 	COMPILE_ASSERT_PACK(NUM_DAY_SEGMENT_TYPES, NUM_DAY_SEGMENT_TYPE_BITS, "Not enough bits, increase definition of second argument");

  00009	b8 01 00 00 00	 mov	 eax, 1
  0000e	6b c8 00	 imul	 ecx, eax, 0
  00011	c6 44 0d ff 00	 mov	 BYTE PTR _l__array$35[ebp+ecx], 0

; 2420 : 
; 2421 : 	COMPILE_ASSERT_PACK(NUM_ENTITY_ATTRIBUTES, NUM_ENTITY_ATTRIBUTE_PACK_BITS, "Not enough bits, increase definition of second argument");

  00016	b8 01 00 00 00	 mov	 eax, 1
  0001b	6b c8 00	 imul	 ecx, eax, 0
  0001e	c6 44 0d fe 00	 mov	 BYTE PTR _l__array$34[ebp+ecx], 0

; 2422 : 	COMPILE_ASSERT_PACK(NUM_ENTITY_COMMS_MESSAGES, NUM_ENTITY_COMMS_MESSAGE_PACK_BITS, "Not enough bits, increase definition of second argument");

  00023	b8 01 00 00 00	 mov	 eax, 1
  00028	6b c8 00	 imul	 ecx, eax, 0
  0002b	c6 44 0d fd 00	 mov	 BYTE PTR _l__array$33[ebp+ecx], 0

; 2423 :     COMPILE_ASSERT_PACK(NUM_MESSAGE_CATEGORIES, NUM_RADIO_MESSAGE_TYPE_BITS, "Not enough bits, increase definition of second argument");

  00030	b8 01 00 00 00	 mov	 eax, 1
  00035	6b c8 00	 imul	 ecx, eax, 0
  00038	c6 44 0d fc 00	 mov	 BYTE PTR _l__array$32[ebp+ecx], 0

; 2424 :     COMPILE_ASSERT_PACK(NUM_ENTITY_SUB_TYPE_FIXED, NUM_ENTITY_SUB_TYPE_FIXED_BITS, "Not enough bits, increase definition of second argument");

  0003d	b8 01 00 00 00	 mov	 eax, 1
  00042	6b c8 00	 imul	 ecx, eax, 0
  00045	c6 44 0d fb 00	 mov	 BYTE PTR _l__array$31[ebp+ecx], 0

; 2425 : 	COMPILE_ASSERT_PACK(NUM_ENTITY_SUB_TYPE_WEAPON_BITS, NUM_ENTITY_SUB_TYPE_WEAPON_BITS, "Not enough bits, increase definition of second argument");

  0004a	b8 01 00 00 00	 mov	 eax, 1
  0004f	6b c8 00	 imul	 ecx, eax, 0
  00052	c6 44 0d fa 00	 mov	 BYTE PTR _l__array$30[ebp+ecx], 0

; 2426 : 	COMPILE_ASSERT_PACK(NUM_ENTITY_TYPES, NUM_ENTITY_TYPE_PACK_BITS, "Not enough bits, increase definition of second argument");

  00057	b8 01 00 00 00	 mov	 eax, 1
  0005c	6b c8 00	 imul	 ecx, eax, 0
  0005f	c6 44 0d f9 00	 mov	 BYTE PTR _l__array$29[ebp+ecx], 0

; 2427 : 
; 2428 : 	COMPILE_ASSERT_PACK(NUM_FLOAT_TYPES, NUM_FLOAT_TYPE_PACK_BITS, "Not enough bits, increase definition of second argument");

  00064	b8 01 00 00 00	 mov	 eax, 1
  00069	6b c8 00	 imul	 ecx, eax, 0
  0006c	c6 44 0d f8 00	 mov	 BYTE PTR _l__array$28[ebp+ecx], 0

; 2429 : 	//COMPILE_ASSERT_PACK(NUM_FORMATION_TYPES, NUM_FORMATION_BITS, "Not enough bits, increase definition of second argument");
; 2430 : 	COMPILE_ASSERT_PACK(NUM_GROUP_MODE_TYPES, NUM_GROUP_MODE_BITS, "Not enough bits, increase definition of second argument");

  00071	b8 01 00 00 00	 mov	 eax, 1
  00076	6b c8 00	 imul	 ecx, eax, 0
  00079	c6 44 0d f7 00	 mov	 BYTE PTR _l__array$27[ebp+ecx], 0

; 2431 : 	COMPILE_ASSERT_PACK(NUM_GUIDE_CRITERIA_TYPES, NUM_GUIDE_CRITERIA_TYPE_BITS, "Not enough bits, increase definition of second argument");

  0007e	b8 01 00 00 00	 mov	 eax, 1
  00083	6b c8 00	 imul	 ecx, eax, 0
  00086	c6 44 0d f6 00	 mov	 BYTE PTR _l__array$26[ebp+ecx], 0

; 2432 : 	COMPILE_ASSERT_PACK(NUM_GUIDE_POSITION_TYPES, NUM_GUIDE_POSITION_TYPE_BITS, !"Not enough bits, increase definition of second argument");

  0008b	b8 01 00 00 00	 mov	 eax, 1
  00090	6b c8 00	 imul	 ecx, eax, 0
  00093	c6 44 0d f5 00	 mov	 BYTE PTR _l__array$25[ebp+ecx], 0

; 2433 : 	COMPILE_ASSERT_PACK(NUM_GUNSHIP_TYPES, NUM_GUNSHIP_TYPE_BITS, "Not enough bits, increase definition of second argument");

  00098	b8 01 00 00 00	 mov	 eax, 1
  0009d	6b c8 00	 imul	 ecx, eax, 0
  000a0	c6 44 0d f4 00	 mov	 BYTE PTR _l__array$24[ebp+ecx], 0

; 2434 : 	COMPILE_ASSERT_PACK(NUM_INT_TYPES, NUM_INT_TYPE_PACK_BITS, "Not enough bits, increase definition of second argument");

  000a5	b8 01 00 00 00	 mov	 eax, 1
  000aa	6b c8 00	 imul	 ecx, eax, 0
  000ad	c6 44 0d f3 00	 mov	 BYTE PTR _l__array$23[ebp+ecx], 0

; 2435 : 	COMPILE_ASSERT_PACK(NUM_LIST_TYPES, NUM_LIST_TYPE_PACK_BITS, "Not enough bits, increase definition of second argument");

  000b2	b8 01 00 00 00	 mov	 eax, 1
  000b7	6b c8 00	 imul	 ecx, eax, 0
  000ba	c6 44 0d f2 00	 mov	 BYTE PTR _l__array$22[ebp+ecx], 0

; 2436 : 
; 2437 : 	COMPILE_ASSERT_PACK(NUM_MESSAGE_TEXT_TYPES, NUM_MESSAGE_TEXT_TYPE_BITS, "Not enough bits, increase definition of second argument");

  000bf	b8 01 00 00 00	 mov	 eax, 1
  000c4	6b c8 00	 imul	 ecx, eax, 0
  000c7	c6 44 0d f1 00	 mov	 BYTE PTR _l__array$21[ebp+ecx], 0

; 2438 : 	COMPILE_ASSERT_PACK(NUM_META_EXPLOSION_TYPES, NUM_META_EXPLOSION_TYPE_BITS, "Not enough bits, increase definition of second argument");

  000cc	b8 01 00 00 00	 mov	 eax, 1
  000d1	6b c8 00	 imul	 ecx, eax, 0
  000d4	c6 44 0d f0 00	 mov	 BYTE PTR _l__array$20[ebp+ecx], 0

; 2439 : 	COMPILE_ASSERT_PACK(NUM_META_SMOKE_LIST_TYPES, NUM_META_SMOKE_LIST_TYPE_BITS, "Not enough bits, increase definition of second argument");

  000d9	b8 01 00 00 00	 mov	 eax, 1
  000de	6b c8 00	 imul	 ecx, eax, 0
  000e1	c6 44 0d ef 00	 mov	 BYTE PTR _l__array$19[ebp+ecx], 0

; 2440 : 	COMPILE_ASSERT_PACK(NUM_MOVEMENT_TYPES, NUM_MOVEMENT_TYPE_BITS, "Not enough bits, increase definition of second argument");

  000e6	b8 01 00 00 00	 mov	 eax, 1
  000eb	6b c8 00	 imul	 ecx, eax, 0
  000ee	c6 44 0d ee 00	 mov	 BYTE PTR _l__array$18[ebp+ecx], 0

; 2441 : 	COMPILE_ASSERT_PACK(NUM_OPERATIONAL_STATE_TYPES, NUM_OPERATIONAL_STATE_BITS, "Not enough bits, increase definition of second argument");

  000f3	b8 01 00 00 00	 mov	 eax, 1
  000f8	6b c8 00	 imul	 ecx, eax, 0
  000fb	c6 44 0d ed 00	 mov	 BYTE PTR _l__array$17[ebp+ecx], 0

; 2442 : 	COMPILE_ASSERT_PACK(NUM_POSITION_TYPES, NUM_POSITION_TYPE_BITS, "Not enough bits, increase definition of second argument");

  00100	b8 01 00 00 00	 mov	 eax, 1
  00105	6b c8 00	 imul	 ecx, eax, 0
  00108	c6 44 0d ec 00	 mov	 BYTE PTR _l__array$16[ebp+ecx], 0

; 2443 : 	COMPILE_ASSERT_PACK(NUM_RESUPPLY_SOURCE_TYPES, NUM_RESUPPLY_SOURCE_BITS, "Not enough bits, increase definition of second argument");

  0010d	b8 01 00 00 00	 mov	 eax, 1
  00112	6b c8 00	 imul	 ecx, eax, 0
  00115	c6 44 0d eb 00	 mov	 BYTE PTR _l__array$15[ebp+ecx], 0

; 2444 : 
; 2445 : 	COMPILE_ASSERT_PACK(NUM_SOUND_CHANNEL_TYPES, NUM_SOUND_CHANNEL_BITS, "Not enough bits, increase definition of second argument");

  0011a	b8 01 00 00 00	 mov	 eax, 1
  0011f	6b c8 00	 imul	 ecx, eax, 0
  00122	c6 44 0d ea 00	 mov	 BYTE PTR _l__array$14[ebp+ecx], 0

; 2446 : 	COMPILE_ASSERT_PACK(NUM_SOUND_LOCALITY_TYPES, NUM_SOUND_LOCALITY_BITS, "Not enough bits, increase definition of second argument");

  00127	b8 01 00 00 00	 mov	 eax, 1
  0012c	6b c8 00	 imul	 ecx, eax, 0
  0012f	c6 44 0d e9 00	 mov	 BYTE PTR _l__array$13[ebp+ecx], 0

; 2447 : 	COMPILE_ASSERT_PACK(NUM_SPEECH_CATEGORY_TYPES, NUM_SPEECH_CATEGORY_BITS, "Not enough bits, increase definition of second argument");

  00134	b8 01 00 00 00	 mov	 eax, 1
  00139	6b c8 00	 imul	 ecx, eax, 0
  0013c	c6 44 0d e8 00	 mov	 BYTE PTR _l__array$12[ebp+ecx], 0

; 2448 : 	COMPILE_ASSERT_PACK(NUM_STRING_TYPES, NUM_STRING_TYPE_PACK_BITS, "Not enough bits, increase definition of second argument");

  00141	b8 01 00 00 00	 mov	 eax, 1
  00146	6b c8 00	 imul	 ecx, eax, 0
  00149	c6 44 0d e7 00	 mov	 BYTE PTR _l__array$11[ebp+ecx], 0

; 2449 : 
; 2450 : 	COMPILE_ASSERT_PACK(NUM_TASK_COMPLETED_TYPES, NUM_TASK_COMPLETED_BITS, "Not enough bits, increase definition of second argument");

  0014e	b8 01 00 00 00	 mov	 eax, 1
  00153	6b c8 00	 imul	 ecx, eax, 0
  00156	c6 44 0d e6 00	 mov	 BYTE PTR _l__array$10[ebp+ecx], 0

; 2451 : 	COMPILE_ASSERT_PACK(NUM_TASK_ROE_TYPES, NUM_TASK_ROE_TYPE_BITS, "Not enough bits, increase definition of second argument");

  0015b	b8 01 00 00 00	 mov	 eax, 1
  00160	6b c8 00	 imul	 ecx, eax, 0
  00163	c6 44 0d e5 00	 mov	 BYTE PTR _l__array$9[ebp+ecx], 0

; 2452 : 	COMPILE_ASSERT_PACK(NUM_TASK_STATE_TYPES, NUM_TASK_STATE_BITS, "Not enough bits, increase definition of second argument");

  00168	b8 01 00 00 00	 mov	 eax, 1
  0016d	6b c8 00	 imul	 ecx, eax, 0
  00170	c6 44 0d e4 00	 mov	 BYTE PTR _l__array$8[ebp+ecx], 0

; 2453 : 	COMPILE_ASSERT_PACK(NUM_TASK_TARGET_CLASS_TYPES, NUM_TASK_TARGET_CLASS_BITS, "Not enough bits, increase definition of second argument");

  00175	b8 01 00 00 00	 mov	 eax, 1
  0017a	6b c8 00	 imul	 ecx, eax, 0
  0017d	c6 44 0d e3 00	 mov	 BYTE PTR _l__array$7[ebp+ecx], 0

; 2454 : 	COMPILE_ASSERT_PACK(NUM_TASK_TARGET_SOURCE_TYPES, NUM_TASK_TARGET_SOURCE_BITS, "Not enough bits, increase definition of second argument");

  00182	b8 01 00 00 00	 mov	 eax, 1
  00187	6b c8 00	 imul	 ecx, eax, 0
  0018a	c6 44 0d e2 00	 mov	 BYTE PTR _l__array$6[ebp+ecx], 0

; 2455 : 	//COMPILE_ASSERT_PACK(NUM_TASK_TARGET_TYPES, NUM_TASK_TARGET_TYPE_BITS, "Not enough bits, increase definition of second argument");
; 2456 : 	COMPILE_ASSERT_PACK(NUM_TASK_TERMINATED_TYPES, NUM_TASK_TERMINATED_BITS, "Not enough bits, increase definition of second argument");

  0018f	b8 01 00 00 00	 mov	 eax, 1
  00194	6b c8 00	 imul	 ecx, eax, 0
  00197	c6 44 0d e1 00	 mov	 BYTE PTR _l__array$5[ebp+ecx], 0

; 2457 : 
; 2458 : 	COMPILE_ASSERT_PACK(NUM_VEC3D_TYPES, NUM_VEC3D_TYPE_PACK_BITS, "Not enough bits, increase definition of second argument");

  0019c	b8 01 00 00 00	 mov	 eax, 1
  001a1	6b c8 00	 imul	 ecx, eax, 0
  001a4	c6 44 0d e0 00	 mov	 BYTE PTR _l__array$4[ebp+ecx], 0

; 2459 : 	COMPILE_ASSERT_PACK(NUM_WAYPOINT_REACHED_TYPES, NUM_WAYPOINT_REACHED_BITS, "Not enough bits, increase definition of second argument");

  001a9	b8 01 00 00 00	 mov	 eax, 1
  001ae	6b c8 00	 imul	 ecx, eax, 0
  001b1	c6 44 0d df 00	 mov	 BYTE PTR _l__array$3[ebp+ecx], 0

; 2460 : 	COMPILE_ASSERT_PACK(NUM_WEAPON_CONFIG_TYPES, NUM_WEAPON_CONFIG_TYPE_BITS, "Not enough bits, increase definition of second argument");

  001b6	b8 01 00 00 00	 mov	 eax, 1
  001bb	6b c8 00	 imul	 ecx, eax, 0
  001be	c6 44 0d de 00	 mov	 BYTE PTR _l__array$2[ebp+ecx], 0

; 2461 : 
; 2462 :     COMPILE_ASSERT_PACK(TEXTURE_ANIMATION_INDEX_LAST, NUM_ANIMATED_TEXTURE_BITS, "Not enough bits, increase definition of second argument");

  001c3	b8 01 00 00 00	 mov	 eax, 1
  001c8	6b c8 00	 imul	 ecx, eax, 0
  001cb	c6 44 0d dd 00	 mov	 BYTE PTR _l__array$1[ebp+ecx], 0

; 2463 : }

  001d0	5f		 pop	 edi
  001d1	5e		 pop	 esi
  001d2	5b		 pop	 ebx
  001d3	8b e5		 mov	 esp, ebp
  001d5	5d		 pop	 ebp
  001d6	c3		 ret	 0
?debug_check_pack_types@@YGXXZ ENDP			; debug_check_pack_types
_TEXT	ENDS
; Function compile flags: /Odtp /ZI
; File c:\users\nhv90\projects\eech\aphavoc\source\entity\system\en_funcs\en_int.c
;	COMDAT ?default_get_entity_int_value@@YGHPAUENTITY@@W4INT_TYPES@@@Z
_TEXT	SEGMENT
tv64 = -72						; size = 4
_value$ = -4						; size = 4
_en$ = 8						; size = 4
_type$ = 12						; size = 4
?default_get_entity_int_value@@YGHPAUENTITY@@W4INT_TYPES@@@Z PROC ; default_get_entity_int_value, COMDAT

; 2130 : {

  00000	55		 push	 ebp
  00001	8b ec		 mov	 ebp, esp
  00003	83 ec 48	 sub	 esp, 72			; 00000048H
  00006	53		 push	 ebx
  00007	56		 push	 esi
  00008	57		 push	 edi

; 2131 : 	int
; 2132 : 		value;
; 2133 : 
; 2134 : 	switch (type)

  00009	8b 45 0c	 mov	 eax, DWORD PTR _type$[ebp]
  0000c	89 45 b8	 mov	 DWORD PTR tv64[ebp], eax
  0000f	81 7d b8 05 01
	00 00		 cmp	 DWORD PTR tv64[ebp], 261 ; 00000105H
  00016	7f 34		 jg	 SHORT $LN37@default_ge
  00018	81 7d b8 05 01
	00 00		 cmp	 DWORD PTR tv64[ebp], 261 ; 00000105H
  0001f	0f 84 59 01 00
	00		 je	 $LN28@default_ge
  00025	8b 4d b8	 mov	 ecx, DWORD PTR tv64[ebp]
  00028	83 e9 02	 sub	 ecx, 2
  0002b	89 4d b8	 mov	 DWORD PTR tv64[ebp], ecx
  0002e	81 7d b8 e7 00
	00 00		 cmp	 DWORD PTR tv64[ebp], 231 ; 000000e7H
  00035	0f 87 84 01 00
	00		 ja	 $LN35@default_ge
  0003b	8b 55 b8	 mov	 edx, DWORD PTR tv64[ebp]
  0003e	0f b6 82 00 00
	00 00		 movzx	 eax, BYTE PTR $LN38@default_ge[edx]
  00045	ff 24 85 00 00
	00 00		 jmp	 DWORD PTR $LN40@default_ge[eax*4]
$LN37@default_ge:
  0004c	8b 4d b8	 mov	 ecx, DWORD PTR tv64[ebp]
  0004f	81 e9 06 01 00
	00		 sub	 ecx, 262		; 00000106H
  00055	89 4d b8	 mov	 DWORD PTR tv64[ebp], ecx
  00058	83 7d b8 10	 cmp	 DWORD PTR tv64[ebp], 16	; 00000010H
  0005c	0f 87 5d 01 00
	00		 ja	 $LN35@default_ge
  00062	8b 55 b8	 mov	 edx, DWORD PTR tv64[ebp]
  00065	0f b6 82 00 00
	00 00		 movzx	 eax, BYTE PTR $LN39@default_ge[edx]
  0006c	ff 24 85 00 00
	00 00		 jmp	 DWORD PTR $LN41@default_ge[eax*4]
$LN4@default_ge:

; 2135 : 	{
; 2136 : 		////////////////////////////////////////
; 2137 : 		case INT_TYPE_AIR_TO_AIR_WEAPON_CONFIG_TYPE:
; 2138 : 		////////////////////////////////////////
; 2139 : 		{
; 2140 : 			value = WEAPON_CONFIG_TYPE_UNARMED;

  00073	c7 45 fc 00 00
	00 00		 mov	 DWORD PTR _value$[ebp], 0

; 2141 : 
; 2142 : 			break;

  0007a	e9 47 01 00 00	 jmp	 $LN2@default_ge
$LN5@default_ge:

; 2143 : 		}
; 2144 : 		////////////////////////////////////////
; 2145 : 		case INT_TYPE_AIR_TO_SURFACE_WEAPON_CONFIG_TYPE:
; 2146 : 		////////////////////////////////////////
; 2147 : 		{
; 2148 : 			value = WEAPON_CONFIG_TYPE_UNARMED;

  0007f	c7 45 fc 00 00
	00 00		 mov	 DWORD PTR _value$[ebp], 0

; 2149 : 
; 2150 : 			break;

  00086	e9 3b 01 00 00	 jmp	 $LN2@default_ge
$LN6@default_ge:

; 2151 : 		}
; 2152 : 		////////////////////////////////////////
; 2153 : 		case INT_TYPE_DAY_SEGMENT_TYPE:
; 2154 : 		////////////////////////////////////////
; 2155 : 		{
; 2156 : 			value = DAY_SEGMENT_TYPE_DAY;

  0008b	c7 45 fc 01 00
	00 00		 mov	 DWORD PTR _value$[ebp], 1

; 2157 : 
; 2158 : 			break;

  00092	e9 2f 01 00 00	 jmp	 $LN2@default_ge
$LN7@default_ge:

; 2159 : 		}
; 2160 : 		////////////////////////////////////////
; 2161 : 		case INT_TYPE_DEFAULT_3D_SHAPE:
; 2162 : 		////////////////////////////////////////
; 2163 : 		{
; 2164 : 			value = OBJECT_3D_INVALID_OBJECT_INDEX;

  00097	c7 45 fc 00 00
	00 00		 mov	 DWORD PTR _value$[ebp], 0

; 2165 : 
; 2166 : 			break;

  0009e	e9 23 01 00 00	 jmp	 $LN2@default_ge
$LN8@default_ge:

; 2167 : 		}
; 2168 : 		////////////////////////////////////////
; 2169 : 		case INT_TYPE_DEFAULT_WEAPON_CONFIG_TYPE:
; 2170 : 		////////////////////////////////////////
; 2171 : 		{
; 2172 : 			value = WEAPON_CONFIG_TYPE_UNARMED;

  000a3	c7 45 fc 00 00
	00 00		 mov	 DWORD PTR _value$[ebp], 0

; 2173 : 
; 2174 : 			break;

  000aa	e9 17 01 00 00	 jmp	 $LN2@default_ge
$LN9@default_ge:

; 2175 : 		}
; 2176 : 		////////////////////////////////////////
; 2177 : 		case INT_TYPE_DEFAULT_WEAPON_TYPE:
; 2178 : 		////////////////////////////////////////
; 2179 : 		{
; 2180 : 			value = ENTITY_SUB_TYPE_WEAPON_NO_WEAPON;

  000af	c7 45 fc 00 00
	00 00		 mov	 DWORD PTR _value$[ebp], 0

; 2181 : 
; 2182 : 			break;

  000b6	e9 0b 01 00 00	 jmp	 $LN2@default_ge
$LN10@default_ge:

; 2183 : 		}
; 2184 : 		////////////////////////////////////////
; 2185 : 		case INT_TYPE_DIFFICULTY_LEVEL:
; 2186 : 		////////////////////////////////////////
; 2187 : 		{
; 2188 : 			value = GAME_DIFFICULTY_INVALID;

  000bb	c7 45 fc 00 00
	00 00		 mov	 DWORD PTR _value$[ebp], 0

; 2189 : 
; 2190 : 			break;

  000c2	e9 ff 00 00 00	 jmp	 $LN2@default_ge
$LN11@default_ge:

; 2191 : 		}
; 2192 : 		////////////////////////////////////////
; 2193 : 		case INT_TYPE_ENTITY_SUB_TYPE:
; 2194 : 		////////////////////////////////////////
; 2195 : 		{
; 2196 : 			value = ENTITY_SUB_TYPE_UNKNOWN;

  000c7	c7 45 fc 00 00
	00 00		 mov	 DWORD PTR _value$[ebp], 0

; 2197 : 
; 2198 : 			break;

  000ce	e9 f3 00 00 00	 jmp	 $LN2@default_ge
$LN12@default_ge:

; 2199 : 		}
; 2200 : 		////////////////////////////////////////
; 2201 : 		case INT_TYPE_FORCE:
; 2202 : 		////////////////////////////////////////
; 2203 : 		{
; 2204 : 			value = ENTITY_FORCE_UNKNOWN;

  000d3	c7 45 fc 00 00
	00 00		 mov	 DWORD PTR _value$[ebp], 0

; 2205 : 
; 2206 : 			break;

  000da	e9 e7 00 00 00	 jmp	 $LN2@default_ge
$LN13@default_ge:

; 2207 : 		}
; 2208 : 		////////////////////////////////////////
; 2209 : 		case INT_TYPE_GUNSHIP_TYPE:
; 2210 : 		////////////////////////////////////////
; 2211 : 		{
; 2212 : 			value = GUNSHIP_TYPE_APACHE;

  000df	c7 45 fc 00 00
	00 00		 mov	 DWORD PTR _value$[ebp], 0

; 2213 : 
; 2214 : 			break;

  000e6	e9 db 00 00 00	 jmp	 $LN2@default_ge
$LN14@default_ge:

; 2215 : 		}
; 2216 : 		////////////////////////////////////////
; 2217 : 		case INT_TYPE_MAX_WEAPON_CONFIG_TYPE:
; 2218 : 		////////////////////////////////////////
; 2219 : 		{
; 2220 : 			value = WEAPON_CONFIG_TYPE_UNARMED;

  000eb	c7 45 fc 00 00
	00 00		 mov	 DWORD PTR _value$[ebp], 0

; 2221 : 
; 2222 : 			break;

  000f2	e9 cf 00 00 00	 jmp	 $LN2@default_ge
$LN15@default_ge:

; 2223 : 		}
; 2224 : 		////////////////////////////////////////
; 2225 : 		case INT_TYPE_MIN_WEAPON_CONFIG_TYPE:
; 2226 : 		////////////////////////////////////////
; 2227 : 		{
; 2228 : 			value = WEAPON_CONFIG_TYPE_UNARMED;

  000f7	c7 45 fc 00 00
	00 00		 mov	 DWORD PTR _value$[ebp], 0

; 2229 : 
; 2230 : 			break;

  000fe	e9 c3 00 00 00	 jmp	 $LN2@default_ge
$LN16@default_ge:

; 2231 : 		}
; 2232 : 		////////////////////////////////////////
; 2233 : 		case INT_TYPE_OBJECT_3D_SHAPE:
; 2234 : 		////////////////////////////////////////
; 2235 : 		{
; 2236 : 			value = OBJECT_3D_INVALID_OBJECT_INDEX;

  00103	c7 45 fc 00 00
	00 00		 mov	 DWORD PTR _value$[ebp], 0

; 2237 : 
; 2238 : 			break;

  0010a	e9 b7 00 00 00	 jmp	 $LN2@default_ge
$LN17@default_ge:

; 2239 : 		}
; 2240 : 		////////////////////////////////////////
; 2241 : 		case INT_TYPE_OPERATIONAL_STATE:
; 2242 : 		////////////////////////////////////////
; 2243 : 		{
; 2244 : 			value = OPERATIONAL_STATE_UNKNOWN;

  0010f	c7 45 fc 00 00
	00 00		 mov	 DWORD PTR _value$[ebp], 0

; 2245 : 
; 2246 : 			break;

  00116	e9 ab 00 00 00	 jmp	 $LN2@default_ge
$LN18@default_ge:

; 2247 : 		}
; 2248 : 		////////////////////////////////////////
; 2249 : 		case INT_TYPE_PLAYER:
; 2250 : 		////////////////////////////////////////
; 2251 : 		{
; 2252 : 			value = ENTITY_PLAYER_AI;

  0011b	c7 45 fc 00 00
	00 00		 mov	 DWORD PTR _value$[ebp], 0

; 2253 : 
; 2254 : 			break;

  00122	e9 9f 00 00 00	 jmp	 $LN2@default_ge
$LN19@default_ge:

; 2255 : 		}
; 2256 : 		////////////////////////////////////////
; 2257 : 		case INT_TYPE_SCOUT_WEAPON_CONFIG_TYPE:
; 2258 : 		////////////////////////////////////////
; 2259 : 		{
; 2260 : 			value = WEAPON_CONFIG_TYPE_UNARMED;

  00127	c7 45 fc 00 00
	00 00		 mov	 DWORD PTR _value$[ebp], 0

; 2261 : 
; 2262 : 			break;

  0012e	e9 93 00 00 00	 jmp	 $LN2@default_ge
$LN20@default_ge:

; 2263 : 		}
; 2264 : 		////////////////////////////////////////
; 2265 : 		case INT_TYPE_SELECTED_WEAPON:
; 2266 : 		////////////////////////////////////////
; 2267 : 		{
; 2268 : 			value = ENTITY_SUB_TYPE_WEAPON_NO_WEAPON;

  00133	c7 45 fc 00 00
	00 00		 mov	 DWORD PTR _value$[ebp], 0

; 2269 : 
; 2270 : 			break;

  0013a	e9 87 00 00 00	 jmp	 $LN2@default_ge
$LN21@default_ge:

; 2271 : 		}
; 2272 : 		////////////////////////////////////////
; 2273 : 		case INT_TYPE_SIDE:
; 2274 : 		////////////////////////////////////////
; 2275 : 		{
; 2276 : 			value = ENTITY_SIDE_NEUTRAL;

  0013f	c7 45 fc 00 00
	00 00		 mov	 DWORD PTR _value$[ebp], 0

; 2277 : 
; 2278 : 			break;

  00146	eb 7e		 jmp	 SHORT $LN2@default_ge
$LN22@default_ge:

; 2279 : 		}
; 2280 : 		////////////////////////////////////////
; 2281 : 		case INT_TYPE_STRATEGY:
; 2282 : 		////////////////////////////////////////
; 2283 : 		{
; 2284 : 			value = STRATEGY_TYPE_ADVANCE;

  00148	c7 45 fc 03 00
	00 00		 mov	 DWORD PTR _value$[ebp], 3

; 2285 : 
; 2286 : 			break;

  0014f	eb 75		 jmp	 SHORT $LN2@default_ge
$LN23@default_ge:

; 2287 : 		}
; 2288 : 		////////////////////////////////////////
; 2289 : 		case INT_TYPE_TARGET_PRIORITY_TYPE:
; 2290 : 		////////////////////////////////////////
; 2291 : 		{
; 2292 : 			value = TARGET_PRIORITY_UNKNOWN;

  00151	c7 45 fc 00 00
	00 00		 mov	 DWORD PTR _value$[ebp], 0

; 2293 : 
; 2294 : 			break;

  00158	eb 6c		 jmp	 SHORT $LN2@default_ge
$LN24@default_ge:

; 2295 : 		}
; 2296 : 		////////////////////////////////////////
; 2297 : 		case INT_TYPE_TARGET_SYMBOL_TYPE:
; 2298 : 		////////////////////////////////////////
; 2299 : 		{
; 2300 : 			value = TARGET_SYMBOL_UNKNOWN;

  0015a	c7 45 fc 00 00
	00 00		 mov	 DWORD PTR _value$[ebp], 0

; 2301 : 
; 2302 : 			break;

  00161	eb 63		 jmp	 SHORT $LN2@default_ge
$LN25@default_ge:

; 2303 : 		}
; 2304 : 		////////////////////////////////////////
; 2305 : 		case INT_TYPE_TARGET_TYPE:
; 2306 : 		////////////////////////////////////////
; 2307 : 		{
; 2308 : 			value = TARGET_TYPE_INVALID;

  00163	c7 45 fc 00 00
	00 00		 mov	 DWORD PTR _value$[ebp], 0

; 2309 : 
; 2310 : 			break;

  0016a	eb 5a		 jmp	 SHORT $LN2@default_ge
$LN26@default_ge:

; 2311 : 		}
; 2312 : 		////////////////////////////////////////
; 2313 : 		case INT_TYPE_TARGET_WEATHER_MODE:
; 2314 : 		////////////////////////////////////////
; 2315 : 		{
; 2316 : 			value = WEATHERMODE_INVALID;

  0016c	c7 45 fc 00 00
	00 00		 mov	 DWORD PTR _value$[ebp], 0

; 2317 : 
; 2318 : 			break;

  00173	eb 51		 jmp	 SHORT $LN2@default_ge
$LN27@default_ge:

; 2319 : 		}
; 2320 : 		////////////////////////////////////////
; 2321 : 		case INT_TYPE_THREAT_TYPE:
; 2322 : 		////////////////////////////////////////
; 2323 : 		{
; 2324 : 			value = THREAT_TYPE_INVALID;

  00175	c7 45 fc 00 00
	00 00		 mov	 DWORD PTR _value$[ebp], 0

; 2325 : 
; 2326 : 			break;

  0017c	eb 48		 jmp	 SHORT $LN2@default_ge
$LN28@default_ge:

; 2327 : 		}
; 2328 : 		////////////////////////////////////////
; 2329 : 		case INT_TYPE_WEAPON_CONFIG_TYPE:
; 2330 : 		////////////////////////////////////////
; 2331 : 		{
; 2332 : 			value = WEAPON_CONFIG_TYPE_UNARMED;

  0017e	c7 45 fc 00 00
	00 00		 mov	 DWORD PTR _value$[ebp], 0

; 2333 : 
; 2334 : 			break;

  00185	eb 3f		 jmp	 SHORT $LN2@default_ge
$LN29@default_ge:

; 2335 : 		}
; 2336 : 		////////////////////////////////////////
; 2337 : 		case INT_TYPE_WEAPON_DECOY_TYPE:
; 2338 : 		////////////////////////////////////////
; 2339 : 		{
; 2340 : 			value = WEAPON_DECOY_TYPE_NONE;

  00187	c7 45 fc 00 00
	00 00		 mov	 DWORD PTR _value$[ebp], 0

; 2341 : 
; 2342 : 			break;

  0018e	eb 36		 jmp	 SHORT $LN2@default_ge
$LN30@default_ge:

; 2343 : 		}
; 2344 : 		////////////////////////////////////////
; 2345 : 		case INT_TYPE_WEAPON_GUIDANCE_TYPE:
; 2346 : 		////////////////////////////////////////
; 2347 : 		{
; 2348 : 			value = WEAPON_GUIDANCE_TYPE_NONE;

  00190	c7 45 fc 00 00
	00 00		 mov	 DWORD PTR _value$[ebp], 0

; 2349 : 
; 2350 : 			break;

  00197	eb 2d		 jmp	 SHORT $LN2@default_ge
$LN31@default_ge:

; 2351 : 		}
; 2352 : 		////////////////////////////////////////
; 2353 : 		case INT_TYPE_WEAPON_KILL_CODE:
; 2354 : 		////////////////////////////////////////
; 2355 : 		{
; 2356 : 			value = WEAPON_KILL_CODE_OK;

  00199	c7 45 fc 00 00
	00 00		 mov	 DWORD PTR _value$[ebp], 0

; 2357 : 
; 2358 : 			break;

  001a0	eb 24		 jmp	 SHORT $LN2@default_ge
$LN32@default_ge:

; 2359 : 		}
; 2360 : 		////////////////////////////////////////
; 2361 : 		case INT_TYPE_WEAPON_SMOKE_TRAIL_TYPE:
; 2362 : 		////////////////////////////////////////
; 2363 : 		{
; 2364 : 			value = ENTITY_SUB_TYPE_NONE;

  001a2	c7 45 fc ff ff
	ff ff		 mov	 DWORD PTR _value$[ebp], -1

; 2365 : 
; 2366 : 			break;

  001a9	eb 1b		 jmp	 SHORT $LN2@default_ge
$LN33@default_ge:

; 2367 : 		}
; 2368 : 		////////////////////////////////////////
; 2369 : 		case INT_TYPE_X_SECTOR:
; 2370 : 		////////////////////////////////////////
; 2371 : 		{
; 2372 : 			value = MIN_MAP_X_SECTOR;

  001ab	a1 14 00 00 00	 mov	 eax, DWORD PTR ?world_map@@3UWORLD_MAP_DATA@@A+20
  001b0	89 45 fc	 mov	 DWORD PTR _value$[ebp], eax

; 2373 : 
; 2374 : 			break;

  001b3	eb 11		 jmp	 SHORT $LN2@default_ge
$LN34@default_ge:

; 2375 : 		}
; 2376 : 		////////////////////////////////////////
; 2377 : 		case INT_TYPE_Z_SECTOR:
; 2378 : 		////////////////////////////////////////
; 2379 : 		{
; 2380 : 			value = MIN_MAP_Z_SECTOR;

  001b5	a1 18 00 00 00	 mov	 eax, DWORD PTR ?world_map@@3UWORLD_MAP_DATA@@A+24
  001ba	89 45 fc	 mov	 DWORD PTR _value$[ebp], eax

; 2381 : 
; 2382 : 			break;

  001bd	eb 07		 jmp	 SHORT $LN2@default_ge
$LN35@default_ge:

; 2383 : 		}
; 2384 : 		////////////////////////////////////////
; 2385 : 		default:
; 2386 : 		////////////////////////////////////////
; 2387 : 		{
; 2388 : 			value = 0;

  001bf	c7 45 fc 00 00
	00 00		 mov	 DWORD PTR _value$[ebp], 0
$LN2@default_ge:

; 2389 : 
; 2390 : 			break;
; 2391 : 		}
; 2392 : 	}
; 2393 : 
; 2394 : 	return (value);

  001c6	8b 45 fc	 mov	 eax, DWORD PTR _value$[ebp]

; 2395 : }

  001c9	5f		 pop	 edi
  001ca	5e		 pop	 esi
  001cb	5b		 pop	 ebx
  001cc	8b e5		 mov	 esp, ebp
  001ce	5d		 pop	 ebp
  001cf	c2 08 00	 ret	 8
  001d2	66 90		 npad	 2
$LN40@default_ge:
  001d4	00 00 00 00	 DD	 $LN4@default_ge
  001d8	00 00 00 00	 DD	 $LN5@default_ge
  001dc	00 00 00 00	 DD	 $LN6@default_ge
  001e0	00 00 00 00	 DD	 $LN7@default_ge
  001e4	00 00 00 00	 DD	 $LN8@default_ge
  001e8	00 00 00 00	 DD	 $LN9@default_ge
  001ec	00 00 00 00	 DD	 $LN10@default_ge
  001f0	00 00 00 00	 DD	 $LN11@default_ge
  001f4	00 00 00 00	 DD	 $LN12@default_ge
  001f8	00 00 00 00	 DD	 $LN13@default_ge
  001fc	00 00 00 00	 DD	 $LN14@default_ge
  00200	00 00 00 00	 DD	 $LN15@default_ge
  00204	00 00 00 00	 DD	 $LN16@default_ge
  00208	00 00 00 00	 DD	 $LN17@default_ge
  0020c	00 00 00 00	 DD	 $LN18@default_ge
  00210	00 00 00 00	 DD	 $LN19@default_ge
  00214	00 00 00 00	 DD	 $LN20@default_ge
  00218	00 00 00 00	 DD	 $LN21@default_ge
  0021c	00 00 00 00	 DD	 $LN22@default_ge
  00220	00 00 00 00	 DD	 $LN23@default_ge
  00224	00 00 00 00	 DD	 $LN24@default_ge
  00228	00 00 00 00	 DD	 $LN25@default_ge
  0022c	00 00 00 00	 DD	 $LN26@default_ge
  00230	00 00 00 00	 DD	 $LN27@default_ge
  00234	00 00 00 00	 DD	 $LN35@default_ge
$LN38@default_ge:
  00238	00		 DB	 0
  00239	01		 DB	 1
  0023a	18		 DB	 24			; 00000018H
  0023b	18		 DB	 24			; 00000018H
  0023c	18		 DB	 24			; 00000018H
  0023d	18		 DB	 24			; 00000018H
  0023e	18		 DB	 24			; 00000018H
  0023f	18		 DB	 24			; 00000018H
  00240	18		 DB	 24			; 00000018H
  00241	18		 DB	 24			; 00000018H
  00242	18		 DB	 24			; 00000018H
  00243	18		 DB	 24			; 00000018H
  00244	18		 DB	 24			; 00000018H
  00245	18		 DB	 24			; 00000018H
  00246	18		 DB	 24			; 00000018H
  00247	18		 DB	 24			; 00000018H
  00248	18		 DB	 24			; 00000018H
  00249	18		 DB	 24			; 00000018H
  0024a	18		 DB	 24			; 00000018H
  0024b	18		 DB	 24			; 00000018H
  0024c	18		 DB	 24			; 00000018H
  0024d	18		 DB	 24			; 00000018H
  0024e	18		 DB	 24			; 00000018H
  0024f	18		 DB	 24			; 00000018H
  00250	18		 DB	 24			; 00000018H
  00251	18		 DB	 24			; 00000018H
  00252	18		 DB	 24			; 00000018H
  00253	18		 DB	 24			; 00000018H
  00254	18		 DB	 24			; 00000018H
  00255	18		 DB	 24			; 00000018H
  00256	18		 DB	 24			; 00000018H
  00257	18		 DB	 24			; 00000018H
  00258	18		 DB	 24			; 00000018H
  00259	18		 DB	 24			; 00000018H
  0025a	18		 DB	 24			; 00000018H
  0025b	18		 DB	 24			; 00000018H
  0025c	18		 DB	 24			; 00000018H
  0025d	02		 DB	 2
  0025e	18		 DB	 24			; 00000018H
  0025f	03		 DB	 3
  00260	18		 DB	 24			; 00000018H
  00261	18		 DB	 24			; 00000018H
  00262	04		 DB	 4
  00263	05		 DB	 5
  00264	18		 DB	 24			; 00000018H
  00265	06		 DB	 6
  00266	18		 DB	 24			; 00000018H
  00267	18		 DB	 24			; 00000018H
  00268	18		 DB	 24			; 00000018H
  00269	18		 DB	 24			; 00000018H
  0026a	07		 DB	 7
  0026b	18		 DB	 24			; 00000018H
  0026c	18		 DB	 24			; 00000018H
  0026d	18		 DB	 24			; 00000018H
  0026e	18		 DB	 24			; 00000018H
  0026f	18		 DB	 24			; 00000018H
  00270	08		 DB	 8
  00271	18		 DB	 24			; 00000018H
  00272	18		 DB	 24			; 00000018H
  00273	18		 DB	 24			; 00000018H
  00274	18		 DB	 24			; 00000018H
  00275	18		 DB	 24			; 00000018H
  00276	18		 DB	 24			; 00000018H
  00277	18		 DB	 24			; 00000018H
  00278	18		 DB	 24			; 00000018H
  00279	18		 DB	 24			; 00000018H
  0027a	18		 DB	 24			; 00000018H
  0027b	18		 DB	 24			; 00000018H
  0027c	18		 DB	 24			; 00000018H
  0027d	18		 DB	 24			; 00000018H
  0027e	18		 DB	 24			; 00000018H
  0027f	18		 DB	 24			; 00000018H
  00280	18		 DB	 24			; 00000018H
  00281	18		 DB	 24			; 00000018H
  00282	18		 DB	 24			; 00000018H
  00283	18		 DB	 24			; 00000018H
  00284	18		 DB	 24			; 00000018H
  00285	18		 DB	 24			; 00000018H
  00286	18		 DB	 24			; 00000018H
  00287	09		 DB	 9
  00288	18		 DB	 24			; 00000018H
  00289	18		 DB	 24			; 00000018H
  0028a	18		 DB	 24			; 00000018H
  0028b	18		 DB	 24			; 00000018H
  0028c	18		 DB	 24			; 00000018H
  0028d	18		 DB	 24			; 00000018H
  0028e	18		 DB	 24			; 00000018H
  0028f	18		 DB	 24			; 00000018H
  00290	18		 DB	 24			; 00000018H
  00291	18		 DB	 24			; 00000018H
  00292	18		 DB	 24			; 00000018H
  00293	18		 DB	 24			; 00000018H
  00294	18		 DB	 24			; 00000018H
  00295	18		 DB	 24			; 00000018H
  00296	18		 DB	 24			; 00000018H
  00297	18		 DB	 24			; 00000018H
  00298	18		 DB	 24			; 00000018H
  00299	18		 DB	 24			; 00000018H
  0029a	18		 DB	 24			; 00000018H
  0029b	18		 DB	 24			; 00000018H
  0029c	18		 DB	 24			; 00000018H
  0029d	18		 DB	 24			; 00000018H
  0029e	18		 DB	 24			; 00000018H
  0029f	18		 DB	 24			; 00000018H
  002a0	18		 DB	 24			; 00000018H
  002a1	18		 DB	 24			; 00000018H
  002a2	18		 DB	 24			; 00000018H
  002a3	18		 DB	 24			; 00000018H
  002a4	18		 DB	 24			; 00000018H
  002a5	18		 DB	 24			; 00000018H
  002a6	18		 DB	 24			; 00000018H
  002a7	18		 DB	 24			; 00000018H
  002a8	18		 DB	 24			; 00000018H
  002a9	18		 DB	 24			; 00000018H
  002aa	18		 DB	 24			; 00000018H
  002ab	18		 DB	 24			; 00000018H
  002ac	18		 DB	 24			; 00000018H
  002ad	18		 DB	 24			; 00000018H
  002ae	18		 DB	 24			; 00000018H
  002af	18		 DB	 24			; 00000018H
  002b0	18		 DB	 24			; 00000018H
  002b1	18		 DB	 24			; 00000018H
  002b2	18		 DB	 24			; 00000018H
  002b3	18		 DB	 24			; 00000018H
  002b4	18		 DB	 24			; 00000018H
  002b5	18		 DB	 24			; 00000018H
  002b6	18		 DB	 24			; 00000018H
  002b7	18		 DB	 24			; 00000018H
  002b8	18		 DB	 24			; 00000018H
  002b9	18		 DB	 24			; 00000018H
  002ba	18		 DB	 24			; 00000018H
  002bb	0a		 DB	 10			; 0000000aH
  002bc	18		 DB	 24			; 00000018H
  002bd	18		 DB	 24			; 00000018H
  002be	18		 DB	 24			; 00000018H
  002bf	18		 DB	 24			; 00000018H
  002c0	18		 DB	 24			; 00000018H
  002c1	18		 DB	 24			; 00000018H
  002c2	0b		 DB	 11			; 0000000bH
  002c3	18		 DB	 24			; 00000018H
  002c4	18		 DB	 24			; 00000018H
  002c5	18		 DB	 24			; 00000018H
  002c6	18		 DB	 24			; 00000018H
  002c7	18		 DB	 24			; 00000018H
  002c8	0c		 DB	 12			; 0000000cH
  002c9	18		 DB	 24			; 00000018H
  002ca	18		 DB	 24			; 00000018H
  002cb	18		 DB	 24			; 00000018H
  002cc	18		 DB	 24			; 00000018H
  002cd	0d		 DB	 13			; 0000000dH
  002ce	18		 DB	 24			; 00000018H
  002cf	18		 DB	 24			; 00000018H
  002d0	18		 DB	 24			; 00000018H
  002d1	18		 DB	 24			; 00000018H
  002d2	0e		 DB	 14			; 0000000eH
  002d3	18		 DB	 24			; 00000018H
  002d4	18		 DB	 24			; 00000018H
  002d5	18		 DB	 24			; 00000018H
  002d6	18		 DB	 24			; 00000018H
  002d7	18		 DB	 24			; 00000018H
  002d8	18		 DB	 24			; 00000018H
  002d9	18		 DB	 24			; 00000018H
  002da	18		 DB	 24			; 00000018H
  002db	18		 DB	 24			; 00000018H
  002dc	18		 DB	 24			; 00000018H
  002dd	18		 DB	 24			; 00000018H
  002de	18		 DB	 24			; 00000018H
  002df	18		 DB	 24			; 00000018H
  002e0	18		 DB	 24			; 00000018H
  002e1	18		 DB	 24			; 00000018H
  002e2	18		 DB	 24			; 00000018H
  002e3	18		 DB	 24			; 00000018H
  002e4	18		 DB	 24			; 00000018H
  002e5	18		 DB	 24			; 00000018H
  002e6	18		 DB	 24			; 00000018H
  002e7	18		 DB	 24			; 00000018H
  002e8	18		 DB	 24			; 00000018H
  002e9	18		 DB	 24			; 00000018H
  002ea	18		 DB	 24			; 00000018H
  002eb	18		 DB	 24			; 00000018H
  002ec	0f		 DB	 15			; 0000000fH
  002ed	18		 DB	 24			; 00000018H
  002ee	10		 DB	 16			; 00000010H
  002ef	18		 DB	 24			; 00000018H
  002f0	18		 DB	 24			; 00000018H
  002f1	11		 DB	 17			; 00000011H
  002f2	18		 DB	 24			; 00000018H
  002f3	18		 DB	 24			; 00000018H
  002f4	18		 DB	 24			; 00000018H
  002f5	18		 DB	 24			; 00000018H
  002f6	18		 DB	 24			; 00000018H
  002f7	18		 DB	 24			; 00000018H
  002f8	18		 DB	 24			; 00000018H
  002f9	18		 DB	 24			; 00000018H
  002fa	18		 DB	 24			; 00000018H
  002fb	18		 DB	 24			; 00000018H
  002fc	18		 DB	 24			; 00000018H
  002fd	18		 DB	 24			; 00000018H
  002fe	18		 DB	 24			; 00000018H
  002ff	18		 DB	 24			; 00000018H
  00300	18		 DB	 24			; 00000018H
  00301	12		 DB	 18			; 00000012H
  00302	18		 DB	 24			; 00000018H
  00303	18		 DB	 24			; 00000018H
  00304	18		 DB	 24			; 00000018H
  00305	18		 DB	 24			; 00000018H
  00306	18		 DB	 24			; 00000018H
  00307	18		 DB	 24			; 00000018H
  00308	18		 DB	 24			; 00000018H
  00309	18		 DB	 24			; 00000018H
  0030a	13		 DB	 19			; 00000013H
  0030b	14		 DB	 20			; 00000014H
  0030c	15		 DB	 21			; 00000015H
  0030d	16		 DB	 22			; 00000016H
  0030e	18		 DB	 24			; 00000018H
  0030f	18		 DB	 24			; 00000018H
  00310	18		 DB	 24			; 00000018H
  00311	18		 DB	 24			; 00000018H
  00312	18		 DB	 24			; 00000018H
  00313	18		 DB	 24			; 00000018H
  00314	18		 DB	 24			; 00000018H
  00315	18		 DB	 24			; 00000018H
  00316	18		 DB	 24			; 00000018H
  00317	18		 DB	 24			; 00000018H
  00318	18		 DB	 24			; 00000018H
  00319	18		 DB	 24			; 00000018H
  0031a	18		 DB	 24			; 00000018H
  0031b	18		 DB	 24			; 00000018H
  0031c	18		 DB	 24			; 00000018H
  0031d	18		 DB	 24			; 00000018H
  0031e	18		 DB	 24			; 00000018H
  0031f	17		 DB	 23			; 00000017H
$LN41@default_ge:
  00320	00 00 00 00	 DD	 $LN29@default_ge
  00324	00 00 00 00	 DD	 $LN30@default_ge
  00328	00 00 00 00	 DD	 $LN31@default_ge
  0032c	00 00 00 00	 DD	 $LN32@default_ge
  00330	00 00 00 00	 DD	 $LN33@default_ge
  00334	00 00 00 00	 DD	 $LN34@default_ge
  00338	00 00 00 00	 DD	 $LN35@default_ge
$LN39@default_ge:
  0033c	00		 DB	 0
  0033d	01		 DB	 1
  0033e	02		 DB	 2
  0033f	06		 DB	 6
  00340	06		 DB	 6
  00341	06		 DB	 6
  00342	06		 DB	 6
  00343	06		 DB	 6
  00344	03		 DB	 3
  00345	06		 DB	 6
  00346	06		 DB	 6
  00347	06		 DB	 6
  00348	06		 DB	 6
  00349	06		 DB	 6
  0034a	06		 DB	 6
  0034b	04		 DB	 4
  0034c	05		 DB	 5
?default_get_entity_int_value@@YGHPAUENTITY@@W4INT_TYPES@@@Z ENDP ; default_get_entity_int_value
_TEXT	ENDS
; Function compile flags: /Odtp /ZI
; File c:\users\nhv90\projects\eech\aphavoc\source\entity\system\en_funcs\en_int.c
;	COMDAT ?default_set_entity_int_value@@YGXPAUENTITY@@W4INT_TYPES@@H@Z
_TEXT	SEGMENT
_en$ = 8						; size = 4
_type$ = 12						; size = 4
_value$ = 16						; size = 4
?default_set_entity_int_value@@YGXPAUENTITY@@W4INT_TYPES@@H@Z PROC ; default_set_entity_int_value, COMDAT

; 2078 : {

  00000	55		 push	 ebp
  00001	8b ec		 mov	 ebp, esp
  00003	83 ec 40	 sub	 esp, 64			; 00000040H
  00006	53		 push	 ebx
  00007	56		 push	 esi
  00008	57		 push	 edi

; 2079 : }

  00009	5f		 pop	 edi
  0000a	5e		 pop	 esi
  0000b	5b		 pop	 ebx
  0000c	8b e5		 mov	 esp, ebp
  0000e	5d		 pop	 ebp
  0000f	c2 0c 00	 ret	 12			; 0000000cH
?default_set_entity_int_value@@YGXPAUENTITY@@W4INT_TYPES@@H@Z ENDP ; default_set_entity_int_value
_TEXT	ENDS
; Function compile flags: /Odtp /ZI
; File c:\users\nhv90\projects\eech\aphavoc\source\entity\system\en_funcs\en_int.c
;	COMDAT ?unpack_int_type@@YG?AW4INT_TYPES@@XZ
_TEXT	SEGMENT
_type$ = -4						; size = 4
?unpack_int_type@@YG?AW4INT_TYPES@@XZ PROC		; unpack_int_type, COMDAT

; 2653 : {

  00000	55		 push	 ebp
  00001	8b ec		 mov	 ebp, esp
  00003	83 ec 44	 sub	 esp, 68			; 00000044H
  00006	53		 push	 ebx
  00007	56		 push	 esi
  00008	57		 push	 edi

; 2654 : 	int_types
; 2655 : 		type;
; 2656 : 
; 2657 : 	type = (int_types) unpack_unsigned_data (NUM_INT_TYPE_PACK_BITS);

  00009	6a 09		 push	 9
  0000b	e8 00 00 00 00	 call	 ?unpack_unsigned_data@@YGIH@Z ; unpack_unsigned_data
  00010	89 45 fc	 mov	 DWORD PTR _type$[ebp], eax

; 2658 : 
; 2659 : 	ASSERT ((type >= 0) && (type < NUM_INT_TYPES));

  00013	83 7d fc 00	 cmp	 DWORD PTR _type$[ebp], 0
  00017	7c 09		 jl	 SHORT $LN3@unpack_int
  00019	81 7d fc 17 01
	00 00		 cmp	 DWORD PTR _type$[ebp], 279 ; 00000117H
  00020	7c 18		 jl	 SHORT $LN2@unpack_int
$LN3@unpack_int:
  00022	a1 00 00 00 00	 mov	 eax, DWORD PTR ?__LINE__Var@?0??unpack_int_type@@YG?AW4INT_TYPES@@XZ@4JA
  00027	83 c0 06	 add	 eax, 6
  0002a	50		 push	 eax
  0002b	68 00 00 00 00	 push	 OFFSET ??_C@_0EM@DDCDJPAO@c?3?2users?2nhv90?2projects?2eech?2ap@
  00030	68 00 00 00 00	 push	 OFFSET ??_C@_0CG@MBAJKDMP@?$CItype?5?$DO?$DN?50?$CJ?5?$CG?$CG?5?$CItype?5?$DM?5NUM_INT_@
  00035	e8 00 00 00 00	 call	 ?process_assert@@YGXPBD0H@Z ; process_assert
$LN2@unpack_int:

; 2660 : 
; 2661 : 	#if (DEBUG_MODULE_PACK_ONE || DEBUG_MODULE_PACK_ALL)
; 2662 : 
; 2663 : 	if (int_type_database[type].debug_pack)
; 2664 : 	{
; 2665 : 		debug_log_entity_args (ENTITY_DEBUG_UNPACK, ENTITY_DEBUG_INT_TYPE, NULL, type);
; 2666 : 	}
; 2667 : 
; 2668 : 	#endif
; 2669 : 
; 2670 : 	return (type);

  0003a	8b 45 fc	 mov	 eax, DWORD PTR _type$[ebp]

; 2671 : }

  0003d	5f		 pop	 edi
  0003e	5e		 pop	 esi
  0003f	5b		 pop	 ebx
  00040	8b e5		 mov	 esp, ebp
  00042	5d		 pop	 ebp
  00043	c3		 ret	 0
?unpack_int_type@@YG?AW4INT_TYPES@@XZ ENDP		; unpack_int_type
_TEXT	ENDS
; Function compile flags: /Odtp /ZI
; File c:\users\nhv90\projects\eech\aphavoc\source\entity\system\en_funcs\en_int.c
;	COMDAT ?pack_int_type@@YGXW4INT_TYPES@@@Z
_TEXT	SEGMENT
_type$ = 8						; size = 4
?pack_int_type@@YGXW4INT_TYPES@@@Z PROC			; pack_int_type, COMDAT

; 2631 : {

  00000	55		 push	 ebp
  00001	8b ec		 mov	 ebp, esp
  00003	83 ec 40	 sub	 esp, 64			; 00000040H
  00006	53		 push	 ebx
  00007	56		 push	 esi
  00008	57		 push	 edi

; 2632 : 	ASSERT ((type >= 0) && (type < NUM_INT_TYPES));

  00009	83 7d 08 00	 cmp	 DWORD PTR _type$[ebp], 0
  0000d	7c 09		 jl	 SHORT $LN3@pack_int_t
  0000f	81 7d 08 17 01
	00 00		 cmp	 DWORD PTR _type$[ebp], 279 ; 00000117H
  00016	7c 18		 jl	 SHORT $LN2@pack_int_t
$LN3@pack_int_t:
  00018	a1 00 00 00 00	 mov	 eax, DWORD PTR ?__LINE__Var@?0??pack_int_type@@YGXW4INT_TYPES@@@Z@4JA
  0001d	83 c0 01	 add	 eax, 1
  00020	50		 push	 eax
  00021	68 00 00 00 00	 push	 OFFSET ??_C@_0EM@DDCDJPAO@c?3?2users?2nhv90?2projects?2eech?2ap@
  00026	68 00 00 00 00	 push	 OFFSET ??_C@_0CG@MBAJKDMP@?$CItype?5?$DO?$DN?50?$CJ?5?$CG?$CG?5?$CItype?5?$DM?5NUM_INT_@
  0002b	e8 00 00 00 00	 call	 ?process_assert@@YGXPBD0H@Z ; process_assert
$LN2@pack_int_t:

; 2633 : 
; 2634 : 	#if (DEBUG_MODULE_PACK_ONE || DEBUG_MODULE_PACK_ALL)
; 2635 : 
; 2636 : 	if (int_type_database[type].debug_pack)
; 2637 : 	{
; 2638 : 		debug_log_entity_args (ENTITY_DEBUG_PACK, ENTITY_DEBUG_INT_TYPE, NULL, type);
; 2639 : 	}
; 2640 : 
; 2641 : 	#endif
; 2642 : 
; 2643 : 	ASSERT(!(type >> NUM_INT_TYPE_PACK_BITS));

  00030	8b 45 08	 mov	 eax, DWORD PTR _type$[ebp]
  00033	c1 f8 09	 sar	 eax, 9
  00036	85 c0		 test	 eax, eax
  00038	74 18		 je	 SHORT $LN4@pack_int_t
  0003a	a1 00 00 00 00	 mov	 eax, DWORD PTR ?__LINE__Var@?0??pack_int_type@@YGXW4INT_TYPES@@@Z@4JA
  0003f	83 c0 0c	 add	 eax, 12			; 0000000cH
  00042	50		 push	 eax
  00043	68 00 00 00 00	 push	 OFFSET ??_C@_0EM@DDCDJPAO@c?3?2users?2nhv90?2projects?2eech?2ap@
  00048	68 00 00 00 00	 push	 OFFSET ??_C@_0CC@CNCFLKND@?$CB?$CItype?5?$DO?$DO?5NUM_INT_TYPE_PACK_BIT@
  0004d	e8 00 00 00 00	 call	 ?process_assert@@YGXPBD0H@Z ; process_assert
$LN4@pack_int_t:

; 2644 : 
; 2645 : 	pack_unsigned_data (type, NUM_INT_TYPE_PACK_BITS);

  00052	6a 09		 push	 9
  00054	8b 45 08	 mov	 eax, DWORD PTR _type$[ebp]
  00057	50		 push	 eax
  00058	e8 00 00 00 00	 call	 ?pack_unsigned_data@@YGXIH@Z ; pack_unsigned_data

; 2646 : }

  0005d	5f		 pop	 edi
  0005e	5e		 pop	 esi
  0005f	5b		 pop	 ebx
  00060	8b e5		 mov	 esp, ebp
  00062	5d		 pop	 ebp
  00063	c2 04 00	 ret	 4
?pack_int_type@@YGXW4INT_TYPES@@@Z ENDP			; pack_int_type
_TEXT	ENDS
; Function compile flags: /Odtp /ZI
; File c:\users\nhv90\projects\eech\aphavoc\source\entity\system\en_funcs\en_int.c
;	COMDAT ?unpack_int_value@@YGHPAUENTITY@@W4INT_TYPES@@@Z
_TEXT	SEGMENT
tv73 = -72						; size = 4
_value$ = -4						; size = 4
_en$ = 8						; size = 4
_type$ = 12						; size = 4
?unpack_int_value@@YGHPAUENTITY@@W4INT_TYPES@@@Z PROC	; unpack_int_value, COMDAT

; 2580 : {

  00000	55		 push	 ebp
  00001	8b ec		 mov	 ebp, esp
  00003	83 ec 48	 sub	 esp, 72			; 00000048H
  00006	53		 push	 ebx
  00007	56		 push	 esi
  00008	57		 push	 edi

; 2581 : 	int
; 2582 : 		value;
; 2583 : 
; 2584 : 	ASSERT ((type >= 0) && (type < NUM_INT_TYPES));

  00009	83 7d 0c 00	 cmp	 DWORD PTR _type$[ebp], 0
  0000d	7c 09		 jl	 SHORT $LN5@unpack_int
  0000f	81 7d 0c 17 01
	00 00		 cmp	 DWORD PTR _type$[ebp], 279 ; 00000117H
  00016	7c 18		 jl	 SHORT $LN4@unpack_int
$LN5@unpack_int:
  00018	a1 00 00 00 00	 mov	 eax, DWORD PTR ?__LINE__Var@?0??unpack_int_value@@YGHPAUENTITY@@W4INT_TYPES@@@Z@4JA
  0001d	83 c0 04	 add	 eax, 4
  00020	50		 push	 eax
  00021	68 00 00 00 00	 push	 OFFSET ??_C@_0EM@DDCDJPAO@c?3?2users?2nhv90?2projects?2eech?2ap@
  00026	68 00 00 00 00	 push	 OFFSET ??_C@_0CG@MBAJKDMP@?$CItype?5?$DO?$DN?50?$CJ?5?$CG?$CG?5?$CItype?5?$DM?5NUM_INT_@
  0002b	e8 00 00 00 00	 call	 ?process_assert@@YGXPBD0H@Z ; process_assert
$LN4@unpack_int:

; 2585 : 
; 2586 : 	switch (int_type_database[type].pack_type)

  00030	6b 45 0c 14	 imul	 eax, DWORD PTR _type$[ebp], 20
  00034	8b 88 04 00 00
	00		 mov	 ecx, DWORD PTR ?int_type_database@@3PAUINT_TYPE_DATA@@A[eax+4]
  0003a	89 4d b8	 mov	 DWORD PTR tv73[ebp], ecx
  0003d	83 7d b8 00	 cmp	 DWORD PTR tv73[ebp], 0
  00041	74 08		 je	 SHORT $LN6@unpack_int
  00043	83 7d b8 01	 cmp	 DWORD PTR tv73[ebp], 1
  00047	74 17		 je	 SHORT $LN7@unpack_int
  00049	eb 2a		 jmp	 SHORT $LN8@unpack_int
$LN6@unpack_int:

; 2587 : 	{
; 2588 : 		////////////////////////////////////////
; 2589 : 		case INT_PACK_TYPE_SIGNED:
; 2590 : 		////////////////////////////////////////
; 2591 : 		{
; 2592 : 			value = unpack_signed_data (int_type_database[type].num_pack_bits);

  0004b	6b 45 0c 14	 imul	 eax, DWORD PTR _type$[ebp], 20
  0004f	8b 88 08 00 00
	00		 mov	 ecx, DWORD PTR ?int_type_database@@3PAUINT_TYPE_DATA@@A[eax+8]
  00055	51		 push	 ecx
  00056	e8 00 00 00 00	 call	 ?unpack_signed_data@@YGHH@Z ; unpack_signed_data
  0005b	89 45 fc	 mov	 DWORD PTR _value$[ebp], eax

; 2593 : 
; 2594 : 			break;

  0005e	eb 2d		 jmp	 SHORT $LN2@unpack_int
$LN7@unpack_int:

; 2595 : 		}
; 2596 : 		////////////////////////////////////////
; 2597 : 		case INT_PACK_TYPE_UNSIGNED:
; 2598 : 		////////////////////////////////////////
; 2599 : 		{
; 2600 : 			value = unpack_unsigned_data (int_type_database[type].num_pack_bits);

  00060	6b 45 0c 14	 imul	 eax, DWORD PTR _type$[ebp], 20
  00064	8b 88 08 00 00
	00		 mov	 ecx, DWORD PTR ?int_type_database@@3PAUINT_TYPE_DATA@@A[eax+8]
  0006a	51		 push	 ecx
  0006b	e8 00 00 00 00	 call	 ?unpack_unsigned_data@@YGIH@Z ; unpack_unsigned_data
  00070	89 45 fc	 mov	 DWORD PTR _value$[ebp], eax

; 2601 : 
; 2602 : 			break;

  00073	eb 18		 jmp	 SHORT $LN2@unpack_int
$LN8@unpack_int:

; 2603 : 		}
; 2604 : 		////////////////////////////////////////
; 2605 : 		default:
; 2606 : 		////////////////////////////////////////
; 2607 : 		{
; 2608 : 			debug_fatal ("Invalid int pack type = %d", int_type_database[type].pack_type);

  00075	6b 45 0c 14	 imul	 eax, DWORD PTR _type$[ebp], 20
  00079	8b 88 04 00 00
	00		 mov	 ecx, DWORD PTR ?int_type_database@@3PAUINT_TYPE_DATA@@A[eax+4]
  0007f	51		 push	 ecx
  00080	68 00 00 00 00	 push	 OFFSET ??_C@_0BL@MGJHPCK@Invalid?5int?5pack?5type?5?$DN?5?$CFd@
  00085	e8 00 00 00 00	 call	 ?debug_fatal@@YAXPBDZZ	; debug_fatal
  0008a	83 c4 08	 add	 esp, 8
$LN2@unpack_int:

; 2609 : 
; 2610 : 			break;
; 2611 : 		}
; 2612 : 	}
; 2613 : 
; 2614 : 	#if (DEBUG_MODULE_PACK_ONE || DEBUG_MODULE_PACK_ALL)
; 2615 : 
; 2616 : 	if (int_type_database[type].debug_pack)
; 2617 : 	{
; 2618 : 		debug_log_entity_args (ENTITY_DEBUG_UNPACK, ENTITY_DEBUG_INT_VALUE, en, type, value);
; 2619 : 	}
; 2620 : 
; 2621 : 	#endif
; 2622 : 
; 2623 : 	return (value);

  0008d	8b 45 fc	 mov	 eax, DWORD PTR _value$[ebp]

; 2624 : }

  00090	5f		 pop	 edi
  00091	5e		 pop	 esi
  00092	5b		 pop	 ebx
  00093	8b e5		 mov	 esp, ebp
  00095	5d		 pop	 ebp
  00096	c2 08 00	 ret	 8
?unpack_int_value@@YGHPAUENTITY@@W4INT_TYPES@@@Z ENDP	; unpack_int_value
_TEXT	ENDS
; Function compile flags: /Odtp /ZI
; File c:\users\nhv90\projects\eech\aphavoc\source\entity\system\en_funcs\en_int.c
;	COMDAT ?pack_int_value@@YGXPAUENTITY@@W4INT_TYPES@@H@Z
_TEXT	SEGMENT
tv82 = -80						; size = 4
_min_val$1 = -12					; size = 4
_max_val$2 = -8						; size = 4
_pack_bits$ = -4					; size = 4
_en$ = 8						; size = 4
_type$ = 12						; size = 4
_value$ = 16						; size = 4
?pack_int_value@@YGXPAUENTITY@@W4INT_TYPES@@H@Z PROC	; pack_int_value, COMDAT

; 2501 : {

  00000	55		 push	 ebp
  00001	8b ec		 mov	 ebp, esp
  00003	83 ec 50	 sub	 esp, 80			; 00000050H
  00006	53		 push	 ebx
  00007	56		 push	 esi
  00008	57		 push	 edi

; 2502 : 	unsigned int pack_bits;
; 2503 : 
; 2504 : 	ASSERT ((type >= 0) && (type < NUM_INT_TYPES));

  00009	83 7d 0c 00	 cmp	 DWORD PTR _type$[ebp], 0
  0000d	7c 09		 jl	 SHORT $LN5@pack_int_v
  0000f	81 7d 0c 17 01
	00 00		 cmp	 DWORD PTR _type$[ebp], 279 ; 00000117H
  00016	7c 18		 jl	 SHORT $LN4@pack_int_v
$LN5@pack_int_v:
  00018	a1 00 00 00 00	 mov	 eax, DWORD PTR ?__LINE__Var@?0??pack_int_value@@YGXPAUENTITY@@W4INT_TYPES@@H@Z@4JA
  0001d	83 c0 03	 add	 eax, 3
  00020	50		 push	 eax
  00021	68 00 00 00 00	 push	 OFFSET ??_C@_0EM@DDCDJPAO@c?3?2users?2nhv90?2projects?2eech?2ap@
  00026	68 00 00 00 00	 push	 OFFSET ??_C@_0CG@MBAJKDMP@?$CItype?5?$DO?$DN?50?$CJ?5?$CG?$CG?5?$CItype?5?$DM?5NUM_INT_@
  0002b	e8 00 00 00 00	 call	 ?process_assert@@YGXPBD0H@Z ; process_assert
$LN4@pack_int_v:

; 2505 : 
; 2506 : 	pack_bits = int_type_database[type].num_pack_bits;

  00030	6b 45 0c 14	 imul	 eax, DWORD PTR _type$[ebp], 20
  00034	8b 88 08 00 00
	00		 mov	 ecx, DWORD PTR ?int_type_database@@3PAUINT_TYPE_DATA@@A[eax+8]
  0003a	89 4d fc	 mov	 DWORD PTR _pack_bits$[ebp], ecx

; 2507 : 	ASSERT(pack_bits > 0 && pack_bits <= 32);

  0003d	83 7d fc 00	 cmp	 DWORD PTR _pack_bits$[ebp], 0
  00041	76 06		 jbe	 SHORT $LN7@pack_int_v
  00043	83 7d fc 20	 cmp	 DWORD PTR _pack_bits$[ebp], 32 ; 00000020H
  00047	76 18		 jbe	 SHORT $LN6@pack_int_v
$LN7@pack_int_v:
  00049	a1 00 00 00 00	 mov	 eax, DWORD PTR ?__LINE__Var@?0??pack_int_value@@YGXPAUENTITY@@W4INT_TYPES@@H@Z@4JA
  0004e	83 c0 06	 add	 eax, 6
  00051	50		 push	 eax
  00052	68 00 00 00 00	 push	 OFFSET ??_C@_0EM@DDCDJPAO@c?3?2users?2nhv90?2projects?2eech?2ap@
  00057	68 00 00 00 00	 push	 OFFSET ??_C@_0CB@OBHFPLIM@pack_bits?5?$DO?50?5?$CG?$CG?5pack_bits?5?$DM?$DN?53@
  0005c	e8 00 00 00 00	 call	 ?process_assert@@YGXPBD0H@Z ; process_assert
$LN6@pack_int_v:

; 2508 : 
; 2509 : 	#if (DEBUG_MODULE_PACK_ONE || DEBUG_MODULE_PACK_ALL)
; 2510 : 
; 2511 : 	if (int_type_database[type].debug_pack)
; 2512 : 	{
; 2513 : 		debug_log_entity_args (ENTITY_DEBUG_PACK, ENTITY_DEBUG_INT_VALUE, en, type, value);
; 2514 : 	}
; 2515 : 
; 2516 : 	#endif
; 2517 : 
; 2518 : 	switch (int_type_database[type].pack_type)

  00061	6b 45 0c 14	 imul	 eax, DWORD PTR _type$[ebp], 20
  00065	8b 88 04 00 00
	00		 mov	 ecx, DWORD PTR ?int_type_database@@3PAUINT_TYPE_DATA@@A[eax+4]
  0006b	89 4d b0	 mov	 DWORD PTR tv82[ebp], ecx
  0006e	83 7d b0 00	 cmp	 DWORD PTR tv82[ebp], 0
  00072	74 0f		 je	 SHORT $LN8@pack_int_v
  00074	83 7d b0 01	 cmp	 DWORD PTR tv82[ebp], 1
  00078	0f 84 a6 00 00
	00		 je	 $LN14@pack_int_v
  0007e	e9 1a 01 00 00	 jmp	 $LN17@pack_int_v
$LN8@pack_int_v:

; 2519 : 	{
; 2520 : 		////////////////////////////////////////
; 2521 : 		case INT_PACK_TYPE_SIGNED:
; 2522 : 		////////////////////////////////////////
; 2523 : 		{
; 2524 : 			int max_val = (1 << (pack_bits - 1)) - 1;

  00083	8b 4d fc	 mov	 ecx, DWORD PTR _pack_bits$[ebp]
  00086	83 e9 01	 sub	 ecx, 1
  00089	b8 01 00 00 00	 mov	 eax, 1
  0008e	d3 e0		 shl	 eax, cl
  00090	83 e8 01	 sub	 eax, 1
  00093	89 45 f8	 mov	 DWORD PTR _max_val$2[ebp], eax

; 2525 : 			int min_val = -max_val - 1;

  00096	8b 45 f8	 mov	 eax, DWORD PTR _max_val$2[ebp]
  00099	f7 d8		 neg	 eax
  0009b	83 e8 01	 sub	 eax, 1
  0009e	89 45 f4	 mov	 DWORD PTR _min_val$1[ebp], eax

; 2526 : 
; 2527 : 			if (pack_bits < 32 && (value > max_val || value < min_val))

  000a1	83 7d fc 20	 cmp	 DWORD PTR _pack_bits$[ebp], 32 ; 00000020H
  000a5	73 6b		 jae	 SHORT $LN13@pack_int_v
  000a7	8b 45 10	 mov	 eax, DWORD PTR _value$[ebp]
  000aa	3b 45 f8	 cmp	 eax, DWORD PTR _max_val$2[ebp]
  000ad	7f 08		 jg	 SHORT $LN10@pack_int_v
  000af	8b 45 10	 mov	 eax, DWORD PTR _value$[ebp]
  000b2	3b 45 f4	 cmp	 eax, DWORD PTR _min_val$1[ebp]
  000b5	7d 5b		 jge	 SHORT $LN13@pack_int_v
$LN10@pack_int_v:

; 2528 : 			{
; 2529 : 				#ifdef DEBUG_PACK_OVERFLOW
; 2530 : 					debug_log_pack_overflow("signed int", get_int_type_name(type), pack_bits, value, 0.0);

  000b7	51		 push	 ecx
  000b8	0f 57 c0	 xorps	 xmm0, xmm0
  000bb	f3 0f 11 04 24	 movss	 DWORD PTR [esp], xmm0
  000c0	8b 45 10	 mov	 eax, DWORD PTR _value$[ebp]
  000c3	50		 push	 eax
  000c4	8b 4d fc	 mov	 ecx, DWORD PTR _pack_bits$[ebp]
  000c7	51		 push	 ecx
  000c8	6b 55 0c 14	 imul	 edx, DWORD PTR _type$[ebp], 20
  000cc	8b 82 00 00 00
	00		 mov	 eax, DWORD PTR ?int_type_database@@3PAUINT_TYPE_DATA@@A[edx]
  000d2	50		 push	 eax
  000d3	68 00 00 00 00	 push	 OFFSET ??_C@_0L@OHDHOIOE@signed?5int@
  000d8	e8 00 00 00 00	 call	 ?debug_log_pack_overflow@@YGXPBD0IHM@Z ; debug_log_pack_overflow

; 2531 : 				#endif
; 2532 : 
; 2533 : 				if (value > 0)

  000dd	83 7d 10 00	 cmp	 DWORD PTR _value$[ebp], 0
  000e1	7e 08		 jle	 SHORT $LN11@pack_int_v

; 2534 : 					value = max_val;

  000e3	8b 45 f8	 mov	 eax, DWORD PTR _max_val$2[ebp]
  000e6	89 45 10	 mov	 DWORD PTR _value$[ebp], eax

; 2535 : 				else

  000e9	eb 06		 jmp	 SHORT $LN12@pack_int_v
$LN11@pack_int_v:

; 2536 : 					value = min_val;

  000eb	8b 45 f4	 mov	 eax, DWORD PTR _min_val$1[ebp]
  000ee	89 45 10	 mov	 DWORD PTR _value$[ebp], eax
$LN12@pack_int_v:

; 2537 : 
; 2538 : 				ASSERT(!"Overflow when packing signed int type!");

  000f1	b8 00 00 00 00	 mov	 eax, OFFSET ??_C@_0CH@IIHPDMNI@Overflow?5when?5packing?5signed?5in@
  000f6	85 c0		 test	 eax, eax
  000f8	74 18		 je	 SHORT $LN13@pack_int_v
  000fa	a1 00 00 00 00	 mov	 eax, DWORD PTR ?__LINE__Var@?0??pack_int_value@@YGXPAUENTITY@@W4INT_TYPES@@H@Z@4JA
  000ff	83 c0 25	 add	 eax, 37			; 00000025H
  00102	50		 push	 eax
  00103	68 00 00 00 00	 push	 OFFSET ??_C@_0EM@DDCDJPAO@c?3?2users?2nhv90?2projects?2eech?2ap@
  00108	68 00 00 00 00	 push	 OFFSET ??_C@_0CK@BLFIHHLB@?$CB?$CCOverflow?5when?5packing?5signed?5@
  0010d	e8 00 00 00 00	 call	 ?process_assert@@YGXPBD0H@Z ; process_assert
$LN13@pack_int_v:

; 2539 : 			}
; 2540 : 
; 2541 : 			pack_signed_data (value, pack_bits);

  00112	8b 45 fc	 mov	 eax, DWORD PTR _pack_bits$[ebp]
  00115	50		 push	 eax
  00116	8b 4d 10	 mov	 ecx, DWORD PTR _value$[ebp]
  00119	51		 push	 ecx
  0011a	e8 00 00 00 00	 call	 ?pack_signed_data@@YGXHH@Z ; pack_signed_data

; 2542 : 
; 2543 : 			break;

  0011f	e9 91 00 00 00	 jmp	 $LN2@pack_int_v
$LN14@pack_int_v:

; 2544 : 		}
; 2545 : 		////////////////////////////////////////
; 2546 : 		case INT_PACK_TYPE_UNSIGNED:
; 2547 : 		////////////////////////////////////////
; 2548 : 		{
; 2549 : 			if (pack_bits < 32 && value & (0xffffffff << pack_bits))

  00124	83 7d fc 20	 cmp	 DWORD PTR _pack_bits$[ebp], 32 ; 00000020H
  00128	73 64		 jae	 SHORT $LN16@pack_int_v
  0012a	83 c8 ff	 or	 eax, -1
  0012d	8b 4d fc	 mov	 ecx, DWORD PTR _pack_bits$[ebp]
  00130	d3 e0		 shl	 eax, cl
  00132	23 45 10	 and	 eax, DWORD PTR _value$[ebp]
  00135	74 57		 je	 SHORT $LN16@pack_int_v

; 2550 : 			{
; 2551 : 				#ifdef DEBUG_PACK_OVERFLOW
; 2552 : 					debug_log_pack_overflow("unsigned int", get_int_type_name(type), pack_bits, value, 0.0);

  00137	51		 push	 ecx
  00138	0f 57 c0	 xorps	 xmm0, xmm0
  0013b	f3 0f 11 04 24	 movss	 DWORD PTR [esp], xmm0
  00140	8b 45 10	 mov	 eax, DWORD PTR _value$[ebp]
  00143	50		 push	 eax
  00144	8b 4d fc	 mov	 ecx, DWORD PTR _pack_bits$[ebp]
  00147	51		 push	 ecx
  00148	6b 55 0c 14	 imul	 edx, DWORD PTR _type$[ebp], 20
  0014c	8b 82 00 00 00
	00		 mov	 eax, DWORD PTR ?int_type_database@@3PAUINT_TYPE_DATA@@A[edx]
  00152	50		 push	 eax
  00153	68 00 00 00 00	 push	 OFFSET ??_C@_0N@OFHMGPAL@unsigned?5int@
  00158	e8 00 00 00 00	 call	 ?debug_log_pack_overflow@@YGXPBD0IHM@Z ; debug_log_pack_overflow

; 2553 : 				#endif
; 2554 : 
; 2555 : 				value = (1 << pack_bits) - 1;

  0015d	b8 01 00 00 00	 mov	 eax, 1
  00162	8b 4d fc	 mov	 ecx, DWORD PTR _pack_bits$[ebp]
  00165	d3 e0		 shl	 eax, cl
  00167	83 e8 01	 sub	 eax, 1
  0016a	89 45 10	 mov	 DWORD PTR _value$[ebp], eax

; 2556 : 
; 2557 : 				ASSERT(!"Overflow when packing unsigned int type!");

  0016d	b8 00 00 00 00	 mov	 eax, OFFSET ??_C@_0CJ@LOKALEDJ@Overflow?5when?5packing?5unsigned?5@
  00172	85 c0		 test	 eax, eax
  00174	74 18		 je	 SHORT $LN16@pack_int_v
  00176	a1 00 00 00 00	 mov	 eax, DWORD PTR ?__LINE__Var@?0??pack_int_value@@YGXPAUENTITY@@W4INT_TYPES@@H@Z@4JA
  0017b	83 c0 38	 add	 eax, 56			; 00000038H
  0017e	50		 push	 eax
  0017f	68 00 00 00 00	 push	 OFFSET ??_C@_0EM@DDCDJPAO@c?3?2users?2nhv90?2projects?2eech?2ap@
  00184	68 00 00 00 00	 push	 OFFSET ??_C@_0CM@PBFOBIEF@?$CB?$CCOverflow?5when?5packing?5unsigne@
  00189	e8 00 00 00 00	 call	 ?process_assert@@YGXPBD0H@Z ; process_assert
$LN16@pack_int_v:

; 2558 : 			}
; 2559 : 
; 2560 : 			pack_unsigned_data (value, pack_bits);

  0018e	8b 45 fc	 mov	 eax, DWORD PTR _pack_bits$[ebp]
  00191	50		 push	 eax
  00192	8b 4d 10	 mov	 ecx, DWORD PTR _value$[ebp]
  00195	51		 push	 ecx
  00196	e8 00 00 00 00	 call	 ?pack_unsigned_data@@YGXIH@Z ; pack_unsigned_data

; 2561 : 
; 2562 : 			break;

  0019b	eb 18		 jmp	 SHORT $LN2@pack_int_v
$LN17@pack_int_v:

; 2563 : 		}
; 2564 : 		////////////////////////////////////////
; 2565 : 		default:
; 2566 : 		////////////////////////////////////////
; 2567 : 		{
; 2568 : 			debug_fatal ("Invalid int pack type = %d", int_type_database[type].pack_type);

  0019d	6b 45 0c 14	 imul	 eax, DWORD PTR _type$[ebp], 20
  001a1	8b 88 04 00 00
	00		 mov	 ecx, DWORD PTR ?int_type_database@@3PAUINT_TYPE_DATA@@A[eax+4]
  001a7	51		 push	 ecx
  001a8	68 00 00 00 00	 push	 OFFSET ??_C@_0BL@MGJHPCK@Invalid?5int?5pack?5type?5?$DN?5?$CFd@
  001ad	e8 00 00 00 00	 call	 ?debug_fatal@@YAXPBDZZ	; debug_fatal
  001b2	83 c4 08	 add	 esp, 8
$LN2@pack_int_v:

; 2569 : 
; 2570 : 			break;
; 2571 : 		}
; 2572 : 	}
; 2573 : }

  001b5	5f		 pop	 edi
  001b6	5e		 pop	 esi
  001b7	5b		 pop	 ebx
  001b8	8b e5		 mov	 esp, ebp
  001ba	5d		 pop	 ebp
  001bb	c2 0c 00	 ret	 12			; 0000000cH
?pack_int_value@@YGXPAUENTITY@@W4INT_TYPES@@H@Z ENDP	; pack_int_value
_TEXT	ENDS
; Function compile flags: /Odtp /ZI
; File c:\users\nhv90\projects\eech\aphavoc\source\entity\system\en_funcs\en_int.c
;	COMDAT ?initialise_entity_int_value_default_functions@@YGXXZ
_TEXT	SEGMENT
_j$ = -8						; size = 4
_i$ = -4						; size = 4
?initialise_entity_int_value_default_functions@@YGXXZ PROC ; initialise_entity_int_value_default_functions, COMDAT

; 2470 : {

  00000	55		 push	 ebp
  00001	8b ec		 mov	 ebp, esp
  00003	83 ec 48	 sub	 esp, 72			; 00000048H
  00006	53		 push	 ebx
  00007	56		 push	 esi
  00008	57		 push	 edi

; 2471 : 	int
; 2472 : 		i,
; 2473 : 		j;
; 2474 : 
; 2475 : 	debug_check_pack_types();

  00009	e8 00 00 00 00	 call	 ?debug_check_pack_types@@YGXXZ ; debug_check_pack_types

; 2476 : 
; 2477 : 	for (i = 0; i < NUM_ENTITY_TYPES; i++)

  0000e	c7 45 fc 00 00
	00 00		 mov	 DWORD PTR _i$[ebp], 0
  00015	eb 09		 jmp	 SHORT $LN4@initialise
$LN2@initialise:
  00017	8b 45 fc	 mov	 eax, DWORD PTR _i$[ebp]
  0001a	83 c0 01	 add	 eax, 1
  0001d	89 45 fc	 mov	 DWORD PTR _i$[ebp], eax
$LN4@initialise:
  00020	83 7d fc 26	 cmp	 DWORD PTR _i$[ebp], 38	; 00000026H
  00024	0f 8d a8 00 00
	00		 jge	 $LN3@initialise

; 2478 : 	{
; 2479 : 		for (j = 0; j < NUM_INT_TYPES; j++)

  0002a	c7 45 f8 00 00
	00 00		 mov	 DWORD PTR _j$[ebp], 0
  00031	eb 09		 jmp	 SHORT $LN7@initialise
$LN5@initialise:
  00033	8b 45 f8	 mov	 eax, DWORD PTR _j$[ebp]
  00036	83 c0 01	 add	 eax, 1
  00039	89 45 f8	 mov	 DWORD PTR _j$[ebp], eax
$LN7@initialise:
  0003c	81 7d f8 17 01
	00 00		 cmp	 DWORD PTR _j$[ebp], 279	; 00000117H
  00043	0f 8d 84 00 00
	00		 jge	 $LN6@initialise

; 2480 : 		{
; 2481 : 			fn_set_local_entity_raw_int_value[i][j]									= default_set_entity_int_value;

  00049	69 45 fc 5c 04
	00 00		 imul	 eax, DWORD PTR _i$[ebp], 1116
  00050	8b 4d f8	 mov	 ecx, DWORD PTR _j$[ebp]
  00053	c7 84 88 00 00
	00 00 00 00 00
	00		 mov	 DWORD PTR ?fn_set_local_entity_raw_int_value@@3PAY0BBH@P6GXPAUENTITY@@W4INT_TYPES@@H@ZA[eax+ecx*4], OFFSET ?default_set_entity_int_value@@YGXPAUENTITY@@W4INT_TYPES@@H@Z ; default_set_entity_int_value

; 2482 : 
; 2483 : 			fn_set_local_entity_int_value[i][j]											= default_set_entity_int_value;

  0005e	69 45 fc 5c 04
	00 00		 imul	 eax, DWORD PTR _i$[ebp], 1116
  00065	8b 4d f8	 mov	 ecx, DWORD PTR _j$[ebp]
  00068	c7 84 88 00 00
	00 00 00 00 00
	00		 mov	 DWORD PTR ?fn_set_local_entity_int_value@@3PAY0BBH@P6GXPAUENTITY@@W4INT_TYPES@@H@ZA[eax+ecx*4], OFFSET ?default_set_entity_int_value@@YGXPAUENTITY@@W4INT_TYPES@@H@Z ; default_set_entity_int_value

; 2484 : 
; 2485 : 			fn_set_client_server_entity_int_value[i][j][COMMS_MODEL_SERVER]	= default_set_entity_int_value;

  00073	69 45 fc b8 08
	00 00		 imul	 eax, DWORD PTR _i$[ebp], 2232
  0007a	8b 4d f8	 mov	 ecx, DWORD PTR _j$[ebp]
  0007d	8d 94 c8 00 00
	00 00		 lea	 edx, DWORD PTR ?fn_set_client_server_entity_int_value@@3PAY1BBH@1P6GXPAUENTITY@@W4INT_TYPES@@H@ZA[eax+ecx*8]
  00084	b8 04 00 00 00	 mov	 eax, 4
  00089	6b c8 00	 imul	 ecx, eax, 0
  0008c	c7 04 0a 00 00
	00 00		 mov	 DWORD PTR [edx+ecx], OFFSET ?default_set_entity_int_value@@YGXPAUENTITY@@W4INT_TYPES@@H@Z ; default_set_entity_int_value

; 2486 : 
; 2487 : 			fn_set_client_server_entity_int_value[i][j][COMMS_MODEL_CLIENT]	= default_set_entity_int_value;

  00093	69 45 fc b8 08
	00 00		 imul	 eax, DWORD PTR _i$[ebp], 2232
  0009a	8b 4d f8	 mov	 ecx, DWORD PTR _j$[ebp]
  0009d	8d 94 c8 00 00
	00 00		 lea	 edx, DWORD PTR ?fn_set_client_server_entity_int_value@@3PAY1BBH@1P6GXPAUENTITY@@W4INT_TYPES@@H@ZA[eax+ecx*8]
  000a4	b8 04 00 00 00	 mov	 eax, 4
  000a9	c1 e0 00	 shl	 eax, 0
  000ac	c7 04 02 00 00
	00 00		 mov	 DWORD PTR [edx+eax], OFFSET ?default_set_entity_int_value@@YGXPAUENTITY@@W4INT_TYPES@@H@Z ; default_set_entity_int_value

; 2488 : 
; 2489 : 			fn_get_local_entity_int_value[i][j]											= default_get_entity_int_value;

  000b3	69 45 fc 5c 04
	00 00		 imul	 eax, DWORD PTR _i$[ebp], 1116
  000ba	8b 4d f8	 mov	 ecx, DWORD PTR _j$[ebp]
  000bd	c7 84 88 00 00
	00 00 00 00 00
	00		 mov	 DWORD PTR ?fn_get_local_entity_int_value@@3PAY0BBH@P6GHPAUENTITY@@W4INT_TYPES@@@ZA[eax+ecx*4], OFFSET ?default_get_entity_int_value@@YGHPAUENTITY@@W4INT_TYPES@@@Z ; default_get_entity_int_value

; 2490 : 		}

  000c8	e9 66 ff ff ff	 jmp	 $LN5@initialise
$LN6@initialise:

; 2491 : 	}

  000cd	e9 45 ff ff ff	 jmp	 $LN2@initialise
$LN3@initialise:

; 2492 : 
; 2493 : 	ASSERT(int_type_database[INT_TYPE_Z_SECTOR].name && strcmp(int_type_database[INT_TYPE_Z_SECTOR].name, "INT_TYPE_Z_SECTOR") == 0);  // if this fails then initialization order and defines differ in number!

  000d2	b8 14 00 00 00	 mov	 eax, 20			; 00000014H
  000d7	69 c8 16 01 00
	00		 imul	 ecx, eax, 278
  000dd	83 b9 00 00 00
	00 00		 cmp	 DWORD PTR ?int_type_database@@3PAUINT_TYPE_DATA@@A[ecx], 0
  000e4	74 23		 je	 SHORT $LN9@initialise
  000e6	68 00 00 00 00	 push	 OFFSET ??_C@_0BC@ONBHCAFK@INT_TYPE_Z_SECTOR@
  000eb	b8 14 00 00 00	 mov	 eax, 20			; 00000014H
  000f0	69 c8 16 01 00
	00		 imul	 ecx, eax, 278
  000f6	8b 91 00 00 00
	00		 mov	 edx, DWORD PTR ?int_type_database@@3PAUINT_TYPE_DATA@@A[ecx]
  000fc	52		 push	 edx
  000fd	e8 00 00 00 00	 call	 _strcmp
  00102	83 c4 08	 add	 esp, 8
  00105	85 c0		 test	 eax, eax
  00107	74 18		 je	 SHORT $LN1@initialise
$LN9@initialise:
  00109	a1 00 00 00 00	 mov	 eax, DWORD PTR ?__LINE__Var@?0??initialise_entity_int_value_default_functions@@YGXXZ@4JA
  0010e	83 c0 17	 add	 eax, 23			; 00000017H
  00111	50		 push	 eax
  00112	68 00 00 00 00	 push	 OFFSET ??_C@_0EM@DDCDJPAO@c?3?2users?2nhv90?2projects?2eech?2ap@
  00117	68 00 00 00 00	 push	 OFFSET ??_C@_0HJ@GKLAAJCD@int_type_database?$FLINT_TYPE_Z_SE@
  0011c	e8 00 00 00 00	 call	 ?process_assert@@YGXPBD0H@Z ; process_assert
$LN1@initialise:

; 2494 : }

  00121	5f		 pop	 edi
  00122	5e		 pop	 esi
  00123	5b		 pop	 ebx
  00124	8b e5		 mov	 esp, ebp
  00126	5d		 pop	 ebp
  00127	c3		 ret	 0
?initialise_entity_int_value_default_functions@@YGXXZ ENDP ; initialise_entity_int_value_default_functions
_TEXT	ENDS
; Function compile flags: /Odtp /ZI
; File c:\users\nhv90\projects\eech\aphavoc\source\entity\system\en_funcs\en_int.c
;	COMDAT ?debug_log_pack_overflow@@YGXPBD0IHM@Z
_TEXT	SEGMENT
_error_msg$1 = -4					; size = 4
_type$ = 8						; size = 4
_name$ = 12						; size = 4
_width$ = 16						; size = 4
_value$ = 20						; size = 4
_fvalue$ = 24						; size = 4
?debug_log_pack_overflow@@YGXPBD0IHM@Z PROC		; debug_log_pack_overflow, COMDAT

; 2086 : {

  00000	55		 push	 ebp
  00001	8b ec		 mov	 ebp, esp
  00003	83 ec 44	 sub	 esp, 68			; 00000044H
  00006	53		 push	 ebx
  00007	56		 push	 esi
  00008	57		 push	 edi

; 2087 : 	debug_log("Overflow - type: %s, width %d, value: %d", name, width, value);

  00009	8b 45 14	 mov	 eax, DWORD PTR _value$[ebp]
  0000c	50		 push	 eax
  0000d	8b 4d 10	 mov	 ecx, DWORD PTR _width$[ebp]
  00010	51		 push	 ecx
  00011	8b 55 0c	 mov	 edx, DWORD PTR _name$[ebp]
  00014	52		 push	 edx
  00015	68 00 00 00 00	 push	 OFFSET ??_C@_0CJ@CFKNHPFI@Overflow?5?9?5type?3?5?$CFs?0?5width?5?$CFd?0?5@
  0001a	e8 00 00 00 00	 call	 ?debug_log@@YAXPBDZZ	; debug_log
  0001f	83 c4 10	 add	 esp, 16			; 00000010H

; 2088 : 
; 2089 : 	#ifdef DEBUG_PACK_OVERFLOW
; 2090 : 		if (!debug_pack_file)

  00022	83 3d 00 00 00
	00 00		 cmp	 DWORD PTR ?debug_pack_file@@3PAU_iobuf@@A, 0
  00029	75 18		 jne	 SHORT $LN2@debug_log_

; 2091 : 			debug_pack_file = fopen("debug-save-errors.txt","a");

  0002b	68 00 00 00 00	 push	 OFFSET ??_C@_01MCMALHOG@a@
  00030	68 00 00 00 00	 push	 OFFSET ??_C@_0BG@MNKDADNM@debug?9save?9errors?4txt@
  00035	ff 15 00 00 00
	00		 call	 DWORD PTR __imp__fopen
  0003b	83 c4 08	 add	 esp, 8
  0003e	a3 00 00 00 00	 mov	 DWORD PTR ?debug_pack_file@@3PAU_iobuf@@A, eax
$LN2@debug_log_:

; 2092 : 		if (!debug_pack_file)

  00043	83 3d 00 00 00
	00 00		 cmp	 DWORD PTR ?debug_pack_file@@3PAU_iobuf@@A, 0
  0004a	75 28		 jne	 SHORT $LN3@debug_log_

; 2093 : 		{
; 2094 : 			const char* error_msg = strerror(errno);

  0004c	ff 15 00 00 00
	00		 call	 DWORD PTR __imp___errno
  00052	8b 00		 mov	 eax, DWORD PTR [eax]
  00054	50		 push	 eax
  00055	ff 15 00 00 00
	00		 call	 DWORD PTR __imp__strerror
  0005b	83 c4 04	 add	 esp, 4
  0005e	89 45 fc	 mov	 DWORD PTR _error_msg$1[ebp], eax

; 2095 : 			debug_fatal ("Could not open debug errors file: %s", error_msg);

  00061	8b 45 fc	 mov	 eax, DWORD PTR _error_msg$1[ebp]
  00064	50		 push	 eax
  00065	68 00 00 00 00	 push	 OFFSET ??_C@_0CF@PGFJOLHH@Could?5not?5open?5debug?5errors?5fil@
  0006a	e8 00 00 00 00	 call	 ?debug_fatal@@YAXPBDZZ	; debug_fatal
  0006f	83 c4 08	 add	 esp, 8

; 2096 : 			return;

  00072	eb 61		 jmp	 SHORT $LN1@debug_log_
$LN3@debug_log_:

; 2097 : 		}
; 2098 : 
; 2099 : 		ASSERT(debug_pack_file);

  00074	83 3d 00 00 00
	00 00		 cmp	 DWORD PTR ?debug_pack_file@@3PAU_iobuf@@A, 0
  0007b	75 18		 jne	 SHORT $LN4@debug_log_
  0007d	a1 00 00 00 00	 mov	 eax, DWORD PTR ?__LINE__Var@?0??debug_log_pack_overflow@@YGXPBD0IHM@Z@4JA
  00082	83 c0 0d	 add	 eax, 13			; 0000000dH
  00085	50		 push	 eax
  00086	68 00 00 00 00	 push	 OFFSET ??_C@_0EM@DDCDJPAO@c?3?2users?2nhv90?2projects?2eech?2ap@
  0008b	68 00 00 00 00	 push	 OFFSET ??_C@_0BA@GMCOCEGM@debug_pack_file@
  00090	e8 00 00 00 00	 call	 ?process_assert@@YGXPBD0H@Z ; process_assert
$LN4@debug_log_:

; 2100 : 
; 2101 : 		fprintf(debug_pack_file, "Overflow %s type: %s, width %d, int value: %d, float value: %f\n", type, name, width, value, fvalue);

  00095	f3 0f 5a 45 18	 cvtss2sd xmm0, DWORD PTR _fvalue$[ebp]
  0009a	83 ec 08	 sub	 esp, 8
  0009d	f2 0f 11 04 24	 movsd	 QWORD PTR [esp], xmm0
  000a2	8b 45 14	 mov	 eax, DWORD PTR _value$[ebp]
  000a5	50		 push	 eax
  000a6	8b 4d 10	 mov	 ecx, DWORD PTR _width$[ebp]
  000a9	51		 push	 ecx
  000aa	8b 55 0c	 mov	 edx, DWORD PTR _name$[ebp]
  000ad	52		 push	 edx
  000ae	8b 45 08	 mov	 eax, DWORD PTR _type$[ebp]
  000b1	50		 push	 eax
  000b2	68 00 00 00 00	 push	 OFFSET ??_C@_0EA@KHKPDKCJ@Overflow?5?$CFs?5type?3?5?$CFs?0?5width?5?$CFd?0@
  000b7	8b 0d 00 00 00
	00		 mov	 ecx, DWORD PTR ?debug_pack_file@@3PAU_iobuf@@A
  000bd	51		 push	 ecx
  000be	e8 00 00 00 00	 call	 _fprintf
  000c3	83 c4 20	 add	 esp, 32			; 00000020H

; 2102 : 		fclose(debug_pack_file);

  000c6	a1 00 00 00 00	 mov	 eax, DWORD PTR ?debug_pack_file@@3PAU_iobuf@@A
  000cb	50		 push	 eax
  000cc	ff 15 00 00 00
	00		 call	 DWORD PTR __imp__fclose
  000d2	83 c4 04	 add	 esp, 4
$LN1@debug_log_:

; 2103 : 	#endif
; 2104 : }

  000d5	5f		 pop	 edi
  000d6	5e		 pop	 esi
  000d7	5b		 pop	 ebx
  000d8	8b e5		 mov	 esp, ebp
  000da	5d		 pop	 ebp
  000db	c2 14 00	 ret	 20			; 00000014H
?debug_log_pack_overflow@@YGXPBD0IHM@Z ENDP		; debug_log_pack_overflow
_TEXT	ENDS
; Function compile flags: /Odtp /ZI
; File c:\program files (x86)\windows kits\10\include\10.0.18362.0\ucrt\stdio.h
;	COMDAT _fprintf
_TEXT	SEGMENT
__ArgList$ = -8						; size = 4
__Result$ = -4						; size = 4
__Stream$ = 8						; size = 4
__Format$ = 12						; size = 4
_fprintf PROC						; COMDAT

; 835  :     {

  00000	55		 push	 ebp
  00001	8b ec		 mov	 ebp, esp
  00003	83 ec 4c	 sub	 esp, 76			; 0000004cH
  00006	53		 push	 ebx
  00007	56		 push	 esi
  00008	57		 push	 edi

; 836  :         int _Result;
; 837  :         va_list _ArgList;
; 838  :         __crt_va_start(_ArgList, _Format);

  00009	8d 45 10	 lea	 eax, DWORD PTR __Format$[ebp+4]
  0000c	89 45 f8	 mov	 DWORD PTR __ArgList$[ebp], eax

; 839  :         _Result = _vfprintf_l(_Stream, _Format, NULL, _ArgList);

  0000f	8b 45 f8	 mov	 eax, DWORD PTR __ArgList$[ebp]
  00012	50		 push	 eax
  00013	6a 00		 push	 0
  00015	8b 4d 0c	 mov	 ecx, DWORD PTR __Format$[ebp]
  00018	51		 push	 ecx
  00019	8b 55 08	 mov	 edx, DWORD PTR __Stream$[ebp]
  0001c	52		 push	 edx
  0001d	e8 00 00 00 00	 call	 __vfprintf_l
  00022	83 c4 10	 add	 esp, 16			; 00000010H
  00025	89 45 fc	 mov	 DWORD PTR __Result$[ebp], eax

; 840  :         __crt_va_end(_ArgList);

  00028	c7 45 f8 00 00
	00 00		 mov	 DWORD PTR __ArgList$[ebp], 0

; 841  :         return _Result;

  0002f	8b 45 fc	 mov	 eax, DWORD PTR __Result$[ebp]

; 842  :     }

  00032	5f		 pop	 edi
  00033	5e		 pop	 esi
  00034	5b		 pop	 ebx
  00035	8b e5		 mov	 esp, ebp
  00037	5d		 pop	 ebp
  00038	c3		 ret	 0
_fprintf ENDP
_TEXT	ENDS
; Function compile flags: /Odtp /ZI
; File c:\program files (x86)\windows kits\10\include\10.0.18362.0\ucrt\stdio.h
;	COMDAT __vfprintf_l
_TEXT	SEGMENT
__Stream$ = 8						; size = 4
__Format$ = 12						; size = 4
__Locale$ = 16						; size = 4
__ArgList$ = 20						; size = 4
__vfprintf_l PROC					; COMDAT

; 642  :     {

  00000	55		 push	 ebp
  00001	8b ec		 mov	 ebp, esp
  00003	83 ec 40	 sub	 esp, 64			; 00000040H
  00006	53		 push	 ebx
  00007	56		 push	 esi
  00008	57		 push	 edi

; 643  :         return __stdio_common_vfprintf(_CRT_INTERNAL_LOCAL_PRINTF_OPTIONS, _Stream, _Format, _Locale, _ArgList);

  00009	8b 45 14	 mov	 eax, DWORD PTR __ArgList$[ebp]
  0000c	50		 push	 eax
  0000d	8b 4d 10	 mov	 ecx, DWORD PTR __Locale$[ebp]
  00010	51		 push	 ecx
  00011	8b 55 0c	 mov	 edx, DWORD PTR __Format$[ebp]
  00014	52		 push	 edx
  00015	8b 45 08	 mov	 eax, DWORD PTR __Stream$[ebp]
  00018	50		 push	 eax
  00019	e8 00 00 00 00	 call	 ___local_stdio_printf_options
  0001e	8b 48 04	 mov	 ecx, DWORD PTR [eax+4]
  00021	51		 push	 ecx
  00022	8b 10		 mov	 edx, DWORD PTR [eax]
  00024	52		 push	 edx
  00025	ff 15 00 00 00
	00		 call	 DWORD PTR __imp____stdio_common_vfprintf
  0002b	83 c4 18	 add	 esp, 24			; 00000018H

; 644  :     }

  0002e	5f		 pop	 edi
  0002f	5e		 pop	 esi
  00030	5b		 pop	 ebx
  00031	8b e5		 mov	 esp, ebp
  00033	5d		 pop	 ebp
  00034	c3		 ret	 0
__vfprintf_l ENDP
_TEXT	ENDS
; Function compile flags: /Odtp /ZI
; File c:\program files (x86)\windows kits\10\include\10.0.18362.0\ucrt\corecrt_stdio_config.h
;	COMDAT ___local_stdio_printf_options
_TEXT	SEGMENT
___local_stdio_printf_options PROC			; COMDAT

; 86   :     {

  00000	55		 push	 ebp
  00001	8b ec		 mov	 ebp, esp
  00003	83 ec 40	 sub	 esp, 64			; 00000040H
  00006	53		 push	 ebx
  00007	56		 push	 esi
  00008	57		 push	 edi

; 87   :         static unsigned __int64 _OptionsStorage;
; 88   :         return &_OptionsStorage;

  00009	b8 00 00 00 00	 mov	 eax, OFFSET ?_OptionsStorage@?1??__local_stdio_printf_options@@9@4_KA ; `__local_stdio_printf_options'::`2'::_OptionsStorage

; 89   :     }

  0000e	5f		 pop	 edi
  0000f	5e		 pop	 esi
  00010	5b		 pop	 ebx
  00011	8b e5		 mov	 esp, ebp
  00013	5d		 pop	 ebp
  00014	c3		 ret	 0
___local_stdio_printf_options ENDP
_TEXT	ENDS
END
