; Listing generated by Microsoft (R) Optimizing Compiler Version 19.16.27045.0 

	TITLE	C:\Users\nhv90\Projects\eech\aphavoc\source\entity\system\en_funcs\en_snd.c
	.686P
	.XMM
	include listing.inc
	.model	flat

INCLUDELIB MSVCRTD
INCLUDELIB OLDNAMES

PUBLIC	?fn_play_local_entity_sound@@3PAP6GXPAUENTITY@@PAUVIEWPOINT@@M@ZA ; fn_play_local_entity_sound
_BSS	SEGMENT
?fn_play_local_entity_sound@@3PAP6GXPAUENTITY@@PAUVIEWPOINT@@M@ZA DD 026H DUP (?) ; fn_play_local_entity_sound
_BSS	ENDS
PUBLIC	?scan_local_entity_sounds@@YGXPAUVIEWPOINT@@@Z	; scan_local_entity_sounds
PUBLIC	?stop_local_entity_sounds@@YGXXZ		; stop_local_entity_sounds
PUBLIC	?initialise_entity_sound_default_functions@@YGXXZ ; initialise_entity_sound_default_functions
PUBLIC	??$max@H@std@@YGABHABH0@Z			; std::max<int>
PUBLIC	??$min@H@std@@YGABHABH0@Z			; std::min<int>
PUBLIC	??_C@_02DKCKIIND@?$CFs@				; `string'
PUBLIC	?__LINE__Var@?0??scan_local_entity_sounds@@YGXPAUVIEWPOINT@@@Z@4JA ; `scan_local_entity_sounds'::`1'::__LINE__Var
PUBLIC	??_C@_0EM@MBHHOJGM@c?3?2users?2nhv90?2projects?2eech?2ap@ ; `string'
PUBLIC	??_C@_02HPPNELPJ@vp@				; `string'
PUBLIC	?__LINE__Var@?0??stop_local_entity_sounds@@YGXXZ@4JA ; `stop_local_entity_sounds'::`1'::__LINE__Var
PUBLIC	??_C@_0BD@FEEMDEPI@invalid?5comparator@		; `string'
PUBLIC	??_C@_0GK@JMBMHIBC@c?3?2program?5files?5?$CIx86?$CJ?2microsof@ ; `string'
PUBLIC	??_C@_1NE@FKBPBJEB@?$AAc?$AA?3?$AA?2?$AAp?$AAr?$AAo?$AAg?$AAr?$AAa?$AAm?$AA?5?$AAf?$AAi?$AAl?$AAe@ ; `string'
PUBLIC	??_C@_1BC@ICCOKLEG@?$AAs?$AAt?$AAd?$AA?3?$AA?3?$AAm?$AAa?$AAx@ ; `string'
PUBLIC	??_C@_1CK@NDNHPKPI@?$AA?$CC?$AAi?$AAn?$AAv?$AAa?$AAl?$AAi?$AAd?$AA?5?$AAc?$AAo?$AAm?$AAp?$AAa?$AAr@ ; `string'
PUBLIC	??_C@_1BC@BLAPCBGI@?$AAs?$AAt?$AAd?$AA?3?$AA?3?$AAm?$AAi?$AAn@ ; `string'
PUBLIC	__real@459c4000
EXTRN	__imp___invalid_parameter:PROC
EXTRN	__imp___CrtDbgReport:PROC
EXTRN	?process_assert@@YGXPBD0H@Z:PROC		; process_assert
EXTRN	?convert_float_to_int@@YGXMPAH@Z:PROC		; convert_float_to_int
EXTRN	?get_approx_3d_range@@YGMPBUVEC3D@@0@Z:PROC	; get_approx_3d_range
EXTRN	?get_system_sound_effect_playing@@YGHPAUSYSTEM_SOUND_EFFECT@@@Z:PROC ; get_system_sound_effect_playing
EXTRN	?destroy_system_sound_effect@@YGXPAUSYSTEM_SOUND_EFFECT@@@Z:PROC ; destroy_system_sound_effect
EXTRN	?get_system_sound_effect_user_data@@YGPAXPAUSYSTEM_SOUND_EFFECT@@@Z:PROC ; get_system_sound_effect_user_data
EXTRN	?get_first_system_sound_effect@@YGPAUSYSTEM_SOUND_EFFECT@@XZ:PROC ; get_first_system_sound_effect
EXTRN	?get_next_system_sound_effect@@YGPAUSYSTEM_SOUND_EFFECT@@PAU1@@Z:PROC ; get_next_system_sound_effect
EXTRN	?update_system_sound_effect_system@@YGXXZ:PROC	; update_system_sound_effect_system
EXTRN	?set_system_sound_listener_orientation@@YGXUVEC3D@@00@Z:PROC ; set_system_sound_listener_orientation
EXTRN	?get_sound_system_paused@@YGHXZ:PROC		; get_sound_system_paused
EXTRN	?get_application_sound_system_status@@YGHXZ:PROC ; get_application_sound_system_status
EXTRN	?bound_position_to_map_area@@YGHPAUVEC3D@@@Z:PROC ; bound_position_to_map_area
EXTRN	?null_entity_pointer_message@@3PBDB:DWORD	; null_entity_pointer_message
EXTRN	?world_map@@3UWORLD_MAP_DATA@@A:BYTE		; world_map
EXTRN	?overload_invalid_list_type_message@@3PBDB:DWORD ; overload_invalid_list_type_message
EXTRN	?fn_get_local_entity_first_child@@3PAY0CN@P6GPAUENTITY@@PAU1@W4LIST_TYPES@@@ZA:BYTE ; fn_get_local_entity_first_child
EXTRN	?fn_get_local_entity_parent@@3PAY0CN@P6GPAUENTITY@@PAU1@W4LIST_TYPES@@@ZA:BYTE ; fn_get_local_entity_parent
EXTRN	?fn_get_local_entity_child_succ@@3PAY0CN@P6GPAUENTITY@@PAU1@W4LIST_TYPES@@@ZA:BYTE ; fn_get_local_entity_child_succ
EXTRN	?overload_invalid_int_type_message@@3PBDB:DWORD	; overload_invalid_int_type_message
EXTRN	?fn_get_local_entity_int_value@@3PAY0BBH@P6GHPAUENTITY@@W4INT_TYPES@@@ZA:BYTE ; fn_get_local_entity_int_value
EXTRN	?overload_invalid_ptr_type_message@@3PBDB:DWORD	; overload_invalid_ptr_type_message
EXTRN	?fn_set_local_entity_ptr_value@@3PAY0BE@P6GXPAUENTITY@@W4PTR_TYPES@@PAX@ZA:BYTE ; fn_set_local_entity_ptr_value
EXTRN	?overload_invalid_vec3d_type_message@@3PBDB:DWORD ; overload_invalid_vec3d_type_message
EXTRN	?fn_get_local_entity_vec3d_ptr@@3PAY0BI@P6GPAUVEC3D@@PAUENTITY@@W4VEC3D_TYPES@@@ZA:BYTE ; fn_get_local_entity_vec3d_ptr
EXTRN	?entity_sector_map@@3PAPAUENTITY@@A:DWORD	; entity_sector_map
EXTRN	?null_sector_entity_map_pointer_message@@3PBDB:DWORD ; null_sector_entity_map_pointer_message
EXTRN	?session_entity@@3PAUENTITY@@A:DWORD		; session_entity
EXTRN	__fltused:DWORD
_BSS	SEGMENT
?max_3d_object_sound_range@@3MA DD 01H DUP (?)		; max_3d_object_sound_range
_BSS	ENDS
;	COMDAT __real@459c4000
CONST	SEGMENT
__real@459c4000 DD 0459c4000r			; 5000
CONST	ENDS
;	COMDAT ??_C@_1BC@BLAPCBGI@?$AAs?$AAt?$AAd?$AA?3?$AA?3?$AAm?$AAi?$AAn@
CONST	SEGMENT
??_C@_1BC@BLAPCBGI@?$AAs?$AAt?$AAd?$AA?3?$AA?3?$AAm?$AAi?$AAn@ DB 's', 00H
	DB	't', 00H, 'd', 00H, ':', 00H, ':', 00H, 'm', 00H, 'i', 00H, 'n'
	DB	00H, 00H, 00H				; `string'
CONST	ENDS
;	COMDAT ??_C@_1CK@NDNHPKPI@?$AA?$CC?$AAi?$AAn?$AAv?$AAa?$AAl?$AAi?$AAd?$AA?5?$AAc?$AAo?$AAm?$AAp?$AAa?$AAr@
CONST	SEGMENT
??_C@_1CK@NDNHPKPI@?$AA?$CC?$AAi?$AAn?$AAv?$AAa?$AAl?$AAi?$AAd?$AA?5?$AAc?$AAo?$AAm?$AAp?$AAa?$AAr@ DB '"'
	DB	00H, 'i', 00H, 'n', 00H, 'v', 00H, 'a', 00H, 'l', 00H, 'i', 00H
	DB	'd', 00H, ' ', 00H, 'c', 00H, 'o', 00H, 'm', 00H, 'p', 00H, 'a'
	DB	00H, 'r', 00H, 'a', 00H, 't', 00H, 'o', 00H, 'r', 00H, '"', 00H
	DB	00H, 00H					; `string'
CONST	ENDS
;	COMDAT ??_C@_1BC@ICCOKLEG@?$AAs?$AAt?$AAd?$AA?3?$AA?3?$AAm?$AAa?$AAx@
CONST	SEGMENT
??_C@_1BC@ICCOKLEG@?$AAs?$AAt?$AAd?$AA?3?$AA?3?$AAm?$AAa?$AAx@ DB 's', 00H
	DB	't', 00H, 'd', 00H, ':', 00H, ':', 00H, 'm', 00H, 'a', 00H, 'x'
	DB	00H, 00H, 00H				; `string'
CONST	ENDS
;	COMDAT ??_C@_1NE@FKBPBJEB@?$AAc?$AA?3?$AA?2?$AAp?$AAr?$AAo?$AAg?$AAr?$AAa?$AAm?$AA?5?$AAf?$AAi?$AAl?$AAe@
CONST	SEGMENT
??_C@_1NE@FKBPBJEB@?$AAc?$AA?3?$AA?2?$AAp?$AAr?$AAo?$AAg?$AAr?$AAa?$AAm?$AA?5?$AAf?$AAi?$AAl?$AAe@ DB 'c'
	DB	00H, ':', 00H, '\', 00H, 'p', 00H, 'r', 00H, 'o', 00H, 'g', 00H
	DB	'r', 00H, 'a', 00H, 'm', 00H, ' ', 00H, 'f', 00H, 'i', 00H, 'l'
	DB	00H, 'e', 00H, 's', 00H, ' ', 00H, '(', 00H, 'x', 00H, '8', 00H
	DB	'6', 00H, ')', 00H, '\', 00H, 'm', 00H, 'i', 00H, 'c', 00H, 'r'
	DB	00H, 'o', 00H, 's', 00H, 'o', 00H, 'f', 00H, 't', 00H, ' ', 00H
	DB	'v', 00H, 'i', 00H, 's', 00H, 'u', 00H, 'a', 00H, 'l', 00H, ' '
	DB	00H, 's', 00H, 't', 00H, 'u', 00H, 'd', 00H, 'i', 00H, 'o', 00H
	DB	'\', 00H, '2', 00H, '0', 00H, '1', 00H, '7', 00H, '\', 00H, 'c'
	DB	00H, 'o', 00H, 'm', 00H, 'm', 00H, 'u', 00H, 'n', 00H, 'i', 00H
	DB	't', 00H, 'y', 00H, '\', 00H, 'v', 00H, 'c', 00H, '\', 00H, 't'
	DB	00H, 'o', 00H, 'o', 00H, 'l', 00H, 's', 00H, '\', 00H, 'm', 00H
	DB	's', 00H, 'v', 00H, 'c', 00H, '\', 00H, '1', 00H, '4', 00H, '.'
	DB	00H, '1', 00H, '6', 00H, '.', 00H, '2', 00H, '7', 00H, '0', 00H
	DB	'2', 00H, '3', 00H, '\', 00H, 'i', 00H, 'n', 00H, 'c', 00H, 'l'
	DB	00H, 'u', 00H, 'd', 00H, 'e', 00H, '\', 00H, 'a', 00H, 'l', 00H
	DB	'g', 00H, 'o', 00H, 'r', 00H, 'i', 00H, 't', 00H, 'h', 00H, 'm'
	DB	00H, 00H, 00H				; `string'
CONST	ENDS
;	COMDAT ??_C@_0GK@JMBMHIBC@c?3?2program?5files?5?$CIx86?$CJ?2microsof@
CONST	SEGMENT
??_C@_0GK@JMBMHIBC@c?3?2program?5files?5?$CIx86?$CJ?2microsof@ DB 'c:\pro'
	DB	'gram files (x86)\microsoft visual studio\2017\community\vc\to'
	DB	'ols\msvc\14.16.27023\include\algorithm', 00H ; `string'
CONST	ENDS
;	COMDAT ??_C@_0BD@FEEMDEPI@invalid?5comparator@
CONST	SEGMENT
??_C@_0BD@FEEMDEPI@invalid?5comparator@ DB 'invalid comparator', 00H ; `string'
CONST	ENDS
;	COMDAT ?__LINE__Var@?0??stop_local_entity_sounds@@YGXXZ@4JA
_DATA	SEGMENT
?__LINE__Var@?0??stop_local_entity_sounds@@YGXXZ@4JA DD 0132H ; `stop_local_entity_sounds'::`1'::__LINE__Var
_DATA	ENDS
;	COMDAT ??_C@_02HPPNELPJ@vp@
CONST	SEGMENT
??_C@_02HPPNELPJ@vp@ DB 'vp', 00H			; `string'
CONST	ENDS
;	COMDAT ??_C@_0EM@MBHHOJGM@c?3?2users?2nhv90?2projects?2eech?2ap@
CONST	SEGMENT
??_C@_0EM@MBHHOJGM@c?3?2users?2nhv90?2projects?2eech?2ap@ DB 'c:\users\nh'
	DB	'v90\projects\eech\aphavoc\source\entity\system\en_funcs\en_sn'
	DB	'd.c', 00H					; `string'
CONST	ENDS
;	COMDAT ?__LINE__Var@?0??scan_local_entity_sounds@@YGXPAUVIEWPOINT@@@Z@4JA
_DATA	SEGMENT
?__LINE__Var@?0??scan_local_entity_sounds@@YGXPAUVIEWPOINT@@@Z@4JA DD 05dH ; `scan_local_entity_sounds'::`1'::__LINE__Var
_DATA	ENDS
;	COMDAT ??_C@_02DKCKIIND@?$CFs@
CONST	SEGMENT
??_C@_02DKCKIIND@?$CFs@ DB '%s', 00H			; `string'
CONST	ENDS
; Function compile flags: /Odtp /ZI
; File c:\users\nhv90\projects\eech\aphavoc\source\entity\system\en_funcs\en_snd.c
;	COMDAT ?default_play_entity_sound@@YGXPAUENTITY@@PAUVIEWPOINT@@M@Z
_TEXT	SEGMENT
_en$ = 8						; size = 4
_vp$ = 12						; size = 4
_range$ = 16						; size = 4
?default_play_entity_sound@@YGXPAUENTITY@@PAUVIEWPOINT@@M@Z PROC ; default_play_entity_sound, COMDAT

; 346  : {

  00000	55		 push	 ebp
  00001	8b ec		 mov	 ebp, esp
  00003	83 ec 40	 sub	 esp, 64			; 00000040H
  00006	53		 push	 ebx
  00007	56		 push	 esi
  00008	57		 push	 edi

; 347  : }

  00009	5f		 pop	 edi
  0000a	5e		 pop	 esi
  0000b	5b		 pop	 ebx
  0000c	8b e5		 mov	 esp, ebp
  0000e	5d		 pop	 ebp
  0000f	c2 0c 00	 ret	 12			; 0000000cH
?default_play_entity_sound@@YGXPAUENTITY@@PAUVIEWPOINT@@M@Z ENDP ; default_play_entity_sound
_TEXT	ENDS
; Function compile flags: /Odtp /ZI
; File c:\program files (x86)\microsoft visual studio\2017\community\vc\tools\msvc\14.16.27023\include\algorithm
;	COMDAT ??$min@H@std@@YGABHABH0@Z
_TEXT	SEGMENT
__Left$ = 8						; size = 4
__Right$ = 12						; size = 4
??$min@H@std@@YGABHABH0@Z PROC				; std::min<int>, COMDAT

; 5427 : 	{	// return smaller of _Left and _Right

  00000	55		 push	 ebp
  00001	8b ec		 mov	 ebp, esp
  00003	83 ec 40	 sub	 esp, 64			; 00000040H
  00006	53		 push	 ebx
  00007	56		 push	 esi
  00008	57		 push	 edi

; 5428 : 	if (_Right < _Left)

  00009	8b 45 0c	 mov	 eax, DWORD PTR __Right$[ebp]
  0000c	8b 4d 08	 mov	 ecx, DWORD PTR __Left$[ebp]
  0000f	8b 10		 mov	 edx, DWORD PTR [eax]
  00011	3b 11		 cmp	 edx, DWORD PTR [ecx]
  00013	7d 61		 jge	 SHORT $LN8@min
$LN4@min:

; 5429 : 		{
; 5430 : 		_STL_ASSERT(!(_Left < _Right), "invalid comparator");

  00015	8b 45 08	 mov	 eax, DWORD PTR __Left$[ebp]
  00018	8b 4d 0c	 mov	 ecx, DWORD PTR __Right$[ebp]
  0001b	8b 10		 mov	 edx, DWORD PTR [eax]
  0001d	3b 11		 cmp	 edx, DWORD PTR [ecx]
  0001f	7c 02		 jl	 SHORT $LN7@min
  00021	eb 4a		 jmp	 SHORT $LN2@min
$LN7@min:
  00023	68 00 00 00 00	 push	 OFFSET ??_C@_0BD@FEEMDEPI@invalid?5comparator@
  00028	68 00 00 00 00	 push	 OFFSET ??_C@_02DKCKIIND@?$CFs@
  0002d	6a 00		 push	 0
  0002f	68 36 15 00 00	 push	 5430			; 00001536H
  00034	68 00 00 00 00	 push	 OFFSET ??_C@_0GK@JMBMHIBC@c?3?2program?5files?5?$CIx86?$CJ?2microsof@
  00039	6a 02		 push	 2
  0003b	ff 15 00 00 00
	00		 call	 DWORD PTR __imp___CrtDbgReport
  00041	83 c4 18	 add	 esp, 24			; 00000018H
  00044	83 f8 01	 cmp	 eax, 1
  00047	75 01		 jne	 SHORT $LN12@min
  00049	cc		 int	 3
$LN12@min:
  0004a	6a 00		 push	 0
  0004c	68 36 15 00 00	 push	 5430			; 00001536H
  00051	68 00 00 00 00	 push	 OFFSET ??_C@_1NE@FKBPBJEB@?$AAc?$AA?3?$AA?2?$AAp?$AAr?$AAo?$AAg?$AAr?$AAa?$AAm?$AA?5?$AAf?$AAi?$AAl?$AAe@
  00056	68 00 00 00 00	 push	 OFFSET ??_C@_1BC@BLAPCBGI@?$AAs?$AAt?$AAd?$AA?3?$AA?3?$AAm?$AAi?$AAn@
  0005b	68 00 00 00 00	 push	 OFFSET ??_C@_1CK@NDNHPKPI@?$AA?$CC?$AAi?$AAn?$AAv?$AAa?$AAl?$AAi?$AAd?$AA?5?$AAc?$AAo?$AAm?$AAp?$AAa?$AAr@
  00060	ff 15 00 00 00
	00		 call	 DWORD PTR __imp___invalid_parameter
  00066	83 c4 14	 add	 esp, 20			; 00000014H
  00069	33 c0		 xor	 eax, eax
  0006b	75 b6		 jne	 SHORT $LN7@min
$LN2@min:
  0006d	33 c0		 xor	 eax, eax
  0006f	75 a4		 jne	 SHORT $LN4@min

; 5431 : 		return (_Right);

  00071	8b 45 0c	 mov	 eax, DWORD PTR __Right$[ebp]
  00074	eb 03		 jmp	 SHORT $LN11@min
$LN8@min:

; 5432 : 		}
; 5433 : 
; 5434 : 	return (_Left);

  00076	8b 45 08	 mov	 eax, DWORD PTR __Left$[ebp]
$LN11@min:

; 5435 : 	}

  00079	5f		 pop	 edi
  0007a	5e		 pop	 esi
  0007b	5b		 pop	 ebx
  0007c	8b e5		 mov	 esp, ebp
  0007e	5d		 pop	 ebp
  0007f	c2 08 00	 ret	 8
??$min@H@std@@YGABHABH0@Z ENDP				; std::min<int>
_TEXT	ENDS
; Function compile flags: /Odtp /ZI
; File c:\program files (x86)\microsoft visual studio\2017\community\vc\tools\msvc\14.16.27023\include\algorithm
;	COMDAT ??$max@H@std@@YGABHABH0@Z
_TEXT	SEGMENT
__Left$ = 8						; size = 4
__Right$ = 12						; size = 4
??$max@H@std@@YGABHABH0@Z PROC				; std::max<int>, COMDAT

; 5387 : 	{	// return larger of _Left and _Right

  00000	55		 push	 ebp
  00001	8b ec		 mov	 ebp, esp
  00003	83 ec 40	 sub	 esp, 64			; 00000040H
  00006	53		 push	 ebx
  00007	56		 push	 esi
  00008	57		 push	 edi

; 5388 : 	if (_Left < _Right)

  00009	8b 45 08	 mov	 eax, DWORD PTR __Left$[ebp]
  0000c	8b 4d 0c	 mov	 ecx, DWORD PTR __Right$[ebp]
  0000f	8b 10		 mov	 edx, DWORD PTR [eax]
  00011	3b 11		 cmp	 edx, DWORD PTR [ecx]
  00013	7d 61		 jge	 SHORT $LN8@max
$LN4@max:

; 5389 : 		{
; 5390 : 		_STL_ASSERT(!(_Right < _Left), "invalid comparator");

  00015	8b 45 0c	 mov	 eax, DWORD PTR __Right$[ebp]
  00018	8b 4d 08	 mov	 ecx, DWORD PTR __Left$[ebp]
  0001b	8b 10		 mov	 edx, DWORD PTR [eax]
  0001d	3b 11		 cmp	 edx, DWORD PTR [ecx]
  0001f	7c 02		 jl	 SHORT $LN7@max
  00021	eb 4a		 jmp	 SHORT $LN2@max
$LN7@max:
  00023	68 00 00 00 00	 push	 OFFSET ??_C@_0BD@FEEMDEPI@invalid?5comparator@
  00028	68 00 00 00 00	 push	 OFFSET ??_C@_02DKCKIIND@?$CFs@
  0002d	6a 00		 push	 0
  0002f	68 0e 15 00 00	 push	 5390			; 0000150eH
  00034	68 00 00 00 00	 push	 OFFSET ??_C@_0GK@JMBMHIBC@c?3?2program?5files?5?$CIx86?$CJ?2microsof@
  00039	6a 02		 push	 2
  0003b	ff 15 00 00 00
	00		 call	 DWORD PTR __imp___CrtDbgReport
  00041	83 c4 18	 add	 esp, 24			; 00000018H
  00044	83 f8 01	 cmp	 eax, 1
  00047	75 01		 jne	 SHORT $LN12@max
  00049	cc		 int	 3
$LN12@max:
  0004a	6a 00		 push	 0
  0004c	68 0e 15 00 00	 push	 5390			; 0000150eH
  00051	68 00 00 00 00	 push	 OFFSET ??_C@_1NE@FKBPBJEB@?$AAc?$AA?3?$AA?2?$AAp?$AAr?$AAo?$AAg?$AAr?$AAa?$AAm?$AA?5?$AAf?$AAi?$AAl?$AAe@
  00056	68 00 00 00 00	 push	 OFFSET ??_C@_1BC@ICCOKLEG@?$AAs?$AAt?$AAd?$AA?3?$AA?3?$AAm?$AAa?$AAx@
  0005b	68 00 00 00 00	 push	 OFFSET ??_C@_1CK@NDNHPKPI@?$AA?$CC?$AAi?$AAn?$AAv?$AAa?$AAl?$AAi?$AAd?$AA?5?$AAc?$AAo?$AAm?$AAp?$AAa?$AAr@
  00060	ff 15 00 00 00
	00		 call	 DWORD PTR __imp___invalid_parameter
  00066	83 c4 14	 add	 esp, 20			; 00000014H
  00069	33 c0		 xor	 eax, eax
  0006b	75 b6		 jne	 SHORT $LN7@max
$LN2@max:
  0006d	33 c0		 xor	 eax, eax
  0006f	75 a4		 jne	 SHORT $LN4@max

; 5391 : 		return (_Right);

  00071	8b 45 0c	 mov	 eax, DWORD PTR __Right$[ebp]
  00074	eb 03		 jmp	 SHORT $LN11@max
$LN8@max:

; 5392 : 		}
; 5393 : 
; 5394 : 	return (_Left);

  00076	8b 45 08	 mov	 eax, DWORD PTR __Left$[ebp]
$LN11@max:

; 5395 : 	}

  00079	5f		 pop	 edi
  0007a	5e		 pop	 esi
  0007b	5b		 pop	 ebx
  0007c	8b e5		 mov	 esp, ebp
  0007e	5d		 pop	 ebp
  0007f	c2 08 00	 ret	 8
??$max@H@std@@YGABHABH0@Z ENDP				; std::max<int>
_TEXT	ENDS
; Function compile flags: /Odtp /ZI
; File c:\users\nhv90\projects\eech\aphavoc\source\entity\system\en_funcs\en_snd.c
;	COMDAT ?initialise_entity_sound_default_functions@@YGXXZ
_TEXT	SEGMENT
_i$ = -4						; size = 4
?initialise_entity_sound_default_functions@@YGXXZ PROC	; initialise_entity_sound_default_functions, COMDAT

; 354  : {

  00000	55		 push	 ebp
  00001	8b ec		 mov	 ebp, esp
  00003	83 ec 44	 sub	 esp, 68			; 00000044H
  00006	53		 push	 ebx
  00007	56		 push	 esi
  00008	57		 push	 edi

; 355  : 
; 356  : 	int
; 357  : 		i;
; 358  : 
; 359  : 	max_3d_object_sound_range = DEBUG_3D_OBJECT_SOUND_RANGE;

  00009	f3 0f 10 05 00
	00 00 00	 movss	 xmm0, DWORD PTR __real@459c4000
  00011	f3 0f 11 05 00
	00 00 00	 movss	 DWORD PTR ?max_3d_object_sound_range@@3MA, xmm0

; 360  : 
; 361  : 	for (i = 0; i < NUM_ENTITY_TYPES; i++)

  00019	c7 45 fc 00 00
	00 00		 mov	 DWORD PTR _i$[ebp], 0
  00020	eb 09		 jmp	 SHORT $LN4@initialise
$LN2@initialise:
  00022	8b 45 fc	 mov	 eax, DWORD PTR _i$[ebp]
  00025	83 c0 01	 add	 eax, 1
  00028	89 45 fc	 mov	 DWORD PTR _i$[ebp], eax
$LN4@initialise:
  0002b	83 7d fc 26	 cmp	 DWORD PTR _i$[ebp], 38	; 00000026H
  0002f	7d 10		 jge	 SHORT $LN3@initialise

; 362  : 	{
; 363  : 
; 364  : 		fn_play_local_entity_sound[i]	= default_play_entity_sound;

  00031	8b 45 fc	 mov	 eax, DWORD PTR _i$[ebp]
  00034	c7 04 85 00 00
	00 00 00 00 00
	00		 mov	 DWORD PTR ?fn_play_local_entity_sound@@3PAP6GXPAUENTITY@@PAUVIEWPOINT@@M@ZA[eax*4], OFFSET ?default_play_entity_sound@@YGXPAUENTITY@@PAUVIEWPOINT@@M@Z ; default_play_entity_sound

; 365  : 	}

  0003f	eb e1		 jmp	 SHORT $LN2@initialise
$LN3@initialise:

; 366  : }

  00041	5f		 pop	 edi
  00042	5e		 pop	 esi
  00043	5b		 pop	 ebx
  00044	8b e5		 mov	 esp, ebp
  00046	5d		 pop	 ebp
  00047	c3		 ret	 0
?initialise_entity_sound_default_functions@@YGXXZ ENDP	; initialise_entity_sound_default_functions
_TEXT	ENDS
; Function compile flags: /Odtp /ZI
; File c:\users\nhv90\projects\eech\aphavoc\source\entity\system\en_funcs\en_snd.c
;	COMDAT ?stop_local_entity_sounds@@YGXXZ
_TEXT	SEGMENT
tv84 = -80						; size = 4
tv76 = -76						; size = 4
_en$ = -8						; size = 4
_snd_eff$ = -4						; size = 4
?stop_local_entity_sounds@@YGXXZ PROC			; stop_local_entity_sounds, COMDAT

; 306  : {

  00000	55		 push	 ebp
  00001	8b ec		 mov	 ebp, esp
  00003	83 ec 50	 sub	 esp, 80			; 00000050H
  00006	53		 push	 ebx
  00007	56		 push	 esi
  00008	57		 push	 edi

; 307  : 	struct SYSTEM_SOUND_EFFECT
; 308  : 		*snd_eff;
; 309  : 
; 310  : 	entity
; 311  : 		*en;
; 312  : 
; 313  : 	//
; 314  : 	// stop all sounds (not in the 3d visual)
; 315  : 	//
; 316  : 
; 317  : 	snd_eff = get_first_system_sound_effect ();

  00009	e8 00 00 00 00	 call	 ?get_first_system_sound_effect@@YGPAUSYSTEM_SOUND_EFFECT@@XZ ; get_first_system_sound_effect
  0000e	89 45 fc	 mov	 DWORD PTR _snd_eff$[ebp], eax
$LN2@stop_local:

; 318  : 
; 319  : 	while (snd_eff)

  00011	83 7d fc 00	 cmp	 DWORD PTR _snd_eff$[ebp], 0
  00015	0f 84 ac 00 00
	00		 je	 $LN1@stop_local

; 320  : 	{
; 321  : 
; 322  : 		en = (entity *) get_system_sound_effect_user_data (snd_eff);

  0001b	8b 45 fc	 mov	 eax, DWORD PTR _snd_eff$[ebp]
  0001e	50		 push	 eax
  0001f	e8 00 00 00 00	 call	 ?get_system_sound_effect_user_data@@YGPAXPAUSYSTEM_SOUND_EFFECT@@@Z ; get_system_sound_effect_user_data
  00024	89 45 f8	 mov	 DWORD PTR _en$[ebp], eax

; 323  : 
; 324  : 		if (en)

  00027	83 7d f8 00	 cmp	 DWORD PTR _en$[ebp], 0
  0002b	0f 84 85 00 00
	00		 je	 $LN4@stop_local

; 325  : 		{
; 326  : 			destroy_system_sound_effect (snd_eff);

  00031	8b 45 fc	 mov	 eax, DWORD PTR _snd_eff$[ebp]
  00034	50		 push	 eax
  00035	e8 00 00 00 00	 call	 ?destroy_system_sound_effect@@YGXPAUSYSTEM_SOUND_EFFECT@@@Z ; destroy_system_sound_effect

; 327  : 
; 328  : 			set_local_entity_ptr_value (en, PTR_TYPE_SOUND_EFFECT_DATA, NULL);

  0003a	83 7d f8 00	 cmp	 DWORD PTR _en$[ebp], 0
  0003e	74 0a		 je	 SHORT $LN6@stop_local
  00040	8b 45 f8	 mov	 eax, DWORD PTR _en$[ebp]
  00043	8b 08		 mov	 ecx, DWORD PTR [eax]
  00045	89 4d b4	 mov	 DWORD PTR tv76[ebp], ecx
  00048	eb 21		 jmp	 SHORT $LN7@stop_local
$LN6@stop_local:
  0004a	8b 15 00 00 00
	00		 mov	 edx, DWORD PTR ?__LINE__Var@?0??stop_local_entity_sounds@@YGXXZ@4JA
  00050	83 c2 16	 add	 edx, 22			; 00000016H
  00053	52		 push	 edx
  00054	68 00 00 00 00	 push	 OFFSET ??_C@_0EM@MBHHOJGM@c?3?2users?2nhv90?2projects?2eech?2ap@
  00059	a1 00 00 00 00	 mov	 eax, DWORD PTR ?null_entity_pointer_message@@3PBDB ; null_entity_pointer_message
  0005e	50		 push	 eax
  0005f	e8 00 00 00 00	 call	 ?process_assert@@YGXPBD0H@Z ; process_assert
  00064	c7 45 b4 00 00
	00 00		 mov	 DWORD PTR tv76[ebp], 0
$LN7@stop_local:
  0006b	b9 01 00 00 00	 mov	 ecx, 1
  00070	85 c9		 test	 ecx, ecx
  00072	74 09		 je	 SHORT $LN8@stop_local
  00074	c7 45 b0 0e 00
	00 00		 mov	 DWORD PTR tv84[ebp], 14	; 0000000eH
  0007b	eb 21		 jmp	 SHORT $LN9@stop_local
$LN8@stop_local:
  0007d	8b 15 00 00 00
	00		 mov	 edx, DWORD PTR ?__LINE__Var@?0??stop_local_entity_sounds@@YGXXZ@4JA
  00083	83 c2 16	 add	 edx, 22			; 00000016H
  00086	52		 push	 edx
  00087	68 00 00 00 00	 push	 OFFSET ??_C@_0EM@MBHHOJGM@c?3?2users?2nhv90?2projects?2eech?2ap@
  0008c	a1 00 00 00 00	 mov	 eax, DWORD PTR ?overload_invalid_ptr_type_message@@3PBDB ; overload_invalid_ptr_type_message
  00091	50		 push	 eax
  00092	e8 00 00 00 00	 call	 ?process_assert@@YGXPBD0H@Z ; process_assert
  00097	c7 45 b0 00 00
	00 00		 mov	 DWORD PTR tv84[ebp], 0
$LN9@stop_local:
  0009e	6a 00		 push	 0
  000a0	6a 0e		 push	 14			; 0000000eH
  000a2	8b 4d f8	 mov	 ecx, DWORD PTR _en$[ebp]
  000a5	51		 push	 ecx
  000a6	6b 55 b4 50	 imul	 edx, DWORD PTR tv76[ebp], 80
  000aa	8b 45 b0	 mov	 eax, DWORD PTR tv84[ebp]
  000ad	8b 8c 82 00 00
	00 00		 mov	 ecx, DWORD PTR ?fn_set_local_entity_ptr_value@@3PAY0BE@P6GXPAUENTITY@@W4PTR_TYPES@@PAX@ZA[edx+eax*4]
  000b4	ff d1		 call	 ecx
$LN4@stop_local:

; 329  : 		}
; 330  : 
; 331  : 		snd_eff = get_next_system_sound_effect (snd_eff);

  000b6	8b 45 fc	 mov	 eax, DWORD PTR _snd_eff$[ebp]
  000b9	50		 push	 eax
  000ba	e8 00 00 00 00	 call	 ?get_next_system_sound_effect@@YGPAUSYSTEM_SOUND_EFFECT@@PAU1@@Z ; get_next_system_sound_effect
  000bf	89 45 fc	 mov	 DWORD PTR _snd_eff$[ebp], eax

; 332  : 	}

  000c2	e9 4a ff ff ff	 jmp	 $LN2@stop_local
$LN1@stop_local:

; 333  : }

  000c7	5f		 pop	 edi
  000c8	5e		 pop	 esi
  000c9	5b		 pop	 ebx
  000ca	8b e5		 mov	 esp, ebp
  000cc	5d		 pop	 ebp
  000cd	c3		 ret	 0
?stop_local_entity_sounds@@YGXXZ ENDP			; stop_local_entity_sounds
_TEXT	ENDS
; Function compile flags: /Odtp /ZI
; File c:\users\nhv90\projects\eech\aphavoc\source\entity\system\en_funcs\en_snd.c
;	COMDAT ?scan_local_entity_sounds@@YGXPAUVIEWPOINT@@@Z
_TEXT	SEGMENT
tv529 = -136						; size = 4
tv503 = -136						; size = 4
tv482 = -136						; size = 4
tv463 = -136						; size = 4
tv434 = -136						; size = 4
tv414 = -136						; size = 4
tv374 = -136						; size = 4
tv349 = -136						; size = 4
tv328 = -136						; size = 4
tv309 = -136						; size = 4
tv289 = -136						; size = 4
tv252 = -136						; size = 4
tv231 = -136						; size = 4
tv158 = -136						; size = 4
tv93 = -136						; size = 4
tv521 = -132						; size = 4
tv495 = -132						; size = 4
tv475 = -132						; size = 4
tv455 = -132						; size = 4
tv426 = -132						; size = 4
tv406 = -132						; size = 4
tv394 = -132						; size = 4
tv386 = -132						; size = 4
tv366 = -132						; size = 4
tv341 = -132						; size = 4
tv321 = -132						; size = 4
tv301 = -132						; size = 4
tv281 = -132						; size = 4
tv269 = -132						; size = 4
tv244 = -132						; size = 4
tv223 = -132						; size = 4
tv216 = -132						; size = 4
tv150 = -132						; size = 4
tv138 = -132						; size = 4
tv85 = -132						; size = 4
_snd_eff$ = -64						; size = 4
_max_range$ = -60					; size = 4
_range$ = -56						; size = 4
_position$ = -52					; size = 4
_scan_origin$ = -48					; size = 12
_parent$ = -36						; size = 4
_en$ = -32						; size = 4
_sctr$ = -28						; size = 4
_z_sec$ = -24						; size = 4
_x_sec$ = -20						; size = 4
_z_sec_max$ = -16					; size = 4
_x_sec_max$ = -12					; size = 4
_z_sec_min$ = -8					; size = 4
_x_sec_min$ = -4					; size = 4
_vp$ = 8						; size = 4
?scan_local_entity_sounds@@YGXPAUVIEWPOINT@@@Z PROC	; scan_local_entity_sounds, COMDAT

; 93   : {

  00000	55		 push	 ebp
  00001	8b ec		 mov	 ebp, esp
  00003	81 ec 88 00 00
	00		 sub	 esp, 136		; 00000088H
  00009	53		 push	 ebx
  0000a	56		 push	 esi
  0000b	57		 push	 edi

; 94   : 
; 95   : 	int
; 96   : 		x_sec_min,
; 97   : 		z_sec_min,
; 98   : 		x_sec_max,
; 99   : 		z_sec_max,
; 100  : 		x_sec,
; 101  : 		z_sec;
; 102  : 
; 103  : 	entity
; 104  : 		*sctr,
; 105  : 		*en,
; 106  : 		*parent;
; 107  : 
; 108  : 	vec3d
; 109  : 		scan_origin,
; 110  : 		*position;
; 111  : 
; 112  : 	float
; 113  : 		range,
; 114  : 		max_range;
; 115  : 
; 116  : 	struct SYSTEM_SOUND_EFFECT
; 117  : 		*snd_eff;
; 118  : 
; 119  : 	ASSERT (vp);

  0000c	83 7d 08 00	 cmp	 DWORD PTR _vp$[ebp], 0
  00010	75 18		 jne	 SHORT $LN18@scan_local
  00012	a1 00 00 00 00	 mov	 eax, DWORD PTR ?__LINE__Var@?0??scan_local_entity_sounds@@YGXPAUVIEWPOINT@@@Z@4JA
  00017	83 c0 1a	 add	 eax, 26			; 0000001aH
  0001a	50		 push	 eax
  0001b	68 00 00 00 00	 push	 OFFSET ??_C@_0EM@MBHHOJGM@c?3?2users?2nhv90?2projects?2eech?2ap@
  00020	68 00 00 00 00	 push	 OFFSET ??_C@_02HPPNELPJ@vp@
  00025	e8 00 00 00 00	 call	 ?process_assert@@YGXPBD0H@Z ; process_assert
$LN18@scan_local:

; 120  : 
; 121  : 	if (!get_application_sound_system_status ())

  0002a	e8 00 00 00 00	 call	 ?get_application_sound_system_status@@YGHXZ ; get_application_sound_system_status
  0002f	85 c0		 test	 eax, eax
  00031	75 05		 jne	 SHORT $LN19@scan_local

; 122  : 	{
; 123  : 		return;

  00033	e9 36 0d 00 00	 jmp	 $LN1@scan_local
$LN19@scan_local:

; 124  : 	}
; 125  : 
; 126  : 	if (get_sound_system_paused ())

  00038	e8 00 00 00 00	 call	 ?get_sound_system_paused@@YGHXZ ; get_sound_system_paused
  0003d	85 c0		 test	 eax, eax
  0003f	74 05		 je	 SHORT $LN20@scan_local

; 127  : 	{
; 128  : 		return;

  00041	e9 28 0d 00 00	 jmp	 $LN1@scan_local
$LN20@scan_local:

; 129  : 	}
; 130  : 
; 131  : 	// Casm 07DEC09 OpenAL support
; 132  : 	set_system_sound_listener_orientation ( vp->zv, vp->yv, vp->zv );

  00046	8b 45 08	 mov	 eax, DWORD PTR _vp$[ebp]
  00049	83 c0 24	 add	 eax, 36			; 00000024H
  0004c	83 ec 0c	 sub	 esp, 12			; 0000000cH
  0004f	8b cc		 mov	 ecx, esp
  00051	8b 10		 mov	 edx, DWORD PTR [eax]
  00053	89 11		 mov	 DWORD PTR [ecx], edx
  00055	8b 50 04	 mov	 edx, DWORD PTR [eax+4]
  00058	89 51 04	 mov	 DWORD PTR [ecx+4], edx
  0005b	8b 40 08	 mov	 eax, DWORD PTR [eax+8]
  0005e	89 41 08	 mov	 DWORD PTR [ecx+8], eax
  00061	8b 4d 08	 mov	 ecx, DWORD PTR _vp$[ebp]
  00064	83 c1 18	 add	 ecx, 24			; 00000018H
  00067	83 ec 0c	 sub	 esp, 12			; 0000000cH
  0006a	8b d4		 mov	 edx, esp
  0006c	8b 01		 mov	 eax, DWORD PTR [ecx]
  0006e	89 02		 mov	 DWORD PTR [edx], eax
  00070	8b 41 04	 mov	 eax, DWORD PTR [ecx+4]
  00073	89 42 04	 mov	 DWORD PTR [edx+4], eax
  00076	8b 49 08	 mov	 ecx, DWORD PTR [ecx+8]
  00079	89 4a 08	 mov	 DWORD PTR [edx+8], ecx
  0007c	8b 55 08	 mov	 edx, DWORD PTR _vp$[ebp]
  0007f	83 c2 24	 add	 edx, 36			; 00000024H
  00082	83 ec 0c	 sub	 esp, 12			; 0000000cH
  00085	8b c4		 mov	 eax, esp
  00087	8b 0a		 mov	 ecx, DWORD PTR [edx]
  00089	89 08		 mov	 DWORD PTR [eax], ecx
  0008b	8b 4a 04	 mov	 ecx, DWORD PTR [edx+4]
  0008e	89 48 04	 mov	 DWORD PTR [eax+4], ecx
  00091	8b 52 08	 mov	 edx, DWORD PTR [edx+8]
  00094	89 50 08	 mov	 DWORD PTR [eax+8], edx
  00097	e8 00 00 00 00	 call	 ?set_system_sound_listener_orientation@@YGXUVEC3D@@00@Z ; set_system_sound_listener_orientation

; 133  : 
; 134  : 	//
; 135  : 	// update playing samples
; 136  : 	//
; 137  : 
; 138  : 	update_system_sound_effect_system ();

  0009c	e8 00 00 00 00	 call	 ?update_system_sound_effect_system@@YGXXZ ; update_system_sound_effect_system

; 139  : 
; 140  : 	//
; 141  : 	// play session sound effects
; 142  : 	//
; 143  : 			
; 144  : 	en = get_local_entity_first_child (get_session_entity (), LIST_TYPE_SPECIAL_EFFECT);

  000a1	83 3d 00 00 00
	00 00		 cmp	 DWORD PTR ?session_entity@@3PAUENTITY@@A, 0 ; session_entity
  000a8	74 0f		 je	 SHORT $LN32@scan_local
  000aa	a1 00 00 00 00	 mov	 eax, DWORD PTR ?session_entity@@3PAUENTITY@@A ; session_entity
  000af	8b 08		 mov	 ecx, DWORD PTR [eax]
  000b1	89 8d 7c ff ff
	ff		 mov	 DWORD PTR tv85[ebp], ecx
  000b7	eb 24		 jmp	 SHORT $LN33@scan_local
$LN32@scan_local:
  000b9	8b 15 00 00 00
	00		 mov	 edx, DWORD PTR ?__LINE__Var@?0??scan_local_entity_sounds@@YGXPAUVIEWPOINT@@@Z@4JA
  000bf	83 c2 33	 add	 edx, 51			; 00000033H
  000c2	52		 push	 edx
  000c3	68 00 00 00 00	 push	 OFFSET ??_C@_0EM@MBHHOJGM@c?3?2users?2nhv90?2projects?2eech?2ap@
  000c8	a1 00 00 00 00	 mov	 eax, DWORD PTR ?null_entity_pointer_message@@3PBDB ; null_entity_pointer_message
  000cd	50		 push	 eax
  000ce	e8 00 00 00 00	 call	 ?process_assert@@YGXPBD0H@Z ; process_assert
  000d3	c7 85 7c ff ff
	ff 00 00 00 00	 mov	 DWORD PTR tv85[ebp], 0
$LN33@scan_local:
  000dd	b9 01 00 00 00	 mov	 ecx, 1
  000e2	85 c9		 test	 ecx, ecx
  000e4	74 0c		 je	 SHORT $LN34@scan_local
  000e6	c7 85 78 ff ff
	ff 24 00 00 00	 mov	 DWORD PTR tv93[ebp], 36	; 00000024H
  000f0	eb 24		 jmp	 SHORT $LN35@scan_local
$LN34@scan_local:
  000f2	8b 15 00 00 00
	00		 mov	 edx, DWORD PTR ?__LINE__Var@?0??scan_local_entity_sounds@@YGXPAUVIEWPOINT@@@Z@4JA
  000f8	83 c2 33	 add	 edx, 51			; 00000033H
  000fb	52		 push	 edx
  000fc	68 00 00 00 00	 push	 OFFSET ??_C@_0EM@MBHHOJGM@c?3?2users?2nhv90?2projects?2eech?2ap@
  00101	a1 00 00 00 00	 mov	 eax, DWORD PTR ?overload_invalid_list_type_message@@3PBDB ; overload_invalid_list_type_message
  00106	50		 push	 eax
  00107	e8 00 00 00 00	 call	 ?process_assert@@YGXPBD0H@Z ; process_assert
  0010c	c7 85 78 ff ff
	ff 00 00 00 00	 mov	 DWORD PTR tv93[ebp], 0
$LN35@scan_local:
  00116	6a 24		 push	 36			; 00000024H
  00118	8b 0d 00 00 00
	00		 mov	 ecx, DWORD PTR ?session_entity@@3PAUENTITY@@A ; session_entity
  0011e	51		 push	 ecx
  0011f	69 95 7c ff ff
	ff b4 00 00 00	 imul	 edx, DWORD PTR tv85[ebp], 180
  00129	8b 85 78 ff ff
	ff		 mov	 eax, DWORD PTR tv93[ebp]
  0012f	8b 8c 82 00 00
	00 00		 mov	 ecx, DWORD PTR ?fn_get_local_entity_first_child@@3PAY0CN@P6GPAUENTITY@@PAU1@W4LIST_TYPES@@@ZA[edx+eax*4]
  00136	ff d1		 call	 ecx
  00138	89 45 e0	 mov	 DWORD PTR _en$[ebp], eax
$LN2@scan_local:

; 145  : 
; 146  : 	while (en)

  0013b	83 7d e0 00	 cmp	 DWORD PTR _en$[ebp], 0
  0013f	0f 84 ee 00 00
	00		 je	 $LN3@scan_local

; 147  : 	{
; 148  : 		play_local_entity_sound (en, vp, 0.0);

  00145	83 7d e0 00	 cmp	 DWORD PTR _en$[ebp], 0
  00149	74 0d		 je	 SHORT $LN36@scan_local
  0014b	8b 45 e0	 mov	 eax, DWORD PTR _en$[ebp]
  0014e	8b 08		 mov	 ecx, DWORD PTR [eax]
  00150	89 8d 7c ff ff
	ff		 mov	 DWORD PTR tv138[ebp], ecx
  00156	eb 24		 jmp	 SHORT $LN37@scan_local
$LN36@scan_local:
  00158	8b 15 00 00 00
	00		 mov	 edx, DWORD PTR ?__LINE__Var@?0??scan_local_entity_sounds@@YGXPAUVIEWPOINT@@@Z@4JA
  0015e	83 c2 37	 add	 edx, 55			; 00000037H
  00161	52		 push	 edx
  00162	68 00 00 00 00	 push	 OFFSET ??_C@_0EM@MBHHOJGM@c?3?2users?2nhv90?2projects?2eech?2ap@
  00167	a1 00 00 00 00	 mov	 eax, DWORD PTR ?null_entity_pointer_message@@3PBDB ; null_entity_pointer_message
  0016c	50		 push	 eax
  0016d	e8 00 00 00 00	 call	 ?process_assert@@YGXPBD0H@Z ; process_assert
  00172	c7 85 7c ff ff
	ff 00 00 00 00	 mov	 DWORD PTR tv138[ebp], 0
$LN37@scan_local:
  0017c	51		 push	 ecx
  0017d	0f 57 c0	 xorps	 xmm0, xmm0
  00180	f3 0f 11 04 24	 movss	 DWORD PTR [esp], xmm0
  00185	8b 4d 08	 mov	 ecx, DWORD PTR _vp$[ebp]
  00188	51		 push	 ecx
  00189	8b 55 e0	 mov	 edx, DWORD PTR _en$[ebp]
  0018c	52		 push	 edx
  0018d	8b 85 7c ff ff
	ff		 mov	 eax, DWORD PTR tv138[ebp]
  00193	8b 0c 85 00 00
	00 00		 mov	 ecx, DWORD PTR ?fn_play_local_entity_sound@@3PAP6GXPAUENTITY@@PAUVIEWPOINT@@M@ZA[eax*4]
  0019a	ff d1		 call	 ecx

; 149  : 
; 150  : 		en = get_local_entity_child_succ (en, LIST_TYPE_SPECIAL_EFFECT);

  0019c	83 7d e0 00	 cmp	 DWORD PTR _en$[ebp], 0
  001a0	74 0d		 je	 SHORT $LN38@scan_local
  001a2	8b 45 e0	 mov	 eax, DWORD PTR _en$[ebp]
  001a5	8b 08		 mov	 ecx, DWORD PTR [eax]
  001a7	89 8d 7c ff ff
	ff		 mov	 DWORD PTR tv150[ebp], ecx
  001ad	eb 24		 jmp	 SHORT $LN39@scan_local
$LN38@scan_local:
  001af	8b 15 00 00 00
	00		 mov	 edx, DWORD PTR ?__LINE__Var@?0??scan_local_entity_sounds@@YGXPAUVIEWPOINT@@@Z@4JA
  001b5	83 c2 39	 add	 edx, 57			; 00000039H
  001b8	52		 push	 edx
  001b9	68 00 00 00 00	 push	 OFFSET ??_C@_0EM@MBHHOJGM@c?3?2users?2nhv90?2projects?2eech?2ap@
  001be	a1 00 00 00 00	 mov	 eax, DWORD PTR ?null_entity_pointer_message@@3PBDB ; null_entity_pointer_message
  001c3	50		 push	 eax
  001c4	e8 00 00 00 00	 call	 ?process_assert@@YGXPBD0H@Z ; process_assert
  001c9	c7 85 7c ff ff
	ff 00 00 00 00	 mov	 DWORD PTR tv150[ebp], 0
$LN39@scan_local:
  001d3	b9 01 00 00 00	 mov	 ecx, 1
  001d8	85 c9		 test	 ecx, ecx
  001da	74 0c		 je	 SHORT $LN40@scan_local
  001dc	c7 85 78 ff ff
	ff 24 00 00 00	 mov	 DWORD PTR tv158[ebp], 36 ; 00000024H
  001e6	eb 24		 jmp	 SHORT $LN41@scan_local
$LN40@scan_local:
  001e8	8b 15 00 00 00
	00		 mov	 edx, DWORD PTR ?__LINE__Var@?0??scan_local_entity_sounds@@YGXPAUVIEWPOINT@@@Z@4JA
  001ee	83 c2 39	 add	 edx, 57			; 00000039H
  001f1	52		 push	 edx
  001f2	68 00 00 00 00	 push	 OFFSET ??_C@_0EM@MBHHOJGM@c?3?2users?2nhv90?2projects?2eech?2ap@
  001f7	a1 00 00 00 00	 mov	 eax, DWORD PTR ?overload_invalid_list_type_message@@3PBDB ; overload_invalid_list_type_message
  001fc	50		 push	 eax
  001fd	e8 00 00 00 00	 call	 ?process_assert@@YGXPBD0H@Z ; process_assert
  00202	c7 85 78 ff ff
	ff 00 00 00 00	 mov	 DWORD PTR tv158[ebp], 0
$LN41@scan_local:
  0020c	6a 24		 push	 36			; 00000024H
  0020e	8b 4d e0	 mov	 ecx, DWORD PTR _en$[ebp]
  00211	51		 push	 ecx
  00212	69 95 7c ff ff
	ff b4 00 00 00	 imul	 edx, DWORD PTR tv150[ebp], 180
  0021c	8b 85 78 ff ff
	ff		 mov	 eax, DWORD PTR tv158[ebp]
  00222	8b 8c 82 00 00
	00 00		 mov	 ecx, DWORD PTR ?fn_get_local_entity_child_succ@@3PAY0CN@P6GPAUENTITY@@PAU1@W4LIST_TYPES@@@ZA[edx+eax*4]
  00229	ff d1		 call	 ecx
  0022b	89 45 e0	 mov	 DWORD PTR _en$[ebp], eax

; 151  : 	}

  0022e	e9 08 ff ff ff	 jmp	 $LN2@scan_local
$LN3@scan_local:

; 152  : 
; 153  : 	//
; 154  : 	// play local sound effects
; 155  : 	//
; 156  : 
; 157  : 	scan_origin = vp->position;

  00233	8b 45 08	 mov	 eax, DWORD PTR _vp$[ebp]
  00236	8b 08		 mov	 ecx, DWORD PTR [eax]
  00238	89 4d d0	 mov	 DWORD PTR _scan_origin$[ebp], ecx
  0023b	8b 50 04	 mov	 edx, DWORD PTR [eax+4]
  0023e	89 55 d4	 mov	 DWORD PTR _scan_origin$[ebp+4], edx
  00241	8b 40 08	 mov	 eax, DWORD PTR [eax+8]
  00244	89 45 d8	 mov	 DWORD PTR _scan_origin$[ebp+8], eax

; 158  : 
; 159  : 	bound_position_to_map_area (&scan_origin);

  00247	8d 45 d0	 lea	 eax, DWORD PTR _scan_origin$[ebp]
  0024a	50		 push	 eax
  0024b	e8 00 00 00 00	 call	 ?bound_position_to_map_area@@YGHPAUVEC3D@@@Z ; bound_position_to_map_area

; 160  : 
; 161  : 	get_x_sector (x_sec_min, scan_origin.x - max_3d_object_sound_range);

  00250	8d 45 fc	 lea	 eax, DWORD PTR _x_sec_min$[ebp]
  00253	50		 push	 eax
  00254	f3 0f 10 45 d0	 movss	 xmm0, DWORD PTR _scan_origin$[ebp]
  00259	f3 0f 5c 05 00
	00 00 00	 subss	 xmm0, DWORD PTR ?max_3d_object_sound_range@@3MA
  00261	51		 push	 ecx
  00262	f3 0f 11 04 24	 movss	 DWORD PTR [esp], xmm0
  00267	e8 00 00 00 00	 call	 ?convert_float_to_int@@YGXMPAH@Z ; convert_float_to_int
  0026c	8b 45 fc	 mov	 eax, DWORD PTR _x_sec_min$[ebp]
  0026f	99		 cdq
  00270	f7 3d 00 00 00
	00		 idiv	 DWORD PTR ?world_map@@3UWORLD_MAP_DATA@@A
  00276	89 45 fc	 mov	 DWORD PTR _x_sec_min$[ebp], eax

; 162  : 	get_z_sector (z_sec_min, scan_origin.z - max_3d_object_sound_range);

  00279	8d 45 f8	 lea	 eax, DWORD PTR _z_sec_min$[ebp]
  0027c	50		 push	 eax
  0027d	f3 0f 10 45 d8	 movss	 xmm0, DWORD PTR _scan_origin$[ebp+8]
  00282	f3 0f 5c 05 00
	00 00 00	 subss	 xmm0, DWORD PTR ?max_3d_object_sound_range@@3MA
  0028a	51		 push	 ecx
  0028b	f3 0f 11 04 24	 movss	 DWORD PTR [esp], xmm0
  00290	e8 00 00 00 00	 call	 ?convert_float_to_int@@YGXMPAH@Z ; convert_float_to_int
  00295	8b 45 f8	 mov	 eax, DWORD PTR _z_sec_min$[ebp]
  00298	99		 cdq
  00299	f7 3d 00 00 00
	00		 idiv	 DWORD PTR ?world_map@@3UWORLD_MAP_DATA@@A
  0029f	89 45 f8	 mov	 DWORD PTR _z_sec_min$[ebp], eax

; 163  : 
; 164  : 	get_x_sector (x_sec_max, scan_origin.x + max_3d_object_sound_range);

  002a2	8d 45 f4	 lea	 eax, DWORD PTR _x_sec_max$[ebp]
  002a5	50		 push	 eax
  002a6	f3 0f 10 45 d0	 movss	 xmm0, DWORD PTR _scan_origin$[ebp]
  002ab	f3 0f 58 05 00
	00 00 00	 addss	 xmm0, DWORD PTR ?max_3d_object_sound_range@@3MA
  002b3	51		 push	 ecx
  002b4	f3 0f 11 04 24	 movss	 DWORD PTR [esp], xmm0
  002b9	e8 00 00 00 00	 call	 ?convert_float_to_int@@YGXMPAH@Z ; convert_float_to_int
  002be	8b 45 f4	 mov	 eax, DWORD PTR _x_sec_max$[ebp]
  002c1	99		 cdq
  002c2	f7 3d 00 00 00
	00		 idiv	 DWORD PTR ?world_map@@3UWORLD_MAP_DATA@@A
  002c8	89 45 f4	 mov	 DWORD PTR _x_sec_max$[ebp], eax

; 165  : 	get_z_sector (z_sec_max, scan_origin.z + max_3d_object_sound_range);

  002cb	8d 45 f0	 lea	 eax, DWORD PTR _z_sec_max$[ebp]
  002ce	50		 push	 eax
  002cf	f3 0f 10 45 d8	 movss	 xmm0, DWORD PTR _scan_origin$[ebp+8]
  002d4	f3 0f 58 05 00
	00 00 00	 addss	 xmm0, DWORD PTR ?max_3d_object_sound_range@@3MA
  002dc	51		 push	 ecx
  002dd	f3 0f 11 04 24	 movss	 DWORD PTR [esp], xmm0
  002e2	e8 00 00 00 00	 call	 ?convert_float_to_int@@YGXMPAH@Z ; convert_float_to_int
  002e7	8b 45 f0	 mov	 eax, DWORD PTR _z_sec_max$[ebp]
  002ea	99		 cdq
  002eb	f7 3d 00 00 00
	00		 idiv	 DWORD PTR ?world_map@@3UWORLD_MAP_DATA@@A
  002f1	89 45 f0	 mov	 DWORD PTR _z_sec_max$[ebp], eax

; 166  : 
; 167  : 	x_sec_min = max (x_sec_min, MIN_MAP_X_SECTOR);

  002f4	68 14 00 00 00	 push	 OFFSET ?world_map@@3UWORLD_MAP_DATA@@A+20
  002f9	8d 45 fc	 lea	 eax, DWORD PTR _x_sec_min$[ebp]
  002fc	50		 push	 eax
  002fd	e8 00 00 00 00	 call	 ??$max@H@std@@YGABHABH0@Z ; std::max<int>
  00302	8b 08		 mov	 ecx, DWORD PTR [eax]
  00304	89 4d fc	 mov	 DWORD PTR _x_sec_min$[ebp], ecx

; 168  : 	z_sec_min = max (z_sec_min, MIN_MAP_Z_SECTOR);

  00307	68 18 00 00 00	 push	 OFFSET ?world_map@@3UWORLD_MAP_DATA@@A+24
  0030c	8d 45 f8	 lea	 eax, DWORD PTR _z_sec_min$[ebp]
  0030f	50		 push	 eax
  00310	e8 00 00 00 00	 call	 ??$max@H@std@@YGABHABH0@Z ; std::max<int>
  00315	8b 08		 mov	 ecx, DWORD PTR [eax]
  00317	89 4d f8	 mov	 DWORD PTR _z_sec_min$[ebp], ecx

; 169  : 
; 170  : 	x_sec_max = min (x_sec_max, MAX_MAP_X_SECTOR);

  0031a	68 1c 00 00 00	 push	 OFFSET ?world_map@@3UWORLD_MAP_DATA@@A+28
  0031f	8d 45 f4	 lea	 eax, DWORD PTR _x_sec_max$[ebp]
  00322	50		 push	 eax
  00323	e8 00 00 00 00	 call	 ??$min@H@std@@YGABHABH0@Z ; std::min<int>
  00328	8b 08		 mov	 ecx, DWORD PTR [eax]
  0032a	89 4d f4	 mov	 DWORD PTR _x_sec_max$[ebp], ecx

; 171  : 	z_sec_max = min (z_sec_max, MAX_MAP_Z_SECTOR);

  0032d	68 20 00 00 00	 push	 OFFSET ?world_map@@3UWORLD_MAP_DATA@@A+32
  00332	8d 45 f0	 lea	 eax, DWORD PTR _z_sec_max$[ebp]
  00335	50		 push	 eax
  00336	e8 00 00 00 00	 call	 ??$min@H@std@@YGABHABH0@Z ; std::min<int>
  0033b	8b 08		 mov	 ecx, DWORD PTR [eax]
  0033d	89 4d f0	 mov	 DWORD PTR _z_sec_max$[ebp], ecx

; 172  : 
; 173  : 	//
; 174  : 	// Scan for valid sound effects
; 175  : 	//
; 176  : 
; 177  : 	for (z_sec = z_sec_min; z_sec <= z_sec_max; z_sec++)

  00340	8b 45 f8	 mov	 eax, DWORD PTR _z_sec_min$[ebp]
  00343	89 45 e8	 mov	 DWORD PTR _z_sec$[ebp], eax
  00346	eb 09		 jmp	 SHORT $LN6@scan_local
$LN4@scan_local:
  00348	8b 45 e8	 mov	 eax, DWORD PTR _z_sec$[ebp]
  0034b	83 c0 01	 add	 eax, 1
  0034e	89 45 e8	 mov	 DWORD PTR _z_sec$[ebp], eax
$LN6@scan_local:
  00351	8b 45 e8	 mov	 eax, DWORD PTR _z_sec$[ebp]
  00354	3b 45 f0	 cmp	 eax, DWORD PTR _z_sec_max$[ebp]
  00357	0f 8f 2a 07 00
	00		 jg	 $LN5@scan_local

; 178  : 	{
; 179  : 
; 180  : 		for (x_sec = x_sec_min; x_sec <= x_sec_max; x_sec++)

  0035d	8b 45 fc	 mov	 eax, DWORD PTR _x_sec_min$[ebp]
  00360	89 45 ec	 mov	 DWORD PTR _x_sec$[ebp], eax
  00363	eb 09		 jmp	 SHORT $LN9@scan_local
$LN7@scan_local:
  00365	8b 45 ec	 mov	 eax, DWORD PTR _x_sec$[ebp]
  00368	83 c0 01	 add	 eax, 1
  0036b	89 45 ec	 mov	 DWORD PTR _x_sec$[ebp], eax
$LN9@scan_local:
  0036e	8b 45 ec	 mov	 eax, DWORD PTR _x_sec$[ebp]
  00371	3b 45 f4	 cmp	 eax, DWORD PTR _x_sec_max$[ebp]
  00374	0f 8f 08 07 00
	00		 jg	 $LN8@scan_local

; 181  : 		{
; 182  : 
; 183  : 			sctr = get_local_raw_sector_entity (x_sec, z_sec);

  0037a	8b 45 e8	 mov	 eax, DWORD PTR _z_sec$[ebp]
  0037d	0f af 05 08 00
	00 00		 imul	 eax, DWORD PTR ?world_map@@3UWORLD_MAP_DATA@@A+8
  00384	03 45 ec	 add	 eax, DWORD PTR _x_sec$[ebp]
  00387	8b 0d 00 00 00
	00		 mov	 ecx, DWORD PTR ?entity_sector_map@@3PAPAUENTITY@@A ; entity_sector_map
  0038d	83 3c 81 00	 cmp	 DWORD PTR [ecx+eax*4], 0
  00391	74 1d		 je	 SHORT $LN42@scan_local
  00393	8b 55 e8	 mov	 edx, DWORD PTR _z_sec$[ebp]
  00396	0f af 15 08 00
	00 00		 imul	 edx, DWORD PTR ?world_map@@3UWORLD_MAP_DATA@@A+8
  0039d	03 55 ec	 add	 edx, DWORD PTR _x_sec$[ebp]
  003a0	a1 00 00 00 00	 mov	 eax, DWORD PTR ?entity_sector_map@@3PAPAUENTITY@@A ; entity_sector_map
  003a5	8b 0c 90	 mov	 ecx, DWORD PTR [eax+edx*4]
  003a8	89 8d 7c ff ff
	ff		 mov	 DWORD PTR tv216[ebp], ecx
  003ae	eb 24		 jmp	 SHORT $LN43@scan_local
$LN42@scan_local:
  003b0	8b 15 00 00 00
	00		 mov	 edx, DWORD PTR ?__LINE__Var@?0??scan_local_entity_sounds@@YGXPAUVIEWPOINT@@@Z@4JA
  003b6	83 c2 5a	 add	 edx, 90			; 0000005aH
  003b9	52		 push	 edx
  003ba	68 00 00 00 00	 push	 OFFSET ??_C@_0EM@MBHHOJGM@c?3?2users?2nhv90?2projects?2eech?2ap@
  003bf	a1 00 00 00 00	 mov	 eax, DWORD PTR ?null_sector_entity_map_pointer_message@@3PBDB ; null_sector_entity_map_pointer_message
  003c4	50		 push	 eax
  003c5	e8 00 00 00 00	 call	 ?process_assert@@YGXPBD0H@Z ; process_assert
  003ca	c7 85 7c ff ff
	ff 00 00 00 00	 mov	 DWORD PTR tv216[ebp], 0
$LN43@scan_local:
  003d4	8b 8d 7c ff ff
	ff		 mov	 ecx, DWORD PTR tv216[ebp]
  003da	89 4d e4	 mov	 DWORD PTR _sctr$[ebp], ecx

; 184  : 
; 185  : 			//
; 186  : 			// play sound effects in the sector
; 187  : 			//
; 188  : 			
; 189  : 			en = get_local_entity_first_child (sctr, LIST_TYPE_SPECIAL_EFFECT);

  003dd	83 7d e4 00	 cmp	 DWORD PTR _sctr$[ebp], 0
  003e1	74 0d		 je	 SHORT $LN44@scan_local
  003e3	8b 45 e4	 mov	 eax, DWORD PTR _sctr$[ebp]
  003e6	8b 08		 mov	 ecx, DWORD PTR [eax]
  003e8	89 8d 7c ff ff
	ff		 mov	 DWORD PTR tv223[ebp], ecx
  003ee	eb 24		 jmp	 SHORT $LN45@scan_local
$LN44@scan_local:
  003f0	8b 15 00 00 00
	00		 mov	 edx, DWORD PTR ?__LINE__Var@?0??scan_local_entity_sounds@@YGXPAUVIEWPOINT@@@Z@4JA
  003f6	83 c2 60	 add	 edx, 96			; 00000060H
  003f9	52		 push	 edx
  003fa	68 00 00 00 00	 push	 OFFSET ??_C@_0EM@MBHHOJGM@c?3?2users?2nhv90?2projects?2eech?2ap@
  003ff	a1 00 00 00 00	 mov	 eax, DWORD PTR ?null_entity_pointer_message@@3PBDB ; null_entity_pointer_message
  00404	50		 push	 eax
  00405	e8 00 00 00 00	 call	 ?process_assert@@YGXPBD0H@Z ; process_assert
  0040a	c7 85 7c ff ff
	ff 00 00 00 00	 mov	 DWORD PTR tv223[ebp], 0
$LN45@scan_local:
  00414	b9 01 00 00 00	 mov	 ecx, 1
  00419	85 c9		 test	 ecx, ecx
  0041b	74 0c		 je	 SHORT $LN46@scan_local
  0041d	c7 85 78 ff ff
	ff 24 00 00 00	 mov	 DWORD PTR tv231[ebp], 36 ; 00000024H
  00427	eb 24		 jmp	 SHORT $LN47@scan_local
$LN46@scan_local:
  00429	8b 15 00 00 00
	00		 mov	 edx, DWORD PTR ?__LINE__Var@?0??scan_local_entity_sounds@@YGXPAUVIEWPOINT@@@Z@4JA
  0042f	83 c2 60	 add	 edx, 96			; 00000060H
  00432	52		 push	 edx
  00433	68 00 00 00 00	 push	 OFFSET ??_C@_0EM@MBHHOJGM@c?3?2users?2nhv90?2projects?2eech?2ap@
  00438	a1 00 00 00 00	 mov	 eax, DWORD PTR ?overload_invalid_list_type_message@@3PBDB ; overload_invalid_list_type_message
  0043d	50		 push	 eax
  0043e	e8 00 00 00 00	 call	 ?process_assert@@YGXPBD0H@Z ; process_assert
  00443	c7 85 78 ff ff
	ff 00 00 00 00	 mov	 DWORD PTR tv231[ebp], 0
$LN47@scan_local:
  0044d	6a 24		 push	 36			; 00000024H
  0044f	8b 4d e4	 mov	 ecx, DWORD PTR _sctr$[ebp]
  00452	51		 push	 ecx
  00453	69 95 7c ff ff
	ff b4 00 00 00	 imul	 edx, DWORD PTR tv223[ebp], 180
  0045d	8b 85 78 ff ff
	ff		 mov	 eax, DWORD PTR tv231[ebp]
  00463	8b 8c 82 00 00
	00 00		 mov	 ecx, DWORD PTR ?fn_get_local_entity_first_child@@3PAY0CN@P6GPAUENTITY@@PAU1@W4LIST_TYPES@@@ZA[edx+eax*4]
  0046a	ff d1		 call	 ecx
  0046c	89 45 e0	 mov	 DWORD PTR _en$[ebp], eax
$LN10@scan_local:

; 190  : 
; 191  : 			while (en)

  0046f	83 7d e0 00	 cmp	 DWORD PTR _en$[ebp], 0
  00473	0f 84 a7 01 00
	00		 je	 $LN11@scan_local

; 192  : 			{
; 193  : 				position = get_local_entity_vec3d_ptr (en, VEC3D_TYPE_POSITION);

  00479	83 7d e0 00	 cmp	 DWORD PTR _en$[ebp], 0
  0047d	74 0d		 je	 SHORT $LN48@scan_local
  0047f	8b 45 e0	 mov	 eax, DWORD PTR _en$[ebp]
  00482	8b 08		 mov	 ecx, DWORD PTR [eax]
  00484	89 8d 7c ff ff
	ff		 mov	 DWORD PTR tv244[ebp], ecx
  0048a	eb 24		 jmp	 SHORT $LN49@scan_local
$LN48@scan_local:
  0048c	8b 15 00 00 00
	00		 mov	 edx, DWORD PTR ?__LINE__Var@?0??scan_local_entity_sounds@@YGXPAUVIEWPOINT@@@Z@4JA
  00492	83 c2 64	 add	 edx, 100		; 00000064H
  00495	52		 push	 edx
  00496	68 00 00 00 00	 push	 OFFSET ??_C@_0EM@MBHHOJGM@c?3?2users?2nhv90?2projects?2eech?2ap@
  0049b	a1 00 00 00 00	 mov	 eax, DWORD PTR ?null_entity_pointer_message@@3PBDB ; null_entity_pointer_message
  004a0	50		 push	 eax
  004a1	e8 00 00 00 00	 call	 ?process_assert@@YGXPBD0H@Z ; process_assert
  004a6	c7 85 7c ff ff
	ff 00 00 00 00	 mov	 DWORD PTR tv244[ebp], 0
$LN49@scan_local:
  004b0	b9 01 00 00 00	 mov	 ecx, 1
  004b5	85 c9		 test	 ecx, ecx
  004b7	74 0c		 je	 SHORT $LN50@scan_local
  004b9	c7 85 78 ff ff
	ff 08 00 00 00	 mov	 DWORD PTR tv252[ebp], 8
  004c3	eb 24		 jmp	 SHORT $LN51@scan_local
$LN50@scan_local:
  004c5	8b 15 00 00 00
	00		 mov	 edx, DWORD PTR ?__LINE__Var@?0??scan_local_entity_sounds@@YGXPAUVIEWPOINT@@@Z@4JA
  004cb	83 c2 64	 add	 edx, 100		; 00000064H
  004ce	52		 push	 edx
  004cf	68 00 00 00 00	 push	 OFFSET ??_C@_0EM@MBHHOJGM@c?3?2users?2nhv90?2projects?2eech?2ap@
  004d4	a1 00 00 00 00	 mov	 eax, DWORD PTR ?overload_invalid_vec3d_type_message@@3PBDB ; overload_invalid_vec3d_type_message
  004d9	50		 push	 eax
  004da	e8 00 00 00 00	 call	 ?process_assert@@YGXPBD0H@Z ; process_assert
  004df	c7 85 78 ff ff
	ff 00 00 00 00	 mov	 DWORD PTR tv252[ebp], 0
$LN51@scan_local:
  004e9	6a 08		 push	 8
  004eb	8b 4d e0	 mov	 ecx, DWORD PTR _en$[ebp]
  004ee	51		 push	 ecx
  004ef	6b 95 7c ff ff
	ff 60		 imul	 edx, DWORD PTR tv244[ebp], 96
  004f6	8b 85 78 ff ff
	ff		 mov	 eax, DWORD PTR tv252[ebp]
  004fc	8b 8c 82 00 00
	00 00		 mov	 ecx, DWORD PTR ?fn_get_local_entity_vec3d_ptr@@3PAY0BI@P6GPAUVEC3D@@PAUENTITY@@W4VEC3D_TYPES@@@ZA[edx+eax*4]
  00503	ff d1		 call	 ecx
  00505	89 45 cc	 mov	 DWORD PTR _position$[ebp], eax

; 194  : 
; 195  : 				range = get_approx_3d_range (&vp->position, position);

  00508	8b 45 cc	 mov	 eax, DWORD PTR _position$[ebp]
  0050b	50		 push	 eax
  0050c	8b 4d 08	 mov	 ecx, DWORD PTR _vp$[ebp]
  0050f	51		 push	 ecx
  00510	e8 00 00 00 00	 call	 ?get_approx_3d_range@@YGMPBUVEC3D@@0@Z ; get_approx_3d_range
  00515	d9 5d c8	 fstp	 DWORD PTR _range$[ebp]

; 196  : 
; 197  : 				max_range = DEBUG_3D_OBJECT_SOUND_RANGE;

  00518	f3 0f 10 05 00
	00 00 00	 movss	 xmm0, DWORD PTR __real@459c4000
  00520	f3 0f 11 45 c4	 movss	 DWORD PTR _max_range$[ebp], xmm0

; 198  : 
; 199  : 				if (range < max_range)

  00525	f3 0f 10 45 c4	 movss	 xmm0, DWORD PTR _max_range$[ebp]
  0052a	0f 2f 45 c8	 comiss	 xmm0, DWORD PTR _range$[ebp]
  0052e	76 59		 jbe	 SHORT $LN21@scan_local

; 200  : 				{
; 201  : 					play_local_entity_sound (en, vp, range);

  00530	83 7d e0 00	 cmp	 DWORD PTR _en$[ebp], 0
  00534	74 0d		 je	 SHORT $LN52@scan_local
  00536	8b 45 e0	 mov	 eax, DWORD PTR _en$[ebp]
  00539	8b 08		 mov	 ecx, DWORD PTR [eax]
  0053b	89 8d 7c ff ff
	ff		 mov	 DWORD PTR tv269[ebp], ecx
  00541	eb 24		 jmp	 SHORT $LN53@scan_local
$LN52@scan_local:
  00543	8b 15 00 00 00
	00		 mov	 edx, DWORD PTR ?__LINE__Var@?0??scan_local_entity_sounds@@YGXPAUVIEWPOINT@@@Z@4JA
  00549	83 c2 6c	 add	 edx, 108		; 0000006cH
  0054c	52		 push	 edx
  0054d	68 00 00 00 00	 push	 OFFSET ??_C@_0EM@MBHHOJGM@c?3?2users?2nhv90?2projects?2eech?2ap@
  00552	a1 00 00 00 00	 mov	 eax, DWORD PTR ?null_entity_pointer_message@@3PBDB ; null_entity_pointer_message
  00557	50		 push	 eax
  00558	e8 00 00 00 00	 call	 ?process_assert@@YGXPBD0H@Z ; process_assert
  0055d	c7 85 7c ff ff
	ff 00 00 00 00	 mov	 DWORD PTR tv269[ebp], 0
$LN53@scan_local:
  00567	51		 push	 ecx
  00568	f3 0f 10 45 c8	 movss	 xmm0, DWORD PTR _range$[ebp]
  0056d	f3 0f 11 04 24	 movss	 DWORD PTR [esp], xmm0
  00572	8b 4d 08	 mov	 ecx, DWORD PTR _vp$[ebp]
  00575	51		 push	 ecx
  00576	8b 55 e0	 mov	 edx, DWORD PTR _en$[ebp]
  00579	52		 push	 edx
  0057a	8b 85 7c ff ff
	ff		 mov	 eax, DWORD PTR tv269[ebp]
  00580	8b 0c 85 00 00
	00 00		 mov	 ecx, DWORD PTR ?fn_play_local_entity_sound@@3PAP6GXPAUENTITY@@PAUVIEWPOINT@@M@ZA[eax*4]
  00587	ff d1		 call	 ecx
$LN21@scan_local:

; 202  : 				}
; 203  : 
; 204  : 				en = get_local_entity_child_succ (en, LIST_TYPE_SPECIAL_EFFECT);

  00589	83 7d e0 00	 cmp	 DWORD PTR _en$[ebp], 0
  0058d	74 0d		 je	 SHORT $LN54@scan_local
  0058f	8b 45 e0	 mov	 eax, DWORD PTR _en$[ebp]
  00592	8b 08		 mov	 ecx, DWORD PTR [eax]
  00594	89 8d 7c ff ff
	ff		 mov	 DWORD PTR tv281[ebp], ecx
  0059a	eb 24		 jmp	 SHORT $LN55@scan_local
$LN54@scan_local:
  0059c	8b 15 00 00 00
	00		 mov	 edx, DWORD PTR ?__LINE__Var@?0??scan_local_entity_sounds@@YGXPAUVIEWPOINT@@@Z@4JA
  005a2	83 c2 6f	 add	 edx, 111		; 0000006fH
  005a5	52		 push	 edx
  005a6	68 00 00 00 00	 push	 OFFSET ??_C@_0EM@MBHHOJGM@c?3?2users?2nhv90?2projects?2eech?2ap@
  005ab	a1 00 00 00 00	 mov	 eax, DWORD PTR ?null_entity_pointer_message@@3PBDB ; null_entity_pointer_message
  005b0	50		 push	 eax
  005b1	e8 00 00 00 00	 call	 ?process_assert@@YGXPBD0H@Z ; process_assert
  005b6	c7 85 7c ff ff
	ff 00 00 00 00	 mov	 DWORD PTR tv281[ebp], 0
$LN55@scan_local:
  005c0	b9 01 00 00 00	 mov	 ecx, 1
  005c5	85 c9		 test	 ecx, ecx
  005c7	74 0c		 je	 SHORT $LN56@scan_local
  005c9	c7 85 78 ff ff
	ff 24 00 00 00	 mov	 DWORD PTR tv289[ebp], 36 ; 00000024H
  005d3	eb 24		 jmp	 SHORT $LN57@scan_local
$LN56@scan_local:
  005d5	8b 15 00 00 00
	00		 mov	 edx, DWORD PTR ?__LINE__Var@?0??scan_local_entity_sounds@@YGXPAUVIEWPOINT@@@Z@4JA
  005db	83 c2 6f	 add	 edx, 111		; 0000006fH
  005de	52		 push	 edx
  005df	68 00 00 00 00	 push	 OFFSET ??_C@_0EM@MBHHOJGM@c?3?2users?2nhv90?2projects?2eech?2ap@
  005e4	a1 00 00 00 00	 mov	 eax, DWORD PTR ?overload_invalid_list_type_message@@3PBDB ; overload_invalid_list_type_message
  005e9	50		 push	 eax
  005ea	e8 00 00 00 00	 call	 ?process_assert@@YGXPBD0H@Z ; process_assert
  005ef	c7 85 78 ff ff
	ff 00 00 00 00	 mov	 DWORD PTR tv289[ebp], 0
$LN57@scan_local:
  005f9	6a 24		 push	 36			; 00000024H
  005fb	8b 4d e0	 mov	 ecx, DWORD PTR _en$[ebp]
  005fe	51		 push	 ecx
  005ff	69 95 7c ff ff
	ff b4 00 00 00	 imul	 edx, DWORD PTR tv281[ebp], 180
  00609	8b 85 78 ff ff
	ff		 mov	 eax, DWORD PTR tv289[ebp]
  0060f	8b 8c 82 00 00
	00 00		 mov	 ecx, DWORD PTR ?fn_get_local_entity_child_succ@@3PAY0CN@P6GPAUENTITY@@PAU1@W4LIST_TYPES@@@ZA[edx+eax*4]
  00616	ff d1		 call	 ecx
  00618	89 45 e0	 mov	 DWORD PTR _en$[ebp], eax

; 205  : 			}

  0061b	e9 4f fe ff ff	 jmp	 $LN10@scan_local
$LN11@scan_local:

; 206  : 
; 207  : 			//
; 208  : 			// play sound effects attached to other entities in the sector
; 209  : 			//
; 210  : 			
; 211  : 			parent = get_local_entity_first_child (sctr, LIST_TYPE_SECTOR);

  00620	83 7d e4 00	 cmp	 DWORD PTR _sctr$[ebp], 0
  00624	74 0d		 je	 SHORT $LN58@scan_local
  00626	8b 45 e4	 mov	 eax, DWORD PTR _sctr$[ebp]
  00629	8b 08		 mov	 ecx, DWORD PTR [eax]
  0062b	89 8d 7c ff ff
	ff		 mov	 DWORD PTR tv301[ebp], ecx
  00631	eb 24		 jmp	 SHORT $LN59@scan_local
$LN58@scan_local:
  00633	8b 15 00 00 00
	00		 mov	 edx, DWORD PTR ?__LINE__Var@?0??scan_local_entity_sounds@@YGXPAUVIEWPOINT@@@Z@4JA
  00639	83 c2 76	 add	 edx, 118		; 00000076H
  0063c	52		 push	 edx
  0063d	68 00 00 00 00	 push	 OFFSET ??_C@_0EM@MBHHOJGM@c?3?2users?2nhv90?2projects?2eech?2ap@
  00642	a1 00 00 00 00	 mov	 eax, DWORD PTR ?null_entity_pointer_message@@3PBDB ; null_entity_pointer_message
  00647	50		 push	 eax
  00648	e8 00 00 00 00	 call	 ?process_assert@@YGXPBD0H@Z ; process_assert
  0064d	c7 85 7c ff ff
	ff 00 00 00 00	 mov	 DWORD PTR tv301[ebp], 0
$LN59@scan_local:
  00657	b9 01 00 00 00	 mov	 ecx, 1
  0065c	85 c9		 test	 ecx, ecx
  0065e	74 0c		 je	 SHORT $LN60@scan_local
  00660	c7 85 78 ff ff
	ff 21 00 00 00	 mov	 DWORD PTR tv309[ebp], 33 ; 00000021H
  0066a	eb 24		 jmp	 SHORT $LN61@scan_local
$LN60@scan_local:
  0066c	8b 15 00 00 00
	00		 mov	 edx, DWORD PTR ?__LINE__Var@?0??scan_local_entity_sounds@@YGXPAUVIEWPOINT@@@Z@4JA
  00672	83 c2 76	 add	 edx, 118		; 00000076H
  00675	52		 push	 edx
  00676	68 00 00 00 00	 push	 OFFSET ??_C@_0EM@MBHHOJGM@c?3?2users?2nhv90?2projects?2eech?2ap@
  0067b	a1 00 00 00 00	 mov	 eax, DWORD PTR ?overload_invalid_list_type_message@@3PBDB ; overload_invalid_list_type_message
  00680	50		 push	 eax
  00681	e8 00 00 00 00	 call	 ?process_assert@@YGXPBD0H@Z ; process_assert
  00686	c7 85 78 ff ff
	ff 00 00 00 00	 mov	 DWORD PTR tv309[ebp], 0
$LN61@scan_local:
  00690	6a 21		 push	 33			; 00000021H
  00692	8b 4d e4	 mov	 ecx, DWORD PTR _sctr$[ebp]
  00695	51		 push	 ecx
  00696	69 95 7c ff ff
	ff b4 00 00 00	 imul	 edx, DWORD PTR tv301[ebp], 180
  006a0	8b 85 78 ff ff
	ff		 mov	 eax, DWORD PTR tv309[ebp]
  006a6	8b 8c 82 00 00
	00 00		 mov	 ecx, DWORD PTR ?fn_get_local_entity_first_child@@3PAY0CN@P6GPAUENTITY@@PAU1@W4LIST_TYPES@@@ZA[edx+eax*4]
  006ad	ff d1		 call	 ecx
  006af	89 45 dc	 mov	 DWORD PTR _parent$[ebp], eax
$LN12@scan_local:

; 212  : 
; 213  : 			while (parent)

  006b2	83 7d dc 00	 cmp	 DWORD PTR _parent$[ebp], 0
  006b6	0f 84 c1 03 00
	00		 je	 $LN13@scan_local

; 214  : 			{
; 215  : 				if (get_local_entity_int_value (parent, INT_TYPE_SOUND_LIST_VALID))

  006bc	83 7d dc 00	 cmp	 DWORD PTR _parent$[ebp], 0
  006c0	74 0d		 je	 SHORT $LN62@scan_local
  006c2	8b 45 dc	 mov	 eax, DWORD PTR _parent$[ebp]
  006c5	8b 08		 mov	 ecx, DWORD PTR [eax]
  006c7	89 8d 7c ff ff
	ff		 mov	 DWORD PTR tv321[ebp], ecx
  006cd	eb 20		 jmp	 SHORT $LN63@scan_local
$LN62@scan_local:
  006cf	68 d7 00 00 00	 push	 215			; 000000d7H
  006d4	68 00 00 00 00	 push	 OFFSET ??_C@_0EM@MBHHOJGM@c?3?2users?2nhv90?2projects?2eech?2ap@
  006d9	8b 15 00 00 00
	00		 mov	 edx, DWORD PTR ?null_entity_pointer_message@@3PBDB ; null_entity_pointer_message
  006df	52		 push	 edx
  006e0	e8 00 00 00 00	 call	 ?process_assert@@YGXPBD0H@Z ; process_assert
  006e5	c7 85 7c ff ff
	ff 00 00 00 00	 mov	 DWORD PTR tv321[ebp], 0
$LN63@scan_local:
  006ef	b8 01 00 00 00	 mov	 eax, 1
  006f4	85 c0		 test	 eax, eax
  006f6	74 0c		 je	 SHORT $LN64@scan_local
  006f8	c7 85 78 ff ff
	ff c6 00 00 00	 mov	 DWORD PTR tv328[ebp], 198 ; 000000c6H
  00702	eb 20		 jmp	 SHORT $LN65@scan_local
$LN64@scan_local:
  00704	68 d7 00 00 00	 push	 215			; 000000d7H
  00709	68 00 00 00 00	 push	 OFFSET ??_C@_0EM@MBHHOJGM@c?3?2users?2nhv90?2projects?2eech?2ap@
  0070e	8b 0d 00 00 00
	00		 mov	 ecx, DWORD PTR ?overload_invalid_int_type_message@@3PBDB ; overload_invalid_int_type_message
  00714	51		 push	 ecx
  00715	e8 00 00 00 00	 call	 ?process_assert@@YGXPBD0H@Z ; process_assert
  0071a	c7 85 78 ff ff
	ff 00 00 00 00	 mov	 DWORD PTR tv328[ebp], 0
$LN65@scan_local:
  00724	68 c6 00 00 00	 push	 198			; 000000c6H
  00729	8b 55 dc	 mov	 edx, DWORD PTR _parent$[ebp]
  0072c	52		 push	 edx
  0072d	69 85 7c ff ff
	ff 5c 04 00 00	 imul	 eax, DWORD PTR tv321[ebp], 1116
  00737	8b 8d 78 ff ff
	ff		 mov	 ecx, DWORD PTR tv328[ebp]
  0073d	8b 94 88 00 00
	00 00		 mov	 edx, DWORD PTR ?fn_get_local_entity_int_value@@3PAY0BBH@P6GHPAUENTITY@@W4INT_TYPES@@@ZA[eax+ecx*4]
  00744	ff d2		 call	 edx
  00746	85 c0		 test	 eax, eax
  00748	0f 84 92 02 00
	00		 je	 $LN15@scan_local

; 216  : 				{
; 217  : 					position = get_local_entity_vec3d_ptr (parent, VEC3D_TYPE_POSITION);

  0074e	83 7d dc 00	 cmp	 DWORD PTR _parent$[ebp], 0
  00752	74 0d		 je	 SHORT $LN66@scan_local
  00754	8b 45 dc	 mov	 eax, DWORD PTR _parent$[ebp]
  00757	8b 08		 mov	 ecx, DWORD PTR [eax]
  00759	89 8d 7c ff ff
	ff		 mov	 DWORD PTR tv341[ebp], ecx
  0075f	eb 24		 jmp	 SHORT $LN67@scan_local
$LN66@scan_local:
  00761	8b 15 00 00 00
	00		 mov	 edx, DWORD PTR ?__LINE__Var@?0??scan_local_entity_sounds@@YGXPAUVIEWPOINT@@@Z@4JA
  00767	83 c2 7c	 add	 edx, 124		; 0000007cH
  0076a	52		 push	 edx
  0076b	68 00 00 00 00	 push	 OFFSET ??_C@_0EM@MBHHOJGM@c?3?2users?2nhv90?2projects?2eech?2ap@
  00770	a1 00 00 00 00	 mov	 eax, DWORD PTR ?null_entity_pointer_message@@3PBDB ; null_entity_pointer_message
  00775	50		 push	 eax
  00776	e8 00 00 00 00	 call	 ?process_assert@@YGXPBD0H@Z ; process_assert
  0077b	c7 85 7c ff ff
	ff 00 00 00 00	 mov	 DWORD PTR tv341[ebp], 0
$LN67@scan_local:
  00785	b9 01 00 00 00	 mov	 ecx, 1
  0078a	85 c9		 test	 ecx, ecx
  0078c	74 0c		 je	 SHORT $LN68@scan_local
  0078e	c7 85 78 ff ff
	ff 08 00 00 00	 mov	 DWORD PTR tv349[ebp], 8
  00798	eb 24		 jmp	 SHORT $LN69@scan_local
$LN68@scan_local:
  0079a	8b 15 00 00 00
	00		 mov	 edx, DWORD PTR ?__LINE__Var@?0??scan_local_entity_sounds@@YGXPAUVIEWPOINT@@@Z@4JA
  007a0	83 c2 7c	 add	 edx, 124		; 0000007cH
  007a3	52		 push	 edx
  007a4	68 00 00 00 00	 push	 OFFSET ??_C@_0EM@MBHHOJGM@c?3?2users?2nhv90?2projects?2eech?2ap@
  007a9	a1 00 00 00 00	 mov	 eax, DWORD PTR ?overload_invalid_vec3d_type_message@@3PBDB ; overload_invalid_vec3d_type_message
  007ae	50		 push	 eax
  007af	e8 00 00 00 00	 call	 ?process_assert@@YGXPBD0H@Z ; process_assert
  007b4	c7 85 78 ff ff
	ff 00 00 00 00	 mov	 DWORD PTR tv349[ebp], 0
$LN69@scan_local:
  007be	6a 08		 push	 8
  007c0	8b 4d dc	 mov	 ecx, DWORD PTR _parent$[ebp]
  007c3	51		 push	 ecx
  007c4	6b 95 7c ff ff
	ff 60		 imul	 edx, DWORD PTR tv341[ebp], 96
  007cb	8b 85 78 ff ff
	ff		 mov	 eax, DWORD PTR tv349[ebp]
  007d1	8b 8c 82 00 00
	00 00		 mov	 ecx, DWORD PTR ?fn_get_local_entity_vec3d_ptr@@3PAY0BI@P6GPAUVEC3D@@PAUENTITY@@W4VEC3D_TYPES@@@ZA[edx+eax*4]
  007d8	ff d1		 call	 ecx
  007da	89 45 cc	 mov	 DWORD PTR _position$[ebp], eax

; 218  : 	
; 219  : 					range = get_approx_3d_range (&vp->position, position);

  007dd	8b 45 cc	 mov	 eax, DWORD PTR _position$[ebp]
  007e0	50		 push	 eax
  007e1	8b 4d 08	 mov	 ecx, DWORD PTR _vp$[ebp]
  007e4	51		 push	 ecx
  007e5	e8 00 00 00 00	 call	 ?get_approx_3d_range@@YGMPBUVEC3D@@0@Z ; get_approx_3d_range
  007ea	d9 5d c8	 fstp	 DWORD PTR _range$[ebp]

; 220  : 	
; 221  : 					max_range = DEBUG_3D_OBJECT_SOUND_RANGE;

  007ed	f3 0f 10 05 00
	00 00 00	 movss	 xmm0, DWORD PTR __real@459c4000
  007f5	f3 0f 11 45 c4	 movss	 DWORD PTR _max_range$[ebp], xmm0

; 222  : 	
; 223  : 					if (range < max_range)

  007fa	f3 0f 10 45 c4	 movss	 xmm0, DWORD PTR _max_range$[ebp]
  007ff	0f 2f 45 c8	 comiss	 xmm0, DWORD PTR _range$[ebp]
  00803	0f 86 d7 01 00
	00		 jbe	 $LN15@scan_local

; 224  : 					{
; 225  : 						en = get_local_entity_first_child (parent, LIST_TYPE_SPECIAL_EFFECT);

  00809	83 7d dc 00	 cmp	 DWORD PTR _parent$[ebp], 0
  0080d	74 0d		 je	 SHORT $LN70@scan_local
  0080f	8b 45 dc	 mov	 eax, DWORD PTR _parent$[ebp]
  00812	8b 08		 mov	 ecx, DWORD PTR [eax]
  00814	89 8d 7c ff ff
	ff		 mov	 DWORD PTR tv366[ebp], ecx
  0081a	eb 27		 jmp	 SHORT $LN71@scan_local
$LN70@scan_local:
  0081c	8b 15 00 00 00
	00		 mov	 edx, DWORD PTR ?__LINE__Var@?0??scan_local_entity_sounds@@YGXPAUVIEWPOINT@@@Z@4JA
  00822	81 c2 84 00 00
	00		 add	 edx, 132		; 00000084H
  00828	52		 push	 edx
  00829	68 00 00 00 00	 push	 OFFSET ??_C@_0EM@MBHHOJGM@c?3?2users?2nhv90?2projects?2eech?2ap@
  0082e	a1 00 00 00 00	 mov	 eax, DWORD PTR ?null_entity_pointer_message@@3PBDB ; null_entity_pointer_message
  00833	50		 push	 eax
  00834	e8 00 00 00 00	 call	 ?process_assert@@YGXPBD0H@Z ; process_assert
  00839	c7 85 7c ff ff
	ff 00 00 00 00	 mov	 DWORD PTR tv366[ebp], 0
$LN71@scan_local:
  00843	b9 01 00 00 00	 mov	 ecx, 1
  00848	85 c9		 test	 ecx, ecx
  0084a	74 0c		 je	 SHORT $LN72@scan_local
  0084c	c7 85 78 ff ff
	ff 24 00 00 00	 mov	 DWORD PTR tv374[ebp], 36 ; 00000024H
  00856	eb 27		 jmp	 SHORT $LN73@scan_local
$LN72@scan_local:
  00858	8b 15 00 00 00
	00		 mov	 edx, DWORD PTR ?__LINE__Var@?0??scan_local_entity_sounds@@YGXPAUVIEWPOINT@@@Z@4JA
  0085e	81 c2 84 00 00
	00		 add	 edx, 132		; 00000084H
  00864	52		 push	 edx
  00865	68 00 00 00 00	 push	 OFFSET ??_C@_0EM@MBHHOJGM@c?3?2users?2nhv90?2projects?2eech?2ap@
  0086a	a1 00 00 00 00	 mov	 eax, DWORD PTR ?overload_invalid_list_type_message@@3PBDB ; overload_invalid_list_type_message
  0086f	50		 push	 eax
  00870	e8 00 00 00 00	 call	 ?process_assert@@YGXPBD0H@Z ; process_assert
  00875	c7 85 78 ff ff
	ff 00 00 00 00	 mov	 DWORD PTR tv374[ebp], 0
$LN73@scan_local:
  0087f	6a 24		 push	 36			; 00000024H
  00881	8b 4d dc	 mov	 ecx, DWORD PTR _parent$[ebp]
  00884	51		 push	 ecx
  00885	69 95 7c ff ff
	ff b4 00 00 00	 imul	 edx, DWORD PTR tv366[ebp], 180
  0088f	8b 85 78 ff ff
	ff		 mov	 eax, DWORD PTR tv374[ebp]
  00895	8b 8c 82 00 00
	00 00		 mov	 ecx, DWORD PTR ?fn_get_local_entity_first_child@@3PAY0CN@P6GPAUENTITY@@PAU1@W4LIST_TYPES@@@ZA[edx+eax*4]
  0089c	ff d1		 call	 ecx
  0089e	89 45 e0	 mov	 DWORD PTR _en$[ebp], eax
$LN14@scan_local:

; 226  : 	
; 227  : 						while (en)

  008a1	83 7d e0 00	 cmp	 DWORD PTR _en$[ebp], 0
  008a5	0f 84 35 01 00
	00		 je	 $LN15@scan_local

; 228  : 						{
; 229  : 							if (get_local_entity_type (en) == ENTITY_TYPE_SOUND_EFFECT)

  008ab	83 7d e0 00	 cmp	 DWORD PTR _en$[ebp], 0
  008af	74 0d		 je	 SHORT $LN74@scan_local
  008b1	8b 45 e0	 mov	 eax, DWORD PTR _en$[ebp]
  008b4	8b 08		 mov	 ecx, DWORD PTR [eax]
  008b6	89 8d 7c ff ff
	ff		 mov	 DWORD PTR tv386[ebp], ecx
  008bc	eb 20		 jmp	 SHORT $LN75@scan_local
$LN74@scan_local:
  008be	68 e5 00 00 00	 push	 229			; 000000e5H
  008c3	68 00 00 00 00	 push	 OFFSET ??_C@_0EM@MBHHOJGM@c?3?2users?2nhv90?2projects?2eech?2ap@
  008c8	8b 15 00 00 00
	00		 mov	 edx, DWORD PTR ?null_entity_pointer_message@@3PBDB ; null_entity_pointer_message
  008ce	52		 push	 edx
  008cf	e8 00 00 00 00	 call	 ?process_assert@@YGXPBD0H@Z ; process_assert
  008d4	c7 85 7c ff ff
	ff 00 00 00 00	 mov	 DWORD PTR tv386[ebp], 0
$LN75@scan_local:
  008de	83 bd 7c ff ff
	ff 20		 cmp	 DWORD PTR tv386[ebp], 32 ; 00000020H
  008e5	75 5c		 jne	 SHORT $LN24@scan_local

; 230  : 							{
; 231  : 								play_local_entity_sound (en, vp, range);

  008e7	83 7d e0 00	 cmp	 DWORD PTR _en$[ebp], 0
  008eb	74 0d		 je	 SHORT $LN76@scan_local
  008ed	8b 45 e0	 mov	 eax, DWORD PTR _en$[ebp]
  008f0	8b 08		 mov	 ecx, DWORD PTR [eax]
  008f2	89 8d 7c ff ff
	ff		 mov	 DWORD PTR tv394[ebp], ecx
  008f8	eb 27		 jmp	 SHORT $LN77@scan_local
$LN76@scan_local:
  008fa	8b 15 00 00 00
	00		 mov	 edx, DWORD PTR ?__LINE__Var@?0??scan_local_entity_sounds@@YGXPAUVIEWPOINT@@@Z@4JA
  00900	81 c2 8a 00 00
	00		 add	 edx, 138		; 0000008aH
  00906	52		 push	 edx
  00907	68 00 00 00 00	 push	 OFFSET ??_C@_0EM@MBHHOJGM@c?3?2users?2nhv90?2projects?2eech?2ap@
  0090c	a1 00 00 00 00	 mov	 eax, DWORD PTR ?null_entity_pointer_message@@3PBDB ; null_entity_pointer_message
  00911	50		 push	 eax
  00912	e8 00 00 00 00	 call	 ?process_assert@@YGXPBD0H@Z ; process_assert
  00917	c7 85 7c ff ff
	ff 00 00 00 00	 mov	 DWORD PTR tv394[ebp], 0
$LN77@scan_local:
  00921	51		 push	 ecx
  00922	f3 0f 10 45 c8	 movss	 xmm0, DWORD PTR _range$[ebp]
  00927	f3 0f 11 04 24	 movss	 DWORD PTR [esp], xmm0
  0092c	8b 4d 08	 mov	 ecx, DWORD PTR _vp$[ebp]
  0092f	51		 push	 ecx
  00930	8b 55 e0	 mov	 edx, DWORD PTR _en$[ebp]
  00933	52		 push	 edx
  00934	8b 85 7c ff ff
	ff		 mov	 eax, DWORD PTR tv394[ebp]
  0093a	8b 0c 85 00 00
	00 00		 mov	 ecx, DWORD PTR ?fn_play_local_entity_sound@@3PAP6GXPAUENTITY@@PAUVIEWPOINT@@M@ZA[eax*4]
  00941	ff d1		 call	 ecx
$LN24@scan_local:

; 232  : 							}
; 233  : 	
; 234  : 							en = get_local_entity_child_succ (en, LIST_TYPE_SPECIAL_EFFECT);

  00943	83 7d e0 00	 cmp	 DWORD PTR _en$[ebp], 0
  00947	74 0d		 je	 SHORT $LN78@scan_local
  00949	8b 45 e0	 mov	 eax, DWORD PTR _en$[ebp]
  0094c	8b 08		 mov	 ecx, DWORD PTR [eax]
  0094e	89 8d 7c ff ff
	ff		 mov	 DWORD PTR tv406[ebp], ecx
  00954	eb 27		 jmp	 SHORT $LN79@scan_local
$LN78@scan_local:
  00956	8b 15 00 00 00
	00		 mov	 edx, DWORD PTR ?__LINE__Var@?0??scan_local_entity_sounds@@YGXPAUVIEWPOINT@@@Z@4JA
  0095c	81 c2 8d 00 00
	00		 add	 edx, 141		; 0000008dH
  00962	52		 push	 edx
  00963	68 00 00 00 00	 push	 OFFSET ??_C@_0EM@MBHHOJGM@c?3?2users?2nhv90?2projects?2eech?2ap@
  00968	a1 00 00 00 00	 mov	 eax, DWORD PTR ?null_entity_pointer_message@@3PBDB ; null_entity_pointer_message
  0096d	50		 push	 eax
  0096e	e8 00 00 00 00	 call	 ?process_assert@@YGXPBD0H@Z ; process_assert
  00973	c7 85 7c ff ff
	ff 00 00 00 00	 mov	 DWORD PTR tv406[ebp], 0
$LN79@scan_local:
  0097d	b9 01 00 00 00	 mov	 ecx, 1
  00982	85 c9		 test	 ecx, ecx
  00984	74 0c		 je	 SHORT $LN80@scan_local
  00986	c7 85 78 ff ff
	ff 24 00 00 00	 mov	 DWORD PTR tv414[ebp], 36 ; 00000024H
  00990	eb 27		 jmp	 SHORT $LN81@scan_local
$LN80@scan_local:
  00992	8b 15 00 00 00
	00		 mov	 edx, DWORD PTR ?__LINE__Var@?0??scan_local_entity_sounds@@YGXPAUVIEWPOINT@@@Z@4JA
  00998	81 c2 8d 00 00
	00		 add	 edx, 141		; 0000008dH
  0099e	52		 push	 edx
  0099f	68 00 00 00 00	 push	 OFFSET ??_C@_0EM@MBHHOJGM@c?3?2users?2nhv90?2projects?2eech?2ap@
  009a4	a1 00 00 00 00	 mov	 eax, DWORD PTR ?overload_invalid_list_type_message@@3PBDB ; overload_invalid_list_type_message
  009a9	50		 push	 eax
  009aa	e8 00 00 00 00	 call	 ?process_assert@@YGXPBD0H@Z ; process_assert
  009af	c7 85 78 ff ff
	ff 00 00 00 00	 mov	 DWORD PTR tv414[ebp], 0
$LN81@scan_local:
  009b9	6a 24		 push	 36			; 00000024H
  009bb	8b 4d e0	 mov	 ecx, DWORD PTR _en$[ebp]
  009be	51		 push	 ecx
  009bf	69 95 7c ff ff
	ff b4 00 00 00	 imul	 edx, DWORD PTR tv406[ebp], 180
  009c9	8b 85 78 ff ff
	ff		 mov	 eax, DWORD PTR tv414[ebp]
  009cf	8b 8c 82 00 00
	00 00		 mov	 ecx, DWORD PTR ?fn_get_local_entity_child_succ@@3PAY0CN@P6GPAUENTITY@@PAU1@W4LIST_TYPES@@@ZA[edx+eax*4]
  009d6	ff d1		 call	 ecx
  009d8	89 45 e0	 mov	 DWORD PTR _en$[ebp], eax

; 235  : 						}

  009db	e9 c1 fe ff ff	 jmp	 $LN14@scan_local
$LN15@scan_local:

; 236  : 					}
; 237  : 				}
; 238  : 
; 239  : 				parent = get_local_entity_child_succ (parent, LIST_TYPE_SECTOR);

  009e0	83 7d dc 00	 cmp	 DWORD PTR _parent$[ebp], 0
  009e4	74 0d		 je	 SHORT $LN82@scan_local
  009e6	8b 45 dc	 mov	 eax, DWORD PTR _parent$[ebp]
  009e9	8b 08		 mov	 ecx, DWORD PTR [eax]
  009eb	89 8d 7c ff ff
	ff		 mov	 DWORD PTR tv426[ebp], ecx
  009f1	eb 27		 jmp	 SHORT $LN83@scan_local
$LN82@scan_local:
  009f3	8b 15 00 00 00
	00		 mov	 edx, DWORD PTR ?__LINE__Var@?0??scan_local_entity_sounds@@YGXPAUVIEWPOINT@@@Z@4JA
  009f9	81 c2 92 00 00
	00		 add	 edx, 146		; 00000092H
  009ff	52		 push	 edx
  00a00	68 00 00 00 00	 push	 OFFSET ??_C@_0EM@MBHHOJGM@c?3?2users?2nhv90?2projects?2eech?2ap@
  00a05	a1 00 00 00 00	 mov	 eax, DWORD PTR ?null_entity_pointer_message@@3PBDB ; null_entity_pointer_message
  00a0a	50		 push	 eax
  00a0b	e8 00 00 00 00	 call	 ?process_assert@@YGXPBD0H@Z ; process_assert
  00a10	c7 85 7c ff ff
	ff 00 00 00 00	 mov	 DWORD PTR tv426[ebp], 0
$LN83@scan_local:
  00a1a	b9 01 00 00 00	 mov	 ecx, 1
  00a1f	85 c9		 test	 ecx, ecx
  00a21	74 0c		 je	 SHORT $LN84@scan_local
  00a23	c7 85 78 ff ff
	ff 21 00 00 00	 mov	 DWORD PTR tv434[ebp], 33 ; 00000021H
  00a2d	eb 27		 jmp	 SHORT $LN85@scan_local
$LN84@scan_local:
  00a2f	8b 15 00 00 00
	00		 mov	 edx, DWORD PTR ?__LINE__Var@?0??scan_local_entity_sounds@@YGXPAUVIEWPOINT@@@Z@4JA
  00a35	81 c2 92 00 00
	00		 add	 edx, 146		; 00000092H
  00a3b	52		 push	 edx
  00a3c	68 00 00 00 00	 push	 OFFSET ??_C@_0EM@MBHHOJGM@c?3?2users?2nhv90?2projects?2eech?2ap@
  00a41	a1 00 00 00 00	 mov	 eax, DWORD PTR ?overload_invalid_list_type_message@@3PBDB ; overload_invalid_list_type_message
  00a46	50		 push	 eax
  00a47	e8 00 00 00 00	 call	 ?process_assert@@YGXPBD0H@Z ; process_assert
  00a4c	c7 85 78 ff ff
	ff 00 00 00 00	 mov	 DWORD PTR tv434[ebp], 0
$LN85@scan_local:
  00a56	6a 21		 push	 33			; 00000021H
  00a58	8b 4d dc	 mov	 ecx, DWORD PTR _parent$[ebp]
  00a5b	51		 push	 ecx
  00a5c	69 95 7c ff ff
	ff b4 00 00 00	 imul	 edx, DWORD PTR tv426[ebp], 180
  00a66	8b 85 78 ff ff
	ff		 mov	 eax, DWORD PTR tv434[ebp]
  00a6c	8b 8c 82 00 00
	00 00		 mov	 ecx, DWORD PTR ?fn_get_local_entity_child_succ@@3PAY0CN@P6GPAUENTITY@@PAU1@W4LIST_TYPES@@@ZA[edx+eax*4]
  00a73	ff d1		 call	 ecx
  00a75	89 45 dc	 mov	 DWORD PTR _parent$[ebp], eax

; 240  : 			}

  00a78	e9 35 fc ff ff	 jmp	 $LN12@scan_local
$LN13@scan_local:

; 241  : 		}

  00a7d	e9 e3 f8 ff ff	 jmp	 $LN7@scan_local
$LN8@scan_local:

; 242  : 	}

  00a82	e9 c1 f8 ff ff	 jmp	 $LN4@scan_local
$LN5@scan_local:

; 243  : 
; 244  : 	//
; 245  : 	// Update playing sound effects
; 246  : 	//
; 247  : 
; 248  : 	snd_eff = get_first_system_sound_effect ();

  00a87	e8 00 00 00 00	 call	 ?get_first_system_sound_effect@@YGPAUSYSTEM_SOUND_EFFECT@@XZ ; get_first_system_sound_effect
  00a8c	89 45 c0	 mov	 DWORD PTR _snd_eff$[ebp], eax
$LN16@scan_local:

; 249  : 
; 250  : 	while (snd_eff)

  00a8f	83 7d c0 00	 cmp	 DWORD PTR _snd_eff$[ebp], 0
  00a93	0f 84 d5 02 00
	00		 je	 $LN17@scan_local

; 251  : 	{
; 252  : 
; 253  : 		en = (entity *) get_system_sound_effect_user_data (snd_eff);

  00a99	8b 45 c0	 mov	 eax, DWORD PTR _snd_eff$[ebp]
  00a9c	50		 push	 eax
  00a9d	e8 00 00 00 00	 call	 ?get_system_sound_effect_user_data@@YGPAXPAUSYSTEM_SOUND_EFFECT@@@Z ; get_system_sound_effect_user_data
  00aa2	89 45 e0	 mov	 DWORD PTR _en$[ebp], eax

; 254  : 
; 255  : 		if (!get_system_sound_effect_playing (snd_eff))

  00aa5	8b 45 c0	 mov	 eax, DWORD PTR _snd_eff$[ebp]
  00aa8	50		 push	 eax
  00aa9	e8 00 00 00 00	 call	 ?get_system_sound_effect_playing@@YGHPAUSYSTEM_SOUND_EFFECT@@@Z ; get_system_sound_effect_playing
  00aae	85 c0		 test	 eax, eax
  00ab0	0f 85 ac 00 00
	00		 jne	 $LN25@scan_local

; 256  : 		{
; 257  : 			#if DEBUG_MODULE
; 258  : 
; 259  : 			debug_log ("EN_SND : destroying sound coz it's not being played");
; 260  : 
; 261  : 			#endif
; 262  : 
; 263  : 			destroy_system_sound_effect (snd_eff);

  00ab6	8b 45 c0	 mov	 eax, DWORD PTR _snd_eff$[ebp]
  00ab9	50		 push	 eax
  00aba	e8 00 00 00 00	 call	 ?destroy_system_sound_effect@@YGXPAUSYSTEM_SOUND_EFFECT@@@Z ; destroy_system_sound_effect

; 264  : 
; 265  : 			if (en)

  00abf	83 7d e0 00	 cmp	 DWORD PTR _en$[ebp], 0
  00ac3	0f 84 94 00 00
	00		 je	 $LN27@scan_local

; 266  : 			{
; 267  : 
; 268  : 				set_local_entity_ptr_value (en, PTR_TYPE_SOUND_EFFECT_DATA, NULL);

  00ac9	83 7d e0 00	 cmp	 DWORD PTR _en$[ebp], 0
  00acd	74 0d		 je	 SHORT $LN86@scan_local
  00acf	8b 45 e0	 mov	 eax, DWORD PTR _en$[ebp]
  00ad2	8b 08		 mov	 ecx, DWORD PTR [eax]
  00ad4	89 8d 7c ff ff
	ff		 mov	 DWORD PTR tv455[ebp], ecx
  00ada	eb 27		 jmp	 SHORT $LN87@scan_local
$LN86@scan_local:
  00adc	8b 15 00 00 00
	00		 mov	 edx, DWORD PTR ?__LINE__Var@?0??scan_local_entity_sounds@@YGXPAUVIEWPOINT@@@Z@4JA
  00ae2	81 c2 af 00 00
	00		 add	 edx, 175		; 000000afH
  00ae8	52		 push	 edx
  00ae9	68 00 00 00 00	 push	 OFFSET ??_C@_0EM@MBHHOJGM@c?3?2users?2nhv90?2projects?2eech?2ap@
  00aee	a1 00 00 00 00	 mov	 eax, DWORD PTR ?null_entity_pointer_message@@3PBDB ; null_entity_pointer_message
  00af3	50		 push	 eax
  00af4	e8 00 00 00 00	 call	 ?process_assert@@YGXPBD0H@Z ; process_assert
  00af9	c7 85 7c ff ff
	ff 00 00 00 00	 mov	 DWORD PTR tv455[ebp], 0
$LN87@scan_local:
  00b03	b9 01 00 00 00	 mov	 ecx, 1
  00b08	85 c9		 test	 ecx, ecx
  00b0a	74 0c		 je	 SHORT $LN88@scan_local
  00b0c	c7 85 78 ff ff
	ff 0e 00 00 00	 mov	 DWORD PTR tv463[ebp], 14 ; 0000000eH
  00b16	eb 27		 jmp	 SHORT $LN89@scan_local
$LN88@scan_local:
  00b18	8b 15 00 00 00
	00		 mov	 edx, DWORD PTR ?__LINE__Var@?0??scan_local_entity_sounds@@YGXPAUVIEWPOINT@@@Z@4JA
  00b1e	81 c2 af 00 00
	00		 add	 edx, 175		; 000000afH
  00b24	52		 push	 edx
  00b25	68 00 00 00 00	 push	 OFFSET ??_C@_0EM@MBHHOJGM@c?3?2users?2nhv90?2projects?2eech?2ap@
  00b2a	a1 00 00 00 00	 mov	 eax, DWORD PTR ?overload_invalid_ptr_type_message@@3PBDB ; overload_invalid_ptr_type_message
  00b2f	50		 push	 eax
  00b30	e8 00 00 00 00	 call	 ?process_assert@@YGXPBD0H@Z ; process_assert
  00b35	c7 85 78 ff ff
	ff 00 00 00 00	 mov	 DWORD PTR tv463[ebp], 0
$LN89@scan_local:
  00b3f	6a 00		 push	 0
  00b41	6a 0e		 push	 14			; 0000000eH
  00b43	8b 4d e0	 mov	 ecx, DWORD PTR _en$[ebp]
  00b46	51		 push	 ecx
  00b47	6b 95 7c ff ff
	ff 50		 imul	 edx, DWORD PTR tv455[ebp], 80
  00b4e	8b 85 78 ff ff
	ff		 mov	 eax, DWORD PTR tv463[ebp]
  00b54	8b 8c 82 00 00
	00 00		 mov	 ecx, DWORD PTR ?fn_set_local_entity_ptr_value@@3PAY0BE@P6GXPAUENTITY@@W4PTR_TYPES@@PAX@ZA[edx+eax*4]
  00b5b	ff d1		 call	 ecx
$LN27@scan_local:

; 269  : 			}
; 270  : 		}

  00b5d	e9 fb 01 00 00	 jmp	 $LN30@scan_local
$LN25@scan_local:

; 271  : 		else if (en)

  00b62	83 7d e0 00	 cmp	 DWORD PTR _en$[ebp], 0
  00b66	0f 84 f1 01 00
	00		 je	 $LN30@scan_local

; 272  : 		{
; 273  : 			if (get_local_entity_parent (en, LIST_TYPE_SPECIAL_EFFECT) != get_session_entity ())

  00b6c	83 7d e0 00	 cmp	 DWORD PTR _en$[ebp], 0
  00b70	74 0d		 je	 SHORT $LN90@scan_local
  00b72	8b 45 e0	 mov	 eax, DWORD PTR _en$[ebp]
  00b75	8b 08		 mov	 ecx, DWORD PTR [eax]
  00b77	89 8d 7c ff ff
	ff		 mov	 DWORD PTR tv475[ebp], ecx
  00b7d	eb 20		 jmp	 SHORT $LN91@scan_local
$LN90@scan_local:
  00b7f	68 11 01 00 00	 push	 273			; 00000111H
  00b84	68 00 00 00 00	 push	 OFFSET ??_C@_0EM@MBHHOJGM@c?3?2users?2nhv90?2projects?2eech?2ap@
  00b89	8b 15 00 00 00
	00		 mov	 edx, DWORD PTR ?null_entity_pointer_message@@3PBDB ; null_entity_pointer_message
  00b8f	52		 push	 edx
  00b90	e8 00 00 00 00	 call	 ?process_assert@@YGXPBD0H@Z ; process_assert
  00b95	c7 85 7c ff ff
	ff 00 00 00 00	 mov	 DWORD PTR tv475[ebp], 0
$LN91@scan_local:
  00b9f	b8 01 00 00 00	 mov	 eax, 1
  00ba4	85 c0		 test	 eax, eax
  00ba6	74 0c		 je	 SHORT $LN92@scan_local
  00ba8	c7 85 78 ff ff
	ff 24 00 00 00	 mov	 DWORD PTR tv482[ebp], 36 ; 00000024H
  00bb2	eb 20		 jmp	 SHORT $LN93@scan_local
$LN92@scan_local:
  00bb4	68 11 01 00 00	 push	 273			; 00000111H
  00bb9	68 00 00 00 00	 push	 OFFSET ??_C@_0EM@MBHHOJGM@c?3?2users?2nhv90?2projects?2eech?2ap@
  00bbe	8b 0d 00 00 00
	00		 mov	 ecx, DWORD PTR ?overload_invalid_list_type_message@@3PBDB ; overload_invalid_list_type_message
  00bc4	51		 push	 ecx
  00bc5	e8 00 00 00 00	 call	 ?process_assert@@YGXPBD0H@Z ; process_assert
  00bca	c7 85 78 ff ff
	ff 00 00 00 00	 mov	 DWORD PTR tv482[ebp], 0
$LN93@scan_local:
  00bd4	6a 24		 push	 36			; 00000024H
  00bd6	8b 55 e0	 mov	 edx, DWORD PTR _en$[ebp]
  00bd9	52		 push	 edx
  00bda	69 85 7c ff ff
	ff b4 00 00 00	 imul	 eax, DWORD PTR tv475[ebp], 180
  00be4	8b 8d 78 ff ff
	ff		 mov	 ecx, DWORD PTR tv482[ebp]
  00bea	8b 94 88 00 00
	00 00		 mov	 edx, DWORD PTR ?fn_get_local_entity_parent@@3PAY0CN@P6GPAUENTITY@@PAU1@W4LIST_TYPES@@@ZA[eax+ecx*4]
  00bf1	ff d2		 call	 edx
  00bf3	3b 05 00 00 00
	00		 cmp	 eax, DWORD PTR ?session_entity@@3PAUENTITY@@A ; session_entity
  00bf9	0f 84 5e 01 00
	00		 je	 $LN30@scan_local

; 274  : 			{
; 275  : 				position = get_local_entity_vec3d_ptr (en, VEC3D_TYPE_POSITION);

  00bff	83 7d e0 00	 cmp	 DWORD PTR _en$[ebp], 0
  00c03	74 0d		 je	 SHORT $LN94@scan_local
  00c05	8b 45 e0	 mov	 eax, DWORD PTR _en$[ebp]
  00c08	8b 08		 mov	 ecx, DWORD PTR [eax]
  00c0a	89 8d 7c ff ff
	ff		 mov	 DWORD PTR tv495[ebp], ecx
  00c10	eb 27		 jmp	 SHORT $LN95@scan_local
$LN94@scan_local:
  00c12	8b 15 00 00 00
	00		 mov	 edx, DWORD PTR ?__LINE__Var@?0??scan_local_entity_sounds@@YGXPAUVIEWPOINT@@@Z@4JA
  00c18	81 c2 b6 00 00
	00		 add	 edx, 182		; 000000b6H
  00c1e	52		 push	 edx
  00c1f	68 00 00 00 00	 push	 OFFSET ??_C@_0EM@MBHHOJGM@c?3?2users?2nhv90?2projects?2eech?2ap@
  00c24	a1 00 00 00 00	 mov	 eax, DWORD PTR ?null_entity_pointer_message@@3PBDB ; null_entity_pointer_message
  00c29	50		 push	 eax
  00c2a	e8 00 00 00 00	 call	 ?process_assert@@YGXPBD0H@Z ; process_assert
  00c2f	c7 85 7c ff ff
	ff 00 00 00 00	 mov	 DWORD PTR tv495[ebp], 0
$LN95@scan_local:
  00c39	b9 01 00 00 00	 mov	 ecx, 1
  00c3e	85 c9		 test	 ecx, ecx
  00c40	74 0c		 je	 SHORT $LN96@scan_local
  00c42	c7 85 78 ff ff
	ff 08 00 00 00	 mov	 DWORD PTR tv503[ebp], 8
  00c4c	eb 27		 jmp	 SHORT $LN97@scan_local
$LN96@scan_local:
  00c4e	8b 15 00 00 00
	00		 mov	 edx, DWORD PTR ?__LINE__Var@?0??scan_local_entity_sounds@@YGXPAUVIEWPOINT@@@Z@4JA
  00c54	81 c2 b6 00 00
	00		 add	 edx, 182		; 000000b6H
  00c5a	52		 push	 edx
  00c5b	68 00 00 00 00	 push	 OFFSET ??_C@_0EM@MBHHOJGM@c?3?2users?2nhv90?2projects?2eech?2ap@
  00c60	a1 00 00 00 00	 mov	 eax, DWORD PTR ?overload_invalid_vec3d_type_message@@3PBDB ; overload_invalid_vec3d_type_message
  00c65	50		 push	 eax
  00c66	e8 00 00 00 00	 call	 ?process_assert@@YGXPBD0H@Z ; process_assert
  00c6b	c7 85 78 ff ff
	ff 00 00 00 00	 mov	 DWORD PTR tv503[ebp], 0
$LN97@scan_local:
  00c75	6a 08		 push	 8
  00c77	8b 4d e0	 mov	 ecx, DWORD PTR _en$[ebp]
  00c7a	51		 push	 ecx
  00c7b	6b 95 7c ff ff
	ff 60		 imul	 edx, DWORD PTR tv495[ebp], 96
  00c82	8b 85 78 ff ff
	ff		 mov	 eax, DWORD PTR tv503[ebp]
  00c88	8b 8c 82 00 00
	00 00		 mov	 ecx, DWORD PTR ?fn_get_local_entity_vec3d_ptr@@3PAY0BI@P6GPAUVEC3D@@PAUENTITY@@W4VEC3D_TYPES@@@ZA[edx+eax*4]
  00c8f	ff d1		 call	 ecx
  00c91	89 45 cc	 mov	 DWORD PTR _position$[ebp], eax

; 276  : 	
; 277  : 				range = get_approx_3d_range (&vp->position, position);

  00c94	8b 45 cc	 mov	 eax, DWORD PTR _position$[ebp]
  00c97	50		 push	 eax
  00c98	8b 4d 08	 mov	 ecx, DWORD PTR _vp$[ebp]
  00c9b	51		 push	 ecx
  00c9c	e8 00 00 00 00	 call	 ?get_approx_3d_range@@YGMPBUVEC3D@@0@Z ; get_approx_3d_range
  00ca1	d9 5d c8	 fstp	 DWORD PTR _range$[ebp]

; 278  : 	
; 279  : 				max_range = 5000;

  00ca4	f3 0f 10 05 00
	00 00 00	 movss	 xmm0, DWORD PTR __real@459c4000
  00cac	f3 0f 11 45 c4	 movss	 DWORD PTR _max_range$[ebp], xmm0

; 280  : 	
; 281  : 				if (range > max_range)

  00cb1	f3 0f 10 45 c8	 movss	 xmm0, DWORD PTR _range$[ebp]
  00cb6	0f 2f 45 c4	 comiss	 xmm0, DWORD PTR _max_range$[ebp]
  00cba	0f 86 9d 00 00
	00		 jbe	 $LN30@scan_local

; 282  : 				{
; 283  : 	
; 284  : 					#if DEBUG_MODULE
; 285  : 	
; 286  : 					debug_log ("EN_SND: destroying sound effect (too far away)");
; 287  : 	
; 288  : 					#endif
; 289  : 	
; 290  : 					destroy_system_sound_effect (snd_eff);

  00cc0	8b 45 c0	 mov	 eax, DWORD PTR _snd_eff$[ebp]
  00cc3	50		 push	 eax
  00cc4	e8 00 00 00 00	 call	 ?destroy_system_sound_effect@@YGXPAUSYSTEM_SOUND_EFFECT@@@Z ; destroy_system_sound_effect

; 291  : 	
; 292  : 					set_local_entity_ptr_value (en, PTR_TYPE_SOUND_EFFECT_DATA, NULL);

  00cc9	83 7d e0 00	 cmp	 DWORD PTR _en$[ebp], 0
  00ccd	74 0d		 je	 SHORT $LN98@scan_local
  00ccf	8b 45 e0	 mov	 eax, DWORD PTR _en$[ebp]
  00cd2	8b 08		 mov	 ecx, DWORD PTR [eax]
  00cd4	89 8d 7c ff ff
	ff		 mov	 DWORD PTR tv521[ebp], ecx
  00cda	eb 27		 jmp	 SHORT $LN99@scan_local
$LN98@scan_local:
  00cdc	8b 15 00 00 00
	00		 mov	 edx, DWORD PTR ?__LINE__Var@?0??scan_local_entity_sounds@@YGXPAUVIEWPOINT@@@Z@4JA
  00ce2	81 c2 c7 00 00
	00		 add	 edx, 199		; 000000c7H
  00ce8	52		 push	 edx
  00ce9	68 00 00 00 00	 push	 OFFSET ??_C@_0EM@MBHHOJGM@c?3?2users?2nhv90?2projects?2eech?2ap@
  00cee	a1 00 00 00 00	 mov	 eax, DWORD PTR ?null_entity_pointer_message@@3PBDB ; null_entity_pointer_message
  00cf3	50		 push	 eax
  00cf4	e8 00 00 00 00	 call	 ?process_assert@@YGXPBD0H@Z ; process_assert
  00cf9	c7 85 7c ff ff
	ff 00 00 00 00	 mov	 DWORD PTR tv521[ebp], 0
$LN99@scan_local:
  00d03	b9 01 00 00 00	 mov	 ecx, 1
  00d08	85 c9		 test	 ecx, ecx
  00d0a	74 0c		 je	 SHORT $LN100@scan_local
  00d0c	c7 85 78 ff ff
	ff 0e 00 00 00	 mov	 DWORD PTR tv529[ebp], 14 ; 0000000eH
  00d16	eb 27		 jmp	 SHORT $LN101@scan_local
$LN100@scan_local:
  00d18	8b 15 00 00 00
	00		 mov	 edx, DWORD PTR ?__LINE__Var@?0??scan_local_entity_sounds@@YGXPAUVIEWPOINT@@@Z@4JA
  00d1e	81 c2 c7 00 00
	00		 add	 edx, 199		; 000000c7H
  00d24	52		 push	 edx
  00d25	68 00 00 00 00	 push	 OFFSET ??_C@_0EM@MBHHOJGM@c?3?2users?2nhv90?2projects?2eech?2ap@
  00d2a	a1 00 00 00 00	 mov	 eax, DWORD PTR ?overload_invalid_ptr_type_message@@3PBDB ; overload_invalid_ptr_type_message
  00d2f	50		 push	 eax
  00d30	e8 00 00 00 00	 call	 ?process_assert@@YGXPBD0H@Z ; process_assert
  00d35	c7 85 78 ff ff
	ff 00 00 00 00	 mov	 DWORD PTR tv529[ebp], 0
$LN101@scan_local:
  00d3f	6a 00		 push	 0
  00d41	6a 0e		 push	 14			; 0000000eH
  00d43	8b 4d e0	 mov	 ecx, DWORD PTR _en$[ebp]
  00d46	51		 push	 ecx
  00d47	6b 95 7c ff ff
	ff 50		 imul	 edx, DWORD PTR tv521[ebp], 80
  00d4e	8b 85 78 ff ff
	ff		 mov	 eax, DWORD PTR tv529[ebp]
  00d54	8b 8c 82 00 00
	00 00		 mov	 ecx, DWORD PTR ?fn_set_local_entity_ptr_value@@3PAY0BE@P6GXPAUENTITY@@W4PTR_TYPES@@PAX@ZA[edx+eax*4]
  00d5b	ff d1		 call	 ecx
$LN30@scan_local:

; 293  : 				}
; 294  : 			}
; 295  : 		}
; 296  : 
; 297  : 		snd_eff = get_next_system_sound_effect (snd_eff);

  00d5d	8b 45 c0	 mov	 eax, DWORD PTR _snd_eff$[ebp]
  00d60	50		 push	 eax
  00d61	e8 00 00 00 00	 call	 ?get_next_system_sound_effect@@YGPAUSYSTEM_SOUND_EFFECT@@PAU1@@Z ; get_next_system_sound_effect
  00d66	89 45 c0	 mov	 DWORD PTR _snd_eff$[ebp], eax

; 298  : 	}

  00d69	e9 21 fd ff ff	 jmp	 $LN16@scan_local
$LN17@scan_local:
$LN1@scan_local:

; 299  : }

  00d6e	5f		 pop	 edi
  00d6f	5e		 pop	 esi
  00d70	5b		 pop	 ebx
  00d71	8b e5		 mov	 esp, ebp
  00d73	5d		 pop	 ebp
  00d74	c2 04 00	 ret	 4
?scan_local_entity_sounds@@YGXPAUVIEWPOINT@@@Z ENDP	; scan_local_entity_sounds
_TEXT	ENDS
END
