; Listing generated by Microsoft (R) Optimizing Compiler Version 19.16.27045.0 

	TITLE	C:\Users\nhv90\Projects\eech\aphavoc\source\entity\system\en_debug\en_stats.c
	.686P
	.XMM
	include listing.inc
	.model	flat

INCLUDELIB MSVCRTD
INCLUDELIB OLDNAMES

PUBLIC	?initialise_entity_system_statistics@@YGXXZ	; initialise_entity_system_statistics
PUBLIC	?update_create_entity_statistics@@YGXW4ENTITY_TYPES@@@Z ; update_create_entity_statistics
PUBLIC	?update_destroy_entity_statistics@@YGXPAUENTITY@@@Z ; update_destroy_entity_statistics
PUBLIC	?display_entity_system_statistics@@YGXXZ	; display_entity_system_statistics
PUBLIC	?dump_aircraft_and_vehicle_count@@YGXXZ		; dump_aircraft_and_vehicle_count
PUBLIC	?__LINE__Var@?0??update_create_entity_statistics@@YGXW4ENTITY_TYPES@@@Z@4JA ; `update_create_entity_statistics'::`1'::__LINE__Var
PUBLIC	??_C@_0EO@EAGEICGD@c?3?2users?2nhv90?2projects?2eech?2ap@ ; `string'
PUBLIC	??_C@_0DK@FHKBEOGD@?$CItype?5?$DO?5ENTITY_TYPE_UNKNOWN?$CJ?5?$CG?$CG@ ; `string'
PUBLIC	?__LINE__Var@?0??update_destroy_entity_statistics@@YGXPAUENTITY@@@Z@4JA ; `update_destroy_entity_statistics'::`1'::__LINE__Var
PUBLIC	??_C@_02LFNMGJAP@en@				; `string'
PUBLIC	??_C@_0CG@DKAPOBGO@?$DN?$DN?$DN?$DN?$DN?$DN?$DN?$DN?$DN?$DN?$DN?$DN?$DN?$DN?$DN?$DN?$DN?$DN?$DN?$DN?$DN?$DN?$DN?$DN?$DN?$DN?$DN?$DN?$DN?$DN?$DN@ ; `string'
PUBLIC	??_C@_0BJ@DMGBAJKM@ENTITY?5SYSTEM?5STATISTICS@	; `string'
PUBLIC	??_C@_0CG@HMIINNMI@?9?9?9?9?9?9?9?9?9?9?9?9?9?9?9?9?9?9?9?9?9?9?9?9?9?9?9?9?9?9?9@ ; `string'
PUBLIC	??_C@_0BC@FIJECEOA@ENTITY?5PEAK?5USAGE@		; `string'
PUBLIC	??_C@_0DG@IHHOCNJB@?$CF?925?425s?3?5entity?5peak?5count?5?$DN?5?$CF@ ; `string'
PUBLIC	??_C@_0EL@EHBKJJJP@?$CF?925?425s?3?5total?5created?5?$DN?5?$CF5d?0?5@ ; `string'
PUBLIC	?__LINE__Var@?0??dump_aircraft_and_vehicle_count@@YGXXZ@4JA ; `dump_aircraft_and_vehicle_count'::`1'::__LINE__Var
PUBLIC	??_C@_0CK@NNIIACMJ@entity_sub_type_aircraft_valid?5@ ; `string'
PUBLIC	??_C@_0FK@LHPALLNM@entity_sub_type_vehicle_valid?5?$CI@ ; `string'
PUBLIC	??_C@_0BP@CMNGCEDO@START?5FORCE?5COUNT?5?$CItotal?5?$DN?5?$CFd?$CJ@ ; `string'
PUBLIC	??_C@_0BL@NJDFHLLK@BLUE?5AIRCRAFT?5?$CItotal?5?$DN?5?$CFd?$CJ@ ; `string'
PUBLIC	??_C@_07LHAGCKKH@?$CF4dx?5?$CFs@		; `string'
PUBLIC	??_C@_0BL@IJFAOABK@BLUE?5VEHICLES?5?$CItotal?5?$DN?5?$CFd?$CJ@ ; `string'
PUBLIC	??_C@_0BK@KIPODJA@RED?5AIRCRAFT?5?$CItotal?5?$DN?5?$CFd?$CJ@ ; `string'
PUBLIC	??_C@_0BK@FKOKHIDA@RED?5VEHICLES?5?$CItotal?5?$DN?5?$CFd?$CJ@ ; `string'
PUBLIC	??_C@_0BA@OODPNMJK@END?5FORCE?5COUNT@		; `string'
PUBLIC	__real@4059000000000000
EXTRN	_memset:PROC
EXTRN	?process_assert@@YGXPBD0H@Z:PROC		; process_assert
EXTRN	?debug_colour_log@@YAXW4DEBUG_COLOURS@@PBDZZ:PROC ; debug_colour_log
EXTRN	?entity_sub_type_aircraft_names@@3PAPBDA:BYTE	; entity_sub_type_aircraft_names
EXTRN	?entity_sub_type_vehicle_names@@3PAPBDA:BYTE	; entity_sub_type_vehicle_names
EXTRN	?null_entity_pointer_message@@3PBDB:DWORD	; null_entity_pointer_message
EXTRN	?entity_type_database@@3PAUENTITY_TYPE_DATA@@A:BYTE ; entity_type_database
EXTRN	?system_comms_model@@3W4COMMS_MODEL_TYPES@@A:DWORD ; system_comms_model
EXTRN	?system_comms_data_flow@@3W4COMMS_DATA_FLOW_TYPES@@A:DWORD ; system_comms_data_flow
EXTRN	?overload_invalid_int_type_message@@3PBDB:DWORD	; overload_invalid_int_type_message
EXTRN	?fn_get_local_entity_int_value@@3PAY0BBH@P6GHPAUENTITY@@W4INT_TYPES@@@ZA:BYTE ; fn_get_local_entity_int_value
EXTRN	?number_of_entities@@3HA:DWORD			; number_of_entities
EXTRN	?first_used_entity@@3PAUENTITY@@A:DWORD		; first_used_entity
EXTRN	__fltused:DWORD
_BSS	SEGMENT
?entity_count@@3HA DD 01H DUP (?)			; entity_count
?entity_peak_count@@3HA DD 01H DUP (?)			; entity_peak_count
?entity_type_stats@@3PAU<unnamed-type-entity_type_stats>@@A DB 01c8H DUP (?) ; entity_type_stats
_BSS	ENDS
;	COMDAT __real@4059000000000000
CONST	SEGMENT
__real@4059000000000000 DQ 04059000000000000r	; 100
CONST	ENDS
;	COMDAT ??_C@_0BA@OODPNMJK@END?5FORCE?5COUNT@
CONST	SEGMENT
??_C@_0BA@OODPNMJK@END?5FORCE?5COUNT@ DB 'END FORCE COUNT', 00H ; `string'
CONST	ENDS
;	COMDAT ??_C@_0BK@FKOKHIDA@RED?5VEHICLES?5?$CItotal?5?$DN?5?$CFd?$CJ@
CONST	SEGMENT
??_C@_0BK@FKOKHIDA@RED?5VEHICLES?5?$CItotal?5?$DN?5?$CFd?$CJ@ DB 'RED VEH'
	DB	'ICLES (total = %d)', 00H			; `string'
CONST	ENDS
;	COMDAT ??_C@_0BK@KIPODJA@RED?5AIRCRAFT?5?$CItotal?5?$DN?5?$CFd?$CJ@
CONST	SEGMENT
??_C@_0BK@KIPODJA@RED?5AIRCRAFT?5?$CItotal?5?$DN?5?$CFd?$CJ@ DB 'RED AIRC'
	DB	'RAFT (total = %d)', 00H			; `string'
CONST	ENDS
;	COMDAT ??_C@_0BL@IJFAOABK@BLUE?5VEHICLES?5?$CItotal?5?$DN?5?$CFd?$CJ@
CONST	SEGMENT
??_C@_0BL@IJFAOABK@BLUE?5VEHICLES?5?$CItotal?5?$DN?5?$CFd?$CJ@ DB 'BLUE V'
	DB	'EHICLES (total = %d)', 00H			; `string'
CONST	ENDS
;	COMDAT ??_C@_07LHAGCKKH@?$CF4dx?5?$CFs@
CONST	SEGMENT
??_C@_07LHAGCKKH@?$CF4dx?5?$CFs@ DB '%4dx %s', 00H	; `string'
CONST	ENDS
;	COMDAT ??_C@_0BL@NJDFHLLK@BLUE?5AIRCRAFT?5?$CItotal?5?$DN?5?$CFd?$CJ@
CONST	SEGMENT
??_C@_0BL@NJDFHLLK@BLUE?5AIRCRAFT?5?$CItotal?5?$DN?5?$CFd?$CJ@ DB 'BLUE A'
	DB	'IRCRAFT (total = %d)', 00H			; `string'
CONST	ENDS
;	COMDAT ??_C@_0BP@CMNGCEDO@START?5FORCE?5COUNT?5?$CItotal?5?$DN?5?$CFd?$CJ@
CONST	SEGMENT
??_C@_0BP@CMNGCEDO@START?5FORCE?5COUNT?5?$CItotal?5?$DN?5?$CFd?$CJ@ DB 'S'
	DB	'TART FORCE COUNT (total = %d)', 00H		; `string'
CONST	ENDS
;	COMDAT ??_C@_0FK@LHPALLNM@entity_sub_type_vehicle_valid?5?$CI@
CONST	SEGMENT
??_C@_0FK@LHPALLNM@entity_sub_type_vehicle_valid?5?$CI@ DB 'entity_sub_ty'
	DB	'pe_vehicle_valid (get_local_entity_int_value (en, INT_TYPE_EN'
	DB	'TITY_SUB_TYPE))', 00H			; `string'
CONST	ENDS
;	COMDAT ??_C@_0CK@NNIIACMJ@entity_sub_type_aircraft_valid?5@
CONST	SEGMENT
??_C@_0CK@NNIIACMJ@entity_sub_type_aircraft_valid?5@ DB 'entity_sub_type_'
	DB	'aircraft_valid (sub_type)', 00H		; `string'
CONST	ENDS
;	COMDAT ?__LINE__Var@?0??dump_aircraft_and_vehicle_count@@YGXXZ@4JA
_DATA	SEGMENT
?__LINE__Var@?0??dump_aircraft_and_vehicle_count@@YGXXZ@4JA DD 013fH ; `dump_aircraft_and_vehicle_count'::`1'::__LINE__Var
_DATA	ENDS
;	COMDAT ??_C@_0EL@EHBKJJJP@?$CF?925?425s?3?5total?5created?5?$DN?5?$CF5d?0?5@
CONST	SEGMENT
??_C@_0EL@EHBKJJJP@?$CF?925?425s?3?5total?5created?5?$DN?5?$CF5d?0?5@ DB '%'
	DB	'-25.25s: total created = %5d, count = %5d, peak count = %5d, '
	DB	'sizeof = %5d', 00H				; `string'
CONST	ENDS
;	COMDAT ??_C@_0DG@IHHOCNJB@?$CF?925?425s?3?5entity?5peak?5count?5?$DN?5?$CF@
CONST	SEGMENT
??_C@_0DG@IHHOCNJB@?$CF?925?425s?3?5entity?5peak?5count?5?$DN?5?$CF@ DB '%'
	DB	'-25.25s: entity peak count = %d (%.2f percent usage)', 00H ; `string'
CONST	ENDS
;	COMDAT ??_C@_0BC@FIJECEOA@ENTITY?5PEAK?5USAGE@
CONST	SEGMENT
??_C@_0BC@FIJECEOA@ENTITY?5PEAK?5USAGE@ DB 'ENTITY PEAK USAGE', 00H ; `string'
CONST	ENDS
;	COMDAT ??_C@_0CG@HMIINNMI@?9?9?9?9?9?9?9?9?9?9?9?9?9?9?9?9?9?9?9?9?9?9?9?9?9?9?9?9?9?9?9@
CONST	SEGMENT
??_C@_0CG@HMIINNMI@?9?9?9?9?9?9?9?9?9?9?9?9?9?9?9?9?9?9?9?9?9?9?9?9?9?9?9?9?9?9?9@ DB '-'
	DB	'------------------------------------', 00H	; `string'
CONST	ENDS
;	COMDAT ??_C@_0BJ@DMGBAJKM@ENTITY?5SYSTEM?5STATISTICS@
CONST	SEGMENT
??_C@_0BJ@DMGBAJKM@ENTITY?5SYSTEM?5STATISTICS@ DB 'ENTITY SYSTEM STATISTI'
	DB	'CS', 00H					; `string'
CONST	ENDS
;	COMDAT ??_C@_0CG@DKAPOBGO@?$DN?$DN?$DN?$DN?$DN?$DN?$DN?$DN?$DN?$DN?$DN?$DN?$DN?$DN?$DN?$DN?$DN?$DN?$DN?$DN?$DN?$DN?$DN?$DN?$DN?$DN?$DN?$DN?$DN?$DN?$DN@
CONST	SEGMENT
??_C@_0CG@DKAPOBGO@?$DN?$DN?$DN?$DN?$DN?$DN?$DN?$DN?$DN?$DN?$DN?$DN?$DN?$DN?$DN?$DN?$DN?$DN?$DN?$DN?$DN?$DN?$DN?$DN?$DN?$DN?$DN?$DN?$DN?$DN?$DN@ DB '='
	DB	'====================================', 00H	; `string'
CONST	ENDS
;	COMDAT ??_C@_02LFNMGJAP@en@
CONST	SEGMENT
??_C@_02LFNMGJAP@en@ DB 'en', 00H			; `string'
CONST	ENDS
;	COMDAT ?__LINE__Var@?0??update_destroy_entity_statistics@@YGXPAUENTITY@@@Z@4JA
_DATA	SEGMENT
?__LINE__Var@?0??update_destroy_entity_statistics@@YGXPAUENTITY@@@Z@4JA DD 08cH ; `update_destroy_entity_statistics'::`1'::__LINE__Var
_DATA	ENDS
;	COMDAT ??_C@_0DK@FHKBEOGD@?$CItype?5?$DO?5ENTITY_TYPE_UNKNOWN?$CJ?5?$CG?$CG@
CONST	SEGMENT
??_C@_0DK@FHKBEOGD@?$CItype?5?$DO?5ENTITY_TYPE_UNKNOWN?$CJ?5?$CG?$CG@ DB '('
	DB	'type > ENTITY_TYPE_UNKNOWN) && (type < NUM_ENTITY_TYPES)', 00H ; `string'
CONST	ENDS
;	COMDAT ??_C@_0EO@EAGEICGD@c?3?2users?2nhv90?2projects?2eech?2ap@
CONST	SEGMENT
??_C@_0EO@EAGEICGD@c?3?2users?2nhv90?2projects?2eech?2ap@ DB 'c:\users\nh'
	DB	'v90\projects\eech\aphavoc\source\entity\system\en_debug\en_st'
	DB	'ats.c', 00H					; `string'
CONST	ENDS
;	COMDAT ?__LINE__Var@?0??update_create_entity_statistics@@YGXW4ENTITY_TYPES@@@Z@4JA
_DATA	SEGMENT
?__LINE__Var@?0??update_create_entity_statistics@@YGXW4ENTITY_TYPES@@@Z@4JA DD 06eH ; `update_create_entity_statistics'::`1'::__LINE__Var
_DATA	ENDS
; Function compile flags: /Odtp /ZI
; File c:\users\nhv90\projects\eech\aphavoc\source\entity\system\en_debug\en_stats.c
;	COMDAT ?get_vehicle_side@@YG?AW4ENTITY_SIDES@@H@Z
_TEXT	SEGMENT
tv64 = -68						; size = 4
_type$ = 8						; size = 4
?get_vehicle_side@@YG?AW4ENTITY_SIDES@@H@Z PROC		; get_vehicle_side, COMDAT

; 258  : {

  00000	55		 push	 ebp
  00001	8b ec		 mov	 ebp, esp
  00003	83 ec 44	 sub	 esp, 68			; 00000044H
  00006	53		 push	 ebx
  00007	56		 push	 esi
  00008	57		 push	 edi

; 259  : 	switch (type)

  00009	8b 45 08	 mov	 eax, DWORD PTR _type$[ebp]
  0000c	89 45 bc	 mov	 DWORD PTR tv64[ebp], eax
  0000f	83 7d bc 25	 cmp	 DWORD PTR tv64[ebp], 37	; 00000025H
  00013	77 21		 ja	 SHORT $LN2@get_vehicl
  00015	8b 4d bc	 mov	 ecx, DWORD PTR tv64[ebp]
  00018	0f b6 91 00 00
	00 00		 movzx	 edx, BYTE PTR $LN7@get_vehicl[ecx]
  0001f	ff 24 95 00 00
	00 00		 jmp	 DWORD PTR $LN8@get_vehicl[edx*4]
$LN4@get_vehicl:

; 260  : 	{
; 261  : 		case ENTITY_SUB_TYPE_VEHICLE_M1A2_ABRAMS:
; 262  : 		case ENTITY_SUB_TYPE_VEHICLE_M2A2_BRADLEY:
; 263  : 		case ENTITY_SUB_TYPE_VEHICLE_M113A2:
; 264  : 		case ENTITY_SUB_TYPE_VEHICLE_M1025_HUMVEE:
; 265  : 		case ENTITY_SUB_TYPE_VEHICLE_M109A2:
; 266  : 		case ENTITY_SUB_TYPE_VEHICLE_M270_MLRS:
; 267  : 		case ENTITY_SUB_TYPE_VEHICLE_M163_VULCAN:
; 268  : 		case ENTITY_SUB_TYPE_VEHICLE_M1037_AVENGER:
; 269  : 		case ENTITY_SUB_TYPE_VEHICLE_M48A1_CHAPARRAL:
; 270  : 		case ENTITY_SUB_TYPE_VEHICLE_M998_HUMVEE:
; 271  : 		case ENTITY_SUB_TYPE_VEHICLE_M923A1_BIG_FOOT:
; 272  : 		case ENTITY_SUB_TYPE_VEHICLE_M923A1_BIG_FOOT_COVERED:
; 273  : 		case ENTITY_SUB_TYPE_VEHICLE_M978_HEMTT:
; 274  : 		case ENTITY_SUB_TYPE_VEHICLE_TARAWA_CLASS:
; 275  : 		case ENTITY_SUB_TYPE_VEHICLE_OLIVER_HAZARD_PERRY_CLASS:
; 276  : 		case ENTITY_SUB_TYPE_VEHICLE_LCU:
; 277  : 		case ENTITY_SUB_TYPE_VEHICLE_US_INFANTRY:
; 278  : 		case ENTITY_SUB_TYPE_VEHICLE_US_INFANTRY_SAM_STANDING:
; 279  : 		case ENTITY_SUB_TYPE_VEHICLE_US_INFANTRY_SAM_KNEELING:
; 280  : 		{
; 281  : 			return (ENTITY_SIDE_BLUE_FORCE);

  00026	b8 01 00 00 00	 mov	 eax, 1
  0002b	eb 0b		 jmp	 SHORT $LN1@get_vehicl

; 282  : 
; 283  : 			break;

  0002d	eb 07		 jmp	 SHORT $LN2@get_vehicl
$LN5@get_vehicl:

; 284  : 		}
; 285  : 		case ENTITY_SUB_TYPE_VEHICLE_T80U:
; 286  : 		case ENTITY_SUB_TYPE_VEHICLE_BMP2:
; 287  : 		case ENTITY_SUB_TYPE_VEHICLE_BMP3:
; 288  : 		case ENTITY_SUB_TYPE_VEHICLE_BTR80:
; 289  : 		case ENTITY_SUB_TYPE_VEHICLE_BRDM2:
; 290  : 		case ENTITY_SUB_TYPE_VEHICLE_2S19:
; 291  : 		case ENTITY_SUB_TYPE_VEHICLE_BM21_GRAD:
; 292  : 		case ENTITY_SUB_TYPE_VEHICLE_SA19_GRISON:
; 293  : 		case ENTITY_SUB_TYPE_VEHICLE_SA13_GOPHER:
; 294  : 		case ENTITY_SUB_TYPE_VEHICLE_UAZ469B:
; 295  : 		case ENTITY_SUB_TYPE_VEHICLE_URAL_4320:
; 296  : 		case ENTITY_SUB_TYPE_VEHICLE_URAL_FUEL_TANKER:
; 297  : 		case ENTITY_SUB_TYPE_VEHICLE_KIEV_CLASS:
; 298  : 		case ENTITY_SUB_TYPE_VEHICLE_KRIVAK_II_CLASS:
; 299  : 		case ENTITY_SUB_TYPE_VEHICLE_LCAC:
; 300  : 		case ENTITY_SUB_TYPE_VEHICLE_AIST_CLASS:
; 301  : 		case ENTITY_SUB_TYPE_VEHICLE_CIS_INFANTRY:
; 302  : 		case ENTITY_SUB_TYPE_VEHICLE_CIS_INFANTRY_SAM_STANDING:
; 303  : 		case ENTITY_SUB_TYPE_VEHICLE_CIS_INFANTRY_SAM_KNEELING:
; 304  : 		{
; 305  : 			return (ENTITY_SIDE_RED_FORCE);

  0002f	b8 02 00 00 00	 mov	 eax, 2
  00034	eb 02		 jmp	 SHORT $LN1@get_vehicl
$LN2@get_vehicl:

; 306  : 
; 307  : 			break;
; 308  : 		}
; 309  : 	}
; 310  : 
; 311  : 	return (ENTITY_SIDE_NEUTRAL);

  00036	33 c0		 xor	 eax, eax
$LN1@get_vehicl:

; 312  : }

  00038	5f		 pop	 edi
  00039	5e		 pop	 esi
  0003a	5b		 pop	 ebx
  0003b	8b e5		 mov	 esp, ebp
  0003d	5d		 pop	 ebp
  0003e	c2 04 00	 ret	 4
  00041	0f 1f 00	 npad	 3
$LN8@get_vehicl:
  00044	00 00 00 00	 DD	 $LN4@get_vehicl
  00048	00 00 00 00	 DD	 $LN5@get_vehicl
$LN7@get_vehicl:
  0004c	00		 DB	 0
  0004d	01		 DB	 1
  0004e	00		 DB	 0
  0004f	01		 DB	 1
  00050	01		 DB	 1
  00051	00		 DB	 0
  00052	01		 DB	 1
  00053	00		 DB	 0
  00054	01		 DB	 1
  00055	00		 DB	 0
  00056	01		 DB	 1
  00057	00		 DB	 0
  00058	01		 DB	 1
  00059	00		 DB	 0
  0005a	01		 DB	 1
  0005b	00		 DB	 0
  0005c	00		 DB	 0
  0005d	01		 DB	 1
  0005e	00		 DB	 0
  0005f	01		 DB	 1
  00060	00		 DB	 0
  00061	00		 DB	 0
  00062	01		 DB	 1
  00063	00		 DB	 0
  00064	01		 DB	 1
  00065	00		 DB	 0
  00066	01		 DB	 1
  00067	00		 DB	 0
  00068	01		 DB	 1
  00069	00		 DB	 0
  0006a	01		 DB	 1
  0006b	01		 DB	 1
  0006c	00		 DB	 0
  0006d	00		 DB	 0
  0006e	00		 DB	 0
  0006f	01		 DB	 1
  00070	01		 DB	 1
  00071	01		 DB	 1
?get_vehicle_side@@YG?AW4ENTITY_SIDES@@H@Z ENDP		; get_vehicle_side
_TEXT	ENDS
; Function compile flags: /Odtp /ZI
; File c:\users\nhv90\projects\eech\aphavoc\source\entity\system\en_debug\en_stats.c
;	COMDAT ?get_aircraft_side@@YG?AW4ENTITY_SIDES@@H@Z
_TEXT	SEGMENT
tv64 = -68						; size = 4
_type$ = 8						; size = 4
?get_aircraft_side@@YG?AW4ENTITY_SIDES@@H@Z PROC	; get_aircraft_side, COMDAT

; 203  : {

  00000	55		 push	 ebp
  00001	8b ec		 mov	 ebp, esp
  00003	83 ec 44	 sub	 esp, 68			; 00000044H
  00006	53		 push	 ebx
  00007	56		 push	 esi
  00008	57		 push	 edi

; 204  : 	switch (type)

  00009	8b 45 08	 mov	 eax, DWORD PTR _type$[ebp]
  0000c	89 45 bc	 mov	 DWORD PTR tv64[ebp], eax
  0000f	83 7d bc 1f	 cmp	 DWORD PTR tv64[ebp], 31	; 0000001fH
  00013	77 21		 ja	 SHORT $LN2@get_aircra
  00015	8b 4d bc	 mov	 ecx, DWORD PTR tv64[ebp]
  00018	0f b6 91 00 00
	00 00		 movzx	 edx, BYTE PTR $LN7@get_aircra[ecx]
  0001f	ff 24 95 00 00
	00 00		 jmp	 DWORD PTR $LN8@get_aircra[edx*4]
$LN4@get_aircra:

; 205  : 	{
; 206  : 		case ENTITY_SUB_TYPE_AIRCRAFT_AH64D_APACHE_LONGBOW:
; 207  : 		case ENTITY_SUB_TYPE_AIRCRAFT_RAH66_COMANCHE:
; 208  : 		case ENTITY_SUB_TYPE_AIRCRAFT_UH60_BLACK_HAWK:
; 209  : 		case ENTITY_SUB_TYPE_AIRCRAFT_CH46E_SEA_KNIGHT:
; 210  : 		case ENTITY_SUB_TYPE_AIRCRAFT_CH3_JOLLY_GREEN_GIANT:
; 211  : 		case ENTITY_SUB_TYPE_AIRCRAFT_CH47D_CHINOOK:
; 212  : 		case ENTITY_SUB_TYPE_AIRCRAFT_A10A_THUNDERBOLT:
; 213  : 		case ENTITY_SUB_TYPE_AIRCRAFT_F16_FIGHTING_FALCON:
; 214  : 		case ENTITY_SUB_TYPE_AIRCRAFT_AV8B_HARRIER:
; 215  : 		case ENTITY_SUB_TYPE_AIRCRAFT_FA18_HORNET:
; 216  : 		case ENTITY_SUB_TYPE_AIRCRAFT_AH64A_APACHE:
; 217  : 		case ENTITY_SUB_TYPE_AIRCRAFT_OH58D_KIOWA_WARRIOR:
; 218  : 		case ENTITY_SUB_TYPE_AIRCRAFT_MV22_OSPREY:
; 219  : 		case ENTITY_SUB_TYPE_AIRCRAFT_AH1T_SEACOBRA:
; 220  : 		case ENTITY_SUB_TYPE_AIRCRAFT_AH1W_SUPERCOBRA:
; 221  : 		case ENTITY_SUB_TYPE_AIRCRAFT_AH1Z_VIPER:
; 222  : 		case ENTITY_SUB_TYPE_AIRCRAFT_CH53E_SUPER_STALLION:
; 223  : 		case ENTITY_SUB_TYPE_AIRCRAFT_C17_GLOBEMASTER_III:
; 224  : 		case ENTITY_SUB_TYPE_AIRCRAFT_C130J_HERCULES_II:
; 225  : 		{
; 226  : 			return (ENTITY_SIDE_BLUE_FORCE);

  00026	b8 01 00 00 00	 mov	 eax, 1
  0002b	eb 0b		 jmp	 SHORT $LN1@get_aircra

; 227  : 
; 228  : 			break;

  0002d	eb 07		 jmp	 SHORT $LN2@get_aircra
$LN5@get_aircra:

; 229  : 		}
; 230  : 		case ENTITY_SUB_TYPE_AIRCRAFT_MI28N_HAVOC_B:
; 231  : 		case ENTITY_SUB_TYPE_AIRCRAFT_KA52_HOKUM_B:
; 232  : 		case ENTITY_SUB_TYPE_AIRCRAFT_MI24D_HIND:
; 233  : 		case ENTITY_SUB_TYPE_AIRCRAFT_KA29_HELIX_B:
; 234  : 		case ENTITY_SUB_TYPE_AIRCRAFT_MI17_HIP:
; 235  : 		case ENTITY_SUB_TYPE_AIRCRAFT_MI6_HOOK:
; 236  : 		case ENTITY_SUB_TYPE_AIRCRAFT_SU25_FROGFOOT:
; 237  : 		case ENTITY_SUB_TYPE_AIRCRAFT_MIG29_FULCRUM:
; 238  : 		case ENTITY_SUB_TYPE_AIRCRAFT_YAK41_FREESTYLE:
; 239  : 		case ENTITY_SUB_TYPE_AIRCRAFT_SU33_FLANKER:
; 240  : 		case ENTITY_SUB_TYPE_AIRCRAFT_KA50_HOKUM:
; 241  : 		case ENTITY_SUB_TYPE_AIRCRAFT_IL76MD_CANDID_B:
; 242  : 		case ENTITY_SUB_TYPE_AIRCRAFT_AN12B_CUB:
; 243  : 		{
; 244  : 			return (ENTITY_SIDE_RED_FORCE);

  0002f	b8 02 00 00 00	 mov	 eax, 2
  00034	eb 02		 jmp	 SHORT $LN1@get_aircra
$LN2@get_aircra:

; 245  : 
; 246  : 			break;
; 247  : 		}
; 248  : 	}
; 249  : 
; 250  : 	return (ENTITY_SIDE_NEUTRAL);

  00036	33 c0		 xor	 eax, eax
$LN1@get_aircra:

; 251  : }

  00038	5f		 pop	 edi
  00039	5e		 pop	 esi
  0003a	5b		 pop	 ebx
  0003b	8b e5		 mov	 esp, ebp
  0003d	5d		 pop	 ebp
  0003e	c2 04 00	 ret	 4
  00041	0f 1f 00	 npad	 3
$LN8@get_aircra:
  00044	00 00 00 00	 DD	 $LN4@get_aircra
  00048	00 00 00 00	 DD	 $LN5@get_aircra
$LN7@get_aircra:
  0004c	00		 DB	 0
  0004d	01		 DB	 1
  0004e	00		 DB	 0
  0004f	01		 DB	 1
  00050	00		 DB	 0
  00051	01		 DB	 1
  00052	00		 DB	 0
  00053	01		 DB	 1
  00054	00		 DB	 0
  00055	01		 DB	 1
  00056	00		 DB	 0
  00057	01		 DB	 1
  00058	00		 DB	 0
  00059	01		 DB	 1
  0005a	00		 DB	 0
  0005b	01		 DB	 1
  0005c	00		 DB	 0
  0005d	01		 DB	 1
  0005e	00		 DB	 0
  0005f	01		 DB	 1
  00060	00		 DB	 0
  00061	01		 DB	 1
  00062	00		 DB	 0
  00063	00		 DB	 0
  00064	00		 DB	 0
  00065	00		 DB	 0
  00066	00		 DB	 0
  00067	00		 DB	 0
  00068	01		 DB	 1
  00069	00		 DB	 0
  0006a	01		 DB	 1
  0006b	00		 DB	 0
?get_aircraft_side@@YG?AW4ENTITY_SIDES@@H@Z ENDP	; get_aircraft_side
_TEXT	ENDS
; Function compile flags: /Odtp /ZI
; File c:\users\nhv90\projects\eech\aphavoc\source\entity\system\en_debug\en_stats.c
;	COMDAT ?dump_aircraft_and_vehicle_count@@YGXXZ
_TEXT	SEGMENT
tv315 = -724						; size = 4
tv287 = -724						; size = 4
tv264 = -724						; size = 4
tv243 = -724						; size = 4
tv222 = -724						; size = 4
tv194 = -724						; size = 4
tv166 = -724						; size = 4
tv141 = -724						; size = 4
tv91 = -724						; size = 4
tv308 = -720						; size = 4
tv280 = -720						; size = 4
tv256 = -720						; size = 4
tv235 = -720						; size = 4
tv215 = -720						; size = 4
tv187 = -720						; size = 4
tv159 = -720						; size = 4
tv134 = -720						; size = 4
tv83 = -720						; size = 4
_red_vehicle_count$ = -588				; size = 152
_red_aircraft_count$ = -436				; size = 128
_blue_vehicle_count$ = -308				; size = 152
_blue_aircraft_count$ = -156				; size = 128
_total_red_vehicle_count$ = -28				; size = 4
_total_red_aircraft_count$ = -24			; size = 4
_total_blue_vehicle_count$ = -20			; size = 4
_total_blue_aircraft_count$ = -16			; size = 4
_total_count$ = -12					; size = 4
_sub_type$ = -8						; size = 4
_en$ = -4						; size = 4
?dump_aircraft_and_vehicle_count@@YGXXZ PROC		; dump_aircraft_and_vehicle_count, COMDAT

; 319  : {

  00000	55		 push	 ebp
  00001	8b ec		 mov	 ebp, esp
  00003	81 ec d4 02 00
	00		 sub	 esp, 724		; 000002d4H
  00009	53		 push	 ebx
  0000a	56		 push	 esi
  0000b	57		 push	 edi

; 320  : 	entity
; 321  : 		*en;
; 322  : 
; 323  : 	entity_sub_types
; 324  : 		sub_type;
; 325  : 
; 326  : 	int
; 327  : 		total_count,
; 328  : 		total_blue_aircraft_count,
; 329  : 		total_blue_vehicle_count,
; 330  : 		total_red_aircraft_count,
; 331  : 		total_red_vehicle_count,
; 332  : 		blue_aircraft_count[NUM_ENTITY_SUB_TYPE_AIRCRAFT],
; 333  : 		blue_vehicle_count[NUM_ENTITY_SUB_TYPE_VEHICLES],
; 334  : 		red_aircraft_count[NUM_ENTITY_SUB_TYPE_AIRCRAFT],
; 335  : 		red_vehicle_count[NUM_ENTITY_SUB_TYPE_VEHICLES];
; 336  : 
; 337  : 	total_count = 0;

  0000c	c7 45 f4 00 00
	00 00		 mov	 DWORD PTR _total_count$[ebp], 0

; 338  : 
; 339  : 	total_blue_aircraft_count = 0;

  00013	c7 45 f0 00 00
	00 00		 mov	 DWORD PTR _total_blue_aircraft_count$[ebp], 0

; 340  : 	total_blue_vehicle_count = 0;

  0001a	c7 45 ec 00 00
	00 00		 mov	 DWORD PTR _total_blue_vehicle_count$[ebp], 0

; 341  : 
; 342  : 	total_red_aircraft_count = 0;

  00021	c7 45 e8 00 00
	00 00		 mov	 DWORD PTR _total_red_aircraft_count$[ebp], 0

; 343  : 	total_red_vehicle_count = 0;

  00028	c7 45 e4 00 00
	00 00		 mov	 DWORD PTR _total_red_vehicle_count$[ebp], 0

; 344  : 
; 345  : 	memset (blue_aircraft_count, 0, sizeof (blue_aircraft_count));

  0002f	68 80 00 00 00	 push	 128			; 00000080H
  00034	6a 00		 push	 0
  00036	8d 85 64 ff ff
	ff		 lea	 eax, DWORD PTR _blue_aircraft_count$[ebp]
  0003c	50		 push	 eax
  0003d	e8 00 00 00 00	 call	 _memset
  00042	83 c4 0c	 add	 esp, 12			; 0000000cH

; 346  : 	memset (blue_vehicle_count, 0, sizeof (blue_vehicle_count));

  00045	68 98 00 00 00	 push	 152			; 00000098H
  0004a	6a 00		 push	 0
  0004c	8d 85 cc fe ff
	ff		 lea	 eax, DWORD PTR _blue_vehicle_count$[ebp]
  00052	50		 push	 eax
  00053	e8 00 00 00 00	 call	 _memset
  00058	83 c4 0c	 add	 esp, 12			; 0000000cH

; 347  : 
; 348  : 	memset (red_aircraft_count, 0, sizeof (red_aircraft_count));

  0005b	68 80 00 00 00	 push	 128			; 00000080H
  00060	6a 00		 push	 0
  00062	8d 85 4c fe ff
	ff		 lea	 eax, DWORD PTR _red_aircraft_count$[ebp]
  00068	50		 push	 eax
  00069	e8 00 00 00 00	 call	 _memset
  0006e	83 c4 0c	 add	 esp, 12			; 0000000cH

; 349  : 	memset (red_vehicle_count, 0, sizeof (red_vehicle_count));

  00071	68 98 00 00 00	 push	 152			; 00000098H
  00076	6a 00		 push	 0
  00078	8d 85 b4 fd ff
	ff		 lea	 eax, DWORD PTR _red_vehicle_count$[ebp]
  0007e	50		 push	 eax
  0007f	e8 00 00 00 00	 call	 _memset
  00084	83 c4 0c	 add	 esp, 12			; 0000000cH

; 350  : 
; 351  : 	en = first_used_entity;

  00087	a1 00 00 00 00	 mov	 eax, DWORD PTR ?first_used_entity@@3PAUENTITY@@A ; first_used_entity
  0008c	89 45 fc	 mov	 DWORD PTR _en$[ebp], eax
$LN2@dump_aircr:

; 352  : 
; 353  : 	while (en)

  0008f	83 7d fc 00	 cmp	 DWORD PTR _en$[ebp], 0
  00093	0f 84 14 06 00
	00		 je	 $LN3@dump_aircr

; 354  : 	{
; 355  : 		sub_type = get_local_entity_int_value (en, INT_TYPE_ENTITY_SUB_TYPE);

  00099	83 7d fc 00	 cmp	 DWORD PTR _en$[ebp], 0
  0009d	74 0d		 je	 SHORT $LN34@dump_aircr
  0009f	8b 45 fc	 mov	 eax, DWORD PTR _en$[ebp]
  000a2	8b 08		 mov	 ecx, DWORD PTR [eax]
  000a4	89 8d 30 fd ff
	ff		 mov	 DWORD PTR tv83[ebp], ecx
  000aa	eb 24		 jmp	 SHORT $LN35@dump_aircr
$LN34@dump_aircr:
  000ac	8b 15 00 00 00
	00		 mov	 edx, DWORD PTR ?__LINE__Var@?0??dump_aircraft_and_vehicle_count@@YGXXZ@4JA
  000b2	83 c2 24	 add	 edx, 36			; 00000024H
  000b5	52		 push	 edx
  000b6	68 00 00 00 00	 push	 OFFSET ??_C@_0EO@EAGEICGD@c?3?2users?2nhv90?2projects?2eech?2ap@
  000bb	a1 00 00 00 00	 mov	 eax, DWORD PTR ?null_entity_pointer_message@@3PBDB ; null_entity_pointer_message
  000c0	50		 push	 eax
  000c1	e8 00 00 00 00	 call	 ?process_assert@@YGXPBD0H@Z ; process_assert
  000c6	c7 85 30 fd ff
	ff 00 00 00 00	 mov	 DWORD PTR tv83[ebp], 0
$LN35@dump_aircr:
  000d0	b9 01 00 00 00	 mov	 ecx, 1
  000d5	85 c9		 test	 ecx, ecx
  000d7	74 0c		 je	 SHORT $LN36@dump_aircr
  000d9	c7 85 2c fd ff
	ff 34 00 00 00	 mov	 DWORD PTR tv91[ebp], 52	; 00000034H
  000e3	eb 24		 jmp	 SHORT $LN37@dump_aircr
$LN36@dump_aircr:
  000e5	8b 15 00 00 00
	00		 mov	 edx, DWORD PTR ?__LINE__Var@?0??dump_aircraft_and_vehicle_count@@YGXXZ@4JA
  000eb	83 c2 24	 add	 edx, 36			; 00000024H
  000ee	52		 push	 edx
  000ef	68 00 00 00 00	 push	 OFFSET ??_C@_0EO@EAGEICGD@c?3?2users?2nhv90?2projects?2eech?2ap@
  000f4	a1 00 00 00 00	 mov	 eax, DWORD PTR ?overload_invalid_int_type_message@@3PBDB ; overload_invalid_int_type_message
  000f9	50		 push	 eax
  000fa	e8 00 00 00 00	 call	 ?process_assert@@YGXPBD0H@Z ; process_assert
  000ff	c7 85 2c fd ff
	ff 00 00 00 00	 mov	 DWORD PTR tv91[ebp], 0
$LN37@dump_aircr:
  00109	6a 34		 push	 52			; 00000034H
  0010b	8b 4d fc	 mov	 ecx, DWORD PTR _en$[ebp]
  0010e	51		 push	 ecx
  0010f	69 95 30 fd ff
	ff 5c 04 00 00	 imul	 edx, DWORD PTR tv83[ebp], 1116
  00119	8b 85 2c fd ff
	ff		 mov	 eax, DWORD PTR tv91[ebp]
  0011f	8b 8c 82 00 00
	00 00		 mov	 ecx, DWORD PTR ?fn_get_local_entity_int_value@@3PAY0BBH@P6GHPAUENTITY@@W4INT_TYPES@@@ZA[edx+eax*4]
  00126	ff d1		 call	 ecx
  00128	89 45 f8	 mov	 DWORD PTR _sub_type$[ebp], eax

; 356  : 
; 357  : 		if (get_local_entity_int_value (en, INT_TYPE_IDENTIFY_AIRCRAFT))

  0012b	83 7d fc 00	 cmp	 DWORD PTR _en$[ebp], 0
  0012f	74 0d		 je	 SHORT $LN38@dump_aircr
  00131	8b 45 fc	 mov	 eax, DWORD PTR _en$[ebp]
  00134	8b 08		 mov	 ecx, DWORD PTR [eax]
  00136	89 8d 30 fd ff
	ff		 mov	 DWORD PTR tv134[ebp], ecx
  0013c	eb 20		 jmp	 SHORT $LN39@dump_aircr
$LN38@dump_aircr:
  0013e	68 65 01 00 00	 push	 357			; 00000165H
  00143	68 00 00 00 00	 push	 OFFSET ??_C@_0EO@EAGEICGD@c?3?2users?2nhv90?2projects?2eech?2ap@
  00148	8b 15 00 00 00
	00		 mov	 edx, DWORD PTR ?null_entity_pointer_message@@3PBDB ; null_entity_pointer_message
  0014e	52		 push	 edx
  0014f	e8 00 00 00 00	 call	 ?process_assert@@YGXPBD0H@Z ; process_assert
  00154	c7 85 30 fd ff
	ff 00 00 00 00	 mov	 DWORD PTR tv134[ebp], 0
$LN39@dump_aircr:
  0015e	b8 01 00 00 00	 mov	 eax, 1
  00163	85 c0		 test	 eax, eax
  00165	74 0c		 je	 SHORT $LN40@dump_aircr
  00167	c7 85 2c fd ff
	ff 57 00 00 00	 mov	 DWORD PTR tv141[ebp], 87 ; 00000057H
  00171	eb 20		 jmp	 SHORT $LN41@dump_aircr
$LN40@dump_aircr:
  00173	68 65 01 00 00	 push	 357			; 00000165H
  00178	68 00 00 00 00	 push	 OFFSET ??_C@_0EO@EAGEICGD@c?3?2users?2nhv90?2projects?2eech?2ap@
  0017d	8b 0d 00 00 00
	00		 mov	 ecx, DWORD PTR ?overload_invalid_int_type_message@@3PBDB ; overload_invalid_int_type_message
  00183	51		 push	 ecx
  00184	e8 00 00 00 00	 call	 ?process_assert@@YGXPBD0H@Z ; process_assert
  00189	c7 85 2c fd ff
	ff 00 00 00 00	 mov	 DWORD PTR tv141[ebp], 0
$LN41@dump_aircr:
  00193	6a 57		 push	 87			; 00000057H
  00195	8b 55 fc	 mov	 edx, DWORD PTR _en$[ebp]
  00198	52		 push	 edx
  00199	69 85 30 fd ff
	ff 5c 04 00 00	 imul	 eax, DWORD PTR tv134[ebp], 1116
  001a3	8b 8d 2c fd ff
	ff		 mov	 ecx, DWORD PTR tv141[ebp]
  001a9	8b 94 88 00 00
	00 00		 mov	 edx, DWORD PTR ?fn_get_local_entity_int_value@@3PAY0BBH@P6GHPAUENTITY@@W4INT_TYPES@@@ZA[eax+ecx*4]
  001b0	ff d2		 call	 edx
  001b2	85 c0		 test	 eax, eax
  001b4	0f 84 9e 01 00
	00		 je	 $LN16@dump_aircr

; 358  : 		{
; 359  : 			ASSERT (entity_sub_type_aircraft_valid (sub_type));

  001ba	83 7d f8 00	 cmp	 DWORD PTR _sub_type$[ebp], 0
  001be	7c 06		 jl	 SHORT $LN19@dump_aircr
  001c0	83 7d f8 20	 cmp	 DWORD PTR _sub_type$[ebp], 32 ; 00000020H
  001c4	7c 18		 jl	 SHORT $LN18@dump_aircr
$LN19@dump_aircr:
  001c6	a1 00 00 00 00	 mov	 eax, DWORD PTR ?__LINE__Var@?0??dump_aircraft_and_vehicle_count@@YGXXZ@4JA
  001cb	83 c0 28	 add	 eax, 40			; 00000028H
  001ce	50		 push	 eax
  001cf	68 00 00 00 00	 push	 OFFSET ??_C@_0EO@EAGEICGD@c?3?2users?2nhv90?2projects?2eech?2ap@
  001d4	68 00 00 00 00	 push	 OFFSET ??_C@_0CK@NNIIACMJ@entity_sub_type_aircraft_valid?5@
  001d9	e8 00 00 00 00	 call	 ?process_assert@@YGXPBD0H@Z ; process_assert
$LN18@dump_aircr:

; 360  : 
; 361  : 			if (get_local_entity_int_value (en, INT_TYPE_SIDE) == ENTITY_SIDE_BLUE_FORCE)

  001de	83 7d fc 00	 cmp	 DWORD PTR _en$[ebp], 0
  001e2	74 0d		 je	 SHORT $LN42@dump_aircr
  001e4	8b 45 fc	 mov	 eax, DWORD PTR _en$[ebp]
  001e7	8b 08		 mov	 ecx, DWORD PTR [eax]
  001e9	89 8d 30 fd ff
	ff		 mov	 DWORD PTR tv159[ebp], ecx
  001ef	eb 20		 jmp	 SHORT $LN43@dump_aircr
$LN42@dump_aircr:
  001f1	68 69 01 00 00	 push	 361			; 00000169H
  001f6	68 00 00 00 00	 push	 OFFSET ??_C@_0EO@EAGEICGD@c?3?2users?2nhv90?2projects?2eech?2ap@
  001fb	8b 15 00 00 00
	00		 mov	 edx, DWORD PTR ?null_entity_pointer_message@@3PBDB ; null_entity_pointer_message
  00201	52		 push	 edx
  00202	e8 00 00 00 00	 call	 ?process_assert@@YGXPBD0H@Z ; process_assert
  00207	c7 85 30 fd ff
	ff 00 00 00 00	 mov	 DWORD PTR tv159[ebp], 0
$LN43@dump_aircr:
  00211	b8 01 00 00 00	 mov	 eax, 1
  00216	85 c0		 test	 eax, eax
  00218	74 0c		 je	 SHORT $LN44@dump_aircr
  0021a	c7 85 2c fd ff
	ff bb 00 00 00	 mov	 DWORD PTR tv166[ebp], 187 ; 000000bbH
  00224	eb 20		 jmp	 SHORT $LN45@dump_aircr
$LN44@dump_aircr:
  00226	68 69 01 00 00	 push	 361			; 00000169H
  0022b	68 00 00 00 00	 push	 OFFSET ??_C@_0EO@EAGEICGD@c?3?2users?2nhv90?2projects?2eech?2ap@
  00230	8b 0d 00 00 00
	00		 mov	 ecx, DWORD PTR ?overload_invalid_int_type_message@@3PBDB ; overload_invalid_int_type_message
  00236	51		 push	 ecx
  00237	e8 00 00 00 00	 call	 ?process_assert@@YGXPBD0H@Z ; process_assert
  0023c	c7 85 2c fd ff
	ff 00 00 00 00	 mov	 DWORD PTR tv166[ebp], 0
$LN45@dump_aircr:
  00246	68 bb 00 00 00	 push	 187			; 000000bbH
  0024b	8b 55 fc	 mov	 edx, DWORD PTR _en$[ebp]
  0024e	52		 push	 edx
  0024f	69 85 30 fd ff
	ff 5c 04 00 00	 imul	 eax, DWORD PTR tv159[ebp], 1116
  00259	8b 8d 2c fd ff
	ff		 mov	 ecx, DWORD PTR tv166[ebp]
  0025f	8b 94 88 00 00
	00 00		 mov	 edx, DWORD PTR ?fn_get_local_entity_int_value@@3PAY0BBH@P6GHPAUENTITY@@W4INT_TYPES@@@ZA[eax+ecx*4]
  00266	ff d2		 call	 edx
  00268	83 f8 01	 cmp	 eax, 1
  0026b	75 2e		 jne	 SHORT $LN20@dump_aircr

; 362  : 			{
; 363  : 				total_count++;

  0026d	8b 45 f4	 mov	 eax, DWORD PTR _total_count$[ebp]
  00270	83 c0 01	 add	 eax, 1
  00273	89 45 f4	 mov	 DWORD PTR _total_count$[ebp], eax

; 364  : 
; 365  : 				blue_aircraft_count[sub_type]++;

  00276	8b 45 f8	 mov	 eax, DWORD PTR _sub_type$[ebp]
  00279	8b 8c 85 64 ff
	ff ff		 mov	 ecx, DWORD PTR _blue_aircraft_count$[ebp+eax*4]
  00280	83 c1 01	 add	 ecx, 1
  00283	8b 55 f8	 mov	 edx, DWORD PTR _sub_type$[ebp]
  00286	89 8c 95 64 ff
	ff ff		 mov	 DWORD PTR _blue_aircraft_count$[ebp+edx*4], ecx

; 366  : 
; 367  : 				total_blue_aircraft_count++;

  0028d	8b 45 f0	 mov	 eax, DWORD PTR _total_blue_aircraft_count$[ebp]
  00290	83 c0 01	 add	 eax, 1
  00293	89 45 f0	 mov	 DWORD PTR _total_blue_aircraft_count$[ebp], eax
  00296	e9 b8 00 00 00	 jmp	 $LN21@dump_aircr
$LN20@dump_aircr:

; 368  : 			}
; 369  : 			else if (get_local_entity_int_value (en, INT_TYPE_SIDE) == ENTITY_SIDE_RED_FORCE)

  0029b	83 7d fc 00	 cmp	 DWORD PTR _en$[ebp], 0
  0029f	74 0d		 je	 SHORT $LN46@dump_aircr
  002a1	8b 45 fc	 mov	 eax, DWORD PTR _en$[ebp]
  002a4	8b 08		 mov	 ecx, DWORD PTR [eax]
  002a6	89 8d 30 fd ff
	ff		 mov	 DWORD PTR tv187[ebp], ecx
  002ac	eb 20		 jmp	 SHORT $LN47@dump_aircr
$LN46@dump_aircr:
  002ae	68 71 01 00 00	 push	 369			; 00000171H
  002b3	68 00 00 00 00	 push	 OFFSET ??_C@_0EO@EAGEICGD@c?3?2users?2nhv90?2projects?2eech?2ap@
  002b8	8b 15 00 00 00
	00		 mov	 edx, DWORD PTR ?null_entity_pointer_message@@3PBDB ; null_entity_pointer_message
  002be	52		 push	 edx
  002bf	e8 00 00 00 00	 call	 ?process_assert@@YGXPBD0H@Z ; process_assert
  002c4	c7 85 30 fd ff
	ff 00 00 00 00	 mov	 DWORD PTR tv187[ebp], 0
$LN47@dump_aircr:
  002ce	b8 01 00 00 00	 mov	 eax, 1
  002d3	85 c0		 test	 eax, eax
  002d5	74 0c		 je	 SHORT $LN48@dump_aircr
  002d7	c7 85 2c fd ff
	ff bb 00 00 00	 mov	 DWORD PTR tv194[ebp], 187 ; 000000bbH
  002e1	eb 20		 jmp	 SHORT $LN49@dump_aircr
$LN48@dump_aircr:
  002e3	68 71 01 00 00	 push	 369			; 00000171H
  002e8	68 00 00 00 00	 push	 OFFSET ??_C@_0EO@EAGEICGD@c?3?2users?2nhv90?2projects?2eech?2ap@
  002ed	8b 0d 00 00 00
	00		 mov	 ecx, DWORD PTR ?overload_invalid_int_type_message@@3PBDB ; overload_invalid_int_type_message
  002f3	51		 push	 ecx
  002f4	e8 00 00 00 00	 call	 ?process_assert@@YGXPBD0H@Z ; process_assert
  002f9	c7 85 2c fd ff
	ff 00 00 00 00	 mov	 DWORD PTR tv194[ebp], 0
$LN49@dump_aircr:
  00303	68 bb 00 00 00	 push	 187			; 000000bbH
  00308	8b 55 fc	 mov	 edx, DWORD PTR _en$[ebp]
  0030b	52		 push	 edx
  0030c	69 85 30 fd ff
	ff 5c 04 00 00	 imul	 eax, DWORD PTR tv187[ebp], 1116
  00316	8b 8d 2c fd ff
	ff		 mov	 ecx, DWORD PTR tv194[ebp]
  0031c	8b 94 88 00 00
	00 00		 mov	 edx, DWORD PTR ?fn_get_local_entity_int_value@@3PAY0BBH@P6GHPAUENTITY@@W4INT_TYPES@@@ZA[eax+ecx*4]
  00323	ff d2		 call	 edx
  00325	83 f8 02	 cmp	 eax, 2
  00328	75 29		 jne	 SHORT $LN21@dump_aircr

; 370  : 			{
; 371  : 				total_count++;

  0032a	8b 45 f4	 mov	 eax, DWORD PTR _total_count$[ebp]
  0032d	83 c0 01	 add	 eax, 1
  00330	89 45 f4	 mov	 DWORD PTR _total_count$[ebp], eax

; 372  : 
; 373  : 				red_aircraft_count[sub_type]++;

  00333	8b 45 f8	 mov	 eax, DWORD PTR _sub_type$[ebp]
  00336	8b 8c 85 4c fe
	ff ff		 mov	 ecx, DWORD PTR _red_aircraft_count$[ebp+eax*4]
  0033d	83 c1 01	 add	 ecx, 1
  00340	8b 55 f8	 mov	 edx, DWORD PTR _sub_type$[ebp]
  00343	89 8c 95 4c fe
	ff ff		 mov	 DWORD PTR _red_aircraft_count$[ebp+edx*4], ecx

; 374  : 
; 375  : 				total_red_aircraft_count++;

  0034a	8b 45 e8	 mov	 eax, DWORD PTR _total_red_aircraft_count$[ebp]
  0034d	83 c0 01	 add	 eax, 1
  00350	89 45 e8	 mov	 DWORD PTR _total_red_aircraft_count$[ebp], eax
$LN21@dump_aircr:

; 376  : 			}
; 377  : 		}

  00353	e9 47 03 00 00	 jmp	 $LN17@dump_aircr
$LN16@dump_aircr:

; 378  : 		else if (get_local_entity_int_value (en, INT_TYPE_IDENTIFY_VEHICLE))

  00358	83 7d fc 00	 cmp	 DWORD PTR _en$[ebp], 0
  0035c	74 0d		 je	 SHORT $LN50@dump_aircr
  0035e	8b 45 fc	 mov	 eax, DWORD PTR _en$[ebp]
  00361	8b 08		 mov	 ecx, DWORD PTR [eax]
  00363	89 8d 30 fd ff
	ff		 mov	 DWORD PTR tv215[ebp], ecx
  00369	eb 20		 jmp	 SHORT $LN51@dump_aircr
$LN50@dump_aircr:
  0036b	68 7a 01 00 00	 push	 378			; 0000017aH
  00370	68 00 00 00 00	 push	 OFFSET ??_C@_0EO@EAGEICGD@c?3?2users?2nhv90?2projects?2eech?2ap@
  00375	8b 15 00 00 00
	00		 mov	 edx, DWORD PTR ?null_entity_pointer_message@@3PBDB ; null_entity_pointer_message
  0037b	52		 push	 edx
  0037c	e8 00 00 00 00	 call	 ?process_assert@@YGXPBD0H@Z ; process_assert
  00381	c7 85 30 fd ff
	ff 00 00 00 00	 mov	 DWORD PTR tv215[ebp], 0
$LN51@dump_aircr:
  0038b	b8 01 00 00 00	 mov	 eax, 1
  00390	85 c0		 test	 eax, eax
  00392	74 0c		 je	 SHORT $LN52@dump_aircr
  00394	c7 85 2c fd ff
	ff 60 00 00 00	 mov	 DWORD PTR tv222[ebp], 96 ; 00000060H
  0039e	eb 20		 jmp	 SHORT $LN53@dump_aircr
$LN52@dump_aircr:
  003a0	68 7a 01 00 00	 push	 378			; 0000017aH
  003a5	68 00 00 00 00	 push	 OFFSET ??_C@_0EO@EAGEICGD@c?3?2users?2nhv90?2projects?2eech?2ap@
  003aa	8b 0d 00 00 00
	00		 mov	 ecx, DWORD PTR ?overload_invalid_int_type_message@@3PBDB ; overload_invalid_int_type_message
  003b0	51		 push	 ecx
  003b1	e8 00 00 00 00	 call	 ?process_assert@@YGXPBD0H@Z ; process_assert
  003b6	c7 85 2c fd ff
	ff 00 00 00 00	 mov	 DWORD PTR tv222[ebp], 0
$LN53@dump_aircr:
  003c0	6a 60		 push	 96			; 00000060H
  003c2	8b 55 fc	 mov	 edx, DWORD PTR _en$[ebp]
  003c5	52		 push	 edx
  003c6	69 85 30 fd ff
	ff 5c 04 00 00	 imul	 eax, DWORD PTR tv215[ebp], 1116
  003d0	8b 8d 2c fd ff
	ff		 mov	 ecx, DWORD PTR tv222[ebp]
  003d6	8b 94 88 00 00
	00 00		 mov	 edx, DWORD PTR ?fn_get_local_entity_int_value@@3PAY0BBH@P6GHPAUENTITY@@W4INT_TYPES@@@ZA[eax+ecx*4]
  003dd	ff d2		 call	 edx
  003df	85 c0		 test	 eax, eax
  003e1	0f 84 b8 02 00
	00		 je	 $LN17@dump_aircr

; 379  : 		{
; 380  : 			ASSERT (entity_sub_type_vehicle_valid (get_local_entity_int_value (en, INT_TYPE_ENTITY_SUB_TYPE)));

  003e7	83 7d fc 00	 cmp	 DWORD PTR _en$[ebp], 0
  003eb	74 0d		 je	 SHORT $LN54@dump_aircr
  003ed	8b 45 fc	 mov	 eax, DWORD PTR _en$[ebp]
  003f0	8b 08		 mov	 ecx, DWORD PTR [eax]
  003f2	89 8d 30 fd ff
	ff		 mov	 DWORD PTR tv235[ebp], ecx
  003f8	eb 24		 jmp	 SHORT $LN55@dump_aircr
$LN54@dump_aircr:
  003fa	8b 15 00 00 00
	00		 mov	 edx, DWORD PTR ?__LINE__Var@?0??dump_aircraft_and_vehicle_count@@YGXXZ@4JA
  00400	83 c2 3d	 add	 edx, 61			; 0000003dH
  00403	52		 push	 edx
  00404	68 00 00 00 00	 push	 OFFSET ??_C@_0EO@EAGEICGD@c?3?2users?2nhv90?2projects?2eech?2ap@
  00409	a1 00 00 00 00	 mov	 eax, DWORD PTR ?null_entity_pointer_message@@3PBDB ; null_entity_pointer_message
  0040e	50		 push	 eax
  0040f	e8 00 00 00 00	 call	 ?process_assert@@YGXPBD0H@Z ; process_assert
  00414	c7 85 30 fd ff
	ff 00 00 00 00	 mov	 DWORD PTR tv235[ebp], 0
$LN55@dump_aircr:
  0041e	b9 01 00 00 00	 mov	 ecx, 1
  00423	85 c9		 test	 ecx, ecx
  00425	74 0c		 je	 SHORT $LN56@dump_aircr
  00427	c7 85 2c fd ff
	ff 34 00 00 00	 mov	 DWORD PTR tv243[ebp], 52 ; 00000034H
  00431	eb 24		 jmp	 SHORT $LN57@dump_aircr
$LN56@dump_aircr:
  00433	8b 15 00 00 00
	00		 mov	 edx, DWORD PTR ?__LINE__Var@?0??dump_aircraft_and_vehicle_count@@YGXXZ@4JA
  00439	83 c2 3d	 add	 edx, 61			; 0000003dH
  0043c	52		 push	 edx
  0043d	68 00 00 00 00	 push	 OFFSET ??_C@_0EO@EAGEICGD@c?3?2users?2nhv90?2projects?2eech?2ap@
  00442	a1 00 00 00 00	 mov	 eax, DWORD PTR ?overload_invalid_int_type_message@@3PBDB ; overload_invalid_int_type_message
  00447	50		 push	 eax
  00448	e8 00 00 00 00	 call	 ?process_assert@@YGXPBD0H@Z ; process_assert
  0044d	c7 85 2c fd ff
	ff 00 00 00 00	 mov	 DWORD PTR tv243[ebp], 0
$LN57@dump_aircr:
  00457	6a 34		 push	 52			; 00000034H
  00459	8b 4d fc	 mov	 ecx, DWORD PTR _en$[ebp]
  0045c	51		 push	 ecx
  0045d	69 95 30 fd ff
	ff 5c 04 00 00	 imul	 edx, DWORD PTR tv235[ebp], 1116
  00467	8b 85 2c fd ff
	ff		 mov	 eax, DWORD PTR tv243[ebp]
  0046d	8b 8c 82 00 00
	00 00		 mov	 ecx, DWORD PTR ?fn_get_local_entity_int_value@@3PAY0BBH@P6GHPAUENTITY@@W4INT_TYPES@@@ZA[edx+eax*4]
  00474	ff d1		 call	 ecx
  00476	85 c0		 test	 eax, eax
  00478	0f 8c 94 00 00
	00		 jl	 $LN25@dump_aircr
  0047e	83 7d fc 00	 cmp	 DWORD PTR _en$[ebp], 0
  00482	74 0d		 je	 SHORT $LN58@dump_aircr
  00484	8b 45 fc	 mov	 eax, DWORD PTR _en$[ebp]
  00487	8b 08		 mov	 ecx, DWORD PTR [eax]
  00489	89 8d 30 fd ff
	ff		 mov	 DWORD PTR tv256[ebp], ecx
  0048f	eb 24		 jmp	 SHORT $LN59@dump_aircr
$LN58@dump_aircr:
  00491	8b 15 00 00 00
	00		 mov	 edx, DWORD PTR ?__LINE__Var@?0??dump_aircraft_and_vehicle_count@@YGXXZ@4JA
  00497	83 c2 3d	 add	 edx, 61			; 0000003dH
  0049a	52		 push	 edx
  0049b	68 00 00 00 00	 push	 OFFSET ??_C@_0EO@EAGEICGD@c?3?2users?2nhv90?2projects?2eech?2ap@
  004a0	a1 00 00 00 00	 mov	 eax, DWORD PTR ?null_entity_pointer_message@@3PBDB ; null_entity_pointer_message
  004a5	50		 push	 eax
  004a6	e8 00 00 00 00	 call	 ?process_assert@@YGXPBD0H@Z ; process_assert
  004ab	c7 85 30 fd ff
	ff 00 00 00 00	 mov	 DWORD PTR tv256[ebp], 0
$LN59@dump_aircr:
  004b5	b9 01 00 00 00	 mov	 ecx, 1
  004ba	85 c9		 test	 ecx, ecx
  004bc	74 0c		 je	 SHORT $LN60@dump_aircr
  004be	c7 85 2c fd ff
	ff 34 00 00 00	 mov	 DWORD PTR tv264[ebp], 52 ; 00000034H
  004c8	eb 24		 jmp	 SHORT $LN61@dump_aircr
$LN60@dump_aircr:
  004ca	8b 15 00 00 00
	00		 mov	 edx, DWORD PTR ?__LINE__Var@?0??dump_aircraft_and_vehicle_count@@YGXXZ@4JA
  004d0	83 c2 3d	 add	 edx, 61			; 0000003dH
  004d3	52		 push	 edx
  004d4	68 00 00 00 00	 push	 OFFSET ??_C@_0EO@EAGEICGD@c?3?2users?2nhv90?2projects?2eech?2ap@
  004d9	a1 00 00 00 00	 mov	 eax, DWORD PTR ?overload_invalid_int_type_message@@3PBDB ; overload_invalid_int_type_message
  004de	50		 push	 eax
  004df	e8 00 00 00 00	 call	 ?process_assert@@YGXPBD0H@Z ; process_assert
  004e4	c7 85 2c fd ff
	ff 00 00 00 00	 mov	 DWORD PTR tv264[ebp], 0
$LN61@dump_aircr:
  004ee	6a 34		 push	 52			; 00000034H
  004f0	8b 4d fc	 mov	 ecx, DWORD PTR _en$[ebp]
  004f3	51		 push	 ecx
  004f4	69 95 30 fd ff
	ff 5c 04 00 00	 imul	 edx, DWORD PTR tv256[ebp], 1116
  004fe	8b 85 2c fd ff
	ff		 mov	 eax, DWORD PTR tv264[ebp]
  00504	8b 8c 82 00 00
	00 00		 mov	 ecx, DWORD PTR ?fn_get_local_entity_int_value@@3PAY0BBH@P6GHPAUENTITY@@W4INT_TYPES@@@ZA[edx+eax*4]
  0050b	ff d1		 call	 ecx
  0050d	83 f8 26	 cmp	 eax, 38			; 00000026H
  00510	7c 18		 jl	 SHORT $LN24@dump_aircr
$LN25@dump_aircr:
  00512	a1 00 00 00 00	 mov	 eax, DWORD PTR ?__LINE__Var@?0??dump_aircraft_and_vehicle_count@@YGXXZ@4JA
  00517	83 c0 3d	 add	 eax, 61			; 0000003dH
  0051a	50		 push	 eax
  0051b	68 00 00 00 00	 push	 OFFSET ??_C@_0EO@EAGEICGD@c?3?2users?2nhv90?2projects?2eech?2ap@
  00520	68 00 00 00 00	 push	 OFFSET ??_C@_0FK@LHPALLNM@entity_sub_type_vehicle_valid?5?$CI@
  00525	e8 00 00 00 00	 call	 ?process_assert@@YGXPBD0H@Z ; process_assert
$LN24@dump_aircr:

; 381  : 
; 382  : 			if (get_local_entity_int_value (en, INT_TYPE_SIDE) == ENTITY_SIDE_BLUE_FORCE)

  0052a	83 7d fc 00	 cmp	 DWORD PTR _en$[ebp], 0
  0052e	74 0d		 je	 SHORT $LN62@dump_aircr
  00530	8b 45 fc	 mov	 eax, DWORD PTR _en$[ebp]
  00533	8b 08		 mov	 ecx, DWORD PTR [eax]
  00535	89 8d 30 fd ff
	ff		 mov	 DWORD PTR tv280[ebp], ecx
  0053b	eb 20		 jmp	 SHORT $LN63@dump_aircr
$LN62@dump_aircr:
  0053d	68 7e 01 00 00	 push	 382			; 0000017eH
  00542	68 00 00 00 00	 push	 OFFSET ??_C@_0EO@EAGEICGD@c?3?2users?2nhv90?2projects?2eech?2ap@
  00547	8b 15 00 00 00
	00		 mov	 edx, DWORD PTR ?null_entity_pointer_message@@3PBDB ; null_entity_pointer_message
  0054d	52		 push	 edx
  0054e	e8 00 00 00 00	 call	 ?process_assert@@YGXPBD0H@Z ; process_assert
  00553	c7 85 30 fd ff
	ff 00 00 00 00	 mov	 DWORD PTR tv280[ebp], 0
$LN63@dump_aircr:
  0055d	b8 01 00 00 00	 mov	 eax, 1
  00562	85 c0		 test	 eax, eax
  00564	74 0c		 je	 SHORT $LN64@dump_aircr
  00566	c7 85 2c fd ff
	ff bb 00 00 00	 mov	 DWORD PTR tv287[ebp], 187 ; 000000bbH
  00570	eb 20		 jmp	 SHORT $LN65@dump_aircr
$LN64@dump_aircr:
  00572	68 7e 01 00 00	 push	 382			; 0000017eH
  00577	68 00 00 00 00	 push	 OFFSET ??_C@_0EO@EAGEICGD@c?3?2users?2nhv90?2projects?2eech?2ap@
  0057c	8b 0d 00 00 00
	00		 mov	 ecx, DWORD PTR ?overload_invalid_int_type_message@@3PBDB ; overload_invalid_int_type_message
  00582	51		 push	 ecx
  00583	e8 00 00 00 00	 call	 ?process_assert@@YGXPBD0H@Z ; process_assert
  00588	c7 85 2c fd ff
	ff 00 00 00 00	 mov	 DWORD PTR tv287[ebp], 0
$LN65@dump_aircr:
  00592	68 bb 00 00 00	 push	 187			; 000000bbH
  00597	8b 55 fc	 mov	 edx, DWORD PTR _en$[ebp]
  0059a	52		 push	 edx
  0059b	69 85 30 fd ff
	ff 5c 04 00 00	 imul	 eax, DWORD PTR tv280[ebp], 1116
  005a5	8b 8d 2c fd ff
	ff		 mov	 ecx, DWORD PTR tv287[ebp]
  005ab	8b 94 88 00 00
	00 00		 mov	 edx, DWORD PTR ?fn_get_local_entity_int_value@@3PAY0BBH@P6GHPAUENTITY@@W4INT_TYPES@@@ZA[eax+ecx*4]
  005b2	ff d2		 call	 edx
  005b4	83 f8 01	 cmp	 eax, 1
  005b7	75 2e		 jne	 SHORT $LN26@dump_aircr

; 383  : 			{
; 384  : 				total_count++;

  005b9	8b 45 f4	 mov	 eax, DWORD PTR _total_count$[ebp]
  005bc	83 c0 01	 add	 eax, 1
  005bf	89 45 f4	 mov	 DWORD PTR _total_count$[ebp], eax

; 385  : 
; 386  : 				blue_vehicle_count[sub_type]++;

  005c2	8b 45 f8	 mov	 eax, DWORD PTR _sub_type$[ebp]
  005c5	8b 8c 85 cc fe
	ff ff		 mov	 ecx, DWORD PTR _blue_vehicle_count$[ebp+eax*4]
  005cc	83 c1 01	 add	 ecx, 1
  005cf	8b 55 f8	 mov	 edx, DWORD PTR _sub_type$[ebp]
  005d2	89 8c 95 cc fe
	ff ff		 mov	 DWORD PTR _blue_vehicle_count$[ebp+edx*4], ecx

; 387  : 
; 388  : 				total_blue_vehicle_count++;

  005d9	8b 45 ec	 mov	 eax, DWORD PTR _total_blue_vehicle_count$[ebp]
  005dc	83 c0 01	 add	 eax, 1
  005df	89 45 ec	 mov	 DWORD PTR _total_blue_vehicle_count$[ebp], eax
  005e2	e9 b8 00 00 00	 jmp	 $LN17@dump_aircr
$LN26@dump_aircr:

; 389  : 			}
; 390  : 			else if (get_local_entity_int_value (en, INT_TYPE_SIDE) == ENTITY_SIDE_RED_FORCE)

  005e7	83 7d fc 00	 cmp	 DWORD PTR _en$[ebp], 0
  005eb	74 0d		 je	 SHORT $LN66@dump_aircr
  005ed	8b 45 fc	 mov	 eax, DWORD PTR _en$[ebp]
  005f0	8b 08		 mov	 ecx, DWORD PTR [eax]
  005f2	89 8d 30 fd ff
	ff		 mov	 DWORD PTR tv308[ebp], ecx
  005f8	eb 20		 jmp	 SHORT $LN67@dump_aircr
$LN66@dump_aircr:
  005fa	68 86 01 00 00	 push	 390			; 00000186H
  005ff	68 00 00 00 00	 push	 OFFSET ??_C@_0EO@EAGEICGD@c?3?2users?2nhv90?2projects?2eech?2ap@
  00604	8b 15 00 00 00
	00		 mov	 edx, DWORD PTR ?null_entity_pointer_message@@3PBDB ; null_entity_pointer_message
  0060a	52		 push	 edx
  0060b	e8 00 00 00 00	 call	 ?process_assert@@YGXPBD0H@Z ; process_assert
  00610	c7 85 30 fd ff
	ff 00 00 00 00	 mov	 DWORD PTR tv308[ebp], 0
$LN67@dump_aircr:
  0061a	b8 01 00 00 00	 mov	 eax, 1
  0061f	85 c0		 test	 eax, eax
  00621	74 0c		 je	 SHORT $LN68@dump_aircr
  00623	c7 85 2c fd ff
	ff bb 00 00 00	 mov	 DWORD PTR tv315[ebp], 187 ; 000000bbH
  0062d	eb 20		 jmp	 SHORT $LN69@dump_aircr
$LN68@dump_aircr:
  0062f	68 86 01 00 00	 push	 390			; 00000186H
  00634	68 00 00 00 00	 push	 OFFSET ??_C@_0EO@EAGEICGD@c?3?2users?2nhv90?2projects?2eech?2ap@
  00639	8b 0d 00 00 00
	00		 mov	 ecx, DWORD PTR ?overload_invalid_int_type_message@@3PBDB ; overload_invalid_int_type_message
  0063f	51		 push	 ecx
  00640	e8 00 00 00 00	 call	 ?process_assert@@YGXPBD0H@Z ; process_assert
  00645	c7 85 2c fd ff
	ff 00 00 00 00	 mov	 DWORD PTR tv315[ebp], 0
$LN69@dump_aircr:
  0064f	68 bb 00 00 00	 push	 187			; 000000bbH
  00654	8b 55 fc	 mov	 edx, DWORD PTR _en$[ebp]
  00657	52		 push	 edx
  00658	69 85 30 fd ff
	ff 5c 04 00 00	 imul	 eax, DWORD PTR tv308[ebp], 1116
  00662	8b 8d 2c fd ff
	ff		 mov	 ecx, DWORD PTR tv315[ebp]
  00668	8b 94 88 00 00
	00 00		 mov	 edx, DWORD PTR ?fn_get_local_entity_int_value@@3PAY0BBH@P6GHPAUENTITY@@W4INT_TYPES@@@ZA[eax+ecx*4]
  0066f	ff d2		 call	 edx
  00671	83 f8 02	 cmp	 eax, 2
  00674	75 29		 jne	 SHORT $LN17@dump_aircr

; 391  : 			{
; 392  : 				total_count++;

  00676	8b 45 f4	 mov	 eax, DWORD PTR _total_count$[ebp]
  00679	83 c0 01	 add	 eax, 1
  0067c	89 45 f4	 mov	 DWORD PTR _total_count$[ebp], eax

; 393  : 
; 394  : 				red_vehicle_count[sub_type]++;

  0067f	8b 45 f8	 mov	 eax, DWORD PTR _sub_type$[ebp]
  00682	8b 8c 85 b4 fd
	ff ff		 mov	 ecx, DWORD PTR _red_vehicle_count$[ebp+eax*4]
  00689	83 c1 01	 add	 ecx, 1
  0068c	8b 55 f8	 mov	 edx, DWORD PTR _sub_type$[ebp]
  0068f	89 8c 95 b4 fd
	ff ff		 mov	 DWORD PTR _red_vehicle_count$[ebp+edx*4], ecx

; 395  : 
; 396  : 				total_red_vehicle_count++;

  00696	8b 45 e4	 mov	 eax, DWORD PTR _total_red_vehicle_count$[ebp]
  00699	83 c0 01	 add	 eax, 1
  0069c	89 45 e4	 mov	 DWORD PTR _total_red_vehicle_count$[ebp], eax
$LN17@dump_aircr:

; 397  : 			}
; 398  : 		}
; 399  : 
; 400  : 		en = get_local_entity_succ (en);

  0069f	8b 45 fc	 mov	 eax, DWORD PTR _en$[ebp]
  006a2	8b 48 08	 mov	 ecx, DWORD PTR [eax+8]
  006a5	89 4d fc	 mov	 DWORD PTR _en$[ebp], ecx

; 401  : 	}

  006a8	e9 e2 f9 ff ff	 jmp	 $LN2@dump_aircr
$LN3@dump_aircr:

; 402  : 
; 403  : 	debug_colour_log (DEBUG_COLOUR_AMBER, "=====================================");

  006ad	68 00 00 00 00	 push	 OFFSET ??_C@_0CG@DKAPOBGO@?$DN?$DN?$DN?$DN?$DN?$DN?$DN?$DN?$DN?$DN?$DN?$DN?$DN?$DN?$DN?$DN?$DN?$DN?$DN?$DN?$DN?$DN?$DN?$DN?$DN?$DN?$DN?$DN?$DN?$DN?$DN@
  006b2	6a 17		 push	 23			; 00000017H
  006b4	e8 00 00 00 00	 call	 ?debug_colour_log@@YAXW4DEBUG_COLOURS@@PBDZZ ; debug_colour_log
  006b9	83 c4 08	 add	 esp, 8

; 404  : 	debug_colour_log (DEBUG_COLOUR_AMBER, "START FORCE COUNT (total = %d)", total_count);

  006bc	8b 45 f4	 mov	 eax, DWORD PTR _total_count$[ebp]
  006bf	50		 push	 eax
  006c0	68 00 00 00 00	 push	 OFFSET ??_C@_0BP@CMNGCEDO@START?5FORCE?5COUNT?5?$CItotal?5?$DN?5?$CFd?$CJ@
  006c5	6a 17		 push	 23			; 00000017H
  006c7	e8 00 00 00 00	 call	 ?debug_colour_log@@YAXW4DEBUG_COLOURS@@PBDZZ ; debug_colour_log
  006cc	83 c4 0c	 add	 esp, 12			; 0000000cH

; 405  : 	debug_colour_log (DEBUG_COLOUR_AMBER, "=====================================");

  006cf	68 00 00 00 00	 push	 OFFSET ??_C@_0CG@DKAPOBGO@?$DN?$DN?$DN?$DN?$DN?$DN?$DN?$DN?$DN?$DN?$DN?$DN?$DN?$DN?$DN?$DN?$DN?$DN?$DN?$DN?$DN?$DN?$DN?$DN?$DN?$DN?$DN?$DN?$DN?$DN?$DN@
  006d4	6a 17		 push	 23			; 00000017H
  006d6	e8 00 00 00 00	 call	 ?debug_colour_log@@YAXW4DEBUG_COLOURS@@PBDZZ ; debug_colour_log
  006db	83 c4 08	 add	 esp, 8

; 406  : 
; 407  : 	////////////////////////////////////////
; 408  : 
; 409  : 	debug_colour_log (DEBUG_COLOUR_AMBER, "-------------------------------------");

  006de	68 00 00 00 00	 push	 OFFSET ??_C@_0CG@HMIINNMI@?9?9?9?9?9?9?9?9?9?9?9?9?9?9?9?9?9?9?9?9?9?9?9?9?9?9?9?9?9?9?9@
  006e3	6a 17		 push	 23			; 00000017H
  006e5	e8 00 00 00 00	 call	 ?debug_colour_log@@YAXW4DEBUG_COLOURS@@PBDZZ ; debug_colour_log
  006ea	83 c4 08	 add	 esp, 8

; 410  : 	debug_colour_log (DEBUG_COLOUR_AMBER, "BLUE AIRCRAFT (total = %d)", total_blue_aircraft_count);

  006ed	8b 45 f0	 mov	 eax, DWORD PTR _total_blue_aircraft_count$[ebp]
  006f0	50		 push	 eax
  006f1	68 00 00 00 00	 push	 OFFSET ??_C@_0BL@NJDFHLLK@BLUE?5AIRCRAFT?5?$CItotal?5?$DN?5?$CFd?$CJ@
  006f6	6a 17		 push	 23			; 00000017H
  006f8	e8 00 00 00 00	 call	 ?debug_colour_log@@YAXW4DEBUG_COLOURS@@PBDZZ ; debug_colour_log
  006fd	83 c4 0c	 add	 esp, 12			; 0000000cH

; 411  : 	debug_colour_log (DEBUG_COLOUR_AMBER, "-------------------------------------");

  00700	68 00 00 00 00	 push	 OFFSET ??_C@_0CG@HMIINNMI@?9?9?9?9?9?9?9?9?9?9?9?9?9?9?9?9?9?9?9?9?9?9?9?9?9?9?9?9?9?9?9@
  00705	6a 17		 push	 23			; 00000017H
  00707	e8 00 00 00 00	 call	 ?debug_colour_log@@YAXW4DEBUG_COLOURS@@PBDZZ ; debug_colour_log
  0070c	83 c4 08	 add	 esp, 8

; 412  : 
; 413  : 	for (sub_type = 0; sub_type < NUM_ENTITY_SUB_TYPE_AIRCRAFT; sub_type++)

  0070f	c7 45 f8 00 00
	00 00		 mov	 DWORD PTR _sub_type$[ebp], 0
  00716	eb 09		 jmp	 SHORT $LN6@dump_aircr
$LN4@dump_aircr:
  00718	8b 45 f8	 mov	 eax, DWORD PTR _sub_type$[ebp]
  0071b	83 c0 01	 add	 eax, 1
  0071e	89 45 f8	 mov	 DWORD PTR _sub_type$[ebp], eax
$LN6@dump_aircr:
  00721	83 7d f8 20	 cmp	 DWORD PTR _sub_type$[ebp], 32 ; 00000020H
  00725	7d 35		 jge	 SHORT $LN5@dump_aircr

; 414  : 	{
; 415  : 		if (get_aircraft_side (sub_type) == ENTITY_SIDE_BLUE_FORCE)

  00727	8b 45 f8	 mov	 eax, DWORD PTR _sub_type$[ebp]
  0072a	50		 push	 eax
  0072b	e8 00 00 00 00	 call	 ?get_aircraft_side@@YG?AW4ENTITY_SIDES@@H@Z ; get_aircraft_side
  00730	83 f8 01	 cmp	 eax, 1
  00733	75 25		 jne	 SHORT $LN29@dump_aircr

; 416  : 		{
; 417  : 			debug_colour_log (DEBUG_COLOUR_AMBER, "%4dx %s", blue_aircraft_count[sub_type], entity_sub_type_aircraft_names[sub_type]);

  00735	8b 45 f8	 mov	 eax, DWORD PTR _sub_type$[ebp]
  00738	8b 0c 85 00 00
	00 00		 mov	 ecx, DWORD PTR ?entity_sub_type_aircraft_names@@3PAPBDA[eax*4]
  0073f	51		 push	 ecx
  00740	8b 55 f8	 mov	 edx, DWORD PTR _sub_type$[ebp]
  00743	8b 84 95 64 ff
	ff ff		 mov	 eax, DWORD PTR _blue_aircraft_count$[ebp+edx*4]
  0074a	50		 push	 eax
  0074b	68 00 00 00 00	 push	 OFFSET ??_C@_07LHAGCKKH@?$CF4dx?5?$CFs@
  00750	6a 17		 push	 23			; 00000017H
  00752	e8 00 00 00 00	 call	 ?debug_colour_log@@YAXW4DEBUG_COLOURS@@PBDZZ ; debug_colour_log
  00757	83 c4 10	 add	 esp, 16			; 00000010H
$LN29@dump_aircr:

; 418  : 		}
; 419  : 	}

  0075a	eb bc		 jmp	 SHORT $LN4@dump_aircr
$LN5@dump_aircr:

; 420  : 
; 421  : 	////////////////////////////////////////
; 422  : 
; 423  : 	debug_colour_log (DEBUG_COLOUR_AMBER, "-------------------------------------");

  0075c	68 00 00 00 00	 push	 OFFSET ??_C@_0CG@HMIINNMI@?9?9?9?9?9?9?9?9?9?9?9?9?9?9?9?9?9?9?9?9?9?9?9?9?9?9?9?9?9?9?9@
  00761	6a 17		 push	 23			; 00000017H
  00763	e8 00 00 00 00	 call	 ?debug_colour_log@@YAXW4DEBUG_COLOURS@@PBDZZ ; debug_colour_log
  00768	83 c4 08	 add	 esp, 8

; 424  : 	debug_colour_log (DEBUG_COLOUR_AMBER, "BLUE VEHICLES (total = %d)", total_blue_vehicle_count);

  0076b	8b 45 ec	 mov	 eax, DWORD PTR _total_blue_vehicle_count$[ebp]
  0076e	50		 push	 eax
  0076f	68 00 00 00 00	 push	 OFFSET ??_C@_0BL@IJFAOABK@BLUE?5VEHICLES?5?$CItotal?5?$DN?5?$CFd?$CJ@
  00774	6a 17		 push	 23			; 00000017H
  00776	e8 00 00 00 00	 call	 ?debug_colour_log@@YAXW4DEBUG_COLOURS@@PBDZZ ; debug_colour_log
  0077b	83 c4 0c	 add	 esp, 12			; 0000000cH

; 425  : 	debug_colour_log (DEBUG_COLOUR_AMBER, "-------------------------------------");

  0077e	68 00 00 00 00	 push	 OFFSET ??_C@_0CG@HMIINNMI@?9?9?9?9?9?9?9?9?9?9?9?9?9?9?9?9?9?9?9?9?9?9?9?9?9?9?9?9?9?9?9@
  00783	6a 17		 push	 23			; 00000017H
  00785	e8 00 00 00 00	 call	 ?debug_colour_log@@YAXW4DEBUG_COLOURS@@PBDZZ ; debug_colour_log
  0078a	83 c4 08	 add	 esp, 8

; 426  : 
; 427  : 	for (sub_type = 0; sub_type < NUM_ENTITY_SUB_TYPE_VEHICLES; sub_type++)

  0078d	c7 45 f8 00 00
	00 00		 mov	 DWORD PTR _sub_type$[ebp], 0
  00794	eb 09		 jmp	 SHORT $LN9@dump_aircr
$LN7@dump_aircr:
  00796	8b 45 f8	 mov	 eax, DWORD PTR _sub_type$[ebp]
  00799	83 c0 01	 add	 eax, 1
  0079c	89 45 f8	 mov	 DWORD PTR _sub_type$[ebp], eax
$LN9@dump_aircr:
  0079f	83 7d f8 26	 cmp	 DWORD PTR _sub_type$[ebp], 38 ; 00000026H
  007a3	7d 35		 jge	 SHORT $LN8@dump_aircr

; 428  : 	{
; 429  : 		if (get_vehicle_side (sub_type) == ENTITY_SIDE_BLUE_FORCE)

  007a5	8b 45 f8	 mov	 eax, DWORD PTR _sub_type$[ebp]
  007a8	50		 push	 eax
  007a9	e8 00 00 00 00	 call	 ?get_vehicle_side@@YG?AW4ENTITY_SIDES@@H@Z ; get_vehicle_side
  007ae	83 f8 01	 cmp	 eax, 1
  007b1	75 25		 jne	 SHORT $LN30@dump_aircr

; 430  : 		{
; 431  : 			debug_colour_log (DEBUG_COLOUR_AMBER, "%4dx %s", blue_vehicle_count[sub_type], entity_sub_type_vehicle_names[sub_type]);

  007b3	8b 45 f8	 mov	 eax, DWORD PTR _sub_type$[ebp]
  007b6	8b 0c 85 00 00
	00 00		 mov	 ecx, DWORD PTR ?entity_sub_type_vehicle_names@@3PAPBDA[eax*4]
  007bd	51		 push	 ecx
  007be	8b 55 f8	 mov	 edx, DWORD PTR _sub_type$[ebp]
  007c1	8b 84 95 cc fe
	ff ff		 mov	 eax, DWORD PTR _blue_vehicle_count$[ebp+edx*4]
  007c8	50		 push	 eax
  007c9	68 00 00 00 00	 push	 OFFSET ??_C@_07LHAGCKKH@?$CF4dx?5?$CFs@
  007ce	6a 17		 push	 23			; 00000017H
  007d0	e8 00 00 00 00	 call	 ?debug_colour_log@@YAXW4DEBUG_COLOURS@@PBDZZ ; debug_colour_log
  007d5	83 c4 10	 add	 esp, 16			; 00000010H
$LN30@dump_aircr:

; 432  : 		}
; 433  : 	}

  007d8	eb bc		 jmp	 SHORT $LN7@dump_aircr
$LN8@dump_aircr:

; 434  : 
; 435  : 	////////////////////////////////////////
; 436  : 
; 437  : 	debug_colour_log (DEBUG_COLOUR_AMBER, "-------------------------------------");

  007da	68 00 00 00 00	 push	 OFFSET ??_C@_0CG@HMIINNMI@?9?9?9?9?9?9?9?9?9?9?9?9?9?9?9?9?9?9?9?9?9?9?9?9?9?9?9?9?9?9?9@
  007df	6a 17		 push	 23			; 00000017H
  007e1	e8 00 00 00 00	 call	 ?debug_colour_log@@YAXW4DEBUG_COLOURS@@PBDZZ ; debug_colour_log
  007e6	83 c4 08	 add	 esp, 8

; 438  : 	debug_colour_log (DEBUG_COLOUR_AMBER, "RED AIRCRAFT (total = %d)", total_red_aircraft_count);

  007e9	8b 45 e8	 mov	 eax, DWORD PTR _total_red_aircraft_count$[ebp]
  007ec	50		 push	 eax
  007ed	68 00 00 00 00	 push	 OFFSET ??_C@_0BK@KIPODJA@RED?5AIRCRAFT?5?$CItotal?5?$DN?5?$CFd?$CJ@
  007f2	6a 17		 push	 23			; 00000017H
  007f4	e8 00 00 00 00	 call	 ?debug_colour_log@@YAXW4DEBUG_COLOURS@@PBDZZ ; debug_colour_log
  007f9	83 c4 0c	 add	 esp, 12			; 0000000cH

; 439  : 	debug_colour_log (DEBUG_COLOUR_AMBER, "-------------------------------------");

  007fc	68 00 00 00 00	 push	 OFFSET ??_C@_0CG@HMIINNMI@?9?9?9?9?9?9?9?9?9?9?9?9?9?9?9?9?9?9?9?9?9?9?9?9?9?9?9?9?9?9?9@
  00801	6a 17		 push	 23			; 00000017H
  00803	e8 00 00 00 00	 call	 ?debug_colour_log@@YAXW4DEBUG_COLOURS@@PBDZZ ; debug_colour_log
  00808	83 c4 08	 add	 esp, 8

; 440  : 
; 441  : 	for (sub_type = 0; sub_type < NUM_ENTITY_SUB_TYPE_AIRCRAFT; sub_type++)

  0080b	c7 45 f8 00 00
	00 00		 mov	 DWORD PTR _sub_type$[ebp], 0
  00812	eb 09		 jmp	 SHORT $LN12@dump_aircr
$LN10@dump_aircr:
  00814	8b 45 f8	 mov	 eax, DWORD PTR _sub_type$[ebp]
  00817	83 c0 01	 add	 eax, 1
  0081a	89 45 f8	 mov	 DWORD PTR _sub_type$[ebp], eax
$LN12@dump_aircr:
  0081d	83 7d f8 20	 cmp	 DWORD PTR _sub_type$[ebp], 32 ; 00000020H
  00821	7d 35		 jge	 SHORT $LN11@dump_aircr

; 442  : 	{
; 443  : 		if (get_aircraft_side (sub_type) == ENTITY_SIDE_RED_FORCE)

  00823	8b 45 f8	 mov	 eax, DWORD PTR _sub_type$[ebp]
  00826	50		 push	 eax
  00827	e8 00 00 00 00	 call	 ?get_aircraft_side@@YG?AW4ENTITY_SIDES@@H@Z ; get_aircraft_side
  0082c	83 f8 02	 cmp	 eax, 2
  0082f	75 25		 jne	 SHORT $LN31@dump_aircr

; 444  : 		{
; 445  : 			debug_colour_log (DEBUG_COLOUR_AMBER, "%4dx %s", red_aircraft_count[sub_type], entity_sub_type_aircraft_names[sub_type]);

  00831	8b 45 f8	 mov	 eax, DWORD PTR _sub_type$[ebp]
  00834	8b 0c 85 00 00
	00 00		 mov	 ecx, DWORD PTR ?entity_sub_type_aircraft_names@@3PAPBDA[eax*4]
  0083b	51		 push	 ecx
  0083c	8b 55 f8	 mov	 edx, DWORD PTR _sub_type$[ebp]
  0083f	8b 84 95 4c fe
	ff ff		 mov	 eax, DWORD PTR _red_aircraft_count$[ebp+edx*4]
  00846	50		 push	 eax
  00847	68 00 00 00 00	 push	 OFFSET ??_C@_07LHAGCKKH@?$CF4dx?5?$CFs@
  0084c	6a 17		 push	 23			; 00000017H
  0084e	e8 00 00 00 00	 call	 ?debug_colour_log@@YAXW4DEBUG_COLOURS@@PBDZZ ; debug_colour_log
  00853	83 c4 10	 add	 esp, 16			; 00000010H
$LN31@dump_aircr:

; 446  : 		}
; 447  : 	}

  00856	eb bc		 jmp	 SHORT $LN10@dump_aircr
$LN11@dump_aircr:

; 448  : 
; 449  : 	////////////////////////////////////////
; 450  : 
; 451  : 	debug_colour_log (DEBUG_COLOUR_AMBER, "-------------------------------------");

  00858	68 00 00 00 00	 push	 OFFSET ??_C@_0CG@HMIINNMI@?9?9?9?9?9?9?9?9?9?9?9?9?9?9?9?9?9?9?9?9?9?9?9?9?9?9?9?9?9?9?9@
  0085d	6a 17		 push	 23			; 00000017H
  0085f	e8 00 00 00 00	 call	 ?debug_colour_log@@YAXW4DEBUG_COLOURS@@PBDZZ ; debug_colour_log
  00864	83 c4 08	 add	 esp, 8

; 452  : 	debug_colour_log (DEBUG_COLOUR_AMBER, "RED VEHICLES (total = %d)", total_red_vehicle_count);

  00867	8b 45 e4	 mov	 eax, DWORD PTR _total_red_vehicle_count$[ebp]
  0086a	50		 push	 eax
  0086b	68 00 00 00 00	 push	 OFFSET ??_C@_0BK@FKOKHIDA@RED?5VEHICLES?5?$CItotal?5?$DN?5?$CFd?$CJ@
  00870	6a 17		 push	 23			; 00000017H
  00872	e8 00 00 00 00	 call	 ?debug_colour_log@@YAXW4DEBUG_COLOURS@@PBDZZ ; debug_colour_log
  00877	83 c4 0c	 add	 esp, 12			; 0000000cH

; 453  : 	debug_colour_log (DEBUG_COLOUR_AMBER, "-------------------------------------");

  0087a	68 00 00 00 00	 push	 OFFSET ??_C@_0CG@HMIINNMI@?9?9?9?9?9?9?9?9?9?9?9?9?9?9?9?9?9?9?9?9?9?9?9?9?9?9?9?9?9?9?9@
  0087f	6a 17		 push	 23			; 00000017H
  00881	e8 00 00 00 00	 call	 ?debug_colour_log@@YAXW4DEBUG_COLOURS@@PBDZZ ; debug_colour_log
  00886	83 c4 08	 add	 esp, 8

; 454  : 
; 455  : 	for (sub_type = 0; sub_type < NUM_ENTITY_SUB_TYPE_VEHICLES; sub_type++)

  00889	c7 45 f8 00 00
	00 00		 mov	 DWORD PTR _sub_type$[ebp], 0
  00890	eb 09		 jmp	 SHORT $LN15@dump_aircr
$LN13@dump_aircr:
  00892	8b 45 f8	 mov	 eax, DWORD PTR _sub_type$[ebp]
  00895	83 c0 01	 add	 eax, 1
  00898	89 45 f8	 mov	 DWORD PTR _sub_type$[ebp], eax
$LN15@dump_aircr:
  0089b	83 7d f8 26	 cmp	 DWORD PTR _sub_type$[ebp], 38 ; 00000026H
  0089f	7d 35		 jge	 SHORT $LN14@dump_aircr

; 456  : 	{
; 457  : 		if (get_vehicle_side (sub_type) == ENTITY_SIDE_RED_FORCE)

  008a1	8b 45 f8	 mov	 eax, DWORD PTR _sub_type$[ebp]
  008a4	50		 push	 eax
  008a5	e8 00 00 00 00	 call	 ?get_vehicle_side@@YG?AW4ENTITY_SIDES@@H@Z ; get_vehicle_side
  008aa	83 f8 02	 cmp	 eax, 2
  008ad	75 25		 jne	 SHORT $LN32@dump_aircr

; 458  : 		{
; 459  : 			debug_colour_log (DEBUG_COLOUR_AMBER, "%4dx %s", red_vehicle_count[sub_type], entity_sub_type_vehicle_names[sub_type]);

  008af	8b 45 f8	 mov	 eax, DWORD PTR _sub_type$[ebp]
  008b2	8b 0c 85 00 00
	00 00		 mov	 ecx, DWORD PTR ?entity_sub_type_vehicle_names@@3PAPBDA[eax*4]
  008b9	51		 push	 ecx
  008ba	8b 55 f8	 mov	 edx, DWORD PTR _sub_type$[ebp]
  008bd	8b 84 95 b4 fd
	ff ff		 mov	 eax, DWORD PTR _red_vehicle_count$[ebp+edx*4]
  008c4	50		 push	 eax
  008c5	68 00 00 00 00	 push	 OFFSET ??_C@_07LHAGCKKH@?$CF4dx?5?$CFs@
  008ca	6a 17		 push	 23			; 00000017H
  008cc	e8 00 00 00 00	 call	 ?debug_colour_log@@YAXW4DEBUG_COLOURS@@PBDZZ ; debug_colour_log
  008d1	83 c4 10	 add	 esp, 16			; 00000010H
$LN32@dump_aircr:

; 460  : 		}
; 461  : 	}

  008d4	eb bc		 jmp	 SHORT $LN13@dump_aircr
$LN14@dump_aircr:

; 462  : 
; 463  : 	////////////////////////////////////////
; 464  : 
; 465  : 	debug_colour_log (DEBUG_COLOUR_AMBER, "=====================================");

  008d6	68 00 00 00 00	 push	 OFFSET ??_C@_0CG@DKAPOBGO@?$DN?$DN?$DN?$DN?$DN?$DN?$DN?$DN?$DN?$DN?$DN?$DN?$DN?$DN?$DN?$DN?$DN?$DN?$DN?$DN?$DN?$DN?$DN?$DN?$DN?$DN?$DN?$DN?$DN?$DN?$DN@
  008db	6a 17		 push	 23			; 00000017H
  008dd	e8 00 00 00 00	 call	 ?debug_colour_log@@YAXW4DEBUG_COLOURS@@PBDZZ ; debug_colour_log
  008e2	83 c4 08	 add	 esp, 8

; 466  : 	debug_colour_log (DEBUG_COLOUR_AMBER, "END FORCE COUNT");

  008e5	68 00 00 00 00	 push	 OFFSET ??_C@_0BA@OODPNMJK@END?5FORCE?5COUNT@
  008ea	6a 17		 push	 23			; 00000017H
  008ec	e8 00 00 00 00	 call	 ?debug_colour_log@@YAXW4DEBUG_COLOURS@@PBDZZ ; debug_colour_log
  008f1	83 c4 08	 add	 esp, 8

; 467  : 	debug_colour_log (DEBUG_COLOUR_AMBER, "=====================================");

  008f4	68 00 00 00 00	 push	 OFFSET ??_C@_0CG@DKAPOBGO@?$DN?$DN?$DN?$DN?$DN?$DN?$DN?$DN?$DN?$DN?$DN?$DN?$DN?$DN?$DN?$DN?$DN?$DN?$DN?$DN?$DN?$DN?$DN?$DN?$DN?$DN?$DN?$DN?$DN?$DN?$DN@
  008f9	6a 17		 push	 23			; 00000017H
  008fb	e8 00 00 00 00	 call	 ?debug_colour_log@@YAXW4DEBUG_COLOURS@@PBDZZ ; debug_colour_log
  00900	83 c4 08	 add	 esp, 8

; 468  : }

  00903	5f		 pop	 edi
  00904	5e		 pop	 esi
  00905	5b		 pop	 ebx
  00906	8b e5		 mov	 esp, ebp
  00908	5d		 pop	 ebp
  00909	c3		 ret	 0
?dump_aircraft_and_vehicle_count@@YGXXZ ENDP		; dump_aircraft_and_vehicle_count
_TEXT	ENDS
; Function compile flags: /Odtp /ZI
; File c:\users\nhv90\projects\eech\aphavoc\source\entity\system\en_debug\en_stats.c
;	COMDAT ?display_entity_system_statistics@@YGXXZ
_TEXT	SEGMENT
_type$ = -4						; size = 4
?display_entity_system_statistics@@YGXXZ PROC		; display_entity_system_statistics, COMDAT

; 155  : {

  00000	55		 push	 ebp
  00001	8b ec		 mov	 ebp, esp
  00003	83 ec 44	 sub	 esp, 68			; 00000044H
  00006	53		 push	 ebx
  00007	56		 push	 esi
  00008	57		 push	 edi

; 156  : 	entity_types
; 157  : 		type;
; 158  : 
; 159  : 	debug_colour_log (DEBUG_COLOUR_AMBER, "=====================================");

  00009	68 00 00 00 00	 push	 OFFSET ??_C@_0CG@DKAPOBGO@?$DN?$DN?$DN?$DN?$DN?$DN?$DN?$DN?$DN?$DN?$DN?$DN?$DN?$DN?$DN?$DN?$DN?$DN?$DN?$DN?$DN?$DN?$DN?$DN?$DN?$DN?$DN?$DN?$DN?$DN?$DN@
  0000e	6a 17		 push	 23			; 00000017H
  00010	e8 00 00 00 00	 call	 ?debug_colour_log@@YAXW4DEBUG_COLOURS@@PBDZZ ; debug_colour_log
  00015	83 c4 08	 add	 esp, 8

; 160  : 	debug_colour_log (DEBUG_COLOUR_AMBER, "ENTITY SYSTEM STATISTICS");

  00018	68 00 00 00 00	 push	 OFFSET ??_C@_0BJ@DMGBAJKM@ENTITY?5SYSTEM?5STATISTICS@
  0001d	6a 17		 push	 23			; 00000017H
  0001f	e8 00 00 00 00	 call	 ?debug_colour_log@@YAXW4DEBUG_COLOURS@@PBDZZ ; debug_colour_log
  00024	83 c4 08	 add	 esp, 8

; 161  : 	debug_colour_log (DEBUG_COLOUR_AMBER, "-------------------------------------");

  00027	68 00 00 00 00	 push	 OFFSET ??_C@_0CG@HMIINNMI@?9?9?9?9?9?9?9?9?9?9?9?9?9?9?9?9?9?9?9?9?9?9?9?9?9?9?9?9?9?9?9@
  0002c	6a 17		 push	 23			; 00000017H
  0002e	e8 00 00 00 00	 call	 ?debug_colour_log@@YAXW4DEBUG_COLOURS@@PBDZZ ; debug_colour_log
  00033	83 c4 08	 add	 esp, 8

; 162  : 
; 163  : 	debug_colour_log

  00036	f3 0f 2a 05 00
	00 00 00	 cvtsi2ss xmm0, DWORD PTR ?entity_peak_count@@3HA
  0003e	f3 0f 5a c0	 cvtss2sd xmm0, xmm0
  00042	f2 0f 59 05 00
	00 00 00	 mulsd	 xmm0, QWORD PTR __real@4059000000000000
  0004a	f3 0f 2a 0d 00
	00 00 00	 cvtsi2ss xmm1, DWORD PTR ?number_of_entities@@3HA ; number_of_entities
  00052	f3 0f 5a c9	 cvtss2sd xmm1, xmm1
  00056	f2 0f 5e c1	 divsd	 xmm0, xmm1
  0005a	83 ec 08	 sub	 esp, 8
  0005d	f2 0f 11 04 24	 movsd	 QWORD PTR [esp], xmm0
  00062	a1 00 00 00 00	 mov	 eax, DWORD PTR ?entity_peak_count@@3HA
  00067	50		 push	 eax
  00068	68 00 00 00 00	 push	 OFFSET ??_C@_0BC@FIJECEOA@ENTITY?5PEAK?5USAGE@
  0006d	68 00 00 00 00	 push	 OFFSET ??_C@_0DG@IHHOCNJB@?$CF?925?425s?3?5entity?5peak?5count?5?$DN?5?$CF@
  00072	6a 04		 push	 4
  00074	e8 00 00 00 00	 call	 ?debug_colour_log@@YAXW4DEBUG_COLOURS@@PBDZZ ; debug_colour_log
  00079	83 c4 18	 add	 esp, 24			; 00000018H

; 164  : 	(
; 165  : 		DEBUG_COLOUR_RED,
; 166  : 		"%-25.25s: entity peak count = %d (%.2f percent usage)",
; 167  : 		"ENTITY PEAK USAGE",
; 168  : 		entity_peak_count,
; 169  : 		((float) entity_peak_count * 100.0) / (float) number_of_entities
; 170  : 	);
; 171  : 
; 172  : 	for (type = (entity_types) 0; type < NUM_ENTITY_TYPES; type = (entity_types) ((int)type + 1))

  0007c	c7 45 fc 00 00
	00 00		 mov	 DWORD PTR _type$[ebp], 0
  00083	eb 09		 jmp	 SHORT $LN4@display_en
$LN2@display_en:
  00085	8b 45 fc	 mov	 eax, DWORD PTR _type$[ebp]
  00088	83 c0 01	 add	 eax, 1
  0008b	89 45 fc	 mov	 DWORD PTR _type$[ebp], eax
$LN4@display_en:
  0008e	83 7d fc 26	 cmp	 DWORD PTR _type$[ebp], 38 ; 00000026H
  00092	7d 48		 jge	 SHORT $LN3@display_en

; 173  : 	{
; 174  : 		debug_colour_log

  00094	6b 45 fc 0c	 imul	 eax, DWORD PTR _type$[ebp], 12
  00098	8b 88 04 00 00
	00		 mov	 ecx, DWORD PTR ?entity_type_database@@3PAUENTITY_TYPE_DATA@@A[eax+4]
  0009e	51		 push	 ecx
  0009f	6b 55 fc 0c	 imul	 edx, DWORD PTR _type$[ebp], 12
  000a3	8b 82 08 00 00
	00		 mov	 eax, DWORD PTR ?entity_type_stats@@3PAU<unnamed-type-entity_type_stats>@@A[edx+8]
  000a9	50		 push	 eax
  000aa	6b 4d fc 0c	 imul	 ecx, DWORD PTR _type$[ebp], 12
  000ae	8b 91 04 00 00
	00		 mov	 edx, DWORD PTR ?entity_type_stats@@3PAU<unnamed-type-entity_type_stats>@@A[ecx+4]
  000b4	52		 push	 edx
  000b5	6b 45 fc 0c	 imul	 eax, DWORD PTR _type$[ebp], 12
  000b9	8b 88 00 00 00
	00		 mov	 ecx, DWORD PTR ?entity_type_stats@@3PAU<unnamed-type-entity_type_stats>@@A[eax]
  000bf	51		 push	 ecx
  000c0	6b 55 fc 0c	 imul	 edx, DWORD PTR _type$[ebp], 12
  000c4	8b 82 00 00 00
	00		 mov	 eax, DWORD PTR ?entity_type_database@@3PAUENTITY_TYPE_DATA@@A[edx]
  000ca	50		 push	 eax
  000cb	68 00 00 00 00	 push	 OFFSET ??_C@_0EL@EHBKJJJP@?$CF?925?425s?3?5total?5created?5?$DN?5?$CF5d?0?5@
  000d0	6a 17		 push	 23			; 00000017H
  000d2	e8 00 00 00 00	 call	 ?debug_colour_log@@YAXW4DEBUG_COLOURS@@PBDZZ ; debug_colour_log
  000d7	83 c4 1c	 add	 esp, 28			; 0000001cH

; 175  : 	  	(
; 176  : 			DEBUG_COLOUR_AMBER,
; 177  : 			"%-25.25s: total created = %5d, count = %5d, peak count = %5d, sizeof = %5d",
; 178  : 			get_entity_type_name (type),
; 179  : 			entity_type_stats[type].total_created,
; 180  : 			entity_type_stats[type].count,
; 181  : 			entity_type_stats[type].peak_count,
; 182  : 			entity_type_database[type].size_of_data
; 183  : 		);
; 184  : 	}

  000da	eb a9		 jmp	 SHORT $LN2@display_en
$LN3@display_en:

; 185  : 
; 186  : 	debug_colour_log (DEBUG_COLOUR_AMBER, "=====================================");

  000dc	68 00 00 00 00	 push	 OFFSET ??_C@_0CG@DKAPOBGO@?$DN?$DN?$DN?$DN?$DN?$DN?$DN?$DN?$DN?$DN?$DN?$DN?$DN?$DN?$DN?$DN?$DN?$DN?$DN?$DN?$DN?$DN?$DN?$DN?$DN?$DN?$DN?$DN?$DN?$DN?$DN@
  000e1	6a 17		 push	 23			; 00000017H
  000e3	e8 00 00 00 00	 call	 ?debug_colour_log@@YAXW4DEBUG_COLOURS@@PBDZZ ; debug_colour_log
  000e8	83 c4 08	 add	 esp, 8

; 187  : }

  000eb	5f		 pop	 edi
  000ec	5e		 pop	 esi
  000ed	5b		 pop	 ebx
  000ee	8b e5		 mov	 esp, ebp
  000f0	5d		 pop	 ebp
  000f1	c3		 ret	 0
?display_entity_system_statistics@@YGXXZ ENDP		; display_entity_system_statistics
_TEXT	ENDS
; Function compile flags: /Odtp /ZI
; File c:\users\nhv90\projects\eech\aphavoc\source\entity\system\en_debug\en_stats.c
;	COMDAT ?update_destroy_entity_statistics@@YGXPAUENTITY@@@Z
_TEXT	SEGMENT
tv76 = -68						; size = 4
_en$ = 8						; size = 4
?update_destroy_entity_statistics@@YGXPAUENTITY@@@Z PROC ; update_destroy_entity_statistics, COMDAT

; 140  : {

  00000	55		 push	 ebp
  00001	8b ec		 mov	 ebp, esp
  00003	83 ec 44	 sub	 esp, 68			; 00000044H
  00006	53		 push	 ebx
  00007	56		 push	 esi
  00008	57		 push	 edi

; 141  : 	ASSERT (en);

  00009	83 7d 08 00	 cmp	 DWORD PTR _en$[ebp], 0
  0000d	75 18		 jne	 SHORT $LN2@update_des
  0000f	a1 00 00 00 00	 mov	 eax, DWORD PTR ?__LINE__Var@?0??update_destroy_entity_statistics@@YGXPAUENTITY@@@Z@4JA
  00014	83 c0 01	 add	 eax, 1
  00017	50		 push	 eax
  00018	68 00 00 00 00	 push	 OFFSET ??_C@_0EO@EAGEICGD@c?3?2users?2nhv90?2projects?2eech?2ap@
  0001d	68 00 00 00 00	 push	 OFFSET ??_C@_02LFNMGJAP@en@
  00022	e8 00 00 00 00	 call	 ?process_assert@@YGXPBD0H@Z ; process_assert
$LN2@update_des:

; 142  : 
; 143  : 	entity_count--;

  00027	a1 00 00 00 00	 mov	 eax, DWORD PTR ?entity_count@@3HA
  0002c	83 e8 01	 sub	 eax, 1
  0002f	a3 00 00 00 00	 mov	 DWORD PTR ?entity_count@@3HA, eax

; 144  : 
; 145  : 	entity_type_stats[get_local_entity_type (en)].count--;

  00034	83 7d 08 00	 cmp	 DWORD PTR _en$[ebp], 0
  00038	74 0a		 je	 SHORT $LN4@update_des
  0003a	8b 45 08	 mov	 eax, DWORD PTR _en$[ebp]
  0003d	8b 08		 mov	 ecx, DWORD PTR [eax]
  0003f	89 4d bc	 mov	 DWORD PTR tv76[ebp], ecx
  00042	eb 21		 jmp	 SHORT $LN5@update_des
$LN4@update_des:
  00044	8b 15 00 00 00
	00		 mov	 edx, DWORD PTR ?__LINE__Var@?0??update_destroy_entity_statistics@@YGXPAUENTITY@@@Z@4JA
  0004a	83 c2 05	 add	 edx, 5
  0004d	52		 push	 edx
  0004e	68 00 00 00 00	 push	 OFFSET ??_C@_0EO@EAGEICGD@c?3?2users?2nhv90?2projects?2eech?2ap@
  00053	a1 00 00 00 00	 mov	 eax, DWORD PTR ?null_entity_pointer_message@@3PBDB ; null_entity_pointer_message
  00058	50		 push	 eax
  00059	e8 00 00 00 00	 call	 ?process_assert@@YGXPBD0H@Z ; process_assert
  0005e	c7 45 bc 00 00
	00 00		 mov	 DWORD PTR tv76[ebp], 0
$LN5@update_des:
  00065	6b 4d bc 0c	 imul	 ecx, DWORD PTR tv76[ebp], 12
  00069	8b 91 04 00 00
	00		 mov	 edx, DWORD PTR ?entity_type_stats@@3PAU<unnamed-type-entity_type_stats>@@A[ecx+4]
  0006f	83 ea 01	 sub	 edx, 1
  00072	6b 45 bc 0c	 imul	 eax, DWORD PTR tv76[ebp], 12
  00076	89 90 04 00 00
	00		 mov	 DWORD PTR ?entity_type_stats@@3PAU<unnamed-type-entity_type_stats>@@A[eax+4], edx

; 146  : }

  0007c	5f		 pop	 edi
  0007d	5e		 pop	 esi
  0007e	5b		 pop	 ebx
  0007f	8b e5		 mov	 esp, ebp
  00081	5d		 pop	 ebp
  00082	c2 04 00	 ret	 4
?update_destroy_entity_statistics@@YGXPAUENTITY@@@Z ENDP ; update_destroy_entity_statistics
_TEXT	ENDS
; Function compile flags: /Odtp /ZI
; File c:\users\nhv90\projects\eech\aphavoc\source\entity\system\en_debug\en_stats.c
;	COMDAT ?update_create_entity_statistics@@YGXW4ENTITY_TYPES@@@Z
_TEXT	SEGMENT
tv90 = -68						; size = 4
_type$ = 8						; size = 4
?update_create_entity_statistics@@YGXW4ENTITY_TYPES@@@Z PROC ; update_create_entity_statistics, COMDAT

; 110  : {

  00000	55		 push	 ebp
  00001	8b ec		 mov	 ebp, esp
  00003	83 ec 44	 sub	 esp, 68			; 00000044H
  00006	53		 push	 ebx
  00007	56		 push	 esi
  00008	57		 push	 edi

; 111  : 	ASSERT ((type > ENTITY_TYPE_UNKNOWN) && (type < NUM_ENTITY_TYPES));

  00009	83 7d 08 00	 cmp	 DWORD PTR _type$[ebp], 0
  0000d	7e 06		 jle	 SHORT $LN3@update_cre
  0000f	83 7d 08 26	 cmp	 DWORD PTR _type$[ebp], 38 ; 00000026H
  00013	7c 18		 jl	 SHORT $LN2@update_cre
$LN3@update_cre:
  00015	a1 00 00 00 00	 mov	 eax, DWORD PTR ?__LINE__Var@?0??update_create_entity_statistics@@YGXW4ENTITY_TYPES@@@Z@4JA
  0001a	83 c0 01	 add	 eax, 1
  0001d	50		 push	 eax
  0001e	68 00 00 00 00	 push	 OFFSET ??_C@_0EO@EAGEICGD@c?3?2users?2nhv90?2projects?2eech?2ap@
  00023	68 00 00 00 00	 push	 OFFSET ??_C@_0DK@FHKBEOGD@?$CItype?5?$DO?5ENTITY_TYPE_UNKNOWN?$CJ?5?$CG?$CG@
  00028	e8 00 00 00 00	 call	 ?process_assert@@YGXPBD0H@Z ; process_assert
$LN2@update_cre:

; 112  : 
; 113  : 	//
; 114  : 	// ignore client create on transmit (wait until client create on receive)
; 115  : 	//
; 116  : 
; 117  : 	if ((get_comms_model () == COMMS_MODEL_CLIENT) && (get_comms_data_flow () == COMMS_DATA_FLOW_TX))

  0002d	83 3d 00 00 00
	00 01		 cmp	 DWORD PTR ?system_comms_model@@3W4COMMS_MODEL_TYPES@@A, 1 ; system_comms_model
  00034	75 0b		 jne	 SHORT $LN4@update_cre
  00036	83 3d 00 00 00
	00 00		 cmp	 DWORD PTR ?system_comms_data_flow@@3W4COMMS_DATA_FLOW_TYPES@@A, 0 ; system_comms_data_flow
  0003d	75 02		 jne	 SHORT $LN4@update_cre

; 118  : 	{
; 119  : 		return;

  0003f	eb 7c		 jmp	 SHORT $LN1@update_cre
$LN4@update_cre:

; 120  : 	}
; 121  : 
; 122  : 	if (++entity_count > entity_peak_count)

  00041	a1 00 00 00 00	 mov	 eax, DWORD PTR ?entity_count@@3HA
  00046	83 c0 01	 add	 eax, 1
  00049	a3 00 00 00 00	 mov	 DWORD PTR ?entity_count@@3HA, eax
  0004e	8b 0d 00 00 00
	00		 mov	 ecx, DWORD PTR ?entity_count@@3HA
  00054	3b 0d 00 00 00
	00		 cmp	 ecx, DWORD PTR ?entity_peak_count@@3HA
  0005a	7e 0a		 jle	 SHORT $LN5@update_cre

; 123  : 	{
; 124  : 		entity_peak_count = entity_count;

  0005c	a1 00 00 00 00	 mov	 eax, DWORD PTR ?entity_count@@3HA
  00061	a3 00 00 00 00	 mov	 DWORD PTR ?entity_peak_count@@3HA, eax
$LN5@update_cre:

; 125  : 	}
; 126  : 
; 127  : 	entity_type_stats[type].total_created++;

  00066	6b 45 08 0c	 imul	 eax, DWORD PTR _type$[ebp], 12
  0006a	8b 88 00 00 00
	00		 mov	 ecx, DWORD PTR ?entity_type_stats@@3PAU<unnamed-type-entity_type_stats>@@A[eax]
  00070	83 c1 01	 add	 ecx, 1
  00073	6b 55 08 0c	 imul	 edx, DWORD PTR _type$[ebp], 12
  00077	89 8a 00 00 00
	00		 mov	 DWORD PTR ?entity_type_stats@@3PAU<unnamed-type-entity_type_stats>@@A[edx], ecx

; 128  : 
; 129  : 	if (++entity_type_stats[type].count > entity_type_stats[type].peak_count)

  0007d	6b 45 08 0c	 imul	 eax, DWORD PTR _type$[ebp], 12
  00081	8b 88 04 00 00
	00		 mov	 ecx, DWORD PTR ?entity_type_stats@@3PAU<unnamed-type-entity_type_stats>@@A[eax+4]
  00087	83 c1 01	 add	 ecx, 1
  0008a	89 4d bc	 mov	 DWORD PTR tv90[ebp], ecx
  0008d	6b 55 08 0c	 imul	 edx, DWORD PTR _type$[ebp], 12
  00091	8b 45 bc	 mov	 eax, DWORD PTR tv90[ebp]
  00094	89 82 04 00 00
	00		 mov	 DWORD PTR ?entity_type_stats@@3PAU<unnamed-type-entity_type_stats>@@A[edx+4], eax
  0009a	6b 4d 08 0c	 imul	 ecx, DWORD PTR _type$[ebp], 12
  0009e	8b 55 bc	 mov	 edx, DWORD PTR tv90[ebp]
  000a1	3b 91 08 00 00
	00		 cmp	 edx, DWORD PTR ?entity_type_stats@@3PAU<unnamed-type-entity_type_stats>@@A[ecx+8]
  000a7	7e 14		 jle	 SHORT $LN1@update_cre

; 130  : 	{
; 131  : 		entity_type_stats[type].peak_count = entity_type_stats[type].count;

  000a9	6b 45 08 0c	 imul	 eax, DWORD PTR _type$[ebp], 12
  000ad	6b 4d 08 0c	 imul	 ecx, DWORD PTR _type$[ebp], 12
  000b1	8b 90 04 00 00
	00		 mov	 edx, DWORD PTR ?entity_type_stats@@3PAU<unnamed-type-entity_type_stats>@@A[eax+4]
  000b7	89 91 08 00 00
	00		 mov	 DWORD PTR ?entity_type_stats@@3PAU<unnamed-type-entity_type_stats>@@A[ecx+8], edx
$LN1@update_cre:

; 132  : 	}
; 133  : }

  000bd	5f		 pop	 edi
  000be	5e		 pop	 esi
  000bf	5b		 pop	 ebx
  000c0	8b e5		 mov	 esp, ebp
  000c2	5d		 pop	 ebp
  000c3	c2 04 00	 ret	 4
?update_create_entity_statistics@@YGXW4ENTITY_TYPES@@@Z ENDP ; update_create_entity_statistics
_TEXT	ENDS
; Function compile flags: /Odtp /ZI
; File c:\users\nhv90\projects\eech\aphavoc\source\entity\system\en_debug\en_stats.c
;	COMDAT ?initialise_entity_system_statistics@@YGXXZ
_TEXT	SEGMENT
?initialise_entity_system_statistics@@YGXXZ PROC	; initialise_entity_system_statistics, COMDAT

; 97   : {

  00000	55		 push	 ebp
  00001	8b ec		 mov	 ebp, esp
  00003	83 ec 40	 sub	 esp, 64			; 00000040H
  00006	53		 push	 ebx
  00007	56		 push	 esi
  00008	57		 push	 edi

; 98   : 	entity_count = 0;

  00009	c7 05 00 00 00
	00 00 00 00 00	 mov	 DWORD PTR ?entity_count@@3HA, 0

; 99   : 
; 100  : 	entity_peak_count = 0;

  00013	c7 05 00 00 00
	00 00 00 00 00	 mov	 DWORD PTR ?entity_peak_count@@3HA, 0

; 101  : 
; 102  : 	memset (entity_type_stats, 0, sizeof (entity_type_stats));

  0001d	68 c8 01 00 00	 push	 456			; 000001c8H
  00022	6a 00		 push	 0
  00024	68 00 00 00 00	 push	 OFFSET ?entity_type_stats@@3PAU<unnamed-type-entity_type_stats>@@A
  00029	e8 00 00 00 00	 call	 _memset
  0002e	83 c4 0c	 add	 esp, 12			; 0000000cH

; 103  : }

  00031	5f		 pop	 edi
  00032	5e		 pop	 esi
  00033	5b		 pop	 ebx
  00034	8b e5		 mov	 esp, ebp
  00036	5d		 pop	 ebp
  00037	c3		 ret	 0
?initialise_entity_system_statistics@@YGXXZ ENDP	; initialise_entity_system_statistics
_TEXT	ENDS
END
