; Listing generated by Microsoft (R) Optimizing Compiler Version 19.16.27045.0 

	TITLE	C:\Users\nhv90\Projects\eech\aphavoc\source\entity\system\en_comms\en_sessn.c
	.686P
	.XMM
	include listing.inc
	.model	flat

INCLUDELIB MSVCRTD
INCLUDELIB OLDNAMES

PUBLIC	?entity_smoke_list_creation@@3PAUCOMMS_ENTITY_SMOKE_LIST_CREATION_TYPE@@A ; entity_smoke_list_creation
PUBLIC	?entity_sound_effect_creation@@3PAUCOMMS_ENTITY_SOUND_EFFECT_CREATION_TYPE@@A ; entity_sound_effect_creation
PUBLIC	?entity_list_link_validation@@3PAUCOMMS_ENTITY_LIST_VALIDATION_TYPE@@A ; entity_list_link_validation
PUBLIC	?entity_list_root_validation@@3PAUCOMMS_ENTITY_LIST_VALIDATION_TYPE@@A ; entity_list_root_validation
PUBLIC	?entity_pack_size_array@@3PAUENTITY_PACK_SIZE_TYPE@@A ; entity_pack_size_array
_BSS	SEGMENT
?entity_smoke_list_creation@@3PAUCOMMS_ENTITY_SMOKE_LIST_CREATION_TYPE@@A DD 01H DUP (?) ; entity_smoke_list_creation
?entity_sound_effect_creation@@3PAUCOMMS_ENTITY_SOUND_EFFECT_CREATION_TYPE@@A DD 01H DUP (?) ; entity_sound_effect_creation
?entity_list_link_validation@@3PAUCOMMS_ENTITY_LIST_VALIDATION_TYPE@@A DD 01H DUP (?) ; entity_list_link_validation
?entity_list_root_validation@@3PAUCOMMS_ENTITY_LIST_VALIDATION_TYPE@@A DD 01H DUP (?) ; entity_list_root_validation
?entity_pack_size_array@@3PAUENTITY_PACK_SIZE_TYPE@@A DQ 026H DUP (?) ; entity_pack_size_array
_BSS	ENDS
PUBLIC	?pack_session@@YGHPAEPAHW4PACK_MODES@@@Z	; pack_session
PUBLIC	?unpack_session@@YGHPAEHW4PACK_MODES@@@Z	; unpack_session
PUBLIC	?initialise_entity_list_validation@@YGXXZ	; initialise_entity_list_validation
PUBLIC	?register_entity_list_link_for_post_unpack_validation@@YGHPAUENTITY@@H@Z ; register_entity_list_link_for_post_unpack_validation
PUBLIC	?register_entity_list_root_for_post_unpack_validation@@YGHPAUENTITY@@H@Z ; register_entity_list_root_for_post_unpack_validation
PUBLIC	?register_attach_meta_smoke_list_to_object@@YGXPAUENTITY@@HHPAHH@Z ; register_attach_meta_smoke_list_to_object
PUBLIC	?register_attach_sound_effect_to_object@@YGXPAUENTITY@@HW4ENTITY_SIDES@@HHH@Z ; register_attach_sound_effect_to_object
PUBLIC	?dump_entities@@YGXXZ				; dump_entities
PUBLIC	?kill_entities_awaiting_update@@YGXXZ		; kill_entities_awaiting_update
PUBLIC	?__LINE__Var@?0??pack_session@@YGHPAEPAHW4PACK_MODES@@@Z@4JA ; `pack_session'::`1'::__LINE__Var
PUBLIC	??_C@_0EO@HOHMAODH@c?3?2users?2nhv90?2projects?2eech?2ap@ ; `string'
PUBLIC	??_C@_06HOHPNJLC@buffer@			; `string'
PUBLIC	??_C@_0BB@FJJEGFI@?$CKbuffer_size?5?$DO?50@	; `string'
PUBLIC	??_C@_0CH@MMFDPOBJ@?$CImode?5?$DO?$DN?50?$CJ?5?$CG?$CG?5?$CImode?5?$DM?5NUM_PACK@ ; `string'
PUBLIC	?__LINE__Var@?0??unpack_session@@YGHPAEHW4PACK_MODES@@@Z@4JA ; `unpack_session'::`1'::__LINE__Var
PUBLIC	??_C@_0BA@DMECBBBD@buffer_size?5?$DO?50@	; `string'
PUBLIC	?__LINE__Var@?0??process_entity_list_link_validation@@YGXXZ@4JA ; `process_entity_list_link_validation'::`1'::__LINE__Var
PUBLIC	??_C@_0CE@KHIDGKG@parent?9?$DOtype?5?$CB?$DN?5ENTITY_TYPE_UNK@ ; `string'
PUBLIC	??_C@_0CC@GNMCLEK@succ?9?$DOtype?5?$CB?$DN?5ENTITY_TYPE_UNKNO@ ; `string'
PUBLIC	??_C@_0EI@FBNFEJBP@get_local_entity_child_pred?5?$CIsu@ ; `string'
PUBLIC	??_C@_0CC@IKHPKHMB@pred?9?$DOtype?5?$CB?$DN?5ENTITY_TYPE_UNKNO@ ; `string'
PUBLIC	??_C@_0EI@FMJGFCIP@get_local_entity_child_succ?5?$CIpr@ ; `string'
PUBLIC	?__LINE__Var@?0??process_entity_list_root_validation@@YGXXZ@4JA ; `process_entity_list_root_validation'::`1'::__LINE__Var
PUBLIC	??_C@_0CJ@HIHJKMOI@first_child?9?$DOtype?5?$CB?$DN?5ENTITY_TYP@ ; `string'
PUBLIC	?__LINE__Var@?0??repair_landing_entity_locks@@YGXW4PACK_MODES@@@Z@4JA ; `repair_landing_entity_locks'::`1'::__LINE__Var
PUBLIC	??_C@_07EAMPMOFH@landing@			; `string'
PUBLIC	??_C@_0DH@OIAJMANP@get_local_entity_type?5?$CIen?$CJ?5?$DN?$DN?5E@ ; `string'
PUBLIC	??_C@_0DF@DFDNBLDE@get_local_entity_type?5?$CIkeysite?$CJ@ ; `string'
PUBLIC	?__LINE__Var@?0??process_entity_smoke_list_creation@@YGXXZ@4JA ; `process_entity_smoke_list_creation'::`1'::__LINE__Var
PUBLIC	??_C@_0BN@JNLNJENB@this_smoke_list_creation?9?$DOen@ ; `string'
PUBLIC	?__LINE__Var@?0??process_entity_sound_effect_creation@@YGXXZ@4JA ; `process_entity_sound_effect_creation'::`1'::__LINE__Var
PUBLIC	??_C@_0BP@FPFNPDBK@this_sound_effect_creation?9?$DOen@ ; `string'
PUBLIC	?__LINE__Var@?0??kill_entities_awaiting_update@@YGXXZ@4JA ; `kill_entities_awaiting_update'::`1'::__LINE__Var
PUBLIC	__real@3f800000
EXTRN	_memcpy:PROC
EXTRN	?process_assert@@YGXPBD0H@Z:PROC		; process_assert
EXTRN	?malloc_heap_memory@@YGPAXI@Z:PROC		; malloc_heap_memory
EXTRN	?free_mem@@YGXPAX@Z:PROC			; free_mem
EXTRN	?pack_entity_type@@YGXW4ENTITY_TYPES@@@Z:PROC	; pack_entity_type
EXTRN	?unpack_entity_type@@YG?AW4ENTITY_TYPES@@XZ:PROC ; unpack_entity_type
EXTRN	?set_comms_data_flow@@YGXW4COMMS_DATA_FLOW_TYPES@@@Z:PROC ; set_comms_data_flow
EXTRN	?notify_local_entity@@YAHW4ENTITY_MESSAGES@@PAUENTITY@@1ZZ:PROC ; notify_local_entity
EXTRN	?unpack_local_entity_data@@YGXPAUENTITY@@W4ENTITY_TYPES@@W4PACK_MODES@@@Z:PROC ; unpack_local_entity_data
EXTRN	?open_pack_buffer@@YGXPAEH@Z:PROC		; open_pack_buffer
EXTRN	?close_pack_buffer@@YGHXZ:PROC			; close_pack_buffer
EXTRN	?open_unpack_buffer@@YGXPAEH@Z:PROC		; open_unpack_buffer
EXTRN	?close_unpack_buffer@@YGXXZ:PROC		; close_unpack_buffer
EXTRN	?enable_debug_log_entity_args@@YGXXZ:PROC	; enable_debug_log_entity_args
EXTRN	?disable_debug_log_entity_args@@YGXXZ:PROC	; disable_debug_log_entity_args
EXTRN	?pack_local_city_building_data@@YGXW4PACK_MODES@@@Z:PROC ; pack_local_city_building_data
EXTRN	?unpack_local_city_building_data@@YGXW4PACK_MODES@@@Z:PROC ; unpack_local_city_building_data
EXTRN	?pack_local_pylon_data@@YGXW4PACK_MODES@@@Z:PROC ; pack_local_pylon_data
EXTRN	?unpack_local_pylon_data@@YGXW4PACK_MODES@@@Z:PROC ; unpack_local_pylon_data
EXTRN	?pack_local_scenic_data@@YGXW4PACK_MODES@@@Z:PROC ; pack_local_scenic_data
EXTRN	?unpack_local_scenic_data@@YGXW4PACK_MODES@@@Z:PROC ; unpack_local_scenic_data
EXTRN	?pack_local_segment_data@@YGXW4PACK_MODES@@@Z:PROC ; pack_local_segment_data
EXTRN	?unpack_local_segment_data@@YGXW4PACK_MODES@@@Z:PROC ; unpack_local_segment_data
EXTRN	?pack_local_site_data@@YGXW4PACK_MODES@@@Z:PROC	; pack_local_site_data
EXTRN	?unpack_local_site_data@@YGXW4PACK_MODES@@@Z:PROC ; unpack_local_site_data
EXTRN	?pack_local_site_updatable_data@@YGXW4PACK_MODES@@@Z:PROC ; pack_local_site_updatable_data
EXTRN	?unpack_local_site_updatable_data@@YGXW4PACK_MODES@@@Z:PROC ; unpack_local_site_updatable_data
EXTRN	?pack_local_anti_aircraft_data@@YGXW4PACK_MODES@@@Z:PROC ; pack_local_anti_aircraft_data
EXTRN	?unpack_local_anti_aircraft_data@@YGXW4PACK_MODES@@@Z:PROC ; unpack_local_anti_aircraft_data
EXTRN	?pack_local_bridge_data@@YGXW4PACK_MODES@@@Z:PROC ; pack_local_bridge_data
EXTRN	?unpack_local_bridge_data@@YGXW4PACK_MODES@@@Z:PROC ; unpack_local_bridge_data
EXTRN	?pack_local_division_database@@YGXW4PACK_MODES@@@Z:PROC ; pack_local_division_database
EXTRN	?unpack_local_division_database@@YGXW4PACK_MODES@@@Z:PROC ; unpack_local_division_database
EXTRN	?set_infinite_smoke_list_generating_state@@YGHPAUENTITY@@HM@Z:PROC ; set_infinite_smoke_list_generating_state
EXTRN	?attach_local_meta_smoke_lists_to_object@@YGHPAUENTITY@@W4META_SMOKE_LIST_TYPES@@HPAH@Z:PROC ; attach_local_meta_smoke_lists_to_object
EXTRN	?create_local_sound_effect_entity@@YGPAUENTITY@@HPAU1@W4ENTITY_SIDES@@HW4SOUND_CHANNEL_TYPES@@W4SOUND_LOCALITY_TYPES@@PAUVEC3D@@MMHHHPAH@Z:PROC ; create_local_sound_effect_entity
EXTRN	?pack_local_force_data@@YGXPAUENTITY@@W4PACK_MODES@@@Z:PROC ; pack_local_force_data
EXTRN	?unpack_local_force_data@@YGXPAUENTITY@@W4PACK_MODES@@@Z:PROC ; unpack_local_force_data
EXTRN	?pack_local_group_data@@YGXW4PACK_MODES@@@Z:PROC ; pack_local_group_data
EXTRN	?unpack_local_group_data@@YGXW4PACK_MODES@@@Z:PROC ; unpack_local_group_data
EXTRN	?validate_local_group_data@@YGXXZ:PROC		; validate_local_group_data
EXTRN	?pack_group_callsign_database@@YGXW4PACK_MODES@@@Z:PROC ; pack_group_callsign_database
EXTRN	?unpack_group_callsign_database@@YGXW4PACK_MODES@@@Z:PROC ; unpack_group_callsign_database
EXTRN	?pack_local_keysite_data@@YGXW4PACK_MODES@@@Z:PROC ; pack_local_keysite_data
EXTRN	?unpack_local_keysite_data@@YGXW4PACK_MODES@@@Z:PROC ; unpack_local_keysite_data
EXTRN	?pack_debug_entity_landing_locks@@YGXW4PACK_MODES@@@Z:PROC ; pack_debug_entity_landing_locks
EXTRN	?unpack_debug_entity_landing_locks@@YGXW4PACK_MODES@@@Z:PROC ; unpack_debug_entity_landing_locks
EXTRN	?get_local_entity_landing_entity@@YGPAUENTITY@@PAU1@H@Z:PROC ; get_local_entity_landing_entity
EXTRN	?pack_local_regen_data@@YGXW4PACK_MODES@@@Z:PROC ; pack_local_regen_data
EXTRN	?unpack_local_regen_data@@YGXW4PACK_MODES@@@Z:PROC ; unpack_local_regen_data
EXTRN	?pack_local_sector_data@@YGXW4PACK_MODES@@@Z:PROC ; pack_local_sector_data
EXTRN	?unpack_local_sector_data@@YGXW4PACK_MODES@@@Z:PROC ; unpack_local_sector_data
EXTRN	?pack_local_session_data@@YGXW4PACK_MODES@@@Z:PROC ; pack_local_session_data
EXTRN	?unpack_local_session_data@@YGXW4PACK_MODES@@@Z:PROC ; unpack_local_session_data
EXTRN	?reinitialise_client_ai_system@@YGXXZ:PROC	; reinitialise_client_ai_system
EXTRN	?pack_local_message_log@@YGXW4PACK_MODES@@@Z:PROC ; pack_local_message_log
EXTRN	?unpack_local_message_log@@YGXW4PACK_MODES@@@Z:PROC ; unpack_local_message_log
EXTRN	?update_gunships_screen_progress_indicator@@YGXXZ:PROC ; update_gunships_screen_progress_indicator
EXTRN	?set_gunship_screen_progress_message@@YGXH@Z:PROC ; set_gunship_screen_progress_message
EXTRN	?null_entity_pointer_message@@3PBDB:DWORD	; null_entity_pointer_message
EXTRN	?system_comms_model@@3W4COMMS_MODEL_TYPES@@A:DWORD ; system_comms_model
EXTRN	?fn_pack_local_entity_data@@3PAP6GXPAUENTITY@@W4PACK_MODES@@@ZA:BYTE ; fn_pack_local_entity_data
EXTRN	?current_pack_buffer@@3PAUPACK_BUFFER@@A:DWORD	; current_pack_buffer
EXTRN	?current_unpack_buffer@@3PAUUNPACK_BUFFER@@A:DWORD ; current_unpack_buffer
EXTRN	?overload_invalid_list_type_message@@3PBDB:DWORD ; overload_invalid_list_type_message
EXTRN	?fn_set_local_entity_first_child@@3PAY0CN@P6GXPAUENTITY@@W4LIST_TYPES@@0@ZA:BYTE ; fn_set_local_entity_first_child
EXTRN	?fn_get_local_entity_first_child@@3PAY0CN@P6GPAUENTITY@@PAU1@W4LIST_TYPES@@@ZA:BYTE ; fn_get_local_entity_first_child
EXTRN	?fn_set_local_entity_parent@@3PAY0CN@P6GXPAUENTITY@@W4LIST_TYPES@@0@ZA:BYTE ; fn_set_local_entity_parent
EXTRN	?fn_get_local_entity_parent@@3PAY0CN@P6GPAUENTITY@@PAU1@W4LIST_TYPES@@@ZA:BYTE ; fn_get_local_entity_parent
EXTRN	?fn_set_local_entity_child_succ@@3PAY0CN@P6GXPAUENTITY@@W4LIST_TYPES@@0@ZA:BYTE ; fn_set_local_entity_child_succ
EXTRN	?fn_get_local_entity_child_succ@@3PAY0CN@P6GPAUENTITY@@PAU1@W4LIST_TYPES@@@ZA:BYTE ; fn_get_local_entity_child_succ
EXTRN	?fn_set_local_entity_child_pred@@3PAY0CN@P6GXPAUENTITY@@W4LIST_TYPES@@0@ZA:BYTE ; fn_set_local_entity_child_pred
EXTRN	?fn_get_local_entity_child_pred@@3PAY0CN@P6GPAUENTITY@@PAU1@W4LIST_TYPES@@@ZA:BYTE ; fn_get_local_entity_child_pred
EXTRN	?fn_destroy_client_server_entity_family@@3PAY01P6GXPAUENTITY@@@ZA:BYTE ; fn_destroy_client_server_entity_family
EXTRN	?overload_invalid_int_type_message@@3PBDB:DWORD	; overload_invalid_int_type_message
EXTRN	?fn_get_local_entity_int_value@@3PAY0BBH@P6GHPAUENTITY@@W4INT_TYPES@@@ZA:BYTE ; fn_get_local_entity_int_value
EXTRN	?first_used_entity@@3PAUENTITY@@A:DWORD		; first_used_entity
EXTRN	?group_database@@3PAUGROUP_DATA@@A:BYTE		; group_database
EXTRN	?session_entity@@3PAUENTITY@@A:DWORD		; session_entity
EXTRN	__fltused:DWORD
;	COMDAT __real@3f800000
CONST	SEGMENT
__real@3f800000 DD 03f800000r			; 1
CONST	ENDS
;	COMDAT ?__LINE__Var@?0??kill_entities_awaiting_update@@YGXXZ@4JA
_DATA	SEGMENT
?__LINE__Var@?0??kill_entities_awaiting_update@@YGXXZ@4JA DD 05d2H ; `kill_entities_awaiting_update'::`1'::__LINE__Var
_DATA	ENDS
;	COMDAT ??_C@_0BP@FPFNPDBK@this_sound_effect_creation?9?$DOen@
CONST	SEGMENT
??_C@_0BP@FPFNPDBK@this_sound_effect_creation?9?$DOen@ DB 'this_sound_eff'
	DB	'ect_creation->en', 00H			; `string'
CONST	ENDS
;	COMDAT ?__LINE__Var@?0??process_entity_sound_effect_creation@@YGXXZ@4JA
_DATA	SEGMENT
?__LINE__Var@?0??process_entity_sound_effect_creation@@YGXXZ@4JA DD 0582H ; `process_entity_sound_effect_creation'::`1'::__LINE__Var
_DATA	ENDS
;	COMDAT ??_C@_0BN@JNLNJENB@this_smoke_list_creation?9?$DOen@
CONST	SEGMENT
??_C@_0BN@JNLNJENB@this_smoke_list_creation?9?$DOen@ DB 'this_smoke_list_'
	DB	'creation->en', 00H				; `string'
CONST	ENDS
;	COMDAT ?__LINE__Var@?0??process_entity_smoke_list_creation@@YGXXZ@4JA
_DATA	SEGMENT
?__LINE__Var@?0??process_entity_smoke_list_creation@@YGXXZ@4JA DD 0558H ; `process_entity_smoke_list_creation'::`1'::__LINE__Var
_DATA	ENDS
;	COMDAT ??_C@_0DF@DFDNBLDE@get_local_entity_type?5?$CIkeysite?$CJ@
CONST	SEGMENT
??_C@_0DF@DFDNBLDE@get_local_entity_type?5?$CIkeysite?$CJ@ DB 'get_local_'
	DB	'entity_type (keysite) == ENTITY_TYPE_FORCE', 00H ; `string'
CONST	ENDS
;	COMDAT ??_C@_0DH@OIAJMANP@get_local_entity_type?5?$CIen?$CJ?5?$DN?$DN?5E@
CONST	SEGMENT
??_C@_0DH@OIAJMANP@get_local_entity_type?5?$CIen?$CJ?5?$DN?$DN?5E@ DB 'ge'
	DB	't_local_entity_type (en) == ENTITY_TYPE_SHIP_VEHICLE', 00H ; `string'
CONST	ENDS
;	COMDAT ??_C@_07EAMPMOFH@landing@
CONST	SEGMENT
??_C@_07EAMPMOFH@landing@ DB 'landing', 00H		; `string'
CONST	ENDS
;	COMDAT ?__LINE__Var@?0??repair_landing_entity_locks@@YGXW4PACK_MODES@@@Z@4JA
_DATA	SEGMENT
?__LINE__Var@?0??repair_landing_entity_locks@@YGXW4PACK_MODES@@@Z@4JA DD 0474H ; `repair_landing_entity_locks'::`1'::__LINE__Var
_DATA	ENDS
;	COMDAT ??_C@_0CJ@HIHJKMOI@first_child?9?$DOtype?5?$CB?$DN?5ENTITY_TYP@
CONST	SEGMENT
??_C@_0CJ@HIHJKMOI@first_child?9?$DOtype?5?$CB?$DN?5ENTITY_TYP@ DB 'first'
	DB	'_child->type != ENTITY_TYPE_UNKNOWN', 00H	; `string'
CONST	ENDS
;	COMDAT ?__LINE__Var@?0??process_entity_list_root_validation@@YGXXZ@4JA
_DATA	SEGMENT
?__LINE__Var@?0??process_entity_list_root_validation@@YGXXZ@4JA DD 042bH ; `process_entity_list_root_validation'::`1'::__LINE__Var
_DATA	ENDS
;	COMDAT ??_C@_0EI@FMJGFCIP@get_local_entity_child_succ?5?$CIpr@
CONST	SEGMENT
??_C@_0EI@FMJGFCIP@get_local_entity_child_succ?5?$CIpr@ DB 'get_local_ent'
	DB	'ity_child_succ (pred, this_entity_list->list_type) == NULL', 00H ; `string'
CONST	ENDS
;	COMDAT ??_C@_0CC@IKHPKHMB@pred?9?$DOtype?5?$CB?$DN?5ENTITY_TYPE_UNKNO@
CONST	SEGMENT
??_C@_0CC@IKHPKHMB@pred?9?$DOtype?5?$CB?$DN?5ENTITY_TYPE_UNKNO@ DB 'pred-'
	DB	'>type != ENTITY_TYPE_UNKNOWN', 00H		; `string'
CONST	ENDS
;	COMDAT ??_C@_0EI@FBNFEJBP@get_local_entity_child_pred?5?$CIsu@
CONST	SEGMENT
??_C@_0EI@FBNFEJBP@get_local_entity_child_pred?5?$CIsu@ DB 'get_local_ent'
	DB	'ity_child_pred (succ, this_entity_list->list_type) == NULL', 00H ; `string'
CONST	ENDS
;	COMDAT ??_C@_0CC@GNMCLEK@succ?9?$DOtype?5?$CB?$DN?5ENTITY_TYPE_UNKNO@
CONST	SEGMENT
??_C@_0CC@GNMCLEK@succ?9?$DOtype?5?$CB?$DN?5ENTITY_TYPE_UNKNO@ DB 'succ->'
	DB	'type != ENTITY_TYPE_UNKNOWN', 00H		; `string'
CONST	ENDS
;	COMDAT ??_C@_0CE@KHIDGKG@parent?9?$DOtype?5?$CB?$DN?5ENTITY_TYPE_UNK@
CONST	SEGMENT
??_C@_0CE@KHIDGKG@parent?9?$DOtype?5?$CB?$DN?5ENTITY_TYPE_UNK@ DB 'parent'
	DB	'->type != ENTITY_TYPE_UNKNOWN', 00H		; `string'
CONST	ENDS
;	COMDAT ?__LINE__Var@?0??process_entity_list_link_validation@@YGXXZ@4JA
_DATA	SEGMENT
?__LINE__Var@?0??process_entity_list_link_validation@@YGXXZ@4JA DD 0390H ; `process_entity_list_link_validation'::`1'::__LINE__Var
_DATA	ENDS
;	COMDAT ??_C@_0BA@DMECBBBD@buffer_size?5?$DO?50@
CONST	SEGMENT
??_C@_0BA@DMECBBBD@buffer_size?5?$DO?50@ DB 'buffer_size > 0', 00H ; `string'
CONST	ENDS
;	COMDAT ?__LINE__Var@?0??unpack_session@@YGHPAEHW4PACK_MODES@@@Z@4JA
_DATA	SEGMENT
?__LINE__Var@?0??unpack_session@@YGHPAEHW4PACK_MODES@@@Z@4JA DD 01f2H ; `unpack_session'::`1'::__LINE__Var
_DATA	ENDS
;	COMDAT ??_C@_0CH@MMFDPOBJ@?$CImode?5?$DO?$DN?50?$CJ?5?$CG?$CG?5?$CImode?5?$DM?5NUM_PACK@
CONST	SEGMENT
??_C@_0CH@MMFDPOBJ@?$CImode?5?$DO?$DN?50?$CJ?5?$CG?$CG?5?$CImode?5?$DM?5NUM_PACK@ DB '('
	DB	'mode >= 0) && (mode < NUM_PACK_MODES)', 00H	; `string'
CONST	ENDS
;	COMDAT ??_C@_0BB@FJJEGFI@?$CKbuffer_size?5?$DO?50@
CONST	SEGMENT
??_C@_0BB@FJJEGFI@?$CKbuffer_size?5?$DO?50@ DB '*buffer_size > 0', 00H ; `string'
CONST	ENDS
;	COMDAT ??_C@_06HOHPNJLC@buffer@
CONST	SEGMENT
??_C@_06HOHPNJLC@buffer@ DB 'buffer', 00H		; `string'
CONST	ENDS
;	COMDAT ??_C@_0EO@HOHMAODH@c?3?2users?2nhv90?2projects?2eech?2ap@
CONST	SEGMENT
??_C@_0EO@HOHMAODH@c?3?2users?2nhv90?2projects?2eech?2ap@ DB 'c:\users\nh'
	DB	'v90\projects\eech\aphavoc\source\entity\system\en_comms\en_se'
	DB	'ssn.c', 00H					; `string'
CONST	ENDS
;	COMDAT ?__LINE__Var@?0??pack_session@@YGHPAEPAHW4PACK_MODES@@@Z@4JA
_DATA	SEGMENT
?__LINE__Var@?0??pack_session@@YGHPAEPAHW4PACK_MODES@@@Z@4JA DD 0c6H ; `pack_session'::`1'::__LINE__Var
_DATA	ENDS
; Function compile flags: /Odtp /ZI
; File c:\users\nhv90\projects\eech\aphavoc\source\entity\system\en_comms\en_sessn.c
;	COMDAT ?kill_entities_awaiting_update@@YGXXZ
_TEXT	SEGMENT
tv78 = -80						; size = 4
tv91 = -76						; size = 4
tv71 = -76						; size = 4
_en$ = -8						; size = 4
_destroy_en$ = -4					; size = 4
?kill_entities_awaiting_update@@YGXXZ PROC		; kill_entities_awaiting_update, COMDAT

; 1490 : {

  00000	55		 push	 ebp
  00001	8b ec		 mov	 ebp, esp
  00003	83 ec 50	 sub	 esp, 80			; 00000050H
  00006	53		 push	 ebx
  00007	56		 push	 esi
  00008	57		 push	 edi

; 1491 : 
; 1492 : 	entity
; 1493 : 		*destroy_en,
; 1494 : 		*en;
; 1495 : 
; 1496 : 	en = get_local_entity_list ();

  00009	a1 00 00 00 00	 mov	 eax, DWORD PTR ?first_used_entity@@3PAUENTITY@@A ; first_used_entity
  0000e	89 45 f8	 mov	 DWORD PTR _en$[ebp], eax
$LN2@kill_entit:

; 1497 : 
; 1498 : 	while (en)

  00011	83 7d f8 00	 cmp	 DWORD PTR _en$[ebp], 0
  00015	0f 84 d7 00 00
	00		 je	 $LN1@kill_entit

; 1499 : 	{
; 1500 : 
; 1501 : 		destroy_en = en;

  0001b	8b 45 f8	 mov	 eax, DWORD PTR _en$[ebp]
  0001e	89 45 fc	 mov	 DWORD PTR _destroy_en$[ebp], eax

; 1502 : 
; 1503 : 		en = get_local_entity_succ (en);

  00021	8b 45 f8	 mov	 eax, DWORD PTR _en$[ebp]
  00024	8b 48 08	 mov	 ecx, DWORD PTR [eax+8]
  00027	89 4d f8	 mov	 DWORD PTR _en$[ebp], ecx

; 1504 : 
; 1505 : 		if (get_local_entity_int_value (destroy_en, INT_TYPE_KILL_NEXT_UPDATE))

  0002a	83 7d fc 00	 cmp	 DWORD PTR _destroy_en$[ebp], 0
  0002e	74 0a		 je	 SHORT $LN6@kill_entit
  00030	8b 45 fc	 mov	 eax, DWORD PTR _destroy_en$[ebp]
  00033	8b 08		 mov	 ecx, DWORD PTR [eax]
  00035	89 4d b4	 mov	 DWORD PTR tv71[ebp], ecx
  00038	eb 1d		 jmp	 SHORT $LN7@kill_entit
$LN6@kill_entit:
  0003a	68 e1 05 00 00	 push	 1505			; 000005e1H
  0003f	68 00 00 00 00	 push	 OFFSET ??_C@_0EO@HOHMAODH@c?3?2users?2nhv90?2projects?2eech?2ap@
  00044	8b 15 00 00 00
	00		 mov	 edx, DWORD PTR ?null_entity_pointer_message@@3PBDB ; null_entity_pointer_message
  0004a	52		 push	 edx
  0004b	e8 00 00 00 00	 call	 ?process_assert@@YGXPBD0H@Z ; process_assert
  00050	c7 45 b4 00 00
	00 00		 mov	 DWORD PTR tv71[ebp], 0
$LN7@kill_entit:
  00057	b8 01 00 00 00	 mov	 eax, 1
  0005c	85 c0		 test	 eax, eax
  0005e	74 09		 je	 SHORT $LN8@kill_entit
  00060	c7 45 b0 71 00
	00 00		 mov	 DWORD PTR tv78[ebp], 113 ; 00000071H
  00067	eb 1d		 jmp	 SHORT $LN9@kill_entit
$LN8@kill_entit:
  00069	68 e1 05 00 00	 push	 1505			; 000005e1H
  0006e	68 00 00 00 00	 push	 OFFSET ??_C@_0EO@HOHMAODH@c?3?2users?2nhv90?2projects?2eech?2ap@
  00073	8b 0d 00 00 00
	00		 mov	 ecx, DWORD PTR ?overload_invalid_int_type_message@@3PBDB ; overload_invalid_int_type_message
  00079	51		 push	 ecx
  0007a	e8 00 00 00 00	 call	 ?process_assert@@YGXPBD0H@Z ; process_assert
  0007f	c7 45 b0 00 00
	00 00		 mov	 DWORD PTR tv78[ebp], 0
$LN9@kill_entit:
  00086	6a 71		 push	 113			; 00000071H
  00088	8b 55 fc	 mov	 edx, DWORD PTR _destroy_en$[ebp]
  0008b	52		 push	 edx
  0008c	69 45 b4 5c 04
	00 00		 imul	 eax, DWORD PTR tv71[ebp], 1116
  00093	8b 4d b0	 mov	 ecx, DWORD PTR tv78[ebp]
  00096	8b 94 88 00 00
	00 00		 mov	 edx, DWORD PTR ?fn_get_local_entity_int_value@@3PAY0BBH@P6GHPAUENTITY@@W4INT_TYPES@@@ZA[eax+ecx*4]
  0009d	ff d2		 call	 edx
  0009f	85 c0		 test	 eax, eax
  000a1	74 4a		 je	 SHORT $LN4@kill_entit

; 1506 : 		{
; 1507 : 
; 1508 : 			destroy_client_server_entity_family (destroy_en);

  000a3	83 7d fc 00	 cmp	 DWORD PTR _destroy_en$[ebp], 0
  000a7	74 0a		 je	 SHORT $LN10@kill_entit
  000a9	8b 45 fc	 mov	 eax, DWORD PTR _destroy_en$[ebp]
  000ac	8b 08		 mov	 ecx, DWORD PTR [eax]
  000ae	89 4d b4	 mov	 DWORD PTR tv91[ebp], ecx
  000b1	eb 21		 jmp	 SHORT $LN11@kill_entit
$LN10@kill_entit:
  000b3	8b 15 00 00 00
	00		 mov	 edx, DWORD PTR ?__LINE__Var@?0??kill_entities_awaiting_update@@YGXXZ@4JA
  000b9	83 c2 12	 add	 edx, 18			; 00000012H
  000bc	52		 push	 edx
  000bd	68 00 00 00 00	 push	 OFFSET ??_C@_0EO@HOHMAODH@c?3?2users?2nhv90?2projects?2eech?2ap@
  000c2	a1 00 00 00 00	 mov	 eax, DWORD PTR ?null_entity_pointer_message@@3PBDB ; null_entity_pointer_message
  000c7	50		 push	 eax
  000c8	e8 00 00 00 00	 call	 ?process_assert@@YGXPBD0H@Z ; process_assert
  000cd	c7 45 b4 00 00
	00 00		 mov	 DWORD PTR tv91[ebp], 0
$LN11@kill_entit:
  000d4	8b 4d fc	 mov	 ecx, DWORD PTR _destroy_en$[ebp]
  000d7	51		 push	 ecx
  000d8	8b 15 00 00 00
	00		 mov	 edx, DWORD PTR ?system_comms_model@@3W4COMMS_MODEL_TYPES@@A ; system_comms_model
  000de	c1 e2 02	 shl	 edx, 2
  000e1	8b 45 b4	 mov	 eax, DWORD PTR tv91[ebp]
  000e4	8b 8c c2 00 00
	00 00		 mov	 ecx, DWORD PTR ?fn_destroy_client_server_entity_family@@3PAY01P6GXPAUENTITY@@@ZA[edx+eax*8]
  000eb	ff d1		 call	 ecx
$LN4@kill_entit:

; 1509 : 		}
; 1510 : 	}

  000ed	e9 1f ff ff ff	 jmp	 $LN2@kill_entit
$LN1@kill_entit:

; 1511 : }

  000f2	5f		 pop	 edi
  000f3	5e		 pop	 esi
  000f4	5b		 pop	 ebx
  000f5	8b e5		 mov	 esp, ebp
  000f7	5d		 pop	 ebp
  000f8	c3		 ret	 0
?kill_entities_awaiting_update@@YGXXZ ENDP		; kill_entities_awaiting_update
_TEXT	ENDS
; Function compile flags: /Odtp /ZI
; File c:\users\nhv90\projects\eech\aphavoc\source\entity\system\en_comms\en_sessn.c
;	COMDAT ?process_entity_sound_effect_creation@@YGXXZ
_TEXT	SEGMENT
_sample_index$ = -8					; size = 4
_this_sound_effect_creation$ = -4			; size = 4
?process_entity_sound_effect_creation@@YGXXZ PROC	; process_entity_sound_effect_creation, COMDAT

; 1410 : {

  00000	55		 push	 ebp
  00001	8b ec		 mov	 ebp, esp
  00003	83 ec 48	 sub	 esp, 72			; 00000048H
  00006	53		 push	 ebx
  00007	56		 push	 esi
  00008	57		 push	 edi
$LN2@process_en:

; 1411 : 	
; 1412 : 	comms_entity_sound_effect_creation_type
; 1413 : 		*this_sound_effect_creation;
; 1414 : 
; 1415 : 	int
; 1416 : 		sample_index;
; 1417 : 
; 1418 : 	while (entity_sound_effect_creation)

  00009	83 3d 00 00 00
	00 00		 cmp	 DWORD PTR ?entity_sound_effect_creation@@3PAUCOMMS_ENTITY_SOUND_EFFECT_CREATION_TYPE@@A, 0 ; entity_sound_effect_creation
  00010	0f 84 9e 00 00
	00		 je	 $LN3@process_en

; 1419 : 	{
; 1420 : 
; 1421 : 		this_sound_effect_creation = entity_sound_effect_creation;

  00016	a1 00 00 00 00	 mov	 eax, DWORD PTR ?entity_sound_effect_creation@@3PAUCOMMS_ENTITY_SOUND_EFFECT_CREATION_TYPE@@A ; entity_sound_effect_creation
  0001b	89 45 fc	 mov	 DWORD PTR _this_sound_effect_creation$[ebp], eax

; 1422 : 
; 1423 : 		ASSERT (this_sound_effect_creation->en);

  0001e	8b 45 fc	 mov	 eax, DWORD PTR _this_sound_effect_creation$[ebp]
  00021	83 38 00	 cmp	 DWORD PTR [eax], 0
  00024	75 18		 jne	 SHORT $LN4@process_en
  00026	a1 00 00 00 00	 mov	 eax, DWORD PTR ?__LINE__Var@?0??process_entity_sound_effect_creation@@YGXXZ@4JA
  0002b	83 c0 0d	 add	 eax, 13			; 0000000dH
  0002e	50		 push	 eax
  0002f	68 00 00 00 00	 push	 OFFSET ??_C@_0EO@HOHMAODH@c?3?2users?2nhv90?2projects?2eech?2ap@
  00034	68 00 00 00 00	 push	 OFFSET ??_C@_0BP@FPFNPDBK@this_sound_effect_creation?9?$DOen@
  00039	e8 00 00 00 00	 call	 ?process_assert@@YGXPBD0H@Z ; process_assert
$LN4@process_en:

; 1424 : 
; 1425 : 		//
; 1426 : 		// create sound effect
; 1427 : 		//
; 1428 : 		
; 1429 : 		sample_index = this_sound_effect_creation->sample_index;

  0003e	8b 45 fc	 mov	 eax, DWORD PTR _this_sound_effect_creation$[ebp]
  00041	8b 48 14	 mov	 ecx, DWORD PTR [eax+20]
  00044	89 4d f8	 mov	 DWORD PTR _sample_index$[ebp], ecx

; 1430 : 
; 1431 : 		create_local_sound_effect_entity

  00047	8d 45 f8	 lea	 eax, DWORD PTR _sample_index$[ebp]
  0004a	50		 push	 eax
  0004b	6a 01		 push	 1
  0004d	6a 01		 push	 1
  0004f	8b 4d fc	 mov	 ecx, DWORD PTR _this_sound_effect_creation$[ebp]
  00052	8b 51 0c	 mov	 edx, DWORD PTR [ecx+12]
  00055	52		 push	 edx
  00056	51		 push	 ecx
  00057	f3 0f 10 05 00
	00 00 00	 movss	 xmm0, DWORD PTR __real@3f800000
  0005f	f3 0f 11 04 24	 movss	 DWORD PTR [esp], xmm0
  00064	51		 push	 ecx
  00065	f3 0f 10 05 00
	00 00 00	 movss	 xmm0, DWORD PTR __real@3f800000
  0006d	f3 0f 11 04 24	 movss	 DWORD PTR [esp], xmm0
  00072	6a 00		 push	 0
  00074	6a 00		 push	 0
  00076	6a 00		 push	 0
  00078	8b 45 fc	 mov	 eax, DWORD PTR _this_sound_effect_creation$[ebp]
  0007b	8b 48 04	 mov	 ecx, DWORD PTR [eax+4]
  0007e	51		 push	 ecx
  0007f	8b 55 fc	 mov	 edx, DWORD PTR _this_sound_effect_creation$[ebp]
  00082	8b 42 08	 mov	 eax, DWORD PTR [edx+8]
  00085	50		 push	 eax
  00086	8b 4d fc	 mov	 ecx, DWORD PTR _this_sound_effect_creation$[ebp]
  00089	8b 11		 mov	 edx, DWORD PTR [ecx]
  0008b	52		 push	 edx
  0008c	8b 45 fc	 mov	 eax, DWORD PTR _this_sound_effect_creation$[ebp]
  0008f	8b 48 10	 mov	 ecx, DWORD PTR [eax+16]
  00092	51		 push	 ecx
  00093	e8 00 00 00 00	 call	 ?create_local_sound_effect_entity@@YGPAUENTITY@@HPAU1@W4ENTITY_SIDES@@HW4SOUND_CHANNEL_TYPES@@W4SOUND_LOCALITY_TYPES@@PAUVEC3D@@MMHHHPAH@Z ; create_local_sound_effect_entity

; 1432 : 		(
; 1433 : 			this_sound_effect_creation->entity_index,
; 1434 : 			this_sound_effect_creation->en,			// parent
; 1435 : 			(entity_sides) this_sound_effect_creation->side,
; 1436 : 			this_sound_effect_creation->sub_type,
; 1437 : 			SOUND_CHANNEL_SOUND_EFFECT,				// only sound effects are done this way
; 1438 : 			SOUND_LOCALITY_ALL,
; 1439 : 			NULL,												// position
; 1440 : 			1.0,												// amplification
; 1441 : 			1.0, //Werewolf pitch
; 1442 : 			this_sound_effect_creation->valid,		// valid sound effect
; 1443 : 			TRUE,												// looping
; 1444 : 			1,													// sample count
; 1445 : 			&sample_index									// sample index list
; 1446 : 		);
; 1447 : 
; 1448 : 		// JB 030311 From Gotcha (Victor Jetten)
; 1449 : 		// Bug makes it impossible to load saved campaigns with builds made with VC/gcc or anything that is not watcom.
; 1450 : 		// Swap the followting two lines to fix exception
; 1451 : 
; 1452 : 		entity_sound_effect_creation = entity_sound_effect_creation->next;

  00098	a1 00 00 00 00	 mov	 eax, DWORD PTR ?entity_sound_effect_creation@@3PAUCOMMS_ENTITY_SOUND_EFFECT_CREATION_TYPE@@A ; entity_sound_effect_creation
  0009d	8b 48 18	 mov	 ecx, DWORD PTR [eax+24]
  000a0	89 0d 00 00 00
	00		 mov	 DWORD PTR ?entity_sound_effect_creation@@3PAUCOMMS_ENTITY_SOUND_EFFECT_CREATION_TYPE@@A, ecx ; entity_sound_effect_creation

; 1453 : 
; 1454 : 		free_mem (this_sound_effect_creation);

  000a6	8b 45 fc	 mov	 eax, DWORD PTR _this_sound_effect_creation$[ebp]
  000a9	50		 push	 eax
  000aa	e8 00 00 00 00	 call	 ?free_mem@@YGXPAX@Z	; free_mem

; 1455 : 	}

  000af	e9 55 ff ff ff	 jmp	 $LN2@process_en
$LN3@process_en:

; 1456 : }

  000b4	5f		 pop	 edi
  000b5	5e		 pop	 esi
  000b6	5b		 pop	 ebx
  000b7	8b e5		 mov	 esp, ebp
  000b9	5d		 pop	 ebp
  000ba	c3		 ret	 0
?process_entity_sound_effect_creation@@YGXXZ ENDP	; process_entity_sound_effect_creation
_TEXT	ENDS
; Function compile flags: /Odtp /ZI
; File c:\users\nhv90\projects\eech\aphavoc\source\entity\system\en_comms\en_sessn.c
;	COMDAT ?process_entity_smoke_list_creation@@YGXXZ
_TEXT	SEGMENT
tv93 = -76						; size = 4
tv86 = -72						; size = 4
_this_smoke_list_creation$ = -4				; size = 4
?process_entity_smoke_list_creation@@YGXXZ PROC		; process_entity_smoke_list_creation, COMDAT

; 1368 : {

  00000	55		 push	 ebp
  00001	8b ec		 mov	 ebp, esp
  00003	83 ec 4c	 sub	 esp, 76			; 0000004cH
  00006	53		 push	 ebx
  00007	56		 push	 esi
  00008	57		 push	 edi
$LN2@process_en:

; 1369 : 	
; 1370 : 	comms_entity_smoke_list_creation_type
; 1371 : 		*this_smoke_list_creation;
; 1372 : 
; 1373 : 	while (entity_smoke_list_creation)

  00009	83 3d 00 00 00
	00 00		 cmp	 DWORD PTR ?entity_smoke_list_creation@@3PAUCOMMS_ENTITY_SMOKE_LIST_CREATION_TYPE@@A, 0 ; entity_smoke_list_creation
  00010	0f 84 18 01 00
	00		 je	 $LN3@process_en

; 1374 : 	{
; 1375 : 
; 1376 : 		this_smoke_list_creation = entity_smoke_list_creation;

  00016	a1 00 00 00 00	 mov	 eax, DWORD PTR ?entity_smoke_list_creation@@3PAUCOMMS_ENTITY_SMOKE_LIST_CREATION_TYPE@@A ; entity_smoke_list_creation
  0001b	89 45 fc	 mov	 DWORD PTR _this_smoke_list_creation$[ebp], eax

; 1377 : 
; 1378 : 		ASSERT (this_smoke_list_creation->en);

  0001e	8b 45 fc	 mov	 eax, DWORD PTR _this_smoke_list_creation$[ebp]
  00021	83 38 00	 cmp	 DWORD PTR [eax], 0
  00024	75 18		 jne	 SHORT $LN4@process_en
  00026	a1 00 00 00 00	 mov	 eax, DWORD PTR ?__LINE__Var@?0??process_entity_smoke_list_creation@@YGXXZ@4JA
  0002b	83 c0 0a	 add	 eax, 10			; 0000000aH
  0002e	50		 push	 eax
  0002f	68 00 00 00 00	 push	 OFFSET ??_C@_0EO@HOHMAODH@c?3?2users?2nhv90?2projects?2eech?2ap@
  00034	68 00 00 00 00	 push	 OFFSET ??_C@_0BN@JNLNJENB@this_smoke_list_creation?9?$DOen@
  00039	e8 00 00 00 00	 call	 ?process_assert@@YGXPBD0H@Z ; process_assert
$LN4@process_en:

; 1379 : 
; 1380 : 		attach_local_meta_smoke_lists_to_object (this_smoke_list_creation->en,

  0003e	8b 45 fc	 mov	 eax, DWORD PTR _this_smoke_list_creation$[ebp]
  00041	8b 48 10	 mov	 ecx, DWORD PTR [eax+16]
  00044	51		 push	 ecx
  00045	8b 55 fc	 mov	 edx, DWORD PTR _this_smoke_list_creation$[ebp]
  00048	8b 42 08	 mov	 eax, DWORD PTR [edx+8]
  0004b	50		 push	 eax
  0004c	8b 4d fc	 mov	 ecx, DWORD PTR _this_smoke_list_creation$[ebp]
  0004f	8b 51 04	 mov	 edx, DWORD PTR [ecx+4]
  00052	52		 push	 edx
  00053	8b 45 fc	 mov	 eax, DWORD PTR _this_smoke_list_creation$[ebp]
  00056	8b 08		 mov	 ecx, DWORD PTR [eax]
  00058	51		 push	 ecx
  00059	e8 00 00 00 00	 call	 ?attach_local_meta_smoke_lists_to_object@@YGHPAUENTITY@@W4META_SMOKE_LIST_TYPES@@HPAH@Z ; attach_local_meta_smoke_lists_to_object

; 1381 : 																this_smoke_list_creation->meta_smoke_type,
; 1382 : 																this_smoke_list_creation->attachment_point,
; 1383 : 																this_smoke_list_creation->entity_index_list);
; 1384 : 
; 1385 : 		if (get_local_entity_int_value (this_smoke_list_creation->en, INT_TYPE_MOBILE_MOVING))

  0005e	8b 45 fc	 mov	 eax, DWORD PTR _this_smoke_list_creation$[ebp]
  00061	83 38 00	 cmp	 DWORD PTR [eax], 0
  00064	74 0c		 je	 SHORT $LN8@process_en
  00066	8b 4d fc	 mov	 ecx, DWORD PTR _this_smoke_list_creation$[ebp]
  00069	8b 11		 mov	 edx, DWORD PTR [ecx]
  0006b	8b 02		 mov	 eax, DWORD PTR [edx]
  0006d	89 45 b8	 mov	 DWORD PTR tv86[ebp], eax
  00070	eb 1d		 jmp	 SHORT $LN9@process_en
$LN8@process_en:
  00072	68 69 05 00 00	 push	 1385			; 00000569H
  00077	68 00 00 00 00	 push	 OFFSET ??_C@_0EO@HOHMAODH@c?3?2users?2nhv90?2projects?2eech?2ap@
  0007c	8b 0d 00 00 00
	00		 mov	 ecx, DWORD PTR ?null_entity_pointer_message@@3PBDB ; null_entity_pointer_message
  00082	51		 push	 ecx
  00083	e8 00 00 00 00	 call	 ?process_assert@@YGXPBD0H@Z ; process_assert
  00088	c7 45 b8 00 00
	00 00		 mov	 DWORD PTR tv86[ebp], 0
$LN9@process_en:
  0008f	ba 01 00 00 00	 mov	 edx, 1
  00094	85 d2		 test	 edx, edx
  00096	74 09		 je	 SHORT $LN10@process_en
  00098	c7 45 b4 8e 00
	00 00		 mov	 DWORD PTR tv93[ebp], 142 ; 0000008eH
  0009f	eb 1c		 jmp	 SHORT $LN11@process_en
$LN10@process_en:
  000a1	68 69 05 00 00	 push	 1385			; 00000569H
  000a6	68 00 00 00 00	 push	 OFFSET ??_C@_0EO@HOHMAODH@c?3?2users?2nhv90?2projects?2eech?2ap@
  000ab	a1 00 00 00 00	 mov	 eax, DWORD PTR ?overload_invalid_int_type_message@@3PBDB ; overload_invalid_int_type_message
  000b0	50		 push	 eax
  000b1	e8 00 00 00 00	 call	 ?process_assert@@YGXPBD0H@Z ; process_assert
  000b6	c7 45 b4 00 00
	00 00		 mov	 DWORD PTR tv93[ebp], 0
$LN11@process_en:
  000bd	68 8e 00 00 00	 push	 142			; 0000008eH
  000c2	8b 4d fc	 mov	 ecx, DWORD PTR _this_smoke_list_creation$[ebp]
  000c5	8b 11		 mov	 edx, DWORD PTR [ecx]
  000c7	52		 push	 edx
  000c8	69 45 b8 5c 04
	00 00		 imul	 eax, DWORD PTR tv86[ebp], 1116
  000cf	8b 4d b4	 mov	 ecx, DWORD PTR tv93[ebp]
  000d2	8b 94 88 00 00
	00 00		 mov	 edx, DWORD PTR ?fn_get_local_entity_int_value@@3PAY0BBH@P6GHPAUENTITY@@W4INT_TYPES@@@ZA[eax+ecx*4]
  000d9	ff d2		 call	 edx
  000db	85 c0		 test	 eax, eax
  000dd	74 1d		 je	 SHORT $LN5@process_en

; 1386 : 		{
; 1387 : 
; 1388 : 			set_infinite_smoke_list_generating_state (this_smoke_list_creation->en, ENTITY_SUB_TYPE_EFFECT_SMOKE_LIST_VEHICLE_WAKE, INFINITE_SMOKE_ON);

  000df	51		 push	 ecx
  000e0	f3 0f 10 05 00
	00 00 00	 movss	 xmm0, DWORD PTR __real@3f800000
  000e8	f3 0f 11 04 24	 movss	 DWORD PTR [esp], xmm0
  000ed	6a 09		 push	 9
  000ef	8b 45 fc	 mov	 eax, DWORD PTR _this_smoke_list_creation$[ebp]
  000f2	8b 08		 mov	 ecx, DWORD PTR [eax]
  000f4	51		 push	 ecx
  000f5	e8 00 00 00 00	 call	 ?set_infinite_smoke_list_generating_state@@YGHPAUENTITY@@HM@Z ; set_infinite_smoke_list_generating_state

; 1389 : 		}
; 1390 : 		else

  000fa	eb 16		 jmp	 SHORT $LN6@process_en
$LN5@process_en:

; 1391 : 		{
; 1392 : 			set_infinite_smoke_list_generating_state (this_smoke_list_creation->en, ENTITY_SUB_TYPE_EFFECT_SMOKE_LIST_VEHICLE_WAKE, INFINITE_SMOKE_OFF);

  000fc	51		 push	 ecx
  000fd	0f 57 c0	 xorps	 xmm0, xmm0
  00100	f3 0f 11 04 24	 movss	 DWORD PTR [esp], xmm0
  00105	6a 09		 push	 9
  00107	8b 45 fc	 mov	 eax, DWORD PTR _this_smoke_list_creation$[ebp]
  0010a	8b 08		 mov	 ecx, DWORD PTR [eax]
  0010c	51		 push	 ecx
  0010d	e8 00 00 00 00	 call	 ?set_infinite_smoke_list_generating_state@@YGHPAUENTITY@@HM@Z ; set_infinite_smoke_list_generating_state
$LN6@process_en:

; 1393 : 		}
; 1394 : 
; 1395 : 		// JB 030311 From Gotcha (Victor Jetten)
; 1396 : 		// Bug makes it impossible to load saved campaigns with builds made with VC/gcc or anything that is not watcom.
; 1397 : 		// Swap the followting two lines to fix exception
; 1398 : 
; 1399 : 		entity_smoke_list_creation = entity_smoke_list_creation->next;

  00112	a1 00 00 00 00	 mov	 eax, DWORD PTR ?entity_smoke_list_creation@@3PAUCOMMS_ENTITY_SMOKE_LIST_CREATION_TYPE@@A ; entity_smoke_list_creation
  00117	8b 48 14	 mov	 ecx, DWORD PTR [eax+20]
  0011a	89 0d 00 00 00
	00		 mov	 DWORD PTR ?entity_smoke_list_creation@@3PAUCOMMS_ENTITY_SMOKE_LIST_CREATION_TYPE@@A, ecx ; entity_smoke_list_creation

; 1400 : 
; 1401 : 		free_mem (this_smoke_list_creation);

  00120	8b 45 fc	 mov	 eax, DWORD PTR _this_smoke_list_creation$[ebp]
  00123	50		 push	 eax
  00124	e8 00 00 00 00	 call	 ?free_mem@@YGXPAX@Z	; free_mem

; 1402 : 	}

  00129	e9 db fe ff ff	 jmp	 $LN2@process_en
$LN3@process_en:

; 1403 : }

  0012e	5f		 pop	 edi
  0012f	5e		 pop	 esi
  00130	5b		 pop	 ebx
  00131	8b e5		 mov	 esp, ebp
  00133	5d		 pop	 ebp
  00134	c3		 ret	 0
?process_entity_smoke_list_creation@@YGXXZ ENDP		; process_entity_smoke_list_creation
_TEXT	ENDS
; Function compile flags: /Odtp /ZI
; File c:\users\nhv90\projects\eech\aphavoc\source\entity\system\en_comms\en_sessn.c
;	COMDAT ?process_entity_list_root_validation@@YGXXZ
_TEXT	SEGMENT
tv197 = -84						; size = 4
tv171 = -84						; size = 4
tv149 = -84						; size = 4
tv85 = -84						; size = 4
tv185 = -80						; size = 4
tv160 = -80						; size = 4
tv137 = -80						; size = 4
tv73 = -80						; size = 4
_this_entity_list$ = -12				; size = 4
_first_child$ = -8					; size = 4
_en$ = -4						; size = 4
?process_entity_list_root_validation@@YGXXZ PROC	; process_entity_list_root_validation, COMDAT

; 1067 : {

  00000	55		 push	 ebp
  00001	8b ec		 mov	 ebp, esp
  00003	83 ec 54	 sub	 esp, 84			; 00000054H
  00006	53		 push	 ebx
  00007	56		 push	 esi
  00008	57		 push	 edi
$LN2@process_en:

; 1068 : 
; 1069 : 	entity
; 1070 : 		*en,
; 1071 : 		*first_child;
; 1072 : 
; 1073 : 	comms_entity_list_validation_type
; 1074 : 		*this_entity_list;
; 1075 : 
; 1076 : 	while (entity_list_root_validation)

  00009	83 3d 00 00 00
	00 00		 cmp	 DWORD PTR ?entity_list_root_validation@@3PAUCOMMS_ENTITY_LIST_VALIDATION_TYPE@@A, 0 ; entity_list_root_validation
  00010	0f 84 93 02 00
	00		 je	 $LN1@process_en

; 1077 : 	{
; 1078 : 
; 1079 : 		this_entity_list = entity_list_root_validation;

  00016	a1 00 00 00 00	 mov	 eax, DWORD PTR ?entity_list_root_validation@@3PAUCOMMS_ENTITY_LIST_VALIDATION_TYPE@@A ; entity_list_root_validation
  0001b	89 45 f4	 mov	 DWORD PTR _this_entity_list$[ebp], eax

; 1080 : 
; 1081 : 		entity_list_root_validation = entity_list_root_validation->next;

  0001e	a1 00 00 00 00	 mov	 eax, DWORD PTR ?entity_list_root_validation@@3PAUCOMMS_ENTITY_LIST_VALIDATION_TYPE@@A ; entity_list_root_validation
  00023	8b 48 08	 mov	 ecx, DWORD PTR [eax+8]
  00026	89 0d 00 00 00
	00		 mov	 DWORD PTR ?entity_list_root_validation@@3PAUCOMMS_ENTITY_LIST_VALIDATION_TYPE@@A, ecx ; entity_list_root_validation

; 1082 : 
; 1083 : 		en = this_entity_list->en;

  0002c	8b 45 f4	 mov	 eax, DWORD PTR _this_entity_list$[ebp]
  0002f	8b 08		 mov	 ecx, DWORD PTR [eax]
  00031	89 4d fc	 mov	 DWORD PTR _en$[ebp], ecx

; 1084 : 
; 1085 : 		first_child = get_local_entity_first_child (en, this_entity_list->list_type);

  00034	83 7d fc 00	 cmp	 DWORD PTR _en$[ebp], 0
  00038	74 0a		 je	 SHORT $LN9@process_en
  0003a	8b 45 fc	 mov	 eax, DWORD PTR _en$[ebp]
  0003d	8b 08		 mov	 ecx, DWORD PTR [eax]
  0003f	89 4d b0	 mov	 DWORD PTR tv73[ebp], ecx
  00042	eb 21		 jmp	 SHORT $LN10@process_en
$LN9@process_en:
  00044	8b 15 00 00 00
	00		 mov	 edx, DWORD PTR ?__LINE__Var@?0??process_entity_list_root_validation@@YGXXZ@4JA
  0004a	83 c2 12	 add	 edx, 18			; 00000012H
  0004d	52		 push	 edx
  0004e	68 00 00 00 00	 push	 OFFSET ??_C@_0EO@HOHMAODH@c?3?2users?2nhv90?2projects?2eech?2ap@
  00053	a1 00 00 00 00	 mov	 eax, DWORD PTR ?null_entity_pointer_message@@3PBDB ; null_entity_pointer_message
  00058	50		 push	 eax
  00059	e8 00 00 00 00	 call	 ?process_assert@@YGXPBD0H@Z ; process_assert
  0005e	c7 45 b0 00 00
	00 00		 mov	 DWORD PTR tv73[ebp], 0
$LN10@process_en:
  00065	8b 4d f4	 mov	 ecx, DWORD PTR _this_entity_list$[ebp]
  00068	83 79 04 00	 cmp	 DWORD PTR [ecx+4], 0
  0006c	7c 14		 jl	 SHORT $LN11@process_en
  0006e	8b 55 f4	 mov	 edx, DWORD PTR _this_entity_list$[ebp]
  00071	83 7a 04 2d	 cmp	 DWORD PTR [edx+4], 45	; 0000002dH
  00075	7d 0b		 jge	 SHORT $LN11@process_en
  00077	8b 45 f4	 mov	 eax, DWORD PTR _this_entity_list$[ebp]
  0007a	8b 48 04	 mov	 ecx, DWORD PTR [eax+4]
  0007d	89 4d ac	 mov	 DWORD PTR tv85[ebp], ecx
  00080	eb 21		 jmp	 SHORT $LN12@process_en
$LN11@process_en:
  00082	8b 15 00 00 00
	00		 mov	 edx, DWORD PTR ?__LINE__Var@?0??process_entity_list_root_validation@@YGXXZ@4JA
  00088	83 c2 12	 add	 edx, 18			; 00000012H
  0008b	52		 push	 edx
  0008c	68 00 00 00 00	 push	 OFFSET ??_C@_0EO@HOHMAODH@c?3?2users?2nhv90?2projects?2eech?2ap@
  00091	a1 00 00 00 00	 mov	 eax, DWORD PTR ?overload_invalid_list_type_message@@3PBDB ; overload_invalid_list_type_message
  00096	50		 push	 eax
  00097	e8 00 00 00 00	 call	 ?process_assert@@YGXPBD0H@Z ; process_assert
  0009c	c7 45 ac 00 00
	00 00		 mov	 DWORD PTR tv85[ebp], 0
$LN12@process_en:
  000a3	8b 4d f4	 mov	 ecx, DWORD PTR _this_entity_list$[ebp]
  000a6	8b 51 04	 mov	 edx, DWORD PTR [ecx+4]
  000a9	52		 push	 edx
  000aa	8b 45 fc	 mov	 eax, DWORD PTR _en$[ebp]
  000ad	50		 push	 eax
  000ae	69 4d b0 b4 00
	00 00		 imul	 ecx, DWORD PTR tv73[ebp], 180
  000b5	8b 55 ac	 mov	 edx, DWORD PTR tv85[ebp]
  000b8	8b 84 91 00 00
	00 00		 mov	 eax, DWORD PTR ?fn_get_local_entity_first_child@@3PAY0CN@P6GPAUENTITY@@PAU1@W4LIST_TYPES@@@ZA[ecx+edx*4]
  000bf	ff d0		 call	 eax
  000c1	89 45 f8	 mov	 DWORD PTR _first_child$[ebp], eax

; 1086 : 
; 1087 : 		/////////////////////////////////////////////////////////////////
; 1088 : 		// if NULL its been removed from list, skip to next
; 1089 : 		if (!first_child)

  000c4	83 7d f8 00	 cmp	 DWORD PTR _first_child$[ebp], 0
  000c8	75 05		 jne	 SHORT $LN4@process_en

; 1090 : 		{
; 1091 : 
; 1092 : 			#if DEBUG_MODULE
; 1093 : 
; 1094 : 			debug_log ("EN_SESSN: LIST_REPAIRING: can't repair en %s (%d), list %s", get_local_entity_type_name (en), get_local_entity_index (en), get_list_type_name (this_entity_list->list_type));
; 1095 : 
; 1096 : 			#endif
; 1097 : 
; 1098 : 			continue;

  000ca	e9 3a ff ff ff	 jmp	 $LN2@process_en
$LN4@process_en:

; 1099 : 		}
; 1100 : 		/////////////////////////////////////////////////////////////////
; 1101 : 
; 1102 : 		ASSERT (first_child->type != ENTITY_TYPE_UNKNOWN);

  000cf	8b 45 f8	 mov	 eax, DWORD PTR _first_child$[ebp]
  000d2	83 38 00	 cmp	 DWORD PTR [eax], 0
  000d5	75 18		 jne	 SHORT $LN5@process_en
  000d7	a1 00 00 00 00	 mov	 eax, DWORD PTR ?__LINE__Var@?0??process_entity_list_root_validation@@YGXXZ@4JA
  000dc	83 c0 23	 add	 eax, 35			; 00000023H
  000df	50		 push	 eax
  000e0	68 00 00 00 00	 push	 OFFSET ??_C@_0EO@HOHMAODH@c?3?2users?2nhv90?2projects?2eech?2ap@
  000e5	68 00 00 00 00	 push	 OFFSET ??_C@_0CJ@HIHJKMOI@first_child?9?$DOtype?5?$CB?$DN?5ENTITY_TYP@
  000ea	e8 00 00 00 00	 call	 ?process_assert@@YGXPBD0H@Z ; process_assert
$LN5@process_en:

; 1103 : 
; 1104 : 		/////////////////////////////////////////////////////////////////
; 1105 : 		// check valid list type for first_child
; 1106 : 		get_local_entity_parent (first_child, this_entity_list->list_type);

  000ef	83 7d f8 00	 cmp	 DWORD PTR _first_child$[ebp], 0
  000f3	74 0a		 je	 SHORT $LN13@process_en
  000f5	8b 45 f8	 mov	 eax, DWORD PTR _first_child$[ebp]
  000f8	8b 08		 mov	 ecx, DWORD PTR [eax]
  000fa	89 4d b0	 mov	 DWORD PTR tv137[ebp], ecx
  000fd	eb 21		 jmp	 SHORT $LN14@process_en
$LN13@process_en:
  000ff	8b 15 00 00 00
	00		 mov	 edx, DWORD PTR ?__LINE__Var@?0??process_entity_list_root_validation@@YGXXZ@4JA
  00105	83 c2 27	 add	 edx, 39			; 00000027H
  00108	52		 push	 edx
  00109	68 00 00 00 00	 push	 OFFSET ??_C@_0EO@HOHMAODH@c?3?2users?2nhv90?2projects?2eech?2ap@
  0010e	a1 00 00 00 00	 mov	 eax, DWORD PTR ?null_entity_pointer_message@@3PBDB ; null_entity_pointer_message
  00113	50		 push	 eax
  00114	e8 00 00 00 00	 call	 ?process_assert@@YGXPBD0H@Z ; process_assert
  00119	c7 45 b0 00 00
	00 00		 mov	 DWORD PTR tv137[ebp], 0
$LN14@process_en:
  00120	8b 4d f4	 mov	 ecx, DWORD PTR _this_entity_list$[ebp]
  00123	83 79 04 00	 cmp	 DWORD PTR [ecx+4], 0
  00127	7c 14		 jl	 SHORT $LN15@process_en
  00129	8b 55 f4	 mov	 edx, DWORD PTR _this_entity_list$[ebp]
  0012c	83 7a 04 2d	 cmp	 DWORD PTR [edx+4], 45	; 0000002dH
  00130	7d 0b		 jge	 SHORT $LN15@process_en
  00132	8b 45 f4	 mov	 eax, DWORD PTR _this_entity_list$[ebp]
  00135	8b 48 04	 mov	 ecx, DWORD PTR [eax+4]
  00138	89 4d ac	 mov	 DWORD PTR tv149[ebp], ecx
  0013b	eb 21		 jmp	 SHORT $LN16@process_en
$LN15@process_en:
  0013d	8b 15 00 00 00
	00		 mov	 edx, DWORD PTR ?__LINE__Var@?0??process_entity_list_root_validation@@YGXXZ@4JA
  00143	83 c2 27	 add	 edx, 39			; 00000027H
  00146	52		 push	 edx
  00147	68 00 00 00 00	 push	 OFFSET ??_C@_0EO@HOHMAODH@c?3?2users?2nhv90?2projects?2eech?2ap@
  0014c	a1 00 00 00 00	 mov	 eax, DWORD PTR ?overload_invalid_list_type_message@@3PBDB ; overload_invalid_list_type_message
  00151	50		 push	 eax
  00152	e8 00 00 00 00	 call	 ?process_assert@@YGXPBD0H@Z ; process_assert
  00157	c7 45 ac 00 00
	00 00		 mov	 DWORD PTR tv149[ebp], 0
$LN16@process_en:
  0015e	8b 4d f4	 mov	 ecx, DWORD PTR _this_entity_list$[ebp]
  00161	8b 51 04	 mov	 edx, DWORD PTR [ecx+4]
  00164	52		 push	 edx
  00165	8b 45 f8	 mov	 eax, DWORD PTR _first_child$[ebp]
  00168	50		 push	 eax
  00169	69 4d b0 b4 00
	00 00		 imul	 ecx, DWORD PTR tv137[ebp], 180
  00170	8b 55 ac	 mov	 edx, DWORD PTR tv149[ebp]
  00173	8b 84 91 00 00
	00 00		 mov	 eax, DWORD PTR ?fn_get_local_entity_parent@@3PAY0CN@P6GPAUENTITY@@PAU1@W4LIST_TYPES@@@ZA[ecx+edx*4]
  0017a	ff d0		 call	 eax

; 1107 : 		/////////////////////////////////////////////////////////////////
; 1108 : 
; 1109 : 		if (get_local_entity_parent (first_child, this_entity_list->list_type) != en)

  0017c	83 7d f8 00	 cmp	 DWORD PTR _first_child$[ebp], 0
  00180	74 0a		 je	 SHORT $LN17@process_en
  00182	8b 45 f8	 mov	 eax, DWORD PTR _first_child$[ebp]
  00185	8b 08		 mov	 ecx, DWORD PTR [eax]
  00187	89 4d b0	 mov	 DWORD PTR tv160[ebp], ecx
  0018a	eb 1d		 jmp	 SHORT $LN18@process_en
$LN17@process_en:
  0018c	68 55 04 00 00	 push	 1109			; 00000455H
  00191	68 00 00 00 00	 push	 OFFSET ??_C@_0EO@HOHMAODH@c?3?2users?2nhv90?2projects?2eech?2ap@
  00196	8b 15 00 00 00
	00		 mov	 edx, DWORD PTR ?null_entity_pointer_message@@3PBDB ; null_entity_pointer_message
  0019c	52		 push	 edx
  0019d	e8 00 00 00 00	 call	 ?process_assert@@YGXPBD0H@Z ; process_assert
  001a2	c7 45 b0 00 00
	00 00		 mov	 DWORD PTR tv160[ebp], 0
$LN18@process_en:
  001a9	8b 45 f4	 mov	 eax, DWORD PTR _this_entity_list$[ebp]
  001ac	83 78 04 00	 cmp	 DWORD PTR [eax+4], 0
  001b0	7c 14		 jl	 SHORT $LN19@process_en
  001b2	8b 4d f4	 mov	 ecx, DWORD PTR _this_entity_list$[ebp]
  001b5	83 79 04 2d	 cmp	 DWORD PTR [ecx+4], 45	; 0000002dH
  001b9	7d 0b		 jge	 SHORT $LN19@process_en
  001bb	8b 55 f4	 mov	 edx, DWORD PTR _this_entity_list$[ebp]
  001be	8b 42 04	 mov	 eax, DWORD PTR [edx+4]
  001c1	89 45 ac	 mov	 DWORD PTR tv171[ebp], eax
  001c4	eb 1d		 jmp	 SHORT $LN20@process_en
$LN19@process_en:
  001c6	68 55 04 00 00	 push	 1109			; 00000455H
  001cb	68 00 00 00 00	 push	 OFFSET ??_C@_0EO@HOHMAODH@c?3?2users?2nhv90?2projects?2eech?2ap@
  001d0	8b 0d 00 00 00
	00		 mov	 ecx, DWORD PTR ?overload_invalid_list_type_message@@3PBDB ; overload_invalid_list_type_message
  001d6	51		 push	 ecx
  001d7	e8 00 00 00 00	 call	 ?process_assert@@YGXPBD0H@Z ; process_assert
  001dc	c7 45 ac 00 00
	00 00		 mov	 DWORD PTR tv171[ebp], 0
$LN20@process_en:
  001e3	8b 55 f4	 mov	 edx, DWORD PTR _this_entity_list$[ebp]
  001e6	8b 42 04	 mov	 eax, DWORD PTR [edx+4]
  001e9	50		 push	 eax
  001ea	8b 4d f8	 mov	 ecx, DWORD PTR _first_child$[ebp]
  001ed	51		 push	 ecx
  001ee	69 55 b0 b4 00
	00 00		 imul	 edx, DWORD PTR tv160[ebp], 180
  001f5	8b 45 ac	 mov	 eax, DWORD PTR tv171[ebp]
  001f8	8b 8c 82 00 00
	00 00		 mov	 ecx, DWORD PTR ?fn_get_local_entity_parent@@3PAY0CN@P6GPAUENTITY@@PAU1@W4LIST_TYPES@@@ZA[edx+eax*4]
  001ff	ff d1		 call	 ecx
  00201	3b 45 fc	 cmp	 eax, DWORD PTR _en$[ebp]
  00204	0f 84 91 00 00
	00		 je	 $LN7@process_en

; 1110 : 		{
; 1111 : 
; 1112 : 			set_local_entity_parent (first_child, this_entity_list->list_type, en);

  0020a	83 7d f8 00	 cmp	 DWORD PTR _first_child$[ebp], 0
  0020e	74 0a		 je	 SHORT $LN21@process_en
  00210	8b 45 f8	 mov	 eax, DWORD PTR _first_child$[ebp]
  00213	8b 08		 mov	 ecx, DWORD PTR [eax]
  00215	89 4d b0	 mov	 DWORD PTR tv185[ebp], ecx
  00218	eb 21		 jmp	 SHORT $LN22@process_en
$LN21@process_en:
  0021a	8b 15 00 00 00
	00		 mov	 edx, DWORD PTR ?__LINE__Var@?0??process_entity_list_root_validation@@YGXXZ@4JA
  00220	83 c2 2d	 add	 edx, 45			; 0000002dH
  00223	52		 push	 edx
  00224	68 00 00 00 00	 push	 OFFSET ??_C@_0EO@HOHMAODH@c?3?2users?2nhv90?2projects?2eech?2ap@
  00229	a1 00 00 00 00	 mov	 eax, DWORD PTR ?null_entity_pointer_message@@3PBDB ; null_entity_pointer_message
  0022e	50		 push	 eax
  0022f	e8 00 00 00 00	 call	 ?process_assert@@YGXPBD0H@Z ; process_assert
  00234	c7 45 b0 00 00
	00 00		 mov	 DWORD PTR tv185[ebp], 0
$LN22@process_en:
  0023b	8b 4d f4	 mov	 ecx, DWORD PTR _this_entity_list$[ebp]
  0023e	83 79 04 00	 cmp	 DWORD PTR [ecx+4], 0
  00242	7c 14		 jl	 SHORT $LN23@process_en
  00244	8b 55 f4	 mov	 edx, DWORD PTR _this_entity_list$[ebp]
  00247	83 7a 04 2d	 cmp	 DWORD PTR [edx+4], 45	; 0000002dH
  0024b	7d 0b		 jge	 SHORT $LN23@process_en
  0024d	8b 45 f4	 mov	 eax, DWORD PTR _this_entity_list$[ebp]
  00250	8b 48 04	 mov	 ecx, DWORD PTR [eax+4]
  00253	89 4d ac	 mov	 DWORD PTR tv197[ebp], ecx
  00256	eb 21		 jmp	 SHORT $LN24@process_en
$LN23@process_en:
  00258	8b 15 00 00 00
	00		 mov	 edx, DWORD PTR ?__LINE__Var@?0??process_entity_list_root_validation@@YGXXZ@4JA
  0025e	83 c2 2d	 add	 edx, 45			; 0000002dH
  00261	52		 push	 edx
  00262	68 00 00 00 00	 push	 OFFSET ??_C@_0EO@HOHMAODH@c?3?2users?2nhv90?2projects?2eech?2ap@
  00267	a1 00 00 00 00	 mov	 eax, DWORD PTR ?overload_invalid_list_type_message@@3PBDB ; overload_invalid_list_type_message
  0026c	50		 push	 eax
  0026d	e8 00 00 00 00	 call	 ?process_assert@@YGXPBD0H@Z ; process_assert
  00272	c7 45 ac 00 00
	00 00		 mov	 DWORD PTR tv197[ebp], 0
$LN24@process_en:
  00279	8b 4d fc	 mov	 ecx, DWORD PTR _en$[ebp]
  0027c	51		 push	 ecx
  0027d	8b 55 f4	 mov	 edx, DWORD PTR _this_entity_list$[ebp]
  00280	8b 42 04	 mov	 eax, DWORD PTR [edx+4]
  00283	50		 push	 eax
  00284	8b 4d f8	 mov	 ecx, DWORD PTR _first_child$[ebp]
  00287	51		 push	 ecx
  00288	69 55 b0 b4 00
	00 00		 imul	 edx, DWORD PTR tv185[ebp], 180
  0028f	8b 45 ac	 mov	 eax, DWORD PTR tv197[ebp]
  00292	8b 8c 82 00 00
	00 00		 mov	 ecx, DWORD PTR ?fn_set_local_entity_parent@@3PAY0CN@P6GXPAUENTITY@@W4LIST_TYPES@@0@ZA[edx+eax*4]
  00299	ff d1		 call	 ecx
$LN7@process_en:

; 1113 : 
; 1114 : 			#if DEBUG_MODULE
; 1115 : 
; 1116 : 			debug_log ("EN_SESSN: LIST_REPAIRING: en %s (%d), list %s parent not set. Setting to %s (%d)", get_local_entity_type_name (first_child), get_local_entity_index (first_child), get_list_type_name (this_entity_list->list_type), get_local_entity_type_name (en), get_local_entity_index (en));
; 1117 : 
; 1118 : 			#endif
; 1119 : 		}
; 1120 : 		else
; 1121 : 		{
; 1122 : 
; 1123 : 			#if DEBUG_MODULE
; 1124 : 
; 1125 : 			debug_log ("EN_SESSN: LIST_REPAIRING: no repair needed. en %s (%d), list %s parent is set to %s (%d)", get_local_entity_type_name (first_child), get_local_entity_index (first_child), get_list_type_name (this_entity_list->list_type), get_local_entity_type_name (en), get_local_entity_index (en));
; 1126 : 
; 1127 : 			#endif
; 1128 : 		}
; 1129 : 		/////////////////////////////////////////////////////////////////
; 1130 : 
; 1131 : 		free_mem (this_entity_list);

  0029b	8b 45 f4	 mov	 eax, DWORD PTR _this_entity_list$[ebp]
  0029e	50		 push	 eax
  0029f	e8 00 00 00 00	 call	 ?free_mem@@YGXPAX@Z	; free_mem

; 1132 : 	}

  002a4	e9 60 fd ff ff	 jmp	 $LN2@process_en
$LN1@process_en:

; 1133 : }

  002a9	5f		 pop	 edi
  002aa	5e		 pop	 esi
  002ab	5b		 pop	 ebx
  002ac	8b e5		 mov	 esp, ebp
  002ae	5d		 pop	 ebp
  002af	c3		 ret	 0
?process_entity_list_root_validation@@YGXXZ ENDP	; process_entity_list_root_validation
_TEXT	ENDS
; Function compile flags: /Odtp /ZI
; File c:\users\nhv90\projects\eech\aphavoc\source\entity\system\en_comms\en_sessn.c
;	COMDAT ?process_entity_list_link_validation@@YGXXZ
_TEXT	SEGMENT
tv593 = -96						; size = 4
tv567 = -96						; size = 4
tv544 = -96						; size = 4
tv519 = -96						; size = 4
tv494 = -96						; size = 4
tv468 = -96						; size = 4
tv445 = -96						; size = 4
tv415 = -96						; size = 4
tv389 = -96						; size = 4
tv359 = -96						; size = 4
tv334 = -96						; size = 4
tv308 = -96						; size = 4
tv285 = -96						; size = 4
tv255 = -96						; size = 4
tv229 = -96						; size = 4
tv199 = -96						; size = 4
tv175 = -96						; size = 4
tv144 = -96						; size = 4
tv86 = -96						; size = 4
tv581 = -92						; size = 4
tv556 = -92						; size = 4
tv532 = -92						; size = 4
tv507 = -92						; size = 4
tv482 = -92						; size = 4
tv457 = -92						; size = 4
tv433 = -92						; size = 4
tv403 = -92						; size = 4
tv378 = -92						; size = 4
tv347 = -92						; size = 4
tv322 = -92						; size = 4
tv297 = -92						; size = 4
tv273 = -92						; size = 4
tv243 = -92						; size = 4
tv218 = -92						; size = 4
tv187 = -92						; size = 4
tv163 = -92						; size = 4
tv132 = -92						; size = 4
tv74 = -92						; size = 4
_this_entity_list$ = -24				; size = 4
_last_en$ = -20						; size = 4
_parent$ = -16						; size = 4
_pred$ = -12						; size = 4
_succ$ = -8						; size = 4
_en$ = -4						; size = 4
?process_entity_list_link_validation@@YGXXZ PROC	; process_entity_list_link_validation, COMDAT

; 912  : {

  00000	55		 push	 ebp
  00001	8b ec		 mov	 ebp, esp
  00003	83 ec 60	 sub	 esp, 96			; 00000060H
  00006	53		 push	 ebx
  00007	56		 push	 esi
  00008	57		 push	 edi

; 913  : 
; 914  : 	entity
; 915  : 		*en,
; 916  : 		*succ,
; 917  : 		*pred,
; 918  : 		*parent,
; 919  : 		*last_en;
; 920  : 
; 921  : 	comms_entity_list_validation_type
; 922  : 		*this_entity_list;
; 923  : 
; 924  : 	dump_entities ();

  00009	e8 00 00 00 00	 call	 ?dump_entities@@YGXXZ	; dump_entities
$LN2@process_en:

; 925  : 
; 926  : 	while (entity_list_link_validation)

  0000e	83 3d 00 00 00
	00 00		 cmp	 DWORD PTR ?entity_list_link_validation@@3PAUCOMMS_ENTITY_LIST_VALIDATION_TYPE@@A, 0 ; entity_list_link_validation
  00015	0f 84 ae 0b 00
	00		 je	 $LN1@process_en

; 927  : 	{
; 928  : 
; 929  : 		this_entity_list = entity_list_link_validation;

  0001b	a1 00 00 00 00	 mov	 eax, DWORD PTR ?entity_list_link_validation@@3PAUCOMMS_ENTITY_LIST_VALIDATION_TYPE@@A ; entity_list_link_validation
  00020	89 45 e8	 mov	 DWORD PTR _this_entity_list$[ebp], eax

; 930  : 
; 931  : 		entity_list_link_validation = entity_list_link_validation->next;

  00023	a1 00 00 00 00	 mov	 eax, DWORD PTR ?entity_list_link_validation@@3PAUCOMMS_ENTITY_LIST_VALIDATION_TYPE@@A ; entity_list_link_validation
  00028	8b 48 08	 mov	 ecx, DWORD PTR [eax+8]
  0002b	89 0d 00 00 00
	00		 mov	 DWORD PTR ?entity_list_link_validation@@3PAUCOMMS_ENTITY_LIST_VALIDATION_TYPE@@A, ecx ; entity_list_link_validation

; 932  : 
; 933  : 		en = this_entity_list->en;

  00031	8b 45 e8	 mov	 eax, DWORD PTR _this_entity_list$[ebp]
  00034	8b 08		 mov	 ecx, DWORD PTR [eax]
  00036	89 4d fc	 mov	 DWORD PTR _en$[ebp], ecx

; 934  : 
; 935  : 		last_en = en;

  00039	8b 45 fc	 mov	 eax, DWORD PTR _en$[ebp]
  0003c	89 45 ec	 mov	 DWORD PTR _last_en$[ebp], eax
$LN4@process_en:

; 936  : 
; 937  : 		while (en)

  0003f	83 7d fc 00	 cmp	 DWORD PTR _en$[ebp], 0
  00043	0f 84 b7 09 00
	00		 je	 $LN5@process_en

; 938  : 		{
; 939  : 
; 940  : 			parent = get_local_entity_parent (en, this_entity_list->list_type);

  00049	83 7d fc 00	 cmp	 DWORD PTR _en$[ebp], 0
  0004d	74 0a		 je	 SHORT $LN20@process_en
  0004f	8b 45 fc	 mov	 eax, DWORD PTR _en$[ebp]
  00052	8b 08		 mov	 ecx, DWORD PTR [eax]
  00054	89 4d a4	 mov	 DWORD PTR tv74[ebp], ecx
  00057	eb 21		 jmp	 SHORT $LN21@process_en
$LN20@process_en:
  00059	8b 15 00 00 00
	00		 mov	 edx, DWORD PTR ?__LINE__Var@?0??process_entity_list_link_validation@@YGXXZ@4JA
  0005f	83 c2 1c	 add	 edx, 28			; 0000001cH
  00062	52		 push	 edx
  00063	68 00 00 00 00	 push	 OFFSET ??_C@_0EO@HOHMAODH@c?3?2users?2nhv90?2projects?2eech?2ap@
  00068	a1 00 00 00 00	 mov	 eax, DWORD PTR ?null_entity_pointer_message@@3PBDB ; null_entity_pointer_message
  0006d	50		 push	 eax
  0006e	e8 00 00 00 00	 call	 ?process_assert@@YGXPBD0H@Z ; process_assert
  00073	c7 45 a4 00 00
	00 00		 mov	 DWORD PTR tv74[ebp], 0
$LN21@process_en:
  0007a	8b 4d e8	 mov	 ecx, DWORD PTR _this_entity_list$[ebp]
  0007d	83 79 04 00	 cmp	 DWORD PTR [ecx+4], 0
  00081	7c 14		 jl	 SHORT $LN22@process_en
  00083	8b 55 e8	 mov	 edx, DWORD PTR _this_entity_list$[ebp]
  00086	83 7a 04 2d	 cmp	 DWORD PTR [edx+4], 45	; 0000002dH
  0008a	7d 0b		 jge	 SHORT $LN22@process_en
  0008c	8b 45 e8	 mov	 eax, DWORD PTR _this_entity_list$[ebp]
  0008f	8b 48 04	 mov	 ecx, DWORD PTR [eax+4]
  00092	89 4d a0	 mov	 DWORD PTR tv86[ebp], ecx
  00095	eb 21		 jmp	 SHORT $LN23@process_en
$LN22@process_en:
  00097	8b 15 00 00 00
	00		 mov	 edx, DWORD PTR ?__LINE__Var@?0??process_entity_list_link_validation@@YGXXZ@4JA
  0009d	83 c2 1c	 add	 edx, 28			; 0000001cH
  000a0	52		 push	 edx
  000a1	68 00 00 00 00	 push	 OFFSET ??_C@_0EO@HOHMAODH@c?3?2users?2nhv90?2projects?2eech?2ap@
  000a6	a1 00 00 00 00	 mov	 eax, DWORD PTR ?overload_invalid_list_type_message@@3PBDB ; overload_invalid_list_type_message
  000ab	50		 push	 eax
  000ac	e8 00 00 00 00	 call	 ?process_assert@@YGXPBD0H@Z ; process_assert
  000b1	c7 45 a0 00 00
	00 00		 mov	 DWORD PTR tv86[ebp], 0
$LN23@process_en:
  000b8	8b 4d e8	 mov	 ecx, DWORD PTR _this_entity_list$[ebp]
  000bb	8b 51 04	 mov	 edx, DWORD PTR [ecx+4]
  000be	52		 push	 edx
  000bf	8b 45 fc	 mov	 eax, DWORD PTR _en$[ebp]
  000c2	50		 push	 eax
  000c3	69 4d a4 b4 00
	00 00		 imul	 ecx, DWORD PTR tv74[ebp], 180
  000ca	8b 55 a0	 mov	 edx, DWORD PTR tv86[ebp]
  000cd	8b 84 91 00 00
	00 00		 mov	 eax, DWORD PTR ?fn_get_local_entity_parent@@3PAY0CN@P6GPAUENTITY@@PAU1@W4LIST_TYPES@@@ZA[ecx+edx*4]
  000d4	ff d0		 call	 eax
  000d6	89 45 f0	 mov	 DWORD PTR _parent$[ebp], eax

; 941  : 
; 942  : 			/////////////////////////////////////////////////////////////////
; 943  : 			// if NULL its been removed from list, skip to next
; 944  : 			if (!parent)

  000d9	83 7d f0 00	 cmp	 DWORD PTR _parent$[ebp], 0
  000dd	0f 85 95 00 00
	00		 jne	 $LN6@process_en

; 945  : 			{
; 946  : 
; 947  : 				en = get_local_entity_child_pred (en, this_entity_list->list_type);

  000e3	83 7d fc 00	 cmp	 DWORD PTR _en$[ebp], 0
  000e7	74 0a		 je	 SHORT $LN24@process_en
  000e9	8b 45 fc	 mov	 eax, DWORD PTR _en$[ebp]
  000ec	8b 08		 mov	 ecx, DWORD PTR [eax]
  000ee	89 4d a4	 mov	 DWORD PTR tv132[ebp], ecx
  000f1	eb 21		 jmp	 SHORT $LN25@process_en
$LN24@process_en:
  000f3	8b 15 00 00 00
	00		 mov	 edx, DWORD PTR ?__LINE__Var@?0??process_entity_list_link_validation@@YGXXZ@4JA
  000f9	83 c2 23	 add	 edx, 35			; 00000023H
  000fc	52		 push	 edx
  000fd	68 00 00 00 00	 push	 OFFSET ??_C@_0EO@HOHMAODH@c?3?2users?2nhv90?2projects?2eech?2ap@
  00102	a1 00 00 00 00	 mov	 eax, DWORD PTR ?null_entity_pointer_message@@3PBDB ; null_entity_pointer_message
  00107	50		 push	 eax
  00108	e8 00 00 00 00	 call	 ?process_assert@@YGXPBD0H@Z ; process_assert
  0010d	c7 45 a4 00 00
	00 00		 mov	 DWORD PTR tv132[ebp], 0
$LN25@process_en:
  00114	8b 4d e8	 mov	 ecx, DWORD PTR _this_entity_list$[ebp]
  00117	83 79 04 00	 cmp	 DWORD PTR [ecx+4], 0
  0011b	7c 14		 jl	 SHORT $LN26@process_en
  0011d	8b 55 e8	 mov	 edx, DWORD PTR _this_entity_list$[ebp]
  00120	83 7a 04 2d	 cmp	 DWORD PTR [edx+4], 45	; 0000002dH
  00124	7d 0b		 jge	 SHORT $LN26@process_en
  00126	8b 45 e8	 mov	 eax, DWORD PTR _this_entity_list$[ebp]
  00129	8b 48 04	 mov	 ecx, DWORD PTR [eax+4]
  0012c	89 4d a0	 mov	 DWORD PTR tv144[ebp], ecx
  0012f	eb 21		 jmp	 SHORT $LN27@process_en
$LN26@process_en:
  00131	8b 15 00 00 00
	00		 mov	 edx, DWORD PTR ?__LINE__Var@?0??process_entity_list_link_validation@@YGXXZ@4JA
  00137	83 c2 23	 add	 edx, 35			; 00000023H
  0013a	52		 push	 edx
  0013b	68 00 00 00 00	 push	 OFFSET ??_C@_0EO@HOHMAODH@c?3?2users?2nhv90?2projects?2eech?2ap@
  00140	a1 00 00 00 00	 mov	 eax, DWORD PTR ?overload_invalid_list_type_message@@3PBDB ; overload_invalid_list_type_message
  00145	50		 push	 eax
  00146	e8 00 00 00 00	 call	 ?process_assert@@YGXPBD0H@Z ; process_assert
  0014b	c7 45 a0 00 00
	00 00		 mov	 DWORD PTR tv144[ebp], 0
$LN27@process_en:
  00152	8b 4d e8	 mov	 ecx, DWORD PTR _this_entity_list$[ebp]
  00155	8b 51 04	 mov	 edx, DWORD PTR [ecx+4]
  00158	52		 push	 edx
  00159	8b 45 fc	 mov	 eax, DWORD PTR _en$[ebp]
  0015c	50		 push	 eax
  0015d	69 4d a4 b4 00
	00 00		 imul	 ecx, DWORD PTR tv132[ebp], 180
  00164	8b 55 a0	 mov	 edx, DWORD PTR tv144[ebp]
  00167	8b 84 91 00 00
	00 00		 mov	 eax, DWORD PTR ?fn_get_local_entity_child_pred@@3PAY0CN@P6GPAUENTITY@@PAU1@W4LIST_TYPES@@@ZA[ecx+edx*4]
  0016e	ff d0		 call	 eax
  00170	89 45 fc	 mov	 DWORD PTR _en$[ebp], eax

; 948  : 
; 949  : 				continue;

  00173	e9 c7 fe ff ff	 jmp	 $LN4@process_en
$LN6@process_en:

; 950  : 			}
; 951  : 			/////////////////////////////////////////////////////////////////
; 952  : 
; 953  : 			ASSERT (parent->type != ENTITY_TYPE_UNKNOWN);

  00178	8b 45 f0	 mov	 eax, DWORD PTR _parent$[ebp]
  0017b	83 38 00	 cmp	 DWORD PTR [eax], 0
  0017e	75 18		 jne	 SHORT $LN7@process_en
  00180	a1 00 00 00 00	 mov	 eax, DWORD PTR ?__LINE__Var@?0??process_entity_list_link_validation@@YGXXZ@4JA
  00185	83 c0 29	 add	 eax, 41			; 00000029H
  00188	50		 push	 eax
  00189	68 00 00 00 00	 push	 OFFSET ??_C@_0EO@HOHMAODH@c?3?2users?2nhv90?2projects?2eech?2ap@
  0018e	68 00 00 00 00	 push	 OFFSET ??_C@_0CE@KHIDGKG@parent?9?$DOtype?5?$CB?$DN?5ENTITY_TYPE_UNK@
  00193	e8 00 00 00 00	 call	 ?process_assert@@YGXPBD0H@Z ; process_assert
$LN7@process_en:

; 954  : 
; 955  : 			/////////////////////////////////////////////////////////////////
; 956  : 			// check valid list type for parent
; 957  : 			get_local_entity_first_child (parent, this_entity_list->list_type);

  00198	83 7d f0 00	 cmp	 DWORD PTR _parent$[ebp], 0
  0019c	74 0a		 je	 SHORT $LN28@process_en
  0019e	8b 45 f0	 mov	 eax, DWORD PTR _parent$[ebp]
  001a1	8b 08		 mov	 ecx, DWORD PTR [eax]
  001a3	89 4d a4	 mov	 DWORD PTR tv163[ebp], ecx
  001a6	eb 21		 jmp	 SHORT $LN29@process_en
$LN28@process_en:
  001a8	8b 15 00 00 00
	00		 mov	 edx, DWORD PTR ?__LINE__Var@?0??process_entity_list_link_validation@@YGXXZ@4JA
  001ae	83 c2 2d	 add	 edx, 45			; 0000002dH
  001b1	52		 push	 edx
  001b2	68 00 00 00 00	 push	 OFFSET ??_C@_0EO@HOHMAODH@c?3?2users?2nhv90?2projects?2eech?2ap@
  001b7	a1 00 00 00 00	 mov	 eax, DWORD PTR ?null_entity_pointer_message@@3PBDB ; null_entity_pointer_message
  001bc	50		 push	 eax
  001bd	e8 00 00 00 00	 call	 ?process_assert@@YGXPBD0H@Z ; process_assert
  001c2	c7 45 a4 00 00
	00 00		 mov	 DWORD PTR tv163[ebp], 0
$LN29@process_en:
  001c9	8b 4d e8	 mov	 ecx, DWORD PTR _this_entity_list$[ebp]
  001cc	83 79 04 00	 cmp	 DWORD PTR [ecx+4], 0
  001d0	7c 14		 jl	 SHORT $LN30@process_en
  001d2	8b 55 e8	 mov	 edx, DWORD PTR _this_entity_list$[ebp]
  001d5	83 7a 04 2d	 cmp	 DWORD PTR [edx+4], 45	; 0000002dH
  001d9	7d 0b		 jge	 SHORT $LN30@process_en
  001db	8b 45 e8	 mov	 eax, DWORD PTR _this_entity_list$[ebp]
  001de	8b 48 04	 mov	 ecx, DWORD PTR [eax+4]
  001e1	89 4d a0	 mov	 DWORD PTR tv175[ebp], ecx
  001e4	eb 21		 jmp	 SHORT $LN31@process_en
$LN30@process_en:
  001e6	8b 15 00 00 00
	00		 mov	 edx, DWORD PTR ?__LINE__Var@?0??process_entity_list_link_validation@@YGXXZ@4JA
  001ec	83 c2 2d	 add	 edx, 45			; 0000002dH
  001ef	52		 push	 edx
  001f0	68 00 00 00 00	 push	 OFFSET ??_C@_0EO@HOHMAODH@c?3?2users?2nhv90?2projects?2eech?2ap@
  001f5	a1 00 00 00 00	 mov	 eax, DWORD PTR ?overload_invalid_list_type_message@@3PBDB ; overload_invalid_list_type_message
  001fa	50		 push	 eax
  001fb	e8 00 00 00 00	 call	 ?process_assert@@YGXPBD0H@Z ; process_assert
  00200	c7 45 a0 00 00
	00 00		 mov	 DWORD PTR tv175[ebp], 0
$LN31@process_en:
  00207	8b 4d e8	 mov	 ecx, DWORD PTR _this_entity_list$[ebp]
  0020a	8b 51 04	 mov	 edx, DWORD PTR [ecx+4]
  0020d	52		 push	 edx
  0020e	8b 45 f0	 mov	 eax, DWORD PTR _parent$[ebp]
  00211	50		 push	 eax
  00212	69 4d a4 b4 00
	00 00		 imul	 ecx, DWORD PTR tv163[ebp], 180
  00219	8b 55 a0	 mov	 edx, DWORD PTR tv175[ebp]
  0021c	8b 84 91 00 00
	00 00		 mov	 eax, DWORD PTR ?fn_get_local_entity_first_child@@3PAY0CN@P6GPAUENTITY@@PAU1@W4LIST_TYPES@@@ZA[ecx+edx*4]
  00223	ff d0		 call	 eax

; 958  : 			/////////////////////////////////////////////////////////////////
; 959  : 
; 960  : 			/////////////////////////////////////////////////////////////////
; 961  : 			// check succ
; 962  : 			succ = get_local_entity_child_succ (en, this_entity_list->list_type);

  00225	83 7d fc 00	 cmp	 DWORD PTR _en$[ebp], 0
  00229	74 0a		 je	 SHORT $LN32@process_en
  0022b	8b 45 fc	 mov	 eax, DWORD PTR _en$[ebp]
  0022e	8b 08		 mov	 ecx, DWORD PTR [eax]
  00230	89 4d a4	 mov	 DWORD PTR tv187[ebp], ecx
  00233	eb 21		 jmp	 SHORT $LN33@process_en
$LN32@process_en:
  00235	8b 15 00 00 00
	00		 mov	 edx, DWORD PTR ?__LINE__Var@?0??process_entity_list_link_validation@@YGXXZ@4JA
  0023b	83 c2 32	 add	 edx, 50			; 00000032H
  0023e	52		 push	 edx
  0023f	68 00 00 00 00	 push	 OFFSET ??_C@_0EO@HOHMAODH@c?3?2users?2nhv90?2projects?2eech?2ap@
  00244	a1 00 00 00 00	 mov	 eax, DWORD PTR ?null_entity_pointer_message@@3PBDB ; null_entity_pointer_message
  00249	50		 push	 eax
  0024a	e8 00 00 00 00	 call	 ?process_assert@@YGXPBD0H@Z ; process_assert
  0024f	c7 45 a4 00 00
	00 00		 mov	 DWORD PTR tv187[ebp], 0
$LN33@process_en:
  00256	8b 4d e8	 mov	 ecx, DWORD PTR _this_entity_list$[ebp]
  00259	83 79 04 00	 cmp	 DWORD PTR [ecx+4], 0
  0025d	7c 14		 jl	 SHORT $LN34@process_en
  0025f	8b 55 e8	 mov	 edx, DWORD PTR _this_entity_list$[ebp]
  00262	83 7a 04 2d	 cmp	 DWORD PTR [edx+4], 45	; 0000002dH
  00266	7d 0b		 jge	 SHORT $LN34@process_en
  00268	8b 45 e8	 mov	 eax, DWORD PTR _this_entity_list$[ebp]
  0026b	8b 48 04	 mov	 ecx, DWORD PTR [eax+4]
  0026e	89 4d a0	 mov	 DWORD PTR tv199[ebp], ecx
  00271	eb 21		 jmp	 SHORT $LN35@process_en
$LN34@process_en:
  00273	8b 15 00 00 00
	00		 mov	 edx, DWORD PTR ?__LINE__Var@?0??process_entity_list_link_validation@@YGXXZ@4JA
  00279	83 c2 32	 add	 edx, 50			; 00000032H
  0027c	52		 push	 edx
  0027d	68 00 00 00 00	 push	 OFFSET ??_C@_0EO@HOHMAODH@c?3?2users?2nhv90?2projects?2eech?2ap@
  00282	a1 00 00 00 00	 mov	 eax, DWORD PTR ?overload_invalid_list_type_message@@3PBDB ; overload_invalid_list_type_message
  00287	50		 push	 eax
  00288	e8 00 00 00 00	 call	 ?process_assert@@YGXPBD0H@Z ; process_assert
  0028d	c7 45 a0 00 00
	00 00		 mov	 DWORD PTR tv199[ebp], 0
$LN35@process_en:
  00294	8b 4d e8	 mov	 ecx, DWORD PTR _this_entity_list$[ebp]
  00297	8b 51 04	 mov	 edx, DWORD PTR [ecx+4]
  0029a	52		 push	 edx
  0029b	8b 45 fc	 mov	 eax, DWORD PTR _en$[ebp]
  0029e	50		 push	 eax
  0029f	69 4d a4 b4 00
	00 00		 imul	 ecx, DWORD PTR tv187[ebp], 180
  002a6	8b 55 a0	 mov	 edx, DWORD PTR tv199[ebp]
  002a9	8b 84 91 00 00
	00 00		 mov	 eax, DWORD PTR ?fn_get_local_entity_child_succ@@3PAY0CN@P6GPAUENTITY@@PAU1@W4LIST_TYPES@@@ZA[ecx+edx*4]
  002b0	ff d0		 call	 eax
  002b2	89 45 f8	 mov	 DWORD PTR _succ$[ebp], eax

; 963  : 
; 964  : 			if (succ)

  002b5	83 7d f8 00	 cmp	 DWORD PTR _succ$[ebp], 0
  002b9	0f 84 06 03 00
	00		 je	 $LN8@process_en

; 965  : 			{
; 966  : 
; 967  : 				ASSERT (succ->type != ENTITY_TYPE_UNKNOWN);

  002bf	8b 45 f8	 mov	 eax, DWORD PTR _succ$[ebp]
  002c2	83 38 00	 cmp	 DWORD PTR [eax], 0
  002c5	75 18		 jne	 SHORT $LN9@process_en
  002c7	a1 00 00 00 00	 mov	 eax, DWORD PTR ?__LINE__Var@?0??process_entity_list_link_validation@@YGXXZ@4JA
  002cc	83 c0 37	 add	 eax, 55			; 00000037H
  002cf	50		 push	 eax
  002d0	68 00 00 00 00	 push	 OFFSET ??_C@_0EO@HOHMAODH@c?3?2users?2nhv90?2projects?2eech?2ap@
  002d5	68 00 00 00 00	 push	 OFFSET ??_C@_0CC@GNMCLEK@succ?9?$DOtype?5?$CB?$DN?5ENTITY_TYPE_UNKNO@
  002da	e8 00 00 00 00	 call	 ?process_assert@@YGXPBD0H@Z ; process_assert
$LN9@process_en:

; 968  : 
; 969  : 				if (get_local_entity_child_pred (succ, this_entity_list->list_type) != en)

  002df	83 7d f8 00	 cmp	 DWORD PTR _succ$[ebp], 0
  002e3	74 0a		 je	 SHORT $LN36@process_en
  002e5	8b 45 f8	 mov	 eax, DWORD PTR _succ$[ebp]
  002e8	8b 08		 mov	 ecx, DWORD PTR [eax]
  002ea	89 4d a4	 mov	 DWORD PTR tv218[ebp], ecx
  002ed	eb 1d		 jmp	 SHORT $LN37@process_en
$LN36@process_en:
  002ef	68 c9 03 00 00	 push	 969			; 000003c9H
  002f4	68 00 00 00 00	 push	 OFFSET ??_C@_0EO@HOHMAODH@c?3?2users?2nhv90?2projects?2eech?2ap@
  002f9	8b 15 00 00 00
	00		 mov	 edx, DWORD PTR ?null_entity_pointer_message@@3PBDB ; null_entity_pointer_message
  002ff	52		 push	 edx
  00300	e8 00 00 00 00	 call	 ?process_assert@@YGXPBD0H@Z ; process_assert
  00305	c7 45 a4 00 00
	00 00		 mov	 DWORD PTR tv218[ebp], 0
$LN37@process_en:
  0030c	8b 45 e8	 mov	 eax, DWORD PTR _this_entity_list$[ebp]
  0030f	83 78 04 00	 cmp	 DWORD PTR [eax+4], 0
  00313	7c 14		 jl	 SHORT $LN38@process_en
  00315	8b 4d e8	 mov	 ecx, DWORD PTR _this_entity_list$[ebp]
  00318	83 79 04 2d	 cmp	 DWORD PTR [ecx+4], 45	; 0000002dH
  0031c	7d 0b		 jge	 SHORT $LN38@process_en
  0031e	8b 55 e8	 mov	 edx, DWORD PTR _this_entity_list$[ebp]
  00321	8b 42 04	 mov	 eax, DWORD PTR [edx+4]
  00324	89 45 a0	 mov	 DWORD PTR tv229[ebp], eax
  00327	eb 1d		 jmp	 SHORT $LN39@process_en
$LN38@process_en:
  00329	68 c9 03 00 00	 push	 969			; 000003c9H
  0032e	68 00 00 00 00	 push	 OFFSET ??_C@_0EO@HOHMAODH@c?3?2users?2nhv90?2projects?2eech?2ap@
  00333	8b 0d 00 00 00
	00		 mov	 ecx, DWORD PTR ?overload_invalid_list_type_message@@3PBDB ; overload_invalid_list_type_message
  00339	51		 push	 ecx
  0033a	e8 00 00 00 00	 call	 ?process_assert@@YGXPBD0H@Z ; process_assert
  0033f	c7 45 a0 00 00
	00 00		 mov	 DWORD PTR tv229[ebp], 0
$LN39@process_en:
  00346	8b 55 e8	 mov	 edx, DWORD PTR _this_entity_list$[ebp]
  00349	8b 42 04	 mov	 eax, DWORD PTR [edx+4]
  0034c	50		 push	 eax
  0034d	8b 4d f8	 mov	 ecx, DWORD PTR _succ$[ebp]
  00350	51		 push	 ecx
  00351	69 55 a4 b4 00
	00 00		 imul	 edx, DWORD PTR tv218[ebp], 180
  00358	8b 45 a0	 mov	 eax, DWORD PTR tv229[ebp]
  0035b	8b 8c 82 00 00
	00 00		 mov	 ecx, DWORD PTR ?fn_get_local_entity_child_pred@@3PAY0CN@P6GPAUENTITY@@PAU1@W4LIST_TYPES@@@ZA[edx+eax*4]
  00362	ff d1		 call	 ecx
  00364	3b 45 fc	 cmp	 eax, DWORD PTR _en$[ebp]
  00367	0f 84 58 02 00
	00		 je	 $LN8@process_en

; 970  : 				{
; 971  : 
; 972  : 					ASSERT (get_local_entity_child_pred (succ, this_entity_list->list_type) == NULL);

  0036d	83 7d f8 00	 cmp	 DWORD PTR _succ$[ebp], 0
  00371	74 0a		 je	 SHORT $LN40@process_en
  00373	8b 45 f8	 mov	 eax, DWORD PTR _succ$[ebp]
  00376	8b 08		 mov	 ecx, DWORD PTR [eax]
  00378	89 4d a4	 mov	 DWORD PTR tv243[ebp], ecx
  0037b	eb 21		 jmp	 SHORT $LN41@process_en
$LN40@process_en:
  0037d	8b 15 00 00 00
	00		 mov	 edx, DWORD PTR ?__LINE__Var@?0??process_entity_list_link_validation@@YGXXZ@4JA
  00383	83 c2 3c	 add	 edx, 60			; 0000003cH
  00386	52		 push	 edx
  00387	68 00 00 00 00	 push	 OFFSET ??_C@_0EO@HOHMAODH@c?3?2users?2nhv90?2projects?2eech?2ap@
  0038c	a1 00 00 00 00	 mov	 eax, DWORD PTR ?null_entity_pointer_message@@3PBDB ; null_entity_pointer_message
  00391	50		 push	 eax
  00392	e8 00 00 00 00	 call	 ?process_assert@@YGXPBD0H@Z ; process_assert
  00397	c7 45 a4 00 00
	00 00		 mov	 DWORD PTR tv243[ebp], 0
$LN41@process_en:
  0039e	8b 4d e8	 mov	 ecx, DWORD PTR _this_entity_list$[ebp]
  003a1	83 79 04 00	 cmp	 DWORD PTR [ecx+4], 0
  003a5	7c 14		 jl	 SHORT $LN42@process_en
  003a7	8b 55 e8	 mov	 edx, DWORD PTR _this_entity_list$[ebp]
  003aa	83 7a 04 2d	 cmp	 DWORD PTR [edx+4], 45	; 0000002dH
  003ae	7d 0b		 jge	 SHORT $LN42@process_en
  003b0	8b 45 e8	 mov	 eax, DWORD PTR _this_entity_list$[ebp]
  003b3	8b 48 04	 mov	 ecx, DWORD PTR [eax+4]
  003b6	89 4d a0	 mov	 DWORD PTR tv255[ebp], ecx
  003b9	eb 21		 jmp	 SHORT $LN43@process_en
$LN42@process_en:
  003bb	8b 15 00 00 00
	00		 mov	 edx, DWORD PTR ?__LINE__Var@?0??process_entity_list_link_validation@@YGXXZ@4JA
  003c1	83 c2 3c	 add	 edx, 60			; 0000003cH
  003c4	52		 push	 edx
  003c5	68 00 00 00 00	 push	 OFFSET ??_C@_0EO@HOHMAODH@c?3?2users?2nhv90?2projects?2eech?2ap@
  003ca	a1 00 00 00 00	 mov	 eax, DWORD PTR ?overload_invalid_list_type_message@@3PBDB ; overload_invalid_list_type_message
  003cf	50		 push	 eax
  003d0	e8 00 00 00 00	 call	 ?process_assert@@YGXPBD0H@Z ; process_assert
  003d5	c7 45 a0 00 00
	00 00		 mov	 DWORD PTR tv255[ebp], 0
$LN43@process_en:
  003dc	8b 4d e8	 mov	 ecx, DWORD PTR _this_entity_list$[ebp]
  003df	8b 51 04	 mov	 edx, DWORD PTR [ecx+4]
  003e2	52		 push	 edx
  003e3	8b 45 f8	 mov	 eax, DWORD PTR _succ$[ebp]
  003e6	50		 push	 eax
  003e7	69 4d a4 b4 00
	00 00		 imul	 ecx, DWORD PTR tv243[ebp], 180
  003ee	8b 55 a0	 mov	 edx, DWORD PTR tv255[ebp]
  003f1	8b 84 91 00 00
	00 00		 mov	 eax, DWORD PTR ?fn_get_local_entity_child_pred@@3PAY0CN@P6GPAUENTITY@@PAU1@W4LIST_TYPES@@@ZA[ecx+edx*4]
  003f8	ff d0		 call	 eax
  003fa	85 c0		 test	 eax, eax
  003fc	74 18		 je	 SHORT $LN11@process_en
  003fe	a1 00 00 00 00	 mov	 eax, DWORD PTR ?__LINE__Var@?0??process_entity_list_link_validation@@YGXXZ@4JA
  00403	83 c0 3c	 add	 eax, 60			; 0000003cH
  00406	50		 push	 eax
  00407	68 00 00 00 00	 push	 OFFSET ??_C@_0EO@HOHMAODH@c?3?2users?2nhv90?2projects?2eech?2ap@
  0040c	68 00 00 00 00	 push	 OFFSET ??_C@_0EI@FBNFEJBP@get_local_entity_child_pred?5?$CIsu@
  00411	e8 00 00 00 00	 call	 ?process_assert@@YGXPBD0H@Z ; process_assert
$LN11@process_en:

; 973  : 
; 974  : 					#if DEBUG_MODULE
; 975  : 
; 976  : 					debug_log ("EN_SESSN: LIST_REPAIRING: en %s (%d), list %s child_pred not set. Setting to %s (%d)", get_local_entity_type_name (en), get_local_entity_index (en), get_list_type_name (this_entity_list->list_type), get_local_entity_type_name (succ), get_local_entity_index (succ));
; 977  : 
; 978  : 					#endif
; 979  : 
; 980  : 					set_local_entity_child_pred (succ, this_entity_list->list_type, en);

  00416	83 7d f8 00	 cmp	 DWORD PTR _succ$[ebp], 0
  0041a	74 0a		 je	 SHORT $LN44@process_en
  0041c	8b 45 f8	 mov	 eax, DWORD PTR _succ$[ebp]
  0041f	8b 08		 mov	 ecx, DWORD PTR [eax]
  00421	89 4d a4	 mov	 DWORD PTR tv273[ebp], ecx
  00424	eb 21		 jmp	 SHORT $LN45@process_en
$LN44@process_en:
  00426	8b 15 00 00 00
	00		 mov	 edx, DWORD PTR ?__LINE__Var@?0??process_entity_list_link_validation@@YGXXZ@4JA
  0042c	83 c2 44	 add	 edx, 68			; 00000044H
  0042f	52		 push	 edx
  00430	68 00 00 00 00	 push	 OFFSET ??_C@_0EO@HOHMAODH@c?3?2users?2nhv90?2projects?2eech?2ap@
  00435	a1 00 00 00 00	 mov	 eax, DWORD PTR ?null_entity_pointer_message@@3PBDB ; null_entity_pointer_message
  0043a	50		 push	 eax
  0043b	e8 00 00 00 00	 call	 ?process_assert@@YGXPBD0H@Z ; process_assert
  00440	c7 45 a4 00 00
	00 00		 mov	 DWORD PTR tv273[ebp], 0
$LN45@process_en:
  00447	8b 4d e8	 mov	 ecx, DWORD PTR _this_entity_list$[ebp]
  0044a	83 79 04 00	 cmp	 DWORD PTR [ecx+4], 0
  0044e	7c 14		 jl	 SHORT $LN46@process_en
  00450	8b 55 e8	 mov	 edx, DWORD PTR _this_entity_list$[ebp]
  00453	83 7a 04 2d	 cmp	 DWORD PTR [edx+4], 45	; 0000002dH
  00457	7d 0b		 jge	 SHORT $LN46@process_en
  00459	8b 45 e8	 mov	 eax, DWORD PTR _this_entity_list$[ebp]
  0045c	8b 48 04	 mov	 ecx, DWORD PTR [eax+4]
  0045f	89 4d a0	 mov	 DWORD PTR tv285[ebp], ecx
  00462	eb 21		 jmp	 SHORT $LN47@process_en
$LN46@process_en:
  00464	8b 15 00 00 00
	00		 mov	 edx, DWORD PTR ?__LINE__Var@?0??process_entity_list_link_validation@@YGXXZ@4JA
  0046a	83 c2 44	 add	 edx, 68			; 00000044H
  0046d	52		 push	 edx
  0046e	68 00 00 00 00	 push	 OFFSET ??_C@_0EO@HOHMAODH@c?3?2users?2nhv90?2projects?2eech?2ap@
  00473	a1 00 00 00 00	 mov	 eax, DWORD PTR ?overload_invalid_list_type_message@@3PBDB ; overload_invalid_list_type_message
  00478	50		 push	 eax
  00479	e8 00 00 00 00	 call	 ?process_assert@@YGXPBD0H@Z ; process_assert
  0047e	c7 45 a0 00 00
	00 00		 mov	 DWORD PTR tv285[ebp], 0
$LN47@process_en:
  00485	8b 4d fc	 mov	 ecx, DWORD PTR _en$[ebp]
  00488	51		 push	 ecx
  00489	8b 55 e8	 mov	 edx, DWORD PTR _this_entity_list$[ebp]
  0048c	8b 42 04	 mov	 eax, DWORD PTR [edx+4]
  0048f	50		 push	 eax
  00490	8b 4d f8	 mov	 ecx, DWORD PTR _succ$[ebp]
  00493	51		 push	 ecx
  00494	69 55 a4 b4 00
	00 00		 imul	 edx, DWORD PTR tv273[ebp], 180
  0049b	8b 45 a0	 mov	 eax, DWORD PTR tv285[ebp]
  0049e	8b 8c 82 00 00
	00 00		 mov	 ecx, DWORD PTR ?fn_set_local_entity_child_pred@@3PAY0CN@P6GXPAUENTITY@@W4LIST_TYPES@@0@ZA[edx+eax*4]
  004a5	ff d1		 call	 ecx

; 981  : 
; 982  : 					if (get_local_entity_parent (succ, this_entity_list->list_type) == NULL)

  004a7	83 7d f8 00	 cmp	 DWORD PTR _succ$[ebp], 0
  004ab	74 0a		 je	 SHORT $LN48@process_en
  004ad	8b 45 f8	 mov	 eax, DWORD PTR _succ$[ebp]
  004b0	8b 08		 mov	 ecx, DWORD PTR [eax]
  004b2	89 4d a4	 mov	 DWORD PTR tv297[ebp], ecx
  004b5	eb 1d		 jmp	 SHORT $LN49@process_en
$LN48@process_en:
  004b7	68 d6 03 00 00	 push	 982			; 000003d6H
  004bc	68 00 00 00 00	 push	 OFFSET ??_C@_0EO@HOHMAODH@c?3?2users?2nhv90?2projects?2eech?2ap@
  004c1	8b 15 00 00 00
	00		 mov	 edx, DWORD PTR ?null_entity_pointer_message@@3PBDB ; null_entity_pointer_message
  004c7	52		 push	 edx
  004c8	e8 00 00 00 00	 call	 ?process_assert@@YGXPBD0H@Z ; process_assert
  004cd	c7 45 a4 00 00
	00 00		 mov	 DWORD PTR tv297[ebp], 0
$LN49@process_en:
  004d4	8b 45 e8	 mov	 eax, DWORD PTR _this_entity_list$[ebp]
  004d7	83 78 04 00	 cmp	 DWORD PTR [eax+4], 0
  004db	7c 14		 jl	 SHORT $LN50@process_en
  004dd	8b 4d e8	 mov	 ecx, DWORD PTR _this_entity_list$[ebp]
  004e0	83 79 04 2d	 cmp	 DWORD PTR [ecx+4], 45	; 0000002dH
  004e4	7d 0b		 jge	 SHORT $LN50@process_en
  004e6	8b 55 e8	 mov	 edx, DWORD PTR _this_entity_list$[ebp]
  004e9	8b 42 04	 mov	 eax, DWORD PTR [edx+4]
  004ec	89 45 a0	 mov	 DWORD PTR tv308[ebp], eax
  004ef	eb 1d		 jmp	 SHORT $LN51@process_en
$LN50@process_en:
  004f1	68 d6 03 00 00	 push	 982			; 000003d6H
  004f6	68 00 00 00 00	 push	 OFFSET ??_C@_0EO@HOHMAODH@c?3?2users?2nhv90?2projects?2eech?2ap@
  004fb	8b 0d 00 00 00
	00		 mov	 ecx, DWORD PTR ?overload_invalid_list_type_message@@3PBDB ; overload_invalid_list_type_message
  00501	51		 push	 ecx
  00502	e8 00 00 00 00	 call	 ?process_assert@@YGXPBD0H@Z ; process_assert
  00507	c7 45 a0 00 00
	00 00		 mov	 DWORD PTR tv308[ebp], 0
$LN51@process_en:
  0050e	8b 55 e8	 mov	 edx, DWORD PTR _this_entity_list$[ebp]
  00511	8b 42 04	 mov	 eax, DWORD PTR [edx+4]
  00514	50		 push	 eax
  00515	8b 4d f8	 mov	 ecx, DWORD PTR _succ$[ebp]
  00518	51		 push	 ecx
  00519	69 55 a4 b4 00
	00 00		 imul	 edx, DWORD PTR tv297[ebp], 180
  00520	8b 45 a0	 mov	 eax, DWORD PTR tv308[ebp]
  00523	8b 8c 82 00 00
	00 00		 mov	 ecx, DWORD PTR ?fn_get_local_entity_parent@@3PAY0CN@P6GPAUENTITY@@PAU1@W4LIST_TYPES@@@ZA[edx+eax*4]
  0052a	ff d1		 call	 ecx
  0052c	85 c0		 test	 eax, eax
  0052e	0f 85 91 00 00
	00		 jne	 $LN8@process_en

; 983  : 					{
; 984  : 
; 985  : 						set_local_entity_parent (succ, this_entity_list->list_type, parent);

  00534	83 7d f8 00	 cmp	 DWORD PTR _succ$[ebp], 0
  00538	74 0a		 je	 SHORT $LN52@process_en
  0053a	8b 45 f8	 mov	 eax, DWORD PTR _succ$[ebp]
  0053d	8b 08		 mov	 ecx, DWORD PTR [eax]
  0053f	89 4d a4	 mov	 DWORD PTR tv322[ebp], ecx
  00542	eb 21		 jmp	 SHORT $LN53@process_en
$LN52@process_en:
  00544	8b 15 00 00 00
	00		 mov	 edx, DWORD PTR ?__LINE__Var@?0??process_entity_list_link_validation@@YGXXZ@4JA
  0054a	83 c2 49	 add	 edx, 73			; 00000049H
  0054d	52		 push	 edx
  0054e	68 00 00 00 00	 push	 OFFSET ??_C@_0EO@HOHMAODH@c?3?2users?2nhv90?2projects?2eech?2ap@
  00553	a1 00 00 00 00	 mov	 eax, DWORD PTR ?null_entity_pointer_message@@3PBDB ; null_entity_pointer_message
  00558	50		 push	 eax
  00559	e8 00 00 00 00	 call	 ?process_assert@@YGXPBD0H@Z ; process_assert
  0055e	c7 45 a4 00 00
	00 00		 mov	 DWORD PTR tv322[ebp], 0
$LN53@process_en:
  00565	8b 4d e8	 mov	 ecx, DWORD PTR _this_entity_list$[ebp]
  00568	83 79 04 00	 cmp	 DWORD PTR [ecx+4], 0
  0056c	7c 14		 jl	 SHORT $LN54@process_en
  0056e	8b 55 e8	 mov	 edx, DWORD PTR _this_entity_list$[ebp]
  00571	83 7a 04 2d	 cmp	 DWORD PTR [edx+4], 45	; 0000002dH
  00575	7d 0b		 jge	 SHORT $LN54@process_en
  00577	8b 45 e8	 mov	 eax, DWORD PTR _this_entity_list$[ebp]
  0057a	8b 48 04	 mov	 ecx, DWORD PTR [eax+4]
  0057d	89 4d a0	 mov	 DWORD PTR tv334[ebp], ecx
  00580	eb 21		 jmp	 SHORT $LN55@process_en
$LN54@process_en:
  00582	8b 15 00 00 00
	00		 mov	 edx, DWORD PTR ?__LINE__Var@?0??process_entity_list_link_validation@@YGXXZ@4JA
  00588	83 c2 49	 add	 edx, 73			; 00000049H
  0058b	52		 push	 edx
  0058c	68 00 00 00 00	 push	 OFFSET ??_C@_0EO@HOHMAODH@c?3?2users?2nhv90?2projects?2eech?2ap@
  00591	a1 00 00 00 00	 mov	 eax, DWORD PTR ?overload_invalid_list_type_message@@3PBDB ; overload_invalid_list_type_message
  00596	50		 push	 eax
  00597	e8 00 00 00 00	 call	 ?process_assert@@YGXPBD0H@Z ; process_assert
  0059c	c7 45 a0 00 00
	00 00		 mov	 DWORD PTR tv334[ebp], 0
$LN55@process_en:
  005a3	8b 4d f0	 mov	 ecx, DWORD PTR _parent$[ebp]
  005a6	51		 push	 ecx
  005a7	8b 55 e8	 mov	 edx, DWORD PTR _this_entity_list$[ebp]
  005aa	8b 42 04	 mov	 eax, DWORD PTR [edx+4]
  005ad	50		 push	 eax
  005ae	8b 4d f8	 mov	 ecx, DWORD PTR _succ$[ebp]
  005b1	51		 push	 ecx
  005b2	69 55 a4 b4 00
	00 00		 imul	 edx, DWORD PTR tv322[ebp], 180
  005b9	8b 45 a0	 mov	 eax, DWORD PTR tv334[ebp]
  005bc	8b 8c 82 00 00
	00 00		 mov	 ecx, DWORD PTR ?fn_set_local_entity_parent@@3PAY0CN@P6GXPAUENTITY@@W4LIST_TYPES@@0@ZA[edx+eax*4]
  005c3	ff d1		 call	 ecx
$LN8@process_en:

; 986  : 
; 987  : 						#if DEBUG_MODULE
; 988  : 
; 989  : 						debug_log ("EN_SESSN: LIST_REPAIRING: en %s (%d), list %s parent not set. Setting to %s (%d)", get_local_entity_type_name (succ), get_local_entity_index (succ), get_list_type_name (this_entity_list->list_type), get_local_entity_type_name (parent), get_local_entity_index (parent));
; 990  : 
; 991  : 						#endif
; 992  : 					}
; 993  : 				}
; 994  : 			}
; 995  : 			/////////////////////////////////////////////////////////////////
; 996  : 
; 997  : 			/////////////////////////////////////////////////////////////////
; 998  : 			// check pred
; 999  : 			pred = get_local_entity_child_pred (en, this_entity_list->list_type);

  005c5	83 7d fc 00	 cmp	 DWORD PTR _en$[ebp], 0
  005c9	74 0a		 je	 SHORT $LN56@process_en
  005cb	8b 45 fc	 mov	 eax, DWORD PTR _en$[ebp]
  005ce	8b 08		 mov	 ecx, DWORD PTR [eax]
  005d0	89 4d a4	 mov	 DWORD PTR tv347[ebp], ecx
  005d3	eb 21		 jmp	 SHORT $LN57@process_en
$LN56@process_en:
  005d5	8b 15 00 00 00
	00		 mov	 edx, DWORD PTR ?__LINE__Var@?0??process_entity_list_link_validation@@YGXXZ@4JA
  005db	83 c2 57	 add	 edx, 87			; 00000057H
  005de	52		 push	 edx
  005df	68 00 00 00 00	 push	 OFFSET ??_C@_0EO@HOHMAODH@c?3?2users?2nhv90?2projects?2eech?2ap@
  005e4	a1 00 00 00 00	 mov	 eax, DWORD PTR ?null_entity_pointer_message@@3PBDB ; null_entity_pointer_message
  005e9	50		 push	 eax
  005ea	e8 00 00 00 00	 call	 ?process_assert@@YGXPBD0H@Z ; process_assert
  005ef	c7 45 a4 00 00
	00 00		 mov	 DWORD PTR tv347[ebp], 0
$LN57@process_en:
  005f6	8b 4d e8	 mov	 ecx, DWORD PTR _this_entity_list$[ebp]
  005f9	83 79 04 00	 cmp	 DWORD PTR [ecx+4], 0
  005fd	7c 14		 jl	 SHORT $LN58@process_en
  005ff	8b 55 e8	 mov	 edx, DWORD PTR _this_entity_list$[ebp]
  00602	83 7a 04 2d	 cmp	 DWORD PTR [edx+4], 45	; 0000002dH
  00606	7d 0b		 jge	 SHORT $LN58@process_en
  00608	8b 45 e8	 mov	 eax, DWORD PTR _this_entity_list$[ebp]
  0060b	8b 48 04	 mov	 ecx, DWORD PTR [eax+4]
  0060e	89 4d a0	 mov	 DWORD PTR tv359[ebp], ecx
  00611	eb 21		 jmp	 SHORT $LN59@process_en
$LN58@process_en:
  00613	8b 15 00 00 00
	00		 mov	 edx, DWORD PTR ?__LINE__Var@?0??process_entity_list_link_validation@@YGXXZ@4JA
  00619	83 c2 57	 add	 edx, 87			; 00000057H
  0061c	52		 push	 edx
  0061d	68 00 00 00 00	 push	 OFFSET ??_C@_0EO@HOHMAODH@c?3?2users?2nhv90?2projects?2eech?2ap@
  00622	a1 00 00 00 00	 mov	 eax, DWORD PTR ?overload_invalid_list_type_message@@3PBDB ; overload_invalid_list_type_message
  00627	50		 push	 eax
  00628	e8 00 00 00 00	 call	 ?process_assert@@YGXPBD0H@Z ; process_assert
  0062d	c7 45 a0 00 00
	00 00		 mov	 DWORD PTR tv359[ebp], 0
$LN59@process_en:
  00634	8b 4d e8	 mov	 ecx, DWORD PTR _this_entity_list$[ebp]
  00637	8b 51 04	 mov	 edx, DWORD PTR [ecx+4]
  0063a	52		 push	 edx
  0063b	8b 45 fc	 mov	 eax, DWORD PTR _en$[ebp]
  0063e	50		 push	 eax
  0063f	69 4d a4 b4 00
	00 00		 imul	 ecx, DWORD PTR tv347[ebp], 180
  00646	8b 55 a0	 mov	 edx, DWORD PTR tv359[ebp]
  00649	8b 84 91 00 00
	00 00		 mov	 eax, DWORD PTR ?fn_get_local_entity_child_pred@@3PAY0CN@P6GPAUENTITY@@PAU1@W4LIST_TYPES@@@ZA[ecx+edx*4]
  00650	ff d0		 call	 eax
  00652	89 45 f4	 mov	 DWORD PTR _pred$[ebp], eax

; 1000 : 
; 1001 : 			if (pred)

  00655	83 7d f4 00	 cmp	 DWORD PTR _pred$[ebp], 0
  00659	0f 84 06 03 00
	00		 je	 $LN13@process_en

; 1002 : 			{
; 1003 : 
; 1004 : 				ASSERT (pred->type != ENTITY_TYPE_UNKNOWN);

  0065f	8b 45 f4	 mov	 eax, DWORD PTR _pred$[ebp]
  00662	83 38 00	 cmp	 DWORD PTR [eax], 0
  00665	75 18		 jne	 SHORT $LN14@process_en
  00667	a1 00 00 00 00	 mov	 eax, DWORD PTR ?__LINE__Var@?0??process_entity_list_link_validation@@YGXXZ@4JA
  0066c	83 c0 5c	 add	 eax, 92			; 0000005cH
  0066f	50		 push	 eax
  00670	68 00 00 00 00	 push	 OFFSET ??_C@_0EO@HOHMAODH@c?3?2users?2nhv90?2projects?2eech?2ap@
  00675	68 00 00 00 00	 push	 OFFSET ??_C@_0CC@IKHPKHMB@pred?9?$DOtype?5?$CB?$DN?5ENTITY_TYPE_UNKNO@
  0067a	e8 00 00 00 00	 call	 ?process_assert@@YGXPBD0H@Z ; process_assert
$LN14@process_en:

; 1005 : 
; 1006 : 				if (get_local_entity_child_succ (pred, this_entity_list->list_type) != en)

  0067f	83 7d f4 00	 cmp	 DWORD PTR _pred$[ebp], 0
  00683	74 0a		 je	 SHORT $LN60@process_en
  00685	8b 45 f4	 mov	 eax, DWORD PTR _pred$[ebp]
  00688	8b 08		 mov	 ecx, DWORD PTR [eax]
  0068a	89 4d a4	 mov	 DWORD PTR tv378[ebp], ecx
  0068d	eb 1d		 jmp	 SHORT $LN61@process_en
$LN60@process_en:
  0068f	68 ee 03 00 00	 push	 1006			; 000003eeH
  00694	68 00 00 00 00	 push	 OFFSET ??_C@_0EO@HOHMAODH@c?3?2users?2nhv90?2projects?2eech?2ap@
  00699	8b 15 00 00 00
	00		 mov	 edx, DWORD PTR ?null_entity_pointer_message@@3PBDB ; null_entity_pointer_message
  0069f	52		 push	 edx
  006a0	e8 00 00 00 00	 call	 ?process_assert@@YGXPBD0H@Z ; process_assert
  006a5	c7 45 a4 00 00
	00 00		 mov	 DWORD PTR tv378[ebp], 0
$LN61@process_en:
  006ac	8b 45 e8	 mov	 eax, DWORD PTR _this_entity_list$[ebp]
  006af	83 78 04 00	 cmp	 DWORD PTR [eax+4], 0
  006b3	7c 14		 jl	 SHORT $LN62@process_en
  006b5	8b 4d e8	 mov	 ecx, DWORD PTR _this_entity_list$[ebp]
  006b8	83 79 04 2d	 cmp	 DWORD PTR [ecx+4], 45	; 0000002dH
  006bc	7d 0b		 jge	 SHORT $LN62@process_en
  006be	8b 55 e8	 mov	 edx, DWORD PTR _this_entity_list$[ebp]
  006c1	8b 42 04	 mov	 eax, DWORD PTR [edx+4]
  006c4	89 45 a0	 mov	 DWORD PTR tv389[ebp], eax
  006c7	eb 1d		 jmp	 SHORT $LN63@process_en
$LN62@process_en:
  006c9	68 ee 03 00 00	 push	 1006			; 000003eeH
  006ce	68 00 00 00 00	 push	 OFFSET ??_C@_0EO@HOHMAODH@c?3?2users?2nhv90?2projects?2eech?2ap@
  006d3	8b 0d 00 00 00
	00		 mov	 ecx, DWORD PTR ?overload_invalid_list_type_message@@3PBDB ; overload_invalid_list_type_message
  006d9	51		 push	 ecx
  006da	e8 00 00 00 00	 call	 ?process_assert@@YGXPBD0H@Z ; process_assert
  006df	c7 45 a0 00 00
	00 00		 mov	 DWORD PTR tv389[ebp], 0
$LN63@process_en:
  006e6	8b 55 e8	 mov	 edx, DWORD PTR _this_entity_list$[ebp]
  006e9	8b 42 04	 mov	 eax, DWORD PTR [edx+4]
  006ec	50		 push	 eax
  006ed	8b 4d f4	 mov	 ecx, DWORD PTR _pred$[ebp]
  006f0	51		 push	 ecx
  006f1	69 55 a4 b4 00
	00 00		 imul	 edx, DWORD PTR tv378[ebp], 180
  006f8	8b 45 a0	 mov	 eax, DWORD PTR tv389[ebp]
  006fb	8b 8c 82 00 00
	00 00		 mov	 ecx, DWORD PTR ?fn_get_local_entity_child_succ@@3PAY0CN@P6GPAUENTITY@@PAU1@W4LIST_TYPES@@@ZA[edx+eax*4]
  00702	ff d1		 call	 ecx
  00704	3b 45 fc	 cmp	 eax, DWORD PTR _en$[ebp]
  00707	0f 84 58 02 00
	00		 je	 $LN13@process_en

; 1007 : 				{
; 1008 : 
; 1009 : 					ASSERT (get_local_entity_child_succ (pred, this_entity_list->list_type) == NULL);

  0070d	83 7d f4 00	 cmp	 DWORD PTR _pred$[ebp], 0
  00711	74 0a		 je	 SHORT $LN64@process_en
  00713	8b 45 f4	 mov	 eax, DWORD PTR _pred$[ebp]
  00716	8b 08		 mov	 ecx, DWORD PTR [eax]
  00718	89 4d a4	 mov	 DWORD PTR tv403[ebp], ecx
  0071b	eb 21		 jmp	 SHORT $LN65@process_en
$LN64@process_en:
  0071d	8b 15 00 00 00
	00		 mov	 edx, DWORD PTR ?__LINE__Var@?0??process_entity_list_link_validation@@YGXXZ@4JA
  00723	83 c2 61	 add	 edx, 97			; 00000061H
  00726	52		 push	 edx
  00727	68 00 00 00 00	 push	 OFFSET ??_C@_0EO@HOHMAODH@c?3?2users?2nhv90?2projects?2eech?2ap@
  0072c	a1 00 00 00 00	 mov	 eax, DWORD PTR ?null_entity_pointer_message@@3PBDB ; null_entity_pointer_message
  00731	50		 push	 eax
  00732	e8 00 00 00 00	 call	 ?process_assert@@YGXPBD0H@Z ; process_assert
  00737	c7 45 a4 00 00
	00 00		 mov	 DWORD PTR tv403[ebp], 0
$LN65@process_en:
  0073e	8b 4d e8	 mov	 ecx, DWORD PTR _this_entity_list$[ebp]
  00741	83 79 04 00	 cmp	 DWORD PTR [ecx+4], 0
  00745	7c 14		 jl	 SHORT $LN66@process_en
  00747	8b 55 e8	 mov	 edx, DWORD PTR _this_entity_list$[ebp]
  0074a	83 7a 04 2d	 cmp	 DWORD PTR [edx+4], 45	; 0000002dH
  0074e	7d 0b		 jge	 SHORT $LN66@process_en
  00750	8b 45 e8	 mov	 eax, DWORD PTR _this_entity_list$[ebp]
  00753	8b 48 04	 mov	 ecx, DWORD PTR [eax+4]
  00756	89 4d a0	 mov	 DWORD PTR tv415[ebp], ecx
  00759	eb 21		 jmp	 SHORT $LN67@process_en
$LN66@process_en:
  0075b	8b 15 00 00 00
	00		 mov	 edx, DWORD PTR ?__LINE__Var@?0??process_entity_list_link_validation@@YGXXZ@4JA
  00761	83 c2 61	 add	 edx, 97			; 00000061H
  00764	52		 push	 edx
  00765	68 00 00 00 00	 push	 OFFSET ??_C@_0EO@HOHMAODH@c?3?2users?2nhv90?2projects?2eech?2ap@
  0076a	a1 00 00 00 00	 mov	 eax, DWORD PTR ?overload_invalid_list_type_message@@3PBDB ; overload_invalid_list_type_message
  0076f	50		 push	 eax
  00770	e8 00 00 00 00	 call	 ?process_assert@@YGXPBD0H@Z ; process_assert
  00775	c7 45 a0 00 00
	00 00		 mov	 DWORD PTR tv415[ebp], 0
$LN67@process_en:
  0077c	8b 4d e8	 mov	 ecx, DWORD PTR _this_entity_list$[ebp]
  0077f	8b 51 04	 mov	 edx, DWORD PTR [ecx+4]
  00782	52		 push	 edx
  00783	8b 45 f4	 mov	 eax, DWORD PTR _pred$[ebp]
  00786	50		 push	 eax
  00787	69 4d a4 b4 00
	00 00		 imul	 ecx, DWORD PTR tv403[ebp], 180
  0078e	8b 55 a0	 mov	 edx, DWORD PTR tv415[ebp]
  00791	8b 84 91 00 00
	00 00		 mov	 eax, DWORD PTR ?fn_get_local_entity_child_succ@@3PAY0CN@P6GPAUENTITY@@PAU1@W4LIST_TYPES@@@ZA[ecx+edx*4]
  00798	ff d0		 call	 eax
  0079a	85 c0		 test	 eax, eax
  0079c	74 18		 je	 SHORT $LN16@process_en
  0079e	a1 00 00 00 00	 mov	 eax, DWORD PTR ?__LINE__Var@?0??process_entity_list_link_validation@@YGXXZ@4JA
  007a3	83 c0 61	 add	 eax, 97			; 00000061H
  007a6	50		 push	 eax
  007a7	68 00 00 00 00	 push	 OFFSET ??_C@_0EO@HOHMAODH@c?3?2users?2nhv90?2projects?2eech?2ap@
  007ac	68 00 00 00 00	 push	 OFFSET ??_C@_0EI@FMJGFCIP@get_local_entity_child_succ?5?$CIpr@
  007b1	e8 00 00 00 00	 call	 ?process_assert@@YGXPBD0H@Z ; process_assert
$LN16@process_en:

; 1010 : 
; 1011 : 					set_local_entity_child_succ (pred, this_entity_list->list_type, en);

  007b6	83 7d f4 00	 cmp	 DWORD PTR _pred$[ebp], 0
  007ba	74 0a		 je	 SHORT $LN68@process_en
  007bc	8b 45 f4	 mov	 eax, DWORD PTR _pred$[ebp]
  007bf	8b 08		 mov	 ecx, DWORD PTR [eax]
  007c1	89 4d a4	 mov	 DWORD PTR tv433[ebp], ecx
  007c4	eb 21		 jmp	 SHORT $LN69@process_en
$LN68@process_en:
  007c6	8b 15 00 00 00
	00		 mov	 edx, DWORD PTR ?__LINE__Var@?0??process_entity_list_link_validation@@YGXXZ@4JA
  007cc	83 c2 63	 add	 edx, 99			; 00000063H
  007cf	52		 push	 edx
  007d0	68 00 00 00 00	 push	 OFFSET ??_C@_0EO@HOHMAODH@c?3?2users?2nhv90?2projects?2eech?2ap@
  007d5	a1 00 00 00 00	 mov	 eax, DWORD PTR ?null_entity_pointer_message@@3PBDB ; null_entity_pointer_message
  007da	50		 push	 eax
  007db	e8 00 00 00 00	 call	 ?process_assert@@YGXPBD0H@Z ; process_assert
  007e0	c7 45 a4 00 00
	00 00		 mov	 DWORD PTR tv433[ebp], 0
$LN69@process_en:
  007e7	8b 4d e8	 mov	 ecx, DWORD PTR _this_entity_list$[ebp]
  007ea	83 79 04 00	 cmp	 DWORD PTR [ecx+4], 0
  007ee	7c 14		 jl	 SHORT $LN70@process_en
  007f0	8b 55 e8	 mov	 edx, DWORD PTR _this_entity_list$[ebp]
  007f3	83 7a 04 2d	 cmp	 DWORD PTR [edx+4], 45	; 0000002dH
  007f7	7d 0b		 jge	 SHORT $LN70@process_en
  007f9	8b 45 e8	 mov	 eax, DWORD PTR _this_entity_list$[ebp]
  007fc	8b 48 04	 mov	 ecx, DWORD PTR [eax+4]
  007ff	89 4d a0	 mov	 DWORD PTR tv445[ebp], ecx
  00802	eb 21		 jmp	 SHORT $LN71@process_en
$LN70@process_en:
  00804	8b 15 00 00 00
	00		 mov	 edx, DWORD PTR ?__LINE__Var@?0??process_entity_list_link_validation@@YGXXZ@4JA
  0080a	83 c2 63	 add	 edx, 99			; 00000063H
  0080d	52		 push	 edx
  0080e	68 00 00 00 00	 push	 OFFSET ??_C@_0EO@HOHMAODH@c?3?2users?2nhv90?2projects?2eech?2ap@
  00813	a1 00 00 00 00	 mov	 eax, DWORD PTR ?overload_invalid_list_type_message@@3PBDB ; overload_invalid_list_type_message
  00818	50		 push	 eax
  00819	e8 00 00 00 00	 call	 ?process_assert@@YGXPBD0H@Z ; process_assert
  0081e	c7 45 a0 00 00
	00 00		 mov	 DWORD PTR tv445[ebp], 0
$LN71@process_en:
  00825	8b 4d fc	 mov	 ecx, DWORD PTR _en$[ebp]
  00828	51		 push	 ecx
  00829	8b 55 e8	 mov	 edx, DWORD PTR _this_entity_list$[ebp]
  0082c	8b 42 04	 mov	 eax, DWORD PTR [edx+4]
  0082f	50		 push	 eax
  00830	8b 4d f4	 mov	 ecx, DWORD PTR _pred$[ebp]
  00833	51		 push	 ecx
  00834	69 55 a4 b4 00
	00 00		 imul	 edx, DWORD PTR tv433[ebp], 180
  0083b	8b 45 a0	 mov	 eax, DWORD PTR tv445[ebp]
  0083e	8b 8c 82 00 00
	00 00		 mov	 ecx, DWORD PTR ?fn_set_local_entity_child_succ@@3PAY0CN@P6GXPAUENTITY@@W4LIST_TYPES@@0@ZA[edx+eax*4]
  00845	ff d1		 call	 ecx

; 1012 : 
; 1013 : 					#if DEBUG_MODULE
; 1014 : 
; 1015 : 					debug_log ("EN_SESSN: LIST_REPAIRING: en %s (%d), list %s child_succ not set. Setting to %s (%d)", get_local_entity_type_name (en), get_local_entity_index (en), get_list_type_name (this_entity_list->list_type), get_local_entity_type_name (pred), get_local_entity_index (pred));
; 1016 : 
; 1017 : 					#endif
; 1018 : 
; 1019 : 					if (get_local_entity_parent (pred, this_entity_list->list_type) == NULL)

  00847	83 7d f4 00	 cmp	 DWORD PTR _pred$[ebp], 0
  0084b	74 0a		 je	 SHORT $LN72@process_en
  0084d	8b 45 f4	 mov	 eax, DWORD PTR _pred$[ebp]
  00850	8b 08		 mov	 ecx, DWORD PTR [eax]
  00852	89 4d a4	 mov	 DWORD PTR tv457[ebp], ecx
  00855	eb 1d		 jmp	 SHORT $LN73@process_en
$LN72@process_en:
  00857	68 fb 03 00 00	 push	 1019			; 000003fbH
  0085c	68 00 00 00 00	 push	 OFFSET ??_C@_0EO@HOHMAODH@c?3?2users?2nhv90?2projects?2eech?2ap@
  00861	8b 15 00 00 00
	00		 mov	 edx, DWORD PTR ?null_entity_pointer_message@@3PBDB ; null_entity_pointer_message
  00867	52		 push	 edx
  00868	e8 00 00 00 00	 call	 ?process_assert@@YGXPBD0H@Z ; process_assert
  0086d	c7 45 a4 00 00
	00 00		 mov	 DWORD PTR tv457[ebp], 0
$LN73@process_en:
  00874	8b 45 e8	 mov	 eax, DWORD PTR _this_entity_list$[ebp]
  00877	83 78 04 00	 cmp	 DWORD PTR [eax+4], 0
  0087b	7c 14		 jl	 SHORT $LN74@process_en
  0087d	8b 4d e8	 mov	 ecx, DWORD PTR _this_entity_list$[ebp]
  00880	83 79 04 2d	 cmp	 DWORD PTR [ecx+4], 45	; 0000002dH
  00884	7d 0b		 jge	 SHORT $LN74@process_en
  00886	8b 55 e8	 mov	 edx, DWORD PTR _this_entity_list$[ebp]
  00889	8b 42 04	 mov	 eax, DWORD PTR [edx+4]
  0088c	89 45 a0	 mov	 DWORD PTR tv468[ebp], eax
  0088f	eb 1d		 jmp	 SHORT $LN75@process_en
$LN74@process_en:
  00891	68 fb 03 00 00	 push	 1019			; 000003fbH
  00896	68 00 00 00 00	 push	 OFFSET ??_C@_0EO@HOHMAODH@c?3?2users?2nhv90?2projects?2eech?2ap@
  0089b	8b 0d 00 00 00
	00		 mov	 ecx, DWORD PTR ?overload_invalid_list_type_message@@3PBDB ; overload_invalid_list_type_message
  008a1	51		 push	 ecx
  008a2	e8 00 00 00 00	 call	 ?process_assert@@YGXPBD0H@Z ; process_assert
  008a7	c7 45 a0 00 00
	00 00		 mov	 DWORD PTR tv468[ebp], 0
$LN75@process_en:
  008ae	8b 55 e8	 mov	 edx, DWORD PTR _this_entity_list$[ebp]
  008b1	8b 42 04	 mov	 eax, DWORD PTR [edx+4]
  008b4	50		 push	 eax
  008b5	8b 4d f4	 mov	 ecx, DWORD PTR _pred$[ebp]
  008b8	51		 push	 ecx
  008b9	69 55 a4 b4 00
	00 00		 imul	 edx, DWORD PTR tv457[ebp], 180
  008c0	8b 45 a0	 mov	 eax, DWORD PTR tv468[ebp]
  008c3	8b 8c 82 00 00
	00 00		 mov	 ecx, DWORD PTR ?fn_get_local_entity_parent@@3PAY0CN@P6GPAUENTITY@@PAU1@W4LIST_TYPES@@@ZA[edx+eax*4]
  008ca	ff d1		 call	 ecx
  008cc	85 c0		 test	 eax, eax
  008ce	0f 85 91 00 00
	00		 jne	 $LN13@process_en

; 1020 : 					{
; 1021 : 
; 1022 : 						set_local_entity_parent (pred, this_entity_list->list_type, parent);

  008d4	83 7d f4 00	 cmp	 DWORD PTR _pred$[ebp], 0
  008d8	74 0a		 je	 SHORT $LN76@process_en
  008da	8b 45 f4	 mov	 eax, DWORD PTR _pred$[ebp]
  008dd	8b 08		 mov	 ecx, DWORD PTR [eax]
  008df	89 4d a4	 mov	 DWORD PTR tv482[ebp], ecx
  008e2	eb 21		 jmp	 SHORT $LN77@process_en
$LN76@process_en:
  008e4	8b 15 00 00 00
	00		 mov	 edx, DWORD PTR ?__LINE__Var@?0??process_entity_list_link_validation@@YGXXZ@4JA
  008ea	83 c2 6e	 add	 edx, 110		; 0000006eH
  008ed	52		 push	 edx
  008ee	68 00 00 00 00	 push	 OFFSET ??_C@_0EO@HOHMAODH@c?3?2users?2nhv90?2projects?2eech?2ap@
  008f3	a1 00 00 00 00	 mov	 eax, DWORD PTR ?null_entity_pointer_message@@3PBDB ; null_entity_pointer_message
  008f8	50		 push	 eax
  008f9	e8 00 00 00 00	 call	 ?process_assert@@YGXPBD0H@Z ; process_assert
  008fe	c7 45 a4 00 00
	00 00		 mov	 DWORD PTR tv482[ebp], 0
$LN77@process_en:
  00905	8b 4d e8	 mov	 ecx, DWORD PTR _this_entity_list$[ebp]
  00908	83 79 04 00	 cmp	 DWORD PTR [ecx+4], 0
  0090c	7c 14		 jl	 SHORT $LN78@process_en
  0090e	8b 55 e8	 mov	 edx, DWORD PTR _this_entity_list$[ebp]
  00911	83 7a 04 2d	 cmp	 DWORD PTR [edx+4], 45	; 0000002dH
  00915	7d 0b		 jge	 SHORT $LN78@process_en
  00917	8b 45 e8	 mov	 eax, DWORD PTR _this_entity_list$[ebp]
  0091a	8b 48 04	 mov	 ecx, DWORD PTR [eax+4]
  0091d	89 4d a0	 mov	 DWORD PTR tv494[ebp], ecx
  00920	eb 21		 jmp	 SHORT $LN79@process_en
$LN78@process_en:
  00922	8b 15 00 00 00
	00		 mov	 edx, DWORD PTR ?__LINE__Var@?0??process_entity_list_link_validation@@YGXXZ@4JA
  00928	83 c2 6e	 add	 edx, 110		; 0000006eH
  0092b	52		 push	 edx
  0092c	68 00 00 00 00	 push	 OFFSET ??_C@_0EO@HOHMAODH@c?3?2users?2nhv90?2projects?2eech?2ap@
  00931	a1 00 00 00 00	 mov	 eax, DWORD PTR ?overload_invalid_list_type_message@@3PBDB ; overload_invalid_list_type_message
  00936	50		 push	 eax
  00937	e8 00 00 00 00	 call	 ?process_assert@@YGXPBD0H@Z ; process_assert
  0093c	c7 45 a0 00 00
	00 00		 mov	 DWORD PTR tv494[ebp], 0
$LN79@process_en:
  00943	8b 4d f0	 mov	 ecx, DWORD PTR _parent$[ebp]
  00946	51		 push	 ecx
  00947	8b 55 e8	 mov	 edx, DWORD PTR _this_entity_list$[ebp]
  0094a	8b 42 04	 mov	 eax, DWORD PTR [edx+4]
  0094d	50		 push	 eax
  0094e	8b 4d f4	 mov	 ecx, DWORD PTR _pred$[ebp]
  00951	51		 push	 ecx
  00952	69 55 a4 b4 00
	00 00		 imul	 edx, DWORD PTR tv482[ebp], 180
  00959	8b 45 a0	 mov	 eax, DWORD PTR tv494[ebp]
  0095c	8b 8c 82 00 00
	00 00		 mov	 ecx, DWORD PTR ?fn_set_local_entity_parent@@3PAY0CN@P6GXPAUENTITY@@W4LIST_TYPES@@0@ZA[edx+eax*4]
  00963	ff d1		 call	 ecx
$LN13@process_en:

; 1023 : 
; 1024 : 						#if DEBUG_MODULE
; 1025 : 
; 1026 : 						debug_log ("EN_SESSN: LIST_REPAIRING: en %s (%d), list %s parent not set. Setting to %s (%d)", get_local_entity_type_name (pred), get_local_entity_index (pred), get_list_type_name (this_entity_list->list_type), get_local_entity_type_name (parent), get_local_entity_index (parent));
; 1027 : 
; 1028 : 						#endif
; 1029 : 					}
; 1030 : 				}
; 1031 : 			}
; 1032 : 			/////////////////////////////////////////////////////////////////
; 1033 : 
; 1034 : 			last_en = en;

  00965	8b 45 fc	 mov	 eax, DWORD PTR _en$[ebp]
  00968	89 45 ec	 mov	 DWORD PTR _last_en$[ebp], eax

; 1035 : 
; 1036 : 			en = get_local_entity_child_pred (en, this_entity_list->list_type);

  0096b	83 7d fc 00	 cmp	 DWORD PTR _en$[ebp], 0
  0096f	74 0a		 je	 SHORT $LN80@process_en
  00971	8b 45 fc	 mov	 eax, DWORD PTR _en$[ebp]
  00974	8b 08		 mov	 ecx, DWORD PTR [eax]
  00976	89 4d a4	 mov	 DWORD PTR tv507[ebp], ecx
  00979	eb 21		 jmp	 SHORT $LN81@process_en
$LN80@process_en:
  0097b	8b 15 00 00 00
	00		 mov	 edx, DWORD PTR ?__LINE__Var@?0??process_entity_list_link_validation@@YGXXZ@4JA
  00981	83 c2 7c	 add	 edx, 124		; 0000007cH
  00984	52		 push	 edx
  00985	68 00 00 00 00	 push	 OFFSET ??_C@_0EO@HOHMAODH@c?3?2users?2nhv90?2projects?2eech?2ap@
  0098a	a1 00 00 00 00	 mov	 eax, DWORD PTR ?null_entity_pointer_message@@3PBDB ; null_entity_pointer_message
  0098f	50		 push	 eax
  00990	e8 00 00 00 00	 call	 ?process_assert@@YGXPBD0H@Z ; process_assert
  00995	c7 45 a4 00 00
	00 00		 mov	 DWORD PTR tv507[ebp], 0
$LN81@process_en:
  0099c	8b 4d e8	 mov	 ecx, DWORD PTR _this_entity_list$[ebp]
  0099f	83 79 04 00	 cmp	 DWORD PTR [ecx+4], 0
  009a3	7c 14		 jl	 SHORT $LN82@process_en
  009a5	8b 55 e8	 mov	 edx, DWORD PTR _this_entity_list$[ebp]
  009a8	83 7a 04 2d	 cmp	 DWORD PTR [edx+4], 45	; 0000002dH
  009ac	7d 0b		 jge	 SHORT $LN82@process_en
  009ae	8b 45 e8	 mov	 eax, DWORD PTR _this_entity_list$[ebp]
  009b1	8b 48 04	 mov	 ecx, DWORD PTR [eax+4]
  009b4	89 4d a0	 mov	 DWORD PTR tv519[ebp], ecx
  009b7	eb 21		 jmp	 SHORT $LN83@process_en
$LN82@process_en:
  009b9	8b 15 00 00 00
	00		 mov	 edx, DWORD PTR ?__LINE__Var@?0??process_entity_list_link_validation@@YGXXZ@4JA
  009bf	83 c2 7c	 add	 edx, 124		; 0000007cH
  009c2	52		 push	 edx
  009c3	68 00 00 00 00	 push	 OFFSET ??_C@_0EO@HOHMAODH@c?3?2users?2nhv90?2projects?2eech?2ap@
  009c8	a1 00 00 00 00	 mov	 eax, DWORD PTR ?overload_invalid_list_type_message@@3PBDB ; overload_invalid_list_type_message
  009cd	50		 push	 eax
  009ce	e8 00 00 00 00	 call	 ?process_assert@@YGXPBD0H@Z ; process_assert
  009d3	c7 45 a0 00 00
	00 00		 mov	 DWORD PTR tv519[ebp], 0
$LN83@process_en:
  009da	8b 4d e8	 mov	 ecx, DWORD PTR _this_entity_list$[ebp]
  009dd	8b 51 04	 mov	 edx, DWORD PTR [ecx+4]
  009e0	52		 push	 edx
  009e1	8b 45 fc	 mov	 eax, DWORD PTR _en$[ebp]
  009e4	50		 push	 eax
  009e5	69 4d a4 b4 00
	00 00		 imul	 ecx, DWORD PTR tv507[ebp], 180
  009ec	8b 55 a0	 mov	 edx, DWORD PTR tv519[ebp]
  009ef	8b 84 91 00 00
	00 00		 mov	 eax, DWORD PTR ?fn_get_local_entity_child_pred@@3PAY0CN@P6GPAUENTITY@@PAU1@W4LIST_TYPES@@@ZA[ecx+edx*4]
  009f6	ff d0		 call	 eax
  009f8	89 45 fc	 mov	 DWORD PTR _en$[ebp], eax

; 1037 : 		}

  009fb	e9 3f f6 ff ff	 jmp	 $LN4@process_en
$LN5@process_en:

; 1038 : 
; 1039 : 		/////////////////////////////////////////////////////////////////
; 1040 : 		// check first child links to parent
; 1041 : 		parent = get_local_entity_parent (last_en, this_entity_list->list_type);

  00a00	83 7d ec 00	 cmp	 DWORD PTR _last_en$[ebp], 0
  00a04	74 0a		 je	 SHORT $LN84@process_en
  00a06	8b 45 ec	 mov	 eax, DWORD PTR _last_en$[ebp]
  00a09	8b 08		 mov	 ecx, DWORD PTR [eax]
  00a0b	89 4d a4	 mov	 DWORD PTR tv532[ebp], ecx
  00a0e	eb 24		 jmp	 SHORT $LN85@process_en
$LN84@process_en:
  00a10	8b 15 00 00 00
	00		 mov	 edx, DWORD PTR ?__LINE__Var@?0??process_entity_list_link_validation@@YGXXZ@4JA
  00a16	81 c2 81 00 00
	00		 add	 edx, 129		; 00000081H
  00a1c	52		 push	 edx
  00a1d	68 00 00 00 00	 push	 OFFSET ??_C@_0EO@HOHMAODH@c?3?2users?2nhv90?2projects?2eech?2ap@
  00a22	a1 00 00 00 00	 mov	 eax, DWORD PTR ?null_entity_pointer_message@@3PBDB ; null_entity_pointer_message
  00a27	50		 push	 eax
  00a28	e8 00 00 00 00	 call	 ?process_assert@@YGXPBD0H@Z ; process_assert
  00a2d	c7 45 a4 00 00
	00 00		 mov	 DWORD PTR tv532[ebp], 0
$LN85@process_en:
  00a34	8b 4d e8	 mov	 ecx, DWORD PTR _this_entity_list$[ebp]
  00a37	83 79 04 00	 cmp	 DWORD PTR [ecx+4], 0
  00a3b	7c 14		 jl	 SHORT $LN86@process_en
  00a3d	8b 55 e8	 mov	 edx, DWORD PTR _this_entity_list$[ebp]
  00a40	83 7a 04 2d	 cmp	 DWORD PTR [edx+4], 45	; 0000002dH
  00a44	7d 0b		 jge	 SHORT $LN86@process_en
  00a46	8b 45 e8	 mov	 eax, DWORD PTR _this_entity_list$[ebp]
  00a49	8b 48 04	 mov	 ecx, DWORD PTR [eax+4]
  00a4c	89 4d a0	 mov	 DWORD PTR tv544[ebp], ecx
  00a4f	eb 24		 jmp	 SHORT $LN87@process_en
$LN86@process_en:
  00a51	8b 15 00 00 00
	00		 mov	 edx, DWORD PTR ?__LINE__Var@?0??process_entity_list_link_validation@@YGXXZ@4JA
  00a57	81 c2 81 00 00
	00		 add	 edx, 129		; 00000081H
  00a5d	52		 push	 edx
  00a5e	68 00 00 00 00	 push	 OFFSET ??_C@_0EO@HOHMAODH@c?3?2users?2nhv90?2projects?2eech?2ap@
  00a63	a1 00 00 00 00	 mov	 eax, DWORD PTR ?overload_invalid_list_type_message@@3PBDB ; overload_invalid_list_type_message
  00a68	50		 push	 eax
  00a69	e8 00 00 00 00	 call	 ?process_assert@@YGXPBD0H@Z ; process_assert
  00a6e	c7 45 a0 00 00
	00 00		 mov	 DWORD PTR tv544[ebp], 0
$LN87@process_en:
  00a75	8b 4d e8	 mov	 ecx, DWORD PTR _this_entity_list$[ebp]
  00a78	8b 51 04	 mov	 edx, DWORD PTR [ecx+4]
  00a7b	52		 push	 edx
  00a7c	8b 45 ec	 mov	 eax, DWORD PTR _last_en$[ebp]
  00a7f	50		 push	 eax
  00a80	69 4d a4 b4 00
	00 00		 imul	 ecx, DWORD PTR tv532[ebp], 180
  00a87	8b 55 a0	 mov	 edx, DWORD PTR tv544[ebp]
  00a8a	8b 84 91 00 00
	00 00		 mov	 eax, DWORD PTR ?fn_get_local_entity_parent@@3PAY0CN@P6GPAUENTITY@@PAU1@W4LIST_TYPES@@@ZA[ecx+edx*4]
  00a91	ff d0		 call	 eax
  00a93	89 45 f0	 mov	 DWORD PTR _parent$[ebp], eax

; 1042 : 
; 1043 : 		if (get_local_entity_first_child (parent, this_entity_list->list_type) != last_en)

  00a96	83 7d f0 00	 cmp	 DWORD PTR _parent$[ebp], 0
  00a9a	74 0a		 je	 SHORT $LN88@process_en
  00a9c	8b 45 f0	 mov	 eax, DWORD PTR _parent$[ebp]
  00a9f	8b 08		 mov	 ecx, DWORD PTR [eax]
  00aa1	89 4d a4	 mov	 DWORD PTR tv556[ebp], ecx
  00aa4	eb 1d		 jmp	 SHORT $LN89@process_en
$LN88@process_en:
  00aa6	68 13 04 00 00	 push	 1043			; 00000413H
  00aab	68 00 00 00 00	 push	 OFFSET ??_C@_0EO@HOHMAODH@c?3?2users?2nhv90?2projects?2eech?2ap@
  00ab0	8b 15 00 00 00
	00		 mov	 edx, DWORD PTR ?null_entity_pointer_message@@3PBDB ; null_entity_pointer_message
  00ab6	52		 push	 edx
  00ab7	e8 00 00 00 00	 call	 ?process_assert@@YGXPBD0H@Z ; process_assert
  00abc	c7 45 a4 00 00
	00 00		 mov	 DWORD PTR tv556[ebp], 0
$LN89@process_en:
  00ac3	8b 45 e8	 mov	 eax, DWORD PTR _this_entity_list$[ebp]
  00ac6	83 78 04 00	 cmp	 DWORD PTR [eax+4], 0
  00aca	7c 14		 jl	 SHORT $LN90@process_en
  00acc	8b 4d e8	 mov	 ecx, DWORD PTR _this_entity_list$[ebp]
  00acf	83 79 04 2d	 cmp	 DWORD PTR [ecx+4], 45	; 0000002dH
  00ad3	7d 0b		 jge	 SHORT $LN90@process_en
  00ad5	8b 55 e8	 mov	 edx, DWORD PTR _this_entity_list$[ebp]
  00ad8	8b 42 04	 mov	 eax, DWORD PTR [edx+4]
  00adb	89 45 a0	 mov	 DWORD PTR tv567[ebp], eax
  00ade	eb 1d		 jmp	 SHORT $LN91@process_en
$LN90@process_en:
  00ae0	68 13 04 00 00	 push	 1043			; 00000413H
  00ae5	68 00 00 00 00	 push	 OFFSET ??_C@_0EO@HOHMAODH@c?3?2users?2nhv90?2projects?2eech?2ap@
  00aea	8b 0d 00 00 00
	00		 mov	 ecx, DWORD PTR ?overload_invalid_list_type_message@@3PBDB ; overload_invalid_list_type_message
  00af0	51		 push	 ecx
  00af1	e8 00 00 00 00	 call	 ?process_assert@@YGXPBD0H@Z ; process_assert
  00af6	c7 45 a0 00 00
	00 00		 mov	 DWORD PTR tv567[ebp], 0
$LN91@process_en:
  00afd	8b 55 e8	 mov	 edx, DWORD PTR _this_entity_list$[ebp]
  00b00	8b 42 04	 mov	 eax, DWORD PTR [edx+4]
  00b03	50		 push	 eax
  00b04	8b 4d f0	 mov	 ecx, DWORD PTR _parent$[ebp]
  00b07	51		 push	 ecx
  00b08	69 55 a4 b4 00
	00 00		 imul	 edx, DWORD PTR tv556[ebp], 180
  00b0f	8b 45 a0	 mov	 eax, DWORD PTR tv567[ebp]
  00b12	8b 8c 82 00 00
	00 00		 mov	 ecx, DWORD PTR ?fn_get_local_entity_first_child@@3PAY0CN@P6GPAUENTITY@@PAU1@W4LIST_TYPES@@@ZA[edx+eax*4]
  00b19	ff d1		 call	 ecx
  00b1b	3b 45 ec	 cmp	 eax, DWORD PTR _last_en$[ebp]
  00b1e	0f 84 97 00 00
	00		 je	 $LN18@process_en

; 1044 : 		{
; 1045 : 
; 1046 : 			//ASSERT (get_local_entity_first_child (parent, this_entity_list->list_type) == NULL);
; 1047 : 
; 1048 : 			set_local_entity_first_child (parent, this_entity_list->list_type, last_en);

  00b24	83 7d f0 00	 cmp	 DWORD PTR _parent$[ebp], 0
  00b28	74 0a		 je	 SHORT $LN92@process_en
  00b2a	8b 45 f0	 mov	 eax, DWORD PTR _parent$[ebp]
  00b2d	8b 08		 mov	 ecx, DWORD PTR [eax]
  00b2f	89 4d a4	 mov	 DWORD PTR tv581[ebp], ecx
  00b32	eb 24		 jmp	 SHORT $LN93@process_en
$LN92@process_en:
  00b34	8b 15 00 00 00
	00		 mov	 edx, DWORD PTR ?__LINE__Var@?0??process_entity_list_link_validation@@YGXXZ@4JA
  00b3a	81 c2 88 00 00
	00		 add	 edx, 136		; 00000088H
  00b40	52		 push	 edx
  00b41	68 00 00 00 00	 push	 OFFSET ??_C@_0EO@HOHMAODH@c?3?2users?2nhv90?2projects?2eech?2ap@
  00b46	a1 00 00 00 00	 mov	 eax, DWORD PTR ?null_entity_pointer_message@@3PBDB ; null_entity_pointer_message
  00b4b	50		 push	 eax
  00b4c	e8 00 00 00 00	 call	 ?process_assert@@YGXPBD0H@Z ; process_assert
  00b51	c7 45 a4 00 00
	00 00		 mov	 DWORD PTR tv581[ebp], 0
$LN93@process_en:
  00b58	8b 4d e8	 mov	 ecx, DWORD PTR _this_entity_list$[ebp]
  00b5b	83 79 04 00	 cmp	 DWORD PTR [ecx+4], 0
  00b5f	7c 14		 jl	 SHORT $LN94@process_en
  00b61	8b 55 e8	 mov	 edx, DWORD PTR _this_entity_list$[ebp]
  00b64	83 7a 04 2d	 cmp	 DWORD PTR [edx+4], 45	; 0000002dH
  00b68	7d 0b		 jge	 SHORT $LN94@process_en
  00b6a	8b 45 e8	 mov	 eax, DWORD PTR _this_entity_list$[ebp]
  00b6d	8b 48 04	 mov	 ecx, DWORD PTR [eax+4]
  00b70	89 4d a0	 mov	 DWORD PTR tv593[ebp], ecx
  00b73	eb 24		 jmp	 SHORT $LN95@process_en
$LN94@process_en:
  00b75	8b 15 00 00 00
	00		 mov	 edx, DWORD PTR ?__LINE__Var@?0??process_entity_list_link_validation@@YGXXZ@4JA
  00b7b	81 c2 88 00 00
	00		 add	 edx, 136		; 00000088H
  00b81	52		 push	 edx
  00b82	68 00 00 00 00	 push	 OFFSET ??_C@_0EO@HOHMAODH@c?3?2users?2nhv90?2projects?2eech?2ap@
  00b87	a1 00 00 00 00	 mov	 eax, DWORD PTR ?overload_invalid_list_type_message@@3PBDB ; overload_invalid_list_type_message
  00b8c	50		 push	 eax
  00b8d	e8 00 00 00 00	 call	 ?process_assert@@YGXPBD0H@Z ; process_assert
  00b92	c7 45 a0 00 00
	00 00		 mov	 DWORD PTR tv593[ebp], 0
$LN95@process_en:
  00b99	8b 4d ec	 mov	 ecx, DWORD PTR _last_en$[ebp]
  00b9c	51		 push	 ecx
  00b9d	8b 55 e8	 mov	 edx, DWORD PTR _this_entity_list$[ebp]
  00ba0	8b 42 04	 mov	 eax, DWORD PTR [edx+4]
  00ba3	50		 push	 eax
  00ba4	8b 4d f0	 mov	 ecx, DWORD PTR _parent$[ebp]
  00ba7	51		 push	 ecx
  00ba8	69 55 a4 b4 00
	00 00		 imul	 edx, DWORD PTR tv581[ebp], 180
  00baf	8b 45 a0	 mov	 eax, DWORD PTR tv593[ebp]
  00bb2	8b 8c 82 00 00
	00 00		 mov	 ecx, DWORD PTR ?fn_set_local_entity_first_child@@3PAY0CN@P6GXPAUENTITY@@W4LIST_TYPES@@0@ZA[edx+eax*4]
  00bb9	ff d1		 call	 ecx
$LN18@process_en:

; 1049 : 
; 1050 : 			#if DEBUG_MODULE
; 1051 : 
; 1052 : 			debug_log ("EN_SESSN: LIST_REPAIRING: en %s (%d), list %s first_child not set. Setting to %s (%d)", get_local_entity_type_name (parent), get_local_entity_index (parent), get_list_type_name (this_entity_list->list_type), get_local_entity_type_name (last_en), get_local_entity_index (last_en));
; 1053 : 
; 1054 : 			#endif
; 1055 : 		}
; 1056 : 		/////////////////////////////////////////////////////////////////
; 1057 : 
; 1058 : 		free_mem (this_entity_list);

  00bbb	8b 45 e8	 mov	 eax, DWORD PTR _this_entity_list$[ebp]
  00bbe	50		 push	 eax
  00bbf	e8 00 00 00 00	 call	 ?free_mem@@YGXPAX@Z	; free_mem

; 1059 : 	}

  00bc4	e9 45 f4 ff ff	 jmp	 $LN2@process_en
$LN1@process_en:

; 1060 : }

  00bc9	5f		 pop	 edi
  00bca	5e		 pop	 esi
  00bcb	5b		 pop	 ebx
  00bcc	8b e5		 mov	 esp, ebp
  00bce	5d		 pop	 ebp
  00bcf	c3		 ret	 0
?process_entity_list_link_validation@@YGXXZ ENDP	; process_entity_list_link_validation
_TEXT	ENDS
; Function compile flags: /Odtp /ZI
; File c:\users\nhv90\projects\eech\aphavoc\source\entity\system\en_comms\en_sessn.c
;	COMDAT ?repair_landing_entity_locks@@YGXW4PACK_MODES@@@Z
_TEXT	SEGMENT
tv203 = -104						; size = 4
tv384 = -100						; size = 4
tv332 = -100						; size = 4
tv312 = -100						; size = 4
tv290 = -100						; size = 4
tv266 = -100						; size = 4
tv246 = -100						; size = 4
tv218 = -100						; size = 4
tv197 = -100						; size = 4
tv178 = -100						; size = 4
tv157 = -100						; size = 4
tv136 = -100						; size = 4
tv85 = -100						; size = 4
tv376 = -96						; size = 4
tv363 = -96						; size = 4
tv351 = -96						; size = 4
tv343 = -96						; size = 4
tv324 = -96						; size = 4
tv304 = -96						; size = 4
tv283 = -96						; size = 4
tv258 = -96						; size = 4
tv238 = -96						; size = 4
tv210 = -96						; size = 4
tv190 = -96						; size = 4
tv170 = -96						; size = 4
tv149 = -96						; size = 4
tv129 = -96						; size = 4
tv78 = -96						; size = 4
tv71 = -96						; size = 4
_landing_flag$ = -28					; size = 4
_task$ = -24						; size = 4
_landing$ = -20						; size = 4
_keysite$ = -16						; size = 4
_group$ = -12						; size = 4
_guide$ = -8						; size = 4
_en$ = -4						; size = 4
_mode$ = 8						; size = 4
?repair_landing_entity_locks@@YGXW4PACK_MODES@@@Z PROC	; repair_landing_entity_locks, COMDAT

; 1140 : {

  00000	55		 push	 ebp
  00001	8b ec		 mov	 ebp, esp
  00003	83 ec 68	 sub	 esp, 104		; 00000068H
  00006	53		 push	 ebx
  00007	56		 push	 esi
  00008	57		 push	 edi

; 1141 : 
; 1142 : 	entity
; 1143 : 		*en,
; 1144 : 		*guide,
; 1145 : 		*group,
; 1146 : 		*keysite,
; 1147 : 		*landing,
; 1148 : 		*task;
; 1149 : 
; 1150 : 	int
; 1151 : 		landing_flag;
; 1152 : 
; 1153 : 	if (mode != PACK_MODE_SERVER_SESSION)

  00009	83 7d 08 00	 cmp	 DWORD PTR _mode$[ebp], 0
  0000d	74 05		 je	 SHORT $LN6@repair_lan

; 1154 : 	{
; 1155 : 		return;

  0000f	e9 e6 07 00 00	 jmp	 $LN1@repair_lan
$LN6@repair_lan:

; 1156 : 	}
; 1157 : 
; 1158 : 	en = get_local_entity_list ();

  00014	a1 00 00 00 00	 mov	 eax, DWORD PTR ?first_used_entity@@3PAUENTITY@@A ; first_used_entity
  00019	89 45 fc	 mov	 DWORD PTR _en$[ebp], eax
$LN2@repair_lan:

; 1159 : 
; 1160 : 	while (en)

  0001c	83 7d fc 00	 cmp	 DWORD PTR _en$[ebp], 0
  00020	0f 84 d4 07 00
	00		 je	 $LN1@repair_lan

; 1161 : 	{
; 1162 : 
; 1163 : 		landing_flag = FALSE;

  00026	c7 45 e4 00 00
	00 00		 mov	 DWORD PTR _landing_flag$[ebp], 0

; 1164 : 
; 1165 : 		// debug
; 1166 : 		if (get_local_entity_type (en) != ENTITY_TYPE_GROUP)

  0002d	83 7d fc 00	 cmp	 DWORD PTR _en$[ebp], 0
  00031	74 0a		 je	 SHORT $LN23@repair_lan
  00033	8b 45 fc	 mov	 eax, DWORD PTR _en$[ebp]
  00036	8b 08		 mov	 ecx, DWORD PTR [eax]
  00038	89 4d a0	 mov	 DWORD PTR tv71[ebp], ecx
  0003b	eb 1d		 jmp	 SHORT $LN24@repair_lan
$LN23@repair_lan:
  0003d	68 8e 04 00 00	 push	 1166			; 0000048eH
  00042	68 00 00 00 00	 push	 OFFSET ??_C@_0EO@HOHMAODH@c?3?2users?2nhv90?2projects?2eech?2ap@
  00047	8b 15 00 00 00
	00		 mov	 edx, DWORD PTR ?null_entity_pointer_message@@3PBDB ; null_entity_pointer_message
  0004d	52		 push	 edx
  0004e	e8 00 00 00 00	 call	 ?process_assert@@YGXPBD0H@Z ; process_assert
  00053	c7 45 a0 00 00
	00 00		 mov	 DWORD PTR tv71[ebp], 0
$LN24@repair_lan:
  0005a	83 7d a0 0c	 cmp	 DWORD PTR tv71[ebp], 12	; 0000000cH
  0005e	0f 84 88 07 00
	00		 je	 $LN7@repair_lan

; 1167 : 		// debug
; 1168 : 		{
; 1169 : 	
; 1170 : 			if ((get_local_entity_int_value (en, INT_TYPE_IDENTIFY_AIRCRAFT)) || (get_local_entity_int_value (en, INT_TYPE_IDENTIFY_VEHICLE)))

  00064	83 7d fc 00	 cmp	 DWORD PTR _en$[ebp], 0
  00068	74 0a		 je	 SHORT $LN25@repair_lan
  0006a	8b 45 fc	 mov	 eax, DWORD PTR _en$[ebp]
  0006d	8b 08		 mov	 ecx, DWORD PTR [eax]
  0006f	89 4d a0	 mov	 DWORD PTR tv78[ebp], ecx
  00072	eb 1d		 jmp	 SHORT $LN26@repair_lan
$LN25@repair_lan:
  00074	68 92 04 00 00	 push	 1170			; 00000492H
  00079	68 00 00 00 00	 push	 OFFSET ??_C@_0EO@HOHMAODH@c?3?2users?2nhv90?2projects?2eech?2ap@
  0007e	8b 15 00 00 00
	00		 mov	 edx, DWORD PTR ?null_entity_pointer_message@@3PBDB ; null_entity_pointer_message
  00084	52		 push	 edx
  00085	e8 00 00 00 00	 call	 ?process_assert@@YGXPBD0H@Z ; process_assert
  0008a	c7 45 a0 00 00
	00 00		 mov	 DWORD PTR tv78[ebp], 0
$LN26@repair_lan:
  00091	b8 01 00 00 00	 mov	 eax, 1
  00096	85 c0		 test	 eax, eax
  00098	74 09		 je	 SHORT $LN27@repair_lan
  0009a	c7 45 9c 57 00
	00 00		 mov	 DWORD PTR tv85[ebp], 87	; 00000057H
  000a1	eb 1d		 jmp	 SHORT $LN28@repair_lan
$LN27@repair_lan:
  000a3	68 92 04 00 00	 push	 1170			; 00000492H
  000a8	68 00 00 00 00	 push	 OFFSET ??_C@_0EO@HOHMAODH@c?3?2users?2nhv90?2projects?2eech?2ap@
  000ad	8b 0d 00 00 00
	00		 mov	 ecx, DWORD PTR ?overload_invalid_int_type_message@@3PBDB ; overload_invalid_int_type_message
  000b3	51		 push	 ecx
  000b4	e8 00 00 00 00	 call	 ?process_assert@@YGXPBD0H@Z ; process_assert
  000b9	c7 45 9c 00 00
	00 00		 mov	 DWORD PTR tv85[ebp], 0
$LN28@repair_lan:
  000c0	6a 57		 push	 87			; 00000057H
  000c2	8b 55 fc	 mov	 edx, DWORD PTR _en$[ebp]
  000c5	52		 push	 edx
  000c6	69 45 a0 5c 04
	00 00		 imul	 eax, DWORD PTR tv78[ebp], 1116
  000cd	8b 4d 9c	 mov	 ecx, DWORD PTR tv85[ebp]
  000d0	8b 94 88 00 00
	00 00		 mov	 edx, DWORD PTR ?fn_get_local_entity_int_value@@3PAY0BBH@P6GHPAUENTITY@@W4INT_TYPES@@@ZA[eax+ecx*4]
  000d7	ff d2		 call	 edx
  000d9	85 c0		 test	 eax, eax
  000db	75 7d		 jne	 SHORT $LN9@repair_lan
  000dd	83 7d fc 00	 cmp	 DWORD PTR _en$[ebp], 0
  000e1	74 0a		 je	 SHORT $LN29@repair_lan
  000e3	8b 45 fc	 mov	 eax, DWORD PTR _en$[ebp]
  000e6	8b 08		 mov	 ecx, DWORD PTR [eax]
  000e8	89 4d a0	 mov	 DWORD PTR tv129[ebp], ecx
  000eb	eb 1d		 jmp	 SHORT $LN30@repair_lan
$LN29@repair_lan:
  000ed	68 92 04 00 00	 push	 1170			; 00000492H
  000f2	68 00 00 00 00	 push	 OFFSET ??_C@_0EO@HOHMAODH@c?3?2users?2nhv90?2projects?2eech?2ap@
  000f7	8b 15 00 00 00
	00		 mov	 edx, DWORD PTR ?null_entity_pointer_message@@3PBDB ; null_entity_pointer_message
  000fd	52		 push	 edx
  000fe	e8 00 00 00 00	 call	 ?process_assert@@YGXPBD0H@Z ; process_assert
  00103	c7 45 a0 00 00
	00 00		 mov	 DWORD PTR tv129[ebp], 0
$LN30@repair_lan:
  0010a	b8 01 00 00 00	 mov	 eax, 1
  0010f	85 c0		 test	 eax, eax
  00111	74 09		 je	 SHORT $LN31@repair_lan
  00113	c7 45 9c 60 00
	00 00		 mov	 DWORD PTR tv136[ebp], 96 ; 00000060H
  0011a	eb 1d		 jmp	 SHORT $LN32@repair_lan
$LN31@repair_lan:
  0011c	68 92 04 00 00	 push	 1170			; 00000492H
  00121	68 00 00 00 00	 push	 OFFSET ??_C@_0EO@HOHMAODH@c?3?2users?2nhv90?2projects?2eech?2ap@
  00126	8b 0d 00 00 00
	00		 mov	 ecx, DWORD PTR ?overload_invalid_int_type_message@@3PBDB ; overload_invalid_int_type_message
  0012c	51		 push	 ecx
  0012d	e8 00 00 00 00	 call	 ?process_assert@@YGXPBD0H@Z ; process_assert
  00132	c7 45 9c 00 00
	00 00		 mov	 DWORD PTR tv136[ebp], 0
$LN32@repair_lan:
  00139	6a 60		 push	 96			; 00000060H
  0013b	8b 55 fc	 mov	 edx, DWORD PTR _en$[ebp]
  0013e	52		 push	 edx
  0013f	69 45 a0 5c 04
	00 00		 imul	 eax, DWORD PTR tv129[ebp], 1116
  00146	8b 4d 9c	 mov	 ecx, DWORD PTR tv136[ebp]
  00149	8b 94 88 00 00
	00 00		 mov	 edx, DWORD PTR ?fn_get_local_entity_int_value@@3PAY0BBH@P6GHPAUENTITY@@W4INT_TYPES@@@ZA[eax+ecx*4]
  00150	ff d2		 call	 edx
  00152	85 c0		 test	 eax, eax
  00154	0f 84 92 06 00
	00		 je	 $LN7@repair_lan
$LN9@repair_lan:

; 1171 : 			{
; 1172 : 	
; 1173 : 				guide = get_local_entity_parent (en, LIST_TYPE_FOLLOWER);

  0015a	83 7d fc 00	 cmp	 DWORD PTR _en$[ebp], 0
  0015e	74 0a		 je	 SHORT $LN33@repair_lan
  00160	8b 45 fc	 mov	 eax, DWORD PTR _en$[ebp]
  00163	8b 08		 mov	 ecx, DWORD PTR [eax]
  00165	89 4d a0	 mov	 DWORD PTR tv149[ebp], ecx
  00168	eb 21		 jmp	 SHORT $LN34@repair_lan
$LN33@repair_lan:
  0016a	8b 15 00 00 00
	00		 mov	 edx, DWORD PTR ?__LINE__Var@?0??repair_landing_entity_locks@@YGXW4PACK_MODES@@@Z@4JA
  00170	83 c2 21	 add	 edx, 33			; 00000021H
  00173	52		 push	 edx
  00174	68 00 00 00 00	 push	 OFFSET ??_C@_0EO@HOHMAODH@c?3?2users?2nhv90?2projects?2eech?2ap@
  00179	a1 00 00 00 00	 mov	 eax, DWORD PTR ?null_entity_pointer_message@@3PBDB ; null_entity_pointer_message
  0017e	50		 push	 eax
  0017f	e8 00 00 00 00	 call	 ?process_assert@@YGXPBD0H@Z ; process_assert
  00184	c7 45 a0 00 00
	00 00		 mov	 DWORD PTR tv149[ebp], 0
$LN34@repair_lan:
  0018b	b9 01 00 00 00	 mov	 ecx, 1
  00190	85 c9		 test	 ecx, ecx
  00192	74 09		 je	 SHORT $LN35@repair_lan
  00194	c7 45 9c 0d 00
	00 00		 mov	 DWORD PTR tv157[ebp], 13 ; 0000000dH
  0019b	eb 21		 jmp	 SHORT $LN36@repair_lan
$LN35@repair_lan:
  0019d	8b 15 00 00 00
	00		 mov	 edx, DWORD PTR ?__LINE__Var@?0??repair_landing_entity_locks@@YGXW4PACK_MODES@@@Z@4JA
  001a3	83 c2 21	 add	 edx, 33			; 00000021H
  001a6	52		 push	 edx
  001a7	68 00 00 00 00	 push	 OFFSET ??_C@_0EO@HOHMAODH@c?3?2users?2nhv90?2projects?2eech?2ap@
  001ac	a1 00 00 00 00	 mov	 eax, DWORD PTR ?overload_invalid_list_type_message@@3PBDB ; overload_invalid_list_type_message
  001b1	50		 push	 eax
  001b2	e8 00 00 00 00	 call	 ?process_assert@@YGXPBD0H@Z ; process_assert
  001b7	c7 45 9c 00 00
	00 00		 mov	 DWORD PTR tv157[ebp], 0
$LN36@repair_lan:
  001be	6a 0d		 push	 13			; 0000000dH
  001c0	8b 4d fc	 mov	 ecx, DWORD PTR _en$[ebp]
  001c3	51		 push	 ecx
  001c4	69 55 a0 b4 00
	00 00		 imul	 edx, DWORD PTR tv149[ebp], 180
  001cb	8b 45 9c	 mov	 eax, DWORD PTR tv157[ebp]
  001ce	8b 8c 82 00 00
	00 00		 mov	 ecx, DWORD PTR ?fn_get_local_entity_parent@@3PAY0CN@P6GPAUENTITY@@PAU1@W4LIST_TYPES@@@ZA[edx+eax*4]
  001d5	ff d1		 call	 ecx
  001d7	89 45 f8	 mov	 DWORD PTR _guide$[ebp], eax

; 1174 : 	
; 1175 : 				if (guide)

  001da	83 7d f8 00	 cmp	 DWORD PTR _guide$[ebp], 0
  001de	0f 84 fb 02 00
	00		 je	 $LN10@repair_lan

; 1176 : 				{
; 1177 : 	
; 1178 : 					task = get_local_entity_parent (guide, LIST_TYPE_GUIDE);

  001e4	83 7d f8 00	 cmp	 DWORD PTR _guide$[ebp], 0
  001e8	74 0a		 je	 SHORT $LN37@repair_lan
  001ea	8b 45 f8	 mov	 eax, DWORD PTR _guide$[ebp]
  001ed	8b 08		 mov	 ecx, DWORD PTR [eax]
  001ef	89 4d a0	 mov	 DWORD PTR tv170[ebp], ecx
  001f2	eb 21		 jmp	 SHORT $LN38@repair_lan
$LN37@repair_lan:
  001f4	8b 15 00 00 00
	00		 mov	 edx, DWORD PTR ?__LINE__Var@?0??repair_landing_entity_locks@@YGXW4PACK_MODES@@@Z@4JA
  001fa	83 c2 26	 add	 edx, 38			; 00000026H
  001fd	52		 push	 edx
  001fe	68 00 00 00 00	 push	 OFFSET ??_C@_0EO@HOHMAODH@c?3?2users?2nhv90?2projects?2eech?2ap@
  00203	a1 00 00 00 00	 mov	 eax, DWORD PTR ?null_entity_pointer_message@@3PBDB ; null_entity_pointer_message
  00208	50		 push	 eax
  00209	e8 00 00 00 00	 call	 ?process_assert@@YGXPBD0H@Z ; process_assert
  0020e	c7 45 a0 00 00
	00 00		 mov	 DWORD PTR tv170[ebp], 0
$LN38@repair_lan:
  00215	b9 01 00 00 00	 mov	 ecx, 1
  0021a	85 c9		 test	 ecx, ecx
  0021c	74 09		 je	 SHORT $LN39@repair_lan
  0021e	c7 45 9c 10 00
	00 00		 mov	 DWORD PTR tv178[ebp], 16 ; 00000010H
  00225	eb 21		 jmp	 SHORT $LN40@repair_lan
$LN39@repair_lan:
  00227	8b 15 00 00 00
	00		 mov	 edx, DWORD PTR ?__LINE__Var@?0??repair_landing_entity_locks@@YGXW4PACK_MODES@@@Z@4JA
  0022d	83 c2 26	 add	 edx, 38			; 00000026H
  00230	52		 push	 edx
  00231	68 00 00 00 00	 push	 OFFSET ??_C@_0EO@HOHMAODH@c?3?2users?2nhv90?2projects?2eech?2ap@
  00236	a1 00 00 00 00	 mov	 eax, DWORD PTR ?overload_invalid_list_type_message@@3PBDB ; overload_invalid_list_type_message
  0023b	50		 push	 eax
  0023c	e8 00 00 00 00	 call	 ?process_assert@@YGXPBD0H@Z ; process_assert
  00241	c7 45 9c 00 00
	00 00		 mov	 DWORD PTR tv178[ebp], 0
$LN40@repair_lan:
  00248	6a 10		 push	 16			; 00000010H
  0024a	8b 4d f8	 mov	 ecx, DWORD PTR _guide$[ebp]
  0024d	51		 push	 ecx
  0024e	69 55 a0 b4 00
	00 00		 imul	 edx, DWORD PTR tv170[ebp], 180
  00255	8b 45 9c	 mov	 eax, DWORD PTR tv178[ebp]
  00258	8b 8c 82 00 00
	00 00		 mov	 ecx, DWORD PTR ?fn_get_local_entity_parent@@3PAY0CN@P6GPAUENTITY@@PAU1@W4LIST_TYPES@@@ZA[edx+eax*4]
  0025f	ff d1		 call	 ecx
  00261	89 45 e8	 mov	 DWORD PTR _task$[ebp], eax

; 1179 : 	
; 1180 : 					if (task)

  00264	83 7d e8 00	 cmp	 DWORD PTR _task$[ebp], 0
  00268	0f 84 71 02 00
	00		 je	 $LN10@repair_lan

; 1181 : 					{
; 1182 : 	
; 1183 : 						switch (get_local_entity_int_value (task, INT_TYPE_ENTITY_SUB_TYPE))

  0026e	83 7d e8 00	 cmp	 DWORD PTR _task$[ebp], 0
  00272	74 0a		 je	 SHORT $LN41@repair_lan
  00274	8b 45 e8	 mov	 eax, DWORD PTR _task$[ebp]
  00277	8b 08		 mov	 ecx, DWORD PTR [eax]
  00279	89 4d a0	 mov	 DWORD PTR tv190[ebp], ecx
  0027c	eb 1d		 jmp	 SHORT $LN42@repair_lan
$LN41@repair_lan:
  0027e	68 9f 04 00 00	 push	 1183			; 0000049fH
  00283	68 00 00 00 00	 push	 OFFSET ??_C@_0EO@HOHMAODH@c?3?2users?2nhv90?2projects?2eech?2ap@
  00288	8b 15 00 00 00
	00		 mov	 edx, DWORD PTR ?null_entity_pointer_message@@3PBDB ; null_entity_pointer_message
  0028e	52		 push	 edx
  0028f	e8 00 00 00 00	 call	 ?process_assert@@YGXPBD0H@Z ; process_assert
  00294	c7 45 a0 00 00
	00 00		 mov	 DWORD PTR tv190[ebp], 0
$LN42@repair_lan:
  0029b	b8 01 00 00 00	 mov	 eax, 1
  002a0	85 c0		 test	 eax, eax
  002a2	74 09		 je	 SHORT $LN43@repair_lan
  002a4	c7 45 9c 34 00
	00 00		 mov	 DWORD PTR tv197[ebp], 52 ; 00000034H
  002ab	eb 1d		 jmp	 SHORT $LN44@repair_lan
$LN43@repair_lan:
  002ad	68 9f 04 00 00	 push	 1183			; 0000049fH
  002b2	68 00 00 00 00	 push	 OFFSET ??_C@_0EO@HOHMAODH@c?3?2users?2nhv90?2projects?2eech?2ap@
  002b7	8b 0d 00 00 00
	00		 mov	 ecx, DWORD PTR ?overload_invalid_int_type_message@@3PBDB ; overload_invalid_int_type_message
  002bd	51		 push	 ecx
  002be	e8 00 00 00 00	 call	 ?process_assert@@YGXPBD0H@Z ; process_assert
  002c3	c7 45 9c 00 00
	00 00		 mov	 DWORD PTR tv197[ebp], 0
$LN44@repair_lan:
  002ca	6a 34		 push	 52			; 00000034H
  002cc	8b 55 e8	 mov	 edx, DWORD PTR _task$[ebp]
  002cf	52		 push	 edx
  002d0	69 45 a0 5c 04
	00 00		 imul	 eax, DWORD PTR tv190[ebp], 1116
  002d7	8b 4d 9c	 mov	 ecx, DWORD PTR tv197[ebp]
  002da	8b 94 88 00 00
	00 00		 mov	 edx, DWORD PTR ?fn_get_local_entity_int_value@@3PAY0BBH@P6GHPAUENTITY@@W4INT_TYPES@@@ZA[eax+ecx*4]
  002e1	ff d2		 call	 edx
  002e3	89 45 98	 mov	 DWORD PTR tv203[ebp], eax
  002e6	83 7d 98 0d	 cmp	 DWORD PTR tv203[ebp], 13 ; 0000000dH
  002ea	74 19		 je	 SHORT $LN12@repair_lan
  002ec	83 7d 98 0e	 cmp	 DWORD PTR tv203[ebp], 14 ; 0000000eH
  002f0	0f 84 cb 00 00
	00		 je	 $LN14@repair_lan
  002f6	83 7d 98 16	 cmp	 DWORD PTR tv203[ebp], 22 ; 00000016H
  002fa	0f 84 cd 00 00
	00		 je	 $LN15@repair_lan
  00300	e9 da 01 00 00	 jmp	 $LN10@repair_lan
$LN12@repair_lan:

; 1184 : 						{
; 1185 : 	
; 1186 : 							case ENTITY_SUB_TYPE_TASK_LANDING:
; 1187 : 							{
; 1188 : 	
; 1189 : 								//
; 1190 : 								// LANDING
; 1191 : 								//
; 1192 : 						
; 1193 : 								landing = get_local_entity_parent (task, LIST_TYPE_ASSIGNED_TASK);

  00305	83 7d e8 00	 cmp	 DWORD PTR _task$[ebp], 0
  00309	74 0a		 je	 SHORT $LN45@repair_lan
  0030b	8b 45 e8	 mov	 eax, DWORD PTR _task$[ebp]
  0030e	8b 08		 mov	 ecx, DWORD PTR [eax]
  00310	89 4d a0	 mov	 DWORD PTR tv210[ebp], ecx
  00313	eb 21		 jmp	 SHORT $LN46@repair_lan
$LN45@repair_lan:
  00315	8b 15 00 00 00
	00		 mov	 edx, DWORD PTR ?__LINE__Var@?0??repair_landing_entity_locks@@YGXW4PACK_MODES@@@Z@4JA
  0031b	83 c2 35	 add	 edx, 53			; 00000035H
  0031e	52		 push	 edx
  0031f	68 00 00 00 00	 push	 OFFSET ??_C@_0EO@HOHMAODH@c?3?2users?2nhv90?2projects?2eech?2ap@
  00324	a1 00 00 00 00	 mov	 eax, DWORD PTR ?null_entity_pointer_message@@3PBDB ; null_entity_pointer_message
  00329	50		 push	 eax
  0032a	e8 00 00 00 00	 call	 ?process_assert@@YGXPBD0H@Z ; process_assert
  0032f	c7 45 a0 00 00
	00 00		 mov	 DWORD PTR tv210[ebp], 0
$LN46@repair_lan:
  00336	b9 01 00 00 00	 mov	 ecx, 1
  0033b	85 c9		 test	 ecx, ecx
  0033d	74 09		 je	 SHORT $LN47@repair_lan
  0033f	c7 45 9c 03 00
	00 00		 mov	 DWORD PTR tv218[ebp], 3
  00346	eb 21		 jmp	 SHORT $LN48@repair_lan
$LN47@repair_lan:
  00348	8b 15 00 00 00
	00		 mov	 edx, DWORD PTR ?__LINE__Var@?0??repair_landing_entity_locks@@YGXW4PACK_MODES@@@Z@4JA
  0034e	83 c2 35	 add	 edx, 53			; 00000035H
  00351	52		 push	 edx
  00352	68 00 00 00 00	 push	 OFFSET ??_C@_0EO@HOHMAODH@c?3?2users?2nhv90?2projects?2eech?2ap@
  00357	a1 00 00 00 00	 mov	 eax, DWORD PTR ?overload_invalid_list_type_message@@3PBDB ; overload_invalid_list_type_message
  0035c	50		 push	 eax
  0035d	e8 00 00 00 00	 call	 ?process_assert@@YGXPBD0H@Z ; process_assert
  00362	c7 45 9c 00 00
	00 00		 mov	 DWORD PTR tv218[ebp], 0
$LN48@repair_lan:
  00369	6a 03		 push	 3
  0036b	8b 4d e8	 mov	 ecx, DWORD PTR _task$[ebp]
  0036e	51		 push	 ecx
  0036f	69 55 a0 b4 00
	00 00		 imul	 edx, DWORD PTR tv210[ebp], 180
  00376	8b 45 9c	 mov	 eax, DWORD PTR tv218[ebp]
  00379	8b 8c 82 00 00
	00 00		 mov	 ecx, DWORD PTR ?fn_get_local_entity_parent@@3PAY0CN@P6GPAUENTITY@@PAU1@W4LIST_TYPES@@@ZA[edx+eax*4]
  00380	ff d1		 call	 ecx
  00382	89 45 ec	 mov	 DWORD PTR _landing$[ebp], eax

; 1194 : 		
; 1195 : 								ASSERT (landing);

  00385	83 7d ec 00	 cmp	 DWORD PTR _landing$[ebp], 0
  00389	75 18		 jne	 SHORT $LN13@repair_lan
  0038b	a1 00 00 00 00	 mov	 eax, DWORD PTR ?__LINE__Var@?0??repair_landing_entity_locks@@YGXW4PACK_MODES@@@Z@4JA
  00390	83 c0 37	 add	 eax, 55			; 00000037H
  00393	50		 push	 eax
  00394	68 00 00 00 00	 push	 OFFSET ??_C@_0EO@HOHMAODH@c?3?2users?2nhv90?2projects?2eech?2ap@
  00399	68 00 00 00 00	 push	 OFFSET ??_C@_07EAMPMOFH@landing@
  0039e	e8 00 00 00 00	 call	 ?process_assert@@YGXPBD0H@Z ; process_assert
$LN13@repair_lan:

; 1196 : 		
; 1197 : 								#if DEBUG_MODULE
; 1198 : 		
; 1199 : 								debug_log ("EN_SESSN: LOCK_REPAIRING: %s landing lock for %s (%d) locks (total %d, free %d, landing %d, landed %d takeoff %d)", get_local_entity_string (keysite, STRING_TYPE_KEYSITE_NAME), get_local_entity_type_name (en), get_local_entity_index (en),
; 1200 : 								get_local_entity_int_value (landing, INT_TYPE_TOTAL_LANDING_SITES),
; 1201 : 								get_local_entity_int_value (landing, INT_TYPE_FREE_LANDING_SITES),
; 1202 : 								get_local_entity_int_value (landing, INT_TYPE_LANDING_LOCK),
; 1203 : 								get_local_entity_int_value (landing, INT_TYPE_LANDED_LOCK),
; 1204 : 								get_local_entity_int_value (landing, INT_TYPE_TAKEOFF_LOCK));
; 1205 : 		
; 1206 : 								#endif
; 1207 : 		
; 1208 : 								notify_local_entity (ENTITY_MESSAGE_LOCK_LANDING_ROUTE, landing, en);

  003a3	8b 45 fc	 mov	 eax, DWORD PTR _en$[ebp]
  003a6	50		 push	 eax
  003a7	8b 4d ec	 mov	 ecx, DWORD PTR _landing$[ebp]
  003aa	51		 push	 ecx
  003ab	6a 25		 push	 37			; 00000025H
  003ad	e8 00 00 00 00	 call	 ?notify_local_entity@@YAHW4ENTITY_MESSAGES@@PAUENTITY@@1ZZ ; notify_local_entity
  003b2	83 c4 0c	 add	 esp, 12			; 0000000cH

; 1209 : 		
; 1210 : 								landing_flag = TRUE;

  003b5	c7 45 e4 01 00
	00 00		 mov	 DWORD PTR _landing_flag$[ebp], 1

; 1211 : 	
; 1212 : 								break;

  003bc	e9 1e 01 00 00	 jmp	 $LN10@repair_lan
$LN14@repair_lan:

; 1213 : 							}
; 1214 : 	
; 1215 : 							case ENTITY_SUB_TYPE_TASK_LANDING_HOLDING:
; 1216 : 							{
; 1217 : 	
; 1218 : 								//
; 1219 : 								// LANDING HOLDING
; 1220 : 								//
; 1221 : 						
; 1222 : 								landing_flag = TRUE;

  003c1	c7 45 e4 01 00
	00 00		 mov	 DWORD PTR _landing_flag$[ebp], 1

; 1223 : 	
; 1224 : 								break;

  003c8	e9 12 01 00 00	 jmp	 $LN10@repair_lan
$LN15@repair_lan:

; 1225 : 							}
; 1226 : 	
; 1227 : 							case ENTITY_SUB_TYPE_TASK_TAKEOFF:
; 1228 : 							{
; 1229 : 			
; 1230 : 								landing = get_local_entity_parent (task, LIST_TYPE_ASSIGNED_TASK);

  003cd	83 7d e8 00	 cmp	 DWORD PTR _task$[ebp], 0
  003d1	74 0a		 je	 SHORT $LN49@repair_lan
  003d3	8b 45 e8	 mov	 eax, DWORD PTR _task$[ebp]
  003d6	8b 08		 mov	 ecx, DWORD PTR [eax]
  003d8	89 4d a0	 mov	 DWORD PTR tv238[ebp], ecx
  003db	eb 21		 jmp	 SHORT $LN50@repair_lan
$LN49@repair_lan:
  003dd	8b 15 00 00 00
	00		 mov	 edx, DWORD PTR ?__LINE__Var@?0??repair_landing_entity_locks@@YGXW4PACK_MODES@@@Z@4JA
  003e3	83 c2 5a	 add	 edx, 90			; 0000005aH
  003e6	52		 push	 edx
  003e7	68 00 00 00 00	 push	 OFFSET ??_C@_0EO@HOHMAODH@c?3?2users?2nhv90?2projects?2eech?2ap@
  003ec	a1 00 00 00 00	 mov	 eax, DWORD PTR ?null_entity_pointer_message@@3PBDB ; null_entity_pointer_message
  003f1	50		 push	 eax
  003f2	e8 00 00 00 00	 call	 ?process_assert@@YGXPBD0H@Z ; process_assert
  003f7	c7 45 a0 00 00
	00 00		 mov	 DWORD PTR tv238[ebp], 0
$LN50@repair_lan:
  003fe	b9 01 00 00 00	 mov	 ecx, 1
  00403	85 c9		 test	 ecx, ecx
  00405	74 09		 je	 SHORT $LN51@repair_lan
  00407	c7 45 9c 03 00
	00 00		 mov	 DWORD PTR tv246[ebp], 3
  0040e	eb 21		 jmp	 SHORT $LN52@repair_lan
$LN51@repair_lan:
  00410	8b 15 00 00 00
	00		 mov	 edx, DWORD PTR ?__LINE__Var@?0??repair_landing_entity_locks@@YGXW4PACK_MODES@@@Z@4JA
  00416	83 c2 5a	 add	 edx, 90			; 0000005aH
  00419	52		 push	 edx
  0041a	68 00 00 00 00	 push	 OFFSET ??_C@_0EO@HOHMAODH@c?3?2users?2nhv90?2projects?2eech?2ap@
  0041f	a1 00 00 00 00	 mov	 eax, DWORD PTR ?overload_invalid_list_type_message@@3PBDB ; overload_invalid_list_type_message
  00424	50		 push	 eax
  00425	e8 00 00 00 00	 call	 ?process_assert@@YGXPBD0H@Z ; process_assert
  0042a	c7 45 9c 00 00
	00 00		 mov	 DWORD PTR tv246[ebp], 0
$LN52@repair_lan:
  00431	6a 03		 push	 3
  00433	8b 4d e8	 mov	 ecx, DWORD PTR _task$[ebp]
  00436	51		 push	 ecx
  00437	69 55 a0 b4 00
	00 00		 imul	 edx, DWORD PTR tv238[ebp], 180
  0043e	8b 45 9c	 mov	 eax, DWORD PTR tv246[ebp]
  00441	8b 8c 82 00 00
	00 00		 mov	 ecx, DWORD PTR ?fn_get_local_entity_parent@@3PAY0CN@P6GPAUENTITY@@PAU1@W4LIST_TYPES@@@ZA[edx+eax*4]
  00448	ff d1		 call	 ecx
  0044a	89 45 ec	 mov	 DWORD PTR _landing$[ebp], eax

; 1231 : 		
; 1232 : 								keysite = get_local_entity_parent (landing, LIST_TYPE_LANDING_SITE);

  0044d	83 7d ec 00	 cmp	 DWORD PTR _landing$[ebp], 0
  00451	74 0a		 je	 SHORT $LN53@repair_lan
  00453	8b 45 ec	 mov	 eax, DWORD PTR _landing$[ebp]
  00456	8b 08		 mov	 ecx, DWORD PTR [eax]
  00458	89 4d a0	 mov	 DWORD PTR tv258[ebp], ecx
  0045b	eb 21		 jmp	 SHORT $LN54@repair_lan
$LN53@repair_lan:
  0045d	8b 15 00 00 00
	00		 mov	 edx, DWORD PTR ?__LINE__Var@?0??repair_landing_entity_locks@@YGXW4PACK_MODES@@@Z@4JA
  00463	83 c2 5c	 add	 edx, 92			; 0000005cH
  00466	52		 push	 edx
  00467	68 00 00 00 00	 push	 OFFSET ??_C@_0EO@HOHMAODH@c?3?2users?2nhv90?2projects?2eech?2ap@
  0046c	a1 00 00 00 00	 mov	 eax, DWORD PTR ?null_entity_pointer_message@@3PBDB ; null_entity_pointer_message
  00471	50		 push	 eax
  00472	e8 00 00 00 00	 call	 ?process_assert@@YGXPBD0H@Z ; process_assert
  00477	c7 45 a0 00 00
	00 00		 mov	 DWORD PTR tv258[ebp], 0
$LN54@repair_lan:
  0047e	b9 01 00 00 00	 mov	 ecx, 1
  00483	85 c9		 test	 ecx, ecx
  00485	74 09		 je	 SHORT $LN55@repair_lan
  00487	c7 45 9c 17 00
	00 00		 mov	 DWORD PTR tv266[ebp], 23 ; 00000017H
  0048e	eb 21		 jmp	 SHORT $LN56@repair_lan
$LN55@repair_lan:
  00490	8b 15 00 00 00
	00		 mov	 edx, DWORD PTR ?__LINE__Var@?0??repair_landing_entity_locks@@YGXW4PACK_MODES@@@Z@4JA
  00496	83 c2 5c	 add	 edx, 92			; 0000005cH
  00499	52		 push	 edx
  0049a	68 00 00 00 00	 push	 OFFSET ??_C@_0EO@HOHMAODH@c?3?2users?2nhv90?2projects?2eech?2ap@
  0049f	a1 00 00 00 00	 mov	 eax, DWORD PTR ?overload_invalid_list_type_message@@3PBDB ; overload_invalid_list_type_message
  004a4	50		 push	 eax
  004a5	e8 00 00 00 00	 call	 ?process_assert@@YGXPBD0H@Z ; process_assert
  004aa	c7 45 9c 00 00
	00 00		 mov	 DWORD PTR tv266[ebp], 0
$LN56@repair_lan:
  004b1	6a 17		 push	 23			; 00000017H
  004b3	8b 4d ec	 mov	 ecx, DWORD PTR _landing$[ebp]
  004b6	51		 push	 ecx
  004b7	69 55 a0 b4 00
	00 00		 imul	 edx, DWORD PTR tv258[ebp], 180
  004be	8b 45 9c	 mov	 eax, DWORD PTR tv266[ebp]
  004c1	8b 8c 82 00 00
	00 00		 mov	 ecx, DWORD PTR ?fn_get_local_entity_parent@@3PAY0CN@P6GPAUENTITY@@PAU1@W4LIST_TYPES@@@ZA[edx+eax*4]
  004c8	ff d1		 call	 ecx
  004ca	89 45 f0	 mov	 DWORD PTR _keysite$[ebp], eax

; 1233 : 	
; 1234 : 								#if DEBUG_MODULE
; 1235 : 		
; 1236 : 								debug_log ("EN_SESSN: LOCK_REPAIRING: %s takeoff lock for %s (%d) total %d, free %d, locks (landing %d, landed %d takeoff %d)", get_local_entity_string (keysite, STRING_TYPE_KEYSITE_NAME), get_local_entity_type_name (en), get_local_entity_index (en),
; 1237 : 									get_local_entity_int_value (landing, INT_TYPE_TOTAL_LANDING_SITES),
; 1238 : 									get_local_entity_int_value (landing, INT_TYPE_FREE_LANDING_SITES),
; 1239 : 									get_local_entity_int_value (landing, INT_TYPE_LANDING_LOCK),
; 1240 : 									get_local_entity_int_value (landing, INT_TYPE_LANDED_LOCK),
; 1241 : 									get_local_entity_int_value (landing, INT_TYPE_TAKEOFF_LOCK));
; 1242 : 		
; 1243 : 								#endif
; 1244 : 			
; 1245 : 								notify_local_entity (ENTITY_MESSAGE_LOCK_TAKEOFF_ROUTE, landing, en);

  004cd	8b 45 fc	 mov	 eax, DWORD PTR _en$[ebp]
  004d0	50		 push	 eax
  004d1	8b 4d ec	 mov	 ecx, DWORD PTR _landing$[ebp]
  004d4	51		 push	 ecx
  004d5	6a 27		 push	 39			; 00000027H
  004d7	e8 00 00 00 00	 call	 ?notify_local_entity@@YAHW4ENTITY_MESSAGES@@PAUENTITY@@1ZZ ; notify_local_entity
  004dc	83 c4 0c	 add	 esp, 12			; 0000000cH
$LN10@repair_lan:

; 1246 : 	
; 1247 : 								break;
; 1248 : 							}
; 1249 : 						}
; 1250 : 					}
; 1251 : 				}
; 1252 : 	
; 1253 : 				//
; 1254 : 				// LANDED
; 1255 : 				//
; 1256 : 	
; 1257 : 				if ((get_local_entity_int_value (en, INT_TYPE_LANDED)) || (landing_flag))

  004df	83 7d fc 00	 cmp	 DWORD PTR _en$[ebp], 0
  004e3	74 0a		 je	 SHORT $LN57@repair_lan
  004e5	8b 45 fc	 mov	 eax, DWORD PTR _en$[ebp]
  004e8	8b 08		 mov	 ecx, DWORD PTR [eax]
  004ea	89 4d a0	 mov	 DWORD PTR tv283[ebp], ecx
  004ed	eb 1d		 jmp	 SHORT $LN58@repair_lan
$LN57@repair_lan:
  004ef	68 e9 04 00 00	 push	 1257			; 000004e9H
  004f4	68 00 00 00 00	 push	 OFFSET ??_C@_0EO@HOHMAODH@c?3?2users?2nhv90?2projects?2eech?2ap@
  004f9	8b 15 00 00 00
	00		 mov	 edx, DWORD PTR ?null_entity_pointer_message@@3PBDB ; null_entity_pointer_message
  004ff	52		 push	 edx
  00500	e8 00 00 00 00	 call	 ?process_assert@@YGXPBD0H@Z ; process_assert
  00505	c7 45 a0 00 00
	00 00		 mov	 DWORD PTR tv283[ebp], 0
$LN58@repair_lan:
  0050c	b8 01 00 00 00	 mov	 eax, 1
  00511	85 c0		 test	 eax, eax
  00513	74 09		 je	 SHORT $LN59@repair_lan
  00515	c7 45 9c 73 00
	00 00		 mov	 DWORD PTR tv290[ebp], 115 ; 00000073H
  0051c	eb 1d		 jmp	 SHORT $LN60@repair_lan
$LN59@repair_lan:
  0051e	68 e9 04 00 00	 push	 1257			; 000004e9H
  00523	68 00 00 00 00	 push	 OFFSET ??_C@_0EO@HOHMAODH@c?3?2users?2nhv90?2projects?2eech?2ap@
  00528	8b 0d 00 00 00
	00		 mov	 ecx, DWORD PTR ?overload_invalid_int_type_message@@3PBDB ; overload_invalid_int_type_message
  0052e	51		 push	 ecx
  0052f	e8 00 00 00 00	 call	 ?process_assert@@YGXPBD0H@Z ; process_assert
  00534	c7 45 9c 00 00
	00 00		 mov	 DWORD PTR tv290[ebp], 0
$LN60@repair_lan:
  0053b	6a 73		 push	 115			; 00000073H
  0053d	8b 55 fc	 mov	 edx, DWORD PTR _en$[ebp]
  00540	52		 push	 edx
  00541	69 45 a0 5c 04
	00 00		 imul	 eax, DWORD PTR tv283[ebp], 1116
  00548	8b 4d 9c	 mov	 ecx, DWORD PTR tv290[ebp]
  0054b	8b 94 88 00 00
	00 00		 mov	 edx, DWORD PTR ?fn_get_local_entity_int_value@@3PAY0BBH@P6GHPAUENTITY@@W4INT_TYPES@@@ZA[eax+ecx*4]
  00552	ff d2		 call	 edx
  00554	85 c0		 test	 eax, eax
  00556	75 0a		 jne	 SHORT $LN17@repair_lan
  00558	83 7d e4 00	 cmp	 DWORD PTR _landing_flag$[ebp], 0
  0055c	0f 84 8a 02 00
	00		 je	 $LN7@repair_lan
$LN17@repair_lan:

; 1258 : 				{
; 1259 : 	
; 1260 : 					group = get_local_entity_parent (en, LIST_TYPE_MEMBER);

  00562	83 7d fc 00	 cmp	 DWORD PTR _en$[ebp], 0
  00566	74 0a		 je	 SHORT $LN61@repair_lan
  00568	8b 45 fc	 mov	 eax, DWORD PTR _en$[ebp]
  0056b	8b 08		 mov	 ecx, DWORD PTR [eax]
  0056d	89 4d a0	 mov	 DWORD PTR tv304[ebp], ecx
  00570	eb 21		 jmp	 SHORT $LN62@repair_lan
$LN61@repair_lan:
  00572	8b 15 00 00 00
	00		 mov	 edx, DWORD PTR ?__LINE__Var@?0??repair_landing_entity_locks@@YGXW4PACK_MODES@@@Z@4JA
  00578	83 c2 78	 add	 edx, 120		; 00000078H
  0057b	52		 push	 edx
  0057c	68 00 00 00 00	 push	 OFFSET ??_C@_0EO@HOHMAODH@c?3?2users?2nhv90?2projects?2eech?2ap@
  00581	a1 00 00 00 00	 mov	 eax, DWORD PTR ?null_entity_pointer_message@@3PBDB ; null_entity_pointer_message
  00586	50		 push	 eax
  00587	e8 00 00 00 00	 call	 ?process_assert@@YGXPBD0H@Z ; process_assert
  0058c	c7 45 a0 00 00
	00 00		 mov	 DWORD PTR tv304[ebp], 0
$LN62@repair_lan:
  00593	b9 01 00 00 00	 mov	 ecx, 1
  00598	85 c9		 test	 ecx, ecx
  0059a	74 09		 je	 SHORT $LN63@repair_lan
  0059c	c7 45 9c 19 00
	00 00		 mov	 DWORD PTR tv312[ebp], 25 ; 00000019H
  005a3	eb 21		 jmp	 SHORT $LN64@repair_lan
$LN63@repair_lan:
  005a5	8b 15 00 00 00
	00		 mov	 edx, DWORD PTR ?__LINE__Var@?0??repair_landing_entity_locks@@YGXW4PACK_MODES@@@Z@4JA
  005ab	83 c2 78	 add	 edx, 120		; 00000078H
  005ae	52		 push	 edx
  005af	68 00 00 00 00	 push	 OFFSET ??_C@_0EO@HOHMAODH@c?3?2users?2nhv90?2projects?2eech?2ap@
  005b4	a1 00 00 00 00	 mov	 eax, DWORD PTR ?overload_invalid_list_type_message@@3PBDB ; overload_invalid_list_type_message
  005b9	50		 push	 eax
  005ba	e8 00 00 00 00	 call	 ?process_assert@@YGXPBD0H@Z ; process_assert
  005bf	c7 45 9c 00 00
	00 00		 mov	 DWORD PTR tv312[ebp], 0
$LN64@repair_lan:
  005c6	6a 19		 push	 25			; 00000019H
  005c8	8b 4d fc	 mov	 ecx, DWORD PTR _en$[ebp]
  005cb	51		 push	 ecx
  005cc	69 55 a0 b4 00
	00 00		 imul	 edx, DWORD PTR tv304[ebp], 180
  005d3	8b 45 9c	 mov	 eax, DWORD PTR tv312[ebp]
  005d6	8b 8c 82 00 00
	00 00		 mov	 ecx, DWORD PTR ?fn_get_local_entity_parent@@3PAY0CN@P6GPAUENTITY@@PAU1@W4LIST_TYPES@@@ZA[edx+eax*4]
  005dd	ff d1		 call	 ecx
  005df	89 45 f4	 mov	 DWORD PTR _group$[ebp], eax

; 1261 : 	
; 1262 : 					keysite = get_local_entity_parent (group, LIST_TYPE_KEYSITE_GROUP);

  005e2	83 7d f4 00	 cmp	 DWORD PTR _group$[ebp], 0
  005e6	74 0a		 je	 SHORT $LN65@repair_lan
  005e8	8b 45 f4	 mov	 eax, DWORD PTR _group$[ebp]
  005eb	8b 08		 mov	 ecx, DWORD PTR [eax]
  005ed	89 4d a0	 mov	 DWORD PTR tv324[ebp], ecx
  005f0	eb 21		 jmp	 SHORT $LN66@repair_lan
$LN65@repair_lan:
  005f2	8b 15 00 00 00
	00		 mov	 edx, DWORD PTR ?__LINE__Var@?0??repair_landing_entity_locks@@YGXW4PACK_MODES@@@Z@4JA
  005f8	83 c2 7a	 add	 edx, 122		; 0000007aH
  005fb	52		 push	 edx
  005fc	68 00 00 00 00	 push	 OFFSET ??_C@_0EO@HOHMAODH@c?3?2users?2nhv90?2projects?2eech?2ap@
  00601	a1 00 00 00 00	 mov	 eax, DWORD PTR ?null_entity_pointer_message@@3PBDB ; null_entity_pointer_message
  00606	50		 push	 eax
  00607	e8 00 00 00 00	 call	 ?process_assert@@YGXPBD0H@Z ; process_assert
  0060c	c7 45 a0 00 00
	00 00		 mov	 DWORD PTR tv324[ebp], 0
$LN66@repair_lan:
  00613	b9 01 00 00 00	 mov	 ecx, 1
  00618	85 c9		 test	 ecx, ecx
  0061a	74 09		 je	 SHORT $LN67@repair_lan
  0061c	c7 45 9c 16 00
	00 00		 mov	 DWORD PTR tv332[ebp], 22 ; 00000016H
  00623	eb 21		 jmp	 SHORT $LN68@repair_lan
$LN67@repair_lan:
  00625	8b 15 00 00 00
	00		 mov	 edx, DWORD PTR ?__LINE__Var@?0??repair_landing_entity_locks@@YGXW4PACK_MODES@@@Z@4JA
  0062b	83 c2 7a	 add	 edx, 122		; 0000007aH
  0062e	52		 push	 edx
  0062f	68 00 00 00 00	 push	 OFFSET ??_C@_0EO@HOHMAODH@c?3?2users?2nhv90?2projects?2eech?2ap@
  00634	a1 00 00 00 00	 mov	 eax, DWORD PTR ?overload_invalid_list_type_message@@3PBDB ; overload_invalid_list_type_message
  00639	50		 push	 eax
  0063a	e8 00 00 00 00	 call	 ?process_assert@@YGXPBD0H@Z ; process_assert
  0063f	c7 45 9c 00 00
	00 00		 mov	 DWORD PTR tv332[ebp], 0
$LN68@repair_lan:
  00646	6a 16		 push	 22			; 00000016H
  00648	8b 4d f4	 mov	 ecx, DWORD PTR _group$[ebp]
  0064b	51		 push	 ecx
  0064c	69 55 a0 b4 00
	00 00		 imul	 edx, DWORD PTR tv324[ebp], 180
  00653	8b 45 9c	 mov	 eax, DWORD PTR tv332[ebp]
  00656	8b 8c 82 00 00
	00 00		 mov	 ecx, DWORD PTR ?fn_get_local_entity_parent@@3PAY0CN@P6GPAUENTITY@@PAU1@W4LIST_TYPES@@@ZA[edx+eax*4]
  0065d	ff d1		 call	 ecx
  0065f	89 45 f0	 mov	 DWORD PTR _keysite$[ebp], eax

; 1263 : 
; 1264 : 					if (get_local_entity_type (keysite) != ENTITY_TYPE_KEYSITE)

  00662	83 7d f0 00	 cmp	 DWORD PTR _keysite$[ebp], 0
  00666	74 0a		 je	 SHORT $LN69@repair_lan
  00668	8b 45 f0	 mov	 eax, DWORD PTR _keysite$[ebp]
  0066b	8b 08		 mov	 ecx, DWORD PTR [eax]
  0066d	89 4d a0	 mov	 DWORD PTR tv343[ebp], ecx
  00670	eb 1d		 jmp	 SHORT $LN70@repair_lan
$LN69@repair_lan:
  00672	68 f0 04 00 00	 push	 1264			; 000004f0H
  00677	68 00 00 00 00	 push	 OFFSET ??_C@_0EO@HOHMAODH@c?3?2users?2nhv90?2projects?2eech?2ap@
  0067c	8b 15 00 00 00
	00		 mov	 edx, DWORD PTR ?null_entity_pointer_message@@3PBDB ; null_entity_pointer_message
  00682	52		 push	 edx
  00683	e8 00 00 00 00	 call	 ?process_assert@@YGXPBD0H@Z ; process_assert
  00688	c7 45 a0 00 00
	00 00		 mov	 DWORD PTR tv343[ebp], 0
$LN70@repair_lan:
  0068f	83 7d a0 0f	 cmp	 DWORD PTR tv343[ebp], 15 ; 0000000fH
  00693	0f 84 a8 00 00
	00		 je	 $LN18@repair_lan

; 1265 : 					{
; 1266 : 			
; 1267 : 						ASSERT (get_local_entity_type (en) == ENTITY_TYPE_SHIP_VEHICLE);

  00699	83 7d fc 00	 cmp	 DWORD PTR _en$[ebp], 0
  0069d	74 0a		 je	 SHORT $LN71@repair_lan
  0069f	8b 45 fc	 mov	 eax, DWORD PTR _en$[ebp]
  006a2	8b 08		 mov	 ecx, DWORD PTR [eax]
  006a4	89 4d a0	 mov	 DWORD PTR tv351[ebp], ecx
  006a7	eb 21		 jmp	 SHORT $LN72@repair_lan
$LN71@repair_lan:
  006a9	8b 15 00 00 00
	00		 mov	 edx, DWORD PTR ?__LINE__Var@?0??repair_landing_entity_locks@@YGXW4PACK_MODES@@@Z@4JA
  006af	83 c2 7f	 add	 edx, 127		; 0000007fH
  006b2	52		 push	 edx
  006b3	68 00 00 00 00	 push	 OFFSET ??_C@_0EO@HOHMAODH@c?3?2users?2nhv90?2projects?2eech?2ap@
  006b8	a1 00 00 00 00	 mov	 eax, DWORD PTR ?null_entity_pointer_message@@3PBDB ; null_entity_pointer_message
  006bd	50		 push	 eax
  006be	e8 00 00 00 00	 call	 ?process_assert@@YGXPBD0H@Z ; process_assert
  006c3	c7 45 a0 00 00
	00 00		 mov	 DWORD PTR tv351[ebp], 0
$LN72@repair_lan:
  006ca	83 7d a0 1c	 cmp	 DWORD PTR tv351[ebp], 28 ; 0000001cH
  006ce	74 18		 je	 SHORT $LN20@repair_lan
  006d0	a1 00 00 00 00	 mov	 eax, DWORD PTR ?__LINE__Var@?0??repair_landing_entity_locks@@YGXW4PACK_MODES@@@Z@4JA
  006d5	83 c0 7f	 add	 eax, 127		; 0000007fH
  006d8	50		 push	 eax
  006d9	68 00 00 00 00	 push	 OFFSET ??_C@_0EO@HOHMAODH@c?3?2users?2nhv90?2projects?2eech?2ap@
  006de	68 00 00 00 00	 push	 OFFSET ??_C@_0DH@OIAJMANP@get_local_entity_type?5?$CIen?$CJ?5?$DN?$DN?5E@
  006e3	e8 00 00 00 00	 call	 ?process_assert@@YGXPBD0H@Z ; process_assert
$LN20@repair_lan:

; 1268 : 			
; 1269 : 						ASSERT (get_local_entity_type (keysite) == ENTITY_TYPE_FORCE);

  006e8	83 7d f0 00	 cmp	 DWORD PTR _keysite$[ebp], 0
  006ec	74 0a		 je	 SHORT $LN73@repair_lan
  006ee	8b 45 f0	 mov	 eax, DWORD PTR _keysite$[ebp]
  006f1	8b 08		 mov	 ecx, DWORD PTR [eax]
  006f3	89 4d a0	 mov	 DWORD PTR tv363[ebp], ecx
  006f6	eb 24		 jmp	 SHORT $LN74@repair_lan
$LN73@repair_lan:
  006f8	8b 15 00 00 00
	00		 mov	 edx, DWORD PTR ?__LINE__Var@?0??repair_landing_entity_locks@@YGXW4PACK_MODES@@@Z@4JA
  006fe	81 c2 81 00 00
	00		 add	 edx, 129		; 00000081H
  00704	52		 push	 edx
  00705	68 00 00 00 00	 push	 OFFSET ??_C@_0EO@HOHMAODH@c?3?2users?2nhv90?2projects?2eech?2ap@
  0070a	a1 00 00 00 00	 mov	 eax, DWORD PTR ?null_entity_pointer_message@@3PBDB ; null_entity_pointer_message
  0070f	50		 push	 eax
  00710	e8 00 00 00 00	 call	 ?process_assert@@YGXPBD0H@Z ; process_assert
  00715	c7 45 a0 00 00
	00 00		 mov	 DWORD PTR tv363[ebp], 0
$LN74@repair_lan:
  0071c	83 7d a0 0b	 cmp	 DWORD PTR tv363[ebp], 11 ; 0000000bH
  00720	74 1a		 je	 SHORT $LN21@repair_lan
  00722	a1 00 00 00 00	 mov	 eax, DWORD PTR ?__LINE__Var@?0??repair_landing_entity_locks@@YGXW4PACK_MODES@@@Z@4JA
  00727	05 81 00 00 00	 add	 eax, 129		; 00000081H
  0072c	50		 push	 eax
  0072d	68 00 00 00 00	 push	 OFFSET ??_C@_0EO@HOHMAODH@c?3?2users?2nhv90?2projects?2eech?2ap@
  00732	68 00 00 00 00	 push	 OFFSET ??_C@_0DF@DFDNBLDE@get_local_entity_type?5?$CIkeysite?$CJ@
  00737	e8 00 00 00 00	 call	 ?process_assert@@YGXPBD0H@Z ; process_assert
$LN21@repair_lan:

; 1270 : 			
; 1271 : 						#if DEBUG_MODULE
; 1272 : 			
; 1273 : 						debug_log ("LANDING: %s. Not repairing locks", get_local_entity_string (en, STRING_TYPE_FULL_NAME));
; 1274 : 			
; 1275 : 						#endif
; 1276 : 
; 1277 : 					}
; 1278 : 					else

  0073c	e9 ab 00 00 00	 jmp	 $LN7@repair_lan
$LN18@repair_lan:

; 1279 : 					{
; 1280 : 		
; 1281 : 						landing = get_local_entity_landing_entity (keysite, group_database [get_local_entity_int_value (group, INT_TYPE_ENTITY_SUB_TYPE)].default_landing_type);

  00741	83 7d f4 00	 cmp	 DWORD PTR _group$[ebp], 0
  00745	74 0a		 je	 SHORT $LN75@repair_lan
  00747	8b 45 f4	 mov	 eax, DWORD PTR _group$[ebp]
  0074a	8b 08		 mov	 ecx, DWORD PTR [eax]
  0074c	89 4d a0	 mov	 DWORD PTR tv376[ebp], ecx
  0074f	eb 24		 jmp	 SHORT $LN76@repair_lan
$LN75@repair_lan:
  00751	8b 15 00 00 00
	00		 mov	 edx, DWORD PTR ?__LINE__Var@?0??repair_landing_entity_locks@@YGXW4PACK_MODES@@@Z@4JA
  00757	81 c2 8d 00 00
	00		 add	 edx, 141		; 0000008dH
  0075d	52		 push	 edx
  0075e	68 00 00 00 00	 push	 OFFSET ??_C@_0EO@HOHMAODH@c?3?2users?2nhv90?2projects?2eech?2ap@
  00763	a1 00 00 00 00	 mov	 eax, DWORD PTR ?null_entity_pointer_message@@3PBDB ; null_entity_pointer_message
  00768	50		 push	 eax
  00769	e8 00 00 00 00	 call	 ?process_assert@@YGXPBD0H@Z ; process_assert
  0076e	c7 45 a0 00 00
	00 00		 mov	 DWORD PTR tv376[ebp], 0
$LN76@repair_lan:
  00775	b9 01 00 00 00	 mov	 ecx, 1
  0077a	85 c9		 test	 ecx, ecx
  0077c	74 09		 je	 SHORT $LN77@repair_lan
  0077e	c7 45 9c 34 00
	00 00		 mov	 DWORD PTR tv384[ebp], 52 ; 00000034H
  00785	eb 24		 jmp	 SHORT $LN78@repair_lan
$LN77@repair_lan:
  00787	8b 15 00 00 00
	00		 mov	 edx, DWORD PTR ?__LINE__Var@?0??repair_landing_entity_locks@@YGXW4PACK_MODES@@@Z@4JA
  0078d	81 c2 8d 00 00
	00		 add	 edx, 141		; 0000008dH
  00793	52		 push	 edx
  00794	68 00 00 00 00	 push	 OFFSET ??_C@_0EO@HOHMAODH@c?3?2users?2nhv90?2projects?2eech?2ap@
  00799	a1 00 00 00 00	 mov	 eax, DWORD PTR ?overload_invalid_int_type_message@@3PBDB ; overload_invalid_int_type_message
  0079e	50		 push	 eax
  0079f	e8 00 00 00 00	 call	 ?process_assert@@YGXPBD0H@Z ; process_assert
  007a4	c7 45 9c 00 00
	00 00		 mov	 DWORD PTR tv384[ebp], 0
$LN78@repair_lan:
  007ab	6a 34		 push	 52			; 00000034H
  007ad	8b 4d f4	 mov	 ecx, DWORD PTR _group$[ebp]
  007b0	51		 push	 ecx
  007b1	69 55 a0 5c 04
	00 00		 imul	 edx, DWORD PTR tv376[ebp], 1116
  007b8	8b 45 9c	 mov	 eax, DWORD PTR tv384[ebp]
  007bb	8b 8c 82 00 00
	00 00		 mov	 ecx, DWORD PTR ?fn_get_local_entity_int_value@@3PAY0BBH@P6GHPAUENTITY@@W4INT_TYPES@@@ZA[edx+eax*4]
  007c2	ff d1		 call	 ecx
  007c4	6b d0 64	 imul	 edx, eax, 100
  007c7	8b 82 18 00 00
	00		 mov	 eax, DWORD PTR ?group_database@@3PAUGROUP_DATA@@A[edx+24]
  007cd	50		 push	 eax
  007ce	8b 4d f0	 mov	 ecx, DWORD PTR _keysite$[ebp]
  007d1	51		 push	 ecx
  007d2	e8 00 00 00 00	 call	 ?get_local_entity_landing_entity@@YGPAUENTITY@@PAU1@H@Z ; get_local_entity_landing_entity
  007d7	89 45 ec	 mov	 DWORD PTR _landing$[ebp], eax

; 1282 : 		
; 1283 : 						#if DEBUG_MODULE
; 1284 : 		
; 1285 : 						debug_log ("EN_SESSN: LOCK_REPAIRING: %s landed site lock for %s (%d) total %d, free %d, locks (landing %d, landed %d takeoff %d)", get_local_entity_string (keysite, STRING_TYPE_KEYSITE_NAME), get_local_entity_type_name (en), get_local_entity_index (en),
; 1286 : 							get_local_entity_int_value (landing, INT_TYPE_TOTAL_LANDING_SITES),
; 1287 : 							get_local_entity_int_value (landing, INT_TYPE_FREE_LANDING_SITES),
; 1288 : 							get_local_entity_int_value (landing, INT_TYPE_LANDING_LOCK),
; 1289 : 							get_local_entity_int_value (landing, INT_TYPE_LANDED_LOCK),
; 1290 : 							get_local_entity_int_value (landing, INT_TYPE_TAKEOFF_LOCK));
; 1291 : 		
; 1292 : 						#endif
; 1293 : 			
; 1294 : 						notify_local_entity (ENTITY_MESSAGE_LOCK_LANDING_SITE, landing, en);

  007da	8b 45 fc	 mov	 eax, DWORD PTR _en$[ebp]
  007dd	50		 push	 eax
  007de	8b 4d ec	 mov	 ecx, DWORD PTR _landing$[ebp]
  007e1	51		 push	 ecx
  007e2	6a 26		 push	 38			; 00000026H
  007e4	e8 00 00 00 00	 call	 ?notify_local_entity@@YAHW4ENTITY_MESSAGES@@PAUENTITY@@1ZZ ; notify_local_entity
  007e9	83 c4 0c	 add	 esp, 12			; 0000000cH
$LN7@repair_lan:

; 1295 : 					}
; 1296 : 				}
; 1297 : 			}
; 1298 : 		}
; 1299 : 
; 1300 : 		en = get_local_entity_succ (en);

  007ec	8b 45 fc	 mov	 eax, DWORD PTR _en$[ebp]
  007ef	8b 48 08	 mov	 ecx, DWORD PTR [eax+8]
  007f2	89 4d fc	 mov	 DWORD PTR _en$[ebp], ecx

; 1301 : 	}

  007f5	e9 22 f8 ff ff	 jmp	 $LN2@repair_lan
$LN1@repair_lan:

; 1302 : }

  007fa	5f		 pop	 edi
  007fb	5e		 pop	 esi
  007fc	5b		 pop	 ebx
  007fd	8b e5		 mov	 esp, ebp
  007ff	5d		 pop	 ebp
  00800	c2 04 00	 ret	 4
?repair_landing_entity_locks@@YGXW4PACK_MODES@@@Z ENDP	; repair_landing_entity_locks
_TEXT	ENDS
; Function compile flags: /Odtp /ZI
; File c:\users\nhv90\projects\eech\aphavoc\source\entity\system\en_comms\en_sessn.c
;	COMDAT ?dump_entities@@YGXXZ
_TEXT	SEGMENT
?dump_entities@@YGXXZ PROC				; dump_entities, COMDAT

; 1463 : {

  00000	55		 push	 ebp
  00001	8b ec		 mov	 ebp, esp
  00003	83 ec 40	 sub	 esp, 64			; 00000040H
  00006	53		 push	 ebx
  00007	56		 push	 esi
  00008	57		 push	 edi

; 1464 : /*
; 1465 : 	int
; 1466 : 		loop;
; 1467 : 
; 1468 : 	for (loop = 0; loop < 60000; loop ++)
; 1469 : 	{
; 1470 : 
; 1471 : 		if (get_local_entity_type (&entities [loop]) != ENTITY_TYPE_UNKNOWN)
; 1472 : 		{
; 1473 : 
; 1474 : 			debug_log ("EN_SESSN: entity %d = %s sub_type = %d", loop, get_local_entity_type_name (&entities [loop]), get_local_entity_int_value (&entities [loop], INT_TYPE_ENTITY_SUB_TYPE));
; 1475 : 		}
; 1476 : 		else
; 1477 : 		{
; 1478 : 
; 1479 : 			debug_log ("EN_SESSN: entity %d = %s", loop, get_local_entity_type_name (&entities [loop]));
; 1480 : 		}
; 1481 : 	}
; 1482 : 	*/
; 1483 : }

  00009	5f		 pop	 edi
  0000a	5e		 pop	 esi
  0000b	5b		 pop	 ebx
  0000c	8b e5		 mov	 esp, ebp
  0000e	5d		 pop	 ebp
  0000f	c3		 ret	 0
?dump_entities@@YGXXZ ENDP				; dump_entities
_TEXT	ENDS
; Function compile flags: /Odtp /ZI
; File c:\users\nhv90\projects\eech\aphavoc\source\entity\system\en_comms\en_sessn.c
;	COMDAT ?register_attach_sound_effect_to_object@@YGXPAUENTITY@@HW4ENTITY_SIDES@@HHH@Z
_TEXT	SEGMENT
_new_sound_effect_creation$ = -4			; size = 4
_en$ = 8						; size = 4
_index$ = 12						; size = 4
_side$ = 16						; size = 4
_sub_type$ = 20						; size = 4
_valid$ = 24						; size = 4
_sample_index$ = 28					; size = 4
?register_attach_sound_effect_to_object@@YGXPAUENTITY@@HW4ENTITY_SIDES@@HHH@Z PROC ; register_attach_sound_effect_to_object, COMDAT

; 1339 : {

  00000	55		 push	 ebp
  00001	8b ec		 mov	 ebp, esp
  00003	83 ec 44	 sub	 esp, 68			; 00000044H
  00006	53		 push	 ebx
  00007	56		 push	 esi
  00008	57		 push	 edi

; 1340 : 
; 1341 : 	comms_entity_sound_effect_creation_type
; 1342 : 		*new_sound_effect_creation;
; 1343 : 
; 1344 : 	new_sound_effect_creation = (comms_entity_sound_effect_creation_type *) malloc_heap_mem (sizeof (comms_entity_sound_effect_creation_type));

  00009	6a 1c		 push	 28			; 0000001cH
  0000b	e8 00 00 00 00	 call	 ?malloc_heap_memory@@YGPAXI@Z ; malloc_heap_memory
  00010	89 45 fc	 mov	 DWORD PTR _new_sound_effect_creation$[ebp], eax

; 1345 : 
; 1346 : 	new_sound_effect_creation->en = en;

  00013	8b 45 fc	 mov	 eax, DWORD PTR _new_sound_effect_creation$[ebp]
  00016	8b 4d 08	 mov	 ecx, DWORD PTR _en$[ebp]
  00019	89 08		 mov	 DWORD PTR [eax], ecx

; 1347 : 
; 1348 : 	new_sound_effect_creation->side = side;

  0001b	8b 45 fc	 mov	 eax, DWORD PTR _new_sound_effect_creation$[ebp]
  0001e	8b 4d 10	 mov	 ecx, DWORD PTR _side$[ebp]
  00021	89 48 08	 mov	 DWORD PTR [eax+8], ecx

; 1349 : 
; 1350 : 	new_sound_effect_creation->sub_type = sub_type;

  00024	8b 45 fc	 mov	 eax, DWORD PTR _new_sound_effect_creation$[ebp]
  00027	8b 4d 14	 mov	 ecx, DWORD PTR _sub_type$[ebp]
  0002a	89 48 04	 mov	 DWORD PTR [eax+4], ecx

; 1351 : 
; 1352 : 	new_sound_effect_creation->entity_index = index;

  0002d	8b 45 fc	 mov	 eax, DWORD PTR _new_sound_effect_creation$[ebp]
  00030	8b 4d 0c	 mov	 ecx, DWORD PTR _index$[ebp]
  00033	89 48 10	 mov	 DWORD PTR [eax+16], ecx

; 1353 : 
; 1354 : 	new_sound_effect_creation->sample_index = sample_index;

  00036	8b 45 fc	 mov	 eax, DWORD PTR _new_sound_effect_creation$[ebp]
  00039	8b 4d 1c	 mov	 ecx, DWORD PTR _sample_index$[ebp]
  0003c	89 48 14	 mov	 DWORD PTR [eax+20], ecx

; 1355 : 
; 1356 : 	new_sound_effect_creation->valid = valid;

  0003f	8b 45 fc	 mov	 eax, DWORD PTR _new_sound_effect_creation$[ebp]
  00042	8b 4d 18	 mov	 ecx, DWORD PTR _valid$[ebp]
  00045	89 48 0c	 mov	 DWORD PTR [eax+12], ecx

; 1357 : 
; 1358 : 	new_sound_effect_creation->next = entity_sound_effect_creation;

  00048	8b 45 fc	 mov	 eax, DWORD PTR _new_sound_effect_creation$[ebp]
  0004b	8b 0d 00 00 00
	00		 mov	 ecx, DWORD PTR ?entity_sound_effect_creation@@3PAUCOMMS_ENTITY_SOUND_EFFECT_CREATION_TYPE@@A ; entity_sound_effect_creation
  00051	89 48 18	 mov	 DWORD PTR [eax+24], ecx

; 1359 : 
; 1360 : 	entity_sound_effect_creation = new_sound_effect_creation;

  00054	8b 45 fc	 mov	 eax, DWORD PTR _new_sound_effect_creation$[ebp]
  00057	a3 00 00 00 00	 mov	 DWORD PTR ?entity_sound_effect_creation@@3PAUCOMMS_ENTITY_SOUND_EFFECT_CREATION_TYPE@@A, eax ; entity_sound_effect_creation

; 1361 : }

  0005c	5f		 pop	 edi
  0005d	5e		 pop	 esi
  0005e	5b		 pop	 ebx
  0005f	8b e5		 mov	 esp, ebp
  00061	5d		 pop	 ebp
  00062	c2 18 00	 ret	 24			; 00000018H
?register_attach_sound_effect_to_object@@YGXPAUENTITY@@HW4ENTITY_SIDES@@HHH@Z ENDP ; register_attach_sound_effect_to_object
_TEXT	ENDS
; Function compile flags: /Odtp /ZI
; File c:\users\nhv90\projects\eech\aphavoc\source\entity\system\en_comms\en_sessn.c
;	COMDAT ?register_attach_meta_smoke_list_to_object@@YGXPAUENTITY@@HHPAHH@Z
_TEXT	SEGMENT
_new_smoke_list_creation$ = -4				; size = 4
_en$ = 8						; size = 4
_type$ = 12						; size = 4
_attachment_point$ = 16					; size = 4
_entity_index_list$ = 20				; size = 4
_count$ = 24						; size = 4
?register_attach_meta_smoke_list_to_object@@YGXPAUENTITY@@HHPAHH@Z PROC ; register_attach_meta_smoke_list_to_object, COMDAT

; 1310 : {

  00000	55		 push	 ebp
  00001	8b ec		 mov	 ebp, esp
  00003	83 ec 44	 sub	 esp, 68			; 00000044H
  00006	53		 push	 ebx
  00007	56		 push	 esi
  00008	57		 push	 edi

; 1311 : 
; 1312 : 	comms_entity_smoke_list_creation_type
; 1313 : 		*new_smoke_list_creation;
; 1314 : 
; 1315 : 	new_smoke_list_creation = (comms_entity_smoke_list_creation_type *) malloc_heap_mem (sizeof (comms_entity_smoke_list_creation_type));

  00009	6a 18		 push	 24			; 00000018H
  0000b	e8 00 00 00 00	 call	 ?malloc_heap_memory@@YGPAXI@Z ; malloc_heap_memory
  00010	89 45 fc	 mov	 DWORD PTR _new_smoke_list_creation$[ebp], eax

; 1316 : 
; 1317 : 	new_smoke_list_creation->en = en;

  00013	8b 45 fc	 mov	 eax, DWORD PTR _new_smoke_list_creation$[ebp]
  00016	8b 4d 08	 mov	 ecx, DWORD PTR _en$[ebp]
  00019	89 08		 mov	 DWORD PTR [eax], ecx

; 1318 : 
; 1319 : 	new_smoke_list_creation->meta_smoke_type = (meta_smoke_list_types) type;

  0001b	8b 45 fc	 mov	 eax, DWORD PTR _new_smoke_list_creation$[ebp]
  0001e	8b 4d 0c	 mov	 ecx, DWORD PTR _type$[ebp]
  00021	89 48 04	 mov	 DWORD PTR [eax+4], ecx

; 1320 : 
; 1321 : 	new_smoke_list_creation->attachment_point = attachment_point;

  00024	8b 45 fc	 mov	 eax, DWORD PTR _new_smoke_list_creation$[ebp]
  00027	8b 4d 10	 mov	 ecx, DWORD PTR _attachment_point$[ebp]
  0002a	89 48 08	 mov	 DWORD PTR [eax+8], ecx

; 1322 : 
; 1323 : 	new_smoke_list_creation->count = count;

  0002d	8b 45 fc	 mov	 eax, DWORD PTR _new_smoke_list_creation$[ebp]
  00030	8b 4d 18	 mov	 ecx, DWORD PTR _count$[ebp]
  00033	89 48 0c	 mov	 DWORD PTR [eax+12], ecx

; 1324 : 
; 1325 : 	new_smoke_list_creation->entity_index_list = (int *) malloc_heap_mem (sizeof (int) * count);

  00036	8b 45 18	 mov	 eax, DWORD PTR _count$[ebp]
  00039	c1 e0 02	 shl	 eax, 2
  0003c	50		 push	 eax
  0003d	e8 00 00 00 00	 call	 ?malloc_heap_memory@@YGPAXI@Z ; malloc_heap_memory
  00042	8b 4d fc	 mov	 ecx, DWORD PTR _new_smoke_list_creation$[ebp]
  00045	89 41 10	 mov	 DWORD PTR [ecx+16], eax

; 1326 : 
; 1327 : 	memcpy (new_smoke_list_creation->entity_index_list, entity_index_list, sizeof (int) * count);

  00048	8b 45 18	 mov	 eax, DWORD PTR _count$[ebp]
  0004b	c1 e0 02	 shl	 eax, 2
  0004e	50		 push	 eax
  0004f	8b 4d 14	 mov	 ecx, DWORD PTR _entity_index_list$[ebp]
  00052	51		 push	 ecx
  00053	8b 55 fc	 mov	 edx, DWORD PTR _new_smoke_list_creation$[ebp]
  00056	8b 42 10	 mov	 eax, DWORD PTR [edx+16]
  00059	50		 push	 eax
  0005a	e8 00 00 00 00	 call	 _memcpy
  0005f	83 c4 0c	 add	 esp, 12			; 0000000cH

; 1328 : 
; 1329 : 	new_smoke_list_creation->next = entity_smoke_list_creation;

  00062	8b 45 fc	 mov	 eax, DWORD PTR _new_smoke_list_creation$[ebp]
  00065	8b 0d 00 00 00
	00		 mov	 ecx, DWORD PTR ?entity_smoke_list_creation@@3PAUCOMMS_ENTITY_SMOKE_LIST_CREATION_TYPE@@A ; entity_smoke_list_creation
  0006b	89 48 14	 mov	 DWORD PTR [eax+20], ecx

; 1330 : 
; 1331 : 	entity_smoke_list_creation = new_smoke_list_creation;

  0006e	8b 45 fc	 mov	 eax, DWORD PTR _new_smoke_list_creation$[ebp]
  00071	a3 00 00 00 00	 mov	 DWORD PTR ?entity_smoke_list_creation@@3PAUCOMMS_ENTITY_SMOKE_LIST_CREATION_TYPE@@A, eax ; entity_smoke_list_creation

; 1332 : }

  00076	5f		 pop	 edi
  00077	5e		 pop	 esi
  00078	5b		 pop	 ebx
  00079	8b e5		 mov	 esp, ebp
  0007b	5d		 pop	 ebp
  0007c	c2 14 00	 ret	 20			; 00000014H
?register_attach_meta_smoke_list_to_object@@YGXPAUENTITY@@HHPAHH@Z ENDP ; register_attach_meta_smoke_list_to_object
_TEXT	ENDS
; Function compile flags: /Odtp /ZI
; File c:\users\nhv90\projects\eech\aphavoc\source\entity\system\en_comms\en_sessn.c
;	COMDAT ?register_entity_list_root_for_post_unpack_validation@@YGHPAUENTITY@@H@Z
_TEXT	SEGMENT
_new_entity_list$ = -4					; size = 4
_en$ = 8						; size = 4
_list_type$ = 12					; size = 4
?register_entity_list_root_for_post_unpack_validation@@YGHPAUENTITY@@H@Z PROC ; register_entity_list_root_for_post_unpack_validation, COMDAT

; 868  : {

  00000	55		 push	 ebp
  00001	8b ec		 mov	 ebp, esp
  00003	83 ec 44	 sub	 esp, 68			; 00000044H
  00006	53		 push	 ebx
  00007	56		 push	 esi
  00008	57		 push	 edi

; 869  : 
; 870  : 	comms_entity_list_validation_type
; 871  : 		*new_entity_list;
; 872  : 
; 873  : 	new_entity_list = (comms_entity_list_validation_type *) malloc_heap_mem (sizeof (comms_entity_list_validation_type));

  00009	6a 0c		 push	 12			; 0000000cH
  0000b	e8 00 00 00 00	 call	 ?malloc_heap_memory@@YGPAXI@Z ; malloc_heap_memory
  00010	89 45 fc	 mov	 DWORD PTR _new_entity_list$[ebp], eax

; 874  : 
; 875  : 	new_entity_list->en = en;

  00013	8b 45 fc	 mov	 eax, DWORD PTR _new_entity_list$[ebp]
  00016	8b 4d 08	 mov	 ecx, DWORD PTR _en$[ebp]
  00019	89 08		 mov	 DWORD PTR [eax], ecx

; 876  : 
; 877  : 	new_entity_list->list_type = (list_types) list_type;

  0001b	8b 45 fc	 mov	 eax, DWORD PTR _new_entity_list$[ebp]
  0001e	8b 4d 0c	 mov	 ecx, DWORD PTR _list_type$[ebp]
  00021	89 48 04	 mov	 DWORD PTR [eax+4], ecx

; 878  : 
; 879  : 	new_entity_list->next = entity_list_root_validation;

  00024	8b 45 fc	 mov	 eax, DWORD PTR _new_entity_list$[ebp]
  00027	8b 0d 00 00 00
	00		 mov	 ecx, DWORD PTR ?entity_list_root_validation@@3PAUCOMMS_ENTITY_LIST_VALIDATION_TYPE@@A ; entity_list_root_validation
  0002d	89 48 08	 mov	 DWORD PTR [eax+8], ecx

; 880  : 
; 881  : 	entity_list_root_validation = new_entity_list;

  00030	8b 45 fc	 mov	 eax, DWORD PTR _new_entity_list$[ebp]
  00033	a3 00 00 00 00	 mov	 DWORD PTR ?entity_list_root_validation@@3PAUCOMMS_ENTITY_LIST_VALIDATION_TYPE@@A, eax ; entity_list_root_validation

; 882  : 
; 883  : 	#if DEBUG_MODULE
; 884  : 	{
; 885  : 
; 886  : 		entity
; 887  : 			*first_child;
; 888  : 
; 889  : 		debug_log ("EN_SESSN: registering entity %s (%d) for list root %s validation", get_local_entity_type_name (en), get_local_entity_index (en), get_list_type_name (list_type));
; 890  : 
; 891  : 		first_child = get_local_entity_first_child (en, list_type);
; 892  : 	}
; 893  : 	#endif
; 894  : 
; 895  : 	return TRUE;

  00038	b8 01 00 00 00	 mov	 eax, 1

; 896  : }

  0003d	5f		 pop	 edi
  0003e	5e		 pop	 esi
  0003f	5b		 pop	 ebx
  00040	8b e5		 mov	 esp, ebp
  00042	5d		 pop	 ebp
  00043	c2 08 00	 ret	 8
?register_entity_list_root_for_post_unpack_validation@@YGHPAUENTITY@@H@Z ENDP ; register_entity_list_root_for_post_unpack_validation
_TEXT	ENDS
; Function compile flags: /Odtp /ZI
; File c:\users\nhv90\projects\eech\aphavoc\source\entity\system\en_comms\en_sessn.c
;	COMDAT ?register_entity_list_link_for_post_unpack_validation@@YGHPAUENTITY@@H@Z
_TEXT	SEGMENT
_new_entity_list$ = -4					; size = 4
_en$ = 8						; size = 4
_list_type$ = 12					; size = 4
?register_entity_list_link_for_post_unpack_validation@@YGHPAUENTITY@@H@Z PROC ; register_entity_list_link_for_post_unpack_validation, COMDAT

; 832  : {

  00000	55		 push	 ebp
  00001	8b ec		 mov	 ebp, esp
  00003	83 ec 44	 sub	 esp, 68			; 00000044H
  00006	53		 push	 ebx
  00007	56		 push	 esi
  00008	57		 push	 edi

; 833  : 
; 834  : 	comms_entity_list_validation_type
; 835  : 		*new_entity_list;
; 836  : 
; 837  : 	new_entity_list = (comms_entity_list_validation_type *) malloc_heap_mem (sizeof (comms_entity_list_validation_type));

  00009	6a 0c		 push	 12			; 0000000cH
  0000b	e8 00 00 00 00	 call	 ?malloc_heap_memory@@YGPAXI@Z ; malloc_heap_memory
  00010	89 45 fc	 mov	 DWORD PTR _new_entity_list$[ebp], eax

; 838  : 
; 839  : 	new_entity_list->en = en;

  00013	8b 45 fc	 mov	 eax, DWORD PTR _new_entity_list$[ebp]
  00016	8b 4d 08	 mov	 ecx, DWORD PTR _en$[ebp]
  00019	89 08		 mov	 DWORD PTR [eax], ecx

; 840  : 
; 841  : 	new_entity_list->list_type = (list_types) list_type;

  0001b	8b 45 fc	 mov	 eax, DWORD PTR _new_entity_list$[ebp]
  0001e	8b 4d 0c	 mov	 ecx, DWORD PTR _list_type$[ebp]
  00021	89 48 04	 mov	 DWORD PTR [eax+4], ecx

; 842  : 
; 843  : 	new_entity_list->next = entity_list_link_validation;

  00024	8b 45 fc	 mov	 eax, DWORD PTR _new_entity_list$[ebp]
  00027	8b 0d 00 00 00
	00		 mov	 ecx, DWORD PTR ?entity_list_link_validation@@3PAUCOMMS_ENTITY_LIST_VALIDATION_TYPE@@A ; entity_list_link_validation
  0002d	89 48 08	 mov	 DWORD PTR [eax+8], ecx

; 844  : 
; 845  : 	entity_list_link_validation = new_entity_list;

  00030	8b 45 fc	 mov	 eax, DWORD PTR _new_entity_list$[ebp]
  00033	a3 00 00 00 00	 mov	 DWORD PTR ?entity_list_link_validation@@3PAUCOMMS_ENTITY_LIST_VALIDATION_TYPE@@A, eax ; entity_list_link_validation

; 846  : 
; 847  : 	#if DEBUG_MODULE
; 848  : 	{
; 849  : 
; 850  : 		entity
; 851  : 			*parent;
; 852  : 
; 853  : 		debug_log ("EN_SESSN: registering entity %s (%d) for link list %s validation", get_local_entity_type_name (en), get_local_entity_index (en), get_list_type_name (list_type));
; 854  : 
; 855  : 		parent = get_local_entity_parent (en, list_type);
; 856  : 
; 857  : 	}
; 858  : 	#endif
; 859  : 
; 860  : 	return TRUE;

  00038	b8 01 00 00 00	 mov	 eax, 1

; 861  : }

  0003d	5f		 pop	 edi
  0003e	5e		 pop	 esi
  0003f	5b		 pop	 ebx
  00040	8b e5		 mov	 esp, ebp
  00042	5d		 pop	 ebp
  00043	c2 08 00	 ret	 8
?register_entity_list_link_for_post_unpack_validation@@YGHPAUENTITY@@H@Z ENDP ; register_entity_list_link_for_post_unpack_validation
_TEXT	ENDS
; Function compile flags: /Odtp /ZI
; File c:\users\nhv90\projects\eech\aphavoc\source\entity\system\en_comms\en_sessn.c
;	COMDAT ?initialise_entity_list_validation@@YGXXZ
_TEXT	SEGMENT
_destroy_entity_list$ = -12				; size = 4
_destroy_sound_effect$ = -8				; size = 4
_destroy_smoke_list$ = -4				; size = 4
?initialise_entity_list_validation@@YGXXZ PROC		; initialise_entity_list_validation, COMDAT

; 751  : {

  00000	55		 push	 ebp
  00001	8b ec		 mov	 ebp, esp
  00003	83 ec 4c	 sub	 esp, 76			; 0000004cH
  00006	53		 push	 ebx
  00007	56		 push	 esi
  00008	57		 push	 edi
$LN2@initialise:

; 752  : 
; 753  : 	comms_entity_smoke_list_creation_type
; 754  : 		*destroy_smoke_list;
; 755  : 
; 756  : 	comms_entity_sound_effect_creation_type
; 757  : 		*destroy_sound_effect;
; 758  : 
; 759  : 	comms_entity_list_validation_type
; 760  : 		*destroy_entity_list;
; 761  : 
; 762  : 	//
; 763  : 	// list links
; 764  : 	//
; 765  : 	
; 766  : 	while (entity_list_link_validation)

  00009	83 3d 00 00 00
	00 00		 cmp	 DWORD PTR ?entity_list_link_validation@@3PAUCOMMS_ENTITY_LIST_VALIDATION_TYPE@@A, 0 ; entity_list_link_validation
  00010	74 21		 je	 SHORT $LN3@initialise

; 767  : 	{
; 768  : 
; 769  : 		destroy_entity_list = entity_list_link_validation;

  00012	a1 00 00 00 00	 mov	 eax, DWORD PTR ?entity_list_link_validation@@3PAUCOMMS_ENTITY_LIST_VALIDATION_TYPE@@A ; entity_list_link_validation
  00017	89 45 f4	 mov	 DWORD PTR _destroy_entity_list$[ebp], eax

; 770  : 
; 771  : 		entity_list_link_validation = entity_list_link_validation->next;

  0001a	a1 00 00 00 00	 mov	 eax, DWORD PTR ?entity_list_link_validation@@3PAUCOMMS_ENTITY_LIST_VALIDATION_TYPE@@A ; entity_list_link_validation
  0001f	8b 48 08	 mov	 ecx, DWORD PTR [eax+8]
  00022	89 0d 00 00 00
	00		 mov	 DWORD PTR ?entity_list_link_validation@@3PAUCOMMS_ENTITY_LIST_VALIDATION_TYPE@@A, ecx ; entity_list_link_validation

; 772  : 
; 773  : 		free_mem (destroy_entity_list);

  00028	8b 45 f4	 mov	 eax, DWORD PTR _destroy_entity_list$[ebp]
  0002b	50		 push	 eax
  0002c	e8 00 00 00 00	 call	 ?free_mem@@YGXPAX@Z	; free_mem

; 774  : 	}

  00031	eb d6		 jmp	 SHORT $LN2@initialise
$LN3@initialise:

; 775  : 
; 776  : 	entity_list_link_validation = NULL;

  00033	c7 05 00 00 00
	00 00 00 00 00	 mov	 DWORD PTR ?entity_list_link_validation@@3PAUCOMMS_ENTITY_LIST_VALIDATION_TYPE@@A, 0 ; entity_list_link_validation
$LN4@initialise:

; 777  : 
; 778  : 	//
; 779  : 	// list roots
; 780  : 	//
; 781  : 	
; 782  : 	while (entity_list_root_validation)

  0003d	83 3d 00 00 00
	00 00		 cmp	 DWORD PTR ?entity_list_root_validation@@3PAUCOMMS_ENTITY_LIST_VALIDATION_TYPE@@A, 0 ; entity_list_root_validation
  00044	74 21		 je	 SHORT $LN5@initialise

; 783  : 	{
; 784  : 
; 785  : 		destroy_entity_list = entity_list_root_validation;

  00046	a1 00 00 00 00	 mov	 eax, DWORD PTR ?entity_list_root_validation@@3PAUCOMMS_ENTITY_LIST_VALIDATION_TYPE@@A ; entity_list_root_validation
  0004b	89 45 f4	 mov	 DWORD PTR _destroy_entity_list$[ebp], eax

; 786  : 
; 787  : 		entity_list_root_validation = entity_list_root_validation->next;

  0004e	a1 00 00 00 00	 mov	 eax, DWORD PTR ?entity_list_root_validation@@3PAUCOMMS_ENTITY_LIST_VALIDATION_TYPE@@A ; entity_list_root_validation
  00053	8b 48 08	 mov	 ecx, DWORD PTR [eax+8]
  00056	89 0d 00 00 00
	00		 mov	 DWORD PTR ?entity_list_root_validation@@3PAUCOMMS_ENTITY_LIST_VALIDATION_TYPE@@A, ecx ; entity_list_root_validation

; 788  : 
; 789  : 		free_mem (destroy_entity_list);

  0005c	8b 45 f4	 mov	 eax, DWORD PTR _destroy_entity_list$[ebp]
  0005f	50		 push	 eax
  00060	e8 00 00 00 00	 call	 ?free_mem@@YGXPAX@Z	; free_mem

; 790  : 	}

  00065	eb d6		 jmp	 SHORT $LN4@initialise
$LN5@initialise:

; 791  : 
; 792  : 	entity_list_root_validation = NULL;

  00067	c7 05 00 00 00
	00 00 00 00 00	 mov	 DWORD PTR ?entity_list_root_validation@@3PAUCOMMS_ENTITY_LIST_VALIDATION_TYPE@@A, 0 ; entity_list_root_validation
$LN6@initialise:

; 793  : 
; 794  : 	//
; 795  : 	// smoke lists
; 796  : 	//
; 797  : 	
; 798  : 	while (entity_smoke_list_creation)

  00071	83 3d 00 00 00
	00 00		 cmp	 DWORD PTR ?entity_smoke_list_creation@@3PAUCOMMS_ENTITY_SMOKE_LIST_CREATION_TYPE@@A, 0 ; entity_smoke_list_creation
  00078	74 21		 je	 SHORT $LN7@initialise

; 799  : 	{
; 800  : 
; 801  : 		destroy_smoke_list = entity_smoke_list_creation;

  0007a	a1 00 00 00 00	 mov	 eax, DWORD PTR ?entity_smoke_list_creation@@3PAUCOMMS_ENTITY_SMOKE_LIST_CREATION_TYPE@@A ; entity_smoke_list_creation
  0007f	89 45 fc	 mov	 DWORD PTR _destroy_smoke_list$[ebp], eax

; 802  : 
; 803  : 		entity_smoke_list_creation = entity_smoke_list_creation->next;

  00082	a1 00 00 00 00	 mov	 eax, DWORD PTR ?entity_smoke_list_creation@@3PAUCOMMS_ENTITY_SMOKE_LIST_CREATION_TYPE@@A ; entity_smoke_list_creation
  00087	8b 48 14	 mov	 ecx, DWORD PTR [eax+20]
  0008a	89 0d 00 00 00
	00		 mov	 DWORD PTR ?entity_smoke_list_creation@@3PAUCOMMS_ENTITY_SMOKE_LIST_CREATION_TYPE@@A, ecx ; entity_smoke_list_creation

; 804  : 
; 805  : 		free_mem (destroy_smoke_list);

  00090	8b 45 fc	 mov	 eax, DWORD PTR _destroy_smoke_list$[ebp]
  00093	50		 push	 eax
  00094	e8 00 00 00 00	 call	 ?free_mem@@YGXPAX@Z	; free_mem

; 806  : 	}

  00099	eb d6		 jmp	 SHORT $LN6@initialise
$LN7@initialise:

; 807  : 
; 808  : 	entity_smoke_list_creation = NULL;

  0009b	c7 05 00 00 00
	00 00 00 00 00	 mov	 DWORD PTR ?entity_smoke_list_creation@@3PAUCOMMS_ENTITY_SMOKE_LIST_CREATION_TYPE@@A, 0 ; entity_smoke_list_creation
$LN8@initialise:

; 809  : 
; 810  : 	//
; 811  : 	// sound effects
; 812  : 	//
; 813  : 	
; 814  : 	while (entity_sound_effect_creation)

  000a5	83 3d 00 00 00
	00 00		 cmp	 DWORD PTR ?entity_sound_effect_creation@@3PAUCOMMS_ENTITY_SOUND_EFFECT_CREATION_TYPE@@A, 0 ; entity_sound_effect_creation
  000ac	74 21		 je	 SHORT $LN9@initialise

; 815  : 	{
; 816  : 
; 817  : 		destroy_sound_effect = entity_sound_effect_creation;

  000ae	a1 00 00 00 00	 mov	 eax, DWORD PTR ?entity_sound_effect_creation@@3PAUCOMMS_ENTITY_SOUND_EFFECT_CREATION_TYPE@@A ; entity_sound_effect_creation
  000b3	89 45 f8	 mov	 DWORD PTR _destroy_sound_effect$[ebp], eax

; 818  : 
; 819  : 		entity_sound_effect_creation = entity_sound_effect_creation->next;

  000b6	a1 00 00 00 00	 mov	 eax, DWORD PTR ?entity_sound_effect_creation@@3PAUCOMMS_ENTITY_SOUND_EFFECT_CREATION_TYPE@@A ; entity_sound_effect_creation
  000bb	8b 48 18	 mov	 ecx, DWORD PTR [eax+24]
  000be	89 0d 00 00 00
	00		 mov	 DWORD PTR ?entity_sound_effect_creation@@3PAUCOMMS_ENTITY_SOUND_EFFECT_CREATION_TYPE@@A, ecx ; entity_sound_effect_creation

; 820  : 
; 821  : 		free_mem (destroy_sound_effect);

  000c4	8b 45 f8	 mov	 eax, DWORD PTR _destroy_sound_effect$[ebp]
  000c7	50		 push	 eax
  000c8	e8 00 00 00 00	 call	 ?free_mem@@YGXPAX@Z	; free_mem

; 822  : 	}

  000cd	eb d6		 jmp	 SHORT $LN8@initialise
$LN9@initialise:

; 823  : 
; 824  : 	entity_sound_effect_creation = NULL;

  000cf	c7 05 00 00 00
	00 00 00 00 00	 mov	 DWORD PTR ?entity_sound_effect_creation@@3PAUCOMMS_ENTITY_SOUND_EFFECT_CREATION_TYPE@@A, 0 ; entity_sound_effect_creation

; 825  : }

  000d9	5f		 pop	 edi
  000da	5e		 pop	 esi
  000db	5b		 pop	 ebx
  000dc	8b e5		 mov	 esp, ebp
  000de	5d		 pop	 ebp
  000df	c3		 ret	 0
?initialise_entity_list_validation@@YGXXZ ENDP		; initialise_entity_list_validation
_TEXT	ENDS
; Function compile flags: /Odtp /ZI
; File c:\users\nhv90\projects\eech\aphavoc\source\entity\system\en_comms\en_sessn.c
;	COMDAT ?unpack_session@@YGHPAEHW4PACK_MODES@@@Z
_TEXT	SEGMENT
tv158 = -84						; size = 4
tv135 = -84						; size = 4
tv150 = -80						; size = 4
tv95 = -80						; size = 4
_unpack_buffer_overflow$ = -12				; size = 4
_type$ = -8						; size = 4
_en$ = -4						; size = 4
_buffer$ = 8						; size = 4
_buffer_size$ = 12					; size = 4
_mode$ = 16						; size = 4
?unpack_session@@YGHPAEHW4PACK_MODES@@@Z PROC		; unpack_session, COMDAT

; 498  : {

  00000	55		 push	 ebp
  00001	8b ec		 mov	 ebp, esp
  00003	83 ec 54	 sub	 esp, 84			; 00000054H
  00006	53		 push	 ebx
  00007	56		 push	 esi
  00008	57		 push	 edi

; 499  : 	entity
; 500  : 		*en;
; 501  : 
; 502  : 	entity_types
; 503  : 		type;
; 504  : 
; 505  : 	int
; 506  : 		unpack_buffer_overflow;
; 507  : 
; 508  : 	ASSERT (buffer);

  00009	83 7d 08 00	 cmp	 DWORD PTR _buffer$[ebp], 0
  0000d	75 18		 jne	 SHORT $LN6@unpack_ses
  0000f	a1 00 00 00 00	 mov	 eax, DWORD PTR ?__LINE__Var@?0??unpack_session@@YGHPAEHW4PACK_MODES@@@Z@4JA
  00014	83 c0 0a	 add	 eax, 10			; 0000000aH
  00017	50		 push	 eax
  00018	68 00 00 00 00	 push	 OFFSET ??_C@_0EO@HOHMAODH@c?3?2users?2nhv90?2projects?2eech?2ap@
  0001d	68 00 00 00 00	 push	 OFFSET ??_C@_06HOHPNJLC@buffer@
  00022	e8 00 00 00 00	 call	 ?process_assert@@YGXPBD0H@Z ; process_assert
$LN6@unpack_ses:

; 509  : 
; 510  : 	ASSERT (buffer_size > 0);

  00027	83 7d 0c 00	 cmp	 DWORD PTR _buffer_size$[ebp], 0
  0002b	7f 18		 jg	 SHORT $LN7@unpack_ses
  0002d	a1 00 00 00 00	 mov	 eax, DWORD PTR ?__LINE__Var@?0??unpack_session@@YGHPAEHW4PACK_MODES@@@Z@4JA
  00032	83 c0 0c	 add	 eax, 12			; 0000000cH
  00035	50		 push	 eax
  00036	68 00 00 00 00	 push	 OFFSET ??_C@_0EO@HOHMAODH@c?3?2users?2nhv90?2projects?2eech?2ap@
  0003b	68 00 00 00 00	 push	 OFFSET ??_C@_0BA@DMECBBBD@buffer_size?5?$DO?50@
  00040	e8 00 00 00 00	 call	 ?process_assert@@YGXPBD0H@Z ; process_assert
$LN7@unpack_ses:

; 511  : 
; 512  : 	ASSERT ((mode >= 0) && (mode < NUM_PACK_MODES));

  00045	83 7d 10 00	 cmp	 DWORD PTR _mode$[ebp], 0
  00049	7c 06		 jl	 SHORT $LN9@unpack_ses
  0004b	83 7d 10 04	 cmp	 DWORD PTR _mode$[ebp], 4
  0004f	7c 18		 jl	 SHORT $LN8@unpack_ses
$LN9@unpack_ses:
  00051	a1 00 00 00 00	 mov	 eax, DWORD PTR ?__LINE__Var@?0??unpack_session@@YGHPAEHW4PACK_MODES@@@Z@4JA
  00056	83 c0 0e	 add	 eax, 14			; 0000000eH
  00059	50		 push	 eax
  0005a	68 00 00 00 00	 push	 OFFSET ??_C@_0EO@HOHMAODH@c?3?2users?2nhv90?2projects?2eech?2ap@
  0005f	68 00 00 00 00	 push	 OFFSET ??_C@_0CH@MMFDPOBJ@?$CImode?5?$DO?$DN?50?$CJ?5?$CG?$CG?5?$CImode?5?$DM?5NUM_PACK@
  00064	e8 00 00 00 00	 call	 ?process_assert@@YGXPBD0H@Z ; process_assert
$LN8@unpack_ses:

; 513  : 
; 514  : 	#if !DEBUG_MODULE_PACK_ALL
; 515  : 
; 516  : 	disable_debug_log_entity_args ();

  00069	e8 00 00 00 00	 call	 ?disable_debug_log_entity_args@@YGXXZ ; disable_debug_log_entity_args

; 517  : 
; 518  : 	#endif
; 519  : 
; 520  : 	set_comms_data_flow (COMMS_DATA_FLOW_RX);

  0006e	6a 01		 push	 1
  00070	e8 00 00 00 00	 call	 ?set_comms_data_flow@@YGXW4COMMS_DATA_FLOW_TYPES@@@Z ; set_comms_data_flow

; 521  : 
; 522  : 	#if DEBUG_MODULE_PACK_ALL
; 523  : 
; 524  : 	debug_log ("<<<<<<<<<<<<<<<<<<<<<<<<<<<<<<<<<<<<<<<<");
; 525  : 	debug_log ("UNPACK SESSION: buffer_size = %d", buffer_size);
; 526  : 	debug_log ("<<<<<<<<<<<<<<<<<<<<<<<<<<<<<<<<<<<<<<<<");
; 527  : 
; 528  : 	#endif
; 529  : 
; 530  : 	/////////////////////////////////////////////////////////////////
; 531  : 	set_gunship_screen_progress_message (GUNSHIPS_SCREEN_GENERATING_CAMPAIGN_TEXT);

  00075	6a 01		 push	 1
  00077	e8 00 00 00 00	 call	 ?set_gunship_screen_progress_message@@YGXH@Z ; set_gunship_screen_progress_message

; 532  : 	initialise_entity_list_validation ();

  0007c	e8 00 00 00 00	 call	 ?initialise_entity_list_validation@@YGXXZ ; initialise_entity_list_validation

; 533  : 	/////////////////////////////////////////////////////////////////
; 534  : 
; 535  : 	open_unpack_buffer (buffer, buffer_size);

  00081	8b 45 0c	 mov	 eax, DWORD PTR _buffer_size$[ebp]
  00084	50		 push	 eax
  00085	8b 4d 08	 mov	 ecx, DWORD PTR _buffer$[ebp]
  00088	51		 push	 ecx
  00089	e8 00 00 00 00	 call	 ?open_unpack_buffer@@YGXPAEH@Z ; open_unpack_buffer

; 536  : 
; 537  : 	//
; 538  : 	// unpack sector entities first
; 539  : 	//
; 540  : 
; 541  : 	/////////////////////////////////////////////
; 542  : 	update_gunships_screen_progress_indicator ();

  0008e	e8 00 00 00 00	 call	 ?update_gunships_screen_progress_indicator@@YGXXZ ; update_gunships_screen_progress_indicator

; 543  : 	/////////////////////////////////////////////
; 544  : 
; 545  : 	unpack_local_sector_data (mode);

  00093	8b 45 10	 mov	 eax, DWORD PTR _mode$[ebp]
  00096	50		 push	 eax
  00097	e8 00 00 00 00	 call	 ?unpack_local_sector_data@@YGXW4PACK_MODES@@@Z ; unpack_local_sector_data

; 546  : 
; 547  : 	//
; 548  : 	// unpack pylon entities
; 549  : 	//
; 550  : 
; 551  : 	/////////////////////////////////////////////
; 552  : 	update_gunships_screen_progress_indicator ();

  0009c	e8 00 00 00 00	 call	 ?update_gunships_screen_progress_indicator@@YGXXZ ; update_gunships_screen_progress_indicator

; 553  : 	/////////////////////////////////////////////
; 554  : 
; 555  : 	unpack_local_pylon_data (mode);

  000a1	8b 45 10	 mov	 eax, DWORD PTR _mode$[ebp]
  000a4	50		 push	 eax
  000a5	e8 00 00 00 00	 call	 ?unpack_local_pylon_data@@YGXW4PACK_MODES@@@Z ; unpack_local_pylon_data

; 556  : 
; 557  : 	//
; 558  : 	// unpack segment entities
; 559  : 	//
; 560  : 
; 561  : 	/////////////////////////////////////////////
; 562  : 	update_gunships_screen_progress_indicator ();

  000aa	e8 00 00 00 00	 call	 ?update_gunships_screen_progress_indicator@@YGXXZ ; update_gunships_screen_progress_indicator

; 563  : 	/////////////////////////////////////////////
; 564  : 
; 565  : 	unpack_local_segment_data (mode);

  000af	8b 45 10	 mov	 eax, DWORD PTR _mode$[ebp]
  000b2	50		 push	 eax
  000b3	e8 00 00 00 00	 call	 ?unpack_local_segment_data@@YGXW4PACK_MODES@@@Z ; unpack_local_segment_data

; 566  : 
; 567  : 	//
; 568  : 	// unpack bridge entities
; 569  : 	//
; 570  : 
; 571  : 	/////////////////////////////////////////////
; 572  : 	update_gunships_screen_progress_indicator ();

  000b8	e8 00 00 00 00	 call	 ?update_gunships_screen_progress_indicator@@YGXXZ ; update_gunships_screen_progress_indicator

; 573  : 	/////////////////////////////////////////////
; 574  : 
; 575  : 	unpack_local_bridge_data (mode);

  000bd	8b 45 10	 mov	 eax, DWORD PTR _mode$[ebp]
  000c0	50		 push	 eax
  000c1	e8 00 00 00 00	 call	 ?unpack_local_bridge_data@@YGXW4PACK_MODES@@@Z ; unpack_local_bridge_data

; 576  : 
; 577  : 	/////////////////////////////////////////////
; 578  : 	update_gunships_screen_progress_indicator ();

  000c6	e8 00 00 00 00	 call	 ?update_gunships_screen_progress_indicator@@YGXXZ ; update_gunships_screen_progress_indicator

; 579  : 	/////////////////////////////////////////////
; 580  : 
; 581  : 	unpack_local_session_data (mode);

  000cb	8b 45 10	 mov	 eax, DWORD PTR _mode$[ebp]
  000ce	50		 push	 eax
  000cf	e8 00 00 00 00	 call	 ?unpack_local_session_data@@YGXW4PACK_MODES@@@Z ; unpack_local_session_data

; 582  : 
; 583  : 	/////////////////////////////////////////////
; 584  : 	update_gunships_screen_progress_indicator ();

  000d4	e8 00 00 00 00	 call	 ?update_gunships_screen_progress_indicator@@YGXXZ ; update_gunships_screen_progress_indicator

; 585  : 	/////////////////////////////////////////////
; 586  : 
; 587  : 	en = get_local_entity_first_child (get_session_entity (), LIST_TYPE_FORCE);

  000d9	83 3d 00 00 00
	00 00		 cmp	 DWORD PTR ?session_entity@@3PAUENTITY@@A, 0 ; session_entity
  000e0	74 0c		 je	 SHORT $LN12@unpack_ses
  000e2	a1 00 00 00 00	 mov	 eax, DWORD PTR ?session_entity@@3PAUENTITY@@A ; session_entity
  000e7	8b 08		 mov	 ecx, DWORD PTR [eax]
  000e9	89 4d b0	 mov	 DWORD PTR tv95[ebp], ecx
  000ec	eb 21		 jmp	 SHORT $LN13@unpack_ses
$LN12@unpack_ses:
  000ee	8b 15 00 00 00
	00		 mov	 edx, DWORD PTR ?__LINE__Var@?0??unpack_session@@YGHPAEHW4PACK_MODES@@@Z@4JA
  000f4	83 c2 59	 add	 edx, 89			; 00000059H
  000f7	52		 push	 edx
  000f8	68 00 00 00 00	 push	 OFFSET ??_C@_0EO@HOHMAODH@c?3?2users?2nhv90?2projects?2eech?2ap@
  000fd	a1 00 00 00 00	 mov	 eax, DWORD PTR ?null_entity_pointer_message@@3PBDB ; null_entity_pointer_message
  00102	50		 push	 eax
  00103	e8 00 00 00 00	 call	 ?process_assert@@YGXPBD0H@Z ; process_assert
  00108	c7 45 b0 00 00
	00 00		 mov	 DWORD PTR tv95[ebp], 0
$LN13@unpack_ses:
  0010f	b9 01 00 00 00	 mov	 ecx, 1
  00114	85 c9		 test	 ecx, ecx
  00116	74 09		 je	 SHORT $LN14@unpack_ses
  00118	c7 45 ac 0e 00
	00 00		 mov	 DWORD PTR tv135[ebp], 14 ; 0000000eH
  0011f	eb 21		 jmp	 SHORT $LN15@unpack_ses
$LN14@unpack_ses:
  00121	8b 15 00 00 00
	00		 mov	 edx, DWORD PTR ?__LINE__Var@?0??unpack_session@@YGHPAEHW4PACK_MODES@@@Z@4JA
  00127	83 c2 59	 add	 edx, 89			; 00000059H
  0012a	52		 push	 edx
  0012b	68 00 00 00 00	 push	 OFFSET ??_C@_0EO@HOHMAODH@c?3?2users?2nhv90?2projects?2eech?2ap@
  00130	a1 00 00 00 00	 mov	 eax, DWORD PTR ?overload_invalid_list_type_message@@3PBDB ; overload_invalid_list_type_message
  00135	50		 push	 eax
  00136	e8 00 00 00 00	 call	 ?process_assert@@YGXPBD0H@Z ; process_assert
  0013b	c7 45 ac 00 00
	00 00		 mov	 DWORD PTR tv135[ebp], 0
$LN15@unpack_ses:
  00142	6a 0e		 push	 14			; 0000000eH
  00144	8b 0d 00 00 00
	00		 mov	 ecx, DWORD PTR ?session_entity@@3PAUENTITY@@A ; session_entity
  0014a	51		 push	 ecx
  0014b	69 55 b0 b4 00
	00 00		 imul	 edx, DWORD PTR tv95[ebp], 180
  00152	8b 45 ac	 mov	 eax, DWORD PTR tv135[ebp]
  00155	8b 8c 82 00 00
	00 00		 mov	 ecx, DWORD PTR ?fn_get_local_entity_first_child@@3PAY0CN@P6GPAUENTITY@@PAU1@W4LIST_TYPES@@@ZA[edx+eax*4]
  0015c	ff d1		 call	 ecx
  0015e	89 45 fc	 mov	 DWORD PTR _en$[ebp], eax
$LN2@unpack_ses:

; 588  : 
; 589  : 	while (en)

  00161	83 7d fc 00	 cmp	 DWORD PTR _en$[ebp], 0
  00165	0f 84 92 00 00
	00		 je	 $LN3@unpack_ses

; 590  : 	{
; 591  : 		unpack_local_force_data (en, mode);

  0016b	8b 45 10	 mov	 eax, DWORD PTR _mode$[ebp]
  0016e	50		 push	 eax
  0016f	8b 4d fc	 mov	 ecx, DWORD PTR _en$[ebp]
  00172	51		 push	 ecx
  00173	e8 00 00 00 00	 call	 ?unpack_local_force_data@@YGXPAUENTITY@@W4PACK_MODES@@@Z ; unpack_local_force_data

; 592  : 
; 593  : 		en = get_local_entity_child_succ (en, LIST_TYPE_FORCE);

  00178	83 7d fc 00	 cmp	 DWORD PTR _en$[ebp], 0
  0017c	74 0a		 je	 SHORT $LN16@unpack_ses
  0017e	8b 45 fc	 mov	 eax, DWORD PTR _en$[ebp]
  00181	8b 08		 mov	 ecx, DWORD PTR [eax]
  00183	89 4d b0	 mov	 DWORD PTR tv150[ebp], ecx
  00186	eb 21		 jmp	 SHORT $LN17@unpack_ses
$LN16@unpack_ses:
  00188	8b 15 00 00 00
	00		 mov	 edx, DWORD PTR ?__LINE__Var@?0??unpack_session@@YGHPAEHW4PACK_MODES@@@Z@4JA
  0018e	83 c2 5f	 add	 edx, 95			; 0000005fH
  00191	52		 push	 edx
  00192	68 00 00 00 00	 push	 OFFSET ??_C@_0EO@HOHMAODH@c?3?2users?2nhv90?2projects?2eech?2ap@
  00197	a1 00 00 00 00	 mov	 eax, DWORD PTR ?null_entity_pointer_message@@3PBDB ; null_entity_pointer_message
  0019c	50		 push	 eax
  0019d	e8 00 00 00 00	 call	 ?process_assert@@YGXPBD0H@Z ; process_assert
  001a2	c7 45 b0 00 00
	00 00		 mov	 DWORD PTR tv150[ebp], 0
$LN17@unpack_ses:
  001a9	b9 01 00 00 00	 mov	 ecx, 1
  001ae	85 c9		 test	 ecx, ecx
  001b0	74 09		 je	 SHORT $LN18@unpack_ses
  001b2	c7 45 ac 0e 00
	00 00		 mov	 DWORD PTR tv158[ebp], 14 ; 0000000eH
  001b9	eb 21		 jmp	 SHORT $LN19@unpack_ses
$LN18@unpack_ses:
  001bb	8b 15 00 00 00
	00		 mov	 edx, DWORD PTR ?__LINE__Var@?0??unpack_session@@YGHPAEHW4PACK_MODES@@@Z@4JA
  001c1	83 c2 5f	 add	 edx, 95			; 0000005fH
  001c4	52		 push	 edx
  001c5	68 00 00 00 00	 push	 OFFSET ??_C@_0EO@HOHMAODH@c?3?2users?2nhv90?2projects?2eech?2ap@
  001ca	a1 00 00 00 00	 mov	 eax, DWORD PTR ?overload_invalid_list_type_message@@3PBDB ; overload_invalid_list_type_message
  001cf	50		 push	 eax
  001d0	e8 00 00 00 00	 call	 ?process_assert@@YGXPBD0H@Z ; process_assert
  001d5	c7 45 ac 00 00
	00 00		 mov	 DWORD PTR tv158[ebp], 0
$LN19@unpack_ses:
  001dc	6a 0e		 push	 14			; 0000000eH
  001de	8b 4d fc	 mov	 ecx, DWORD PTR _en$[ebp]
  001e1	51		 push	 ecx
  001e2	69 55 b0 b4 00
	00 00		 imul	 edx, DWORD PTR tv150[ebp], 180
  001e9	8b 45 ac	 mov	 eax, DWORD PTR tv158[ebp]
  001ec	8b 8c 82 00 00
	00 00		 mov	 ecx, DWORD PTR ?fn_get_local_entity_child_succ@@3PAY0CN@P6GPAUENTITY@@PAU1@W4LIST_TYPES@@@ZA[edx+eax*4]
  001f3	ff d1		 call	 ecx
  001f5	89 45 fc	 mov	 DWORD PTR _en$[ebp], eax

; 594  : 	}

  001f8	e9 64 ff ff ff	 jmp	 $LN2@unpack_ses
$LN3@unpack_ses:

; 595  : 
; 596  : 	/////////////////////////////////////////////////////////////////
; 597  : 	if (mode == PACK_MODE_CLIENT_SESSION)

  001fd	83 7d 10 01	 cmp	 DWORD PTR _mode$[ebp], 1
  00201	75 05		 jne	 SHORT $LN10@unpack_ses

; 598  : 	{
; 599  : 		reinitialise_client_ai_system ();

  00203	e8 00 00 00 00	 call	 ?reinitialise_client_ai_system@@YGXXZ ; reinitialise_client_ai_system
$LN10@unpack_ses:

; 600  : 	}
; 601  : 	/////////////////////////////////////////////////////////////////
; 602  : 
; 603  : 	//
; 604  : 	// unpack remaining entities
; 605  : 	//
; 606  : 
; 607  : 	type = unpack_entity_type ();

  00208	e8 00 00 00 00	 call	 ?unpack_entity_type@@YG?AW4ENTITY_TYPES@@XZ ; unpack_entity_type
  0020d	89 45 f8	 mov	 DWORD PTR _type$[ebp], eax
$LN4@unpack_ses:

; 608  : 
; 609  : 	while (type != ENTITY_TYPE_UNKNOWN && type < NUM_ENTITY_TYPES)

  00210	83 7d f8 00	 cmp	 DWORD PTR _type$[ebp], 0
  00214	74 24		 je	 SHORT $LN5@unpack_ses
  00216	83 7d f8 26	 cmp	 DWORD PTR _type$[ebp], 38 ; 00000026H
  0021a	7d 1e		 jge	 SHORT $LN5@unpack_ses

; 610  : 	{
; 611  : 
; 612  : 		/////////////////////////////////////////////
; 613  : 		update_gunships_screen_progress_indicator ();

  0021c	e8 00 00 00 00	 call	 ?update_gunships_screen_progress_indicator@@YGXXZ ; update_gunships_screen_progress_indicator

; 614  : 		/////////////////////////////////////////////
; 615  : 
; 616  : 		#if DEBUG_MODULE
; 617  : 
; 618  : 		debug_log ("EN_SESSN: unpacking %s", entity_type_database [type].name);
; 619  : 
; 620  : 		#endif
; 621  : 
; 622  : 		unpack_local_entity_data (NULL, type, mode);

  00221	8b 45 10	 mov	 eax, DWORD PTR _mode$[ebp]
  00224	50		 push	 eax
  00225	8b 4d f8	 mov	 ecx, DWORD PTR _type$[ebp]
  00228	51		 push	 ecx
  00229	6a 00		 push	 0
  0022b	e8 00 00 00 00	 call	 ?unpack_local_entity_data@@YGXPAUENTITY@@W4ENTITY_TYPES@@W4PACK_MODES@@@Z ; unpack_local_entity_data

; 623  : 
; 624  : 		type = unpack_entity_type ();

  00230	e8 00 00 00 00	 call	 ?unpack_entity_type@@YG?AW4ENTITY_TYPES@@XZ ; unpack_entity_type
  00235	89 45 f8	 mov	 DWORD PTR _type$[ebp], eax

; 625  : 	}

  00238	eb d6		 jmp	 SHORT $LN4@unpack_ses
$LN5@unpack_ses:

; 626  : 
; 627  : 	//
; 628  : 	// unpack other entity data
; 629  : 	//
; 630  : 
; 631  : 	/////////////////////////////////////////////
; 632  : 	update_gunships_screen_progress_indicator ();

  0023a	e8 00 00 00 00	 call	 ?update_gunships_screen_progress_indicator@@YGXXZ ; update_gunships_screen_progress_indicator

; 633  : 	/////////////////////////////////////////////
; 634  : 	
; 635  : 	unpack_local_keysite_data (mode);

  0023f	8b 45 10	 mov	 eax, DWORD PTR _mode$[ebp]
  00242	50		 push	 eax
  00243	e8 00 00 00 00	 call	 ?unpack_local_keysite_data@@YGXW4PACK_MODES@@@Z ; unpack_local_keysite_data

; 636  : 
; 637  : 	/////////////////////////////////////////////
; 638  : 	update_gunships_screen_progress_indicator ();

  00248	e8 00 00 00 00	 call	 ?update_gunships_screen_progress_indicator@@YGXXZ ; update_gunships_screen_progress_indicator

; 639  : 	/////////////////////////////////////////////
; 640  : 
; 641  : 	unpack_local_regen_data (mode);

  0024d	8b 45 10	 mov	 eax, DWORD PTR _mode$[ebp]
  00250	50		 push	 eax
  00251	e8 00 00 00 00	 call	 ?unpack_local_regen_data@@YGXW4PACK_MODES@@@Z ; unpack_local_regen_data

; 642  : 
; 643  : 	/////////////////////////////////////////////
; 644  : 	update_gunships_screen_progress_indicator ();

  00256	e8 00 00 00 00	 call	 ?update_gunships_screen_progress_indicator@@YGXXZ ; update_gunships_screen_progress_indicator

; 645  : 	/////////////////////////////////////////////
; 646  : 
; 647  : 	unpack_local_city_building_data (mode);

  0025b	8b 45 10	 mov	 eax, DWORD PTR _mode$[ebp]
  0025e	50		 push	 eax
  0025f	e8 00 00 00 00	 call	 ?unpack_local_city_building_data@@YGXW4PACK_MODES@@@Z ; unpack_local_city_building_data

; 648  : 
; 649  : 	/////////////////////////////////////////////
; 650  : 	update_gunships_screen_progress_indicator ();

  00264	e8 00 00 00 00	 call	 ?update_gunships_screen_progress_indicator@@YGXXZ ; update_gunships_screen_progress_indicator

; 651  : 	/////////////////////////////////////////////
; 652  : 
; 653  : 	unpack_local_scenic_data (mode);

  00269	8b 45 10	 mov	 eax, DWORD PTR _mode$[ebp]
  0026c	50		 push	 eax
  0026d	e8 00 00 00 00	 call	 ?unpack_local_scenic_data@@YGXW4PACK_MODES@@@Z ; unpack_local_scenic_data

; 654  : 
; 655  : 	/////////////////////////////////////////////
; 656  : 	update_gunships_screen_progress_indicator ();

  00272	e8 00 00 00 00	 call	 ?update_gunships_screen_progress_indicator@@YGXXZ ; update_gunships_screen_progress_indicator

; 657  : 	/////////////////////////////////////////////
; 658  : 
; 659  : 	unpack_local_site_data (mode);

  00277	8b 45 10	 mov	 eax, DWORD PTR _mode$[ebp]
  0027a	50		 push	 eax
  0027b	e8 00 00 00 00	 call	 ?unpack_local_site_data@@YGXW4PACK_MODES@@@Z ; unpack_local_site_data

; 660  : 
; 661  : 	/////////////////////////////////////////////
; 662  : 	update_gunships_screen_progress_indicator ();

  00280	e8 00 00 00 00	 call	 ?update_gunships_screen_progress_indicator@@YGXXZ ; update_gunships_screen_progress_indicator

; 663  : 	/////////////////////////////////////////////
; 664  : 
; 665  : 	unpack_local_site_updatable_data (mode);

  00285	8b 45 10	 mov	 eax, DWORD PTR _mode$[ebp]
  00288	50		 push	 eax
  00289	e8 00 00 00 00	 call	 ?unpack_local_site_updatable_data@@YGXW4PACK_MODES@@@Z ; unpack_local_site_updatable_data

; 666  : 
; 667  : 	/////////////////////////////////////////////
; 668  : 	update_gunships_screen_progress_indicator ();

  0028e	e8 00 00 00 00	 call	 ?update_gunships_screen_progress_indicator@@YGXXZ ; update_gunships_screen_progress_indicator

; 669  : 	/////////////////////////////////////////////
; 670  : 
; 671  : 	unpack_local_anti_aircraft_data (mode);

  00293	8b 45 10	 mov	 eax, DWORD PTR _mode$[ebp]
  00296	50		 push	 eax
  00297	e8 00 00 00 00	 call	 ?unpack_local_anti_aircraft_data@@YGXW4PACK_MODES@@@Z ; unpack_local_anti_aircraft_data

; 672  : 
; 673  : 	/////////////////////////////////////////////
; 674  : 	update_gunships_screen_progress_indicator ();

  0029c	e8 00 00 00 00	 call	 ?update_gunships_screen_progress_indicator@@YGXXZ ; update_gunships_screen_progress_indicator

; 675  : 	/////////////////////////////////////////////
; 676  : 
; 677  : 	unpack_local_group_data (mode);

  002a1	8b 45 10	 mov	 eax, DWORD PTR _mode$[ebp]
  002a4	50		 push	 eax
  002a5	e8 00 00 00 00	 call	 ?unpack_local_group_data@@YGXW4PACK_MODES@@@Z ; unpack_local_group_data

; 678  : 
; 679  : 	/////////////////////////////////////////////
; 680  : 	update_gunships_screen_progress_indicator ();

  002aa	e8 00 00 00 00	 call	 ?update_gunships_screen_progress_indicator@@YGXXZ ; update_gunships_screen_progress_indicator

; 681  : 	/////////////////////////////////////////////
; 682  : 
; 683  : 	unpack_local_division_database (mode);

  002af	8b 45 10	 mov	 eax, DWORD PTR _mode$[ebp]
  002b2	50		 push	 eax
  002b3	e8 00 00 00 00	 call	 ?unpack_local_division_database@@YGXW4PACK_MODES@@@Z ; unpack_local_division_database

; 684  : 
; 685  : 	unpack_local_message_log (mode);

  002b8	8b 45 10	 mov	 eax, DWORD PTR _mode$[ebp]
  002bb	50		 push	 eax
  002bc	e8 00 00 00 00	 call	 ?unpack_local_message_log@@YGXW4PACK_MODES@@@Z ; unpack_local_message_log

; 686  : 
; 687  : 	unpack_group_callsign_database (mode);

  002c1	8b 45 10	 mov	 eax, DWORD PTR _mode$[ebp]
  002c4	50		 push	 eax
  002c5	e8 00 00 00 00	 call	 ?unpack_group_callsign_database@@YGXW4PACK_MODES@@@Z ; unpack_group_callsign_database

; 688  : 
; 689  : 	/////////////////////////////////////////////
; 690  : 	update_gunships_screen_progress_indicator ();

  002ca	e8 00 00 00 00	 call	 ?update_gunships_screen_progress_indicator@@YGXXZ ; update_gunships_screen_progress_indicator

; 691  : 	/////////////////////////////////////////////
; 692  : 
; 693  : 	#if LANDING_ROUTE_CHECK
; 694  : 
; 695  : 	unpack_debug_entity_landing_locks (mode);

  002cf	8b 45 10	 mov	 eax, DWORD PTR _mode$[ebp]
  002d2	50		 push	 eax
  002d3	e8 00 00 00 00	 call	 ?unpack_debug_entity_landing_locks@@YGXW4PACK_MODES@@@Z ; unpack_debug_entity_landing_locks

; 696  : 
; 697  : 	#endif
; 698  : 
; 699  : 	unpack_buffer_overflow = get_unpack_buffer_overflow ();

  002d8	a1 00 00 00 00	 mov	 eax, DWORD PTR ?current_unpack_buffer@@3PAUUNPACK_BUFFER@@A ; current_unpack_buffer
  002dd	8b 48 10	 mov	 ecx, DWORD PTR [eax+16]
  002e0	89 4d f4	 mov	 DWORD PTR _unpack_buffer_overflow$[ebp], ecx

; 700  : 
; 701  : 	close_unpack_buffer ();

  002e3	e8 00 00 00 00	 call	 ?close_unpack_buffer@@YGXXZ ; close_unpack_buffer

; 702  : 
; 703  : 	///////////////////////////////////////////////////////////////// 
; 704  : 
; 705  : 	process_entity_list_link_validation ();

  002e8	e8 00 00 00 00	 call	 ?process_entity_list_link_validation@@YGXXZ ; process_entity_list_link_validation

; 706  : 
; 707  : 	process_entity_list_root_validation ();

  002ed	e8 00 00 00 00	 call	 ?process_entity_list_root_validation@@YGXXZ ; process_entity_list_root_validation

; 708  : 
; 709  : 	#if 1
; 710  : 	repair_landing_entity_locks (mode);

  002f2	8b 45 10	 mov	 eax, DWORD PTR _mode$[ebp]
  002f5	50		 push	 eax
  002f6	e8 00 00 00 00	 call	 ?repair_landing_entity_locks@@YGXW4PACK_MODES@@@Z ; repair_landing_entity_locks

; 711  : 	#endif
; 712  : 
; 713  : 	process_entity_smoke_list_creation ();

  002fb	e8 00 00 00 00	 call	 ?process_entity_smoke_list_creation@@YGXXZ ; process_entity_smoke_list_creation

; 714  : 
; 715  : 	process_entity_sound_effect_creation ();

  00300	e8 00 00 00 00	 call	 ?process_entity_sound_effect_creation@@YGXXZ ; process_entity_sound_effect_creation

; 716  : 
; 717  : 	/////////////////////////////////////////////////////////////////
; 718  : 	initialise_entity_list_validation ();

  00305	e8 00 00 00 00	 call	 ?initialise_entity_list_validation@@YGXXZ ; initialise_entity_list_validation

; 719  : 	/////////////////////////////////////////////////////////////////
; 720  : 
; 721  : 	//
; 722  : 	// Any processes which can only be completed when ALL entities have been unpacked
; 723  : 	//
; 724  : 
; 725  : 	validate_local_group_data ();

  0030a	e8 00 00 00 00	 call	 ?validate_local_group_data@@YGXXZ ; validate_local_group_data

; 726  : 
; 727  : 	#if DEBUG_MODULE_PACK_ALL
; 728  : 
; 729  : 	debug_log ("<<<<<<<<<<<<<<<<<<<<<<<<<<<<<<<<<<<<<<<<");
; 730  : 	debug_log ("UNPACK SESSION: unpack_buffer_overflow = %d", unpack_buffer_overflow);
; 731  : 	debug_log ("<<<<<<<<<<<<<<<<<<<<<<<<<<<<<<<<<<<<<<<<");
; 732  : 
; 733  : 	#endif
; 734  : 
; 735  : 	set_comms_data_flow (COMMS_DATA_FLOW_TX);

  0030f	6a 00		 push	 0
  00311	e8 00 00 00 00	 call	 ?set_comms_data_flow@@YGXW4COMMS_DATA_FLOW_TYPES@@@Z ; set_comms_data_flow

; 736  : 
; 737  : 	#if !DEBUG_MODULE_PACK_ALL
; 738  : 
; 739  : 	enable_debug_log_entity_args ();

  00316	e8 00 00 00 00	 call	 ?enable_debug_log_entity_args@@YGXXZ ; enable_debug_log_entity_args

; 740  : 
; 741  : 	#endif
; 742  : 
; 743  : 	return (unpack_buffer_overflow);

  0031b	8b 45 f4	 mov	 eax, DWORD PTR _unpack_buffer_overflow$[ebp]

; 744  : }

  0031e	5f		 pop	 edi
  0031f	5e		 pop	 esi
  00320	5b		 pop	 ebx
  00321	8b e5		 mov	 esp, ebp
  00323	5d		 pop	 ebp
  00324	c2 0c 00	 ret	 12			; 0000000cH
?unpack_session@@YGHPAEHW4PACK_MODES@@@Z ENDP		; unpack_session
_TEXT	ENDS
; Function compile flags: /Odtp /ZI
; File c:\users\nhv90\projects\eech\aphavoc\source\entity\system\en_comms\en_sessn.c
;	COMDAT ?pack_session@@YGHPAEPAHW4PACK_MODES@@@Z
_TEXT	SEGMENT
tv156 = -84						; size = 4
tv133 = -84						; size = 4
tv169 = -80						; size = 4
tv148 = -80						; size = 4
tv93 = -80						; size = 4
_pack_buffer_overflow$ = -12				; size = 4
_packed_data_size$ = -8					; size = 4
_en$ = -4						; size = 4
_buffer$ = 8						; size = 4
_buffer_size$ = 12					; size = 4
_mode$ = 16						; size = 4
?pack_session@@YGHPAEPAHW4PACK_MODES@@@Z PROC		; pack_session, COMDAT

; 198  : {

  00000	55		 push	 ebp
  00001	8b ec		 mov	 ebp, esp
  00003	83 ec 54	 sub	 esp, 84			; 00000054H
  00006	53		 push	 ebx
  00007	56		 push	 esi
  00008	57		 push	 edi

; 199  : 	entity
; 200  : 		*en;
; 201  : 
; 202  : 	int
; 203  : 		packed_data_size,
; 204  : 		pack_buffer_overflow;
; 205  : 
; 206  : 	#if DEBUG_MODULE
; 207  : 
; 208  : 	int
; 209  : 		pack_size,
; 210  : 		last_pack_size;
; 211  : 
; 212  : 	#endif
; 213  : 
; 214  : 	ASSERT (buffer);

  00009	83 7d 08 00	 cmp	 DWORD PTR _buffer$[ebp], 0
  0000d	75 18		 jne	 SHORT $LN6@pack_sessi
  0000f	a1 00 00 00 00	 mov	 eax, DWORD PTR ?__LINE__Var@?0??pack_session@@YGHPAEPAHW4PACK_MODES@@@Z@4JA
  00014	83 c0 10	 add	 eax, 16			; 00000010H
  00017	50		 push	 eax
  00018	68 00 00 00 00	 push	 OFFSET ??_C@_0EO@HOHMAODH@c?3?2users?2nhv90?2projects?2eech?2ap@
  0001d	68 00 00 00 00	 push	 OFFSET ??_C@_06HOHPNJLC@buffer@
  00022	e8 00 00 00 00	 call	 ?process_assert@@YGXPBD0H@Z ; process_assert
$LN6@pack_sessi:

; 215  : 
; 216  : 	ASSERT (*buffer_size > 0);

  00027	8b 45 0c	 mov	 eax, DWORD PTR _buffer_size$[ebp]
  0002a	83 38 00	 cmp	 DWORD PTR [eax], 0
  0002d	7f 18		 jg	 SHORT $LN7@pack_sessi
  0002f	a1 00 00 00 00	 mov	 eax, DWORD PTR ?__LINE__Var@?0??pack_session@@YGHPAEPAHW4PACK_MODES@@@Z@4JA
  00034	83 c0 12	 add	 eax, 18			; 00000012H
  00037	50		 push	 eax
  00038	68 00 00 00 00	 push	 OFFSET ??_C@_0EO@HOHMAODH@c?3?2users?2nhv90?2projects?2eech?2ap@
  0003d	68 00 00 00 00	 push	 OFFSET ??_C@_0BB@FJJEGFI@?$CKbuffer_size?5?$DO?50@
  00042	e8 00 00 00 00	 call	 ?process_assert@@YGXPBD0H@Z ; process_assert
$LN7@pack_sessi:

; 217  : 
; 218  : 	ASSERT ((mode >= 0) && (mode < NUM_PACK_MODES));

  00047	83 7d 10 00	 cmp	 DWORD PTR _mode$[ebp], 0
  0004b	7c 06		 jl	 SHORT $LN9@pack_sessi
  0004d	83 7d 10 04	 cmp	 DWORD PTR _mode$[ebp], 4
  00051	7c 18		 jl	 SHORT $LN8@pack_sessi
$LN9@pack_sessi:
  00053	a1 00 00 00 00	 mov	 eax, DWORD PTR ?__LINE__Var@?0??pack_session@@YGHPAEPAHW4PACK_MODES@@@Z@4JA
  00058	83 c0 14	 add	 eax, 20			; 00000014H
  0005b	50		 push	 eax
  0005c	68 00 00 00 00	 push	 OFFSET ??_C@_0EO@HOHMAODH@c?3?2users?2nhv90?2projects?2eech?2ap@
  00061	68 00 00 00 00	 push	 OFFSET ??_C@_0CH@MMFDPOBJ@?$CImode?5?$DO?$DN?50?$CJ?5?$CG?$CG?5?$CImode?5?$DM?5NUM_PACK@
  00066	e8 00 00 00 00	 call	 ?process_assert@@YGXPBD0H@Z ; process_assert
$LN8@pack_sessi:

; 219  : 
; 220  : 	#if !DEBUG_MODULE_PACK_ALL
; 221  : 
; 222  : 	disable_debug_log_entity_args ();

  0006b	e8 00 00 00 00	 call	 ?disable_debug_log_entity_args@@YGXXZ ; disable_debug_log_entity_args

; 223  : 
; 224  : 	#endif
; 225  : 
; 226  : 	#if DEBUG_MODULE_PACK_ALL
; 227  : 
; 228  : 	debug_log (">>>>>>>>>>>>>>>>>>>>>>>>>>>>>>>>>>>>>>>>");
; 229  : 	debug_log ("PACK SESSION: buffer_size = %d", *buffer_size);
; 230  : 	debug_log (">>>>>>>>>>>>>>>>>>>>>>>>>>>>>>>>>>>>>>>>");
; 231  : 
; 232  : 	#endif
; 233  : 
; 234  : 	open_pack_buffer (buffer, *buffer_size);

  00070	8b 45 0c	 mov	 eax, DWORD PTR _buffer_size$[ebp]
  00073	8b 08		 mov	 ecx, DWORD PTR [eax]
  00075	51		 push	 ecx
  00076	8b 55 08	 mov	 edx, DWORD PTR _buffer$[ebp]
  00079	52		 push	 edx
  0007a	e8 00 00 00 00	 call	 ?open_pack_buffer@@YGXPAEH@Z ; open_pack_buffer

; 235  : 
; 236  : 	//
; 237  : 	// kill any entities that are marked 'kill next update'
; 238  : 	//
; 239  : 
; 240  : 	//kill_entities_awaiting_update ();
; 241  : 
; 242  : 	//
; 243  : 	// Unlink all killed "local_only" entities from lists. Just
; 244  : 	//
; 245  : 
; 246  : 	#if DEBUG_MODULE
; 247  : 
; 248  : 	debug_log ("EN_SESSN: starting to pack current_pack_buffer_bit_size = %d", get_current_pack_buffer_bit_size ());
; 249  : 
; 250  : 	memset (entity_pack_size_array, 0, sizeof (entity_pack_size_type) * NUM_ENTITY_TYPES);
; 251  : 
; 252  : 	#endif
; 253  : 
; 254  : 	//
; 255  : 	// pack sector entities first
; 256  : 	//
; 257  : 
; 258  : 	pack_local_sector_data (mode);

  0007f	8b 45 10	 mov	 eax, DWORD PTR _mode$[ebp]
  00082	50		 push	 eax
  00083	e8 00 00 00 00	 call	 ?pack_local_sector_data@@YGXW4PACK_MODES@@@Z ; pack_local_sector_data

; 259  : 
; 260  : 	#if DEBUG_MODULE
; 261  : 
; 262  : 	debug_log ("EN_SESSN: current_pack_buffer_bit_size = %d, after sector", get_current_pack_buffer_bit_size ());
; 263  : 
; 264  : 	#endif
; 265  : 
; 266  : 	//
; 267  : 	// pack pylon entities
; 268  : 	//
; 269  : 
; 270  : 	pack_local_pylon_data (mode);

  00088	8b 45 10	 mov	 eax, DWORD PTR _mode$[ebp]
  0008b	50		 push	 eax
  0008c	e8 00 00 00 00	 call	 ?pack_local_pylon_data@@YGXW4PACK_MODES@@@Z ; pack_local_pylon_data

; 271  : 
; 272  : 	#if DEBUG_MODULE
; 273  : 
; 274  : 	debug_log ("EN_SESSN: current_pack_buffer_bit_size = %d, after pylon", get_current_pack_buffer_bit_size ());
; 275  : 
; 276  : 	#endif
; 277  : 
; 278  : 	//
; 279  : 	// pack segment entities
; 280  : 	//
; 281  : 
; 282  : 	pack_local_segment_data (mode);

  00091	8b 45 10	 mov	 eax, DWORD PTR _mode$[ebp]
  00094	50		 push	 eax
  00095	e8 00 00 00 00	 call	 ?pack_local_segment_data@@YGXW4PACK_MODES@@@Z ; pack_local_segment_data

; 283  : 
; 284  : 	//
; 285  : 	// pack bridge entities
; 286  : 	//
; 287  : 
; 288  : 	pack_local_bridge_data (mode);

  0009a	8b 45 10	 mov	 eax, DWORD PTR _mode$[ebp]
  0009d	50		 push	 eax
  0009e	e8 00 00 00 00	 call	 ?pack_local_bridge_data@@YGXW4PACK_MODES@@@Z ; pack_local_bridge_data

; 289  : 
; 290  : 	//
; 291  : 	// pack Session and Force entities first
; 292  : 	//
; 293  : 
; 294  : 	pack_local_session_data (mode);

  000a3	8b 45 10	 mov	 eax, DWORD PTR _mode$[ebp]
  000a6	50		 push	 eax
  000a7	e8 00 00 00 00	 call	 ?pack_local_session_data@@YGXW4PACK_MODES@@@Z ; pack_local_session_data

; 295  : 
; 296  : 	#if DEBUG_MODULE
; 297  : 
; 298  : 	debug_log ("EN_SESSN: current_pack_buffer_bit_size = %d, after session", get_current_pack_buffer_bit_size ());
; 299  : 
; 300  : 	#endif
; 301  : 	
; 302  : 	en = get_local_entity_first_child (get_session_entity (), LIST_TYPE_FORCE);

  000ac	83 3d 00 00 00
	00 00		 cmp	 DWORD PTR ?session_entity@@3PAUENTITY@@A, 0 ; session_entity
  000b3	74 0c		 je	 SHORT $LN11@pack_sessi
  000b5	a1 00 00 00 00	 mov	 eax, DWORD PTR ?session_entity@@3PAUENTITY@@A ; session_entity
  000ba	8b 08		 mov	 ecx, DWORD PTR [eax]
  000bc	89 4d b0	 mov	 DWORD PTR tv93[ebp], ecx
  000bf	eb 21		 jmp	 SHORT $LN12@pack_sessi
$LN11@pack_sessi:
  000c1	8b 15 00 00 00
	00		 mov	 edx, DWORD PTR ?__LINE__Var@?0??pack_session@@YGHPAEPAHW4PACK_MODES@@@Z@4JA
  000c7	83 c2 68	 add	 edx, 104		; 00000068H
  000ca	52		 push	 edx
  000cb	68 00 00 00 00	 push	 OFFSET ??_C@_0EO@HOHMAODH@c?3?2users?2nhv90?2projects?2eech?2ap@
  000d0	a1 00 00 00 00	 mov	 eax, DWORD PTR ?null_entity_pointer_message@@3PBDB ; null_entity_pointer_message
  000d5	50		 push	 eax
  000d6	e8 00 00 00 00	 call	 ?process_assert@@YGXPBD0H@Z ; process_assert
  000db	c7 45 b0 00 00
	00 00		 mov	 DWORD PTR tv93[ebp], 0
$LN12@pack_sessi:
  000e2	b9 01 00 00 00	 mov	 ecx, 1
  000e7	85 c9		 test	 ecx, ecx
  000e9	74 09		 je	 SHORT $LN13@pack_sessi
  000eb	c7 45 ac 0e 00
	00 00		 mov	 DWORD PTR tv133[ebp], 14 ; 0000000eH
  000f2	eb 21		 jmp	 SHORT $LN14@pack_sessi
$LN13@pack_sessi:
  000f4	8b 15 00 00 00
	00		 mov	 edx, DWORD PTR ?__LINE__Var@?0??pack_session@@YGHPAEPAHW4PACK_MODES@@@Z@4JA
  000fa	83 c2 68	 add	 edx, 104		; 00000068H
  000fd	52		 push	 edx
  000fe	68 00 00 00 00	 push	 OFFSET ??_C@_0EO@HOHMAODH@c?3?2users?2nhv90?2projects?2eech?2ap@
  00103	a1 00 00 00 00	 mov	 eax, DWORD PTR ?overload_invalid_list_type_message@@3PBDB ; overload_invalid_list_type_message
  00108	50		 push	 eax
  00109	e8 00 00 00 00	 call	 ?process_assert@@YGXPBD0H@Z ; process_assert
  0010e	c7 45 ac 00 00
	00 00		 mov	 DWORD PTR tv133[ebp], 0
$LN14@pack_sessi:
  00115	6a 0e		 push	 14			; 0000000eH
  00117	8b 0d 00 00 00
	00		 mov	 ecx, DWORD PTR ?session_entity@@3PAUENTITY@@A ; session_entity
  0011d	51		 push	 ecx
  0011e	69 55 b0 b4 00
	00 00		 imul	 edx, DWORD PTR tv93[ebp], 180
  00125	8b 45 ac	 mov	 eax, DWORD PTR tv133[ebp]
  00128	8b 8c 82 00 00
	00 00		 mov	 ecx, DWORD PTR ?fn_get_local_entity_first_child@@3PAY0CN@P6GPAUENTITY@@PAU1@W4LIST_TYPES@@@ZA[edx+eax*4]
  0012f	ff d1		 call	 ecx
  00131	89 45 fc	 mov	 DWORD PTR _en$[ebp], eax
$LN2@pack_sessi:

; 303  : 
; 304  : 	while (en)

  00134	83 7d fc 00	 cmp	 DWORD PTR _en$[ebp], 0
  00138	0f 84 92 00 00
	00		 je	 $LN3@pack_sessi

; 305  : 	{
; 306  : 		pack_local_force_data (en, mode);

  0013e	8b 45 10	 mov	 eax, DWORD PTR _mode$[ebp]
  00141	50		 push	 eax
  00142	8b 4d fc	 mov	 ecx, DWORD PTR _en$[ebp]
  00145	51		 push	 ecx
  00146	e8 00 00 00 00	 call	 ?pack_local_force_data@@YGXPAUENTITY@@W4PACK_MODES@@@Z ; pack_local_force_data

; 307  : 
; 308  : 		en = get_local_entity_child_succ (en, LIST_TYPE_FORCE);

  0014b	83 7d fc 00	 cmp	 DWORD PTR _en$[ebp], 0
  0014f	74 0a		 je	 SHORT $LN15@pack_sessi
  00151	8b 45 fc	 mov	 eax, DWORD PTR _en$[ebp]
  00154	8b 08		 mov	 ecx, DWORD PTR [eax]
  00156	89 4d b0	 mov	 DWORD PTR tv148[ebp], ecx
  00159	eb 21		 jmp	 SHORT $LN16@pack_sessi
$LN15@pack_sessi:
  0015b	8b 15 00 00 00
	00		 mov	 edx, DWORD PTR ?__LINE__Var@?0??pack_session@@YGHPAEPAHW4PACK_MODES@@@Z@4JA
  00161	83 c2 6e	 add	 edx, 110		; 0000006eH
  00164	52		 push	 edx
  00165	68 00 00 00 00	 push	 OFFSET ??_C@_0EO@HOHMAODH@c?3?2users?2nhv90?2projects?2eech?2ap@
  0016a	a1 00 00 00 00	 mov	 eax, DWORD PTR ?null_entity_pointer_message@@3PBDB ; null_entity_pointer_message
  0016f	50		 push	 eax
  00170	e8 00 00 00 00	 call	 ?process_assert@@YGXPBD0H@Z ; process_assert
  00175	c7 45 b0 00 00
	00 00		 mov	 DWORD PTR tv148[ebp], 0
$LN16@pack_sessi:
  0017c	b9 01 00 00 00	 mov	 ecx, 1
  00181	85 c9		 test	 ecx, ecx
  00183	74 09		 je	 SHORT $LN17@pack_sessi
  00185	c7 45 ac 0e 00
	00 00		 mov	 DWORD PTR tv156[ebp], 14 ; 0000000eH
  0018c	eb 21		 jmp	 SHORT $LN18@pack_sessi
$LN17@pack_sessi:
  0018e	8b 15 00 00 00
	00		 mov	 edx, DWORD PTR ?__LINE__Var@?0??pack_session@@YGHPAEPAHW4PACK_MODES@@@Z@4JA
  00194	83 c2 6e	 add	 edx, 110		; 0000006eH
  00197	52		 push	 edx
  00198	68 00 00 00 00	 push	 OFFSET ??_C@_0EO@HOHMAODH@c?3?2users?2nhv90?2projects?2eech?2ap@
  0019d	a1 00 00 00 00	 mov	 eax, DWORD PTR ?overload_invalid_list_type_message@@3PBDB ; overload_invalid_list_type_message
  001a2	50		 push	 eax
  001a3	e8 00 00 00 00	 call	 ?process_assert@@YGXPBD0H@Z ; process_assert
  001a8	c7 45 ac 00 00
	00 00		 mov	 DWORD PTR tv156[ebp], 0
$LN18@pack_sessi:
  001af	6a 0e		 push	 14			; 0000000eH
  001b1	8b 4d fc	 mov	 ecx, DWORD PTR _en$[ebp]
  001b4	51		 push	 ecx
  001b5	69 55 b0 b4 00
	00 00		 imul	 edx, DWORD PTR tv148[ebp], 180
  001bc	8b 45 ac	 mov	 eax, DWORD PTR tv156[ebp]
  001bf	8b 8c 82 00 00
	00 00		 mov	 ecx, DWORD PTR ?fn_get_local_entity_child_succ@@3PAY0CN@P6GPAUENTITY@@PAU1@W4LIST_TYPES@@@ZA[edx+eax*4]
  001c6	ff d1		 call	 ecx
  001c8	89 45 fc	 mov	 DWORD PTR _en$[ebp], eax

; 309  : 	}

  001cb	e9 64 ff ff ff	 jmp	 $LN2@pack_sessi
$LN3@pack_sessi:

; 310  : 
; 311  : 	#if DEBUG_MODULE
; 312  : 
; 313  : 	debug_log ("EN_SESSN: current_pack_buffer_bit_size = %d, after force", get_current_pack_buffer_bit_size ());
; 314  : 
; 315  : 	#endif
; 316  : 	
; 317  : 	//
; 318  : 	// pack remaining entities
; 319  : 	//
; 320  : 
; 321  : 	en = get_local_entity_list ();

  001d0	a1 00 00 00 00	 mov	 eax, DWORD PTR ?first_used_entity@@3PAUENTITY@@A ; first_used_entity
  001d5	89 45 fc	 mov	 DWORD PTR _en$[ebp], eax
$LN4@pack_sessi:

; 322  : 
; 323  : 	#if DEBUG_MODULE
; 324  : 
; 325  : 	debug_log ("EN_SESSN: current_pack_buffer_bit_size = %d, after segment", get_current_pack_buffer_bit_size ());
; 326  : 
; 327  : 	last_pack_size = get_current_pack_buffer_bit_size ();
; 328  : 
; 329  : 	#endif
; 330  : 
; 331  : 	while (en)

  001d8	83 7d fc 00	 cmp	 DWORD PTR _en$[ebp], 0
  001dc	74 53		 je	 SHORT $LN5@pack_sessi

; 332  : 	{
; 333  : 		pack_local_entity_data (en, mode);

  001de	83 7d fc 00	 cmp	 DWORD PTR _en$[ebp], 0
  001e2	74 0a		 je	 SHORT $LN19@pack_sessi
  001e4	8b 45 fc	 mov	 eax, DWORD PTR _en$[ebp]
  001e7	8b 08		 mov	 ecx, DWORD PTR [eax]
  001e9	89 4d b0	 mov	 DWORD PTR tv169[ebp], ecx
  001ec	eb 24		 jmp	 SHORT $LN20@pack_sessi
$LN19@pack_sessi:
  001ee	8b 15 00 00 00
	00		 mov	 edx, DWORD PTR ?__LINE__Var@?0??pack_session@@YGHPAEPAHW4PACK_MODES@@@Z@4JA
  001f4	81 c2 87 00 00
	00		 add	 edx, 135		; 00000087H
  001fa	52		 push	 edx
  001fb	68 00 00 00 00	 push	 OFFSET ??_C@_0EO@HOHMAODH@c?3?2users?2nhv90?2projects?2eech?2ap@
  00200	a1 00 00 00 00	 mov	 eax, DWORD PTR ?null_entity_pointer_message@@3PBDB ; null_entity_pointer_message
  00205	50		 push	 eax
  00206	e8 00 00 00 00	 call	 ?process_assert@@YGXPBD0H@Z ; process_assert
  0020b	c7 45 b0 00 00
	00 00		 mov	 DWORD PTR tv169[ebp], 0
$LN20@pack_sessi:
  00212	8b 4d 10	 mov	 ecx, DWORD PTR _mode$[ebp]
  00215	51		 push	 ecx
  00216	8b 55 fc	 mov	 edx, DWORD PTR _en$[ebp]
  00219	52		 push	 edx
  0021a	8b 45 b0	 mov	 eax, DWORD PTR tv169[ebp]
  0021d	8b 0c 85 00 00
	00 00		 mov	 ecx, DWORD PTR ?fn_pack_local_entity_data@@3PAP6GXPAUENTITY@@W4PACK_MODES@@@ZA[eax*4]
  00224	ff d1		 call	 ecx

; 334  : 
; 335  : 		#if DEBUG_MODULE
; 336  : 
; 337  : 		debug_log ("EN_SESSN: packing entity %s index %d, pack_buffer_size %d", get_local_entity_type_name (en), get_local_entity_index (en), get_current_pack_buffer_bit_size () / 8);
; 338  : 
; 339  : 		pack_size = get_current_pack_buffer_bit_size () - last_pack_size;
; 340  : 
; 341  : 		last_pack_size = get_current_pack_buffer_bit_size ();
; 342  : 
; 343  : 		entity_pack_size_array [en->type].count ++;
; 344  : 
; 345  : 		entity_pack_size_array [en->type].size += pack_size;
; 346  : 
; 347  : 		#endif
; 348  : 
; 349  : 		en = get_local_entity_succ (en);

  00226	8b 45 fc	 mov	 eax, DWORD PTR _en$[ebp]
  00229	8b 48 08	 mov	 ecx, DWORD PTR [eax+8]
  0022c	89 4d fc	 mov	 DWORD PTR _en$[ebp], ecx

; 350  : 	}

  0022f	eb a7		 jmp	 SHORT $LN4@pack_sessi
$LN5@pack_sessi:

; 351  : 
; 352  : 	//
; 353  : 	// mark end of session data
; 354  : 	//
; 355  : 
; 356  : 	pack_entity_type (ENTITY_TYPE_UNKNOWN);

  00231	6a 00		 push	 0
  00233	e8 00 00 00 00	 call	 ?pack_entity_type@@YGXW4ENTITY_TYPES@@@Z ; pack_entity_type

; 357  : 
; 358  : 	#if DEBUG_MODULE
; 359  : 
; 360  : 	debug_log ("EN_SESSN: current_pack_buffer_bit_size = %d, after session_data", get_current_pack_buffer_bit_size ());
; 361  : 
; 362  : 	#endif
; 363  : 
; 364  : 	//
; 365  : 	// pack other entity data
; 366  : 	//
; 367  : 
; 368  : 	pack_local_keysite_data (mode);

  00238	8b 45 10	 mov	 eax, DWORD PTR _mode$[ebp]
  0023b	50		 push	 eax
  0023c	e8 00 00 00 00	 call	 ?pack_local_keysite_data@@YGXW4PACK_MODES@@@Z ; pack_local_keysite_data

; 369  : 
; 370  : 	#if DEBUG_MODULE
; 371  : 
; 372  : 	debug_log ("EN_SESSN: current_pack_buffer_bit_size = %d, after keysite", get_current_pack_buffer_bit_size ());
; 373  : 
; 374  : 	#endif
; 375  : 
; 376  : 	pack_local_regen_data (mode);

  00241	8b 45 10	 mov	 eax, DWORD PTR _mode$[ebp]
  00244	50		 push	 eax
  00245	e8 00 00 00 00	 call	 ?pack_local_regen_data@@YGXW4PACK_MODES@@@Z ; pack_local_regen_data

; 377  : 
; 378  : 	#if DEBUG_MODULE
; 379  : 
; 380  : 	debug_log ("EN_SESSN: current_pack_buffer_bit_size = %d, after regen", get_current_pack_buffer_bit_size ());
; 381  : 
; 382  : 	#endif
; 383  : 
; 384  : 	pack_local_city_building_data (mode);

  0024a	8b 45 10	 mov	 eax, DWORD PTR _mode$[ebp]
  0024d	50		 push	 eax
  0024e	e8 00 00 00 00	 call	 ?pack_local_city_building_data@@YGXW4PACK_MODES@@@Z ; pack_local_city_building_data

; 385  : 
; 386  : 	#if DEBUG_MODULE
; 387  : 
; 388  : 	debug_log ("EN_SESSN: current_pack_buffer_bit_size = %d, after city_building", get_current_pack_buffer_bit_size ());
; 389  : 
; 390  : 	#endif
; 391  : 
; 392  : 	pack_local_scenic_data (mode);

  00253	8b 45 10	 mov	 eax, DWORD PTR _mode$[ebp]
  00256	50		 push	 eax
  00257	e8 00 00 00 00	 call	 ?pack_local_scenic_data@@YGXW4PACK_MODES@@@Z ; pack_local_scenic_data

; 393  : 
; 394  : 	#if DEBUG_MODULE
; 395  : 
; 396  : 	debug_log ("EN_SESSN: current_pack_buffer_bit_size = %d, after scenic", get_current_pack_buffer_bit_size ());
; 397  : 
; 398  : 	#endif
; 399  : 
; 400  : 	pack_local_site_data (mode);

  0025c	8b 45 10	 mov	 eax, DWORD PTR _mode$[ebp]
  0025f	50		 push	 eax
  00260	e8 00 00 00 00	 call	 ?pack_local_site_data@@YGXW4PACK_MODES@@@Z ; pack_local_site_data

; 401  : 
; 402  : 	#if DEBUG_MODULE
; 403  : 
; 404  : 	debug_log ("EN_SESSN: current_pack_buffer_bit_size = %d, after site", get_current_pack_buffer_bit_size ());
; 405  : 
; 406  : 	#endif
; 407  : 
; 408  : 	pack_local_site_updatable_data (mode);

  00265	8b 45 10	 mov	 eax, DWORD PTR _mode$[ebp]
  00268	50		 push	 eax
  00269	e8 00 00 00 00	 call	 ?pack_local_site_updatable_data@@YGXW4PACK_MODES@@@Z ; pack_local_site_updatable_data

; 409  : 
; 410  : 	#if DEBUG_MODULE
; 411  : 
; 412  : 	debug_log ("EN_SESSN: current_pack_buffer_bit_size = %d, after site_updatable", get_current_pack_buffer_bit_size ());
; 413  : 
; 414  : 	#endif
; 415  : 
; 416  : 	pack_local_anti_aircraft_data (mode);

  0026e	8b 45 10	 mov	 eax, DWORD PTR _mode$[ebp]
  00271	50		 push	 eax
  00272	e8 00 00 00 00	 call	 ?pack_local_anti_aircraft_data@@YGXW4PACK_MODES@@@Z ; pack_local_anti_aircraft_data

; 417  : 
; 418  : 	#if DEBUG_MODULE
; 419  : 
; 420  : 	debug_log ("EN_SESSN: current_pack_buffer_bit_size = %d, after anti_aircraft", get_current_pack_buffer_bit_size ());
; 421  : 
; 422  : 	#endif
; 423  : 
; 424  : 	pack_local_group_data (mode);

  00277	8b 45 10	 mov	 eax, DWORD PTR _mode$[ebp]
  0027a	50		 push	 eax
  0027b	e8 00 00 00 00	 call	 ?pack_local_group_data@@YGXW4PACK_MODES@@@Z ; pack_local_group_data

; 425  : 
; 426  : 	#if DEBUG_MODULE
; 427  : 
; 428  : 	debug_log ("EN_SESSN: current_pack_buffer_bit_size = %d, after local groups", get_current_pack_buffer_bit_size ());
; 429  : 
; 430  : 	#endif
; 431  : 
; 432  : 	pack_local_division_database (mode);

  00280	8b 45 10	 mov	 eax, DWORD PTR _mode$[ebp]
  00283	50		 push	 eax
  00284	e8 00 00 00 00	 call	 ?pack_local_division_database@@YGXW4PACK_MODES@@@Z ; pack_local_division_database

; 433  : 
; 434  : 	pack_local_message_log (mode);

  00289	8b 45 10	 mov	 eax, DWORD PTR _mode$[ebp]
  0028c	50		 push	 eax
  0028d	e8 00 00 00 00	 call	 ?pack_local_message_log@@YGXW4PACK_MODES@@@Z ; pack_local_message_log

; 435  : 
; 436  : 	pack_group_callsign_database (mode);

  00292	8b 45 10	 mov	 eax, DWORD PTR _mode$[ebp]
  00295	50		 push	 eax
  00296	e8 00 00 00 00	 call	 ?pack_group_callsign_database@@YGXW4PACK_MODES@@@Z ; pack_group_callsign_database

; 437  : 
; 438  : 	#if LANDING_ROUTE_CHECK
; 439  : 
; 440  : 	pack_debug_entity_landing_locks (mode);

  0029b	8b 45 10	 mov	 eax, DWORD PTR _mode$[ebp]
  0029e	50		 push	 eax
  0029f	e8 00 00 00 00	 call	 ?pack_debug_entity_landing_locks@@YGXW4PACK_MODES@@@Z ; pack_debug_entity_landing_locks

; 441  : 
; 442  : 	#endif
; 443  : 
; 444  : 	pack_buffer_overflow = get_pack_buffer_overflow ();

  002a4	a1 00 00 00 00	 mov	 eax, DWORD PTR ?current_pack_buffer@@3PAUPACK_BUFFER@@A ; current_pack_buffer
  002a9	8b 48 10	 mov	 ecx, DWORD PTR [eax+16]
  002ac	89 4d f4	 mov	 DWORD PTR _pack_buffer_overflow$[ebp], ecx

; 445  : 
; 446  : 	packed_data_size = close_pack_buffer ();

  002af	e8 00 00 00 00	 call	 ?close_pack_buffer@@YGHXZ ; close_pack_buffer
  002b4	89 45 f8	 mov	 DWORD PTR _packed_data_size$[ebp], eax

; 447  : 
; 448  : 	#if DEBUG_MODULE_PACK_ALL
; 449  : 
; 450  : 	debug_log (">>>>>>>>>>>>>>>>>>>>>>>>>>>>>>>>>>>>>>>>");
; 451  : 	debug_log ("PACK SESSION: packed_data_size = %d", packed_data_size);
; 452  : 	debug_log ("PACK SESSION: pack_buffer_overflow = %d", pack_buffer_overflow);
; 453  : 	debug_log (">>>>>>>>>>>>>>>>>>>>>>>>>>>>>>>>>>>>>>>>");
; 454  : 
; 455  : 	#endif
; 456  : 
; 457  : 	*buffer_size = packed_data_size;

  002b7	8b 45 0c	 mov	 eax, DWORD PTR _buffer_size$[ebp]
  002ba	8b 4d f8	 mov	 ecx, DWORD PTR _packed_data_size$[ebp]
  002bd	89 08		 mov	 DWORD PTR [eax], ecx

; 458  : 
; 459  : 	#if !DEBUG_MODULE_PACK_ALL
; 460  : 
; 461  : 	enable_debug_log_entity_args ();

  002bf	e8 00 00 00 00	 call	 ?enable_debug_log_entity_args@@YGXXZ ; enable_debug_log_entity_args

; 462  : 
; 463  : 	#endif
; 464  : 
; 465  : 	#if DEBUG_MODULE
; 466  : 	{
; 467  : 
; 468  : 	int
; 469  : 		loop;
; 470  : 
; 471  : 		for (loop = 0; loop < NUM_ENTITY_TYPES; loop ++)
; 472  : 		{
; 473  : 
; 474  : 			if (entity_pack_size_array [loop].size)
; 475  : 			{
; 476  : 		
; 477  : 				debug_log ("EN_SESSN: %d bytes (%f each) for %d entity %s",
; 478  : 								entity_pack_size_array [loop].size / 8,
; 479  : 								(float) (entity_pack_size_array [loop].size / 8) / entity_pack_size_array [loop].count,
; 480  : 								entity_pack_size_array [loop].count, entity_type_names [loop]);
; 481  : 			}
; 482  : 		}
; 483  : 	}
; 484  : 	#endif
; 485  : 
; 486  : 	//
; 487  : 	//
; 488  : 	//
; 489  : 
; 490  : 	return (pack_buffer_overflow);

  002c4	8b 45 f4	 mov	 eax, DWORD PTR _pack_buffer_overflow$[ebp]

; 491  : }

  002c7	5f		 pop	 edi
  002c8	5e		 pop	 esi
  002c9	5b		 pop	 ebx
  002ca	8b e5		 mov	 esp, ebp
  002cc	5d		 pop	 ebp
  002cd	c2 0c 00	 ret	 12			; 0000000cH
?pack_session@@YGHPAEPAHW4PACK_MODES@@@Z ENDP		; pack_session
_TEXT	ENDS
END
