; Listing generated by Microsoft (R) Optimizing Compiler Version 19.16.27045.0 

	TITLE	C:\Users\nhv90\Projects\eech\aphavoc\source\entity\system\en_types\en_types.c
	.686P
	.XMM
	include listing.inc
	.model	flat

INCLUDELIB MSVCRTD
INCLUDELIB OLDNAMES

PUBLIC	?null_entity_pointer_message@@3PBDB		; null_entity_pointer_message
PUBLIC	?entity_type_names@@3PAPBDA			; entity_type_names
PUBLIC	?entity_type_database@@3PAUENTITY_TYPE_DATA@@A	; entity_type_database
PUBLIC	??_C@_0DM@FLKGFIPE@Overloaded?5entity?5function?5invo@ ; `string'
PUBLIC	??_C@_0BE@ILLAKDIO@ENTITY_TYPE_UNKNOWN@		; `string'
PUBLIC	??_C@_0BK@MPAKAHOL@ENTITY_TYPE_ANTI_AIRCRAFT@	; `string'
PUBLIC	??_C@_0BD@CKIIPKAC@ENTITY_TYPE_BRIDGE@		; `string'
PUBLIC	??_C@_0BD@DKAAOELJ@ENTITY_TYPE_CAMERA@		; `string'
PUBLIC	??_C@_0BC@EAPMPJNM@ENTITY_TYPE_CARGO@		; `string'
PUBLIC	??_C@_0BB@NAOJINGJ@ENTITY_TYPE_CITY@		; `string'
PUBLIC	??_C@_0BK@DOBPDJHC@ENTITY_TYPE_CITY_BUILDING@	; `string'
PUBLIC	??_C@_0BD@OKJBLNBA@ENTITY_TYPE_CRATER@		; `string'
PUBLIC	??_C@_0BF@NKBHNOIK@ENTITY_TYPE_DIVISION@	; `string'
PUBLIC	??_C@_0BG@NJIOHMGP@ENTITY_TYPE_EXPLOSION@	; `string'
PUBLIC	??_C@_0BH@BIILPMCN@ENTITY_TYPE_FIXED_WING@	; `string'
PUBLIC	??_C@_0BC@FCOHJGFI@ENTITY_TYPE_FORCE@		; `string'
PUBLIC	??_C@_0BC@IMKGKAFK@ENTITY_TYPE_GROUP@		; `string'
PUBLIC	??_C@_0BC@DBLMAMMF@ENTITY_TYPE_GUIDE@		; `string'
PUBLIC	??_C@_0BH@BLIAFHCF@ENTITY_TYPE_HELICOPTER@	; `string'
PUBLIC	??_C@_0BE@PCDBBMIA@ENTITY_TYPE_KEYSITE@		; `string'
PUBLIC	??_C@_0BE@ODCPAMBP@ENTITY_TYPE_LANDING@		; `string'
PUBLIC	??_C@_0BD@ODEFAPCA@ENTITY_TYPE_OBJECT@		; `string'
PUBLIC	??_C@_0BF@BHIGOLMB@ENTITY_TYPE_PARTICLE@	; `string'
PUBLIC	??_C@_0BD@PDADAEAA@ENTITY_TYPE_PERSON@		; `string'
PUBLIC	??_C@_0BC@OCCNHIKG@ENTITY_TYPE_PILOT@		; `string'
PUBLIC	??_C@_0BC@DCOABFPP@ENTITY_TYPE_PYLON@		; `string'
PUBLIC	??_C@_0BC@KOMMKA@ENTITY_TYPE_REGEN@		; `string'
PUBLIC	??_C@_0BL@BIMOJEJG@ENTITY_TYPE_ROUTED_VEHICLE@	; `string'
PUBLIC	??_C@_0BD@NFCCDLKP@ENTITY_TYPE_SCENIC@		; `string'
PUBLIC	??_C@_0BD@OEMLMFEL@ENTITY_TYPE_SECTOR@		; `string'
PUBLIC	??_C@_0BE@LDNNMGBI@ENTITY_TYPE_SEGMENT@		; `string'
PUBLIC	??_C@_0BE@PHDIACC@ENTITY_TYPE_SESSION@		; `string'
PUBLIC	??_C@_0BJ@MLFIOJDE@ENTITY_TYPE_SHIP_VEHICLE@	; `string'
PUBLIC	??_C@_0BB@FGHOEHLG@ENTITY_TYPE_SITE@		; `string'
PUBLIC	??_C@_0BL@HOFJDJJH@ENTITY_TYPE_SITE_UPDATABLE@	; `string'
PUBLIC	??_C@_0BH@NHLMNFMC@ENTITY_TYPE_SMOKE_LIST@	; `string'
PUBLIC	??_C@_0BJ@NGCFONDL@ENTITY_TYPE_SOUND_EFFECT@	; `string'
PUBLIC	??_C@_0BD@FNNDKPBE@ENTITY_TYPE_SPRITE@		; `string'
PUBLIC	??_C@_0BB@LKCGIIEC@ENTITY_TYPE_TASK@		; `string'
PUBLIC	??_C@_0BD@BEBHNAOD@ENTITY_TYPE_UPDATE@		; `string'
PUBLIC	??_C@_0BF@FKNBHCFO@ENTITY_TYPE_WAYPOINT@	; `string'
PUBLIC	??_C@_0BD@DFBHIDC@ENTITY_TYPE_WEAPON@		; `string'
_BSS	SEGMENT
?entity_type_names@@3PAPBDA DD 01H DUP (?)		; entity_type_names
_BSS	ENDS
;	COMDAT ??_C@_0BD@DFBHIDC@ENTITY_TYPE_WEAPON@
CONST	SEGMENT
??_C@_0BD@DFBHIDC@ENTITY_TYPE_WEAPON@ DB 'ENTITY_TYPE_WEAPON', 00H ; `string'
CONST	ENDS
;	COMDAT ??_C@_0BF@FKNBHCFO@ENTITY_TYPE_WAYPOINT@
CONST	SEGMENT
??_C@_0BF@FKNBHCFO@ENTITY_TYPE_WAYPOINT@ DB 'ENTITY_TYPE_WAYPOINT', 00H ; `string'
CONST	ENDS
;	COMDAT ??_C@_0BD@BEBHNAOD@ENTITY_TYPE_UPDATE@
CONST	SEGMENT
??_C@_0BD@BEBHNAOD@ENTITY_TYPE_UPDATE@ DB 'ENTITY_TYPE_UPDATE', 00H ; `string'
CONST	ENDS
;	COMDAT ??_C@_0BB@LKCGIIEC@ENTITY_TYPE_TASK@
CONST	SEGMENT
??_C@_0BB@LKCGIIEC@ENTITY_TYPE_TASK@ DB 'ENTITY_TYPE_TASK', 00H ; `string'
CONST	ENDS
;	COMDAT ??_C@_0BD@FNNDKPBE@ENTITY_TYPE_SPRITE@
CONST	SEGMENT
??_C@_0BD@FNNDKPBE@ENTITY_TYPE_SPRITE@ DB 'ENTITY_TYPE_SPRITE', 00H ; `string'
CONST	ENDS
;	COMDAT ??_C@_0BJ@NGCFONDL@ENTITY_TYPE_SOUND_EFFECT@
CONST	SEGMENT
??_C@_0BJ@NGCFONDL@ENTITY_TYPE_SOUND_EFFECT@ DB 'ENTITY_TYPE_SOUND_EFFECT'
	DB	00H						; `string'
CONST	ENDS
;	COMDAT ??_C@_0BH@NHLMNFMC@ENTITY_TYPE_SMOKE_LIST@
CONST	SEGMENT
??_C@_0BH@NHLMNFMC@ENTITY_TYPE_SMOKE_LIST@ DB 'ENTITY_TYPE_SMOKE_LIST', 00H ; `string'
CONST	ENDS
;	COMDAT ??_C@_0BL@HOFJDJJH@ENTITY_TYPE_SITE_UPDATABLE@
CONST	SEGMENT
??_C@_0BL@HOFJDJJH@ENTITY_TYPE_SITE_UPDATABLE@ DB 'ENTITY_TYPE_SITE_UPDAT'
	DB	'ABLE', 00H					; `string'
CONST	ENDS
;	COMDAT ??_C@_0BB@FGHOEHLG@ENTITY_TYPE_SITE@
CONST	SEGMENT
??_C@_0BB@FGHOEHLG@ENTITY_TYPE_SITE@ DB 'ENTITY_TYPE_SITE', 00H ; `string'
CONST	ENDS
;	COMDAT ??_C@_0BJ@MLFIOJDE@ENTITY_TYPE_SHIP_VEHICLE@
CONST	SEGMENT
??_C@_0BJ@MLFIOJDE@ENTITY_TYPE_SHIP_VEHICLE@ DB 'ENTITY_TYPE_SHIP_VEHICLE'
	DB	00H						; `string'
CONST	ENDS
;	COMDAT ??_C@_0BE@PHDIACC@ENTITY_TYPE_SESSION@
CONST	SEGMENT
??_C@_0BE@PHDIACC@ENTITY_TYPE_SESSION@ DB 'ENTITY_TYPE_SESSION', 00H ; `string'
CONST	ENDS
;	COMDAT ??_C@_0BE@LDNNMGBI@ENTITY_TYPE_SEGMENT@
CONST	SEGMENT
??_C@_0BE@LDNNMGBI@ENTITY_TYPE_SEGMENT@ DB 'ENTITY_TYPE_SEGMENT', 00H ; `string'
CONST	ENDS
;	COMDAT ??_C@_0BD@OEMLMFEL@ENTITY_TYPE_SECTOR@
CONST	SEGMENT
??_C@_0BD@OEMLMFEL@ENTITY_TYPE_SECTOR@ DB 'ENTITY_TYPE_SECTOR', 00H ; `string'
CONST	ENDS
;	COMDAT ??_C@_0BD@NFCCDLKP@ENTITY_TYPE_SCENIC@
CONST	SEGMENT
??_C@_0BD@NFCCDLKP@ENTITY_TYPE_SCENIC@ DB 'ENTITY_TYPE_SCENIC', 00H ; `string'
CONST	ENDS
;	COMDAT ??_C@_0BL@BIMOJEJG@ENTITY_TYPE_ROUTED_VEHICLE@
CONST	SEGMENT
??_C@_0BL@BIMOJEJG@ENTITY_TYPE_ROUTED_VEHICLE@ DB 'ENTITY_TYPE_ROUTED_VEH'
	DB	'ICLE', 00H					; `string'
CONST	ENDS
;	COMDAT ??_C@_0BC@KOMMKA@ENTITY_TYPE_REGEN@
CONST	SEGMENT
??_C@_0BC@KOMMKA@ENTITY_TYPE_REGEN@ DB 'ENTITY_TYPE_REGEN', 00H ; `string'
CONST	ENDS
;	COMDAT ??_C@_0BC@DCOABFPP@ENTITY_TYPE_PYLON@
CONST	SEGMENT
??_C@_0BC@DCOABFPP@ENTITY_TYPE_PYLON@ DB 'ENTITY_TYPE_PYLON', 00H ; `string'
CONST	ENDS
;	COMDAT ??_C@_0BC@OCCNHIKG@ENTITY_TYPE_PILOT@
CONST	SEGMENT
??_C@_0BC@OCCNHIKG@ENTITY_TYPE_PILOT@ DB 'ENTITY_TYPE_PILOT', 00H ; `string'
CONST	ENDS
;	COMDAT ??_C@_0BD@PDADAEAA@ENTITY_TYPE_PERSON@
CONST	SEGMENT
??_C@_0BD@PDADAEAA@ENTITY_TYPE_PERSON@ DB 'ENTITY_TYPE_PERSON', 00H ; `string'
CONST	ENDS
;	COMDAT ??_C@_0BF@BHIGOLMB@ENTITY_TYPE_PARTICLE@
CONST	SEGMENT
??_C@_0BF@BHIGOLMB@ENTITY_TYPE_PARTICLE@ DB 'ENTITY_TYPE_PARTICLE', 00H ; `string'
CONST	ENDS
;	COMDAT ??_C@_0BD@ODEFAPCA@ENTITY_TYPE_OBJECT@
CONST	SEGMENT
??_C@_0BD@ODEFAPCA@ENTITY_TYPE_OBJECT@ DB 'ENTITY_TYPE_OBJECT', 00H ; `string'
CONST	ENDS
;	COMDAT ??_C@_0BE@ODCPAMBP@ENTITY_TYPE_LANDING@
CONST	SEGMENT
??_C@_0BE@ODCPAMBP@ENTITY_TYPE_LANDING@ DB 'ENTITY_TYPE_LANDING', 00H ; `string'
CONST	ENDS
;	COMDAT ??_C@_0BE@PCDBBMIA@ENTITY_TYPE_KEYSITE@
CONST	SEGMENT
??_C@_0BE@PCDBBMIA@ENTITY_TYPE_KEYSITE@ DB 'ENTITY_TYPE_KEYSITE', 00H ; `string'
CONST	ENDS
;	COMDAT ??_C@_0BH@BLIAFHCF@ENTITY_TYPE_HELICOPTER@
CONST	SEGMENT
??_C@_0BH@BLIAFHCF@ENTITY_TYPE_HELICOPTER@ DB 'ENTITY_TYPE_HELICOPTER', 00H ; `string'
CONST	ENDS
;	COMDAT ??_C@_0BC@DBLMAMMF@ENTITY_TYPE_GUIDE@
CONST	SEGMENT
??_C@_0BC@DBLMAMMF@ENTITY_TYPE_GUIDE@ DB 'ENTITY_TYPE_GUIDE', 00H ; `string'
CONST	ENDS
;	COMDAT ??_C@_0BC@IMKGKAFK@ENTITY_TYPE_GROUP@
CONST	SEGMENT
??_C@_0BC@IMKGKAFK@ENTITY_TYPE_GROUP@ DB 'ENTITY_TYPE_GROUP', 00H ; `string'
CONST	ENDS
;	COMDAT ??_C@_0BC@FCOHJGFI@ENTITY_TYPE_FORCE@
CONST	SEGMENT
??_C@_0BC@FCOHJGFI@ENTITY_TYPE_FORCE@ DB 'ENTITY_TYPE_FORCE', 00H ; `string'
CONST	ENDS
;	COMDAT ??_C@_0BH@BIILPMCN@ENTITY_TYPE_FIXED_WING@
CONST	SEGMENT
??_C@_0BH@BIILPMCN@ENTITY_TYPE_FIXED_WING@ DB 'ENTITY_TYPE_FIXED_WING', 00H ; `string'
CONST	ENDS
;	COMDAT ??_C@_0BG@NJIOHMGP@ENTITY_TYPE_EXPLOSION@
CONST	SEGMENT
??_C@_0BG@NJIOHMGP@ENTITY_TYPE_EXPLOSION@ DB 'ENTITY_TYPE_EXPLOSION', 00H ; `string'
CONST	ENDS
;	COMDAT ??_C@_0BF@NKBHNOIK@ENTITY_TYPE_DIVISION@
CONST	SEGMENT
??_C@_0BF@NKBHNOIK@ENTITY_TYPE_DIVISION@ DB 'ENTITY_TYPE_DIVISION', 00H ; `string'
CONST	ENDS
;	COMDAT ??_C@_0BD@OKJBLNBA@ENTITY_TYPE_CRATER@
CONST	SEGMENT
??_C@_0BD@OKJBLNBA@ENTITY_TYPE_CRATER@ DB 'ENTITY_TYPE_CRATER', 00H ; `string'
CONST	ENDS
;	COMDAT ??_C@_0BK@DOBPDJHC@ENTITY_TYPE_CITY_BUILDING@
CONST	SEGMENT
??_C@_0BK@DOBPDJHC@ENTITY_TYPE_CITY_BUILDING@ DB 'ENTITY_TYPE_CITY_BUILDI'
	DB	'NG', 00H					; `string'
CONST	ENDS
;	COMDAT ??_C@_0BB@NAOJINGJ@ENTITY_TYPE_CITY@
CONST	SEGMENT
??_C@_0BB@NAOJINGJ@ENTITY_TYPE_CITY@ DB 'ENTITY_TYPE_CITY', 00H ; `string'
CONST	ENDS
;	COMDAT ??_C@_0BC@EAPMPJNM@ENTITY_TYPE_CARGO@
CONST	SEGMENT
??_C@_0BC@EAPMPJNM@ENTITY_TYPE_CARGO@ DB 'ENTITY_TYPE_CARGO', 00H ; `string'
CONST	ENDS
;	COMDAT ??_C@_0BD@DKAAOELJ@ENTITY_TYPE_CAMERA@
CONST	SEGMENT
??_C@_0BD@DKAAOELJ@ENTITY_TYPE_CAMERA@ DB 'ENTITY_TYPE_CAMERA', 00H ; `string'
CONST	ENDS
;	COMDAT ??_C@_0BD@CKIIPKAC@ENTITY_TYPE_BRIDGE@
CONST	SEGMENT
??_C@_0BD@CKIIPKAC@ENTITY_TYPE_BRIDGE@ DB 'ENTITY_TYPE_BRIDGE', 00H ; `string'
CONST	ENDS
;	COMDAT ??_C@_0BK@MPAKAHOL@ENTITY_TYPE_ANTI_AIRCRAFT@
CONST	SEGMENT
??_C@_0BK@MPAKAHOL@ENTITY_TYPE_ANTI_AIRCRAFT@ DB 'ENTITY_TYPE_ANTI_AIRCRA'
	DB	'FT', 00H					; `string'
CONST	ENDS
;	COMDAT ??_C@_0BE@ILLAKDIO@ENTITY_TYPE_UNKNOWN@
CONST	SEGMENT
??_C@_0BE@ILLAKDIO@ENTITY_TYPE_UNKNOWN@ DB 'ENTITY_TYPE_UNKNOWN', 00H ; `string'
CONST	ENDS
;	COMDAT ??_C@_0DM@FLKGFIPE@Overloaded?5entity?5function?5invo@
CONST	SEGMENT
??_C@_0DM@FLKGFIPE@Overloaded?5entity?5function?5invo@ DB 'Overloaded ent'
	DB	'ity function invoked with NULL entity pointer', 00H ; `string'
CONST	ENDS
_DATA	SEGMENT
?null_entity_pointer_message@@3PBDB DD FLAT:??_C@_0DM@FLKGFIPE@Overloaded?5entity?5function?5invo@ ; null_entity_pointer_message
	ORG $+4
?entity_type_database@@3PAUENTITY_TYPE_DATA@@A DD FLAT:??_C@_0BE@ILLAKDIO@ENTITY_TYPE_UNKNOWN@ ; entity_type_database
	DD	00H
	DD	00H
	DD	FLAT:??_C@_0BK@MPAKAHOL@ENTITY_TYPE_ANTI_AIRCRAFT@
	DD	0178H
	DD	00H
	DD	FLAT:??_C@_0BD@CKIIPKAC@ENTITY_TYPE_BRIDGE@
	DD	020H
	DD	00H
	DD	FLAT:??_C@_0BD@DKAAOELJ@ENTITY_TYPE_CAMERA@
	DD	0164H
	DD	00H
	DD	FLAT:??_C@_0BC@EAPMPJNM@ENTITY_TYPE_CARGO@
	DD	0c8H
	DD	00H
	DD	FLAT:??_C@_0BB@NAOJINGJ@ENTITY_TYPE_CITY@
	DD	060H
	DD	00H
	DD	FLAT:??_C@_0BK@DOBPDJHC@ENTITY_TYPE_CITY_BUILDING@
	DD	050H
	DD	00H
	DD	FLAT:??_C@_0BD@OKJBLNBA@ENTITY_TYPE_CRATER@
	DD	054H
	DD	00H
	DD	FLAT:??_C@_0BF@NKBHNOIK@ENTITY_TYPE_DIVISION@
	DD	058H
	DD	00H
	DD	FLAT:??_C@_0BG@NJIOHMGP@ENTITY_TYPE_EXPLOSION@
	DD	048H
	DD	00H
	DD	FLAT:??_C@_0BH@BIILPMCN@ENTITY_TYPE_FIXED_WING@
	DD	0190H
	DD	00H
	DD	FLAT:??_C@_0BC@FCOHJGFI@ENTITY_TYPE_FORCE@
	DD	04a4H
	DD	00H
	DD	FLAT:??_C@_0BC@IMKGKAFK@ENTITY_TYPE_GROUP@
	DD	0ccH
	DD	00H
	DD	FLAT:??_C@_0BC@DBLMAMMF@ENTITY_TYPE_GUIDE@
	DD	098H
	DD	00H
	DD	FLAT:??_C@_0BH@BLIAFHCF@ENTITY_TYPE_HELICOPTER@
	DD	01e4H
	DD	00H
	DD	FLAT:??_C@_0BE@PCDBBMIA@ENTITY_TYPE_KEYSITE@
	DD	01a4H
	DD	00H
	DD	FLAT:??_C@_0BE@ODCPAMBP@ENTITY_TYPE_LANDING@
	DD	054H
	DD	00H
	DD	FLAT:??_C@_0BD@ODEFAPCA@ENTITY_TYPE_OBJECT@
	DD	04cH
	DD	00H
	DD	FLAT:??_C@_0BF@BHIGOLMB@ENTITY_TYPE_PARTICLE@
	DD	054H
	DD	00H
	DD	FLAT:??_C@_0BD@PDADAEAA@ENTITY_TYPE_PERSON@
	DD	017cH
	DD	00H
	DD	FLAT:??_C@_0BC@OCCNHIKG@ENTITY_TYPE_PILOT@
	DD	0144H
	DD	00H
	DD	FLAT:??_C@_0BC@DCOABFPP@ENTITY_TYPE_PYLON@
	DD	048H
	DD	00H
	DD	FLAT:??_C@_0BC@KOMMKA@ENTITY_TYPE_REGEN@
	DD	040H
	DD	00H
	DD	FLAT:??_C@_0BL@BIMOJEJG@ENTITY_TYPE_ROUTED_VEHICLE@
	DD	0184H
	DD	00H
	DD	FLAT:??_C@_0BD@NFCCDLKP@ENTITY_TYPE_SCENIC@
	DD	044H
	DD	00H
	DD	FLAT:??_C@_0BD@OEMLMFEL@ENTITY_TYPE_SECTOR@
	DD	05cH
	DD	00H
	DD	FLAT:??_C@_0BE@LDNNMGBI@ENTITY_TYPE_SEGMENT@
	DD	064H
	DD	00H
	DD	FLAT:??_C@_0BE@PHDIACC@ENTITY_TYPE_SESSION@
	DD	0a8H
	DD	00H
	DD	FLAT:??_C@_0BJ@MLFIOJDE@ENTITY_TYPE_SHIP_VEHICLE@
	DD	0178H
	DD	00H
	DD	FLAT:??_C@_0BB@FGHOEHLG@ENTITY_TYPE_SITE@
	DD	050H
	DD	00H
	DD	FLAT:??_C@_0BL@HOFJDJJH@ENTITY_TYPE_SITE_UPDATABLE@
	DD	068H
	DD	00H
	DD	FLAT:??_C@_0BH@NHLMNFMC@ENTITY_TYPE_SMOKE_LIST@
	DD	08cH
	DD	00H
	DD	FLAT:??_C@_0BJ@NGCFONDL@ENTITY_TYPE_SOUND_EFFECT@
	DD	044H
	DD	00H
	DD	FLAT:??_C@_0BD@FNNDKPBE@ENTITY_TYPE_SPRITE@
	DD	064H
	DD	00H
	DD	FLAT:??_C@_0BB@LKCGIIEC@ENTITY_TYPE_TASK@
	DD	0acH
	DD	00H
	DD	FLAT:??_C@_0BD@BEBHNAOD@ENTITY_TYPE_UPDATE@
	DD	04H
	DD	00H
	DD	FLAT:??_C@_0BF@FKNBHCFO@ENTITY_TYPE_WAYPOINT@
	DD	044H
	DD	00H
	DD	FLAT:??_C@_0BD@DFBHIDC@ENTITY_TYPE_WEAPON@
	DD	0a8H
	DD	00H
_DATA	ENDS
PUBLIC	?initialise_entity_type_names@@YGXXZ		; initialise_entity_type_names
PUBLIC	?deinitialise_entity_type_names@@YGXXZ		; deinitialise_entity_type_names
PUBLIC	?pack_entity_type@@YGXW4ENTITY_TYPES@@@Z	; pack_entity_type
PUBLIC	?unpack_entity_type@@YG?AW4ENTITY_TYPES@@XZ	; unpack_entity_type
PUBLIC	?__LINE__Var@?0??pack_entity_type@@YGXW4ENTITY_TYPES@@@Z@4JA ; `pack_entity_type'::`1'::__LINE__Var
PUBLIC	??_C@_0EO@BGMACPGD@c?3?2users?2nhv90?2projects?2eech?2ap@ ; `string'
PUBLIC	??_C@_0CJ@MBBFJKJE@?$CItype?5?$DO?$DN?50?$CJ?5?$CG?$CG?5?$CItype?5?$DM?5NUM_ENTI@ ; `string'
PUBLIC	??_C@_0CF@HPPMLCD@?$CB?$CItype?5?$DO?$DO?5NUM_ENTITY_TYPE_PACK_@ ; `string'
PUBLIC	?__LINE__Var@?0??unpack_entity_type@@YG?AW4ENTITY_TYPES@@XZ@4JA ; `unpack_entity_type'::`1'::__LINE__Var
EXTRN	?process_assert@@YGXPBD0H@Z:PROC		; process_assert
EXTRN	?malloc_heap_memory@@YGPAXI@Z:PROC		; malloc_heap_memory
EXTRN	?free_mem@@YGXPAX@Z:PROC			; free_mem
EXTRN	?pack_unsigned_data@@YGXIH@Z:PROC		; pack_unsigned_data
EXTRN	?unpack_unsigned_data@@YGIH@Z:PROC		; unpack_unsigned_data
;	COMDAT ?__LINE__Var@?0??unpack_entity_type@@YG?AW4ENTITY_TYPES@@XZ@4JA
_DATA	SEGMENT
?__LINE__Var@?0??unpack_entity_type@@YG?AW4ENTITY_TYPES@@XZ@4JA DD 015cH ; `unpack_entity_type'::`1'::__LINE__Var
_DATA	ENDS
;	COMDAT ??_C@_0CF@HPPMLCD@?$CB?$CItype?5?$DO?$DO?5NUM_ENTITY_TYPE_PACK_@
CONST	SEGMENT
??_C@_0CF@HPPMLCD@?$CB?$CItype?5?$DO?$DO?5NUM_ENTITY_TYPE_PACK_@ DB '!(ty'
	DB	'pe >> NUM_ENTITY_TYPE_PACK_BITS)', 00H	; `string'
CONST	ENDS
;	COMDAT ??_C@_0CJ@MBBFJKJE@?$CItype?5?$DO?$DN?50?$CJ?5?$CG?$CG?5?$CItype?5?$DM?5NUM_ENTI@
CONST	SEGMENT
??_C@_0CJ@MBBFJKJE@?$CItype?5?$DO?$DN?50?$CJ?5?$CG?$CG?5?$CItype?5?$DM?5NUM_ENTI@ DB '('
	DB	'type >= 0) && (type < NUM_ENTITY_TYPES)', 00H ; `string'
CONST	ENDS
;	COMDAT ??_C@_0EO@BGMACPGD@c?3?2users?2nhv90?2projects?2eech?2ap@
CONST	SEGMENT
??_C@_0EO@BGMACPGD@c?3?2users?2nhv90?2projects?2eech?2ap@ DB 'c:\users\nh'
	DB	'v90\projects\eech\aphavoc\source\entity\system\en_types\en_ty'
	DB	'pes.c', 00H					; `string'
CONST	ENDS
;	COMDAT ?__LINE__Var@?0??pack_entity_type@@YGXW4ENTITY_TYPES@@@Z@4JA
_DATA	SEGMENT
?__LINE__Var@?0??pack_entity_type@@YGXW4ENTITY_TYPES@@@Z@4JA DD 0146H ; `pack_entity_type'::`1'::__LINE__Var
_DATA	ENDS
; Function compile flags: /Odtp /ZI
; File c:\users\nhv90\projects\eech\aphavoc\source\entity\system\en_types\en_types.c
;	COMDAT ?unpack_entity_type@@YG?AW4ENTITY_TYPES@@XZ
_TEXT	SEGMENT
_type$ = -4						; size = 4
?unpack_entity_type@@YG?AW4ENTITY_TYPES@@XZ PROC	; unpack_entity_type, COMDAT

; 348  : {

  00000	55		 push	 ebp
  00001	8b ec		 mov	 ebp, esp
  00003	83 ec 44	 sub	 esp, 68			; 00000044H
  00006	53		 push	 ebx
  00007	56		 push	 esi
  00008	57		 push	 edi

; 349  : 	entity_types
; 350  : 		type;
; 351  : 
; 352  : 	type = (entity_types) unpack_unsigned_data (NUM_ENTITY_TYPE_PACK_BITS);

  00009	6a 06		 push	 6
  0000b	e8 00 00 00 00	 call	 ?unpack_unsigned_data@@YGIH@Z ; unpack_unsigned_data
  00010	89 45 fc	 mov	 DWORD PTR _type$[ebp], eax

; 353  : 
; 354  : 	ASSERT ((type >= 0) && (type < NUM_ENTITY_TYPES));

  00013	83 7d fc 00	 cmp	 DWORD PTR _type$[ebp], 0
  00017	7c 06		 jl	 SHORT $LN3@unpack_ent
  00019	83 7d fc 26	 cmp	 DWORD PTR _type$[ebp], 38 ; 00000026H
  0001d	7c 18		 jl	 SHORT $LN2@unpack_ent
$LN3@unpack_ent:
  0001f	a1 00 00 00 00	 mov	 eax, DWORD PTR ?__LINE__Var@?0??unpack_entity_type@@YG?AW4ENTITY_TYPES@@XZ@4JA
  00024	83 c0 06	 add	 eax, 6
  00027	50		 push	 eax
  00028	68 00 00 00 00	 push	 OFFSET ??_C@_0EO@BGMACPGD@c?3?2users?2nhv90?2projects?2eech?2ap@
  0002d	68 00 00 00 00	 push	 OFFSET ??_C@_0CJ@MBBFJKJE@?$CItype?5?$DO?$DN?50?$CJ?5?$CG?$CG?5?$CItype?5?$DM?5NUM_ENTI@
  00032	e8 00 00 00 00	 call	 ?process_assert@@YGXPBD0H@Z ; process_assert
$LN2@unpack_ent:

; 355  : 
; 356  : 	#if (DEBUG_MODULE_PACK_ONE || DEBUG_MODULE_PACK_ALL)
; 357  : 
; 358  : 	if (entity_type_database[type].debug_pack)
; 359  : 	{
; 360  : 		debug_log_entity_args (ENTITY_DEBUG_UNPACK, ENTITY_DEBUG_ENTITY_TYPE, NULL, type);
; 361  : 	}
; 362  : 
; 363  : 	#endif
; 364  : 
; 365  : 	return (type);

  00037	8b 45 fc	 mov	 eax, DWORD PTR _type$[ebp]

; 366  : }

  0003a	5f		 pop	 edi
  0003b	5e		 pop	 esi
  0003c	5b		 pop	 ebx
  0003d	8b e5		 mov	 esp, ebp
  0003f	5d		 pop	 ebp
  00040	c3		 ret	 0
?unpack_entity_type@@YG?AW4ENTITY_TYPES@@XZ ENDP	; unpack_entity_type
_TEXT	ENDS
; Function compile flags: /Odtp /ZI
; File c:\users\nhv90\projects\eech\aphavoc\source\entity\system\en_types\en_types.c
;	COMDAT ?pack_entity_type@@YGXW4ENTITY_TYPES@@@Z
_TEXT	SEGMENT
_type$ = 8						; size = 4
?pack_entity_type@@YGXW4ENTITY_TYPES@@@Z PROC		; pack_entity_type, COMDAT

; 326  : {

  00000	55		 push	 ebp
  00001	8b ec		 mov	 ebp, esp
  00003	83 ec 40	 sub	 esp, 64			; 00000040H
  00006	53		 push	 ebx
  00007	56		 push	 esi
  00008	57		 push	 edi

; 327  : 	ASSERT ((type >= 0) && (type < NUM_ENTITY_TYPES));

  00009	83 7d 08 00	 cmp	 DWORD PTR _type$[ebp], 0
  0000d	7c 06		 jl	 SHORT $LN3@pack_entit
  0000f	83 7d 08 26	 cmp	 DWORD PTR _type$[ebp], 38 ; 00000026H
  00013	7c 18		 jl	 SHORT $LN2@pack_entit
$LN3@pack_entit:
  00015	a1 00 00 00 00	 mov	 eax, DWORD PTR ?__LINE__Var@?0??pack_entity_type@@YGXW4ENTITY_TYPES@@@Z@4JA
  0001a	83 c0 01	 add	 eax, 1
  0001d	50		 push	 eax
  0001e	68 00 00 00 00	 push	 OFFSET ??_C@_0EO@BGMACPGD@c?3?2users?2nhv90?2projects?2eech?2ap@
  00023	68 00 00 00 00	 push	 OFFSET ??_C@_0CJ@MBBFJKJE@?$CItype?5?$DO?$DN?50?$CJ?5?$CG?$CG?5?$CItype?5?$DM?5NUM_ENTI@
  00028	e8 00 00 00 00	 call	 ?process_assert@@YGXPBD0H@Z ; process_assert
$LN2@pack_entit:

; 328  : 
; 329  : 	#if (DEBUG_MODULE_PACK_ONE || DEBUG_MODULE_PACK_ALL)
; 330  : 
; 331  : 	if (entity_type_database[type].debug_pack)
; 332  : 	{
; 333  : 		debug_log_entity_args (ENTITY_DEBUG_PACK, ENTITY_DEBUG_ENTITY_TYPE, NULL, type);
; 334  : 	}
; 335  : 
; 336  : 	#endif
; 337  : 
; 338  : 	ASSERT(!(type >> NUM_ENTITY_TYPE_PACK_BITS));

  0002d	8b 45 08	 mov	 eax, DWORD PTR _type$[ebp]
  00030	c1 f8 06	 sar	 eax, 6
  00033	85 c0		 test	 eax, eax
  00035	74 18		 je	 SHORT $LN4@pack_entit
  00037	a1 00 00 00 00	 mov	 eax, DWORD PTR ?__LINE__Var@?0??pack_entity_type@@YGXW4ENTITY_TYPES@@@Z@4JA
  0003c	83 c0 0c	 add	 eax, 12			; 0000000cH
  0003f	50		 push	 eax
  00040	68 00 00 00 00	 push	 OFFSET ??_C@_0EO@BGMACPGD@c?3?2users?2nhv90?2projects?2eech?2ap@
  00045	68 00 00 00 00	 push	 OFFSET ??_C@_0CF@HPPMLCD@?$CB?$CItype?5?$DO?$DO?5NUM_ENTITY_TYPE_PACK_@
  0004a	e8 00 00 00 00	 call	 ?process_assert@@YGXPBD0H@Z ; process_assert
$LN4@pack_entit:

; 339  : 
; 340  : 	pack_unsigned_data (type, NUM_ENTITY_TYPE_PACK_BITS);

  0004f	6a 06		 push	 6
  00051	8b 45 08	 mov	 eax, DWORD PTR _type$[ebp]
  00054	50		 push	 eax
  00055	e8 00 00 00 00	 call	 ?pack_unsigned_data@@YGXIH@Z ; pack_unsigned_data

; 341  : }

  0005a	5f		 pop	 edi
  0005b	5e		 pop	 esi
  0005c	5b		 pop	 ebx
  0005d	8b e5		 mov	 esp, ebp
  0005f	5d		 pop	 ebp
  00060	c2 04 00	 ret	 4
?pack_entity_type@@YGXW4ENTITY_TYPES@@@Z ENDP		; pack_entity_type
_TEXT	ENDS
; Function compile flags: /Odtp /ZI
; File c:\users\nhv90\projects\eech\aphavoc\source\entity\system\en_types\en_types.c
;	COMDAT ?deinitialise_entity_type_names@@YGXXZ
_TEXT	SEGMENT
?deinitialise_entity_type_names@@YGXXZ PROC		; deinitialise_entity_type_names, COMDAT

; 316  : {

  00000	55		 push	 ebp
  00001	8b ec		 mov	 ebp, esp
  00003	83 ec 40	 sub	 esp, 64			; 00000040H
  00006	53		 push	 ebx
  00007	56		 push	 esi
  00008	57		 push	 edi

; 317  : 
; 318  : 	free_mem ((void*)entity_type_names);

  00009	a1 00 00 00 00	 mov	 eax, DWORD PTR ?entity_type_names@@3PAPBDA ; entity_type_names
  0000e	50		 push	 eax
  0000f	e8 00 00 00 00	 call	 ?free_mem@@YGXPAX@Z	; free_mem

; 319  : }

  00014	5f		 pop	 edi
  00015	5e		 pop	 esi
  00016	5b		 pop	 ebx
  00017	8b e5		 mov	 esp, ebp
  00019	5d		 pop	 ebp
  0001a	c3		 ret	 0
?deinitialise_entity_type_names@@YGXXZ ENDP		; deinitialise_entity_type_names
_TEXT	ENDS
; Function compile flags: /Odtp /ZI
; File c:\users\nhv90\projects\eech\aphavoc\source\entity\system\en_types\en_types.c
;	COMDAT ?initialise_entity_type_names@@YGXXZ
_TEXT	SEGMENT
_loop$ = -4						; size = 4
?initialise_entity_type_names@@YGXXZ PROC		; initialise_entity_type_names, COMDAT

; 297  : {

  00000	55		 push	 ebp
  00001	8b ec		 mov	 ebp, esp
  00003	83 ec 44	 sub	 esp, 68			; 00000044H
  00006	53		 push	 ebx
  00007	56		 push	 esi
  00008	57		 push	 edi

; 298  : 
; 299  : 	int
; 300  : 		loop;
; 301  : 
; 302  : 	entity_type_names = (const char **) malloc_heap_mem (sizeof (const char *) * NUM_ENTITY_TYPES + 1);

  00009	68 99 00 00 00	 push	 153			; 00000099H
  0000e	e8 00 00 00 00	 call	 ?malloc_heap_memory@@YGPAXI@Z ; malloc_heap_memory
  00013	a3 00 00 00 00	 mov	 DWORD PTR ?entity_type_names@@3PAPBDA, eax ; entity_type_names

; 303  : 
; 304  : 	for (loop = 0; loop < NUM_ENTITY_TYPES; loop ++)

  00018	c7 45 fc 00 00
	00 00		 mov	 DWORD PTR _loop$[ebp], 0
  0001f	eb 09		 jmp	 SHORT $LN4@initialise
$LN2@initialise:
  00021	8b 45 fc	 mov	 eax, DWORD PTR _loop$[ebp]
  00024	83 c0 01	 add	 eax, 1
  00027	89 45 fc	 mov	 DWORD PTR _loop$[ebp], eax
$LN4@initialise:
  0002a	83 7d fc 26	 cmp	 DWORD PTR _loop$[ebp], 38 ; 00000026H
  0002e	7d 18		 jge	 SHORT $LN1@initialise

; 305  : 	{
; 306  : 
; 307  : 		entity_type_names [loop] = get_entity_type_name (loop);

  00030	6b 45 fc 0c	 imul	 eax, DWORD PTR _loop$[ebp], 12
  00034	8b 4d fc	 mov	 ecx, DWORD PTR _loop$[ebp]
  00037	8b 15 00 00 00
	00		 mov	 edx, DWORD PTR ?entity_type_names@@3PAPBDA ; entity_type_names
  0003d	8b 80 00 00 00
	00		 mov	 eax, DWORD PTR ?entity_type_database@@3PAUENTITY_TYPE_DATA@@A[eax]
  00043	89 04 8a	 mov	 DWORD PTR [edx+ecx*4], eax

; 308  : 	}

  00046	eb d9		 jmp	 SHORT $LN2@initialise
$LN1@initialise:

; 309  : }

  00048	5f		 pop	 edi
  00049	5e		 pop	 esi
  0004a	5b		 pop	 ebx
  0004b	8b e5		 mov	 esp, ebp
  0004d	5d		 pop	 ebp
  0004e	c3		 ret	 0
?initialise_entity_type_names@@YGXXZ ENDP		; initialise_entity_type_names
_TEXT	ENDS
END
